


Disassembly of section .text:

00000000000050a0 <_start>:
    50a0:	f3 0f 1e fa          	endbr64 
    50a4:	31 ed                	xor    %ebp,%ebp
    50a6:	49 89 d1             	mov    %rdx,%r9
    50a9:	5e                   	pop    %rsi
    50aa:	48 89 e2             	mov    %rsp,%rdx
    50ad:	48 83 e4 f0          	and    $0xfffffffffffffff0,%rsp
    50b1:	50                   	push   %rax
    50b2:	54                   	push   %rsp
    50b3:	4c 8d 05 e6 e9 00 00 	lea    0xe9e6(%rip),%r8        # 13aa0 <__libc_csu_fini>
    50ba:	48 8d 0d 6f e9 00 00 	lea    0xe96f(%rip),%rcx        # 13a30 <__libc_csu_init>
    50c1:	48 8d 3d c2 dc 00 00 	lea    0xdcc2(%rip),%rdi        # 12d8a <main>
    50c8:	ff 15 0a 3f 01 00    	callq  *0x13f0a(%rip)        # 18fd8 <__libc_start_main@GLIBC_2.2.5>
    50ce:	f4                   	hlt    
    50cf:	90                   	nop

00000000000050d0 <deregister_tm_clones>:
    50d0:	48 8d 3d 71 6b 01 00 	lea    0x16b71(%rip),%rdi        # 1bc48 <__TMC_END__>
    50d7:	48 8d 05 6a 6b 01 00 	lea    0x16b6a(%rip),%rax        # 1bc48 <__TMC_END__>
    50de:	48 39 f8             	cmp    %rdi,%rax
    50e1:	74 15                	je     50f8 <deregister_tm_clones+0x28>
    50e3:	48 8b 05 e6 3e 01 00 	mov    0x13ee6(%rip),%rax        # 18fd0 <_ITM_deregisterTMCloneTable>
    50ea:	48 85 c0             	test   %rax,%rax
    50ed:	74 09                	je     50f8 <deregister_tm_clones+0x28>
    50ef:	ff e0                	jmpq   *%rax
    50f1:	0f 1f 80 00 00 00 00 	nopl   0x0(%rax)
    50f8:	c3                   	retq   
    50f9:	0f 1f 80 00 00 00 00 	nopl   0x0(%rax)

0000000000005100 <register_tm_clones>:
    5100:	48 8d 3d 41 6b 01 00 	lea    0x16b41(%rip),%rdi        # 1bc48 <__TMC_END__>
    5107:	48 8d 35 3a 6b 01 00 	lea    0x16b3a(%rip),%rsi        # 1bc48 <__TMC_END__>
    510e:	48 29 fe             	sub    %rdi,%rsi
    5111:	48 89 f0             	mov    %rsi,%rax
    5114:	48 c1 ee 3f          	shr    $0x3f,%rsi
    5118:	48 c1 f8 03          	sar    $0x3,%rax
    511c:	48 01 c6             	add    %rax,%rsi
    511f:	48 d1 fe             	sar    %rsi
    5122:	74 14                	je     5138 <register_tm_clones+0x38>
    5124:	48 8b 05 bd 3e 01 00 	mov    0x13ebd(%rip),%rax        # 18fe8 <_ITM_registerTMCloneTable>
    512b:	48 85 c0             	test   %rax,%rax
    512e:	74 08                	je     5138 <register_tm_clones+0x38>
    5130:	ff e0                	jmpq   *%rax
    5132:	66 0f 1f 44 00 00    	nopw   0x0(%rax,%rax,1)
    5138:	c3                   	retq   
    5139:	0f 1f 80 00 00 00 00 	nopl   0x0(%rax)

0000000000005140 <__do_global_dtors_aux>:
    5140:	f3 0f 1e fa          	endbr64 
    5144:	80 3d 15 6b 01 00 00 	cmpb   $0x0,0x16b15(%rip)        # 1bc60 <completed.8061>
    514b:	75 2b                	jne    5178 <__do_global_dtors_aux+0x38>
    514d:	55                   	push   %rbp
    514e:	48 83 3d 9a 3e 01 00 	cmpq   $0x0,0x13e9a(%rip)        # 18ff0 <__cxa_finalize@GLIBC_2.2.5>
    5155:	00 
    5156:	48 89 e5             	mov    %rsp,%rbp
    5159:	74 0c                	je     5167 <__do_global_dtors_aux+0x27>
    515b:	48 8b 3d a6 3e 01 00 	mov    0x13ea6(%rip),%rdi        # 19008 <__dso_handle>
    5162:	e8 f9 fe ff ff       	callq  5060 <__cxa_finalize@plt>
    5167:	e8 64 ff ff ff       	callq  50d0 <deregister_tm_clones>
    516c:	c6 05 ed 6a 01 00 01 	movb   $0x1,0x16aed(%rip)        # 1bc60 <completed.8061>
    5173:	5d                   	pop    %rbp
    5174:	c3                   	retq   
    5175:	0f 1f 00             	nopl   (%rax)
    5178:	c3                   	retq   
    5179:	0f 1f 80 00 00 00 00 	nopl   0x0(%rax)

0000000000005180 <frame_dummy>:
    5180:	f3 0f 1e fa          	endbr64 
    5184:	e9 77 ff ff ff       	jmpq   5100 <register_tm_clones>

0000000000005189 <platform_main_begin>:
    5189:	f3 0f 1e fa          	endbr64 
    518d:	55                   	push   %rbp
    518e:	48 89 e5             	mov    %rsp,%rbp
    5191:	90                   	nop
    5192:	5d                   	pop    %rbp
    5193:	c3                   	retq   

0000000000005194 <platform_main_end>:
    5194:	f3 0f 1e fa          	endbr64 
    5198:	55                   	push   %rbp
    5199:	48 89 e5             	mov    %rsp,%rbp
    519c:	48 83 ec 10          	sub    $0x10,%rsp
    51a0:	89 7d fc             	mov    %edi,-0x4(%rbp)
    51a3:	89 75 f8             	mov    %esi,-0x8(%rbp)
    51a6:	8b 45 fc             	mov    -0x4(%rbp),%eax
    51a9:	89 c6                	mov    %eax,%esi
    51ab:	48 8d 3d 6e ee 00 00 	lea    0xee6e(%rip),%rdi        # 14020 <_IO_stdin_used+0x20>
    51b2:	b8 00 00 00 00       	mov    $0x0,%eax
    51b7:	e8 c4 fe ff ff       	callq  5080 <printf@plt>
    51bc:	90                   	nop
    51bd:	c9                   	leaveq 
    51be:	c3                   	retq   

00000000000051bf <safe_unary_minus_func_int8_t_s>:
    51bf:	f3 0f 1e fa          	endbr64 
    51c3:	55                   	push   %rbp
    51c4:	48 89 e5             	mov    %rsp,%rbp
    51c7:	89 f8                	mov    %edi,%eax
    51c9:	88 45 fc             	mov    %al,-0x4(%rbp)
    51cc:	0f b6 45 fc          	movzbl -0x4(%rbp),%eax
    51d0:	f7 d8                	neg    %eax
    51d2:	5d                   	pop    %rbp
    51d3:	c3                   	retq   

00000000000051d4 <safe_add_func_int8_t_s_s>:
    51d4:	f3 0f 1e fa          	endbr64 
    51d8:	55                   	push   %rbp
    51d9:	48 89 e5             	mov    %rsp,%rbp
    51dc:	89 fa                	mov    %edi,%edx
    51de:	89 f0                	mov    %esi,%eax
    51e0:	88 55 fc             	mov    %dl,-0x4(%rbp)
    51e3:	88 45 f8             	mov    %al,-0x8(%rbp)
    51e6:	0f b6 55 fc          	movzbl -0x4(%rbp),%edx
    51ea:	0f b6 45 f8          	movzbl -0x8(%rbp),%eax
    51ee:	01 d0                	add    %edx,%eax
    51f0:	5d                   	pop    %rbp
    51f1:	c3                   	retq   

00000000000051f2 <safe_sub_func_int8_t_s_s>:
    51f2:	f3 0f 1e fa          	endbr64 
    51f6:	55                   	push   %rbp
    51f7:	48 89 e5             	mov    %rsp,%rbp
    51fa:	89 fa                	mov    %edi,%edx
    51fc:	89 f0                	mov    %esi,%eax
    51fe:	88 55 fc             	mov    %dl,-0x4(%rbp)
    5201:	88 45 f8             	mov    %al,-0x8(%rbp)
    5204:	0f b6 55 fc          	movzbl -0x4(%rbp),%edx
    5208:	0f b6 45 f8          	movzbl -0x8(%rbp),%eax
    520c:	29 c2                	sub    %eax,%edx
    520e:	89 d0                	mov    %edx,%eax
    5210:	5d                   	pop    %rbp
    5211:	c3                   	retq   

0000000000005212 <safe_mul_func_int8_t_s_s>:
    5212:	f3 0f 1e fa          	endbr64 
    5216:	55                   	push   %rbp
    5217:	48 89 e5             	mov    %rsp,%rbp
    521a:	89 fa                	mov    %edi,%edx
    521c:	89 f0                	mov    %esi,%eax
    521e:	88 55 fc             	mov    %dl,-0x4(%rbp)
    5221:	88 45 f8             	mov    %al,-0x8(%rbp)
    5224:	0f b6 45 fc          	movzbl -0x4(%rbp),%eax
    5228:	0f b6 55 f8          	movzbl -0x8(%rbp),%edx
    522c:	0f af c2             	imul   %edx,%eax
    522f:	5d                   	pop    %rbp
    5230:	c3                   	retq   

0000000000005231 <safe_mod_func_int8_t_s_s>:
    5231:	f3 0f 1e fa          	endbr64 
    5235:	55                   	push   %rbp
    5236:	48 89 e5             	mov    %rsp,%rbp
    5239:	89 fa                	mov    %edi,%edx
    523b:	89 f0                	mov    %esi,%eax
    523d:	88 55 fc             	mov    %dl,-0x4(%rbp)
    5240:	88 45 f8             	mov    %al,-0x8(%rbp)
    5243:	80 7d f8 00          	cmpb   $0x0,-0x8(%rbp)
    5247:	74 1b                	je     5264 <safe_mod_func_int8_t_s_s+0x33>
    5249:	80 7d fc 80          	cmpb   $0x80,-0x4(%rbp)
    524d:	75 06                	jne    5255 <safe_mod_func_int8_t_s_s+0x24>
    524f:	80 7d f8 ff          	cmpb   $0xff,-0x8(%rbp)
    5253:	74 0f                	je     5264 <safe_mod_func_int8_t_s_s+0x33>
    5255:	0f be 45 fc          	movsbl -0x4(%rbp),%eax
    5259:	0f be 4d f8          	movsbl -0x8(%rbp),%ecx
    525d:	99                   	cltd   
    525e:	f7 f9                	idiv   %ecx
    5260:	89 d0                	mov    %edx,%eax
    5262:	eb 04                	jmp    5268 <safe_mod_func_int8_t_s_s+0x37>
    5264:	0f b6 45 fc          	movzbl -0x4(%rbp),%eax
    5268:	5d                   	pop    %rbp
    5269:	c3                   	retq   

000000000000526a <safe_div_func_int8_t_s_s>:
    526a:	f3 0f 1e fa          	endbr64 
    526e:	55                   	push   %rbp
    526f:	48 89 e5             	mov    %rsp,%rbp
    5272:	89 fa                	mov    %edi,%edx
    5274:	89 f0                	mov    %esi,%eax
    5276:	88 55 fc             	mov    %dl,-0x4(%rbp)
    5279:	88 45 f8             	mov    %al,-0x8(%rbp)
    527c:	80 7d f8 00          	cmpb   $0x0,-0x8(%rbp)
    5280:	74 19                	je     529b <safe_div_func_int8_t_s_s+0x31>
    5282:	80 7d fc 80          	cmpb   $0x80,-0x4(%rbp)
    5286:	75 06                	jne    528e <safe_div_func_int8_t_s_s+0x24>
    5288:	80 7d f8 ff          	cmpb   $0xff,-0x8(%rbp)
    528c:	74 0d                	je     529b <safe_div_func_int8_t_s_s+0x31>
    528e:	0f be 45 fc          	movsbl -0x4(%rbp),%eax
    5292:	0f be 4d f8          	movsbl -0x8(%rbp),%ecx
    5296:	99                   	cltd   
    5297:	f7 f9                	idiv   %ecx
    5299:	eb 04                	jmp    529f <safe_div_func_int8_t_s_s+0x35>
    529b:	0f b6 45 fc          	movzbl -0x4(%rbp),%eax
    529f:	5d                   	pop    %rbp
    52a0:	c3                   	retq   

00000000000052a1 <safe_lshift_func_int8_t_s_s>:
    52a1:	f3 0f 1e fa          	endbr64 
    52a5:	55                   	push   %rbp
    52a6:	48 89 e5             	mov    %rsp,%rbp
    52a9:	89 f8                	mov    %edi,%eax
    52ab:	89 75 f8             	mov    %esi,-0x8(%rbp)
    52ae:	88 45 fc             	mov    %al,-0x4(%rbp)
    52b1:	80 7d fc 00          	cmpb   $0x0,-0x4(%rbp)
    52b5:	78 31                	js     52e8 <safe_lshift_func_int8_t_s_s+0x47>
    52b7:	83 7d f8 00          	cmpl   $0x0,-0x8(%rbp)
    52bb:	78 2b                	js     52e8 <safe_lshift_func_int8_t_s_s+0x47>
    52bd:	83 7d f8 1f          	cmpl   $0x1f,-0x8(%rbp)
    52c1:	7f 25                	jg     52e8 <safe_lshift_func_int8_t_s_s+0x47>
    52c3:	0f be 55 fc          	movsbl -0x4(%rbp),%edx
    52c7:	8b 45 f8             	mov    -0x8(%rbp),%eax
    52ca:	be 7f 00 00 00       	mov    $0x7f,%esi
    52cf:	89 c1                	mov    %eax,%ecx
    52d1:	d3 fe                	sar    %cl,%esi
    52d3:	89 f0                	mov    %esi,%eax
    52d5:	39 c2                	cmp    %eax,%edx
    52d7:	7f 0f                	jg     52e8 <safe_lshift_func_int8_t_s_s+0x47>
    52d9:	0f be 55 fc          	movsbl -0x4(%rbp),%edx
    52dd:	8b 45 f8             	mov    -0x8(%rbp),%eax
    52e0:	89 c1                	mov    %eax,%ecx
    52e2:	d3 e2                	shl    %cl,%edx
    52e4:	89 d0                	mov    %edx,%eax
    52e6:	eb 04                	jmp    52ec <safe_lshift_func_int8_t_s_s+0x4b>
    52e8:	0f b6 45 fc          	movzbl -0x4(%rbp),%eax
    52ec:	5d                   	pop    %rbp
    52ed:	c3                   	retq   

00000000000052ee <safe_lshift_func_int8_t_s_u>:
    52ee:	f3 0f 1e fa          	endbr64 
    52f2:	55                   	push   %rbp
    52f3:	48 89 e5             	mov    %rsp,%rbp
    52f6:	89 f8                	mov    %edi,%eax
    52f8:	89 75 f8             	mov    %esi,-0x8(%rbp)
    52fb:	88 45 fc             	mov    %al,-0x4(%rbp)
    52fe:	80 7d fc 00          	cmpb   $0x0,-0x4(%rbp)
    5302:	78 2b                	js     532f <safe_lshift_func_int8_t_s_u+0x41>
    5304:	83 7d f8 1f          	cmpl   $0x1f,-0x8(%rbp)
    5308:	77 25                	ja     532f <safe_lshift_func_int8_t_s_u+0x41>
    530a:	0f be 55 fc          	movsbl -0x4(%rbp),%edx
    530e:	8b 45 f8             	mov    -0x8(%rbp),%eax
    5311:	be 7f 00 00 00       	mov    $0x7f,%esi
    5316:	89 c1                	mov    %eax,%ecx
    5318:	d3 fe                	sar    %cl,%esi
    531a:	89 f0                	mov    %esi,%eax
    531c:	39 c2                	cmp    %eax,%edx
    531e:	7f 0f                	jg     532f <safe_lshift_func_int8_t_s_u+0x41>
    5320:	0f be 55 fc          	movsbl -0x4(%rbp),%edx
    5324:	8b 45 f8             	mov    -0x8(%rbp),%eax
    5327:	89 c1                	mov    %eax,%ecx
    5329:	d3 e2                	shl    %cl,%edx
    532b:	89 d0                	mov    %edx,%eax
    532d:	eb 04                	jmp    5333 <safe_lshift_func_int8_t_s_u+0x45>
    532f:	0f b6 45 fc          	movzbl -0x4(%rbp),%eax
    5333:	5d                   	pop    %rbp
    5334:	c3                   	retq   

0000000000005335 <safe_rshift_func_int8_t_s_s>:
    5335:	f3 0f 1e fa          	endbr64 
    5339:	55                   	push   %rbp
    533a:	48 89 e5             	mov    %rsp,%rbp
    533d:	89 f8                	mov    %edi,%eax
    533f:	89 75 f8             	mov    %esi,-0x8(%rbp)
    5342:	88 45 fc             	mov    %al,-0x4(%rbp)
    5345:	80 7d fc 00          	cmpb   $0x0,-0x4(%rbp)
    5349:	78 1b                	js     5366 <safe_rshift_func_int8_t_s_s+0x31>
    534b:	83 7d f8 00          	cmpl   $0x0,-0x8(%rbp)
    534f:	78 15                	js     5366 <safe_rshift_func_int8_t_s_s+0x31>
    5351:	83 7d f8 1f          	cmpl   $0x1f,-0x8(%rbp)
    5355:	7f 0f                	jg     5366 <safe_rshift_func_int8_t_s_s+0x31>
    5357:	0f be 55 fc          	movsbl -0x4(%rbp),%edx
    535b:	8b 45 f8             	mov    -0x8(%rbp),%eax
    535e:	89 c1                	mov    %eax,%ecx
    5360:	d3 fa                	sar    %cl,%edx
    5362:	89 d0                	mov    %edx,%eax
    5364:	eb 04                	jmp    536a <safe_rshift_func_int8_t_s_s+0x35>
    5366:	0f b6 45 fc          	movzbl -0x4(%rbp),%eax
    536a:	5d                   	pop    %rbp
    536b:	c3                   	retq   

000000000000536c <safe_rshift_func_int8_t_s_u>:
    536c:	f3 0f 1e fa          	endbr64 
    5370:	55                   	push   %rbp
    5371:	48 89 e5             	mov    %rsp,%rbp
    5374:	89 f8                	mov    %edi,%eax
    5376:	89 75 f8             	mov    %esi,-0x8(%rbp)
    5379:	88 45 fc             	mov    %al,-0x4(%rbp)
    537c:	80 7d fc 00          	cmpb   $0x0,-0x4(%rbp)
    5380:	78 15                	js     5397 <safe_rshift_func_int8_t_s_u+0x2b>
    5382:	83 7d f8 1f          	cmpl   $0x1f,-0x8(%rbp)
    5386:	77 0f                	ja     5397 <safe_rshift_func_int8_t_s_u+0x2b>
    5388:	0f be 55 fc          	movsbl -0x4(%rbp),%edx
    538c:	8b 45 f8             	mov    -0x8(%rbp),%eax
    538f:	89 c1                	mov    %eax,%ecx
    5391:	d3 fa                	sar    %cl,%edx
    5393:	89 d0                	mov    %edx,%eax
    5395:	eb 04                	jmp    539b <safe_rshift_func_int8_t_s_u+0x2f>
    5397:	0f b6 45 fc          	movzbl -0x4(%rbp),%eax
    539b:	5d                   	pop    %rbp
    539c:	c3                   	retq   

000000000000539d <safe_unary_minus_func_int16_t_s>:
    539d:	f3 0f 1e fa          	endbr64 
    53a1:	55                   	push   %rbp
    53a2:	48 89 e5             	mov    %rsp,%rbp
    53a5:	89 f8                	mov    %edi,%eax
    53a7:	66 89 45 fc          	mov    %ax,-0x4(%rbp)
    53ab:	0f b7 45 fc          	movzwl -0x4(%rbp),%eax
    53af:	f7 d8                	neg    %eax
    53b1:	5d                   	pop    %rbp
    53b2:	c3                   	retq   

00000000000053b3 <safe_add_func_int16_t_s_s>:
    53b3:	f3 0f 1e fa          	endbr64 
    53b7:	55                   	push   %rbp
    53b8:	48 89 e5             	mov    %rsp,%rbp
    53bb:	89 fa                	mov    %edi,%edx
    53bd:	89 f0                	mov    %esi,%eax
    53bf:	66 89 55 fc          	mov    %dx,-0x4(%rbp)
    53c3:	66 89 45 f8          	mov    %ax,-0x8(%rbp)
    53c7:	0f b7 55 fc          	movzwl -0x4(%rbp),%edx
    53cb:	0f b7 45 f8          	movzwl -0x8(%rbp),%eax
    53cf:	01 d0                	add    %edx,%eax
    53d1:	5d                   	pop    %rbp
    53d2:	c3                   	retq   

00000000000053d3 <safe_sub_func_int16_t_s_s>:
    53d3:	f3 0f 1e fa          	endbr64 
    53d7:	55                   	push   %rbp
    53d8:	48 89 e5             	mov    %rsp,%rbp
    53db:	89 fa                	mov    %edi,%edx
    53dd:	89 f0                	mov    %esi,%eax
    53df:	66 89 55 fc          	mov    %dx,-0x4(%rbp)
    53e3:	66 89 45 f8          	mov    %ax,-0x8(%rbp)
    53e7:	0f b7 55 fc          	movzwl -0x4(%rbp),%edx
    53eb:	0f b7 45 f8          	movzwl -0x8(%rbp),%eax
    53ef:	29 c2                	sub    %eax,%edx
    53f1:	89 d0                	mov    %edx,%eax
    53f3:	5d                   	pop    %rbp
    53f4:	c3                   	retq   

00000000000053f5 <safe_mul_func_int16_t_s_s>:
    53f5:	f3 0f 1e fa          	endbr64 
    53f9:	55                   	push   %rbp
    53fa:	48 89 e5             	mov    %rsp,%rbp
    53fd:	89 fa                	mov    %edi,%edx
    53ff:	89 f0                	mov    %esi,%eax
    5401:	66 89 55 fc          	mov    %dx,-0x4(%rbp)
    5405:	66 89 45 f8          	mov    %ax,-0x8(%rbp)
    5409:	0f b7 55 fc          	movzwl -0x4(%rbp),%edx
    540d:	0f b7 45 f8          	movzwl -0x8(%rbp),%eax
    5411:	0f af c2             	imul   %edx,%eax
    5414:	5d                   	pop    %rbp
    5415:	c3                   	retq   

0000000000005416 <safe_mod_func_int16_t_s_s>:
    5416:	f3 0f 1e fa          	endbr64 
    541a:	55                   	push   %rbp
    541b:	48 89 e5             	mov    %rsp,%rbp
    541e:	89 fa                	mov    %edi,%edx
    5420:	89 f0                	mov    %esi,%eax
    5422:	66 89 55 fc          	mov    %dx,-0x4(%rbp)
    5426:	66 89 45 f8          	mov    %ax,-0x8(%rbp)
    542a:	66 83 7d f8 00       	cmpw   $0x0,-0x8(%rbp)
    542f:	74 1e                	je     544f <safe_mod_func_int16_t_s_s+0x39>
    5431:	66 81 7d fc 00 80    	cmpw   $0x8000,-0x4(%rbp)
    5437:	75 07                	jne    5440 <safe_mod_func_int16_t_s_s+0x2a>
    5439:	66 83 7d f8 ff       	cmpw   $0xffff,-0x8(%rbp)
    543e:	74 0f                	je     544f <safe_mod_func_int16_t_s_s+0x39>
    5440:	0f bf 45 fc          	movswl -0x4(%rbp),%eax
    5444:	0f bf 4d f8          	movswl -0x8(%rbp),%ecx
    5448:	99                   	cltd   
    5449:	f7 f9                	idiv   %ecx
    544b:	89 d0                	mov    %edx,%eax
    544d:	eb 04                	jmp    5453 <safe_mod_func_int16_t_s_s+0x3d>
    544f:	0f b7 45 fc          	movzwl -0x4(%rbp),%eax
    5453:	5d                   	pop    %rbp
    5454:	c3                   	retq   

0000000000005455 <safe_div_func_int16_t_s_s>:
    5455:	f3 0f 1e fa          	endbr64 
    5459:	55                   	push   %rbp
    545a:	48 89 e5             	mov    %rsp,%rbp
    545d:	89 fa                	mov    %edi,%edx
    545f:	89 f0                	mov    %esi,%eax
    5461:	66 89 55 fc          	mov    %dx,-0x4(%rbp)
    5465:	66 89 45 f8          	mov    %ax,-0x8(%rbp)
    5469:	66 83 7d f8 00       	cmpw   $0x0,-0x8(%rbp)
    546e:	74 1c                	je     548c <safe_div_func_int16_t_s_s+0x37>
    5470:	66 81 7d fc 00 80    	cmpw   $0x8000,-0x4(%rbp)
    5476:	75 07                	jne    547f <safe_div_func_int16_t_s_s+0x2a>
    5478:	66 83 7d f8 ff       	cmpw   $0xffff,-0x8(%rbp)
    547d:	74 0d                	je     548c <safe_div_func_int16_t_s_s+0x37>
    547f:	0f bf 45 fc          	movswl -0x4(%rbp),%eax
    5483:	0f bf 4d f8          	movswl -0x8(%rbp),%ecx
    5487:	99                   	cltd   
    5488:	f7 f9                	idiv   %ecx
    548a:	eb 04                	jmp    5490 <safe_div_func_int16_t_s_s+0x3b>
    548c:	0f b7 45 fc          	movzwl -0x4(%rbp),%eax
    5490:	5d                   	pop    %rbp
    5491:	c3                   	retq   

0000000000005492 <safe_lshift_func_int16_t_s_s>:
    5492:	f3 0f 1e fa          	endbr64 
    5496:	55                   	push   %rbp
    5497:	48 89 e5             	mov    %rsp,%rbp
    549a:	89 f8                	mov    %edi,%eax
    549c:	89 75 f8             	mov    %esi,-0x8(%rbp)
    549f:	66 89 45 fc          	mov    %ax,-0x4(%rbp)
    54a3:	66 83 7d fc 00       	cmpw   $0x0,-0x4(%rbp)
    54a8:	78 31                	js     54db <safe_lshift_func_int16_t_s_s+0x49>
    54aa:	83 7d f8 00          	cmpl   $0x0,-0x8(%rbp)
    54ae:	78 2b                	js     54db <safe_lshift_func_int16_t_s_s+0x49>
    54b0:	83 7d f8 1f          	cmpl   $0x1f,-0x8(%rbp)
    54b4:	7f 25                	jg     54db <safe_lshift_func_int16_t_s_s+0x49>
    54b6:	0f bf 55 fc          	movswl -0x4(%rbp),%edx
    54ba:	8b 45 f8             	mov    -0x8(%rbp),%eax
    54bd:	be ff 7f 00 00       	mov    $0x7fff,%esi
    54c2:	89 c1                	mov    %eax,%ecx
    54c4:	d3 fe                	sar    %cl,%esi
    54c6:	89 f0                	mov    %esi,%eax
    54c8:	39 c2                	cmp    %eax,%edx
    54ca:	7f 0f                	jg     54db <safe_lshift_func_int16_t_s_s+0x49>
    54cc:	0f bf 55 fc          	movswl -0x4(%rbp),%edx
    54d0:	8b 45 f8             	mov    -0x8(%rbp),%eax
    54d3:	89 c1                	mov    %eax,%ecx
    54d5:	d3 e2                	shl    %cl,%edx
    54d7:	89 d0                	mov    %edx,%eax
    54d9:	eb 04                	jmp    54df <safe_lshift_func_int16_t_s_s+0x4d>
    54db:	0f b7 45 fc          	movzwl -0x4(%rbp),%eax
    54df:	5d                   	pop    %rbp
    54e0:	c3                   	retq   

00000000000054e1 <safe_lshift_func_int16_t_s_u>:
    54e1:	f3 0f 1e fa          	endbr64 
    54e5:	55                   	push   %rbp
    54e6:	48 89 e5             	mov    %rsp,%rbp
    54e9:	89 f8                	mov    %edi,%eax
    54eb:	89 75 f8             	mov    %esi,-0x8(%rbp)
    54ee:	66 89 45 fc          	mov    %ax,-0x4(%rbp)
    54f2:	66 83 7d fc 00       	cmpw   $0x0,-0x4(%rbp)
    54f7:	78 2b                	js     5524 <safe_lshift_func_int16_t_s_u+0x43>
    54f9:	83 7d f8 1f          	cmpl   $0x1f,-0x8(%rbp)
    54fd:	77 25                	ja     5524 <safe_lshift_func_int16_t_s_u+0x43>
    54ff:	0f bf 55 fc          	movswl -0x4(%rbp),%edx
    5503:	8b 45 f8             	mov    -0x8(%rbp),%eax
    5506:	be ff 7f 00 00       	mov    $0x7fff,%esi
    550b:	89 c1                	mov    %eax,%ecx
    550d:	d3 fe                	sar    %cl,%esi
    550f:	89 f0                	mov    %esi,%eax
    5511:	39 c2                	cmp    %eax,%edx
    5513:	7f 0f                	jg     5524 <safe_lshift_func_int16_t_s_u+0x43>
    5515:	0f bf 55 fc          	movswl -0x4(%rbp),%edx
    5519:	8b 45 f8             	mov    -0x8(%rbp),%eax
    551c:	89 c1                	mov    %eax,%ecx
    551e:	d3 e2                	shl    %cl,%edx
    5520:	89 d0                	mov    %edx,%eax
    5522:	eb 04                	jmp    5528 <safe_lshift_func_int16_t_s_u+0x47>
    5524:	0f b7 45 fc          	movzwl -0x4(%rbp),%eax
    5528:	5d                   	pop    %rbp
    5529:	c3                   	retq   

000000000000552a <safe_rshift_func_int16_t_s_s>:
    552a:	f3 0f 1e fa          	endbr64 
    552e:	55                   	push   %rbp
    552f:	48 89 e5             	mov    %rsp,%rbp
    5532:	89 f8                	mov    %edi,%eax
    5534:	89 75 f8             	mov    %esi,-0x8(%rbp)
    5537:	66 89 45 fc          	mov    %ax,-0x4(%rbp)
    553b:	66 83 7d fc 00       	cmpw   $0x0,-0x4(%rbp)
    5540:	78 1b                	js     555d <safe_rshift_func_int16_t_s_s+0x33>
    5542:	83 7d f8 00          	cmpl   $0x0,-0x8(%rbp)
    5546:	78 15                	js     555d <safe_rshift_func_int16_t_s_s+0x33>
    5548:	83 7d f8 1f          	cmpl   $0x1f,-0x8(%rbp)
    554c:	7f 0f                	jg     555d <safe_rshift_func_int16_t_s_s+0x33>
    554e:	0f bf 55 fc          	movswl -0x4(%rbp),%edx
    5552:	8b 45 f8             	mov    -0x8(%rbp),%eax
    5555:	89 c1                	mov    %eax,%ecx
    5557:	d3 fa                	sar    %cl,%edx
    5559:	89 d0                	mov    %edx,%eax
    555b:	eb 04                	jmp    5561 <safe_rshift_func_int16_t_s_s+0x37>
    555d:	0f b7 45 fc          	movzwl -0x4(%rbp),%eax
    5561:	5d                   	pop    %rbp
    5562:	c3                   	retq   

0000000000005563 <safe_rshift_func_int16_t_s_u>:
    5563:	f3 0f 1e fa          	endbr64 
    5567:	55                   	push   %rbp
    5568:	48 89 e5             	mov    %rsp,%rbp
    556b:	89 f8                	mov    %edi,%eax
    556d:	89 75 f8             	mov    %esi,-0x8(%rbp)
    5570:	66 89 45 fc          	mov    %ax,-0x4(%rbp)
    5574:	66 83 7d fc 00       	cmpw   $0x0,-0x4(%rbp)
    5579:	78 15                	js     5590 <safe_rshift_func_int16_t_s_u+0x2d>
    557b:	83 7d f8 1f          	cmpl   $0x1f,-0x8(%rbp)
    557f:	77 0f                	ja     5590 <safe_rshift_func_int16_t_s_u+0x2d>
    5581:	0f bf 55 fc          	movswl -0x4(%rbp),%edx
    5585:	8b 45 f8             	mov    -0x8(%rbp),%eax
    5588:	89 c1                	mov    %eax,%ecx
    558a:	d3 fa                	sar    %cl,%edx
    558c:	89 d0                	mov    %edx,%eax
    558e:	eb 04                	jmp    5594 <safe_rshift_func_int16_t_s_u+0x31>
    5590:	0f b7 45 fc          	movzwl -0x4(%rbp),%eax
    5594:	5d                   	pop    %rbp
    5595:	c3                   	retq   

0000000000005596 <safe_unary_minus_func_int32_t_s>:
    5596:	f3 0f 1e fa          	endbr64 
    559a:	55                   	push   %rbp
    559b:	48 89 e5             	mov    %rsp,%rbp
    559e:	89 7d fc             	mov    %edi,-0x4(%rbp)
    55a1:	81 7d fc 00 00 00 80 	cmpl   $0x80000000,-0x4(%rbp)
    55a8:	74 07                	je     55b1 <safe_unary_minus_func_int32_t_s+0x1b>
    55aa:	8b 45 fc             	mov    -0x4(%rbp),%eax
    55ad:	f7 d8                	neg    %eax
    55af:	eb 03                	jmp    55b4 <safe_unary_minus_func_int32_t_s+0x1e>
    55b1:	8b 45 fc             	mov    -0x4(%rbp),%eax
    55b4:	5d                   	pop    %rbp
    55b5:	c3                   	retq   

00000000000055b6 <safe_add_func_int32_t_s_s>:
    55b6:	f3 0f 1e fa          	endbr64 
    55ba:	55                   	push   %rbp
    55bb:	48 89 e5             	mov    %rsp,%rbp
    55be:	89 7d fc             	mov    %edi,-0x4(%rbp)
    55c1:	89 75 f8             	mov    %esi,-0x8(%rbp)
    55c4:	83 7d fc 00          	cmpl   $0x0,-0x4(%rbp)
    55c8:	7e 13                	jle    55dd <safe_add_func_int32_t_s_s+0x27>
    55ca:	83 7d f8 00          	cmpl   $0x0,-0x8(%rbp)
    55ce:	7e 0d                	jle    55dd <safe_add_func_int32_t_s_s+0x27>
    55d0:	b8 ff ff ff 7f       	mov    $0x7fffffff,%eax
    55d5:	2b 45 f8             	sub    -0x8(%rbp),%eax
    55d8:	39 45 fc             	cmp    %eax,-0x4(%rbp)
    55db:	7f 23                	jg     5600 <safe_add_func_int32_t_s_s+0x4a>
    55dd:	83 7d fc 00          	cmpl   $0x0,-0x4(%rbp)
    55e1:	79 13                	jns    55f6 <safe_add_func_int32_t_s_s+0x40>
    55e3:	83 7d f8 00          	cmpl   $0x0,-0x8(%rbp)
    55e7:	79 0d                	jns    55f6 <safe_add_func_int32_t_s_s+0x40>
    55e9:	b8 00 00 00 80       	mov    $0x80000000,%eax
    55ee:	2b 45 f8             	sub    -0x8(%rbp),%eax
    55f1:	39 45 fc             	cmp    %eax,-0x4(%rbp)
    55f4:	7c 0a                	jl     5600 <safe_add_func_int32_t_s_s+0x4a>
    55f6:	8b 55 fc             	mov    -0x4(%rbp),%edx
    55f9:	8b 45 f8             	mov    -0x8(%rbp),%eax
    55fc:	01 d0                	add    %edx,%eax
    55fe:	eb 03                	jmp    5603 <safe_add_func_int32_t_s_s+0x4d>
    5600:	8b 45 fc             	mov    -0x4(%rbp),%eax
    5603:	5d                   	pop    %rbp
    5604:	c3                   	retq   

0000000000005605 <safe_sub_func_int32_t_s_s>:
    5605:	f3 0f 1e fa          	endbr64 
    5609:	55                   	push   %rbp
    560a:	48 89 e5             	mov    %rsp,%rbp
    560d:	89 7d fc             	mov    %edi,-0x4(%rbp)
    5610:	89 75 f8             	mov    %esi,-0x8(%rbp)
    5613:	8b 45 fc             	mov    -0x4(%rbp),%eax
    5616:	33 45 f8             	xor    -0x8(%rbp),%eax
    5619:	89 c2                	mov    %eax,%edx
    561b:	8b 45 fc             	mov    -0x4(%rbp),%eax
    561e:	33 45 f8             	xor    -0x8(%rbp),%eax
    5621:	25 00 00 00 80       	and    $0x80000000,%eax
    5626:	33 45 fc             	xor    -0x4(%rbp),%eax
    5629:	2b 45 f8             	sub    -0x8(%rbp),%eax
    562c:	33 45 f8             	xor    -0x8(%rbp),%eax
    562f:	21 d0                	and    %edx,%eax
    5631:	85 c0                	test   %eax,%eax
    5633:	78 08                	js     563d <safe_sub_func_int32_t_s_s+0x38>
    5635:	8b 45 fc             	mov    -0x4(%rbp),%eax
    5638:	2b 45 f8             	sub    -0x8(%rbp),%eax
    563b:	eb 03                	jmp    5640 <safe_sub_func_int32_t_s_s+0x3b>
    563d:	8b 45 fc             	mov    -0x4(%rbp),%eax
    5640:	5d                   	pop    %rbp
    5641:	c3                   	retq   

0000000000005642 <safe_mul_func_int32_t_s_s>:
    5642:	f3 0f 1e fa          	endbr64 
    5646:	55                   	push   %rbp
    5647:	48 89 e5             	mov    %rsp,%rbp
    564a:	89 7d fc             	mov    %edi,-0x4(%rbp)
    564d:	89 75 f8             	mov    %esi,-0x8(%rbp)
    5650:	83 7d fc 00          	cmpl   $0x0,-0x4(%rbp)
    5654:	7e 14                	jle    566a <safe_mul_func_int32_t_s_s+0x28>
    5656:	83 7d f8 00          	cmpl   $0x0,-0x8(%rbp)
    565a:	7e 0e                	jle    566a <safe_mul_func_int32_t_s_s+0x28>
    565c:	b8 ff ff ff 7f       	mov    $0x7fffffff,%eax
    5661:	99                   	cltd   
    5662:	f7 7d f8             	idivl  -0x8(%rbp)
    5665:	39 45 fc             	cmp    %eax,-0x4(%rbp)
    5668:	7f 5d                	jg     56c7 <safe_mul_func_int32_t_s_s+0x85>
    566a:	83 7d fc 00          	cmpl   $0x0,-0x4(%rbp)
    566e:	7e 14                	jle    5684 <safe_mul_func_int32_t_s_s+0x42>
    5670:	83 7d f8 00          	cmpl   $0x0,-0x8(%rbp)
    5674:	7f 0e                	jg     5684 <safe_mul_func_int32_t_s_s+0x42>
    5676:	b8 00 00 00 80       	mov    $0x80000000,%eax
    567b:	99                   	cltd   
    567c:	f7 7d fc             	idivl  -0x4(%rbp)
    567f:	39 45 f8             	cmp    %eax,-0x8(%rbp)
    5682:	7c 43                	jl     56c7 <safe_mul_func_int32_t_s_s+0x85>
    5684:	83 7d fc 00          	cmpl   $0x0,-0x4(%rbp)
    5688:	7f 14                	jg     569e <safe_mul_func_int32_t_s_s+0x5c>
    568a:	83 7d f8 00          	cmpl   $0x0,-0x8(%rbp)
    568e:	7e 0e                	jle    569e <safe_mul_func_int32_t_s_s+0x5c>
    5690:	b8 00 00 00 80       	mov    $0x80000000,%eax
    5695:	99                   	cltd   
    5696:	f7 7d f8             	idivl  -0x8(%rbp)
    5699:	39 45 fc             	cmp    %eax,-0x4(%rbp)
    569c:	7c 29                	jl     56c7 <safe_mul_func_int32_t_s_s+0x85>
    569e:	83 7d fc 00          	cmpl   $0x0,-0x4(%rbp)
    56a2:	7f 1a                	jg     56be <safe_mul_func_int32_t_s_s+0x7c>
    56a4:	83 7d f8 00          	cmpl   $0x0,-0x8(%rbp)
    56a8:	7f 14                	jg     56be <safe_mul_func_int32_t_s_s+0x7c>
    56aa:	83 7d fc 00          	cmpl   $0x0,-0x4(%rbp)
    56ae:	74 0e                	je     56be <safe_mul_func_int32_t_s_s+0x7c>
    56b0:	b8 ff ff ff 7f       	mov    $0x7fffffff,%eax
    56b5:	99                   	cltd   
    56b6:	f7 7d fc             	idivl  -0x4(%rbp)
    56b9:	39 45 f8             	cmp    %eax,-0x8(%rbp)
    56bc:	7c 09                	jl     56c7 <safe_mul_func_int32_t_s_s+0x85>
    56be:	8b 45 fc             	mov    -0x4(%rbp),%eax
    56c1:	0f af 45 f8          	imul   -0x8(%rbp),%eax
    56c5:	eb 03                	jmp    56ca <safe_mul_func_int32_t_s_s+0x88>
    56c7:	8b 45 fc             	mov    -0x4(%rbp),%eax
    56ca:	5d                   	pop    %rbp
    56cb:	c3                   	retq   

00000000000056cc <safe_mod_func_int32_t_s_s>:
    56cc:	f3 0f 1e fa          	endbr64 
    56d0:	55                   	push   %rbp
    56d1:	48 89 e5             	mov    %rsp,%rbp
    56d4:	89 7d fc             	mov    %edi,-0x4(%rbp)
    56d7:	89 75 f8             	mov    %esi,-0x8(%rbp)
    56da:	83 7d f8 00          	cmpl   $0x0,-0x8(%rbp)
    56de:	74 1a                	je     56fa <safe_mod_func_int32_t_s_s+0x2e>
    56e0:	81 7d fc 00 00 00 80 	cmpl   $0x80000000,-0x4(%rbp)
    56e7:	75 06                	jne    56ef <safe_mod_func_int32_t_s_s+0x23>
    56e9:	83 7d f8 ff          	cmpl   $0xffffffff,-0x8(%rbp)
    56ed:	74 0b                	je     56fa <safe_mod_func_int32_t_s_s+0x2e>
    56ef:	8b 45 fc             	mov    -0x4(%rbp),%eax
    56f2:	99                   	cltd   
    56f3:	f7 7d f8             	idivl  -0x8(%rbp)
    56f6:	89 d0                	mov    %edx,%eax
    56f8:	eb 03                	jmp    56fd <safe_mod_func_int32_t_s_s+0x31>
    56fa:	8b 45 fc             	mov    -0x4(%rbp),%eax
    56fd:	5d                   	pop    %rbp
    56fe:	c3                   	retq   

00000000000056ff <safe_div_func_int32_t_s_s>:
    56ff:	f3 0f 1e fa          	endbr64 
    5703:	55                   	push   %rbp
    5704:	48 89 e5             	mov    %rsp,%rbp
    5707:	89 7d fc             	mov    %edi,-0x4(%rbp)
    570a:	89 75 f8             	mov    %esi,-0x8(%rbp)
    570d:	83 7d f8 00          	cmpl   $0x0,-0x8(%rbp)
    5711:	74 18                	je     572b <safe_div_func_int32_t_s_s+0x2c>
    5713:	81 7d fc 00 00 00 80 	cmpl   $0x80000000,-0x4(%rbp)
    571a:	75 06                	jne    5722 <safe_div_func_int32_t_s_s+0x23>
    571c:	83 7d f8 ff          	cmpl   $0xffffffff,-0x8(%rbp)
    5720:	74 09                	je     572b <safe_div_func_int32_t_s_s+0x2c>
    5722:	8b 45 fc             	mov    -0x4(%rbp),%eax
    5725:	99                   	cltd   
    5726:	f7 7d f8             	idivl  -0x8(%rbp)
    5729:	eb 03                	jmp    572e <safe_div_func_int32_t_s_s+0x2f>
    572b:	8b 45 fc             	mov    -0x4(%rbp),%eax
    572e:	5d                   	pop    %rbp
    572f:	c3                   	retq   

0000000000005730 <safe_lshift_func_int32_t_s_s>:
    5730:	f3 0f 1e fa          	endbr64 
    5734:	55                   	push   %rbp
    5735:	48 89 e5             	mov    %rsp,%rbp
    5738:	89 7d fc             	mov    %edi,-0x4(%rbp)
    573b:	89 75 f8             	mov    %esi,-0x8(%rbp)
    573e:	83 7d fc 00          	cmpl   $0x0,-0x4(%rbp)
    5742:	78 2d                	js     5771 <safe_lshift_func_int32_t_s_s+0x41>
    5744:	83 7d f8 00          	cmpl   $0x0,-0x8(%rbp)
    5748:	78 27                	js     5771 <safe_lshift_func_int32_t_s_s+0x41>
    574a:	83 7d f8 1f          	cmpl   $0x1f,-0x8(%rbp)
    574e:	7f 21                	jg     5771 <safe_lshift_func_int32_t_s_s+0x41>
    5750:	8b 45 f8             	mov    -0x8(%rbp),%eax
    5753:	ba ff ff ff 7f       	mov    $0x7fffffff,%edx
    5758:	89 c1                	mov    %eax,%ecx
    575a:	d3 fa                	sar    %cl,%edx
    575c:	89 d0                	mov    %edx,%eax
    575e:	39 45 fc             	cmp    %eax,-0x4(%rbp)
    5761:	7f 0e                	jg     5771 <safe_lshift_func_int32_t_s_s+0x41>
    5763:	8b 45 f8             	mov    -0x8(%rbp),%eax
    5766:	8b 55 fc             	mov    -0x4(%rbp),%edx
    5769:	89 c1                	mov    %eax,%ecx
    576b:	d3 e2                	shl    %cl,%edx
    576d:	89 d0                	mov    %edx,%eax
    576f:	eb 03                	jmp    5774 <safe_lshift_func_int32_t_s_s+0x44>
    5771:	8b 45 fc             	mov    -0x4(%rbp),%eax
    5774:	5d                   	pop    %rbp
    5775:	c3                   	retq   

0000000000005776 <safe_lshift_func_int32_t_s_u>:
    5776:	f3 0f 1e fa          	endbr64 
    577a:	55                   	push   %rbp
    577b:	48 89 e5             	mov    %rsp,%rbp
    577e:	89 7d fc             	mov    %edi,-0x4(%rbp)
    5781:	89 75 f8             	mov    %esi,-0x8(%rbp)
    5784:	83 7d fc 00          	cmpl   $0x0,-0x4(%rbp)
    5788:	78 27                	js     57b1 <safe_lshift_func_int32_t_s_u+0x3b>
    578a:	83 7d f8 1f          	cmpl   $0x1f,-0x8(%rbp)
    578e:	77 21                	ja     57b1 <safe_lshift_func_int32_t_s_u+0x3b>
    5790:	8b 45 f8             	mov    -0x8(%rbp),%eax
    5793:	ba ff ff ff 7f       	mov    $0x7fffffff,%edx
    5798:	89 c1                	mov    %eax,%ecx
    579a:	d3 fa                	sar    %cl,%edx
    579c:	89 d0                	mov    %edx,%eax
    579e:	39 45 fc             	cmp    %eax,-0x4(%rbp)
    57a1:	7f 0e                	jg     57b1 <safe_lshift_func_int32_t_s_u+0x3b>
    57a3:	8b 45 f8             	mov    -0x8(%rbp),%eax
    57a6:	8b 55 fc             	mov    -0x4(%rbp),%edx
    57a9:	89 c1                	mov    %eax,%ecx
    57ab:	d3 e2                	shl    %cl,%edx
    57ad:	89 d0                	mov    %edx,%eax
    57af:	eb 03                	jmp    57b4 <safe_lshift_func_int32_t_s_u+0x3e>
    57b1:	8b 45 fc             	mov    -0x4(%rbp),%eax
    57b4:	5d                   	pop    %rbp
    57b5:	c3                   	retq   

00000000000057b6 <safe_rshift_func_int32_t_s_s>:
    57b6:	f3 0f 1e fa          	endbr64 
    57ba:	55                   	push   %rbp
    57bb:	48 89 e5             	mov    %rsp,%rbp
    57be:	89 7d fc             	mov    %edi,-0x4(%rbp)
    57c1:	89 75 f8             	mov    %esi,-0x8(%rbp)
    57c4:	83 7d fc 00          	cmpl   $0x0,-0x4(%rbp)
    57c8:	78 1a                	js     57e4 <safe_rshift_func_int32_t_s_s+0x2e>
    57ca:	83 7d f8 00          	cmpl   $0x0,-0x8(%rbp)
    57ce:	78 14                	js     57e4 <safe_rshift_func_int32_t_s_s+0x2e>
    57d0:	83 7d f8 1f          	cmpl   $0x1f,-0x8(%rbp)
    57d4:	7f 0e                	jg     57e4 <safe_rshift_func_int32_t_s_s+0x2e>
    57d6:	8b 45 f8             	mov    -0x8(%rbp),%eax
    57d9:	8b 55 fc             	mov    -0x4(%rbp),%edx
    57dc:	89 c1                	mov    %eax,%ecx
    57de:	d3 fa                	sar    %cl,%edx
    57e0:	89 d0                	mov    %edx,%eax
    57e2:	eb 03                	jmp    57e7 <safe_rshift_func_int32_t_s_s+0x31>
    57e4:	8b 45 fc             	mov    -0x4(%rbp),%eax
    57e7:	5d                   	pop    %rbp
    57e8:	c3                   	retq   

00000000000057e9 <safe_rshift_func_int32_t_s_u>:
    57e9:	f3 0f 1e fa          	endbr64 
    57ed:	55                   	push   %rbp
    57ee:	48 89 e5             	mov    %rsp,%rbp
    57f1:	89 7d fc             	mov    %edi,-0x4(%rbp)
    57f4:	89 75 f8             	mov    %esi,-0x8(%rbp)
    57f7:	83 7d fc 00          	cmpl   $0x0,-0x4(%rbp)
    57fb:	78 14                	js     5811 <safe_rshift_func_int32_t_s_u+0x28>
    57fd:	83 7d f8 1f          	cmpl   $0x1f,-0x8(%rbp)
    5801:	77 0e                	ja     5811 <safe_rshift_func_int32_t_s_u+0x28>
    5803:	8b 45 f8             	mov    -0x8(%rbp),%eax
    5806:	8b 55 fc             	mov    -0x4(%rbp),%edx
    5809:	89 c1                	mov    %eax,%ecx
    580b:	d3 fa                	sar    %cl,%edx
    580d:	89 d0                	mov    %edx,%eax
    580f:	eb 03                	jmp    5814 <safe_rshift_func_int32_t_s_u+0x2b>
    5811:	8b 45 fc             	mov    -0x4(%rbp),%eax
    5814:	5d                   	pop    %rbp
    5815:	c3                   	retq   

0000000000005816 <safe_unary_minus_func_int64_t_s>:
    5816:	f3 0f 1e fa          	endbr64 
    581a:	55                   	push   %rbp
    581b:	48 89 e5             	mov    %rsp,%rbp
    581e:	48 89 7d f8          	mov    %rdi,-0x8(%rbp)
    5822:	48 b8 00 00 00 00 00 	movabs $0x8000000000000000,%rax
    5829:	00 00 80 
    582c:	48 39 45 f8          	cmp    %rax,-0x8(%rbp)
    5830:	74 09                	je     583b <safe_unary_minus_func_int64_t_s+0x25>
    5832:	48 8b 45 f8          	mov    -0x8(%rbp),%rax
    5836:	48 f7 d8             	neg    %rax
    5839:	eb 04                	jmp    583f <safe_unary_minus_func_int64_t_s+0x29>
    583b:	48 8b 45 f8          	mov    -0x8(%rbp),%rax
    583f:	5d                   	pop    %rbp
    5840:	c3                   	retq   

0000000000005841 <safe_add_func_int64_t_s_s>:
    5841:	f3 0f 1e fa          	endbr64 
    5845:	55                   	push   %rbp
    5846:	48 89 e5             	mov    %rsp,%rbp
    5849:	48 89 7d f8          	mov    %rdi,-0x8(%rbp)
    584d:	48 89 75 f0          	mov    %rsi,-0x10(%rbp)
    5851:	48 83 7d f8 00       	cmpq   $0x0,-0x8(%rbp)
    5856:	7e 1b                	jle    5873 <safe_add_func_int64_t_s_s+0x32>
    5858:	48 83 7d f0 00       	cmpq   $0x0,-0x10(%rbp)
    585d:	7e 14                	jle    5873 <safe_add_func_int64_t_s_s+0x32>
    585f:	48 b8 ff ff ff ff ff 	movabs $0x7fffffffffffffff,%rax
    5866:	ff ff 7f 
    5869:	48 2b 45 f0          	sub    -0x10(%rbp),%rax
    586d:	48 39 45 f8          	cmp    %rax,-0x8(%rbp)
    5871:	7f 2f                	jg     58a2 <safe_add_func_int64_t_s_s+0x61>
    5873:	48 83 7d f8 00       	cmpq   $0x0,-0x8(%rbp)
    5878:	79 1b                	jns    5895 <safe_add_func_int64_t_s_s+0x54>
    587a:	48 83 7d f0 00       	cmpq   $0x0,-0x10(%rbp)
    587f:	79 14                	jns    5895 <safe_add_func_int64_t_s_s+0x54>
    5881:	48 b8 00 00 00 00 00 	movabs $0x8000000000000000,%rax
    5888:	00 00 80 
    588b:	48 2b 45 f0          	sub    -0x10(%rbp),%rax
    588f:	48 39 45 f8          	cmp    %rax,-0x8(%rbp)
    5893:	7c 0d                	jl     58a2 <safe_add_func_int64_t_s_s+0x61>
    5895:	48 8b 55 f8          	mov    -0x8(%rbp),%rdx
    5899:	48 8b 45 f0          	mov    -0x10(%rbp),%rax
    589d:	48 01 d0             	add    %rdx,%rax
    58a0:	eb 04                	jmp    58a6 <safe_add_func_int64_t_s_s+0x65>
    58a2:	48 8b 45 f8          	mov    -0x8(%rbp),%rax
    58a6:	5d                   	pop    %rbp
    58a7:	c3                   	retq   

00000000000058a8 <safe_sub_func_int64_t_s_s>:
    58a8:	f3 0f 1e fa          	endbr64 
    58ac:	55                   	push   %rbp
    58ad:	48 89 e5             	mov    %rsp,%rbp
    58b0:	48 89 7d f8          	mov    %rdi,-0x8(%rbp)
    58b4:	48 89 75 f0          	mov    %rsi,-0x10(%rbp)
    58b8:	48 8b 45 f8          	mov    -0x8(%rbp),%rax
    58bc:	48 33 45 f0          	xor    -0x10(%rbp),%rax
    58c0:	48 89 c2             	mov    %rax,%rdx
    58c3:	48 8b 45 f8          	mov    -0x8(%rbp),%rax
    58c7:	48 33 45 f0          	xor    -0x10(%rbp),%rax
    58cb:	48 b9 00 00 00 00 00 	movabs $0x8000000000000000,%rcx
    58d2:	00 00 80 
    58d5:	48 21 c8             	and    %rcx,%rax
    58d8:	48 33 45 f8          	xor    -0x8(%rbp),%rax
    58dc:	48 2b 45 f0          	sub    -0x10(%rbp),%rax
    58e0:	48 33 45 f0          	xor    -0x10(%rbp),%rax
    58e4:	48 21 d0             	and    %rdx,%rax
    58e7:	48 85 c0             	test   %rax,%rax
    58ea:	78 0a                	js     58f6 <safe_sub_func_int64_t_s_s+0x4e>
    58ec:	48 8b 45 f8          	mov    -0x8(%rbp),%rax
    58f0:	48 2b 45 f0          	sub    -0x10(%rbp),%rax
    58f4:	eb 04                	jmp    58fa <safe_sub_func_int64_t_s_s+0x52>
    58f6:	48 8b 45 f8          	mov    -0x8(%rbp),%rax
    58fa:	5d                   	pop    %rbp
    58fb:	c3                   	retq   

00000000000058fc <safe_mul_func_int64_t_s_s>:
    58fc:	f3 0f 1e fa          	endbr64 
    5900:	55                   	push   %rbp
    5901:	48 89 e5             	mov    %rsp,%rbp
    5904:	48 89 7d f8          	mov    %rdi,-0x8(%rbp)
    5908:	48 89 75 f0          	mov    %rsi,-0x10(%rbp)
    590c:	48 83 7d f8 00       	cmpq   $0x0,-0x8(%rbp)
    5911:	7e 1d                	jle    5930 <safe_mul_func_int64_t_s_s+0x34>
    5913:	48 83 7d f0 00       	cmpq   $0x0,-0x10(%rbp)
    5918:	7e 16                	jle    5930 <safe_mul_func_int64_t_s_s+0x34>
    591a:	48 b8 ff ff ff ff ff 	movabs $0x7fffffffffffffff,%rax
    5921:	ff ff 7f 
    5924:	48 99                	cqto   
    5926:	48 f7 7d f0          	idivq  -0x10(%rbp)
    592a:	48 39 45 f8          	cmp    %rax,-0x8(%rbp)
    592e:	7f 7e                	jg     59ae <safe_mul_func_int64_t_s_s+0xb2>
    5930:	48 83 7d f8 00       	cmpq   $0x0,-0x8(%rbp)
    5935:	7e 1d                	jle    5954 <safe_mul_func_int64_t_s_s+0x58>
    5937:	48 83 7d f0 00       	cmpq   $0x0,-0x10(%rbp)
    593c:	7f 16                	jg     5954 <safe_mul_func_int64_t_s_s+0x58>
    593e:	48 b8 00 00 00 00 00 	movabs $0x8000000000000000,%rax
    5945:	00 00 80 
    5948:	48 99                	cqto   
    594a:	48 f7 7d f8          	idivq  -0x8(%rbp)
    594e:	48 39 45 f0          	cmp    %rax,-0x10(%rbp)
    5952:	7c 5a                	jl     59ae <safe_mul_func_int64_t_s_s+0xb2>
    5954:	48 83 7d f8 00       	cmpq   $0x0,-0x8(%rbp)
    5959:	7f 1d                	jg     5978 <safe_mul_func_int64_t_s_s+0x7c>
    595b:	48 83 7d f0 00       	cmpq   $0x0,-0x10(%rbp)
    5960:	7e 16                	jle    5978 <safe_mul_func_int64_t_s_s+0x7c>
    5962:	48 b8 00 00 00 00 00 	movabs $0x8000000000000000,%rax
    5969:	00 00 80 
    596c:	48 99                	cqto   
    596e:	48 f7 7d f0          	idivq  -0x10(%rbp)
    5972:	48 39 45 f8          	cmp    %rax,-0x8(%rbp)
    5976:	7c 36                	jl     59ae <safe_mul_func_int64_t_s_s+0xb2>
    5978:	48 83 7d f8 00       	cmpq   $0x0,-0x8(%rbp)
    597d:	7f 24                	jg     59a3 <safe_mul_func_int64_t_s_s+0xa7>
    597f:	48 83 7d f0 00       	cmpq   $0x0,-0x10(%rbp)
    5984:	7f 1d                	jg     59a3 <safe_mul_func_int64_t_s_s+0xa7>
    5986:	48 83 7d f8 00       	cmpq   $0x0,-0x8(%rbp)
    598b:	74 16                	je     59a3 <safe_mul_func_int64_t_s_s+0xa7>
    598d:	48 b8 ff ff ff ff ff 	movabs $0x7fffffffffffffff,%rax
    5994:	ff ff 7f 
    5997:	48 99                	cqto   
    5999:	48 f7 7d f8          	idivq  -0x8(%rbp)
    599d:	48 39 45 f0          	cmp    %rax,-0x10(%rbp)
    59a1:	7c 0b                	jl     59ae <safe_mul_func_int64_t_s_s+0xb2>
    59a3:	48 8b 45 f8          	mov    -0x8(%rbp),%rax
    59a7:	48 0f af 45 f0       	imul   -0x10(%rbp),%rax
    59ac:	eb 04                	jmp    59b2 <safe_mul_func_int64_t_s_s+0xb6>
    59ae:	48 8b 45 f8          	mov    -0x8(%rbp),%rax
    59b2:	5d                   	pop    %rbp
    59b3:	c3                   	retq   

00000000000059b4 <safe_mod_func_int64_t_s_s>:
    59b4:	f3 0f 1e fa          	endbr64 
    59b8:	55                   	push   %rbp
    59b9:	48 89 e5             	mov    %rsp,%rbp
    59bc:	48 89 7d f8          	mov    %rdi,-0x8(%rbp)
    59c0:	48 89 75 f0          	mov    %rsi,-0x10(%rbp)
    59c4:	48 83 7d f0 00       	cmpq   $0x0,-0x10(%rbp)
    59c9:	74 26                	je     59f1 <safe_mod_func_int64_t_s_s+0x3d>
    59cb:	48 b8 00 00 00 00 00 	movabs $0x8000000000000000,%rax
    59d2:	00 00 80 
    59d5:	48 39 45 f8          	cmp    %rax,-0x8(%rbp)
    59d9:	75 07                	jne    59e2 <safe_mod_func_int64_t_s_s+0x2e>
    59db:	48 83 7d f0 ff       	cmpq   $0xffffffffffffffff,-0x10(%rbp)
    59e0:	74 0f                	je     59f1 <safe_mod_func_int64_t_s_s+0x3d>
    59e2:	48 8b 45 f8          	mov    -0x8(%rbp),%rax
    59e6:	48 99                	cqto   
    59e8:	48 f7 7d f0          	idivq  -0x10(%rbp)
    59ec:	48 89 d0             	mov    %rdx,%rax
    59ef:	eb 04                	jmp    59f5 <safe_mod_func_int64_t_s_s+0x41>
    59f1:	48 8b 45 f8          	mov    -0x8(%rbp),%rax
    59f5:	5d                   	pop    %rbp
    59f6:	c3                   	retq   

00000000000059f7 <safe_div_func_int64_t_s_s>:
    59f7:	f3 0f 1e fa          	endbr64 
    59fb:	55                   	push   %rbp
    59fc:	48 89 e5             	mov    %rsp,%rbp
    59ff:	48 89 7d f8          	mov    %rdi,-0x8(%rbp)
    5a03:	48 89 75 f0          	mov    %rsi,-0x10(%rbp)
    5a07:	48 83 7d f0 00       	cmpq   $0x0,-0x10(%rbp)
    5a0c:	74 23                	je     5a31 <safe_div_func_int64_t_s_s+0x3a>
    5a0e:	48 b8 00 00 00 00 00 	movabs $0x8000000000000000,%rax
    5a15:	00 00 80 
    5a18:	48 39 45 f8          	cmp    %rax,-0x8(%rbp)
    5a1c:	75 07                	jne    5a25 <safe_div_func_int64_t_s_s+0x2e>
    5a1e:	48 83 7d f0 ff       	cmpq   $0xffffffffffffffff,-0x10(%rbp)
    5a23:	74 0c                	je     5a31 <safe_div_func_int64_t_s_s+0x3a>
    5a25:	48 8b 45 f8          	mov    -0x8(%rbp),%rax
    5a29:	48 99                	cqto   
    5a2b:	48 f7 7d f0          	idivq  -0x10(%rbp)
    5a2f:	eb 04                	jmp    5a35 <safe_div_func_int64_t_s_s+0x3e>
    5a31:	48 8b 45 f8          	mov    -0x8(%rbp),%rax
    5a35:	5d                   	pop    %rbp
    5a36:	c3                   	retq   

0000000000005a37 <safe_lshift_func_int64_t_s_s>:
    5a37:	f3 0f 1e fa          	endbr64 
    5a3b:	55                   	push   %rbp
    5a3c:	48 89 e5             	mov    %rsp,%rbp
    5a3f:	48 89 7d f8          	mov    %rdi,-0x8(%rbp)
    5a43:	89 75 f4             	mov    %esi,-0xc(%rbp)
    5a46:	48 83 7d f8 00       	cmpq   $0x0,-0x8(%rbp)
    5a4b:	78 38                	js     5a85 <safe_lshift_func_int64_t_s_s+0x4e>
    5a4d:	83 7d f4 00          	cmpl   $0x0,-0xc(%rbp)
    5a51:	78 32                	js     5a85 <safe_lshift_func_int64_t_s_s+0x4e>
    5a53:	83 7d f4 1f          	cmpl   $0x1f,-0xc(%rbp)
    5a57:	7f 2c                	jg     5a85 <safe_lshift_func_int64_t_s_s+0x4e>
    5a59:	8b 45 f4             	mov    -0xc(%rbp),%eax
    5a5c:	48 ba ff ff ff ff ff 	movabs $0x7fffffffffffffff,%rdx
    5a63:	ff ff 7f 
    5a66:	89 c1                	mov    %eax,%ecx
    5a68:	48 d3 fa             	sar    %cl,%rdx
    5a6b:	48 89 d0             	mov    %rdx,%rax
    5a6e:	48 39 45 f8          	cmp    %rax,-0x8(%rbp)
    5a72:	7f 11                	jg     5a85 <safe_lshift_func_int64_t_s_s+0x4e>
    5a74:	8b 45 f4             	mov    -0xc(%rbp),%eax
    5a77:	48 8b 55 f8          	mov    -0x8(%rbp),%rdx
    5a7b:	89 c1                	mov    %eax,%ecx
    5a7d:	48 d3 e2             	shl    %cl,%rdx
    5a80:	48 89 d0             	mov    %rdx,%rax
    5a83:	eb 04                	jmp    5a89 <safe_lshift_func_int64_t_s_s+0x52>
    5a85:	48 8b 45 f8          	mov    -0x8(%rbp),%rax
    5a89:	5d                   	pop    %rbp
    5a8a:	c3                   	retq   

0000000000005a8b <safe_lshift_func_int64_t_s_u>:
    5a8b:	f3 0f 1e fa          	endbr64 
    5a8f:	55                   	push   %rbp
    5a90:	48 89 e5             	mov    %rsp,%rbp
    5a93:	48 89 7d f8          	mov    %rdi,-0x8(%rbp)
    5a97:	89 75 f4             	mov    %esi,-0xc(%rbp)
    5a9a:	48 83 7d f8 00       	cmpq   $0x0,-0x8(%rbp)
    5a9f:	78 32                	js     5ad3 <safe_lshift_func_int64_t_s_u+0x48>
    5aa1:	83 7d f4 1f          	cmpl   $0x1f,-0xc(%rbp)
    5aa5:	77 2c                	ja     5ad3 <safe_lshift_func_int64_t_s_u+0x48>
    5aa7:	8b 45 f4             	mov    -0xc(%rbp),%eax
    5aaa:	48 ba ff ff ff ff ff 	movabs $0x7fffffffffffffff,%rdx
    5ab1:	ff ff 7f 
    5ab4:	89 c1                	mov    %eax,%ecx
    5ab6:	48 d3 fa             	sar    %cl,%rdx
    5ab9:	48 89 d0             	mov    %rdx,%rax
    5abc:	48 39 45 f8          	cmp    %rax,-0x8(%rbp)
    5ac0:	7f 11                	jg     5ad3 <safe_lshift_func_int64_t_s_u+0x48>
    5ac2:	8b 45 f4             	mov    -0xc(%rbp),%eax
    5ac5:	48 8b 55 f8          	mov    -0x8(%rbp),%rdx
    5ac9:	89 c1                	mov    %eax,%ecx
    5acb:	48 d3 e2             	shl    %cl,%rdx
    5ace:	48 89 d0             	mov    %rdx,%rax
    5ad1:	eb 04                	jmp    5ad7 <safe_lshift_func_int64_t_s_u+0x4c>
    5ad3:	48 8b 45 f8          	mov    -0x8(%rbp),%rax
    5ad7:	5d                   	pop    %rbp
    5ad8:	c3                   	retq   

0000000000005ad9 <safe_rshift_func_int64_t_s_s>:
    5ad9:	f3 0f 1e fa          	endbr64 
    5add:	55                   	push   %rbp
    5ade:	48 89 e5             	mov    %rsp,%rbp
    5ae1:	48 89 7d f8          	mov    %rdi,-0x8(%rbp)
    5ae5:	89 75 f4             	mov    %esi,-0xc(%rbp)
    5ae8:	48 83 7d f8 00       	cmpq   $0x0,-0x8(%rbp)
    5aed:	78 1d                	js     5b0c <safe_rshift_func_int64_t_s_s+0x33>
    5aef:	83 7d f4 00          	cmpl   $0x0,-0xc(%rbp)
    5af3:	78 17                	js     5b0c <safe_rshift_func_int64_t_s_s+0x33>
    5af5:	83 7d f4 1f          	cmpl   $0x1f,-0xc(%rbp)
    5af9:	7f 11                	jg     5b0c <safe_rshift_func_int64_t_s_s+0x33>
    5afb:	8b 45 f4             	mov    -0xc(%rbp),%eax
    5afe:	48 8b 55 f8          	mov    -0x8(%rbp),%rdx
    5b02:	89 c1                	mov    %eax,%ecx
    5b04:	48 d3 fa             	sar    %cl,%rdx
    5b07:	48 89 d0             	mov    %rdx,%rax
    5b0a:	eb 04                	jmp    5b10 <safe_rshift_func_int64_t_s_s+0x37>
    5b0c:	48 8b 45 f8          	mov    -0x8(%rbp),%rax
    5b10:	5d                   	pop    %rbp
    5b11:	c3                   	retq   

0000000000005b12 <safe_rshift_func_int64_t_s_u>:
    5b12:	f3 0f 1e fa          	endbr64 
    5b16:	55                   	push   %rbp
    5b17:	48 89 e5             	mov    %rsp,%rbp
    5b1a:	48 89 7d f8          	mov    %rdi,-0x8(%rbp)
    5b1e:	89 75 f4             	mov    %esi,-0xc(%rbp)
    5b21:	48 83 7d f8 00       	cmpq   $0x0,-0x8(%rbp)
    5b26:	78 17                	js     5b3f <safe_rshift_func_int64_t_s_u+0x2d>
    5b28:	83 7d f4 1f          	cmpl   $0x1f,-0xc(%rbp)
    5b2c:	77 11                	ja     5b3f <safe_rshift_func_int64_t_s_u+0x2d>
    5b2e:	8b 45 f4             	mov    -0xc(%rbp),%eax
    5b31:	48 8b 55 f8          	mov    -0x8(%rbp),%rdx
    5b35:	89 c1                	mov    %eax,%ecx
    5b37:	48 d3 fa             	sar    %cl,%rdx
    5b3a:	48 89 d0             	mov    %rdx,%rax
    5b3d:	eb 04                	jmp    5b43 <safe_rshift_func_int64_t_s_u+0x31>
    5b3f:	48 8b 45 f8          	mov    -0x8(%rbp),%rax
    5b43:	5d                   	pop    %rbp
    5b44:	c3                   	retq   

0000000000005b45 <safe_unary_minus_func_uint8_t_u>:
    5b45:	f3 0f 1e fa          	endbr64 
    5b49:	55                   	push   %rbp
    5b4a:	48 89 e5             	mov    %rsp,%rbp
    5b4d:	89 f8                	mov    %edi,%eax
    5b4f:	88 45 fc             	mov    %al,-0x4(%rbp)
    5b52:	0f b6 45 fc          	movzbl -0x4(%rbp),%eax
    5b56:	f7 d8                	neg    %eax
    5b58:	5d                   	pop    %rbp
    5b59:	c3                   	retq   

0000000000005b5a <safe_add_func_uint8_t_u_u>:
    5b5a:	f3 0f 1e fa          	endbr64 
    5b5e:	55                   	push   %rbp
    5b5f:	48 89 e5             	mov    %rsp,%rbp
    5b62:	89 fa                	mov    %edi,%edx
    5b64:	89 f0                	mov    %esi,%eax
    5b66:	88 55 fc             	mov    %dl,-0x4(%rbp)
    5b69:	88 45 f8             	mov    %al,-0x8(%rbp)
    5b6c:	0f b6 55 fc          	movzbl -0x4(%rbp),%edx
    5b70:	0f b6 45 f8          	movzbl -0x8(%rbp),%eax
    5b74:	01 d0                	add    %edx,%eax
    5b76:	5d                   	pop    %rbp
    5b77:	c3                   	retq   

0000000000005b78 <safe_sub_func_uint8_t_u_u>:
    5b78:	f3 0f 1e fa          	endbr64 
    5b7c:	55                   	push   %rbp
    5b7d:	48 89 e5             	mov    %rsp,%rbp
    5b80:	89 fa                	mov    %edi,%edx
    5b82:	89 f0                	mov    %esi,%eax
    5b84:	88 55 fc             	mov    %dl,-0x4(%rbp)
    5b87:	88 45 f8             	mov    %al,-0x8(%rbp)
    5b8a:	0f b6 45 fc          	movzbl -0x4(%rbp),%eax
    5b8e:	2a 45 f8             	sub    -0x8(%rbp),%al
    5b91:	5d                   	pop    %rbp
    5b92:	c3                   	retq   

0000000000005b93 <safe_mul_func_uint8_t_u_u>:
    5b93:	f3 0f 1e fa          	endbr64 
    5b97:	55                   	push   %rbp
    5b98:	48 89 e5             	mov    %rsp,%rbp
    5b9b:	89 fa                	mov    %edi,%edx
    5b9d:	89 f0                	mov    %esi,%eax
    5b9f:	88 55 fc             	mov    %dl,-0x4(%rbp)
    5ba2:	88 45 f8             	mov    %al,-0x8(%rbp)
    5ba5:	0f b6 45 fc          	movzbl -0x4(%rbp),%eax
    5ba9:	f6 65 f8             	mulb   -0x8(%rbp)
    5bac:	5d                   	pop    %rbp
    5bad:	c3                   	retq   

0000000000005bae <safe_mod_func_uint8_t_u_u>:
    5bae:	f3 0f 1e fa          	endbr64 
    5bb2:	55                   	push   %rbp
    5bb3:	48 89 e5             	mov    %rsp,%rbp
    5bb6:	89 fa                	mov    %edi,%edx
    5bb8:	89 f0                	mov    %esi,%eax
    5bba:	88 55 fc             	mov    %dl,-0x4(%rbp)
    5bbd:	88 45 f8             	mov    %al,-0x8(%rbp)
    5bc0:	80 7d f8 00          	cmpb   $0x0,-0x8(%rbp)
    5bc4:	74 0f                	je     5bd5 <safe_mod_func_uint8_t_u_u+0x27>
    5bc6:	0f b6 45 fc          	movzbl -0x4(%rbp),%eax
    5bca:	0f b6 c0             	movzbl %al,%eax
    5bcd:	f6 75 f8             	divb   -0x8(%rbp)
    5bd0:	0f b6 c4             	movzbl %ah,%eax
    5bd3:	eb 04                	jmp    5bd9 <safe_mod_func_uint8_t_u_u+0x2b>
    5bd5:	0f b6 45 fc          	movzbl -0x4(%rbp),%eax
    5bd9:	5d                   	pop    %rbp
    5bda:	c3                   	retq   

0000000000005bdb <safe_div_func_uint8_t_u_u>:
    5bdb:	f3 0f 1e fa          	endbr64 
    5bdf:	55                   	push   %rbp
    5be0:	48 89 e5             	mov    %rsp,%rbp
    5be3:	89 fa                	mov    %edi,%edx
    5be5:	89 f0                	mov    %esi,%eax
    5be7:	88 55 fc             	mov    %dl,-0x4(%rbp)
    5bea:	88 45 f8             	mov    %al,-0x8(%rbp)
    5bed:	80 7d f8 00          	cmpb   $0x0,-0x8(%rbp)
    5bf1:	74 0c                	je     5bff <safe_div_func_uint8_t_u_u+0x24>
    5bf3:	0f b6 45 fc          	movzbl -0x4(%rbp),%eax
    5bf7:	0f b6 c0             	movzbl %al,%eax
    5bfa:	f6 75 f8             	divb   -0x8(%rbp)
    5bfd:	eb 04                	jmp    5c03 <safe_div_func_uint8_t_u_u+0x28>
    5bff:	0f b6 45 fc          	movzbl -0x4(%rbp),%eax
    5c03:	5d                   	pop    %rbp
    5c04:	c3                   	retq   

0000000000005c05 <safe_lshift_func_uint8_t_u_s>:
    5c05:	f3 0f 1e fa          	endbr64 
    5c09:	55                   	push   %rbp
    5c0a:	48 89 e5             	mov    %rsp,%rbp
    5c0d:	89 f8                	mov    %edi,%eax
    5c0f:	89 75 f8             	mov    %esi,-0x8(%rbp)
    5c12:	88 45 fc             	mov    %al,-0x4(%rbp)
    5c15:	83 7d f8 00          	cmpl   $0x0,-0x8(%rbp)
    5c19:	78 2b                	js     5c46 <safe_lshift_func_uint8_t_u_s+0x41>
    5c1b:	83 7d f8 1f          	cmpl   $0x1f,-0x8(%rbp)
    5c1f:	7f 25                	jg     5c46 <safe_lshift_func_uint8_t_u_s+0x41>
    5c21:	0f b6 55 fc          	movzbl -0x4(%rbp),%edx
    5c25:	8b 45 f8             	mov    -0x8(%rbp),%eax
    5c28:	be ff 00 00 00       	mov    $0xff,%esi
    5c2d:	89 c1                	mov    %eax,%ecx
    5c2f:	d3 fe                	sar    %cl,%esi
    5c31:	89 f0                	mov    %esi,%eax
    5c33:	39 c2                	cmp    %eax,%edx
    5c35:	7f 0f                	jg     5c46 <safe_lshift_func_uint8_t_u_s+0x41>
    5c37:	0f b6 55 fc          	movzbl -0x4(%rbp),%edx
    5c3b:	8b 45 f8             	mov    -0x8(%rbp),%eax
    5c3e:	89 c1                	mov    %eax,%ecx
    5c40:	d3 e2                	shl    %cl,%edx
    5c42:	89 d0                	mov    %edx,%eax
    5c44:	eb 04                	jmp    5c4a <safe_lshift_func_uint8_t_u_s+0x45>
    5c46:	0f b6 45 fc          	movzbl -0x4(%rbp),%eax
    5c4a:	5d                   	pop    %rbp
    5c4b:	c3                   	retq   

0000000000005c4c <safe_lshift_func_uint8_t_u_u>:
    5c4c:	f3 0f 1e fa          	endbr64 
    5c50:	55                   	push   %rbp
    5c51:	48 89 e5             	mov    %rsp,%rbp
    5c54:	89 f8                	mov    %edi,%eax
    5c56:	89 75 f8             	mov    %esi,-0x8(%rbp)
    5c59:	88 45 fc             	mov    %al,-0x4(%rbp)
    5c5c:	83 7d f8 1f          	cmpl   $0x1f,-0x8(%rbp)
    5c60:	77 25                	ja     5c87 <safe_lshift_func_uint8_t_u_u+0x3b>
    5c62:	0f b6 55 fc          	movzbl -0x4(%rbp),%edx
    5c66:	8b 45 f8             	mov    -0x8(%rbp),%eax
    5c69:	be ff 00 00 00       	mov    $0xff,%esi
    5c6e:	89 c1                	mov    %eax,%ecx
    5c70:	d3 fe                	sar    %cl,%esi
    5c72:	89 f0                	mov    %esi,%eax
    5c74:	39 c2                	cmp    %eax,%edx
    5c76:	7f 0f                	jg     5c87 <safe_lshift_func_uint8_t_u_u+0x3b>
    5c78:	0f b6 55 fc          	movzbl -0x4(%rbp),%edx
    5c7c:	8b 45 f8             	mov    -0x8(%rbp),%eax
    5c7f:	89 c1                	mov    %eax,%ecx
    5c81:	d3 e2                	shl    %cl,%edx
    5c83:	89 d0                	mov    %edx,%eax
    5c85:	eb 04                	jmp    5c8b <safe_lshift_func_uint8_t_u_u+0x3f>
    5c87:	0f b6 45 fc          	movzbl -0x4(%rbp),%eax
    5c8b:	5d                   	pop    %rbp
    5c8c:	c3                   	retq   

0000000000005c8d <safe_rshift_func_uint8_t_u_s>:
    5c8d:	f3 0f 1e fa          	endbr64 
    5c91:	55                   	push   %rbp
    5c92:	48 89 e5             	mov    %rsp,%rbp
    5c95:	89 f8                	mov    %edi,%eax
    5c97:	89 75 f8             	mov    %esi,-0x8(%rbp)
    5c9a:	88 45 fc             	mov    %al,-0x4(%rbp)
    5c9d:	83 7d f8 00          	cmpl   $0x0,-0x8(%rbp)
    5ca1:	78 15                	js     5cb8 <safe_rshift_func_uint8_t_u_s+0x2b>
    5ca3:	83 7d f8 1f          	cmpl   $0x1f,-0x8(%rbp)
    5ca7:	7f 0f                	jg     5cb8 <safe_rshift_func_uint8_t_u_s+0x2b>
    5ca9:	0f b6 55 fc          	movzbl -0x4(%rbp),%edx
    5cad:	8b 45 f8             	mov    -0x8(%rbp),%eax
    5cb0:	89 c1                	mov    %eax,%ecx
    5cb2:	d3 fa                	sar    %cl,%edx
    5cb4:	89 d0                	mov    %edx,%eax
    5cb6:	eb 04                	jmp    5cbc <safe_rshift_func_uint8_t_u_s+0x2f>
    5cb8:	0f b6 45 fc          	movzbl -0x4(%rbp),%eax
    5cbc:	5d                   	pop    %rbp
    5cbd:	c3                   	retq   

0000000000005cbe <safe_rshift_func_uint8_t_u_u>:
    5cbe:	f3 0f 1e fa          	endbr64 
    5cc2:	55                   	push   %rbp
    5cc3:	48 89 e5             	mov    %rsp,%rbp
    5cc6:	89 f8                	mov    %edi,%eax
    5cc8:	89 75 f8             	mov    %esi,-0x8(%rbp)
    5ccb:	88 45 fc             	mov    %al,-0x4(%rbp)
    5cce:	83 7d f8 1f          	cmpl   $0x1f,-0x8(%rbp)
    5cd2:	77 0f                	ja     5ce3 <safe_rshift_func_uint8_t_u_u+0x25>
    5cd4:	0f b6 55 fc          	movzbl -0x4(%rbp),%edx
    5cd8:	8b 45 f8             	mov    -0x8(%rbp),%eax
    5cdb:	89 c1                	mov    %eax,%ecx
    5cdd:	d3 fa                	sar    %cl,%edx
    5cdf:	89 d0                	mov    %edx,%eax
    5ce1:	eb 04                	jmp    5ce7 <safe_rshift_func_uint8_t_u_u+0x29>
    5ce3:	0f b6 45 fc          	movzbl -0x4(%rbp),%eax
    5ce7:	5d                   	pop    %rbp
    5ce8:	c3                   	retq   

0000000000005ce9 <safe_unary_minus_func_uint16_t_u>:
    5ce9:	f3 0f 1e fa          	endbr64 
    5ced:	55                   	push   %rbp
    5cee:	48 89 e5             	mov    %rsp,%rbp
    5cf1:	89 f8                	mov    %edi,%eax
    5cf3:	66 89 45 fc          	mov    %ax,-0x4(%rbp)
    5cf7:	0f b7 45 fc          	movzwl -0x4(%rbp),%eax
    5cfb:	f7 d8                	neg    %eax
    5cfd:	5d                   	pop    %rbp
    5cfe:	c3                   	retq   

0000000000005cff <safe_add_func_uint16_t_u_u>:
    5cff:	f3 0f 1e fa          	endbr64 
    5d03:	55                   	push   %rbp
    5d04:	48 89 e5             	mov    %rsp,%rbp
    5d07:	89 fa                	mov    %edi,%edx
    5d09:	89 f0                	mov    %esi,%eax
    5d0b:	66 89 55 fc          	mov    %dx,-0x4(%rbp)
    5d0f:	66 89 45 f8          	mov    %ax,-0x8(%rbp)
    5d13:	0f b7 55 fc          	movzwl -0x4(%rbp),%edx
    5d17:	0f b7 45 f8          	movzwl -0x8(%rbp),%eax
    5d1b:	01 d0                	add    %edx,%eax
    5d1d:	5d                   	pop    %rbp
    5d1e:	c3                   	retq   

0000000000005d1f <safe_sub_func_uint16_t_u_u>:
    5d1f:	f3 0f 1e fa          	endbr64 
    5d23:	55                   	push   %rbp
    5d24:	48 89 e5             	mov    %rsp,%rbp
    5d27:	89 fa                	mov    %edi,%edx
    5d29:	89 f0                	mov    %esi,%eax
    5d2b:	66 89 55 fc          	mov    %dx,-0x4(%rbp)
    5d2f:	66 89 45 f8          	mov    %ax,-0x8(%rbp)
    5d33:	0f b7 45 fc          	movzwl -0x4(%rbp),%eax
    5d37:	66 2b 45 f8          	sub    -0x8(%rbp),%ax
    5d3b:	5d                   	pop    %rbp
    5d3c:	c3                   	retq   

0000000000005d3d <safe_mul_func_uint16_t_u_u>:
    5d3d:	f3 0f 1e fa          	endbr64 
    5d41:	55                   	push   %rbp
    5d42:	48 89 e5             	mov    %rsp,%rbp
    5d45:	89 fa                	mov    %edi,%edx
    5d47:	89 f0                	mov    %esi,%eax
    5d49:	66 89 55 fc          	mov    %dx,-0x4(%rbp)
    5d4d:	66 89 45 f8          	mov    %ax,-0x8(%rbp)
    5d51:	0f b7 45 fc          	movzwl -0x4(%rbp),%eax
    5d55:	66 0f af 45 f8       	imul   -0x8(%rbp),%ax
    5d5a:	5d                   	pop    %rbp
    5d5b:	c3                   	retq   

0000000000005d5c <safe_mod_func_uint16_t_u_u>:
    5d5c:	f3 0f 1e fa          	endbr64 
    5d60:	55                   	push   %rbp
    5d61:	48 89 e5             	mov    %rsp,%rbp
    5d64:	89 fa                	mov    %edi,%edx
    5d66:	89 f0                	mov    %esi,%eax
    5d68:	66 89 55 fc          	mov    %dx,-0x4(%rbp)
    5d6c:	66 89 45 f8          	mov    %ax,-0x8(%rbp)
    5d70:	66 83 7d f8 00       	cmpw   $0x0,-0x8(%rbp)
    5d75:	74 11                	je     5d88 <safe_mod_func_uint16_t_u_u+0x2c>
    5d77:	0f b7 45 fc          	movzwl -0x4(%rbp),%eax
    5d7b:	ba 00 00 00 00       	mov    $0x0,%edx
    5d80:	66 f7 75 f8          	divw   -0x8(%rbp)
    5d84:	89 d0                	mov    %edx,%eax
    5d86:	eb 04                	jmp    5d8c <safe_mod_func_uint16_t_u_u+0x30>
    5d88:	0f b7 45 fc          	movzwl -0x4(%rbp),%eax
    5d8c:	5d                   	pop    %rbp
    5d8d:	c3                   	retq   

0000000000005d8e <safe_div_func_uint16_t_u_u>:
    5d8e:	f3 0f 1e fa          	endbr64 
    5d92:	55                   	push   %rbp
    5d93:	48 89 e5             	mov    %rsp,%rbp
    5d96:	89 fa                	mov    %edi,%edx
    5d98:	89 f0                	mov    %esi,%eax
    5d9a:	66 89 55 fc          	mov    %dx,-0x4(%rbp)
    5d9e:	66 89 45 f8          	mov    %ax,-0x8(%rbp)
    5da2:	66 83 7d f8 00       	cmpw   $0x0,-0x8(%rbp)
    5da7:	74 0f                	je     5db8 <safe_div_func_uint16_t_u_u+0x2a>
    5da9:	0f b7 45 fc          	movzwl -0x4(%rbp),%eax
    5dad:	ba 00 00 00 00       	mov    $0x0,%edx
    5db2:	66 f7 75 f8          	divw   -0x8(%rbp)
    5db6:	eb 04                	jmp    5dbc <safe_div_func_uint16_t_u_u+0x2e>
    5db8:	0f b7 45 fc          	movzwl -0x4(%rbp),%eax
    5dbc:	5d                   	pop    %rbp
    5dbd:	c3                   	retq   

0000000000005dbe <safe_lshift_func_uint16_t_u_s>:
    5dbe:	f3 0f 1e fa          	endbr64 
    5dc2:	55                   	push   %rbp
    5dc3:	48 89 e5             	mov    %rsp,%rbp
    5dc6:	89 f8                	mov    %edi,%eax
    5dc8:	89 75 f8             	mov    %esi,-0x8(%rbp)
    5dcb:	66 89 45 fc          	mov    %ax,-0x4(%rbp)
    5dcf:	83 7d f8 00          	cmpl   $0x0,-0x8(%rbp)
    5dd3:	78 2b                	js     5e00 <safe_lshift_func_uint16_t_u_s+0x42>
    5dd5:	83 7d f8 1f          	cmpl   $0x1f,-0x8(%rbp)
    5dd9:	7f 25                	jg     5e00 <safe_lshift_func_uint16_t_u_s+0x42>
    5ddb:	0f b7 55 fc          	movzwl -0x4(%rbp),%edx
    5ddf:	8b 45 f8             	mov    -0x8(%rbp),%eax
    5de2:	be ff ff 00 00       	mov    $0xffff,%esi
    5de7:	89 c1                	mov    %eax,%ecx
    5de9:	d3 fe                	sar    %cl,%esi
    5deb:	89 f0                	mov    %esi,%eax
    5ded:	39 c2                	cmp    %eax,%edx
    5def:	7f 0f                	jg     5e00 <safe_lshift_func_uint16_t_u_s+0x42>
    5df1:	0f b7 55 fc          	movzwl -0x4(%rbp),%edx
    5df5:	8b 45 f8             	mov    -0x8(%rbp),%eax
    5df8:	89 c1                	mov    %eax,%ecx
    5dfa:	d3 e2                	shl    %cl,%edx
    5dfc:	89 d0                	mov    %edx,%eax
    5dfe:	eb 04                	jmp    5e04 <safe_lshift_func_uint16_t_u_s+0x46>
    5e00:	0f b7 45 fc          	movzwl -0x4(%rbp),%eax
    5e04:	5d                   	pop    %rbp
    5e05:	c3                   	retq   

0000000000005e06 <safe_lshift_func_uint16_t_u_u>:
    5e06:	f3 0f 1e fa          	endbr64 
    5e0a:	55                   	push   %rbp
    5e0b:	48 89 e5             	mov    %rsp,%rbp
    5e0e:	89 f8                	mov    %edi,%eax
    5e10:	89 75 f8             	mov    %esi,-0x8(%rbp)
    5e13:	66 89 45 fc          	mov    %ax,-0x4(%rbp)
    5e17:	83 7d f8 1f          	cmpl   $0x1f,-0x8(%rbp)
    5e1b:	77 25                	ja     5e42 <safe_lshift_func_uint16_t_u_u+0x3c>
    5e1d:	0f b7 55 fc          	movzwl -0x4(%rbp),%edx
    5e21:	8b 45 f8             	mov    -0x8(%rbp),%eax
    5e24:	be ff ff 00 00       	mov    $0xffff,%esi
    5e29:	89 c1                	mov    %eax,%ecx
    5e2b:	d3 fe                	sar    %cl,%esi
    5e2d:	89 f0                	mov    %esi,%eax
    5e2f:	39 c2                	cmp    %eax,%edx
    5e31:	7f 0f                	jg     5e42 <safe_lshift_func_uint16_t_u_u+0x3c>
    5e33:	0f b7 55 fc          	movzwl -0x4(%rbp),%edx
    5e37:	8b 45 f8             	mov    -0x8(%rbp),%eax
    5e3a:	89 c1                	mov    %eax,%ecx
    5e3c:	d3 e2                	shl    %cl,%edx
    5e3e:	89 d0                	mov    %edx,%eax
    5e40:	eb 04                	jmp    5e46 <safe_lshift_func_uint16_t_u_u+0x40>
    5e42:	0f b7 45 fc          	movzwl -0x4(%rbp),%eax
    5e46:	5d                   	pop    %rbp
    5e47:	c3                   	retq   

0000000000005e48 <safe_rshift_func_uint16_t_u_s>:
    5e48:	f3 0f 1e fa          	endbr64 
    5e4c:	55                   	push   %rbp
    5e4d:	48 89 e5             	mov    %rsp,%rbp
    5e50:	89 f8                	mov    %edi,%eax
    5e52:	89 75 f8             	mov    %esi,-0x8(%rbp)
    5e55:	66 89 45 fc          	mov    %ax,-0x4(%rbp)
    5e59:	83 7d f8 00          	cmpl   $0x0,-0x8(%rbp)
    5e5d:	78 15                	js     5e74 <safe_rshift_func_uint16_t_u_s+0x2c>
    5e5f:	83 7d f8 1f          	cmpl   $0x1f,-0x8(%rbp)
    5e63:	7f 0f                	jg     5e74 <safe_rshift_func_uint16_t_u_s+0x2c>
    5e65:	0f b7 55 fc          	movzwl -0x4(%rbp),%edx
    5e69:	8b 45 f8             	mov    -0x8(%rbp),%eax
    5e6c:	89 c1                	mov    %eax,%ecx
    5e6e:	d3 fa                	sar    %cl,%edx
    5e70:	89 d0                	mov    %edx,%eax
    5e72:	eb 04                	jmp    5e78 <safe_rshift_func_uint16_t_u_s+0x30>
    5e74:	0f b7 45 fc          	movzwl -0x4(%rbp),%eax
    5e78:	5d                   	pop    %rbp
    5e79:	c3                   	retq   

0000000000005e7a <safe_rshift_func_uint16_t_u_u>:
    5e7a:	f3 0f 1e fa          	endbr64 
    5e7e:	55                   	push   %rbp
    5e7f:	48 89 e5             	mov    %rsp,%rbp
    5e82:	89 f8                	mov    %edi,%eax
    5e84:	89 75 f8             	mov    %esi,-0x8(%rbp)
    5e87:	66 89 45 fc          	mov    %ax,-0x4(%rbp)
    5e8b:	83 7d f8 1f          	cmpl   $0x1f,-0x8(%rbp)
    5e8f:	77 0f                	ja     5ea0 <safe_rshift_func_uint16_t_u_u+0x26>
    5e91:	0f b7 55 fc          	movzwl -0x4(%rbp),%edx
    5e95:	8b 45 f8             	mov    -0x8(%rbp),%eax
    5e98:	89 c1                	mov    %eax,%ecx
    5e9a:	d3 fa                	sar    %cl,%edx
    5e9c:	89 d0                	mov    %edx,%eax
    5e9e:	eb 04                	jmp    5ea4 <safe_rshift_func_uint16_t_u_u+0x2a>
    5ea0:	0f b7 45 fc          	movzwl -0x4(%rbp),%eax
    5ea4:	5d                   	pop    %rbp
    5ea5:	c3                   	retq   

0000000000005ea6 <safe_unary_minus_func_uint32_t_u>:
    5ea6:	f3 0f 1e fa          	endbr64 
    5eaa:	55                   	push   %rbp
    5eab:	48 89 e5             	mov    %rsp,%rbp
    5eae:	89 7d fc             	mov    %edi,-0x4(%rbp)
    5eb1:	8b 45 fc             	mov    -0x4(%rbp),%eax
    5eb4:	f7 d8                	neg    %eax
    5eb6:	5d                   	pop    %rbp
    5eb7:	c3                   	retq   

0000000000005eb8 <safe_add_func_uint32_t_u_u>:
    5eb8:	f3 0f 1e fa          	endbr64 
    5ebc:	55                   	push   %rbp
    5ebd:	48 89 e5             	mov    %rsp,%rbp
    5ec0:	89 7d fc             	mov    %edi,-0x4(%rbp)
    5ec3:	89 75 f8             	mov    %esi,-0x8(%rbp)
    5ec6:	8b 55 fc             	mov    -0x4(%rbp),%edx
    5ec9:	8b 45 f8             	mov    -0x8(%rbp),%eax
    5ecc:	01 d0                	add    %edx,%eax
    5ece:	5d                   	pop    %rbp
    5ecf:	c3                   	retq   

0000000000005ed0 <safe_sub_func_uint32_t_u_u>:
    5ed0:	f3 0f 1e fa          	endbr64 
    5ed4:	55                   	push   %rbp
    5ed5:	48 89 e5             	mov    %rsp,%rbp
    5ed8:	89 7d fc             	mov    %edi,-0x4(%rbp)
    5edb:	89 75 f8             	mov    %esi,-0x8(%rbp)
    5ede:	8b 45 fc             	mov    -0x4(%rbp),%eax
    5ee1:	2b 45 f8             	sub    -0x8(%rbp),%eax
    5ee4:	5d                   	pop    %rbp
    5ee5:	c3                   	retq   

0000000000005ee6 <safe_mul_func_uint32_t_u_u>:
    5ee6:	f3 0f 1e fa          	endbr64 
    5eea:	55                   	push   %rbp
    5eeb:	48 89 e5             	mov    %rsp,%rbp
    5eee:	89 7d fc             	mov    %edi,-0x4(%rbp)
    5ef1:	89 75 f8             	mov    %esi,-0x8(%rbp)
    5ef4:	8b 45 fc             	mov    -0x4(%rbp),%eax
    5ef7:	0f af 45 f8          	imul   -0x8(%rbp),%eax
    5efb:	5d                   	pop    %rbp
    5efc:	c3                   	retq   

0000000000005efd <safe_mod_func_uint32_t_u_u>:
    5efd:	f3 0f 1e fa          	endbr64 
    5f01:	55                   	push   %rbp
    5f02:	48 89 e5             	mov    %rsp,%rbp
    5f05:	89 7d fc             	mov    %edi,-0x4(%rbp)
    5f08:	89 75 f8             	mov    %esi,-0x8(%rbp)
    5f0b:	83 7d f8 00          	cmpl   $0x0,-0x8(%rbp)
    5f0f:	74 0f                	je     5f20 <safe_mod_func_uint32_t_u_u+0x23>
    5f11:	8b 45 fc             	mov    -0x4(%rbp),%eax
    5f14:	ba 00 00 00 00       	mov    $0x0,%edx
    5f19:	f7 75 f8             	divl   -0x8(%rbp)
    5f1c:	89 d0                	mov    %edx,%eax
    5f1e:	eb 03                	jmp    5f23 <safe_mod_func_uint32_t_u_u+0x26>
    5f20:	8b 45 fc             	mov    -0x4(%rbp),%eax
    5f23:	5d                   	pop    %rbp
    5f24:	c3                   	retq   

0000000000005f25 <safe_div_func_uint32_t_u_u>:
    5f25:	f3 0f 1e fa          	endbr64 
    5f29:	55                   	push   %rbp
    5f2a:	48 89 e5             	mov    %rsp,%rbp
    5f2d:	89 7d fc             	mov    %edi,-0x4(%rbp)
    5f30:	89 75 f8             	mov    %esi,-0x8(%rbp)
    5f33:	83 7d f8 00          	cmpl   $0x0,-0x8(%rbp)
    5f37:	74 0d                	je     5f46 <safe_div_func_uint32_t_u_u+0x21>
    5f39:	8b 45 fc             	mov    -0x4(%rbp),%eax
    5f3c:	ba 00 00 00 00       	mov    $0x0,%edx
    5f41:	f7 75 f8             	divl   -0x8(%rbp)
    5f44:	eb 03                	jmp    5f49 <safe_div_func_uint32_t_u_u+0x24>
    5f46:	8b 45 fc             	mov    -0x4(%rbp),%eax
    5f49:	5d                   	pop    %rbp
    5f4a:	c3                   	retq   

0000000000005f4b <safe_lshift_func_uint32_t_u_s>:
    5f4b:	f3 0f 1e fa          	endbr64 
    5f4f:	55                   	push   %rbp
    5f50:	48 89 e5             	mov    %rsp,%rbp
    5f53:	89 7d fc             	mov    %edi,-0x4(%rbp)
    5f56:	89 75 f8             	mov    %esi,-0x8(%rbp)
    5f59:	83 7d f8 00          	cmpl   $0x0,-0x8(%rbp)
    5f5d:	78 27                	js     5f86 <safe_lshift_func_uint32_t_u_s+0x3b>
    5f5f:	83 7d f8 1f          	cmpl   $0x1f,-0x8(%rbp)
    5f63:	7f 21                	jg     5f86 <safe_lshift_func_uint32_t_u_s+0x3b>
    5f65:	8b 45 f8             	mov    -0x8(%rbp),%eax
    5f68:	ba ff ff ff ff       	mov    $0xffffffff,%edx
    5f6d:	89 c1                	mov    %eax,%ecx
    5f6f:	d3 ea                	shr    %cl,%edx
    5f71:	89 d0                	mov    %edx,%eax
    5f73:	39 45 fc             	cmp    %eax,-0x4(%rbp)
    5f76:	77 0e                	ja     5f86 <safe_lshift_func_uint32_t_u_s+0x3b>
    5f78:	8b 45 f8             	mov    -0x8(%rbp),%eax
    5f7b:	8b 55 fc             	mov    -0x4(%rbp),%edx
    5f7e:	89 c1                	mov    %eax,%ecx
    5f80:	d3 e2                	shl    %cl,%edx
    5f82:	89 d0                	mov    %edx,%eax
    5f84:	eb 03                	jmp    5f89 <safe_lshift_func_uint32_t_u_s+0x3e>
    5f86:	8b 45 fc             	mov    -0x4(%rbp),%eax
    5f89:	5d                   	pop    %rbp
    5f8a:	c3                   	retq   

0000000000005f8b <safe_lshift_func_uint32_t_u_u>:
    5f8b:	f3 0f 1e fa          	endbr64 
    5f8f:	55                   	push   %rbp
    5f90:	48 89 e5             	mov    %rsp,%rbp
    5f93:	89 7d fc             	mov    %edi,-0x4(%rbp)
    5f96:	89 75 f8             	mov    %esi,-0x8(%rbp)
    5f99:	83 7d f8 1f          	cmpl   $0x1f,-0x8(%rbp)
    5f9d:	77 21                	ja     5fc0 <safe_lshift_func_uint32_t_u_u+0x35>
    5f9f:	8b 45 f8             	mov    -0x8(%rbp),%eax
    5fa2:	ba ff ff ff ff       	mov    $0xffffffff,%edx
    5fa7:	89 c1                	mov    %eax,%ecx
    5fa9:	d3 ea                	shr    %cl,%edx
    5fab:	89 d0                	mov    %edx,%eax
    5fad:	39 45 fc             	cmp    %eax,-0x4(%rbp)
    5fb0:	77 0e                	ja     5fc0 <safe_lshift_func_uint32_t_u_u+0x35>
    5fb2:	8b 45 f8             	mov    -0x8(%rbp),%eax
    5fb5:	8b 55 fc             	mov    -0x4(%rbp),%edx
    5fb8:	89 c1                	mov    %eax,%ecx
    5fba:	d3 e2                	shl    %cl,%edx
    5fbc:	89 d0                	mov    %edx,%eax
    5fbe:	eb 03                	jmp    5fc3 <safe_lshift_func_uint32_t_u_u+0x38>
    5fc0:	8b 45 fc             	mov    -0x4(%rbp),%eax
    5fc3:	5d                   	pop    %rbp
    5fc4:	c3                   	retq   

0000000000005fc5 <safe_rshift_func_uint32_t_u_s>:
    5fc5:	f3 0f 1e fa          	endbr64 
    5fc9:	55                   	push   %rbp
    5fca:	48 89 e5             	mov    %rsp,%rbp
    5fcd:	89 7d fc             	mov    %edi,-0x4(%rbp)
    5fd0:	89 75 f8             	mov    %esi,-0x8(%rbp)
    5fd3:	83 7d f8 00          	cmpl   $0x0,-0x8(%rbp)
    5fd7:	78 14                	js     5fed <safe_rshift_func_uint32_t_u_s+0x28>
    5fd9:	83 7d f8 1f          	cmpl   $0x1f,-0x8(%rbp)
    5fdd:	7f 0e                	jg     5fed <safe_rshift_func_uint32_t_u_s+0x28>
    5fdf:	8b 45 f8             	mov    -0x8(%rbp),%eax
    5fe2:	8b 55 fc             	mov    -0x4(%rbp),%edx
    5fe5:	89 c1                	mov    %eax,%ecx
    5fe7:	d3 ea                	shr    %cl,%edx
    5fe9:	89 d0                	mov    %edx,%eax
    5feb:	eb 03                	jmp    5ff0 <safe_rshift_func_uint32_t_u_s+0x2b>
    5fed:	8b 45 fc             	mov    -0x4(%rbp),%eax
    5ff0:	5d                   	pop    %rbp
    5ff1:	c3                   	retq   

0000000000005ff2 <safe_rshift_func_uint32_t_u_u>:
    5ff2:	f3 0f 1e fa          	endbr64 
    5ff6:	55                   	push   %rbp
    5ff7:	48 89 e5             	mov    %rsp,%rbp
    5ffa:	89 7d fc             	mov    %edi,-0x4(%rbp)
    5ffd:	89 75 f8             	mov    %esi,-0x8(%rbp)
    6000:	83 7d f8 1f          	cmpl   $0x1f,-0x8(%rbp)
    6004:	77 0e                	ja     6014 <safe_rshift_func_uint32_t_u_u+0x22>
    6006:	8b 45 f8             	mov    -0x8(%rbp),%eax
    6009:	8b 55 fc             	mov    -0x4(%rbp),%edx
    600c:	89 c1                	mov    %eax,%ecx
    600e:	d3 ea                	shr    %cl,%edx
    6010:	89 d0                	mov    %edx,%eax
    6012:	eb 03                	jmp    6017 <safe_rshift_func_uint32_t_u_u+0x25>
    6014:	8b 45 fc             	mov    -0x4(%rbp),%eax
    6017:	5d                   	pop    %rbp
    6018:	c3                   	retq   

0000000000006019 <safe_unary_minus_func_uint64_t_u>:
    6019:	f3 0f 1e fa          	endbr64 
    601d:	55                   	push   %rbp
    601e:	48 89 e5             	mov    %rsp,%rbp
    6021:	48 89 7d f8          	mov    %rdi,-0x8(%rbp)
    6025:	48 8b 45 f8          	mov    -0x8(%rbp),%rax
    6029:	48 f7 d8             	neg    %rax
    602c:	5d                   	pop    %rbp
    602d:	c3                   	retq   

000000000000602e <safe_add_func_uint64_t_u_u>:
    602e:	f3 0f 1e fa          	endbr64 
    6032:	55                   	push   %rbp
    6033:	48 89 e5             	mov    %rsp,%rbp
    6036:	48 89 7d f8          	mov    %rdi,-0x8(%rbp)
    603a:	48 89 75 f0          	mov    %rsi,-0x10(%rbp)
    603e:	48 8b 55 f8          	mov    -0x8(%rbp),%rdx
    6042:	48 8b 45 f0          	mov    -0x10(%rbp),%rax
    6046:	48 01 d0             	add    %rdx,%rax
    6049:	5d                   	pop    %rbp
    604a:	c3                   	retq   

000000000000604b <safe_sub_func_uint64_t_u_u>:
    604b:	f3 0f 1e fa          	endbr64 
    604f:	55                   	push   %rbp
    6050:	48 89 e5             	mov    %rsp,%rbp
    6053:	48 89 7d f8          	mov    %rdi,-0x8(%rbp)
    6057:	48 89 75 f0          	mov    %rsi,-0x10(%rbp)
    605b:	48 8b 45 f8          	mov    -0x8(%rbp),%rax
    605f:	48 2b 45 f0          	sub    -0x10(%rbp),%rax
    6063:	5d                   	pop    %rbp
    6064:	c3                   	retq   

0000000000006065 <safe_mul_func_uint64_t_u_u>:
    6065:	f3 0f 1e fa          	endbr64 
    6069:	55                   	push   %rbp
    606a:	48 89 e5             	mov    %rsp,%rbp
    606d:	48 89 7d f8          	mov    %rdi,-0x8(%rbp)
    6071:	48 89 75 f0          	mov    %rsi,-0x10(%rbp)
    6075:	48 8b 45 f8          	mov    -0x8(%rbp),%rax
    6079:	48 0f af 45 f0       	imul   -0x10(%rbp),%rax
    607e:	5d                   	pop    %rbp
    607f:	c3                   	retq   

0000000000006080 <safe_mod_func_uint64_t_u_u>:
    6080:	f3 0f 1e fa          	endbr64 
    6084:	55                   	push   %rbp
    6085:	48 89 e5             	mov    %rsp,%rbp
    6088:	48 89 7d f8          	mov    %rdi,-0x8(%rbp)
    608c:	48 89 75 f0          	mov    %rsi,-0x10(%rbp)
    6090:	48 83 7d f0 00       	cmpq   $0x0,-0x10(%rbp)
    6095:	74 12                	je     60a9 <safe_mod_func_uint64_t_u_u+0x29>
    6097:	48 8b 45 f8          	mov    -0x8(%rbp),%rax
    609b:	ba 00 00 00 00       	mov    $0x0,%edx
    60a0:	48 f7 75 f0          	divq   -0x10(%rbp)
    60a4:	48 89 d0             	mov    %rdx,%rax
    60a7:	eb 04                	jmp    60ad <safe_mod_func_uint64_t_u_u+0x2d>
    60a9:	48 8b 45 f8          	mov    -0x8(%rbp),%rax
    60ad:	5d                   	pop    %rbp
    60ae:	c3                   	retq   

00000000000060af <safe_div_func_uint64_t_u_u>:
    60af:	f3 0f 1e fa          	endbr64 
    60b3:	55                   	push   %rbp
    60b4:	48 89 e5             	mov    %rsp,%rbp
    60b7:	48 89 7d f8          	mov    %rdi,-0x8(%rbp)
    60bb:	48 89 75 f0          	mov    %rsi,-0x10(%rbp)
    60bf:	48 83 7d f0 00       	cmpq   $0x0,-0x10(%rbp)
    60c4:	74 0f                	je     60d5 <safe_div_func_uint64_t_u_u+0x26>
    60c6:	48 8b 45 f8          	mov    -0x8(%rbp),%rax
    60ca:	ba 00 00 00 00       	mov    $0x0,%edx
    60cf:	48 f7 75 f0          	divq   -0x10(%rbp)
    60d3:	eb 04                	jmp    60d9 <safe_div_func_uint64_t_u_u+0x2a>
    60d5:	48 8b 45 f8          	mov    -0x8(%rbp),%rax
    60d9:	5d                   	pop    %rbp
    60da:	c3                   	retq   

00000000000060db <safe_lshift_func_uint64_t_u_s>:
    60db:	f3 0f 1e fa          	endbr64 
    60df:	55                   	push   %rbp
    60e0:	48 89 e5             	mov    %rsp,%rbp
    60e3:	48 89 7d f8          	mov    %rdi,-0x8(%rbp)
    60e7:	89 75 f4             	mov    %esi,-0xc(%rbp)
    60ea:	83 7d f4 00          	cmpl   $0x0,-0xc(%rbp)
    60ee:	78 2f                	js     611f <safe_lshift_func_uint64_t_u_s+0x44>
    60f0:	83 7d f4 1f          	cmpl   $0x1f,-0xc(%rbp)
    60f4:	7f 29                	jg     611f <safe_lshift_func_uint64_t_u_s+0x44>
    60f6:	8b 45 f4             	mov    -0xc(%rbp),%eax
    60f9:	48 c7 c2 ff ff ff ff 	mov    $0xffffffffffffffff,%rdx
    6100:	89 c1                	mov    %eax,%ecx
    6102:	48 d3 ea             	shr    %cl,%rdx
    6105:	48 89 d0             	mov    %rdx,%rax
    6108:	48 39 45 f8          	cmp    %rax,-0x8(%rbp)
    610c:	77 11                	ja     611f <safe_lshift_func_uint64_t_u_s+0x44>
    610e:	8b 45 f4             	mov    -0xc(%rbp),%eax
    6111:	48 8b 55 f8          	mov    -0x8(%rbp),%rdx
    6115:	89 c1                	mov    %eax,%ecx
    6117:	48 d3 e2             	shl    %cl,%rdx
    611a:	48 89 d0             	mov    %rdx,%rax
    611d:	eb 04                	jmp    6123 <safe_lshift_func_uint64_t_u_s+0x48>
    611f:	48 8b 45 f8          	mov    -0x8(%rbp),%rax
    6123:	5d                   	pop    %rbp
    6124:	c3                   	retq   

0000000000006125 <safe_lshift_func_uint64_t_u_u>:
    6125:	f3 0f 1e fa          	endbr64 
    6129:	55                   	push   %rbp
    612a:	48 89 e5             	mov    %rsp,%rbp
    612d:	48 89 7d f8          	mov    %rdi,-0x8(%rbp)
    6131:	89 75 f4             	mov    %esi,-0xc(%rbp)
    6134:	83 7d f4 1f          	cmpl   $0x1f,-0xc(%rbp)
    6138:	77 29                	ja     6163 <safe_lshift_func_uint64_t_u_u+0x3e>
    613a:	8b 45 f4             	mov    -0xc(%rbp),%eax
    613d:	48 c7 c2 ff ff ff ff 	mov    $0xffffffffffffffff,%rdx
    6144:	89 c1                	mov    %eax,%ecx
    6146:	48 d3 ea             	shr    %cl,%rdx
    6149:	48 89 d0             	mov    %rdx,%rax
    614c:	48 39 45 f8          	cmp    %rax,-0x8(%rbp)
    6150:	77 11                	ja     6163 <safe_lshift_func_uint64_t_u_u+0x3e>
    6152:	8b 45 f4             	mov    -0xc(%rbp),%eax
    6155:	48 8b 55 f8          	mov    -0x8(%rbp),%rdx
    6159:	89 c1                	mov    %eax,%ecx
    615b:	48 d3 e2             	shl    %cl,%rdx
    615e:	48 89 d0             	mov    %rdx,%rax
    6161:	eb 04                	jmp    6167 <safe_lshift_func_uint64_t_u_u+0x42>
    6163:	48 8b 45 f8          	mov    -0x8(%rbp),%rax
    6167:	5d                   	pop    %rbp
    6168:	c3                   	retq   

0000000000006169 <safe_rshift_func_uint64_t_u_s>:
    6169:	f3 0f 1e fa          	endbr64 
    616d:	55                   	push   %rbp
    616e:	48 89 e5             	mov    %rsp,%rbp
    6171:	48 89 7d f8          	mov    %rdi,-0x8(%rbp)
    6175:	89 75 f4             	mov    %esi,-0xc(%rbp)
    6178:	83 7d f4 00          	cmpl   $0x0,-0xc(%rbp)
    617c:	78 17                	js     6195 <safe_rshift_func_uint64_t_u_s+0x2c>
    617e:	83 7d f4 1f          	cmpl   $0x1f,-0xc(%rbp)
    6182:	7f 11                	jg     6195 <safe_rshift_func_uint64_t_u_s+0x2c>
    6184:	8b 45 f4             	mov    -0xc(%rbp),%eax
    6187:	48 8b 55 f8          	mov    -0x8(%rbp),%rdx
    618b:	89 c1                	mov    %eax,%ecx
    618d:	48 d3 ea             	shr    %cl,%rdx
    6190:	48 89 d0             	mov    %rdx,%rax
    6193:	eb 04                	jmp    6199 <safe_rshift_func_uint64_t_u_s+0x30>
    6195:	48 8b 45 f8          	mov    -0x8(%rbp),%rax
    6199:	5d                   	pop    %rbp
    619a:	c3                   	retq   

000000000000619b <safe_rshift_func_uint64_t_u_u>:
    619b:	f3 0f 1e fa          	endbr64 
    619f:	55                   	push   %rbp
    61a0:	48 89 e5             	mov    %rsp,%rbp
    61a3:	48 89 7d f8          	mov    %rdi,-0x8(%rbp)
    61a7:	89 75 f4             	mov    %esi,-0xc(%rbp)
    61aa:	83 7d f4 1f          	cmpl   $0x1f,-0xc(%rbp)
    61ae:	77 11                	ja     61c1 <safe_rshift_func_uint64_t_u_u+0x26>
    61b0:	8b 45 f4             	mov    -0xc(%rbp),%eax
    61b3:	48 8b 55 f8          	mov    -0x8(%rbp),%rdx
    61b7:	89 c1                	mov    %eax,%ecx
    61b9:	48 d3 ea             	shr    %cl,%rdx
    61bc:	48 89 d0             	mov    %rdx,%rax
    61bf:	eb 04                	jmp    61c5 <safe_rshift_func_uint64_t_u_u+0x2a>
    61c1:	48 8b 45 f8          	mov    -0x8(%rbp),%rax
    61c5:	5d                   	pop    %rbp
    61c6:	c3                   	retq   

00000000000061c7 <safe_add_func_float_f_f>:
    61c7:	f3 0f 1e fa          	endbr64 
    61cb:	55                   	push   %rbp
    61cc:	48 89 e5             	mov    %rsp,%rbp
    61cf:	f3 0f 11 45 fc       	movss  %xmm0,-0x4(%rbp)
    61d4:	f3 0f 11 4d f8       	movss  %xmm1,-0x8(%rbp)
    61d9:	f3 0f 10 4d fc       	movss  -0x4(%rbp),%xmm1
    61de:	f3 0f 10 05 1a fa 00 	movss  0xfa1a(%rip),%xmm0        # 15c00 <l_232.4861+0x10>
    61e5:	00 
    61e6:	f3 0f 59 c8          	mulss  %xmm0,%xmm1
    61ea:	f3 0f 10 55 f8       	movss  -0x8(%rbp),%xmm2
    61ef:	f3 0f 10 05 09 fa 00 	movss  0xfa09(%rip),%xmm0        # 15c00 <l_232.4861+0x10>
    61f6:	00 
    61f7:	f3 0f 59 c2          	mulss  %xmm2,%xmm0
    61fb:	f3 0f 58 c1          	addss  %xmm1,%xmm0
    61ff:	f3 0f 10 0d 09 fa 00 	movss  0xfa09(%rip),%xmm1        # 15c10 <l_232.4861+0x20>
    6206:	00 
    6207:	0f 54 c1             	andps  %xmm1,%xmm0
    620a:	0f 2f 05 0f fa 00 00 	comiss 0xfa0f(%rip),%xmm0        # 15c20 <l_232.4861+0x30>
    6211:	76 07                	jbe    621a <safe_add_func_float_f_f+0x53>
    6213:	f3 0f 10 45 fc       	movss  -0x4(%rbp),%xmm0
    6218:	eb 0a                	jmp    6224 <safe_add_func_float_f_f+0x5d>
    621a:	f3 0f 10 45 fc       	movss  -0x4(%rbp),%xmm0
    621f:	f3 0f 58 45 f8       	addss  -0x8(%rbp),%xmm0
    6224:	5d                   	pop    %rbp
    6225:	c3                   	retq   

0000000000006226 <safe_sub_func_float_f_f>:
    6226:	f3 0f 1e fa          	endbr64 
    622a:	55                   	push   %rbp
    622b:	48 89 e5             	mov    %rsp,%rbp
    622e:	f3 0f 11 45 fc       	movss  %xmm0,-0x4(%rbp)
    6233:	f3 0f 11 4d f8       	movss  %xmm1,-0x8(%rbp)
    6238:	f3 0f 10 4d fc       	movss  -0x4(%rbp),%xmm1
    623d:	f3 0f 10 05 bb f9 00 	movss  0xf9bb(%rip),%xmm0        # 15c00 <l_232.4861+0x10>
    6244:	00 
    6245:	f3 0f 59 c1          	mulss  %xmm1,%xmm0
    6249:	f3 0f 10 55 f8       	movss  -0x8(%rbp),%xmm2
    624e:	f3 0f 10 0d aa f9 00 	movss  0xf9aa(%rip),%xmm1        # 15c00 <l_232.4861+0x10>
    6255:	00 
    6256:	f3 0f 59 ca          	mulss  %xmm2,%xmm1
    625a:	f3 0f 5c c1          	subss  %xmm1,%xmm0
    625e:	f3 0f 10 0d aa f9 00 	movss  0xf9aa(%rip),%xmm1        # 15c10 <l_232.4861+0x20>
    6265:	00 
    6266:	0f 54 c1             	andps  %xmm1,%xmm0
    6269:	0f 2f 05 b0 f9 00 00 	comiss 0xf9b0(%rip),%xmm0        # 15c20 <l_232.4861+0x30>
    6270:	76 07                	jbe    6279 <safe_sub_func_float_f_f+0x53>
    6272:	f3 0f 10 45 fc       	movss  -0x4(%rbp),%xmm0
    6277:	eb 0a                	jmp    6283 <safe_sub_func_float_f_f+0x5d>
    6279:	f3 0f 10 45 fc       	movss  -0x4(%rbp),%xmm0
    627e:	f3 0f 5c 45 f8       	subss  -0x8(%rbp),%xmm0
    6283:	5d                   	pop    %rbp
    6284:	c3                   	retq   

0000000000006285 <safe_mul_func_float_f_f>:
    6285:	f3 0f 1e fa          	endbr64 
    6289:	55                   	push   %rbp
    628a:	48 89 e5             	mov    %rsp,%rbp
    628d:	f3 0f 11 45 fc       	movss  %xmm0,-0x4(%rbp)
    6292:	f3 0f 11 4d f8       	movss  %xmm1,-0x8(%rbp)
    6297:	f3 0f 10 4d fc       	movss  -0x4(%rbp),%xmm1
    629c:	f3 0f 10 05 80 f9 00 	movss  0xf980(%rip),%xmm0        # 15c24 <l_232.4861+0x34>
    62a3:	00 
    62a4:	f3 0f 59 c8          	mulss  %xmm0,%xmm1
    62a8:	f3 0f 10 55 f8       	movss  -0x8(%rbp),%xmm2
    62ad:	f3 0f 10 05 73 f9 00 	movss  0xf973(%rip),%xmm0        # 15c28 <l_232.4861+0x38>
    62b4:	00 
    62b5:	f3 0f 59 c2          	mulss  %xmm2,%xmm0
    62b9:	f3 0f 59 c1          	mulss  %xmm1,%xmm0
    62bd:	f3 0f 10 0d 4b f9 00 	movss  0xf94b(%rip),%xmm1        # 15c10 <l_232.4861+0x20>
    62c4:	00 
    62c5:	0f 54 c1             	andps  %xmm1,%xmm0
    62c8:	0f 2f 05 5d f9 00 00 	comiss 0xf95d(%rip),%xmm0        # 15c2c <l_232.4861+0x3c>
    62cf:	76 07                	jbe    62d8 <safe_mul_func_float_f_f+0x53>
    62d1:	f3 0f 10 45 fc       	movss  -0x4(%rbp),%xmm0
    62d6:	eb 0a                	jmp    62e2 <safe_mul_func_float_f_f+0x5d>
    62d8:	f3 0f 10 45 fc       	movss  -0x4(%rbp),%xmm0
    62dd:	f3 0f 59 45 f8       	mulss  -0x8(%rbp),%xmm0
    62e2:	5d                   	pop    %rbp
    62e3:	c3                   	retq   

00000000000062e4 <safe_div_func_float_f_f>:
    62e4:	f3 0f 1e fa          	endbr64 
    62e8:	55                   	push   %rbp
    62e9:	48 89 e5             	mov    %rsp,%rbp
    62ec:	f3 0f 11 45 fc       	movss  %xmm0,-0x4(%rbp)
    62f1:	f3 0f 11 4d f8       	movss  %xmm1,-0x8(%rbp)
    62f6:	f3 0f 10 45 f8       	movss  -0x8(%rbp),%xmm0
    62fb:	f3 0f 10 0d 0d f9 00 	movss  0xf90d(%rip),%xmm1        # 15c10 <l_232.4861+0x20>
    6302:	00 
    6303:	0f 54 c8             	andps  %xmm0,%xmm1
    6306:	f3 0f 10 05 22 f9 00 	movss  0xf922(%rip),%xmm0        # 15c30 <l_232.4861+0x40>
    630d:	00 
    630e:	0f 2f c1             	comiss %xmm1,%xmm0
    6311:	0f 97 c0             	seta   %al
    6314:	83 f0 01             	xor    $0x1,%eax
    6317:	84 c0                	test   %al,%al
    6319:	75 56                	jne    6371 <safe_div_func_float_f_f+0x8d>
    631b:	66 0f ef c0          	pxor   %xmm0,%xmm0
    631f:	0f 2e 45 f8          	ucomiss -0x8(%rbp),%xmm0
    6323:	7a 0a                	jp     632f <safe_div_func_float_f_f+0x4b>
    6325:	66 0f ef c0          	pxor   %xmm0,%xmm0
    6329:	0f 2e 45 f8          	ucomiss -0x8(%rbp),%xmm0
    632d:	74 4e                	je     637d <safe_div_func_float_f_f+0x99>
    632f:	f3 0f 10 4d fc       	movss  -0x4(%rbp),%xmm1
    6334:	f3 0f 10 05 f8 f8 00 	movss  0xf8f8(%rip),%xmm0        # 15c34 <l_232.4861+0x44>
    633b:	00 
    633c:	f3 0f 59 c1          	mulss  %xmm1,%xmm0
    6340:	f3 0f 10 55 f8       	movss  -0x8(%rbp),%xmm2
    6345:	f3 0f 10 0d eb f8 00 	movss  0xf8eb(%rip),%xmm1        # 15c38 <l_232.4861+0x48>
    634c:	00 
    634d:	f3 0f 59 ca          	mulss  %xmm2,%xmm1
    6351:	f3 0f 5e c1          	divss  %xmm1,%xmm0
    6355:	f3 0f 10 0d b3 f8 00 	movss  0xf8b3(%rip),%xmm1        # 15c10 <l_232.4861+0x20>
    635c:	00 
    635d:	0f 54 c1             	andps  %xmm1,%xmm0
    6360:	0f 2f 05 d5 f8 00 00 	comiss 0xf8d5(%rip),%xmm0        # 15c3c <l_232.4861+0x4c>
    6367:	0f 97 c0             	seta   %al
    636a:	83 f0 01             	xor    $0x1,%eax
    636d:	84 c0                	test   %al,%al
    636f:	74 0c                	je     637d <safe_div_func_float_f_f+0x99>
    6371:	f3 0f 10 45 fc       	movss  -0x4(%rbp),%xmm0
    6376:	f3 0f 5e 45 f8       	divss  -0x8(%rbp),%xmm0
    637b:	eb 05                	jmp    6382 <safe_div_func_float_f_f+0x9e>
    637d:	f3 0f 10 45 fc       	movss  -0x4(%rbp),%xmm0
    6382:	5d                   	pop    %rbp
    6383:	c3                   	retq   

0000000000006384 <safe_add_func_double_f_f>:
    6384:	f3 0f 1e fa          	endbr64 
    6388:	55                   	push   %rbp
    6389:	48 89 e5             	mov    %rsp,%rbp
    638c:	f2 0f 11 45 f8       	movsd  %xmm0,-0x8(%rbp)
    6391:	f2 0f 11 4d f0       	movsd  %xmm1,-0x10(%rbp)
    6396:	f2 0f 10 4d f8       	movsd  -0x8(%rbp),%xmm1
    639b:	f2 0f 10 05 9d f8 00 	movsd  0xf89d(%rip),%xmm0        # 15c40 <l_232.4861+0x50>
    63a2:	00 
    63a3:	f2 0f 59 c8          	mulsd  %xmm0,%xmm1
    63a7:	f2 0f 10 55 f0       	movsd  -0x10(%rbp),%xmm2
    63ac:	f2 0f 10 05 8c f8 00 	movsd  0xf88c(%rip),%xmm0        # 15c40 <l_232.4861+0x50>
    63b3:	00 
    63b4:	f2 0f 59 c2          	mulsd  %xmm2,%xmm0
    63b8:	f2 0f 58 c1          	addsd  %xmm1,%xmm0
    63bc:	f3 0f 7e 0d 8c f8 00 	movq   0xf88c(%rip),%xmm1        # 15c50 <l_232.4861+0x60>
    63c3:	00 
    63c4:	66 0f 54 c1          	andpd  %xmm1,%xmm0
    63c8:	66 0f 2f 05 90 f8 00 	comisd 0xf890(%rip),%xmm0        # 15c60 <l_232.4861+0x70>
    63cf:	00 
    63d0:	76 07                	jbe    63d9 <safe_add_func_double_f_f+0x55>
    63d2:	f2 0f 10 45 f8       	movsd  -0x8(%rbp),%xmm0
    63d7:	eb 0a                	jmp    63e3 <safe_add_func_double_f_f+0x5f>
    63d9:	f2 0f 10 45 f8       	movsd  -0x8(%rbp),%xmm0
    63de:	f2 0f 58 45 f0       	addsd  -0x10(%rbp),%xmm0
    63e3:	5d                   	pop    %rbp
    63e4:	c3                   	retq   

00000000000063e5 <safe_sub_func_double_f_f>:
    63e5:	f3 0f 1e fa          	endbr64 
    63e9:	55                   	push   %rbp
    63ea:	48 89 e5             	mov    %rsp,%rbp
    63ed:	f2 0f 11 45 f8       	movsd  %xmm0,-0x8(%rbp)
    63f2:	f2 0f 11 4d f0       	movsd  %xmm1,-0x10(%rbp)
    63f7:	f2 0f 10 4d f8       	movsd  -0x8(%rbp),%xmm1
    63fc:	f2 0f 10 05 3c f8 00 	movsd  0xf83c(%rip),%xmm0        # 15c40 <l_232.4861+0x50>
    6403:	00 
    6404:	f2 0f 59 c1          	mulsd  %xmm1,%xmm0
    6408:	f2 0f 10 55 f0       	movsd  -0x10(%rbp),%xmm2
    640d:	f2 0f 10 0d 2b f8 00 	movsd  0xf82b(%rip),%xmm1        # 15c40 <l_232.4861+0x50>
    6414:	00 
    6415:	f2 0f 59 ca          	mulsd  %xmm2,%xmm1
    6419:	f2 0f 5c c1          	subsd  %xmm1,%xmm0
    641d:	f3 0f 7e 0d 2b f8 00 	movq   0xf82b(%rip),%xmm1        # 15c50 <l_232.4861+0x60>
    6424:	00 
    6425:	66 0f 54 c1          	andpd  %xmm1,%xmm0
    6429:	66 0f 2f 05 2f f8 00 	comisd 0xf82f(%rip),%xmm0        # 15c60 <l_232.4861+0x70>
    6430:	00 
    6431:	76 07                	jbe    643a <safe_sub_func_double_f_f+0x55>
    6433:	f2 0f 10 45 f8       	movsd  -0x8(%rbp),%xmm0
    6438:	eb 0a                	jmp    6444 <safe_sub_func_double_f_f+0x5f>
    643a:	f2 0f 10 45 f8       	movsd  -0x8(%rbp),%xmm0
    643f:	f2 0f 5c 45 f0       	subsd  -0x10(%rbp),%xmm0
    6444:	5d                   	pop    %rbp
    6445:	c3                   	retq   

0000000000006446 <safe_mul_func_double_f_f>:
    6446:	f3 0f 1e fa          	endbr64 
    644a:	55                   	push   %rbp
    644b:	48 89 e5             	mov    %rsp,%rbp
    644e:	f2 0f 11 45 f8       	movsd  %xmm0,-0x8(%rbp)
    6453:	f2 0f 11 4d f0       	movsd  %xmm1,-0x10(%rbp)
    6458:	f2 0f 10 4d f8       	movsd  -0x8(%rbp),%xmm1
    645d:	f2 0f 10 05 03 f8 00 	movsd  0xf803(%rip),%xmm0        # 15c68 <l_232.4861+0x78>
    6464:	00 
    6465:	f2 0f 59 c8          	mulsd  %xmm0,%xmm1
    6469:	f2 0f 10 55 f0       	movsd  -0x10(%rbp),%xmm2
    646e:	f2 0f 10 05 fa f7 00 	movsd  0xf7fa(%rip),%xmm0        # 15c70 <l_232.4861+0x80>
    6475:	00 
    6476:	f2 0f 59 c2          	mulsd  %xmm2,%xmm0
    647a:	f2 0f 59 c1          	mulsd  %xmm1,%xmm0
    647e:	f3 0f 7e 0d ca f7 00 	movq   0xf7ca(%rip),%xmm1        # 15c50 <l_232.4861+0x60>
    6485:	00 
    6486:	66 0f 54 c1          	andpd  %xmm1,%xmm0
    648a:	66 0f 2f 05 e6 f7 00 	comisd 0xf7e6(%rip),%xmm0        # 15c78 <l_232.4861+0x88>
    6491:	00 
    6492:	76 07                	jbe    649b <safe_mul_func_double_f_f+0x55>
    6494:	f2 0f 10 45 f8       	movsd  -0x8(%rbp),%xmm0
    6499:	eb 0a                	jmp    64a5 <safe_mul_func_double_f_f+0x5f>
    649b:	f2 0f 10 45 f8       	movsd  -0x8(%rbp),%xmm0
    64a0:	f2 0f 59 45 f0       	mulsd  -0x10(%rbp),%xmm0
    64a5:	5d                   	pop    %rbp
    64a6:	c3                   	retq   

00000000000064a7 <safe_div_func_double_f_f>:
    64a7:	f3 0f 1e fa          	endbr64 
    64ab:	55                   	push   %rbp
    64ac:	48 89 e5             	mov    %rsp,%rbp
    64af:	f2 0f 11 45 f8       	movsd  %xmm0,-0x8(%rbp)
    64b4:	f2 0f 11 4d f0       	movsd  %xmm1,-0x10(%rbp)
    64b9:	f2 0f 10 45 f0       	movsd  -0x10(%rbp),%xmm0
    64be:	f3 0f 7e 0d 8a f7 00 	movq   0xf78a(%rip),%xmm1        # 15c50 <l_232.4861+0x60>
    64c5:	00 
    64c6:	66 0f 54 c8          	andpd  %xmm0,%xmm1
    64ca:	f2 0f 10 05 ae f7 00 	movsd  0xf7ae(%rip),%xmm0        # 15c80 <l_232.4861+0x90>
    64d1:	00 
    64d2:	66 0f 2f c1          	comisd %xmm1,%xmm0
    64d6:	0f 97 c0             	seta   %al
    64d9:	83 f0 01             	xor    $0x1,%eax
    64dc:	84 c0                	test   %al,%al
    64de:	75 5a                	jne    653a <safe_div_func_double_f_f+0x93>
    64e0:	66 0f ef c0          	pxor   %xmm0,%xmm0
    64e4:	66 0f 2e 45 f0       	ucomisd -0x10(%rbp),%xmm0
    64e9:	7a 0b                	jp     64f6 <safe_div_func_double_f_f+0x4f>
    64eb:	66 0f ef c0          	pxor   %xmm0,%xmm0
    64ef:	66 0f 2e 45 f0       	ucomisd -0x10(%rbp),%xmm0
    64f4:	74 50                	je     6546 <safe_div_func_double_f_f+0x9f>
    64f6:	f2 0f 10 4d f8       	movsd  -0x8(%rbp),%xmm1
    64fb:	f2 0f 10 05 85 f7 00 	movsd  0xf785(%rip),%xmm0        # 15c88 <l_232.4861+0x98>
    6502:	00 
    6503:	f2 0f 59 c1          	mulsd  %xmm1,%xmm0
    6507:	f2 0f 10 55 f0       	movsd  -0x10(%rbp),%xmm2
    650c:	f2 0f 10 0d 7c f7 00 	movsd  0xf77c(%rip),%xmm1        # 15c90 <l_232.4861+0xa0>
    6513:	00 
    6514:	f2 0f 59 ca          	mulsd  %xmm2,%xmm1
    6518:	f2 0f 5e c1          	divsd  %xmm1,%xmm0
    651c:	f3 0f 7e 0d 2c f7 00 	movq   0xf72c(%rip),%xmm1        # 15c50 <l_232.4861+0x60>
    6523:	00 
    6524:	66 0f 54 c1          	andpd  %xmm1,%xmm0
    6528:	66 0f 2f 05 68 f7 00 	comisd 0xf768(%rip),%xmm0        # 15c98 <l_232.4861+0xa8>
    652f:	00 
    6530:	0f 97 c0             	seta   %al
    6533:	83 f0 01             	xor    $0x1,%eax
    6536:	84 c0                	test   %al,%al
    6538:	74 0c                	je     6546 <safe_div_func_double_f_f+0x9f>
    653a:	f2 0f 10 45 f8       	movsd  -0x8(%rbp),%xmm0
    653f:	f2 0f 5e 45 f0       	divsd  -0x10(%rbp),%xmm0
    6544:	eb 05                	jmp    654b <safe_div_func_double_f_f+0xa4>
    6546:	f2 0f 10 45 f8       	movsd  -0x8(%rbp),%xmm0
    654b:	5d                   	pop    %rbp
    654c:	c3                   	retq   

000000000000654d <safe_convert_func_float_to_int32_t>:
    654d:	f3 0f 1e fa          	endbr64 
    6551:	55                   	push   %rbp
    6552:	48 89 e5             	mov    %rsp,%rbp
    6555:	f3 0f 11 45 fc       	movss  %xmm0,-0x4(%rbp)
    655a:	f3 0f 10 05 3e f7 00 	movss  0xf73e(%rip),%xmm0        # 15ca0 <l_232.4861+0xb0>
    6561:	00 
    6562:	0f 2f 45 fc          	comiss -0x4(%rbp),%xmm0
    6566:	0f 93 c0             	setae  %al
    6569:	83 f0 01             	xor    $0x1,%eax
    656c:	84 c0                	test   %al,%al
    656e:	74 21                	je     6591 <safe_convert_func_float_to_int32_t+0x44>
    6570:	f3 0f 10 45 fc       	movss  -0x4(%rbp),%xmm0
    6575:	0f 2f 05 28 f7 00 00 	comiss 0xf728(%rip),%xmm0        # 15ca4 <l_232.4861+0xb4>
    657c:	0f 93 c0             	setae  %al
    657f:	83 f0 01             	xor    $0x1,%eax
    6582:	84 c0                	test   %al,%al
    6584:	74 0b                	je     6591 <safe_convert_func_float_to_int32_t+0x44>
    6586:	f3 0f 10 45 fc       	movss  -0x4(%rbp),%xmm0
    658b:	f3 0f 2c c0          	cvttss2si %xmm0,%eax
    658f:	eb 05                	jmp    6596 <safe_convert_func_float_to_int32_t+0x49>
    6591:	b8 ff ff ff 7f       	mov    $0x7fffffff,%eax
    6596:	5d                   	pop    %rbp
    6597:	c3                   	retq   

0000000000006598 <crc32_gentab>:
    6598:	f3 0f 1e fa          	endbr64 
    659c:	55                   	push   %rbp
    659d:	48 89 e5             	mov    %rsp,%rbp
    65a0:	c7 45 fc 20 83 b8 ed 	movl   $0xedb88320,-0x4(%rbp)
    65a7:	c7 45 f4 00 00 00 00 	movl   $0x0,-0xc(%rbp)
    65ae:	eb 51                	jmp    6601 <crc32_gentab+0x69>
    65b0:	8b 45 f4             	mov    -0xc(%rbp),%eax
    65b3:	89 45 f0             	mov    %eax,-0x10(%rbp)
    65b6:	c7 45 f8 08 00 00 00 	movl   $0x8,-0x8(%rbp)
    65bd:	eb 1e                	jmp    65dd <crc32_gentab+0x45>
    65bf:	8b 45 f0             	mov    -0x10(%rbp),%eax
    65c2:	83 e0 01             	and    $0x1,%eax
    65c5:	85 c0                	test   %eax,%eax
    65c7:	74 0d                	je     65d6 <crc32_gentab+0x3e>
    65c9:	8b 45 f0             	mov    -0x10(%rbp),%eax
    65cc:	d1 e8                	shr    %eax
    65ce:	33 45 fc             	xor    -0x4(%rbp),%eax
    65d1:	89 45 f0             	mov    %eax,-0x10(%rbp)
    65d4:	eb 03                	jmp    65d9 <crc32_gentab+0x41>
    65d6:	d1 6d f0             	shrl   -0x10(%rbp)
    65d9:	83 6d f8 01          	subl   $0x1,-0x8(%rbp)
    65dd:	83 7d f8 00          	cmpl   $0x0,-0x8(%rbp)
    65e1:	7f dc                	jg     65bf <crc32_gentab+0x27>
    65e3:	8b 45 f4             	mov    -0xc(%rbp),%eax
    65e6:	48 98                	cltq   
    65e8:	48 8d 0c 85 00 00 00 	lea    0x0(,%rax,4),%rcx
    65ef:	00 
    65f0:	48 8d 15 89 56 01 00 	lea    0x15689(%rip),%rdx        # 1bc80 <crc32_tab>
    65f7:	8b 45 f0             	mov    -0x10(%rbp),%eax
    65fa:	89 04 11             	mov    %eax,(%rcx,%rdx,1)
    65fd:	83 45 f4 01          	addl   $0x1,-0xc(%rbp)
    6601:	81 7d f4 ff 00 00 00 	cmpl   $0xff,-0xc(%rbp)
    6608:	7e a6                	jle    65b0 <crc32_gentab+0x18>
    660a:	90                   	nop
    660b:	90                   	nop
    660c:	5d                   	pop    %rbp
    660d:	c3                   	retq   

000000000000660e <crc32_byte>:
    660e:	f3 0f 1e fa          	endbr64 
    6612:	55                   	push   %rbp
    6613:	48 89 e5             	mov    %rsp,%rbp
    6616:	89 f8                	mov    %edi,%eax
    6618:	88 45 fc             	mov    %al,-0x4(%rbp)
    661b:	8b 05 ff 29 01 00    	mov    0x129ff(%rip),%eax        # 19020 <crc32_context>
    6621:	c1 e8 08             	shr    $0x8,%eax
    6624:	89 c1                	mov    %eax,%ecx
    6626:	0f b6 55 fc          	movzbl -0x4(%rbp),%edx
    662a:	8b 05 f0 29 01 00    	mov    0x129f0(%rip),%eax        # 19020 <crc32_context>
    6630:	31 d0                	xor    %edx,%eax
    6632:	0f b6 c0             	movzbl %al,%eax
    6635:	89 c0                	mov    %eax,%eax
    6637:	48 8d 14 85 00 00 00 	lea    0x0(,%rax,4),%rdx
    663e:	00 
    663f:	48 8d 05 3a 56 01 00 	lea    0x1563a(%rip),%rax        # 1bc80 <crc32_tab>
    6646:	8b 04 02             	mov    (%rdx,%rax,1),%eax
    6649:	31 c8                	xor    %ecx,%eax
    664b:	89 05 cf 29 01 00    	mov    %eax,0x129cf(%rip)        # 19020 <crc32_context>
    6651:	90                   	nop
    6652:	5d                   	pop    %rbp
    6653:	c3                   	retq   

0000000000006654 <crc32_8bytes>:
    6654:	f3 0f 1e fa          	endbr64 
    6658:	55                   	push   %rbp
    6659:	48 89 e5             	mov    %rsp,%rbp
    665c:	48 83 ec 08          	sub    $0x8,%rsp
    6660:	48 89 7d f8          	mov    %rdi,-0x8(%rbp)
    6664:	48 8b 45 f8          	mov    -0x8(%rbp),%rax
    6668:	0f b6 c0             	movzbl %al,%eax
    666b:	89 c7                	mov    %eax,%edi
    666d:	e8 9c ff ff ff       	callq  660e <crc32_byte>
    6672:	48 8b 45 f8          	mov    -0x8(%rbp),%rax
    6676:	48 c1 e8 08          	shr    $0x8,%rax
    667a:	0f b6 c0             	movzbl %al,%eax
    667d:	89 c7                	mov    %eax,%edi
    667f:	e8 8a ff ff ff       	callq  660e <crc32_byte>
    6684:	48 8b 45 f8          	mov    -0x8(%rbp),%rax
    6688:	48 c1 e8 10          	shr    $0x10,%rax
    668c:	0f b6 c0             	movzbl %al,%eax
    668f:	89 c7                	mov    %eax,%edi
    6691:	e8 78 ff ff ff       	callq  660e <crc32_byte>
    6696:	48 8b 45 f8          	mov    -0x8(%rbp),%rax
    669a:	48 c1 e8 18          	shr    $0x18,%rax
    669e:	0f b6 c0             	movzbl %al,%eax
    66a1:	89 c7                	mov    %eax,%edi
    66a3:	e8 66 ff ff ff       	callq  660e <crc32_byte>
    66a8:	48 8b 45 f8          	mov    -0x8(%rbp),%rax
    66ac:	48 c1 e8 20          	shr    $0x20,%rax
    66b0:	0f b6 c0             	movzbl %al,%eax
    66b3:	89 c7                	mov    %eax,%edi
    66b5:	e8 54 ff ff ff       	callq  660e <crc32_byte>
    66ba:	48 8b 45 f8          	mov    -0x8(%rbp),%rax
    66be:	48 c1 e8 28          	shr    $0x28,%rax
    66c2:	0f b6 c0             	movzbl %al,%eax
    66c5:	89 c7                	mov    %eax,%edi
    66c7:	e8 42 ff ff ff       	callq  660e <crc32_byte>
    66cc:	48 8b 45 f8          	mov    -0x8(%rbp),%rax
    66d0:	48 c1 e8 30          	shr    $0x30,%rax
    66d4:	0f b6 c0             	movzbl %al,%eax
    66d7:	89 c7                	mov    %eax,%edi
    66d9:	e8 30 ff ff ff       	callq  660e <crc32_byte>
    66de:	48 8b 45 f8          	mov    -0x8(%rbp),%rax
    66e2:	48 c1 e8 38          	shr    $0x38,%rax
    66e6:	0f b6 c0             	movzbl %al,%eax
    66e9:	89 c7                	mov    %eax,%edi
    66eb:	e8 1e ff ff ff       	callq  660e <crc32_byte>
    66f0:	90                   	nop
    66f1:	c9                   	leaveq 
    66f2:	c3                   	retq   

00000000000066f3 <transparent_crc>:
    66f3:	f3 0f 1e fa          	endbr64 
    66f7:	55                   	push   %rbp
    66f8:	48 89 e5             	mov    %rsp,%rbp
    66fb:	48 83 ec 20          	sub    $0x20,%rsp
    66ff:	48 89 7d f8          	mov    %rdi,-0x8(%rbp)
    6703:	48 89 75 f0          	mov    %rsi,-0x10(%rbp)
    6707:	89 55 ec             	mov    %edx,-0x14(%rbp)
    670a:	48 8b 45 f8          	mov    -0x8(%rbp),%rax
    670e:	48 89 c7             	mov    %rax,%rdi
    6711:	e8 3e ff ff ff       	callq  6654 <crc32_8bytes>
    6716:	83 7d ec 00          	cmpl   $0x0,-0x14(%rbp)
    671a:	74 22                	je     673e <transparent_crc+0x4b>
    671c:	8b 05 fe 28 01 00    	mov    0x128fe(%rip),%eax        # 19020 <crc32_context>
    6722:	f7 d0                	not    %eax
    6724:	89 c2                	mov    %eax,%edx
    6726:	48 8b 45 f0          	mov    -0x10(%rbp),%rax
    672a:	48 89 c6             	mov    %rax,%rsi
    672d:	48 8d 3d fc d8 00 00 	lea    0xd8fc(%rip),%rdi        # 14030 <_IO_stdin_used+0x30>
    6734:	b8 00 00 00 00       	mov    $0x0,%eax
    6739:	e8 42 e9 ff ff       	callq  5080 <printf@plt>
    673e:	90                   	nop
    673f:	c9                   	leaveq 
    6740:	c3                   	retq   

0000000000006741 <transparent_crc_bytes>:
    6741:	f3 0f 1e fa          	endbr64 
    6745:	55                   	push   %rbp
    6746:	48 89 e5             	mov    %rsp,%rbp
    6749:	48 83 ec 30          	sub    $0x30,%rsp
    674d:	48 89 7d e8          	mov    %rdi,-0x18(%rbp)
    6751:	89 75 e4             	mov    %esi,-0x1c(%rbp)
    6754:	48 89 55 d8          	mov    %rdx,-0x28(%rbp)
    6758:	89 4d e0             	mov    %ecx,-0x20(%rbp)
    675b:	c7 45 fc 00 00 00 00 	movl   $0x0,-0x4(%rbp)
    6762:	eb 1e                	jmp    6782 <transparent_crc_bytes+0x41>
    6764:	8b 45 fc             	mov    -0x4(%rbp),%eax
    6767:	48 63 d0             	movslq %eax,%rdx
    676a:	48 8b 45 e8          	mov    -0x18(%rbp),%rax
    676e:	48 01 d0             	add    %rdx,%rax
    6771:	0f b6 00             	movzbl (%rax),%eax
    6774:	0f b6 c0             	movzbl %al,%eax
    6777:	89 c7                	mov    %eax,%edi
    6779:	e8 90 fe ff ff       	callq  660e <crc32_byte>
    677e:	83 45 fc 01          	addl   $0x1,-0x4(%rbp)
    6782:	8b 45 fc             	mov    -0x4(%rbp),%eax
    6785:	3b 45 e4             	cmp    -0x1c(%rbp),%eax
    6788:	7c da                	jl     6764 <transparent_crc_bytes+0x23>
    678a:	83 7d e0 00          	cmpl   $0x0,-0x20(%rbp)
    678e:	74 22                	je     67b2 <transparent_crc_bytes+0x71>
    6790:	8b 05 8a 28 01 00    	mov    0x1288a(%rip),%eax        # 19020 <crc32_context>
    6796:	f7 d0                	not    %eax
    6798:	89 c2                	mov    %eax,%edx
    679a:	48 8b 45 d8          	mov    -0x28(%rbp),%rax
    679e:	48 89 c6             	mov    %rax,%rsi
    67a1:	48 8d 3d 88 d8 00 00 	lea    0xd888(%rip),%rdi        # 14030 <_IO_stdin_used+0x30>
    67a8:	b8 00 00 00 00       	mov    $0x0,%eax
    67ad:	e8 ce e8 ff ff       	callq  5080 <printf@plt>
    67b2:	90                   	nop
    67b3:	c9                   	leaveq 
    67b4:	c3                   	retq   

00000000000067b5 <func_1>:
    67b5:	f3 0f 1e fa          	endbr64 
    67b9:	55                   	push   %rbp
    67ba:	48 89 e5             	mov    %rsp,%rbp
    67bd:	41 57                	push   %r15
    67bf:	41 56                	push   %r14
    67c1:	41 55                	push   %r13
    67c3:	41 54                	push   %r12
    67c5:	53                   	push   %rbx
    67c6:	48 81 ec 00 10 00 00 	sub    $0x1000,%rsp
    67cd:	48 83 0c 24 00       	orq    $0x0,(%rsp)
    67d2:	48 81 ec 18 03 00 00 	sub    $0x318,%rsp
    67d9:	64 48 8b 04 25 28 00 	mov    %fs:0x28,%rax
    67e0:	00 00 
    67e2:	48 89 45 c8          	mov    %rax,-0x38(%rbp)
    67e6:	31 c0                	xor    %eax,%eax
    67e8:	c7 85 e8 ec ff ff 75 	movl   $0xadb6e275,-0x1318(%rbp)
    67ef:	e2 b6 ad 
    67f2:	48 b8 01 ff 01 ff 01 	movabs $0xff01ff01ff01ff01,%rax
    67f9:	ff 01 ff 
    67fc:	48 89 45 be          	mov    %rax,-0x42(%rbp)
    6800:	66 c7 45 c6 01 ff    	movw   $0xff01,-0x3a(%rbp)
    6806:	48 c7 85 30 ef ff ff 	movq   $0x0,-0x10d0(%rbp)
    680d:	00 00 00 00 
    6811:	48 8d 85 00 f0 ff ff 	lea    -0x1000(%rbp),%rax
    6818:	48 83 c0 20          	add    $0x20,%rax
    681c:	48 89 85 38 ef ff ff 	mov    %rax,-0x10c8(%rbp)
    6823:	48 c7 85 40 ef ff ff 	movq   $0x0,-0x10c0(%rbp)
    682a:	00 00 00 00 
    682e:	48 8d 85 00 f0 ff ff 	lea    -0x1000(%rbp),%rax
    6835:	48 83 c0 20          	add    $0x20,%rax
    6839:	48 89 85 48 ef ff ff 	mov    %rax,-0x10b8(%rbp)
    6840:	48 c7 85 50 ef ff ff 	movq   $0x0,-0x10b0(%rbp)
    6847:	00 00 00 00 
    684b:	48 8d 85 00 f0 ff ff 	lea    -0x1000(%rbp),%rax
    6852:	48 83 c0 20          	add    $0x20,%rax
    6856:	48 89 85 58 ef ff ff 	mov    %rax,-0x10a8(%rbp)
    685d:	48 c7 85 60 ef ff ff 	movq   $0x0,-0x10a0(%rbp)
    6864:	00 00 00 00 
    6868:	48 8d 85 00 f0 ff ff 	lea    -0x1000(%rbp),%rax
    686f:	48 83 c0 20          	add    $0x20,%rax
    6873:	48 89 85 68 ef ff ff 	mov    %rax,-0x1098(%rbp)
    687a:	66 c7 85 e0 ec ff ff 	movw   $0x0,-0x1320(%rbp)
    6881:	00 00 
    6883:	48 8d 05 7e 4c 01 00 	lea    0x14c7e(%rip),%rax        # 1b508 <g_284+0x28>
    688a:	48 89 85 60 ed ff ff 	mov    %rax,-0x12a0(%rbp)
    6891:	66 c7 85 e2 ec ff ff 	movw   $0xf7c6,-0x131e(%rbp)
    6898:	c6 f7 
    689a:	48 8d 05 db 2a 01 00 	lea    0x12adb(%rip),%rax        # 1937c <g_645+0x3c>
    68a1:	48 89 85 d0 ee ff ff 	mov    %rax,-0x1130(%rbp)
    68a8:	48 8d 05 bd 2a 01 00 	lea    0x12abd(%rip),%rax        # 1936c <g_645+0x2c>
    68af:	48 89 85 d8 ee ff ff 	mov    %rax,-0x1128(%rbp)
    68b6:	48 8d 05 bf 2a 01 00 	lea    0x12abf(%rip),%rax        # 1937c <g_645+0x3c>
    68bd:	48 89 85 e0 ee ff ff 	mov    %rax,-0x1120(%rbp)
    68c4:	48 8d 05 b1 2a 01 00 	lea    0x12ab1(%rip),%rax        # 1937c <g_645+0x3c>
    68cb:	48 89 85 e8 ee ff ff 	mov    %rax,-0x1118(%rbp)
    68d2:	48 8d 05 93 2a 01 00 	lea    0x12a93(%rip),%rax        # 1936c <g_645+0x2c>
    68d9:	48 89 85 f0 ee ff ff 	mov    %rax,-0x1110(%rbp)
    68e0:	48 8d 05 95 2a 01 00 	lea    0x12a95(%rip),%rax        # 1937c <g_645+0x3c>
    68e7:	48 89 85 f8 ee ff ff 	mov    %rax,-0x1108(%rbp)
    68ee:	48 8d 85 30 f8 ff ff 	lea    -0x7d0(%rbp),%rax
    68f5:	48 8d 15 64 d9 00 00 	lea    0xd964(%rip),%rdx        # 14260 <g_151+0x200>
    68fc:	b9 f0 00 00 00       	mov    $0xf0,%ecx
    6901:	48 89 c7             	mov    %rax,%rdi
    6904:	48 89 d6             	mov    %rdx,%rsi
    6907:	f3 48 a5             	rep movsq %ds:(%rsi),%es:(%rdi)
    690a:	c6 85 d8 ec ff ff e8 	movb   $0xe8,-0x1328(%rbp)
    6911:	66 c7 85 f0 f0 ff ff 	movw   $0xae,-0xf10(%rbp)
    6918:	ae 00 
    691a:	c6 85 f2 f0 ff ff 02 	movb   $0x2,-0xf0e(%rbp)
    6921:	66 c7 85 f3 f0 ff ff 	movw   $0xffdf,-0xf0d(%rbp)
    6928:	df ff 
    692a:	c6 85 f5 f0 ff ff 08 	movb   $0x8,-0xf0b(%rbp)
    6931:	66 c7 85 f6 f0 ff ff 	movw   $0xff00,-0xf0a(%rbp)
    6938:	00 ff 
    693a:	c6 85 f8 f0 ff ff 07 	movb   $0x7,-0xf08(%rbp)
    6941:	66 c7 85 f9 f0 ff ff 	movw   $0x8a,-0xf07(%rbp)
    6948:	8a 00 
    694a:	c6 85 fb f0 ff ff 8a 	movb   $0x8a,-0xf05(%rbp)
    6951:	66 c7 85 fc f0 ff ff 	movw   $0x3400,-0xf04(%rbp)
    6958:	00 34 
    695a:	c6 85 fe f0 ff ff ff 	movb   $0xff,-0xf02(%rbp)
    6961:	66 c7 85 ff f0 ff ff 	movw   $0x34f,-0xf01(%rbp)
    6968:	4f 03 
    696a:	c6 85 01 f1 ff ff 01 	movb   $0x1,-0xeff(%rbp)
    6971:	66 c7 85 02 f1 ff ff 	movw   $0xff,-0xefe(%rbp)
    6978:	ff 00 
    697a:	c6 85 04 f1 ff ff df 	movb   $0xdf,-0xefc(%rbp)
    6981:	66 c7 85 05 f1 ff ff 	movw   $0xe6ff,-0xefb(%rbp)
    6988:	ff e6 
    698a:	c6 85 07 f1 ff ff fd 	movb   $0xfd,-0xef9(%rbp)
    6991:	66 c7 85 08 f1 ff ff 	movw   $0x9ff,-0xef8(%rbp)
    6998:	ff 09 
    699a:	c6 85 0a f1 ff ff ae 	movb   $0xae,-0xef6(%rbp)
    69a1:	66 c7 85 0b f1 ff ff 	movw   $0x4f,-0xef5(%rbp)
    69a8:	4f 00 
    69aa:	c6 85 0d f1 ff ff 03 	movb   $0x3,-0xef3(%rbp)
    69b1:	66 c7 85 0e f1 ff ff 	movw   $0x200,-0xef2(%rbp)
    69b8:	00 02 
    69ba:	c6 85 10 f1 ff ff ff 	movb   $0xff,-0xef0(%rbp)
    69c1:	66 c7 85 11 f1 ff ff 	movw   $0x108a,-0xeef(%rbp)
    69c8:	8a 10 
    69ca:	c6 85 13 f1 ff ff 34 	movb   $0x34,-0xeed(%rbp)
    69d1:	66 c7 85 14 f1 ff ff 	movw   $0x100,-0xeec(%rbp)
    69d8:	00 01 
    69da:	c6 85 16 f1 ff ff 34 	movb   $0x34,-0xeea(%rbp)
    69e1:	66 c7 85 17 f1 ff ff 	movw   $0xffdf,-0xee9(%rbp)
    69e8:	df ff 
    69ea:	c6 85 19 f1 ff ff ff 	movb   $0xff,-0xee7(%rbp)
    69f1:	66 c7 85 1a f1 ff ff 	movw   $0xffae,-0xee6(%rbp)
    69f8:	ae ff 
    69fa:	c6 85 1c f1 ff ff 03 	movb   $0x3,-0xee4(%rbp)
    6a01:	66 c7 85 1d f1 ff ff 	movw   $0x0,-0xee3(%rbp)
    6a08:	00 00 
    6a0a:	c6 85 1f f1 ff ff ae 	movb   $0xae,-0xee1(%rbp)
    6a11:	66 c7 85 20 f1 ff ff 	movw   $0x5,-0xee0(%rbp)
    6a18:	05 00 
    6a1a:	c6 85 22 f1 ff ff fd 	movb   $0xfd,-0xede(%rbp)
    6a21:	66 c7 85 23 f1 ff ff 	movw   $0x83a,-0xedd(%rbp)
    6a28:	3a 08 
    6a2a:	c6 85 25 f1 ff ff df 	movb   $0xdf,-0xedb(%rbp)
    6a31:	66 c7 85 26 f1 ff ff 	movw   $0x10,-0xeda(%rbp)
    6a38:	10 00 
    6a3a:	c6 85 28 f1 ff ff 01 	movb   $0x1,-0xed8(%rbp)
    6a41:	66 c7 85 29 f1 ff ff 	movw   $0x0,-0xed7(%rbp)
    6a48:	00 00 
    6a4a:	c6 85 2b f1 ff ff ff 	movb   $0xff,-0xed5(%rbp)
    6a51:	66 c7 85 2c f1 ff ff 	movw   $0xff02,-0xed4(%rbp)
    6a58:	02 ff 
    6a5a:	c6 85 2e f1 ff ff 8a 	movb   $0x8a,-0xed2(%rbp)
    6a61:	66 c7 85 2f f1 ff ff 	movw   $0xff02,-0xed1(%rbp)
    6a68:	02 ff 
    6a6a:	c6 85 31 f1 ff ff 07 	movb   $0x7,-0xecf(%rbp)
    6a71:	66 c7 85 32 f1 ff ff 	movw   $0xff,-0xece(%rbp)
    6a78:	ff 00 
    6a7a:	c6 85 34 f1 ff ff fd 	movb   $0xfd,-0xecc(%rbp)
    6a81:	66 c7 85 35 f1 ff ff 	movw   $0xff09,-0xecb(%rbp)
    6a88:	09 ff 
    6a8a:	c6 85 37 f1 ff ff 01 	movb   $0x1,-0xec9(%rbp)
    6a91:	66 c7 85 38 f1 ff ff 	movw   $0x8888,-0xec8(%rbp)
    6a98:	88 88 
    6a9a:	c6 85 3a f1 ff ff 02 	movb   $0x2,-0xec6(%rbp)
    6aa1:	66 c7 85 3b f1 ff ff 	movw   $0x1001,-0xec5(%rbp)
    6aa8:	01 10 
    6aaa:	c6 85 3d f1 ff ff df 	movb   $0xdf,-0xec3(%rbp)
    6ab1:	66 c7 85 3e f1 ff ff 	movw   $0x208,-0xec2(%rbp)
    6ab8:	08 02 
    6aba:	c6 85 40 f1 ff ff 00 	movb   $0x0,-0xec0(%rbp)
    6ac1:	66 c7 85 41 f1 ff ff 	movw   $0xff,-0xebf(%rbp)
    6ac8:	ff 00 
    6aca:	c6 85 43 f1 ff ff ff 	movb   $0xff,-0xebd(%rbp)
    6ad1:	66 c7 85 44 f1 ff ff 	movw   $0x802,-0xebc(%rbp)
    6ad8:	02 08 
    6ada:	c6 85 46 f1 ff ff 00 	movb   $0x0,-0xeba(%rbp)
    6ae1:	66 c7 85 47 f1 ff ff 	movw   $0xfcf7,-0xeb9(%rbp)
    6ae8:	f7 fc 
    6aea:	c6 85 49 f1 ff ff df 	movb   $0xdf,-0xeb7(%rbp)
    6af1:	66 c7 85 4a f1 ff ff 	movw   $0xdf,-0xeb6(%rbp)
    6af8:	df 00 
    6afa:	c6 85 4c f1 ff ff 02 	movb   $0x2,-0xeb4(%rbp)
    6b01:	66 c7 85 4d f1 ff ff 	movw   $0xdf8c,-0xeb3(%rbp)
    6b08:	8c df 
    6b0a:	c6 85 4f f1 ff ff 01 	movb   $0x1,-0xeb1(%rbp)
    6b11:	66 c7 85 50 f1 ff ff 	movw   $0x7ff,-0xeb0(%rbp)
    6b18:	ff 07 
    6b1a:	c6 85 52 f1 ff ff fd 	movb   $0xfd,-0xeae(%rbp)
    6b21:	66 c7 85 53 f1 ff ff 	movw   $0x710,-0xead(%rbp)
    6b28:	10 07 
    6b2a:	c6 85 55 f1 ff ff 34 	movb   $0x34,-0xeab(%rbp)
    6b31:	66 c7 85 56 f1 ff ff 	movw   $0xdf05,-0xeaa(%rbp)
    6b38:	05 df 
    6b3a:	c6 85 58 f1 ff ff 05 	movb   $0x5,-0xea8(%rbp)
    6b41:	66 c7 85 59 f1 ff ff 	movw   $0x3,-0xea7(%rbp)
    6b48:	03 00 
    6b4a:	c6 85 5b f1 ff ff 07 	movb   $0x7,-0xea5(%rbp)
    6b51:	66 c7 85 e4 ec ff ff 	movw   $0x0,-0x131c(%rbp)
    6b58:	00 00 
    6b5a:	48 8d 05 cf 4f 01 00 	lea    0x14fcf(%rip),%rax        # 1bb30 <g_1867>
    6b61:	48 89 85 10 ed ff ff 	mov    %rax,-0x12f0(%rbp)
    6b68:	66 c7 85 60 f1 ff ff 	movw   $0x0,-0xea0(%rbp)
    6b6f:	00 00 
    6b71:	66 c7 85 62 f1 ff ff 	movw   $0xffff,-0xe9e(%rbp)
    6b78:	ff ff 
    6b7a:	66 c7 85 64 f1 ff ff 	movw   $0xfffa,-0xe9c(%rbp)
    6b81:	fa ff 
    6b83:	66 c7 85 66 f1 ff ff 	movw   $0x1,-0xe9a(%rbp)
    6b8a:	01 00 
    6b8c:	66 c7 85 68 f1 ff ff 	movw   $0xffff,-0xe98(%rbp)
    6b93:	ff ff 
    6b95:	66 c7 85 6a f1 ff ff 	movw   $0x1,-0xe96(%rbp)
    6b9c:	01 00 
    6b9e:	66 c7 85 6c f1 ff ff 	movw   $0xfffa,-0xe94(%rbp)
    6ba5:	fa ff 
    6ba7:	66 c7 85 6e f1 ff ff 	movw   $0xffff,-0xe92(%rbp)
    6bae:	ff ff 
    6bb0:	66 c7 85 70 f1 ff ff 	movw   $0x0,-0xe90(%rbp)
    6bb7:	00 00 
    6bb9:	66 c7 85 72 f1 ff ff 	movw   $0x0,-0xe8e(%rbp)
    6bc0:	00 00 
    6bc2:	66 c7 85 74 f1 ff ff 	movw   $0xfffe,-0xe8c(%rbp)
    6bc9:	fe ff 
    6bcb:	66 c7 85 76 f1 ff ff 	movw   $0x3103,-0xe8a(%rbp)
    6bd2:	03 31 
    6bd4:	66 c7 85 78 f1 ff ff 	movw   $0x46d1,-0xe88(%rbp)
    6bdb:	d1 46 
    6bdd:	66 c7 85 7a f1 ff ff 	movw   $0xffff,-0xe86(%rbp)
    6be4:	ff ff 
    6be6:	66 c7 85 7c f1 ff ff 	movw   $0xffff,-0xe84(%rbp)
    6bed:	ff ff 
    6bef:	66 c7 85 7e f1 ff ff 	movw   $0x46d1,-0xe82(%rbp)
    6bf6:	d1 46 
    6bf8:	66 c7 85 80 f1 ff ff 	movw   $0x3103,-0xe80(%rbp)
    6bff:	03 31 
    6c01:	66 c7 85 82 f1 ff ff 	movw   $0xfffe,-0xe7e(%rbp)
    6c08:	fe ff 
    6c0a:	66 c7 85 84 f1 ff ff 	movw   $0x46d1,-0xe7c(%rbp)
    6c11:	d1 46 
    6c13:	66 c7 85 86 f1 ff ff 	movw   $0xfffe,-0xe7a(%rbp)
    6c1a:	fe ff 
    6c1c:	66 c7 85 88 f1 ff ff 	movw   $0xffff,-0xe78(%rbp)
    6c23:	ff ff 
    6c25:	66 c7 85 8a f1 ff ff 	movw   $0xfffa,-0xe76(%rbp)
    6c2c:	fa ff 
    6c2e:	66 c7 85 8c f1 ff ff 	movw   $0x1,-0xe74(%rbp)
    6c35:	01 00 
    6c37:	66 c7 85 8e f1 ff ff 	movw   $0xffff,-0xe72(%rbp)
    6c3e:	ff ff 
    6c40:	66 c7 85 90 f1 ff ff 	movw   $0x1,-0xe70(%rbp)
    6c47:	01 00 
    6c49:	66 c7 85 92 f1 ff ff 	movw   $0xfffa,-0xe6e(%rbp)
    6c50:	fa ff 
    6c52:	66 c7 85 94 f1 ff ff 	movw   $0xffff,-0xe6c(%rbp)
    6c59:	ff ff 
    6c5b:	66 c7 85 96 f1 ff ff 	movw   $0x0,-0xe6a(%rbp)
    6c62:	00 00 
    6c64:	66 c7 85 98 f1 ff ff 	movw   $0x0,-0xe68(%rbp)
    6c6b:	00 00 
    6c6d:	66 c7 85 9a f1 ff ff 	movw   $0xffff,-0xe66(%rbp)
    6c74:	ff ff 
    6c76:	66 c7 85 9c f1 ff ff 	movw   $0x0,-0xe64(%rbp)
    6c7d:	00 00 
    6c7f:	66 c7 85 9e f1 ff ff 	movw   $0xfffe,-0xe62(%rbp)
    6c86:	fe ff 
    6c88:	66 c7 85 a0 f1 ff ff 	movw   $0x1,-0xe60(%rbp)
    6c8f:	01 00 
    6c91:	66 c7 85 a2 f1 ff ff 	movw   $0x1,-0xe5e(%rbp)
    6c98:	01 00 
    6c9a:	66 c7 85 a4 f1 ff ff 	movw   $0xfffe,-0xe5c(%rbp)
    6ca1:	fe ff 
    6ca3:	66 c7 85 a6 f1 ff ff 	movw   $0x0,-0xe5a(%rbp)
    6caa:	00 00 
    6cac:	66 c7 85 a8 f1 ff ff 	movw   $0xfffa,-0xe58(%rbp)
    6cb3:	fa ff 
    6cb5:	66 c7 85 aa f1 ff ff 	movw   $0xfffe,-0xe56(%rbp)
    6cbc:	fe ff 
    6cbe:	66 c7 85 ac f1 ff ff 	movw   $0xfffa,-0xe54(%rbp)
    6cc5:	fa ff 
    6cc7:	66 c7 85 ae f1 ff ff 	movw   $0x0,-0xe52(%rbp)
    6cce:	00 00 
    6cd0:	66 c7 85 b0 f1 ff ff 	movw   $0x3103,-0xe50(%rbp)
    6cd7:	03 31 
    6cd9:	66 c7 85 b2 f1 ff ff 	movw   $0xfffe,-0xe4e(%rbp)
    6ce0:	fe ff 
    6ce2:	66 c7 85 b4 f1 ff ff 	movw   $0x46d1,-0xe4c(%rbp)
    6ce9:	d1 46 
    6ceb:	66 c7 85 b6 f1 ff ff 	movw   $0xfffe,-0xe4a(%rbp)
    6cf2:	fe ff 
    6cf4:	66 c7 85 b8 f1 ff ff 	movw   $0x3103,-0xe48(%rbp)
    6cfb:	03 31 
    6cfd:	66 c7 85 ba f1 ff ff 	movw   $0x46d1,-0xe46(%rbp)
    6d04:	d1 46 
    6d06:	66 c7 85 bc f1 ff ff 	movw   $0xffff,-0xe44(%rbp)
    6d0d:	ff ff 
    6d0f:	66 c7 85 be f1 ff ff 	movw   $0xffff,-0xe42(%rbp)
    6d16:	ff ff 
    6d18:	66 c7 85 c0 f1 ff ff 	movw   $0x46d1,-0xe40(%rbp)
    6d1f:	d1 46 
    6d21:	66 c7 85 c2 f1 ff ff 	movw   $0x3103,-0xe3e(%rbp)
    6d28:	03 31 
    6d2a:	66 c7 85 c4 f1 ff ff 	movw   $0x3103,-0xe3c(%rbp)
    6d31:	03 31 
    6d33:	66 c7 85 c6 f1 ff ff 	movw   $0xfffa,-0xe3a(%rbp)
    6d3a:	fa ff 
    6d3c:	66 c7 85 c8 f1 ff ff 	movw   $0xfffa,-0xe38(%rbp)
    6d43:	fa ff 
    6d45:	66 c7 85 ca f1 ff ff 	movw   $0x3103,-0xe36(%rbp)
    6d4c:	03 31 
    6d4e:	66 c7 85 cc f1 ff ff 	movw   $0x1,-0xe34(%rbp)
    6d55:	01 00 
    6d57:	66 c7 85 ce f1 ff ff 	movw   $0x0,-0xe32(%rbp)
    6d5e:	00 00 
    6d60:	66 c7 85 d0 f1 ff ff 	movw   $0x3103,-0xe30(%rbp)
    6d67:	03 31 
    6d69:	66 c7 85 d2 f1 ff ff 	movw   $0x0,-0xe2e(%rbp)
    6d70:	00 00 
    6d72:	66 c7 85 d4 f1 ff ff 	movw   $0x1,-0xe2c(%rbp)
    6d79:	01 00 
    6d7b:	66 c7 85 d6 f1 ff ff 	movw   $0x3103,-0xe2a(%rbp)
    6d82:	03 31 
    6d84:	66 c7 85 d8 f1 ff ff 	movw   $0x0,-0xe28(%rbp)
    6d8b:	00 00 
    6d8d:	66 c7 85 da f1 ff ff 	movw   $0x3103,-0xe26(%rbp)
    6d94:	03 31 
    6d96:	66 c7 85 dc f1 ff ff 	movw   $0x0,-0xe24(%rbp)
    6d9d:	00 00 
    6d9f:	66 c7 85 de f1 ff ff 	movw   $0x1,-0xe22(%rbp)
    6da6:	01 00 
    6da8:	66 c7 85 e0 f1 ff ff 	movw   $0x3103,-0xe20(%rbp)
    6daf:	03 31 
    6db1:	66 c7 85 e2 f1 ff ff 	movw   $0xfffa,-0xe1e(%rbp)
    6db8:	fa ff 
    6dba:	66 c7 85 e4 f1 ff ff 	movw   $0xfffa,-0xe1c(%rbp)
    6dc1:	fa ff 
    6dc3:	66 c7 85 e6 f1 ff ff 	movw   $0x3103,-0xe1a(%rbp)
    6dca:	03 31 
    6dcc:	66 c7 85 e8 f1 ff ff 	movw   $0x1,-0xe18(%rbp)
    6dd3:	01 00 
    6dd5:	66 c7 85 ea f1 ff ff 	movw   $0x0,-0xe16(%rbp)
    6ddc:	00 00 
    6dde:	48 8d 05 33 46 01 00 	lea    0x14633(%rip),%rax        # 1b418 <g_169>
    6de5:	48 89 85 50 f0 ff ff 	mov    %rax,-0xfb0(%rbp)
    6dec:	48 8d 05 25 46 01 00 	lea    0x14625(%rip),%rax        # 1b418 <g_169>
    6df3:	48 89 85 58 f0 ff ff 	mov    %rax,-0xfa8(%rbp)
    6dfa:	48 8d 05 17 46 01 00 	lea    0x14617(%rip),%rax        # 1b418 <g_169>
    6e01:	48 89 85 60 f0 ff ff 	mov    %rax,-0xfa0(%rbp)
    6e08:	48 8d 05 09 46 01 00 	lea    0x14609(%rip),%rax        # 1b418 <g_169>
    6e0f:	48 89 85 68 f0 ff ff 	mov    %rax,-0xf98(%rbp)
    6e16:	48 8d 05 fb 45 01 00 	lea    0x145fb(%rip),%rax        # 1b418 <g_169>
    6e1d:	48 89 85 70 f0 ff ff 	mov    %rax,-0xf90(%rbp)
    6e24:	48 8d 05 ed 45 01 00 	lea    0x145ed(%rip),%rax        # 1b418 <g_169>
    6e2b:	48 89 85 78 f0 ff ff 	mov    %rax,-0xf88(%rbp)
    6e32:	48 8d 05 df 45 01 00 	lea    0x145df(%rip),%rax        # 1b418 <g_169>
    6e39:	48 89 85 80 f0 ff ff 	mov    %rax,-0xf80(%rbp)
    6e40:	48 8d 05 d1 45 01 00 	lea    0x145d1(%rip),%rax        # 1b418 <g_169>
    6e47:	48 89 85 88 f0 ff ff 	mov    %rax,-0xf78(%rbp)
    6e4e:	48 8d 05 c3 45 01 00 	lea    0x145c3(%rip),%rax        # 1b418 <g_169>
    6e55:	48 89 85 90 f0 ff ff 	mov    %rax,-0xf70(%rbp)
    6e5c:	48 8d 05 b5 45 01 00 	lea    0x145b5(%rip),%rax        # 1b418 <g_169>
    6e63:	48 89 85 98 f0 ff ff 	mov    %rax,-0xf68(%rbp)
    6e6a:	48 8d 85 50 f0 ff ff 	lea    -0xfb0(%rbp),%rax
    6e71:	48 89 85 b0 ef ff ff 	mov    %rax,-0x1050(%rbp)
    6e78:	48 8d 85 50 f0 ff ff 	lea    -0xfb0(%rbp),%rax
    6e7f:	48 83 c0 40          	add    $0x40,%rax
    6e83:	48 89 85 b8 ef ff ff 	mov    %rax,-0x1048(%rbp)
    6e8a:	48 8d 85 50 f0 ff ff 	lea    -0xfb0(%rbp),%rax
    6e91:	48 89 85 c0 ef ff ff 	mov    %rax,-0x1040(%rbp)
    6e98:	48 8d 85 50 f0 ff ff 	lea    -0xfb0(%rbp),%rax
    6e9f:	48 83 c0 40          	add    $0x40,%rax
    6ea3:	48 89 85 c8 ef ff ff 	mov    %rax,-0x1038(%rbp)
    6eaa:	48 8d 85 50 f0 ff ff 	lea    -0xfb0(%rbp),%rax
    6eb1:	48 89 85 d0 ef ff ff 	mov    %rax,-0x1030(%rbp)
    6eb8:	48 8d 85 50 f0 ff ff 	lea    -0xfb0(%rbp),%rax
    6ebf:	48 83 c0 40          	add    $0x40,%rax
    6ec3:	48 89 85 d8 ef ff ff 	mov    %rax,-0x1028(%rbp)
    6eca:	48 8d 85 50 f0 ff ff 	lea    -0xfb0(%rbp),%rax
    6ed1:	48 89 85 e0 ef ff ff 	mov    %rax,-0x1020(%rbp)
    6ed8:	48 8d 85 50 f0 ff ff 	lea    -0xfb0(%rbp),%rax
    6edf:	48 83 c0 40          	add    $0x40,%rax
    6ee3:	48 89 85 e8 ef ff ff 	mov    %rax,-0x1018(%rbp)
    6eea:	48 8d 85 50 f0 ff ff 	lea    -0xfb0(%rbp),%rax
    6ef1:	48 89 85 f0 ef ff ff 	mov    %rax,-0x1010(%rbp)
    6ef8:	48 8d 85 b0 ef ff ff 	lea    -0x1050(%rbp),%rax
    6eff:	48 83 c0 18          	add    $0x18,%rax
    6f03:	48 89 85 00 ef ff ff 	mov    %rax,-0x1100(%rbp)
    6f0a:	48 8d 85 b0 ef ff ff 	lea    -0x1050(%rbp),%rax
    6f11:	48 83 c0 18          	add    $0x18,%rax
    6f15:	48 89 85 08 ef ff ff 	mov    %rax,-0x10f8(%rbp)
    6f1c:	48 8d 85 b0 ef ff ff 	lea    -0x1050(%rbp),%rax
    6f23:	48 83 c0 18          	add    $0x18,%rax
    6f27:	48 89 85 10 ef ff ff 	mov    %rax,-0x10f0(%rbp)
    6f2e:	48 8d 85 b0 ef ff ff 	lea    -0x1050(%rbp),%rax
    6f35:	48 83 c0 18          	add    $0x18,%rax
    6f39:	48 89 85 18 ef ff ff 	mov    %rax,-0x10e8(%rbp)
    6f40:	48 8d 85 b0 ef ff ff 	lea    -0x1050(%rbp),%rax
    6f47:	48 83 c0 18          	add    $0x18,%rax
    6f4b:	48 89 85 20 ef ff ff 	mov    %rax,-0x10e0(%rbp)
    6f52:	48 8d 85 b0 ef ff ff 	lea    -0x1050(%rbp),%rax
    6f59:	48 83 c0 18          	add    $0x18,%rax
    6f5d:	48 89 85 28 ef ff ff 	mov    %rax,-0x10d8(%rbp)
    6f64:	48 c7 85 68 ed ff ff 	movq   $0xffffffffffffffff,-0x1298(%rbp)
    6f6b:	ff ff ff ff 
    6f6f:	c7 85 f0 ec ff ff 00 	movl   $0x0,-0x1310(%rbp)
    6f76:	00 00 00 
    6f79:	eb 14                	jmp    6f8f <func_1+0x7da>
    6f7b:	8b 85 f0 ec ff ff    	mov    -0x1310(%rbp),%eax
    6f81:	48 98                	cltq   
    6f83:	c6 44 05 bc 00       	movb   $0x0,-0x44(%rbp,%rax,1)
    6f88:	83 85 f0 ec ff ff 01 	addl   $0x1,-0x1310(%rbp)
    6f8f:	83 bd f0 ec ff ff 01 	cmpl   $0x1,-0x1310(%rbp)
    6f96:	7e e3                	jle    6f7b <func_1+0x7c6>
    6f98:	c7 85 f0 ec ff ff 00 	movl   $0x0,-0x1310(%rbp)
    6f9f:	00 00 00 
    6fa2:	eb 1e                	jmp    6fc2 <func_1+0x80d>
    6fa4:	8b 85 f0 ec ff ff    	mov    -0x1310(%rbp),%eax
    6faa:	48 98                	cltq   
    6fac:	48 8d 15 05 4b 01 00 	lea    0x14b05(%rip),%rdx        # 1bab8 <g_1633>
    6fb3:	48 89 94 c5 a0 ee ff 	mov    %rdx,-0x1160(%rbp,%rax,8)
    6fba:	ff 
    6fbb:	83 85 f0 ec ff ff 01 	addl   $0x1,-0x1310(%rbp)
    6fc2:	83 bd f0 ec ff ff 05 	cmpl   $0x5,-0x1310(%rbp)
    6fc9:	7e d9                	jle    6fa4 <func_1+0x7ef>
    6fcb:	c7 85 f0 ec ff ff 00 	movl   $0x0,-0x1310(%rbp)
    6fd2:	00 00 00 
    6fd5:	eb 1e                	jmp    6ff5 <func_1+0x840>
    6fd7:	8b 85 f0 ec ff ff    	mov    -0x1310(%rbp),%eax
    6fdd:	48 98                	cltq   
    6fdf:	48 8d 15 5e 28 01 00 	lea    0x1285e(%rip),%rdx        # 19844 <g_1678+0x4>
    6fe6:	48 89 94 c5 00 f0 ff 	mov    %rdx,-0x1000(%rbp,%rax,8)
    6fed:	ff 
    6fee:	83 85 f0 ec ff ff 01 	addl   $0x1,-0x1310(%rbp)
    6ff5:	83 bd f0 ec ff ff 09 	cmpl   $0x9,-0x1310(%rbp)
    6ffc:	7e d9                	jle    6fd7 <func_1+0x822>
    6ffe:	0f b6 45 bd          	movzbl -0x43(%rbp),%eax
    7002:	0f b6 c0             	movzbl %al,%eax
    7005:	89 c7                	mov    %eax,%edi
    7007:	e8 ef 2c 00 00       	callq  9cfb <func_2>
    700c:	85 c0                	test   %eax,%eax
    700e:	0f 84 ca 1b 00 00    	je     8bde <func_1+0x2429>
    7014:	48 b8 7d e1 4f 7c ae 	movabs $0xb96ec4ae7c4fe17d,%rax
    701b:	c4 6e b9 
    701e:	48 89 85 70 ed ff ff 	mov    %rax,-0x1290(%rbp)
    7025:	48 8d 05 7c 50 01 00 	lea    0x1507c(%rip),%rax        # 1c0a8 <g_854>
    702c:	48 89 85 18 ed ff ff 	mov    %rax,-0x12e8(%rbp)
    7033:	48 8d 85 18 ed ff ff 	lea    -0x12e8(%rbp),%rax
    703a:	48 89 85 20 ed ff ff 	mov    %rax,-0x12e0(%rbp)
    7041:	48 8d 85 20 ed ff ff 	lea    -0x12e0(%rbp),%rax
    7048:	48 89 85 a0 f0 ff ff 	mov    %rax,-0xf60(%rbp)
    704f:	48 c7 85 a8 f0 ff ff 	movq   $0x0,-0xf58(%rbp)
    7056:	00 00 00 00 
    705a:	48 8d 85 20 ed ff ff 	lea    -0x12e0(%rbp),%rax
    7061:	48 89 85 b0 f0 ff ff 	mov    %rax,-0xf50(%rbp)
    7068:	48 8d 85 20 ed ff ff 	lea    -0x12e0(%rbp),%rax
    706f:	48 89 85 b8 f0 ff ff 	mov    %rax,-0xf48(%rbp)
    7076:	48 8d 85 20 ed ff ff 	lea    -0x12e0(%rbp),%rax
    707d:	48 89 85 c0 f0 ff ff 	mov    %rax,-0xf40(%rbp)
    7084:	48 8d 85 20 ed ff ff 	lea    -0x12e0(%rbp),%rax
    708b:	48 89 85 c8 f0 ff ff 	mov    %rax,-0xf38(%rbp)
    7092:	48 c7 85 d0 f0 ff ff 	movq   $0x0,-0xf30(%rbp)
    7099:	00 00 00 00 
    709d:	48 8d 85 20 ed ff ff 	lea    -0x12e0(%rbp),%rax
    70a4:	48 89 85 d8 f0 ff ff 	mov    %rax,-0xf28(%rbp)
    70ab:	48 8d 85 20 ed ff ff 	lea    -0x12e0(%rbp),%rax
    70b2:	48 89 85 e0 f0 ff ff 	mov    %rax,-0xf20(%rbp)
    70b9:	48 8d 85 20 ed ff ff 	lea    -0x12e0(%rbp),%rax
    70c0:	48 89 85 e8 f0 ff ff 	mov    %rax,-0xf18(%rbp)
    70c7:	48 c7 85 28 ed ff ff 	movq   $0x0,-0x12d8(%rbp)
    70ce:	00 00 00 00 
    70d2:	c7 85 08 ed ff ff 0e 	movl   $0x6e4d920e,-0x12f8(%rbp)
    70d9:	92 4d 6e 
    70dc:	c7 85 50 ee ff ff 00 	movl   $0x0,-0x11b0(%rbp)
    70e3:	00 00 00 
    70e6:	c7 85 54 ee ff ff 00 	movl   $0x0,-0x11ac(%rbp)
    70ed:	00 00 00 
    70f0:	c7 85 58 ee ff ff 00 	movl   $0x0,-0x11a8(%rbp)
    70f7:	00 00 00 
    70fa:	c7 85 5c ee ff ff 00 	movl   $0x0,-0x11a4(%rbp)
    7101:	00 00 00 
    7104:	c7 85 60 ee ff ff 00 	movl   $0x0,-0x11a0(%rbp)
    710b:	00 00 00 
    710e:	c7 85 64 ee ff ff 00 	movl   $0x0,-0x119c(%rbp)
    7115:	00 00 00 
    7118:	48 b8 59 35 2f 3d f4 	movabs $0x3794e6f43d2f3559,%rax
    711f:	e6 94 37 
    7122:	48 89 85 78 ed ff ff 	mov    %rax,-0x1288(%rbp)
    7129:	c6 05 d6 21 01 00 00 	movb   $0x0,0x121d6(%rip)        # 19306 <g_170>
    7130:	e9 95 1a 00 00       	jmpq   8bca <func_1+0x2415>
    7135:	66 c7 85 de ec ff ff 	movw   $0x8c03,-0x1322(%rbp)
    713c:	03 8c 
    713e:	48 c7 85 30 ed ff ff 	movq   $0x0,-0x12d0(%rbp)
    7145:	00 00 00 00 
    7149:	48 8d 05 88 4a 01 00 	lea    0x14a88(%rip),%rax        # 1bbd8 <g_2112>
    7150:	48 89 85 80 ed ff ff 	mov    %rax,-0x1280(%rbp)
    7157:	c7 85 ec ec ff ff ff 	movl   $0xffffffff,-0x1314(%rbp)
    715e:	ff ff ff 
    7161:	48 8d 05 50 49 01 00 	lea    0x14950(%rip),%rax        # 1bab8 <g_1633>
    7168:	48 89 85 88 ed ff ff 	mov    %rax,-0x1278(%rbp)
    716f:	c6 85 da ec ff ff fb 	movb   $0xfb,-0x1326(%rbp)
    7176:	48 8d 05 63 21 01 00 	lea    0x12163(%rip),%rax        # 192e0 <g_79>
    717d:	48 89 85 90 ed ff ff 	mov    %rax,-0x1270(%rbp)
    7184:	66 c7 85 42 ee ff ff 	movw   $0xffff,-0x11be(%rbp)
    718b:	ff ff 
    718d:	66 c7 85 44 ee ff ff 	movw   $0xffff,-0x11bc(%rbp)
    7194:	ff ff 
    7196:	66 c7 85 46 ee ff ff 	movw   $0xffff,-0x11ba(%rbp)
    719d:	ff ff 
    719f:	66 c7 85 48 ee ff ff 	movw   $0xffff,-0x11b8(%rbp)
    71a6:	ff ff 
    71a8:	66 c7 85 4a ee ff ff 	movw   $0xffff,-0x11b6(%rbp)
    71af:	ff ff 
    71b1:	66 c7 85 4c ee ff ff 	movw   $0xffff,-0x11b4(%rbp)
    71b8:	ff ff 
    71ba:	66 c7 85 4e ee ff ff 	movw   $0xffff,-0x11b2(%rbp)
    71c1:	ff ff 
    71c3:	48 8b 85 70 ed ff ff 	mov    -0x1290(%rbp),%rax
    71ca:	41 89 c4             	mov    %eax,%r12d
    71cd:	48 8b 05 dc 48 01 00 	mov    0x148dc(%rip),%rax        # 1bab0 <g_1501>
    71d4:	48 8b 00             	mov    (%rax),%rax
    71d7:	48 8b 00             	mov    (%rax),%rax
    71da:	48 8b 10             	mov    (%rax),%rdx
    71dd:	48 8b 05 b4 48 01 00 	mov    0x148b4(%rip),%rax        # 1ba98 <g_1504>
    71e4:	0f b7 12             	movzwl (%rdx),%edx
    71e7:	66 89 10             	mov    %dx,(%rax)
    71ea:	0f b7 00             	movzwl (%rax),%eax
    71ed:	0f b7 c0             	movzwl %ax,%eax
    71f0:	89 c6                	mov    %eax,%esi
    71f2:	bf 92 67 00 00       	mov    $0x6792,%edi
    71f7:	e8 03 eb ff ff       	callq  5cff <safe_add_func_uint16_t_u_u>
    71fc:	0f b7 d0             	movzwl %ax,%edx
    71ff:	8b 85 e8 ec ff ff    	mov    -0x1318(%rbp),%eax
    7205:	31 d0                	xor    %edx,%eax
    7207:	89 85 e8 ec ff ff    	mov    %eax,-0x1318(%rbp)
    720d:	8b 95 e8 ec ff ff    	mov    -0x1318(%rbp),%edx
    7213:	48 8b 05 fe 41 01 00 	mov    0x141fe(%rip),%rax        # 1b418 <g_169>
    721a:	0f b6 00             	movzbl (%rax),%eax
    721d:	0f be c0             	movsbl %al,%eax
    7220:	21 d0                	and    %edx,%eax
    7222:	89 c6                	mov    %eax,%esi
    7224:	bf 7e a8 00 00       	mov    $0xa87e,%edi
    7229:	e8 d8 eb ff ff       	callq  5e06 <safe_lshift_func_uint16_t_u_u>
    722e:	0f b7 d8             	movzwl %ax,%ebx
    7231:	48 8b 85 70 ed ff ff 	mov    -0x1290(%rbp),%rax
    7238:	89 c6                	mov    %eax,%esi
    723a:	bf fd ff ff ff       	mov    $0xfffffffd,%edi
    723f:	e8 9d e2 ff ff       	callq  54e1 <safe_lshift_func_int16_t_s_u>
    7244:	48 0f bf c0          	movswq %ax,%rax
    7248:	48 be 72 6e 0d bf 12 	movabs $0x1050bf12bf0d6e72,%rsi
    724f:	bf 50 10 
    7252:	48 89 c7             	mov    %rax,%rdi
    7255:	e8 5a e7 ff ff       	callq  59b4 <safe_mod_func_int64_t_s_s>
    725a:	48 3d fe 00 00 00    	cmp    $0xfe,%rax
    7260:	0f 96 c0             	setbe  %al
    7263:	0f b6 c0             	movzbl %al,%eax
    7266:	39 c3                	cmp    %eax,%ebx
    7268:	0f 9f c0             	setg   %al
    726b:	0f b6 d0             	movzbl %al,%edx
    726e:	0f b7 85 de ec ff ff 	movzwl -0x1322(%rbp),%eax
    7275:	0f b7 c0             	movzwl %ax,%eax
    7278:	39 c2                	cmp    %eax,%edx
    727a:	0f 9d c0             	setge  %al
    727d:	0f b6 c0             	movzbl %al,%eax
    7280:	44 89 e6             	mov    %r12d,%esi
    7283:	89 c7                	mov    %eax,%edi
    7285:	e8 75 e4 ff ff       	callq  56ff <safe_div_func_int32_t_s_s>
    728a:	48 98                	cltq   
    728c:	48 39 85 70 ed ff ff 	cmp    %rax,-0x1290(%rbp)
    7293:	0f 9d c0             	setge  %al
    7296:	0f b6 d0             	movzbl %al,%edx
    7299:	8b 05 e9 4d 01 00    	mov    0x14de9(%rip),%eax        # 1c088 <g_62>
    729f:	09 d0                	or     %edx,%eax
    72a1:	89 05 e1 4d 01 00    	mov    %eax,0x14de1(%rip)        # 1c088 <g_62>
    72a7:	48 8b 05 12 23 01 00 	mov    0x12312(%rip),%rax        # 195c0 <g_1210>
    72ae:	89 c3                	mov    %eax,%ebx
    72b0:	48 8b 05 c1 42 01 00 	mov    0x142c1(%rip),%rax        # 1b578 <g_638>
    72b7:	48 8b 00             	mov    (%rax),%rax
    72ba:	48 85 c0             	test   %rax,%rax
    72bd:	75 5d                	jne    731c <func_1+0xb67>
    72bf:	48 83 bd 70 ed ff ff 	cmpq   $0x0,-0x1290(%rbp)
    72c6:	00 
    72c7:	74 33                	je     72fc <func_1+0xb47>
    72c9:	48 8b 85 80 ed ff ff 	mov    -0x1280(%rbp),%rax
    72d0:	48 89 85 c8 f0 ff ff 	mov    %rax,-0xf38(%rbp)
    72d7:	48 8b 85 c8 f0 ff ff 	mov    -0xf38(%rbp),%rax
    72de:	48 8d 15 e3 48 01 00 	lea    0x148e3(%rip),%rdx        # 1bbc8 <g_1909>
    72e5:	48 39 d0             	cmp    %rdx,%rax
    72e8:	0f 95 c0             	setne  %al
    72eb:	0f b6 c0             	movzbl %al,%eax
    72ee:	be 01 00 00 00       	mov    $0x1,%esi
    72f3:	89 c7                	mov    %eax,%edi
    72f5:	e8 c4 e9 ff ff       	callq  5cbe <safe_rshift_func_uint8_t_u_u>
    72fa:	84 c0                	test   %al,%al
    72fc:	be 03 00 00 00       	mov    $0x3,%esi
    7301:	bf 00 00 00 00       	mov    $0x0,%edi
    7306:	e8 2a e0 ff ff       	callq  5335 <safe_rshift_func_int8_t_s_s>
    730b:	48 83 bd 70 ed ff ff 	cmpq   $0x0,-0x1290(%rbp)
    7312:	00 
    7313:	74 07                	je     731c <func_1+0xb67>
    7315:	b8 01 00 00 00       	mov    $0x1,%eax
    731a:	eb 05                	jmp    7321 <func_1+0xb6c>
    731c:	b8 00 00 00 00       	mov    $0x0,%eax
    7321:	89 c6                	mov    %eax,%esi
    7323:	bf f9 9d 00 00       	mov    $0x9df9,%edi
    7328:	e8 1b eb ff ff       	callq  5e48 <safe_rshift_func_uint16_t_u_s>
    732d:	48 8b 05 4c 47 01 00 	mov    0x1474c(%rip),%rax        # 1ba80 <g_1414>
    7334:	48 8b 00             	mov    (%rax),%rax
    7337:	8b 00                	mov    (%rax),%eax
    7339:	89 de                	mov    %ebx,%esi
    733b:	89 c7                	mov    %eax,%edi
    733d:	e8 76 eb ff ff       	callq  5eb8 <safe_add_func_uint32_t_u_u>
    7342:	98                   	cwtl   
    7343:	be 20 09 00 00       	mov    $0x920,%esi
    7348:	89 c7                	mov    %eax,%edi
    734a:	e8 a6 e0 ff ff       	callq  53f5 <safe_mul_func_int16_t_s_s>
    734f:	66 85 c0             	test   %ax,%ax
    7352:	0f 9e c0             	setle  %al
    7355:	0f b6 d0             	movzbl %al,%edx
    7358:	48 8b 05 41 47 01 00 	mov    0x14741(%rip),%rax        # 1baa0 <g_1503>
    735f:	48 8b 00             	mov    (%rax),%rax
    7362:	0f b7 08             	movzwl (%rax),%ecx
    7365:	83 c1 01             	add    $0x1,%ecx
    7368:	66 89 08             	mov    %cx,(%rax)
    736b:	0f b7 00             	movzwl (%rax),%eax
    736e:	0f b7 c0             	movzwl %ax,%eax
    7371:	89 d6                	mov    %edx,%esi
    7373:	89 c7                	mov    %eax,%edi
    7375:	e8 8c ea ff ff       	callq  5e06 <safe_lshift_func_uint16_t_u_u>
    737a:	66 85 c0             	test   %ax,%ax
    737d:	0f 84 d2 0a 00 00    	je     7e55 <func_1+0x16a0>
    7383:	48 c7 85 f0 f1 ff ff 	movq   $0x0,-0xe10(%rbp)
    738a:	00 00 00 00 
    738e:	48 8d 85 e8 ec ff ff 	lea    -0x1318(%rbp),%rax
    7395:	48 89 85 f8 f1 ff ff 	mov    %rax,-0xe08(%rbp)
    739c:	48 c7 85 00 f2 ff ff 	movq   $0x0,-0xe00(%rbp)
    73a3:	00 00 00 00 
    73a7:	48 8d 05 42 20 01 00 	lea    0x12042(%rip),%rax        # 193f0 <g_645+0xb0>
    73ae:	48 89 85 08 f2 ff ff 	mov    %rax,-0xdf8(%rbp)
    73b5:	48 8d 05 34 20 01 00 	lea    0x12034(%rip),%rax        # 193f0 <g_645+0xb0>
    73bc:	48 89 85 10 f2 ff ff 	mov    %rax,-0xdf0(%rbp)
    73c3:	48 c7 85 18 f2 ff ff 	movq   $0x0,-0xde8(%rbp)
    73ca:	00 00 00 00 
    73ce:	48 8d 85 e8 ec ff ff 	lea    -0x1318(%rbp),%rax
    73d5:	48 89 85 20 f2 ff ff 	mov    %rax,-0xde0(%rbp)
    73dc:	48 c7 85 28 f2 ff ff 	movq   $0x0,-0xdd8(%rbp)
    73e3:	00 00 00 00 
    73e7:	48 8d 05 52 1c 01 00 	lea    0x11c52(%rip),%rax        # 19040 <g_8>
    73ee:	48 89 85 30 f2 ff ff 	mov    %rax,-0xdd0(%rbp)
    73f5:	48 8d 05 64 20 01 00 	lea    0x12064(%rip),%rax        # 19460 <g_645+0x120>
    73fc:	48 89 85 38 f2 ff ff 	mov    %rax,-0xdc8(%rbp)
    7403:	48 8d 05 ba 23 01 00 	lea    0x123ba(%rip),%rax        # 197c4 <g_1444>
    740a:	48 89 85 40 f2 ff ff 	mov    %rax,-0xdc0(%rbp)
    7411:	48 8d 05 6c 1f 01 00 	lea    0x11f6c(%rip),%rax        # 19384 <g_645+0x44>
    7418:	48 89 85 48 f2 ff ff 	mov    %rax,-0xdb8(%rbp)
    741f:	48 8d 05 9e 23 01 00 	lea    0x1239e(%rip),%rax        # 197c4 <g_1444>
    7426:	48 89 85 50 f2 ff ff 	mov    %rax,-0xdb0(%rbp)
    742d:	48 8d 05 90 23 01 00 	lea    0x12390(%rip),%rax        # 197c4 <g_1444>
    7434:	48 89 85 58 f2 ff ff 	mov    %rax,-0xda8(%rbp)
    743b:	48 8d 05 ae 1f 01 00 	lea    0x11fae(%rip),%rax        # 193f0 <g_645+0xb0>
    7442:	48 89 85 60 f2 ff ff 	mov    %rax,-0xda0(%rbp)
    7449:	48 8d 05 38 1c 01 00 	lea    0x11c38(%rip),%rax        # 19088 <g_12+0x28>
    7450:	48 89 85 68 f2 ff ff 	mov    %rax,-0xd98(%rbp)
    7457:	48 8d 05 aa 1f 01 00 	lea    0x11faa(%rip),%rax        # 19408 <g_645+0xc8>
    745e:	48 89 85 70 f2 ff ff 	mov    %rax,-0xd90(%rbp)
    7465:	48 8d 05 84 1f 01 00 	lea    0x11f84(%rip),%rax        # 193f0 <g_645+0xb0>
    746c:	48 89 85 78 f2 ff ff 	mov    %rax,-0xd88(%rbp)
    7473:	48 c7 85 80 f2 ff ff 	movq   $0x0,-0xd80(%rbp)
    747a:	00 00 00 00 
    747e:	48 8d 05 03 1c 01 00 	lea    0x11c03(%rip),%rax        # 19088 <g_12+0x28>
    7485:	48 89 85 88 f2 ff ff 	mov    %rax,-0xd78(%rbp)
    748c:	48 8d 05 f1 1e 01 00 	lea    0x11ef1(%rip),%rax        # 19384 <g_645+0x44>
    7493:	48 89 85 90 f2 ff ff 	mov    %rax,-0xd70(%rbp)
    749a:	48 8d 05 23 23 01 00 	lea    0x12323(%rip),%rax        # 197c4 <g_1444>
    74a1:	48 89 85 98 f2 ff ff 	mov    %rax,-0xd68(%rbp)
    74a8:	48 8d 05 d9 4b 01 00 	lea    0x14bd9(%rip),%rax        # 1c088 <g_62>
    74af:	48 89 85 a0 f2 ff ff 	mov    %rax,-0xd60(%rbp)
    74b6:	48 8d 05 83 1b 01 00 	lea    0x11b83(%rip),%rax        # 19040 <g_8>
    74bd:	48 89 85 a8 f2 ff ff 	mov    %rax,-0xd58(%rbp)
    74c4:	48 c7 85 b0 f2 ff ff 	movq   $0x0,-0xd50(%rbp)
    74cb:	00 00 00 00 
    74cf:	48 8d 05 8a 1f 01 00 	lea    0x11f8a(%rip),%rax        # 19460 <g_645+0x120>
    74d6:	48 89 85 b8 f2 ff ff 	mov    %rax,-0xd48(%rbp)
    74dd:	48 8d 05 e0 22 01 00 	lea    0x122e0(%rip),%rax        # 197c4 <g_1444>
    74e4:	48 89 85 c0 f2 ff ff 	mov    %rax,-0xd40(%rbp)
    74eb:	48 8d 05 4e 1b 01 00 	lea    0x11b4e(%rip),%rax        # 19040 <g_8>
    74f2:	48 89 85 c8 f2 ff ff 	mov    %rax,-0xd38(%rbp)
    74f9:	48 8d 05 88 4b 01 00 	lea    0x14b88(%rip),%rax        # 1c088 <g_62>
    7500:	48 89 85 d0 f2 ff ff 	mov    %rax,-0xd30(%rbp)
    7507:	48 c7 85 d8 f2 ff ff 	movq   $0x0,-0xd28(%rbp)
    750e:	00 00 00 00 
    7512:	48 8d 05 6f 1b 01 00 	lea    0x11b6f(%rip),%rax        # 19088 <g_12+0x28>
    7519:	48 89 85 e0 f2 ff ff 	mov    %rax,-0xd20(%rbp)
    7520:	48 8d 05 c9 1e 01 00 	lea    0x11ec9(%rip),%rax        # 193f0 <g_645+0xb0>
    7527:	48 89 85 e8 f2 ff ff 	mov    %rax,-0xd18(%rbp)
    752e:	48 c7 85 f0 f2 ff ff 	movq   $0x0,-0xd10(%rbp)
    7535:	00 00 00 00 
    7539:	48 8d 05 b0 1e 01 00 	lea    0x11eb0(%rip),%rax        # 193f0 <g_645+0xb0>
    7540:	48 89 85 f8 f2 ff ff 	mov    %rax,-0xd08(%rbp)
    7547:	48 8d 05 a2 1e 01 00 	lea    0x11ea2(%rip),%rax        # 193f0 <g_645+0xb0>
    754e:	48 89 85 00 f3 ff ff 	mov    %rax,-0xd00(%rbp)
    7555:	48 8d 05 e4 1a 01 00 	lea    0x11ae4(%rip),%rax        # 19040 <g_8>
    755c:	48 89 85 08 f3 ff ff 	mov    %rax,-0xcf8(%rbp)
    7563:	48 8d 05 86 1e 01 00 	lea    0x11e86(%rip),%rax        # 193f0 <g_645+0xb0>
    756a:	48 89 85 10 f3 ff ff 	mov    %rax,-0xcf0(%rbp)
    7571:	48 c7 85 18 f3 ff ff 	movq   $0x0,-0xce8(%rbp)
    7578:	00 00 00 00 
    757c:	48 8d 05 11 1b 01 00 	lea    0x11b11(%rip),%rax        # 19094 <g_12+0x34>
    7583:	48 89 85 20 f3 ff ff 	mov    %rax,-0xce0(%rbp)
    758a:	48 8d 05 5f 1e 01 00 	lea    0x11e5f(%rip),%rax        # 193f0 <g_645+0xb0>
    7591:	48 89 85 28 f3 ff ff 	mov    %rax,-0xcd8(%rbp)
    7598:	48 8d 05 51 1e 01 00 	lea    0x11e51(%rip),%rax        # 193f0 <g_645+0xb0>
    759f:	48 89 85 30 f3 ff ff 	mov    %rax,-0xcd0(%rbp)
    75a6:	48 8d 05 e7 1a 01 00 	lea    0x11ae7(%rip),%rax        # 19094 <g_12+0x34>
    75ad:	48 89 85 38 f3 ff ff 	mov    %rax,-0xcc8(%rbp)
    75b4:	48 8d 05 09 22 01 00 	lea    0x12209(%rip),%rax        # 197c4 <g_1444>
    75bb:	48 89 85 40 f3 ff ff 	mov    %rax,-0xcc0(%rbp)
    75c2:	48 8d 05 9f 1a 01 00 	lea    0x11a9f(%rip),%rax        # 19068 <g_12+0x8>
    75c9:	48 89 85 48 f3 ff ff 	mov    %rax,-0xcb8(%rbp)
    75d0:	48 8d 85 e8 ec ff ff 	lea    -0x1318(%rbp),%rax
    75d7:	48 89 85 50 f3 ff ff 	mov    %rax,-0xcb0(%rbp)
    75de:	48 8d 05 0b 1e 01 00 	lea    0x11e0b(%rip),%rax        # 193f0 <g_645+0xb0>
    75e5:	48 89 85 58 f3 ff ff 	mov    %rax,-0xca8(%rbp)
    75ec:	48 8d 05 75 1a 01 00 	lea    0x11a75(%rip),%rax        # 19068 <g_12+0x8>
    75f3:	48 89 85 60 f3 ff ff 	mov    %rax,-0xca0(%rbp)
    75fa:	48 8d 05 ef 1d 01 00 	lea    0x11def(%rip),%rax        # 193f0 <g_645+0xb0>
    7601:	48 89 85 68 f3 ff ff 	mov    %rax,-0xc98(%rbp)
    7608:	48 8d 05 e1 1d 01 00 	lea    0x11de1(%rip),%rax        # 193f0 <g_645+0xb0>
    760f:	48 89 85 70 f3 ff ff 	mov    %rax,-0xc90(%rbp)
    7616:	48 8d 05 a7 21 01 00 	lea    0x121a7(%rip),%rax        # 197c4 <g_1444>
    761d:	48 89 85 78 f3 ff ff 	mov    %rax,-0xc88(%rbp)
    7624:	48 8d 05 99 21 01 00 	lea    0x12199(%rip),%rax        # 197c4 <g_1444>
    762b:	48 89 85 80 f3 ff ff 	mov    %rax,-0xc80(%rbp)
    7632:	48 8d 05 9b 1d 01 00 	lea    0x11d9b(%rip),%rax        # 193d4 <g_645+0x94>
    7639:	48 89 85 88 f3 ff ff 	mov    %rax,-0xc78(%rbp)
    7640:	48 8d 05 f9 19 01 00 	lea    0x119f9(%rip),%rax        # 19040 <g_8>
    7647:	48 89 85 90 f3 ff ff 	mov    %rax,-0xc70(%rbp)
    764e:	48 c7 85 98 f3 ff ff 	movq   $0x0,-0xc68(%rbp)
    7655:	00 00 00 00 
    7659:	48 8d 05 24 1a 01 00 	lea    0x11a24(%rip),%rax        # 19084 <g_12+0x24>
    7660:	48 89 85 a0 f3 ff ff 	mov    %rax,-0xc60(%rbp)
    7667:	48 c7 85 a8 f3 ff ff 	movq   $0x0,-0xc58(%rbp)
    766e:	00 00 00 00 
    7672:	48 8d 05 77 1d 01 00 	lea    0x11d77(%rip),%rax        # 193f0 <g_645+0xb0>
    7679:	48 89 85 b0 f3 ff ff 	mov    %rax,-0xc50(%rbp)
    7680:	48 8d 05 fd 1c 01 00 	lea    0x11cfd(%rip),%rax        # 19384 <g_645+0x44>
    7687:	48 89 85 b8 f3 ff ff 	mov    %rax,-0xc48(%rbp)
    768e:	48 8d 05 5b 1d 01 00 	lea    0x11d5b(%rip),%rax        # 193f0 <g_645+0xb0>
    7695:	48 89 85 c0 f3 ff ff 	mov    %rax,-0xc40(%rbp)
    769c:	48 8d 85 e8 ec ff ff 	lea    -0x1318(%rbp),%rax
    76a3:	48 89 85 c8 f3 ff ff 	mov    %rax,-0xc38(%rbp)
    76aa:	48 8d 05 8f 19 01 00 	lea    0x1198f(%rip),%rax        # 19040 <g_8>
    76b1:	48 89 85 d0 f3 ff ff 	mov    %rax,-0xc30(%rbp)
    76b8:	48 8d 05 c9 49 01 00 	lea    0x149c9(%rip),%rax        # 1c088 <g_62>
    76bf:	48 89 85 d8 f3 ff ff 	mov    %rax,-0xc28(%rbp)
    76c6:	48 8d 05 f7 20 01 00 	lea    0x120f7(%rip),%rax        # 197c4 <g_1444>
    76cd:	48 89 85 e0 f3 ff ff 	mov    %rax,-0xc20(%rbp)
    76d4:	48 8d 05 e9 20 01 00 	lea    0x120e9(%rip),%rax        # 197c4 <g_1444>
    76db:	48 89 85 e8 f3 ff ff 	mov    %rax,-0xc18(%rbp)
    76e2:	48 8d 05 93 19 01 00 	lea    0x11993(%rip),%rax        # 1907c <g_12+0x1c>
    76e9:	48 89 85 f0 f3 ff ff 	mov    %rax,-0xc10(%rbp)
    76f0:	48 8d 05 91 1d 01 00 	lea    0x11d91(%rip),%rax        # 19488 <g_645+0x148>
    76f7:	48 89 85 f8 f3 ff ff 	mov    %rax,-0xc08(%rbp)
    76fe:	48 8d 05 83 49 01 00 	lea    0x14983(%rip),%rax        # 1c088 <g_62>
    7705:	48 89 85 00 f4 ff ff 	mov    %rax,-0xc00(%rbp)
    770c:	48 c7 85 08 f4 ff ff 	movq   $0x0,-0xbf8(%rbp)
    7713:	00 00 00 00 
    7717:	48 8d 05 6a 49 01 00 	lea    0x1496a(%rip),%rax        # 1c088 <g_62>
    771e:	48 89 85 10 f4 ff ff 	mov    %rax,-0xbf0(%rbp)
    7725:	48 8d 05 5c 1d 01 00 	lea    0x11d5c(%rip),%rax        # 19488 <g_645+0x148>
    772c:	48 89 85 18 f4 ff ff 	mov    %rax,-0xbe8(%rbp)
    7733:	48 8d 05 42 19 01 00 	lea    0x11942(%rip),%rax        # 1907c <g_12+0x1c>
    773a:	48 89 85 20 f4 ff ff 	mov    %rax,-0xbe0(%rbp)
    7741:	48 8d 05 a8 1c 01 00 	lea    0x11ca8(%rip),%rax        # 193f0 <g_645+0xb0>
    7748:	48 89 85 28 f4 ff ff 	mov    %rax,-0xbd8(%rbp)
    774f:	48 8d 05 32 49 01 00 	lea    0x14932(%rip),%rax        # 1c088 <g_62>
    7756:	48 89 85 30 f4 ff ff 	mov    %rax,-0xbd0(%rbp)
    775d:	48 8d 05 dc 18 01 00 	lea    0x118dc(%rip),%rax        # 19040 <g_8>
    7764:	48 89 85 38 f4 ff ff 	mov    %rax,-0xbc8(%rbp)
    776b:	48 8d 05 7e 1c 01 00 	lea    0x11c7e(%rip),%rax        # 193f0 <g_645+0xb0>
    7772:	48 89 85 40 f4 ff ff 	mov    %rax,-0xbc0(%rbp)
    7779:	48 8d 05 70 1c 01 00 	lea    0x11c70(%rip),%rax        # 193f0 <g_645+0xb0>
    7780:	48 89 85 48 f4 ff ff 	mov    %rax,-0xbb8(%rbp)
    7787:	48 c7 85 50 f4 ff ff 	movq   $0x0,-0xbb0(%rbp)
    778e:	00 00 00 00 
    7792:	48 8d 05 ef 18 01 00 	lea    0x118ef(%rip),%rax        # 19088 <g_12+0x28>
    7799:	48 89 85 58 f4 ff ff 	mov    %rax,-0xba8(%rbp)
    77a0:	48 8d 05 1d 20 01 00 	lea    0x1201d(%rip),%rax        # 197c4 <g_1444>
    77a7:	48 89 85 60 f4 ff ff 	mov    %rax,-0xba0(%rbp)
    77ae:	48 8d 05 d3 48 01 00 	lea    0x148d3(%rip),%rax        # 1c088 <g_62>
    77b5:	48 89 85 68 f4 ff ff 	mov    %rax,-0xb98(%rbp)
    77bc:	48 8d 05 01 20 01 00 	lea    0x12001(%rip),%rax        # 197c4 <g_1444>
    77c3:	48 89 85 70 f4 ff ff 	mov    %rax,-0xb90(%rbp)
    77ca:	48 8d 05 6f 18 01 00 	lea    0x1186f(%rip),%rax        # 19040 <g_8>
    77d1:	48 89 85 78 f4 ff ff 	mov    %rax,-0xb88(%rbp)
    77d8:	48 c7 85 80 f4 ff ff 	movq   $0x0,-0xb80(%rbp)
    77df:	00 00 00 00 
    77e3:	48 8d 05 56 18 01 00 	lea    0x11856(%rip),%rax        # 19040 <g_8>
    77ea:	48 89 85 88 f4 ff ff 	mov    %rax,-0xb78(%rbp)
    77f1:	48 c7 85 90 f4 ff ff 	movq   $0x0,-0xb70(%rbp)
    77f8:	00 00 00 00 
    77fc:	48 8d 05 ed 1b 01 00 	lea    0x11bed(%rip),%rax        # 193f0 <g_645+0xb0>
    7803:	48 89 85 98 f4 ff ff 	mov    %rax,-0xb68(%rbp)
    780a:	48 8d 05 b3 1f 01 00 	lea    0x11fb3(%rip),%rax        # 197c4 <g_1444>
    7811:	48 89 85 a0 f4 ff ff 	mov    %rax,-0xb60(%rbp)
    7818:	48 c7 85 a8 f4 ff ff 	movq   $0x0,-0xb58(%rbp)
    781f:	00 00 00 00 
    7823:	48 8d 05 5e 48 01 00 	lea    0x1485e(%rip),%rax        # 1c088 <g_62>
    782a:	48 89 85 b0 f4 ff ff 	mov    %rax,-0xb50(%rbp)
    7831:	48 8d 05 8c 1f 01 00 	lea    0x11f8c(%rip),%rax        # 197c4 <g_1444>
    7838:	48 89 85 b8 f4 ff ff 	mov    %rax,-0xb48(%rbp)
    783f:	48 8d 05 aa 1b 01 00 	lea    0x11baa(%rip),%rax        # 193f0 <g_645+0xb0>
    7846:	48 89 85 c0 f4 ff ff 	mov    %rax,-0xb40(%rbp)
    784d:	48 8d 05 34 48 01 00 	lea    0x14834(%rip),%rax        # 1c088 <g_62>
    7854:	48 89 85 c8 f4 ff ff 	mov    %rax,-0xb38(%rbp)
    785b:	48 8d 05 26 48 01 00 	lea    0x14826(%rip),%rax        # 1c088 <g_62>
    7862:	48 89 85 d0 f4 ff ff 	mov    %rax,-0xb30(%rbp)
    7869:	48 8d 05 80 1b 01 00 	lea    0x11b80(%rip),%rax        # 193f0 <g_645+0xb0>
    7870:	48 89 85 d8 f4 ff ff 	mov    %rax,-0xb28(%rbp)
    7877:	48 8d 05 46 1f 01 00 	lea    0x11f46(%rip),%rax        # 197c4 <g_1444>
    787e:	48 89 85 e0 f4 ff ff 	mov    %rax,-0xb20(%rbp)
    7885:	48 c7 85 e8 f4 ff ff 	movq   $0x0,-0xb18(%rbp)
    788c:	00 00 00 00 
    7890:	48 8d 05 e5 17 01 00 	lea    0x117e5(%rip),%rax        # 1907c <g_12+0x1c>
    7897:	48 89 85 f0 f4 ff ff 	mov    %rax,-0xb10(%rbp)
    789e:	48 c7 85 f8 f4 ff ff 	movq   $0x0,-0xb08(%rbp)
    78a5:	00 00 00 00 
    78a9:	48 c7 85 00 f5 ff ff 	movq   $0x0,-0xb00(%rbp)
    78b0:	00 00 00 00 
    78b4:	48 8d 05 ad 17 01 00 	lea    0x117ad(%rip),%rax        # 19068 <g_12+0x8>
    78bb:	48 89 85 08 f5 ff ff 	mov    %rax,-0xaf8(%rbp)
    78c2:	48 8d 05 77 17 01 00 	lea    0x11777(%rip),%rax        # 19040 <g_8>
    78c9:	48 89 85 10 f5 ff ff 	mov    %rax,-0xaf0(%rbp)
    78d0:	48 8d 05 ed 1e 01 00 	lea    0x11eed(%rip),%rax        # 197c4 <g_1444>
    78d7:	48 89 85 18 f5 ff ff 	mov    %rax,-0xae8(%rbp)
    78de:	48 8d 05 77 1b 01 00 	lea    0x11b77(%rip),%rax        # 1945c <g_645+0x11c>
    78e5:	48 89 85 20 f5 ff ff 	mov    %rax,-0xae0(%rbp)
    78ec:	48 8d 05 fd 1a 01 00 	lea    0x11afd(%rip),%rax        # 193f0 <g_645+0xb0>
    78f3:	48 89 85 28 f5 ff ff 	mov    %rax,-0xad8(%rbp)
    78fa:	48 8d 05 ef 1a 01 00 	lea    0x11aef(%rip),%rax        # 193f0 <g_645+0xb0>
    7901:	48 89 85 30 f5 ff ff 	mov    %rax,-0xad0(%rbp)
    7908:	48 8d 05 e1 1a 01 00 	lea    0x11ae1(%rip),%rax        # 193f0 <g_645+0xb0>
    790f:	48 89 85 38 f5 ff ff 	mov    %rax,-0xac8(%rbp)
    7916:	48 8d 05 d3 1a 01 00 	lea    0x11ad3(%rip),%rax        # 193f0 <g_645+0xb0>
    791d:	48 89 85 40 f5 ff ff 	mov    %rax,-0xac0(%rbp)
    7924:	48 8d 05 c5 1a 01 00 	lea    0x11ac5(%rip),%rax        # 193f0 <g_645+0xb0>
    792b:	48 89 85 48 f5 ff ff 	mov    %rax,-0xab8(%rbp)
    7932:	48 8d 05 07 17 01 00 	lea    0x11707(%rip),%rax        # 19040 <g_8>
    7939:	48 89 85 50 f5 ff ff 	mov    %rax,-0xab0(%rbp)
    7940:	48 c7 85 58 f5 ff ff 	movq   $0x0,-0xaa8(%rbp)
    7947:	00 00 00 00 
    794b:	48 c7 85 60 f5 ff ff 	movq   $0x0,-0xaa0(%rbp)
    7952:	00 00 00 00 
    7956:	48 8d 05 93 1a 01 00 	lea    0x11a93(%rip),%rax        # 193f0 <g_645+0xb0>
    795d:	48 89 85 68 f5 ff ff 	mov    %rax,-0xa98(%rbp)
    7964:	48 8d 05 85 1a 01 00 	lea    0x11a85(%rip),%rax        # 193f0 <g_645+0xb0>
    796b:	48 89 85 70 f5 ff ff 	mov    %rax,-0xa90(%rbp)
    7972:	48 8d 05 4b 1e 01 00 	lea    0x11e4b(%rip),%rax        # 197c4 <g_1444>
    7979:	48 89 85 78 f5 ff ff 	mov    %rax,-0xa88(%rbp)
    7980:	48 8d 05 3d 1e 01 00 	lea    0x11e3d(%rip),%rax        # 197c4 <g_1444>
    7987:	48 89 85 80 f5 ff ff 	mov    %rax,-0xa80(%rbp)
    798e:	48 8d 05 2f 1e 01 00 	lea    0x11e2f(%rip),%rax        # 197c4 <g_1444>
    7995:	48 89 85 88 f5 ff ff 	mov    %rax,-0xa78(%rbp)
    799c:	48 8d 85 e8 ec ff ff 	lea    -0x1318(%rbp),%rax
    79a3:	48 89 85 90 f5 ff ff 	mov    %rax,-0xa70(%rbp)
    79aa:	48 8d 05 d7 46 01 00 	lea    0x146d7(%rip),%rax        # 1c088 <g_62>
    79b1:	48 89 85 98 f5 ff ff 	mov    %rax,-0xa68(%rbp)
    79b8:	48 8d 05 31 1a 01 00 	lea    0x11a31(%rip),%rax        # 193f0 <g_645+0xb0>
    79bf:	48 89 85 a0 f5 ff ff 	mov    %rax,-0xa60(%rbp)
    79c6:	48 8d 05 23 1a 01 00 	lea    0x11a23(%rip),%rax        # 193f0 <g_645+0xb0>
    79cd:	48 89 85 a8 f5 ff ff 	mov    %rax,-0xa58(%rbp)
    79d4:	48 8d 05 15 1a 01 00 	lea    0x11a15(%rip),%rax        # 193f0 <g_645+0xb0>
    79db:	48 89 85 b0 f5 ff ff 	mov    %rax,-0xa50(%rbp)
    79e2:	48 8d 05 9f 46 01 00 	lea    0x1469f(%rip),%rax        # 1c088 <g_62>
    79e9:	48 89 85 b8 f5 ff ff 	mov    %rax,-0xa48(%rbp)
    79f0:	48 8d 05 91 46 01 00 	lea    0x14691(%rip),%rax        # 1c088 <g_62>
    79f7:	48 89 85 c0 f5 ff ff 	mov    %rax,-0xa40(%rbp)
    79fe:	48 8d 05 cf 19 01 00 	lea    0x119cf(%rip),%rax        # 193d4 <g_645+0x94>
    7a05:	48 89 85 c8 f5 ff ff 	mov    %rax,-0xa38(%rbp)
    7a0c:	48 8d 05 dd 19 01 00 	lea    0x119dd(%rip),%rax        # 193f0 <g_645+0xb0>
    7a13:	48 89 85 d0 f5 ff ff 	mov    %rax,-0xa30(%rbp)
    7a1a:	48 8d 05 67 16 01 00 	lea    0x11667(%rip),%rax        # 19088 <g_12+0x28>
    7a21:	48 89 85 d8 f5 ff ff 	mov    %rax,-0xa28(%rbp)
    7a28:	48 8d 05 4d 16 01 00 	lea    0x1164d(%rip),%rax        # 1907c <g_12+0x1c>
    7a2f:	48 89 85 e0 f5 ff ff 	mov    %rax,-0xa20(%rbp)
    7a36:	48 8d 05 3f 16 01 00 	lea    0x1163f(%rip),%rax        # 1907c <g_12+0x1c>
    7a3d:	48 89 85 e8 f5 ff ff 	mov    %rax,-0xa18(%rbp)
    7a44:	48 c7 85 f0 f5 ff ff 	movq   $0x0,-0xa10(%rbp)
    7a4b:	00 00 00 00 
    7a4f:	48 8d 05 7e 19 01 00 	lea    0x1197e(%rip),%rax        # 193d4 <g_645+0x94>
    7a56:	48 89 85 f8 f5 ff ff 	mov    %rax,-0xa08(%rbp)
    7a5d:	48 8d 05 8c 19 01 00 	lea    0x1198c(%rip),%rax        # 193f0 <g_645+0xb0>
    7a64:	48 89 85 00 f6 ff ff 	mov    %rax,-0xa00(%rbp)
    7a6b:	48 8d 05 7e 19 01 00 	lea    0x1197e(%rip),%rax        # 193f0 <g_645+0xb0>
    7a72:	48 89 85 08 f6 ff ff 	mov    %rax,-0x9f8(%rbp)
    7a79:	48 8d 05 54 19 01 00 	lea    0x11954(%rip),%rax        # 193d4 <g_645+0x94>
    7a80:	48 89 85 10 f6 ff ff 	mov    %rax,-0x9f0(%rbp)
    7a87:	48 c7 85 18 f6 ff ff 	movq   $0x0,-0x9e8(%rbp)
    7a8e:	00 00 00 00 
    7a92:	48 c7 85 20 f6 ff ff 	movq   $0x0,-0x9e0(%rbp)
    7a99:	00 00 00 00 
    7a9d:	48 8d 05 e4 45 01 00 	lea    0x145e4(%rip),%rax        # 1c088 <g_62>
    7aa4:	48 89 85 28 f6 ff ff 	mov    %rax,-0x9d8(%rbp)
    7aab:	48 c7 85 30 f6 ff ff 	movq   $0x0,-0x9d0(%rbp)
    7ab2:	00 00 00 00 
    7ab6:	48 8d 05 cb 19 01 00 	lea    0x119cb(%rip),%rax        # 19488 <g_645+0x148>
    7abd:	48 89 85 38 f6 ff ff 	mov    %rax,-0x9c8(%rbp)
    7ac4:	48 8d 85 e8 ec ff ff 	lea    -0x1318(%rbp),%rax
    7acb:	48 89 85 40 f6 ff ff 	mov    %rax,-0x9c0(%rbp)
    7ad2:	48 8d 05 67 15 01 00 	lea    0x11567(%rip),%rax        # 19040 <g_8>
    7ad9:	48 89 85 48 f6 ff ff 	mov    %rax,-0x9b8(%rbp)
    7ae0:	48 8d 05 09 19 01 00 	lea    0x11909(%rip),%rax        # 193f0 <g_645+0xb0>
    7ae7:	48 89 85 50 f6 ff ff 	mov    %rax,-0x9b0(%rbp)
    7aee:	48 8d 05 cf 1c 01 00 	lea    0x11ccf(%rip),%rax        # 197c4 <g_1444>
    7af5:	48 89 85 58 f6 ff ff 	mov    %rax,-0x9a8(%rbp)
    7afc:	48 8d 05 ed 18 01 00 	lea    0x118ed(%rip),%rax        # 193f0 <g_645+0xb0>
    7b03:	48 89 85 60 f6 ff ff 	mov    %rax,-0x9a0(%rbp)
    7b0a:	48 8d 05 b3 1c 01 00 	lea    0x11cb3(%rip),%rax        # 197c4 <g_1444>
    7b11:	48 89 85 68 f6 ff ff 	mov    %rax,-0x998(%rbp)
    7b18:	48 8d 05 69 45 01 00 	lea    0x14569(%rip),%rax        # 1c088 <g_62>
    7b1f:	48 89 85 70 f6 ff ff 	mov    %rax,-0x990(%rbp)
    7b26:	48 8d 05 c3 18 01 00 	lea    0x118c3(%rip),%rax        # 193f0 <g_645+0xb0>
    7b2d:	48 89 85 78 f6 ff ff 	mov    %rax,-0x988(%rbp)
    7b34:	48 c7 85 80 f6 ff ff 	movq   $0x0,-0x980(%rbp)
    7b3b:	00 00 00 00 
    7b3f:	48 8d 05 fa 14 01 00 	lea    0x114fa(%rip),%rax        # 19040 <g_8>
    7b46:	48 89 85 88 f6 ff ff 	mov    %rax,-0x978(%rbp)
    7b4d:	48 c7 85 90 f6 ff ff 	movq   $0x0,-0x970(%rbp)
    7b54:	00 00 00 00 
    7b58:	48 c7 85 98 f6 ff ff 	movq   $0x0,-0x968(%rbp)
    7b5f:	00 00 00 00 
    7b63:	48 8d 05 86 18 01 00 	lea    0x11886(%rip),%rax        # 193f0 <g_645+0xb0>
    7b6a:	48 89 85 a0 f6 ff ff 	mov    %rax,-0x960(%rbp)
    7b71:	48 8d 05 10 45 01 00 	lea    0x14510(%rip),%rax        # 1c088 <g_62>
    7b78:	48 89 85 a8 f6 ff ff 	mov    %rax,-0x958(%rbp)
    7b7f:	48 8d 05 6a 18 01 00 	lea    0x1186a(%rip),%rax        # 193f0 <g_645+0xb0>
    7b86:	48 89 85 b0 f6 ff ff 	mov    %rax,-0x950(%rbp)
    7b8d:	48 c7 85 b8 f6 ff ff 	movq   $0x0,-0x948(%rbp)
    7b94:	00 00 00 00 
    7b98:	48 8d 05 25 1c 01 00 	lea    0x11c25(%rip),%rax        # 197c4 <g_1444>
    7b9f:	48 89 85 c0 f6 ff ff 	mov    %rax,-0x940(%rbp)
    7ba6:	48 8d 05 43 18 01 00 	lea    0x11843(%rip),%rax        # 193f0 <g_645+0xb0>
    7bad:	48 89 85 c8 f6 ff ff 	mov    %rax,-0x938(%rbp)
    7bb4:	48 8d 05 c9 14 01 00 	lea    0x114c9(%rip),%rax        # 19084 <g_12+0x24>
    7bbb:	48 89 85 d0 f6 ff ff 	mov    %rax,-0x930(%rbp)
    7bc2:	48 8d 85 e8 ec ff ff 	lea    -0x1318(%rbp),%rax
    7bc9:	48 89 85 d8 f6 ff ff 	mov    %rax,-0x928(%rbp)
    7bd0:	48 8d 05 ed 1b 01 00 	lea    0x11bed(%rip),%rax        # 197c4 <g_1444>
    7bd7:	48 89 85 e0 f6 ff ff 	mov    %rax,-0x920(%rbp)
    7bde:	48 8d 05 97 14 01 00 	lea    0x11497(%rip),%rax        # 1907c <g_12+0x1c>
    7be5:	48 89 85 e8 f6 ff ff 	mov    %rax,-0x918(%rbp)
    7bec:	48 8d 05 d1 1b 01 00 	lea    0x11bd1(%rip),%rax        # 197c4 <g_1444>
    7bf3:	48 89 85 f0 f6 ff ff 	mov    %rax,-0x910(%rbp)
    7bfa:	48 8d 05 93 14 01 00 	lea    0x11493(%rip),%rax        # 19094 <g_12+0x34>
    7c01:	48 89 85 f8 f6 ff ff 	mov    %rax,-0x908(%rbp)
    7c08:	48 8d 05 e1 17 01 00 	lea    0x117e1(%rip),%rax        # 193f0 <g_645+0xb0>
    7c0f:	48 89 85 00 f7 ff ff 	mov    %rax,-0x900(%rbp)
    7c16:	48 8d 05 b7 17 01 00 	lea    0x117b7(%rip),%rax        # 193d4 <g_645+0x94>
    7c1d:	48 89 85 08 f7 ff ff 	mov    %rax,-0x8f8(%rbp)
    7c24:	48 8d 05 c5 17 01 00 	lea    0x117c5(%rip),%rax        # 193f0 <g_645+0xb0>
    7c2b:	48 89 85 10 f7 ff ff 	mov    %rax,-0x8f0(%rbp)
    7c32:	48 8d 05 b7 17 01 00 	lea    0x117b7(%rip),%rax        # 193f0 <g_645+0xb0>
    7c39:	48 89 85 18 f7 ff ff 	mov    %rax,-0x8e8(%rbp)
    7c40:	48 8d 05 f9 13 01 00 	lea    0x113f9(%rip),%rax        # 19040 <g_8>
    7c47:	48 89 85 20 f7 ff ff 	mov    %rax,-0x8e0(%rbp)
    7c4e:	48 8d 05 9b 17 01 00 	lea    0x1179b(%rip),%rax        # 193f0 <g_645+0xb0>
    7c55:	48 89 85 28 f7 ff ff 	mov    %rax,-0x8d8(%rbp)
    7c5c:	48 c7 85 30 f7 ff ff 	movq   $0x0,-0x8d0(%rbp)
    7c63:	00 00 00 00 
    7c67:	48 8d 05 0e 14 01 00 	lea    0x1140e(%rip),%rax        # 1907c <g_12+0x1c>
    7c6e:	48 89 85 38 f7 ff ff 	mov    %rax,-0x8c8(%rbp)
    7c75:	48 8d 05 74 17 01 00 	lea    0x11774(%rip),%rax        # 193f0 <g_645+0xb0>
    7c7c:	48 89 85 40 f7 ff ff 	mov    %rax,-0x8c0(%rbp)
    7c83:	48 8d 05 3a 1b 01 00 	lea    0x11b3a(%rip),%rax        # 197c4 <g_1444>
    7c8a:	48 89 85 48 f7 ff ff 	mov    %rax,-0x8b8(%rbp)
    7c91:	48 8d 05 a8 13 01 00 	lea    0x113a8(%rip),%rax        # 19040 <g_8>
    7c98:	48 89 85 50 f7 ff ff 	mov    %rax,-0x8b0(%rbp)
    7c9f:	48 8d 05 4a 17 01 00 	lea    0x1174a(%rip),%rax        # 193f0 <g_645+0xb0>
    7ca6:	48 89 85 58 f7 ff ff 	mov    %rax,-0x8a8(%rbp)
    7cad:	48 8d 05 d0 16 01 00 	lea    0x116d0(%rip),%rax        # 19384 <g_645+0x44>
    7cb4:	48 89 85 60 f7 ff ff 	mov    %rax,-0x8a0(%rbp)
    7cbb:	48 8d 05 2e 17 01 00 	lea    0x1172e(%rip),%rax        # 193f0 <g_645+0xb0>
    7cc2:	48 89 85 68 f7 ff ff 	mov    %rax,-0x898(%rbp)
    7cc9:	48 8d 05 20 17 01 00 	lea    0x11720(%rip),%rax        # 193f0 <g_645+0xb0>
    7cd0:	48 89 85 70 f7 ff ff 	mov    %rax,-0x890(%rbp)
    7cd7:	48 8d 05 12 17 01 00 	lea    0x11712(%rip),%rax        # 193f0 <g_645+0xb0>
    7cde:	48 89 85 78 f7 ff ff 	mov    %rax,-0x888(%rbp)
    7ce5:	48 8d 05 04 17 01 00 	lea    0x11704(%rip),%rax        # 193f0 <g_645+0xb0>
    7cec:	48 89 85 80 f7 ff ff 	mov    %rax,-0x880(%rbp)
    7cf3:	48 8d 05 f6 16 01 00 	lea    0x116f6(%rip),%rax        # 193f0 <g_645+0xb0>
    7cfa:	48 89 85 88 f7 ff ff 	mov    %rax,-0x878(%rbp)
    7d01:	48 8d 05 e8 16 01 00 	lea    0x116e8(%rip),%rax        # 193f0 <g_645+0xb0>
    7d08:	48 89 85 90 f7 ff ff 	mov    %rax,-0x870(%rbp)
    7d0f:	48 8d 05 72 17 01 00 	lea    0x11772(%rip),%rax        # 19488 <g_645+0x148>
    7d16:	48 89 85 98 f7 ff ff 	mov    %rax,-0x868(%rbp)
    7d1d:	48 8d 05 a0 1a 01 00 	lea    0x11aa0(%rip),%rax        # 197c4 <g_1444>
    7d24:	48 89 85 a0 f7 ff ff 	mov    %rax,-0x860(%rbp)
    7d2b:	48 8d 05 be 16 01 00 	lea    0x116be(%rip),%rax        # 193f0 <g_645+0xb0>
    7d32:	48 89 85 a8 f7 ff ff 	mov    %rax,-0x858(%rbp)
    7d39:	48 8d 05 b0 16 01 00 	lea    0x116b0(%rip),%rax        # 193f0 <g_645+0xb0>
    7d40:	48 89 85 b0 f7 ff ff 	mov    %rax,-0x850(%rbp)
    7d47:	48 c7 85 b8 f7 ff ff 	movq   $0x0,-0x848(%rbp)
    7d4e:	00 00 00 00 
    7d52:	48 8d 05 6b 1a 01 00 	lea    0x11a6b(%rip),%rax        # 197c4 <g_1444>
    7d59:	48 89 85 c0 f7 ff ff 	mov    %rax,-0x840(%rbp)
    7d60:	48 8d 05 01 13 01 00 	lea    0x11301(%rip),%rax        # 19068 <g_12+0x8>
    7d67:	48 89 85 c8 f7 ff ff 	mov    %rax,-0x838(%rbp)
    7d6e:	48 8d 05 7b 16 01 00 	lea    0x1167b(%rip),%rax        # 193f0 <g_645+0xb0>
    7d75:	48 89 85 d0 f7 ff ff 	mov    %rax,-0x830(%rbp)
    7d7c:	48 c7 85 d8 f7 ff ff 	movq   $0x0,-0x828(%rbp)
    7d83:	00 00 00 00 
    7d87:	48 8d 05 36 1a 01 00 	lea    0x11a36(%rip),%rax        # 197c4 <g_1444>
    7d8e:	48 89 85 e0 f7 ff ff 	mov    %rax,-0x820(%rbp)
    7d95:	48 c7 85 e8 f7 ff ff 	movq   $0x0,-0x818(%rbp)
    7d9c:	00 00 00 00 
    7da0:	48 8d 05 99 12 01 00 	lea    0x11299(%rip),%rax        # 19040 <g_8>
    7da7:	48 89 85 f0 f7 ff ff 	mov    %rax,-0x810(%rbp)
    7dae:	48 8d 05 d3 42 01 00 	lea    0x142d3(%rip),%rax        # 1c088 <g_62>
    7db5:	48 89 85 f8 f7 ff ff 	mov    %rax,-0x808(%rbp)
    7dbc:	48 8d 05 01 1a 01 00 	lea    0x11a01(%rip),%rax        # 197c4 <g_1444>
    7dc3:	48 89 85 00 f8 ff ff 	mov    %rax,-0x800(%rbp)
    7dca:	48 8d 05 b7 42 01 00 	lea    0x142b7(%rip),%rax        # 1c088 <g_62>
    7dd1:	48 89 85 08 f8 ff ff 	mov    %rax,-0x7f8(%rbp)
    7dd8:	48 8d 05 61 12 01 00 	lea    0x11261(%rip),%rax        # 19040 <g_8>
    7ddf:	48 89 85 10 f8 ff ff 	mov    %rax,-0x7f0(%rbp)
    7de6:	48 8d 05 03 16 01 00 	lea    0x11603(%rip),%rax        # 193f0 <g_645+0xb0>
    7ded:	48 89 85 18 f8 ff ff 	mov    %rax,-0x7e8(%rbp)
    7df4:	48 8d 05 f5 15 01 00 	lea    0x115f5(%rip),%rax        # 193f0 <g_645+0xb0>
    7dfb:	48 89 85 20 f8 ff ff 	mov    %rax,-0x7e0(%rbp)
    7e02:	48 c7 85 28 f8 ff ff 	movq   $0x0,-0x7d8(%rbp)
    7e09:	00 00 00 00 
    7e0d:	c6 85 db ec ff ff fc 	movb   $0xfc,-0x1325(%rbp)
    7e14:	0f b6 45 bd          	movzbl -0x43(%rbp),%eax
    7e18:	0f b6 c0             	movzbl %al,%eax
    7e1b:	89 85 ec ec ff ff    	mov    %eax,-0x1314(%rbp)
    7e21:	48 83 bd 70 ed ff ff 	cmpq   $0x0,-0x1290(%rbp)
    7e28:	00 
    7e29:	0f 85 ad 0e 00 00    	jne    8cdc <func_1+0x2527>
    7e2f:	48 8b 05 aa 3c 01 00 	mov    0x13caa(%rip),%rax        # 1bae0 <g_1730>
    7e36:	48 8b 95 b8 ee ff ff 	mov    -0x1148(%rbp),%rdx
    7e3d:	48 89 10             	mov    %rdx,(%rax)
    7e40:	0f b6 85 db ec ff ff 	movzbl -0x1325(%rbp),%eax
    7e47:	83 e8 01             	sub    $0x1,%eax
    7e4a:	88 85 db ec ff ff    	mov    %al,-0x1325(%rbp)
    7e50:	e9 4b 0d 00 00       	jmpq   8ba0 <func_1+0x23eb>
    7e55:	48 c7 85 98 ed ff ff 	movq   $0x1,-0x1268(%rbp)
    7e5c:	01 00 00 00 
    7e60:	48 8d 05 d1 3d 01 00 	lea    0x13dd1(%rip),%rax        # 1bc38 <g_2316>
    7e67:	48 89 85 a0 ed ff ff 	mov    %rax,-0x1260(%rbp)
    7e6e:	48 8d 85 30 ef ff ff 	lea    -0x10d0(%rbp),%rax
    7e75:	48 83 c0 30          	add    $0x30,%rax
    7e79:	48 89 85 a8 ed ff ff 	mov    %rax,-0x1258(%rbp)
    7e80:	48 8d 85 28 ed ff ff 	lea    -0x12d8(%rbp),%rax
    7e87:	48 89 85 b0 ed ff ff 	mov    %rax,-0x1250(%rbp)
    7e8e:	48 8d 05 83 35 01 00 	lea    0x13583(%rip),%rax        # 1b418 <g_169>
    7e95:	48 89 85 38 ed ff ff 	mov    %rax,-0x12c8(%rbp)
    7e9c:	48 8d 85 38 ed ff ff 	lea    -0x12c8(%rbp),%rax
    7ea3:	48 89 85 40 ed ff ff 	mov    %rax,-0x12c0(%rbp)
    7eaa:	48 8d 85 40 ed ff ff 	lea    -0x12c0(%rbp),%rax
    7eb1:	48 89 85 f0 f1 ff ff 	mov    %rax,-0xe10(%rbp)
    7eb8:	48 c7 85 f8 f1 ff ff 	movq   $0x0,-0xe08(%rbp)
    7ebf:	00 00 00 00 
    7ec3:	48 8d 85 40 ed ff ff 	lea    -0x12c0(%rbp),%rax
    7eca:	48 89 85 00 f2 ff ff 	mov    %rax,-0xe00(%rbp)
    7ed1:	48 c7 85 08 f2 ff ff 	movq   $0x0,-0xdf8(%rbp)
    7ed8:	00 00 00 00 
    7edc:	48 8d 85 40 ed ff ff 	lea    -0x12c0(%rbp),%rax
    7ee3:	48 89 85 10 f2 ff ff 	mov    %rax,-0xdf0(%rbp)
    7eea:	48 c7 85 18 f2 ff ff 	movq   $0x0,-0xde8(%rbp)
    7ef1:	00 00 00 00 
    7ef5:	48 8d 85 40 ed ff ff 	lea    -0x12c0(%rbp),%rax
    7efc:	48 89 85 20 f2 ff ff 	mov    %rax,-0xde0(%rbp)
    7f03:	48 c7 85 28 f2 ff ff 	movq   $0x0,-0xdd8(%rbp)
    7f0a:	00 00 00 00 
    7f0e:	48 8d 85 40 ed ff ff 	lea    -0x12c0(%rbp),%rax
    7f15:	48 89 85 30 f2 ff ff 	mov    %rax,-0xdd0(%rbp)
    7f1c:	48 8d 05 6d 11 01 00 	lea    0x1116d(%rip),%rax        # 19090 <g_12+0x30>
    7f23:	48 89 85 b8 ed ff ff 	mov    %rax,-0x1248(%rbp)
    7f2a:	48 c7 85 48 ed ff ff 	movq   $0x0,-0x12b8(%rbp)
    7f31:	00 00 00 00 
    7f35:	48 b8 27 fe 01 83 8c 	movabs $0xcea2d98c8301fe27,%rax
    7f3c:	d9 a2 ce 
    7f3f:	48 89 85 c0 ed ff ff 	mov    %rax,-0x1240(%rbp)
    7f46:	48 8d 85 30 ed ff ff 	lea    -0x12d0(%rbp),%rax
    7f4d:	48 89 85 50 ed ff ff 	mov    %rax,-0x12b0(%rbp)
    7f54:	48 8d 85 50 ed ff ff 	lea    -0x12b0(%rbp),%rax
    7f5b:	48 89 85 c8 ed ff ff 	mov    %rax,-0x1238(%rbp)
    7f62:	48 c7 85 d0 ed ff ff 	movq   $0x0,-0x1230(%rbp)
    7f69:	00 00 00 00 
    7f6d:	48 c7 85 d8 ed ff ff 	movq   $0x0,-0x1228(%rbp)
    7f74:	00 00 00 00 
    7f78:	48 8d 85 48 ed ff ff 	lea    -0x12b8(%rbp),%rax
    7f7f:	48 89 85 58 ed ff ff 	mov    %rax,-0x12a8(%rbp)
    7f86:	48 8d 85 58 ed ff ff 	lea    -0x12a8(%rbp),%rax
    7f8d:	48 89 85 e0 ed ff ff 	mov    %rax,-0x1220(%rbp)
    7f94:	48 8b 05 95 3b 01 00 	mov    0x13b95(%rip),%rax        # 1bb30 <g_1867>
    7f9b:	48 8b 18             	mov    (%rax),%rbx
    7f9e:	48 8d 53 01          	lea    0x1(%rbx),%rdx
    7fa2:	48 89 10             	mov    %rdx,(%rax)
    7fa5:	48 c7 85 98 ed ff ff 	movq   $0x0,-0x1268(%rbp)
    7fac:	00 00 00 00 
    7fb0:	48 83 bd 98 ed ff ff 	cmpq   $0x0,-0x1268(%rbp)
    7fb7:	00 
    7fb8:	0f 85 ed 00 00 00    	jne    80ab <func_1+0x18f6>
    7fbe:	48 8b 05 7b 3b 01 00 	mov    0x13b7b(%rip),%rax        # 1bb40 <g_1912>
    7fc5:	0f b7 00             	movzwl (%rax),%eax
    7fc8:	0f bf d0             	movswl %ax,%edx
    7fcb:	48 8b 85 f0 f1 ff ff 	mov    -0xe10(%rbp),%rax
    7fd2:	48 8d 0d 57 3a 01 00 	lea    0x13a57(%rip),%rcx        # 1ba30 <g_748>
    7fd9:	48 39 c8             	cmp    %rcx,%rax
    7fdc:	75 16                	jne    7ff4 <func_1+0x183f>
    7fde:	48 83 bd 98 ed ff ff 	cmpq   $0xfffffffffffffffe,-0x1268(%rbp)
    7fe5:	fe 
    7fe6:	0f 94 c0             	sete   %al
    7fe9:	0f b6 c0             	movzbl %al,%eax
    7fec:	39 85 08 ed ff ff    	cmp    %eax,-0x12f8(%rbp)
    7ff2:	75 07                	jne    7ffb <func_1+0x1846>
    7ff4:	b8 01 00 00 00       	mov    $0x1,%eax
    7ff9:	eb 05                	jmp    8000 <func_1+0x184b>
    7ffb:	b8 00 00 00 00       	mov    $0x0,%eax
    8000:	98                   	cwtl   
    8001:	89 d6                	mov    %edx,%esi
    8003:	89 c7                	mov    %eax,%edi
    8005:	e8 4b d4 ff ff       	callq  5455 <safe_div_func_int16_t_s_s>
    800a:	48 8b 95 b8 ed ff ff 	mov    -0x1248(%rbp),%rdx
    8011:	8b 12                	mov    (%rdx),%edx
    8013:	98                   	cwtl   
    8014:	21 c2                	and    %eax,%edx
    8016:	48 8b 85 b8 ed ff ff 	mov    -0x1248(%rbp),%rax
    801d:	89 10                	mov    %edx,(%rax)
    801f:	48 8b 85 b8 ed ff ff 	mov    -0x1248(%rbp),%rax
    8026:	8b 00                	mov    (%rax),%eax
    8028:	41 89 c4             	mov    %eax,%r12d
    802b:	8b 85 e8 ec ff ff    	mov    -0x1318(%rbp),%eax
    8031:	0f b6 c0             	movzbl %al,%eax
    8034:	be 07 00 00 00       	mov    $0x7,%esi
    8039:	89 c7                	mov    %eax,%edi
    803b:	e8 0c dc ff ff       	callq  5c4c <safe_lshift_func_uint8_t_u_u>
    8040:	48 8b 95 60 ef ff ff 	mov    -0x10a0(%rbp),%rdx
    8047:	48 8b 85 a8 ed ff ff 	mov    -0x1258(%rbp),%rax
    804e:	48 89 10             	mov    %rdx,(%rax)
    8051:	48 8b 85 a8 ed ff ff 	mov    -0x1258(%rbp),%rax
    8058:	48 8b 08             	mov    (%rax),%rcx
    805b:	48 8b 95 28 ed ff ff 	mov    -0x12d8(%rbp),%rdx
    8062:	48 8b 85 b0 ed ff ff 	mov    -0x1250(%rbp),%rax
    8069:	48 89 10             	mov    %rdx,(%rax)
    806c:	48 8b 85 b0 ed ff ff 	mov    -0x1250(%rbp),%rax
    8073:	48 8b 00             	mov    (%rax),%rax
    8076:	48 39 c1             	cmp    %rax,%rcx
    8079:	48 8b 15 b8 3b 01 00 	mov    0x13bb8(%rip),%rdx        # 1bc38 <g_2316>
    8080:	48 8b 85 a0 ed ff ff 	mov    -0x1260(%rbp),%rax
    8087:	48 89 10             	mov    %rdx,(%rax)
    808a:	48 8b 85 a0 ed ff ff 	mov    -0x1260(%rbp),%rax
    8091:	48 8b 00             	mov    (%rax),%rax
    8094:	48 39 85 88 ed ff ff 	cmp    %rax,-0x1278(%rbp)
    809b:	0f 94 c0             	sete   %al
    809e:	0f b6 c0             	movzbl %al,%eax
    80a1:	44 89 e6             	mov    %r12d,%esi
    80a4:	89 c7                	mov    %eax,%edi
    80a6:	e8 0d de ff ff       	callq  5eb8 <safe_add_func_uint32_t_u_u>
    80ab:	b8 01 00 00 00       	mov    $0x1,%eax
    80b0:	48 98                	cltq   
    80b2:	48 39 c3             	cmp    %rax,%rbx
    80b5:	0f 86 aa 09 00 00    	jbe    8a65 <func_1+0x22b0>
    80bb:	c7 85 70 ef ff ff 00 	movl   $0x0,-0x1090(%rbp)
    80c2:	00 00 00 
    80c5:	c7 85 74 ef ff ff 00 	movl   $0x0,-0x108c(%rbp)
    80cc:	00 00 00 
    80cf:	c7 85 78 ef ff ff 01 	movl   $0x1,-0x1088(%rbp)
    80d6:	00 00 00 
    80d9:	c7 85 7c ef ff ff 01 	movl   $0x1,-0x1084(%rbp)
    80e0:	00 00 00 
    80e3:	c7 85 80 ef ff ff 00 	movl   $0x0,-0x1080(%rbp)
    80ea:	00 00 00 
    80ed:	c7 85 84 ef ff ff 00 	movl   $0x0,-0x107c(%rbp)
    80f4:	00 00 00 
    80f7:	c7 85 88 ef ff ff 01 	movl   $0x1,-0x1078(%rbp)
    80fe:	00 00 00 
    8101:	c7 85 8c ef ff ff 01 	movl   $0x1,-0x1074(%rbp)
    8108:	00 00 00 
    810b:	c7 85 90 ef ff ff 00 	movl   $0x0,-0x1070(%rbp)
    8112:	00 00 00 
    8115:	c7 85 94 ef ff ff 00 	movl   $0x0,-0x106c(%rbp)
    811c:	00 00 00 
    811f:	c7 85 98 ef ff ff 01 	movl   $0x1,-0x1068(%rbp)
    8126:	00 00 00 
    8129:	c7 85 9c ef ff ff 01 	movl   $0x1,-0x1064(%rbp)
    8130:	00 00 00 
    8133:	c7 85 a0 ef ff ff 00 	movl   $0x0,-0x1060(%rbp)
    813a:	00 00 00 
    813d:	c7 85 a4 ef ff ff 00 	movl   $0x0,-0x105c(%rbp)
    8144:	00 00 00 
    8147:	c7 85 a8 ef ff ff 01 	movl   $0x1,-0x1058(%rbp)
    814e:	00 00 00 
    8151:	c7 85 ac ef ff ff 01 	movl   $0x1,-0x1054(%rbp)
    8158:	00 00 00 
    815b:	48 8d 05 46 14 01 00 	lea    0x11446(%rip),%rax        # 195a8 <g_903>
    8162:	48 89 85 e8 ed ff ff 	mov    %rax,-0x1218(%rbp)
    8169:	48 8d 85 30 ed ff ff 	lea    -0x12d0(%rbp),%rax
    8170:	48 89 85 f0 ed ff ff 	mov    %rax,-0x1210(%rbp)
    8177:	48 c7 85 f8 ed ff ff 	movq   $0x0,-0x1208(%rbp)
    817e:	00 00 00 00 
    8182:	c7 05 b4 0e 01 00 00 	movl   $0x0,0x10eb4(%rip)        # 19040 <g_8>
    8189:	00 00 00 
    818c:	e9 8d 01 00 00       	jmpq   831e <func_1+0x1b69>
    8191:	48 8b 05 08 39 01 00 	mov    0x13908(%rip),%rax        # 1baa0 <g_1503>
    8198:	48 8b 00             	mov    (%rax),%rax
    819b:	0f b7 00             	movzwl (%rax),%eax
    819e:	0f b7 c0             	movzwl %ax,%eax
    81a1:	89 c6                	mov    %eax,%esi
    81a3:	bf 57 61 00 00       	mov    $0x6157,%edi
    81a8:	e8 cd dc ff ff       	callq  5e7a <safe_rshift_func_uint16_t_u_u>
    81ad:	0f b7 c0             	movzwl %ax,%eax
    81b0:	c7 85 5c ee ff ff 5d 	movl   $0x5d,-0x11a4(%rbp)
    81b7:	00 00 00 
    81ba:	89 c6                	mov    %eax,%esi
    81bc:	bf 5d 00 00 00       	mov    $0x5d,%edi
    81c1:	e8 28 d1 ff ff       	callq  52ee <safe_lshift_func_int8_t_s_u>
    81c6:	0f b6 d0             	movzbl %al,%edx
    81c9:	0f b6 45 bd          	movzbl -0x43(%rbp),%eax
    81cd:	0f b6 c0             	movzbl %al,%eax
    81d0:	89 d6                	mov    %edx,%esi
    81d2:	89 c7                	mov    %eax,%edi
    81d4:	e8 ba d9 ff ff       	callq  5b93 <safe_mul_func_uint8_t_u_u>
    81d9:	0f b6 d0             	movzbl %al,%edx
    81dc:	48 8b 85 b8 ed ff ff 	mov    -0x1248(%rbp),%rax
    81e3:	89 10                	mov    %edx,(%rax)
    81e5:	48 8b 85 b8 ed ff ff 	mov    -0x1248(%rbp),%rax
    81ec:	8b 00                	mov    (%rax),%eax
    81ee:	41 89 c5             	mov    %eax,%r13d
    81f1:	0f b6 45 c0          	movzbl -0x40(%rbp),%eax
    81f5:	0f b6 d8             	movzbl %al,%ebx
    81f8:	48 8b 05 29 38 01 00 	mov    0x13829(%rip),%rax        # 1ba28 <g_749>
    81ff:	48 8b 00             	mov    (%rax),%rax
    8202:	0f b6 00             	movzbl (%rax),%eax
    8205:	44 0f be e0          	movsbl %al,%r12d
    8209:	48 8b 05 c0 38 01 00 	mov    0x138c0(%rip),%rax        # 1bad0 <g_1637>
    8210:	48 8b 05 a9 39 01 00 	mov    0x139a9(%rip),%rax        # 1bbc0 <g_1910>
    8217:	48 8b 00             	mov    (%rax),%rax
    821a:	48 8b 00             	mov    (%rax),%rax
    821d:	0f b7 00             	movzwl (%rax),%eax
    8220:	0f b7 d0             	movzwl %ax,%edx
    8223:	48 8b 05 7e 38 01 00 	mov    0x1387e(%rip),%rax        # 1baa8 <g_1502>
    822a:	48 8b 00             	mov    (%rax),%rax
    822d:	48 8b 00             	mov    (%rax),%rax
    8230:	0f b7 00             	movzwl (%rax),%eax
    8233:	0f b7 c0             	movzwl %ax,%eax
    8236:	89 d6                	mov    %edx,%esi
    8238:	89 c7                	mov    %eax,%edi
    823a:	e8 e0 da ff ff       	callq  5d1f <safe_sub_func_uint16_t_u_u>
    823f:	48 8b 05 62 38 01 00 	mov    0x13862(%rip),%rax        # 1baa8 <g_1502>
    8246:	48 8b 00             	mov    (%rax),%rax
    8249:	48 8b 00             	mov    (%rax),%rax
    824c:	0f b7 00             	movzwl (%rax),%eax
    824f:	0f b7 d0             	movzwl %ax,%edx
    8252:	48 8b 85 b8 ed ff ff 	mov    -0x1248(%rbp),%rax
    8259:	8b 00                	mov    (%rax),%eax
    825b:	83 e0 02             	and    $0x2,%eax
    825e:	85 c0                	test   %eax,%eax
    8260:	0f 95 c0             	setne  %al
    8263:	0f b6 c8             	movzbl %al,%ecx
    8266:	48 8b 85 b8 ed ff ff 	mov    -0x1248(%rbp),%rax
    826d:	8b 00                	mov    (%rax),%eax
    826f:	39 c1                	cmp    %eax,%ecx
    8271:	0f 9c c0             	setl   %al
    8274:	0f b6 c0             	movzbl %al,%eax
    8277:	39 c2                	cmp    %eax,%edx
    8279:	0f 9c c0             	setl   %al
    827c:	0f b6 c0             	movzbl %al,%eax
    827f:	44 89 e6             	mov    %r12d,%esi
    8282:	89 c7                	mov    %eax,%edi
    8284:	e8 a8 cf ff ff       	callq  5231 <safe_mod_func_int8_t_s_s>
    8289:	0f be d0             	movsbl %al,%edx
    828c:	48 8b 05 95 37 01 00 	mov    0x13795(%rip),%rax        # 1ba28 <g_749>
    8293:	48 8b 00             	mov    (%rax),%rax
    8296:	0f b6 00             	movzbl (%rax),%eax
    8299:	0f be c0             	movsbl %al,%eax
    829c:	89 d6                	mov    %edx,%esi
    829e:	89 c7                	mov    %eax,%edi
    82a0:	e8 90 d0 ff ff       	callq  5335 <safe_rshift_func_int8_t_s_s>
    82a5:	0f be c0             	movsbl %al,%eax
    82a8:	89 de                	mov    %ebx,%esi
    82aa:	89 c7                	mov    %eax,%edi
    82ac:	e8 1b d4 ff ff       	callq  56cc <safe_mod_func_int32_t_s_s>
    82b1:	0f be c0             	movsbl %al,%eax
    82b4:	44 89 ee             	mov    %r13d,%esi
    82b7:	89 c7                	mov    %eax,%edi
    82b9:	e8 ae d0 ff ff       	callq  536c <safe_rshift_func_int8_t_s_u>
    82be:	66 0f be d0          	movsbw %al,%dx
    82c2:	48 8b 05 8f 32 01 00 	mov    0x1328f(%rip),%rax        # 1b558 <g_563>
    82c9:	0f b7 00             	movzwl (%rax),%eax
    82cc:	66 39 c2             	cmp    %ax,%dx
    82cf:	0f 94 c0             	sete   %al
    82d2:	0f b6 c8             	movzbl %al,%ecx
    82d5:	48 8b 05 04 38 01 00 	mov    0x13804(%rip),%rax        # 1bae0 <g_1730>
    82dc:	48 8b 00             	mov    (%rax),%rax
    82df:	48 8b 00             	mov    (%rax),%rax
    82e2:	48 8b 00             	mov    (%rax),%rax
    82e5:	48 8b 00             	mov    (%rax),%rax
    82e8:	8b 10                	mov    (%rax),%edx
    82ea:	48 8b 05 ef 37 01 00 	mov    0x137ef(%rip),%rax        # 1bae0 <g_1730>
    82f1:	48 8b 00             	mov    (%rax),%rax
    82f4:	48 8b 00             	mov    (%rax),%rax
    82f7:	48 8b 00             	mov    (%rax),%rax
    82fa:	48 8b 00             	mov    (%rax),%rax
    82fd:	09 ca                	or     %ecx,%edx
    82ff:	89 10                	mov    %edx,(%rax)
    8301:	ba 00 00 00 00       	mov    $0x0,%edx
    8306:	48 8b 85 b8 ed ff ff 	mov    -0x1248(%rbp),%rax
    830d:	89 10                	mov    %edx,(%rax)
    830f:	8b 05 2b 0d 01 00    	mov    0x10d2b(%rip),%eax        # 19040 <g_8>
    8315:	83 c0 01             	add    $0x1,%eax
    8318:	89 05 22 0d 01 00    	mov    %eax,0x10d22(%rip)        # 19040 <g_8>
    831e:	8b 05 1c 0d 01 00    	mov    0x10d1c(%rip),%eax        # 19040 <g_8>
    8324:	83 f8 0d             	cmp    $0xd,%eax
    8327:	0f 84 64 fe ff ff    	je     8191 <func_1+0x19dc>
    832d:	48 8b 85 b8 ed ff ff 	mov    -0x1248(%rbp),%rax
    8334:	c7 00 00 00 00 00    	movl   $0x0,(%rax)
    833a:	48 8b 05 e7 36 01 00 	mov    0x136e7(%rip),%rax        # 1ba28 <g_749>
    8341:	48 8b 00             	mov    (%rax),%rax
    8344:	0f b6 00             	movzbl (%rax),%eax
    8347:	0f be d8             	movsbl %al,%ebx
    834a:	48 8b 05 c7 30 01 00 	mov    0x130c7(%rip),%rax        # 1b418 <g_169>
    8351:	0f b6 00             	movzbl (%rax),%eax
    8354:	44 0f b6 e0          	movzbl %al,%r12d
    8358:	0f b6 45 bc          	movzbl -0x44(%rbp),%eax
    835c:	0f b6 d0             	movzbl %al,%edx
    835f:	48 8b 85 e8 ed ff ff 	mov    -0x1218(%rbp),%rax
    8366:	48 89 10             	mov    %rdx,(%rax)
    8369:	48 8b 05 c0 37 01 00 	mov    0x137c0(%rip),%rax        # 1bb30 <g_1867>
    8370:	4c 8b 28             	mov    (%rax),%r13
    8373:	8b 05 4f 16 01 00    	mov    0x1164f(%rip),%eax        # 199c8 <g_1815+0x128>
    8379:	41 89 c6             	mov    %eax,%r14d
    837c:	0f b6 45 bc          	movzbl -0x44(%rbp),%eax
    8380:	84 c0                	test   %al,%al
    8382:	74 53                	je     83d7 <func_1+0x1c22>
    8384:	48 8b 85 e8 ed ff ff 	mov    -0x1218(%rbp),%rax
    838b:	48 8b 95 70 ed ff ff 	mov    -0x1290(%rbp),%rdx
    8392:	48 89 10             	mov    %rdx,(%rax)
    8395:	0f b7 85 de ec ff ff 	movzwl -0x1322(%rbp),%eax
    839c:	0f b7 d0             	movzwl %ax,%edx
    839f:	48 8b 85 b8 ed ff ff 	mov    -0x1248(%rbp),%rax
    83a6:	8b 00                	mov    (%rax),%eax
    83a8:	31 c2                	xor    %eax,%edx
    83aa:	48 8b 05 d7 36 01 00 	mov    0x136d7(%rip),%rax        # 1ba88 <g_1413>
    83b1:	48 8b 00             	mov    (%rax),%rax
    83b4:	48 8b 00             	mov    (%rax),%rax
    83b7:	8b 08                	mov    (%rax),%ecx
    83b9:	83 c1 01             	add    $0x1,%ecx
    83bc:	89 08                	mov    %ecx,(%rax)
    83be:	89 d6                	mov    %edx,%esi
    83c0:	bf 00 00 00 00       	mov    $0x0,%edi
    83c5:	e8 35 d3 ff ff       	callq  56ff <safe_div_func_int32_t_s_s>
    83ca:	88 05 e0 3c 01 00    	mov    %al,0x13ce0(%rip)        # 1c0b0 <g_1074>
    83d0:	ba 01 00 00 00       	mov    $0x1,%edx
    83d5:	eb 05                	jmp    83dc <func_1+0x1c27>
    83d7:	ba 00 00 00 00       	mov    $0x0,%edx
    83dc:	48 8b 05 cd 36 01 00 	mov    0x136cd(%rip),%rax        # 1bab0 <g_1501>
    83e3:	48 8b 00             	mov    (%rax),%rax
    83e6:	48 8b 00             	mov    (%rax),%rax
    83e9:	48 8b 00             	mov    (%rax),%rax
    83ec:	0f b7 00             	movzwl (%rax),%eax
    83ef:	0f b7 c0             	movzwl %ax,%eax
    83f2:	39 c2                	cmp    %eax,%edx
    83f4:	0f 95 c0             	setne  %al
    83f7:	0f b6 c0             	movzbl %al,%eax
    83fa:	be 00 00 00 00       	mov    $0x0,%esi
    83ff:	89 c7                	mov    %eax,%edi
    8401:	e8 2f cf ff ff       	callq  5335 <safe_rshift_func_int8_t_s_s>
    8406:	48 8b 05 bb 30 01 00 	mov    0x130bb(%rip),%rax        # 1b4c8 <g_189>
    840d:	48 8b 00             	mov    (%rax),%rax
    8410:	48 39 85 f0 ed ff ff 	cmp    %rax,-0x1210(%rbp)
    8417:	0f 94 c0             	sete   %al
    841a:	0f b6 d0             	movzbl %al,%edx
    841d:	48 8b 05 84 36 01 00 	mov    0x13684(%rip),%rax        # 1baa8 <g_1502>
    8424:	48 8b 00             	mov    (%rax),%rax
    8427:	48 8b 00             	mov    (%rax),%rax
    842a:	0f b7 00             	movzwl (%rax),%eax
    842d:	0f b7 c0             	movzwl %ax,%eax
    8430:	39 c2                	cmp    %eax,%edx
    8432:	0f 94 c0             	sete   %al
    8435:	0f b6 d0             	movzbl %al,%edx
    8438:	48 8b 05 d9 2f 01 00 	mov    0x12fd9(%rip),%rax        # 1b418 <g_169>
    843f:	0f b6 00             	movzbl (%rax),%eax
    8442:	0f be c0             	movsbl %al,%eax
    8445:	09 d0                	or     %edx,%eax
    8447:	89 85 5c ee ff ff    	mov    %eax,-0x11a4(%rbp)
    844d:	0f b6 45 c4          	movzbl -0x3c(%rbp),%eax
    8451:	84 c0                	test   %al,%al
    8453:	0f 95 c0             	setne  %al
    8456:	0f b6 d0             	movzbl %al,%edx
    8459:	48 8b 05 90 36 01 00 	mov    0x13690(%rip),%rax        # 1baf0 <g_1772>
    8460:	0f b6 00             	movzbl (%rax),%eax
    8463:	0f b6 c0             	movzbl %al,%eax
    8466:	39 c2                	cmp    %eax,%edx
    8468:	0f 94 c0             	sete   %al
    846b:	0f b6 d0             	movzbl %al,%edx
    846e:	0f b6 45 bd          	movzbl -0x43(%rbp),%eax
    8472:	0f b6 c0             	movzbl %al,%eax
    8475:	39 c2                	cmp    %eax,%edx
    8477:	0f 9c c0             	setl   %al
    847a:	0f b6 d0             	movzbl %al,%edx
    847d:	8b 85 98 ef ff ff    	mov    -0x1068(%rbp),%eax
    8483:	f7 d0                	not    %eax
    8485:	48 98                	cltq   
    8487:	48 89 d6             	mov    %rdx,%rsi
    848a:	48 89 c7             	mov    %rax,%rdi
    848d:	e8 9c db ff ff       	callq  602e <safe_add_func_uint64_t_u_u>
    8492:	48 8b 15 df 35 01 00 	mov    0x135df(%rip),%rdx        # 1ba78 <g_1389>
    8499:	0f b6 12             	movzbl (%rdx),%edx
    849c:	0f b6 d2             	movzbl %dl,%edx
    849f:	48 39 d0             	cmp    %rdx,%rax
    84a2:	0f 93 c0             	setae  %al
    84a5:	0f b6 c0             	movzbl %al,%eax
    84a8:	4c 89 f6             	mov    %r14,%rsi
    84ab:	48 89 c7             	mov    %rax,%rdi
    84ae:	e8 cd db ff ff       	callq  6080 <safe_mod_func_uint64_t_u_u>
    84b3:	0f b7 15 be d6 00 00 	movzwl 0xd6be(%rip),%edx        # 15b78 <l_2379.4146+0x8>
    84ba:	48 0f bf d2          	movswq %dx,%rdx
    84be:	48 39 d0             	cmp    %rdx,%rax
    84c1:	0f 97 c0             	seta   %al
    84c4:	0f b6 c0             	movzbl %al,%eax
    84c7:	f7 d0                	not    %eax
    84c9:	23 85 08 ed ff ff    	and    -0x12f8(%rbp),%eax
    84cf:	48 98                	cltq   
    84d1:	49 39 c5             	cmp    %rax,%r13
    84d4:	0f 93 c0             	setae  %al
    84d7:	0f b6 c0             	movzbl %al,%eax
    84da:	48 8b 95 70 ed ff ff 	mov    -0x1290(%rbp),%rdx
    84e1:	48 89 d6             	mov    %rdx,%rsi
    84e4:	48 89 c7             	mov    %rax,%rdi
    84e7:	e8 bc d3 ff ff       	callq  58a8 <safe_sub_func_int64_t_s_s>
    84ec:	8b 15 92 1f 01 00    	mov    0x11f92(%rip),%edx        # 1a484 <g_2380>
    84f2:	89 d2                	mov    %edx,%edx
    84f4:	48 39 d0             	cmp    %rdx,%rax
    84f7:	7c 07                	jl     8500 <func_1+0x1d4b>
    84f9:	ba ff ff ff ff       	mov    $0xffffffff,%edx
    84fe:	eb 05                	jmp    8505 <func_1+0x1d50>
    8500:	ba fe ff ff ff       	mov    $0xfffffffe,%edx
    8505:	48 8b 05 6c 35 01 00 	mov    0x1356c(%rip),%rax        # 1ba78 <g_1389>
    850c:	88 10                	mov    %dl,(%rax)
    850e:	0f b6 00             	movzbl (%rax),%eax
    8511:	0f b6 c0             	movzbl %al,%eax
    8514:	44 89 e6             	mov    %r12d,%esi
    8517:	89 c7                	mov    %eax,%edi
    8519:	e8 90 d6 ff ff       	callq  5bae <safe_mod_func_uint8_t_u_u>
    851e:	0f b6 d0             	movzbl %al,%edx
    8521:	0f be 85 da ec ff ff 	movsbl -0x1326(%rbp),%eax
    8528:	39 c2                	cmp    %eax,%edx
    852a:	0f 9d c0             	setge  %al
    852d:	0f b6 c0             	movzbl %al,%eax
    8530:	89 de                	mov    %ebx,%esi
    8532:	89 c7                	mov    %eax,%edi
    8534:	e8 d9 cc ff ff       	callq  5212 <safe_mul_func_int8_t_s_s>
    8539:	0f be c0             	movsbl %al,%eax
    853c:	39 85 08 ed ff ff    	cmp    %eax,-0x12f8(%rbp)
    8542:	0f 9d c0             	setge  %al
    8545:	0f b6 c0             	movzbl %al,%eax
    8548:	be 00 00 00 00       	mov    $0x0,%esi
    854d:	89 c7                	mov    %eax,%edi
    854f:	e8 b1 d0 ff ff       	callq  5605 <safe_sub_func_int32_t_s_s>
    8554:	89 c2                	mov    %eax,%edx
    8556:	8b 85 08 ed ff ff    	mov    -0x12f8(%rbp),%eax
    855c:	89 c6                	mov    %eax,%esi
    855e:	89 d7                	mov    %edx,%edi
    8560:	e8 67 d1 ff ff       	callq  56cc <safe_mod_func_int32_t_s_s>
    8565:	85 c0                	test   %eax,%eax
    8567:	0f 84 c7 03 00 00    	je     8934 <func_1+0x217f>
    856d:	48 8d 05 42 3b 01 00 	lea    0x13b42(%rip),%rax        # 1c0b6 <g_1102+0x4>
    8574:	48 89 85 00 ee ff ff 	mov    %rax,-0x1200(%rbp)
    857b:	48 8d 85 de ec ff ff 	lea    -0x1322(%rbp),%rax
    8582:	48 89 85 08 ee ff ff 	mov    %rax,-0x11f8(%rbp)
    8589:	c7 85 0c ed ff ff 59 	movl   $0xc8e27a59,-0x12f4(%rbp)
    8590:	7a e2 c8 
    8593:	48 8d 05 da 0d 01 00 	lea    0x10dda(%rip),%rax        # 19374 <g_645+0x34>
    859a:	48 89 85 10 ee ff ff 	mov    %rax,-0x11f0(%rbp)
    85a1:	48 8d 45 bc          	lea    -0x44(%rbp),%rax
    85a5:	48 83 c0 01          	add    $0x1,%rax
    85a9:	48 89 85 18 ee ff ff 	mov    %rax,-0x11e8(%rbp)
    85b0:	c7 85 f4 ec ff ff 00 	movl   $0x0,-0x130c(%rbp)
    85b7:	00 00 00 
    85ba:	eb 1e                	jmp    85da <func_1+0x1e25>
    85bc:	8b 85 f4 ec ff ff    	mov    -0x130c(%rbp),%eax
    85c2:	48 98                	cltq   
    85c4:	48 8d 15 45 2f 01 00 	lea    0x12f45(%rip),%rdx        # 1b510 <g_284+0x30>
    85cb:	48 89 94 c5 70 ee ff 	mov    %rdx,-0x1190(%rbp,%rax,8)
    85d2:	ff 
    85d3:	83 85 f4 ec ff ff 01 	addl   $0x1,-0x130c(%rbp)
    85da:	83 bd f4 ec ff ff 04 	cmpl   $0x4,-0x130c(%rbp)
    85e1:	7e d9                	jle    85bc <func_1+0x1e07>
    85e3:	48 8b 05 b6 34 01 00 	mov    0x134b6(%rip),%rax        # 1baa0 <g_1503>
    85ea:	48 8b 00             	mov    (%rax),%rax
    85ed:	0f b7 00             	movzwl (%rax),%eax
    85f0:	44 0f b7 f8          	movzwl %ax,%r15d
    85f4:	8b 9d 0c ed ff ff    	mov    -0x12f4(%rbp),%ebx
    85fa:	48 8b 05 c7 35 01 00 	mov    0x135c7(%rip),%rax        # 1bbc8 <g_1909>
    8601:	48 8b 00             	mov    (%rax),%rax
    8604:	48 8b 00             	mov    (%rax),%rax
    8607:	48 8b 00             	mov    (%rax),%rax
    860a:	0f b7 00             	movzwl (%rax),%eax
    860d:	44 0f bf e0          	movswl %ax,%r12d
    8611:	48 8b 05 88 34 01 00 	mov    0x13488(%rip),%rax        # 1baa0 <g_1503>
    8618:	48 8b 00             	mov    (%rax),%rax
    861b:	0f b7 10             	movzwl (%rax),%edx
    861e:	48 8b 85 00 ee ff ff 	mov    -0x1200(%rbp),%rax
    8625:	66 89 10             	mov    %dx,(%rax)
    8628:	48 8b 85 00 ee ff ff 	mov    -0x1200(%rbp),%rax
    862f:	0f b7 10             	movzwl (%rax),%edx
    8632:	48 8b 85 08 ee ff ff 	mov    -0x11f8(%rbp),%rax
    8639:	66 89 10             	mov    %dx,(%rax)
    863c:	48 8b 85 b8 ed ff ff 	mov    -0x1248(%rbp),%rax
    8643:	8b 00                	mov    (%rax),%eax
    8645:	44 0f be e8          	movsbl %al,%r13d
    8649:	48 8b 05 50 34 01 00 	mov    0x13450(%rip),%rax        # 1baa0 <g_1503>
    8650:	48 8b 00             	mov    (%rax),%rax
    8653:	0f b7 00             	movzwl (%rax),%eax
    8656:	44 0f b7 f0          	movzwl %ax,%r14d
    865a:	48 8b 05 4f 34 01 00 	mov    0x1344f(%rip),%rax        # 1bab0 <g_1501>
    8661:	48 8b 00             	mov    (%rax),%rax
    8664:	48 8b 00             	mov    (%rax),%rax
    8667:	48 8b 00             	mov    (%rax),%rax
    866a:	0f b7 00             	movzwl (%rax),%eax
    866d:	66 89 85 ce ec ff ff 	mov    %ax,-0x1332(%rbp)
    8674:	0f b7 85 e0 ec ff ff 	movzwl -0x1320(%rbp),%eax
    867b:	0f be d0             	movsbl %al,%edx
    867e:	48 8b 05 43 34 01 00 	mov    0x13443(%rip),%rax        # 1bac8 <g_1638>
    8685:	48 8b 00             	mov    (%rax),%rax
    8688:	48 c7 85 90 ed ff ff 	movq   $0x0,-0x1270(%rbp)
    868f:	00 00 00 00 
    8693:	48 39 85 90 ed ff ff 	cmp    %rax,-0x1270(%rbp)
    869a:	0f 95 c0             	setne  %al
    869d:	0f b6 f0             	movzbl %al,%esi
    86a0:	48 8b 05 f9 33 01 00 	mov    0x133f9(%rip),%rax        # 1baa0 <g_1503>
    86a7:	48 8b 00             	mov    (%rax),%rax
    86aa:	0f b7 00             	movzwl (%rax),%eax
    86ad:	0f b7 c8             	movzwl %ax,%ecx
    86b0:	48 8b 05 79 34 01 00 	mov    0x13479(%rip),%rax        # 1bb30 <g_1867>
    86b7:	48 8b 38             	mov    (%rax),%rdi
    86ba:	48 63 f6             	movslq %esi,%rsi
    86bd:	48 8b 05 6c 34 01 00 	mov    0x1346c(%rip),%rax        # 1bb30 <g_1867>
    86c4:	48 31 fe             	xor    %rdi,%rsi
    86c7:	48 89 30             	mov    %rsi,(%rax)
    86ca:	48 8b 30             	mov    (%rax),%rsi
    86cd:	0f b6 45 c0          	movzbl -0x40(%rbp),%eax
    86d1:	0f b6 c0             	movzbl %al,%eax
    86d4:	48 39 c6             	cmp    %rax,%rsi
    86d7:	0f 97 c0             	seta   %al
    86da:	0f b6 c0             	movzbl %al,%eax
    86dd:	39 c1                	cmp    %eax,%ecx
    86df:	0f 9c c0             	setl   %al
    86e2:	0f b6 c8             	movzbl %al,%ecx
    86e5:	8b 85 5c ee ff ff    	mov    -0x11a4(%rbp),%eax
    86eb:	31 c1                	xor    %eax,%ecx
    86ed:	8b 05 d1 10 01 00    	mov    0x110d1(%rip),%eax        # 197c4 <g_1444>
    86f3:	39 c1                	cmp    %eax,%ecx
    86f5:	0f 94 c0             	sete   %al
    86f8:	0f b6 c0             	movzbl %al,%eax
    86fb:	89 d6                	mov    %edx,%esi
    86fd:	89 c7                	mov    %eax,%edi
    86ff:	e8 0e cb ff ff       	callq  5212 <safe_mul_func_int8_t_s_s>
    8704:	66 98                	cbtw   
    8706:	0f b7 95 ce ec ff ff 	movzwl -0x1332(%rbp),%edx
    870d:	21 c2                	and    %eax,%edx
    870f:	0f b7 85 e0 ec ff ff 	movzwl -0x1320(%rbp),%eax
    8716:	21 d0                	and    %edx,%eax
    8718:	98                   	cwtl   
    8719:	44 89 f6             	mov    %r14d,%esi
    871c:	89 c7                	mov    %eax,%edi
    871e:	e8 be cd ff ff       	callq  54e1 <safe_lshift_func_int16_t_s_u>
    8723:	48 0f bf d0          	movswq %ax,%rdx
    8727:	48 8b 85 e8 ed ff ff 	mov    -0x1218(%rbp),%rax
    872e:	48 89 10             	mov    %rdx,(%rax)
    8731:	44 89 ee             	mov    %r13d,%esi
    8734:	bf 95 ff ff ff       	mov    $0xffffff95,%edi
    8739:	e8 96 ca ff ff       	callq  51d4 <safe_add_func_int8_t_s_s>
    873e:	be 0b 00 00 00       	mov    $0xb,%esi
    8743:	bf 01 00 00 00       	mov    $0x1,%edi
    8748:	e8 dd cd ff ff       	callq  552a <safe_rshift_func_int16_t_s_s>
    874d:	98                   	cwtl   
    874e:	44 89 e6             	mov    %r12d,%esi
    8751:	89 c7                	mov    %eax,%edi
    8753:	e8 9d cc ff ff       	callq  53f5 <safe_mul_func_int16_t_s_s>
    8758:	0f be c0             	movsbl %al,%eax
    875b:	89 c6                	mov    %eax,%esi
    875d:	bf 76 00 00 00       	mov    $0x76,%edi
    8762:	e8 ca ca ff ff       	callq  5231 <safe_mod_func_int8_t_s_s>
    8767:	83 bd 08 ed ff ff 00 	cmpl   $0x0,-0x12f8(%rbp)
    876e:	74 07                	je     8777 <func_1+0x1fc2>
    8770:	b8 01 00 00 00       	mov    $0x1,%eax
    8775:	eb 05                	jmp    877c <func_1+0x1fc7>
    8777:	b8 00 00 00 00       	mov    $0x0,%eax
    877c:	0f b6 c0             	movzbl %al,%eax
    877f:	89 de                	mov    %ebx,%esi
    8781:	89 c7                	mov    %eax,%edi
    8783:	e8 c4 d4 ff ff       	callq  5c4c <safe_lshift_func_uint8_t_u_u>
    8788:	84 c0                	test   %al,%al
    878a:	75 0a                	jne    8796 <func_1+0x1fe1>
    878c:	8b 85 e8 ec ff ff    	mov    -0x1318(%rbp),%eax
    8792:	85 c0                	test   %eax,%eax
    8794:	74 07                	je     879d <func_1+0x1fe8>
    8796:	b8 01 00 00 00       	mov    $0x1,%eax
    879b:	eb 05                	jmp    87a2 <func_1+0x1fed>
    879d:	b8 00 00 00 00       	mov    $0x0,%eax
    87a2:	44 31 f8             	xor    %r15d,%eax
    87a5:	89 85 e8 ec ff ff    	mov    %eax,-0x1318(%rbp)
    87ab:	ba 01 00 00 00       	mov    $0x1,%edx
    87b0:	48 8b 85 10 ee ff ff 	mov    -0x11f0(%rbp),%rax
    87b7:	8b 00                	mov    (%rax),%eax
    87b9:	21 c2                	and    %eax,%edx
    87bb:	48 8b 85 10 ee ff ff 	mov    -0x11f0(%rbp),%rax
    87c2:	89 10                	mov    %edx,(%rax)
    87c4:	48 8b 05 ad 32 01 00 	mov    0x132ad(%rip),%rax        # 1ba78 <g_1389>
    87cb:	0f b6 10             	movzbl (%rax),%edx
    87ce:	83 c2 01             	add    $0x1,%edx
    87d1:	88 10                	mov    %dl,(%rax)
    87d3:	0f b6 00             	movzbl (%rax),%eax
    87d6:	0f b6 d8             	movzbl %al,%ebx
    87d9:	48 8b 05 10 33 01 00 	mov    0x13310(%rip),%rax        # 1baf0 <g_1772>
    87e0:	0f b6 00             	movzbl (%rax),%eax
    87e3:	0f b6 d0             	movzbl %al,%edx
    87e6:	48 83 bd 60 ed ff ff 	cmpq   $0x0,-0x12a0(%rbp)
    87ed:	00 
    87ee:	0f 94 c0             	sete   %al
    87f1:	0f b6 c0             	movzbl %al,%eax
    87f4:	09 d0                	or     %edx,%eax
    87f6:	4c 63 e0             	movslq %eax,%r12
    87f9:	48 8b 05 30 34 01 00 	mov    0x13430(%rip),%rax        # 1bc30 <g_2317>
    8800:	48 8b 00             	mov    (%rax),%rax
    8803:	48 8b 00             	mov    (%rax),%rax
    8806:	8b 00                	mov    (%rax),%eax
    8808:	41 89 c5             	mov    %eax,%r13d
    880b:	48 8b 85 70 ed ff ff 	mov    -0x1290(%rbp),%rax
    8812:	0f be d0             	movsbl %al,%edx
    8815:	48 c7 85 f8 ed ff ff 	movq   $0x0,-0x1208(%rbp)
    881c:	00 00 00 00 
    8820:	48 8b 05 99 32 01 00 	mov    0x13299(%rip),%rax        # 1bac0 <g_1632>
    8827:	48 8b 00             	mov    (%rax),%rax
    882a:	48 8b 00             	mov    (%rax),%rax
    882d:	48 39 85 f8 ed ff ff 	cmp    %rax,-0x1208(%rbp)
    8834:	0f 95 c0             	setne  %al
    8837:	0f b6 c0             	movzbl %al,%eax
    883a:	89 d6                	mov    %edx,%esi
    883c:	89 c7                	mov    %eax,%edi
    883e:	e8 cf c9 ff ff       	callq  5212 <safe_mul_func_int8_t_s_s>
    8843:	48 8b 85 70 ed ff ff 	mov    -0x1290(%rbp),%rax
    884a:	0f b7 c0             	movzwl %ax,%eax
    884d:	48 8b 95 18 ee ff ff 	mov    -0x11e8(%rbp),%rdx
    8854:	0f b6 12             	movzbl (%rdx),%edx
    8857:	89 d1                	mov    %edx,%ecx
    8859:	83 e1 27             	and    $0x27,%ecx
    885c:	48 8b 95 18 ee ff ff 	mov    -0x11e8(%rbp),%rdx
    8863:	88 0a                	mov    %cl,(%rdx)
    8865:	89 c6                	mov    %eax,%esi
    8867:	bf 92 8d 00 00       	mov    $0x8d92,%edi
    886c:	e8 ae d4 ff ff       	callq  5d1f <safe_sub_func_uint16_t_u_u>
    8871:	66 85 c0             	test   %ax,%ax
    8874:	75 08                	jne    887e <func_1+0x20c9>
    8876:	8b 85 ec ec ff ff    	mov    -0x1314(%rbp),%eax
    887c:	85 c0                	test   %eax,%eax
    887e:	48 8b 05 f3 2c 01 00 	mov    0x12cf3(%rip),%rax        # 1b578 <g_638>
    8885:	be 05 00 00 00       	mov    $0x5,%esi
    888a:	bf 01 00 00 00       	mov    $0x1,%edi
    888f:	e8 14 d0 ff ff       	callq  58a8 <safe_sub_func_int64_t_s_s>
    8894:	4c 09 e8             	or     %r13,%rax
    8897:	49 39 c4             	cmp    %rax,%r12
    889a:	0f 9e c0             	setle  %al
    889d:	0f b6 c0             	movzbl %al,%eax
    88a0:	09 d8                	or     %ebx,%eax
    88a2:	89 c2                	mov    %eax,%edx
    88a4:	b8 33 47 36 35       	mov    $0x35364733,%eax
    88a9:	39 c2                	cmp    %eax,%edx
    88ab:	0f 97 c0             	seta   %al
    88ae:	0f b6 d0             	movzbl %al,%edx
    88b1:	8b 05 7d 09 01 00    	mov    0x1097d(%rip),%eax        # 19234 <g_17+0x154>
    88b7:	39 c2                	cmp    %eax,%edx
    88b9:	0f 97 c0             	seta   %al
    88bc:	0f b6 c0             	movzbl %al,%eax
    88bf:	89 85 5c ee ff ff    	mov    %eax,-0x11a4(%rbp)
    88c5:	8b 95 5c ee ff ff    	mov    -0x11a4(%rbp),%edx
    88cb:	48 8b 85 b8 ed ff ff 	mov    -0x1248(%rbp),%rax
    88d2:	89 10                	mov    %edx,(%rax)
    88d4:	48 8b 85 b8 ed ff ff 	mov    -0x1248(%rbp),%rax
    88db:	8b 10                	mov    (%rax),%edx
    88dd:	48 8b 85 10 ee ff ff 	mov    -0x11f0(%rbp),%rax
    88e4:	8b 00                	mov    (%rax),%eax
    88e6:	31 c2                	xor    %eax,%edx
    88e8:	48 8b 85 10 ee ff ff 	mov    -0x11f0(%rbp),%rax
    88ef:	89 10                	mov    %edx,(%rax)
    88f1:	8b 3d 49 07 01 00    	mov    0x10749(%rip),%edi        # 19040 <g_8>
    88f7:	48 8b 95 48 ed ff ff 	mov    -0x12b8(%rbp),%rdx
    88fe:	0f b6 45 bc          	movzbl -0x44(%rbp),%eax
    8902:	0f b6 f0             	movzbl %al,%esi
    8905:	48 8b 85 b8 ed ff ff 	mov    -0x1248(%rbp),%rax
    890c:	8b 00                	mov    (%rax),%eax
    890e:	0f b6 c0             	movzbl %al,%eax
    8911:	48 8b 0d 58 2c 01 00 	mov    0x12c58(%rip),%rcx        # 1b570 <g_639>
    8918:	48 8b 19             	mov    (%rcx),%rbx
    891b:	48 8d 8d ec ec ff ff 	lea    -0x1314(%rbp),%rcx
    8922:	41 89 f8             	mov    %edi,%r8d
    8925:	89 c7                	mov    %eax,%edi
    8927:	e8 31 63 00 00       	callq  ec5d <func_28>
    892c:	48 89 03             	mov    %rax,(%rbx)
    892f:	e9 3d 01 00 00       	jmpq   8a71 <func_1+0x22bc>
    8934:	c7 85 f8 ec ff ff 00 	movl   $0x0,-0x1308(%rbp)
    893b:	00 00 00 
    893e:	eb 46                	jmp    8986 <func_1+0x21d1>
    8940:	c7 85 fc ec ff ff 00 	movl   $0x0,-0x1304(%rbp)
    8947:	00 00 00 
    894a:	eb 2a                	jmp    8976 <func_1+0x21c1>
    894c:	8b 85 fc ec ff ff    	mov    -0x1304(%rbp),%eax
    8952:	48 63 d0             	movslq %eax,%rdx
    8955:	8b 85 f8 ec ff ff    	mov    -0x1308(%rbp),%eax
    895b:	48 98                	cltq   
    895d:	48 01 d0             	add    %rdx,%rax
    8960:	48 8d 15 5d 0e 01 00 	lea    0x10e5d(%rip),%rdx        # 197c4 <g_1444>
    8967:	48 89 94 c5 70 ee ff 	mov    %rdx,-0x1190(%rbp,%rax,8)
    896e:	ff 
    896f:	83 85 fc ec ff ff 01 	addl   $0x1,-0x1304(%rbp)
    8976:	83 bd fc ec ff ff 00 	cmpl   $0x0,-0x1304(%rbp)
    897d:	7e cd                	jle    894c <func_1+0x2197>
    897f:	83 85 f8 ec ff ff 01 	addl   $0x1,-0x1308(%rbp)
    8986:	83 bd f8 ec ff ff 01 	cmpl   $0x1,-0x1308(%rbp)
    898d:	7e b1                	jle    8940 <func_1+0x218b>
    898f:	48 8b 05 c2 2b 01 00 	mov    0x12bc2(%rip),%rax        # 1b558 <g_563>
    8996:	0f b7 00             	movzwl (%rax),%eax
    8999:	66 85 c0             	test   %ax,%ax
    899c:	48 8b 05 65 2a 01 00 	mov    0x12a65(%rip),%rax        # 1b408 <g_58>
    89a3:	48 8b 10             	mov    (%rax),%rdx
    89a6:	48 8b 85 78 ee ff ff 	mov    -0x1188(%rbp),%rax
    89ad:	48 39 c2             	cmp    %rax,%rdx
    89b0:	0f b6 05 f9 36 01 00 	movzbl 0x136f9(%rip),%eax        # 1c0b0 <g_1074>
    89b7:	83 c8 fd             	or     $0xfffffffd,%eax
    89ba:	88 05 f0 36 01 00    	mov    %al,0x136f0(%rip)        # 1c0b0 <g_1074>
    89c0:	0f b6 05 e9 36 01 00 	movzbl 0x136e9(%rip),%eax        # 1c0b0 <g_1074>
    89c7:	0f be c0             	movsbl %al,%eax
    89ca:	be 01 00 00 00       	mov    $0x1,%esi
    89cf:	89 c7                	mov    %eax,%edi
    89d1:	e8 96 c9 ff ff       	callq  536c <safe_rshift_func_int8_t_s_u>
    89d6:	0f be c0             	movsbl %al,%eax
    89d9:	48 8b 95 b8 ed ff ff 	mov    -0x1248(%rbp),%rdx
    89e0:	8b 12                	mov    (%rdx),%edx
    89e2:	89 c6                	mov    %eax,%esi
    89e4:	89 d7                	mov    %edx,%edi
    89e6:	e8 12 d5 ff ff       	callq  5efd <safe_mod_func_uint32_t_u_u>
    89eb:	48 8b 95 b8 ed ff ff 	mov    -0x1248(%rbp),%rdx
    89f2:	8b 12                	mov    (%rdx),%edx
    89f4:	85 d2                	test   %edx,%edx
    89f6:	0f 95 c2             	setne  %dl
    89f9:	0f b6 d2             	movzbl %dl,%edx
    89fc:	39 d0                	cmp    %edx,%eax
    89fe:	0f 93 c0             	setae  %al
    8a01:	0f b6 c8             	movzbl %al,%ecx
    8a04:	48 8b 05 55 2b 01 00 	mov    0x12b55(%rip),%rax        # 1b560 <g_570>
    8a0b:	0f b7 10             	movzwl (%rax),%edx
    8a0e:	48 8b 05 4b 2b 01 00 	mov    0x12b4b(%rip),%rax        # 1b560 <g_570>
    8a15:	31 ca                	xor    %ecx,%edx
    8a17:	66 89 10             	mov    %dx,(%rax)
    8a1a:	48 8b 05 af 30 01 00 	mov    0x130af(%rip),%rax        # 1bad0 <g_1637>
    8a21:	48 8b 95 78 ee ff ff 	mov    -0x1188(%rbp),%rdx
    8a28:	48 8b 85 48 ed ff ff 	mov    -0x12b8(%rbp),%rax
    8a2f:	48 39 c2             	cmp    %rax,%rdx
    8a32:	0f 95 c0             	setne  %al
    8a35:	0f b6 c0             	movzbl %al,%eax
    8a38:	48 89 c6             	mov    %rax,%rsi
    8a3b:	48 bf fd d3 56 96 e9 	movabs $0x8e8656e99656d3fd,%rdi
    8a42:	56 86 8e 
    8a45:	e8 e4 d5 ff ff       	callq  602e <safe_add_func_uint64_t_u_u>
    8a4a:	98                   	cwtl   
    8a4b:	be 04 00 00 00       	mov    $0x4,%esi
    8a50:	89 c7                	mov    %eax,%edi
    8a52:	e8 d3 ca ff ff       	callq  552a <safe_rshift_func_int16_t_s_s>
    8a57:	0f bf d0             	movswl %ax,%edx
    8a5a:	48 8b 85 b8 ed ff ff 	mov    -0x1248(%rbp),%rax
    8a61:	89 10                	mov    %edx,(%rax)
    8a63:	eb 0c                	jmp    8a71 <func_1+0x22bc>
    8a65:	48 8b 85 78 ed ff ff 	mov    -0x1288(%rbp),%rax
    8a6c:	e9 64 12 00 00       	jmpq   9cd5 <func_1+0x3520>
    8a71:	48 8b 85 b8 ed ff ff 	mov    -0x1248(%rbp),%rax
    8a78:	c7 00 01 00 00 00    	movl   $0x1,(%rax)
    8a7e:	44 0f b7 ad e2 ec ff 	movzwl -0x131e(%rbp),%r13d
    8a85:	ff 
    8a86:	8b 1d b4 05 01 00    	mov    0x105b4(%rip),%ebx        # 19040 <g_8>
    8a8c:	44 8b 25 b1 0d 01 00 	mov    0x10db1(%rip),%r12d        # 19844 <g_1678+0x4>
    8a93:	48 8b 05 de 2a 01 00 	mov    0x12ade(%rip),%rax        # 1b578 <g_638>
    8a9a:	48 8b 10             	mov    (%rax),%rdx
    8a9d:	48 8b 05 cc 2a 01 00 	mov    0x12acc(%rip),%rax        # 1b570 <g_639>
    8aa4:	48 8b 12             	mov    (%rdx),%rdx
    8aa7:	48 89 10             	mov    %rdx,(%rax)
    8aaa:	48 8b 08             	mov    (%rax),%rcx
    8aad:	48 8b 85 c8 ed ff ff 	mov    -0x1238(%rbp),%rax
    8ab4:	48 8d 15 75 2a 01 00 	lea    0x12a75(%rip),%rdx        # 1b530 <g_355>
    8abb:	48 89 10             	mov    %rdx,(%rax)
    8abe:	48 8b 85 c8 ed ff ff 	mov    -0x1238(%rbp),%rax
    8ac5:	48 8b 10             	mov    (%rax),%rdx
    8ac8:	48 8b 85 e0 ed ff ff 	mov    -0x1220(%rbp),%rax
    8acf:	48 89 10             	mov    %rdx,(%rax)
    8ad2:	48 8b 85 e0 ed ff ff 	mov    -0x1220(%rbp),%rax
    8ad9:	48 8b 00             	mov    (%rax),%rax
    8adc:	48 39 c1             	cmp    %rax,%rcx
    8adf:	0f 94 c0             	sete   %al
    8ae2:	0f b6 d0             	movzbl %al,%edx
    8ae5:	48 8b 05 54 30 01 00 	mov    0x13054(%rip),%rax        # 1bb40 <g_1912>
    8aec:	0f b7 00             	movzwl (%rax),%eax
    8aef:	98                   	cwtl   
    8af0:	39 c2                	cmp    %eax,%edx
    8af2:	0f 9e c0             	setle  %al
    8af5:	0f b6 c0             	movzbl %al,%eax
    8af8:	48 8b 95 c0 ed ff ff 	mov    -0x1240(%rbp),%rdx
    8aff:	31 d0                	xor    %edx,%eax
    8b01:	0f b7 c0             	movzwl %ax,%eax
    8b04:	89 c6                	mov    %eax,%esi
    8b06:	bf c7 6e 00 00       	mov    $0x6ec7,%edi
    8b0b:	e8 4c d2 ff ff       	callq  5d5c <safe_mod_func_uint16_t_u_u>
    8b10:	0f b7 f0             	movzwl %ax,%esi
    8b13:	0f b7 85 4e ee ff ff 	movzwl -0x11b2(%rbp),%eax
    8b1a:	0f b6 c0             	movzbl %al,%eax
    8b1d:	45 89 e0             	mov    %r12d,%r8d
    8b20:	48 8d 0d 9d 0c 01 00 	lea    0x10c9d(%rip),%rcx        # 197c4 <g_1444>
    8b27:	48 8d 15 5a 05 01 00 	lea    0x1055a(%rip),%rdx        # 19088 <g_12+0x28>
    8b2e:	89 c7                	mov    %eax,%edi
    8b30:	e8 28 61 00 00       	callq  ec5d <func_28>
    8b35:	48 89 c7             	mov    %rax,%rdi
    8b38:	48 8b 85 b8 ed ff ff 	mov    -0x1248(%rbp),%rax
    8b3f:	8b 30                	mov    (%rax),%esi
    8b41:	48 8b 05 30 2f 01 00 	mov    0x12f30(%rip),%rax        # 1ba78 <g_1389>
    8b48:	0f b6 00             	movzbl (%rax),%eax
    8b4b:	0f b6 c0             	movzbl %al,%eax
    8b4e:	48 8d 95 e8 ec ff ff 	lea    -0x1318(%rbp),%rdx
    8b55:	41 89 d8             	mov    %ebx,%r8d
    8b58:	48 89 d1             	mov    %rdx,%rcx
    8b5b:	48 89 fa             	mov    %rdi,%rdx
    8b5e:	89 c7                	mov    %eax,%edi
    8b60:	e8 f8 60 00 00       	callq  ec5d <func_28>
    8b65:	49 89 c4             	mov    %rax,%r12
    8b68:	48 8b 85 b8 ed ff ff 	mov    -0x1248(%rbp),%rax
    8b6f:	8b 18                	mov    (%rax),%ebx
    8b71:	be 07 00 00 00       	mov    $0x7,%esi
    8b76:	bf ce ff ff ff       	mov    $0xffffffce,%edi
    8b7b:	e8 21 c7 ff ff       	callq  52a1 <safe_lshift_func_int8_t_s_s>
    8b80:	0f b6 c0             	movzbl %al,%eax
    8b83:	45 89 e8             	mov    %r13d,%r8d
    8b86:	48 8d 0d 1b 05 01 00 	lea    0x1051b(%rip),%rcx        # 190a8 <g_12+0x48>
    8b8d:	4c 89 e2             	mov    %r12,%rdx
    8b90:	89 de                	mov    %ebx,%esi
    8b92:	89 c7                	mov    %eax,%edi
    8b94:	e8 c4 60 00 00       	callq  ec5d <func_28>
    8b99:	48 89 85 30 ed ff ff 	mov    %rax,-0x12d0(%rbp)
    8ba0:	8b 85 e8 ec ff ff    	mov    -0x1318(%rbp),%eax
    8ba6:	85 c0                	test   %eax,%eax
    8ba8:	0f 85 31 01 00 00    	jne    8cdf <func_1+0x252a>
    8bae:	0f b6 05 51 07 01 00 	movzbl 0x10751(%rip),%eax        # 19306 <g_170>
    8bb5:	0f b6 c0             	movzbl %al,%eax
    8bb8:	be 08 00 00 00       	mov    $0x8,%esi
    8bbd:	89 c7                	mov    %eax,%edi
    8bbf:	e8 96 cf ff ff       	callq  5b5a <safe_add_func_uint8_t_u_u>
    8bc4:	88 05 3c 07 01 00    	mov    %al,0x1073c(%rip)        # 19306 <g_170>
    8bca:	0f b6 05 35 07 01 00 	movzbl 0x10735(%rip),%eax        # 19306 <g_170>
    8bd1:	3c 08                	cmp    $0x8,%al
    8bd3:	0f 8e 5c e5 ff ff    	jle    7135 <func_1+0x980>
    8bd9:	e9 02 01 00 00       	jmpq   8ce0 <func_1+0x252b>
    8bde:	c6 85 d9 ec ff ff 24 	movb   $0x24,-0x1327(%rbp)
    8be5:	c7 85 f0 f1 ff ff 01 	movl   $0x1,-0xe10(%rbp)
    8bec:	00 00 00 
    8bef:	c7 85 f4 f1 ff ff 01 	movl   $0x1,-0xe0c(%rbp)
    8bf6:	00 00 00 
    8bf9:	c7 85 f8 f1 ff ff 0b 	movl   $0xbe2bd0b,-0xe08(%rbp)
    8c00:	bd e2 0b 
    8c03:	c7 85 fc f1 ff ff 01 	movl   $0x1,-0xe04(%rbp)
    8c0a:	00 00 00 
    8c0d:	c7 85 00 f2 ff ff 01 	movl   $0x1,-0xe00(%rbp)
    8c14:	00 00 00 
    8c17:	c7 85 04 f2 ff ff 0b 	movl   $0xbe2bd0b,-0xdfc(%rbp)
    8c1e:	bd e2 0b 
    8c21:	c7 85 08 f2 ff ff 01 	movl   $0x1,-0xdf8(%rbp)
    8c28:	00 00 00 
    8c2b:	c7 85 0c f2 ff ff 01 	movl   $0x1,-0xdf4(%rbp)
    8c32:	00 00 00 
    8c35:	48 8d 85 e8 ec ff ff 	lea    -0x1318(%rbp),%rax
    8c3c:	48 89 85 e0 ee ff ff 	mov    %rax,-0x1120(%rbp)
    8c43:	48 8b 05 76 2f 01 00 	mov    0x12f76(%rip),%rax        # 1bbc0 <g_1910>
    8c4a:	48 8b 00             	mov    (%rax),%rax
    8c4d:	48 8b 00             	mov    (%rax),%rax
    8c50:	0f b7 00             	movzwl (%rax),%eax
    8c53:	0f b7 d8             	movzwl %ax,%ebx
    8c56:	48 8b 05 ab 27 01 00 	mov    0x127ab(%rip),%rax        # 1b408 <g_58>
    8c5d:	48 8b 00             	mov    (%rax),%rax
    8c60:	8b 10                	mov    (%rax),%edx
    8c62:	48 8b 05 17 2e 01 00 	mov    0x12e17(%rip),%rax        # 1ba80 <g_1414>
    8c69:	48 8b 00             	mov    (%rax),%rax
    8c6c:	8b 00                	mov    (%rax),%eax
    8c6e:	89 d6                	mov    %edx,%esi
    8c70:	89 c7                	mov    %eax,%edi
    8c72:	e8 86 d2 ff ff       	callq  5efd <safe_mod_func_uint32_t_u_u>
    8c77:	66 0f be 85 d9 ec ff 	movsbw -0x1327(%rbp),%ax
    8c7e:	ff 
    8c7f:	0f b7 c0             	movzwl %ax,%eax
    8c82:	89 de                	mov    %ebx,%esi
    8c84:	89 c7                	mov    %eax,%edi
    8c86:	e8 94 d0 ff ff       	callq  5d1f <safe_sub_func_uint16_t_u_u>
    8c8b:	0f b7 d0             	movzwl %ax,%edx
    8c8e:	48 8b 05 fb 2d 01 00 	mov    0x12dfb(%rip),%rax        # 1ba90 <g_1417>
    8c95:	48 8b 00             	mov    (%rax),%rax
    8c98:	48 8b 00             	mov    (%rax),%rax
    8c9b:	48 8b 00             	mov    (%rax),%rax
    8c9e:	8b 00                	mov    (%rax),%eax
    8ca0:	89 d6                	mov    %edx,%esi
    8ca2:	89 c7                	mov    %eax,%edi
    8ca4:	e8 27 d2 ff ff       	callq  5ed0 <safe_sub_func_uint32_t_u_u>
    8ca9:	85 c0                	test   %eax,%eax
    8cab:	75 0d                	jne    8cba <func_1+0x2505>
    8cad:	48 8b 05 7c 2e 01 00 	mov    0x12e7c(%rip),%rax        # 1bb30 <g_1867>
    8cb4:	48 8b 00             	mov    (%rax),%rax
    8cb7:	48 85 c0             	test   %rax,%rax
    8cba:	90                   	nop
    8cbb:	ba 00 00 00 00       	mov    $0x0,%edx
    8cc0:	8b 85 f8 f1 ff ff    	mov    -0xe08(%rbp),%eax
    8cc6:	09 d0                	or     %edx,%eax
    8cc8:	89 85 f8 f1 ff ff    	mov    %eax,-0xe08(%rbp)
    8cce:	8b 85 f8 f1 ff ff    	mov    -0xe08(%rbp),%eax
    8cd4:	89 05 ae 17 01 00    	mov    %eax,0x117ae(%rip)        # 1a488 <g_2450>
    8cda:	eb 04                	jmp    8ce0 <func_1+0x252b>
    8cdc:	90                   	nop
    8cdd:	eb 01                	jmp    8ce0 <func_1+0x252b>
    8cdf:	90                   	nop
    8ce0:	48 8b 05 b9 2d 01 00 	mov    0x12db9(%rip),%rax        # 1baa0 <g_1503>
    8ce7:	48 8b 00             	mov    (%rax),%rax
    8cea:	0f b7 00             	movzwl (%rax),%eax
    8ced:	0f bf d8             	movswl %ax,%ebx
    8cf0:	b8 88 ff b0 c1       	mov    $0xc1b0ff88,%eax
    8cf5:	41 89 c5             	mov    %eax,%r13d
    8cf8:	0f b6 85 0b f1 ff ff 	movzbl -0xef5(%rbp),%eax
    8cff:	44 0f be e0          	movsbl %al,%r12d
    8d03:	48 8b 05 26 2e 01 00 	mov    0x12e26(%rip),%rax        # 1bb30 <g_1867>
    8d0a:	48 8b 00             	mov    (%rax),%rax
    8d0d:	48 89 c2             	mov    %rax,%rdx
    8d10:	8b 05 76 17 01 00    	mov    0x11776(%rip),%eax        # 1a48c <g_2468>
    8d16:	48 98                	cltq   
    8d18:	48 89 d6             	mov    %rdx,%rsi
    8d1b:	48 89 c7             	mov    %rax,%rdi
    8d1e:	e8 85 cb ff ff       	callq  58a8 <safe_sub_func_int64_t_s_s>
    8d23:	44 89 e6             	mov    %r12d,%esi
    8d26:	89 c7                	mov    %eax,%edi
    8d28:	e8 f8 d1 ff ff       	callq  5f25 <safe_div_func_uint32_t_u_u>
    8d2d:	0f bf d0             	movswl %ax,%edx
    8d30:	48 8b 05 89 2e 01 00 	mov    0x12e89(%rip),%rax        # 1bbc0 <g_1910>
    8d37:	48 8b 00             	mov    (%rax),%rax
    8d3a:	48 8b 00             	mov    (%rax),%rax
    8d3d:	0f b7 00             	movzwl (%rax),%eax
    8d40:	98                   	cwtl   
    8d41:	89 d6                	mov    %edx,%esi
    8d43:	89 c7                	mov    %eax,%edi
    8d45:	e8 0b c7 ff ff       	callq  5455 <safe_div_func_int16_t_s_s>
    8d4a:	22 85 d8 ec ff ff    	and    -0x1328(%rbp),%al
    8d50:	0f b6 c0             	movzbl %al,%eax
    8d53:	be 03 00 00 00       	mov    $0x3,%esi
    8d58:	89 c7                	mov    %eax,%edi
    8d5a:	e8 a6 ce ff ff       	callq  5c05 <safe_lshift_func_uint8_t_u_s>
    8d5f:	0f b6 c0             	movzbl %al,%eax
    8d62:	4c 89 ee             	mov    %r13,%rsi
    8d65:	48 89 c7             	mov    %rax,%rdi
    8d68:	e8 de d2 ff ff       	callq  604b <safe_sub_func_uint64_t_u_u>
    8d6d:	48 85 c0             	test   %rax,%rax
    8d70:	75 0a                	jne    8d7c <func_1+0x25c7>
    8d72:	8b 05 78 06 01 00    	mov    0x10678(%rip),%eax        # 193f0 <g_645+0xb0>
    8d78:	85 c0                	test   %eax,%eax
    8d7a:	74 16                	je     8d92 <func_1+0x25dd>
    8d7c:	48 8b 05 ad 2d 01 00 	mov    0x12dad(%rip),%rax        # 1bb30 <g_1867>
    8d83:	48 8b 00             	mov    (%rax),%rax
    8d86:	48 85 c0             	test   %rax,%rax
    8d89:	74 07                	je     8d92 <func_1+0x25dd>
    8d8b:	ba 01 00 00 00       	mov    $0x1,%edx
    8d90:	eb 05                	jmp    8d97 <func_1+0x25e2>
    8d92:	ba 00 00 00 00       	mov    $0x0,%edx
    8d97:	48 8b 05 ba 27 01 00 	mov    0x127ba(%rip),%rax        # 1b558 <g_563>
    8d9e:	66 89 10             	mov    %dx,(%rax)
    8da1:	0f b7 00             	movzwl (%rax),%eax
    8da4:	66 85 c0             	test   %ax,%ax
    8da7:	74 07                	je     8db0 <func_1+0x25fb>
    8da9:	b9 01 00 00 00       	mov    $0x1,%ecx
    8dae:	eb 05                	jmp    8db5 <func_1+0x2600>
    8db0:	b9 00 00 00 00       	mov    $0x0,%ecx
    8db5:	48 8b 05 bc 2c 01 00 	mov    0x12cbc(%rip),%rax        # 1ba78 <g_1389>
    8dbc:	0f b6 00             	movzbl (%rax),%eax
    8dbf:	89 c2                	mov    %eax,%edx
    8dc1:	89 c8                	mov    %ecx,%eax
    8dc3:	21 c2                	and    %eax,%edx
    8dc5:	48 8b 05 ac 2c 01 00 	mov    0x12cac(%rip),%rax        # 1ba78 <g_1389>
    8dcc:	88 10                	mov    %dl,(%rax)
    8dce:	0f b6 00             	movzbl (%rax),%eax
    8dd1:	0f b6 c0             	movzbl %al,%eax
    8dd4:	48 83 f0 f7          	xor    $0xfffffffffffffff7,%rax
    8dd8:	48 89 c2             	mov    %rax,%rdx
    8ddb:	48 8b 05 b6 2c 01 00 	mov    0x12cb6(%rip),%rax        # 1ba98 <g_1504>
    8de2:	0f b7 00             	movzwl (%rax),%eax
    8de5:	0f b7 c0             	movzwl %ax,%eax
    8de8:	48 39 c2             	cmp    %rax,%rdx
    8deb:	0f 9e c0             	setle  %al
    8dee:	0f b6 c0             	movzbl %al,%eax
    8df1:	89 de                	mov    %ebx,%esi
    8df3:	89 c7                	mov    %eax,%edi
    8df5:	e8 fb c5 ff ff       	callq  53f5 <safe_mul_func_int16_t_s_s>
    8dfa:	0f bf d0             	movswl %ax,%edx
    8dfd:	48 8b 05 fc 25 01 00 	mov    0x125fc(%rip),%rax        # 1b400 <g_59>
    8e04:	8b 00                	mov    (%rax),%eax
    8e06:	09 d0                	or     %edx,%eax
    8e08:	85 c0                	test   %eax,%eax
    8e0a:	74 15                	je     8e21 <func_1+0x266c>
    8e0c:	48 8b 05 65 2c 01 00 	mov    0x12c65(%rip),%rax        # 1ba78 <g_1389>
    8e13:	0f b6 00             	movzbl (%rax),%eax
    8e16:	84 c0                	test   %al,%al
    8e18:	74 07                	je     8e21 <func_1+0x266c>
    8e1a:	b8 01 00 00 00       	mov    $0x1,%eax
    8e1f:	eb 05                	jmp    8e26 <func_1+0x2671>
    8e21:	b8 00 00 00 00       	mov    $0x0,%eax
    8e26:	0f b6 c0             	movzbl %al,%eax
    8e29:	be 13 00 00 00       	mov    $0x13,%esi
    8e2e:	89 c7                	mov    %eax,%edi
    8e30:	e8 79 cd ff ff       	callq  5bae <safe_mod_func_uint8_t_u_u>
    8e35:	be ae c3 ff ff       	mov    $0xffffc3ae,%esi
    8e3a:	bf 01 00 00 00       	mov    $0x1,%edi
    8e3f:	e8 d2 c5 ff ff       	callq  5416 <safe_mod_func_int16_t_s_s>
    8e44:	48 8b 05 65 2c 01 00 	mov    0x12c65(%rip),%rax        # 1bab0 <g_1501>
    8e4b:	48 8b 05 1e 2c 01 00 	mov    0x12c1e(%rip),%rax        # 1ba70 <g_1013>
    8e52:	8b 00                	mov    (%rax),%eax
    8e54:	66 89 85 e4 ec ff ff 	mov    %ax,-0x131c(%rbp)
    8e5b:	c7 05 63 07 01 00 fe 	movl   $0xfffffffe,0x10763(%rip)        # 195c8 <g_1264>
    8e62:	ff ff ff 
    8e65:	e9 52 0e 00 00       	jmpq   9cbc <func_1+0x3507>
    8e6a:	48 8d 05 47 07 01 00 	lea    0x10747(%rip),%rax        # 195b8 <g_1064>
    8e71:	48 89 85 38 ed ff ff 	mov    %rax,-0x12c8(%rbp)
    8e78:	48 c7 85 20 ee ff ff 	movq   $0x0,-0x11e0(%rbp)
    8e7f:	00 00 00 00 
    8e83:	48 8d 85 38 ed ff ff 	lea    -0x12c8(%rbp),%rax
    8e8a:	48 89 85 28 ee ff ff 	mov    %rax,-0x11d8(%rbp)
    8e91:	48 8d 85 10 ed ff ff 	lea    -0x12f0(%rbp),%rax
    8e98:	48 89 85 30 ee ff ff 	mov    %rax,-0x11d0(%rbp)
    8e9f:	c7 85 a0 f0 ff ff 01 	movl   $0x1,-0xf60(%rbp)
    8ea6:	00 00 00 
    8ea9:	c7 85 a4 f0 ff ff 01 	movl   $0x1,-0xf5c(%rbp)
    8eb0:	00 00 00 
    8eb3:	c7 85 a8 f0 ff ff 01 	movl   $0x1,-0xf58(%rbp)
    8eba:	00 00 00 
    8ebd:	c7 85 ac f0 ff ff 01 	movl   $0x1,-0xf54(%rbp)
    8ec4:	00 00 00 
    8ec7:	c7 85 b0 f0 ff ff 01 	movl   $0x1,-0xf50(%rbp)
    8ece:	00 00 00 
    8ed1:	c7 85 b4 f0 ff ff 01 	movl   $0x1,-0xf4c(%rbp)
    8ed8:	00 00 00 
    8edb:	c7 85 b8 f0 ff ff 01 	movl   $0x1,-0xf48(%rbp)
    8ee2:	00 00 00 
    8ee5:	c7 85 bc f0 ff ff 01 	movl   $0x1,-0xf44(%rbp)
    8eec:	00 00 00 
    8eef:	c7 85 c0 f0 ff ff 01 	movl   $0x1,-0xf40(%rbp)
    8ef6:	00 00 00 
    8ef9:	c7 85 c4 f0 ff ff 01 	movl   $0x1,-0xf3c(%rbp)
    8f00:	00 00 00 
    8f03:	c7 85 c8 f0 ff ff 01 	movl   $0x1,-0xf38(%rbp)
    8f0a:	00 00 00 
    8f0d:	c7 85 cc f0 ff ff 01 	movl   $0x1,-0xf34(%rbp)
    8f14:	00 00 00 
    8f17:	c7 85 d0 f0 ff ff 01 	movl   $0x1,-0xf30(%rbp)
    8f1e:	00 00 00 
    8f21:	c7 85 d4 f0 ff ff 01 	movl   $0x1,-0xf2c(%rbp)
    8f28:	00 00 00 
    8f2b:	c7 85 d8 f0 ff ff 01 	movl   $0x1,-0xf28(%rbp)
    8f32:	00 00 00 
    8f35:	c7 85 dc f0 ff ff 01 	movl   $0x1,-0xf24(%rbp)
    8f3c:	00 00 00 
    8f3f:	48 8d 85 f0 f0 ff ff 	lea    -0xf10(%rbp),%rax
    8f46:	48 83 c0 2d          	add    $0x2d,%rax
    8f4a:	48 89 85 40 ed ff ff 	mov    %rax,-0x12c0(%rbp)
    8f51:	66 c7 85 e6 ec ff ff 	movw   $0xfffe,-0x131a(%rbp)
    8f58:	fe ff 
    8f5a:	48 8d 05 07 2b 01 00 	lea    0x12b07(%rip),%rax        # 1ba68 <g_853>
    8f61:	48 89 85 38 ee ff ff 	mov    %rax,-0x11c8(%rbp)
    8f68:	c7 85 70 ef ff ff 97 	movl   $0x5fb09497,-0x1090(%rbp)
    8f6f:	94 b0 5f 
    8f72:	c7 85 74 ef ff ff 97 	movl   $0x5fb09497,-0x108c(%rbp)
    8f79:	94 b0 5f 
    8f7c:	c7 85 78 ef ff ff 18 	movl   $0xd4807318,-0x1088(%rbp)
    8f83:	73 80 d4 
    8f86:	c7 85 7c ef ff ff 97 	movl   $0x5fb09497,-0x1084(%rbp)
    8f8d:	94 b0 5f 
    8f90:	c7 85 80 ef ff ff 97 	movl   $0x5fb09497,-0x1080(%rbp)
    8f97:	94 b0 5f 
    8f9a:	c7 85 84 ef ff ff 18 	movl   $0xd4807318,-0x107c(%rbp)
    8fa1:	73 80 d4 
    8fa4:	c7 85 88 ef ff ff 97 	movl   $0x5fb09497,-0x1078(%rbp)
    8fab:	94 b0 5f 
    8fae:	c7 85 8c ef ff ff 97 	movl   $0x5fb09497,-0x1074(%rbp)
    8fb5:	94 b0 5f 
    8fb8:	c7 85 90 ef ff ff 18 	movl   $0xd4807318,-0x1070(%rbp)
    8fbf:	73 80 d4 
    8fc2:	c7 85 00 ed ff ff 00 	movl   $0x0,-0x1300(%rbp)
    8fc9:	00 00 00 
    8fcc:	eb 1e                	jmp    8fec <func_1+0x2837>
    8fce:	8b 85 00 ed ff ff    	mov    -0x1300(%rbp),%eax
    8fd4:	48 98                	cltq   
    8fd6:	48 8d 95 38 ed ff ff 	lea    -0x12c8(%rbp),%rdx
    8fdd:	48 89 94 c5 70 ee ff 	mov    %rdx,-0x1190(%rbp,%rax,8)
    8fe4:	ff 
    8fe5:	83 85 00 ed ff ff 01 	addl   $0x1,-0x1300(%rbp)
    8fec:	83 bd 00 ed ff ff 03 	cmpl   $0x3,-0x1300(%rbp)
    8ff3:	7e d9                	jle    8fce <func_1+0x2819>
    8ff5:	48 8b 05 bc 2a 01 00 	mov    0x12abc(%rip),%rax        # 1bab8 <g_1633>
    8ffc:	48 8b 00             	mov    (%rax),%rax
    8fff:	48 8b 10             	mov    (%rax),%rdx
    9002:	48 8b 05 f7 23 01 00 	mov    0x123f7(%rip),%rax        # 1b400 <g_59>
    9009:	8b 12                	mov    (%rdx),%edx
    900b:	89 10                	mov    %edx,(%rax)
    900d:	8b 10                	mov    (%rax),%edx
    900f:	48 8b 05 22 2b 01 00 	mov    0x12b22(%rip),%rax        # 1bb38 <g_1866>
    9016:	48 8b 08             	mov    (%rax),%rcx
    9019:	48 8b 85 38 ed ff ff 	mov    -0x12c8(%rbp),%rax
    9020:	48 89 05 19 2c 01 00 	mov    %rax,0x12c19(%rip)        # 1bc40 <g_2476>
    9027:	48 8b 05 12 2c 01 00 	mov    0x12c12(%rip),%rax        # 1bc40 <g_2476>
    902e:	48 39 c1             	cmp    %rax,%rcx
    9031:	0f 94 c0             	sete   %al
    9034:	0f b6 c0             	movzbl %al,%eax
    9037:	39 c2                	cmp    %eax,%edx
    9039:	0f 94 c0             	sete   %al
    903c:	0f b6 d8             	movzbl %al,%ebx
    903f:	48 8b 05 e2 29 01 00 	mov    0x129e2(%rip),%rax        # 1ba28 <g_749>
    9046:	48 8b 00             	mov    (%rax),%rax
    9049:	0f b6 00             	movzbl (%rax),%eax
    904c:	84 c0                	test   %al,%al
    904e:	0f 9e c0             	setle  %al
    9051:	44 0f b6 e8          	movzbl %al,%r13d
    9055:	0f b7 85 9c f1 ff ff 	movzwl -0xe64(%rbp),%eax
    905c:	44 0f b7 e0          	movzwl %ax,%r12d
    9060:	8b 85 b0 f0 ff ff    	mov    -0xf50(%rbp),%eax
    9066:	98                   	cwtl   
    9067:	89 c6                	mov    %eax,%esi
    9069:	bf 8a e2 ff ff       	mov    $0xffffe28a,%edi
    906e:	e8 82 c3 ff ff       	callq  53f5 <safe_mul_func_int16_t_s_s>
    9073:	89 c2                	mov    %eax,%edx
    9075:	48 8b 85 40 ed ff ff 	mov    -0x12c0(%rbp),%rax
    907c:	0f b6 08             	movzbl (%rax),%ecx
    907f:	44 89 ee             	mov    %r13d,%esi
    9082:	48 8b 85 40 ed ff ff 	mov    -0x12c0(%rbp),%rax
    9089:	31 f1                	xor    %esi,%ecx
    908b:	88 08                	mov    %cl,(%rax)
    908d:	0f b6 00             	movzbl (%rax),%eax
    9090:	66 98                	cbtw   
    9092:	66 39 c2             	cmp    %ax,%dx
    9095:	0f 9c c0             	setl   %al
    9098:	0f b6 c0             	movzbl %al,%eax
    909b:	44 89 e2             	mov    %r12d,%edx
    909e:	21 c2                	and    %eax,%edx
    90a0:	48 8b 8d 10 ed ff ff 	mov    -0x12f0(%rbp),%rcx
    90a7:	48 8b 85 30 ee ff ff 	mov    -0x11d0(%rbp),%rax
    90ae:	48 89 08             	mov    %rcx,(%rax)
    90b1:	48 8b 85 30 ee ff ff 	mov    -0x11d0(%rbp),%rax
    90b8:	48 8b 00             	mov    (%rax),%rax
    90bb:	48 39 85 28 ee ff ff 	cmp    %rax,-0x11d8(%rbp)
    90c2:	0f 94 c0             	sete   %al
    90c5:	0f b6 c0             	movzbl %al,%eax
    90c8:	89 d6                	mov    %edx,%esi
    90ca:	89 c7                	mov    %eax,%edi
    90cc:	e8 77 cd ff ff       	callq  5e48 <safe_rshift_func_uint16_t_u_s>
    90d1:	66 83 f8 28          	cmp    $0x28,%ax
    90d5:	0f 96 c0             	setbe  %al
    90d8:	0f b6 c0             	movzbl %al,%eax
    90db:	39 c3                	cmp    %eax,%ebx
    90dd:	0f 8e 76 0b 00 00    	jle    9c59 <func_1+0x34a4>
    90e3:	48 8d 85 40 ed ff ff 	lea    -0x12c0(%rbp),%rax
    90ea:	48 89 85 48 ed ff ff 	mov    %rax,-0x12b8(%rbp)
    90f1:	48 8d 85 48 ed ff ff 	lea    -0x12b8(%rbp),%rax
    90f8:	48 89 85 50 ed ff ff 	mov    %rax,-0x12b0(%rbp)
    90ff:	48 8d 85 50 ed ff ff 	lea    -0x12b0(%rbp),%rax
    9106:	48 89 85 58 ed ff ff 	mov    %rax,-0x12a8(%rbp)
    910d:	48 8d 85 58 ed ff ff 	lea    -0x12a8(%rbp),%rax
    9114:	48 89 85 f0 f1 ff ff 	mov    %rax,-0xe10(%rbp)
    911b:	48 8d 85 58 ed ff ff 	lea    -0x12a8(%rbp),%rax
    9122:	48 89 85 f8 f1 ff ff 	mov    %rax,-0xe08(%rbp)
    9129:	48 c7 85 00 f2 ff ff 	movq   $0x0,-0xe00(%rbp)
    9130:	00 00 00 00 
    9134:	48 8d 85 58 ed ff ff 	lea    -0x12a8(%rbp),%rax
    913b:	48 89 85 08 f2 ff ff 	mov    %rax,-0xdf8(%rbp)
    9142:	48 c7 85 10 f2 ff ff 	movq   $0x0,-0xdf0(%rbp)
    9149:	00 00 00 00 
    914d:	48 8d 85 58 ed ff ff 	lea    -0x12a8(%rbp),%rax
    9154:	48 89 85 18 f2 ff ff 	mov    %rax,-0xde8(%rbp)
    915b:	48 8d 85 58 ed ff ff 	lea    -0x12a8(%rbp),%rax
    9162:	48 89 85 20 f2 ff ff 	mov    %rax,-0xde0(%rbp)
    9169:	48 8d 85 58 ed ff ff 	lea    -0x12a8(%rbp),%rax
    9170:	48 89 85 28 f2 ff ff 	mov    %rax,-0xdd8(%rbp)
    9177:	48 8d 85 58 ed ff ff 	lea    -0x12a8(%rbp),%rax
    917e:	48 89 85 30 f2 ff ff 	mov    %rax,-0xdd0(%rbp)
    9185:	48 8d 85 58 ed ff ff 	lea    -0x12a8(%rbp),%rax
    918c:	48 89 85 38 f2 ff ff 	mov    %rax,-0xdc8(%rbp)
    9193:	48 8d 85 58 ed ff ff 	lea    -0x12a8(%rbp),%rax
    919a:	48 89 85 40 f2 ff ff 	mov    %rax,-0xdc0(%rbp)
    91a1:	48 8d 85 58 ed ff ff 	lea    -0x12a8(%rbp),%rax
    91a8:	48 89 85 48 f2 ff ff 	mov    %rax,-0xdb8(%rbp)
    91af:	48 8d 85 58 ed ff ff 	lea    -0x12a8(%rbp),%rax
    91b6:	48 89 85 50 f2 ff ff 	mov    %rax,-0xdb0(%rbp)
    91bd:	48 c7 85 58 f2 ff ff 	movq   $0x0,-0xda8(%rbp)
    91c4:	00 00 00 00 
    91c8:	48 8d 85 58 ed ff ff 	lea    -0x12a8(%rbp),%rax
    91cf:	48 89 85 60 f2 ff ff 	mov    %rax,-0xda0(%rbp)
    91d6:	48 8d 85 58 ed ff ff 	lea    -0x12a8(%rbp),%rax
    91dd:	48 89 85 68 f2 ff ff 	mov    %rax,-0xd98(%rbp)
    91e4:	48 8d 85 58 ed ff ff 	lea    -0x12a8(%rbp),%rax
    91eb:	48 89 85 70 f2 ff ff 	mov    %rax,-0xd90(%rbp)
    91f2:	48 8d 85 58 ed ff ff 	lea    -0x12a8(%rbp),%rax
    91f9:	48 89 85 78 f2 ff ff 	mov    %rax,-0xd88(%rbp)
    9200:	48 8d 85 58 ed ff ff 	lea    -0x12a8(%rbp),%rax
    9207:	48 89 85 80 f2 ff ff 	mov    %rax,-0xd80(%rbp)
    920e:	48 8d 85 58 ed ff ff 	lea    -0x12a8(%rbp),%rax
    9215:	48 89 85 88 f2 ff ff 	mov    %rax,-0xd78(%rbp)
    921c:	48 c7 85 90 f2 ff ff 	movq   $0x0,-0xd70(%rbp)
    9223:	00 00 00 00 
    9227:	48 8d 85 58 ed ff ff 	lea    -0x12a8(%rbp),%rax
    922e:	48 89 85 98 f2 ff ff 	mov    %rax,-0xd68(%rbp)
    9235:	48 8d 85 58 ed ff ff 	lea    -0x12a8(%rbp),%rax
    923c:	48 89 85 a0 f2 ff ff 	mov    %rax,-0xd60(%rbp)
    9243:	48 8d 85 58 ed ff ff 	lea    -0x12a8(%rbp),%rax
    924a:	48 89 85 a8 f2 ff ff 	mov    %rax,-0xd58(%rbp)
    9251:	48 8d 85 58 ed ff ff 	lea    -0x12a8(%rbp),%rax
    9258:	48 89 85 b0 f2 ff ff 	mov    %rax,-0xd50(%rbp)
    925f:	48 8d 85 58 ed ff ff 	lea    -0x12a8(%rbp),%rax
    9266:	48 89 85 b8 f2 ff ff 	mov    %rax,-0xd48(%rbp)
    926d:	48 8d 85 58 ed ff ff 	lea    -0x12a8(%rbp),%rax
    9274:	48 89 85 c0 f2 ff ff 	mov    %rax,-0xd40(%rbp)
    927b:	48 8d 85 58 ed ff ff 	lea    -0x12a8(%rbp),%rax
    9282:	48 89 85 c8 f2 ff ff 	mov    %rax,-0xd38(%rbp)
    9289:	48 8d 85 58 ed ff ff 	lea    -0x12a8(%rbp),%rax
    9290:	48 89 85 d0 f2 ff ff 	mov    %rax,-0xd30(%rbp)
    9297:	48 8d 85 58 ed ff ff 	lea    -0x12a8(%rbp),%rax
    929e:	48 89 85 d8 f2 ff ff 	mov    %rax,-0xd28(%rbp)
    92a5:	48 c7 85 e0 f2 ff ff 	movq   $0x0,-0xd20(%rbp)
    92ac:	00 00 00 00 
    92b0:	48 8d 85 58 ed ff ff 	lea    -0x12a8(%rbp),%rax
    92b7:	48 89 85 e8 f2 ff ff 	mov    %rax,-0xd18(%rbp)
    92be:	48 c7 85 f0 f2 ff ff 	movq   $0x0,-0xd10(%rbp)
    92c5:	00 00 00 00 
    92c9:	48 8d 85 58 ed ff ff 	lea    -0x12a8(%rbp),%rax
    92d0:	48 89 85 f8 f2 ff ff 	mov    %rax,-0xd08(%rbp)
    92d7:	48 8d 85 58 ed ff ff 	lea    -0x12a8(%rbp),%rax
    92de:	48 89 85 00 f3 ff ff 	mov    %rax,-0xd00(%rbp)
    92e5:	48 8d 85 58 ed ff ff 	lea    -0x12a8(%rbp),%rax
    92ec:	48 89 85 08 f3 ff ff 	mov    %rax,-0xcf8(%rbp)
    92f3:	48 8d 85 58 ed ff ff 	lea    -0x12a8(%rbp),%rax
    92fa:	48 89 85 10 f3 ff ff 	mov    %rax,-0xcf0(%rbp)
    9301:	48 8d 85 58 ed ff ff 	lea    -0x12a8(%rbp),%rax
    9308:	48 89 85 18 f3 ff ff 	mov    %rax,-0xce8(%rbp)
    930f:	48 8d 85 58 ed ff ff 	lea    -0x12a8(%rbp),%rax
    9316:	48 89 85 20 f3 ff ff 	mov    %rax,-0xce0(%rbp)
    931d:	48 8d 85 58 ed ff ff 	lea    -0x12a8(%rbp),%rax
    9324:	48 89 85 28 f3 ff ff 	mov    %rax,-0xcd8(%rbp)
    932b:	48 8d 85 58 ed ff ff 	lea    -0x12a8(%rbp),%rax
    9332:	48 89 85 30 f3 ff ff 	mov    %rax,-0xcd0(%rbp)
    9339:	48 8d 85 58 ed ff ff 	lea    -0x12a8(%rbp),%rax
    9340:	48 89 85 38 f3 ff ff 	mov    %rax,-0xcc8(%rbp)
    9347:	48 8d 85 58 ed ff ff 	lea    -0x12a8(%rbp),%rax
    934e:	48 89 85 40 f3 ff ff 	mov    %rax,-0xcc0(%rbp)
    9355:	48 8d 85 58 ed ff ff 	lea    -0x12a8(%rbp),%rax
    935c:	48 89 85 48 f3 ff ff 	mov    %rax,-0xcb8(%rbp)
    9363:	48 8d 85 58 ed ff ff 	lea    -0x12a8(%rbp),%rax
    936a:	48 89 85 50 f3 ff ff 	mov    %rax,-0xcb0(%rbp)
    9371:	48 8d 85 58 ed ff ff 	lea    -0x12a8(%rbp),%rax
    9378:	48 89 85 58 f3 ff ff 	mov    %rax,-0xca8(%rbp)
    937f:	48 8d 85 58 ed ff ff 	lea    -0x12a8(%rbp),%rax
    9386:	48 89 85 60 f3 ff ff 	mov    %rax,-0xca0(%rbp)
    938d:	48 8d 85 58 ed ff ff 	lea    -0x12a8(%rbp),%rax
    9394:	48 89 85 68 f3 ff ff 	mov    %rax,-0xc98(%rbp)
    939b:	48 8d 85 58 ed ff ff 	lea    -0x12a8(%rbp),%rax
    93a2:	48 89 85 70 f3 ff ff 	mov    %rax,-0xc90(%rbp)
    93a9:	48 8d 85 58 ed ff ff 	lea    -0x12a8(%rbp),%rax
    93b0:	48 89 85 78 f3 ff ff 	mov    %rax,-0xc88(%rbp)
    93b7:	48 8d 85 58 ed ff ff 	lea    -0x12a8(%rbp),%rax
    93be:	48 89 85 80 f3 ff ff 	mov    %rax,-0xc80(%rbp)
    93c5:	48 c7 85 88 f3 ff ff 	movq   $0x0,-0xc78(%rbp)
    93cc:	00 00 00 00 
    93d0:	48 8d 85 58 ed ff ff 	lea    -0x12a8(%rbp),%rax
    93d7:	48 89 85 90 f3 ff ff 	mov    %rax,-0xc70(%rbp)
    93de:	48 8d 85 58 ed ff ff 	lea    -0x12a8(%rbp),%rax
    93e5:	48 89 85 98 f3 ff ff 	mov    %rax,-0xc68(%rbp)
    93ec:	48 8d 85 58 ed ff ff 	lea    -0x12a8(%rbp),%rax
    93f3:	48 89 85 a0 f3 ff ff 	mov    %rax,-0xc60(%rbp)
    93fa:	48 8d 85 58 ed ff ff 	lea    -0x12a8(%rbp),%rax
    9401:	48 89 85 a8 f3 ff ff 	mov    %rax,-0xc58(%rbp)
    9408:	48 8d 85 58 ed ff ff 	lea    -0x12a8(%rbp),%rax
    940f:	48 89 85 b0 f3 ff ff 	mov    %rax,-0xc50(%rbp)
    9416:	48 8d 85 58 ed ff ff 	lea    -0x12a8(%rbp),%rax
    941d:	48 89 85 b8 f3 ff ff 	mov    %rax,-0xc48(%rbp)
    9424:	48 8d 85 58 ed ff ff 	lea    -0x12a8(%rbp),%rax
    942b:	48 89 85 c0 f3 ff ff 	mov    %rax,-0xc40(%rbp)
    9432:	48 c7 85 c8 f3 ff ff 	movq   $0x0,-0xc38(%rbp)
    9439:	00 00 00 00 
    943d:	48 8d 85 58 ed ff ff 	lea    -0x12a8(%rbp),%rax
    9444:	48 89 85 d0 f3 ff ff 	mov    %rax,-0xc30(%rbp)
    944b:	48 8d 85 58 ed ff ff 	lea    -0x12a8(%rbp),%rax
    9452:	48 89 85 d8 f3 ff ff 	mov    %rax,-0xc28(%rbp)
    9459:	48 8d 85 58 ed ff ff 	lea    -0x12a8(%rbp),%rax
    9460:	48 89 85 e0 f3 ff ff 	mov    %rax,-0xc20(%rbp)
    9467:	48 8d 85 58 ed ff ff 	lea    -0x12a8(%rbp),%rax
    946e:	48 89 85 e8 f3 ff ff 	mov    %rax,-0xc18(%rbp)
    9475:	48 8d 85 58 ed ff ff 	lea    -0x12a8(%rbp),%rax
    947c:	48 89 85 f0 f3 ff ff 	mov    %rax,-0xc10(%rbp)
    9483:	48 8d 85 58 ed ff ff 	lea    -0x12a8(%rbp),%rax
    948a:	48 89 85 f8 f3 ff ff 	mov    %rax,-0xc08(%rbp)
    9491:	48 8d 85 58 ed ff ff 	lea    -0x12a8(%rbp),%rax
    9498:	48 89 85 00 f4 ff ff 	mov    %rax,-0xc00(%rbp)
    949f:	48 8d 85 58 ed ff ff 	lea    -0x12a8(%rbp),%rax
    94a6:	48 89 85 08 f4 ff ff 	mov    %rax,-0xbf8(%rbp)
    94ad:	48 c7 85 10 f4 ff ff 	movq   $0x0,-0xbf0(%rbp)
    94b4:	00 00 00 00 
    94b8:	48 8d 85 58 ed ff ff 	lea    -0x12a8(%rbp),%rax
    94bf:	48 89 85 18 f4 ff ff 	mov    %rax,-0xbe8(%rbp)
    94c6:	48 8d 85 58 ed ff ff 	lea    -0x12a8(%rbp),%rax
    94cd:	48 89 85 20 f4 ff ff 	mov    %rax,-0xbe0(%rbp)
    94d4:	48 8d 85 58 ed ff ff 	lea    -0x12a8(%rbp),%rax
    94db:	48 89 85 28 f4 ff ff 	mov    %rax,-0xbd8(%rbp)
    94e2:	48 8d 85 58 ed ff ff 	lea    -0x12a8(%rbp),%rax
    94e9:	48 89 85 30 f4 ff ff 	mov    %rax,-0xbd0(%rbp)
    94f0:	48 8d 85 58 ed ff ff 	lea    -0x12a8(%rbp),%rax
    94f7:	48 89 85 38 f4 ff ff 	mov    %rax,-0xbc8(%rbp)
    94fe:	48 8d 85 58 ed ff ff 	lea    -0x12a8(%rbp),%rax
    9505:	48 89 85 40 f4 ff ff 	mov    %rax,-0xbc0(%rbp)
    950c:	48 8d 85 58 ed ff ff 	lea    -0x12a8(%rbp),%rax
    9513:	48 89 85 48 f4 ff ff 	mov    %rax,-0xbb8(%rbp)
    951a:	48 c7 85 50 f4 ff ff 	movq   $0x0,-0xbb0(%rbp)
    9521:	00 00 00 00 
    9525:	48 8d 85 58 ed ff ff 	lea    -0x12a8(%rbp),%rax
    952c:	48 89 85 58 f4 ff ff 	mov    %rax,-0xba8(%rbp)
    9533:	48 8d 85 58 ed ff ff 	lea    -0x12a8(%rbp),%rax
    953a:	48 89 85 60 f4 ff ff 	mov    %rax,-0xba0(%rbp)
    9541:	48 8d 85 58 ed ff ff 	lea    -0x12a8(%rbp),%rax
    9548:	48 89 85 68 f4 ff ff 	mov    %rax,-0xb98(%rbp)
    954f:	48 8d 85 58 ed ff ff 	lea    -0x12a8(%rbp),%rax
    9556:	48 89 85 70 f4 ff ff 	mov    %rax,-0xb90(%rbp)
    955d:	48 8d 85 58 ed ff ff 	lea    -0x12a8(%rbp),%rax
    9564:	48 89 85 78 f4 ff ff 	mov    %rax,-0xb88(%rbp)
    956b:	48 8d 85 58 ed ff ff 	lea    -0x12a8(%rbp),%rax
    9572:	48 89 85 80 f4 ff ff 	mov    %rax,-0xb80(%rbp)
    9579:	48 8d 85 58 ed ff ff 	lea    -0x12a8(%rbp),%rax
    9580:	48 89 85 88 f4 ff ff 	mov    %rax,-0xb78(%rbp)
    9587:	48 8d 85 58 ed ff ff 	lea    -0x12a8(%rbp),%rax
    958e:	48 89 85 90 f4 ff ff 	mov    %rax,-0xb70(%rbp)
    9595:	48 8d 85 58 ed ff ff 	lea    -0x12a8(%rbp),%rax
    959c:	48 89 85 98 f4 ff ff 	mov    %rax,-0xb68(%rbp)
    95a3:	48 8d 85 58 ed ff ff 	lea    -0x12a8(%rbp),%rax
    95aa:	48 89 85 a0 f4 ff ff 	mov    %rax,-0xb60(%rbp)
    95b1:	48 8d 85 58 ed ff ff 	lea    -0x12a8(%rbp),%rax
    95b8:	48 89 85 a8 f4 ff ff 	mov    %rax,-0xb58(%rbp)
    95bf:	48 8d 85 58 ed ff ff 	lea    -0x12a8(%rbp),%rax
    95c6:	48 89 85 b0 f4 ff ff 	mov    %rax,-0xb50(%rbp)
    95cd:	48 8d 85 58 ed ff ff 	lea    -0x12a8(%rbp),%rax
    95d4:	48 89 85 b8 f4 ff ff 	mov    %rax,-0xb48(%rbp)
    95db:	48 8d 85 58 ed ff ff 	lea    -0x12a8(%rbp),%rax
    95e2:	48 89 85 c0 f4 ff ff 	mov    %rax,-0xb40(%rbp)
    95e9:	48 8d 85 58 ed ff ff 	lea    -0x12a8(%rbp),%rax
    95f0:	48 89 85 c8 f4 ff ff 	mov    %rax,-0xb38(%rbp)
    95f7:	48 8d 85 58 ed ff ff 	lea    -0x12a8(%rbp),%rax
    95fe:	48 89 85 d0 f4 ff ff 	mov    %rax,-0xb30(%rbp)
    9605:	48 8d 85 58 ed ff ff 	lea    -0x12a8(%rbp),%rax
    960c:	48 89 85 d8 f4 ff ff 	mov    %rax,-0xb28(%rbp)
    9613:	48 c7 85 e0 f4 ff ff 	movq   $0x0,-0xb20(%rbp)
    961a:	00 00 00 00 
    961e:	48 8d 85 58 ed ff ff 	lea    -0x12a8(%rbp),%rax
    9625:	48 89 85 e8 f4 ff ff 	mov    %rax,-0xb18(%rbp)
    962c:	48 c7 85 f0 f4 ff ff 	movq   $0x0,-0xb10(%rbp)
    9633:	00 00 00 00 
    9637:	48 8d 85 58 ed ff ff 	lea    -0x12a8(%rbp),%rax
    963e:	48 89 85 f8 f4 ff ff 	mov    %rax,-0xb08(%rbp)
    9645:	48 8d 85 58 ed ff ff 	lea    -0x12a8(%rbp),%rax
    964c:	48 89 85 00 f5 ff ff 	mov    %rax,-0xb00(%rbp)
    9653:	48 c7 85 08 f5 ff ff 	movq   $0x0,-0xaf8(%rbp)
    965a:	00 00 00 00 
    965e:	48 8d 85 58 ed ff ff 	lea    -0x12a8(%rbp),%rax
    9665:	48 89 85 10 f5 ff ff 	mov    %rax,-0xaf0(%rbp)
    966c:	48 8d 85 58 ed ff ff 	lea    -0x12a8(%rbp),%rax
    9673:	48 89 85 18 f5 ff ff 	mov    %rax,-0xae8(%rbp)
    967a:	48 8d 85 58 ed ff ff 	lea    -0x12a8(%rbp),%rax
    9681:	48 89 85 20 f5 ff ff 	mov    %rax,-0xae0(%rbp)
    9688:	48 8d 85 58 ed ff ff 	lea    -0x12a8(%rbp),%rax
    968f:	48 89 85 28 f5 ff ff 	mov    %rax,-0xad8(%rbp)
    9696:	48 8d 85 58 ed ff ff 	lea    -0x12a8(%rbp),%rax
    969d:	48 89 85 30 f5 ff ff 	mov    %rax,-0xad0(%rbp)
    96a4:	48 8d 85 58 ed ff ff 	lea    -0x12a8(%rbp),%rax
    96ab:	48 89 85 38 f5 ff ff 	mov    %rax,-0xac8(%rbp)
    96b2:	48 8d 85 58 ed ff ff 	lea    -0x12a8(%rbp),%rax
    96b9:	48 89 85 40 f5 ff ff 	mov    %rax,-0xac0(%rbp)
    96c0:	48 8d 85 58 ed ff ff 	lea    -0x12a8(%rbp),%rax
    96c7:	48 89 85 48 f5 ff ff 	mov    %rax,-0xab8(%rbp)
    96ce:	48 8d 85 58 ed ff ff 	lea    -0x12a8(%rbp),%rax
    96d5:	48 89 85 50 f5 ff ff 	mov    %rax,-0xab0(%rbp)
    96dc:	48 8d 85 58 ed ff ff 	lea    -0x12a8(%rbp),%rax
    96e3:	48 89 85 58 f5 ff ff 	mov    %rax,-0xaa8(%rbp)
    96ea:	48 8d 85 58 ed ff ff 	lea    -0x12a8(%rbp),%rax
    96f1:	48 89 85 60 f5 ff ff 	mov    %rax,-0xaa0(%rbp)
    96f8:	48 8d 85 58 ed ff ff 	lea    -0x12a8(%rbp),%rax
    96ff:	48 89 85 68 f5 ff ff 	mov    %rax,-0xa98(%rbp)
    9706:	48 c7 85 70 f5 ff ff 	movq   $0x0,-0xa90(%rbp)
    970d:	00 00 00 00 
    9711:	48 8d 85 58 ed ff ff 	lea    -0x12a8(%rbp),%rax
    9718:	48 89 85 78 f5 ff ff 	mov    %rax,-0xa88(%rbp)
    971f:	48 8d 85 58 ed ff ff 	lea    -0x12a8(%rbp),%rax
    9726:	48 89 85 80 f5 ff ff 	mov    %rax,-0xa80(%rbp)
    972d:	48 8d 85 58 ed ff ff 	lea    -0x12a8(%rbp),%rax
    9734:	48 89 85 88 f5 ff ff 	mov    %rax,-0xa78(%rbp)
    973b:	48 8d 85 58 ed ff ff 	lea    -0x12a8(%rbp),%rax
    9742:	48 89 85 90 f5 ff ff 	mov    %rax,-0xa70(%rbp)
    9749:	48 8d 85 58 ed ff ff 	lea    -0x12a8(%rbp),%rax
    9750:	48 89 85 98 f5 ff ff 	mov    %rax,-0xa68(%rbp)
    9757:	48 8d 85 58 ed ff ff 	lea    -0x12a8(%rbp),%rax
    975e:	48 89 85 a0 f5 ff ff 	mov    %rax,-0xa60(%rbp)
    9765:	48 8d 85 58 ed ff ff 	lea    -0x12a8(%rbp),%rax
    976c:	48 89 85 a8 f5 ff ff 	mov    %rax,-0xa58(%rbp)
    9773:	48 8d 85 58 ed ff ff 	lea    -0x12a8(%rbp),%rax
    977a:	48 89 85 b0 f5 ff ff 	mov    %rax,-0xa50(%rbp)
    9781:	48 8d 85 58 ed ff ff 	lea    -0x12a8(%rbp),%rax
    9788:	48 89 85 b8 f5 ff ff 	mov    %rax,-0xa48(%rbp)
    978f:	48 8d 85 58 ed ff ff 	lea    -0x12a8(%rbp),%rax
    9796:	48 89 85 c0 f5 ff ff 	mov    %rax,-0xa40(%rbp)
    979d:	48 8d 85 58 ed ff ff 	lea    -0x12a8(%rbp),%rax
    97a4:	48 89 85 c8 f5 ff ff 	mov    %rax,-0xa38(%rbp)
    97ab:	48 8d 85 58 ed ff ff 	lea    -0x12a8(%rbp),%rax
    97b2:	48 89 85 d0 f5 ff ff 	mov    %rax,-0xa30(%rbp)
    97b9:	48 8d 85 58 ed ff ff 	lea    -0x12a8(%rbp),%rax
    97c0:	48 89 85 d8 f5 ff ff 	mov    %rax,-0xa28(%rbp)
    97c7:	48 8d 85 58 ed ff ff 	lea    -0x12a8(%rbp),%rax
    97ce:	48 89 85 e0 f5 ff ff 	mov    %rax,-0xa20(%rbp)
    97d5:	48 8d 85 58 ed ff ff 	lea    -0x12a8(%rbp),%rax
    97dc:	48 89 85 e8 f5 ff ff 	mov    %rax,-0xa18(%rbp)
    97e3:	48 c7 85 f0 f5 ff ff 	movq   $0x0,-0xa10(%rbp)
    97ea:	00 00 00 00 
    97ee:	48 8d 85 58 ed ff ff 	lea    -0x12a8(%rbp),%rax
    97f5:	48 89 85 f8 f5 ff ff 	mov    %rax,-0xa08(%rbp)
    97fc:	48 c7 85 00 f6 ff ff 	movq   $0x0,-0xa00(%rbp)
    9803:	00 00 00 00 
    9807:	48 8d 85 58 ed ff ff 	lea    -0x12a8(%rbp),%rax
    980e:	48 89 85 08 f6 ff ff 	mov    %rax,-0x9f8(%rbp)
    9815:	48 8d 85 58 ed ff ff 	lea    -0x12a8(%rbp),%rax
    981c:	48 89 85 10 f6 ff ff 	mov    %rax,-0x9f0(%rbp)
    9823:	48 8d 85 58 ed ff ff 	lea    -0x12a8(%rbp),%rax
    982a:	48 89 85 18 f6 ff ff 	mov    %rax,-0x9e8(%rbp)
    9831:	48 8d 85 58 ed ff ff 	lea    -0x12a8(%rbp),%rax
    9838:	48 89 85 20 f6 ff ff 	mov    %rax,-0x9e0(%rbp)
    983f:	48 8d 85 58 ed ff ff 	lea    -0x12a8(%rbp),%rax
    9846:	48 89 85 28 f6 ff ff 	mov    %rax,-0x9d8(%rbp)
    984d:	48 8d 85 58 ed ff ff 	lea    -0x12a8(%rbp),%rax
    9854:	48 89 85 30 f6 ff ff 	mov    %rax,-0x9d0(%rbp)
    985b:	48 8d 85 58 ed ff ff 	lea    -0x12a8(%rbp),%rax
    9862:	48 89 85 38 f6 ff ff 	mov    %rax,-0x9c8(%rbp)
    9869:	48 c7 85 40 f6 ff ff 	movq   $0x0,-0x9c0(%rbp)
    9870:	00 00 00 00 
    9874:	48 8d 85 58 ed ff ff 	lea    -0x12a8(%rbp),%rax
    987b:	48 89 85 48 f6 ff ff 	mov    %rax,-0x9b8(%rbp)
    9882:	48 8d 85 58 ed ff ff 	lea    -0x12a8(%rbp),%rax
    9889:	48 89 85 50 f6 ff ff 	mov    %rax,-0x9b0(%rbp)
    9890:	48 8d 85 58 ed ff ff 	lea    -0x12a8(%rbp),%rax
    9897:	48 89 85 58 f6 ff ff 	mov    %rax,-0x9a8(%rbp)
    989e:	48 8d 85 58 ed ff ff 	lea    -0x12a8(%rbp),%rax
    98a5:	48 89 85 60 f6 ff ff 	mov    %rax,-0x9a0(%rbp)
    98ac:	48 c7 85 68 f6 ff ff 	movq   $0x0,-0x998(%rbp)
    98b3:	00 00 00 00 
    98b7:	48 8d 85 58 ed ff ff 	lea    -0x12a8(%rbp),%rax
    98be:	48 89 85 70 f6 ff ff 	mov    %rax,-0x990(%rbp)
    98c5:	48 8d 85 58 ed ff ff 	lea    -0x12a8(%rbp),%rax
    98cc:	48 89 85 78 f6 ff ff 	mov    %rax,-0x988(%rbp)
    98d3:	48 c7 85 80 f6 ff ff 	movq   $0x0,-0x980(%rbp)
    98da:	00 00 00 00 
    98de:	48 8d 85 58 ed ff ff 	lea    -0x12a8(%rbp),%rax
    98e5:	48 89 85 88 f6 ff ff 	mov    %rax,-0x978(%rbp)
    98ec:	48 8d 85 58 ed ff ff 	lea    -0x12a8(%rbp),%rax
    98f3:	48 89 85 90 f6 ff ff 	mov    %rax,-0x970(%rbp)
    98fa:	48 c7 85 98 f6 ff ff 	movq   $0x0,-0x968(%rbp)
    9901:	00 00 00 00 
    9905:	48 8d 85 58 ed ff ff 	lea    -0x12a8(%rbp),%rax
    990c:	48 89 85 a0 f6 ff ff 	mov    %rax,-0x960(%rbp)
    9913:	48 8d 85 58 ed ff ff 	lea    -0x12a8(%rbp),%rax
    991a:	48 89 85 a8 f6 ff ff 	mov    %rax,-0x958(%rbp)
    9921:	48 8d 85 58 ed ff ff 	lea    -0x12a8(%rbp),%rax
    9928:	48 89 85 b0 f6 ff ff 	mov    %rax,-0x950(%rbp)
    992f:	48 8d 85 58 ed ff ff 	lea    -0x12a8(%rbp),%rax
    9936:	48 89 85 b8 f6 ff ff 	mov    %rax,-0x948(%rbp)
    993d:	48 8d 85 58 ed ff ff 	lea    -0x12a8(%rbp),%rax
    9944:	48 89 85 c0 f6 ff ff 	mov    %rax,-0x940(%rbp)
    994b:	48 8d 85 58 ed ff ff 	lea    -0x12a8(%rbp),%rax
    9952:	48 89 85 c8 f6 ff ff 	mov    %rax,-0x938(%rbp)
    9959:	48 8d 85 58 ed ff ff 	lea    -0x12a8(%rbp),%rax
    9960:	48 89 85 d0 f6 ff ff 	mov    %rax,-0x930(%rbp)
    9967:	48 8d 85 58 ed ff ff 	lea    -0x12a8(%rbp),%rax
    996e:	48 89 85 d8 f6 ff ff 	mov    %rax,-0x928(%rbp)
    9975:	48 8d 85 58 ed ff ff 	lea    -0x12a8(%rbp),%rax
    997c:	48 89 85 e0 f6 ff ff 	mov    %rax,-0x920(%rbp)
    9983:	48 8d 85 58 ed ff ff 	lea    -0x12a8(%rbp),%rax
    998a:	48 89 85 e8 f6 ff ff 	mov    %rax,-0x918(%rbp)
    9991:	48 8d 85 58 ed ff ff 	lea    -0x12a8(%rbp),%rax
    9998:	48 89 85 f0 f6 ff ff 	mov    %rax,-0x910(%rbp)
    999f:	48 8d 85 58 ed ff ff 	lea    -0x12a8(%rbp),%rax
    99a6:	48 89 85 f8 f6 ff ff 	mov    %rax,-0x908(%rbp)
    99ad:	48 8d 85 58 ed ff ff 	lea    -0x12a8(%rbp),%rax
    99b4:	48 89 85 00 f7 ff ff 	mov    %rax,-0x900(%rbp)
    99bb:	48 8d 85 58 ed ff ff 	lea    -0x12a8(%rbp),%rax
    99c2:	48 89 85 08 f7 ff ff 	mov    %rax,-0x8f8(%rbp)
    99c9:	48 c7 85 10 f7 ff ff 	movq   $0x0,-0x8f0(%rbp)
    99d0:	00 00 00 00 
    99d4:	48 8d 85 58 ed ff ff 	lea    -0x12a8(%rbp),%rax
    99db:	48 89 85 18 f7 ff ff 	mov    %rax,-0x8e8(%rbp)
    99e2:	48 8d 85 58 ed ff ff 	lea    -0x12a8(%rbp),%rax
    99e9:	48 89 85 20 f7 ff ff 	mov    %rax,-0x8e0(%rbp)
    99f0:	48 8d 85 58 ed ff ff 	lea    -0x12a8(%rbp),%rax
    99f7:	48 89 85 28 f7 ff ff 	mov    %rax,-0x8d8(%rbp)
    99fe:	48 8d 85 58 ed ff ff 	lea    -0x12a8(%rbp),%rax
    9a05:	48 89 85 30 f7 ff ff 	mov    %rax,-0x8d0(%rbp)
    9a0c:	48 8d 85 58 ed ff ff 	lea    -0x12a8(%rbp),%rax
    9a13:	48 89 85 38 f7 ff ff 	mov    %rax,-0x8c8(%rbp)
    9a1a:	48 8d 85 58 ed ff ff 	lea    -0x12a8(%rbp),%rax
    9a21:	48 89 85 40 f7 ff ff 	mov    %rax,-0x8c0(%rbp)
    9a28:	48 c7 85 48 f7 ff ff 	movq   $0x0,-0x8b8(%rbp)
    9a2f:	00 00 00 00 
    9a33:	48 8d 85 58 ed ff ff 	lea    -0x12a8(%rbp),%rax
    9a3a:	48 89 85 50 f7 ff ff 	mov    %rax,-0x8b0(%rbp)
    9a41:	48 8d 85 58 ed ff ff 	lea    -0x12a8(%rbp),%rax
    9a48:	48 89 85 58 f7 ff ff 	mov    %rax,-0x8a8(%rbp)
    9a4f:	48 8d 85 58 ed ff ff 	lea    -0x12a8(%rbp),%rax
    9a56:	48 89 85 60 f7 ff ff 	mov    %rax,-0x8a0(%rbp)
    9a5d:	48 8d 85 58 ed ff ff 	lea    -0x12a8(%rbp),%rax
    9a64:	48 89 85 68 f7 ff ff 	mov    %rax,-0x898(%rbp)
    9a6b:	48 8d 85 58 ed ff ff 	lea    -0x12a8(%rbp),%rax
    9a72:	48 89 85 70 f7 ff ff 	mov    %rax,-0x890(%rbp)
    9a79:	48 8d 85 58 ed ff ff 	lea    -0x12a8(%rbp),%rax
    9a80:	48 89 85 78 f7 ff ff 	mov    %rax,-0x888(%rbp)
    9a87:	48 8d 85 58 ed ff ff 	lea    -0x12a8(%rbp),%rax
    9a8e:	48 89 85 80 f7 ff ff 	mov    %rax,-0x880(%rbp)
    9a95:	48 8d 85 58 ed ff ff 	lea    -0x12a8(%rbp),%rax
    9a9c:	48 89 85 88 f7 ff ff 	mov    %rax,-0x878(%rbp)
    9aa3:	c7 85 04 ed ff ff ff 	movl   $0xffffffff,-0x12fc(%rbp)
    9aaa:	ff ff ff 
    9aad:	48 8b 85 58 ed ff ff 	mov    -0x12a8(%rbp),%rax
    9ab4:	48 89 85 08 ef ff ff 	mov    %rax,-0x10f8(%rbp)
    9abb:	48 8b 85 08 ef ff ff 	mov    -0x10f8(%rbp),%rax
    9ac2:	48 85 c0             	test   %rax,%rax
    9ac5:	0f 95 c0             	setne  %al
    9ac8:	0f b6 c8             	movzbl %al,%ecx
    9acb:	48 8b 05 9e 1f 01 00 	mov    0x11f9e(%rip),%rax        # 1ba70 <g_1013>
    9ad2:	8b 10                	mov    (%rax),%edx
    9ad4:	31 ca                	xor    %ecx,%edx
    9ad6:	89 10                	mov    %edx,(%rax)
    9ad8:	48 8b 05 c9 1f 01 00 	mov    0x11fc9(%rip),%rax        # 1baa8 <g_1502>
    9adf:	48 8b 00             	mov    (%rax),%rax
    9ae2:	48 8b 00             	mov    (%rax),%rax
    9ae5:	0f b7 10             	movzwl (%rax),%edx
    9ae8:	8d 4a ff             	lea    -0x1(%rdx),%ecx
    9aeb:	66 89 08             	mov    %cx,(%rax)
    9aee:	0f b7 c2             	movzwl %dx,%eax
    9af1:	be 0e 00 00 00       	mov    $0xe,%esi
    9af6:	89 c7                	mov    %eax,%edi
    9af8:	e8 7d c3 ff ff       	callq  5e7a <safe_rshift_func_uint16_t_u_u>
    9afd:	66 83 bd e6 ec ff ff 	cmpw   $0x0,-0x131a(%rbp)
    9b04:	00 
    9b05:	0f 85 f1 00 00 00    	jne    9bfc <func_1+0x3447>
    9b0b:	8b 85 b4 f0 ff ff    	mov    -0xf4c(%rbp),%eax
    9b11:	85 c0                	test   %eax,%eax
    9b13:	0f 84 e4 00 00 00    	je     9bfd <func_1+0x3448>
    9b19:	48 8b 05 38 1a 01 00 	mov    0x11a38(%rip),%rax        # 1b558 <g_563>
    9b20:	0f b7 00             	movzwl (%rax),%eax
    9b23:	0f b7 d8             	movzwl %ax,%ebx
    9b26:	48 8b 05 13 21 01 00 	mov    0x12113(%rip),%rax        # 1bc40 <g_2476>
    9b2d:	48 8b 10             	mov    (%rax),%rdx
    9b30:	48 8b 05 e1 18 01 00 	mov    0x118e1(%rip),%rax        # 1b418 <g_169>
    9b37:	0f b6 00             	movzbl (%rax),%eax
    9b3a:	0f be c0             	movsbl %al,%eax
    9b3d:	39 85 04 ed ff ff    	cmp    %eax,-0x12fc(%rbp)
    9b43:	0f 9d c0             	setge  %al
    9b46:	0f b6 c0             	movzbl %al,%eax
    9b49:	48 09 d0             	or     %rdx,%rax
    9b4c:	48 85 c0             	test   %rax,%rax
    9b4f:	75 51                	jne    9ba2 <func_1+0x33ed>
    9b51:	8b 85 b0 f0 ff ff    	mov    -0xf50(%rbp),%eax
    9b57:	0f b6 d0             	movzbl %al,%edx
    9b5a:	8b 8d b0 f0 ff ff    	mov    -0xf50(%rbp),%ecx
    9b60:	48 8b 05 89 1f 01 00 	mov    0x11f89(%rip),%rax        # 1baf0 <g_1772>
    9b67:	0f b6 00             	movzbl (%rax),%eax
    9b6a:	0f b6 c0             	movzbl %al,%eax
    9b6d:	21 c8                	and    %ecx,%eax
    9b6f:	85 c0                	test   %eax,%eax
    9b71:	75 0a                	jne    9b7d <func_1+0x33c8>
    9b73:	48 83 bd 68 ed ff ff 	cmpq   $0x0,-0x1298(%rbp)
    9b7a:	00 
    9b7b:	74 07                	je     9b84 <func_1+0x33cf>
    9b7d:	b8 01 00 00 00       	mov    $0x1,%eax
    9b82:	eb 05                	jmp    9b89 <func_1+0x33d4>
    9b84:	b8 00 00 00 00       	mov    $0x0,%eax
    9b89:	83 f8 06             	cmp    $0x6,%eax
    9b8c:	0f 96 c0             	setbe  %al
    9b8f:	0f b6 c0             	movzbl %al,%eax
    9b92:	89 d6                	mov    %edx,%esi
    9b94:	89 c7                	mov    %eax,%edi
    9b96:	e8 13 c0 ff ff       	callq  5bae <safe_mod_func_uint8_t_u_u>
    9b9b:	b8 00 00 00 00       	mov    $0x0,%eax
    9ba0:	eb 05                	jmp    9ba7 <func_1+0x33f2>
    9ba2:	b8 01 00 00 00       	mov    $0x1,%eax
    9ba7:	3b 85 04 ed ff ff    	cmp    -0x12fc(%rbp),%eax
    9bad:	75 0f                	jne    9bbe <func_1+0x3409>
    9baf:	48 8b 05 aa 19 01 00 	mov    0x119aa(%rip),%rax        # 1b560 <g_570>
    9bb6:	0f b7 00             	movzwl (%rax),%eax
    9bb9:	66 85 c0             	test   %ax,%ax
    9bbc:	74 07                	je     9bc5 <func_1+0x3410>
    9bbe:	b8 01 00 00 00       	mov    $0x1,%eax
    9bc3:	eb 05                	jmp    9bca <func_1+0x3415>
    9bc5:	b8 00 00 00 00       	mov    $0x0,%eax
    9bca:	89 c2                	mov    %eax,%edx
    9bcc:	8b 85 04 ed ff ff    	mov    -0x12fc(%rbp),%eax
    9bd2:	21 c2                	and    %eax,%edx
    9bd4:	8b 85 b0 f0 ff ff    	mov    -0xf50(%rbp),%eax
    9bda:	09 d0                	or     %edx,%eax
    9bdc:	0f b7 c0             	movzwl %ax,%eax
    9bdf:	89 de                	mov    %ebx,%esi
    9be1:	89 c7                	mov    %eax,%edi
    9be3:	e8 a6 c1 ff ff       	callq  5d8e <safe_div_func_uint16_t_u_u>
    9be8:	48 8b 05 39 1e 01 00 	mov    0x11e39(%rip),%rax        # 1ba28 <g_749>
    9bef:	48 8b 00             	mov    (%rax),%rax
    9bf2:	c7 85 04 ed ff ff 8d 	movl   $0x8600ed8d,-0x12fc(%rbp)
    9bf9:	ed 00 86 
    9bfc:	90                   	nop
    9bfd:	48 8b 05 3c 20 01 00 	mov    0x1203c(%rip),%rax        # 1bc40 <g_2476>
    9c04:	48 8b 10             	mov    (%rax),%rdx
    9c07:	0f b7 85 e6 ec ff ff 	movzwl -0x131a(%rbp),%eax
    9c0e:	48 09 d0             	or     %rdx,%rax
    9c11:	48 85 c0             	test   %rax,%rax
    9c14:	74 10                	je     9c26 <func_1+0x3471>
    9c16:	83 bd 04 ed ff ff 00 	cmpl   $0x0,-0x12fc(%rbp)
    9c1d:	74 07                	je     9c26 <func_1+0x3471>
    9c1f:	b8 01 00 00 00       	mov    $0x1,%eax
    9c24:	eb 05                	jmp    9c2b <func_1+0x3476>
    9c26:	b8 00 00 00 00       	mov    $0x0,%eax
    9c2b:	85 c0                	test   %eax,%eax
    9c2d:	74 17                	je     9c46 <func_1+0x3491>
    9c2f:	48 8b 05 b2 1e 01 00 	mov    0x11eb2(%rip),%rax        # 1bae8 <g_1767>
    9c36:	8b 10                	mov    (%rax),%edx
    9c38:	89 d1                	mov    %edx,%ecx
    9c3a:	8b 95 78 ef ff ff    	mov    -0x1088(%rbp),%edx
    9c40:	21 ca                	and    %ecx,%edx
    9c42:	89 10                	mov    %edx,(%rax)
    9c44:	eb 09                	jmp    9c4f <func_1+0x349a>
    9c46:	83 bd 04 ed ff ff 00 	cmpl   $0x0,-0x12fc(%rbp)
    9c4d:	75 7c                	jne    9ccb <func_1+0x3516>
    9c4f:	8b 85 78 ef ff ff    	mov    -0x1088(%rbp),%eax
    9c55:	85 c0                	test   %eax,%eax
    9c57:	eb 54                	jmp    9cad <func_1+0x34f8>
    9c59:	c6 85 dc ec ff ff d7 	movb   $0xd7,-0x1324(%rbp)
    9c60:	c6 05 b1 f6 00 00 00 	movb   $0x0,0xf6b1(%rip)        # 19318 <g_427>
    9c67:	eb 39                	jmp    9ca2 <func_1+0x34ed>
    9c69:	c6 85 dd ec ff ff 01 	movb   $0x1,-0x1323(%rbp)
    9c70:	48 8b 05 b1 1f 01 00 	mov    0x11fb1(%rip),%rax        # 1bc28 <g_2236>
    9c77:	c7 00 fd ff ff ff    	movl   $0xfffffffd,(%rax)
    9c7d:	80 85 dd ec ff ff 01 	addb   $0x1,-0x1323(%rbp)
    9c84:	0f b6 05 8d f6 00 00 	movzbl 0xf68d(%rip),%eax        # 19318 <g_427>
    9c8b:	48 0f be c0          	movsbq %al,%rax
    9c8f:	be 09 00 00 00       	mov    $0x9,%esi
    9c94:	48 89 c7             	mov    %rax,%rdi
    9c97:	e8 a5 bb ff ff       	callq  5841 <safe_add_func_int64_t_s_s>
    9c9c:	88 05 76 f6 00 00    	mov    %al,0xf676(%rip)        # 19318 <g_427>
    9ca2:	0f b6 05 6f f6 00 00 	movzbl 0xf66f(%rip),%eax        # 19318 <g_427>
    9ca9:	3c 0c                	cmp    $0xc,%al
    9cab:	7e bc                	jle    9c69 <func_1+0x34b4>
    9cad:	8b 05 15 f9 00 00    	mov    0xf915(%rip),%eax        # 195c8 <g_1264>
    9cb3:	83 c0 01             	add    $0x1,%eax
    9cb6:	89 05 0c f9 00 00    	mov    %eax,0xf90c(%rip)        # 195c8 <g_1264>
    9cbc:	8b 05 06 f9 00 00    	mov    0xf906(%rip),%eax        # 195c8 <g_1264>
    9cc2:	83 f8 13             	cmp    $0x13,%eax
    9cc5:	0f 85 9f f1 ff ff    	jne    8e6a <func_1+0x26b5>
    9ccb:	48 8b 05 46 17 01 00 	mov    0x11746(%rip),%rax        # 1b418 <g_169>
    9cd2:	0f b6 00             	movzbl (%rax),%eax
    9cd5:	48 8b 5d c8          	mov    -0x38(%rbp),%rbx
    9cd9:	64 48 33 1c 25 28 00 	xor    %fs:0x28,%rbx
    9ce0:	00 00 
    9ce2:	74 05                	je     9ce9 <func_1+0x3534>
    9ce4:	e8 87 b3 ff ff       	callq  5070 <__stack_chk_fail@plt>
    9ce9:	48 81 c4 18 13 00 00 	add    $0x1318,%rsp
    9cf0:	5b                   	pop    %rbx
    9cf1:	41 5c                	pop    %r12
    9cf3:	41 5d                	pop    %r13
    9cf5:	41 5e                	pop    %r14
    9cf7:	41 5f                	pop    %r15
    9cf9:	5d                   	pop    %rbp
    9cfa:	c3                   	retq   

0000000000009cfb <func_2>:
    9cfb:	f3 0f 1e fa          	endbr64 
    9cff:	55                   	push   %rbp
    9d00:	48 89 e5             	mov    %rsp,%rbp
    9d03:	41 57                	push   %r15
    9d05:	41 56                	push   %r14
    9d07:	41 55                	push   %r13
    9d09:	41 54                	push   %r12
    9d0b:	53                   	push   %rbx
    9d0c:	48 81 ec 28 0a 00 00 	sub    $0xa28,%rsp
    9d13:	89 bd bc f5 ff ff    	mov    %edi,-0xa44(%rbp)
    9d19:	64 48 8b 04 25 28 00 	mov    %fs:0x28,%rax
    9d20:	00 00 
    9d22:	48 89 45 c8          	mov    %rax,-0x38(%rbp)
    9d26:	31 c0                	xor    %eax,%eax
    9d28:	48 8d 05 41 18 01 00 	lea    0x11841(%rip),%rax        # 1b570 <g_639>
    9d2f:	48 89 85 20 f6 ff ff 	mov    %rax,-0x9e0(%rbp)
    9d36:	48 8d 05 1b 18 01 00 	lea    0x1181b(%rip),%rax        # 1b558 <g_563>
    9d3d:	48 89 85 e8 f5 ff ff 	mov    %rax,-0xa18(%rbp)
    9d44:	48 8d 85 e8 f5 ff ff 	lea    -0xa18(%rbp),%rax
    9d4b:	48 89 85 f0 f5 ff ff 	mov    %rax,-0xa10(%rbp)
    9d52:	48 c7 85 90 f6 ff ff 	movq   $0x0,-0x970(%rbp)
    9d59:	00 00 00 00 
    9d5d:	48 c7 85 98 f6 ff ff 	movq   $0x0,-0x968(%rbp)
    9d64:	00 00 00 00 
    9d68:	48 c7 85 c0 f6 ff ff 	movq   $0x0,-0x940(%rbp)
    9d6f:	00 00 00 00 
    9d73:	48 c7 85 c8 f6 ff ff 	movq   $0x0,-0x938(%rbp)
    9d7a:	00 00 00 00 
    9d7e:	48 c7 85 d0 f6 ff ff 	movq   $0x0,-0x930(%rbp)
    9d85:	00 00 00 00 
    9d89:	48 c7 85 d8 f6 ff ff 	movq   $0x0,-0x928(%rbp)
    9d90:	00 00 00 00 
    9d94:	48 c7 85 e0 f6 ff ff 	movq   $0x0,-0x920(%rbp)
    9d9b:	00 00 00 00 
    9d9f:	48 8d 05 1a fa 00 00 	lea    0xfa1a(%rip),%rax        # 197c0 <g_1390>
    9da6:	48 89 85 f0 f6 ff ff 	mov    %rax,-0x910(%rbp)
    9dad:	48 8d 05 d8 22 01 00 	lea    0x122d8(%rip),%rax        # 1c08c <g_92>
    9db4:	48 89 85 f8 f6 ff ff 	mov    %rax,-0x908(%rbp)
    9dbb:	48 8d 05 fe f9 00 00 	lea    0xf9fe(%rip),%rax        # 197c0 <g_1390>
    9dc2:	48 89 85 00 f7 ff ff 	mov    %rax,-0x900(%rbp)
    9dc9:	48 8d 05 f0 f9 00 00 	lea    0xf9f0(%rip),%rax        # 197c0 <g_1390>
    9dd0:	48 89 85 08 f7 ff ff 	mov    %rax,-0x8f8(%rbp)
    9dd7:	48 8d 05 e2 f9 00 00 	lea    0xf9e2(%rip),%rax        # 197c0 <g_1390>
    9dde:	48 89 85 10 f7 ff ff 	mov    %rax,-0x8f0(%rbp)
    9de5:	48 8d 05 a0 22 01 00 	lea    0x122a0(%rip),%rax        # 1c08c <g_92>
    9dec:	48 89 85 18 f7 ff ff 	mov    %rax,-0x8e8(%rbp)
    9df3:	48 8d 05 92 22 01 00 	lea    0x12292(%rip),%rax        # 1c08c <g_92>
    9dfa:	48 89 85 20 f7 ff ff 	mov    %rax,-0x8e0(%rbp)
    9e01:	48 8d 05 84 22 01 00 	lea    0x12284(%rip),%rax        # 1c08c <g_92>
    9e08:	48 89 85 28 f7 ff ff 	mov    %rax,-0x8d8(%rbp)
    9e0f:	48 8d 05 76 22 01 00 	lea    0x12276(%rip),%rax        # 1c08c <g_92>
    9e16:	48 89 85 30 f7 ff ff 	mov    %rax,-0x8d0(%rbp)
    9e1d:	48 8d 05 68 22 01 00 	lea    0x12268(%rip),%rax        # 1c08c <g_92>
    9e24:	48 89 85 38 f7 ff ff 	mov    %rax,-0x8c8(%rbp)
    9e2b:	48 8d 05 8e f9 00 00 	lea    0xf98e(%rip),%rax        # 197c0 <g_1390>
    9e32:	48 89 85 40 f7 ff ff 	mov    %rax,-0x8c0(%rbp)
    9e39:	48 8d 05 80 f9 00 00 	lea    0xf980(%rip),%rax        # 197c0 <g_1390>
    9e40:	48 89 85 48 f7 ff ff 	mov    %rax,-0x8b8(%rbp)
    9e47:	48 8d 05 3e 22 01 00 	lea    0x1223e(%rip),%rax        # 1c08c <g_92>
    9e4e:	48 89 85 50 f7 ff ff 	mov    %rax,-0x8b0(%rbp)
    9e55:	48 8d 05 64 f9 00 00 	lea    0xf964(%rip),%rax        # 197c0 <g_1390>
    9e5c:	48 89 85 58 f7 ff ff 	mov    %rax,-0x8a8(%rbp)
    9e63:	48 8d 05 22 22 01 00 	lea    0x12222(%rip),%rax        # 1c08c <g_92>
    9e6a:	48 89 85 60 f7 ff ff 	mov    %rax,-0x8a0(%rbp)
    9e71:	48 8d 05 48 f9 00 00 	lea    0xf948(%rip),%rax        # 197c0 <g_1390>
    9e78:	48 89 85 68 f7 ff ff 	mov    %rax,-0x898(%rbp)
    9e7f:	48 8d 05 06 22 01 00 	lea    0x12206(%rip),%rax        # 1c08c <g_92>
    9e86:	48 89 85 70 f7 ff ff 	mov    %rax,-0x890(%rbp)
    9e8d:	48 8d 05 2c f9 00 00 	lea    0xf92c(%rip),%rax        # 197c0 <g_1390>
    9e94:	48 89 85 78 f7 ff ff 	mov    %rax,-0x888(%rbp)
    9e9b:	48 8d 05 b6 16 01 00 	lea    0x116b6(%rip),%rax        # 1b558 <g_563>
    9ea2:	48 89 85 28 f6 ff ff 	mov    %rax,-0x9d8(%rbp)
    9ea9:	c7 85 d8 f5 ff ff da 	movl   $0x25deaeda,-0xa28(%rbp)
    9eb0:	ae de 25 
    9eb3:	c7 85 d0 f5 ff ff 00 	movl   $0x0,-0xa30(%rbp)
    9eba:	00 00 00 
    9ebd:	eb 1e                	jmp    9edd <func_2+0x1e2>
    9ebf:	8b 85 d0 f5 ff ff    	mov    -0xa30(%rbp),%eax
    9ec5:	48 98                	cltq   
    9ec7:	48 8d 95 f0 f5 ff ff 	lea    -0xa10(%rbp),%rdx
    9ece:	48 89 94 c5 88 f6 ff 	mov    %rdx,-0x978(%rbp,%rax,8)
    9ed5:	ff 
    9ed6:	83 85 d0 f5 ff ff 01 	addl   $0x1,-0xa30(%rbp)
    9edd:	83 bd d0 f5 ff ff 00 	cmpl   $0x0,-0xa30(%rbp)
    9ee4:	7e d9                	jle    9ebf <func_2+0x1c4>
    9ee6:	c7 85 bc f5 ff ff 00 	movl   $0x0,-0xa44(%rbp)
    9eed:	00 00 00 
    9ef0:	e9 c7 09 00 00       	jmpq   a8bc <func_2+0xbc1>
    9ef5:	48 c7 85 f8 f5 ff ff 	movq   $0x0,-0xa08(%rbp)
    9efc:	00 00 00 00 
    9f00:	48 8d 85 f8 f5 ff ff 	lea    -0xa08(%rbp),%rax
    9f07:	48 89 85 30 f6 ff ff 	mov    %rax,-0x9d0(%rbp)
    9f0e:	48 8d 85 20 f8 ff ff 	lea    -0x7e0(%rbp),%rax
    9f15:	48 8d 15 84 05 01 00 	lea    0x10584(%rip),%rdx        # 1a4a0 <g_2468+0x14>
    9f1c:	b9 f5 00 00 00       	mov    $0xf5,%ecx
    9f21:	48 89 c7             	mov    %rax,%rdi
    9f24:	48 89 d6             	mov    %rdx,%rsi
    9f27:	f3 48 a5             	rep movsq %ds:(%rsi),%es:(%rdi)
    9f2a:	48 b8 e9 70 54 c2 52 	movabs $0x7dbc1552c25470e9,%rax
    9f31:	15 bc 7d 
    9f34:	48 89 85 38 f6 ff ff 	mov    %rax,-0x9c8(%rbp)
    9f3b:	c6 85 cc f5 ff ff f7 	movb   $0xf7,-0xa34(%rbp)
    9f42:	c7 05 f4 f0 00 00 03 	movl   $0x3,0xf0f4(%rip)        # 19040 <g_8>
    9f49:	00 00 00 
    9f4c:	e9 37 09 00 00       	jmpq   a888 <func_2+0xb8d>
    9f51:	c7 85 d4 f5 ff ff 1d 	movl   $0xf8b5131d,-0xa2c(%rbp)
    9f58:	13 b5 f8 
    9f5b:	48 8d 05 3e 1b 01 00 	lea    0x11b3e(%rip),%rax        # 1baa0 <g_1503>
    9f62:	48 89 85 a0 f6 ff ff 	mov    %rax,-0x960(%rbp)
    9f69:	48 8d 05 30 1b 01 00 	lea    0x11b30(%rip),%rax        # 1baa0 <g_1503>
    9f70:	48 89 85 a8 f6 ff ff 	mov    %rax,-0x958(%rbp)
    9f77:	48 8d 05 22 1b 01 00 	lea    0x11b22(%rip),%rax        # 1baa0 <g_1503>
    9f7e:	48 89 85 b0 f6 ff ff 	mov    %rax,-0x950(%rbp)
    9f85:	48 8d 05 14 1b 01 00 	lea    0x11b14(%rip),%rax        # 1baa0 <g_1503>
    9f8c:	48 89 85 b8 f6 ff ff 	mov    %rax,-0x948(%rbp)
    9f93:	48 8d 85 a0 f6 ff ff 	lea    -0x960(%rbp),%rax
    9f9a:	48 83 c0 08          	add    $0x8,%rax
    9f9e:	48 89 85 40 f6 ff ff 	mov    %rax,-0x9c0(%rbp)
    9fa5:	c7 85 80 f7 ff ff 18 	movl   $0xa3010718,-0x880(%rbp)
    9fac:	07 01 a3 
    9faf:	c7 85 84 f7 ff ff fa 	movl   $0xfffffffa,-0x87c(%rbp)
    9fb6:	ff ff ff 
    9fb9:	c7 85 88 f7 ff ff 1e 	movl   $0x818c061e,-0x878(%rbp)
    9fc0:	06 8c 81 
    9fc3:	c7 85 8c f7 ff ff ff 	movl   $0xffffffff,-0x874(%rbp)
    9fca:	ff ff ff 
    9fcd:	c7 85 90 f7 ff ff fa 	movl   $0xfffffffa,-0x870(%rbp)
    9fd4:	ff ff ff 
    9fd7:	c7 85 94 f7 ff ff b3 	movl   $0x535a7b3,-0x86c(%rbp)
    9fde:	a7 35 05 
    9fe1:	c7 85 98 f7 ff ff fa 	movl   $0xfffffffa,-0x868(%rbp)
    9fe8:	ff ff ff 
    9feb:	c7 85 9c f7 ff ff 01 	movl   $0x1,-0x864(%rbp)
    9ff2:	00 00 00 
    9ff5:	c7 85 a0 f7 ff ff f3 	movl   $0x2b6e4af3,-0x860(%rbp)
    9ffc:	4a 6e 2b 
    9fff:	c7 85 a4 f7 ff ff 1e 	movl   $0x818c061e,-0x85c(%rbp)
    a006:	06 8c 81 
    a009:	c7 85 a8 f7 ff ff e8 	movl   $0x154169e8,-0x858(%rbp)
    a010:	69 41 15 
    a013:	c7 85 ac f7 ff ff fc 	movl   $0xfffffffc,-0x854(%rbp)
    a01a:	ff ff ff 
    a01d:	c7 85 b0 f7 ff ff 49 	movl   $0x3c425d49,-0x850(%rbp)
    a024:	5d 42 3c 
    a027:	c7 85 b4 f7 ff ff f3 	movl   $0x2b6e4af3,-0x84c(%rbp)
    a02e:	4a 6e 2b 
    a031:	c7 85 b8 f7 ff ff 01 	movl   $0x1,-0x848(%rbp)
    a038:	00 00 00 
    a03b:	c7 85 bc f7 ff ff 1e 	movl   $0x818c061e,-0x844(%rbp)
    a042:	06 8c 81 
    a045:	c7 85 c0 f7 ff ff ff 	movl   $0xffffffff,-0x840(%rbp)
    a04c:	ff ff ff 
    a04f:	c7 85 c4 f7 ff ff dd 	movl   $0x1ca083dd,-0x83c(%rbp)
    a056:	83 a0 1c 
    a059:	c7 85 c8 f7 ff ff 01 	movl   $0x1,-0x838(%rbp)
    a060:	00 00 00 
    a063:	c7 85 cc f7 ff ff fc 	movl   $0xfffffffc,-0x834(%rbp)
    a06a:	ff ff ff 
    a06d:	c7 85 d0 f7 ff ff 49 	movl   $0x3c425d49,-0x830(%rbp)
    a074:	5d 42 3c 
    a077:	c7 85 d4 f7 ff ff e8 	movl   $0x154169e8,-0x82c(%rbp)
    a07e:	69 41 15 
    a081:	c7 85 d8 f7 ff ff e8 	movl   $0x154169e8,-0x828(%rbp)
    a088:	69 41 15 
    a08b:	c7 85 dc f7 ff ff 49 	movl   $0x3c425d49,-0x824(%rbp)
    a092:	5d 42 3c 
    a095:	c7 85 e0 f7 ff ff f3 	movl   $0x2b6e4af3,-0x820(%rbp)
    a09c:	4a 6e 2b 
    a09f:	c7 85 e4 f7 ff ff ff 	movl   $0xffffffff,-0x81c(%rbp)
    a0a6:	ff ff ff 
    a0a9:	c7 85 e8 f7 ff ff fa 	movl   $0xfffffffa,-0x818(%rbp)
    a0b0:	ff ff ff 
    a0b3:	c7 85 ec f7 ff ff 3f 	movl   $0xf0e98c3f,-0x814(%rbp)
    a0ba:	8c e9 f0 
    a0bd:	c7 85 f0 f7 ff ff fa 	movl   $0xfffffffa,-0x810(%rbp)
    a0c4:	ff ff ff 
    a0c7:	c7 85 f4 f7 ff ff 3f 	movl   $0xf0e98c3f,-0x80c(%rbp)
    a0ce:	8c e9 f0 
    a0d1:	c7 85 f8 f7 ff ff 1e 	movl   $0x818c061e,-0x808(%rbp)
    a0d8:	06 8c 81 
    a0db:	c7 85 fc f7 ff ff dd 	movl   $0x1ca083dd,-0x804(%rbp)
    a0e2:	83 a0 1c 
    a0e5:	c7 85 00 f8 ff ff 18 	movl   $0xa3010718,-0x800(%rbp)
    a0ec:	07 01 a3 
    a0ef:	c7 85 04 f8 ff ff a5 	movl   $0xdd538da5,-0x7fc(%rbp)
    a0f6:	8d 53 dd 
    a0f9:	c7 85 08 f8 ff ff ab 	movl   $0x62f45fab,-0x7f8(%rbp)
    a100:	5f f4 62 
    a103:	c7 85 0c f8 ff ff dd 	movl   $0x1ca083dd,-0x7f4(%rbp)
    a10a:	83 a0 1c 
    a10d:	c7 85 10 f8 ff ff fc 	movl   $0xfffffffc,-0x7f0(%rbp)
    a114:	ff ff ff 
    a117:	c7 85 14 f8 ff ff 3f 	movl   $0xf0e98c3f,-0x7ec(%rbp)
    a11e:	8c e9 f0 
    a121:	c7 85 18 f8 ff ff 18 	movl   $0xa3010718,-0x7e8(%rbp)
    a128:	07 01 a3 
    a12b:	c7 85 1c f8 ff ff 3f 	movl   $0xf0e98c3f,-0x7e4(%rbp)
    a132:	8c e9 f0 
    a135:	48 8d 05 e4 18 01 00 	lea    0x118e4(%rip),%rax        # 1ba20 <g_726>
    a13c:	48 89 85 48 f6 ff ff 	mov    %rax,-0x9b8(%rbp)
    a143:	48 8d 05 42 1f 01 00 	lea    0x11f42(%rip),%rax        # 1c08c <g_92>
    a14a:	48 89 85 50 f6 ff ff 	mov    %rax,-0x9b0(%rbp)
    a151:	48 8d 05 a0 f1 00 00 	lea    0xf1a0(%rip),%rax        # 192f8 <g_103>
    a158:	48 89 85 00 f6 ff ff 	mov    %rax,-0xa00(%rbp)
    a15f:	48 8d 85 00 f6 ff ff 	lea    -0xa00(%rbp),%rax
    a166:	48 89 85 08 f6 ff ff 	mov    %rax,-0x9f8(%rbp)
    a16d:	48 8d 85 08 f6 ff ff 	lea    -0x9f8(%rbp),%rax
    a174:	48 89 85 10 f6 ff ff 	mov    %rax,-0x9f0(%rbp)
    a17b:	48 8d 85 10 f6 ff ff 	lea    -0x9f0(%rbp),%rax
    a182:	48 89 85 18 f6 ff ff 	mov    %rax,-0x9e8(%rbp)
    a189:	48 8d 85 18 f6 ff ff 	lea    -0x9e8(%rbp),%rax
    a190:	48 89 85 58 f6 ff ff 	mov    %rax,-0x9a8(%rbp)
    a197:	8b 05 a3 ee 00 00    	mov    0xeea3(%rip),%eax        # 19040 <g_8>
    a19d:	48 98                	cltq   
    a19f:	48 8d 14 85 00 00 00 	lea    0x0(,%rax,4),%rdx
    a1a6:	00 
    a1a7:	48 8d 05 82 ee 00 00 	lea    0xee82(%rip),%rax        # 19030 <g_7>
    a1ae:	8b 04 02             	mov    (%rdx,%rax,1),%eax
    a1b1:	89 85 d4 f5 ff ff    	mov    %eax,-0xa2c(%rbp)
    a1b7:	83 bd d4 f5 ff ff 00 	cmpl   $0x0,-0xa2c(%rbp)
    a1be:	0f 85 ca 00 00 00    	jne    a28e <func_2+0x593>
    a1c4:	8b 85 bc f5 ff ff    	mov    -0xa44(%rbp),%eax
    a1ca:	89 c7                	mov    %eax,%edi
    a1cc:	e8 7a 07 00 00       	callq  a94b <func_10>
    a1d1:	48 be 70 07 41 a0 a6 	movabs $0xea0866a6a0410770,%rsi
    a1d8:	66 08 ea 
    a1db:	48 c7 c7 ff ff ff ff 	mov    $0xffffffffffffffff,%rdi
    a1e2:	e8 c1 b6 ff ff       	callq  58a8 <safe_sub_func_int64_t_s_s>
    a1e7:	48 8b 05 02 19 01 00 	mov    0x11902(%rip),%rax        # 1baf0 <g_1772>
    a1ee:	0f b6 00             	movzbl (%rax),%eax
    a1f1:	0f b6 d8             	movzbl %al,%ebx
    a1f4:	8b 85 d4 f5 ff ff    	mov    -0xa2c(%rbp),%eax
    a1fa:	0f b7 d0             	movzwl %ax,%edx
    a1fd:	8b 8d 08 f8 ff ff    	mov    -0x7f8(%rbp),%ecx
    a203:	48 8b 85 30 f6 ff ff 	mov    -0x9d0(%rbp),%rax
    a20a:	48 3b 85 20 f6 ff ff 	cmp    -0x9e0(%rbp),%rax
    a211:	75 16                	jne    a229 <func_2+0x52e>
    a213:	48 8b 05 3e 13 01 00 	mov    0x1133e(%rip),%rax        # 1b558 <g_563>
    a21a:	0f b7 00             	movzwl (%rax),%eax
    a21d:	66 85 c0             	test   %ax,%ax
    a220:	74 07                	je     a229 <func_2+0x52e>
    a222:	b8 01 00 00 00       	mov    $0x1,%eax
    a227:	eb 05                	jmp    a22e <func_2+0x533>
    a229:	b8 00 00 00 00       	mov    $0x0,%eax
    a22e:	31 c8                	xor    %ecx,%eax
    a230:	89 85 08 f8 ff ff    	mov    %eax,-0x7f8(%rbp)
    a236:	8b 85 08 f8 ff ff    	mov    -0x7f8(%rbp),%eax
    a23c:	0f b7 c0             	movzwl %ax,%eax
    a23f:	89 d6                	mov    %edx,%esi
    a241:	89 c7                	mov    %eax,%edi
    a243:	e8 b7 ba ff ff       	callq  5cff <safe_add_func_uint16_t_u_u>
    a248:	48 8d 85 a0 f6 ff ff 	lea    -0x960(%rbp),%rax
    a24f:	48 83 c0 08          	add    $0x8,%rax
    a253:	48 39 85 40 f6 ff ff 	cmp    %rax,-0x9c0(%rbp)
    a25a:	0f 95 c0             	setne  %al
    a25d:	0f b6 c0             	movzbl %al,%eax
    a260:	be 04 00 00 00       	mov    $0x4,%esi
    a265:	89 c7                	mov    %eax,%edi
    a267:	e8 35 b0 ff ff       	callq  52a1 <safe_lshift_func_int8_t_s_s>
    a26c:	89 de                	mov    %ebx,%esi
    a26e:	bf 01 00 00 00       	mov    $0x1,%edi
    a273:	e8 36 b9 ff ff       	callq  5bae <safe_mod_func_uint8_t_u_u>
    a278:	0f b6 c0             	movzbl %al,%eax
    a27b:	89 85 d4 f5 ff ff    	mov    %eax,-0xa2c(%rbp)
    a281:	83 bd d4 f5 ff ff 00 	cmpl   $0x0,-0xa2c(%rbp)
    a288:	0f 84 a9 01 00 00    	je     a437 <func_2+0x73c>
    a28e:	48 8d 05 03 ee 00 00 	lea    0xee03(%rip),%rax        # 19098 <g_12+0x38>
    a295:	48 89 85 80 f6 ff ff 	mov    %rax,-0x980(%rbp)
    a29c:	48 8b 05 75 11 01 00 	mov    0x11175(%rip),%rax        # 1b418 <g_169>
    a2a3:	0f b6 00             	movzbl (%rax),%eax
    a2a6:	0f be d8             	movsbl %al,%ebx
    a2a9:	48 8b 05 18 19 01 00 	mov    0x11918(%rip),%rax        # 1bbc8 <g_1909>
    a2b0:	48 8b 00             	mov    (%rax),%rax
    a2b3:	48 8b 00             	mov    (%rax),%rax
    a2b6:	48 8b 00             	mov    (%rax),%rax
    a2b9:	0f b7 00             	movzwl (%rax),%eax
    a2bc:	44 0f bf e0          	movswl %ax,%r12d
    a2c0:	44 8b ad bc f5 ff ff 	mov    -0xa44(%rbp),%r13d
    a2c7:	8b 85 bc f5 ff ff    	mov    -0xa44(%rbp),%eax
    a2cd:	44 0f b6 f0          	movzbl %al,%r14d
    a2d1:	48 8b 05 68 18 01 00 	mov    0x11868(%rip),%rax        # 1bb40 <g_1912>
    a2d8:	0f b7 00             	movzwl (%rax),%eax
    a2db:	44 0f b7 f8          	movzwl %ax,%r15d
    a2df:	48 8b 05 0a 18 01 00 	mov    0x1180a(%rip),%rax        # 1baf0 <g_1772>
    a2e6:	0f b6 00             	movzbl (%rax),%eax
    a2e9:	0f b6 c0             	movzbl %al,%eax
    a2ec:	89 85 b8 f5 ff ff    	mov    %eax,-0xa48(%rbp)
    a2f2:	48 8b 85 90 f6 ff ff 	mov    -0x970(%rbp),%rax
    a2f9:	48 85 c0             	test   %rax,%rax
    a2fc:	0f 94 c0             	sete   %al
    a2ff:	0f b6 c0             	movzbl %al,%eax
    a302:	48 89 85 b0 f5 ff ff 	mov    %rax,-0xa50(%rbp)
    a309:	8b 85 bc f5 ff ff    	mov    -0xa44(%rbp),%eax
    a30f:	be 8b 6f 5c 4b       	mov    $0x4b5c6f8b,%esi
    a314:	89 c7                	mov    %eax,%edi
    a316:	e8 b1 b3 ff ff       	callq  56cc <safe_mod_func_int32_t_s_s>
    a31b:	35 b8 0b 5b 50       	xor    $0x505b0bb8,%eax
    a320:	48 98                	cltq   
    a322:	48 0b 85 b0 f5 ff ff 	or     -0xa50(%rbp),%rax
    a329:	48 3d ff ff 00 00    	cmp    $0xffff,%rax
    a32f:	76 0c                	jbe    a33d <func_2+0x642>
    a331:	c7 85 b0 f5 ff ff 26 	movl   $0x426,-0xa50(%rbp)
    a338:	04 00 00 
    a33b:	eb 0a                	jmp    a347 <func_2+0x64c>
    a33d:	c7 85 b0 f5 ff ff 27 	movl   $0x427,-0xa50(%rbp)
    a344:	04 00 00 
    a347:	48 8b 05 a2 18 01 00 	mov    0x118a2(%rip),%rax        # 1bbf0 <g_2113>
    a34e:	48 c7 00 00 00 00 00 	movq   $0x0,(%rax)
    a355:	8b 85 d4 f5 ff ff    	mov    -0xa2c(%rbp),%eax
    a35b:	0f b6 c0             	movzbl %al,%eax
    a35e:	be 01 00 00 00       	mov    $0x1,%esi
    a363:	89 c7                	mov    %eax,%edi
    a365:	e8 9b b8 ff ff       	callq  5c05 <safe_lshift_func_uint8_t_u_s>
    a36a:	0f b6 c0             	movzbl %al,%eax
    a36d:	8b b5 b0 f5 ff ff    	mov    -0xa50(%rbp),%esi
    a373:	89 c7                	mov    %eax,%edi
    a375:	e8 8c ba ff ff       	callq  5e06 <safe_lshift_func_uint16_t_u_u>
    a37a:	0f b6 c0             	movzbl %al,%eax
    a37d:	8b b5 b8 f5 ff ff    	mov    -0xa48(%rbp),%esi
    a383:	89 c7                	mov    %eax,%edi
    a385:	e8 51 b8 ff ff       	callq  5bdb <safe_div_func_uint8_t_u_u>
    a38a:	0f b6 d0             	movzbl %al,%edx
    a38d:	8b 85 bc f5 ff ff    	mov    -0xa44(%rbp),%eax
    a393:	0f b6 c0             	movzbl %al,%eax
    a396:	89 d6                	mov    %edx,%esi
    a398:	89 c7                	mov    %eax,%edi
    a39a:	e8 d9 b7 ff ff       	callq  5b78 <safe_sub_func_uint8_t_u_u>
    a39f:	0f b6 d0             	movzbl %al,%edx
    a3a2:	8b 85 bc f5 ff ff    	mov    -0xa44(%rbp),%eax
    a3a8:	39 c2                	cmp    %eax,%edx
    a3aa:	0f 95 c0             	setne  %al
    a3ad:	0f b6 c0             	movzbl %al,%eax
    a3b0:	44 89 fe             	mov    %r15d,%esi
    a3b3:	89 c7                	mov    %eax,%edi
    a3b5:	e8 a2 b9 ff ff       	callq  5d5c <safe_mod_func_uint16_t_u_u>
    a3ba:	0f b6 c0             	movzbl %al,%eax
    a3bd:	44 89 f6             	mov    %r14d,%esi
    a3c0:	89 c7                	mov    %eax,%edi
    a3c2:	e8 e7 b7 ff ff       	callq  5bae <safe_mod_func_uint8_t_u_u>
    a3c7:	0f b6 c0             	movzbl %al,%eax
    a3ca:	44 89 ee             	mov    %r13d,%esi
    a3cd:	89 c7                	mov    %eax,%edi
    a3cf:	e8 f8 b2 ff ff       	callq  56cc <safe_mod_func_int32_t_s_s>
    a3d4:	0f b7 c0             	movzwl %ax,%eax
    a3d7:	44 89 e6             	mov    %r12d,%esi
    a3da:	89 c7                	mov    %eax,%edi
    a3dc:	e8 67 ba ff ff       	callq  5e48 <safe_rshift_func_uint16_t_u_s>
    a3e1:	0f b7 d0             	movzwl %ax,%edx
    a3e4:	8b 85 bc f5 ff ff    	mov    -0xa44(%rbp),%eax
    a3ea:	39 c2                	cmp    %eax,%edx
    a3ec:	0f 94 c0             	sete   %al
    a3ef:	0f b6 c0             	movzbl %al,%eax
    a3f2:	89 de                	mov    %ebx,%esi
    a3f4:	89 c7                	mov    %eax,%edi
    a3f6:	e8 a6 ae ff ff       	callq  52a1 <safe_lshift_func_int8_t_s_s>
    a3fb:	48 8b 85 e0 f6 ff ff 	mov    -0x920(%rbp),%rax
    a402:	48 39 85 48 f6 ff ff 	cmp    %rax,-0x9b8(%rbp)
    a409:	0f 95 c0             	setne  %al
    a40c:	0f b6 d0             	movzbl %al,%edx
    a40f:	48 8b 85 80 f6 ff ff 	mov    -0x980(%rbp),%rax
    a416:	8b 00                	mov    (%rax),%eax
    a418:	09 c2                	or     %eax,%edx
    a41a:	48 8b 85 80 f6 ff ff 	mov    -0x980(%rbp),%rax
    a421:	89 10                	mov    %edx,(%rax)
    a423:	90                   	nop
    a424:	8b 85 08 f8 ff ff    	mov    -0x7f8(%rbp),%eax
    a42a:	85 c0                	test   %eax,%eax
    a42c:	0f 84 7b 03 00 00    	je     a7ad <func_2+0xab2>
    a432:	e9 42 04 00 00       	jmpq   a879 <func_2+0xb7e>
    a437:	66 c7 85 ce f5 ff ff 	movw   $0x8,-0xa32(%rbp)
    a43e:	08 00 
    a440:	48 b8 03 32 d2 8f 53 	movabs $0xe8c4b0538fd23203,%rax
    a447:	b0 c4 e8 
    a44a:	48 89 85 60 f6 ff ff 	mov    %rax,-0x9a0(%rbp)
    a451:	c7 85 dc f5 ff ff 01 	movl   $0x1,-0xa24(%rbp)
    a458:	00 00 00 
    a45b:	48 8d 05 3e 16 01 00 	lea    0x1163e(%rip),%rax        # 1baa0 <g_1503>
    a462:	48 89 85 68 f6 ff ff 	mov    %rax,-0x998(%rbp)
    a469:	c7 85 e0 f5 ff ff 05 	movl   $0x4d501105,-0xa20(%rbp)
    a470:	11 50 4d 
    a473:	48 8b 05 06 16 01 00 	mov    0x11606(%rip),%rax        # 1ba80 <g_1414>
    a47a:	48 8b 00             	mov    (%rax),%rax
    a47d:	8b 10                	mov    (%rax),%edx
    a47f:	8b 85 bc f5 ff ff    	mov    -0xa44(%rbp),%eax
    a485:	89 c1                	mov    %eax,%ecx
    a487:	48 8b 05 f2 15 01 00 	mov    0x115f2(%rip),%rax        # 1ba80 <g_1414>
    a48e:	48 8b 00             	mov    (%rax),%rax
    a491:	09 ca                	or     %ecx,%edx
    a493:	89 10                	mov    %edx,(%rax)
    a495:	44 8b 20             	mov    (%rax),%r12d
    a498:	8b 85 bc f5 ff ff    	mov    -0xa44(%rbp),%eax
    a49e:	83 f8 f9             	cmp    $0xfffffff9,%eax
    a4a1:	0f 9c c0             	setl   %al
    a4a4:	0f b6 d0             	movzbl %al,%edx
    a4a7:	48 8b 05 ca 15 01 00 	mov    0x115ca(%rip),%rax        # 1ba78 <g_1389>
    a4ae:	0f b6 00             	movzbl (%rax),%eax
    a4b1:	89 c6                	mov    %eax,%esi
    a4b3:	8b 05 87 eb 00 00    	mov    0xeb87(%rip),%eax        # 19040 <g_8>
    a4b9:	48 98                	cltq   
    a4bb:	48 8d 0c 85 00 00 00 	lea    0x0(,%rax,4),%rcx
    a4c2:	00 
    a4c3:	48 8d 05 66 eb 00 00 	lea    0xeb66(%rip),%rax        # 19030 <g_7>
    a4ca:	8b 04 01             	mov    (%rcx,%rax,1),%eax
    a4cd:	89 f1                	mov    %esi,%ecx
    a4cf:	09 c1                	or     %eax,%ecx
    a4d1:	48 8b 05 a0 15 01 00 	mov    0x115a0(%rip),%rax        # 1ba78 <g_1389>
    a4d8:	88 08                	mov    %cl,(%rax)
    a4da:	0f b6 00             	movzbl (%rax),%eax
    a4dd:	0f b6 c0             	movzbl %al,%eax
    a4e0:	39 c2                	cmp    %eax,%edx
    a4e2:	75 6f                	jne    a553 <func_2+0x858>
    a4e4:	0f bf 95 ce f5 ff ff 	movswl -0xa32(%rbp),%edx
    a4eb:	8b 85 bc f5 ff ff    	mov    -0xa44(%rbp),%eax
    a4f1:	09 d0                	or     %edx,%eax
    a4f3:	85 c0                	test   %eax,%eax
    a4f5:	75 0a                	jne    a501 <func_2+0x806>
    a4f7:	8b 85 bc f5 ff ff    	mov    -0xa44(%rbp),%eax
    a4fd:	85 c0                	test   %eax,%eax
    a4ff:	74 07                	je     a508 <func_2+0x80d>
    a501:	ba 01 00 00 00       	mov    $0x1,%edx
    a506:	eb 05                	jmp    a50d <func_2+0x812>
    a508:	ba 00 00 00 00       	mov    $0x0,%edx
    a50d:	48 8b 05 44 10 01 00 	mov    0x11044(%rip),%rax        # 1b558 <g_563>
    a514:	66 89 10             	mov    %dx,(%rax)
    a517:	0f b7 00             	movzwl (%rax),%eax
    a51a:	0f b7 d8             	movzwl %ax,%ebx
    a51d:	be ff ff 00 00       	mov    $0xffff,%esi
    a522:	bf fa ff 00 00       	mov    $0xfffa,%edi
    a527:	e8 62 b8 ff ff       	callq  5d8e <safe_div_func_uint16_t_u_u>
    a52c:	0f b7 c0             	movzwl %ax,%eax
    a52f:	89 de                	mov    %ebx,%esi
    a531:	89 c7                	mov    %eax,%edi
    a533:	e8 24 b8 ff ff       	callq  5d5c <safe_mod_func_uint16_t_u_u>
    a538:	66 85 c0             	test   %ax,%ax
    a53b:	74 07                	je     a544 <func_2+0x849>
    a53d:	ba 01 00 00 00       	mov    $0x1,%edx
    a542:	eb 05                	jmp    a549 <func_2+0x84e>
    a544:	ba 00 00 00 00       	mov    $0x0,%edx
    a549:	8b 85 bc f5 ff ff    	mov    -0xa44(%rbp),%eax
    a54f:	39 c2                	cmp    %eax,%edx
    a551:	7f 07                	jg     a55a <func_2+0x85f>
    a553:	ba 01 00 00 00       	mov    $0x1,%edx
    a558:	eb 05                	jmp    a55f <func_2+0x864>
    a55a:	ba 00 00 00 00       	mov    $0x0,%edx
    a55f:	8b 85 bc f5 ff ff    	mov    -0xa44(%rbp),%eax
    a565:	89 d6                	mov    %edx,%esi
    a567:	89 c7                	mov    %eax,%edi
    a569:	e8 97 b0 ff ff       	callq  5605 <safe_sub_func_int32_t_s_s>
    a56e:	41 39 c4             	cmp    %eax,%r12d
    a571:	0f 85 de 01 00 00    	jne    a755 <func_2+0xa5a>
    a577:	c6 85 cd f5 ff ff 76 	movb   $0x76,-0xa33(%rbp)
    a57e:	48 8d 05 93 ed 00 00 	lea    0xed93(%rip),%rax        # 19318 <g_427>
    a585:	48 89 85 70 f6 ff ff 	mov    %rax,-0x990(%rbp)
    a58c:	48 8d 05 19 ee 00 00 	lea    0xee19(%rip),%rax        # 193ac <g_645+0x6c>
    a593:	48 89 85 78 f6 ff ff 	mov    %rax,-0x988(%rbp)
    a59a:	8b 85 bc f5 ff ff    	mov    -0xa44(%rbp),%eax
    a5a0:	0f b6 d0             	movzbl %al,%edx
    a5a3:	48 8b 45 88          	mov    -0x78(%rbp),%rax
    a5a7:	48 85 c0             	test   %rax,%rax
    a5aa:	74 11                	je     a5bd <func_2+0x8c2>
    a5ac:	48 83 bd 60 f6 ff ff 	cmpq   $0x0,-0x9a0(%rbp)
    a5b3:	00 
    a5b4:	74 07                	je     a5bd <func_2+0x8c2>
    a5b6:	b8 01 00 00 00       	mov    $0x1,%eax
    a5bb:	eb 05                	jmp    a5c2 <func_2+0x8c7>
    a5bd:	b8 00 00 00 00       	mov    $0x0,%eax
    a5c2:	0f b6 c0             	movzbl %al,%eax
    a5c5:	89 d6                	mov    %edx,%esi
    a5c7:	89 c7                	mov    %eax,%edi
    a5c9:	e8 8c b5 ff ff       	callq  5b5a <safe_add_func_uint8_t_u_u>
    a5ce:	0f b6 d0             	movzbl %al,%edx
    a5d1:	8b 05 d1 fd 00 00    	mov    0xfdd1(%rip),%eax        # 1a3a8 <g_2235>
    a5d7:	31 d0                	xor    %edx,%eax
    a5d9:	83 f8 07             	cmp    $0x7,%eax
    a5dc:	0f 96 c0             	setbe  %al
    a5df:	0f b6 d0             	movzbl %al,%edx
    a5e2:	8b 85 bc f5 ff ff    	mov    -0xa44(%rbp),%eax
    a5e8:	39 c2                	cmp    %eax,%edx
    a5ea:	0f 9c c2             	setl   %dl
    a5ed:	48 8b 05 34 16 01 00 	mov    0x11634(%rip),%rax        # 1bc28 <g_2236>
    a5f4:	0f b6 d2             	movzbl %dl,%edx
    a5f7:	89 10                	mov    %edx,(%rax)
    a5f9:	8b 85 bc f5 ff ff    	mov    -0xa44(%rbp),%eax
    a5ff:	88 85 cd f5 ff ff    	mov    %al,-0xa33(%rbp)
    a605:	0f b6 85 cd f5 ff ff 	movzbl -0xa33(%rbp),%eax
    a60c:	0f be c0             	movsbl %al,%eax
    a60f:	31 85 d4 f5 ff ff    	xor    %eax,-0xa2c(%rbp)
    a615:	83 bd d4 f5 ff ff 00 	cmpl   $0x0,-0xa2c(%rbp)
    a61c:	0f 85 b7 00 00 00    	jne    a6d9 <func_2+0x9de>
    a622:	0f b6 05 87 1a 01 00 	movzbl 0x11a87(%rip),%eax        # 1c0b0 <g_1074>
    a629:	48 0f be d8          	movsbq %al,%rbx
    a62d:	44 8b a5 bc f5 ff ff 	mov    -0xa44(%rbp),%r12d
    a634:	8b 85 bc f5 ff ff    	mov    -0xa44(%rbp),%eax
    a63a:	8b 95 dc f5 ff ff    	mov    -0xa24(%rbp),%edx
    a640:	89 d6                	mov    %edx,%esi
    a642:	89 c7                	mov    %eax,%edi
    a644:	e8 bc af ff ff       	callq  5605 <safe_sub_func_int32_t_s_s>
    a649:	44 89 e6             	mov    %r12d,%esi
    a64c:	89 c7                	mov    %eax,%edi
    a64e:	e8 ac b0 ff ff       	callq  56ff <safe_div_func_int32_t_s_s>
    a653:	48 8b 05 ce 13 01 00 	mov    0x113ce(%rip),%rax        # 1ba28 <g_749>
    a65a:	48 8b 00             	mov    (%rax),%rax
    a65d:	0f b6 10             	movzbl (%rax),%edx
    a660:	48 8b 85 70 f6 ff ff 	mov    -0x990(%rbp),%rax
    a667:	0f b6 00             	movzbl (%rax),%eax
    a66a:	21 c2                	and    %eax,%edx
    a66c:	48 8b 85 70 f6 ff ff 	mov    -0x990(%rbp),%rax
    a673:	88 10                	mov    %dl,(%rax)
    a675:	48 8b 05 ac 14 01 00 	mov    0x114ac(%rip),%rax        # 1bb28 <g_1864>
    a67c:	48 8b 00             	mov    (%rax),%rax
    a67f:	48 8b 00             	mov    (%rax),%rax
    a682:	48 85 c0             	test   %rax,%rax
    a685:	75 18                	jne    a69f <func_2+0x9a4>
    a687:	48 8b 05 22 14 01 00 	mov    0x11422(%rip),%rax        # 1bab0 <g_1501>
    a68e:	48 8b 95 68 f6 ff ff 	mov    -0x998(%rbp),%rdx
    a695:	48 89 10             	mov    %rdx,(%rax)
    a698:	b8 00 00 00 00       	mov    $0x0,%eax
    a69d:	eb 05                	jmp    a6a4 <func_2+0x9a9>
    a69f:	b8 01 00 00 00       	mov    $0x1,%eax
    a6a4:	48 98                	cltq   
    a6a6:	48 89 de             	mov    %rbx,%rsi
    a6a9:	48 89 c7             	mov    %rax,%rdi
    a6ac:	e8 7d b9 ff ff       	callq  602e <safe_add_func_uint64_t_u_u>
    a6b1:	8b 95 bc f5 ff ff    	mov    -0xa44(%rbp),%edx
    a6b7:	48 63 d2             	movslq %edx,%rdx
    a6ba:	48 39 d0             	cmp    %rdx,%rax
    a6bd:	0f 92 c0             	setb   %al
    a6c0:	0f b6 d0             	movzbl %al,%edx
    a6c3:	48 8b 85 78 f6 ff ff 	mov    -0x988(%rbp),%rax
    a6ca:	89 10                	mov    %edx,(%rax)
    a6cc:	48 8b 85 78 f6 ff ff 	mov    -0x988(%rbp),%rax
    a6d3:	8b 00                	mov    (%rax),%eax
    a6d5:	85 c0                	test   %eax,%eax
    a6d7:	74 07                	je     a6e0 <func_2+0x9e5>
    a6d9:	b8 01 00 00 00       	mov    $0x1,%eax
    a6de:	eb 05                	jmp    a6e5 <func_2+0x9ea>
    a6e0:	b8 00 00 00 00       	mov    $0x0,%eax
    a6e5:	83 f8 ff             	cmp    $0xffffffff,%eax
    a6e8:	0f 94 c2             	sete   %dl
    a6eb:	48 8b 05 a6 13 01 00 	mov    0x113a6(%rip),%rax        # 1ba98 <g_1504>
    a6f2:	0f b6 d2             	movzbl %dl,%edx
    a6f5:	66 89 10             	mov    %dx,(%rax)
    a6f8:	0f b7 00             	movzwl (%rax),%eax
    a6fb:	0f b7 c0             	movzwl %ax,%eax
    a6fe:	25 fc ff 00 00       	and    $0xfffc,%eax
    a703:	48 89 c2             	mov    %rax,%rdx
    a706:	48 8b 05 2b 14 01 00 	mov    0x1142b(%rip),%rax        # 1bb38 <g_1866>
    a70d:	48 8b 00             	mov    (%rax),%rax
    a710:	48 8b 00             	mov    (%rax),%rax
    a713:	48 39 c2             	cmp    %rax,%rdx
    a716:	0f 97 c0             	seta   %al
    a719:	0f b6 c0             	movzbl %al,%eax
    a71c:	be f7 ff ff ff       	mov    $0xfffffff7,%esi
    a721:	89 c7                	mov    %eax,%edi
    a723:	e8 90 b7 ff ff       	callq  5eb8 <safe_add_func_uint32_t_u_u>
    a728:	8b 95 e0 f5 ff ff    	mov    -0xa20(%rbp),%edx
    a72e:	09 d0                	or     %edx,%eax
    a730:	89 85 e0 f5 ff ff    	mov    %eax,-0xa20(%rbp)
    a736:	8b 05 04 e9 00 00    	mov    0xe904(%rip),%eax        # 19040 <g_8>
    a73c:	48 98                	cltq   
    a73e:	48 8d 14 85 00 00 00 	lea    0x0(,%rax,4),%rdx
    a745:	00 
    a746:	48 8d 05 e3 e8 00 00 	lea    0xe8e3(%rip),%rax        # 19030 <g_7>
    a74d:	8b 04 02             	mov    (%rdx,%rax,1),%eax
    a750:	e9 d0 01 00 00       	jmpq   a925 <func_2+0xc2a>
    a755:	c7 85 e4 f5 ff ff f8 	movl   $0xfffffff8,-0xa1c(%rbp)
    a75c:	ff ff ff 
    a75f:	48 8b 05 0a 0e 01 00 	mov    0x10e0a(%rip),%rax        # 1b570 <g_639>
    a766:	48 8b 00             	mov    (%rax),%rax
    a769:	48 8b 10             	mov    (%rax),%rdx
    a76c:	48 8d 85 bc f5 ff ff 	lea    -0xa44(%rbp),%rax
    a773:	48 39 c2             	cmp    %rax,%rdx
    a776:	0f 95 c0             	setne  %al
    a779:	0f b6 c0             	movzbl %al,%eax
    a77c:	09 85 e4 f5 ff ff    	or     %eax,-0xa1c(%rbp)
    a782:	8b 05 b8 e8 00 00    	mov    0xe8b8(%rip),%eax        # 19040 <g_8>
    a788:	48 98                	cltq   
    a78a:	48 8d 14 85 00 00 00 	lea    0x0(,%rax,4),%rdx
    a791:	00 
    a792:	48 8d 05 97 e8 00 00 	lea    0xe897(%rip),%rax        # 19030 <g_7>
    a799:	8b 04 02             	mov    (%rdx,%rax,1),%eax
    a79c:	31 85 d4 f5 ff ff    	xor    %eax,-0xa2c(%rbp)
    a7a2:	8b 85 bc f5 ff ff    	mov    -0xa44(%rbp),%eax
    a7a8:	e9 78 01 00 00       	jmpq   a925 <func_2+0xc2a>
    a7ad:	c6 05 fc 18 01 00 00 	movb   $0x0,0x118fc(%rip)        # 1c0b0 <g_1074>
    a7b4:	90                   	nop
    a7b5:	0f b6 05 f4 18 01 00 	movzbl 0x118f4(%rip),%eax        # 1c0b0 <g_1074>
    a7bc:	3c 03                	cmp    $0x3,%al
    a7be:	7f 17                	jg     a7d7 <func_2+0xadc>
    a7c0:	48 8b 05 09 14 01 00 	mov    0x11409(%rip),%rax        # 1bbd0 <g_2088>
    a7c7:	48 8b 00             	mov    (%rax),%rax
    a7ca:	8b 00                	mov    (%rax),%eax
    a7cc:	8b 85 bc f5 ff ff    	mov    -0xa44(%rbp),%eax
    a7d2:	e9 4e 01 00 00       	jmpq   a925 <func_2+0xc2a>
    a7d7:	48 8b 05 52 13 01 00 	mov    0x11352(%rip),%rax        # 1bb30 <g_1867>
    a7de:	48 8b 00             	mov    (%rax),%rax
    a7e1:	48 89 c6             	mov    %rax,%rsi
    a7e4:	bf 01 00 00 00       	mov    $0x1,%edi
    a7e9:	e8 c1 b8 ff ff       	callq  60af <safe_div_func_uint64_t_u_u>
    a7ee:	48 89 c3             	mov    %rax,%rbx
    a7f1:	8b 05 d9 fb 00 00    	mov    0xfbd9(%rip),%eax        # 1a3d0 <g_2260+0x10>
    a7f7:	be 07 74 50 e9       	mov    $0xe9507407,%esi
    a7fc:	89 c7                	mov    %eax,%edi
    a7fe:	e8 b5 b6 ff ff       	callq  5eb8 <safe_add_func_uint32_t_u_u>
    a803:	89 c2                	mov    %eax,%edx
    a805:	48 8b 05 94 12 01 00 	mov    0x11294(%rip),%rax        # 1baa0 <g_1503>
    a80c:	48 8b 00             	mov    (%rax),%rax
    a80f:	0f b7 08             	movzwl (%rax),%ecx
    a812:	89 de                	mov    %ebx,%esi
    a814:	48 8b 05 85 12 01 00 	mov    0x11285(%rip),%rax        # 1baa0 <g_1503>
    a81b:	48 8b 00             	mov    (%rax),%rax
    a81e:	31 f1                	xor    %esi,%ecx
    a820:	66 89 08             	mov    %cx,(%rax)
    a823:	0f b7 00             	movzwl (%rax),%eax
    a826:	0f b7 c8             	movzwl %ax,%ecx
    a829:	8b 85 bc f5 ff ff    	mov    -0xa44(%rbp),%eax
    a82f:	39 c1                	cmp    %eax,%ecx
    a831:	0f 9e c0             	setle  %al
    a834:	0f b6 c0             	movzbl %al,%eax
    a837:	39 c2                	cmp    %eax,%edx
    a839:	72 07                	jb     a842 <func_2+0xb47>
    a83b:	b9 01 00 00 00       	mov    $0x1,%ecx
    a840:	eb 05                	jmp    a847 <func_2+0xb4c>
    a842:	b9 00 00 00 00       	mov    $0x0,%ecx
    a847:	48 8b 05 da 11 01 00 	mov    0x111da(%rip),%rax        # 1ba28 <g_749>
    a84e:	48 8b 00             	mov    (%rax),%rax
    a851:	0f b6 10             	movzbl (%rax),%edx
    a854:	21 ca                	and    %ecx,%edx
    a856:	88 10                	mov    %dl,(%rax)
    a858:	0f b6 00             	movzbl (%rax),%eax
    a85b:	84 c0                	test   %al,%al
    a85d:	75 0f                	jne    a86e <func_2+0xb73>
    a85f:	48 8b 05 c2 11 01 00 	mov    0x111c2(%rip),%rax        # 1ba28 <g_749>
    a866:	48 8b 00             	mov    (%rax),%rax
    a869:	0f b6 00             	movzbl (%rax),%eax
    a86c:	84 c0                	test   %al,%al
    a86e:	b8 00 00 00 00       	mov    $0x0,%eax
    a873:	30 85 cc f5 ff ff    	xor    %al,-0xa34(%rbp)
    a879:	8b 05 c1 e7 00 00    	mov    0xe7c1(%rip),%eax        # 19040 <g_8>
    a87f:	83 e8 01             	sub    $0x1,%eax
    a882:	89 05 b8 e7 00 00    	mov    %eax,0xe7b8(%rip)        # 19040 <g_8>
    a888:	8b 05 b2 e7 00 00    	mov    0xe7b2(%rip),%eax        # 19040 <g_8>
    a88e:	85 c0                	test   %eax,%eax
    a890:	0f 89 bb f6 ff ff    	jns    9f51 <func_2+0x256>
    a896:	48 8b 15 cb 0c 01 00 	mov    0x10ccb(%rip),%rdx        # 1b568 <g_640>
    a89d:	48 8b 05 cc 0c 01 00 	mov    0x10ccc(%rip),%rax        # 1b570 <g_639>
    a8a4:	48 8b 00             	mov    (%rax),%rax
    a8a7:	48 8b 12             	mov    (%rdx),%rdx
    a8aa:	48 89 10             	mov    %rdx,(%rax)
    a8ad:	8b 85 bc f5 ff ff    	mov    -0xa44(%rbp),%eax
    a8b3:	83 e8 01             	sub    $0x1,%eax
    a8b6:	89 85 bc f5 ff ff    	mov    %eax,-0xa44(%rbp)
    a8bc:	8b 85 bc f5 ff ff    	mov    -0xa44(%rbp),%eax
    a8c2:	83 f8 e9             	cmp    $0xffffffe9,%eax
    a8c5:	0f 8c 2a f6 ff ff    	jl     9ef5 <func_2+0x1fa>
    a8cb:	48 c7 05 da ec 00 00 	movq   $0x0,0xecda(%rip)        # 195b0 <g_906>
    a8d2:	00 00 00 00 
    a8d6:	eb 3a                	jmp    a912 <func_2+0xc17>
    a8d8:	8b 85 bc f5 ff ff    	mov    -0xa44(%rbp),%eax
    a8de:	89 85 d8 f5 ff ff    	mov    %eax,-0xa28(%rbp)
    a8e4:	48 8b 05 3d 13 01 00 	mov    0x1133d(%rip),%rax        # 1bc28 <g_2236>
    a8eb:	8b 95 d8 f5 ff ff    	mov    -0xa28(%rbp),%edx
    a8f1:	89 10                	mov    %edx,(%rax)
    a8f3:	48 8b 05 b6 ec 00 00 	mov    0xecb6(%rip),%rax        # 195b0 <g_906>
    a8fa:	98                   	cwtl   
    a8fb:	be 04 00 00 00       	mov    $0x4,%esi
    a900:	89 c7                	mov    %eax,%edi
    a902:	e8 ac aa ff ff       	callq  53b3 <safe_add_func_int16_t_s_s>
    a907:	48 0f bf c0          	movswq %ax,%rax
    a90b:	48 89 05 9e ec 00 00 	mov    %rax,0xec9e(%rip)        # 195b0 <g_906>
    a912:	48 8b 05 97 ec 00 00 	mov    0xec97(%rip),%rax        # 195b0 <g_906>
    a919:	48 83 f8 0a          	cmp    $0xa,%rax
    a91d:	7e b9                	jle    a8d8 <func_2+0xbdd>
    a91f:	8b 85 bc f5 ff ff    	mov    -0xa44(%rbp),%eax
    a925:	48 8b 5d c8          	mov    -0x38(%rbp),%rbx
    a929:	64 48 33 1c 25 28 00 	xor    %fs:0x28,%rbx
    a930:	00 00 
    a932:	74 05                	je     a939 <func_2+0xc3e>
    a934:	e8 37 a7 ff ff       	callq  5070 <__stack_chk_fail@plt>
    a939:	48 81 c4 28 0a 00 00 	add    $0xa28,%rsp
    a940:	5b                   	pop    %rbx
    a941:	41 5c                	pop    %r12
    a943:	41 5d                	pop    %r13
    a945:	41 5e                	pop    %r14
    a947:	41 5f                	pop    %r15
    a949:	5d                   	pop    %rbp
    a94a:	c3                   	retq   

000000000000a94b <func_10>:
    a94b:	f3 0f 1e fa          	endbr64 
    a94f:	55                   	push   %rbp
    a950:	48 89 e5             	mov    %rsp,%rbp
    a953:	53                   	push   %rbx
    a954:	48 81 ec a8 03 00 00 	sub    $0x3a8,%rsp
    a95b:	89 bd 5c fc ff ff    	mov    %edi,-0x3a4(%rbp)
    a961:	64 48 8b 04 25 28 00 	mov    %fs:0x28,%rax
    a968:	00 00 
    a96a:	48 89 45 e8          	mov    %rax,-0x18(%rbp)
    a96e:	31 c0                	xor    %eax,%eax
    a970:	48 8d 05 01 11 01 00 	lea    0x11101(%rip),%rax        # 1ba78 <g_1389>
    a977:	48 89 85 c0 fc ff ff 	mov    %rax,-0x340(%rbp)
    a97e:	c7 85 68 fc ff ff 14 	movl   $0x811bef14,-0x398(%rbp)
    a985:	ef 1b 81 
    a988:	66 c7 85 64 fc ff ff 	movw   $0xc31d,-0x39c(%rbp)
    a98f:	1d c3 
    a991:	c7 85 74 fc ff ff 8b 	movl   $0x59d8dd8b,-0x38c(%rbp)
    a998:	dd d8 59 
    a99b:	c7 85 60 fd ff ff 60 	movl   $0x221e2f60,-0x2a0(%rbp)
    a9a2:	2f 1e 22 
    a9a5:	c7 85 64 fd ff ff 4b 	movl   $0x96bfa14b,-0x29c(%rbp)
    a9ac:	a1 bf 96 
    a9af:	c7 85 68 fd ff ff 60 	movl   $0x221e2f60,-0x298(%rbp)
    a9b6:	2f 1e 22 
    a9b9:	c7 85 6c fd ff ff 4b 	movl   $0x96bfa14b,-0x294(%rbp)
    a9c0:	a1 bf 96 
    a9c3:	c7 85 70 fd ff ff 60 	movl   $0x221e2f60,-0x290(%rbp)
    a9ca:	2f 1e 22 
    a9cd:	c7 85 74 fd ff ff 4b 	movl   $0x96bfa14b,-0x28c(%rbp)
    a9d4:	a1 bf 96 
    a9d7:	c7 85 78 fd ff ff 60 	movl   $0x221e2f60,-0x288(%rbp)
    a9de:	2f 1e 22 
    a9e1:	c7 85 7c fd ff ff 4b 	movl   $0x96bfa14b,-0x284(%rbp)
    a9e8:	a1 bf 96 
    a9eb:	48 8d 05 ee e8 00 00 	lea    0xe8ee(%rip),%rax        # 192e0 <g_79>
    a9f2:	48 89 85 c8 fc ff ff 	mov    %rax,-0x338(%rbp)
    a9f9:	c6 85 61 fc ff ff ad 	movb   $0xad,-0x39f(%rbp)
    aa00:	48 8d 05 81 e6 00 00 	lea    0xe681(%rip),%rax        # 19088 <g_12+0x28>
    aa07:	48 89 85 d0 fc ff ff 	mov    %rax,-0x330(%rbp)
    aa0e:	c6 85 62 fc ff ff d9 	movb   $0xd9,-0x39e(%rbp)
    aa15:	48 c7 85 d8 fc ff ff 	movq   $0x0,-0x328(%rbp)
    aa1c:	00 00 00 00 
    aa20:	48 c7 85 e0 fc ff ff 	movq   $0x0,-0x320(%rbp)
    aa27:	00 00 00 00 
    aa2b:	48 c7 85 a0 fc ff ff 	movq   $0x0,-0x360(%rbp)
    aa32:	00 00 00 00 
    aa36:	48 8d 85 a0 fc ff ff 	lea    -0x360(%rbp),%rax
    aa3d:	48 89 85 a8 fc ff ff 	mov    %rax,-0x358(%rbp)
    aa44:	48 8d 85 a8 fc ff ff 	lea    -0x358(%rbp),%rax
    aa4b:	48 89 85 e8 fc ff ff 	mov    %rax,-0x318(%rbp)
    aa52:	48 8d 05 0f 0b 01 00 	lea    0x10b0f(%rip),%rax        # 1b568 <g_640>
    aa59:	48 89 85 d0 fd ff ff 	mov    %rax,-0x230(%rbp)
    aa60:	48 8d 05 01 0b 01 00 	lea    0x10b01(%rip),%rax        # 1b568 <g_640>
    aa67:	48 89 85 d8 fd ff ff 	mov    %rax,-0x228(%rbp)
    aa6e:	48 8d 05 f3 0a 01 00 	lea    0x10af3(%rip),%rax        # 1b568 <g_640>
    aa75:	48 89 85 e0 fd ff ff 	mov    %rax,-0x220(%rbp)
    aa7c:	48 8d 05 e5 0a 01 00 	lea    0x10ae5(%rip),%rax        # 1b568 <g_640>
    aa83:	48 89 85 e8 fd ff ff 	mov    %rax,-0x218(%rbp)
    aa8a:	48 8d 05 d7 0a 01 00 	lea    0x10ad7(%rip),%rax        # 1b568 <g_640>
    aa91:	48 89 85 f0 fd ff ff 	mov    %rax,-0x210(%rbp)
    aa98:	48 8d 05 c9 0a 01 00 	lea    0x10ac9(%rip),%rax        # 1b568 <g_640>
    aa9f:	48 89 85 f8 fd ff ff 	mov    %rax,-0x208(%rbp)
    aaa6:	48 8d 05 bb 0a 01 00 	lea    0x10abb(%rip),%rax        # 1b568 <g_640>
    aaad:	48 89 85 00 fe ff ff 	mov    %rax,-0x200(%rbp)
    aab4:	48 8d 05 ad 0a 01 00 	lea    0x10aad(%rip),%rax        # 1b568 <g_640>
    aabb:	48 89 85 08 fe ff ff 	mov    %rax,-0x1f8(%rbp)
    aac2:	48 8d 05 9f 0a 01 00 	lea    0x10a9f(%rip),%rax        # 1b568 <g_640>
    aac9:	48 89 85 10 fe ff ff 	mov    %rax,-0x1f0(%rbp)
    aad0:	48 8d 05 91 0a 01 00 	lea    0x10a91(%rip),%rax        # 1b568 <g_640>
    aad7:	48 89 85 18 fe ff ff 	mov    %rax,-0x1e8(%rbp)
    aade:	48 8d 05 83 0a 01 00 	lea    0x10a83(%rip),%rax        # 1b568 <g_640>
    aae5:	48 89 85 20 fe ff ff 	mov    %rax,-0x1e0(%rbp)
    aaec:	48 8d 05 75 0a 01 00 	lea    0x10a75(%rip),%rax        # 1b568 <g_640>
    aaf3:	48 89 85 28 fe ff ff 	mov    %rax,-0x1d8(%rbp)
    aafa:	48 8d 05 67 0a 01 00 	lea    0x10a67(%rip),%rax        # 1b568 <g_640>
    ab01:	48 89 85 30 fe ff ff 	mov    %rax,-0x1d0(%rbp)
    ab08:	48 8d 05 59 0a 01 00 	lea    0x10a59(%rip),%rax        # 1b568 <g_640>
    ab0f:	48 89 85 38 fe ff ff 	mov    %rax,-0x1c8(%rbp)
    ab16:	48 8d 05 4b 0a 01 00 	lea    0x10a4b(%rip),%rax        # 1b568 <g_640>
    ab1d:	48 89 85 40 fe ff ff 	mov    %rax,-0x1c0(%rbp)
    ab24:	48 8d 05 3d 0a 01 00 	lea    0x10a3d(%rip),%rax        # 1b568 <g_640>
    ab2b:	48 89 85 48 fe ff ff 	mov    %rax,-0x1b8(%rbp)
    ab32:	48 8d 05 2f 0a 01 00 	lea    0x10a2f(%rip),%rax        # 1b568 <g_640>
    ab39:	48 89 85 50 fe ff ff 	mov    %rax,-0x1b0(%rbp)
    ab40:	48 8d 05 21 0a 01 00 	lea    0x10a21(%rip),%rax        # 1b568 <g_640>
    ab47:	48 89 85 58 fe ff ff 	mov    %rax,-0x1a8(%rbp)
    ab4e:	48 8d 05 13 0a 01 00 	lea    0x10a13(%rip),%rax        # 1b568 <g_640>
    ab55:	48 89 85 60 fe ff ff 	mov    %rax,-0x1a0(%rbp)
    ab5c:	48 8d 05 05 0a 01 00 	lea    0x10a05(%rip),%rax        # 1b568 <g_640>
    ab63:	48 89 85 68 fe ff ff 	mov    %rax,-0x198(%rbp)
    ab6a:	48 8d 05 a7 08 01 00 	lea    0x108a7(%rip),%rax        # 1b418 <g_169>
    ab71:	48 89 85 20 ff ff ff 	mov    %rax,-0xe0(%rbp)
    ab78:	48 8d 05 99 08 01 00 	lea    0x10899(%rip),%rax        # 1b418 <g_169>
    ab7f:	48 89 85 28 ff ff ff 	mov    %rax,-0xd8(%rbp)
    ab86:	48 8d 05 8b 08 01 00 	lea    0x1088b(%rip),%rax        # 1b418 <g_169>
    ab8d:	48 89 85 30 ff ff ff 	mov    %rax,-0xd0(%rbp)
    ab94:	48 8d 05 7d 08 01 00 	lea    0x1087d(%rip),%rax        # 1b418 <g_169>
    ab9b:	48 89 85 38 ff ff ff 	mov    %rax,-0xc8(%rbp)
    aba2:	48 8d 05 6f 08 01 00 	lea    0x1086f(%rip),%rax        # 1b418 <g_169>
    aba9:	48 89 85 40 ff ff ff 	mov    %rax,-0xc0(%rbp)
    abb0:	48 8d 05 61 08 01 00 	lea    0x10861(%rip),%rax        # 1b418 <g_169>
    abb7:	48 89 85 48 ff ff ff 	mov    %rax,-0xb8(%rbp)
    abbe:	48 8d 05 53 08 01 00 	lea    0x10853(%rip),%rax        # 1b418 <g_169>
    abc5:	48 89 85 50 ff ff ff 	mov    %rax,-0xb0(%rbp)
    abcc:	48 8d 05 45 08 01 00 	lea    0x10845(%rip),%rax        # 1b418 <g_169>
    abd3:	48 89 85 58 ff ff ff 	mov    %rax,-0xa8(%rbp)
    abda:	48 8d 05 37 08 01 00 	lea    0x10837(%rip),%rax        # 1b418 <g_169>
    abe1:	48 89 85 60 ff ff ff 	mov    %rax,-0xa0(%rbp)
    abe8:	48 8d 05 29 08 01 00 	lea    0x10829(%rip),%rax        # 1b418 <g_169>
    abef:	48 89 85 68 ff ff ff 	mov    %rax,-0x98(%rbp)
    abf6:	48 8d 05 1b 08 01 00 	lea    0x1081b(%rip),%rax        # 1b418 <g_169>
    abfd:	48 89 85 70 ff ff ff 	mov    %rax,-0x90(%rbp)
    ac04:	48 8d 05 0d 08 01 00 	lea    0x1080d(%rip),%rax        # 1b418 <g_169>
    ac0b:	48 89 85 78 ff ff ff 	mov    %rax,-0x88(%rbp)
    ac12:	48 8d 05 ff 07 01 00 	lea    0x107ff(%rip),%rax        # 1b418 <g_169>
    ac19:	48 89 45 80          	mov    %rax,-0x80(%rbp)
    ac1d:	48 8d 05 f4 07 01 00 	lea    0x107f4(%rip),%rax        # 1b418 <g_169>
    ac24:	48 89 45 88          	mov    %rax,-0x78(%rbp)
    ac28:	48 8d 05 e9 07 01 00 	lea    0x107e9(%rip),%rax        # 1b418 <g_169>
    ac2f:	48 89 45 90          	mov    %rax,-0x70(%rbp)
    ac33:	48 8d 05 de 07 01 00 	lea    0x107de(%rip),%rax        # 1b418 <g_169>
    ac3a:	48 89 45 98          	mov    %rax,-0x68(%rbp)
    ac3e:	48 8d 05 d3 07 01 00 	lea    0x107d3(%rip),%rax        # 1b418 <g_169>
    ac45:	48 89 45 a0          	mov    %rax,-0x60(%rbp)
    ac49:	48 8d 05 c8 07 01 00 	lea    0x107c8(%rip),%rax        # 1b418 <g_169>
    ac50:	48 89 45 a8          	mov    %rax,-0x58(%rbp)
    ac54:	48 8d 05 bd 07 01 00 	lea    0x107bd(%rip),%rax        # 1b418 <g_169>
    ac5b:	48 89 45 b0          	mov    %rax,-0x50(%rbp)
    ac5f:	48 8d 05 b2 07 01 00 	lea    0x107b2(%rip),%rax        # 1b418 <g_169>
    ac66:	48 89 45 b8          	mov    %rax,-0x48(%rbp)
    ac6a:	48 8d 05 a7 07 01 00 	lea    0x107a7(%rip),%rax        # 1b418 <g_169>
    ac71:	48 89 45 c0          	mov    %rax,-0x40(%rbp)
    ac75:	48 8d 05 9c 07 01 00 	lea    0x1079c(%rip),%rax        # 1b418 <g_169>
    ac7c:	48 89 45 c8          	mov    %rax,-0x38(%rbp)
    ac80:	48 8d 05 91 07 01 00 	lea    0x10791(%rip),%rax        # 1b418 <g_169>
    ac87:	48 89 45 d0          	mov    %rax,-0x30(%rbp)
    ac8b:	48 8d 05 86 07 01 00 	lea    0x10786(%rip),%rax        # 1b418 <g_169>
    ac92:	48 89 45 d8          	mov    %rax,-0x28(%rbp)
    ac96:	48 8d 05 7b 07 01 00 	lea    0x1077b(%rip),%rax        # 1b418 <g_169>
    ac9d:	48 89 45 e0          	mov    %rax,-0x20(%rbp)
    aca1:	48 8d 85 20 ff ff ff 	lea    -0xe0(%rbp),%rax
    aca8:	48 05 c0 00 00 00    	add    $0xc0,%rax
    acae:	48 89 85 b0 fc ff ff 	mov    %rax,-0x350(%rbp)
    acb5:	48 8d 85 b0 fc ff ff 	lea    -0x350(%rbp),%rax
    acbc:	48 89 85 f0 fc ff ff 	mov    %rax,-0x310(%rbp)
    acc3:	48 b8 a5 3e 16 2b ae 	movabs $0xd63d69ae2b163ea5,%rax
    acca:	69 3d d6 
    accd:	48 89 85 f8 fc ff ff 	mov    %rax,-0x308(%rbp)
    acd4:	c6 85 63 fc ff ff ad 	movb   $0xad,-0x39d(%rbp)
    acdb:	c7 85 78 fc ff ff d3 	movl   $0x613431d3,-0x388(%rbp)
    ace2:	31 34 61 
    ace5:	c7 85 5c fc ff ff 00 	movl   $0x0,-0x3a4(%rbp)
    acec:	00 00 00 
    acef:	e9 fe 04 00 00       	jmpq   b1f2 <func_10+0x8a7>
    acf4:	48 c7 85 00 fd ff ff 	movq   $0x0,-0x300(%rbp)
    acfb:	00 00 00 00 
    acff:	c7 85 7c fc ff ff 06 	movl   $0xe4f54906,-0x384(%rbp)
    ad06:	49 f5 e4 
    ad09:	c7 85 80 fc ff ff 00 	movl   $0x0,-0x380(%rbp)
    ad10:	00 00 00 
    ad13:	c7 85 6c fc ff ff cb 	movl   $0x15ad01cb,-0x394(%rbp)
    ad1a:	01 ad 15 
    ad1d:	48 8d 05 3c 08 01 00 	lea    0x1083c(%rip),%rax        # 1b560 <g_570>
    ad24:	48 89 85 b8 fc ff ff 	mov    %rax,-0x348(%rbp)
    ad2b:	48 8d 85 b8 fc ff ff 	lea    -0x348(%rbp),%rax
    ad32:	48 89 85 70 fe ff ff 	mov    %rax,-0x190(%rbp)
    ad39:	48 8d 85 b8 fc ff ff 	lea    -0x348(%rbp),%rax
    ad40:	48 89 85 78 fe ff ff 	mov    %rax,-0x188(%rbp)
    ad47:	48 c7 85 80 fe ff ff 	movq   $0x0,-0x180(%rbp)
    ad4e:	00 00 00 00 
    ad52:	48 8d 85 b8 fc ff ff 	lea    -0x348(%rbp),%rax
    ad59:	48 89 85 88 fe ff ff 	mov    %rax,-0x178(%rbp)
    ad60:	48 8d 85 b8 fc ff ff 	lea    -0x348(%rbp),%rax
    ad67:	48 89 85 90 fe ff ff 	mov    %rax,-0x170(%rbp)
    ad6e:	48 8d 85 b8 fc ff ff 	lea    -0x348(%rbp),%rax
    ad75:	48 89 85 98 fe ff ff 	mov    %rax,-0x168(%rbp)
    ad7c:	48 8d 85 b8 fc ff ff 	lea    -0x348(%rbp),%rax
    ad83:	48 89 85 a0 fe ff ff 	mov    %rax,-0x160(%rbp)
    ad8a:	48 c7 85 a8 fe ff ff 	movq   $0x0,-0x158(%rbp)
    ad91:	00 00 00 00 
    ad95:	48 c7 85 b0 fe ff ff 	movq   $0x0,-0x150(%rbp)
    ad9c:	00 00 00 00 
    ada0:	48 8d 85 b8 fc ff ff 	lea    -0x348(%rbp),%rax
    ada7:	48 89 85 b8 fe ff ff 	mov    %rax,-0x148(%rbp)
    adae:	48 8d 85 b8 fc ff ff 	lea    -0x348(%rbp),%rax
    adb5:	48 89 85 c0 fe ff ff 	mov    %rax,-0x140(%rbp)
    adbc:	48 8d 85 b8 fc ff ff 	lea    -0x348(%rbp),%rax
    adc3:	48 89 85 c8 fe ff ff 	mov    %rax,-0x138(%rbp)
    adca:	48 8d 85 b8 fc ff ff 	lea    -0x348(%rbp),%rax
    add1:	48 89 85 d0 fe ff ff 	mov    %rax,-0x130(%rbp)
    add8:	48 8d 85 b8 fc ff ff 	lea    -0x348(%rbp),%rax
    addf:	48 89 85 d8 fe ff ff 	mov    %rax,-0x128(%rbp)
    ade6:	48 c7 85 e0 fe ff ff 	movq   $0x0,-0x120(%rbp)
    aded:	00 00 00 00 
    adf1:	48 8d 85 b8 fc ff ff 	lea    -0x348(%rbp),%rax
    adf8:	48 89 85 e8 fe ff ff 	mov    %rax,-0x118(%rbp)
    adff:	48 8d 85 b8 fc ff ff 	lea    -0x348(%rbp),%rax
    ae06:	48 89 85 f0 fe ff ff 	mov    %rax,-0x110(%rbp)
    ae0d:	48 8d 85 b8 fc ff ff 	lea    -0x348(%rbp),%rax
    ae14:	48 89 85 f8 fe ff ff 	mov    %rax,-0x108(%rbp)
    ae1b:	48 8d 85 b8 fc ff ff 	lea    -0x348(%rbp),%rax
    ae22:	48 89 85 00 ff ff ff 	mov    %rax,-0x100(%rbp)
    ae29:	48 c7 85 08 ff ff ff 	movq   $0x0,-0xf8(%rbp)
    ae30:	00 00 00 00 
    ae34:	48 c7 85 10 ff ff ff 	movq   $0x0,-0xf0(%rbp)
    ae3b:	00 00 00 00 
    ae3f:	48 8d 85 70 fe ff ff 	lea    -0x190(%rbp),%rax
    ae46:	48 05 98 00 00 00    	add    $0x98,%rax
    ae4c:	48 89 85 08 fd ff ff 	mov    %rax,-0x2f8(%rbp)
    ae53:	c7 85 84 fc ff ff 45 	movl   $0xb66a1c45,-0x37c(%rbp)
    ae5a:	1c 6a b6 
    ae5d:	c7 85 88 fc ff ff 1e 	movl   $0x73abf81e,-0x378(%rbp)
    ae64:	f8 ab 73 
    ae67:	48 8d 05 1e 12 01 00 	lea    0x1121e(%rip),%rax        # 1c08c <g_92>
    ae6e:	48 89 85 10 fd ff ff 	mov    %rax,-0x2f0(%rbp)
    ae75:	c7 85 8c fc ff ff 19 	movl   $0x68376219,-0x374(%rbp)
    ae7c:	62 37 68 
    ae7f:	c7 85 70 fc ff ff 00 	movl   $0x0,-0x390(%rbp)
    ae86:	00 00 00 
    ae89:	eb 1e                	jmp    aea9 <func_10+0x55e>
    ae8b:	8b 85 70 fc ff ff    	mov    -0x390(%rbp),%eax
    ae91:	48 98                	cltq   
    ae93:	48 8d 95 6c fc ff ff 	lea    -0x394(%rbp),%rdx
    ae9a:	48 89 94 c5 50 fd ff 	mov    %rdx,-0x2b0(%rbp,%rax,8)
    aea1:	ff 
    aea2:	83 85 70 fc ff ff 01 	addl   $0x1,-0x390(%rbp)
    aea9:	83 bd 70 fc ff ff 01 	cmpl   $0x1,-0x390(%rbp)
    aeb0:	7e d9                	jle    ae8b <func_10+0x540>
    aeb2:	c7 05 cc e1 00 00 00 	movl   $0x0,0xe1cc(%rip)        # 19088 <g_12+0x28>
    aeb9:	00 00 00 
    aebc:	eb 39                	jmp    aef7 <func_10+0x5ac>
    aebe:	8b 85 5c fc ff ff    	mov    -0x3a4(%rbp),%eax
    aec4:	48 8d 14 85 00 00 00 	lea    0x0(,%rax,4),%rdx
    aecb:	00 
    aecc:	48 8d 05 5d e1 00 00 	lea    0xe15d(%rip),%rax        # 19030 <g_7>
    aed3:	8b 04 02             	mov    (%rdx,%rax,1),%eax
    aed6:	98                   	cwtl   
    aed7:	48 8b 1d fa 0b 01 00 	mov    0x10bfa(%rip),%rbx        # 1bad8 <g_1726>
    aede:	89 c7                	mov    %eax,%edi
    aee0:	e8 42 03 00 00       	callq  b227 <func_13>
    aee5:	48 89 03             	mov    %rax,(%rbx)
    aee8:	8b 05 9a e1 00 00    	mov    0xe19a(%rip),%eax        # 19088 <g_12+0x28>
    aeee:	83 c0 01             	add    $0x1,%eax
    aef1:	89 05 91 e1 00 00    	mov    %eax,0xe191(%rip)        # 19088 <g_12+0x28>
    aef7:	8b 05 8b e1 00 00    	mov    0xe18b(%rip),%eax        # 19088 <g_12+0x28>
    aefd:	83 f8 03             	cmp    $0x3,%eax
    af00:	7e bc                	jle    aebe <func_10+0x573>
    af02:	c6 05 01 e4 00 00 00 	movb   $0x0,0xe401(%rip)        # 1930a <g_228>
    af09:	e9 8a 01 00 00       	jmpq   b098 <func_10+0x74d>
    af0e:	c7 85 90 fc ff ff 08 	movl   $0x8,-0x370(%rbp)
    af15:	00 00 00 
    af18:	48 8d 85 68 fc ff ff 	lea    -0x398(%rbp),%rax
    af1f:	48 89 85 18 fd ff ff 	mov    %rax,-0x2e8(%rbp)
    af26:	c7 85 80 fd ff ff 7b 	movl   $0x20a8537b,-0x280(%rbp)
    af2d:	53 a8 20 
    af30:	c7 85 84 fd ff ff 00 	movl   $0x0,-0x27c(%rbp)
    af37:	00 00 00 
    af3a:	c7 85 88 fd ff ff 7b 	movl   $0x20a8537b,-0x278(%rbp)
    af41:	53 a8 20 
    af44:	c7 85 8c fd ff ff 00 	movl   $0x0,-0x274(%rbp)
    af4b:	00 00 00 
    af4e:	c7 85 90 fd ff ff 7b 	movl   $0x20a8537b,-0x270(%rbp)
    af55:	53 a8 20 
    af58:	c7 85 94 fd ff ff 00 	movl   $0x0,-0x26c(%rbp)
    af5f:	00 00 00 
    af62:	c7 85 98 fd ff ff 7b 	movl   $0x20a8537b,-0x268(%rbp)
    af69:	53 a8 20 
    af6c:	c7 85 9c fd ff ff 00 	movl   $0x0,-0x264(%rbp)
    af73:	00 00 00 
    af76:	c7 85 a0 fd ff ff 7b 	movl   $0x20a8537b,-0x260(%rbp)
    af7d:	53 a8 20 
    af80:	c7 85 a4 fd ff ff 00 	movl   $0x0,-0x25c(%rbp)
    af87:	00 00 00 
    af8a:	c7 85 a8 fd ff ff 00 	movl   $0x0,-0x258(%rbp)
    af91:	00 00 00 
    af94:	c7 85 ac fd ff ff 00 	movl   $0x0,-0x254(%rbp)
    af9b:	00 00 00 
    af9e:	c7 85 b0 fd ff ff 00 	movl   $0x0,-0x250(%rbp)
    afa5:	00 00 00 
    afa8:	c7 85 b4 fd ff ff 00 	movl   $0x0,-0x24c(%rbp)
    afaf:	00 00 00 
    afb2:	c7 85 b8 fd ff ff 00 	movl   $0x0,-0x248(%rbp)
    afb9:	00 00 00 
    afbc:	c7 85 bc fd ff ff 00 	movl   $0x0,-0x244(%rbp)
    afc3:	00 00 00 
    afc6:	c7 85 c0 fd ff ff 00 	movl   $0x0,-0x240(%rbp)
    afcd:	00 00 00 
    afd0:	c7 85 c4 fd ff ff 00 	movl   $0x0,-0x23c(%rbp)
    afd7:	00 00 00 
    afda:	c7 85 c8 fd ff ff 00 	movl   $0x0,-0x238(%rbp)
    afe1:	00 00 00 
    afe4:	c7 85 cc fd ff ff 00 	movl   $0x0,-0x234(%rbp)
    afeb:	00 00 00 
    afee:	48 c7 85 20 fd ff ff 	movq   $0x0,-0x2e0(%rbp)
    aff5:	00 00 00 00 
    aff9:	48 c7 85 28 fd ff ff 	movq   $0xffffffffffffffff,-0x2d8(%rbp)
    b000:	ff ff ff ff 
    b004:	48 c7 85 30 fd ff ff 	movq   $0x0,-0x2d0(%rbp)
    b00b:	00 00 00 00 
    b00f:	c7 85 94 fc ff ff fa 	movl   $0xfffffffa,-0x36c(%rbp)
    b016:	ff ff ff 
    b019:	c7 85 98 fc ff ff 04 	movl   $0x4,-0x368(%rbp)
    b020:	00 00 00 
    b023:	48 8d 85 d0 fd ff ff 	lea    -0x230(%rbp),%rax
    b02a:	48 05 90 00 00 00    	add    $0x90,%rax
    b030:	48 89 85 38 fd ff ff 	mov    %rax,-0x2c8(%rbp)
    b037:	48 8d 05 ba 04 01 00 	lea    0x104ba(%rip),%rax        # 1b4f8 <g_284+0x18>
    b03e:	48 89 85 40 fd ff ff 	mov    %rax,-0x2c0(%rbp)
    b045:	66 c7 85 66 fc ff ff 	movw   $0x1,-0x39a(%rbp)
    b04c:	01 00 
    b04e:	48 8d 05 9b 0a 01 00 	lea    0x10a9b(%rip),%rax        # 1baf0 <g_1772>
    b055:	48 89 85 48 fd ff ff 	mov    %rax,-0x2b8(%rbp)
    b05c:	c7 85 9c fc ff ff 32 	movl   $0x6ddbf932,-0x364(%rbp)
    b063:	f9 db 6d 
    b066:	0f b6 05 9d e2 00 00 	movzbl 0xe29d(%rip),%eax        # 1930a <g_228>
    b06d:	0f be c0             	movsbl %al,%eax
    b070:	48 98                	cltq   
    b072:	48 8d 14 85 00 00 00 	lea    0x0(,%rax,4),%rdx
    b079:	00 
    b07a:	48 8d 05 af df 00 00 	lea    0xdfaf(%rip),%rax        # 19030 <g_7>
    b081:	8b 04 02             	mov    (%rdx,%rax,1),%eax
    b084:	85 c0                	test   %eax,%eax
    b086:	75 21                	jne    b0a9 <func_10+0x75e>
    b088:	0f b6 05 7b e2 00 00 	movzbl 0xe27b(%rip),%eax        # 1930a <g_228>
    b08f:	83 c0 01             	add    $0x1,%eax
    b092:	88 05 72 e2 00 00    	mov    %al,0xe272(%rip)        # 1930a <g_228>
    b098:	0f b6 05 6b e2 00 00 	movzbl 0xe26b(%rip),%eax        # 1930a <g_228>
    b09f:	3c 03                	cmp    $0x3,%al
    b0a1:	0f 8e 67 fe ff ff    	jle    af0e <func_10+0x5c3>
    b0a7:	eb 01                	jmp    b0aa <func_10+0x75f>
    b0a9:	90                   	nop
    b0aa:	8b 85 78 fc ff ff    	mov    -0x388(%rbp),%eax
    b0b0:	98                   	cwtl   
    b0b1:	be 0e 00 00 00       	mov    $0xe,%esi
    b0b6:	89 c7                	mov    %eax,%edi
    b0b8:	e8 6d a4 ff ff       	callq  552a <safe_rshift_func_int16_t_s_s>
    b0bd:	48 8b 05 94 09 01 00 	mov    0x10994(%rip),%rax        # 1ba58 <g_828>
    b0c4:	48 8b 00             	mov    (%rax),%rax
    b0c7:	48 8b 00             	mov    (%rax),%rax
    b0ca:	8b 00                	mov    (%rax),%eax
    b0cc:	89 c2                	mov    %eax,%edx
    b0ce:	8b 85 5c fc ff ff    	mov    -0x3a4(%rbp),%eax
    b0d4:	89 d6                	mov    %edx,%esi
    b0d6:	89 c7                	mov    %eax,%edi
    b0d8:	e8 ef a5 ff ff       	callq  56cc <safe_mod_func_int32_t_s_s>
    b0dd:	48 8b 05 e4 0a 01 00 	mov    0x10ae4(%rip),%rax        # 1bbc8 <g_1909>
    b0e4:	48 8b 00             	mov    (%rax),%rax
    b0e7:	48 8b 00             	mov    (%rax),%rax
    b0ea:	48 8b 00             	mov    (%rax),%rax
    b0ed:	0f b7 00             	movzwl (%rax),%eax
    b0f0:	66 83 f8 01          	cmp    $0x1,%ax
    b0f4:	0f 9e c0             	setle  %al
    b0f7:	0f b6 c0             	movzbl %al,%eax
    b0fa:	39 85 5c fc ff ff    	cmp    %eax,-0x3a4(%rbp)
    b100:	0f 97 c0             	seta   %al
    b103:	0f b6 d0             	movzbl %al,%edx
    b106:	8b 85 5c fc ff ff    	mov    -0x3a4(%rbp),%eax
    b10c:	0f b6 c0             	movzbl %al,%eax
    b10f:	89 d6                	mov    %edx,%esi
    b111:	89 c7                	mov    %eax,%edi
    b113:	e8 42 aa ff ff       	callq  5b5a <safe_add_func_uint8_t_u_u>
    b118:	0f b6 d0             	movzbl %al,%edx
    b11b:	48 8b 0d f6 02 01 00 	mov    0x102f6(%rip),%rcx        # 1b418 <g_169>
    b122:	48 8b 85 f0 fc ff ff 	mov    -0x310(%rbp),%rax
    b129:	48 8b 00             	mov    (%rax),%rax
    b12c:	48 8b 00             	mov    (%rax),%rax
    b12f:	48 8b 00             	mov    (%rax),%rax
    b132:	0f b6 09             	movzbl (%rcx),%ecx
    b135:	88 08                	mov    %cl,(%rax)
    b137:	0f b6 00             	movzbl (%rax),%eax
    b13a:	0f be c0             	movsbl %al,%eax
    b13d:	89 d6                	mov    %edx,%esi
    b13f:	89 c7                	mov    %eax,%edi
    b141:	e8 26 a2 ff ff       	callq  536c <safe_rshift_func_int8_t_s_u>
    b146:	3c fa                	cmp    $0xfa,%al
    b148:	0f 9d c2             	setge  %dl
    b14b:	48 8b 85 b8 fc ff ff 	mov    -0x348(%rbp),%rax
    b152:	48 8b 00             	mov    (%rax),%rax
    b155:	0f b6 d2             	movzbl %dl,%edx
    b158:	66 89 10             	mov    %dx,(%rax)
    b15b:	0f b7 00             	movzwl (%rax),%eax
    b15e:	0f bf d0             	movswl %ax,%edx
    b161:	0f b6 85 63 fc ff ff 	movzbl -0x39d(%rbp),%eax
    b168:	89 d6                	mov    %edx,%esi
    b16a:	89 c7                	mov    %eax,%edi
    b16c:	e8 a5 a2 ff ff       	callq  5416 <safe_mod_func_int16_t_s_s>
    b171:	48 8b 85 d0 fc ff ff 	mov    -0x330(%rbp),%rax
    b178:	8b 00                	mov    (%rax),%eax
    b17a:	98                   	cwtl   
    b17b:	be 67 8a ff ff       	mov    $0xffff8a67,%esi
    b180:	89 c7                	mov    %eax,%edi
    b182:	e8 8f a2 ff ff       	callq  5416 <safe_mod_func_int16_t_s_s>
    b187:	66 85 c0             	test   %ax,%ax
    b18a:	0f 9e c0             	setle  %al
    b18d:	0f b6 c0             	movzbl %al,%eax
    b190:	39 85 5c fc ff ff    	cmp    %eax,-0x3a4(%rbp)
    b196:	0f 92 c0             	setb   %al
    b199:	0f b6 c0             	movzbl %al,%eax
    b19c:	39 85 5c fc ff ff    	cmp    %eax,-0x3a4(%rbp)
    b1a2:	0f 96 c0             	setbe  %al
    b1a5:	0f b6 c0             	movzbl %al,%eax
    b1a8:	be fc 66 00 00       	mov    $0x66fc,%esi
    b1ad:	89 c7                	mov    %eax,%edi
    b1af:	e8 da ab ff ff       	callq  5d8e <safe_div_func_uint16_t_u_u>
    b1b4:	0f b7 d0             	movzwl %ax,%edx
    b1b7:	48 8b 05 22 09 01 00 	mov    0x10922(%rip),%rax        # 1bae0 <g_1730>
    b1be:	48 8b 00             	mov    (%rax),%rax
    b1c1:	48 8b 00             	mov    (%rax),%rax
    b1c4:	48 8b 00             	mov    (%rax),%rax
    b1c7:	48 8b 00             	mov    (%rax),%rax
    b1ca:	8b 00                	mov    (%rax),%eax
    b1cc:	39 c2                	cmp    %eax,%edx
    b1ce:	73 10                	jae    b1e0 <func_10+0x895>
    b1d0:	83 bd 5c fc ff ff 00 	cmpl   $0x0,-0x3a4(%rbp)
    b1d7:	74 07                	je     b1e0 <func_10+0x895>
    b1d9:	b8 01 00 00 00       	mov    $0x1,%eax
    b1de:	eb 05                	jmp    b1e5 <func_10+0x89a>
    b1e0:	b8 00 00 00 00       	mov    $0x0,%eax
    b1e5:	09 85 8c fc ff ff    	or     %eax,-0x374(%rbp)
    b1eb:	83 85 5c fc ff ff 01 	addl   $0x1,-0x3a4(%rbp)
    b1f2:	83 bd 5c fc ff ff 03 	cmpl   $0x3,-0x3a4(%rbp)
    b1f9:	0f 86 f5 fa ff ff    	jbe    acf4 <func_10+0x3a9>
    b1ff:	48 8b 05 5a 03 01 00 	mov    0x1035a(%rip),%rax        # 1b560 <g_570>
    b206:	0f b7 00             	movzwl (%rax),%eax
    b209:	48 8b 5d e8          	mov    -0x18(%rbp),%rbx
    b20d:	64 48 33 1c 25 28 00 	xor    %fs:0x28,%rbx
    b214:	00 00 
    b216:	74 05                	je     b21d <func_10+0x8d2>
    b218:	e8 53 9e ff ff       	callq  5070 <__stack_chk_fail@plt>
    b21d:	48 81 c4 a8 03 00 00 	add    $0x3a8,%rsp
    b224:	5b                   	pop    %rbx
    b225:	5d                   	pop    %rbp
    b226:	c3                   	retq   

000000000000b227 <func_13>:
    b227:	f3 0f 1e fa          	endbr64 
    b22b:	55                   	push   %rbp
    b22c:	48 89 e5             	mov    %rsp,%rbp
    b22f:	41 57                	push   %r15
    b231:	41 56                	push   %r14
    b233:	41 55                	push   %r13
    b235:	41 54                	push   %r12
    b237:	53                   	push   %rbx
    b238:	48 81 ec 00 10 00 00 	sub    $0x1000,%rsp
    b23f:	48 83 0c 24 00       	orq    $0x0,(%rsp)
    b244:	48 81 ec 88 03 00 00 	sub    $0x388,%rsp
    b24b:	89 f8                	mov    %edi,%eax
    b24d:	66 89 85 5c ec ff ff 	mov    %ax,-0x13a4(%rbp)
    b254:	64 48 8b 04 25 28 00 	mov    %fs:0x28,%rax
    b25b:	00 00 
    b25d:	48 89 45 c8          	mov    %rax,-0x38(%rbp)
    b261:	31 c0                	xor    %eax,%eax
    b263:	48 c7 85 10 ed ff ff 	movq   $0x0,-0x12f0(%rbp)
    b26a:	00 00 00 00 
    b26e:	48 c7 85 70 ee ff ff 	movq   $0x0,-0x1190(%rbp)
    b275:	00 00 00 00 
    b279:	48 c7 85 78 ee ff ff 	movq   $0x0,-0x1188(%rbp)
    b280:	00 00 00 00 
    b284:	48 8d 05 a9 df 00 00 	lea    0xdfa9(%rip),%rax        # 19234 <g_17+0x154>
    b28b:	48 89 85 80 ee ff ff 	mov    %rax,-0x1180(%rbp)
    b292:	48 c7 85 88 ee ff ff 	movq   $0x0,-0x1178(%rbp)
    b299:	00 00 00 00 
    b29d:	48 c7 85 90 ee ff ff 	movq   $0x0,-0x1170(%rbp)
    b2a4:	00 00 00 00 
    b2a8:	48 8d 05 85 df 00 00 	lea    0xdf85(%rip),%rax        # 19234 <g_17+0x154>
    b2af:	48 89 85 98 ee ff ff 	mov    %rax,-0x1168(%rbp)
    b2b6:	48 c7 85 a0 ee ff ff 	movq   $0x0,-0x1160(%rbp)
    b2bd:	00 00 00 00 
    b2c1:	c7 85 78 ec ff ff f8 	movl   $0xfffffff8,-0x1388(%rbp)
    b2c8:	ff ff ff 
    b2cb:	c7 85 7c ec ff ff 83 	movl   $0x80915c83,-0x1384(%rbp)
    b2d2:	5c 91 80 
    b2d5:	c7 85 94 ec ff ff 8b 	movl   $0xa6d0728b,-0x136c(%rbp)
    b2dc:	72 d0 a6 
    b2df:	c7 85 80 ec ff ff b8 	movl   $0xc150a8b8,-0x1380(%rbp)
    b2e6:	a8 50 c1 
    b2e9:	48 c7 85 18 ed ff ff 	movq   $0x0,-0x12e8(%rbp)
    b2f0:	00 00 00 00 
    b2f4:	48 8d 05 f5 e0 00 00 	lea    0xe0f5(%rip),%rax        # 193f0 <g_645+0xb0>
    b2fb:	48 89 85 d0 ec ff ff 	mov    %rax,-0x1330(%rbp)
    b302:	48 c7 85 20 ed ff ff 	movq   $0xfffffffffffffffc,-0x12e0(%rbp)
    b309:	fc ff ff ff 
    b30d:	48 8d 05 04 01 01 00 	lea    0x10104(%rip),%rax        # 1b418 <g_169>
    b314:	48 89 85 d8 ec ff ff 	mov    %rax,-0x1328(%rbp)
    b31b:	48 8d 05 d2 df 00 00 	lea    0xdfd2(%rip),%rax        # 192f4 <g_79+0x14>
    b322:	48 89 85 28 ed ff ff 	mov    %rax,-0x12d8(%rbp)
    b329:	48 8d 05 40 02 01 00 	lea    0x10240(%rip),%rax        # 1b570 <g_639>
    b330:	48 89 85 e0 ec ff ff 	mov    %rax,-0x1320(%rbp)
    b337:	48 c7 85 30 ed ff ff 	movq   $0x0,-0x12d0(%rbp)
    b33e:	00 00 00 00 
    b342:	48 c7 85 e8 ec ff ff 	movq   $0x0,-0x1318(%rbp)
    b349:	00 00 00 00 
    b34d:	c6 85 69 ec ff ff 09 	movb   $0x9,-0x1397(%rbp)
    b354:	48 8d 85 50 ef ff ff 	lea    -0x10b0(%rbp),%rax
    b35b:	48 83 c0 64          	add    $0x64,%rax
    b35f:	48 89 85 38 ed ff ff 	mov    %rax,-0x12c8(%rbp)
    b366:	66 c7 85 6e ec ff ff 	movw   $0x6,-0x1392(%rbp)
    b36d:	06 00 
    b36f:	c7 85 90 f0 ff ff 01 	movl   $0x1,-0xf70(%rbp)
    b376:	00 00 00 
    b379:	c7 85 94 f0 ff ff 01 	movl   $0x1,-0xf6c(%rbp)
    b380:	00 00 00 
    b383:	c7 85 98 f0 ff ff 02 	movl   $0x2,-0xf68(%rbp)
    b38a:	00 00 00 
    b38d:	c7 85 9c f0 ff ff 08 	movl   $0x8,-0xf64(%rbp)
    b394:	00 00 00 
    b397:	c7 85 a0 f0 ff ff 02 	movl   $0x2,-0xf60(%rbp)
    b39e:	00 00 00 
    b3a1:	c7 85 a4 f0 ff ff 01 	movl   $0x1,-0xf5c(%rbp)
    b3a8:	00 00 00 
    b3ab:	c7 85 a8 f0 ff ff 01 	movl   $0x1,-0xf58(%rbp)
    b3b2:	00 00 00 
    b3b5:	c7 85 ac f0 ff ff 02 	movl   $0x2,-0xf54(%rbp)
    b3bc:	00 00 00 
    b3bf:	c7 85 b0 f0 ff ff 00 	movl   $0x0,-0xf50(%rbp)
    b3c6:	00 00 00 
    b3c9:	c7 85 b4 f0 ff ff 02 	movl   $0x2,-0xf4c(%rbp)
    b3d0:	00 00 00 
    b3d3:	c7 85 b8 f0 ff ff 02 	movl   $0x2,-0xf48(%rbp)
    b3da:	00 00 00 
    b3dd:	c7 85 bc f0 ff ff 00 	movl   $0x0,-0xf44(%rbp)
    b3e4:	00 00 00 
    b3e7:	c7 85 c0 f0 ff ff 46 	movl   $0xeb27ec46,-0xf40(%rbp)
    b3ee:	ec 27 eb 
    b3f1:	c7 85 c4 f0 ff ff 00 	movl   $0x0,-0xf3c(%rbp)
    b3f8:	00 00 00 
    b3fb:	c7 85 c8 f0 ff ff 02 	movl   $0x2,-0xf38(%rbp)
    b402:	00 00 00 
    b405:	c7 85 cc f0 ff ff 02 	movl   $0x2,-0xf34(%rbp)
    b40c:	00 00 00 
    b40f:	c7 85 d0 f0 ff ff 02 	movl   $0x2,-0xf30(%rbp)
    b416:	00 00 00 
    b419:	c7 85 d4 f0 ff ff 46 	movl   $0xeb27ec46,-0xf2c(%rbp)
    b420:	ec 27 eb 
    b423:	c7 85 d8 f0 ff ff 08 	movl   $0x8,-0xf28(%rbp)
    b42a:	00 00 00 
    b42d:	c7 85 dc f0 ff ff 08 	movl   $0x8,-0xf24(%rbp)
    b434:	00 00 00 
    b437:	c7 85 e0 f0 ff ff 46 	movl   $0xeb27ec46,-0xf20(%rbp)
    b43e:	ec 27 eb 
    b441:	c7 85 e4 f0 ff ff 02 	movl   $0x2,-0xf1c(%rbp)
    b448:	00 00 00 
    b44b:	c7 85 e8 f0 ff ff 46 	movl   $0xeb27ec46,-0xf18(%rbp)
    b452:	ec 27 eb 
    b455:	c7 85 ec f0 ff ff 08 	movl   $0x8,-0xf14(%rbp)
    b45c:	00 00 00 
    b45f:	c7 85 f0 f0 ff ff 00 	movl   $0x0,-0xf10(%rbp)
    b466:	00 00 00 
    b469:	c7 85 f4 f0 ff ff 46 	movl   $0xeb27ec46,-0xf0c(%rbp)
    b470:	ec 27 eb 
    b473:	c7 85 f8 f0 ff ff 00 	movl   $0x0,-0xf08(%rbp)
    b47a:	00 00 00 
    b47d:	c7 85 fc f0 ff ff 02 	movl   $0x2,-0xf04(%rbp)
    b484:	00 00 00 
    b487:	c7 85 00 f1 ff ff 02 	movl   $0x2,-0xf00(%rbp)
    b48e:	00 00 00 
    b491:	c7 85 04 f1 ff ff 00 	movl   $0x0,-0xefc(%rbp)
    b498:	00 00 00 
    b49b:	c7 85 08 f1 ff ff 46 	movl   $0xeb27ec46,-0xef8(%rbp)
    b4a2:	ec 27 eb 
    b4a5:	c7 85 0c f1 ff ff 00 	movl   $0x0,-0xef4(%rbp)
    b4ac:	00 00 00 
    b4af:	c7 85 10 f1 ff ff 01 	movl   $0x1,-0xef0(%rbp)
    b4b6:	00 00 00 
    b4b9:	c7 85 14 f1 ff ff 02 	movl   $0x2,-0xeec(%rbp)
    b4c0:	00 00 00 
    b4c3:	c7 85 18 f1 ff ff 08 	movl   $0x8,-0xee8(%rbp)
    b4ca:	00 00 00 
    b4cd:	c7 85 1c f1 ff ff 02 	movl   $0x2,-0xee4(%rbp)
    b4d4:	00 00 00 
    b4d7:	c7 85 20 f1 ff ff 01 	movl   $0x1,-0xee0(%rbp)
    b4de:	00 00 00 
    b4e1:	c7 85 24 f1 ff ff 01 	movl   $0x1,-0xedc(%rbp)
    b4e8:	00 00 00 
    b4eb:	c7 85 28 f1 ff ff 02 	movl   $0x2,-0xed8(%rbp)
    b4f2:	00 00 00 
    b4f5:	c7 85 2c f1 ff ff 08 	movl   $0x8,-0xed4(%rbp)
    b4fc:	00 00 00 
    b4ff:	c7 85 30 f1 ff ff 01 	movl   $0x1,-0xed0(%rbp)
    b506:	00 00 00 
    b509:	c7 85 34 f1 ff ff 01 	movl   $0x1,-0xecc(%rbp)
    b510:	00 00 00 
    b513:	c7 85 38 f1 ff ff 02 	movl   $0x2,-0xec8(%rbp)
    b51a:	00 00 00 
    b51d:	c7 85 3c f1 ff ff 08 	movl   $0x8,-0xec4(%rbp)
    b524:	00 00 00 
    b527:	c7 85 40 f1 ff ff 02 	movl   $0x2,-0xec0(%rbp)
    b52e:	00 00 00 
    b531:	c7 85 44 f1 ff ff 01 	movl   $0x1,-0xebc(%rbp)
    b538:	00 00 00 
    b53b:	c7 85 48 f1 ff ff 01 	movl   $0x1,-0xeb8(%rbp)
    b542:	00 00 00 
    b545:	c7 85 4c f1 ff ff 02 	movl   $0x2,-0xeb4(%rbp)
    b54c:	00 00 00 
    b54f:	c7 85 50 f1 ff ff 00 	movl   $0x0,-0xeb0(%rbp)
    b556:	00 00 00 
    b559:	c7 85 54 f1 ff ff 02 	movl   $0x2,-0xeac(%rbp)
    b560:	00 00 00 
    b563:	c7 85 58 f1 ff ff 02 	movl   $0x2,-0xea8(%rbp)
    b56a:	00 00 00 
    b56d:	c7 85 5c f1 ff ff 00 	movl   $0x0,-0xea4(%rbp)
    b574:	00 00 00 
    b577:	c7 85 60 f1 ff ff 46 	movl   $0xeb27ec46,-0xea0(%rbp)
    b57e:	ec 27 eb 
    b581:	c7 85 64 f1 ff ff 00 	movl   $0x0,-0xe9c(%rbp)
    b588:	00 00 00 
    b58b:	c7 85 68 f1 ff ff 02 	movl   $0x2,-0xe98(%rbp)
    b592:	00 00 00 
    b595:	c7 85 6c f1 ff ff 02 	movl   $0x2,-0xe94(%rbp)
    b59c:	00 00 00 
    b59f:	c7 85 70 f1 ff ff 02 	movl   $0x2,-0xe90(%rbp)
    b5a6:	00 00 00 
    b5a9:	c7 85 74 f1 ff ff 46 	movl   $0xeb27ec46,-0xe8c(%rbp)
    b5b0:	ec 27 eb 
    b5b3:	c7 85 78 f1 ff ff 08 	movl   $0x8,-0xe88(%rbp)
    b5ba:	00 00 00 
    b5bd:	c7 85 7c f1 ff ff 08 	movl   $0x8,-0xe84(%rbp)
    b5c4:	00 00 00 
    b5c7:	c7 85 80 f1 ff ff 46 	movl   $0xeb27ec46,-0xe80(%rbp)
    b5ce:	ec 27 eb 
    b5d1:	c7 85 84 f1 ff ff 02 	movl   $0x2,-0xe7c(%rbp)
    b5d8:	00 00 00 
    b5db:	c7 85 88 f1 ff ff 46 	movl   $0xeb27ec46,-0xe78(%rbp)
    b5e2:	ec 27 eb 
    b5e5:	c7 85 8c f1 ff ff 08 	movl   $0x8,-0xe74(%rbp)
    b5ec:	00 00 00 
    b5ef:	48 8d 05 7a ff 00 00 	lea    0xff7a(%rip),%rax        # 1b570 <g_639>
    b5f6:	48 89 85 40 ed ff ff 	mov    %rax,-0x12c0(%rbp)
    b5fd:	48 8d 85 90 f1 ff ff 	lea    -0xe70(%rbp),%rax
    b604:	48 8d 15 55 f6 00 00 	lea    0xf655(%rip),%rdx        # 1ac60 <g_2468+0x7d4>
    b60b:	b9 2a 00 00 00       	mov    $0x2a,%ecx
    b610:	48 89 c7             	mov    %rax,%rdi
    b613:	48 89 d6             	mov    %rdx,%rsi
    b616:	f3 48 a5             	rep movsq %ds:(%rsi),%es:(%rdi)
    b619:	66 c7 85 70 ec ff ff 	movw   $0x5776,-0x1390(%rbp)
    b620:	76 57 
    b622:	48 8d 05 3f ff 00 00 	lea    0xff3f(%rip),%rax        # 1b568 <g_640>
    b629:	48 89 85 f0 ec ff ff 	mov    %rax,-0x1310(%rbp)
    b630:	c6 85 6a ec ff ff ff 	movb   $0xff,-0x1396(%rbp)
    b637:	c7 85 98 ec ff ff 84 	movl   $0x447df684,-0x1368(%rbp)
    b63e:	f6 7d 44 
    b641:	48 b8 bd bd f7 da 0f 	movabs $0xc6890a0fdaf7bdbd,%rax
    b648:	0a 89 c6 
    b64b:	48 89 85 48 ed ff ff 	mov    %rax,-0x12b8(%rbp)
    b652:	48 8d 05 3f 04 01 00 	lea    0x1043f(%rip),%rax        # 1ba98 <g_1504>
    b659:	48 89 85 50 ed ff ff 	mov    %rax,-0x12b0(%rbp)
    b660:	48 8d 05 a1 fd 00 00 	lea    0xfda1(%rip),%rax        # 1b408 <g_58>
    b667:	48 89 85 f8 ec ff ff 	mov    %rax,-0x1308(%rbp)
    b66e:	48 8d 85 f8 ec ff ff 	lea    -0x1308(%rbp),%rax
    b675:	48 89 85 e0 ef ff ff 	mov    %rax,-0x1020(%rbp)
    b67c:	48 c7 85 e8 ef ff ff 	movq   $0x0,-0x1018(%rbp)
    b683:	00 00 00 00 
    b687:	48 8d 85 f8 ec ff ff 	lea    -0x1308(%rbp),%rax
    b68e:	48 89 85 f0 ef ff ff 	mov    %rax,-0x1010(%rbp)
    b695:	48 8d 85 f8 ec ff ff 	lea    -0x1308(%rbp),%rax
    b69c:	48 89 85 f8 ef ff ff 	mov    %rax,-0x1008(%rbp)
    b6a3:	48 8d 85 f8 ec ff ff 	lea    -0x1308(%rbp),%rax
    b6aa:	48 89 85 00 f0 ff ff 	mov    %rax,-0x1000(%rbp)
    b6b1:	48 8d 85 f8 ec ff ff 	lea    -0x1308(%rbp),%rax
    b6b8:	48 89 85 08 f0 ff ff 	mov    %rax,-0xff8(%rbp)
    b6bf:	48 c7 85 10 f0 ff ff 	movq   $0x0,-0xff0(%rbp)
    b6c6:	00 00 00 00 
    b6ca:	48 8d 85 f8 ec ff ff 	lea    -0x1308(%rbp),%rax
    b6d1:	48 89 85 18 f0 ff ff 	mov    %rax,-0xfe8(%rbp)
    b6d8:	48 c7 85 20 f0 ff ff 	movq   $0x0,-0xfe0(%rbp)
    b6df:	00 00 00 00 
    b6e3:	48 8d 85 f8 ec ff ff 	lea    -0x1308(%rbp),%rax
    b6ea:	48 89 85 28 f0 ff ff 	mov    %rax,-0xfd8(%rbp)
    b6f1:	48 8d 85 f8 ec ff ff 	lea    -0x1308(%rbp),%rax
    b6f8:	48 89 85 30 f0 ff ff 	mov    %rax,-0xfd0(%rbp)
    b6ff:	48 8d 85 f8 ec ff ff 	lea    -0x1308(%rbp),%rax
    b706:	48 89 85 38 f0 ff ff 	mov    %rax,-0xfc8(%rbp)
    b70d:	48 8d 85 f8 ec ff ff 	lea    -0x1308(%rbp),%rax
    b714:	48 89 85 40 f0 ff ff 	mov    %rax,-0xfc0(%rbp)
    b71b:	48 c7 85 48 f0 ff ff 	movq   $0x0,-0xfb8(%rbp)
    b722:	00 00 00 00 
    b726:	48 8d 85 f8 ec ff ff 	lea    -0x1308(%rbp),%rax
    b72d:	48 89 85 50 f0 ff ff 	mov    %rax,-0xfb0(%rbp)
    b734:	48 c7 85 58 f0 ff ff 	movq   $0x0,-0xfa8(%rbp)
    b73b:	00 00 00 00 
    b73f:	48 8d 85 f8 ec ff ff 	lea    -0x1308(%rbp),%rax
    b746:	48 89 85 60 f0 ff ff 	mov    %rax,-0xfa0(%rbp)
    b74d:	48 8d 85 f8 ec ff ff 	lea    -0x1308(%rbp),%rax
    b754:	48 89 85 68 f0 ff ff 	mov    %rax,-0xf98(%rbp)
    b75b:	48 8d 85 f8 ec ff ff 	lea    -0x1308(%rbp),%rax
    b762:	48 89 85 70 f0 ff ff 	mov    %rax,-0xf90(%rbp)
    b769:	48 8d 85 f8 ec ff ff 	lea    -0x1308(%rbp),%rax
    b770:	48 89 85 78 f0 ff ff 	mov    %rax,-0xf88(%rbp)
    b777:	48 c7 85 80 f0 ff ff 	movq   $0x0,-0xf80(%rbp)
    b77e:	00 00 00 00 
    b782:	c7 85 9c ec ff ff 95 	movl   $0x8fe9a695,-0x1364(%rbp)
    b789:	a6 e9 8f 
    b78c:	66 c7 85 72 ec ff ff 	movw   $0x881c,-0x138e(%rbp)
    b793:	1c 88 
    b795:	48 c7 85 b0 ee ff ff 	movq   $0x0,-0x1150(%rbp)
    b79c:	00 00 00 00 
    b7a0:	48 8d 85 30 ee ff ff 	lea    -0x11d0(%rbp),%rax
    b7a7:	48 83 c0 0c          	add    $0xc,%rax
    b7ab:	48 89 85 b8 ee ff ff 	mov    %rax,-0x1148(%rbp)
    b7b2:	48 8d 05 cf 08 01 00 	lea    0x108cf(%rip),%rax        # 1c088 <g_62>
    b7b9:	48 89 85 c0 ee ff ff 	mov    %rax,-0x1140(%rbp)
    b7c0:	48 8d 85 30 ee ff ff 	lea    -0x11d0(%rbp),%rax
    b7c7:	48 83 c0 0c          	add    $0xc,%rax
    b7cb:	48 89 85 c8 ee ff ff 	mov    %rax,-0x1138(%rbp)
    b7d2:	48 c7 85 d0 ee ff ff 	movq   $0x0,-0x1130(%rbp)
    b7d9:	00 00 00 00 
    b7dd:	48 c7 85 d8 ee ff ff 	movq   $0x0,-0x1128(%rbp)
    b7e4:	00 00 00 00 
    b7e8:	48 8d 85 78 ec ff ff 	lea    -0x1388(%rbp),%rax
    b7ef:	48 89 85 e0 ee ff ff 	mov    %rax,-0x1120(%rbp)
    b7f6:	48 8d 05 eb dc 00 00 	lea    0xdceb(%rip),%rax        # 194e8 <g_645+0x1a8>
    b7fd:	48 89 85 e8 ee ff ff 	mov    %rax,-0x1118(%rbp)
    b804:	48 8d 85 78 ec ff ff 	lea    -0x1388(%rbp),%rax
    b80b:	48 89 85 f0 ee ff ff 	mov    %rax,-0x1110(%rbp)
    b812:	48 8d 85 30 ee ff ff 	lea    -0x11d0(%rbp),%rax
    b819:	48 83 c0 0c          	add    $0xc,%rax
    b81d:	48 89 85 f8 ee ff ff 	mov    %rax,-0x1108(%rbp)
    b824:	48 c7 85 58 ed ff ff 	movq   $0x0,-0x12a8(%rbp)
    b82b:	00 00 00 00 
    b82f:	c7 85 84 ec ff ff 00 	movl   $0x0,-0x137c(%rbp)
    b836:	00 00 00 
    b839:	eb 4f                	jmp    b88a <func_13+0x663>
    b83b:	c7 85 88 ec ff ff 00 	movl   $0x0,-0x1378(%rbp)
    b842:	00 00 00 
    b845:	eb 33                	jmp    b87a <func_13+0x653>
    b847:	8b 85 88 ec ff ff    	mov    -0x1378(%rbp),%eax
    b84d:	48 63 c8             	movslq %eax,%rcx
    b850:	8b 85 84 ec ff ff    	mov    -0x137c(%rbp),%eax
    b856:	48 63 d0             	movslq %eax,%rdx
    b859:	48 89 d0             	mov    %rdx,%rax
    b85c:	48 01 c0             	add    %rax,%rax
    b85f:	48 01 d0             	add    %rdx,%rax
    b862:	48 01 c0             	add    %rax,%rax
    b865:	48 01 c8             	add    %rcx,%rax
    b868:	c7 84 85 50 ef ff ff 	movl   $0xcf9c50f6,-0x10b0(%rbp,%rax,4)
    b86f:	f6 50 9c cf 
    b873:	83 85 88 ec ff ff 01 	addl   $0x1,-0x1378(%rbp)
    b87a:	83 bd 88 ec ff ff 05 	cmpl   $0x5,-0x1378(%rbp)
    b881:	7e c4                	jle    b847 <func_13+0x620>
    b883:	83 85 84 ec ff ff 01 	addl   $0x1,-0x137c(%rbp)
    b88a:	83 bd 84 ec ff ff 05 	cmpl   $0x5,-0x137c(%rbp)
    b891:	7e a8                	jle    b83b <func_13+0x614>
    b893:	c7 85 84 ec ff ff 00 	movl   $0x0,-0x137c(%rbp)
    b89a:	00 00 00 
    b89d:	eb 1e                	jmp    b8bd <func_13+0x696>
    b89f:	8b 85 84 ec ff ff    	mov    -0x137c(%rbp),%eax
    b8a5:	48 98                	cltq   
    b8a7:	48 8d 15 c2 fc 00 00 	lea    0xfcc2(%rip),%rdx        # 1b570 <g_639>
    b8ae:	48 89 94 c5 40 ee ff 	mov    %rdx,-0x11c0(%rbp,%rax,8)
    b8b5:	ff 
    b8b6:	83 85 84 ec ff ff 01 	addl   $0x1,-0x137c(%rbp)
    b8bd:	83 bd 84 ec ff ff 04 	cmpl   $0x4,-0x137c(%rbp)
    b8c4:	7e d9                	jle    b89f <func_13+0x678>
    b8c6:	c7 85 84 ec ff ff 00 	movl   $0x0,-0x137c(%rbp)
    b8cd:	00 00 00 
    b8d0:	e9 86 00 00 00       	jmpq   b95b <func_13+0x734>
    b8d5:	c7 85 88 ec ff ff 00 	movl   $0x0,-0x1378(%rbp)
    b8dc:	00 00 00 
    b8df:	eb 6a                	jmp    b94b <func_13+0x724>
    b8e1:	c7 85 8c ec ff ff 00 	movl   $0x0,-0x1374(%rbp)
    b8e8:	00 00 00 
    b8eb:	eb 4e                	jmp    b93b <func_13+0x714>
    b8ed:	8b 85 8c ec ff ff    	mov    -0x1374(%rbp),%eax
    b8f3:	48 63 f0             	movslq %eax,%rsi
    b8f6:	8b 85 84 ec ff ff    	mov    -0x137c(%rbp),%eax
    b8fc:	48 63 d0             	movslq %eax,%rdx
    b8ff:	8b 85 88 ec ff ff    	mov    -0x1378(%rbp),%eax
    b905:	48 63 c8             	movslq %eax,%rcx
    b908:	48 89 d0             	mov    %rdx,%rax
    b90b:	48 01 c0             	add    %rax,%rax
    b90e:	48 01 d0             	add    %rdx,%rax
    b911:	48 c1 e0 02          	shl    $0x2,%rax
    b915:	48 89 ca             	mov    %rcx,%rdx
    b918:	48 01 d2             	add    %rdx,%rdx
    b91b:	48 01 ca             	add    %rcx,%rdx
    b91e:	48 01 d0             	add    %rdx,%rax
    b921:	48 8d 5d d0          	lea    -0x30(%rbp),%rbx
    b925:	48 01 d8             	add    %rbx,%rax
    b928:	48 01 f0             	add    %rsi,%rax
    b92b:	48 2d ba 11 00 00    	sub    $0x11ba,%rax
    b931:	c6 00 78             	movb   $0x78,(%rax)
    b934:	83 85 8c ec ff ff 01 	addl   $0x1,-0x1374(%rbp)
    b93b:	83 bd 8c ec ff ff 02 	cmpl   $0x2,-0x1374(%rbp)
    b942:	7e a9                	jle    b8ed <func_13+0x6c6>
    b944:	83 85 88 ec ff ff 01 	addl   $0x1,-0x1378(%rbp)
    b94b:	83 bd 88 ec ff ff 03 	cmpl   $0x3,-0x1378(%rbp)
    b952:	7e 8d                	jle    b8e1 <func_13+0x6ba>
    b954:	83 85 84 ec ff ff 01 	addl   $0x1,-0x137c(%rbp)
    b95b:	83 bd 84 ec ff ff 00 	cmpl   $0x0,-0x137c(%rbp)
    b962:	0f 8e 6d ff ff ff    	jle    b8d5 <func_13+0x6ae>
    b968:	c7 85 84 ec ff ff 00 	movl   $0x0,-0x137c(%rbp)
    b96f:	00 00 00 
    b972:	eb 1a                	jmp    b98e <func_13+0x767>
    b974:	8b 85 84 ec ff ff    	mov    -0x137c(%rbp),%eax
    b97a:	48 98                	cltq   
    b97c:	c7 84 85 30 ee ff ff 	movl   $0x31989bcf,-0x11d0(%rbp,%rax,4)
    b983:	cf 9b 98 31 
    b987:	83 85 84 ec ff ff 01 	addl   $0x1,-0x137c(%rbp)
    b98e:	83 bd 84 ec ff ff 03 	cmpl   $0x3,-0x137c(%rbp)
    b995:	7e dd                	jle    b974 <func_13+0x74d>
    b997:	8b 05 97 d8 00 00    	mov    0xd897(%rip),%eax        # 19234 <g_17+0x154>
    b99d:	83 e8 01             	sub    $0x1,%eax
    b9a0:	89 05 8e d8 00 00    	mov    %eax,0xd88e(%rip)        # 19234 <g_17+0x154>
    b9a6:	8b 05 88 d8 00 00    	mov    0xd888(%rip),%eax        # 19234 <g_17+0x154>
    b9ac:	89 85 78 ec ff ff    	mov    %eax,-0x1388(%rbp)
    b9b2:	8b 85 94 ef ff ff    	mov    -0x106c(%rbp),%eax
    b9b8:	44 0f b7 e8          	movzwl %ax,%r13d
    b9bc:	4c 8b a5 70 ee ff ff 	mov    -0x1190(%rbp),%r12
    b9c3:	48 8b 05 3e fa 00 00 	mov    0xfa3e(%rip),%rax        # 1b408 <g_58>
    b9ca:	48 8b 18             	mov    (%rax),%rbx
    b9cd:	8b 85 b4 ef ff ff    	mov    -0x104c(%rbp),%eax
    b9d3:	89 85 58 ec ff ff    	mov    %eax,-0x13a8(%rbp)
    b9d9:	4c 8b b5 70 ee ff ff 	mov    -0x1190(%rbp),%r14
    b9e0:	8b 05 6e d8 00 00    	mov    0xd86e(%rip),%eax        # 19254 <g_17+0x174>
    b9e6:	44 0f be f8          	movsbl %al,%r15d
    b9ea:	48 8d 3d 4f d6 00 00 	lea    0xd64f(%rip),%rdi        # 19040 <g_8>
    b9f1:	e8 31 73 00 00       	callq  12d27 <func_42>
    b9f6:	48 89 c1             	mov    %rax,%rcx
    b9f9:	48 8d 85 78 ec ff ff 	lea    -0x1388(%rbp),%rax
    ba00:	44 89 fa             	mov    %r15d,%edx
    ba03:	48 89 c6             	mov    %rax,%rsi
    ba06:	48 89 cf             	mov    %rcx,%rdi
    ba09:	e8 80 34 00 00       	callq  ee8e <func_38>
    ba0e:	48 89 c7             	mov    %rax,%rdi
    ba11:	e8 b3 33 00 00       	callq  edc9 <func_36>
    ba16:	89 85 7c ec ff ff    	mov    %eax,-0x1384(%rbp)
    ba1c:	8b 85 7c ec ff ff    	mov    -0x1384(%rbp),%eax
    ba22:	be 0a 1a 2c e4       	mov    $0xe42c1a0a,%esi
    ba27:	89 c7                	mov    %eax,%edi
    ba29:	e8 a2 a4 ff ff       	callq  5ed0 <safe_sub_func_uint32_t_u_u>
    ba2e:	89 c6                	mov    %eax,%esi
    ba30:	8b 05 82 d7 00 00    	mov    0xd782(%rip),%eax        # 191b8 <g_17+0xd8>
    ba36:	0f b6 c0             	movzbl %al,%eax
    ba39:	44 8b 85 58 ec ff ff 	mov    -0x13a8(%rbp),%r8d
    ba40:	48 8d 0d f9 d5 00 00 	lea    0xd5f9(%rip),%rcx        # 19040 <g_8>
    ba47:	4c 89 f2             	mov    %r14,%rdx
    ba4a:	89 c7                	mov    %eax,%edi
    ba4c:	e8 0c 32 00 00       	callq  ec5d <func_28>
    ba51:	44 89 e9             	mov    %r13d,%ecx
    ba54:	4c 89 e2             	mov    %r12,%rdx
    ba57:	48 89 de             	mov    %rbx,%rsi
    ba5a:	48 89 c7             	mov    %rax,%rdi
    ba5d:	e8 c2 31 00 00       	callq  ec24 <func_23>
    ba62:	84 c0                	test   %al,%al
    ba64:	0f 9e c0             	setle  %al
    ba67:	0f b6 c0             	movzbl %al,%eax
    ba6a:	31 85 94 ec ff ff    	xor    %eax,-0x136c(%rbp)
    ba70:	8b 85 94 ec ff ff    	mov    -0x136c(%rbp),%eax
    ba76:	0f be c0             	movsbl %al,%eax
    ba79:	89 c7                	mov    %eax,%edi
    ba7b:	e8 55 14 00 00       	callq  ced5 <func_21>
    ba80:	8b 95 80 ec ff ff    	mov    -0x1380(%rbp),%edx
    ba86:	21 d0                	and    %edx,%eax
    ba88:	89 85 80 ec ff ff    	mov    %eax,-0x1380(%rbp)
    ba8e:	b9 01 00 00 00       	mov    $0x1,%ecx
    ba93:	48 8b 85 d0 ec ff ff 	mov    -0x1330(%rbp),%rax
    ba9a:	8b 10                	mov    (%rax),%edx
    ba9c:	48 8b 85 d0 ec ff ff 	mov    -0x1330(%rbp),%rax
    baa3:	21 ca                	and    %ecx,%edx
    baa5:	89 10                	mov    %edx,(%rax)
    baa7:	8b 00                	mov    (%rax),%eax
    baa9:	85 c0                	test   %eax,%eax
    baab:	0f 84 22 01 00 00    	je     bbd3 <func_13+0x9ac>
    bab1:	48 b8 b2 3d 58 d2 0f 	movabs $0x2ff6c20fd2583db2,%rax
    bab8:	c2 f6 2f 
    babb:	48 89 85 80 ed ff ff 	mov    %rax,-0x1280(%rbp)
    bac2:	48 8d 05 97 fa 00 00 	lea    0xfa97(%rip),%rax        # 1b560 <g_570>
    bac9:	48 89 85 88 ed ff ff 	mov    %rax,-0x1278(%rbp)
    bad0:	48 c7 85 c0 f7 ff ff 	movq   $0x0,-0x840(%rbp)
    bad7:	00 00 00 00 
    badb:	48 c7 85 c8 f7 ff ff 	movq   $0x0,-0x838(%rbp)
    bae2:	00 00 00 00 
    bae6:	48 8d 05 1d d8 00 00 	lea    0xd81d(%rip),%rax        # 1930a <g_228>
    baed:	48 89 85 d0 f7 ff ff 	mov    %rax,-0x830(%rbp)
    baf4:	48 c7 85 d8 f7 ff ff 	movq   $0x0,-0x828(%rbp)
    bafb:	00 00 00 00 
    baff:	48 c7 85 e0 f7 ff ff 	movq   $0x0,-0x820(%rbp)
    bb06:	00 00 00 00 
    bb0a:	48 8d 05 f9 d7 00 00 	lea    0xd7f9(%rip),%rax        # 1930a <g_228>
    bb11:	48 89 85 e8 f7 ff ff 	mov    %rax,-0x818(%rbp)
    bb18:	48 c7 85 f0 f7 ff ff 	movq   $0x0,-0x810(%rbp)
    bb1f:	00 00 00 00 
    bb23:	48 c7 85 f8 f7 ff ff 	movq   $0x0,-0x808(%rbp)
    bb2a:	00 00 00 00 
    bb2e:	c7 85 ac ec ff ff bb 	movl   $0x983c84bb,-0x1354(%rbp)
    bb35:	84 3c 98 
    bb38:	48 8d 85 50 ef ff ff 	lea    -0x10b0(%rbp),%rax
    bb3f:	48 83 c0 64          	add    $0x64,%rax
    bb43:	48 89 85 90 ed ff ff 	mov    %rax,-0x1270(%rbp)
    bb4a:	48 8d 85 d0 ec ff ff 	lea    -0x1330(%rbp),%rax
    bb51:	48 89 85 98 ed ff ff 	mov    %rax,-0x1268(%rbp)
    bb58:	48 8d 05 c1 d7 00 00 	lea    0xd7c1(%rip),%rax        # 19320 <g_472>
    bb5f:	48 89 85 a0 ed ff ff 	mov    %rax,-0x1260(%rbp)
    bb66:	c7 85 b0 ec ff ff 00 	movl   $0x0,-0x1350(%rbp)
    bb6d:	00 00 00 
    bb70:	c7 85 b4 ec ff ff 1b 	movl   $0xc0af611b,-0x134c(%rbp)
    bb77:	61 af c0 
    bb7a:	c7 85 b8 ec ff ff 01 	movl   $0x1,-0x1348(%rbp)
    bb81:	00 00 00 
    bb84:	c7 85 bc ec ff ff fd 	movl   $0xfffffffd,-0x1344(%rbp)
    bb8b:	ff ff ff 
    bb8e:	66 c7 85 74 ec ff ff 	movw   $0xa26c,-0x138c(%rbp)
    bb95:	6c a2 
    bb97:	c7 85 c0 ec ff ff 90 	movl   $0xd7bad890,-0x1340(%rbp)
    bb9e:	d8 ba d7 
    bba1:	c7 85 c4 ec ff ff 06 	movl   $0x6,-0x133c(%rbp)
    bba8:	00 00 00 
    bbab:	48 c7 85 a8 ed ff ff 	movq   $0x1,-0x1258(%rbp)
    bbb2:	01 00 00 00 
    bbb6:	48 8d 05 43 f8 00 00 	lea    0xf843(%rip),%rax        # 1b400 <g_59>
    bbbd:	48 89 85 b0 ed ff ff 	mov    %rax,-0x1250(%rbp)
    bbc4:	c7 85 c8 ec ff ff 39 	movl   $0x7fbd3339,-0x1338(%rbp)
    bbcb:	33 bd 7f 
    bbce:	e9 47 03 00 00       	jmpq   bf1a <func_13+0xcf3>
    bbd3:	c6 85 6b ec ff ff 01 	movb   $0x1,-0x1395(%rbp)
    bbda:	c7 85 a0 ec ff ff e3 	movl   $0xfca6bce3,-0x1360(%rbp)
    bbe1:	bc a6 fc 
    bbe4:	c7 85 c0 f7 ff ff 96 	movl   $0xb172d396,-0x840(%rbp)
    bbeb:	d3 72 b1 
    bbee:	c7 85 c4 f7 ff ff 87 	movl   $0xa0251187,-0x83c(%rbp)
    bbf5:	11 25 a0 
    bbf8:	c7 85 c8 f7 ff ff fe 	movl   $0xfffffffe,-0x838(%rbp)
    bbff:	ff ff ff 
    bc02:	c7 85 cc f7 ff ff ff 	movl   $0xffffffff,-0x834(%rbp)
    bc09:	ff ff ff 
    bc0c:	c7 85 d0 f7 ff ff 87 	movl   $0xa0251187,-0x830(%rbp)
    bc13:	11 25 a0 
    bc16:	c7 85 d4 f7 ff ff ff 	movl   $0xffffffff,-0x82c(%rbp)
    bc1d:	ff ff ff 
    bc20:	c7 85 d8 f7 ff ff 96 	movl   $0xb172d396,-0x828(%rbp)
    bc27:	d3 72 b1 
    bc2a:	c7 85 dc f7 ff ff 61 	movl   $0xd26add61,-0x824(%rbp)
    bc31:	dd 6a d2 
    bc34:	c7 85 e0 f7 ff ff 96 	movl   $0xb172d396,-0x820(%rbp)
    bc3b:	d3 72 b1 
    bc3e:	c7 85 e4 f7 ff ff ff 	movl   $0xffffffff,-0x81c(%rbp)
    bc45:	ff ff ff 
    bc48:	c7 85 e8 f7 ff ff 61 	movl   $0xd26add61,-0x818(%rbp)
    bc4f:	dd 6a d2 
    bc52:	c7 85 ec f7 ff ff fe 	movl   $0xfffffffe,-0x814(%rbp)
    bc59:	ff ff ff 
    bc5c:	c7 85 f0 f7 ff ff 96 	movl   $0xb172d396,-0x810(%rbp)
    bc63:	d3 72 b1 
    bc66:	c7 85 f4 f7 ff ff ff 	movl   $0xe675e6ff,-0x80c(%rbp)
    bc6d:	e6 75 e6 
    bc70:	c7 85 f8 f7 ff ff ff 	movl   $0xffffffff,-0x808(%rbp)
    bc77:	ff ff ff 
    bc7a:	c7 85 fc f7 ff ff ff 	movl   $0xffffffff,-0x804(%rbp)
    bc81:	ff ff ff 
    bc84:	c7 85 00 f8 ff ff ff 	movl   $0xe675e6ff,-0x800(%rbp)
    bc8b:	e6 75 e6 
    bc8e:	c7 85 04 f8 ff ff 96 	movl   $0xb172d396,-0x7fc(%rbp)
    bc95:	d3 72 b1 
    bc98:	c7 85 08 f8 ff ff 96 	movl   $0xb172d396,-0x7f8(%rbp)
    bc9f:	d3 72 b1 
    bca2:	c7 85 0c f8 ff ff 87 	movl   $0xa0251187,-0x7f4(%rbp)
    bca9:	11 25 a0 
    bcac:	c7 85 10 f8 ff ff fe 	movl   $0xfffffffe,-0x7f0(%rbp)
    bcb3:	ff ff ff 
    bcb6:	c7 85 14 f8 ff ff ff 	movl   $0xffffffff,-0x7ec(%rbp)
    bcbd:	ff ff ff 
    bcc0:	c7 85 18 f8 ff ff 87 	movl   $0xa0251187,-0x7e8(%rbp)
    bcc7:	11 25 a0 
    bcca:	c7 85 1c f8 ff ff ff 	movl   $0xffffffff,-0x7e4(%rbp)
    bcd1:	ff ff ff 
    bcd4:	c7 85 20 f8 ff ff 96 	movl   $0xb172d396,-0x7e0(%rbp)
    bcdb:	d3 72 b1 
    bcde:	c7 85 24 f8 ff ff 61 	movl   $0xd26add61,-0x7dc(%rbp)
    bce5:	dd 6a d2 
    bce8:	c7 85 28 f8 ff ff 96 	movl   $0xb172d396,-0x7d8(%rbp)
    bcef:	d3 72 b1 
    bcf2:	c7 85 2c f8 ff ff ff 	movl   $0xffffffff,-0x7d4(%rbp)
    bcf9:	ff ff ff 
    bcfc:	c7 85 30 f8 ff ff 61 	movl   $0xd26add61,-0x7d0(%rbp)
    bd03:	dd 6a d2 
    bd06:	c7 85 34 f8 ff ff fe 	movl   $0xfffffffe,-0x7cc(%rbp)
    bd0d:	ff ff ff 
    bd10:	c7 85 38 f8 ff ff 96 	movl   $0xb172d396,-0x7c8(%rbp)
    bd17:	d3 72 b1 
    bd1a:	c7 85 3c f8 ff ff ff 	movl   $0xe675e6ff,-0x7c4(%rbp)
    bd21:	e6 75 e6 
    bd24:	c7 85 40 f8 ff ff ff 	movl   $0xffffffff,-0x7c0(%rbp)
    bd2b:	ff ff ff 
    bd2e:	c7 85 44 f8 ff ff ff 	movl   $0xffffffff,-0x7bc(%rbp)
    bd35:	ff ff ff 
    bd38:	c7 85 48 f8 ff ff ff 	movl   $0xe675e6ff,-0x7b8(%rbp)
    bd3f:	e6 75 e6 
    bd42:	c7 85 4c f8 ff ff 96 	movl   $0xb172d396,-0x7b4(%rbp)
    bd49:	d3 72 b1 
    bd4c:	c7 85 50 f8 ff ff 96 	movl   $0xb172d396,-0x7b0(%rbp)
    bd53:	d3 72 b1 
    bd56:	c7 85 54 f8 ff ff 87 	movl   $0xa0251187,-0x7ac(%rbp)
    bd5d:	11 25 a0 
    bd60:	c7 85 58 f8 ff ff fe 	movl   $0xfffffffe,-0x7a8(%rbp)
    bd67:	ff ff ff 
    bd6a:	c7 85 5c f8 ff ff ff 	movl   $0xffffffff,-0x7a4(%rbp)
    bd71:	ff ff ff 
    bd74:	c7 85 60 f8 ff ff 87 	movl   $0xa0251187,-0x7a0(%rbp)
    bd7b:	11 25 a0 
    bd7e:	c7 85 64 f8 ff ff ff 	movl   $0xffffffff,-0x79c(%rbp)
    bd85:	ff ff ff 
    bd88:	c7 85 68 f8 ff ff 96 	movl   $0xb172d396,-0x798(%rbp)
    bd8f:	d3 72 b1 
    bd92:	c7 85 6c f8 ff ff 61 	movl   $0xd26add61,-0x794(%rbp)
    bd99:	dd 6a d2 
    bd9c:	c7 85 70 f8 ff ff 96 	movl   $0xb172d396,-0x790(%rbp)
    bda3:	d3 72 b1 
    bda6:	c7 85 74 f8 ff ff ff 	movl   $0xffffffff,-0x78c(%rbp)
    bdad:	ff ff ff 
    bdb0:	c7 85 78 f8 ff ff 61 	movl   $0xd26add61,-0x788(%rbp)
    bdb7:	dd 6a d2 
    bdba:	c7 85 7c f8 ff ff fe 	movl   $0xfffffffe,-0x784(%rbp)
    bdc1:	ff ff ff 
    bdc4:	c7 85 80 f8 ff ff 96 	movl   $0xb172d396,-0x780(%rbp)
    bdcb:	d3 72 b1 
    bdce:	c7 85 84 f8 ff ff ff 	movl   $0xe675e6ff,-0x77c(%rbp)
    bdd5:	e6 75 e6 
    bdd8:	c7 85 88 f8 ff ff ff 	movl   $0xffffffff,-0x778(%rbp)
    bddf:	ff ff ff 
    bde2:	c7 85 8c f8 ff ff ff 	movl   $0xffffffff,-0x774(%rbp)
    bde9:	ff ff ff 
    bdec:	c7 85 90 f8 ff ff ff 	movl   $0xe675e6ff,-0x770(%rbp)
    bdf3:	e6 75 e6 
    bdf6:	c7 85 94 f8 ff ff 96 	movl   $0xb172d396,-0x76c(%rbp)
    bdfd:	d3 72 b1 
    be00:	c7 85 98 f8 ff ff 96 	movl   $0xb172d396,-0x768(%rbp)
    be07:	d3 72 b1 
    be0a:	c7 85 9c f8 ff ff 87 	movl   $0xa0251187,-0x764(%rbp)
    be11:	11 25 a0 
    be14:	c7 85 a0 f8 ff ff fe 	movl   $0xfffffffe,-0x760(%rbp)
    be1b:	ff ff ff 
    be1e:	c7 85 a4 f8 ff ff ff 	movl   $0xffffffff,-0x75c(%rbp)
    be25:	ff ff ff 
    be28:	c7 85 a8 f8 ff ff 87 	movl   $0xa0251187,-0x758(%rbp)
    be2f:	11 25 a0 
    be32:	c7 85 ac f8 ff ff ff 	movl   $0xffffffff,-0x754(%rbp)
    be39:	ff ff ff 
    be3c:	48 8d 05 ad d5 00 00 	lea    0xd5ad(%rip),%rax        # 193f0 <g_645+0xb0>
    be43:	48 89 85 60 ed ff ff 	mov    %rax,-0x12a0(%rbp)
    be4a:	c7 85 80 ec ff ff 03 	movl   $0x3,-0x1380(%rbp)
    be51:	00 00 00 
    be54:	e9 b4 00 00 00       	jmpq   bf0d <func_13+0xce6>
    be59:	48 c7 85 00 ed ff ff 	movq   $0x0,-0x1300(%rbp)
    be60:	00 00 00 00 
    be64:	48 8d 85 00 ed ff ff 	lea    -0x1300(%rbp),%rax
    be6b:	48 89 85 08 ed ff ff 	mov    %rax,-0x12f8(%rbp)
    be72:	48 8d 85 08 ed ff ff 	lea    -0x12f8(%rbp),%rax
    be79:	48 89 85 68 ed ff ff 	mov    %rax,-0x1298(%rbp)
    be80:	48 8d 05 e9 f6 00 00 	lea    0xf6e9(%rip),%rax        # 1b570 <g_639>
    be87:	48 89 85 c0 f4 ff ff 	mov    %rax,-0xb40(%rbp)
    be8e:	48 8d 05 db f6 00 00 	lea    0xf6db(%rip),%rax        # 1b570 <g_639>
    be95:	48 89 85 c8 f4 ff ff 	mov    %rax,-0xb38(%rbp)
    be9c:	48 8d 05 cd f6 00 00 	lea    0xf6cd(%rip),%rax        # 1b570 <g_639>
    bea3:	48 89 85 d0 f4 ff ff 	mov    %rax,-0xb30(%rbp)
    beaa:	48 8d 05 bf f6 00 00 	lea    0xf6bf(%rip),%rax        # 1b570 <g_639>
    beb1:	48 89 85 d8 f4 ff ff 	mov    %rax,-0xb28(%rbp)
    beb8:	c7 85 a4 ec ff ff 4a 	movl   $0x3d21c64a,-0x135c(%rbp)
    bebf:	c6 21 3d 
    bec2:	c6 85 6c ec ff ff ff 	movb   $0xff,-0x1394(%rbp)
    bec9:	c7 85 a8 ec ff ff 2e 	movl   $0x2a12222e,-0x1358(%rbp)
    bed0:	22 12 2a 
    bed3:	48 c7 85 70 ed ff ff 	movq   $0x0,-0x1290(%rbp)
    beda:	00 00 00 00 
    bede:	48 c7 85 78 ed ff ff 	movq   $0x2,-0x1288(%rbp)
    bee5:	02 00 00 00 
    bee9:	48 8b 05 60 fb 00 00 	mov    0xfb60(%rip),%rax        # 1ba50 <g_829>
    bef0:	48 8b 00             	mov    (%rax),%rax
    bef3:	8b 00                	mov    (%rax),%eax
    bef5:	85 c0                	test   %eax,%eax
    bef7:	0f 94 c2             	sete   %dl
    befa:	48 8b 85 d0 ec ff ff 	mov    -0x1330(%rbp),%rax
    bf01:	0f b6 d2             	movzbl %dl,%edx
    bf04:	89 10                	mov    %edx,(%rax)
    bf06:	83 ad 80 ec ff ff 01 	subl   $0x1,-0x1380(%rbp)
    bf0d:	83 bd 80 ec ff ff 00 	cmpl   $0x0,-0x1380(%rbp)
    bf14:	0f 89 3f ff ff ff    	jns    be59 <func_13+0xc32>
    bf1a:	8b 85 d4 f0 ff ff    	mov    -0xf2c(%rbp),%eax
    bf20:	89 c3                	mov    %eax,%ebx
    bf22:	8b 05 d0 d3 00 00    	mov    0xd3d0(%rip),%eax        # 192f8 <g_103>
    bf28:	85 c0                	test   %eax,%eax
    bf2a:	74 56                	je     bf82 <func_13+0xd5b>
    bf2c:	48 8b 05 2d f6 00 00 	mov    0xf62d(%rip),%rax        # 1b560 <g_570>
    bf33:	66 c7 00 00 00       	movw   $0x0,(%rax)
    bf38:	be 00 00 00 00       	mov    $0x0,%esi
    bf3d:	bf 01 00 00 00       	mov    $0x1,%edi
    bf42:	e8 ae 94 ff ff       	callq  53f5 <safe_mul_func_int16_t_s_s>
    bf47:	48 8b 85 38 ed ff ff 	mov    -0x12c8(%rbp),%rax
    bf4e:	8b 10                	mov    (%rax),%edx
    bf50:	48 8b 85 38 ed ff ff 	mov    -0x12c8(%rbp),%rax
    bf57:	89 10                	mov    %edx,(%rax)
    bf59:	48 8b 85 38 ed ff ff 	mov    -0x12c8(%rbp),%rax
    bf60:	8b 00                	mov    (%rax),%eax
    bf62:	85 c0                	test   %eax,%eax
    bf64:	74 08                	je     bf6e <func_13+0xd47>
    bf66:	66 83 bd 5c ec ff ff 	cmpw   $0x0,-0x13a4(%rbp)
    bf6d:	00 
    bf6e:	48 8b 85 d0 ec ff ff 	mov    -0x1330(%rbp),%rax
    bf75:	8b 00                	mov    (%rax),%eax
    bf77:	85 c0                	test   %eax,%eax
    bf79:	79 07                	jns    bf82 <func_13+0xd5b>
    bf7b:	ba 01 00 00 00       	mov    $0x1,%edx
    bf80:	eb 05                	jmp    bf87 <func_13+0xd60>
    bf82:	ba 00 00 00 00       	mov    $0x0,%edx
    bf87:	48 8b 05 72 f4 00 00 	mov    0xf472(%rip),%rax        # 1b400 <g_59>
    bf8e:	89 10                	mov    %edx,(%rax)
    bf90:	8b 00                	mov    (%rax),%eax
    bf92:	89 c2                	mov    %eax,%edx
    bf94:	0f b7 85 5c ec ff ff 	movzwl -0x13a4(%rbp),%eax
    bf9b:	21 c2                	and    %eax,%edx
    bf9d:	48 8b 05 74 f4 00 00 	mov    0xf474(%rip),%rax        # 1b418 <g_169>
    bfa4:	88 10                	mov    %dl,(%rax)
    bfa6:	0f b6 00             	movzbl (%rax),%eax
    bfa9:	0f be c0             	movsbl %al,%eax
    bfac:	89 de                	mov    %ebx,%esi
    bfae:	89 c7                	mov    %eax,%edi
    bfb0:	e8 80 93 ff ff       	callq  5335 <safe_rshift_func_int8_t_s_s>
    bfb5:	0f be d0             	movsbl %al,%edx
    bfb8:	8b 05 e2 d5 00 00    	mov    0xd5e2(%rip),%eax        # 195a0 <g_851>
    bfbe:	09 c2                	or     %eax,%edx
    bfc0:	48 8b 85 d0 ec ff ff 	mov    -0x1330(%rbp),%rax
    bfc7:	81 e2 6b 5e c9 2c    	and    $0x2cc95e6b,%edx
    bfcd:	89 10                	mov    %edx,(%rax)
    bfcf:	48 8b 15 9a fa 00 00 	mov    0xfa9a(%rip),%rdx        # 1ba70 <g_1013>
    bfd6:	8b 00                	mov    (%rax),%eax
    bfd8:	89 02                	mov    %eax,(%rdx)
    bfda:	c6 05 ab 00 01 00 e2 	movb   $0xe2,0x100ab(%rip)        # 1c08c <g_92>
    bfe1:	e9 b3 0e 00 00       	jmpq   ce99 <func_13+0x1c72>
    bfe6:	48 8d 05 73 f5 00 00 	lea    0xf573(%rip),%rax        # 1b560 <g_570>
    bfed:	48 89 85 b8 ed ff ff 	mov    %rax,-0x1248(%rbp)
    bff4:	48 c7 85 c0 ed ff ff 	movq   $0x0,-0x1240(%rbp)
    bffb:	00 00 00 00 
    bfff:	48 8d 85 e0 ec ff ff 	lea    -0x1320(%rbp),%rax
    c006:	48 89 85 c0 f7 ff ff 	mov    %rax,-0x840(%rbp)
    c00d:	48 8d 85 e0 ec ff ff 	lea    -0x1320(%rbp),%rax
    c014:	48 89 85 c8 f7 ff ff 	mov    %rax,-0x838(%rbp)
    c01b:	48 8d 85 e0 ec ff ff 	lea    -0x1320(%rbp),%rax
    c022:	48 89 85 d0 f7 ff ff 	mov    %rax,-0x830(%rbp)
    c029:	48 8d 85 e0 ec ff ff 	lea    -0x1320(%rbp),%rax
    c030:	48 89 85 d8 f7 ff ff 	mov    %rax,-0x828(%rbp)
    c037:	48 8d 85 e0 ec ff ff 	lea    -0x1320(%rbp),%rax
    c03e:	48 89 85 e0 f7 ff ff 	mov    %rax,-0x820(%rbp)
    c045:	48 8d 85 e0 ec ff ff 	lea    -0x1320(%rbp),%rax
    c04c:	48 89 85 e8 f7 ff ff 	mov    %rax,-0x818(%rbp)
    c053:	48 8d 85 e0 ec ff ff 	lea    -0x1320(%rbp),%rax
    c05a:	48 89 85 f0 f7 ff ff 	mov    %rax,-0x810(%rbp)
    c061:	48 8d 85 e0 ec ff ff 	lea    -0x1320(%rbp),%rax
    c068:	48 89 85 f8 f7 ff ff 	mov    %rax,-0x808(%rbp)
    c06f:	48 8d 85 e0 ec ff ff 	lea    -0x1320(%rbp),%rax
    c076:	48 89 85 00 f8 ff ff 	mov    %rax,-0x800(%rbp)
    c07d:	48 8d 85 e0 ec ff ff 	lea    -0x1320(%rbp),%rax
    c084:	48 89 85 08 f8 ff ff 	mov    %rax,-0x7f8(%rbp)
    c08b:	48 8d 85 e0 ec ff ff 	lea    -0x1320(%rbp),%rax
    c092:	48 89 85 10 f8 ff ff 	mov    %rax,-0x7f0(%rbp)
    c099:	48 c7 85 18 f8 ff ff 	movq   $0x0,-0x7e8(%rbp)
    c0a0:	00 00 00 00 
    c0a4:	48 8d 85 e0 ec ff ff 	lea    -0x1320(%rbp),%rax
    c0ab:	48 89 85 20 f8 ff ff 	mov    %rax,-0x7e0(%rbp)
    c0b2:	48 8d 85 e0 ec ff ff 	lea    -0x1320(%rbp),%rax
    c0b9:	48 89 85 28 f8 ff ff 	mov    %rax,-0x7d8(%rbp)
    c0c0:	48 c7 85 30 f8 ff ff 	movq   $0x0,-0x7d0(%rbp)
    c0c7:	00 00 00 00 
    c0cb:	48 8d 85 e0 ec ff ff 	lea    -0x1320(%rbp),%rax
    c0d2:	48 89 85 38 f8 ff ff 	mov    %rax,-0x7c8(%rbp)
    c0d9:	48 8d 85 e0 ec ff ff 	lea    -0x1320(%rbp),%rax
    c0e0:	48 89 85 40 f8 ff ff 	mov    %rax,-0x7c0(%rbp)
    c0e7:	48 8d 85 e0 ec ff ff 	lea    -0x1320(%rbp),%rax
    c0ee:	48 89 85 48 f8 ff ff 	mov    %rax,-0x7b8(%rbp)
    c0f5:	48 8d 85 e0 ec ff ff 	lea    -0x1320(%rbp),%rax
    c0fc:	48 89 85 50 f8 ff ff 	mov    %rax,-0x7b0(%rbp)
    c103:	48 8d 85 e0 ec ff ff 	lea    -0x1320(%rbp),%rax
    c10a:	48 89 85 58 f8 ff ff 	mov    %rax,-0x7a8(%rbp)
    c111:	48 8d 85 e0 ec ff ff 	lea    -0x1320(%rbp),%rax
    c118:	48 89 85 60 f8 ff ff 	mov    %rax,-0x7a0(%rbp)
    c11f:	48 c7 85 68 f8 ff ff 	movq   $0x0,-0x798(%rbp)
    c126:	00 00 00 00 
    c12a:	48 c7 85 70 f8 ff ff 	movq   $0x0,-0x790(%rbp)
    c131:	00 00 00 00 
    c135:	48 8d 85 e0 ec ff ff 	lea    -0x1320(%rbp),%rax
    c13c:	48 89 85 78 f8 ff ff 	mov    %rax,-0x788(%rbp)
    c143:	48 8d 85 e0 ec ff ff 	lea    -0x1320(%rbp),%rax
    c14a:	48 89 85 80 f8 ff ff 	mov    %rax,-0x780(%rbp)
    c151:	48 8d 85 e0 ec ff ff 	lea    -0x1320(%rbp),%rax
    c158:	48 89 85 88 f8 ff ff 	mov    %rax,-0x778(%rbp)
    c15f:	48 8d 85 e0 ec ff ff 	lea    -0x1320(%rbp),%rax
    c166:	48 89 85 90 f8 ff ff 	mov    %rax,-0x770(%rbp)
    c16d:	48 8d 85 e0 ec ff ff 	lea    -0x1320(%rbp),%rax
    c174:	48 89 85 98 f8 ff ff 	mov    %rax,-0x768(%rbp)
    c17b:	48 8d 85 e0 ec ff ff 	lea    -0x1320(%rbp),%rax
    c182:	48 89 85 a0 f8 ff ff 	mov    %rax,-0x760(%rbp)
    c189:	48 8d 85 e0 ec ff ff 	lea    -0x1320(%rbp),%rax
    c190:	48 89 85 a8 f8 ff ff 	mov    %rax,-0x758(%rbp)
    c197:	48 8d 85 e0 ec ff ff 	lea    -0x1320(%rbp),%rax
    c19e:	48 89 85 b0 f8 ff ff 	mov    %rax,-0x750(%rbp)
    c1a5:	48 8d 85 e0 ec ff ff 	lea    -0x1320(%rbp),%rax
    c1ac:	48 89 85 b8 f8 ff ff 	mov    %rax,-0x748(%rbp)
    c1b3:	48 c7 85 c0 f8 ff ff 	movq   $0x0,-0x740(%rbp)
    c1ba:	00 00 00 00 
    c1be:	48 c7 85 c8 f8 ff ff 	movq   $0x0,-0x738(%rbp)
    c1c5:	00 00 00 00 
    c1c9:	48 8d 85 e0 ec ff ff 	lea    -0x1320(%rbp),%rax
    c1d0:	48 89 85 d0 f8 ff ff 	mov    %rax,-0x730(%rbp)
    c1d7:	48 c7 85 d8 f8 ff ff 	movq   $0x0,-0x728(%rbp)
    c1de:	00 00 00 00 
    c1e2:	48 8d 85 e0 ec ff ff 	lea    -0x1320(%rbp),%rax
    c1e9:	48 89 85 e0 f8 ff ff 	mov    %rax,-0x720(%rbp)
    c1f0:	48 8d 85 e0 ec ff ff 	lea    -0x1320(%rbp),%rax
    c1f7:	48 89 85 e8 f8 ff ff 	mov    %rax,-0x718(%rbp)
    c1fe:	48 8d 85 e0 ec ff ff 	lea    -0x1320(%rbp),%rax
    c205:	48 89 85 f0 f8 ff ff 	mov    %rax,-0x710(%rbp)
    c20c:	48 8d 85 e0 ec ff ff 	lea    -0x1320(%rbp),%rax
    c213:	48 89 85 f8 f8 ff ff 	mov    %rax,-0x708(%rbp)
    c21a:	48 8d 85 e0 ec ff ff 	lea    -0x1320(%rbp),%rax
    c221:	48 89 85 00 f9 ff ff 	mov    %rax,-0x700(%rbp)
    c228:	48 c7 85 08 f9 ff ff 	movq   $0x0,-0x6f8(%rbp)
    c22f:	00 00 00 00 
    c233:	48 c7 85 10 f9 ff ff 	movq   $0x0,-0x6f0(%rbp)
    c23a:	00 00 00 00 
    c23e:	48 8d 85 e0 ec ff ff 	lea    -0x1320(%rbp),%rax
    c245:	48 89 85 18 f9 ff ff 	mov    %rax,-0x6e8(%rbp)
    c24c:	48 8d 85 e0 ec ff ff 	lea    -0x1320(%rbp),%rax
    c253:	48 89 85 20 f9 ff ff 	mov    %rax,-0x6e0(%rbp)
    c25a:	48 c7 85 28 f9 ff ff 	movq   $0x0,-0x6d8(%rbp)
    c261:	00 00 00 00 
    c265:	48 8d 85 e0 ec ff ff 	lea    -0x1320(%rbp),%rax
    c26c:	48 89 85 30 f9 ff ff 	mov    %rax,-0x6d0(%rbp)
    c273:	48 8d 85 e0 ec ff ff 	lea    -0x1320(%rbp),%rax
    c27a:	48 89 85 38 f9 ff ff 	mov    %rax,-0x6c8(%rbp)
    c281:	48 c7 85 40 f9 ff ff 	movq   $0x0,-0x6c0(%rbp)
    c288:	00 00 00 00 
    c28c:	48 8d 85 e0 ec ff ff 	lea    -0x1320(%rbp),%rax
    c293:	48 89 85 48 f9 ff ff 	mov    %rax,-0x6b8(%rbp)
    c29a:	48 8d 85 e0 ec ff ff 	lea    -0x1320(%rbp),%rax
    c2a1:	48 89 85 50 f9 ff ff 	mov    %rax,-0x6b0(%rbp)
    c2a8:	48 c7 85 58 f9 ff ff 	movq   $0x0,-0x6a8(%rbp)
    c2af:	00 00 00 00 
    c2b3:	48 8d 85 e0 ec ff ff 	lea    -0x1320(%rbp),%rax
    c2ba:	48 89 85 60 f9 ff ff 	mov    %rax,-0x6a0(%rbp)
    c2c1:	48 c7 85 68 f9 ff ff 	movq   $0x0,-0x698(%rbp)
    c2c8:	00 00 00 00 
    c2cc:	48 8d 85 e0 ec ff ff 	lea    -0x1320(%rbp),%rax
    c2d3:	48 89 85 70 f9 ff ff 	mov    %rax,-0x690(%rbp)
    c2da:	48 8d 85 e0 ec ff ff 	lea    -0x1320(%rbp),%rax
    c2e1:	48 89 85 78 f9 ff ff 	mov    %rax,-0x688(%rbp)
    c2e8:	48 8d 85 e0 ec ff ff 	lea    -0x1320(%rbp),%rax
    c2ef:	48 89 85 80 f9 ff ff 	mov    %rax,-0x680(%rbp)
    c2f6:	48 8d 85 e0 ec ff ff 	lea    -0x1320(%rbp),%rax
    c2fd:	48 89 85 88 f9 ff ff 	mov    %rax,-0x678(%rbp)
    c304:	48 8d 85 e0 ec ff ff 	lea    -0x1320(%rbp),%rax
    c30b:	48 89 85 90 f9 ff ff 	mov    %rax,-0x670(%rbp)
    c312:	48 8d 85 e0 ec ff ff 	lea    -0x1320(%rbp),%rax
    c319:	48 89 85 98 f9 ff ff 	mov    %rax,-0x668(%rbp)
    c320:	48 8d 85 e0 ec ff ff 	lea    -0x1320(%rbp),%rax
    c327:	48 89 85 a0 f9 ff ff 	mov    %rax,-0x660(%rbp)
    c32e:	48 8d 85 e0 ec ff ff 	lea    -0x1320(%rbp),%rax
    c335:	48 89 85 a8 f9 ff ff 	mov    %rax,-0x658(%rbp)
    c33c:	48 8d 85 e0 ec ff ff 	lea    -0x1320(%rbp),%rax
    c343:	48 89 85 b0 f9 ff ff 	mov    %rax,-0x650(%rbp)
    c34a:	48 8d 85 e0 ec ff ff 	lea    -0x1320(%rbp),%rax
    c351:	48 89 85 b8 f9 ff ff 	mov    %rax,-0x648(%rbp)
    c358:	48 8d 85 e0 ec ff ff 	lea    -0x1320(%rbp),%rax
    c35f:	48 89 85 c0 f9 ff ff 	mov    %rax,-0x640(%rbp)
    c366:	48 c7 85 c8 f9 ff ff 	movq   $0x0,-0x638(%rbp)
    c36d:	00 00 00 00 
    c371:	48 c7 85 d0 f9 ff ff 	movq   $0x0,-0x630(%rbp)
    c378:	00 00 00 00 
    c37c:	48 8d 85 e0 ec ff ff 	lea    -0x1320(%rbp),%rax
    c383:	48 89 85 d8 f9 ff ff 	mov    %rax,-0x628(%rbp)
    c38a:	48 8d 85 e0 ec ff ff 	lea    -0x1320(%rbp),%rax
    c391:	48 89 85 e0 f9 ff ff 	mov    %rax,-0x620(%rbp)
    c398:	48 8d 85 e0 ec ff ff 	lea    -0x1320(%rbp),%rax
    c39f:	48 89 85 e8 f9 ff ff 	mov    %rax,-0x618(%rbp)
    c3a6:	48 c7 85 f0 f9 ff ff 	movq   $0x0,-0x610(%rbp)
    c3ad:	00 00 00 00 
    c3b1:	48 8d 85 e0 ec ff ff 	lea    -0x1320(%rbp),%rax
    c3b8:	48 89 85 f8 f9 ff ff 	mov    %rax,-0x608(%rbp)
    c3bf:	48 8d 85 e0 ec ff ff 	lea    -0x1320(%rbp),%rax
    c3c6:	48 89 85 00 fa ff ff 	mov    %rax,-0x600(%rbp)
    c3cd:	48 8d 85 e0 ec ff ff 	lea    -0x1320(%rbp),%rax
    c3d4:	48 89 85 08 fa ff ff 	mov    %rax,-0x5f8(%rbp)
    c3db:	48 8d 85 e0 ec ff ff 	lea    -0x1320(%rbp),%rax
    c3e2:	48 89 85 10 fa ff ff 	mov    %rax,-0x5f0(%rbp)
    c3e9:	48 c7 85 18 fa ff ff 	movq   $0x0,-0x5e8(%rbp)
    c3f0:	00 00 00 00 
    c3f4:	48 8d 85 e0 ec ff ff 	lea    -0x1320(%rbp),%rax
    c3fb:	48 89 85 20 fa ff ff 	mov    %rax,-0x5e0(%rbp)
    c402:	48 8d 85 e0 ec ff ff 	lea    -0x1320(%rbp),%rax
    c409:	48 89 85 28 fa ff ff 	mov    %rax,-0x5d8(%rbp)
    c410:	48 8d 85 e0 ec ff ff 	lea    -0x1320(%rbp),%rax
    c417:	48 89 85 30 fa ff ff 	mov    %rax,-0x5d0(%rbp)
    c41e:	48 8d 85 e0 ec ff ff 	lea    -0x1320(%rbp),%rax
    c425:	48 89 85 38 fa ff ff 	mov    %rax,-0x5c8(%rbp)
    c42c:	48 8d 85 e0 ec ff ff 	lea    -0x1320(%rbp),%rax
    c433:	48 89 85 40 fa ff ff 	mov    %rax,-0x5c0(%rbp)
    c43a:	48 8d 85 e0 ec ff ff 	lea    -0x1320(%rbp),%rax
    c441:	48 89 85 48 fa ff ff 	mov    %rax,-0x5b8(%rbp)
    c448:	48 8d 85 e0 ec ff ff 	lea    -0x1320(%rbp),%rax
    c44f:	48 89 85 50 fa ff ff 	mov    %rax,-0x5b0(%rbp)
    c456:	48 8d 85 e0 ec ff ff 	lea    -0x1320(%rbp),%rax
    c45d:	48 89 85 58 fa ff ff 	mov    %rax,-0x5a8(%rbp)
    c464:	48 c7 85 60 fa ff ff 	movq   $0x0,-0x5a0(%rbp)
    c46b:	00 00 00 00 
    c46f:	48 8d 85 e0 ec ff ff 	lea    -0x1320(%rbp),%rax
    c476:	48 89 85 68 fa ff ff 	mov    %rax,-0x598(%rbp)
    c47d:	48 8d 85 e0 ec ff ff 	lea    -0x1320(%rbp),%rax
    c484:	48 89 85 70 fa ff ff 	mov    %rax,-0x590(%rbp)
    c48b:	48 8d 85 e0 ec ff ff 	lea    -0x1320(%rbp),%rax
    c492:	48 89 85 78 fa ff ff 	mov    %rax,-0x588(%rbp)
    c499:	48 8d 85 e0 ec ff ff 	lea    -0x1320(%rbp),%rax
    c4a0:	48 89 85 80 fa ff ff 	mov    %rax,-0x580(%rbp)
    c4a7:	48 c7 85 88 fa ff ff 	movq   $0x0,-0x578(%rbp)
    c4ae:	00 00 00 00 
    c4b2:	48 8d 85 e0 ec ff ff 	lea    -0x1320(%rbp),%rax
    c4b9:	48 89 85 90 fa ff ff 	mov    %rax,-0x570(%rbp)
    c4c0:	48 8d 85 e0 ec ff ff 	lea    -0x1320(%rbp),%rax
    c4c7:	48 89 85 98 fa ff ff 	mov    %rax,-0x568(%rbp)
    c4ce:	48 8d 85 e0 ec ff ff 	lea    -0x1320(%rbp),%rax
    c4d5:	48 89 85 a0 fa ff ff 	mov    %rax,-0x560(%rbp)
    c4dc:	48 8d 85 e0 ec ff ff 	lea    -0x1320(%rbp),%rax
    c4e3:	48 89 85 a8 fa ff ff 	mov    %rax,-0x558(%rbp)
    c4ea:	48 8d 85 e0 ec ff ff 	lea    -0x1320(%rbp),%rax
    c4f1:	48 89 85 b0 fa ff ff 	mov    %rax,-0x550(%rbp)
    c4f8:	48 c7 85 b8 fa ff ff 	movq   $0x0,-0x548(%rbp)
    c4ff:	00 00 00 00 
    c503:	48 8d 85 e0 ec ff ff 	lea    -0x1320(%rbp),%rax
    c50a:	48 89 85 c0 fa ff ff 	mov    %rax,-0x540(%rbp)
    c511:	48 8d 85 e0 ec ff ff 	lea    -0x1320(%rbp),%rax
    c518:	48 89 85 c8 fa ff ff 	mov    %rax,-0x538(%rbp)
    c51f:	48 c7 85 d0 fa ff ff 	movq   $0x0,-0x530(%rbp)
    c526:	00 00 00 00 
    c52a:	48 8d 85 e0 ec ff ff 	lea    -0x1320(%rbp),%rax
    c531:	48 89 85 d8 fa ff ff 	mov    %rax,-0x528(%rbp)
    c538:	48 8d 85 e0 ec ff ff 	lea    -0x1320(%rbp),%rax
    c53f:	48 89 85 e0 fa ff ff 	mov    %rax,-0x520(%rbp)
    c546:	48 8d 85 e0 ec ff ff 	lea    -0x1320(%rbp),%rax
    c54d:	48 89 85 e8 fa ff ff 	mov    %rax,-0x518(%rbp)
    c554:	48 8d 85 e0 ec ff ff 	lea    -0x1320(%rbp),%rax
    c55b:	48 89 85 f0 fa ff ff 	mov    %rax,-0x510(%rbp)
    c562:	48 8d 85 e0 ec ff ff 	lea    -0x1320(%rbp),%rax
    c569:	48 89 85 f8 fa ff ff 	mov    %rax,-0x508(%rbp)
    c570:	48 8d 85 e0 ec ff ff 	lea    -0x1320(%rbp),%rax
    c577:	48 89 85 00 fb ff ff 	mov    %rax,-0x500(%rbp)
    c57e:	48 8d 85 e0 ec ff ff 	lea    -0x1320(%rbp),%rax
    c585:	48 89 85 08 fb ff ff 	mov    %rax,-0x4f8(%rbp)
    c58c:	48 8d 85 e0 ec ff ff 	lea    -0x1320(%rbp),%rax
    c593:	48 89 85 10 fb ff ff 	mov    %rax,-0x4f0(%rbp)
    c59a:	48 8d 85 e0 ec ff ff 	lea    -0x1320(%rbp),%rax
    c5a1:	48 89 85 18 fb ff ff 	mov    %rax,-0x4e8(%rbp)
    c5a8:	48 8d 85 e0 ec ff ff 	lea    -0x1320(%rbp),%rax
    c5af:	48 89 85 20 fb ff ff 	mov    %rax,-0x4e0(%rbp)
    c5b6:	48 8d 85 e0 ec ff ff 	lea    -0x1320(%rbp),%rax
    c5bd:	48 89 85 28 fb ff ff 	mov    %rax,-0x4d8(%rbp)
    c5c4:	48 8d 85 e0 ec ff ff 	lea    -0x1320(%rbp),%rax
    c5cb:	48 89 85 30 fb ff ff 	mov    %rax,-0x4d0(%rbp)
    c5d2:	48 c7 85 38 fb ff ff 	movq   $0x0,-0x4c8(%rbp)
    c5d9:	00 00 00 00 
    c5dd:	48 c7 85 40 fb ff ff 	movq   $0x0,-0x4c0(%rbp)
    c5e4:	00 00 00 00 
    c5e8:	48 8d 85 e0 ec ff ff 	lea    -0x1320(%rbp),%rax
    c5ef:	48 89 85 48 fb ff ff 	mov    %rax,-0x4b8(%rbp)
    c5f6:	48 8d 85 e0 ec ff ff 	lea    -0x1320(%rbp),%rax
    c5fd:	48 89 85 50 fb ff ff 	mov    %rax,-0x4b0(%rbp)
    c604:	48 c7 85 58 fb ff ff 	movq   $0x0,-0x4a8(%rbp)
    c60b:	00 00 00 00 
    c60f:	48 8d 85 e0 ec ff ff 	lea    -0x1320(%rbp),%rax
    c616:	48 89 85 60 fb ff ff 	mov    %rax,-0x4a0(%rbp)
    c61d:	48 c7 85 68 fb ff ff 	movq   $0x0,-0x498(%rbp)
    c624:	00 00 00 00 
    c628:	48 8d 85 e0 ec ff ff 	lea    -0x1320(%rbp),%rax
    c62f:	48 89 85 70 fb ff ff 	mov    %rax,-0x490(%rbp)
    c636:	48 8d 85 e0 ec ff ff 	lea    -0x1320(%rbp),%rax
    c63d:	48 89 85 78 fb ff ff 	mov    %rax,-0x488(%rbp)
    c644:	48 8d 85 e0 ec ff ff 	lea    -0x1320(%rbp),%rax
    c64b:	48 89 85 80 fb ff ff 	mov    %rax,-0x480(%rbp)
    c652:	48 c7 85 88 fb ff ff 	movq   $0x0,-0x478(%rbp)
    c659:	00 00 00 00 
    c65d:	48 8d 85 e0 ec ff ff 	lea    -0x1320(%rbp),%rax
    c664:	48 89 85 90 fb ff ff 	mov    %rax,-0x470(%rbp)
    c66b:	48 c7 85 98 fb ff ff 	movq   $0x0,-0x468(%rbp)
    c672:	00 00 00 00 
    c676:	48 8d 85 e0 ec ff ff 	lea    -0x1320(%rbp),%rax
    c67d:	48 89 85 a0 fb ff ff 	mov    %rax,-0x460(%rbp)
    c684:	48 8d 85 e0 ec ff ff 	lea    -0x1320(%rbp),%rax
    c68b:	48 89 85 a8 fb ff ff 	mov    %rax,-0x458(%rbp)
    c692:	48 c7 85 b0 fb ff ff 	movq   $0x0,-0x450(%rbp)
    c699:	00 00 00 00 
    c69d:	48 8d 85 e0 ec ff ff 	lea    -0x1320(%rbp),%rax
    c6a4:	48 89 85 b8 fb ff ff 	mov    %rax,-0x448(%rbp)
    c6ab:	48 8d 85 e0 ec ff ff 	lea    -0x1320(%rbp),%rax
    c6b2:	48 89 85 c0 fb ff ff 	mov    %rax,-0x440(%rbp)
    c6b9:	48 8d 85 e0 ec ff ff 	lea    -0x1320(%rbp),%rax
    c6c0:	48 89 85 c8 fb ff ff 	mov    %rax,-0x438(%rbp)
    c6c7:	48 8d 85 e0 ec ff ff 	lea    -0x1320(%rbp),%rax
    c6ce:	48 89 85 d0 fb ff ff 	mov    %rax,-0x430(%rbp)
    c6d5:	48 8d 85 e0 ec ff ff 	lea    -0x1320(%rbp),%rax
    c6dc:	48 89 85 d8 fb ff ff 	mov    %rax,-0x428(%rbp)
    c6e3:	48 8d 85 e0 ec ff ff 	lea    -0x1320(%rbp),%rax
    c6ea:	48 89 85 e0 fb ff ff 	mov    %rax,-0x420(%rbp)
    c6f1:	48 8d 85 e0 ec ff ff 	lea    -0x1320(%rbp),%rax
    c6f8:	48 89 85 e8 fb ff ff 	mov    %rax,-0x418(%rbp)
    c6ff:	48 c7 85 f0 fb ff ff 	movq   $0x0,-0x410(%rbp)
    c706:	00 00 00 00 
    c70a:	48 8d 85 e0 ec ff ff 	lea    -0x1320(%rbp),%rax
    c711:	48 89 85 f8 fb ff ff 	mov    %rax,-0x408(%rbp)
    c718:	48 c7 85 00 fc ff ff 	movq   $0x0,-0x400(%rbp)
    c71f:	00 00 00 00 
    c723:	48 8d 85 e0 ec ff ff 	lea    -0x1320(%rbp),%rax
    c72a:	48 89 85 08 fc ff ff 	mov    %rax,-0x3f8(%rbp)
    c731:	48 c7 85 10 fc ff ff 	movq   $0x0,-0x3f0(%rbp)
    c738:	00 00 00 00 
    c73c:	48 8d 85 e0 ec ff ff 	lea    -0x1320(%rbp),%rax
    c743:	48 89 85 18 fc ff ff 	mov    %rax,-0x3e8(%rbp)
    c74a:	48 c7 85 20 fc ff ff 	movq   $0x0,-0x3e0(%rbp)
    c751:	00 00 00 00 
    c755:	48 8d 85 e0 ec ff ff 	lea    -0x1320(%rbp),%rax
    c75c:	48 89 85 28 fc ff ff 	mov    %rax,-0x3d8(%rbp)
    c763:	48 8d 85 e0 ec ff ff 	lea    -0x1320(%rbp),%rax
    c76a:	48 89 85 30 fc ff ff 	mov    %rax,-0x3d0(%rbp)
    c771:	48 8d 85 e0 ec ff ff 	lea    -0x1320(%rbp),%rax
    c778:	48 89 85 38 fc ff ff 	mov    %rax,-0x3c8(%rbp)
    c77f:	48 8d 85 e0 ec ff ff 	lea    -0x1320(%rbp),%rax
    c786:	48 89 85 40 fc ff ff 	mov    %rax,-0x3c0(%rbp)
    c78d:	48 8d 85 e0 ec ff ff 	lea    -0x1320(%rbp),%rax
    c794:	48 89 85 48 fc ff ff 	mov    %rax,-0x3b8(%rbp)
    c79b:	48 8d 85 e0 ec ff ff 	lea    -0x1320(%rbp),%rax
    c7a2:	48 89 85 50 fc ff ff 	mov    %rax,-0x3b0(%rbp)
    c7a9:	48 8d 85 e0 ec ff ff 	lea    -0x1320(%rbp),%rax
    c7b0:	48 89 85 58 fc ff ff 	mov    %rax,-0x3a8(%rbp)
    c7b7:	48 8d 85 e0 ec ff ff 	lea    -0x1320(%rbp),%rax
    c7be:	48 89 85 60 fc ff ff 	mov    %rax,-0x3a0(%rbp)
    c7c5:	48 8d 85 e0 ec ff ff 	lea    -0x1320(%rbp),%rax
    c7cc:	48 89 85 68 fc ff ff 	mov    %rax,-0x398(%rbp)
    c7d3:	48 8d 85 e0 ec ff ff 	lea    -0x1320(%rbp),%rax
    c7da:	48 89 85 70 fc ff ff 	mov    %rax,-0x390(%rbp)
    c7e1:	48 c7 85 78 fc ff ff 	movq   $0x0,-0x388(%rbp)
    c7e8:	00 00 00 00 
    c7ec:	48 8d 85 e0 ec ff ff 	lea    -0x1320(%rbp),%rax
    c7f3:	48 89 85 80 fc ff ff 	mov    %rax,-0x380(%rbp)
    c7fa:	48 c7 85 88 fc ff ff 	movq   $0x0,-0x378(%rbp)
    c801:	00 00 00 00 
    c805:	48 8d 85 e0 ec ff ff 	lea    -0x1320(%rbp),%rax
    c80c:	48 89 85 90 fc ff ff 	mov    %rax,-0x370(%rbp)
    c813:	48 c7 85 98 fc ff ff 	movq   $0x0,-0x368(%rbp)
    c81a:	00 00 00 00 
    c81e:	48 8d 85 e0 ec ff ff 	lea    -0x1320(%rbp),%rax
    c825:	48 89 85 a0 fc ff ff 	mov    %rax,-0x360(%rbp)
    c82c:	48 8d 85 e0 ec ff ff 	lea    -0x1320(%rbp),%rax
    c833:	48 89 85 a8 fc ff ff 	mov    %rax,-0x358(%rbp)
    c83a:	48 8d 85 e0 ec ff ff 	lea    -0x1320(%rbp),%rax
    c841:	48 89 85 b0 fc ff ff 	mov    %rax,-0x350(%rbp)
    c848:	48 8d 85 e0 ec ff ff 	lea    -0x1320(%rbp),%rax
    c84f:	48 89 85 b8 fc ff ff 	mov    %rax,-0x348(%rbp)
    c856:	48 8d 85 e0 ec ff ff 	lea    -0x1320(%rbp),%rax
    c85d:	48 89 85 c0 fc ff ff 	mov    %rax,-0x340(%rbp)
    c864:	48 8d 85 e0 ec ff ff 	lea    -0x1320(%rbp),%rax
    c86b:	48 89 85 c8 fc ff ff 	mov    %rax,-0x338(%rbp)
    c872:	48 8d 85 e0 ec ff ff 	lea    -0x1320(%rbp),%rax
    c879:	48 89 85 d0 fc ff ff 	mov    %rax,-0x330(%rbp)
    c880:	48 c7 85 d8 fc ff ff 	movq   $0x0,-0x328(%rbp)
    c887:	00 00 00 00 
    c88b:	48 8d 85 e0 ec ff ff 	lea    -0x1320(%rbp),%rax
    c892:	48 89 85 e0 fc ff ff 	mov    %rax,-0x320(%rbp)
    c899:	48 8d 85 e0 ec ff ff 	lea    -0x1320(%rbp),%rax
    c8a0:	48 89 85 e8 fc ff ff 	mov    %rax,-0x318(%rbp)
    c8a7:	48 8d 85 e0 ec ff ff 	lea    -0x1320(%rbp),%rax
    c8ae:	48 89 85 f0 fc ff ff 	mov    %rax,-0x310(%rbp)
    c8b5:	48 8d 85 e0 ec ff ff 	lea    -0x1320(%rbp),%rax
    c8bc:	48 89 85 f8 fc ff ff 	mov    %rax,-0x308(%rbp)
    c8c3:	48 8d 85 e0 ec ff ff 	lea    -0x1320(%rbp),%rax
    c8ca:	48 89 85 00 fd ff ff 	mov    %rax,-0x300(%rbp)
    c8d1:	48 8d 85 e0 ec ff ff 	lea    -0x1320(%rbp),%rax
    c8d8:	48 89 85 08 fd ff ff 	mov    %rax,-0x2f8(%rbp)
    c8df:	48 8d 85 e0 ec ff ff 	lea    -0x1320(%rbp),%rax
    c8e6:	48 89 85 10 fd ff ff 	mov    %rax,-0x2f0(%rbp)
    c8ed:	48 8d 85 e0 ec ff ff 	lea    -0x1320(%rbp),%rax
    c8f4:	48 89 85 18 fd ff ff 	mov    %rax,-0x2e8(%rbp)
    c8fb:	48 8d 85 e0 ec ff ff 	lea    -0x1320(%rbp),%rax
    c902:	48 89 85 20 fd ff ff 	mov    %rax,-0x2e0(%rbp)
    c909:	48 8d 85 e0 ec ff ff 	lea    -0x1320(%rbp),%rax
    c910:	48 89 85 28 fd ff ff 	mov    %rax,-0x2d8(%rbp)
    c917:	48 8d 85 e0 ec ff ff 	lea    -0x1320(%rbp),%rax
    c91e:	48 89 85 30 fd ff ff 	mov    %rax,-0x2d0(%rbp)
    c925:	48 c7 85 38 fd ff ff 	movq   $0x0,-0x2c8(%rbp)
    c92c:	00 00 00 00 
    c930:	48 c7 85 40 fd ff ff 	movq   $0x0,-0x2c0(%rbp)
    c937:	00 00 00 00 
    c93b:	48 c7 85 48 fd ff ff 	movq   $0x0,-0x2b8(%rbp)
    c942:	00 00 00 00 
    c946:	48 c7 85 50 fd ff ff 	movq   $0x0,-0x2b0(%rbp)
    c94d:	00 00 00 00 
    c951:	48 8d 85 e0 ec ff ff 	lea    -0x1320(%rbp),%rax
    c958:	48 89 85 58 fd ff ff 	mov    %rax,-0x2a8(%rbp)
    c95f:	48 c7 85 60 fd ff ff 	movq   $0x0,-0x2a0(%rbp)
    c966:	00 00 00 00 
    c96a:	48 8d 85 e0 ec ff ff 	lea    -0x1320(%rbp),%rax
    c971:	48 89 85 68 fd ff ff 	mov    %rax,-0x298(%rbp)
    c978:	48 c7 85 70 fd ff ff 	movq   $0x0,-0x290(%rbp)
    c97f:	00 00 00 00 
    c983:	48 8d 85 e0 ec ff ff 	lea    -0x1320(%rbp),%rax
    c98a:	48 89 85 78 fd ff ff 	mov    %rax,-0x288(%rbp)
    c991:	48 8d 85 e0 ec ff ff 	lea    -0x1320(%rbp),%rax
    c998:	48 89 85 80 fd ff ff 	mov    %rax,-0x280(%rbp)
    c99f:	48 8d 85 e0 ec ff ff 	lea    -0x1320(%rbp),%rax
    c9a6:	48 89 85 88 fd ff ff 	mov    %rax,-0x278(%rbp)
    c9ad:	48 8d 85 e0 ec ff ff 	lea    -0x1320(%rbp),%rax
    c9b4:	48 89 85 90 fd ff ff 	mov    %rax,-0x270(%rbp)
    c9bb:	48 8d 85 e0 ec ff ff 	lea    -0x1320(%rbp),%rax
    c9c2:	48 89 85 98 fd ff ff 	mov    %rax,-0x268(%rbp)
    c9c9:	48 8d 85 e0 ec ff ff 	lea    -0x1320(%rbp),%rax
    c9d0:	48 89 85 a0 fd ff ff 	mov    %rax,-0x260(%rbp)
    c9d7:	48 8d 85 e0 ec ff ff 	lea    -0x1320(%rbp),%rax
    c9de:	48 89 85 a8 fd ff ff 	mov    %rax,-0x258(%rbp)
    c9e5:	48 c7 85 b0 fd ff ff 	movq   $0x0,-0x250(%rbp)
    c9ec:	00 00 00 00 
    c9f0:	48 8d 85 e0 ec ff ff 	lea    -0x1320(%rbp),%rax
    c9f7:	48 89 85 b8 fd ff ff 	mov    %rax,-0x248(%rbp)
    c9fe:	48 8d 85 e0 ec ff ff 	lea    -0x1320(%rbp),%rax
    ca05:	48 89 85 c0 fd ff ff 	mov    %rax,-0x240(%rbp)
    ca0c:	48 8d 85 e0 ec ff ff 	lea    -0x1320(%rbp),%rax
    ca13:	48 89 85 c8 fd ff ff 	mov    %rax,-0x238(%rbp)
    ca1a:	48 8d 85 e0 ec ff ff 	lea    -0x1320(%rbp),%rax
    ca21:	48 89 85 d0 fd ff ff 	mov    %rax,-0x230(%rbp)
    ca28:	48 8d 85 e0 ec ff ff 	lea    -0x1320(%rbp),%rax
    ca2f:	48 89 85 d8 fd ff ff 	mov    %rax,-0x228(%rbp)
    ca36:	48 8d 85 e0 ec ff ff 	lea    -0x1320(%rbp),%rax
    ca3d:	48 89 85 e0 fd ff ff 	mov    %rax,-0x220(%rbp)
    ca44:	48 8d 85 e0 ec ff ff 	lea    -0x1320(%rbp),%rax
    ca4b:	48 89 85 e8 fd ff ff 	mov    %rax,-0x218(%rbp)
    ca52:	48 8d 85 e0 ec ff ff 	lea    -0x1320(%rbp),%rax
    ca59:	48 89 85 f0 fd ff ff 	mov    %rax,-0x210(%rbp)
    ca60:	48 8d 85 e0 ec ff ff 	lea    -0x1320(%rbp),%rax
    ca67:	48 89 85 f8 fd ff ff 	mov    %rax,-0x208(%rbp)
    ca6e:	48 8d 85 e0 ec ff ff 	lea    -0x1320(%rbp),%rax
    ca75:	48 89 85 00 fe ff ff 	mov    %rax,-0x200(%rbp)
    ca7c:	48 8d 85 e0 ec ff ff 	lea    -0x1320(%rbp),%rax
    ca83:	48 89 85 08 fe ff ff 	mov    %rax,-0x1f8(%rbp)
    ca8a:	48 8d 85 e0 ec ff ff 	lea    -0x1320(%rbp),%rax
    ca91:	48 89 85 10 fe ff ff 	mov    %rax,-0x1f0(%rbp)
    ca98:	48 c7 85 18 fe ff ff 	movq   $0x0,-0x1e8(%rbp)
    ca9f:	00 00 00 00 
    caa3:	48 c7 85 20 fe ff ff 	movq   $0x0,-0x1e0(%rbp)
    caaa:	00 00 00 00 
    caae:	48 c7 85 28 fe ff ff 	movq   $0x0,-0x1d8(%rbp)
    cab5:	00 00 00 00 
    cab9:	48 8d 85 e0 ec ff ff 	lea    -0x1320(%rbp),%rax
    cac0:	48 89 85 30 fe ff ff 	mov    %rax,-0x1d0(%rbp)
    cac7:	48 c7 85 38 fe ff ff 	movq   $0x0,-0x1c8(%rbp)
    cace:	00 00 00 00 
    cad2:	48 8d 85 e0 ec ff ff 	lea    -0x1320(%rbp),%rax
    cad9:	48 89 85 40 fe ff ff 	mov    %rax,-0x1c0(%rbp)
    cae0:	48 c7 85 48 fe ff ff 	movq   $0x0,-0x1b8(%rbp)
    cae7:	00 00 00 00 
    caeb:	48 8d 85 e0 ec ff ff 	lea    -0x1320(%rbp),%rax
    caf2:	48 89 85 50 fe ff ff 	mov    %rax,-0x1b0(%rbp)
    caf9:	48 c7 85 58 fe ff ff 	movq   $0x0,-0x1a8(%rbp)
    cb00:	00 00 00 00 
    cb04:	48 8d 85 e0 ec ff ff 	lea    -0x1320(%rbp),%rax
    cb0b:	48 89 85 60 fe ff ff 	mov    %rax,-0x1a0(%rbp)
    cb12:	48 c7 85 68 fe ff ff 	movq   $0x0,-0x198(%rbp)
    cb19:	00 00 00 00 
    cb1d:	48 8d 85 e0 ec ff ff 	lea    -0x1320(%rbp),%rax
    cb24:	48 89 85 70 fe ff ff 	mov    %rax,-0x190(%rbp)
    cb2b:	48 8d 85 e0 ec ff ff 	lea    -0x1320(%rbp),%rax
    cb32:	48 89 85 78 fe ff ff 	mov    %rax,-0x188(%rbp)
    cb39:	48 c7 85 80 fe ff ff 	movq   $0x0,-0x180(%rbp)
    cb40:	00 00 00 00 
    cb44:	48 c7 85 88 fe ff ff 	movq   $0x0,-0x178(%rbp)
    cb4b:	00 00 00 00 
    cb4f:	48 c7 85 90 fe ff ff 	movq   $0x0,-0x170(%rbp)
    cb56:	00 00 00 00 
    cb5a:	48 8d 85 e0 ec ff ff 	lea    -0x1320(%rbp),%rax
    cb61:	48 89 85 98 fe ff ff 	mov    %rax,-0x168(%rbp)
    cb68:	48 c7 85 a0 fe ff ff 	movq   $0x0,-0x160(%rbp)
    cb6f:	00 00 00 00 
    cb73:	48 8d 85 e0 ec ff ff 	lea    -0x1320(%rbp),%rax
    cb7a:	48 89 85 a8 fe ff ff 	mov    %rax,-0x158(%rbp)
    cb81:	48 8d 85 e0 ec ff ff 	lea    -0x1320(%rbp),%rax
    cb88:	48 89 85 b0 fe ff ff 	mov    %rax,-0x150(%rbp)
    cb8f:	48 8d 85 e0 ec ff ff 	lea    -0x1320(%rbp),%rax
    cb96:	48 89 85 b8 fe ff ff 	mov    %rax,-0x148(%rbp)
    cb9d:	48 8d 85 e0 ec ff ff 	lea    -0x1320(%rbp),%rax
    cba4:	48 89 85 c0 fe ff ff 	mov    %rax,-0x140(%rbp)
    cbab:	48 8d 85 e0 ec ff ff 	lea    -0x1320(%rbp),%rax
    cbb2:	48 89 85 c8 fe ff ff 	mov    %rax,-0x138(%rbp)
    cbb9:	48 8d 85 e0 ec ff ff 	lea    -0x1320(%rbp),%rax
    cbc0:	48 89 85 d0 fe ff ff 	mov    %rax,-0x130(%rbp)
    cbc7:	48 8d 85 e0 ec ff ff 	lea    -0x1320(%rbp),%rax
    cbce:	48 89 85 d8 fe ff ff 	mov    %rax,-0x128(%rbp)
    cbd5:	48 8d 85 e0 ec ff ff 	lea    -0x1320(%rbp),%rax
    cbdc:	48 89 85 e0 fe ff ff 	mov    %rax,-0x120(%rbp)
    cbe3:	48 8d 85 e0 ec ff ff 	lea    -0x1320(%rbp),%rax
    cbea:	48 89 85 e8 fe ff ff 	mov    %rax,-0x118(%rbp)
    cbf1:	48 c7 85 f0 fe ff ff 	movq   $0x0,-0x110(%rbp)
    cbf8:	00 00 00 00 
    cbfc:	48 8d 85 e0 ec ff ff 	lea    -0x1320(%rbp),%rax
    cc03:	48 89 85 f8 fe ff ff 	mov    %rax,-0x108(%rbp)
    cc0a:	48 8d 85 e0 ec ff ff 	lea    -0x1320(%rbp),%rax
    cc11:	48 89 85 00 ff ff ff 	mov    %rax,-0x100(%rbp)
    cc18:	48 c7 85 08 ff ff ff 	movq   $0x0,-0xf8(%rbp)
    cc1f:	00 00 00 00 
    cc23:	48 8d 85 e0 ec ff ff 	lea    -0x1320(%rbp),%rax
    cc2a:	48 89 85 10 ff ff ff 	mov    %rax,-0xf0(%rbp)
    cc31:	48 8d 85 e0 ec ff ff 	lea    -0x1320(%rbp),%rax
    cc38:	48 89 85 18 ff ff ff 	mov    %rax,-0xe8(%rbp)
    cc3f:	48 8d 85 e0 ec ff ff 	lea    -0x1320(%rbp),%rax
    cc46:	48 89 85 20 ff ff ff 	mov    %rax,-0xe0(%rbp)
    cc4d:	48 c7 85 28 ff ff ff 	movq   $0x0,-0xd8(%rbp)
    cc54:	00 00 00 00 
    cc58:	48 8d 85 e0 ec ff ff 	lea    -0x1320(%rbp),%rax
    cc5f:	48 89 85 30 ff ff ff 	mov    %rax,-0xd0(%rbp)
    cc66:	48 8d 85 e0 ec ff ff 	lea    -0x1320(%rbp),%rax
    cc6d:	48 89 85 38 ff ff ff 	mov    %rax,-0xc8(%rbp)
    cc74:	48 8d 85 e0 ec ff ff 	lea    -0x1320(%rbp),%rax
    cc7b:	48 89 85 40 ff ff ff 	mov    %rax,-0xc0(%rbp)
    cc82:	48 c7 85 48 ff ff ff 	movq   $0x0,-0xb8(%rbp)
    cc89:	00 00 00 00 
    cc8d:	48 8d 85 e0 ec ff ff 	lea    -0x1320(%rbp),%rax
    cc94:	48 89 85 50 ff ff ff 	mov    %rax,-0xb0(%rbp)
    cc9b:	48 c7 85 58 ff ff ff 	movq   $0x0,-0xa8(%rbp)
    cca2:	00 00 00 00 
    cca6:	48 8d 85 e0 ec ff ff 	lea    -0x1320(%rbp),%rax
    ccad:	48 89 85 60 ff ff ff 	mov    %rax,-0xa0(%rbp)
    ccb4:	48 8d 85 e0 ec ff ff 	lea    -0x1320(%rbp),%rax
    ccbb:	48 89 85 68 ff ff ff 	mov    %rax,-0x98(%rbp)
    ccc2:	48 8d 85 e0 ec ff ff 	lea    -0x1320(%rbp),%rax
    ccc9:	48 89 85 70 ff ff ff 	mov    %rax,-0x90(%rbp)
    ccd0:	48 c7 85 78 ff ff ff 	movq   $0x0,-0x88(%rbp)
    ccd7:	00 00 00 00 
    ccdb:	48 8d 85 e0 ec ff ff 	lea    -0x1320(%rbp),%rax
    cce2:	48 89 45 80          	mov    %rax,-0x80(%rbp)
    cce6:	48 8d 85 e0 ec ff ff 	lea    -0x1320(%rbp),%rax
    cced:	48 89 45 88          	mov    %rax,-0x78(%rbp)
    ccf1:	48 c7 45 90 00 00 00 	movq   $0x0,-0x70(%rbp)
    ccf8:	00 
    ccf9:	48 c7 45 98 00 00 00 	movq   $0x0,-0x68(%rbp)
    cd00:	00 
    cd01:	48 8d 85 e0 ec ff ff 	lea    -0x1320(%rbp),%rax
    cd08:	48 89 45 a0          	mov    %rax,-0x60(%rbp)
    cd0c:	48 8d 85 e0 ec ff ff 	lea    -0x1320(%rbp),%rax
    cd13:	48 89 45 a8          	mov    %rax,-0x58(%rbp)
    cd17:	48 8d 85 e0 ec ff ff 	lea    -0x1320(%rbp),%rax
    cd1e:	48 89 45 b0          	mov    %rax,-0x50(%rbp)
    cd22:	48 8d 85 e0 ec ff ff 	lea    -0x1320(%rbp),%rax
    cd29:	48 89 45 b8          	mov    %rax,-0x48(%rbp)
    cd2d:	48 8d 05 d6 c5 00 00 	lea    0xc5d6(%rip),%rax        # 1930a <g_228>
    cd34:	48 89 85 c8 ed ff ff 	mov    %rax,-0x1238(%rbp)
    cd3b:	48 8d 85 e0 f2 ff ff 	lea    -0xd20(%rbp),%rax
    cd42:	48 8d 15 97 7c 00 00 	lea    0x7c97(%rip),%rdx        # 149e0 <g_151+0x980>
    cd49:	b9 3c 00 00 00       	mov    $0x3c,%ecx
    cd4e:	48 89 c7             	mov    %rax,%rdi
    cd51:	48 89 d6             	mov    %rdx,%rsi
    cd54:	f3 48 a5             	rep movsq %ds:(%rsi),%es:(%rdi)
    cd57:	48 8d 85 c0 f4 ff ff 	lea    -0xb40(%rbp),%rax
    cd5e:	48 8d 15 5b e0 00 00 	lea    0xe05b(%rip),%rdx        # 1adc0 <g_2468+0x934>
    cd65:	b9 60 00 00 00       	mov    $0x60,%ecx
    cd6a:	48 89 c7             	mov    %rax,%rdi
    cd6d:	48 89 d6             	mov    %rdx,%rsi
    cd70:	f3 48 a5             	rep movsq %ds:(%rsi),%es:(%rdi)
    cd73:	48 8d 05 56 c5 00 00 	lea    0xc556(%rip),%rax        # 192d0 <g_77>
    cd7a:	48 89 85 d0 ed ff ff 	mov    %rax,-0x1230(%rbp)
    cd81:	48 8d 85 e8 ec ff ff 	lea    -0x1318(%rbp),%rax
    cd88:	48 89 85 d8 ed ff ff 	mov    %rax,-0x1228(%rbp)
    cd8f:	c7 85 cc ec ff ff fb 	movl   $0xfffffffb,-0x1334(%rbp)
    cd96:	ff ff ff 
    cd99:	48 8d 85 d8 ec ff ff 	lea    -0x1328(%rbp),%rax
    cda0:	48 89 85 e0 ed ff ff 	mov    %rax,-0x1220(%rbp)
    cda7:	48 b8 e3 ad 45 ff 0f 	movabs $0xe4e30c0fff45ade3,%rax
    cdae:	0c e3 e4 
    cdb1:	48 89 85 e8 ed ff ff 	mov    %rax,-0x1218(%rbp)
    cdb8:	48 8d 05 45 c5 00 00 	lea    0xc545(%rip),%rax        # 19304 <g_144>
    cdbf:	48 89 85 f0 ed ff ff 	mov    %rax,-0x1210(%rbp)
    cdc6:	48 8d 05 db f2 00 00 	lea    0xf2db(%rip),%rax        # 1c0a8 <g_854>
    cdcd:	48 89 85 f8 ed ff ff 	mov    %rax,-0x1208(%rbp)
    cdd4:	48 c7 85 08 ed ff ff 	movq   $0x0,-0x12f8(%rbp)
    cddb:	00 00 00 00 
    cddf:	48 8d 85 08 ed ff ff 	lea    -0x12f8(%rbp),%rax
    cde6:	48 89 85 00 ee ff ff 	mov    %rax,-0x1200(%rbp)
    cded:	66 c7 85 76 ec ff ff 	movw   $0x6,-0x138a(%rbp)
    cdf4:	06 00 
    cdf6:	48 8d 85 f0 ec ff ff 	lea    -0x1310(%rbp),%rax
    cdfd:	48 89 85 08 ee ff ff 	mov    %rax,-0x11f8(%rbp)
    ce04:	c6 85 6d ec ff ff fa 	movb   $0xfa,-0x1393(%rbp)
    ce0b:	48 b8 4d 8d ca 89 6a 	movabs $0xa181c86a89ca8d4d,%rax
    ce12:	c8 81 a1 
    ce15:	48 89 85 00 ef ff ff 	mov    %rax,-0x1100(%rbp)
    ce1c:	48 89 85 08 ef ff ff 	mov    %rax,-0x10f8(%rbp)
    ce23:	48 89 85 10 ef ff ff 	mov    %rax,-0x10f0(%rbp)
    ce2a:	48 89 85 18 ef ff ff 	mov    %rax,-0x10e8(%rbp)
    ce31:	48 89 85 20 ef ff ff 	mov    %rax,-0x10e0(%rbp)
    ce38:	48 89 85 28 ef ff ff 	mov    %rax,-0x10d8(%rbp)
    ce3f:	48 89 85 30 ef ff ff 	mov    %rax,-0x10d0(%rbp)
    ce46:	48 89 85 38 ef ff ff 	mov    %rax,-0x10c8(%rbp)
    ce4d:	48 89 85 40 ef ff ff 	mov    %rax,-0x10c0(%rbp)
    ce54:	48 89 85 48 ef ff ff 	mov    %rax,-0x10b8(%rbp)
    ce5b:	c7 85 90 ec ff ff 00 	movl   $0x0,-0x1370(%rbp)
    ce62:	00 00 00 
    ce65:	eb 19                	jmp    ce80 <func_13+0x1c59>
    ce67:	8b 85 90 ec ff ff    	mov    -0x1370(%rbp),%eax
    ce6d:	48 98                	cltq   
    ce6f:	66 c7 84 45 22 ee ff 	movw   $0x6023,-0x11de(%rbp,%rax,2)
    ce76:	ff 23 60 
    ce79:	83 85 90 ec ff ff 01 	addl   $0x1,-0x1370(%rbp)
    ce80:	83 bd 90 ec ff ff 06 	cmpl   $0x6,-0x1370(%rbp)
    ce87:	7e de                	jle    ce67 <func_13+0x1c40>
    ce89:	0f b6 05 fc f1 00 00 	movzbl 0xf1fc(%rip),%eax        # 1c08c <g_92>
    ce90:	83 c0 01             	add    $0x1,%eax
    ce93:	88 05 f3 f1 00 00    	mov    %al,0xf1f3(%rip)        # 1c08c <g_92>
    ce99:	0f b6 05 ec f1 00 00 	movzbl 0xf1ec(%rip),%eax        # 1c08c <g_92>
    cea0:	3c 12                	cmp    $0x12,%al
    cea2:	0f 86 3e f1 ff ff    	jbe    bfe6 <func_13+0xdbf>
    cea8:	48 8b 85 58 ed ff ff 	mov    -0x12a8(%rbp),%rax
    ceaf:	48 8b 5d c8          	mov    -0x38(%rbp),%rbx
    ceb3:	64 48 33 1c 25 28 00 	xor    %fs:0x28,%rbx
    ceba:	00 00 
    cebc:	74 05                	je     cec3 <func_13+0x1c9c>
    cebe:	e8 ad 81 ff ff       	callq  5070 <__stack_chk_fail@plt>
    cec3:	48 81 c4 88 13 00 00 	add    $0x1388,%rsp
    ceca:	5b                   	pop    %rbx
    cecb:	41 5c                	pop    %r12
    cecd:	41 5d                	pop    %r13
    cecf:	41 5e                	pop    %r14
    ced1:	41 5f                	pop    %r15
    ced3:	5d                   	pop    %rbp
    ced4:	c3                   	retq   

000000000000ced5 <func_21>:
    ced5:	f3 0f 1e fa          	endbr64 
    ced9:	55                   	push   %rbp
    ceda:	48 89 e5             	mov    %rsp,%rbp
    cedd:	41 57                	push   %r15
    cedf:	41 56                	push   %r14
    cee1:	41 55                	push   %r13
    cee3:	41 54                	push   %r12
    cee5:	53                   	push   %rbx
    cee6:	48 81 ec a8 0b 00 00 	sub    $0xba8,%rsp
    ceed:	89 f8                	mov    %edi,%eax
    ceef:	88 85 3c f4 ff ff    	mov    %al,-0xbc4(%rbp)
    cef5:	64 48 8b 04 25 28 00 	mov    %fs:0x28,%rax
    cefc:	00 00 
    cefe:	48 89 45 c8          	mov    %rax,-0x38(%rbp)
    cf02:	31 c0                	xor    %eax,%eax
    cf04:	c7 85 5c f4 ff ff 4b 	movl   $0xf45dc14b,-0xba4(%rbp)
    cf0b:	c1 5d f4 
    cf0e:	48 8d 05 b3 c1 00 00 	lea    0xc1b3(%rip),%rax        # 190c8 <g_12+0x68>
    cf15:	48 89 85 b0 f4 ff ff 	mov    %rax,-0xb50(%rbp)
    cf1c:	c7 85 50 f4 ff ff 02 	movl   $0x2,-0xbb0(%rbp)
    cf23:	00 00 00 
    cf26:	c7 85 74 f4 ff ff 10 	movl   $0x8b3b2510,-0xb8c(%rbp)
    cf2d:	25 3b 8b 
    cf30:	48 8d 05 d1 c3 00 00 	lea    0xc3d1(%rip),%rax        # 19308 <g_188>
    cf37:	48 89 85 b8 f4 ff ff 	mov    %rax,-0xb48(%rbp)
    cf3e:	48 c7 85 c0 f4 ff ff 	movq   $0x1,-0xb40(%rbp)
    cf45:	01 00 00 00 
    cf49:	48 8d 85 f4 f5 ff ff 	lea    -0xa0c(%rbp),%rax
    cf50:	48 83 c0 04          	add    $0x4,%rax
    cf54:	48 89 85 c8 f4 ff ff 	mov    %rax,-0xb38(%rbp)
    cf5b:	48 8d 05 a6 e4 00 00 	lea    0xe4a6(%rip),%rax        # 1b408 <g_58>
    cf62:	48 89 85 88 f4 ff ff 	mov    %rax,-0xb78(%rbp)
    cf69:	48 c7 85 50 f6 ff ff 	movq   $0x0,-0x9b0(%rbp)
    cf70:	00 00 00 00 
    cf74:	48 8d 85 88 f4 ff ff 	lea    -0xb78(%rbp),%rax
    cf7b:	48 89 85 58 f6 ff ff 	mov    %rax,-0x9a8(%rbp)
    cf82:	48 c7 85 60 f6 ff ff 	movq   $0x0,-0x9a0(%rbp)
    cf89:	00 00 00 00 
    cf8d:	48 c7 85 68 f6 ff ff 	movq   $0x0,-0x998(%rbp)
    cf94:	00 00 00 00 
    cf98:	48 8d 85 88 f4 ff ff 	lea    -0xb78(%rbp),%rax
    cf9f:	48 89 85 70 f6 ff ff 	mov    %rax,-0x990(%rbp)
    cfa6:	48 c7 85 78 f6 ff ff 	movq   $0x0,-0x988(%rbp)
    cfad:	00 00 00 00 
    cfb1:	48 c7 85 80 f6 ff ff 	movq   $0x0,-0x980(%rbp)
    cfb8:	00 00 00 00 
    cfbc:	48 8d 85 88 f4 ff ff 	lea    -0xb78(%rbp),%rax
    cfc3:	48 89 85 88 f6 ff ff 	mov    %rax,-0x978(%rbp)
    cfca:	48 b8 eb 70 9e 05 23 	movabs $0x3fd09523059e70eb,%rax
    cfd1:	95 d0 3f 
    cfd4:	48 89 85 d0 f4 ff ff 	mov    %rax,-0xb30(%rbp)
    cfdb:	c6 85 4a f4 ff ff 18 	movb   $0x18,-0xbb6(%rbp)
    cfe2:	66 c7 85 4c f4 ff ff 	movw   $0x86e2,-0xbb4(%rbp)
    cfe9:	e2 86 
    cfeb:	66 c7 85 4e f4 ff ff 	movw   $0x75c5,-0xbb2(%rbp)
    cff2:	c5 75 
    cff4:	c7 85 60 f4 ff ff 00 	movl   $0x0,-0xba0(%rbp)
    cffb:	00 00 00 
    cffe:	eb 1a                	jmp    d01a <func_21+0x145>
    d000:	8b 85 60 f4 ff ff    	mov    -0xba0(%rbp),%eax
    d006:	48 98                	cltq   
    d008:	c7 84 85 f4 f5 ff ff 	movl   $0xbbb95d51,-0xa0c(%rbp,%rax,4)
    d00f:	51 5d b9 bb 
    d013:	83 85 60 f4 ff ff 01 	addl   $0x1,-0xba0(%rbp)
    d01a:	83 bd 60 f4 ff ff 02 	cmpl   $0x2,-0xba0(%rbp)
    d021:	7e dd                	jle    d000 <func_21+0x12b>
    d023:	c7 85 60 f4 ff ff 00 	movl   $0x0,-0xba0(%rbp)
    d02a:	00 00 00 
    d02d:	eb 14                	jmp    d043 <func_21+0x16e>
    d02f:	8b 85 60 f4 ff ff    	mov    -0xba0(%rbp),%eax
    d035:	48 98                	cltq   
    d037:	c6 44 05 be ff       	movb   $0xff,-0x42(%rbp,%rax,1)
    d03c:	83 85 60 f4 ff ff 01 	addl   $0x1,-0xba0(%rbp)
    d043:	83 bd 60 f4 ff ff 09 	cmpl   $0x9,-0xba0(%rbp)
    d04a:	7e e3                	jle    d02f <func_21+0x15a>
    d04c:	c7 05 a2 c2 00 00 05 	movl   $0x5,0xc2a2(%rip)        # 192f8 <g_103>
    d053:	00 00 00 
    d056:	e9 64 0b 00 00       	jmpq   dbbf <func_21+0xcea>
    d05b:	c7 85 78 f4 ff ff 01 	movl   $0x1,-0xb88(%rbp)
    d062:	00 00 00 
    d065:	48 8d 05 ac e3 00 00 	lea    0xe3ac(%rip),%rax        # 1b418 <g_169>
    d06c:	48 89 85 90 f4 ff ff 	mov    %rax,-0xb70(%rbp)
    d073:	48 8d 85 90 f4 ff ff 	lea    -0xb70(%rbp),%rax
    d07a:	48 89 85 d8 f4 ff ff 	mov    %rax,-0xb28(%rbp)
    d081:	48 c7 85 98 f4 ff ff 	movq   $0x0,-0xb68(%rbp)
    d088:	00 00 00 00 
    d08c:	c7 85 7c f4 ff ff dd 	movl   $0x54940dd,-0xb84(%rbp)
    d093:	40 49 05 
    d096:	c7 85 80 f4 ff ff fd 	movl   $0xfffffffd,-0xb80(%rbp)
    d09d:	ff ff ff 
    d0a0:	48 8d 85 90 f6 ff ff 	lea    -0x970(%rbp),%rax
    d0a7:	48 8d 15 12 7b 00 00 	lea    0x7b12(%rip),%rdx        # 14bc0 <g_151+0xb60>
    d0ae:	b9 30 00 00 00       	mov    $0x30,%ecx
    d0b3:	48 89 c7             	mov    %rax,%rdi
    d0b6:	48 89 d6             	mov    %rdx,%rsi
    d0b9:	f3 48 a5             	rep movsq %ds:(%rsi),%es:(%rdi)
    d0bc:	48 8d 85 90 f6 ff ff 	lea    -0x970(%rbp),%rax
    d0c3:	48 05 4c 01 00 00    	add    $0x14c,%rax
    d0c9:	48 89 85 e0 f4 ff ff 	mov    %rax,-0xb20(%rbp)
    d0d0:	48 8d 85 50 f4 ff ff 	lea    -0xbb0(%rbp),%rax
    d0d7:	48 89 85 e8 f4 ff ff 	mov    %rax,-0xb18(%rbp)
    d0de:	48 8d 85 50 f4 ff ff 	lea    -0xbb0(%rbp),%rax
    d0e5:	48 89 85 f0 f4 ff ff 	mov    %rax,-0xb10(%rbp)
    d0ec:	48 8d 85 f4 f5 ff ff 	lea    -0xa0c(%rbp),%rax
    d0f3:	48 89 85 f8 f4 ff ff 	mov    %rax,-0xb08(%rbp)
    d0fa:	48 8d 85 90 f6 ff ff 	lea    -0x970(%rbp),%rax
    d101:	48 83 c0 04          	add    $0x4,%rax
    d105:	48 89 85 00 f5 ff ff 	mov    %rax,-0xb00(%rbp)
    d10c:	48 8d 85 90 f6 ff ff 	lea    -0x970(%rbp),%rax
    d113:	48 83 c0 04          	add    $0x4,%rax
    d117:	48 89 85 08 f5 ff ff 	mov    %rax,-0xaf8(%rbp)
    d11e:	48 8d 85 90 f6 ff ff 	lea    -0x970(%rbp),%rax
    d125:	48 05 10 01 00 00    	add    $0x110,%rax
    d12b:	48 89 85 10 f5 ff ff 	mov    %rax,-0xaf0(%rbp)
    d132:	48 c7 85 18 f5 ff ff 	movq   $0x0,-0xae8(%rbp)
    d139:	00 00 00 00 
    d13d:	48 8d 85 90 f6 ff ff 	lea    -0x970(%rbp),%rax
    d144:	48 83 c0 04          	add    $0x4,%rax
    d148:	48 89 85 20 f5 ff ff 	mov    %rax,-0xae0(%rbp)
    d14f:	c7 85 84 f4 ff ff ff 	movl   $0xffffffff,-0xb7c(%rbp)
    d156:	ff ff ff 
    d159:	c7 85 64 f4 ff ff 00 	movl   $0x0,-0xb9c(%rbp)
    d160:	00 00 00 
    d163:	eb 22                	jmp    d187 <func_21+0x2b2>
    d165:	8b 85 64 f4 ff ff    	mov    -0xb9c(%rbp),%eax
    d16b:	48 98                	cltq   
    d16d:	48 8d 95 f4 f5 ff ff 	lea    -0xa0c(%rbp),%rdx
    d174:	48 83 c2 08          	add    $0x8,%rdx
    d178:	48 89 94 c5 20 f6 ff 	mov    %rdx,-0x9e0(%rbp,%rax,8)
    d17f:	ff 
    d180:	83 85 64 f4 ff ff 01 	addl   $0x1,-0xb9c(%rbp)
    d187:	83 bd 64 f4 ff ff 04 	cmpl   $0x4,-0xb9c(%rbp)
    d18e:	7e d5                	jle    d165 <func_21+0x290>
    d190:	c6 05 73 c1 00 00 00 	movb   $0x0,0xc173(%rip)        # 1930a <g_228>
    d197:	e9 fe 09 00 00       	jmpq   db9a <func_21+0xcc5>
    d19c:	48 8d 05 75 e2 00 00 	lea    0xe275(%rip),%rax        # 1b418 <g_169>
    d1a3:	48 89 85 a0 f4 ff ff 	mov    %rax,-0xb60(%rbp)
    d1aa:	48 8d 85 a0 f4 ff ff 	lea    -0xb60(%rbp),%rax
    d1b1:	48 89 85 a8 f4 ff ff 	mov    %rax,-0xb58(%rbp)
    d1b8:	c7 85 54 f4 ff ff 40 	movl   $0xd3529140,-0xbac(%rbp)
    d1bf:	91 52 d3 
    d1c2:	c7 85 58 f4 ff ff fc 	movl   $0xfffffffc,-0xba8(%rbp)
    d1c9:	ff ff ff 
    d1cc:	48 c7 85 28 f5 ff ff 	movq   $0x0,-0xad8(%rbp)
    d1d3:	00 00 00 00 
    d1d7:	48 8d 85 58 f4 ff ff 	lea    -0xba8(%rbp),%rax
    d1de:	48 89 85 30 f5 ff ff 	mov    %rax,-0xad0(%rbp)
    d1e5:	48 8d 85 54 f4 ff ff 	lea    -0xbac(%rbp),%rax
    d1ec:	48 89 85 38 f5 ff ff 	mov    %rax,-0xac8(%rbp)
    d1f3:	48 8d 85 58 f4 ff ff 	lea    -0xba8(%rbp),%rax
    d1fa:	48 89 85 40 f5 ff ff 	mov    %rax,-0xac0(%rbp)
    d201:	48 8d 85 50 f4 ff ff 	lea    -0xbb0(%rbp),%rax
    d208:	48 89 85 48 f5 ff ff 	mov    %rax,-0xab8(%rbp)
    d20f:	48 c7 85 50 f5 ff ff 	movq   $0x0,-0xab0(%rbp)
    d216:	00 00 00 00 
    d21a:	48 8d 85 50 f4 ff ff 	lea    -0xbb0(%rbp),%rax
    d221:	48 89 85 58 f5 ff ff 	mov    %rax,-0xaa8(%rbp)
    d228:	48 8d 05 59 ee 00 00 	lea    0xee59(%rip),%rax        # 1c088 <g_62>
    d22f:	48 89 85 10 fa ff ff 	mov    %rax,-0x5f0(%rbp)
    d236:	48 8d 85 58 f4 ff ff 	lea    -0xba8(%rbp),%rax
    d23d:	48 89 85 18 fa ff ff 	mov    %rax,-0x5e8(%rbp)
    d244:	48 8d 85 58 f4 ff ff 	lea    -0xba8(%rbp),%rax
    d24b:	48 89 85 20 fa ff ff 	mov    %rax,-0x5e0(%rbp)
    d252:	48 8d 05 2f ee 00 00 	lea    0xee2f(%rip),%rax        # 1c088 <g_62>
    d259:	48 89 85 28 fa ff ff 	mov    %rax,-0x5d8(%rbp)
    d260:	48 8d 85 58 f4 ff ff 	lea    -0xba8(%rbp),%rax
    d267:	48 89 85 30 fa ff ff 	mov    %rax,-0x5d0(%rbp)
    d26e:	48 8d 05 13 ee 00 00 	lea    0xee13(%rip),%rax        # 1c088 <g_62>
    d275:	48 89 85 38 fa ff ff 	mov    %rax,-0x5c8(%rbp)
    d27c:	48 8d 05 05 ee 00 00 	lea    0xee05(%rip),%rax        # 1c088 <g_62>
    d283:	48 89 85 40 fa ff ff 	mov    %rax,-0x5c0(%rbp)
    d28a:	48 8d 05 f7 ed 00 00 	lea    0xedf7(%rip),%rax        # 1c088 <g_62>
    d291:	48 89 85 48 fa ff ff 	mov    %rax,-0x5b8(%rbp)
    d298:	48 8d 05 e9 ed 00 00 	lea    0xede9(%rip),%rax        # 1c088 <g_62>
    d29f:	48 89 85 50 fa ff ff 	mov    %rax,-0x5b0(%rbp)
    d2a6:	48 8d 05 db ed 00 00 	lea    0xeddb(%rip),%rax        # 1c088 <g_62>
    d2ad:	48 89 85 58 fa ff ff 	mov    %rax,-0x5a8(%rbp)
    d2b4:	48 8d 85 58 f4 ff ff 	lea    -0xba8(%rbp),%rax
    d2bb:	48 89 85 60 fa ff ff 	mov    %rax,-0x5a0(%rbp)
    d2c2:	48 8d 05 bf ed 00 00 	lea    0xedbf(%rip),%rax        # 1c088 <g_62>
    d2c9:	48 89 85 68 fa ff ff 	mov    %rax,-0x598(%rbp)
    d2d0:	48 8d 85 58 f4 ff ff 	lea    -0xba8(%rbp),%rax
    d2d7:	48 89 85 70 fa ff ff 	mov    %rax,-0x590(%rbp)
    d2de:	48 8d 85 58 f4 ff ff 	lea    -0xba8(%rbp),%rax
    d2e5:	48 89 85 78 fa ff ff 	mov    %rax,-0x588(%rbp)
    d2ec:	48 8d 05 95 ed 00 00 	lea    0xed95(%rip),%rax        # 1c088 <g_62>
    d2f3:	48 89 85 80 fa ff ff 	mov    %rax,-0x580(%rbp)
    d2fa:	48 8d 05 87 ed 00 00 	lea    0xed87(%rip),%rax        # 1c088 <g_62>
    d301:	48 89 85 88 fa ff ff 	mov    %rax,-0x578(%rbp)
    d308:	48 8d 85 58 f4 ff ff 	lea    -0xba8(%rbp),%rax
    d30f:	48 89 85 90 fa ff ff 	mov    %rax,-0x570(%rbp)
    d316:	48 8d 85 58 f4 ff ff 	lea    -0xba8(%rbp),%rax
    d31d:	48 89 85 98 fa ff ff 	mov    %rax,-0x568(%rbp)
    d324:	48 8d 05 5d ed 00 00 	lea    0xed5d(%rip),%rax        # 1c088 <g_62>
    d32b:	48 89 85 a0 fa ff ff 	mov    %rax,-0x560(%rbp)
    d332:	48 8d 85 58 f4 ff ff 	lea    -0xba8(%rbp),%rax
    d339:	48 89 85 a8 fa ff ff 	mov    %rax,-0x558(%rbp)
    d340:	48 8d 05 41 ed 00 00 	lea    0xed41(%rip),%rax        # 1c088 <g_62>
    d347:	48 89 85 b0 fa ff ff 	mov    %rax,-0x550(%rbp)
    d34e:	48 8d 05 33 ed 00 00 	lea    0xed33(%rip),%rax        # 1c088 <g_62>
    d355:	48 89 85 b8 fa ff ff 	mov    %rax,-0x548(%rbp)
    d35c:	48 8d 05 25 ed 00 00 	lea    0xed25(%rip),%rax        # 1c088 <g_62>
    d363:	48 89 85 c0 fa ff ff 	mov    %rax,-0x540(%rbp)
    d36a:	48 8d 05 17 ed 00 00 	lea    0xed17(%rip),%rax        # 1c088 <g_62>
    d371:	48 89 85 c8 fa ff ff 	mov    %rax,-0x538(%rbp)
    d378:	48 8d 05 09 ed 00 00 	lea    0xed09(%rip),%rax        # 1c088 <g_62>
    d37f:	48 89 85 d0 fa ff ff 	mov    %rax,-0x530(%rbp)
    d386:	48 8d 85 58 f4 ff ff 	lea    -0xba8(%rbp),%rax
    d38d:	48 89 85 d8 fa ff ff 	mov    %rax,-0x528(%rbp)
    d394:	48 8d 05 ed ec 00 00 	lea    0xeced(%rip),%rax        # 1c088 <g_62>
    d39b:	48 89 85 e0 fa ff ff 	mov    %rax,-0x520(%rbp)
    d3a2:	48 8d 85 58 f4 ff ff 	lea    -0xba8(%rbp),%rax
    d3a9:	48 89 85 e8 fa ff ff 	mov    %rax,-0x518(%rbp)
    d3b0:	48 8d 85 58 f4 ff ff 	lea    -0xba8(%rbp),%rax
    d3b7:	48 89 85 f0 fa ff ff 	mov    %rax,-0x510(%rbp)
    d3be:	48 8d 05 c3 ec 00 00 	lea    0xecc3(%rip),%rax        # 1c088 <g_62>
    d3c5:	48 89 85 f8 fa ff ff 	mov    %rax,-0x508(%rbp)
    d3cc:	48 8d 05 b5 ec 00 00 	lea    0xecb5(%rip),%rax        # 1c088 <g_62>
    d3d3:	48 89 85 00 fb ff ff 	mov    %rax,-0x500(%rbp)
    d3da:	48 8d 85 58 f4 ff ff 	lea    -0xba8(%rbp),%rax
    d3e1:	48 89 85 08 fb ff ff 	mov    %rax,-0x4f8(%rbp)
    d3e8:	48 8d 85 58 f4 ff ff 	lea    -0xba8(%rbp),%rax
    d3ef:	48 89 85 10 fb ff ff 	mov    %rax,-0x4f0(%rbp)
    d3f6:	48 8d 05 8b ec 00 00 	lea    0xec8b(%rip),%rax        # 1c088 <g_62>
    d3fd:	48 89 85 18 fb ff ff 	mov    %rax,-0x4e8(%rbp)
    d404:	48 8d 85 58 f4 ff ff 	lea    -0xba8(%rbp),%rax
    d40b:	48 89 85 20 fb ff ff 	mov    %rax,-0x4e0(%rbp)
    d412:	48 8d 05 6f ec 00 00 	lea    0xec6f(%rip),%rax        # 1c088 <g_62>
    d419:	48 89 85 28 fb ff ff 	mov    %rax,-0x4d8(%rbp)
    d420:	48 8d 05 61 ec 00 00 	lea    0xec61(%rip),%rax        # 1c088 <g_62>
    d427:	48 89 85 30 fb ff ff 	mov    %rax,-0x4d0(%rbp)
    d42e:	48 8d 05 53 ec 00 00 	lea    0xec53(%rip),%rax        # 1c088 <g_62>
    d435:	48 89 85 38 fb ff ff 	mov    %rax,-0x4c8(%rbp)
    d43c:	48 8d 05 45 ec 00 00 	lea    0xec45(%rip),%rax        # 1c088 <g_62>
    d443:	48 89 85 40 fb ff ff 	mov    %rax,-0x4c0(%rbp)
    d44a:	48 8d 05 37 ec 00 00 	lea    0xec37(%rip),%rax        # 1c088 <g_62>
    d451:	48 89 85 48 fb ff ff 	mov    %rax,-0x4b8(%rbp)
    d458:	48 8d 85 58 f4 ff ff 	lea    -0xba8(%rbp),%rax
    d45f:	48 89 85 50 fb ff ff 	mov    %rax,-0x4b0(%rbp)
    d466:	48 8d 05 1b ec 00 00 	lea    0xec1b(%rip),%rax        # 1c088 <g_62>
    d46d:	48 89 85 58 fb ff ff 	mov    %rax,-0x4a8(%rbp)
    d474:	48 8d 85 58 f4 ff ff 	lea    -0xba8(%rbp),%rax
    d47b:	48 89 85 60 fb ff ff 	mov    %rax,-0x4a0(%rbp)
    d482:	48 8d 85 58 f4 ff ff 	lea    -0xba8(%rbp),%rax
    d489:	48 89 85 68 fb ff ff 	mov    %rax,-0x498(%rbp)
    d490:	48 8d 05 f1 eb 00 00 	lea    0xebf1(%rip),%rax        # 1c088 <g_62>
    d497:	48 89 85 70 fb ff ff 	mov    %rax,-0x490(%rbp)
    d49e:	48 8d 05 e3 eb 00 00 	lea    0xebe3(%rip),%rax        # 1c088 <g_62>
    d4a5:	48 89 85 78 fb ff ff 	mov    %rax,-0x488(%rbp)
    d4ac:	48 8d 85 58 f4 ff ff 	lea    -0xba8(%rbp),%rax
    d4b3:	48 89 85 80 fb ff ff 	mov    %rax,-0x480(%rbp)
    d4ba:	48 8d 85 58 f4 ff ff 	lea    -0xba8(%rbp),%rax
    d4c1:	48 89 85 88 fb ff ff 	mov    %rax,-0x478(%rbp)
    d4c8:	48 8d 05 b9 eb 00 00 	lea    0xebb9(%rip),%rax        # 1c088 <g_62>
    d4cf:	48 89 85 90 fb ff ff 	mov    %rax,-0x470(%rbp)
    d4d6:	48 8d 85 58 f4 ff ff 	lea    -0xba8(%rbp),%rax
    d4dd:	48 89 85 98 fb ff ff 	mov    %rax,-0x468(%rbp)
    d4e4:	48 8d 05 9d eb 00 00 	lea    0xeb9d(%rip),%rax        # 1c088 <g_62>
    d4eb:	48 89 85 a0 fb ff ff 	mov    %rax,-0x460(%rbp)
    d4f2:	48 8d 05 8f eb 00 00 	lea    0xeb8f(%rip),%rax        # 1c088 <g_62>
    d4f9:	48 89 85 a8 fb ff ff 	mov    %rax,-0x458(%rbp)
    d500:	48 8d 05 81 eb 00 00 	lea    0xeb81(%rip),%rax        # 1c088 <g_62>
    d507:	48 89 85 b0 fb ff ff 	mov    %rax,-0x450(%rbp)
    d50e:	48 8d 05 73 eb 00 00 	lea    0xeb73(%rip),%rax        # 1c088 <g_62>
    d515:	48 89 85 b8 fb ff ff 	mov    %rax,-0x448(%rbp)
    d51c:	48 8d 05 65 eb 00 00 	lea    0xeb65(%rip),%rax        # 1c088 <g_62>
    d523:	48 89 85 c0 fb ff ff 	mov    %rax,-0x440(%rbp)
    d52a:	48 8d 85 58 f4 ff ff 	lea    -0xba8(%rbp),%rax
    d531:	48 89 85 c8 fb ff ff 	mov    %rax,-0x438(%rbp)
    d538:	48 8d 05 49 eb 00 00 	lea    0xeb49(%rip),%rax        # 1c088 <g_62>
    d53f:	48 89 85 d0 fb ff ff 	mov    %rax,-0x430(%rbp)
    d546:	48 8d 85 58 f4 ff ff 	lea    -0xba8(%rbp),%rax
    d54d:	48 89 85 d8 fb ff ff 	mov    %rax,-0x428(%rbp)
    d554:	48 8d 85 58 f4 ff ff 	lea    -0xba8(%rbp),%rax
    d55b:	48 89 85 e0 fb ff ff 	mov    %rax,-0x420(%rbp)
    d562:	48 8d 05 1f eb 00 00 	lea    0xeb1f(%rip),%rax        # 1c088 <g_62>
    d569:	48 89 85 e8 fb ff ff 	mov    %rax,-0x418(%rbp)
    d570:	48 8d 05 11 eb 00 00 	lea    0xeb11(%rip),%rax        # 1c088 <g_62>
    d577:	48 89 85 f0 fb ff ff 	mov    %rax,-0x410(%rbp)
    d57e:	48 8d 85 58 f4 ff ff 	lea    -0xba8(%rbp),%rax
    d585:	48 89 85 f8 fb ff ff 	mov    %rax,-0x408(%rbp)
    d58c:	48 8d 85 58 f4 ff ff 	lea    -0xba8(%rbp),%rax
    d593:	48 89 85 00 fc ff ff 	mov    %rax,-0x400(%rbp)
    d59a:	48 8d 05 e7 ea 00 00 	lea    0xeae7(%rip),%rax        # 1c088 <g_62>
    d5a1:	48 89 85 08 fc ff ff 	mov    %rax,-0x3f8(%rbp)
    d5a8:	48 8d 85 58 f4 ff ff 	lea    -0xba8(%rbp),%rax
    d5af:	48 89 85 10 fc ff ff 	mov    %rax,-0x3f0(%rbp)
    d5b6:	48 8d 05 cb ea 00 00 	lea    0xeacb(%rip),%rax        # 1c088 <g_62>
    d5bd:	48 89 85 18 fc ff ff 	mov    %rax,-0x3e8(%rbp)
    d5c4:	48 8d 05 bd ea 00 00 	lea    0xeabd(%rip),%rax        # 1c088 <g_62>
    d5cb:	48 89 85 20 fc ff ff 	mov    %rax,-0x3e0(%rbp)
    d5d2:	48 8d 05 af ea 00 00 	lea    0xeaaf(%rip),%rax        # 1c088 <g_62>
    d5d9:	48 89 85 28 fc ff ff 	mov    %rax,-0x3d8(%rbp)
    d5e0:	48 8d 05 a1 ea 00 00 	lea    0xeaa1(%rip),%rax        # 1c088 <g_62>
    d5e7:	48 89 85 30 fc ff ff 	mov    %rax,-0x3d0(%rbp)
    d5ee:	48 8d 05 93 ea 00 00 	lea    0xea93(%rip),%rax        # 1c088 <g_62>
    d5f5:	48 89 85 38 fc ff ff 	mov    %rax,-0x3c8(%rbp)
    d5fc:	48 8d 85 58 f4 ff ff 	lea    -0xba8(%rbp),%rax
    d603:	48 89 85 40 fc ff ff 	mov    %rax,-0x3c0(%rbp)
    d60a:	48 8d 05 77 ea 00 00 	lea    0xea77(%rip),%rax        # 1c088 <g_62>
    d611:	48 89 85 48 fc ff ff 	mov    %rax,-0x3b8(%rbp)
    d618:	48 8d 85 58 f4 ff ff 	lea    -0xba8(%rbp),%rax
    d61f:	48 89 85 50 fc ff ff 	mov    %rax,-0x3b0(%rbp)
    d626:	48 8d 85 58 f4 ff ff 	lea    -0xba8(%rbp),%rax
    d62d:	48 89 85 58 fc ff ff 	mov    %rax,-0x3a8(%rbp)
    d634:	48 8d 05 4d ea 00 00 	lea    0xea4d(%rip),%rax        # 1c088 <g_62>
    d63b:	48 89 85 60 fc ff ff 	mov    %rax,-0x3a0(%rbp)
    d642:	48 8d 05 3f ea 00 00 	lea    0xea3f(%rip),%rax        # 1c088 <g_62>
    d649:	48 89 85 68 fc ff ff 	mov    %rax,-0x398(%rbp)
    d650:	48 8d 85 58 f4 ff ff 	lea    -0xba8(%rbp),%rax
    d657:	48 89 85 70 fc ff ff 	mov    %rax,-0x390(%rbp)
    d65e:	48 8d 85 58 f4 ff ff 	lea    -0xba8(%rbp),%rax
    d665:	48 89 85 78 fc ff ff 	mov    %rax,-0x388(%rbp)
    d66c:	48 8d 05 15 ea 00 00 	lea    0xea15(%rip),%rax        # 1c088 <g_62>
    d673:	48 89 85 80 fc ff ff 	mov    %rax,-0x380(%rbp)
    d67a:	48 8d 85 58 f4 ff ff 	lea    -0xba8(%rbp),%rax
    d681:	48 89 85 88 fc ff ff 	mov    %rax,-0x378(%rbp)
    d688:	48 8d 05 f9 e9 00 00 	lea    0xe9f9(%rip),%rax        # 1c088 <g_62>
    d68f:	48 89 85 90 fc ff ff 	mov    %rax,-0x370(%rbp)
    d696:	48 8d 05 eb e9 00 00 	lea    0xe9eb(%rip),%rax        # 1c088 <g_62>
    d69d:	48 89 85 98 fc ff ff 	mov    %rax,-0x368(%rbp)
    d6a4:	48 8d 05 dd e9 00 00 	lea    0xe9dd(%rip),%rax        # 1c088 <g_62>
    d6ab:	48 89 85 a0 fc ff ff 	mov    %rax,-0x360(%rbp)
    d6b2:	48 8d 05 cf e9 00 00 	lea    0xe9cf(%rip),%rax        # 1c088 <g_62>
    d6b9:	48 89 85 a8 fc ff ff 	mov    %rax,-0x358(%rbp)
    d6c0:	48 8d 05 c1 e9 00 00 	lea    0xe9c1(%rip),%rax        # 1c088 <g_62>
    d6c7:	48 89 85 b0 fc ff ff 	mov    %rax,-0x350(%rbp)
    d6ce:	48 8d 05 b3 e9 00 00 	lea    0xe9b3(%rip),%rax        # 1c088 <g_62>
    d6d5:	48 89 85 b8 fc ff ff 	mov    %rax,-0x348(%rbp)
    d6dc:	48 8d 85 58 f4 ff ff 	lea    -0xba8(%rbp),%rax
    d6e3:	48 89 85 c0 fc ff ff 	mov    %rax,-0x340(%rbp)
    d6ea:	48 8d 05 97 e9 00 00 	lea    0xe997(%rip),%rax        # 1c088 <g_62>
    d6f1:	48 89 85 c8 fc ff ff 	mov    %rax,-0x338(%rbp)
    d6f8:	48 8d 05 89 e9 00 00 	lea    0xe989(%rip),%rax        # 1c088 <g_62>
    d6ff:	48 89 85 d0 fc ff ff 	mov    %rax,-0x330(%rbp)
    d706:	48 8d 85 58 f4 ff ff 	lea    -0xba8(%rbp),%rax
    d70d:	48 89 85 d8 fc ff ff 	mov    %rax,-0x328(%rbp)
    d714:	48 8d 85 58 f4 ff ff 	lea    -0xba8(%rbp),%rax
    d71b:	48 89 85 e0 fc ff ff 	mov    %rax,-0x320(%rbp)
    d722:	48 8d 05 5f e9 00 00 	lea    0xe95f(%rip),%rax        # 1c088 <g_62>
    d729:	48 89 85 e8 fc ff ff 	mov    %rax,-0x318(%rbp)
    d730:	48 8d 05 51 e9 00 00 	lea    0xe951(%rip),%rax        # 1c088 <g_62>
    d737:	48 89 85 f0 fc ff ff 	mov    %rax,-0x310(%rbp)
    d73e:	48 8d 85 58 f4 ff ff 	lea    -0xba8(%rbp),%rax
    d745:	48 89 85 f8 fc ff ff 	mov    %rax,-0x308(%rbp)
    d74c:	48 8d 05 35 e9 00 00 	lea    0xe935(%rip),%rax        # 1c088 <g_62>
    d753:	48 89 85 00 fd ff ff 	mov    %rax,-0x300(%rbp)
    d75a:	48 8d 85 58 f4 ff ff 	lea    -0xba8(%rbp),%rax
    d761:	48 89 85 08 fd ff ff 	mov    %rax,-0x2f8(%rbp)
    d768:	48 8d 85 58 f4 ff ff 	lea    -0xba8(%rbp),%rax
    d76f:	48 89 85 10 fd ff ff 	mov    %rax,-0x2f0(%rbp)
    d776:	48 8d 05 0b e9 00 00 	lea    0xe90b(%rip),%rax        # 1c088 <g_62>
    d77d:	48 89 85 18 fd ff ff 	mov    %rax,-0x2e8(%rbp)
    d784:	48 8d 85 58 f4 ff ff 	lea    -0xba8(%rbp),%rax
    d78b:	48 89 85 20 fd ff ff 	mov    %rax,-0x2e0(%rbp)
    d792:	48 8d 85 58 f4 ff ff 	lea    -0xba8(%rbp),%rax
    d799:	48 89 85 28 fd ff ff 	mov    %rax,-0x2d8(%rbp)
    d7a0:	48 8d 05 e1 e8 00 00 	lea    0xe8e1(%rip),%rax        # 1c088 <g_62>
    d7a7:	48 89 85 30 fd ff ff 	mov    %rax,-0x2d0(%rbp)
    d7ae:	48 8d 85 58 f4 ff ff 	lea    -0xba8(%rbp),%rax
    d7b5:	48 89 85 38 fd ff ff 	mov    %rax,-0x2c8(%rbp)
    d7bc:	48 8d 05 c5 e8 00 00 	lea    0xe8c5(%rip),%rax        # 1c088 <g_62>
    d7c3:	48 89 85 40 fd ff ff 	mov    %rax,-0x2c0(%rbp)
    d7ca:	48 8d 05 b7 e8 00 00 	lea    0xe8b7(%rip),%rax        # 1c088 <g_62>
    d7d1:	48 89 85 48 fd ff ff 	mov    %rax,-0x2b8(%rbp)
    d7d8:	48 8d 85 58 f4 ff ff 	lea    -0xba8(%rbp),%rax
    d7df:	48 89 85 50 fd ff ff 	mov    %rax,-0x2b0(%rbp)
    d7e6:	48 8d 85 58 f4 ff ff 	lea    -0xba8(%rbp),%rax
    d7ed:	48 89 85 58 fd ff ff 	mov    %rax,-0x2a8(%rbp)
    d7f4:	48 8d 05 8d e8 00 00 	lea    0xe88d(%rip),%rax        # 1c088 <g_62>
    d7fb:	48 89 85 60 fd ff ff 	mov    %rax,-0x2a0(%rbp)
    d802:	48 8d 05 7f e8 00 00 	lea    0xe87f(%rip),%rax        # 1c088 <g_62>
    d809:	48 89 85 68 fd ff ff 	mov    %rax,-0x298(%rbp)
    d810:	48 8d 85 58 f4 ff ff 	lea    -0xba8(%rbp),%rax
    d817:	48 89 85 70 fd ff ff 	mov    %rax,-0x290(%rbp)
    d81e:	48 8d 05 63 e8 00 00 	lea    0xe863(%rip),%rax        # 1c088 <g_62>
    d825:	48 89 85 78 fd ff ff 	mov    %rax,-0x288(%rbp)
    d82c:	48 8d 85 58 f4 ff ff 	lea    -0xba8(%rbp),%rax
    d833:	48 89 85 80 fd ff ff 	mov    %rax,-0x280(%rbp)
    d83a:	48 8d 85 58 f4 ff ff 	lea    -0xba8(%rbp),%rax
    d841:	48 89 85 88 fd ff ff 	mov    %rax,-0x278(%rbp)
    d848:	48 8d 05 39 e8 00 00 	lea    0xe839(%rip),%rax        # 1c088 <g_62>
    d84f:	48 89 85 90 fd ff ff 	mov    %rax,-0x270(%rbp)
    d856:	48 8d 85 58 f4 ff ff 	lea    -0xba8(%rbp),%rax
    d85d:	48 89 85 98 fd ff ff 	mov    %rax,-0x268(%rbp)
    d864:	48 8d 85 58 f4 ff ff 	lea    -0xba8(%rbp),%rax
    d86b:	48 89 85 a0 fd ff ff 	mov    %rax,-0x260(%rbp)
    d872:	48 8d 05 0f e8 00 00 	lea    0xe80f(%rip),%rax        # 1c088 <g_62>
    d879:	48 89 85 a8 fd ff ff 	mov    %rax,-0x258(%rbp)
    d880:	48 8d 85 58 f4 ff ff 	lea    -0xba8(%rbp),%rax
    d887:	48 89 85 b0 fd ff ff 	mov    %rax,-0x250(%rbp)
    d88e:	48 8d 05 f3 e7 00 00 	lea    0xe7f3(%rip),%rax        # 1c088 <g_62>
    d895:	48 89 85 b8 fd ff ff 	mov    %rax,-0x248(%rbp)
    d89c:	48 8d 05 e5 e7 00 00 	lea    0xe7e5(%rip),%rax        # 1c088 <g_62>
    d8a3:	48 89 85 c0 fd ff ff 	mov    %rax,-0x240(%rbp)
    d8aa:	48 8d 85 58 f4 ff ff 	lea    -0xba8(%rbp),%rax
    d8b1:	48 89 85 c8 fd ff ff 	mov    %rax,-0x238(%rbp)
    d8b8:	66 c7 05 47 ba 00 00 	movw   $0x1,0xba47(%rip)        # 19308 <g_188>
    d8bf:	01 00 
    d8c1:	e9 99 02 00 00       	jmpq   db5f <func_21+0xc8a>
    d8c6:	48 c7 85 60 f5 ff ff 	movq   $0x0,-0xaa0(%rbp)
    d8cd:	00 00 00 00 
    d8d1:	48 c7 85 68 f5 ff ff 	movq   $0x0,-0xa98(%rbp)
    d8d8:	00 00 00 00 
    d8dc:	48 8d 05 e5 b9 00 00 	lea    0xb9e5(%rip),%rax        # 192c8 <g_74>
    d8e3:	48 89 85 70 f5 ff ff 	mov    %rax,-0xa90(%rbp)
    d8ea:	48 8d 05 97 e7 00 00 	lea    0xe797(%rip),%rax        # 1c088 <g_62>
    d8f1:	48 89 85 78 f5 ff ff 	mov    %rax,-0xa88(%rbp)
    d8f8:	48 8d 85 10 f8 ff ff 	lea    -0x7f0(%rbp),%rax
    d8ff:	48 8d 15 3a 74 00 00 	lea    0x743a(%rip),%rdx        # 14d40 <g_151+0xce0>
    d906:	b9 3f 00 00 00       	mov    $0x3f,%ecx
    d90b:	48 89 c7             	mov    %rax,%rdi
    d90e:	48 89 d6             	mov    %rdx,%rsi
    d911:	f3 48 a5             	rep movsq %ds:(%rsi),%es:(%rdi)
    d914:	48 8d 85 98 f4 ff ff 	lea    -0xb68(%rbp),%rax
    d91b:	48 89 85 80 f5 ff ff 	mov    %rax,-0xa80(%rbp)
    d922:	66 0f be 85 3c f4 ff 	movsbw -0xbc4(%rbp),%ax
    d929:	ff 
    d92a:	0f b7 d8             	movzwl %ax,%ebx
    d92d:	48 8b 85 70 f5 ff ff 	mov    -0xa90(%rbp),%rax
    d934:	48 8b 10             	mov    (%rax),%rdx
    d937:	48 0f be 85 3c f4 ff 	movsbq -0xbc4(%rbp),%rax
    d93e:	ff 
    d93f:	48 21 c2             	and    %rax,%rdx
    d942:	48 8b 85 70 f5 ff ff 	mov    -0xa90(%rbp),%rax
    d949:	48 89 10             	mov    %rdx,(%rax)
    d94c:	44 0f be a5 3c f4 ff 	movsbl -0xbc4(%rbp),%r12d
    d953:	ff 
    d954:	8b 05 8a b9 00 00    	mov    0xb98a(%rip),%eax        # 192e4 <g_79+0x4>
    d95a:	0f be d0             	movsbl %al,%edx
    d95d:	0f be 85 3c f4 ff ff 	movsbl -0xbc4(%rbp),%eax
    d964:	89 d6                	mov    %edx,%esi
    d966:	89 c7                	mov    %eax,%edi
    d968:	e8 c4 78 ff ff       	callq  5231 <safe_mod_func_int8_t_s_s>
    d96d:	0f be c0             	movsbl %al,%eax
    d970:	44 89 e6             	mov    %r12d,%esi
    d973:	89 c7                	mov    %eax,%edi
    d975:	e8 59 7a ff ff       	callq  53d3 <safe_sub_func_int16_t_s_s>
    d97a:	0f bf d0             	movswl %ax,%edx
    d97d:	48 8b 85 a8 f4 ff ff 	mov    -0xb58(%rbp),%rax
    d984:	48 85 c0             	test   %rax,%rax
    d987:	0f 95 c0             	setne  %al
    d98a:	0f b6 c0             	movzbl %al,%eax
    d98d:	39 c2                	cmp    %eax,%edx
    d98f:	0f 9c c0             	setl   %al
    d992:	0f b6 c0             	movzbl %al,%eax
    d995:	89 de                	mov    %ebx,%esi
    d997:	89 c7                	mov    %eax,%edi
    d999:	e8 61 83 ff ff       	callq  5cff <safe_add_func_uint16_t_u_u>
    d99e:	8b 85 5c f4 ff ff    	mov    -0xba4(%rbp),%eax
    d9a4:	0f b7 c0             	movzwl %ax,%eax
    d9a7:	be 00 00 00 00       	mov    $0x0,%esi
    d9ac:	89 c7                	mov    %eax,%edi
    d9ae:	e8 8a 83 ff ff       	callq  5d3d <safe_mul_func_uint16_t_u_u>
    d9b3:	0f be d0             	movsbl %al,%edx
    d9b6:	48 8b 05 5b da 00 00 	mov    0xda5b(%rip),%rax        # 1b418 <g_169>
    d9bd:	0f b6 8d 3c f4 ff ff 	movzbl -0xbc4(%rbp),%ecx
    d9c4:	88 08                	mov    %cl,(%rax)
    d9c6:	0f b6 00             	movzbl (%rax),%eax
    d9c9:	0f be c0             	movsbl %al,%eax
    d9cc:	89 d6                	mov    %edx,%esi
    d9ce:	89 c7                	mov    %eax,%edi
    d9d0:	e8 3d 78 ff ff       	callq  5212 <safe_mul_func_int8_t_s_s>
    d9d5:	48 8b 95 78 f5 ff ff 	mov    -0xa88(%rbp),%rdx
    d9dc:	8b 12                	mov    (%rdx),%edx
    d9de:	0f be c0             	movsbl %al,%eax
    d9e1:	31 c2                	xor    %eax,%edx
    d9e3:	48 8b 85 78 f5 ff ff 	mov    -0xa88(%rbp),%rax
    d9ea:	89 10                	mov    %edx,(%rax)
    d9ec:	c6 05 13 b9 00 00 00 	movb   $0x0,0xb913(%rip)        # 19306 <g_170>
    d9f3:	e9 2c 01 00 00       	jmpq   db24 <func_21+0xc4f>
    d9f8:	48 8d 85 a8 f4 ff ff 	lea    -0xb58(%rbp),%rax
    d9ff:	48 89 85 88 f5 ff ff 	mov    %rax,-0xa78(%rbp)
    da06:	48 8b 85 98 f8 ff ff 	mov    -0x768(%rbp),%rax
    da0d:	41 89 c5             	mov    %eax,%r13d
    da10:	48 8b 85 88 f5 ff ff 	mov    -0xa78(%rbp),%rax
    da17:	48 c7 00 00 00 00 00 	movq   $0x0,(%rax)
    da1e:	48 8b 85 88 f5 ff ff 	mov    -0xa78(%rbp),%rax
    da25:	48 8b 00             	mov    (%rax),%rax
    da28:	48 39 85 d8 f4 ff ff 	cmp    %rax,-0xb28(%rbp)
    da2f:	0f 94 c0             	sete   %al
    da32:	0f b6 d8             	movzbl %al,%ebx
    da35:	be fc ff ff ff       	mov    $0xfffffffc,%esi
    da3a:	bf 0a 40 00 00       	mov    $0x400a,%edi
    da3f:	e8 b1 79 ff ff       	callq  53f5 <safe_mul_func_int16_t_s_s>
    da44:	44 0f bf e0          	movswl %ax,%r12d
    da48:	8b 85 54 f4 ff ff    	mov    -0xbac(%rbp),%eax
    da4e:	0f b7 c0             	movzwl %ax,%eax
    da51:	be 01 00 00 00       	mov    $0x1,%esi
    da56:	89 c7                	mov    %eax,%edi
    da58:	e8 31 83 ff ff       	callq  5d8e <safe_div_func_uint16_t_u_u>
    da5d:	0f b7 c0             	movzwl %ax,%eax
    da60:	41 39 c4             	cmp    %eax,%r12d
    da63:	0f 95 c0             	setne  %al
    da66:	0f b6 c0             	movzbl %al,%eax
    da69:	89 de                	mov    %ebx,%esi
    da6b:	89 c7                	mov    %eax,%edi
    da6d:	e8 20 7a ff ff       	callq  5492 <safe_lshift_func_int16_t_s_s>
    da72:	98                   	cwtl   
    da73:	39 85 5c f4 ff ff    	cmp    %eax,-0xba4(%rbp)
    da79:	0f 94 c0             	sete   %al
    da7c:	0f b6 d0             	movzbl %al,%edx
    da7f:	8b 85 54 f4 ff ff    	mov    -0xbac(%rbp),%eax
    da85:	0f b6 c0             	movzbl %al,%eax
    da88:	89 d6                	mov    %edx,%esi
    da8a:	89 c7                	mov    %eax,%edi
    da8c:	e8 02 81 ff ff       	callq  5b93 <safe_mul_func_uint8_t_u_u>
    da91:	0f b6 c0             	movzbl %al,%eax
    da94:	ba 88 ff b0 c1       	mov    $0xc1b0ff88,%edx
    da99:	39 d0                	cmp    %edx,%eax
    da9b:	0f 95 c0             	setne  %al
    da9e:	0f b6 c8             	movzbl %al,%ecx
    daa1:	48 8b 85 70 f5 ff ff 	mov    -0xa90(%rbp),%rax
    daa8:	48 8b 10             	mov    (%rax),%rdx
    daab:	48 63 c1             	movslq %ecx,%rax
    daae:	48 09 c2             	or     %rax,%rdx
    dab1:	48 8b 85 70 f5 ff ff 	mov    -0xa90(%rbp),%rax
    dab8:	48 89 10             	mov    %rdx,(%rax)
    dabb:	48 8b 85 70 f5 ff ff 	mov    -0xa90(%rbp),%rax
    dac2:	48 8b 00             	mov    (%rax),%rax
    dac5:	48 85 c0             	test   %rax,%rax
    dac8:	0f 94 c0             	sete   %al
    dacb:	0f b6 f0             	movzbl %al,%esi
    dace:	8b 05 28 b8 00 00    	mov    0xb828(%rip),%eax        # 192fc <g_134>
    dad4:	0f b6 c0             	movzbl %al,%eax
    dad7:	48 8b 1d 72 da 00 00 	mov    0xda72(%rip),%rbx        # 1b550 <g_410>
    dade:	48 8b 95 b0 f4 ff ff 	mov    -0xb50(%rbp),%rdx
    dae5:	45 89 e8             	mov    %r13d,%r8d
    dae8:	48 8d 0d 99 b5 00 00 	lea    0xb599(%rip),%rcx        # 19088 <g_12+0x28>
    daef:	89 c7                	mov    %eax,%edi
    daf1:	e8 67 11 00 00       	callq  ec5d <func_28>
    daf6:	48 89 03             	mov    %rax,(%rbx)
    daf9:	0f b6 05 06 b8 00 00 	movzbl 0xb806(%rip),%eax        # 19306 <g_170>
    db00:	84 c0                	test   %al,%al
    db02:	0f 85 c7 00 00 00    	jne    dbcf <func_21+0xcfa>
    db08:	0f b6 05 f7 b7 00 00 	movzbl 0xb7f7(%rip),%eax        # 19306 <g_170>
    db0f:	0f be c0             	movsbl %al,%eax
    db12:	be 01 00 00 00       	mov    $0x1,%esi
    db17:	89 c7                	mov    %eax,%edi
    db19:	e8 b5 78 ff ff       	callq  53d3 <safe_sub_func_int16_t_s_s>
    db1e:	88 05 e2 b7 00 00    	mov    %al,0xb7e2(%rip)        # 19306 <g_170>
    db24:	0f b6 05 db b7 00 00 	movzbl 0xb7db(%rip),%eax        # 19306 <g_170>
    db2b:	3c e9                	cmp    $0xe9,%al
    db2d:	0f 8c c5 fe ff ff    	jl     d9f8 <func_21+0xb23>
    db33:	48 8b 95 98 f4 ff ff 	mov    -0xb68(%rbp),%rdx
    db3a:	48 8b 85 80 f5 ff ff 	mov    -0xa80(%rbp),%rax
    db41:	48 89 10             	mov    %rdx,(%rax)
    db44:	0f b7 05 bd b7 00 00 	movzwl 0xb7bd(%rip),%eax        # 19308 <g_188>
    db4b:	98                   	cwtl   
    db4c:	be 08 00 00 00       	mov    $0x8,%esi
    db51:	89 c7                	mov    %eax,%edi
    db53:	e8 60 83 ff ff       	callq  5eb8 <safe_add_func_uint32_t_u_u>
    db58:	66 89 05 a9 b7 00 00 	mov    %ax,0xb7a9(%rip)        # 19308 <g_188>
    db5f:	0f b7 05 a2 b7 00 00 	movzwl 0xb7a2(%rip),%eax        # 19308 <g_188>
    db66:	66 83 f8 01          	cmp    $0x1,%ax
    db6a:	0f 85 56 fd ff ff    	jne    d8c6 <func_21+0x9f1>
    db70:	0f b6 45 c2          	movzbl -0x3e(%rbp),%eax
    db74:	83 c0 01             	add    $0x1,%eax
    db77:	88 45 c2             	mov    %al,-0x3e(%rbp)
    db7a:	0f be 95 3c f4 ff ff 	movsbl -0xbc4(%rbp),%edx
    db81:	48 8b 85 38 f5 ff ff 	mov    -0xac8(%rbp),%rax
    db88:	89 10                	mov    %edx,(%rax)
    db8a:	0f b6 05 79 b7 00 00 	movzbl 0xb779(%rip),%eax        # 1930a <g_228>
    db91:	83 e8 01             	sub    $0x1,%eax
    db94:	88 05 70 b7 00 00    	mov    %al,0xb770(%rip)        # 1930a <g_228>
    db9a:	0f b6 05 69 b7 00 00 	movzbl 0xb769(%rip),%eax        # 1930a <g_228>
    dba1:	3c fa                	cmp    $0xfa,%al
    dba3:	0f 85 f3 f5 ff ff    	jne    d19c <func_21+0x2c7>
    dba9:	83 85 84 f4 ff ff 01 	addl   $0x1,-0xb7c(%rbp)
    dbb0:	8b 05 42 b7 00 00    	mov    0xb742(%rip),%eax        # 192f8 <g_103>
    dbb6:	83 e8 01             	sub    $0x1,%eax
    dbb9:	89 05 39 b7 00 00    	mov    %eax,0xb739(%rip)        # 192f8 <g_103>
    dbbf:	8b 05 33 b7 00 00    	mov    0xb733(%rip),%eax        # 192f8 <g_103>
    dbc5:	83 f8 03             	cmp    $0x3,%eax
    dbc8:	0f 87 8d f4 ff ff    	ja     d05b <func_21+0x186>
    dbce:	90                   	nop
    dbcf:	48 8b 85 c0 f4 ff ff 	mov    -0xb40(%rbp),%rax
    dbd6:	41 89 c6             	mov    %eax,%r14d
    dbd9:	44 0f be a5 3c f4 ff 	movsbl -0xbc4(%rbp),%r12d
    dbe0:	ff 
    dbe1:	48 8b 85 b0 f4 ff ff 	mov    -0xb50(%rbp),%rax
    dbe8:	8b 18                	mov    (%rax),%ebx
    dbea:	44 8b 2d 43 b6 00 00 	mov    0xb643(%rip),%r13d        # 19234 <g_17+0x154>
    dbf1:	8b 05 91 e4 00 00    	mov    0xe491(%rip),%eax        # 1c088 <g_62>
    dbf7:	98                   	cwtl   
    dbf8:	89 c7                	mov    %eax,%edi
    dbfa:	e8 9e 77 ff ff       	callq  539d <safe_unary_minus_func_int16_t_s>
    dbff:	98                   	cwtl   
    dc00:	41 39 c5             	cmp    %eax,%r13d
    dc03:	0f 97 c0             	seta   %al
    dc06:	0f b6 c0             	movzbl %al,%eax
    dc09:	89 de                	mov    %ebx,%esi
    dc0b:	89 c7                	mov    %eax,%edi
    dc0d:	e8 ed 7a ff ff       	callq  56ff <safe_div_func_int32_t_s_s>
    dc12:	89 c2                	mov    %eax,%edx
    dc14:	48 8b 85 b8 f4 ff ff 	mov    -0xb48(%rbp),%rax
    dc1b:	66 89 10             	mov    %dx,(%rax)
    dc1e:	48 8b 85 b8 f4 ff ff 	mov    -0xb48(%rbp),%rax
    dc25:	0f b7 00             	movzwl (%rax),%eax
    dc28:	0f b7 c0             	movzwl %ax,%eax
    dc2b:	89 c6                	mov    %eax,%esi
    dc2d:	bf 40 4b 00 00       	mov    $0x4b40,%edi
    dc32:	e8 06 81 ff ff       	callq  5d3d <safe_mul_func_uint16_t_u_u>
    dc37:	0f b7 c0             	movzwl %ax,%eax
    dc3a:	41 39 c4             	cmp    %eax,%r12d
    dc3d:	0f 9e c0             	setle  %al
    dc40:	0f b6 d8             	movzbl %al,%ebx
    dc43:	b8 07 00 00 00       	mov    $0x7,%eax
    dc48:	89 c2                	mov    %eax,%edx
    dc4a:	80 bd 3c f4 ff ff ff 	cmpb   $0xff,-0xbc4(%rbp)
    dc51:	75 0a                	jne    dc5d <func_21+0xd88>
    dc53:	8b 05 9b b6 00 00    	mov    0xb69b(%rip),%eax        # 192f4 <g_79+0x14>
    dc59:	85 c0                	test   %eax,%eax
    dc5b:	74 07                	je     dc64 <func_21+0xd8f>
    dc5d:	b8 01 00 00 00       	mov    $0x1,%eax
    dc62:	eb 05                	jmp    dc69 <func_21+0xd94>
    dc64:	b8 00 00 00 00       	mov    $0x0,%eax
    dc69:	48 98                	cltq   
    dc6b:	48 89 d6             	mov    %rdx,%rsi
    dc6e:	48 89 c7             	mov    %rax,%rdi
    dc71:	e8 d5 83 ff ff       	callq  604b <safe_sub_func_uint64_t_u_u>
    dc76:	48 0f be 95 3c f4 ff 	movsbq -0xbc4(%rbp),%rdx
    dc7d:	ff 
    dc7e:	48 39 d0             	cmp    %rdx,%rax
    dc81:	0f 94 c0             	sete   %al
    dc84:	0f b6 c0             	movzbl %al,%eax
    dc87:	39 c3                	cmp    %eax,%ebx
    dc89:	0f 9f c0             	setg   %al
    dc8c:	0f b6 c0             	movzbl %al,%eax
    dc8f:	44 89 f6             	mov    %r14d,%esi
    dc92:	89 c7                	mov    %eax,%edi
    dc94:	e8 66 7a ff ff       	callq  56ff <safe_div_func_int32_t_s_s>
    dc99:	3d 5b 15 fc 6a       	cmp    $0x6afc155b,%eax
    dc9e:	0f 9f c0             	setg   %al
    dca1:	0f b6 d0             	movzbl %al,%edx
    dca4:	48 8b 85 c8 f4 ff ff 	mov    -0xb38(%rbp),%rax
    dcab:	8b 00                	mov    (%rax),%eax
    dcad:	09 c2                	or     %eax,%edx
    dcaf:	48 8b 85 c8 f4 ff ff 	mov    -0xb38(%rbp),%rax
    dcb6:	89 10                	mov    %edx,(%rax)
    dcb8:	c7 85 5c f4 ff ff 01 	movl   $0x1,-0xba4(%rbp)
    dcbf:	00 00 00 
    dcc2:	e9 23 0f 00 00       	jmpq   ebea <func_21+0x1d15>
    dcc7:	48 8d 05 36 b6 00 00 	lea    0xb636(%rip),%rax        # 19304 <g_144>
    dcce:	48 89 85 90 f5 ff ff 	mov    %rax,-0xa70(%rbp)
    dcd5:	48 8d 05 24 d7 00 00 	lea    0xd724(%rip),%rax        # 1b400 <g_59>
    dcdc:	48 89 85 98 f5 ff ff 	mov    %rax,-0xa68(%rbp)
    dce3:	48 8d 05 20 b6 00 00 	lea    0xb620(%rip),%rax        # 1930a <g_228>
    dcea:	48 89 85 98 f4 ff ff 	mov    %rax,-0xb68(%rbp)
    dcf1:	48 c7 85 a0 f5 ff ff 	movq   $0x0,-0xa60(%rbp)
    dcf8:	00 00 00 00 
    dcfc:	48 8d 85 50 f4 ff ff 	lea    -0xbb0(%rbp),%rax
    dd03:	48 89 85 a8 f5 ff ff 	mov    %rax,-0xa58(%rbp)
    dd0a:	c7 85 90 f4 ff ff ff 	movl   $0xffffffff,-0xb70(%rbp)
    dd11:	ff ff ff 
    dd14:	48 8d 05 6d e3 00 00 	lea    0xe36d(%rip),%rax        # 1c088 <g_62>
    dd1b:	48 89 85 b0 f5 ff ff 	mov    %rax,-0xa50(%rbp)
    dd22:	48 8d 85 f4 f5 ff ff 	lea    -0xa0c(%rbp),%rax
    dd29:	48 83 c0 04          	add    $0x4,%rax
    dd2d:	48 89 85 b8 f5 ff ff 	mov    %rax,-0xa48(%rbp)
    dd34:	c6 85 4b f4 ff ff 00 	movb   $0x0,-0xbb5(%rbp)
    dd3b:	48 c7 85 a0 f4 ff ff 	movq   $0x0,-0xb60(%rbp)
    dd42:	00 00 00 00 
    dd46:	48 8d 85 a0 f4 ff ff 	lea    -0xb60(%rbp),%rax
    dd4d:	48 89 85 10 fa ff ff 	mov    %rax,-0x5f0(%rbp)
    dd54:	48 8d 85 a0 f4 ff ff 	lea    -0xb60(%rbp),%rax
    dd5b:	48 89 85 18 fa ff ff 	mov    %rax,-0x5e8(%rbp)
    dd62:	48 8d 85 a0 f4 ff ff 	lea    -0xb60(%rbp),%rax
    dd69:	48 89 85 20 fa ff ff 	mov    %rax,-0x5e0(%rbp)
    dd70:	48 8d 85 a0 f4 ff ff 	lea    -0xb60(%rbp),%rax
    dd77:	48 89 85 28 fa ff ff 	mov    %rax,-0x5d8(%rbp)
    dd7e:	48 8d 85 a0 f4 ff ff 	lea    -0xb60(%rbp),%rax
    dd85:	48 89 85 30 fa ff ff 	mov    %rax,-0x5d0(%rbp)
    dd8c:	48 8d 85 a0 f4 ff ff 	lea    -0xb60(%rbp),%rax
    dd93:	48 89 85 38 fa ff ff 	mov    %rax,-0x5c8(%rbp)
    dd9a:	48 8d 85 a0 f4 ff ff 	lea    -0xb60(%rbp),%rax
    dda1:	48 89 85 40 fa ff ff 	mov    %rax,-0x5c0(%rbp)
    dda8:	48 8d 85 a0 f4 ff ff 	lea    -0xb60(%rbp),%rax
    ddaf:	48 89 85 48 fa ff ff 	mov    %rax,-0x5b8(%rbp)
    ddb6:	48 8d 85 a0 f4 ff ff 	lea    -0xb60(%rbp),%rax
    ddbd:	48 89 85 50 fa ff ff 	mov    %rax,-0x5b0(%rbp)
    ddc4:	48 8d 85 a0 f4 ff ff 	lea    -0xb60(%rbp),%rax
    ddcb:	48 89 85 58 fa ff ff 	mov    %rax,-0x5a8(%rbp)
    ddd2:	48 8d 85 a0 f4 ff ff 	lea    -0xb60(%rbp),%rax
    ddd9:	48 89 85 60 fa ff ff 	mov    %rax,-0x5a0(%rbp)
    dde0:	48 8d 85 a0 f4 ff ff 	lea    -0xb60(%rbp),%rax
    dde7:	48 89 85 68 fa ff ff 	mov    %rax,-0x598(%rbp)
    ddee:	48 8d 85 a0 f4 ff ff 	lea    -0xb60(%rbp),%rax
    ddf5:	48 89 85 70 fa ff ff 	mov    %rax,-0x590(%rbp)
    ddfc:	48 8d 85 a0 f4 ff ff 	lea    -0xb60(%rbp),%rax
    de03:	48 89 85 78 fa ff ff 	mov    %rax,-0x588(%rbp)
    de0a:	48 8d 85 a0 f4 ff ff 	lea    -0xb60(%rbp),%rax
    de11:	48 89 85 80 fa ff ff 	mov    %rax,-0x580(%rbp)
    de18:	48 8d 85 a0 f4 ff ff 	lea    -0xb60(%rbp),%rax
    de1f:	48 89 85 88 fa ff ff 	mov    %rax,-0x578(%rbp)
    de26:	48 8d 85 a0 f4 ff ff 	lea    -0xb60(%rbp),%rax
    de2d:	48 89 85 90 fa ff ff 	mov    %rax,-0x570(%rbp)
    de34:	48 8d 85 a0 f4 ff ff 	lea    -0xb60(%rbp),%rax
    de3b:	48 89 85 98 fa ff ff 	mov    %rax,-0x568(%rbp)
    de42:	48 8d 85 a0 f4 ff ff 	lea    -0xb60(%rbp),%rax
    de49:	48 89 85 a0 fa ff ff 	mov    %rax,-0x560(%rbp)
    de50:	48 8d 85 a0 f4 ff ff 	lea    -0xb60(%rbp),%rax
    de57:	48 89 85 a8 fa ff ff 	mov    %rax,-0x558(%rbp)
    de5e:	48 8d 85 a0 f4 ff ff 	lea    -0xb60(%rbp),%rax
    de65:	48 89 85 b0 fa ff ff 	mov    %rax,-0x550(%rbp)
    de6c:	48 8d 85 a0 f4 ff ff 	lea    -0xb60(%rbp),%rax
    de73:	48 89 85 b8 fa ff ff 	mov    %rax,-0x548(%rbp)
    de7a:	48 8d 85 a0 f4 ff ff 	lea    -0xb60(%rbp),%rax
    de81:	48 89 85 c0 fa ff ff 	mov    %rax,-0x540(%rbp)
    de88:	48 8d 85 a0 f4 ff ff 	lea    -0xb60(%rbp),%rax
    de8f:	48 89 85 c8 fa ff ff 	mov    %rax,-0x538(%rbp)
    de96:	48 8d 85 a0 f4 ff ff 	lea    -0xb60(%rbp),%rax
    de9d:	48 89 85 d0 fa ff ff 	mov    %rax,-0x530(%rbp)
    dea4:	48 8d 85 a0 f4 ff ff 	lea    -0xb60(%rbp),%rax
    deab:	48 89 85 d8 fa ff ff 	mov    %rax,-0x528(%rbp)
    deb2:	48 8d 85 a0 f4 ff ff 	lea    -0xb60(%rbp),%rax
    deb9:	48 89 85 e0 fa ff ff 	mov    %rax,-0x520(%rbp)
    dec0:	48 8d 85 a0 f4 ff ff 	lea    -0xb60(%rbp),%rax
    dec7:	48 89 85 e8 fa ff ff 	mov    %rax,-0x518(%rbp)
    dece:	48 8d 85 a0 f4 ff ff 	lea    -0xb60(%rbp),%rax
    ded5:	48 89 85 f0 fa ff ff 	mov    %rax,-0x510(%rbp)
    dedc:	48 8d 85 a0 f4 ff ff 	lea    -0xb60(%rbp),%rax
    dee3:	48 89 85 f8 fa ff ff 	mov    %rax,-0x508(%rbp)
    deea:	48 8d 85 a0 f4 ff ff 	lea    -0xb60(%rbp),%rax
    def1:	48 89 85 00 fb ff ff 	mov    %rax,-0x500(%rbp)
    def8:	48 8d 85 a0 f4 ff ff 	lea    -0xb60(%rbp),%rax
    deff:	48 89 85 08 fb ff ff 	mov    %rax,-0x4f8(%rbp)
    df06:	48 8d 85 a0 f4 ff ff 	lea    -0xb60(%rbp),%rax
    df0d:	48 89 85 10 fb ff ff 	mov    %rax,-0x4f0(%rbp)
    df14:	48 8d 85 a0 f4 ff ff 	lea    -0xb60(%rbp),%rax
    df1b:	48 89 85 18 fb ff ff 	mov    %rax,-0x4e8(%rbp)
    df22:	48 8d 85 a0 f4 ff ff 	lea    -0xb60(%rbp),%rax
    df29:	48 89 85 20 fb ff ff 	mov    %rax,-0x4e0(%rbp)
    df30:	48 8d 85 a0 f4 ff ff 	lea    -0xb60(%rbp),%rax
    df37:	48 89 85 28 fb ff ff 	mov    %rax,-0x4d8(%rbp)
    df3e:	48 8d 85 a0 f4 ff ff 	lea    -0xb60(%rbp),%rax
    df45:	48 89 85 30 fb ff ff 	mov    %rax,-0x4d0(%rbp)
    df4c:	48 8d 85 a0 f4 ff ff 	lea    -0xb60(%rbp),%rax
    df53:	48 89 85 38 fb ff ff 	mov    %rax,-0x4c8(%rbp)
    df5a:	48 8d 85 a0 f4 ff ff 	lea    -0xb60(%rbp),%rax
    df61:	48 89 85 40 fb ff ff 	mov    %rax,-0x4c0(%rbp)
    df68:	48 8d 85 a0 f4 ff ff 	lea    -0xb60(%rbp),%rax
    df6f:	48 89 85 48 fb ff ff 	mov    %rax,-0x4b8(%rbp)
    df76:	48 8d 85 a0 f4 ff ff 	lea    -0xb60(%rbp),%rax
    df7d:	48 89 85 50 fb ff ff 	mov    %rax,-0x4b0(%rbp)
    df84:	48 8d 85 a0 f4 ff ff 	lea    -0xb60(%rbp),%rax
    df8b:	48 89 85 58 fb ff ff 	mov    %rax,-0x4a8(%rbp)
    df92:	48 8d 85 a0 f4 ff ff 	lea    -0xb60(%rbp),%rax
    df99:	48 89 85 60 fb ff ff 	mov    %rax,-0x4a0(%rbp)
    dfa0:	48 8d 85 a0 f4 ff ff 	lea    -0xb60(%rbp),%rax
    dfa7:	48 89 85 68 fb ff ff 	mov    %rax,-0x498(%rbp)
    dfae:	48 8d 85 a0 f4 ff ff 	lea    -0xb60(%rbp),%rax
    dfb5:	48 89 85 70 fb ff ff 	mov    %rax,-0x490(%rbp)
    dfbc:	48 8d 85 a0 f4 ff ff 	lea    -0xb60(%rbp),%rax
    dfc3:	48 89 85 78 fb ff ff 	mov    %rax,-0x488(%rbp)
    dfca:	48 8d 85 a0 f4 ff ff 	lea    -0xb60(%rbp),%rax
    dfd1:	48 89 85 80 fb ff ff 	mov    %rax,-0x480(%rbp)
    dfd8:	48 8d 85 a0 f4 ff ff 	lea    -0xb60(%rbp),%rax
    dfdf:	48 89 85 88 fb ff ff 	mov    %rax,-0x478(%rbp)
    dfe6:	48 8d 85 a0 f4 ff ff 	lea    -0xb60(%rbp),%rax
    dfed:	48 89 85 90 fb ff ff 	mov    %rax,-0x470(%rbp)
    dff4:	48 8d 85 a0 f4 ff ff 	lea    -0xb60(%rbp),%rax
    dffb:	48 89 85 98 fb ff ff 	mov    %rax,-0x468(%rbp)
    e002:	48 8d 85 a0 f4 ff ff 	lea    -0xb60(%rbp),%rax
    e009:	48 89 85 a0 fb ff ff 	mov    %rax,-0x460(%rbp)
    e010:	48 8d 85 a0 f4 ff ff 	lea    -0xb60(%rbp),%rax
    e017:	48 89 85 a8 fb ff ff 	mov    %rax,-0x458(%rbp)
    e01e:	48 8d 85 a0 f4 ff ff 	lea    -0xb60(%rbp),%rax
    e025:	48 89 85 b0 fb ff ff 	mov    %rax,-0x450(%rbp)
    e02c:	48 8d 85 a0 f4 ff ff 	lea    -0xb60(%rbp),%rax
    e033:	48 89 85 b8 fb ff ff 	mov    %rax,-0x448(%rbp)
    e03a:	48 8d 85 a0 f4 ff ff 	lea    -0xb60(%rbp),%rax
    e041:	48 89 85 c0 fb ff ff 	mov    %rax,-0x440(%rbp)
    e048:	48 8d 85 a0 f4 ff ff 	lea    -0xb60(%rbp),%rax
    e04f:	48 89 85 c8 fb ff ff 	mov    %rax,-0x438(%rbp)
    e056:	48 8d 85 a0 f4 ff ff 	lea    -0xb60(%rbp),%rax
    e05d:	48 89 85 d0 fb ff ff 	mov    %rax,-0x430(%rbp)
    e064:	48 8d 85 a0 f4 ff ff 	lea    -0xb60(%rbp),%rax
    e06b:	48 89 85 d8 fb ff ff 	mov    %rax,-0x428(%rbp)
    e072:	48 8d 85 a0 f4 ff ff 	lea    -0xb60(%rbp),%rax
    e079:	48 89 85 e0 fb ff ff 	mov    %rax,-0x420(%rbp)
    e080:	48 8d 85 a0 f4 ff ff 	lea    -0xb60(%rbp),%rax
    e087:	48 89 85 e8 fb ff ff 	mov    %rax,-0x418(%rbp)
    e08e:	48 8d 85 a0 f4 ff ff 	lea    -0xb60(%rbp),%rax
    e095:	48 89 85 f0 fb ff ff 	mov    %rax,-0x410(%rbp)
    e09c:	48 8d 85 a0 f4 ff ff 	lea    -0xb60(%rbp),%rax
    e0a3:	48 89 85 f8 fb ff ff 	mov    %rax,-0x408(%rbp)
    e0aa:	48 8d 85 a0 f4 ff ff 	lea    -0xb60(%rbp),%rax
    e0b1:	48 89 85 00 fc ff ff 	mov    %rax,-0x400(%rbp)
    e0b8:	48 8d 85 a0 f4 ff ff 	lea    -0xb60(%rbp),%rax
    e0bf:	48 89 85 08 fc ff ff 	mov    %rax,-0x3f8(%rbp)
    e0c6:	48 8d 85 a0 f4 ff ff 	lea    -0xb60(%rbp),%rax
    e0cd:	48 89 85 10 fc ff ff 	mov    %rax,-0x3f0(%rbp)
    e0d4:	48 8d 85 a0 f4 ff ff 	lea    -0xb60(%rbp),%rax
    e0db:	48 89 85 18 fc ff ff 	mov    %rax,-0x3e8(%rbp)
    e0e2:	48 8d 85 a0 f4 ff ff 	lea    -0xb60(%rbp),%rax
    e0e9:	48 89 85 20 fc ff ff 	mov    %rax,-0x3e0(%rbp)
    e0f0:	48 8d 85 a0 f4 ff ff 	lea    -0xb60(%rbp),%rax
    e0f7:	48 89 85 28 fc ff ff 	mov    %rax,-0x3d8(%rbp)
    e0fe:	48 8d 85 a0 f4 ff ff 	lea    -0xb60(%rbp),%rax
    e105:	48 89 85 30 fc ff ff 	mov    %rax,-0x3d0(%rbp)
    e10c:	48 8d 85 a0 f4 ff ff 	lea    -0xb60(%rbp),%rax
    e113:	48 89 85 38 fc ff ff 	mov    %rax,-0x3c8(%rbp)
    e11a:	48 8d 85 a0 f4 ff ff 	lea    -0xb60(%rbp),%rax
    e121:	48 89 85 40 fc ff ff 	mov    %rax,-0x3c0(%rbp)
    e128:	48 8d 85 a0 f4 ff ff 	lea    -0xb60(%rbp),%rax
    e12f:	48 89 85 48 fc ff ff 	mov    %rax,-0x3b8(%rbp)
    e136:	48 8d 85 a0 f4 ff ff 	lea    -0xb60(%rbp),%rax
    e13d:	48 89 85 50 fc ff ff 	mov    %rax,-0x3b0(%rbp)
    e144:	48 8d 85 a0 f4 ff ff 	lea    -0xb60(%rbp),%rax
    e14b:	48 89 85 58 fc ff ff 	mov    %rax,-0x3a8(%rbp)
    e152:	48 8d 85 a0 f4 ff ff 	lea    -0xb60(%rbp),%rax
    e159:	48 89 85 60 fc ff ff 	mov    %rax,-0x3a0(%rbp)
    e160:	48 8d 85 a0 f4 ff ff 	lea    -0xb60(%rbp),%rax
    e167:	48 89 85 68 fc ff ff 	mov    %rax,-0x398(%rbp)
    e16e:	48 8d 85 a0 f4 ff ff 	lea    -0xb60(%rbp),%rax
    e175:	48 89 85 70 fc ff ff 	mov    %rax,-0x390(%rbp)
    e17c:	48 8d 85 a0 f4 ff ff 	lea    -0xb60(%rbp),%rax
    e183:	48 89 85 78 fc ff ff 	mov    %rax,-0x388(%rbp)
    e18a:	48 8d 85 a0 f4 ff ff 	lea    -0xb60(%rbp),%rax
    e191:	48 89 85 80 fc ff ff 	mov    %rax,-0x380(%rbp)
    e198:	48 8d 85 a0 f4 ff ff 	lea    -0xb60(%rbp),%rax
    e19f:	48 89 85 88 fc ff ff 	mov    %rax,-0x378(%rbp)
    e1a6:	48 8d 85 a0 f4 ff ff 	lea    -0xb60(%rbp),%rax
    e1ad:	48 89 85 90 fc ff ff 	mov    %rax,-0x370(%rbp)
    e1b4:	48 8d 85 a0 f4 ff ff 	lea    -0xb60(%rbp),%rax
    e1bb:	48 89 85 98 fc ff ff 	mov    %rax,-0x368(%rbp)
    e1c2:	48 8d 85 a0 f4 ff ff 	lea    -0xb60(%rbp),%rax
    e1c9:	48 89 85 a0 fc ff ff 	mov    %rax,-0x360(%rbp)
    e1d0:	48 8d 85 a0 f4 ff ff 	lea    -0xb60(%rbp),%rax
    e1d7:	48 89 85 a8 fc ff ff 	mov    %rax,-0x358(%rbp)
    e1de:	48 8d 85 a0 f4 ff ff 	lea    -0xb60(%rbp),%rax
    e1e5:	48 89 85 b0 fc ff ff 	mov    %rax,-0x350(%rbp)
    e1ec:	48 8d 85 a0 f4 ff ff 	lea    -0xb60(%rbp),%rax
    e1f3:	48 89 85 b8 fc ff ff 	mov    %rax,-0x348(%rbp)
    e1fa:	48 8d 85 a0 f4 ff ff 	lea    -0xb60(%rbp),%rax
    e201:	48 89 85 c0 fc ff ff 	mov    %rax,-0x340(%rbp)
    e208:	48 8d 85 a0 f4 ff ff 	lea    -0xb60(%rbp),%rax
    e20f:	48 89 85 c8 fc ff ff 	mov    %rax,-0x338(%rbp)
    e216:	48 8d 85 a0 f4 ff ff 	lea    -0xb60(%rbp),%rax
    e21d:	48 89 85 d0 fc ff ff 	mov    %rax,-0x330(%rbp)
    e224:	48 8d 85 a0 f4 ff ff 	lea    -0xb60(%rbp),%rax
    e22b:	48 89 85 d8 fc ff ff 	mov    %rax,-0x328(%rbp)
    e232:	48 8d 85 a0 f4 ff ff 	lea    -0xb60(%rbp),%rax
    e239:	48 89 85 e0 fc ff ff 	mov    %rax,-0x320(%rbp)
    e240:	48 8d 85 a0 f4 ff ff 	lea    -0xb60(%rbp),%rax
    e247:	48 89 85 e8 fc ff ff 	mov    %rax,-0x318(%rbp)
    e24e:	48 8d 85 a0 f4 ff ff 	lea    -0xb60(%rbp),%rax
    e255:	48 89 85 f0 fc ff ff 	mov    %rax,-0x310(%rbp)
    e25c:	48 8d 85 a0 f4 ff ff 	lea    -0xb60(%rbp),%rax
    e263:	48 89 85 f8 fc ff ff 	mov    %rax,-0x308(%rbp)
    e26a:	48 8d 85 a0 f4 ff ff 	lea    -0xb60(%rbp),%rax
    e271:	48 89 85 00 fd ff ff 	mov    %rax,-0x300(%rbp)
    e278:	48 8d 85 a0 f4 ff ff 	lea    -0xb60(%rbp),%rax
    e27f:	48 89 85 08 fd ff ff 	mov    %rax,-0x2f8(%rbp)
    e286:	48 8d 85 a0 f4 ff ff 	lea    -0xb60(%rbp),%rax
    e28d:	48 89 85 10 fd ff ff 	mov    %rax,-0x2f0(%rbp)
    e294:	48 8d 85 a0 f4 ff ff 	lea    -0xb60(%rbp),%rax
    e29b:	48 89 85 18 fd ff ff 	mov    %rax,-0x2e8(%rbp)
    e2a2:	48 8d 85 a0 f4 ff ff 	lea    -0xb60(%rbp),%rax
    e2a9:	48 89 85 20 fd ff ff 	mov    %rax,-0x2e0(%rbp)
    e2b0:	48 8d 85 a0 f4 ff ff 	lea    -0xb60(%rbp),%rax
    e2b7:	48 89 85 28 fd ff ff 	mov    %rax,-0x2d8(%rbp)
    e2be:	48 8d 85 a0 f4 ff ff 	lea    -0xb60(%rbp),%rax
    e2c5:	48 89 85 30 fd ff ff 	mov    %rax,-0x2d0(%rbp)
    e2cc:	48 8d 85 a0 f4 ff ff 	lea    -0xb60(%rbp),%rax
    e2d3:	48 89 85 38 fd ff ff 	mov    %rax,-0x2c8(%rbp)
    e2da:	48 8d 85 a0 f4 ff ff 	lea    -0xb60(%rbp),%rax
    e2e1:	48 89 85 40 fd ff ff 	mov    %rax,-0x2c0(%rbp)
    e2e8:	48 8d 85 a0 f4 ff ff 	lea    -0xb60(%rbp),%rax
    e2ef:	48 89 85 48 fd ff ff 	mov    %rax,-0x2b8(%rbp)
    e2f6:	48 8d 85 a0 f4 ff ff 	lea    -0xb60(%rbp),%rax
    e2fd:	48 89 85 50 fd ff ff 	mov    %rax,-0x2b0(%rbp)
    e304:	48 8d 85 a0 f4 ff ff 	lea    -0xb60(%rbp),%rax
    e30b:	48 89 85 58 fd ff ff 	mov    %rax,-0x2a8(%rbp)
    e312:	48 8d 85 a0 f4 ff ff 	lea    -0xb60(%rbp),%rax
    e319:	48 89 85 60 fd ff ff 	mov    %rax,-0x2a0(%rbp)
    e320:	48 8d 85 a0 f4 ff ff 	lea    -0xb60(%rbp),%rax
    e327:	48 89 85 68 fd ff ff 	mov    %rax,-0x298(%rbp)
    e32e:	48 8d 85 a0 f4 ff ff 	lea    -0xb60(%rbp),%rax
    e335:	48 89 85 70 fd ff ff 	mov    %rax,-0x290(%rbp)
    e33c:	48 8d 85 a0 f4 ff ff 	lea    -0xb60(%rbp),%rax
    e343:	48 89 85 78 fd ff ff 	mov    %rax,-0x288(%rbp)
    e34a:	48 8d 85 a0 f4 ff ff 	lea    -0xb60(%rbp),%rax
    e351:	48 89 85 80 fd ff ff 	mov    %rax,-0x280(%rbp)
    e358:	48 8d 85 a0 f4 ff ff 	lea    -0xb60(%rbp),%rax
    e35f:	48 89 85 88 fd ff ff 	mov    %rax,-0x278(%rbp)
    e366:	48 8d 85 a0 f4 ff ff 	lea    -0xb60(%rbp),%rax
    e36d:	48 89 85 90 fd ff ff 	mov    %rax,-0x270(%rbp)
    e374:	48 8d 85 a0 f4 ff ff 	lea    -0xb60(%rbp),%rax
    e37b:	48 89 85 98 fd ff ff 	mov    %rax,-0x268(%rbp)
    e382:	48 8d 85 a0 f4 ff ff 	lea    -0xb60(%rbp),%rax
    e389:	48 89 85 a0 fd ff ff 	mov    %rax,-0x260(%rbp)
    e390:	48 c7 85 a8 fd ff ff 	movq   $0x0,-0x258(%rbp)
    e397:	00 00 00 00 
    e39b:	48 8d 85 a0 f4 ff ff 	lea    -0xb60(%rbp),%rax
    e3a2:	48 89 85 b0 fd ff ff 	mov    %rax,-0x250(%rbp)
    e3a9:	48 8d 85 a0 f4 ff ff 	lea    -0xb60(%rbp),%rax
    e3b0:	48 89 85 b8 fd ff ff 	mov    %rax,-0x248(%rbp)
    e3b7:	48 c7 85 c0 fd ff ff 	movq   $0x0,-0x240(%rbp)
    e3be:	00 00 00 00 
    e3c2:	48 8d 85 a0 f4 ff ff 	lea    -0xb60(%rbp),%rax
    e3c9:	48 89 85 c8 fd ff ff 	mov    %rax,-0x238(%rbp)
    e3d0:	48 8d 85 a0 f4 ff ff 	lea    -0xb60(%rbp),%rax
    e3d7:	48 89 85 d0 fd ff ff 	mov    %rax,-0x230(%rbp)
    e3de:	48 c7 85 d8 fd ff ff 	movq   $0x0,-0x228(%rbp)
    e3e5:	00 00 00 00 
    e3e9:	48 8d 85 a0 f4 ff ff 	lea    -0xb60(%rbp),%rax
    e3f0:	48 89 85 e0 fd ff ff 	mov    %rax,-0x220(%rbp)
    e3f7:	48 8d 85 a0 f4 ff ff 	lea    -0xb60(%rbp),%rax
    e3fe:	48 89 85 e8 fd ff ff 	mov    %rax,-0x218(%rbp)
    e405:	48 8d 85 a0 f4 ff ff 	lea    -0xb60(%rbp),%rax
    e40c:	48 89 85 f0 fd ff ff 	mov    %rax,-0x210(%rbp)
    e413:	48 8d 85 a0 f4 ff ff 	lea    -0xb60(%rbp),%rax
    e41a:	48 89 85 f8 fd ff ff 	mov    %rax,-0x208(%rbp)
    e421:	48 8d 85 a0 f4 ff ff 	lea    -0xb60(%rbp),%rax
    e428:	48 89 85 00 fe ff ff 	mov    %rax,-0x200(%rbp)
    e42f:	48 8d 85 a0 f4 ff ff 	lea    -0xb60(%rbp),%rax
    e436:	48 89 85 08 fe ff ff 	mov    %rax,-0x1f8(%rbp)
    e43d:	48 8d 85 a0 f4 ff ff 	lea    -0xb60(%rbp),%rax
    e444:	48 89 85 10 fe ff ff 	mov    %rax,-0x1f0(%rbp)
    e44b:	48 8d 85 a0 f4 ff ff 	lea    -0xb60(%rbp),%rax
    e452:	48 89 85 18 fe ff ff 	mov    %rax,-0x1e8(%rbp)
    e459:	48 8d 85 a0 f4 ff ff 	lea    -0xb60(%rbp),%rax
    e460:	48 89 85 20 fe ff ff 	mov    %rax,-0x1e0(%rbp)
    e467:	48 8d 85 a0 f4 ff ff 	lea    -0xb60(%rbp),%rax
    e46e:	48 89 85 28 fe ff ff 	mov    %rax,-0x1d8(%rbp)
    e475:	48 8d 85 a0 f4 ff ff 	lea    -0xb60(%rbp),%rax
    e47c:	48 89 85 30 fe ff ff 	mov    %rax,-0x1d0(%rbp)
    e483:	48 8d 85 a0 f4 ff ff 	lea    -0xb60(%rbp),%rax
    e48a:	48 89 85 38 fe ff ff 	mov    %rax,-0x1c8(%rbp)
    e491:	48 8d 85 a0 f4 ff ff 	lea    -0xb60(%rbp),%rax
    e498:	48 89 85 40 fe ff ff 	mov    %rax,-0x1c0(%rbp)
    e49f:	48 8d 85 a0 f4 ff ff 	lea    -0xb60(%rbp),%rax
    e4a6:	48 89 85 48 fe ff ff 	mov    %rax,-0x1b8(%rbp)
    e4ad:	48 8d 85 a0 f4 ff ff 	lea    -0xb60(%rbp),%rax
    e4b4:	48 89 85 50 fe ff ff 	mov    %rax,-0x1b0(%rbp)
    e4bb:	48 8d 85 a0 f4 ff ff 	lea    -0xb60(%rbp),%rax
    e4c2:	48 89 85 58 fe ff ff 	mov    %rax,-0x1a8(%rbp)
    e4c9:	48 8d 85 a0 f4 ff ff 	lea    -0xb60(%rbp),%rax
    e4d0:	48 89 85 60 fe ff ff 	mov    %rax,-0x1a0(%rbp)
    e4d7:	48 8d 85 a0 f4 ff ff 	lea    -0xb60(%rbp),%rax
    e4de:	48 89 85 68 fe ff ff 	mov    %rax,-0x198(%rbp)
    e4e5:	48 8d 85 a0 f4 ff ff 	lea    -0xb60(%rbp),%rax
    e4ec:	48 89 85 70 fe ff ff 	mov    %rax,-0x190(%rbp)
    e4f3:	48 8d 85 a0 f4 ff ff 	lea    -0xb60(%rbp),%rax
    e4fa:	48 89 85 78 fe ff ff 	mov    %rax,-0x188(%rbp)
    e501:	48 8d 85 a0 f4 ff ff 	lea    -0xb60(%rbp),%rax
    e508:	48 89 85 80 fe ff ff 	mov    %rax,-0x180(%rbp)
    e50f:	48 8d 85 a0 f4 ff ff 	lea    -0xb60(%rbp),%rax
    e516:	48 89 85 88 fe ff ff 	mov    %rax,-0x178(%rbp)
    e51d:	48 8d 85 a0 f4 ff ff 	lea    -0xb60(%rbp),%rax
    e524:	48 89 85 90 fe ff ff 	mov    %rax,-0x170(%rbp)
    e52b:	48 c7 85 98 fe ff ff 	movq   $0x0,-0x168(%rbp)
    e532:	00 00 00 00 
    e536:	48 8d 85 a0 f4 ff ff 	lea    -0xb60(%rbp),%rax
    e53d:	48 89 85 a0 fe ff ff 	mov    %rax,-0x160(%rbp)
    e544:	48 8d 85 a0 f4 ff ff 	lea    -0xb60(%rbp),%rax
    e54b:	48 89 85 a8 fe ff ff 	mov    %rax,-0x158(%rbp)
    e552:	48 c7 85 b0 fe ff ff 	movq   $0x0,-0x150(%rbp)
    e559:	00 00 00 00 
    e55d:	48 8d 85 a0 f4 ff ff 	lea    -0xb60(%rbp),%rax
    e564:	48 89 85 b8 fe ff ff 	mov    %rax,-0x148(%rbp)
    e56b:	48 8d 85 a0 f4 ff ff 	lea    -0xb60(%rbp),%rax
    e572:	48 89 85 c0 fe ff ff 	mov    %rax,-0x140(%rbp)
    e579:	48 c7 85 c8 fe ff ff 	movq   $0x0,-0x138(%rbp)
    e580:	00 00 00 00 
    e584:	48 8d 85 a0 f4 ff ff 	lea    -0xb60(%rbp),%rax
    e58b:	48 89 85 d0 fe ff ff 	mov    %rax,-0x130(%rbp)
    e592:	48 8d 85 a0 f4 ff ff 	lea    -0xb60(%rbp),%rax
    e599:	48 89 85 d8 fe ff ff 	mov    %rax,-0x128(%rbp)
    e5a0:	48 8d 85 a0 f4 ff ff 	lea    -0xb60(%rbp),%rax
    e5a7:	48 89 85 e0 fe ff ff 	mov    %rax,-0x120(%rbp)
    e5ae:	48 8d 85 a0 f4 ff ff 	lea    -0xb60(%rbp),%rax
    e5b5:	48 89 85 e8 fe ff ff 	mov    %rax,-0x118(%rbp)
    e5bc:	48 8d 85 a0 f4 ff ff 	lea    -0xb60(%rbp),%rax
    e5c3:	48 89 85 f0 fe ff ff 	mov    %rax,-0x110(%rbp)
    e5ca:	48 8d 85 a0 f4 ff ff 	lea    -0xb60(%rbp),%rax
    e5d1:	48 89 85 f8 fe ff ff 	mov    %rax,-0x108(%rbp)
    e5d8:	48 8d 85 a0 f4 ff ff 	lea    -0xb60(%rbp),%rax
    e5df:	48 89 85 00 ff ff ff 	mov    %rax,-0x100(%rbp)
    e5e6:	48 8d 85 a0 f4 ff ff 	lea    -0xb60(%rbp),%rax
    e5ed:	48 89 85 08 ff ff ff 	mov    %rax,-0xf8(%rbp)
    e5f4:	48 8d 85 a0 f4 ff ff 	lea    -0xb60(%rbp),%rax
    e5fb:	48 89 85 10 ff ff ff 	mov    %rax,-0xf0(%rbp)
    e602:	48 8d 85 a0 f4 ff ff 	lea    -0xb60(%rbp),%rax
    e609:	48 89 85 18 ff ff ff 	mov    %rax,-0xe8(%rbp)
    e610:	48 8d 85 a0 f4 ff ff 	lea    -0xb60(%rbp),%rax
    e617:	48 89 85 20 ff ff ff 	mov    %rax,-0xe0(%rbp)
    e61e:	48 8d 85 a0 f4 ff ff 	lea    -0xb60(%rbp),%rax
    e625:	48 89 85 28 ff ff ff 	mov    %rax,-0xd8(%rbp)
    e62c:	48 8d 85 a0 f4 ff ff 	lea    -0xb60(%rbp),%rax
    e633:	48 89 85 30 ff ff ff 	mov    %rax,-0xd0(%rbp)
    e63a:	48 8d 85 a0 f4 ff ff 	lea    -0xb60(%rbp),%rax
    e641:	48 89 85 38 ff ff ff 	mov    %rax,-0xc8(%rbp)
    e648:	48 8d 85 a0 f4 ff ff 	lea    -0xb60(%rbp),%rax
    e64f:	48 89 85 40 ff ff ff 	mov    %rax,-0xc0(%rbp)
    e656:	48 8d 85 a0 f4 ff ff 	lea    -0xb60(%rbp),%rax
    e65d:	48 89 85 48 ff ff ff 	mov    %rax,-0xb8(%rbp)
    e664:	48 8d 85 a0 f4 ff ff 	lea    -0xb60(%rbp),%rax
    e66b:	48 89 85 50 ff ff ff 	mov    %rax,-0xb0(%rbp)
    e672:	48 8d 85 a0 f4 ff ff 	lea    -0xb60(%rbp),%rax
    e679:	48 89 85 58 ff ff ff 	mov    %rax,-0xa8(%rbp)
    e680:	48 8d 85 a0 f4 ff ff 	lea    -0xb60(%rbp),%rax
    e687:	48 89 85 60 ff ff ff 	mov    %rax,-0xa0(%rbp)
    e68e:	48 8d 85 a0 f4 ff ff 	lea    -0xb60(%rbp),%rax
    e695:	48 89 85 68 ff ff ff 	mov    %rax,-0x98(%rbp)
    e69c:	48 8d 85 a0 f4 ff ff 	lea    -0xb60(%rbp),%rax
    e6a3:	48 89 85 70 ff ff ff 	mov    %rax,-0x90(%rbp)
    e6aa:	48 8d 85 a0 f4 ff ff 	lea    -0xb60(%rbp),%rax
    e6b1:	48 89 85 78 ff ff ff 	mov    %rax,-0x88(%rbp)
    e6b8:	48 8d 85 a0 f4 ff ff 	lea    -0xb60(%rbp),%rax
    e6bf:	48 89 45 80          	mov    %rax,-0x80(%rbp)
    e6c3:	48 c7 45 88 00 00 00 	movq   $0x0,-0x78(%rbp)
    e6ca:	00 
    e6cb:	48 8d 85 a0 f4 ff ff 	lea    -0xb60(%rbp),%rax
    e6d2:	48 89 45 90          	mov    %rax,-0x70(%rbp)
    e6d6:	48 8d 85 a0 f4 ff ff 	lea    -0xb60(%rbp),%rax
    e6dd:	48 89 45 98          	mov    %rax,-0x68(%rbp)
    e6e1:	48 c7 45 a0 00 00 00 	movq   $0x0,-0x60(%rbp)
    e6e8:	00 
    e6e9:	48 8d 85 a0 f4 ff ff 	lea    -0xb60(%rbp),%rax
    e6f0:	48 89 45 a8          	mov    %rax,-0x58(%rbp)
    e6f4:	48 c7 85 c0 f5 ff ff 	movq   $0xfffffffffffffffb,-0xa40(%rbp)
    e6fb:	fb ff ff ff 
    e6ff:	c7 85 68 f4 ff ff 00 	movl   $0x0,-0xb98(%rbp)
    e706:	00 00 00 
    e709:	eb 1e                	jmp    e729 <func_21+0x1854>
    e70b:	8b 85 68 f4 ff ff    	mov    -0xb98(%rbp),%eax
    e711:	48 98                	cltq   
    e713:	48 8d 95 90 f4 ff ff 	lea    -0xb70(%rbp),%rdx
    e71a:	48 89 94 c5 90 f6 ff 	mov    %rdx,-0x970(%rbp,%rax,8)
    e721:	ff 
    e722:	83 85 68 f4 ff ff 01 	addl   $0x1,-0xb98(%rbp)
    e729:	83 bd 68 f4 ff ff 07 	cmpl   $0x7,-0xb98(%rbp)
    e730:	7e d9                	jle    e70b <func_21+0x1836>
    e732:	48 8b 05 df cc 00 00 	mov    0xccdf(%rip),%rax        # 1b418 <g_169>
    e739:	c6 00 01             	movb   $0x1,(%rax)
    e73c:	48 8b 85 60 f6 ff ff 	mov    -0x9a0(%rbp),%rax
    e743:	48 85 c0             	test   %rax,%rax
    e746:	0f 94 c0             	sete   %al
    e749:	0f b6 d0             	movzbl %al,%edx
    e74c:	8b 85 5c f4 ff ff    	mov    -0xba4(%rbp),%eax
    e752:	48 98                	cltq   
    e754:	48 8d 0c 85 00 00 00 	lea    0x0(,%rax,4),%rcx
    e75b:	00 
    e75c:	48 8d 05 7d ab 00 00 	lea    0xab7d(%rip),%rax        # 192e0 <g_79>
    e763:	8b 04 01             	mov    (%rcx,%rax,1),%eax
    e766:	39 c2                	cmp    %eax,%edx
    e768:	0f 93 c0             	setae  %al
    e76b:	0f b6 d0             	movzbl %al,%edx
    e76e:	48 8b 85 90 f5 ff ff 	mov    -0xa70(%rbp),%rax
    e775:	66 89 10             	mov    %dx,(%rax)
    e778:	48 8b 85 90 f5 ff ff 	mov    -0xa70(%rbp),%rax
    e77f:	0f b7 00             	movzwl (%rax),%eax
    e782:	0f be c0             	movsbl %al,%eax
    e785:	be 05 00 00 00       	mov    $0x5,%esi
    e78a:	89 c7                	mov    %eax,%edi
    e78c:	e8 10 6b ff ff       	callq  52a1 <safe_lshift_func_int8_t_s_s>
    e791:	84 c0                	test   %al,%al
    e793:	0f 9f c0             	setg   %al
    e796:	0f b6 c0             	movzbl %al,%eax
    e799:	48 be e0 b4 09 b2 56 	movabs $0x2950ea56b209b4e0,%rsi
    e7a0:	ea 50 29 
    e7a3:	48 89 c7             	mov    %rax,%rdi
    e7a6:	e8 09 72 ff ff       	callq  59b4 <safe_mod_func_int64_t_s_s>
    e7ab:	0f be c0             	movsbl %al,%eax
    e7ae:	be 00 00 00 00       	mov    $0x0,%esi
    e7b3:	89 c7                	mov    %eax,%edi
    e7b5:	e8 b2 6b ff ff       	callq  536c <safe_rshift_func_int8_t_s_u>
    e7ba:	48 8b 95 c8 f4 ff ff 	mov    -0xb38(%rbp),%rdx
    e7c1:	8b 12                	mov    (%rdx),%edx
    e7c3:	0f be c0             	movsbl %al,%eax
    e7c6:	31 c2                	xor    %eax,%edx
    e7c8:	48 8b 85 c8 f4 ff ff 	mov    -0xb38(%rbp),%rax
    e7cf:	89 10                	mov    %edx,(%rax)
    e7d1:	48 8b 05 48 ab 00 00 	mov    0xab48(%rip),%rax        # 19320 <g_472>
    e7d8:	0f b6 c0             	movzbl %al,%eax
    e7db:	be 07 00 00 00       	mov    $0x7,%esi
    e7e0:	89 c7                	mov    %eax,%edi
    e7e2:	e8 a6 74 ff ff       	callq  5c8d <safe_rshift_func_uint8_t_u_s>
    e7e7:	84 c0                	test   %al,%al
    e7e9:	0f 84 1c 01 00 00    	je     e90b <func_21+0x1a36>
    e7ef:	48 8b 05 22 cc 00 00 	mov    0xcc22(%rip),%rax        # 1b418 <g_169>
    e7f6:	44 0f b6 28          	movzbl (%rax),%r13d
    e7fa:	48 8b 85 b0 f4 ff ff 	mov    -0xb50(%rbp),%rax
    e801:	8b 00                	mov    (%rax),%eax
    e803:	0f b7 d8             	movzwl %ax,%ebx
    e806:	4c 0f be a5 3c f4 ff 	movsbq -0xbc4(%rbp),%r12
    e80d:	ff 
    e80e:	48 8b 85 c8 f4 ff ff 	mov    -0xb38(%rbp),%rax
    e815:	44 8b 30             	mov    (%rax),%r14d
    e818:	8b 85 5c f4 ff ff    	mov    -0xba4(%rbp),%eax
    e81e:	48 98                	cltq   
    e820:	48 8d 14 85 00 00 00 	lea    0x0(,%rax,4),%rdx
    e827:	00 
    e828:	48 8d 05 b1 aa 00 00 	lea    0xaab1(%rip),%rax        # 192e0 <g_79>
    e82f:	8b 04 02             	mov    (%rdx,%rax,1),%eax
    e832:	41 89 c7             	mov    %eax,%r15d
    e835:	48 8b 85 88 f4 ff ff 	mov    -0xb78(%rbp),%rax
    e83c:	48 8b 00             	mov    (%rax),%rax
    e83f:	48 39 85 98 f5 ff ff 	cmp    %rax,-0xa68(%rbp)
    e846:	74 27                	je     e86f <func_21+0x199a>
    e848:	be 08 00 00 00       	mov    $0x8,%esi
    e84d:	bf ff ff ff ff       	mov    $0xffffffff,%edi
    e852:	e8 7c 6b ff ff       	callq  53d3 <safe_sub_func_int16_t_s_s>
    e857:	0f be 95 3c f4 ff ff 	movsbl -0xbc4(%rbp),%edx
    e85e:	8b 05 24 d8 00 00    	mov    0xd824(%rip),%eax        # 1c088 <g_62>
    e864:	39 c2                	cmp    %eax,%edx
    e866:	7f 07                	jg     e86f <func_21+0x199a>
    e868:	b8 01 00 00 00       	mov    $0x1,%eax
    e86d:	eb 05                	jmp    e874 <func_21+0x199f>
    e86f:	b8 00 00 00 00       	mov    $0x0,%eax
    e874:	44 89 fe             	mov    %r15d,%esi
    e877:	89 c7                	mov    %eax,%edi
    e879:	e8 38 6d ff ff       	callq  55b6 <safe_add_func_int32_t_s_s>
    e87e:	41 39 c6             	cmp    %eax,%r14d
    e881:	0f 9c c0             	setl   %al
    e884:	0f b6 c0             	movzbl %al,%eax
    e887:	4c 89 e6             	mov    %r12,%rsi
    e88a:	48 89 c7             	mov    %rax,%rdi
    e88d:	e8 22 71 ff ff       	callq  59b4 <safe_mod_func_int64_t_s_s>
    e892:	89 c1                	mov    %eax,%ecx
    e894:	8b 85 5c f4 ff ff    	mov    -0xba4(%rbp),%eax
    e89a:	48 98                	cltq   
    e89c:	48 8d 14 85 00 00 00 	lea    0x0(,%rax,4),%rdx
    e8a3:	00 
    e8a4:	48 8d 05 35 aa 00 00 	lea    0xaa35(%rip),%rax        # 192e0 <g_79>
    e8ab:	8b 04 02             	mov    (%rdx,%rax,1),%eax
    e8ae:	21 c8                	and    %ecx,%eax
    e8b0:	0f b7 c0             	movzwl %ax,%eax
    e8b3:	89 de                	mov    %ebx,%esi
    e8b5:	89 c7                	mov    %eax,%edi
    e8b7:	e8 d2 74 ff ff       	callq  5d8e <safe_div_func_uint16_t_u_u>
    e8bc:	0f b7 c0             	movzwl %ax,%eax
    e8bf:	be 0f 00 00 00       	mov    $0xf,%esi
    e8c4:	89 c7                	mov    %eax,%edi
    e8c6:	e8 f3 74 ff ff       	callq  5dbe <safe_lshift_func_uint16_t_u_s>
    e8cb:	66 3d be a1          	cmp    $0xa1be,%ax
    e8cf:	0f 94 c0             	sete   %al
    e8d2:	0f b6 c0             	movzbl %al,%eax
    e8d5:	89 c6                	mov    %eax,%esi
    e8d7:	bf 14 f9 00 00       	mov    $0xf914,%edi
    e8dc:	e8 5c 74 ff ff       	callq  5d3d <safe_mul_func_uint16_t_u_u>
    e8e1:	89 c2                	mov    %eax,%edx
    e8e3:	48 8b 85 98 f4 ff ff 	mov    -0xb68(%rbp),%rax
    e8ea:	88 10                	mov    %dl,(%rax)
    e8ec:	0f b6 00             	movzbl (%rax),%eax
    e8ef:	41 38 c5             	cmp    %al,%r13b
    e8f2:	0f 9e c2             	setle  %dl
    e8f5:	48 8b 05 1c cb 00 00 	mov    0xcb1c(%rip),%rax        # 1b418 <g_169>
    e8fc:	88 10                	mov    %dl,(%rax)
    e8fe:	0f b6 00             	movzbl (%rax),%eax
    e901:	48 0f be c0          	movsbq %al,%rax
    e905:	48 3d ff 00 00 00    	cmp    $0xff,%rax
    e90b:	ba 01 00 00 00       	mov    $0x1,%edx
    e910:	48 8b 85 a8 f5 ff ff 	mov    -0xa58(%rbp),%rax
    e917:	8b 00                	mov    (%rax),%eax
    e919:	09 c2                	or     %eax,%edx
    e91b:	48 8b 85 a8 f5 ff ff 	mov    -0xa58(%rbp),%rax
    e922:	89 10                	mov    %edx,(%rax)
    e924:	48 8b 05 fd cb 00 00 	mov    0xcbfd(%rip),%rax        # 1b528 <g_349>
    e92b:	c7 00 b0 70 f7 8d    	movl   $0x8df770b0,(%rax)
    e931:	0f b6 85 4b f4 ff ff 	movzbl -0xbb5(%rbp),%eax
    e938:	83 c0 01             	add    $0x1,%eax
    e93b:	88 85 4b f4 ff ff    	mov    %al,-0xbb5(%rbp)
    e941:	c6 05 d0 a9 00 00 00 	movb   $0x0,0xa9d0(%rip)        # 19318 <g_427>
    e948:	e9 87 02 00 00       	jmpq   ebd4 <func_21+0x1cff>
    e94d:	c7 85 20 f6 ff ff 4f 	movl   $0xd0deea4f,-0x9e0(%rbp)
    e954:	ea de d0 
    e957:	c7 85 24 f6 ff ff 4f 	movl   $0xd0deea4f,-0x9dc(%rbp)
    e95e:	ea de d0 
    e961:	c7 85 28 f6 ff ff 4f 	movl   $0xd0deea4f,-0x9d8(%rbp)
    e968:	ea de d0 
    e96b:	c7 85 2c f6 ff ff 4f 	movl   $0xd0deea4f,-0x9d4(%rbp)
    e972:	ea de d0 
    e975:	c7 85 30 f6 ff ff 4f 	movl   $0xd0deea4f,-0x9d0(%rbp)
    e97c:	ea de d0 
    e97f:	c7 85 34 f6 ff ff 4f 	movl   $0xd0deea4f,-0x9cc(%rbp)
    e986:	ea de d0 
    e989:	c7 85 38 f6 ff ff 4f 	movl   $0xd0deea4f,-0x9c8(%rbp)
    e990:	ea de d0 
    e993:	c7 85 3c f6 ff ff 4f 	movl   $0xd0deea4f,-0x9c4(%rbp)
    e99a:	ea de d0 
    e99d:	c7 85 40 f6 ff ff 4f 	movl   $0xd0deea4f,-0x9c0(%rbp)
    e9a4:	ea de d0 
    e9a7:	c7 85 44 f6 ff ff 4f 	movl   $0xd0deea4f,-0x9bc(%rbp)
    e9ae:	ea de d0 
    e9b1:	48 b8 01 4e 80 9e 12 	movabs $0xe7dbd3129e804e01,%rax
    e9b8:	d3 db e7 
    e9bb:	48 89 85 00 f6 ff ff 	mov    %rax,-0xa00(%rbp)
    e9c2:	48 89 85 08 f6 ff ff 	mov    %rax,-0x9f8(%rbp)
    e9c9:	48 89 85 10 f6 ff ff 	mov    %rax,-0x9f0(%rbp)
    e9d0:	48 89 85 18 f6 ff ff 	mov    %rax,-0x9e8(%rbp)
    e9d7:	48 c7 85 c8 f5 ff ff 	movq   $0x0,-0xa38(%rbp)
    e9de:	00 00 00 00 
    e9e2:	48 b8 08 0b ef 38 3a 	movabs $0xb6210e3a38ef0b08,%rax
    e9e9:	0e 21 b6 
    e9ec:	48 89 85 d0 f5 ff ff 	mov    %rax,-0xa30(%rbp)
    e9f3:	48 8d 85 98 f4 ff ff 	lea    -0xb68(%rbp),%rax
    e9fa:	48 89 85 a8 f4 ff ff 	mov    %rax,-0xb58(%rbp)
    ea01:	48 8d 85 a8 f4 ff ff 	lea    -0xb58(%rbp),%rax
    ea08:	48 89 85 d8 f5 ff ff 	mov    %rax,-0xa28(%rbp)
    ea0f:	48 c7 85 e0 f5 ff ff 	movq   $0x0,-0xa20(%rbp)
    ea16:	00 00 00 00 
    ea1a:	c7 85 10 f8 ff ff fc 	movl   $0xfffffffc,-0x7f0(%rbp)
    ea21:	ff ff ff 
    ea24:	c7 85 14 f8 ff ff fc 	movl   $0xfffffffc,-0x7ec(%rbp)
    ea2b:	ff ff ff 
    ea2e:	c7 85 18 f8 ff ff fd 	movl   $0xfcee44fd,-0x7e8(%rbp)
    ea35:	44 ee fc 
    ea38:	c7 85 1c f8 ff ff fc 	movl   $0xfffffffc,-0x7e4(%rbp)
    ea3f:	ff ff ff 
    ea42:	c7 85 20 f8 ff ff fc 	movl   $0xfffffffc,-0x7e0(%rbp)
    ea49:	ff ff ff 
    ea4c:	c7 85 24 f8 ff ff 1c 	movl   $0x422e1b1c,-0x7dc(%rbp)
    ea53:	1b 2e 42 
    ea56:	c7 85 28 f8 ff ff 1c 	movl   $0x422e1b1c,-0x7d8(%rbp)
    ea5d:	1b 2e 42 
    ea60:	c7 85 2c f8 ff ff fc 	movl   $0xfffffffc,-0x7d4(%rbp)
    ea67:	ff ff ff 
    ea6a:	c7 85 30 f8 ff ff 1c 	movl   $0x422e1b1c,-0x7d0(%rbp)
    ea71:	1b 2e 42 
    ea74:	c7 85 34 f8 ff ff fc 	movl   $0xfffffffc,-0x7cc(%rbp)
    ea7b:	ff ff ff 
    ea7e:	c7 85 38 f8 ff ff 1c 	movl   $0x422e1b1c,-0x7c8(%rbp)
    ea85:	1b 2e 42 
    ea88:	c7 85 3c f8 ff ff 1c 	movl   $0x422e1b1c,-0x7c4(%rbp)
    ea8f:	1b 2e 42 
    ea92:	c7 85 40 f8 ff ff fc 	movl   $0xfffffffc,-0x7c0(%rbp)
    ea99:	ff ff ff 
    ea9c:	c7 85 44 f8 ff ff fc 	movl   $0xfffffffc,-0x7bc(%rbp)
    eaa3:	ff ff ff 
    eaa6:	c7 85 48 f8 ff ff fd 	movl   $0xfcee44fd,-0x7b8(%rbp)
    eaad:	44 ee fc 
    eab0:	c7 85 4c f8 ff ff fc 	movl   $0xfffffffc,-0x7b4(%rbp)
    eab7:	ff ff ff 
    eaba:	c7 85 50 f8 ff ff fc 	movl   $0xfffffffc,-0x7b0(%rbp)
    eac1:	ff ff ff 
    eac4:	c7 85 54 f8 ff ff 1c 	movl   $0x422e1b1c,-0x7ac(%rbp)
    eacb:	1b 2e 42 
    eace:	c7 85 58 f8 ff ff 1c 	movl   $0x422e1b1c,-0x7a8(%rbp)
    ead5:	1b 2e 42 
    ead8:	c7 85 5c f8 ff ff fc 	movl   $0xfffffffc,-0x7a4(%rbp)
    eadf:	ff ff ff 
    eae2:	c7 85 60 f8 ff ff 1c 	movl   $0x422e1b1c,-0x7a0(%rbp)
    eae9:	1b 2e 42 
    eaec:	c7 85 64 f8 ff ff fc 	movl   $0xfffffffc,-0x79c(%rbp)
    eaf3:	ff ff ff 
    eaf6:	c7 85 68 f8 ff ff 1c 	movl   $0x422e1b1c,-0x798(%rbp)
    eafd:	1b 2e 42 
    eb00:	c7 85 6c f8 ff ff 1c 	movl   $0x422e1b1c,-0x794(%rbp)
    eb07:	1b 2e 42 
    eb0a:	c7 85 70 f8 ff ff fc 	movl   $0xfffffffc,-0x790(%rbp)
    eb11:	ff ff ff 
    eb14:	c7 85 74 f8 ff ff fc 	movl   $0xfffffffc,-0x78c(%rbp)
    eb1b:	ff ff ff 
    eb1e:	c7 85 78 f8 ff ff fd 	movl   $0xfcee44fd,-0x788(%rbp)
    eb25:	44 ee fc 
    eb28:	c7 85 7c f8 ff ff fc 	movl   $0xfffffffc,-0x784(%rbp)
    eb2f:	ff ff ff 
    eb32:	c7 85 80 f8 ff ff fc 	movl   $0xfffffffc,-0x780(%rbp)
    eb39:	ff ff ff 
    eb3c:	c7 85 84 f8 ff ff 1c 	movl   $0x422e1b1c,-0x77c(%rbp)
    eb43:	1b 2e 42 
    eb46:	c7 85 88 f8 ff ff 1c 	movl   $0x422e1b1c,-0x778(%rbp)
    eb4d:	1b 2e 42 
    eb50:	c7 85 8c f8 ff ff fc 	movl   $0xfffffffc,-0x774(%rbp)
    eb57:	ff ff ff 
    eb5a:	c7 85 6c f4 ff ff 00 	movl   $0x0,-0xb94(%rbp)
    eb61:	00 00 00 
    eb64:	eb 43                	jmp    eba9 <func_21+0x1cd4>
    eb66:	c7 85 70 f4 ff ff 00 	movl   $0x0,-0xb90(%rbp)
    eb6d:	00 00 00 
    eb70:	eb 27                	jmp    eb99 <func_21+0x1cc4>
    eb72:	8b 85 70 f4 ff ff    	mov    -0xb90(%rbp),%eax
    eb78:	48 63 d0             	movslq %eax,%rdx
    eb7b:	8b 85 6c f4 ff ff    	mov    -0xb94(%rbp),%eax
    eb81:	48 98                	cltq   
    eb83:	48 01 d0             	add    %rdx,%rax
    eb86:	48 c7 84 c5 e8 f5 ff 	movq   $0x1,-0xa18(%rbp,%rax,8)
    eb8d:	ff 01 00 00 00 
    eb92:	83 85 70 f4 ff ff 01 	addl   $0x1,-0xb90(%rbp)
    eb99:	83 bd 70 f4 ff ff 00 	cmpl   $0x0,-0xb90(%rbp)
    eba0:	7e d0                	jle    eb72 <func_21+0x1c9d>
    eba2:	83 85 6c f4 ff ff 01 	addl   $0x1,-0xb94(%rbp)
    eba9:	83 bd 6c f4 ff ff 00 	cmpl   $0x0,-0xb94(%rbp)
    ebb0:	7e b4                	jle    eb66 <func_21+0x1c91>
    ebb2:	48 8b 85 08 f6 ff ff 	mov    -0x9f8(%rbp),%rax
    ebb9:	48 83 c0 01          	add    $0x1,%rax
    ebbd:	48 89 85 08 f6 ff ff 	mov    %rax,-0x9f8(%rbp)
    ebc4:	0f b6 05 4d a7 00 00 	movzbl 0xa74d(%rip),%eax        # 19318 <g_427>
    ebcb:	83 e8 01             	sub    $0x1,%eax
    ebce:	88 05 44 a7 00 00    	mov    %al,0xa744(%rip)        # 19318 <g_427>
    ebd4:	0f b6 05 3d a7 00 00 	movzbl 0xa73d(%rip),%eax        # 19318 <g_427>
    ebdb:	84 c0                	test   %al,%al
    ebdd:	0f 89 6a fd ff ff    	jns    e94d <func_21+0x1a78>
    ebe3:	83 85 5c f4 ff ff 01 	addl   $0x1,-0xba4(%rbp)
    ebea:	83 bd 5c f4 ff ff 05 	cmpl   $0x5,-0xba4(%rbp)
    ebf1:	0f 8e d0 f0 ff ff    	jle    dcc7 <func_21+0xdf2>
    ebf7:	0f be 85 3c f4 ff ff 	movsbl -0xbc4(%rbp),%eax
    ebfe:	48 8b 5d c8          	mov    -0x38(%rbp),%rbx
    ec02:	64 48 33 1c 25 28 00 	xor    %fs:0x28,%rbx
    ec09:	00 00 
    ec0b:	74 05                	je     ec12 <func_21+0x1d3d>
    ec0d:	e8 5e 64 ff ff       	callq  5070 <__stack_chk_fail@plt>
    ec12:	48 81 c4 a8 0b 00 00 	add    $0xba8,%rsp
    ec19:	5b                   	pop    %rbx
    ec1a:	41 5c                	pop    %r12
    ec1c:	41 5d                	pop    %r13
    ec1e:	41 5e                	pop    %r14
    ec20:	41 5f                	pop    %r15
    ec22:	5d                   	pop    %rbp
    ec23:	c3                   	retq   

000000000000ec24 <func_23>:
    ec24:	f3 0f 1e fa          	endbr64 
    ec28:	55                   	push   %rbp
    ec29:	48 89 e5             	mov    %rsp,%rbp
    ec2c:	48 89 7d f8          	mov    %rdi,-0x8(%rbp)
    ec30:	48 89 75 f0          	mov    %rsi,-0x10(%rbp)
    ec34:	48 89 55 e8          	mov    %rdx,-0x18(%rbp)
    ec38:	89 c8                	mov    %ecx,%eax
    ec3a:	66 89 45 e4          	mov    %ax,-0x1c(%rbp)
    ec3e:	66 c7 45 e4 17 00    	movw   $0x17,-0x1c(%rbp)
    ec44:	66 83 7d e4 2a       	cmpw   $0x2a,-0x1c(%rbp)
    ec49:	77 06                	ja     ec51 <func_23+0x2d>
    ec4b:	0f b7 45 e4          	movzwl -0x1c(%rbp),%eax
    ec4f:	eb 0a                	jmp    ec5b <func_23+0x37>
    ec51:	48 8b 05 c0 c7 00 00 	mov    0xc7c0(%rip),%rax        # 1b418 <g_169>
    ec58:	0f b6 00             	movzbl (%rax),%eax
    ec5b:	5d                   	pop    %rbp
    ec5c:	c3                   	retq   

000000000000ec5d <func_28>:
    ec5d:	f3 0f 1e fa          	endbr64 
    ec61:	55                   	push   %rbp
    ec62:	48 89 e5             	mov    %rsp,%rbp
    ec65:	48 81 ec e0 00 00 00 	sub    $0xe0,%rsp
    ec6c:	89 f8                	mov    %edi,%eax
    ec6e:	89 b5 38 ff ff ff    	mov    %esi,-0xc8(%rbp)
    ec74:	48 89 95 30 ff ff ff 	mov    %rdx,-0xd0(%rbp)
    ec7b:	48 89 8d 28 ff ff ff 	mov    %rcx,-0xd8(%rbp)
    ec82:	44 89 85 24 ff ff ff 	mov    %r8d,-0xdc(%rbp)
    ec89:	88 85 3c ff ff ff    	mov    %al,-0xc4(%rbp)
    ec8f:	64 48 8b 04 25 28 00 	mov    %fs:0x28,%rax
    ec96:	00 00 
    ec98:	48 89 45 f8          	mov    %rax,-0x8(%rbp)
    ec9c:	31 c0                	xor    %eax,%eax
    ec9e:	48 c7 85 60 ff ff ff 	movq   $0x0,-0xa0(%rbp)
    eca5:	00 00 00 00 
    eca9:	48 c7 85 68 ff ff ff 	movq   $0x0,-0x98(%rbp)
    ecb0:	00 00 00 00 
    ecb4:	48 c7 85 70 ff ff ff 	movq   $0x0,-0x90(%rbp)
    ecbb:	00 00 00 00 
    ecbf:	48 c7 85 78 ff ff ff 	movq   $0x0,-0x88(%rbp)
    ecc6:	00 00 00 00 
    ecca:	48 c7 45 80 00 00 00 	movq   $0x0,-0x80(%rbp)
    ecd1:	00 
    ecd2:	48 c7 45 88 00 00 00 	movq   $0x0,-0x78(%rbp)
    ecd9:	00 
    ecda:	48 c7 45 90 00 00 00 	movq   $0x0,-0x70(%rbp)
    ece1:	00 
    ece2:	48 c7 45 98 00 00 00 	movq   $0x0,-0x68(%rbp)
    ece9:	00 
    ecea:	48 c7 45 a0 00 00 00 	movq   $0x0,-0x60(%rbp)
    ecf1:	00 
    ecf2:	48 c7 85 48 ff ff ff 	movq   $0x0,-0xb8(%rbp)
    ecf9:	00 00 00 00 
    ecfd:	48 8d 05 3c c8 00 00 	lea    0xc83c(%rip),%rax        # 1b540 <g_358>
    ed04:	48 89 85 50 ff ff ff 	mov    %rax,-0xb0(%rbp)
    ed0b:	48 8d 85 60 ff ff ff 	lea    -0xa0(%rbp),%rax
    ed12:	48 83 c0 08          	add    $0x8,%rax
    ed16:	48 89 85 58 ff ff ff 	mov    %rax,-0xa8(%rbp)
    ed1d:	c7 85 44 ff ff ff 00 	movl   $0x0,-0xbc(%rbp)
    ed24:	00 00 00 
    ed27:	eb 1b                	jmp    ed44 <func_28+0xe7>
    ed29:	8b 85 44 ff ff ff    	mov    -0xbc(%rbp),%eax
    ed2f:	48 98                	cltq   
    ed31:	48 8d 15 50 d3 00 00 	lea    0xd350(%rip),%rdx        # 1c088 <g_62>
    ed38:	48 89 54 c5 b0       	mov    %rdx,-0x50(%rbp,%rax,8)
    ed3d:	83 85 44 ff ff ff 01 	addl   $0x1,-0xbc(%rbp)
    ed44:	83 bd 44 ff ff ff 08 	cmpl   $0x8,-0xbc(%rbp)
    ed4b:	7e dc                	jle    ed29 <func_28+0xcc>
    ed4d:	48 8b 05 e4 c7 00 00 	mov    0xc7e4(%rip),%rax        # 1b538 <g_354>
    ed54:	48 8b 95 70 ff ff ff 	mov    -0x90(%rbp),%rdx
    ed5b:	48 89 10             	mov    %rdx,(%rax)
    ed5e:	48 8b 05 d3 c7 00 00 	mov    0xc7d3(%rip),%rax        # 1b538 <g_354>
    ed65:	48 8d 95 38 ff ff ff 	lea    -0xc8(%rbp),%rdx
    ed6c:	48 89 10             	mov    %rdx,(%rax)
    ed6f:	48 8b 15 d2 c7 00 00 	mov    0xc7d2(%rip),%rdx        # 1b548 <g_357>
    ed76:	48 8b 00             	mov    (%rax),%rax
    ed79:	48 89 02             	mov    %rax,(%rdx)
    ed7c:	48 8b 05 3d c7 00 00 	mov    0xc73d(%rip),%rax        # 1b4c0 <g_190>
    ed83:	48 c7 00 00 00 00 00 	movq   $0x0,(%rax)
    ed8a:	48 8b 85 50 ff ff ff 	mov    -0xb0(%rbp),%rax
    ed91:	48 8d 95 38 ff ff ff 	lea    -0xc8(%rbp),%rdx
    ed98:	48 89 10             	mov    %rdx,(%rax)
    ed9b:	48 8b 85 50 ff ff ff 	mov    -0xb0(%rbp),%rax
    eda2:	48 8b 10             	mov    (%rax),%rdx
    eda5:	48 8b 85 58 ff ff ff 	mov    -0xa8(%rbp),%rax
    edac:	48 89 10             	mov    %rdx,(%rax)
    edaf:	48 8b 45 b0          	mov    -0x50(%rbp),%rax
    edb3:	48 8b 4d f8          	mov    -0x8(%rbp),%rcx
    edb7:	64 48 33 0c 25 28 00 	xor    %fs:0x28,%rcx
    edbe:	00 00 
    edc0:	74 05                	je     edc7 <func_28+0x16a>
    edc2:	e8 a9 62 ff ff       	callq  5070 <__stack_chk_fail@plt>
    edc7:	c9                   	leaveq 
    edc8:	c3                   	retq   

000000000000edc9 <func_36>:
    edc9:	f3 0f 1e fa          	endbr64 
    edcd:	55                   	push   %rbp
    edce:	48 89 e5             	mov    %rsp,%rbp
    edd1:	48 83 ec 60          	sub    $0x60,%rsp
    edd5:	48 89 7d a8          	mov    %rdi,-0x58(%rbp)
    edd9:	64 48 8b 04 25 28 00 	mov    %fs:0x28,%rax
    ede0:	00 00 
    ede2:	48 89 45 f8          	mov    %rax,-0x8(%rbp)
    ede6:	31 c0                	xor    %eax,%eax
    ede8:	48 8d 05 9d d2 00 00 	lea    0xd29d(%rip),%rax        # 1c08c <g_92>
    edef:	48 89 45 c0          	mov    %rax,-0x40(%rbp)
    edf3:	c7 45 bc 00 00 00 00 	movl   $0x0,-0x44(%rbp)
    edfa:	eb 11                	jmp    ee0d <func_36+0x44>
    edfc:	8b 45 bc             	mov    -0x44(%rbp),%eax
    edff:	48 98                	cltq   
    ee01:	c7 44 85 d0 00 00 00 	movl   $0x0,-0x30(%rbp,%rax,4)
    ee08:	00 
    ee09:	83 45 bc 01          	addl   $0x1,-0x44(%rbp)
    ee0d:	83 7d bc 06          	cmpl   $0x6,-0x44(%rbp)
    ee11:	7e e9                	jle    edfc <func_36+0x33>
    ee13:	66 c7 05 ec a4 00 00 	movw   $0x11,0xa4ec(%rip)        # 19308 <g_188>
    ee1a:	11 00 
    ee1c:	90                   	nop
    ee1d:	0f b7 05 e4 a4 00 00 	movzwl 0xa4e4(%rip),%eax        # 19308 <g_188>
    ee24:	66 83 f8 f1          	cmp    $0xfff1,%ax
    ee28:	7c 45                	jl     ee6f <func_36+0xa6>
    ee2a:	48 8d 05 97 a4 00 00 	lea    0xa497(%rip),%rax        # 192c8 <g_74>
    ee31:	48 89 45 c8          	mov    %rax,-0x38(%rbp)
    ee35:	8b 45 dc             	mov    -0x24(%rbp),%eax
    ee38:	85 c0                	test   %eax,%eax
    ee3a:	0f 9f c0             	setg   %al
    ee3d:	0f b6 c0             	movzbl %al,%eax
    ee40:	be 03 00 00 00       	mov    $0x3,%esi
    ee45:	89 c7                	mov    %eax,%edi
    ee47:	e8 46 66 ff ff       	callq  5492 <safe_lshift_func_int16_t_s_s>
    ee4c:	89 c2                	mov    %eax,%edx
    ee4e:	48 8b 05 d3 c6 00 00 	mov    0xc6d3(%rip),%rax        # 1b528 <g_349>
    ee55:	8b 08                	mov    (%rax),%ecx
    ee57:	0f bf d2             	movswl %dx,%edx
    ee5a:	21 ca                	and    %ecx,%edx
    ee5c:	89 10                	mov    %edx,(%rax)
    ee5e:	48 8b 05 ab c5 00 00 	mov    0xc5ab(%rip),%rax        # 1b410 <g_57>
    ee65:	48 8b 00             	mov    (%rax),%rax
    ee68:	48 8b 00             	mov    (%rax),%rax
    ee6b:	8b 00                	mov    (%rax),%eax
    ee6d:	eb 09                	jmp    ee78 <func_36+0xaf>
    ee6f:	48 8b 05 8a c5 00 00 	mov    0xc58a(%rip),%rax        # 1b400 <g_59>
    ee76:	8b 00                	mov    (%rax),%eax
    ee78:	48 8b 75 f8          	mov    -0x8(%rbp),%rsi
    ee7c:	64 48 33 34 25 28 00 	xor    %fs:0x28,%rsi
    ee83:	00 00 
    ee85:	74 05                	je     ee8c <func_36+0xc3>
    ee87:	e8 e4 61 ff ff       	callq  5070 <__stack_chk_fail@plt>
    ee8c:	c9                   	leaveq 
    ee8d:	c3                   	retq   

000000000000ee8e <func_38>:
    ee8e:	f3 0f 1e fa          	endbr64 
    ee92:	55                   	push   %rbp
    ee93:	48 89 e5             	mov    %rsp,%rbp
    ee96:	41 57                	push   %r15
    ee98:	41 56                	push   %r14
    ee9a:	41 55                	push   %r13
    ee9c:	41 54                	push   %r12
    ee9e:	53                   	push   %rbx
    ee9f:	48 81 ec 00 10 00 00 	sub    $0x1000,%rsp
    eea6:	48 83 0c 24 00       	orq    $0x0,(%rsp)
    eeab:	48 81 ec f8 02 00 00 	sub    $0x2f8,%rsp
    eeb2:	48 89 bd f8 ec ff ff 	mov    %rdi,-0x1308(%rbp)
    eeb9:	48 89 b5 f0 ec ff ff 	mov    %rsi,-0x1310(%rbp)
    eec0:	89 d0                	mov    %edx,%eax
    eec2:	88 85 ec ec ff ff    	mov    %al,-0x1314(%rbp)
    eec8:	64 48 8b 04 25 28 00 	mov    %fs:0x28,%rax
    eecf:	00 00 
    eed1:	48 89 45 c8          	mov    %rax,-0x38(%rbp)
    eed5:	31 c0                	xor    %eax,%eax
    eed7:	48 c7 85 78 ed ff ff 	movq   $0x0,-0x1288(%rbp)
    eede:	00 00 00 00 
    eee2:	48 8d 85 78 ed ff ff 	lea    -0x1288(%rbp),%rax
    eee9:	48 89 85 80 ed ff ff 	mov    %rax,-0x1280(%rbp)
    eef0:	48 8d 85 40 f3 ff ff 	lea    -0xcc0(%rbp),%rax
    eef7:	48 8d 15 42 60 00 00 	lea    0x6042(%rip),%rdx        # 14f40 <g_151+0xee0>
    eefe:	b9 46 00 00 00       	mov    $0x46,%ecx
    ef03:	48 89 c7             	mov    %rax,%rdi
    ef06:	48 89 d6             	mov    %rdx,%rsi
    ef09:	f3 48 a5             	rep movsq %ds:(%rsi),%es:(%rdi)
    ef0c:	48 b8 d4 a5 96 d4 be 	movabs $0xe1822ebed496a5d4,%rax
    ef13:	2e 82 e1 
    ef16:	48 89 85 d8 ed ff ff 	mov    %rax,-0x1228(%rbp)
    ef1d:	c7 85 10 ed ff ff 00 	movl   $0x0,-0x12f0(%rbp)
    ef24:	00 00 00 
    ef27:	48 c7 85 88 ed ff ff 	movq   $0x0,-0x1278(%rbp)
    ef2e:	00 00 00 00 
    ef32:	48 8d 85 88 ed ff ff 	lea    -0x1278(%rbp),%rax
    ef39:	48 89 85 90 ed ff ff 	mov    %rax,-0x1270(%rbp)
    ef40:	48 c7 85 e0 ed ff ff 	movq   $0x0,-0x1220(%rbp)
    ef47:	00 00 00 00 
    ef4b:	48 8d 85 40 f3 ff ff 	lea    -0xcc0(%rbp),%rax
    ef52:	48 05 bc 01 00 00    	add    $0x1bc,%rax
    ef58:	48 89 85 98 ed ff ff 	mov    %rax,-0x1268(%rbp)
    ef5f:	48 8d 85 98 ed ff ff 	lea    -0x1268(%rbp),%rax
    ef66:	48 89 85 a0 ed ff ff 	mov    %rax,-0x1260(%rbp)
    ef6d:	48 8d 85 a0 ed ff ff 	lea    -0x1260(%rbp),%rax
    ef74:	48 89 85 a8 ed ff ff 	mov    %rax,-0x1258(%rbp)
    ef7b:	48 8d 85 80 ed ff ff 	lea    -0x1280(%rbp),%rax
    ef82:	48 89 85 00 f0 ff ff 	mov    %rax,-0x1000(%rbp)
    ef89:	48 8d 85 80 ed ff ff 	lea    -0x1280(%rbp),%rax
    ef90:	48 89 85 08 f0 ff ff 	mov    %rax,-0xff8(%rbp)
    ef97:	48 8d 85 80 ed ff ff 	lea    -0x1280(%rbp),%rax
    ef9e:	48 89 85 10 f0 ff ff 	mov    %rax,-0xff0(%rbp)
    efa5:	48 8d 05 5c c4 00 00 	lea    0xc45c(%rip),%rax        # 1b408 <g_58>
    efac:	48 89 85 18 f0 ff ff 	mov    %rax,-0xfe8(%rbp)
    efb3:	48 c7 85 20 f0 ff ff 	movq   $0x0,-0xfe0(%rbp)
    efba:	00 00 00 00 
    efbe:	48 8d 85 80 ed ff ff 	lea    -0x1280(%rbp),%rax
    efc5:	48 89 85 28 f0 ff ff 	mov    %rax,-0xfd8(%rbp)
    efcc:	48 8d 85 80 ed ff ff 	lea    -0x1280(%rbp),%rax
    efd3:	48 89 85 30 f0 ff ff 	mov    %rax,-0xfd0(%rbp)
    efda:	48 c7 85 38 f0 ff ff 	movq   $0x0,-0xfc8(%rbp)
    efe1:	00 00 00 00 
    efe5:	48 8d 05 1c c4 00 00 	lea    0xc41c(%rip),%rax        # 1b408 <g_58>
    efec:	48 89 85 40 f0 ff ff 	mov    %rax,-0xfc0(%rbp)
    eff3:	48 8d 85 80 ed ff ff 	lea    -0x1280(%rbp),%rax
    effa:	48 89 85 48 f0 ff ff 	mov    %rax,-0xfb8(%rbp)
    f001:	48 8d 85 80 ed ff ff 	lea    -0x1280(%rbp),%rax
    f008:	48 89 85 50 f0 ff ff 	mov    %rax,-0xfb0(%rbp)
    f00f:	48 8d 85 80 ed ff ff 	lea    -0x1280(%rbp),%rax
    f016:	48 89 85 58 f0 ff ff 	mov    %rax,-0xfa8(%rbp)
    f01d:	48 c7 85 60 f0 ff ff 	movq   $0x0,-0xfa0(%rbp)
    f024:	00 00 00 00 
    f028:	48 8d 05 d9 c3 00 00 	lea    0xc3d9(%rip),%rax        # 1b408 <g_58>
    f02f:	48 89 85 68 f0 ff ff 	mov    %rax,-0xf98(%rbp)
    f036:	48 8d 85 80 ed ff ff 	lea    -0x1280(%rbp),%rax
    f03d:	48 89 85 70 f0 ff ff 	mov    %rax,-0xf90(%rbp)
    f044:	48 8d 85 80 ed ff ff 	lea    -0x1280(%rbp),%rax
    f04b:	48 89 85 78 f0 ff ff 	mov    %rax,-0xf88(%rbp)
    f052:	48 8d 85 80 ed ff ff 	lea    -0x1280(%rbp),%rax
    f059:	48 89 85 80 f0 ff ff 	mov    %rax,-0xf80(%rbp)
    f060:	48 8d 05 a1 c3 00 00 	lea    0xc3a1(%rip),%rax        # 1b408 <g_58>
    f067:	48 89 85 88 f0 ff ff 	mov    %rax,-0xf78(%rbp)
    f06e:	48 8d 85 80 ed ff ff 	lea    -0x1280(%rbp),%rax
    f075:	48 89 85 90 f0 ff ff 	mov    %rax,-0xf70(%rbp)
    f07c:	48 8d 85 80 ed ff ff 	lea    -0x1280(%rbp),%rax
    f083:	48 89 85 98 f0 ff ff 	mov    %rax,-0xf68(%rbp)
    f08a:	48 8d 05 77 c3 00 00 	lea    0xc377(%rip),%rax        # 1b408 <g_58>
    f091:	48 89 85 a0 f0 ff ff 	mov    %rax,-0xf60(%rbp)
    f098:	48 c7 85 a8 f0 ff ff 	movq   $0x0,-0xf58(%rbp)
    f09f:	00 00 00 00 
    f0a3:	48 8d 05 5e c3 00 00 	lea    0xc35e(%rip),%rax        # 1b408 <g_58>
    f0aa:	48 89 85 b0 f0 ff ff 	mov    %rax,-0xf50(%rbp)
    f0b1:	48 c7 85 b8 f0 ff ff 	movq   $0x0,-0xf48(%rbp)
    f0b8:	00 00 00 00 
    f0bc:	48 8d 05 45 c3 00 00 	lea    0xc345(%rip),%rax        # 1b408 <g_58>
    f0c3:	48 89 85 c0 f0 ff ff 	mov    %rax,-0xf40(%rbp)
    f0ca:	48 c7 85 c8 f0 ff ff 	movq   $0x0,-0xf38(%rbp)
    f0d1:	00 00 00 00 
    f0d5:	48 8d 85 80 ed ff ff 	lea    -0x1280(%rbp),%rax
    f0dc:	48 89 85 d0 f0 ff ff 	mov    %rax,-0xf30(%rbp)
    f0e3:	48 8d 85 80 ed ff ff 	lea    -0x1280(%rbp),%rax
    f0ea:	48 89 85 d8 f0 ff ff 	mov    %rax,-0xf28(%rbp)
    f0f1:	48 8d 05 10 c3 00 00 	lea    0xc310(%rip),%rax        # 1b408 <g_58>
    f0f8:	48 89 85 e0 f0 ff ff 	mov    %rax,-0xf20(%rbp)
    f0ff:	48 8d 05 02 c3 00 00 	lea    0xc302(%rip),%rax        # 1b408 <g_58>
    f106:	48 89 85 e8 f0 ff ff 	mov    %rax,-0xf18(%rbp)
    f10d:	48 8d 05 f4 c2 00 00 	lea    0xc2f4(%rip),%rax        # 1b408 <g_58>
    f114:	48 89 85 f0 f0 ff ff 	mov    %rax,-0xf10(%rbp)
    f11b:	48 8d 85 80 ed ff ff 	lea    -0x1280(%rbp),%rax
    f122:	48 89 85 f8 f0 ff ff 	mov    %rax,-0xf08(%rbp)
    f129:	48 8d 05 d8 c2 00 00 	lea    0xc2d8(%rip),%rax        # 1b408 <g_58>
    f130:	48 89 85 00 f1 ff ff 	mov    %rax,-0xf00(%rbp)
    f137:	48 8d 85 80 ed ff ff 	lea    -0x1280(%rbp),%rax
    f13e:	48 89 85 08 f1 ff ff 	mov    %rax,-0xef8(%rbp)
    f145:	48 8d 85 80 ed ff ff 	lea    -0x1280(%rbp),%rax
    f14c:	48 89 85 10 f1 ff ff 	mov    %rax,-0xef0(%rbp)
    f153:	48 8d 05 ae c2 00 00 	lea    0xc2ae(%rip),%rax        # 1b408 <g_58>
    f15a:	48 89 85 18 f1 ff ff 	mov    %rax,-0xee8(%rbp)
    f161:	48 8d 85 80 ed ff ff 	lea    -0x1280(%rbp),%rax
    f168:	48 89 85 20 f1 ff ff 	mov    %rax,-0xee0(%rbp)
    f16f:	48 8d 05 92 c2 00 00 	lea    0xc292(%rip),%rax        # 1b408 <g_58>
    f176:	48 89 85 28 f1 ff ff 	mov    %rax,-0xed8(%rbp)
    f17d:	48 8d 05 84 c2 00 00 	lea    0xc284(%rip),%rax        # 1b408 <g_58>
    f184:	48 89 85 30 f1 ff ff 	mov    %rax,-0xed0(%rbp)
    f18b:	48 8d 05 76 c2 00 00 	lea    0xc276(%rip),%rax        # 1b408 <g_58>
    f192:	48 89 85 38 f1 ff ff 	mov    %rax,-0xec8(%rbp)
    f199:	48 8d 85 00 f0 ff ff 	lea    -0x1000(%rbp),%rax
    f1a0:	48 05 d0 00 00 00    	add    $0xd0,%rax
    f1a6:	48 89 85 e8 ed ff ff 	mov    %rax,-0x1218(%rbp)
    f1ad:	c7 85 14 ed ff ff 96 	movl   $0x97b6f796,-0x12ec(%rbp)
    f1b4:	f7 b6 97 
    f1b7:	c7 85 00 ef ff ff 04 	movl   $0x4,-0x1100(%rbp)
    f1be:	00 00 00 
    f1c1:	c7 85 04 ef ff ff 04 	movl   $0x4,-0x10fc(%rbp)
    f1c8:	00 00 00 
    f1cb:	c7 85 08 ef ff ff 04 	movl   $0x4,-0x10f8(%rbp)
    f1d2:	00 00 00 
    f1d5:	c7 85 0c ef ff ff 04 	movl   $0x4,-0x10f4(%rbp)
    f1dc:	00 00 00 
    f1df:	c7 85 10 ef ff ff 04 	movl   $0x4,-0x10f0(%rbp)
    f1e6:	00 00 00 
    f1e9:	c7 85 14 ef ff ff 04 	movl   $0x4,-0x10ec(%rbp)
    f1f0:	00 00 00 
    f1f3:	c7 85 18 ef ff ff 04 	movl   $0x4,-0x10e8(%rbp)
    f1fa:	00 00 00 
    f1fd:	c7 85 18 ed ff ff 00 	movl   $0x0,-0x12e8(%rbp)
    f204:	00 00 00 
    f207:	eb 1a                	jmp    f223 <func_38+0x395>
    f209:	8b 85 18 ed ff ff    	mov    -0x12e8(%rbp),%eax
    f20f:	48 98                	cltq   
    f211:	c7 84 85 f4 ee ff ff 	movl   $0x6,-0x110c(%rbp,%rax,4)
    f218:	06 00 00 00 
    f21c:	83 85 18 ed ff ff 01 	addl   $0x1,-0x12e8(%rbp)
    f223:	83 bd 18 ed ff ff 02 	cmpl   $0x2,-0x12e8(%rbp)
    f22a:	7e dd                	jle    f209 <func_38+0x37b>
    f22c:	90                   	nop
    f22d:	8b 95 fc ee ff ff    	mov    -0x1104(%rbp),%edx
    f233:	8b 05 4f 9e 00 00    	mov    0x9e4f(%rip),%eax        # 19088 <g_12+0x28>
    f239:	0f b6 c0             	movzbl %al,%eax
    f23c:	89 d6                	mov    %edx,%esi
    f23e:	89 c7                	mov    %eax,%edi
    f240:	e8 07 6a ff ff       	callq  5c4c <safe_lshift_func_uint8_t_u_u>
    f245:	8b 15 31 9e 00 00    	mov    0x9e31(%rip),%edx        # 1907c <g_12+0x1c>
    f24b:	8b 05 ef 9d 00 00    	mov    0x9def(%rip),%eax        # 19040 <g_8>
    f251:	39 c2                	cmp    %eax,%edx
    f253:	0f 8c 9a 00 00 00    	jl     f2f3 <func_38+0x465>
    f259:	48 8b 85 80 ed ff ff 	mov    -0x1280(%rbp),%rax
    f260:	48 8d 95 f4 ee ff ff 	lea    -0x110c(%rbp),%rdx
    f267:	48 83 c2 04          	add    $0x4,%rdx
    f26b:	48 89 10             	mov    %rdx,(%rax)
    f26e:	48 8b 00             	mov    (%rax),%rax
    f271:	48 8d 15 08 a0 00 00 	lea    0xa008(%rip),%rdx        # 19280 <g_17+0x1a0>
    f278:	48 39 d0             	cmp    %rdx,%rax
    f27b:	0f 95 c0             	setne  %al
    f27e:	0f b6 d8             	movzbl %al,%ebx
    f281:	8b 95 fc ee ff ff    	mov    -0x1104(%rbp),%edx
    f287:	48 8b 05 82 c1 00 00 	mov    0xc182(%rip),%rax        # 1b410 <g_57>
    f28e:	b9 00 00 00 00       	mov    $0x0,%ecx
    f293:	8b 85 fc f4 ff ff    	mov    -0xb04(%rbp),%eax
    f299:	21 c8                	and    %ecx,%eax
    f29b:	89 85 fc f4 ff ff    	mov    %eax,-0xb04(%rbp)
    f2a1:	8b 85 fc f4 ff ff    	mov    -0xb04(%rbp),%eax
    f2a7:	0f b7 c0             	movzwl %ax,%eax
    f2aa:	89 d6                	mov    %edx,%esi
    f2ac:	89 c7                	mov    %eax,%edi
    f2ae:	e8 c7 6b ff ff       	callq  5e7a <safe_rshift_func_uint16_t_u_u>
    f2b3:	66 85 c0             	test   %ax,%ax
    f2b6:	75 09                	jne    f2c1 <func_38+0x433>
    f2b8:	80 bd ec ec ff ff 00 	cmpb   $0x0,-0x1314(%rbp)
    f2bf:	74 07                	je     f2c8 <func_38+0x43a>
    f2c1:	b8 01 00 00 00       	mov    $0x1,%eax
    f2c6:	eb 05                	jmp    f2cd <func_38+0x43f>
    f2c8:	b8 00 00 00 00       	mov    $0x0,%eax
    f2cd:	39 d8                	cmp    %ebx,%eax
    f2cf:	0f 9f c0             	setg   %al
    f2d2:	0f b6 d0             	movzbl %al,%edx
    f2d5:	48 8b 85 f0 ec ff ff 	mov    -0x1310(%rbp),%rax
    f2dc:	8b 00                	mov    (%rax),%eax
    f2de:	09 c2                	or     %eax,%edx
    f2e0:	48 8b 85 f0 ec ff ff 	mov    -0x1310(%rbp),%rax
    f2e7:	89 10                	mov    %edx,(%rax)
    f2e9:	8b 05 0d 9e 00 00    	mov    0x9e0d(%rip),%eax        # 190fc <g_17+0x1c>
    f2ef:	85 c0                	test   %eax,%eax
    f2f1:	74 07                	je     f2fa <func_38+0x46c>
    f2f3:	b8 01 00 00 00       	mov    $0x1,%eax
    f2f8:	eb 05                	jmp    f2ff <func_38+0x471>
    f2fa:	b8 00 00 00 00       	mov    $0x0,%eax
    f2ff:	83 f8 01             	cmp    $0x1,%eax
    f302:	0f 94 c0             	sete   %al
    f305:	0f b6 d0             	movzbl %al,%edx
    f308:	8b 05 8a 9e 00 00    	mov    0x9e8a(%rip),%eax        # 19198 <g_17+0xb8>
    f30e:	39 c2                	cmp    %eax,%edx
    f310:	0f 86 80 1c 00 00    	jbe    10f96 <func_38+0x2108>
    f316:	c6 85 07 ed ff ff f7 	movb   $0xf7,-0x12f9(%rbp)
    f31d:	c7 85 20 ef ff ff ff 	movl   $0xffffffff,-0x10e0(%rbp)
    f324:	ff ff ff 
    f327:	c7 85 24 ef ff ff ff 	movl   $0xffffffff,-0x10dc(%rbp)
    f32e:	ff ff ff 
    f331:	c7 85 28 ef ff ff ff 	movl   $0xffffffff,-0x10d8(%rbp)
    f338:	ff ff ff 
    f33b:	c7 85 2c ef ff ff ff 	movl   $0xffffffff,-0x10d4(%rbp)
    f342:	ff ff ff 
    f345:	c7 85 30 ef ff ff ff 	movl   $0xffffffff,-0x10d0(%rbp)
    f34c:	ff ff ff 
    f34f:	c7 85 34 ef ff ff ff 	movl   $0xffffffff,-0x10cc(%rbp)
    f356:	ff ff ff 
    f359:	c7 85 38 ef ff ff ff 	movl   $0xffffffff,-0x10c8(%rbp)
    f360:	ff ff ff 
    f363:	c7 85 3c ef ff ff ff 	movl   $0xffffffff,-0x10c4(%rbp)
    f36a:	ff ff ff 
    f36d:	c7 85 40 ef ff ff ff 	movl   $0xffffffff,-0x10c0(%rbp)
    f374:	ff ff ff 
    f377:	48 8d 05 88 9f 00 00 	lea    0x9f88(%rip),%rax        # 19306 <g_170>
    f37e:	48 89 85 b0 ed ff ff 	mov    %rax,-0x1250(%rbp)
    f385:	48 c7 85 f8 ec ff ff 	movq   $0x0,-0x1308(%rbp)
    f38c:	00 00 00 00 
    f390:	e9 e1 1b 00 00       	jmpq   10f76 <func_38+0x20e8>
    f395:	c6 85 08 ed ff ff ff 	movb   $0xff,-0x12f8(%rbp)
    f39c:	48 8d 05 65 c0 00 00 	lea    0xc065(%rip),%rax        # 1b408 <g_58>
    f3a3:	48 89 85 70 ee ff ff 	mov    %rax,-0x1190(%rbp)
    f3aa:	48 8d 05 1f 9f 00 00 	lea    0x9f1f(%rip),%rax        # 192d0 <g_77>
    f3b1:	48 89 85 78 ee ff ff 	mov    %rax,-0x1188(%rbp)
    f3b8:	c7 85 64 ed ff ff f6 	movl   $0xfffffff6,-0x129c(%rbp)
    f3bf:	ff ff ff 
    f3c2:	48 8d 05 3b 9f 00 00 	lea    0x9f3b(%rip),%rax        # 19304 <g_144>
    f3c9:	48 89 85 80 ee ff ff 	mov    %rax,-0x1180(%rbp)
    f3d0:	c7 85 1c ed ff ff 00 	movl   $0x0,-0x12e4(%rbp)
    f3d7:	00 00 00 
    f3da:	eb 19                	jmp    f3f5 <func_38+0x567>
    f3dc:	8b 85 1c ed ff ff    	mov    -0x12e4(%rbp),%eax
    f3e2:	48 98                	cltq   
    f3e4:	66 c7 84 45 ee ee ff 	movw   $0x2,-0x1112(%rbp,%rax,2)
    f3eb:	ff 02 00 
    f3ee:	83 85 1c ed ff ff 01 	addl   $0x1,-0x12e4(%rbp)
    f3f5:	83 bd 1c ed ff ff 02 	cmpl   $0x2,-0x12e4(%rbp)
    f3fc:	7e de                	jle    f3dc <func_38+0x54e>
    f3fe:	c7 05 80 cc 00 00 03 	movl   $0x3,0xcc80(%rip)        # 1c088 <g_62>
    f405:	00 00 00 
    f408:	e9 a0 15 00 00       	jmpq   109ad <func_38+0x1b1f>
    f40d:	48 c7 85 b8 ed ff ff 	movq   $0x0,-0x1248(%rbp)
    f414:	00 00 00 00 
    f418:	48 8d 85 40 f3 ff ff 	lea    -0xcc0(%rbp),%rax
    f41f:	48 05 bc 01 00 00    	add    $0x1bc,%rax
    f425:	48 89 85 88 ee ff ff 	mov    %rax,-0x1178(%rbp)
    f42c:	48 8d 85 40 f3 ff ff 	lea    -0xcc0(%rbp),%rax
    f433:	48 05 bc 01 00 00    	add    $0x1bc,%rax
    f439:	48 89 85 90 ee ff ff 	mov    %rax,-0x1170(%rbp)
    f440:	48 8d 85 40 f3 ff ff 	lea    -0xcc0(%rbp),%rax
    f447:	48 83 c0 50          	add    $0x50,%rax
    f44b:	48 89 85 60 ef ff ff 	mov    %rax,-0x10a0(%rbp)
    f452:	48 8d 85 40 f3 ff ff 	lea    -0xcc0(%rbp),%rax
    f459:	48 83 c0 50          	add    $0x50,%rax
    f45d:	48 89 85 68 ef ff ff 	mov    %rax,-0x1098(%rbp)
    f464:	48 8d 85 40 f3 ff ff 	lea    -0xcc0(%rbp),%rax
    f46b:	48 83 c0 50          	add    $0x50,%rax
    f46f:	48 89 85 70 ef ff ff 	mov    %rax,-0x1090(%rbp)
    f476:	48 8d 85 40 f3 ff ff 	lea    -0xcc0(%rbp),%rax
    f47d:	48 83 c0 50          	add    $0x50,%rax
    f481:	48 89 85 78 ef ff ff 	mov    %rax,-0x1088(%rbp)
    f488:	48 8d 85 40 f3 ff ff 	lea    -0xcc0(%rbp),%rax
    f48f:	48 83 c0 50          	add    $0x50,%rax
    f493:	48 89 85 80 ef ff ff 	mov    %rax,-0x1080(%rbp)
    f49a:	48 8d 85 40 f3 ff ff 	lea    -0xcc0(%rbp),%rax
    f4a1:	48 83 c0 50          	add    $0x50,%rax
    f4a5:	48 89 85 88 ef ff ff 	mov    %rax,-0x1078(%rbp)
    f4ac:	48 8d 05 15 9e 00 00 	lea    0x9e15(%rip),%rax        # 192c8 <g_74>
    f4b3:	48 89 85 40 f1 ff ff 	mov    %rax,-0xec0(%rbp)
    f4ba:	48 8d 05 07 9e 00 00 	lea    0x9e07(%rip),%rax        # 192c8 <g_74>
    f4c1:	48 89 85 48 f1 ff ff 	mov    %rax,-0xeb8(%rbp)
    f4c8:	48 8d 05 f9 9d 00 00 	lea    0x9df9(%rip),%rax        # 192c8 <g_74>
    f4cf:	48 89 85 50 f1 ff ff 	mov    %rax,-0xeb0(%rbp)
    f4d6:	48 8d 05 eb 9d 00 00 	lea    0x9deb(%rip),%rax        # 192c8 <g_74>
    f4dd:	48 89 85 58 f1 ff ff 	mov    %rax,-0xea8(%rbp)
    f4e4:	48 8d 05 dd 9d 00 00 	lea    0x9ddd(%rip),%rax        # 192c8 <g_74>
    f4eb:	48 89 85 60 f1 ff ff 	mov    %rax,-0xea0(%rbp)
    f4f2:	48 8d 05 cf 9d 00 00 	lea    0x9dcf(%rip),%rax        # 192c8 <g_74>
    f4f9:	48 89 85 68 f1 ff ff 	mov    %rax,-0xe98(%rbp)
    f500:	48 8d 05 c1 9d 00 00 	lea    0x9dc1(%rip),%rax        # 192c8 <g_74>
    f507:	48 89 85 70 f1 ff ff 	mov    %rax,-0xe90(%rbp)
    f50e:	48 8d 05 b3 9d 00 00 	lea    0x9db3(%rip),%rax        # 192c8 <g_74>
    f515:	48 89 85 78 f1 ff ff 	mov    %rax,-0xe88(%rbp)
    f51c:	48 8d 05 a5 9d 00 00 	lea    0x9da5(%rip),%rax        # 192c8 <g_74>
    f523:	48 89 85 80 f1 ff ff 	mov    %rax,-0xe80(%rbp)
    f52a:	48 8d 05 97 9d 00 00 	lea    0x9d97(%rip),%rax        # 192c8 <g_74>
    f531:	48 89 85 88 f1 ff ff 	mov    %rax,-0xe78(%rbp)
    f538:	48 8d 05 01 9b 00 00 	lea    0x9b01(%rip),%rax        # 19040 <g_8>
    f53f:	48 89 85 98 ee ff ff 	mov    %rax,-0x1168(%rbp)
    f546:	48 8d 05 83 9d 00 00 	lea    0x9d83(%rip),%rax        # 192d0 <g_77>
    f54d:	48 89 85 c0 ed ff ff 	mov    %rax,-0x1240(%rbp)
    f554:	48 8d 05 99 9d 00 00 	lea    0x9d99(%rip),%rax        # 192f4 <g_79+0x14>
    f55b:	48 89 85 c8 ed ff ff 	mov    %rax,-0x1238(%rbp)
    f562:	48 8d 85 07 ed ff ff 	lea    -0x12f9(%rbp),%rax
    f569:	48 89 85 d0 ed ff ff 	mov    %rax,-0x1230(%rbp)
    f570:	48 8d 85 d0 ed ff ff 	lea    -0x1230(%rbp),%rax
    f577:	48 89 85 b0 ef ff ff 	mov    %rax,-0x1050(%rbp)
    f57e:	48 8d 85 d0 ed ff ff 	lea    -0x1230(%rbp),%rax
    f585:	48 89 85 b8 ef ff ff 	mov    %rax,-0x1048(%rbp)
    f58c:	48 8d 85 d0 ed ff ff 	lea    -0x1230(%rbp),%rax
    f593:	48 89 85 c0 ef ff ff 	mov    %rax,-0x1040(%rbp)
    f59a:	48 8d 85 d0 ed ff ff 	lea    -0x1230(%rbp),%rax
    f5a1:	48 89 85 c8 ef ff ff 	mov    %rax,-0x1038(%rbp)
    f5a8:	48 8d 85 d0 ed ff ff 	lea    -0x1230(%rbp),%rax
    f5af:	48 89 85 d0 ef ff ff 	mov    %rax,-0x1030(%rbp)
    f5b6:	48 8d 85 d0 ed ff ff 	lea    -0x1230(%rbp),%rax
    f5bd:	48 89 85 d8 ef ff ff 	mov    %rax,-0x1028(%rbp)
    f5c4:	48 8d 85 d0 ed ff ff 	lea    -0x1230(%rbp),%rax
    f5cb:	48 89 85 e0 ef ff ff 	mov    %rax,-0x1020(%rbp)
    f5d2:	0f b6 85 07 ed ff ff 	movzbl -0x12f9(%rbp),%eax
    f5d9:	83 e8 01             	sub    $0x1,%eax
    f5dc:	88 85 07 ed ff ff    	mov    %al,-0x12f9(%rbp)
    f5e2:	48 c7 05 db 9c 00 00 	movq   $0x0,0x9cdb(%rip)        # 192c8 <g_74>
    f5e9:	00 00 00 00 
    f5ed:	8b 05 cd 9c 00 00    	mov    0x9ccd(%rip),%eax        # 192c0 <g_61>
    f5f3:	48 8d 85 40 f3 ff ff 	lea    -0xcc0(%rbp),%rax
    f5fa:	48 05 14 01 00 00    	add    $0x114,%rax
    f600:	48 39 85 98 ee ff ff 	cmp    %rax,-0x1168(%rbp)
    f607:	0f 94 c0             	sete   %al
    f60a:	89 c1                	mov    %eax,%ecx
    f60c:	0f b6 85 07 ed ff ff 	movzbl -0x12f9(%rbp),%eax
    f613:	0f b6 d0             	movzbl %al,%edx
    f616:	48 8b 85 f8 ec ff ff 	mov    -0x1308(%rbp),%rax
    f61d:	48 39 c2             	cmp    %rax,%rdx
    f620:	0f 97 c0             	seta   %al
    f623:	31 c8                	xor    %ecx,%eax
    f625:	0f b6 d0             	movzbl %al,%edx
    f628:	48 8b 85 f8 ec ff ff 	mov    -0x1308(%rbp),%rax
    f62f:	48 8d 0c 85 00 00 00 	lea    0x0(,%rax,4),%rcx
    f636:	00 
    f637:	48 8d 05 f2 99 00 00 	lea    0x99f2(%rip),%rax        # 19030 <g_7>
    f63e:	8b 04 01             	mov    (%rcx,%rax,1),%eax
    f641:	0f b6 c0             	movzbl %al,%eax
    f644:	89 d6                	mov    %edx,%esi
    f646:	89 c7                	mov    %eax,%edi
    f648:	e8 46 65 ff ff       	callq  5b93 <safe_mul_func_uint8_t_u_u>
    f64d:	89 c2                	mov    %eax,%edx
    f64f:	48 8b 85 c0 ed ff ff 	mov    -0x1240(%rbp),%rax
    f656:	0f b6 d2             	movzbl %dl,%edx
    f659:	89 10                	mov    %edx,(%rax)
    f65b:	48 8b 95 c8 ed ff ff 	mov    -0x1238(%rbp),%rdx
    f662:	8b 00                	mov    (%rax),%eax
    f664:	89 02                	mov    %eax,(%rdx)
    f666:	ba 64 cc 72 8e       	mov    $0x8e72cc64,%edx
    f66b:	48 8b 85 f0 ec ff ff 	mov    -0x1310(%rbp),%rax
    f672:	8b 00                	mov    (%rax),%eax
    f674:	31 c2                	xor    %eax,%edx
    f676:	48 8b 85 f0 ec ff ff 	mov    -0x1310(%rbp),%rax
    f67d:	89 10                	mov    %edx,(%rax)
    f67f:	48 8b 85 f0 ec ff ff 	mov    -0x1310(%rbp),%rax
    f686:	8b 00                	mov    (%rax),%eax
    f688:	85 c0                	test   %eax,%eax
    f68a:	0f 85 2d 13 00 00    	jne    109bd <func_38+0x1b2f>
    f690:	c6 85 07 ed ff ff 00 	movb   $0x0,-0x12f9(%rbp)
    f697:	e9 f3 12 00 00       	jmpq   1098f <func_38+0x1b01>
    f69c:	48 8d 05 e9 c9 00 00 	lea    0xc9e9(%rip),%rax        # 1c08c <g_92>
    f6a3:	48 89 85 a0 ee ff ff 	mov    %rax,-0x1160(%rbp)
    f6aa:	c7 85 20 ed ff ff f6 	movl   $0xfffffff6,-0x12e0(%rbp)
    f6b1:	ff ff ff 
    f6b4:	c7 85 24 ed ff ff 00 	movl   $0x0,-0x12dc(%rbp)
    f6bb:	00 00 00 
    f6be:	eb 79                	jmp    f739 <func_38+0x8ab>
    f6c0:	c7 85 28 ed ff ff 00 	movl   $0x0,-0x12d8(%rbp)
    f6c7:	00 00 00 
    f6ca:	eb 5d                	jmp    f729 <func_38+0x89b>
    f6cc:	c7 85 2c ed ff ff 00 	movl   $0x0,-0x12d4(%rbp)
    f6d3:	00 00 00 
    f6d6:	eb 41                	jmp    f719 <func_38+0x88b>
    f6d8:	8b 85 2c ed ff ff    	mov    -0x12d4(%rbp),%eax
    f6de:	48 63 c8             	movslq %eax,%rcx
    f6e1:	8b 85 24 ed ff ff    	mov    -0x12dc(%rbp),%eax
    f6e7:	48 63 d0             	movslq %eax,%rdx
    f6ea:	8b 85 28 ed ff ff    	mov    -0x12d8(%rbp),%eax
    f6f0:	48 63 f0             	movslq %eax,%rsi
    f6f3:	48 89 d0             	mov    %rdx,%rax
    f6f6:	48 c1 e0 02          	shl    $0x2,%rax
    f6fa:	48 01 d0             	add    %rdx,%rax
    f6fd:	48 01 f0             	add    %rsi,%rax
    f700:	48 01 c0             	add    %rax,%rax
    f703:	48 01 c8             	add    %rcx,%rax
    f706:	48 c7 84 c5 70 f5 ff 	movq   $0x0,-0xa90(%rbp,%rax,8)
    f70d:	ff 00 00 00 00 
    f712:	83 85 2c ed ff ff 01 	addl   $0x1,-0x12d4(%rbp)
    f719:	83 bd 2c ed ff ff 01 	cmpl   $0x1,-0x12d4(%rbp)
    f720:	7e b6                	jle    f6d8 <func_38+0x84a>
    f722:	83 85 28 ed ff ff 01 	addl   $0x1,-0x12d8(%rbp)
    f729:	83 bd 28 ed ff ff 04 	cmpl   $0x4,-0x12d8(%rbp)
    f730:	7e 9a                	jle    f6cc <func_38+0x83e>
    f732:	83 85 24 ed ff ff 01 	addl   $0x1,-0x12dc(%rbp)
    f739:	83 bd 24 ed ff ff 02 	cmpl   $0x2,-0x12dc(%rbp)
    f740:	0f 8e 7a ff ff ff    	jle    f6c0 <func_38+0x832>
    f746:	0f b6 85 07 ed ff ff 	movzbl -0x12f9(%rbp),%eax
    f74d:	0f b6 d0             	movzbl %al,%edx
    f750:	48 8b 85 f8 ec ff ff 	mov    -0x1308(%rbp),%rax
    f757:	48 83 c0 03          	add    $0x3,%rax
    f75b:	48 8b b5 f8 ec ff ff 	mov    -0x1308(%rbp),%rsi
    f762:	48 63 ca             	movslq %edx,%rcx
    f765:	48 89 c2             	mov    %rax,%rdx
    f768:	48 c1 e2 02          	shl    $0x2,%rdx
    f76c:	48 01 c2             	add    %rax,%rdx
    f76f:	48 89 c8             	mov    %rcx,%rax
    f772:	48 c1 e0 03          	shl    $0x3,%rax
    f776:	48 01 c8             	add    %rcx,%rax
    f779:	48 c1 e0 02          	shl    $0x2,%rax
    f77d:	48 29 c8             	sub    %rcx,%rax
    f780:	48 01 d0             	add    %rdx,%rax
    f783:	48 01 f0             	add    %rsi,%rax
    f786:	8b 84 85 40 f3 ff ff 	mov    -0xcc0(%rbp,%rax,4),%eax
    f78d:	85 c0                	test   %eax,%eax
    f78f:	0f 85 1f 01 00 00    	jne    f8b4 <func_38+0xa26>
    f795:	0f b6 85 07 ed ff ff 	movzbl -0x12f9(%rbp),%eax
    f79c:	0f b6 c0             	movzbl %al,%eax
    f79f:	0f be 8d ec ec ff ff 	movsbl -0x1314(%rbp),%ecx
    f7a6:	48 63 d0             	movslq %eax,%rdx
    f7a9:	89 8c 95 f4 ee ff ff 	mov    %ecx,-0x110c(%rbp,%rdx,4)
    f7b0:	48 98                	cltq   
    f7b2:	8b 94 85 f4 ee ff ff 	mov    -0x110c(%rbp,%rax,4),%edx
    f7b9:	8b 05 11 9b 00 00    	mov    0x9b11(%rip),%eax        # 192d0 <g_77>
    f7bf:	09 d0                	or     %edx,%eax
    f7c1:	85 c0                	test   %eax,%eax
    f7c3:	74 24                	je     f7e9 <func_38+0x95b>
    f7c5:	48 8b 85 a0 ee ff ff 	mov    -0x1160(%rbp),%rax
    f7cc:	c6 00 01             	movb   $0x1,(%rax)
    f7cf:	be 02 00 00 00       	mov    $0x2,%esi
    f7d4:	bf 01 00 00 00       	mov    $0x1,%edi
    f7d9:	e8 6e 64 ff ff       	callq  5c4c <safe_lshift_func_uint8_t_u_u>
    f7de:	84 c0                	test   %al,%al
    f7e0:	74 07                	je     f7e9 <func_38+0x95b>
    f7e2:	bb 01 00 00 00       	mov    $0x1,%ebx
    f7e7:	eb 05                	jmp    f7ee <func_38+0x960>
    f7e9:	bb 00 00 00 00       	mov    $0x0,%ebx
    f7ee:	48 83 bd f0 ec ff ff 	cmpq   $0x0,-0x1310(%rbp)
    f7f5:	00 
    f7f6:	0f 95 c0             	setne  %al
    f7f9:	0f b6 d0             	movzbl %al,%edx
    f7fc:	8b 05 5e 98 00 00    	mov    0x985e(%rip),%eax        # 19060 <g_12>
    f802:	39 c2                	cmp    %eax,%edx
    f804:	0f 9f c0             	setg   %al
    f807:	0f b6 d0             	movzbl %al,%edx
    f80a:	48 8b 85 f8 ec ff ff 	mov    -0x1308(%rbp),%rax
    f811:	48 21 c2             	and    %rax,%rdx
    f814:	8b 05 5e 98 00 00    	mov    0x985e(%rip),%eax        # 19078 <g_12+0x18>
    f81a:	48 98                	cltq   
    f81c:	48 39 c2             	cmp    %rax,%rdx
    f81f:	0f 96 c0             	setbe  %al
    f822:	0f b6 c0             	movzbl %al,%eax
    f825:	be 07 00 00 00       	mov    $0x7,%esi
    f82a:	89 c7                	mov    %eax,%edi
    f82c:	e8 49 66 ff ff       	callq  5e7a <safe_rshift_func_uint16_t_u_u>
    f831:	0f b7 d0             	movzwl %ax,%edx
    f834:	48 8b 85 98 ee ff ff 	mov    -0x1168(%rbp),%rax
    f83b:	8b 00                	mov    (%rax),%eax
    f83d:	39 c2                	cmp    %eax,%edx
    f83f:	0f 9f c0             	setg   %al
    f842:	0f b6 c0             	movzbl %al,%eax
    f845:	39 c3                	cmp    %eax,%ebx
    f847:	7c 09                	jl     f852 <func_38+0x9c4>
    f849:	80 bd ec ec ff ff 00 	cmpb   $0x0,-0x1314(%rbp)
    f850:	74 07                	je     f859 <func_38+0x9cb>
    f852:	ba 01 00 00 00       	mov    $0x1,%edx
    f857:	eb 05                	jmp    f85e <func_38+0x9d0>
    f859:	ba 00 00 00 00       	mov    $0x0,%edx
    f85e:	48 8b 85 88 ee ff ff 	mov    -0x1178(%rbp),%rax
    f865:	89 10                	mov    %edx,(%rax)
    f867:	48 8b 85 88 ee ff ff 	mov    -0x1178(%rbp),%rax
    f86e:	8b 00                	mov    (%rax),%eax
    f870:	0f be c0             	movsbl %al,%eax
    f873:	be 02 00 00 00       	mov    $0x2,%esi
    f878:	89 c7                	mov    %eax,%edi
    f87a:	e8 ed 5a ff ff       	callq  536c <safe_rshift_func_int8_t_s_u>
    f87f:	0f be c0             	movsbl %al,%eax
    f882:	89 c6                	mov    %eax,%esi
    f884:	bf ff ff ff ff       	mov    $0xffffffff,%edi
    f889:	e8 c7 5b ff ff       	callq  5455 <safe_div_func_int16_t_s_s>
    f88e:	0f b7 c0             	movzwl %ax,%eax
    f891:	be 03 00 00 00       	mov    $0x3,%esi
    f896:	89 c7                	mov    %eax,%edi
    f898:	e8 69 65 ff ff       	callq  5e06 <safe_lshift_func_uint16_t_u_u>
    f89d:	0f b6 c0             	movzbl %al,%eax
    f8a0:	be 03 00 00 00       	mov    $0x3,%esi
    f8a5:	89 c7                	mov    %eax,%edi
    f8a7:	e8 e7 62 ff ff       	callq  5b93 <safe_mul_func_uint8_t_u_u>
    f8ac:	48 83 bd 70 ee ff ff 	cmpq   $0x0,-0x1190(%rbp)
    f8b3:	00 
    f8b4:	48 8b 85 f0 ec ff ff 	mov    -0x1310(%rbp),%rax
    f8bb:	8b 00                	mov    (%rax),%eax
    f8bd:	85 c0                	test   %eax,%eax
    f8bf:	0f 84 a9 01 00 00    	je     fa6e <func_38+0xbe0>
    f8c5:	c6 85 0b ed ff ff 87 	movb   $0x87,-0x12f5(%rbp)
    f8cc:	0f b6 85 07 ed ff ff 	movzbl -0x12f9(%rbp),%eax
    f8d3:	84 c0                	test   %al,%al
    f8d5:	0f 85 6d 01 00 00    	jne    fa48 <func_38+0xbba>
    f8db:	48 8b 05 26 bb 00 00 	mov    0xbb26(%rip),%rax        # 1b408 <g_58>
    f8e2:	48 8b 00             	mov    (%rax),%rax
    f8e5:	8b 00                	mov    (%rax),%eax
    f8e7:	41 89 c5             	mov    %eax,%r13d
    f8ea:	0f b6 85 07 ed ff ff 	movzbl -0x12f9(%rbp),%eax
    f8f1:	0f b6 d0             	movzbl %al,%edx
    f8f4:	48 8b 85 f8 ec ff ff 	mov    -0x1308(%rbp),%rax
    f8fb:	48 83 c0 03          	add    $0x3,%rax
    f8ff:	48 8b b5 f8 ec ff ff 	mov    -0x1308(%rbp),%rsi
    f906:	48 63 ca             	movslq %edx,%rcx
    f909:	48 89 c2             	mov    %rax,%rdx
    f90c:	48 c1 e2 02          	shl    $0x2,%rdx
    f910:	48 01 c2             	add    %rax,%rdx
    f913:	48 89 c8             	mov    %rcx,%rax
    f916:	48 c1 e0 03          	shl    $0x3,%rax
    f91a:	48 01 c8             	add    %rcx,%rax
    f91d:	48 c1 e0 02          	shl    $0x2,%rax
    f921:	48 29 c8             	sub    %rcx,%rax
    f924:	48 01 d0             	add    %rdx,%rax
    f927:	48 01 f0             	add    %rsi,%rax
    f92a:	8b 84 85 40 f3 ff ff 	mov    -0xcc0(%rbp,%rax,4),%eax
    f931:	89 05 c1 99 00 00    	mov    %eax,0x99c1(%rip)        # 192f8 <g_103>
    f937:	8b 1d bb 99 00 00    	mov    0x99bb(%rip),%ebx        # 192f8 <g_103>
    f93d:	0f be 85 ec ec ff ff 	movsbl -0x1314(%rbp),%eax
    f944:	be 4b 00 00 00       	mov    $0x4b,%esi
    f949:	89 c7                	mov    %eax,%edi
    f94b:	e8 e1 58 ff ff       	callq  5231 <safe_mod_func_int8_t_s_s>
    f950:	0f be c0             	movsbl %al,%eax
    f953:	39 c3                	cmp    %eax,%ebx
    f955:	0f 92 c0             	setb   %al
    f958:	0f b6 c0             	movzbl %al,%eax
    f95b:	be 38 00 00 00       	mov    $0x38,%esi
    f960:	89 c7                	mov    %eax,%edi
    f962:	e8 2c 62 ff ff       	callq  5b93 <safe_mul_func_uint8_t_u_u>
    f967:	0f b6 d8             	movzbl %al,%ebx
    f96a:	44 0f be a5 0b ed ff 	movsbl -0x12f5(%rbp),%r12d
    f971:	ff 
    f972:	0f be b5 0b ed ff ff 	movsbl -0x12f5(%rbp),%esi
    f979:	0f b6 85 07 ed ff ff 	movzbl -0x12f9(%rbp),%eax
    f980:	0f b6 d0             	movzbl %al,%edx
    f983:	48 8b 85 f8 ec ff ff 	mov    -0x1308(%rbp),%rax
    f98a:	48 83 c0 03          	add    $0x3,%rax
    f98e:	48 8b bd f8 ec ff ff 	mov    -0x1308(%rbp),%rdi
    f995:	48 63 ca             	movslq %edx,%rcx
    f998:	48 89 c2             	mov    %rax,%rdx
    f99b:	48 c1 e2 02          	shl    $0x2,%rdx
    f99f:	48 01 c2             	add    %rax,%rdx
    f9a2:	48 89 c8             	mov    %rcx,%rax
    f9a5:	48 c1 e0 03          	shl    $0x3,%rax
    f9a9:	48 01 c8             	add    %rcx,%rax
    f9ac:	48 c1 e0 02          	shl    $0x2,%rax
    f9b0:	48 29 c8             	sub    %rcx,%rax
    f9b3:	48 01 d0             	add    %rdx,%rax
    f9b6:	48 01 f8             	add    %rdi,%rax
    f9b9:	8b 84 85 40 f3 ff ff 	mov    -0xcc0(%rbp,%rax,4),%eax
    f9c0:	0f b7 c0             	movzwl %ax,%eax
    f9c3:	89 c7                	mov    %eax,%edi
    f9c5:	e8 7e 64 ff ff       	callq  5e48 <safe_rshift_func_uint16_t_u_s>
    f9ca:	0f b7 c0             	movzwl %ax,%eax
    f9cd:	41 39 c4             	cmp    %eax,%r12d
    f9d0:	0f 9d c0             	setge  %al
    f9d3:	0f b6 c0             	movzbl %al,%eax
    f9d6:	39 c3                	cmp    %eax,%ebx
    f9d8:	0f 9e c0             	setle  %al
    f9db:	0f b6 c0             	movzbl %al,%eax
    f9de:	89 c7                	mov    %eax,%edi
    f9e0:	e8 da 57 ff ff       	callq  51bf <safe_unary_minus_func_int8_t_s>
    f9e5:	0f b6 d0             	movzbl %al,%edx
    f9e8:	8b 05 06 99 00 00    	mov    0x9906(%rip),%eax        # 192f4 <g_79+0x14>
    f9ee:	0f b6 c0             	movzbl %al,%eax
    f9f1:	89 d6                	mov    %edx,%esi
    f9f3:	89 c7                	mov    %eax,%edi
    f9f5:	e8 60 61 ff ff       	callq  5b5a <safe_add_func_uint8_t_u_u>
    f9fa:	0f b6 95 07 ed ff ff 	movzbl -0x12f9(%rbp),%edx
    fa01:	09 d0                	or     %edx,%eax
    fa03:	84 c0                	test   %al,%al
    fa05:	75 0a                	jne    fa11 <func_38+0xb83>
    fa07:	8b 85 fc ee ff ff    	mov    -0x1104(%rbp),%eax
    fa0d:	85 c0                	test   %eax,%eax
    fa0f:	74 07                	je     fa18 <func_38+0xb8a>
    fa11:	ba 01 00 00 00       	mov    $0x1,%edx
    fa16:	eb 05                	jmp    fa1d <func_38+0xb8f>
    fa18:	ba 00 00 00 00       	mov    $0x0,%edx
    fa1d:	48 8b 85 f0 ec ff ff 	mov    -0x1310(%rbp),%rax
    fa24:	8b 00                	mov    (%rax),%eax
    fa26:	09 c2                	or     %eax,%edx
    fa28:	48 8b 85 f0 ec ff ff 	mov    -0x1310(%rbp),%rax
    fa2f:	89 10                	mov    %edx,(%rax)
    fa31:	48 8b 85 f0 ec ff ff 	mov    -0x1310(%rbp),%rax
    fa38:	8b 00                	mov    (%rax),%eax
    fa3a:	44 89 ee             	mov    %r13d,%esi
    fa3d:	89 c7                	mov    %eax,%edi
    fa3f:	e8 72 5b ff ff       	callq  55b6 <safe_add_func_int32_t_s_s>
    fa44:	85 c0                	test   %eax,%eax
    fa46:	74 07                	je     fa4f <func_38+0xbc1>
    fa48:	b8 01 00 00 00       	mov    $0x1,%eax
    fa4d:	eb 05                	jmp    fa54 <func_38+0xbc6>
    fa4f:	b8 00 00 00 00       	mov    $0x0,%eax
    fa54:	21 85 20 ed ff ff    	and    %eax,-0x12e0(%rbp)
    fa5a:	48 8b 85 90 ee ff ff 	mov    -0x1170(%rbp),%rax
    fa61:	8b 95 20 ed ff ff    	mov    -0x12e0(%rbp),%edx
    fa67:	89 10                	mov    %edx,(%rax)
    fa69:	e9 47 0e 00 00       	jmpq   108b5 <func_38+0x1a27>
    fa6e:	48 8d 85 c0 ed ff ff 	lea    -0x1240(%rbp),%rax
    fa75:	48 89 85 40 f8 ff ff 	mov    %rax,-0x7c0(%rbp)
    fa7c:	48 8d 85 c0 ed ff ff 	lea    -0x1240(%rbp),%rax
    fa83:	48 89 85 48 f8 ff ff 	mov    %rax,-0x7b8(%rbp)
    fa8a:	48 8d 85 c8 ed ff ff 	lea    -0x1238(%rbp),%rax
    fa91:	48 89 85 50 f8 ff ff 	mov    %rax,-0x7b0(%rbp)
    fa98:	48 8d 85 c8 ed ff ff 	lea    -0x1238(%rbp),%rax
    fa9f:	48 89 85 58 f8 ff ff 	mov    %rax,-0x7a8(%rbp)
    faa6:	48 8d 85 c0 ed ff ff 	lea    -0x1240(%rbp),%rax
    faad:	48 89 85 60 f8 ff ff 	mov    %rax,-0x7a0(%rbp)
    fab4:	48 8d 85 c8 ed ff ff 	lea    -0x1238(%rbp),%rax
    fabb:	48 89 85 68 f8 ff ff 	mov    %rax,-0x798(%rbp)
    fac2:	48 8d 85 c0 ed ff ff 	lea    -0x1240(%rbp),%rax
    fac9:	48 89 85 70 f8 ff ff 	mov    %rax,-0x790(%rbp)
    fad0:	48 8d 85 c8 ed ff ff 	lea    -0x1238(%rbp),%rax
    fad7:	48 89 85 78 f8 ff ff 	mov    %rax,-0x788(%rbp)
    fade:	48 8d 85 c0 ed ff ff 	lea    -0x1240(%rbp),%rax
    fae5:	48 89 85 80 f8 ff ff 	mov    %rax,-0x780(%rbp)
    faec:	48 8d 85 c0 ed ff ff 	lea    -0x1240(%rbp),%rax
    faf3:	48 89 85 88 f8 ff ff 	mov    %rax,-0x778(%rbp)
    fafa:	48 8d 85 c0 ed ff ff 	lea    -0x1240(%rbp),%rax
    fb01:	48 89 85 90 f8 ff ff 	mov    %rax,-0x770(%rbp)
    fb08:	48 8d 85 c0 ed ff ff 	lea    -0x1240(%rbp),%rax
    fb0f:	48 89 85 98 f8 ff ff 	mov    %rax,-0x768(%rbp)
    fb16:	48 8d 85 c0 ed ff ff 	lea    -0x1240(%rbp),%rax
    fb1d:	48 89 85 a0 f8 ff ff 	mov    %rax,-0x760(%rbp)
    fb24:	48 c7 85 a8 f8 ff ff 	movq   $0x0,-0x758(%rbp)
    fb2b:	00 00 00 00 
    fb2f:	48 8d 85 c0 ed ff ff 	lea    -0x1240(%rbp),%rax
    fb36:	48 89 85 b0 f8 ff ff 	mov    %rax,-0x750(%rbp)
    fb3d:	48 8d 85 c0 ed ff ff 	lea    -0x1240(%rbp),%rax
    fb44:	48 89 85 b8 f8 ff ff 	mov    %rax,-0x748(%rbp)
    fb4b:	48 8d 85 c8 ed ff ff 	lea    -0x1238(%rbp),%rax
    fb52:	48 89 85 c0 f8 ff ff 	mov    %rax,-0x740(%rbp)
    fb59:	48 8d 85 c0 ed ff ff 	lea    -0x1240(%rbp),%rax
    fb60:	48 89 85 c8 f8 ff ff 	mov    %rax,-0x738(%rbp)
    fb67:	48 8d 85 c0 ed ff ff 	lea    -0x1240(%rbp),%rax
    fb6e:	48 89 85 d0 f8 ff ff 	mov    %rax,-0x730(%rbp)
    fb75:	48 8d 85 c0 ed ff ff 	lea    -0x1240(%rbp),%rax
    fb7c:	48 89 85 d8 f8 ff ff 	mov    %rax,-0x728(%rbp)
    fb83:	48 c7 85 e0 f8 ff ff 	movq   $0x0,-0x720(%rbp)
    fb8a:	00 00 00 00 
    fb8e:	48 8d 85 c0 ed ff ff 	lea    -0x1240(%rbp),%rax
    fb95:	48 89 85 e8 f8 ff ff 	mov    %rax,-0x718(%rbp)
    fb9c:	48 8d 85 c0 ed ff ff 	lea    -0x1240(%rbp),%rax
    fba3:	48 89 85 f0 f8 ff ff 	mov    %rax,-0x710(%rbp)
    fbaa:	48 8d 85 c0 ed ff ff 	lea    -0x1240(%rbp),%rax
    fbb1:	48 89 85 f8 f8 ff ff 	mov    %rax,-0x708(%rbp)
    fbb8:	48 8d 85 c0 ed ff ff 	lea    -0x1240(%rbp),%rax
    fbbf:	48 89 85 00 f9 ff ff 	mov    %rax,-0x700(%rbp)
    fbc6:	48 8d 85 c8 ed ff ff 	lea    -0x1238(%rbp),%rax
    fbcd:	48 89 85 08 f9 ff ff 	mov    %rax,-0x6f8(%rbp)
    fbd4:	48 8d 85 c0 ed ff ff 	lea    -0x1240(%rbp),%rax
    fbdb:	48 89 85 10 f9 ff ff 	mov    %rax,-0x6f0(%rbp)
    fbe2:	48 8d 85 c8 ed ff ff 	lea    -0x1238(%rbp),%rax
    fbe9:	48 89 85 18 f9 ff ff 	mov    %rax,-0x6e8(%rbp)
    fbf0:	48 8d 85 c8 ed ff ff 	lea    -0x1238(%rbp),%rax
    fbf7:	48 89 85 20 f9 ff ff 	mov    %rax,-0x6e0(%rbp)
    fbfe:	48 8d 85 c8 ed ff ff 	lea    -0x1238(%rbp),%rax
    fc05:	48 89 85 28 f9 ff ff 	mov    %rax,-0x6d8(%rbp)
    fc0c:	48 8d 85 c0 ed ff ff 	lea    -0x1240(%rbp),%rax
    fc13:	48 89 85 30 f9 ff ff 	mov    %rax,-0x6d0(%rbp)
    fc1a:	48 8d 85 c0 ed ff ff 	lea    -0x1240(%rbp),%rax
    fc21:	48 89 85 38 f9 ff ff 	mov    %rax,-0x6c8(%rbp)
    fc28:	48 8d 85 c8 ed ff ff 	lea    -0x1238(%rbp),%rax
    fc2f:	48 89 85 40 f9 ff ff 	mov    %rax,-0x6c0(%rbp)
    fc36:	48 c7 85 48 f9 ff ff 	movq   $0x0,-0x6b8(%rbp)
    fc3d:	00 00 00 00 
    fc41:	48 8d 85 c8 ed ff ff 	lea    -0x1238(%rbp),%rax
    fc48:	48 89 85 50 f9 ff ff 	mov    %rax,-0x6b0(%rbp)
    fc4f:	48 8d 85 c8 ed ff ff 	lea    -0x1238(%rbp),%rax
    fc56:	48 89 85 58 f9 ff ff 	mov    %rax,-0x6a8(%rbp)
    fc5d:	48 8d 85 c8 ed ff ff 	lea    -0x1238(%rbp),%rax
    fc64:	48 89 85 60 f9 ff ff 	mov    %rax,-0x6a0(%rbp)
    fc6b:	48 8d 85 c0 ed ff ff 	lea    -0x1240(%rbp),%rax
    fc72:	48 89 85 68 f9 ff ff 	mov    %rax,-0x698(%rbp)
    fc79:	48 8d 85 c8 ed ff ff 	lea    -0x1238(%rbp),%rax
    fc80:	48 89 85 70 f9 ff ff 	mov    %rax,-0x690(%rbp)
    fc87:	48 8d 85 c0 ed ff ff 	lea    -0x1240(%rbp),%rax
    fc8e:	48 89 85 78 f9 ff ff 	mov    %rax,-0x688(%rbp)
    fc95:	48 c7 85 80 f9 ff ff 	movq   $0x0,-0x680(%rbp)
    fc9c:	00 00 00 00 
    fca0:	48 8d 85 c0 ed ff ff 	lea    -0x1240(%rbp),%rax
    fca7:	48 89 85 88 f9 ff ff 	mov    %rax,-0x678(%rbp)
    fcae:	48 8d 85 c0 ed ff ff 	lea    -0x1240(%rbp),%rax
    fcb5:	48 89 85 90 f9 ff ff 	mov    %rax,-0x670(%rbp)
    fcbc:	48 8d 85 c8 ed ff ff 	lea    -0x1238(%rbp),%rax
    fcc3:	48 89 85 98 f9 ff ff 	mov    %rax,-0x668(%rbp)
    fcca:	48 8d 85 c8 ed ff ff 	lea    -0x1238(%rbp),%rax
    fcd1:	48 89 85 a0 f9 ff ff 	mov    %rax,-0x660(%rbp)
    fcd8:	48 8d 85 c0 ed ff ff 	lea    -0x1240(%rbp),%rax
    fcdf:	48 89 85 a8 f9 ff ff 	mov    %rax,-0x658(%rbp)
    fce6:	48 8d 85 c0 ed ff ff 	lea    -0x1240(%rbp),%rax
    fced:	48 89 85 b0 f9 ff ff 	mov    %rax,-0x650(%rbp)
    fcf4:	48 8d 85 c8 ed ff ff 	lea    -0x1238(%rbp),%rax
    fcfb:	48 89 85 b8 f9 ff ff 	mov    %rax,-0x648(%rbp)
    fd02:	48 8d 85 c8 ed ff ff 	lea    -0x1238(%rbp),%rax
    fd09:	48 89 85 c0 f9 ff ff 	mov    %rax,-0x640(%rbp)
    fd10:	48 8d 85 c0 ed ff ff 	lea    -0x1240(%rbp),%rax
    fd17:	48 89 85 c8 f9 ff ff 	mov    %rax,-0x638(%rbp)
    fd1e:	48 8d 85 c0 ed ff ff 	lea    -0x1240(%rbp),%rax
    fd25:	48 89 85 d0 f9 ff ff 	mov    %rax,-0x630(%rbp)
    fd2c:	48 8d 85 c8 ed ff ff 	lea    -0x1238(%rbp),%rax
    fd33:	48 89 85 d8 f9 ff ff 	mov    %rax,-0x628(%rbp)
    fd3a:	48 8d 85 c8 ed ff ff 	lea    -0x1238(%rbp),%rax
    fd41:	48 89 85 e0 f9 ff ff 	mov    %rax,-0x620(%rbp)
    fd48:	48 8d 85 c0 ed ff ff 	lea    -0x1240(%rbp),%rax
    fd4f:	48 89 85 e8 f9 ff ff 	mov    %rax,-0x618(%rbp)
    fd56:	48 8d 85 c8 ed ff ff 	lea    -0x1238(%rbp),%rax
    fd5d:	48 89 85 f0 f9 ff ff 	mov    %rax,-0x610(%rbp)
    fd64:	48 8d 85 c0 ed ff ff 	lea    -0x1240(%rbp),%rax
    fd6b:	48 89 85 f8 f9 ff ff 	mov    %rax,-0x608(%rbp)
    fd72:	48 8d 85 c0 ed ff ff 	lea    -0x1240(%rbp),%rax
    fd79:	48 89 85 00 fa ff ff 	mov    %rax,-0x600(%rbp)
    fd80:	48 8d 85 c8 ed ff ff 	lea    -0x1238(%rbp),%rax
    fd87:	48 89 85 08 fa ff ff 	mov    %rax,-0x5f8(%rbp)
    fd8e:	48 8d 85 c8 ed ff ff 	lea    -0x1238(%rbp),%rax
    fd95:	48 89 85 10 fa ff ff 	mov    %rax,-0x5f0(%rbp)
    fd9c:	48 8d 85 c0 ed ff ff 	lea    -0x1240(%rbp),%rax
    fda3:	48 89 85 18 fa ff ff 	mov    %rax,-0x5e8(%rbp)
    fdaa:	48 8d 85 c0 ed ff ff 	lea    -0x1240(%rbp),%rax
    fdb1:	48 89 85 20 fa ff ff 	mov    %rax,-0x5e0(%rbp)
    fdb8:	48 8d 85 c8 ed ff ff 	lea    -0x1238(%rbp),%rax
    fdbf:	48 89 85 28 fa ff ff 	mov    %rax,-0x5d8(%rbp)
    fdc6:	48 8d 85 c8 ed ff ff 	lea    -0x1238(%rbp),%rax
    fdcd:	48 89 85 30 fa ff ff 	mov    %rax,-0x5d0(%rbp)
    fdd4:	48 8d 85 c8 ed ff ff 	lea    -0x1238(%rbp),%rax
    fddb:	48 89 85 38 fa ff ff 	mov    %rax,-0x5c8(%rbp)
    fde2:	48 8d 85 c8 ed ff ff 	lea    -0x1238(%rbp),%rax
    fde9:	48 89 85 40 fa ff ff 	mov    %rax,-0x5c0(%rbp)
    fdf0:	48 8d 85 c0 ed ff ff 	lea    -0x1240(%rbp),%rax
    fdf7:	48 89 85 48 fa ff ff 	mov    %rax,-0x5b8(%rbp)
    fdfe:	48 8d 85 c0 ed ff ff 	lea    -0x1240(%rbp),%rax
    fe05:	48 89 85 50 fa ff ff 	mov    %rax,-0x5b0(%rbp)
    fe0c:	48 8d 85 c0 ed ff ff 	lea    -0x1240(%rbp),%rax
    fe13:	48 89 85 58 fa ff ff 	mov    %rax,-0x5a8(%rbp)
    fe1a:	48 8d 85 c0 ed ff ff 	lea    -0x1240(%rbp),%rax
    fe21:	48 89 85 60 fa ff ff 	mov    %rax,-0x5a0(%rbp)
    fe28:	48 8d 85 c0 ed ff ff 	lea    -0x1240(%rbp),%rax
    fe2f:	48 89 85 68 fa ff ff 	mov    %rax,-0x598(%rbp)
    fe36:	48 8d 85 c0 ed ff ff 	lea    -0x1240(%rbp),%rax
    fe3d:	48 89 85 70 fa ff ff 	mov    %rax,-0x590(%rbp)
    fe44:	48 8d 85 c0 ed ff ff 	lea    -0x1240(%rbp),%rax
    fe4b:	48 89 85 78 fa ff ff 	mov    %rax,-0x588(%rbp)
    fe52:	48 8d 85 c0 ed ff ff 	lea    -0x1240(%rbp),%rax
    fe59:	48 89 85 80 fa ff ff 	mov    %rax,-0x580(%rbp)
    fe60:	48 8d 85 c0 ed ff ff 	lea    -0x1240(%rbp),%rax
    fe67:	48 89 85 88 fa ff ff 	mov    %rax,-0x578(%rbp)
    fe6e:	48 8d 85 c8 ed ff ff 	lea    -0x1238(%rbp),%rax
    fe75:	48 89 85 90 fa ff ff 	mov    %rax,-0x570(%rbp)
    fe7c:	48 c7 85 98 fa ff ff 	movq   $0x0,-0x568(%rbp)
    fe83:	00 00 00 00 
    fe87:	48 8d 85 c0 ed ff ff 	lea    -0x1240(%rbp),%rax
    fe8e:	48 89 85 a0 fa ff ff 	mov    %rax,-0x560(%rbp)
    fe95:	48 8d 85 c0 ed ff ff 	lea    -0x1240(%rbp),%rax
    fe9c:	48 89 85 a8 fa ff ff 	mov    %rax,-0x558(%rbp)
    fea3:	48 8d 85 c0 ed ff ff 	lea    -0x1240(%rbp),%rax
    feaa:	48 89 85 b0 fa ff ff 	mov    %rax,-0x550(%rbp)
    feb1:	48 8d 85 c8 ed ff ff 	lea    -0x1238(%rbp),%rax
    feb8:	48 89 85 b8 fa ff ff 	mov    %rax,-0x548(%rbp)
    febf:	48 8d 85 c8 ed ff ff 	lea    -0x1238(%rbp),%rax
    fec6:	48 89 85 c0 fa ff ff 	mov    %rax,-0x540(%rbp)
    fecd:	48 8d 85 c0 ed ff ff 	lea    -0x1240(%rbp),%rax
    fed4:	48 89 85 c8 fa ff ff 	mov    %rax,-0x538(%rbp)
    fedb:	48 c7 85 d0 fa ff ff 	movq   $0x0,-0x530(%rbp)
    fee2:	00 00 00 00 
    fee6:	48 8d 85 c0 ed ff ff 	lea    -0x1240(%rbp),%rax
    feed:	48 89 85 d8 fa ff ff 	mov    %rax,-0x528(%rbp)
    fef4:	48 c7 85 e0 fa ff ff 	movq   $0x0,-0x520(%rbp)
    fefb:	00 00 00 00 
    feff:	48 8d 85 c0 ed ff ff 	lea    -0x1240(%rbp),%rax
    ff06:	48 89 85 e8 fa ff ff 	mov    %rax,-0x518(%rbp)
    ff0d:	48 8d 85 c8 ed ff ff 	lea    -0x1238(%rbp),%rax
    ff14:	48 89 85 f0 fa ff ff 	mov    %rax,-0x510(%rbp)
    ff1b:	48 c7 85 f8 fa ff ff 	movq   $0x0,-0x508(%rbp)
    ff22:	00 00 00 00 
    ff26:	48 8d 85 c0 ed ff ff 	lea    -0x1240(%rbp),%rax
    ff2d:	48 89 85 00 fb ff ff 	mov    %rax,-0x500(%rbp)
    ff34:	48 8d 85 c0 ed ff ff 	lea    -0x1240(%rbp),%rax
    ff3b:	48 89 85 08 fb ff ff 	mov    %rax,-0x4f8(%rbp)
    ff42:	48 8d 85 c8 ed ff ff 	lea    -0x1238(%rbp),%rax
    ff49:	48 89 85 10 fb ff ff 	mov    %rax,-0x4f0(%rbp)
    ff50:	48 8d 85 c8 ed ff ff 	lea    -0x1238(%rbp),%rax
    ff57:	48 89 85 18 fb ff ff 	mov    %rax,-0x4e8(%rbp)
    ff5e:	48 8d 85 c0 ed ff ff 	lea    -0x1240(%rbp),%rax
    ff65:	48 89 85 20 fb ff ff 	mov    %rax,-0x4e0(%rbp)
    ff6c:	48 c7 85 28 fb ff ff 	movq   $0x0,-0x4d8(%rbp)
    ff73:	00 00 00 00 
    ff77:	48 8d 85 c0 ed ff ff 	lea    -0x1240(%rbp),%rax
    ff7e:	48 89 85 30 fb ff ff 	mov    %rax,-0x4d0(%rbp)
    ff85:	48 8d 85 c0 ed ff ff 	lea    -0x1240(%rbp),%rax
    ff8c:	48 89 85 38 fb ff ff 	mov    %rax,-0x4c8(%rbp)
    ff93:	48 8d 85 c0 ed ff ff 	lea    -0x1240(%rbp),%rax
    ff9a:	48 89 85 40 fb ff ff 	mov    %rax,-0x4c0(%rbp)
    ffa1:	48 8d 85 c8 ed ff ff 	lea    -0x1238(%rbp),%rax
    ffa8:	48 89 85 48 fb ff ff 	mov    %rax,-0x4b8(%rbp)
    ffaf:	48 8d 85 c8 ed ff ff 	lea    -0x1238(%rbp),%rax
    ffb6:	48 89 85 50 fb ff ff 	mov    %rax,-0x4b0(%rbp)
    ffbd:	48 8d 85 c0 ed ff ff 	lea    -0x1240(%rbp),%rax
    ffc4:	48 89 85 58 fb ff ff 	mov    %rax,-0x4a8(%rbp)
    ffcb:	48 8d 85 c8 ed ff ff 	lea    -0x1238(%rbp),%rax
    ffd2:	48 89 85 60 fb ff ff 	mov    %rax,-0x4a0(%rbp)
    ffd9:	48 8d 85 c0 ed ff ff 	lea    -0x1240(%rbp),%rax
    ffe0:	48 89 85 68 fb ff ff 	mov    %rax,-0x498(%rbp)
    ffe7:	48 8d 85 c8 ed ff ff 	lea    -0x1238(%rbp),%rax
    ffee:	48 89 85 70 fb ff ff 	mov    %rax,-0x490(%rbp)
    fff5:	48 8d 85 c8 ed ff ff 	lea    -0x1238(%rbp),%rax
    fffc:	48 89 85 78 fb ff ff 	mov    %rax,-0x488(%rbp)
   10003:	48 8d 85 c0 ed ff ff 	lea    -0x1240(%rbp),%rax
   1000a:	48 89 85 80 fb ff ff 	mov    %rax,-0x480(%rbp)
   10011:	48 8d 85 c0 ed ff ff 	lea    -0x1240(%rbp),%rax
   10018:	48 89 85 88 fb ff ff 	mov    %rax,-0x478(%rbp)
   1001f:	48 8d 85 c0 ed ff ff 	lea    -0x1240(%rbp),%rax
   10026:	48 89 85 90 fb ff ff 	mov    %rax,-0x470(%rbp)
   1002d:	48 8d 85 c0 ed ff ff 	lea    -0x1240(%rbp),%rax
   10034:	48 89 85 98 fb ff ff 	mov    %rax,-0x468(%rbp)
   1003b:	48 8d 85 c8 ed ff ff 	lea    -0x1238(%rbp),%rax
   10042:	48 89 85 a0 fb ff ff 	mov    %rax,-0x460(%rbp)
   10049:	48 c7 85 a8 fb ff ff 	movq   $0x0,-0x458(%rbp)
   10050:	00 00 00 00 
   10054:	48 8d 85 c0 ed ff ff 	lea    -0x1240(%rbp),%rax
   1005b:	48 89 85 b0 fb ff ff 	mov    %rax,-0x450(%rbp)
   10062:	48 8d 85 c0 ed ff ff 	lea    -0x1240(%rbp),%rax
   10069:	48 89 85 b8 fb ff ff 	mov    %rax,-0x448(%rbp)
   10070:	48 8d 85 c0 ed ff ff 	lea    -0x1240(%rbp),%rax
   10077:	48 89 85 c0 fb ff ff 	mov    %rax,-0x440(%rbp)
   1007e:	48 8d 85 c8 ed ff ff 	lea    -0x1238(%rbp),%rax
   10085:	48 89 85 c8 fb ff ff 	mov    %rax,-0x438(%rbp)
   1008c:	48 8d 85 c0 ed ff ff 	lea    -0x1240(%rbp),%rax
   10093:	48 89 85 d0 fb ff ff 	mov    %rax,-0x430(%rbp)
   1009a:	48 c7 85 d8 fb ff ff 	movq   $0x0,-0x428(%rbp)
   100a1:	00 00 00 00 
   100a5:	48 8d 85 c8 ed ff ff 	lea    -0x1238(%rbp),%rax
   100ac:	48 89 85 e0 fb ff ff 	mov    %rax,-0x420(%rbp)
   100b3:	48 8d 85 c0 ed ff ff 	lea    -0x1240(%rbp),%rax
   100ba:	48 89 85 e8 fb ff ff 	mov    %rax,-0x418(%rbp)
   100c1:	48 8d 85 c8 ed ff ff 	lea    -0x1238(%rbp),%rax
   100c8:	48 89 85 f0 fb ff ff 	mov    %rax,-0x410(%rbp)
   100cf:	48 8d 85 c0 ed ff ff 	lea    -0x1240(%rbp),%rax
   100d6:	48 89 85 f8 fb ff ff 	mov    %rax,-0x408(%rbp)
   100dd:	48 8d 85 c8 ed ff ff 	lea    -0x1238(%rbp),%rax
   100e4:	48 89 85 00 fc ff ff 	mov    %rax,-0x400(%rbp)
   100eb:	48 8d 85 c0 ed ff ff 	lea    -0x1240(%rbp),%rax
   100f2:	48 89 85 08 fc ff ff 	mov    %rax,-0x3f8(%rbp)
   100f9:	48 8d 85 c8 ed ff ff 	lea    -0x1238(%rbp),%rax
   10100:	48 89 85 10 fc ff ff 	mov    %rax,-0x3f0(%rbp)
   10107:	48 8d 85 c0 ed ff ff 	lea    -0x1240(%rbp),%rax
   1010e:	48 89 85 18 fc ff ff 	mov    %rax,-0x3e8(%rbp)
   10115:	48 8d 85 c8 ed ff ff 	lea    -0x1238(%rbp),%rax
   1011c:	48 89 85 20 fc ff ff 	mov    %rax,-0x3e0(%rbp)
   10123:	48 8d 85 c8 ed ff ff 	lea    -0x1238(%rbp),%rax
   1012a:	48 89 85 28 fc ff ff 	mov    %rax,-0x3d8(%rbp)
   10131:	48 8d 85 c0 ed ff ff 	lea    -0x1240(%rbp),%rax
   10138:	48 89 85 30 fc ff ff 	mov    %rax,-0x3d0(%rbp)
   1013f:	48 8d 85 c0 ed ff ff 	lea    -0x1240(%rbp),%rax
   10146:	48 89 85 38 fc ff ff 	mov    %rax,-0x3c8(%rbp)
   1014d:	48 8d 85 c8 ed ff ff 	lea    -0x1238(%rbp),%rax
   10154:	48 89 85 40 fc ff ff 	mov    %rax,-0x3c0(%rbp)
   1015b:	48 8d 85 c8 ed ff ff 	lea    -0x1238(%rbp),%rax
   10162:	48 89 85 48 fc ff ff 	mov    %rax,-0x3b8(%rbp)
   10169:	48 c7 85 50 fc ff ff 	movq   $0x0,-0x3b0(%rbp)
   10170:	00 00 00 00 
   10174:	48 8d 85 c8 ed ff ff 	lea    -0x1238(%rbp),%rax
   1017b:	48 89 85 58 fc ff ff 	mov    %rax,-0x3a8(%rbp)
   10182:	48 8d 85 c8 ed ff ff 	lea    -0x1238(%rbp),%rax
   10189:	48 89 85 60 fc ff ff 	mov    %rax,-0x3a0(%rbp)
   10190:	48 8d 85 c0 ed ff ff 	lea    -0x1240(%rbp),%rax
   10197:	48 89 85 68 fc ff ff 	mov    %rax,-0x398(%rbp)
   1019e:	48 8d 85 c0 ed ff ff 	lea    -0x1240(%rbp),%rax
   101a5:	48 89 85 70 fc ff ff 	mov    %rax,-0x390(%rbp)
   101ac:	48 8d 85 c8 ed ff ff 	lea    -0x1238(%rbp),%rax
   101b3:	48 89 85 78 fc ff ff 	mov    %rax,-0x388(%rbp)
   101ba:	48 c7 85 80 fc ff ff 	movq   $0x0,-0x380(%rbp)
   101c1:	00 00 00 00 
   101c5:	48 8d 85 c0 ed ff ff 	lea    -0x1240(%rbp),%rax
   101cc:	48 89 85 88 fc ff ff 	mov    %rax,-0x378(%rbp)
   101d3:	48 8d 85 c8 ed ff ff 	lea    -0x1238(%rbp),%rax
   101da:	48 89 85 90 fc ff ff 	mov    %rax,-0x370(%rbp)
   101e1:	48 8d 85 c0 ed ff ff 	lea    -0x1240(%rbp),%rax
   101e8:	48 89 85 98 fc ff ff 	mov    %rax,-0x368(%rbp)
   101ef:	48 c7 85 a0 fc ff ff 	movq   $0x0,-0x360(%rbp)
   101f6:	00 00 00 00 
   101fa:	48 8d 85 c0 ed ff ff 	lea    -0x1240(%rbp),%rax
   10201:	48 89 85 a8 fc ff ff 	mov    %rax,-0x358(%rbp)
   10208:	48 8d 85 c8 ed ff ff 	lea    -0x1238(%rbp),%rax
   1020f:	48 89 85 b0 fc ff ff 	mov    %rax,-0x350(%rbp)
   10216:	48 c7 85 b8 fc ff ff 	movq   $0x0,-0x348(%rbp)
   1021d:	00 00 00 00 
   10221:	48 8d 85 c0 ed ff ff 	lea    -0x1240(%rbp),%rax
   10228:	48 89 85 c0 fc ff ff 	mov    %rax,-0x340(%rbp)
   1022f:	48 8d 85 c8 ed ff ff 	lea    -0x1238(%rbp),%rax
   10236:	48 89 85 c8 fc ff ff 	mov    %rax,-0x338(%rbp)
   1023d:	48 8d 85 c8 ed ff ff 	lea    -0x1238(%rbp),%rax
   10244:	48 89 85 d0 fc ff ff 	mov    %rax,-0x330(%rbp)
   1024b:	48 8d 85 c8 ed ff ff 	lea    -0x1238(%rbp),%rax
   10252:	48 89 85 d8 fc ff ff 	mov    %rax,-0x328(%rbp)
   10259:	48 8d 85 c8 ed ff ff 	lea    -0x1238(%rbp),%rax
   10260:	48 89 85 e0 fc ff ff 	mov    %rax,-0x320(%rbp)
   10267:	48 8d 85 c0 ed ff ff 	lea    -0x1240(%rbp),%rax
   1026e:	48 89 85 e8 fc ff ff 	mov    %rax,-0x318(%rbp)
   10275:	48 8d 85 c0 ed ff ff 	lea    -0x1240(%rbp),%rax
   1027c:	48 89 85 f0 fc ff ff 	mov    %rax,-0x310(%rbp)
   10283:	48 8d 85 c0 ed ff ff 	lea    -0x1240(%rbp),%rax
   1028a:	48 89 85 f8 fc ff ff 	mov    %rax,-0x308(%rbp)
   10291:	48 8d 85 c8 ed ff ff 	lea    -0x1238(%rbp),%rax
   10298:	48 89 85 00 fd ff ff 	mov    %rax,-0x300(%rbp)
   1029f:	48 8d 85 c0 ed ff ff 	lea    -0x1240(%rbp),%rax
   102a6:	48 89 85 08 fd ff ff 	mov    %rax,-0x2f8(%rbp)
   102ad:	48 8d 85 c0 ed ff ff 	lea    -0x1240(%rbp),%rax
   102b4:	48 89 85 10 fd ff ff 	mov    %rax,-0x2f0(%rbp)
   102bb:	48 8d 85 c0 ed ff ff 	lea    -0x1240(%rbp),%rax
   102c2:	48 89 85 18 fd ff ff 	mov    %rax,-0x2e8(%rbp)
   102c9:	48 8d 85 c0 ed ff ff 	lea    -0x1240(%rbp),%rax
   102d0:	48 89 85 20 fd ff ff 	mov    %rax,-0x2e0(%rbp)
   102d7:	48 c7 85 28 fd ff ff 	movq   $0x0,-0x2d8(%rbp)
   102de:	00 00 00 00 
   102e2:	48 8d 85 c8 ed ff ff 	lea    -0x1238(%rbp),%rax
   102e9:	48 89 85 30 fd ff ff 	mov    %rax,-0x2d0(%rbp)
   102f0:	48 8d 85 c8 ed ff ff 	lea    -0x1238(%rbp),%rax
   102f7:	48 89 85 38 fd ff ff 	mov    %rax,-0x2c8(%rbp)
   102fe:	48 8d 85 c0 ed ff ff 	lea    -0x1240(%rbp),%rax
   10305:	48 89 85 40 fd ff ff 	mov    %rax,-0x2c0(%rbp)
   1030c:	48 8d 85 c0 ed ff ff 	lea    -0x1240(%rbp),%rax
   10313:	48 89 85 48 fd ff ff 	mov    %rax,-0x2b8(%rbp)
   1031a:	48 8d 85 c0 ed ff ff 	lea    -0x1240(%rbp),%rax
   10321:	48 89 85 50 fd ff ff 	mov    %rax,-0x2b0(%rbp)
   10328:	48 c7 85 58 fd ff ff 	movq   $0x0,-0x2a8(%rbp)
   1032f:	00 00 00 00 
   10333:	48 8d 85 c8 ed ff ff 	lea    -0x1238(%rbp),%rax
   1033a:	48 89 85 60 fd ff ff 	mov    %rax,-0x2a0(%rbp)
   10341:	48 8d 85 c8 ed ff ff 	lea    -0x1238(%rbp),%rax
   10348:	48 89 85 68 fd ff ff 	mov    %rax,-0x298(%rbp)
   1034f:	48 8d 85 c8 ed ff ff 	lea    -0x1238(%rbp),%rax
   10356:	48 89 85 70 fd ff ff 	mov    %rax,-0x290(%rbp)
   1035d:	48 c7 85 78 fd ff ff 	movq   $0x0,-0x288(%rbp)
   10364:	00 00 00 00 
   10368:	48 8d 85 c0 ed ff ff 	lea    -0x1240(%rbp),%rax
   1036f:	48 89 85 80 fd ff ff 	mov    %rax,-0x280(%rbp)
   10376:	48 8d 85 c0 ed ff ff 	lea    -0x1240(%rbp),%rax
   1037d:	48 89 85 88 fd ff ff 	mov    %rax,-0x278(%rbp)
   10384:	48 8d 85 c0 ed ff ff 	lea    -0x1240(%rbp),%rax
   1038b:	48 89 85 90 fd ff ff 	mov    %rax,-0x270(%rbp)
   10392:	48 8d 85 c0 ed ff ff 	lea    -0x1240(%rbp),%rax
   10399:	48 89 85 98 fd ff ff 	mov    %rax,-0x268(%rbp)
   103a0:	48 8d 85 c0 ed ff ff 	lea    -0x1240(%rbp),%rax
   103a7:	48 89 85 a0 fd ff ff 	mov    %rax,-0x260(%rbp)
   103ae:	48 8d 85 c0 ed ff ff 	lea    -0x1240(%rbp),%rax
   103b5:	48 89 85 a8 fd ff ff 	mov    %rax,-0x258(%rbp)
   103bc:	48 c7 85 b0 fd ff ff 	movq   $0x0,-0x250(%rbp)
   103c3:	00 00 00 00 
   103c7:	48 8d 85 c8 ed ff ff 	lea    -0x1238(%rbp),%rax
   103ce:	48 89 85 b8 fd ff ff 	mov    %rax,-0x248(%rbp)
   103d5:	48 8d 85 c8 ed ff ff 	lea    -0x1238(%rbp),%rax
   103dc:	48 89 85 c0 fd ff ff 	mov    %rax,-0x240(%rbp)
   103e3:	48 8d 85 c8 ed ff ff 	lea    -0x1238(%rbp),%rax
   103ea:	48 89 85 c8 fd ff ff 	mov    %rax,-0x238(%rbp)
   103f1:	48 8d 85 c8 ed ff ff 	lea    -0x1238(%rbp),%rax
   103f8:	48 89 85 d0 fd ff ff 	mov    %rax,-0x230(%rbp)
   103ff:	48 8d 85 c0 ed ff ff 	lea    -0x1240(%rbp),%rax
   10406:	48 89 85 d8 fd ff ff 	mov    %rax,-0x228(%rbp)
   1040d:	48 c7 85 e0 fd ff ff 	movq   $0x0,-0x220(%rbp)
   10414:	00 00 00 00 
   10418:	48 8d 85 c0 ed ff ff 	lea    -0x1240(%rbp),%rax
   1041f:	48 89 85 e8 fd ff ff 	mov    %rax,-0x218(%rbp)
   10426:	48 c7 85 f0 fd ff ff 	movq   $0x0,-0x210(%rbp)
   1042d:	00 00 00 00 
   10431:	48 c7 85 f8 fd ff ff 	movq   $0x0,-0x208(%rbp)
   10438:	00 00 00 00 
   1043c:	48 8d 85 c0 ed ff ff 	lea    -0x1240(%rbp),%rax
   10443:	48 89 85 00 fe ff ff 	mov    %rax,-0x200(%rbp)
   1044a:	48 8d 85 c0 ed ff ff 	lea    -0x1240(%rbp),%rax
   10451:	48 89 85 08 fe ff ff 	mov    %rax,-0x1f8(%rbp)
   10458:	48 8d 85 c0 ed ff ff 	lea    -0x1240(%rbp),%rax
   1045f:	48 89 85 10 fe ff ff 	mov    %rax,-0x1f0(%rbp)
   10466:	48 8d 85 c0 ed ff ff 	lea    -0x1240(%rbp),%rax
   1046d:	48 89 85 18 fe ff ff 	mov    %rax,-0x1e8(%rbp)
   10474:	48 c7 85 20 fe ff ff 	movq   $0x0,-0x1e0(%rbp)
   1047b:	00 00 00 00 
   1047f:	48 8d 85 c0 ed ff ff 	lea    -0x1240(%rbp),%rax
   10486:	48 89 85 28 fe ff ff 	mov    %rax,-0x1d8(%rbp)
   1048d:	48 8d 85 c0 ed ff ff 	lea    -0x1240(%rbp),%rax
   10494:	48 89 85 30 fe ff ff 	mov    %rax,-0x1d0(%rbp)
   1049b:	48 c7 85 38 fe ff ff 	movq   $0x0,-0x1c8(%rbp)
   104a2:	00 00 00 00 
   104a6:	48 c7 85 40 fe ff ff 	movq   $0x0,-0x1c0(%rbp)
   104ad:	00 00 00 00 
   104b1:	48 8d 85 c0 ed ff ff 	lea    -0x1240(%rbp),%rax
   104b8:	48 89 85 48 fe ff ff 	mov    %rax,-0x1b8(%rbp)
   104bf:	48 8d 85 c8 ed ff ff 	lea    -0x1238(%rbp),%rax
   104c6:	48 89 85 50 fe ff ff 	mov    %rax,-0x1b0(%rbp)
   104cd:	48 8d 85 c0 ed ff ff 	lea    -0x1240(%rbp),%rax
   104d4:	48 89 85 58 fe ff ff 	mov    %rax,-0x1a8(%rbp)
   104db:	48 8d 85 c8 ed ff ff 	lea    -0x1238(%rbp),%rax
   104e2:	48 89 85 60 fe ff ff 	mov    %rax,-0x1a0(%rbp)
   104e9:	48 8d 85 c0 ed ff ff 	lea    -0x1240(%rbp),%rax
   104f0:	48 89 85 68 fe ff ff 	mov    %rax,-0x198(%rbp)
   104f7:	48 8d 85 c0 ed ff ff 	lea    -0x1240(%rbp),%rax
   104fe:	48 89 85 70 fe ff ff 	mov    %rax,-0x190(%rbp)
   10505:	48 8d 85 c8 ed ff ff 	lea    -0x1238(%rbp),%rax
   1050c:	48 89 85 78 fe ff ff 	mov    %rax,-0x188(%rbp)
   10513:	48 8d 85 c8 ed ff ff 	lea    -0x1238(%rbp),%rax
   1051a:	48 89 85 80 fe ff ff 	mov    %rax,-0x180(%rbp)
   10521:	48 8d 85 c0 ed ff ff 	lea    -0x1240(%rbp),%rax
   10528:	48 89 85 88 fe ff ff 	mov    %rax,-0x178(%rbp)
   1052f:	48 8d 85 c0 ed ff ff 	lea    -0x1240(%rbp),%rax
   10536:	48 89 85 90 fe ff ff 	mov    %rax,-0x170(%rbp)
   1053d:	48 8d 85 c0 ed ff ff 	lea    -0x1240(%rbp),%rax
   10544:	48 89 85 98 fe ff ff 	mov    %rax,-0x168(%rbp)
   1054b:	48 8d 85 c8 ed ff ff 	lea    -0x1238(%rbp),%rax
   10552:	48 89 85 a0 fe ff ff 	mov    %rax,-0x160(%rbp)
   10559:	48 8d 85 c0 ed ff ff 	lea    -0x1240(%rbp),%rax
   10560:	48 89 85 a8 fe ff ff 	mov    %rax,-0x158(%rbp)
   10567:	48 c7 85 b0 fe ff ff 	movq   $0x0,-0x150(%rbp)
   1056e:	00 00 00 00 
   10572:	48 8d 85 c0 ed ff ff 	lea    -0x1240(%rbp),%rax
   10579:	48 89 85 b8 fe ff ff 	mov    %rax,-0x148(%rbp)
   10580:	48 8d 85 c8 ed ff ff 	lea    -0x1238(%rbp),%rax
   10587:	48 89 85 c0 fe ff ff 	mov    %rax,-0x140(%rbp)
   1058e:	48 8d 85 c8 ed ff ff 	lea    -0x1238(%rbp),%rax
   10595:	48 89 85 c8 fe ff ff 	mov    %rax,-0x138(%rbp)
   1059c:	48 8d 85 c8 ed ff ff 	lea    -0x1238(%rbp),%rax
   105a3:	48 89 85 d0 fe ff ff 	mov    %rax,-0x130(%rbp)
   105aa:	48 8d 85 c0 ed ff ff 	lea    -0x1240(%rbp),%rax
   105b1:	48 89 85 d8 fe ff ff 	mov    %rax,-0x128(%rbp)
   105b8:	48 8d 85 c0 ed ff ff 	lea    -0x1240(%rbp),%rax
   105bf:	48 89 85 e0 fe ff ff 	mov    %rax,-0x120(%rbp)
   105c6:	48 c7 85 e8 fe ff ff 	movq   $0x0,-0x118(%rbp)
   105cd:	00 00 00 00 
   105d1:	48 8d 85 c0 ed ff ff 	lea    -0x1240(%rbp),%rax
   105d8:	48 89 85 f0 fe ff ff 	mov    %rax,-0x110(%rbp)
   105df:	48 8d 85 c8 ed ff ff 	lea    -0x1238(%rbp),%rax
   105e6:	48 89 85 f8 fe ff ff 	mov    %rax,-0x108(%rbp)
   105ed:	48 8d 85 c8 ed ff ff 	lea    -0x1238(%rbp),%rax
   105f4:	48 89 85 00 ff ff ff 	mov    %rax,-0x100(%rbp)
   105fb:	48 8d 85 c8 ed ff ff 	lea    -0x1238(%rbp),%rax
   10602:	48 89 85 08 ff ff ff 	mov    %rax,-0xf8(%rbp)
   10609:	48 8d 85 c8 ed ff ff 	lea    -0x1238(%rbp),%rax
   10610:	48 89 85 10 ff ff ff 	mov    %rax,-0xf0(%rbp)
   10617:	48 8d 85 c0 ed ff ff 	lea    -0x1240(%rbp),%rax
   1061e:	48 89 85 18 ff ff ff 	mov    %rax,-0xe8(%rbp)
   10625:	48 8d 85 c0 ed ff ff 	lea    -0x1240(%rbp),%rax
   1062c:	48 89 85 20 ff ff ff 	mov    %rax,-0xe0(%rbp)
   10633:	48 8d 85 c8 ed ff ff 	lea    -0x1238(%rbp),%rax
   1063a:	48 89 85 28 ff ff ff 	mov    %rax,-0xd8(%rbp)
   10641:	48 8d 85 c0 ed ff ff 	lea    -0x1240(%rbp),%rax
   10648:	48 89 85 30 ff ff ff 	mov    %rax,-0xd0(%rbp)
   1064f:	48 8d 85 c0 ed ff ff 	lea    -0x1240(%rbp),%rax
   10656:	48 89 85 38 ff ff ff 	mov    %rax,-0xc8(%rbp)
   1065d:	48 8d 85 c8 ed ff ff 	lea    -0x1238(%rbp),%rax
   10664:	48 89 85 40 ff ff ff 	mov    %rax,-0xc0(%rbp)
   1066b:	48 8d 85 c0 ed ff ff 	lea    -0x1240(%rbp),%rax
   10672:	48 89 85 48 ff ff ff 	mov    %rax,-0xb8(%rbp)
   10679:	48 8d 85 c8 ed ff ff 	lea    -0x1238(%rbp),%rax
   10680:	48 89 85 50 ff ff ff 	mov    %rax,-0xb0(%rbp)
   10687:	48 8d 85 c8 ed ff ff 	lea    -0x1238(%rbp),%rax
   1068e:	48 89 85 58 ff ff ff 	mov    %rax,-0xa8(%rbp)
   10695:	48 8d 85 c8 ed ff ff 	lea    -0x1238(%rbp),%rax
   1069c:	48 89 85 60 ff ff ff 	mov    %rax,-0xa0(%rbp)
   106a3:	48 8d 85 c8 ed ff ff 	lea    -0x1238(%rbp),%rax
   106aa:	48 89 85 68 ff ff ff 	mov    %rax,-0x98(%rbp)
   106b1:	48 c7 85 70 ff ff ff 	movq   $0x0,-0x90(%rbp)
   106b8:	00 00 00 00 
   106bc:	48 8d 85 c0 ed ff ff 	lea    -0x1240(%rbp),%rax
   106c3:	48 89 85 78 ff ff ff 	mov    %rax,-0x88(%rbp)
   106ca:	48 8d 85 c0 ed ff ff 	lea    -0x1240(%rbp),%rax
   106d1:	48 89 45 80          	mov    %rax,-0x80(%rbp)
   106d5:	48 8d 85 c8 ed ff ff 	lea    -0x1238(%rbp),%rax
   106dc:	48 89 45 88          	mov    %rax,-0x78(%rbp)
   106e0:	48 8d 85 c0 ed ff ff 	lea    -0x1240(%rbp),%rax
   106e7:	48 89 45 90          	mov    %rax,-0x70(%rbp)
   106eb:	48 c7 45 98 00 00 00 	movq   $0x0,-0x68(%rbp)
   106f2:	00 
   106f3:	48 c7 45 a0 00 00 00 	movq   $0x0,-0x60(%rbp)
   106fa:	00 
   106fb:	48 8d 85 c8 ed ff ff 	lea    -0x1238(%rbp),%rax
   10702:	48 89 45 a8          	mov    %rax,-0x58(%rbp)
   10706:	48 c7 45 b0 00 00 00 	movq   $0x0,-0x50(%rbp)
   1070d:	00 
   1070e:	48 8d 85 c8 ed ff ff 	lea    -0x1238(%rbp),%rax
   10715:	48 89 45 b8          	mov    %rax,-0x48(%rbp)
   10719:	48 8d 85 f4 ee ff ff 	lea    -0x110c(%rbp),%rax
   10720:	48 83 c0 04          	add    $0x4,%rax
   10724:	48 89 85 a8 ee ff ff 	mov    %rax,-0x1158(%rbp)
   1072b:	c7 85 68 ed ff ff 00 	movl   $0x0,-0x1298(%rbp)
   10732:	00 00 00 
   10735:	0f b6 85 07 ed ff ff 	movzbl -0x12f9(%rbp),%eax
   1073c:	0f b6 d0             	movzbl %al,%edx
   1073f:	48 8b 85 f8 ec ff ff 	mov    -0x1308(%rbp),%rax
   10746:	48 83 c0 03          	add    $0x3,%rax
   1074a:	48 8b b5 f8 ec ff ff 	mov    -0x1308(%rbp),%rsi
   10751:	48 63 ca             	movslq %edx,%rcx
   10754:	48 89 c2             	mov    %rax,%rdx
   10757:	48 c1 e2 02          	shl    $0x2,%rdx
   1075b:	48 01 c2             	add    %rax,%rdx
   1075e:	48 89 c8             	mov    %rcx,%rax
   10761:	48 c1 e0 03          	shl    $0x3,%rax
   10765:	48 01 c8             	add    %rcx,%rax
   10768:	48 c1 e0 02          	shl    $0x2,%rax
   1076c:	48 29 c8             	sub    %rcx,%rax
   1076f:	48 01 d0             	add    %rdx,%rax
   10772:	48 01 f0             	add    %rsi,%rax
   10775:	8b 84 85 40 f3 ff ff 	mov    -0xcc0(%rbp,%rax,4),%eax
   1077c:	85 c0                	test   %eax,%eax
   1077e:	0f 85 1a 02 00 00    	jne    1099e <func_38+0x1b10>
   10784:	8b 05 b6 88 00 00    	mov    0x88b6(%rip),%eax        # 19040 <g_8>
   1078a:	21 85 20 ed ff ff    	and    %eax,-0x12e0(%rbp)
   10790:	48 8b 05 79 ac 00 00 	mov    0xac79(%rip),%rax        # 1b410 <g_57>
   10797:	48 8b 00             	mov    (%rax),%rax
   1079a:	0f b6 85 08 ed ff ff 	movzbl -0x12f8(%rbp),%eax
   107a1:	0f be d0             	movsbl %al,%edx
   107a4:	48 8b 85 f0 ec ff ff 	mov    -0x1310(%rbp),%rax
   107ab:	8b 00                	mov    (%rax),%eax
   107ad:	89 d6                	mov    %edx,%esi
   107af:	89 c7                	mov    %eax,%edi
   107b1:	e8 00 4e ff ff       	callq  55b6 <safe_add_func_int32_t_s_s>
   107b6:	48 8b 05 43 ac 00 00 	mov    0xac43(%rip),%rax        # 1b400 <g_59>
   107bd:	8b 10                	mov    (%rax),%edx
   107bf:	48 8b 85 a8 ee ff ff 	mov    -0x1158(%rbp),%rax
   107c6:	89 10                	mov    %edx,(%rax)
   107c8:	48 8b 85 a8 ee ff ff 	mov    -0x1158(%rbp),%rax
   107cf:	8b 00                	mov    (%rax),%eax
   107d1:	83 c8 f7             	or     $0xfffffff7,%eax
   107d4:	0f be c0             	movsbl %al,%eax
   107d7:	48 8b 95 a0 ee ff ff 	mov    -0x1160(%rbp),%rdx
   107de:	0f b6 12             	movzbl (%rdx),%edx
   107e1:	8d 4a ff             	lea    -0x1(%rdx),%ecx
   107e4:	48 8b 95 a0 ee ff ff 	mov    -0x1160(%rbp),%rdx
   107eb:	88 0a                	mov    %cl,(%rdx)
   107ed:	48 8d 15 00 8b 00 00 	lea    0x8b00(%rip),%rdx        # 192f4 <g_79+0x14>
   107f4:	48 89 95 78 ee ff ff 	mov    %rdx,-0x1188(%rbp)
   107fb:	89 c6                	mov    %eax,%esi
   107fd:	bf 00 00 00 00       	mov    $0x0,%edi
   10802:	e8 0b 4a ff ff       	callq  5212 <safe_mul_func_int8_t_s_s>
   10807:	8b 05 b3 8a 00 00    	mov    0x8ab3(%rip),%eax        # 192c0 <g_61>
   1080d:	48 98                	cltq   
   1080f:	8b 15 db 8a 00 00    	mov    0x8adb(%rip),%edx        # 192f0 <g_79+0x10>
   10815:	89 d2                	mov    %edx,%edx
   10817:	48 89 c6             	mov    %rax,%rsi
   1081a:	48 89 d7             	mov    %rdx,%rdi
   1081d:	e8 29 58 ff ff       	callq  604b <safe_sub_func_uint64_t_u_u>
   10822:	0f b7 c0             	movzwl %ax,%eax
   10825:	89 c6                	mov    %eax,%esi
   10827:	bf fc ff 00 00       	mov    $0xfffc,%edi
   1082c:	e8 5d 55 ff ff       	callq  5d8e <safe_div_func_uint16_t_u_u>
   10831:	0f b7 f0             	movzwl %ax,%esi
   10834:	0f b6 85 07 ed ff ff 	movzbl -0x12f9(%rbp),%eax
   1083b:	0f b6 d0             	movzbl %al,%edx
   1083e:	48 8b 85 f8 ec ff ff 	mov    -0x1308(%rbp),%rax
   10845:	48 83 c0 03          	add    $0x3,%rax
   10849:	48 8b bd f8 ec ff ff 	mov    -0x1308(%rbp),%rdi
   10850:	48 63 ca             	movslq %edx,%rcx
   10853:	48 89 c2             	mov    %rax,%rdx
   10856:	48 c1 e2 02          	shl    $0x2,%rdx
   1085a:	48 01 c2             	add    %rax,%rdx
   1085d:	48 89 c8             	mov    %rcx,%rax
   10860:	48 c1 e0 03          	shl    $0x3,%rax
   10864:	48 01 c8             	add    %rcx,%rax
   10867:	48 c1 e0 02          	shl    $0x2,%rax
   1086b:	48 29 c8             	sub    %rcx,%rax
   1086e:	48 01 d0             	add    %rdx,%rax
   10871:	48 01 f8             	add    %rdi,%rax
   10874:	8b 84 85 40 f3 ff ff 	mov    -0xcc0(%rbp,%rax,4),%eax
   1087b:	39 c6                	cmp    %eax,%esi
   1087d:	0f 9c c0             	setl   %al
   10880:	0f b6 d0             	movzbl %al,%edx
   10883:	8b 05 b7 87 00 00    	mov    0x87b7(%rip),%eax        # 19040 <g_8>
   10889:	0f be c0             	movsbl %al,%eax
   1088c:	89 d6                	mov    %edx,%esi
   1088e:	89 c7                	mov    %eax,%edi
   10890:	e8 a0 4a ff ff       	callq  5335 <safe_rshift_func_int8_t_s_s>
   10895:	66 0f be 85 ec ec ff 	movsbw -0x1314(%rbp),%ax
   1089c:	ff 
   1089d:	0f b7 c0             	movzwl %ax,%eax
   108a0:	be 00 00 00 00       	mov    $0x0,%esi
   108a5:	89 c7                	mov    %eax,%edi
   108a7:	e8 12 55 ff ff       	callq  5dbe <safe_lshift_func_uint16_t_u_s>
   108ac:	0f b7 c0             	movzwl %ax,%eax
   108af:	31 85 68 ed ff ff    	xor    %eax,-0x1298(%rbp)
   108b5:	c7 85 20 ed ff ff 00 	movl   $0x0,-0x12e0(%rbp)
   108bc:	00 00 00 
   108bf:	e9 9f 00 00 00       	jmpq   10963 <func_38+0x1ad5>
   108c4:	48 8d 85 b8 ed ff ff 	lea    -0x1248(%rbp),%rax
   108cb:	48 89 85 b0 ee ff ff 	mov    %rax,-0x1150(%rbp)
   108d2:	48 8b 85 f0 ec ff ff 	mov    -0x1310(%rbp),%rax
   108d9:	8b 30                	mov    (%rax),%esi
   108db:	48 8b 85 f8 ec ff ff 	mov    -0x1308(%rbp),%rax
   108e2:	48 8d 48 02          	lea    0x2(%rax),%rcx
   108e6:	8b 85 20 ed ff ff    	mov    -0x12e0(%rbp),%eax
   108ec:	48 63 f8             	movslq %eax,%rdi
   108ef:	8b 85 20 ed ff ff    	mov    -0x12e0(%rbp),%eax
   108f5:	48 63 d0             	movslq %eax,%rdx
   108f8:	48 89 d0             	mov    %rdx,%rax
   108fb:	48 c1 e0 03          	shl    $0x3,%rax
   108ff:	48 01 d0             	add    %rdx,%rax
   10902:	48 c1 e0 02          	shl    $0x2,%rax
   10906:	48 29 d0             	sub    %rdx,%rax
   10909:	48 89 ca             	mov    %rcx,%rdx
   1090c:	48 c1 e2 02          	shl    $0x2,%rdx
   10910:	48 01 ca             	add    %rcx,%rdx
   10913:	48 01 d0             	add    %rdx,%rax
   10916:	48 01 f8             	add    %rdi,%rax
   10919:	8b 84 85 40 f3 ff ff 	mov    -0xcc0(%rbp,%rax,4),%eax
   10920:	21 c6                	and    %eax,%esi
   10922:	89 f2                	mov    %esi,%edx
   10924:	48 8b 85 f0 ec ff ff 	mov    -0x1310(%rbp),%rax
   1092b:	89 10                	mov    %edx,(%rax)
   1092d:	48 8b 85 f0 ec ff ff 	mov    -0x1310(%rbp),%rax
   10934:	8b 00                	mov    (%rax),%eax
   10936:	85 c0                	test   %eax,%eax
   10938:	75 21                	jne    1095b <func_38+0x1acd>
   1093a:	48 8b 85 e0 ef ff ff 	mov    -0x1020(%rbp),%rax
   10941:	48 89 85 d0 ef ff ff 	mov    %rax,-0x1030(%rbp)
   10948:	48 8b 85 b0 ee ff ff 	mov    -0x1150(%rbp),%rax
   1094f:	48 8b 95 f0 ec ff ff 	mov    -0x1310(%rbp),%rdx
   10956:	48 89 10             	mov    %rdx,(%rax)
   10959:	eb 01                	jmp    1095c <func_38+0x1ace>
   1095b:	90                   	nop
   1095c:	83 85 20 ed ff ff 01 	addl   $0x1,-0x12e0(%rbp)
   10963:	83 bd 20 ed ff ff 03 	cmpl   $0x3,-0x12e0(%rbp)
   1096a:	0f 8e 54 ff ff ff    	jle    108c4 <func_38+0x1a36>
   10970:	8b 05 8a 89 00 00    	mov    0x898a(%rip),%eax        # 19300 <g_135>
   10976:	83 e8 01             	sub    $0x1,%eax
   10979:	89 05 81 89 00 00    	mov    %eax,0x8981(%rip)        # 19300 <g_135>
   1097f:	0f b6 85 07 ed ff ff 	movzbl -0x12f9(%rbp),%eax
   10986:	83 c0 01             	add    $0x1,%eax
   10989:	88 85 07 ed ff ff    	mov    %al,-0x12f9(%rbp)
   1098f:	0f b6 85 07 ed ff ff 	movzbl -0x12f9(%rbp),%eax
   10996:	3c 02                	cmp    $0x2,%al
   10998:	0f 86 fe ec ff ff    	jbe    f69c <func_38+0x80e>
   1099e:	8b 05 e4 b6 00 00    	mov    0xb6e4(%rip),%eax        # 1c088 <g_62>
   109a4:	83 e8 01             	sub    $0x1,%eax
   109a7:	89 05 db b6 00 00    	mov    %eax,0xb6db(%rip)        # 1c088 <g_62>
   109ad:	8b 05 d5 b6 00 00    	mov    0xb6d5(%rip),%eax        # 1c088 <g_62>
   109b3:	85 c0                	test   %eax,%eax
   109b5:	0f 89 52 ea ff ff    	jns    f40d <func_38+0x57f>
   109bb:	eb 01                	jmp    109be <func_38+0x1b30>
   109bd:	90                   	nop
   109be:	48 8b 85 80 ee ff ff 	mov    -0x1180(%rbp),%rax
   109c5:	0f b7 00             	movzwl (%rax),%eax
   109c8:	89 c1                	mov    %eax,%ecx
   109ca:	48 8b 85 f8 ec ff ff 	mov    -0x1308(%rbp),%rax
   109d1:	48 8d 14 85 00 00 00 	lea    0x0(,%rax,4),%rdx
   109d8:	00 
   109d9:	48 8d 05 50 86 00 00 	lea    0x8650(%rip),%rax        # 19030 <g_7>
   109e0:	8b 04 02             	mov    (%rdx,%rax,1),%eax
   109e3:	09 c8                	or     %ecx,%eax
   109e5:	89 c2                	mov    %eax,%edx
   109e7:	48 8b 85 80 ee ff ff 	mov    -0x1180(%rbp),%rax
   109ee:	66 89 10             	mov    %dx,(%rax)
   109f1:	48 8b 85 80 ee ff ff 	mov    -0x1180(%rbp),%rax
   109f8:	0f b7 00             	movzwl (%rax),%eax
   109fb:	66 85 c0             	test   %ax,%ax
   109fe:	74 13                	je     10a13 <func_38+0x1b85>
   10a00:	48 8b 85 f8 ec ff ff 	mov    -0x1308(%rbp),%rax
   10a07:	48 85 c0             	test   %rax,%rax
   10a0a:	75 07                	jne    10a13 <func_38+0x1b85>
   10a0c:	b8 01 00 00 00       	mov    $0x1,%eax
   10a11:	eb 05                	jmp    10a18 <func_38+0x1b8a>
   10a13:	b8 00 00 00 00       	mov    $0x0,%eax
   10a18:	0f b7 c0             	movzwl %ax,%eax
   10a1b:	be 00 00 00 00       	mov    $0x0,%esi
   10a20:	89 c7                	mov    %eax,%edi
   10a22:	e8 97 53 ff ff       	callq  5dbe <safe_lshift_func_uint16_t_u_s>
   10a27:	bf 01 00 00 00       	mov    $0x1,%edi
   10a2c:	e8 e5 4d ff ff       	callq  5816 <safe_unary_minus_func_int64_t_s>
   10a31:	be 00 00 00 00       	mov    $0x0,%esi
   10a36:	89 c7                	mov    %eax,%edi
   10a38:	e8 79 4b ff ff       	callq  55b6 <safe_add_func_int32_t_s_s>
   10a3d:	85 c0                	test   %eax,%eax
   10a3f:	75 1b                	jne    10a5c <func_38+0x1bce>
   10a41:	48 8b 85 f8 ec ff ff 	mov    -0x1308(%rbp),%rax
   10a48:	48 8d 14 85 00 00 00 	lea    0x0(,%rax,4),%rdx
   10a4f:	00 
   10a50:	48 8d 05 d9 85 00 00 	lea    0x85d9(%rip),%rax        # 19030 <g_7>
   10a57:	8b 04 02             	mov    (%rdx,%rax,1),%eax
   10a5a:	85 c0                	test   %eax,%eax
   10a5c:	0f b6 05 29 b6 00 00 	movzbl 0xb629(%rip),%eax        # 1c08c <g_92>
   10a63:	0f b6 d0             	movzbl %al,%edx
   10a66:	48 8b 85 f0 ec ff ff 	mov    -0x1310(%rbp),%rax
   10a6d:	89 10                	mov    %edx,(%rax)
   10a6f:	c7 05 7f 88 00 00 00 	movl   $0x0,0x887f(%rip)        # 192f8 <g_103>
   10a76:	00 00 00 
   10a79:	e9 d7 04 00 00       	jmpq   10f55 <func_38+0x20c7>
   10a7e:	48 8d 05 73 88 00 00 	lea    0x8873(%rip),%rax        # 192f8 <g_103>
   10a85:	48 89 85 b8 ee ff ff 	mov    %rax,-0x1148(%rbp)
   10a8c:	48 8d 85 40 f8 ff ff 	lea    -0x7c0(%rbp),%rax
   10a93:	48 8d 15 26 a6 00 00 	lea    0xa626(%rip),%rdx        # 1b0c0 <g_2468+0xc34>
   10a9a:	b9 28 00 00 00       	mov    $0x28,%ecx
   10a9f:	48 89 c7             	mov    %rax,%rdi
   10aa2:	48 89 d6             	mov    %rdx,%rsi
   10aa5:	f3 48 a5             	rep movsq %ds:(%rsi),%es:(%rdi)
   10aa8:	48 8d 85 40 f8 ff ff 	lea    -0x7c0(%rbp),%rax
   10aaf:	48 83 c0 50          	add    $0x50,%rax
   10ab3:	48 89 85 c0 ee ff ff 	mov    %rax,-0x1140(%rbp)
   10aba:	48 8d 85 08 ed ff ff 	lea    -0x12f8(%rbp),%rax
   10ac1:	48 89 85 c8 ee ff ff 	mov    %rax,-0x1138(%rbp)
   10ac8:	c7 85 6c ed ff ff f4 	movl   $0xb9766cf4,-0x1294(%rbp)
   10acf:	6c 76 b9 
   10ad2:	c7 85 70 ed ff ff 03 	movl   $0x3,-0x1290(%rbp)
   10ad9:	00 00 00 
   10adc:	c7 85 30 ed ff ff 00 	movl   $0x0,-0x12d0(%rbp)
   10ae3:	00 00 00 
   10ae6:	eb 1b                	jmp    10b03 <func_38+0x1c75>
   10ae8:	8b 85 30 ed ff ff    	mov    -0x12d0(%rbp),%eax
   10aee:	48 98                	cltq   
   10af0:	48 c7 84 c5 40 f1 ff 	movq   $0x0,-0xec0(%rbp,%rax,8)
   10af7:	ff 00 00 00 00 
   10afc:	83 85 30 ed ff ff 01 	addl   $0x1,-0x12d0(%rbp)
   10b03:	83 bd 30 ed ff ff 01 	cmpl   $0x1,-0x12d0(%rbp)
   10b0a:	7e dc                	jle    10ae8 <func_38+0x1c5a>
   10b0c:	48 c7 05 b1 87 00 00 	movq   $0x0,0x87b1(%rip)        # 192c8 <g_74>
   10b13:	00 00 00 00 
   10b17:	eb 58                	jmp    10b71 <func_38+0x1ce3>
   10b19:	8b 15 d9 87 00 00    	mov    0x87d9(%rip),%edx        # 192f8 <g_103>
   10b1f:	48 8b 85 f8 ec ff ff 	mov    -0x1308(%rbp),%rax
   10b26:	48 83 c0 02          	add    $0x2,%rax
   10b2a:	48 8b b5 f8 ec ff ff 	mov    -0x1308(%rbp),%rsi
   10b31:	89 d1                	mov    %edx,%ecx
   10b33:	48 89 c2             	mov    %rax,%rdx
   10b36:	48 c1 e2 02          	shl    $0x2,%rdx
   10b3a:	48 01 c2             	add    %rax,%rdx
   10b3d:	48 89 c8             	mov    %rcx,%rax
   10b40:	48 c1 e0 03          	shl    $0x3,%rax
   10b44:	48 01 c8             	add    %rcx,%rax
   10b47:	48 c1 e0 02          	shl    $0x2,%rax
   10b4b:	48 29 c8             	sub    %rcx,%rax
   10b4e:	48 01 d0             	add    %rdx,%rax
   10b51:	48 01 f0             	add    %rsi,%rax
   10b54:	8b 84 85 40 f3 ff ff 	mov    -0xcc0(%rbp,%rax,4),%eax
   10b5b:	85 c0                	test   %eax,%eax
   10b5d:	75 21                	jne    10b80 <func_38+0x1cf2>
   10b5f:	48 8b 05 62 87 00 00 	mov    0x8762(%rip),%rax        # 192c8 <g_74>
   10b66:	48 83 c0 01          	add    $0x1,%rax
   10b6a:	48 89 05 57 87 00 00 	mov    %rax,0x8757(%rip)        # 192c8 <g_74>
   10b71:	48 8b 05 50 87 00 00 	mov    0x8750(%rip),%rax        # 192c8 <g_74>
   10b78:	48 83 f8 03          	cmp    $0x3,%rax
   10b7c:	76 9b                	jbe    10b19 <func_38+0x1c8b>
   10b7e:	eb 01                	jmp    10b81 <func_38+0x1cf3>
   10b80:	90                   	nop
   10b81:	48 8b 85 f8 ec ff ff 	mov    -0x1308(%rbp),%rax
   10b88:	0f b6 d8             	movzbl %al,%ebx
   10b8b:	48 8b 85 c0 ee ff ff 	mov    -0x1140(%rbp),%rax
   10b92:	48 8b 95 f0 ec ff ff 	mov    -0x1310(%rbp),%rdx
   10b99:	48 89 10             	mov    %rdx,(%rax)
   10b9c:	48 8b 85 c0 ee ff ff 	mov    -0x1140(%rbp),%rax
   10ba3:	48 8b 00             	mov    (%rax),%rax
   10ba6:	48 39 85 b8 ee ff ff 	cmp    %rax,-0x1148(%rbp)
   10bad:	0f 95 c0             	setne  %al
   10bb0:	0f b6 c8             	movzbl %al,%ecx
   10bb3:	48 8b 85 c8 ee ff ff 	mov    -0x1138(%rbp),%rax
   10bba:	0f b6 95 ec ec ff ff 	movzbl -0x1314(%rbp),%edx
   10bc1:	88 10                	mov    %dl,(%rax)
   10bc3:	48 8b 85 c8 ee ff ff 	mov    -0x1138(%rbp),%rax
   10bca:	0f b6 00             	movzbl (%rax),%eax
   10bcd:	0f be c0             	movsbl %al,%eax
   10bd0:	39 c1                	cmp    %eax,%ecx
   10bd2:	0f 94 c0             	sete   %al
   10bd5:	0f b6 c0             	movzbl %al,%eax
   10bd8:	89 85 6c ed ff ff    	mov    %eax,-0x1294(%rbp)
   10bde:	8b 85 6c ed ff ff    	mov    -0x1294(%rbp),%eax
   10be4:	88 05 a2 b4 00 00    	mov    %al,0xb4a2(%rip)        # 1c08c <g_92>
   10bea:	8b 85 70 ed ff ff    	mov    -0x1290(%rbp),%eax
   10bf0:	0f b6 d0             	movzbl %al,%edx
   10bf3:	48 8b 85 d8 ed ff ff 	mov    -0x1228(%rbp),%rax
   10bfa:	0f b6 c0             	movzbl %al,%eax
   10bfd:	89 d6                	mov    %edx,%esi
   10bff:	89 c7                	mov    %eax,%edi
   10c01:	e8 8d 4f ff ff       	callq  5b93 <safe_mul_func_uint8_t_u_u>
   10c06:	3c 04                	cmp    $0x4,%al
   10c08:	0f 96 c0             	setbe  %al
   10c0b:	0f b6 d0             	movzbl %al,%edx
   10c0e:	8b 85 6c ed ff ff    	mov    -0x1294(%rbp),%eax
   10c14:	48 98                	cltq   
   10c16:	48 89 d6             	mov    %rdx,%rsi
   10c19:	48 89 c7             	mov    %rax,%rdi
   10c1c:	e8 0d 54 ff ff       	callq  602e <safe_add_func_uint64_t_u_u>
   10c21:	89 de                	mov    %ebx,%esi
   10c23:	bf 00 00 00 00       	mov    $0x0,%edi
   10c28:	e8 81 4f ff ff       	callq  5bae <safe_mod_func_uint8_t_u_u>
   10c2d:	8b 95 28 ef ff ff    	mov    -0x10d8(%rbp),%edx
   10c33:	48 8b 85 80 ee ff ff 	mov    -0x1180(%rbp),%rax
   10c3a:	0f b7 00             	movzwl (%rax),%eax
   10c3d:	89 c1                	mov    %eax,%ecx
   10c3f:	89 d0                	mov    %edx,%eax
   10c41:	21 c8                	and    %ecx,%eax
   10c43:	89 c2                	mov    %eax,%edx
   10c45:	48 8b 85 80 ee ff ff 	mov    -0x1180(%rbp),%rax
   10c4c:	66 89 10             	mov    %dx,(%rax)
   10c4f:	8b 85 30 ef ff ff    	mov    -0x10d0(%rbp),%eax
   10c55:	85 c0                	test   %eax,%eax
   10c57:	0f 89 de 00 00 00    	jns    10d3b <func_38+0x1ead>
   10c5d:	66 c7 85 0e ed ff ff 	movw   $0x1,-0x12f2(%rbp)
   10c64:	01 00 
   10c66:	c7 85 6c ed ff ff 03 	movl   $0x3,-0x1294(%rbp)
   10c6d:	00 00 00 
   10c70:	83 bd 6c ed ff ff 00 	cmpl   $0x0,-0x1294(%rbp)
   10c77:	78 0f                	js     10c88 <func_38+0x1dfa>
   10c79:	48 8b 05 88 a7 00 00 	mov    0xa788(%rip),%rax        # 1b408 <g_58>
   10c80:	48 8b 00             	mov    (%rax),%rax
   10c83:	e9 79 20 00 00       	jmpq   12d01 <func_38+0x3e73>
   10c88:	66 c7 05 73 86 00 00 	movw   $0x0,0x8673(%rip)        # 19304 <g_144>
   10c8f:	00 00 
   10c91:	e9 8f 00 00 00       	jmpq   10d25 <func_38+0x1e97>
   10c96:	c7 85 74 ed ff ff 1b 	movl   $0xa8ba1b,-0x128c(%rbp)
   10c9d:	ba a8 00 
   10ca0:	c7 85 34 ed ff ff 00 	movl   $0x0,-0x12cc(%rbp)
   10ca7:	00 00 00 
   10caa:	eb 46                	jmp    10cf2 <func_38+0x1e64>
   10cac:	c7 85 38 ed ff ff 00 	movl   $0x0,-0x12c8(%rbp)
   10cb3:	00 00 00 
   10cb6:	eb 2a                	jmp    10ce2 <func_38+0x1e54>
   10cb8:	8b 85 38 ed ff ff    	mov    -0x12c8(%rbp),%eax
   10cbe:	48 98                	cltq   
   10cc0:	8b 95 34 ed ff ff    	mov    -0x12cc(%rbp),%edx
   10cc6:	48 63 d2             	movslq %edx,%rdx
   10cc9:	48 01 d2             	add    %rdx,%rdx
   10ccc:	48 01 d0             	add    %rdx,%rax
   10ccf:	48 c7 84 c5 70 f5 ff 	movq   $0x0,-0xa90(%rbp,%rax,8)
   10cd6:	ff 00 00 00 00 
   10cdb:	83 85 38 ed ff ff 01 	addl   $0x1,-0x12c8(%rbp)
   10ce2:	83 bd 38 ed ff ff 01 	cmpl   $0x1,-0x12c8(%rbp)
   10ce9:	7e cd                	jle    10cb8 <func_38+0x1e2a>
   10ceb:	83 85 34 ed ff ff 01 	addl   $0x1,-0x12cc(%rbp)
   10cf2:	83 bd 34 ed ff ff 01 	cmpl   $0x1,-0x12cc(%rbp)
   10cf9:	7e b1                	jle    10cac <func_38+0x1e1e>
   10cfb:	0f b7 85 f2 ee ff ff 	movzwl -0x110e(%rbp),%eax
   10d02:	83 e8 01             	sub    $0x1,%eax
   10d05:	66 89 85 f2 ee ff ff 	mov    %ax,-0x110e(%rbp)
   10d0c:	66 83 bd 0e ed ff ff 	cmpw   $0x0,-0x12f2(%rbp)
   10d13:	00 
   10d14:	0f b7 05 e9 85 00 00 	movzwl 0x85e9(%rip),%eax        # 19304 <g_144>
   10d1b:	83 c0 01             	add    $0x1,%eax
   10d1e:	66 89 05 df 85 00 00 	mov    %ax,0x85df(%rip)        # 19304 <g_144>
   10d25:	0f b7 05 d8 85 00 00 	movzwl 0x85d8(%rip),%eax        # 19304 <g_144>
   10d2c:	66 83 f8 02          	cmp    $0x2,%ax
   10d30:	0f 86 60 ff ff ff    	jbe    10c96 <func_38+0x1e08>
   10d36:	e9 0b 02 00 00       	jmpq   10f46 <func_38+0x20b8>
   10d3b:	48 8d 85 b0 ed ff ff 	lea    -0x1250(%rbp),%rax
   10d42:	48 89 85 d0 ee ff ff 	mov    %rax,-0x1130(%rbp)
   10d49:	48 8d 85 f4 ee ff ff 	lea    -0x110c(%rbp),%rax
   10d50:	48 83 c0 08          	add    $0x8,%rax
   10d54:	48 89 85 d8 ee ff ff 	mov    %rax,-0x1128(%rbp)
   10d5b:	48 8d 05 a6 85 00 00 	lea    0x85a6(%rip),%rax        # 19308 <g_188>
   10d62:	48 89 85 e0 ee ff ff 	mov    %rax,-0x1120(%rbp)
   10d69:	c7 85 3c ed ff ff 00 	movl   $0x0,-0x12c4(%rbp)
   10d70:	00 00 00 
   10d73:	eb 1a                	jmp    10d8f <func_38+0x1f01>
   10d75:	8b 85 3c ed ff ff    	mov    -0x12c4(%rbp),%eax
   10d7b:	48 98                	cltq   
   10d7d:	c7 84 85 70 f5 ff ff 	movl   $0x0,-0xa90(%rbp,%rax,4)
   10d84:	00 00 00 00 
   10d88:	83 85 3c ed ff ff 01 	addl   $0x1,-0x12c4(%rbp)
   10d8f:	83 bd 3c ed ff ff 05 	cmpl   $0x5,-0x12c4(%rbp)
   10d96:	7e dd                	jle    10d75 <func_38+0x1ee7>
   10d98:	44 8b b5 40 ef ff ff 	mov    -0x10c0(%rbp),%r14d
   10d9f:	0f b7 85 ee ee ff ff 	movzwl -0x1112(%rbp),%eax
   10da6:	0f b6 d8             	movzbl %al,%ebx
   10da9:	48 8b 95 b0 ed ff ff 	mov    -0x1250(%rbp),%rdx
   10db0:	48 8b 85 d0 ee ff ff 	mov    -0x1130(%rbp),%rax
   10db7:	48 89 10             	mov    %rdx,(%rax)
   10dba:	48 8b 85 d0 ee ff ff 	mov    -0x1130(%rbp),%rax
   10dc1:	48 8b 10             	mov    (%rax),%rdx
   10dc4:	48 8b 05 4d a6 00 00 	mov    0xa64d(%rip),%rax        # 1b418 <g_169>
   10dcb:	48 39 c2             	cmp    %rax,%rdx
   10dce:	0f 94 c0             	sete   %al
   10dd1:	44 0f b6 f8          	movzbl %al,%r15d
   10dd5:	44 0f be a5 ec ec ff 	movsbl -0x1314(%rbp),%r12d
   10ddc:	ff 
   10ddd:	8b 85 7c f5 ff ff    	mov    -0xa84(%rbp),%eax
   10de3:	89 c2                	mov    %eax,%edx
   10de5:	48 8b 85 d8 ee ff ff 	mov    -0x1128(%rbp),%rax
   10dec:	89 10                	mov    %edx,(%rax)
   10dee:	48 8b 85 d8 ee ff ff 	mov    -0x1128(%rbp),%rax
   10df5:	8b 00                	mov    (%rax),%eax
   10df7:	89 85 e8 ec ff ff    	mov    %eax,-0x1318(%rbp)
   10dfd:	8b 05 3d 82 00 00    	mov    0x823d(%rip),%eax        # 19040 <g_8>
   10e03:	83 c8 14             	or     $0x14,%eax
   10e06:	66 89 85 e4 ec ff ff 	mov    %ax,-0x131c(%rbp)
   10e0d:	0f b6 85 07 ed ff ff 	movzbl -0x12f9(%rbp),%eax
   10e14:	44 0f be e8          	movsbl %al,%r13d
   10e18:	0f b7 05 e5 84 00 00 	movzwl 0x84e5(%rip),%eax        # 19304 <g_144>
   10e1f:	0f bf d0             	movswl %ax,%edx
   10e22:	48 8b 85 f8 ec ff ff 	mov    -0x1308(%rbp),%rax
   10e29:	89 c1                	mov    %eax,%ecx
   10e2b:	48 8b 85 e0 ee ff ff 	mov    -0x1120(%rbp),%rax
   10e32:	66 89 08             	mov    %cx,(%rax)
   10e35:	48 8b 85 e0 ee ff ff 	mov    -0x1120(%rbp),%rax
   10e3c:	0f b7 00             	movzwl (%rax),%eax
   10e3f:	98                   	cwtl   
   10e40:	89 d6                	mov    %edx,%esi
   10e42:	89 c7                	mov    %eax,%edi
   10e44:	e8 ac 45 ff ff       	callq  53f5 <safe_mul_func_int16_t_s_s>
   10e49:	44 89 ee             	mov    %r13d,%esi
   10e4c:	bf 01 00 00 00       	mov    $0x1,%edi
   10e51:	e8 7e 43 ff ff       	callq  51d4 <safe_add_func_int8_t_s_s>
   10e56:	0f b6 c0             	movzbl %al,%eax
   10e59:	be f6 00 00 00       	mov    $0xf6,%esi
   10e5e:	89 c7                	mov    %eax,%edi
   10e60:	e8 2e 4d ff ff       	callq  5b93 <safe_mul_func_uint8_t_u_u>
   10e65:	0f b6 d0             	movzbl %al,%edx
   10e68:	0f b7 05 95 84 00 00 	movzwl 0x8495(%rip),%eax        # 19304 <g_144>
   10e6f:	66 39 c2             	cmp    %ax,%dx
   10e72:	0f 95 c0             	setne  %al
   10e75:	0f b6 c0             	movzbl %al,%eax
   10e78:	66 23 85 e4 ec ff ff 	and    -0x131c(%rbp),%ax
   10e7f:	0f bf d0             	movswl %ax,%edx
   10e82:	48 8b 85 f8 ec ff ff 	mov    -0x1308(%rbp),%rax
   10e89:	98                   	cwtl   
   10e8a:	89 d6                	mov    %edx,%esi
   10e8c:	89 c7                	mov    %eax,%edi
   10e8e:	e8 c2 45 ff ff       	callq  5455 <safe_div_func_int16_t_s_s>
   10e93:	98                   	cwtl   
   10e94:	8b 8d e8 ec ff ff    	mov    -0x1318(%rbp),%ecx
   10e9a:	09 c1                	or     %eax,%ecx
   10e9c:	48 8b 05 75 a5 00 00 	mov    0xa575(%rip),%rax        # 1b418 <g_169>
   10ea3:	0f b6 00             	movzbl (%rax),%eax
   10ea6:	89 c2                	mov    %eax,%edx
   10ea8:	89 c8                	mov    %ecx,%eax
   10eaa:	21 c2                	and    %eax,%edx
   10eac:	48 8b 05 65 a5 00 00 	mov    0xa565(%rip),%rax        # 1b418 <g_169>
   10eb3:	88 10                	mov    %dl,(%rax)
   10eb5:	0f b6 00             	movzbl (%rax),%eax
   10eb8:	0f be c0             	movsbl %al,%eax
   10ebb:	44 89 e6             	mov    %r12d,%esi
   10ebe:	89 c7                	mov    %eax,%edi
   10ec0:	e8 4d 43 ff ff       	callq  5212 <safe_mul_func_int8_t_s_s>
   10ec5:	66 98                	cbtw   
   10ec7:	0f b7 c0             	movzwl %ax,%eax
   10eca:	89 c6                	mov    %eax,%esi
   10ecc:	bf 00 00 00 00       	mov    $0x0,%edi
   10ed1:	e8 49 4e ff ff       	callq  5d1f <safe_sub_func_uint16_t_u_u>
   10ed6:	0f b7 c0             	movzwl %ax,%eax
   10ed9:	41 39 c7             	cmp    %eax,%r15d
   10edc:	0f 9c c0             	setl   %al
   10edf:	0f b6 c0             	movzbl %al,%eax
   10ee2:	89 de                	mov    %ebx,%esi
   10ee4:	89 c7                	mov    %eax,%edi
   10ee6:	e8 c3 4c ff ff       	callq  5bae <safe_mod_func_uint8_t_u_u>
   10eeb:	0f b6 c0             	movzbl %al,%eax
   10eee:	41 39 c6             	cmp    %eax,%r14d
   10ef1:	0f 9e c0             	setle  %al
   10ef4:	0f b6 c0             	movzbl %al,%eax
   10ef7:	ba 09 00 00 00       	mov    $0x9,%edx
   10efc:	09 d0                	or     %edx,%eax
   10efe:	89 c2                	mov    %eax,%edx
   10f00:	48 8b 85 f0 ec ff ff 	mov    -0x1310(%rbp),%rax
   10f07:	89 10                	mov    %edx,(%rax)
   10f09:	8b 05 ed 83 00 00    	mov    0x83ed(%rip),%eax        # 192fc <g_134>
   10f0f:	85 c0                	test   %eax,%eax
   10f11:	75 32                	jne    10f45 <func_38+0x20b7>
   10f13:	c7 85 70 ed ff ff 00 	movl   $0x0,-0x1290(%rbp)
   10f1a:	00 00 00 
   10f1d:	83 bd 70 ed ff ff 02 	cmpl   $0x2,-0x1290(%rbp)
   10f24:	7f 12                	jg     10f38 <func_38+0x20aa>
   10f26:	48 8b 05 e3 a4 00 00 	mov    0xa4e3(%rip),%rax        # 1b410 <g_57>
   10f2d:	48 8b 00             	mov    (%rax),%rax
   10f30:	48 8b 00             	mov    (%rax),%rax
   10f33:	e9 c9 1d 00 00       	jmpq   12d01 <func_38+0x3e73>
   10f38:	48 8b 85 f0 ec ff ff 	mov    -0x1310(%rbp),%rax
   10f3f:	8b 00                	mov    (%rax),%eax
   10f41:	85 c0                	test   %eax,%eax
   10f43:	eb 01                	jmp    10f46 <func_38+0x20b8>
   10f45:	90                   	nop
   10f46:	8b 05 ac 83 00 00    	mov    0x83ac(%rip),%eax        # 192f8 <g_103>
   10f4c:	83 c0 01             	add    $0x1,%eax
   10f4f:	89 05 a3 83 00 00    	mov    %eax,0x83a3(%rip)        # 192f8 <g_103>
   10f55:	8b 05 9d 83 00 00    	mov    0x839d(%rip),%eax        # 192f8 <g_103>
   10f5b:	83 f8 03             	cmp    $0x3,%eax
   10f5e:	0f 86 1a fb ff ff    	jbe    10a7e <func_38+0x1bf0>
   10f64:	48 8b 85 f8 ec ff ff 	mov    -0x1308(%rbp),%rax
   10f6b:	48 83 c0 01          	add    $0x1,%rax
   10f6f:	48 89 85 f8 ec ff ff 	mov    %rax,-0x1308(%rbp)
   10f76:	48 8b 85 f8 ec ff ff 	mov    -0x1308(%rbp),%rax
   10f7d:	48 83 f8 03          	cmp    $0x3,%rax
   10f81:	0f 86 0e e4 ff ff    	jbe    f395 <func_38+0x507>
   10f87:	48 8b 05 7a a4 00 00 	mov    0xa47a(%rip),%rax        # 1b408 <g_58>
   10f8e:	48 8b 00             	mov    (%rax),%rax
   10f91:	e9 6b 1d 00 00       	jmpq   12d01 <func_38+0x3e73>
   10f96:	48 8d 05 2b a5 00 00 	lea    0xa52b(%rip),%rax        # 1b4c8 <g_189>
   10f9d:	48 89 85 f0 ed ff ff 	mov    %rax,-0x1210(%rbp)
   10fa4:	c7 85 50 ed ff ff 00 	movl   $0x0,-0x12b0(%rbp)
   10fab:	00 00 00 
   10fae:	48 c7 85 f8 ed ff ff 	movq   $0x0,-0x1208(%rbp)
   10fb5:	00 00 00 00 
   10fb9:	48 8d 85 40 f3 ff ff 	lea    -0xcc0(%rbp),%rax
   10fc0:	48 05 c8 01 00 00    	add    $0x1c8,%rax
   10fc6:	48 89 85 b0 ed ff ff 	mov    %rax,-0x1250(%rbp)
   10fcd:	48 8d 85 b0 ed ff ff 	lea    -0x1250(%rbp),%rax
   10fd4:	48 89 85 60 ef ff ff 	mov    %rax,-0x10a0(%rbp)
   10fdb:	48 8d 85 b0 ed ff ff 	lea    -0x1250(%rbp),%rax
   10fe2:	48 89 85 68 ef ff ff 	mov    %rax,-0x1098(%rbp)
   10fe9:	48 8d 85 b0 ed ff ff 	lea    -0x1250(%rbp),%rax
   10ff0:	48 89 85 70 ef ff ff 	mov    %rax,-0x1090(%rbp)
   10ff7:	48 8d 85 b0 ed ff ff 	lea    -0x1250(%rbp),%rax
   10ffe:	48 89 85 78 ef ff ff 	mov    %rax,-0x1088(%rbp)
   11005:	48 8d 85 b0 ed ff ff 	lea    -0x1250(%rbp),%rax
   1100c:	48 89 85 80 ef ff ff 	mov    %rax,-0x1080(%rbp)
   11013:	48 8d 85 b0 ed ff ff 	lea    -0x1250(%rbp),%rax
   1101a:	48 89 85 88 ef ff ff 	mov    %rax,-0x1078(%rbp)
   11021:	48 8d 85 b0 ed ff ff 	lea    -0x1250(%rbp),%rax
   11028:	48 89 85 90 ef ff ff 	mov    %rax,-0x1070(%rbp)
   1102f:	48 8d 85 b0 ed ff ff 	lea    -0x1250(%rbp),%rax
   11036:	48 89 85 98 ef ff ff 	mov    %rax,-0x1068(%rbp)
   1103d:	48 8d 85 b0 ed ff ff 	lea    -0x1250(%rbp),%rax
   11044:	48 89 85 a0 ef ff ff 	mov    %rax,-0x1060(%rbp)
   1104b:	48 8d 85 60 ef ff ff 	lea    -0x10a0(%rbp),%rax
   11052:	48 83 c0 30          	add    $0x30,%rax
   11056:	48 89 85 b8 ed ff ff 	mov    %rax,-0x1248(%rbp)
   1105d:	c7 85 54 ed ff ff fc 	movl   $0x1e5cc7fc,-0x12ac(%rbp)
   11064:	c7 5c 1e 
   11067:	48 8d 05 aa a3 00 00 	lea    0xa3aa(%rip),%rax        # 1b418 <g_169>
   1106e:	48 89 85 c0 ed ff ff 	mov    %rax,-0x1240(%rbp)
   11075:	48 8d 85 c0 ed ff ff 	lea    -0x1240(%rbp),%rax
   1107c:	48 89 85 c8 ed ff ff 	mov    %rax,-0x1238(%rbp)
   11083:	48 8d 85 40 f8 ff ff 	lea    -0x7c0(%rbp),%rax
   1108a:	48 8d 15 ef 40 00 00 	lea    0x40ef(%rip),%rdx        # 15180 <g_151+0x1120>
   11091:	b9 c8 00 00 00       	mov    $0xc8,%ecx
   11096:	48 89 c7             	mov    %rax,%rdi
   11099:	48 89 d6             	mov    %rdx,%rsi
   1109c:	f3 48 a5             	rep movsq %ds:(%rsi),%es:(%rdi)
   1109f:	c7 85 40 ed ff ff 00 	movl   $0x0,-0x12c0(%rbp)
   110a6:	00 00 00 
   110a9:	eb 14                	jmp    110bf <func_38+0x2231>
   110ab:	8b 85 40 ed ff ff    	mov    -0x12c0(%rbp),%eax
   110b1:	48 98                	cltq   
   110b3:	c6 44 05 c5 06       	movb   $0x6,-0x3b(%rbp,%rax,1)
   110b8:	83 85 40 ed ff ff 01 	addl   $0x1,-0x12c0(%rbp)
   110bf:	83 bd 40 ed ff ff 02 	cmpl   $0x2,-0x12c0(%rbp)
   110c6:	7e e3                	jle    110ab <func_38+0x221d>
   110c8:	48 8b 15 f9 a3 00 00 	mov    0xa3f9(%rip),%rdx        # 1b4c8 <g_189>
   110cf:	48 8b 85 f0 ed ff ff 	mov    -0x1210(%rbp),%rax
   110d6:	48 89 10             	mov    %rdx,(%rax)
   110d9:	be 07 00 00 00       	mov    $0x7,%esi
   110de:	bf 07 00 00 00       	mov    $0x7,%edi
   110e3:	e8 42 44 ff ff       	callq  552a <safe_rshift_func_int16_t_s_s>
   110e8:	66 85 c0             	test   %ax,%ax
   110eb:	0f 85 22 0e 00 00    	jne    11f13 <func_38+0x3085>
   110f1:	48 c7 85 b0 ef ff ff 	movq   $0x0,-0x1050(%rbp)
   110f8:	00 00 00 00 
   110fc:	48 c7 85 b8 ef ff ff 	movq   $0x0,-0x1048(%rbp)
   11103:	00 00 00 00 
   11107:	48 c7 85 c0 ef ff ff 	movq   $0x0,-0x1040(%rbp)
   1110e:	00 00 00 00 
   11112:	48 c7 85 c8 ef ff ff 	movq   $0x0,-0x1038(%rbp)
   11119:	00 00 00 00 
   1111d:	48 c7 85 d0 ef ff ff 	movq   $0x0,-0x1030(%rbp)
   11124:	00 00 00 00 
   11128:	48 c7 85 d8 ef ff ff 	movq   $0x0,-0x1028(%rbp)
   1112f:	00 00 00 00 
   11133:	48 c7 85 e0 ef ff ff 	movq   $0x0,-0x1020(%rbp)
   1113a:	00 00 00 00 
   1113e:	48 c7 85 e8 ef ff ff 	movq   $0x0,-0x1018(%rbp)
   11145:	00 00 00 00 
   11149:	48 c7 85 f0 ef ff ff 	movq   $0x0,-0x1010(%rbp)
   11150:	00 00 00 00 
   11154:	48 c7 85 08 ee ff ff 	movq   $0x0,-0x11f8(%rbp)
   1115b:	00 00 00 00 
   1115f:	48 8d 85 40 f1 ff ff 	lea    -0xec0(%rbp),%rax
   11166:	48 8d 15 93 a0 00 00 	lea    0xa093(%rip),%rdx        # 1b200 <g_2468+0xd74>
   1116d:	b9 3f 00 00 00       	mov    $0x3f,%ecx
   11172:	48 89 c7             	mov    %rax,%rdi
   11175:	48 89 d6             	mov    %rdx,%rsi
   11178:	f3 48 a5             	rep movsq %ds:(%rsi),%es:(%rdi)
   1117b:	48 8d 85 b8 ed ff ff 	lea    -0x1248(%rbp),%rax
   11182:	48 89 85 20 ef ff ff 	mov    %rax,-0x10e0(%rbp)
   11189:	48 8d 85 b8 ed ff ff 	lea    -0x1248(%rbp),%rax
   11190:	48 89 85 28 ef ff ff 	mov    %rax,-0x10d8(%rbp)
   11197:	48 8d 85 b8 ed ff ff 	lea    -0x1248(%rbp),%rax
   1119e:	48 89 85 30 ef ff ff 	mov    %rax,-0x10d0(%rbp)
   111a5:	48 8d 85 b8 ed ff ff 	lea    -0x1248(%rbp),%rax
   111ac:	48 89 85 38 ef ff ff 	mov    %rax,-0x10c8(%rbp)
   111b3:	48 8d 85 b8 ed ff ff 	lea    -0x1248(%rbp),%rax
   111ba:	48 89 85 40 ef ff ff 	mov    %rax,-0x10c0(%rbp)
   111c1:	48 8d 85 b8 ed ff ff 	lea    -0x1248(%rbp),%rax
   111c8:	48 89 85 48 ef ff ff 	mov    %rax,-0x10b8(%rbp)
   111cf:	48 8d 85 b8 ed ff ff 	lea    -0x1248(%rbp),%rax
   111d6:	48 89 85 50 ef ff ff 	mov    %rax,-0x10b0(%rbp)
   111dd:	48 8d 85 a8 ed ff ff 	lea    -0x1258(%rbp),%rax
   111e4:	48 89 85 10 ee ff ff 	mov    %rax,-0x11f0(%rbp)
   111eb:	c6 85 09 ed ff ff f9 	movb   $0xf9,-0x12f7(%rbp)
   111f2:	48 8b 85 f8 ec ff ff 	mov    -0x1308(%rbp),%rax
   111f9:	0f b7 d8             	movzwl %ax,%ebx
   111fc:	48 8b 05 0d a2 00 00 	mov    0xa20d(%rip),%rax        # 1b410 <g_57>
   11203:	48 8b 00             	mov    (%rax),%rax
   11206:	48 8b 00             	mov    (%rax),%rax
   11209:	44 8b 20             	mov    (%rax),%r12d
   1120c:	80 bd ec ec ff ff 00 	cmpb   $0x0,-0x1314(%rbp)
   11213:	74 5c                	je     11271 <func_38+0x23e3>
   11215:	48 8b 85 f0 ec ff ff 	mov    -0x1310(%rbp),%rax
   1121c:	8b 00                	mov    (%rax),%eax
   1121e:	89 c6                	mov    %eax,%esi
   11220:	bf 00 00 00 00       	mov    $0x0,%edi
   11225:	e8 fb 4c ff ff       	callq  5f25 <safe_div_func_uint32_t_u_u>
   1122a:	0f be 95 ec ec ff ff 	movsbl -0x1314(%rbp),%edx
   11231:	39 d0                	cmp    %edx,%eax
   11233:	0f 92 c0             	setb   %al
   11236:	0f b6 d0             	movzbl %al,%edx
   11239:	48 8b 85 f8 ec ff ff 	mov    -0x1308(%rbp),%rax
   11240:	48 39 c2             	cmp    %rax,%rdx
   11243:	0f 97 c0             	seta   %al
   11246:	0f b6 c0             	movzbl %al,%eax
   11249:	ba 88 ff b0 c1       	mov    $0xc1b0ff88,%edx
   1124e:	31 c2                	xor    %eax,%edx
   11250:	48 8b 85 f0 ec ff ff 	mov    -0x1310(%rbp),%rax
   11257:	8b 00                	mov    (%rax),%eax
   11259:	39 c2                	cmp    %eax,%edx
   1125b:	0f 96 c0             	setbe  %al
   1125e:	0f b6 c0             	movzbl %al,%eax
   11261:	ba 88 ff b0 c1       	mov    $0xc1b0ff88,%edx
   11266:	39 d0                	cmp    %edx,%eax
   11268:	72 07                	jb     11271 <func_38+0x23e3>
   1126a:	b8 01 00 00 00       	mov    $0x1,%eax
   1126f:	eb 05                	jmp    11276 <func_38+0x23e8>
   11271:	b8 00 00 00 00       	mov    $0x0,%eax
   11276:	88 05 10 ae 00 00    	mov    %al,0xae10(%rip)        # 1c08c <g_92>
   1127c:	0f b6 05 09 ae 00 00 	movzbl 0xae09(%rip),%eax        # 1c08c <g_92>
   11283:	0f b6 c0             	movzbl %al,%eax
   11286:	be 06 00 00 00       	mov    $0x6,%esi
   1128b:	89 c7                	mov    %eax,%edi
   1128d:	e8 ba 49 ff ff       	callq  5c4c <safe_lshift_func_uint8_t_u_u>
   11292:	0f b6 c0             	movzbl %al,%eax
   11295:	44 21 e0             	and    %r12d,%eax
   11298:	3d a9 81 9b 28       	cmp    $0x289b81a9,%eax
   1129d:	0f 97 c0             	seta   %al
   112a0:	0f b6 c0             	movzbl %al,%eax
   112a3:	89 de                	mov    %ebx,%esi
   112a5:	89 c7                	mov    %eax,%edi
   112a7:	e8 e2 4a ff ff       	callq  5d8e <safe_div_func_uint16_t_u_u>
   112ac:	0f b7 c0             	movzwl %ax,%eax
   112af:	39 85 50 ed ff ff    	cmp    %eax,-0x12b0(%rbp)
   112b5:	0f 8e 18 02 00 00    	jle    114d3 <func_38+0x2645>
   112bb:	48 8d 05 32 80 00 00 	lea    0x8032(%rip),%rax        # 192f4 <g_79+0x14>
   112c2:	48 89 85 18 ee ff ff 	mov    %rax,-0x11e8(%rbp)
   112c9:	c7 85 44 ed ff ff 00 	movl   $0x0,-0x12bc(%rbp)
   112d0:	00 00 00 
   112d3:	eb 1b                	jmp    112f0 <func_38+0x2462>
   112d5:	8b 85 44 ed ff ff    	mov    -0x12bc(%rbp),%eax
   112db:	48 98                	cltq   
   112dd:	48 c7 84 c5 70 f5 ff 	movq   $0x0,-0xa90(%rbp,%rax,8)
   112e4:	ff 00 00 00 00 
   112e9:	83 85 44 ed ff ff 01 	addl   $0x1,-0x12bc(%rbp)
   112f0:	83 bd 44 ed ff ff 00 	cmpl   $0x0,-0x12bc(%rbp)
   112f7:	7e dc                	jle    112d5 <func_38+0x2447>
   112f9:	48 8b 05 18 a1 00 00 	mov    0xa118(%rip),%rax        # 1b418 <g_169>
   11300:	0f b6 00             	movzbl (%rax),%eax
   11303:	0f b6 d8             	movzbl %al,%ebx
   11306:	48 8b 05 0b a1 00 00 	mov    0xa10b(%rip),%rax        # 1b418 <g_169>
   1130d:	0f b6 00             	movzbl (%rax),%eax
   11310:	0f be c0             	movsbl %al,%eax
   11313:	89 85 e8 ec ff ff    	mov    %eax,-0x1318(%rbp)
   11319:	8b 05 a5 7d 00 00    	mov    0x7da5(%rip),%eax        # 190c4 <g_12+0x64>
   1131f:	44 0f b6 e0          	movzbl %al,%r12d
   11323:	0f b6 45 c7          	movzbl -0x39(%rbp),%eax
   11327:	44 0f be e8          	movsbl %al,%r13d
   1132b:	b8 ff ff ff ff       	mov    $0xffffffff,%eax
   11330:	44 0f bf f0          	movswl %ax,%r14d
   11334:	0f b6 05 51 ad 00 00 	movzbl 0xad51(%rip),%eax        # 1c08c <g_92>
   1133b:	83 e8 01             	sub    $0x1,%eax
   1133e:	88 05 48 ad 00 00    	mov    %al,0xad48(%rip)        # 1c08c <g_92>
   11344:	0f b6 05 41 ad 00 00 	movzbl 0xad41(%rip),%eax        # 1c08c <g_92>
   1134b:	0f b6 c0             	movzbl %al,%eax
   1134e:	89 85 e4 ec ff ff    	mov    %eax,-0x131c(%rbp)
   11354:	66 0f be 85 ec ec ff 	movsbw -0x1314(%rbp),%ax
   1135b:	ff 
   1135c:	44 0f b7 f8          	movzwl %ax,%r15d
   11360:	48 8b 85 d8 ed ff ff 	mov    -0x1228(%rbp),%rax
   11367:	0f b6 d0             	movzbl %al,%edx
   1136a:	0f b7 05 97 7f 00 00 	movzwl 0x7f97(%rip),%eax        # 19308 <g_188>
   11371:	48 0f bf c8          	movswq %ax,%rcx
   11375:	48 8b 85 f8 ec ff ff 	mov    -0x1308(%rbp),%rax
   1137c:	48 39 c1             	cmp    %rax,%rcx
   1137f:	75 13                	jne    11394 <func_38+0x2506>
   11381:	48 8b 85 f8 ec ff ff 	mov    -0x1308(%rbp),%rax
   11388:	48 85 c0             	test   %rax,%rax
   1138b:	74 07                	je     11394 <func_38+0x2506>
   1138d:	b8 01 00 00 00       	mov    $0x1,%eax
   11392:	eb 05                	jmp    11399 <func_38+0x250b>
   11394:	b8 00 00 00 00       	mov    $0x0,%eax
   11399:	0f b6 c0             	movzbl %al,%eax
   1139c:	89 d6                	mov    %edx,%esi
   1139e:	89 c7                	mov    %eax,%edi
   113a0:	e8 ee 47 ff ff       	callq  5b93 <safe_mul_func_uint8_t_u_u>
   113a5:	83 c8 cd             	or     $0xffffffcd,%eax
   113a8:	0f b6 c0             	movzbl %al,%eax
   113ab:	44 89 fe             	mov    %r15d,%esi
   113ae:	89 c7                	mov    %eax,%edi
   113b0:	e8 88 49 ff ff       	callq  5d3d <safe_mul_func_uint16_t_u_u>
   113b5:	0f b7 d0             	movzwl %ax,%edx
   113b8:	8b 05 2e 7f 00 00    	mov    0x7f2e(%rip),%eax        # 192ec <g_79+0xc>
   113be:	39 c2                	cmp    %eax,%edx
   113c0:	77 10                	ja     113d2 <func_38+0x2544>
   113c2:	80 bd ec ec ff ff 00 	cmpb   $0x0,-0x1314(%rbp)
   113c9:	74 07                	je     113d2 <func_38+0x2544>
   113cb:	b8 01 00 00 00       	mov    $0x1,%eax
   113d0:	eb 05                	jmp    113d7 <func_38+0x2549>
   113d2:	b8 00 00 00 00       	mov    $0x0,%eax
   113d7:	3b 85 e4 ec ff ff    	cmp    -0x131c(%rbp),%eax
   113dd:	0f 9f c0             	setg   %al
   113e0:	88 05 24 7f 00 00    	mov    %al,0x7f24(%rip)        # 1930a <g_228>
   113e6:	44 89 f6             	mov    %r14d,%esi
   113e9:	bf 01 00 00 00       	mov    $0x1,%edi
   113ee:	e8 62 40 ff ff       	callq  5455 <safe_div_func_int16_t_s_s>
   113f3:	66 85 c0             	test   %ax,%ax
   113f6:	74 13                	je     1140b <func_38+0x257d>
   113f8:	48 8b 85 f8 ec ff ff 	mov    -0x1308(%rbp),%rax
   113ff:	48 85 c0             	test   %rax,%rax
   11402:	74 07                	je     1140b <func_38+0x257d>
   11404:	b8 01 00 00 00       	mov    $0x1,%eax
   11409:	eb 05                	jmp    11410 <func_38+0x2582>
   1140b:	b8 00 00 00 00       	mov    $0x0,%eax
   11410:	48 98                	cltq   
   11412:	8b 15 dc 7e 00 00    	mov    0x7edc(%rip),%edx        # 192f4 <g_79+0x14>
   11418:	89 d2                	mov    %edx,%edx
   1141a:	48 89 c6             	mov    %rax,%rsi
   1141d:	48 89 d7             	mov    %rdx,%rdi
   11420:	e8 8a 4c ff ff       	callq  60af <safe_div_func_uint64_t_u_u>
   11425:	44 89 ee             	mov    %r13d,%esi
   11428:	89 c7                	mov    %eax,%edi
   1142a:	e8 87 41 ff ff       	callq  55b6 <safe_add_func_int32_t_s_s>
   1142f:	48 83 bd 08 ee ff ff 	cmpq   $0x0,-0x11f8(%rbp)
   11436:	00 
   11437:	0f 94 c0             	sete   %al
   1143a:	0f b6 c0             	movzbl %al,%eax
   1143d:	44 89 e6             	mov    %r12d,%esi
   11440:	89 c7                	mov    %eax,%edi
   11442:	e8 4c 47 ff ff       	callq  5b93 <safe_mul_func_uint8_t_u_u>
   11447:	0f b6 c0             	movzbl %al,%eax
   1144a:	23 85 e8 ec ff ff    	and    -0x1318(%rbp),%eax
   11450:	89 c2                	mov    %eax,%edx
   11452:	48 8b 85 18 ee ff ff 	mov    -0x11e8(%rbp),%rax
   11459:	89 10                	mov    %edx,(%rax)
   1145b:	66 c7 05 a4 7e 00 00 	movw   $0xffff,0x7ea4(%rip)        # 19308 <g_188>
   11462:	ff ff 
   11464:	0f b7 05 9d 7e 00 00 	movzwl 0x7e9d(%rip),%eax        # 19308 <g_188>
   1146b:	98                   	cwtl   
   1146c:	be 07 00 00 00       	mov    $0x7,%esi
   11471:	89 c7                	mov    %eax,%edi
   11473:	e8 b2 40 ff ff       	callq  552a <safe_rshift_func_int16_t_s_s>
   11478:	0f b6 c0             	movzbl %al,%eax
   1147b:	89 de                	mov    %ebx,%esi
   1147d:	89 c7                	mov    %eax,%edi
   1147f:	e8 2a 47 ff ff       	callq  5bae <safe_mod_func_uint8_t_u_u>
   11484:	48 8d 85 f8 ec ff ff 	lea    -0x1308(%rbp),%rax
   1148b:	48 39 85 f8 ed ff ff 	cmp    %rax,-0x1208(%rbp)
   11492:	0f 95 c0             	setne  %al
   11495:	0f b6 c0             	movzbl %al,%eax
   11498:	8b 95 10 ed ff ff    	mov    -0x12f0(%rbp),%edx
   1149e:	89 d6                	mov    %edx,%esi
   114a0:	89 c7                	mov    %eax,%edi
   114a2:	e8 29 4a ff ff       	callq  5ed0 <safe_sub_func_uint32_t_u_u>
   114a7:	48 8b 05 4a 47 00 00 	mov    0x474a(%rip),%rax        # 15bf8 <l_232.4861+0x8>
   114ae:	48 85 c0             	test   %rax,%rax
   114b1:	74 07                	je     114ba <func_38+0x262c>
   114b3:	ba 01 00 00 00       	mov    $0x1,%edx
   114b8:	eb 05                	jmp    114bf <func_38+0x2631>
   114ba:	ba 00 00 00 00       	mov    $0x0,%edx
   114bf:	48 8b 85 f0 ec ff ff 	mov    -0x1310(%rbp),%rax
   114c6:	8b 00                	mov    (%rax),%eax
   114c8:	31 c2                	xor    %eax,%edx
   114ca:	48 8b 85 f0 ec ff ff 	mov    -0x1310(%rbp),%rax
   114d1:	89 10                	mov    %edx,(%rax)
   114d3:	48 8b 05 3e 9f 00 00 	mov    0x9f3e(%rip),%rax        # 1b418 <g_169>
   114da:	0f b6 00             	movzbl (%rax),%eax
   114dd:	0f be c0             	movsbl %al,%eax
   114e0:	be cc ff ff ff       	mov    $0xffffffcc,%esi
   114e5:	89 c7                	mov    %eax,%edi
   114e7:	e8 26 3d ff ff       	callq  5212 <safe_mul_func_int8_t_s_s>
   114ec:	44 0f be e8          	movsbl %al,%r13d
   114f0:	48 8b 05 11 9f 00 00 	mov    0x9f11(%rip),%rax        # 1b408 <g_58>
   114f7:	48 8b 00             	mov    (%rax),%rax
   114fa:	8b 00                	mov    (%rax),%eax
   114fc:	85 c0                	test   %eax,%eax
   114fe:	0f 85 b3 00 00 00    	jne    115b7 <func_38+0x2729>
   11504:	48 8b 85 f0 ec ff ff 	mov    -0x1310(%rbp),%rax
   1150b:	44 8b 30             	mov    (%rax),%r14d
   1150e:	48 8b 85 f8 ec ff ff 	mov    -0x1308(%rbp),%rax
   11515:	0f be d8             	movsbl %al,%ebx
   11518:	48 8b 05 a9 9f 00 00 	mov    0x9fa9(%rip),%rax        # 1b4c8 <g_189>
   1151f:	48 8b 00             	mov    (%rax),%rax
   11522:	48 8b 00             	mov    (%rax),%rax
   11525:	48 85 c0             	test   %rax,%rax
   11528:	0f 94 c0             	sete   %al
   1152b:	22 85 ec ec ff ff    	and    -0x1314(%rbp),%al
   11531:	44 0f b6 e0          	movzbl %al,%r12d
   11535:	48 8b 85 b8 ed ff ff 	mov    -0x1248(%rbp),%rax
   1153c:	48 89 85 90 ed ff ff 	mov    %rax,-0x1270(%rbp)
   11543:	48 8b 85 90 ed ff ff 	mov    -0x1270(%rbp),%rax
   1154a:	48 89 85 e0 ed ff ff 	mov    %rax,-0x1220(%rbp)
   11551:	48 8b 95 a8 ed ff ff 	mov    -0x1258(%rbp),%rdx
   11558:	48 8b 85 10 ee ff ff 	mov    -0x11f0(%rbp),%rax
   1155f:	48 89 10             	mov    %rdx,(%rax)
   11562:	48 8b 85 10 ee ff ff 	mov    -0x11f0(%rbp),%rax
   11569:	48 8b 00             	mov    (%rax),%rax
   1156c:	48 39 85 e0 ed ff ff 	cmp    %rax,-0x1220(%rbp)
   11573:	0f 95 c0             	setne  %al
   11576:	0f b6 c0             	movzbl %al,%eax
   11579:	be 0c 00 00 00       	mov    $0xc,%esi
   1157e:	89 c7                	mov    %eax,%edi
   11580:	e8 de 3f ff ff       	callq  5563 <safe_rshift_func_int16_t_s_u>
   11585:	0f b6 c0             	movzbl %al,%eax
   11588:	44 89 e6             	mov    %r12d,%esi
   1158b:	89 c7                	mov    %eax,%edi
   1158d:	e8 49 46 ff ff       	callq  5bdb <safe_div_func_uint8_t_u_u>
   11592:	0f be c0             	movsbl %al,%eax
   11595:	89 de                	mov    %ebx,%esi
   11597:	89 c7                	mov    %eax,%edi
   11599:	e8 36 3c ff ff       	callq  51d4 <safe_add_func_int8_t_s_s>
   1159e:	0f be d0             	movsbl %al,%edx
   115a1:	8b 05 19 7b 00 00    	mov    0x7b19(%rip),%eax        # 190c0 <g_12+0x60>
   115a7:	98                   	cwtl   
   115a8:	89 d6                	mov    %edx,%esi
   115aa:	89 c7                	mov    %eax,%edi
   115ac:	e8 22 3e ff ff       	callq  53d3 <safe_sub_func_int16_t_s_s>
   115b1:	98                   	cwtl   
   115b2:	44 21 f0             	and    %r14d,%eax
   115b5:	85 c0                	test   %eax,%eax
   115b7:	8b 05 53 7c 00 00    	mov    0x7c53(%rip),%eax        # 19210 <g_17+0x130>
   115bd:	0f be d0             	movsbl %al,%edx
   115c0:	0f be 85 ec ec ff ff 	movsbl -0x1314(%rbp),%eax
   115c7:	89 d6                	mov    %edx,%esi
   115c9:	89 c7                	mov    %eax,%edi
   115cb:	e8 61 3c ff ff       	callq  5231 <safe_mod_func_int8_t_s_s>
   115d0:	48 8b 85 b0 ed ff ff 	mov    -0x1250(%rbp),%rax
   115d7:	8b 00                	mov    (%rax),%eax
   115d9:	98                   	cwtl   
   115da:	be ff ff ff ff       	mov    $0xffffffff,%esi
   115df:	89 c7                	mov    %eax,%edi
   115e1:	e8 ed 3d ff ff       	callq  53d3 <safe_sub_func_int16_t_s_s>
   115e6:	98                   	cwtl   
   115e7:	44 21 e8             	and    %r13d,%eax
   115ea:	85 c0                	test   %eax,%eax
   115ec:	0f 84 ac 05 00 00    	je     11b9e <func_38+0x2d10>
   115f2:	48 c7 85 70 f5 ff ff 	movq   $0x0,-0xa90(%rbp)
   115f9:	00 00 00 00 
   115fd:	48 8d 85 80 ed ff ff 	lea    -0x1280(%rbp),%rax
   11604:	48 89 85 78 f5 ff ff 	mov    %rax,-0xa88(%rbp)
   1160b:	48 8d 05 f6 9d 00 00 	lea    0x9df6(%rip),%rax        # 1b408 <g_58>
   11612:	48 89 85 80 f5 ff ff 	mov    %rax,-0xa80(%rbp)
   11619:	48 8d 85 80 ed ff ff 	lea    -0x1280(%rbp),%rax
   11620:	48 89 85 88 f5 ff ff 	mov    %rax,-0xa78(%rbp)
   11627:	48 c7 85 90 f5 ff ff 	movq   $0x0,-0xa70(%rbp)
   1162e:	00 00 00 00 
   11632:	48 8d 85 80 ed ff ff 	lea    -0x1280(%rbp),%rax
   11639:	48 89 85 98 f5 ff ff 	mov    %rax,-0xa68(%rbp)
   11640:	48 8d 05 c1 9d 00 00 	lea    0x9dc1(%rip),%rax        # 1b408 <g_58>
   11647:	48 89 85 a0 f5 ff ff 	mov    %rax,-0xa60(%rbp)
   1164e:	48 8d 05 b3 9d 00 00 	lea    0x9db3(%rip),%rax        # 1b408 <g_58>
   11655:	48 89 85 a8 f5 ff ff 	mov    %rax,-0xa58(%rbp)
   1165c:	48 c7 85 b0 f5 ff ff 	movq   $0x0,-0xa50(%rbp)
   11663:	00 00 00 00 
   11667:	48 8d 05 9a 9d 00 00 	lea    0x9d9a(%rip),%rax        # 1b408 <g_58>
   1166e:	48 89 85 b8 f5 ff ff 	mov    %rax,-0xa48(%rbp)
   11675:	48 c7 85 c0 f5 ff ff 	movq   $0x0,-0xa40(%rbp)
   1167c:	00 00 00 00 
   11680:	48 8d 85 80 ed ff ff 	lea    -0x1280(%rbp),%rax
   11687:	48 89 85 c8 f5 ff ff 	mov    %rax,-0xa38(%rbp)
   1168e:	48 8d 05 73 9d 00 00 	lea    0x9d73(%rip),%rax        # 1b408 <g_58>
   11695:	48 89 85 d0 f5 ff ff 	mov    %rax,-0xa30(%rbp)
   1169c:	48 8d 85 80 ed ff ff 	lea    -0x1280(%rbp),%rax
   116a3:	48 89 85 d8 f5 ff ff 	mov    %rax,-0xa28(%rbp)
   116aa:	48 8d 05 57 9d 00 00 	lea    0x9d57(%rip),%rax        # 1b408 <g_58>
   116b1:	48 89 85 e0 f5 ff ff 	mov    %rax,-0xa20(%rbp)
   116b8:	48 8d 85 80 ed ff ff 	lea    -0x1280(%rbp),%rax
   116bf:	48 89 85 e8 f5 ff ff 	mov    %rax,-0xa18(%rbp)
   116c6:	48 c7 85 f0 f5 ff ff 	movq   $0x0,-0xa10(%rbp)
   116cd:	00 00 00 00 
   116d1:	48 8d 05 30 9d 00 00 	lea    0x9d30(%rip),%rax        # 1b408 <g_58>
   116d8:	48 89 85 f8 f5 ff ff 	mov    %rax,-0xa08(%rbp)
   116df:	48 8d 85 80 ed ff ff 	lea    -0x1280(%rbp),%rax
   116e6:	48 89 85 00 f6 ff ff 	mov    %rax,-0xa00(%rbp)
   116ed:	48 8d 85 80 ed ff ff 	lea    -0x1280(%rbp),%rax
   116f4:	48 89 85 08 f6 ff ff 	mov    %rax,-0x9f8(%rbp)
   116fb:	48 c7 85 10 f6 ff ff 	movq   $0x0,-0x9f0(%rbp)
   11702:	00 00 00 00 
   11706:	48 8d 05 fb 9c 00 00 	lea    0x9cfb(%rip),%rax        # 1b408 <g_58>
   1170d:	48 89 85 18 f6 ff ff 	mov    %rax,-0x9e8(%rbp)
   11714:	48 c7 85 20 f6 ff ff 	movq   $0x0,-0x9e0(%rbp)
   1171b:	00 00 00 00 
   1171f:	48 8d 85 80 ed ff ff 	lea    -0x1280(%rbp),%rax
   11726:	48 89 85 28 f6 ff ff 	mov    %rax,-0x9d8(%rbp)
   1172d:	48 8d 05 d4 9c 00 00 	lea    0x9cd4(%rip),%rax        # 1b408 <g_58>
   11734:	48 89 85 30 f6 ff ff 	mov    %rax,-0x9d0(%rbp)
   1173b:	48 8d 85 80 ed ff ff 	lea    -0x1280(%rbp),%rax
   11742:	48 89 85 38 f6 ff ff 	mov    %rax,-0x9c8(%rbp)
   11749:	48 8d 05 b8 9c 00 00 	lea    0x9cb8(%rip),%rax        # 1b408 <g_58>
   11750:	48 89 85 40 f6 ff ff 	mov    %rax,-0x9c0(%rbp)
   11757:	48 8d 05 aa 9c 00 00 	lea    0x9caa(%rip),%rax        # 1b408 <g_58>
   1175e:	48 89 85 48 f6 ff ff 	mov    %rax,-0x9b8(%rbp)
   11765:	48 8d 05 9c 9c 00 00 	lea    0x9c9c(%rip),%rax        # 1b408 <g_58>
   1176c:	48 89 85 50 f6 ff ff 	mov    %rax,-0x9b0(%rbp)
   11773:	48 c7 85 58 f6 ff ff 	movq   $0x0,-0x9a8(%rbp)
   1177a:	00 00 00 00 
   1177e:	48 c7 85 60 f6 ff ff 	movq   $0x0,-0x9a0(%rbp)
   11785:	00 00 00 00 
   11789:	48 8d 05 78 9c 00 00 	lea    0x9c78(%rip),%rax        # 1b408 <g_58>
   11790:	48 89 85 68 f6 ff ff 	mov    %rax,-0x998(%rbp)
   11797:	48 8d 05 6a 9c 00 00 	lea    0x9c6a(%rip),%rax        # 1b408 <g_58>
   1179e:	48 89 85 70 f6 ff ff 	mov    %rax,-0x990(%rbp)
   117a5:	48 8d 85 80 ed ff ff 	lea    -0x1280(%rbp),%rax
   117ac:	48 89 85 78 f6 ff ff 	mov    %rax,-0x988(%rbp)
   117b3:	48 c7 85 80 f6 ff ff 	movq   $0x0,-0x980(%rbp)
   117ba:	00 00 00 00 
   117be:	48 8d 05 43 9c 00 00 	lea    0x9c43(%rip),%rax        # 1b408 <g_58>
   117c5:	48 89 85 88 f6 ff ff 	mov    %rax,-0x978(%rbp)
   117cc:	48 c7 85 90 f6 ff ff 	movq   $0x0,-0x970(%rbp)
   117d3:	00 00 00 00 
   117d7:	48 8d 05 2a 9c 00 00 	lea    0x9c2a(%rip),%rax        # 1b408 <g_58>
   117de:	48 89 85 98 f6 ff ff 	mov    %rax,-0x968(%rbp)
   117e5:	48 c7 85 a0 f6 ff ff 	movq   $0x0,-0x960(%rbp)
   117ec:	00 00 00 00 
   117f0:	48 8d 05 11 9c 00 00 	lea    0x9c11(%rip),%rax        # 1b408 <g_58>
   117f7:	48 89 85 a8 f6 ff ff 	mov    %rax,-0x958(%rbp)
   117fe:	48 8d 85 80 ed ff ff 	lea    -0x1280(%rbp),%rax
   11805:	48 89 85 b0 f6 ff ff 	mov    %rax,-0x950(%rbp)
   1180c:	48 8d 05 f5 9b 00 00 	lea    0x9bf5(%rip),%rax        # 1b408 <g_58>
   11813:	48 89 85 b8 f6 ff ff 	mov    %rax,-0x948(%rbp)
   1181a:	48 c7 85 c0 f6 ff ff 	movq   $0x0,-0x940(%rbp)
   11821:	00 00 00 00 
   11825:	48 8d 05 dc 9b 00 00 	lea    0x9bdc(%rip),%rax        # 1b408 <g_58>
   1182c:	48 89 85 c8 f6 ff ff 	mov    %rax,-0x938(%rbp)
   11833:	48 8d 85 80 ed ff ff 	lea    -0x1280(%rbp),%rax
   1183a:	48 89 85 d0 f6 ff ff 	mov    %rax,-0x930(%rbp)
   11841:	48 c7 85 d8 f6 ff ff 	movq   $0x0,-0x928(%rbp)
   11848:	00 00 00 00 
   1184c:	48 8d 05 b5 9b 00 00 	lea    0x9bb5(%rip),%rax        # 1b408 <g_58>
   11853:	48 89 85 e0 f6 ff ff 	mov    %rax,-0x920(%rbp)
   1185a:	48 8d 85 80 ed ff ff 	lea    -0x1280(%rbp),%rax
   11861:	48 89 85 e8 f6 ff ff 	mov    %rax,-0x918(%rbp)
   11868:	48 c7 85 f0 f6 ff ff 	movq   $0x0,-0x910(%rbp)
   1186f:	00 00 00 00 
   11873:	48 c7 85 f8 f6 ff ff 	movq   $0x0,-0x908(%rbp)
   1187a:	00 00 00 00 
   1187e:	48 c7 85 00 f7 ff ff 	movq   $0x0,-0x900(%rbp)
   11885:	00 00 00 00 
   11889:	48 8d 05 78 9b 00 00 	lea    0x9b78(%rip),%rax        # 1b408 <g_58>
   11890:	48 89 85 08 f7 ff ff 	mov    %rax,-0x8f8(%rbp)
   11897:	48 c7 85 10 f7 ff ff 	movq   $0x0,-0x8f0(%rbp)
   1189e:	00 00 00 00 
   118a2:	48 8d 85 80 ed ff ff 	lea    -0x1280(%rbp),%rax
   118a9:	48 89 85 18 f7 ff ff 	mov    %rax,-0x8e8(%rbp)
   118b0:	48 8d 05 51 9b 00 00 	lea    0x9b51(%rip),%rax        # 1b408 <g_58>
   118b7:	48 89 85 20 f7 ff ff 	mov    %rax,-0x8e0(%rbp)
   118be:	48 8d 85 80 ed ff ff 	lea    -0x1280(%rbp),%rax
   118c5:	48 89 85 28 f7 ff ff 	mov    %rax,-0x8d8(%rbp)
   118cc:	48 8d 05 35 9b 00 00 	lea    0x9b35(%rip),%rax        # 1b408 <g_58>
   118d3:	48 89 85 30 f7 ff ff 	mov    %rax,-0x8d0(%rbp)
   118da:	48 8d 05 27 9b 00 00 	lea    0x9b27(%rip),%rax        # 1b408 <g_58>
   118e1:	48 89 85 38 f7 ff ff 	mov    %rax,-0x8c8(%rbp)
   118e8:	48 8d 05 19 9b 00 00 	lea    0x9b19(%rip),%rax        # 1b408 <g_58>
   118ef:	48 89 85 40 f7 ff ff 	mov    %rax,-0x8c0(%rbp)
   118f6:	48 c7 85 48 f7 ff ff 	movq   $0x0,-0x8b8(%rbp)
   118fd:	00 00 00 00 
   11901:	48 8d 05 00 9b 00 00 	lea    0x9b00(%rip),%rax        # 1b408 <g_58>
   11908:	48 89 85 50 f7 ff ff 	mov    %rax,-0x8b0(%rbp)
   1190f:	48 8d 85 80 ed ff ff 	lea    -0x1280(%rbp),%rax
   11916:	48 89 85 58 f7 ff ff 	mov    %rax,-0x8a8(%rbp)
   1191d:	48 8d 85 80 ed ff ff 	lea    -0x1280(%rbp),%rax
   11924:	48 89 85 60 f7 ff ff 	mov    %rax,-0x8a0(%rbp)
   1192b:	48 8d 85 80 ed ff ff 	lea    -0x1280(%rbp),%rax
   11932:	48 89 85 68 f7 ff ff 	mov    %rax,-0x898(%rbp)
   11939:	48 8d 85 80 ed ff ff 	lea    -0x1280(%rbp),%rax
   11940:	48 89 85 70 f7 ff ff 	mov    %rax,-0x890(%rbp)
   11947:	48 c7 85 78 f7 ff ff 	movq   $0x0,-0x888(%rbp)
   1194e:	00 00 00 00 
   11952:	48 c7 85 80 f7 ff ff 	movq   $0x0,-0x880(%rbp)
   11959:	00 00 00 00 
   1195d:	48 c7 85 88 f7 ff ff 	movq   $0x0,-0x878(%rbp)
   11964:	00 00 00 00 
   11968:	48 8d 85 80 ed ff ff 	lea    -0x1280(%rbp),%rax
   1196f:	48 89 85 90 f7 ff ff 	mov    %rax,-0x870(%rbp)
   11976:	48 8d 05 8b 9a 00 00 	lea    0x9a8b(%rip),%rax        # 1b408 <g_58>
   1197d:	48 89 85 98 f7 ff ff 	mov    %rax,-0x868(%rbp)
   11984:	48 8d 05 7d 9a 00 00 	lea    0x9a7d(%rip),%rax        # 1b408 <g_58>
   1198b:	48 89 85 a0 f7 ff ff 	mov    %rax,-0x860(%rbp)
   11992:	48 8d 85 80 ed ff ff 	lea    -0x1280(%rbp),%rax
   11999:	48 89 85 a8 f7 ff ff 	mov    %rax,-0x858(%rbp)
   119a0:	48 c7 85 b0 f7 ff ff 	movq   $0x0,-0x850(%rbp)
   119a7:	00 00 00 00 
   119ab:	48 8d 85 80 ed ff ff 	lea    -0x1280(%rbp),%rax
   119b2:	48 89 85 b8 f7 ff ff 	mov    %rax,-0x848(%rbp)
   119b9:	48 c7 85 c0 f7 ff ff 	movq   $0x0,-0x840(%rbp)
   119c0:	00 00 00 00 
   119c4:	48 8d 85 80 ed ff ff 	lea    -0x1280(%rbp),%rax
   119cb:	48 89 85 c8 f7 ff ff 	mov    %rax,-0x838(%rbp)
   119d2:	48 8d 85 80 ed ff ff 	lea    -0x1280(%rbp),%rax
   119d9:	48 89 85 d0 f7 ff ff 	mov    %rax,-0x830(%rbp)
   119e0:	48 8d 85 80 ed ff ff 	lea    -0x1280(%rbp),%rax
   119e7:	48 89 85 d8 f7 ff ff 	mov    %rax,-0x828(%rbp)
   119ee:	48 8d 85 80 ed ff ff 	lea    -0x1280(%rbp),%rax
   119f5:	48 89 85 e0 f7 ff ff 	mov    %rax,-0x820(%rbp)
   119fc:	48 c7 85 e8 f7 ff ff 	movq   $0x0,-0x818(%rbp)
   11a03:	00 00 00 00 
   11a07:	48 c7 85 f0 f7 ff ff 	movq   $0x0,-0x810(%rbp)
   11a0e:	00 00 00 00 
   11a12:	48 8d 85 80 ed ff ff 	lea    -0x1280(%rbp),%rax
   11a19:	48 89 85 f8 f7 ff ff 	mov    %rax,-0x808(%rbp)
   11a20:	48 8d 05 e1 99 00 00 	lea    0x99e1(%rip),%rax        # 1b408 <g_58>
   11a27:	48 89 85 00 f8 ff ff 	mov    %rax,-0x800(%rbp)
   11a2e:	48 8d 05 d3 99 00 00 	lea    0x99d3(%rip),%rax        # 1b408 <g_58>
   11a35:	48 89 85 08 f8 ff ff 	mov    %rax,-0x7f8(%rbp)
   11a3c:	48 8d 05 c5 99 00 00 	lea    0x99c5(%rip),%rax        # 1b408 <g_58>
   11a43:	48 89 85 10 f8 ff ff 	mov    %rax,-0x7f0(%rbp)
   11a4a:	48 c7 85 18 f8 ff ff 	movq   $0x0,-0x7e8(%rbp)
   11a51:	00 00 00 00 
   11a55:	48 c7 85 20 f8 ff ff 	movq   $0x0,-0x7e0(%rbp)
   11a5c:	00 00 00 00 
   11a60:	48 c7 85 28 f8 ff ff 	movq   $0x0,-0x7d8(%rbp)
   11a67:	00 00 00 00 
   11a6b:	48 c7 85 30 f8 ff ff 	movq   $0x0,-0x7d0(%rbp)
   11a72:	00 00 00 00 
   11a76:	48 8d 85 80 ed ff ff 	lea    -0x1280(%rbp),%rax
   11a7d:	48 89 85 38 f8 ff ff 	mov    %rax,-0x7c8(%rbp)
   11a84:	48 8d 85 70 f5 ff ff 	lea    -0xa90(%rbp),%rax
   11a8b:	48 83 c0 70          	add    $0x70,%rax
   11a8f:	48 89 85 d0 ed ff ff 	mov    %rax,-0x1230(%rbp)
   11a96:	48 8d 85 d0 ed ff ff 	lea    -0x1230(%rbp),%rax
   11a9d:	48 89 85 28 ee ff ff 	mov    %rax,-0x11d8(%rbp)
   11aa4:	c7 85 48 ed ff ff 01 	movl   $0x1,-0x12b8(%rbp)
   11aab:	00 00 00 
   11aae:	48 8b 95 d0 ed ff ff 	mov    -0x1230(%rbp),%rdx
   11ab5:	48 8b 85 28 ee ff ff 	mov    -0x11d8(%rbp),%rax
   11abc:	48 89 10             	mov    %rdx,(%rax)
   11abf:	c7 85 10 ed ff ff fc 	movl   $0xfffffffc,-0x12f0(%rbp)
   11ac6:	ff ff ff 
   11ac9:	eb 67                	jmp    11b32 <func_38+0x2ca4>
   11acb:	48 8b 85 f0 ec ff ff 	mov    -0x1310(%rbp),%rax
   11ad2:	c7 00 01 00 00 00    	movl   $0x1,(%rax)
   11ad8:	48 8b 85 f0 ec ff ff 	mov    -0x1310(%rbp),%rax
   11adf:	8b 00                	mov    (%rax),%eax
   11ae1:	85 c0                	test   %eax,%eax
   11ae3:	75 58                	jne    11b3d <func_38+0x2caf>
   11ae5:	8b 85 48 ed ff ff    	mov    -0x12b8(%rbp),%eax
   11aeb:	83 f8 08             	cmp    $0x8,%eax
   11aee:	77 13                	ja     11b03 <func_38+0x2c75>
   11af0:	48 8b 05 19 99 00 00 	mov    0x9919(%rip),%rax        # 1b410 <g_57>
   11af7:	48 8b 00             	mov    (%rax),%rax
   11afa:	48 8b 00             	mov    (%rax),%rax
   11afd:	8b 00                	mov    (%rax),%eax
   11aff:	85 c0                	test   %eax,%eax
   11b01:	74 07                	je     11b0a <func_38+0x2c7c>
   11b03:	ba 01 00 00 00       	mov    $0x1,%edx
   11b08:	eb 05                	jmp    11b0f <func_38+0x2c81>
   11b0a:	ba 00 00 00 00       	mov    $0x0,%edx
   11b0f:	48 8b 85 f0 ec ff ff 	mov    -0x1310(%rbp),%rax
   11b16:	89 10                	mov    %edx,(%rax)
   11b18:	8b 85 10 ed ff ff    	mov    -0x12f0(%rbp),%eax
   11b1e:	98                   	cwtl   
   11b1f:	be 08 00 00 00       	mov    $0x8,%esi
   11b24:	89 c7                	mov    %eax,%edi
   11b26:	e8 88 38 ff ff       	callq  53b3 <safe_add_func_int16_t_s_s>
   11b2b:	98                   	cwtl   
   11b2c:	89 85 10 ed ff ff    	mov    %eax,-0x12f0(%rbp)
   11b32:	83 bd 10 ed ff ff 24 	cmpl   $0x24,-0x12f0(%rbp)
   11b39:	74 90                	je     11acb <func_38+0x2c3d>
   11b3b:	eb 01                	jmp    11b3e <func_38+0x2cb0>
   11b3d:	90                   	nop
   11b3e:	c7 85 48 ed ff ff 07 	movl   $0x7,-0x12b8(%rbp)
   11b45:	00 00 00 
   11b48:	eb 46                	jmp    11b90 <func_38+0x2d02>
   11b4a:	c6 05 b5 77 00 00 00 	movb   $0x0,0x77b5(%rip)        # 19306 <g_170>
   11b51:	eb 28                	jmp    11b7b <func_38+0x2ced>
   11b53:	48 8b 85 b0 ed ff ff 	mov    -0x1250(%rbp),%rax
   11b5a:	8b 00                	mov    (%rax),%eax
   11b5c:	85 c0                	test   %eax,%eax
   11b5e:	75 28                	jne    11b88 <func_38+0x2cfa>
   11b60:	48 8b 85 f0 ec ff ff 	mov    -0x1310(%rbp),%rax
   11b67:	8b 00                	mov    (%rax),%eax
   11b69:	85 c0                	test   %eax,%eax
   11b6b:	0f b6 05 94 77 00 00 	movzbl 0x7794(%rip),%eax        # 19306 <g_170>
   11b72:	83 c0 01             	add    $0x1,%eax
   11b75:	88 05 8b 77 00 00    	mov    %al,0x778b(%rip)        # 19306 <g_170>
   11b7b:	0f b6 05 84 77 00 00 	movzbl 0x7784(%rip),%eax        # 19306 <g_170>
   11b82:	3c 13                	cmp    $0x13,%al
   11b84:	7e cd                	jle    11b53 <func_38+0x2cc5>
   11b86:	eb 01                	jmp    11b89 <func_38+0x2cfb>
   11b88:	90                   	nop
   11b89:	83 85 48 ed ff ff 01 	addl   $0x1,-0x12b8(%rbp)
   11b90:	83 bd 48 ed ff ff 0f 	cmpl   $0xf,-0x12b8(%rbp)
   11b97:	7e b1                	jle    11b4a <func_38+0x2cbc>
   11b99:	e9 2b 02 00 00       	jmpq   11dc9 <func_38+0x2f3b>
   11b9e:	66 c7 85 0c ed ff ff 	movw   $0x3d4b,-0x12f4(%rbp)
   11ba5:	4b 3d 
   11ba7:	c7 85 5c ed ff ff c6 	movl   $0xb598adc6,-0x12a4(%rbp)
   11bae:	ad 98 b5 
   11bb1:	48 8d 85 c8 ed ff ff 	lea    -0x1238(%rbp),%rax
   11bb8:	48 89 85 20 ee ff ff 	mov    %rax,-0x11e0(%rbp)
   11bbf:	b8 88 ff b0 c1       	mov    $0xc1b0ff88,%eax
   11bc4:	41 89 c5             	mov    %eax,%r13d
   11bc7:	48 8b 85 f0 ec ff ff 	mov    -0x1310(%rbp),%rax
   11bce:	8b 00                	mov    (%rax),%eax
   11bd0:	85 c0                	test   %eax,%eax
   11bd2:	0f 85 18 01 00 00    	jne    11cf0 <func_38+0x2e62>
   11bd8:	48 8b 85 f0 ec ff ff 	mov    -0x1310(%rbp),%rax
   11bdf:	c7 00 2b 00 00 00    	movl   $0x2b,(%rax)
   11be5:	0f bf 9d 0c ed ff ff 	movswl -0x12f4(%rbp),%ebx
   11bec:	8b 05 4e 74 00 00    	mov    0x744e(%rip),%eax        # 19040 <g_8>
   11bf2:	88 05 12 77 00 00    	mov    %al,0x7712(%rip)        # 1930a <g_228>
   11bf8:	0f b6 05 0b 77 00 00 	movzbl 0x770b(%rip),%eax        # 1930a <g_228>
   11bff:	44 0f be e0          	movsbl %al,%r12d
   11c03:	48 8b 85 f8 ec ff ff 	mov    -0x1308(%rbp),%rax
   11c0a:	0f b6 d0             	movzbl %al,%edx
   11c0d:	0f b6 85 ec ec ff ff 	movzbl -0x1314(%rbp),%eax
   11c14:	0f b6 c0             	movzbl %al,%eax
   11c17:	89 d6                	mov    %edx,%esi
   11c19:	89 c7                	mov    %eax,%edi
   11c1b:	e8 73 3f ff ff       	callq  5b93 <safe_mul_func_uint8_t_u_u>
   11c20:	0f b6 c0             	movzbl %al,%eax
   11c23:	41 39 c4             	cmp    %eax,%r12d
   11c26:	75 3b                	jne    11c63 <func_38+0x2dd5>
   11c28:	be 00 00 00 00       	mov    $0x0,%esi
   11c2d:	bf 00 00 00 00       	mov    $0x0,%edi
   11c32:	e8 aa 38 ff ff       	callq  54e1 <safe_lshift_func_int16_t_s_u>
   11c37:	66 3d fd 00          	cmp    $0xfd,%ax
   11c3b:	0f 94 c0             	sete   %al
   11c3e:	0f b6 d0             	movzbl %al,%edx
   11c41:	48 8b 85 f8 ec ff ff 	mov    -0x1308(%rbp),%rax
   11c48:	48 39 c2             	cmp    %rax,%rdx
   11c4b:	0f 96 c0             	setbe  %al
   11c4e:	0f b6 d0             	movzbl %al,%edx
   11c51:	0f b6 85 09 ed ff ff 	movzbl -0x12f7(%rbp),%eax
   11c58:	39 c2                	cmp    %eax,%edx
   11c5a:	7f 07                	jg     11c63 <func_38+0x2dd5>
   11c5c:	b8 01 00 00 00       	mov    $0x1,%eax
   11c61:	eb 05                	jmp    11c68 <func_38+0x2dda>
   11c63:	b8 00 00 00 00       	mov    $0x0,%eax
   11c68:	0f be c0             	movsbl %al,%eax
   11c6b:	48 8b 15 a6 97 00 00 	mov    0x97a6(%rip),%rdx        # 1b418 <g_169>
   11c72:	c6 02 fe             	movb   $0xfe,(%rdx)
   11c75:	89 c6                	mov    %eax,%esi
   11c77:	bf fe ff ff ff       	mov    $0xfffffffe,%edi
   11c7c:	e8 91 35 ff ff       	callq  5212 <safe_mul_func_int8_t_s_s>
   11c81:	0f be d0             	movsbl %al,%edx
   11c84:	48 8b 85 f8 ec ff ff 	mov    -0x1308(%rbp),%rax
   11c8b:	0f be c0             	movsbl %al,%eax
   11c8e:	89 d6                	mov    %edx,%esi
   11c90:	89 c7                	mov    %eax,%edi
   11c92:	e8 d5 36 ff ff       	callq  536c <safe_rshift_func_int8_t_s_u>
   11c97:	48 8b 05 62 97 00 00 	mov    0x9762(%rip),%rax        # 1b400 <g_59>
   11c9e:	8b 10                	mov    (%rax),%edx
   11ca0:	48 8b 85 f0 ec ff ff 	mov    -0x1310(%rbp),%rax
   11ca7:	8b 00                	mov    (%rax),%eax
   11ca9:	39 c2                	cmp    %eax,%edx
   11cab:	0f 93 c0             	setae  %al
   11cae:	0f b6 c0             	movzbl %al,%eax
   11cb1:	89 85 5c ed ff ff    	mov    %eax,-0x12a4(%rbp)
   11cb7:	48 8b 85 b0 ed ff ff 	mov    -0x1250(%rbp),%rax
   11cbe:	8b 00                	mov    (%rax),%eax
   11cc0:	39 85 5c ed ff ff    	cmp    %eax,-0x12a4(%rbp)
   11cc6:	0f 9c c0             	setl   %al
   11cc9:	0f b6 c0             	movzbl %al,%eax
   11ccc:	39 c3                	cmp    %eax,%ebx
   11cce:	0f 9f c0             	setg   %al
   11cd1:	0f b6 d0             	movzbl %al,%edx
   11cd4:	0f bf 85 0c ed ff ff 	movswl -0x12f4(%rbp),%eax
   11cdb:	39 c2                	cmp    %eax,%edx
   11cdd:	0f 9f c0             	setg   %al
   11ce0:	0f b6 d0             	movzbl %al,%edx
   11ce3:	0f bf 85 0c ed ff ff 	movswl -0x12f4(%rbp),%eax
   11cea:	21 d0                	and    %edx,%eax
   11cec:	85 c0                	test   %eax,%eax
   11cee:	74 07                	je     11cf7 <func_38+0x2e69>
   11cf0:	b8 01 00 00 00       	mov    $0x1,%eax
   11cf5:	eb 05                	jmp    11cfc <func_38+0x2e6e>
   11cf7:	b8 00 00 00 00       	mov    $0x0,%eax
   11cfc:	48 98                	cltq   
   11cfe:	4c 89 ee             	mov    %r13,%rsi
   11d01:	48 89 c7             	mov    %rax,%rdi
   11d04:	e8 77 43 ff ff       	callq  6080 <safe_mod_func_uint64_t_u_u>
   11d09:	0f b7 15 f8 75 00 00 	movzwl 0x75f8(%rip),%edx        # 19308 <g_188>
   11d10:	48 0f bf d2          	movswq %dx,%rdx
   11d14:	48 39 d0             	cmp    %rdx,%rax
   11d17:	0f 96 c2             	setbe  %dl
   11d1a:	48 8b 85 b0 ed ff ff 	mov    -0x1250(%rbp),%rax
   11d21:	0f b6 d2             	movzbl %dl,%edx
   11d24:	89 10                	mov    %edx,(%rax)
   11d26:	48 8b 05 f3 97 00 00 	mov    0x97f3(%rip),%rax        # 1b520 <g_283>
   11d2d:	48 85 c0             	test   %rax,%rax
   11d30:	0f 95 c0             	setne  %al
   11d33:	0f b6 d0             	movzbl %al,%edx
   11d36:	48 8b 85 f0 ec ff ff 	mov    -0x1310(%rbp),%rax
   11d3d:	89 10                	mov    %edx,(%rax)
   11d3f:	48 8b 85 b0 ed ff ff 	mov    -0x1250(%rbp),%rax
   11d46:	48 8b 95 f0 ec ff ff 	mov    -0x1310(%rbp),%rdx
   11d4d:	8b 12                	mov    (%rdx),%edx
   11d4f:	89 10                	mov    %edx,(%rax)
   11d51:	48 8b 95 c8 ed ff ff 	mov    -0x1238(%rbp),%rdx
   11d58:	48 8b 85 20 ee ff ff 	mov    -0x11e0(%rbp),%rax
   11d5f:	48 89 10             	mov    %rdx,(%rax)
   11d62:	48 c7 05 5b 75 00 00 	movq   $0x0,0x755b(%rip)        # 192c8 <g_74>
   11d69:	00 00 00 00 
   11d6d:	eb 4a                	jmp    11db9 <func_38+0x2f2b>
   11d6f:	48 8b 15 4a 97 00 00 	mov    0x974a(%rip),%rdx        # 1b4c0 <g_190>
   11d76:	48 8b 85 f0 ed ff ff 	mov    -0x1210(%rbp),%rax
   11d7d:	48 8b 00             	mov    (%rax),%rax
   11d80:	48 8b 00             	mov    (%rax),%rax
   11d83:	48 8b 12             	mov    (%rdx),%rdx
   11d86:	48 89 10             	mov    %rdx,(%rax)
   11d89:	48 8b 85 a0 ed ff ff 	mov    -0x1260(%rbp),%rax
   11d90:	48 8b 00             	mov    (%rax),%rax
   11d93:	8b 00                	mov    (%rax),%eax
   11d95:	85 c0                	test   %eax,%eax
   11d97:	75 2f                	jne    11dc8 <func_38+0x2f3a>
   11d99:	48 8b 05 28 75 00 00 	mov    0x7528(%rip),%rax        # 192c8 <g_74>
   11da0:	0f b7 c0             	movzwl %ax,%eax
   11da3:	be 03 00 00 00       	mov    $0x3,%esi
   11da8:	89 c7                	mov    %eax,%edi
   11daa:	e8 50 3f ff ff       	callq  5cff <safe_add_func_uint16_t_u_u>
   11daf:	0f b7 c0             	movzwl %ax,%eax
   11db2:	48 89 05 0f 75 00 00 	mov    %rax,0x750f(%rip)        # 192c8 <g_74>
   11db9:	48 8b 05 08 75 00 00 	mov    0x7508(%rip),%rax        # 192c8 <g_74>
   11dc0:	48 83 f8 2e          	cmp    $0x2e,%rax
   11dc4:	77 a9                	ja     11d6f <func_38+0x2ee1>
   11dc6:	eb 01                	jmp    11dc9 <func_38+0x2f3b>
   11dc8:	90                   	nop
   11dc9:	48 8b 05 48 96 00 00 	mov    0x9648(%rip),%rax        # 1b418 <g_169>
   11dd0:	0f b6 00             	movzbl (%rax),%eax
   11dd3:	48 0f be c0          	movsbq %al,%rax
   11dd7:	34 ff                	xor    $0xff,%al
   11dd9:	49 89 c4             	mov    %rax,%r12
   11ddc:	48 8b 05 e5 74 00 00 	mov    0x74e5(%rip),%rax        # 192c8 <g_74>
   11de3:	41 89 c5             	mov    %eax,%r13d
   11de6:	8b 05 10 75 00 00    	mov    0x7510(%rip),%eax        # 192fc <g_134>
   11dec:	48 63 d8             	movslq %eax,%rbx
   11def:	0f b7 05 12 75 00 00 	movzwl 0x7512(%rip),%eax        # 19308 <g_188>
   11df6:	0f bf d0             	movswl %ax,%edx
   11df9:	8b 05 d1 74 00 00    	mov    0x74d1(%rip),%eax        # 192d0 <g_77>
   11dff:	21 c2                	and    %eax,%edx
   11e01:	48 8b 05 f8 95 00 00 	mov    0x95f8(%rip),%rax        # 1b400 <g_59>
   11e08:	8b 00                	mov    (%rax),%eax
   11e0a:	89 05 e8 74 00 00    	mov    %eax,0x74e8(%rip)        # 192f8 <g_103>
   11e10:	8b 05 e2 74 00 00    	mov    0x74e2(%rip),%eax        # 192f8 <g_103>
   11e16:	85 c0                	test   %eax,%eax
   11e18:	75 10                	jne    11e2a <func_38+0x2f9c>
   11e1a:	48 8b 85 a0 ed ff ff 	mov    -0x1260(%rbp),%rax
   11e21:	48 8b 00             	mov    (%rax),%rax
   11e24:	8b 00                	mov    (%rax),%eax
   11e26:	85 c0                	test   %eax,%eax
   11e28:	74 07                	je     11e31 <func_38+0x2fa3>
   11e2a:	b8 01 00 00 00       	mov    $0x1,%eax
   11e2f:	eb 05                	jmp    11e36 <func_38+0x2fa8>
   11e31:	b8 00 00 00 00       	mov    $0x0,%eax
   11e36:	39 c2                	cmp    %eax,%edx
   11e38:	48 8b 85 d8 fd ff ff 	mov    -0x228(%rbp),%rax
   11e3f:	48 83 f8 01          	cmp    $0x1,%rax
   11e43:	0f 94 c0             	sete   %al
   11e46:	0f b6 d0             	movzbl %al,%edx
   11e49:	48 8b 85 f8 ec ff ff 	mov    -0x1308(%rbp),%rax
   11e50:	48 31 d0             	xor    %rdx,%rax
   11e53:	48 89 c6             	mov    %rax,%rsi
   11e56:	48 bf 46 56 e6 30 24 	movabs $0xebb6822430e65646,%rdi
   11e5d:	82 b6 eb 
   11e60:	e8 4a 42 ff ff       	callq  60af <safe_div_func_uint64_t_u_u>
   11e65:	48 85 c0             	test   %rax,%rax
   11e68:	74 07                	je     11e71 <func_38+0x2fe3>
   11e6a:	b8 01 00 00 00       	mov    $0x1,%eax
   11e6f:	eb 05                	jmp    11e76 <func_38+0x2fe8>
   11e71:	b8 00 00 00 00       	mov    $0x0,%eax
   11e76:	89 c2                	mov    %eax,%edx
   11e78:	8b 05 76 74 00 00    	mov    0x7476(%rip),%eax        # 192f4 <g_79+0x14>
   11e7e:	39 c2                	cmp    %eax,%edx
   11e80:	0f 93 c0             	setae  %al
   11e83:	0f b6 c0             	movzbl %al,%eax
   11e86:	48 89 de             	mov    %rbx,%rsi
   11e89:	48 89 c7             	mov    %rax,%rdi
   11e8c:	e8 23 3b ff ff       	callq  59b4 <safe_mod_func_int64_t_s_s>
   11e91:	89 c2                	mov    %eax,%edx
   11e93:	48 8b 85 f8 ec ff ff 	mov    -0x1308(%rbp),%rax
   11e9a:	21 d0                	and    %edx,%eax
   11e9c:	44 89 ee             	mov    %r13d,%esi
   11e9f:	89 c7                	mov    %eax,%edi
   11ea1:	e8 57 40 ff ff       	callq  5efd <safe_mod_func_uint32_t_u_u>
   11ea6:	0f b7 c0             	movzwl %ax,%eax
   11ea9:	be 06 00 00 00       	mov    $0x6,%esi
   11eae:	89 c7                	mov    %eax,%edi
   11eb0:	e8 c5 3f ff ff       	callq  5e7a <safe_rshift_func_uint16_t_u_u>
   11eb5:	80 bd ec ec ff ff 00 	cmpb   $0x0,-0x1314(%rbp)
   11ebc:	0f 95 c0             	setne  %al
   11ebf:	0f b6 c0             	movzbl %al,%eax
   11ec2:	be 0c 00 00 00       	mov    $0xc,%esi
   11ec7:	89 c7                	mov    %eax,%edi
   11ec9:	e8 7a 3f ff ff       	callq  5e48 <safe_rshift_func_uint16_t_u_s>
   11ece:	be 01 00 00 00       	mov    $0x1,%esi
   11ed3:	bf 00 00 00 00       	mov    $0x0,%edi
   11ed8:	e8 f6 34 ff ff       	callq  53d3 <safe_sub_func_int16_t_s_s>
   11edd:	0f bf d0             	movswl %ax,%edx
   11ee0:	8b 05 a2 71 00 00    	mov    0x71a2(%rip),%eax        # 19088 <g_12+0x28>
   11ee6:	09 c2                	or     %eax,%edx
   11ee8:	48 8b 85 a8 ed ff ff 	mov    -0x1258(%rbp),%rax
   11eef:	48 8b 00             	mov    (%rax),%rax
   11ef2:	48 8b 00             	mov    (%rax),%rax
   11ef5:	8b 00                	mov    (%rax),%eax
   11ef7:	39 c2                	cmp    %eax,%edx
   11ef9:	0f 94 c0             	sete   %al
   11efc:	0f b6 c0             	movzbl %al,%eax
   11eff:	49 39 c4             	cmp    %rax,%r12
   11f02:	0f 96 c0             	setbe  %al
   11f05:	0f b6 d0             	movzbl %al,%edx
   11f08:	48 8b 85 f0 ec ff ff 	mov    -0x1310(%rbp),%rax
   11f0f:	89 10                	mov    %edx,(%rax)
   11f11:	eb 4c                	jmp    11f5f <func_38+0x30d1>
   11f13:	48 8d 85 90 ed ff ff 	lea    -0x1270(%rbp),%rax
   11f1a:	48 89 85 00 ee ff ff 	mov    %rax,-0x1200(%rbp)
   11f21:	c7 85 58 ed ff ff f5 	movl   $0x9d9e98f5,-0x12a8(%rbp)
   11f28:	98 9e 9d 
   11f2b:	48 8d 85 70 f5 ff ff 	lea    -0xa90(%rbp),%rax
   11f32:	48 8d 15 87 38 00 00 	lea    0x3887(%rip),%rdx        # 157c0 <g_151+0x1760>
   11f39:	b9 3c 00 00 00       	mov    $0x3c,%ecx
   11f3e:	48 89 c7             	mov    %rax,%rdi
   11f41:	48 89 d6             	mov    %rdx,%rsi
   11f44:	f3 48 a5             	rep movsq %ds:(%rsi),%es:(%rdi)
   11f47:	48 8b 85 00 ee ff ff 	mov    -0x1200(%rbp),%rax
   11f4e:	48 8d 95 88 ed ff ff 	lea    -0x1278(%rbp),%rdx
   11f55:	48 89 10             	mov    %rdx,(%rax)
   11f58:	83 85 14 ed ff ff 01 	addl   $0x1,-0x12ec(%rbp)
   11f5f:	48 8b 05 5a 95 00 00 	mov    0x955a(%rip),%rax        # 1b4c0 <g_190>
   11f66:	48 c7 00 00 00 00 00 	movq   $0x0,(%rax)
   11f6d:	8b 05 cd 70 00 00    	mov    0x70cd(%rip),%eax        # 19040 <g_8>
   11f73:	89 c2                	mov    %eax,%edx
   11f75:	48 8b 05 9c 94 00 00 	mov    0x949c(%rip),%rax        # 1b418 <g_169>
   11f7c:	0f b6 00             	movzbl (%rax),%eax
   11f7f:	0f be c0             	movsbl %al,%eax
   11f82:	89 d6                	mov    %edx,%esi
   11f84:	89 c7                	mov    %eax,%edi
   11f86:	e8 e1 33 ff ff       	callq  536c <safe_rshift_func_int8_t_s_u>
   11f8b:	0f be d0             	movsbl %al,%edx
   11f8e:	48 8b 85 f0 ec ff ff 	mov    -0x1310(%rbp),%rax
   11f95:	89 10                	mov    %edx,(%rax)
   11f97:	48 8b 85 f0 ec ff ff 	mov    -0x1310(%rbp),%rax
   11f9e:	8b 00                	mov    (%rax),%eax
   11fa0:	85 c0                	test   %eax,%eax
   11fa2:	0f 84 09 0d 00 00    	je     12cb1 <func_38+0x3e23>
   11fa8:	c6 85 0a ed ff ff 00 	movb   $0x0,-0x12f6(%rbp)
   11faf:	c7 85 60 ed ff ff 3f 	movl   $0x7511073f,-0x12a0(%rbp)
   11fb6:	07 11 75 
   11fb9:	c7 85 4c ed ff ff 00 	movl   $0x0,-0x12b4(%rbp)
   11fc0:	00 00 00 
   11fc3:	eb 1a                	jmp    11fdf <func_38+0x3151>
   11fc5:	8b 85 4c ed ff ff    	mov    -0x12b4(%rbp),%eax
   11fcb:	48 98                	cltq   
   11fcd:	c7 84 85 40 f1 ff ff 	movl   $0x47ef6aaa,-0xec0(%rbp,%rax,4)
   11fd4:	aa 6a ef 47 
   11fd8:	83 85 4c ed ff ff 01 	addl   $0x1,-0x12b4(%rbp)
   11fdf:	83 bd 4c ed ff ff 04 	cmpl   $0x4,-0x12b4(%rbp)
   11fe6:	7e dd                	jle    11fc5 <func_38+0x3137>
   11fe8:	c7 85 4c ed ff ff 00 	movl   $0x0,-0x12b4(%rbp)
   11fef:	00 00 00 
   11ff2:	eb 21                	jmp    12015 <func_38+0x3187>
   11ff4:	8b 85 4c ed ff ff    	mov    -0x12b4(%rbp),%eax
   11ffa:	48 98                	cltq   
   11ffc:	48 bb be 19 69 9a ac 	movabs $0xb665f2ac9a6919be,%rbx
   12003:	f2 65 b6 
   12006:	48 89 9c c5 70 f5 ff 	mov    %rbx,-0xa90(%rbp,%rax,8)
   1200d:	ff 
   1200e:	83 85 4c ed ff ff 01 	addl   $0x1,-0x12b4(%rbp)
   12015:	83 bd 4c ed ff ff 04 	cmpl   $0x4,-0x12b4(%rbp)
   1201c:	7e d6                	jle    11ff4 <func_38+0x3166>
   1201e:	c6 05 e1 72 00 00 ef 	movb   $0xef,0x72e1(%rip)        # 19306 <g_170>
   12025:	e9 6f 0c 00 00       	jmpq   12c99 <func_38+0x3e0b>
   1202a:	48 8d 05 57 a0 00 00 	lea    0xa057(%rip),%rax        # 1c088 <g_62>
   12031:	48 89 85 40 ee ff ff 	mov    %rax,-0x11c0(%rbp)
   12038:	48 c7 85 48 ee ff ff 	movq   $0x0,-0x11b8(%rbp)
   1203f:	00 00 00 00 
   12043:	48 8d 85 40 f3 ff ff 	lea    -0xcc0(%rbp),%rax
   1204a:	48 05 e8 00 00 00    	add    $0xe8,%rax
   12050:	48 89 85 50 ee ff ff 	mov    %rax,-0x11b0(%rbp)
   12057:	48 c7 85 58 ee ff ff 	movq   $0x0,-0x11a8(%rbp)
   1205e:	00 00 00 00 
   12062:	48 8d 85 40 f3 ff ff 	lea    -0xcc0(%rbp),%rax
   12069:	48 89 85 60 ee ff ff 	mov    %rax,-0x11a0(%rbp)
   12070:	48 8d 85 40 f3 ff ff 	lea    -0xcc0(%rbp),%rax
   12077:	48 05 98 00 00 00    	add    $0x98,%rax
   1207d:	48 89 85 68 ee ff ff 	mov    %rax,-0x1198(%rbp)
   12084:	48 c7 85 40 f8 ff ff 	movq   $0x0,-0x7c0(%rbp)
   1208b:	00 00 00 00 
   1208f:	48 8d 05 f2 6f 00 00 	lea    0x6ff2(%rip),%rax        # 19088 <g_12+0x28>
   12096:	48 89 85 48 f8 ff ff 	mov    %rax,-0x7b8(%rbp)
   1209d:	48 8d 85 40 f3 ff ff 	lea    -0xcc0(%rbp),%rax
   120a4:	48 05 14 01 00 00    	add    $0x114,%rax
   120aa:	48 89 85 50 f8 ff ff 	mov    %rax,-0x7b0(%rbp)
   120b1:	48 c7 85 58 f8 ff ff 	movq   $0x0,-0x7a8(%rbp)
   120b8:	00 00 00 00 
   120bc:	48 8d 05 a1 6f 00 00 	lea    0x6fa1(%rip),%rax        # 19064 <g_12+0x4>
   120c3:	48 89 85 60 f8 ff ff 	mov    %rax,-0x7a0(%rbp)
   120ca:	48 c7 85 68 f8 ff ff 	movq   $0x0,-0x798(%rbp)
   120d1:	00 00 00 00 
   120d5:	48 8d 85 40 f3 ff ff 	lea    -0xcc0(%rbp),%rax
   120dc:	48 05 14 01 00 00    	add    $0x114,%rax
   120e2:	48 89 85 70 f8 ff ff 	mov    %rax,-0x790(%rbp)
   120e9:	48 8d 05 98 6f 00 00 	lea    0x6f98(%rip),%rax        # 19088 <g_12+0x28>
   120f0:	48 89 85 78 f8 ff ff 	mov    %rax,-0x788(%rbp)
   120f7:	48 8d 85 40 f3 ff ff 	lea    -0xcc0(%rbp),%rax
   120fe:	48 05 bc 01 00 00    	add    $0x1bc,%rax
   12104:	48 89 85 80 f8 ff ff 	mov    %rax,-0x780(%rbp)
   1210b:	48 8d 05 76 6f 00 00 	lea    0x6f76(%rip),%rax        # 19088 <g_12+0x28>
   12112:	48 89 85 88 f8 ff ff 	mov    %rax,-0x778(%rbp)
   12119:	48 8d 85 40 f3 ff ff 	lea    -0xcc0(%rbp),%rax
   12120:	48 05 bc 01 00 00    	add    $0x1bc,%rax
   12126:	48 89 85 90 f8 ff ff 	mov    %rax,-0x770(%rbp)
   1212d:	48 8d 05 54 6f 00 00 	lea    0x6f54(%rip),%rax        # 19088 <g_12+0x28>
   12134:	48 89 85 98 f8 ff ff 	mov    %rax,-0x768(%rbp)
   1213b:	48 8d 85 40 f3 ff ff 	lea    -0xcc0(%rbp),%rax
   12142:	48 05 14 01 00 00    	add    $0x114,%rax
   12148:	48 89 85 a0 f8 ff ff 	mov    %rax,-0x760(%rbp)
   1214f:	48 c7 85 a8 f8 ff ff 	movq   $0x0,-0x758(%rbp)
   12156:	00 00 00 00 
   1215a:	48 8d 05 03 6f 00 00 	lea    0x6f03(%rip),%rax        # 19064 <g_12+0x4>
   12161:	48 89 85 b0 f8 ff ff 	mov    %rax,-0x750(%rbp)
   12168:	48 c7 85 b8 f8 ff ff 	movq   $0x0,-0x748(%rbp)
   1216f:	00 00 00 00 
   12173:	48 8d 05 0e 6f 00 00 	lea    0x6f0e(%rip),%rax        # 19088 <g_12+0x28>
   1217a:	48 89 85 c0 f8 ff ff 	mov    %rax,-0x740(%rbp)
   12181:	48 8d 85 40 f3 ff ff 	lea    -0xcc0(%rbp),%rax
   12188:	48 83 c0 68          	add    $0x68,%rax
   1218c:	48 89 85 c8 f8 ff ff 	mov    %rax,-0x738(%rbp)
   12193:	48 8d 05 02 6f 00 00 	lea    0x6f02(%rip),%rax        # 1909c <g_12+0x3c>
   1219a:	48 89 85 d0 f8 ff ff 	mov    %rax,-0x730(%rbp)
   121a1:	48 c7 85 d8 f8 ff ff 	movq   $0x0,-0x728(%rbp)
   121a8:	00 00 00 00 
   121ac:	48 8d 05 ed 6e 00 00 	lea    0x6eed(%rip),%rax        # 190a0 <g_12+0x40>
   121b3:	48 89 85 e0 f8 ff ff 	mov    %rax,-0x720(%rbp)
   121ba:	48 8d 85 40 f3 ff ff 	lea    -0xcc0(%rbp),%rax
   121c1:	48 05 58 01 00 00    	add    $0x158,%rax
   121c7:	48 89 85 e8 f8 ff ff 	mov    %rax,-0x718(%rbp)
   121ce:	48 8d 05 c7 6e 00 00 	lea    0x6ec7(%rip),%rax        # 1909c <g_12+0x3c>
   121d5:	48 89 85 f0 f8 ff ff 	mov    %rax,-0x710(%rbp)
   121dc:	48 8d 05 a5 6e 00 00 	lea    0x6ea5(%rip),%rax        # 19088 <g_12+0x28>
   121e3:	48 89 85 f8 f8 ff ff 	mov    %rax,-0x708(%rbp)
   121ea:	48 8d 05 97 6e 00 00 	lea    0x6e97(%rip),%rax        # 19088 <g_12+0x28>
   121f1:	48 89 85 00 f9 ff ff 	mov    %rax,-0x700(%rbp)
   121f8:	48 8d 85 40 f3 ff ff 	lea    -0xcc0(%rbp),%rax
   121ff:	48 83 c0 34          	add    $0x34,%rax
   12203:	48 89 85 08 f9 ff ff 	mov    %rax,-0x6f8(%rbp)
   1220a:	48 8d 05 53 6e 00 00 	lea    0x6e53(%rip),%rax        # 19064 <g_12+0x4>
   12211:	48 89 85 10 f9 ff ff 	mov    %rax,-0x6f0(%rbp)
   12218:	48 8d 85 40 f3 ff ff 	lea    -0xcc0(%rbp),%rax
   1221f:	48 83 c0 68          	add    $0x68,%rax
   12223:	48 89 85 18 f9 ff ff 	mov    %rax,-0x6e8(%rbp)
   1222a:	48 8d 85 40 f3 ff ff 	lea    -0xcc0(%rbp),%rax
   12231:	48 05 14 01 00 00    	add    $0x114,%rax
   12237:	48 89 85 20 f9 ff ff 	mov    %rax,-0x6e0(%rbp)
   1223e:	48 8d 05 43 6e 00 00 	lea    0x6e43(%rip),%rax        # 19088 <g_12+0x28>
   12245:	48 89 85 28 f9 ff ff 	mov    %rax,-0x6d8(%rbp)
   1224c:	48 8d 85 40 f3 ff ff 	lea    -0xcc0(%rbp),%rax
   12253:	48 05 bc 01 00 00    	add    $0x1bc,%rax
   12259:	48 89 85 30 f9 ff ff 	mov    %rax,-0x6d0(%rbp)
   12260:	48 8d 05 21 6e 00 00 	lea    0x6e21(%rip),%rax        # 19088 <g_12+0x28>
   12267:	48 89 85 38 f9 ff ff 	mov    %rax,-0x6c8(%rbp)
   1226e:	48 8d 85 40 f3 ff ff 	lea    -0xcc0(%rbp),%rax
   12275:	48 05 bc 01 00 00    	add    $0x1bc,%rax
   1227b:	48 89 85 40 f9 ff ff 	mov    %rax,-0x6c0(%rbp)
   12282:	48 8d 05 ff 6d 00 00 	lea    0x6dff(%rip),%rax        # 19088 <g_12+0x28>
   12289:	48 89 85 48 f9 ff ff 	mov    %rax,-0x6b8(%rbp)
   12290:	48 8d 85 40 f3 ff ff 	lea    -0xcc0(%rbp),%rax
   12297:	48 05 14 01 00 00    	add    $0x114,%rax
   1229d:	48 89 85 50 f9 ff ff 	mov    %rax,-0x6b0(%rbp)
   122a4:	48 8d 85 40 f3 ff ff 	lea    -0xcc0(%rbp),%rax
   122ab:	48 83 c0 68          	add    $0x68,%rax
   122af:	48 89 85 58 f9 ff ff 	mov    %rax,-0x6a8(%rbp)
   122b6:	48 8d 05 a7 6d 00 00 	lea    0x6da7(%rip),%rax        # 19064 <g_12+0x4>
   122bd:	48 89 85 60 f9 ff ff 	mov    %rax,-0x6a0(%rbp)
   122c4:	48 8d 85 40 f3 ff ff 	lea    -0xcc0(%rbp),%rax
   122cb:	48 83 c0 34          	add    $0x34,%rax
   122cf:	48 89 85 68 f9 ff ff 	mov    %rax,-0x698(%rbp)
   122d6:	48 8d 05 ab 6d 00 00 	lea    0x6dab(%rip),%rax        # 19088 <g_12+0x28>
   122dd:	48 89 85 70 f9 ff ff 	mov    %rax,-0x690(%rbp)
   122e4:	48 8d 05 9d 6d 00 00 	lea    0x6d9d(%rip),%rax        # 19088 <g_12+0x28>
   122eb:	48 89 85 78 f9 ff ff 	mov    %rax,-0x688(%rbp)
   122f2:	48 8d 05 a3 6d 00 00 	lea    0x6da3(%rip),%rax        # 1909c <g_12+0x3c>
   122f9:	48 89 85 80 f9 ff ff 	mov    %rax,-0x680(%rbp)
   12300:	48 8d 85 40 f3 ff ff 	lea    -0xcc0(%rbp),%rax
   12307:	48 05 58 01 00 00    	add    $0x158,%rax
   1230d:	48 89 85 88 f9 ff ff 	mov    %rax,-0x678(%rbp)
   12314:	48 8d 05 85 6d 00 00 	lea    0x6d85(%rip),%rax        # 190a0 <g_12+0x40>
   1231b:	48 89 85 90 f9 ff ff 	mov    %rax,-0x670(%rbp)
   12322:	48 c7 85 98 f9 ff ff 	movq   $0x0,-0x668(%rbp)
   12329:	00 00 00 00 
   1232d:	48 8d 05 68 6d 00 00 	lea    0x6d68(%rip),%rax        # 1909c <g_12+0x3c>
   12334:	48 89 85 a0 f9 ff ff 	mov    %rax,-0x660(%rbp)
   1233b:	48 8d 85 40 f3 ff ff 	lea    -0xcc0(%rbp),%rax
   12342:	48 83 c0 68          	add    $0x68,%rax
   12346:	48 89 85 a8 f9 ff ff 	mov    %rax,-0x658(%rbp)
   1234d:	48 8d 05 34 6d 00 00 	lea    0x6d34(%rip),%rax        # 19088 <g_12+0x28>
   12354:	48 89 85 b0 f9 ff ff 	mov    %rax,-0x650(%rbp)
   1235b:	48 c7 85 b8 f9 ff ff 	movq   $0x0,-0x648(%rbp)
   12362:	00 00 00 00 
   12366:	48 8d 05 f7 6c 00 00 	lea    0x6cf7(%rip),%rax        # 19064 <g_12+0x4>
   1236d:	48 89 85 c0 f9 ff ff 	mov    %rax,-0x640(%rbp)
   12374:	48 c7 85 c8 f9 ff ff 	movq   $0x0,-0x638(%rbp)
   1237b:	00 00 00 00 
   1237f:	48 8d 85 40 f3 ff ff 	lea    -0xcc0(%rbp),%rax
   12386:	48 05 14 01 00 00    	add    $0x114,%rax
   1238c:	48 89 85 d0 f9 ff ff 	mov    %rax,-0x630(%rbp)
   12393:	48 8d 05 ee 6c 00 00 	lea    0x6cee(%rip),%rax        # 19088 <g_12+0x28>
   1239a:	48 89 85 d8 f9 ff ff 	mov    %rax,-0x628(%rbp)
   123a1:	48 8d 85 40 f3 ff ff 	lea    -0xcc0(%rbp),%rax
   123a8:	48 05 bc 01 00 00    	add    $0x1bc,%rax
   123ae:	48 89 85 e0 f9 ff ff 	mov    %rax,-0x620(%rbp)
   123b5:	48 8d 05 cc 6c 00 00 	lea    0x6ccc(%rip),%rax        # 19088 <g_12+0x28>
   123bc:	48 89 85 e8 f9 ff ff 	mov    %rax,-0x618(%rbp)
   123c3:	48 8d 85 40 f3 ff ff 	lea    -0xcc0(%rbp),%rax
   123ca:	48 05 bc 01 00 00    	add    $0x1bc,%rax
   123d0:	48 89 85 f0 f9 ff ff 	mov    %rax,-0x610(%rbp)
   123d7:	48 8d 05 aa 6c 00 00 	lea    0x6caa(%rip),%rax        # 19088 <g_12+0x28>
   123de:	48 89 85 f8 f9 ff ff 	mov    %rax,-0x608(%rbp)
   123e5:	48 8d 85 40 f3 ff ff 	lea    -0xcc0(%rbp),%rax
   123ec:	48 05 14 01 00 00    	add    $0x114,%rax
   123f2:	48 89 85 00 fa ff ff 	mov    %rax,-0x600(%rbp)
   123f9:	48 c7 85 08 fa ff ff 	movq   $0x0,-0x5f8(%rbp)
   12400:	00 00 00 00 
   12404:	48 8d 05 59 6c 00 00 	lea    0x6c59(%rip),%rax        # 19064 <g_12+0x4>
   1240b:	48 89 85 10 fa ff ff 	mov    %rax,-0x5f0(%rbp)
   12412:	48 c7 85 18 fa ff ff 	movq   $0x0,-0x5e8(%rbp)
   12419:	00 00 00 00 
   1241d:	48 8d 05 64 6c 00 00 	lea    0x6c64(%rip),%rax        # 19088 <g_12+0x28>
   12424:	48 89 85 20 fa ff ff 	mov    %rax,-0x5e0(%rbp)
   1242b:	48 8d 85 40 f3 ff ff 	lea    -0xcc0(%rbp),%rax
   12432:	48 83 c0 68          	add    $0x68,%rax
   12436:	48 89 85 28 fa ff ff 	mov    %rax,-0x5d8(%rbp)
   1243d:	48 8d 05 58 6c 00 00 	lea    0x6c58(%rip),%rax        # 1909c <g_12+0x3c>
   12444:	48 89 85 30 fa ff ff 	mov    %rax,-0x5d0(%rbp)
   1244b:	48 c7 85 38 fa ff ff 	movq   $0x0,-0x5c8(%rbp)
   12452:	00 00 00 00 
   12456:	48 8d 05 43 6c 00 00 	lea    0x6c43(%rip),%rax        # 190a0 <g_12+0x40>
   1245d:	48 89 85 40 fa ff ff 	mov    %rax,-0x5c0(%rbp)
   12464:	48 8d 85 40 f3 ff ff 	lea    -0xcc0(%rbp),%rax
   1246b:	48 05 58 01 00 00    	add    $0x158,%rax
   12471:	48 89 85 48 fa ff ff 	mov    %rax,-0x5b8(%rbp)
   12478:	48 8d 05 1d 6c 00 00 	lea    0x6c1d(%rip),%rax        # 1909c <g_12+0x3c>
   1247f:	48 89 85 50 fa ff ff 	mov    %rax,-0x5b0(%rbp)
   12486:	48 8d 05 fb 6b 00 00 	lea    0x6bfb(%rip),%rax        # 19088 <g_12+0x28>
   1248d:	48 89 85 58 fa ff ff 	mov    %rax,-0x5a8(%rbp)
   12494:	48 8d 05 ed 6b 00 00 	lea    0x6bed(%rip),%rax        # 19088 <g_12+0x28>
   1249b:	48 89 85 60 fa ff ff 	mov    %rax,-0x5a0(%rbp)
   124a2:	48 8d 85 40 f3 ff ff 	lea    -0xcc0(%rbp),%rax
   124a9:	48 83 c0 34          	add    $0x34,%rax
   124ad:	48 89 85 68 fa ff ff 	mov    %rax,-0x598(%rbp)
   124b4:	48 8d 05 a9 6b 00 00 	lea    0x6ba9(%rip),%rax        # 19064 <g_12+0x4>
   124bb:	48 89 85 70 fa ff ff 	mov    %rax,-0x590(%rbp)
   124c2:	48 8d 85 40 f3 ff ff 	lea    -0xcc0(%rbp),%rax
   124c9:	48 83 c0 68          	add    $0x68,%rax
   124cd:	48 89 85 78 fa ff ff 	mov    %rax,-0x588(%rbp)
   124d4:	48 8d 85 40 f3 ff ff 	lea    -0xcc0(%rbp),%rax
   124db:	48 05 14 01 00 00    	add    $0x114,%rax
   124e1:	48 89 85 80 fa ff ff 	mov    %rax,-0x580(%rbp)
   124e8:	48 8d 05 99 6b 00 00 	lea    0x6b99(%rip),%rax        # 19088 <g_12+0x28>
   124ef:	48 89 85 88 fa ff ff 	mov    %rax,-0x578(%rbp)
   124f6:	48 8d 85 40 f3 ff ff 	lea    -0xcc0(%rbp),%rax
   124fd:	48 05 bc 01 00 00    	add    $0x1bc,%rax
   12503:	48 89 85 90 fa ff ff 	mov    %rax,-0x570(%rbp)
   1250a:	48 8d 05 77 6b 00 00 	lea    0x6b77(%rip),%rax        # 19088 <g_12+0x28>
   12511:	48 89 85 98 fa ff ff 	mov    %rax,-0x568(%rbp)
   12518:	48 8d 85 40 f3 ff ff 	lea    -0xcc0(%rbp),%rax
   1251f:	48 05 bc 01 00 00    	add    $0x1bc,%rax
   12525:	48 89 85 a0 fa ff ff 	mov    %rax,-0x560(%rbp)
   1252c:	48 8d 05 55 6b 00 00 	lea    0x6b55(%rip),%rax        # 19088 <g_12+0x28>
   12533:	48 89 85 a8 fa ff ff 	mov    %rax,-0x558(%rbp)
   1253a:	48 8d 85 40 f3 ff ff 	lea    -0xcc0(%rbp),%rax
   12541:	48 05 14 01 00 00    	add    $0x114,%rax
   12547:	48 89 85 b0 fa ff ff 	mov    %rax,-0x550(%rbp)
   1254e:	48 8d 85 40 f3 ff ff 	lea    -0xcc0(%rbp),%rax
   12555:	48 83 c0 68          	add    $0x68,%rax
   12559:	48 89 85 b8 fa ff ff 	mov    %rax,-0x548(%rbp)
   12560:	48 8d 05 fd 6a 00 00 	lea    0x6afd(%rip),%rax        # 19064 <g_12+0x4>
   12567:	48 89 85 c0 fa ff ff 	mov    %rax,-0x540(%rbp)
   1256e:	48 8d 85 40 f3 ff ff 	lea    -0xcc0(%rbp),%rax
   12575:	48 83 c0 34          	add    $0x34,%rax
   12579:	48 89 85 c8 fa ff ff 	mov    %rax,-0x538(%rbp)
   12580:	48 8d 05 01 6b 00 00 	lea    0x6b01(%rip),%rax        # 19088 <g_12+0x28>
   12587:	48 89 85 d0 fa ff ff 	mov    %rax,-0x530(%rbp)
   1258e:	48 8d 05 f3 6a 00 00 	lea    0x6af3(%rip),%rax        # 19088 <g_12+0x28>
   12595:	48 89 85 d8 fa ff ff 	mov    %rax,-0x528(%rbp)
   1259c:	48 8d 05 f9 6a 00 00 	lea    0x6af9(%rip),%rax        # 1909c <g_12+0x3c>
   125a3:	48 89 85 e0 fa ff ff 	mov    %rax,-0x520(%rbp)
   125aa:	48 8d 85 40 f3 ff ff 	lea    -0xcc0(%rbp),%rax
   125b1:	48 05 58 01 00 00    	add    $0x158,%rax
   125b7:	48 89 85 e8 fa ff ff 	mov    %rax,-0x518(%rbp)
   125be:	48 8d 05 db 6a 00 00 	lea    0x6adb(%rip),%rax        # 190a0 <g_12+0x40>
   125c5:	48 89 85 f0 fa ff ff 	mov    %rax,-0x510(%rbp)
   125cc:	48 c7 85 f8 fa ff ff 	movq   $0x0,-0x508(%rbp)
   125d3:	00 00 00 00 
   125d7:	48 8d 05 be 6a 00 00 	lea    0x6abe(%rip),%rax        # 1909c <g_12+0x3c>
   125de:	48 89 85 00 fb ff ff 	mov    %rax,-0x500(%rbp)
   125e5:	48 8d 85 40 f3 ff ff 	lea    -0xcc0(%rbp),%rax
   125ec:	48 83 c0 68          	add    $0x68,%rax
   125f0:	48 89 85 08 fb ff ff 	mov    %rax,-0x4f8(%rbp)
   125f7:	48 8d 05 8a 6a 00 00 	lea    0x6a8a(%rip),%rax        # 19088 <g_12+0x28>
   125fe:	48 89 85 10 fb ff ff 	mov    %rax,-0x4f0(%rbp)
   12605:	48 c7 85 18 fb ff ff 	movq   $0x0,-0x4e8(%rbp)
   1260c:	00 00 00 00 
   12610:	48 8d 05 4d 6a 00 00 	lea    0x6a4d(%rip),%rax        # 19064 <g_12+0x4>
   12617:	48 89 85 20 fb ff ff 	mov    %rax,-0x4e0(%rbp)
   1261e:	48 c7 85 28 fb ff ff 	movq   $0x0,-0x4d8(%rbp)
   12625:	00 00 00 00 
   12629:	48 8d 85 40 f3 ff ff 	lea    -0xcc0(%rbp),%rax
   12630:	48 05 14 01 00 00    	add    $0x114,%rax
   12636:	48 89 85 30 fb ff ff 	mov    %rax,-0x4d0(%rbp)
   1263d:	48 8d 05 44 6a 00 00 	lea    0x6a44(%rip),%rax        # 19088 <g_12+0x28>
   12644:	48 89 85 38 fb ff ff 	mov    %rax,-0x4c8(%rbp)
   1264b:	48 8d 85 40 f3 ff ff 	lea    -0xcc0(%rbp),%rax
   12652:	48 05 bc 01 00 00    	add    $0x1bc,%rax
   12658:	48 89 85 40 fb ff ff 	mov    %rax,-0x4c0(%rbp)
   1265f:	48 8d 05 22 6a 00 00 	lea    0x6a22(%rip),%rax        # 19088 <g_12+0x28>
   12666:	48 89 85 48 fb ff ff 	mov    %rax,-0x4b8(%rbp)
   1266d:	48 8d 85 40 f3 ff ff 	lea    -0xcc0(%rbp),%rax
   12674:	48 05 bc 01 00 00    	add    $0x1bc,%rax
   1267a:	48 89 85 50 fb ff ff 	mov    %rax,-0x4b0(%rbp)
   12681:	48 8d 05 00 6a 00 00 	lea    0x6a00(%rip),%rax        # 19088 <g_12+0x28>
   12688:	48 89 85 58 fb ff ff 	mov    %rax,-0x4a8(%rbp)
   1268f:	48 8d 85 40 f3 ff ff 	lea    -0xcc0(%rbp),%rax
   12696:	48 05 14 01 00 00    	add    $0x114,%rax
   1269c:	48 89 85 60 fb ff ff 	mov    %rax,-0x4a0(%rbp)
   126a3:	48 c7 85 68 fb ff ff 	movq   $0x0,-0x498(%rbp)
   126aa:	00 00 00 00 
   126ae:	48 8d 05 af 69 00 00 	lea    0x69af(%rip),%rax        # 19064 <g_12+0x4>
   126b5:	48 89 85 70 fb ff ff 	mov    %rax,-0x490(%rbp)
   126bc:	48 c7 85 78 fb ff ff 	movq   $0x0,-0x488(%rbp)
   126c3:	00 00 00 00 
   126c7:	48 8d 05 ba 69 00 00 	lea    0x69ba(%rip),%rax        # 19088 <g_12+0x28>
   126ce:	48 89 85 80 fb ff ff 	mov    %rax,-0x480(%rbp)
   126d5:	48 8d 85 40 f3 ff ff 	lea    -0xcc0(%rbp),%rax
   126dc:	48 83 c0 68          	add    $0x68,%rax
   126e0:	48 89 85 88 fb ff ff 	mov    %rax,-0x478(%rbp)
   126e7:	48 8d 05 ae 69 00 00 	lea    0x69ae(%rip),%rax        # 1909c <g_12+0x3c>
   126ee:	48 89 85 90 fb ff ff 	mov    %rax,-0x470(%rbp)
   126f5:	48 c7 85 98 fb ff ff 	movq   $0x0,-0x468(%rbp)
   126fc:	00 00 00 00 
   12700:	48 8d 05 99 69 00 00 	lea    0x6999(%rip),%rax        # 190a0 <g_12+0x40>
   12707:	48 89 85 a0 fb ff ff 	mov    %rax,-0x460(%rbp)
   1270e:	48 8d 85 40 f3 ff ff 	lea    -0xcc0(%rbp),%rax
   12715:	48 05 58 01 00 00    	add    $0x158,%rax
   1271b:	48 89 85 a8 fb ff ff 	mov    %rax,-0x458(%rbp)
   12722:	48 8d 05 73 69 00 00 	lea    0x6973(%rip),%rax        # 1909c <g_12+0x3c>
   12729:	48 89 85 b0 fb ff ff 	mov    %rax,-0x450(%rbp)
   12730:	48 8d 05 51 69 00 00 	lea    0x6951(%rip),%rax        # 19088 <g_12+0x28>
   12737:	48 89 85 b8 fb ff ff 	mov    %rax,-0x448(%rbp)
   1273e:	48 8d 05 43 69 00 00 	lea    0x6943(%rip),%rax        # 19088 <g_12+0x28>
   12745:	48 89 85 c0 fb ff ff 	mov    %rax,-0x440(%rbp)
   1274c:	48 8d 85 40 f3 ff ff 	lea    -0xcc0(%rbp),%rax
   12753:	48 83 c0 34          	add    $0x34,%rax
   12757:	48 89 85 c8 fb ff ff 	mov    %rax,-0x438(%rbp)
   1275e:	48 8d 05 ff 68 00 00 	lea    0x68ff(%rip),%rax        # 19064 <g_12+0x4>
   12765:	48 89 85 d0 fb ff ff 	mov    %rax,-0x430(%rbp)
   1276c:	48 8d 85 40 f3 ff ff 	lea    -0xcc0(%rbp),%rax
   12773:	48 83 c0 68          	add    $0x68,%rax
   12777:	48 89 85 d8 fb ff ff 	mov    %rax,-0x428(%rbp)
   1277e:	48 8d 85 40 f3 ff ff 	lea    -0xcc0(%rbp),%rax
   12785:	48 05 14 01 00 00    	add    $0x114,%rax
   1278b:	48 89 85 e0 fb ff ff 	mov    %rax,-0x420(%rbp)
   12792:	48 8d 05 ef 68 00 00 	lea    0x68ef(%rip),%rax        # 19088 <g_12+0x28>
   12799:	48 89 85 e8 fb ff ff 	mov    %rax,-0x418(%rbp)
   127a0:	48 8d 85 40 f3 ff ff 	lea    -0xcc0(%rbp),%rax
   127a7:	48 05 bc 01 00 00    	add    $0x1bc,%rax
   127ad:	48 89 85 f0 fb ff ff 	mov    %rax,-0x410(%rbp)
   127b4:	48 8d 05 cd 68 00 00 	lea    0x68cd(%rip),%rax        # 19088 <g_12+0x28>
   127bb:	48 89 85 f8 fb ff ff 	mov    %rax,-0x408(%rbp)
   127c2:	48 8d 85 40 f3 ff ff 	lea    -0xcc0(%rbp),%rax
   127c9:	48 05 bc 01 00 00    	add    $0x1bc,%rax
   127cf:	48 89 85 00 fc ff ff 	mov    %rax,-0x400(%rbp)
   127d6:	48 8d 05 ab 68 00 00 	lea    0x68ab(%rip),%rax        # 19088 <g_12+0x28>
   127dd:	48 89 85 08 fc ff ff 	mov    %rax,-0x3f8(%rbp)
   127e4:	48 8d 85 40 f3 ff ff 	lea    -0xcc0(%rbp),%rax
   127eb:	48 05 14 01 00 00    	add    $0x114,%rax
   127f1:	48 89 85 10 fc ff ff 	mov    %rax,-0x3f0(%rbp)
   127f8:	48 8d 85 40 f3 ff ff 	lea    -0xcc0(%rbp),%rax
   127ff:	48 83 c0 68          	add    $0x68,%rax
   12803:	48 89 85 18 fc ff ff 	mov    %rax,-0x3e8(%rbp)
   1280a:	48 8d 05 53 68 00 00 	lea    0x6853(%rip),%rax        # 19064 <g_12+0x4>
   12811:	48 89 85 20 fc ff ff 	mov    %rax,-0x3e0(%rbp)
   12818:	48 8d 85 40 f3 ff ff 	lea    -0xcc0(%rbp),%rax
   1281f:	48 83 c0 34          	add    $0x34,%rax
   12823:	48 89 85 28 fc ff ff 	mov    %rax,-0x3d8(%rbp)
   1282a:	48 8d 05 57 68 00 00 	lea    0x6857(%rip),%rax        # 19088 <g_12+0x28>
   12831:	48 89 85 30 fc ff ff 	mov    %rax,-0x3d0(%rbp)
   12838:	48 8d 05 49 68 00 00 	lea    0x6849(%rip),%rax        # 19088 <g_12+0x28>
   1283f:	48 89 85 38 fc ff ff 	mov    %rax,-0x3c8(%rbp)
   12846:	48 8d 05 4f 68 00 00 	lea    0x684f(%rip),%rax        # 1909c <g_12+0x3c>
   1284d:	48 89 85 40 fc ff ff 	mov    %rax,-0x3c0(%rbp)
   12854:	48 8d 85 40 f3 ff ff 	lea    -0xcc0(%rbp),%rax
   1285b:	48 05 58 01 00 00    	add    $0x158,%rax
   12861:	48 89 85 48 fc ff ff 	mov    %rax,-0x3b8(%rbp)
   12868:	48 8d 05 31 68 00 00 	lea    0x6831(%rip),%rax        # 190a0 <g_12+0x40>
   1286f:	48 89 85 50 fc ff ff 	mov    %rax,-0x3b0(%rbp)
   12876:	48 c7 85 58 fc ff ff 	movq   $0x0,-0x3a8(%rbp)
   1287d:	00 00 00 00 
   12881:	48 8d 05 14 68 00 00 	lea    0x6814(%rip),%rax        # 1909c <g_12+0x3c>
   12888:	48 89 85 60 fc ff ff 	mov    %rax,-0x3a0(%rbp)
   1288f:	48 8d 85 40 f3 ff ff 	lea    -0xcc0(%rbp),%rax
   12896:	48 83 c0 68          	add    $0x68,%rax
   1289a:	48 89 85 68 fc ff ff 	mov    %rax,-0x398(%rbp)
   128a1:	48 8d 05 e0 67 00 00 	lea    0x67e0(%rip),%rax        # 19088 <g_12+0x28>
   128a8:	48 89 85 70 fc ff ff 	mov    %rax,-0x390(%rbp)
   128af:	48 c7 85 78 fc ff ff 	movq   $0x0,-0x388(%rbp)
   128b6:	00 00 00 00 
   128ba:	48 8d 05 a3 67 00 00 	lea    0x67a3(%rip),%rax        # 19064 <g_12+0x4>
   128c1:	48 89 85 80 fc ff ff 	mov    %rax,-0x380(%rbp)
   128c8:	48 c7 85 88 fc ff ff 	movq   $0x0,-0x378(%rbp)
   128cf:	00 00 00 00 
   128d3:	48 8d 85 40 f3 ff ff 	lea    -0xcc0(%rbp),%rax
   128da:	48 05 14 01 00 00    	add    $0x114,%rax
   128e0:	48 89 85 90 fc ff ff 	mov    %rax,-0x370(%rbp)
   128e7:	48 8d 05 9a 67 00 00 	lea    0x679a(%rip),%rax        # 19088 <g_12+0x28>
   128ee:	48 89 85 98 fc ff ff 	mov    %rax,-0x368(%rbp)
   128f5:	48 8d 85 40 f3 ff ff 	lea    -0xcc0(%rbp),%rax
   128fc:	48 05 bc 01 00 00    	add    $0x1bc,%rax
   12902:	48 89 85 a0 fc ff ff 	mov    %rax,-0x360(%rbp)
   12909:	48 8d 05 78 67 00 00 	lea    0x6778(%rip),%rax        # 19088 <g_12+0x28>
   12910:	48 89 85 a8 fc ff ff 	mov    %rax,-0x358(%rbp)
   12917:	48 8d 85 40 f3 ff ff 	lea    -0xcc0(%rbp),%rax
   1291e:	48 05 bc 01 00 00    	add    $0x1bc,%rax
   12924:	48 89 85 b0 fc ff ff 	mov    %rax,-0x350(%rbp)
   1292b:	48 8d 05 56 67 00 00 	lea    0x6756(%rip),%rax        # 19088 <g_12+0x28>
   12932:	48 89 85 b8 fc ff ff 	mov    %rax,-0x348(%rbp)
   12939:	48 8d 85 40 f3 ff ff 	lea    -0xcc0(%rbp),%rax
   12940:	48 05 14 01 00 00    	add    $0x114,%rax
   12946:	48 89 85 c0 fc ff ff 	mov    %rax,-0x340(%rbp)
   1294d:	48 c7 85 c8 fc ff ff 	movq   $0x0,-0x338(%rbp)
   12954:	00 00 00 00 
   12958:	48 8d 05 05 67 00 00 	lea    0x6705(%rip),%rax        # 19064 <g_12+0x4>
   1295f:	48 89 85 d0 fc ff ff 	mov    %rax,-0x330(%rbp)
   12966:	48 c7 85 d8 fc ff ff 	movq   $0x0,-0x328(%rbp)
   1296d:	00 00 00 00 
   12971:	48 8d 05 10 67 00 00 	lea    0x6710(%rip),%rax        # 19088 <g_12+0x28>
   12978:	48 89 85 e0 fc ff ff 	mov    %rax,-0x320(%rbp)
   1297f:	48 8d 85 40 f3 ff ff 	lea    -0xcc0(%rbp),%rax
   12986:	48 83 c0 68          	add    $0x68,%rax
   1298a:	48 89 85 e8 fc ff ff 	mov    %rax,-0x318(%rbp)
   12991:	48 8d 05 04 67 00 00 	lea    0x6704(%rip),%rax        # 1909c <g_12+0x3c>
   12998:	48 89 85 f0 fc ff ff 	mov    %rax,-0x310(%rbp)
   1299f:	48 c7 85 f8 fc ff ff 	movq   $0x0,-0x308(%rbp)
   129a6:	00 00 00 00 
   129aa:	48 8d 05 ef 66 00 00 	lea    0x66ef(%rip),%rax        # 190a0 <g_12+0x40>
   129b1:	48 89 85 00 fd ff ff 	mov    %rax,-0x300(%rbp)
   129b8:	48 8d 85 40 f3 ff ff 	lea    -0xcc0(%rbp),%rax
   129bf:	48 05 58 01 00 00    	add    $0x158,%rax
   129c5:	48 89 85 08 fd ff ff 	mov    %rax,-0x2f8(%rbp)
   129cc:	48 8d 05 c9 66 00 00 	lea    0x66c9(%rip),%rax        # 1909c <g_12+0x3c>
   129d3:	48 89 85 10 fd ff ff 	mov    %rax,-0x2f0(%rbp)
   129da:	48 8d 05 a7 66 00 00 	lea    0x66a7(%rip),%rax        # 19088 <g_12+0x28>
   129e1:	48 89 85 18 fd ff ff 	mov    %rax,-0x2e8(%rbp)
   129e8:	48 8d 05 99 66 00 00 	lea    0x6699(%rip),%rax        # 19088 <g_12+0x28>
   129ef:	48 89 85 20 fd ff ff 	mov    %rax,-0x2e0(%rbp)
   129f6:	48 8d 85 40 f3 ff ff 	lea    -0xcc0(%rbp),%rax
   129fd:	48 83 c0 34          	add    $0x34,%rax
   12a01:	48 89 85 28 fd ff ff 	mov    %rax,-0x2d8(%rbp)
   12a08:	48 8d 05 55 66 00 00 	lea    0x6655(%rip),%rax        # 19064 <g_12+0x4>
   12a0f:	48 89 85 30 fd ff ff 	mov    %rax,-0x2d0(%rbp)
   12a16:	48 8d 85 40 f3 ff ff 	lea    -0xcc0(%rbp),%rax
   12a1d:	48 83 c0 68          	add    $0x68,%rax
   12a21:	48 89 85 38 fd ff ff 	mov    %rax,-0x2c8(%rbp)
   12a28:	48 8d 85 40 f3 ff ff 	lea    -0xcc0(%rbp),%rax
   12a2f:	48 05 14 01 00 00    	add    $0x114,%rax
   12a35:	48 89 85 40 fd ff ff 	mov    %rax,-0x2c0(%rbp)
   12a3c:	48 8d 05 45 66 00 00 	lea    0x6645(%rip),%rax        # 19088 <g_12+0x28>
   12a43:	48 89 85 48 fd ff ff 	mov    %rax,-0x2b8(%rbp)
   12a4a:	48 8d 85 40 f3 ff ff 	lea    -0xcc0(%rbp),%rax
   12a51:	48 05 bc 01 00 00    	add    $0x1bc,%rax
   12a57:	48 89 85 50 fd ff ff 	mov    %rax,-0x2b0(%rbp)
   12a5e:	48 8d 05 23 66 00 00 	lea    0x6623(%rip),%rax        # 19088 <g_12+0x28>
   12a65:	48 89 85 58 fd ff ff 	mov    %rax,-0x2a8(%rbp)
   12a6c:	48 8d 85 40 f3 ff ff 	lea    -0xcc0(%rbp),%rax
   12a73:	48 05 bc 01 00 00    	add    $0x1bc,%rax
   12a79:	48 89 85 60 fd ff ff 	mov    %rax,-0x2a0(%rbp)
   12a80:	48 8d 05 01 66 00 00 	lea    0x6601(%rip),%rax        # 19088 <g_12+0x28>
   12a87:	48 89 85 68 fd ff ff 	mov    %rax,-0x298(%rbp)
   12a8e:	48 8d 85 40 f3 ff ff 	lea    -0xcc0(%rbp),%rax
   12a95:	48 05 14 01 00 00    	add    $0x114,%rax
   12a9b:	48 89 85 70 fd ff ff 	mov    %rax,-0x290(%rbp)
   12aa2:	48 8d 85 40 f3 ff ff 	lea    -0xcc0(%rbp),%rax
   12aa9:	48 83 c0 68          	add    $0x68,%rax
   12aad:	48 89 85 78 fd ff ff 	mov    %rax,-0x288(%rbp)
   12ab4:	48 8d 05 a9 65 00 00 	lea    0x65a9(%rip),%rax        # 19064 <g_12+0x4>
   12abb:	48 89 85 80 fd ff ff 	mov    %rax,-0x280(%rbp)
   12ac2:	48 8d 85 40 f3 ff ff 	lea    -0xcc0(%rbp),%rax
   12ac9:	48 83 c0 34          	add    $0x34,%rax
   12acd:	48 89 85 88 fd ff ff 	mov    %rax,-0x278(%rbp)
   12ad4:	48 8d 05 ad 65 00 00 	lea    0x65ad(%rip),%rax        # 19088 <g_12+0x28>
   12adb:	48 89 85 90 fd ff ff 	mov    %rax,-0x270(%rbp)
   12ae2:	48 8d 05 9f 65 00 00 	lea    0x659f(%rip),%rax        # 19088 <g_12+0x28>
   12ae9:	48 89 85 98 fd ff ff 	mov    %rax,-0x268(%rbp)
   12af0:	48 8d 05 a5 65 00 00 	lea    0x65a5(%rip),%rax        # 1909c <g_12+0x3c>
   12af7:	48 89 85 a0 fd ff ff 	mov    %rax,-0x260(%rbp)
   12afe:	48 8d 85 40 f3 ff ff 	lea    -0xcc0(%rbp),%rax
   12b05:	48 05 58 01 00 00    	add    $0x158,%rax
   12b0b:	48 89 85 a8 fd ff ff 	mov    %rax,-0x258(%rbp)
   12b12:	48 8d 05 87 65 00 00 	lea    0x6587(%rip),%rax        # 190a0 <g_12+0x40>
   12b19:	48 89 85 b0 fd ff ff 	mov    %rax,-0x250(%rbp)
   12b20:	48 c7 85 b8 fd ff ff 	movq   $0x0,-0x248(%rbp)
   12b27:	00 00 00 00 
   12b2b:	48 8d 05 6a 65 00 00 	lea    0x656a(%rip),%rax        # 1909c <g_12+0x3c>
   12b32:	48 89 85 c0 fd ff ff 	mov    %rax,-0x240(%rbp)
   12b39:	48 8d 85 40 f3 ff ff 	lea    -0xcc0(%rbp),%rax
   12b40:	48 83 c0 68          	add    $0x68,%rax
   12b44:	48 89 85 c8 fd ff ff 	mov    %rax,-0x238(%rbp)
   12b4b:	48 8d 05 36 65 00 00 	lea    0x6536(%rip),%rax        # 19088 <g_12+0x28>
   12b52:	48 89 85 d0 fd ff ff 	mov    %rax,-0x230(%rbp)
   12b59:	48 c7 85 d8 fd ff ff 	movq   $0x0,-0x228(%rbp)
   12b60:	00 00 00 00 
   12b64:	48 8d 05 f9 64 00 00 	lea    0x64f9(%rip),%rax        # 19064 <g_12+0x4>
   12b6b:	48 89 85 e0 fd ff ff 	mov    %rax,-0x220(%rbp)
   12b72:	48 c7 85 e8 fd ff ff 	movq   $0x0,-0x218(%rbp)
   12b79:	00 00 00 00 
   12b7d:	48 8d 85 40 f3 ff ff 	lea    -0xcc0(%rbp),%rax
   12b84:	48 05 14 01 00 00    	add    $0x114,%rax
   12b8a:	48 89 85 f0 fd ff ff 	mov    %rax,-0x210(%rbp)
   12b91:	48 8d 05 f0 64 00 00 	lea    0x64f0(%rip),%rax        # 19088 <g_12+0x28>
   12b98:	48 89 85 f8 fd ff ff 	mov    %rax,-0x208(%rbp)
   12b9f:	48 8d 85 40 f3 ff ff 	lea    -0xcc0(%rbp),%rax
   12ba6:	48 05 bc 01 00 00    	add    $0x1bc,%rax
   12bac:	48 89 85 00 fe ff ff 	mov    %rax,-0x200(%rbp)
   12bb3:	48 8d 05 ce 64 00 00 	lea    0x64ce(%rip),%rax        # 19088 <g_12+0x28>
   12bba:	48 89 85 08 fe ff ff 	mov    %rax,-0x1f8(%rbp)
   12bc1:	48 8d 85 40 f3 ff ff 	lea    -0xcc0(%rbp),%rax
   12bc8:	48 05 bc 01 00 00    	add    $0x1bc,%rax
   12bce:	48 89 85 10 fe ff ff 	mov    %rax,-0x1f0(%rbp)
   12bd5:	48 8d 05 ac 64 00 00 	lea    0x64ac(%rip),%rax        # 19088 <g_12+0x28>
   12bdc:	48 89 85 18 fe ff ff 	mov    %rax,-0x1e8(%rbp)
   12be3:	48 8d 85 40 f3 ff ff 	lea    -0xcc0(%rbp),%rax
   12bea:	48 05 14 01 00 00    	add    $0x114,%rax
   12bf0:	48 89 85 20 fe ff ff 	mov    %rax,-0x1e0(%rbp)
   12bf7:	48 c7 85 28 fe ff ff 	movq   $0x0,-0x1d8(%rbp)
   12bfe:	00 00 00 00 
   12c02:	48 8d 05 5b 64 00 00 	lea    0x645b(%rip),%rax        # 19064 <g_12+0x4>
   12c09:	48 89 85 30 fe ff ff 	mov    %rax,-0x1d0(%rbp)
   12c10:	48 c7 85 38 fe ff ff 	movq   $0x0,-0x1c8(%rbp)
   12c17:	00 00 00 00 
   12c1b:	48 8b 85 90 f5 ff ff 	mov    -0xa70(%rbp),%rax
   12c22:	48 83 e8 01          	sub    $0x1,%rax
   12c26:	48 89 85 90 f5 ff ff 	mov    %rax,-0xa70(%rbp)
   12c2d:	8b 05 55 94 00 00    	mov    0x9455(%rip),%eax        # 1c088 <g_62>
   12c33:	85 c0                	test   %eax,%eax
   12c35:	74 05                	je     12c3c <func_38+0x3dae>
   12c37:	e9 f1 c5 ff ff       	jmpq   f22d <func_38+0x39f>
   12c3c:	48 0f be 95 ec ec ff 	movsbq -0x1314(%rbp),%rdx
   12c43:	ff 
   12c44:	8b 05 36 64 00 00    	mov    0x6436(%rip),%eax        # 19080 <g_12+0x20>
   12c4a:	48 98                	cltq   
   12c4c:	48 89 d6             	mov    %rdx,%rsi
   12c4f:	48 89 c7             	mov    %rax,%rdi
   12c52:	e8 d7 33 ff ff       	callq  602e <safe_add_func_uint64_t_u_u>
   12c57:	89 c6                	mov    %eax,%esi
   12c59:	bf 00 00 00 00       	mov    $0x0,%edi
   12c5e:	e8 7e 28 ff ff       	callq  54e1 <safe_lshift_func_int16_t_s_u>
   12c63:	98                   	cwtl   
   12c64:	89 c6                	mov    %eax,%esi
   12c66:	bf 00 00 00 00       	mov    $0x0,%edi
   12c6b:	e8 85 27 ff ff       	callq  53f5 <safe_mul_func_int16_t_s_s>
   12c70:	48 8b 85 50 ee ff ff 	mov    -0x11b0(%rbp),%rax
   12c77:	c7 00 01 00 00 00    	movl   $0x1,(%rax)
   12c7d:	0f b6 05 82 66 00 00 	movzbl 0x6682(%rip),%eax        # 19306 <g_170>
   12c84:	0f be c0             	movsbl %al,%eax
   12c87:	be 02 00 00 00       	mov    $0x2,%esi
   12c8c:	89 c7                	mov    %eax,%edi
   12c8e:	e8 41 25 ff ff       	callq  51d4 <safe_add_func_int8_t_s_s>
   12c93:	88 05 6d 66 00 00    	mov    %al,0x666d(%rip)        # 19306 <g_170>
   12c99:	0f b6 05 66 66 00 00 	movzbl 0x6666(%rip),%eax        # 19306 <g_170>
   12ca0:	3c 06                	cmp    $0x6,%al
   12ca2:	0f 8f 82 f3 ff ff    	jg     1202a <func_38+0x319c>
   12ca8:	48 8b 85 f0 ec ff ff 	mov    -0x1310(%rbp),%rax
   12caf:	eb 50                	jmp    12d01 <func_38+0x3e73>
   12cb1:	48 c7 85 30 ee ff ff 	movq   $0x0,-0x11d0(%rbp)
   12cb8:	00 00 00 00 
   12cbc:	48 8d 05 bd 63 00 00 	lea    0x63bd(%rip),%rax        # 19080 <g_12+0x20>
   12cc3:	48 89 85 d0 ed ff ff 	mov    %rax,-0x1230(%rbp)
   12cca:	48 8d 85 d0 ed ff ff 	lea    -0x1230(%rbp),%rax
   12cd1:	48 89 85 38 ee ff ff 	mov    %rax,-0x11c8(%rbp)
   12cd8:	48 8b 85 38 ee ff ff 	mov    -0x11c8(%rbp),%rax
   12cdf:	48 8d 15 a2 93 00 00 	lea    0x93a2(%rip),%rdx        # 1c088 <g_62>
   12ce6:	48 89 10             	mov    %rdx,(%rax)
   12ce9:	48 8b 85 38 ee ff ff 	mov    -0x11c8(%rbp),%rax
   12cf0:	48 8b 00             	mov    (%rax),%rax
   12cf3:	48 89 85 f0 ec ff ff 	mov    %rax,-0x1310(%rbp)
   12cfa:	48 8b 85 f0 ec ff ff 	mov    -0x1310(%rbp),%rax
   12d01:	48 8b 5d c8          	mov    -0x38(%rbp),%rbx
   12d05:	64 48 33 1c 25 28 00 	xor    %fs:0x28,%rbx
   12d0c:	00 00 
   12d0e:	74 05                	je     12d15 <func_38+0x3e87>
   12d10:	e8 5b 23 ff ff       	callq  5070 <__stack_chk_fail@plt>
   12d15:	48 81 c4 f8 12 00 00 	add    $0x12f8,%rsp
   12d1c:	5b                   	pop    %rbx
   12d1d:	41 5c                	pop    %r12
   12d1f:	41 5d                	pop    %r13
   12d21:	41 5e                	pop    %r14
   12d23:	41 5f                	pop    %r15
   12d25:	5d                   	pop    %rbp
   12d26:	c3                   	retq   

0000000000012d27 <func_42>:
   12d27:	f3 0f 1e fa          	endbr64 
   12d2b:	55                   	push   %rbp
   12d2c:	48 89 e5             	mov    %rsp,%rbp
   12d2f:	48 83 ec 30          	sub    $0x30,%rsp
   12d33:	48 89 7d d8          	mov    %rdi,-0x28(%rbp)
   12d37:	64 48 8b 04 25 28 00 	mov    %fs:0x28,%rax
   12d3e:	00 00 
   12d40:	48 89 45 f8          	mov    %rax,-0x8(%rbp)
   12d44:	31 c0                	xor    %eax,%eax
   12d46:	48 8d 05 e7 64 00 00 	lea    0x64e7(%rip),%rax        # 19234 <g_17+0x154>
   12d4d:	48 89 45 e0          	mov    %rax,-0x20(%rbp)
   12d51:	48 8d 45 e0          	lea    -0x20(%rbp),%rax
   12d55:	48 89 45 e8          	mov    %rax,-0x18(%rbp)
   12d59:	48 8d 45 e8          	lea    -0x18(%rbp),%rax
   12d5d:	48 89 45 f0          	mov    %rax,-0x10(%rbp)
   12d61:	48 8b 55 e8          	mov    -0x18(%rbp),%rdx
   12d65:	48 8b 45 f0          	mov    -0x10(%rbp),%rax
   12d69:	48 89 10             	mov    %rdx,(%rax)
   12d6c:	8b 05 42 63 00 00    	mov    0x6342(%rip),%eax        # 190b4 <g_12+0x54>
   12d72:	48 98                	cltq   
   12d74:	48 8b 4d f8          	mov    -0x8(%rbp),%rcx
   12d78:	64 48 33 0c 25 28 00 	xor    %fs:0x28,%rcx
   12d7f:	00 00 
   12d81:	74 05                	je     12d88 <func_42+0x61>
   12d83:	e8 e8 22 ff ff       	callq  5070 <__stack_chk_fail@plt>
   12d88:	c9                   	leaveq 
   12d89:	c3                   	retq   

0000000000012d8a <main>:
   12d8a:	f3 0f 1e fa          	endbr64 
   12d8e:	55                   	push   %rbp
   12d8f:	48 89 e5             	mov    %rsp,%rbp
   12d92:	48 83 ec 20          	sub    $0x20,%rsp
   12d96:	89 7d ec             	mov    %edi,-0x14(%rbp)
   12d99:	48 89 75 e0          	mov    %rsi,-0x20(%rbp)
   12d9d:	c7 45 fc 00 00 00 00 	movl   $0x0,-0x4(%rbp)
   12da4:	83 7d ec 02          	cmpl   $0x2,-0x14(%rbp)
   12da8:	75 25                	jne    12dcf <main+0x45>
   12daa:	48 8b 45 e0          	mov    -0x20(%rbp),%rax
   12dae:	48 83 c0 08          	add    $0x8,%rax
   12db2:	48 8b 00             	mov    (%rax),%rax
   12db5:	48 8d 35 e4 2b 00 00 	lea    0x2be4(%rip),%rsi        # 159a0 <g_151+0x1940>
   12dbc:	48 89 c7             	mov    %rax,%rdi
   12dbf:	e8 cc 22 ff ff       	callq  5090 <strcmp@plt>
   12dc4:	85 c0                	test   %eax,%eax
   12dc6:	75 07                	jne    12dcf <main+0x45>
   12dc8:	c7 45 fc 01 00 00 00 	movl   $0x1,-0x4(%rbp)
   12dcf:	e8 b5 23 ff ff       	callq  5189 <platform_main_begin>
   12dd4:	e8 bf 37 ff ff       	callq  6598 <crc32_gentab>
   12dd9:	e8 d7 39 ff ff       	callq  67b5 <func_1>
   12dde:	c7 45 f0 00 00 00 00 	movl   $0x0,-0x10(%rbp)
   12de5:	eb 4b                	jmp    12e32 <main+0xa8>
   12de7:	8b 45 f0             	mov    -0x10(%rbp),%eax
   12dea:	48 98                	cltq   
   12dec:	48 8d 14 85 00 00 00 	lea    0x0(,%rax,4),%rdx
   12df3:	00 
   12df4:	48 8d 05 35 62 00 00 	lea    0x6235(%rip),%rax        # 19030 <g_7>
   12dfb:	8b 04 02             	mov    (%rdx,%rax,1),%eax
   12dfe:	48 98                	cltq   
   12e00:	8b 55 fc             	mov    -0x4(%rbp),%edx
   12e03:	48 8d 35 98 2b 00 00 	lea    0x2b98(%rip),%rsi        # 159a2 <g_151+0x1942>
   12e0a:	48 89 c7             	mov    %rax,%rdi
   12e0d:	e8 e1 38 ff ff       	callq  66f3 <transparent_crc>
   12e12:	83 7d fc 00          	cmpl   $0x0,-0x4(%rbp)
   12e16:	74 16                	je     12e2e <main+0xa4>
   12e18:	8b 45 f0             	mov    -0x10(%rbp),%eax
   12e1b:	89 c6                	mov    %eax,%esi
   12e1d:	48 8d 3d 85 2b 00 00 	lea    0x2b85(%rip),%rdi        # 159a9 <g_151+0x1949>
   12e24:	b8 00 00 00 00       	mov    $0x0,%eax
   12e29:	e8 52 22 ff ff       	callq  5080 <printf@plt>
   12e2e:	83 45 f0 01          	addl   $0x1,-0x10(%rbp)
   12e32:	83 7d f0 03          	cmpl   $0x3,-0x10(%rbp)
   12e36:	7e af                	jle    12de7 <main+0x5d>
   12e38:	8b 05 02 62 00 00    	mov    0x6202(%rip),%eax        # 19040 <g_8>
   12e3e:	48 98                	cltq   
   12e40:	8b 55 fc             	mov    -0x4(%rbp),%edx
   12e43:	48 8d 35 6d 2b 00 00 	lea    0x2b6d(%rip),%rsi        # 159b7 <g_151+0x1957>
   12e4a:	48 89 c7             	mov    %rax,%rdi
   12e4d:	e8 a1 38 ff ff       	callq  66f3 <transparent_crc>
   12e52:	c7 45 f0 00 00 00 00 	movl   $0x0,-0x10(%rbp)
   12e59:	eb 74                	jmp    12ecf <main+0x145>
   12e5b:	c7 45 f4 00 00 00 00 	movl   $0x0,-0xc(%rbp)
   12e62:	eb 61                	jmp    12ec5 <main+0x13b>
   12e64:	8b 45 f4             	mov    -0xc(%rbp),%eax
   12e67:	48 63 c8             	movslq %eax,%rcx
   12e6a:	8b 45 f0             	mov    -0x10(%rbp),%eax
   12e6d:	48 63 d0             	movslq %eax,%rdx
   12e70:	48 89 d0             	mov    %rdx,%rax
   12e73:	48 01 c0             	add    %rax,%rax
   12e76:	48 01 d0             	add    %rdx,%rax
   12e79:	48 01 c8             	add    %rcx,%rax
   12e7c:	48 8d 14 85 00 00 00 	lea    0x0(,%rax,4),%rdx
   12e83:	00 
   12e84:	48 8d 05 d5 61 00 00 	lea    0x61d5(%rip),%rax        # 19060 <g_12>
   12e8b:	8b 04 02             	mov    (%rdx,%rax,1),%eax
   12e8e:	48 98                	cltq   
   12e90:	8b 55 fc             	mov    -0x4(%rbp),%edx
   12e93:	48 8d 35 21 2b 00 00 	lea    0x2b21(%rip),%rsi        # 159bb <g_151+0x195b>
   12e9a:	48 89 c7             	mov    %rax,%rdi
   12e9d:	e8 51 38 ff ff       	callq  66f3 <transparent_crc>
   12ea2:	83 7d fc 00          	cmpl   $0x0,-0x4(%rbp)
   12ea6:	74 19                	je     12ec1 <main+0x137>
   12ea8:	8b 55 f4             	mov    -0xc(%rbp),%edx
   12eab:	8b 45 f0             	mov    -0x10(%rbp),%eax
   12eae:	89 c6                	mov    %eax,%esi
   12eb0:	48 8d 3d 0f 2b 00 00 	lea    0x2b0f(%rip),%rdi        # 159c6 <g_151+0x1966>
   12eb7:	b8 00 00 00 00       	mov    $0x0,%eax
   12ebc:	e8 bf 21 ff ff       	callq  5080 <printf@plt>
   12ec1:	83 45 f4 01          	addl   $0x1,-0xc(%rbp)
   12ec5:	83 7d f4 02          	cmpl   $0x2,-0xc(%rbp)
   12ec9:	7e 99                	jle    12e64 <main+0xda>
   12ecb:	83 45 f0 01          	addl   $0x1,-0x10(%rbp)
   12ecf:	83 7d f0 08          	cmpl   $0x8,-0x10(%rbp)
   12ed3:	7e 86                	jle    12e5b <main+0xd1>
   12ed5:	c7 45 f0 00 00 00 00 	movl   $0x0,-0x10(%rbp)
   12edc:	e9 a1 00 00 00       	jmpq   12f82 <main+0x1f8>
   12ee1:	c7 45 f4 00 00 00 00 	movl   $0x0,-0xc(%rbp)
   12ee8:	e9 87 00 00 00       	jmpq   12f74 <main+0x1ea>
   12eed:	c7 45 f8 00 00 00 00 	movl   $0x0,-0x8(%rbp)
   12ef4:	eb 74                	jmp    12f6a <main+0x1e0>
   12ef6:	8b 45 f8             	mov    -0x8(%rbp),%eax
   12ef9:	48 63 c8             	movslq %eax,%rcx
   12efc:	8b 45 f0             	mov    -0x10(%rbp),%eax
   12eff:	48 63 d0             	movslq %eax,%rdx
   12f02:	8b 45 f4             	mov    -0xc(%rbp),%eax
   12f05:	48 63 f0             	movslq %eax,%rsi
   12f08:	48 89 d0             	mov    %rdx,%rax
   12f0b:	48 c1 e0 02          	shl    $0x2,%rax
   12f0f:	48 01 d0             	add    %rdx,%rax
   12f12:	48 01 f0             	add    %rsi,%rax
   12f15:	48 c1 e0 02          	shl    $0x2,%rax
   12f19:	48 01 c8             	add    %rcx,%rax
   12f1c:	48 8d 14 85 00 00 00 	lea    0x0(,%rax,4),%rdx
   12f23:	00 
   12f24:	48 8d 05 b5 61 00 00 	lea    0x61b5(%rip),%rax        # 190e0 <g_17>
   12f2b:	8b 04 02             	mov    (%rdx,%rax,1),%eax
   12f2e:	89 c1                	mov    %eax,%ecx
   12f30:	8b 45 fc             	mov    -0x4(%rbp),%eax
   12f33:	89 c2                	mov    %eax,%edx
   12f35:	48 8d 35 9c 2a 00 00 	lea    0x2a9c(%rip),%rsi        # 159d8 <g_151+0x1978>
   12f3c:	48 89 cf             	mov    %rcx,%rdi
   12f3f:	e8 af 37 ff ff       	callq  66f3 <transparent_crc>
   12f44:	83 7d fc 00          	cmpl   $0x0,-0x4(%rbp)
   12f48:	74 1c                	je     12f66 <main+0x1dc>
   12f4a:	8b 4d f8             	mov    -0x8(%rbp),%ecx
   12f4d:	8b 55 f4             	mov    -0xc(%rbp),%edx
   12f50:	8b 45 f0             	mov    -0x10(%rbp),%eax
   12f53:	89 c6                	mov    %eax,%esi
   12f55:	48 8d 3d 8a 2a 00 00 	lea    0x2a8a(%rip),%rdi        # 159e6 <g_151+0x1986>
   12f5c:	b8 00 00 00 00       	mov    $0x0,%eax
   12f61:	e8 1a 21 ff ff       	callq  5080 <printf@plt>
   12f66:	83 45 f8 01          	addl   $0x1,-0x8(%rbp)
   12f6a:	83 7d f8 03          	cmpl   $0x3,-0x8(%rbp)
   12f6e:	7e 86                	jle    12ef6 <main+0x16c>
   12f70:	83 45 f4 01          	addl   $0x1,-0xc(%rbp)
   12f74:	83 7d f4 04          	cmpl   $0x4,-0xc(%rbp)
   12f78:	0f 8e 6f ff ff ff    	jle    12eed <main+0x163>
   12f7e:	83 45 f0 01          	addl   $0x1,-0x10(%rbp)
   12f82:	83 7d f0 05          	cmpl   $0x5,-0x10(%rbp)
   12f86:	0f 8e 55 ff ff ff    	jle    12ee1 <main+0x157>
   12f8c:	8b 05 2e 63 00 00    	mov    0x632e(%rip),%eax        # 192c0 <g_61>
   12f92:	48 98                	cltq   
   12f94:	8b 55 fc             	mov    -0x4(%rbp),%edx
   12f97:	48 8d 35 5e 2a 00 00 	lea    0x2a5e(%rip),%rsi        # 159fc <g_151+0x199c>
   12f9e:	48 89 c7             	mov    %rax,%rdi
   12fa1:	e8 4d 37 ff ff       	callq  66f3 <transparent_crc>
   12fa6:	8b 05 dc 90 00 00    	mov    0x90dc(%rip),%eax        # 1c088 <g_62>
   12fac:	48 98                	cltq   
   12fae:	8b 55 fc             	mov    -0x4(%rbp),%edx
   12fb1:	48 8d 35 49 2a 00 00 	lea    0x2a49(%rip),%rsi        # 15a01 <g_151+0x19a1>
   12fb8:	48 89 c7             	mov    %rax,%rdi
   12fbb:	e8 33 37 ff ff       	callq  66f3 <transparent_crc>
   12fc0:	48 8b 05 01 63 00 00 	mov    0x6301(%rip),%rax        # 192c8 <g_74>
   12fc7:	8b 55 fc             	mov    -0x4(%rbp),%edx
   12fca:	48 8d 35 35 2a 00 00 	lea    0x2a35(%rip),%rsi        # 15a06 <g_151+0x19a6>
   12fd1:	48 89 c7             	mov    %rax,%rdi
   12fd4:	e8 1a 37 ff ff       	callq  66f3 <transparent_crc>
   12fd9:	8b 05 f1 62 00 00    	mov    0x62f1(%rip),%eax        # 192d0 <g_77>
   12fdf:	89 c1                	mov    %eax,%ecx
   12fe1:	8b 45 fc             	mov    -0x4(%rbp),%eax
   12fe4:	89 c2                	mov    %eax,%edx
   12fe6:	48 8d 35 1e 2a 00 00 	lea    0x2a1e(%rip),%rsi        # 15a0b <g_151+0x19ab>
   12fed:	48 89 cf             	mov    %rcx,%rdi
   12ff0:	e8 fe 36 ff ff       	callq  66f3 <transparent_crc>
   12ff5:	c7 45 f0 00 00 00 00 	movl   $0x0,-0x10(%rbp)
   12ffc:	eb 4d                	jmp    1304b <main+0x2c1>
   12ffe:	8b 45 f0             	mov    -0x10(%rbp),%eax
   13001:	48 98                	cltq   
   13003:	48 8d 14 85 00 00 00 	lea    0x0(,%rax,4),%rdx
   1300a:	00 
   1300b:	48 8d 05 ce 62 00 00 	lea    0x62ce(%rip),%rax        # 192e0 <g_79>
   13012:	8b 04 02             	mov    (%rdx,%rax,1),%eax
   13015:	89 c1                	mov    %eax,%ecx
   13017:	8b 45 fc             	mov    -0x4(%rbp),%eax
   1301a:	89 c2                	mov    %eax,%edx
   1301c:	48 8d 35 ed 29 00 00 	lea    0x29ed(%rip),%rsi        # 15a10 <g_151+0x19b0>
   13023:	48 89 cf             	mov    %rcx,%rdi
   13026:	e8 c8 36 ff ff       	callq  66f3 <transparent_crc>
   1302b:	83 7d fc 00          	cmpl   $0x0,-0x4(%rbp)
   1302f:	74 16                	je     13047 <main+0x2bd>
   13031:	8b 45 f0             	mov    -0x10(%rbp),%eax
   13034:	89 c6                	mov    %eax,%esi
   13036:	48 8d 3d 6c 29 00 00 	lea    0x296c(%rip),%rdi        # 159a9 <g_151+0x1949>
   1303d:	b8 00 00 00 00       	mov    $0x0,%eax
   13042:	e8 39 20 ff ff       	callq  5080 <printf@plt>
   13047:	83 45 f0 01          	addl   $0x1,-0x10(%rbp)
   1304b:	83 7d f0 05          	cmpl   $0x5,-0x10(%rbp)
   1304f:	7e ad                	jle    12ffe <main+0x274>
   13051:	0f b6 05 34 90 00 00 	movzbl 0x9034(%rip),%eax        # 1c08c <g_92>
   13058:	0f b6 c0             	movzbl %al,%eax
   1305b:	8b 55 fc             	mov    -0x4(%rbp),%edx
   1305e:	48 8d 35 b3 29 00 00 	lea    0x29b3(%rip),%rsi        # 15a18 <g_151+0x19b8>
   13065:	48 89 c7             	mov    %rax,%rdi
   13068:	e8 86 36 ff ff       	callq  66f3 <transparent_crc>
   1306d:	8b 05 85 62 00 00    	mov    0x6285(%rip),%eax        # 192f8 <g_103>
   13073:	89 c1                	mov    %eax,%ecx
   13075:	8b 45 fc             	mov    -0x4(%rbp),%eax
   13078:	89 c2                	mov    %eax,%edx
   1307a:	48 8d 35 9c 29 00 00 	lea    0x299c(%rip),%rsi        # 15a1d <g_151+0x19bd>
   13081:	48 89 cf             	mov    %rcx,%rdi
   13084:	e8 6a 36 ff ff       	callq  66f3 <transparent_crc>
   13089:	8b 05 6d 62 00 00    	mov    0x626d(%rip),%eax        # 192fc <g_134>
   1308f:	48 98                	cltq   
   13091:	8b 55 fc             	mov    -0x4(%rbp),%edx
   13094:	48 8d 35 88 29 00 00 	lea    0x2988(%rip),%rsi        # 15a23 <g_151+0x19c3>
   1309b:	48 89 c7             	mov    %rax,%rdi
   1309e:	e8 50 36 ff ff       	callq  66f3 <transparent_crc>
   130a3:	8b 05 57 62 00 00    	mov    0x6257(%rip),%eax        # 19300 <g_135>
   130a9:	89 c1                	mov    %eax,%ecx
   130ab:	8b 45 fc             	mov    -0x4(%rbp),%eax
   130ae:	89 c2                	mov    %eax,%edx
   130b0:	48 8d 35 72 29 00 00 	lea    0x2972(%rip),%rsi        # 15a29 <g_151+0x19c9>
   130b7:	48 89 cf             	mov    %rcx,%rdi
   130ba:	e8 34 36 ff ff       	callq  66f3 <transparent_crc>
   130bf:	0f b7 05 3e 62 00 00 	movzwl 0x623e(%rip),%eax        # 19304 <g_144>
   130c6:	0f b7 c0             	movzwl %ax,%eax
   130c9:	8b 55 fc             	mov    -0x4(%rbp),%edx
   130cc:	48 8d 35 5c 29 00 00 	lea    0x295c(%rip),%rsi        # 15a2f <g_151+0x19cf>
   130d3:	48 89 c7             	mov    %rax,%rdi
   130d6:	e8 18 36 ff ff       	callq  66f3 <transparent_crc>
   130db:	c7 45 f0 00 00 00 00 	movl   $0x0,-0x10(%rbp)
   130e2:	e9 b4 00 00 00       	jmpq   1319b <main+0x411>
   130e7:	c7 45 f4 00 00 00 00 	movl   $0x0,-0xc(%rbp)
   130ee:	e9 9a 00 00 00       	jmpq   1318d <main+0x403>
   130f3:	c7 45 f8 00 00 00 00 	movl   $0x0,-0x8(%rbp)
   130fa:	e9 80 00 00 00       	jmpq   1317f <main+0x3f5>
   130ff:	8b 45 f8             	mov    -0x8(%rbp),%eax
   13102:	48 63 f0             	movslq %eax,%rsi
   13105:	8b 45 f0             	mov    -0x10(%rbp),%eax
   13108:	48 63 d0             	movslq %eax,%rdx
   1310b:	8b 45 f4             	mov    -0xc(%rbp),%eax
   1310e:	48 63 c8             	movslq %eax,%rcx
   13111:	48 89 d0             	mov    %rdx,%rax
   13114:	48 c1 e0 02          	shl    $0x2,%rax
   13118:	48 01 d0             	add    %rdx,%rax
   1311b:	48 c1 e0 02          	shl    $0x2,%rax
   1311f:	48 01 d0             	add    %rdx,%rax
   13122:	48 89 ca             	mov    %rcx,%rdx
   13125:	48 01 d2             	add    %rdx,%rdx
   13128:	48 01 ca             	add    %rcx,%rdx
   1312b:	48 01 d0             	add    %rdx,%rax
   1312e:	48 01 f0             	add    %rsi,%rax
   13131:	48 8d 14 85 00 00 00 	lea    0x0(,%rax,4),%rdx
   13138:	00 
   13139:	48 8d 05 20 0f 00 00 	lea    0xf20(%rip),%rax        # 14060 <g_151>
   13140:	8b 04 02             	mov    (%rdx,%rax,1),%eax
   13143:	89 c1                	mov    %eax,%ecx
   13145:	8b 45 fc             	mov    -0x4(%rbp),%eax
   13148:	89 c2                	mov    %eax,%edx
   1314a:	48 8d 35 e4 28 00 00 	lea    0x28e4(%rip),%rsi        # 15a35 <g_151+0x19d5>
   13151:	48 89 cf             	mov    %rcx,%rdi
   13154:	e8 9a 35 ff ff       	callq  66f3 <transparent_crc>
   13159:	83 7d fc 00          	cmpl   $0x0,-0x4(%rbp)
   1315d:	74 1c                	je     1317b <main+0x3f1>
   1315f:	8b 4d f8             	mov    -0x8(%rbp),%ecx
   13162:	8b 55 f4             	mov    -0xc(%rbp),%edx
   13165:	8b 45 f0             	mov    -0x10(%rbp),%eax
   13168:	89 c6                	mov    %eax,%esi
   1316a:	48 8d 3d 75 28 00 00 	lea    0x2875(%rip),%rdi        # 159e6 <g_151+0x1986>
   13171:	b8 00 00 00 00       	mov    $0x0,%eax
   13176:	e8 05 1f ff ff       	callq  5080 <printf@plt>
   1317b:	83 45 f8 01          	addl   $0x1,-0x8(%rbp)
   1317f:	83 7d f8 02          	cmpl   $0x2,-0x8(%rbp)
   13183:	0f 8e 76 ff ff ff    	jle    130ff <main+0x375>
   13189:	83 45 f4 01          	addl   $0x1,-0xc(%rbp)
   1318d:	83 7d f4 06          	cmpl   $0x6,-0xc(%rbp)
   13191:	0f 8e 5c ff ff ff    	jle    130f3 <main+0x369>
   13197:	83 45 f0 01          	addl   $0x1,-0x10(%rbp)
   1319b:	83 7d f0 05          	cmpl   $0x5,-0x10(%rbp)
   1319f:	0f 8e 42 ff ff ff    	jle    130e7 <main+0x35d>
   131a5:	0f b6 05 5a 61 00 00 	movzbl 0x615a(%rip),%eax        # 19306 <g_170>
   131ac:	48 0f be c0          	movsbq %al,%rax
   131b0:	8b 55 fc             	mov    -0x4(%rbp),%edx
   131b3:	48 8d 35 8a 28 00 00 	lea    0x288a(%rip),%rsi        # 15a44 <g_151+0x19e4>
   131ba:	48 89 c7             	mov    %rax,%rdi
   131bd:	e8 31 35 ff ff       	callq  66f3 <transparent_crc>
   131c2:	0f b7 05 3f 61 00 00 	movzwl 0x613f(%rip),%eax        # 19308 <g_188>
   131c9:	48 0f bf c0          	movswq %ax,%rax
   131cd:	8b 55 fc             	mov    -0x4(%rbp),%edx
   131d0:	48 8d 35 73 28 00 00 	lea    0x2873(%rip),%rsi        # 15a4a <g_151+0x19ea>
   131d7:	48 89 c7             	mov    %rax,%rdi
   131da:	e8 14 35 ff ff       	callq  66f3 <transparent_crc>
   131df:	0f b6 05 24 61 00 00 	movzbl 0x6124(%rip),%eax        # 1930a <g_228>
   131e6:	48 0f be c0          	movsbq %al,%rax
   131ea:	8b 55 fc             	mov    -0x4(%rbp),%edx
   131ed:	48 8d 35 5c 28 00 00 	lea    0x285c(%rip),%rsi        # 15a50 <g_151+0x19f0>
   131f4:	48 89 c7             	mov    %rax,%rdi
   131f7:	e8 f7 34 ff ff       	callq  66f3 <transparent_crc>
   131fc:	0f b6 05 15 61 00 00 	movzbl 0x6115(%rip),%eax        # 19318 <g_427>
   13203:	48 0f be c0          	movsbq %al,%rax
   13207:	8b 55 fc             	mov    -0x4(%rbp),%edx
   1320a:	48 8d 35 45 28 00 00 	lea    0x2845(%rip),%rsi        # 15a56 <g_151+0x19f6>
   13211:	48 89 c7             	mov    %rax,%rdi
   13214:	e8 da 34 ff ff       	callq  66f3 <transparent_crc>
   13219:	48 8b 05 00 61 00 00 	mov    0x6100(%rip),%rax        # 19320 <g_472>
   13220:	8b 55 fc             	mov    -0x4(%rbp),%edx
   13223:	48 8d 35 32 28 00 00 	lea    0x2832(%rip),%rsi        # 15a5c <g_151+0x19fc>
   1322a:	48 89 c7             	mov    %rax,%rdi
   1322d:	e8 c1 34 ff ff       	callq  66f3 <transparent_crc>
   13232:	0f b7 05 ef 60 00 00 	movzwl 0x60ef(%rip),%eax        # 19328 <g_571>
   13239:	48 0f bf c0          	movswq %ax,%rax
   1323d:	8b 55 fc             	mov    -0x4(%rbp),%edx
   13240:	48 8d 35 1b 28 00 00 	lea    0x281b(%rip),%rsi        # 15a62 <g_151+0x1a02>
   13247:	48 89 c7             	mov    %rax,%rdi
   1324a:	e8 a4 34 ff ff       	callq  66f3 <transparent_crc>
   1324f:	c7 45 f0 00 00 00 00 	movl   $0x0,-0x10(%rbp)
   13256:	e9 ad 00 00 00       	jmpq   13308 <main+0x57e>
   1325b:	c7 45 f4 00 00 00 00 	movl   $0x0,-0xc(%rbp)
   13262:	e9 93 00 00 00       	jmpq   132fa <main+0x570>
   13267:	c7 45 f8 00 00 00 00 	movl   $0x0,-0x8(%rbp)
   1326e:	eb 7c                	jmp    132ec <main+0x562>
   13270:	8b 45 f8             	mov    -0x8(%rbp),%eax
   13273:	48 63 f0             	movslq %eax,%rsi
   13276:	8b 45 f0             	mov    -0x10(%rbp),%eax
   13279:	48 63 d0             	movslq %eax,%rdx
   1327c:	8b 45 f4             	mov    -0xc(%rbp),%eax
   1327f:	48 63 c8             	movslq %eax,%rcx
   13282:	48 89 d0             	mov    %rdx,%rax
   13285:	48 c1 e0 03          	shl    $0x3,%rax
   13289:	48 01 d0             	add    %rdx,%rax
   1328c:	48 c1 e0 03          	shl    $0x3,%rax
   13290:	48 89 ca             	mov    %rcx,%rdx
   13293:	48 c1 e2 03          	shl    $0x3,%rdx
   13297:	48 01 ca             	add    %rcx,%rdx
   1329a:	48 01 d0             	add    %rdx,%rax
   1329d:	48 01 f0             	add    %rsi,%rax
   132a0:	48 8d 14 85 00 00 00 	lea    0x0(,%rax,4),%rdx
   132a7:	00 
   132a8:	48 8d 05 91 60 00 00 	lea    0x6091(%rip),%rax        # 19340 <g_645>
   132af:	8b 04 02             	mov    (%rdx,%rax,1),%eax
   132b2:	48 98                	cltq   
   132b4:	8b 55 fc             	mov    -0x4(%rbp),%edx
   132b7:	48 8d 35 aa 27 00 00 	lea    0x27aa(%rip),%rsi        # 15a68 <g_151+0x1a08>
   132be:	48 89 c7             	mov    %rax,%rdi
   132c1:	e8 2d 34 ff ff       	callq  66f3 <transparent_crc>
   132c6:	83 7d fc 00          	cmpl   $0x0,-0x4(%rbp)
   132ca:	74 1c                	je     132e8 <main+0x55e>
   132cc:	8b 4d f8             	mov    -0x8(%rbp),%ecx
   132cf:	8b 55 f4             	mov    -0xc(%rbp),%edx
   132d2:	8b 45 f0             	mov    -0x10(%rbp),%eax
   132d5:	89 c6                	mov    %eax,%esi
   132d7:	48 8d 3d 08 27 00 00 	lea    0x2708(%rip),%rdi        # 159e6 <g_151+0x1986>
   132de:	b8 00 00 00 00       	mov    $0x0,%eax
   132e3:	e8 98 1d ff ff       	callq  5080 <printf@plt>
   132e8:	83 45 f8 01          	addl   $0x1,-0x8(%rbp)
   132ec:	83 7d f8 08          	cmpl   $0x8,-0x8(%rbp)
   132f0:	0f 8e 7a ff ff ff    	jle    13270 <main+0x4e6>
   132f6:	83 45 f4 01          	addl   $0x1,-0xc(%rbp)
   132fa:	83 7d f4 07          	cmpl   $0x7,-0xc(%rbp)
   132fe:	0f 8e 63 ff ff ff    	jle    13267 <main+0x4dd>
   13304:	83 45 f0 01          	addl   $0x1,-0x10(%rbp)
   13308:	83 7d f0 01          	cmpl   $0x1,-0x10(%rbp)
   1330c:	0f 8e 49 ff ff ff    	jle    1325b <main+0x4d1>
   13312:	48 8b 05 67 62 00 00 	mov    0x6267(%rip),%rax        # 19580 <g_718>
   13319:	8b 55 fc             	mov    -0x4(%rbp),%edx
   1331c:	48 8d 35 54 27 00 00 	lea    0x2754(%rip),%rsi        # 15a77 <g_151+0x1a17>
   13323:	48 89 c7             	mov    %rax,%rdi
   13326:	e8 c8 33 ff ff       	callq  66f3 <transparent_crc>
   1332b:	8b 05 57 62 00 00    	mov    0x6257(%rip),%eax        # 19588 <g_759>
   13331:	89 c1                	mov    %eax,%ecx
   13333:	8b 45 fc             	mov    -0x4(%rbp),%eax
   13336:	89 c2                	mov    %eax,%edx
   13338:	48 8d 35 3e 27 00 00 	lea    0x273e(%rip),%rsi        # 15a7d <g_151+0x1a1d>
   1333f:	48 89 cf             	mov    %rcx,%rdi
   13342:	e8 ac 33 ff ff       	callq  66f3 <transparent_crc>
   13347:	48 8b 05 42 62 00 00 	mov    0x6242(%rip),%rax        # 19590 <g_788>
   1334e:	48 89 c1             	mov    %rax,%rcx
   13351:	8b 45 fc             	mov    -0x4(%rbp),%eax
   13354:	89 c2                	mov    %eax,%edx
   13356:	48 8d 35 26 27 00 00 	lea    0x2726(%rip),%rsi        # 15a83 <g_151+0x1a23>
   1335d:	48 89 cf             	mov    %rcx,%rdi
   13360:	e8 8e 33 ff ff       	callq  66f3 <transparent_crc>
   13365:	48 8b 05 2c 62 00 00 	mov    0x622c(%rip),%rax        # 19598 <g_789>
   1336c:	48 89 c1             	mov    %rax,%rcx
   1336f:	8b 45 fc             	mov    -0x4(%rbp),%eax
   13372:	89 c2                	mov    %eax,%edx
   13374:	48 8d 35 0e 27 00 00 	lea    0x270e(%rip),%rsi        # 15a89 <g_151+0x1a29>
   1337b:	48 89 cf             	mov    %rcx,%rdi
   1337e:	e8 70 33 ff ff       	callq  66f3 <transparent_crc>
   13383:	8b 05 17 8d 00 00    	mov    0x8d17(%rip),%eax        # 1c0a0 <g_831>
   13389:	89 c1                	mov    %eax,%ecx
   1338b:	8b 45 fc             	mov    -0x4(%rbp),%eax
   1338e:	89 c2                	mov    %eax,%edx
   13390:	48 8d 35 f8 26 00 00 	lea    0x26f8(%rip),%rsi        # 15a8f <g_151+0x1a2f>
   13397:	48 89 cf             	mov    %rcx,%rdi
   1339a:	e8 54 33 ff ff       	callq  66f3 <transparent_crc>
   1339f:	8b 05 fb 61 00 00    	mov    0x61fb(%rip),%eax        # 195a0 <g_851>
   133a5:	48 98                	cltq   
   133a7:	8b 55 fc             	mov    -0x4(%rbp),%edx
   133aa:	48 8d 35 e4 26 00 00 	lea    0x26e4(%rip),%rsi        # 15a95 <g_151+0x1a35>
   133b1:	48 89 c7             	mov    %rax,%rdi
   133b4:	e8 3a 33 ff ff       	callq  66f3 <transparent_crc>
   133b9:	48 8b 05 e8 61 00 00 	mov    0x61e8(%rip),%rax        # 195a8 <g_903>
   133c0:	48 89 c1             	mov    %rax,%rcx
   133c3:	8b 45 fc             	mov    -0x4(%rbp),%eax
   133c6:	89 c2                	mov    %eax,%edx
   133c8:	48 8d 35 cc 26 00 00 	lea    0x26cc(%rip),%rsi        # 15a9b <g_151+0x1a3b>
   133cf:	48 89 cf             	mov    %rcx,%rdi
   133d2:	e8 1c 33 ff ff       	callq  66f3 <transparent_crc>
   133d7:	48 8b 05 d2 61 00 00 	mov    0x61d2(%rip),%rax        # 195b0 <g_906>
   133de:	48 89 c1             	mov    %rax,%rcx
   133e1:	8b 45 fc             	mov    -0x4(%rbp),%eax
   133e4:	89 c2                	mov    %eax,%edx
   133e6:	48 8d 35 b4 26 00 00 	lea    0x26b4(%rip),%rsi        # 15aa1 <g_151+0x1a41>
   133ed:	48 89 cf             	mov    %rcx,%rdi
   133f0:	e8 fe 32 ff ff       	callq  66f3 <transparent_crc>
   133f5:	48 8b 05 bc 61 00 00 	mov    0x61bc(%rip),%rax        # 195b8 <g_1064>
   133fc:	8b 55 fc             	mov    -0x4(%rbp),%edx
   133ff:	48 8d 35 a1 26 00 00 	lea    0x26a1(%rip),%rsi        # 15aa7 <g_151+0x1a47>
   13406:	48 89 c7             	mov    %rax,%rdi
   13409:	e8 e5 32 ff ff       	callq  66f3 <transparent_crc>
   1340e:	0f b6 05 9b 8c 00 00 	movzbl 0x8c9b(%rip),%eax        # 1c0b0 <g_1074>
   13415:	48 0f be c0          	movsbq %al,%rax
   13419:	8b 55 fc             	mov    -0x4(%rbp),%edx
   1341c:	48 8d 35 8b 26 00 00 	lea    0x268b(%rip),%rsi        # 15aae <g_151+0x1a4e>
   13423:	48 89 c7             	mov    %rax,%rdi
   13426:	e8 c8 32 ff ff       	callq  66f3 <transparent_crc>
   1342b:	c7 45 f0 00 00 00 00 	movl   $0x0,-0x10(%rbp)
   13432:	eb 72                	jmp    134a6 <main+0x71c>
   13434:	c7 45 f4 00 00 00 00 	movl   $0x0,-0xc(%rbp)
   1343b:	eb 5f                	jmp    1349c <main+0x712>
   1343d:	8b 45 f4             	mov    -0xc(%rbp),%eax
   13440:	48 63 c8             	movslq %eax,%rcx
   13443:	8b 45 f0             	mov    -0x10(%rbp),%eax
   13446:	48 63 d0             	movslq %eax,%rdx
   13449:	48 89 d0             	mov    %rdx,%rax
   1344c:	48 01 c0             	add    %rax,%rax
   1344f:	48 01 d0             	add    %rdx,%rax
   13452:	48 01 c8             	add    %rcx,%rax
   13455:	48 8d 14 00          	lea    (%rax,%rax,1),%rdx
   13459:	48 8d 05 52 8c 00 00 	lea    0x8c52(%rip),%rax        # 1c0b2 <g_1102>
   13460:	0f b7 04 02          	movzwl (%rdx,%rax,1),%eax
   13464:	0f b7 c0             	movzwl %ax,%eax
   13467:	8b 55 fc             	mov    -0x4(%rbp),%edx
   1346a:	48 8d 35 44 26 00 00 	lea    0x2644(%rip),%rsi        # 15ab5 <g_151+0x1a55>
   13471:	48 89 c7             	mov    %rax,%rdi
   13474:	e8 7a 32 ff ff       	callq  66f3 <transparent_crc>
   13479:	83 7d fc 00          	cmpl   $0x0,-0x4(%rbp)
   1347d:	74 19                	je     13498 <main+0x70e>
   1347f:	8b 55 f4             	mov    -0xc(%rbp),%edx
   13482:	8b 45 f0             	mov    -0x10(%rbp),%eax
   13485:	89 c6                	mov    %eax,%esi
   13487:	48 8d 3d 38 25 00 00 	lea    0x2538(%rip),%rdi        # 159c6 <g_151+0x1966>
   1348e:	b8 00 00 00 00       	mov    $0x0,%eax
   13493:	e8 e8 1b ff ff       	callq  5080 <printf@plt>
   13498:	83 45 f4 01          	addl   $0x1,-0xc(%rbp)
   1349c:	83 7d f4 02          	cmpl   $0x2,-0xc(%rbp)
   134a0:	7e 9b                	jle    1343d <main+0x6b3>
   134a2:	83 45 f0 01          	addl   $0x1,-0x10(%rbp)
   134a6:	83 7d f0 00          	cmpl   $0x0,-0x10(%rbp)
   134aa:	7e 88                	jle    13434 <main+0x6aa>
   134ac:	48 8b 05 0d 61 00 00 	mov    0x610d(%rip),%rax        # 195c0 <g_1210>
   134b3:	48 89 c1             	mov    %rax,%rcx
   134b6:	8b 45 fc             	mov    -0x4(%rbp),%eax
   134b9:	89 c2                	mov    %eax,%edx
   134bb:	48 8d 35 00 26 00 00 	lea    0x2600(%rip),%rsi        # 15ac2 <g_151+0x1a62>
   134c2:	48 89 cf             	mov    %rcx,%rdi
   134c5:	e8 29 32 ff ff       	callq  66f3 <transparent_crc>
   134ca:	8b 05 f8 60 00 00    	mov    0x60f8(%rip),%eax        # 195c8 <g_1264>
   134d0:	89 c1                	mov    %eax,%ecx
   134d2:	8b 45 fc             	mov    -0x4(%rbp),%eax
   134d5:	89 c2                	mov    %eax,%edx
   134d7:	48 8d 35 eb 25 00 00 	lea    0x25eb(%rip),%rsi        # 15ac9 <g_151+0x1a69>
   134de:	48 89 cf             	mov    %rcx,%rdi
   134e1:	e8 0d 32 ff ff       	callq  66f3 <transparent_crc>
   134e6:	c7 45 f0 00 00 00 00 	movl   $0x0,-0x10(%rbp)
   134ed:	e9 9c 00 00 00       	jmpq   1358e <main+0x804>
   134f2:	c7 45 f4 00 00 00 00 	movl   $0x0,-0xc(%rbp)
   134f9:	e9 82 00 00 00       	jmpq   13580 <main+0x7f6>
   134fe:	c7 45 f8 00 00 00 00 	movl   $0x0,-0x8(%rbp)
   13505:	eb 6f                	jmp    13576 <main+0x7ec>
   13507:	8b 45 f8             	mov    -0x8(%rbp),%eax
   1350a:	48 63 c8             	movslq %eax,%rcx
   1350d:	8b 45 f0             	mov    -0x10(%rbp),%eax
   13510:	48 63 d0             	movslq %eax,%rdx
   13513:	8b 45 f4             	mov    -0xc(%rbp),%eax
   13516:	48 63 f0             	movslq %eax,%rsi
   13519:	48 89 d0             	mov    %rdx,%rax
   1351c:	48 01 c0             	add    %rax,%rax
   1351f:	48 01 d0             	add    %rdx,%rax
   13522:	48 01 f0             	add    %rsi,%rax
   13525:	48 c1 e0 03          	shl    $0x3,%rax
   13529:	48 01 c8             	add    %rcx,%rax
   1352c:	48 8d 14 00          	lea    (%rax,%rax,1),%rdx
   13530:	48 8d 05 a9 60 00 00 	lea    0x60a9(%rip),%rax        # 195e0 <g_1376>
   13537:	0f b7 04 02          	movzwl (%rdx,%rax,1),%eax
   1353b:	0f b7 c0             	movzwl %ax,%eax
   1353e:	8b 55 fc             	mov    -0x4(%rbp),%edx
   13541:	48 8d 35 88 25 00 00 	lea    0x2588(%rip),%rsi        # 15ad0 <g_151+0x1a70>
   13548:	48 89 c7             	mov    %rax,%rdi
   1354b:	e8 a3 31 ff ff       	callq  66f3 <transparent_crc>
   13550:	83 7d fc 00          	cmpl   $0x0,-0x4(%rbp)
   13554:	74 1c                	je     13572 <main+0x7e8>
   13556:	8b 4d f8             	mov    -0x8(%rbp),%ecx
   13559:	8b 55 f4             	mov    -0xc(%rbp),%edx
   1355c:	8b 45 f0             	mov    -0x10(%rbp),%eax
   1355f:	89 c6                	mov    %eax,%esi
   13561:	48 8d 3d 7e 24 00 00 	lea    0x247e(%rip),%rdi        # 159e6 <g_151+0x1986>
   13568:	b8 00 00 00 00       	mov    $0x0,%eax
   1356d:	e8 0e 1b ff ff       	callq  5080 <printf@plt>
   13572:	83 45 f8 01          	addl   $0x1,-0x8(%rbp)
   13576:	83 7d f8 07          	cmpl   $0x7,-0x8(%rbp)
   1357a:	7e 8b                	jle    13507 <main+0x77d>
   1357c:	83 45 f4 01          	addl   $0x1,-0xc(%rbp)
   13580:	83 7d f4 02          	cmpl   $0x2,-0xc(%rbp)
   13584:	0f 8e 74 ff ff ff    	jle    134fe <main+0x774>
   1358a:	83 45 f0 01          	addl   $0x1,-0x10(%rbp)
   1358e:	83 7d f0 09          	cmpl   $0x9,-0x10(%rbp)
   13592:	0f 8e 5a ff ff ff    	jle    134f2 <main+0x768>
   13598:	0f b6 05 21 62 00 00 	movzbl 0x6221(%rip),%eax        # 197c0 <g_1390>
   1359f:	0f b6 c0             	movzbl %al,%eax
   135a2:	8b 55 fc             	mov    -0x4(%rbp),%edx
   135a5:	48 8d 35 34 25 00 00 	lea    0x2534(%rip),%rsi        # 15ae0 <g_151+0x1a80>
   135ac:	48 89 c7             	mov    %rax,%rdi
   135af:	e8 3f 31 ff ff       	callq  66f3 <transparent_crc>
   135b4:	8b 05 0a 62 00 00    	mov    0x620a(%rip),%eax        # 197c4 <g_1444>
   135ba:	48 98                	cltq   
   135bc:	8b 55 fc             	mov    -0x4(%rbp),%edx
   135bf:	48 8d 35 21 25 00 00 	lea    0x2521(%rip),%rsi        # 15ae7 <g_151+0x1a87>
   135c6:	48 89 c7             	mov    %rax,%rdi
   135c9:	e8 25 31 ff ff       	callq  66f3 <transparent_crc>
   135ce:	c7 45 f0 00 00 00 00 	movl   $0x0,-0x10(%rbp)
   135d5:	eb 4f                	jmp    13626 <main+0x89c>
   135d7:	8b 45 f0             	mov    -0x10(%rbp),%eax
   135da:	48 98                	cltq   
   135dc:	48 8d 14 c5 00 00 00 	lea    0x0(,%rax,8),%rdx
   135e3:	00 
   135e4:	48 8d 05 f5 61 00 00 	lea    0x61f5(%rip),%rax        # 197e0 <g_1548>
   135eb:	48 8b 04 02          	mov    (%rdx,%rax,1),%rax
   135ef:	48 89 c1             	mov    %rax,%rcx
   135f2:	8b 45 fc             	mov    -0x4(%rbp),%eax
   135f5:	89 c2                	mov    %eax,%edx
   135f7:	48 8d 35 f0 24 00 00 	lea    0x24f0(%rip),%rsi        # 15aee <g_151+0x1a8e>
   135fe:	48 89 cf             	mov    %rcx,%rdi
   13601:	e8 ed 30 ff ff       	callq  66f3 <transparent_crc>
   13606:	83 7d fc 00          	cmpl   $0x0,-0x4(%rbp)
   1360a:	74 16                	je     13622 <main+0x898>
   1360c:	8b 45 f0             	mov    -0x10(%rbp),%eax
   1360f:	89 c6                	mov    %eax,%esi
   13611:	48 8d 3d 91 23 00 00 	lea    0x2391(%rip),%rdi        # 159a9 <g_151+0x1949>
   13618:	b8 00 00 00 00       	mov    $0x0,%eax
   1361d:	e8 5e 1a ff ff       	callq  5080 <printf@plt>
   13622:	83 45 f0 01          	addl   $0x1,-0x10(%rbp)
   13626:	83 7d f0 08          	cmpl   $0x8,-0x10(%rbp)
   1362a:	7e ab                	jle    135d7 <main+0x84d>
   1362c:	8b 05 f6 61 00 00    	mov    0x61f6(%rip),%eax        # 19828 <g_1618>
   13632:	89 c1                	mov    %eax,%ecx
   13634:	8b 45 fc             	mov    -0x4(%rbp),%eax
   13637:	89 c2                	mov    %eax,%edx
   13639:	48 8d 35 b8 24 00 00 	lea    0x24b8(%rip),%rsi        # 15af8 <g_151+0x1a98>
   13640:	48 89 cf             	mov    %rcx,%rdi
   13643:	e8 ab 30 ff ff       	callq  66f3 <transparent_crc>
   13648:	c7 45 f0 00 00 00 00 	movl   $0x0,-0x10(%rbp)
   1364f:	eb 6d                	jmp    136be <main+0x934>
   13651:	c7 45 f4 00 00 00 00 	movl   $0x0,-0xc(%rbp)
   13658:	eb 5a                	jmp    136b4 <main+0x92a>
   1365a:	8b 45 f4             	mov    -0xc(%rbp),%eax
   1365d:	48 98                	cltq   
   1365f:	8b 55 f0             	mov    -0x10(%rbp),%edx
   13662:	48 63 d2             	movslq %edx,%rdx
   13665:	48 01 d2             	add    %rdx,%rdx
   13668:	48 01 d0             	add    %rdx,%rax
   1366b:	48 8d 14 85 00 00 00 	lea    0x0(,%rax,4),%rdx
   13672:	00 
   13673:	48 8d 05 c6 61 00 00 	lea    0x61c6(%rip),%rax        # 19840 <g_1678>
   1367a:	8b 04 02             	mov    (%rdx,%rax,1),%eax
   1367d:	48 98                	cltq   
   1367f:	8b 55 fc             	mov    -0x4(%rbp),%edx
   13682:	48 8d 35 76 24 00 00 	lea    0x2476(%rip),%rsi        # 15aff <g_151+0x1a9f>
   13689:	48 89 c7             	mov    %rax,%rdi
   1368c:	e8 62 30 ff ff       	callq  66f3 <transparent_crc>
   13691:	83 7d fc 00          	cmpl   $0x0,-0x4(%rbp)
   13695:	74 19                	je     136b0 <main+0x926>
   13697:	8b 55 f4             	mov    -0xc(%rbp),%edx
   1369a:	8b 45 f0             	mov    -0x10(%rbp),%eax
   1369d:	89 c6                	mov    %eax,%esi
   1369f:	48 8d 3d 20 23 00 00 	lea    0x2320(%rip),%rdi        # 159c6 <g_151+0x1966>
   136a6:	b8 00 00 00 00       	mov    $0x0,%eax
   136ab:	e8 d0 19 ff ff       	callq  5080 <printf@plt>
   136b0:	83 45 f4 01          	addl   $0x1,-0xc(%rbp)
   136b4:	83 7d f4 01          	cmpl   $0x1,-0xc(%rbp)
   136b8:	7e a0                	jle    1365a <main+0x8d0>
   136ba:	83 45 f0 01          	addl   $0x1,-0x10(%rbp)
   136be:	83 7d f0 08          	cmpl   $0x8,-0x10(%rbp)
   136c2:	7e 8d                	jle    13651 <main+0x8c7>
   136c4:	c7 45 f0 00 00 00 00 	movl   $0x0,-0x10(%rbp)
   136cb:	e9 ba 00 00 00       	jmpq   1378a <main+0xa00>
   136d0:	c7 45 f4 00 00 00 00 	movl   $0x0,-0xc(%rbp)
   136d7:	e9 a0 00 00 00       	jmpq   1377c <main+0x9f2>
   136dc:	c7 45 f8 00 00 00 00 	movl   $0x0,-0x8(%rbp)
   136e3:	e9 86 00 00 00       	jmpq   1376e <main+0x9e4>
   136e8:	8b 45 f8             	mov    -0x8(%rbp),%eax
   136eb:	48 63 f0             	movslq %eax,%rsi
   136ee:	8b 45 f0             	mov    -0x10(%rbp),%eax
   136f1:	48 98                	cltq   
   136f3:	8b 55 f4             	mov    -0xc(%rbp),%edx
   136f6:	48 63 ca             	movslq %edx,%rcx
   136f9:	48 89 c2             	mov    %rax,%rdx
   136fc:	48 c1 e2 04          	shl    $0x4,%rdx
   13700:	48 29 c2             	sub    %rax,%rdx
   13703:	48 8d 04 95 00 00 00 	lea    0x0(,%rdx,4),%rax
   1370a:	00 
   1370b:	48 89 c2             	mov    %rax,%rdx
   1370e:	48 89 c8             	mov    %rcx,%rax
   13711:	48 01 c0             	add    %rax,%rax
   13714:	48 01 c8             	add    %rcx,%rax
   13717:	48 01 c0             	add    %rax,%rax
   1371a:	48 01 d0             	add    %rdx,%rax
   1371d:	48 01 f0             	add    %rsi,%rax
   13720:	48 8d 14 85 00 00 00 	lea    0x0(,%rax,4),%rdx
   13727:	00 
   13728:	48 8d 05 71 61 00 00 	lea    0x6171(%rip),%rax        # 198a0 <g_1815>
   1372f:	8b 04 02             	mov    (%rdx,%rax,1),%eax
   13732:	89 c1                	mov    %eax,%ecx
   13734:	8b 45 fc             	mov    -0x4(%rbp),%eax
   13737:	89 c2                	mov    %eax,%edx
   13739:	48 8d 35 cc 23 00 00 	lea    0x23cc(%rip),%rsi        # 15b0c <g_151+0x1aac>
   13740:	48 89 cf             	mov    %rcx,%rdi
   13743:	e8 ab 2f ff ff       	callq  66f3 <transparent_crc>
   13748:	83 7d fc 00          	cmpl   $0x0,-0x4(%rbp)
   1374c:	74 1c                	je     1376a <main+0x9e0>
   1374e:	8b 4d f8             	mov    -0x8(%rbp),%ecx
   13751:	8b 55 f4             	mov    -0xc(%rbp),%edx
   13754:	8b 45 f0             	mov    -0x10(%rbp),%eax
   13757:	89 c6                	mov    %eax,%esi
   13759:	48 8d 3d 86 22 00 00 	lea    0x2286(%rip),%rdi        # 159e6 <g_151+0x1986>
   13760:	b8 00 00 00 00       	mov    $0x0,%eax
   13765:	e8 16 19 ff ff       	callq  5080 <printf@plt>
   1376a:	83 45 f8 01          	addl   $0x1,-0x8(%rbp)
   1376e:	83 7d f8 05          	cmpl   $0x5,-0x8(%rbp)
   13772:	0f 8e 70 ff ff ff    	jle    136e8 <main+0x95e>
   13778:	83 45 f4 01          	addl   $0x1,-0xc(%rbp)
   1377c:	83 7d f4 09          	cmpl   $0x9,-0xc(%rbp)
   13780:	0f 8e 56 ff ff ff    	jle    136dc <main+0x952>
   13786:	83 45 f0 01          	addl   $0x1,-0x10(%rbp)
   1378a:	83 7d f0 03          	cmpl   $0x3,-0x10(%rbp)
   1378e:	0f 8e 3c ff ff ff    	jle    136d0 <main+0x946>
   13794:	8b 05 c6 64 00 00    	mov    0x64c6(%rip),%eax        # 19c60 <g_2025>
   1379a:	89 c1                	mov    %eax,%ecx
   1379c:	8b 45 fc             	mov    -0x4(%rbp),%eax
   1379f:	89 c2                	mov    %eax,%edx
   137a1:	48 8d 35 74 23 00 00 	lea    0x2374(%rip),%rsi        # 15b1c <g_151+0x1abc>
   137a8:	48 89 cf             	mov    %rcx,%rdi
   137ab:	e8 43 2f ff ff       	callq  66f3 <transparent_crc>
   137b0:	c7 45 f0 00 00 00 00 	movl   $0x0,-0x10(%rbp)
   137b7:	e9 b4 00 00 00       	jmpq   13870 <main+0xae6>
   137bc:	c7 45 f4 00 00 00 00 	movl   $0x0,-0xc(%rbp)
   137c3:	e9 9a 00 00 00       	jmpq   13862 <main+0xad8>
   137c8:	c7 45 f8 00 00 00 00 	movl   $0x0,-0x8(%rbp)
   137cf:	e9 80 00 00 00       	jmpq   13854 <main+0xaca>
   137d4:	8b 45 f8             	mov    -0x8(%rbp),%eax
   137d7:	48 63 f0             	movslq %eax,%rsi
   137da:	8b 45 f0             	mov    -0x10(%rbp),%eax
   137dd:	48 63 d0             	movslq %eax,%rdx
   137e0:	8b 45 f4             	mov    -0xc(%rbp),%eax
   137e3:	48 63 c8             	movslq %eax,%rcx
   137e6:	48 89 d0             	mov    %rdx,%rax
   137e9:	48 01 c0             	add    %rax,%rax
   137ec:	48 01 d0             	add    %rdx,%rax
   137ef:	48 89 c2             	mov    %rax,%rdx
   137f2:	48 c1 e2 04          	shl    $0x4,%rdx
   137f6:	48 29 c2             	sub    %rax,%rdx
   137f9:	48 89 c8             	mov    %rcx,%rax
   137fc:	48 c1 e0 02          	shl    $0x2,%rax
   13800:	48 01 c8             	add    %rcx,%rax
   13803:	48 01 d0             	add    %rdx,%rax
   13806:	48 01 f0             	add    %rsi,%rax
   13809:	48 8d 14 c5 00 00 00 	lea    0x0(,%rax,8),%rdx
   13810:	00 
   13811:	48 8d 05 68 64 00 00 	lea    0x6468(%rip),%rax        # 19c80 <g_2043>
   13818:	48 8b 04 02          	mov    (%rdx,%rax,1),%rax
   1381c:	8b 55 fc             	mov    -0x4(%rbp),%edx
   1381f:	48 8d 35 fd 22 00 00 	lea    0x22fd(%rip),%rsi        # 15b23 <g_151+0x1ac3>
   13826:	48 89 c7             	mov    %rax,%rdi
   13829:	e8 c5 2e ff ff       	callq  66f3 <transparent_crc>
   1382e:	83 7d fc 00          	cmpl   $0x0,-0x4(%rbp)
   13832:	74 1c                	je     13850 <main+0xac6>
   13834:	8b 4d f8             	mov    -0x8(%rbp),%ecx
   13837:	8b 55 f4             	mov    -0xc(%rbp),%edx
   1383a:	8b 45 f0             	mov    -0x10(%rbp),%eax
   1383d:	89 c6                	mov    %eax,%esi
   1383f:	48 8d 3d a0 21 00 00 	lea    0x21a0(%rip),%rdi        # 159e6 <g_151+0x1986>
   13846:	b8 00 00 00 00       	mov    $0x0,%eax
   1384b:	e8 30 18 ff ff       	callq  5080 <printf@plt>
   13850:	83 45 f8 01          	addl   $0x1,-0x8(%rbp)
   13854:	83 7d f8 04          	cmpl   $0x4,-0x8(%rbp)
   13858:	0f 8e 76 ff ff ff    	jle    137d4 <main+0xa4a>
   1385e:	83 45 f4 01          	addl   $0x1,-0xc(%rbp)
   13862:	83 7d f4 08          	cmpl   $0x8,-0xc(%rbp)
   13866:	0f 8e 5c ff ff ff    	jle    137c8 <main+0xa3e>
   1386c:	83 45 f0 01          	addl   $0x1,-0x10(%rbp)
   13870:	83 7d f0 04          	cmpl   $0x4,-0x10(%rbp)
   13874:	0f 8e 42 ff ff ff    	jle    137bc <main+0xa32>
   1387a:	c7 45 f0 00 00 00 00 	movl   $0x0,-0x10(%rbp)
   13881:	eb 77                	jmp    138fa <main+0xb70>
   13883:	c7 45 f4 00 00 00 00 	movl   $0x0,-0xc(%rbp)
   1388a:	eb 64                	jmp    138f0 <main+0xb66>
   1388c:	8b 45 f4             	mov    -0xc(%rbp),%eax
   1388f:	48 63 c8             	movslq %eax,%rcx
   13892:	8b 45 f0             	mov    -0x10(%rbp),%eax
   13895:	48 63 d0             	movslq %eax,%rdx
   13898:	48 89 d0             	mov    %rdx,%rax
   1389b:	48 c1 e0 02          	shl    $0x2,%rax
   1389f:	48 01 d0             	add    %rdx,%rax
   138a2:	48 01 c8             	add    %rcx,%rax
   138a5:	48 8d 14 85 00 00 00 	lea    0x0(,%rax,4),%rdx
   138ac:	00 
   138ad:	48 8d 05 dc 6a 00 00 	lea    0x6adc(%rip),%rax        # 1a390 <g_2090>
   138b4:	8b 04 02             	mov    (%rdx,%rax,1),%eax
   138b7:	89 c1                	mov    %eax,%ecx
   138b9:	8b 45 fc             	mov    -0x4(%rbp),%eax
   138bc:	89 c2                	mov    %eax,%edx
   138be:	48 8d 35 6e 22 00 00 	lea    0x226e(%rip),%rsi        # 15b33 <g_151+0x1ad3>
   138c5:	48 89 cf             	mov    %rcx,%rdi
   138c8:	e8 26 2e ff ff       	callq  66f3 <transparent_crc>
   138cd:	83 7d fc 00          	cmpl   $0x0,-0x4(%rbp)
   138d1:	74 19                	je     138ec <main+0xb62>
   138d3:	8b 55 f4             	mov    -0xc(%rbp),%edx
   138d6:	8b 45 f0             	mov    -0x10(%rbp),%eax
   138d9:	89 c6                	mov    %eax,%esi
   138db:	48 8d 3d e4 20 00 00 	lea    0x20e4(%rip),%rdi        # 159c6 <g_151+0x1966>
   138e2:	b8 00 00 00 00       	mov    $0x0,%eax
   138e7:	e8 94 17 ff ff       	callq  5080 <printf@plt>
   138ec:	83 45 f4 01          	addl   $0x1,-0xc(%rbp)
   138f0:	83 7d f4 04          	cmpl   $0x4,-0xc(%rbp)
   138f4:	7e 96                	jle    1388c <main+0xb02>
   138f6:	83 45 f0 01          	addl   $0x1,-0x10(%rbp)
   138fa:	83 7d f0 00          	cmpl   $0x0,-0x10(%rbp)
   138fe:	7e 83                	jle    13883 <main+0xaf9>
   13900:	8b 05 9e 6a 00 00    	mov    0x6a9e(%rip),%eax        # 1a3a4 <g_2135>
   13906:	48 98                	cltq   
   13908:	8b 55 fc             	mov    -0x4(%rbp),%edx
   1390b:	48 8d 35 2e 22 00 00 	lea    0x222e(%rip),%rsi        # 15b40 <g_151+0x1ae0>
   13912:	48 89 c7             	mov    %rax,%rdi
   13915:	e8 d9 2d ff ff       	callq  66f3 <transparent_crc>
   1391a:	8b 05 88 6a 00 00    	mov    0x6a88(%rip),%eax        # 1a3a8 <g_2235>
   13920:	89 c1                	mov    %eax,%ecx
   13922:	8b 45 fc             	mov    -0x4(%rbp),%eax
   13925:	89 c2                	mov    %eax,%edx
   13927:	48 8d 35 19 22 00 00 	lea    0x2219(%rip),%rsi        # 15b47 <g_151+0x1ae7>
   1392e:	48 89 cf             	mov    %rcx,%rdi
   13931:	e8 bd 2d ff ff       	callq  66f3 <transparent_crc>
   13936:	c7 45 f0 00 00 00 00 	movl   $0x0,-0x10(%rbp)
   1393d:	eb 75                	jmp    139b4 <main+0xc2a>
   1393f:	c7 45 f4 00 00 00 00 	movl   $0x0,-0xc(%rbp)
   13946:	eb 62                	jmp    139aa <main+0xc20>
   13948:	8b 45 f4             	mov    -0xc(%rbp),%eax
   1394b:	48 63 c8             	movslq %eax,%rcx
   1394e:	8b 45 f0             	mov    -0x10(%rbp),%eax
   13951:	48 63 d0             	movslq %eax,%rdx
   13954:	48 89 d0             	mov    %rdx,%rax
   13957:	48 c1 e0 03          	shl    $0x3,%rax
   1395b:	48 29 d0             	sub    %rdx,%rax
   1395e:	48 01 c8             	add    %rcx,%rax
   13961:	48 8d 14 85 00 00 00 	lea    0x0(,%rax,4),%rdx
   13968:	00 
   13969:	48 8d 05 50 6a 00 00 	lea    0x6a50(%rip),%rax        # 1a3c0 <g_2260>
   13970:	8b 04 02             	mov    (%rdx,%rax,1),%eax
   13973:	48 98                	cltq   
   13975:	8b 55 fc             	mov    -0x4(%rbp),%edx
   13978:	48 8d 35 cf 21 00 00 	lea    0x21cf(%rip),%rsi        # 15b4e <g_151+0x1aee>
   1397f:	48 89 c7             	mov    %rax,%rdi
   13982:	e8 6c 2d ff ff       	callq  66f3 <transparent_crc>
   13987:	83 7d fc 00          	cmpl   $0x0,-0x4(%rbp)
   1398b:	74 19                	je     139a6 <main+0xc1c>
   1398d:	8b 55 f4             	mov    -0xc(%rbp),%edx
   13990:	8b 45 f0             	mov    -0x10(%rbp),%eax
   13993:	89 c6                	mov    %eax,%esi
   13995:	48 8d 3d 2a 20 00 00 	lea    0x202a(%rip),%rdi        # 159c6 <g_151+0x1966>
   1399c:	b8 00 00 00 00       	mov    $0x0,%eax
   139a1:	e8 da 16 ff ff       	callq  5080 <printf@plt>
   139a6:	83 45 f4 01          	addl   $0x1,-0xc(%rbp)
   139aa:	83 7d f4 06          	cmpl   $0x6,-0xc(%rbp)
   139ae:	7e 98                	jle    13948 <main+0xbbe>
   139b0:	83 45 f0 01          	addl   $0x1,-0x10(%rbp)
   139b4:	83 7d f0 06          	cmpl   $0x6,-0x10(%rbp)
   139b8:	7e 85                	jle    1393f <main+0xbb5>
   139ba:	8b 05 c4 6a 00 00    	mov    0x6ac4(%rip),%eax        # 1a484 <g_2380>
   139c0:	89 c1                	mov    %eax,%ecx
   139c2:	8b 45 fc             	mov    -0x4(%rbp),%eax
   139c5:	89 c2                	mov    %eax,%edx
   139c7:	48 8d 35 8d 21 00 00 	lea    0x218d(%rip),%rsi        # 15b5b <g_151+0x1afb>
   139ce:	48 89 cf             	mov    %rcx,%rdi
   139d1:	e8 1d 2d ff ff       	callq  66f3 <transparent_crc>
   139d6:	8b 05 ac 6a 00 00    	mov    0x6aac(%rip),%eax        # 1a488 <g_2450>
   139dc:	48 98                	cltq   
   139de:	8b 55 fc             	mov    -0x4(%rbp),%edx
   139e1:	48 8d 35 7a 21 00 00 	lea    0x217a(%rip),%rsi        # 15b62 <g_151+0x1b02>
   139e8:	48 89 c7             	mov    %rax,%rdi
   139eb:	e8 03 2d ff ff       	callq  66f3 <transparent_crc>
   139f0:	8b 05 96 6a 00 00    	mov    0x6a96(%rip),%eax        # 1a48c <g_2468>
   139f6:	48 98                	cltq   
   139f8:	8b 55 fc             	mov    -0x4(%rbp),%edx
   139fb:	48 8d 35 67 21 00 00 	lea    0x2167(%rip),%rsi        # 15b69 <g_151+0x1b09>
   13a02:	48 89 c7             	mov    %rax,%rdi
   13a05:	e8 e9 2c ff ff       	callq  66f3 <transparent_crc>
   13a0a:	8b 05 10 56 00 00    	mov    0x5610(%rip),%eax        # 19020 <crc32_context>
   13a10:	f7 d0                	not    %eax
   13a12:	89 c2                	mov    %eax,%edx
   13a14:	8b 45 fc             	mov    -0x4(%rbp),%eax
   13a17:	89 c6                	mov    %eax,%esi
   13a19:	89 d7                	mov    %edx,%edi
   13a1b:	e8 74 17 ff ff       	callq  5194 <platform_main_end>
   13a20:	b8 00 00 00 00       	mov    $0x0,%eax
   13a25:	c9                   	leaveq 
   13a26:	c3                   	retq   
   13a27:	66 0f 1f 84 00 00 00 	nopw   0x0(%rax,%rax,1)
   13a2e:	00 00 

0000000000013a30 <__libc_csu_init>:
   13a30:	f3 0f 1e fa          	endbr64 
   13a34:	41 57                	push   %r15
   13a36:	4c 8d 3d 13 53 00 00 	lea    0x5313(%rip),%r15        # 18d50 <__frame_dummy_init_array_entry>
   13a3d:	41 56                	push   %r14
   13a3f:	49 89 d6             	mov    %rdx,%r14
   13a42:	41 55                	push   %r13
   13a44:	49 89 f5             	mov    %rsi,%r13
   13a47:	41 54                	push   %r12
   13a49:	41 89 fc             	mov    %edi,%r12d
   13a4c:	55                   	push   %rbp
   13a4d:	48 8d 2d 04 53 00 00 	lea    0x5304(%rip),%rbp        # 18d58 <__do_global_dtors_aux_fini_array_entry>
   13a54:	53                   	push   %rbx
   13a55:	4c 29 fd             	sub    %r15,%rbp
   13a58:	48 83 ec 08          	sub    $0x8,%rsp
   13a5c:	e8 9f 15 ff ff       	callq  5000 <_init>
   13a61:	48 c1 fd 03          	sar    $0x3,%rbp
   13a65:	74 1f                	je     13a86 <__libc_csu_init+0x56>
   13a67:	31 db                	xor    %ebx,%ebx
   13a69:	0f 1f 80 00 00 00 00 	nopl   0x0(%rax)
   13a70:	4c 89 f2             	mov    %r14,%rdx
   13a73:	4c 89 ee             	mov    %r13,%rsi
   13a76:	44 89 e7             	mov    %r12d,%edi
   13a79:	41 ff 14 df          	callq  *(%r15,%rbx,8)
   13a7d:	48 83 c3 01          	add    $0x1,%rbx
   13a81:	48 39 dd             	cmp    %rbx,%rbp
   13a84:	75 ea                	jne    13a70 <__libc_csu_init+0x40>
   13a86:	48 83 c4 08          	add    $0x8,%rsp
   13a8a:	5b                   	pop    %rbx
   13a8b:	5d                   	pop    %rbp
   13a8c:	41 5c                	pop    %r12
   13a8e:	41 5d                	pop    %r13
   13a90:	41 5e                	pop    %r14
   13a92:	41 5f                	pop    %r15
   13a94:	c3                   	retq   
   13a95:	66 66 2e 0f 1f 84 00 	data16 nopw %cs:0x0(%rax,%rax,1)
   13a9c:	00 00 00 00 

0000000000013aa0 <__libc_csu_fini>:
   13aa0:	f3 0f 1e fa          	endbr64 
   13aa4:	c3                   	retq   
