


Disassembly of section .text:

00000000000060a0 <_start>:
    60a0:	f3 0f 1e fa          	endbr64 
    60a4:	31 ed                	xor    %ebp,%ebp
    60a6:	49 89 d1             	mov    %rdx,%r9
    60a9:	5e                   	pop    %rsi
    60aa:	48 89 e2             	mov    %rsp,%rdx
    60ad:	48 83 e4 f0          	and    $0xfffffffffffffff0,%rsp
    60b1:	50                   	push   %rax
    60b2:	54                   	push   %rsp
    60b3:	4c 8d 05 f6 cc 00 00 	lea    0xccf6(%rip),%r8        # 12db0 <__libc_csu_fini>
    60ba:	48 8d 0d 7f cc 00 00 	lea    0xcc7f(%rip),%rcx        # 12d40 <__libc_csu_init>
    60c1:	48 8d 3d 16 9b 00 00 	lea    0x9b16(%rip),%rdi        # fbde <main>
    60c8:	ff 15 0a 0f 01 00    	callq  *0x10f0a(%rip)        # 16fd8 <__libc_start_main@GLIBC_2.2.5>
    60ce:	f4                   	hlt    
    60cf:	90                   	nop

00000000000060d0 <deregister_tm_clones>:
    60d0:	48 8d 3d 11 3c 01 00 	lea    0x13c11(%rip),%rdi        # 19ce8 <__TMC_END__>
    60d7:	48 8d 05 0a 3c 01 00 	lea    0x13c0a(%rip),%rax        # 19ce8 <__TMC_END__>
    60de:	48 39 f8             	cmp    %rdi,%rax
    60e1:	74 15                	je     60f8 <deregister_tm_clones+0x28>
    60e3:	48 8b 05 e6 0e 01 00 	mov    0x10ee6(%rip),%rax        # 16fd0 <_ITM_deregisterTMCloneTable>
    60ea:	48 85 c0             	test   %rax,%rax
    60ed:	74 09                	je     60f8 <deregister_tm_clones+0x28>
    60ef:	ff e0                	jmpq   *%rax
    60f1:	0f 1f 80 00 00 00 00 	nopl   0x0(%rax)
    60f8:	c3                   	retq   
    60f9:	0f 1f 80 00 00 00 00 	nopl   0x0(%rax)

0000000000006100 <register_tm_clones>:
    6100:	48 8d 3d e1 3b 01 00 	lea    0x13be1(%rip),%rdi        # 19ce8 <__TMC_END__>
    6107:	48 8d 35 da 3b 01 00 	lea    0x13bda(%rip),%rsi        # 19ce8 <__TMC_END__>
    610e:	48 29 fe             	sub    %rdi,%rsi
    6111:	48 89 f0             	mov    %rsi,%rax
    6114:	48 c1 ee 3f          	shr    $0x3f,%rsi
    6118:	48 c1 f8 03          	sar    $0x3,%rax
    611c:	48 01 c6             	add    %rax,%rsi
    611f:	48 d1 fe             	sar    %rsi
    6122:	74 14                	je     6138 <register_tm_clones+0x38>
    6124:	48 8b 05 bd 0e 01 00 	mov    0x10ebd(%rip),%rax        # 16fe8 <_ITM_registerTMCloneTable>
    612b:	48 85 c0             	test   %rax,%rax
    612e:	74 08                	je     6138 <register_tm_clones+0x38>
    6130:	ff e0                	jmpq   *%rax
    6132:	66 0f 1f 44 00 00    	nopw   0x0(%rax,%rax,1)
    6138:	c3                   	retq   
    6139:	0f 1f 80 00 00 00 00 	nopl   0x0(%rax)

0000000000006140 <__do_global_dtors_aux>:
    6140:	f3 0f 1e fa          	endbr64 
    6144:	80 3d b5 3b 01 00 00 	cmpb   $0x0,0x13bb5(%rip)        # 19d00 <completed.8061>
    614b:	75 2b                	jne    6178 <__do_global_dtors_aux+0x38>
    614d:	55                   	push   %rbp
    614e:	48 83 3d 9a 0e 01 00 	cmpq   $0x0,0x10e9a(%rip)        # 16ff0 <__cxa_finalize@GLIBC_2.2.5>
    6155:	00 
    6156:	48 89 e5             	mov    %rsp,%rbp
    6159:	74 0c                	je     6167 <__do_global_dtors_aux+0x27>
    615b:	48 8b 3d a6 0e 01 00 	mov    0x10ea6(%rip),%rdi        # 17008 <__dso_handle>
    6162:	e8 f9 fe ff ff       	callq  6060 <__cxa_finalize@plt>
    6167:	e8 64 ff ff ff       	callq  60d0 <deregister_tm_clones>
    616c:	c6 05 8d 3b 01 00 01 	movb   $0x1,0x13b8d(%rip)        # 19d00 <completed.8061>
    6173:	5d                   	pop    %rbp
    6174:	c3                   	retq   
    6175:	0f 1f 00             	nopl   (%rax)
    6178:	c3                   	retq   
    6179:	0f 1f 80 00 00 00 00 	nopl   0x0(%rax)

0000000000006180 <frame_dummy>:
    6180:	f3 0f 1e fa          	endbr64 
    6184:	e9 77 ff ff ff       	jmpq   6100 <register_tm_clones>

0000000000006189 <platform_main_begin>:
    6189:	f3 0f 1e fa          	endbr64 
    618d:	55                   	push   %rbp
    618e:	48 89 e5             	mov    %rsp,%rbp
    6191:	90                   	nop
    6192:	5d                   	pop    %rbp
    6193:	c3                   	retq   

0000000000006194 <platform_main_end>:
    6194:	f3 0f 1e fa          	endbr64 
    6198:	55                   	push   %rbp
    6199:	48 89 e5             	mov    %rsp,%rbp
    619c:	48 83 ec 10          	sub    $0x10,%rsp
    61a0:	89 7d fc             	mov    %edi,-0x4(%rbp)
    61a3:	89 75 f8             	mov    %esi,-0x8(%rbp)
    61a6:	8b 45 fc             	mov    -0x4(%rbp),%eax
    61a9:	89 c6                	mov    %eax,%esi
    61ab:	48 8d 3d 6e ce 00 00 	lea    0xce6e(%rip),%rdi        # 13020 <_IO_stdin_used+0x20>
    61b2:	b8 00 00 00 00       	mov    $0x0,%eax
    61b7:	e8 c4 fe ff ff       	callq  6080 <printf@plt>
    61bc:	90                   	nop
    61bd:	c9                   	leaveq 
    61be:	c3                   	retq   

00000000000061bf <safe_unary_minus_func_int8_t_s>:
    61bf:	f3 0f 1e fa          	endbr64 
    61c3:	55                   	push   %rbp
    61c4:	48 89 e5             	mov    %rsp,%rbp
    61c7:	89 f8                	mov    %edi,%eax
    61c9:	88 45 fc             	mov    %al,-0x4(%rbp)
    61cc:	0f b6 45 fc          	movzbl -0x4(%rbp),%eax
    61d0:	f7 d8                	neg    %eax
    61d2:	5d                   	pop    %rbp
    61d3:	c3                   	retq   

00000000000061d4 <safe_add_func_int8_t_s_s>:
    61d4:	f3 0f 1e fa          	endbr64 
    61d8:	55                   	push   %rbp
    61d9:	48 89 e5             	mov    %rsp,%rbp
    61dc:	89 fa                	mov    %edi,%edx
    61de:	89 f0                	mov    %esi,%eax
    61e0:	88 55 fc             	mov    %dl,-0x4(%rbp)
    61e3:	88 45 f8             	mov    %al,-0x8(%rbp)
    61e6:	0f b6 55 fc          	movzbl -0x4(%rbp),%edx
    61ea:	0f b6 45 f8          	movzbl -0x8(%rbp),%eax
    61ee:	01 d0                	add    %edx,%eax
    61f0:	5d                   	pop    %rbp
    61f1:	c3                   	retq   

00000000000061f2 <safe_sub_func_int8_t_s_s>:
    61f2:	f3 0f 1e fa          	endbr64 
    61f6:	55                   	push   %rbp
    61f7:	48 89 e5             	mov    %rsp,%rbp
    61fa:	89 fa                	mov    %edi,%edx
    61fc:	89 f0                	mov    %esi,%eax
    61fe:	88 55 fc             	mov    %dl,-0x4(%rbp)
    6201:	88 45 f8             	mov    %al,-0x8(%rbp)
    6204:	0f b6 55 fc          	movzbl -0x4(%rbp),%edx
    6208:	0f b6 45 f8          	movzbl -0x8(%rbp),%eax
    620c:	29 c2                	sub    %eax,%edx
    620e:	89 d0                	mov    %edx,%eax
    6210:	5d                   	pop    %rbp
    6211:	c3                   	retq   

0000000000006212 <safe_mul_func_int8_t_s_s>:
    6212:	f3 0f 1e fa          	endbr64 
    6216:	55                   	push   %rbp
    6217:	48 89 e5             	mov    %rsp,%rbp
    621a:	89 fa                	mov    %edi,%edx
    621c:	89 f0                	mov    %esi,%eax
    621e:	88 55 fc             	mov    %dl,-0x4(%rbp)
    6221:	88 45 f8             	mov    %al,-0x8(%rbp)
    6224:	0f b6 45 fc          	movzbl -0x4(%rbp),%eax
    6228:	0f b6 55 f8          	movzbl -0x8(%rbp),%edx
    622c:	0f af c2             	imul   %edx,%eax
    622f:	5d                   	pop    %rbp
    6230:	c3                   	retq   

0000000000006231 <safe_mod_func_int8_t_s_s>:
    6231:	f3 0f 1e fa          	endbr64 
    6235:	55                   	push   %rbp
    6236:	48 89 e5             	mov    %rsp,%rbp
    6239:	89 fa                	mov    %edi,%edx
    623b:	89 f0                	mov    %esi,%eax
    623d:	88 55 fc             	mov    %dl,-0x4(%rbp)
    6240:	88 45 f8             	mov    %al,-0x8(%rbp)
    6243:	80 7d f8 00          	cmpb   $0x0,-0x8(%rbp)
    6247:	74 1b                	je     6264 <safe_mod_func_int8_t_s_s+0x33>
    6249:	80 7d fc 80          	cmpb   $0x80,-0x4(%rbp)
    624d:	75 06                	jne    6255 <safe_mod_func_int8_t_s_s+0x24>
    624f:	80 7d f8 ff          	cmpb   $0xff,-0x8(%rbp)
    6253:	74 0f                	je     6264 <safe_mod_func_int8_t_s_s+0x33>
    6255:	0f be 45 fc          	movsbl -0x4(%rbp),%eax
    6259:	0f be 4d f8          	movsbl -0x8(%rbp),%ecx
    625d:	99                   	cltd   
    625e:	f7 f9                	idiv   %ecx
    6260:	89 d0                	mov    %edx,%eax
    6262:	eb 04                	jmp    6268 <safe_mod_func_int8_t_s_s+0x37>
    6264:	0f b6 45 fc          	movzbl -0x4(%rbp),%eax
    6268:	5d                   	pop    %rbp
    6269:	c3                   	retq   

000000000000626a <safe_div_func_int8_t_s_s>:
    626a:	f3 0f 1e fa          	endbr64 
    626e:	55                   	push   %rbp
    626f:	48 89 e5             	mov    %rsp,%rbp
    6272:	89 fa                	mov    %edi,%edx
    6274:	89 f0                	mov    %esi,%eax
    6276:	88 55 fc             	mov    %dl,-0x4(%rbp)
    6279:	88 45 f8             	mov    %al,-0x8(%rbp)
    627c:	80 7d f8 00          	cmpb   $0x0,-0x8(%rbp)
    6280:	74 19                	je     629b <safe_div_func_int8_t_s_s+0x31>
    6282:	80 7d fc 80          	cmpb   $0x80,-0x4(%rbp)
    6286:	75 06                	jne    628e <safe_div_func_int8_t_s_s+0x24>
    6288:	80 7d f8 ff          	cmpb   $0xff,-0x8(%rbp)
    628c:	74 0d                	je     629b <safe_div_func_int8_t_s_s+0x31>
    628e:	0f be 45 fc          	movsbl -0x4(%rbp),%eax
    6292:	0f be 4d f8          	movsbl -0x8(%rbp),%ecx
    6296:	99                   	cltd   
    6297:	f7 f9                	idiv   %ecx
    6299:	eb 04                	jmp    629f <safe_div_func_int8_t_s_s+0x35>
    629b:	0f b6 45 fc          	movzbl -0x4(%rbp),%eax
    629f:	5d                   	pop    %rbp
    62a0:	c3                   	retq   

00000000000062a1 <safe_lshift_func_int8_t_s_s>:
    62a1:	f3 0f 1e fa          	endbr64 
    62a5:	55                   	push   %rbp
    62a6:	48 89 e5             	mov    %rsp,%rbp
    62a9:	89 f8                	mov    %edi,%eax
    62ab:	89 75 f8             	mov    %esi,-0x8(%rbp)
    62ae:	88 45 fc             	mov    %al,-0x4(%rbp)
    62b1:	80 7d fc 00          	cmpb   $0x0,-0x4(%rbp)
    62b5:	78 31                	js     62e8 <safe_lshift_func_int8_t_s_s+0x47>
    62b7:	83 7d f8 00          	cmpl   $0x0,-0x8(%rbp)
    62bb:	78 2b                	js     62e8 <safe_lshift_func_int8_t_s_s+0x47>
    62bd:	83 7d f8 1f          	cmpl   $0x1f,-0x8(%rbp)
    62c1:	7f 25                	jg     62e8 <safe_lshift_func_int8_t_s_s+0x47>
    62c3:	0f be 55 fc          	movsbl -0x4(%rbp),%edx
    62c7:	8b 45 f8             	mov    -0x8(%rbp),%eax
    62ca:	be 7f 00 00 00       	mov    $0x7f,%esi
    62cf:	89 c1                	mov    %eax,%ecx
    62d1:	d3 fe                	sar    %cl,%esi
    62d3:	89 f0                	mov    %esi,%eax
    62d5:	39 c2                	cmp    %eax,%edx
    62d7:	7f 0f                	jg     62e8 <safe_lshift_func_int8_t_s_s+0x47>
    62d9:	0f be 55 fc          	movsbl -0x4(%rbp),%edx
    62dd:	8b 45 f8             	mov    -0x8(%rbp),%eax
    62e0:	89 c1                	mov    %eax,%ecx
    62e2:	d3 e2                	shl    %cl,%edx
    62e4:	89 d0                	mov    %edx,%eax
    62e6:	eb 04                	jmp    62ec <safe_lshift_func_int8_t_s_s+0x4b>
    62e8:	0f b6 45 fc          	movzbl -0x4(%rbp),%eax
    62ec:	5d                   	pop    %rbp
    62ed:	c3                   	retq   

00000000000062ee <safe_lshift_func_int8_t_s_u>:
    62ee:	f3 0f 1e fa          	endbr64 
    62f2:	55                   	push   %rbp
    62f3:	48 89 e5             	mov    %rsp,%rbp
    62f6:	89 f8                	mov    %edi,%eax
    62f8:	89 75 f8             	mov    %esi,-0x8(%rbp)
    62fb:	88 45 fc             	mov    %al,-0x4(%rbp)
    62fe:	80 7d fc 00          	cmpb   $0x0,-0x4(%rbp)
    6302:	78 2b                	js     632f <safe_lshift_func_int8_t_s_u+0x41>
    6304:	83 7d f8 1f          	cmpl   $0x1f,-0x8(%rbp)
    6308:	77 25                	ja     632f <safe_lshift_func_int8_t_s_u+0x41>
    630a:	0f be 55 fc          	movsbl -0x4(%rbp),%edx
    630e:	8b 45 f8             	mov    -0x8(%rbp),%eax
    6311:	be 7f 00 00 00       	mov    $0x7f,%esi
    6316:	89 c1                	mov    %eax,%ecx
    6318:	d3 fe                	sar    %cl,%esi
    631a:	89 f0                	mov    %esi,%eax
    631c:	39 c2                	cmp    %eax,%edx
    631e:	7f 0f                	jg     632f <safe_lshift_func_int8_t_s_u+0x41>
    6320:	0f be 55 fc          	movsbl -0x4(%rbp),%edx
    6324:	8b 45 f8             	mov    -0x8(%rbp),%eax
    6327:	89 c1                	mov    %eax,%ecx
    6329:	d3 e2                	shl    %cl,%edx
    632b:	89 d0                	mov    %edx,%eax
    632d:	eb 04                	jmp    6333 <safe_lshift_func_int8_t_s_u+0x45>
    632f:	0f b6 45 fc          	movzbl -0x4(%rbp),%eax
    6333:	5d                   	pop    %rbp
    6334:	c3                   	retq   

0000000000006335 <safe_rshift_func_int8_t_s_s>:
    6335:	f3 0f 1e fa          	endbr64 
    6339:	55                   	push   %rbp
    633a:	48 89 e5             	mov    %rsp,%rbp
    633d:	89 f8                	mov    %edi,%eax
    633f:	89 75 f8             	mov    %esi,-0x8(%rbp)
    6342:	88 45 fc             	mov    %al,-0x4(%rbp)
    6345:	80 7d fc 00          	cmpb   $0x0,-0x4(%rbp)
    6349:	78 1b                	js     6366 <safe_rshift_func_int8_t_s_s+0x31>
    634b:	83 7d f8 00          	cmpl   $0x0,-0x8(%rbp)
    634f:	78 15                	js     6366 <safe_rshift_func_int8_t_s_s+0x31>
    6351:	83 7d f8 1f          	cmpl   $0x1f,-0x8(%rbp)
    6355:	7f 0f                	jg     6366 <safe_rshift_func_int8_t_s_s+0x31>
    6357:	0f be 55 fc          	movsbl -0x4(%rbp),%edx
    635b:	8b 45 f8             	mov    -0x8(%rbp),%eax
    635e:	89 c1                	mov    %eax,%ecx
    6360:	d3 fa                	sar    %cl,%edx
    6362:	89 d0                	mov    %edx,%eax
    6364:	eb 04                	jmp    636a <safe_rshift_func_int8_t_s_s+0x35>
    6366:	0f b6 45 fc          	movzbl -0x4(%rbp),%eax
    636a:	5d                   	pop    %rbp
    636b:	c3                   	retq   

000000000000636c <safe_rshift_func_int8_t_s_u>:
    636c:	f3 0f 1e fa          	endbr64 
    6370:	55                   	push   %rbp
    6371:	48 89 e5             	mov    %rsp,%rbp
    6374:	89 f8                	mov    %edi,%eax
    6376:	89 75 f8             	mov    %esi,-0x8(%rbp)
    6379:	88 45 fc             	mov    %al,-0x4(%rbp)
    637c:	80 7d fc 00          	cmpb   $0x0,-0x4(%rbp)
    6380:	78 15                	js     6397 <safe_rshift_func_int8_t_s_u+0x2b>
    6382:	83 7d f8 1f          	cmpl   $0x1f,-0x8(%rbp)
    6386:	77 0f                	ja     6397 <safe_rshift_func_int8_t_s_u+0x2b>
    6388:	0f be 55 fc          	movsbl -0x4(%rbp),%edx
    638c:	8b 45 f8             	mov    -0x8(%rbp),%eax
    638f:	89 c1                	mov    %eax,%ecx
    6391:	d3 fa                	sar    %cl,%edx
    6393:	89 d0                	mov    %edx,%eax
    6395:	eb 04                	jmp    639b <safe_rshift_func_int8_t_s_u+0x2f>
    6397:	0f b6 45 fc          	movzbl -0x4(%rbp),%eax
    639b:	5d                   	pop    %rbp
    639c:	c3                   	retq   

000000000000639d <safe_unary_minus_func_int16_t_s>:
    639d:	f3 0f 1e fa          	endbr64 
    63a1:	55                   	push   %rbp
    63a2:	48 89 e5             	mov    %rsp,%rbp
    63a5:	89 f8                	mov    %edi,%eax
    63a7:	66 89 45 fc          	mov    %ax,-0x4(%rbp)
    63ab:	0f b7 45 fc          	movzwl -0x4(%rbp),%eax
    63af:	f7 d8                	neg    %eax
    63b1:	5d                   	pop    %rbp
    63b2:	c3                   	retq   

00000000000063b3 <safe_add_func_int16_t_s_s>:
    63b3:	f3 0f 1e fa          	endbr64 
    63b7:	55                   	push   %rbp
    63b8:	48 89 e5             	mov    %rsp,%rbp
    63bb:	89 fa                	mov    %edi,%edx
    63bd:	89 f0                	mov    %esi,%eax
    63bf:	66 89 55 fc          	mov    %dx,-0x4(%rbp)
    63c3:	66 89 45 f8          	mov    %ax,-0x8(%rbp)
    63c7:	0f b7 55 fc          	movzwl -0x4(%rbp),%edx
    63cb:	0f b7 45 f8          	movzwl -0x8(%rbp),%eax
    63cf:	01 d0                	add    %edx,%eax
    63d1:	5d                   	pop    %rbp
    63d2:	c3                   	retq   

00000000000063d3 <safe_sub_func_int16_t_s_s>:
    63d3:	f3 0f 1e fa          	endbr64 
    63d7:	55                   	push   %rbp
    63d8:	48 89 e5             	mov    %rsp,%rbp
    63db:	89 fa                	mov    %edi,%edx
    63dd:	89 f0                	mov    %esi,%eax
    63df:	66 89 55 fc          	mov    %dx,-0x4(%rbp)
    63e3:	66 89 45 f8          	mov    %ax,-0x8(%rbp)
    63e7:	0f b7 55 fc          	movzwl -0x4(%rbp),%edx
    63eb:	0f b7 45 f8          	movzwl -0x8(%rbp),%eax
    63ef:	29 c2                	sub    %eax,%edx
    63f1:	89 d0                	mov    %edx,%eax
    63f3:	5d                   	pop    %rbp
    63f4:	c3                   	retq   

00000000000063f5 <safe_mul_func_int16_t_s_s>:
    63f5:	f3 0f 1e fa          	endbr64 
    63f9:	55                   	push   %rbp
    63fa:	48 89 e5             	mov    %rsp,%rbp
    63fd:	89 fa                	mov    %edi,%edx
    63ff:	89 f0                	mov    %esi,%eax
    6401:	66 89 55 fc          	mov    %dx,-0x4(%rbp)
    6405:	66 89 45 f8          	mov    %ax,-0x8(%rbp)
    6409:	0f b7 55 fc          	movzwl -0x4(%rbp),%edx
    640d:	0f b7 45 f8          	movzwl -0x8(%rbp),%eax
    6411:	0f af c2             	imul   %edx,%eax
    6414:	5d                   	pop    %rbp
    6415:	c3                   	retq   

0000000000006416 <safe_mod_func_int16_t_s_s>:
    6416:	f3 0f 1e fa          	endbr64 
    641a:	55                   	push   %rbp
    641b:	48 89 e5             	mov    %rsp,%rbp
    641e:	89 fa                	mov    %edi,%edx
    6420:	89 f0                	mov    %esi,%eax
    6422:	66 89 55 fc          	mov    %dx,-0x4(%rbp)
    6426:	66 89 45 f8          	mov    %ax,-0x8(%rbp)
    642a:	66 83 7d f8 00       	cmpw   $0x0,-0x8(%rbp)
    642f:	74 1e                	je     644f <safe_mod_func_int16_t_s_s+0x39>
    6431:	66 81 7d fc 00 80    	cmpw   $0x8000,-0x4(%rbp)
    6437:	75 07                	jne    6440 <safe_mod_func_int16_t_s_s+0x2a>
    6439:	66 83 7d f8 ff       	cmpw   $0xffff,-0x8(%rbp)
    643e:	74 0f                	je     644f <safe_mod_func_int16_t_s_s+0x39>
    6440:	0f bf 45 fc          	movswl -0x4(%rbp),%eax
    6444:	0f bf 4d f8          	movswl -0x8(%rbp),%ecx
    6448:	99                   	cltd   
    6449:	f7 f9                	idiv   %ecx
    644b:	89 d0                	mov    %edx,%eax
    644d:	eb 04                	jmp    6453 <safe_mod_func_int16_t_s_s+0x3d>
    644f:	0f b7 45 fc          	movzwl -0x4(%rbp),%eax
    6453:	5d                   	pop    %rbp
    6454:	c3                   	retq   

0000000000006455 <safe_div_func_int16_t_s_s>:
    6455:	f3 0f 1e fa          	endbr64 
    6459:	55                   	push   %rbp
    645a:	48 89 e5             	mov    %rsp,%rbp
    645d:	89 fa                	mov    %edi,%edx
    645f:	89 f0                	mov    %esi,%eax
    6461:	66 89 55 fc          	mov    %dx,-0x4(%rbp)
    6465:	66 89 45 f8          	mov    %ax,-0x8(%rbp)
    6469:	66 83 7d f8 00       	cmpw   $0x0,-0x8(%rbp)
    646e:	74 1c                	je     648c <safe_div_func_int16_t_s_s+0x37>
    6470:	66 81 7d fc 00 80    	cmpw   $0x8000,-0x4(%rbp)
    6476:	75 07                	jne    647f <safe_div_func_int16_t_s_s+0x2a>
    6478:	66 83 7d f8 ff       	cmpw   $0xffff,-0x8(%rbp)
    647d:	74 0d                	je     648c <safe_div_func_int16_t_s_s+0x37>
    647f:	0f bf 45 fc          	movswl -0x4(%rbp),%eax
    6483:	0f bf 4d f8          	movswl -0x8(%rbp),%ecx
    6487:	99                   	cltd   
    6488:	f7 f9                	idiv   %ecx
    648a:	eb 04                	jmp    6490 <safe_div_func_int16_t_s_s+0x3b>
    648c:	0f b7 45 fc          	movzwl -0x4(%rbp),%eax
    6490:	5d                   	pop    %rbp
    6491:	c3                   	retq   

0000000000006492 <safe_lshift_func_int16_t_s_s>:
    6492:	f3 0f 1e fa          	endbr64 
    6496:	55                   	push   %rbp
    6497:	48 89 e5             	mov    %rsp,%rbp
    649a:	89 f8                	mov    %edi,%eax
    649c:	89 75 f8             	mov    %esi,-0x8(%rbp)
    649f:	66 89 45 fc          	mov    %ax,-0x4(%rbp)
    64a3:	66 83 7d fc 00       	cmpw   $0x0,-0x4(%rbp)
    64a8:	78 31                	js     64db <safe_lshift_func_int16_t_s_s+0x49>
    64aa:	83 7d f8 00          	cmpl   $0x0,-0x8(%rbp)
    64ae:	78 2b                	js     64db <safe_lshift_func_int16_t_s_s+0x49>
    64b0:	83 7d f8 1f          	cmpl   $0x1f,-0x8(%rbp)
    64b4:	7f 25                	jg     64db <safe_lshift_func_int16_t_s_s+0x49>
    64b6:	0f bf 55 fc          	movswl -0x4(%rbp),%edx
    64ba:	8b 45 f8             	mov    -0x8(%rbp),%eax
    64bd:	be ff 7f 00 00       	mov    $0x7fff,%esi
    64c2:	89 c1                	mov    %eax,%ecx
    64c4:	d3 fe                	sar    %cl,%esi
    64c6:	89 f0                	mov    %esi,%eax
    64c8:	39 c2                	cmp    %eax,%edx
    64ca:	7f 0f                	jg     64db <safe_lshift_func_int16_t_s_s+0x49>
    64cc:	0f bf 55 fc          	movswl -0x4(%rbp),%edx
    64d0:	8b 45 f8             	mov    -0x8(%rbp),%eax
    64d3:	89 c1                	mov    %eax,%ecx
    64d5:	d3 e2                	shl    %cl,%edx
    64d7:	89 d0                	mov    %edx,%eax
    64d9:	eb 04                	jmp    64df <safe_lshift_func_int16_t_s_s+0x4d>
    64db:	0f b7 45 fc          	movzwl -0x4(%rbp),%eax
    64df:	5d                   	pop    %rbp
    64e0:	c3                   	retq   

00000000000064e1 <safe_lshift_func_int16_t_s_u>:
    64e1:	f3 0f 1e fa          	endbr64 
    64e5:	55                   	push   %rbp
    64e6:	48 89 e5             	mov    %rsp,%rbp
    64e9:	89 f8                	mov    %edi,%eax
    64eb:	89 75 f8             	mov    %esi,-0x8(%rbp)
    64ee:	66 89 45 fc          	mov    %ax,-0x4(%rbp)
    64f2:	66 83 7d fc 00       	cmpw   $0x0,-0x4(%rbp)
    64f7:	78 2b                	js     6524 <safe_lshift_func_int16_t_s_u+0x43>
    64f9:	83 7d f8 1f          	cmpl   $0x1f,-0x8(%rbp)
    64fd:	77 25                	ja     6524 <safe_lshift_func_int16_t_s_u+0x43>
    64ff:	0f bf 55 fc          	movswl -0x4(%rbp),%edx
    6503:	8b 45 f8             	mov    -0x8(%rbp),%eax
    6506:	be ff 7f 00 00       	mov    $0x7fff,%esi
    650b:	89 c1                	mov    %eax,%ecx
    650d:	d3 fe                	sar    %cl,%esi
    650f:	89 f0                	mov    %esi,%eax
    6511:	39 c2                	cmp    %eax,%edx
    6513:	7f 0f                	jg     6524 <safe_lshift_func_int16_t_s_u+0x43>
    6515:	0f bf 55 fc          	movswl -0x4(%rbp),%edx
    6519:	8b 45 f8             	mov    -0x8(%rbp),%eax
    651c:	89 c1                	mov    %eax,%ecx
    651e:	d3 e2                	shl    %cl,%edx
    6520:	89 d0                	mov    %edx,%eax
    6522:	eb 04                	jmp    6528 <safe_lshift_func_int16_t_s_u+0x47>
    6524:	0f b7 45 fc          	movzwl -0x4(%rbp),%eax
    6528:	5d                   	pop    %rbp
    6529:	c3                   	retq   

000000000000652a <safe_rshift_func_int16_t_s_s>:
    652a:	f3 0f 1e fa          	endbr64 
    652e:	55                   	push   %rbp
    652f:	48 89 e5             	mov    %rsp,%rbp
    6532:	89 f8                	mov    %edi,%eax
    6534:	89 75 f8             	mov    %esi,-0x8(%rbp)
    6537:	66 89 45 fc          	mov    %ax,-0x4(%rbp)
    653b:	66 83 7d fc 00       	cmpw   $0x0,-0x4(%rbp)
    6540:	78 1b                	js     655d <safe_rshift_func_int16_t_s_s+0x33>
    6542:	83 7d f8 00          	cmpl   $0x0,-0x8(%rbp)
    6546:	78 15                	js     655d <safe_rshift_func_int16_t_s_s+0x33>
    6548:	83 7d f8 1f          	cmpl   $0x1f,-0x8(%rbp)
    654c:	7f 0f                	jg     655d <safe_rshift_func_int16_t_s_s+0x33>
    654e:	0f bf 55 fc          	movswl -0x4(%rbp),%edx
    6552:	8b 45 f8             	mov    -0x8(%rbp),%eax
    6555:	89 c1                	mov    %eax,%ecx
    6557:	d3 fa                	sar    %cl,%edx
    6559:	89 d0                	mov    %edx,%eax
    655b:	eb 04                	jmp    6561 <safe_rshift_func_int16_t_s_s+0x37>
    655d:	0f b7 45 fc          	movzwl -0x4(%rbp),%eax
    6561:	5d                   	pop    %rbp
    6562:	c3                   	retq   

0000000000006563 <safe_rshift_func_int16_t_s_u>:
    6563:	f3 0f 1e fa          	endbr64 
    6567:	55                   	push   %rbp
    6568:	48 89 e5             	mov    %rsp,%rbp
    656b:	89 f8                	mov    %edi,%eax
    656d:	89 75 f8             	mov    %esi,-0x8(%rbp)
    6570:	66 89 45 fc          	mov    %ax,-0x4(%rbp)
    6574:	66 83 7d fc 00       	cmpw   $0x0,-0x4(%rbp)
    6579:	78 15                	js     6590 <safe_rshift_func_int16_t_s_u+0x2d>
    657b:	83 7d f8 1f          	cmpl   $0x1f,-0x8(%rbp)
    657f:	77 0f                	ja     6590 <safe_rshift_func_int16_t_s_u+0x2d>
    6581:	0f bf 55 fc          	movswl -0x4(%rbp),%edx
    6585:	8b 45 f8             	mov    -0x8(%rbp),%eax
    6588:	89 c1                	mov    %eax,%ecx
    658a:	d3 fa                	sar    %cl,%edx
    658c:	89 d0                	mov    %edx,%eax
    658e:	eb 04                	jmp    6594 <safe_rshift_func_int16_t_s_u+0x31>
    6590:	0f b7 45 fc          	movzwl -0x4(%rbp),%eax
    6594:	5d                   	pop    %rbp
    6595:	c3                   	retq   

0000000000006596 <safe_unary_minus_func_int32_t_s>:
    6596:	f3 0f 1e fa          	endbr64 
    659a:	55                   	push   %rbp
    659b:	48 89 e5             	mov    %rsp,%rbp
    659e:	89 7d fc             	mov    %edi,-0x4(%rbp)
    65a1:	81 7d fc 00 00 00 80 	cmpl   $0x80000000,-0x4(%rbp)
    65a8:	74 07                	je     65b1 <safe_unary_minus_func_int32_t_s+0x1b>
    65aa:	8b 45 fc             	mov    -0x4(%rbp),%eax
    65ad:	f7 d8                	neg    %eax
    65af:	eb 03                	jmp    65b4 <safe_unary_minus_func_int32_t_s+0x1e>
    65b1:	8b 45 fc             	mov    -0x4(%rbp),%eax
    65b4:	5d                   	pop    %rbp
    65b5:	c3                   	retq   

00000000000065b6 <safe_add_func_int32_t_s_s>:
    65b6:	f3 0f 1e fa          	endbr64 
    65ba:	55                   	push   %rbp
    65bb:	48 89 e5             	mov    %rsp,%rbp
    65be:	89 7d fc             	mov    %edi,-0x4(%rbp)
    65c1:	89 75 f8             	mov    %esi,-0x8(%rbp)
    65c4:	83 7d fc 00          	cmpl   $0x0,-0x4(%rbp)
    65c8:	7e 13                	jle    65dd <safe_add_func_int32_t_s_s+0x27>
    65ca:	83 7d f8 00          	cmpl   $0x0,-0x8(%rbp)
    65ce:	7e 0d                	jle    65dd <safe_add_func_int32_t_s_s+0x27>
    65d0:	b8 ff ff ff 7f       	mov    $0x7fffffff,%eax
    65d5:	2b 45 f8             	sub    -0x8(%rbp),%eax
    65d8:	39 45 fc             	cmp    %eax,-0x4(%rbp)
    65db:	7f 23                	jg     6600 <safe_add_func_int32_t_s_s+0x4a>
    65dd:	83 7d fc 00          	cmpl   $0x0,-0x4(%rbp)
    65e1:	79 13                	jns    65f6 <safe_add_func_int32_t_s_s+0x40>
    65e3:	83 7d f8 00          	cmpl   $0x0,-0x8(%rbp)
    65e7:	79 0d                	jns    65f6 <safe_add_func_int32_t_s_s+0x40>
    65e9:	b8 00 00 00 80       	mov    $0x80000000,%eax
    65ee:	2b 45 f8             	sub    -0x8(%rbp),%eax
    65f1:	39 45 fc             	cmp    %eax,-0x4(%rbp)
    65f4:	7c 0a                	jl     6600 <safe_add_func_int32_t_s_s+0x4a>
    65f6:	8b 55 fc             	mov    -0x4(%rbp),%edx
    65f9:	8b 45 f8             	mov    -0x8(%rbp),%eax
    65fc:	01 d0                	add    %edx,%eax
    65fe:	eb 03                	jmp    6603 <safe_add_func_int32_t_s_s+0x4d>
    6600:	8b 45 fc             	mov    -0x4(%rbp),%eax
    6603:	5d                   	pop    %rbp
    6604:	c3                   	retq   

0000000000006605 <safe_sub_func_int32_t_s_s>:
    6605:	f3 0f 1e fa          	endbr64 
    6609:	55                   	push   %rbp
    660a:	48 89 e5             	mov    %rsp,%rbp
    660d:	89 7d fc             	mov    %edi,-0x4(%rbp)
    6610:	89 75 f8             	mov    %esi,-0x8(%rbp)
    6613:	8b 45 fc             	mov    -0x4(%rbp),%eax
    6616:	33 45 f8             	xor    -0x8(%rbp),%eax
    6619:	89 c2                	mov    %eax,%edx
    661b:	8b 45 fc             	mov    -0x4(%rbp),%eax
    661e:	33 45 f8             	xor    -0x8(%rbp),%eax
    6621:	25 00 00 00 80       	and    $0x80000000,%eax
    6626:	33 45 fc             	xor    -0x4(%rbp),%eax
    6629:	2b 45 f8             	sub    -0x8(%rbp),%eax
    662c:	33 45 f8             	xor    -0x8(%rbp),%eax
    662f:	21 d0                	and    %edx,%eax
    6631:	85 c0                	test   %eax,%eax
    6633:	78 08                	js     663d <safe_sub_func_int32_t_s_s+0x38>
    6635:	8b 45 fc             	mov    -0x4(%rbp),%eax
    6638:	2b 45 f8             	sub    -0x8(%rbp),%eax
    663b:	eb 03                	jmp    6640 <safe_sub_func_int32_t_s_s+0x3b>
    663d:	8b 45 fc             	mov    -0x4(%rbp),%eax
    6640:	5d                   	pop    %rbp
    6641:	c3                   	retq   

0000000000006642 <safe_mul_func_int32_t_s_s>:
    6642:	f3 0f 1e fa          	endbr64 
    6646:	55                   	push   %rbp
    6647:	48 89 e5             	mov    %rsp,%rbp
    664a:	89 7d fc             	mov    %edi,-0x4(%rbp)
    664d:	89 75 f8             	mov    %esi,-0x8(%rbp)
    6650:	83 7d fc 00          	cmpl   $0x0,-0x4(%rbp)
    6654:	7e 14                	jle    666a <safe_mul_func_int32_t_s_s+0x28>
    6656:	83 7d f8 00          	cmpl   $0x0,-0x8(%rbp)
    665a:	7e 0e                	jle    666a <safe_mul_func_int32_t_s_s+0x28>
    665c:	b8 ff ff ff 7f       	mov    $0x7fffffff,%eax
    6661:	99                   	cltd   
    6662:	f7 7d f8             	idivl  -0x8(%rbp)
    6665:	39 45 fc             	cmp    %eax,-0x4(%rbp)
    6668:	7f 5d                	jg     66c7 <safe_mul_func_int32_t_s_s+0x85>
    666a:	83 7d fc 00          	cmpl   $0x0,-0x4(%rbp)
    666e:	7e 14                	jle    6684 <safe_mul_func_int32_t_s_s+0x42>
    6670:	83 7d f8 00          	cmpl   $0x0,-0x8(%rbp)
    6674:	7f 0e                	jg     6684 <safe_mul_func_int32_t_s_s+0x42>
    6676:	b8 00 00 00 80       	mov    $0x80000000,%eax
    667b:	99                   	cltd   
    667c:	f7 7d fc             	idivl  -0x4(%rbp)
    667f:	39 45 f8             	cmp    %eax,-0x8(%rbp)
    6682:	7c 43                	jl     66c7 <safe_mul_func_int32_t_s_s+0x85>
    6684:	83 7d fc 00          	cmpl   $0x0,-0x4(%rbp)
    6688:	7f 14                	jg     669e <safe_mul_func_int32_t_s_s+0x5c>
    668a:	83 7d f8 00          	cmpl   $0x0,-0x8(%rbp)
    668e:	7e 0e                	jle    669e <safe_mul_func_int32_t_s_s+0x5c>
    6690:	b8 00 00 00 80       	mov    $0x80000000,%eax
    6695:	99                   	cltd   
    6696:	f7 7d f8             	idivl  -0x8(%rbp)
    6699:	39 45 fc             	cmp    %eax,-0x4(%rbp)
    669c:	7c 29                	jl     66c7 <safe_mul_func_int32_t_s_s+0x85>
    669e:	83 7d fc 00          	cmpl   $0x0,-0x4(%rbp)
    66a2:	7f 1a                	jg     66be <safe_mul_func_int32_t_s_s+0x7c>
    66a4:	83 7d f8 00          	cmpl   $0x0,-0x8(%rbp)
    66a8:	7f 14                	jg     66be <safe_mul_func_int32_t_s_s+0x7c>
    66aa:	83 7d fc 00          	cmpl   $0x0,-0x4(%rbp)
    66ae:	74 0e                	je     66be <safe_mul_func_int32_t_s_s+0x7c>
    66b0:	b8 ff ff ff 7f       	mov    $0x7fffffff,%eax
    66b5:	99                   	cltd   
    66b6:	f7 7d fc             	idivl  -0x4(%rbp)
    66b9:	39 45 f8             	cmp    %eax,-0x8(%rbp)
    66bc:	7c 09                	jl     66c7 <safe_mul_func_int32_t_s_s+0x85>
    66be:	8b 45 fc             	mov    -0x4(%rbp),%eax
    66c1:	0f af 45 f8          	imul   -0x8(%rbp),%eax
    66c5:	eb 03                	jmp    66ca <safe_mul_func_int32_t_s_s+0x88>
    66c7:	8b 45 fc             	mov    -0x4(%rbp),%eax
    66ca:	5d                   	pop    %rbp
    66cb:	c3                   	retq   

00000000000066cc <safe_mod_func_int32_t_s_s>:
    66cc:	f3 0f 1e fa          	endbr64 
    66d0:	55                   	push   %rbp
    66d1:	48 89 e5             	mov    %rsp,%rbp
    66d4:	89 7d fc             	mov    %edi,-0x4(%rbp)
    66d7:	89 75 f8             	mov    %esi,-0x8(%rbp)
    66da:	83 7d f8 00          	cmpl   $0x0,-0x8(%rbp)
    66de:	74 1a                	je     66fa <safe_mod_func_int32_t_s_s+0x2e>
    66e0:	81 7d fc 00 00 00 80 	cmpl   $0x80000000,-0x4(%rbp)
    66e7:	75 06                	jne    66ef <safe_mod_func_int32_t_s_s+0x23>
    66e9:	83 7d f8 ff          	cmpl   $0xffffffff,-0x8(%rbp)
    66ed:	74 0b                	je     66fa <safe_mod_func_int32_t_s_s+0x2e>
    66ef:	8b 45 fc             	mov    -0x4(%rbp),%eax
    66f2:	99                   	cltd   
    66f3:	f7 7d f8             	idivl  -0x8(%rbp)
    66f6:	89 d0                	mov    %edx,%eax
    66f8:	eb 03                	jmp    66fd <safe_mod_func_int32_t_s_s+0x31>
    66fa:	8b 45 fc             	mov    -0x4(%rbp),%eax
    66fd:	5d                   	pop    %rbp
    66fe:	c3                   	retq   

00000000000066ff <safe_div_func_int32_t_s_s>:
    66ff:	f3 0f 1e fa          	endbr64 
    6703:	55                   	push   %rbp
    6704:	48 89 e5             	mov    %rsp,%rbp
    6707:	89 7d fc             	mov    %edi,-0x4(%rbp)
    670a:	89 75 f8             	mov    %esi,-0x8(%rbp)
    670d:	83 7d f8 00          	cmpl   $0x0,-0x8(%rbp)
    6711:	74 18                	je     672b <safe_div_func_int32_t_s_s+0x2c>
    6713:	81 7d fc 00 00 00 80 	cmpl   $0x80000000,-0x4(%rbp)
    671a:	75 06                	jne    6722 <safe_div_func_int32_t_s_s+0x23>
    671c:	83 7d f8 ff          	cmpl   $0xffffffff,-0x8(%rbp)
    6720:	74 09                	je     672b <safe_div_func_int32_t_s_s+0x2c>
    6722:	8b 45 fc             	mov    -0x4(%rbp),%eax
    6725:	99                   	cltd   
    6726:	f7 7d f8             	idivl  -0x8(%rbp)
    6729:	eb 03                	jmp    672e <safe_div_func_int32_t_s_s+0x2f>
    672b:	8b 45 fc             	mov    -0x4(%rbp),%eax
    672e:	5d                   	pop    %rbp
    672f:	c3                   	retq   

0000000000006730 <safe_lshift_func_int32_t_s_s>:
    6730:	f3 0f 1e fa          	endbr64 
    6734:	55                   	push   %rbp
    6735:	48 89 e5             	mov    %rsp,%rbp
    6738:	89 7d fc             	mov    %edi,-0x4(%rbp)
    673b:	89 75 f8             	mov    %esi,-0x8(%rbp)
    673e:	83 7d fc 00          	cmpl   $0x0,-0x4(%rbp)
    6742:	78 2d                	js     6771 <safe_lshift_func_int32_t_s_s+0x41>
    6744:	83 7d f8 00          	cmpl   $0x0,-0x8(%rbp)
    6748:	78 27                	js     6771 <safe_lshift_func_int32_t_s_s+0x41>
    674a:	83 7d f8 1f          	cmpl   $0x1f,-0x8(%rbp)
    674e:	7f 21                	jg     6771 <safe_lshift_func_int32_t_s_s+0x41>
    6750:	8b 45 f8             	mov    -0x8(%rbp),%eax
    6753:	ba ff ff ff 7f       	mov    $0x7fffffff,%edx
    6758:	89 c1                	mov    %eax,%ecx
    675a:	d3 fa                	sar    %cl,%edx
    675c:	89 d0                	mov    %edx,%eax
    675e:	39 45 fc             	cmp    %eax,-0x4(%rbp)
    6761:	7f 0e                	jg     6771 <safe_lshift_func_int32_t_s_s+0x41>
    6763:	8b 45 f8             	mov    -0x8(%rbp),%eax
    6766:	8b 55 fc             	mov    -0x4(%rbp),%edx
    6769:	89 c1                	mov    %eax,%ecx
    676b:	d3 e2                	shl    %cl,%edx
    676d:	89 d0                	mov    %edx,%eax
    676f:	eb 03                	jmp    6774 <safe_lshift_func_int32_t_s_s+0x44>
    6771:	8b 45 fc             	mov    -0x4(%rbp),%eax
    6774:	5d                   	pop    %rbp
    6775:	c3                   	retq   

0000000000006776 <safe_lshift_func_int32_t_s_u>:
    6776:	f3 0f 1e fa          	endbr64 
    677a:	55                   	push   %rbp
    677b:	48 89 e5             	mov    %rsp,%rbp
    677e:	89 7d fc             	mov    %edi,-0x4(%rbp)
    6781:	89 75 f8             	mov    %esi,-0x8(%rbp)
    6784:	83 7d fc 00          	cmpl   $0x0,-0x4(%rbp)
    6788:	78 27                	js     67b1 <safe_lshift_func_int32_t_s_u+0x3b>
    678a:	83 7d f8 1f          	cmpl   $0x1f,-0x8(%rbp)
    678e:	77 21                	ja     67b1 <safe_lshift_func_int32_t_s_u+0x3b>
    6790:	8b 45 f8             	mov    -0x8(%rbp),%eax
    6793:	ba ff ff ff 7f       	mov    $0x7fffffff,%edx
    6798:	89 c1                	mov    %eax,%ecx
    679a:	d3 fa                	sar    %cl,%edx
    679c:	89 d0                	mov    %edx,%eax
    679e:	39 45 fc             	cmp    %eax,-0x4(%rbp)
    67a1:	7f 0e                	jg     67b1 <safe_lshift_func_int32_t_s_u+0x3b>
    67a3:	8b 45 f8             	mov    -0x8(%rbp),%eax
    67a6:	8b 55 fc             	mov    -0x4(%rbp),%edx
    67a9:	89 c1                	mov    %eax,%ecx
    67ab:	d3 e2                	shl    %cl,%edx
    67ad:	89 d0                	mov    %edx,%eax
    67af:	eb 03                	jmp    67b4 <safe_lshift_func_int32_t_s_u+0x3e>
    67b1:	8b 45 fc             	mov    -0x4(%rbp),%eax
    67b4:	5d                   	pop    %rbp
    67b5:	c3                   	retq   

00000000000067b6 <safe_rshift_func_int32_t_s_s>:
    67b6:	f3 0f 1e fa          	endbr64 
    67ba:	55                   	push   %rbp
    67bb:	48 89 e5             	mov    %rsp,%rbp
    67be:	89 7d fc             	mov    %edi,-0x4(%rbp)
    67c1:	89 75 f8             	mov    %esi,-0x8(%rbp)
    67c4:	83 7d fc 00          	cmpl   $0x0,-0x4(%rbp)
    67c8:	78 1a                	js     67e4 <safe_rshift_func_int32_t_s_s+0x2e>
    67ca:	83 7d f8 00          	cmpl   $0x0,-0x8(%rbp)
    67ce:	78 14                	js     67e4 <safe_rshift_func_int32_t_s_s+0x2e>
    67d0:	83 7d f8 1f          	cmpl   $0x1f,-0x8(%rbp)
    67d4:	7f 0e                	jg     67e4 <safe_rshift_func_int32_t_s_s+0x2e>
    67d6:	8b 45 f8             	mov    -0x8(%rbp),%eax
    67d9:	8b 55 fc             	mov    -0x4(%rbp),%edx
    67dc:	89 c1                	mov    %eax,%ecx
    67de:	d3 fa                	sar    %cl,%edx
    67e0:	89 d0                	mov    %edx,%eax
    67e2:	eb 03                	jmp    67e7 <safe_rshift_func_int32_t_s_s+0x31>
    67e4:	8b 45 fc             	mov    -0x4(%rbp),%eax
    67e7:	5d                   	pop    %rbp
    67e8:	c3                   	retq   

00000000000067e9 <safe_rshift_func_int32_t_s_u>:
    67e9:	f3 0f 1e fa          	endbr64 
    67ed:	55                   	push   %rbp
    67ee:	48 89 e5             	mov    %rsp,%rbp
    67f1:	89 7d fc             	mov    %edi,-0x4(%rbp)
    67f4:	89 75 f8             	mov    %esi,-0x8(%rbp)
    67f7:	83 7d fc 00          	cmpl   $0x0,-0x4(%rbp)
    67fb:	78 14                	js     6811 <safe_rshift_func_int32_t_s_u+0x28>
    67fd:	83 7d f8 1f          	cmpl   $0x1f,-0x8(%rbp)
    6801:	77 0e                	ja     6811 <safe_rshift_func_int32_t_s_u+0x28>
    6803:	8b 45 f8             	mov    -0x8(%rbp),%eax
    6806:	8b 55 fc             	mov    -0x4(%rbp),%edx
    6809:	89 c1                	mov    %eax,%ecx
    680b:	d3 fa                	sar    %cl,%edx
    680d:	89 d0                	mov    %edx,%eax
    680f:	eb 03                	jmp    6814 <safe_rshift_func_int32_t_s_u+0x2b>
    6811:	8b 45 fc             	mov    -0x4(%rbp),%eax
    6814:	5d                   	pop    %rbp
    6815:	c3                   	retq   

0000000000006816 <safe_unary_minus_func_int64_t_s>:
    6816:	f3 0f 1e fa          	endbr64 
    681a:	55                   	push   %rbp
    681b:	48 89 e5             	mov    %rsp,%rbp
    681e:	48 89 7d f8          	mov    %rdi,-0x8(%rbp)
    6822:	48 b8 00 00 00 00 00 	movabs $0x8000000000000000,%rax
    6829:	00 00 80 
    682c:	48 39 45 f8          	cmp    %rax,-0x8(%rbp)
    6830:	74 09                	je     683b <safe_unary_minus_func_int64_t_s+0x25>
    6832:	48 8b 45 f8          	mov    -0x8(%rbp),%rax
    6836:	48 f7 d8             	neg    %rax
    6839:	eb 04                	jmp    683f <safe_unary_minus_func_int64_t_s+0x29>
    683b:	48 8b 45 f8          	mov    -0x8(%rbp),%rax
    683f:	5d                   	pop    %rbp
    6840:	c3                   	retq   

0000000000006841 <safe_add_func_int64_t_s_s>:
    6841:	f3 0f 1e fa          	endbr64 
    6845:	55                   	push   %rbp
    6846:	48 89 e5             	mov    %rsp,%rbp
    6849:	48 89 7d f8          	mov    %rdi,-0x8(%rbp)
    684d:	48 89 75 f0          	mov    %rsi,-0x10(%rbp)
    6851:	48 83 7d f8 00       	cmpq   $0x0,-0x8(%rbp)
    6856:	7e 1b                	jle    6873 <safe_add_func_int64_t_s_s+0x32>
    6858:	48 83 7d f0 00       	cmpq   $0x0,-0x10(%rbp)
    685d:	7e 14                	jle    6873 <safe_add_func_int64_t_s_s+0x32>
    685f:	48 b8 ff ff ff ff ff 	movabs $0x7fffffffffffffff,%rax
    6866:	ff ff 7f 
    6869:	48 2b 45 f0          	sub    -0x10(%rbp),%rax
    686d:	48 39 45 f8          	cmp    %rax,-0x8(%rbp)
    6871:	7f 2f                	jg     68a2 <safe_add_func_int64_t_s_s+0x61>
    6873:	48 83 7d f8 00       	cmpq   $0x0,-0x8(%rbp)
    6878:	79 1b                	jns    6895 <safe_add_func_int64_t_s_s+0x54>
    687a:	48 83 7d f0 00       	cmpq   $0x0,-0x10(%rbp)
    687f:	79 14                	jns    6895 <safe_add_func_int64_t_s_s+0x54>
    6881:	48 b8 00 00 00 00 00 	movabs $0x8000000000000000,%rax
    6888:	00 00 80 
    688b:	48 2b 45 f0          	sub    -0x10(%rbp),%rax
    688f:	48 39 45 f8          	cmp    %rax,-0x8(%rbp)
    6893:	7c 0d                	jl     68a2 <safe_add_func_int64_t_s_s+0x61>
    6895:	48 8b 55 f8          	mov    -0x8(%rbp),%rdx
    6899:	48 8b 45 f0          	mov    -0x10(%rbp),%rax
    689d:	48 01 d0             	add    %rdx,%rax
    68a0:	eb 04                	jmp    68a6 <safe_add_func_int64_t_s_s+0x65>
    68a2:	48 8b 45 f8          	mov    -0x8(%rbp),%rax
    68a6:	5d                   	pop    %rbp
    68a7:	c3                   	retq   

00000000000068a8 <safe_sub_func_int64_t_s_s>:
    68a8:	f3 0f 1e fa          	endbr64 
    68ac:	55                   	push   %rbp
    68ad:	48 89 e5             	mov    %rsp,%rbp
    68b0:	48 89 7d f8          	mov    %rdi,-0x8(%rbp)
    68b4:	48 89 75 f0          	mov    %rsi,-0x10(%rbp)
    68b8:	48 8b 45 f8          	mov    -0x8(%rbp),%rax
    68bc:	48 33 45 f0          	xor    -0x10(%rbp),%rax
    68c0:	48 89 c2             	mov    %rax,%rdx
    68c3:	48 8b 45 f8          	mov    -0x8(%rbp),%rax
    68c7:	48 33 45 f0          	xor    -0x10(%rbp),%rax
    68cb:	48 b9 00 00 00 00 00 	movabs $0x8000000000000000,%rcx
    68d2:	00 00 80 
    68d5:	48 21 c8             	and    %rcx,%rax
    68d8:	48 33 45 f8          	xor    -0x8(%rbp),%rax
    68dc:	48 2b 45 f0          	sub    -0x10(%rbp),%rax
    68e0:	48 33 45 f0          	xor    -0x10(%rbp),%rax
    68e4:	48 21 d0             	and    %rdx,%rax
    68e7:	48 85 c0             	test   %rax,%rax
    68ea:	78 0a                	js     68f6 <safe_sub_func_int64_t_s_s+0x4e>
    68ec:	48 8b 45 f8          	mov    -0x8(%rbp),%rax
    68f0:	48 2b 45 f0          	sub    -0x10(%rbp),%rax
    68f4:	eb 04                	jmp    68fa <safe_sub_func_int64_t_s_s+0x52>
    68f6:	48 8b 45 f8          	mov    -0x8(%rbp),%rax
    68fa:	5d                   	pop    %rbp
    68fb:	c3                   	retq   

00000000000068fc <safe_mul_func_int64_t_s_s>:
    68fc:	f3 0f 1e fa          	endbr64 
    6900:	55                   	push   %rbp
    6901:	48 89 e5             	mov    %rsp,%rbp
    6904:	48 89 7d f8          	mov    %rdi,-0x8(%rbp)
    6908:	48 89 75 f0          	mov    %rsi,-0x10(%rbp)
    690c:	48 83 7d f8 00       	cmpq   $0x0,-0x8(%rbp)
    6911:	7e 1d                	jle    6930 <safe_mul_func_int64_t_s_s+0x34>
    6913:	48 83 7d f0 00       	cmpq   $0x0,-0x10(%rbp)
    6918:	7e 16                	jle    6930 <safe_mul_func_int64_t_s_s+0x34>
    691a:	48 b8 ff ff ff ff ff 	movabs $0x7fffffffffffffff,%rax
    6921:	ff ff 7f 
    6924:	48 99                	cqto   
    6926:	48 f7 7d f0          	idivq  -0x10(%rbp)
    692a:	48 39 45 f8          	cmp    %rax,-0x8(%rbp)
    692e:	7f 7e                	jg     69ae <safe_mul_func_int64_t_s_s+0xb2>
    6930:	48 83 7d f8 00       	cmpq   $0x0,-0x8(%rbp)
    6935:	7e 1d                	jle    6954 <safe_mul_func_int64_t_s_s+0x58>
    6937:	48 83 7d f0 00       	cmpq   $0x0,-0x10(%rbp)
    693c:	7f 16                	jg     6954 <safe_mul_func_int64_t_s_s+0x58>
    693e:	48 b8 00 00 00 00 00 	movabs $0x8000000000000000,%rax
    6945:	00 00 80 
    6948:	48 99                	cqto   
    694a:	48 f7 7d f8          	idivq  -0x8(%rbp)
    694e:	48 39 45 f0          	cmp    %rax,-0x10(%rbp)
    6952:	7c 5a                	jl     69ae <safe_mul_func_int64_t_s_s+0xb2>
    6954:	48 83 7d f8 00       	cmpq   $0x0,-0x8(%rbp)
    6959:	7f 1d                	jg     6978 <safe_mul_func_int64_t_s_s+0x7c>
    695b:	48 83 7d f0 00       	cmpq   $0x0,-0x10(%rbp)
    6960:	7e 16                	jle    6978 <safe_mul_func_int64_t_s_s+0x7c>
    6962:	48 b8 00 00 00 00 00 	movabs $0x8000000000000000,%rax
    6969:	00 00 80 
    696c:	48 99                	cqto   
    696e:	48 f7 7d f0          	idivq  -0x10(%rbp)
    6972:	48 39 45 f8          	cmp    %rax,-0x8(%rbp)
    6976:	7c 36                	jl     69ae <safe_mul_func_int64_t_s_s+0xb2>
    6978:	48 83 7d f8 00       	cmpq   $0x0,-0x8(%rbp)
    697d:	7f 24                	jg     69a3 <safe_mul_func_int64_t_s_s+0xa7>
    697f:	48 83 7d f0 00       	cmpq   $0x0,-0x10(%rbp)
    6984:	7f 1d                	jg     69a3 <safe_mul_func_int64_t_s_s+0xa7>
    6986:	48 83 7d f8 00       	cmpq   $0x0,-0x8(%rbp)
    698b:	74 16                	je     69a3 <safe_mul_func_int64_t_s_s+0xa7>
    698d:	48 b8 ff ff ff ff ff 	movabs $0x7fffffffffffffff,%rax
    6994:	ff ff 7f 
    6997:	48 99                	cqto   
    6999:	48 f7 7d f8          	idivq  -0x8(%rbp)
    699d:	48 39 45 f0          	cmp    %rax,-0x10(%rbp)
    69a1:	7c 0b                	jl     69ae <safe_mul_func_int64_t_s_s+0xb2>
    69a3:	48 8b 45 f8          	mov    -0x8(%rbp),%rax
    69a7:	48 0f af 45 f0       	imul   -0x10(%rbp),%rax
    69ac:	eb 04                	jmp    69b2 <safe_mul_func_int64_t_s_s+0xb6>
    69ae:	48 8b 45 f8          	mov    -0x8(%rbp),%rax
    69b2:	5d                   	pop    %rbp
    69b3:	c3                   	retq   

00000000000069b4 <safe_mod_func_int64_t_s_s>:
    69b4:	f3 0f 1e fa          	endbr64 
    69b8:	55                   	push   %rbp
    69b9:	48 89 e5             	mov    %rsp,%rbp
    69bc:	48 89 7d f8          	mov    %rdi,-0x8(%rbp)
    69c0:	48 89 75 f0          	mov    %rsi,-0x10(%rbp)
    69c4:	48 83 7d f0 00       	cmpq   $0x0,-0x10(%rbp)
    69c9:	74 26                	je     69f1 <safe_mod_func_int64_t_s_s+0x3d>
    69cb:	48 b8 00 00 00 00 00 	movabs $0x8000000000000000,%rax
    69d2:	00 00 80 
    69d5:	48 39 45 f8          	cmp    %rax,-0x8(%rbp)
    69d9:	75 07                	jne    69e2 <safe_mod_func_int64_t_s_s+0x2e>
    69db:	48 83 7d f0 ff       	cmpq   $0xffffffffffffffff,-0x10(%rbp)
    69e0:	74 0f                	je     69f1 <safe_mod_func_int64_t_s_s+0x3d>
    69e2:	48 8b 45 f8          	mov    -0x8(%rbp),%rax
    69e6:	48 99                	cqto   
    69e8:	48 f7 7d f0          	idivq  -0x10(%rbp)
    69ec:	48 89 d0             	mov    %rdx,%rax
    69ef:	eb 04                	jmp    69f5 <safe_mod_func_int64_t_s_s+0x41>
    69f1:	48 8b 45 f8          	mov    -0x8(%rbp),%rax
    69f5:	5d                   	pop    %rbp
    69f6:	c3                   	retq   

00000000000069f7 <safe_div_func_int64_t_s_s>:
    69f7:	f3 0f 1e fa          	endbr64 
    69fb:	55                   	push   %rbp
    69fc:	48 89 e5             	mov    %rsp,%rbp
    69ff:	48 89 7d f8          	mov    %rdi,-0x8(%rbp)
    6a03:	48 89 75 f0          	mov    %rsi,-0x10(%rbp)
    6a07:	48 83 7d f0 00       	cmpq   $0x0,-0x10(%rbp)
    6a0c:	74 23                	je     6a31 <safe_div_func_int64_t_s_s+0x3a>
    6a0e:	48 b8 00 00 00 00 00 	movabs $0x8000000000000000,%rax
    6a15:	00 00 80 
    6a18:	48 39 45 f8          	cmp    %rax,-0x8(%rbp)
    6a1c:	75 07                	jne    6a25 <safe_div_func_int64_t_s_s+0x2e>
    6a1e:	48 83 7d f0 ff       	cmpq   $0xffffffffffffffff,-0x10(%rbp)
    6a23:	74 0c                	je     6a31 <safe_div_func_int64_t_s_s+0x3a>
    6a25:	48 8b 45 f8          	mov    -0x8(%rbp),%rax
    6a29:	48 99                	cqto   
    6a2b:	48 f7 7d f0          	idivq  -0x10(%rbp)
    6a2f:	eb 04                	jmp    6a35 <safe_div_func_int64_t_s_s+0x3e>
    6a31:	48 8b 45 f8          	mov    -0x8(%rbp),%rax
    6a35:	5d                   	pop    %rbp
    6a36:	c3                   	retq   

0000000000006a37 <safe_lshift_func_int64_t_s_s>:
    6a37:	f3 0f 1e fa          	endbr64 
    6a3b:	55                   	push   %rbp
    6a3c:	48 89 e5             	mov    %rsp,%rbp
    6a3f:	48 89 7d f8          	mov    %rdi,-0x8(%rbp)
    6a43:	89 75 f4             	mov    %esi,-0xc(%rbp)
    6a46:	48 83 7d f8 00       	cmpq   $0x0,-0x8(%rbp)
    6a4b:	78 38                	js     6a85 <safe_lshift_func_int64_t_s_s+0x4e>
    6a4d:	83 7d f4 00          	cmpl   $0x0,-0xc(%rbp)
    6a51:	78 32                	js     6a85 <safe_lshift_func_int64_t_s_s+0x4e>
    6a53:	83 7d f4 1f          	cmpl   $0x1f,-0xc(%rbp)
    6a57:	7f 2c                	jg     6a85 <safe_lshift_func_int64_t_s_s+0x4e>
    6a59:	8b 45 f4             	mov    -0xc(%rbp),%eax
    6a5c:	48 ba ff ff ff ff ff 	movabs $0x7fffffffffffffff,%rdx
    6a63:	ff ff 7f 
    6a66:	89 c1                	mov    %eax,%ecx
    6a68:	48 d3 fa             	sar    %cl,%rdx
    6a6b:	48 89 d0             	mov    %rdx,%rax
    6a6e:	48 39 45 f8          	cmp    %rax,-0x8(%rbp)
    6a72:	7f 11                	jg     6a85 <safe_lshift_func_int64_t_s_s+0x4e>
    6a74:	8b 45 f4             	mov    -0xc(%rbp),%eax
    6a77:	48 8b 55 f8          	mov    -0x8(%rbp),%rdx
    6a7b:	89 c1                	mov    %eax,%ecx
    6a7d:	48 d3 e2             	shl    %cl,%rdx
    6a80:	48 89 d0             	mov    %rdx,%rax
    6a83:	eb 04                	jmp    6a89 <safe_lshift_func_int64_t_s_s+0x52>
    6a85:	48 8b 45 f8          	mov    -0x8(%rbp),%rax
    6a89:	5d                   	pop    %rbp
    6a8a:	c3                   	retq   

0000000000006a8b <safe_lshift_func_int64_t_s_u>:
    6a8b:	f3 0f 1e fa          	endbr64 
    6a8f:	55                   	push   %rbp
    6a90:	48 89 e5             	mov    %rsp,%rbp
    6a93:	48 89 7d f8          	mov    %rdi,-0x8(%rbp)
    6a97:	89 75 f4             	mov    %esi,-0xc(%rbp)
    6a9a:	48 83 7d f8 00       	cmpq   $0x0,-0x8(%rbp)
    6a9f:	78 32                	js     6ad3 <safe_lshift_func_int64_t_s_u+0x48>
    6aa1:	83 7d f4 1f          	cmpl   $0x1f,-0xc(%rbp)
    6aa5:	77 2c                	ja     6ad3 <safe_lshift_func_int64_t_s_u+0x48>
    6aa7:	8b 45 f4             	mov    -0xc(%rbp),%eax
    6aaa:	48 ba ff ff ff ff ff 	movabs $0x7fffffffffffffff,%rdx
    6ab1:	ff ff 7f 
    6ab4:	89 c1                	mov    %eax,%ecx
    6ab6:	48 d3 fa             	sar    %cl,%rdx
    6ab9:	48 89 d0             	mov    %rdx,%rax
    6abc:	48 39 45 f8          	cmp    %rax,-0x8(%rbp)
    6ac0:	7f 11                	jg     6ad3 <safe_lshift_func_int64_t_s_u+0x48>
    6ac2:	8b 45 f4             	mov    -0xc(%rbp),%eax
    6ac5:	48 8b 55 f8          	mov    -0x8(%rbp),%rdx
    6ac9:	89 c1                	mov    %eax,%ecx
    6acb:	48 d3 e2             	shl    %cl,%rdx
    6ace:	48 89 d0             	mov    %rdx,%rax
    6ad1:	eb 04                	jmp    6ad7 <safe_lshift_func_int64_t_s_u+0x4c>
    6ad3:	48 8b 45 f8          	mov    -0x8(%rbp),%rax
    6ad7:	5d                   	pop    %rbp
    6ad8:	c3                   	retq   

0000000000006ad9 <safe_rshift_func_int64_t_s_s>:
    6ad9:	f3 0f 1e fa          	endbr64 
    6add:	55                   	push   %rbp
    6ade:	48 89 e5             	mov    %rsp,%rbp
    6ae1:	48 89 7d f8          	mov    %rdi,-0x8(%rbp)
    6ae5:	89 75 f4             	mov    %esi,-0xc(%rbp)
    6ae8:	48 83 7d f8 00       	cmpq   $0x0,-0x8(%rbp)
    6aed:	78 1d                	js     6b0c <safe_rshift_func_int64_t_s_s+0x33>
    6aef:	83 7d f4 00          	cmpl   $0x0,-0xc(%rbp)
    6af3:	78 17                	js     6b0c <safe_rshift_func_int64_t_s_s+0x33>
    6af5:	83 7d f4 1f          	cmpl   $0x1f,-0xc(%rbp)
    6af9:	7f 11                	jg     6b0c <safe_rshift_func_int64_t_s_s+0x33>
    6afb:	8b 45 f4             	mov    -0xc(%rbp),%eax
    6afe:	48 8b 55 f8          	mov    -0x8(%rbp),%rdx
    6b02:	89 c1                	mov    %eax,%ecx
    6b04:	48 d3 fa             	sar    %cl,%rdx
    6b07:	48 89 d0             	mov    %rdx,%rax
    6b0a:	eb 04                	jmp    6b10 <safe_rshift_func_int64_t_s_s+0x37>
    6b0c:	48 8b 45 f8          	mov    -0x8(%rbp),%rax
    6b10:	5d                   	pop    %rbp
    6b11:	c3                   	retq   

0000000000006b12 <safe_rshift_func_int64_t_s_u>:
    6b12:	f3 0f 1e fa          	endbr64 
    6b16:	55                   	push   %rbp
    6b17:	48 89 e5             	mov    %rsp,%rbp
    6b1a:	48 89 7d f8          	mov    %rdi,-0x8(%rbp)
    6b1e:	89 75 f4             	mov    %esi,-0xc(%rbp)
    6b21:	48 83 7d f8 00       	cmpq   $0x0,-0x8(%rbp)
    6b26:	78 17                	js     6b3f <safe_rshift_func_int64_t_s_u+0x2d>
    6b28:	83 7d f4 1f          	cmpl   $0x1f,-0xc(%rbp)
    6b2c:	77 11                	ja     6b3f <safe_rshift_func_int64_t_s_u+0x2d>
    6b2e:	8b 45 f4             	mov    -0xc(%rbp),%eax
    6b31:	48 8b 55 f8          	mov    -0x8(%rbp),%rdx
    6b35:	89 c1                	mov    %eax,%ecx
    6b37:	48 d3 fa             	sar    %cl,%rdx
    6b3a:	48 89 d0             	mov    %rdx,%rax
    6b3d:	eb 04                	jmp    6b43 <safe_rshift_func_int64_t_s_u+0x31>
    6b3f:	48 8b 45 f8          	mov    -0x8(%rbp),%rax
    6b43:	5d                   	pop    %rbp
    6b44:	c3                   	retq   

0000000000006b45 <safe_unary_minus_func_uint8_t_u>:
    6b45:	f3 0f 1e fa          	endbr64 
    6b49:	55                   	push   %rbp
    6b4a:	48 89 e5             	mov    %rsp,%rbp
    6b4d:	89 f8                	mov    %edi,%eax
    6b4f:	88 45 fc             	mov    %al,-0x4(%rbp)
    6b52:	0f b6 45 fc          	movzbl -0x4(%rbp),%eax
    6b56:	f7 d8                	neg    %eax
    6b58:	5d                   	pop    %rbp
    6b59:	c3                   	retq   

0000000000006b5a <safe_add_func_uint8_t_u_u>:
    6b5a:	f3 0f 1e fa          	endbr64 
    6b5e:	55                   	push   %rbp
    6b5f:	48 89 e5             	mov    %rsp,%rbp
    6b62:	89 fa                	mov    %edi,%edx
    6b64:	89 f0                	mov    %esi,%eax
    6b66:	88 55 fc             	mov    %dl,-0x4(%rbp)
    6b69:	88 45 f8             	mov    %al,-0x8(%rbp)
    6b6c:	0f b6 55 fc          	movzbl -0x4(%rbp),%edx
    6b70:	0f b6 45 f8          	movzbl -0x8(%rbp),%eax
    6b74:	01 d0                	add    %edx,%eax
    6b76:	5d                   	pop    %rbp
    6b77:	c3                   	retq   

0000000000006b78 <safe_sub_func_uint8_t_u_u>:
    6b78:	f3 0f 1e fa          	endbr64 
    6b7c:	55                   	push   %rbp
    6b7d:	48 89 e5             	mov    %rsp,%rbp
    6b80:	89 fa                	mov    %edi,%edx
    6b82:	89 f0                	mov    %esi,%eax
    6b84:	88 55 fc             	mov    %dl,-0x4(%rbp)
    6b87:	88 45 f8             	mov    %al,-0x8(%rbp)
    6b8a:	0f b6 45 fc          	movzbl -0x4(%rbp),%eax
    6b8e:	2a 45 f8             	sub    -0x8(%rbp),%al
    6b91:	5d                   	pop    %rbp
    6b92:	c3                   	retq   

0000000000006b93 <safe_mul_func_uint8_t_u_u>:
    6b93:	f3 0f 1e fa          	endbr64 
    6b97:	55                   	push   %rbp
    6b98:	48 89 e5             	mov    %rsp,%rbp
    6b9b:	89 fa                	mov    %edi,%edx
    6b9d:	89 f0                	mov    %esi,%eax
    6b9f:	88 55 fc             	mov    %dl,-0x4(%rbp)
    6ba2:	88 45 f8             	mov    %al,-0x8(%rbp)
    6ba5:	0f b6 45 fc          	movzbl -0x4(%rbp),%eax
    6ba9:	f6 65 f8             	mulb   -0x8(%rbp)
    6bac:	5d                   	pop    %rbp
    6bad:	c3                   	retq   

0000000000006bae <safe_mod_func_uint8_t_u_u>:
    6bae:	f3 0f 1e fa          	endbr64 
    6bb2:	55                   	push   %rbp
    6bb3:	48 89 e5             	mov    %rsp,%rbp
    6bb6:	89 fa                	mov    %edi,%edx
    6bb8:	89 f0                	mov    %esi,%eax
    6bba:	88 55 fc             	mov    %dl,-0x4(%rbp)
    6bbd:	88 45 f8             	mov    %al,-0x8(%rbp)
    6bc0:	80 7d f8 00          	cmpb   $0x0,-0x8(%rbp)
    6bc4:	74 0f                	je     6bd5 <safe_mod_func_uint8_t_u_u+0x27>
    6bc6:	0f b6 45 fc          	movzbl -0x4(%rbp),%eax
    6bca:	0f b6 c0             	movzbl %al,%eax
    6bcd:	f6 75 f8             	divb   -0x8(%rbp)
    6bd0:	0f b6 c4             	movzbl %ah,%eax
    6bd3:	eb 04                	jmp    6bd9 <safe_mod_func_uint8_t_u_u+0x2b>
    6bd5:	0f b6 45 fc          	movzbl -0x4(%rbp),%eax
    6bd9:	5d                   	pop    %rbp
    6bda:	c3                   	retq   

0000000000006bdb <safe_div_func_uint8_t_u_u>:
    6bdb:	f3 0f 1e fa          	endbr64 
    6bdf:	55                   	push   %rbp
    6be0:	48 89 e5             	mov    %rsp,%rbp
    6be3:	89 fa                	mov    %edi,%edx
    6be5:	89 f0                	mov    %esi,%eax
    6be7:	88 55 fc             	mov    %dl,-0x4(%rbp)
    6bea:	88 45 f8             	mov    %al,-0x8(%rbp)
    6bed:	80 7d f8 00          	cmpb   $0x0,-0x8(%rbp)
    6bf1:	74 0c                	je     6bff <safe_div_func_uint8_t_u_u+0x24>
    6bf3:	0f b6 45 fc          	movzbl -0x4(%rbp),%eax
    6bf7:	0f b6 c0             	movzbl %al,%eax
    6bfa:	f6 75 f8             	divb   -0x8(%rbp)
    6bfd:	eb 04                	jmp    6c03 <safe_div_func_uint8_t_u_u+0x28>
    6bff:	0f b6 45 fc          	movzbl -0x4(%rbp),%eax
    6c03:	5d                   	pop    %rbp
    6c04:	c3                   	retq   

0000000000006c05 <safe_lshift_func_uint8_t_u_s>:
    6c05:	f3 0f 1e fa          	endbr64 
    6c09:	55                   	push   %rbp
    6c0a:	48 89 e5             	mov    %rsp,%rbp
    6c0d:	89 f8                	mov    %edi,%eax
    6c0f:	89 75 f8             	mov    %esi,-0x8(%rbp)
    6c12:	88 45 fc             	mov    %al,-0x4(%rbp)
    6c15:	83 7d f8 00          	cmpl   $0x0,-0x8(%rbp)
    6c19:	78 2b                	js     6c46 <safe_lshift_func_uint8_t_u_s+0x41>
    6c1b:	83 7d f8 1f          	cmpl   $0x1f,-0x8(%rbp)
    6c1f:	7f 25                	jg     6c46 <safe_lshift_func_uint8_t_u_s+0x41>
    6c21:	0f b6 55 fc          	movzbl -0x4(%rbp),%edx
    6c25:	8b 45 f8             	mov    -0x8(%rbp),%eax
    6c28:	be ff 00 00 00       	mov    $0xff,%esi
    6c2d:	89 c1                	mov    %eax,%ecx
    6c2f:	d3 fe                	sar    %cl,%esi
    6c31:	89 f0                	mov    %esi,%eax
    6c33:	39 c2                	cmp    %eax,%edx
    6c35:	7f 0f                	jg     6c46 <safe_lshift_func_uint8_t_u_s+0x41>
    6c37:	0f b6 55 fc          	movzbl -0x4(%rbp),%edx
    6c3b:	8b 45 f8             	mov    -0x8(%rbp),%eax
    6c3e:	89 c1                	mov    %eax,%ecx
    6c40:	d3 e2                	shl    %cl,%edx
    6c42:	89 d0                	mov    %edx,%eax
    6c44:	eb 04                	jmp    6c4a <safe_lshift_func_uint8_t_u_s+0x45>
    6c46:	0f b6 45 fc          	movzbl -0x4(%rbp),%eax
    6c4a:	5d                   	pop    %rbp
    6c4b:	c3                   	retq   

0000000000006c4c <safe_lshift_func_uint8_t_u_u>:
    6c4c:	f3 0f 1e fa          	endbr64 
    6c50:	55                   	push   %rbp
    6c51:	48 89 e5             	mov    %rsp,%rbp
    6c54:	89 f8                	mov    %edi,%eax
    6c56:	89 75 f8             	mov    %esi,-0x8(%rbp)
    6c59:	88 45 fc             	mov    %al,-0x4(%rbp)
    6c5c:	83 7d f8 1f          	cmpl   $0x1f,-0x8(%rbp)
    6c60:	77 25                	ja     6c87 <safe_lshift_func_uint8_t_u_u+0x3b>
    6c62:	0f b6 55 fc          	movzbl -0x4(%rbp),%edx
    6c66:	8b 45 f8             	mov    -0x8(%rbp),%eax
    6c69:	be ff 00 00 00       	mov    $0xff,%esi
    6c6e:	89 c1                	mov    %eax,%ecx
    6c70:	d3 fe                	sar    %cl,%esi
    6c72:	89 f0                	mov    %esi,%eax
    6c74:	39 c2                	cmp    %eax,%edx
    6c76:	7f 0f                	jg     6c87 <safe_lshift_func_uint8_t_u_u+0x3b>
    6c78:	0f b6 55 fc          	movzbl -0x4(%rbp),%edx
    6c7c:	8b 45 f8             	mov    -0x8(%rbp),%eax
    6c7f:	89 c1                	mov    %eax,%ecx
    6c81:	d3 e2                	shl    %cl,%edx
    6c83:	89 d0                	mov    %edx,%eax
    6c85:	eb 04                	jmp    6c8b <safe_lshift_func_uint8_t_u_u+0x3f>
    6c87:	0f b6 45 fc          	movzbl -0x4(%rbp),%eax
    6c8b:	5d                   	pop    %rbp
    6c8c:	c3                   	retq   

0000000000006c8d <safe_rshift_func_uint8_t_u_s>:
    6c8d:	f3 0f 1e fa          	endbr64 
    6c91:	55                   	push   %rbp
    6c92:	48 89 e5             	mov    %rsp,%rbp
    6c95:	89 f8                	mov    %edi,%eax
    6c97:	89 75 f8             	mov    %esi,-0x8(%rbp)
    6c9a:	88 45 fc             	mov    %al,-0x4(%rbp)
    6c9d:	83 7d f8 00          	cmpl   $0x0,-0x8(%rbp)
    6ca1:	78 15                	js     6cb8 <safe_rshift_func_uint8_t_u_s+0x2b>
    6ca3:	83 7d f8 1f          	cmpl   $0x1f,-0x8(%rbp)
    6ca7:	7f 0f                	jg     6cb8 <safe_rshift_func_uint8_t_u_s+0x2b>
    6ca9:	0f b6 55 fc          	movzbl -0x4(%rbp),%edx
    6cad:	8b 45 f8             	mov    -0x8(%rbp),%eax
    6cb0:	89 c1                	mov    %eax,%ecx
    6cb2:	d3 fa                	sar    %cl,%edx
    6cb4:	89 d0                	mov    %edx,%eax
    6cb6:	eb 04                	jmp    6cbc <safe_rshift_func_uint8_t_u_s+0x2f>
    6cb8:	0f b6 45 fc          	movzbl -0x4(%rbp),%eax
    6cbc:	5d                   	pop    %rbp
    6cbd:	c3                   	retq   

0000000000006cbe <safe_rshift_func_uint8_t_u_u>:
    6cbe:	f3 0f 1e fa          	endbr64 
    6cc2:	55                   	push   %rbp
    6cc3:	48 89 e5             	mov    %rsp,%rbp
    6cc6:	89 f8                	mov    %edi,%eax
    6cc8:	89 75 f8             	mov    %esi,-0x8(%rbp)
    6ccb:	88 45 fc             	mov    %al,-0x4(%rbp)
    6cce:	83 7d f8 1f          	cmpl   $0x1f,-0x8(%rbp)
    6cd2:	77 0f                	ja     6ce3 <safe_rshift_func_uint8_t_u_u+0x25>
    6cd4:	0f b6 55 fc          	movzbl -0x4(%rbp),%edx
    6cd8:	8b 45 f8             	mov    -0x8(%rbp),%eax
    6cdb:	89 c1                	mov    %eax,%ecx
    6cdd:	d3 fa                	sar    %cl,%edx
    6cdf:	89 d0                	mov    %edx,%eax
    6ce1:	eb 04                	jmp    6ce7 <safe_rshift_func_uint8_t_u_u+0x29>
    6ce3:	0f b6 45 fc          	movzbl -0x4(%rbp),%eax
    6ce7:	5d                   	pop    %rbp
    6ce8:	c3                   	retq   

0000000000006ce9 <safe_unary_minus_func_uint16_t_u>:
    6ce9:	f3 0f 1e fa          	endbr64 
    6ced:	55                   	push   %rbp
    6cee:	48 89 e5             	mov    %rsp,%rbp
    6cf1:	89 f8                	mov    %edi,%eax
    6cf3:	66 89 45 fc          	mov    %ax,-0x4(%rbp)
    6cf7:	0f b7 45 fc          	movzwl -0x4(%rbp),%eax
    6cfb:	f7 d8                	neg    %eax
    6cfd:	5d                   	pop    %rbp
    6cfe:	c3                   	retq   

0000000000006cff <safe_add_func_uint16_t_u_u>:
    6cff:	f3 0f 1e fa          	endbr64 
    6d03:	55                   	push   %rbp
    6d04:	48 89 e5             	mov    %rsp,%rbp
    6d07:	89 fa                	mov    %edi,%edx
    6d09:	89 f0                	mov    %esi,%eax
    6d0b:	66 89 55 fc          	mov    %dx,-0x4(%rbp)
    6d0f:	66 89 45 f8          	mov    %ax,-0x8(%rbp)
    6d13:	0f b7 55 fc          	movzwl -0x4(%rbp),%edx
    6d17:	0f b7 45 f8          	movzwl -0x8(%rbp),%eax
    6d1b:	01 d0                	add    %edx,%eax
    6d1d:	5d                   	pop    %rbp
    6d1e:	c3                   	retq   

0000000000006d1f <safe_sub_func_uint16_t_u_u>:
    6d1f:	f3 0f 1e fa          	endbr64 
    6d23:	55                   	push   %rbp
    6d24:	48 89 e5             	mov    %rsp,%rbp
    6d27:	89 fa                	mov    %edi,%edx
    6d29:	89 f0                	mov    %esi,%eax
    6d2b:	66 89 55 fc          	mov    %dx,-0x4(%rbp)
    6d2f:	66 89 45 f8          	mov    %ax,-0x8(%rbp)
    6d33:	0f b7 45 fc          	movzwl -0x4(%rbp),%eax
    6d37:	66 2b 45 f8          	sub    -0x8(%rbp),%ax
    6d3b:	5d                   	pop    %rbp
    6d3c:	c3                   	retq   

0000000000006d3d <safe_mul_func_uint16_t_u_u>:
    6d3d:	f3 0f 1e fa          	endbr64 
    6d41:	55                   	push   %rbp
    6d42:	48 89 e5             	mov    %rsp,%rbp
    6d45:	89 fa                	mov    %edi,%edx
    6d47:	89 f0                	mov    %esi,%eax
    6d49:	66 89 55 fc          	mov    %dx,-0x4(%rbp)
    6d4d:	66 89 45 f8          	mov    %ax,-0x8(%rbp)
    6d51:	0f b7 45 fc          	movzwl -0x4(%rbp),%eax
    6d55:	66 0f af 45 f8       	imul   -0x8(%rbp),%ax
    6d5a:	5d                   	pop    %rbp
    6d5b:	c3                   	retq   

0000000000006d5c <safe_mod_func_uint16_t_u_u>:
    6d5c:	f3 0f 1e fa          	endbr64 
    6d60:	55                   	push   %rbp
    6d61:	48 89 e5             	mov    %rsp,%rbp
    6d64:	89 fa                	mov    %edi,%edx
    6d66:	89 f0                	mov    %esi,%eax
    6d68:	66 89 55 fc          	mov    %dx,-0x4(%rbp)
    6d6c:	66 89 45 f8          	mov    %ax,-0x8(%rbp)
    6d70:	66 83 7d f8 00       	cmpw   $0x0,-0x8(%rbp)
    6d75:	74 11                	je     6d88 <safe_mod_func_uint16_t_u_u+0x2c>
    6d77:	0f b7 45 fc          	movzwl -0x4(%rbp),%eax
    6d7b:	ba 00 00 00 00       	mov    $0x0,%edx
    6d80:	66 f7 75 f8          	divw   -0x8(%rbp)
    6d84:	89 d0                	mov    %edx,%eax
    6d86:	eb 04                	jmp    6d8c <safe_mod_func_uint16_t_u_u+0x30>
    6d88:	0f b7 45 fc          	movzwl -0x4(%rbp),%eax
    6d8c:	5d                   	pop    %rbp
    6d8d:	c3                   	retq   

0000000000006d8e <safe_div_func_uint16_t_u_u>:
    6d8e:	f3 0f 1e fa          	endbr64 
    6d92:	55                   	push   %rbp
    6d93:	48 89 e5             	mov    %rsp,%rbp
    6d96:	89 fa                	mov    %edi,%edx
    6d98:	89 f0                	mov    %esi,%eax
    6d9a:	66 89 55 fc          	mov    %dx,-0x4(%rbp)
    6d9e:	66 89 45 f8          	mov    %ax,-0x8(%rbp)
    6da2:	66 83 7d f8 00       	cmpw   $0x0,-0x8(%rbp)
    6da7:	74 0f                	je     6db8 <safe_div_func_uint16_t_u_u+0x2a>
    6da9:	0f b7 45 fc          	movzwl -0x4(%rbp),%eax
    6dad:	ba 00 00 00 00       	mov    $0x0,%edx
    6db2:	66 f7 75 f8          	divw   -0x8(%rbp)
    6db6:	eb 04                	jmp    6dbc <safe_div_func_uint16_t_u_u+0x2e>
    6db8:	0f b7 45 fc          	movzwl -0x4(%rbp),%eax
    6dbc:	5d                   	pop    %rbp
    6dbd:	c3                   	retq   

0000000000006dbe <safe_lshift_func_uint16_t_u_s>:
    6dbe:	f3 0f 1e fa          	endbr64 
    6dc2:	55                   	push   %rbp
    6dc3:	48 89 e5             	mov    %rsp,%rbp
    6dc6:	89 f8                	mov    %edi,%eax
    6dc8:	89 75 f8             	mov    %esi,-0x8(%rbp)
    6dcb:	66 89 45 fc          	mov    %ax,-0x4(%rbp)
    6dcf:	83 7d f8 00          	cmpl   $0x0,-0x8(%rbp)
    6dd3:	78 2b                	js     6e00 <safe_lshift_func_uint16_t_u_s+0x42>
    6dd5:	83 7d f8 1f          	cmpl   $0x1f,-0x8(%rbp)
    6dd9:	7f 25                	jg     6e00 <safe_lshift_func_uint16_t_u_s+0x42>
    6ddb:	0f b7 55 fc          	movzwl -0x4(%rbp),%edx
    6ddf:	8b 45 f8             	mov    -0x8(%rbp),%eax
    6de2:	be ff ff 00 00       	mov    $0xffff,%esi
    6de7:	89 c1                	mov    %eax,%ecx
    6de9:	d3 fe                	sar    %cl,%esi
    6deb:	89 f0                	mov    %esi,%eax
    6ded:	39 c2                	cmp    %eax,%edx
    6def:	7f 0f                	jg     6e00 <safe_lshift_func_uint16_t_u_s+0x42>
    6df1:	0f b7 55 fc          	movzwl -0x4(%rbp),%edx
    6df5:	8b 45 f8             	mov    -0x8(%rbp),%eax
    6df8:	89 c1                	mov    %eax,%ecx
    6dfa:	d3 e2                	shl    %cl,%edx
    6dfc:	89 d0                	mov    %edx,%eax
    6dfe:	eb 04                	jmp    6e04 <safe_lshift_func_uint16_t_u_s+0x46>
    6e00:	0f b7 45 fc          	movzwl -0x4(%rbp),%eax
    6e04:	5d                   	pop    %rbp
    6e05:	c3                   	retq   

0000000000006e06 <safe_lshift_func_uint16_t_u_u>:
    6e06:	f3 0f 1e fa          	endbr64 
    6e0a:	55                   	push   %rbp
    6e0b:	48 89 e5             	mov    %rsp,%rbp
    6e0e:	89 f8                	mov    %edi,%eax
    6e10:	89 75 f8             	mov    %esi,-0x8(%rbp)
    6e13:	66 89 45 fc          	mov    %ax,-0x4(%rbp)
    6e17:	83 7d f8 1f          	cmpl   $0x1f,-0x8(%rbp)
    6e1b:	77 25                	ja     6e42 <safe_lshift_func_uint16_t_u_u+0x3c>
    6e1d:	0f b7 55 fc          	movzwl -0x4(%rbp),%edx
    6e21:	8b 45 f8             	mov    -0x8(%rbp),%eax
    6e24:	be ff ff 00 00       	mov    $0xffff,%esi
    6e29:	89 c1                	mov    %eax,%ecx
    6e2b:	d3 fe                	sar    %cl,%esi
    6e2d:	89 f0                	mov    %esi,%eax
    6e2f:	39 c2                	cmp    %eax,%edx
    6e31:	7f 0f                	jg     6e42 <safe_lshift_func_uint16_t_u_u+0x3c>
    6e33:	0f b7 55 fc          	movzwl -0x4(%rbp),%edx
    6e37:	8b 45 f8             	mov    -0x8(%rbp),%eax
    6e3a:	89 c1                	mov    %eax,%ecx
    6e3c:	d3 e2                	shl    %cl,%edx
    6e3e:	89 d0                	mov    %edx,%eax
    6e40:	eb 04                	jmp    6e46 <safe_lshift_func_uint16_t_u_u+0x40>
    6e42:	0f b7 45 fc          	movzwl -0x4(%rbp),%eax
    6e46:	5d                   	pop    %rbp
    6e47:	c3                   	retq   

0000000000006e48 <safe_rshift_func_uint16_t_u_s>:
    6e48:	f3 0f 1e fa          	endbr64 
    6e4c:	55                   	push   %rbp
    6e4d:	48 89 e5             	mov    %rsp,%rbp
    6e50:	89 f8                	mov    %edi,%eax
    6e52:	89 75 f8             	mov    %esi,-0x8(%rbp)
    6e55:	66 89 45 fc          	mov    %ax,-0x4(%rbp)
    6e59:	83 7d f8 00          	cmpl   $0x0,-0x8(%rbp)
    6e5d:	78 15                	js     6e74 <safe_rshift_func_uint16_t_u_s+0x2c>
    6e5f:	83 7d f8 1f          	cmpl   $0x1f,-0x8(%rbp)
    6e63:	7f 0f                	jg     6e74 <safe_rshift_func_uint16_t_u_s+0x2c>
    6e65:	0f b7 55 fc          	movzwl -0x4(%rbp),%edx
    6e69:	8b 45 f8             	mov    -0x8(%rbp),%eax
    6e6c:	89 c1                	mov    %eax,%ecx
    6e6e:	d3 fa                	sar    %cl,%edx
    6e70:	89 d0                	mov    %edx,%eax
    6e72:	eb 04                	jmp    6e78 <safe_rshift_func_uint16_t_u_s+0x30>
    6e74:	0f b7 45 fc          	movzwl -0x4(%rbp),%eax
    6e78:	5d                   	pop    %rbp
    6e79:	c3                   	retq   

0000000000006e7a <safe_rshift_func_uint16_t_u_u>:
    6e7a:	f3 0f 1e fa          	endbr64 
    6e7e:	55                   	push   %rbp
    6e7f:	48 89 e5             	mov    %rsp,%rbp
    6e82:	89 f8                	mov    %edi,%eax
    6e84:	89 75 f8             	mov    %esi,-0x8(%rbp)
    6e87:	66 89 45 fc          	mov    %ax,-0x4(%rbp)
    6e8b:	83 7d f8 1f          	cmpl   $0x1f,-0x8(%rbp)
    6e8f:	77 0f                	ja     6ea0 <safe_rshift_func_uint16_t_u_u+0x26>
    6e91:	0f b7 55 fc          	movzwl -0x4(%rbp),%edx
    6e95:	8b 45 f8             	mov    -0x8(%rbp),%eax
    6e98:	89 c1                	mov    %eax,%ecx
    6e9a:	d3 fa                	sar    %cl,%edx
    6e9c:	89 d0                	mov    %edx,%eax
    6e9e:	eb 04                	jmp    6ea4 <safe_rshift_func_uint16_t_u_u+0x2a>
    6ea0:	0f b7 45 fc          	movzwl -0x4(%rbp),%eax
    6ea4:	5d                   	pop    %rbp
    6ea5:	c3                   	retq   

0000000000006ea6 <safe_unary_minus_func_uint32_t_u>:
    6ea6:	f3 0f 1e fa          	endbr64 
    6eaa:	55                   	push   %rbp
    6eab:	48 89 e5             	mov    %rsp,%rbp
    6eae:	89 7d fc             	mov    %edi,-0x4(%rbp)
    6eb1:	8b 45 fc             	mov    -0x4(%rbp),%eax
    6eb4:	f7 d8                	neg    %eax
    6eb6:	5d                   	pop    %rbp
    6eb7:	c3                   	retq   

0000000000006eb8 <safe_add_func_uint32_t_u_u>:
    6eb8:	f3 0f 1e fa          	endbr64 
    6ebc:	55                   	push   %rbp
    6ebd:	48 89 e5             	mov    %rsp,%rbp
    6ec0:	89 7d fc             	mov    %edi,-0x4(%rbp)
    6ec3:	89 75 f8             	mov    %esi,-0x8(%rbp)
    6ec6:	8b 55 fc             	mov    -0x4(%rbp),%edx
    6ec9:	8b 45 f8             	mov    -0x8(%rbp),%eax
    6ecc:	01 d0                	add    %edx,%eax
    6ece:	5d                   	pop    %rbp
    6ecf:	c3                   	retq   

0000000000006ed0 <safe_sub_func_uint32_t_u_u>:
    6ed0:	f3 0f 1e fa          	endbr64 
    6ed4:	55                   	push   %rbp
    6ed5:	48 89 e5             	mov    %rsp,%rbp
    6ed8:	89 7d fc             	mov    %edi,-0x4(%rbp)
    6edb:	89 75 f8             	mov    %esi,-0x8(%rbp)
    6ede:	8b 45 fc             	mov    -0x4(%rbp),%eax
    6ee1:	2b 45 f8             	sub    -0x8(%rbp),%eax
    6ee4:	5d                   	pop    %rbp
    6ee5:	c3                   	retq   

0000000000006ee6 <safe_mul_func_uint32_t_u_u>:
    6ee6:	f3 0f 1e fa          	endbr64 
    6eea:	55                   	push   %rbp
    6eeb:	48 89 e5             	mov    %rsp,%rbp
    6eee:	89 7d fc             	mov    %edi,-0x4(%rbp)
    6ef1:	89 75 f8             	mov    %esi,-0x8(%rbp)
    6ef4:	8b 45 fc             	mov    -0x4(%rbp),%eax
    6ef7:	0f af 45 f8          	imul   -0x8(%rbp),%eax
    6efb:	5d                   	pop    %rbp
    6efc:	c3                   	retq   

0000000000006efd <safe_mod_func_uint32_t_u_u>:
    6efd:	f3 0f 1e fa          	endbr64 
    6f01:	55                   	push   %rbp
    6f02:	48 89 e5             	mov    %rsp,%rbp
    6f05:	89 7d fc             	mov    %edi,-0x4(%rbp)
    6f08:	89 75 f8             	mov    %esi,-0x8(%rbp)
    6f0b:	83 7d f8 00          	cmpl   $0x0,-0x8(%rbp)
    6f0f:	74 0f                	je     6f20 <safe_mod_func_uint32_t_u_u+0x23>
    6f11:	8b 45 fc             	mov    -0x4(%rbp),%eax
    6f14:	ba 00 00 00 00       	mov    $0x0,%edx
    6f19:	f7 75 f8             	divl   -0x8(%rbp)
    6f1c:	89 d0                	mov    %edx,%eax
    6f1e:	eb 03                	jmp    6f23 <safe_mod_func_uint32_t_u_u+0x26>
    6f20:	8b 45 fc             	mov    -0x4(%rbp),%eax
    6f23:	5d                   	pop    %rbp
    6f24:	c3                   	retq   

0000000000006f25 <safe_div_func_uint32_t_u_u>:
    6f25:	f3 0f 1e fa          	endbr64 
    6f29:	55                   	push   %rbp
    6f2a:	48 89 e5             	mov    %rsp,%rbp
    6f2d:	89 7d fc             	mov    %edi,-0x4(%rbp)
    6f30:	89 75 f8             	mov    %esi,-0x8(%rbp)
    6f33:	83 7d f8 00          	cmpl   $0x0,-0x8(%rbp)
    6f37:	74 0d                	je     6f46 <safe_div_func_uint32_t_u_u+0x21>
    6f39:	8b 45 fc             	mov    -0x4(%rbp),%eax
    6f3c:	ba 00 00 00 00       	mov    $0x0,%edx
    6f41:	f7 75 f8             	divl   -0x8(%rbp)
    6f44:	eb 03                	jmp    6f49 <safe_div_func_uint32_t_u_u+0x24>
    6f46:	8b 45 fc             	mov    -0x4(%rbp),%eax
    6f49:	5d                   	pop    %rbp
    6f4a:	c3                   	retq   

0000000000006f4b <safe_lshift_func_uint32_t_u_s>:
    6f4b:	f3 0f 1e fa          	endbr64 
    6f4f:	55                   	push   %rbp
    6f50:	48 89 e5             	mov    %rsp,%rbp
    6f53:	89 7d fc             	mov    %edi,-0x4(%rbp)
    6f56:	89 75 f8             	mov    %esi,-0x8(%rbp)
    6f59:	83 7d f8 00          	cmpl   $0x0,-0x8(%rbp)
    6f5d:	78 27                	js     6f86 <safe_lshift_func_uint32_t_u_s+0x3b>
    6f5f:	83 7d f8 1f          	cmpl   $0x1f,-0x8(%rbp)
    6f63:	7f 21                	jg     6f86 <safe_lshift_func_uint32_t_u_s+0x3b>
    6f65:	8b 45 f8             	mov    -0x8(%rbp),%eax
    6f68:	ba ff ff ff ff       	mov    $0xffffffff,%edx
    6f6d:	89 c1                	mov    %eax,%ecx
    6f6f:	d3 ea                	shr    %cl,%edx
    6f71:	89 d0                	mov    %edx,%eax
    6f73:	39 45 fc             	cmp    %eax,-0x4(%rbp)
    6f76:	77 0e                	ja     6f86 <safe_lshift_func_uint32_t_u_s+0x3b>
    6f78:	8b 45 f8             	mov    -0x8(%rbp),%eax
    6f7b:	8b 55 fc             	mov    -0x4(%rbp),%edx
    6f7e:	89 c1                	mov    %eax,%ecx
    6f80:	d3 e2                	shl    %cl,%edx
    6f82:	89 d0                	mov    %edx,%eax
    6f84:	eb 03                	jmp    6f89 <safe_lshift_func_uint32_t_u_s+0x3e>
    6f86:	8b 45 fc             	mov    -0x4(%rbp),%eax
    6f89:	5d                   	pop    %rbp
    6f8a:	c3                   	retq   

0000000000006f8b <safe_lshift_func_uint32_t_u_u>:
    6f8b:	f3 0f 1e fa          	endbr64 
    6f8f:	55                   	push   %rbp
    6f90:	48 89 e5             	mov    %rsp,%rbp
    6f93:	89 7d fc             	mov    %edi,-0x4(%rbp)
    6f96:	89 75 f8             	mov    %esi,-0x8(%rbp)
    6f99:	83 7d f8 1f          	cmpl   $0x1f,-0x8(%rbp)
    6f9d:	77 21                	ja     6fc0 <safe_lshift_func_uint32_t_u_u+0x35>
    6f9f:	8b 45 f8             	mov    -0x8(%rbp),%eax
    6fa2:	ba ff ff ff ff       	mov    $0xffffffff,%edx
    6fa7:	89 c1                	mov    %eax,%ecx
    6fa9:	d3 ea                	shr    %cl,%edx
    6fab:	89 d0                	mov    %edx,%eax
    6fad:	39 45 fc             	cmp    %eax,-0x4(%rbp)
    6fb0:	77 0e                	ja     6fc0 <safe_lshift_func_uint32_t_u_u+0x35>
    6fb2:	8b 45 f8             	mov    -0x8(%rbp),%eax
    6fb5:	8b 55 fc             	mov    -0x4(%rbp),%edx
    6fb8:	89 c1                	mov    %eax,%ecx
    6fba:	d3 e2                	shl    %cl,%edx
    6fbc:	89 d0                	mov    %edx,%eax
    6fbe:	eb 03                	jmp    6fc3 <safe_lshift_func_uint32_t_u_u+0x38>
    6fc0:	8b 45 fc             	mov    -0x4(%rbp),%eax
    6fc3:	5d                   	pop    %rbp
    6fc4:	c3                   	retq   

0000000000006fc5 <safe_rshift_func_uint32_t_u_s>:
    6fc5:	f3 0f 1e fa          	endbr64 
    6fc9:	55                   	push   %rbp
    6fca:	48 89 e5             	mov    %rsp,%rbp
    6fcd:	89 7d fc             	mov    %edi,-0x4(%rbp)
    6fd0:	89 75 f8             	mov    %esi,-0x8(%rbp)
    6fd3:	83 7d f8 00          	cmpl   $0x0,-0x8(%rbp)
    6fd7:	78 14                	js     6fed <safe_rshift_func_uint32_t_u_s+0x28>
    6fd9:	83 7d f8 1f          	cmpl   $0x1f,-0x8(%rbp)
    6fdd:	7f 0e                	jg     6fed <safe_rshift_func_uint32_t_u_s+0x28>
    6fdf:	8b 45 f8             	mov    -0x8(%rbp),%eax
    6fe2:	8b 55 fc             	mov    -0x4(%rbp),%edx
    6fe5:	89 c1                	mov    %eax,%ecx
    6fe7:	d3 ea                	shr    %cl,%edx
    6fe9:	89 d0                	mov    %edx,%eax
    6feb:	eb 03                	jmp    6ff0 <safe_rshift_func_uint32_t_u_s+0x2b>
    6fed:	8b 45 fc             	mov    -0x4(%rbp),%eax
    6ff0:	5d                   	pop    %rbp
    6ff1:	c3                   	retq   

0000000000006ff2 <safe_rshift_func_uint32_t_u_u>:
    6ff2:	f3 0f 1e fa          	endbr64 
    6ff6:	55                   	push   %rbp
    6ff7:	48 89 e5             	mov    %rsp,%rbp
    6ffa:	89 7d fc             	mov    %edi,-0x4(%rbp)
    6ffd:	89 75 f8             	mov    %esi,-0x8(%rbp)
    7000:	83 7d f8 1f          	cmpl   $0x1f,-0x8(%rbp)
    7004:	77 0e                	ja     7014 <safe_rshift_func_uint32_t_u_u+0x22>
    7006:	8b 45 f8             	mov    -0x8(%rbp),%eax
    7009:	8b 55 fc             	mov    -0x4(%rbp),%edx
    700c:	89 c1                	mov    %eax,%ecx
    700e:	d3 ea                	shr    %cl,%edx
    7010:	89 d0                	mov    %edx,%eax
    7012:	eb 03                	jmp    7017 <safe_rshift_func_uint32_t_u_u+0x25>
    7014:	8b 45 fc             	mov    -0x4(%rbp),%eax
    7017:	5d                   	pop    %rbp
    7018:	c3                   	retq   

0000000000007019 <safe_unary_minus_func_uint64_t_u>:
    7019:	f3 0f 1e fa          	endbr64 
    701d:	55                   	push   %rbp
    701e:	48 89 e5             	mov    %rsp,%rbp
    7021:	48 89 7d f8          	mov    %rdi,-0x8(%rbp)
    7025:	48 8b 45 f8          	mov    -0x8(%rbp),%rax
    7029:	48 f7 d8             	neg    %rax
    702c:	5d                   	pop    %rbp
    702d:	c3                   	retq   

000000000000702e <safe_add_func_uint64_t_u_u>:
    702e:	f3 0f 1e fa          	endbr64 
    7032:	55                   	push   %rbp
    7033:	48 89 e5             	mov    %rsp,%rbp
    7036:	48 89 7d f8          	mov    %rdi,-0x8(%rbp)
    703a:	48 89 75 f0          	mov    %rsi,-0x10(%rbp)
    703e:	48 8b 55 f8          	mov    -0x8(%rbp),%rdx
    7042:	48 8b 45 f0          	mov    -0x10(%rbp),%rax
    7046:	48 01 d0             	add    %rdx,%rax
    7049:	5d                   	pop    %rbp
    704a:	c3                   	retq   

000000000000704b <safe_sub_func_uint64_t_u_u>:
    704b:	f3 0f 1e fa          	endbr64 
    704f:	55                   	push   %rbp
    7050:	48 89 e5             	mov    %rsp,%rbp
    7053:	48 89 7d f8          	mov    %rdi,-0x8(%rbp)
    7057:	48 89 75 f0          	mov    %rsi,-0x10(%rbp)
    705b:	48 8b 45 f8          	mov    -0x8(%rbp),%rax
    705f:	48 2b 45 f0          	sub    -0x10(%rbp),%rax
    7063:	5d                   	pop    %rbp
    7064:	c3                   	retq   

0000000000007065 <safe_mul_func_uint64_t_u_u>:
    7065:	f3 0f 1e fa          	endbr64 
    7069:	55                   	push   %rbp
    706a:	48 89 e5             	mov    %rsp,%rbp
    706d:	48 89 7d f8          	mov    %rdi,-0x8(%rbp)
    7071:	48 89 75 f0          	mov    %rsi,-0x10(%rbp)
    7075:	48 8b 45 f8          	mov    -0x8(%rbp),%rax
    7079:	48 0f af 45 f0       	imul   -0x10(%rbp),%rax
    707e:	5d                   	pop    %rbp
    707f:	c3                   	retq   

0000000000007080 <safe_mod_func_uint64_t_u_u>:
    7080:	f3 0f 1e fa          	endbr64 
    7084:	55                   	push   %rbp
    7085:	48 89 e5             	mov    %rsp,%rbp
    7088:	48 89 7d f8          	mov    %rdi,-0x8(%rbp)
    708c:	48 89 75 f0          	mov    %rsi,-0x10(%rbp)
    7090:	48 83 7d f0 00       	cmpq   $0x0,-0x10(%rbp)
    7095:	74 12                	je     70a9 <safe_mod_func_uint64_t_u_u+0x29>
    7097:	48 8b 45 f8          	mov    -0x8(%rbp),%rax
    709b:	ba 00 00 00 00       	mov    $0x0,%edx
    70a0:	48 f7 75 f0          	divq   -0x10(%rbp)
    70a4:	48 89 d0             	mov    %rdx,%rax
    70a7:	eb 04                	jmp    70ad <safe_mod_func_uint64_t_u_u+0x2d>
    70a9:	48 8b 45 f8          	mov    -0x8(%rbp),%rax
    70ad:	5d                   	pop    %rbp
    70ae:	c3                   	retq   

00000000000070af <safe_div_func_uint64_t_u_u>:
    70af:	f3 0f 1e fa          	endbr64 
    70b3:	55                   	push   %rbp
    70b4:	48 89 e5             	mov    %rsp,%rbp
    70b7:	48 89 7d f8          	mov    %rdi,-0x8(%rbp)
    70bb:	48 89 75 f0          	mov    %rsi,-0x10(%rbp)
    70bf:	48 83 7d f0 00       	cmpq   $0x0,-0x10(%rbp)
    70c4:	74 0f                	je     70d5 <safe_div_func_uint64_t_u_u+0x26>
    70c6:	48 8b 45 f8          	mov    -0x8(%rbp),%rax
    70ca:	ba 00 00 00 00       	mov    $0x0,%edx
    70cf:	48 f7 75 f0          	divq   -0x10(%rbp)
    70d3:	eb 04                	jmp    70d9 <safe_div_func_uint64_t_u_u+0x2a>
    70d5:	48 8b 45 f8          	mov    -0x8(%rbp),%rax
    70d9:	5d                   	pop    %rbp
    70da:	c3                   	retq   

00000000000070db <safe_lshift_func_uint64_t_u_s>:
    70db:	f3 0f 1e fa          	endbr64 
    70df:	55                   	push   %rbp
    70e0:	48 89 e5             	mov    %rsp,%rbp
    70e3:	48 89 7d f8          	mov    %rdi,-0x8(%rbp)
    70e7:	89 75 f4             	mov    %esi,-0xc(%rbp)
    70ea:	83 7d f4 00          	cmpl   $0x0,-0xc(%rbp)
    70ee:	78 2f                	js     711f <safe_lshift_func_uint64_t_u_s+0x44>
    70f0:	83 7d f4 1f          	cmpl   $0x1f,-0xc(%rbp)
    70f4:	7f 29                	jg     711f <safe_lshift_func_uint64_t_u_s+0x44>
    70f6:	8b 45 f4             	mov    -0xc(%rbp),%eax
    70f9:	48 c7 c2 ff ff ff ff 	mov    $0xffffffffffffffff,%rdx
    7100:	89 c1                	mov    %eax,%ecx
    7102:	48 d3 ea             	shr    %cl,%rdx
    7105:	48 89 d0             	mov    %rdx,%rax
    7108:	48 39 45 f8          	cmp    %rax,-0x8(%rbp)
    710c:	77 11                	ja     711f <safe_lshift_func_uint64_t_u_s+0x44>
    710e:	8b 45 f4             	mov    -0xc(%rbp),%eax
    7111:	48 8b 55 f8          	mov    -0x8(%rbp),%rdx
    7115:	89 c1                	mov    %eax,%ecx
    7117:	48 d3 e2             	shl    %cl,%rdx
    711a:	48 89 d0             	mov    %rdx,%rax
    711d:	eb 04                	jmp    7123 <safe_lshift_func_uint64_t_u_s+0x48>
    711f:	48 8b 45 f8          	mov    -0x8(%rbp),%rax
    7123:	5d                   	pop    %rbp
    7124:	c3                   	retq   

0000000000007125 <safe_lshift_func_uint64_t_u_u>:
    7125:	f3 0f 1e fa          	endbr64 
    7129:	55                   	push   %rbp
    712a:	48 89 e5             	mov    %rsp,%rbp
    712d:	48 89 7d f8          	mov    %rdi,-0x8(%rbp)
    7131:	89 75 f4             	mov    %esi,-0xc(%rbp)
    7134:	83 7d f4 1f          	cmpl   $0x1f,-0xc(%rbp)
    7138:	77 29                	ja     7163 <safe_lshift_func_uint64_t_u_u+0x3e>
    713a:	8b 45 f4             	mov    -0xc(%rbp),%eax
    713d:	48 c7 c2 ff ff ff ff 	mov    $0xffffffffffffffff,%rdx
    7144:	89 c1                	mov    %eax,%ecx
    7146:	48 d3 ea             	shr    %cl,%rdx
    7149:	48 89 d0             	mov    %rdx,%rax
    714c:	48 39 45 f8          	cmp    %rax,-0x8(%rbp)
    7150:	77 11                	ja     7163 <safe_lshift_func_uint64_t_u_u+0x3e>
    7152:	8b 45 f4             	mov    -0xc(%rbp),%eax
    7155:	48 8b 55 f8          	mov    -0x8(%rbp),%rdx
    7159:	89 c1                	mov    %eax,%ecx
    715b:	48 d3 e2             	shl    %cl,%rdx
    715e:	48 89 d0             	mov    %rdx,%rax
    7161:	eb 04                	jmp    7167 <safe_lshift_func_uint64_t_u_u+0x42>
    7163:	48 8b 45 f8          	mov    -0x8(%rbp),%rax
    7167:	5d                   	pop    %rbp
    7168:	c3                   	retq   

0000000000007169 <safe_rshift_func_uint64_t_u_s>:
    7169:	f3 0f 1e fa          	endbr64 
    716d:	55                   	push   %rbp
    716e:	48 89 e5             	mov    %rsp,%rbp
    7171:	48 89 7d f8          	mov    %rdi,-0x8(%rbp)
    7175:	89 75 f4             	mov    %esi,-0xc(%rbp)
    7178:	83 7d f4 00          	cmpl   $0x0,-0xc(%rbp)
    717c:	78 17                	js     7195 <safe_rshift_func_uint64_t_u_s+0x2c>
    717e:	83 7d f4 1f          	cmpl   $0x1f,-0xc(%rbp)
    7182:	7f 11                	jg     7195 <safe_rshift_func_uint64_t_u_s+0x2c>
    7184:	8b 45 f4             	mov    -0xc(%rbp),%eax
    7187:	48 8b 55 f8          	mov    -0x8(%rbp),%rdx
    718b:	89 c1                	mov    %eax,%ecx
    718d:	48 d3 ea             	shr    %cl,%rdx
    7190:	48 89 d0             	mov    %rdx,%rax
    7193:	eb 04                	jmp    7199 <safe_rshift_func_uint64_t_u_s+0x30>
    7195:	48 8b 45 f8          	mov    -0x8(%rbp),%rax
    7199:	5d                   	pop    %rbp
    719a:	c3                   	retq   

000000000000719b <safe_rshift_func_uint64_t_u_u>:
    719b:	f3 0f 1e fa          	endbr64 
    719f:	55                   	push   %rbp
    71a0:	48 89 e5             	mov    %rsp,%rbp
    71a3:	48 89 7d f8          	mov    %rdi,-0x8(%rbp)
    71a7:	89 75 f4             	mov    %esi,-0xc(%rbp)
    71aa:	83 7d f4 1f          	cmpl   $0x1f,-0xc(%rbp)
    71ae:	77 11                	ja     71c1 <safe_rshift_func_uint64_t_u_u+0x26>
    71b0:	8b 45 f4             	mov    -0xc(%rbp),%eax
    71b3:	48 8b 55 f8          	mov    -0x8(%rbp),%rdx
    71b7:	89 c1                	mov    %eax,%ecx
    71b9:	48 d3 ea             	shr    %cl,%rdx
    71bc:	48 89 d0             	mov    %rdx,%rax
    71bf:	eb 04                	jmp    71c5 <safe_rshift_func_uint64_t_u_u+0x2a>
    71c1:	48 8b 45 f8          	mov    -0x8(%rbp),%rax
    71c5:	5d                   	pop    %rbp
    71c6:	c3                   	retq   

00000000000071c7 <safe_add_func_float_f_f>:
    71c7:	f3 0f 1e fa          	endbr64 
    71cb:	55                   	push   %rbp
    71cc:	48 89 e5             	mov    %rsp,%rbp
    71cf:	f3 0f 11 45 fc       	movss  %xmm0,-0x4(%rbp)
    71d4:	f3 0f 11 4d f8       	movss  %xmm1,-0x8(%rbp)
    71d9:	f3 0f 10 4d fc       	movss  -0x4(%rbp),%xmm1
    71de:	f3 0f 10 05 0a d0 00 	movss  0xd00a(%rip),%xmm0        # 141f0 <g_1697+0x10d4>
    71e5:	00 
    71e6:	f3 0f 59 c8          	mulss  %xmm0,%xmm1
    71ea:	f3 0f 10 55 f8       	movss  -0x8(%rbp),%xmm2
    71ef:	f3 0f 10 05 f9 cf 00 	movss  0xcff9(%rip),%xmm0        # 141f0 <g_1697+0x10d4>
    71f6:	00 
    71f7:	f3 0f 59 c2          	mulss  %xmm2,%xmm0
    71fb:	f3 0f 58 c1          	addss  %xmm1,%xmm0
    71ff:	f3 0f 10 0d f9 cf 00 	movss  0xcff9(%rip),%xmm1        # 14200 <g_1697+0x10e4>
    7206:	00 
    7207:	0f 54 c1             	andps  %xmm1,%xmm0
    720a:	0f 2f 05 ff cf 00 00 	comiss 0xcfff(%rip),%xmm0        # 14210 <g_1697+0x10f4>
    7211:	76 07                	jbe    721a <safe_add_func_float_f_f+0x53>
    7213:	f3 0f 10 45 fc       	movss  -0x4(%rbp),%xmm0
    7218:	eb 0a                	jmp    7224 <safe_add_func_float_f_f+0x5d>
    721a:	f3 0f 10 45 fc       	movss  -0x4(%rbp),%xmm0
    721f:	f3 0f 58 45 f8       	addss  -0x8(%rbp),%xmm0
    7224:	5d                   	pop    %rbp
    7225:	c3                   	retq   

0000000000007226 <safe_sub_func_float_f_f>:
    7226:	f3 0f 1e fa          	endbr64 
    722a:	55                   	push   %rbp
    722b:	48 89 e5             	mov    %rsp,%rbp
    722e:	f3 0f 11 45 fc       	movss  %xmm0,-0x4(%rbp)
    7233:	f3 0f 11 4d f8       	movss  %xmm1,-0x8(%rbp)
    7238:	f3 0f 10 4d fc       	movss  -0x4(%rbp),%xmm1
    723d:	f3 0f 10 05 ab cf 00 	movss  0xcfab(%rip),%xmm0        # 141f0 <g_1697+0x10d4>
    7244:	00 
    7245:	f3 0f 59 c1          	mulss  %xmm1,%xmm0
    7249:	f3 0f 10 55 f8       	movss  -0x8(%rbp),%xmm2
    724e:	f3 0f 10 0d 9a cf 00 	movss  0xcf9a(%rip),%xmm1        # 141f0 <g_1697+0x10d4>
    7255:	00 
    7256:	f3 0f 59 ca          	mulss  %xmm2,%xmm1
    725a:	f3 0f 5c c1          	subss  %xmm1,%xmm0
    725e:	f3 0f 10 0d 9a cf 00 	movss  0xcf9a(%rip),%xmm1        # 14200 <g_1697+0x10e4>
    7265:	00 
    7266:	0f 54 c1             	andps  %xmm1,%xmm0
    7269:	0f 2f 05 a0 cf 00 00 	comiss 0xcfa0(%rip),%xmm0        # 14210 <g_1697+0x10f4>
    7270:	76 07                	jbe    7279 <safe_sub_func_float_f_f+0x53>
    7272:	f3 0f 10 45 fc       	movss  -0x4(%rbp),%xmm0
    7277:	eb 0a                	jmp    7283 <safe_sub_func_float_f_f+0x5d>
    7279:	f3 0f 10 45 fc       	movss  -0x4(%rbp),%xmm0
    727e:	f3 0f 5c 45 f8       	subss  -0x8(%rbp),%xmm0
    7283:	5d                   	pop    %rbp
    7284:	c3                   	retq   

0000000000007285 <safe_mul_func_float_f_f>:
    7285:	f3 0f 1e fa          	endbr64 
    7289:	55                   	push   %rbp
    728a:	48 89 e5             	mov    %rsp,%rbp
    728d:	f3 0f 11 45 fc       	movss  %xmm0,-0x4(%rbp)
    7292:	f3 0f 11 4d f8       	movss  %xmm1,-0x8(%rbp)
    7297:	f3 0f 10 4d fc       	movss  -0x4(%rbp),%xmm1
    729c:	f3 0f 10 05 70 cf 00 	movss  0xcf70(%rip),%xmm0        # 14214 <g_1697+0x10f8>
    72a3:	00 
    72a4:	f3 0f 59 c8          	mulss  %xmm0,%xmm1
    72a8:	f3 0f 10 55 f8       	movss  -0x8(%rbp),%xmm2
    72ad:	f3 0f 10 05 63 cf 00 	movss  0xcf63(%rip),%xmm0        # 14218 <g_1697+0x10fc>
    72b4:	00 
    72b5:	f3 0f 59 c2          	mulss  %xmm2,%xmm0
    72b9:	f3 0f 59 c1          	mulss  %xmm1,%xmm0
    72bd:	f3 0f 10 0d 3b cf 00 	movss  0xcf3b(%rip),%xmm1        # 14200 <g_1697+0x10e4>
    72c4:	00 
    72c5:	0f 54 c1             	andps  %xmm1,%xmm0
    72c8:	0f 2f 05 4d cf 00 00 	comiss 0xcf4d(%rip),%xmm0        # 1421c <g_1697+0x1100>
    72cf:	76 07                	jbe    72d8 <safe_mul_func_float_f_f+0x53>
    72d1:	f3 0f 10 45 fc       	movss  -0x4(%rbp),%xmm0
    72d6:	eb 0a                	jmp    72e2 <safe_mul_func_float_f_f+0x5d>
    72d8:	f3 0f 10 45 fc       	movss  -0x4(%rbp),%xmm0
    72dd:	f3 0f 59 45 f8       	mulss  -0x8(%rbp),%xmm0
    72e2:	5d                   	pop    %rbp
    72e3:	c3                   	retq   

00000000000072e4 <safe_div_func_float_f_f>:
    72e4:	f3 0f 1e fa          	endbr64 
    72e8:	55                   	push   %rbp
    72e9:	48 89 e5             	mov    %rsp,%rbp
    72ec:	f3 0f 11 45 fc       	movss  %xmm0,-0x4(%rbp)
    72f1:	f3 0f 11 4d f8       	movss  %xmm1,-0x8(%rbp)
    72f6:	f3 0f 10 45 f8       	movss  -0x8(%rbp),%xmm0
    72fb:	f3 0f 10 0d fd ce 00 	movss  0xcefd(%rip),%xmm1        # 14200 <g_1697+0x10e4>
    7302:	00 
    7303:	0f 54 c8             	andps  %xmm0,%xmm1
    7306:	f3 0f 10 05 12 cf 00 	movss  0xcf12(%rip),%xmm0        # 14220 <g_1697+0x1104>
    730d:	00 
    730e:	0f 2f c1             	comiss %xmm1,%xmm0
    7311:	0f 97 c0             	seta   %al
    7314:	83 f0 01             	xor    $0x1,%eax
    7317:	84 c0                	test   %al,%al
    7319:	75 56                	jne    7371 <safe_div_func_float_f_f+0x8d>
    731b:	66 0f ef c0          	pxor   %xmm0,%xmm0
    731f:	0f 2e 45 f8          	ucomiss -0x8(%rbp),%xmm0
    7323:	7a 0a                	jp     732f <safe_div_func_float_f_f+0x4b>
    7325:	66 0f ef c0          	pxor   %xmm0,%xmm0
    7329:	0f 2e 45 f8          	ucomiss -0x8(%rbp),%xmm0
    732d:	74 4e                	je     737d <safe_div_func_float_f_f+0x99>
    732f:	f3 0f 10 4d fc       	movss  -0x4(%rbp),%xmm1
    7334:	f3 0f 10 05 e8 ce 00 	movss  0xcee8(%rip),%xmm0        # 14224 <g_1697+0x1108>
    733b:	00 
    733c:	f3 0f 59 c1          	mulss  %xmm1,%xmm0
    7340:	f3 0f 10 55 f8       	movss  -0x8(%rbp),%xmm2
    7345:	f3 0f 10 0d db ce 00 	movss  0xcedb(%rip),%xmm1        # 14228 <g_1697+0x110c>
    734c:	00 
    734d:	f3 0f 59 ca          	mulss  %xmm2,%xmm1
    7351:	f3 0f 5e c1          	divss  %xmm1,%xmm0
    7355:	f3 0f 10 0d a3 ce 00 	movss  0xcea3(%rip),%xmm1        # 14200 <g_1697+0x10e4>
    735c:	00 
    735d:	0f 54 c1             	andps  %xmm1,%xmm0
    7360:	0f 2f 05 c5 ce 00 00 	comiss 0xcec5(%rip),%xmm0        # 1422c <g_1697+0x1110>
    7367:	0f 97 c0             	seta   %al
    736a:	83 f0 01             	xor    $0x1,%eax
    736d:	84 c0                	test   %al,%al
    736f:	74 0c                	je     737d <safe_div_func_float_f_f+0x99>
    7371:	f3 0f 10 45 fc       	movss  -0x4(%rbp),%xmm0
    7376:	f3 0f 5e 45 f8       	divss  -0x8(%rbp),%xmm0
    737b:	eb 05                	jmp    7382 <safe_div_func_float_f_f+0x9e>
    737d:	f3 0f 10 45 fc       	movss  -0x4(%rbp),%xmm0
    7382:	5d                   	pop    %rbp
    7383:	c3                   	retq   

0000000000007384 <safe_add_func_double_f_f>:
    7384:	f3 0f 1e fa          	endbr64 
    7388:	55                   	push   %rbp
    7389:	48 89 e5             	mov    %rsp,%rbp
    738c:	f2 0f 11 45 f8       	movsd  %xmm0,-0x8(%rbp)
    7391:	f2 0f 11 4d f0       	movsd  %xmm1,-0x10(%rbp)
    7396:	f2 0f 10 4d f8       	movsd  -0x8(%rbp),%xmm1
    739b:	f2 0f 10 05 8d ce 00 	movsd  0xce8d(%rip),%xmm0        # 14230 <g_1697+0x1114>
    73a2:	00 
    73a3:	f2 0f 59 c8          	mulsd  %xmm0,%xmm1
    73a7:	f2 0f 10 55 f0       	movsd  -0x10(%rbp),%xmm2
    73ac:	f2 0f 10 05 7c ce 00 	movsd  0xce7c(%rip),%xmm0        # 14230 <g_1697+0x1114>
    73b3:	00 
    73b4:	f2 0f 59 c2          	mulsd  %xmm2,%xmm0
    73b8:	f2 0f 58 c1          	addsd  %xmm1,%xmm0
    73bc:	f3 0f 7e 0d 7c ce 00 	movq   0xce7c(%rip),%xmm1        # 14240 <g_1697+0x1124>
    73c3:	00 
    73c4:	66 0f 54 c1          	andpd  %xmm1,%xmm0
    73c8:	66 0f 2f 05 80 ce 00 	comisd 0xce80(%rip),%xmm0        # 14250 <g_1697+0x1134>
    73cf:	00 
    73d0:	76 07                	jbe    73d9 <safe_add_func_double_f_f+0x55>
    73d2:	f2 0f 10 45 f8       	movsd  -0x8(%rbp),%xmm0
    73d7:	eb 0a                	jmp    73e3 <safe_add_func_double_f_f+0x5f>
    73d9:	f2 0f 10 45 f8       	movsd  -0x8(%rbp),%xmm0
    73de:	f2 0f 58 45 f0       	addsd  -0x10(%rbp),%xmm0
    73e3:	5d                   	pop    %rbp
    73e4:	c3                   	retq   

00000000000073e5 <safe_sub_func_double_f_f>:
    73e5:	f3 0f 1e fa          	endbr64 
    73e9:	55                   	push   %rbp
    73ea:	48 89 e5             	mov    %rsp,%rbp
    73ed:	f2 0f 11 45 f8       	movsd  %xmm0,-0x8(%rbp)
    73f2:	f2 0f 11 4d f0       	movsd  %xmm1,-0x10(%rbp)
    73f7:	f2 0f 10 4d f8       	movsd  -0x8(%rbp),%xmm1
    73fc:	f2 0f 10 05 2c ce 00 	movsd  0xce2c(%rip),%xmm0        # 14230 <g_1697+0x1114>
    7403:	00 
    7404:	f2 0f 59 c1          	mulsd  %xmm1,%xmm0
    7408:	f2 0f 10 55 f0       	movsd  -0x10(%rbp),%xmm2
    740d:	f2 0f 10 0d 1b ce 00 	movsd  0xce1b(%rip),%xmm1        # 14230 <g_1697+0x1114>
    7414:	00 
    7415:	f2 0f 59 ca          	mulsd  %xmm2,%xmm1
    7419:	f2 0f 5c c1          	subsd  %xmm1,%xmm0
    741d:	f3 0f 7e 0d 1b ce 00 	movq   0xce1b(%rip),%xmm1        # 14240 <g_1697+0x1124>
    7424:	00 
    7425:	66 0f 54 c1          	andpd  %xmm1,%xmm0
    7429:	66 0f 2f 05 1f ce 00 	comisd 0xce1f(%rip),%xmm0        # 14250 <g_1697+0x1134>
    7430:	00 
    7431:	76 07                	jbe    743a <safe_sub_func_double_f_f+0x55>
    7433:	f2 0f 10 45 f8       	movsd  -0x8(%rbp),%xmm0
    7438:	eb 0a                	jmp    7444 <safe_sub_func_double_f_f+0x5f>
    743a:	f2 0f 10 45 f8       	movsd  -0x8(%rbp),%xmm0
    743f:	f2 0f 5c 45 f0       	subsd  -0x10(%rbp),%xmm0
    7444:	5d                   	pop    %rbp
    7445:	c3                   	retq   

0000000000007446 <safe_mul_func_double_f_f>:
    7446:	f3 0f 1e fa          	endbr64 
    744a:	55                   	push   %rbp
    744b:	48 89 e5             	mov    %rsp,%rbp
    744e:	f2 0f 11 45 f8       	movsd  %xmm0,-0x8(%rbp)
    7453:	f2 0f 11 4d f0       	movsd  %xmm1,-0x10(%rbp)
    7458:	f2 0f 10 4d f8       	movsd  -0x8(%rbp),%xmm1
    745d:	f2 0f 10 05 f3 cd 00 	movsd  0xcdf3(%rip),%xmm0        # 14258 <g_1697+0x113c>
    7464:	00 
    7465:	f2 0f 59 c8          	mulsd  %xmm0,%xmm1
    7469:	f2 0f 10 55 f0       	movsd  -0x10(%rbp),%xmm2
    746e:	f2 0f 10 05 ea cd 00 	movsd  0xcdea(%rip),%xmm0        # 14260 <g_1697+0x1144>
    7475:	00 
    7476:	f2 0f 59 c2          	mulsd  %xmm2,%xmm0
    747a:	f2 0f 59 c1          	mulsd  %xmm1,%xmm0
    747e:	f3 0f 7e 0d ba cd 00 	movq   0xcdba(%rip),%xmm1        # 14240 <g_1697+0x1124>
    7485:	00 
    7486:	66 0f 54 c1          	andpd  %xmm1,%xmm0
    748a:	66 0f 2f 05 d6 cd 00 	comisd 0xcdd6(%rip),%xmm0        # 14268 <g_1697+0x114c>
    7491:	00 
    7492:	76 07                	jbe    749b <safe_mul_func_double_f_f+0x55>
    7494:	f2 0f 10 45 f8       	movsd  -0x8(%rbp),%xmm0
    7499:	eb 0a                	jmp    74a5 <safe_mul_func_double_f_f+0x5f>
    749b:	f2 0f 10 45 f8       	movsd  -0x8(%rbp),%xmm0
    74a0:	f2 0f 59 45 f0       	mulsd  -0x10(%rbp),%xmm0
    74a5:	5d                   	pop    %rbp
    74a6:	c3                   	retq   

00000000000074a7 <safe_div_func_double_f_f>:
    74a7:	f3 0f 1e fa          	endbr64 
    74ab:	55                   	push   %rbp
    74ac:	48 89 e5             	mov    %rsp,%rbp
    74af:	f2 0f 11 45 f8       	movsd  %xmm0,-0x8(%rbp)
    74b4:	f2 0f 11 4d f0       	movsd  %xmm1,-0x10(%rbp)
    74b9:	f2 0f 10 45 f0       	movsd  -0x10(%rbp),%xmm0
    74be:	f3 0f 7e 0d 7a cd 00 	movq   0xcd7a(%rip),%xmm1        # 14240 <g_1697+0x1124>
    74c5:	00 
    74c6:	66 0f 54 c8          	andpd  %xmm0,%xmm1
    74ca:	f2 0f 10 05 9e cd 00 	movsd  0xcd9e(%rip),%xmm0        # 14270 <g_1697+0x1154>
    74d1:	00 
    74d2:	66 0f 2f c1          	comisd %xmm1,%xmm0
    74d6:	0f 97 c0             	seta   %al
    74d9:	83 f0 01             	xor    $0x1,%eax
    74dc:	84 c0                	test   %al,%al
    74de:	75 5a                	jne    753a <safe_div_func_double_f_f+0x93>
    74e0:	66 0f ef c0          	pxor   %xmm0,%xmm0
    74e4:	66 0f 2e 45 f0       	ucomisd -0x10(%rbp),%xmm0
    74e9:	7a 0b                	jp     74f6 <safe_div_func_double_f_f+0x4f>
    74eb:	66 0f ef c0          	pxor   %xmm0,%xmm0
    74ef:	66 0f 2e 45 f0       	ucomisd -0x10(%rbp),%xmm0
    74f4:	74 50                	je     7546 <safe_div_func_double_f_f+0x9f>
    74f6:	f2 0f 10 4d f8       	movsd  -0x8(%rbp),%xmm1
    74fb:	f2 0f 10 05 75 cd 00 	movsd  0xcd75(%rip),%xmm0        # 14278 <g_1697+0x115c>
    7502:	00 
    7503:	f2 0f 59 c1          	mulsd  %xmm1,%xmm0
    7507:	f2 0f 10 55 f0       	movsd  -0x10(%rbp),%xmm2
    750c:	f2 0f 10 0d 6c cd 00 	movsd  0xcd6c(%rip),%xmm1        # 14280 <g_1697+0x1164>
    7513:	00 
    7514:	f2 0f 59 ca          	mulsd  %xmm2,%xmm1
    7518:	f2 0f 5e c1          	divsd  %xmm1,%xmm0
    751c:	f3 0f 7e 0d 1c cd 00 	movq   0xcd1c(%rip),%xmm1        # 14240 <g_1697+0x1124>
    7523:	00 
    7524:	66 0f 54 c1          	andpd  %xmm1,%xmm0
    7528:	66 0f 2f 05 58 cd 00 	comisd 0xcd58(%rip),%xmm0        # 14288 <g_1697+0x116c>
    752f:	00 
    7530:	0f 97 c0             	seta   %al
    7533:	83 f0 01             	xor    $0x1,%eax
    7536:	84 c0                	test   %al,%al
    7538:	74 0c                	je     7546 <safe_div_func_double_f_f+0x9f>
    753a:	f2 0f 10 45 f8       	movsd  -0x8(%rbp),%xmm0
    753f:	f2 0f 5e 45 f0       	divsd  -0x10(%rbp),%xmm0
    7544:	eb 05                	jmp    754b <safe_div_func_double_f_f+0xa4>
    7546:	f2 0f 10 45 f8       	movsd  -0x8(%rbp),%xmm0
    754b:	5d                   	pop    %rbp
    754c:	c3                   	retq   

000000000000754d <safe_convert_func_float_to_int32_t>:
    754d:	f3 0f 1e fa          	endbr64 
    7551:	55                   	push   %rbp
    7552:	48 89 e5             	mov    %rsp,%rbp
    7555:	f3 0f 11 45 fc       	movss  %xmm0,-0x4(%rbp)
    755a:	f3 0f 10 05 2e cd 00 	movss  0xcd2e(%rip),%xmm0        # 14290 <g_1697+0x1174>
    7561:	00 
    7562:	0f 2f 45 fc          	comiss -0x4(%rbp),%xmm0
    7566:	0f 93 c0             	setae  %al
    7569:	83 f0 01             	xor    $0x1,%eax
    756c:	84 c0                	test   %al,%al
    756e:	74 21                	je     7591 <safe_convert_func_float_to_int32_t+0x44>
    7570:	f3 0f 10 45 fc       	movss  -0x4(%rbp),%xmm0
    7575:	0f 2f 05 18 cd 00 00 	comiss 0xcd18(%rip),%xmm0        # 14294 <g_1697+0x1178>
    757c:	0f 93 c0             	setae  %al
    757f:	83 f0 01             	xor    $0x1,%eax
    7582:	84 c0                	test   %al,%al
    7584:	74 0b                	je     7591 <safe_convert_func_float_to_int32_t+0x44>
    7586:	f3 0f 10 45 fc       	movss  -0x4(%rbp),%xmm0
    758b:	f3 0f 2c c0          	cvttss2si %xmm0,%eax
    758f:	eb 05                	jmp    7596 <safe_convert_func_float_to_int32_t+0x49>
    7591:	b8 ff ff ff 7f       	mov    $0x7fffffff,%eax
    7596:	5d                   	pop    %rbp
    7597:	c3                   	retq   

0000000000007598 <crc32_gentab>:
    7598:	f3 0f 1e fa          	endbr64 
    759c:	55                   	push   %rbp
    759d:	48 89 e5             	mov    %rsp,%rbp
    75a0:	c7 45 fc 20 83 b8 ed 	movl   $0xedb88320,-0x4(%rbp)
    75a7:	c7 45 f4 00 00 00 00 	movl   $0x0,-0xc(%rbp)
    75ae:	eb 51                	jmp    7601 <crc32_gentab+0x69>
    75b0:	8b 45 f4             	mov    -0xc(%rbp),%eax
    75b3:	89 45 f0             	mov    %eax,-0x10(%rbp)
    75b6:	c7 45 f8 08 00 00 00 	movl   $0x8,-0x8(%rbp)
    75bd:	eb 1e                	jmp    75dd <crc32_gentab+0x45>
    75bf:	8b 45 f0             	mov    -0x10(%rbp),%eax
    75c2:	83 e0 01             	and    $0x1,%eax
    75c5:	85 c0                	test   %eax,%eax
    75c7:	74 0d                	je     75d6 <crc32_gentab+0x3e>
    75c9:	8b 45 f0             	mov    -0x10(%rbp),%eax
    75cc:	d1 e8                	shr    %eax
    75ce:	33 45 fc             	xor    -0x4(%rbp),%eax
    75d1:	89 45 f0             	mov    %eax,-0x10(%rbp)
    75d4:	eb 03                	jmp    75d9 <crc32_gentab+0x41>
    75d6:	d1 6d f0             	shrl   -0x10(%rbp)
    75d9:	83 6d f8 01          	subl   $0x1,-0x8(%rbp)
    75dd:	83 7d f8 00          	cmpl   $0x0,-0x8(%rbp)
    75e1:	7f dc                	jg     75bf <crc32_gentab+0x27>
    75e3:	8b 45 f4             	mov    -0xc(%rbp),%eax
    75e6:	48 98                	cltq   
    75e8:	48 8d 0c 85 00 00 00 	lea    0x0(,%rax,4),%rcx
    75ef:	00 
    75f0:	48 8d 15 29 27 01 00 	lea    0x12729(%rip),%rdx        # 19d20 <crc32_tab>
    75f7:	8b 45 f0             	mov    -0x10(%rbp),%eax
    75fa:	89 04 11             	mov    %eax,(%rcx,%rdx,1)
    75fd:	83 45 f4 01          	addl   $0x1,-0xc(%rbp)
    7601:	81 7d f4 ff 00 00 00 	cmpl   $0xff,-0xc(%rbp)
    7608:	7e a6                	jle    75b0 <crc32_gentab+0x18>
    760a:	90                   	nop
    760b:	90                   	nop
    760c:	5d                   	pop    %rbp
    760d:	c3                   	retq   

000000000000760e <crc32_byte>:
    760e:	f3 0f 1e fa          	endbr64 
    7612:	55                   	push   %rbp
    7613:	48 89 e5             	mov    %rsp,%rbp
    7616:	89 f8                	mov    %edi,%eax
    7618:	88 45 fc             	mov    %al,-0x4(%rbp)
    761b:	8b 05 ff f9 00 00    	mov    0xf9ff(%rip),%eax        # 17020 <crc32_context>
    7621:	c1 e8 08             	shr    $0x8,%eax
    7624:	89 c1                	mov    %eax,%ecx
    7626:	0f b6 55 fc          	movzbl -0x4(%rbp),%edx
    762a:	8b 05 f0 f9 00 00    	mov    0xf9f0(%rip),%eax        # 17020 <crc32_context>
    7630:	31 d0                	xor    %edx,%eax
    7632:	0f b6 c0             	movzbl %al,%eax
    7635:	89 c0                	mov    %eax,%eax
    7637:	48 8d 14 85 00 00 00 	lea    0x0(,%rax,4),%rdx
    763e:	00 
    763f:	48 8d 05 da 26 01 00 	lea    0x126da(%rip),%rax        # 19d20 <crc32_tab>
    7646:	8b 04 02             	mov    (%rdx,%rax,1),%eax
    7649:	31 c8                	xor    %ecx,%eax
    764b:	89 05 cf f9 00 00    	mov    %eax,0xf9cf(%rip)        # 17020 <crc32_context>
    7651:	90                   	nop
    7652:	5d                   	pop    %rbp
    7653:	c3                   	retq   

0000000000007654 <crc32_8bytes>:
    7654:	f3 0f 1e fa          	endbr64 
    7658:	55                   	push   %rbp
    7659:	48 89 e5             	mov    %rsp,%rbp
    765c:	48 83 ec 08          	sub    $0x8,%rsp
    7660:	48 89 7d f8          	mov    %rdi,-0x8(%rbp)
    7664:	48 8b 45 f8          	mov    -0x8(%rbp),%rax
    7668:	0f b6 c0             	movzbl %al,%eax
    766b:	89 c7                	mov    %eax,%edi
    766d:	e8 9c ff ff ff       	callq  760e <crc32_byte>
    7672:	48 8b 45 f8          	mov    -0x8(%rbp),%rax
    7676:	48 c1 e8 08          	shr    $0x8,%rax
    767a:	0f b6 c0             	movzbl %al,%eax
    767d:	89 c7                	mov    %eax,%edi
    767f:	e8 8a ff ff ff       	callq  760e <crc32_byte>
    7684:	48 8b 45 f8          	mov    -0x8(%rbp),%rax
    7688:	48 c1 e8 10          	shr    $0x10,%rax
    768c:	0f b6 c0             	movzbl %al,%eax
    768f:	89 c7                	mov    %eax,%edi
    7691:	e8 78 ff ff ff       	callq  760e <crc32_byte>
    7696:	48 8b 45 f8          	mov    -0x8(%rbp),%rax
    769a:	48 c1 e8 18          	shr    $0x18,%rax
    769e:	0f b6 c0             	movzbl %al,%eax
    76a1:	89 c7                	mov    %eax,%edi
    76a3:	e8 66 ff ff ff       	callq  760e <crc32_byte>
    76a8:	48 8b 45 f8          	mov    -0x8(%rbp),%rax
    76ac:	48 c1 e8 20          	shr    $0x20,%rax
    76b0:	0f b6 c0             	movzbl %al,%eax
    76b3:	89 c7                	mov    %eax,%edi
    76b5:	e8 54 ff ff ff       	callq  760e <crc32_byte>
    76ba:	48 8b 45 f8          	mov    -0x8(%rbp),%rax
    76be:	48 c1 e8 28          	shr    $0x28,%rax
    76c2:	0f b6 c0             	movzbl %al,%eax
    76c5:	89 c7                	mov    %eax,%edi
    76c7:	e8 42 ff ff ff       	callq  760e <crc32_byte>
    76cc:	48 8b 45 f8          	mov    -0x8(%rbp),%rax
    76d0:	48 c1 e8 30          	shr    $0x30,%rax
    76d4:	0f b6 c0             	movzbl %al,%eax
    76d7:	89 c7                	mov    %eax,%edi
    76d9:	e8 30 ff ff ff       	callq  760e <crc32_byte>
    76de:	48 8b 45 f8          	mov    -0x8(%rbp),%rax
    76e2:	48 c1 e8 38          	shr    $0x38,%rax
    76e6:	0f b6 c0             	movzbl %al,%eax
    76e9:	89 c7                	mov    %eax,%edi
    76eb:	e8 1e ff ff ff       	callq  760e <crc32_byte>
    76f0:	90                   	nop
    76f1:	c9                   	leaveq 
    76f2:	c3                   	retq   

00000000000076f3 <transparent_crc>:
    76f3:	f3 0f 1e fa          	endbr64 
    76f7:	55                   	push   %rbp
    76f8:	48 89 e5             	mov    %rsp,%rbp
    76fb:	48 83 ec 20          	sub    $0x20,%rsp
    76ff:	48 89 7d f8          	mov    %rdi,-0x8(%rbp)
    7703:	48 89 75 f0          	mov    %rsi,-0x10(%rbp)
    7707:	89 55 ec             	mov    %edx,-0x14(%rbp)
    770a:	48 8b 45 f8          	mov    -0x8(%rbp),%rax
    770e:	48 89 c7             	mov    %rax,%rdi
    7711:	e8 3e ff ff ff       	callq  7654 <crc32_8bytes>
    7716:	83 7d ec 00          	cmpl   $0x0,-0x14(%rbp)
    771a:	74 22                	je     773e <transparent_crc+0x4b>
    771c:	8b 05 fe f8 00 00    	mov    0xf8fe(%rip),%eax        # 17020 <crc32_context>
    7722:	f7 d0                	not    %eax
    7724:	89 c2                	mov    %eax,%edx
    7726:	48 8b 45 f0          	mov    -0x10(%rbp),%rax
    772a:	48 89 c6             	mov    %rax,%rsi
    772d:	48 8d 3d fc b8 00 00 	lea    0xb8fc(%rip),%rdi        # 13030 <_IO_stdin_used+0x30>
    7734:	b8 00 00 00 00       	mov    $0x0,%eax
    7739:	e8 42 e9 ff ff       	callq  6080 <printf@plt>
    773e:	90                   	nop
    773f:	c9                   	leaveq 
    7740:	c3                   	retq   

0000000000007741 <transparent_crc_bytes>:
    7741:	f3 0f 1e fa          	endbr64 
    7745:	55                   	push   %rbp
    7746:	48 89 e5             	mov    %rsp,%rbp
    7749:	48 83 ec 30          	sub    $0x30,%rsp
    774d:	48 89 7d e8          	mov    %rdi,-0x18(%rbp)
    7751:	89 75 e4             	mov    %esi,-0x1c(%rbp)
    7754:	48 89 55 d8          	mov    %rdx,-0x28(%rbp)
    7758:	89 4d e0             	mov    %ecx,-0x20(%rbp)
    775b:	c7 45 fc 00 00 00 00 	movl   $0x0,-0x4(%rbp)
    7762:	eb 1e                	jmp    7782 <transparent_crc_bytes+0x41>
    7764:	8b 45 fc             	mov    -0x4(%rbp),%eax
    7767:	48 63 d0             	movslq %eax,%rdx
    776a:	48 8b 45 e8          	mov    -0x18(%rbp),%rax
    776e:	48 01 d0             	add    %rdx,%rax
    7771:	0f b6 00             	movzbl (%rax),%eax
    7774:	0f b6 c0             	movzbl %al,%eax
    7777:	89 c7                	mov    %eax,%edi
    7779:	e8 90 fe ff ff       	callq  760e <crc32_byte>
    777e:	83 45 fc 01          	addl   $0x1,-0x4(%rbp)
    7782:	8b 45 fc             	mov    -0x4(%rbp),%eax
    7785:	3b 45 e4             	cmp    -0x1c(%rbp),%eax
    7788:	7c da                	jl     7764 <transparent_crc_bytes+0x23>
    778a:	83 7d e0 00          	cmpl   $0x0,-0x20(%rbp)
    778e:	74 22                	je     77b2 <transparent_crc_bytes+0x71>
    7790:	8b 05 8a f8 00 00    	mov    0xf88a(%rip),%eax        # 17020 <crc32_context>
    7796:	f7 d0                	not    %eax
    7798:	89 c2                	mov    %eax,%edx
    779a:	48 8b 45 d8          	mov    -0x28(%rbp),%rax
    779e:	48 89 c6             	mov    %rax,%rsi
    77a1:	48 8d 3d 88 b8 00 00 	lea    0xb888(%rip),%rdi        # 13030 <_IO_stdin_used+0x30>
    77a8:	b8 00 00 00 00       	mov    $0x0,%eax
    77ad:	e8 ce e8 ff ff       	callq  6080 <printf@plt>
    77b2:	90                   	nop
    77b3:	c9                   	leaveq 
    77b4:	c3                   	retq   

00000000000077b5 <func_1>:
    77b5:	f3 0f 1e fa          	endbr64 
    77b9:	55                   	push   %rbp
    77ba:	48 89 e5             	mov    %rsp,%rbp
    77bd:	48 81 ec 50 01 00 00 	sub    $0x150,%rsp
    77c4:	64 48 8b 04 25 28 00 	mov    %fs:0x28,%rax
    77cb:	00 00 
    77cd:	48 89 45 f8          	mov    %rax,-0x8(%rbp)
    77d1:	31 c0                	xor    %eax,%eax
    77d3:	c7 85 c4 fe ff ff 1f 	movl   $0x1dab551f,-0x13c(%rbp)
    77da:	55 ab 1d 
    77dd:	66 c7 85 ba fe ff ff 	movw   $0x9672,-0x146(%rbp)
    77e4:	72 96 
    77e6:	c7 85 c8 fe ff ff c0 	movl   $0x8006b1c0,-0x138(%rbp)
    77ed:	b1 06 80 
    77f0:	48 b8 a3 36 34 ac 1c 	movabs $0xcb41971cac3436a3,%rax
    77f7:	97 41 cb 
    77fa:	48 89 85 f8 fe ff ff 	mov    %rax,-0x108(%rbp)
    7801:	48 8d 05 c8 f9 00 00 	lea    0xf9c8(%rip),%rax        # 171d0 <g_184>
    7808:	48 89 85 00 ff ff ff 	mov    %rax,-0x100(%rbp)
    780f:	c7 85 cc fe ff ff 9d 	movl   $0x4837869d,-0x134(%rbp)
    7816:	86 37 48 
    7819:	48 8d 05 d0 fa 00 00 	lea    0xfad0(%rip),%rax        # 172f0 <g_282>
    7820:	48 89 85 e0 fe ff ff 	mov    %rax,-0x120(%rbp)
    7827:	48 8d 85 e0 fe ff ff 	lea    -0x120(%rbp),%rax
    782e:	48 89 85 08 ff ff ff 	mov    %rax,-0xf8(%rbp)
    7835:	c6 85 b9 fe ff ff 00 	movb   $0x0,-0x147(%rbp)
    783c:	66 c7 85 bc fe ff ff 	movw   $0x257d,-0x144(%rbp)
    7843:	7d 25 
    7845:	48 8d 05 e4 f7 00 00 	lea    0xf7e4(%rip),%rax        # 17030 <g_66>
    784c:	48 89 85 e8 fe ff ff 	mov    %rax,-0x118(%rbp)
    7853:	48 8d 85 e8 fe ff ff 	lea    -0x118(%rbp),%rax
    785a:	48 89 85 10 ff ff ff 	mov    %rax,-0xf0(%rbp)
    7861:	48 c7 85 f0 fe ff ff 	movq   $0x0,-0x110(%rbp)
    7868:	00 00 00 00 
    786c:	48 8d 85 f0 fe ff ff 	lea    -0x110(%rbp),%rax
    7873:	48 89 85 60 ff ff ff 	mov    %rax,-0xa0(%rbp)
    787a:	48 8d 85 f0 fe ff ff 	lea    -0x110(%rbp),%rax
    7881:	48 89 85 68 ff ff ff 	mov    %rax,-0x98(%rbp)
    7888:	48 8d 85 f0 fe ff ff 	lea    -0x110(%rbp),%rax
    788f:	48 89 85 70 ff ff ff 	mov    %rax,-0x90(%rbp)
    7896:	48 8d 85 f0 fe ff ff 	lea    -0x110(%rbp),%rax
    789d:	48 89 85 78 ff ff ff 	mov    %rax,-0x88(%rbp)
    78a4:	48 8d 85 f0 fe ff ff 	lea    -0x110(%rbp),%rax
    78ab:	48 89 45 80          	mov    %rax,-0x80(%rbp)
    78af:	48 8d 85 f0 fe ff ff 	lea    -0x110(%rbp),%rax
    78b6:	48 89 45 88          	mov    %rax,-0x78(%rbp)
    78ba:	48 8d 85 f0 fe ff ff 	lea    -0x110(%rbp),%rax
    78c1:	48 89 45 90          	mov    %rax,-0x70(%rbp)
    78c5:	48 8d 85 f0 fe ff ff 	lea    -0x110(%rbp),%rax
    78cc:	48 89 45 98          	mov    %rax,-0x68(%rbp)
    78d0:	48 8d 85 60 ff ff ff 	lea    -0xa0(%rbp),%rax
    78d7:	48 83 c0 28          	add    $0x28,%rax
    78db:	48 89 45 a0          	mov    %rax,-0x60(%rbp)
    78df:	48 8d 85 60 ff ff ff 	lea    -0xa0(%rbp),%rax
    78e6:	48 83 c0 28          	add    $0x28,%rax
    78ea:	48 89 45 a8          	mov    %rax,-0x58(%rbp)
    78ee:	48 8d 85 60 ff ff ff 	lea    -0xa0(%rbp),%rax
    78f5:	48 83 c0 28          	add    $0x28,%rax
    78f9:	48 89 45 b0          	mov    %rax,-0x50(%rbp)
    78fd:	48 8d 85 60 ff ff ff 	lea    -0xa0(%rbp),%rax
    7904:	48 83 c0 28          	add    $0x28,%rax
    7908:	48 89 45 b8          	mov    %rax,-0x48(%rbp)
    790c:	48 8d 85 60 ff ff ff 	lea    -0xa0(%rbp),%rax
    7913:	48 83 c0 28          	add    $0x28,%rax
    7917:	48 89 45 c0          	mov    %rax,-0x40(%rbp)
    791b:	48 8d 85 60 ff ff ff 	lea    -0xa0(%rbp),%rax
    7922:	48 83 c0 28          	add    $0x28,%rax
    7926:	48 89 45 c8          	mov    %rax,-0x38(%rbp)
    792a:	48 8d 85 60 ff ff ff 	lea    -0xa0(%rbp),%rax
    7931:	48 83 c0 28          	add    $0x28,%rax
    7935:	48 89 45 d0          	mov    %rax,-0x30(%rbp)
    7939:	48 8d 85 60 ff ff ff 	lea    -0xa0(%rbp),%rax
    7940:	48 83 c0 28          	add    $0x28,%rax
    7944:	48 89 45 d8          	mov    %rax,-0x28(%rbp)
    7948:	48 8d 85 60 ff ff ff 	lea    -0xa0(%rbp),%rax
    794f:	48 83 c0 28          	add    $0x28,%rax
    7953:	48 89 45 e0          	mov    %rax,-0x20(%rbp)
    7957:	48 8d 85 60 ff ff ff 	lea    -0xa0(%rbp),%rax
    795e:	48 83 c0 28          	add    $0x28,%rax
    7962:	48 89 45 e8          	mov    %rax,-0x18(%rbp)
    7966:	48 8d 05 f3 17 01 00 	lea    0x117f3(%rip),%rax        # 19160 <g_778>
    796d:	48 89 85 18 ff ff ff 	mov    %rax,-0xe8(%rbp)
    7974:	c7 85 d0 fe ff ff 88 	movl   $0x32fc4788,-0x130(%rbp)
    797b:	47 fc 32 
    797e:	c7 85 d4 fe ff ff 01 	movl   $0x1,-0x12c(%rbp)
    7985:	00 00 00 
    7988:	48 c7 85 20 ff ff ff 	movq   $0x3,-0xe0(%rbp)
    798f:	03 00 00 00 
    7993:	48 8d 05 56 05 01 00 	lea    0x10556(%rip),%rax        # 17ef0 <g_1657>
    799a:	48 89 85 28 ff ff ff 	mov    %rax,-0xd8(%rbp)
    79a1:	48 c7 85 30 ff ff ff 	movq   $0x0,-0xd0(%rbp)
    79a8:	00 00 00 00 
    79ac:	66 c7 85 be fe ff ff 	movw   $0xfff9,-0x142(%rbp)
    79b3:	f9 ff 
    79b5:	c7 85 d8 fe ff ff 1d 	movl   $0xe0095d1d,-0x128(%rbp)
    79bc:	5d 09 e0 
    79bf:	c7 85 dc fe ff ff 9f 	movl   $0x660f5a9f,-0x124(%rbp)
    79c6:	5a 0f 66 
    79c9:	c7 85 c0 fe ff ff 00 	movl   $0x0,-0x140(%rbp)
    79d0:	00 00 00 
    79d3:	eb 1a                	jmp    79ef <func_1+0x23a>
    79d5:	8b 85 c0 fe ff ff    	mov    -0x140(%rbp),%eax
    79db:	48 98                	cltq   
    79dd:	c7 84 85 3c ff ff ff 	movl   $0x1,-0xc4(%rbp,%rax,4)
    79e4:	01 00 00 00 
    79e8:	83 85 c0 fe ff ff 01 	addl   $0x1,-0x140(%rbp)
    79ef:	83 bd c0 fe ff ff 00 	cmpl   $0x0,-0x140(%rbp)
    79f6:	7e dd                	jle    79d5 <func_1+0x220>
    79f8:	c7 85 c0 fe ff ff 00 	movl   $0x0,-0x140(%rbp)
    79ff:	00 00 00 
    7a02:	eb 1e                	jmp    7a22 <func_1+0x26d>
    7a04:	8b 85 c0 fe ff ff    	mov    -0x140(%rbp),%eax
    7a0a:	48 98                	cltq   
    7a0c:	48 8d 15 10 fb 00 00 	lea    0xfb10(%rip),%rdx        # 17523 <g_891+0x3>
    7a13:	48 89 94 c5 40 ff ff 	mov    %rdx,-0xc0(%rbp,%rax,8)
    7a1a:	ff 
    7a1b:	83 85 c0 fe ff ff 01 	addl   $0x1,-0x140(%rbp)
    7a22:	83 bd c0 fe ff ff 03 	cmpl   $0x3,-0x140(%rbp)
    7a29:	7e d9                	jle    7a04 <func_1+0x24f>
    7a2b:	8b 85 3c ff ff ff    	mov    -0xc4(%rbp),%eax
    7a31:	48 8b 4d f8          	mov    -0x8(%rbp),%rcx
    7a35:	64 48 33 0c 25 28 00 	xor    %fs:0x28,%rcx
    7a3c:	00 00 
    7a3e:	74 05                	je     7a45 <func_1+0x290>
    7a40:	e8 2b e6 ff ff       	callq  6070 <__stack_chk_fail@plt>
    7a45:	c9                   	leaveq 
    7a46:	c3                   	retq   

0000000000007a47 <func_5>:
    7a47:	f3 0f 1e fa          	endbr64 
    7a4b:	55                   	push   %rbp
    7a4c:	48 89 e5             	mov    %rsp,%rbp
    7a4f:	41 57                	push   %r15
    7a51:	41 56                	push   %r14
    7a53:	41 55                	push   %r13
    7a55:	41 54                	push   %r12
    7a57:	53                   	push   %rbx
    7a58:	48 81 ec 98 08 00 00 	sub    $0x898,%rsp
    7a5f:	89 bd 5c f7 ff ff    	mov    %edi,-0x8a4(%rbp)
    7a65:	48 89 b5 50 f7 ff ff 	mov    %rsi,-0x8b0(%rbp)
    7a6c:	89 95 58 f7 ff ff    	mov    %edx,-0x8a8(%rbp)
    7a72:	89 8d 4c f7 ff ff    	mov    %ecx,-0x8b4(%rbp)
    7a78:	44 89 c0             	mov    %r8d,%eax
    7a7b:	88 85 48 f7 ff ff    	mov    %al,-0x8b8(%rbp)
    7a81:	64 48 8b 04 25 28 00 	mov    %fs:0x28,%rax
    7a88:	00 00 
    7a8a:	48 89 45 c8          	mov    %rax,-0x38(%rbp)
    7a8e:	31 c0                	xor    %eax,%eax
    7a90:	c6 85 6e f7 ff ff 06 	movb   $0x6,-0x892(%rbp)
    7a97:	c7 85 78 f7 ff ff f9 	movl   $0xcb7dfbf9,-0x888(%rbp)
    7a9e:	fb 7d cb 
    7aa1:	48 c7 85 18 f8 ff ff 	movq   $0x0,-0x7e8(%rbp)
    7aa8:	00 00 00 00 
    7aac:	48 8d 05 2d 17 01 00 	lea    0x1172d(%rip),%rax        # 191e0 <g_889>
    7ab3:	48 89 85 20 f8 ff ff 	mov    %rax,-0x7e0(%rbp)
    7aba:	48 8d 05 f7 15 01 00 	lea    0x115f7(%rip),%rax        # 190b8 <g_736+0x18>
    7ac1:	48 89 85 28 f8 ff ff 	mov    %rax,-0x7d8(%rbp)
    7ac8:	c7 85 a0 f7 ff ff a2 	movl   $0x99cdb9a2,-0x860(%rbp)
    7acf:	b9 cd 99 
    7ad2:	c7 85 a4 f7 ff ff 01 	movl   $0x1,-0x85c(%rbp)
    7ad9:	00 00 00 
    7adc:	c7 85 7c f7 ff ff 08 	movl   $0x4e734e08,-0x884(%rbp)
    7ae3:	4e 73 4e 
    7ae6:	c7 85 a8 f7 ff ff 01 	movl   $0x1,-0x858(%rbp)
    7aed:	00 00 00 
    7af0:	c7 85 84 f7 ff ff 00 	movl   $0x0,-0x87c(%rbp)
    7af7:	00 00 00 
    7afa:	c7 85 ac f7 ff ff 75 	movl   $0xf3a33875,-0x854(%rbp)
    7b01:	38 a3 f3 
    7b04:	c7 85 d0 fa ff ff ff 	movl   $0xffffffff,-0x530(%rbp)
    7b0b:	ff ff ff 
    7b0e:	c7 85 d4 fa ff ff 01 	movl   $0x1,-0x52c(%rbp)
    7b15:	00 00 00 
    7b18:	c7 85 d8 fa ff ff ff 	movl   $0xffffffff,-0x528(%rbp)
    7b1f:	ff ff ff 
    7b22:	c7 85 dc fa ff ff 01 	movl   $0x1,-0x524(%rbp)
    7b29:	00 00 00 
    7b2c:	c7 85 e0 fa ff ff ff 	movl   $0xffffffff,-0x520(%rbp)
    7b33:	ff ff ff 
    7b36:	c7 85 e4 fa ff ff 01 	movl   $0x1,-0x51c(%rbp)
    7b3d:	00 00 00 
    7b40:	c7 85 e8 fa ff ff ff 	movl   $0xffffffff,-0x518(%rbp)
    7b47:	ff ff ff 
    7b4a:	c7 85 ec fa ff ff 01 	movl   $0x1,-0x514(%rbp)
    7b51:	00 00 00 
    7b54:	c7 85 f0 fa ff ff ff 	movl   $0xffffffff,-0x510(%rbp)
    7b5b:	ff ff ff 
    7b5e:	c7 85 f4 fa ff ff 01 	movl   $0x1,-0x50c(%rbp)
    7b65:	00 00 00 
    7b68:	c7 85 f8 fa ff ff ff 	movl   $0xffffffff,-0x508(%rbp)
    7b6f:	ff ff ff 
    7b72:	c7 85 fc fa ff ff 01 	movl   $0x1,-0x504(%rbp)
    7b79:	00 00 00 
    7b7c:	c7 85 00 fb ff ff ff 	movl   $0xffffffff,-0x500(%rbp)
    7b83:	ff ff ff 
    7b86:	c7 85 04 fb ff ff 01 	movl   $0x1,-0x4fc(%rbp)
    7b8d:	00 00 00 
    7b90:	c7 85 08 fb ff ff ff 	movl   $0xffffffff,-0x4f8(%rbp)
    7b97:	ff ff ff 
    7b9a:	c7 85 0c fb ff ff 01 	movl   $0x1,-0x4f4(%rbp)
    7ba1:	00 00 00 
    7ba4:	c7 85 10 fb ff ff ff 	movl   $0xffffffff,-0x4f0(%rbp)
    7bab:	ff ff ff 
    7bae:	c7 85 14 fb ff ff 01 	movl   $0x1,-0x4ec(%rbp)
    7bb5:	00 00 00 
    7bb8:	c7 85 18 fb ff ff ff 	movl   $0xffffffff,-0x4e8(%rbp)
    7bbf:	ff ff ff 
    7bc2:	c7 85 1c fb ff ff 01 	movl   $0x1,-0x4e4(%rbp)
    7bc9:	00 00 00 
    7bcc:	66 c7 85 70 f7 ff ff 	movw   $0x5b8f,-0x890(%rbp)
    7bd3:	8f 5b 
    7bd5:	66 c7 85 e0 f9 ff ff 	movw   $0x3cfe,-0x620(%rbp)
    7bdc:	fe 3c 
    7bde:	66 c7 85 e2 f9 ff ff 	movw   $0x3cfe,-0x61e(%rbp)
    7be5:	fe 3c 
    7be7:	66 c7 85 e4 f9 ff ff 	movw   $0x87c,-0x61c(%rbp)
    7bee:	7c 08 
    7bf0:	66 c7 85 e6 f9 ff ff 	movw   $0x3cfe,-0x61a(%rbp)
    7bf7:	fe 3c 
    7bf9:	66 c7 85 e8 f9 ff ff 	movw   $0x3cfe,-0x618(%rbp)
    7c00:	fe 3c 
    7c02:	66 c7 85 ea f9 ff ff 	movw   $0x6,-0x616(%rbp)
    7c09:	06 00 
    7c0b:	66 c7 85 ec f9 ff ff 	movw   $0x6,-0x614(%rbp)
    7c12:	06 00 
    7c14:	66 c7 85 ee f9 ff ff 	movw   $0x3cfe,-0x612(%rbp)
    7c1b:	fe 3c 
    7c1d:	66 c7 85 f0 f9 ff ff 	movw   $0x6,-0x610(%rbp)
    7c24:	06 00 
    7c26:	66 c7 85 f2 f9 ff ff 	movw   $0x3cfe,-0x60e(%rbp)
    7c2d:	fe 3c 
    7c2f:	66 c7 85 f4 f9 ff ff 	movw   $0x6,-0x60c(%rbp)
    7c36:	06 00 
    7c38:	66 c7 85 f6 f9 ff ff 	movw   $0x6,-0x60a(%rbp)
    7c3f:	06 00 
    7c41:	48 c7 85 d8 f7 ff ff 	movq   $0x0,-0x828(%rbp)
    7c48:	00 00 00 00 
    7c4c:	c7 85 88 f7 ff ff 00 	movl   $0x0,-0x878(%rbp)
    7c53:	00 00 00 
    7c56:	eb 14                	jmp    7c6c <func_5+0x225>
    7c58:	8b 85 88 f7 ff ff    	mov    -0x878(%rbp),%eax
    7c5e:	48 98                	cltq   
    7c60:	c6 44 05 c2 e3       	movb   $0xe3,-0x3e(%rbp,%rax,1)
    7c65:	83 85 88 f7 ff ff 01 	addl   $0x1,-0x878(%rbp)
    7c6c:	83 bd 88 f7 ff ff 01 	cmpl   $0x1,-0x878(%rbp)
    7c73:	7e e3                	jle    7c58 <func_5+0x211>
    7c75:	c7 85 88 f7 ff ff 00 	movl   $0x0,-0x878(%rbp)
    7c7c:	00 00 00 
    7c7f:	eb 1e                	jmp    7c9f <func_5+0x258>
    7c81:	8b 85 88 f7 ff ff    	mov    -0x878(%rbp),%eax
    7c87:	48 98                	cltq   
    7c89:	48 8d 15 68 f6 00 00 	lea    0xf668(%rip),%rdx        # 172f8 <g_313>
    7c90:	48 89 94 c5 60 fa ff 	mov    %rdx,-0x5a0(%rbp,%rax,8)
    7c97:	ff 
    7c98:	83 85 88 f7 ff ff 01 	addl   $0x1,-0x878(%rbp)
    7c9f:	83 bd 88 f7 ff ff 05 	cmpl   $0x5,-0x878(%rbp)
    7ca6:	7e d9                	jle    7c81 <func_5+0x23a>
    7ca8:	0f b6 85 6e f7 ff ff 	movzbl -0x892(%rbp),%eax
    7caf:	84 c0                	test   %al,%al
    7cb1:	0f 84 07 11 00 00    	je     8dbe <func_5+0x1377>
    7cb7:	48 8d 85 c0 fd ff ff 	lea    -0x240(%rbp),%rax
    7cbe:	48 8d 15 5b b4 00 00 	lea    0xb45b(%rip),%rdx        # 13120 <g_1697+0x4>
    7cc5:	b9 1f 00 00 00       	mov    $0x1f,%ecx
    7cca:	48 89 c7             	mov    %rax,%rdi
    7ccd:	48 89 d6             	mov    %rdx,%rsi
    7cd0:	f3 48 a5             	rep movsq %ds:(%rsi),%es:(%rdi)
    7cd3:	48 89 f2             	mov    %rsi,%rdx
    7cd6:	48 89 f8             	mov    %rdi,%rax
    7cd9:	0f b7 0a             	movzwl (%rdx),%ecx
    7cdc:	66 89 08             	mov    %cx,(%rax)
    7cdf:	48 8d 40 02          	lea    0x2(%rax),%rax
    7ce3:	48 8d 52 02          	lea    0x2(%rdx),%rdx
    7ce7:	48 8d 85 6e f7 ff ff 	lea    -0x892(%rbp),%rax
    7cee:	48 89 85 90 f8 ff ff 	mov    %rax,-0x770(%rbp)
    7cf5:	c7 85 80 f7 ff ff 0c 	movl   $0xa11bbd0c,-0x880(%rbp)
    7cfc:	bd 1b a1 
    7cff:	48 8d 85 80 f7 ff ff 	lea    -0x880(%rbp),%rax
    7d06:	48 89 85 10 f8 ff ff 	mov    %rax,-0x7f0(%rbp)
    7d0d:	48 8d 05 dc fa 00 00 	lea    0xfadc(%rip),%rax        # 177f0 <g_1151>
    7d14:	48 89 85 e0 f7 ff ff 	mov    %rax,-0x820(%rbp)
    7d1b:	48 8d 85 e0 f7 ff ff 	lea    -0x820(%rbp),%rax
    7d22:	48 89 85 e8 f7 ff ff 	mov    %rax,-0x818(%rbp)
    7d29:	48 8d 85 e8 f7 ff ff 	lea    -0x818(%rbp),%rax
    7d30:	48 89 85 98 f8 ff ff 	mov    %rax,-0x768(%rbp)
    7d37:	48 b8 e7 76 f7 50 2c 	movabs $0xbaada92c50f776e7,%rax
    7d3e:	a9 ad ba 
    7d41:	48 89 85 a0 fb ff ff 	mov    %rax,-0x460(%rbp)
    7d48:	48 c7 85 a8 fb ff ff 	movq   $0x8,-0x458(%rbp)
    7d4f:	08 00 00 00 
    7d53:	48 c7 85 b0 fb ff ff 	movq   $0x1,-0x450(%rbp)
    7d5a:	01 00 00 00 
    7d5e:	48 bb 89 4e 28 db d4 	movabs $0xf69de5d4db284e89,%rbx
    7d65:	e5 9d f6 
    7d68:	48 89 9d b8 fb ff ff 	mov    %rbx,-0x448(%rbp)
    7d6f:	48 c7 85 c0 fb ff ff 	movq   $0x1,-0x440(%rbp)
    7d76:	01 00 00 00 
    7d7a:	48 c7 85 c8 fb ff ff 	movq   $0x8,-0x438(%rbp)
    7d81:	08 00 00 00 
    7d85:	48 89 85 d0 fb ff ff 	mov    %rax,-0x430(%rbp)
    7d8c:	48 c7 85 d8 fb ff ff 	movq   $0x8,-0x428(%rbp)
    7d93:	08 00 00 00 
    7d97:	48 89 85 e0 fb ff ff 	mov    %rax,-0x420(%rbp)
    7d9e:	48 89 9d e8 fb ff ff 	mov    %rbx,-0x418(%rbp)
    7da5:	48 bf a7 aa 7a 92 05 	movabs $0x431b8705927aaaa7,%rdi
    7dac:	87 1b 43 
    7daf:	48 89 bd f0 fb ff ff 	mov    %rdi,-0x410(%rbp)
    7db6:	48 89 9d f8 fb ff ff 	mov    %rbx,-0x408(%rbp)
    7dbd:	48 89 85 00 fc ff ff 	mov    %rax,-0x400(%rbp)
    7dc4:	48 c7 85 08 fc ff ff 	movq   $0x0,-0x3f8(%rbp)
    7dcb:	00 00 00 00 
    7dcf:	48 89 85 10 fc ff ff 	mov    %rax,-0x3f0(%rbp)
    7dd6:	48 89 9d 18 fc ff ff 	mov    %rbx,-0x3e8(%rbp)
    7ddd:	48 c7 85 20 fc ff ff 	movq   $0x1,-0x3e0(%rbp)
    7de4:	01 00 00 00 
    7de8:	48 89 9d 28 fc ff ff 	mov    %rbx,-0x3d8(%rbp)
    7def:	48 c7 85 30 fc ff ff 	movq   $0x1,-0x3d0(%rbp)
    7df6:	01 00 00 00 
    7dfa:	48 c7 85 38 fc ff ff 	movq   $0x8,-0x3c8(%rbp)
    7e01:	08 00 00 00 
    7e05:	48 89 85 40 fc ff ff 	mov    %rax,-0x3c0(%rbp)
    7e0c:	48 c7 85 48 fc ff ff 	movq   $0x8,-0x3b8(%rbp)
    7e13:	08 00 00 00 
    7e17:	48 c7 85 50 fc ff ff 	movq   $0x1,-0x3b0(%rbp)
    7e1e:	01 00 00 00 
    7e22:	48 c7 85 58 fc ff ff 	movq   $0x8,-0x3a8(%rbp)
    7e29:	08 00 00 00 
    7e2d:	c7 85 c4 f7 ff ff 00 	movl   $0x0,-0x83c(%rbp)
    7e34:	00 00 00 
    7e37:	c7 85 00 fa ff ff 08 	movl   $0x8,-0x600(%rbp)
    7e3e:	00 00 00 
    7e41:	c7 85 04 fa ff ff ff 	movl   $0xffffffff,-0x5fc(%rbp)
    7e48:	ff ff ff 
    7e4b:	c7 85 08 fa ff ff ff 	movl   $0xffffffff,-0x5f8(%rbp)
    7e52:	ff ff ff 
    7e55:	c7 85 0c fa ff ff 08 	movl   $0x8,-0x5f4(%rbp)
    7e5c:	00 00 00 
    7e5f:	c7 85 10 fa ff ff ff 	movl   $0xffffffff,-0x5f0(%rbp)
    7e66:	ff ff ff 
    7e69:	c7 85 14 fa ff ff 08 	movl   $0x8,-0x5ec(%rbp)
    7e70:	00 00 00 
    7e73:	c7 85 18 fa ff ff 08 	movl   $0x8,-0x5e8(%rbp)
    7e7a:	00 00 00 
    7e7d:	c7 85 1c fa ff ff fe 	movl   $0xfffffffe,-0x5e4(%rbp)
    7e84:	ff ff ff 
    7e87:	c7 85 20 fa ff ff 08 	movl   $0x8,-0x5e0(%rbp)
    7e8e:	00 00 00 
    7e91:	c7 85 24 fa ff ff 08 	movl   $0x8,-0x5dc(%rbp)
    7e98:	00 00 00 
    7e9b:	48 b8 0c 44 91 69 17 	movabs $0xb13558176991440c,%rax
    7ea2:	58 35 b1 
    7ea5:	48 89 85 a0 f8 ff ff 	mov    %rax,-0x760(%rbp)
    7eac:	8b 85 4c f7 ff ff    	mov    -0x8b4(%rbp),%eax
    7eb2:	0f b6 d8             	movzbl %al,%ebx
    7eb5:	8b 85 78 f7 ff ff    	mov    -0x888(%rbp),%eax
    7ebb:	4c 63 e0             	movslq %eax,%r12
    7ebe:	48 8d 05 7b f4 00 00 	lea    0xf47b(%rip),%rax        # 17340 <g_316+0x40>
    7ec5:	48 8b 00             	mov    (%rax),%rax
    7ec8:	49 89 c7             	mov    %rax,%r15
    7ecb:	44 8b ad 4c f7 ff ff 	mov    -0x8b4(%rbp),%r13d
    7ed2:	48 8b 05 37 f4 00 00 	mov    0xf437(%rip),%rax        # 17310 <g_316+0x10>
    7ed9:	44 0f bf f0          	movswl %ax,%r14d
    7edd:	48 be f3 3e a0 45 a1 	movabs $0x49e470a145a03ef3,%rsi
    7ee4:	70 e4 49 
    7ee7:	48 bf 9a cc 71 13 06 	movabs $0xee432c061371cc9a,%rdi
    7eee:	2c 43 ee 
    7ef1:	e8 b9 f1 ff ff       	callq  70af <safe_div_func_uint64_t_u_u>
    7ef6:	8b 95 5c f7 ff ff    	mov    -0x8a4(%rbp),%edx
    7efc:	48 39 d0             	cmp    %rdx,%rax
    7eff:	0f 94 c0             	sete   %al
    7f02:	0f b6 d0             	movzbl %al,%edx
    7f05:	b8 94 03 00 00       	mov    $0x394,%eax
    7f0a:	89 c1                	mov    %eax,%ecx
    7f0c:	0f b6 85 49 fe ff ff 	movzbl -0x1b7(%rbp),%eax
    7f13:	21 c8                	and    %ecx,%eax
    7f15:	89 c1                	mov    %eax,%ecx
    7f17:	48 8b 85 90 f8 ff ff 	mov    -0x770(%rbp),%rax
    7f1e:	88 08                	mov    %cl,(%rax)
    7f20:	48 8b 85 90 f8 ff ff 	mov    -0x770(%rbp),%rax
    7f27:	0f b6 00             	movzbl (%rax),%eax
    7f2a:	0f b6 c0             	movzbl %al,%eax
    7f2d:	89 d6                	mov    %edx,%esi
    7f2f:	89 c7                	mov    %eax,%edi
    7f31:	e8 5d ec ff ff       	callq  6b93 <safe_mul_func_uint8_t_u_u>
    7f36:	0f b6 d0             	movzbl %al,%edx
    7f39:	48 8b 05 90 12 01 00 	mov    0x11290(%rip),%rax        # 191d0 <g_883>
    7f40:	48 8b 00             	mov    (%rax),%rax
    7f43:	0f b7 08             	movzwl (%rax),%ecx
    7f46:	8b 85 58 f7 ff ff    	mov    -0x8a8(%rbp),%eax
    7f4c:	89 c6                	mov    %eax,%esi
    7f4e:	48 8b 05 7b 12 01 00 	mov    0x1127b(%rip),%rax        # 191d0 <g_883>
    7f55:	48 8b 00             	mov    (%rax),%rax
    7f58:	31 f1                	xor    %esi,%ecx
    7f5a:	66 89 08             	mov    %cx,(%rax)
    7f5d:	0f b7 00             	movzwl (%rax),%eax
    7f60:	0f b7 c0             	movzwl %ax,%eax
    7f63:	89 d6                	mov    %edx,%esi
    7f65:	89 c7                	mov    %eax,%edi
    7f67:	e8 f0 ed ff ff       	callq  6d5c <safe_mod_func_uint16_t_u_u>
    7f6c:	0f b6 15 c2 f5 00 00 	movzbl 0xf5c2(%rip),%edx        # 17535 <g_941+0x4>
    7f73:	c0 ea 05             	shr    $0x5,%dl
    7f76:	0f b6 d2             	movzbl %dl,%edx
    7f79:	0f b6 0d b6 f5 00 00 	movzbl 0xf5b6(%rip),%ecx        # 17536 <g_941+0x5>
    7f80:	48 c1 e1 03          	shl    $0x3,%rcx
    7f84:	48 09 ca             	or     %rcx,%rdx
    7f87:	66 39 d0             	cmp    %dx,%ax
    7f8a:	0f 92 c0             	setb   %al
    7f8d:	0f b6 d0             	movzbl %al,%edx
    7f90:	0f be 85 48 f7 ff ff 	movsbl -0x8b8(%rbp),%eax
    7f97:	39 c2                	cmp    %eax,%edx
    7f99:	0f 9e c0             	setle  %al
    7f9c:	0f b6 c0             	movzbl %al,%eax
    7f9f:	44 89 f6             	mov    %r14d,%esi
    7fa2:	89 c7                	mov    %eax,%edi
    7fa4:	e8 4c e4 ff ff       	callq  63f5 <safe_mul_func_int16_t_s_s>
    7fa9:	83 bd 5c f7 ff ff 00 	cmpl   $0x0,-0x8a4(%rbp)
    7fb0:	48 8b 05 51 0f 01 00 	mov    0x10f51(%rip),%rax        # 18f08 <g_389>
    7fb7:	48 8b 10             	mov    (%rax),%rdx
    7fba:	81 bd 5c f7 ff ff fb 	cmpl   $0xfffb,-0x8a4(%rbp)
    7fc1:	ff 00 00 
    7fc4:	0f 94 c0             	sete   %al
    7fc7:	0f b6 c0             	movzbl %al,%eax
    7fca:	48 39 c2             	cmp    %rax,%rdx
    7fcd:	0f 95 c0             	setne  %al
    7fd0:	0f b6 c0             	movzbl %al,%eax
    7fd3:	44 89 ee             	mov    %r13d,%esi
    7fd6:	89 c7                	mov    %eax,%edi
    7fd8:	e8 22 e7 ff ff       	callq  66ff <safe_div_func_int32_t_s_s>
    7fdd:	48 98                	cltq   
    7fdf:	4c 89 fe             	mov    %r15,%rsi
    7fe2:	48 89 c7             	mov    %rax,%rdi
    7fe5:	e8 57 e8 ff ff       	callq  6841 <safe_add_func_int64_t_s_s>
    7fea:	35 b5 5a 19 67       	xor    $0x67195ab5,%eax
    7fef:	89 c2                	mov    %eax,%edx
    7ff1:	48 8d 05 d0 f1 00 00 	lea    0xf1d0(%rip),%rax        # 171c8 <g_143>
    7ff8:	8b 8d 58 f7 ff ff    	mov    -0x8a8(%rbp),%ecx
    7ffe:	88 08                	mov    %cl,(%rax)
    8000:	0f b6 00             	movzbl (%rax),%eax
    8003:	0f be c0             	movsbl %al,%eax
    8006:	89 d6                	mov    %edx,%esi
    8008:	89 c7                	mov    %eax,%edi
    800a:	e8 92 e2 ff ff       	callq  62a1 <safe_lshift_func_int8_t_s_s>
    800f:	48 0f be c0          	movsbq %al,%rax
    8013:	4c 89 e6             	mov    %r12,%rsi
    8016:	48 89 c7             	mov    %rax,%rdi
    8019:	e8 8a e8 ff ff       	callq  68a8 <safe_sub_func_int64_t_s_s>
    801e:	8b 95 78 f7 ff ff    	mov    -0x888(%rbp),%edx
    8024:	48 63 d2             	movslq %edx,%rdx
    8027:	48 39 d0             	cmp    %rdx,%rax
    802a:	0f 9c c0             	setl   %al
    802d:	0f b6 c0             	movzbl %al,%eax
    8030:	39 85 5c f7 ff ff    	cmp    %eax,-0x8a4(%rbp)
    8036:	0f 95 c0             	setne  %al
    8039:	44 0f b6 e0          	movzbl %al,%r12d
    803d:	8b 95 4c f7 ff ff    	mov    -0x8b4(%rbp),%edx
    8043:	48 8b 05 7e 11 01 00 	mov    0x1117e(%rip),%rax        # 191c8 <g_856>
    804a:	8b 30                	mov    (%rax),%esi
    804c:	0f be 8d 48 f7 ff ff 	movsbl -0x8b8(%rbp),%ecx
    8053:	48 8b 05 6e 11 01 00 	mov    0x1116e(%rip),%rax        # 191c8 <g_856>
    805a:	21 f1                	and    %esi,%ecx
    805c:	89 08                	mov    %ecx,(%rax)
    805e:	8b 00                	mov    (%rax),%eax
    8060:	89 d6                	mov    %edx,%esi
    8062:	89 c7                	mov    %eax,%edi
    8064:	e8 4d e5 ff ff       	callq  65b6 <safe_add_func_int32_t_s_s>
    8069:	0f be c0             	movsbl %al,%eax
    806c:	44 89 e6             	mov    %r12d,%esi
    806f:	89 c7                	mov    %eax,%edi
    8071:	e8 5e e1 ff ff       	callq  61d4 <safe_add_func_int8_t_s_s>
    8076:	0f b6 c0             	movzbl %al,%eax
    8079:	89 de                	mov    %ebx,%esi
    807b:	89 c7                	mov    %eax,%edi
    807d:	e8 f6 ea ff ff       	callq  6b78 <safe_sub_func_uint8_t_u_u>
    8082:	84 c0                	test   %al,%al
    8084:	0f 84 b2 0a 00 00    	je     8b3c <func_5+0x10f5>
    808a:	48 c7 85 f0 f7 ff ff 	movq   $0x0,-0x810(%rbp)
    8091:	00 00 00 00 
    8095:	48 8d 85 f0 f7 ff ff 	lea    -0x810(%rbp),%rax
    809c:	48 89 85 40 f9 ff ff 	mov    %rax,-0x6c0(%rbp)
    80a3:	c7 85 c0 f9 ff ff fe 	movl   $0xbf19ebfe,-0x640(%rbp)
    80aa:	eb 19 bf 
    80ad:	c7 85 c4 f9 ff ff 6b 	movl   $0xe2c1f66b,-0x63c(%rbp)
    80b4:	f6 c1 e2 
    80b7:	c7 85 c8 f9 ff ff fe 	movl   $0xbf19ebfe,-0x638(%rbp)
    80be:	eb 19 bf 
    80c1:	c7 85 cc f9 ff ff 6b 	movl   $0xe2c1f66b,-0x634(%rbp)
    80c8:	f6 c1 e2 
    80cb:	c7 85 d0 f9 ff ff fe 	movl   $0xbf19ebfe,-0x630(%rbp)
    80d2:	eb 19 bf 
    80d5:	48 8d 05 70 ef 00 00 	lea    0xef70(%rip),%rax        # 1704c <g_126>
    80dc:	48 89 85 48 f9 ff ff 	mov    %rax,-0x6b8(%rbp)
    80e3:	48 8d 85 c0 fd ff ff 	lea    -0x240(%rbp),%rax
    80ea:	48 05 89 00 00 00    	add    $0x89,%rax
    80f0:	48 89 85 50 f9 ff ff 	mov    %rax,-0x6b0(%rbp)
    80f7:	48 8d 05 92 10 01 00 	lea    0x11092(%rip),%rax        # 19190 <g_811+0x10>
    80fe:	48 89 85 f8 f7 ff ff 	mov    %rax,-0x808(%rbp)
    8105:	48 8d 85 f8 f7 ff ff 	lea    -0x808(%rbp),%rax
    810c:	48 89 85 80 fc ff ff 	mov    %rax,-0x380(%rbp)
    8113:	48 8d 85 f8 f7 ff ff 	lea    -0x808(%rbp),%rax
    811a:	48 89 85 88 fc ff ff 	mov    %rax,-0x378(%rbp)
    8121:	48 8d 85 f8 f7 ff ff 	lea    -0x808(%rbp),%rax
    8128:	48 89 85 90 fc ff ff 	mov    %rax,-0x370(%rbp)
    812f:	48 8d 85 f8 f7 ff ff 	lea    -0x808(%rbp),%rax
    8136:	48 89 85 98 fc ff ff 	mov    %rax,-0x368(%rbp)
    813d:	48 8d 85 f8 f7 ff ff 	lea    -0x808(%rbp),%rax
    8144:	48 89 85 a0 fc ff ff 	mov    %rax,-0x360(%rbp)
    814b:	48 8d 85 f8 f7 ff ff 	lea    -0x808(%rbp),%rax
    8152:	48 89 85 a8 fc ff ff 	mov    %rax,-0x358(%rbp)
    8159:	48 8d 85 f8 f7 ff ff 	lea    -0x808(%rbp),%rax
    8160:	48 89 85 b0 fc ff ff 	mov    %rax,-0x350(%rbp)
    8167:	48 8d 85 f8 f7 ff ff 	lea    -0x808(%rbp),%rax
    816e:	48 89 85 b8 fc ff ff 	mov    %rax,-0x348(%rbp)
    8175:	48 c7 85 c0 fc ff ff 	movq   $0x0,-0x340(%rbp)
    817c:	00 00 00 00 
    8180:	48 8d 85 f8 f7 ff ff 	lea    -0x808(%rbp),%rax
    8187:	48 89 85 c8 fc ff ff 	mov    %rax,-0x338(%rbp)
    818e:	48 c7 85 d0 fc ff ff 	movq   $0x0,-0x330(%rbp)
    8195:	00 00 00 00 
    8199:	48 c7 85 d8 fc ff ff 	movq   $0x0,-0x328(%rbp)
    81a0:	00 00 00 00 
    81a4:	48 8d 85 f8 f7 ff ff 	lea    -0x808(%rbp),%rax
    81ab:	48 89 85 e0 fc ff ff 	mov    %rax,-0x320(%rbp)
    81b2:	48 c7 85 e8 fc ff ff 	movq   $0x0,-0x318(%rbp)
    81b9:	00 00 00 00 
    81bd:	48 8d 85 f8 f7 ff ff 	lea    -0x808(%rbp),%rax
    81c4:	48 89 85 f0 fc ff ff 	mov    %rax,-0x310(%rbp)
    81cb:	48 c7 85 f8 fc ff ff 	movq   $0x0,-0x308(%rbp)
    81d2:	00 00 00 00 
    81d6:	48 8d 85 f8 f7 ff ff 	lea    -0x808(%rbp),%rax
    81dd:	48 89 85 00 fd ff ff 	mov    %rax,-0x300(%rbp)
    81e4:	48 8d 85 f8 f7 ff ff 	lea    -0x808(%rbp),%rax
    81eb:	48 89 85 08 fd ff ff 	mov    %rax,-0x2f8(%rbp)
    81f2:	48 c7 85 10 fd ff ff 	movq   $0x0,-0x2f0(%rbp)
    81f9:	00 00 00 00 
    81fd:	48 8d 85 f8 f7 ff ff 	lea    -0x808(%rbp),%rax
    8204:	48 89 85 18 fd ff ff 	mov    %rax,-0x2e8(%rbp)
    820b:	48 c7 85 20 fd ff ff 	movq   $0x0,-0x2e0(%rbp)
    8212:	00 00 00 00 
    8216:	48 8d 85 f8 f7 ff ff 	lea    -0x808(%rbp),%rax
    821d:	48 89 85 28 fd ff ff 	mov    %rax,-0x2d8(%rbp)
    8224:	48 c7 85 30 fd ff ff 	movq   $0x0,-0x2d0(%rbp)
    822b:	00 00 00 00 
    822f:	48 c7 85 38 fd ff ff 	movq   $0x0,-0x2c8(%rbp)
    8236:	00 00 00 00 
    823a:	48 8d 85 f8 f7 ff ff 	lea    -0x808(%rbp),%rax
    8241:	48 89 85 40 fd ff ff 	mov    %rax,-0x2c0(%rbp)
    8248:	48 c7 85 48 fd ff ff 	movq   $0x0,-0x2b8(%rbp)
    824f:	00 00 00 00 
    8253:	48 8d 85 f8 f7 ff ff 	lea    -0x808(%rbp),%rax
    825a:	48 89 85 50 fd ff ff 	mov    %rax,-0x2b0(%rbp)
    8261:	48 c7 85 58 fd ff ff 	movq   $0x0,-0x2a8(%rbp)
    8268:	00 00 00 00 
    826c:	c7 85 8c f7 ff ff 00 	movl   $0x0,-0x874(%rbp)
    8273:	00 00 00 
    8276:	eb 4e                	jmp    82c6 <func_5+0x87f>
    8278:	c7 85 90 f7 ff ff 00 	movl   $0x0,-0x870(%rbp)
    827f:	00 00 00 
    8282:	eb 32                	jmp    82b6 <func_5+0x86f>
    8284:	8b 85 90 f7 ff ff    	mov    -0x870(%rbp),%eax
    828a:	48 63 c8             	movslq %eax,%rcx
    828d:	8b 85 8c f7 ff ff    	mov    -0x874(%rbp),%eax
    8293:	48 63 d0             	movslq %eax,%rdx
    8296:	48 89 d0             	mov    %rdx,%rax
    8299:	48 c1 e0 02          	shl    $0x2,%rax
    829d:	48 01 d0             	add    %rdx,%rax
    82a0:	48 01 c8             	add    %rcx,%rax
    82a3:	48 c7 84 c5 30 fa ff 	movq   $0x0,-0x5d0(%rbp,%rax,8)
    82aa:	ff 00 00 00 00 
    82af:	83 85 90 f7 ff ff 01 	addl   $0x1,-0x870(%rbp)
    82b6:	83 bd 90 f7 ff ff 04 	cmpl   $0x4,-0x870(%rbp)
    82bd:	7e c5                	jle    8284 <func_5+0x83d>
    82bf:	83 85 8c f7 ff ff 01 	addl   $0x1,-0x874(%rbp)
    82c6:	83 bd 8c f7 ff ff 00 	cmpl   $0x0,-0x874(%rbp)
    82cd:	7e a9                	jle    8278 <func_5+0x831>
    82cf:	48 8b 85 40 f9 ff ff 	mov    -0x6c0(%rbp),%rax
    82d6:	48 3b 85 18 f8 ff ff 	cmp    -0x7e8(%rbp),%rax
    82dd:	0f 95 c0             	setne  %al
    82e0:	0f b6 d0             	movzbl %al,%edx
    82e3:	8b 85 c0 f9 ff ff    	mov    -0x640(%rbp),%eax
    82e9:	39 c2                	cmp    %eax,%edx
    82eb:	0f 9c c0             	setl   %al
    82ee:	0f b6 d8             	movzbl %al,%ebx
    82f1:	48 8b 85 48 f9 ff ff 	mov    -0x6b8(%rbp),%rax
    82f8:	66 c7 00 00 00       	movw   $0x0,(%rax)
    82fd:	48 8d 05 c4 ee 00 00 	lea    0xeec4(%rip),%rax        # 171c8 <g_143>
    8304:	c6 00 8f             	movb   $0x8f,(%rax)
    8307:	48 8d 05 32 f0 00 00 	lea    0xf032(%rip),%rax        # 17340 <g_316+0x40>
    830e:	48 b9 0e bb 13 81 62 	movabs $0x6bec17628113bb0e,%rcx
    8315:	17 ec 6b 
    8318:	48 89 08             	mov    %rcx,(%rax)
    831b:	48 8b 00             	mov    (%rax),%rax
    831e:	48 83 f8 01          	cmp    $0x1,%rax
    8322:	8b 85 cc f9 ff ff    	mov    -0x634(%rbp),%eax
    8328:	f7 d0                	not    %eax
    832a:	c1 e8 1f             	shr    $0x1f,%eax
    832d:	0f b6 c0             	movzbl %al,%eax
    8330:	be 03 00 00 00       	mov    $0x3,%esi
    8335:	48 89 c7             	mov    %rax,%rdi
    8338:	e8 0e ed ff ff       	callq  704b <safe_sub_func_uint64_t_u_u>
    833d:	48 89 85 50 f7 ff ff 	mov    %rax,-0x8b0(%rbp)
    8344:	48 8b 85 50 f7 ff ff 	mov    -0x8b0(%rbp),%rax
    834b:	be 00 00 00 00       	mov    $0x0,%esi
    8350:	48 89 c7             	mov    %rax,%rdi
    8353:	e8 e9 e4 ff ff       	callq  6841 <safe_add_func_int64_t_s_s>
    8358:	8b 95 78 f7 ff ff    	mov    -0x888(%rbp),%edx
    835e:	48 63 d2             	movslq %edx,%rdx
    8361:	48 39 d0             	cmp    %rdx,%rax
    8364:	0f 9c c0             	setl   %al
    8367:	0f b6 c0             	movzbl %al,%eax
    836a:	31 c3                	xor    %eax,%ebx
    836c:	89 da                	mov    %ebx,%edx
    836e:	48 8b 85 50 f9 ff ff 	mov    -0x6b0(%rbp),%rax
    8375:	0f b6 00             	movzbl (%rax),%eax
    8378:	31 c2                	xor    %eax,%edx
    837a:	48 8b 85 50 f9 ff ff 	mov    -0x6b0(%rbp),%rax
    8381:	88 10                	mov    %dl,(%rax)
    8383:	48 8b 85 50 f9 ff ff 	mov    -0x6b0(%rbp),%rax
    838a:	0f b6 00             	movzbl (%rax),%eax
    838d:	0f be c0             	movsbl %al,%eax
    8390:	be 02 00 00 00       	mov    $0x2,%esi
    8395:	89 c7                	mov    %eax,%edi
    8397:	e8 99 df ff ff       	callq  6335 <safe_rshift_func_int8_t_s_s>
    839c:	0f be c0             	movsbl %al,%eax
    839f:	be f5 3c 00 00       	mov    $0x3cf5,%esi
    83a4:	89 c7                	mov    %eax,%edi
    83a6:	e8 4a e0 ff ff       	callq  63f5 <safe_mul_func_int16_t_s_s>
    83ab:	0f bf d0             	movswl %ax,%edx
    83ae:	8b 85 80 f7 ff ff    	mov    -0x880(%rbp),%eax
    83b4:	39 c2                	cmp    %eax,%edx
    83b6:	0f 8e 34 04 00 00    	jle    87f0 <func_5+0xda9>
    83bc:	48 8d 05 1d f4 00 00 	lea    0xf41d(%rip),%rax        # 177e0 <g_1093>
    83c3:	48 89 85 90 f9 ff ff 	mov    %rax,-0x670(%rbp)
    83ca:	48 c7 85 98 f9 ff ff 	movq   $0x0,-0x668(%rbp)
    83d1:	00 00 00 00 
    83d5:	c7 05 55 ec 00 00 00 	movl   $0x0,0xec55(%rip)        # 17034 <g_67>
    83dc:	00 00 00 
    83df:	e9 f8 03 00 00       	jmpq   87dc <func_5+0xd95>
    83e4:	48 8d 05 25 f3 00 00 	lea    0xf325(%rip),%rax        # 17710 <g_1091+0x1b0>
    83eb:	48 89 85 a0 f9 ff ff 	mov    %rax,-0x660(%rbp)
    83f2:	48 8d 05 17 0b 01 00 	lea    0x10b17(%rip),%rax        # 18f10 <g_388>
    83f9:	48 89 85 20 fb ff ff 	mov    %rax,-0x4e0(%rbp)
    8400:	48 8d 05 09 0b 01 00 	lea    0x10b09(%rip),%rax        # 18f10 <g_388>
    8407:	48 89 85 28 fb ff ff 	mov    %rax,-0x4d8(%rbp)
    840e:	48 8d 05 fb 0a 01 00 	lea    0x10afb(%rip),%rax        # 18f10 <g_388>
    8415:	48 89 85 30 fb ff ff 	mov    %rax,-0x4d0(%rbp)
    841c:	48 8d 05 ed 0a 01 00 	lea    0x10aed(%rip),%rax        # 18f10 <g_388>
    8423:	48 89 85 38 fb ff ff 	mov    %rax,-0x4c8(%rbp)
    842a:	48 8d 05 df 0a 01 00 	lea    0x10adf(%rip),%rax        # 18f10 <g_388>
    8431:	48 89 85 40 fb ff ff 	mov    %rax,-0x4c0(%rbp)
    8438:	48 8d 05 d1 0a 01 00 	lea    0x10ad1(%rip),%rax        # 18f10 <g_388>
    843f:	48 89 85 48 fb ff ff 	mov    %rax,-0x4b8(%rbp)
    8446:	48 8d 05 c3 0a 01 00 	lea    0x10ac3(%rip),%rax        # 18f10 <g_388>
    844d:	48 89 85 50 fb ff ff 	mov    %rax,-0x4b0(%rbp)
    8454:	48 8d 05 b5 0a 01 00 	lea    0x10ab5(%rip),%rax        # 18f10 <g_388>
    845b:	48 89 85 58 fb ff ff 	mov    %rax,-0x4a8(%rbp)
    8462:	48 b8 0a 72 49 3f 46 	movabs $0x1f7f19463f49720a,%rax
    8469:	19 7f 1f 
    846c:	48 89 85 a8 f9 ff ff 	mov    %rax,-0x658(%rbp)
    8473:	48 8d 05 6a ed 00 00 	lea    0xed6a(%rip),%rax        # 171e4 <g_220>
    847a:	48 89 85 b0 f9 ff ff 	mov    %rax,-0x650(%rbp)
    8481:	48 8b 15 d8 12 01 00 	mov    0x112d8(%rip),%rdx        # 19760 <g_1034>
    8488:	48 8b 05 d1 12 01 00 	mov    0x112d1(%rip),%rax        # 19760 <g_1034>
    848f:	8b 12                	mov    (%rdx),%edx
    8491:	89 10                	mov    %edx,(%rax)
    8493:	8b 85 78 f7 ff ff    	mov    -0x888(%rbp),%eax
    8499:	83 f8 3a             	cmp    $0x3a,%eax
    849c:	74 13                	je     84b1 <func_5+0xa6a>
    849e:	48 8b 85 a0 f9 ff ff 	mov    -0x660(%rbp),%rax
    84a5:	48 89 85 90 f9 ff ff 	mov    %rax,-0x670(%rbp)
    84ac:	e9 7f 01 00 00       	jmpq   8630 <func_5+0xbe9>
    84b1:	66 c7 85 76 f7 ff ff 	movw   $0x0,-0x88a(%rbp)
    84b8:	00 00 
    84ba:	48 8d 05 2f 0c 01 00 	lea    0x10c2f(%rip),%rax        # 190f0 <g_736+0x50>
    84c1:	48 89 85 b8 f9 ff ff 	mov    %rax,-0x648(%rbp)
    84c8:	66 83 bd 76 f7 ff ff 	cmpw   $0x0,-0x88a(%rbp)
    84cf:	00 
    84d0:	0f 85 db 08 00 00    	jne    8db1 <func_5+0x136a>
    84d6:	8b 85 d0 f9 ff ff    	mov    -0x630(%rbp),%eax
    84dc:	0f bf d8             	movswl %ax,%ebx
    84df:	8b 85 80 f7 ff ff    	mov    -0x880(%rbp),%eax
    84e5:	41 89 c5             	mov    %eax,%r13d
    84e8:	8b 85 c0 f9 ff ff    	mov    -0x640(%rbp),%eax
    84ee:	4c 63 e0             	movslq %eax,%r12
    84f1:	48 8b 05 d8 0c 01 00 	mov    0x10cd8(%rip),%rax        # 191d0 <g_883>
    84f8:	48 8b 10             	mov    (%rax),%rdx
    84fb:	48 8b 05 ce 0c 01 00 	mov    0x10cce(%rip),%rax        # 191d0 <g_883>
    8502:	48 8b 00             	mov    (%rax),%rax
    8505:	0f b7 12             	movzwl (%rdx),%edx
    8508:	66 89 10             	mov    %dx,(%rax)
    850b:	0f b7 00             	movzwl (%rax),%eax
    850e:	66 85 c0             	test   %ax,%ax
    8511:	74 0d                	je     8520 <func_5+0xad9>
    8513:	48 8b 05 c6 0c 01 00 	mov    0x10cc6(%rip),%rax        # 191e0 <g_889>
    851a:	48 8b 00             	mov    (%rax),%rax
    851d:	48 85 c0             	test   %rax,%rax
    8520:	48 8d 05 a1 ec 00 00 	lea    0xeca1(%rip),%rax        # 171c8 <g_143>
    8527:	0f b6 00             	movzbl (%rax),%eax
    852a:	84 c0                	test   %al,%al
    852c:	74 29                	je     8557 <func_5+0xb10>
    852e:	8b 85 4c f7 ff ff    	mov    -0x8b4(%rbp),%eax
    8534:	48 98                	cltq   
    8536:	0f b6 55 c3          	movzbl -0x3d(%rbp),%edx
    853a:	48 0f be d2          	movsbq %dl,%rdx
    853e:	48 b9 24 ea 94 ba 44 	movabs $0x5d94bf44ba94ea24,%rcx
    8545:	bf 94 5d 
    8548:	48 09 ca             	or     %rcx,%rdx
    854b:	48 39 d0             	cmp    %rdx,%rax
    854e:	7d 07                	jge    8557 <func_5+0xb10>
    8550:	b8 01 00 00 00       	mov    $0x1,%eax
    8555:	eb 05                	jmp    855c <func_5+0xb15>
    8557:	b8 00 00 00 00       	mov    $0x0,%eax
    855c:	0f b7 c0             	movzwl %ax,%eax
    855f:	be 03 00 00 00       	mov    $0x3,%esi
    8564:	89 c7                	mov    %eax,%edi
    8566:	e8 9b e8 ff ff       	callq  6e06 <safe_lshift_func_uint16_t_u_u>
    856b:	0f b7 c8             	movzwl %ax,%ecx
    856e:	48 8b 95 38 fb ff ff 	mov    -0x4c8(%rbp),%rdx
    8575:	48 8b 85 b8 f9 ff ff 	mov    -0x648(%rbp),%rax
    857c:	48 89 10             	mov    %rdx,(%rax)
    857f:	48 8b 85 b8 f9 ff ff 	mov    -0x648(%rbp),%rax
    8586:	48 8b 00             	mov    (%rax),%rax
    8589:	48 39 85 98 f9 ff ff 	cmp    %rax,-0x668(%rbp)
    8590:	0f 94 c0             	sete   %al
    8593:	0f b6 c0             	movzbl %al,%eax
    8596:	39 c1                	cmp    %eax,%ecx
    8598:	0f 9f c0             	setg   %al
    859b:	0f b6 d0             	movzbl %al,%edx
    859e:	8b 85 c0 f9 ff ff    	mov    -0x640(%rbp),%eax
    85a4:	89 d6                	mov    %edx,%esi
    85a6:	89 c7                	mov    %eax,%edi
    85a8:	e8 58 e0 ff ff       	callq  6605 <safe_sub_func_int32_t_s_s>
    85ad:	8b 85 80 f7 ff ff    	mov    -0x880(%rbp),%eax
    85b3:	48 98                	cltq   
    85b5:	48 89 85 50 f7 ff ff 	mov    %rax,-0x8b0(%rbp)
    85bc:	48 8b 05 45 09 01 00 	mov    0x10945(%rip),%rax        # 18f08 <g_389>
    85c3:	48 8b 95 50 f7 ff ff 	mov    -0x8b0(%rbp),%rdx
    85ca:	48 89 10             	mov    %rdx,(%rax)
    85cd:	48 8b 00             	mov    (%rax),%rax
    85d0:	4c 89 e6             	mov    %r12,%rsi
    85d3:	48 89 c7             	mov    %rax,%rdi
    85d6:	e8 d9 e3 ff ff       	callq  69b4 <safe_mod_func_int64_t_s_s>
    85db:	44 89 ee             	mov    %r13d,%esi
    85de:	bf 01 00 00 00       	mov    $0x1,%edi
    85e3:	e8 f9 de ff ff       	callq  64e1 <safe_lshift_func_int16_t_s_u>
    85e8:	48 8b 95 48 f9 ff ff 	mov    -0x6b8(%rbp),%rdx
    85ef:	66 89 02             	mov    %ax,(%rdx)
    85f2:	48 8b 85 48 f9 ff ff 	mov    -0x6b8(%rbp),%rax
    85f9:	0f b7 00             	movzwl (%rax),%eax
    85fc:	98                   	cwtl   
    85fd:	89 de                	mov    %ebx,%esi
    85ff:	89 c7                	mov    %eax,%edi
    8601:	e8 10 de ff ff       	callq  6416 <safe_mod_func_int16_t_s_s>
    8606:	89 c2                	mov    %eax,%edx
    8608:	48 8b 05 51 11 01 00 	mov    0x11151(%rip),%rax        # 19760 <g_1034>
    860f:	0f bf d2             	movswl %dx,%edx
    8612:	89 10                	mov    %edx,(%rax)
    8614:	48 83 bd a8 f9 ff ff 	cmpq   $0x0,-0x658(%rbp)
    861b:	00 
    861c:	0f 85 aa 01 00 00    	jne    87cc <func_5+0xd85>
    8622:	48 8b 85 b0 f9 ff ff 	mov    -0x650(%rbp),%rax
    8629:	48 89 85 10 f8 ff ff 	mov    %rax,-0x7f0(%rbp)
    8630:	48 c7 05 f5 ed 00 00 	movq   $0x0,0xedf5(%rip)        # 17430 <g_647>
    8637:	00 00 00 00 
    863b:	e9 3c 01 00 00       	jmpq   877c <func_5+0xd35>
    8640:	c7 85 d4 f7 ff ff e3 	movl   $0xb34e0ae3,-0x82c(%rbp)
    8647:	0a 4e b3 
    864a:	80 bd 48 f7 ff ff 00 	cmpb   $0x0,-0x8b8(%rbp)
    8651:	0f 85 37 01 00 00    	jne    878e <func_5+0xd47>
    8657:	48 8b 15 0a 11 01 00 	mov    0x1110a(%rip),%rdx        # 19768 <g_1113>
    865e:	48 8d 85 4c f7 ff ff 	lea    -0x8b4(%rbp),%rax
    8665:	48 39 c2             	cmp    %rax,%rdx
    8668:	0f 85 c6 00 00 00    	jne    8734 <func_5+0xced>
    866e:	8b 9d 58 f7 ff ff    	mov    -0x8a8(%rbp),%ebx
    8674:	8b 85 4c f7 ff ff    	mov    -0x8b4(%rbp),%eax
    867a:	4c 63 e0             	movslq %eax,%r12
    867d:	0f b6 45 c3          	movzbl -0x3d(%rbp),%eax
    8681:	44 0f be e8          	movsbl %al,%r13d
    8685:	48 83 bd 50 f7 ff ff 	cmpq   $0x0,-0x8b0(%rbp)
    868c:	00 
    868d:	0f 94 c0             	sete   %al
    8690:	0f b6 c0             	movzbl %al,%eax
    8693:	be 01 00 00 00       	mov    $0x1,%esi
    8698:	89 c7                	mov    %eax,%edi
    869a:	e8 8b de ff ff       	callq  652a <safe_rshift_func_int16_t_s_s>
    869f:	48 0f bf c0          	movswq %ax,%rax
    86a3:	48 c7 c6 fe ff ff ff 	mov    $0xfffffffffffffffe,%rsi
    86aa:	48 89 c7             	mov    %rax,%rdi
    86ad:	e8 ce e9 ff ff       	callq  7080 <safe_mod_func_uint64_t_u_u>
    86b2:	48 8b 95 10 f8 ff ff 	mov    -0x7f0(%rbp),%rdx
    86b9:	8b 12                	mov    (%rdx),%edx
    86bb:	48 63 d2             	movslq %edx,%rdx
    86be:	48 39 d0             	cmp    %rdx,%rax
    86c1:	0f 94 c0             	sete   %al
    86c4:	0f b6 c0             	movzbl %al,%eax
    86c7:	be 02 00 00 00       	mov    $0x2,%esi
    86cc:	89 c7                	mov    %eax,%edi
    86ce:	e8 5e db ff ff       	callq  6231 <safe_mod_func_int8_t_s_s>
    86d3:	0f be c0             	movsbl %al,%eax
    86d6:	39 85 d4 f7 ff ff    	cmp    %eax,-0x82c(%rbp)
    86dc:	0f 9c c0             	setl   %al
    86df:	0f b6 c0             	movzbl %al,%eax
    86e2:	44 89 ea             	mov    %r13d,%edx
    86e5:	09 c2                	or     %eax,%edx
    86e7:	48 8b 85 10 f8 ff ff 	mov    -0x7f0(%rbp),%rax
    86ee:	89 10                	mov    %edx,(%rax)
    86f0:	48 8b 85 10 f8 ff ff 	mov    -0x7f0(%rbp),%rax
    86f7:	8b 00                	mov    (%rax),%eax
    86f9:	0f b6 c0             	movzbl %al,%eax
    86fc:	be 06 00 00 00       	mov    $0x6,%esi
    8701:	89 c7                	mov    %eax,%edi
    8703:	e8 b6 e5 ff ff       	callq  6cbe <safe_rshift_func_uint8_t_u_u>
    8708:	4c 89 e6             	mov    %r12,%rsi
    870b:	bf 01 00 00 00       	mov    $0x1,%edi
    8710:	e8 36 e9 ff ff       	callq  704b <safe_sub_func_uint64_t_u_u>
    8715:	89 de                	mov    %ebx,%esi
    8717:	89 c7                	mov    %eax,%edi
    8719:	e8 e7 de ff ff       	callq  6605 <safe_sub_func_int32_t_s_s>
    871e:	0f be c0             	movsbl %al,%eax
    8721:	89 c6                	mov    %eax,%esi
    8723:	bf 01 00 00 00       	mov    $0x1,%edi
    8728:	e8 e5 da ff ff       	callq  6212 <safe_mul_func_int8_t_s_s>
    872d:	b8 01 00 00 00       	mov    $0x1,%eax
    8732:	eb 05                	jmp    8739 <func_5+0xcf2>
    8734:	b8 00 00 00 00       	mov    $0x0,%eax
    8739:	35 ff ff 00 00       	xor    $0xffff,%eax
    873e:	48 63 d0             	movslq %eax,%rdx
    8741:	48 8b 05 18 10 01 00 	mov    0x11018(%rip),%rax        # 19760 <g_1034>
    8748:	8b 00                	mov    (%rax),%eax
    874a:	89 c1                	mov    %eax,%ecx
    874c:	89 d0                	mov    %edx,%eax
    874e:	31 c1                	xor    %eax,%ecx
    8750:	89 ca                	mov    %ecx,%edx
    8752:	48 8b 05 07 10 01 00 	mov    0x11007(%rip),%rax        # 19760 <g_1034>
    8759:	89 10                	mov    %edx,(%rax)
    875b:	8b 95 5c f7 ff ff    	mov    -0x8a4(%rbp),%edx
    8761:	48 8b 85 b0 f9 ff ff 	mov    -0x650(%rbp),%rax
    8768:	89 10                	mov    %edx,(%rax)
    876a:	48 8b 05 bf ec 00 00 	mov    0xecbf(%rip),%rax        # 17430 <g_647>
    8771:	48 83 c0 01          	add    $0x1,%rax
    8775:	48 89 05 b4 ec 00 00 	mov    %rax,0xecb4(%rip)        # 17430 <g_647>
    877c:	48 8b 05 ad ec 00 00 	mov    0xecad(%rip),%rax        # 17430 <g_647>
    8783:	48 85 c0             	test   %rax,%rax
    8786:	0f 84 b4 fe ff ff    	je     8640 <func_5+0xbf9>
    878c:	eb 01                	jmp    878f <func_5+0xd48>
    878e:	90                   	nop
    878f:	8b 95 c0 f9 ff ff    	mov    -0x640(%rbp),%edx
    8795:	0f b6 85 6e f7 ff ff 	movzbl -0x892(%rbp),%eax
    879c:	0f b6 c0             	movzbl %al,%eax
    879f:	89 d6                	mov    %edx,%esi
    87a1:	89 c7                	mov    %eax,%edi
    87a3:	e8 16 e6 ff ff       	callq  6dbe <safe_lshift_func_uint16_t_u_s>
    87a8:	48 8b 15 b1 0f 01 00 	mov    0x10fb1(%rip),%rdx        # 19760 <g_1034>
    87af:	8b 0a                	mov    (%rdx),%ecx
    87b1:	0f b7 d0             	movzwl %ax,%edx
    87b4:	48 8b 05 a5 0f 01 00 	mov    0x10fa5(%rip),%rax        # 19760 <g_1034>
    87bb:	21 ca                	and    %ecx,%edx
    87bd:	89 10                	mov    %edx,(%rax)
    87bf:	8b 10                	mov    (%rax),%edx
    87c1:	48 8b 85 b0 f9 ff ff 	mov    -0x650(%rbp),%rax
    87c8:	89 10                	mov    %edx,(%rax)
    87ca:	eb 01                	jmp    87cd <func_5+0xd86>
    87cc:	90                   	nop
    87cd:	8b 05 61 e8 00 00    	mov    0xe861(%rip),%eax        # 17034 <g_67>
    87d3:	83 c0 01             	add    $0x1,%eax
    87d6:	89 05 58 e8 00 00    	mov    %eax,0xe858(%rip)        # 17034 <g_67>
    87dc:	8b 05 52 e8 00 00    	mov    0xe852(%rip),%eax        # 17034 <g_67>
    87e2:	83 f8 14             	cmp    $0x14,%eax
    87e5:	0f 85 f9 fb ff ff    	jne    83e4 <func_5+0x99d>
    87eb:	e9 c2 05 00 00       	jmpq   8db2 <func_5+0x136b>
    87f0:	48 8d 85 f8 f7 ff ff 	lea    -0x808(%rbp),%rax
    87f7:	48 89 85 58 f9 ff ff 	mov    %rax,-0x6a8(%rbp)
    87fe:	c7 85 d0 f7 ff ff c6 	movl   $0x257b11c6,-0x830(%rbp)
    8805:	11 7b 25 
    8808:	48 c7 85 60 f9 ff ff 	movq   $0x0,-0x6a0(%rbp)
    880f:	00 00 00 00 
    8813:	48 c7 85 68 f9 ff ff 	movq   $0x0,-0x698(%rbp)
    881a:	00 00 00 00 
    881e:	48 c7 85 70 f9 ff ff 	movq   $0x0,-0x690(%rbp)
    8825:	00 00 00 00 
    8829:	48 c7 85 78 f9 ff ff 	movq   $0x0,-0x688(%rbp)
    8830:	00 00 00 00 
    8834:	48 c7 85 90 fa ff ff 	movq   $0x0,-0x570(%rbp)
    883b:	00 00 00 00 
    883f:	48 c7 85 98 fa ff ff 	movq   $0x0,-0x568(%rbp)
    8846:	00 00 00 00 
    884a:	48 c7 85 a0 fa ff ff 	movq   $0x0,-0x560(%rbp)
    8851:	00 00 00 00 
    8855:	48 c7 85 a8 fa ff ff 	movq   $0x0,-0x558(%rbp)
    885c:	00 00 00 00 
    8860:	48 c7 85 b0 fa ff ff 	movq   $0x0,-0x550(%rbp)
    8867:	00 00 00 00 
    886b:	48 c7 85 b8 fa ff ff 	movq   $0x0,-0x548(%rbp)
    8872:	00 00 00 00 
    8876:	48 8d 05 d3 ef 00 00 	lea    0xefd3(%rip),%rax        # 17850 <g_1169+0x50>
    887d:	48 89 85 00 f8 ff ff 	mov    %rax,-0x800(%rbp)
    8884:	48 8d 85 00 f8 ff ff 	lea    -0x800(%rbp),%rax
    888b:	48 89 85 20 fb ff ff 	mov    %rax,-0x4e0(%rbp)
    8892:	48 8d 85 00 f8 ff ff 	lea    -0x800(%rbp),%rax
    8899:	48 89 85 28 fb ff ff 	mov    %rax,-0x4d8(%rbp)
    88a0:	48 8d 85 00 f8 ff ff 	lea    -0x800(%rbp),%rax
    88a7:	48 89 85 30 fb ff ff 	mov    %rax,-0x4d0(%rbp)
    88ae:	48 8d 85 00 f8 ff ff 	lea    -0x800(%rbp),%rax
    88b5:	48 89 85 38 fb ff ff 	mov    %rax,-0x4c8(%rbp)
    88bc:	48 8d 85 00 f8 ff ff 	lea    -0x800(%rbp),%rax
    88c3:	48 89 85 40 fb ff ff 	mov    %rax,-0x4c0(%rbp)
    88ca:	48 8d 85 00 f8 ff ff 	lea    -0x800(%rbp),%rax
    88d1:	48 89 85 48 fb ff ff 	mov    %rax,-0x4b8(%rbp)
    88d8:	48 8d 85 00 f8 ff ff 	lea    -0x800(%rbp),%rax
    88df:	48 89 85 50 fb ff ff 	mov    %rax,-0x4b0(%rbp)
    88e6:	48 8d 85 00 f8 ff ff 	lea    -0x800(%rbp),%rax
    88ed:	48 89 85 58 fb ff ff 	mov    %rax,-0x4a8(%rbp)
    88f4:	48 8d 85 00 f8 ff ff 	lea    -0x800(%rbp),%rax
    88fb:	48 89 85 60 fb ff ff 	mov    %rax,-0x4a0(%rbp)
    8902:	48 8d 85 20 fb ff ff 	lea    -0x4e0(%rbp),%rax
    8909:	48 83 c0 38          	add    $0x38,%rax
    890d:	48 89 85 08 f8 ff ff 	mov    %rax,-0x7f8(%rbp)
    8914:	48 8d 85 08 f8 ff ff 	lea    -0x7f8(%rbp),%rax
    891b:	48 89 85 80 f9 ff ff 	mov    %rax,-0x680(%rbp)
    8922:	48 8d 05 c7 e9 00 00 	lea    0xe9c7(%rip),%rax        # 172f0 <g_282>
    8929:	48 89 85 88 f9 ff ff 	mov    %rax,-0x678(%rbp)
    8930:	48 8b 85 50 f7 ff ff 	mov    -0x8b0(%rbp),%rax
    8937:	0f bf d8             	movswl %ax,%ebx
    893a:	48 8d 05 87 e8 00 00 	lea    0xe887(%rip),%rax        # 171c8 <g_143>
    8941:	0f b6 00             	movzbl (%rax),%eax
    8944:	44 0f be e0          	movsbl %al,%r12d
    8948:	48 8b 85 10 f8 ff ff 	mov    -0x7f0(%rbp),%rax
    894f:	8b 10                	mov    (%rax),%edx
    8951:	48 8b 85 28 fd ff ff 	mov    -0x2d8(%rbp),%rax
    8958:	48 39 85 58 f9 ff ff 	cmp    %rax,-0x6a8(%rbp)
    895f:	0f 95 c0             	setne  %al
    8962:	0f b6 c0             	movzbl %al,%eax
    8965:	09 c2                	or     %eax,%edx
    8967:	41 89 d6             	mov    %edx,%r14d
    896a:	48 83 bd 20 f8 ff ff 	cmpq   $0x0,-0x7e0(%rbp)
    8971:	00 
    8972:	0f 95 c0             	setne  %al
    8975:	0f b6 c0             	movzbl %al,%eax
    8978:	be 07 00 00 00       	mov    $0x7,%esi
    897d:	89 c7                	mov    %eax,%edi
    897f:	e8 09 e3 ff ff       	callq  6c8d <safe_rshift_func_uint8_t_u_s>
    8984:	44 0f b6 e8          	movzbl %al,%r13d
    8988:	48 8b 85 10 f8 ff ff 	mov    -0x7f0(%rbp),%rax
    898f:	8b 10                	mov    (%rax),%edx
    8991:	0f b6 85 6e f7 ff ff 	movzbl -0x892(%rbp),%eax
    8998:	84 c0                	test   %al,%al
    899a:	0f 95 c0             	setne  %al
    899d:	0f b6 c0             	movzbl %al,%eax
    89a0:	39 85 58 f7 ff ff    	cmp    %eax,-0x8a8(%rbp)
    89a6:	0f 94 c0             	sete   %al
    89a9:	0f b6 c0             	movzbl %al,%eax
    89ac:	89 d6                	mov    %edx,%esi
    89ae:	89 c7                	mov    %eax,%edi
    89b0:	e8 80 d9 ff ff       	callq  6335 <safe_rshift_func_int8_t_s_s>
    89b5:	0f be c0             	movsbl %al,%eax
    89b8:	44 89 ea             	mov    %r13d,%edx
    89bb:	09 c2                	or     %eax,%edx
    89bd:	0f be 85 48 f7 ff ff 	movsbl -0x8b8(%rbp),%eax
    89c4:	09 d0                	or     %edx,%eax
    89c6:	41 39 c6             	cmp    %eax,%r14d
    89c9:	0f 9e c0             	setle  %al
    89cc:	0f b6 c0             	movzbl %al,%eax
    89cf:	44 89 e6             	mov    %r12d,%esi
    89d2:	89 c7                	mov    %eax,%edi
    89d4:	e8 c8 d8 ff ff       	callq  62a1 <safe_lshift_func_int8_t_s_s>
    89d9:	0f b6 85 6e f7 ff ff 	movzbl -0x892(%rbp),%eax
    89e0:	84 c0                	test   %al,%al
    89e2:	0f 95 c2             	setne  %dl
    89e5:	48 8d 05 dc e7 00 00 	lea    0xe7dc(%rip),%rax        # 171c8 <g_143>
    89ec:	88 10                	mov    %dl,(%rax)
    89ee:	48 8b 85 10 f8 ff ff 	mov    -0x7f0(%rbp),%rax
    89f5:	8b 00                	mov    (%rax),%eax
    89f7:	83 f0 1a             	xor    $0x1a,%eax
    89fa:	0f b7 c0             	movzwl %ax,%eax
    89fd:	be ff ff 00 00       	mov    $0xffff,%esi
    8a02:	89 c7                	mov    %eax,%edi
    8a04:	e8 85 e3 ff ff       	callq  6d8e <safe_div_func_uint16_t_u_u>
    8a09:	48 83 bd 10 f8 ff ff 	cmpq   $0x0,-0x7f0(%rbp)
    8a10:	00 
    8a11:	0f 95 c0             	setne  %al
    8a14:	0f b6 d0             	movzbl %al,%edx
    8a17:	8b 85 c0 f9 ff ff    	mov    -0x640(%rbp),%eax
    8a1d:	48 98                	cltq   
    8a1f:	48 89 d6             	mov    %rdx,%rsi
    8a22:	48 89 c7             	mov    %rax,%rdi
    8a25:	e8 21 e6 ff ff       	callq  704b <safe_sub_func_uint64_t_u_u>
    8a2a:	98                   	cwtl   
    8a2b:	89 de                	mov    %ebx,%esi
    8a2d:	89 c7                	mov    %eax,%edi
    8a2f:	e8 9f d9 ff ff       	callq  63d3 <safe_sub_func_int16_t_s_s>
    8a34:	98                   	cwtl   
    8a35:	89 85 d0 f7 ff ff    	mov    %eax,-0x830(%rbp)
    8a3b:	8b 8d d0 f7 ff ff    	mov    -0x830(%rbp),%ecx
    8a41:	48 8b 05 18 0d 01 00 	mov    0x10d18(%rip),%rax        # 19760 <g_1034>
    8a48:	8b 10                	mov    (%rax),%edx
    8a4a:	48 8b 05 0f 0d 01 00 	mov    0x10d0f(%rip),%rax        # 19760 <g_1034>
    8a51:	31 ca                	xor    %ecx,%edx
    8a53:	89 10                	mov    %edx,(%rax)
    8a55:	48 8b 85 10 f8 ff ff 	mov    -0x7f0(%rbp),%rax
    8a5c:	8b 00                	mov    (%rax),%eax
    8a5e:	89 c2                	mov    %eax,%edx
    8a60:	48 8b 85 48 f9 ff ff 	mov    -0x6b8(%rbp),%rax
    8a67:	66 89 10             	mov    %dx,(%rax)
    8a6a:	48 8b 85 48 f9 ff ff 	mov    -0x6b8(%rbp),%rax
    8a71:	0f b7 00             	movzwl (%rax),%eax
    8a74:	98                   	cwtl   
    8a75:	be 03 00 00 00       	mov    $0x3,%esi
    8a7a:	89 c7                	mov    %eax,%edi
    8a7c:	e8 a9 da ff ff       	callq  652a <safe_rshift_func_int16_t_s_s>
    8a81:	48 8d 05 c0 06 01 00 	lea    0x106c0(%rip),%rax        # 19148 <g_736+0xa8>
    8a88:	48 89 85 28 f8 ff ff 	mov    %rax,-0x7d8(%rbp)
    8a8f:	48 8b 85 38 fa ff ff 	mov    -0x5c8(%rbp),%rax
    8a96:	48 89 85 80 f9 ff ff 	mov    %rax,-0x680(%rbp)
    8a9d:	48 8d 05 a4 06 01 00 	lea    0x106a4(%rip),%rax        # 19148 <g_736+0xa8>
    8aa4:	48 39 85 80 f9 ff ff 	cmp    %rax,-0x680(%rbp)
    8aab:	74 55                	je     8b02 <func_5+0x10bb>
    8aad:	81 bd 58 f7 ff ff c7 	cmpl   $0x1c7,-0x8a8(%rbp)
    8ab4:	01 00 00 
    8ab7:	0f 96 c0             	setbe  %al
    8aba:	0f b6 c0             	movzbl %al,%eax
    8abd:	be 07 00 00 00       	mov    $0x7,%esi
    8ac2:	89 c7                	mov    %eax,%edi
    8ac4:	e8 f5 e2 ff ff       	callq  6dbe <safe_lshift_func_uint16_t_u_s>
    8ac9:	0f b7 d0             	movzwl %ax,%edx
    8acc:	8b 85 4c f7 ff ff    	mov    -0x8b4(%rbp),%eax
    8ad2:	89 c1                	mov    %eax,%ecx
    8ad4:	48 8d 05 65 e8 00 00 	lea    0xe865(%rip),%rax        # 17340 <g_316+0x40>
    8adb:	48 8b 00             	mov    (%rax),%rax
    8ade:	31 c8                	xor    %ecx,%eax
    8ae0:	89 c1                	mov    %eax,%ecx
    8ae2:	48 8b 85 88 f9 ff ff 	mov    -0x678(%rbp),%rax
    8ae9:	66 89 08             	mov    %cx,(%rax)
    8aec:	48 8b 85 88 f9 ff ff 	mov    -0x678(%rbp),%rax
    8af3:	0f b7 00             	movzwl (%rax),%eax
    8af6:	98                   	cwtl   
    8af7:	39 c2                	cmp    %eax,%edx
    8af9:	74 07                	je     8b02 <func_5+0x10bb>
    8afb:	b8 01 00 00 00       	mov    $0x1,%eax
    8b00:	eb 05                	jmp    8b07 <func_5+0x10c0>
    8b02:	b8 00 00 00 00       	mov    $0x0,%eax
    8b07:	83 f8 69             	cmp    $0x69,%eax
    8b0a:	8b 85 4c f7 ff ff    	mov    -0x8b4(%rbp),%eax
    8b10:	0f b6 c0             	movzbl %al,%eax
    8b13:	be 00 00 00 00       	mov    $0x0,%esi
    8b18:	89 c7                	mov    %eax,%edi
    8b1a:	e8 74 e0 ff ff       	callq  6b93 <safe_mul_func_uint8_t_u_u>
    8b1f:	0f b6 c0             	movzbl %al,%eax
    8b22:	39 85 58 f7 ff ff    	cmp    %eax,-0x8a8(%rbp)
    8b28:	0f 92 c2             	setb   %dl
    8b2b:	48 8b 05 2e 0c 01 00 	mov    0x10c2e(%rip),%rax        # 19760 <g_1034>
    8b32:	0f b6 d2             	movzbl %dl,%edx
    8b35:	89 10                	mov    %edx,(%rax)
    8b37:	e9 76 02 00 00       	jmpq   8db2 <func_5+0x136b>
    8b3c:	48 8d 85 80 f7 ff ff 	lea    -0x880(%rbp),%rax
    8b43:	48 89 85 a8 f8 ff ff 	mov    %rax,-0x758(%rbp)
    8b4a:	48 c7 85 b0 f8 ff ff 	movq   $0x0,-0x750(%rbp)
    8b51:	00 00 00 00 
    8b55:	c7 85 08 f8 ff ff a4 	movl   $0x8468e8a4,-0x7f8(%rbp)
    8b5c:	e8 68 84 
    8b5f:	48 8d 05 c6 e4 00 00 	lea    0xe4c6(%rip),%rax        # 1702c <g_49>
    8b66:	48 89 85 b8 f8 ff ff 	mov    %rax,-0x748(%rbp)
    8b6d:	48 8d 05 80 e9 00 00 	lea    0xe980(%rip),%rax        # 174f4 <g_857>
    8b74:	48 89 85 c0 f8 ff ff 	mov    %rax,-0x740(%rbp)
    8b7b:	48 8d 85 08 f8 ff ff 	lea    -0x7f8(%rbp),%rax
    8b82:	48 89 85 c8 f8 ff ff 	mov    %rax,-0x738(%rbp)
    8b89:	48 8d 05 54 e6 00 00 	lea    0xe654(%rip),%rax        # 171e4 <g_220>
    8b90:	48 89 85 d0 f8 ff ff 	mov    %rax,-0x730(%rbp)
    8b97:	48 8d 05 06 e7 00 00 	lea    0xe706(%rip),%rax        # 172a4 <g_275>
    8b9e:	48 89 85 d8 f8 ff ff 	mov    %rax,-0x728(%rbp)
    8ba5:	48 8d 05 20 e6 00 00 	lea    0xe620(%rip),%rax        # 171cc <g_180>
    8bac:	48 89 85 e0 f8 ff ff 	mov    %rax,-0x720(%rbp)
    8bb3:	48 8d 05 72 e4 00 00 	lea    0xe472(%rip),%rax        # 1702c <g_49>
    8bba:	48 89 85 e8 f8 ff ff 	mov    %rax,-0x718(%rbp)
    8bc1:	48 8d 05 64 e4 00 00 	lea    0xe464(%rip),%rax        # 1702c <g_49>
    8bc8:	48 89 85 f0 f8 ff ff 	mov    %rax,-0x710(%rbp)
    8bcf:	48 8d 85 78 f7 ff ff 	lea    -0x888(%rbp),%rax
    8bd6:	48 89 85 f8 f8 ff ff 	mov    %rax,-0x708(%rbp)
    8bdd:	48 8d 85 80 f7 ff ff 	lea    -0x880(%rbp),%rax
    8be4:	48 89 85 00 f9 ff ff 	mov    %rax,-0x700(%rbp)
    8beb:	48 8d 85 08 f8 ff ff 	lea    -0x7f8(%rbp),%rax
    8bf2:	48 89 85 08 f9 ff ff 	mov    %rax,-0x6f8(%rbp)
    8bf9:	48 c7 85 10 f9 ff ff 	movq   $0x0,-0x6f0(%rbp)
    8c00:	00 00 00 00 
    8c04:	48 8d 05 99 e6 00 00 	lea    0xe699(%rip),%rax        # 172a4 <g_275>
    8c0b:	48 89 85 18 f9 ff ff 	mov    %rax,-0x6e8(%rbp)
    8c12:	48 8d 85 08 f8 ff ff 	lea    -0x7f8(%rbp),%rax
    8c19:	48 89 85 20 f9 ff ff 	mov    %rax,-0x6e0(%rbp)
    8c20:	48 8d 85 78 f7 ff ff 	lea    -0x888(%rbp),%rax
    8c27:	48 89 85 28 f9 ff ff 	mov    %rax,-0x6d8(%rbp)
    8c2e:	48 8d 05 c7 e6 00 00 	lea    0xe6c7(%rip),%rax        # 172fc <g_315>
    8c35:	48 89 85 30 f9 ff ff 	mov    %rax,-0x6d0(%rbp)
    8c3c:	48 8d 85 08 f8 ff ff 	lea    -0x7f8(%rbp),%rax
    8c43:	48 89 85 80 fc ff ff 	mov    %rax,-0x380(%rbp)
    8c4a:	48 8d 85 08 f8 ff ff 	lea    -0x7f8(%rbp),%rax
    8c51:	48 89 85 88 fc ff ff 	mov    %rax,-0x378(%rbp)
    8c58:	48 8d 85 08 f8 ff ff 	lea    -0x7f8(%rbp),%rax
    8c5f:	48 89 85 90 fc ff ff 	mov    %rax,-0x370(%rbp)
    8c66:	48 8d 85 08 f8 ff ff 	lea    -0x7f8(%rbp),%rax
    8c6d:	48 89 85 98 fc ff ff 	mov    %rax,-0x368(%rbp)
    8c74:	c7 85 c8 f7 ff ff 00 	movl   $0x0,-0x838(%rbp)
    8c7b:	00 00 00 
    8c7e:	c7 85 cc f7 ff ff fb 	movl   $0xfffffffb,-0x834(%rbp)
    8c85:	ff ff ff 
    8c88:	48 8d 05 87 e7 00 00 	lea    0xe787(%rip),%rax        # 17416 <g_515>
    8c8f:	48 89 85 38 f9 ff ff 	mov    %rax,-0x6c8(%rbp)
    8c96:	83 85 cc f7 ff ff 01 	addl   $0x1,-0x834(%rbp)
    8c9d:	8b 05 51 e8 00 00    	mov    0xe851(%rip),%eax        # 174f4 <g_857>
    8ca3:	85 c0                	test   %eax,%eax
    8ca5:	75 19                	jne    8cc0 <func_5+0x1279>
    8ca7:	48 8b 85 10 f8 ff ff 	mov    -0x7f0(%rbp),%rax
    8cae:	8b 10                	mov    (%rax),%edx
    8cb0:	8b 85 4c f7 ff ff    	mov    -0x8b4(%rbp),%eax
    8cb6:	09 d0                	or     %edx,%eax
    8cb8:	89 85 4c f7 ff ff    	mov    %eax,-0x8b4(%rbp)
    8cbe:	eb 01                	jmp    8cc1 <func_5+0x127a>
    8cc0:	90                   	nop
    8cc1:	48 8b 85 30 f9 ff ff 	mov    -0x6d0(%rbp),%rax
    8cc8:	8b 00                	mov    (%rax),%eax
    8cca:	23 85 5c f7 ff ff    	and    -0x8a4(%rbp),%eax
    8cd0:	89 c2                	mov    %eax,%edx
    8cd2:	48 8b 85 30 f9 ff ff 	mov    -0x6d0(%rbp),%rax
    8cd9:	89 10                	mov    %edx,(%rax)
    8cdb:	48 8d 05 e6 e4 00 00 	lea    0xe4e6(%rip),%rax        # 171c8 <g_143>
    8ce2:	0f b6 00             	movzbl (%rax),%eax
    8ce5:	0f be d8             	movsbl %al,%ebx
    8ce8:	48 8b 05 19 02 01 00 	mov    0x10219(%rip),%rax        # 18f08 <g_389>
    8cef:	48 8b 08             	mov    (%rax),%rcx
    8cf2:	8b 85 4c f7 ff ff    	mov    -0x8b4(%rbp),%eax
    8cf8:	48 63 d0             	movslq %eax,%rdx
    8cfb:	48 8b 05 06 02 01 00 	mov    0x10206(%rip),%rax        # 18f08 <g_389>
    8d02:	48 31 ca             	xor    %rcx,%rdx
    8d05:	48 89 10             	mov    %rdx,(%rax)
    8d08:	48 8b 00             	mov    (%rax),%rax
    8d0b:	48 89 85 a0 f8 ff ff 	mov    %rax,-0x760(%rbp)
    8d12:	48 83 bd a0 f8 ff ff 	cmpq   $0x0,-0x760(%rbp)
    8d19:	00 
    8d1a:	74 1d                	je     8d39 <func_5+0x12f2>
    8d1c:	48 8d 15 1d e6 00 00 	lea    0xe61d(%rip),%rdx        # 17340 <g_316+0x40>
    8d23:	48 8b 02             	mov    (%rdx),%rax
    8d26:	48 8d 48 ff          	lea    -0x1(%rax),%rcx
    8d2a:	48 89 0a             	mov    %rcx,(%rdx)
    8d2d:	48 85 c0             	test   %rax,%rax
    8d30:	74 07                	je     8d39 <func_5+0x12f2>
    8d32:	ba 01 00 00 00       	mov    $0x1,%edx
    8d37:	eb 05                	jmp    8d3e <func_5+0x12f7>
    8d39:	ba 00 00 00 00       	mov    $0x0,%edx
    8d3e:	48 8b 05 8b 04 01 00 	mov    0x1048b(%rip),%rax        # 191d0 <g_883>
    8d45:	48 8b 00             	mov    (%rax),%rax
    8d48:	66 89 10             	mov    %dx,(%rax)
    8d4b:	0f b7 10             	movzwl (%rax),%edx
    8d4e:	48 8b 85 38 f9 ff ff 	mov    -0x6c8(%rbp),%rax
    8d55:	0f b7 00             	movzwl (%rax),%eax
    8d58:	09 c2                	or     %eax,%edx
    8d5a:	48 8b 85 38 f9 ff ff 	mov    -0x6c8(%rbp),%rax
    8d61:	66 89 10             	mov    %dx,(%rax)
    8d64:	48 8b 85 38 f9 ff ff 	mov    -0x6c8(%rbp),%rax
    8d6b:	0f b7 00             	movzwl (%rax),%eax
    8d6e:	0f b7 c0             	movzwl %ax,%eax
    8d71:	be 07 00 00 00       	mov    $0x7,%esi
    8d76:	89 c7                	mov    %eax,%edi
    8d78:	e8 fd e0 ff ff       	callq  6e7a <safe_rshift_func_uint16_t_u_u>
    8d7d:	0f be c0             	movsbl %al,%eax
    8d80:	89 de                	mov    %ebx,%esi
    8d82:	89 c7                	mov    %eax,%edi
    8d84:	e8 69 d4 ff ff       	callq  61f2 <safe_sub_func_int8_t_s_s>
    8d89:	84 c0                	test   %al,%al
    8d8b:	74 14                	je     8da1 <func_5+0x135a>
    8d8d:	48 8b 85 30 f9 ff ff 	mov    -0x6d0(%rbp),%rax
    8d94:	8b 00                	mov    (%rax),%eax
    8d96:	85 c0                	test   %eax,%eax
    8d98:	74 07                	je     8da1 <func_5+0x135a>
    8d9a:	ba 01 00 00 00       	mov    $0x1,%edx
    8d9f:	eb 05                	jmp    8da6 <func_5+0x135f>
    8da1:	ba 00 00 00 00       	mov    $0x0,%edx
    8da6:	48 8b 85 d0 f8 ff ff 	mov    -0x730(%rbp),%rax
    8dad:	89 10                	mov    %edx,(%rax)
    8daf:	eb 01                	jmp    8db2 <func_5+0x136b>
    8db1:	90                   	nop
    8db2:	48 8b 85 50 f7 ff ff 	mov    -0x8b0(%rbp),%rax
    8db9:	e9 ba 14 00 00       	jmpq   a278 <func_5+0x2831>
    8dbe:	c7 85 b0 f7 ff ff 82 	movl   $0xe3e39c82,-0x850(%rbp)
    8dc5:	9c e3 e3 
    8dc8:	48 c7 85 80 fc ff ff 	movq   $0x0,-0x380(%rbp)
    8dcf:	00 00 00 00 
    8dd3:	48 8d 05 f6 e3 00 00 	lea    0xe3f6(%rip),%rax        # 171d0 <g_184>
    8dda:	48 89 85 88 fc ff ff 	mov    %rax,-0x378(%rbp)
    8de1:	48 c7 85 90 fc ff ff 	movq   $0x0,-0x370(%rbp)
    8de8:	00 00 00 00 
    8dec:	48 8d 05 dd e3 00 00 	lea    0xe3dd(%rip),%rax        # 171d0 <g_184>
    8df3:	48 89 85 98 fc ff ff 	mov    %rax,-0x368(%rbp)
    8dfa:	48 8d 05 cf e3 00 00 	lea    0xe3cf(%rip),%rax        # 171d0 <g_184>
    8e01:	48 89 85 a0 fc ff ff 	mov    %rax,-0x360(%rbp)
    8e08:	48 8d 85 6e f7 ff ff 	lea    -0x892(%rbp),%rax
    8e0f:	48 89 85 a8 fc ff ff 	mov    %rax,-0x358(%rbp)
    8e16:	48 c7 85 b0 fc ff ff 	movq   $0x0,-0x350(%rbp)
    8e1d:	00 00 00 00 
    8e21:	48 c7 85 b8 fc ff ff 	movq   $0x0,-0x348(%rbp)
    8e28:	00 00 00 00 
    8e2c:	48 c7 85 c0 fc ff ff 	movq   $0x0,-0x340(%rbp)
    8e33:	00 00 00 00 
    8e37:	48 c7 85 c8 fc ff ff 	movq   $0x0,-0x338(%rbp)
    8e3e:	00 00 00 00 
    8e42:	48 8d 05 87 e3 00 00 	lea    0xe387(%rip),%rax        # 171d0 <g_184>
    8e49:	48 89 85 d0 fc ff ff 	mov    %rax,-0x330(%rbp)
    8e50:	48 c7 85 d8 fc ff ff 	movq   $0x0,-0x328(%rbp)
    8e57:	00 00 00 00 
    8e5b:	48 8d 05 6e e3 00 00 	lea    0xe36e(%rip),%rax        # 171d0 <g_184>
    8e62:	48 89 85 e0 fc ff ff 	mov    %rax,-0x320(%rbp)
    8e69:	48 8d 85 6e f7 ff ff 	lea    -0x892(%rbp),%rax
    8e70:	48 89 85 e8 fc ff ff 	mov    %rax,-0x318(%rbp)
    8e77:	48 8d 05 52 e3 00 00 	lea    0xe352(%rip),%rax        # 171d0 <g_184>
    8e7e:	48 89 85 f0 fc ff ff 	mov    %rax,-0x310(%rbp)
    8e85:	48 8d 05 44 e3 00 00 	lea    0xe344(%rip),%rax        # 171d0 <g_184>
    8e8c:	48 89 85 f8 fc ff ff 	mov    %rax,-0x308(%rbp)
    8e93:	48 8d 05 36 e3 00 00 	lea    0xe336(%rip),%rax        # 171d0 <g_184>
    8e9a:	48 89 85 00 fd ff ff 	mov    %rax,-0x300(%rbp)
    8ea1:	48 8d 05 28 e3 00 00 	lea    0xe328(%rip),%rax        # 171d0 <g_184>
    8ea8:	48 89 85 08 fd ff ff 	mov    %rax,-0x2f8(%rbp)
    8eaf:	48 8d 05 1a e3 00 00 	lea    0xe31a(%rip),%rax        # 171d0 <g_184>
    8eb6:	48 89 85 10 fd ff ff 	mov    %rax,-0x2f0(%rbp)
    8ebd:	48 8d 05 0c e3 00 00 	lea    0xe30c(%rip),%rax        # 171d0 <g_184>
    8ec4:	48 89 85 18 fd ff ff 	mov    %rax,-0x2e8(%rbp)
    8ecb:	48 c7 85 20 fd ff ff 	movq   $0x0,-0x2e0(%rbp)
    8ed2:	00 00 00 00 
    8ed6:	48 8d 05 f3 e2 00 00 	lea    0xe2f3(%rip),%rax        # 171d0 <g_184>
    8edd:	48 89 85 28 fd ff ff 	mov    %rax,-0x2d8(%rbp)
    8ee4:	48 c7 85 30 fd ff ff 	movq   $0x0,-0x2d0(%rbp)
    8eeb:	00 00 00 00 
    8eef:	48 8d 05 da e2 00 00 	lea    0xe2da(%rip),%rax        # 171d0 <g_184>
    8ef6:	48 89 85 38 fd ff ff 	mov    %rax,-0x2c8(%rbp)
    8efd:	48 8d 05 cc e2 00 00 	lea    0xe2cc(%rip),%rax        # 171d0 <g_184>
    8f04:	48 89 85 40 fd ff ff 	mov    %rax,-0x2c0(%rbp)
    8f0b:	48 8d 85 6e f7 ff ff 	lea    -0x892(%rbp),%rax
    8f12:	48 89 85 48 fd ff ff 	mov    %rax,-0x2b8(%rbp)
    8f19:	48 c7 85 50 fd ff ff 	movq   $0x0,-0x2b0(%rbp)
    8f20:	00 00 00 00 
    8f24:	48 c7 85 58 fd ff ff 	movq   $0x0,-0x2a8(%rbp)
    8f2b:	00 00 00 00 
    8f2f:	48 c7 85 60 fd ff ff 	movq   $0x0,-0x2a0(%rbp)
    8f36:	00 00 00 00 
    8f3a:	48 c7 85 68 fd ff ff 	movq   $0x0,-0x298(%rbp)
    8f41:	00 00 00 00 
    8f45:	48 8d 05 84 e2 00 00 	lea    0xe284(%rip),%rax        # 171d0 <g_184>
    8f4c:	48 89 85 70 fd ff ff 	mov    %rax,-0x290(%rbp)
    8f53:	48 c7 85 78 fd ff ff 	movq   $0x0,-0x288(%rbp)
    8f5a:	00 00 00 00 
    8f5e:	48 8d 05 6b e2 00 00 	lea    0xe26b(%rip),%rax        # 171d0 <g_184>
    8f65:	48 89 85 80 fd ff ff 	mov    %rax,-0x280(%rbp)
    8f6c:	48 8d 85 6e f7 ff ff 	lea    -0x892(%rbp),%rax
    8f73:	48 89 85 88 fd ff ff 	mov    %rax,-0x278(%rbp)
    8f7a:	48 8d 05 4f e2 00 00 	lea    0xe24f(%rip),%rax        # 171d0 <g_184>
    8f81:	48 89 85 90 fd ff ff 	mov    %rax,-0x270(%rbp)
    8f88:	48 8d 05 41 e2 00 00 	lea    0xe241(%rip),%rax        # 171d0 <g_184>
    8f8f:	48 89 85 98 fd ff ff 	mov    %rax,-0x268(%rbp)
    8f96:	48 8d 05 33 e2 00 00 	lea    0xe233(%rip),%rax        # 171d0 <g_184>
    8f9d:	48 89 85 a0 fd ff ff 	mov    %rax,-0x260(%rbp)
    8fa4:	48 8d 05 25 e2 00 00 	lea    0xe225(%rip),%rax        # 171d0 <g_184>
    8fab:	48 89 85 a8 fd ff ff 	mov    %rax,-0x258(%rbp)
    8fb2:	48 8d 05 17 e2 00 00 	lea    0xe217(%rip),%rax        # 171d0 <g_184>
    8fb9:	48 89 85 b0 fd ff ff 	mov    %rax,-0x250(%rbp)
    8fc0:	48 8d 05 09 e2 00 00 	lea    0xe209(%rip),%rax        # 171d0 <g_184>
    8fc7:	48 89 85 b8 fd ff ff 	mov    %rax,-0x248(%rbp)
    8fce:	c7 85 94 f7 ff ff 1a 	movl   $0xd232761a,-0x86c(%rbp)
    8fd5:	76 32 d2 
    8fd8:	c7 85 a0 fb ff ff ff 	movl   $0xffffffff,-0x460(%rbp)
    8fdf:	ff ff ff 
    8fe2:	c7 85 a4 fb ff ff 66 	movl   $0xb2733b66,-0x45c(%rbp)
    8fe9:	3b 73 b2 
    8fec:	c7 85 a8 fb ff ff ff 	movl   $0xffffffff,-0x458(%rbp)
    8ff3:	ff ff ff 
    8ff6:	c7 85 ac fb ff ff 4d 	movl   $0x7ed2914d,-0x454(%rbp)
    8ffd:	91 d2 7e 
    9000:	c7 85 b0 fb ff ff 4d 	movl   $0x7ed2914d,-0x450(%rbp)
    9007:	91 d2 7e 
    900a:	c7 85 b4 fb ff ff 16 	movl   $0x62172c16,-0x44c(%rbp)
    9011:	2c 17 62 
    9014:	c7 85 b8 fb ff ff 07 	movl   $0x7,-0x448(%rbp)
    901b:	00 00 00 
    901e:	c7 85 bc fb ff ff 66 	movl   $0xb2733b66,-0x444(%rbp)
    9025:	3b 73 b2 
    9028:	c7 85 c0 fb ff ff 07 	movl   $0x7,-0x440(%rbp)
    902f:	00 00 00 
    9032:	c7 85 c4 fb ff ff 4d 	movl   $0x7ed2914d,-0x43c(%rbp)
    9039:	91 d2 7e 
    903c:	c7 85 c8 fb ff ff 16 	movl   $0x62172c16,-0x438(%rbp)
    9043:	2c 17 62 
    9046:	c7 85 cc fb ff ff 16 	movl   $0x62172c16,-0x434(%rbp)
    904d:	2c 17 62 
    9050:	c7 85 d0 fb ff ff ff 	movl   $0xffffffff,-0x430(%rbp)
    9057:	ff ff ff 
    905a:	c7 85 d4 fb ff ff 66 	movl   $0xb2733b66,-0x42c(%rbp)
    9061:	3b 73 b2 
    9064:	c7 85 d8 fb ff ff ff 	movl   $0xffffffff,-0x428(%rbp)
    906b:	ff ff ff 
    906e:	c7 85 dc fb ff ff 4d 	movl   $0x7ed2914d,-0x424(%rbp)
    9075:	91 d2 7e 
    9078:	c7 85 e0 fb ff ff 4d 	movl   $0x7ed2914d,-0x420(%rbp)
    907f:	91 d2 7e 
    9082:	c7 85 e4 fb ff ff 16 	movl   $0x62172c16,-0x41c(%rbp)
    9089:	2c 17 62 
    908c:	c7 85 e8 fb ff ff 07 	movl   $0x7,-0x418(%rbp)
    9093:	00 00 00 
    9096:	c7 85 ec fb ff ff 66 	movl   $0xb2733b66,-0x414(%rbp)
    909d:	3b 73 b2 
    90a0:	c7 85 f0 fb ff ff 07 	movl   $0x7,-0x410(%rbp)
    90a7:	00 00 00 
    90aa:	c7 85 f4 fb ff ff 4d 	movl   $0x7ed2914d,-0x40c(%rbp)
    90b1:	91 d2 7e 
    90b4:	c7 85 f8 fb ff ff 16 	movl   $0x62172c16,-0x408(%rbp)
    90bb:	2c 17 62 
    90be:	c7 85 fc fb ff ff 16 	movl   $0x62172c16,-0x404(%rbp)
    90c5:	2c 17 62 
    90c8:	c7 85 00 fc ff ff ff 	movl   $0xffffffff,-0x400(%rbp)
    90cf:	ff ff ff 
    90d2:	c7 85 04 fc ff ff 66 	movl   $0xb2733b66,-0x3fc(%rbp)
    90d9:	3b 73 b2 
    90dc:	c7 85 08 fc ff ff ff 	movl   $0xffffffff,-0x3f8(%rbp)
    90e3:	ff ff ff 
    90e6:	c7 85 0c fc ff ff 4d 	movl   $0x7ed2914d,-0x3f4(%rbp)
    90ed:	91 d2 7e 
    90f0:	c7 85 10 fc ff ff 4d 	movl   $0x7ed2914d,-0x3f0(%rbp)
    90f7:	91 d2 7e 
    90fa:	c7 85 14 fc ff ff 16 	movl   $0x62172c16,-0x3ec(%rbp)
    9101:	2c 17 62 
    9104:	c7 85 18 fc ff ff 07 	movl   $0x7,-0x3e8(%rbp)
    910b:	00 00 00 
    910e:	c7 85 1c fc ff ff 66 	movl   $0xb2733b66,-0x3e4(%rbp)
    9115:	3b 73 b2 
    9118:	c7 85 20 fc ff ff 07 	movl   $0x7,-0x3e0(%rbp)
    911f:	00 00 00 
    9122:	c7 85 24 fc ff ff 4d 	movl   $0x7ed2914d,-0x3dc(%rbp)
    9129:	91 d2 7e 
    912c:	c7 85 28 fc ff ff 16 	movl   $0x62172c16,-0x3d8(%rbp)
    9133:	2c 17 62 
    9136:	c7 85 2c fc ff ff 16 	movl   $0x62172c16,-0x3d4(%rbp)
    913d:	2c 17 62 
    9140:	c7 85 30 fc ff ff ff 	movl   $0xffffffff,-0x3d0(%rbp)
    9147:	ff ff ff 
    914a:	c7 85 34 fc ff ff 66 	movl   $0xb2733b66,-0x3cc(%rbp)
    9151:	3b 73 b2 
    9154:	c7 85 38 fc ff ff ff 	movl   $0xffffffff,-0x3c8(%rbp)
    915b:	ff ff ff 
    915e:	c7 85 3c fc ff ff 4d 	movl   $0x7ed2914d,-0x3c4(%rbp)
    9165:	91 d2 7e 
    9168:	c7 85 40 fc ff ff 4d 	movl   $0x7ed2914d,-0x3c0(%rbp)
    916f:	91 d2 7e 
    9172:	c7 85 44 fc ff ff 16 	movl   $0x62172c16,-0x3bc(%rbp)
    9179:	2c 17 62 
    917c:	c7 85 48 fc ff ff 07 	movl   $0x7,-0x3b8(%rbp)
    9183:	00 00 00 
    9186:	c7 85 4c fc ff ff 66 	movl   $0xb2733b66,-0x3b4(%rbp)
    918d:	3b 73 b2 
    9190:	c7 85 50 fc ff ff 07 	movl   $0x7,-0x3b0(%rbp)
    9197:	00 00 00 
    919a:	c7 85 54 fc ff ff 4d 	movl   $0x7ed2914d,-0x3ac(%rbp)
    91a1:	91 d2 7e 
    91a4:	c7 85 58 fc ff ff 16 	movl   $0x62172c16,-0x3a8(%rbp)
    91ab:	2c 17 62 
    91ae:	c7 85 5c fc ff ff 16 	movl   $0x62172c16,-0x3a4(%rbp)
    91b5:	2c 17 62 
    91b8:	c7 85 60 fc ff ff ff 	movl   $0xffffffff,-0x3a0(%rbp)
    91bf:	ff ff ff 
    91c2:	c7 85 64 fc ff ff 66 	movl   $0xb2733b66,-0x39c(%rbp)
    91c9:	3b 73 b2 
    91cc:	c7 85 68 fc ff ff ff 	movl   $0xffffffff,-0x398(%rbp)
    91d3:	ff ff ff 
    91d6:	c7 85 6c fc ff ff 4d 	movl   $0x7ed2914d,-0x394(%rbp)
    91dd:	91 d2 7e 
    91e0:	c7 85 70 fc ff ff 4d 	movl   $0x7ed2914d,-0x390(%rbp)
    91e7:	91 d2 7e 
    91ea:	c7 85 74 fc ff ff 16 	movl   $0x62172c16,-0x38c(%rbp)
    91f1:	2c 17 62 
    91f4:	48 8d 05 1b e2 00 00 	lea    0xe21b(%rip),%rax        # 17416 <g_515>
    91fb:	48 89 85 30 f8 ff ff 	mov    %rax,-0x7d0(%rbp)
    9202:	48 8d 05 57 05 01 00 	lea    0x10557(%rip),%rax        # 19760 <g_1034>
    9209:	48 89 85 f0 f7 ff ff 	mov    %rax,-0x810(%rbp)
    9210:	48 8d 85 f0 f7 ff ff 	lea    -0x810(%rbp),%rax
    9217:	48 89 85 f8 f7 ff ff 	mov    %rax,-0x808(%rbp)
    921e:	48 8d 85 f8 f7 ff ff 	lea    -0x808(%rbp),%rax
    9225:	48 89 85 00 f8 ff ff 	mov    %rax,-0x800(%rbp)
    922c:	48 8d 85 00 f8 ff ff 	lea    -0x800(%rbp),%rax
    9233:	48 89 85 90 fa ff ff 	mov    %rax,-0x570(%rbp)
    923a:	48 8d 85 00 f8 ff ff 	lea    -0x800(%rbp),%rax
    9241:	48 89 85 98 fa ff ff 	mov    %rax,-0x568(%rbp)
    9248:	48 8d 85 00 f8 ff ff 	lea    -0x800(%rbp),%rax
    924f:	48 89 85 a0 fa ff ff 	mov    %rax,-0x560(%rbp)
    9256:	48 8d 85 00 f8 ff ff 	lea    -0x800(%rbp),%rax
    925d:	48 89 85 a8 fa ff ff 	mov    %rax,-0x558(%rbp)
    9264:	48 8d 85 00 f8 ff ff 	lea    -0x800(%rbp),%rax
    926b:	48 89 85 b0 fa ff ff 	mov    %rax,-0x550(%rbp)
    9272:	48 8d 85 00 f8 ff ff 	lea    -0x800(%rbp),%rax
    9279:	48 89 85 b8 fa ff ff 	mov    %rax,-0x548(%rbp)
    9280:	48 8d 85 00 f8 ff ff 	lea    -0x800(%rbp),%rax
    9287:	48 89 85 c0 fa ff ff 	mov    %rax,-0x540(%rbp)
    928e:	48 c7 85 38 f8 ff ff 	movq   $0x0,-0x7c8(%rbp)
    9295:	00 00 00 00 
    9299:	0f b6 05 30 df 00 00 	movzbl 0xdf30(%rip),%eax        # 171d0 <g_184>
    92a0:	8d 50 ff             	lea    -0x1(%rax),%edx
    92a3:	88 15 27 df 00 00    	mov    %dl,0xdf27(%rip)        # 171d0 <g_184>
    92a9:	0f b6 c0             	movzbl %al,%eax
    92ac:	66 31 85 70 f7 ff ff 	xor    %ax,-0x890(%rbp)
    92b3:	66 83 bd 70 f7 ff ff 	cmpw   $0x44,-0x890(%rbp)
    92ba:	44 
    92bb:	0f 87 b2 05 00 00    	ja     9873 <func_5+0x1e2c>
    92c1:	48 8d 05 00 df 00 00 	lea    0xdf00(%rip),%rax        # 171c8 <g_143>
    92c8:	0f b6 00             	movzbl (%rax),%eax
    92cb:	0f be d8             	movsbl %al,%ebx
    92ce:	48 8b 85 30 f8 ff ff 	mov    -0x7d0(%rbp),%rax
    92d5:	0f b7 95 e2 f9 ff ff 	movzwl -0x61e(%rbp),%edx
    92dc:	66 89 10             	mov    %dx,(%rax)
    92df:	48 8b 85 50 f7 ff ff 	mov    -0x8b0(%rbp),%rax
    92e6:	98                   	cwtl   
    92e7:	be 0b 00 00 00       	mov    $0xb,%esi
    92ec:	89 c7                	mov    %eax,%edi
    92ee:	e8 9f d1 ff ff       	callq  6492 <safe_lshift_func_int16_t_s_s>
    92f3:	98                   	cwtl   
    92f4:	be 43 9b ff ff       	mov    $0xffff9b43,%esi
    92f9:	89 c7                	mov    %eax,%edi
    92fb:	e8 55 d1 ff ff       	callq  6455 <safe_div_func_int16_t_s_s>
    9300:	44 0f b6 e0          	movzbl %al,%r12d
    9304:	bf 01 00 00 00       	mov    $0x1,%edi
    9309:	e8 37 d8 ff ff       	callq  6b45 <safe_unary_minus_func_uint8_t_u>
    930e:	44 0f b6 e8          	movzbl %al,%r13d
    9312:	8b 85 58 f7 ff ff    	mov    -0x8a8(%rbp),%eax
    9318:	98                   	cwtl   
    9319:	be 09 00 00 00       	mov    $0x9,%esi
    931e:	89 c7                	mov    %eax,%edi
    9320:	e8 f1 d0 ff ff       	callq  6416 <safe_mod_func_int16_t_s_s>
    9325:	0f b6 c0             	movzbl %al,%eax
    9328:	89 c6                	mov    %eax,%esi
    932a:	bf 02 00 00 00       	mov    $0x2,%edi
    932f:	e8 5f d8 ff ff       	callq  6b93 <safe_mul_func_uint8_t_u_u>
    9334:	0f b6 c0             	movzbl %al,%eax
    9337:	44 89 ee             	mov    %r13d,%esi
    933a:	89 c7                	mov    %eax,%edi
    933c:	e8 92 d0 ff ff       	callq  63d3 <safe_sub_func_int16_t_s_s>
    9341:	0f b6 c0             	movzbl %al,%eax
    9344:	44 89 e6             	mov    %r12d,%esi
    9347:	89 c7                	mov    %eax,%edi
    9349:	e8 45 d8 ff ff       	callq  6b93 <safe_mul_func_uint8_t_u_u>
    934e:	89 de                	mov    %ebx,%esi
    9350:	bf 00 00 00 00       	mov    $0x0,%edi
    9355:	e8 10 cf ff ff       	callq  626a <safe_div_func_int8_t_s_s>
    935a:	83 bd 5c f7 ff ff 01 	cmpl   $0x1,-0x8a4(%rbp)
    9361:	0f 86 0c 05 00 00    	jbe    9873 <func_5+0x1e2c>
    9367:	c6 85 6f f7 ff ff 06 	movb   $0x6,-0x891(%rbp)
    936e:	48 8d 85 d8 f7 ff ff 	lea    -0x828(%rbp),%rax
    9375:	48 89 85 c0 fd ff ff 	mov    %rax,-0x240(%rbp)
    937c:	48 8d 85 d8 f7 ff ff 	lea    -0x828(%rbp),%rax
    9383:	48 89 85 c8 fd ff ff 	mov    %rax,-0x238(%rbp)
    938a:	48 8d 85 d8 f7 ff ff 	lea    -0x828(%rbp),%rax
    9391:	48 89 85 d0 fd ff ff 	mov    %rax,-0x230(%rbp)
    9398:	48 8d 85 d8 f7 ff ff 	lea    -0x828(%rbp),%rax
    939f:	48 89 85 d8 fd ff ff 	mov    %rax,-0x228(%rbp)
    93a6:	48 8d 85 d8 f7 ff ff 	lea    -0x828(%rbp),%rax
    93ad:	48 89 85 e0 fd ff ff 	mov    %rax,-0x220(%rbp)
    93b4:	48 8d 85 d8 f7 ff ff 	lea    -0x828(%rbp),%rax
    93bb:	48 89 85 e8 fd ff ff 	mov    %rax,-0x218(%rbp)
    93c2:	48 8d 85 d8 f7 ff ff 	lea    -0x828(%rbp),%rax
    93c9:	48 89 85 f0 fd ff ff 	mov    %rax,-0x210(%rbp)
    93d0:	48 8d 85 d8 f7 ff ff 	lea    -0x828(%rbp),%rax
    93d7:	48 89 85 f8 fd ff ff 	mov    %rax,-0x208(%rbp)
    93de:	48 c7 85 00 fe ff ff 	movq   $0x0,-0x200(%rbp)
    93e5:	00 00 00 00 
    93e9:	48 8d 85 d8 f7 ff ff 	lea    -0x828(%rbp),%rax
    93f0:	48 89 85 08 fe ff ff 	mov    %rax,-0x1f8(%rbp)
    93f7:	48 c7 85 10 fe ff ff 	movq   $0x0,-0x1f0(%rbp)
    93fe:	00 00 00 00 
    9402:	48 c7 85 18 fe ff ff 	movq   $0x0,-0x1e8(%rbp)
    9409:	00 00 00 00 
    940d:	48 8d 85 d8 f7 ff ff 	lea    -0x828(%rbp),%rax
    9414:	48 89 85 20 fe ff ff 	mov    %rax,-0x1e0(%rbp)
    941b:	48 c7 85 28 fe ff ff 	movq   $0x0,-0x1d8(%rbp)
    9422:	00 00 00 00 
    9426:	48 c7 85 30 fe ff ff 	movq   $0x0,-0x1d0(%rbp)
    942d:	00 00 00 00 
    9431:	48 8d 85 d8 f7 ff ff 	lea    -0x828(%rbp),%rax
    9438:	48 89 85 38 fe ff ff 	mov    %rax,-0x1c8(%rbp)
    943f:	48 c7 85 40 fe ff ff 	movq   $0x0,-0x1c0(%rbp)
    9446:	00 00 00 00 
    944a:	48 8d 85 d8 f7 ff ff 	lea    -0x828(%rbp),%rax
    9451:	48 89 85 48 fe ff ff 	mov    %rax,-0x1b8(%rbp)
    9458:	48 8d 85 d8 f7 ff ff 	lea    -0x828(%rbp),%rax
    945f:	48 89 85 50 fe ff ff 	mov    %rax,-0x1b0(%rbp)
    9466:	48 8d 85 d8 f7 ff ff 	lea    -0x828(%rbp),%rax
    946d:	48 89 85 58 fe ff ff 	mov    %rax,-0x1a8(%rbp)
    9474:	48 c7 85 60 fe ff ff 	movq   $0x0,-0x1a0(%rbp)
    947b:	00 00 00 00 
    947f:	48 8d 85 d8 f7 ff ff 	lea    -0x828(%rbp),%rax
    9486:	48 89 85 68 fe ff ff 	mov    %rax,-0x198(%rbp)
    948d:	48 8d 85 d8 f7 ff ff 	lea    -0x828(%rbp),%rax
    9494:	48 89 85 70 fe ff ff 	mov    %rax,-0x190(%rbp)
    949b:	48 c7 85 78 fe ff ff 	movq   $0x0,-0x188(%rbp)
    94a2:	00 00 00 00 
    94a6:	48 8d 85 d8 f7 ff ff 	lea    -0x828(%rbp),%rax
    94ad:	48 89 85 80 fe ff ff 	mov    %rax,-0x180(%rbp)
    94b4:	48 8d 85 d8 f7 ff ff 	lea    -0x828(%rbp),%rax
    94bb:	48 89 85 88 fe ff ff 	mov    %rax,-0x178(%rbp)
    94c2:	48 8d 85 d8 f7 ff ff 	lea    -0x828(%rbp),%rax
    94c9:	48 89 85 90 fe ff ff 	mov    %rax,-0x170(%rbp)
    94d0:	48 8d 85 d8 f7 ff ff 	lea    -0x828(%rbp),%rax
    94d7:	48 89 85 98 fe ff ff 	mov    %rax,-0x168(%rbp)
    94de:	48 8d 85 d8 f7 ff ff 	lea    -0x828(%rbp),%rax
    94e5:	48 89 85 a0 fe ff ff 	mov    %rax,-0x160(%rbp)
    94ec:	48 8d 85 d8 f7 ff ff 	lea    -0x828(%rbp),%rax
    94f3:	48 89 85 a8 fe ff ff 	mov    %rax,-0x158(%rbp)
    94fa:	48 8d 85 d8 f7 ff ff 	lea    -0x828(%rbp),%rax
    9501:	48 89 85 b0 fe ff ff 	mov    %rax,-0x150(%rbp)
    9508:	48 8d 85 d8 f7 ff ff 	lea    -0x828(%rbp),%rax
    950f:	48 89 85 b8 fe ff ff 	mov    %rax,-0x148(%rbp)
    9516:	48 8d 85 d8 f7 ff ff 	lea    -0x828(%rbp),%rax
    951d:	48 89 85 c0 fe ff ff 	mov    %rax,-0x140(%rbp)
    9524:	48 8d 85 d8 f7 ff ff 	lea    -0x828(%rbp),%rax
    952b:	48 89 85 c8 fe ff ff 	mov    %rax,-0x138(%rbp)
    9532:	48 8d 85 d8 f7 ff ff 	lea    -0x828(%rbp),%rax
    9539:	48 89 85 d0 fe ff ff 	mov    %rax,-0x130(%rbp)
    9540:	48 8d 85 d8 f7 ff ff 	lea    -0x828(%rbp),%rax
    9547:	48 89 85 d8 fe ff ff 	mov    %rax,-0x128(%rbp)
    954e:	48 8d 85 d8 f7 ff ff 	lea    -0x828(%rbp),%rax
    9555:	48 89 85 e0 fe ff ff 	mov    %rax,-0x120(%rbp)
    955c:	48 8d 85 d8 f7 ff ff 	lea    -0x828(%rbp),%rax
    9563:	48 89 85 e8 fe ff ff 	mov    %rax,-0x118(%rbp)
    956a:	48 8d 85 d8 f7 ff ff 	lea    -0x828(%rbp),%rax
    9571:	48 89 85 f0 fe ff ff 	mov    %rax,-0x110(%rbp)
    9578:	48 c7 85 f8 fe ff ff 	movq   $0x0,-0x108(%rbp)
    957f:	00 00 00 00 
    9583:	48 8d 85 d8 f7 ff ff 	lea    -0x828(%rbp),%rax
    958a:	48 89 85 00 ff ff ff 	mov    %rax,-0x100(%rbp)
    9591:	48 8d 85 d8 f7 ff ff 	lea    -0x828(%rbp),%rax
    9598:	48 89 85 08 ff ff ff 	mov    %rax,-0xf8(%rbp)
    959f:	48 c7 85 10 ff ff ff 	movq   $0x0,-0xf0(%rbp)
    95a6:	00 00 00 00 
    95aa:	48 8d 85 d8 f7 ff ff 	lea    -0x828(%rbp),%rax
    95b1:	48 89 85 18 ff ff ff 	mov    %rax,-0xe8(%rbp)
    95b8:	48 8d 85 d8 f7 ff ff 	lea    -0x828(%rbp),%rax
    95bf:	48 89 85 20 ff ff ff 	mov    %rax,-0xe0(%rbp)
    95c6:	48 8d 85 d8 f7 ff ff 	lea    -0x828(%rbp),%rax
    95cd:	48 89 85 28 ff ff ff 	mov    %rax,-0xd8(%rbp)
    95d4:	48 8d 85 d8 f7 ff ff 	lea    -0x828(%rbp),%rax
    95db:	48 89 85 30 ff ff ff 	mov    %rax,-0xd0(%rbp)
    95e2:	48 8d 85 d8 f7 ff ff 	lea    -0x828(%rbp),%rax
    95e9:	48 89 85 38 ff ff ff 	mov    %rax,-0xc8(%rbp)
    95f0:	48 8d 85 d8 f7 ff ff 	lea    -0x828(%rbp),%rax
    95f7:	48 89 85 40 ff ff ff 	mov    %rax,-0xc0(%rbp)
    95fe:	48 8d 85 d8 f7 ff ff 	lea    -0x828(%rbp),%rax
    9605:	48 89 85 48 ff ff ff 	mov    %rax,-0xb8(%rbp)
    960c:	48 8d 85 d8 f7 ff ff 	lea    -0x828(%rbp),%rax
    9613:	48 89 85 50 ff ff ff 	mov    %rax,-0xb0(%rbp)
    961a:	48 8d 85 d8 f7 ff ff 	lea    -0x828(%rbp),%rax
    9621:	48 89 85 58 ff ff ff 	mov    %rax,-0xa8(%rbp)
    9628:	48 8d 85 d8 f7 ff ff 	lea    -0x828(%rbp),%rax
    962f:	48 89 85 60 ff ff ff 	mov    %rax,-0xa0(%rbp)
    9636:	48 8d 85 d8 f7 ff ff 	lea    -0x828(%rbp),%rax
    963d:	48 89 85 68 ff ff ff 	mov    %rax,-0x98(%rbp)
    9644:	48 8d 85 d8 f7 ff ff 	lea    -0x828(%rbp),%rax
    964b:	48 89 85 70 ff ff ff 	mov    %rax,-0x90(%rbp)
    9652:	48 8d 85 d8 f7 ff ff 	lea    -0x828(%rbp),%rax
    9659:	48 89 85 78 ff ff ff 	mov    %rax,-0x88(%rbp)
    9660:	48 8d 85 d8 f7 ff ff 	lea    -0x828(%rbp),%rax
    9667:	48 89 45 80          	mov    %rax,-0x80(%rbp)
    966b:	48 8d 85 d8 f7 ff ff 	lea    -0x828(%rbp),%rax
    9672:	48 89 45 88          	mov    %rax,-0x78(%rbp)
    9676:	48 c7 45 90 00 00 00 	movq   $0x0,-0x70(%rbp)
    967d:	00 
    967e:	48 8d 85 d8 f7 ff ff 	lea    -0x828(%rbp),%rax
    9685:	48 89 45 98          	mov    %rax,-0x68(%rbp)
    9689:	48 8d 85 d8 f7 ff ff 	lea    -0x828(%rbp),%rax
    9690:	48 89 45 a0          	mov    %rax,-0x60(%rbp)
    9694:	48 c7 45 a8 00 00 00 	movq   $0x0,-0x58(%rbp)
    969b:	00 
    969c:	48 8d 85 d8 f7 ff ff 	lea    -0x828(%rbp),%rax
    96a3:	48 89 45 b0          	mov    %rax,-0x50(%rbp)
    96a7:	48 8d 05 b2 00 01 00 	lea    0x100b2(%rip),%rax        # 19760 <g_1034>
    96ae:	48 89 85 40 f8 ff ff 	mov    %rax,-0x7c0(%rbp)
    96b5:	48 8d 85 7c f7 ff ff 	lea    -0x884(%rbp),%rax
    96bc:	48 89 85 20 fb ff ff 	mov    %rax,-0x4e0(%rbp)
    96c3:	48 8d 85 7c f7 ff ff 	lea    -0x884(%rbp),%rax
    96ca:	48 89 85 28 fb ff ff 	mov    %rax,-0x4d8(%rbp)
    96d1:	48 8d 85 7c f7 ff ff 	lea    -0x884(%rbp),%rax
    96d8:	48 89 85 30 fb ff ff 	mov    %rax,-0x4d0(%rbp)
    96df:	48 8d 85 7c f7 ff ff 	lea    -0x884(%rbp),%rax
    96e6:	48 89 85 38 fb ff ff 	mov    %rax,-0x4c8(%rbp)
    96ed:	48 8d 85 7c f7 ff ff 	lea    -0x884(%rbp),%rax
    96f4:	48 89 85 40 fb ff ff 	mov    %rax,-0x4c0(%rbp)
    96fb:	c7 85 98 f7 ff ff 00 	movl   $0x0,-0x868(%rbp)
    9702:	00 00 00 
    9705:	eb 1a                	jmp    9721 <func_5+0x1cda>
    9707:	8b 85 98 f7 ff ff    	mov    -0x868(%rbp),%eax
    970d:	48 98                	cltq   
    970f:	c7 84 85 30 fa ff ff 	movl   $0xd23766c3,-0x5d0(%rbp,%rax,4)
    9716:	c3 66 37 d2 
    971a:	83 85 98 f7 ff ff 01 	addl   $0x1,-0x868(%rbp)
    9721:	83 bd 98 f7 ff ff 03 	cmpl   $0x3,-0x868(%rbp)
    9728:	7e dd                	jle    9707 <func_5+0x1cc0>
    972a:	0f b6 85 6f f7 ff ff 	movzbl -0x891(%rbp),%eax
    9731:	89 85 a8 fb ff ff    	mov    %eax,-0x458(%rbp)
    9737:	8b 85 a8 fb ff ff    	mov    -0x458(%rbp),%eax
    973d:	89 85 30 fa ff ff    	mov    %eax,-0x5d0(%rbp)
    9743:	8b 85 30 fa ff ff    	mov    -0x5d0(%rbp),%eax
    9749:	0f b7 d0             	movzwl %ax,%edx
    974c:	48 8b 05 7d fa 00 00 	mov    0xfa7d(%rip),%rax        # 191d0 <g_883>
    9753:	48 8b 00             	mov    (%rax),%rax
    9756:	0f b7 08             	movzwl (%rax),%ecx
    9759:	83 e9 01             	sub    $0x1,%ecx
    975c:	66 89 08             	mov    %cx,(%rax)
    975f:	0f b7 00             	movzwl (%rax),%eax
    9762:	0f b7 c0             	movzwl %ax,%eax
    9765:	89 d6                	mov    %edx,%esi
    9767:	89 c7                	mov    %eax,%edi
    9769:	e8 20 d6 ff ff       	callq  6d8e <safe_div_func_uint16_t_u_u>
    976e:	0f b6 05 fc e0 00 00 	movzbl 0xe0fc(%rip),%eax        # 17871 <g_1257+0x11>
    9775:	c1 e0 03             	shl    $0x3,%eax
    9778:	c0 f8 07             	sar    $0x7,%al
    977b:	0f be d8             	movsbl %al,%ebx
    977e:	48 8b 05 43 fa 00 00 	mov    0xfa43(%rip),%rax        # 191c8 <g_856>
    9785:	8b 08                	mov    (%rax),%ecx
    9787:	48 8b 05 42 d9 00 00 	mov    0xd942(%rip),%rax        # 170d0 <g_140+0x70>
    978e:	83 e0 04             	and    $0x4,%eax
    9791:	48 85 c0             	test   %rax,%rax
    9794:	0f 95 c0             	setne  %al
    9797:	0f b6 d0             	movzbl %al,%edx
    979a:	48 8b 05 27 fa 00 00 	mov    0xfa27(%rip),%rax        # 191c8 <g_856>
    97a1:	09 ca                	or     %ecx,%edx
    97a3:	89 10                	mov    %edx,(%rax)
    97a5:	8b 10                	mov    (%rax),%edx
    97a7:	48 8b 85 d8 f7 ff ff 	mov    -0x828(%rbp),%rax
    97ae:	48 89 05 bb ff 00 00 	mov    %rax,0xffbb(%rip)        # 19770 <g_1256>
    97b5:	48 8b 05 b4 ff 00 00 	mov    0xffb4(%rip),%rax        # 19770 <g_1256>
    97bc:	48 85 c0             	test   %rax,%rax
    97bf:	0f 94 c0             	sete   %al
    97c2:	0f b6 c0             	movzbl %al,%eax
    97c5:	89 d6                	mov    %edx,%esi
    97c7:	89 c7                	mov    %eax,%edi
    97c9:	e8 c4 cc ff ff       	callq  6492 <safe_lshift_func_int16_t_s_s>
    97ce:	48 0f bf c0          	movswq %ax,%rax
    97d2:	83 e0 01             	and    $0x1,%eax
    97d5:	48 89 c1             	mov    %rax,%rcx
    97d8:	48 8b 05 81 ff 00 00 	mov    0xff81(%rip),%rax        # 19760 <g_1034>
    97df:	8b 10                	mov    (%rax),%edx
    97e1:	48 8b 05 78 ff 00 00 	mov    0xff78(%rip),%rax        # 19760 <g_1034>
    97e8:	31 ca                	xor    %ecx,%edx
    97ea:	89 10                	mov    %edx,(%rax)
    97ec:	8b 00                	mov    (%rax),%eax
    97ee:	89 c6                	mov    %eax,%esi
    97f0:	bf 00 00 00 00       	mov    $0x0,%edi
    97f5:	e8 03 d7 ff ff       	callq  6efd <safe_mod_func_uint32_t_u_u>
    97fa:	0f b6 d0             	movzbl %al,%edx
    97fd:	8b 85 1c fc ff ff    	mov    -0x3e4(%rbp),%eax
    9803:	0f b6 c0             	movzbl %al,%eax
    9806:	89 d6                	mov    %edx,%esi
    9808:	89 c7                	mov    %eax,%edi
    980a:	e8 9f d3 ff ff       	callq  6bae <safe_mod_func_uint8_t_u_u>
    980f:	0f b6 c0             	movzbl %al,%eax
    9812:	48 8b 15 57 e0 00 00 	mov    0xe057(%rip),%rdx        # 17870 <g_1257+0x10>
    9819:	48 c1 ea 0d          	shr    $0xd,%rdx
    981d:	81 e2 ff ff ff 7f    	and    $0x7fffffff,%edx
    9823:	39 d0                	cmp    %edx,%eax
    9825:	0f 95 c0             	setne  %al
    9828:	0f b6 c0             	movzbl %al,%eax
    982b:	89 de                	mov    %ebx,%esi
    982d:	89 c7                	mov    %eax,%edi
    982f:	e8 be c9 ff ff       	callq  61f2 <safe_sub_func_int8_t_s_s>
    9834:	48 8b 85 40 f8 ff ff 	mov    -0x7c0(%rbp),%rax
    983b:	48 c7 00 00 00 00 00 	movq   $0x0,(%rax)
    9842:	48 8b 85 40 f8 ff ff 	mov    -0x7c0(%rbp),%rax
    9849:	48 8b 10             	mov    (%rax),%rdx
    984c:	48 8d 85 4c f7 ff ff 	lea    -0x8b4(%rbp),%rax
    9853:	48 39 c2             	cmp    %rax,%rdx
    9856:	0f 94 c0             	sete   %al
    9859:	0f b6 c0             	movzbl %al,%eax
    985c:	39 85 5c f7 ff ff    	cmp    %eax,-0x8a4(%rbp)
    9862:	0f 95 c0             	setne  %al
    9865:	0f b6 c0             	movzbl %al,%eax
    9868:	89 85 4c f7 ff ff    	mov    %eax,-0x8b4(%rbp)
    986e:	e9 fe 09 00 00       	jmpq   a271 <func_5+0x282a>
    9873:	48 c7 85 48 f8 ff ff 	movq   $0xfffffffffffffffa,-0x7b8(%rbp)
    987a:	fa ff ff ff 
    987e:	48 8d 05 83 f6 00 00 	lea    0xf683(%rip),%rax        # 18f08 <g_389>
    9885:	48 89 85 50 f8 ff ff 	mov    %rax,-0x7b0(%rbp)
    988c:	66 c7 85 72 f7 ff ff 	movw   $0x0,-0x88e(%rbp)
    9893:	00 00 
    9895:	c7 85 b4 f7 ff ff 01 	movl   $0x1,-0x84c(%rbp)
    989c:	00 00 00 
    989f:	48 8d 85 00 fa ff ff 	lea    -0x600(%rbp),%rax
    98a6:	48 83 c0 18          	add    $0x18,%rax
    98aa:	48 89 85 c0 fd ff ff 	mov    %rax,-0x240(%rbp)
    98b1:	48 8d 85 00 fa ff ff 	lea    -0x600(%rbp),%rax
    98b8:	48 83 c0 08          	add    $0x8,%rax
    98bc:	48 89 85 c8 fd ff ff 	mov    %rax,-0x238(%rbp)
    98c3:	48 8d 85 00 fa ff ff 	lea    -0x600(%rbp),%rax
    98ca:	48 83 c0 08          	add    $0x8,%rax
    98ce:	48 89 85 d0 fd ff ff 	mov    %rax,-0x230(%rbp)
    98d5:	48 8d 85 00 fa ff ff 	lea    -0x600(%rbp),%rax
    98dc:	48 83 c0 18          	add    $0x18,%rax
    98e0:	48 89 85 d8 fd ff ff 	mov    %rax,-0x228(%rbp)
    98e7:	48 8d 85 00 fa ff ff 	lea    -0x600(%rbp),%rax
    98ee:	48 83 c0 18          	add    $0x18,%rax
    98f2:	48 89 85 e0 fd ff ff 	mov    %rax,-0x220(%rbp)
    98f9:	48 8d 85 00 fa ff ff 	lea    -0x600(%rbp),%rax
    9900:	48 83 c0 08          	add    $0x8,%rax
    9904:	48 89 85 e8 fd ff ff 	mov    %rax,-0x218(%rbp)
    990b:	48 8d 85 00 fa ff ff 	lea    -0x600(%rbp),%rax
    9912:	48 83 c0 18          	add    $0x18,%rax
    9916:	48 89 85 f0 fd ff ff 	mov    %rax,-0x210(%rbp)
    991d:	48 8d 85 00 fa ff ff 	lea    -0x600(%rbp),%rax
    9924:	48 83 c0 18          	add    $0x18,%rax
    9928:	48 89 85 f8 fd ff ff 	mov    %rax,-0x208(%rbp)
    992f:	48 8d 85 00 fa ff ff 	lea    -0x600(%rbp),%rax
    9936:	48 83 c0 08          	add    $0x8,%rax
    993a:	48 89 85 00 fe ff ff 	mov    %rax,-0x200(%rbp)
    9941:	48 8d 85 00 fa ff ff 	lea    -0x600(%rbp),%rax
    9948:	48 83 c0 08          	add    $0x8,%rax
    994c:	48 89 85 08 fe ff ff 	mov    %rax,-0x1f8(%rbp)
    9953:	48 8d 85 00 fa ff ff 	lea    -0x600(%rbp),%rax
    995a:	48 83 c0 18          	add    $0x18,%rax
    995e:	48 89 85 10 fe ff ff 	mov    %rax,-0x1f0(%rbp)
    9965:	48 8d 85 00 fa ff ff 	lea    -0x600(%rbp),%rax
    996c:	48 83 c0 18          	add    $0x18,%rax
    9970:	48 89 85 18 fe ff ff 	mov    %rax,-0x1e8(%rbp)
    9977:	48 8d 85 00 fa ff ff 	lea    -0x600(%rbp),%rax
    997e:	48 83 c0 18          	add    $0x18,%rax
    9982:	48 89 85 20 fe ff ff 	mov    %rax,-0x1e0(%rbp)
    9989:	48 8d 85 00 fa ff ff 	lea    -0x600(%rbp),%rax
    9990:	48 83 c0 08          	add    $0x8,%rax
    9994:	48 89 85 28 fe ff ff 	mov    %rax,-0x1d8(%rbp)
    999b:	48 8d 85 00 fa ff ff 	lea    -0x600(%rbp),%rax
    99a2:	48 83 c0 08          	add    $0x8,%rax
    99a6:	48 89 85 30 fe ff ff 	mov    %rax,-0x1d0(%rbp)
    99ad:	48 8d 85 00 fa ff ff 	lea    -0x600(%rbp),%rax
    99b4:	48 83 c0 18          	add    $0x18,%rax
    99b8:	48 89 85 38 fe ff ff 	mov    %rax,-0x1c8(%rbp)
    99bf:	48 8d 85 00 fa ff ff 	lea    -0x600(%rbp),%rax
    99c6:	48 83 c0 18          	add    $0x18,%rax
    99ca:	48 89 85 40 fe ff ff 	mov    %rax,-0x1c0(%rbp)
    99d1:	48 8d 85 00 fa ff ff 	lea    -0x600(%rbp),%rax
    99d8:	48 83 c0 08          	add    $0x8,%rax
    99dc:	48 89 85 48 fe ff ff 	mov    %rax,-0x1b8(%rbp)
    99e3:	48 8d 85 00 fa ff ff 	lea    -0x600(%rbp),%rax
    99ea:	48 83 c0 18          	add    $0x18,%rax
    99ee:	48 89 85 50 fe ff ff 	mov    %rax,-0x1b0(%rbp)
    99f5:	48 8d 85 00 fa ff ff 	lea    -0x600(%rbp),%rax
    99fc:	48 83 c0 18          	add    $0x18,%rax
    9a00:	48 89 85 58 fe ff ff 	mov    %rax,-0x1a8(%rbp)
    9a07:	48 8d 85 00 fa ff ff 	lea    -0x600(%rbp),%rax
    9a0e:	48 83 c0 08          	add    $0x8,%rax
    9a12:	48 89 85 60 fe ff ff 	mov    %rax,-0x1a0(%rbp)
    9a19:	48 8d 85 00 fa ff ff 	lea    -0x600(%rbp),%rax
    9a20:	48 83 c0 08          	add    $0x8,%rax
    9a24:	48 89 85 68 fe ff ff 	mov    %rax,-0x198(%rbp)
    9a2b:	48 8d 85 00 fa ff ff 	lea    -0x600(%rbp),%rax
    9a32:	48 83 c0 18          	add    $0x18,%rax
    9a36:	48 89 85 70 fe ff ff 	mov    %rax,-0x190(%rbp)
    9a3d:	48 8d 85 00 fa ff ff 	lea    -0x600(%rbp),%rax
    9a44:	48 83 c0 18          	add    $0x18,%rax
    9a48:	48 89 85 78 fe ff ff 	mov    %rax,-0x188(%rbp)
    9a4f:	48 8d 85 00 fa ff ff 	lea    -0x600(%rbp),%rax
    9a56:	48 83 c0 18          	add    $0x18,%rax
    9a5a:	48 89 85 80 fe ff ff 	mov    %rax,-0x180(%rbp)
    9a61:	48 8d 85 00 fa ff ff 	lea    -0x600(%rbp),%rax
    9a68:	48 83 c0 08          	add    $0x8,%rax
    9a6c:	48 89 85 88 fe ff ff 	mov    %rax,-0x178(%rbp)
    9a73:	48 8d 85 00 fa ff ff 	lea    -0x600(%rbp),%rax
    9a7a:	48 83 c0 08          	add    $0x8,%rax
    9a7e:	48 89 85 90 fe ff ff 	mov    %rax,-0x170(%rbp)
    9a85:	48 8d 85 00 fa ff ff 	lea    -0x600(%rbp),%rax
    9a8c:	48 83 c0 18          	add    $0x18,%rax
    9a90:	48 89 85 98 fe ff ff 	mov    %rax,-0x168(%rbp)
    9a97:	48 8d 85 00 fa ff ff 	lea    -0x600(%rbp),%rax
    9a9e:	48 83 c0 18          	add    $0x18,%rax
    9aa2:	48 89 85 a0 fe ff ff 	mov    %rax,-0x160(%rbp)
    9aa9:	48 8d 85 00 fa ff ff 	lea    -0x600(%rbp),%rax
    9ab0:	48 83 c0 08          	add    $0x8,%rax
    9ab4:	48 89 85 a8 fe ff ff 	mov    %rax,-0x158(%rbp)
    9abb:	48 8d 85 00 fa ff ff 	lea    -0x600(%rbp),%rax
    9ac2:	48 83 c0 18          	add    $0x18,%rax
    9ac6:	48 89 85 b0 fe ff ff 	mov    %rax,-0x150(%rbp)
    9acd:	48 8d 85 00 fa ff ff 	lea    -0x600(%rbp),%rax
    9ad4:	48 83 c0 18          	add    $0x18,%rax
    9ad8:	48 89 85 b8 fe ff ff 	mov    %rax,-0x148(%rbp)
    9adf:	48 8d 85 00 fa ff ff 	lea    -0x600(%rbp),%rax
    9ae6:	48 83 c0 08          	add    $0x8,%rax
    9aea:	48 89 85 c0 fe ff ff 	mov    %rax,-0x140(%rbp)
    9af1:	48 8d 85 00 fa ff ff 	lea    -0x600(%rbp),%rax
    9af8:	48 83 c0 08          	add    $0x8,%rax
    9afc:	48 89 85 c8 fe ff ff 	mov    %rax,-0x138(%rbp)
    9b03:	48 8d 85 00 fa ff ff 	lea    -0x600(%rbp),%rax
    9b0a:	48 83 c0 18          	add    $0x18,%rax
    9b0e:	48 89 85 d0 fe ff ff 	mov    %rax,-0x130(%rbp)
    9b15:	48 8d 85 00 fa ff ff 	lea    -0x600(%rbp),%rax
    9b1c:	48 83 c0 18          	add    $0x18,%rax
    9b20:	48 89 85 d8 fe ff ff 	mov    %rax,-0x128(%rbp)
    9b27:	48 8d 85 00 fa ff ff 	lea    -0x600(%rbp),%rax
    9b2e:	48 83 c0 18          	add    $0x18,%rax
    9b32:	48 89 85 e0 fe ff ff 	mov    %rax,-0x120(%rbp)
    9b39:	48 8d 85 00 fa ff ff 	lea    -0x600(%rbp),%rax
    9b40:	48 83 c0 08          	add    $0x8,%rax
    9b44:	48 89 85 e8 fe ff ff 	mov    %rax,-0x118(%rbp)
    9b4b:	48 8d 85 00 fa ff ff 	lea    -0x600(%rbp),%rax
    9b52:	48 83 c0 08          	add    $0x8,%rax
    9b56:	48 89 85 f0 fe ff ff 	mov    %rax,-0x110(%rbp)
    9b5d:	48 8d 85 00 fa ff ff 	lea    -0x600(%rbp),%rax
    9b64:	48 83 c0 18          	add    $0x18,%rax
    9b68:	48 89 85 f8 fe ff ff 	mov    %rax,-0x108(%rbp)
    9b6f:	48 8d 85 00 fa ff ff 	lea    -0x600(%rbp),%rax
    9b76:	48 83 c0 18          	add    $0x18,%rax
    9b7a:	48 89 85 00 ff ff ff 	mov    %rax,-0x100(%rbp)
    9b81:	48 8d 85 00 fa ff ff 	lea    -0x600(%rbp),%rax
    9b88:	48 83 c0 08          	add    $0x8,%rax
    9b8c:	48 89 85 08 ff ff ff 	mov    %rax,-0xf8(%rbp)
    9b93:	48 8d 85 00 fa ff ff 	lea    -0x600(%rbp),%rax
    9b9a:	48 83 c0 18          	add    $0x18,%rax
    9b9e:	48 89 85 10 ff ff ff 	mov    %rax,-0xf0(%rbp)
    9ba5:	48 8d 85 00 fa ff ff 	lea    -0x600(%rbp),%rax
    9bac:	48 83 c0 18          	add    $0x18,%rax
    9bb0:	48 89 85 18 ff ff ff 	mov    %rax,-0xe8(%rbp)
    9bb7:	48 8d 85 00 fa ff ff 	lea    -0x600(%rbp),%rax
    9bbe:	48 83 c0 08          	add    $0x8,%rax
    9bc2:	48 89 85 20 ff ff ff 	mov    %rax,-0xe0(%rbp)
    9bc9:	48 8d 85 00 fa ff ff 	lea    -0x600(%rbp),%rax
    9bd0:	48 83 c0 08          	add    $0x8,%rax
    9bd4:	48 89 85 28 ff ff ff 	mov    %rax,-0xd8(%rbp)
    9bdb:	48 8d 85 00 fa ff ff 	lea    -0x600(%rbp),%rax
    9be2:	48 83 c0 18          	add    $0x18,%rax
    9be6:	48 89 85 30 ff ff ff 	mov    %rax,-0xd0(%rbp)
    9bed:	48 8d 85 00 fa ff ff 	lea    -0x600(%rbp),%rax
    9bf4:	48 83 c0 18          	add    $0x18,%rax
    9bf8:	48 89 85 38 ff ff ff 	mov    %rax,-0xc8(%rbp)
    9bff:	c7 85 9c f7 ff ff 00 	movl   $0x0,-0x864(%rbp)
    9c06:	00 00 00 
    9c09:	eb 1e                	jmp    9c29 <func_5+0x21e2>
    9c0b:	8b 85 9c f7 ff ff    	mov    -0x864(%rbp),%eax
    9c11:	48 98                	cltq   
    9c13:	48 8d 15 66 dc 00 00 	lea    0xdc66(%rip),%rdx        # 17880 <g_1327>
    9c1a:	48 89 94 c5 00 fa ff 	mov    %rdx,-0x600(%rbp,%rax,8)
    9c21:	ff 
    9c22:	83 85 9c f7 ff ff 01 	addl   $0x1,-0x864(%rbp)
    9c29:	83 bd 9c f7 ff ff 04 	cmpl   $0x4,-0x864(%rbp)
    9c30:	7e d9                	jle    9c0b <func_5+0x21c4>
    9c32:	c7 05 ac d5 00 00 0f 	movl   $0xf,0xd5ac(%rip)        # 171e8 <g_223>
    9c39:	00 00 00 
    9c3c:	e9 d5 05 00 00       	jmpq   a216 <func_5+0x27cf>
    9c41:	48 8d 05 90 f5 00 00 	lea    0xf590(%rip),%rax        # 191d8 <g_890>
    9c48:	48 89 85 58 f8 ff ff 	mov    %rax,-0x7a8(%rbp)
    9c4f:	c7 85 30 fa ff ff ff 	movl   $0xffffffff,-0x5d0(%rbp)
    9c56:	ff ff ff 
    9c59:	c7 85 34 fa ff ff ff 	movl   $0xffffffff,-0x5cc(%rbp)
    9c60:	ff ff ff 
    9c63:	c7 85 38 fa ff ff ff 	movl   $0xffffffff,-0x5c8(%rbp)
    9c6a:	ff ff ff 
    9c6d:	c7 85 3c fa ff ff ff 	movl   $0xffffffff,-0x5c4(%rbp)
    9c74:	ff ff ff 
    9c77:	c7 85 40 fa ff ff ff 	movl   $0xffffffff,-0x5c0(%rbp)
    9c7e:	ff ff ff 
    9c81:	c7 85 44 fa ff ff ff 	movl   $0xffffffff,-0x5bc(%rbp)
    9c88:	ff ff ff 
    9c8b:	c7 85 48 fa ff ff ff 	movl   $0xffffffff,-0x5b8(%rbp)
    9c92:	ff ff ff 
    9c95:	c7 85 4c fa ff ff ff 	movl   $0xffffffff,-0x5b4(%rbp)
    9c9c:	ff ff ff 
    9c9f:	c7 85 50 fa ff ff ff 	movl   $0xffffffff,-0x5b0(%rbp)
    9ca6:	ff ff ff 
    9ca9:	c7 85 54 fa ff ff ff 	movl   $0xffffffff,-0x5ac(%rbp)
    9cb0:	ff ff ff 
    9cb3:	c7 85 b8 f7 ff ff 00 	movl   $0xfe528600,-0x848(%rbp)
    9cba:	86 52 fe 
    9cbd:	c7 05 2d d6 00 00 00 	movl   $0x0,0xd62d(%rip)        # 172f4 <g_283>
    9cc4:	00 00 00 
    9cc7:	e9 2d 05 00 00       	jmpq   a1f9 <func_5+0x27b2>
    9ccc:	48 8d 05 05 f5 00 00 	lea    0xf505(%rip),%rax        # 191d8 <g_890>
    9cd3:	48 89 85 20 fb ff ff 	mov    %rax,-0x4e0(%rbp)
    9cda:	48 8d 05 f7 f4 00 00 	lea    0xf4f7(%rip),%rax        # 191d8 <g_890>
    9ce1:	48 89 85 28 fb ff ff 	mov    %rax,-0x4d8(%rbp)
    9ce8:	48 8d 05 e9 f4 00 00 	lea    0xf4e9(%rip),%rax        # 191d8 <g_890>
    9cef:	48 89 85 30 fb ff ff 	mov    %rax,-0x4d0(%rbp)
    9cf6:	48 8d 05 db f4 00 00 	lea    0xf4db(%rip),%rax        # 191d8 <g_890>
    9cfd:	48 89 85 38 fb ff ff 	mov    %rax,-0x4c8(%rbp)
    9d04:	48 8d 05 cd f4 00 00 	lea    0xf4cd(%rip),%rax        # 191d8 <g_890>
    9d0b:	48 89 85 40 fb ff ff 	mov    %rax,-0x4c0(%rbp)
    9d12:	48 8d 05 bf f4 00 00 	lea    0xf4bf(%rip),%rax        # 191d8 <g_890>
    9d19:	48 89 85 48 fb ff ff 	mov    %rax,-0x4b8(%rbp)
    9d20:	48 8d 05 b1 f4 00 00 	lea    0xf4b1(%rip),%rax        # 191d8 <g_890>
    9d27:	48 89 85 50 fb ff ff 	mov    %rax,-0x4b0(%rbp)
    9d2e:	48 8d 05 a3 f4 00 00 	lea    0xf4a3(%rip),%rax        # 191d8 <g_890>
    9d35:	48 89 85 58 fb ff ff 	mov    %rax,-0x4a8(%rbp)
    9d3c:	48 8d 05 95 f4 00 00 	lea    0xf495(%rip),%rax        # 191d8 <g_890>
    9d43:	48 89 85 60 fb ff ff 	mov    %rax,-0x4a0(%rbp)
    9d4a:	48 8d 05 87 f4 00 00 	lea    0xf487(%rip),%rax        # 191d8 <g_890>
    9d51:	48 89 85 68 fb ff ff 	mov    %rax,-0x498(%rbp)
    9d58:	48 8d 05 79 f4 00 00 	lea    0xf479(%rip),%rax        # 191d8 <g_890>
    9d5f:	48 89 85 70 fb ff ff 	mov    %rax,-0x490(%rbp)
    9d66:	48 8d 05 6b f4 00 00 	lea    0xf46b(%rip),%rax        # 191d8 <g_890>
    9d6d:	48 89 85 78 fb ff ff 	mov    %rax,-0x488(%rbp)
    9d74:	48 8d 05 5d f4 00 00 	lea    0xf45d(%rip),%rax        # 191d8 <g_890>
    9d7b:	48 89 85 80 fb ff ff 	mov    %rax,-0x480(%rbp)
    9d82:	48 8d 05 4f f4 00 00 	lea    0xf44f(%rip),%rax        # 191d8 <g_890>
    9d89:	48 89 85 88 fb ff ff 	mov    %rax,-0x478(%rbp)
    9d90:	48 8d 05 41 f4 00 00 	lea    0xf441(%rip),%rax        # 191d8 <g_890>
    9d97:	48 89 85 90 fb ff ff 	mov    %rax,-0x470(%rbp)
    9d9e:	48 c7 85 60 f8 ff ff 	movq   $0x0,-0x7a0(%rbp)
    9da5:	00 00 00 00 
    9da9:	66 c7 85 74 f7 ff ff 	movw   $0x0,-0x88c(%rbp)
    9db0:	00 00 
    9db2:	c7 85 bc f7 ff ff 01 	movl   $0x1,-0x844(%rbp)
    9db9:	00 00 00 
    9dbc:	48 8d 05 2d d5 00 00 	lea    0xd52d(%rip),%rax        # 172f0 <g_282>
    9dc3:	48 89 85 68 f8 ff ff 	mov    %rax,-0x798(%rbp)
    9dca:	48 8d 05 6f f2 00 00 	lea    0xf26f(%rip),%rax        # 19040 <g_653>
    9dd1:	48 89 85 70 f8 ff ff 	mov    %rax,-0x790(%rbp)
    9dd8:	c7 45 c4 ff ff ff ff 	movl   $0xffffffff,-0x3c(%rbp)
    9ddf:	66 c7 05 64 d2 00 00 	movw   $0x0,0xd264(%rip)        # 1704c <g_126>
    9de6:	00 00 
    9de8:	e9 1a 02 00 00       	jmpq   a007 <func_5+0x25c0>
    9ded:	48 8d 05 7c f9 00 00 	lea    0xf97c(%rip),%rax        # 19770 <g_1256>
    9df4:	48 89 85 78 f8 ff ff 	mov    %rax,-0x788(%rbp)
    9dfb:	48 8d 05 fe 92 00 00 	lea    0x92fe(%rip),%rax        # 13100 <g_1267>
    9e02:	48 89 85 08 f8 ff ff 	mov    %rax,-0x7f8(%rbp)
    9e09:	48 8d 85 08 f8 ff ff 	lea    -0x7f8(%rbp),%rax
    9e10:	48 89 85 80 f8 ff ff 	mov    %rax,-0x780(%rbp)
    9e17:	c7 85 c0 f7 ff ff 08 	movl   $0x8,-0x840(%rbp)
    9e1e:	00 00 00 
    9e21:	83 bd 58 f7 ff ff 00 	cmpl   $0x0,-0x8a8(%rbp)
    9e28:	0f 85 eb 01 00 00    	jne    a019 <func_5+0x25d2>
    9e2e:	48 8b 15 3b f9 00 00 	mov    0xf93b(%rip),%rdx        # 19770 <g_1256>
    9e35:	48 8b 85 78 f8 ff ff 	mov    -0x788(%rbp),%rax
    9e3c:	48 89 10             	mov    %rdx,(%rax)
    9e3f:	48 8b 85 78 f8 ff ff 	mov    -0x788(%rbp),%rax
    9e46:	48 8b 08             	mov    (%rax),%rcx
    9e49:	48 8b 95 d8 f7 ff ff 	mov    -0x828(%rbp),%rdx
    9e50:	48 8b 85 80 f8 ff ff 	mov    -0x780(%rbp),%rax
    9e57:	48 89 10             	mov    %rdx,(%rax)
    9e5a:	48 8b 85 80 f8 ff ff 	mov    -0x780(%rbp),%rax
    9e61:	48 8b 00             	mov    (%rax),%rax
    9e64:	48 39 c1             	cmp    %rax,%rcx
    9e67:	0f 84 5f 01 00 00    	je     9fcc <func_5+0x2585>
    9e6d:	48 8b 05 5c f3 00 00 	mov    0xf35c(%rip),%rax        # 191d0 <g_883>
    9e74:	48 8b 00             	mov    (%rax),%rax
    9e77:	0f b7 00             	movzwl (%rax),%eax
    9e7a:	0f b7 d8             	movzwl %ax,%ebx
    9e7d:	8b 85 84 f7 ff ff    	mov    -0x87c(%rbp),%eax
    9e83:	44 0f b7 e0          	movzwl %ax,%r12d
    9e87:	0f b7 85 74 f7 ff ff 	movzwl -0x88c(%rbp),%eax
    9e8e:	44 0f be e8          	movsbl %al,%r13d
    9e92:	8b 85 3c fa ff ff    	mov    -0x5c4(%rbp),%eax
    9e98:	0f b7 c0             	movzwl %ax,%eax
    9e9b:	be 00 00 00 00       	mov    $0x0,%esi
    9ea0:	89 c7                	mov    %eax,%edi
    9ea2:	e8 5f cf ff ff       	callq  6e06 <safe_lshift_func_uint16_t_u_u>
    9ea7:	66 85 c0             	test   %ax,%ax
    9eaa:	75 68                	jne    9f14 <func_5+0x24cd>
    9eac:	0f b7 95 72 f7 ff ff 	movzwl -0x88e(%rbp),%edx
    9eb3:	48 8b 85 50 f8 ff ff 	mov    -0x7b0(%rbp),%rax
    9eba:	48 3b 85 60 f8 ff ff 	cmp    -0x7a0(%rbp),%rax
    9ec1:	74 3b                	je     9efe <func_5+0x24b7>
    9ec3:	48 8b 05 3e f0 00 00 	mov    0xf03e(%rip),%rax        # 18f08 <g_389>
    9eca:	48 8b 00             	mov    (%rax),%rax
    9ecd:	48 85 c0             	test   %rax,%rax
    9ed0:	75 0f                	jne    9ee1 <func_5+0x249a>
    9ed2:	48 8d 05 67 d4 00 00 	lea    0xd467(%rip),%rax        # 17340 <g_316+0x40>
    9ed9:	48 8b 00             	mov    (%rax),%rax
    9edc:	48 85 c0             	test   %rax,%rax
    9edf:	74 07                	je     9ee8 <func_5+0x24a1>
    9ee1:	b8 01 00 00 00       	mov    $0x1,%eax
    9ee6:	eb 05                	jmp    9eed <func_5+0x24a6>
    9ee8:	b8 00 00 00 00       	mov    $0x0,%eax
    9eed:	23 85 b0 f7 ff ff    	and    -0x850(%rbp),%eax
    9ef3:	85 c0                	test   %eax,%eax
    9ef5:	74 07                	je     9efe <func_5+0x24b7>
    9ef7:	b8 01 00 00 00       	mov    $0x1,%eax
    9efc:	eb 05                	jmp    9f03 <func_5+0x24bc>
    9efe:	b8 00 00 00 00       	mov    $0x0,%eax
    9f03:	0f b7 c0             	movzwl %ax,%eax
    9f06:	89 d6                	mov    %edx,%esi
    9f08:	89 c7                	mov    %eax,%edi
    9f0a:	e8 2e ce ff ff       	callq  6d3d <safe_mul_func_uint16_t_u_u>
    9f0f:	66 85 c0             	test   %ax,%ax
    9f12:	74 07                	je     9f1b <func_5+0x24d4>
    9f14:	b8 01 00 00 00       	mov    $0x1,%eax
    9f19:	eb 05                	jmp    9f20 <func_5+0x24d9>
    9f1b:	b8 00 00 00 00       	mov    $0x0,%eax
    9f20:	48 8d 15 19 d4 00 00 	lea    0xd419(%rip),%rdx        # 17340 <g_316+0x40>
    9f27:	48 98                	cltq   
    9f29:	48 89 02             	mov    %rax,(%rdx)
    9f2c:	44 89 ee             	mov    %r13d,%esi
    9f2f:	bf 01 00 00 00       	mov    $0x1,%edi
    9f34:	e8 9b c2 ff ff       	callq  61d4 <safe_add_func_int8_t_s_s>
    9f39:	48 0f be c0          	movsbq %al,%rax
    9f3d:	48 35 66 67 00 00    	xor    $0x6766,%rax
    9f43:	48 89 c2             	mov    %rax,%rdx
    9f46:	48 8b 85 48 f8 ff ff 	mov    -0x7b8(%rbp),%rax
    9f4d:	48 89 d6             	mov    %rdx,%rsi
    9f50:	48 89 c7             	mov    %rax,%rdi
    9f53:	e8 5c ca ff ff       	callq  69b4 <safe_mod_func_int64_t_s_s>
    9f58:	89 c1                	mov    %eax,%ecx
    9f5a:	48 8b 95 20 fb ff ff 	mov    -0x4e0(%rbp),%rdx
    9f61:	48 8b 85 20 f8 ff ff 	mov    -0x7e0(%rbp),%rax
    9f68:	48 89 10             	mov    %rdx,(%rax)
    9f6b:	48 8b 85 20 f8 ff ff 	mov    -0x7e0(%rbp),%rax
    9f72:	48 8b 00             	mov    (%rax),%rax
    9f75:	48 39 85 58 f8 ff ff 	cmp    %rax,-0x7a8(%rbp)
    9f7c:	0f 95 c0             	setne  %al
    9f7f:	0f b6 c0             	movzbl %al,%eax
    9f82:	89 ce                	mov    %ecx,%esi
    9f84:	89 c7                	mov    %eax,%edi
    9f86:	e8 45 cf ff ff       	callq  6ed0 <safe_sub_func_uint32_t_u_u>
    9f8b:	0f b7 c0             	movzwl %ax,%eax
    9f8e:	44 89 e6             	mov    %r12d,%esi
    9f91:	89 c7                	mov    %eax,%edi
    9f93:	e8 67 cd ff ff       	callq  6cff <safe_add_func_uint16_t_u_u>
    9f98:	66 85 c0             	test   %ax,%ax
    9f9b:	74 10                	je     9fad <func_5+0x2566>
    9f9d:	83 bd bc f7 ff ff 00 	cmpl   $0x0,-0x844(%rbp)
    9fa4:	74 07                	je     9fad <func_5+0x2566>
    9fa6:	b8 01 00 00 00       	mov    $0x1,%eax
    9fab:	eb 05                	jmp    9fb2 <func_5+0x256b>
    9fad:	b8 00 00 00 00       	mov    $0x0,%eax
    9fb2:	89 c2                	mov    %eax,%edx
    9fb4:	48 8b 85 48 f8 ff ff 	mov    -0x7b8(%rbp),%rax
    9fbb:	31 d0                	xor    %edx,%eax
    9fbd:	0f b7 c0             	movzwl %ax,%eax
    9fc0:	89 de                	mov    %ebx,%esi
    9fc2:	89 c7                	mov    %eax,%edi
    9fc4:	e8 c5 cd ff ff       	callq  6d8e <safe_div_func_uint16_t_u_u>
    9fc9:	66 85 c0             	test   %ax,%ax
    9fcc:	48 8b 85 60 fa ff ff 	mov    -0x5a0(%rbp),%rax
    9fd3:	48 85 c0             	test   %rax,%rax
    9fd6:	0f 95 c0             	setne  %al
    9fd9:	0f b6 c0             	movzbl %al,%eax
    9fdc:	be 01 00 00 00       	mov    $0x1,%esi
    9fe1:	89 c7                	mov    %eax,%edi
    9fe3:	e8 92 ce ff ff       	callq  6e7a <safe_rshift_func_uint16_t_u_u>
    9fe8:	89 c2                	mov    %eax,%edx
    9fea:	48 8b 05 6f f7 00 00 	mov    0xf76f(%rip),%rax        # 19760 <g_1034>
    9ff1:	0f b7 d2             	movzwl %dx,%edx
    9ff4:	89 10                	mov    %edx,(%rax)
    9ff6:	0f b7 05 4f d0 00 00 	movzwl 0xd04f(%rip),%eax        # 1704c <g_126>
    9ffd:	83 c0 01             	add    $0x1,%eax
    a000:	66 89 05 45 d0 00 00 	mov    %ax,0xd045(%rip)        # 1704c <g_126>
    a007:	0f b7 05 3e d0 00 00 	movzwl 0xd03e(%rip),%eax        # 1704c <g_126>
    a00e:	66 85 c0             	test   %ax,%ax
    a011:	0f 8e d6 fd ff ff    	jle    9ded <func_5+0x23a6>
    a017:	eb 01                	jmp    a01a <func_5+0x25d3>
    a019:	90                   	nop
    a01a:	8b 85 f0 fa ff ff    	mov    -0x510(%rbp),%eax
    a020:	48 63 d0             	movslq %eax,%rdx
    a023:	48 8b 05 e6 d2 00 00 	mov    0xd2e6(%rip),%rax        # 17310 <g_316+0x10>
    a02a:	48 39 c2             	cmp    %rax,%rdx
    a02d:	0f 96 c0             	setbe  %al
    a030:	44 0f b6 e8          	movzbl %al,%r13d
    a034:	0f be 9d 48 f7 ff ff 	movsbl -0x8b8(%rbp),%ebx
    a03b:	48 8b 05 8e f1 00 00 	mov    0xf18e(%rip),%rax        # 191d0 <g_883>
    a042:	48 8b 00             	mov    (%rax),%rax
    a045:	0f b7 00             	movzwl (%rax),%eax
    a048:	44 0f b7 e0          	movzwl %ax,%r12d
    a04c:	be 00 00 00 00       	mov    $0x0,%esi
    a051:	bf 01 00 00 00       	mov    $0x1,%edi
    a056:	e8 e2 cc ff ff       	callq  6d3d <safe_mul_func_uint16_t_u_u>
    a05b:	0f b7 c0             	movzwl %ax,%eax
    a05e:	be 05 00 00 00       	mov    $0x5,%esi
    a063:	89 c7                	mov    %eax,%edi
    a065:	e8 9b c5 ff ff       	callq  6605 <safe_sub_func_int32_t_s_s>
    a06a:	48 8b 85 68 f8 ff ff 	mov    -0x798(%rbp),%rax
    a071:	66 c7 00 01 00       	movw   $0x1,(%rax)
    a076:	be 0c 00 00 00       	mov    $0xc,%esi
    a07b:	bf 01 00 00 00       	mov    $0x1,%edi
    a080:	e8 0d c4 ff ff       	callq  6492 <safe_lshift_func_int16_t_s_s>
    a085:	44 89 e6             	mov    %r12d,%esi
    a088:	bf 00 00 00 00       	mov    $0x0,%edi
    a08d:	e8 ab cc ff ff       	callq  6d3d <safe_mul_func_uint16_t_u_u>
    a092:	0f b7 c0             	movzwl %ax,%eax
    a095:	89 85 34 fa ff ff    	mov    %eax,-0x5cc(%rbp)
    a09b:	8b 85 34 fa ff ff    	mov    -0x5cc(%rbp),%eax
    a0a1:	48 63 d0             	movslq %eax,%rdx
    a0a4:	8b 85 5c f7 ff ff    	mov    -0x8a4(%rbp),%eax
    a0aa:	48 39 c2             	cmp    %rax,%rdx
    a0ad:	0f 93 c0             	setae  %al
    a0b0:	0f b6 c0             	movzbl %al,%eax
    a0b3:	39 85 b8 f7 ff ff    	cmp    %eax,-0x848(%rbp)
    a0b9:	0f 9e c0             	setle  %al
    a0bc:	0f b6 d0             	movzbl %al,%edx
    a0bf:	0f b7 85 72 f7 ff ff 	movzwl -0x88e(%rbp),%eax
    a0c6:	39 c2                	cmp    %eax,%edx
    a0c8:	0f 94 c0             	sete   %al
    a0cb:	0f b6 c0             	movzbl %al,%eax
    a0ce:	89 de                	mov    %ebx,%esi
    a0d0:	89 c7                	mov    %eax,%edi
    a0d2:	e8 df c4 ff ff       	callq  65b6 <safe_add_func_int32_t_s_s>
    a0d7:	0f b6 c0             	movzbl %al,%eax
    a0da:	be de 00 00 00       	mov    $0xde,%esi
    a0df:	89 c7                	mov    %eax,%edi
    a0e1:	e8 f5 ca ff ff       	callq  6bdb <safe_div_func_uint8_t_u_u>
    a0e6:	0f b6 d0             	movzbl %al,%edx
    a0e9:	8b 05 09 d2 00 00    	mov    0xd209(%rip),%eax        # 172f8 <g_313>
    a0ef:	39 c2                	cmp    %eax,%edx
    a0f1:	0f 9e c0             	setle  %al
    a0f4:	0f b6 c0             	movzbl %al,%eax
    a0f7:	41 39 c5             	cmp    %eax,%r13d
    a0fa:	7c 07                	jl     a103 <func_5+0x26bc>
    a0fc:	b9 09 00 00 00       	mov    $0x9,%ecx
    a101:	eb 05                	jmp    a108 <func_5+0x26c1>
    a103:	b9 08 00 00 00       	mov    $0x8,%ecx
    a108:	48 8b 85 f0 f7 ff ff 	mov    -0x810(%rbp),%rax
    a10f:	48 8b 00             	mov    (%rax),%rax
    a112:	8b 10                	mov    (%rax),%edx
    a114:	48 8b 85 f0 f7 ff ff 	mov    -0x810(%rbp),%rax
    a11b:	48 8b 00             	mov    (%rax),%rax
    a11e:	21 ca                	and    %ecx,%edx
    a120:	89 10                	mov    %edx,(%rax)
    a122:	48 8b 85 70 f8 ff ff 	mov    -0x790(%rbp),%rax
    a129:	48 8b 95 38 f8 ff ff 	mov    -0x7c8(%rbp),%rdx
    a130:	48 89 10             	mov    %rdx,(%rax)
    a133:	c7 85 84 f7 ff ff 00 	movl   $0x0,-0x87c(%rbp)
    a13a:	00 00 00 
    a13d:	e9 9b 00 00 00       	jmpq   a1dd <func_5+0x2796>
    a142:	48 8d 05 cf ed 00 00 	lea    0xedcf(%rip),%rax        # 18f18 <g_396>
    a149:	48 89 85 88 f8 ff ff 	mov    %rax,-0x778(%rbp)
    a150:	48 8b 15 c1 ed 00 00 	mov    0xedc1(%rip),%rdx        # 18f18 <g_396>
    a157:	48 8b 85 88 f8 ff ff 	mov    -0x778(%rbp),%rax
    a15e:	48 89 10             	mov    %rdx,(%rax)
    a161:	0f b7 85 72 f7 ff ff 	movzwl -0x88e(%rbp),%eax
    a168:	39 85 b4 f7 ff ff    	cmp    %eax,-0x84c(%rbp)
    a16e:	0f 97 c0             	seta   %al
    a171:	0f b6 c0             	movzbl %al,%eax
    a174:	89 c6                	mov    %eax,%esi
    a176:	bf 01 00 00 00       	mov    $0x1,%edi
    a17b:	e8 92 c0 ff ff       	callq  6212 <safe_mul_func_int8_t_s_s>
    a180:	48 8b 95 00 f8 ff ff 	mov    -0x800(%rbp),%rdx
    a187:	48 8b 12             	mov    (%rdx),%rdx
    a18a:	48 8b 12             	mov    (%rdx),%rdx
    a18d:	48 8b 12             	mov    (%rdx),%rdx
    a190:	8b 0a                	mov    (%rdx),%ecx
    a192:	0f be d0             	movsbl %al,%edx
    a195:	48 8b 85 00 f8 ff ff 	mov    -0x800(%rbp),%rax
    a19c:	48 8b 00             	mov    (%rax),%rax
    a19f:	48 8b 00             	mov    (%rax),%rax
    a1a2:	48 8b 00             	mov    (%rax),%rax
    a1a5:	09 ca                	or     %ecx,%edx
    a1a7:	89 10                	mov    %edx,(%rax)
    a1a9:	8b 85 4c f7 ff ff    	mov    -0x8b4(%rbp),%eax
    a1af:	85 c0                	test   %eax,%eax
    a1b1:	75 22                	jne    a1d5 <func_5+0x278e>
    a1b3:	48 8b 85 f0 f7 ff ff 	mov    -0x810(%rbp),%rax
    a1ba:	48 8b 00             	mov    (%rax),%rax
    a1bd:	8b 08                	mov    (%rax),%ecx
    a1bf:	8b 95 f0 fa ff ff    	mov    -0x510(%rbp),%edx
    a1c5:	48 8b 85 f0 f7 ff ff 	mov    -0x810(%rbp),%rax
    a1cc:	48 8b 00             	mov    (%rax),%rax
    a1cf:	21 ca                	and    %ecx,%edx
    a1d1:	89 10                	mov    %edx,(%rax)
    a1d3:	eb 01                	jmp    a1d6 <func_5+0x278f>
    a1d5:	90                   	nop
    a1d6:	83 85 84 f7 ff ff 01 	addl   $0x1,-0x87c(%rbp)
    a1dd:	83 bd 84 f7 ff ff 00 	cmpl   $0x0,-0x87c(%rbp)
    a1e4:	0f 8e 58 ff ff ff    	jle    a142 <func_5+0x26fb>
    a1ea:	8b 05 04 d1 00 00    	mov    0xd104(%rip),%eax        # 172f4 <g_283>
    a1f0:	83 c0 01             	add    $0x1,%eax
    a1f3:	89 05 fb d0 00 00    	mov    %eax,0xd0fb(%rip)        # 172f4 <g_283>
    a1f9:	8b 05 f5 d0 00 00    	mov    0xd0f5(%rip),%eax        # 172f4 <g_283>
    a1ff:	85 c0                	test   %eax,%eax
    a201:	0f 84 c5 fa ff ff    	je     9ccc <func_5+0x2285>
    a207:	8b 05 db cf 00 00    	mov    0xcfdb(%rip),%eax        # 171e8 <g_223>
    a20d:	83 c0 01             	add    $0x1,%eax
    a210:	89 05 d2 cf 00 00    	mov    %eax,0xcfd2(%rip)        # 171e8 <g_223>
    a216:	8b 05 cc cf 00 00    	mov    0xcfcc(%rip),%eax        # 171e8 <g_223>
    a21c:	83 f8 21             	cmp    $0x21,%eax
    a21f:	0f 85 1c fa ff ff    	jne    9c41 <func_5+0x21fa>
    a225:	48 8b 85 08 fa ff ff 	mov    -0x5f8(%rbp),%rax
    a22c:	48 89 05 e5 ec 00 00 	mov    %rax,0xece5(%rip)        # 18f18 <g_396>
    a233:	c7 85 94 f7 ff ff 00 	movl   $0x0,-0x86c(%rbp)
    a23a:	00 00 00 
    a23d:	eb 29                	jmp    a268 <func_5+0x2821>
    a23f:	8b 85 94 f7 ff ff    	mov    -0x86c(%rbp),%eax
    a245:	48 98                	cltq   
    a247:	48 8d 14 c5 00 00 00 	lea    0x0(,%rax,8),%rdx
    a24e:	00 
    a24f:	48 8d 05 2a ef 00 00 	lea    0xef2a(%rip),%rax        # 19180 <g_811>
    a256:	48 8d 0d d3 fe 00 00 	lea    0xfed3(%rip),%rcx        # 1a130 <g_812>
    a25d:	48 89 0c 02          	mov    %rcx,(%rdx,%rax,1)
    a261:	83 85 94 f7 ff ff 01 	addl   $0x1,-0x86c(%rbp)
    a268:	83 bd 94 f7 ff ff 08 	cmpl   $0x8,-0x86c(%rbp)
    a26f:	7e ce                	jle    a23f <func_5+0x27f8>
    a271:	0f b7 85 e2 f9 ff ff 	movzwl -0x61e(%rbp),%eax
    a278:	48 8b 5d c8          	mov    -0x38(%rbp),%rbx
    a27c:	64 48 33 1c 25 28 00 	xor    %fs:0x28,%rbx
    a283:	00 00 
    a285:	74 05                	je     a28c <func_5+0x2845>
    a287:	e8 e4 bd ff ff       	callq  6070 <__stack_chk_fail@plt>
    a28c:	48 81 c4 98 08 00 00 	add    $0x898,%rsp
    a293:	5b                   	pop    %rbx
    a294:	41 5c                	pop    %r12
    a296:	41 5d                	pop    %r13
    a298:	41 5e                	pop    %r14
    a29a:	41 5f                	pop    %r15
    a29c:	5d                   	pop    %rbp
    a29d:	c3                   	retq   

000000000000a29e <func_26>:
    a29e:	f3 0f 1e fa          	endbr64 
    a2a2:	55                   	push   %rbp
    a2a3:	48 89 e5             	mov    %rsp,%rbp
    a2a6:	89 d0                	mov    %edx,%eax
    a2a8:	48 89 4d e8          	mov    %rcx,-0x18(%rbp)
    a2ac:	89 fa                	mov    %edi,%edx
    a2ae:	66 89 55 fc          	mov    %dx,-0x4(%rbp)
    a2b2:	89 f2                	mov    %esi,%edx
    a2b4:	66 89 55 f8          	mov    %dx,-0x8(%rbp)
    a2b8:	66 89 45 f4          	mov    %ax,-0xc(%rbp)
    a2bc:	48 0f bf 45 f8       	movswq -0x8(%rbp),%rax
    a2c1:	5d                   	pop    %rbp
    a2c2:	c3                   	retq   

000000000000a2c3 <func_43>:
    a2c3:	f3 0f 1e fa          	endbr64 
    a2c7:	55                   	push   %rbp
    a2c8:	48 89 e5             	mov    %rsp,%rbp
    a2cb:	41 57                	push   %r15
    a2cd:	41 56                	push   %r14
    a2cf:	41 55                	push   %r13
    a2d1:	41 54                	push   %r12
    a2d3:	53                   	push   %rbx
    a2d4:	48 81 ec 88 01 00 00 	sub    $0x188,%rsp
    a2db:	89 f9                	mov    %edi,%ecx
    a2dd:	89 b5 68 fe ff ff    	mov    %esi,-0x198(%rbp)
    a2e3:	89 d0                	mov    %edx,%eax
    a2e5:	89 ca                	mov    %ecx,%edx
    a2e7:	88 95 6c fe ff ff    	mov    %dl,-0x194(%rbp)
    a2ed:	66 89 85 64 fe ff ff 	mov    %ax,-0x19c(%rbp)
    a2f4:	64 48 8b 04 25 28 00 	mov    %fs:0x28,%rax
    a2fb:	00 00 
    a2fd:	48 89 45 c8          	mov    %rax,-0x38(%rbp)
    a301:	31 c0                	xor    %eax,%eax
    a303:	48 8d 05 22 cd 00 00 	lea    0xcd22(%rip),%rax        # 1702c <g_49>
    a30a:	48 89 85 98 fe ff ff 	mov    %rax,-0x168(%rbp)
    a311:	c7 85 78 fe ff ff 1b 	movl   $0x2bfeed1b,-0x188(%rbp)
    a318:	ed fe 2b 
    a31b:	48 8d 85 78 fe ff ff 	lea    -0x188(%rbp),%rax
    a322:	48 89 85 a0 fe ff ff 	mov    %rax,-0x160(%rbp)
    a329:	48 8d 85 78 fe ff ff 	lea    -0x188(%rbp),%rax
    a330:	48 89 85 a8 fe ff ff 	mov    %rax,-0x158(%rbp)
    a337:	c7 85 7c fe ff ff 01 	movl   $0x1,-0x184(%rbp)
    a33e:	00 00 00 
    a341:	48 8d 05 e4 cc 00 00 	lea    0xcce4(%rip),%rax        # 1702c <g_49>
    a348:	48 89 85 90 fe ff ff 	mov    %rax,-0x170(%rbp)
    a34f:	48 8d 05 d6 cc 00 00 	lea    0xccd6(%rip),%rax        # 1702c <g_49>
    a356:	48 89 85 b0 fe ff ff 	mov    %rax,-0x150(%rbp)
    a35d:	48 8d 85 78 fe ff ff 	lea    -0x188(%rbp),%rax
    a364:	48 89 85 b8 fe ff ff 	mov    %rax,-0x148(%rbp)
    a36b:	48 c7 85 c0 fe ff ff 	movq   $0x0,-0x140(%rbp)
    a372:	00 00 00 00 
    a376:	48 8d 85 78 fe ff ff 	lea    -0x188(%rbp),%rax
    a37d:	48 89 85 c8 fe ff ff 	mov    %rax,-0x138(%rbp)
    a384:	48 8d 85 7c fe ff ff 	lea    -0x184(%rbp),%rax
    a38b:	48 89 85 d0 fe ff ff 	mov    %rax,-0x130(%rbp)
    a392:	48 c7 85 d8 fe ff ff 	movq   $0x0,-0x128(%rbp)
    a399:	00 00 00 00 
    a39d:	48 8d 85 78 fe ff ff 	lea    -0x188(%rbp),%rax
    a3a4:	48 89 85 e0 fe ff ff 	mov    %rax,-0x120(%rbp)
    a3ab:	c7 85 80 fe ff ff ff 	movl   $0xffffffff,-0x180(%rbp)
    a3b2:	ff ff ff 
    a3b5:	48 8d 85 80 fe ff ff 	lea    -0x180(%rbp),%rax
    a3bc:	48 89 85 e8 fe ff ff 	mov    %rax,-0x118(%rbp)
    a3c3:	48 c7 85 f0 fe ff ff 	movq   $0x0,-0x110(%rbp)
    a3ca:	00 00 00 00 
    a3ce:	48 8d 85 80 fe ff ff 	lea    -0x180(%rbp),%rax
    a3d5:	48 89 85 20 ff ff ff 	mov    %rax,-0xe0(%rbp)
    a3dc:	48 8d 05 49 cc 00 00 	lea    0xcc49(%rip),%rax        # 1702c <g_49>
    a3e3:	48 89 85 28 ff ff ff 	mov    %rax,-0xd8(%rbp)
    a3ea:	48 8d 85 78 fe ff ff 	lea    -0x188(%rbp),%rax
    a3f1:	48 89 85 30 ff ff ff 	mov    %rax,-0xd0(%rbp)
    a3f8:	48 8d 85 78 fe ff ff 	lea    -0x188(%rbp),%rax
    a3ff:	48 89 85 38 ff ff ff 	mov    %rax,-0xc8(%rbp)
    a406:	48 8d 85 78 fe ff ff 	lea    -0x188(%rbp),%rax
    a40d:	48 89 85 40 ff ff ff 	mov    %rax,-0xc0(%rbp)
    a414:	48 8d 05 11 cc 00 00 	lea    0xcc11(%rip),%rax        # 1702c <g_49>
    a41b:	48 89 85 48 ff ff ff 	mov    %rax,-0xb8(%rbp)
    a422:	48 8d 85 80 fe ff ff 	lea    -0x180(%rbp),%rax
    a429:	48 89 85 50 ff ff ff 	mov    %rax,-0xb0(%rbp)
    a430:	48 8d 85 78 fe ff ff 	lea    -0x188(%rbp),%rax
    a437:	48 89 85 58 ff ff ff 	mov    %rax,-0xa8(%rbp)
    a43e:	48 8d 05 e7 cb 00 00 	lea    0xcbe7(%rip),%rax        # 1702c <g_49>
    a445:	48 89 85 60 ff ff ff 	mov    %rax,-0xa0(%rbp)
    a44c:	48 8d 85 78 fe ff ff 	lea    -0x188(%rbp),%rax
    a453:	48 89 85 68 ff ff ff 	mov    %rax,-0x98(%rbp)
    a45a:	48 8d 85 80 fe ff ff 	lea    -0x180(%rbp),%rax
    a461:	48 89 85 70 ff ff ff 	mov    %rax,-0x90(%rbp)
    a468:	48 8d 05 bd cb 00 00 	lea    0xcbbd(%rip),%rax        # 1702c <g_49>
    a46f:	48 89 85 78 ff ff ff 	mov    %rax,-0x88(%rbp)
    a476:	48 8d 85 78 fe ff ff 	lea    -0x188(%rbp),%rax
    a47d:	48 89 45 80          	mov    %rax,-0x80(%rbp)
    a481:	48 8d 85 78 fe ff ff 	lea    -0x188(%rbp),%rax
    a488:	48 89 45 88          	mov    %rax,-0x78(%rbp)
    a48c:	48 8d 85 78 fe ff ff 	lea    -0x188(%rbp),%rax
    a493:	48 89 45 90          	mov    %rax,-0x70(%rbp)
    a497:	48 8d 05 8e cb 00 00 	lea    0xcb8e(%rip),%rax        # 1702c <g_49>
    a49e:	48 89 45 98          	mov    %rax,-0x68(%rbp)
    a4a2:	48 8d 85 80 fe ff ff 	lea    -0x180(%rbp),%rax
    a4a9:	48 89 45 a0          	mov    %rax,-0x60(%rbp)
    a4ad:	48 8d 85 78 fe ff ff 	lea    -0x188(%rbp),%rax
    a4b4:	48 89 45 a8          	mov    %rax,-0x58(%rbp)
    a4b8:	48 8d 05 6d cb 00 00 	lea    0xcb6d(%rip),%rax        # 1702c <g_49>
    a4bf:	48 89 45 b0          	mov    %rax,-0x50(%rbp)
    a4c3:	48 8d 85 78 fe ff ff 	lea    -0x188(%rbp),%rax
    a4ca:	48 89 45 b8          	mov    %rax,-0x48(%rbp)
    a4ce:	8b 05 64 cb 00 00    	mov    0xcb64(%rip),%eax        # 17038 <g_68>
    a4d4:	83 e8 01             	sub    $0x1,%eax
    a4d7:	89 05 5b cb 00 00    	mov    %eax,0xcb5b(%rip)        # 17038 <g_68>
    a4dd:	8b 05 65 cb 00 00    	mov    0xcb65(%rip),%eax        # 17048 <g_72>
    a4e3:	83 e8 01             	sub    $0x1,%eax
    a4e6:	89 05 5c cb 00 00    	mov    %eax,0xcb5c(%rip)        # 17048 <g_72>
    a4ec:	c7 85 7c fe ff ff f3 	movl   $0xfffffff3,-0x184(%rbp)
    a4f3:	ff ff ff 
    a4f6:	e9 d7 02 00 00       	jmpq   a7d2 <func_43+0x50f>
    a4fb:	c7 85 88 fe ff ff 43 	movl   $0xa3afd543,-0x178(%rbp)
    a502:	d5 af a3 
    a505:	48 8d 05 34 cb 00 00 	lea    0xcb34(%rip),%rax        # 17040 <g_71>
    a50c:	48 89 85 f8 fe ff ff 	mov    %rax,-0x108(%rbp)
    a513:	48 c7 85 00 ff ff ff 	movq   $0x0,-0x100(%rbp)
    a51a:	00 00 00 00 
    a51e:	48 8d 05 0f cb 00 00 	lea    0xcb0f(%rip),%rax        # 17034 <g_67>
    a525:	48 89 85 08 ff ff ff 	mov    %rax,-0xf8(%rbp)
    a52c:	48 8d 85 90 fe ff ff 	lea    -0x170(%rbp),%rax
    a533:	48 89 85 10 ff ff ff 	mov    %rax,-0xf0(%rbp)
    a53a:	c7 85 8c fe ff ff ff 	movl   $0xffffffff,-0x174(%rbp)
    a541:	ff ff ff 
    a544:	c7 85 84 fe ff ff 00 	movl   $0x0,-0x17c(%rbp)
    a54b:	00 00 00 
    a54e:	eb 1e                	jmp    a56e <func_43+0x2ab>
    a550:	8b 85 84 fe ff ff    	mov    -0x17c(%rbp),%eax
    a556:	48 98                	cltq   
    a558:	48 8d 15 d1 ca 00 00 	lea    0xcad1(%rip),%rdx        # 17030 <g_66>
    a55f:	48 89 94 c5 18 ff ff 	mov    %rdx,-0xe8(%rbp,%rax,8)
    a566:	ff 
    a567:	83 85 84 fe ff ff 01 	addl   $0x1,-0x17c(%rbp)
    a56e:	83 bd 84 fe ff ff 00 	cmpl   $0x0,-0x17c(%rbp)
    a575:	7e d9                	jle    a550 <func_43+0x28d>
    a577:	0f b6 05 b2 ca 00 00 	movzbl 0xcab2(%rip),%eax        # 17030 <g_66>
    a57e:	84 c0                	test   %al,%al
    a580:	0f 85 5d 02 00 00    	jne    a7e3 <func_43+0x520>
    a586:	48 8b 1d 3b ec 00 00 	mov    0xec3b(%rip),%rbx        # 191c8 <g_856>
    a58d:	8b 85 88 fe ff ff    	mov    -0x178(%rbp),%eax
    a593:	44 0f bf e0          	movswl %ax,%r12d
    a597:	48 0f bf 85 64 fe ff 	movswq -0x19c(%rbp),%rax
    a59e:	ff 
    a59f:	48 89 c6             	mov    %rax,%rsi
    a5a2:	48 bf 30 69 4c 40 a0 	movabs $0x635d5aa0404c6930,%rdi
    a5a9:	5a 5d 63 
    a5ac:	e8 fe ca ff ff       	callq  70af <safe_div_func_uint64_t_u_u>
    a5b1:	66 89 85 62 fe ff ff 	mov    %ax,-0x19e(%rbp)
    a5b8:	8b 05 8a ca 00 00    	mov    0xca8a(%rip),%eax        # 17048 <g_72>
    a5be:	44 0f bf f0          	movswl %ax,%r14d
    a5c2:	0f b7 05 5f ca 00 00 	movzwl 0xca5f(%rip),%eax        # 17028 <g_12>
    a5c9:	44 0f b7 e8          	movzwl %ax,%r13d
    a5cd:	0f b7 05 54 ca 00 00 	movzwl 0xca54(%rip),%eax        # 17028 <g_12>
    a5d4:	44 0f bf f8          	movswl %ax,%r15d
    a5d8:	48 8b 85 b0 fe ff ff 	mov    -0x150(%rbp),%rax
    a5df:	8b 00                	mov    (%rax),%eax
    a5e1:	0f b6 c0             	movzbl %al,%eax
    a5e4:	89 85 5c fe ff ff    	mov    %eax,-0x1a4(%rbp)
    a5ea:	8b 05 44 ca 00 00    	mov    0xca44(%rip),%eax        # 17034 <g_67>
    a5f0:	0f be c8             	movsbl %al,%ecx
    a5f3:	89 8d 58 fe ff ff    	mov    %ecx,-0x1a8(%rbp)
    a5f9:	8b 85 88 fe ff ff    	mov    -0x178(%rbp),%eax
    a5ff:	be fd ed 77 25       	mov    $0x2577edfd,%esi
    a604:	89 c7                	mov    %eax,%edi
    a606:	e8 f2 c8 ff ff       	callq  6efd <safe_mod_func_uint32_t_u_u>
    a60b:	85 c0                	test   %eax,%eax
    a60d:	80 bd 6c fe ff ff 08 	cmpb   $0x8,-0x194(%rbp)
    a614:	0f 94 c0             	sete   %al
    a617:	0f b6 c0             	movzbl %al,%eax
    a61a:	89 c2                	mov    %eax,%edx
    a61c:	0f b6 05 0d ca 00 00 	movzbl 0xca0d(%rip),%eax        # 17030 <g_66>
    a623:	31 d0                	xor    %edx,%eax
    a625:	88 05 05 ca 00 00    	mov    %al,0xca05(%rip)        # 17030 <g_66>
    a62b:	0f b6 05 fe c9 00 00 	movzbl 0xc9fe(%rip),%eax        # 17030 <g_66>
    a632:	0f be d0             	movsbl %al,%edx
    a635:	0f b7 05 ec c9 00 00 	movzwl 0xc9ec(%rip),%eax        # 17028 <g_12>
    a63c:	0f be c0             	movsbl %al,%eax
    a63f:	89 d6                	mov    %edx,%esi
    a641:	89 c7                	mov    %eax,%edi
    a643:	e8 ed bc ff ff       	callq  6335 <safe_rshift_func_int8_t_s_s>
    a648:	3c 01                	cmp    $0x1,%al
    a64a:	0f 9f c0             	setg   %al
    a64d:	0f b6 c0             	movzbl %al,%eax
    a650:	8b b5 58 fe ff ff    	mov    -0x1a8(%rbp),%esi
    a656:	89 c7                	mov    %eax,%edi
    a658:	e8 95 bb ff ff       	callq  61f2 <safe_sub_func_int8_t_s_s>
    a65d:	0f b6 c0             	movzbl %al,%eax
    a660:	8b b5 5c fe ff ff    	mov    -0x1a4(%rbp),%esi
    a666:	89 c7                	mov    %eax,%edi
    a668:	e8 0b c5 ff ff       	callq  6b78 <safe_sub_func_uint8_t_u_u>
    a66d:	0f b6 d0             	movzbl %al,%edx
    a670:	48 8b 85 f8 fe ff ff 	mov    -0x108(%rbp),%rax
    a677:	48 89 10             	mov    %rdx,(%rax)
    a67a:	8b 05 c8 c9 00 00    	mov    0xc9c8(%rip),%eax        # 17048 <g_72>
    a680:	89 c1                	mov    %eax,%ecx
    a682:	0f b7 05 9f c9 00 00 	movzwl 0xc99f(%rip),%eax        # 17028 <g_12>
    a689:	0f b7 d0             	movzwl %ax,%edx
    a68c:	48 8b 85 e0 fe ff ff 	mov    -0x120(%rbp),%rax
    a693:	8b 00                	mov    (%rax),%eax
    a695:	39 c2                	cmp    %eax,%edx
    a697:	7d 07                	jge    a6a0 <func_43+0x3dd>
    a699:	b8 ff ff ff ff       	mov    $0xffffffff,%eax
    a69e:	eb 05                	jmp    a6a5 <func_43+0x3e2>
    a6a0:	b8 fe ff ff ff       	mov    $0xfffffffe,%eax
    a6a5:	09 c8                	or     %ecx,%eax
    a6a7:	0f b6 c0             	movzbl %al,%eax
    a6aa:	48 8d b5 80 fe ff ff 	lea    -0x180(%rbp),%rsi
    a6b1:	48 8d 0d 74 c9 00 00 	lea    0xc974(%rip),%rcx        # 1702c <g_49>
    a6b8:	44 89 fa             	mov    %r15d,%edx
    a6bb:	89 c7                	mov    %eax,%edi
    a6bd:	e8 b6 54 00 00       	callq  fb78 <func_104>
    a6c2:	48 8b 95 08 ff ff ff 	mov    -0xf8(%rbp),%rdx
    a6c9:	89 02                	mov    %eax,(%rdx)
    a6cb:	48 8b 85 08 ff ff ff 	mov    -0xf8(%rbp),%rax
    a6d2:	8b 00                	mov    (%rax),%eax
    a6d4:	44 89 f1             	mov    %r14d,%ecx
    a6d7:	48 8d 15 4e c9 00 00 	lea    0xc94e(%rip),%rdx        # 1702c <g_49>
    a6de:	4c 89 ee             	mov    %r13,%rsi
    a6e1:	89 c7                	mov    %eax,%edi
    a6e3:	e8 4d 54 00 00       	callq  fb35 <func_99>
    a6e8:	8b 95 68 fe ff ff    	mov    -0x198(%rbp),%edx
    a6ee:	48 39 d0             	cmp    %rdx,%rax
    a6f1:	0f 95 c0             	setne  %al
    a6f4:	0f b6 c0             	movzbl %al,%eax
    a6f7:	66 23 85 62 fe ff ff 	and    -0x19e(%rbp),%ax
    a6fe:	98                   	cwtl   
    a6ff:	44 89 e6             	mov    %r12d,%esi
    a702:	89 c7                	mov    %eax,%edi
    a704:	e8 ec bc ff ff       	callq  63f5 <safe_mul_func_int16_t_s_s>
    a709:	0f bf d0             	movswl %ax,%edx
    a70c:	48 8b 85 e8 fe ff ff 	mov    -0x118(%rbp),%rax
    a713:	8b 00                	mov    (%rax),%eax
    a715:	0f b7 c0             	movzwl %ax,%eax
    a718:	89 d6                	mov    %edx,%esi
    a71a:	89 c7                	mov    %eax,%edi
    a71c:	e8 dc 26 00 00       	callq  cdfd <func_90>
    a721:	48 89 c7             	mov    %rax,%rdi
    a724:	e8 04 1b 00 00       	callq  c22d <func_88>
    a729:	48 89 85 a0 fe ff ff 	mov    %rax,-0x160(%rbp)
    a730:	48 8d 95 78 fe ff ff 	lea    -0x188(%rbp),%rdx
    a737:	48 8d 8d 80 fe ff ff 	lea    -0x180(%rbp),%rcx
    a73e:	48 8b 85 a0 fe ff ff 	mov    -0x160(%rbp),%rax
    a745:	48 89 ce             	mov    %rcx,%rsi
    a748:	48 89 c7             	mov    %rax,%rdi
    a74b:	e8 80 16 00 00       	callq  bdd0 <func_84>
    a750:	48 8b 95 10 ff ff ff 	mov    -0xf0(%rbp),%rdx
    a757:	48 89 02             	mov    %rax,(%rdx)
    a75a:	48 8b 85 10 ff ff ff 	mov    -0xf0(%rbp),%rax
    a761:	48 8b 00             	mov    (%rax),%rax
    a764:	48 89 de             	mov    %rbx,%rsi
    a767:	48 89 c7             	mov    %rax,%rdi
    a76a:	e8 a8 00 00 00       	callq  a817 <func_81>
    a76f:	48 8d 95 7c fe ff ff 	lea    -0x184(%rbp),%rdx
    a776:	48 39 d0             	cmp    %rdx,%rax
    a779:	0f 95 c0             	setne  %al
    a77c:	0f b6 c0             	movzbl %al,%eax
    a77f:	be ff ff ff ff       	mov    $0xffffffff,%esi
    a784:	89 c7                	mov    %eax,%edi
    a786:	e8 72 c7 ff ff       	callq  6efd <safe_mod_func_uint32_t_u_u>
    a78b:	35 fc 6e bc 06       	xor    $0x6bc6efc,%eax
    a790:	be 84 c5 ba b2       	mov    $0xb2bac584,%esi
    a795:	89 c7                	mov    %eax,%edi
    a797:	e8 34 c7 ff ff       	callq  6ed0 <safe_sub_func_uint32_t_u_u>
    a79c:	8b 95 8c fe ff ff    	mov    -0x174(%rbp),%edx
    a7a2:	09 d0                	or     %edx,%eax
    a7a4:	89 85 8c fe ff ff    	mov    %eax,-0x174(%rbp)
    a7aa:	48 8b 05 af ef 00 00 	mov    0xefaf(%rip),%rax        # 19760 <g_1034>
    a7b1:	8b 10                	mov    (%rax),%edx
    a7b3:	b9 05 00 00 00       	mov    $0x5,%ecx
    a7b8:	48 8b 05 a1 ef 00 00 	mov    0xefa1(%rip),%rax        # 19760 <g_1034>
    a7bf:	21 ca                	and    %ecx,%edx
    a7c1:	89 10                	mov    %edx,(%rax)
    a7c3:	8b 85 7c fe ff ff    	mov    -0x184(%rbp),%eax
    a7c9:	83 c0 01             	add    $0x1,%eax
    a7cc:	89 85 7c fe ff ff    	mov    %eax,-0x184(%rbp)
    a7d2:	8b 85 7c fe ff ff    	mov    -0x184(%rbp),%eax
    a7d8:	83 f8 08             	cmp    $0x8,%eax
    a7db:	0f 8f 1a fd ff ff    	jg     a4fb <func_43+0x238>
    a7e1:	eb 01                	jmp    a7e4 <func_43+0x521>
    a7e3:	90                   	nop
    a7e4:	48 8b 05 25 e7 00 00 	mov    0xe725(%rip),%rax        # 18f10 <g_388>
    a7eb:	48 8b 00             	mov    (%rax),%rax
    a7ee:	48 8b 00             	mov    (%rax),%rax
    a7f1:	48 8b 5d c8          	mov    -0x38(%rbp),%rbx
    a7f5:	64 48 33 1c 25 28 00 	xor    %fs:0x28,%rbx
    a7fc:	00 00 
    a7fe:	74 05                	je     a805 <func_43+0x542>
    a800:	e8 6b b8 ff ff       	callq  6070 <__stack_chk_fail@plt>
    a805:	48 81 c4 88 01 00 00 	add    $0x188,%rsp
    a80c:	5b                   	pop    %rbx
    a80d:	41 5c                	pop    %r12
    a80f:	41 5d                	pop    %r13
    a811:	41 5e                	pop    %r14
    a813:	41 5f                	pop    %r15
    a815:	5d                   	pop    %rbp
    a816:	c3                   	retq   

000000000000a817 <func_81>:
    a817:	f3 0f 1e fa          	endbr64 
    a81b:	55                   	push   %rbp
    a81c:	48 89 e5             	mov    %rsp,%rbp
    a81f:	41 55                	push   %r13
    a821:	41 54                	push   %r12
    a823:	53                   	push   %rbx
    a824:	48 81 ec f8 0b 00 00 	sub    $0xbf8,%rsp
    a82b:	48 89 bd f8 f3 ff ff 	mov    %rdi,-0xc08(%rbp)
    a832:	48 89 b5 f0 f3 ff ff 	mov    %rsi,-0xc10(%rbp)
    a839:	64 48 8b 04 25 28 00 	mov    %fs:0x28,%rax
    a840:	00 00 
    a842:	48 89 45 d8          	mov    %rax,-0x28(%rbp)
    a846:	31 c0                	xor    %eax,%eax
    a848:	c7 85 10 f4 ff ff 5b 	movl   $0x5643065b,-0xbf0(%rbp)
    a84f:	06 43 56 
    a852:	48 c7 85 d8 f4 ff ff 	movq   $0x0,-0xb28(%rbp)
    a859:	00 00 00 00 
    a85d:	c7 85 14 f4 ff ff ff 	movl   $0xffffffff,-0xbec(%rbp)
    a864:	ff ff ff 
    a867:	48 8d 85 14 f4 ff ff 	lea    -0xbec(%rbp),%rax
    a86e:	48 89 85 e0 f4 ff ff 	mov    %rax,-0xb20(%rbp)
    a875:	48 8d 05 50 c9 00 00 	lea    0xc950(%rip),%rax        # 171cc <g_180>
    a87c:	48 89 85 e8 f4 ff ff 	mov    %rax,-0xb18(%rbp)
    a883:	48 8d 05 5a c9 00 00 	lea    0xc95a(%rip),%rax        # 171e4 <g_220>
    a88a:	48 89 85 90 f4 ff ff 	mov    %rax,-0xb70(%rbp)
    a891:	48 8d 05 4c c9 00 00 	lea    0xc94c(%rip),%rax        # 171e4 <g_220>
    a898:	48 89 85 f0 f4 ff ff 	mov    %rax,-0xb10(%rbp)
    a89f:	48 c7 85 98 f4 ff ff 	movq   $0x0,-0xb68(%rbp)
    a8a6:	00 00 00 00 
    a8aa:	48 8d 05 f3 c9 00 00 	lea    0xc9f3(%rip),%rax        # 172a4 <g_275>
    a8b1:	48 89 85 f8 f4 ff ff 	mov    %rax,-0xb08(%rbp)
    a8b8:	48 c7 85 00 f5 ff ff 	movq   $0x0,-0xb00(%rbp)
    a8bf:	00 00 00 00 
    a8c3:	48 8d 05 62 c7 00 00 	lea    0xc762(%rip),%rax        # 1702c <g_49>
    a8ca:	48 89 85 70 f6 ff ff 	mov    %rax,-0x990(%rbp)
    a8d1:	48 8d 05 54 c7 00 00 	lea    0xc754(%rip),%rax        # 1702c <g_49>
    a8d8:	48 89 85 78 f6 ff ff 	mov    %rax,-0x988(%rbp)
    a8df:	48 8d 05 46 c7 00 00 	lea    0xc746(%rip),%rax        # 1702c <g_49>
    a8e6:	48 89 85 80 f6 ff ff 	mov    %rax,-0x980(%rbp)
    a8ed:	48 8d 05 38 c7 00 00 	lea    0xc738(%rip),%rax        # 1702c <g_49>
    a8f4:	48 89 85 88 f6 ff ff 	mov    %rax,-0x978(%rbp)
    a8fb:	48 8d 05 2a c7 00 00 	lea    0xc72a(%rip),%rax        # 1702c <g_49>
    a902:	48 89 85 90 f6 ff ff 	mov    %rax,-0x970(%rbp)
    a909:	48 8d 05 1c c7 00 00 	lea    0xc71c(%rip),%rax        # 1702c <g_49>
    a910:	48 89 85 98 f6 ff ff 	mov    %rax,-0x968(%rbp)
    a917:	48 8d 05 0e c7 00 00 	lea    0xc70e(%rip),%rax        # 1702c <g_49>
    a91e:	48 89 85 a0 f6 ff ff 	mov    %rax,-0x960(%rbp)
    a925:	48 8d 05 00 c7 00 00 	lea    0xc700(%rip),%rax        # 1702c <g_49>
    a92c:	48 89 85 a8 f6 ff ff 	mov    %rax,-0x958(%rbp)
    a933:	48 8d 05 f2 c6 00 00 	lea    0xc6f2(%rip),%rax        # 1702c <g_49>
    a93a:	48 89 85 b0 f6 ff ff 	mov    %rax,-0x950(%rbp)
    a941:	66 c7 85 0a f4 ff ff 	movw   $0x1,-0xbf6(%rbp)
    a948:	01 00 
    a94a:	c6 85 02 f4 ff ff 01 	movb   $0x1,-0xbfe(%rbp)
    a951:	48 8d 05 e0 f7 00 00 	lea    0xf7e0(%rip),%rax        # 1a138 <g_873>
    a958:	48 89 85 08 f5 ff ff 	mov    %rax,-0xaf8(%rbp)
    a95f:	48 8d 05 66 c8 00 00 	lea    0xc866(%rip),%rax        # 171cc <g_180>
    a966:	48 89 85 10 f5 ff ff 	mov    %rax,-0xaf0(%rbp)
    a96d:	48 8d 05 ec e7 00 00 	lea    0xe7ec(%rip),%rax        # 19160 <g_778>
    a974:	48 89 85 a0 f4 ff ff 	mov    %rax,-0xb60(%rbp)
    a97b:	48 8d 85 a0 f4 ff ff 	lea    -0xb60(%rbp),%rax
    a982:	48 89 85 18 f5 ff ff 	mov    %rax,-0xae8(%rbp)
    a989:	48 8d 05 a1 cb 00 00 	lea    0xcba1(%rip),%rax        # 17531 <g_941>
    a990:	48 89 85 20 f5 ff ff 	mov    %rax,-0xae0(%rbp)
    a997:	66 c7 85 06 f4 ff ff 	movw   $0xfffe,-0xbfa(%rbp)
    a99e:	fe ff 
    a9a0:	c6 85 03 f4 ff ff ff 	movb   $0xff,-0xbfd(%rbp)
    a9a7:	48 8d 85 70 fb ff ff 	lea    -0x490(%rbp),%rax
    a9ae:	48 8d 15 8b d5 00 00 	lea    0xd58b(%rip),%rdx        # 17f40 <g_1704+0x18>
    a9b5:	b9 8c 00 00 00       	mov    $0x8c,%ecx
    a9ba:	48 89 c7             	mov    %rax,%rdi
    a9bd:	48 89 d6             	mov    %rdx,%rsi
    a9c0:	f3 48 a5             	rep movsq %ds:(%rsi),%es:(%rdi)
    a9c3:	48 c7 85 28 f5 ff ff 	movq   $0x0,-0xad8(%rbp)
    a9ca:	00 00 00 00 
    a9ce:	48 8d 05 43 e5 00 00 	lea    0xe543(%rip),%rax        # 18f18 <g_396>
    a9d5:	48 89 85 30 f5 ff ff 	mov    %rax,-0xad0(%rbp)
    a9dc:	c7 85 20 f4 ff ff 00 	movl   $0x0,-0xbe0(%rbp)
    a9e3:	00 00 00 
    a9e6:	eb 1b                	jmp    aa03 <func_81+0x1ec>
    a9e8:	8b 85 20 f4 ff ff    	mov    -0xbe0(%rbp),%eax
    a9ee:	48 98                	cltq   
    a9f0:	48 c7 84 c5 20 f6 ff 	movq   $0xffffffffffffffff,-0x9e0(%rbp,%rax,8)
    a9f7:	ff ff ff ff ff 
    a9fc:	83 85 20 f4 ff ff 01 	addl   $0x1,-0xbe0(%rbp)
    aa03:	83 bd 20 f4 ff ff 03 	cmpl   $0x3,-0xbe0(%rbp)
    aa0a:	7e dc                	jle    a9e8 <func_81+0x1d1>
    aa0c:	90                   	nop
    aa0d:	0f b6 85 02 f4 ff ff 	movzbl -0xbfe(%rbp),%eax
    aa14:	83 e8 01             	sub    $0x1,%eax
    aa17:	88 85 02 f4 ff ff    	mov    %al,-0xbfe(%rbp)
    aa1d:	48 8b 15 14 f7 00 00 	mov    0xf714(%rip),%rdx        # 1a138 <g_873>
    aa24:	48 8b 85 08 f5 ff ff 	mov    -0xaf8(%rbp),%rax
    aa2b:	48 89 10             	mov    %rdx,(%rax)
    aa2e:	c7 05 6c c8 00 00 10 	movl   $0x10,0xc86c(%rip)        # 172a4 <g_275>
    aa35:	00 00 00 
    aa38:	e9 58 13 00 00       	jmpq   bd95 <func_81+0x157e>
    aa3d:	c6 85 04 f4 ff ff 01 	movb   $0x1,-0xbfc(%rbp)
    aa44:	c7 85 18 f4 ff ff 3a 	movl   $0x7cc9b73a,-0xbe8(%rbp)
    aa4b:	b7 c9 7c 
    aa4e:	48 c7 85 38 f5 ff ff 	movq   $0x0,-0xac8(%rbp)
    aa55:	00 00 00 00 
    aa59:	48 8d 05 00 e7 00 00 	lea    0xe700(%rip),%rax        # 19160 <g_778>
    aa60:	48 89 85 40 f5 ff ff 	mov    %rax,-0xac0(%rbp)
    aa67:	48 c7 85 48 f5 ff ff 	movq   $0x0,-0xab8(%rbp)
    aa6e:	00 00 00 00 
    aa72:	48 8d 05 5f e7 00 00 	lea    0xe75f(%rip),%rax        # 191d8 <g_890>
    aa79:	48 89 85 50 f5 ff ff 	mov    %rax,-0xab0(%rbp)
    aa80:	48 8d 85 02 f4 ff ff 	lea    -0xbfe(%rbp),%rax
    aa87:	48 89 85 58 f5 ff ff 	mov    %rax,-0xaa8(%rbp)
    aa8e:	c7 85 48 f4 ff ff 03 	movl   $0x3,-0xbb8(%rbp)
    aa95:	00 00 00 
    aa98:	c7 85 4c f4 ff ff f8 	movl   $0xfffffff8,-0xbb4(%rbp)
    aa9f:	ff ff ff 
    aaa2:	c7 85 50 f4 ff ff b2 	movl   $0xffd1d9b2,-0xbb0(%rbp)
    aaa9:	d9 d1 ff 
    aaac:	c7 85 54 f4 ff ff f7 	movl   $0xfffffff7,-0xbac(%rbp)
    aab3:	ff ff ff 
    aab6:	c7 85 58 f4 ff ff 95 	movl   $0x2e9cab95,-0xba8(%rbp)
    aabd:	ab 9c 2e 
    aac0:	c7 85 5c f4 ff ff 04 	movl   $0x4,-0xba4(%rbp)
    aac7:	00 00 00 
    aaca:	c7 85 1c f4 ff ff 78 	movl   $0x7fa61678,-0xbe4(%rbp)
    aad1:	16 a6 7f 
    aad4:	c7 85 60 f4 ff ff ff 	movl   $0xffffffff,-0xba0(%rbp)
    aadb:	ff ff ff 
    aade:	48 8d 85 18 f4 ff ff 	lea    -0xbe8(%rbp),%rax
    aae5:	48 89 85 60 f5 ff ff 	mov    %rax,-0xaa0(%rbp)
    aaec:	66 c7 85 0c f4 ff ff 	movw   $0x5,-0xbf4(%rbp)
    aaf3:	05 00 
    aaf5:	c7 85 24 f4 ff ff 00 	movl   $0x0,-0xbdc(%rbp)
    aafc:	00 00 00 
    aaff:	eb 1a                	jmp    ab1b <func_81+0x304>
    ab01:	8b 85 24 f4 ff ff    	mov    -0xbdc(%rbp),%eax
    ab07:	48 98                	cltq   
    ab09:	c7 84 85 40 f6 ff ff 	movl   $0x4c684ce8,-0x9c0(%rbp,%rax,4)
    ab10:	e8 4c 68 4c 
    ab14:	83 85 24 f4 ff ff 01 	addl   $0x1,-0xbdc(%rbp)
    ab1b:	83 bd 24 f4 ff ff 09 	cmpl   $0x9,-0xbdc(%rbp)
    ab22:	7e dd                	jle    ab01 <func_81+0x2ea>
    ab24:	48 8b 85 f0 f3 ff ff 	mov    -0xc10(%rbp),%rax
    ab2b:	8b 00                	mov    (%rax),%eax
    ab2d:	85 c0                	test   %eax,%eax
    ab2f:	0f 85 71 12 00 00    	jne    bda6 <func_81+0x158f>
    ab35:	c7 05 b5 c7 00 00 00 	movl   $0x0,0xc7b5(%rip)        # 172f4 <g_283>
    ab3c:	00 00 00 
    ab3f:	e9 36 01 00 00       	jmpq   ac7a <func_81+0x463>
    ab44:	c7 85 70 f8 ff ff 45 	movl   $0xb8e8cc45,-0x790(%rbp)
    ab4b:	cc e8 b8 
    ab4e:	c7 85 74 f8 ff ff 45 	movl   $0xb8e8cc45,-0x78c(%rbp)
    ab55:	cc e8 b8 
    ab58:	c7 85 78 f8 ff ff 5f 	movl   $0x7356155f,-0x788(%rbp)
    ab5f:	15 56 73 
    ab62:	c7 85 7c f8 ff ff 3a 	movl   $0x993f783a,-0x784(%rbp)
    ab69:	78 3f 99 
    ab6c:	c7 85 80 f8 ff ff 3a 	movl   $0x993f783a,-0x780(%rbp)
    ab73:	78 3f 99 
    ab76:	c7 85 84 f8 ff ff 01 	movl   $0x1,-0x77c(%rbp)
    ab7d:	00 00 00 
    ab80:	c7 85 88 f8 ff ff 5f 	movl   $0x7356155f,-0x778(%rbp)
    ab87:	15 56 73 
    ab8a:	c7 85 8c f8 ff ff 01 	movl   $0x1,-0x774(%rbp)
    ab91:	00 00 00 
    ab94:	c7 85 90 f8 ff ff 45 	movl   $0xb8e8cc45,-0x770(%rbp)
    ab9b:	cc e8 b8 
    ab9e:	c7 85 94 f8 ff ff ff 	movl   $0xffffffff,-0x76c(%rbp)
    aba5:	ff ff ff 
    aba8:	c7 85 98 f8 ff ff 03 	movl   $0x3,-0x768(%rbp)
    abaf:	00 00 00 
    abb2:	c7 85 9c f8 ff ff 5f 	movl   $0x7356155f,-0x764(%rbp)
    abb9:	15 56 73 
    abbc:	c7 85 a0 f8 ff ff 01 	movl   $0x1,-0x760(%rbp)
    abc3:	00 00 00 
    abc6:	c7 85 a4 f8 ff ff ff 	movl   $0xffffffff,-0x75c(%rbp)
    abcd:	ff ff ff 
    abd0:	c7 85 a8 f8 ff ff ff 	movl   $0xffffffff,-0x758(%rbp)
    abd7:	ff ff ff 
    abda:	c7 85 ac f8 ff ff 01 	movl   $0x1,-0x754(%rbp)
    abe1:	00 00 00 
    abe4:	c7 85 b0 f8 ff ff ff 	movl   $0xffffffff,-0x750(%rbp)
    abeb:	ff ff ff 
    abee:	c7 85 b4 f8 ff ff 01 	movl   $0x1,-0x74c(%rbp)
    abf5:	00 00 00 
    abf8:	c7 85 b8 f8 ff ff 45 	movl   $0xb8e8cc45,-0x748(%rbp)
    abff:	cc e8 b8 
    ac02:	c7 85 bc f8 ff ff 3a 	movl   $0x993f783a,-0x744(%rbp)
    ac09:	78 3f 99 
    ac0c:	c7 85 c0 f8 ff ff ff 	movl   $0xffffffff,-0x740(%rbp)
    ac13:	ff ff ff 
    ac16:	c7 85 c4 f8 ff ff 45 	movl   $0xb8e8cc45,-0x73c(%rbp)
    ac1d:	cc e8 b8 
    ac20:	c7 85 c8 f8 ff ff ff 	movl   $0xffffffff,-0x738(%rbp)
    ac27:	ff ff ff 
    ac2a:	c7 85 cc f8 ff ff 03 	movl   $0x3,-0x734(%rbp)
    ac31:	00 00 00 
    ac34:	c7 85 d0 f8 ff ff 01 	movl   $0x1,-0x730(%rbp)
    ac3b:	00 00 00 
    ac3e:	c7 85 d4 f8 ff ff 3a 	movl   $0x993f783a,-0x72c(%rbp)
    ac45:	78 3f 99 
    ac48:	c7 85 d8 f8 ff ff 03 	movl   $0x3,-0x728(%rbp)
    ac4f:	00 00 00 
    ac52:	c7 85 dc f8 ff ff 03 	movl   $0x3,-0x724(%rbp)
    ac59:	00 00 00 
    ac5c:	8b 85 a4 f8 ff ff    	mov    -0x75c(%rbp),%eax
    ac62:	83 c0 01             	add    $0x1,%eax
    ac65:	89 85 a4 f8 ff ff    	mov    %eax,-0x75c(%rbp)
    ac6b:	8b 05 83 c6 00 00    	mov    0xc683(%rip),%eax        # 172f4 <g_283>
    ac71:	83 c0 01             	add    $0x1,%eax
    ac74:	89 05 7a c6 00 00    	mov    %eax,0xc67a(%rip)        # 172f4 <g_283>
    ac7a:	8b 05 74 c6 00 00    	mov    0xc674(%rip),%eax        # 172f4 <g_283>
    ac80:	83 f8 04             	cmp    $0x4,%eax
    ac83:	0f 86 bb fe ff ff    	jbe    ab44 <func_81+0x32d>
    ac89:	48 8b 85 f0 f3 ff ff 	mov    -0xc10(%rbp),%rax
    ac90:	8b 00                	mov    (%rax),%eax
    ac92:	88 85 04 f4 ff ff    	mov    %al,-0xbfc(%rbp)
    ac98:	66 c7 05 73 c7 00 00 	movw   $0x0,0xc773(%rip)        # 17414 <g_464>
    ac9f:	00 00 
    aca1:	e9 cf 10 00 00       	jmpq   bd75 <func_81+0x155e>
    aca6:	48 8d 05 c3 e2 00 00 	lea    0xe2c3(%rip),%rax        # 18f70 <g_596+0x30>
    acad:	48 89 85 68 f5 ff ff 	mov    %rax,-0xa98(%rbp)
    acb4:	48 8d 05 45 c8 00 00 	lea    0xc845(%rip),%rax        # 17500 <g_887>
    acbb:	48 89 85 a8 f4 ff ff 	mov    %rax,-0xb58(%rbp)
    acc2:	48 8d 85 a8 f4 ff ff 	lea    -0xb58(%rbp),%rax
    acc9:	48 89 85 b0 f4 ff ff 	mov    %rax,-0xb50(%rbp)
    acd0:	48 8d 85 b0 f4 ff ff 	lea    -0xb50(%rbp),%rax
    acd7:	48 89 85 70 f5 ff ff 	mov    %rax,-0xa90(%rbp)
    acde:	c7 85 64 f4 ff ff fb 	movl   $0xfffffffb,-0xb9c(%rbp)
    ace5:	ff ff ff 
    ace8:	c7 85 68 f4 ff ff 09 	movl   $0x9,-0xb98(%rbp)
    acef:	00 00 00 
    acf2:	66 c7 85 08 f4 ff ff 	movw   $0xb6cd,-0xbf8(%rbp)
    acf9:	cd b6 
    acfb:	c7 85 6c f4 ff ff 29 	movl   $0x4cadc229,-0xb94(%rbp)
    ad02:	c2 ad 4c 
    ad05:	c7 85 28 f4 ff ff 5c 	movl   $0xecc4ee5c,-0xbd8(%rbp)
    ad0c:	ee c4 ec 
    ad0f:	c7 85 70 f4 ff ff 08 	movl   $0x8,-0xb90(%rbp)
    ad16:	00 00 00 
    ad19:	c7 85 74 f4 ff ff 04 	movl   $0x4,-0xb8c(%rbp)
    ad20:	00 00 00 
    ad23:	c7 85 78 f4 ff ff 2b 	movl   $0x5d1e132b,-0xb88(%rbp)
    ad2a:	13 1e 5d 
    ad2d:	48 8d 85 10 f6 ff ff 	lea    -0x9f0(%rbp),%rax
    ad34:	48 89 85 b8 f4 ff ff 	mov    %rax,-0xb48(%rbp)
    ad3b:	48 8d 85 b8 f4 ff ff 	lea    -0xb48(%rbp),%rax
    ad42:	48 89 85 c0 f4 ff ff 	mov    %rax,-0xb40(%rbp)
    ad49:	48 8d 85 c0 f4 ff ff 	lea    -0xb40(%rbp),%rax
    ad50:	48 89 85 78 f5 ff ff 	mov    %rax,-0xa88(%rbp)
    ad57:	c7 85 2c f4 ff ff 00 	movl   $0x0,-0xbd4(%rbp)
    ad5e:	00 00 00 
    ad61:	eb 1a                	jmp    ad7d <func_81+0x566>
    ad63:	8b 85 2c f4 ff ff    	mov    -0xbd4(%rbp),%eax
    ad69:	48 98                	cltq   
    ad6b:	c7 84 85 f8 f5 ff ff 	movl   $0xa0720c33,-0xa08(%rbp,%rax,4)
    ad72:	33 0c 72 a0 
    ad76:	83 85 2c f4 ff ff 01 	addl   $0x1,-0xbd4(%rbp)
    ad7d:	83 bd 2c f4 ff ff 02 	cmpl   $0x2,-0xbd4(%rbp)
    ad84:	7e dd                	jle    ad63 <func_81+0x54c>
    ad86:	c7 85 2c f4 ff ff 00 	movl   $0x0,-0xbd4(%rbp)
    ad8d:	00 00 00 
    ad90:	eb 43                	jmp    add5 <func_81+0x5be>
    ad92:	c7 85 30 f4 ff ff 00 	movl   $0x0,-0xbd0(%rbp)
    ad99:	00 00 00 
    ad9c:	eb 27                	jmp    adc5 <func_81+0x5ae>
    ad9e:	8b 85 30 f4 ff ff    	mov    -0xbd0(%rbp),%eax
    ada4:	48 63 d0             	movslq %eax,%rdx
    ada7:	8b 85 2c f4 ff ff    	mov    -0xbd4(%rbp),%eax
    adad:	48 98                	cltq   
    adaf:	48 01 d0             	add    %rdx,%rax
    adb2:	48 c7 84 c5 10 f6 ff 	movq   $0x0,-0x9f0(%rbp,%rax,8)
    adb9:	ff 00 00 00 00 
    adbe:	83 85 30 f4 ff ff 01 	addl   $0x1,-0xbd0(%rbp)
    adc5:	83 bd 30 f4 ff ff 00 	cmpl   $0x0,-0xbd0(%rbp)
    adcc:	7e d0                	jle    ad9e <func_81+0x587>
    adce:	83 85 2c f4 ff ff 01 	addl   $0x1,-0xbd4(%rbp)
    add5:	83 bd 2c f4 ff ff 01 	cmpl   $0x1,-0xbd4(%rbp)
    addc:	7e b4                	jle    ad92 <func_81+0x57b>
    adde:	66 c7 05 2f c6 00 00 	movw   $0x0,0xc62f(%rip)        # 17416 <g_515>
    ade5:	00 00 
    ade7:	90                   	nop
    ade8:	0f b7 05 27 c6 00 00 	movzwl 0xc627(%rip),%eax        # 17416 <g_515>
    adef:	66 83 f8 03          	cmp    $0x3,%ax
    adf3:	77 0c                	ja     ae01 <func_81+0x5ea>
    adf5:	48 8b 85 10 f5 ff ff 	mov    -0xaf0(%rbp),%rax
    adfc:	e9 ad 0f 00 00       	jmpq   bdae <func_81+0x1597>
    ae01:	66 c7 05 42 c2 00 00 	movw   $0x1,0xc242(%rip)        # 1704c <g_126>
    ae08:	01 00 
    ae0a:	e9 7a 0c 00 00       	jmpq   ba89 <func_81+0x1272>
    ae0f:	48 8d 85 10 f4 ff ff 	lea    -0xbf0(%rbp),%rax
    ae16:	48 89 85 c8 f4 ff ff 	mov    %rax,-0xb38(%rbp)
    ae1d:	48 8d 85 c8 f4 ff ff 	lea    -0xb38(%rbp),%rax
    ae24:	48 89 85 80 f5 ff ff 	mov    %rax,-0xa80(%rbp)
    ae2b:	48 c7 85 88 f5 ff ff 	movq   $0x0,-0xa78(%rbp)
    ae32:	00 00 00 00 
    ae36:	c7 85 7c f4 ff ff 8c 	movl   $0x460f9b8c,-0xb84(%rbp)
    ae3d:	9b 0f 46 
    ae40:	48 8d 05 19 e3 00 00 	lea    0xe319(%rip),%rax        # 19160 <g_778>
    ae47:	48 89 85 90 f5 ff ff 	mov    %rax,-0xa70(%rbp)
    ae4e:	48 b8 3c 91 78 81 2f 	movabs $0xf5f7c92f8178913c,%rax
    ae55:	c9 f7 f5 
    ae58:	48 89 85 98 f5 ff ff 	mov    %rax,-0xa68(%rbp)
    ae5f:	c7 85 80 f4 ff ff 61 	movl   $0x98c59d61,-0xb80(%rbp)
    ae66:	9d c5 98 
    ae69:	48 8b 85 68 f5 ff ff 	mov    -0xa98(%rbp),%rax
    ae70:	48 89 05 59 e3 00 00 	mov    %rax,0xe359(%rip)        # 191d0 <g_883>
    ae77:	0f b7 05 ce c1 00 00 	movzwl 0xc1ce(%rip),%eax        # 1704c <g_126>
    ae7e:	98                   	cwtl   
    ae7f:	8d 50 01             	lea    0x1(%rax),%edx
    ae82:	0f b7 05 8b c5 00 00 	movzwl 0xc58b(%rip),%eax        # 17414 <g_464>
    ae89:	0f b7 c0             	movzwl %ax,%eax
    ae8c:	48 98                	cltq   
    ae8e:	48 63 d2             	movslq %edx,%rdx
    ae91:	48 01 d2             	add    %rdx,%rdx
    ae94:	48 01 d0             	add    %rdx,%rax
    ae97:	48 8d 14 c5 00 00 00 	lea    0x0(,%rax,8),%rdx
    ae9e:	00 
    ae9f:	48 8d 05 1a c4 00 00 	lea    0xc41a(%rip),%rax        # 172c0 <g_280>
    aea6:	48 8b 04 02          	mov    (%rdx,%rax,1),%rax
    aeaa:	48 85 c0             	test   %rax,%rax
    aead:	0f 84 7c 02 00 00    	je     b12f <func_81+0x918>
    aeb3:	c7 85 84 f4 ff ff 00 	movl   $0x0,-0xb7c(%rbp)
    aeba:	00 00 00 
    aebd:	c7 85 88 f4 ff ff 00 	movl   $0x0,-0xb78(%rbp)
    aec4:	00 00 00 
    aec7:	48 8b 85 70 f5 ff ff 	mov    -0xa90(%rbp),%rax
    aece:	48 89 05 4b e3 00 00 	mov    %rax,0xe34b(%rip)        # 19220 <g_888+0x20>
    aed5:	c7 05 09 c3 00 00 00 	movl   $0x0,0xc309(%rip)        # 171e8 <g_223>
    aedc:	00 00 00 
    aedf:	e9 23 02 00 00       	jmpq   b107 <func_81+0x8f0>
    aee4:	48 8d 05 05 c4 00 00 	lea    0xc405(%rip),%rax        # 172f0 <g_282>
    aeeb:	48 89 85 a0 f5 ff ff 	mov    %rax,-0xa60(%rbp)
    aef2:	48 8d 85 02 f4 ff ff 	lea    -0xbfe(%rbp),%rax
    aef9:	48 89 85 a8 f5 ff ff 	mov    %rax,-0xa58(%rbp)
    af00:	48 8d 85 70 f8 ff ff 	lea    -0x790(%rbp),%rax
    af07:	48 8d 15 12 83 00 00 	lea    0x8312(%rip),%rdx        # 13220 <g_1697+0x104>
    af0e:	b9 5e 00 00 00       	mov    $0x5e,%ecx
    af13:	48 89 c7             	mov    %rax,%rdi
    af16:	48 89 d6             	mov    %rdx,%rsi
    af19:	f3 48 a5             	rep movsq %ds:(%rsi),%es:(%rdi)
    af1c:	48 89 f2             	mov    %rsi,%rdx
    af1f:	48 89 f8             	mov    %rdi,%rax
    af22:	8b 0a                	mov    (%rdx),%ecx
    af24:	89 08                	mov    %ecx,(%rax)
    af26:	48 8d 40 04          	lea    0x4(%rax),%rax
    af2a:	48 8d 52 04          	lea    0x4(%rdx),%rdx
    af2e:	c7 85 34 f4 ff ff 00 	movl   $0x0,-0xbcc(%rbp)
    af35:	00 00 00 
    af38:	eb 1b                	jmp    af55 <func_81+0x73e>
    af3a:	8b 85 34 f4 ff ff    	mov    -0xbcc(%rbp),%eax
    af40:	48 98                	cltq   
    af42:	48 c7 84 c5 c0 f6 ff 	movq   $0x0,-0x940(%rbp,%rax,8)
    af49:	ff 00 00 00 00 
    af4e:	83 85 34 f4 ff ff 01 	addl   $0x1,-0xbcc(%rbp)
    af55:	83 bd 34 f4 ff ff 05 	cmpl   $0x5,-0xbcc(%rbp)
    af5c:	7e dc                	jle    af3a <func_81+0x723>
    af5e:	48 8b 85 a0 f5 ff ff 	mov    -0xa60(%rbp),%rax
    af65:	66 c7 00 00 00       	movw   $0x0,(%rax)
    af6a:	48 8b 85 18 f5 ff ff 	mov    -0xae8(%rbp),%rax
    af71:	48 8b 00             	mov    (%rax),%rax
    af74:	48 8b 10             	mov    (%rax),%rdx
    af77:	48 8b 05 12 be 00 00 	mov    0xbe12(%rip),%rax        # 16d90 <l_901.4549+0x170>
    af7e:	48 39 c2             	cmp    %rax,%rdx
    af81:	0f 94 c0             	sete   %al
    af84:	0f b6 c0             	movzbl %al,%eax
    af87:	89 85 84 f4 ff ff    	mov    %eax,-0xb7c(%rbp)
    af8d:	48 8b 85 68 f5 ff ff 	mov    -0xa98(%rbp),%rax
    af94:	48 8b 00             	mov    (%rax),%rax
    af97:	8b 95 84 f4 ff ff    	mov    -0xb7c(%rbp),%edx
    af9d:	66 89 10             	mov    %dx,(%rax)
    afa0:	0f b7 00             	movzwl (%rax),%eax
    afa3:	66 85 c0             	test   %ax,%ax
    afa6:	74 07                	je     afaf <func_81+0x798>
    afa8:	b8 01 00 00 00       	mov    $0x1,%eax
    afad:	eb 05                	jmp    afb4 <func_81+0x79d>
    afaf:	b8 00 00 00 00       	mov    $0x0,%eax
    afb4:	48 63 f0             	movslq %eax,%rsi
    afb7:	48 8b 85 a8 f5 ff ff 	mov    -0xa58(%rbp),%rax
    afbe:	0f b6 00             	movzbl (%rax),%eax
    afc1:	8d 48 01             	lea    0x1(%rax),%ecx
    afc4:	48 8b 95 a8 f5 ff ff 	mov    -0xa58(%rbp),%rdx
    afcb:	88 0a                	mov    %cl,(%rdx)
    afcd:	0f b6 c0             	movzbl %al,%eax
    afd0:	83 e0 02             	and    $0x2,%eax
    afd3:	48 39 c6             	cmp    %rax,%rsi
    afd6:	8b 85 cc fa ff ff    	mov    -0x534(%rbp),%eax
    afdc:	98                   	cwtl   
    afdd:	89 c7                	mov    %eax,%edi
    afdf:	e8 b9 b3 ff ff       	callq  639d <safe_unary_minus_func_int16_t_s>
    afe4:	8b 05 fe c1 00 00    	mov    0xc1fe(%rip),%eax        # 171e8 <g_223>
    afea:	8d 48 01             	lea    0x1(%rax),%ecx
    afed:	8b 05 f5 c1 00 00    	mov    0xc1f5(%rip),%eax        # 171e8 <g_223>
    aff3:	89 c2                	mov    %eax,%edx
    aff5:	89 c8                	mov    %ecx,%eax
    aff7:	48 01 c0             	add    %rax,%rax
    affa:	48 01 d0             	add    %rdx,%rax
    affd:	48 8d 14 c5 00 00 00 	lea    0x0(,%rax,8),%rdx
    b004:	00 
    b005:	48 8d 05 b4 c2 00 00 	lea    0xc2b4(%rip),%rax        # 172c0 <g_280>
    b00c:	48 8b 04 02          	mov    (%rdx,%rax,1),%rax
    b010:	0f b6 c0             	movzbl %al,%eax
    b013:	89 c6                	mov    %eax,%esi
    b015:	bf ff 00 00 00       	mov    $0xff,%edi
    b01a:	e8 59 bb ff ff       	callq  6b78 <safe_sub_func_uint8_t_u_u>
    b01f:	84 c0                	test   %al,%al
    b021:	75 0a                	jne    b02d <func_81+0x816>
    b023:	48 83 bd 18 f5 ff ff 	cmpq   $0x0,-0xae8(%rbp)
    b02a:	00 
    b02b:	75 07                	jne    b034 <func_81+0x81d>
    b02d:	b8 01 00 00 00       	mov    $0x1,%eax
    b032:	eb 05                	jmp    b039 <func_81+0x822>
    b034:	b8 00 00 00 00       	mov    $0x0,%eax
    b039:	89 c2                	mov    %eax,%edx
    b03b:	83 bd 88 f4 ff ff 00 	cmpl   $0x0,-0xb78(%rbp)
    b042:	0f 9f c0             	setg   %al
    b045:	0f b6 c0             	movzbl %al,%eax
    b048:	31 d0                	xor    %edx,%eax
    b04a:	0f b7 c0             	movzwl %ax,%eax
    b04d:	be 08 00 00 00       	mov    $0x8,%esi
    b052:	89 c7                	mov    %eax,%edi
    b054:	e8 ad bd ff ff       	callq  6e06 <safe_lshift_func_uint16_t_u_u>
    b059:	66 85 c0             	test   %ax,%ax
    b05c:	74 0b                	je     b069 <func_81+0x852>
    b05e:	48 8b 85 90 f4 ff ff 	mov    -0xb70(%rbp),%rax
    b065:	8b 00                	mov    (%rax),%eax
    b067:	85 c0                	test   %eax,%eax
    b069:	8b 85 64 f4 ff ff    	mov    -0xb9c(%rbp),%eax
    b06f:	3b 85 68 f4 ff ff    	cmp    -0xb98(%rbp),%eax
    b075:	0f 94 c0             	sete   %al
    b078:	0f b6 d0             	movzbl %al,%edx
    b07b:	48 8b 05 66 c3 00 00 	mov    0xc366(%rip),%rax        # 173e8 <g_394+0x8>
    b082:	48 c1 e0 1e          	shl    $0x1e,%rax
    b086:	48 c1 f8 39          	sar    $0x39,%rax
    b08a:	0f be c0             	movsbl %al,%eax
    b08d:	39 c2                	cmp    %eax,%edx
    b08f:	0f 9c c0             	setl   %al
    b092:	0f b6 c0             	movzbl %al,%eax
    b095:	be 0f 00 00 00       	mov    $0xf,%esi
    b09a:	89 c7                	mov    %eax,%edi
    b09c:	e8 f1 b3 ff ff       	callq  6492 <safe_lshift_func_int16_t_s_s>
    b0a1:	0f bf d0             	movswl %ax,%edx
    b0a4:	48 8b 85 f0 f4 ff ff 	mov    -0xb10(%rbp),%rax
    b0ab:	89 10                	mov    %edx,(%rax)
    b0ad:	48 8b 05 14 e1 00 00 	mov    0xe114(%rip),%rax        # 191c8 <g_856>
    b0b4:	48 8b 95 f0 f4 ff ff 	mov    -0xb10(%rbp),%rdx
    b0bb:	8b 12                	mov    (%rdx),%edx
    b0bd:	89 10                	mov    %edx,(%rax)
    b0bf:	b8 71 2b 00 00       	mov    $0x2b71,%eax
    b0c4:	85 c0                	test   %eax,%eax
    b0c6:	74 05                	je     b0cd <func_81+0x8b6>
    b0c8:	e9 40 f9 ff ff       	jmpq   aa0d <func_81+0x1f6>
    b0cd:	48 8b 85 80 f5 ff ff 	mov    -0xa80(%rbp),%rax
    b0d4:	48 89 05 45 e4 00 00 	mov    %rax,0xe445(%rip)        # 19520 <g_917>
    b0db:	48 8b 05 3e e4 00 00 	mov    0xe43e(%rip),%rax        # 19520 <g_917>
    b0e2:	48 39 85 38 f5 ff ff 	cmp    %rax,-0xac8(%rbp)
    b0e9:	0f 95 c0             	setne  %al
    b0ec:	0f b6 d0             	movzbl %al,%edx
    b0ef:	48 8b 85 f0 f3 ff ff 	mov    -0xc10(%rbp),%rax
    b0f6:	89 10                	mov    %edx,(%rax)
    b0f8:	8b 05 ea c0 00 00    	mov    0xc0ea(%rip),%eax        # 171e8 <g_223>
    b0fe:	83 c0 01             	add    $0x1,%eax
    b101:	89 05 e1 c0 00 00    	mov    %eax,0xc0e1(%rip)        # 171e8 <g_223>
    b107:	8b 05 db c0 00 00    	mov    0xc0db(%rip),%eax        # 171e8 <g_223>
    b10d:	83 f8 01             	cmp    $0x1,%eax
    b110:	0f 86 ce fd ff ff    	jbe    aee4 <func_81+0x6cd>
    b116:	48 8b 85 e0 f4 ff ff 	mov    -0xb20(%rbp),%rax
    b11d:	8b 00                	mov    (%rax),%eax
    b11f:	83 c8 fc             	or     $0xfffffffc,%eax
    b122:	89 c2                	mov    %eax,%edx
    b124:	48 8b 85 e0 f4 ff ff 	mov    -0xb20(%rbp),%rax
    b12b:	89 10                	mov    %edx,(%rax)
    b12d:	eb 32                	jmp    b161 <func_81+0x94a>
    b12f:	48 8b 85 90 f4 ff ff 	mov    -0xb70(%rbp),%rax
    b136:	8b 00                	mov    (%rax),%eax
    b138:	0f b6 c0             	movzbl %al,%eax
    b13b:	8b 95 64 f4 ff ff    	mov    -0xb9c(%rbp),%edx
    b141:	89 d6                	mov    %edx,%esi
    b143:	89 c7                	mov    %eax,%edi
    b145:	e8 bb ba ff ff       	callq  6c05 <safe_lshift_func_uint8_t_u_s>
    b14a:	48 8b 95 e8 f4 ff ff 	mov    -0xb18(%rbp),%rdx
    b151:	8b 12                	mov    (%rdx),%edx
    b153:	0f b6 c0             	movzbl %al,%eax
    b156:	31 c2                	xor    %eax,%edx
    b158:	48 8b 85 e8 f4 ff ff 	mov    -0xb18(%rbp),%rax
    b15f:	89 10                	mov    %edx,(%rax)
    b161:	48 8d 05 60 c0 00 00 	lea    0xc060(%rip),%rax        # 171c8 <g_143>
    b168:	0f b6 00             	movzbl (%rax),%eax
    b16b:	0f b6 d8             	movzbl %al,%ebx
    b16e:	44 0f be ad 04 f4 ff 	movsbl -0xbfc(%rbp),%r13d
    b175:	ff 
    b176:	48 8b 05 5b c0 00 00 	mov    0xc05b(%rip),%rax        # 171d8 <g_193>
    b17d:	44 0f b7 e0          	movzwl %ax,%r12d
    b181:	48 8b 05 68 dd 00 00 	mov    0xdd68(%rip),%rax        # 18ef0 <g_299>
    b188:	48 c7 00 00 00 00 00 	movq   $0x0,(%rax)
    b18f:	8b 85 7c f4 ff ff    	mov    -0xb84(%rbp),%eax
    b195:	0f b7 c0             	movzwl %ax,%eax
    b198:	be 05 00 00 00       	mov    $0x5,%esi
    b19d:	89 c7                	mov    %eax,%edi
    b19f:	e8 5b bb ff ff       	callq  6cff <safe_add_func_uint16_t_u_u>
    b1a4:	0f b7 95 08 f4 ff ff 	movzwl -0xbf8(%rbp),%edx
    b1ab:	66 39 d0             	cmp    %dx,%ax
    b1ae:	66 0f be 85 04 f4 ff 	movsbw -0xbfc(%rbp),%ax
    b1b5:	ff 
    b1b6:	0f b7 c0             	movzwl %ax,%eax
    b1b9:	be 02 00 00 00       	mov    $0x2,%esi
    b1be:	89 c7                	mov    %eax,%edi
    b1c0:	e8 83 bc ff ff       	callq  6e48 <safe_rshift_func_uint16_t_u_s>
    b1c5:	0f b7 c0             	movzwl %ax,%eax
    b1c8:	39 85 64 f4 ff ff    	cmp    %eax,-0xb9c(%rbp)
    b1ce:	0f 9e c0             	setle  %al
    b1d1:	0f b6 c0             	movzbl %al,%eax
    b1d4:	48 89 c6             	mov    %rax,%rsi
    b1d7:	48 c7 c7 ff ff ff ff 	mov    $0xffffffffffffffff,%rdi
    b1de:	e8 4b be ff ff       	callq  702e <safe_add_func_uint64_t_u_u>
    b1e3:	48 8b 95 90 f5 ff ff 	mov    -0xa70(%rbp),%rdx
    b1ea:	48 3b 95 40 f5 ff ff 	cmp    -0xac0(%rbp),%rdx
    b1f1:	0f 95 c2             	setne  %dl
    b1f4:	0f b6 d2             	movzbl %dl,%edx
    b1f7:	48 39 d0             	cmp    %rdx,%rax
    b1fa:	0f 97 c0             	seta   %al
    b1fd:	0f b6 c0             	movzbl %al,%eax
    b200:	44 89 e6             	mov    %r12d,%esi
    b203:	89 c7                	mov    %eax,%edi
    b205:	e8 15 bb ff ff       	callq  6d1f <safe_sub_func_uint16_t_u_u>
    b20a:	66 85 c0             	test   %ax,%ax
    b20d:	75 09                	jne    b218 <func_81+0xa01>
    b20f:	83 bd 7c f4 ff ff 00 	cmpl   $0x0,-0xb84(%rbp)
    b216:	74 07                	je     b21f <func_81+0xa08>
    b218:	b8 01 00 00 00       	mov    $0x1,%eax
    b21d:	eb 05                	jmp    b224 <func_81+0xa0d>
    b21f:	b8 00 00 00 00       	mov    $0x0,%eax
    b224:	44 39 e8             	cmp    %r13d,%eax
    b227:	0f 9d c0             	setge  %al
    b22a:	0f b6 c0             	movzbl %al,%eax
    b22d:	48 39 85 98 f5 ff ff 	cmp    %rax,-0xa68(%rbp)
    b234:	75 10                	jne    b246 <func_81+0xa2f>
    b236:	83 bd 7c f4 ff ff 00 	cmpl   $0x0,-0xb84(%rbp)
    b23d:	74 07                	je     b246 <func_81+0xa2f>
    b23f:	b8 01 00 00 00       	mov    $0x1,%eax
    b244:	eb 05                	jmp    b24b <func_81+0xa34>
    b246:	b8 00 00 00 00       	mov    $0x0,%eax
    b24b:	0f b6 c0             	movzbl %al,%eax
    b24e:	89 de                	mov    %ebx,%esi
    b250:	89 c7                	mov    %eax,%edi
    b252:	e8 3c b9 ff ff       	callq  6b93 <safe_mul_func_uint8_t_u_u>
    b257:	0f b6 d0             	movzbl %al,%edx
    b25a:	48 8b 85 e8 f4 ff ff 	mov    -0xb18(%rbp),%rax
    b261:	89 10                	mov    %edx,(%rax)
    b263:	48 8b 85 e8 f4 ff ff 	mov    -0xb18(%rbp),%rax
    b26a:	8b 00                	mov    (%rax),%eax
    b26c:	85 c0                	test   %eax,%eax
    b26e:	74 61                	je     b2d1 <func_81+0xaba>
    b270:	0f b6 85 02 f4 ff ff 	movzbl -0xbfe(%rbp),%eax
    b277:	84 c0                	test   %al,%al
    b279:	74 05                	je     b280 <func_81+0xa69>
    b27b:	e9 9d f7 ff ff       	jmpq   aa1d <func_81+0x206>
    b280:	66 c7 05 4d c1 00 00 	movw   $0x0,0xc14d(%rip)        # 173d6 <g_382>
    b287:	00 00 
    b289:	90                   	nop
    b28a:	0f b7 05 45 c1 00 00 	movzwl 0xc145(%rip),%eax        # 173d6 <g_382>
    b291:	66 83 f8 01          	cmp    $0x1,%ax
    b295:	77 28                	ja     b2bf <func_81+0xaa8>
    b297:	48 8d 05 99 c2 00 00 	lea    0xc299(%rip),%rax        # 17537 <g_943>
    b29e:	48 89 85 c8 f5 ff ff 	mov    %rax,-0xa38(%rbp)
    b2a5:	48 8b 85 20 f5 ff ff 	mov    -0xae0(%rbp),%rax
    b2ac:	48 89 85 c8 f5 ff ff 	mov    %rax,-0xa38(%rbp)
    b2b3:	48 8b 85 f8 f3 ff ff 	mov    -0xc08(%rbp),%rax
    b2ba:	e9 ef 0a 00 00       	jmpq   bdae <func_81+0x1597>
    b2bf:	48 8b 05 02 df 00 00 	mov    0xdf02(%rip),%rax        # 191c8 <g_856>
    b2c6:	c7 00 0a e7 44 6c    	movl   $0x6c44e70a,(%rax)
    b2cc:	e9 9e 07 00 00       	jmpq   ba6f <func_81+0x1258>
    b2d1:	48 8d 05 08 bf 00 00 	lea    0xbf08(%rip),%rax        # 171e0 <g_195>
    b2d8:	48 89 85 b0 f5 ff ff 	mov    %rax,-0xa50(%rbp)
    b2df:	c7 85 8c f4 ff ff fe 	movl   $0x922f87fe,-0xb74(%rbp)
    b2e6:	87 2f 92 
    b2e9:	48 b8 db 86 d3 43 3b 	movabs $0x3e57ee3b43d386db,%rax
    b2f0:	ee 57 3e 
    b2f3:	48 89 85 b8 f5 ff ff 	mov    %rax,-0xa48(%rbp)
    b2fa:	8b 85 48 f4 ff ff    	mov    -0xbb8(%rbp),%eax
    b300:	0f bf d8             	movswl %ax,%ebx
    b303:	c6 05 c6 be 00 00 00 	movb   $0x0,0xbec6(%rip)        # 171d0 <g_184>
    b30a:	0f b6 15 bf be 00 00 	movzbl 0xbebf(%rip),%edx        # 171d0 <g_184>
    b311:	48 8b 85 b0 f5 ff ff 	mov    -0xa50(%rbp),%rax
    b318:	0f b6 00             	movzbl (%rax),%eax
    b31b:	21 c2                	and    %eax,%edx
    b31d:	48 8b 85 b0 f5 ff ff 	mov    -0xa50(%rbp),%rax
    b324:	88 10                	mov    %dl,(%rax)
    b326:	48 8b 85 b0 f5 ff ff 	mov    -0xa50(%rbp),%rax
    b32d:	0f b6 00             	movzbl (%rax),%eax
    b330:	84 c0                	test   %al,%al
    b332:	0f 85 2a 01 00 00    	jne    b462 <func_81+0xc4b>
    b338:	48 8b 85 70 f5 ff ff 	mov    -0xa90(%rbp),%rax
    b33f:	48 8b 95 50 f5 ff ff 	mov    -0xab0(%rbp),%rdx
    b346:	48 89 10             	mov    %rdx,(%rax)
    b349:	83 bd 7c f4 ff ff 00 	cmpl   $0x0,-0xb84(%rbp)
    b350:	0f 85 ab 00 00 00    	jne    b401 <func_81+0xbea>
    b356:	8b 95 8c f4 ff ff    	mov    -0xb74(%rbp),%edx
    b35c:	8b 85 68 f4 ff ff    	mov    -0xb98(%rbp),%eax
    b362:	89 d6                	mov    %edx,%esi
    b364:	89 c7                	mov    %eax,%edi
    b366:	e8 4d bb ff ff       	callq  6eb8 <safe_add_func_uint32_t_u_u>
    b36b:	8b 95 7c f4 ff ff    	mov    -0xb84(%rbp),%edx
    b371:	39 d0                	cmp    %edx,%eax
    b373:	0f 94 c0             	sete   %al
    b376:	0f b6 d0             	movzbl %al,%edx
    b379:	48 8b 85 b0 f5 ff ff 	mov    -0xa50(%rbp),%rax
    b380:	0f b6 00             	movzbl (%rax),%eax
    b383:	8d 70 ff             	lea    -0x1(%rax),%esi
    b386:	48 8b 8d b0 f5 ff ff 	mov    -0xa50(%rbp),%rcx
    b38d:	40 88 31             	mov    %sil,(%rcx)
    b390:	0f b6 c0             	movzbl %al,%eax
    b393:	89 d6                	mov    %edx,%esi
    b395:	89 c7                	mov    %eax,%edi
    b397:	e8 f7 b7 ff ff       	callq  6b93 <safe_mul_func_uint8_t_u_u>
    b39c:	0f b6 d0             	movzbl %al,%edx
    b39f:	8b 85 18 f4 ff ff    	mov    -0xbe8(%rbp),%eax
    b3a5:	39 c2                	cmp    %eax,%edx
    b3a7:	0f 9c c0             	setl   %al
    b3aa:	0f b6 c0             	movzbl %al,%eax
    b3ad:	21 85 80 f4 ff ff    	and    %eax,-0xb80(%rbp)
    b3b3:	8b 85 80 f4 ff ff    	mov    -0xb80(%rbp),%eax
    b3b9:	98                   	cwtl   
    b3ba:	be 06 00 00 00       	mov    $0x6,%esi
    b3bf:	89 c7                	mov    %eax,%edi
    b3c1:	e8 1b b1 ff ff       	callq  64e1 <safe_lshift_func_int16_t_s_u>
    b3c6:	98                   	cwtl   
    b3c7:	ba 2c 34 00 00       	mov    $0x342c,%edx
    b3cc:	09 c2                	or     %eax,%edx
    b3ce:	48 8d 05 f3 bd 00 00 	lea    0xbdf3(%rip),%rax        # 171c8 <g_143>
    b3d5:	0f b6 00             	movzbl (%rax),%eax
    b3d8:	0f be c0             	movsbl %al,%eax
    b3db:	39 c2                	cmp    %eax,%edx
    b3dd:	0f 9d c0             	setge  %al
    b3e0:	0f b6 c0             	movzbl %al,%eax
    b3e3:	be a7 f0 a9 9a       	mov    $0x9aa9f0a7,%esi
    b3e8:	89 c7                	mov    %eax,%edi
    b3ea:	e8 16 b2 ff ff       	callq  6605 <safe_sub_func_int32_t_s_s>
    b3ef:	39 85 8c f4 ff ff    	cmp    %eax,-0xb74(%rbp)
    b3f5:	74 0a                	je     b401 <func_81+0xbea>
    b3f7:	8b 85 18 f4 ff ff    	mov    -0xbe8(%rbp),%eax
    b3fd:	85 c0                	test   %eax,%eax
    b3ff:	74 07                	je     b408 <func_81+0xbf1>
    b401:	b8 01 00 00 00       	mov    $0x1,%eax
    b406:	eb 05                	jmp    b40d <func_81+0xbf6>
    b408:	b8 00 00 00 00       	mov    $0x0,%eax
    b40d:	83 f8 48             	cmp    $0x48,%eax
    b410:	7f 09                	jg     b41b <func_81+0xc04>
    b412:	b8 6a 4d db 94       	mov    $0x94db4d6a,%eax
    b417:	85 c0                	test   %eax,%eax
    b419:	74 07                	je     b422 <func_81+0xc0b>
    b41b:	ba 01 00 00 00       	mov    $0x1,%edx
    b420:	eb 05                	jmp    b427 <func_81+0xc10>
    b422:	ba 00 00 00 00       	mov    $0x0,%edx
    b427:	0f b6 05 7b be 00 00 	movzbl 0xbe7b(%rip),%eax        # 172a9 <g_277+0x1>
    b42e:	0f be c0             	movsbl %al,%eax
    b431:	39 c2                	cmp    %eax,%edx
    b433:	0f 9e c0             	setle  %al
    b436:	0f b6 c0             	movzbl %al,%eax
    b439:	be 25 e3 00 00       	mov    $0xe325,%esi
    b43e:	89 c7                	mov    %eax,%edi
    b440:	e8 17 b9 ff ff       	callq  6d5c <safe_mod_func_uint16_t_u_u>
    b445:	66 83 f8 01          	cmp    $0x1,%ax
    b449:	0f 94 c2             	sete   %dl
    b44c:	48 8b 85 40 f5 ff ff 	mov    -0xac0(%rbp),%rax
    b453:	48 8b 00             	mov    (%rax),%rax
    b456:	0f b6 d2             	movzbl %dl,%edx
    b459:	48 89 10             	mov    %rdx,(%rax)
    b45c:	48 8b 00             	mov    (%rax),%rax
    b45f:	48 85 c0             	test   %rax,%rax
    b462:	83 bd 7c f4 ff ff 00 	cmpl   $0x0,-0xb84(%rbp)
    b469:	75 09                	jne    b474 <func_81+0xc5d>
    b46b:	83 bd 8c f4 ff ff 00 	cmpl   $0x0,-0xb74(%rbp)
    b472:	74 07                	je     b47b <func_81+0xc64>
    b474:	b8 01 00 00 00       	mov    $0x1,%eax
    b479:	eb 05                	jmp    b480 <func_81+0xc69>
    b47b:	b8 00 00 00 00       	mov    $0x0,%eax
    b480:	20 85 03 f4 ff ff    	and    %al,-0xbfd(%rbp)
    b486:	48 0f be 85 03 f4 ff 	movsbq -0xbfd(%rbp),%rax
    b48d:	ff 
    b48e:	48 39 85 b8 f5 ff ff 	cmp    %rax,-0xa48(%rbp)
    b495:	0f 95 c0             	setne  %al
    b498:	0f b6 c0             	movzbl %al,%eax
    b49b:	89 de                	mov    %ebx,%esi
    b49d:	89 c7                	mov    %eax,%edi
    b49f:	e8 b1 af ff ff       	callq  6455 <safe_div_func_int16_t_s_s>
    b4a4:	66 85 c0             	test   %ax,%ax
    b4a7:	74 2a                	je     b4d3 <func_81+0xcbc>
    b4a9:	48 8d 85 70 fb ff ff 	lea    -0x490(%rbp),%rax
    b4b0:	48 05 c8 00 00 00    	add    $0xc8,%rax
    b4b6:	48 89 85 c0 f5 ff ff 	mov    %rax,-0xa40(%rbp)
    b4bd:	48 8b 95 e8 fd ff ff 	mov    -0x218(%rbp),%rdx
    b4c4:	48 8b 85 c0 f5 ff ff 	mov    -0xa40(%rbp),%rax
    b4cb:	48 89 10             	mov    %rdx,(%rax)
    b4ce:	e9 9c 05 00 00       	jmpq   ba6f <func_81+0x1258>
    b4d3:	48 8d 85 c0 f6 ff ff 	lea    -0x940(%rbp),%rax
    b4da:	48 05 a8 01 00 00    	add    $0x1a8,%rax
    b4e0:	48 89 85 d0 f4 ff ff 	mov    %rax,-0xb30(%rbp)
    b4e7:	48 8d 85 d0 f4 ff ff 	lea    -0xb30(%rbp),%rax
    b4ee:	48 89 85 70 f8 ff ff 	mov    %rax,-0x790(%rbp)
    b4f5:	48 8d 85 d0 f4 ff ff 	lea    -0xb30(%rbp),%rax
    b4fc:	48 89 85 78 f8 ff ff 	mov    %rax,-0x788(%rbp)
    b503:	48 8d 85 d0 f4 ff ff 	lea    -0xb30(%rbp),%rax
    b50a:	48 89 85 80 f8 ff ff 	mov    %rax,-0x780(%rbp)
    b511:	48 8d 85 d0 f4 ff ff 	lea    -0xb30(%rbp),%rax
    b518:	48 89 85 88 f8 ff ff 	mov    %rax,-0x778(%rbp)
    b51f:	48 c7 85 90 f8 ff ff 	movq   $0x0,-0x770(%rbp)
    b526:	00 00 00 00 
    b52a:	48 8d 85 d0 f4 ff ff 	lea    -0xb30(%rbp),%rax
    b531:	48 89 85 98 f8 ff ff 	mov    %rax,-0x768(%rbp)
    b538:	48 8d 85 d0 f4 ff ff 	lea    -0xb30(%rbp),%rax
    b53f:	48 89 85 a0 f8 ff ff 	mov    %rax,-0x760(%rbp)
    b546:	48 8d 85 d0 f4 ff ff 	lea    -0xb30(%rbp),%rax
    b54d:	48 89 85 a8 f8 ff ff 	mov    %rax,-0x758(%rbp)
    b554:	48 8d 85 d0 f4 ff ff 	lea    -0xb30(%rbp),%rax
    b55b:	48 89 85 b0 f8 ff ff 	mov    %rax,-0x750(%rbp)
    b562:	48 8d 85 d0 f4 ff ff 	lea    -0xb30(%rbp),%rax
    b569:	48 89 85 b8 f8 ff ff 	mov    %rax,-0x748(%rbp)
    b570:	48 8d 85 d0 f4 ff ff 	lea    -0xb30(%rbp),%rax
    b577:	48 89 85 c0 f8 ff ff 	mov    %rax,-0x740(%rbp)
    b57e:	48 8d 85 d0 f4 ff ff 	lea    -0xb30(%rbp),%rax
    b585:	48 89 85 c8 f8 ff ff 	mov    %rax,-0x738(%rbp)
    b58c:	48 8d 85 d0 f4 ff ff 	lea    -0xb30(%rbp),%rax
    b593:	48 89 85 d0 f8 ff ff 	mov    %rax,-0x730(%rbp)
    b59a:	48 8d 85 d0 f4 ff ff 	lea    -0xb30(%rbp),%rax
    b5a1:	48 89 85 d8 f8 ff ff 	mov    %rax,-0x728(%rbp)
    b5a8:	48 8d 85 d0 f4 ff ff 	lea    -0xb30(%rbp),%rax
    b5af:	48 89 85 e0 f8 ff ff 	mov    %rax,-0x720(%rbp)
    b5b6:	48 8d 85 d0 f4 ff ff 	lea    -0xb30(%rbp),%rax
    b5bd:	48 89 85 e8 f8 ff ff 	mov    %rax,-0x718(%rbp)
    b5c4:	48 8d 85 d0 f4 ff ff 	lea    -0xb30(%rbp),%rax
    b5cb:	48 89 85 f0 f8 ff ff 	mov    %rax,-0x710(%rbp)
    b5d2:	48 8d 85 d0 f4 ff ff 	lea    -0xb30(%rbp),%rax
    b5d9:	48 89 85 f8 f8 ff ff 	mov    %rax,-0x708(%rbp)
    b5e0:	48 8d 85 d0 f4 ff ff 	lea    -0xb30(%rbp),%rax
    b5e7:	48 89 85 00 f9 ff ff 	mov    %rax,-0x700(%rbp)
    b5ee:	48 8d 85 d0 f4 ff ff 	lea    -0xb30(%rbp),%rax
    b5f5:	48 89 85 08 f9 ff ff 	mov    %rax,-0x6f8(%rbp)
    b5fc:	48 8d 85 d0 f4 ff ff 	lea    -0xb30(%rbp),%rax
    b603:	48 89 85 10 f9 ff ff 	mov    %rax,-0x6f0(%rbp)
    b60a:	48 8d 85 d0 f4 ff ff 	lea    -0xb30(%rbp),%rax
    b611:	48 89 85 18 f9 ff ff 	mov    %rax,-0x6e8(%rbp)
    b618:	48 8d 85 d0 f4 ff ff 	lea    -0xb30(%rbp),%rax
    b61f:	48 89 85 20 f9 ff ff 	mov    %rax,-0x6e0(%rbp)
    b626:	48 8d 85 d0 f4 ff ff 	lea    -0xb30(%rbp),%rax
    b62d:	48 89 85 28 f9 ff ff 	mov    %rax,-0x6d8(%rbp)
    b634:	48 8d 85 d0 f4 ff ff 	lea    -0xb30(%rbp),%rax
    b63b:	48 89 85 30 f9 ff ff 	mov    %rax,-0x6d0(%rbp)
    b642:	48 8d 85 d0 f4 ff ff 	lea    -0xb30(%rbp),%rax
    b649:	48 89 85 38 f9 ff ff 	mov    %rax,-0x6c8(%rbp)
    b650:	48 8d 85 d0 f4 ff ff 	lea    -0xb30(%rbp),%rax
    b657:	48 89 85 40 f9 ff ff 	mov    %rax,-0x6c0(%rbp)
    b65e:	48 8d 85 d0 f4 ff ff 	lea    -0xb30(%rbp),%rax
    b665:	48 89 85 48 f9 ff ff 	mov    %rax,-0x6b8(%rbp)
    b66c:	48 8d 85 d0 f4 ff ff 	lea    -0xb30(%rbp),%rax
    b673:	48 89 85 50 f9 ff ff 	mov    %rax,-0x6b0(%rbp)
    b67a:	48 8d 85 d0 f4 ff ff 	lea    -0xb30(%rbp),%rax
    b681:	48 89 85 58 f9 ff ff 	mov    %rax,-0x6a8(%rbp)
    b688:	48 8d 85 d0 f4 ff ff 	lea    -0xb30(%rbp),%rax
    b68f:	48 89 85 60 f9 ff ff 	mov    %rax,-0x6a0(%rbp)
    b696:	48 8d 85 d0 f4 ff ff 	lea    -0xb30(%rbp),%rax
    b69d:	48 89 85 68 f9 ff ff 	mov    %rax,-0x698(%rbp)
    b6a4:	48 8d 85 d0 f4 ff ff 	lea    -0xb30(%rbp),%rax
    b6ab:	48 89 85 70 f9 ff ff 	mov    %rax,-0x690(%rbp)
    b6b2:	48 8d 85 d0 f4 ff ff 	lea    -0xb30(%rbp),%rax
    b6b9:	48 89 85 78 f9 ff ff 	mov    %rax,-0x688(%rbp)
    b6c0:	48 8d 85 d0 f4 ff ff 	lea    -0xb30(%rbp),%rax
    b6c7:	48 89 85 80 f9 ff ff 	mov    %rax,-0x680(%rbp)
    b6ce:	48 8d 85 d0 f4 ff ff 	lea    -0xb30(%rbp),%rax
    b6d5:	48 89 85 88 f9 ff ff 	mov    %rax,-0x678(%rbp)
    b6dc:	48 8d 85 d0 f4 ff ff 	lea    -0xb30(%rbp),%rax
    b6e3:	48 89 85 90 f9 ff ff 	mov    %rax,-0x670(%rbp)
    b6ea:	48 8d 85 d0 f4 ff ff 	lea    -0xb30(%rbp),%rax
    b6f1:	48 89 85 98 f9 ff ff 	mov    %rax,-0x668(%rbp)
    b6f8:	48 8d 85 d0 f4 ff ff 	lea    -0xb30(%rbp),%rax
    b6ff:	48 89 85 a0 f9 ff ff 	mov    %rax,-0x660(%rbp)
    b706:	48 8d 85 d0 f4 ff ff 	lea    -0xb30(%rbp),%rax
    b70d:	48 89 85 a8 f9 ff ff 	mov    %rax,-0x658(%rbp)
    b714:	48 8d 85 d0 f4 ff ff 	lea    -0xb30(%rbp),%rax
    b71b:	48 89 85 b0 f9 ff ff 	mov    %rax,-0x650(%rbp)
    b722:	48 8d 85 d0 f4 ff ff 	lea    -0xb30(%rbp),%rax
    b729:	48 89 85 b8 f9 ff ff 	mov    %rax,-0x648(%rbp)
    b730:	48 8d 85 d0 f4 ff ff 	lea    -0xb30(%rbp),%rax
    b737:	48 89 85 c0 f9 ff ff 	mov    %rax,-0x640(%rbp)
    b73e:	48 8d 85 d0 f4 ff ff 	lea    -0xb30(%rbp),%rax
    b745:	48 89 85 c8 f9 ff ff 	mov    %rax,-0x638(%rbp)
    b74c:	48 8d 85 d0 f4 ff ff 	lea    -0xb30(%rbp),%rax
    b753:	48 89 85 d0 f9 ff ff 	mov    %rax,-0x630(%rbp)
    b75a:	48 8d 85 d0 f4 ff ff 	lea    -0xb30(%rbp),%rax
    b761:	48 89 85 d8 f9 ff ff 	mov    %rax,-0x628(%rbp)
    b768:	48 8d 85 d0 f4 ff ff 	lea    -0xb30(%rbp),%rax
    b76f:	48 89 85 e0 f9 ff ff 	mov    %rax,-0x620(%rbp)
    b776:	48 8d 85 d0 f4 ff ff 	lea    -0xb30(%rbp),%rax
    b77d:	48 89 85 e8 f9 ff ff 	mov    %rax,-0x618(%rbp)
    b784:	48 8d 85 d0 f4 ff ff 	lea    -0xb30(%rbp),%rax
    b78b:	48 89 85 f0 f9 ff ff 	mov    %rax,-0x610(%rbp)
    b792:	48 8d 85 d0 f4 ff ff 	lea    -0xb30(%rbp),%rax
    b799:	48 89 85 f8 f9 ff ff 	mov    %rax,-0x608(%rbp)
    b7a0:	48 8d 85 d0 f4 ff ff 	lea    -0xb30(%rbp),%rax
    b7a7:	48 89 85 00 fa ff ff 	mov    %rax,-0x600(%rbp)
    b7ae:	48 8d 85 d0 f4 ff ff 	lea    -0xb30(%rbp),%rax
    b7b5:	48 89 85 08 fa ff ff 	mov    %rax,-0x5f8(%rbp)
    b7bc:	48 8d 85 d0 f4 ff ff 	lea    -0xb30(%rbp),%rax
    b7c3:	48 89 85 10 fa ff ff 	mov    %rax,-0x5f0(%rbp)
    b7ca:	48 8d 85 d0 f4 ff ff 	lea    -0xb30(%rbp),%rax
    b7d1:	48 89 85 18 fa ff ff 	mov    %rax,-0x5e8(%rbp)
    b7d8:	48 8d 85 d0 f4 ff ff 	lea    -0xb30(%rbp),%rax
    b7df:	48 89 85 20 fa ff ff 	mov    %rax,-0x5e0(%rbp)
    b7e6:	48 8d 85 d0 f4 ff ff 	lea    -0xb30(%rbp),%rax
    b7ed:	48 89 85 28 fa ff ff 	mov    %rax,-0x5d8(%rbp)
    b7f4:	48 8d 85 d0 f4 ff ff 	lea    -0xb30(%rbp),%rax
    b7fb:	48 89 85 30 fa ff ff 	mov    %rax,-0x5d0(%rbp)
    b802:	48 8d 85 d0 f4 ff ff 	lea    -0xb30(%rbp),%rax
    b809:	48 89 85 38 fa ff ff 	mov    %rax,-0x5c8(%rbp)
    b810:	48 8d 85 d0 f4 ff ff 	lea    -0xb30(%rbp),%rax
    b817:	48 89 85 40 fa ff ff 	mov    %rax,-0x5c0(%rbp)
    b81e:	48 8d 85 d0 f4 ff ff 	lea    -0xb30(%rbp),%rax
    b825:	48 89 85 48 fa ff ff 	mov    %rax,-0x5b8(%rbp)
    b82c:	48 8d 85 d0 f4 ff ff 	lea    -0xb30(%rbp),%rax
    b833:	48 89 85 50 fa ff ff 	mov    %rax,-0x5b0(%rbp)
    b83a:	48 8d 85 d0 f4 ff ff 	lea    -0xb30(%rbp),%rax
    b841:	48 89 85 58 fa ff ff 	mov    %rax,-0x5a8(%rbp)
    b848:	48 8d 85 d0 f4 ff ff 	lea    -0xb30(%rbp),%rax
    b84f:	48 89 85 60 fa ff ff 	mov    %rax,-0x5a0(%rbp)
    b856:	48 8d 85 d0 f4 ff ff 	lea    -0xb30(%rbp),%rax
    b85d:	48 89 85 68 fa ff ff 	mov    %rax,-0x598(%rbp)
    b864:	48 8d 85 d0 f4 ff ff 	lea    -0xb30(%rbp),%rax
    b86b:	48 89 85 70 fa ff ff 	mov    %rax,-0x590(%rbp)
    b872:	48 8d 85 d0 f4 ff ff 	lea    -0xb30(%rbp),%rax
    b879:	48 89 85 78 fa ff ff 	mov    %rax,-0x588(%rbp)
    b880:	48 8d 85 d0 f4 ff ff 	lea    -0xb30(%rbp),%rax
    b887:	48 89 85 80 fa ff ff 	mov    %rax,-0x580(%rbp)
    b88e:	48 8d 85 d0 f4 ff ff 	lea    -0xb30(%rbp),%rax
    b895:	48 89 85 88 fa ff ff 	mov    %rax,-0x578(%rbp)
    b89c:	48 8d 85 d0 f4 ff ff 	lea    -0xb30(%rbp),%rax
    b8a3:	48 89 85 90 fa ff ff 	mov    %rax,-0x570(%rbp)
    b8aa:	48 8d 85 d0 f4 ff ff 	lea    -0xb30(%rbp),%rax
    b8b1:	48 89 85 98 fa ff ff 	mov    %rax,-0x568(%rbp)
    b8b8:	48 8d 85 d0 f4 ff ff 	lea    -0xb30(%rbp),%rax
    b8bf:	48 89 85 a0 fa ff ff 	mov    %rax,-0x560(%rbp)
    b8c6:	48 8d 85 d0 f4 ff ff 	lea    -0xb30(%rbp),%rax
    b8cd:	48 89 85 a8 fa ff ff 	mov    %rax,-0x558(%rbp)
    b8d4:	48 8d 85 d0 f4 ff ff 	lea    -0xb30(%rbp),%rax
    b8db:	48 89 85 b0 fa ff ff 	mov    %rax,-0x550(%rbp)
    b8e2:	48 8d 85 d0 f4 ff ff 	lea    -0xb30(%rbp),%rax
    b8e9:	48 89 85 b8 fa ff ff 	mov    %rax,-0x548(%rbp)
    b8f0:	48 8d 85 d0 f4 ff ff 	lea    -0xb30(%rbp),%rax
    b8f7:	48 89 85 c0 fa ff ff 	mov    %rax,-0x540(%rbp)
    b8fe:	48 8d 85 d0 f4 ff ff 	lea    -0xb30(%rbp),%rax
    b905:	48 89 85 c8 fa ff ff 	mov    %rax,-0x538(%rbp)
    b90c:	48 8d 85 d0 f4 ff ff 	lea    -0xb30(%rbp),%rax
    b913:	48 89 85 d0 fa ff ff 	mov    %rax,-0x530(%rbp)
    b91a:	48 8d 85 d0 f4 ff ff 	lea    -0xb30(%rbp),%rax
    b921:	48 89 85 d8 fa ff ff 	mov    %rax,-0x528(%rbp)
    b928:	48 8d 85 d0 f4 ff ff 	lea    -0xb30(%rbp),%rax
    b92f:	48 89 85 e0 fa ff ff 	mov    %rax,-0x520(%rbp)
    b936:	48 8d 85 d0 f4 ff ff 	lea    -0xb30(%rbp),%rax
    b93d:	48 89 85 e8 fa ff ff 	mov    %rax,-0x518(%rbp)
    b944:	48 8d 85 d0 f4 ff ff 	lea    -0xb30(%rbp),%rax
    b94b:	48 89 85 f0 fa ff ff 	mov    %rax,-0x510(%rbp)
    b952:	48 8d 85 d0 f4 ff ff 	lea    -0xb30(%rbp),%rax
    b959:	48 89 85 f8 fa ff ff 	mov    %rax,-0x508(%rbp)
    b960:	48 8d 85 d0 f4 ff ff 	lea    -0xb30(%rbp),%rax
    b967:	48 89 85 00 fb ff ff 	mov    %rax,-0x500(%rbp)
    b96e:	48 8d 85 d0 f4 ff ff 	lea    -0xb30(%rbp),%rax
    b975:	48 89 85 08 fb ff ff 	mov    %rax,-0x4f8(%rbp)
    b97c:	48 8d 85 d0 f4 ff ff 	lea    -0xb30(%rbp),%rax
    b983:	48 89 85 10 fb ff ff 	mov    %rax,-0x4f0(%rbp)
    b98a:	48 8d 85 d0 f4 ff ff 	lea    -0xb30(%rbp),%rax
    b991:	48 89 85 18 fb ff ff 	mov    %rax,-0x4e8(%rbp)
    b998:	48 8d 85 d0 f4 ff ff 	lea    -0xb30(%rbp),%rax
    b99f:	48 89 85 20 fb ff ff 	mov    %rax,-0x4e0(%rbp)
    b9a6:	48 8d 85 d0 f4 ff ff 	lea    -0xb30(%rbp),%rax
    b9ad:	48 89 85 28 fb ff ff 	mov    %rax,-0x4d8(%rbp)
    b9b4:	48 8d 85 d0 f4 ff ff 	lea    -0xb30(%rbp),%rax
    b9bb:	48 89 85 30 fb ff ff 	mov    %rax,-0x4d0(%rbp)
    b9c2:	48 8d 85 d0 f4 ff ff 	lea    -0xb30(%rbp),%rax
    b9c9:	48 89 85 38 fb ff ff 	mov    %rax,-0x4c8(%rbp)
    b9d0:	c7 85 38 f4 ff ff 00 	movl   $0x0,-0xbc8(%rbp)
    b9d7:	00 00 00 
    b9da:	eb 7b                	jmp    ba57 <func_81+0x1240>
    b9dc:	c7 85 3c f4 ff ff 00 	movl   $0x0,-0xbc4(%rbp)
    b9e3:	00 00 00 
    b9e6:	eb 5f                	jmp    ba47 <func_81+0x1230>
    b9e8:	c7 85 40 f4 ff ff 00 	movl   $0x0,-0xbc0(%rbp)
    b9ef:	00 00 00 
    b9f2:	eb 43                	jmp    ba37 <func_81+0x1220>
    b9f4:	8b 85 40 f4 ff ff    	mov    -0xbc0(%rbp),%eax
    b9fa:	48 63 c8             	movslq %eax,%rcx
    b9fd:	8b 85 38 f4 ff ff    	mov    -0xbc8(%rbp),%eax
    ba03:	48 63 d0             	movslq %eax,%rdx
    ba06:	8b 85 3c f4 ff ff    	mov    -0xbc4(%rbp),%eax
    ba0c:	48 63 f0             	movslq %eax,%rsi
    ba0f:	48 89 d0             	mov    %rdx,%rax
    ba12:	48 01 c0             	add    %rax,%rax
    ba15:	48 01 d0             	add    %rdx,%rax
    ba18:	48 01 f0             	add    %rsi,%rax
    ba1b:	48 01 c0             	add    %rax,%rax
    ba1e:	48 01 c8             	add    %rcx,%rax
    ba21:	48 8d 15 78 b8 00 00 	lea    0xb878(%rip),%rdx        # 172a0 <g_274+0x8>
    ba28:	48 89 94 c5 c0 f6 ff 	mov    %rdx,-0x940(%rbp,%rax,8)
    ba2f:	ff 
    ba30:	83 85 40 f4 ff ff 01 	addl   $0x1,-0xbc0(%rbp)
    ba37:	83 bd 40 f4 ff ff 01 	cmpl   $0x1,-0xbc0(%rbp)
    ba3e:	7e b4                	jle    b9f4 <func_81+0x11dd>
    ba40:	83 85 3c f4 ff ff 01 	addl   $0x1,-0xbc4(%rbp)
    ba47:	83 bd 3c f4 ff ff 02 	cmpl   $0x2,-0xbc4(%rbp)
    ba4e:	7e 98                	jle    b9e8 <func_81+0x11d1>
    ba50:	83 85 38 f4 ff ff 01 	addl   $0x1,-0xbc8(%rbp)
    ba57:	83 bd 38 f4 ff ff 08 	cmpl   $0x8,-0xbc8(%rbp)
    ba5e:	0f 8e 78 ff ff ff    	jle    b9dc <func_81+0x11c5>
    ba64:	48 c7 05 c1 da 00 00 	movq   $0x0,0xdac1(%rip)        # 19530 <g_976>
    ba6b:	00 00 00 00 
    ba6f:	83 bd 68 f4 ff ff 00 	cmpl   $0x0,-0xb98(%rbp)
    ba76:	75 23                	jne    ba9b <func_81+0x1284>
    ba78:	0f b7 05 cd b5 00 00 	movzwl 0xb5cd(%rip),%eax        # 1704c <g_126>
    ba7f:	83 e8 01             	sub    $0x1,%eax
    ba82:	66 89 05 c3 b5 00 00 	mov    %ax,0xb5c3(%rip)        # 1704c <g_126>
    ba89:	0f b7 05 bc b5 00 00 	movzwl 0xb5bc(%rip),%eax        # 1704c <g_126>
    ba90:	66 85 c0             	test   %ax,%ax
    ba93:	0f 89 76 f3 ff ff    	jns    ae0f <func_81+0x5f8>
    ba99:	eb 01                	jmp    ba9c <func_81+0x1285>
    ba9b:	90                   	nop
    ba9c:	66 c7 85 08 f4 ff ff 	movw   $0x0,-0xbf8(%rbp)
    baa3:	00 00 
    baa5:	e9 9b 02 00 00       	jmpq   bd45 <func_81+0x152e>
    baaa:	c6 85 05 f4 ff ff e0 	movb   $0xe0,-0xbfb(%rbp)
    bab1:	48 8d 85 98 f4 ff ff 	lea    -0xb68(%rbp),%rax
    bab8:	48 89 85 70 f8 ff ff 	mov    %rax,-0x790(%rbp)
    babf:	48 8d 85 98 f4 ff ff 	lea    -0xb68(%rbp),%rax
    bac6:	48 89 85 78 f8 ff ff 	mov    %rax,-0x788(%rbp)
    bacd:	48 8d 85 90 f4 ff ff 	lea    -0xb70(%rbp),%rax
    bad4:	48 89 85 80 f8 ff ff 	mov    %rax,-0x780(%rbp)
    badb:	48 8d 85 98 f4 ff ff 	lea    -0xb68(%rbp),%rax
    bae2:	48 89 85 88 f8 ff ff 	mov    %rax,-0x778(%rbp)
    bae9:	48 8d 85 98 f4 ff ff 	lea    -0xb68(%rbp),%rax
    baf0:	48 89 85 90 f8 ff ff 	mov    %rax,-0x770(%rbp)
    baf7:	48 8d 85 90 f4 ff ff 	lea    -0xb70(%rbp),%rax
    bafe:	48 89 85 98 f8 ff ff 	mov    %rax,-0x768(%rbp)
    bb05:	48 8d 05 40 b5 00 00 	lea    0xb540(%rip),%rax        # 1704c <g_126>
    bb0c:	48 89 85 d0 f4 ff ff 	mov    %rax,-0xb30(%rbp)
    bb13:	48 8d 85 d0 f4 ff ff 	lea    -0xb30(%rbp),%rax
    bb1a:	48 89 85 d0 f5 ff ff 	mov    %rax,-0xa30(%rbp)
    bb21:	66 c7 85 0e f4 ff ff 	movw   $0x1,-0xbf2(%rbp)
    bb28:	01 00 
    bb2a:	c7 85 44 f4 ff ff 00 	movl   $0x0,-0xbbc(%rbp)
    bb31:	00 00 00 
    bb34:	eb 1a                	jmp    bb50 <func_81+0x1339>
    bb36:	8b 85 44 f4 ff ff    	mov    -0xbbc(%rbp),%eax
    bb3c:	48 98                	cltq   
    bb3e:	c7 84 85 c0 f6 ff ff 	movl   $0xaddb7897,-0x940(%rbp,%rax,4)
    bb45:	97 78 db ad 
    bb49:	83 85 44 f4 ff ff 01 	addl   $0x1,-0xbbc(%rbp)
    bb50:	83 bd 44 f4 ff ff 06 	cmpl   $0x6,-0xbbc(%rbp)
    bb57:	7e dd                	jle    bb36 <func_81+0x131f>
    bb59:	c7 85 44 f4 ff ff 00 	movl   $0x0,-0xbbc(%rbp)
    bb60:	00 00 00 
    bb63:	eb 1a                	jmp    bb7f <func_81+0x1368>
    bb65:	8b 85 44 f4 ff ff    	mov    -0xbbc(%rbp),%eax
    bb6b:	48 98                	cltq   
    bb6d:	c7 84 85 04 f6 ff ff 	movl   $0x0,-0x9fc(%rbp,%rax,4)
    bb74:	00 00 00 00 
    bb78:	83 85 44 f4 ff ff 01 	addl   $0x1,-0xbbc(%rbp)
    bb7f:	83 bd 44 f4 ff ff 02 	cmpl   $0x2,-0xbbc(%rbp)
    bb86:	7e dd                	jle    bb65 <func_81+0x134e>
    bb88:	48 8b 85 30 f6 ff ff 	mov    -0x9d0(%rbp),%rax
    bb8f:	48 83 c0 01          	add    $0x1,%rax
    bb93:	48 89 85 30 f6 ff ff 	mov    %rax,-0x9d0(%rbp)
    bb9a:	48 8d 85 40 f6 ff ff 	lea    -0x9c0(%rbp),%rax
    bba1:	48 83 c0 04          	add    $0x4,%rax
    bba5:	48 89 85 60 f5 ff ff 	mov    %rax,-0xaa0(%rbp)
    bbac:	c7 85 28 f4 ff ff 00 	movl   $0x0,-0xbd8(%rbp)
    bbb3:	00 00 00 
    bbb6:	e9 6c 01 00 00       	jmpq   bd27 <func_81+0x1510>
    bbbb:	48 c7 85 d8 f5 ff ff 	movq   $0xffffffffffffffff,-0xa28(%rbp)
    bbc2:	ff ff ff ff 
    bbc6:	48 c7 85 e0 f5 ff ff 	movq   $0x0,-0xa20(%rbp)
    bbcd:	00 00 00 00 
    bbd1:	48 8b 85 60 f5 ff ff 	mov    -0xaa0(%rbp),%rax
    bbd8:	8b 00                	mov    (%rax),%eax
    bbda:	66 89 05 6b b4 00 00 	mov    %ax,0xb46b(%rip)        # 1704c <g_126>
    bbe1:	48 83 bd 28 f5 ff ff 	cmpq   $0x0,-0xad8(%rbp)
    bbe8:	00 
    bbe9:	0f 94 c0             	sete   %al
    bbec:	0f b6 d0             	movzbl %al,%edx
    bbef:	48 8d 05 d2 b5 00 00 	lea    0xb5d2(%rip),%rax        # 171c8 <g_143>
    bbf6:	0f b6 00             	movzbl (%rax),%eax
    bbf9:	0f be c0             	movsbl %al,%eax
    bbfc:	89 d3                	mov    %edx,%ebx
    bbfe:	09 c3                	or     %eax,%ebx
    bc00:	8b 85 00 f6 ff ff    	mov    -0xa00(%rbp),%eax
    bc06:	85 c0                	test   %eax,%eax
    bc08:	74 19                	je     bc23 <func_81+0x140c>
    bc0a:	48 8b 05 ff d2 00 00 	mov    0xd2ff(%rip),%rax        # 18f10 <g_388>
    bc11:	48 8b 00             	mov    (%rax),%rax
    bc14:	48 8b 00             	mov    (%rax),%rax
    bc17:	48 85 c0             	test   %rax,%rax
    bc1a:	74 07                	je     bc23 <func_81+0x140c>
    bc1c:	b8 01 00 00 00       	mov    $0x1,%eax
    bc21:	eb 05                	jmp    bc28 <func_81+0x1411>
    bc23:	b8 00 00 00 00       	mov    $0x0,%eax
    bc28:	0f bf d0             	movswl %ax,%edx
    bc2b:	48 83 bd 30 f5 ff ff 	cmpq   $0x0,-0xad0(%rbp)
    bc32:	00 
    bc33:	0f 95 c0             	setne  %al
    bc36:	0f b6 c0             	movzbl %al,%eax
    bc39:	89 d6                	mov    %edx,%esi
    bc3b:	89 c7                	mov    %eax,%edi
    bc3d:	e8 d4 a7 ff ff       	callq  6416 <safe_mod_func_int16_t_s_s>
    bc42:	98                   	cwtl   
    bc43:	21 d8                	and    %ebx,%eax
    bc45:	85 c0                	test   %eax,%eax
    bc47:	75 0a                	jne    bc53 <func_81+0x143c>
    bc49:	8b 85 0c f6 ff ff    	mov    -0x9f4(%rbp),%eax
    bc4f:	85 c0                	test   %eax,%eax
    bc51:	74 07                	je     bc5a <func_81+0x1443>
    bc53:	b8 01 00 00 00       	mov    $0x1,%eax
    bc58:	eb 05                	jmp    bc5f <func_81+0x1448>
    bc5a:	b8 00 00 00 00       	mov    $0x0,%eax
    bc5f:	48 98                	cltq   
    bc61:	48 be 71 2b 8c 2c b4 	movabs $0xe490a9b42c8c2b71,%rsi
    bc68:	a9 90 e4 
    bc6b:	48 89 c7             	mov    %rax,%rdi
    bc6e:	e8 d8 b3 ff ff       	callq  704b <safe_sub_func_uint64_t_u_u>
    bc73:	48 85 c0             	test   %rax,%rax
    bc76:	74 5e                	je     bcd6 <func_81+0x14bf>
    bc78:	48 c7 85 f0 f5 ff ff 	movq   $0x3,-0xa10(%rbp)
    bc7f:	03 00 00 00 
    bc83:	48 8b 85 60 f5 ff ff 	mov    -0xaa0(%rbp),%rax
    bc8a:	8b 00                	mov    (%rax),%eax
    bc8c:	89 c1                	mov    %eax,%ecx
    bc8e:	48 8b 05 3b d5 00 00 	mov    0xd53b(%rip),%rax        # 191d0 <g_883>
    bc95:	48 8b 00             	mov    (%rax),%rax
    bc98:	0f b7 00             	movzwl (%rax),%eax
    bc9b:	0f b7 c0             	movzwl %ax,%eax
    bc9e:	48 39 85 d8 f5 ff ff 	cmp    %rax,-0xa28(%rbp)
    bca5:	0f 9f c0             	setg   %al
    bca8:	0f b6 d0             	movzbl %al,%edx
    bcab:	0f bf 85 0e f4 ff ff 	movswl -0xbf2(%rbp),%eax
    bcb2:	09 d0                	or     %edx,%eax
    bcb4:	3d 99 00 00 00       	cmp    $0x99,%eax
    bcb9:	74 07                	je     bcc2 <func_81+0x14ab>
    bcbb:	b8 f8 ff ff ff       	mov    $0xfffffff8,%eax
    bcc0:	eb 05                	jmp    bcc7 <func_81+0x14b0>
    bcc2:	b8 f9 ff ff ff       	mov    $0xfffffff9,%eax
    bcc7:	31 c8                	xor    %ecx,%eax
    bcc9:	89 c2                	mov    %eax,%edx
    bccb:	48 8b 85 60 f5 ff ff 	mov    -0xaa0(%rbp),%rax
    bcd2:	89 10                	mov    %edx,(%rax)
    bcd4:	eb 28                	jmp    bcfe <func_81+0x14e7>
    bcd6:	48 8d 85 1c f4 ff ff 	lea    -0xbe4(%rbp),%rax
    bcdd:	48 89 85 e8 f5 ff ff 	mov    %rax,-0xa18(%rbp)
    bce4:	48 8b 05 c5 d9 00 00 	mov    0xd9c5(%rip),%rax        # 196b0 <g_1030+0x150>
    bceb:	48 89 05 be d9 00 00 	mov    %rax,0xd9be(%rip)        # 196b0 <g_1030+0x150>
    bcf2:	48 8b 05 67 da 00 00 	mov    0xda67(%rip),%rax        # 19760 <g_1034>
    bcf9:	e9 b0 00 00 00       	jmpq   bdae <func_81+0x1597>
    bcfe:	0f bf 95 0c f4 ff ff 	movswl -0xbf4(%rbp),%edx
    bd05:	48 8b 85 10 f5 ff ff 	mov    -0xaf0(%rbp),%rax
    bd0c:	89 10                	mov    %edx,(%rax)
    bd0e:	48 8b 85 f0 f3 ff ff 	mov    -0xc10(%rbp),%rax
    bd15:	8b 10                	mov    (%rax),%edx
    bd17:	48 8b 85 e8 f4 ff ff 	mov    -0xb18(%rbp),%rax
    bd1e:	89 10                	mov    %edx,(%rax)
    bd20:	83 85 28 f4 ff ff 01 	addl   $0x1,-0xbd8(%rbp)
    bd27:	83 bd 28 f4 ff ff 01 	cmpl   $0x1,-0xbd8(%rbp)
    bd2e:	0f 8e 87 fe ff ff    	jle    bbbb <func_81+0x13a4>
    bd34:	0f b7 85 08 f4 ff ff 	movzwl -0xbf8(%rbp),%eax
    bd3b:	83 c0 01             	add    $0x1,%eax
    bd3e:	66 89 85 08 f4 ff ff 	mov    %ax,-0xbf8(%rbp)
    bd45:	0f b7 85 08 f4 ff ff 	movzwl -0xbf8(%rbp),%eax
    bd4c:	66 83 f8 01          	cmp    $0x1,%ax
    bd50:	0f 86 54 fd ff ff    	jbe    baaa <func_81+0x1293>
    bd56:	48 8b 85 78 f5 ff ff 	mov    -0xa88(%rbp),%rax
    bd5d:	48 c7 00 00 00 00 00 	movq   $0x0,(%rax)
    bd64:	0f b7 05 a9 b6 00 00 	movzwl 0xb6a9(%rip),%eax        # 17414 <g_464>
    bd6b:	83 c0 01             	add    $0x1,%eax
    bd6e:	66 89 05 9f b6 00 00 	mov    %ax,0xb69f(%rip)        # 17414 <g_464>
    bd75:	0f b7 05 98 b6 00 00 	movzwl 0xb698(%rip),%eax        # 17414 <g_464>
    bd7c:	66 83 f8 01          	cmp    $0x1,%ax
    bd80:	0f 86 20 ef ff ff    	jbe    aca6 <func_81+0x48f>
    bd86:	8b 05 18 b5 00 00    	mov    0xb518(%rip),%eax        # 172a4 <g_275>
    bd8c:	83 e8 01             	sub    $0x1,%eax
    bd8f:	89 05 0f b5 00 00    	mov    %eax,0xb50f(%rip)        # 172a4 <g_275>
    bd95:	8b 05 09 b5 00 00    	mov    0xb509(%rip),%eax        # 172a4 <g_275>
    bd9b:	83 f8 e7             	cmp    $0xffffffe7,%eax
    bd9e:	0f 8d 99 ec ff ff    	jge    aa3d <func_81+0x226>
    bda4:	eb 01                	jmp    bda7 <func_81+0x1590>
    bda6:	90                   	nop
    bda7:	48 8b 85 f8 f3 ff ff 	mov    -0xc08(%rbp),%rax
    bdae:	48 8b 5d d8          	mov    -0x28(%rbp),%rbx
    bdb2:	64 48 33 1c 25 28 00 	xor    %fs:0x28,%rbx
    bdb9:	00 00 
    bdbb:	74 05                	je     bdc2 <func_81+0x15ab>
    bdbd:	e8 ae a2 ff ff       	callq  6070 <__stack_chk_fail@plt>
    bdc2:	48 81 c4 f8 0b 00 00 	add    $0xbf8,%rsp
    bdc9:	5b                   	pop    %rbx
    bdca:	41 5c                	pop    %r12
    bdcc:	41 5d                	pop    %r13
    bdce:	5d                   	pop    %rbp
    bdcf:	c3                   	retq   

000000000000bdd0 <func_84>:
    bdd0:	f3 0f 1e fa          	endbr64 
    bdd4:	55                   	push   %rbp
    bdd5:	48 89 e5             	mov    %rsp,%rbp
    bdd8:	41 56                	push   %r14
    bdda:	41 55                	push   %r13
    bddc:	41 54                	push   %r12
    bdde:	53                   	push   %rbx
    bddf:	48 81 ec 50 0a 00 00 	sub    $0xa50,%rsp
    bde6:	48 89 bd a8 f5 ff ff 	mov    %rdi,-0xa58(%rbp)
    bded:	48 89 b5 a0 f5 ff ff 	mov    %rsi,-0xa60(%rbp)
    bdf4:	48 89 95 98 f5 ff ff 	mov    %rdx,-0xa68(%rbp)
    bdfb:	64 48 8b 04 25 28 00 	mov    %fs:0x28,%rax
    be02:	00 00 
    be04:	48 89 45 d8          	mov    %rax,-0x28(%rbp)
    be08:	31 c0                	xor    %eax,%eax
    be0a:	48 c7 85 d8 f5 ff ff 	movq   $0x0,-0xa28(%rbp)
    be11:	00 00 00 00 
    be15:	c7 85 c4 f5 ff ff fd 	movl   $0xfffffffd,-0xa3c(%rbp)
    be1c:	ff ff ff 
    be1f:	48 8d 85 b0 f6 ff ff 	lea    -0x950(%rbp),%rax
    be26:	48 8d 15 f3 76 00 00 	lea    0x76f3(%rip),%rdx        # 13520 <g_1697+0x404>
    be2d:	b9 24 00 00 00       	mov    $0x24,%ecx
    be32:	48 89 c7             	mov    %rax,%rdi
    be35:	48 89 d6             	mov    %rdx,%rsi
    be38:	f3 48 a5             	rep movsq %ds:(%rsi),%es:(%rdi)
    be3b:	c7 85 c8 f5 ff ff 6c 	movl   $0xfc6e0b6c,-0xa38(%rbp)
    be42:	0b 6e fc 
    be45:	c6 85 bb f5 ff ff 01 	movb   $0x1,-0xa45(%rbp)
    be4c:	48 8d 05 c3 b5 00 00 	lea    0xb5c3(%rip),%rax        # 17416 <g_515>
    be53:	48 89 85 e0 f5 ff ff 	mov    %rax,-0xa20(%rbp)
    be5a:	48 8d 85 d0 f7 ff ff 	lea    -0x830(%rbp),%rax
    be61:	48 8d 15 38 c5 00 00 	lea    0xc538(%rip),%rdx        # 183a0 <g_1704+0x478>
    be68:	b9 00 01 00 00       	mov    $0x100,%ecx
    be6d:	48 89 c7             	mov    %rax,%rdi
    be70:	48 89 d6             	mov    %rdx,%rsi
    be73:	f3 48 a5             	rep movsq %ds:(%rsi),%es:(%rdi)
    be76:	c7 05 24 b4 00 00 03 	movl   $0x3,0xb424(%rip)        # 172a4 <g_275>
    be7d:	00 00 00 
    be80:	e9 6f 03 00 00       	jmpq   c1f4 <func_84+0x424>
    be85:	48 8d 05 18 b4 00 00 	lea    0xb418(%rip),%rax        # 172a4 <g_275>
    be8c:	48 89 85 00 f6 ff ff 	mov    %rax,-0xa00(%rbp)
    be93:	48 8d 05 0a b4 00 00 	lea    0xb40a(%rip),%rax        # 172a4 <g_275>
    be9a:	48 89 85 08 f6 ff ff 	mov    %rax,-0x9f8(%rbp)
    bea1:	48 8d 05 fc b3 00 00 	lea    0xb3fc(%rip),%rax        # 172a4 <g_275>
    bea8:	48 89 85 10 f6 ff ff 	mov    %rax,-0x9f0(%rbp)
    beaf:	48 8d 05 ee b3 00 00 	lea    0xb3ee(%rip),%rax        # 172a4 <g_275>
    beb6:	48 89 85 18 f6 ff ff 	mov    %rax,-0x9e8(%rbp)
    bebd:	48 8d 05 e0 b3 00 00 	lea    0xb3e0(%rip),%rax        # 172a4 <g_275>
    bec4:	48 89 85 20 f6 ff ff 	mov    %rax,-0x9e0(%rbp)
    becb:	48 8d 05 d2 b3 00 00 	lea    0xb3d2(%rip),%rax        # 172a4 <g_275>
    bed2:	48 89 85 28 f6 ff ff 	mov    %rax,-0x9d8(%rbp)
    bed9:	48 8d 05 c4 b3 00 00 	lea    0xb3c4(%rip),%rax        # 172a4 <g_275>
    bee0:	48 89 85 30 f6 ff ff 	mov    %rax,-0x9d0(%rbp)
    bee7:	48 8d 05 de b2 00 00 	lea    0xb2de(%rip),%rax        # 171cc <g_180>
    beee:	48 89 85 38 f6 ff ff 	mov    %rax,-0x9c8(%rbp)
    bef5:	48 8d 05 d0 b2 00 00 	lea    0xb2d0(%rip),%rax        # 171cc <g_180>
    befc:	48 89 85 40 f6 ff ff 	mov    %rax,-0x9c0(%rbp)
    bf03:	48 8d 05 c2 b2 00 00 	lea    0xb2c2(%rip),%rax        # 171cc <g_180>
    bf0a:	48 89 85 48 f6 ff ff 	mov    %rax,-0x9b8(%rbp)
    bf11:	48 8d 05 b4 b2 00 00 	lea    0xb2b4(%rip),%rax        # 171cc <g_180>
    bf18:	48 89 85 50 f6 ff ff 	mov    %rax,-0x9b0(%rbp)
    bf1f:	48 8d 05 a6 b2 00 00 	lea    0xb2a6(%rip),%rax        # 171cc <g_180>
    bf26:	48 89 85 58 f6 ff ff 	mov    %rax,-0x9a8(%rbp)
    bf2d:	48 8d 05 98 b2 00 00 	lea    0xb298(%rip),%rax        # 171cc <g_180>
    bf34:	48 89 85 60 f6 ff ff 	mov    %rax,-0x9a0(%rbp)
    bf3b:	48 8d 05 8a b2 00 00 	lea    0xb28a(%rip),%rax        # 171cc <g_180>
    bf42:	48 89 85 68 f6 ff ff 	mov    %rax,-0x998(%rbp)
    bf49:	48 8d 05 54 b3 00 00 	lea    0xb354(%rip),%rax        # 172a4 <g_275>
    bf50:	48 89 85 70 f6 ff ff 	mov    %rax,-0x990(%rbp)
    bf57:	48 8d 05 46 b3 00 00 	lea    0xb346(%rip),%rax        # 172a4 <g_275>
    bf5e:	48 89 85 78 f6 ff ff 	mov    %rax,-0x988(%rbp)
    bf65:	48 8d 05 38 b3 00 00 	lea    0xb338(%rip),%rax        # 172a4 <g_275>
    bf6c:	48 89 85 80 f6 ff ff 	mov    %rax,-0x980(%rbp)
    bf73:	48 8d 05 2a b3 00 00 	lea    0xb32a(%rip),%rax        # 172a4 <g_275>
    bf7a:	48 89 85 88 f6 ff ff 	mov    %rax,-0x978(%rbp)
    bf81:	48 8d 05 1c b3 00 00 	lea    0xb31c(%rip),%rax        # 172a4 <g_275>
    bf88:	48 89 85 90 f6 ff ff 	mov    %rax,-0x970(%rbp)
    bf8f:	48 8d 05 0e b3 00 00 	lea    0xb30e(%rip),%rax        # 172a4 <g_275>
    bf96:	48 89 85 98 f6 ff ff 	mov    %rax,-0x968(%rbp)
    bf9d:	48 8d 05 00 b3 00 00 	lea    0xb300(%rip),%rax        # 172a4 <g_275>
    bfa4:	48 89 85 a0 f6 ff ff 	mov    %rax,-0x960(%rbp)
    bfab:	c7 85 bc f5 ff ff 00 	movl   $0x0,-0xa44(%rbp)
    bfb2:	00 00 00 
    bfb5:	eb 42                	jmp    bff9 <func_84+0x229>
    bfb7:	c7 85 c0 f5 ff ff 00 	movl   $0x0,-0xa40(%rbp)
    bfbe:	00 00 00 
    bfc1:	eb 26                	jmp    bfe9 <func_84+0x219>
    bfc3:	8b 85 c0 f5 ff ff    	mov    -0xa40(%rbp),%eax
    bfc9:	48 63 d0             	movslq %eax,%rdx
    bfcc:	8b 85 bc f5 ff ff    	mov    -0xa44(%rbp),%eax
    bfd2:	48 98                	cltq   
    bfd4:	48 01 d0             	add    %rdx,%rax
    bfd7:	c7 84 85 f8 f5 ff ff 	movl   $0x8c062bf6,-0xa08(%rbp,%rax,4)
    bfde:	f6 2b 06 8c 
    bfe2:	83 85 c0 f5 ff ff 01 	addl   $0x1,-0xa40(%rbp)
    bfe9:	83 bd c0 f5 ff ff 00 	cmpl   $0x0,-0xa40(%rbp)
    bff0:	7e d1                	jle    bfc3 <func_84+0x1f3>
    bff2:	83 85 bc f5 ff ff 01 	addl   $0x1,-0xa44(%rbp)
    bff9:	83 bd bc f5 ff ff 01 	cmpl   $0x1,-0xa44(%rbp)
    c000:	7e b5                	jle    bfb7 <func_84+0x1e7>
    c002:	0f b6 85 bb f5 ff ff 	movzbl -0xa45(%rbp),%eax
    c009:	83 e8 01             	sub    $0x1,%eax
    c00c:	88 85 bb f5 ff ff    	mov    %al,-0xa45(%rbp)
    c012:	c6 05 c7 b1 00 00 00 	movb   $0x0,0xb1c7(%rip)        # 171e0 <g_195>
    c019:	e9 b8 01 00 00       	jmpq   c1d6 <func_84+0x406>
    c01e:	48 8d 85 bb f5 ff ff 	lea    -0xa45(%rbp),%rax
    c025:	48 89 85 e8 f5 ff ff 	mov    %rax,-0xa18(%rbp)
    c02c:	c7 85 cc f5 ff ff 0c 	movl   $0xd1cc9f0c,-0xa34(%rbp)
    c033:	9f cc d1 
    c036:	48 c7 85 d0 f5 ff ff 	movq   $0x0,-0xa30(%rbp)
    c03d:	00 00 00 00 
    c041:	48 8d 85 d0 f5 ff ff 	lea    -0xa30(%rbp),%rax
    c048:	48 89 85 f0 f5 ff ff 	mov    %rax,-0xa10(%rbp)
    c04f:	48 8b 85 e8 f5 ff ff 	mov    -0xa18(%rbp),%rax
    c056:	0f b6 00             	movzbl (%rax),%eax
    c059:	8d 48 ff             	lea    -0x1(%rax),%ecx
    c05c:	48 8b 95 e8 f5 ff ff 	mov    -0xa18(%rbp),%rdx
    c063:	88 0a                	mov    %cl,(%rdx)
    c065:	0f b6 d0             	movzbl %al,%edx
    c068:	8b 05 76 b1 00 00    	mov    0xb176(%rip),%eax        # 171e4 <g_220>
    c06e:	0f b6 c0             	movzbl %al,%eax
    c071:	89 d6                	mov    %edx,%esi
    c073:	89 c7                	mov    %eax,%edi
    c075:	e8 d2 ab ff ff       	callq  6c4c <safe_lshift_func_uint8_t_u_u>
    c07a:	0f b6 c0             	movzbl %al,%eax
    c07d:	be 03 00 00 00       	mov    $0x3,%esi
    c082:	89 c7                	mov    %eax,%edi
    c084:	e8 c3 ab ff ff       	callq  6c4c <safe_lshift_func_uint8_t_u_u>
    c089:	44 0f b6 e8          	movzbl %al,%r13d
    c08d:	8b 85 c4 f5 ff ff    	mov    -0xa3c(%rbp),%eax
    c093:	0f bf d8             	movswl %ax,%ebx
    c096:	48 8b 85 a0 f5 ff ff 	mov    -0xa60(%rbp),%rax
    c09d:	8b 00                	mov    (%rax),%eax
    c09f:	41 89 c6             	mov    %eax,%r14d
    c0a2:	8b 85 c8 f5 ff ff    	mov    -0xa38(%rbp),%eax
    c0a8:	44 0f be e0          	movsbl %al,%r12d
    c0ac:	8b 85 c8 f5 ff ff    	mov    -0xa38(%rbp),%eax
    c0b2:	0f b6 d0             	movzbl %al,%edx
    c0b5:	0f b7 05 5a b3 00 00 	movzwl 0xb35a(%rip),%eax        # 17416 <g_515>
    c0bc:	0f b6 c0             	movzbl %al,%eax
    c0bf:	89 d6                	mov    %edx,%esi
    c0c1:	89 c7                	mov    %eax,%edi
    c0c3:	e8 b0 aa ff ff       	callq  6b78 <safe_sub_func_uint8_t_u_u>
    c0c8:	44 89 e6             	mov    %r12d,%esi
    c0cb:	bf ea ff ff ff       	mov    $0xffffffea,%edi
    c0d0:	e8 3d a1 ff ff       	callq  6212 <safe_mul_func_int8_t_s_s>
    c0d5:	f7 d0                	not    %eax
    c0d7:	c0 e8 07             	shr    $0x7,%al
    c0da:	0f b6 c0             	movzbl %al,%eax
    c0dd:	39 85 cc f5 ff ff    	cmp    %eax,-0xa34(%rbp)
    c0e3:	0f 9f c0             	setg   %al
    c0e6:	0f b6 c0             	movzbl %al,%eax
    c0e9:	44 89 f6             	mov    %r14d,%esi
    c0ec:	89 c7                	mov    %eax,%edi
    c0ee:	e8 dd ad ff ff       	callq  6ed0 <safe_sub_func_uint32_t_u_u>
    c0f3:	3d 4d 95 1b 8e       	cmp    $0x8e1b954d,%eax
    c0f8:	48 8b 85 f0 f5 ff ff 	mov    -0xa10(%rbp),%rax
    c0ff:	48 c7 00 00 00 00 00 	movq   $0x0,(%rax)
    c106:	48 8b 85 f0 f5 ff ff 	mov    -0xa10(%rbp),%rax
    c10d:	48 8b 00             	mov    (%rax),%rax
    c110:	48 39 85 e0 f5 ff ff 	cmp    %rax,-0xa20(%rbp)
    c117:	0f 94 c0             	sete   %al
    c11a:	0f b6 d0             	movzbl %al,%edx
    c11d:	48 8d 05 1c b2 00 00 	lea    0xb21c(%rip),%rax        # 17340 <g_316+0x40>
    c124:	48 8b 00             	mov    (%rax),%rax
    c127:	48 39 c2             	cmp    %rax,%rdx
    c12a:	0f 92 c0             	setb   %al
    c12d:	0f b6 d0             	movzbl %al,%edx
    c130:	48 8b 05 f9 b2 00 00 	mov    0xb2f9(%rip),%rax        # 17430 <g_647>
    c137:	48 39 c2             	cmp    %rax,%rdx
    c13a:	0f 93 c0             	setae  %al
    c13d:	0f b6 c0             	movzbl %al,%eax
    c140:	8b 95 cc f5 ff ff    	mov    -0xa34(%rbp),%edx
    c146:	89 d6                	mov    %edx,%esi
    c148:	89 c7                	mov    %eax,%edi
    c14a:	e8 7d a5 ff ff       	callq  66cc <safe_mod_func_int32_t_s_s>
    c14f:	89 c2                	mov    %eax,%edx
    c151:	8b 85 c8 f5 ff ff    	mov    -0xa38(%rbp),%eax
    c157:	89 c6                	mov    %eax,%esi
    c159:	89 d7                	mov    %edx,%edi
    c15b:	e8 6c a5 ff ff       	callq  66cc <safe_mod_func_int32_t_s_s>
    c160:	44 0f b7 e0          	movzwl %ax,%r12d
    c164:	48 8b 85 d8 f5 ff ff 	mov    -0xa28(%rbp),%rax
    c16b:	0f be d0             	movsbl %al,%edx
    c16e:	48 8d 05 53 b0 00 00 	lea    0xb053(%rip),%rax        # 171c8 <g_143>
    c175:	0f b6 08             	movzbl (%rax),%ecx
    c178:	8b 85 cc f5 ff ff    	mov    -0xa34(%rbp),%eax
    c17e:	89 c6                	mov    %eax,%esi
    c180:	48 8d 05 41 b0 00 00 	lea    0xb041(%rip),%rax        # 171c8 <g_143>
    c187:	09 f1                	or     %esi,%ecx
    c189:	88 08                	mov    %cl,(%rax)
    c18b:	0f b6 00             	movzbl (%rax),%eax
    c18e:	0f be c0             	movsbl %al,%eax
    c191:	89 d6                	mov    %edx,%esi
    c193:	89 c7                	mov    %eax,%edi
    c195:	e8 97 a0 ff ff       	callq  6231 <safe_mod_func_int8_t_s_s>
    c19a:	66 98                	cbtw   
    c19c:	0f b7 c0             	movzwl %ax,%eax
    c19f:	44 89 e6             	mov    %r12d,%esi
    c1a2:	89 c7                	mov    %eax,%edi
    c1a4:	e8 94 ab ff ff       	callq  6d3d <safe_mul_func_uint16_t_u_u>
    c1a9:	98                   	cwtl   
    c1aa:	89 de                	mov    %ebx,%esi
    c1ac:	89 c7                	mov    %eax,%edi
    c1ae:	e8 42 a2 ff ff       	callq  63f5 <safe_mul_func_int16_t_s_s>
    c1b3:	98                   	cwtl   
    c1b4:	41 39 c5             	cmp    %eax,%r13d
    c1b7:	0f 9d c0             	setge  %al
    c1ba:	0f b6 d0             	movzbl %al,%edx
    c1bd:	48 8b 85 a0 f5 ff ff 	mov    -0xa60(%rbp),%rax
    c1c4:	89 10                	mov    %edx,(%rax)
    c1c6:	0f b6 05 13 b0 00 00 	movzbl 0xb013(%rip),%eax        # 171e0 <g_195>
    c1cd:	83 c0 01             	add    $0x1,%eax
    c1d0:	88 05 0a b0 00 00    	mov    %al,0xb00a(%rip)        # 171e0 <g_195>
    c1d6:	0f b6 05 03 b0 00 00 	movzbl 0xb003(%rip),%eax        # 171e0 <g_195>
    c1dd:	3c 03                	cmp    $0x3,%al
    c1df:	0f 86 39 fe ff ff    	jbe    c01e <func_84+0x24e>
    c1e5:	8b 05 b9 b0 00 00    	mov    0xb0b9(%rip),%eax        # 172a4 <g_275>
    c1eb:	83 e8 01             	sub    $0x1,%eax
    c1ee:	89 05 b0 b0 00 00    	mov    %eax,0xb0b0(%rip)        # 172a4 <g_275>
    c1f4:	8b 05 aa b0 00 00    	mov    0xb0aa(%rip),%eax        # 172a4 <g_275>
    c1fa:	85 c0                	test   %eax,%eax
    c1fc:	0f 89 83 fc ff ff    	jns    be85 <func_84+0xb5>
    c202:	48 8b 85 a0 f5 ff ff 	mov    -0xa60(%rbp),%rax
    c209:	48 8b 5d d8          	mov    -0x28(%rbp),%rbx
    c20d:	64 48 33 1c 25 28 00 	xor    %fs:0x28,%rbx
    c214:	00 00 
    c216:	74 05                	je     c21d <func_84+0x44d>
    c218:	e8 53 9e ff ff       	callq  6070 <__stack_chk_fail@plt>
    c21d:	48 81 c4 50 0a 00 00 	add    $0xa50,%rsp
    c224:	5b                   	pop    %rbx
    c225:	41 5c                	pop    %r12
    c227:	41 5d                	pop    %r13
    c229:	41 5e                	pop    %r14
    c22b:	5d                   	pop    %rbp
    c22c:	c3                   	retq   

000000000000c22d <func_88>:
    c22d:	f3 0f 1e fa          	endbr64 
    c231:	55                   	push   %rbp
    c232:	48 89 e5             	mov    %rsp,%rbp
    c235:	41 55                	push   %r13
    c237:	41 54                	push   %r12
    c239:	53                   	push   %rbx
    c23a:	48 81 ec 38 05 00 00 	sub    $0x538,%rsp
    c241:	48 89 bd b8 fa ff ff 	mov    %rdi,-0x548(%rbp)
    c248:	64 48 8b 04 25 28 00 	mov    %fs:0x28,%rax
    c24f:	00 00 
    c251:	48 89 45 d8          	mov    %rax,-0x28(%rbp)
    c255:	31 c0                	xor    %eax,%eax
    c257:	66 c7 85 50 fb ff ff 	movw   $0x1e9d,-0x4b0(%rbp)
    c25e:	9d 1e 
    c260:	66 c7 85 52 fb ff ff 	movw   $0xffff,-0x4ae(%rbp)
    c267:	ff ff 
    c269:	66 c7 85 54 fb ff ff 	movw   $0xffff,-0x4ac(%rbp)
    c270:	ff ff 
    c272:	66 c7 85 56 fb ff ff 	movw   $0x41d7,-0x4aa(%rbp)
    c279:	d7 41 
    c27b:	66 c7 85 58 fb ff ff 	movw   $0x30fa,-0x4a8(%rbp)
    c282:	fa 30 
    c284:	66 c7 85 5a fb ff ff 	movw   $0xfff9,-0x4a6(%rbp)
    c28b:	f9 ff 
    c28d:	66 c7 85 5c fb ff ff 	movw   $0x75a1,-0x4a4(%rbp)
    c294:	a1 75 
    c296:	66 c7 85 5e fb ff ff 	movw   $0x614c,-0x4a2(%rbp)
    c29d:	4c 61 
    c29f:	66 c7 85 60 fb ff ff 	movw   $0x0,-0x4a0(%rbp)
    c2a6:	00 00 
    c2a8:	66 c7 85 62 fb ff ff 	movw   $0xffff,-0x49e(%rbp)
    c2af:	ff ff 
    c2b1:	66 c7 85 64 fb ff ff 	movw   $0x7bdb,-0x49c(%rbp)
    c2b8:	db 7b 
    c2ba:	66 c7 85 66 fb ff ff 	movw   $0x212d,-0x49a(%rbp)
    c2c1:	2d 21 
    c2c3:	66 c7 85 68 fb ff ff 	movw   $0x40bb,-0x498(%rbp)
    c2ca:	bb 40 
    c2cc:	66 c7 85 6a fb ff ff 	movw   $0xff47,-0x496(%rbp)
    c2d3:	47 ff 
    c2d5:	66 c7 85 6c fb ff ff 	movw   $0x41d7,-0x494(%rbp)
    c2dc:	d7 41 
    c2de:	66 c7 85 6e fb ff ff 	movw   $0xfff9,-0x492(%rbp)
    c2e5:	f9 ff 
    c2e7:	66 c7 85 70 fb ff ff 	movw   $0xd9d1,-0x490(%rbp)
    c2ee:	d1 d9 
    c2f0:	66 c7 85 72 fb ff ff 	movw   $0x2cb3,-0x48e(%rbp)
    c2f7:	b3 2c 
    c2f9:	66 c7 85 74 fb ff ff 	movw   $0xfff8,-0x48c(%rbp)
    c300:	f8 ff 
    c302:	66 c7 85 76 fb ff ff 	movw   $0x614c,-0x48a(%rbp)
    c309:	4c 61 
    c30b:	66 c7 85 78 fb ff ff 	movw   $0x1a50,-0x488(%rbp)
    c312:	50 1a 
    c314:	66 c7 85 7a fb ff ff 	movw   $0x8,-0x486(%rbp)
    c31b:	08 00 
    c31d:	66 c7 85 7c fb ff ff 	movw   $0x3,-0x484(%rbp)
    c324:	03 00 
    c326:	66 c7 85 7e fb ff ff 	movw   $0xfffb,-0x482(%rbp)
    c32d:	fb ff 
    c32f:	66 c7 85 80 fb ff ff 	movw   $0x1e9d,-0x480(%rbp)
    c336:	9d 1e 
    c338:	66 c7 85 82 fb ff ff 	movw   $0x212d,-0x47e(%rbp)
    c33f:	2d 21 
    c341:	66 c7 85 84 fb ff ff 	movw   $0x212d,-0x47c(%rbp)
    c348:	2d 21 
    c34a:	66 c7 85 86 fb ff ff 	movw   $0xff47,-0x47a(%rbp)
    c351:	47 ff 
    c353:	66 c7 85 88 fb ff ff 	movw   $0xf1df,-0x478(%rbp)
    c35a:	df f1 
    c35c:	66 c7 85 8a fb ff ff 	movw   $0x1a50,-0x476(%rbp)
    c363:	50 1a 
    c365:	66 c7 85 8c fb ff ff 	movw   $0xed76,-0x474(%rbp)
    c36c:	76 ed 
    c36e:	66 c7 85 8e fb ff ff 	movw   $0x1a50,-0x472(%rbp)
    c375:	50 1a 
    c377:	66 c7 85 90 fb ff ff 	movw   $0xf1df,-0x470(%rbp)
    c37e:	df f1 
    c380:	66 c7 85 92 fb ff ff 	movw   $0xff47,-0x46e(%rbp)
    c387:	47 ff 
    c389:	66 c7 85 94 fb ff ff 	movw   $0xffff,-0x46c(%rbp)
    c390:	ff ff 
    c392:	66 c7 85 96 fb ff ff 	movw   $0x612c,-0x46a(%rbp)
    c399:	2c 61 
    c39b:	66 c7 85 98 fb ff ff 	movw   $0x2cb3,-0x468(%rbp)
    c3a2:	b3 2c 
    c3a4:	66 c7 85 9a fb ff ff 	movw   $0x1,-0x466(%rbp)
    c3ab:	01 00 
    c3ad:	66 c7 85 9c fb ff ff 	movw   $0x212d,-0x464(%rbp)
    c3b4:	2d 21 
    c3b6:	66 c7 85 9e fb ff ff 	movw   $0xffff,-0x462(%rbp)
    c3bd:	ff ff 
    c3bf:	66 c7 85 a0 fb ff ff 	movw   $0x40bb,-0x460(%rbp)
    c3c6:	bb 40 
    c3c8:	66 c7 85 a2 fb ff ff 	movw   $0x1a50,-0x45e(%rbp)
    c3cf:	50 1a 
    c3d1:	66 c7 85 a4 fb ff ff 	movw   $0xffff,-0x45c(%rbp)
    c3d8:	ff ff 
    c3da:	66 c7 85 a6 fb ff ff 	movw   $0x41d7,-0x45a(%rbp)
    c3e1:	d7 41 
    c3e3:	66 c7 85 a8 fb ff ff 	movw   $0x3180,-0x458(%rbp)
    c3ea:	80 31 
    c3ec:	66 c7 85 aa fb ff ff 	movw   $0x41d7,-0x456(%rbp)
    c3f3:	d7 41 
    c3f5:	66 c7 85 ac fb ff ff 	movw   $0xd9d1,-0x454(%rbp)
    c3fc:	d1 d9 
    c3fe:	66 c7 85 ae fb ff ff 	movw   $0xffff,-0x452(%rbp)
    c405:	ff ff 
    c407:	66 c7 85 b0 fb ff ff 	movw   $0x1,-0x450(%rbp)
    c40e:	01 00 
    c410:	66 c7 85 b2 fb ff ff 	movw   $0xfffe,-0x44e(%rbp)
    c417:	fe ff 
    c419:	66 c7 85 b4 fb ff ff 	movw   $0x30fa,-0x44c(%rbp)
    c420:	fa 30 
    c422:	66 c7 85 b6 fb ff ff 	movw   $0x8,-0x44a(%rbp)
    c429:	08 00 
    c42b:	66 c7 85 b8 fb ff ff 	movw   $0xffff,-0x448(%rbp)
    c432:	ff ff 
    c434:	66 c7 85 ba fb ff ff 	movw   $0xfff8,-0x446(%rbp)
    c43b:	f8 ff 
    c43d:	66 c7 85 bc fb ff ff 	movw   $0x611c,-0x444(%rbp)
    c444:	1c 61 
    c446:	66 c7 85 be fb ff ff 	movw   $0x9,-0x442(%rbp)
    c44d:	09 00 
    c44f:	66 c7 85 c0 fb ff ff 	movw   $0xfff8,-0x440(%rbp)
    c456:	f8 ff 
    c458:	66 c7 85 c2 fb ff ff 	movw   $0x0,-0x43e(%rbp)
    c45f:	00 00 
    c461:	66 c7 85 c4 fb ff ff 	movw   $0xfffc,-0x43c(%rbp)
    c468:	fc ff 
    c46a:	66 c7 85 c6 fb ff ff 	movw   $0xffff,-0x43a(%rbp)
    c471:	ff ff 
    c473:	66 c7 85 c8 fb ff ff 	movw   $0x1685,-0x438(%rbp)
    c47a:	85 16 
    c47c:	66 c7 85 ca fb ff ff 	movw   $0x212d,-0x436(%rbp)
    c483:	2d 21 
    c485:	66 c7 85 cc fb ff ff 	movw   $0xd9d1,-0x434(%rbp)
    c48c:	d1 d9 
    c48e:	66 c7 85 ce fb ff ff 	movw   $0xd9d1,-0x432(%rbp)
    c495:	d1 d9 
    c497:	66 c7 85 d0 fb ff ff 	movw   $0x1a50,-0x430(%rbp)
    c49e:	50 1a 
    c4a0:	66 c7 85 d2 fb ff ff 	movw   $0x611c,-0x42e(%rbp)
    c4a7:	1c 61 
    c4a9:	66 c7 85 d4 fb ff ff 	movw   $0x0,-0x42c(%rbp)
    c4b0:	00 00 
    c4b2:	66 c7 85 d6 fb ff ff 	movw   $0x0,-0x42a(%rbp)
    c4b9:	00 00 
    c4bb:	66 c7 85 d8 fb ff ff 	movw   $0x611c,-0x428(%rbp)
    c4c2:	1c 61 
    c4c4:	66 c7 85 da fb ff ff 	movw   $0x1a50,-0x426(%rbp)
    c4cb:	50 1a 
    c4cd:	66 c7 85 dc fb ff ff 	movw   $0xd9d1,-0x424(%rbp)
    c4d4:	d1 d9 
    c4d6:	66 c7 85 de fb ff ff 	movw   $0xffff,-0x422(%rbp)
    c4dd:	ff ff 
    c4df:	66 c7 85 e0 fb ff ff 	movw   $0x1,-0x420(%rbp)
    c4e6:	01 00 
    c4e8:	66 c7 85 e2 fb ff ff 	movw   $0xfff8,-0x41e(%rbp)
    c4ef:	f8 ff 
    c4f1:	66 c7 85 e4 fb ff ff 	movw   $0x0,-0x41c(%rbp)
    c4f8:	00 00 
    c4fa:	66 c7 85 e6 fb ff ff 	movw   $0x1,-0x41a(%rbp)
    c501:	01 00 
    c503:	66 c7 85 e8 fb ff ff 	movw   $0x1685,-0x418(%rbp)
    c50a:	85 16 
    c50c:	66 c7 85 ea fb ff ff 	movw   $0xffff,-0x416(%rbp)
    c513:	ff ff 
    c515:	66 c7 85 ec fb ff ff 	movw   $0x2cb3,-0x414(%rbp)
    c51c:	b3 2c 
    c51e:	66 c7 85 ee fb ff ff 	movw   $0x614c,-0x412(%rbp)
    c525:	4c 61 
    c527:	66 c7 85 f0 fb ff ff 	movw   $0x206,-0x410(%rbp)
    c52e:	06 02 
    c530:	48 8d 05 f9 ae 00 00 	lea    0xaef9(%rip),%rax        # 17430 <g_647>
    c537:	48 89 85 e8 fa ff ff 	mov    %rax,-0x518(%rbp)
    c53e:	48 8d 85 e8 fa ff ff 	lea    -0x518(%rbp),%rax
    c545:	48 89 85 00 fb ff ff 	mov    %rax,-0x500(%rbp)
    c54c:	c7 85 d0 fa ff ff 02 	movl   $0x2,-0x530(%rbp)
    c553:	00 00 00 
    c556:	c7 85 00 fc ff ff 51 	movl   $0x51010151,-0x400(%rbp)
    c55d:	01 01 51 
    c560:	c6 85 04 fc ff ff f7 	movb   $0xf7,-0x3fc(%rbp)
    c567:	c7 85 05 fc ff ff 92 	movl   $0xff5d1992,-0x3fb(%rbp)
    c56e:	19 5d ff 
    c571:	c6 85 09 fc ff ff 04 	movb   $0x4,-0x3f7(%rbp)
    c578:	c7 85 0a fc ff ff 94 	movl   $0x83ccb94,-0x3f6(%rbp)
    c57f:	cb 3c 08 
    c582:	c6 85 0e fc ff ff 20 	movb   $0x20,-0x3f2(%rbp)
    c589:	c7 85 0f fc ff ff 02 	movl   $0xff940202,-0x3f1(%rbp)
    c590:	02 94 ff 
    c593:	c6 85 13 fc ff ff 02 	movb   $0x2,-0x3ed(%rbp)
    c59a:	c7 85 14 fc ff ff fc 	movl   $0x510006fc,-0x3ec(%rbp)
    c5a1:	06 00 51 
    c5a4:	c6 85 18 fc ff ff 92 	movb   $0x92,-0x3e8(%rbp)
    c5ab:	c7 85 19 fc ff ff f2 	movl   $0x4ff1cf2,-0x3e7(%rbp)
    c5b2:	1c ff 04 
    c5b5:	c6 85 1d fc ff ff 20 	movb   $0x20,-0x3e3(%rbp)
    c5bc:	c7 85 1e fc ff ff 06 	movl   $0x4240406,-0x3e2(%rbp)
    c5c3:	04 24 04 
    c5c6:	c6 85 22 fc ff ff 6b 	movb   $0x6b,-0x3de(%rbp)
    c5cd:	c7 85 23 fc ff ff cb 	movl   $0x980217cb,-0x3dd(%rbp)
    c5d4:	17 02 98 
    c5d7:	c6 85 27 fc ff ff 37 	movb   $0x37,-0x3d9(%rbp)
    c5de:	c7 85 28 fc ff ff fd 	movl   $0x2c0817fd,-0x3d8(%rbp)
    c5e5:	17 08 2c 
    c5e8:	c6 85 2c fc ff ff 1c 	movb   $0x1c,-0x3d4(%rbp)
    c5ef:	c7 85 2d fc ff ff 02 	movl   $0x196b0402,-0x3d3(%rbp)
    c5f6:	04 6b 19 
    c5f9:	c6 85 31 fc ff ff fd 	movb   $0xfd,-0x3cf(%rbp)
    c600:	c7 85 32 fc ff ff ff 	movl   $0x1cb71cff,-0x3ce(%rbp)
    c607:	1c b7 1c 
    c60a:	c6 85 36 fc ff ff ff 	movb   $0xff,-0x3ca(%rbp)
    c611:	c7 85 37 fc ff ff 5d 	movl   $0x412015d,-0x3c9(%rbp)
    c618:	01 12 04 
    c61b:	c6 85 3b fc ff ff 08 	movb   $0x8,-0x3c5(%rbp)
    c622:	c7 85 3c fc ff ff fd 	movl   $0x8ee5dfd,-0x3c4(%rbp)
    c629:	5d ee 08 
    c62c:	c6 85 40 fc ff ff b9 	movb   $0xb9,-0x3c0(%rbp)
    c633:	c7 85 41 fc ff ff 2c 	movl   $0x136f72c,-0x3bf(%rbp)
    c63a:	f7 36 01 
    c63d:	c6 85 45 fc ff ff 08 	movb   $0x8,-0x3bb(%rbp)
    c644:	c7 85 46 fc ff ff b7 	movl   $0xee0708b7,-0x3ba(%rbp)
    c64b:	08 07 ee 
    c64e:	c6 85 4a fc ff ff f2 	movb   $0xf2,-0x3b6(%rbp)
    c655:	c7 85 4b fc ff ff 08 	movl   $0x94022a08,-0x3b5(%rbp)
    c65c:	2a 02 94 
    c65f:	c6 85 4f fc ff ff 01 	movb   $0x1,-0x3b1(%rbp)
    c666:	c7 85 50 fc ff ff 2c 	movl   $0x4b04f72c,-0x3b0(%rbp)
    c66d:	f7 04 4b 
    c670:	c6 85 54 fc ff ff ff 	movb   $0xff,-0x3ac(%rbp)
    c677:	c7 85 55 fc ff ff 01 	movl   $0x12a3c01,-0x3ab(%rbp)
    c67e:	3c 2a 01 
    c681:	c6 85 59 fc ff ff 01 	movb   $0x1,-0x3a7(%rbp)
    c688:	c7 85 5a fc ff ff 01 	movl   $0xf22ab701,-0x3a6(%rbp)
    c68f:	b7 2a f2 
    c692:	c6 85 5e fc ff ff ff 	movb   $0xff,-0x3a2(%rbp)
    c699:	c7 85 5f fc ff ff f2 	movl   $0x2c04f7f2,-0x3a1(%rbp)
    c6a0:	f7 04 2c 
    c6a3:	c6 85 63 fc ff ff 3c 	movb   $0x3c,-0x39d(%rbp)
    c6aa:	c7 85 64 fc ff ff 01 	movl   $0x2020101,-0x39c(%rbp)
    c6b1:	01 02 02 
    c6b4:	c6 85 68 fc ff ff 01 	movb   $0x1,-0x398(%rbp)
    c6bb:	c7 85 69 fc ff ff 24 	movl   $0xfd076f24,-0x397(%rbp)
    c6c2:	6f 07 fd 
    c6c5:	c6 85 6d fc ff ff 5d 	movb   $0x5d,-0x393(%rbp)
    c6cc:	c7 85 6e fc ff ff f7 	movl   $0x4b36fff7,-0x392(%rbp)
    c6d3:	ff 36 4b 
    c6d6:	c6 85 72 fc ff ff 3c 	movb   $0x3c,-0x38e(%rbp)
    c6dd:	c7 85 73 fc ff ff 6f 	movl   $0xffee4b6f,-0x38d(%rbp)
    c6e4:	4b ee ff 
    c6e7:	c6 85 77 fc ff ff 94 	movb   $0x94,-0x389(%rbp)
    c6ee:	c7 85 78 fc ff ff f7 	movl   $0x21207f7,-0x388(%rbp)
    c6f5:	07 12 02 
    c6f8:	c6 85 7c fc ff ff 00 	movb   $0x0,-0x384(%rbp)
    c6ff:	c7 85 7d fc ff ff 24 	movl   $0x1060424,-0x383(%rbp)
    c706:	04 06 01 
    c709:	c6 85 81 fc ff ff ff 	movb   $0xff,-0x37f(%rbp)
    c710:	c7 85 82 fc ff ff 01 	movl   $0xb7ff4b01,-0x37e(%rbp)
    c717:	4b ff b7 
    c71a:	c6 85 86 fc ff ff 24 	movb   $0x24,-0x37a(%rbp)
    c721:	c7 85 87 fc ff ff f2 	movl   $0xff2404f2,-0x379(%rbp)
    c728:	04 24 ff 
    c72b:	c6 85 8b fc ff ff 02 	movb   $0x2,-0x375(%rbp)
    c732:	c7 85 8c fc ff ff 01 	movl   $0xff370101,-0x374(%rbp)
    c739:	01 37 ff 
    c73c:	c6 85 90 fc ff ff 08 	movb   $0x8,-0x370(%rbp)
    c743:	c7 85 91 fc ff ff 01 	movl   $0xb7ee0101,-0x36f(%rbp)
    c74a:	01 ee b7 
    c74d:	c6 85 95 fc ff ff 6b 	movb   $0x6b,-0x36b(%rbp)
    c754:	c7 85 96 fc ff ff 2c 	movl   $0x1b7122c,-0x36a(%rbp)
    c75b:	12 b7 01 
    c75e:	c6 85 9a fc ff ff b7 	movb   $0xb7,-0x366(%rbp)
    c765:	c7 85 9b fc ff ff 08 	movl   $0x2f90808,-0x365(%rbp)
    c76c:	08 f9 02 
    c76f:	c6 85 9f fc ff ff f2 	movb   $0xf2,-0x361(%rbp)
    c776:	c7 85 a0 fc ff ff b7 	movl   $0xff023cb7,-0x360(%rbp)
    c77d:	3c 02 ff 
    c780:	c6 85 a4 fc ff ff 24 	movb   $0x24,-0x35c(%rbp)
    c787:	c7 85 a5 fc ff ff 2c 	movl   $0x4bb9012c,-0x35b(%rbp)
    c78e:	01 b9 4b 
    c791:	c6 85 a9 fc ff ff 04 	movb   $0x4,-0x357(%rbp)
    c798:	c7 85 aa fc ff ff fd 	movl   $0xfd423cfd,-0x356(%rbp)
    c79f:	3c 42 fd 
    c7a2:	c6 85 ae fc ff ff 01 	movb   $0x1,-0x352(%rbp)
    c7a9:	c7 85 af fc ff ff 5d 	movl   $0x22a085d,-0x351(%rbp)
    c7b0:	08 2a 02 
    c7b3:	c6 85 b3 fc ff ff 94 	movb   $0x94,-0x34d(%rbp)
    c7ba:	c7 85 b4 fc ff ff f2 	movl   $0x2cb912f2,-0x34c(%rbp)
    c7c1:	12 b9 2c 
    c7c4:	c6 85 b8 fc ff ff 2a 	movb   $0x2a,-0x348(%rbp)
    c7cb:	c7 85 b9 fc ff ff f7 	movl   $0xf2cb01f7,-0x347(%rbp)
    c7d2:	01 cb f2 
    c7d5:	c6 85 bd fc ff ff 01 	movb   $0x1,-0x343(%rbp)
    c7dc:	c7 85 be fc ff ff 01 	movl   $0x1070101,-0x342(%rbp)
    c7e3:	01 07 01 
    c7e6:	c6 85 c2 fc ff ff 01 	movb   $0x1,-0x33e(%rbp)
    c7ed:	c7 85 c3 fc ff ff f7 	movl   $0x4bb704f7,-0x33d(%rbp)
    c7f4:	04 b7 4b 
    c7f7:	c6 85 c7 fc ff ff 2a 	movb   $0x2a,-0x339(%rbp)
    c7fe:	c7 85 c8 fc ff ff 01 	movl   $0x94924b01,-0x338(%rbp)
    c805:	4b 92 94 
    c808:	c6 85 cc fc ff ff 94 	movb   $0x94,-0x334(%rbp)
    c80f:	c7 85 cd fc ff ff 12 	movl   $0xee120412,-0x333(%rbp)
    c816:	04 12 ee 
    c819:	c6 85 d1 fc ff ff 01 	movb   $0x1,-0x32f(%rbp)
    c820:	c7 85 d2 fc ff ff 24 	movl   $0x1240724,-0x32e(%rbp)
    c827:	07 24 01 
    c82a:	c6 85 d6 fc ff ff 04 	movb   $0x4,-0x32a(%rbp)
    c831:	c7 85 d7 fc ff ff f7 	movl   $0x8ff4bf7,-0x329(%rbp)
    c838:	4b ff 08 
    c83b:	c6 85 db fc ff ff 24 	movb   $0x24,-0x325(%rbp)
    c842:	c7 85 dc fc ff ff 02 	movl   $0x424ff02,-0x324(%rbp)
    c849:	ff 24 04 
    c84c:	c6 85 e0 fc ff ff f2 	movb   $0xf2,-0x320(%rbp)
    c853:	c7 85 e1 fc ff ff 01 	movl   $0xff126f01,-0x31f(%rbp)
    c85a:	6f 12 ff 
    c85d:	c6 85 e5 fc ff ff b7 	movb   $0xb7,-0x31b(%rbp)
    c864:	c7 85 e6 fc ff ff fd 	movl   $0x89201fd,-0x31a(%rbp)
    c86b:	01 92 08 
    c86e:	c6 85 ea fc ff ff 6b 	movb   $0x6b,-0x316(%rbp)
    c875:	c7 85 eb fc ff ff 24 	movl   $0x6fb7f724,-0x315(%rbp)
    c87c:	f7 b7 6f 
    c87f:	c6 85 ef fc ff ff 08 	movb   $0x8,-0x311(%rbp)
    c886:	c6 85 cf fa ff ff f7 	movb   $0xf7,-0x531(%rbp)
    c88d:	48 8d 05 9c ab 00 00 	lea    0xab9c(%rip),%rax        # 17430 <g_647>
    c894:	48 89 85 08 fb ff ff 	mov    %rax,-0x4f8(%rbp)
    c89b:	c7 85 dc fa ff ff 01 	movl   $0x1,-0x524(%rbp)
    c8a2:	00 00 00 
    c8a5:	48 8d 05 e4 c8 00 00 	lea    0xc8e4(%rip),%rax        # 19190 <g_811+0x10>
    c8ac:	48 89 85 10 fb ff ff 	mov    %rax,-0x4f0(%rbp)
    c8b3:	c7 85 d4 fa ff ff 00 	movl   $0x0,-0x52c(%rbp)
    c8ba:	00 00 00 
    c8bd:	eb 14                	jmp    c8d3 <func_88+0x6a6>
    c8bf:	8b 85 d4 fa ff ff    	mov    -0x52c(%rbp),%eax
    c8c5:	48 98                	cltq   
    c8c7:	c6 44 05 d1 38       	movb   $0x38,-0x2f(%rbp,%rax,1)
    c8cc:	83 85 d4 fa ff ff 01 	addl   $0x1,-0x52c(%rbp)
    c8d3:	83 bd d4 fa ff ff 06 	cmpl   $0x6,-0x52c(%rbp)
    c8da:	7e e3                	jle    c8bf <func_88+0x692>
    c8dc:	48 c7 05 59 a7 00 00 	movq   $0x0,0xa759(%rip)        # 17040 <g_71>
    c8e3:	00 00 00 00 
    c8e7:	e9 62 02 00 00       	jmpq   cb4e <func_88+0x921>
    c8ec:	c7 85 d8 fa ff ff 07 	movl   $0x7,-0x528(%rbp)
    c8f3:	00 00 00 
    c8f6:	48 8d 85 f0 fc ff ff 	lea    -0x310(%rbp),%rax
    c8fd:	48 8d 15 3c 6d 00 00 	lea    0x6d3c(%rip),%rdx        # 13640 <g_1697+0x524>
    c904:	b9 2d 00 00 00       	mov    $0x2d,%ecx
    c909:	48 89 c7             	mov    %rax,%rdi
    c90c:	48 89 d6             	mov    %rdx,%rsi
    c90f:	f3 48 a5             	rep movsq %ds:(%rsi),%es:(%rdi)
    c912:	48 8d 05 fd aa 00 00 	lea    0xaafd(%rip),%rax        # 17416 <g_515>
    c919:	48 89 85 18 fb ff ff 	mov    %rax,-0x4e8(%rbp)
    c920:	48 c7 85 f0 fa ff ff 	movq   $0x0,-0x510(%rbp)
    c927:	00 00 00 00 
    c92b:	48 8d 85 f0 fa ff ff 	lea    -0x510(%rbp),%rax
    c932:	48 89 85 20 fb ff ff 	mov    %rax,-0x4e0(%rbp)
    c939:	c7 85 e0 fa ff ff 99 	movl   $0x8546e599,-0x520(%rbp)
    c940:	e5 46 85 
    c943:	48 c7 85 f8 fa ff ff 	movq   $0x0,-0x508(%rbp)
    c94a:	00 00 00 00 
    c94e:	48 8d 85 f8 fa ff ff 	lea    -0x508(%rbp),%rax
    c955:	48 89 85 28 fb ff ff 	mov    %rax,-0x4d8(%rbp)
    c95c:	48 8d 05 dd c5 00 00 	lea    0xc5dd(%rip),%rax        # 18f40 <g_596>
    c963:	48 89 85 30 fb ff ff 	mov    %rax,-0x4d0(%rbp)
    c96a:	c7 85 e4 fa ff ff fc 	movl   $0xfffffffc,-0x51c(%rbp)
    c971:	ff ff ff 
    c974:	48 c7 85 38 fb ff ff 	movq   $0x0,-0x4c8(%rbp)
    c97b:	00 00 00 00 
    c97f:	c7 05 43 a8 00 00 00 	movl   $0x0,0xa843(%rip)        # 171cc <g_180>
    c986:	00 00 00 
    c989:	e9 9c 01 00 00       	jmpq   cb2a <func_88+0x8fd>
    c98e:	48 c7 85 40 fb ff ff 	movq   $0x0,-0x4c0(%rbp)
    c995:	00 00 00 00 
    c999:	48 8d 05 44 a8 00 00 	lea    0xa844(%rip),%rax        # 171e4 <g_220>
    c9a0:	48 89 85 48 fb ff ff 	mov    %rax,-0x4b8(%rbp)
    c9a7:	48 8d 85 60 fe ff ff 	lea    -0x1a0(%rbp),%rax
    c9ae:	48 8d 15 eb c1 00 00 	lea    0xc1eb(%rip),%rdx        # 18ba0 <g_1704+0xc78>
    c9b5:	b9 2d 00 00 00       	mov    $0x2d,%ecx
    c9ba:	48 89 c7             	mov    %rax,%rdi
    c9bd:	48 89 d6             	mov    %rdx,%rsi
    c9c0:	f3 48 a5             	rep movsq %ds:(%rsi),%es:(%rdi)
    c9c3:	8b 05 03 a8 00 00    	mov    0xa803(%rip),%eax        # 171cc <g_180>
    c9c9:	8b 15 fd a7 00 00    	mov    0xa7fd(%rip),%edx        # 171cc <g_180>
    c9cf:	48 63 ca             	movslq %edx,%rcx
    c9d2:	48 63 d0             	movslq %eax,%rdx
    c9d5:	48 89 d0             	mov    %rdx,%rax
    c9d8:	48 c1 e0 03          	shl    $0x3,%rax
    c9dc:	48 01 d0             	add    %rdx,%rax
    c9df:	48 01 c8             	add    %rcx,%rax
    c9e2:	48 8d 14 c5 00 00 00 	lea    0x0(,%rax,8),%rdx
    c9e9:	00 
    c9ea:	48 8d 05 6f a6 00 00 	lea    0xa66f(%rip),%rax        # 17060 <g_140>
    c9f1:	48 8b 04 02          	mov    (%rdx,%rax,1),%rax
    c9f5:	48 85 c0             	test   %rax,%rax
    c9f8:	0f 85 3d 01 00 00    	jne    cb3b <func_88+0x90e>
    c9fe:	48 8b 85 48 fb ff ff 	mov    -0x4b8(%rbp),%rax
    ca05:	8b 00                	mov    (%rax),%eax
    ca07:	25 b8 eb 28 59       	and    $0x5928ebb8,%eax
    ca0c:	89 c2                	mov    %eax,%edx
    ca0e:	48 8b 85 48 fb ff ff 	mov    -0x4b8(%rbp),%rax
    ca15:	89 10                	mov    %edx,(%rax)
    ca17:	48 8b 85 c8 fe ff ff 	mov    -0x138(%rbp),%rax
    ca1e:	48 8d 15 cb a8 00 00 	lea    0xa8cb(%rip),%rdx        # 172f0 <g_282>
    ca25:	48 39 d0             	cmp    %rdx,%rax
    ca28:	0f 95 c0             	setne  %al
    ca2b:	0f b6 d0             	movzbl %al,%edx
    ca2e:	48 8b 85 48 fb ff ff 	mov    -0x4b8(%rbp),%rax
    ca35:	89 10                	mov    %edx,(%rax)
    ca37:	0f b7 85 f0 fb ff ff 	movzwl -0x410(%rbp),%eax
    ca3e:	0f b7 d8             	movzwl %ax,%ebx
    ca41:	8b 05 85 a7 00 00    	mov    0xa785(%rip),%eax        # 171cc <g_180>
    ca47:	8b 15 7f a7 00 00    	mov    0xa77f(%rip),%edx        # 171cc <g_180>
    ca4d:	83 c2 04             	add    $0x4,%edx
    ca50:	48 63 ca             	movslq %edx,%rcx
    ca53:	48 63 d0             	movslq %eax,%rdx
    ca56:	48 89 d0             	mov    %rdx,%rax
    ca59:	48 c1 e0 03          	shl    $0x3,%rax
    ca5d:	48 01 d0             	add    %rdx,%rax
    ca60:	48 01 c8             	add    %rcx,%rax
    ca63:	48 8d 14 c5 00 00 00 	lea    0x0(,%rax,8),%rdx
    ca6a:	00 
    ca6b:	48 8d 05 ee a5 00 00 	lea    0xa5ee(%rip),%rax        # 17060 <g_140>
    ca72:	48 8b 04 02          	mov    (%rdx,%rax,1),%rax
    ca76:	48 85 c0             	test   %rax,%rax
    ca79:	0f 84 81 00 00 00    	je     cb00 <func_88+0x8d3>
    ca7f:	48 8b 85 48 fb ff ff 	mov    -0x4b8(%rbp),%rax
    ca86:	44 8b 28             	mov    (%rax),%r13d
    ca89:	8b 85 d8 fa ff ff    	mov    -0x528(%rbp),%eax
    ca8f:	0f bf d0             	movswl %ax,%edx
    ca92:	48 8b 85 48 fb ff ff 	mov    -0x4b8(%rbp),%rax
    ca99:	8b 00                	mov    (%rax),%eax
    ca9b:	83 f8 08             	cmp    $0x8,%eax
    ca9e:	0f 97 c0             	seta   %al
    caa1:	0f b6 c0             	movzbl %al,%eax
    caa4:	89 d6                	mov    %edx,%esi
    caa6:	89 c7                	mov    %eax,%edi
    caa8:	e8 48 99 ff ff       	callq  63f5 <safe_mul_func_int16_t_s_s>
    caad:	0f bf d0             	movswl %ax,%edx
    cab0:	0f b7 85 b2 fb ff ff 	movzwl -0x44e(%rbp),%eax
    cab7:	0f be c0             	movsbl %al,%eax
    caba:	89 d6                	mov    %edx,%esi
    cabc:	89 c7                	mov    %eax,%edi
    cabe:	e8 2b 98 ff ff       	callq  62ee <safe_lshift_func_int8_t_s_u>
    cac3:	44 0f be e0          	movsbl %al,%r12d
    cac7:	0f b7 85 e8 fb ff ff 	movzwl -0x418(%rbp),%eax
    cace:	0f b6 d0             	movzbl %al,%edx
    cad1:	48 8b 05 a8 a5 00 00 	mov    0xa5a8(%rip),%rax        # 17080 <g_140+0x20>
    cad8:	0f b6 c0             	movzbl %al,%eax
    cadb:	89 d6                	mov    %edx,%esi
    cadd:	89 c7                	mov    %eax,%edi
    cadf:	e8 f7 a0 ff ff       	callq  6bdb <safe_div_func_uint8_t_u_u>
    cae4:	0f be c0             	movsbl %al,%eax
    cae7:	44 89 e6             	mov    %r12d,%esi
    caea:	89 c7                	mov    %eax,%edi
    caec:	e8 b0 97 ff ff       	callq  62a1 <safe_lshift_func_int8_t_s_s>
    caf1:	0f be c0             	movsbl %al,%eax
    caf4:	41 39 c5             	cmp    %eax,%r13d
    caf7:	75 07                	jne    cb00 <func_88+0x8d3>
    caf9:	b8 01 00 00 00       	mov    $0x1,%eax
    cafe:	eb 05                	jmp    cb05 <func_88+0x8d8>
    cb00:	b8 00 00 00 00       	mov    $0x0,%eax
    cb05:	0f b6 c0             	movzbl %al,%eax
    cb08:	89 de                	mov    %ebx,%esi
    cb0a:	89 c7                	mov    %eax,%edi
    cb0c:	e8 7c a1 ff ff       	callq  6c8d <safe_rshift_func_uint8_t_u_s>
    cb11:	c7 85 d8 fa ff ff 19 	movl   $0xcee97a19,-0x528(%rbp)
    cb18:	7a e9 ce 
    cb1b:	8b 05 ab a6 00 00    	mov    0xa6ab(%rip),%eax        # 171cc <g_180>
    cb21:	83 c0 01             	add    $0x1,%eax
    cb24:	89 05 a2 a6 00 00    	mov    %eax,0xa6a2(%rip)        # 171cc <g_180>
    cb2a:	8b 05 9c a6 00 00    	mov    0xa69c(%rip),%eax        # 171cc <g_180>
    cb30:	83 f8 04             	cmp    $0x4,%eax
    cb33:	0f 8e 55 fe ff ff    	jle    c98e <func_88+0x761>
    cb39:	eb 01                	jmp    cb3c <func_88+0x90f>
    cb3b:	90                   	nop
    cb3c:	48 8b 05 fd a4 00 00 	mov    0xa4fd(%rip),%rax        # 17040 <g_71>
    cb43:	48 83 c0 01          	add    $0x1,%rax
    cb47:	48 89 05 f2 a4 00 00 	mov    %rax,0xa4f2(%rip)        # 17040 <g_71>
    cb4e:	48 8b 05 eb a4 00 00 	mov    0xa4eb(%rip),%rax        # 17040 <g_71>
    cb55:	48 83 f8 04          	cmp    $0x4,%rax
    cb59:	0f 8f 8d fd ff ff    	jg     c8ec <func_88+0x6bf>
    cb5f:	48 8b 85 b8 fa ff ff 	mov    -0x548(%rbp),%rax
    cb66:	8b 10                	mov    (%rax),%edx
    cb68:	48 8b 85 b8 fa ff ff 	mov    -0x548(%rbp),%rax
    cb6f:	89 10                	mov    %edx,(%rax)
    cb71:	0f b6 45 d5          	movzbl -0x2b(%rbp),%eax
    cb75:	0f b6 d8             	movzbl %al,%ebx
    cb78:	0f b6 05 61 a6 00 00 	movzbl 0xa661(%rip),%eax        # 171e0 <g_195>
    cb7f:	0f b6 c0             	movzbl %al,%eax
    cb82:	be 03 00 00 00       	mov    $0x3,%esi
    cb87:	89 c7                	mov    %eax,%edi
    cb89:	e8 30 a1 ff ff       	callq  6cbe <safe_rshift_func_uint8_t_u_u>
    cb8e:	0f b6 45 d5          	movzbl -0x2b(%rbp),%eax
    cb92:	44 0f be e0          	movsbl %al,%r12d
    cb96:	0f b6 05 43 a6 00 00 	movzbl 0xa643(%rip),%eax        # 171e0 <g_195>
    cb9d:	83 e8 01             	sub    $0x1,%eax
    cba0:	88 05 3a a6 00 00    	mov    %al,0xa63a(%rip)        # 171e0 <g_195>
    cba6:	0f b6 05 33 a6 00 00 	movzbl 0xa633(%rip),%eax        # 171e0 <g_195>
    cbad:	0f b6 c0             	movzbl %al,%eax
    cbb0:	be 06 00 00 00       	mov    $0x6,%esi
    cbb5:	89 c7                	mov    %eax,%edi
    cbb7:	e8 d1 a0 ff ff       	callq  6c8d <safe_rshift_func_uint8_t_u_s>
    cbbc:	84 c0                	test   %al,%al
    cbbe:	0f 85 d9 00 00 00    	jne    cc9d <func_88+0xa70>
    cbc4:	83 bd dc fa ff ff 00 	cmpl   $0x0,-0x524(%rbp)
    cbcb:	0f 84 a7 00 00 00    	je     cc78 <func_88+0xa4b>
    cbd1:	48 8b 85 b8 fa ff ff 	mov    -0x548(%rbp),%rax
    cbd8:	8b 00                	mov    (%rax),%eax
    cbda:	85 c0                	test   %eax,%eax
    cbdc:	75 49                	jne    cc27 <func_88+0x9fa>
    cbde:	48 8b 15 ab c5 00 00 	mov    0xc5ab(%rip),%rdx        # 19190 <g_811+0x10>
    cbe5:	48 8b 85 10 fb ff ff 	mov    -0x4f0(%rbp),%rax
    cbec:	48 89 10             	mov    %rdx,(%rax)
    cbef:	48 8b 85 10 fb ff ff 	mov    -0x4f0(%rbp),%rax
    cbf6:	48 8b 00             	mov    (%rax),%rax
    cbf9:	48 8d 15 00 c3 00 00 	lea    0xc300(%rip),%rdx        # 18f00 <g_332>
    cc00:	48 39 d0             	cmp    %rdx,%rax
    cc03:	0f 94 c0             	sete   %al
    cc06:	89 c2                	mov    %eax,%edx
    cc08:	48 b8 64 01 35 23 d2 	movabs $0x909d06d223350164,%rax
    cc0f:	06 9d 90 
    cc12:	21 d0                	and    %edx,%eax
    cc14:	0f b6 c0             	movzbl %al,%eax
    cc17:	be 03 00 00 00       	mov    $0x3,%esi
    cc1c:	89 c7                	mov    %eax,%edi
    cc1e:	e8 37 9f ff ff       	callq  6b5a <safe_add_func_uint8_t_u_u>
    cc23:	84 c0                	test   %al,%al
    cc25:	74 07                	je     cc2e <func_88+0xa01>
    cc27:	b8 01 00 00 00       	mov    $0x1,%eax
    cc2c:	eb 05                	jmp    cc33 <func_88+0xa06>
    cc2e:	b8 00 00 00 00       	mov    $0x0,%eax
    cc33:	ba 2c 34 00 00       	mov    $0x342c,%edx
    cc38:	21 c2                	and    %eax,%edx
    cc3a:	0f b7 85 e8 fb ff ff 	movzwl -0x418(%rbp),%eax
    cc41:	0f b7 c0             	movzwl %ax,%eax
    cc44:	39 c2                	cmp    %eax,%edx
    cc46:	0f 9f c0             	setg   %al
    cc49:	0f b6 d0             	movzbl %al,%edx
    cc4c:	0f b7 85 e8 fb ff ff 	movzwl -0x418(%rbp),%eax
    cc53:	0f b6 c0             	movzbl %al,%eax
    cc56:	89 d6                	mov    %edx,%esi
    cc58:	89 c7                	mov    %eax,%edi
    cc5a:	e8 a6 9f ff ff       	callq  6c05 <safe_lshift_func_uint8_t_u_s>
    cc5f:	0f b6 c0             	movzbl %al,%eax
    cc62:	89 85 d0 fa ff ff    	mov    %eax,-0x530(%rbp)
    cc68:	83 bd d0 fa ff ff 00 	cmpl   $0x0,-0x530(%rbp)
    cc6f:	74 07                	je     cc78 <func_88+0xa4b>
    cc71:	ba 01 00 00 00       	mov    $0x1,%edx
    cc76:	eb 05                	jmp    cc7d <func_88+0xa50>
    cc78:	ba 00 00 00 00       	mov    $0x0,%edx
    cc7d:	0f b6 85 b8 fc ff ff 	movzbl -0x348(%rbp),%eax
    cc84:	0f b6 c0             	movzbl %al,%eax
    cc87:	21 d0                	and    %edx,%eax
    cc89:	48 98                	cltq   
    cc8b:	be 08 00 00 00       	mov    $0x8,%esi
    cc90:	48 89 c7             	mov    %rax,%rdi
    cc93:	e8 1c 9d ff ff       	callq  69b4 <safe_mod_func_int64_t_s_s>
    cc98:	48 85 c0             	test   %rax,%rax
    cc9b:	74 07                	je     cca4 <func_88+0xa77>
    cc9d:	b8 01 00 00 00       	mov    $0x1,%eax
    cca2:	eb 05                	jmp    cca9 <func_88+0xa7c>
    cca4:	b8 00 00 00 00       	mov    $0x0,%eax
    cca9:	98                   	cwtl   
    ccaa:	be ae 5d 00 00       	mov    $0x5dae,%esi
    ccaf:	89 c7                	mov    %eax,%edi
    ccb1:	e8 1d 97 ff ff       	callq  63d3 <safe_sub_func_int16_t_s_s>
    ccb6:	98                   	cwtl   
    ccb7:	44 89 e6             	mov    %r12d,%esi
    ccba:	89 c7                	mov    %eax,%edi
    ccbc:	e8 f2 96 ff ff       	callq  63b3 <safe_add_func_int16_t_s_s>
    ccc1:	0f b6 45 d3          	movzbl -0x2d(%rbp),%eax
    ccc5:	84 c0                	test   %al,%al
    ccc7:	74 0f                	je     ccd8 <func_88+0xaab>
    ccc9:	0f b6 45 d5          	movzbl -0x2b(%rbp),%eax
    cccd:	84 c0                	test   %al,%al
    cccf:	74 07                	je     ccd8 <func_88+0xaab>
    ccd1:	b8 01 00 00 00       	mov    $0x1,%eax
    ccd6:	eb 05                	jmp    ccdd <func_88+0xab0>
    ccd8:	b8 00 00 00 00       	mov    $0x0,%eax
    ccdd:	0f b6 c0             	movzbl %al,%eax
    cce0:	89 de                	mov    %ebx,%esi
    cce2:	89 c7                	mov    %eax,%edi
    cce4:	e8 aa 9e ff ff       	callq  6b93 <safe_mul_func_uint8_t_u_u>
    cce9:	0f b6 85 84 fc ff ff 	movzbl -0x37c(%rbp),%eax
    ccf0:	0f b6 d8             	movzbl %al,%ebx
    ccf3:	0f b6 95 cf fa ff ff 	movzbl -0x531(%rbp),%edx
    ccfa:	0f b7 85 e8 fb ff ff 	movzwl -0x418(%rbp),%eax
    cd01:	0f b7 c0             	movzwl %ax,%eax
    cd04:	89 d6                	mov    %edx,%esi
    cd06:	89 c7                	mov    %eax,%edi
    cd08:	e8 4f a0 ff ff       	callq  6d5c <safe_mod_func_uint16_t_u_u>
    cd0d:	0f b7 c0             	movzwl %ax,%eax
    cd10:	89 de                	mov    %ebx,%esi
    cd12:	89 c7                	mov    %eax,%edi
    cd14:	e8 e6 9f ff ff       	callq  6cff <safe_add_func_uint16_t_u_u>
    cd19:	89 c2                	mov    %eax,%edx
    cd1b:	48 8d 05 a6 a4 00 00 	lea    0xa4a6(%rip),%rax        # 171c8 <g_143>
    cd22:	88 10                	mov    %dl,(%rax)
    cd24:	0f b6 00             	movzbl (%rax),%eax
    cd27:	0f be d0             	movsbl %al,%edx
    cd2a:	0f b6 05 0b a7 00 00 	movzbl 0xa70b(%rip),%eax        # 1743c <g_654+0x4>
    cd31:	c0 e8 05             	shr    $0x5,%al
    cd34:	0f b6 c0             	movzbl %al,%eax
    cd37:	0f b6 0d ff a6 00 00 	movzbl 0xa6ff(%rip),%ecx        # 1743d <g_654+0x5>
    cd3e:	48 c1 e1 03          	shl    $0x3,%rcx
    cd42:	48 09 c8             	or     %rcx,%rax
    cd45:	0f b7 c0             	movzwl %ax,%eax
    cd48:	09 d0                	or     %edx,%eax
    cd4a:	48 98                	cltq   
    cd4c:	48 be 55 20 57 90 c4 	movabs $0x792e91c490572055,%rsi
    cd53:	91 2e 79 
    cd56:	48 89 c7             	mov    %rax,%rdi
    cd59:	e8 e3 9a ff ff       	callq  6841 <safe_add_func_int64_t_s_s>
    cd5e:	8b 05 94 a5 00 00    	mov    0xa594(%rip),%eax        # 172f8 <g_313>
    cd64:	83 f8 01             	cmp    $0x1,%eax
    cd67:	74 10                	je     cd79 <func_88+0xb4c>
    cd69:	83 bd d0 fa ff ff 00 	cmpl   $0x0,-0x530(%rbp)
    cd70:	74 07                	je     cd79 <func_88+0xb4c>
    cd72:	b8 01 00 00 00       	mov    $0x1,%eax
    cd77:	eb 05                	jmp    cd7e <func_88+0xb51>
    cd79:	b8 00 00 00 00       	mov    $0x0,%eax
    cd7e:	48 98                	cltq   
    cd80:	48 89 c6             	mov    %rax,%rsi
    cd83:	bf 00 00 00 00       	mov    $0x0,%edi
    cd88:	e8 a1 a2 ff ff       	callq  702e <safe_add_func_uint64_t_u_u>
    cd8d:	48 89 c2             	mov    %rax,%rdx
    cd90:	48 8b 05 71 a6 00 00 	mov    0xa671(%rip),%rax        # 17408 <g_397+0x8>
    cd97:	48 c1 e0 1e          	shl    $0x1e,%rax
    cd9b:	48 c1 f8 39          	sar    $0x39,%rax
    cd9f:	89 c1                	mov    %eax,%ecx
    cda1:	89 d0                	mov    %edx,%eax
    cda3:	31 c8                	xor    %ecx,%eax
    cda5:	01 c0                	add    %eax,%eax
    cda7:	d0 f8                	sar    %al
    cda9:	0f b6 c0             	movzbl %al,%eax
    cdac:	83 e0 7f             	and    $0x7f,%eax
    cdaf:	48 c1 e0 1b          	shl    $0x1b,%rax
    cdb3:	48 89 c2             	mov    %rax,%rdx
    cdb6:	48 8b 05 4b a6 00 00 	mov    0xa64b(%rip),%rax        # 17408 <g_397+0x8>
    cdbd:	48 b9 ff ff ff 07 fc 	movabs $0xfffffffc07ffffff,%rcx
    cdc4:	ff ff ff 
    cdc7:	48 21 c8             	and    %rcx,%rax
    cdca:	48 09 d0             	or     %rdx,%rax
    cdcd:	48 89 05 34 a6 00 00 	mov    %rax,0xa634(%rip)        # 17408 <g_397+0x8>
    cdd4:	48 8b 85 b8 fa ff ff 	mov    -0x548(%rbp),%rax
    cddb:	48 8b 5d d8          	mov    -0x28(%rbp),%rbx
    cddf:	64 48 33 1c 25 28 00 	xor    %fs:0x28,%rbx
    cde6:	00 00 
    cde8:	74 05                	je     cdef <func_88+0xbc2>
    cdea:	e8 81 92 ff ff       	callq  6070 <__stack_chk_fail@plt>
    cdef:	48 81 c4 38 05 00 00 	add    $0x538,%rsp
    cdf6:	5b                   	pop    %rbx
    cdf7:	41 5c                	pop    %r12
    cdf9:	41 5d                	pop    %r13
    cdfb:	5d                   	pop    %rbp
    cdfc:	c3                   	retq   

000000000000cdfd <func_90>:
    cdfd:	f3 0f 1e fa          	endbr64 
    ce01:	55                   	push   %rbp
    ce02:	48 89 e5             	mov    %rsp,%rbp
    ce05:	41 57                	push   %r15
    ce07:	41 56                	push   %r14
    ce09:	41 55                	push   %r13
    ce0b:	41 54                	push   %r12
    ce0d:	53                   	push   %rbx
    ce0e:	48 81 ec f8 0f 00 00 	sub    $0xff8,%rsp
    ce15:	89 f8                	mov    %edi,%eax
    ce17:	89 b5 e8 ef ff ff    	mov    %esi,-0x1018(%rbp)
    ce1d:	66 89 85 ec ef ff ff 	mov    %ax,-0x1014(%rbp)
    ce24:	64 48 8b 04 25 28 00 	mov    %fs:0x28,%rax
    ce2b:	00 00 
    ce2d:	48 89 45 c8          	mov    %rax,-0x38(%rbp)
    ce31:	31 c0                	xor    %eax,%eax
    ce33:	48 8d 05 12 a2 00 00 	lea    0xa212(%rip),%rax        # 1704c <g_126>
    ce3a:	48 89 85 88 f0 ff ff 	mov    %rax,-0xf78(%rbp)
    ce41:	48 8d 05 06 a2 00 00 	lea    0xa206(%rip),%rax        # 1704e <g_128>
    ce48:	48 89 85 90 f0 ff ff 	mov    %rax,-0xf70(%rbp)
    ce4f:	c7 85 04 f0 ff ff 1d 	movl   $0x7f92971d,-0xffc(%rbp)
    ce56:	97 92 7f 
    ce59:	48 c7 85 98 f0 ff ff 	movq   $0x0,-0xf68(%rbp)
    ce60:	00 00 00 00 
    ce64:	48 c7 85 a0 f0 ff ff 	movq   $0x0,-0xf60(%rbp)
    ce6b:	00 00 00 00 
    ce6f:	48 8d 05 0a a2 00 00 	lea    0xa20a(%rip),%rax        # 17080 <g_140+0x20>
    ce76:	48 89 85 a8 f0 ff ff 	mov    %rax,-0xf58(%rbp)
    ce7d:	66 c7 85 fa ef ff ff 	movw   $0x915b,-0x1006(%rbp)
    ce84:	5b 91 
    ce86:	48 8d 85 fa ef ff ff 	lea    -0x1006(%rbp),%rax
    ce8d:	48 89 85 48 f0 ff ff 	mov    %rax,-0xfb8(%rbp)
    ce94:	48 8d 85 48 f0 ff ff 	lea    -0xfb8(%rbp),%rax
    ce9b:	48 89 85 b0 f0 ff ff 	mov    %rax,-0xf50(%rbp)
    cea2:	48 8d 05 53 a4 00 00 	lea    0xa453(%rip),%rax        # 172fc <g_315>
    cea9:	48 89 85 50 f0 ff ff 	mov    %rax,-0xfb0(%rbp)
    ceb0:	48 8d 85 50 f0 ff ff 	lea    -0xfb0(%rbp),%rax
    ceb7:	48 89 85 b8 f0 ff ff 	mov    %rax,-0xf48(%rbp)
    cebe:	48 8d 05 1b a5 00 00 	lea    0xa51b(%rip),%rax        # 173e0 <g_394>
    cec5:	48 89 85 58 f0 ff ff 	mov    %rax,-0xfa8(%rbp)
    cecc:	c6 85 f7 ef ff ff 52 	movb   $0x52,-0x1009(%rbp)
    ced3:	c7 85 20 f0 ff ff 09 	movl   $0x9,-0xfe0(%rbp)
    ceda:	00 00 00 
    cedd:	66 c7 85 fc ef ff ff 	movw   $0x1,-0x1004(%rbp)
    cee4:	01 00 
    cee6:	48 8d 05 3d a5 00 00 	lea    0xa53d(%rip),%rax        # 1742a <g_553+0xa>
    ceed:	48 89 85 c0 f0 ff ff 	mov    %rax,-0xf40(%rbp)
    cef4:	48 8d 05 db a4 00 00 	lea    0xa4db(%rip),%rax        # 173d6 <g_382>
    cefb:	48 89 85 60 f0 ff ff 	mov    %rax,-0xfa0(%rbp)
    cf02:	48 8d 85 60 f0 ff ff 	lea    -0xfa0(%rbp),%rax
    cf09:	48 89 85 c0 f7 ff ff 	mov    %rax,-0x840(%rbp)
    cf10:	48 8d 85 60 f0 ff ff 	lea    -0xfa0(%rbp),%rax
    cf17:	48 89 85 c8 f7 ff ff 	mov    %rax,-0x838(%rbp)
    cf1e:	48 8d 85 60 f0 ff ff 	lea    -0xfa0(%rbp),%rax
    cf25:	48 89 85 d0 f7 ff ff 	mov    %rax,-0x830(%rbp)
    cf2c:	48 8d 85 60 f0 ff ff 	lea    -0xfa0(%rbp),%rax
    cf33:	48 89 85 d8 f7 ff ff 	mov    %rax,-0x828(%rbp)
    cf3a:	48 8d 85 60 f0 ff ff 	lea    -0xfa0(%rbp),%rax
    cf41:	48 89 85 e0 f7 ff ff 	mov    %rax,-0x820(%rbp)
    cf48:	48 8d 85 60 f0 ff ff 	lea    -0xfa0(%rbp),%rax
    cf4f:	48 89 85 e8 f7 ff ff 	mov    %rax,-0x818(%rbp)
    cf56:	48 8d 85 60 f0 ff ff 	lea    -0xfa0(%rbp),%rax
    cf5d:	48 89 85 f0 f7 ff ff 	mov    %rax,-0x810(%rbp)
    cf64:	48 8d 85 60 f0 ff ff 	lea    -0xfa0(%rbp),%rax
    cf6b:	48 89 85 f8 f7 ff ff 	mov    %rax,-0x808(%rbp)
    cf72:	48 8d 85 60 f0 ff ff 	lea    -0xfa0(%rbp),%rax
    cf79:	48 89 85 00 f8 ff ff 	mov    %rax,-0x800(%rbp)
    cf80:	48 8d 85 60 f0 ff ff 	lea    -0xfa0(%rbp),%rax
    cf87:	48 89 85 08 f8 ff ff 	mov    %rax,-0x7f8(%rbp)
    cf8e:	48 8d 85 60 f0 ff ff 	lea    -0xfa0(%rbp),%rax
    cf95:	48 89 85 10 f8 ff ff 	mov    %rax,-0x7f0(%rbp)
    cf9c:	48 8d 85 60 f0 ff ff 	lea    -0xfa0(%rbp),%rax
    cfa3:	48 89 85 18 f8 ff ff 	mov    %rax,-0x7e8(%rbp)
    cfaa:	48 8d 85 60 f0 ff ff 	lea    -0xfa0(%rbp),%rax
    cfb1:	48 89 85 20 f8 ff ff 	mov    %rax,-0x7e0(%rbp)
    cfb8:	48 8d 85 60 f0 ff ff 	lea    -0xfa0(%rbp),%rax
    cfbf:	48 89 85 28 f8 ff ff 	mov    %rax,-0x7d8(%rbp)
    cfc6:	48 8d 85 60 f0 ff ff 	lea    -0xfa0(%rbp),%rax
    cfcd:	48 89 85 30 f8 ff ff 	mov    %rax,-0x7d0(%rbp)
    cfd4:	48 c7 85 38 f8 ff ff 	movq   $0x0,-0x7c8(%rbp)
    cfdb:	00 00 00 00 
    cfdf:	48 8d 85 60 f0 ff ff 	lea    -0xfa0(%rbp),%rax
    cfe6:	48 89 85 40 f8 ff ff 	mov    %rax,-0x7c0(%rbp)
    cfed:	48 8d 85 60 f0 ff ff 	lea    -0xfa0(%rbp),%rax
    cff4:	48 89 85 48 f8 ff ff 	mov    %rax,-0x7b8(%rbp)
    cffb:	48 8d 85 60 f0 ff ff 	lea    -0xfa0(%rbp),%rax
    d002:	48 89 85 50 f8 ff ff 	mov    %rax,-0x7b0(%rbp)
    d009:	48 c7 85 58 f8 ff ff 	movq   $0x0,-0x7a8(%rbp)
    d010:	00 00 00 00 
    d014:	48 8d 85 60 f0 ff ff 	lea    -0xfa0(%rbp),%rax
    d01b:	48 89 85 60 f8 ff ff 	mov    %rax,-0x7a0(%rbp)
    d022:	48 8d 85 60 f0 ff ff 	lea    -0xfa0(%rbp),%rax
    d029:	48 89 85 68 f8 ff ff 	mov    %rax,-0x798(%rbp)
    d030:	48 c7 85 70 f8 ff ff 	movq   $0x0,-0x790(%rbp)
    d037:	00 00 00 00 
    d03b:	48 8d 85 60 f0 ff ff 	lea    -0xfa0(%rbp),%rax
    d042:	48 89 85 78 f8 ff ff 	mov    %rax,-0x788(%rbp)
    d049:	48 8d 85 60 f0 ff ff 	lea    -0xfa0(%rbp),%rax
    d050:	48 89 85 80 f8 ff ff 	mov    %rax,-0x780(%rbp)
    d057:	48 8d 85 60 f0 ff ff 	lea    -0xfa0(%rbp),%rax
    d05e:	48 89 85 88 f8 ff ff 	mov    %rax,-0x778(%rbp)
    d065:	48 8d 85 60 f0 ff ff 	lea    -0xfa0(%rbp),%rax
    d06c:	48 89 85 90 f8 ff ff 	mov    %rax,-0x770(%rbp)
    d073:	48 8d 85 60 f0 ff ff 	lea    -0xfa0(%rbp),%rax
    d07a:	48 89 85 98 f8 ff ff 	mov    %rax,-0x768(%rbp)
    d081:	48 8d 85 60 f0 ff ff 	lea    -0xfa0(%rbp),%rax
    d088:	48 89 85 a0 f8 ff ff 	mov    %rax,-0x760(%rbp)
    d08f:	48 8d 85 60 f0 ff ff 	lea    -0xfa0(%rbp),%rax
    d096:	48 89 85 a8 f8 ff ff 	mov    %rax,-0x758(%rbp)
    d09d:	48 8d 85 60 f0 ff ff 	lea    -0xfa0(%rbp),%rax
    d0a4:	48 89 85 b0 f8 ff ff 	mov    %rax,-0x750(%rbp)
    d0ab:	48 8d 85 60 f0 ff ff 	lea    -0xfa0(%rbp),%rax
    d0b2:	48 89 85 b8 f8 ff ff 	mov    %rax,-0x748(%rbp)
    d0b9:	48 8d 85 60 f0 ff ff 	lea    -0xfa0(%rbp),%rax
    d0c0:	48 89 85 c0 f8 ff ff 	mov    %rax,-0x740(%rbp)
    d0c7:	48 8d 85 60 f0 ff ff 	lea    -0xfa0(%rbp),%rax
    d0ce:	48 89 85 c8 f8 ff ff 	mov    %rax,-0x738(%rbp)
    d0d5:	48 8d 85 60 f0 ff ff 	lea    -0xfa0(%rbp),%rax
    d0dc:	48 89 85 d0 f8 ff ff 	mov    %rax,-0x730(%rbp)
    d0e3:	48 8d 85 60 f0 ff ff 	lea    -0xfa0(%rbp),%rax
    d0ea:	48 89 85 d8 f8 ff ff 	mov    %rax,-0x728(%rbp)
    d0f1:	48 8d 85 60 f0 ff ff 	lea    -0xfa0(%rbp),%rax
    d0f8:	48 89 85 e0 f8 ff ff 	mov    %rax,-0x720(%rbp)
    d0ff:	48 8d 85 60 f0 ff ff 	lea    -0xfa0(%rbp),%rax
    d106:	48 89 85 e8 f8 ff ff 	mov    %rax,-0x718(%rbp)
    d10d:	48 8d 85 60 f0 ff ff 	lea    -0xfa0(%rbp),%rax
    d114:	48 89 85 f0 f8 ff ff 	mov    %rax,-0x710(%rbp)
    d11b:	48 8d 85 60 f0 ff ff 	lea    -0xfa0(%rbp),%rax
    d122:	48 89 85 f8 f8 ff ff 	mov    %rax,-0x708(%rbp)
    d129:	48 8d 85 60 f0 ff ff 	lea    -0xfa0(%rbp),%rax
    d130:	48 89 85 00 f9 ff ff 	mov    %rax,-0x700(%rbp)
    d137:	48 8d 85 60 f0 ff ff 	lea    -0xfa0(%rbp),%rax
    d13e:	48 89 85 08 f9 ff ff 	mov    %rax,-0x6f8(%rbp)
    d145:	48 8d 85 60 f0 ff ff 	lea    -0xfa0(%rbp),%rax
    d14c:	48 89 85 10 f9 ff ff 	mov    %rax,-0x6f0(%rbp)
    d153:	48 8d 85 60 f0 ff ff 	lea    -0xfa0(%rbp),%rax
    d15a:	48 89 85 18 f9 ff ff 	mov    %rax,-0x6e8(%rbp)
    d161:	48 8d 85 60 f0 ff ff 	lea    -0xfa0(%rbp),%rax
    d168:	48 89 85 20 f9 ff ff 	mov    %rax,-0x6e0(%rbp)
    d16f:	48 8d 85 60 f0 ff ff 	lea    -0xfa0(%rbp),%rax
    d176:	48 89 85 28 f9 ff ff 	mov    %rax,-0x6d8(%rbp)
    d17d:	48 8d 85 60 f0 ff ff 	lea    -0xfa0(%rbp),%rax
    d184:	48 89 85 30 f9 ff ff 	mov    %rax,-0x6d0(%rbp)
    d18b:	48 8d 85 60 f0 ff ff 	lea    -0xfa0(%rbp),%rax
    d192:	48 89 85 38 f9 ff ff 	mov    %rax,-0x6c8(%rbp)
    d199:	48 8d 85 60 f0 ff ff 	lea    -0xfa0(%rbp),%rax
    d1a0:	48 89 85 40 f9 ff ff 	mov    %rax,-0x6c0(%rbp)
    d1a7:	48 8d 85 60 f0 ff ff 	lea    -0xfa0(%rbp),%rax
    d1ae:	48 89 85 48 f9 ff ff 	mov    %rax,-0x6b8(%rbp)
    d1b5:	48 8d 85 60 f0 ff ff 	lea    -0xfa0(%rbp),%rax
    d1bc:	48 89 85 50 f9 ff ff 	mov    %rax,-0x6b0(%rbp)
    d1c3:	48 c7 85 58 f9 ff ff 	movq   $0x0,-0x6a8(%rbp)
    d1ca:	00 00 00 00 
    d1ce:	48 8d 85 60 f0 ff ff 	lea    -0xfa0(%rbp),%rax
    d1d5:	48 89 85 60 f9 ff ff 	mov    %rax,-0x6a0(%rbp)
    d1dc:	48 8d 85 60 f0 ff ff 	lea    -0xfa0(%rbp),%rax
    d1e3:	48 89 85 68 f9 ff ff 	mov    %rax,-0x698(%rbp)
    d1ea:	48 8d 85 60 f0 ff ff 	lea    -0xfa0(%rbp),%rax
    d1f1:	48 89 85 70 f9 ff ff 	mov    %rax,-0x690(%rbp)
    d1f8:	48 c7 85 78 f9 ff ff 	movq   $0x0,-0x688(%rbp)
    d1ff:	00 00 00 00 
    d203:	48 8d 85 60 f0 ff ff 	lea    -0xfa0(%rbp),%rax
    d20a:	48 89 85 80 f9 ff ff 	mov    %rax,-0x680(%rbp)
    d211:	48 8d 85 60 f0 ff ff 	lea    -0xfa0(%rbp),%rax
    d218:	48 89 85 88 f9 ff ff 	mov    %rax,-0x678(%rbp)
    d21f:	48 8d 85 60 f0 ff ff 	lea    -0xfa0(%rbp),%rax
    d226:	48 89 85 90 f9 ff ff 	mov    %rax,-0x670(%rbp)
    d22d:	48 8d 85 60 f0 ff ff 	lea    -0xfa0(%rbp),%rax
    d234:	48 89 85 98 f9 ff ff 	mov    %rax,-0x668(%rbp)
    d23b:	48 c7 85 a0 f9 ff ff 	movq   $0x0,-0x660(%rbp)
    d242:	00 00 00 00 
    d246:	48 8d 85 60 f0 ff ff 	lea    -0xfa0(%rbp),%rax
    d24d:	48 89 85 a8 f9 ff ff 	mov    %rax,-0x658(%rbp)
    d254:	48 8d 85 60 f0 ff ff 	lea    -0xfa0(%rbp),%rax
    d25b:	48 89 85 b0 f9 ff ff 	mov    %rax,-0x650(%rbp)
    d262:	48 8d 85 60 f0 ff ff 	lea    -0xfa0(%rbp),%rax
    d269:	48 89 85 b8 f9 ff ff 	mov    %rax,-0x648(%rbp)
    d270:	48 8d 85 60 f0 ff ff 	lea    -0xfa0(%rbp),%rax
    d277:	48 89 85 c0 f9 ff ff 	mov    %rax,-0x640(%rbp)
    d27e:	48 8d 85 60 f0 ff ff 	lea    -0xfa0(%rbp),%rax
    d285:	48 89 85 c8 f9 ff ff 	mov    %rax,-0x638(%rbp)
    d28c:	48 8d 85 60 f0 ff ff 	lea    -0xfa0(%rbp),%rax
    d293:	48 89 85 d0 f9 ff ff 	mov    %rax,-0x630(%rbp)
    d29a:	48 8d 85 60 f0 ff ff 	lea    -0xfa0(%rbp),%rax
    d2a1:	48 89 85 d8 f9 ff ff 	mov    %rax,-0x628(%rbp)
    d2a8:	48 8d 85 60 f0 ff ff 	lea    -0xfa0(%rbp),%rax
    d2af:	48 89 85 e0 f9 ff ff 	mov    %rax,-0x620(%rbp)
    d2b6:	48 8d 85 60 f0 ff ff 	lea    -0xfa0(%rbp),%rax
    d2bd:	48 89 85 e8 f9 ff ff 	mov    %rax,-0x618(%rbp)
    d2c4:	48 8d 85 60 f0 ff ff 	lea    -0xfa0(%rbp),%rax
    d2cb:	48 89 85 f0 f9 ff ff 	mov    %rax,-0x610(%rbp)
    d2d2:	48 8d 85 60 f0 ff ff 	lea    -0xfa0(%rbp),%rax
    d2d9:	48 89 85 f8 f9 ff ff 	mov    %rax,-0x608(%rbp)
    d2e0:	48 8d 85 60 f0 ff ff 	lea    -0xfa0(%rbp),%rax
    d2e7:	48 89 85 00 fa ff ff 	mov    %rax,-0x600(%rbp)
    d2ee:	48 8d 85 60 f0 ff ff 	lea    -0xfa0(%rbp),%rax
    d2f5:	48 89 85 08 fa ff ff 	mov    %rax,-0x5f8(%rbp)
    d2fc:	48 8d 85 60 f0 ff ff 	lea    -0xfa0(%rbp),%rax
    d303:	48 89 85 10 fa ff ff 	mov    %rax,-0x5f0(%rbp)
    d30a:	48 8d 85 60 f0 ff ff 	lea    -0xfa0(%rbp),%rax
    d311:	48 89 85 18 fa ff ff 	mov    %rax,-0x5e8(%rbp)
    d318:	48 8d 85 60 f0 ff ff 	lea    -0xfa0(%rbp),%rax
    d31f:	48 89 85 20 fa ff ff 	mov    %rax,-0x5e0(%rbp)
    d326:	48 8d 85 60 f0 ff ff 	lea    -0xfa0(%rbp),%rax
    d32d:	48 89 85 28 fa ff ff 	mov    %rax,-0x5d8(%rbp)
    d334:	48 8d 85 60 f0 ff ff 	lea    -0xfa0(%rbp),%rax
    d33b:	48 89 85 30 fa ff ff 	mov    %rax,-0x5d0(%rbp)
    d342:	48 8d 85 60 f0 ff ff 	lea    -0xfa0(%rbp),%rax
    d349:	48 89 85 38 fa ff ff 	mov    %rax,-0x5c8(%rbp)
    d350:	48 8d 85 60 f0 ff ff 	lea    -0xfa0(%rbp),%rax
    d357:	48 89 85 40 fa ff ff 	mov    %rax,-0x5c0(%rbp)
    d35e:	48 8d 85 60 f0 ff ff 	lea    -0xfa0(%rbp),%rax
    d365:	48 89 85 48 fa ff ff 	mov    %rax,-0x5b8(%rbp)
    d36c:	48 8d 85 60 f0 ff ff 	lea    -0xfa0(%rbp),%rax
    d373:	48 89 85 50 fa ff ff 	mov    %rax,-0x5b0(%rbp)
    d37a:	48 8d 85 60 f0 ff ff 	lea    -0xfa0(%rbp),%rax
    d381:	48 89 85 58 fa ff ff 	mov    %rax,-0x5a8(%rbp)
    d388:	48 8d 85 60 f0 ff ff 	lea    -0xfa0(%rbp),%rax
    d38f:	48 89 85 60 fa ff ff 	mov    %rax,-0x5a0(%rbp)
    d396:	48 8d 85 60 f0 ff ff 	lea    -0xfa0(%rbp),%rax
    d39d:	48 89 85 68 fa ff ff 	mov    %rax,-0x598(%rbp)
    d3a4:	48 8d 85 60 f0 ff ff 	lea    -0xfa0(%rbp),%rax
    d3ab:	48 89 85 70 fa ff ff 	mov    %rax,-0x590(%rbp)
    d3b2:	48 8d 85 60 f0 ff ff 	lea    -0xfa0(%rbp),%rax
    d3b9:	48 89 85 78 fa ff ff 	mov    %rax,-0x588(%rbp)
    d3c0:	48 8d 85 60 f0 ff ff 	lea    -0xfa0(%rbp),%rax
    d3c7:	48 89 85 80 fa ff ff 	mov    %rax,-0x580(%rbp)
    d3ce:	48 8d 85 60 f0 ff ff 	lea    -0xfa0(%rbp),%rax
    d3d5:	48 89 85 88 fa ff ff 	mov    %rax,-0x578(%rbp)
    d3dc:	48 8d 85 60 f0 ff ff 	lea    -0xfa0(%rbp),%rax
    d3e3:	48 89 85 90 fa ff ff 	mov    %rax,-0x570(%rbp)
    d3ea:	48 8d 85 60 f0 ff ff 	lea    -0xfa0(%rbp),%rax
    d3f1:	48 89 85 98 fa ff ff 	mov    %rax,-0x568(%rbp)
    d3f8:	48 8d 85 60 f0 ff ff 	lea    -0xfa0(%rbp),%rax
    d3ff:	48 89 85 a0 fa ff ff 	mov    %rax,-0x560(%rbp)
    d406:	48 8d 85 60 f0 ff ff 	lea    -0xfa0(%rbp),%rax
    d40d:	48 89 85 a8 fa ff ff 	mov    %rax,-0x558(%rbp)
    d414:	48 8d 85 60 f0 ff ff 	lea    -0xfa0(%rbp),%rax
    d41b:	48 89 85 b0 fa ff ff 	mov    %rax,-0x550(%rbp)
    d422:	48 8d 85 60 f0 ff ff 	lea    -0xfa0(%rbp),%rax
    d429:	48 89 85 b8 fa ff ff 	mov    %rax,-0x548(%rbp)
    d430:	48 8d 85 60 f0 ff ff 	lea    -0xfa0(%rbp),%rax
    d437:	48 89 85 c0 fa ff ff 	mov    %rax,-0x540(%rbp)
    d43e:	48 8d 85 60 f0 ff ff 	lea    -0xfa0(%rbp),%rax
    d445:	48 89 85 c8 fa ff ff 	mov    %rax,-0x538(%rbp)
    d44c:	48 8d 85 60 f0 ff ff 	lea    -0xfa0(%rbp),%rax
    d453:	48 89 85 d0 fa ff ff 	mov    %rax,-0x530(%rbp)
    d45a:	48 8d 85 60 f0 ff ff 	lea    -0xfa0(%rbp),%rax
    d461:	48 89 85 d8 fa ff ff 	mov    %rax,-0x528(%rbp)
    d468:	48 8d 85 60 f0 ff ff 	lea    -0xfa0(%rbp),%rax
    d46f:	48 89 85 e0 fa ff ff 	mov    %rax,-0x520(%rbp)
    d476:	48 8d 85 60 f0 ff ff 	lea    -0xfa0(%rbp),%rax
    d47d:	48 89 85 e8 fa ff ff 	mov    %rax,-0x518(%rbp)
    d484:	48 8d 85 60 f0 ff ff 	lea    -0xfa0(%rbp),%rax
    d48b:	48 89 85 f0 fa ff ff 	mov    %rax,-0x510(%rbp)
    d492:	48 8d 85 60 f0 ff ff 	lea    -0xfa0(%rbp),%rax
    d499:	48 89 85 f8 fa ff ff 	mov    %rax,-0x508(%rbp)
    d4a0:	48 8d 85 60 f0 ff ff 	lea    -0xfa0(%rbp),%rax
    d4a7:	48 89 85 00 fb ff ff 	mov    %rax,-0x500(%rbp)
    d4ae:	48 8d 85 60 f0 ff ff 	lea    -0xfa0(%rbp),%rax
    d4b5:	48 89 85 08 fb ff ff 	mov    %rax,-0x4f8(%rbp)
    d4bc:	48 8d 85 60 f0 ff ff 	lea    -0xfa0(%rbp),%rax
    d4c3:	48 89 85 10 fb ff ff 	mov    %rax,-0x4f0(%rbp)
    d4ca:	48 8d 85 60 f0 ff ff 	lea    -0xfa0(%rbp),%rax
    d4d1:	48 89 85 18 fb ff ff 	mov    %rax,-0x4e8(%rbp)
    d4d8:	48 8d 85 60 f0 ff ff 	lea    -0xfa0(%rbp),%rax
    d4df:	48 89 85 20 fb ff ff 	mov    %rax,-0x4e0(%rbp)
    d4e6:	48 8d 85 60 f0 ff ff 	lea    -0xfa0(%rbp),%rax
    d4ed:	48 89 85 28 fb ff ff 	mov    %rax,-0x4d8(%rbp)
    d4f4:	48 8d 85 60 f0 ff ff 	lea    -0xfa0(%rbp),%rax
    d4fb:	48 89 85 30 fb ff ff 	mov    %rax,-0x4d0(%rbp)
    d502:	48 8d 85 60 f0 ff ff 	lea    -0xfa0(%rbp),%rax
    d509:	48 89 85 38 fb ff ff 	mov    %rax,-0x4c8(%rbp)
    d510:	48 8d 85 60 f0 ff ff 	lea    -0xfa0(%rbp),%rax
    d517:	48 89 85 40 fb ff ff 	mov    %rax,-0x4c0(%rbp)
    d51e:	48 8d 85 60 f0 ff ff 	lea    -0xfa0(%rbp),%rax
    d525:	48 89 85 48 fb ff ff 	mov    %rax,-0x4b8(%rbp)
    d52c:	48 8d 85 60 f0 ff ff 	lea    -0xfa0(%rbp),%rax
    d533:	48 89 85 50 fb ff ff 	mov    %rax,-0x4b0(%rbp)
    d53a:	48 8d 85 60 f0 ff ff 	lea    -0xfa0(%rbp),%rax
    d541:	48 89 85 58 fb ff ff 	mov    %rax,-0x4a8(%rbp)
    d548:	48 8d 85 60 f0 ff ff 	lea    -0xfa0(%rbp),%rax
    d54f:	48 89 85 60 fb ff ff 	mov    %rax,-0x4a0(%rbp)
    d556:	48 8d 85 60 f0 ff ff 	lea    -0xfa0(%rbp),%rax
    d55d:	48 89 85 68 fb ff ff 	mov    %rax,-0x498(%rbp)
    d564:	48 8d 85 60 f0 ff ff 	lea    -0xfa0(%rbp),%rax
    d56b:	48 89 85 70 fb ff ff 	mov    %rax,-0x490(%rbp)
    d572:	48 8d 85 60 f0 ff ff 	lea    -0xfa0(%rbp),%rax
    d579:	48 89 85 78 fb ff ff 	mov    %rax,-0x488(%rbp)
    d580:	48 8d 85 60 f0 ff ff 	lea    -0xfa0(%rbp),%rax
    d587:	48 89 85 80 fb ff ff 	mov    %rax,-0x480(%rbp)
    d58e:	48 8d 85 60 f0 ff ff 	lea    -0xfa0(%rbp),%rax
    d595:	48 89 85 88 fb ff ff 	mov    %rax,-0x478(%rbp)
    d59c:	48 8d 85 60 f0 ff ff 	lea    -0xfa0(%rbp),%rax
    d5a3:	48 89 85 90 fb ff ff 	mov    %rax,-0x470(%rbp)
    d5aa:	48 8d 85 60 f0 ff ff 	lea    -0xfa0(%rbp),%rax
    d5b1:	48 89 85 98 fb ff ff 	mov    %rax,-0x468(%rbp)
    d5b8:	48 8d 85 60 f0 ff ff 	lea    -0xfa0(%rbp),%rax
    d5bf:	48 89 85 a0 fb ff ff 	mov    %rax,-0x460(%rbp)
    d5c6:	48 8d 85 60 f0 ff ff 	lea    -0xfa0(%rbp),%rax
    d5cd:	48 89 85 a8 fb ff ff 	mov    %rax,-0x458(%rbp)
    d5d4:	48 8d 85 60 f0 ff ff 	lea    -0xfa0(%rbp),%rax
    d5db:	48 89 85 b0 fb ff ff 	mov    %rax,-0x450(%rbp)
    d5e2:	48 8d 85 60 f0 ff ff 	lea    -0xfa0(%rbp),%rax
    d5e9:	48 89 85 b8 fb ff ff 	mov    %rax,-0x448(%rbp)
    d5f0:	48 8d 85 60 f0 ff ff 	lea    -0xfa0(%rbp),%rax
    d5f7:	48 89 85 c0 fb ff ff 	mov    %rax,-0x440(%rbp)
    d5fe:	48 8d 85 60 f0 ff ff 	lea    -0xfa0(%rbp),%rax
    d605:	48 89 85 c8 fb ff ff 	mov    %rax,-0x438(%rbp)
    d60c:	48 8d 85 60 f0 ff ff 	lea    -0xfa0(%rbp),%rax
    d613:	48 89 85 d0 fb ff ff 	mov    %rax,-0x430(%rbp)
    d61a:	48 8d 85 60 f0 ff ff 	lea    -0xfa0(%rbp),%rax
    d621:	48 89 85 d8 fb ff ff 	mov    %rax,-0x428(%rbp)
    d628:	48 8d 85 60 f0 ff ff 	lea    -0xfa0(%rbp),%rax
    d62f:	48 89 85 e0 fb ff ff 	mov    %rax,-0x420(%rbp)
    d636:	48 8d 85 60 f0 ff ff 	lea    -0xfa0(%rbp),%rax
    d63d:	48 89 85 e8 fb ff ff 	mov    %rax,-0x418(%rbp)
    d644:	48 8d 85 60 f0 ff ff 	lea    -0xfa0(%rbp),%rax
    d64b:	48 89 85 f0 fb ff ff 	mov    %rax,-0x410(%rbp)
    d652:	48 8d 85 60 f0 ff ff 	lea    -0xfa0(%rbp),%rax
    d659:	48 89 85 f8 fb ff ff 	mov    %rax,-0x408(%rbp)
    d660:	48 8d 85 60 f0 ff ff 	lea    -0xfa0(%rbp),%rax
    d667:	48 89 85 00 fc ff ff 	mov    %rax,-0x400(%rbp)
    d66e:	48 8d 85 60 f0 ff ff 	lea    -0xfa0(%rbp),%rax
    d675:	48 89 85 08 fc ff ff 	mov    %rax,-0x3f8(%rbp)
    d67c:	48 8d 85 60 f0 ff ff 	lea    -0xfa0(%rbp),%rax
    d683:	48 89 85 10 fc ff ff 	mov    %rax,-0x3f0(%rbp)
    d68a:	48 8d 85 60 f0 ff ff 	lea    -0xfa0(%rbp),%rax
    d691:	48 89 85 18 fc ff ff 	mov    %rax,-0x3e8(%rbp)
    d698:	48 8d 85 60 f0 ff ff 	lea    -0xfa0(%rbp),%rax
    d69f:	48 89 85 20 fc ff ff 	mov    %rax,-0x3e0(%rbp)
    d6a6:	48 8d 85 60 f0 ff ff 	lea    -0xfa0(%rbp),%rax
    d6ad:	48 89 85 28 fc ff ff 	mov    %rax,-0x3d8(%rbp)
    d6b4:	48 8d 85 60 f0 ff ff 	lea    -0xfa0(%rbp),%rax
    d6bb:	48 89 85 30 fc ff ff 	mov    %rax,-0x3d0(%rbp)
    d6c2:	48 8d 85 60 f0 ff ff 	lea    -0xfa0(%rbp),%rax
    d6c9:	48 89 85 38 fc ff ff 	mov    %rax,-0x3c8(%rbp)
    d6d0:	48 8d 85 60 f0 ff ff 	lea    -0xfa0(%rbp),%rax
    d6d7:	48 89 85 40 fc ff ff 	mov    %rax,-0x3c0(%rbp)
    d6de:	48 c7 85 48 fc ff ff 	movq   $0x0,-0x3b8(%rbp)
    d6e5:	00 00 00 00 
    d6e9:	48 8d 85 60 f0 ff ff 	lea    -0xfa0(%rbp),%rax
    d6f0:	48 89 85 50 fc ff ff 	mov    %rax,-0x3b0(%rbp)
    d6f7:	48 8d 85 60 f0 ff ff 	lea    -0xfa0(%rbp),%rax
    d6fe:	48 89 85 58 fc ff ff 	mov    %rax,-0x3a8(%rbp)
    d705:	48 8d 85 60 f0 ff ff 	lea    -0xfa0(%rbp),%rax
    d70c:	48 89 85 60 fc ff ff 	mov    %rax,-0x3a0(%rbp)
    d713:	48 8d 85 60 f0 ff ff 	lea    -0xfa0(%rbp),%rax
    d71a:	48 89 85 68 fc ff ff 	mov    %rax,-0x398(%rbp)
    d721:	48 8d 85 60 f0 ff ff 	lea    -0xfa0(%rbp),%rax
    d728:	48 89 85 70 fc ff ff 	mov    %rax,-0x390(%rbp)
    d72f:	48 8d 85 60 f0 ff ff 	lea    -0xfa0(%rbp),%rax
    d736:	48 89 85 78 fc ff ff 	mov    %rax,-0x388(%rbp)
    d73d:	48 8d 85 60 f0 ff ff 	lea    -0xfa0(%rbp),%rax
    d744:	48 89 85 80 fc ff ff 	mov    %rax,-0x380(%rbp)
    d74b:	48 8d 85 60 f0 ff ff 	lea    -0xfa0(%rbp),%rax
    d752:	48 89 85 88 fc ff ff 	mov    %rax,-0x378(%rbp)
    d759:	48 8d 85 60 f0 ff ff 	lea    -0xfa0(%rbp),%rax
    d760:	48 89 85 90 fc ff ff 	mov    %rax,-0x370(%rbp)
    d767:	48 8d 85 60 f0 ff ff 	lea    -0xfa0(%rbp),%rax
    d76e:	48 89 85 98 fc ff ff 	mov    %rax,-0x368(%rbp)
    d775:	48 8d 85 60 f0 ff ff 	lea    -0xfa0(%rbp),%rax
    d77c:	48 89 85 a0 fc ff ff 	mov    %rax,-0x360(%rbp)
    d783:	48 8d 85 60 f0 ff ff 	lea    -0xfa0(%rbp),%rax
    d78a:	48 89 85 a8 fc ff ff 	mov    %rax,-0x358(%rbp)
    d791:	48 8d 85 60 f0 ff ff 	lea    -0xfa0(%rbp),%rax
    d798:	48 89 85 b0 fc ff ff 	mov    %rax,-0x350(%rbp)
    d79f:	48 8d 85 60 f0 ff ff 	lea    -0xfa0(%rbp),%rax
    d7a6:	48 89 85 b8 fc ff ff 	mov    %rax,-0x348(%rbp)
    d7ad:	48 8d 85 60 f0 ff ff 	lea    -0xfa0(%rbp),%rax
    d7b4:	48 89 85 c0 fc ff ff 	mov    %rax,-0x340(%rbp)
    d7bb:	48 8d 85 60 f0 ff ff 	lea    -0xfa0(%rbp),%rax
    d7c2:	48 89 85 c8 fc ff ff 	mov    %rax,-0x338(%rbp)
    d7c9:	48 8d 85 60 f0 ff ff 	lea    -0xfa0(%rbp),%rax
    d7d0:	48 89 85 d0 fc ff ff 	mov    %rax,-0x330(%rbp)
    d7d7:	48 8d 85 60 f0 ff ff 	lea    -0xfa0(%rbp),%rax
    d7de:	48 89 85 d8 fc ff ff 	mov    %rax,-0x328(%rbp)
    d7e5:	48 8d 85 60 f0 ff ff 	lea    -0xfa0(%rbp),%rax
    d7ec:	48 89 85 e0 fc ff ff 	mov    %rax,-0x320(%rbp)
    d7f3:	48 8d 85 60 f0 ff ff 	lea    -0xfa0(%rbp),%rax
    d7fa:	48 89 85 e8 fc ff ff 	mov    %rax,-0x318(%rbp)
    d801:	48 8d 85 60 f0 ff ff 	lea    -0xfa0(%rbp),%rax
    d808:	48 89 85 f0 fc ff ff 	mov    %rax,-0x310(%rbp)
    d80f:	48 8d 85 60 f0 ff ff 	lea    -0xfa0(%rbp),%rax
    d816:	48 89 85 f8 fc ff ff 	mov    %rax,-0x308(%rbp)
    d81d:	48 8d 85 60 f0 ff ff 	lea    -0xfa0(%rbp),%rax
    d824:	48 89 85 00 fd ff ff 	mov    %rax,-0x300(%rbp)
    d82b:	48 8d 85 60 f0 ff ff 	lea    -0xfa0(%rbp),%rax
    d832:	48 89 85 08 fd ff ff 	mov    %rax,-0x2f8(%rbp)
    d839:	48 8d 85 60 f0 ff ff 	lea    -0xfa0(%rbp),%rax
    d840:	48 89 85 10 fd ff ff 	mov    %rax,-0x2f0(%rbp)
    d847:	48 8d 85 60 f0 ff ff 	lea    -0xfa0(%rbp),%rax
    d84e:	48 89 85 18 fd ff ff 	mov    %rax,-0x2e8(%rbp)
    d855:	48 8d 85 60 f0 ff ff 	lea    -0xfa0(%rbp),%rax
    d85c:	48 89 85 20 fd ff ff 	mov    %rax,-0x2e0(%rbp)
    d863:	48 8d 85 60 f0 ff ff 	lea    -0xfa0(%rbp),%rax
    d86a:	48 89 85 28 fd ff ff 	mov    %rax,-0x2d8(%rbp)
    d871:	48 8d 85 60 f0 ff ff 	lea    -0xfa0(%rbp),%rax
    d878:	48 89 85 30 fd ff ff 	mov    %rax,-0x2d0(%rbp)
    d87f:	48 8d 85 60 f0 ff ff 	lea    -0xfa0(%rbp),%rax
    d886:	48 89 85 38 fd ff ff 	mov    %rax,-0x2c8(%rbp)
    d88d:	48 8d 85 60 f0 ff ff 	lea    -0xfa0(%rbp),%rax
    d894:	48 89 85 40 fd ff ff 	mov    %rax,-0x2c0(%rbp)
    d89b:	48 8d 85 60 f0 ff ff 	lea    -0xfa0(%rbp),%rax
    d8a2:	48 89 85 48 fd ff ff 	mov    %rax,-0x2b8(%rbp)
    d8a9:	48 8d 85 60 f0 ff ff 	lea    -0xfa0(%rbp),%rax
    d8b0:	48 89 85 50 fd ff ff 	mov    %rax,-0x2b0(%rbp)
    d8b7:	48 8d 85 60 f0 ff ff 	lea    -0xfa0(%rbp),%rax
    d8be:	48 89 85 58 fd ff ff 	mov    %rax,-0x2a8(%rbp)
    d8c5:	48 8d 85 60 f0 ff ff 	lea    -0xfa0(%rbp),%rax
    d8cc:	48 89 85 60 fd ff ff 	mov    %rax,-0x2a0(%rbp)
    d8d3:	48 8d 85 60 f0 ff ff 	lea    -0xfa0(%rbp),%rax
    d8da:	48 89 85 68 fd ff ff 	mov    %rax,-0x298(%rbp)
    d8e1:	48 8d 85 60 f0 ff ff 	lea    -0xfa0(%rbp),%rax
    d8e8:	48 89 85 70 fd ff ff 	mov    %rax,-0x290(%rbp)
    d8ef:	48 8d 85 60 f0 ff ff 	lea    -0xfa0(%rbp),%rax
    d8f6:	48 89 85 78 fd ff ff 	mov    %rax,-0x288(%rbp)
    d8fd:	48 8d 85 60 f0 ff ff 	lea    -0xfa0(%rbp),%rax
    d904:	48 89 85 80 fd ff ff 	mov    %rax,-0x280(%rbp)
    d90b:	48 8d 85 60 f0 ff ff 	lea    -0xfa0(%rbp),%rax
    d912:	48 89 85 88 fd ff ff 	mov    %rax,-0x278(%rbp)
    d919:	48 8d 85 60 f0 ff ff 	lea    -0xfa0(%rbp),%rax
    d920:	48 89 85 90 fd ff ff 	mov    %rax,-0x270(%rbp)
    d927:	48 8d 85 60 f0 ff ff 	lea    -0xfa0(%rbp),%rax
    d92e:	48 89 85 98 fd ff ff 	mov    %rax,-0x268(%rbp)
    d935:	48 8d 85 60 f0 ff ff 	lea    -0xfa0(%rbp),%rax
    d93c:	48 89 85 a0 fd ff ff 	mov    %rax,-0x260(%rbp)
    d943:	48 8d 85 60 f0 ff ff 	lea    -0xfa0(%rbp),%rax
    d94a:	48 89 85 a8 fd ff ff 	mov    %rax,-0x258(%rbp)
    d951:	48 8d 85 60 f0 ff ff 	lea    -0xfa0(%rbp),%rax
    d958:	48 89 85 b0 fd ff ff 	mov    %rax,-0x250(%rbp)
    d95f:	48 8d 85 60 f0 ff ff 	lea    -0xfa0(%rbp),%rax
    d966:	48 89 85 b8 fd ff ff 	mov    %rax,-0x248(%rbp)
    d96d:	48 8d 85 60 f0 ff ff 	lea    -0xfa0(%rbp),%rax
    d974:	48 89 85 c0 fd ff ff 	mov    %rax,-0x240(%rbp)
    d97b:	48 8d 85 60 f0 ff ff 	lea    -0xfa0(%rbp),%rax
    d982:	48 89 85 c8 fd ff ff 	mov    %rax,-0x238(%rbp)
    d989:	48 8d 85 60 f0 ff ff 	lea    -0xfa0(%rbp),%rax
    d990:	48 89 85 d0 fd ff ff 	mov    %rax,-0x230(%rbp)
    d997:	48 8d 85 60 f0 ff ff 	lea    -0xfa0(%rbp),%rax
    d99e:	48 89 85 d8 fd ff ff 	mov    %rax,-0x228(%rbp)
    d9a5:	48 8d 85 60 f0 ff ff 	lea    -0xfa0(%rbp),%rax
    d9ac:	48 89 85 e0 fd ff ff 	mov    %rax,-0x220(%rbp)
    d9b3:	48 8d 85 60 f0 ff ff 	lea    -0xfa0(%rbp),%rax
    d9ba:	48 89 85 e8 fd ff ff 	mov    %rax,-0x218(%rbp)
    d9c1:	48 8d 85 60 f0 ff ff 	lea    -0xfa0(%rbp),%rax
    d9c8:	48 89 85 f0 fd ff ff 	mov    %rax,-0x210(%rbp)
    d9cf:	48 8d 85 60 f0 ff ff 	lea    -0xfa0(%rbp),%rax
    d9d6:	48 89 85 f8 fd ff ff 	mov    %rax,-0x208(%rbp)
    d9dd:	48 8d 85 60 f0 ff ff 	lea    -0xfa0(%rbp),%rax
    d9e4:	48 89 85 00 fe ff ff 	mov    %rax,-0x200(%rbp)
    d9eb:	48 8d 85 60 f0 ff ff 	lea    -0xfa0(%rbp),%rax
    d9f2:	48 89 85 08 fe ff ff 	mov    %rax,-0x1f8(%rbp)
    d9f9:	48 8d 85 60 f0 ff ff 	lea    -0xfa0(%rbp),%rax
    da00:	48 89 85 10 fe ff ff 	mov    %rax,-0x1f0(%rbp)
    da07:	48 8d 85 60 f0 ff ff 	lea    -0xfa0(%rbp),%rax
    da0e:	48 89 85 18 fe ff ff 	mov    %rax,-0x1e8(%rbp)
    da15:	48 8d 85 60 f0 ff ff 	lea    -0xfa0(%rbp),%rax
    da1c:	48 89 85 20 fe ff ff 	mov    %rax,-0x1e0(%rbp)
    da23:	48 8d 85 60 f0 ff ff 	lea    -0xfa0(%rbp),%rax
    da2a:	48 89 85 28 fe ff ff 	mov    %rax,-0x1d8(%rbp)
    da31:	48 8d 85 60 f0 ff ff 	lea    -0xfa0(%rbp),%rax
    da38:	48 89 85 30 fe ff ff 	mov    %rax,-0x1d0(%rbp)
    da3f:	48 8d 85 60 f0 ff ff 	lea    -0xfa0(%rbp),%rax
    da46:	48 89 85 38 fe ff ff 	mov    %rax,-0x1c8(%rbp)
    da4d:	48 8d 85 60 f0 ff ff 	lea    -0xfa0(%rbp),%rax
    da54:	48 89 85 40 fe ff ff 	mov    %rax,-0x1c0(%rbp)
    da5b:	48 8d 85 60 f0 ff ff 	lea    -0xfa0(%rbp),%rax
    da62:	48 89 85 48 fe ff ff 	mov    %rax,-0x1b8(%rbp)
    da69:	48 8d 85 60 f0 ff ff 	lea    -0xfa0(%rbp),%rax
    da70:	48 89 85 50 fe ff ff 	mov    %rax,-0x1b0(%rbp)
    da77:	48 8d 85 60 f0 ff ff 	lea    -0xfa0(%rbp),%rax
    da7e:	48 89 85 58 fe ff ff 	mov    %rax,-0x1a8(%rbp)
    da85:	48 8d 85 60 f0 ff ff 	lea    -0xfa0(%rbp),%rax
    da8c:	48 89 85 60 fe ff ff 	mov    %rax,-0x1a0(%rbp)
    da93:	48 8d 85 60 f0 ff ff 	lea    -0xfa0(%rbp),%rax
    da9a:	48 89 85 68 fe ff ff 	mov    %rax,-0x198(%rbp)
    daa1:	48 8d 85 60 f0 ff ff 	lea    -0xfa0(%rbp),%rax
    daa8:	48 89 85 70 fe ff ff 	mov    %rax,-0x190(%rbp)
    daaf:	48 8d 85 60 f0 ff ff 	lea    -0xfa0(%rbp),%rax
    dab6:	48 89 85 78 fe ff ff 	mov    %rax,-0x188(%rbp)
    dabd:	48 8d 85 60 f0 ff ff 	lea    -0xfa0(%rbp),%rax
    dac4:	48 89 85 80 fe ff ff 	mov    %rax,-0x180(%rbp)
    dacb:	48 8d 85 60 f0 ff ff 	lea    -0xfa0(%rbp),%rax
    dad2:	48 89 85 88 fe ff ff 	mov    %rax,-0x178(%rbp)
    dad9:	48 8d 85 60 f0 ff ff 	lea    -0xfa0(%rbp),%rax
    dae0:	48 89 85 90 fe ff ff 	mov    %rax,-0x170(%rbp)
    dae7:	48 8d 85 60 f0 ff ff 	lea    -0xfa0(%rbp),%rax
    daee:	48 89 85 98 fe ff ff 	mov    %rax,-0x168(%rbp)
    daf5:	48 8d 85 60 f0 ff ff 	lea    -0xfa0(%rbp),%rax
    dafc:	48 89 85 a0 fe ff ff 	mov    %rax,-0x160(%rbp)
    db03:	48 8d 85 60 f0 ff ff 	lea    -0xfa0(%rbp),%rax
    db0a:	48 89 85 a8 fe ff ff 	mov    %rax,-0x158(%rbp)
    db11:	48 8d 85 60 f0 ff ff 	lea    -0xfa0(%rbp),%rax
    db18:	48 89 85 b0 fe ff ff 	mov    %rax,-0x150(%rbp)
    db1f:	48 8d 85 60 f0 ff ff 	lea    -0xfa0(%rbp),%rax
    db26:	48 89 85 b8 fe ff ff 	mov    %rax,-0x148(%rbp)
    db2d:	48 8d 85 60 f0 ff ff 	lea    -0xfa0(%rbp),%rax
    db34:	48 89 85 c0 fe ff ff 	mov    %rax,-0x140(%rbp)
    db3b:	48 8d 85 60 f0 ff ff 	lea    -0xfa0(%rbp),%rax
    db42:	48 89 85 c8 fe ff ff 	mov    %rax,-0x138(%rbp)
    db49:	48 8d 85 60 f0 ff ff 	lea    -0xfa0(%rbp),%rax
    db50:	48 89 85 d0 fe ff ff 	mov    %rax,-0x130(%rbp)
    db57:	48 8d 85 60 f0 ff ff 	lea    -0xfa0(%rbp),%rax
    db5e:	48 89 85 d8 fe ff ff 	mov    %rax,-0x128(%rbp)
    db65:	48 8d 85 60 f0 ff ff 	lea    -0xfa0(%rbp),%rax
    db6c:	48 89 85 e0 fe ff ff 	mov    %rax,-0x120(%rbp)
    db73:	48 8d 85 60 f0 ff ff 	lea    -0xfa0(%rbp),%rax
    db7a:	48 89 85 e8 fe ff ff 	mov    %rax,-0x118(%rbp)
    db81:	48 8d 85 60 f0 ff ff 	lea    -0xfa0(%rbp),%rax
    db88:	48 89 85 f0 fe ff ff 	mov    %rax,-0x110(%rbp)
    db8f:	48 8d 85 60 f0 ff ff 	lea    -0xfa0(%rbp),%rax
    db96:	48 89 85 f8 fe ff ff 	mov    %rax,-0x108(%rbp)
    db9d:	48 8d 85 60 f0 ff ff 	lea    -0xfa0(%rbp),%rax
    dba4:	48 89 85 00 ff ff ff 	mov    %rax,-0x100(%rbp)
    dbab:	48 c7 85 08 ff ff ff 	movq   $0x0,-0xf8(%rbp)
    dbb2:	00 00 00 00 
    dbb6:	48 8d 85 60 f0 ff ff 	lea    -0xfa0(%rbp),%rax
    dbbd:	48 89 85 10 ff ff ff 	mov    %rax,-0xf0(%rbp)
    dbc4:	48 8d 85 60 f0 ff ff 	lea    -0xfa0(%rbp),%rax
    dbcb:	48 89 85 18 ff ff ff 	mov    %rax,-0xe8(%rbp)
    dbd2:	48 8d 85 60 f0 ff ff 	lea    -0xfa0(%rbp),%rax
    dbd9:	48 89 85 20 ff ff ff 	mov    %rax,-0xe0(%rbp)
    dbe0:	48 8d 85 60 f0 ff ff 	lea    -0xfa0(%rbp),%rax
    dbe7:	48 89 85 28 ff ff ff 	mov    %rax,-0xd8(%rbp)
    dbee:	48 8d 85 60 f0 ff ff 	lea    -0xfa0(%rbp),%rax
    dbf5:	48 89 85 30 ff ff ff 	mov    %rax,-0xd0(%rbp)
    dbfc:	48 8d 85 60 f0 ff ff 	lea    -0xfa0(%rbp),%rax
    dc03:	48 89 85 38 ff ff ff 	mov    %rax,-0xc8(%rbp)
    dc0a:	48 8d 85 60 f0 ff ff 	lea    -0xfa0(%rbp),%rax
    dc11:	48 89 85 40 ff ff ff 	mov    %rax,-0xc0(%rbp)
    dc18:	48 8d 85 60 f0 ff ff 	lea    -0xfa0(%rbp),%rax
    dc1f:	48 89 85 48 ff ff ff 	mov    %rax,-0xb8(%rbp)
    dc26:	48 8d 85 60 f0 ff ff 	lea    -0xfa0(%rbp),%rax
    dc2d:	48 89 85 50 ff ff ff 	mov    %rax,-0xb0(%rbp)
    dc34:	48 8d 85 60 f0 ff ff 	lea    -0xfa0(%rbp),%rax
    dc3b:	48 89 85 58 ff ff ff 	mov    %rax,-0xa8(%rbp)
    dc42:	48 8d 85 60 f0 ff ff 	lea    -0xfa0(%rbp),%rax
    dc49:	48 89 85 60 ff ff ff 	mov    %rax,-0xa0(%rbp)
    dc50:	48 8d 85 60 f0 ff ff 	lea    -0xfa0(%rbp),%rax
    dc57:	48 89 85 68 ff ff ff 	mov    %rax,-0x98(%rbp)
    dc5e:	48 8d 85 60 f0 ff ff 	lea    -0xfa0(%rbp),%rax
    dc65:	48 89 85 70 ff ff ff 	mov    %rax,-0x90(%rbp)
    dc6c:	48 8d 85 60 f0 ff ff 	lea    -0xfa0(%rbp),%rax
    dc73:	48 89 85 78 ff ff ff 	mov    %rax,-0x88(%rbp)
    dc7a:	48 8d 85 60 f0 ff ff 	lea    -0xfa0(%rbp),%rax
    dc81:	48 89 45 80          	mov    %rax,-0x80(%rbp)
    dc85:	48 8d 85 60 f0 ff ff 	lea    -0xfa0(%rbp),%rax
    dc8c:	48 89 45 88          	mov    %rax,-0x78(%rbp)
    dc90:	48 8d 85 60 f0 ff ff 	lea    -0xfa0(%rbp),%rax
    dc97:	48 89 45 90          	mov    %rax,-0x70(%rbp)
    dc9b:	48 8d 85 60 f0 ff ff 	lea    -0xfa0(%rbp),%rax
    dca2:	48 89 45 98          	mov    %rax,-0x68(%rbp)
    dca6:	48 8d 85 60 f0 ff ff 	lea    -0xfa0(%rbp),%rax
    dcad:	48 89 45 a0          	mov    %rax,-0x60(%rbp)
    dcb1:	48 8d 85 60 f0 ff ff 	lea    -0xfa0(%rbp),%rax
    dcb8:	48 89 45 a8          	mov    %rax,-0x58(%rbp)
    dcbc:	48 c7 45 b0 00 00 00 	movq   $0x0,-0x50(%rbp)
    dcc3:	00 
    dcc4:	48 8d 85 60 f0 ff ff 	lea    -0xfa0(%rbp),%rax
    dccb:	48 89 45 b8          	mov    %rax,-0x48(%rbp)
    dccf:	48 c7 85 68 f0 ff ff 	movq   $0x0,-0xf98(%rbp)
    dcd6:	00 00 00 00 
    dcda:	48 8d 85 68 f0 ff ff 	lea    -0xf98(%rbp),%rax
    dce1:	48 89 85 c8 f0 ff ff 	mov    %rax,-0xf38(%rbp)
    dce8:	66 c7 85 fe ef ff ff 	movw   $0x1,-0x1002(%rbp)
    dcef:	01 00 
    dcf1:	c7 85 0c f0 ff ff 00 	movl   $0x0,-0xff4(%rbp)
    dcf8:	00 00 00 
    dcfb:	eb 1a                	jmp    dd17 <func_90+0xf1a>
    dcfd:	8b 85 0c f0 ff ff    	mov    -0xff4(%rbp),%eax
    dd03:	48 98                	cltq   
    dd05:	c7 84 85 40 f2 ff ff 	movl   $0x2,-0xdc0(%rbp,%rax,4)
    dd0c:	02 00 00 00 
    dd10:	83 85 0c f0 ff ff 01 	addl   $0x1,-0xff4(%rbp)
    dd17:	83 bd 0c f0 ff ff 04 	cmpl   $0x4,-0xff4(%rbp)
    dd1e:	7e dd                	jle    dcfd <func_90+0xf00>
    dd20:	48 8b 85 88 f0 ff ff 	mov    -0xf78(%rbp),%rax
    dd27:	0f b7 10             	movzwl (%rax),%edx
    dd2a:	0f b6 05 ff 92 00 00 	movzbl 0x92ff(%rip),%eax        # 17030 <g_66>
    dd31:	66 98                	cbtw   
    dd33:	21 c2                	and    %eax,%edx
    dd35:	48 8b 85 88 f0 ff ff 	mov    -0xf78(%rbp),%rax
    dd3c:	66 89 10             	mov    %dx,(%rax)
    dd3f:	48 8b 85 88 f0 ff ff 	mov    -0xf78(%rbp),%rax
    dd46:	0f b7 18             	movzwl (%rax),%ebx
    dd49:	8b 85 04 f0 ff ff    	mov    -0xffc(%rbp),%eax
    dd4f:	85 c0                	test   %eax,%eax
    dd51:	0f 84 8a 00 00 00    	je     dde1 <func_90+0xfe4>
    dd57:	8b 85 04 f0 ff ff    	mov    -0xffc(%rbp),%eax
    dd5d:	85 c0                	test   %eax,%eax
    dd5f:	75 0c                	jne    dd6d <func_90+0xf70>
    dd61:	0f b7 85 ec ef ff ff 	movzwl -0x1014(%rbp),%eax
    dd68:	66 85 c0             	test   %ax,%ax
    dd6b:	74 08                	je     dd75 <func_90+0xf78>
    dd6d:	41 bc 01 00 00 00    	mov    $0x1,%r12d
    dd73:	eb 06                	jmp    dd7b <func_90+0xf7e>
    dd75:	41 bc 00 00 00 00    	mov    $0x0,%r12d
    dd7b:	48 8b 85 a8 f0 ff ff 	mov    -0xf58(%rbp),%rax
    dd82:	48 8b 00             	mov    (%rax),%rax
    dd85:	48 8d 48 ff          	lea    -0x1(%rax),%rcx
    dd89:	48 8b 95 a8 f0 ff ff 	mov    -0xf58(%rbp),%rdx
    dd90:	48 89 0a             	mov    %rcx,(%rdx)
    dd93:	88 05 2f 94 00 00    	mov    %al,0x942f(%rip)        # 171c8 <g_143>
    dd99:	0f b6 05 28 94 00 00 	movzbl 0x9428(%rip),%eax        # 171c8 <g_143>
    dda0:	66 98                	cbtw   
    dda2:	66 35 02 18          	xor    $0x1802,%ax
    dda6:	0f b7 c0             	movzwl %ax,%eax
    dda9:	be 08 00 00 00       	mov    $0x8,%esi
    ddae:	89 c7                	mov    %eax,%edi
    ddb0:	e8 51 90 ff ff       	callq  6e06 <safe_lshift_func_uint16_t_u_u>
    ddb5:	0f b7 95 ec ef ff ff 	movzwl -0x1014(%rbp),%edx
    ddbc:	31 d0                	xor    %edx,%eax
    ddbe:	0f b7 c0             	movzwl %ax,%eax
    ddc1:	41 39 c4             	cmp    %eax,%r12d
    ddc4:	0f 9c c0             	setl   %al
    ddc7:	0f b6 c0             	movzbl %al,%eax
    ddca:	89 85 04 f0 ff ff    	mov    %eax,-0xffc(%rbp)
    ddd0:	8b 85 04 f0 ff ff    	mov    -0xffc(%rbp),%eax
    ddd6:	85 c0                	test   %eax,%eax
    ddd8:	74 07                	je     dde1 <func_90+0xfe4>
    ddda:	ba 01 00 00 00       	mov    $0x1,%edx
    dddf:	eb 05                	jmp    dde6 <func_90+0xfe9>
    dde1:	ba 00 00 00 00       	mov    $0x0,%edx
    dde6:	0f b6 05 43 92 00 00 	movzbl 0x9243(%rip),%eax        # 17030 <g_66>
    dded:	0f b6 c0             	movzbl %al,%eax
    ddf0:	89 d6                	mov    %edx,%esi
    ddf2:	89 c7                	mov    %eax,%edi
    ddf4:	e8 94 8e ff ff       	callq  6c8d <safe_rshift_func_uint8_t_u_s>
    ddf9:	0f b6 d0             	movzbl %al,%edx
    ddfc:	8b 85 e8 ef ff ff    	mov    -0x1018(%rbp),%eax
    de02:	39 c2                	cmp    %eax,%edx
    de04:	0f 9e c0             	setle  %al
    de07:	0f b6 c0             	movzbl %al,%eax
    de0a:	89 85 48 f2 ff ff    	mov    %eax,-0xdb8(%rbp)
    de10:	8b 85 48 f2 ff ff    	mov    -0xdb8(%rbp),%eax
    de16:	f7 d0                	not    %eax
    de18:	48 63 d0             	movslq %eax,%rdx
    de1b:	48 8b 05 1e 92 00 00 	mov    0x921e(%rip),%rax        # 17040 <g_71>
    de22:	48 89 c1             	mov    %rax,%rcx
    de25:	48 b8 b0 f6 cc 6f 38 	movabs $0x90b87a386fccf6b0,%rax
    de2c:	7a b8 90 
    de2f:	48 39 c1             	cmp    %rax,%rcx
    de32:	0f 97 c0             	seta   %al
    de35:	0f b6 c0             	movzbl %al,%eax
    de38:	48 89 d6             	mov    %rdx,%rsi
    de3b:	48 89 c7             	mov    %rax,%rdi
    de3e:	e8 b4 8b ff ff       	callq  69f7 <safe_div_func_int64_t_s_s>
    de43:	48 8b 85 90 f0 ff ff 	mov    -0xf70(%rbp),%rax
    de4a:	0f b7 00             	movzwl (%rax),%eax
    de4d:	09 c3                	or     %eax,%ebx
    de4f:	89 da                	mov    %ebx,%edx
    de51:	48 8b 85 90 f0 ff ff 	mov    -0xf70(%rbp),%rax
    de58:	66 89 10             	mov    %dx,(%rax)
    de5b:	48 8b 85 90 f0 ff ff 	mov    -0xf70(%rbp),%rax
    de62:	0f b7 00             	movzwl (%rax),%eax
    de65:	0f bf d0             	movswl %ax,%edx
    de68:	8b 85 48 f2 ff ff    	mov    -0xdb8(%rbp),%eax
    de6e:	21 d0                	and    %edx,%eax
    de70:	85 c0                	test   %eax,%eax
    de72:	0f 84 de 18 00 00    	je     f756 <func_90+0x2959>
    de78:	c7 85 20 f3 ff ff 78 	movl   $0x8ecb2a78,-0xce0(%rbp)
    de7f:	2a cb 8e 
    de82:	c7 85 24 f3 ff ff 78 	movl   $0x8ecb2a78,-0xcdc(%rbp)
    de89:	2a cb 8e 
    de8c:	c7 85 28 f3 ff ff 04 	movl   $0x4,-0xcd8(%rbp)
    de93:	00 00 00 
    de96:	c7 85 2c f3 ff ff 04 	movl   $0x4,-0xcd4(%rbp)
    de9d:	00 00 00 
    dea0:	c7 85 30 f3 ff ff 78 	movl   $0x8ecb2a78,-0xcd0(%rbp)
    dea7:	2a cb 8e 
    deaa:	c7 85 34 f3 ff ff 78 	movl   $0x8ecb2a78,-0xccc(%rbp)
    deb1:	2a cb 8e 
    deb4:	c7 85 38 f3 ff ff 78 	movl   $0x8ecb2a78,-0xcc8(%rbp)
    debb:	2a cb 8e 
    debe:	c7 85 3c f3 ff ff 04 	movl   $0x4,-0xcc4(%rbp)
    dec5:	00 00 00 
    dec8:	c7 85 40 f3 ff ff 04 	movl   $0x4,-0xcc0(%rbp)
    decf:	00 00 00 
    ded2:	c7 85 44 f3 ff ff 78 	movl   $0x8ecb2a78,-0xcbc(%rbp)
    ded9:	2a cb 8e 
    dedc:	c7 85 48 f3 ff ff 78 	movl   $0x8ecb2a78,-0xcb8(%rbp)
    dee3:	2a cb 8e 
    dee6:	c7 85 4c f3 ff ff 04 	movl   $0x4,-0xcb4(%rbp)
    deed:	00 00 00 
    def0:	c7 85 50 f3 ff ff 78 	movl   $0x8ecb2a78,-0xcb0(%rbp)
    def7:	2a cb 8e 
    defa:	c7 85 54 f3 ff ff 78 	movl   $0x8ecb2a78,-0xcac(%rbp)
    df01:	2a cb 8e 
    df04:	c7 85 58 f3 ff ff 04 	movl   $0x4,-0xca8(%rbp)
    df0b:	00 00 00 
    df0e:	c7 85 5c f3 ff ff 04 	movl   $0x4,-0xca4(%rbp)
    df15:	00 00 00 
    df18:	c7 85 60 f3 ff ff 78 	movl   $0x8ecb2a78,-0xca0(%rbp)
    df1f:	2a cb 8e 
    df22:	c7 85 64 f3 ff ff 78 	movl   $0x8ecb2a78,-0xc9c(%rbp)
    df29:	2a cb 8e 
    df2c:	c7 85 68 f3 ff ff 78 	movl   $0x8ecb2a78,-0xc98(%rbp)
    df33:	2a cb 8e 
    df36:	c7 85 6c f3 ff ff 04 	movl   $0x4,-0xc94(%rbp)
    df3d:	00 00 00 
    df40:	c7 85 70 f3 ff ff 04 	movl   $0x4,-0xc90(%rbp)
    df47:	00 00 00 
    df4a:	c7 85 74 f3 ff ff 78 	movl   $0x8ecb2a78,-0xc8c(%rbp)
    df51:	2a cb 8e 
    df54:	c7 85 78 f3 ff ff 78 	movl   $0x8ecb2a78,-0xc88(%rbp)
    df5b:	2a cb 8e 
    df5e:	c7 85 7c f3 ff ff 04 	movl   $0x4,-0xc84(%rbp)
    df65:	00 00 00 
    df68:	c7 85 80 f3 ff ff 78 	movl   $0x8ecb2a78,-0xc80(%rbp)
    df6f:	2a cb 8e 
    df72:	c7 85 84 f3 ff ff 78 	movl   $0x8ecb2a78,-0xc7c(%rbp)
    df79:	2a cb 8e 
    df7c:	c7 85 88 f3 ff ff 04 	movl   $0x4,-0xc78(%rbp)
    df83:	00 00 00 
    df86:	c7 85 8c f3 ff ff 04 	movl   $0x4,-0xc74(%rbp)
    df8d:	00 00 00 
    df90:	c7 85 90 f3 ff ff 78 	movl   $0x8ecb2a78,-0xc70(%rbp)
    df97:	2a cb 8e 
    df9a:	c7 85 94 f3 ff ff 78 	movl   $0x8ecb2a78,-0xc6c(%rbp)
    dfa1:	2a cb 8e 
    dfa4:	c7 85 98 f3 ff ff 78 	movl   $0x8ecb2a78,-0xc68(%rbp)
    dfab:	2a cb 8e 
    dfae:	c7 85 9c f3 ff ff 04 	movl   $0x4,-0xc64(%rbp)
    dfb5:	00 00 00 
    dfb8:	c7 85 a0 f3 ff ff 04 	movl   $0x4,-0xc60(%rbp)
    dfbf:	00 00 00 
    dfc2:	c7 85 a4 f3 ff ff 78 	movl   $0x8ecb2a78,-0xc5c(%rbp)
    dfc9:	2a cb 8e 
    dfcc:	c7 85 a8 f3 ff ff 78 	movl   $0x8ecb2a78,-0xc58(%rbp)
    dfd3:	2a cb 8e 
    dfd6:	c7 85 ac f3 ff ff 04 	movl   $0x4,-0xc54(%rbp)
    dfdd:	00 00 00 
    dfe0:	c7 85 b0 f3 ff ff 78 	movl   $0x8ecb2a78,-0xc50(%rbp)
    dfe7:	2a cb 8e 
    dfea:	c7 85 b4 f3 ff ff 78 	movl   $0x8ecb2a78,-0xc4c(%rbp)
    dff1:	2a cb 8e 
    dff4:	c7 85 b8 f3 ff ff 04 	movl   $0x4,-0xc48(%rbp)
    dffb:	00 00 00 
    dffe:	c7 85 bc f3 ff ff 04 	movl   $0x4,-0xc44(%rbp)
    e005:	00 00 00 
    e008:	c7 85 c0 f3 ff ff 78 	movl   $0x8ecb2a78,-0xc40(%rbp)
    e00f:	2a cb 8e 
    e012:	c7 85 c4 f3 ff ff 78 	movl   $0x8ecb2a78,-0xc3c(%rbp)
    e019:	2a cb 8e 
    e01c:	48 8d 05 a5 91 00 00 	lea    0x91a5(%rip),%rax        # 171c8 <g_143>
    e023:	48 89 85 e0 f0 ff ff 	mov    %rax,-0xf20(%rbp)
    e02a:	48 8d 05 fb 8f 00 00 	lea    0x8ffb(%rip),%rax        # 1702c <g_49>
    e031:	48 89 85 80 f2 ff ff 	mov    %rax,-0xd80(%rbp)
    e038:	48 8d 85 40 f2 ff ff 	lea    -0xdc0(%rbp),%rax
    e03f:	48 83 c0 08          	add    $0x8,%rax
    e043:	48 89 85 88 f2 ff ff 	mov    %rax,-0xd78(%rbp)
    e04a:	48 8d 05 db 8f 00 00 	lea    0x8fdb(%rip),%rax        # 1702c <g_49>
    e051:	48 89 85 90 f2 ff ff 	mov    %rax,-0xd70(%rbp)
    e058:	48 8d 05 cd 8f 00 00 	lea    0x8fcd(%rip),%rax        # 1702c <g_49>
    e05f:	48 89 85 98 f2 ff ff 	mov    %rax,-0xd68(%rbp)
    e066:	48 8d 85 40 f2 ff ff 	lea    -0xdc0(%rbp),%rax
    e06d:	48 83 c0 08          	add    $0x8,%rax
    e071:	48 89 85 a0 f2 ff ff 	mov    %rax,-0xd60(%rbp)
    e078:	48 8d 05 ad 8f 00 00 	lea    0x8fad(%rip),%rax        # 1702c <g_49>
    e07f:	48 89 85 a8 f2 ff ff 	mov    %rax,-0xd58(%rbp)
    e086:	48 8d 05 9f 8f 00 00 	lea    0x8f9f(%rip),%rax        # 1702c <g_49>
    e08d:	48 89 85 b0 f2 ff ff 	mov    %rax,-0xd50(%rbp)
    e094:	48 8d 05 45 ae 00 00 	lea    0xae45(%rip),%rax        # 18ee0 <g_226>
    e09b:	48 89 85 e8 f0 ff ff 	mov    %rax,-0xf18(%rbp)
    e0a2:	48 8d 05 29 93 00 00 	lea    0x9329(%rip),%rax        # 173d2 <g_346>
    e0a9:	48 89 85 c0 f2 ff ff 	mov    %rax,-0xd40(%rbp)
    e0b0:	48 8d 05 1b 93 00 00 	lea    0x931b(%rip),%rax        # 173d2 <g_346>
    e0b7:	48 89 85 c8 f2 ff ff 	mov    %rax,-0xd38(%rbp)
    e0be:	48 8d 05 09 93 00 00 	lea    0x9309(%rip),%rax        # 173ce <g_344>
    e0c5:	48 89 85 d0 f2 ff ff 	mov    %rax,-0xd30(%rbp)
    e0cc:	48 8d 05 f9 92 00 00 	lea    0x92f9(%rip),%rax        # 173cc <g_343>
    e0d3:	48 89 85 d8 f2 ff ff 	mov    %rax,-0xd28(%rbp)
    e0da:	48 8d 05 eb 92 00 00 	lea    0x92eb(%rip),%rax        # 173cc <g_343>
    e0e1:	48 89 85 e0 f2 ff ff 	mov    %rax,-0xd20(%rbp)
    e0e8:	48 8d 05 39 c0 00 00 	lea    0xc039(%rip),%rax        # 1a128 <g_341>
    e0ef:	48 89 85 e8 f2 ff ff 	mov    %rax,-0xd18(%rbp)
    e0f6:	48 8d 05 d5 92 00 00 	lea    0x92d5(%rip),%rax        # 173d2 <g_346>
    e0fd:	48 89 85 f0 f2 ff ff 	mov    %rax,-0xd10(%rbp)
    e104:	48 8d 05 c7 92 00 00 	lea    0x92c7(%rip),%rax        # 173d2 <g_346>
    e10b:	48 89 85 f8 f2 ff ff 	mov    %rax,-0xd08(%rbp)
    e112:	48 8d 05 b5 92 00 00 	lea    0x92b5(%rip),%rax        # 173ce <g_344>
    e119:	48 89 85 00 f3 ff ff 	mov    %rax,-0xd00(%rbp)
    e120:	48 8d 05 a5 92 00 00 	lea    0x92a5(%rip),%rax        # 173cc <g_343>
    e127:	48 89 85 08 f3 ff ff 	mov    %rax,-0xcf8(%rbp)
    e12e:	48 8d 05 97 92 00 00 	lea    0x9297(%rip),%rax        # 173cc <g_343>
    e135:	48 89 85 10 f3 ff ff 	mov    %rax,-0xcf0(%rbp)
    e13c:	48 8d 05 e5 bf 00 00 	lea    0xbfe5(%rip),%rax        # 1a128 <g_341>
    e143:	48 89 85 18 f3 ff ff 	mov    %rax,-0xce8(%rbp)
    e14a:	8b 85 c0 f3 ff ff    	mov    -0xc40(%rbp),%eax
    e150:	83 f8 01             	cmp    $0x1,%eax
    e153:	0f 96 c0             	setbe  %al
    e156:	0f b6 c0             	movzbl %al,%eax
    e159:	be 00 00 00 00       	mov    $0x0,%esi
    e15e:	89 c7                	mov    %eax,%edi
    e160:	e8 3c 81 ff ff       	callq  62a1 <safe_lshift_func_int8_t_s_s>
    e165:	0f b6 c0             	movzbl %al,%eax
    e168:	be 00 00 00 00       	mov    $0x0,%esi
    e16d:	89 c7                	mov    %eax,%edi
    e16f:	e8 04 8a ff ff       	callq  6b78 <safe_sub_func_uint8_t_u_u>
    e174:	44 0f b6 e8          	movzbl %al,%r13d
    e178:	48 8b 05 71 8f 00 00 	mov    0x8f71(%rip),%rax        # 170f0 <g_140+0x90>
    e17f:	41 89 c6             	mov    %eax,%r14d
    e182:	48 8b 1d f7 8e 00 00 	mov    0x8ef7(%rip),%rbx        # 17080 <g_140+0x20>
    e189:	48 8b 05 10 8f 00 00 	mov    0x8f10(%rip),%rax        # 170a0 <g_140+0x40>
    e190:	44 0f b7 e0          	movzwl %ax,%r12d
    e194:	8b 95 50 f3 ff ff    	mov    -0xcb0(%rbp),%edx
    e19a:	48 8b 85 e0 f0 ff ff 	mov    -0xf20(%rbp),%rax
    e1a1:	0f b6 00             	movzbl (%rax),%eax
    e1a4:	89 c1                	mov    %eax,%ecx
    e1a6:	8b 05 8c 8e 00 00    	mov    0x8e8c(%rip),%eax        # 17038 <g_68>
    e1ac:	83 f8 01             	cmp    $0x1,%eax
    e1af:	0f 94 c0             	sete   %al
    e1b2:	89 c6                	mov    %eax,%esi
    e1b4:	8b 05 7e 8e 00 00    	mov    0x8e7e(%rip),%eax        # 17038 <g_68>
    e1ba:	31 f0                	xor    %esi,%eax
    e1bc:	31 c8                	xor    %ecx,%eax
    e1be:	89 c1                	mov    %eax,%ecx
    e1c0:	48 8b 85 e0 f0 ff ff 	mov    -0xf20(%rbp),%rax
    e1c7:	88 08                	mov    %cl,(%rax)
    e1c9:	48 8b 85 e0 f0 ff ff 	mov    -0xf20(%rbp),%rax
    e1d0:	0f b6 00             	movzbl (%rax),%eax
    e1d3:	0f be c0             	movsbl %al,%eax
    e1d6:	89 d6                	mov    %edx,%esi
    e1d8:	89 c7                	mov    %eax,%edi
    e1da:	e8 0f 81 ff ff       	callq  62ee <safe_lshift_func_int8_t_s_u>
    e1df:	66 98                	cbtw   
    e1e1:	0f b7 c0             	movzwl %ax,%eax
    e1e4:	44 89 e6             	mov    %r12d,%esi
    e1e7:	89 c7                	mov    %eax,%edi
    e1e9:	e8 4f 8b ff ff       	callq  6d3d <safe_mul_func_uint16_t_u_u>
    e1ee:	0f b7 c0             	movzwl %ax,%eax
    e1f1:	48 89 de             	mov    %rbx,%rsi
    e1f4:	48 89 c7             	mov    %rax,%rdi
    e1f7:	e8 84 8e ff ff       	callq  7080 <safe_mod_func_uint64_t_u_u>
    e1fc:	0f b7 c0             	movzwl %ax,%eax
    e1ff:	44 89 f6             	mov    %r14d,%esi
    e202:	89 c7                	mov    %eax,%edi
    e204:	e8 3f 8c ff ff       	callq  6e48 <safe_rshift_func_uint16_t_u_s>
    e209:	66 41 39 c5          	cmp    %ax,%r13w
    e20d:	0f 84 60 0c 00 00    	je     ee73 <func_90+0x2076>
    e213:	48 c7 85 18 f1 ff ff 	movq   $0x2,-0xee8(%rbp)
    e21a:	02 00 00 00 
    e21e:	48 8d 85 04 f0 ff ff 	lea    -0xffc(%rbp),%rax
    e225:	48 89 85 70 f0 ff ff 	mov    %rax,-0xf90(%rbp)
    e22c:	48 c7 85 20 f1 ff ff 	movq   $0x0,-0xee0(%rbp)
    e233:	00 00 00 00 
    e237:	48 c7 85 28 f1 ff ff 	movq   $0x0,-0xed8(%rbp)
    e23e:	00 00 00 00 
    e242:	48 8d 05 87 8f 00 00 	lea    0x8f87(%rip),%rax        # 171d0 <g_184>
    e249:	48 89 85 30 f1 ff ff 	mov    %rax,-0xed0(%rbp)
    e250:	48 8d 05 89 8f 00 00 	lea    0x8f89(%rip),%rax        # 171e0 <g_195>
    e257:	48 89 85 38 f1 ff ff 	mov    %rax,-0xec8(%rbp)
    e25e:	c7 85 08 f0 ff ff b7 	movl   $0x2e92e3b7,-0xff8(%rbp)
    e265:	e3 92 2e 
    e268:	c7 85 2c f0 ff ff b1 	movl   $0x66b1c7b1,-0xfd4(%rbp)
    e26f:	c7 b1 66 
    e272:	c7 85 30 f0 ff ff f8 	movl   $0xfffffff8,-0xfd0(%rbp)
    e279:	ff ff ff 
    e27c:	48 8d 85 fa ef ff ff 	lea    -0x1006(%rbp),%rax
    e283:	48 89 85 78 f0 ff ff 	mov    %rax,-0xf88(%rbp)
    e28a:	48 8d 85 78 f0 ff ff 	lea    -0xf88(%rbp),%rax
    e291:	48 89 85 40 f1 ff ff 	mov    %rax,-0xec0(%rbp)
    e298:	8b 05 96 8d 00 00    	mov    0x8d96(%rip),%eax        # 17034 <g_67>
    e29e:	89 c2                	mov    %eax,%edx
    e2a0:	48 8b 85 88 f0 ff ff 	mov    -0xf78(%rbp),%rax
    e2a7:	66 89 10             	mov    %dx,(%rax)
    e2aa:	8b 85 ac f3 ff ff    	mov    -0xc54(%rbp),%eax
    e2b0:	0f b7 d0             	movzwl %ax,%edx
    e2b3:	8b 85 e8 ef ff ff    	mov    -0x1018(%rbp),%eax
    e2b9:	66 89 85 ec ef ff ff 	mov    %ax,-0x1014(%rbp)
    e2c0:	0f b7 85 ec ef ff ff 	movzwl -0x1014(%rbp),%eax
    e2c7:	8b 8d 48 f2 ff ff    	mov    -0xdb8(%rbp),%ecx
    e2cd:	0f b7 c0             	movzwl %ax,%eax
    e2d0:	21 c8                	and    %ecx,%eax
    e2d2:	89 85 48 f2 ff ff    	mov    %eax,-0xdb8(%rbp)
    e2d8:	8b 85 48 f2 ff ff    	mov    -0xdb8(%rbp),%eax
    e2de:	0f b7 c0             	movzwl %ax,%eax
    e2e1:	89 d6                	mov    %edx,%esi
    e2e3:	89 c7                	mov    %eax,%edi
    e2e5:	e8 53 8a ff ff       	callq  6d3d <safe_mul_func_uint16_t_u_u>
    e2ea:	0f b7 c0             	movzwl %ax,%eax
    e2ed:	ba 1b ca f6 b2       	mov    $0xb2f6ca1b,%edx
    e2f2:	48 09 d0             	or     %rdx,%rax
    e2f5:	48 83 f8 05          	cmp    $0x5,%rax
    e2f9:	0f 96 c0             	setbe  %al
    e2fc:	0f b6 c0             	movzbl %al,%eax
    e2ff:	be 35 00 00 00       	mov    $0x35,%esi
    e304:	89 c7                	mov    %eax,%edi
    e306:	e8 e7 7e ff ff       	callq  61f2 <safe_sub_func_int8_t_s_s>
    e30b:	0f b7 85 ec ef ff ff 	movzwl -0x1014(%rbp),%eax
    e312:	0f b7 d8             	movzwl %ax,%ebx
    e315:	0f b7 85 ec ef ff ff 	movzwl -0x1014(%rbp),%eax
    e31c:	66 85 c0             	test   %ax,%ax
    e31f:	75 0a                	jne    e32b <func_90+0x152e>
    e321:	8b 05 11 8d 00 00    	mov    0x8d11(%rip),%eax        # 17038 <g_68>
    e327:	85 c0                	test   %eax,%eax
    e329:	74 07                	je     e332 <func_90+0x1535>
    e32b:	b8 01 00 00 00       	mov    $0x1,%eax
    e330:	eb 05                	jmp    e337 <func_90+0x153a>
    e332:	b8 00 00 00 00       	mov    $0x0,%eax
    e337:	0f b6 d0             	movzbl %al,%edx
    e33a:	48 8b 85 18 f1 ff ff 	mov    -0xee8(%rbp),%rax
    e341:	0f b6 c0             	movzbl %al,%eax
    e344:	89 d6                	mov    %edx,%esi
    e346:	89 c7                	mov    %eax,%edi
    e348:	e8 0d 88 ff ff       	callq  6b5a <safe_add_func_uint8_t_u_u>
    e34d:	0f b6 c0             	movzbl %al,%eax
    e350:	be fb ff 00 00       	mov    $0xfffb,%esi
    e355:	89 c7                	mov    %eax,%edi
    e357:	e8 e1 89 ff ff       	callq  6d3d <safe_mul_func_uint16_t_u_u>
    e35c:	0f b7 c0             	movzwl %ax,%eax
    e35f:	48 89 de             	mov    %rbx,%rsi
    e362:	48 89 c7             	mov    %rax,%rdi
    e365:	e8 4a 86 ff ff       	callq  69b4 <safe_mod_func_int64_t_s_s>
    e36a:	0f b7 95 fa ef ff ff 	movzwl -0x1006(%rbp),%edx
    e371:	48 8b 85 70 f0 ff ff 	mov    -0xf90(%rbp),%rax
    e378:	0f b7 d2             	movzwl %dx,%edx
    e37b:	89 10                	mov    %edx,(%rax)
    e37d:	0f b7 85 ec ef ff ff 	movzwl -0x1014(%rbp),%eax
    e384:	0f b7 d0             	movzwl %ax,%edx
    e387:	8b 05 a7 8c 00 00    	mov    0x8ca7(%rip),%eax        # 17034 <g_67>
    e38d:	39 c2                	cmp    %eax,%edx
    e38f:	0f 9e c0             	setle  %al
    e392:	44 0f b6 e0          	movzbl %al,%r12d
    e396:	48 8b 85 70 f0 ff ff 	mov    -0xf90(%rbp),%rax
    e39d:	8b 00                	mov    (%rax),%eax
    e39f:	0f be d8             	movsbl %al,%ebx
    e3a2:	48 8b 85 30 f1 ff ff 	mov    -0xed0(%rbp),%rax
    e3a9:	0f b6 00             	movzbl (%rax),%eax
    e3ac:	8d 48 ff             	lea    -0x1(%rax),%ecx
    e3af:	48 8b 95 30 f1 ff ff 	mov    -0xed0(%rbp),%rdx
    e3b6:	88 0a                	mov    %cl,(%rdx)
    e3b8:	44 0f b6 e8          	movzbl %al,%r13d
    e3bc:	0f b7 05 65 8c 00 00 	movzwl 0x8c65(%rip),%eax        # 17028 <g_12>
    e3c3:	0f b7 d0             	movzwl %ax,%edx
    e3c6:	48 8b 85 70 f0 ff ff 	mov    -0xf90(%rbp),%rax
    e3cd:	8b 00                	mov    (%rax),%eax
    e3cf:	0f b7 c0             	movzwl %ax,%eax
    e3d2:	89 d6                	mov    %edx,%esi
    e3d4:	89 c7                	mov    %eax,%edi
    e3d6:	e8 9f 8a ff ff       	callq  6e7a <safe_rshift_func_uint16_t_u_u>
    e3db:	44 0f b7 f0          	movzwl %ax,%r14d
    e3df:	8b 85 20 f3 ff ff    	mov    -0xce0(%rbp),%eax
    e3e5:	0f bf d0             	movswl %ax,%edx
    e3e8:	8b 05 46 8c 00 00    	mov    0x8c46(%rip),%eax        # 17034 <g_67>
    e3ee:	98                   	cwtl   
    e3ef:	89 d6                	mov    %edx,%esi
    e3f1:	89 c7                	mov    %eax,%edi
    e3f3:	e8 db 7f ff ff       	callq  63d3 <safe_sub_func_int16_t_s_s>
    e3f8:	0f bf f0             	movswl %ax,%esi
    e3fb:	48 8b 85 38 f1 ff ff 	mov    -0xec8(%rbp),%rax
    e402:	0f b6 00             	movzbl (%rax),%eax
    e405:	8d 48 01             	lea    0x1(%rax),%ecx
    e408:	48 8b 95 38 f1 ff ff 	mov    -0xec8(%rbp),%rdx
    e40f:	88 0a                	mov    %cl,(%rdx)
    e411:	0f b6 c0             	movzbl %al,%eax
    e414:	31 f0                	xor    %esi,%eax
    e416:	44 09 f0             	or     %r14d,%eax
    e419:	be 01 00 00 00       	mov    $0x1,%esi
    e41e:	89 c7                	mov    %eax,%edi
    e420:	e8 ab 8a ff ff       	callq  6ed0 <safe_sub_func_uint32_t_u_u>
    e425:	41 39 c5             	cmp    %eax,%r13d
    e428:	0f 95 c0             	setne  %al
    e42b:	0f b6 c0             	movzbl %al,%eax
    e42e:	89 de                	mov    %ebx,%esi
    e430:	89 c7                	mov    %eax,%edi
    e432:	e8 33 7e ff ff       	callq  626a <safe_div_func_int8_t_s_s>
    e437:	0f be c0             	movsbl %al,%eax
    e43a:	f7 d0                	not    %eax
    e43c:	44 21 e0             	and    %r12d,%eax
    e43f:	89 c2                	mov    %eax,%edx
    e441:	48 8b 05 38 8c 00 00 	mov    0x8c38(%rip),%rax        # 17080 <g_140+0x20>
    e448:	21 d0                	and    %edx,%eax
    e44a:	89 c6                	mov    %eax,%esi
    e44c:	bf ff ff ff ff       	mov    $0xffffffff,%edi
    e451:	e8 76 82 ff ff       	callq  66cc <safe_mod_func_int32_t_s_s>
    e456:	8b 95 e8 ef ff ff    	mov    -0x1018(%rbp),%edx
    e45c:	21 d0                	and    %edx,%eax
    e45e:	85 c0                	test   %eax,%eax
    e460:	0f 84 1e 07 00 00    	je     eb84 <func_90+0x1d87>
    e466:	c6 85 f9 ef ff ff ff 	movb   $0xff,-0x1007(%rbp)
    e46d:	48 8d 05 6c aa 00 00 	lea    0xaa6c(%rip),%rax        # 18ee0 <g_226>
    e474:	48 89 85 80 f0 ff ff 	mov    %rax,-0xf80(%rbp)
    e47b:	48 8d 85 80 f0 ff ff 	lea    -0xf80(%rbp),%rax
    e482:	48 89 85 60 f1 ff ff 	mov    %rax,-0xea0(%rbp)
    e489:	c7 85 40 f0 ff ff f8 	movl   $0xfffffff8,-0xfc0(%rbp)
    e490:	ff ff ff 
    e493:	66 c7 85 02 f0 ff ff 	movw   $0x1,-0xffe(%rbp)
    e49a:	01 00 
    e49c:	66 c7 05 a9 8b 00 00 	movw   $0x3,0x8ba9(%rip)        # 1704e <g_128>
    e4a3:	03 00 
    e4a5:	90                   	nop
    e4a6:	0f b7 05 a1 8b 00 00 	movzwl 0x8ba1(%rip),%eax        # 1704e <g_128>
    e4ad:	66 85 c0             	test   %ax,%ax
    e4b0:	0f 88 c8 01 00 00    	js     e67e <func_90+0x1881>
    e4b6:	48 8d 05 6f 8b 00 00 	lea    0x8b6f(%rip),%rax        # 1702c <g_49>
    e4bd:	48 89 85 80 f1 ff ff 	mov    %rax,-0xe80(%rbp)
    e4c4:	48 8d 05 61 8b 00 00 	lea    0x8b61(%rip),%rax        # 1702c <g_49>
    e4cb:	48 89 85 88 f1 ff ff 	mov    %rax,-0xe78(%rbp)
    e4d2:	48 8d 85 04 f0 ff ff 	lea    -0xffc(%rbp),%rax
    e4d9:	48 89 85 90 f1 ff ff 	mov    %rax,-0xe70(%rbp)
    e4e0:	48 8d 05 e5 8c 00 00 	lea    0x8ce5(%rip),%rax        # 171cc <g_180>
    e4e7:	48 89 85 98 f1 ff ff 	mov    %rax,-0xe68(%rbp)
    e4ee:	48 8d 85 04 f0 ff ff 	lea    -0xffc(%rbp),%rax
    e4f5:	48 89 85 a0 f1 ff ff 	mov    %rax,-0xe60(%rbp)
    e4fc:	48 8d 05 29 8b 00 00 	lea    0x8b29(%rip),%rax        # 1702c <g_49>
    e503:	48 89 85 a8 f1 ff ff 	mov    %rax,-0xe58(%rbp)
    e50a:	48 8d 85 40 f2 ff ff 	lea    -0xdc0(%rbp),%rax
    e511:	48 83 c0 08          	add    $0x8,%rax
    e515:	48 89 85 b0 f1 ff ff 	mov    %rax,-0xe50(%rbp)
    e51c:	48 c7 85 b8 f1 ff ff 	movq   $0x0,-0xe48(%rbp)
    e523:	00 00 00 00 
    e527:	48 c7 85 c0 f1 ff ff 	movq   $0x0,-0xe40(%rbp)
    e52e:	00 00 00 00 
    e532:	48 8d 85 40 f2 ff ff 	lea    -0xdc0(%rbp),%rax
    e539:	48 83 c0 08          	add    $0x8,%rax
    e53d:	48 89 85 c8 f1 ff ff 	mov    %rax,-0xe38(%rbp)
    e544:	48 8d 85 04 f0 ff ff 	lea    -0xffc(%rbp),%rax
    e54b:	48 89 85 d0 f1 ff ff 	mov    %rax,-0xe30(%rbp)
    e552:	48 8d 05 d3 8a 00 00 	lea    0x8ad3(%rip),%rax        # 1702c <g_49>
    e559:	48 89 85 d8 f1 ff ff 	mov    %rax,-0xe28(%rbp)
    e560:	48 8d 85 04 f0 ff ff 	lea    -0xffc(%rbp),%rax
    e567:	48 89 85 e0 f1 ff ff 	mov    %rax,-0xe20(%rbp)
    e56e:	48 8d 05 57 8c 00 00 	lea    0x8c57(%rip),%rax        # 171cc <g_180>
    e575:	48 89 85 e8 f1 ff ff 	mov    %rax,-0xe18(%rbp)
    e57c:	48 c7 85 f0 f1 ff ff 	movq   $0x0,-0xe10(%rbp)
    e583:	00 00 00 00 
    e587:	48 c7 85 f8 f1 ff ff 	movq   $0x0,-0xe08(%rbp)
    e58e:	00 00 00 00 
    e592:	48 8d 85 08 f0 ff ff 	lea    -0xff8(%rbp),%rax
    e599:	48 89 85 00 f2 ff ff 	mov    %rax,-0xe00(%rbp)
    e5a0:	48 c7 85 08 f2 ff ff 	movq   $0x0,-0xdf8(%rbp)
    e5a7:	00 00 00 00 
    e5ab:	48 c7 85 10 f2 ff ff 	movq   $0x0,-0xdf0(%rbp)
    e5b2:	00 00 00 00 
    e5b6:	48 8d 05 0f 8c 00 00 	lea    0x8c0f(%rip),%rax        # 171cc <g_180>
    e5bd:	48 89 85 18 f2 ff ff 	mov    %rax,-0xde8(%rbp)
    e5c4:	48 8d 85 40 f2 ff ff 	lea    -0xdc0(%rbp),%rax
    e5cb:	48 83 c0 10          	add    $0x10,%rax
    e5cf:	48 89 85 20 f2 ff ff 	mov    %rax,-0xde0(%rbp)
    e5d6:	48 c7 85 28 f2 ff ff 	movq   $0x0,-0xdd8(%rbp)
    e5dd:	00 00 00 00 
    e5e1:	48 8d 85 d0 f3 ff ff 	lea    -0xc30(%rbp),%rax
    e5e8:	48 8d 15 31 a7 00 00 	lea    0xa731(%rip),%rdx        # 18d20 <g_1704+0xdf8>
    e5ef:	b9 38 00 00 00       	mov    $0x38,%ecx
    e5f4:	48 89 c7             	mov    %rax,%rdi
    e5f7:	48 89 d6             	mov    %rdx,%rsi
    e5fa:	f3 48 a5             	rep movsq %ds:(%rsi),%es:(%rdi)
    e5fd:	c7 85 10 f0 ff ff 00 	movl   $0x0,-0xff0(%rbp)
    e604:	00 00 00 
    e607:	eb 1e                	jmp    e627 <func_90+0x182a>
    e609:	8b 85 10 f0 ff ff    	mov    -0xff0(%rbp),%eax
    e60f:	48 98                	cltq   
    e611:	48 8d 95 04 f0 ff ff 	lea    -0xffc(%rbp),%rdx
    e618:	48 89 94 c5 60 f2 ff 	mov    %rdx,-0xda0(%rbp,%rax,8)
    e61f:	ff 
    e620:	83 85 10 f0 ff ff 01 	addl   $0x1,-0xff0(%rbp)
    e627:	83 bd 10 f0 ff ff 01 	cmpl   $0x1,-0xff0(%rbp)
    e62e:	7e d9                	jle    e609 <func_90+0x180c>
    e630:	8b 05 b2 8b 00 00    	mov    0x8bb2(%rip),%eax        # 171e8 <g_223>
    e636:	83 e8 01             	sub    $0x1,%eax
    e639:	89 05 a9 8b 00 00    	mov    %eax,0x8ba9(%rip)        # 171e8 <g_223>
    e63f:	48 8b 85 e8 f1 ff ff 	mov    -0xe18(%rbp),%rax
    e646:	8b 10                	mov    (%rax),%edx
    e648:	0f b7 05 ff 89 00 00 	movzwl 0x89ff(%rip),%eax        # 1704e <g_128>
    e64f:	98                   	cwtl   
    e650:	48 98                	cltq   
    e652:	8b 84 85 40 f2 ff ff 	mov    -0xdc0(%rbp,%rax,4),%eax
    e659:	31 c2                	xor    %eax,%edx
    e65b:	48 8b 85 e8 f1 ff ff 	mov    -0xe18(%rbp),%rax
    e662:	89 10                	mov    %edx,(%rax)
    e664:	48 8b 05 75 a8 00 00 	mov    0xa875(%rip),%rax        # 18ee0 <g_226>
    e66b:	48 89 05 6e a8 00 00 	mov    %rax,0xa86e(%rip)        # 18ee0 <g_226>
    e672:	48 8d 05 53 8b 00 00 	lea    0x8b53(%rip),%rax        # 171cc <g_180>
    e679:	e9 91 14 00 00       	jmpq   fb0f <func_90+0x2d12>
    e67e:	90                   	nop
    e67f:	c7 05 5f 8b 00 00 18 	movl   $0x18,0x8b5f(%rip)        # 171e8 <g_223>
    e686:	00 00 00 
    e689:	e9 4c 02 00 00       	jmpq   e8da <func_90+0x1add>
    e68e:	48 c7 85 78 f1 ff ff 	movq   $0x0,-0xe88(%rbp)
    e695:	00 00 00 00 
    e699:	8b 05 95 89 00 00    	mov    0x8995(%rip),%eax        # 17034 <g_67>
    e69f:	48 63 d0             	movslq %eax,%rdx
    e6a2:	48 8b 85 a8 f0 ff ff 	mov    -0xf58(%rbp),%rax
    e6a9:	48 89 10             	mov    %rdx,(%rax)
    e6ac:	8b 05 52 8b 00 00    	mov    0x8b52(%rip),%eax        # 17204 <g_227+0x4>
    e6b2:	c1 e8 08             	shr    $0x8,%eax
    e6b5:	89 c2                	mov    %eax,%edx
    e6b7:	0f b6 05 4a 8b 00 00 	movzbl 0x8b4a(%rip),%eax        # 17208 <g_227+0x8>
    e6be:	83 e0 1f             	and    $0x1f,%eax
    e6c1:	48 c1 e0 18          	shl    $0x18,%rax
    e6c5:	48 09 d0             	or     %rdx,%rax
    e6c8:	48 c1 e0 23          	shl    $0x23,%rax
    e6cc:	48 c1 f8 23          	sar    $0x23,%rax
    e6d0:	41 89 c6             	mov    %eax,%r14d
    e6d3:	8b 05 0b 8b 00 00    	mov    0x8b0b(%rip),%eax        # 171e4 <g_220>
    e6d9:	0f b6 d8             	movzbl %al,%ebx
    e6dc:	0f b7 85 ec ef ff ff 	movzwl -0x1014(%rbp),%eax
    e6e3:	44 0f b7 e0          	movzwl %ax,%r12d
    e6e7:	48 8b 85 70 f0 ff ff 	mov    -0xf90(%rbp),%rax
    e6ee:	8b 00                	mov    (%rax),%eax
    e6f0:	44 0f b6 e8          	movzbl %al,%r13d
    e6f4:	48 8b 05 45 89 00 00 	mov    0x8945(%rip),%rax        # 17040 <g_71>
    e6fb:	41 89 c7             	mov    %eax,%r15d
    e6fe:	48 8b 05 7b 89 00 00 	mov    0x897b(%rip),%rax        # 17080 <g_140+0x20>
    e705:	98                   	cwtl   
    e706:	89 c6                	mov    %eax,%esi
    e708:	bf c7 15 00 00       	mov    $0x15c7,%edi
    e70d:	e8 04 7d ff ff       	callq  6416 <safe_mod_func_int16_t_s_s>
    e712:	b8 6d 00 00 00       	mov    $0x6d,%eax
    e717:	89 c2                	mov    %eax,%edx
    e719:	0f b6 05 b0 8a 00 00 	movzbl 0x8ab0(%rip),%eax        # 171d0 <g_184>
    e720:	09 d0                	or     %edx,%eax
    e722:	88 05 a8 8a 00 00    	mov    %al,0x8aa8(%rip)        # 171d0 <g_184>
    e728:	0f b6 05 a1 8a 00 00 	movzbl 0x8aa1(%rip),%eax        # 171d0 <g_184>
    e72f:	0f b6 c0             	movzbl %al,%eax
    e732:	be 00 00 00 00       	mov    $0x0,%esi
    e737:	89 c7                	mov    %eax,%edi
    e739:	e8 1c 84 ff ff       	callq  6b5a <safe_add_func_uint8_t_u_u>
    e73e:	0f b7 85 ec ef ff ff 	movzwl -0x1014(%rbp),%eax
    e745:	0f b7 c0             	movzwl %ax,%eax
    e748:	be 00 00 00 00       	mov    $0x0,%esi
    e74d:	89 c7                	mov    %eax,%edi
    e74f:	e8 ab 85 ff ff       	callq  6cff <safe_add_func_uint16_t_u_u>
    e754:	89 c2                	mov    %eax,%edx
    e756:	0f b6 05 83 8a 00 00 	movzbl 0x8a83(%rip),%eax        # 171e0 <g_195>
    e75d:	09 d0                	or     %edx,%eax
    e75f:	89 c2                	mov    %eax,%edx
    e761:	8b 85 e8 ef ff ff    	mov    -0x1018(%rbp),%eax
    e767:	21 d0                	and    %edx,%eax
    e769:	0f b6 c0             	movzbl %al,%eax
    e76c:	44 89 fe             	mov    %r15d,%esi
    e76f:	89 c7                	mov    %eax,%edi
    e771:	e8 48 85 ff ff       	callq  6cbe <safe_rshift_func_uint8_t_u_u>
    e776:	0f b6 c0             	movzbl %al,%eax
    e779:	44 89 ee             	mov    %r13d,%esi
    e77c:	89 c7                	mov    %eax,%edi
    e77e:	e8 2b 84 ff ff       	callq  6bae <safe_mod_func_uint8_t_u_u>
    e783:	0f b6 85 f9 ef ff ff 	movzbl -0x1007(%rbp),%eax
    e78a:	83 e0 01             	and    $0x1,%eax
    e78d:	89 c2                	mov    %eax,%edx
    e78f:	0f b7 85 ec ef ff ff 	movzwl -0x1014(%rbp),%eax
    e796:	0f b7 c0             	movzwl %ax,%eax
    e799:	09 d0                	or     %edx,%eax
    e79b:	44 89 e6             	mov    %r12d,%esi
    e79e:	89 c7                	mov    %eax,%edi
    e7a0:	e8 5a 7f ff ff       	callq  66ff <safe_div_func_int32_t_s_s>
    e7a5:	8b 95 e8 ef ff ff    	mov    -0x1018(%rbp),%edx
    e7ab:	39 d0                	cmp    %edx,%eax
    e7ad:	0f 9e c0             	setle  %al
    e7b0:	0f b6 c0             	movzbl %al,%eax
    e7b3:	48 39 85 78 f1 ff ff 	cmp    %rax,-0xe88(%rbp)
    e7ba:	0f 92 c0             	setb   %al
    e7bd:	0f b6 c0             	movzbl %al,%eax
    e7c0:	89 de                	mov    %ebx,%esi
    e7c2:	89 c7                	mov    %eax,%edi
    e7c4:	e8 af 83 ff ff       	callq  6b78 <safe_sub_func_uint8_t_u_u>
    e7c9:	0f b6 05 10 8a 00 00 	movzbl 0x8a10(%rip),%eax        # 171e0 <g_195>
    e7d0:	0f b6 c0             	movzbl %al,%eax
    e7d3:	f7 d0                	not    %eax
    e7d5:	0f b7 c0             	movzwl %ax,%eax
    e7d8:	44 89 f6             	mov    %r14d,%esi
    e7db:	89 c7                	mov    %eax,%edi
    e7dd:	e8 24 86 ff ff       	callq  6e06 <safe_lshift_func_uint16_t_u_u>
    e7e2:	0f b6 c0             	movzbl %al,%eax
    e7e5:	be 01 00 00 00       	mov    $0x1,%esi
    e7ea:	89 c7                	mov    %eax,%edi
    e7ec:	e8 5b 84 ff ff       	callq  6c4c <safe_lshift_func_uint8_t_u_u>
    e7f1:	0f b7 85 fa ef ff ff 	movzwl -0x1006(%rbp),%eax
    e7f8:	0f b7 c0             	movzwl %ax,%eax
    e7fb:	48 c7 c6 ff ff ff ff 	mov    $0xffffffffffffffff,%rsi
    e802:	48 89 c7             	mov    %rax,%rdi
    e805:	e8 24 88 ff ff       	callq  702e <safe_add_func_uint64_t_u_u>
    e80a:	0f b7 95 ec ef ff ff 	movzwl -0x1014(%rbp),%edx
    e811:	0f b7 d2             	movzwl %dx,%edx
    e814:	48 39 d0             	cmp    %rdx,%rax
    e817:	0f 95 c0             	setne  %al
    e81a:	0f b6 c0             	movzbl %al,%eax
    e81d:	89 c6                	mov    %eax,%esi
    e81f:	bf 00 00 00 00       	mov    $0x0,%edi
    e824:	e8 8f 86 ff ff       	callq  6eb8 <safe_add_func_uint32_t_u_u>
    e829:	8b 05 b9 89 00 00    	mov    0x89b9(%rip),%eax        # 171e8 <g_223>
    e82f:	0f b6 c0             	movzbl %al,%eax
    e832:	be 16 00 00 00       	mov    $0x16,%esi
    e837:	89 c7                	mov    %eax,%edi
    e839:	e8 9d 83 ff ff       	callq  6bdb <safe_div_func_uint8_t_u_u>
    e83e:	89 c2                	mov    %eax,%edx
    e840:	48 8b 85 e0 f0 ff ff 	mov    -0xf20(%rbp),%rax
    e847:	88 10                	mov    %dl,(%rax)
    e849:	be 0c 00 00 00       	mov    $0xc,%esi
    e84e:	bf 01 00 00 00       	mov    $0x1,%edi
    e853:	e8 66 85 ff ff       	callq  6dbe <safe_lshift_func_uint16_t_u_s>
    e858:	0f b7 d8             	movzwl %ax,%ebx
    e85b:	0f b7 85 ec ef ff ff 	movzwl -0x1014(%rbp),%eax
    e862:	0f b7 d0             	movzwl %ax,%edx
    e865:	8b 05 99 89 00 00    	mov    0x8999(%rip),%eax        # 17204 <g_227+0x4>
    e86b:	c1 e8 08             	shr    $0x8,%eax
    e86e:	89 c1                	mov    %eax,%ecx
    e870:	0f b6 05 91 89 00 00 	movzbl 0x8991(%rip),%eax        # 17208 <g_227+0x8>
    e877:	83 e0 1f             	and    $0x1f,%eax
    e87a:	48 c1 e0 18          	shl    $0x18,%rax
    e87e:	48 09 c8             	or     %rcx,%rax
    e881:	48 c1 e0 23          	shl    $0x23,%rax
    e885:	48 c1 f8 23          	sar    $0x23,%rax
    e889:	0f b7 c0             	movzwl %ax,%eax
    e88c:	89 d6                	mov    %edx,%esi
    e88e:	89 c7                	mov    %eax,%edi
    e890:	e8 29 85 ff ff       	callq  6dbe <safe_lshift_func_uint16_t_u_s>
    e895:	0f b7 c0             	movzwl %ax,%eax
    e898:	f7 d0                	not    %eax
    e89a:	48 98                	cltq   
    e89c:	48 89 de             	mov    %rbx,%rsi
    e89f:	48 89 c7             	mov    %rax,%rdi
    e8a2:	e8 9a 7f ff ff       	callq  6841 <safe_add_func_int64_t_s_s>
    e8a7:	89 c2                	mov    %eax,%edx
    e8a9:	8b 05 1d 89 00 00    	mov    0x891d(%rip),%eax        # 171cc <g_180>
    e8af:	09 d0                	or     %edx,%eax
    e8b1:	89 05 15 89 00 00    	mov    %eax,0x8915(%rip)        # 171cc <g_180>
    e8b7:	8b 15 0f 89 00 00    	mov    0x890f(%rip),%edx        # 171cc <g_180>
    e8bd:	8b 85 48 f2 ff ff    	mov    -0xdb8(%rbp),%eax
    e8c3:	21 d0                	and    %edx,%eax
    e8c5:	89 85 48 f2 ff ff    	mov    %eax,-0xdb8(%rbp)
    e8cb:	8b 05 17 89 00 00    	mov    0x8917(%rip),%eax        # 171e8 <g_223>
    e8d1:	83 c0 01             	add    $0x1,%eax
    e8d4:	89 05 0e 89 00 00    	mov    %eax,0x890e(%rip)        # 171e8 <g_223>
    e8da:	8b 05 08 89 00 00    	mov    0x8908(%rip),%eax        # 171e8 <g_223>
    e8e0:	83 f8 3b             	cmp    $0x3b,%eax
    e8e3:	0f 84 a5 fd ff ff    	je     e68e <func_90+0x1891>
    e8e9:	48 8b 85 60 f1 ff ff 	mov    -0xea0(%rbp),%rax
    e8f0:	48 8d 15 e9 a5 00 00 	lea    0xa5e9(%rip),%rdx        # 18ee0 <g_226>
    e8f7:	48 89 10             	mov    %rdx,(%rax)
    e8fa:	48 8b 85 60 f1 ff ff 	mov    -0xea0(%rbp),%rax
    e901:	48 8b 00             	mov    (%rax),%rax
    e904:	48 8d 15 d5 a5 00 00 	lea    0xa5d5(%rip),%rdx        # 18ee0 <g_226>
    e90b:	48 39 d0             	cmp    %rdx,%rax
    e90e:	75 2c                	jne    e93c <func_90+0x1b3f>
    e910:	8b 05 ce 88 00 00    	mov    0x88ce(%rip),%eax        # 171e4 <g_220>
    e916:	85 c0                	test   %eax,%eax
    e918:	74 05                	je     e91f <func_90+0x1b22>
    e91a:	e9 60 fd ff ff       	jmpq   e67f <func_90+0x1882>
    e91f:	0f b7 85 ec ef ff ff 	movzwl -0x1014(%rbp),%eax
    e926:	0f b7 d0             	movzwl %ax,%edx
    e929:	8b 05 9d 88 00 00    	mov    0x889d(%rip),%eax        # 171cc <g_180>
    e92f:	31 d0                	xor    %edx,%eax
    e931:	89 05 95 88 00 00    	mov    %eax,0x8895(%rip)        # 171cc <g_180>
    e937:	e9 d4 10 00 00       	jmpq   fa10 <func_90+0x2c13>
    e93c:	48 8d 05 4d 89 00 00 	lea    0x894d(%rip),%rax        # 17290 <g_270>
    e943:	48 89 85 68 f1 ff ff 	mov    %rax,-0xe98(%rbp)
    e94a:	c7 85 44 f0 ff ff 7e 	movl   $0x699a9d7e,-0xfbc(%rbp)
    e951:	9d 9a 69 
    e954:	c7 85 d0 f3 ff ff 59 	movl   $0x5397bb59,-0xc30(%rbp)
    e95b:	bb 97 53 
    e95e:	c7 85 d4 f3 ff ff e7 	movl   $0x865190e7,-0xc2c(%rbp)
    e965:	90 51 86 
    e968:	c7 85 d8 f3 ff ff a7 	movl   $0xb4e91ca7,-0xc28(%rbp)
    e96f:	1c e9 b4 
    e972:	c7 85 dc f3 ff ff bf 	movl   $0x88bd6ebf,-0xc24(%rbp)
    e979:	6e bd 88 
    e97c:	c7 85 e0 f3 ff ff a7 	movl   $0xb4e91ca7,-0xc20(%rbp)
    e983:	1c e9 b4 
    e986:	c7 85 e4 f3 ff ff e7 	movl   $0x865190e7,-0xc1c(%rbp)
    e98d:	90 51 86 
    e990:	c7 85 e8 f3 ff ff 59 	movl   $0x5397bb59,-0xc18(%rbp)
    e997:	bb 97 53 
    e99a:	c7 85 ec f3 ff ff e7 	movl   $0x865190e7,-0xc14(%rbp)
    e9a1:	90 51 86 
    e9a4:	c7 85 f0 f3 ff ff a7 	movl   $0xb4e91ca7,-0xc10(%rbp)
    e9ab:	1c e9 b4 
    e9ae:	c7 85 f4 f3 ff ff bf 	movl   $0x88bd6ebf,-0xc0c(%rbp)
    e9b5:	6e bd 88 
    e9b8:	c7 85 f8 f3 ff ff a7 	movl   $0xb4e91ca7,-0xc08(%rbp)
    e9bf:	1c e9 b4 
    e9c2:	c7 85 fc f3 ff ff e7 	movl   $0x865190e7,-0xc04(%rbp)
    e9c9:	90 51 86 
    e9cc:	c7 85 00 f4 ff ff 59 	movl   $0x5397bb59,-0xc00(%rbp)
    e9d3:	bb 97 53 
    e9d6:	c7 85 04 f4 ff ff e7 	movl   $0x865190e7,-0xbfc(%rbp)
    e9dd:	90 51 86 
    e9e0:	c7 85 08 f4 ff ff a7 	movl   $0xb4e91ca7,-0xbf8(%rbp)
    e9e7:	1c e9 b4 
    e9ea:	c7 85 0c f4 ff ff bf 	movl   $0x88bd6ebf,-0xbf4(%rbp)
    e9f1:	6e bd 88 
    e9f4:	c7 85 10 f4 ff ff a7 	movl   $0xb4e91ca7,-0xbf0(%rbp)
    e9fb:	1c e9 b4 
    e9fe:	c7 85 14 f4 ff ff e7 	movl   $0x865190e7,-0xbec(%rbp)
    ea05:	90 51 86 
    ea08:	c7 85 18 f4 ff ff 59 	movl   $0x5397bb59,-0xbe8(%rbp)
    ea0f:	bb 97 53 
    ea12:	c7 85 1c f4 ff ff e7 	movl   $0x865190e7,-0xbe4(%rbp)
    ea19:	90 51 86 
    ea1c:	c7 85 20 f4 ff ff a7 	movl   $0xb4e91ca7,-0xbe0(%rbp)
    ea23:	1c e9 b4 
    ea26:	c7 85 24 f4 ff ff bf 	movl   $0x88bd6ebf,-0xbdc(%rbp)
    ea2d:	6e bd 88 
    ea30:	c7 85 28 f4 ff ff a7 	movl   $0xb4e91ca7,-0xbd8(%rbp)
    ea37:	1c e9 b4 
    ea3a:	c7 85 2c f4 ff ff e7 	movl   $0x865190e7,-0xbd4(%rbp)
    ea41:	90 51 86 
    ea44:	c7 85 30 f4 ff ff 59 	movl   $0x5397bb59,-0xbd0(%rbp)
    ea4b:	bb 97 53 
    ea4e:	c7 85 34 f4 ff ff e7 	movl   $0x865190e7,-0xbcc(%rbp)
    ea55:	90 51 86 
    ea58:	c7 85 38 f4 ff ff a7 	movl   $0xb4e91ca7,-0xbc8(%rbp)
    ea5f:	1c e9 b4 
    ea62:	c7 85 3c f4 ff ff bf 	movl   $0x88bd6ebf,-0xbc4(%rbp)
    ea69:	6e bd 88 
    ea6c:	c7 85 40 f4 ff ff a7 	movl   $0xb4e91ca7,-0xbc0(%rbp)
    ea73:	1c e9 b4 
    ea76:	c7 85 44 f4 ff ff e7 	movl   $0x865190e7,-0xbbc(%rbp)
    ea7d:	90 51 86 
    ea80:	c7 85 48 f4 ff ff 59 	movl   $0x5397bb59,-0xbb8(%rbp)
    ea87:	bb 97 53 
    ea8a:	c7 85 4c f4 ff ff e7 	movl   $0x865190e7,-0xbb4(%rbp)
    ea91:	90 51 86 
    ea94:	48 8d 05 45 a4 00 00 	lea    0xa445(%rip),%rax        # 18ee0 <g_226>
    ea9b:	48 89 85 70 f1 ff ff 	mov    %rax,-0xe90(%rbp)
    eaa2:	48 8b 85 68 f1 ff ff 	mov    -0xe98(%rbp),%rax
    eaa9:	48 89 05 38 a4 00 00 	mov    %rax,0xa438(%rip)        # 18ee8 <g_271>
    eab0:	8b 05 3e 88 00 00    	mov    0x883e(%rip),%eax        # 172f4 <g_283>
    eab6:	83 e8 01             	sub    $0x1,%eax
    eab9:	89 05 35 88 00 00    	mov    %eax,0x8835(%rip)        # 172f4 <g_283>
    eabf:	48 8b 85 60 f1 ff ff 	mov    -0xea0(%rbp),%rax
    eac6:	48 8b 95 e8 f0 ff ff 	mov    -0xf18(%rbp),%rdx
    eacd:	48 89 10             	mov    %rdx,(%rax)
    ead0:	48 8b 85 60 f1 ff ff 	mov    -0xea0(%rbp),%rax
    ead7:	48 8b 10             	mov    (%rax),%rdx
    eada:	48 8b 85 70 f1 ff ff 	mov    -0xe90(%rbp),%rax
    eae1:	48 89 05 08 a4 00 00 	mov    %rax,0xa408(%rip)        # 18ef0 <g_299>
    eae8:	48 8b 05 01 a4 00 00 	mov    0xa401(%rip),%rax        # 18ef0 <g_299>
    eaef:	48 39 c2             	cmp    %rax,%rdx
    eaf2:	0f 95 c0             	setne  %al
    eaf5:	0f b6 d0             	movzbl %al,%edx
    eaf8:	0f bf 85 02 f0 ff ff 	movswl -0xffe(%rbp),%eax
    eaff:	89 d6                	mov    %edx,%esi
    eb01:	89 c7                	mov    %eax,%edi
    eb03:	e8 b0 83 ff ff       	callq  6eb8 <safe_add_func_uint32_t_u_u>
    eb08:	f7 d0                	not    %eax
    eb0a:	89 c2                	mov    %eax,%edx
    eb0c:	48 8b 85 70 f0 ff ff 	mov    -0xf90(%rbp),%rax
    eb13:	8b 00                	mov    (%rax),%eax
    eb15:	39 c2                	cmp    %eax,%edx
    eb17:	0f 96 c0             	setbe  %al
    eb1a:	0f b6 d0             	movzbl %al,%edx
    eb1d:	48 8b 85 70 f0 ff ff 	mov    -0xf90(%rbp),%rax
    eb24:	8b 00                	mov    (%rax),%eax
    eb26:	48 63 c8             	movslq %eax,%rcx
    eb29:	48 8b 05 10 85 00 00 	mov    0x8510(%rip),%rax        # 17040 <g_71>
    eb30:	48 09 c8             	or     %rcx,%rax
    eb33:	48 89 05 06 85 00 00 	mov    %rax,0x8506(%rip)        # 17040 <g_71>
    eb3a:	48 8b 05 ff 84 00 00 	mov    0x84ff(%rip),%rax        # 17040 <g_71>
    eb41:	48 89 d6             	mov    %rdx,%rsi
    eb44:	48 89 c7             	mov    %rax,%rdi
    eb47:	e8 5c 7d ff ff       	callq  68a8 <safe_sub_func_int64_t_s_s>
    eb4c:	89 c6                	mov    %eax,%esi
    eb4e:	bf 00 00 00 00       	mov    $0x0,%edi
    eb53:	e8 ad 7a ff ff       	callq  6605 <safe_sub_func_int32_t_s_s>
    eb58:	0f b6 d0             	movzbl %al,%edx
    eb5b:	0f b6 05 6e 86 00 00 	movzbl 0x866e(%rip),%eax        # 171d0 <g_184>
    eb62:	0f b6 c0             	movzbl %al,%eax
    eb65:	89 d6                	mov    %edx,%esi
    eb67:	89 c7                	mov    %eax,%edi
    eb69:	e8 25 80 ff ff       	callq  6b93 <safe_mul_func_uint8_t_u_u>
    eb6e:	0f b6 d0             	movzbl %al,%edx
    eb71:	8b 05 55 86 00 00    	mov    0x8655(%rip),%eax        # 171cc <g_180>
    eb77:	21 d0                	and    %edx,%eax
    eb79:	89 05 4d 86 00 00    	mov    %eax,0x864d(%rip)        # 171cc <g_180>
    eb7f:	e9 8c 0e 00 00       	jmpq   fa10 <func_90+0x2c13>
    eb84:	c7 85 34 f0 ff ff 8d 	movl   $0xce7f4b8d,-0xfcc(%rbp)
    eb8b:	4b 7f ce 
    eb8e:	83 ad 34 f0 ff ff 01 	subl   $0x1,-0xfcc(%rbp)
    eb95:	66 c7 05 52 87 00 00 	movw   $0x0,0x8752(%rip)        # 172f0 <g_282>
    eb9c:	00 00 
    eb9e:	e9 ba 02 00 00       	jmpq   ee5d <func_90+0x2060>
    eba3:	48 8d 05 26 86 00 00 	lea    0x8626(%rip),%rax        # 171d0 <g_184>
    ebaa:	48 89 85 48 f1 ff ff 	mov    %rax,-0xeb8(%rbp)
    ebb1:	c7 85 38 f0 ff ff fb 	movl   $0x912e25fb,-0xfc8(%rbp)
    ebb8:	25 2e 91 
    ebbb:	c7 85 d0 f3 ff ff 92 	movl   $0x4d96b292,-0xc30(%rbp)
    ebc2:	b2 96 4d 
    ebc5:	c7 85 d4 f3 ff ff 5e 	movl   $0xa753925e,-0xc2c(%rbp)
    ebcc:	92 53 a7 
    ebcf:	c7 85 d8 f3 ff ff 5e 	movl   $0xa753925e,-0xc28(%rbp)
    ebd6:	92 53 a7 
    ebd9:	c7 85 dc f3 ff ff 92 	movl   $0x4d96b292,-0xc24(%rbp)
    ebe0:	b2 96 4d 
    ebe3:	c7 85 e0 f3 ff ff 5e 	movl   $0xa753925e,-0xc20(%rbp)
    ebea:	92 53 a7 
    ebed:	c7 85 e4 f3 ff ff 92 	movl   $0x4d96b292,-0xc1c(%rbp)
    ebf4:	b2 96 4d 
    ebf7:	c7 85 e8 f3 ff ff 5e 	movl   $0xa753925e,-0xc18(%rbp)
    ebfe:	92 53 a7 
    ec01:	c7 85 ec f3 ff ff 5e 	movl   $0xa753925e,-0xc14(%rbp)
    ec08:	92 53 a7 
    ec0b:	c7 85 f0 f3 ff ff 92 	movl   $0x4d96b292,-0xc10(%rbp)
    ec12:	b2 96 4d 
    ec15:	c7 85 f4 f3 ff ff 92 	movl   $0x4d96b292,-0xc0c(%rbp)
    ec1c:	b2 96 4d 
    ec1f:	c7 85 f8 f3 ff ff 9e 	movl   $0x4ec7d9e,-0xc08(%rbp)
    ec26:	7d ec 04 
    ec29:	c7 85 fc f3 ff ff 92 	movl   $0x4d96b292,-0xc04(%rbp)
    ec30:	b2 96 4d 
    ec33:	c7 85 00 f4 ff ff 92 	movl   $0x4d96b292,-0xc00(%rbp)
    ec3a:	b2 96 4d 
    ec3d:	c7 85 04 f4 ff ff 5e 	movl   $0xa753925e,-0xbfc(%rbp)
    ec44:	92 53 a7 
    ec47:	c7 85 08 f4 ff ff 5e 	movl   $0xa753925e,-0xbf8(%rbp)
    ec4e:	92 53 a7 
    ec51:	c7 85 0c f4 ff ff 92 	movl   $0x4d96b292,-0xbf4(%rbp)
    ec58:	b2 96 4d 
    ec5b:	c7 85 10 f4 ff ff 5e 	movl   $0xa753925e,-0xbf0(%rbp)
    ec62:	92 53 a7 
    ec65:	c7 85 14 f4 ff ff 92 	movl   $0x4d96b292,-0xbec(%rbp)
    ec6c:	b2 96 4d 
    ec6f:	c7 85 18 f4 ff ff 5e 	movl   $0xa753925e,-0xbe8(%rbp)
    ec76:	92 53 a7 
    ec79:	c7 85 1c f4 ff ff 5e 	movl   $0xa753925e,-0xbe4(%rbp)
    ec80:	92 53 a7 
    ec83:	c7 85 20 f4 ff ff 92 	movl   $0x4d96b292,-0xbe0(%rbp)
    ec8a:	b2 96 4d 
    ec8d:	c7 85 24 f4 ff ff 92 	movl   $0x4d96b292,-0xbdc(%rbp)
    ec94:	b2 96 4d 
    ec97:	c7 85 28 f4 ff ff 9e 	movl   $0x4ec7d9e,-0xbd8(%rbp)
    ec9e:	7d ec 04 
    eca1:	c7 85 2c f4 ff ff 92 	movl   $0x4d96b292,-0xbd4(%rbp)
    eca8:	b2 96 4d 
    ecab:	c7 85 30 f4 ff ff 92 	movl   $0x4d96b292,-0xbd0(%rbp)
    ecb2:	b2 96 4d 
    ecb5:	c7 85 34 f4 ff ff 5e 	movl   $0xa753925e,-0xbcc(%rbp)
    ecbc:	92 53 a7 
    ecbf:	c7 85 38 f4 ff ff 5e 	movl   $0xa753925e,-0xbc8(%rbp)
    ecc6:	92 53 a7 
    ecc9:	c7 85 3c f4 ff ff 92 	movl   $0x4d96b292,-0xbc4(%rbp)
    ecd0:	b2 96 4d 
    ecd3:	c7 85 40 f4 ff ff 5e 	movl   $0xa753925e,-0xbc0(%rbp)
    ecda:	92 53 a7 
    ecdd:	c7 85 44 f4 ff ff 92 	movl   $0x4d96b292,-0xbbc(%rbp)
    ece4:	b2 96 4d 
    ece7:	c7 85 48 f4 ff ff 5e 	movl   $0xa753925e,-0xbb8(%rbp)
    ecee:	92 53 a7 
    ecf1:	c7 85 4c f4 ff ff 5e 	movl   $0xa753925e,-0xbb4(%rbp)
    ecf8:	92 53 a7 
    ecfb:	c7 85 50 f4 ff ff 92 	movl   $0x4d96b292,-0xbb0(%rbp)
    ed02:	b2 96 4d 
    ed05:	c7 85 54 f4 ff ff 92 	movl   $0x4d96b292,-0xbac(%rbp)
    ed0c:	b2 96 4d 
    ed0f:	c7 85 58 f4 ff ff 9e 	movl   $0x4ec7d9e,-0xba8(%rbp)
    ed16:	7d ec 04 
    ed19:	c7 85 5c f4 ff ff 92 	movl   $0x4d96b292,-0xba4(%rbp)
    ed20:	b2 96 4d 
    ed23:	48 8d 85 fa ef ff ff 	lea    -0x1006(%rbp),%rax
    ed2a:	48 89 85 50 f1 ff ff 	mov    %rax,-0xeb0(%rbp)
    ed31:	48 c7 85 80 f0 ff ff 	movq   $0x0,-0xf80(%rbp)
    ed38:	00 00 00 00 
    ed3c:	48 8d 85 80 f0 ff ff 	lea    -0xf80(%rbp),%rax
    ed43:	48 89 85 58 f1 ff ff 	mov    %rax,-0xea8(%rbp)
    ed4a:	c6 05 8f 84 00 00 00 	movb   $0x0,0x848f(%rip)        # 171e0 <g_195>
    ed51:	eb 7b                	jmp    edce <func_90+0x1fd1>
    ed53:	c7 85 3c f0 ff ff 7b 	movl   $0x19f9507b,-0xfc4(%rbp)
    ed5a:	50 f9 19 
    ed5d:	48 8b 85 70 f0 ff ff 	mov    -0xf90(%rbp),%rax
    ed64:	c7 00 00 00 00 00    	movl   $0x0,(%rax)
    ed6a:	0f b7 85 ec ef ff ff 	movzwl -0x1014(%rbp),%eax
    ed71:	66 85 c0             	test   %ax,%ax
    ed74:	0f 94 c0             	sete   %al
    ed77:	0f b6 d0             	movzbl %al,%edx
    ed7a:	0f b6 05 2b 85 00 00 	movzbl 0x852b(%rip),%eax        # 172ac <g_277+0x4>
    ed81:	0f be c0             	movsbl %al,%eax
    ed84:	39 c2                	cmp    %eax,%edx
    ed86:	0f 9c c0             	setl   %al
    ed89:	0f b6 d0             	movzbl %al,%edx
    ed8c:	0f b7 85 ec ef ff ff 	movzwl -0x1014(%rbp),%eax
    ed93:	66 3d f9 00          	cmp    $0xf9,%ax
    ed97:	0f 97 c0             	seta   %al
    ed9a:	0f b6 c0             	movzbl %al,%eax
    ed9d:	48 89 d6             	mov    %rdx,%rsi
    eda0:	48 89 c7             	mov    %rax,%rdi
    eda3:	e8 00 7b ff ff       	callq  68a8 <safe_sub_func_int64_t_s_s>
    eda8:	c7 85 e8 ef ff ff 00 	movl   $0x0,-0x1018(%rbp)
    edaf:	00 00 00 
    edb2:	8b 85 e8 ef ff ff    	mov    -0x1018(%rbp),%eax
    edb8:	89 85 38 f0 ff ff    	mov    %eax,-0xfc8(%rbp)
    edbe:	0f b6 05 1b 84 00 00 	movzbl 0x841b(%rip),%eax        # 171e0 <g_195>
    edc5:	83 c0 01             	add    $0x1,%eax
    edc8:	88 05 12 84 00 00    	mov    %al,0x8412(%rip)        # 171e0 <g_195>
    edce:	0f b6 05 0b 84 00 00 	movzbl 0x840b(%rip),%eax        # 171e0 <g_195>
    edd5:	3c 09                	cmp    $0x9,%al
    edd7:	0f 86 76 ff ff ff    	jbe    ed53 <func_90+0x1f56>
    eddd:	48 8b 05 2c 85 00 00 	mov    0x852c(%rip),%rax        # 17310 <g_316+0x10>
    ede4:	48 83 e8 01          	sub    $0x1,%rax
    ede8:	48 89 05 21 85 00 00 	mov    %rax,0x8521(%rip)        # 17310 <g_316+0x10>
    edef:	48 8b 85 58 f1 ff ff 	mov    -0xea8(%rbp),%rax
    edf6:	48 8b 95 50 f1 ff ff 	mov    -0xeb0(%rbp),%rdx
    edfd:	48 89 10             	mov    %rdx,(%rax)
    ee00:	8b 85 34 f0 ff ff    	mov    -0xfcc(%rbp),%eax
    ee06:	0f b6 d8             	movzbl %al,%ebx
    ee09:	48 8b 85 40 f1 ff ff 	mov    -0xec0(%rbp),%rax
    ee10:	48 3b 85 b0 f0 ff ff 	cmp    -0xf50(%rbp),%rax
    ee17:	0f 95 c0             	setne  %al
    ee1a:	0f b6 c0             	movzbl %al,%eax
    ee1d:	be 00 00 00 00       	mov    $0x0,%esi
    ee22:	89 c7                	mov    %eax,%edi
    ee24:	e8 dd 7f ff ff       	callq  6e06 <safe_lshift_func_uint16_t_u_u>
    ee29:	0f b6 c0             	movzbl %al,%eax
    ee2c:	89 de                	mov    %ebx,%esi
    ee2e:	89 c7                	mov    %eax,%edi
    ee30:	e8 5e 7d ff ff       	callq  6b93 <safe_mul_func_uint8_t_u_u>
    ee35:	48 8b 95 70 f0 ff ff 	mov    -0xf90(%rbp),%rdx
    ee3c:	8b 0a                	mov    (%rdx),%ecx
    ee3e:	0f b6 d0             	movzbl %al,%edx
    ee41:	48 8b 85 70 f0 ff ff 	mov    -0xf90(%rbp),%rax
    ee48:	31 ca                	xor    %ecx,%edx
    ee4a:	89 10                	mov    %edx,(%rax)
    ee4c:	0f b7 05 9d 84 00 00 	movzwl 0x849d(%rip),%eax        # 172f0 <g_282>
    ee53:	83 c0 01             	add    $0x1,%eax
    ee56:	66 89 05 93 84 00 00 	mov    %ax,0x8493(%rip)        # 172f0 <g_282>
    ee5d:	0f b7 05 8c 84 00 00 	movzwl 0x848c(%rip),%eax        # 172f0 <g_282>
    ee64:	66 83 f8 09          	cmp    $0x9,%ax
    ee68:	0f 8e 35 fd ff ff    	jle    eba3 <func_90+0x1da6>
    ee6e:	e9 9d 0b 00 00       	jmpq   fa10 <func_90+0x2c13>
    ee73:	48 8d 85 fa ef ff ff 	lea    -0x1006(%rbp),%rax
    ee7a:	48 89 85 f0 f0 ff ff 	mov    %rax,-0xf10(%rbp)
    ee81:	c7 85 14 f0 ff ff 04 	movl   $0x4,-0xfec(%rbp)
    ee88:	00 00 00 
    ee8b:	48 8b 05 6e a0 00 00 	mov    0xa06e(%rip),%rax        # 18f00 <g_332>
    ee92:	48 39 85 b8 f0 ff ff 	cmp    %rax,-0xf48(%rbp)
    ee99:	0f 94 c0             	sete   %al
    ee9c:	0f b6 d0             	movzbl %al,%edx
    ee9f:	8b 85 04 f0 ff ff    	mov    -0xffc(%rbp),%eax
    eea5:	0f b6 c0             	movzbl %al,%eax
    eea8:	89 d6                	mov    %edx,%esi
    eeaa:	89 c7                	mov    %eax,%edi
    eeac:	e8 0d 7e ff ff       	callq  6cbe <safe_rshift_func_uint8_t_u_u>
    eeb1:	0f b6 c0             	movzbl %al,%eax
    eeb4:	89 85 e8 ef ff ff    	mov    %eax,-0x1018(%rbp)
    eeba:	c7 85 e8 ef ff ff 00 	movl   $0x0,-0x1018(%rbp)
    eec1:	00 00 00 
    eec4:	e9 6f 08 00 00       	jmpq   f738 <func_90+0x293b>
    eec9:	48 8d 05 f8 83 00 00 	lea    0x83f8(%rip),%rax        # 172c8 <g_280+0x8>
    eed0:	48 89 85 f8 f0 ff ff 	mov    %rax,-0xf08(%rbp)
    eed7:	c7 85 28 f0 ff ff 64 	movl   $0xdb3c9b64,-0xfd8(%rbp)
    eede:	9b 3c db 
    eee1:	48 c7 85 00 f1 ff ff 	movq   $0x0,-0xf00(%rbp)
    eee8:	00 00 00 00 
    eeec:	48 8d 85 fa ef ff ff 	lea    -0x1006(%rbp),%rax
    eef3:	48 89 85 d0 f3 ff ff 	mov    %rax,-0xc30(%rbp)
    eefa:	48 c7 85 d8 f3 ff ff 	movq   $0x0,-0xc28(%rbp)
    ef01:	00 00 00 00 
    ef05:	48 8d 85 fa ef ff ff 	lea    -0x1006(%rbp),%rax
    ef0c:	48 89 85 e0 f3 ff ff 	mov    %rax,-0xc20(%rbp)
    ef13:	48 8d 85 fa ef ff ff 	lea    -0x1006(%rbp),%rax
    ef1a:	48 89 85 e8 f3 ff ff 	mov    %rax,-0xc18(%rbp)
    ef21:	48 c7 85 f0 f3 ff ff 	movq   $0x0,-0xc10(%rbp)
    ef28:	00 00 00 00 
    ef2c:	48 8d 85 fa ef ff ff 	lea    -0x1006(%rbp),%rax
    ef33:	48 89 85 f8 f3 ff ff 	mov    %rax,-0xc08(%rbp)
    ef3a:	48 8d 85 fa ef ff ff 	lea    -0x1006(%rbp),%rax
    ef41:	48 89 85 00 f4 ff ff 	mov    %rax,-0xc00(%rbp)
    ef48:	48 8d 85 fa ef ff ff 	lea    -0x1006(%rbp),%rax
    ef4f:	48 89 85 08 f4 ff ff 	mov    %rax,-0xbf8(%rbp)
    ef56:	48 8d 85 fa ef ff ff 	lea    -0x1006(%rbp),%rax
    ef5d:	48 89 85 10 f4 ff ff 	mov    %rax,-0xbf0(%rbp)
    ef64:	48 c7 85 18 f4 ff ff 	movq   $0x0,-0xbe8(%rbp)
    ef6b:	00 00 00 00 
    ef6f:	48 8d 85 fa ef ff ff 	lea    -0x1006(%rbp),%rax
    ef76:	48 89 85 20 f4 ff ff 	mov    %rax,-0xbe0(%rbp)
    ef7d:	48 8d 85 fa ef ff ff 	lea    -0x1006(%rbp),%rax
    ef84:	48 89 85 28 f4 ff ff 	mov    %rax,-0xbd8(%rbp)
    ef8b:	48 c7 85 30 f4 ff ff 	movq   $0x0,-0xbd0(%rbp)
    ef92:	00 00 00 00 
    ef96:	48 c7 85 38 f4 ff ff 	movq   $0x0,-0xbc8(%rbp)
    ef9d:	00 00 00 00 
    efa1:	48 8d 85 fa ef ff ff 	lea    -0x1006(%rbp),%rax
    efa8:	48 89 85 40 f4 ff ff 	mov    %rax,-0xbc0(%rbp)
    efaf:	48 8d 85 fa ef ff ff 	lea    -0x1006(%rbp),%rax
    efb6:	48 89 85 48 f4 ff ff 	mov    %rax,-0xbb8(%rbp)
    efbd:	48 c7 85 50 f4 ff ff 	movq   $0x0,-0xbb0(%rbp)
    efc4:	00 00 00 00 
    efc8:	48 8d 85 fa ef ff ff 	lea    -0x1006(%rbp),%rax
    efcf:	48 89 85 58 f4 ff ff 	mov    %rax,-0xba8(%rbp)
    efd6:	48 8d 85 fa ef ff ff 	lea    -0x1006(%rbp),%rax
    efdd:	48 89 85 60 f4 ff ff 	mov    %rax,-0xba0(%rbp)
    efe4:	48 c7 85 68 f4 ff ff 	movq   $0x0,-0xb98(%rbp)
    efeb:	00 00 00 00 
    efef:	48 8d 85 fa ef ff ff 	lea    -0x1006(%rbp),%rax
    eff6:	48 89 85 70 f4 ff ff 	mov    %rax,-0xb90(%rbp)
    effd:	48 8d 85 fa ef ff ff 	lea    -0x1006(%rbp),%rax
    f004:	48 89 85 78 f4 ff ff 	mov    %rax,-0xb88(%rbp)
    f00b:	48 c7 85 80 f4 ff ff 	movq   $0x0,-0xb80(%rbp)
    f012:	00 00 00 00 
    f016:	48 8d 85 fa ef ff ff 	lea    -0x1006(%rbp),%rax
    f01d:	48 89 85 88 f4 ff ff 	mov    %rax,-0xb78(%rbp)
    f024:	48 c7 85 90 f4 ff ff 	movq   $0x0,-0xb70(%rbp)
    f02b:	00 00 00 00 
    f02f:	48 c7 85 98 f4 ff ff 	movq   $0x0,-0xb68(%rbp)
    f036:	00 00 00 00 
    f03a:	48 8d 85 fa ef ff ff 	lea    -0x1006(%rbp),%rax
    f041:	48 89 85 a0 f4 ff ff 	mov    %rax,-0xb60(%rbp)
    f048:	48 8d 85 fa ef ff ff 	lea    -0x1006(%rbp),%rax
    f04f:	48 89 85 a8 f4 ff ff 	mov    %rax,-0xb58(%rbp)
    f056:	48 8d 85 fa ef ff ff 	lea    -0x1006(%rbp),%rax
    f05d:	48 89 85 b0 f4 ff ff 	mov    %rax,-0xb50(%rbp)
    f064:	48 8d 85 fa ef ff ff 	lea    -0x1006(%rbp),%rax
    f06b:	48 89 85 b8 f4 ff ff 	mov    %rax,-0xb48(%rbp)
    f072:	48 8d 85 fa ef ff ff 	lea    -0x1006(%rbp),%rax
    f079:	48 89 85 c0 f4 ff ff 	mov    %rax,-0xb40(%rbp)
    f080:	48 8d 85 fa ef ff ff 	lea    -0x1006(%rbp),%rax
    f087:	48 89 85 c8 f4 ff ff 	mov    %rax,-0xb38(%rbp)
    f08e:	48 8d 85 fa ef ff ff 	lea    -0x1006(%rbp),%rax
    f095:	48 89 85 d0 f4 ff ff 	mov    %rax,-0xb30(%rbp)
    f09c:	48 8d 85 fa ef ff ff 	lea    -0x1006(%rbp),%rax
    f0a3:	48 89 85 d8 f4 ff ff 	mov    %rax,-0xb28(%rbp)
    f0aa:	48 8d 85 fa ef ff ff 	lea    -0x1006(%rbp),%rax
    f0b1:	48 89 85 e0 f4 ff ff 	mov    %rax,-0xb20(%rbp)
    f0b8:	48 8d 85 fa ef ff ff 	lea    -0x1006(%rbp),%rax
    f0bf:	48 89 85 e8 f4 ff ff 	mov    %rax,-0xb18(%rbp)
    f0c6:	48 8d 85 fa ef ff ff 	lea    -0x1006(%rbp),%rax
    f0cd:	48 89 85 f0 f4 ff ff 	mov    %rax,-0xb10(%rbp)
    f0d4:	48 c7 85 f8 f4 ff ff 	movq   $0x0,-0xb08(%rbp)
    f0db:	00 00 00 00 
    f0df:	48 c7 85 00 f5 ff ff 	movq   $0x0,-0xb00(%rbp)
    f0e6:	00 00 00 00 
    f0ea:	48 8d 85 fa ef ff ff 	lea    -0x1006(%rbp),%rax
    f0f1:	48 89 85 08 f5 ff ff 	mov    %rax,-0xaf8(%rbp)
    f0f8:	48 8d 85 fa ef ff ff 	lea    -0x1006(%rbp),%rax
    f0ff:	48 89 85 10 f5 ff ff 	mov    %rax,-0xaf0(%rbp)
    f106:	48 c7 85 18 f5 ff ff 	movq   $0x0,-0xae8(%rbp)
    f10d:	00 00 00 00 
    f111:	48 c7 85 20 f5 ff ff 	movq   $0x0,-0xae0(%rbp)
    f118:	00 00 00 00 
    f11c:	48 8d 85 fa ef ff ff 	lea    -0x1006(%rbp),%rax
    f123:	48 89 85 28 f5 ff ff 	mov    %rax,-0xad8(%rbp)
    f12a:	48 8d 85 fa ef ff ff 	lea    -0x1006(%rbp),%rax
    f131:	48 89 85 30 f5 ff ff 	mov    %rax,-0xad0(%rbp)
    f138:	48 8d 85 fa ef ff ff 	lea    -0x1006(%rbp),%rax
    f13f:	48 89 85 38 f5 ff ff 	mov    %rax,-0xac8(%rbp)
    f146:	48 8d 85 fa ef ff ff 	lea    -0x1006(%rbp),%rax
    f14d:	48 89 85 40 f5 ff ff 	mov    %rax,-0xac0(%rbp)
    f154:	48 8d 85 fa ef ff ff 	lea    -0x1006(%rbp),%rax
    f15b:	48 89 85 48 f5 ff ff 	mov    %rax,-0xab8(%rbp)
    f162:	48 8d 85 fa ef ff ff 	lea    -0x1006(%rbp),%rax
    f169:	48 89 85 50 f5 ff ff 	mov    %rax,-0xab0(%rbp)
    f170:	48 8d 85 fa ef ff ff 	lea    -0x1006(%rbp),%rax
    f177:	48 89 85 58 f5 ff ff 	mov    %rax,-0xaa8(%rbp)
    f17e:	48 8d 85 fa ef ff ff 	lea    -0x1006(%rbp),%rax
    f185:	48 89 85 60 f5 ff ff 	mov    %rax,-0xaa0(%rbp)
    f18c:	48 8d 85 fa ef ff ff 	lea    -0x1006(%rbp),%rax
    f193:	48 89 85 68 f5 ff ff 	mov    %rax,-0xa98(%rbp)
    f19a:	48 8d 85 fa ef ff ff 	lea    -0x1006(%rbp),%rax
    f1a1:	48 89 85 70 f5 ff ff 	mov    %rax,-0xa90(%rbp)
    f1a8:	48 8d 85 fa ef ff ff 	lea    -0x1006(%rbp),%rax
    f1af:	48 89 85 78 f5 ff ff 	mov    %rax,-0xa88(%rbp)
    f1b6:	48 8d 85 fa ef ff ff 	lea    -0x1006(%rbp),%rax
    f1bd:	48 89 85 80 f5 ff ff 	mov    %rax,-0xa80(%rbp)
    f1c4:	48 c7 85 88 f5 ff ff 	movq   $0x0,-0xa78(%rbp)
    f1cb:	00 00 00 00 
    f1cf:	48 8d 85 fa ef ff ff 	lea    -0x1006(%rbp),%rax
    f1d6:	48 89 85 90 f5 ff ff 	mov    %rax,-0xa70(%rbp)
    f1dd:	48 c7 85 98 f5 ff ff 	movq   $0x0,-0xa68(%rbp)
    f1e4:	00 00 00 00 
    f1e8:	48 8d 85 fa ef ff ff 	lea    -0x1006(%rbp),%rax
    f1ef:	48 89 85 a0 f5 ff ff 	mov    %rax,-0xa60(%rbp)
    f1f6:	48 8d 85 fa ef ff ff 	lea    -0x1006(%rbp),%rax
    f1fd:	48 89 85 a8 f5 ff ff 	mov    %rax,-0xa58(%rbp)
    f204:	48 8d 85 fa ef ff ff 	lea    -0x1006(%rbp),%rax
    f20b:	48 89 85 b0 f5 ff ff 	mov    %rax,-0xa50(%rbp)
    f212:	48 c7 85 b8 f5 ff ff 	movq   $0x0,-0xa48(%rbp)
    f219:	00 00 00 00 
    f21d:	48 8d 85 fa ef ff ff 	lea    -0x1006(%rbp),%rax
    f224:	48 89 85 c0 f5 ff ff 	mov    %rax,-0xa40(%rbp)
    f22b:	48 8d 85 fa ef ff ff 	lea    -0x1006(%rbp),%rax
    f232:	48 89 85 c8 f5 ff ff 	mov    %rax,-0xa38(%rbp)
    f239:	48 8d 85 fa ef ff ff 	lea    -0x1006(%rbp),%rax
    f240:	48 89 85 d0 f5 ff ff 	mov    %rax,-0xa30(%rbp)
    f247:	48 8d 85 fa ef ff ff 	lea    -0x1006(%rbp),%rax
    f24e:	48 89 85 d8 f5 ff ff 	mov    %rax,-0xa28(%rbp)
    f255:	48 8d 85 fa ef ff ff 	lea    -0x1006(%rbp),%rax
    f25c:	48 89 85 e0 f5 ff ff 	mov    %rax,-0xa20(%rbp)
    f263:	48 8d 85 fa ef ff ff 	lea    -0x1006(%rbp),%rax
    f26a:	48 89 85 e8 f5 ff ff 	mov    %rax,-0xa18(%rbp)
    f271:	48 8d 85 fa ef ff ff 	lea    -0x1006(%rbp),%rax
    f278:	48 89 85 f0 f5 ff ff 	mov    %rax,-0xa10(%rbp)
    f27f:	48 8d 85 fa ef ff ff 	lea    -0x1006(%rbp),%rax
    f286:	48 89 85 f8 f5 ff ff 	mov    %rax,-0xa08(%rbp)
    f28d:	48 8d 85 fa ef ff ff 	lea    -0x1006(%rbp),%rax
    f294:	48 89 85 00 f6 ff ff 	mov    %rax,-0xa00(%rbp)
    f29b:	48 8d 85 fa ef ff ff 	lea    -0x1006(%rbp),%rax
    f2a2:	48 89 85 08 f6 ff ff 	mov    %rax,-0x9f8(%rbp)
    f2a9:	48 8d 85 fa ef ff ff 	lea    -0x1006(%rbp),%rax
    f2b0:	48 89 85 10 f6 ff ff 	mov    %rax,-0x9f0(%rbp)
    f2b7:	48 8d 85 fa ef ff ff 	lea    -0x1006(%rbp),%rax
    f2be:	48 89 85 18 f6 ff ff 	mov    %rax,-0x9e8(%rbp)
    f2c5:	48 c7 85 20 f6 ff ff 	movq   $0x0,-0x9e0(%rbp)
    f2cc:	00 00 00 00 
    f2d0:	48 c7 85 28 f6 ff ff 	movq   $0x0,-0x9d8(%rbp)
    f2d7:	00 00 00 00 
    f2db:	48 8d 85 fa ef ff ff 	lea    -0x1006(%rbp),%rax
    f2e2:	48 89 85 30 f6 ff ff 	mov    %rax,-0x9d0(%rbp)
    f2e9:	48 8d 85 fa ef ff ff 	lea    -0x1006(%rbp),%rax
    f2f0:	48 89 85 38 f6 ff ff 	mov    %rax,-0x9c8(%rbp)
    f2f7:	48 8d 85 fa ef ff ff 	lea    -0x1006(%rbp),%rax
    f2fe:	48 89 85 40 f6 ff ff 	mov    %rax,-0x9c0(%rbp)
    f305:	48 8d 85 fa ef ff ff 	lea    -0x1006(%rbp),%rax
    f30c:	48 89 85 48 f6 ff ff 	mov    %rax,-0x9b8(%rbp)
    f313:	48 8d 85 fa ef ff ff 	lea    -0x1006(%rbp),%rax
    f31a:	48 89 85 50 f6 ff ff 	mov    %rax,-0x9b0(%rbp)
    f321:	48 8d 85 fa ef ff ff 	lea    -0x1006(%rbp),%rax
    f328:	48 89 85 58 f6 ff ff 	mov    %rax,-0x9a8(%rbp)
    f32f:	48 c7 85 60 f6 ff ff 	movq   $0x0,-0x9a0(%rbp)
    f336:	00 00 00 00 
    f33a:	48 8d 85 fa ef ff ff 	lea    -0x1006(%rbp),%rax
    f341:	48 89 85 68 f6 ff ff 	mov    %rax,-0x998(%rbp)
    f348:	48 8d 85 fa ef ff ff 	lea    -0x1006(%rbp),%rax
    f34f:	48 89 85 70 f6 ff ff 	mov    %rax,-0x990(%rbp)
    f356:	48 8d 85 fa ef ff ff 	lea    -0x1006(%rbp),%rax
    f35d:	48 89 85 78 f6 ff ff 	mov    %rax,-0x988(%rbp)
    f364:	48 8d 85 fa ef ff ff 	lea    -0x1006(%rbp),%rax
    f36b:	48 89 85 80 f6 ff ff 	mov    %rax,-0x980(%rbp)
    f372:	48 8d 85 fa ef ff ff 	lea    -0x1006(%rbp),%rax
    f379:	48 89 85 88 f6 ff ff 	mov    %rax,-0x978(%rbp)
    f380:	48 8d 85 fa ef ff ff 	lea    -0x1006(%rbp),%rax
    f387:	48 89 85 90 f6 ff ff 	mov    %rax,-0x970(%rbp)
    f38e:	48 8d 85 fa ef ff ff 	lea    -0x1006(%rbp),%rax
    f395:	48 89 85 98 f6 ff ff 	mov    %rax,-0x968(%rbp)
    f39c:	48 c7 85 a0 f6 ff ff 	movq   $0x0,-0x960(%rbp)
    f3a3:	00 00 00 00 
    f3a7:	48 8d 85 fa ef ff ff 	lea    -0x1006(%rbp),%rax
    f3ae:	48 89 85 a8 f6 ff ff 	mov    %rax,-0x958(%rbp)
    f3b5:	48 8d 85 fa ef ff ff 	lea    -0x1006(%rbp),%rax
    f3bc:	48 89 85 b0 f6 ff ff 	mov    %rax,-0x950(%rbp)
    f3c3:	48 8d 85 fa ef ff ff 	lea    -0x1006(%rbp),%rax
    f3ca:	48 89 85 b8 f6 ff ff 	mov    %rax,-0x948(%rbp)
    f3d1:	48 8d 85 fa ef ff ff 	lea    -0x1006(%rbp),%rax
    f3d8:	48 89 85 c0 f6 ff ff 	mov    %rax,-0x940(%rbp)
    f3df:	48 8d 85 fa ef ff ff 	lea    -0x1006(%rbp),%rax
    f3e6:	48 89 85 c8 f6 ff ff 	mov    %rax,-0x938(%rbp)
    f3ed:	48 8d 85 fa ef ff ff 	lea    -0x1006(%rbp),%rax
    f3f4:	48 89 85 d0 f6 ff ff 	mov    %rax,-0x930(%rbp)
    f3fb:	48 8d 85 fa ef ff ff 	lea    -0x1006(%rbp),%rax
    f402:	48 89 85 d8 f6 ff ff 	mov    %rax,-0x928(%rbp)
    f409:	48 8d 85 fa ef ff ff 	lea    -0x1006(%rbp),%rax
    f410:	48 89 85 e0 f6 ff ff 	mov    %rax,-0x920(%rbp)
    f417:	48 8d 85 fa ef ff ff 	lea    -0x1006(%rbp),%rax
    f41e:	48 89 85 e8 f6 ff ff 	mov    %rax,-0x918(%rbp)
    f425:	48 8d 85 fa ef ff ff 	lea    -0x1006(%rbp),%rax
    f42c:	48 89 85 f0 f6 ff ff 	mov    %rax,-0x910(%rbp)
    f433:	48 8d 85 fa ef ff ff 	lea    -0x1006(%rbp),%rax
    f43a:	48 89 85 f8 f6 ff ff 	mov    %rax,-0x908(%rbp)
    f441:	48 8d 85 fa ef ff ff 	lea    -0x1006(%rbp),%rax
    f448:	48 89 85 00 f7 ff ff 	mov    %rax,-0x900(%rbp)
    f44f:	48 8d 85 fa ef ff ff 	lea    -0x1006(%rbp),%rax
    f456:	48 89 85 08 f7 ff ff 	mov    %rax,-0x8f8(%rbp)
    f45d:	48 c7 85 10 f7 ff ff 	movq   $0x0,-0x8f0(%rbp)
    f464:	00 00 00 00 
    f468:	48 c7 85 18 f7 ff ff 	movq   $0x0,-0x8e8(%rbp)
    f46f:	00 00 00 00 
    f473:	48 8d 85 fa ef ff ff 	lea    -0x1006(%rbp),%rax
    f47a:	48 89 85 20 f7 ff ff 	mov    %rax,-0x8e0(%rbp)
    f481:	48 8d 85 fa ef ff ff 	lea    -0x1006(%rbp),%rax
    f488:	48 89 85 28 f7 ff ff 	mov    %rax,-0x8d8(%rbp)
    f48f:	48 8d 85 fa ef ff ff 	lea    -0x1006(%rbp),%rax
    f496:	48 89 85 30 f7 ff ff 	mov    %rax,-0x8d0(%rbp)
    f49d:	48 c7 85 38 f7 ff ff 	movq   $0x0,-0x8c8(%rbp)
    f4a4:	00 00 00 00 
    f4a8:	48 8d 85 fa ef ff ff 	lea    -0x1006(%rbp),%rax
    f4af:	48 89 85 40 f7 ff ff 	mov    %rax,-0x8c0(%rbp)
    f4b6:	48 8d 85 fa ef ff ff 	lea    -0x1006(%rbp),%rax
    f4bd:	48 89 85 48 f7 ff ff 	mov    %rax,-0x8b8(%rbp)
    f4c4:	48 8d 85 fa ef ff ff 	lea    -0x1006(%rbp),%rax
    f4cb:	48 89 85 50 f7 ff ff 	mov    %rax,-0x8b0(%rbp)
    f4d2:	48 c7 85 58 f7 ff ff 	movq   $0x0,-0x8a8(%rbp)
    f4d9:	00 00 00 00 
    f4dd:	48 8d 85 fa ef ff ff 	lea    -0x1006(%rbp),%rax
    f4e4:	48 89 85 60 f7 ff ff 	mov    %rax,-0x8a0(%rbp)
    f4eb:	48 8d 85 fa ef ff ff 	lea    -0x1006(%rbp),%rax
    f4f2:	48 89 85 68 f7 ff ff 	mov    %rax,-0x898(%rbp)
    f4f9:	48 c7 85 70 f7 ff ff 	movq   $0x0,-0x890(%rbp)
    f500:	00 00 00 00 
    f504:	48 8d 85 fa ef ff ff 	lea    -0x1006(%rbp),%rax
    f50b:	48 89 85 78 f7 ff ff 	mov    %rax,-0x888(%rbp)
    f512:	48 8d 85 fa ef ff ff 	lea    -0x1006(%rbp),%rax
    f519:	48 89 85 80 f7 ff ff 	mov    %rax,-0x880(%rbp)
    f520:	48 c7 85 88 f7 ff ff 	movq   $0x0,-0x878(%rbp)
    f527:	00 00 00 00 
    f52b:	48 8d 85 fa ef ff ff 	lea    -0x1006(%rbp),%rax
    f532:	48 89 85 90 f7 ff ff 	mov    %rax,-0x870(%rbp)
    f539:	48 8d 85 fa ef ff ff 	lea    -0x1006(%rbp),%rax
    f540:	48 89 85 98 f7 ff ff 	mov    %rax,-0x868(%rbp)
    f547:	48 c7 85 a0 f7 ff ff 	movq   $0x0,-0x860(%rbp)
    f54e:	00 00 00 00 
    f552:	48 8d 85 fa ef ff ff 	lea    -0x1006(%rbp),%rax
    f559:	48 89 85 a8 f7 ff ff 	mov    %rax,-0x858(%rbp)
    f560:	48 c7 85 b0 f7 ff ff 	movq   $0x0,-0x850(%rbp)
    f567:	00 00 00 00 
    f56b:	48 c7 85 b8 f7 ff ff 	movq   $0x0,-0x848(%rbp)
    f572:	00 00 00 00 
    f576:	48 c7 85 08 f1 ff ff 	movq   $0x0,-0xef8(%rbp)
    f57d:	00 00 00 00 
    f581:	48 8d 05 58 7c 00 00 	lea    0x7c58(%rip),%rax        # 171e0 <g_195>
    f588:	48 89 85 10 f1 ff ff 	mov    %rax,-0xef0(%rbp)
    f58f:	c7 85 18 f0 ff ff 00 	movl   $0x0,-0xfe8(%rbp)
    f596:	00 00 00 
    f599:	eb 49                	jmp    f5e4 <func_90+0x27e7>
    f59b:	c7 85 1c f0 ff ff 00 	movl   $0x0,-0xfe4(%rbp)
    f5a2:	00 00 00 
    f5a5:	eb 2d                	jmp    f5d4 <func_90+0x27d7>
    f5a7:	8b 85 1c f0 ff ff    	mov    -0xfe4(%rbp),%eax
    f5ad:	48 98                	cltq   
    f5af:	8b 95 18 f0 ff ff    	mov    -0xfe8(%rbp),%edx
    f5b5:	48 63 d2             	movslq %edx,%rdx
    f5b8:	48 01 d2             	add    %rdx,%rdx
    f5bb:	48 01 d0             	add    %rdx,%rax
    f5be:	48 8d 15 23 99 00 00 	lea    0x9923(%rip),%rdx        # 18ee8 <g_271>
    f5c5:	48 89 94 c5 30 f2 ff 	mov    %rdx,-0xdd0(%rbp,%rax,8)
    f5cc:	ff 
    f5cd:	83 85 1c f0 ff ff 01 	addl   $0x1,-0xfe4(%rbp)
    f5d4:	83 bd 1c f0 ff ff 01 	cmpl   $0x1,-0xfe4(%rbp)
    f5db:	7e ca                	jle    f5a7 <func_90+0x27aa>
    f5dd:	83 85 18 f0 ff ff 01 	addl   $0x1,-0xfe8(%rbp)
    f5e4:	83 bd 18 f0 ff ff 00 	cmpl   $0x0,-0xfe8(%rbp)
    f5eb:	7e ae                	jle    f59b <func_90+0x279e>
    f5ed:	c7 85 18 f0 ff ff 00 	movl   $0x0,-0xfe8(%rbp)
    f5f4:	00 00 00 
    f5f7:	eb 1e                	jmp    f617 <func_90+0x281a>
    f5f9:	8b 85 18 f0 ff ff    	mov    -0xfe8(%rbp),%eax
    f5ff:	48 98                	cltq   
    f601:	48 8d 15 b0 7d 00 00 	lea    0x7db0(%rip),%rdx        # 173b8 <g_316+0xb8>
    f608:	48 89 94 c5 60 f2 ff 	mov    %rdx,-0xda0(%rbp,%rax,8)
    f60f:	ff 
    f610:	83 85 18 f0 ff ff 01 	addl   $0x1,-0xfe8(%rbp)
    f617:	83 bd 18 f0 ff ff 02 	cmpl   $0x2,-0xfe8(%rbp)
    f61e:	7e d9                	jle    f5f9 <func_90+0x27fc>
    f620:	8b 85 e8 ef ff ff    	mov    -0x1018(%rbp),%eax
    f626:	85 c0                	test   %eax,%eax
    f628:	0f 85 d8 00 00 00    	jne    f706 <func_90+0x2909>
    f62e:	48 8b 85 08 f3 ff ff 	mov    -0xcf8(%rbp),%rax
    f635:	48 89 05 ac 98 00 00 	mov    %rax,0x98ac(%rip)        # 18ee8 <g_271>
    f63c:	48 8b 95 38 f7 ff ff 	mov    -0x8c8(%rbp),%rdx
    f643:	48 8b 85 b0 f0 ff ff 	mov    -0xf50(%rbp),%rax
    f64a:	48 89 10             	mov    %rdx,(%rax)
    f64d:	0f b7 95 ec ef ff ff 	movzwl -0x1014(%rbp),%edx
    f654:	0f b6 05 a5 7b 00 00 	movzbl 0x7ba5(%rip),%eax        # 17200 <g_227>
    f65b:	83 e0 7f             	and    $0x7f,%eax
    f65e:	89 c1                	mov    %eax,%ecx
    f660:	89 d0                	mov    %edx,%eax
    f662:	09 c8                	or     %ecx,%eax
    f664:	83 e0 7f             	and    $0x7f,%eax
    f667:	83 e0 7f             	and    $0x7f,%eax
    f66a:	89 c2                	mov    %eax,%edx
    f66c:	0f b6 05 8d 7b 00 00 	movzbl 0x7b8d(%rip),%eax        # 17200 <g_227>
    f673:	83 e0 80             	and    $0xffffff80,%eax
    f676:	09 d0                	or     %edx,%eax
    f678:	88 05 82 7b 00 00    	mov    %al,0x7b82(%rip)        # 17200 <g_227>
    f67e:	0f b6 05 43 7b 00 00 	movzbl 0x7b43(%rip),%eax        # 171c8 <g_143>
    f685:	48 0f be d0          	movsbq %al,%rdx
    f689:	48 8b 85 f8 f0 ff ff 	mov    -0xf08(%rbp),%rax
    f690:	48 89 10             	mov    %rdx,(%rax)
    f693:	48 8b 85 f8 f0 ff ff 	mov    -0xf08(%rbp),%rax
    f69a:	48 8b 10             	mov    (%rax),%rdx
    f69d:	8b 85 28 f0 ff ff    	mov    -0xfd8(%rbp),%eax
    f6a3:	f7 d0                	not    %eax
    f6a5:	c1 e8 1f             	shr    $0x1f,%eax
    f6a8:	0f b6 c0             	movzbl %al,%eax
    f6ab:	48 98                	cltq   
    f6ad:	48 39 c2             	cmp    %rax,%rdx
    f6b0:	0f 94 c0             	sete   %al
    f6b3:	0f b6 d0             	movzbl %al,%edx
    f6b6:	48 8b 85 a8 f0 ff ff 	mov    -0xf58(%rbp),%rax
    f6bd:	48 89 10             	mov    %rdx,(%rax)
    f6c0:	48 8b 85 a8 f0 ff ff 	mov    -0xf58(%rbp),%rax
    f6c7:	48 8b 10             	mov    (%rax),%rdx
    f6ca:	0f b6 05 d9 7b 00 00 	movzbl 0x7bd9(%rip),%eax        # 172aa <g_277+0x2>
    f6d1:	0f be c0             	movsbl %al,%eax
    f6d4:	89 d1                	mov    %edx,%ecx
    f6d6:	8b 95 14 f0 ff ff    	mov    -0xfec(%rbp),%edx
    f6dc:	31 ca                	xor    %ecx,%edx
    f6de:	89 95 14 f0 ff ff    	mov    %edx,-0xfec(%rbp)
    f6e4:	39 85 14 f0 ff ff    	cmp    %eax,-0xfec(%rbp)
    f6ea:	0f 9c c0             	setl   %al
    f6ed:	89 c2                	mov    %eax,%edx
    f6ef:	48 8b 85 10 f1 ff ff 	mov    -0xef0(%rbp),%rax
    f6f6:	88 10                	mov    %dl,(%rax)
    f6f8:	48 8b 85 10 f1 ff ff 	mov    -0xef0(%rbp),%rax
    f6ff:	0f b6 00             	movzbl (%rax),%eax
    f702:	84 c0                	test   %al,%al
    f704:	74 07                	je     f70d <func_90+0x2910>
    f706:	ba 01 00 00 00       	mov    $0x1,%edx
    f70b:	eb 05                	jmp    f712 <func_90+0x2915>
    f70d:	ba 00 00 00 00       	mov    $0x0,%edx
    f712:	8b 05 14 79 00 00    	mov    0x7914(%rip),%eax        # 1702c <g_49>
    f718:	09 d0                	or     %edx,%eax
    f71a:	89 05 0c 79 00 00    	mov    %eax,0x790c(%rip)        # 1702c <g_49>
    f720:	83 bd 14 f0 ff ff 00 	cmpl   $0x0,-0xfec(%rbp)
    f727:	75 20                	jne    f749 <func_90+0x294c>
    f729:	8b 85 e8 ef ff ff    	mov    -0x1018(%rbp),%eax
    f72f:	83 c0 01             	add    $0x1,%eax
    f732:	89 85 e8 ef ff ff    	mov    %eax,-0x1018(%rbp)
    f738:	8b 85 e8 ef ff ff    	mov    -0x1018(%rbp),%eax
    f73e:	83 f8 17             	cmp    $0x17,%eax
    f741:	0f 8e 82 f7 ff ff    	jle    eec9 <func_90+0x20cc>
    f747:	eb 01                	jmp    f74a <func_90+0x294d>
    f749:	90                   	nop
    f74a:	48 8d 05 ab 7b 00 00 	lea    0x7bab(%rip),%rax        # 172fc <g_315>
    f751:	e9 b9 03 00 00       	jmpq   fb0f <func_90+0x2d12>
    f756:	66 c7 85 00 f0 ff ff 	movw   $0xffff,-0x1000(%rbp)
    f75d:	ff ff 
    f75f:	48 8d 05 96 7b 00 00 	lea    0x7b96(%rip),%rax        # 172fc <g_315>
    f766:	48 89 85 20 f3 ff ff 	mov    %rax,-0xce0(%rbp)
    f76d:	48 8d 05 88 7b 00 00 	lea    0x7b88(%rip),%rax        # 172fc <g_315>
    f774:	48 89 85 28 f3 ff ff 	mov    %rax,-0xcd8(%rbp)
    f77b:	48 8d 05 7a 7b 00 00 	lea    0x7b7a(%rip),%rax        # 172fc <g_315>
    f782:	48 89 85 30 f3 ff ff 	mov    %rax,-0xcd0(%rbp)
    f789:	48 8d 05 6c 7b 00 00 	lea    0x7b6c(%rip),%rax        # 172fc <g_315>
    f790:	48 89 85 38 f3 ff ff 	mov    %rax,-0xcc8(%rbp)
    f797:	48 8d 05 5e 7b 00 00 	lea    0x7b5e(%rip),%rax        # 172fc <g_315>
    f79e:	48 89 85 40 f3 ff ff 	mov    %rax,-0xcc0(%rbp)
    f7a5:	48 8d 05 50 7b 00 00 	lea    0x7b50(%rip),%rax        # 172fc <g_315>
    f7ac:	48 89 85 48 f3 ff ff 	mov    %rax,-0xcb8(%rbp)
    f7b3:	48 8d 05 42 7b 00 00 	lea    0x7b42(%rip),%rax        # 172fc <g_315>
    f7ba:	48 89 85 50 f3 ff ff 	mov    %rax,-0xcb0(%rbp)
    f7c1:	48 8d 05 34 7b 00 00 	lea    0x7b34(%rip),%rax        # 172fc <g_315>
    f7c8:	48 89 85 58 f3 ff ff 	mov    %rax,-0xca8(%rbp)
    f7cf:	48 8d 05 26 7b 00 00 	lea    0x7b26(%rip),%rax        # 172fc <g_315>
    f7d6:	48 89 85 60 f3 ff ff 	mov    %rax,-0xca0(%rbp)
    f7dd:	48 8d 05 18 7b 00 00 	lea    0x7b18(%rip),%rax        # 172fc <g_315>
    f7e4:	48 89 85 68 f3 ff ff 	mov    %rax,-0xc98(%rbp)
    f7eb:	48 8d 85 58 f0 ff ff 	lea    -0xfa8(%rbp),%rax
    f7f2:	48 89 85 d0 f0 ff ff 	mov    %rax,-0xf30(%rbp)
    f7f9:	48 8d 05 18 97 00 00 	lea    0x9718(%rip),%rax        # 18f18 <g_396>
    f800:	48 89 85 d8 f0 ff ff 	mov    %rax,-0xf28(%rbp)
    f807:	48 8d 05 92 79 00 00 	lea    0x7992(%rip),%rax        # 171a0 <g_140+0x140>
    f80e:	48 89 85 d0 f3 ff ff 	mov    %rax,-0xc30(%rbp)
    f815:	48 8d 05 14 79 00 00 	lea    0x7914(%rip),%rax        # 17130 <g_140+0xd0>
    f81c:	48 89 85 d8 f3 ff ff 	mov    %rax,-0xc28(%rbp)
    f823:	48 8d 05 76 79 00 00 	lea    0x7976(%rip),%rax        # 171a0 <g_140+0x140>
    f82a:	48 89 85 e0 f3 ff ff 	mov    %rax,-0xc20(%rbp)
    f831:	48 8d 05 68 79 00 00 	lea    0x7968(%rip),%rax        # 171a0 <g_140+0x140>
    f838:	48 89 85 e8 f3 ff ff 	mov    %rax,-0xc18(%rbp)
    f83f:	48 8d 05 ea 78 00 00 	lea    0x78ea(%rip),%rax        # 17130 <g_140+0xd0>
    f846:	48 89 85 f0 f3 ff ff 	mov    %rax,-0xc10(%rbp)
    f84d:	48 8d 05 dc 78 00 00 	lea    0x78dc(%rip),%rax        # 17130 <g_140+0xd0>
    f854:	48 89 85 f8 f3 ff ff 	mov    %rax,-0xc08(%rbp)
    f85b:	48 8d 05 be 78 00 00 	lea    0x78be(%rip),%rax        # 17120 <g_140+0xc0>
    f862:	48 89 85 00 f4 ff ff 	mov    %rax,-0xc00(%rbp)
    f869:	48 8d 05 c0 78 00 00 	lea    0x78c0(%rip),%rax        # 17130 <g_140+0xd0>
    f870:	48 89 85 08 f4 ff ff 	mov    %rax,-0xbf8(%rbp)
    f877:	48 8d 05 b2 78 00 00 	lea    0x78b2(%rip),%rax        # 17130 <g_140+0xd0>
    f87e:	48 89 85 10 f4 ff ff 	mov    %rax,-0xbf0(%rbp)
    f885:	48 8d 05 14 79 00 00 	lea    0x7914(%rip),%rax        # 171a0 <g_140+0x140>
    f88c:	48 89 85 18 f4 ff ff 	mov    %rax,-0xbe8(%rbp)
    f893:	48 8d 05 06 79 00 00 	lea    0x7906(%rip),%rax        # 171a0 <g_140+0x140>
    f89a:	48 89 85 20 f4 ff ff 	mov    %rax,-0xbe0(%rbp)
    f8a1:	48 8d 05 88 78 00 00 	lea    0x7888(%rip),%rax        # 17130 <g_140+0xd0>
    f8a8:	48 89 85 28 f4 ff ff 	mov    %rax,-0xbd8(%rbp)
    f8af:	48 8d 05 ea 78 00 00 	lea    0x78ea(%rip),%rax        # 171a0 <g_140+0x140>
    f8b6:	48 89 85 30 f4 ff ff 	mov    %rax,-0xbd0(%rbp)
    f8bd:	48 8d 05 6c 78 00 00 	lea    0x786c(%rip),%rax        # 17130 <g_140+0xd0>
    f8c4:	48 89 85 38 f4 ff ff 	mov    %rax,-0xbc8(%rbp)
    f8cb:	48 8d 05 ce 78 00 00 	lea    0x78ce(%rip),%rax        # 171a0 <g_140+0x140>
    f8d2:	48 89 85 40 f4 ff ff 	mov    %rax,-0xbc0(%rbp)
    f8d9:	48 8d 05 c0 78 00 00 	lea    0x78c0(%rip),%rax        # 171a0 <g_140+0x140>
    f8e0:	48 89 85 48 f4 ff ff 	mov    %rax,-0xbb8(%rbp)
    f8e7:	c7 85 24 f0 ff ff 04 	movl   $0x28d42a04,-0xfdc(%rbp)
    f8ee:	2a d4 28 
    f8f1:	c6 85 f8 ef ff ff 99 	movb   $0x99,-0x1008(%rbp)
    f8f8:	48 8b 85 50 f0 ff ff 	mov    -0xfb0(%rbp),%rax
    f8ff:	8b 00                	mov    (%rax),%eax
    f901:	0f b7 d8             	movzwl %ax,%ebx
    f904:	44 0f b7 a5 00 f0 ff 	movzwl -0x1000(%rbp),%r12d
    f90b:	ff 
    f90c:	48 8b 85 b8 f0 ff ff 	mov    -0xf48(%rbp),%rax
    f913:	48 8b 00             	mov    (%rax),%rax
    f916:	8b 00                	mov    (%rax),%eax
    f918:	85 c0                	test   %eax,%eax
    f91a:	75 34                	jne    f950 <func_90+0x2b53>
    f91c:	48 8b 85 50 f0 ff ff 	mov    -0xfb0(%rbp),%rax
    f923:	8b 00                	mov    (%rax),%eax
    f925:	0f bf d0             	movswl %ax,%edx
    f928:	48 8b 85 b8 f0 ff ff 	mov    -0xf48(%rbp),%rax
    f92f:	48 8b 08             	mov    (%rax),%rcx
    f932:	48 8d 85 e8 ef ff ff 	lea    -0x1018(%rbp),%rax
    f939:	48 39 c1             	cmp    %rax,%rcx
    f93c:	0f 94 c0             	sete   %al
    f93f:	0f b6 c0             	movzbl %al,%eax
    f942:	89 d6                	mov    %edx,%esi
    f944:	89 c7                	mov    %eax,%edi
    f946:	e8 cb 6a ff ff       	callq  6416 <safe_mod_func_int16_t_s_s>
    f94b:	66 85 c0             	test   %ax,%ax
    f94e:	74 07                	je     f957 <func_90+0x2b5a>
    f950:	b8 01 00 00 00       	mov    $0x1,%eax
    f955:	eb 05                	jmp    f95c <func_90+0x2b5f>
    f957:	b8 00 00 00 00       	mov    $0x0,%eax
    f95c:	44 0f bf e8          	movswl %ax,%r13d
    f960:	48 8b 85 50 f0 ff ff 	mov    -0xfb0(%rbp),%rax
    f967:	8b 00                	mov    (%rax),%eax
    f969:	0f b6 c0             	movzbl %al,%eax
    f96c:	be 02 00 00 00       	mov    $0x2,%esi
    f971:	89 c7                	mov    %eax,%edi
    f973:	e8 15 73 ff ff       	callq  6c8d <safe_rshift_func_uint8_t_u_s>
    f978:	0f b6 c0             	movzbl %al,%eax
    f97b:	44 89 ee             	mov    %r13d,%esi
    f97e:	89 c7                	mov    %eax,%edi
    f980:	e8 d0 6a ff ff       	callq  6455 <safe_div_func_int16_t_s_s>
    f985:	41 89 c5             	mov    %eax,%r13d
    f988:	be ff 00 00 00       	mov    $0xff,%esi
    f98d:	bf f8 00 00 00       	mov    $0xf8,%edi
    f992:	e8 c3 71 ff ff       	callq  6b5a <safe_add_func_uint8_t_u_u>
    f997:	44 89 ea             	mov    %r13d,%edx
    f99a:	31 c2                	xor    %eax,%edx
    f99c:	8b 85 e8 ef ff ff    	mov    -0x1018(%rbp),%eax
    f9a2:	31 d0                	xor    %edx,%eax
    f9a4:	0f be c0             	movsbl %al,%eax
    f9a7:	44 89 e6             	mov    %r12d,%esi
    f9aa:	89 c7                	mov    %eax,%edi
    f9ac:	e8 84 69 ff ff       	callq  6335 <safe_rshift_func_int8_t_s_s>
    f9b1:	0f be d0             	movsbl %al,%edx
    f9b4:	48 8b 85 b8 f0 ff ff 	mov    -0xf48(%rbp),%rax
    f9bb:	48 8b 00             	mov    (%rax),%rax
    f9be:	8b 00                	mov    (%rax),%eax
    f9c0:	98                   	cwtl   
    f9c1:	89 d6                	mov    %edx,%esi
    f9c3:	89 c7                	mov    %eax,%edi
    f9c5:	e8 2b 6a ff ff       	callq  63f5 <safe_mul_func_int16_t_s_s>
    f9ca:	0f b7 c0             	movzwl %ax,%eax
    f9cd:	89 de                	mov    %ebx,%esi
    f9cf:	89 c7                	mov    %eax,%edi
    f9d1:	e8 67 73 ff ff       	callq  6d3d <safe_mul_func_uint16_t_u_u>
    f9d6:	8b 85 e8 ef ff ff    	mov    -0x1018(%rbp),%eax
    f9dc:	85 c0                	test   %eax,%eax
    f9de:	bf da ff ff ff       	mov    $0xffffffda,%edi
    f9e3:	e8 d7 67 ff ff       	callq  61bf <safe_unary_minus_func_int8_t_s>
    f9e8:	3c 01                	cmp    $0x1,%al
    f9ea:	0f 9e c0             	setle  %al
    f9ed:	0f b6 d0             	movzbl %al,%edx
    f9f0:	0f b6 05 d9 77 00 00 	movzbl 0x77d9(%rip),%eax        # 171d0 <g_184>
    f9f7:	0f b6 c0             	movzbl %al,%eax
    f9fa:	39 c2                	cmp    %eax,%edx
    f9fc:	0f 95 c0             	setne  %al
    f9ff:	0f b6 d0             	movzbl %al,%edx
    fa02:	8b 05 dc 77 00 00    	mov    0x77dc(%rip),%eax        # 171e4 <g_220>
    fa08:	09 d0                	or     %edx,%eax
    fa0a:	89 05 d4 77 00 00    	mov    %eax,0x77d4(%rip)        # 171e4 <g_220>
    fa10:	48 8b 85 50 f0 ff ff 	mov    -0xfb0(%rbp),%rax
    fa17:	8b 18                	mov    (%rax),%ebx
    fa19:	0f b6 05 7c 78 00 00 	movzbl 0x787c(%rip),%eax        # 1729c <g_274+0x4>
    fa20:	44 0f be e0          	movsbl %al,%r12d
    fa24:	48 8b 95 68 f0 ff ff 	mov    -0xf98(%rbp),%rdx
    fa2b:	48 8b 85 c8 f0 ff ff 	mov    -0xf38(%rbp),%rax
    fa32:	48 89 10             	mov    %rdx,(%rax)
    fa35:	48 8b 85 c8 f0 ff ff 	mov    -0xf38(%rbp),%rax
    fa3c:	48 8b 00             	mov    (%rax),%rax
    fa3f:	48 85 c0             	test   %rax,%rax
    fa42:	48 8b 05 b7 79 00 00 	mov    0x79b7(%rip),%rax        # 17400 <g_397>
    fa49:	48 c1 e0 0c          	shl    $0xc,%rax
    fa4d:	48 c1 f8 28          	sar    $0x28,%rax
    fa51:	98                   	cwtl   
    fa52:	83 e0 06             	and    $0x6,%eax
    fa55:	be 01 00 00 00       	mov    $0x1,%esi
    fa5a:	89 c7                	mov    %eax,%edi
    fa5c:	e8 52 69 ff ff       	callq  63b3 <safe_add_func_int16_t_s_s>
    fa61:	48 8b 85 50 f0 ff ff 	mov    -0xfb0(%rbp),%rax
    fa68:	8b 00                	mov    (%rax),%eax
    fa6a:	be 0b da 40 ef       	mov    $0xef40da0b,%esi
    fa6f:	89 c7                	mov    %eax,%edi
    fa71:	e8 56 6c ff ff       	callq  66cc <safe_mod_func_int32_t_s_s>
    fa76:	48 8b 85 b8 f0 ff ff 	mov    -0xf48(%rbp),%rax
    fa7d:	48 8b 00             	mov    (%rax),%rax
    fa80:	8b 10                	mov    (%rax),%edx
    fa82:	8b 05 44 77 00 00    	mov    0x7744(%rip),%eax        # 171cc <g_180>
    fa88:	39 c2                	cmp    %eax,%edx
    fa8a:	0f 95 c0             	setne  %al
    fa8d:	0f b6 c0             	movzbl %al,%eax
    fa90:	be 06 00 00 00       	mov    $0x6,%esi
    fa95:	89 c7                	mov    %eax,%edi
    fa97:	e8 05 68 ff ff       	callq  62a1 <safe_lshift_func_int8_t_s_s>
    fa9c:	48 8d 05 33 79 00 00 	lea    0x7933(%rip),%rax        # 173d6 <g_382>
    faa3:	48 89 05 a6 94 00 00 	mov    %rax,0x94a6(%rip)        # 18f50 <g_596+0x10>
    faaa:	be 08 00 00 00       	mov    $0x8,%esi
    faaf:	bf 01 00 00 00       	mov    $0x1,%edi
    fab4:	e8 f5 70 ff ff       	callq  6bae <safe_mod_func_uint8_t_u_u>
    fab9:	89 c2                	mov    %eax,%edx
    fabb:	48 8b 05 4e 94 00 00 	mov    0x944e(%rip),%rax        # 18f10 <g_388>
    fac2:	48 8b 00             	mov    (%rax),%rax
    fac5:	0f b6 d2             	movzbl %dl,%edx
    fac8:	48 89 10             	mov    %rdx,(%rax)
    facb:	48 8b 10             	mov    (%rax),%rdx
    face:	48 8b 85 b8 f0 ff ff 	mov    -0xf48(%rbp),%rax
    fad5:	48 8b 00             	mov    (%rax),%rax
    fad8:	8b 00                	mov    (%rax),%eax
    fada:	48 98                	cltq   
    fadc:	48 39 c2             	cmp    %rax,%rdx
    fadf:	0f 9f c0             	setg   %al
    fae2:	0f b6 c0             	movzbl %al,%eax
    fae5:	41 39 c4             	cmp    %eax,%r12d
    fae8:	7e 07                	jle    faf1 <func_90+0x2cf4>
    faea:	b8 01 00 00 00       	mov    $0x1,%eax
    faef:	eb 05                	jmp    faf6 <func_90+0x2cf9>
    faf1:	b8 00 00 00 00       	mov    $0x0,%eax
    faf6:	31 d8                	xor    %ebx,%eax
    faf8:	48 98                	cltq   
    fafa:	8b 95 48 f2 ff ff    	mov    -0xdb8(%rbp),%edx
    fb00:	31 d0                	xor    %edx,%eax
    fb02:	89 85 48 f2 ff ff    	mov    %eax,-0xdb8(%rbp)
    fb08:	48 8d 05 bd 76 00 00 	lea    0x76bd(%rip),%rax        # 171cc <g_180>
    fb0f:	48 8b 5d c8          	mov    -0x38(%rbp),%rbx
    fb13:	64 48 33 1c 25 28 00 	xor    %fs:0x28,%rbx
    fb1a:	00 00 
    fb1c:	74 05                	je     fb23 <func_90+0x2d26>
    fb1e:	e8 4d 65 ff ff       	callq  6070 <__stack_chk_fail@plt>
    fb23:	48 81 c4 f8 0f 00 00 	add    $0xff8,%rsp
    fb2a:	5b                   	pop    %rbx
    fb2b:	41 5c                	pop    %r12
    fb2d:	41 5d                	pop    %r13
    fb2f:	41 5e                	pop    %r14
    fb31:	41 5f                	pop    %r15
    fb33:	5d                   	pop    %rbp
    fb34:	c3                   	retq   

000000000000fb35 <func_99>:
    fb35:	f3 0f 1e fa          	endbr64 
    fb39:	55                   	push   %rbp
    fb3a:	48 89 e5             	mov    %rsp,%rbp
    fb3d:	89 7d ec             	mov    %edi,-0x14(%rbp)
    fb40:	48 89 75 e0          	mov    %rsi,-0x20(%rbp)
    fb44:	48 89 55 d8          	mov    %rdx,-0x28(%rbp)
    fb48:	89 c8                	mov    %ecx,%eax
    fb4a:	66 89 45 e8          	mov    %ax,-0x18(%rbp)
    fb4e:	48 b8 74 46 3d 59 d8 	movabs $0x703b84d8593d4674,%rax
    fb55:	84 3b 70 
    fb58:	48 89 45 f8          	mov    %rax,-0x8(%rbp)
    fb5c:	48 8b 45 d8          	mov    -0x28(%rbp),%rax
    fb60:	8b 00                	mov    (%rax),%eax
    fb62:	48 8b 55 f8          	mov    -0x8(%rbp),%rdx
    fb66:	21 c2                	and    %eax,%edx
    fb68:	48 8b 45 d8          	mov    -0x28(%rbp),%rax
    fb6c:	89 10                	mov    %edx,(%rax)
    fb6e:	8b 05 d4 74 00 00    	mov    0x74d4(%rip),%eax        # 17048 <g_72>
    fb74:	89 c0                	mov    %eax,%eax
    fb76:	5d                   	pop    %rbp
    fb77:	c3                   	retq   

000000000000fb78 <func_104>:
    fb78:	f3 0f 1e fa          	endbr64 
    fb7c:	55                   	push   %rbp
    fb7d:	48 89 e5             	mov    %rsp,%rbp
    fb80:	48 83 ec 40          	sub    $0x40,%rsp
    fb84:	48 89 75 d0          	mov    %rsi,-0x30(%rbp)
    fb88:	89 d0                	mov    %edx,%eax
    fb8a:	48 89 4d c8          	mov    %rcx,-0x38(%rbp)
    fb8e:	89 fa                	mov    %edi,%edx
    fb90:	88 55 dc             	mov    %dl,-0x24(%rbp)
    fb93:	66 89 45 d8          	mov    %ax,-0x28(%rbp)
    fb97:	64 48 8b 04 25 28 00 	mov    %fs:0x28,%rax
    fb9e:	00 00 
    fba0:	48 89 45 f8          	mov    %rax,-0x8(%rbp)
    fba4:	31 c0                	xor    %eax,%eax
    fba6:	48 8d 05 7f 74 00 00 	lea    0x747f(%rip),%rax        # 1702c <g_49>
    fbad:	48 89 45 e8          	mov    %rax,-0x18(%rbp)
    fbb1:	48 8d 45 e8          	lea    -0x18(%rbp),%rax
    fbb5:	48 89 45 f0          	mov    %rax,-0x10(%rbp)
    fbb9:	48 8b 45 f0          	mov    -0x10(%rbp),%rax
    fbbd:	48 8b 55 d0          	mov    -0x30(%rbp),%rdx
    fbc1:	48 89 10             	mov    %rdx,(%rax)
    fbc4:	0f bf 45 d8          	movswl -0x28(%rbp),%eax
    fbc8:	48 8b 4d f8          	mov    -0x8(%rbp),%rcx
    fbcc:	64 48 33 0c 25 28 00 	xor    %fs:0x28,%rcx
    fbd3:	00 00 
    fbd5:	74 05                	je     fbdc <func_104+0x64>
    fbd7:	e8 94 64 ff ff       	callq  6070 <__stack_chk_fail@plt>
    fbdc:	c9                   	leaveq 
    fbdd:	c3                   	retq   

000000000000fbde <main>:
    fbde:	f3 0f 1e fa          	endbr64 
    fbe2:	55                   	push   %rbp
    fbe3:	48 89 e5             	mov    %rsp,%rbp
    fbe6:	48 83 ec 20          	sub    $0x20,%rsp
    fbea:	89 7d ec             	mov    %edi,-0x14(%rbp)
    fbed:	48 89 75 e0          	mov    %rsi,-0x20(%rbp)
    fbf1:	c7 45 fc 00 00 00 00 	movl   $0x0,-0x4(%rbp)
    fbf8:	83 7d ec 02          	cmpl   $0x2,-0x14(%rbp)
    fbfc:	75 25                	jne    fc23 <main+0x45>
    fbfe:	48 8b 45 e0          	mov    -0x20(%rbp),%rax
    fc02:	48 83 c0 08          	add    $0x8,%rax
    fc06:	48 8b 00             	mov    (%rax),%rax
    fc09:	48 8d 35 98 3b 00 00 	lea    0x3b98(%rip),%rsi        # 137a8 <g_1697+0x68c>
    fc10:	48 89 c7             	mov    %rax,%rdi
    fc13:	e8 78 64 ff ff       	callq  6090 <strcmp@plt>
    fc18:	85 c0                	test   %eax,%eax
    fc1a:	75 07                	jne    fc23 <main+0x45>
    fc1c:	c7 45 fc 01 00 00 00 	movl   $0x1,-0x4(%rbp)
    fc23:	e8 61 65 ff ff       	callq  6189 <platform_main_begin>
    fc28:	e8 6b 79 ff ff       	callq  7598 <crc32_gentab>
    fc2d:	e8 83 7b ff ff       	callq  77b5 <func_1>
    fc32:	8b 05 ec 73 00 00    	mov    0x73ec(%rip),%eax        # 17024 <g_2>
    fc38:	89 c1                	mov    %eax,%ecx
    fc3a:	8b 45 fc             	mov    -0x4(%rbp),%eax
    fc3d:	89 c2                	mov    %eax,%edx
    fc3f:	48 8d 35 64 3b 00 00 	lea    0x3b64(%rip),%rsi        # 137aa <g_1697+0x68e>
    fc46:	48 89 cf             	mov    %rcx,%rdi
    fc49:	e8 a5 7a ff ff       	callq  76f3 <transparent_crc>
    fc4e:	0f b7 05 d3 73 00 00 	movzwl 0x73d3(%rip),%eax        # 17028 <g_12>
    fc55:	0f b7 c0             	movzwl %ax,%eax
    fc58:	8b 55 fc             	mov    -0x4(%rbp),%edx
    fc5b:	48 8d 35 4c 3b 00 00 	lea    0x3b4c(%rip),%rsi        # 137ae <g_1697+0x692>
    fc62:	48 89 c7             	mov    %rax,%rdi
    fc65:	e8 89 7a ff ff       	callq  76f3 <transparent_crc>
    fc6a:	8b 05 bc 73 00 00    	mov    0x73bc(%rip),%eax        # 1702c <g_49>
    fc70:	48 98                	cltq   
    fc72:	8b 55 fc             	mov    -0x4(%rbp),%edx
    fc75:	48 8d 35 37 3b 00 00 	lea    0x3b37(%rip),%rsi        # 137b3 <g_1697+0x697>
    fc7c:	48 89 c7             	mov    %rax,%rdi
    fc7f:	e8 6f 7a ff ff       	callq  76f3 <transparent_crc>
    fc84:	0f b6 05 a5 73 00 00 	movzbl 0x73a5(%rip),%eax        # 17030 <g_66>
    fc8b:	48 0f be c0          	movsbq %al,%rax
    fc8f:	8b 55 fc             	mov    -0x4(%rbp),%edx
    fc92:	48 8d 35 1f 3b 00 00 	lea    0x3b1f(%rip),%rsi        # 137b8 <g_1697+0x69c>
    fc99:	48 89 c7             	mov    %rax,%rdi
    fc9c:	e8 52 7a ff ff       	callq  76f3 <transparent_crc>
    fca1:	8b 05 8d 73 00 00    	mov    0x738d(%rip),%eax        # 17034 <g_67>
    fca7:	48 98                	cltq   
    fca9:	8b 55 fc             	mov    -0x4(%rbp),%edx
    fcac:	48 8d 35 0a 3b 00 00 	lea    0x3b0a(%rip),%rsi        # 137bd <g_1697+0x6a1>
    fcb3:	48 89 c7             	mov    %rax,%rdi
    fcb6:	e8 38 7a ff ff       	callq  76f3 <transparent_crc>
    fcbb:	8b 05 77 73 00 00    	mov    0x7377(%rip),%eax        # 17038 <g_68>
    fcc1:	89 c1                	mov    %eax,%ecx
    fcc3:	8b 45 fc             	mov    -0x4(%rbp),%eax
    fcc6:	89 c2                	mov    %eax,%edx
    fcc8:	48 8d 35 f3 3a 00 00 	lea    0x3af3(%rip),%rsi        # 137c2 <g_1697+0x6a6>
    fccf:	48 89 cf             	mov    %rcx,%rdi
    fcd2:	e8 1c 7a ff ff       	callq  76f3 <transparent_crc>
    fcd7:	48 8b 05 62 73 00 00 	mov    0x7362(%rip),%rax        # 17040 <g_71>
    fcde:	48 89 c1             	mov    %rax,%rcx
    fce1:	8b 45 fc             	mov    -0x4(%rbp),%eax
    fce4:	89 c2                	mov    %eax,%edx
    fce6:	48 8d 35 da 3a 00 00 	lea    0x3ada(%rip),%rsi        # 137c7 <g_1697+0x6ab>
    fced:	48 89 cf             	mov    %rcx,%rdi
    fcf0:	e8 fe 79 ff ff       	callq  76f3 <transparent_crc>
    fcf5:	8b 05 4d 73 00 00    	mov    0x734d(%rip),%eax        # 17048 <g_72>
    fcfb:	89 c1                	mov    %eax,%ecx
    fcfd:	8b 45 fc             	mov    -0x4(%rbp),%eax
    fd00:	89 c2                	mov    %eax,%edx
    fd02:	48 8d 35 c3 3a 00 00 	lea    0x3ac3(%rip),%rsi        # 137cc <g_1697+0x6b0>
    fd09:	48 89 cf             	mov    %rcx,%rdi
    fd0c:	e8 e2 79 ff ff       	callq  76f3 <transparent_crc>
    fd11:	0f b7 05 34 73 00 00 	movzwl 0x7334(%rip),%eax        # 1704c <g_126>
    fd18:	48 0f bf c0          	movswq %ax,%rax
    fd1c:	8b 55 fc             	mov    -0x4(%rbp),%edx
    fd1f:	48 8d 35 ab 3a 00 00 	lea    0x3aab(%rip),%rsi        # 137d1 <g_1697+0x6b5>
    fd26:	48 89 c7             	mov    %rax,%rdi
    fd29:	e8 c5 79 ff ff       	callq  76f3 <transparent_crc>
    fd2e:	0f b7 05 19 73 00 00 	movzwl 0x7319(%rip),%eax        # 1704e <g_128>
    fd35:	48 0f bf c0          	movswq %ax,%rax
    fd39:	8b 55 fc             	mov    -0x4(%rbp),%edx
    fd3c:	48 8d 35 94 3a 00 00 	lea    0x3a94(%rip),%rsi        # 137d7 <g_1697+0x6bb>
    fd43:	48 89 c7             	mov    %rax,%rdi
    fd46:	e8 a8 79 ff ff       	callq  76f3 <transparent_crc>
    fd4b:	c7 45 f0 00 00 00 00 	movl   $0x0,-0x10(%rbp)
    fd52:	eb 74                	jmp    fdc8 <main+0x1ea>
    fd54:	c7 45 f4 00 00 00 00 	movl   $0x0,-0xc(%rbp)
    fd5b:	eb 61                	jmp    fdbe <main+0x1e0>
    fd5d:	8b 45 f4             	mov    -0xc(%rbp),%eax
    fd60:	48 63 c8             	movslq %eax,%rcx
    fd63:	8b 45 f0             	mov    -0x10(%rbp),%eax
    fd66:	48 63 d0             	movslq %eax,%rdx
    fd69:	48 89 d0             	mov    %rdx,%rax
    fd6c:	48 c1 e0 03          	shl    $0x3,%rax
    fd70:	48 01 d0             	add    %rdx,%rax
    fd73:	48 01 c8             	add    %rcx,%rax
    fd76:	48 8d 14 c5 00 00 00 	lea    0x0(,%rax,8),%rdx
    fd7d:	00 
    fd7e:	48 8d 05 db 72 00 00 	lea    0x72db(%rip),%rax        # 17060 <g_140>
    fd85:	48 8b 04 02          	mov    (%rdx,%rax,1),%rax
    fd89:	8b 55 fc             	mov    -0x4(%rbp),%edx
    fd8c:	48 8d 35 4a 3a 00 00 	lea    0x3a4a(%rip),%rsi        # 137dd <g_1697+0x6c1>
    fd93:	48 89 c7             	mov    %rax,%rdi
    fd96:	e8 58 79 ff ff       	callq  76f3 <transparent_crc>
    fd9b:	83 7d fc 00          	cmpl   $0x0,-0x4(%rbp)
    fd9f:	74 19                	je     fdba <main+0x1dc>
    fda1:	8b 55 f4             	mov    -0xc(%rbp),%edx
    fda4:	8b 45 f0             	mov    -0x10(%rbp),%eax
    fda7:	89 c6                	mov    %eax,%esi
    fda9:	48 8d 3d 39 3a 00 00 	lea    0x3a39(%rip),%rdi        # 137e9 <g_1697+0x6cd>
    fdb0:	b8 00 00 00 00       	mov    $0x0,%eax
    fdb5:	e8 c6 62 ff ff       	callq  6080 <printf@plt>
    fdba:	83 45 f4 01          	addl   $0x1,-0xc(%rbp)
    fdbe:	83 7d f4 08          	cmpl   $0x8,-0xc(%rbp)
    fdc2:	7e 99                	jle    fd5d <main+0x17f>
    fdc4:	83 45 f0 01          	addl   $0x1,-0x10(%rbp)
    fdc8:	83 7d f0 04          	cmpl   $0x4,-0x10(%rbp)
    fdcc:	7e 86                	jle    fd54 <main+0x176>
    fdce:	0f b6 05 f3 73 00 00 	movzbl 0x73f3(%rip),%eax        # 171c8 <g_143>
    fdd5:	48 0f be c0          	movsbq %al,%rax
    fdd9:	8b 55 fc             	mov    -0x4(%rbp),%edx
    fddc:	48 8d 35 18 3a 00 00 	lea    0x3a18(%rip),%rsi        # 137fb <g_1697+0x6df>
    fde3:	48 89 c7             	mov    %rax,%rdi
    fde6:	e8 08 79 ff ff       	callq  76f3 <transparent_crc>
    fdeb:	8b 05 db 73 00 00    	mov    0x73db(%rip),%eax        # 171cc <g_180>
    fdf1:	48 98                	cltq   
    fdf3:	8b 55 fc             	mov    -0x4(%rbp),%edx
    fdf6:	48 8d 35 04 3a 00 00 	lea    0x3a04(%rip),%rsi        # 13801 <g_1697+0x6e5>
    fdfd:	48 89 c7             	mov    %rax,%rdi
    fe00:	e8 ee 78 ff ff       	callq  76f3 <transparent_crc>
    fe05:	0f b6 05 c4 73 00 00 	movzbl 0x73c4(%rip),%eax        # 171d0 <g_184>
    fe0c:	0f b6 c0             	movzbl %al,%eax
    fe0f:	8b 55 fc             	mov    -0x4(%rbp),%edx
    fe12:	48 8d 35 ee 39 00 00 	lea    0x39ee(%rip),%rsi        # 13807 <g_1697+0x6eb>
    fe19:	48 89 c7             	mov    %rax,%rdi
    fe1c:	e8 d2 78 ff ff       	callq  76f3 <transparent_crc>
    fe21:	48 8b 05 b0 73 00 00 	mov    0x73b0(%rip),%rax        # 171d8 <g_193>
    fe28:	48 89 c1             	mov    %rax,%rcx
    fe2b:	8b 45 fc             	mov    -0x4(%rbp),%eax
    fe2e:	89 c2                	mov    %eax,%edx
    fe30:	48 8d 35 d6 39 00 00 	lea    0x39d6(%rip),%rsi        # 1380d <g_1697+0x6f1>
    fe37:	48 89 cf             	mov    %rcx,%rdi
    fe3a:	e8 b4 78 ff ff       	callq  76f3 <transparent_crc>
    fe3f:	0f b6 05 9a 73 00 00 	movzbl 0x739a(%rip),%eax        # 171e0 <g_195>
    fe46:	0f b6 c0             	movzbl %al,%eax
    fe49:	8b 55 fc             	mov    -0x4(%rbp),%edx
    fe4c:	48 8d 35 c0 39 00 00 	lea    0x39c0(%rip),%rsi        # 13813 <g_1697+0x6f7>
    fe53:	48 89 c7             	mov    %rax,%rdi
    fe56:	e8 98 78 ff ff       	callq  76f3 <transparent_crc>
    fe5b:	8b 05 83 73 00 00    	mov    0x7383(%rip),%eax        # 171e4 <g_220>
    fe61:	48 98                	cltq   
    fe63:	8b 55 fc             	mov    -0x4(%rbp),%edx
    fe66:	48 8d 35 ac 39 00 00 	lea    0x39ac(%rip),%rsi        # 13819 <g_1697+0x6fd>
    fe6d:	48 89 c7             	mov    %rax,%rdi
    fe70:	e8 7e 78 ff ff       	callq  76f3 <transparent_crc>
    fe75:	8b 05 6d 73 00 00    	mov    0x736d(%rip),%eax        # 171e8 <g_223>
    fe7b:	89 c1                	mov    %eax,%ecx
    fe7d:	8b 45 fc             	mov    -0x4(%rbp),%eax
    fe80:	89 c2                	mov    %eax,%edx
    fe82:	48 8d 35 96 39 00 00 	lea    0x3996(%rip),%rsi        # 1381f <g_1697+0x703>
    fe89:	48 89 cf             	mov    %rcx,%rdi
    fe8c:	e8 62 78 ff ff       	callq  76f3 <transparent_crc>
    fe91:	c7 45 f0 00 00 00 00 	movl   $0x0,-0x10(%rbp)
    fe98:	e9 2a 01 00 00       	jmpq   ffc7 <main+0x3e9>
    fe9d:	8b 45 f0             	mov    -0x10(%rbp),%eax
    fea0:	48 98                	cltq   
    fea2:	48 c1 e0 04          	shl    $0x4,%rax
    fea6:	48 89 c2             	mov    %rax,%rdx
    fea9:	48 8d 05 50 73 00 00 	lea    0x7350(%rip),%rax        # 17200 <g_227>
    feb0:	0f b6 04 02          	movzbl (%rdx,%rax,1),%eax
    feb4:	83 e0 7f             	and    $0x7f,%eax
    feb7:	0f b6 c0             	movzbl %al,%eax
    feba:	8b 55 fc             	mov    -0x4(%rbp),%edx
    febd:	48 8d 35 61 39 00 00 	lea    0x3961(%rip),%rsi        # 13825 <g_1697+0x709>
    fec4:	48 89 c7             	mov    %rax,%rdi
    fec7:	e8 27 78 ff ff       	callq  76f3 <transparent_crc>
    fecc:	8b 45 f0             	mov    -0x10(%rbp),%eax
    fecf:	48 98                	cltq   
    fed1:	48 c1 e0 04          	shl    $0x4,%rax
    fed5:	48 89 c2             	mov    %rax,%rdx
    fed8:	48 8d 05 25 73 00 00 	lea    0x7325(%rip),%rax        # 17204 <g_227+0x4>
    fedf:	0f b6 04 02          	movzbl (%rdx,%rax,1),%eax
    fee3:	0f b6 c0             	movzbl %al,%eax
    fee6:	8b 55 fc             	mov    -0x4(%rbp),%edx
    fee9:	48 8d 35 41 39 00 00 	lea    0x3941(%rip),%rsi        # 13831 <g_1697+0x715>
    fef0:	48 89 c7             	mov    %rax,%rdi
    fef3:	e8 fb 77 ff ff       	callq  76f3 <transparent_crc>
    fef8:	8b 45 f0             	mov    -0x10(%rbp),%eax
    fefb:	48 98                	cltq   
    fefd:	48 c1 e0 04          	shl    $0x4,%rax
    ff01:	48 89 c2             	mov    %rax,%rdx
    ff04:	48 8d 05 f5 72 00 00 	lea    0x72f5(%rip),%rax        # 17200 <g_227>
    ff0b:	8b 4c 02 04          	mov    0x4(%rdx,%rax,1),%ecx
    ff0f:	c1 e9 08             	shr    $0x8,%ecx
    ff12:	89 c9                	mov    %ecx,%ecx
    ff14:	0f b6 44 02 08       	movzbl 0x8(%rdx,%rax,1),%eax
    ff19:	83 e0 1f             	and    $0x1f,%eax
    ff1c:	48 c1 e0 18          	shl    $0x18,%rax
    ff20:	48 09 c8             	or     %rcx,%rax
    ff23:	48 c1 e0 23          	shl    $0x23,%rax
    ff27:	48 c1 f8 23          	sar    $0x23,%rax
    ff2b:	48 98                	cltq   
    ff2d:	8b 55 fc             	mov    -0x4(%rbp),%edx
    ff30:	48 8d 35 09 39 00 00 	lea    0x3909(%rip),%rsi        # 13840 <g_1697+0x724>
    ff37:	48 89 c7             	mov    %rax,%rdi
    ff3a:	e8 b4 77 ff ff       	callq  76f3 <transparent_crc>
    ff3f:	8b 45 f0             	mov    -0x10(%rbp),%eax
    ff42:	48 98                	cltq   
    ff44:	48 c1 e0 04          	shl    $0x4,%rax
    ff48:	48 89 c2             	mov    %rax,%rdx
    ff4b:	48 8d 05 ae 72 00 00 	lea    0x72ae(%rip),%rax        # 17200 <g_227>
    ff52:	0f b7 44 02 08       	movzwl 0x8(%rdx,%rax,1),%eax
    ff57:	66 c1 e8 05          	shr    $0x5,%ax
    ff5b:	0f b7 c0             	movzwl %ax,%eax
    ff5e:	8b 55 fc             	mov    -0x4(%rbp),%edx
    ff61:	48 8d 35 e7 38 00 00 	lea    0x38e7(%rip),%rsi        # 1384f <g_1697+0x733>
    ff68:	48 89 c7             	mov    %rax,%rdi
    ff6b:	e8 83 77 ff ff       	callq  76f3 <transparent_crc>
    ff70:	8b 45 f0             	mov    -0x10(%rbp),%eax
    ff73:	48 98                	cltq   
    ff75:	48 c1 e0 04          	shl    $0x4,%rax
    ff79:	48 89 c2             	mov    %rax,%rdx
    ff7c:	48 8d 05 7d 72 00 00 	lea    0x727d(%rip),%rax        # 17200 <g_227>
    ff83:	48 8b 44 02 08       	mov    0x8(%rdx,%rax,1),%rax
    ff88:	48 c1 e8 20          	shr    $0x20,%rax
    ff8c:	25 ff ff ff 1f       	and    $0x1fffffff,%eax
    ff91:	89 c1                	mov    %eax,%ecx
    ff93:	8b 45 fc             	mov    -0x4(%rbp),%eax
    ff96:	89 c2                	mov    %eax,%edx
    ff98:	48 8d 35 bf 38 00 00 	lea    0x38bf(%rip),%rsi        # 1385e <g_1697+0x742>
    ff9f:	48 89 cf             	mov    %rcx,%rdi
    ffa2:	e8 4c 77 ff ff       	callq  76f3 <transparent_crc>
    ffa7:	83 7d fc 00          	cmpl   $0x0,-0x4(%rbp)
    ffab:	74 16                	je     ffc3 <main+0x3e5>
    ffad:	8b 45 f0             	mov    -0x10(%rbp),%eax
    ffb0:	89 c6                	mov    %eax,%esi
    ffb2:	48 8d 3d b1 38 00 00 	lea    0x38b1(%rip),%rdi        # 1386a <g_1697+0x74e>
    ffb9:	b8 00 00 00 00       	mov    $0x0,%eax
    ffbe:	e8 bd 60 ff ff       	callq  6080 <printf@plt>
    ffc3:	83 45 f0 01          	addl   $0x1,-0x10(%rbp)
    ffc7:	83 7d f0 08          	cmpl   $0x8,-0x10(%rbp)
    ffcb:	0f 8e cc fe ff ff    	jle    fe9d <main+0x2bf>
    ffd1:	c7 45 f0 00 00 00 00 	movl   $0x0,-0x10(%rbp)
    ffd8:	eb 4a                	jmp    10024 <main+0x446>
    ffda:	8b 45 f0             	mov    -0x10(%rbp),%eax
    ffdd:	48 98                	cltq   
    ffdf:	48 8d 14 00          	lea    (%rax,%rax,1),%rdx
    ffe3:	48 8d 05 a6 72 00 00 	lea    0x72a6(%rip),%rax        # 17290 <g_270>
    ffea:	0f b7 04 02          	movzwl (%rdx,%rax,1),%eax
    ffee:	48 0f bf c0          	movswq %ax,%rax
    fff2:	8b 55 fc             	mov    -0x4(%rbp),%edx
    fff5:	48 8d 35 7c 38 00 00 	lea    0x387c(%rip),%rsi        # 13878 <g_1697+0x75c>
    fffc:	48 89 c7             	mov    %rax,%rdi
    ffff:	e8 ef 76 ff ff       	callq  76f3 <transparent_crc>
   10004:	83 7d fc 00          	cmpl   $0x0,-0x4(%rbp)
   10008:	74 16                	je     10020 <main+0x442>
   1000a:	8b 45 f0             	mov    -0x10(%rbp),%eax
   1000d:	89 c6                	mov    %eax,%esi
   1000f:	48 8d 3d 54 38 00 00 	lea    0x3854(%rip),%rdi        # 1386a <g_1697+0x74e>
   10016:	b8 00 00 00 00       	mov    $0x0,%eax
   1001b:	e8 60 60 ff ff       	callq  6080 <printf@plt>
   10020:	83 45 f0 01          	addl   $0x1,-0x10(%rbp)
   10024:	83 7d f0 00          	cmpl   $0x0,-0x10(%rbp)
   10028:	7e b0                	jle    ffda <main+0x3fc>
   1002a:	0f b7 05 61 72 00 00 	movzwl 0x7261(%rip),%eax        # 17292 <g_272>
   10031:	48 0f bf c0          	movswq %ax,%rax
   10035:	8b 55 fc             	mov    -0x4(%rbp),%edx
   10038:	48 8d 35 45 38 00 00 	lea    0x3845(%rip),%rsi        # 13884 <g_1697+0x768>
   1003f:	48 89 c7             	mov    %rax,%rdi
   10042:	e8 ac 76 ff ff       	callq  76f3 <transparent_crc>
   10047:	c7 45 f0 00 00 00 00 	movl   $0x0,-0x10(%rbp)
   1004e:	eb 46                	jmp    10096 <main+0x4b8>
   10050:	8b 45 f0             	mov    -0x10(%rbp),%eax
   10053:	48 98                	cltq   
   10055:	48 8d 15 3c 72 00 00 	lea    0x723c(%rip),%rdx        # 17298 <g_274>
   1005c:	0f b6 04 10          	movzbl (%rax,%rdx,1),%eax
   10060:	48 0f be c0          	movsbq %al,%rax
   10064:	8b 55 fc             	mov    -0x4(%rbp),%edx
   10067:	48 8d 35 1f 38 00 00 	lea    0x381f(%rip),%rsi        # 1388d <g_1697+0x771>
   1006e:	48 89 c7             	mov    %rax,%rdi
   10071:	e8 7d 76 ff ff       	callq  76f3 <transparent_crc>
   10076:	83 7d fc 00          	cmpl   $0x0,-0x4(%rbp)
   1007a:	74 16                	je     10092 <main+0x4b4>
   1007c:	8b 45 f0             	mov    -0x10(%rbp),%eax
   1007f:	89 c6                	mov    %eax,%esi
   10081:	48 8d 3d e2 37 00 00 	lea    0x37e2(%rip),%rdi        # 1386a <g_1697+0x74e>
   10088:	b8 00 00 00 00       	mov    $0x0,%eax
   1008d:	e8 ee 5f ff ff       	callq  6080 <printf@plt>
   10092:	83 45 f0 01          	addl   $0x1,-0x10(%rbp)
   10096:	83 7d f0 09          	cmpl   $0x9,-0x10(%rbp)
   1009a:	7e b4                	jle    10050 <main+0x472>
   1009c:	8b 05 02 72 00 00    	mov    0x7202(%rip),%eax        # 172a4 <g_275>
   100a2:	48 98                	cltq   
   100a4:	8b 55 fc             	mov    -0x4(%rbp),%edx
   100a7:	48 8d 35 e8 37 00 00 	lea    0x37e8(%rip),%rsi        # 13896 <g_1697+0x77a>
   100ae:	48 89 c7             	mov    %rax,%rdi
   100b1:	e8 3d 76 ff ff       	callq  76f3 <transparent_crc>
   100b6:	c7 45 f0 00 00 00 00 	movl   $0x0,-0x10(%rbp)
   100bd:	eb 46                	jmp    10105 <main+0x527>
   100bf:	8b 45 f0             	mov    -0x10(%rbp),%eax
   100c2:	48 98                	cltq   
   100c4:	48 8d 15 dd 71 00 00 	lea    0x71dd(%rip),%rdx        # 172a8 <g_277>
   100cb:	0f b6 04 10          	movzbl (%rax,%rdx,1),%eax
   100cf:	48 0f be c0          	movsbq %al,%rax
   100d3:	8b 55 fc             	mov    -0x4(%rbp),%edx
   100d6:	48 8d 35 bf 37 00 00 	lea    0x37bf(%rip),%rsi        # 1389c <g_1697+0x780>
   100dd:	48 89 c7             	mov    %rax,%rdi
   100e0:	e8 0e 76 ff ff       	callq  76f3 <transparent_crc>
   100e5:	83 7d fc 00          	cmpl   $0x0,-0x4(%rbp)
   100e9:	74 16                	je     10101 <main+0x523>
   100eb:	8b 45 f0             	mov    -0x10(%rbp),%eax
   100ee:	89 c6                	mov    %eax,%esi
   100f0:	48 8d 3d 73 37 00 00 	lea    0x3773(%rip),%rdi        # 1386a <g_1697+0x74e>
   100f7:	b8 00 00 00 00       	mov    $0x0,%eax
   100fc:	e8 7f 5f ff ff       	callq  6080 <printf@plt>
   10101:	83 45 f0 01          	addl   $0x1,-0x10(%rbp)
   10105:	83 7d f0 05          	cmpl   $0x5,-0x10(%rbp)
   10109:	7e b4                	jle    100bf <main+0x4e1>
   1010b:	c7 45 f0 00 00 00 00 	movl   $0x0,-0x10(%rbp)
   10112:	eb 71                	jmp    10185 <main+0x5a7>
   10114:	c7 45 f4 00 00 00 00 	movl   $0x0,-0xc(%rbp)
   1011b:	eb 5e                	jmp    1017b <main+0x59d>
   1011d:	8b 45 f4             	mov    -0xc(%rbp),%eax
   10120:	48 98                	cltq   
   10122:	8b 55 f0             	mov    -0x10(%rbp),%edx
   10125:	48 63 d2             	movslq %edx,%rdx
   10128:	48 01 d2             	add    %rdx,%rdx
   1012b:	48 01 d0             	add    %rdx,%rax
   1012e:	48 8d 14 c5 00 00 00 	lea    0x0(,%rax,8),%rdx
   10135:	00 
   10136:	48 8d 05 83 71 00 00 	lea    0x7183(%rip),%rax        # 172c0 <g_280>
   1013d:	48 8b 04 02          	mov    (%rdx,%rax,1),%rax
   10141:	48 89 c1             	mov    %rax,%rcx
   10144:	8b 45 fc             	mov    -0x4(%rbp),%eax
   10147:	89 c2                	mov    %eax,%edx
   10149:	48 8d 35 55 37 00 00 	lea    0x3755(%rip),%rsi        # 138a5 <g_1697+0x789>
   10150:	48 89 cf             	mov    %rcx,%rdi
   10153:	e8 9b 75 ff ff       	callq  76f3 <transparent_crc>
   10158:	83 7d fc 00          	cmpl   $0x0,-0x4(%rbp)
   1015c:	74 19                	je     10177 <main+0x599>
   1015e:	8b 55 f4             	mov    -0xc(%rbp),%edx
   10161:	8b 45 f0             	mov    -0x10(%rbp),%eax
   10164:	89 c6                	mov    %eax,%esi
   10166:	48 8d 3d 7c 36 00 00 	lea    0x367c(%rip),%rdi        # 137e9 <g_1697+0x6cd>
   1016d:	b8 00 00 00 00       	mov    $0x0,%eax
   10172:	e8 09 5f ff ff       	callq  6080 <printf@plt>
   10177:	83 45 f4 01          	addl   $0x1,-0xc(%rbp)
   1017b:	83 7d f4 01          	cmpl   $0x1,-0xc(%rbp)
   1017f:	7e 9c                	jle    1011d <main+0x53f>
   10181:	83 45 f0 01          	addl   $0x1,-0x10(%rbp)
   10185:	83 7d f0 02          	cmpl   $0x2,-0x10(%rbp)
   10189:	7e 89                	jle    10114 <main+0x536>
   1018b:	0f b7 05 5e 71 00 00 	movzwl 0x715e(%rip),%eax        # 172f0 <g_282>
   10192:	48 0f bf c0          	movswq %ax,%rax
   10196:	8b 55 fc             	mov    -0x4(%rbp),%edx
   10199:	48 8d 35 11 37 00 00 	lea    0x3711(%rip),%rsi        # 138b1 <g_1697+0x795>
   101a0:	48 89 c7             	mov    %rax,%rdi
   101a3:	e8 4b 75 ff ff       	callq  76f3 <transparent_crc>
   101a8:	8b 05 46 71 00 00    	mov    0x7146(%rip),%eax        # 172f4 <g_283>
   101ae:	89 c1                	mov    %eax,%ecx
   101b0:	8b 45 fc             	mov    -0x4(%rbp),%eax
   101b3:	89 c2                	mov    %eax,%edx
   101b5:	48 8d 35 fb 36 00 00 	lea    0x36fb(%rip),%rsi        # 138b7 <g_1697+0x79b>
   101bc:	48 89 cf             	mov    %rcx,%rdi
   101bf:	e8 2f 75 ff ff       	callq  76f3 <transparent_crc>
   101c4:	8b 05 2e 71 00 00    	mov    0x712e(%rip),%eax        # 172f8 <g_313>
   101ca:	48 98                	cltq   
   101cc:	8b 55 fc             	mov    -0x4(%rbp),%edx
   101cf:	48 8d 35 e7 36 00 00 	lea    0x36e7(%rip),%rsi        # 138bd <g_1697+0x7a1>
   101d6:	48 89 c7             	mov    %rax,%rdi
   101d9:	e8 15 75 ff ff       	callq  76f3 <transparent_crc>
   101de:	8b 05 18 71 00 00    	mov    0x7118(%rip),%eax        # 172fc <g_315>
   101e4:	48 98                	cltq   
   101e6:	8b 55 fc             	mov    -0x4(%rbp),%edx
   101e9:	48 8d 35 d3 36 00 00 	lea    0x36d3(%rip),%rsi        # 138c3 <g_1697+0x7a7>
   101f0:	48 89 c7             	mov    %rax,%rdi
   101f3:	e8 fb 74 ff ff       	callq  76f3 <transparent_crc>
   101f8:	c7 45 f0 00 00 00 00 	movl   $0x0,-0x10(%rbp)
   101ff:	eb 74                	jmp    10275 <main+0x697>
   10201:	c7 45 f4 00 00 00 00 	movl   $0x0,-0xc(%rbp)
   10208:	eb 61                	jmp    1026b <main+0x68d>
   1020a:	8b 45 f4             	mov    -0xc(%rbp),%eax
   1020d:	48 63 c8             	movslq %eax,%rcx
   10210:	8b 45 f0             	mov    -0x10(%rbp),%eax
   10213:	48 63 d0             	movslq %eax,%rdx
   10216:	48 89 d0             	mov    %rdx,%rax
   10219:	48 c1 e0 02          	shl    $0x2,%rax
   1021d:	48 01 d0             	add    %rdx,%rax
   10220:	48 01 c8             	add    %rcx,%rax
   10223:	48 8d 14 c5 00 00 00 	lea    0x0(,%rax,8),%rdx
   1022a:	00 
   1022b:	48 8d 05 ce 70 00 00 	lea    0x70ce(%rip),%rax        # 17300 <g_316>
   10232:	48 8b 04 02          	mov    (%rdx,%rax,1),%rax
   10236:	8b 55 fc             	mov    -0x4(%rbp),%edx
   10239:	48 8d 35 89 36 00 00 	lea    0x3689(%rip),%rsi        # 138c9 <g_1697+0x7ad>
   10240:	48 89 c7             	mov    %rax,%rdi
   10243:	e8 ab 74 ff ff       	callq  76f3 <transparent_crc>
   10248:	83 7d fc 00          	cmpl   $0x0,-0x4(%rbp)
   1024c:	74 19                	je     10267 <main+0x689>
   1024e:	8b 55 f4             	mov    -0xc(%rbp),%edx
   10251:	8b 45 f0             	mov    -0x10(%rbp),%eax
   10254:	89 c6                	mov    %eax,%esi
   10256:	48 8d 3d 8c 35 00 00 	lea    0x358c(%rip),%rdi        # 137e9 <g_1697+0x6cd>
   1025d:	b8 00 00 00 00       	mov    $0x0,%eax
   10262:	e8 19 5e ff ff       	callq  6080 <printf@plt>
   10267:	83 45 f4 01          	addl   $0x1,-0xc(%rbp)
   1026b:	83 7d f4 04          	cmpl   $0x4,-0xc(%rbp)
   1026f:	7e 99                	jle    1020a <main+0x62c>
   10271:	83 45 f0 01          	addl   $0x1,-0x10(%rbp)
   10275:	83 7d f0 04          	cmpl   $0x4,-0x10(%rbp)
   10279:	7e 86                	jle    10201 <main+0x623>
   1027b:	0f b7 05 a6 9e 00 00 	movzwl 0x9ea6(%rip),%eax        # 1a128 <g_341>
   10282:	48 0f bf c0          	movswq %ax,%rax
   10286:	8b 55 fc             	mov    -0x4(%rbp),%edx
   10289:	48 8d 35 45 36 00 00 	lea    0x3645(%rip),%rsi        # 138d5 <g_1697+0x7b9>
   10290:	48 89 c7             	mov    %rax,%rdi
   10293:	e8 5b 74 ff ff       	callq  76f3 <transparent_crc>
   10298:	c7 45 f0 00 00 00 00 	movl   $0x0,-0x10(%rbp)
   1029f:	eb 4a                	jmp    102eb <main+0x70d>
   102a1:	8b 45 f0             	mov    -0x10(%rbp),%eax
   102a4:	48 98                	cltq   
   102a6:	48 8d 14 00          	lea    (%rax,%rax,1),%rdx
   102aa:	48 8d 05 17 71 00 00 	lea    0x7117(%rip),%rax        # 173c8 <g_342>
   102b1:	0f b7 04 02          	movzwl (%rdx,%rax,1),%eax
   102b5:	48 0f bf c0          	movswq %ax,%rax
   102b9:	8b 55 fc             	mov    -0x4(%rbp),%edx
   102bc:	48 8d 35 1b 36 00 00 	lea    0x361b(%rip),%rsi        # 138de <g_1697+0x7c2>
   102c3:	48 89 c7             	mov    %rax,%rdi
   102c6:	e8 28 74 ff ff       	callq  76f3 <transparent_crc>
   102cb:	83 7d fc 00          	cmpl   $0x0,-0x4(%rbp)
   102cf:	74 16                	je     102e7 <main+0x709>
   102d1:	8b 45 f0             	mov    -0x10(%rbp),%eax
   102d4:	89 c6                	mov    %eax,%esi
   102d6:	48 8d 3d 8d 35 00 00 	lea    0x358d(%rip),%rdi        # 1386a <g_1697+0x74e>
   102dd:	b8 00 00 00 00       	mov    $0x0,%eax
   102e2:	e8 99 5d ff ff       	callq  6080 <printf@plt>
   102e7:	83 45 f0 01          	addl   $0x1,-0x10(%rbp)
   102eb:	83 7d f0 01          	cmpl   $0x1,-0x10(%rbp)
   102ef:	7e b0                	jle    102a1 <main+0x6c3>
   102f1:	0f b7 05 d4 70 00 00 	movzwl 0x70d4(%rip),%eax        # 173cc <g_343>
   102f8:	48 0f bf c0          	movswq %ax,%rax
   102fc:	8b 55 fc             	mov    -0x4(%rbp),%edx
   102ff:	48 8d 35 e4 35 00 00 	lea    0x35e4(%rip),%rsi        # 138ea <g_1697+0x7ce>
   10306:	48 89 c7             	mov    %rax,%rdi
   10309:	e8 e5 73 ff ff       	callq  76f3 <transparent_crc>
   1030e:	0f b7 05 b9 70 00 00 	movzwl 0x70b9(%rip),%eax        # 173ce <g_344>
   10315:	48 0f bf c0          	movswq %ax,%rax
   10319:	8b 55 fc             	mov    -0x4(%rbp),%edx
   1031c:	48 8d 35 d0 35 00 00 	lea    0x35d0(%rip),%rsi        # 138f3 <g_1697+0x7d7>
   10323:	48 89 c7             	mov    %rax,%rdi
   10326:	e8 c8 73 ff ff       	callq  76f3 <transparent_crc>
   1032b:	0f b7 05 9e 70 00 00 	movzwl 0x709e(%rip),%eax        # 173d0 <g_345>
   10332:	48 0f bf c0          	movswq %ax,%rax
   10336:	8b 55 fc             	mov    -0x4(%rbp),%edx
   10339:	48 8d 35 bc 35 00 00 	lea    0x35bc(%rip),%rsi        # 138fc <g_1697+0x7e0>
   10340:	48 89 c7             	mov    %rax,%rdi
   10343:	e8 ab 73 ff ff       	callq  76f3 <transparent_crc>
   10348:	0f b7 05 83 70 00 00 	movzwl 0x7083(%rip),%eax        # 173d2 <g_346>
   1034f:	48 0f bf c0          	movswq %ax,%rax
   10353:	8b 55 fc             	mov    -0x4(%rbp),%edx
   10356:	48 8d 35 a8 35 00 00 	lea    0x35a8(%rip),%rsi        # 13905 <g_1697+0x7e9>
   1035d:	48 89 c7             	mov    %rax,%rdi
   10360:	e8 8e 73 ff ff       	callq  76f3 <transparent_crc>
   10365:	0f b7 05 68 70 00 00 	movzwl 0x7068(%rip),%eax        # 173d4 <g_381>
   1036c:	48 0f bf c0          	movswq %ax,%rax
   10370:	8b 55 fc             	mov    -0x4(%rbp),%edx
   10373:	48 8d 35 94 35 00 00 	lea    0x3594(%rip),%rsi        # 1390e <g_1697+0x7f2>
   1037a:	48 89 c7             	mov    %rax,%rdi
   1037d:	e8 71 73 ff ff       	callq  76f3 <transparent_crc>
   10382:	0f b7 05 4d 70 00 00 	movzwl 0x704d(%rip),%eax        # 173d6 <g_382>
   10389:	0f b7 c0             	movzwl %ax,%eax
   1038c:	8b 55 fc             	mov    -0x4(%rbp),%edx
   1038f:	48 8d 35 7e 35 00 00 	lea    0x357e(%rip),%rsi        # 13914 <g_1697+0x7f8>
   10396:	48 89 c7             	mov    %rax,%rdi
   10399:	e8 55 73 ff ff       	callq  76f3 <transparent_crc>
   1039e:	48 8b 05 3b 70 00 00 	mov    0x703b(%rip),%rax        # 173e0 <g_394>
   103a5:	c1 e0 04             	shl    $0x4,%eax
   103a8:	c1 f8 04             	sar    $0x4,%eax
   103ab:	48 98                	cltq   
   103ad:	8b 55 fc             	mov    -0x4(%rbp),%edx
   103b0:	48 8d 35 63 35 00 00 	lea    0x3563(%rip),%rsi        # 1391a <g_1697+0x7fe>
   103b7:	48 89 c7             	mov    %rax,%rdi
   103ba:	e8 34 73 ff ff       	callq  76f3 <transparent_crc>
   103bf:	48 8b 05 1a 70 00 00 	mov    0x701a(%rip),%rax        # 173e0 <g_394>
   103c6:	48 c1 e0 0c          	shl    $0xc,%rax
   103ca:	48 c1 f8 28          	sar    $0x28,%rax
   103ce:	48 98                	cltq   
   103d0:	8b 55 fc             	mov    -0x4(%rbp),%edx
   103d3:	48 8d 35 49 35 00 00 	lea    0x3549(%rip),%rsi        # 13923 <g_1697+0x807>
   103da:	48 89 c7             	mov    %rax,%rdi
   103dd:	e8 11 73 ff ff       	callq  76f3 <transparent_crc>
   103e2:	48 8b 05 f7 6f 00 00 	mov    0x6ff7(%rip),%rax        # 173e0 <g_394>
   103e9:	48 c1 e8 34          	shr    $0x34,%rax
   103ed:	48 89 c2             	mov    %rax,%rdx
   103f0:	48 8b 05 f1 6f 00 00 	mov    0x6ff1(%rip),%rax        # 173e8 <g_394+0x8>
   103f7:	25 ff 1f 00 00       	and    $0x1fff,%eax
   103fc:	48 c1 e0 0c          	shl    $0xc,%rax
   10400:	48 09 d0             	or     %rdx,%rax
   10403:	48 c1 e0 27          	shl    $0x27,%rax
   10407:	48 c1 f8 27          	sar    $0x27,%rax
   1040b:	48 98                	cltq   
   1040d:	8b 55 fc             	mov    -0x4(%rbp),%edx
   10410:	48 8d 35 15 35 00 00 	lea    0x3515(%rip),%rsi        # 1392c <g_1697+0x810>
   10417:	48 89 c7             	mov    %rax,%rdi
   1041a:	e8 d4 72 ff ff       	callq  76f3 <transparent_crc>
   1041f:	8b 05 c3 6f 00 00    	mov    0x6fc3(%rip),%eax        # 173e8 <g_394+0x8>
   10425:	c1 e8 0d             	shr    $0xd,%eax
   10428:	66 25 ff 3f          	and    $0x3fff,%ax
   1042c:	0f b7 c0             	movzwl %ax,%eax
   1042f:	8b 55 fc             	mov    -0x4(%rbp),%edx
   10432:	48 8d 35 fc 34 00 00 	lea    0x34fc(%rip),%rsi        # 13935 <g_1697+0x819>
   10439:	48 89 c7             	mov    %rax,%rdi
   1043c:	e8 b2 72 ff ff       	callq  76f3 <transparent_crc>
   10441:	48 8b 05 a0 6f 00 00 	mov    0x6fa0(%rip),%rax        # 173e8 <g_394+0x8>
   10448:	48 c1 e0 1e          	shl    $0x1e,%rax
   1044c:	48 c1 f8 39          	sar    $0x39,%rax
   10450:	48 0f be c0          	movsbq %al,%rax
   10454:	8b 55 fc             	mov    -0x4(%rbp),%edx
   10457:	48 8d 35 e0 34 00 00 	lea    0x34e0(%rip),%rsi        # 1393e <g_1697+0x822>
   1045e:	48 89 c7             	mov    %rax,%rdi
   10461:	e8 8d 72 ff ff       	callq  76f3 <transparent_crc>
   10466:	48 8b 05 7b 6f 00 00 	mov    0x6f7b(%rip),%rax        # 173e8 <g_394+0x8>
   1046d:	48 c1 e8 22          	shr    $0x22,%rax
   10471:	25 ff ff 07 00       	and    $0x7ffff,%eax
   10476:	89 c1                	mov    %eax,%ecx
   10478:	8b 45 fc             	mov    -0x4(%rbp),%eax
   1047b:	89 c2                	mov    %eax,%edx
   1047d:	48 8d 35 c3 34 00 00 	lea    0x34c3(%rip),%rsi        # 13947 <g_1697+0x82b>
   10484:	48 89 cf             	mov    %rcx,%rdi
   10487:	e8 67 72 ff ff       	callq  76f3 <transparent_crc>
   1048c:	48 8b 05 55 6f 00 00 	mov    0x6f55(%rip),%rax        # 173e8 <g_394+0x8>
   10493:	48 c1 e8 35          	shr    $0x35,%rax
   10497:	48 89 c2             	mov    %rax,%rdx
   1049a:	48 8b 05 4f 6f 00 00 	mov    0x6f4f(%rip),%rax        # 173f0 <g_394+0x10>
   104a1:	25 ff 07 00 00       	and    $0x7ff,%eax
   104a6:	48 c1 e0 0b          	shl    $0xb,%rax
   104aa:	48 09 d0             	or     %rdx,%rax
   104ad:	48 c1 e0 2a          	shl    $0x2a,%rax
   104b1:	48 c1 f8 2a          	sar    $0x2a,%rax
   104b5:	48 98                	cltq   
   104b7:	8b 55 fc             	mov    -0x4(%rbp),%edx
   104ba:	48 8d 35 8f 34 00 00 	lea    0x348f(%rip),%rsi        # 13950 <g_1697+0x834>
   104c1:	48 89 c7             	mov    %rax,%rdi
   104c4:	e8 2a 72 ff ff       	callq  76f3 <transparent_crc>
   104c9:	48 8b 05 30 6f 00 00 	mov    0x6f30(%rip),%rax        # 17400 <g_397>
   104d0:	c1 e0 04             	shl    $0x4,%eax
   104d3:	c1 f8 04             	sar    $0x4,%eax
   104d6:	48 98                	cltq   
   104d8:	8b 55 fc             	mov    -0x4(%rbp),%edx
   104db:	48 8d 35 77 34 00 00 	lea    0x3477(%rip),%rsi        # 13959 <g_1697+0x83d>
   104e2:	48 89 c7             	mov    %rax,%rdi
   104e5:	e8 09 72 ff ff       	callq  76f3 <transparent_crc>
   104ea:	48 8b 05 0f 6f 00 00 	mov    0x6f0f(%rip),%rax        # 17400 <g_397>
   104f1:	48 c1 e0 0c          	shl    $0xc,%rax
   104f5:	48 c1 f8 28          	sar    $0x28,%rax
   104f9:	48 98                	cltq   
   104fb:	8b 55 fc             	mov    -0x4(%rbp),%edx
   104fe:	48 8d 35 5d 34 00 00 	lea    0x345d(%rip),%rsi        # 13962 <g_1697+0x846>
   10505:	48 89 c7             	mov    %rax,%rdi
   10508:	e8 e6 71 ff ff       	callq  76f3 <transparent_crc>
   1050d:	48 8b 05 ec 6e 00 00 	mov    0x6eec(%rip),%rax        # 17400 <g_397>
   10514:	48 c1 e8 34          	shr    $0x34,%rax
   10518:	48 89 c2             	mov    %rax,%rdx
   1051b:	48 8b 05 e6 6e 00 00 	mov    0x6ee6(%rip),%rax        # 17408 <g_397+0x8>
   10522:	25 ff 1f 00 00       	and    $0x1fff,%eax
   10527:	48 c1 e0 0c          	shl    $0xc,%rax
   1052b:	48 09 d0             	or     %rdx,%rax
   1052e:	48 c1 e0 27          	shl    $0x27,%rax
   10532:	48 c1 f8 27          	sar    $0x27,%rax
   10536:	48 98                	cltq   
   10538:	8b 55 fc             	mov    -0x4(%rbp),%edx
   1053b:	48 8d 35 29 34 00 00 	lea    0x3429(%rip),%rsi        # 1396b <g_1697+0x84f>
   10542:	48 89 c7             	mov    %rax,%rdi
   10545:	e8 a9 71 ff ff       	callq  76f3 <transparent_crc>
   1054a:	8b 05 b8 6e 00 00    	mov    0x6eb8(%rip),%eax        # 17408 <g_397+0x8>
   10550:	c1 e8 0d             	shr    $0xd,%eax
   10553:	66 25 ff 3f          	and    $0x3fff,%ax
   10557:	0f b7 c0             	movzwl %ax,%eax
   1055a:	8b 55 fc             	mov    -0x4(%rbp),%edx
   1055d:	48 8d 35 10 34 00 00 	lea    0x3410(%rip),%rsi        # 13974 <g_1697+0x858>
   10564:	48 89 c7             	mov    %rax,%rdi
   10567:	e8 87 71 ff ff       	callq  76f3 <transparent_crc>
   1056c:	48 8b 05 95 6e 00 00 	mov    0x6e95(%rip),%rax        # 17408 <g_397+0x8>
   10573:	48 c1 e0 1e          	shl    $0x1e,%rax
   10577:	48 c1 f8 39          	sar    $0x39,%rax
   1057b:	48 0f be c0          	movsbq %al,%rax
   1057f:	8b 55 fc             	mov    -0x4(%rbp),%edx
   10582:	48 8d 35 f4 33 00 00 	lea    0x33f4(%rip),%rsi        # 1397d <g_1697+0x861>
   10589:	48 89 c7             	mov    %rax,%rdi
   1058c:	e8 62 71 ff ff       	callq  76f3 <transparent_crc>
   10591:	48 8b 05 70 6e 00 00 	mov    0x6e70(%rip),%rax        # 17408 <g_397+0x8>
   10598:	48 c1 e8 22          	shr    $0x22,%rax
   1059c:	25 ff ff 07 00       	and    $0x7ffff,%eax
   105a1:	89 c1                	mov    %eax,%ecx
   105a3:	8b 45 fc             	mov    -0x4(%rbp),%eax
   105a6:	89 c2                	mov    %eax,%edx
   105a8:	48 8d 35 d7 33 00 00 	lea    0x33d7(%rip),%rsi        # 13986 <g_1697+0x86a>
   105af:	48 89 cf             	mov    %rcx,%rdi
   105b2:	e8 3c 71 ff ff       	callq  76f3 <transparent_crc>
   105b7:	48 8b 05 4a 6e 00 00 	mov    0x6e4a(%rip),%rax        # 17408 <g_397+0x8>
   105be:	48 c1 e8 35          	shr    $0x35,%rax
   105c2:	48 89 c2             	mov    %rax,%rdx
   105c5:	48 8b 05 44 6e 00 00 	mov    0x6e44(%rip),%rax        # 17410 <g_397+0x10>
   105cc:	25 ff 07 00 00       	and    $0x7ff,%eax
   105d1:	48 c1 e0 0b          	shl    $0xb,%rax
   105d5:	48 09 d0             	or     %rdx,%rax
   105d8:	48 c1 e0 2a          	shl    $0x2a,%rax
   105dc:	48 c1 f8 2a          	sar    $0x2a,%rax
   105e0:	48 98                	cltq   
   105e2:	8b 55 fc             	mov    -0x4(%rbp),%edx
   105e5:	48 8d 35 a3 33 00 00 	lea    0x33a3(%rip),%rsi        # 1398f <g_1697+0x873>
   105ec:	48 89 c7             	mov    %rax,%rdi
   105ef:	e8 ff 70 ff ff       	callq  76f3 <transparent_crc>
   105f4:	0f b7 05 17 6e 00 00 	movzwl 0x6e17(%rip),%eax        # 17412 <g_403>
   105fb:	0f b7 c0             	movzwl %ax,%eax
   105fe:	8b 55 fc             	mov    -0x4(%rbp),%edx
   10601:	48 8d 35 90 33 00 00 	lea    0x3390(%rip),%rsi        # 13998 <g_1697+0x87c>
   10608:	48 89 c7             	mov    %rax,%rdi
   1060b:	e8 e3 70 ff ff       	callq  76f3 <transparent_crc>
   10610:	0f b7 05 fb 6d 00 00 	movzwl 0x6dfb(%rip),%eax        # 17412 <g_403>
   10617:	0f b7 c0             	movzwl %ax,%eax
   1061a:	8b 55 fc             	mov    -0x4(%rbp),%edx
   1061d:	48 8d 35 7d 33 00 00 	lea    0x337d(%rip),%rsi        # 139a1 <g_1697+0x885>
   10624:	48 89 c7             	mov    %rax,%rdi
   10627:	e8 c7 70 ff ff       	callq  76f3 <transparent_crc>
   1062c:	0f b7 05 df 6d 00 00 	movzwl 0x6ddf(%rip),%eax        # 17412 <g_403>
   10633:	0f b7 c0             	movzwl %ax,%eax
   10636:	8b 55 fc             	mov    -0x4(%rbp),%edx
   10639:	48 8d 35 6a 33 00 00 	lea    0x336a(%rip),%rsi        # 139aa <g_1697+0x88e>
   10640:	48 89 c7             	mov    %rax,%rdi
   10643:	e8 ab 70 ff ff       	callq  76f3 <transparent_crc>
   10648:	0f b7 05 c5 6d 00 00 	movzwl 0x6dc5(%rip),%eax        # 17414 <g_464>
   1064f:	0f b7 c0             	movzwl %ax,%eax
   10652:	8b 55 fc             	mov    -0x4(%rbp),%edx
   10655:	48 8d 35 57 33 00 00 	lea    0x3357(%rip),%rsi        # 139b3 <g_1697+0x897>
   1065c:	48 89 c7             	mov    %rax,%rdi
   1065f:	e8 8f 70 ff ff       	callq  76f3 <transparent_crc>
   10664:	0f b7 05 ab 6d 00 00 	movzwl 0x6dab(%rip),%eax        # 17416 <g_515>
   1066b:	0f b7 c0             	movzwl %ax,%eax
   1066e:	8b 55 fc             	mov    -0x4(%rbp),%edx
   10671:	48 8d 35 41 33 00 00 	lea    0x3341(%rip),%rsi        # 139b9 <g_1697+0x89d>
   10678:	48 89 c7             	mov    %rax,%rdi
   1067b:	e8 73 70 ff ff       	callq  76f3 <transparent_crc>
   10680:	0f b7 05 8f 6d 00 00 	movzwl 0x6d8f(%rip),%eax        # 17416 <g_515>
   10687:	0f b7 c0             	movzwl %ax,%eax
   1068a:	8b 55 fc             	mov    -0x4(%rbp),%edx
   1068d:	48 8d 35 2e 33 00 00 	lea    0x332e(%rip),%rsi        # 139c2 <g_1697+0x8a6>
   10694:	48 89 c7             	mov    %rax,%rdi
   10697:	e8 57 70 ff ff       	callq  76f3 <transparent_crc>
   1069c:	0f b7 05 73 6d 00 00 	movzwl 0x6d73(%rip),%eax        # 17416 <g_515>
   106a3:	0f b7 c0             	movzwl %ax,%eax
   106a6:	8b 55 fc             	mov    -0x4(%rbp),%edx
   106a9:	48 8d 35 1b 33 00 00 	lea    0x331b(%rip),%rsi        # 139cb <g_1697+0x8af>
   106b0:	48 89 c7             	mov    %rax,%rdi
   106b3:	e8 3b 70 ff ff       	callq  76f3 <transparent_crc>
   106b8:	c7 45 f0 00 00 00 00 	movl   $0x0,-0x10(%rbp)
   106bf:	eb 4a                	jmp    1070b <main+0xb2d>
   106c1:	8b 45 f0             	mov    -0x10(%rbp),%eax
   106c4:	48 98                	cltq   
   106c6:	48 8d 14 00          	lea    (%rax,%rax,1),%rdx
   106ca:	48 8d 05 4f 6d 00 00 	lea    0x6d4f(%rip),%rax        # 17420 <g_553>
   106d1:	0f b7 04 02          	movzwl (%rdx,%rax,1),%eax
   106d5:	48 0f bf c0          	movswq %ax,%rax
   106d9:	8b 55 fc             	mov    -0x4(%rbp),%edx
   106dc:	48 8d 35 f1 32 00 00 	lea    0x32f1(%rip),%rsi        # 139d4 <g_1697+0x8b8>
   106e3:	48 89 c7             	mov    %rax,%rdi
   106e6:	e8 08 70 ff ff       	callq  76f3 <transparent_crc>
   106eb:	83 7d fc 00          	cmpl   $0x0,-0x4(%rbp)
   106ef:	74 16                	je     10707 <main+0xb29>
   106f1:	8b 45 f0             	mov    -0x10(%rbp),%eax
   106f4:	89 c6                	mov    %eax,%esi
   106f6:	48 8d 3d 6d 31 00 00 	lea    0x316d(%rip),%rdi        # 1386a <g_1697+0x74e>
   106fd:	b8 00 00 00 00       	mov    $0x0,%eax
   10702:	e8 79 59 ff ff       	callq  6080 <printf@plt>
   10707:	83 45 f0 01          	addl   $0x1,-0x10(%rbp)
   1070b:	83 7d f0 07          	cmpl   $0x7,-0x10(%rbp)
   1070f:	7e b0                	jle    106c1 <main+0xae3>
   10711:	48 8b 05 18 6d 00 00 	mov    0x6d18(%rip),%rax        # 17430 <g_647>
   10718:	8b 55 fc             	mov    -0x4(%rbp),%edx
   1071b:	48 8d 35 be 32 00 00 	lea    0x32be(%rip),%rsi        # 139e0 <g_1697+0x8c4>
   10722:	48 89 c7             	mov    %rax,%rdi
   10725:	e8 c9 6f ff ff       	callq  76f3 <transparent_crc>
   1072a:	0f b6 05 07 6d 00 00 	movzbl 0x6d07(%rip),%eax        # 17438 <g_654>
   10731:	0f b6 c0             	movzbl %al,%eax
   10734:	8b 55 fc             	mov    -0x4(%rbp),%edx
   10737:	48 8d 35 a8 32 00 00 	lea    0x32a8(%rip),%rsi        # 139e6 <g_1697+0x8ca>
   1073e:	48 89 c7             	mov    %rax,%rdi
   10741:	e8 ad 6f ff ff       	callq  76f3 <transparent_crc>
   10746:	0f b6 05 ec 6c 00 00 	movzbl 0x6cec(%rip),%eax        # 17439 <g_654+0x1>
   1074d:	0f b6 15 e6 6c 00 00 	movzbl 0x6ce6(%rip),%edx        # 1743a <g_654+0x2>
   10754:	48 c1 e2 08          	shl    $0x8,%rdx
   10758:	48 09 c2             	or     %rax,%rdx
   1075b:	0f b6 05 d9 6c 00 00 	movzbl 0x6cd9(%rip),%eax        # 1743b <g_654+0x3>
   10762:	48 c1 e0 10          	shl    $0x10,%rax
   10766:	48 09 c2             	or     %rax,%rdx
   10769:	0f b6 05 cc 6c 00 00 	movzbl 0x6ccc(%rip),%eax        # 1743c <g_654+0x4>
   10770:	83 e0 1f             	and    $0x1f,%eax
   10773:	48 c1 e0 18          	shl    $0x18,%rax
   10777:	48 09 d0             	or     %rdx,%rax
   1077a:	48 c1 e0 23          	shl    $0x23,%rax
   1077e:	48 c1 f8 23          	sar    $0x23,%rax
   10782:	48 98                	cltq   
   10784:	8b 55 fc             	mov    -0x4(%rbp),%edx
   10787:	48 8d 35 61 32 00 00 	lea    0x3261(%rip),%rsi        # 139ef <g_1697+0x8d3>
   1078e:	48 89 c7             	mov    %rax,%rdi
   10791:	e8 5d 6f ff ff       	callq  76f3 <transparent_crc>
   10796:	0f b6 05 9f 6c 00 00 	movzbl 0x6c9f(%rip),%eax        # 1743c <g_654+0x4>
   1079d:	c0 e8 05             	shr    $0x5,%al
   107a0:	0f b6 c0             	movzbl %al,%eax
   107a3:	0f b6 15 93 6c 00 00 	movzbl 0x6c93(%rip),%edx        # 1743d <g_654+0x5>
   107aa:	48 c1 e2 03          	shl    $0x3,%rdx
   107ae:	48 09 d0             	or     %rdx,%rax
   107b1:	0f b7 c0             	movzwl %ax,%eax
   107b4:	8b 55 fc             	mov    -0x4(%rbp),%edx
   107b7:	48 8d 35 3a 32 00 00 	lea    0x323a(%rip),%rsi        # 139f8 <g_1697+0x8dc>
   107be:	48 89 c7             	mov    %rax,%rdi
   107c1:	e8 2d 6f ff ff       	callq  76f3 <transparent_crc>
   107c6:	c7 45 f0 00 00 00 00 	movl   $0x0,-0x10(%rbp)
   107cd:	e9 79 02 00 00       	jmpq   10a4b <main+0xe6d>
   107d2:	8b 45 f0             	mov    -0x10(%rbp),%eax
   107d5:	48 63 d0             	movslq %eax,%rdx
   107d8:	48 89 d0             	mov    %rdx,%rax
   107db:	48 c1 e0 03          	shl    $0x3,%rax
   107df:	48 01 d0             	add    %rdx,%rax
   107e2:	48 01 c0             	add    %rax,%rax
   107e5:	48 89 c2             	mov    %rax,%rdx
   107e8:	48 8d 05 51 6c 00 00 	lea    0x6c51(%rip),%rax        # 17440 <g_724>
   107ef:	0f b7 0c 02          	movzwl (%rdx,%rax,1),%ecx
   107f3:	0f b7 c9             	movzwl %cx,%ecx
   107f6:	0f b7 44 02 02       	movzwl 0x2(%rdx,%rax,1),%eax
   107fb:	0f b7 c0             	movzwl %ax,%eax
   107fe:	25 ff 0f 00 00       	and    $0xfff,%eax
   10803:	48 c1 e0 10          	shl    $0x10,%rax
   10807:	48 09 c8             	or     %rcx,%rax
   1080a:	48 c1 e0 24          	shl    $0x24,%rax
   1080e:	48 c1 f8 24          	sar    $0x24,%rax
   10812:	48 98                	cltq   
   10814:	8b 55 fc             	mov    -0x4(%rbp),%edx
   10817:	48 8d 35 e3 31 00 00 	lea    0x31e3(%rip),%rsi        # 13a01 <g_1697+0x8e5>
   1081e:	48 89 c7             	mov    %rax,%rdi
   10821:	e8 cd 6e ff ff       	callq  76f3 <transparent_crc>
   10826:	8b 45 f0             	mov    -0x10(%rbp),%eax
   10829:	48 63 d0             	movslq %eax,%rdx
   1082c:	48 89 d0             	mov    %rdx,%rax
   1082f:	48 c1 e0 03          	shl    $0x3,%rax
   10833:	48 01 d0             	add    %rdx,%rax
   10836:	48 01 c0             	add    %rax,%rax
   10839:	48 89 c2             	mov    %rax,%rdx
   1083c:	48 8d 05 fd 6b 00 00 	lea    0x6bfd(%rip),%rax        # 17440 <g_724>
   10843:	0f b6 4c 02 03       	movzbl 0x3(%rdx,%rax,1),%ecx
   10848:	c0 e9 04             	shr    $0x4,%cl
   1084b:	0f b6 c9             	movzbl %cl,%ecx
   1084e:	0f b7 74 02 04       	movzwl 0x4(%rdx,%rax,1),%esi
   10853:	48 c1 e6 04          	shl    $0x4,%rsi
   10857:	48 09 f1             	or     %rsi,%rcx
   1085a:	0f b6 44 02 06       	movzbl 0x6(%rdx,%rax,1),%eax
   1085f:	83 e0 0f             	and    $0xf,%eax
   10862:	48 c1 e0 14          	shl    $0x14,%rax
   10866:	48 09 c8             	or     %rcx,%rax
   10869:	48 c1 e0 28          	shl    $0x28,%rax
   1086d:	48 c1 f8 28          	sar    $0x28,%rax
   10871:	48 98                	cltq   
   10873:	8b 55 fc             	mov    -0x4(%rbp),%edx
   10876:	48 8d 35 90 31 00 00 	lea    0x3190(%rip),%rsi        # 13a0d <g_1697+0x8f1>
   1087d:	48 89 c7             	mov    %rax,%rdi
   10880:	e8 6e 6e ff ff       	callq  76f3 <transparent_crc>
   10885:	8b 45 f0             	mov    -0x10(%rbp),%eax
   10888:	48 63 d0             	movslq %eax,%rdx
   1088b:	48 89 d0             	mov    %rdx,%rax
   1088e:	48 c1 e0 03          	shl    $0x3,%rax
   10892:	48 01 d0             	add    %rdx,%rax
   10895:	48 01 c0             	add    %rax,%rax
   10898:	48 89 c2             	mov    %rax,%rdx
   1089b:	48 8d 05 9e 6b 00 00 	lea    0x6b9e(%rip),%rax        # 17440 <g_724>
   108a2:	0f b7 4c 02 06       	movzwl 0x6(%rdx,%rax,1),%ecx
   108a7:	66 c1 e9 04          	shr    $0x4,%cx
   108ab:	0f b7 c9             	movzwl %cx,%ecx
   108ae:	0f b7 44 02 08       	movzwl 0x8(%rdx,%rax,1),%eax
   108b3:	0f b7 c0             	movzwl %ax,%eax
   108b6:	25 ff 1f 00 00       	and    $0x1fff,%eax
   108bb:	48 c1 e0 0c          	shl    $0xc,%rax
   108bf:	48 09 c8             	or     %rcx,%rax
   108c2:	48 c1 e0 27          	shl    $0x27,%rax
   108c6:	48 c1 f8 27          	sar    $0x27,%rax
   108ca:	48 98                	cltq   
   108cc:	8b 55 fc             	mov    -0x4(%rbp),%edx
   108cf:	48 8d 35 43 31 00 00 	lea    0x3143(%rip),%rsi        # 13a19 <g_1697+0x8fd>
   108d6:	48 89 c7             	mov    %rax,%rdi
   108d9:	e8 15 6e ff ff       	callq  76f3 <transparent_crc>
   108de:	8b 45 f0             	mov    -0x10(%rbp),%eax
   108e1:	48 63 d0             	movslq %eax,%rdx
   108e4:	48 89 d0             	mov    %rdx,%rax
   108e7:	48 c1 e0 03          	shl    $0x3,%rax
   108eb:	48 01 d0             	add    %rdx,%rax
   108ee:	48 01 c0             	add    %rax,%rax
   108f1:	48 89 c2             	mov    %rax,%rdx
   108f4:	48 8d 05 45 6b 00 00 	lea    0x6b45(%rip),%rax        # 17440 <g_724>
   108fb:	0f b6 4c 02 09       	movzbl 0x9(%rdx,%rax,1),%ecx
   10900:	c0 e9 05             	shr    $0x5,%cl
   10903:	0f b6 c9             	movzbl %cl,%ecx
   10906:	0f b7 44 02 0a       	movzwl 0xa(%rdx,%rax,1),%eax
   1090b:	25 ff 07 00 00       	and    $0x7ff,%eax
   10910:	48 c1 e0 03          	shl    $0x3,%rax
   10914:	48 09 c8             	or     %rcx,%rax
   10917:	0f b7 c0             	movzwl %ax,%eax
   1091a:	8b 55 fc             	mov    -0x4(%rbp),%edx
   1091d:	48 8d 35 01 31 00 00 	lea    0x3101(%rip),%rsi        # 13a25 <g_1697+0x909>
   10924:	48 89 c7             	mov    %rax,%rdi
   10927:	e8 c7 6d ff ff       	callq  76f3 <transparent_crc>
   1092c:	8b 45 f0             	mov    -0x10(%rbp),%eax
   1092f:	48 63 d0             	movslq %eax,%rdx
   10932:	48 89 d0             	mov    %rdx,%rax
   10935:	48 c1 e0 03          	shl    $0x3,%rax
   10939:	48 01 d0             	add    %rdx,%rax
   1093c:	48 01 c0             	add    %rax,%rax
   1093f:	48 89 c2             	mov    %rax,%rdx
   10942:	48 8d 05 f7 6a 00 00 	lea    0x6af7(%rip),%rax        # 17440 <g_724>
   10949:	0f b6 4c 02 0b       	movzbl 0xb(%rdx,%rax,1),%ecx
   1094e:	c0 e9 03             	shr    $0x3,%cl
   10951:	0f b6 c9             	movzbl %cl,%ecx
   10954:	0f b6 44 02 0c       	movzbl 0xc(%rdx,%rax,1),%eax
   10959:	83 e0 03             	and    $0x3,%eax
   1095c:	48 c1 e0 05          	shl    $0x5,%rax
   10960:	48 09 c8             	or     %rcx,%rax
   10963:	48 c1 e0 39          	shl    $0x39,%rax
   10967:	48 c1 f8 39          	sar    $0x39,%rax
   1096b:	48 0f be c0          	movsbq %al,%rax
   1096f:	8b 55 fc             	mov    -0x4(%rbp),%edx
   10972:	48 8d 35 b8 30 00 00 	lea    0x30b8(%rip),%rsi        # 13a31 <g_1697+0x915>
   10979:	48 89 c7             	mov    %rax,%rdi
   1097c:	e8 72 6d ff ff       	callq  76f3 <transparent_crc>
   10981:	8b 45 f0             	mov    -0x10(%rbp),%eax
   10984:	48 63 d0             	movslq %eax,%rdx
   10987:	48 89 d0             	mov    %rdx,%rax
   1098a:	48 c1 e0 03          	shl    $0x3,%rax
   1098e:	48 01 d0             	add    %rdx,%rax
   10991:	48 01 c0             	add    %rax,%rax
   10994:	48 89 c2             	mov    %rax,%rdx
   10997:	48 8d 05 a2 6a 00 00 	lea    0x6aa2(%rip),%rax        # 17440 <g_724>
   1099e:	0f b7 4c 02 0c       	movzwl 0xc(%rdx,%rax,1),%ecx
   109a3:	66 c1 e9 02          	shr    $0x2,%cx
   109a7:	0f b7 c9             	movzwl %cx,%ecx
   109aa:	0f b7 44 02 0e       	movzwl 0xe(%rdx,%rax,1),%eax
   109af:	0f b7 c0             	movzwl %ax,%eax
   109b2:	83 e0 1f             	and    $0x1f,%eax
   109b5:	48 c1 e0 0e          	shl    $0xe,%rax
   109b9:	48 09 c8             	or     %rcx,%rax
   109bc:	89 c1                	mov    %eax,%ecx
   109be:	8b 45 fc             	mov    -0x4(%rbp),%eax
   109c1:	89 c2                	mov    %eax,%edx
   109c3:	48 8d 35 73 30 00 00 	lea    0x3073(%rip),%rsi        # 13a3d <g_1697+0x921>
   109ca:	48 89 cf             	mov    %rcx,%rdi
   109cd:	e8 21 6d ff ff       	callq  76f3 <transparent_crc>
   109d2:	8b 45 f0             	mov    -0x10(%rbp),%eax
   109d5:	48 63 d0             	movslq %eax,%rdx
   109d8:	48 89 d0             	mov    %rdx,%rax
   109db:	48 c1 e0 03          	shl    $0x3,%rax
   109df:	48 01 d0             	add    %rdx,%rax
   109e2:	48 01 c0             	add    %rax,%rax
   109e5:	48 89 c2             	mov    %rax,%rdx
   109e8:	48 8d 05 51 6a 00 00 	lea    0x6a51(%rip),%rax        # 17440 <g_724>
   109ef:	0f b7 4c 02 0e       	movzwl 0xe(%rdx,%rax,1),%ecx
   109f4:	66 c1 e9 05          	shr    $0x5,%cx
   109f8:	0f b7 c9             	movzwl %cx,%ecx
   109fb:	0f b7 44 02 10       	movzwl 0x10(%rdx,%rax,1),%eax
   10a00:	0f b7 c0             	movzwl %ax,%eax
   10a03:	25 ff 07 00 00       	and    $0x7ff,%eax
   10a08:	48 c1 e0 0b          	shl    $0xb,%rax
   10a0c:	48 09 c8             	or     %rcx,%rax
   10a0f:	48 c1 e0 2a          	shl    $0x2a,%rax
   10a13:	48 c1 f8 2a          	sar    $0x2a,%rax
   10a17:	48 98                	cltq   
   10a19:	8b 55 fc             	mov    -0x4(%rbp),%edx
   10a1c:	48 8d 35 26 30 00 00 	lea    0x3026(%rip),%rsi        # 13a49 <g_1697+0x92d>
   10a23:	48 89 c7             	mov    %rax,%rdi
   10a26:	e8 c8 6c ff ff       	callq  76f3 <transparent_crc>
   10a2b:	83 7d fc 00          	cmpl   $0x0,-0x4(%rbp)
   10a2f:	74 16                	je     10a47 <main+0xe69>
   10a31:	8b 45 f0             	mov    -0x10(%rbp),%eax
   10a34:	89 c6                	mov    %eax,%esi
   10a36:	48 8d 3d 2d 2e 00 00 	lea    0x2e2d(%rip),%rdi        # 1386a <g_1697+0x74e>
   10a3d:	b8 00 00 00 00       	mov    $0x0,%eax
   10a42:	e8 39 56 ff ff       	callq  6080 <printf@plt>
   10a47:	83 45 f0 01          	addl   $0x1,-0x10(%rbp)
   10a4b:	83 7d f0 09          	cmpl   $0x9,-0x10(%rbp)
   10a4f:	0f 8e 7d fd ff ff    	jle    107d2 <main+0xbf4>
   10a55:	b8 94 03 00 00       	mov    $0x394,%eax
   10a5a:	89 c1                	mov    %eax,%ecx
   10a5c:	8b 45 fc             	mov    -0x4(%rbp),%eax
   10a5f:	89 c2                	mov    %eax,%edx
   10a61:	48 8d 35 ed 2f 00 00 	lea    0x2fed(%rip),%rsi        # 13a55 <g_1697+0x939>
   10a68:	48 89 cf             	mov    %rcx,%rdi
   10a6b:	e8 83 6c ff ff       	callq  76f3 <transparent_crc>
   10a70:	b8 09 00 00 00       	mov    $0x9,%eax
   10a75:	48 0f bf c0          	movswq %ax,%rax
   10a79:	8b 55 fc             	mov    -0x4(%rbp),%edx
   10a7c:	48 8d 35 db 2f 00 00 	lea    0x2fdb(%rip),%rsi        # 13a5e <g_1697+0x942>
   10a83:	48 89 c7             	mov    %rax,%rdi
   10a86:	e8 68 6c ff ff       	callq  76f3 <transparent_crc>
   10a8b:	48 8b 05 ce 25 00 00 	mov    0x25ce(%rip),%rax        # 13060 <g_744>
   10a92:	48 c1 e0 0c          	shl    $0xc,%rax
   10a96:	48 c1 f8 2d          	sar    $0x2d,%rax
   10a9a:	48 98                	cltq   
   10a9c:	8b 55 fc             	mov    -0x4(%rbp),%edx
   10a9f:	48 8d 35 c1 2f 00 00 	lea    0x2fc1(%rip),%rsi        # 13a67 <g_1697+0x94b>
   10aa6:	48 89 c7             	mov    %rax,%rdi
   10aa9:	e8 45 6c ff ff       	callq  76f3 <transparent_crc>
   10aae:	b8 2c 34 00 00       	mov    $0x342c,%eax
   10ab3:	89 c1                	mov    %eax,%ecx
   10ab5:	8b 45 fc             	mov    -0x4(%rbp),%eax
   10ab8:	89 c2                	mov    %eax,%edx
   10aba:	48 8d 35 af 2f 00 00 	lea    0x2faf(%rip),%rsi        # 13a70 <g_1697+0x954>
   10ac1:	48 89 cf             	mov    %rcx,%rdi
   10ac4:	e8 2a 6c ff ff       	callq  76f3 <transparent_crc>
   10ac9:	b8 3f 2c 00 00       	mov    $0x2c3f,%eax
   10ace:	89 c1                	mov    %eax,%ecx
   10ad0:	8b 45 fc             	mov    -0x4(%rbp),%eax
   10ad3:	89 c2                	mov    %eax,%edx
   10ad5:	48 8d 35 9d 2f 00 00 	lea    0x2f9d(%rip),%rsi        # 13a79 <g_1697+0x95d>
   10adc:	48 89 cf             	mov    %rcx,%rdi
   10adf:	e8 0f 6c ff ff       	callq  76f3 <transparent_crc>
   10ae4:	b8 71 2b 00 00       	mov    $0x2b71,%eax
   10ae9:	48 98                	cltq   
   10aeb:	8b 55 fc             	mov    -0x4(%rbp),%edx
   10aee:	48 8d 35 8d 2f 00 00 	lea    0x2f8d(%rip),%rsi        # 13a82 <g_1697+0x966>
   10af5:	48 89 c7             	mov    %rax,%rdi
   10af8:	e8 f6 6b ff ff       	callq  76f3 <transparent_crc>
   10afd:	b8 00 00 00 00       	mov    $0x0,%eax
   10b02:	48 0f be c0          	movsbq %al,%rax
   10b06:	8b 55 fc             	mov    -0x4(%rbp),%edx
   10b09:	48 8d 35 7b 2f 00 00 	lea    0x2f7b(%rip),%rsi        # 13a8b <g_1697+0x96f>
   10b10:	48 89 c7             	mov    %rax,%rdi
   10b13:	e8 db 6b ff ff       	callq  76f3 <transparent_crc>
   10b18:	b8 68 5e 00 00       	mov    $0x5e68,%eax
   10b1d:	89 c1                	mov    %eax,%ecx
   10b1f:	8b 45 fc             	mov    -0x4(%rbp),%eax
   10b22:	89 c2                	mov    %eax,%edx
   10b24:	48 8d 35 69 2f 00 00 	lea    0x2f69(%rip),%rsi        # 13a94 <g_1697+0x978>
   10b2b:	48 89 cf             	mov    %rcx,%rdi
   10b2e:	e8 c0 6b ff ff       	callq  76f3 <transparent_crc>
   10b33:	48 8b 05 36 25 00 00 	mov    0x2536(%rip),%rax        # 13070 <g_744+0x10>
   10b3a:	48 c1 e0 0d          	shl    $0xd,%rax
   10b3e:	48 c1 f8 39          	sar    $0x39,%rax
   10b42:	48 0f be c0          	movsbq %al,%rax
   10b46:	8b 55 fc             	mov    -0x4(%rbp),%edx
   10b49:	48 8d 35 4d 2f 00 00 	lea    0x2f4d(%rip),%rsi        # 13a9d <g_1697+0x981>
   10b50:	48 89 c7             	mov    %rax,%rdi
   10b53:	e8 9b 6b ff ff       	callq  76f3 <transparent_crc>
   10b58:	48 8b 05 11 25 00 00 	mov    0x2511(%rip),%rax        # 13070 <g_744+0x10>
   10b5f:	48 c1 e8 33          	shr    $0x33,%rax
   10b63:	48 89 c2             	mov    %rax,%rdx
   10b66:	48 8b 05 0b 25 00 00 	mov    0x250b(%rip),%rax        # 13078 <g_744+0x18>
   10b6d:	25 ff 07 00 00       	and    $0x7ff,%eax
   10b72:	48 c1 e0 0d          	shl    $0xd,%rax
   10b76:	48 09 d0             	or     %rdx,%rax
   10b79:	48 c1 e0 28          	shl    $0x28,%rax
   10b7d:	48 c1 f8 28          	sar    $0x28,%rax
   10b81:	48 98                	cltq   
   10b83:	8b 55 fc             	mov    -0x4(%rbp),%edx
   10b86:	48 8d 35 19 2f 00 00 	lea    0x2f19(%rip),%rsi        # 13aa6 <g_1697+0x98a>
   10b8d:	48 89 c7             	mov    %rax,%rdi
   10b90:	e8 5e 6b ff ff       	callq  76f3 <transparent_crc>
   10b95:	48 b8 64 01 35 23 d2 	movabs $0x909d06d223350164,%rax
   10b9c:	06 9d 90 
   10b9f:	48 89 c1             	mov    %rax,%rcx
   10ba2:	8b 45 fc             	mov    -0x4(%rbp),%eax
   10ba5:	89 c2                	mov    %eax,%edx
   10ba7:	48 8d 35 01 2f 00 00 	lea    0x2f01(%rip),%rsi        # 13aaf <g_1697+0x993>
   10bae:	48 89 cf             	mov    %rcx,%rdi
   10bb1:	e8 3d 6b ff ff       	callq  76f3 <transparent_crc>
   10bb6:	8b 05 38 69 00 00    	mov    0x6938(%rip),%eax        # 174f4 <g_857>
   10bbc:	48 98                	cltq   
   10bbe:	8b 55 fc             	mov    -0x4(%rbp),%edx
   10bc1:	48 8d 35 ed 2e 00 00 	lea    0x2eed(%rip),%rsi        # 13ab5 <g_1697+0x999>
   10bc8:	48 89 c7             	mov    %rax,%rdi
   10bcb:	e8 23 6b ff ff       	callq  76f3 <transparent_crc>
   10bd0:	8b 05 2a 69 00 00    	mov    0x692a(%rip),%eax        # 17500 <g_887>
   10bd6:	25 ff ff 3f 00       	and    $0x3fffff,%eax
   10bdb:	89 c1                	mov    %eax,%ecx
   10bdd:	8b 45 fc             	mov    -0x4(%rbp),%eax
   10be0:	89 c2                	mov    %eax,%edx
   10be2:	48 8d 35 d2 2e 00 00 	lea    0x2ed2(%rip),%rsi        # 13abb <g_1697+0x99f>
   10be9:	48 89 cf             	mov    %rcx,%rdi
   10bec:	e8 02 6b ff ff       	callq  76f3 <transparent_crc>
   10bf1:	0f b6 05 0b 69 00 00 	movzbl 0x690b(%rip),%eax        # 17503 <g_887+0x3>
   10bf8:	0f b6 c0             	movzbl %al,%eax
   10bfb:	8b 55 fc             	mov    -0x4(%rbp),%edx
   10bfe:	48 8d 35 bf 2e 00 00 	lea    0x2ebf(%rip),%rsi        # 13ac4 <g_1697+0x9a8>
   10c05:	48 89 c7             	mov    %rax,%rdi
   10c08:	e8 e6 6a ff ff       	callq  76f3 <transparent_crc>
   10c0d:	8b 05 f1 68 00 00    	mov    0x68f1(%rip),%eax        # 17504 <g_887+0x4>
   10c13:	c1 e0 03             	shl    $0x3,%eax
   10c16:	c1 f8 03             	sar    $0x3,%eax
   10c19:	48 98                	cltq   
   10c1b:	8b 55 fc             	mov    -0x4(%rbp),%edx
   10c1e:	48 8d 35 ab 2e 00 00 	lea    0x2eab(%rip),%rsi        # 13ad0 <g_1697+0x9b4>
   10c25:	48 89 c7             	mov    %rax,%rdi
   10c28:	e8 c6 6a ff ff       	callq  76f3 <transparent_crc>
   10c2d:	0f b6 05 d3 68 00 00 	movzbl 0x68d3(%rip),%eax        # 17507 <g_887+0x7>
   10c34:	c0 e8 05             	shr    $0x5,%al
   10c37:	0f b6 c0             	movzbl %al,%eax
   10c3a:	0f b6 15 c7 68 00 00 	movzbl 0x68c7(%rip),%edx        # 17508 <g_887+0x8>
   10c41:	48 c1 e2 03          	shl    $0x3,%rdx
   10c45:	48 09 d0             	or     %rdx,%rax
   10c48:	0f b7 c0             	movzwl %ax,%eax
   10c4b:	8b 55 fc             	mov    -0x4(%rbp),%edx
   10c4e:	48 8d 35 87 2e 00 00 	lea    0x2e87(%rip),%rsi        # 13adc <g_1697+0x9c0>
   10c55:	48 89 c7             	mov    %rax,%rdi
   10c58:	e8 96 6a ff ff       	callq  76f3 <transparent_crc>
   10c5d:	48 8b 05 a4 68 00 00 	mov    0x68a4(%rip),%rax        # 17508 <g_887+0x8>
   10c64:	48 c1 e8 08          	shr    $0x8,%rax
   10c68:	25 ff ff 3f 00       	and    $0x3fffff,%eax
   10c6d:	89 c1                	mov    %eax,%ecx
   10c6f:	8b 45 fc             	mov    -0x4(%rbp),%eax
   10c72:	89 c2                	mov    %eax,%edx
   10c74:	48 8d 35 6d 2e 00 00 	lea    0x2e6d(%rip),%rsi        # 13ae8 <g_1697+0x9cc>
   10c7b:	48 89 cf             	mov    %rcx,%rdi
   10c7e:	e8 70 6a ff ff       	callq  76f3 <transparent_crc>
   10c83:	48 8b 05 7e 68 00 00 	mov    0x687e(%rip),%rax        # 17508 <g_887+0x8>
   10c8a:	48 c1 e0 19          	shl    $0x19,%rax
   10c8e:	48 c1 f8 37          	sar    $0x37,%rax
   10c92:	48 0f bf c0          	movswq %ax,%rax
   10c96:	8b 55 fc             	mov    -0x4(%rbp),%edx
   10c99:	48 8d 35 51 2e 00 00 	lea    0x2e51(%rip),%rsi        # 13af1 <g_1697+0x9d5>
   10ca0:	48 89 c7             	mov    %rax,%rdi
   10ca3:	e8 4b 6a ff ff       	callq  76f3 <transparent_crc>
   10ca8:	8b 05 5e 68 00 00    	mov    0x685e(%rip),%eax        # 1750c <g_887+0xc>
   10cae:	c1 e8 07             	shr    $0x7,%eax
   10cb1:	89 c2                	mov    %eax,%edx
   10cb3:	0f b6 05 56 68 00 00 	movzbl 0x6856(%rip),%eax        # 17510 <g_887+0x10>
   10cba:	83 e0 3f             	and    $0x3f,%eax
   10cbd:	48 c1 e0 19          	shl    $0x19,%rax
   10cc1:	48 09 d0             	or     %rdx,%rax
   10cc4:	89 c1                	mov    %eax,%ecx
   10cc6:	8b 45 fc             	mov    -0x4(%rbp),%eax
   10cc9:	89 c2                	mov    %eax,%edx
   10ccb:	48 8d 35 28 2e 00 00 	lea    0x2e28(%rip),%rsi        # 13afa <g_1697+0x9de>
   10cd2:	48 89 cf             	mov    %rcx,%rdi
   10cd5:	e8 19 6a ff ff       	callq  76f3 <transparent_crc>
   10cda:	8b 05 40 68 00 00    	mov    0x6840(%rip),%eax        # 17520 <g_891>
   10ce0:	25 ff ff 3f 00       	and    $0x3fffff,%eax
   10ce5:	89 c1                	mov    %eax,%ecx
   10ce7:	8b 45 fc             	mov    -0x4(%rbp),%eax
   10cea:	89 c2                	mov    %eax,%edx
   10cec:	48 8d 35 10 2e 00 00 	lea    0x2e10(%rip),%rsi        # 13b03 <g_1697+0x9e7>
   10cf3:	48 89 cf             	mov    %rcx,%rdi
   10cf6:	e8 f8 69 ff ff       	callq  76f3 <transparent_crc>
   10cfb:	0f b6 05 21 68 00 00 	movzbl 0x6821(%rip),%eax        # 17523 <g_891+0x3>
   10d02:	0f b6 c0             	movzbl %al,%eax
   10d05:	8b 55 fc             	mov    -0x4(%rbp),%edx
   10d08:	48 8d 35 fd 2d 00 00 	lea    0x2dfd(%rip),%rsi        # 13b0c <g_1697+0x9f0>
   10d0f:	48 89 c7             	mov    %rax,%rdi
   10d12:	e8 dc 69 ff ff       	callq  76f3 <transparent_crc>
   10d17:	8b 05 07 68 00 00    	mov    0x6807(%rip),%eax        # 17524 <g_891+0x4>
   10d1d:	c1 e0 03             	shl    $0x3,%eax
   10d20:	c1 f8 03             	sar    $0x3,%eax
   10d23:	48 98                	cltq   
   10d25:	8b 55 fc             	mov    -0x4(%rbp),%edx
   10d28:	48 8d 35 e9 2d 00 00 	lea    0x2de9(%rip),%rsi        # 13b18 <g_1697+0x9fc>
   10d2f:	48 89 c7             	mov    %rax,%rdi
   10d32:	e8 bc 69 ff ff       	callq  76f3 <transparent_crc>
   10d37:	0f b6 05 e9 67 00 00 	movzbl 0x67e9(%rip),%eax        # 17527 <g_891+0x7>
   10d3e:	c0 e8 05             	shr    $0x5,%al
   10d41:	0f b6 c0             	movzbl %al,%eax
   10d44:	0f b6 15 dd 67 00 00 	movzbl 0x67dd(%rip),%edx        # 17528 <g_891+0x8>
   10d4b:	48 c1 e2 03          	shl    $0x3,%rdx
   10d4f:	48 09 d0             	or     %rdx,%rax
   10d52:	0f b7 c0             	movzwl %ax,%eax
   10d55:	8b 55 fc             	mov    -0x4(%rbp),%edx
   10d58:	48 8d 35 c5 2d 00 00 	lea    0x2dc5(%rip),%rsi        # 13b24 <g_1697+0xa08>
   10d5f:	48 89 c7             	mov    %rax,%rdi
   10d62:	e8 8c 69 ff ff       	callq  76f3 <transparent_crc>
   10d67:	48 8b 05 ba 67 00 00 	mov    0x67ba(%rip),%rax        # 17528 <g_891+0x8>
   10d6e:	48 c1 e8 08          	shr    $0x8,%rax
   10d72:	25 ff ff 3f 00       	and    $0x3fffff,%eax
   10d77:	89 c1                	mov    %eax,%ecx
   10d79:	8b 45 fc             	mov    -0x4(%rbp),%eax
   10d7c:	89 c2                	mov    %eax,%edx
   10d7e:	48 8d 35 ab 2d 00 00 	lea    0x2dab(%rip),%rsi        # 13b30 <g_1697+0xa14>
   10d85:	48 89 cf             	mov    %rcx,%rdi
   10d88:	e8 66 69 ff ff       	callq  76f3 <transparent_crc>
   10d8d:	48 8b 05 94 67 00 00 	mov    0x6794(%rip),%rax        # 17528 <g_891+0x8>
   10d94:	48 c1 e0 19          	shl    $0x19,%rax
   10d98:	48 c1 f8 37          	sar    $0x37,%rax
   10d9c:	48 0f bf c0          	movswq %ax,%rax
   10da0:	8b 55 fc             	mov    -0x4(%rbp),%edx
   10da3:	48 8d 35 8f 2d 00 00 	lea    0x2d8f(%rip),%rsi        # 13b39 <g_1697+0xa1d>
   10daa:	48 89 c7             	mov    %rax,%rdi
   10dad:	e8 41 69 ff ff       	callq  76f3 <transparent_crc>
   10db2:	8b 05 74 67 00 00    	mov    0x6774(%rip),%eax        # 1752c <g_891+0xc>
   10db8:	c1 e8 07             	shr    $0x7,%eax
   10dbb:	89 c2                	mov    %eax,%edx
   10dbd:	0f b6 05 6c 67 00 00 	movzbl 0x676c(%rip),%eax        # 17530 <g_891+0x10>
   10dc4:	83 e0 3f             	and    $0x3f,%eax
   10dc7:	48 c1 e0 19          	shl    $0x19,%rax
   10dcb:	48 09 d0             	or     %rdx,%rax
   10dce:	89 c1                	mov    %eax,%ecx
   10dd0:	8b 45 fc             	mov    -0x4(%rbp),%eax
   10dd3:	89 c2                	mov    %eax,%edx
   10dd5:	48 8d 35 66 2d 00 00 	lea    0x2d66(%rip),%rsi        # 13b42 <g_1697+0xa26>
   10ddc:	48 89 cf             	mov    %rcx,%rdi
   10ddf:	e8 0f 69 ff ff       	callq  76f3 <transparent_crc>
   10de4:	c7 45 f0 00 00 00 00 	movl   $0x0,-0x10(%rbp)
   10deb:	e9 01 01 00 00       	jmpq   10ef1 <main+0x1313>
   10df0:	8b 45 f0             	mov    -0x10(%rbp),%eax
   10df3:	48 63 d0             	movslq %eax,%rdx
   10df6:	48 89 d0             	mov    %rdx,%rax
   10df9:	48 01 c0             	add    %rax,%rax
   10dfc:	48 01 d0             	add    %rdx,%rax
   10dff:	48 01 c0             	add    %rax,%rax
   10e02:	48 89 c2             	mov    %rax,%rdx
   10e05:	48 8d 05 25 67 00 00 	lea    0x6725(%rip),%rax        # 17531 <g_941>
   10e0c:	0f b6 04 02          	movzbl (%rdx,%rax,1),%eax
   10e10:	0f b6 c0             	movzbl %al,%eax
   10e13:	8b 55 fc             	mov    -0x4(%rbp),%edx
   10e16:	48 8d 35 2e 2d 00 00 	lea    0x2d2e(%rip),%rsi        # 13b4b <g_1697+0xa2f>
   10e1d:	48 89 c7             	mov    %rax,%rdi
   10e20:	e8 ce 68 ff ff       	callq  76f3 <transparent_crc>
   10e25:	8b 45 f0             	mov    -0x10(%rbp),%eax
   10e28:	48 63 d0             	movslq %eax,%rdx
   10e2b:	48 89 d0             	mov    %rdx,%rax
   10e2e:	48 01 c0             	add    %rax,%rax
   10e31:	48 01 d0             	add    %rdx,%rax
   10e34:	48 01 c0             	add    %rax,%rax
   10e37:	48 89 c2             	mov    %rax,%rdx
   10e3a:	48 8d 05 f0 66 00 00 	lea    0x66f0(%rip),%rax        # 17531 <g_941>
   10e41:	0f b6 4c 02 01       	movzbl 0x1(%rdx,%rax,1),%ecx
   10e46:	0f b6 74 02 02       	movzbl 0x2(%rdx,%rax,1),%esi
   10e4b:	48 c1 e6 08          	shl    $0x8,%rsi
   10e4f:	48 09 ce             	or     %rcx,%rsi
   10e52:	0f b6 4c 02 03       	movzbl 0x3(%rdx,%rax,1),%ecx
   10e57:	48 c1 e1 10          	shl    $0x10,%rcx
   10e5b:	48 09 f1             	or     %rsi,%rcx
   10e5e:	0f b6 44 02 04       	movzbl 0x4(%rdx,%rax,1),%eax
   10e63:	83 e0 1f             	and    $0x1f,%eax
   10e66:	48 c1 e0 18          	shl    $0x18,%rax
   10e6a:	48 09 c8             	or     %rcx,%rax
   10e6d:	48 c1 e0 23          	shl    $0x23,%rax
   10e71:	48 c1 f8 23          	sar    $0x23,%rax
   10e75:	48 98                	cltq   
   10e77:	8b 55 fc             	mov    -0x4(%rbp),%edx
   10e7a:	48 8d 35 d6 2c 00 00 	lea    0x2cd6(%rip),%rsi        # 13b57 <g_1697+0xa3b>
   10e81:	48 89 c7             	mov    %rax,%rdi
   10e84:	e8 6a 68 ff ff       	callq  76f3 <transparent_crc>
   10e89:	8b 45 f0             	mov    -0x10(%rbp),%eax
   10e8c:	48 63 d0             	movslq %eax,%rdx
   10e8f:	48 89 d0             	mov    %rdx,%rax
   10e92:	48 01 c0             	add    %rax,%rax
   10e95:	48 01 d0             	add    %rdx,%rax
   10e98:	48 01 c0             	add    %rax,%rax
   10e9b:	48 89 c2             	mov    %rax,%rdx
   10e9e:	48 8d 05 8c 66 00 00 	lea    0x668c(%rip),%rax        # 17531 <g_941>
   10ea5:	0f b6 4c 02 04       	movzbl 0x4(%rdx,%rax,1),%ecx
   10eaa:	c0 e9 05             	shr    $0x5,%cl
   10ead:	0f b6 c9             	movzbl %cl,%ecx
   10eb0:	0f b6 44 02 05       	movzbl 0x5(%rdx,%rax,1),%eax
   10eb5:	48 c1 e0 03          	shl    $0x3,%rax
   10eb9:	48 09 c8             	or     %rcx,%rax
   10ebc:	0f b7 c0             	movzwl %ax,%eax
   10ebf:	8b 55 fc             	mov    -0x4(%rbp),%edx
   10ec2:	48 8d 35 9a 2c 00 00 	lea    0x2c9a(%rip),%rsi        # 13b63 <g_1697+0xa47>
   10ec9:	48 89 c7             	mov    %rax,%rdi
   10ecc:	e8 22 68 ff ff       	callq  76f3 <transparent_crc>
   10ed1:	83 7d fc 00          	cmpl   $0x0,-0x4(%rbp)
   10ed5:	74 16                	je     10eed <main+0x130f>
   10ed7:	8b 45 f0             	mov    -0x10(%rbp),%eax
   10eda:	89 c6                	mov    %eax,%esi
   10edc:	48 8d 3d 87 29 00 00 	lea    0x2987(%rip),%rdi        # 1386a <g_1697+0x74e>
   10ee3:	b8 00 00 00 00       	mov    $0x0,%eax
   10ee8:	e8 93 51 ff ff       	callq  6080 <printf@plt>
   10eed:	83 45 f0 01          	addl   $0x1,-0x10(%rbp)
   10ef1:	83 7d f0 00          	cmpl   $0x0,-0x10(%rbp)
   10ef5:	0f 8e f5 fe ff ff    	jle    10df0 <main+0x1212>
   10efb:	0f b6 05 35 66 00 00 	movzbl 0x6635(%rip),%eax        # 17537 <g_943>
   10f02:	0f b6 c0             	movzbl %al,%eax
   10f05:	8b 55 fc             	mov    -0x4(%rbp),%edx
   10f08:	48 8d 35 60 2c 00 00 	lea    0x2c60(%rip),%rsi        # 13b6f <g_1697+0xa53>
   10f0f:	48 89 c7             	mov    %rax,%rdi
   10f12:	e8 dc 67 ff ff       	callq  76f3 <transparent_crc>
   10f17:	0f b6 05 1a 66 00 00 	movzbl 0x661a(%rip),%eax        # 17538 <g_943+0x1>
   10f1e:	0f b6 15 14 66 00 00 	movzbl 0x6614(%rip),%edx        # 17539 <g_943+0x2>
   10f25:	48 c1 e2 08          	shl    $0x8,%rdx
   10f29:	48 09 c2             	or     %rax,%rdx
   10f2c:	0f b6 05 07 66 00 00 	movzbl 0x6607(%rip),%eax        # 1753a <g_943+0x3>
   10f33:	48 c1 e0 10          	shl    $0x10,%rax
   10f37:	48 09 c2             	or     %rax,%rdx
   10f3a:	0f b6 05 fa 65 00 00 	movzbl 0x65fa(%rip),%eax        # 1753b <g_943+0x4>
   10f41:	83 e0 1f             	and    $0x1f,%eax
   10f44:	48 c1 e0 18          	shl    $0x18,%rax
   10f48:	48 09 d0             	or     %rdx,%rax
   10f4b:	48 c1 e0 23          	shl    $0x23,%rax
   10f4f:	48 c1 f8 23          	sar    $0x23,%rax
   10f53:	48 98                	cltq   
   10f55:	8b 55 fc             	mov    -0x4(%rbp),%edx
   10f58:	48 8d 35 19 2c 00 00 	lea    0x2c19(%rip),%rsi        # 13b78 <g_1697+0xa5c>
   10f5f:	48 89 c7             	mov    %rax,%rdi
   10f62:	e8 8c 67 ff ff       	callq  76f3 <transparent_crc>
   10f67:	0f b6 05 cd 65 00 00 	movzbl 0x65cd(%rip),%eax        # 1753b <g_943+0x4>
   10f6e:	c0 e8 05             	shr    $0x5,%al
   10f71:	0f b6 c0             	movzbl %al,%eax
   10f74:	0f b6 15 c1 65 00 00 	movzbl 0x65c1(%rip),%edx        # 1753c <g_943+0x5>
   10f7b:	48 c1 e2 03          	shl    $0x3,%rdx
   10f7f:	48 09 d0             	or     %rdx,%rax
   10f82:	0f b7 c0             	movzwl %ax,%eax
   10f85:	8b 55 fc             	mov    -0x4(%rbp),%edx
   10f88:	48 8d 35 f2 2b 00 00 	lea    0x2bf2(%rip),%rsi        # 13b81 <g_1697+0xa65>
   10f8f:	48 89 c7             	mov    %rax,%rdi
   10f92:	e8 5c 67 ff ff       	callq  76f3 <transparent_crc>
   10f97:	c7 45 f0 00 00 00 00 	movl   $0x0,-0x10(%rbp)
   10f9e:	eb 75                	jmp    11015 <main+0x1437>
   10fa0:	c7 45 f4 00 00 00 00 	movl   $0x0,-0xc(%rbp)
   10fa7:	eb 62                	jmp    1100b <main+0x142d>
   10fa9:	8b 45 f4             	mov    -0xc(%rbp),%eax
   10fac:	48 63 c8             	movslq %eax,%rcx
   10faf:	8b 45 f0             	mov    -0x10(%rbp),%eax
   10fb2:	48 63 d0             	movslq %eax,%rdx
   10fb5:	48 89 d0             	mov    %rdx,%rax
   10fb8:	48 c1 e0 02          	shl    $0x2,%rax
   10fbc:	48 01 d0             	add    %rdx,%rax
   10fbf:	48 01 c8             	add    %rcx,%rax
   10fc2:	48 8d 14 85 00 00 00 	lea    0x0(,%rax,4),%rdx
   10fc9:	00 
   10fca:	48 8d 05 cf 20 00 00 	lea    0x20cf(%rip),%rax        # 130a0 <g_967>
   10fd1:	8b 04 02             	mov    (%rdx,%rax,1),%eax
   10fd4:	48 98                	cltq   
   10fd6:	8b 55 fc             	mov    -0x4(%rbp),%edx
   10fd9:	48 8d 35 aa 2b 00 00 	lea    0x2baa(%rip),%rsi        # 13b8a <g_1697+0xa6e>
   10fe0:	48 89 c7             	mov    %rax,%rdi
   10fe3:	e8 0b 67 ff ff       	callq  76f3 <transparent_crc>
   10fe8:	83 7d fc 00          	cmpl   $0x0,-0x4(%rbp)
   10fec:	74 19                	je     11007 <main+0x1429>
   10fee:	8b 55 f4             	mov    -0xc(%rbp),%edx
   10ff1:	8b 45 f0             	mov    -0x10(%rbp),%eax
   10ff4:	89 c6                	mov    %eax,%esi
   10ff6:	48 8d 3d ec 27 00 00 	lea    0x27ec(%rip),%rdi        # 137e9 <g_1697+0x6cd>
   10ffd:	b8 00 00 00 00       	mov    $0x0,%eax
   11002:	e8 79 50 ff ff       	callq  6080 <printf@plt>
   11007:	83 45 f4 01          	addl   $0x1,-0xc(%rbp)
   1100b:	83 7d f4 04          	cmpl   $0x4,-0xc(%rbp)
   1100f:	7e 98                	jle    10fa9 <main+0x13cb>
   11011:	83 45 f0 01          	addl   $0x1,-0x10(%rbp)
   11015:	83 7d f0 03          	cmpl   $0x3,-0x10(%rbp)
   11019:	7e 85                	jle    10fa0 <main+0x13c2>
   1101b:	0f b6 05 1b 65 00 00 	movzbl 0x651b(%rip),%eax        # 1753d <g_978>
   11022:	48 0f be c0          	movsbq %al,%rax
   11026:	8b 55 fc             	mov    -0x4(%rbp),%edx
   11029:	48 8d 35 66 2b 00 00 	lea    0x2b66(%rip),%rsi        # 13b96 <g_1697+0xa7a>
   11030:	48 89 c7             	mov    %rax,%rdi
   11033:	e8 bb 66 ff ff       	callq  76f3 <transparent_crc>
   11038:	48 8b 05 01 65 00 00 	mov    0x6501(%rip),%rax        # 17540 <g_1022>
   1103f:	48 89 c1             	mov    %rax,%rcx
   11042:	8b 45 fc             	mov    -0x4(%rbp),%eax
   11045:	89 c2                	mov    %eax,%edx
   11047:	48 8d 35 4e 2b 00 00 	lea    0x2b4e(%rip),%rsi        # 13b9c <g_1697+0xa80>
   1104e:	48 89 cf             	mov    %rcx,%rdi
   11051:	e8 9d 66 ff ff       	callq  76f3 <transparent_crc>
   11056:	b8 05 00 00 00       	mov    $0x5,%eax
   1105b:	48 98                	cltq   
   1105d:	8b 55 fc             	mov    -0x4(%rbp),%edx
   11060:	48 8d 35 3c 2b 00 00 	lea    0x2b3c(%rip),%rsi        # 13ba3 <g_1697+0xa87>
   11067:	48 89 c7             	mov    %rax,%rdi
   1106a:	e8 84 66 ff ff       	callq  76f3 <transparent_crc>
   1106f:	c7 45 f0 00 00 00 00 	movl   $0x0,-0x10(%rbp)
   11076:	e9 88 01 00 00       	jmpq   11203 <main+0x1625>
   1107b:	c7 45 f4 00 00 00 00 	movl   $0x0,-0xc(%rbp)
   11082:	e9 6e 01 00 00       	jmpq   111f5 <main+0x1617>
   11087:	8b 45 f4             	mov    -0xc(%rbp),%eax
   1108a:	48 98                	cltq   
   1108c:	8b 55 f0             	mov    -0x10(%rbp),%edx
   1108f:	48 63 d2             	movslq %edx,%rdx
   11092:	48 c1 e2 02          	shl    $0x2,%rdx
   11096:	48 01 d0             	add    %rdx,%rax
   11099:	48 c1 e0 04          	shl    $0x4,%rax
   1109d:	48 89 c2             	mov    %rax,%rdx
   110a0:	48 8d 05 b9 64 00 00 	lea    0x64b9(%rip),%rax        # 17560 <g_1091>
   110a7:	0f b6 04 02          	movzbl (%rdx,%rax,1),%eax
   110ab:	83 e0 7f             	and    $0x7f,%eax
   110ae:	0f b6 c0             	movzbl %al,%eax
   110b1:	8b 55 fc             	mov    -0x4(%rbp),%edx
   110b4:	48 8d 35 ef 2a 00 00 	lea    0x2aef(%rip),%rsi        # 13baa <g_1697+0xa8e>
   110bb:	48 89 c7             	mov    %rax,%rdi
   110be:	e8 30 66 ff ff       	callq  76f3 <transparent_crc>
   110c3:	8b 45 f4             	mov    -0xc(%rbp),%eax
   110c6:	48 98                	cltq   
   110c8:	8b 55 f0             	mov    -0x10(%rbp),%edx
   110cb:	48 63 d2             	movslq %edx,%rdx
   110ce:	48 c1 e2 02          	shl    $0x2,%rdx
   110d2:	48 01 d0             	add    %rdx,%rax
   110d5:	48 c1 e0 04          	shl    $0x4,%rax
   110d9:	48 89 c2             	mov    %rax,%rdx
   110dc:	48 8d 05 81 64 00 00 	lea    0x6481(%rip),%rax        # 17564 <g_1091+0x4>
   110e3:	0f b6 04 02          	movzbl (%rdx,%rax,1),%eax
   110e7:	0f b6 c0             	movzbl %al,%eax
   110ea:	8b 55 fc             	mov    -0x4(%rbp),%edx
   110ed:	48 8d 35 c6 2a 00 00 	lea    0x2ac6(%rip),%rsi        # 13bba <g_1697+0xa9e>
   110f4:	48 89 c7             	mov    %rax,%rdi
   110f7:	e8 f7 65 ff ff       	callq  76f3 <transparent_crc>
   110fc:	8b 45 f4             	mov    -0xc(%rbp),%eax
   110ff:	48 98                	cltq   
   11101:	8b 55 f0             	mov    -0x10(%rbp),%edx
   11104:	48 63 d2             	movslq %edx,%rdx
   11107:	48 c1 e2 02          	shl    $0x2,%rdx
   1110b:	48 01 d0             	add    %rdx,%rax
   1110e:	48 c1 e0 04          	shl    $0x4,%rax
   11112:	48 89 c2             	mov    %rax,%rdx
   11115:	48 8d 05 44 64 00 00 	lea    0x6444(%rip),%rax        # 17560 <g_1091>
   1111c:	8b 4c 02 04          	mov    0x4(%rdx,%rax,1),%ecx
   11120:	c1 e9 08             	shr    $0x8,%ecx
   11123:	89 c9                	mov    %ecx,%ecx
   11125:	0f b6 44 02 08       	movzbl 0x8(%rdx,%rax,1),%eax
   1112a:	83 e0 1f             	and    $0x1f,%eax
   1112d:	48 c1 e0 18          	shl    $0x18,%rax
   11131:	48 09 c8             	or     %rcx,%rax
   11134:	48 c1 e0 23          	shl    $0x23,%rax
   11138:	48 c1 f8 23          	sar    $0x23,%rax
   1113c:	48 98                	cltq   
   1113e:	8b 55 fc             	mov    -0x4(%rbp),%edx
   11141:	48 8d 35 85 2a 00 00 	lea    0x2a85(%rip),%rsi        # 13bcd <g_1697+0xab1>
   11148:	48 89 c7             	mov    %rax,%rdi
   1114b:	e8 a3 65 ff ff       	callq  76f3 <transparent_crc>
   11150:	8b 45 f4             	mov    -0xc(%rbp),%eax
   11153:	48 98                	cltq   
   11155:	8b 55 f0             	mov    -0x10(%rbp),%edx
   11158:	48 63 d2             	movslq %edx,%rdx
   1115b:	48 c1 e2 02          	shl    $0x2,%rdx
   1115f:	48 01 d0             	add    %rdx,%rax
   11162:	48 c1 e0 04          	shl    $0x4,%rax
   11166:	48 89 c2             	mov    %rax,%rdx
   11169:	48 8d 05 f0 63 00 00 	lea    0x63f0(%rip),%rax        # 17560 <g_1091>
   11170:	0f b7 44 02 08       	movzwl 0x8(%rdx,%rax,1),%eax
   11175:	66 c1 e8 05          	shr    $0x5,%ax
   11179:	0f b7 c0             	movzwl %ax,%eax
   1117c:	8b 55 fc             	mov    -0x4(%rbp),%edx
   1117f:	48 8d 35 5a 2a 00 00 	lea    0x2a5a(%rip),%rsi        # 13be0 <g_1697+0xac4>
   11186:	48 89 c7             	mov    %rax,%rdi
   11189:	e8 65 65 ff ff       	callq  76f3 <transparent_crc>
   1118e:	8b 45 f4             	mov    -0xc(%rbp),%eax
   11191:	48 98                	cltq   
   11193:	8b 55 f0             	mov    -0x10(%rbp),%edx
   11196:	48 63 d2             	movslq %edx,%rdx
   11199:	48 c1 e2 02          	shl    $0x2,%rdx
   1119d:	48 01 d0             	add    %rdx,%rax
   111a0:	48 c1 e0 04          	shl    $0x4,%rax
   111a4:	48 89 c2             	mov    %rax,%rdx
   111a7:	48 8d 05 b2 63 00 00 	lea    0x63b2(%rip),%rax        # 17560 <g_1091>
   111ae:	48 8b 44 02 08       	mov    0x8(%rdx,%rax,1),%rax
   111b3:	48 c1 e8 20          	shr    $0x20,%rax
   111b7:	25 ff ff ff 1f       	and    $0x1fffffff,%eax
   111bc:	89 c1                	mov    %eax,%ecx
   111be:	8b 45 fc             	mov    -0x4(%rbp),%eax
   111c1:	89 c2                	mov    %eax,%edx
   111c3:	48 8d 35 29 2a 00 00 	lea    0x2a29(%rip),%rsi        # 13bf3 <g_1697+0xad7>
   111ca:	48 89 cf             	mov    %rcx,%rdi
   111cd:	e8 21 65 ff ff       	callq  76f3 <transparent_crc>
   111d2:	83 7d fc 00          	cmpl   $0x0,-0x4(%rbp)
   111d6:	74 19                	je     111f1 <main+0x1613>
   111d8:	8b 55 f4             	mov    -0xc(%rbp),%edx
   111db:	8b 45 f0             	mov    -0x10(%rbp),%eax
   111de:	89 c6                	mov    %eax,%esi
   111e0:	48 8d 3d 02 26 00 00 	lea    0x2602(%rip),%rdi        # 137e9 <g_1697+0x6cd>
   111e7:	b8 00 00 00 00       	mov    $0x0,%eax
   111ec:	e8 8f 4e ff ff       	callq  6080 <printf@plt>
   111f1:	83 45 f4 01          	addl   $0x1,-0xc(%rbp)
   111f5:	83 7d f4 03          	cmpl   $0x3,-0xc(%rbp)
   111f9:	0f 8e 88 fe ff ff    	jle    11087 <main+0x14a9>
   111ff:	83 45 f0 01          	addl   $0x1,-0x10(%rbp)
   11203:	83 7d f0 09          	cmpl   $0x9,-0x10(%rbp)
   11207:	0f 8e 6e fe ff ff    	jle    1107b <main+0x149d>
   1120d:	0f b6 05 cc 65 00 00 	movzbl 0x65cc(%rip),%eax        # 177e0 <g_1093>
   11214:	83 e0 7f             	and    $0x7f,%eax
   11217:	0f b6 c0             	movzbl %al,%eax
   1121a:	8b 55 fc             	mov    -0x4(%rbp),%edx
   1121d:	48 8d 35 df 29 00 00 	lea    0x29df(%rip),%rsi        # 13c03 <g_1697+0xae7>
   11224:	48 89 c7             	mov    %rax,%rdi
   11227:	e8 c7 64 ff ff       	callq  76f3 <transparent_crc>
   1122c:	0f b6 05 b1 65 00 00 	movzbl 0x65b1(%rip),%eax        # 177e4 <g_1093+0x4>
   11233:	0f b6 c0             	movzbl %al,%eax
   11236:	8b 55 fc             	mov    -0x4(%rbp),%edx
   11239:	48 8d 35 cd 29 00 00 	lea    0x29cd(%rip),%rsi        # 13c0d <g_1697+0xaf1>
   11240:	48 89 c7             	mov    %rax,%rdi
   11243:	e8 ab 64 ff ff       	callq  76f3 <transparent_crc>
   11248:	8b 05 96 65 00 00    	mov    0x6596(%rip),%eax        # 177e4 <g_1093+0x4>
   1124e:	c1 e8 08             	shr    $0x8,%eax
   11251:	89 c2                	mov    %eax,%edx
   11253:	0f b6 05 8e 65 00 00 	movzbl 0x658e(%rip),%eax        # 177e8 <g_1093+0x8>
   1125a:	83 e0 1f             	and    $0x1f,%eax
   1125d:	48 c1 e0 18          	shl    $0x18,%rax
   11261:	48 09 d0             	or     %rdx,%rax
   11264:	48 c1 e0 23          	shl    $0x23,%rax
   11268:	48 c1 f8 23          	sar    $0x23,%rax
   1126c:	48 98                	cltq   
   1126e:	8b 55 fc             	mov    -0x4(%rbp),%edx
   11271:	48 8d 35 a2 29 00 00 	lea    0x29a2(%rip),%rsi        # 13c1a <g_1697+0xafe>
   11278:	48 89 c7             	mov    %rax,%rdi
   1127b:	e8 73 64 ff ff       	callq  76f3 <transparent_crc>
   11280:	0f b7 05 61 65 00 00 	movzwl 0x6561(%rip),%eax        # 177e8 <g_1093+0x8>
   11287:	66 c1 e8 05          	shr    $0x5,%ax
   1128b:	0f b7 c0             	movzwl %ax,%eax
   1128e:	8b 55 fc             	mov    -0x4(%rbp),%edx
   11291:	48 8d 35 8f 29 00 00 	lea    0x298f(%rip),%rsi        # 13c27 <g_1697+0xb0b>
   11298:	48 89 c7             	mov    %rax,%rdi
   1129b:	e8 53 64 ff ff       	callq  76f3 <transparent_crc>
   112a0:	48 8b 05 41 65 00 00 	mov    0x6541(%rip),%rax        # 177e8 <g_1093+0x8>
   112a7:	48 c1 e8 20          	shr    $0x20,%rax
   112ab:	25 ff ff ff 1f       	and    $0x1fffffff,%eax
   112b0:	89 c1                	mov    %eax,%ecx
   112b2:	8b 45 fc             	mov    -0x4(%rbp),%eax
   112b5:	89 c2                	mov    %eax,%edx
   112b7:	48 8d 35 76 29 00 00 	lea    0x2976(%rip),%rsi        # 13c34 <g_1697+0xb18>
   112be:	48 89 cf             	mov    %rcx,%rdi
   112c1:	e8 2d 64 ff ff       	callq  76f3 <transparent_crc>
   112c6:	0f b6 05 23 65 00 00 	movzbl 0x6523(%rip),%eax        # 177f0 <g_1151>
   112cd:	83 e0 7f             	and    $0x7f,%eax
   112d0:	0f b6 c0             	movzbl %al,%eax
   112d3:	8b 55 fc             	mov    -0x4(%rbp),%edx
   112d6:	48 8d 35 61 29 00 00 	lea    0x2961(%rip),%rsi        # 13c3e <g_1697+0xb22>
   112dd:	48 89 c7             	mov    %rax,%rdi
   112e0:	e8 0e 64 ff ff       	callq  76f3 <transparent_crc>
   112e5:	0f b6 05 08 65 00 00 	movzbl 0x6508(%rip),%eax        # 177f4 <g_1151+0x4>
   112ec:	0f b6 c0             	movzbl %al,%eax
   112ef:	8b 55 fc             	mov    -0x4(%rbp),%edx
   112f2:	48 8d 35 4f 29 00 00 	lea    0x294f(%rip),%rsi        # 13c48 <g_1697+0xb2c>
   112f9:	48 89 c7             	mov    %rax,%rdi
   112fc:	e8 f2 63 ff ff       	callq  76f3 <transparent_crc>
   11301:	8b 05 ed 64 00 00    	mov    0x64ed(%rip),%eax        # 177f4 <g_1151+0x4>
   11307:	c1 e8 08             	shr    $0x8,%eax
   1130a:	89 c2                	mov    %eax,%edx
   1130c:	0f b6 05 e5 64 00 00 	movzbl 0x64e5(%rip),%eax        # 177f8 <g_1151+0x8>
   11313:	83 e0 1f             	and    $0x1f,%eax
   11316:	48 c1 e0 18          	shl    $0x18,%rax
   1131a:	48 09 d0             	or     %rdx,%rax
   1131d:	48 c1 e0 23          	shl    $0x23,%rax
   11321:	48 c1 f8 23          	sar    $0x23,%rax
   11325:	48 98                	cltq   
   11327:	8b 55 fc             	mov    -0x4(%rbp),%edx
   1132a:	48 8d 35 24 29 00 00 	lea    0x2924(%rip),%rsi        # 13c55 <g_1697+0xb39>
   11331:	48 89 c7             	mov    %rax,%rdi
   11334:	e8 ba 63 ff ff       	callq  76f3 <transparent_crc>
   11339:	0f b7 05 b8 64 00 00 	movzwl 0x64b8(%rip),%eax        # 177f8 <g_1151+0x8>
   11340:	66 c1 e8 05          	shr    $0x5,%ax
   11344:	0f b7 c0             	movzwl %ax,%eax
   11347:	8b 55 fc             	mov    -0x4(%rbp),%edx
   1134a:	48 8d 35 11 29 00 00 	lea    0x2911(%rip),%rsi        # 13c62 <g_1697+0xb46>
   11351:	48 89 c7             	mov    %rax,%rdi
   11354:	e8 9a 63 ff ff       	callq  76f3 <transparent_crc>
   11359:	48 8b 05 98 64 00 00 	mov    0x6498(%rip),%rax        # 177f8 <g_1151+0x8>
   11360:	48 c1 e8 20          	shr    $0x20,%rax
   11364:	25 ff ff ff 1f       	and    $0x1fffffff,%eax
   11369:	89 c1                	mov    %eax,%ecx
   1136b:	8b 45 fc             	mov    -0x4(%rbp),%eax
   1136e:	89 c2                	mov    %eax,%edx
   11370:	48 8d 35 f8 28 00 00 	lea    0x28f8(%rip),%rsi        # 13c6f <g_1697+0xb53>
   11377:	48 89 cf             	mov    %rcx,%rdi
   1137a:	e8 74 63 ff ff       	callq  76f3 <transparent_crc>
   1137f:	c7 45 f0 00 00 00 00 	movl   $0x0,-0x10(%rbp)
   11386:	eb 78                	jmp    11400 <main+0x1822>
   11388:	c7 45 f4 00 00 00 00 	movl   $0x0,-0xc(%rbp)
   1138f:	eb 65                	jmp    113f6 <main+0x1818>
   11391:	8b 45 f4             	mov    -0xc(%rbp),%eax
   11394:	48 63 c8             	movslq %eax,%rcx
   11397:	8b 45 f0             	mov    -0x10(%rbp),%eax
   1139a:	48 63 d0             	movslq %eax,%rdx
   1139d:	48 89 d0             	mov    %rdx,%rax
   113a0:	48 01 c0             	add    %rax,%rax
   113a3:	48 01 d0             	add    %rdx,%rax
   113a6:	48 01 c8             	add    %rcx,%rax
   113a9:	48 8d 14 c5 00 00 00 	lea    0x0(,%rax,8),%rdx
   113b0:	00 
   113b1:	48 8d 05 48 64 00 00 	lea    0x6448(%rip),%rax        # 17800 <g_1169>
   113b8:	48 8b 04 02          	mov    (%rdx,%rax,1),%rax
   113bc:	48 89 c1             	mov    %rax,%rcx
   113bf:	8b 45 fc             	mov    -0x4(%rbp),%eax
   113c2:	89 c2                	mov    %eax,%edx
   113c4:	48 8d 35 ae 28 00 00 	lea    0x28ae(%rip),%rsi        # 13c79 <g_1697+0xb5d>
   113cb:	48 89 cf             	mov    %rcx,%rdi
   113ce:	e8 20 63 ff ff       	callq  76f3 <transparent_crc>
   113d3:	83 7d fc 00          	cmpl   $0x0,-0x4(%rbp)
   113d7:	74 19                	je     113f2 <main+0x1814>
   113d9:	8b 55 f4             	mov    -0xc(%rbp),%edx
   113dc:	8b 45 f0             	mov    -0x10(%rbp),%eax
   113df:	89 c6                	mov    %eax,%esi
   113e1:	48 8d 3d 01 24 00 00 	lea    0x2401(%rip),%rdi        # 137e9 <g_1697+0x6cd>
   113e8:	b8 00 00 00 00       	mov    $0x0,%eax
   113ed:	e8 8e 4c ff ff       	callq  6080 <printf@plt>
   113f2:	83 45 f4 01          	addl   $0x1,-0xc(%rbp)
   113f6:	83 7d f4 02          	cmpl   $0x2,-0xc(%rbp)
   113fa:	7e 95                	jle    11391 <main+0x17b3>
   113fc:	83 45 f0 01          	addl   $0x1,-0x10(%rbp)
   11400:	83 7d f0 03          	cmpl   $0x3,-0x10(%rbp)
   11404:	7e 82                	jle    11388 <main+0x17aa>
   11406:	8b 05 54 64 00 00    	mov    0x6454(%rip),%eax        # 17860 <g_1257>
   1140c:	25 ff ff ff 00       	and    $0xffffff,%eax
   11411:	89 c1                	mov    %eax,%ecx
   11413:	8b 45 fc             	mov    -0x4(%rbp),%eax
   11416:	89 c2                	mov    %eax,%edx
   11418:	48 8d 35 67 28 00 00 	lea    0x2867(%rip),%rsi        # 13c86 <g_1697+0xb6a>
   1141f:	48 89 cf             	mov    %rcx,%rdi
   11422:	e8 cc 62 ff ff       	callq  76f3 <transparent_crc>
   11427:	48 8b 05 32 64 00 00 	mov    0x6432(%rip),%rax        # 17860 <g_1257>
   1142e:	48 c1 e0 1f          	shl    $0x1f,%rax
   11432:	48 c1 f8 37          	sar    $0x37,%rax
   11436:	48 0f bf c0          	movswq %ax,%rax
   1143a:	8b 55 fc             	mov    -0x4(%rbp),%edx
   1143d:	48 8d 35 4c 28 00 00 	lea    0x284c(%rip),%rsi        # 13c90 <g_1697+0xb74>
   11444:	48 89 c7             	mov    %rax,%rdi
   11447:	e8 a7 62 ff ff       	callq  76f3 <transparent_crc>
   1144c:	48 8b 05 0d 64 00 00 	mov    0x640d(%rip),%rax        # 17860 <g_1257>
   11453:	48 c1 e0 0c          	shl    $0xc,%rax
   11457:	48 c1 f8 2d          	sar    $0x2d,%rax
   1145b:	48 98                	cltq   
   1145d:	8b 55 fc             	mov    -0x4(%rbp),%edx
   11460:	48 8d 35 33 28 00 00 	lea    0x2833(%rip),%rsi        # 13c9a <g_1697+0xb7e>
   11467:	48 89 c7             	mov    %rax,%rdi
   1146a:	e8 84 62 ff ff       	callq  76f3 <transparent_crc>
   1146f:	0f b7 05 f0 63 00 00 	movzwl 0x63f0(%rip),%eax        # 17866 <g_1257+0x6>
   11476:	66 c1 e8 04          	shr    $0x4,%ax
   1147a:	0f b7 c0             	movzwl %ax,%eax
   1147d:	8b 15 e5 63 00 00    	mov    0x63e5(%rip),%edx        # 17868 <g_1257+0x8>
   11483:	81 e2 ff ff 07 00    	and    $0x7ffff,%edx
   11489:	48 c1 e2 0c          	shl    $0xc,%rdx
   1148d:	48 09 d0             	or     %rdx,%rax
   11490:	89 c1                	mov    %eax,%ecx
   11492:	8b 45 fc             	mov    -0x4(%rbp),%eax
   11495:	89 c2                	mov    %eax,%edx
   11497:	48 8d 35 06 28 00 00 	lea    0x2806(%rip),%rsi        # 13ca4 <g_1697+0xb88>
   1149e:	48 89 cf             	mov    %rcx,%rdi
   114a1:	e8 4d 62 ff ff       	callq  76f3 <transparent_crc>
   114a6:	48 8b 05 bb 63 00 00 	mov    0x63bb(%rip),%rax        # 17868 <g_1257+0x8>
   114ad:	48 c1 e8 13          	shr    $0x13,%rax
   114b1:	25 ff ff ff 3f       	and    $0x3fffffff,%eax
   114b6:	89 c1                	mov    %eax,%ecx
   114b8:	8b 45 fc             	mov    -0x4(%rbp),%eax
   114bb:	89 c2                	mov    %eax,%edx
   114bd:	48 8d 35 ea 27 00 00 	lea    0x27ea(%rip),%rsi        # 13cae <g_1697+0xb92>
   114c4:	48 89 cf             	mov    %rcx,%rdi
   114c7:	e8 27 62 ff ff       	callq  76f3 <transparent_crc>
   114cc:	0f b7 05 9b 63 00 00 	movzwl 0x639b(%rip),%eax        # 1786e <g_1257+0xe>
   114d3:	66 d1 e8             	shr    %ax
   114d6:	0f b7 c0             	movzwl %ax,%eax
   114d9:	0f b7 15 90 63 00 00 	movzwl 0x6390(%rip),%edx        # 17870 <g_1257+0x10>
   114e0:	81 e2 ff 0f 00 00    	and    $0xfff,%edx
   114e6:	48 c1 e2 0f          	shl    $0xf,%rdx
   114ea:	48 09 d0             	or     %rdx,%rax
   114ed:	48 c1 e0 25          	shl    $0x25,%rax
   114f1:	48 c1 f8 25          	sar    $0x25,%rax
   114f5:	48 98                	cltq   
   114f7:	8b 55 fc             	mov    -0x4(%rbp),%edx
   114fa:	48 8d 35 b7 27 00 00 	lea    0x27b7(%rip),%rsi        # 13cb8 <g_1697+0xb9c>
   11501:	48 89 c7             	mov    %rax,%rdi
   11504:	e8 ea 61 ff ff       	callq  76f3 <transparent_crc>
   11509:	0f b6 05 61 63 00 00 	movzbl 0x6361(%rip),%eax        # 17871 <g_1257+0x11>
   11510:	c1 e0 03             	shl    $0x3,%eax
   11513:	c0 f8 07             	sar    $0x7,%al
   11516:	48 0f be c0          	movsbq %al,%rax
   1151a:	8b 55 fc             	mov    -0x4(%rbp),%edx
   1151d:	48 8d 35 9e 27 00 00 	lea    0x279e(%rip),%rsi        # 13cc2 <g_1697+0xba6>
   11524:	48 89 c7             	mov    %rax,%rdi
   11527:	e8 c7 61 ff ff       	callq  76f3 <transparent_crc>
   1152c:	48 8b 05 3d 63 00 00 	mov    0x633d(%rip),%rax        # 17870 <g_1257+0x10>
   11533:	48 c1 e8 0d          	shr    $0xd,%rax
   11537:	25 ff ff ff 7f       	and    $0x7fffffff,%eax
   1153c:	89 c1                	mov    %eax,%ecx
   1153e:	8b 45 fc             	mov    -0x4(%rbp),%eax
   11541:	89 c2                	mov    %eax,%edx
   11543:	48 8d 35 82 27 00 00 	lea    0x2782(%rip),%rsi        # 13ccc <g_1697+0xbb0>
   1154a:	48 89 cf             	mov    %rcx,%rdi
   1154d:	e8 a1 61 ff ff       	callq  76f3 <transparent_crc>
   11552:	48 8b 05 17 63 00 00 	mov    0x6317(%rip),%rax        # 17870 <g_1257+0x10>
   11559:	48 c1 e0 0d          	shl    $0xd,%rax
   1155d:	48 c1 f8 39          	sar    $0x39,%rax
   11561:	48 0f be c0          	movsbq %al,%rax
   11565:	8b 55 fc             	mov    -0x4(%rbp),%edx
   11568:	48 8d 35 67 27 00 00 	lea    0x2767(%rip),%rsi        # 13cd6 <g_1697+0xbba>
   1156f:	48 89 c7             	mov    %rax,%rdi
   11572:	e8 7c 61 ff ff       	callq  76f3 <transparent_crc>
   11577:	48 8b 05 f2 62 00 00 	mov    0x62f2(%rip),%rax        # 17870 <g_1257+0x10>
   1157e:	48 c1 e8 33          	shr    $0x33,%rax
   11582:	48 89 c2             	mov    %rax,%rdx
   11585:	48 8b 05 ec 62 00 00 	mov    0x62ec(%rip),%rax        # 17878 <g_1257+0x18>
   1158c:	25 ff 07 00 00       	and    $0x7ff,%eax
   11591:	48 c1 e0 0d          	shl    $0xd,%rax
   11595:	48 09 d0             	or     %rdx,%rax
   11598:	48 c1 e0 28          	shl    $0x28,%rax
   1159c:	48 c1 f8 28          	sar    $0x28,%rax
   115a0:	48 98                	cltq   
   115a2:	8b 55 fc             	mov    -0x4(%rbp),%edx
   115a5:	48 8d 35 34 27 00 00 	lea    0x2734(%rip),%rsi        # 13ce0 <g_1697+0xbc4>
   115ac:	48 89 c7             	mov    %rax,%rdi
   115af:	e8 3f 61 ff ff       	callq  76f3 <transparent_crc>
   115b4:	b8 c8 03 00 00       	mov    $0x3c8,%eax
   115b9:	89 c1                	mov    %eax,%ecx
   115bb:	8b 45 fc             	mov    -0x4(%rbp),%eax
   115be:	89 c2                	mov    %eax,%edx
   115c0:	48 8d 35 23 27 00 00 	lea    0x2723(%rip),%rsi        # 13cea <g_1697+0xbce>
   115c7:	48 89 cf             	mov    %rcx,%rdi
   115ca:	e8 24 61 ff ff       	callq  76f3 <transparent_crc>
   115cf:	b8 0f 00 00 00       	mov    $0xf,%eax
   115d4:	48 0f bf c0          	movswq %ax,%rax
   115d8:	8b 55 fc             	mov    -0x4(%rbp),%edx
   115db:	48 8d 35 12 27 00 00 	lea    0x2712(%rip),%rsi        # 13cf4 <g_1697+0xbd8>
   115e2:	48 89 c7             	mov    %rax,%rdi
   115e5:	e8 09 61 ff ff       	callq  76f3 <transparent_crc>
   115ea:	48 8b 05 0f 1b 00 00 	mov    0x1b0f(%rip),%rax        # 13100 <g_1267>
   115f1:	48 c1 e0 0c          	shl    $0xc,%rax
   115f5:	48 c1 f8 2d          	sar    $0x2d,%rax
   115f9:	48 98                	cltq   
   115fb:	8b 55 fc             	mov    -0x4(%rbp),%edx
   115fe:	48 8d 35 f9 26 00 00 	lea    0x26f9(%rip),%rsi        # 13cfe <g_1697+0xbe2>
   11605:	48 89 c7             	mov    %rax,%rdi
   11608:	e8 e6 60 ff ff       	callq  76f3 <transparent_crc>
   1160d:	b8 f5 1c 00 00       	mov    $0x1cf5,%eax
   11612:	89 c1                	mov    %eax,%ecx
   11614:	8b 45 fc             	mov    -0x4(%rbp),%eax
   11617:	89 c2                	mov    %eax,%edx
   11619:	48 8d 35 e8 26 00 00 	lea    0x26e8(%rip),%rsi        # 13d08 <g_1697+0xbec>
   11620:	48 89 cf             	mov    %rcx,%rdi
   11623:	e8 cb 60 ff ff       	callq  76f3 <transparent_crc>
   11628:	b8 db 79 00 00       	mov    $0x79db,%eax
   1162d:	89 c1                	mov    %eax,%ecx
   1162f:	8b 45 fc             	mov    -0x4(%rbp),%eax
   11632:	89 c2                	mov    %eax,%edx
   11634:	48 8d 35 d7 26 00 00 	lea    0x26d7(%rip),%rsi        # 13d12 <g_1697+0xbf6>
   1163b:	48 89 cf             	mov    %rcx,%rdi
   1163e:	e8 b0 60 ff ff       	callq  76f3 <transparent_crc>
   11643:	b8 64 0b 00 00       	mov    $0xb64,%eax
   11648:	48 98                	cltq   
   1164a:	8b 55 fc             	mov    -0x4(%rbp),%edx
   1164d:	48 8d 35 c8 26 00 00 	lea    0x26c8(%rip),%rsi        # 13d1c <g_1697+0xc00>
   11654:	48 89 c7             	mov    %rax,%rdi
   11657:	e8 97 60 ff ff       	callq  76f3 <transparent_crc>
   1165c:	b8 00 00 00 00       	mov    $0x0,%eax
   11661:	48 0f be c0          	movsbq %al,%rax
   11665:	8b 55 fc             	mov    -0x4(%rbp),%edx
   11668:	48 8d 35 b7 26 00 00 	lea    0x26b7(%rip),%rsi        # 13d26 <g_1697+0xc0a>
   1166f:	48 89 c7             	mov    %rax,%rdi
   11672:	e8 7c 60 ff ff       	callq  76f3 <transparent_crc>
   11677:	b8 bc 46 00 00       	mov    $0x46bc,%eax
   1167c:	89 c1                	mov    %eax,%ecx
   1167e:	8b 45 fc             	mov    -0x4(%rbp),%eax
   11681:	89 c2                	mov    %eax,%edx
   11683:	48 8d 35 a6 26 00 00 	lea    0x26a6(%rip),%rsi        # 13d30 <g_1697+0xc14>
   1168a:	48 89 cf             	mov    %rcx,%rdi
   1168d:	e8 61 60 ff ff       	callq  76f3 <transparent_crc>
   11692:	48 8b 05 77 1a 00 00 	mov    0x1a77(%rip),%rax        # 13110 <g_1267+0x10>
   11699:	48 c1 e0 0d          	shl    $0xd,%rax
   1169d:	48 c1 f8 39          	sar    $0x39,%rax
   116a1:	48 0f be c0          	movsbq %al,%rax
   116a5:	8b 55 fc             	mov    -0x4(%rbp),%edx
   116a8:	48 8d 35 8b 26 00 00 	lea    0x268b(%rip),%rsi        # 13d3a <g_1697+0xc1e>
   116af:	48 89 c7             	mov    %rax,%rdi
   116b2:	e8 3c 60 ff ff       	callq  76f3 <transparent_crc>
   116b7:	48 8b 05 52 1a 00 00 	mov    0x1a52(%rip),%rax        # 13110 <g_1267+0x10>
   116be:	48 c1 e8 33          	shr    $0x33,%rax
   116c2:	48 89 c2             	mov    %rax,%rdx
   116c5:	48 8b 05 4c 1a 00 00 	mov    0x1a4c(%rip),%rax        # 13118 <g_1267+0x18>
   116cc:	25 ff 07 00 00       	and    $0x7ff,%eax
   116d1:	48 c1 e0 0d          	shl    $0xd,%rax
   116d5:	48 09 d0             	or     %rdx,%rax
   116d8:	48 c1 e0 28          	shl    $0x28,%rax
   116dc:	48 c1 f8 28          	sar    $0x28,%rax
   116e0:	48 98                	cltq   
   116e2:	8b 55 fc             	mov    -0x4(%rbp),%edx
   116e5:	48 8d 35 58 26 00 00 	lea    0x2658(%rip),%rsi        # 13d44 <g_1697+0xc28>
   116ec:	48 89 c7             	mov    %rax,%rdi
   116ef:	e8 ff 5f ff ff       	callq  76f3 <transparent_crc>
   116f4:	48 8b 05 85 61 00 00 	mov    0x6185(%rip),%rax        # 17880 <g_1327>
   116fb:	c1 e0 04             	shl    $0x4,%eax
   116fe:	c1 f8 04             	sar    $0x4,%eax
   11701:	48 98                	cltq   
   11703:	8b 55 fc             	mov    -0x4(%rbp),%edx
   11706:	48 8d 35 41 26 00 00 	lea    0x2641(%rip),%rsi        # 13d4e <g_1697+0xc32>
   1170d:	48 89 c7             	mov    %rax,%rdi
   11710:	e8 de 5f ff ff       	callq  76f3 <transparent_crc>
   11715:	48 8b 05 64 61 00 00 	mov    0x6164(%rip),%rax        # 17880 <g_1327>
   1171c:	48 c1 e0 0c          	shl    $0xc,%rax
   11720:	48 c1 f8 28          	sar    $0x28,%rax
   11724:	48 98                	cltq   
   11726:	8b 55 fc             	mov    -0x4(%rbp),%edx
   11729:	48 8d 35 28 26 00 00 	lea    0x2628(%rip),%rsi        # 13d58 <g_1697+0xc3c>
   11730:	48 89 c7             	mov    %rax,%rdi
   11733:	e8 bb 5f ff ff       	callq  76f3 <transparent_crc>
   11738:	48 8b 05 41 61 00 00 	mov    0x6141(%rip),%rax        # 17880 <g_1327>
   1173f:	48 c1 e8 34          	shr    $0x34,%rax
   11743:	48 89 c2             	mov    %rax,%rdx
   11746:	48 8b 05 3b 61 00 00 	mov    0x613b(%rip),%rax        # 17888 <g_1327+0x8>
   1174d:	25 ff 1f 00 00       	and    $0x1fff,%eax
   11752:	48 c1 e0 0c          	shl    $0xc,%rax
   11756:	48 09 d0             	or     %rdx,%rax
   11759:	48 c1 e0 27          	shl    $0x27,%rax
   1175d:	48 c1 f8 27          	sar    $0x27,%rax
   11761:	48 98                	cltq   
   11763:	8b 55 fc             	mov    -0x4(%rbp),%edx
   11766:	48 8d 35 f5 25 00 00 	lea    0x25f5(%rip),%rsi        # 13d62 <g_1697+0xc46>
   1176d:	48 89 c7             	mov    %rax,%rdi
   11770:	e8 7e 5f ff ff       	callq  76f3 <transparent_crc>
   11775:	8b 05 0d 61 00 00    	mov    0x610d(%rip),%eax        # 17888 <g_1327+0x8>
   1177b:	c1 e8 0d             	shr    $0xd,%eax
   1177e:	66 25 ff 3f          	and    $0x3fff,%ax
   11782:	0f b7 c0             	movzwl %ax,%eax
   11785:	8b 55 fc             	mov    -0x4(%rbp),%edx
   11788:	48 8d 35 dd 25 00 00 	lea    0x25dd(%rip),%rsi        # 13d6c <g_1697+0xc50>
   1178f:	48 89 c7             	mov    %rax,%rdi
   11792:	e8 5c 5f ff ff       	callq  76f3 <transparent_crc>
   11797:	48 8b 05 ea 60 00 00 	mov    0x60ea(%rip),%rax        # 17888 <g_1327+0x8>
   1179e:	48 c1 e0 1e          	shl    $0x1e,%rax
   117a2:	48 c1 f8 39          	sar    $0x39,%rax
   117a6:	48 0f be c0          	movsbq %al,%rax
   117aa:	8b 55 fc             	mov    -0x4(%rbp),%edx
   117ad:	48 8d 35 c2 25 00 00 	lea    0x25c2(%rip),%rsi        # 13d76 <g_1697+0xc5a>
   117b4:	48 89 c7             	mov    %rax,%rdi
   117b7:	e8 37 5f ff ff       	callq  76f3 <transparent_crc>
   117bc:	48 8b 05 c5 60 00 00 	mov    0x60c5(%rip),%rax        # 17888 <g_1327+0x8>
   117c3:	48 c1 e8 22          	shr    $0x22,%rax
   117c7:	25 ff ff 07 00       	and    $0x7ffff,%eax
   117cc:	89 c1                	mov    %eax,%ecx
   117ce:	8b 45 fc             	mov    -0x4(%rbp),%eax
   117d1:	89 c2                	mov    %eax,%edx
   117d3:	48 8d 35 a6 25 00 00 	lea    0x25a6(%rip),%rsi        # 13d80 <g_1697+0xc64>
   117da:	48 89 cf             	mov    %rcx,%rdi
   117dd:	e8 11 5f ff ff       	callq  76f3 <transparent_crc>
   117e2:	48 8b 05 9f 60 00 00 	mov    0x609f(%rip),%rax        # 17888 <g_1327+0x8>
   117e9:	48 c1 e8 35          	shr    $0x35,%rax
   117ed:	48 89 c2             	mov    %rax,%rdx
   117f0:	48 8b 05 99 60 00 00 	mov    0x6099(%rip),%rax        # 17890 <g_1327+0x10>
   117f7:	25 ff 07 00 00       	and    $0x7ff,%eax
   117fc:	48 c1 e0 0b          	shl    $0xb,%rax
   11800:	48 09 d0             	or     %rdx,%rax
   11803:	48 c1 e0 2a          	shl    $0x2a,%rax
   11807:	48 c1 f8 2a          	sar    $0x2a,%rax
   1180b:	48 98                	cltq   
   1180d:	8b 55 fc             	mov    -0x4(%rbp),%edx
   11810:	48 8d 35 73 25 00 00 	lea    0x2573(%rip),%rsi        # 13d8a <g_1697+0xc6e>
   11817:	48 89 c7             	mov    %rax,%rdi
   1181a:	e8 d4 5e ff ff       	callq  76f3 <transparent_crc>
   1181f:	0f b7 05 6c 60 00 00 	movzwl 0x606c(%rip),%eax        # 17892 <g_1331>
   11826:	48 0f bf c0          	movswq %ax,%rax
   1182a:	8b 55 fc             	mov    -0x4(%rbp),%edx
   1182d:	48 8d 35 60 25 00 00 	lea    0x2560(%rip),%rsi        # 13d94 <g_1697+0xc78>
   11834:	48 89 c7             	mov    %rax,%rdi
   11837:	e8 b7 5e ff ff       	callq  76f3 <transparent_crc>
   1183c:	c7 45 f0 00 00 00 00 	movl   $0x0,-0x10(%rbp)
   11843:	eb 4a                	jmp    1188f <main+0x1cb1>
   11845:	8b 45 f0             	mov    -0x10(%rbp),%eax
   11848:	48 98                	cltq   
   1184a:	48 8d 14 00          	lea    (%rax,%rax,1),%rdx
   1184e:	48 8d 05 43 60 00 00 	lea    0x6043(%rip),%rax        # 17898 <g_1345>
   11855:	0f b7 04 02          	movzwl (%rdx,%rax,1),%eax
   11859:	48 0f bf c0          	movswq %ax,%rax
   1185d:	8b 55 fc             	mov    -0x4(%rbp),%edx
   11860:	48 8d 35 37 25 00 00 	lea    0x2537(%rip),%rsi        # 13d9e <g_1697+0xc82>
   11867:	48 89 c7             	mov    %rax,%rdi
   1186a:	e8 84 5e ff ff       	callq  76f3 <transparent_crc>
   1186f:	83 7d fc 00          	cmpl   $0x0,-0x4(%rbp)
   11873:	74 16                	je     1188b <main+0x1cad>
   11875:	8b 45 f0             	mov    -0x10(%rbp),%eax
   11878:	89 c6                	mov    %eax,%esi
   1187a:	48 8d 3d e9 1f 00 00 	lea    0x1fe9(%rip),%rdi        # 1386a <g_1697+0x74e>
   11881:	b8 00 00 00 00       	mov    $0x0,%eax
   11886:	e8 f5 47 ff ff       	callq  6080 <printf@plt>
   1188b:	83 45 f0 01          	addl   $0x1,-0x10(%rbp)
   1188f:	83 7d f0 04          	cmpl   $0x4,-0x10(%rbp)
   11893:	7e b0                	jle    11845 <main+0x1c67>
   11895:	48 8b 05 14 60 00 00 	mov    0x6014(%rip),%rax        # 178b0 <g_1357>
   1189c:	25 ff ff 3f 00       	and    $0x3fffff,%eax
   118a1:	89 c1                	mov    %eax,%ecx
   118a3:	8b 45 fc             	mov    -0x4(%rbp),%eax
   118a6:	89 c2                	mov    %eax,%edx
   118a8:	48 8d 35 fc 24 00 00 	lea    0x24fc(%rip),%rsi        # 13dab <g_1697+0xc8f>
   118af:	48 89 cf             	mov    %rcx,%rdi
   118b2:	e8 3c 5e ff ff       	callq  76f3 <transparent_crc>
   118b7:	0f b6 05 f5 5f 00 00 	movzbl 0x5ff5(%rip),%eax        # 178b3 <g_1357+0x3>
   118be:	0f b6 c0             	movzbl %al,%eax
   118c1:	8b 55 fc             	mov    -0x4(%rbp),%edx
   118c4:	48 8d 35 ea 24 00 00 	lea    0x24ea(%rip),%rsi        # 13db5 <g_1697+0xc99>
   118cb:	48 89 c7             	mov    %rax,%rdi
   118ce:	e8 20 5e ff ff       	callq  76f3 <transparent_crc>
   118d3:	48 8b 05 d6 5f 00 00 	mov    0x5fd6(%rip),%rax        # 178b0 <g_1357>
   118da:	48 c1 e0 03          	shl    $0x3,%rax
   118de:	48 c1 f8 23          	sar    $0x23,%rax
   118e2:	48 98                	cltq   
   118e4:	8b 55 fc             	mov    -0x4(%rbp),%edx
   118e7:	48 8d 35 d4 24 00 00 	lea    0x24d4(%rip),%rsi        # 13dc2 <g_1697+0xca6>
   118ee:	48 89 c7             	mov    %rax,%rdi
   118f1:	e8 fd 5d ff ff       	callq  76f3 <transparent_crc>
   118f6:	48 8b 05 b3 5f 00 00 	mov    0x5fb3(%rip),%rax        # 178b0 <g_1357>
   118fd:	48 c1 e8 3d          	shr    $0x3d,%rax
   11901:	48 89 c2             	mov    %rax,%rdx
   11904:	48 8b 05 ad 5f 00 00 	mov    0x5fad(%rip),%rax        # 178b8 <g_1357+0x8>
   1190b:	0f b6 c0             	movzbl %al,%eax
   1190e:	48 c1 e0 03          	shl    $0x3,%rax
   11912:	48 09 d0             	or     %rdx,%rax
   11915:	0f b7 c0             	movzwl %ax,%eax
   11918:	8b 55 fc             	mov    -0x4(%rbp),%edx
   1191b:	48 8d 35 ad 24 00 00 	lea    0x24ad(%rip),%rsi        # 13dcf <g_1697+0xcb3>
   11922:	48 89 c7             	mov    %rax,%rdi
   11925:	e8 c9 5d ff ff       	callq  76f3 <transparent_crc>
   1192a:	48 8b 05 87 5f 00 00 	mov    0x5f87(%rip),%rax        # 178b8 <g_1357+0x8>
   11931:	48 c1 e8 08          	shr    $0x8,%rax
   11935:	25 ff ff 3f 00       	and    $0x3fffff,%eax
   1193a:	89 c1                	mov    %eax,%ecx
   1193c:	8b 45 fc             	mov    -0x4(%rbp),%eax
   1193f:	89 c2                	mov    %eax,%edx
   11941:	48 8d 35 94 24 00 00 	lea    0x2494(%rip),%rsi        # 13ddc <g_1697+0xcc0>
   11948:	48 89 cf             	mov    %rcx,%rdi
   1194b:	e8 a3 5d ff ff       	callq  76f3 <transparent_crc>
   11950:	48 8b 05 61 5f 00 00 	mov    0x5f61(%rip),%rax        # 178b8 <g_1357+0x8>
   11957:	48 c1 e0 19          	shl    $0x19,%rax
   1195b:	48 c1 f8 37          	sar    $0x37,%rax
   1195f:	48 0f bf c0          	movswq %ax,%rax
   11963:	8b 55 fc             	mov    -0x4(%rbp),%edx
   11966:	48 8d 35 79 24 00 00 	lea    0x2479(%rip),%rsi        # 13de6 <g_1697+0xcca>
   1196d:	48 89 c7             	mov    %rax,%rdi
   11970:	e8 7e 5d ff ff       	callq  76f3 <transparent_crc>
   11975:	48 8b 05 3c 5f 00 00 	mov    0x5f3c(%rip),%rax        # 178b8 <g_1357+0x8>
   1197c:	48 c1 e8 27          	shr    $0x27,%rax
   11980:	48 89 c2             	mov    %rax,%rdx
   11983:	48 8b 05 36 5f 00 00 	mov    0x5f36(%rip),%rax        # 178c0 <g_1357+0x10>
   1198a:	83 e0 3f             	and    $0x3f,%eax
   1198d:	48 c1 e0 19          	shl    $0x19,%rax
   11991:	48 09 d0             	or     %rdx,%rax
   11994:	89 c1                	mov    %eax,%ecx
   11996:	8b 45 fc             	mov    -0x4(%rbp),%eax
   11999:	89 c2                	mov    %eax,%edx
   1199b:	48 8d 35 4e 24 00 00 	lea    0x244e(%rip),%rsi        # 13df0 <g_1697+0xcd4>
   119a2:	48 89 cf             	mov    %rcx,%rdi
   119a5:	e8 49 5d ff ff       	callq  76f3 <transparent_crc>
   119aa:	8b 05 20 5f 00 00    	mov    0x5f20(%rip),%eax        # 178d0 <g_1362>
   119b0:	25 ff ff 3f 00       	and    $0x3fffff,%eax
   119b5:	89 c1                	mov    %eax,%ecx
   119b7:	8b 45 fc             	mov    -0x4(%rbp),%eax
   119ba:	89 c2                	mov    %eax,%edx
   119bc:	48 8d 35 37 24 00 00 	lea    0x2437(%rip),%rsi        # 13dfa <g_1697+0xcde>
   119c3:	48 89 cf             	mov    %rcx,%rdi
   119c6:	e8 28 5d ff ff       	callq  76f3 <transparent_crc>
   119cb:	0f b6 05 01 5f 00 00 	movzbl 0x5f01(%rip),%eax        # 178d3 <g_1362+0x3>
   119d2:	0f b6 c0             	movzbl %al,%eax
   119d5:	8b 55 fc             	mov    -0x4(%rbp),%edx
   119d8:	48 8d 35 25 24 00 00 	lea    0x2425(%rip),%rsi        # 13e04 <g_1697+0xce8>
   119df:	48 89 c7             	mov    %rax,%rdi
   119e2:	e8 0c 5d ff ff       	callq  76f3 <transparent_crc>
   119e7:	8b 05 e7 5e 00 00    	mov    0x5ee7(%rip),%eax        # 178d4 <g_1362+0x4>
   119ed:	c1 e0 03             	shl    $0x3,%eax
   119f0:	c1 f8 03             	sar    $0x3,%eax
   119f3:	48 98                	cltq   
   119f5:	8b 55 fc             	mov    -0x4(%rbp),%edx
   119f8:	48 8d 35 12 24 00 00 	lea    0x2412(%rip),%rsi        # 13e11 <g_1697+0xcf5>
   119ff:	48 89 c7             	mov    %rax,%rdi
   11a02:	e8 ec 5c ff ff       	callq  76f3 <transparent_crc>
   11a07:	0f b6 05 c9 5e 00 00 	movzbl 0x5ec9(%rip),%eax        # 178d7 <g_1362+0x7>
   11a0e:	c0 e8 05             	shr    $0x5,%al
   11a11:	0f b6 c0             	movzbl %al,%eax
   11a14:	0f b6 15 bd 5e 00 00 	movzbl 0x5ebd(%rip),%edx        # 178d8 <g_1362+0x8>
   11a1b:	48 c1 e2 03          	shl    $0x3,%rdx
   11a1f:	48 09 d0             	or     %rdx,%rax
   11a22:	0f b7 c0             	movzwl %ax,%eax
   11a25:	8b 55 fc             	mov    -0x4(%rbp),%edx
   11a28:	48 8d 35 ef 23 00 00 	lea    0x23ef(%rip),%rsi        # 13e1e <g_1697+0xd02>
   11a2f:	48 89 c7             	mov    %rax,%rdi
   11a32:	e8 bc 5c ff ff       	callq  76f3 <transparent_crc>
   11a37:	48 8b 05 9a 5e 00 00 	mov    0x5e9a(%rip),%rax        # 178d8 <g_1362+0x8>
   11a3e:	48 c1 e8 08          	shr    $0x8,%rax
   11a42:	25 ff ff 3f 00       	and    $0x3fffff,%eax
   11a47:	89 c1                	mov    %eax,%ecx
   11a49:	8b 45 fc             	mov    -0x4(%rbp),%eax
   11a4c:	89 c2                	mov    %eax,%edx
   11a4e:	48 8d 35 d6 23 00 00 	lea    0x23d6(%rip),%rsi        # 13e2b <g_1697+0xd0f>
   11a55:	48 89 cf             	mov    %rcx,%rdi
   11a58:	e8 96 5c ff ff       	callq  76f3 <transparent_crc>
   11a5d:	48 8b 05 74 5e 00 00 	mov    0x5e74(%rip),%rax        # 178d8 <g_1362+0x8>
   11a64:	48 c1 e0 19          	shl    $0x19,%rax
   11a68:	48 c1 f8 37          	sar    $0x37,%rax
   11a6c:	48 0f bf c0          	movswq %ax,%rax
   11a70:	8b 55 fc             	mov    -0x4(%rbp),%edx
   11a73:	48 8d 35 bb 23 00 00 	lea    0x23bb(%rip),%rsi        # 13e35 <g_1697+0xd19>
   11a7a:	48 89 c7             	mov    %rax,%rdi
   11a7d:	e8 71 5c ff ff       	callq  76f3 <transparent_crc>
   11a82:	8b 05 54 5e 00 00    	mov    0x5e54(%rip),%eax        # 178dc <g_1362+0xc>
   11a88:	c1 e8 07             	shr    $0x7,%eax
   11a8b:	89 c2                	mov    %eax,%edx
   11a8d:	0f b6 05 4c 5e 00 00 	movzbl 0x5e4c(%rip),%eax        # 178e0 <g_1362+0x10>
   11a94:	83 e0 3f             	and    $0x3f,%eax
   11a97:	48 c1 e0 19          	shl    $0x19,%rax
   11a9b:	48 09 d0             	or     %rdx,%rax
   11a9e:	89 c1                	mov    %eax,%ecx
   11aa0:	8b 45 fc             	mov    -0x4(%rbp),%eax
   11aa3:	89 c2                	mov    %eax,%edx
   11aa5:	48 8d 35 93 23 00 00 	lea    0x2393(%rip),%rsi        # 13e3f <g_1697+0xd23>
   11aac:	48 89 cf             	mov    %rcx,%rdi
   11aaf:	e8 3f 5c ff ff       	callq  76f3 <transparent_crc>
   11ab4:	0f b6 05 26 5e 00 00 	movzbl 0x5e26(%rip),%eax        # 178e1 <g_1375>
   11abb:	0f b6 c0             	movzbl %al,%eax
   11abe:	8b 55 fc             	mov    -0x4(%rbp),%edx
   11ac1:	48 8d 35 81 23 00 00 	lea    0x2381(%rip),%rsi        # 13e49 <g_1697+0xd2d>
   11ac8:	48 89 c7             	mov    %rax,%rdi
   11acb:	e8 23 5c ff ff       	callq  76f3 <transparent_crc>
   11ad0:	0f b6 05 0b 5e 00 00 	movzbl 0x5e0b(%rip),%eax        # 178e2 <g_1375+0x1>
   11ad7:	0f b6 c0             	movzbl %al,%eax
   11ada:	0f b6 15 02 5e 00 00 	movzbl 0x5e02(%rip),%edx        # 178e3 <g_1375+0x2>
   11ae1:	0f b6 d2             	movzbl %dl,%edx
   11ae4:	48 c1 e2 08          	shl    $0x8,%rdx
   11ae8:	48 09 c2             	or     %rax,%rdx
   11aeb:	0f b6 05 f2 5d 00 00 	movzbl 0x5df2(%rip),%eax        # 178e4 <g_1375+0x3>
   11af2:	0f b6 c0             	movzbl %al,%eax
   11af5:	48 c1 e0 10          	shl    $0x10,%rax
   11af9:	48 09 c2             	or     %rax,%rdx
   11afc:	0f b6 05 e2 5d 00 00 	movzbl 0x5de2(%rip),%eax        # 178e5 <g_1375+0x4>
   11b03:	0f b6 c0             	movzbl %al,%eax
   11b06:	83 e0 1f             	and    $0x1f,%eax
   11b09:	48 c1 e0 18          	shl    $0x18,%rax
   11b0d:	48 09 d0             	or     %rdx,%rax
   11b10:	48 c1 e0 23          	shl    $0x23,%rax
   11b14:	48 c1 f8 23          	sar    $0x23,%rax
   11b18:	48 98                	cltq   
   11b1a:	8b 55 fc             	mov    -0x4(%rbp),%edx
   11b1d:	48 8d 35 2f 23 00 00 	lea    0x232f(%rip),%rsi        # 13e53 <g_1697+0xd37>
   11b24:	48 89 c7             	mov    %rax,%rdi
   11b27:	e8 c7 5b ff ff       	callq  76f3 <transparent_crc>
   11b2c:	0f b6 05 b2 5d 00 00 	movzbl 0x5db2(%rip),%eax        # 178e5 <g_1375+0x4>
   11b33:	c0 e8 05             	shr    $0x5,%al
   11b36:	0f b6 c0             	movzbl %al,%eax
   11b39:	0f b6 15 a6 5d 00 00 	movzbl 0x5da6(%rip),%edx        # 178e6 <g_1375+0x5>
   11b40:	0f b6 d2             	movzbl %dl,%edx
   11b43:	48 c1 e2 03          	shl    $0x3,%rdx
   11b47:	48 09 d0             	or     %rdx,%rax
   11b4a:	0f b7 c0             	movzwl %ax,%eax
   11b4d:	8b 55 fc             	mov    -0x4(%rbp),%edx
   11b50:	48 8d 35 06 23 00 00 	lea    0x2306(%rip),%rsi        # 13e5d <g_1697+0xd41>
   11b57:	48 89 c7             	mov    %rax,%rdi
   11b5a:	e8 94 5b ff ff       	callq  76f3 <transparent_crc>
   11b5f:	c7 45 f0 00 00 00 00 	movl   $0x0,-0x10(%rbp)
   11b66:	e9 2d 01 00 00       	jmpq   11c98 <main+0x20ba>
   11b6b:	8b 45 f0             	mov    -0x10(%rbp),%eax
   11b6e:	48 98                	cltq   
   11b70:	48 c1 e0 04          	shl    $0x4,%rax
   11b74:	48 89 c2             	mov    %rax,%rdx
   11b77:	48 8d 05 72 5d 00 00 	lea    0x5d72(%rip),%rax        # 178f0 <g_1427>
   11b7e:	48 8b 04 02          	mov    (%rdx,%rax,1),%rax
   11b82:	83 e0 7f             	and    $0x7f,%eax
   11b85:	0f b6 c0             	movzbl %al,%eax
   11b88:	8b 55 fc             	mov    -0x4(%rbp),%edx
   11b8b:	48 8d 35 d5 22 00 00 	lea    0x22d5(%rip),%rsi        # 13e67 <g_1697+0xd4b>
   11b92:	48 89 c7             	mov    %rax,%rdi
   11b95:	e8 59 5b ff ff       	callq  76f3 <transparent_crc>
   11b9a:	8b 45 f0             	mov    -0x10(%rbp),%eax
   11b9d:	48 98                	cltq   
   11b9f:	48 c1 e0 04          	shl    $0x4,%rax
   11ba3:	48 89 c2             	mov    %rax,%rdx
   11ba6:	48 8d 05 47 5d 00 00 	lea    0x5d47(%rip),%rax        # 178f4 <g_1427+0x4>
   11bad:	0f b6 04 02          	movzbl (%rdx,%rax,1),%eax
   11bb1:	0f b6 c0             	movzbl %al,%eax
   11bb4:	8b 55 fc             	mov    -0x4(%rbp),%edx
   11bb7:	48 8d 35 b6 22 00 00 	lea    0x22b6(%rip),%rsi        # 13e74 <g_1697+0xd58>
   11bbe:	48 89 c7             	mov    %rax,%rdi
   11bc1:	e8 2d 5b ff ff       	callq  76f3 <transparent_crc>
   11bc6:	8b 45 f0             	mov    -0x10(%rbp),%eax
   11bc9:	48 98                	cltq   
   11bcb:	48 c1 e0 04          	shl    $0x4,%rax
   11bcf:	48 89 c2             	mov    %rax,%rdx
   11bd2:	48 8d 05 17 5d 00 00 	lea    0x5d17(%rip),%rax        # 178f0 <g_1427>
   11bd9:	48 8b 0c 02          	mov    (%rdx,%rax,1),%rcx
   11bdd:	48 c1 e9 28          	shr    $0x28,%rcx
   11be1:	48 8b 44 02 08       	mov    0x8(%rdx,%rax,1),%rax
   11be6:	83 e0 1f             	and    $0x1f,%eax
   11be9:	48 c1 e0 18          	shl    $0x18,%rax
   11bed:	48 09 c8             	or     %rcx,%rax
   11bf0:	48 c1 e0 23          	shl    $0x23,%rax
   11bf4:	48 c1 f8 23          	sar    $0x23,%rax
   11bf8:	48 98                	cltq   
   11bfa:	8b 55 fc             	mov    -0x4(%rbp),%edx
   11bfd:	48 8d 35 80 22 00 00 	lea    0x2280(%rip),%rsi        # 13e84 <g_1697+0xd68>
   11c04:	48 89 c7             	mov    %rax,%rdi
   11c07:	e8 e7 5a ff ff       	callq  76f3 <transparent_crc>
   11c0c:	8b 45 f0             	mov    -0x10(%rbp),%eax
   11c0f:	48 98                	cltq   
   11c11:	48 c1 e0 04          	shl    $0x4,%rax
   11c15:	48 89 c2             	mov    %rax,%rdx
   11c18:	48 8d 05 d1 5c 00 00 	lea    0x5cd1(%rip),%rax        # 178f0 <g_1427>
   11c1f:	48 8b 44 02 08       	mov    0x8(%rdx,%rax,1),%rax
   11c24:	48 c1 e8 05          	shr    $0x5,%rax
   11c28:	66 25 ff 07          	and    $0x7ff,%ax
   11c2c:	0f b7 c0             	movzwl %ax,%eax
   11c2f:	8b 55 fc             	mov    -0x4(%rbp),%edx
   11c32:	48 8d 35 5b 22 00 00 	lea    0x225b(%rip),%rsi        # 13e94 <g_1697+0xd78>
   11c39:	48 89 c7             	mov    %rax,%rdi
   11c3c:	e8 b2 5a ff ff       	callq  76f3 <transparent_crc>
   11c41:	8b 45 f0             	mov    -0x10(%rbp),%eax
   11c44:	48 98                	cltq   
   11c46:	48 c1 e0 04          	shl    $0x4,%rax
   11c4a:	48 89 c2             	mov    %rax,%rdx
   11c4d:	48 8d 05 9c 5c 00 00 	lea    0x5c9c(%rip),%rax        # 178f0 <g_1427>
   11c54:	48 8b 44 02 08       	mov    0x8(%rdx,%rax,1),%rax
   11c59:	48 c1 e8 20          	shr    $0x20,%rax
   11c5d:	25 ff ff ff 1f       	and    $0x1fffffff,%eax
   11c62:	89 c1                	mov    %eax,%ecx
   11c64:	8b 45 fc             	mov    -0x4(%rbp),%eax
   11c67:	89 c2                	mov    %eax,%edx
   11c69:	48 8d 35 34 22 00 00 	lea    0x2234(%rip),%rsi        # 13ea4 <g_1697+0xd88>
   11c70:	48 89 cf             	mov    %rcx,%rdi
   11c73:	e8 7b 5a ff ff       	callq  76f3 <transparent_crc>
   11c78:	83 7d fc 00          	cmpl   $0x0,-0x4(%rbp)
   11c7c:	74 16                	je     11c94 <main+0x20b6>
   11c7e:	8b 45 f0             	mov    -0x10(%rbp),%eax
   11c81:	89 c6                	mov    %eax,%esi
   11c83:	48 8d 3d e0 1b 00 00 	lea    0x1be0(%rip),%rdi        # 1386a <g_1697+0x74e>
   11c8a:	b8 00 00 00 00       	mov    $0x0,%eax
   11c8f:	e8 ec 43 ff ff       	callq  6080 <printf@plt>
   11c94:	83 45 f0 01          	addl   $0x1,-0x10(%rbp)
   11c98:	83 7d f0 00          	cmpl   $0x0,-0x10(%rbp)
   11c9c:	0f 8e c9 fe ff ff    	jle    11b6b <main+0x1f8d>
   11ca2:	c7 45 f0 00 00 00 00 	movl   $0x0,-0x10(%rbp)
   11ca9:	eb 75                	jmp    11d20 <main+0x2142>
   11cab:	c7 45 f4 00 00 00 00 	movl   $0x0,-0xc(%rbp)
   11cb2:	eb 62                	jmp    11d16 <main+0x2138>
   11cb4:	8b 45 f4             	mov    -0xc(%rbp),%eax
   11cb7:	48 63 c8             	movslq %eax,%rcx
   11cba:	8b 45 f0             	mov    -0x10(%rbp),%eax
   11cbd:	48 63 d0             	movslq %eax,%rdx
   11cc0:	48 89 d0             	mov    %rdx,%rax
   11cc3:	48 c1 e0 02          	shl    $0x2,%rax
   11cc7:	48 01 d0             	add    %rdx,%rax
   11cca:	48 01 c8             	add    %rcx,%rax
   11ccd:	48 8d 14 85 00 00 00 	lea    0x0(,%rax,4),%rdx
   11cd4:	00 
   11cd5:	48 8d 05 24 5c 00 00 	lea    0x5c24(%rip),%rax        # 17900 <g_1442>
   11cdc:	8b 04 02             	mov    (%rdx,%rax,1),%eax
   11cdf:	48 98                	cltq   
   11ce1:	8b 55 fc             	mov    -0x4(%rbp),%edx
   11ce4:	48 8d 35 c6 21 00 00 	lea    0x21c6(%rip),%rsi        # 13eb1 <g_1697+0xd95>
   11ceb:	48 89 c7             	mov    %rax,%rdi
   11cee:	e8 00 5a ff ff       	callq  76f3 <transparent_crc>
   11cf3:	83 7d fc 00          	cmpl   $0x0,-0x4(%rbp)
   11cf7:	74 19                	je     11d12 <main+0x2134>
   11cf9:	8b 55 f4             	mov    -0xc(%rbp),%edx
   11cfc:	8b 45 f0             	mov    -0x10(%rbp),%eax
   11cff:	89 c6                	mov    %eax,%esi
   11d01:	48 8d 3d e1 1a 00 00 	lea    0x1ae1(%rip),%rdi        # 137e9 <g_1697+0x6cd>
   11d08:	b8 00 00 00 00       	mov    $0x0,%eax
   11d0d:	e8 6e 43 ff ff       	callq  6080 <printf@plt>
   11d12:	83 45 f4 01          	addl   $0x1,-0xc(%rbp)
   11d16:	83 7d f4 04          	cmpl   $0x4,-0xc(%rbp)
   11d1a:	7e 98                	jle    11cb4 <main+0x20d6>
   11d1c:	83 45 f0 01          	addl   $0x1,-0x10(%rbp)
   11d20:	83 7d f0 00          	cmpl   $0x0,-0x10(%rbp)
   11d24:	7e 85                	jle    11cab <main+0x20cd>
   11d26:	0f b7 05 e7 5b 00 00 	movzwl 0x5be7(%rip),%eax        # 17914 <g_1452>
   11d2d:	0f b7 c0             	movzwl %ax,%eax
   11d30:	8b 55 fc             	mov    -0x4(%rbp),%edx
   11d33:	48 8d 35 84 21 00 00 	lea    0x2184(%rip),%rsi        # 13ebe <g_1697+0xda2>
   11d3a:	48 89 c7             	mov    %rax,%rdi
   11d3d:	e8 b1 59 ff ff       	callq  76f3 <transparent_crc>
   11d42:	0f b7 05 cb 5b 00 00 	movzwl 0x5bcb(%rip),%eax        # 17914 <g_1452>
   11d49:	0f b7 c0             	movzwl %ax,%eax
   11d4c:	8b 55 fc             	mov    -0x4(%rbp),%edx
   11d4f:	48 8d 35 72 21 00 00 	lea    0x2172(%rip),%rsi        # 13ec8 <g_1697+0xdac>
   11d56:	48 89 c7             	mov    %rax,%rdi
   11d59:	e8 95 59 ff ff       	callq  76f3 <transparent_crc>
   11d5e:	0f b7 05 af 5b 00 00 	movzwl 0x5baf(%rip),%eax        # 17914 <g_1452>
   11d65:	0f b7 c0             	movzwl %ax,%eax
   11d68:	8b 55 fc             	mov    -0x4(%rbp),%edx
   11d6b:	48 8d 35 60 21 00 00 	lea    0x2160(%rip),%rsi        # 13ed2 <g_1697+0xdb6>
   11d72:	48 89 c7             	mov    %rax,%rdi
   11d75:	e8 79 59 ff ff       	callq  76f3 <transparent_crc>
   11d7a:	c7 45 f0 00 00 00 00 	movl   $0x0,-0x10(%rbp)
   11d81:	e9 25 03 00 00       	jmpq   120ab <main+0x24cd>
   11d86:	c7 45 f4 00 00 00 00 	movl   $0x0,-0xc(%rbp)
   11d8d:	e9 0b 03 00 00       	jmpq   1209d <main+0x24bf>
   11d92:	8b 45 f4             	mov    -0xc(%rbp),%eax
   11d95:	48 98                	cltq   
   11d97:	8b 55 f0             	mov    -0x10(%rbp),%edx
   11d9a:	48 63 ca             	movslq %edx,%rcx
   11d9d:	48 89 c2             	mov    %rax,%rdx
   11da0:	48 c1 e2 04          	shl    $0x4,%rdx
   11da4:	48 01 c2             	add    %rax,%rdx
   11da7:	48 89 c8             	mov    %rcx,%rax
   11daa:	48 c1 e0 04          	shl    $0x4,%rax
   11dae:	48 01 c8             	add    %rcx,%rax
   11db1:	48 01 c0             	add    %rax,%rax
   11db4:	48 01 c2             	add    %rax,%rdx
   11db7:	48 8d 05 62 5b 00 00 	lea    0x5b62(%rip),%rax        # 17920 <g_1517>
   11dbe:	48 01 d0             	add    %rdx,%rax
   11dc1:	0f b6 10             	movzbl (%rax),%edx
   11dc4:	0f b6 d2             	movzbl %dl,%edx
   11dc7:	0f b6 48 01          	movzbl 0x1(%rax),%ecx
   11dcb:	0f b6 c9             	movzbl %cl,%ecx
   11dce:	48 c1 e1 08          	shl    $0x8,%rcx
   11dd2:	48 09 ca             	or     %rcx,%rdx
   11dd5:	0f b6 40 02          	movzbl 0x2(%rax),%eax
   11dd9:	0f b6 c0             	movzbl %al,%eax
   11ddc:	83 e0 3f             	and    $0x3f,%eax
   11ddf:	48 c1 e0 10          	shl    $0x10,%rax
   11de3:	48 09 d0             	or     %rdx,%rax
   11de6:	89 c1                	mov    %eax,%ecx
   11de8:	8b 45 fc             	mov    -0x4(%rbp),%eax
   11deb:	89 c2                	mov    %eax,%edx
   11ded:	48 8d 35 e8 20 00 00 	lea    0x20e8(%rip),%rsi        # 13edc <g_1697+0xdc0>
   11df4:	48 89 cf             	mov    %rcx,%rdi
   11df7:	e8 f7 58 ff ff       	callq  76f3 <transparent_crc>
   11dfc:	8b 45 f4             	mov    -0xc(%rbp),%eax
   11dff:	48 98                	cltq   
   11e01:	8b 55 f0             	mov    -0x10(%rbp),%edx
   11e04:	48 63 ca             	movslq %edx,%rcx
   11e07:	48 89 c2             	mov    %rax,%rdx
   11e0a:	48 c1 e2 04          	shl    $0x4,%rdx
   11e0e:	48 01 c2             	add    %rax,%rdx
   11e11:	48 89 c8             	mov    %rcx,%rax
   11e14:	48 c1 e0 04          	shl    $0x4,%rax
   11e18:	48 01 c8             	add    %rcx,%rax
   11e1b:	48 01 c0             	add    %rax,%rax
   11e1e:	48 01 c2             	add    %rax,%rdx
   11e21:	48 8d 05 fb 5a 00 00 	lea    0x5afb(%rip),%rax        # 17923 <g_1517+0x3>
   11e28:	48 01 d0             	add    %rdx,%rax
   11e2b:	0f b6 00             	movzbl (%rax),%eax
   11e2e:	0f b6 c0             	movzbl %al,%eax
   11e31:	8b 55 fc             	mov    -0x4(%rbp),%edx
   11e34:	48 8d 35 b1 20 00 00 	lea    0x20b1(%rip),%rsi        # 13eec <g_1697+0xdd0>
   11e3b:	48 89 c7             	mov    %rax,%rdi
   11e3e:	e8 b0 58 ff ff       	callq  76f3 <transparent_crc>
   11e43:	8b 45 f4             	mov    -0xc(%rbp),%eax
   11e46:	48 98                	cltq   
   11e48:	8b 55 f0             	mov    -0x10(%rbp),%edx
   11e4b:	48 63 ca             	movslq %edx,%rcx
   11e4e:	48 89 c2             	mov    %rax,%rdx
   11e51:	48 c1 e2 04          	shl    $0x4,%rdx
   11e55:	48 01 c2             	add    %rax,%rdx
   11e58:	48 89 c8             	mov    %rcx,%rax
   11e5b:	48 c1 e0 04          	shl    $0x4,%rax
   11e5f:	48 01 c8             	add    %rcx,%rax
   11e62:	48 01 c0             	add    %rax,%rax
   11e65:	48 01 c2             	add    %rax,%rdx
   11e68:	48 8d 05 b1 5a 00 00 	lea    0x5ab1(%rip),%rax        # 17920 <g_1517>
   11e6f:	48 01 d0             	add    %rdx,%rax
   11e72:	0f b6 50 04          	movzbl 0x4(%rax),%edx
   11e76:	0f b6 d2             	movzbl %dl,%edx
   11e79:	0f b6 48 05          	movzbl 0x5(%rax),%ecx
   11e7d:	0f b6 c9             	movzbl %cl,%ecx
   11e80:	48 c1 e1 08          	shl    $0x8,%rcx
   11e84:	48 09 d1             	or     %rdx,%rcx
   11e87:	0f b6 50 06          	movzbl 0x6(%rax),%edx
   11e8b:	0f b6 d2             	movzbl %dl,%edx
   11e8e:	48 c1 e2 10          	shl    $0x10,%rdx
   11e92:	48 09 ca             	or     %rcx,%rdx
   11e95:	0f b6 40 07          	movzbl 0x7(%rax),%eax
   11e99:	0f b6 c0             	movzbl %al,%eax
   11e9c:	83 e0 1f             	and    $0x1f,%eax
   11e9f:	48 c1 e0 18          	shl    $0x18,%rax
   11ea3:	48 09 d0             	or     %rdx,%rax
   11ea6:	48 c1 e0 23          	shl    $0x23,%rax
   11eaa:	48 c1 f8 23          	sar    $0x23,%rax
   11eae:	48 98                	cltq   
   11eb0:	8b 55 fc             	mov    -0x4(%rbp),%edx
   11eb3:	48 8d 35 45 20 00 00 	lea    0x2045(%rip),%rsi        # 13eff <g_1697+0xde3>
   11eba:	48 89 c7             	mov    %rax,%rdi
   11ebd:	e8 31 58 ff ff       	callq  76f3 <transparent_crc>
   11ec2:	8b 45 f4             	mov    -0xc(%rbp),%eax
   11ec5:	48 98                	cltq   
   11ec7:	8b 55 f0             	mov    -0x10(%rbp),%edx
   11eca:	48 63 ca             	movslq %edx,%rcx
   11ecd:	48 89 c2             	mov    %rax,%rdx
   11ed0:	48 c1 e2 04          	shl    $0x4,%rdx
   11ed4:	48 01 c2             	add    %rax,%rdx
   11ed7:	48 89 c8             	mov    %rcx,%rax
   11eda:	48 c1 e0 04          	shl    $0x4,%rax
   11ede:	48 01 c8             	add    %rcx,%rax
   11ee1:	48 01 c0             	add    %rax,%rax
   11ee4:	48 01 c2             	add    %rax,%rdx
   11ee7:	48 8d 05 32 5a 00 00 	lea    0x5a32(%rip),%rax        # 17920 <g_1517>
   11eee:	48 01 d0             	add    %rdx,%rax
   11ef1:	0f b6 50 07          	movzbl 0x7(%rax),%edx
   11ef5:	c0 ea 05             	shr    $0x5,%dl
   11ef8:	0f b6 d2             	movzbl %dl,%edx
   11efb:	0f b6 40 08          	movzbl 0x8(%rax),%eax
   11eff:	0f b6 c0             	movzbl %al,%eax
   11f02:	48 c1 e0 03          	shl    $0x3,%rax
   11f06:	48 09 d0             	or     %rdx,%rax
   11f09:	0f b7 c0             	movzwl %ax,%eax
   11f0c:	8b 55 fc             	mov    -0x4(%rbp),%edx
   11f0f:	48 8d 35 fc 1f 00 00 	lea    0x1ffc(%rip),%rsi        # 13f12 <g_1697+0xdf6>
   11f16:	48 89 c7             	mov    %rax,%rdi
   11f19:	e8 d5 57 ff ff       	callq  76f3 <transparent_crc>
   11f1e:	8b 45 f4             	mov    -0xc(%rbp),%eax
   11f21:	48 98                	cltq   
   11f23:	8b 55 f0             	mov    -0x10(%rbp),%edx
   11f26:	48 63 ca             	movslq %edx,%rcx
   11f29:	48 89 c2             	mov    %rax,%rdx
   11f2c:	48 c1 e2 04          	shl    $0x4,%rdx
   11f30:	48 01 c2             	add    %rax,%rdx
   11f33:	48 89 c8             	mov    %rcx,%rax
   11f36:	48 c1 e0 04          	shl    $0x4,%rax
   11f3a:	48 01 c8             	add    %rcx,%rax
   11f3d:	48 01 c0             	add    %rax,%rax
   11f40:	48 01 c2             	add    %rax,%rdx
   11f43:	48 8d 05 d6 59 00 00 	lea    0x59d6(%rip),%rax        # 17920 <g_1517>
   11f4a:	48 01 d0             	add    %rdx,%rax
   11f4d:	0f b6 50 09          	movzbl 0x9(%rax),%edx
   11f51:	0f b6 d2             	movzbl %dl,%edx
   11f54:	0f b6 48 0a          	movzbl 0xa(%rax),%ecx
   11f58:	0f b6 c9             	movzbl %cl,%ecx
   11f5b:	48 c1 e1 08          	shl    $0x8,%rcx
   11f5f:	48 09 ca             	or     %rcx,%rdx
   11f62:	0f b6 40 0b          	movzbl 0xb(%rax),%eax
   11f66:	0f b6 c0             	movzbl %al,%eax
   11f69:	83 e0 3f             	and    $0x3f,%eax
   11f6c:	48 c1 e0 10          	shl    $0x10,%rax
   11f70:	48 09 d0             	or     %rdx,%rax
   11f73:	89 c1                	mov    %eax,%ecx
   11f75:	8b 45 fc             	mov    -0x4(%rbp),%eax
   11f78:	89 c2                	mov    %eax,%edx
   11f7a:	48 8d 35 a4 1f 00 00 	lea    0x1fa4(%rip),%rsi        # 13f25 <g_1697+0xe09>
   11f81:	48 89 cf             	mov    %rcx,%rdi
   11f84:	e8 6a 57 ff ff       	callq  76f3 <transparent_crc>
   11f89:	8b 45 f4             	mov    -0xc(%rbp),%eax
   11f8c:	48 98                	cltq   
   11f8e:	8b 55 f0             	mov    -0x10(%rbp),%edx
   11f91:	48 63 ca             	movslq %edx,%rcx
   11f94:	48 89 c2             	mov    %rax,%rdx
   11f97:	48 c1 e2 04          	shl    $0x4,%rdx
   11f9b:	48 01 c2             	add    %rax,%rdx
   11f9e:	48 89 c8             	mov    %rcx,%rax
   11fa1:	48 c1 e0 04          	shl    $0x4,%rax
   11fa5:	48 01 c8             	add    %rcx,%rax
   11fa8:	48 01 c0             	add    %rax,%rax
   11fab:	48 01 c2             	add    %rax,%rdx
   11fae:	48 8d 05 6b 59 00 00 	lea    0x596b(%rip),%rax        # 17920 <g_1517>
   11fb5:	48 01 d0             	add    %rdx,%rax
   11fb8:	0f b6 50 0b          	movzbl 0xb(%rax),%edx
   11fbc:	c0 ea 06             	shr    $0x6,%dl
   11fbf:	0f b6 d2             	movzbl %dl,%edx
   11fc2:	0f b6 40 0c          	movzbl 0xc(%rax),%eax
   11fc6:	0f b6 c0             	movzbl %al,%eax
   11fc9:	83 e0 7f             	and    $0x7f,%eax
   11fcc:	48 c1 e0 02          	shl    $0x2,%rax
   11fd0:	48 09 d0             	or     %rdx,%rax
   11fd3:	48 c1 e0 37          	shl    $0x37,%rax
   11fd7:	48 c1 f8 37          	sar    $0x37,%rax
   11fdb:	48 0f bf c0          	movswq %ax,%rax
   11fdf:	8b 55 fc             	mov    -0x4(%rbp),%edx
   11fe2:	48 8d 35 4c 1f 00 00 	lea    0x1f4c(%rip),%rsi        # 13f35 <g_1697+0xe19>
   11fe9:	48 89 c7             	mov    %rax,%rdi
   11fec:	e8 02 57 ff ff       	callq  76f3 <transparent_crc>
   11ff1:	8b 45 f4             	mov    -0xc(%rbp),%eax
   11ff4:	48 98                	cltq   
   11ff6:	8b 55 f0             	mov    -0x10(%rbp),%edx
   11ff9:	48 63 ca             	movslq %edx,%rcx
   11ffc:	48 89 c2             	mov    %rax,%rdx
   11fff:	48 c1 e2 04          	shl    $0x4,%rdx
   12003:	48 01 c2             	add    %rax,%rdx
   12006:	48 89 c8             	mov    %rcx,%rax
   12009:	48 c1 e0 04          	shl    $0x4,%rax
   1200d:	48 01 c8             	add    %rcx,%rax
   12010:	48 01 c0             	add    %rax,%rax
   12013:	48 01 c2             	add    %rax,%rdx
   12016:	48 8d 05 03 59 00 00 	lea    0x5903(%rip),%rax        # 17920 <g_1517>
   1201d:	48 01 d0             	add    %rdx,%rax
   12020:	0f b6 50 0c          	movzbl 0xc(%rax),%edx
   12024:	c0 ea 07             	shr    $0x7,%dl
   12027:	0f b6 d2             	movzbl %dl,%edx
   1202a:	0f b6 48 0d          	movzbl 0xd(%rax),%ecx
   1202e:	0f b6 c9             	movzbl %cl,%ecx
   12031:	48 01 c9             	add    %rcx,%rcx
   12034:	48 09 d1             	or     %rdx,%rcx
   12037:	0f b6 50 0e          	movzbl 0xe(%rax),%edx
   1203b:	0f b6 d2             	movzbl %dl,%edx
   1203e:	48 c1 e2 09          	shl    $0x9,%rdx
   12042:	48 09 d1             	or     %rdx,%rcx
   12045:	0f b6 50 0f          	movzbl 0xf(%rax),%edx
   12049:	0f b6 d2             	movzbl %dl,%edx
   1204c:	48 c1 e2 11          	shl    $0x11,%rdx
   12050:	48 09 ca             	or     %rcx,%rdx
   12053:	0f b6 40 10          	movzbl 0x10(%rax),%eax
   12057:	0f b6 c0             	movzbl %al,%eax
   1205a:	83 e0 3f             	and    $0x3f,%eax
   1205d:	48 c1 e0 19          	shl    $0x19,%rax
   12061:	48 09 d0             	or     %rdx,%rax
   12064:	89 c1                	mov    %eax,%ecx
   12066:	8b 45 fc             	mov    -0x4(%rbp),%eax
   12069:	89 c2                	mov    %eax,%edx
   1206b:	48 8d 35 d3 1e 00 00 	lea    0x1ed3(%rip),%rsi        # 13f45 <g_1697+0xe29>
   12072:	48 89 cf             	mov    %rcx,%rdi
   12075:	e8 79 56 ff ff       	callq  76f3 <transparent_crc>
   1207a:	83 7d fc 00          	cmpl   $0x0,-0x4(%rbp)
   1207e:	74 19                	je     12099 <main+0x24bb>
   12080:	8b 55 f4             	mov    -0xc(%rbp),%edx
   12083:	8b 45 f0             	mov    -0x10(%rbp),%eax
   12086:	89 c6                	mov    %eax,%esi
   12088:	48 8d 3d 5a 17 00 00 	lea    0x175a(%rip),%rdi        # 137e9 <g_1697+0x6cd>
   1208f:	b8 00 00 00 00       	mov    $0x0,%eax
   12094:	e8 e7 3f ff ff       	callq  6080 <printf@plt>
   12099:	83 45 f4 01          	addl   $0x1,-0xc(%rbp)
   1209d:	83 7d f4 01          	cmpl   $0x1,-0xc(%rbp)
   120a1:	0f 8e eb fc ff ff    	jle    11d92 <main+0x21b4>
   120a7:	83 45 f0 01          	addl   $0x1,-0x10(%rbp)
   120ab:	83 7d f0 09          	cmpl   $0x9,-0x10(%rbp)
   120af:	0f 8e d1 fc ff ff    	jle    11d86 <main+0x21a8>
   120b5:	48 8b 05 c4 59 00 00 	mov    0x59c4(%rip),%rax        # 17a80 <g_1518>
   120bc:	25 ff ff 3f 00       	and    $0x3fffff,%eax
   120c1:	89 c1                	mov    %eax,%ecx
   120c3:	8b 45 fc             	mov    -0x4(%rbp),%eax
   120c6:	89 c2                	mov    %eax,%edx
   120c8:	48 8d 35 86 1e 00 00 	lea    0x1e86(%rip),%rsi        # 13f55 <g_1697+0xe39>
   120cf:	48 89 cf             	mov    %rcx,%rdi
   120d2:	e8 1c 56 ff ff       	callq  76f3 <transparent_crc>
   120d7:	0f b6 05 a5 59 00 00 	movzbl 0x59a5(%rip),%eax        # 17a83 <g_1518+0x3>
   120de:	0f b6 c0             	movzbl %al,%eax
   120e1:	8b 55 fc             	mov    -0x4(%rbp),%edx
   120e4:	48 8d 35 74 1e 00 00 	lea    0x1e74(%rip),%rsi        # 13f5f <g_1697+0xe43>
   120eb:	48 89 c7             	mov    %rax,%rdi
   120ee:	e8 00 56 ff ff       	callq  76f3 <transparent_crc>
   120f3:	48 8b 05 86 59 00 00 	mov    0x5986(%rip),%rax        # 17a80 <g_1518>
   120fa:	48 c1 e0 03          	shl    $0x3,%rax
   120fe:	48 c1 f8 23          	sar    $0x23,%rax
   12102:	48 98                	cltq   
   12104:	8b 55 fc             	mov    -0x4(%rbp),%edx
   12107:	48 8d 35 5e 1e 00 00 	lea    0x1e5e(%rip),%rsi        # 13f6c <g_1697+0xe50>
   1210e:	48 89 c7             	mov    %rax,%rdi
   12111:	e8 dd 55 ff ff       	callq  76f3 <transparent_crc>
   12116:	48 8b 05 63 59 00 00 	mov    0x5963(%rip),%rax        # 17a80 <g_1518>
   1211d:	48 c1 e8 3d          	shr    $0x3d,%rax
   12121:	48 89 c2             	mov    %rax,%rdx
   12124:	48 8b 05 5d 59 00 00 	mov    0x595d(%rip),%rax        # 17a88 <g_1518+0x8>
   1212b:	0f b6 c0             	movzbl %al,%eax
   1212e:	48 c1 e0 03          	shl    $0x3,%rax
   12132:	48 09 d0             	or     %rdx,%rax
   12135:	0f b7 c0             	movzwl %ax,%eax
   12138:	8b 55 fc             	mov    -0x4(%rbp),%edx
   1213b:	48 8d 35 37 1e 00 00 	lea    0x1e37(%rip),%rsi        # 13f79 <g_1697+0xe5d>
   12142:	48 89 c7             	mov    %rax,%rdi
   12145:	e8 a9 55 ff ff       	callq  76f3 <transparent_crc>
   1214a:	48 8b 05 37 59 00 00 	mov    0x5937(%rip),%rax        # 17a88 <g_1518+0x8>
   12151:	48 c1 e8 08          	shr    $0x8,%rax
   12155:	25 ff ff 3f 00       	and    $0x3fffff,%eax
   1215a:	89 c1                	mov    %eax,%ecx
   1215c:	8b 45 fc             	mov    -0x4(%rbp),%eax
   1215f:	89 c2                	mov    %eax,%edx
   12161:	48 8d 35 1e 1e 00 00 	lea    0x1e1e(%rip),%rsi        # 13f86 <g_1697+0xe6a>
   12168:	48 89 cf             	mov    %rcx,%rdi
   1216b:	e8 83 55 ff ff       	callq  76f3 <transparent_crc>
   12170:	48 8b 05 11 59 00 00 	mov    0x5911(%rip),%rax        # 17a88 <g_1518+0x8>
   12177:	48 c1 e0 19          	shl    $0x19,%rax
   1217b:	48 c1 f8 37          	sar    $0x37,%rax
   1217f:	48 0f bf c0          	movswq %ax,%rax
   12183:	8b 55 fc             	mov    -0x4(%rbp),%edx
   12186:	48 8d 35 03 1e 00 00 	lea    0x1e03(%rip),%rsi        # 13f90 <g_1697+0xe74>
   1218d:	48 89 c7             	mov    %rax,%rdi
   12190:	e8 5e 55 ff ff       	callq  76f3 <transparent_crc>
   12195:	48 8b 05 ec 58 00 00 	mov    0x58ec(%rip),%rax        # 17a88 <g_1518+0x8>
   1219c:	48 c1 e8 27          	shr    $0x27,%rax
   121a0:	48 89 c2             	mov    %rax,%rdx
   121a3:	48 8b 05 e6 58 00 00 	mov    0x58e6(%rip),%rax        # 17a90 <g_1518+0x10>
   121aa:	83 e0 3f             	and    $0x3f,%eax
   121ad:	48 c1 e0 19          	shl    $0x19,%rax
   121b1:	48 09 d0             	or     %rdx,%rax
   121b4:	89 c1                	mov    %eax,%ecx
   121b6:	8b 45 fc             	mov    -0x4(%rbp),%eax
   121b9:	89 c2                	mov    %eax,%edx
   121bb:	48 8d 35 d8 1d 00 00 	lea    0x1dd8(%rip),%rsi        # 13f9a <g_1697+0xe7e>
   121c2:	48 89 cf             	mov    %rcx,%rdi
   121c5:	e8 29 55 ff ff       	callq  76f3 <transparent_crc>
   121ca:	48 8b 05 cf 58 00 00 	mov    0x58cf(%rip),%rax        # 17aa0 <g_1523>
   121d1:	83 e0 7f             	and    $0x7f,%eax
   121d4:	0f b6 c0             	movzbl %al,%eax
   121d7:	8b 55 fc             	mov    -0x4(%rbp),%edx
   121da:	48 8d 35 c3 1d 00 00 	lea    0x1dc3(%rip),%rsi        # 13fa4 <g_1697+0xe88>
   121e1:	48 89 c7             	mov    %rax,%rdi
   121e4:	e8 0a 55 ff ff       	callq  76f3 <transparent_crc>
   121e9:	0f b6 05 b4 58 00 00 	movzbl 0x58b4(%rip),%eax        # 17aa4 <g_1523+0x4>
   121f0:	0f b6 c0             	movzbl %al,%eax
   121f3:	8b 55 fc             	mov    -0x4(%rbp),%edx
   121f6:	48 8d 35 b1 1d 00 00 	lea    0x1db1(%rip),%rsi        # 13fae <g_1697+0xe92>
   121fd:	48 89 c7             	mov    %rax,%rdi
   12200:	e8 ee 54 ff ff       	callq  76f3 <transparent_crc>
   12205:	48 8b 05 94 58 00 00 	mov    0x5894(%rip),%rax        # 17aa0 <g_1523>
   1220c:	48 c1 e8 28          	shr    $0x28,%rax
   12210:	48 89 c2             	mov    %rax,%rdx
   12213:	48 8b 05 8e 58 00 00 	mov    0x588e(%rip),%rax        # 17aa8 <g_1523+0x8>
   1221a:	83 e0 1f             	and    $0x1f,%eax
   1221d:	48 c1 e0 18          	shl    $0x18,%rax
   12221:	48 09 d0             	or     %rdx,%rax
   12224:	48 c1 e0 23          	shl    $0x23,%rax
   12228:	48 c1 f8 23          	sar    $0x23,%rax
   1222c:	48 98                	cltq   
   1222e:	8b 55 fc             	mov    -0x4(%rbp),%edx
   12231:	48 8d 35 83 1d 00 00 	lea    0x1d83(%rip),%rsi        # 13fbb <g_1697+0xe9f>
   12238:	48 89 c7             	mov    %rax,%rdi
   1223b:	e8 b3 54 ff ff       	callq  76f3 <transparent_crc>
   12240:	48 8b 05 61 58 00 00 	mov    0x5861(%rip),%rax        # 17aa8 <g_1523+0x8>
   12247:	48 c1 e8 05          	shr    $0x5,%rax
   1224b:	66 25 ff 07          	and    $0x7ff,%ax
   1224f:	0f b7 c0             	movzwl %ax,%eax
   12252:	8b 55 fc             	mov    -0x4(%rbp),%edx
   12255:	48 8d 35 6c 1d 00 00 	lea    0x1d6c(%rip),%rsi        # 13fc8 <g_1697+0xeac>
   1225c:	48 89 c7             	mov    %rax,%rdi
   1225f:	e8 8f 54 ff ff       	callq  76f3 <transparent_crc>
   12264:	48 8b 05 3d 58 00 00 	mov    0x583d(%rip),%rax        # 17aa8 <g_1523+0x8>
   1226b:	48 c1 e8 20          	shr    $0x20,%rax
   1226f:	25 ff ff ff 1f       	and    $0x1fffffff,%eax
   12274:	89 c1                	mov    %eax,%ecx
   12276:	8b 45 fc             	mov    -0x4(%rbp),%eax
   12279:	89 c2                	mov    %eax,%edx
   1227b:	48 8d 35 53 1d 00 00 	lea    0x1d53(%rip),%rsi        # 13fd5 <g_1697+0xeb9>
   12282:	48 89 cf             	mov    %rcx,%rdi
   12285:	e8 69 54 ff ff       	callq  76f3 <transparent_crc>
   1228a:	0f b6 05 1f 58 00 00 	movzbl 0x581f(%rip),%eax        # 17ab0 <g_1532>
   12291:	0f b6 c0             	movzbl %al,%eax
   12294:	8b 55 fc             	mov    -0x4(%rbp),%edx
   12297:	48 8d 35 41 1d 00 00 	lea    0x1d41(%rip),%rsi        # 13fdf <g_1697+0xec3>
   1229e:	48 89 c7             	mov    %rax,%rdi
   122a1:	e8 4d 54 ff ff       	callq  76f3 <transparent_crc>
   122a6:	0f b6 05 04 58 00 00 	movzbl 0x5804(%rip),%eax        # 17ab1 <g_1532+0x1>
   122ad:	0f b6 c0             	movzbl %al,%eax
   122b0:	0f b6 15 fb 57 00 00 	movzbl 0x57fb(%rip),%edx        # 17ab2 <g_1532+0x2>
   122b7:	0f b6 d2             	movzbl %dl,%edx
   122ba:	48 c1 e2 08          	shl    $0x8,%rdx
   122be:	48 09 c2             	or     %rax,%rdx
   122c1:	0f b6 05 eb 57 00 00 	movzbl 0x57eb(%rip),%eax        # 17ab3 <g_1532+0x3>
   122c8:	0f b6 c0             	movzbl %al,%eax
   122cb:	48 c1 e0 10          	shl    $0x10,%rax
   122cf:	48 09 c2             	or     %rax,%rdx
   122d2:	0f b6 05 db 57 00 00 	movzbl 0x57db(%rip),%eax        # 17ab4 <g_1532+0x4>
   122d9:	0f b6 c0             	movzbl %al,%eax
   122dc:	83 e0 1f             	and    $0x1f,%eax
   122df:	48 c1 e0 18          	shl    $0x18,%rax
   122e3:	48 09 d0             	or     %rdx,%rax
   122e6:	48 c1 e0 23          	shl    $0x23,%rax
   122ea:	48 c1 f8 23          	sar    $0x23,%rax
   122ee:	48 98                	cltq   
   122f0:	8b 55 fc             	mov    -0x4(%rbp),%edx
   122f3:	48 8d 35 ef 1c 00 00 	lea    0x1cef(%rip),%rsi        # 13fe9 <g_1697+0xecd>
   122fa:	48 89 c7             	mov    %rax,%rdi
   122fd:	e8 f1 53 ff ff       	callq  76f3 <transparent_crc>
   12302:	0f b6 05 ab 57 00 00 	movzbl 0x57ab(%rip),%eax        # 17ab4 <g_1532+0x4>
   12309:	c0 e8 05             	shr    $0x5,%al
   1230c:	0f b6 c0             	movzbl %al,%eax
   1230f:	0f b6 15 9f 57 00 00 	movzbl 0x579f(%rip),%edx        # 17ab5 <g_1532+0x5>
   12316:	0f b6 d2             	movzbl %dl,%edx
   12319:	48 c1 e2 03          	shl    $0x3,%rdx
   1231d:	48 09 d0             	or     %rdx,%rax
   12320:	0f b7 c0             	movzwl %ax,%eax
   12323:	8b 55 fc             	mov    -0x4(%rbp),%edx
   12326:	48 8d 35 c6 1c 00 00 	lea    0x1cc6(%rip),%rsi        # 13ff3 <g_1697+0xed7>
   1232d:	48 89 c7             	mov    %rax,%rdi
   12330:	e8 be 53 ff ff       	callq  76f3 <transparent_crc>
   12335:	0f b6 05 7a 57 00 00 	movzbl 0x577a(%rip),%eax        # 17ab6 <g_1550>
   1233c:	0f b6 c0             	movzbl %al,%eax
   1233f:	8b 55 fc             	mov    -0x4(%rbp),%edx
   12342:	48 8d 35 b4 1c 00 00 	lea    0x1cb4(%rip),%rsi        # 13ffd <g_1697+0xee1>
   12349:	48 89 c7             	mov    %rax,%rdi
   1234c:	e8 a2 53 ff ff       	callq  76f3 <transparent_crc>
   12351:	0f b6 05 5f 57 00 00 	movzbl 0x575f(%rip),%eax        # 17ab7 <g_1550+0x1>
   12358:	0f b6 c0             	movzbl %al,%eax
   1235b:	0f b6 15 56 57 00 00 	movzbl 0x5756(%rip),%edx        # 17ab8 <g_1550+0x2>
   12362:	0f b6 d2             	movzbl %dl,%edx
   12365:	48 c1 e2 08          	shl    $0x8,%rdx
   12369:	48 09 c2             	or     %rax,%rdx
   1236c:	0f b6 05 46 57 00 00 	movzbl 0x5746(%rip),%eax        # 17ab9 <g_1550+0x3>
   12373:	0f b6 c0             	movzbl %al,%eax
   12376:	48 c1 e0 10          	shl    $0x10,%rax
   1237a:	48 09 c2             	or     %rax,%rdx
   1237d:	0f b6 05 36 57 00 00 	movzbl 0x5736(%rip),%eax        # 17aba <g_1550+0x4>
   12384:	0f b6 c0             	movzbl %al,%eax
   12387:	83 e0 1f             	and    $0x1f,%eax
   1238a:	48 c1 e0 18          	shl    $0x18,%rax
   1238e:	48 09 d0             	or     %rdx,%rax
   12391:	48 c1 e0 23          	shl    $0x23,%rax
   12395:	48 c1 f8 23          	sar    $0x23,%rax
   12399:	48 98                	cltq   
   1239b:	8b 55 fc             	mov    -0x4(%rbp),%edx
   1239e:	48 8d 35 62 1c 00 00 	lea    0x1c62(%rip),%rsi        # 14007 <g_1697+0xeeb>
   123a5:	48 89 c7             	mov    %rax,%rdi
   123a8:	e8 46 53 ff ff       	callq  76f3 <transparent_crc>
   123ad:	0f b6 05 06 57 00 00 	movzbl 0x5706(%rip),%eax        # 17aba <g_1550+0x4>
   123b4:	c0 e8 05             	shr    $0x5,%al
   123b7:	0f b6 c0             	movzbl %al,%eax
   123ba:	0f b6 15 fa 56 00 00 	movzbl 0x56fa(%rip),%edx        # 17abb <g_1550+0x5>
   123c1:	0f b6 d2             	movzbl %dl,%edx
   123c4:	48 c1 e2 03          	shl    $0x3,%rdx
   123c8:	48 09 d0             	or     %rdx,%rax
   123cb:	0f b7 c0             	movzwl %ax,%eax
   123ce:	8b 55 fc             	mov    -0x4(%rbp),%edx
   123d1:	48 8d 35 39 1c 00 00 	lea    0x1c39(%rip),%rsi        # 14011 <g_1697+0xef5>
   123d8:	48 89 c7             	mov    %rax,%rdi
   123db:	e8 13 53 ff ff       	callq  76f3 <transparent_crc>
   123e0:	48 8b 05 d9 56 00 00 	mov    0x56d9(%rip),%rax        # 17ac0 <g_1597>
   123e7:	25 ff ff ff 00       	and    $0xffffff,%eax
   123ec:	89 c1                	mov    %eax,%ecx
   123ee:	8b 45 fc             	mov    -0x4(%rbp),%eax
   123f1:	89 c2                	mov    %eax,%edx
   123f3:	48 8d 35 21 1c 00 00 	lea    0x1c21(%rip),%rsi        # 1401b <g_1697+0xeff>
   123fa:	48 89 cf             	mov    %rcx,%rdi
   123fd:	e8 f1 52 ff ff       	callq  76f3 <transparent_crc>
   12402:	48 8b 05 b7 56 00 00 	mov    0x56b7(%rip),%rax        # 17ac0 <g_1597>
   12409:	48 c1 e0 1f          	shl    $0x1f,%rax
   1240d:	48 c1 f8 37          	sar    $0x37,%rax
   12411:	48 0f bf c0          	movswq %ax,%rax
   12415:	8b 55 fc             	mov    -0x4(%rbp),%edx
   12418:	48 8d 35 06 1c 00 00 	lea    0x1c06(%rip),%rsi        # 14025 <g_1697+0xf09>
   1241f:	48 89 c7             	mov    %rax,%rdi
   12422:	e8 cc 52 ff ff       	callq  76f3 <transparent_crc>
   12427:	48 8b 05 92 56 00 00 	mov    0x5692(%rip),%rax        # 17ac0 <g_1597>
   1242e:	48 c1 e0 0c          	shl    $0xc,%rax
   12432:	48 c1 f8 2d          	sar    $0x2d,%rax
   12436:	48 98                	cltq   
   12438:	8b 55 fc             	mov    -0x4(%rbp),%edx
   1243b:	48 8d 35 ed 1b 00 00 	lea    0x1bed(%rip),%rsi        # 1402f <g_1697+0xf13>
   12442:	48 89 c7             	mov    %rax,%rdi
   12445:	e8 a9 52 ff ff       	callq  76f3 <transparent_crc>
   1244a:	48 8b 05 6f 56 00 00 	mov    0x566f(%rip),%rax        # 17ac0 <g_1597>
   12451:	48 c1 e8 34          	shr    $0x34,%rax
   12455:	48 89 c2             	mov    %rax,%rdx
   12458:	48 8b 05 69 56 00 00 	mov    0x5669(%rip),%rax        # 17ac8 <g_1597+0x8>
   1245f:	25 ff ff 07 00       	and    $0x7ffff,%eax
   12464:	48 c1 e0 0c          	shl    $0xc,%rax
   12468:	48 09 d0             	or     %rdx,%rax
   1246b:	89 c1                	mov    %eax,%ecx
   1246d:	8b 45 fc             	mov    -0x4(%rbp),%eax
   12470:	89 c2                	mov    %eax,%edx
   12472:	48 8d 35 c0 1b 00 00 	lea    0x1bc0(%rip),%rsi        # 14039 <g_1697+0xf1d>
   12479:	48 89 cf             	mov    %rcx,%rdi
   1247c:	e8 72 52 ff ff       	callq  76f3 <transparent_crc>
   12481:	48 8b 05 40 56 00 00 	mov    0x5640(%rip),%rax        # 17ac8 <g_1597+0x8>
   12488:	48 c1 e8 13          	shr    $0x13,%rax
   1248c:	25 ff ff ff 3f       	and    $0x3fffffff,%eax
   12491:	89 c1                	mov    %eax,%ecx
   12493:	8b 45 fc             	mov    -0x4(%rbp),%eax
   12496:	89 c2                	mov    %eax,%edx
   12498:	48 8d 35 a4 1b 00 00 	lea    0x1ba4(%rip),%rsi        # 14043 <g_1697+0xf27>
   1249f:	48 89 cf             	mov    %rcx,%rdi
   124a2:	e8 4c 52 ff ff       	callq  76f3 <transparent_crc>
   124a7:	48 8b 05 1a 56 00 00 	mov    0x561a(%rip),%rax        # 17ac8 <g_1597+0x8>
   124ae:	48 c1 e8 31          	shr    $0x31,%rax
   124b2:	48 89 c2             	mov    %rax,%rdx
   124b5:	48 8b 05 14 56 00 00 	mov    0x5614(%rip),%rax        # 17ad0 <g_1597+0x10>
   124bc:	25 ff 0f 00 00       	and    $0xfff,%eax
   124c1:	48 c1 e0 0f          	shl    $0xf,%rax
   124c5:	48 09 d0             	or     %rdx,%rax
   124c8:	48 c1 e0 25          	shl    $0x25,%rax
   124cc:	48 c1 f8 25          	sar    $0x25,%rax
   124d0:	48 98                	cltq   
   124d2:	8b 55 fc             	mov    -0x4(%rbp),%edx
   124d5:	48 8d 35 71 1b 00 00 	lea    0x1b71(%rip),%rsi        # 1404d <g_1697+0xf31>
   124dc:	48 89 c7             	mov    %rax,%rdi
   124df:	e8 0f 52 ff ff       	callq  76f3 <transparent_crc>
   124e4:	48 8b 05 e5 55 00 00 	mov    0x55e5(%rip),%rax        # 17ad0 <g_1597+0x10>
   124eb:	c1 e0 03             	shl    $0x3,%eax
   124ee:	66 c1 f8 0f          	sar    $0xf,%ax
   124f2:	48 0f be c0          	movsbq %al,%rax
   124f6:	8b 55 fc             	mov    -0x4(%rbp),%edx
   124f9:	48 8d 35 57 1b 00 00 	lea    0x1b57(%rip),%rsi        # 14057 <g_1697+0xf3b>
   12500:	48 89 c7             	mov    %rax,%rdi
   12503:	e8 eb 51 ff ff       	callq  76f3 <transparent_crc>
   12508:	48 8b 05 c1 55 00 00 	mov    0x55c1(%rip),%rax        # 17ad0 <g_1597+0x10>
   1250f:	48 c1 e8 0d          	shr    $0xd,%rax
   12513:	25 ff ff ff 7f       	and    $0x7fffffff,%eax
   12518:	89 c1                	mov    %eax,%ecx
   1251a:	8b 45 fc             	mov    -0x4(%rbp),%eax
   1251d:	89 c2                	mov    %eax,%edx
   1251f:	48 8d 35 3b 1b 00 00 	lea    0x1b3b(%rip),%rsi        # 14061 <g_1697+0xf45>
   12526:	48 89 cf             	mov    %rcx,%rdi
   12529:	e8 c5 51 ff ff       	callq  76f3 <transparent_crc>
   1252e:	48 8b 05 9b 55 00 00 	mov    0x559b(%rip),%rax        # 17ad0 <g_1597+0x10>
   12535:	48 c1 e0 0d          	shl    $0xd,%rax
   12539:	48 c1 f8 39          	sar    $0x39,%rax
   1253d:	48 0f be c0          	movsbq %al,%rax
   12541:	8b 55 fc             	mov    -0x4(%rbp),%edx
   12544:	48 8d 35 20 1b 00 00 	lea    0x1b20(%rip),%rsi        # 1406b <g_1697+0xf4f>
   1254b:	48 89 c7             	mov    %rax,%rdi
   1254e:	e8 a0 51 ff ff       	callq  76f3 <transparent_crc>
   12553:	48 8b 05 76 55 00 00 	mov    0x5576(%rip),%rax        # 17ad0 <g_1597+0x10>
   1255a:	48 c1 e8 33          	shr    $0x33,%rax
   1255e:	48 89 c2             	mov    %rax,%rdx
   12561:	48 8b 05 70 55 00 00 	mov    0x5570(%rip),%rax        # 17ad8 <g_1597+0x18>
   12568:	25 ff 07 00 00       	and    $0x7ff,%eax
   1256d:	48 c1 e0 0d          	shl    $0xd,%rax
   12571:	48 09 d0             	or     %rdx,%rax
   12574:	48 c1 e0 28          	shl    $0x28,%rax
   12578:	48 c1 f8 28          	sar    $0x28,%rax
   1257c:	48 98                	cltq   
   1257e:	8b 55 fc             	mov    -0x4(%rbp),%edx
   12581:	48 8d 35 ed 1a 00 00 	lea    0x1aed(%rip),%rsi        # 14075 <g_1697+0xf59>
   12588:	48 89 c7             	mov    %rax,%rdi
   1258b:	e8 63 51 ff ff       	callq  76f3 <transparent_crc>
   12590:	c7 45 f0 00 00 00 00 	movl   $0x0,-0x10(%rbp)
   12597:	e9 f3 00 00 00       	jmpq   1268f <main+0x2ab1>
   1259c:	8b 45 f0             	mov    -0x10(%rbp),%eax
   1259f:	48 63 d0             	movslq %eax,%rdx
   125a2:	48 89 d0             	mov    %rdx,%rax
   125a5:	48 01 c0             	add    %rax,%rax
   125a8:	48 01 d0             	add    %rdx,%rax
   125ab:	48 01 c0             	add    %rax,%rax
   125ae:	48 89 c2             	mov    %rax,%rdx
   125b1:	48 8d 05 28 55 00 00 	lea    0x5528(%rip),%rax        # 17ae0 <g_1613>
   125b8:	0f b6 04 02          	movzbl (%rdx,%rax,1),%eax
   125bc:	0f b6 c0             	movzbl %al,%eax
   125bf:	8b 55 fc             	mov    -0x4(%rbp),%edx
   125c2:	48 8d 35 b6 1a 00 00 	lea    0x1ab6(%rip),%rsi        # 1407f <g_1697+0xf63>
   125c9:	48 89 c7             	mov    %rax,%rdi
   125cc:	e8 22 51 ff ff       	callq  76f3 <transparent_crc>
   125d1:	8b 45 f0             	mov    -0x10(%rbp),%eax
   125d4:	48 63 d0             	movslq %eax,%rdx
   125d7:	48 89 d0             	mov    %rdx,%rax
   125da:	48 01 c0             	add    %rax,%rax
   125dd:	48 01 d0             	add    %rdx,%rax
   125e0:	48 01 c0             	add    %rax,%rax
   125e3:	48 89 c2             	mov    %rax,%rdx
   125e6:	48 8d 05 f3 54 00 00 	lea    0x54f3(%rip),%rax        # 17ae0 <g_1613>
   125ed:	0f b7 0c 02          	movzwl (%rdx,%rax,1),%ecx
   125f1:	66 c1 e9 08          	shr    $0x8,%cx
   125f5:	0f b7 c9             	movzwl %cx,%ecx
   125f8:	0f b7 74 02 02       	movzwl 0x2(%rdx,%rax,1),%esi
   125fd:	0f b7 f6             	movzwl %si,%esi
   12600:	48 c1 e6 08          	shl    $0x8,%rsi
   12604:	48 09 f1             	or     %rsi,%rcx
   12607:	0f b7 44 02 04       	movzwl 0x4(%rdx,%rax,1),%eax
   1260c:	0f b7 c0             	movzwl %ax,%eax
   1260f:	83 e0 1f             	and    $0x1f,%eax
   12612:	48 c1 e0 18          	shl    $0x18,%rax
   12616:	48 09 c8             	or     %rcx,%rax
   12619:	48 c1 e0 23          	shl    $0x23,%rax
   1261d:	48 c1 f8 23          	sar    $0x23,%rax
   12621:	48 98                	cltq   
   12623:	8b 55 fc             	mov    -0x4(%rbp),%edx
   12626:	48 8d 35 5f 1a 00 00 	lea    0x1a5f(%rip),%rsi        # 1408c <g_1697+0xf70>
   1262d:	48 89 c7             	mov    %rax,%rdi
   12630:	e8 be 50 ff ff       	callq  76f3 <transparent_crc>
   12635:	8b 45 f0             	mov    -0x10(%rbp),%eax
   12638:	48 63 d0             	movslq %eax,%rdx
   1263b:	48 89 d0             	mov    %rdx,%rax
   1263e:	48 01 c0             	add    %rax,%rax
   12641:	48 01 d0             	add    %rdx,%rax
   12644:	48 01 c0             	add    %rax,%rax
   12647:	48 89 c2             	mov    %rax,%rdx
   1264a:	48 8d 05 8f 54 00 00 	lea    0x548f(%rip),%rax        # 17ae0 <g_1613>
   12651:	0f b7 44 02 04       	movzwl 0x4(%rdx,%rax,1),%eax
   12656:	66 c1 e8 05          	shr    $0x5,%ax
   1265a:	0f b7 c0             	movzwl %ax,%eax
   1265d:	8b 55 fc             	mov    -0x4(%rbp),%edx
   12660:	48 8d 35 32 1a 00 00 	lea    0x1a32(%rip),%rsi        # 14099 <g_1697+0xf7d>
   12667:	48 89 c7             	mov    %rax,%rdi
   1266a:	e8 84 50 ff ff       	callq  76f3 <transparent_crc>
   1266f:	83 7d fc 00          	cmpl   $0x0,-0x4(%rbp)
   12673:	74 16                	je     1268b <main+0x2aad>
   12675:	8b 45 f0             	mov    -0x10(%rbp),%eax
   12678:	89 c6                	mov    %eax,%esi
   1267a:	48 8d 3d e9 11 00 00 	lea    0x11e9(%rip),%rdi        # 1386a <g_1697+0x74e>
   12681:	b8 00 00 00 00       	mov    $0x0,%eax
   12686:	e8 f5 39 ff ff       	callq  6080 <printf@plt>
   1268b:	83 45 f0 01          	addl   $0x1,-0x10(%rbp)
   1268f:	83 7d f0 09          	cmpl   $0x9,-0x10(%rbp)
   12693:	0f 8e 03 ff ff ff    	jle    1259c <main+0x29be>
   12699:	c7 45 f0 00 00 00 00 	movl   $0x0,-0x10(%rbp)
   126a0:	e9 1f 04 00 00       	jmpq   12ac4 <main+0x2ee6>
   126a5:	c7 45 f4 00 00 00 00 	movl   $0x0,-0xc(%rbp)
   126ac:	e9 05 04 00 00       	jmpq   12ab6 <main+0x2ed8>
   126b1:	c7 45 f8 00 00 00 00 	movl   $0x0,-0x8(%rbp)
   126b8:	e9 eb 03 00 00       	jmpq   12aa8 <main+0x2eca>
   126bd:	8b 45 f8             	mov    -0x8(%rbp),%eax
   126c0:	48 98                	cltq   
   126c2:	8b 55 f4             	mov    -0xc(%rbp),%edx
   126c5:	48 63 ca             	movslq %edx,%rcx
   126c8:	8b 55 f0             	mov    -0x10(%rbp),%edx
   126cb:	48 63 f2             	movslq %edx,%rsi
   126ce:	48 89 c2             	mov    %rax,%rdx
   126d1:	48 c1 e2 03          	shl    $0x3,%rdx
   126d5:	48 01 c2             	add    %rax,%rdx
   126d8:	48 8d 04 12          	lea    (%rdx,%rdx,1),%rax
   126dc:	48 89 c2             	mov    %rax,%rdx
   126df:	48 89 c8             	mov    %rcx,%rax
   126e2:	48 c1 e0 03          	shl    $0x3,%rax
   126e6:	48 01 c8             	add    %rcx,%rax
   126e9:	48 8d 0c c5 00 00 00 	lea    0x0(,%rax,8),%rcx
   126f0:	00 
   126f1:	48 01 c8             	add    %rcx,%rax
   126f4:	48 01 c0             	add    %rax,%rax
   126f7:	48 01 c2             	add    %rax,%rdx
   126fa:	48 69 c6 cc 03 00 00 	imul   $0x3cc,%rsi,%rax
   12701:	48 01 c2             	add    %rax,%rdx
   12704:	48 8d 05 15 54 00 00 	lea    0x5415(%rip),%rax        # 17b20 <g_1645>
   1270b:	48 01 d0             	add    %rdx,%rax
   1270e:	0f b7 10             	movzwl (%rax),%edx
   12711:	0f b7 d2             	movzwl %dx,%edx
   12714:	0f b7 40 02          	movzwl 0x2(%rax),%eax
   12718:	0f b7 c0             	movzwl %ax,%eax
   1271b:	25 ff 0f 00 00       	and    $0xfff,%eax
   12720:	48 c1 e0 10          	shl    $0x10,%rax
   12724:	48 09 d0             	or     %rdx,%rax
   12727:	48 c1 e0 24          	shl    $0x24,%rax
   1272b:	48 c1 f8 24          	sar    $0x24,%rax
   1272f:	48 98                	cltq   
   12731:	8b 55 fc             	mov    -0x4(%rbp),%edx
   12734:	48 8d 35 6b 19 00 00 	lea    0x196b(%rip),%rsi        # 140a6 <g_1697+0xf8a>
   1273b:	48 89 c7             	mov    %rax,%rdi
   1273e:	e8 b0 4f ff ff       	callq  76f3 <transparent_crc>
   12743:	8b 45 f8             	mov    -0x8(%rbp),%eax
   12746:	48 98                	cltq   
   12748:	8b 55 f4             	mov    -0xc(%rbp),%edx
   1274b:	48 63 ca             	movslq %edx,%rcx
   1274e:	8b 55 f0             	mov    -0x10(%rbp),%edx
   12751:	48 63 f2             	movslq %edx,%rsi
   12754:	48 89 c2             	mov    %rax,%rdx
   12757:	48 c1 e2 03          	shl    $0x3,%rdx
   1275b:	48 01 c2             	add    %rax,%rdx
   1275e:	48 8d 04 12          	lea    (%rdx,%rdx,1),%rax
   12762:	48 89 c2             	mov    %rax,%rdx
   12765:	48 89 c8             	mov    %rcx,%rax
   12768:	48 c1 e0 03          	shl    $0x3,%rax
   1276c:	48 01 c8             	add    %rcx,%rax
   1276f:	48 8d 0c c5 00 00 00 	lea    0x0(,%rax,8),%rcx
   12776:	00 
   12777:	48 01 c8             	add    %rcx,%rax
   1277a:	48 01 c0             	add    %rax,%rax
   1277d:	48 01 c2             	add    %rax,%rdx
   12780:	48 69 c6 cc 03 00 00 	imul   $0x3cc,%rsi,%rax
   12787:	48 01 c2             	add    %rax,%rdx
   1278a:	48 8d 05 8f 53 00 00 	lea    0x538f(%rip),%rax        # 17b20 <g_1645>
   12791:	48 01 d0             	add    %rdx,%rax
   12794:	0f b7 50 02          	movzwl 0x2(%rax),%edx
   12798:	66 c1 ea 0c          	shr    $0xc,%dx
   1279c:	0f b7 d2             	movzwl %dx,%edx
   1279f:	0f b7 48 04          	movzwl 0x4(%rax),%ecx
   127a3:	0f b7 c9             	movzwl %cx,%ecx
   127a6:	48 c1 e1 04          	shl    $0x4,%rcx
   127aa:	48 09 ca             	or     %rcx,%rdx
   127ad:	0f b7 40 06          	movzwl 0x6(%rax),%eax
   127b1:	0f b7 c0             	movzwl %ax,%eax
   127b4:	83 e0 0f             	and    $0xf,%eax
   127b7:	48 c1 e0 14          	shl    $0x14,%rax
   127bb:	48 09 d0             	or     %rdx,%rax
   127be:	48 c1 e0 28          	shl    $0x28,%rax
   127c2:	48 c1 f8 28          	sar    $0x28,%rax
   127c6:	48 98                	cltq   
   127c8:	8b 55 fc             	mov    -0x4(%rbp),%edx
   127cb:	48 8d 35 e7 18 00 00 	lea    0x18e7(%rip),%rsi        # 140b9 <g_1697+0xf9d>
   127d2:	48 89 c7             	mov    %rax,%rdi
   127d5:	e8 19 4f ff ff       	callq  76f3 <transparent_crc>
   127da:	8b 45 f8             	mov    -0x8(%rbp),%eax
   127dd:	48 98                	cltq   
   127df:	8b 55 f4             	mov    -0xc(%rbp),%edx
   127e2:	48 63 ca             	movslq %edx,%rcx
   127e5:	8b 55 f0             	mov    -0x10(%rbp),%edx
   127e8:	48 63 f2             	movslq %edx,%rsi
   127eb:	48 89 c2             	mov    %rax,%rdx
   127ee:	48 c1 e2 03          	shl    $0x3,%rdx
   127f2:	48 01 c2             	add    %rax,%rdx
   127f5:	48 8d 04 12          	lea    (%rdx,%rdx,1),%rax
   127f9:	48 89 c2             	mov    %rax,%rdx
   127fc:	48 89 c8             	mov    %rcx,%rax
   127ff:	48 c1 e0 03          	shl    $0x3,%rax
   12803:	48 01 c8             	add    %rcx,%rax
   12806:	48 8d 0c c5 00 00 00 	lea    0x0(,%rax,8),%rcx
   1280d:	00 
   1280e:	48 01 c8             	add    %rcx,%rax
   12811:	48 01 c0             	add    %rax,%rax
   12814:	48 01 c2             	add    %rax,%rdx
   12817:	48 69 c6 cc 03 00 00 	imul   $0x3cc,%rsi,%rax
   1281e:	48 01 c2             	add    %rax,%rdx
   12821:	48 8d 05 f8 52 00 00 	lea    0x52f8(%rip),%rax        # 17b20 <g_1645>
   12828:	48 01 d0             	add    %rdx,%rax
   1282b:	0f b7 50 06          	movzwl 0x6(%rax),%edx
   1282f:	66 c1 ea 04          	shr    $0x4,%dx
   12833:	0f b7 d2             	movzwl %dx,%edx
   12836:	0f b7 40 08          	movzwl 0x8(%rax),%eax
   1283a:	0f b7 c0             	movzwl %ax,%eax
   1283d:	25 ff 1f 00 00       	and    $0x1fff,%eax
   12842:	48 c1 e0 0c          	shl    $0xc,%rax
   12846:	48 09 d0             	or     %rdx,%rax
   12849:	48 c1 e0 27          	shl    $0x27,%rax
   1284d:	48 c1 f8 27          	sar    $0x27,%rax
   12851:	48 98                	cltq   
   12853:	8b 55 fc             	mov    -0x4(%rbp),%edx
   12856:	48 8d 35 6f 18 00 00 	lea    0x186f(%rip),%rsi        # 140cc <g_1697+0xfb0>
   1285d:	48 89 c7             	mov    %rax,%rdi
   12860:	e8 8e 4e ff ff       	callq  76f3 <transparent_crc>
   12865:	8b 45 f8             	mov    -0x8(%rbp),%eax
   12868:	48 98                	cltq   
   1286a:	8b 55 f4             	mov    -0xc(%rbp),%edx
   1286d:	48 63 ca             	movslq %edx,%rcx
   12870:	8b 55 f0             	mov    -0x10(%rbp),%edx
   12873:	48 63 f2             	movslq %edx,%rsi
   12876:	48 89 c2             	mov    %rax,%rdx
   12879:	48 c1 e2 03          	shl    $0x3,%rdx
   1287d:	48 01 c2             	add    %rax,%rdx
   12880:	48 8d 04 12          	lea    (%rdx,%rdx,1),%rax
   12884:	48 89 c2             	mov    %rax,%rdx
   12887:	48 89 c8             	mov    %rcx,%rax
   1288a:	48 c1 e0 03          	shl    $0x3,%rax
   1288e:	48 01 c8             	add    %rcx,%rax
   12891:	48 8d 0c c5 00 00 00 	lea    0x0(,%rax,8),%rcx
   12898:	00 
   12899:	48 01 c8             	add    %rcx,%rax
   1289c:	48 01 c0             	add    %rax,%rax
   1289f:	48 01 c2             	add    %rax,%rdx
   128a2:	48 69 c6 cc 03 00 00 	imul   $0x3cc,%rsi,%rax
   128a9:	48 01 c2             	add    %rax,%rdx
   128ac:	48 8d 05 6d 52 00 00 	lea    0x526d(%rip),%rax        # 17b20 <g_1645>
   128b3:	48 01 d0             	add    %rdx,%rax
   128b6:	0f b7 50 08          	movzwl 0x8(%rax),%edx
   128ba:	66 c1 ea 0d          	shr    $0xd,%dx
   128be:	0f b7 d2             	movzwl %dx,%edx
   128c1:	0f b7 40 0a          	movzwl 0xa(%rax),%eax
   128c5:	0f b7 c0             	movzwl %ax,%eax
   128c8:	25 ff 07 00 00       	and    $0x7ff,%eax
   128cd:	48 c1 e0 03          	shl    $0x3,%rax
   128d1:	48 09 d0             	or     %rdx,%rax
   128d4:	0f b7 c0             	movzwl %ax,%eax
   128d7:	8b 55 fc             	mov    -0x4(%rbp),%edx
   128da:	48 8d 35 fe 17 00 00 	lea    0x17fe(%rip),%rsi        # 140df <g_1697+0xfc3>
   128e1:	48 89 c7             	mov    %rax,%rdi
   128e4:	e8 0a 4e ff ff       	callq  76f3 <transparent_crc>
   128e9:	8b 45 f8             	mov    -0x8(%rbp),%eax
   128ec:	48 98                	cltq   
   128ee:	8b 55 f4             	mov    -0xc(%rbp),%edx
   128f1:	48 63 ca             	movslq %edx,%rcx
   128f4:	8b 55 f0             	mov    -0x10(%rbp),%edx
   128f7:	48 63 f2             	movslq %edx,%rsi
   128fa:	48 89 c2             	mov    %rax,%rdx
   128fd:	48 c1 e2 03          	shl    $0x3,%rdx
   12901:	48 01 c2             	add    %rax,%rdx
   12904:	48 8d 04 12          	lea    (%rdx,%rdx,1),%rax
   12908:	48 89 c2             	mov    %rax,%rdx
   1290b:	48 89 c8             	mov    %rcx,%rax
   1290e:	48 c1 e0 03          	shl    $0x3,%rax
   12912:	48 01 c8             	add    %rcx,%rax
   12915:	48 8d 0c c5 00 00 00 	lea    0x0(,%rax,8),%rcx
   1291c:	00 
   1291d:	48 01 c8             	add    %rcx,%rax
   12920:	48 01 c0             	add    %rax,%rax
   12923:	48 01 c2             	add    %rax,%rdx
   12926:	48 69 c6 cc 03 00 00 	imul   $0x3cc,%rsi,%rax
   1292d:	48 01 c2             	add    %rax,%rdx
   12930:	48 8d 05 e9 51 00 00 	lea    0x51e9(%rip),%rax        # 17b20 <g_1645>
   12937:	48 01 d0             	add    %rdx,%rax
   1293a:	0f b7 50 0a          	movzwl 0xa(%rax),%edx
   1293e:	66 c1 ea 0b          	shr    $0xb,%dx
   12942:	0f b7 d2             	movzwl %dx,%edx
   12945:	0f b7 40 0c          	movzwl 0xc(%rax),%eax
   12949:	0f b7 c0             	movzwl %ax,%eax
   1294c:	83 e0 03             	and    $0x3,%eax
   1294f:	48 c1 e0 05          	shl    $0x5,%rax
   12953:	48 09 d0             	or     %rdx,%rax
   12956:	48 c1 e0 39          	shl    $0x39,%rax
   1295a:	48 c1 f8 39          	sar    $0x39,%rax
   1295e:	48 0f be c0          	movsbq %al,%rax
   12962:	8b 55 fc             	mov    -0x4(%rbp),%edx
   12965:	48 8d 35 86 17 00 00 	lea    0x1786(%rip),%rsi        # 140f2 <g_1697+0xfd6>
   1296c:	48 89 c7             	mov    %rax,%rdi
   1296f:	e8 7f 4d ff ff       	callq  76f3 <transparent_crc>
   12974:	8b 45 f8             	mov    -0x8(%rbp),%eax
   12977:	48 98                	cltq   
   12979:	8b 55 f4             	mov    -0xc(%rbp),%edx
   1297c:	48 63 ca             	movslq %edx,%rcx
   1297f:	8b 55 f0             	mov    -0x10(%rbp),%edx
   12982:	48 63 f2             	movslq %edx,%rsi
   12985:	48 89 c2             	mov    %rax,%rdx
   12988:	48 c1 e2 03          	shl    $0x3,%rdx
   1298c:	48 01 c2             	add    %rax,%rdx
   1298f:	48 8d 04 12          	lea    (%rdx,%rdx,1),%rax
   12993:	48 89 c2             	mov    %rax,%rdx
   12996:	48 89 c8             	mov    %rcx,%rax
   12999:	48 c1 e0 03          	shl    $0x3,%rax
   1299d:	48 01 c8             	add    %rcx,%rax
   129a0:	48 8d 0c c5 00 00 00 	lea    0x0(,%rax,8),%rcx
   129a7:	00 
   129a8:	48 01 c8             	add    %rcx,%rax
   129ab:	48 01 c0             	add    %rax,%rax
   129ae:	48 01 c2             	add    %rax,%rdx
   129b1:	48 69 c6 cc 03 00 00 	imul   $0x3cc,%rsi,%rax
   129b8:	48 01 c2             	add    %rax,%rdx
   129bb:	48 8d 05 5e 51 00 00 	lea    0x515e(%rip),%rax        # 17b20 <g_1645>
   129c2:	48 01 d0             	add    %rdx,%rax
   129c5:	0f b7 50 0c          	movzwl 0xc(%rax),%edx
   129c9:	66 c1 ea 02          	shr    $0x2,%dx
   129cd:	0f b7 d2             	movzwl %dx,%edx
   129d0:	0f b7 40 0e          	movzwl 0xe(%rax),%eax
   129d4:	0f b7 c0             	movzwl %ax,%eax
   129d7:	83 e0 1f             	and    $0x1f,%eax
   129da:	48 c1 e0 0e          	shl    $0xe,%rax
   129de:	48 09 d0             	or     %rdx,%rax
   129e1:	89 c1                	mov    %eax,%ecx
   129e3:	8b 45 fc             	mov    -0x4(%rbp),%eax
   129e6:	89 c2                	mov    %eax,%edx
   129e8:	48 8d 35 16 17 00 00 	lea    0x1716(%rip),%rsi        # 14105 <g_1697+0xfe9>
   129ef:	48 89 cf             	mov    %rcx,%rdi
   129f2:	e8 fc 4c ff ff       	callq  76f3 <transparent_crc>
   129f7:	8b 45 f8             	mov    -0x8(%rbp),%eax
   129fa:	48 98                	cltq   
   129fc:	8b 55 f4             	mov    -0xc(%rbp),%edx
   129ff:	48 63 ca             	movslq %edx,%rcx
   12a02:	8b 55 f0             	mov    -0x10(%rbp),%edx
   12a05:	48 63 f2             	movslq %edx,%rsi
   12a08:	48 89 c2             	mov    %rax,%rdx
   12a0b:	48 c1 e2 03          	shl    $0x3,%rdx
   12a0f:	48 01 c2             	add    %rax,%rdx
   12a12:	48 8d 04 12          	lea    (%rdx,%rdx,1),%rax
   12a16:	48 89 c2             	mov    %rax,%rdx
   12a19:	48 89 c8             	mov    %rcx,%rax
   12a1c:	48 c1 e0 03          	shl    $0x3,%rax
   12a20:	48 01 c8             	add    %rcx,%rax
   12a23:	48 8d 0c c5 00 00 00 	lea    0x0(,%rax,8),%rcx
   12a2a:	00 
   12a2b:	48 01 c8             	add    %rcx,%rax
   12a2e:	48 01 c0             	add    %rax,%rax
   12a31:	48 01 c2             	add    %rax,%rdx
   12a34:	48 69 c6 cc 03 00 00 	imul   $0x3cc,%rsi,%rax
   12a3b:	48 01 c2             	add    %rax,%rdx
   12a3e:	48 8d 05 db 50 00 00 	lea    0x50db(%rip),%rax        # 17b20 <g_1645>
   12a45:	48 01 d0             	add    %rdx,%rax
   12a48:	0f b7 50 0e          	movzwl 0xe(%rax),%edx
   12a4c:	66 c1 ea 05          	shr    $0x5,%dx
   12a50:	0f b7 d2             	movzwl %dx,%edx
   12a53:	0f b7 40 10          	movzwl 0x10(%rax),%eax
   12a57:	0f b7 c0             	movzwl %ax,%eax
   12a5a:	25 ff 07 00 00       	and    $0x7ff,%eax
   12a5f:	48 c1 e0 0b          	shl    $0xb,%rax
   12a63:	48 09 d0             	or     %rdx,%rax
   12a66:	48 c1 e0 2a          	shl    $0x2a,%rax
   12a6a:	48 c1 f8 2a          	sar    $0x2a,%rax
   12a6e:	48 98                	cltq   
   12a70:	8b 55 fc             	mov    -0x4(%rbp),%edx
   12a73:	48 8d 35 9e 16 00 00 	lea    0x169e(%rip),%rsi        # 14118 <g_1697+0xffc>
   12a7a:	48 89 c7             	mov    %rax,%rdi
   12a7d:	e8 71 4c ff ff       	callq  76f3 <transparent_crc>
   12a82:	83 7d fc 00          	cmpl   $0x0,-0x4(%rbp)
   12a86:	74 1c                	je     12aa4 <main+0x2ec6>
   12a88:	8b 4d f8             	mov    -0x8(%rbp),%ecx
   12a8b:	8b 55 f4             	mov    -0xc(%rbp),%edx
   12a8e:	8b 45 f0             	mov    -0x10(%rbp),%eax
   12a91:	89 c6                	mov    %eax,%esi
   12a93:	48 8d 3d 91 16 00 00 	lea    0x1691(%rip),%rdi        # 1412b <g_1697+0x100f>
   12a9a:	b8 00 00 00 00       	mov    $0x0,%eax
   12a9f:	e8 dc 35 ff ff       	callq  6080 <printf@plt>
   12aa4:	83 45 f8 01          	addl   $0x1,-0x8(%rbp)
   12aa8:	83 7d f8 08          	cmpl   $0x8,-0x8(%rbp)
   12aac:	0f 8e 0b fc ff ff    	jle    126bd <main+0x2adf>
   12ab2:	83 45 f4 01          	addl   $0x1,-0xc(%rbp)
   12ab6:	83 7d f4 05          	cmpl   $0x5,-0xc(%rbp)
   12aba:	0f 8e f1 fb ff ff    	jle    126b1 <main+0x2ad3>
   12ac0:	83 45 f0 01          	addl   $0x1,-0x10(%rbp)
   12ac4:	83 7d f0 00          	cmpl   $0x0,-0x10(%rbp)
   12ac8:	0f 8e d7 fb ff ff    	jle    126a5 <main+0x2ac7>
   12ace:	8b 05 1c 54 00 00    	mov    0x541c(%rip),%eax        # 17ef0 <g_1657>
   12ad4:	25 ff ff 3f 00       	and    $0x3fffff,%eax
   12ad9:	89 c1                	mov    %eax,%ecx
   12adb:	8b 45 fc             	mov    -0x4(%rbp),%eax
   12ade:	89 c2                	mov    %eax,%edx
   12ae0:	48 8d 35 5a 16 00 00 	lea    0x165a(%rip),%rsi        # 14141 <g_1697+0x1025>
   12ae7:	48 89 cf             	mov    %rcx,%rdi
   12aea:	e8 04 4c ff ff       	callq  76f3 <transparent_crc>
   12aef:	0f b6 05 fd 53 00 00 	movzbl 0x53fd(%rip),%eax        # 17ef3 <g_1657+0x3>
   12af6:	0f b6 c0             	movzbl %al,%eax
   12af9:	8b 55 fc             	mov    -0x4(%rbp),%edx
   12afc:	48 8d 35 48 16 00 00 	lea    0x1648(%rip),%rsi        # 1414b <g_1697+0x102f>
   12b03:	48 89 c7             	mov    %rax,%rdi
   12b06:	e8 e8 4b ff ff       	callq  76f3 <transparent_crc>
   12b0b:	8b 05 e3 53 00 00    	mov    0x53e3(%rip),%eax        # 17ef4 <g_1657+0x4>
   12b11:	c1 e0 03             	shl    $0x3,%eax
   12b14:	c1 f8 03             	sar    $0x3,%eax
   12b17:	48 98                	cltq   
   12b19:	8b 55 fc             	mov    -0x4(%rbp),%edx
   12b1c:	48 8d 35 35 16 00 00 	lea    0x1635(%rip),%rsi        # 14158 <g_1697+0x103c>
   12b23:	48 89 c7             	mov    %rax,%rdi
   12b26:	e8 c8 4b ff ff       	callq  76f3 <transparent_crc>
   12b2b:	0f b6 05 c5 53 00 00 	movzbl 0x53c5(%rip),%eax        # 17ef7 <g_1657+0x7>
   12b32:	c0 e8 05             	shr    $0x5,%al
   12b35:	0f b6 c0             	movzbl %al,%eax
   12b38:	0f b6 15 b9 53 00 00 	movzbl 0x53b9(%rip),%edx        # 17ef8 <g_1657+0x8>
   12b3f:	48 c1 e2 03          	shl    $0x3,%rdx
   12b43:	48 09 d0             	or     %rdx,%rax
   12b46:	0f b7 c0             	movzwl %ax,%eax
   12b49:	8b 55 fc             	mov    -0x4(%rbp),%edx
   12b4c:	48 8d 35 12 16 00 00 	lea    0x1612(%rip),%rsi        # 14165 <g_1697+0x1049>
   12b53:	48 89 c7             	mov    %rax,%rdi
   12b56:	e8 98 4b ff ff       	callq  76f3 <transparent_crc>
   12b5b:	48 8b 05 96 53 00 00 	mov    0x5396(%rip),%rax        # 17ef8 <g_1657+0x8>
   12b62:	48 c1 e8 08          	shr    $0x8,%rax
   12b66:	25 ff ff 3f 00       	and    $0x3fffff,%eax
   12b6b:	89 c1                	mov    %eax,%ecx
   12b6d:	8b 45 fc             	mov    -0x4(%rbp),%eax
   12b70:	89 c2                	mov    %eax,%edx
   12b72:	48 8d 35 f9 15 00 00 	lea    0x15f9(%rip),%rsi        # 14172 <g_1697+0x1056>
   12b79:	48 89 cf             	mov    %rcx,%rdi
   12b7c:	e8 72 4b ff ff       	callq  76f3 <transparent_crc>
   12b81:	48 8b 05 70 53 00 00 	mov    0x5370(%rip),%rax        # 17ef8 <g_1657+0x8>
   12b88:	48 c1 e0 19          	shl    $0x19,%rax
   12b8c:	48 c1 f8 37          	sar    $0x37,%rax
   12b90:	48 0f bf c0          	movswq %ax,%rax
   12b94:	8b 55 fc             	mov    -0x4(%rbp),%edx
   12b97:	48 8d 35 de 15 00 00 	lea    0x15de(%rip),%rsi        # 1417c <g_1697+0x1060>
   12b9e:	48 89 c7             	mov    %rax,%rdi
   12ba1:	e8 4d 4b ff ff       	callq  76f3 <transparent_crc>
   12ba6:	8b 05 50 53 00 00    	mov    0x5350(%rip),%eax        # 17efc <g_1657+0xc>
   12bac:	c1 e8 07             	shr    $0x7,%eax
   12baf:	89 c2                	mov    %eax,%edx
   12bb1:	0f b6 05 48 53 00 00 	movzbl 0x5348(%rip),%eax        # 17f00 <g_1657+0x10>
   12bb8:	83 e0 3f             	and    $0x3f,%eax
   12bbb:	48 c1 e0 19          	shl    $0x19,%rax
   12bbf:	48 09 d0             	or     %rdx,%rax
   12bc2:	89 c1                	mov    %eax,%ecx
   12bc4:	8b 45 fc             	mov    -0x4(%rbp),%eax
   12bc7:	89 c2                	mov    %eax,%edx
   12bc9:	48 8d 35 b6 15 00 00 	lea    0x15b6(%rip),%rsi        # 14186 <g_1697+0x106a>
   12bd0:	48 89 cf             	mov    %rcx,%rdi
   12bd3:	e8 1b 4b ff ff       	callq  76f3 <transparent_crc>
   12bd8:	8b 05 32 53 00 00    	mov    0x5332(%rip),%eax        # 17f10 <g_1658>
   12bde:	25 ff ff 3f 00       	and    $0x3fffff,%eax
   12be3:	89 c1                	mov    %eax,%ecx
   12be5:	8b 45 fc             	mov    -0x4(%rbp),%eax
   12be8:	89 c2                	mov    %eax,%edx
   12bea:	48 8d 35 9f 15 00 00 	lea    0x159f(%rip),%rsi        # 14190 <g_1697+0x1074>
   12bf1:	48 89 cf             	mov    %rcx,%rdi
   12bf4:	e8 fa 4a ff ff       	callq  76f3 <transparent_crc>
   12bf9:	0f b6 05 13 53 00 00 	movzbl 0x5313(%rip),%eax        # 17f13 <g_1658+0x3>
   12c00:	0f b6 c0             	movzbl %al,%eax
   12c03:	8b 55 fc             	mov    -0x4(%rbp),%edx
   12c06:	48 8d 35 8d 15 00 00 	lea    0x158d(%rip),%rsi        # 1419a <g_1697+0x107e>
   12c0d:	48 89 c7             	mov    %rax,%rdi
   12c10:	e8 de 4a ff ff       	callq  76f3 <transparent_crc>
   12c15:	8b 05 f9 52 00 00    	mov    0x52f9(%rip),%eax        # 17f14 <g_1658+0x4>
   12c1b:	c1 e0 03             	shl    $0x3,%eax
   12c1e:	c1 f8 03             	sar    $0x3,%eax
   12c21:	48 98                	cltq   
   12c23:	8b 55 fc             	mov    -0x4(%rbp),%edx
   12c26:	48 8d 35 7a 15 00 00 	lea    0x157a(%rip),%rsi        # 141a7 <g_1697+0x108b>
   12c2d:	48 89 c7             	mov    %rax,%rdi
   12c30:	e8 be 4a ff ff       	callq  76f3 <transparent_crc>
   12c35:	0f b6 05 db 52 00 00 	movzbl 0x52db(%rip),%eax        # 17f17 <g_1658+0x7>
   12c3c:	c0 e8 05             	shr    $0x5,%al
   12c3f:	0f b6 c0             	movzbl %al,%eax
   12c42:	0f b6 15 cf 52 00 00 	movzbl 0x52cf(%rip),%edx        # 17f18 <g_1658+0x8>
   12c49:	48 c1 e2 03          	shl    $0x3,%rdx
   12c4d:	48 09 d0             	or     %rdx,%rax
   12c50:	0f b7 c0             	movzwl %ax,%eax
   12c53:	8b 55 fc             	mov    -0x4(%rbp),%edx
   12c56:	48 8d 35 57 15 00 00 	lea    0x1557(%rip),%rsi        # 141b4 <g_1697+0x1098>
   12c5d:	48 89 c7             	mov    %rax,%rdi
   12c60:	e8 8e 4a ff ff       	callq  76f3 <transparent_crc>
   12c65:	48 8b 05 ac 52 00 00 	mov    0x52ac(%rip),%rax        # 17f18 <g_1658+0x8>
   12c6c:	48 c1 e8 08          	shr    $0x8,%rax
   12c70:	25 ff ff 3f 00       	and    $0x3fffff,%eax
   12c75:	89 c1                	mov    %eax,%ecx
   12c77:	8b 45 fc             	mov    -0x4(%rbp),%eax
   12c7a:	89 c2                	mov    %eax,%edx
   12c7c:	48 8d 35 3e 15 00 00 	lea    0x153e(%rip),%rsi        # 141c1 <g_1697+0x10a5>
   12c83:	48 89 cf             	mov    %rcx,%rdi
   12c86:	e8 68 4a ff ff       	callq  76f3 <transparent_crc>
   12c8b:	48 8b 05 86 52 00 00 	mov    0x5286(%rip),%rax        # 17f18 <g_1658+0x8>
   12c92:	48 c1 e0 19          	shl    $0x19,%rax
   12c96:	48 c1 f8 37          	sar    $0x37,%rax
   12c9a:	48 0f bf c0          	movswq %ax,%rax
   12c9e:	8b 55 fc             	mov    -0x4(%rbp),%edx
   12ca1:	48 8d 35 23 15 00 00 	lea    0x1523(%rip),%rsi        # 141cb <g_1697+0x10af>
   12ca8:	48 89 c7             	mov    %rax,%rdi
   12cab:	e8 43 4a ff ff       	callq  76f3 <transparent_crc>
   12cb0:	8b 05 66 52 00 00    	mov    0x5266(%rip),%eax        # 17f1c <g_1658+0xc>
   12cb6:	c1 e8 07             	shr    $0x7,%eax
   12cb9:	89 c2                	mov    %eax,%edx
   12cbb:	0f b6 05 5e 52 00 00 	movzbl 0x525e(%rip),%eax        # 17f20 <g_1658+0x10>
   12cc2:	83 e0 3f             	and    $0x3f,%eax
   12cc5:	48 c1 e0 19          	shl    $0x19,%rax
   12cc9:	48 09 d0             	or     %rdx,%rax
   12ccc:	89 c1                	mov    %eax,%ecx
   12cce:	8b 45 fc             	mov    -0x4(%rbp),%eax
   12cd1:	89 c2                	mov    %eax,%edx
   12cd3:	48 8d 35 fb 14 00 00 	lea    0x14fb(%rip),%rsi        # 141d5 <g_1697+0x10b9>
   12cda:	48 89 cf             	mov    %rcx,%rdi
   12cdd:	e8 11 4a ff ff       	callq  76f3 <transparent_crc>
   12ce2:	b8 01 00 00 00       	mov    $0x1,%eax
   12ce7:	48 98                	cltq   
   12ce9:	8b 55 fc             	mov    -0x4(%rbp),%edx
   12cec:	48 8d 35 ec 14 00 00 	lea    0x14ec(%rip),%rsi        # 141df <g_1697+0x10c3>
   12cf3:	48 89 c7             	mov    %rax,%rdi
   12cf6:	e8 f8 49 ff ff       	callq  76f3 <transparent_crc>
   12cfb:	48 8b 05 26 52 00 00 	mov    0x5226(%rip),%rax        # 17f28 <g_1704>
   12d02:	8b 55 fc             	mov    -0x4(%rbp),%edx
   12d05:	48 8d 35 da 14 00 00 	lea    0x14da(%rip),%rsi        # 141e6 <g_1697+0x10ca>
   12d0c:	48 89 c7             	mov    %rax,%rdi
   12d0f:	e8 df 49 ff ff       	callq  76f3 <transparent_crc>
   12d14:	8b 05 06 43 00 00    	mov    0x4306(%rip),%eax        # 17020 <crc32_context>
   12d1a:	f7 d0                	not    %eax
   12d1c:	89 c2                	mov    %eax,%edx
   12d1e:	8b 45 fc             	mov    -0x4(%rbp),%eax
   12d21:	89 c6                	mov    %eax,%esi
   12d23:	89 d7                	mov    %edx,%edi
   12d25:	e8 6a 34 ff ff       	callq  6194 <platform_main_end>
   12d2a:	b8 00 00 00 00       	mov    $0x0,%eax
   12d2f:	c9                   	leaveq 
   12d30:	c3                   	retq   
   12d31:	66 2e 0f 1f 84 00 00 	nopw   %cs:0x0(%rax,%rax,1)
   12d38:	00 00 00 
   12d3b:	0f 1f 44 00 00       	nopl   0x0(%rax,%rax,1)

0000000000012d40 <__libc_csu_init>:
   12d40:	f3 0f 1e fa          	endbr64 
   12d44:	41 57                	push   %r15
   12d46:	4c 8d 3d a3 3e 00 00 	lea    0x3ea3(%rip),%r15        # 16bf0 <__frame_dummy_init_array_entry>
   12d4d:	41 56                	push   %r14
   12d4f:	49 89 d6             	mov    %rdx,%r14
   12d52:	41 55                	push   %r13
   12d54:	49 89 f5             	mov    %rsi,%r13
   12d57:	41 54                	push   %r12
   12d59:	41 89 fc             	mov    %edi,%r12d
   12d5c:	55                   	push   %rbp
   12d5d:	48 8d 2d 94 3e 00 00 	lea    0x3e94(%rip),%rbp        # 16bf8 <__do_global_dtors_aux_fini_array_entry>
   12d64:	53                   	push   %rbx
   12d65:	4c 29 fd             	sub    %r15,%rbp
   12d68:	48 83 ec 08          	sub    $0x8,%rsp
   12d6c:	e8 8f 32 ff ff       	callq  6000 <_init>
   12d71:	48 c1 fd 03          	sar    $0x3,%rbp
   12d75:	74 1f                	je     12d96 <__libc_csu_init+0x56>
   12d77:	31 db                	xor    %ebx,%ebx
   12d79:	0f 1f 80 00 00 00 00 	nopl   0x0(%rax)
   12d80:	4c 89 f2             	mov    %r14,%rdx
   12d83:	4c 89 ee             	mov    %r13,%rsi
   12d86:	44 89 e7             	mov    %r12d,%edi
   12d89:	41 ff 14 df          	callq  *(%r15,%rbx,8)
   12d8d:	48 83 c3 01          	add    $0x1,%rbx
   12d91:	48 39 dd             	cmp    %rbx,%rbp
   12d94:	75 ea                	jne    12d80 <__libc_csu_init+0x40>
   12d96:	48 83 c4 08          	add    $0x8,%rsp
   12d9a:	5b                   	pop    %rbx
   12d9b:	5d                   	pop    %rbp
   12d9c:	41 5c                	pop    %r12
   12d9e:	41 5d                	pop    %r13
   12da0:	41 5e                	pop    %r14
   12da2:	41 5f                	pop    %r15
   12da4:	c3                   	retq   
   12da5:	66 66 2e 0f 1f 84 00 	data16 nopw %cs:0x0(%rax,%rax,1)
   12dac:	00 00 00 00 

0000000000012db0 <__libc_csu_fini>:
   12db0:	f3 0f 1e fa          	endbr64 
   12db4:	c3                   	retq   
