


Disassembly of section .text:

00000000000080a0 <_start>:
    80a0:	f3 0f 1e fa          	endbr64 
    80a4:	31 ed                	xor    %ebp,%ebp
    80a6:	49 89 d1             	mov    %rdx,%r9
    80a9:	5e                   	pop    %rsi
    80aa:	48 89 e2             	mov    %rsp,%rdx
    80ad:	48 83 e4 f0          	and    $0xfffffffffffffff0,%rsp
    80b1:	50                   	push   %rax
    80b2:	54                   	push   %rsp
    80b3:	4c 8d 05 e6 ae 00 00 	lea    0xaee6(%rip),%r8        # 12fa0 <__libc_csu_fini>
    80ba:	48 8d 0d 6f ae 00 00 	lea    0xae6f(%rip),%rcx        # 12f30 <__libc_csu_init>
    80c1:	48 8d 3d 6b 88 00 00 	lea    0x886b(%rip),%rdi        # 10933 <main>
    80c8:	ff 15 12 ef 00 00    	callq  *0xef12(%rip)        # 16fe0 <__libc_start_main@GLIBC_2.2.5>
    80ce:	f4                   	hlt    
    80cf:	90                   	nop

00000000000080d0 <deregister_tm_clones>:
    80d0:	48 8d 3d 11 3f 01 00 	lea    0x13f11(%rip),%rdi        # 1bfe8 <__TMC_END__>
    80d7:	48 8d 05 0a 3f 01 00 	lea    0x13f0a(%rip),%rax        # 1bfe8 <__TMC_END__>
    80de:	48 39 f8             	cmp    %rdi,%rax
    80e1:	74 15                	je     80f8 <deregister_tm_clones+0x28>
    80e3:	48 8b 05 ee ee 00 00 	mov    0xeeee(%rip),%rax        # 16fd8 <_ITM_deregisterTMCloneTable>
    80ea:	48 85 c0             	test   %rax,%rax
    80ed:	74 09                	je     80f8 <deregister_tm_clones+0x28>
    80ef:	ff e0                	jmpq   *%rax
    80f1:	0f 1f 80 00 00 00 00 	nopl   0x0(%rax)
    80f8:	c3                   	retq   
    80f9:	0f 1f 80 00 00 00 00 	nopl   0x0(%rax)

0000000000008100 <register_tm_clones>:
    8100:	48 8d 3d e1 3e 01 00 	lea    0x13ee1(%rip),%rdi        # 1bfe8 <__TMC_END__>
    8107:	48 8d 35 da 3e 01 00 	lea    0x13eda(%rip),%rsi        # 1bfe8 <__TMC_END__>
    810e:	48 29 fe             	sub    %rdi,%rsi
    8111:	48 89 f0             	mov    %rsi,%rax
    8114:	48 c1 ee 3f          	shr    $0x3f,%rsi
    8118:	48 c1 f8 03          	sar    $0x3,%rax
    811c:	48 01 c6             	add    %rax,%rsi
    811f:	48 d1 fe             	sar    %rsi
    8122:	74 14                	je     8138 <register_tm_clones+0x38>
    8124:	48 8b 05 c5 ee 00 00 	mov    0xeec5(%rip),%rax        # 16ff0 <_ITM_registerTMCloneTable>
    812b:	48 85 c0             	test   %rax,%rax
    812e:	74 08                	je     8138 <register_tm_clones+0x38>
    8130:	ff e0                	jmpq   *%rax
    8132:	66 0f 1f 44 00 00    	nopw   0x0(%rax,%rax,1)
    8138:	c3                   	retq   
    8139:	0f 1f 80 00 00 00 00 	nopl   0x0(%rax)

0000000000008140 <__do_global_dtors_aux>:
    8140:	f3 0f 1e fa          	endbr64 
    8144:	80 3d b5 3e 01 00 00 	cmpb   $0x0,0x13eb5(%rip)        # 1c000 <completed.8061>
    814b:	75 2b                	jne    8178 <__do_global_dtors_aux+0x38>
    814d:	55                   	push   %rbp
    814e:	48 83 3d a2 ee 00 00 	cmpq   $0x0,0xeea2(%rip)        # 16ff8 <__cxa_finalize@GLIBC_2.2.5>
    8155:	00 
    8156:	48 89 e5             	mov    %rsp,%rbp
    8159:	74 0c                	je     8167 <__do_global_dtors_aux+0x27>
    815b:	48 8b 3d a6 ee 00 00 	mov    0xeea6(%rip),%rdi        # 17008 <__dso_handle>
    8162:	e8 f9 fe ff ff       	callq  8060 <__cxa_finalize@plt>
    8167:	e8 64 ff ff ff       	callq  80d0 <deregister_tm_clones>
    816c:	c6 05 8d 3e 01 00 01 	movb   $0x1,0x13e8d(%rip)        # 1c000 <completed.8061>
    8173:	5d                   	pop    %rbp
    8174:	c3                   	retq   
    8175:	0f 1f 00             	nopl   (%rax)
    8178:	c3                   	retq   
    8179:	0f 1f 80 00 00 00 00 	nopl   0x0(%rax)

0000000000008180 <frame_dummy>:
    8180:	f3 0f 1e fa          	endbr64 
    8184:	e9 77 ff ff ff       	jmpq   8100 <register_tm_clones>

0000000000008189 <platform_main_begin>:
    8189:	f3 0f 1e fa          	endbr64 
    818d:	55                   	push   %rbp
    818e:	48 89 e5             	mov    %rsp,%rbp
    8191:	90                   	nop
    8192:	5d                   	pop    %rbp
    8193:	c3                   	retq   

0000000000008194 <platform_main_end>:
    8194:	f3 0f 1e fa          	endbr64 
    8198:	55                   	push   %rbp
    8199:	48 89 e5             	mov    %rsp,%rbp
    819c:	48 83 ec 10          	sub    $0x10,%rsp
    81a0:	89 7d fc             	mov    %edi,-0x4(%rbp)
    81a3:	89 75 f8             	mov    %esi,-0x8(%rbp)
    81a6:	8b 45 fc             	mov    -0x4(%rbp),%eax
    81a9:	89 c6                	mov    %eax,%esi
    81ab:	48 8d 3d 6e ae 00 00 	lea    0xae6e(%rip),%rdi        # 13020 <_IO_stdin_used+0x20>
    81b2:	b8 00 00 00 00       	mov    $0x0,%eax
    81b7:	e8 c4 fe ff ff       	callq  8080 <printf@plt>
    81bc:	90                   	nop
    81bd:	c9                   	leaveq 
    81be:	c3                   	retq   

00000000000081bf <safe_unary_minus_func_int8_t_s>:
    81bf:	f3 0f 1e fa          	endbr64 
    81c3:	55                   	push   %rbp
    81c4:	48 89 e5             	mov    %rsp,%rbp
    81c7:	89 f8                	mov    %edi,%eax
    81c9:	88 45 fc             	mov    %al,-0x4(%rbp)
    81cc:	0f b6 45 fc          	movzbl -0x4(%rbp),%eax
    81d0:	f7 d8                	neg    %eax
    81d2:	5d                   	pop    %rbp
    81d3:	c3                   	retq   

00000000000081d4 <safe_add_func_int8_t_s_s>:
    81d4:	f3 0f 1e fa          	endbr64 
    81d8:	55                   	push   %rbp
    81d9:	48 89 e5             	mov    %rsp,%rbp
    81dc:	89 fa                	mov    %edi,%edx
    81de:	89 f0                	mov    %esi,%eax
    81e0:	88 55 fc             	mov    %dl,-0x4(%rbp)
    81e3:	88 45 f8             	mov    %al,-0x8(%rbp)
    81e6:	0f b6 55 fc          	movzbl -0x4(%rbp),%edx
    81ea:	0f b6 45 f8          	movzbl -0x8(%rbp),%eax
    81ee:	01 d0                	add    %edx,%eax
    81f0:	5d                   	pop    %rbp
    81f1:	c3                   	retq   

00000000000081f2 <safe_sub_func_int8_t_s_s>:
    81f2:	f3 0f 1e fa          	endbr64 
    81f6:	55                   	push   %rbp
    81f7:	48 89 e5             	mov    %rsp,%rbp
    81fa:	89 fa                	mov    %edi,%edx
    81fc:	89 f0                	mov    %esi,%eax
    81fe:	88 55 fc             	mov    %dl,-0x4(%rbp)
    8201:	88 45 f8             	mov    %al,-0x8(%rbp)
    8204:	0f b6 55 fc          	movzbl -0x4(%rbp),%edx
    8208:	0f b6 45 f8          	movzbl -0x8(%rbp),%eax
    820c:	29 c2                	sub    %eax,%edx
    820e:	89 d0                	mov    %edx,%eax
    8210:	5d                   	pop    %rbp
    8211:	c3                   	retq   

0000000000008212 <safe_mul_func_int8_t_s_s>:
    8212:	f3 0f 1e fa          	endbr64 
    8216:	55                   	push   %rbp
    8217:	48 89 e5             	mov    %rsp,%rbp
    821a:	89 fa                	mov    %edi,%edx
    821c:	89 f0                	mov    %esi,%eax
    821e:	88 55 fc             	mov    %dl,-0x4(%rbp)
    8221:	88 45 f8             	mov    %al,-0x8(%rbp)
    8224:	0f b6 45 fc          	movzbl -0x4(%rbp),%eax
    8228:	0f b6 55 f8          	movzbl -0x8(%rbp),%edx
    822c:	0f af c2             	imul   %edx,%eax
    822f:	5d                   	pop    %rbp
    8230:	c3                   	retq   

0000000000008231 <safe_mod_func_int8_t_s_s>:
    8231:	f3 0f 1e fa          	endbr64 
    8235:	55                   	push   %rbp
    8236:	48 89 e5             	mov    %rsp,%rbp
    8239:	89 fa                	mov    %edi,%edx
    823b:	89 f0                	mov    %esi,%eax
    823d:	88 55 fc             	mov    %dl,-0x4(%rbp)
    8240:	88 45 f8             	mov    %al,-0x8(%rbp)
    8243:	80 7d f8 00          	cmpb   $0x0,-0x8(%rbp)
    8247:	74 1b                	je     8264 <safe_mod_func_int8_t_s_s+0x33>
    8249:	80 7d fc 80          	cmpb   $0x80,-0x4(%rbp)
    824d:	75 06                	jne    8255 <safe_mod_func_int8_t_s_s+0x24>
    824f:	80 7d f8 ff          	cmpb   $0xff,-0x8(%rbp)
    8253:	74 0f                	je     8264 <safe_mod_func_int8_t_s_s+0x33>
    8255:	0f be 45 fc          	movsbl -0x4(%rbp),%eax
    8259:	0f be 4d f8          	movsbl -0x8(%rbp),%ecx
    825d:	99                   	cltd   
    825e:	f7 f9                	idiv   %ecx
    8260:	89 d0                	mov    %edx,%eax
    8262:	eb 04                	jmp    8268 <safe_mod_func_int8_t_s_s+0x37>
    8264:	0f b6 45 fc          	movzbl -0x4(%rbp),%eax
    8268:	5d                   	pop    %rbp
    8269:	c3                   	retq   

000000000000826a <safe_div_func_int8_t_s_s>:
    826a:	f3 0f 1e fa          	endbr64 
    826e:	55                   	push   %rbp
    826f:	48 89 e5             	mov    %rsp,%rbp
    8272:	89 fa                	mov    %edi,%edx
    8274:	89 f0                	mov    %esi,%eax
    8276:	88 55 fc             	mov    %dl,-0x4(%rbp)
    8279:	88 45 f8             	mov    %al,-0x8(%rbp)
    827c:	80 7d f8 00          	cmpb   $0x0,-0x8(%rbp)
    8280:	74 19                	je     829b <safe_div_func_int8_t_s_s+0x31>
    8282:	80 7d fc 80          	cmpb   $0x80,-0x4(%rbp)
    8286:	75 06                	jne    828e <safe_div_func_int8_t_s_s+0x24>
    8288:	80 7d f8 ff          	cmpb   $0xff,-0x8(%rbp)
    828c:	74 0d                	je     829b <safe_div_func_int8_t_s_s+0x31>
    828e:	0f be 45 fc          	movsbl -0x4(%rbp),%eax
    8292:	0f be 4d f8          	movsbl -0x8(%rbp),%ecx
    8296:	99                   	cltd   
    8297:	f7 f9                	idiv   %ecx
    8299:	eb 04                	jmp    829f <safe_div_func_int8_t_s_s+0x35>
    829b:	0f b6 45 fc          	movzbl -0x4(%rbp),%eax
    829f:	5d                   	pop    %rbp
    82a0:	c3                   	retq   

00000000000082a1 <safe_lshift_func_int8_t_s_s>:
    82a1:	f3 0f 1e fa          	endbr64 
    82a5:	55                   	push   %rbp
    82a6:	48 89 e5             	mov    %rsp,%rbp
    82a9:	89 f8                	mov    %edi,%eax
    82ab:	89 75 f8             	mov    %esi,-0x8(%rbp)
    82ae:	88 45 fc             	mov    %al,-0x4(%rbp)
    82b1:	80 7d fc 00          	cmpb   $0x0,-0x4(%rbp)
    82b5:	78 31                	js     82e8 <safe_lshift_func_int8_t_s_s+0x47>
    82b7:	83 7d f8 00          	cmpl   $0x0,-0x8(%rbp)
    82bb:	78 2b                	js     82e8 <safe_lshift_func_int8_t_s_s+0x47>
    82bd:	83 7d f8 1f          	cmpl   $0x1f,-0x8(%rbp)
    82c1:	7f 25                	jg     82e8 <safe_lshift_func_int8_t_s_s+0x47>
    82c3:	0f be 55 fc          	movsbl -0x4(%rbp),%edx
    82c7:	8b 45 f8             	mov    -0x8(%rbp),%eax
    82ca:	be 7f 00 00 00       	mov    $0x7f,%esi
    82cf:	89 c1                	mov    %eax,%ecx
    82d1:	d3 fe                	sar    %cl,%esi
    82d3:	89 f0                	mov    %esi,%eax
    82d5:	39 c2                	cmp    %eax,%edx
    82d7:	7f 0f                	jg     82e8 <safe_lshift_func_int8_t_s_s+0x47>
    82d9:	0f be 55 fc          	movsbl -0x4(%rbp),%edx
    82dd:	8b 45 f8             	mov    -0x8(%rbp),%eax
    82e0:	89 c1                	mov    %eax,%ecx
    82e2:	d3 e2                	shl    %cl,%edx
    82e4:	89 d0                	mov    %edx,%eax
    82e6:	eb 04                	jmp    82ec <safe_lshift_func_int8_t_s_s+0x4b>
    82e8:	0f b6 45 fc          	movzbl -0x4(%rbp),%eax
    82ec:	5d                   	pop    %rbp
    82ed:	c3                   	retq   

00000000000082ee <safe_lshift_func_int8_t_s_u>:
    82ee:	f3 0f 1e fa          	endbr64 
    82f2:	55                   	push   %rbp
    82f3:	48 89 e5             	mov    %rsp,%rbp
    82f6:	89 f8                	mov    %edi,%eax
    82f8:	89 75 f8             	mov    %esi,-0x8(%rbp)
    82fb:	88 45 fc             	mov    %al,-0x4(%rbp)
    82fe:	80 7d fc 00          	cmpb   $0x0,-0x4(%rbp)
    8302:	78 2b                	js     832f <safe_lshift_func_int8_t_s_u+0x41>
    8304:	83 7d f8 1f          	cmpl   $0x1f,-0x8(%rbp)
    8308:	77 25                	ja     832f <safe_lshift_func_int8_t_s_u+0x41>
    830a:	0f be 55 fc          	movsbl -0x4(%rbp),%edx
    830e:	8b 45 f8             	mov    -0x8(%rbp),%eax
    8311:	be 7f 00 00 00       	mov    $0x7f,%esi
    8316:	89 c1                	mov    %eax,%ecx
    8318:	d3 fe                	sar    %cl,%esi
    831a:	89 f0                	mov    %esi,%eax
    831c:	39 c2                	cmp    %eax,%edx
    831e:	7f 0f                	jg     832f <safe_lshift_func_int8_t_s_u+0x41>
    8320:	0f be 55 fc          	movsbl -0x4(%rbp),%edx
    8324:	8b 45 f8             	mov    -0x8(%rbp),%eax
    8327:	89 c1                	mov    %eax,%ecx
    8329:	d3 e2                	shl    %cl,%edx
    832b:	89 d0                	mov    %edx,%eax
    832d:	eb 04                	jmp    8333 <safe_lshift_func_int8_t_s_u+0x45>
    832f:	0f b6 45 fc          	movzbl -0x4(%rbp),%eax
    8333:	5d                   	pop    %rbp
    8334:	c3                   	retq   

0000000000008335 <safe_rshift_func_int8_t_s_s>:
    8335:	f3 0f 1e fa          	endbr64 
    8339:	55                   	push   %rbp
    833a:	48 89 e5             	mov    %rsp,%rbp
    833d:	89 f8                	mov    %edi,%eax
    833f:	89 75 f8             	mov    %esi,-0x8(%rbp)
    8342:	88 45 fc             	mov    %al,-0x4(%rbp)
    8345:	80 7d fc 00          	cmpb   $0x0,-0x4(%rbp)
    8349:	78 1b                	js     8366 <safe_rshift_func_int8_t_s_s+0x31>
    834b:	83 7d f8 00          	cmpl   $0x0,-0x8(%rbp)
    834f:	78 15                	js     8366 <safe_rshift_func_int8_t_s_s+0x31>
    8351:	83 7d f8 1f          	cmpl   $0x1f,-0x8(%rbp)
    8355:	7f 0f                	jg     8366 <safe_rshift_func_int8_t_s_s+0x31>
    8357:	0f be 55 fc          	movsbl -0x4(%rbp),%edx
    835b:	8b 45 f8             	mov    -0x8(%rbp),%eax
    835e:	89 c1                	mov    %eax,%ecx
    8360:	d3 fa                	sar    %cl,%edx
    8362:	89 d0                	mov    %edx,%eax
    8364:	eb 04                	jmp    836a <safe_rshift_func_int8_t_s_s+0x35>
    8366:	0f b6 45 fc          	movzbl -0x4(%rbp),%eax
    836a:	5d                   	pop    %rbp
    836b:	c3                   	retq   

000000000000836c <safe_rshift_func_int8_t_s_u>:
    836c:	f3 0f 1e fa          	endbr64 
    8370:	55                   	push   %rbp
    8371:	48 89 e5             	mov    %rsp,%rbp
    8374:	89 f8                	mov    %edi,%eax
    8376:	89 75 f8             	mov    %esi,-0x8(%rbp)
    8379:	88 45 fc             	mov    %al,-0x4(%rbp)
    837c:	80 7d fc 00          	cmpb   $0x0,-0x4(%rbp)
    8380:	78 15                	js     8397 <safe_rshift_func_int8_t_s_u+0x2b>
    8382:	83 7d f8 1f          	cmpl   $0x1f,-0x8(%rbp)
    8386:	77 0f                	ja     8397 <safe_rshift_func_int8_t_s_u+0x2b>
    8388:	0f be 55 fc          	movsbl -0x4(%rbp),%edx
    838c:	8b 45 f8             	mov    -0x8(%rbp),%eax
    838f:	89 c1                	mov    %eax,%ecx
    8391:	d3 fa                	sar    %cl,%edx
    8393:	89 d0                	mov    %edx,%eax
    8395:	eb 04                	jmp    839b <safe_rshift_func_int8_t_s_u+0x2f>
    8397:	0f b6 45 fc          	movzbl -0x4(%rbp),%eax
    839b:	5d                   	pop    %rbp
    839c:	c3                   	retq   

000000000000839d <safe_unary_minus_func_int16_t_s>:
    839d:	f3 0f 1e fa          	endbr64 
    83a1:	55                   	push   %rbp
    83a2:	48 89 e5             	mov    %rsp,%rbp
    83a5:	89 f8                	mov    %edi,%eax
    83a7:	66 89 45 fc          	mov    %ax,-0x4(%rbp)
    83ab:	0f b7 45 fc          	movzwl -0x4(%rbp),%eax
    83af:	f7 d8                	neg    %eax
    83b1:	5d                   	pop    %rbp
    83b2:	c3                   	retq   

00000000000083b3 <safe_add_func_int16_t_s_s>:
    83b3:	f3 0f 1e fa          	endbr64 
    83b7:	55                   	push   %rbp
    83b8:	48 89 e5             	mov    %rsp,%rbp
    83bb:	89 fa                	mov    %edi,%edx
    83bd:	89 f0                	mov    %esi,%eax
    83bf:	66 89 55 fc          	mov    %dx,-0x4(%rbp)
    83c3:	66 89 45 f8          	mov    %ax,-0x8(%rbp)
    83c7:	0f b7 55 fc          	movzwl -0x4(%rbp),%edx
    83cb:	0f b7 45 f8          	movzwl -0x8(%rbp),%eax
    83cf:	01 d0                	add    %edx,%eax
    83d1:	5d                   	pop    %rbp
    83d2:	c3                   	retq   

00000000000083d3 <safe_sub_func_int16_t_s_s>:
    83d3:	f3 0f 1e fa          	endbr64 
    83d7:	55                   	push   %rbp
    83d8:	48 89 e5             	mov    %rsp,%rbp
    83db:	89 fa                	mov    %edi,%edx
    83dd:	89 f0                	mov    %esi,%eax
    83df:	66 89 55 fc          	mov    %dx,-0x4(%rbp)
    83e3:	66 89 45 f8          	mov    %ax,-0x8(%rbp)
    83e7:	0f b7 55 fc          	movzwl -0x4(%rbp),%edx
    83eb:	0f b7 45 f8          	movzwl -0x8(%rbp),%eax
    83ef:	29 c2                	sub    %eax,%edx
    83f1:	89 d0                	mov    %edx,%eax
    83f3:	5d                   	pop    %rbp
    83f4:	c3                   	retq   

00000000000083f5 <safe_mul_func_int16_t_s_s>:
    83f5:	f3 0f 1e fa          	endbr64 
    83f9:	55                   	push   %rbp
    83fa:	48 89 e5             	mov    %rsp,%rbp
    83fd:	89 fa                	mov    %edi,%edx
    83ff:	89 f0                	mov    %esi,%eax
    8401:	66 89 55 fc          	mov    %dx,-0x4(%rbp)
    8405:	66 89 45 f8          	mov    %ax,-0x8(%rbp)
    8409:	0f b7 55 fc          	movzwl -0x4(%rbp),%edx
    840d:	0f b7 45 f8          	movzwl -0x8(%rbp),%eax
    8411:	0f af c2             	imul   %edx,%eax
    8414:	5d                   	pop    %rbp
    8415:	c3                   	retq   

0000000000008416 <safe_mod_func_int16_t_s_s>:
    8416:	f3 0f 1e fa          	endbr64 
    841a:	55                   	push   %rbp
    841b:	48 89 e5             	mov    %rsp,%rbp
    841e:	89 fa                	mov    %edi,%edx
    8420:	89 f0                	mov    %esi,%eax
    8422:	66 89 55 fc          	mov    %dx,-0x4(%rbp)
    8426:	66 89 45 f8          	mov    %ax,-0x8(%rbp)
    842a:	66 83 7d f8 00       	cmpw   $0x0,-0x8(%rbp)
    842f:	74 1e                	je     844f <safe_mod_func_int16_t_s_s+0x39>
    8431:	66 81 7d fc 00 80    	cmpw   $0x8000,-0x4(%rbp)
    8437:	75 07                	jne    8440 <safe_mod_func_int16_t_s_s+0x2a>
    8439:	66 83 7d f8 ff       	cmpw   $0xffff,-0x8(%rbp)
    843e:	74 0f                	je     844f <safe_mod_func_int16_t_s_s+0x39>
    8440:	0f bf 45 fc          	movswl -0x4(%rbp),%eax
    8444:	0f bf 4d f8          	movswl -0x8(%rbp),%ecx
    8448:	99                   	cltd   
    8449:	f7 f9                	idiv   %ecx
    844b:	89 d0                	mov    %edx,%eax
    844d:	eb 04                	jmp    8453 <safe_mod_func_int16_t_s_s+0x3d>
    844f:	0f b7 45 fc          	movzwl -0x4(%rbp),%eax
    8453:	5d                   	pop    %rbp
    8454:	c3                   	retq   

0000000000008455 <safe_div_func_int16_t_s_s>:
    8455:	f3 0f 1e fa          	endbr64 
    8459:	55                   	push   %rbp
    845a:	48 89 e5             	mov    %rsp,%rbp
    845d:	89 fa                	mov    %edi,%edx
    845f:	89 f0                	mov    %esi,%eax
    8461:	66 89 55 fc          	mov    %dx,-0x4(%rbp)
    8465:	66 89 45 f8          	mov    %ax,-0x8(%rbp)
    8469:	66 83 7d f8 00       	cmpw   $0x0,-0x8(%rbp)
    846e:	74 1c                	je     848c <safe_div_func_int16_t_s_s+0x37>
    8470:	66 81 7d fc 00 80    	cmpw   $0x8000,-0x4(%rbp)
    8476:	75 07                	jne    847f <safe_div_func_int16_t_s_s+0x2a>
    8478:	66 83 7d f8 ff       	cmpw   $0xffff,-0x8(%rbp)
    847d:	74 0d                	je     848c <safe_div_func_int16_t_s_s+0x37>
    847f:	0f bf 45 fc          	movswl -0x4(%rbp),%eax
    8483:	0f bf 4d f8          	movswl -0x8(%rbp),%ecx
    8487:	99                   	cltd   
    8488:	f7 f9                	idiv   %ecx
    848a:	eb 04                	jmp    8490 <safe_div_func_int16_t_s_s+0x3b>
    848c:	0f b7 45 fc          	movzwl -0x4(%rbp),%eax
    8490:	5d                   	pop    %rbp
    8491:	c3                   	retq   

0000000000008492 <safe_lshift_func_int16_t_s_s>:
    8492:	f3 0f 1e fa          	endbr64 
    8496:	55                   	push   %rbp
    8497:	48 89 e5             	mov    %rsp,%rbp
    849a:	89 f8                	mov    %edi,%eax
    849c:	89 75 f8             	mov    %esi,-0x8(%rbp)
    849f:	66 89 45 fc          	mov    %ax,-0x4(%rbp)
    84a3:	66 83 7d fc 00       	cmpw   $0x0,-0x4(%rbp)
    84a8:	78 31                	js     84db <safe_lshift_func_int16_t_s_s+0x49>
    84aa:	83 7d f8 00          	cmpl   $0x0,-0x8(%rbp)
    84ae:	78 2b                	js     84db <safe_lshift_func_int16_t_s_s+0x49>
    84b0:	83 7d f8 1f          	cmpl   $0x1f,-0x8(%rbp)
    84b4:	7f 25                	jg     84db <safe_lshift_func_int16_t_s_s+0x49>
    84b6:	0f bf 55 fc          	movswl -0x4(%rbp),%edx
    84ba:	8b 45 f8             	mov    -0x8(%rbp),%eax
    84bd:	be ff 7f 00 00       	mov    $0x7fff,%esi
    84c2:	89 c1                	mov    %eax,%ecx
    84c4:	d3 fe                	sar    %cl,%esi
    84c6:	89 f0                	mov    %esi,%eax
    84c8:	39 c2                	cmp    %eax,%edx
    84ca:	7f 0f                	jg     84db <safe_lshift_func_int16_t_s_s+0x49>
    84cc:	0f bf 55 fc          	movswl -0x4(%rbp),%edx
    84d0:	8b 45 f8             	mov    -0x8(%rbp),%eax
    84d3:	89 c1                	mov    %eax,%ecx
    84d5:	d3 e2                	shl    %cl,%edx
    84d7:	89 d0                	mov    %edx,%eax
    84d9:	eb 04                	jmp    84df <safe_lshift_func_int16_t_s_s+0x4d>
    84db:	0f b7 45 fc          	movzwl -0x4(%rbp),%eax
    84df:	5d                   	pop    %rbp
    84e0:	c3                   	retq   

00000000000084e1 <safe_lshift_func_int16_t_s_u>:
    84e1:	f3 0f 1e fa          	endbr64 
    84e5:	55                   	push   %rbp
    84e6:	48 89 e5             	mov    %rsp,%rbp
    84e9:	89 f8                	mov    %edi,%eax
    84eb:	89 75 f8             	mov    %esi,-0x8(%rbp)
    84ee:	66 89 45 fc          	mov    %ax,-0x4(%rbp)
    84f2:	66 83 7d fc 00       	cmpw   $0x0,-0x4(%rbp)
    84f7:	78 2b                	js     8524 <safe_lshift_func_int16_t_s_u+0x43>
    84f9:	83 7d f8 1f          	cmpl   $0x1f,-0x8(%rbp)
    84fd:	77 25                	ja     8524 <safe_lshift_func_int16_t_s_u+0x43>
    84ff:	0f bf 55 fc          	movswl -0x4(%rbp),%edx
    8503:	8b 45 f8             	mov    -0x8(%rbp),%eax
    8506:	be ff 7f 00 00       	mov    $0x7fff,%esi
    850b:	89 c1                	mov    %eax,%ecx
    850d:	d3 fe                	sar    %cl,%esi
    850f:	89 f0                	mov    %esi,%eax
    8511:	39 c2                	cmp    %eax,%edx
    8513:	7f 0f                	jg     8524 <safe_lshift_func_int16_t_s_u+0x43>
    8515:	0f bf 55 fc          	movswl -0x4(%rbp),%edx
    8519:	8b 45 f8             	mov    -0x8(%rbp),%eax
    851c:	89 c1                	mov    %eax,%ecx
    851e:	d3 e2                	shl    %cl,%edx
    8520:	89 d0                	mov    %edx,%eax
    8522:	eb 04                	jmp    8528 <safe_lshift_func_int16_t_s_u+0x47>
    8524:	0f b7 45 fc          	movzwl -0x4(%rbp),%eax
    8528:	5d                   	pop    %rbp
    8529:	c3                   	retq   

000000000000852a <safe_rshift_func_int16_t_s_s>:
    852a:	f3 0f 1e fa          	endbr64 
    852e:	55                   	push   %rbp
    852f:	48 89 e5             	mov    %rsp,%rbp
    8532:	89 f8                	mov    %edi,%eax
    8534:	89 75 f8             	mov    %esi,-0x8(%rbp)
    8537:	66 89 45 fc          	mov    %ax,-0x4(%rbp)
    853b:	66 83 7d fc 00       	cmpw   $0x0,-0x4(%rbp)
    8540:	78 1b                	js     855d <safe_rshift_func_int16_t_s_s+0x33>
    8542:	83 7d f8 00          	cmpl   $0x0,-0x8(%rbp)
    8546:	78 15                	js     855d <safe_rshift_func_int16_t_s_s+0x33>
    8548:	83 7d f8 1f          	cmpl   $0x1f,-0x8(%rbp)
    854c:	7f 0f                	jg     855d <safe_rshift_func_int16_t_s_s+0x33>
    854e:	0f bf 55 fc          	movswl -0x4(%rbp),%edx
    8552:	8b 45 f8             	mov    -0x8(%rbp),%eax
    8555:	89 c1                	mov    %eax,%ecx
    8557:	d3 fa                	sar    %cl,%edx
    8559:	89 d0                	mov    %edx,%eax
    855b:	eb 04                	jmp    8561 <safe_rshift_func_int16_t_s_s+0x37>
    855d:	0f b7 45 fc          	movzwl -0x4(%rbp),%eax
    8561:	5d                   	pop    %rbp
    8562:	c3                   	retq   

0000000000008563 <safe_rshift_func_int16_t_s_u>:
    8563:	f3 0f 1e fa          	endbr64 
    8567:	55                   	push   %rbp
    8568:	48 89 e5             	mov    %rsp,%rbp
    856b:	89 f8                	mov    %edi,%eax
    856d:	89 75 f8             	mov    %esi,-0x8(%rbp)
    8570:	66 89 45 fc          	mov    %ax,-0x4(%rbp)
    8574:	66 83 7d fc 00       	cmpw   $0x0,-0x4(%rbp)
    8579:	78 15                	js     8590 <safe_rshift_func_int16_t_s_u+0x2d>
    857b:	83 7d f8 1f          	cmpl   $0x1f,-0x8(%rbp)
    857f:	77 0f                	ja     8590 <safe_rshift_func_int16_t_s_u+0x2d>
    8581:	0f bf 55 fc          	movswl -0x4(%rbp),%edx
    8585:	8b 45 f8             	mov    -0x8(%rbp),%eax
    8588:	89 c1                	mov    %eax,%ecx
    858a:	d3 fa                	sar    %cl,%edx
    858c:	89 d0                	mov    %edx,%eax
    858e:	eb 04                	jmp    8594 <safe_rshift_func_int16_t_s_u+0x31>
    8590:	0f b7 45 fc          	movzwl -0x4(%rbp),%eax
    8594:	5d                   	pop    %rbp
    8595:	c3                   	retq   

0000000000008596 <safe_unary_minus_func_int32_t_s>:
    8596:	f3 0f 1e fa          	endbr64 
    859a:	55                   	push   %rbp
    859b:	48 89 e5             	mov    %rsp,%rbp
    859e:	89 7d fc             	mov    %edi,-0x4(%rbp)
    85a1:	81 7d fc 00 00 00 80 	cmpl   $0x80000000,-0x4(%rbp)
    85a8:	74 07                	je     85b1 <safe_unary_minus_func_int32_t_s+0x1b>
    85aa:	8b 45 fc             	mov    -0x4(%rbp),%eax
    85ad:	f7 d8                	neg    %eax
    85af:	eb 03                	jmp    85b4 <safe_unary_minus_func_int32_t_s+0x1e>
    85b1:	8b 45 fc             	mov    -0x4(%rbp),%eax
    85b4:	5d                   	pop    %rbp
    85b5:	c3                   	retq   

00000000000085b6 <safe_add_func_int32_t_s_s>:
    85b6:	f3 0f 1e fa          	endbr64 
    85ba:	55                   	push   %rbp
    85bb:	48 89 e5             	mov    %rsp,%rbp
    85be:	89 7d fc             	mov    %edi,-0x4(%rbp)
    85c1:	89 75 f8             	mov    %esi,-0x8(%rbp)
    85c4:	83 7d fc 00          	cmpl   $0x0,-0x4(%rbp)
    85c8:	7e 13                	jle    85dd <safe_add_func_int32_t_s_s+0x27>
    85ca:	83 7d f8 00          	cmpl   $0x0,-0x8(%rbp)
    85ce:	7e 0d                	jle    85dd <safe_add_func_int32_t_s_s+0x27>
    85d0:	b8 ff ff ff 7f       	mov    $0x7fffffff,%eax
    85d5:	2b 45 f8             	sub    -0x8(%rbp),%eax
    85d8:	39 45 fc             	cmp    %eax,-0x4(%rbp)
    85db:	7f 23                	jg     8600 <safe_add_func_int32_t_s_s+0x4a>
    85dd:	83 7d fc 00          	cmpl   $0x0,-0x4(%rbp)
    85e1:	79 13                	jns    85f6 <safe_add_func_int32_t_s_s+0x40>
    85e3:	83 7d f8 00          	cmpl   $0x0,-0x8(%rbp)
    85e7:	79 0d                	jns    85f6 <safe_add_func_int32_t_s_s+0x40>
    85e9:	b8 00 00 00 80       	mov    $0x80000000,%eax
    85ee:	2b 45 f8             	sub    -0x8(%rbp),%eax
    85f1:	39 45 fc             	cmp    %eax,-0x4(%rbp)
    85f4:	7c 0a                	jl     8600 <safe_add_func_int32_t_s_s+0x4a>
    85f6:	8b 55 fc             	mov    -0x4(%rbp),%edx
    85f9:	8b 45 f8             	mov    -0x8(%rbp),%eax
    85fc:	01 d0                	add    %edx,%eax
    85fe:	eb 03                	jmp    8603 <safe_add_func_int32_t_s_s+0x4d>
    8600:	8b 45 fc             	mov    -0x4(%rbp),%eax
    8603:	5d                   	pop    %rbp
    8604:	c3                   	retq   

0000000000008605 <safe_sub_func_int32_t_s_s>:
    8605:	f3 0f 1e fa          	endbr64 
    8609:	55                   	push   %rbp
    860a:	48 89 e5             	mov    %rsp,%rbp
    860d:	89 7d fc             	mov    %edi,-0x4(%rbp)
    8610:	89 75 f8             	mov    %esi,-0x8(%rbp)
    8613:	8b 45 fc             	mov    -0x4(%rbp),%eax
    8616:	33 45 f8             	xor    -0x8(%rbp),%eax
    8619:	89 c2                	mov    %eax,%edx
    861b:	8b 45 fc             	mov    -0x4(%rbp),%eax
    861e:	33 45 f8             	xor    -0x8(%rbp),%eax
    8621:	25 00 00 00 80       	and    $0x80000000,%eax
    8626:	33 45 fc             	xor    -0x4(%rbp),%eax
    8629:	2b 45 f8             	sub    -0x8(%rbp),%eax
    862c:	33 45 f8             	xor    -0x8(%rbp),%eax
    862f:	21 d0                	and    %edx,%eax
    8631:	85 c0                	test   %eax,%eax
    8633:	78 08                	js     863d <safe_sub_func_int32_t_s_s+0x38>
    8635:	8b 45 fc             	mov    -0x4(%rbp),%eax
    8638:	2b 45 f8             	sub    -0x8(%rbp),%eax
    863b:	eb 03                	jmp    8640 <safe_sub_func_int32_t_s_s+0x3b>
    863d:	8b 45 fc             	mov    -0x4(%rbp),%eax
    8640:	5d                   	pop    %rbp
    8641:	c3                   	retq   

0000000000008642 <safe_mul_func_int32_t_s_s>:
    8642:	f3 0f 1e fa          	endbr64 
    8646:	55                   	push   %rbp
    8647:	48 89 e5             	mov    %rsp,%rbp
    864a:	89 7d fc             	mov    %edi,-0x4(%rbp)
    864d:	89 75 f8             	mov    %esi,-0x8(%rbp)
    8650:	83 7d fc 00          	cmpl   $0x0,-0x4(%rbp)
    8654:	7e 14                	jle    866a <safe_mul_func_int32_t_s_s+0x28>
    8656:	83 7d f8 00          	cmpl   $0x0,-0x8(%rbp)
    865a:	7e 0e                	jle    866a <safe_mul_func_int32_t_s_s+0x28>
    865c:	b8 ff ff ff 7f       	mov    $0x7fffffff,%eax
    8661:	99                   	cltd   
    8662:	f7 7d f8             	idivl  -0x8(%rbp)
    8665:	39 45 fc             	cmp    %eax,-0x4(%rbp)
    8668:	7f 5d                	jg     86c7 <safe_mul_func_int32_t_s_s+0x85>
    866a:	83 7d fc 00          	cmpl   $0x0,-0x4(%rbp)
    866e:	7e 14                	jle    8684 <safe_mul_func_int32_t_s_s+0x42>
    8670:	83 7d f8 00          	cmpl   $0x0,-0x8(%rbp)
    8674:	7f 0e                	jg     8684 <safe_mul_func_int32_t_s_s+0x42>
    8676:	b8 00 00 00 80       	mov    $0x80000000,%eax
    867b:	99                   	cltd   
    867c:	f7 7d fc             	idivl  -0x4(%rbp)
    867f:	39 45 f8             	cmp    %eax,-0x8(%rbp)
    8682:	7c 43                	jl     86c7 <safe_mul_func_int32_t_s_s+0x85>
    8684:	83 7d fc 00          	cmpl   $0x0,-0x4(%rbp)
    8688:	7f 14                	jg     869e <safe_mul_func_int32_t_s_s+0x5c>
    868a:	83 7d f8 00          	cmpl   $0x0,-0x8(%rbp)
    868e:	7e 0e                	jle    869e <safe_mul_func_int32_t_s_s+0x5c>
    8690:	b8 00 00 00 80       	mov    $0x80000000,%eax
    8695:	99                   	cltd   
    8696:	f7 7d f8             	idivl  -0x8(%rbp)
    8699:	39 45 fc             	cmp    %eax,-0x4(%rbp)
    869c:	7c 29                	jl     86c7 <safe_mul_func_int32_t_s_s+0x85>
    869e:	83 7d fc 00          	cmpl   $0x0,-0x4(%rbp)
    86a2:	7f 1a                	jg     86be <safe_mul_func_int32_t_s_s+0x7c>
    86a4:	83 7d f8 00          	cmpl   $0x0,-0x8(%rbp)
    86a8:	7f 14                	jg     86be <safe_mul_func_int32_t_s_s+0x7c>
    86aa:	83 7d fc 00          	cmpl   $0x0,-0x4(%rbp)
    86ae:	74 0e                	je     86be <safe_mul_func_int32_t_s_s+0x7c>
    86b0:	b8 ff ff ff 7f       	mov    $0x7fffffff,%eax
    86b5:	99                   	cltd   
    86b6:	f7 7d fc             	idivl  -0x4(%rbp)
    86b9:	39 45 f8             	cmp    %eax,-0x8(%rbp)
    86bc:	7c 09                	jl     86c7 <safe_mul_func_int32_t_s_s+0x85>
    86be:	8b 45 fc             	mov    -0x4(%rbp),%eax
    86c1:	0f af 45 f8          	imul   -0x8(%rbp),%eax
    86c5:	eb 03                	jmp    86ca <safe_mul_func_int32_t_s_s+0x88>
    86c7:	8b 45 fc             	mov    -0x4(%rbp),%eax
    86ca:	5d                   	pop    %rbp
    86cb:	c3                   	retq   

00000000000086cc <safe_mod_func_int32_t_s_s>:
    86cc:	f3 0f 1e fa          	endbr64 
    86d0:	55                   	push   %rbp
    86d1:	48 89 e5             	mov    %rsp,%rbp
    86d4:	89 7d fc             	mov    %edi,-0x4(%rbp)
    86d7:	89 75 f8             	mov    %esi,-0x8(%rbp)
    86da:	83 7d f8 00          	cmpl   $0x0,-0x8(%rbp)
    86de:	74 1a                	je     86fa <safe_mod_func_int32_t_s_s+0x2e>
    86e0:	81 7d fc 00 00 00 80 	cmpl   $0x80000000,-0x4(%rbp)
    86e7:	75 06                	jne    86ef <safe_mod_func_int32_t_s_s+0x23>
    86e9:	83 7d f8 ff          	cmpl   $0xffffffff,-0x8(%rbp)
    86ed:	74 0b                	je     86fa <safe_mod_func_int32_t_s_s+0x2e>
    86ef:	8b 45 fc             	mov    -0x4(%rbp),%eax
    86f2:	99                   	cltd   
    86f3:	f7 7d f8             	idivl  -0x8(%rbp)
    86f6:	89 d0                	mov    %edx,%eax
    86f8:	eb 03                	jmp    86fd <safe_mod_func_int32_t_s_s+0x31>
    86fa:	8b 45 fc             	mov    -0x4(%rbp),%eax
    86fd:	5d                   	pop    %rbp
    86fe:	c3                   	retq   

00000000000086ff <safe_div_func_int32_t_s_s>:
    86ff:	f3 0f 1e fa          	endbr64 
    8703:	55                   	push   %rbp
    8704:	48 89 e5             	mov    %rsp,%rbp
    8707:	89 7d fc             	mov    %edi,-0x4(%rbp)
    870a:	89 75 f8             	mov    %esi,-0x8(%rbp)
    870d:	83 7d f8 00          	cmpl   $0x0,-0x8(%rbp)
    8711:	74 18                	je     872b <safe_div_func_int32_t_s_s+0x2c>
    8713:	81 7d fc 00 00 00 80 	cmpl   $0x80000000,-0x4(%rbp)
    871a:	75 06                	jne    8722 <safe_div_func_int32_t_s_s+0x23>
    871c:	83 7d f8 ff          	cmpl   $0xffffffff,-0x8(%rbp)
    8720:	74 09                	je     872b <safe_div_func_int32_t_s_s+0x2c>
    8722:	8b 45 fc             	mov    -0x4(%rbp),%eax
    8725:	99                   	cltd   
    8726:	f7 7d f8             	idivl  -0x8(%rbp)
    8729:	eb 03                	jmp    872e <safe_div_func_int32_t_s_s+0x2f>
    872b:	8b 45 fc             	mov    -0x4(%rbp),%eax
    872e:	5d                   	pop    %rbp
    872f:	c3                   	retq   

0000000000008730 <safe_lshift_func_int32_t_s_s>:
    8730:	f3 0f 1e fa          	endbr64 
    8734:	55                   	push   %rbp
    8735:	48 89 e5             	mov    %rsp,%rbp
    8738:	89 7d fc             	mov    %edi,-0x4(%rbp)
    873b:	89 75 f8             	mov    %esi,-0x8(%rbp)
    873e:	83 7d fc 00          	cmpl   $0x0,-0x4(%rbp)
    8742:	78 2d                	js     8771 <safe_lshift_func_int32_t_s_s+0x41>
    8744:	83 7d f8 00          	cmpl   $0x0,-0x8(%rbp)
    8748:	78 27                	js     8771 <safe_lshift_func_int32_t_s_s+0x41>
    874a:	83 7d f8 1f          	cmpl   $0x1f,-0x8(%rbp)
    874e:	7f 21                	jg     8771 <safe_lshift_func_int32_t_s_s+0x41>
    8750:	8b 45 f8             	mov    -0x8(%rbp),%eax
    8753:	ba ff ff ff 7f       	mov    $0x7fffffff,%edx
    8758:	89 c1                	mov    %eax,%ecx
    875a:	d3 fa                	sar    %cl,%edx
    875c:	89 d0                	mov    %edx,%eax
    875e:	39 45 fc             	cmp    %eax,-0x4(%rbp)
    8761:	7f 0e                	jg     8771 <safe_lshift_func_int32_t_s_s+0x41>
    8763:	8b 45 f8             	mov    -0x8(%rbp),%eax
    8766:	8b 55 fc             	mov    -0x4(%rbp),%edx
    8769:	89 c1                	mov    %eax,%ecx
    876b:	d3 e2                	shl    %cl,%edx
    876d:	89 d0                	mov    %edx,%eax
    876f:	eb 03                	jmp    8774 <safe_lshift_func_int32_t_s_s+0x44>
    8771:	8b 45 fc             	mov    -0x4(%rbp),%eax
    8774:	5d                   	pop    %rbp
    8775:	c3                   	retq   

0000000000008776 <safe_lshift_func_int32_t_s_u>:
    8776:	f3 0f 1e fa          	endbr64 
    877a:	55                   	push   %rbp
    877b:	48 89 e5             	mov    %rsp,%rbp
    877e:	89 7d fc             	mov    %edi,-0x4(%rbp)
    8781:	89 75 f8             	mov    %esi,-0x8(%rbp)
    8784:	83 7d fc 00          	cmpl   $0x0,-0x4(%rbp)
    8788:	78 27                	js     87b1 <safe_lshift_func_int32_t_s_u+0x3b>
    878a:	83 7d f8 1f          	cmpl   $0x1f,-0x8(%rbp)
    878e:	77 21                	ja     87b1 <safe_lshift_func_int32_t_s_u+0x3b>
    8790:	8b 45 f8             	mov    -0x8(%rbp),%eax
    8793:	ba ff ff ff 7f       	mov    $0x7fffffff,%edx
    8798:	89 c1                	mov    %eax,%ecx
    879a:	d3 fa                	sar    %cl,%edx
    879c:	89 d0                	mov    %edx,%eax
    879e:	39 45 fc             	cmp    %eax,-0x4(%rbp)
    87a1:	7f 0e                	jg     87b1 <safe_lshift_func_int32_t_s_u+0x3b>
    87a3:	8b 45 f8             	mov    -0x8(%rbp),%eax
    87a6:	8b 55 fc             	mov    -0x4(%rbp),%edx
    87a9:	89 c1                	mov    %eax,%ecx
    87ab:	d3 e2                	shl    %cl,%edx
    87ad:	89 d0                	mov    %edx,%eax
    87af:	eb 03                	jmp    87b4 <safe_lshift_func_int32_t_s_u+0x3e>
    87b1:	8b 45 fc             	mov    -0x4(%rbp),%eax
    87b4:	5d                   	pop    %rbp
    87b5:	c3                   	retq   

00000000000087b6 <safe_rshift_func_int32_t_s_s>:
    87b6:	f3 0f 1e fa          	endbr64 
    87ba:	55                   	push   %rbp
    87bb:	48 89 e5             	mov    %rsp,%rbp
    87be:	89 7d fc             	mov    %edi,-0x4(%rbp)
    87c1:	89 75 f8             	mov    %esi,-0x8(%rbp)
    87c4:	83 7d fc 00          	cmpl   $0x0,-0x4(%rbp)
    87c8:	78 1a                	js     87e4 <safe_rshift_func_int32_t_s_s+0x2e>
    87ca:	83 7d f8 00          	cmpl   $0x0,-0x8(%rbp)
    87ce:	78 14                	js     87e4 <safe_rshift_func_int32_t_s_s+0x2e>
    87d0:	83 7d f8 1f          	cmpl   $0x1f,-0x8(%rbp)
    87d4:	7f 0e                	jg     87e4 <safe_rshift_func_int32_t_s_s+0x2e>
    87d6:	8b 45 f8             	mov    -0x8(%rbp),%eax
    87d9:	8b 55 fc             	mov    -0x4(%rbp),%edx
    87dc:	89 c1                	mov    %eax,%ecx
    87de:	d3 fa                	sar    %cl,%edx
    87e0:	89 d0                	mov    %edx,%eax
    87e2:	eb 03                	jmp    87e7 <safe_rshift_func_int32_t_s_s+0x31>
    87e4:	8b 45 fc             	mov    -0x4(%rbp),%eax
    87e7:	5d                   	pop    %rbp
    87e8:	c3                   	retq   

00000000000087e9 <safe_rshift_func_int32_t_s_u>:
    87e9:	f3 0f 1e fa          	endbr64 
    87ed:	55                   	push   %rbp
    87ee:	48 89 e5             	mov    %rsp,%rbp
    87f1:	89 7d fc             	mov    %edi,-0x4(%rbp)
    87f4:	89 75 f8             	mov    %esi,-0x8(%rbp)
    87f7:	83 7d fc 00          	cmpl   $0x0,-0x4(%rbp)
    87fb:	78 14                	js     8811 <safe_rshift_func_int32_t_s_u+0x28>
    87fd:	83 7d f8 1f          	cmpl   $0x1f,-0x8(%rbp)
    8801:	77 0e                	ja     8811 <safe_rshift_func_int32_t_s_u+0x28>
    8803:	8b 45 f8             	mov    -0x8(%rbp),%eax
    8806:	8b 55 fc             	mov    -0x4(%rbp),%edx
    8809:	89 c1                	mov    %eax,%ecx
    880b:	d3 fa                	sar    %cl,%edx
    880d:	89 d0                	mov    %edx,%eax
    880f:	eb 03                	jmp    8814 <safe_rshift_func_int32_t_s_u+0x2b>
    8811:	8b 45 fc             	mov    -0x4(%rbp),%eax
    8814:	5d                   	pop    %rbp
    8815:	c3                   	retq   

0000000000008816 <safe_unary_minus_func_int64_t_s>:
    8816:	f3 0f 1e fa          	endbr64 
    881a:	55                   	push   %rbp
    881b:	48 89 e5             	mov    %rsp,%rbp
    881e:	48 89 7d f8          	mov    %rdi,-0x8(%rbp)
    8822:	48 b8 00 00 00 00 00 	movabs $0x8000000000000000,%rax
    8829:	00 00 80 
    882c:	48 39 45 f8          	cmp    %rax,-0x8(%rbp)
    8830:	74 09                	je     883b <safe_unary_minus_func_int64_t_s+0x25>
    8832:	48 8b 45 f8          	mov    -0x8(%rbp),%rax
    8836:	48 f7 d8             	neg    %rax
    8839:	eb 04                	jmp    883f <safe_unary_minus_func_int64_t_s+0x29>
    883b:	48 8b 45 f8          	mov    -0x8(%rbp),%rax
    883f:	5d                   	pop    %rbp
    8840:	c3                   	retq   

0000000000008841 <safe_add_func_int64_t_s_s>:
    8841:	f3 0f 1e fa          	endbr64 
    8845:	55                   	push   %rbp
    8846:	48 89 e5             	mov    %rsp,%rbp
    8849:	48 89 7d f8          	mov    %rdi,-0x8(%rbp)
    884d:	48 89 75 f0          	mov    %rsi,-0x10(%rbp)
    8851:	48 83 7d f8 00       	cmpq   $0x0,-0x8(%rbp)
    8856:	7e 1b                	jle    8873 <safe_add_func_int64_t_s_s+0x32>
    8858:	48 83 7d f0 00       	cmpq   $0x0,-0x10(%rbp)
    885d:	7e 14                	jle    8873 <safe_add_func_int64_t_s_s+0x32>
    885f:	48 b8 ff ff ff ff ff 	movabs $0x7fffffffffffffff,%rax
    8866:	ff ff 7f 
    8869:	48 2b 45 f0          	sub    -0x10(%rbp),%rax
    886d:	48 39 45 f8          	cmp    %rax,-0x8(%rbp)
    8871:	7f 2f                	jg     88a2 <safe_add_func_int64_t_s_s+0x61>
    8873:	48 83 7d f8 00       	cmpq   $0x0,-0x8(%rbp)
    8878:	79 1b                	jns    8895 <safe_add_func_int64_t_s_s+0x54>
    887a:	48 83 7d f0 00       	cmpq   $0x0,-0x10(%rbp)
    887f:	79 14                	jns    8895 <safe_add_func_int64_t_s_s+0x54>
    8881:	48 b8 00 00 00 00 00 	movabs $0x8000000000000000,%rax
    8888:	00 00 80 
    888b:	48 2b 45 f0          	sub    -0x10(%rbp),%rax
    888f:	48 39 45 f8          	cmp    %rax,-0x8(%rbp)
    8893:	7c 0d                	jl     88a2 <safe_add_func_int64_t_s_s+0x61>
    8895:	48 8b 55 f8          	mov    -0x8(%rbp),%rdx
    8899:	48 8b 45 f0          	mov    -0x10(%rbp),%rax
    889d:	48 01 d0             	add    %rdx,%rax
    88a0:	eb 04                	jmp    88a6 <safe_add_func_int64_t_s_s+0x65>
    88a2:	48 8b 45 f8          	mov    -0x8(%rbp),%rax
    88a6:	5d                   	pop    %rbp
    88a7:	c3                   	retq   

00000000000088a8 <safe_sub_func_int64_t_s_s>:
    88a8:	f3 0f 1e fa          	endbr64 
    88ac:	55                   	push   %rbp
    88ad:	48 89 e5             	mov    %rsp,%rbp
    88b0:	48 89 7d f8          	mov    %rdi,-0x8(%rbp)
    88b4:	48 89 75 f0          	mov    %rsi,-0x10(%rbp)
    88b8:	48 8b 45 f8          	mov    -0x8(%rbp),%rax
    88bc:	48 33 45 f0          	xor    -0x10(%rbp),%rax
    88c0:	48 89 c2             	mov    %rax,%rdx
    88c3:	48 8b 45 f8          	mov    -0x8(%rbp),%rax
    88c7:	48 33 45 f0          	xor    -0x10(%rbp),%rax
    88cb:	48 b9 00 00 00 00 00 	movabs $0x8000000000000000,%rcx
    88d2:	00 00 80 
    88d5:	48 21 c8             	and    %rcx,%rax
    88d8:	48 33 45 f8          	xor    -0x8(%rbp),%rax
    88dc:	48 2b 45 f0          	sub    -0x10(%rbp),%rax
    88e0:	48 33 45 f0          	xor    -0x10(%rbp),%rax
    88e4:	48 21 d0             	and    %rdx,%rax
    88e7:	48 85 c0             	test   %rax,%rax
    88ea:	78 0a                	js     88f6 <safe_sub_func_int64_t_s_s+0x4e>
    88ec:	48 8b 45 f8          	mov    -0x8(%rbp),%rax
    88f0:	48 2b 45 f0          	sub    -0x10(%rbp),%rax
    88f4:	eb 04                	jmp    88fa <safe_sub_func_int64_t_s_s+0x52>
    88f6:	48 8b 45 f8          	mov    -0x8(%rbp),%rax
    88fa:	5d                   	pop    %rbp
    88fb:	c3                   	retq   

00000000000088fc <safe_mul_func_int64_t_s_s>:
    88fc:	f3 0f 1e fa          	endbr64 
    8900:	55                   	push   %rbp
    8901:	48 89 e5             	mov    %rsp,%rbp
    8904:	48 89 7d f8          	mov    %rdi,-0x8(%rbp)
    8908:	48 89 75 f0          	mov    %rsi,-0x10(%rbp)
    890c:	48 83 7d f8 00       	cmpq   $0x0,-0x8(%rbp)
    8911:	7e 1d                	jle    8930 <safe_mul_func_int64_t_s_s+0x34>
    8913:	48 83 7d f0 00       	cmpq   $0x0,-0x10(%rbp)
    8918:	7e 16                	jle    8930 <safe_mul_func_int64_t_s_s+0x34>
    891a:	48 b8 ff ff ff ff ff 	movabs $0x7fffffffffffffff,%rax
    8921:	ff ff 7f 
    8924:	48 99                	cqto   
    8926:	48 f7 7d f0          	idivq  -0x10(%rbp)
    892a:	48 39 45 f8          	cmp    %rax,-0x8(%rbp)
    892e:	7f 7e                	jg     89ae <safe_mul_func_int64_t_s_s+0xb2>
    8930:	48 83 7d f8 00       	cmpq   $0x0,-0x8(%rbp)
    8935:	7e 1d                	jle    8954 <safe_mul_func_int64_t_s_s+0x58>
    8937:	48 83 7d f0 00       	cmpq   $0x0,-0x10(%rbp)
    893c:	7f 16                	jg     8954 <safe_mul_func_int64_t_s_s+0x58>
    893e:	48 b8 00 00 00 00 00 	movabs $0x8000000000000000,%rax
    8945:	00 00 80 
    8948:	48 99                	cqto   
    894a:	48 f7 7d f8          	idivq  -0x8(%rbp)
    894e:	48 39 45 f0          	cmp    %rax,-0x10(%rbp)
    8952:	7c 5a                	jl     89ae <safe_mul_func_int64_t_s_s+0xb2>
    8954:	48 83 7d f8 00       	cmpq   $0x0,-0x8(%rbp)
    8959:	7f 1d                	jg     8978 <safe_mul_func_int64_t_s_s+0x7c>
    895b:	48 83 7d f0 00       	cmpq   $0x0,-0x10(%rbp)
    8960:	7e 16                	jle    8978 <safe_mul_func_int64_t_s_s+0x7c>
    8962:	48 b8 00 00 00 00 00 	movabs $0x8000000000000000,%rax
    8969:	00 00 80 
    896c:	48 99                	cqto   
    896e:	48 f7 7d f0          	idivq  -0x10(%rbp)
    8972:	48 39 45 f8          	cmp    %rax,-0x8(%rbp)
    8976:	7c 36                	jl     89ae <safe_mul_func_int64_t_s_s+0xb2>
    8978:	48 83 7d f8 00       	cmpq   $0x0,-0x8(%rbp)
    897d:	7f 24                	jg     89a3 <safe_mul_func_int64_t_s_s+0xa7>
    897f:	48 83 7d f0 00       	cmpq   $0x0,-0x10(%rbp)
    8984:	7f 1d                	jg     89a3 <safe_mul_func_int64_t_s_s+0xa7>
    8986:	48 83 7d f8 00       	cmpq   $0x0,-0x8(%rbp)
    898b:	74 16                	je     89a3 <safe_mul_func_int64_t_s_s+0xa7>
    898d:	48 b8 ff ff ff ff ff 	movabs $0x7fffffffffffffff,%rax
    8994:	ff ff 7f 
    8997:	48 99                	cqto   
    8999:	48 f7 7d f8          	idivq  -0x8(%rbp)
    899d:	48 39 45 f0          	cmp    %rax,-0x10(%rbp)
    89a1:	7c 0b                	jl     89ae <safe_mul_func_int64_t_s_s+0xb2>
    89a3:	48 8b 45 f8          	mov    -0x8(%rbp),%rax
    89a7:	48 0f af 45 f0       	imul   -0x10(%rbp),%rax
    89ac:	eb 04                	jmp    89b2 <safe_mul_func_int64_t_s_s+0xb6>
    89ae:	48 8b 45 f8          	mov    -0x8(%rbp),%rax
    89b2:	5d                   	pop    %rbp
    89b3:	c3                   	retq   

00000000000089b4 <safe_mod_func_int64_t_s_s>:
    89b4:	f3 0f 1e fa          	endbr64 
    89b8:	55                   	push   %rbp
    89b9:	48 89 e5             	mov    %rsp,%rbp
    89bc:	48 89 7d f8          	mov    %rdi,-0x8(%rbp)
    89c0:	48 89 75 f0          	mov    %rsi,-0x10(%rbp)
    89c4:	48 83 7d f0 00       	cmpq   $0x0,-0x10(%rbp)
    89c9:	74 26                	je     89f1 <safe_mod_func_int64_t_s_s+0x3d>
    89cb:	48 b8 00 00 00 00 00 	movabs $0x8000000000000000,%rax
    89d2:	00 00 80 
    89d5:	48 39 45 f8          	cmp    %rax,-0x8(%rbp)
    89d9:	75 07                	jne    89e2 <safe_mod_func_int64_t_s_s+0x2e>
    89db:	48 83 7d f0 ff       	cmpq   $0xffffffffffffffff,-0x10(%rbp)
    89e0:	74 0f                	je     89f1 <safe_mod_func_int64_t_s_s+0x3d>
    89e2:	48 8b 45 f8          	mov    -0x8(%rbp),%rax
    89e6:	48 99                	cqto   
    89e8:	48 f7 7d f0          	idivq  -0x10(%rbp)
    89ec:	48 89 d0             	mov    %rdx,%rax
    89ef:	eb 04                	jmp    89f5 <safe_mod_func_int64_t_s_s+0x41>
    89f1:	48 8b 45 f8          	mov    -0x8(%rbp),%rax
    89f5:	5d                   	pop    %rbp
    89f6:	c3                   	retq   

00000000000089f7 <safe_div_func_int64_t_s_s>:
    89f7:	f3 0f 1e fa          	endbr64 
    89fb:	55                   	push   %rbp
    89fc:	48 89 e5             	mov    %rsp,%rbp
    89ff:	48 89 7d f8          	mov    %rdi,-0x8(%rbp)
    8a03:	48 89 75 f0          	mov    %rsi,-0x10(%rbp)
    8a07:	48 83 7d f0 00       	cmpq   $0x0,-0x10(%rbp)
    8a0c:	74 23                	je     8a31 <safe_div_func_int64_t_s_s+0x3a>
    8a0e:	48 b8 00 00 00 00 00 	movabs $0x8000000000000000,%rax
    8a15:	00 00 80 
    8a18:	48 39 45 f8          	cmp    %rax,-0x8(%rbp)
    8a1c:	75 07                	jne    8a25 <safe_div_func_int64_t_s_s+0x2e>
    8a1e:	48 83 7d f0 ff       	cmpq   $0xffffffffffffffff,-0x10(%rbp)
    8a23:	74 0c                	je     8a31 <safe_div_func_int64_t_s_s+0x3a>
    8a25:	48 8b 45 f8          	mov    -0x8(%rbp),%rax
    8a29:	48 99                	cqto   
    8a2b:	48 f7 7d f0          	idivq  -0x10(%rbp)
    8a2f:	eb 04                	jmp    8a35 <safe_div_func_int64_t_s_s+0x3e>
    8a31:	48 8b 45 f8          	mov    -0x8(%rbp),%rax
    8a35:	5d                   	pop    %rbp
    8a36:	c3                   	retq   

0000000000008a37 <safe_lshift_func_int64_t_s_s>:
    8a37:	f3 0f 1e fa          	endbr64 
    8a3b:	55                   	push   %rbp
    8a3c:	48 89 e5             	mov    %rsp,%rbp
    8a3f:	48 89 7d f8          	mov    %rdi,-0x8(%rbp)
    8a43:	89 75 f4             	mov    %esi,-0xc(%rbp)
    8a46:	48 83 7d f8 00       	cmpq   $0x0,-0x8(%rbp)
    8a4b:	78 38                	js     8a85 <safe_lshift_func_int64_t_s_s+0x4e>
    8a4d:	83 7d f4 00          	cmpl   $0x0,-0xc(%rbp)
    8a51:	78 32                	js     8a85 <safe_lshift_func_int64_t_s_s+0x4e>
    8a53:	83 7d f4 1f          	cmpl   $0x1f,-0xc(%rbp)
    8a57:	7f 2c                	jg     8a85 <safe_lshift_func_int64_t_s_s+0x4e>
    8a59:	8b 45 f4             	mov    -0xc(%rbp),%eax
    8a5c:	48 ba ff ff ff ff ff 	movabs $0x7fffffffffffffff,%rdx
    8a63:	ff ff 7f 
    8a66:	89 c1                	mov    %eax,%ecx
    8a68:	48 d3 fa             	sar    %cl,%rdx
    8a6b:	48 89 d0             	mov    %rdx,%rax
    8a6e:	48 39 45 f8          	cmp    %rax,-0x8(%rbp)
    8a72:	7f 11                	jg     8a85 <safe_lshift_func_int64_t_s_s+0x4e>
    8a74:	8b 45 f4             	mov    -0xc(%rbp),%eax
    8a77:	48 8b 55 f8          	mov    -0x8(%rbp),%rdx
    8a7b:	89 c1                	mov    %eax,%ecx
    8a7d:	48 d3 e2             	shl    %cl,%rdx
    8a80:	48 89 d0             	mov    %rdx,%rax
    8a83:	eb 04                	jmp    8a89 <safe_lshift_func_int64_t_s_s+0x52>
    8a85:	48 8b 45 f8          	mov    -0x8(%rbp),%rax
    8a89:	5d                   	pop    %rbp
    8a8a:	c3                   	retq   

0000000000008a8b <safe_lshift_func_int64_t_s_u>:
    8a8b:	f3 0f 1e fa          	endbr64 
    8a8f:	55                   	push   %rbp
    8a90:	48 89 e5             	mov    %rsp,%rbp
    8a93:	48 89 7d f8          	mov    %rdi,-0x8(%rbp)
    8a97:	89 75 f4             	mov    %esi,-0xc(%rbp)
    8a9a:	48 83 7d f8 00       	cmpq   $0x0,-0x8(%rbp)
    8a9f:	78 32                	js     8ad3 <safe_lshift_func_int64_t_s_u+0x48>
    8aa1:	83 7d f4 1f          	cmpl   $0x1f,-0xc(%rbp)
    8aa5:	77 2c                	ja     8ad3 <safe_lshift_func_int64_t_s_u+0x48>
    8aa7:	8b 45 f4             	mov    -0xc(%rbp),%eax
    8aaa:	48 ba ff ff ff ff ff 	movabs $0x7fffffffffffffff,%rdx
    8ab1:	ff ff 7f 
    8ab4:	89 c1                	mov    %eax,%ecx
    8ab6:	48 d3 fa             	sar    %cl,%rdx
    8ab9:	48 89 d0             	mov    %rdx,%rax
    8abc:	48 39 45 f8          	cmp    %rax,-0x8(%rbp)
    8ac0:	7f 11                	jg     8ad3 <safe_lshift_func_int64_t_s_u+0x48>
    8ac2:	8b 45 f4             	mov    -0xc(%rbp),%eax
    8ac5:	48 8b 55 f8          	mov    -0x8(%rbp),%rdx
    8ac9:	89 c1                	mov    %eax,%ecx
    8acb:	48 d3 e2             	shl    %cl,%rdx
    8ace:	48 89 d0             	mov    %rdx,%rax
    8ad1:	eb 04                	jmp    8ad7 <safe_lshift_func_int64_t_s_u+0x4c>
    8ad3:	48 8b 45 f8          	mov    -0x8(%rbp),%rax
    8ad7:	5d                   	pop    %rbp
    8ad8:	c3                   	retq   

0000000000008ad9 <safe_rshift_func_int64_t_s_s>:
    8ad9:	f3 0f 1e fa          	endbr64 
    8add:	55                   	push   %rbp
    8ade:	48 89 e5             	mov    %rsp,%rbp
    8ae1:	48 89 7d f8          	mov    %rdi,-0x8(%rbp)
    8ae5:	89 75 f4             	mov    %esi,-0xc(%rbp)
    8ae8:	48 83 7d f8 00       	cmpq   $0x0,-0x8(%rbp)
    8aed:	78 1d                	js     8b0c <safe_rshift_func_int64_t_s_s+0x33>
    8aef:	83 7d f4 00          	cmpl   $0x0,-0xc(%rbp)
    8af3:	78 17                	js     8b0c <safe_rshift_func_int64_t_s_s+0x33>
    8af5:	83 7d f4 1f          	cmpl   $0x1f,-0xc(%rbp)
    8af9:	7f 11                	jg     8b0c <safe_rshift_func_int64_t_s_s+0x33>
    8afb:	8b 45 f4             	mov    -0xc(%rbp),%eax
    8afe:	48 8b 55 f8          	mov    -0x8(%rbp),%rdx
    8b02:	89 c1                	mov    %eax,%ecx
    8b04:	48 d3 fa             	sar    %cl,%rdx
    8b07:	48 89 d0             	mov    %rdx,%rax
    8b0a:	eb 04                	jmp    8b10 <safe_rshift_func_int64_t_s_s+0x37>
    8b0c:	48 8b 45 f8          	mov    -0x8(%rbp),%rax
    8b10:	5d                   	pop    %rbp
    8b11:	c3                   	retq   

0000000000008b12 <safe_rshift_func_int64_t_s_u>:
    8b12:	f3 0f 1e fa          	endbr64 
    8b16:	55                   	push   %rbp
    8b17:	48 89 e5             	mov    %rsp,%rbp
    8b1a:	48 89 7d f8          	mov    %rdi,-0x8(%rbp)
    8b1e:	89 75 f4             	mov    %esi,-0xc(%rbp)
    8b21:	48 83 7d f8 00       	cmpq   $0x0,-0x8(%rbp)
    8b26:	78 17                	js     8b3f <safe_rshift_func_int64_t_s_u+0x2d>
    8b28:	83 7d f4 1f          	cmpl   $0x1f,-0xc(%rbp)
    8b2c:	77 11                	ja     8b3f <safe_rshift_func_int64_t_s_u+0x2d>
    8b2e:	8b 45 f4             	mov    -0xc(%rbp),%eax
    8b31:	48 8b 55 f8          	mov    -0x8(%rbp),%rdx
    8b35:	89 c1                	mov    %eax,%ecx
    8b37:	48 d3 fa             	sar    %cl,%rdx
    8b3a:	48 89 d0             	mov    %rdx,%rax
    8b3d:	eb 04                	jmp    8b43 <safe_rshift_func_int64_t_s_u+0x31>
    8b3f:	48 8b 45 f8          	mov    -0x8(%rbp),%rax
    8b43:	5d                   	pop    %rbp
    8b44:	c3                   	retq   

0000000000008b45 <safe_unary_minus_func_uint8_t_u>:
    8b45:	f3 0f 1e fa          	endbr64 
    8b49:	55                   	push   %rbp
    8b4a:	48 89 e5             	mov    %rsp,%rbp
    8b4d:	89 f8                	mov    %edi,%eax
    8b4f:	88 45 fc             	mov    %al,-0x4(%rbp)
    8b52:	0f b6 45 fc          	movzbl -0x4(%rbp),%eax
    8b56:	f7 d8                	neg    %eax
    8b58:	5d                   	pop    %rbp
    8b59:	c3                   	retq   

0000000000008b5a <safe_add_func_uint8_t_u_u>:
    8b5a:	f3 0f 1e fa          	endbr64 
    8b5e:	55                   	push   %rbp
    8b5f:	48 89 e5             	mov    %rsp,%rbp
    8b62:	89 fa                	mov    %edi,%edx
    8b64:	89 f0                	mov    %esi,%eax
    8b66:	88 55 fc             	mov    %dl,-0x4(%rbp)
    8b69:	88 45 f8             	mov    %al,-0x8(%rbp)
    8b6c:	0f b6 55 fc          	movzbl -0x4(%rbp),%edx
    8b70:	0f b6 45 f8          	movzbl -0x8(%rbp),%eax
    8b74:	01 d0                	add    %edx,%eax
    8b76:	5d                   	pop    %rbp
    8b77:	c3                   	retq   

0000000000008b78 <safe_sub_func_uint8_t_u_u>:
    8b78:	f3 0f 1e fa          	endbr64 
    8b7c:	55                   	push   %rbp
    8b7d:	48 89 e5             	mov    %rsp,%rbp
    8b80:	89 fa                	mov    %edi,%edx
    8b82:	89 f0                	mov    %esi,%eax
    8b84:	88 55 fc             	mov    %dl,-0x4(%rbp)
    8b87:	88 45 f8             	mov    %al,-0x8(%rbp)
    8b8a:	0f b6 45 fc          	movzbl -0x4(%rbp),%eax
    8b8e:	2a 45 f8             	sub    -0x8(%rbp),%al
    8b91:	5d                   	pop    %rbp
    8b92:	c3                   	retq   

0000000000008b93 <safe_mul_func_uint8_t_u_u>:
    8b93:	f3 0f 1e fa          	endbr64 
    8b97:	55                   	push   %rbp
    8b98:	48 89 e5             	mov    %rsp,%rbp
    8b9b:	89 fa                	mov    %edi,%edx
    8b9d:	89 f0                	mov    %esi,%eax
    8b9f:	88 55 fc             	mov    %dl,-0x4(%rbp)
    8ba2:	88 45 f8             	mov    %al,-0x8(%rbp)
    8ba5:	0f b6 45 fc          	movzbl -0x4(%rbp),%eax
    8ba9:	f6 65 f8             	mulb   -0x8(%rbp)
    8bac:	5d                   	pop    %rbp
    8bad:	c3                   	retq   

0000000000008bae <safe_mod_func_uint8_t_u_u>:
    8bae:	f3 0f 1e fa          	endbr64 
    8bb2:	55                   	push   %rbp
    8bb3:	48 89 e5             	mov    %rsp,%rbp
    8bb6:	89 fa                	mov    %edi,%edx
    8bb8:	89 f0                	mov    %esi,%eax
    8bba:	88 55 fc             	mov    %dl,-0x4(%rbp)
    8bbd:	88 45 f8             	mov    %al,-0x8(%rbp)
    8bc0:	80 7d f8 00          	cmpb   $0x0,-0x8(%rbp)
    8bc4:	74 0f                	je     8bd5 <safe_mod_func_uint8_t_u_u+0x27>
    8bc6:	0f b6 45 fc          	movzbl -0x4(%rbp),%eax
    8bca:	0f b6 c0             	movzbl %al,%eax
    8bcd:	f6 75 f8             	divb   -0x8(%rbp)
    8bd0:	0f b6 c4             	movzbl %ah,%eax
    8bd3:	eb 04                	jmp    8bd9 <safe_mod_func_uint8_t_u_u+0x2b>
    8bd5:	0f b6 45 fc          	movzbl -0x4(%rbp),%eax
    8bd9:	5d                   	pop    %rbp
    8bda:	c3                   	retq   

0000000000008bdb <safe_div_func_uint8_t_u_u>:
    8bdb:	f3 0f 1e fa          	endbr64 
    8bdf:	55                   	push   %rbp
    8be0:	48 89 e5             	mov    %rsp,%rbp
    8be3:	89 fa                	mov    %edi,%edx
    8be5:	89 f0                	mov    %esi,%eax
    8be7:	88 55 fc             	mov    %dl,-0x4(%rbp)
    8bea:	88 45 f8             	mov    %al,-0x8(%rbp)
    8bed:	80 7d f8 00          	cmpb   $0x0,-0x8(%rbp)
    8bf1:	74 0c                	je     8bff <safe_div_func_uint8_t_u_u+0x24>
    8bf3:	0f b6 45 fc          	movzbl -0x4(%rbp),%eax
    8bf7:	0f b6 c0             	movzbl %al,%eax
    8bfa:	f6 75 f8             	divb   -0x8(%rbp)
    8bfd:	eb 04                	jmp    8c03 <safe_div_func_uint8_t_u_u+0x28>
    8bff:	0f b6 45 fc          	movzbl -0x4(%rbp),%eax
    8c03:	5d                   	pop    %rbp
    8c04:	c3                   	retq   

0000000000008c05 <safe_lshift_func_uint8_t_u_s>:
    8c05:	f3 0f 1e fa          	endbr64 
    8c09:	55                   	push   %rbp
    8c0a:	48 89 e5             	mov    %rsp,%rbp
    8c0d:	89 f8                	mov    %edi,%eax
    8c0f:	89 75 f8             	mov    %esi,-0x8(%rbp)
    8c12:	88 45 fc             	mov    %al,-0x4(%rbp)
    8c15:	83 7d f8 00          	cmpl   $0x0,-0x8(%rbp)
    8c19:	78 2b                	js     8c46 <safe_lshift_func_uint8_t_u_s+0x41>
    8c1b:	83 7d f8 1f          	cmpl   $0x1f,-0x8(%rbp)
    8c1f:	7f 25                	jg     8c46 <safe_lshift_func_uint8_t_u_s+0x41>
    8c21:	0f b6 55 fc          	movzbl -0x4(%rbp),%edx
    8c25:	8b 45 f8             	mov    -0x8(%rbp),%eax
    8c28:	be ff 00 00 00       	mov    $0xff,%esi
    8c2d:	89 c1                	mov    %eax,%ecx
    8c2f:	d3 fe                	sar    %cl,%esi
    8c31:	89 f0                	mov    %esi,%eax
    8c33:	39 c2                	cmp    %eax,%edx
    8c35:	7f 0f                	jg     8c46 <safe_lshift_func_uint8_t_u_s+0x41>
    8c37:	0f b6 55 fc          	movzbl -0x4(%rbp),%edx
    8c3b:	8b 45 f8             	mov    -0x8(%rbp),%eax
    8c3e:	89 c1                	mov    %eax,%ecx
    8c40:	d3 e2                	shl    %cl,%edx
    8c42:	89 d0                	mov    %edx,%eax
    8c44:	eb 04                	jmp    8c4a <safe_lshift_func_uint8_t_u_s+0x45>
    8c46:	0f b6 45 fc          	movzbl -0x4(%rbp),%eax
    8c4a:	5d                   	pop    %rbp
    8c4b:	c3                   	retq   

0000000000008c4c <safe_lshift_func_uint8_t_u_u>:
    8c4c:	f3 0f 1e fa          	endbr64 
    8c50:	55                   	push   %rbp
    8c51:	48 89 e5             	mov    %rsp,%rbp
    8c54:	89 f8                	mov    %edi,%eax
    8c56:	89 75 f8             	mov    %esi,-0x8(%rbp)
    8c59:	88 45 fc             	mov    %al,-0x4(%rbp)
    8c5c:	83 7d f8 1f          	cmpl   $0x1f,-0x8(%rbp)
    8c60:	77 25                	ja     8c87 <safe_lshift_func_uint8_t_u_u+0x3b>
    8c62:	0f b6 55 fc          	movzbl -0x4(%rbp),%edx
    8c66:	8b 45 f8             	mov    -0x8(%rbp),%eax
    8c69:	be ff 00 00 00       	mov    $0xff,%esi
    8c6e:	89 c1                	mov    %eax,%ecx
    8c70:	d3 fe                	sar    %cl,%esi
    8c72:	89 f0                	mov    %esi,%eax
    8c74:	39 c2                	cmp    %eax,%edx
    8c76:	7f 0f                	jg     8c87 <safe_lshift_func_uint8_t_u_u+0x3b>
    8c78:	0f b6 55 fc          	movzbl -0x4(%rbp),%edx
    8c7c:	8b 45 f8             	mov    -0x8(%rbp),%eax
    8c7f:	89 c1                	mov    %eax,%ecx
    8c81:	d3 e2                	shl    %cl,%edx
    8c83:	89 d0                	mov    %edx,%eax
    8c85:	eb 04                	jmp    8c8b <safe_lshift_func_uint8_t_u_u+0x3f>
    8c87:	0f b6 45 fc          	movzbl -0x4(%rbp),%eax
    8c8b:	5d                   	pop    %rbp
    8c8c:	c3                   	retq   

0000000000008c8d <safe_rshift_func_uint8_t_u_s>:
    8c8d:	f3 0f 1e fa          	endbr64 
    8c91:	55                   	push   %rbp
    8c92:	48 89 e5             	mov    %rsp,%rbp
    8c95:	89 f8                	mov    %edi,%eax
    8c97:	89 75 f8             	mov    %esi,-0x8(%rbp)
    8c9a:	88 45 fc             	mov    %al,-0x4(%rbp)
    8c9d:	83 7d f8 00          	cmpl   $0x0,-0x8(%rbp)
    8ca1:	78 15                	js     8cb8 <safe_rshift_func_uint8_t_u_s+0x2b>
    8ca3:	83 7d f8 1f          	cmpl   $0x1f,-0x8(%rbp)
    8ca7:	7f 0f                	jg     8cb8 <safe_rshift_func_uint8_t_u_s+0x2b>
    8ca9:	0f b6 55 fc          	movzbl -0x4(%rbp),%edx
    8cad:	8b 45 f8             	mov    -0x8(%rbp),%eax
    8cb0:	89 c1                	mov    %eax,%ecx
    8cb2:	d3 fa                	sar    %cl,%edx
    8cb4:	89 d0                	mov    %edx,%eax
    8cb6:	eb 04                	jmp    8cbc <safe_rshift_func_uint8_t_u_s+0x2f>
    8cb8:	0f b6 45 fc          	movzbl -0x4(%rbp),%eax
    8cbc:	5d                   	pop    %rbp
    8cbd:	c3                   	retq   

0000000000008cbe <safe_rshift_func_uint8_t_u_u>:
    8cbe:	f3 0f 1e fa          	endbr64 
    8cc2:	55                   	push   %rbp
    8cc3:	48 89 e5             	mov    %rsp,%rbp
    8cc6:	89 f8                	mov    %edi,%eax
    8cc8:	89 75 f8             	mov    %esi,-0x8(%rbp)
    8ccb:	88 45 fc             	mov    %al,-0x4(%rbp)
    8cce:	83 7d f8 1f          	cmpl   $0x1f,-0x8(%rbp)
    8cd2:	77 0f                	ja     8ce3 <safe_rshift_func_uint8_t_u_u+0x25>
    8cd4:	0f b6 55 fc          	movzbl -0x4(%rbp),%edx
    8cd8:	8b 45 f8             	mov    -0x8(%rbp),%eax
    8cdb:	89 c1                	mov    %eax,%ecx
    8cdd:	d3 fa                	sar    %cl,%edx
    8cdf:	89 d0                	mov    %edx,%eax
    8ce1:	eb 04                	jmp    8ce7 <safe_rshift_func_uint8_t_u_u+0x29>
    8ce3:	0f b6 45 fc          	movzbl -0x4(%rbp),%eax
    8ce7:	5d                   	pop    %rbp
    8ce8:	c3                   	retq   

0000000000008ce9 <safe_unary_minus_func_uint16_t_u>:
    8ce9:	f3 0f 1e fa          	endbr64 
    8ced:	55                   	push   %rbp
    8cee:	48 89 e5             	mov    %rsp,%rbp
    8cf1:	89 f8                	mov    %edi,%eax
    8cf3:	66 89 45 fc          	mov    %ax,-0x4(%rbp)
    8cf7:	0f b7 45 fc          	movzwl -0x4(%rbp),%eax
    8cfb:	f7 d8                	neg    %eax
    8cfd:	5d                   	pop    %rbp
    8cfe:	c3                   	retq   

0000000000008cff <safe_add_func_uint16_t_u_u>:
    8cff:	f3 0f 1e fa          	endbr64 
    8d03:	55                   	push   %rbp
    8d04:	48 89 e5             	mov    %rsp,%rbp
    8d07:	89 fa                	mov    %edi,%edx
    8d09:	89 f0                	mov    %esi,%eax
    8d0b:	66 89 55 fc          	mov    %dx,-0x4(%rbp)
    8d0f:	66 89 45 f8          	mov    %ax,-0x8(%rbp)
    8d13:	0f b7 55 fc          	movzwl -0x4(%rbp),%edx
    8d17:	0f b7 45 f8          	movzwl -0x8(%rbp),%eax
    8d1b:	01 d0                	add    %edx,%eax
    8d1d:	5d                   	pop    %rbp
    8d1e:	c3                   	retq   

0000000000008d1f <safe_sub_func_uint16_t_u_u>:
    8d1f:	f3 0f 1e fa          	endbr64 
    8d23:	55                   	push   %rbp
    8d24:	48 89 e5             	mov    %rsp,%rbp
    8d27:	89 fa                	mov    %edi,%edx
    8d29:	89 f0                	mov    %esi,%eax
    8d2b:	66 89 55 fc          	mov    %dx,-0x4(%rbp)
    8d2f:	66 89 45 f8          	mov    %ax,-0x8(%rbp)
    8d33:	0f b7 45 fc          	movzwl -0x4(%rbp),%eax
    8d37:	66 2b 45 f8          	sub    -0x8(%rbp),%ax
    8d3b:	5d                   	pop    %rbp
    8d3c:	c3                   	retq   

0000000000008d3d <safe_mul_func_uint16_t_u_u>:
    8d3d:	f3 0f 1e fa          	endbr64 
    8d41:	55                   	push   %rbp
    8d42:	48 89 e5             	mov    %rsp,%rbp
    8d45:	89 fa                	mov    %edi,%edx
    8d47:	89 f0                	mov    %esi,%eax
    8d49:	66 89 55 fc          	mov    %dx,-0x4(%rbp)
    8d4d:	66 89 45 f8          	mov    %ax,-0x8(%rbp)
    8d51:	0f b7 45 fc          	movzwl -0x4(%rbp),%eax
    8d55:	66 0f af 45 f8       	imul   -0x8(%rbp),%ax
    8d5a:	5d                   	pop    %rbp
    8d5b:	c3                   	retq   

0000000000008d5c <safe_mod_func_uint16_t_u_u>:
    8d5c:	f3 0f 1e fa          	endbr64 
    8d60:	55                   	push   %rbp
    8d61:	48 89 e5             	mov    %rsp,%rbp
    8d64:	89 fa                	mov    %edi,%edx
    8d66:	89 f0                	mov    %esi,%eax
    8d68:	66 89 55 fc          	mov    %dx,-0x4(%rbp)
    8d6c:	66 89 45 f8          	mov    %ax,-0x8(%rbp)
    8d70:	66 83 7d f8 00       	cmpw   $0x0,-0x8(%rbp)
    8d75:	74 11                	je     8d88 <safe_mod_func_uint16_t_u_u+0x2c>
    8d77:	0f b7 45 fc          	movzwl -0x4(%rbp),%eax
    8d7b:	ba 00 00 00 00       	mov    $0x0,%edx
    8d80:	66 f7 75 f8          	divw   -0x8(%rbp)
    8d84:	89 d0                	mov    %edx,%eax
    8d86:	eb 04                	jmp    8d8c <safe_mod_func_uint16_t_u_u+0x30>
    8d88:	0f b7 45 fc          	movzwl -0x4(%rbp),%eax
    8d8c:	5d                   	pop    %rbp
    8d8d:	c3                   	retq   

0000000000008d8e <safe_div_func_uint16_t_u_u>:
    8d8e:	f3 0f 1e fa          	endbr64 
    8d92:	55                   	push   %rbp
    8d93:	48 89 e5             	mov    %rsp,%rbp
    8d96:	89 fa                	mov    %edi,%edx
    8d98:	89 f0                	mov    %esi,%eax
    8d9a:	66 89 55 fc          	mov    %dx,-0x4(%rbp)
    8d9e:	66 89 45 f8          	mov    %ax,-0x8(%rbp)
    8da2:	66 83 7d f8 00       	cmpw   $0x0,-0x8(%rbp)
    8da7:	74 0f                	je     8db8 <safe_div_func_uint16_t_u_u+0x2a>
    8da9:	0f b7 45 fc          	movzwl -0x4(%rbp),%eax
    8dad:	ba 00 00 00 00       	mov    $0x0,%edx
    8db2:	66 f7 75 f8          	divw   -0x8(%rbp)
    8db6:	eb 04                	jmp    8dbc <safe_div_func_uint16_t_u_u+0x2e>
    8db8:	0f b7 45 fc          	movzwl -0x4(%rbp),%eax
    8dbc:	5d                   	pop    %rbp
    8dbd:	c3                   	retq   

0000000000008dbe <safe_lshift_func_uint16_t_u_s>:
    8dbe:	f3 0f 1e fa          	endbr64 
    8dc2:	55                   	push   %rbp
    8dc3:	48 89 e5             	mov    %rsp,%rbp
    8dc6:	89 f8                	mov    %edi,%eax
    8dc8:	89 75 f8             	mov    %esi,-0x8(%rbp)
    8dcb:	66 89 45 fc          	mov    %ax,-0x4(%rbp)
    8dcf:	83 7d f8 00          	cmpl   $0x0,-0x8(%rbp)
    8dd3:	78 2b                	js     8e00 <safe_lshift_func_uint16_t_u_s+0x42>
    8dd5:	83 7d f8 1f          	cmpl   $0x1f,-0x8(%rbp)
    8dd9:	7f 25                	jg     8e00 <safe_lshift_func_uint16_t_u_s+0x42>
    8ddb:	0f b7 55 fc          	movzwl -0x4(%rbp),%edx
    8ddf:	8b 45 f8             	mov    -0x8(%rbp),%eax
    8de2:	be ff ff 00 00       	mov    $0xffff,%esi
    8de7:	89 c1                	mov    %eax,%ecx
    8de9:	d3 fe                	sar    %cl,%esi
    8deb:	89 f0                	mov    %esi,%eax
    8ded:	39 c2                	cmp    %eax,%edx
    8def:	7f 0f                	jg     8e00 <safe_lshift_func_uint16_t_u_s+0x42>
    8df1:	0f b7 55 fc          	movzwl -0x4(%rbp),%edx
    8df5:	8b 45 f8             	mov    -0x8(%rbp),%eax
    8df8:	89 c1                	mov    %eax,%ecx
    8dfa:	d3 e2                	shl    %cl,%edx
    8dfc:	89 d0                	mov    %edx,%eax
    8dfe:	eb 04                	jmp    8e04 <safe_lshift_func_uint16_t_u_s+0x46>
    8e00:	0f b7 45 fc          	movzwl -0x4(%rbp),%eax
    8e04:	5d                   	pop    %rbp
    8e05:	c3                   	retq   

0000000000008e06 <safe_lshift_func_uint16_t_u_u>:
    8e06:	f3 0f 1e fa          	endbr64 
    8e0a:	55                   	push   %rbp
    8e0b:	48 89 e5             	mov    %rsp,%rbp
    8e0e:	89 f8                	mov    %edi,%eax
    8e10:	89 75 f8             	mov    %esi,-0x8(%rbp)
    8e13:	66 89 45 fc          	mov    %ax,-0x4(%rbp)
    8e17:	83 7d f8 1f          	cmpl   $0x1f,-0x8(%rbp)
    8e1b:	77 25                	ja     8e42 <safe_lshift_func_uint16_t_u_u+0x3c>
    8e1d:	0f b7 55 fc          	movzwl -0x4(%rbp),%edx
    8e21:	8b 45 f8             	mov    -0x8(%rbp),%eax
    8e24:	be ff ff 00 00       	mov    $0xffff,%esi
    8e29:	89 c1                	mov    %eax,%ecx
    8e2b:	d3 fe                	sar    %cl,%esi
    8e2d:	89 f0                	mov    %esi,%eax
    8e2f:	39 c2                	cmp    %eax,%edx
    8e31:	7f 0f                	jg     8e42 <safe_lshift_func_uint16_t_u_u+0x3c>
    8e33:	0f b7 55 fc          	movzwl -0x4(%rbp),%edx
    8e37:	8b 45 f8             	mov    -0x8(%rbp),%eax
    8e3a:	89 c1                	mov    %eax,%ecx
    8e3c:	d3 e2                	shl    %cl,%edx
    8e3e:	89 d0                	mov    %edx,%eax
    8e40:	eb 04                	jmp    8e46 <safe_lshift_func_uint16_t_u_u+0x40>
    8e42:	0f b7 45 fc          	movzwl -0x4(%rbp),%eax
    8e46:	5d                   	pop    %rbp
    8e47:	c3                   	retq   

0000000000008e48 <safe_rshift_func_uint16_t_u_s>:
    8e48:	f3 0f 1e fa          	endbr64 
    8e4c:	55                   	push   %rbp
    8e4d:	48 89 e5             	mov    %rsp,%rbp
    8e50:	89 f8                	mov    %edi,%eax
    8e52:	89 75 f8             	mov    %esi,-0x8(%rbp)
    8e55:	66 89 45 fc          	mov    %ax,-0x4(%rbp)
    8e59:	83 7d f8 00          	cmpl   $0x0,-0x8(%rbp)
    8e5d:	78 15                	js     8e74 <safe_rshift_func_uint16_t_u_s+0x2c>
    8e5f:	83 7d f8 1f          	cmpl   $0x1f,-0x8(%rbp)
    8e63:	7f 0f                	jg     8e74 <safe_rshift_func_uint16_t_u_s+0x2c>
    8e65:	0f b7 55 fc          	movzwl -0x4(%rbp),%edx
    8e69:	8b 45 f8             	mov    -0x8(%rbp),%eax
    8e6c:	89 c1                	mov    %eax,%ecx
    8e6e:	d3 fa                	sar    %cl,%edx
    8e70:	89 d0                	mov    %edx,%eax
    8e72:	eb 04                	jmp    8e78 <safe_rshift_func_uint16_t_u_s+0x30>
    8e74:	0f b7 45 fc          	movzwl -0x4(%rbp),%eax
    8e78:	5d                   	pop    %rbp
    8e79:	c3                   	retq   

0000000000008e7a <safe_rshift_func_uint16_t_u_u>:
    8e7a:	f3 0f 1e fa          	endbr64 
    8e7e:	55                   	push   %rbp
    8e7f:	48 89 e5             	mov    %rsp,%rbp
    8e82:	89 f8                	mov    %edi,%eax
    8e84:	89 75 f8             	mov    %esi,-0x8(%rbp)
    8e87:	66 89 45 fc          	mov    %ax,-0x4(%rbp)
    8e8b:	83 7d f8 1f          	cmpl   $0x1f,-0x8(%rbp)
    8e8f:	77 0f                	ja     8ea0 <safe_rshift_func_uint16_t_u_u+0x26>
    8e91:	0f b7 55 fc          	movzwl -0x4(%rbp),%edx
    8e95:	8b 45 f8             	mov    -0x8(%rbp),%eax
    8e98:	89 c1                	mov    %eax,%ecx
    8e9a:	d3 fa                	sar    %cl,%edx
    8e9c:	89 d0                	mov    %edx,%eax
    8e9e:	eb 04                	jmp    8ea4 <safe_rshift_func_uint16_t_u_u+0x2a>
    8ea0:	0f b7 45 fc          	movzwl -0x4(%rbp),%eax
    8ea4:	5d                   	pop    %rbp
    8ea5:	c3                   	retq   

0000000000008ea6 <safe_unary_minus_func_uint32_t_u>:
    8ea6:	f3 0f 1e fa          	endbr64 
    8eaa:	55                   	push   %rbp
    8eab:	48 89 e5             	mov    %rsp,%rbp
    8eae:	89 7d fc             	mov    %edi,-0x4(%rbp)
    8eb1:	8b 45 fc             	mov    -0x4(%rbp),%eax
    8eb4:	f7 d8                	neg    %eax
    8eb6:	5d                   	pop    %rbp
    8eb7:	c3                   	retq   

0000000000008eb8 <safe_add_func_uint32_t_u_u>:
    8eb8:	f3 0f 1e fa          	endbr64 
    8ebc:	55                   	push   %rbp
    8ebd:	48 89 e5             	mov    %rsp,%rbp
    8ec0:	89 7d fc             	mov    %edi,-0x4(%rbp)
    8ec3:	89 75 f8             	mov    %esi,-0x8(%rbp)
    8ec6:	8b 55 fc             	mov    -0x4(%rbp),%edx
    8ec9:	8b 45 f8             	mov    -0x8(%rbp),%eax
    8ecc:	01 d0                	add    %edx,%eax
    8ece:	5d                   	pop    %rbp
    8ecf:	c3                   	retq   

0000000000008ed0 <safe_sub_func_uint32_t_u_u>:
    8ed0:	f3 0f 1e fa          	endbr64 
    8ed4:	55                   	push   %rbp
    8ed5:	48 89 e5             	mov    %rsp,%rbp
    8ed8:	89 7d fc             	mov    %edi,-0x4(%rbp)
    8edb:	89 75 f8             	mov    %esi,-0x8(%rbp)
    8ede:	8b 45 fc             	mov    -0x4(%rbp),%eax
    8ee1:	2b 45 f8             	sub    -0x8(%rbp),%eax
    8ee4:	5d                   	pop    %rbp
    8ee5:	c3                   	retq   

0000000000008ee6 <safe_mul_func_uint32_t_u_u>:
    8ee6:	f3 0f 1e fa          	endbr64 
    8eea:	55                   	push   %rbp
    8eeb:	48 89 e5             	mov    %rsp,%rbp
    8eee:	89 7d fc             	mov    %edi,-0x4(%rbp)
    8ef1:	89 75 f8             	mov    %esi,-0x8(%rbp)
    8ef4:	8b 45 fc             	mov    -0x4(%rbp),%eax
    8ef7:	0f af 45 f8          	imul   -0x8(%rbp),%eax
    8efb:	5d                   	pop    %rbp
    8efc:	c3                   	retq   

0000000000008efd <safe_mod_func_uint32_t_u_u>:
    8efd:	f3 0f 1e fa          	endbr64 
    8f01:	55                   	push   %rbp
    8f02:	48 89 e5             	mov    %rsp,%rbp
    8f05:	89 7d fc             	mov    %edi,-0x4(%rbp)
    8f08:	89 75 f8             	mov    %esi,-0x8(%rbp)
    8f0b:	83 7d f8 00          	cmpl   $0x0,-0x8(%rbp)
    8f0f:	74 0f                	je     8f20 <safe_mod_func_uint32_t_u_u+0x23>
    8f11:	8b 45 fc             	mov    -0x4(%rbp),%eax
    8f14:	ba 00 00 00 00       	mov    $0x0,%edx
    8f19:	f7 75 f8             	divl   -0x8(%rbp)
    8f1c:	89 d0                	mov    %edx,%eax
    8f1e:	eb 03                	jmp    8f23 <safe_mod_func_uint32_t_u_u+0x26>
    8f20:	8b 45 fc             	mov    -0x4(%rbp),%eax
    8f23:	5d                   	pop    %rbp
    8f24:	c3                   	retq   

0000000000008f25 <safe_div_func_uint32_t_u_u>:
    8f25:	f3 0f 1e fa          	endbr64 
    8f29:	55                   	push   %rbp
    8f2a:	48 89 e5             	mov    %rsp,%rbp
    8f2d:	89 7d fc             	mov    %edi,-0x4(%rbp)
    8f30:	89 75 f8             	mov    %esi,-0x8(%rbp)
    8f33:	83 7d f8 00          	cmpl   $0x0,-0x8(%rbp)
    8f37:	74 0d                	je     8f46 <safe_div_func_uint32_t_u_u+0x21>
    8f39:	8b 45 fc             	mov    -0x4(%rbp),%eax
    8f3c:	ba 00 00 00 00       	mov    $0x0,%edx
    8f41:	f7 75 f8             	divl   -0x8(%rbp)
    8f44:	eb 03                	jmp    8f49 <safe_div_func_uint32_t_u_u+0x24>
    8f46:	8b 45 fc             	mov    -0x4(%rbp),%eax
    8f49:	5d                   	pop    %rbp
    8f4a:	c3                   	retq   

0000000000008f4b <safe_lshift_func_uint32_t_u_s>:
    8f4b:	f3 0f 1e fa          	endbr64 
    8f4f:	55                   	push   %rbp
    8f50:	48 89 e5             	mov    %rsp,%rbp
    8f53:	89 7d fc             	mov    %edi,-0x4(%rbp)
    8f56:	89 75 f8             	mov    %esi,-0x8(%rbp)
    8f59:	83 7d f8 00          	cmpl   $0x0,-0x8(%rbp)
    8f5d:	78 27                	js     8f86 <safe_lshift_func_uint32_t_u_s+0x3b>
    8f5f:	83 7d f8 1f          	cmpl   $0x1f,-0x8(%rbp)
    8f63:	7f 21                	jg     8f86 <safe_lshift_func_uint32_t_u_s+0x3b>
    8f65:	8b 45 f8             	mov    -0x8(%rbp),%eax
    8f68:	ba ff ff ff ff       	mov    $0xffffffff,%edx
    8f6d:	89 c1                	mov    %eax,%ecx
    8f6f:	d3 ea                	shr    %cl,%edx
    8f71:	89 d0                	mov    %edx,%eax
    8f73:	39 45 fc             	cmp    %eax,-0x4(%rbp)
    8f76:	77 0e                	ja     8f86 <safe_lshift_func_uint32_t_u_s+0x3b>
    8f78:	8b 45 f8             	mov    -0x8(%rbp),%eax
    8f7b:	8b 55 fc             	mov    -0x4(%rbp),%edx
    8f7e:	89 c1                	mov    %eax,%ecx
    8f80:	d3 e2                	shl    %cl,%edx
    8f82:	89 d0                	mov    %edx,%eax
    8f84:	eb 03                	jmp    8f89 <safe_lshift_func_uint32_t_u_s+0x3e>
    8f86:	8b 45 fc             	mov    -0x4(%rbp),%eax
    8f89:	5d                   	pop    %rbp
    8f8a:	c3                   	retq   

0000000000008f8b <safe_lshift_func_uint32_t_u_u>:
    8f8b:	f3 0f 1e fa          	endbr64 
    8f8f:	55                   	push   %rbp
    8f90:	48 89 e5             	mov    %rsp,%rbp
    8f93:	89 7d fc             	mov    %edi,-0x4(%rbp)
    8f96:	89 75 f8             	mov    %esi,-0x8(%rbp)
    8f99:	83 7d f8 1f          	cmpl   $0x1f,-0x8(%rbp)
    8f9d:	77 21                	ja     8fc0 <safe_lshift_func_uint32_t_u_u+0x35>
    8f9f:	8b 45 f8             	mov    -0x8(%rbp),%eax
    8fa2:	ba ff ff ff ff       	mov    $0xffffffff,%edx
    8fa7:	89 c1                	mov    %eax,%ecx
    8fa9:	d3 ea                	shr    %cl,%edx
    8fab:	89 d0                	mov    %edx,%eax
    8fad:	39 45 fc             	cmp    %eax,-0x4(%rbp)
    8fb0:	77 0e                	ja     8fc0 <safe_lshift_func_uint32_t_u_u+0x35>
    8fb2:	8b 45 f8             	mov    -0x8(%rbp),%eax
    8fb5:	8b 55 fc             	mov    -0x4(%rbp),%edx
    8fb8:	89 c1                	mov    %eax,%ecx
    8fba:	d3 e2                	shl    %cl,%edx
    8fbc:	89 d0                	mov    %edx,%eax
    8fbe:	eb 03                	jmp    8fc3 <safe_lshift_func_uint32_t_u_u+0x38>
    8fc0:	8b 45 fc             	mov    -0x4(%rbp),%eax
    8fc3:	5d                   	pop    %rbp
    8fc4:	c3                   	retq   

0000000000008fc5 <safe_rshift_func_uint32_t_u_s>:
    8fc5:	f3 0f 1e fa          	endbr64 
    8fc9:	55                   	push   %rbp
    8fca:	48 89 e5             	mov    %rsp,%rbp
    8fcd:	89 7d fc             	mov    %edi,-0x4(%rbp)
    8fd0:	89 75 f8             	mov    %esi,-0x8(%rbp)
    8fd3:	83 7d f8 00          	cmpl   $0x0,-0x8(%rbp)
    8fd7:	78 14                	js     8fed <safe_rshift_func_uint32_t_u_s+0x28>
    8fd9:	83 7d f8 1f          	cmpl   $0x1f,-0x8(%rbp)
    8fdd:	7f 0e                	jg     8fed <safe_rshift_func_uint32_t_u_s+0x28>
    8fdf:	8b 45 f8             	mov    -0x8(%rbp),%eax
    8fe2:	8b 55 fc             	mov    -0x4(%rbp),%edx
    8fe5:	89 c1                	mov    %eax,%ecx
    8fe7:	d3 ea                	shr    %cl,%edx
    8fe9:	89 d0                	mov    %edx,%eax
    8feb:	eb 03                	jmp    8ff0 <safe_rshift_func_uint32_t_u_s+0x2b>
    8fed:	8b 45 fc             	mov    -0x4(%rbp),%eax
    8ff0:	5d                   	pop    %rbp
    8ff1:	c3                   	retq   

0000000000008ff2 <safe_rshift_func_uint32_t_u_u>:
    8ff2:	f3 0f 1e fa          	endbr64 
    8ff6:	55                   	push   %rbp
    8ff7:	48 89 e5             	mov    %rsp,%rbp
    8ffa:	89 7d fc             	mov    %edi,-0x4(%rbp)
    8ffd:	89 75 f8             	mov    %esi,-0x8(%rbp)
    9000:	83 7d f8 1f          	cmpl   $0x1f,-0x8(%rbp)
    9004:	77 0e                	ja     9014 <safe_rshift_func_uint32_t_u_u+0x22>
    9006:	8b 45 f8             	mov    -0x8(%rbp),%eax
    9009:	8b 55 fc             	mov    -0x4(%rbp),%edx
    900c:	89 c1                	mov    %eax,%ecx
    900e:	d3 ea                	shr    %cl,%edx
    9010:	89 d0                	mov    %edx,%eax
    9012:	eb 03                	jmp    9017 <safe_rshift_func_uint32_t_u_u+0x25>
    9014:	8b 45 fc             	mov    -0x4(%rbp),%eax
    9017:	5d                   	pop    %rbp
    9018:	c3                   	retq   

0000000000009019 <safe_unary_minus_func_uint64_t_u>:
    9019:	f3 0f 1e fa          	endbr64 
    901d:	55                   	push   %rbp
    901e:	48 89 e5             	mov    %rsp,%rbp
    9021:	48 89 7d f8          	mov    %rdi,-0x8(%rbp)
    9025:	48 8b 45 f8          	mov    -0x8(%rbp),%rax
    9029:	48 f7 d8             	neg    %rax
    902c:	5d                   	pop    %rbp
    902d:	c3                   	retq   

000000000000902e <safe_add_func_uint64_t_u_u>:
    902e:	f3 0f 1e fa          	endbr64 
    9032:	55                   	push   %rbp
    9033:	48 89 e5             	mov    %rsp,%rbp
    9036:	48 89 7d f8          	mov    %rdi,-0x8(%rbp)
    903a:	48 89 75 f0          	mov    %rsi,-0x10(%rbp)
    903e:	48 8b 55 f8          	mov    -0x8(%rbp),%rdx
    9042:	48 8b 45 f0          	mov    -0x10(%rbp),%rax
    9046:	48 01 d0             	add    %rdx,%rax
    9049:	5d                   	pop    %rbp
    904a:	c3                   	retq   

000000000000904b <safe_sub_func_uint64_t_u_u>:
    904b:	f3 0f 1e fa          	endbr64 
    904f:	55                   	push   %rbp
    9050:	48 89 e5             	mov    %rsp,%rbp
    9053:	48 89 7d f8          	mov    %rdi,-0x8(%rbp)
    9057:	48 89 75 f0          	mov    %rsi,-0x10(%rbp)
    905b:	48 8b 45 f8          	mov    -0x8(%rbp),%rax
    905f:	48 2b 45 f0          	sub    -0x10(%rbp),%rax
    9063:	5d                   	pop    %rbp
    9064:	c3                   	retq   

0000000000009065 <safe_mul_func_uint64_t_u_u>:
    9065:	f3 0f 1e fa          	endbr64 
    9069:	55                   	push   %rbp
    906a:	48 89 e5             	mov    %rsp,%rbp
    906d:	48 89 7d f8          	mov    %rdi,-0x8(%rbp)
    9071:	48 89 75 f0          	mov    %rsi,-0x10(%rbp)
    9075:	48 8b 45 f8          	mov    -0x8(%rbp),%rax
    9079:	48 0f af 45 f0       	imul   -0x10(%rbp),%rax
    907e:	5d                   	pop    %rbp
    907f:	c3                   	retq   

0000000000009080 <safe_mod_func_uint64_t_u_u>:
    9080:	f3 0f 1e fa          	endbr64 
    9084:	55                   	push   %rbp
    9085:	48 89 e5             	mov    %rsp,%rbp
    9088:	48 89 7d f8          	mov    %rdi,-0x8(%rbp)
    908c:	48 89 75 f0          	mov    %rsi,-0x10(%rbp)
    9090:	48 83 7d f0 00       	cmpq   $0x0,-0x10(%rbp)
    9095:	74 12                	je     90a9 <safe_mod_func_uint64_t_u_u+0x29>
    9097:	48 8b 45 f8          	mov    -0x8(%rbp),%rax
    909b:	ba 00 00 00 00       	mov    $0x0,%edx
    90a0:	48 f7 75 f0          	divq   -0x10(%rbp)
    90a4:	48 89 d0             	mov    %rdx,%rax
    90a7:	eb 04                	jmp    90ad <safe_mod_func_uint64_t_u_u+0x2d>
    90a9:	48 8b 45 f8          	mov    -0x8(%rbp),%rax
    90ad:	5d                   	pop    %rbp
    90ae:	c3                   	retq   

00000000000090af <safe_div_func_uint64_t_u_u>:
    90af:	f3 0f 1e fa          	endbr64 
    90b3:	55                   	push   %rbp
    90b4:	48 89 e5             	mov    %rsp,%rbp
    90b7:	48 89 7d f8          	mov    %rdi,-0x8(%rbp)
    90bb:	48 89 75 f0          	mov    %rsi,-0x10(%rbp)
    90bf:	48 83 7d f0 00       	cmpq   $0x0,-0x10(%rbp)
    90c4:	74 0f                	je     90d5 <safe_div_func_uint64_t_u_u+0x26>
    90c6:	48 8b 45 f8          	mov    -0x8(%rbp),%rax
    90ca:	ba 00 00 00 00       	mov    $0x0,%edx
    90cf:	48 f7 75 f0          	divq   -0x10(%rbp)
    90d3:	eb 04                	jmp    90d9 <safe_div_func_uint64_t_u_u+0x2a>
    90d5:	48 8b 45 f8          	mov    -0x8(%rbp),%rax
    90d9:	5d                   	pop    %rbp
    90da:	c3                   	retq   

00000000000090db <safe_lshift_func_uint64_t_u_s>:
    90db:	f3 0f 1e fa          	endbr64 
    90df:	55                   	push   %rbp
    90e0:	48 89 e5             	mov    %rsp,%rbp
    90e3:	48 89 7d f8          	mov    %rdi,-0x8(%rbp)
    90e7:	89 75 f4             	mov    %esi,-0xc(%rbp)
    90ea:	83 7d f4 00          	cmpl   $0x0,-0xc(%rbp)
    90ee:	78 2f                	js     911f <safe_lshift_func_uint64_t_u_s+0x44>
    90f0:	83 7d f4 1f          	cmpl   $0x1f,-0xc(%rbp)
    90f4:	7f 29                	jg     911f <safe_lshift_func_uint64_t_u_s+0x44>
    90f6:	8b 45 f4             	mov    -0xc(%rbp),%eax
    90f9:	48 c7 c2 ff ff ff ff 	mov    $0xffffffffffffffff,%rdx
    9100:	89 c1                	mov    %eax,%ecx
    9102:	48 d3 ea             	shr    %cl,%rdx
    9105:	48 89 d0             	mov    %rdx,%rax
    9108:	48 39 45 f8          	cmp    %rax,-0x8(%rbp)
    910c:	77 11                	ja     911f <safe_lshift_func_uint64_t_u_s+0x44>
    910e:	8b 45 f4             	mov    -0xc(%rbp),%eax
    9111:	48 8b 55 f8          	mov    -0x8(%rbp),%rdx
    9115:	89 c1                	mov    %eax,%ecx
    9117:	48 d3 e2             	shl    %cl,%rdx
    911a:	48 89 d0             	mov    %rdx,%rax
    911d:	eb 04                	jmp    9123 <safe_lshift_func_uint64_t_u_s+0x48>
    911f:	48 8b 45 f8          	mov    -0x8(%rbp),%rax
    9123:	5d                   	pop    %rbp
    9124:	c3                   	retq   

0000000000009125 <safe_lshift_func_uint64_t_u_u>:
    9125:	f3 0f 1e fa          	endbr64 
    9129:	55                   	push   %rbp
    912a:	48 89 e5             	mov    %rsp,%rbp
    912d:	48 89 7d f8          	mov    %rdi,-0x8(%rbp)
    9131:	89 75 f4             	mov    %esi,-0xc(%rbp)
    9134:	83 7d f4 1f          	cmpl   $0x1f,-0xc(%rbp)
    9138:	77 29                	ja     9163 <safe_lshift_func_uint64_t_u_u+0x3e>
    913a:	8b 45 f4             	mov    -0xc(%rbp),%eax
    913d:	48 c7 c2 ff ff ff ff 	mov    $0xffffffffffffffff,%rdx
    9144:	89 c1                	mov    %eax,%ecx
    9146:	48 d3 ea             	shr    %cl,%rdx
    9149:	48 89 d0             	mov    %rdx,%rax
    914c:	48 39 45 f8          	cmp    %rax,-0x8(%rbp)
    9150:	77 11                	ja     9163 <safe_lshift_func_uint64_t_u_u+0x3e>
    9152:	8b 45 f4             	mov    -0xc(%rbp),%eax
    9155:	48 8b 55 f8          	mov    -0x8(%rbp),%rdx
    9159:	89 c1                	mov    %eax,%ecx
    915b:	48 d3 e2             	shl    %cl,%rdx
    915e:	48 89 d0             	mov    %rdx,%rax
    9161:	eb 04                	jmp    9167 <safe_lshift_func_uint64_t_u_u+0x42>
    9163:	48 8b 45 f8          	mov    -0x8(%rbp),%rax
    9167:	5d                   	pop    %rbp
    9168:	c3                   	retq   

0000000000009169 <safe_rshift_func_uint64_t_u_s>:
    9169:	f3 0f 1e fa          	endbr64 
    916d:	55                   	push   %rbp
    916e:	48 89 e5             	mov    %rsp,%rbp
    9171:	48 89 7d f8          	mov    %rdi,-0x8(%rbp)
    9175:	89 75 f4             	mov    %esi,-0xc(%rbp)
    9178:	83 7d f4 00          	cmpl   $0x0,-0xc(%rbp)
    917c:	78 17                	js     9195 <safe_rshift_func_uint64_t_u_s+0x2c>
    917e:	83 7d f4 1f          	cmpl   $0x1f,-0xc(%rbp)
    9182:	7f 11                	jg     9195 <safe_rshift_func_uint64_t_u_s+0x2c>
    9184:	8b 45 f4             	mov    -0xc(%rbp),%eax
    9187:	48 8b 55 f8          	mov    -0x8(%rbp),%rdx
    918b:	89 c1                	mov    %eax,%ecx
    918d:	48 d3 ea             	shr    %cl,%rdx
    9190:	48 89 d0             	mov    %rdx,%rax
    9193:	eb 04                	jmp    9199 <safe_rshift_func_uint64_t_u_s+0x30>
    9195:	48 8b 45 f8          	mov    -0x8(%rbp),%rax
    9199:	5d                   	pop    %rbp
    919a:	c3                   	retq   

000000000000919b <safe_rshift_func_uint64_t_u_u>:
    919b:	f3 0f 1e fa          	endbr64 
    919f:	55                   	push   %rbp
    91a0:	48 89 e5             	mov    %rsp,%rbp
    91a3:	48 89 7d f8          	mov    %rdi,-0x8(%rbp)
    91a7:	89 75 f4             	mov    %esi,-0xc(%rbp)
    91aa:	83 7d f4 1f          	cmpl   $0x1f,-0xc(%rbp)
    91ae:	77 11                	ja     91c1 <safe_rshift_func_uint64_t_u_u+0x26>
    91b0:	8b 45 f4             	mov    -0xc(%rbp),%eax
    91b3:	48 8b 55 f8          	mov    -0x8(%rbp),%rdx
    91b7:	89 c1                	mov    %eax,%ecx
    91b9:	48 d3 ea             	shr    %cl,%rdx
    91bc:	48 89 d0             	mov    %rdx,%rax
    91bf:	eb 04                	jmp    91c5 <safe_rshift_func_uint64_t_u_u+0x2a>
    91c1:	48 8b 45 f8          	mov    -0x8(%rbp),%rax
    91c5:	5d                   	pop    %rbp
    91c6:	c3                   	retq   

00000000000091c7 <safe_add_func_float_f_f>:
    91c7:	f3 0f 1e fa          	endbr64 
    91cb:	55                   	push   %rbp
    91cc:	48 89 e5             	mov    %rsp,%rbp
    91cf:	f3 0f 11 45 fc       	movss  %xmm0,-0x4(%rbp)
    91d4:	f3 0f 11 4d f8       	movss  %xmm1,-0x8(%rbp)
    91d9:	f3 0f 10 4d fc       	movss  -0x4(%rbp),%xmm1
    91de:	f3 0f 10 05 5a bb 00 	movss  0xbb5a(%rip),%xmm0        # 14d40 <l_2992.4542+0xa0>
    91e5:	00 
    91e6:	f3 0f 59 c8          	mulss  %xmm0,%xmm1
    91ea:	f3 0f 10 55 f8       	movss  -0x8(%rbp),%xmm2
    91ef:	f3 0f 10 05 49 bb 00 	movss  0xbb49(%rip),%xmm0        # 14d40 <l_2992.4542+0xa0>
    91f6:	00 
    91f7:	f3 0f 59 c2          	mulss  %xmm2,%xmm0
    91fb:	f3 0f 58 c1          	addss  %xmm1,%xmm0
    91ff:	f3 0f 10 0d 49 bb 00 	movss  0xbb49(%rip),%xmm1        # 14d50 <l_2992.4542+0xb0>
    9206:	00 
    9207:	0f 54 c1             	andps  %xmm1,%xmm0
    920a:	0f 2f 05 4f bb 00 00 	comiss 0xbb4f(%rip),%xmm0        # 14d60 <l_2992.4542+0xc0>
    9211:	76 07                	jbe    921a <safe_add_func_float_f_f+0x53>
    9213:	f3 0f 10 45 fc       	movss  -0x4(%rbp),%xmm0
    9218:	eb 0a                	jmp    9224 <safe_add_func_float_f_f+0x5d>
    921a:	f3 0f 10 45 fc       	movss  -0x4(%rbp),%xmm0
    921f:	f3 0f 58 45 f8       	addss  -0x8(%rbp),%xmm0
    9224:	5d                   	pop    %rbp
    9225:	c3                   	retq   

0000000000009226 <safe_sub_func_float_f_f>:
    9226:	f3 0f 1e fa          	endbr64 
    922a:	55                   	push   %rbp
    922b:	48 89 e5             	mov    %rsp,%rbp
    922e:	f3 0f 11 45 fc       	movss  %xmm0,-0x4(%rbp)
    9233:	f3 0f 11 4d f8       	movss  %xmm1,-0x8(%rbp)
    9238:	f3 0f 10 4d fc       	movss  -0x4(%rbp),%xmm1
    923d:	f3 0f 10 05 fb ba 00 	movss  0xbafb(%rip),%xmm0        # 14d40 <l_2992.4542+0xa0>
    9244:	00 
    9245:	f3 0f 59 c1          	mulss  %xmm1,%xmm0
    9249:	f3 0f 10 55 f8       	movss  -0x8(%rbp),%xmm2
    924e:	f3 0f 10 0d ea ba 00 	movss  0xbaea(%rip),%xmm1        # 14d40 <l_2992.4542+0xa0>
    9255:	00 
    9256:	f3 0f 59 ca          	mulss  %xmm2,%xmm1
    925a:	f3 0f 5c c1          	subss  %xmm1,%xmm0
    925e:	f3 0f 10 0d ea ba 00 	movss  0xbaea(%rip),%xmm1        # 14d50 <l_2992.4542+0xb0>
    9265:	00 
    9266:	0f 54 c1             	andps  %xmm1,%xmm0
    9269:	0f 2f 05 f0 ba 00 00 	comiss 0xbaf0(%rip),%xmm0        # 14d60 <l_2992.4542+0xc0>
    9270:	76 07                	jbe    9279 <safe_sub_func_float_f_f+0x53>
    9272:	f3 0f 10 45 fc       	movss  -0x4(%rbp),%xmm0
    9277:	eb 0a                	jmp    9283 <safe_sub_func_float_f_f+0x5d>
    9279:	f3 0f 10 45 fc       	movss  -0x4(%rbp),%xmm0
    927e:	f3 0f 5c 45 f8       	subss  -0x8(%rbp),%xmm0
    9283:	5d                   	pop    %rbp
    9284:	c3                   	retq   

0000000000009285 <safe_mul_func_float_f_f>:
    9285:	f3 0f 1e fa          	endbr64 
    9289:	55                   	push   %rbp
    928a:	48 89 e5             	mov    %rsp,%rbp
    928d:	f3 0f 11 45 fc       	movss  %xmm0,-0x4(%rbp)
    9292:	f3 0f 11 4d f8       	movss  %xmm1,-0x8(%rbp)
    9297:	f3 0f 10 4d fc       	movss  -0x4(%rbp),%xmm1
    929c:	f3 0f 10 05 c0 ba 00 	movss  0xbac0(%rip),%xmm0        # 14d64 <l_2992.4542+0xc4>
    92a3:	00 
    92a4:	f3 0f 59 c8          	mulss  %xmm0,%xmm1
    92a8:	f3 0f 10 55 f8       	movss  -0x8(%rbp),%xmm2
    92ad:	f3 0f 10 05 b3 ba 00 	movss  0xbab3(%rip),%xmm0        # 14d68 <l_2992.4542+0xc8>
    92b4:	00 
    92b5:	f3 0f 59 c2          	mulss  %xmm2,%xmm0
    92b9:	f3 0f 59 c1          	mulss  %xmm1,%xmm0
    92bd:	f3 0f 10 0d 8b ba 00 	movss  0xba8b(%rip),%xmm1        # 14d50 <l_2992.4542+0xb0>
    92c4:	00 
    92c5:	0f 54 c1             	andps  %xmm1,%xmm0
    92c8:	0f 2f 05 9d ba 00 00 	comiss 0xba9d(%rip),%xmm0        # 14d6c <l_2992.4542+0xcc>
    92cf:	76 07                	jbe    92d8 <safe_mul_func_float_f_f+0x53>
    92d1:	f3 0f 10 45 fc       	movss  -0x4(%rbp),%xmm0
    92d6:	eb 0a                	jmp    92e2 <safe_mul_func_float_f_f+0x5d>
    92d8:	f3 0f 10 45 fc       	movss  -0x4(%rbp),%xmm0
    92dd:	f3 0f 59 45 f8       	mulss  -0x8(%rbp),%xmm0
    92e2:	5d                   	pop    %rbp
    92e3:	c3                   	retq   

00000000000092e4 <safe_div_func_float_f_f>:
    92e4:	f3 0f 1e fa          	endbr64 
    92e8:	55                   	push   %rbp
    92e9:	48 89 e5             	mov    %rsp,%rbp
    92ec:	f3 0f 11 45 fc       	movss  %xmm0,-0x4(%rbp)
    92f1:	f3 0f 11 4d f8       	movss  %xmm1,-0x8(%rbp)
    92f6:	f3 0f 10 45 f8       	movss  -0x8(%rbp),%xmm0
    92fb:	f3 0f 10 0d 4d ba 00 	movss  0xba4d(%rip),%xmm1        # 14d50 <l_2992.4542+0xb0>
    9302:	00 
    9303:	0f 54 c8             	andps  %xmm0,%xmm1
    9306:	f3 0f 10 05 62 ba 00 	movss  0xba62(%rip),%xmm0        # 14d70 <l_2992.4542+0xd0>
    930d:	00 
    930e:	0f 2f c1             	comiss %xmm1,%xmm0
    9311:	0f 97 c0             	seta   %al
    9314:	83 f0 01             	xor    $0x1,%eax
    9317:	84 c0                	test   %al,%al
    9319:	75 56                	jne    9371 <safe_div_func_float_f_f+0x8d>
    931b:	66 0f ef c0          	pxor   %xmm0,%xmm0
    931f:	0f 2e 45 f8          	ucomiss -0x8(%rbp),%xmm0
    9323:	7a 0a                	jp     932f <safe_div_func_float_f_f+0x4b>
    9325:	66 0f ef c0          	pxor   %xmm0,%xmm0
    9329:	0f 2e 45 f8          	ucomiss -0x8(%rbp),%xmm0
    932d:	74 4e                	je     937d <safe_div_func_float_f_f+0x99>
    932f:	f3 0f 10 4d fc       	movss  -0x4(%rbp),%xmm1
    9334:	f3 0f 10 05 38 ba 00 	movss  0xba38(%rip),%xmm0        # 14d74 <l_2992.4542+0xd4>
    933b:	00 
    933c:	f3 0f 59 c1          	mulss  %xmm1,%xmm0
    9340:	f3 0f 10 55 f8       	movss  -0x8(%rbp),%xmm2
    9345:	f3 0f 10 0d 2b ba 00 	movss  0xba2b(%rip),%xmm1        # 14d78 <l_2992.4542+0xd8>
    934c:	00 
    934d:	f3 0f 59 ca          	mulss  %xmm2,%xmm1
    9351:	f3 0f 5e c1          	divss  %xmm1,%xmm0
    9355:	f3 0f 10 0d f3 b9 00 	movss  0xb9f3(%rip),%xmm1        # 14d50 <l_2992.4542+0xb0>
    935c:	00 
    935d:	0f 54 c1             	andps  %xmm1,%xmm0
    9360:	0f 2f 05 15 ba 00 00 	comiss 0xba15(%rip),%xmm0        # 14d7c <l_2992.4542+0xdc>
    9367:	0f 97 c0             	seta   %al
    936a:	83 f0 01             	xor    $0x1,%eax
    936d:	84 c0                	test   %al,%al
    936f:	74 0c                	je     937d <safe_div_func_float_f_f+0x99>
    9371:	f3 0f 10 45 fc       	movss  -0x4(%rbp),%xmm0
    9376:	f3 0f 5e 45 f8       	divss  -0x8(%rbp),%xmm0
    937b:	eb 05                	jmp    9382 <safe_div_func_float_f_f+0x9e>
    937d:	f3 0f 10 45 fc       	movss  -0x4(%rbp),%xmm0
    9382:	5d                   	pop    %rbp
    9383:	c3                   	retq   

0000000000009384 <safe_add_func_double_f_f>:
    9384:	f3 0f 1e fa          	endbr64 
    9388:	55                   	push   %rbp
    9389:	48 89 e5             	mov    %rsp,%rbp
    938c:	f2 0f 11 45 f8       	movsd  %xmm0,-0x8(%rbp)
    9391:	f2 0f 11 4d f0       	movsd  %xmm1,-0x10(%rbp)
    9396:	f2 0f 10 4d f8       	movsd  -0x8(%rbp),%xmm1
    939b:	f2 0f 10 05 dd b9 00 	movsd  0xb9dd(%rip),%xmm0        # 14d80 <l_2992.4542+0xe0>
    93a2:	00 
    93a3:	f2 0f 59 c8          	mulsd  %xmm0,%xmm1
    93a7:	f2 0f 10 55 f0       	movsd  -0x10(%rbp),%xmm2
    93ac:	f2 0f 10 05 cc b9 00 	movsd  0xb9cc(%rip),%xmm0        # 14d80 <l_2992.4542+0xe0>
    93b3:	00 
    93b4:	f2 0f 59 c2          	mulsd  %xmm2,%xmm0
    93b8:	f2 0f 58 c1          	addsd  %xmm1,%xmm0
    93bc:	f3 0f 7e 0d cc b9 00 	movq   0xb9cc(%rip),%xmm1        # 14d90 <l_2992.4542+0xf0>
    93c3:	00 
    93c4:	66 0f 54 c1          	andpd  %xmm1,%xmm0
    93c8:	66 0f 2f 05 d0 b9 00 	comisd 0xb9d0(%rip),%xmm0        # 14da0 <l_2992.4542+0x100>
    93cf:	00 
    93d0:	76 07                	jbe    93d9 <safe_add_func_double_f_f+0x55>
    93d2:	f2 0f 10 45 f8       	movsd  -0x8(%rbp),%xmm0
    93d7:	eb 0a                	jmp    93e3 <safe_add_func_double_f_f+0x5f>
    93d9:	f2 0f 10 45 f8       	movsd  -0x8(%rbp),%xmm0
    93de:	f2 0f 58 45 f0       	addsd  -0x10(%rbp),%xmm0
    93e3:	5d                   	pop    %rbp
    93e4:	c3                   	retq   

00000000000093e5 <safe_sub_func_double_f_f>:
    93e5:	f3 0f 1e fa          	endbr64 
    93e9:	55                   	push   %rbp
    93ea:	48 89 e5             	mov    %rsp,%rbp
    93ed:	f2 0f 11 45 f8       	movsd  %xmm0,-0x8(%rbp)
    93f2:	f2 0f 11 4d f0       	movsd  %xmm1,-0x10(%rbp)
    93f7:	f2 0f 10 4d f8       	movsd  -0x8(%rbp),%xmm1
    93fc:	f2 0f 10 05 7c b9 00 	movsd  0xb97c(%rip),%xmm0        # 14d80 <l_2992.4542+0xe0>
    9403:	00 
    9404:	f2 0f 59 c1          	mulsd  %xmm1,%xmm0
    9408:	f2 0f 10 55 f0       	movsd  -0x10(%rbp),%xmm2
    940d:	f2 0f 10 0d 6b b9 00 	movsd  0xb96b(%rip),%xmm1        # 14d80 <l_2992.4542+0xe0>
    9414:	00 
    9415:	f2 0f 59 ca          	mulsd  %xmm2,%xmm1
    9419:	f2 0f 5c c1          	subsd  %xmm1,%xmm0
    941d:	f3 0f 7e 0d 6b b9 00 	movq   0xb96b(%rip),%xmm1        # 14d90 <l_2992.4542+0xf0>
    9424:	00 
    9425:	66 0f 54 c1          	andpd  %xmm1,%xmm0
    9429:	66 0f 2f 05 6f b9 00 	comisd 0xb96f(%rip),%xmm0        # 14da0 <l_2992.4542+0x100>
    9430:	00 
    9431:	76 07                	jbe    943a <safe_sub_func_double_f_f+0x55>
    9433:	f2 0f 10 45 f8       	movsd  -0x8(%rbp),%xmm0
    9438:	eb 0a                	jmp    9444 <safe_sub_func_double_f_f+0x5f>
    943a:	f2 0f 10 45 f8       	movsd  -0x8(%rbp),%xmm0
    943f:	f2 0f 5c 45 f0       	subsd  -0x10(%rbp),%xmm0
    9444:	5d                   	pop    %rbp
    9445:	c3                   	retq   

0000000000009446 <safe_mul_func_double_f_f>:
    9446:	f3 0f 1e fa          	endbr64 
    944a:	55                   	push   %rbp
    944b:	48 89 e5             	mov    %rsp,%rbp
    944e:	f2 0f 11 45 f8       	movsd  %xmm0,-0x8(%rbp)
    9453:	f2 0f 11 4d f0       	movsd  %xmm1,-0x10(%rbp)
    9458:	f2 0f 10 4d f8       	movsd  -0x8(%rbp),%xmm1
    945d:	f2 0f 10 05 43 b9 00 	movsd  0xb943(%rip),%xmm0        # 14da8 <l_2992.4542+0x108>
    9464:	00 
    9465:	f2 0f 59 c8          	mulsd  %xmm0,%xmm1
    9469:	f2 0f 10 55 f0       	movsd  -0x10(%rbp),%xmm2
    946e:	f2 0f 10 05 3a b9 00 	movsd  0xb93a(%rip),%xmm0        # 14db0 <l_2992.4542+0x110>
    9475:	00 
    9476:	f2 0f 59 c2          	mulsd  %xmm2,%xmm0
    947a:	f2 0f 59 c1          	mulsd  %xmm1,%xmm0
    947e:	f3 0f 7e 0d 0a b9 00 	movq   0xb90a(%rip),%xmm1        # 14d90 <l_2992.4542+0xf0>
    9485:	00 
    9486:	66 0f 54 c1          	andpd  %xmm1,%xmm0
    948a:	66 0f 2f 05 26 b9 00 	comisd 0xb926(%rip),%xmm0        # 14db8 <l_2992.4542+0x118>
    9491:	00 
    9492:	76 07                	jbe    949b <safe_mul_func_double_f_f+0x55>
    9494:	f2 0f 10 45 f8       	movsd  -0x8(%rbp),%xmm0
    9499:	eb 0a                	jmp    94a5 <safe_mul_func_double_f_f+0x5f>
    949b:	f2 0f 10 45 f8       	movsd  -0x8(%rbp),%xmm0
    94a0:	f2 0f 59 45 f0       	mulsd  -0x10(%rbp),%xmm0
    94a5:	5d                   	pop    %rbp
    94a6:	c3                   	retq   

00000000000094a7 <safe_div_func_double_f_f>:
    94a7:	f3 0f 1e fa          	endbr64 
    94ab:	55                   	push   %rbp
    94ac:	48 89 e5             	mov    %rsp,%rbp
    94af:	f2 0f 11 45 f8       	movsd  %xmm0,-0x8(%rbp)
    94b4:	f2 0f 11 4d f0       	movsd  %xmm1,-0x10(%rbp)
    94b9:	f2 0f 10 45 f0       	movsd  -0x10(%rbp),%xmm0
    94be:	f3 0f 7e 0d ca b8 00 	movq   0xb8ca(%rip),%xmm1        # 14d90 <l_2992.4542+0xf0>
    94c5:	00 
    94c6:	66 0f 54 c8          	andpd  %xmm0,%xmm1
    94ca:	f2 0f 10 05 ee b8 00 	movsd  0xb8ee(%rip),%xmm0        # 14dc0 <l_2992.4542+0x120>
    94d1:	00 
    94d2:	66 0f 2f c1          	comisd %xmm1,%xmm0
    94d6:	0f 97 c0             	seta   %al
    94d9:	83 f0 01             	xor    $0x1,%eax
    94dc:	84 c0                	test   %al,%al
    94de:	75 5a                	jne    953a <safe_div_func_double_f_f+0x93>
    94e0:	66 0f ef c0          	pxor   %xmm0,%xmm0
    94e4:	66 0f 2e 45 f0       	ucomisd -0x10(%rbp),%xmm0
    94e9:	7a 0b                	jp     94f6 <safe_div_func_double_f_f+0x4f>
    94eb:	66 0f ef c0          	pxor   %xmm0,%xmm0
    94ef:	66 0f 2e 45 f0       	ucomisd -0x10(%rbp),%xmm0
    94f4:	74 50                	je     9546 <safe_div_func_double_f_f+0x9f>
    94f6:	f2 0f 10 4d f8       	movsd  -0x8(%rbp),%xmm1
    94fb:	f2 0f 10 05 c5 b8 00 	movsd  0xb8c5(%rip),%xmm0        # 14dc8 <l_2992.4542+0x128>
    9502:	00 
    9503:	f2 0f 59 c1          	mulsd  %xmm1,%xmm0
    9507:	f2 0f 10 55 f0       	movsd  -0x10(%rbp),%xmm2
    950c:	f2 0f 10 0d bc b8 00 	movsd  0xb8bc(%rip),%xmm1        # 14dd0 <l_2992.4542+0x130>
    9513:	00 
    9514:	f2 0f 59 ca          	mulsd  %xmm2,%xmm1
    9518:	f2 0f 5e c1          	divsd  %xmm1,%xmm0
    951c:	f3 0f 7e 0d 6c b8 00 	movq   0xb86c(%rip),%xmm1        # 14d90 <l_2992.4542+0xf0>
    9523:	00 
    9524:	66 0f 54 c1          	andpd  %xmm1,%xmm0
    9528:	66 0f 2f 05 a8 b8 00 	comisd 0xb8a8(%rip),%xmm0        # 14dd8 <l_2992.4542+0x138>
    952f:	00 
    9530:	0f 97 c0             	seta   %al
    9533:	83 f0 01             	xor    $0x1,%eax
    9536:	84 c0                	test   %al,%al
    9538:	74 0c                	je     9546 <safe_div_func_double_f_f+0x9f>
    953a:	f2 0f 10 45 f8       	movsd  -0x8(%rbp),%xmm0
    953f:	f2 0f 5e 45 f0       	divsd  -0x10(%rbp),%xmm0
    9544:	eb 05                	jmp    954b <safe_div_func_double_f_f+0xa4>
    9546:	f2 0f 10 45 f8       	movsd  -0x8(%rbp),%xmm0
    954b:	5d                   	pop    %rbp
    954c:	c3                   	retq   

000000000000954d <safe_convert_func_float_to_int32_t>:
    954d:	f3 0f 1e fa          	endbr64 
    9551:	55                   	push   %rbp
    9552:	48 89 e5             	mov    %rsp,%rbp
    9555:	f3 0f 11 45 fc       	movss  %xmm0,-0x4(%rbp)
    955a:	f3 0f 10 05 7e b8 00 	movss  0xb87e(%rip),%xmm0        # 14de0 <l_2992.4542+0x140>
    9561:	00 
    9562:	0f 2f 45 fc          	comiss -0x4(%rbp),%xmm0
    9566:	0f 93 c0             	setae  %al
    9569:	83 f0 01             	xor    $0x1,%eax
    956c:	84 c0                	test   %al,%al
    956e:	74 21                	je     9591 <safe_convert_func_float_to_int32_t+0x44>
    9570:	f3 0f 10 45 fc       	movss  -0x4(%rbp),%xmm0
    9575:	0f 2f 05 68 b8 00 00 	comiss 0xb868(%rip),%xmm0        # 14de4 <l_2992.4542+0x144>
    957c:	0f 93 c0             	setae  %al
    957f:	83 f0 01             	xor    $0x1,%eax
    9582:	84 c0                	test   %al,%al
    9584:	74 0b                	je     9591 <safe_convert_func_float_to_int32_t+0x44>
    9586:	f3 0f 10 45 fc       	movss  -0x4(%rbp),%xmm0
    958b:	f3 0f 2c c0          	cvttss2si %xmm0,%eax
    958f:	eb 05                	jmp    9596 <safe_convert_func_float_to_int32_t+0x49>
    9591:	b8 ff ff ff 7f       	mov    $0x7fffffff,%eax
    9596:	5d                   	pop    %rbp
    9597:	c3                   	retq   

0000000000009598 <crc32_gentab>:
    9598:	f3 0f 1e fa          	endbr64 
    959c:	55                   	push   %rbp
    959d:	48 89 e5             	mov    %rsp,%rbp
    95a0:	c7 45 fc 20 83 b8 ed 	movl   $0xedb88320,-0x4(%rbp)
    95a7:	c7 45 f4 00 00 00 00 	movl   $0x0,-0xc(%rbp)
    95ae:	eb 51                	jmp    9601 <crc32_gentab+0x69>
    95b0:	8b 45 f4             	mov    -0xc(%rbp),%eax
    95b3:	89 45 f0             	mov    %eax,-0x10(%rbp)
    95b6:	c7 45 f8 08 00 00 00 	movl   $0x8,-0x8(%rbp)
    95bd:	eb 1e                	jmp    95dd <crc32_gentab+0x45>
    95bf:	8b 45 f0             	mov    -0x10(%rbp),%eax
    95c2:	83 e0 01             	and    $0x1,%eax
    95c5:	85 c0                	test   %eax,%eax
    95c7:	74 0d                	je     95d6 <crc32_gentab+0x3e>
    95c9:	8b 45 f0             	mov    -0x10(%rbp),%eax
    95cc:	d1 e8                	shr    %eax
    95ce:	33 45 fc             	xor    -0x4(%rbp),%eax
    95d1:	89 45 f0             	mov    %eax,-0x10(%rbp)
    95d4:	eb 03                	jmp    95d9 <crc32_gentab+0x41>
    95d6:	d1 6d f0             	shrl   -0x10(%rbp)
    95d9:	83 6d f8 01          	subl   $0x1,-0x8(%rbp)
    95dd:	83 7d f8 00          	cmpl   $0x0,-0x8(%rbp)
    95e1:	7f dc                	jg     95bf <crc32_gentab+0x27>
    95e3:	8b 45 f4             	mov    -0xc(%rbp),%eax
    95e6:	48 98                	cltq   
    95e8:	48 8d 0c 85 00 00 00 	lea    0x0(,%rax,4),%rcx
    95ef:	00 
    95f0:	48 8d 15 29 2a 01 00 	lea    0x12a29(%rip),%rdx        # 1c020 <crc32_tab>
    95f7:	8b 45 f0             	mov    -0x10(%rbp),%eax
    95fa:	89 04 11             	mov    %eax,(%rcx,%rdx,1)
    95fd:	83 45 f4 01          	addl   $0x1,-0xc(%rbp)
    9601:	81 7d f4 ff 00 00 00 	cmpl   $0xff,-0xc(%rbp)
    9608:	7e a6                	jle    95b0 <crc32_gentab+0x18>
    960a:	90                   	nop
    960b:	90                   	nop
    960c:	5d                   	pop    %rbp
    960d:	c3                   	retq   

000000000000960e <crc32_byte>:
    960e:	f3 0f 1e fa          	endbr64 
    9612:	55                   	push   %rbp
    9613:	48 89 e5             	mov    %rsp,%rbp
    9616:	89 f8                	mov    %edi,%eax
    9618:	88 45 fc             	mov    %al,-0x4(%rbp)
    961b:	8b 05 ff d9 00 00    	mov    0xd9ff(%rip),%eax        # 17020 <crc32_context>
    9621:	c1 e8 08             	shr    $0x8,%eax
    9624:	89 c1                	mov    %eax,%ecx
    9626:	0f b6 55 fc          	movzbl -0x4(%rbp),%edx
    962a:	8b 05 f0 d9 00 00    	mov    0xd9f0(%rip),%eax        # 17020 <crc32_context>
    9630:	31 d0                	xor    %edx,%eax
    9632:	0f b6 c0             	movzbl %al,%eax
    9635:	89 c0                	mov    %eax,%eax
    9637:	48 8d 14 85 00 00 00 	lea    0x0(,%rax,4),%rdx
    963e:	00 
    963f:	48 8d 05 da 29 01 00 	lea    0x129da(%rip),%rax        # 1c020 <crc32_tab>
    9646:	8b 04 02             	mov    (%rdx,%rax,1),%eax
    9649:	31 c8                	xor    %ecx,%eax
    964b:	89 05 cf d9 00 00    	mov    %eax,0xd9cf(%rip)        # 17020 <crc32_context>
    9651:	90                   	nop
    9652:	5d                   	pop    %rbp
    9653:	c3                   	retq   

0000000000009654 <crc32_8bytes>:
    9654:	f3 0f 1e fa          	endbr64 
    9658:	55                   	push   %rbp
    9659:	48 89 e5             	mov    %rsp,%rbp
    965c:	48 83 ec 08          	sub    $0x8,%rsp
    9660:	48 89 7d f8          	mov    %rdi,-0x8(%rbp)
    9664:	48 8b 45 f8          	mov    -0x8(%rbp),%rax
    9668:	0f b6 c0             	movzbl %al,%eax
    966b:	89 c7                	mov    %eax,%edi
    966d:	e8 9c ff ff ff       	callq  960e <crc32_byte>
    9672:	48 8b 45 f8          	mov    -0x8(%rbp),%rax
    9676:	48 c1 e8 08          	shr    $0x8,%rax
    967a:	0f b6 c0             	movzbl %al,%eax
    967d:	89 c7                	mov    %eax,%edi
    967f:	e8 8a ff ff ff       	callq  960e <crc32_byte>
    9684:	48 8b 45 f8          	mov    -0x8(%rbp),%rax
    9688:	48 c1 e8 10          	shr    $0x10,%rax
    968c:	0f b6 c0             	movzbl %al,%eax
    968f:	89 c7                	mov    %eax,%edi
    9691:	e8 78 ff ff ff       	callq  960e <crc32_byte>
    9696:	48 8b 45 f8          	mov    -0x8(%rbp),%rax
    969a:	48 c1 e8 18          	shr    $0x18,%rax
    969e:	0f b6 c0             	movzbl %al,%eax
    96a1:	89 c7                	mov    %eax,%edi
    96a3:	e8 66 ff ff ff       	callq  960e <crc32_byte>
    96a8:	48 8b 45 f8          	mov    -0x8(%rbp),%rax
    96ac:	48 c1 e8 20          	shr    $0x20,%rax
    96b0:	0f b6 c0             	movzbl %al,%eax
    96b3:	89 c7                	mov    %eax,%edi
    96b5:	e8 54 ff ff ff       	callq  960e <crc32_byte>
    96ba:	48 8b 45 f8          	mov    -0x8(%rbp),%rax
    96be:	48 c1 e8 28          	shr    $0x28,%rax
    96c2:	0f b6 c0             	movzbl %al,%eax
    96c5:	89 c7                	mov    %eax,%edi
    96c7:	e8 42 ff ff ff       	callq  960e <crc32_byte>
    96cc:	48 8b 45 f8          	mov    -0x8(%rbp),%rax
    96d0:	48 c1 e8 30          	shr    $0x30,%rax
    96d4:	0f b6 c0             	movzbl %al,%eax
    96d7:	89 c7                	mov    %eax,%edi
    96d9:	e8 30 ff ff ff       	callq  960e <crc32_byte>
    96de:	48 8b 45 f8          	mov    -0x8(%rbp),%rax
    96e2:	48 c1 e8 38          	shr    $0x38,%rax
    96e6:	0f b6 c0             	movzbl %al,%eax
    96e9:	89 c7                	mov    %eax,%edi
    96eb:	e8 1e ff ff ff       	callq  960e <crc32_byte>
    96f0:	90                   	nop
    96f1:	c9                   	leaveq 
    96f2:	c3                   	retq   

00000000000096f3 <transparent_crc>:
    96f3:	f3 0f 1e fa          	endbr64 
    96f7:	55                   	push   %rbp
    96f8:	48 89 e5             	mov    %rsp,%rbp
    96fb:	48 83 ec 20          	sub    $0x20,%rsp
    96ff:	48 89 7d f8          	mov    %rdi,-0x8(%rbp)
    9703:	48 89 75 f0          	mov    %rsi,-0x10(%rbp)
    9707:	89 55 ec             	mov    %edx,-0x14(%rbp)
    970a:	48 8b 45 f8          	mov    -0x8(%rbp),%rax
    970e:	48 89 c7             	mov    %rax,%rdi
    9711:	e8 3e ff ff ff       	callq  9654 <crc32_8bytes>
    9716:	83 7d ec 00          	cmpl   $0x0,-0x14(%rbp)
    971a:	74 22                	je     973e <transparent_crc+0x4b>
    971c:	8b 05 fe d8 00 00    	mov    0xd8fe(%rip),%eax        # 17020 <crc32_context>
    9722:	f7 d0                	not    %eax
    9724:	89 c2                	mov    %eax,%edx
    9726:	48 8b 45 f0          	mov    -0x10(%rbp),%rax
    972a:	48 89 c6             	mov    %rax,%rsi
    972d:	48 8d 3d fc 98 00 00 	lea    0x98fc(%rip),%rdi        # 13030 <_IO_stdin_used+0x30>
    9734:	b8 00 00 00 00       	mov    $0x0,%eax
    9739:	e8 42 e9 ff ff       	callq  8080 <printf@plt>
    973e:	90                   	nop
    973f:	c9                   	leaveq 
    9740:	c3                   	retq   

0000000000009741 <transparent_crc_bytes>:
    9741:	f3 0f 1e fa          	endbr64 
    9745:	55                   	push   %rbp
    9746:	48 89 e5             	mov    %rsp,%rbp
    9749:	48 83 ec 30          	sub    $0x30,%rsp
    974d:	48 89 7d e8          	mov    %rdi,-0x18(%rbp)
    9751:	89 75 e4             	mov    %esi,-0x1c(%rbp)
    9754:	48 89 55 d8          	mov    %rdx,-0x28(%rbp)
    9758:	89 4d e0             	mov    %ecx,-0x20(%rbp)
    975b:	c7 45 fc 00 00 00 00 	movl   $0x0,-0x4(%rbp)
    9762:	eb 1e                	jmp    9782 <transparent_crc_bytes+0x41>
    9764:	8b 45 fc             	mov    -0x4(%rbp),%eax
    9767:	48 63 d0             	movslq %eax,%rdx
    976a:	48 8b 45 e8          	mov    -0x18(%rbp),%rax
    976e:	48 01 d0             	add    %rdx,%rax
    9771:	0f b6 00             	movzbl (%rax),%eax
    9774:	0f b6 c0             	movzbl %al,%eax
    9777:	89 c7                	mov    %eax,%edi
    9779:	e8 90 fe ff ff       	callq  960e <crc32_byte>
    977e:	83 45 fc 01          	addl   $0x1,-0x4(%rbp)
    9782:	8b 45 fc             	mov    -0x4(%rbp),%eax
    9785:	3b 45 e4             	cmp    -0x1c(%rbp),%eax
    9788:	7c da                	jl     9764 <transparent_crc_bytes+0x23>
    978a:	83 7d e0 00          	cmpl   $0x0,-0x20(%rbp)
    978e:	74 22                	je     97b2 <transparent_crc_bytes+0x71>
    9790:	8b 05 8a d8 00 00    	mov    0xd88a(%rip),%eax        # 17020 <crc32_context>
    9796:	f7 d0                	not    %eax
    9798:	89 c2                	mov    %eax,%edx
    979a:	48 8b 45 d8          	mov    -0x28(%rbp),%rax
    979e:	48 89 c6             	mov    %rax,%rsi
    97a1:	48 8d 3d 88 98 00 00 	lea    0x9888(%rip),%rdi        # 13030 <_IO_stdin_used+0x30>
    97a8:	b8 00 00 00 00       	mov    $0x0,%eax
    97ad:	e8 ce e8 ff ff       	callq  8080 <printf@plt>
    97b2:	90                   	nop
    97b3:	c9                   	leaveq 
    97b4:	c3                   	retq   

00000000000097b5 <func_1>:
    97b5:	f3 0f 1e fa          	endbr64 
    97b9:	55                   	push   %rbp
    97ba:	48 89 e5             	mov    %rsp,%rbp
    97bd:	41 57                	push   %r15
    97bf:	41 56                	push   %r14
    97c1:	41 55                	push   %r13
    97c3:	41 54                	push   %r12
    97c5:	53                   	push   %rbx
    97c6:	48 81 ec 58 01 00 00 	sub    $0x158,%rsp
    97cd:	64 48 8b 04 25 28 00 	mov    %fs:0x28,%rax
    97d4:	00 00 
    97d6:	48 89 45 c8          	mov    %rax,-0x38(%rbp)
    97da:	31 c0                	xor    %eax,%eax
    97dc:	66 c7 85 e0 fe ff ff 	movw   $0xd15d,-0x120(%rbp)
    97e3:	5d d1 
    97e5:	66 c7 85 e2 fe ff ff 	movw   $0xd15d,-0x11e(%rbp)
    97ec:	5d d1 
    97ee:	66 c7 85 e4 fe ff ff 	movw   $0xd15d,-0x11c(%rbp)
    97f5:	5d d1 
    97f7:	66 c7 85 e6 fe ff ff 	movw   $0xd15d,-0x11a(%rbp)
    97fe:	5d d1 
    9800:	66 c7 85 e8 fe ff ff 	movw   $0xd15d,-0x118(%rbp)
    9807:	5d d1 
    9809:	66 c7 85 ea fe ff ff 	movw   $0xd15d,-0x116(%rbp)
    9810:	5d d1 
    9812:	66 c7 85 ec fe ff ff 	movw   $0xd15d,-0x114(%rbp)
    9819:	5d d1 
    981b:	66 c7 85 ee fe ff ff 	movw   $0xd15d,-0x112(%rbp)
    9822:	5d d1 
    9824:	66 c7 85 f0 fe ff ff 	movw   $0xd15d,-0x110(%rbp)
    982b:	5d d1 
    982d:	c7 85 88 fe ff ff e2 	movl   $0x8f4a8fe2,-0x178(%rbp)
    9834:	8f 4a 8f 
    9837:	48 8d 05 6a dc 00 00 	lea    0xdc6a(%rip),%rax        # 174a8 <g_969>
    983e:	48 89 85 a8 fe ff ff 	mov    %rax,-0x158(%rbp)
    9845:	c7 85 8c fe ff ff 27 	movl   $0xbd3af727,-0x174(%rbp)
    984c:	f7 3a bd 
    984f:	48 c7 85 b0 fe ff ff 	movq   $0x0,-0x150(%rbp)
    9856:	00 00 00 00 
    985a:	48 b8 b2 b6 e8 86 47 	movabs $0x60c5c34786e8b6b2,%rax
    9861:	c3 c5 60 
    9864:	48 89 85 a0 fe ff ff 	mov    %rax,-0x160(%rbp)
    986b:	48 c7 85 b8 fe ff ff 	movq   $0x0,-0x148(%rbp)
    9872:	00 00 00 00 
    9876:	48 8d 05 8b 2d 01 00 	lea    0x12d8b(%rip),%rax        # 1c608 <g_3620>
    987d:	48 89 85 c0 fe ff ff 	mov    %rax,-0x140(%rbp)
    9884:	48 8d 85 88 fe ff ff 	lea    -0x178(%rbp),%rax
    988b:	48 89 85 40 ff ff ff 	mov    %rax,-0xc0(%rbp)
    9892:	48 8d 85 88 fe ff ff 	lea    -0x178(%rbp),%rax
    9899:	48 89 85 48 ff ff ff 	mov    %rax,-0xb8(%rbp)
    98a0:	48 8d 05 9d d9 00 00 	lea    0xd99d(%rip),%rax        # 17244 <g_125>
    98a7:	48 89 85 50 ff ff ff 	mov    %rax,-0xb0(%rbp)
    98ae:	48 8d 85 88 fe ff ff 	lea    -0x178(%rbp),%rax
    98b5:	48 89 85 58 ff ff ff 	mov    %rax,-0xa8(%rbp)
    98bc:	48 8d 85 88 fe ff ff 	lea    -0x178(%rbp),%rax
    98c3:	48 89 85 60 ff ff ff 	mov    %rax,-0xa0(%rbp)
    98ca:	48 8d 05 73 d9 00 00 	lea    0xd973(%rip),%rax        # 17244 <g_125>
    98d1:	48 89 85 68 ff ff ff 	mov    %rax,-0x98(%rbp)
    98d8:	48 8d 85 88 fe ff ff 	lea    -0x178(%rbp),%rax
    98df:	48 89 85 70 ff ff ff 	mov    %rax,-0x90(%rbp)
    98e6:	48 8d 85 88 fe ff ff 	lea    -0x178(%rbp),%rax
    98ed:	48 89 85 78 ff ff ff 	mov    %rax,-0x88(%rbp)
    98f4:	48 8d 05 49 d9 00 00 	lea    0xd949(%rip),%rax        # 17244 <g_125>
    98fb:	48 89 45 80          	mov    %rax,-0x80(%rbp)
    98ff:	48 8d 85 88 fe ff ff 	lea    -0x178(%rbp),%rax
    9906:	48 89 45 88          	mov    %rax,-0x78(%rbp)
    990a:	48 8d 85 88 fe ff ff 	lea    -0x178(%rbp),%rax
    9911:	48 89 45 90          	mov    %rax,-0x70(%rbp)
    9915:	48 8d 05 28 d9 00 00 	lea    0xd928(%rip),%rax        # 17244 <g_125>
    991c:	48 89 45 98          	mov    %rax,-0x68(%rbp)
    9920:	48 8d 85 88 fe ff ff 	lea    -0x178(%rbp),%rax
    9927:	48 89 45 a0          	mov    %rax,-0x60(%rbp)
    992b:	48 8d 85 88 fe ff ff 	lea    -0x178(%rbp),%rax
    9932:	48 89 45 a8          	mov    %rax,-0x58(%rbp)
    9936:	48 8d 05 07 d9 00 00 	lea    0xd907(%rip),%rax        # 17244 <g_125>
    993d:	48 89 45 b0          	mov    %rax,-0x50(%rbp)
    9941:	48 8d 85 88 fe ff ff 	lea    -0x178(%rbp),%rax
    9948:	48 89 45 b8          	mov    %rax,-0x48(%rbp)
    994c:	66 c7 85 86 fe ff ff 	movw   $0xffff,-0x17a(%rbp)
    9953:	ff ff 
    9955:	c7 85 94 fe ff ff 00 	movl   $0x0,-0x16c(%rbp)
    995c:	00 00 00 
    995f:	c7 05 bb d6 00 00 08 	movl   $0x8,0xd6bb(%rip)        # 17024 <g_3>
    9966:	00 00 00 
    9969:	90                   	nop
    996a:	8b 05 b4 d6 00 00    	mov    0xd6b4(%rip),%eax        # 17024 <g_3>
    9970:	83 f8 02             	cmp    $0x2,%eax
    9973:	0f 8e 91 02 00 00    	jle    9c0a <func_1+0x455>
    9979:	48 8d 05 a4 d6 00 00 	lea    0xd6a4(%rip),%rax        # 17024 <g_3>
    9980:	48 89 85 98 fe ff ff 	mov    %rax,-0x168(%rbp)
    9987:	48 8d 85 98 fe ff ff 	lea    -0x168(%rbp),%rax
    998e:	48 89 85 00 ff ff ff 	mov    %rax,-0x100(%rbp)
    9995:	48 8d 85 98 fe ff ff 	lea    -0x168(%rbp),%rax
    999c:	48 89 85 08 ff ff ff 	mov    %rax,-0xf8(%rbp)
    99a3:	48 8d 85 98 fe ff ff 	lea    -0x168(%rbp),%rax
    99aa:	48 89 85 10 ff ff ff 	mov    %rax,-0xf0(%rbp)
    99b1:	48 8d 85 98 fe ff ff 	lea    -0x168(%rbp),%rax
    99b8:	48 89 85 18 ff ff ff 	mov    %rax,-0xe8(%rbp)
    99bf:	48 8d 85 98 fe ff ff 	lea    -0x168(%rbp),%rax
    99c6:	48 89 85 20 ff ff ff 	mov    %rax,-0xe0(%rbp)
    99cd:	48 8d 85 98 fe ff ff 	lea    -0x168(%rbp),%rax
    99d4:	48 89 85 28 ff ff ff 	mov    %rax,-0xd8(%rbp)
    99db:	48 8d 85 98 fe ff ff 	lea    -0x168(%rbp),%rax
    99e2:	48 89 85 30 ff ff ff 	mov    %rax,-0xd0(%rbp)
    99e9:	48 8d 05 00 db 00 00 	lea    0xdb00(%rip),%rax        # 174f0 <g_1150>
    99f0:	48 89 85 c8 fe ff ff 	mov    %rax,-0x138(%rbp)
    99f7:	48 8d 05 4a 0d 01 00 	lea    0x10d4a(%rip),%rax        # 1a748 <g_165>
    99fe:	48 89 85 d0 fe ff ff 	mov    %rax,-0x130(%rbp)
    9a05:	48 8b 85 98 fe ff ff 	mov    -0x168(%rbp),%rax
    9a0c:	8b 00                	mov    (%rax),%eax
    9a0e:	4c 63 e0             	movslq %eax,%r12
    9a11:	48 8b 85 98 fe ff ff 	mov    -0x168(%rbp),%rax
    9a18:	8b 18                	mov    (%rax),%ebx
    9a1a:	44 8b b5 8c fe ff ff 	mov    -0x174(%rbp),%r14d
    9a21:	0f b7 85 ee fe ff ff 	movzwl -0x112(%rbp),%eax
    9a28:	44 0f be e8          	movsbl %al,%r13d
    9a2c:	48 8b 05 ed 15 01 00 	mov    0x115ed(%rip),%rax        # 1b020 <g_1089>
    9a33:	4c 8b 38             	mov    (%rax),%r15
    9a36:	8b 05 e8 d5 00 00    	mov    0xd5e8(%rip),%eax        # 17024 <g_3>
    9a3c:	98                   	cwtl   
    9a3d:	89 c6                	mov    %eax,%esi
    9a3f:	48 8d 3d e2 d5 00 00 	lea    0xd5e2(%rip),%rdi        # 17028 <g_29>
    9a46:	e8 59 26 00 00       	callq  c0a4 <func_30>
    9a4b:	48 89 85 a8 fe ff ff 	mov    %rax,-0x158(%rbp)
    9a52:	48 8b 05 5f 1a 01 00 	mov    0x11a5f(%rip),%rax        # 1b4b8 <g_2891>
    9a59:	48 8b 00             	mov    (%rax),%rax
    9a5c:	48 39 85 a8 fe ff ff 	cmp    %rax,-0x158(%rbp)
    9a63:	0f 95 c0             	setne  %al
    9a66:	0f b6 d0             	movzbl %al,%edx
    9a69:	8b 05 b5 d5 00 00    	mov    0xd5b5(%rip),%eax        # 17024 <g_3>
    9a6f:	39 c2                	cmp    %eax,%edx
    9a71:	48 8b 05 a8 15 01 00 	mov    0x115a8(%rip),%rax        # 1b020 <g_1089>
    9a78:	48 8b 08             	mov    (%rax),%rcx
    9a7b:	8b 05 a3 d5 00 00    	mov    0xd5a3(%rip),%eax        # 17024 <g_3>
    9a81:	48 98                	cltq   
    9a83:	0f b7 84 45 e0 fe ff 	movzwl -0x120(%rbp,%rax,2),%eax
    9a8a:	ff 
    9a8b:	0f b6 d0             	movzbl %al,%edx
    9a8e:	48 8d 05 8f d5 00 00 	lea    0xd58f(%rip),%rax        # 17024 <g_3>
    9a95:	48 89 05 54 08 01 00 	mov    %rax,0x10854(%rip)        # 1a2f0 <g_28+0xd0>
    9a9c:	48 8b 05 4d 08 01 00 	mov    0x1084d(%rip),%rax        # 1a2f0 <g_28+0xd0>
    9aa3:	4d 89 f8             	mov    %r15,%r8
    9aa6:	48 89 c6             	mov    %rax,%rsi
    9aa9:	48 8d 3d 74 d5 00 00 	lea    0xd574(%rip),%rdi        # 17024 <g_3>
    9ab0:	e8 0f 25 00 00       	callq  bfc4 <func_20>
    9ab5:	48 89 c6             	mov    %rax,%rsi
    9ab8:	8b 05 66 d5 00 00    	mov    0xd566(%rip),%eax        # 17024 <g_3>
    9abe:	48 98                	cltq   
    9ac0:	0f b7 84 45 e0 fe ff 	movzwl -0x120(%rbp,%rax,2),%eax
    9ac7:	ff 
    9ac8:	0f b7 c0             	movzwl %ax,%eax
    9acb:	89 85 88 fe ff ff    	mov    %eax,-0x178(%rbp)
    9ad1:	8b 85 88 fe ff ff    	mov    -0x178(%rbp),%eax
    9ad7:	0f b6 c0             	movzbl %al,%eax
    9ada:	44 89 f1             	mov    %r14d,%ecx
    9add:	44 89 ea             	mov    %r13d,%edx
    9ae0:	89 c7                	mov    %eax,%edi
    9ae2:	e8 18 0c 00 00       	callq  a6ff <func_14>
    9ae7:	48 8d 85 88 fe ff ff 	lea    -0x178(%rbp),%rax
    9aee:	48 89 c7             	mov    %rax,%rdi
    9af1:	e8 92 03 00 00       	callq  9e88 <func_12>
    9af6:	48 39 85 b0 fe ff ff 	cmp    %rax,-0x150(%rbp)
    9afd:	0f 95 c0             	setne  %al
    9b00:	0f b6 c0             	movzbl %al,%eax
    9b03:	48 be 2a ad f0 33 b4 	movabs $0x87ab6db433f0ad2a,%rsi
    9b0a:	6d ab 87 
    9b0d:	48 89 c7             	mov    %rax,%rdi
    9b10:	e8 36 f5 ff ff       	callq  904b <safe_sub_func_uint64_t_u_u>
    9b15:	89 c2                	mov    %eax,%edx
    9b17:	48 8b 85 c8 fe ff ff 	mov    -0x138(%rbp),%rax
    9b1e:	89 10                	mov    %edx,(%rax)
    9b20:	48 8b 85 c8 fe ff ff 	mov    -0x138(%rbp),%rax
    9b27:	8b 00                	mov    (%rax),%eax
    9b29:	4c 8b 2d f8 14 01 00 	mov    0x114f8(%rip),%r13        # 1b028 <g_1091>
    9b30:	48 8d 8d 8c fe ff ff 	lea    -0x174(%rbp),%rcx
    9b37:	48 8d 95 8c fe ff ff 	lea    -0x174(%rbp),%rdx
    9b3e:	49 89 c8             	mov    %rcx,%r8
    9b41:	48 89 d1             	mov    %rdx,%rcx
    9b44:	4c 89 e2             	mov    %r12,%rdx
    9b47:	89 de                	mov    %ebx,%esi
    9b49:	89 c7                	mov    %eax,%edi
    9b4b:	e8 ed 00 00 00       	callq  9c3d <func_4>
    9b50:	49 89 45 00          	mov    %rax,0x0(%r13)
    9b54:	c7 05 42 df 00 00 08 	movl   $0x8,0xdf42(%rip)        # 17aa0 <g_2535>
    9b5b:	00 00 00 
    9b5e:	e9 91 00 00 00       	jmpq   9bf4 <func_1+0x43f>
    9b63:	48 8d 05 de 0b 01 00 	lea    0x10bde(%rip),%rax        # 1a748 <g_165>
    9b6a:	48 89 85 d8 fe ff ff 	mov    %rax,-0x128(%rbp)
    9b71:	c7 85 90 fe ff ff 9d 	movl   $0x14ad7a9d,-0x170(%rbp)
    9b78:	7a ad 14 
    9b7b:	48 8b 85 d0 fe ff ff 	mov    -0x130(%rbp),%rax
    9b82:	48 3b 85 d8 fe ff ff 	cmp    -0x128(%rbp),%rax
    9b89:	75 14                	jne    9b9f <func_1+0x3ea>
    9b8b:	48 8b 85 98 fe ff ff 	mov    -0x168(%rbp),%rax
    9b92:	8b 00                	mov    (%rax),%eax
    9b94:	85 c0                	test   %eax,%eax
    9b96:	74 07                	je     9b9f <func_1+0x3ea>
    9b98:	ba 01 00 00 00       	mov    $0x1,%edx
    9b9d:	eb 05                	jmp    9ba4 <func_1+0x3ef>
    9b9f:	ba 00 00 00 00       	mov    $0x0,%edx
    9ba4:	8b 85 8c fe ff ff    	mov    -0x174(%rbp),%eax
    9baa:	21 d0                	and    %edx,%eax
    9bac:	89 85 8c fe ff ff    	mov    %eax,-0x174(%rbp)
    9bb2:	c6 05 e7 d8 00 00 02 	movb   $0x2,0xd8e7(%rip)        # 174a0 <g_949>
    9bb9:	eb 1f                	jmp    9bda <func_1+0x425>
    9bbb:	8b 85 90 fe ff ff    	mov    -0x170(%rbp),%eax
    9bc1:	48 98                	cltq   
    9bc3:	48 31 85 a0 fe ff ff 	xor    %rax,-0x160(%rbp)
    9bca:	0f b6 05 cf d8 00 00 	movzbl 0xd8cf(%rip),%eax        # 174a0 <g_949>
    9bd1:	83 c0 01             	add    $0x1,%eax
    9bd4:	88 05 c6 d8 00 00    	mov    %al,0xd8c6(%rip)        # 174a0 <g_949>
    9bda:	0f b6 05 bf d8 00 00 	movzbl 0xd8bf(%rip),%eax        # 174a0 <g_949>
    9be1:	3c 08                	cmp    $0x8,%al
    9be3:	7e d6                	jle    9bbb <func_1+0x406>
    9be5:	8b 05 b5 de 00 00    	mov    0xdeb5(%rip),%eax        # 17aa0 <g_2535>
    9beb:	83 e8 01             	sub    $0x1,%eax
    9bee:	89 05 ac de 00 00    	mov    %eax,0xdeac(%rip)        # 17aa0 <g_2535>
    9bf4:	8b 05 a6 de 00 00    	mov    0xdea6(%rip),%eax        # 17aa0 <g_2535>
    9bfa:	85 c0                	test   %eax,%eax
    9bfc:	0f 89 61 ff ff ff    	jns    9b63 <func_1+0x3ae>
    9c02:	8b 05 b0 f1 00 00    	mov    0xf1b0(%rip),%eax        # 18db8 <g_3935+0xb8>
    9c08:	eb 0d                	jmp    9c17 <func_1+0x462>
    9c0a:	83 ad 94 fe ff ff 01 	subl   $0x1,-0x16c(%rbp)
    9c11:	8b 05 d9 d7 00 00    	mov    0xd7d9(%rip),%eax        # 173f0 <g_308+0x10>
    9c17:	48 8b 5d c8          	mov    -0x38(%rbp),%rbx
    9c1b:	64 48 33 1c 25 28 00 	xor    %fs:0x28,%rbx
    9c22:	00 00 
    9c24:	74 05                	je     9c2b <func_1+0x476>
    9c26:	e8 45 e4 ff ff       	callq  8070 <__stack_chk_fail@plt>
    9c2b:	48 81 c4 58 01 00 00 	add    $0x158,%rsp
    9c32:	5b                   	pop    %rbx
    9c33:	41 5c                	pop    %r12
    9c35:	41 5d                	pop    %r13
    9c37:	41 5e                	pop    %r14
    9c39:	41 5f                	pop    %r15
    9c3b:	5d                   	pop    %rbp
    9c3c:	c3                   	retq   

0000000000009c3d <func_4>:
    9c3d:	f3 0f 1e fa          	endbr64 
    9c41:	55                   	push   %rbp
    9c42:	48 89 e5             	mov    %rsp,%rbp
    9c45:	48 81 ec 20 01 00 00 	sub    $0x120,%rsp
    9c4c:	89 bd fc fe ff ff    	mov    %edi,-0x104(%rbp)
    9c52:	89 b5 f8 fe ff ff    	mov    %esi,-0x108(%rbp)
    9c58:	48 89 95 f0 fe ff ff 	mov    %rdx,-0x110(%rbp)
    9c5f:	48 89 8d e8 fe ff ff 	mov    %rcx,-0x118(%rbp)
    9c66:	4c 89 85 e0 fe ff ff 	mov    %r8,-0x120(%rbp)
    9c6d:	64 48 8b 04 25 28 00 	mov    %fs:0x28,%rax
    9c74:	00 00 
    9c76:	48 89 45 f8          	mov    %rax,-0x8(%rbp)
    9c7a:	31 c0                	xor    %eax,%eax
    9c7c:	c7 85 0c ff ff ff 00 	movl   $0x0,-0xf4(%rbp)
    9c83:	00 00 00 
    9c86:	66 c7 85 06 ff ff ff 	movw   $0x1,-0xfa(%rbp)
    9c8d:	01 00 
    9c8f:	48 8d 05 62 14 01 00 	lea    0x11462(%rip),%rax        # 1b0f8 <g_1698>
    9c96:	48 89 85 20 ff ff ff 	mov    %rax,-0xe0(%rbp)
    9c9d:	48 8d 85 20 ff ff ff 	lea    -0xe0(%rbp),%rax
    9ca4:	48 89 85 48 ff ff ff 	mov    %rax,-0xb8(%rbp)
    9cab:	c7 85 10 ff ff ff ff 	movl   $0xffffffff,-0xf0(%rbp)
    9cb2:	ff ff ff 
    9cb5:	48 c7 85 50 ff ff ff 	movq   $0xffffffffffffffff,-0xb0(%rbp)
    9cbc:	ff ff ff ff 
    9cc0:	48 8d 05 a9 d7 00 00 	lea    0xd7a9(%rip),%rax        # 17470 <g_727>
    9cc7:	48 89 85 58 ff ff ff 	mov    %rax,-0xa8(%rbp)
    9cce:	48 8d 05 c7 dd 00 00 	lea    0xddc7(%rip),%rax        # 17a9c <g_2454>
    9cd5:	48 89 85 60 ff ff ff 	mov    %rax,-0xa0(%rbp)
    9cdc:	c7 85 14 ff ff ff fa 	movl   $0xfffffffa,-0xec(%rbp)
    9ce3:	ff ff ff 
    9ce6:	48 c7 85 68 ff ff ff 	movq   $0x0,-0x98(%rbp)
    9ced:	00 00 00 00 
    9cf1:	48 8d 05 10 13 01 00 	lea    0x11310(%rip),%rax        # 1b008 <g_885>
    9cf8:	48 89 85 28 ff ff ff 	mov    %rax,-0xd8(%rbp)
    9cff:	48 8d 85 28 ff ff ff 	lea    -0xd8(%rbp),%rax
    9d06:	48 89 85 30 ff ff ff 	mov    %rax,-0xd0(%rbp)
    9d0d:	48 8d 85 30 ff ff ff 	lea    -0xd0(%rbp),%rax
    9d14:	48 89 85 38 ff ff ff 	mov    %rax,-0xc8(%rbp)
    9d1b:	48 8d 85 38 ff ff ff 	lea    -0xc8(%rbp),%rax
    9d22:	48 89 85 70 ff ff ff 	mov    %rax,-0x90(%rbp)
    9d29:	48 8d 85 38 ff ff ff 	lea    -0xc8(%rbp),%rax
    9d30:	48 89 85 78 ff ff ff 	mov    %rax,-0x88(%rbp)
    9d37:	48 8d 05 62 d7 00 00 	lea    0xd762(%rip),%rax        # 174a0 <g_949>
    9d3e:	48 89 45 80          	mov    %rax,-0x80(%rbp)
    9d42:	c7 85 08 ff ff ff 00 	movl   $0x0,-0xf8(%rbp)
    9d49:	00 00 00 
    9d4c:	eb 1b                	jmp    9d69 <func_4+0x12c>
    9d4e:	8b 85 08 ff ff ff    	mov    -0xf8(%rbp),%eax
    9d54:	48 98                	cltq   
    9d56:	48 8d 15 03 13 01 00 	lea    0x11303(%rip),%rdx        # 1b060 <g_1230>
    9d5d:	48 89 54 c5 a8       	mov    %rdx,-0x58(%rbp,%rax,8)
    9d62:	83 85 08 ff ff ff 01 	addl   $0x1,-0xf8(%rbp)
    9d69:	83 bd 08 ff ff ff 00 	cmpl   $0x0,-0xf8(%rbp)
    9d70:	7e dc                	jle    9d4e <func_4+0x111>
    9d72:	c6 05 bf d8 00 00 f3 	movb   $0xf3,0xd8bf(%rip)        # 17638 <g_1709>
    9d79:	e9 b1 00 00 00       	jmpq   9e2f <func_4+0x1f2>
    9d7e:	48 c7 45 b0 01 00 00 	movq   $0x1,-0x50(%rbp)
    9d85:	00 
    9d86:	48 c7 45 b8 01 00 00 	movq   $0x1,-0x48(%rbp)
    9d8d:	00 
    9d8e:	48 c7 45 c0 01 00 00 	movq   $0x1,-0x40(%rbp)
    9d95:	00 
    9d96:	48 c7 45 c8 01 00 00 	movq   $0x1,-0x38(%rbp)
    9d9d:	00 
    9d9e:	48 c7 45 d0 01 00 00 	movq   $0x1,-0x30(%rbp)
    9da5:	00 
    9da6:	48 c7 45 d8 01 00 00 	movq   $0x1,-0x28(%rbp)
    9dad:	00 
    9dae:	48 c7 45 e0 01 00 00 	movq   $0x1,-0x20(%rbp)
    9db5:	00 
    9db6:	48 c7 45 e8 01 00 00 	movq   $0x1,-0x18(%rbp)
    9dbd:	00 
    9dbe:	c7 85 18 ff ff ff fc 	movl   $0xfffffffc,-0xe8(%rbp)
    9dc5:	ff ff ff 
    9dc8:	48 8d 05 51 12 01 00 	lea    0x11251(%rip),%rax        # 1b020 <g_1089>
    9dcf:	48 89 85 40 ff ff ff 	mov    %rax,-0xc0(%rbp)
    9dd6:	48 8d 85 40 ff ff ff 	lea    -0xc0(%rbp),%rax
    9ddd:	48 89 45 88          	mov    %rax,-0x78(%rbp)
    9de1:	48 8d 05 90 d9 00 00 	lea    0xd990(%rip),%rax        # 17778 <g_2194>
    9de8:	48 89 45 90          	mov    %rax,-0x70(%rbp)
    9dec:	c6 85 05 ff ff ff 51 	movb   $0x51,-0xfb(%rbp)
    9df3:	c7 85 1c ff ff ff 09 	movl   $0x9,-0xe4(%rbp)
    9dfa:	00 00 00 
    9dfd:	48 8d 05 44 09 01 00 	lea    0x10944(%rip),%rax        # 1a748 <g_165>
    9e04:	48 89 45 98          	mov    %rax,-0x68(%rbp)
    9e08:	48 8d 05 29 d4 00 00 	lea    0xd429(%rip),%rax        # 17238 <g_55>
    9e0f:	48 89 45 a0          	mov    %rax,-0x60(%rbp)
    9e13:	0f b6 05 1e d8 00 00 	movzbl 0xd81e(%rip),%eax        # 17638 <g_1709>
    9e1a:	0f be c0             	movsbl %al,%eax
    9e1d:	be 07 00 00 00       	mov    $0x7,%esi
    9e22:	89 c7                	mov    %eax,%edi
    9e24:	e8 8f f0 ff ff       	callq  8eb8 <safe_add_func_uint32_t_u_u>
    9e29:	88 05 09 d8 00 00    	mov    %al,0xd809(%rip)        # 17638 <g_1709>
    9e2f:	0f b6 05 02 d8 00 00 	movzbl 0xd802(%rip),%eax        # 17638 <g_1709>
    9e36:	3c 02                	cmp    $0x2,%al
    9e38:	0f 8e 40 ff ff ff    	jle    9d7e <func_4+0x141>
    9e3e:	8b 95 14 ff ff ff    	mov    -0xec(%rbp),%edx
    9e44:	48 8b 85 e8 fe ff ff 	mov    -0x118(%rbp),%rax
    9e4b:	89 10                	mov    %edx,(%rax)
    9e4d:	48 8b 85 e8 fe ff ff 	mov    -0x118(%rbp),%rax
    9e54:	8b 10                	mov    (%rax),%edx
    9e56:	48 8b 45 80          	mov    -0x80(%rbp),%rax
    9e5a:	89 10                	mov    %edx,(%rax)
    9e5c:	48 8b 45 80          	mov    -0x80(%rbp),%rax
    9e60:	8b 00                	mov    (%rax),%eax
    9e62:	31 85 10 ff ff ff    	xor    %eax,-0xf0(%rbp)
    9e68:	48 8b 05 b1 11 01 00 	mov    0x111b1(%rip),%rax        # 1b020 <g_1089>
    9e6f:	48 8b 00             	mov    (%rax),%rax
    9e72:	48 8b 4d f8          	mov    -0x8(%rbp),%rcx
    9e76:	64 48 33 0c 25 28 00 	xor    %fs:0x28,%rcx
    9e7d:	00 00 
    9e7f:	74 05                	je     9e86 <func_4+0x249>
    9e81:	e8 ea e1 ff ff       	callq  8070 <__stack_chk_fail@plt>
    9e86:	c9                   	leaveq 
    9e87:	c3                   	retq   

0000000000009e88 <func_12>:
    9e88:	f3 0f 1e fa          	endbr64 
    9e8c:	55                   	push   %rbp
    9e8d:	48 89 e5             	mov    %rsp,%rbp
    9e90:	41 54                	push   %r12
    9e92:	53                   	push   %rbx
    9e93:	48 81 ec f0 04 00 00 	sub    $0x4f0,%rsp
    9e9a:	48 89 bd 08 fb ff ff 	mov    %rdi,-0x4f8(%rbp)
    9ea1:	64 48 8b 04 25 28 00 	mov    %fs:0x28,%rax
    9ea8:	00 00 
    9eaa:	48 89 45 e8          	mov    %rax,-0x18(%rbp)
    9eae:	31 c0                	xor    %eax,%eax
    9eb0:	c7 85 1c fb ff ff 93 	movl   $0x466f1493,-0x4e4(%rbp)
    9eb7:	14 6f 46 
    9eba:	c7 85 18 fb ff ff 5b 	movl   $0x5dfdbc5b,-0x4e8(%rbp)
    9ec1:	bc fd 5d 
    9ec4:	c7 85 20 fb ff ff fb 	movl   $0xfffffffb,-0x4e0(%rbp)
    9ecb:	ff ff ff 
    9ece:	48 8d 85 60 fd ff ff 	lea    -0x2a0(%rbp),%rax
    9ed5:	48 8d 15 c4 91 00 00 	lea    0x91c4(%rip),%rdx        # 130a0 <g_3574+0x10>
    9edc:	b9 51 00 00 00       	mov    $0x51,%ecx
    9ee1:	48 89 c7             	mov    %rax,%rdi
    9ee4:	48 89 d6             	mov    %rdx,%rsi
    9ee7:	f3 48 a5             	rep movsq %ds:(%rsi),%es:(%rdi)
    9eea:	c7 85 24 fb ff ff 9a 	movl   $0xe64a389a,-0x4dc(%rbp)
    9ef1:	38 4a e6 
    9ef4:	c7 85 28 fb ff ff 8d 	movl   $0xe07f2e8d,-0x4d8(%rbp)
    9efb:	2e 7f e0 
    9efe:	48 8d 05 3b 26 01 00 	lea    0x1263b(%rip),%rax        # 1c540 <g_698>
    9f05:	48 89 85 40 fb ff ff 	mov    %rax,-0x4c0(%rbp)
    9f0c:	48 8d 05 2d 1b 01 00 	lea    0x11b2d(%rip),%rax        # 1ba40 <g_3680>
    9f13:	48 89 85 48 fb ff ff 	mov    %rax,-0x4b8(%rbp)
    9f1a:	48 c7 85 50 fb ff ff 	movq   $0xfffffffffffffff6,-0x4b0(%rbp)
    9f21:	f6 ff ff ff 
    9f25:	c7 85 80 fb ff ff 27 	movl   $0x3cb0b927,-0x480(%rbp)
    9f2c:	b9 b0 3c 
    9f2f:	c7 85 84 fb ff ff 27 	movl   $0x3cb0b927,-0x47c(%rbp)
    9f36:	b9 b0 3c 
    9f39:	c7 85 88 fb ff ff 27 	movl   $0x3cb0b927,-0x478(%rbp)
    9f40:	b9 b0 3c 
    9f43:	c7 85 8c fb ff ff 27 	movl   $0x3cb0b927,-0x474(%rbp)
    9f4a:	b9 b0 3c 
    9f4d:	c7 85 90 fb ff ff 27 	movl   $0x3cb0b927,-0x470(%rbp)
    9f54:	b9 b0 3c 
    9f57:	c7 85 94 fb ff ff 27 	movl   $0x3cb0b927,-0x46c(%rbp)
    9f5e:	b9 b0 3c 
    9f61:	c7 85 98 fb ff ff 27 	movl   $0x3cb0b927,-0x468(%rbp)
    9f68:	b9 b0 3c 
    9f6b:	48 8d 05 42 d4 00 00 	lea    0xd442(%rip),%rax        # 173b4 <g_276+0x4>
    9f72:	48 89 85 58 fb ff ff 	mov    %rax,-0x4a8(%rbp)
    9f79:	c7 85 2c fb ff ff f6 	movl   $0xfffffff6,-0x4d4(%rbp)
    9f80:	ff ff ff 
    9f83:	48 8d 05 8e d4 00 00 	lea    0xd48e(%rip),%rax        # 17418 <g_354>
    9f8a:	48 89 85 60 fb ff ff 	mov    %rax,-0x4a0(%rbp)
    9f91:	48 c7 85 68 fb ff ff 	movq   $0x0,-0x498(%rbp)
    9f98:	00 00 00 00 
    9f9c:	48 b8 01 01 39 02 56 	movabs $0x66ff845602390101,%rax
    9fa3:	84 ff 66 
    9fa6:	48 89 85 70 fc ff ff 	mov    %rax,-0x390(%rbp)
    9fad:	48 b8 84 09 01 56 00 	movabs $0x6636660056010984,%rax
    9fb4:	66 36 66 
    9fb7:	48 89 85 78 fc ff ff 	mov    %rax,-0x388(%rbp)
    9fbe:	48 b8 09 02 00 02 09 	movabs $0xff39d10902000209,%rax
    9fc5:	d1 39 ff 
    9fc8:	48 89 85 80 fc ff ff 	mov    %rax,-0x380(%rbp)
    9fcf:	48 b8 00 a6 fc 00 03 	movabs $0x2d5560300fca600,%rax
    9fd6:	56 d5 02 
    9fd9:	48 89 85 88 fc ff ff 	mov    %rax,-0x378(%rbp)
    9fe0:	48 b8 d5 39 fc 13 13 	movabs $0xd539fc1313fc39d5,%rax
    9fe7:	fc 39 d5 
    9fea:	48 89 85 90 fc ff ff 	mov    %rax,-0x370(%rbp)
    9ff1:	48 b8 03 84 00 ff 01 	movabs $0xfc36a601ff008403,%rax
    9ff8:	a6 36 fc 
    9ffb:	48 89 85 98 fc ff ff 	mov    %rax,-0x368(%rbp)
    a002:	48 b8 d5 00 01 d1 ff 	movabs $0xd1ffa6ffd10100d5,%rax
    a009:	a6 ff d1 
    a00c:	48 89 85 a0 fc ff ff 	mov    %rax,-0x360(%rbp)
    a013:	48 b8 39 84 39 00 a6 	movabs $0x300fca600398439,%rax
    a01a:	fc 00 03 
    a01d:	48 89 85 a8 fc ff ff 	mov    %rax,-0x358(%rbp)
    a024:	48 b8 d1 39 ff 36 d5 	movabs $0xa6a656d536ff39d1,%rax
    a02b:	56 a6 a6 
    a02e:	48 89 85 b0 fc ff ff 	mov    %rax,-0x350(%rbp)
    a035:	48 b8 d1 a6 d5 d5 a6 	movabs $0x984d1a6d5d5a6d1,%rax
    a03c:	d1 84 09 
    a03f:	48 89 85 b8 fc ff ff 	mov    %rax,-0x348(%rbp)
    a046:	48 b8 39 02 56 84 ff 	movabs $0x130366ff84560239,%rax
    a04d:	66 03 13 
    a050:	48 89 85 c0 fc ff ff 	mov    %rax,-0x340(%rbp)
    a057:	48 b8 d5 09 66 84 01 	movabs $0x9668401846609d5,%rax
    a05e:	84 66 09 
    a061:	48 89 85 c8 fc ff ff 	mov    %rax,-0x338(%rbp)
    a068:	48 b8 03 01 36 d5 13 	movabs $0xa6d50013d5360103,%rax
    a06f:	00 d5 a6 
    a072:	48 89 85 d0 fc ff ff 	mov    %rax,-0x330(%rbp)
    a079:	48 b8 d5 fc 09 36 03 	movabs $0x3d5d5033609fcd5,%rax
    a080:	d5 d5 03 
    a083:	48 89 85 d8 fc ff ff 	mov    %rax,-0x328(%rbp)
    a08a:	48 b8 00 36 36 00 09 	movabs $0xff84130900363600,%rax
    a091:	13 84 ff 
    a094:	48 89 85 e0 fc ff ff 	mov    %rax,-0x320(%rbp)
    a09b:	48 b8 02 56 84 ff 66 	movabs $0xd1130366ff845602,%rax
    a0a2:	03 13 d1 
    a0a5:	48 89 85 e8 fc ff ff 	mov    %rax,-0x318(%rbp)
    a0ac:	48 b8 fc 56 09 d5 09 	movabs $0xfc5609d50956fc,%rax
    a0b3:	56 fc 00 
    a0b6:	48 89 85 f0 fc ff ff 	mov    %rax,-0x310(%rbp)
    a0bd:	48 b8 d5 01 00 56 39 	movabs $0x36000639560001d5,%rax
    a0c4:	06 00 36 
    a0c7:	48 89 85 f8 fc ff ff 	mov    %rax,-0x308(%rbp)
    a0ce:	48 b8 36 d1 d5 66 39 	movabs $0xd566393966d5d136,%rax
    a0d5:	39 66 d5 
    a0d8:	48 89 85 00 fd ff ff 	mov    %rax,-0x300(%rbp)
    a0df:	48 b8 d5 d5 03 36 09 	movabs $0x84d5fc093603d5d5,%rax
    a0e6:	fc d5 84 
    a0e9:	48 89 85 08 fd ff ff 	mov    %rax,-0x2f8(%rbp)
    a0f0:	48 b8 fc 02 d5 09 66 	movabs $0x8401846609d502fc,%rax
    a0f7:	84 01 84 
    a0fa:	48 89 85 10 fd ff ff 	mov    %rax,-0x2f0(%rbp)
    a101:	48 b8 02 36 39 36 02 	movabs $0xd503ff0236393602,%rax
    a108:	ff 03 d5 
    a10b:	48 89 85 18 fd ff ff 	mov    %rax,-0x2e8(%rbp)
    a112:	48 b8 39 00 d1 66 13 	movabs $0x3600091366d10039,%rax
    a119:	09 00 36 
    a11c:	48 89 85 20 fd ff ff 	mov    %rax,-0x2e0(%rbp)
    a123:	48 b8 00 03 d1 56 56 	movabs $0x3d15656d10300,%rax
    a12a:	d1 03 00 
    a12d:	48 89 85 28 fd ff ff 	mov    %rax,-0x2d8(%rbp)
    a134:	48 b8 13 fc 39 d5 d5 	movabs $0xd10100d5d539fc13,%rax
    a13b:	00 01 d1 
    a13e:	48 89 85 30 fd ff ff 	mov    %rax,-0x2d0(%rbp)
    a145:	48 b8 06 66 d5 ff d5 	movabs $0xffd500d5ffd56606,%rax
    a14c:	00 d5 ff 
    a14f:	48 89 85 38 fd ff ff 	mov    %rax,-0x2c8(%rbp)
    a156:	48 b8 03 fc 03 39 00 	movabs $0x1366d1003903fc03,%rax
    a15d:	d1 66 13 
    a160:	48 89 85 40 fd ff ff 	mov    %rax,-0x2c0(%rbp)
    a167:	48 b8 ff 03 d5 01 06 	movabs $0x90601d503ff,%rax
    a16e:	09 00 00 
    a171:	48 89 85 48 fd ff ff 	mov    %rax,-0x2b8(%rbp)
    a178:	48 b8 ff 00 00 00 00 	movabs $0x2fcff00000000ff,%rax
    a17f:	ff fc 02 
    a182:	48 89 85 50 fd ff ff 	mov    %rax,-0x2b0(%rbp)
    a189:	48 b8 03 36 09 fc d5 	movabs $0x561384d5fc093603,%rax
    a190:	84 13 56 
    a193:	48 89 85 58 fd ff ff 	mov    %rax,-0x2a8(%rbp)
    a19a:	66 c7 85 d0 fb ff ff 	movw   $0x706a,-0x430(%rbp)
    a1a1:	6a 70 
    a1a3:	66 c7 85 d2 fb ff ff 	movw   $0xb0d2,-0x42e(%rbp)
    a1aa:	d2 b0 
    a1ac:	66 c7 85 d4 fb ff ff 	movw   $0x4ead,-0x42c(%rbp)
    a1b3:	ad 4e 
    a1b5:	66 c7 85 d6 fb ff ff 	movw   $0x7351,-0x42a(%rbp)
    a1bc:	51 73 
    a1be:	66 c7 85 d8 fb ff ff 	movw   $0xb0d2,-0x428(%rbp)
    a1c5:	d2 b0 
    a1c7:	66 c7 85 da fb ff ff 	movw   $0x7351,-0x426(%rbp)
    a1ce:	51 73 
    a1d0:	66 c7 85 dc fb ff ff 	movw   $0x4ead,-0x424(%rbp)
    a1d7:	ad 4e 
    a1d9:	66 c7 85 de fb ff ff 	movw   $0xb0d2,-0x422(%rbp)
    a1e0:	d2 b0 
    a1e2:	66 c7 85 e0 fb ff ff 	movw   $0x706a,-0x420(%rbp)
    a1e9:	6a 70 
    a1eb:	66 c7 85 e2 fb ff ff 	movw   $0x706a,-0x41e(%rbp)
    a1f2:	6a 70 
    a1f4:	66 c7 85 e4 fb ff ff 	movw   $0x7ebf,-0x41c(%rbp)
    a1fb:	bf 7e 
    a1fd:	66 c7 85 e6 fb ff ff 	movw   $0xfff9,-0x41a(%rbp)
    a204:	f9 ff 
    a206:	66 c7 85 e8 fb ff ff 	movw   $0xa200,-0x418(%rbp)
    a20d:	00 a2 
    a20f:	66 c7 85 ea fb ff ff 	movw   $0xb0d2,-0x416(%rbp)
    a216:	d2 b0 
    a218:	66 c7 85 ec fb ff ff 	movw   $0xb0d2,-0x414(%rbp)
    a21f:	d2 b0 
    a221:	66 c7 85 ee fb ff ff 	movw   $0xa200,-0x412(%rbp)
    a228:	00 a2 
    a22a:	66 c7 85 f0 fb ff ff 	movw   $0xfff9,-0x410(%rbp)
    a231:	f9 ff 
    a233:	66 c7 85 f2 fb ff ff 	movw   $0x7ebf,-0x40e(%rbp)
    a23a:	bf 7e 
    a23c:	66 c7 85 f4 fb ff ff 	movw   $0xa200,-0x40c(%rbp)
    a243:	00 a2 
    a245:	66 c7 85 f6 fb ff ff 	movw   $0x7ebf,-0x40a(%rbp)
    a24c:	bf 7e 
    a24e:	66 c7 85 f8 fb ff ff 	movw   $0xb0d2,-0x408(%rbp)
    a255:	d2 b0 
    a257:	66 c7 85 fa fb ff ff 	movw   $0x4ead,-0x406(%rbp)
    a25e:	ad 4e 
    a260:	66 c7 85 fc fb ff ff 	movw   $0x7351,-0x404(%rbp)
    a267:	51 73 
    a269:	66 c7 85 fe fb ff ff 	movw   $0xb0d2,-0x402(%rbp)
    a270:	d2 b0 
    a272:	66 c7 85 00 fc ff ff 	movw   $0x7351,-0x400(%rbp)
    a279:	51 73 
    a27b:	66 c7 85 02 fc ff ff 	movw   $0x4ead,-0x3fe(%rbp)
    a282:	ad 4e 
    a284:	66 c7 85 04 fc ff ff 	movw   $0xb0d2,-0x3fc(%rbp)
    a28b:	d2 b0 
    a28d:	66 c7 85 06 fc ff ff 	movw   $0x706a,-0x3fa(%rbp)
    a294:	6a 70 
    a296:	66 c7 85 08 fc ff ff 	movw   $0x706a,-0x3f8(%rbp)
    a29d:	6a 70 
    a29f:	66 c7 85 0a fc ff ff 	movw   $0xb0d2,-0x3f6(%rbp)
    a2a6:	d2 b0 
    a2a8:	66 c7 85 0c fc ff ff 	movw   $0x706a,-0x3f4(%rbp)
    a2af:	6a 70 
    a2b1:	66 c7 85 0e fc ff ff 	movw   $0x7ebf,-0x3f2(%rbp)
    a2b8:	bf 7e 
    a2ba:	66 c7 85 10 fc ff ff 	movw   $0x7351,-0x3f0(%rbp)
    a2c1:	51 73 
    a2c3:	66 c7 85 12 fc ff ff 	movw   $0x7351,-0x3ee(%rbp)
    a2ca:	51 73 
    a2cc:	66 c7 85 14 fc ff ff 	movw   $0x7ebf,-0x3ec(%rbp)
    a2d3:	bf 7e 
    a2d5:	66 c7 85 16 fc ff ff 	movw   $0x706a,-0x3ea(%rbp)
    a2dc:	6a 70 
    a2de:	66 c7 85 18 fc ff ff 	movw   $0x4ead,-0x3e8(%rbp)
    a2e5:	ad 4e 
    a2e7:	66 c7 85 1a fc ff ff 	movw   $0x7ebf,-0x3e6(%rbp)
    a2ee:	bf 7e 
    a2f0:	66 c7 85 1c fc ff ff 	movw   $0x4ead,-0x3e4(%rbp)
    a2f7:	ad 4e 
    a2f9:	66 c7 85 1e fc ff ff 	movw   $0x706a,-0x3e2(%rbp)
    a300:	6a 70 
    a302:	66 c7 85 20 fc ff ff 	movw   $0xfff9,-0x3e0(%rbp)
    a309:	f9 ff 
    a30b:	66 c7 85 22 fc ff ff 	movw   $0x7ebf,-0x3de(%rbp)
    a312:	bf 7e 
    a314:	66 c7 85 24 fc ff ff 	movw   $0xa200,-0x3dc(%rbp)
    a31b:	00 a2 
    a31d:	66 c7 85 26 fc ff ff 	movw   $0x7ebf,-0x3da(%rbp)
    a324:	bf 7e 
    a326:	66 c7 85 28 fc ff ff 	movw   $0xfff9,-0x3d8(%rbp)
    a32d:	f9 ff 
    a32f:	66 c7 85 2a fc ff ff 	movw   $0xa200,-0x3d6(%rbp)
    a336:	00 a2 
    a338:	66 c7 85 2c fc ff ff 	movw   $0xb0d2,-0x3d4(%rbp)
    a33f:	d2 b0 
    a341:	66 c7 85 2e fc ff ff 	movw   $0xb0d2,-0x3d2(%rbp)
    a348:	d2 b0 
    a34a:	66 c7 85 30 fc ff ff 	movw   $0xa200,-0x3d0(%rbp)
    a351:	00 a2 
    a353:	66 c7 85 32 fc ff ff 	movw   $0xfff9,-0x3ce(%rbp)
    a35a:	f9 ff 
    a35c:	66 c7 85 34 fc ff ff 	movw   $0xfff9,-0x3cc(%rbp)
    a363:	f9 ff 
    a365:	66 c7 85 36 fc ff ff 	movw   $0x4ead,-0x3ca(%rbp)
    a36c:	ad 4e 
    a36e:	66 c7 85 38 fc ff ff 	movw   $0x4ead,-0x3c8(%rbp)
    a375:	ad 4e 
    a377:	66 c7 85 3a fc ff ff 	movw   $0xfff9,-0x3c6(%rbp)
    a37e:	f9 ff 
    a380:	66 c7 85 3c fc ff ff 	movw   $0x7351,-0x3c4(%rbp)
    a387:	51 73 
    a389:	66 c7 85 3e fc ff ff 	movw   $0x706a,-0x3c2(%rbp)
    a390:	6a 70 
    a392:	66 c7 85 40 fc ff ff 	movw   $0xfff9,-0x3c0(%rbp)
    a399:	f9 ff 
    a39b:	66 c7 85 42 fc ff ff 	movw   $0x706a,-0x3be(%rbp)
    a3a2:	6a 70 
    a3a4:	66 c7 85 44 fc ff ff 	movw   $0x7351,-0x3bc(%rbp)
    a3ab:	51 73 
    a3ad:	66 c7 85 46 fc ff ff 	movw   $0xfff9,-0x3ba(%rbp)
    a3b4:	f9 ff 
    a3b6:	66 c7 85 48 fc ff ff 	movw   $0x706a,-0x3b8(%rbp)
    a3bd:	6a 70 
    a3bf:	66 c7 85 4a fc ff ff 	movw   $0xfff9,-0x3b6(%rbp)
    a3c6:	f9 ff 
    a3c8:	66 c7 85 4c fc ff ff 	movw   $0x706a,-0x3b4(%rbp)
    a3cf:	6a 70 
    a3d1:	66 c7 85 4e fc ff ff 	movw   $0x7351,-0x3b2(%rbp)
    a3d8:	51 73 
    a3da:	66 c7 85 50 fc ff ff 	movw   $0xfff9,-0x3b0(%rbp)
    a3e1:	f9 ff 
    a3e3:	66 c7 85 52 fc ff ff 	movw   $0x4ead,-0x3ae(%rbp)
    a3ea:	ad 4e 
    a3ec:	66 c7 85 54 fc ff ff 	movw   $0x4ead,-0x3ac(%rbp)
    a3f3:	ad 4e 
    a3f5:	66 c7 85 56 fc ff ff 	movw   $0xfff9,-0x3aa(%rbp)
    a3fc:	f9 ff 
    a3fe:	66 c7 85 58 fc ff ff 	movw   $0x7351,-0x3a8(%rbp)
    a405:	51 73 
    a407:	66 c7 85 5a fc ff ff 	movw   $0x1,-0x3a6(%rbp)
    a40e:	01 00 
    a410:	66 c7 85 5c fc ff ff 	movw   $0x706a,-0x3a4(%rbp)
    a417:	6a 70 
    a419:	66 c7 85 5e fc ff ff 	movw   $0x706a,-0x3a2(%rbp)
    a420:	6a 70 
    a422:	66 c7 85 60 fc ff ff 	movw   $0xb0d2,-0x3a0(%rbp)
    a429:	d2 b0 
    a42b:	66 c7 85 62 fc ff ff 	movw   $0x4ead,-0x39e(%rbp)
    a432:	ad 4e 
    a434:	66 c7 85 64 fc ff ff 	movw   $0x7351,-0x39c(%rbp)
    a43b:	51 73 
    a43d:	66 c7 85 66 fc ff ff 	movw   $0xb0d2,-0x39a(%rbp)
    a444:	d2 b0 
    a446:	66 c7 85 68 fc ff ff 	movw   $0x7351,-0x398(%rbp)
    a44d:	51 73 
    a44f:	66 c7 85 6a fc ff ff 	movw   $0x4ead,-0x396(%rbp)
    a456:	ad 4e 
    a458:	66 c7 85 6c fc ff ff 	movw   $0xb0d2,-0x394(%rbp)
    a45f:	d2 b0 
    a461:	66 c7 85 6e fc ff ff 	movw   $0x706a,-0x392(%rbp)
    a468:	6a 70 
    a46a:	c7 85 30 fb ff ff 46 	movl   $0xd52b1546,-0x4d0(%rbp)
    a471:	15 2b d5 
    a474:	c7 85 34 fb ff ff fe 	movl   $0xfffffffe,-0x4cc(%rbp)
    a47b:	ff ff ff 
    a47e:	48 c7 85 70 fb ff ff 	movq   $0x0,-0x490(%rbp)
    a485:	00 00 00 00 
    a489:	66 c7 85 14 fb ff ff 	movw   $0x0,-0x4ec(%rbp)
    a490:	00 00 
    a492:	c7 85 38 fb ff ff ff 	movl   $0xffffffff,-0x4c8(%rbp)
    a499:	ff ff ff 
    a49c:	c7 85 a0 fb ff ff 03 	movl   $0x3,-0x460(%rbp)
    a4a3:	00 00 00 
    a4a6:	c7 85 a4 fb ff ff 10 	movl   $0x406c1510,-0x45c(%rbp)
    a4ad:	15 6c 40 
    a4b0:	c7 85 a8 fb ff ff 03 	movl   $0x3,-0x458(%rbp)
    a4b7:	00 00 00 
    a4ba:	c7 85 ac fb ff ff 08 	movl   $0x8,-0x454(%rbp)
    a4c1:	00 00 00 
    a4c4:	c7 85 b0 fb ff ff 08 	movl   $0x8,-0x450(%rbp)
    a4cb:	00 00 00 
    a4ce:	c7 85 b4 fb ff ff 03 	movl   $0x3,-0x44c(%rbp)
    a4d5:	00 00 00 
    a4d8:	c7 85 b8 fb ff ff 10 	movl   $0x406c1510,-0x448(%rbp)
    a4df:	15 6c 40 
    a4e2:	c7 85 bc fb ff ff 03 	movl   $0x3,-0x444(%rbp)
    a4e9:	00 00 00 
    a4ec:	c7 85 c0 fb ff ff 08 	movl   $0x8,-0x440(%rbp)
    a4f3:	00 00 00 
    a4f6:	c7 85 c4 fb ff ff 08 	movl   $0x8,-0x43c(%rbp)
    a4fd:	00 00 00 
    a500:	c6 85 13 fb ff ff 6e 	movb   $0x6e,-0x4ed(%rbp)
    a507:	c7 85 3c fb ff ff 88 	movl   $0xaf10dc88,-0x4c4(%rbp)
    a50e:	dc 10 af 
    a511:	66 c7 85 16 fb ff ff 	movw   $0x8583,-0x4ea(%rbp)
    a518:	83 85 
    a51a:	48 c7 85 78 fb ff ff 	movq   $0x0,-0x488(%rbp)
    a521:	00 00 00 00 
    a525:	83 bd 1c fb ff ff 00 	cmpl   $0x0,-0x4e4(%rbp)
    a52c:	0f 85 8f 01 00 00    	jne    a6c1 <func_12+0x839>
    a532:	83 bd 1c fb ff ff 00 	cmpl   $0x0,-0x4e4(%rbp)
    a539:	0f 84 47 01 00 00    	je     a686 <func_12+0x7fe>
    a53f:	83 bd 1c fb ff ff 00 	cmpl   $0x0,-0x4e4(%rbp)
    a546:	0f 84 ba 00 00 00    	je     a606 <func_12+0x77e>
    a54c:	8b 9d 20 fb ff ff    	mov    -0x4e0(%rbp),%ebx
    a552:	8b 85 18 fb ff ff    	mov    -0x4e8(%rbp),%eax
    a558:	44 0f be e0          	movsbl %al,%r12d
    a55c:	48 8b 05 e5 01 01 00 	mov    0x101e5(%rip),%rax        # 1a748 <g_165>
    a563:	0f b7 10             	movzwl (%rax),%edx
    a566:	48 8b 05 db 01 01 00 	mov    0x101db(%rip),%rax        # 1a748 <g_165>
    a56d:	66 81 e2 5a 36       	and    $0x365a,%dx
    a572:	66 89 10             	mov    %dx,(%rax)
    a575:	0f b7 00             	movzwl (%rax),%eax
    a578:	66 3d 25 7e          	cmp    $0x7e25,%ax
    a57c:	0f 97 c0             	seta   %al
    a57f:	0f b6 c0             	movzbl %al,%eax
    a582:	be 06 00 00 00       	mov    $0x6,%esi
    a587:	89 c7                	mov    %eax,%edi
    a589:	e8 13 dd ff ff       	callq  82a1 <safe_lshift_func_int8_t_s_s>
    a58e:	0f be c0             	movsbl %al,%eax
    a591:	31 85 1c fb ff ff    	xor    %eax,-0x4e4(%rbp)
    a597:	8b 85 1c fb ff ff    	mov    -0x4e4(%rbp),%eax
    a59d:	0f b7 c0             	movzwl %ax,%eax
    a5a0:	be 0a 00 00 00       	mov    $0xa,%esi
    a5a5:	89 c7                	mov    %eax,%edi
    a5a7:	e8 12 e8 ff ff       	callq  8dbe <safe_lshift_func_uint16_t_u_s>
    a5ac:	48 8b 05 45 09 01 00 	mov    0x10945(%rip),%rax        # 1aef8 <g_323>
    a5b3:	48 8b 00             	mov    (%rax),%rax
    a5b6:	48 8b 00             	mov    (%rax),%rax
    a5b9:	0f b7 00             	movzwl (%rax),%eax
    a5bc:	98                   	cwtl   
    a5bd:	89 c6                	mov    %eax,%esi
    a5bf:	bf 6f df ff ff       	mov    $0xffffdf6f,%edi
    a5c4:	e8 ea dd ff ff       	callq  83b3 <safe_add_func_int16_t_s_s>
    a5c9:	98                   	cwtl   
    a5ca:	8b 95 18 fb ff ff    	mov    -0x4e8(%rbp),%edx
    a5d0:	89 d6                	mov    %edx,%esi
    a5d2:	89 c7                	mov    %eax,%edi
    a5d4:	e8 b9 de ff ff       	callq  8492 <safe_lshift_func_int16_t_s_s>
    a5d9:	0f be c0             	movsbl %al,%eax
    a5dc:	44 89 e6             	mov    %r12d,%esi
    a5df:	89 c7                	mov    %eax,%edi
    a5e1:	e8 0c dc ff ff       	callq  81f2 <safe_sub_func_int8_t_s_s>
    a5e6:	0f be c0             	movsbl %al,%eax
    a5e9:	89 85 18 fb ff ff    	mov    %eax,-0x4e8(%rbp)
    a5ef:	89 de                	mov    %ebx,%esi
    a5f1:	bf 00 00 00 00       	mov    $0x0,%edi
    a5f6:	e8 f3 dc ff ff       	callq  82ee <safe_lshift_func_int8_t_s_u>
    a5fb:	84 c0                	test   %al,%al
    a5fd:	74 07                	je     a606 <func_12+0x77e>
    a5ff:	b8 01 00 00 00       	mov    $0x1,%eax
    a604:	eb 05                	jmp    a60b <func_12+0x783>
    a606:	b8 00 00 00 00       	mov    $0x0,%eax
    a60b:	0f be c0             	movsbl %al,%eax
    a60e:	be 00 00 00 00       	mov    $0x0,%esi
    a613:	89 c7                	mov    %eax,%edi
    a615:	e8 f8 db ff ff       	callq  8212 <safe_mul_func_int8_t_s_s>
    a61a:	48 0f be c0          	movsbq %al,%rax
    a61e:	48 c7 c6 fb ff ff ff 	mov    $0xfffffffffffffffb,%rsi
    a625:	48 89 c7             	mov    %rax,%rdi
    a628:	e8 87 e3 ff ff       	callq  89b4 <safe_mod_func_int64_t_s_s>
    a62d:	48 89 c2             	mov    %rax,%rdx
    a630:	48 8b 05 69 00 01 00 	mov    0x10069(%rip),%rax        # 1a6a0 <g_111>
    a637:	66 89 10             	mov    %dx,(%rax)
    a63a:	0f b7 00             	movzwl (%rax),%eax
    a63d:	66 83 f8 08          	cmp    $0x8,%ax
    a641:	75 0d                	jne    a650 <func_12+0x7c8>
    a643:	48 8b 85 08 fb ff ff 	mov    -0x4f8(%rbp),%rax
    a64a:	8b 00                	mov    (%rax),%eax
    a64c:	85 c0                	test   %eax,%eax
    a64e:	74 07                	je     a657 <func_12+0x7cf>
    a650:	b8 01 00 00 00       	mov    $0x1,%eax
    a655:	eb 05                	jmp    a65c <func_12+0x7d4>
    a657:	b8 00 00 00 00       	mov    $0x0,%eax
    a65c:	48 63 d0             	movslq %eax,%rdx
    a65f:	48 8b 85 18 fe ff ff 	mov    -0x1e8(%rbp),%rax
    a666:	48 39 c2             	cmp    %rax,%rdx
    a669:	0f 9e c0             	setle  %al
    a66c:	0f b6 c0             	movzbl %al,%eax
    a66f:	be 01 00 00 00       	mov    $0x1,%esi
    a674:	89 c7                	mov    %eax,%edi
    a676:	e8 ba dc ff ff       	callq  8335 <safe_rshift_func_int8_t_s_s>
    a67b:	84 c0                	test   %al,%al
    a67d:	74 07                	je     a686 <func_12+0x7fe>
    a67f:	b8 01 00 00 00       	mov    $0x1,%eax
    a684:	eb 05                	jmp    a68b <func_12+0x803>
    a686:	b8 00 00 00 00       	mov    $0x0,%eax
    a68b:	21 85 24 fb ff ff    	and    %eax,-0x4dc(%rbp)
    a691:	8b 85 24 fb ff ff    	mov    -0x4dc(%rbp),%eax
    a697:	0f b6 c0             	movzbl %al,%eax
    a69a:	be 04 00 00 00       	mov    $0x4,%esi
    a69f:	89 c7                	mov    %eax,%edi
    a6a1:	e8 18 e6 ff ff       	callq  8cbe <safe_rshift_func_uint8_t_u_u>
    a6a6:	0f b6 c0             	movzbl %al,%eax
    a6a9:	39 85 20 fb ff ff    	cmp    %eax,-0x4e0(%rbp)
    a6af:	0f 9d c0             	setge  %al
    a6b2:	0f b6 d0             	movzbl %al,%edx
    a6b5:	48 8b 85 18 fe ff ff 	mov    -0x1e8(%rbp),%rax
    a6bc:	48 39 c2             	cmp    %rax,%rdx
    a6bf:	7d 07                	jge    a6c8 <func_12+0x840>
    a6c1:	83 bd 18 fb ff ff 00 	cmpl   $0x0,-0x4e8(%rbp)
    a6c8:	90                   	nop
    a6c9:	48 8b 85 08 fb ff ff 	mov    -0x4f8(%rbp),%rax
    a6d0:	8b 00                	mov    (%rax),%eax
    a6d2:	21 85 28 fb ff ff    	and    %eax,-0x4d8(%rbp)
    a6d8:	48 8b 85 78 fb ff ff 	mov    -0x488(%rbp),%rax
    a6df:	48 8b 4d e8          	mov    -0x18(%rbp),%rcx
    a6e3:	64 48 33 0c 25 28 00 	xor    %fs:0x28,%rcx
    a6ea:	00 00 
    a6ec:	74 05                	je     a6f3 <func_12+0x86b>
    a6ee:	e8 7d d9 ff ff       	callq  8070 <__stack_chk_fail@plt>
    a6f3:	48 81 c4 f0 04 00 00 	add    $0x4f0,%rsp
    a6fa:	5b                   	pop    %rbx
    a6fb:	41 5c                	pop    %r12
    a6fd:	5d                   	pop    %rbp
    a6fe:	c3                   	retq   

000000000000a6ff <func_14>:
    a6ff:	f3 0f 1e fa          	endbr64 
    a703:	55                   	push   %rbp
    a704:	48 89 e5             	mov    %rsp,%rbp
    a707:	41 57                	push   %r15
    a709:	41 56                	push   %r14
    a70b:	41 55                	push   %r13
    a70d:	41 54                	push   %r12
    a70f:	53                   	push   %rbx
    a710:	48 81 ec 78 0b 00 00 	sub    $0xb78,%rsp
    a717:	48 89 b5 70 f4 ff ff 	mov    %rsi,-0xb90(%rbp)
    a71e:	89 d0                	mov    %edx,%eax
    a720:	89 8d 6c f4 ff ff    	mov    %ecx,-0xb94(%rbp)
    a726:	89 fa                	mov    %edi,%edx
    a728:	88 95 7c f4 ff ff    	mov    %dl,-0xb84(%rbp)
    a72e:	88 85 78 f4 ff ff    	mov    %al,-0xb88(%rbp)
    a734:	64 48 8b 04 25 28 00 	mov    %fs:0x28,%rax
    a73b:	00 00 
    a73d:	48 89 45 c8          	mov    %rax,-0x38(%rbp)
    a741:	31 c0                	xor    %eax,%eax
    a743:	c7 85 94 f4 ff ff ff 	movl   $0xffffffff,-0xb6c(%rbp)
    a74a:	ff ff ff 
    a74d:	48 8d 05 dc 1d 01 00 	lea    0x11ddc(%rip),%rax        # 1c530 <g_601>
    a754:	48 89 85 70 f6 ff ff 	mov    %rax,-0x990(%rbp)
    a75b:	48 8d 05 ce 1d 01 00 	lea    0x11dce(%rip),%rax        # 1c530 <g_601>
    a762:	48 89 85 78 f6 ff ff 	mov    %rax,-0x988(%rbp)
    a769:	48 8d 05 c0 1d 01 00 	lea    0x11dc0(%rip),%rax        # 1c530 <g_601>
    a770:	48 89 85 80 f6 ff ff 	mov    %rax,-0x980(%rbp)
    a777:	48 8d 05 b2 1d 01 00 	lea    0x11db2(%rip),%rax        # 1c530 <g_601>
    a77e:	48 89 85 88 f6 ff ff 	mov    %rax,-0x978(%rbp)
    a785:	48 8d 05 a4 1d 01 00 	lea    0x11da4(%rip),%rax        # 1c530 <g_601>
    a78c:	48 89 85 90 f6 ff ff 	mov    %rax,-0x970(%rbp)
    a793:	48 8d 05 96 1d 01 00 	lea    0x11d96(%rip),%rax        # 1c530 <g_601>
    a79a:	48 89 85 98 f6 ff ff 	mov    %rax,-0x968(%rbp)
    a7a1:	48 8d 05 88 1d 01 00 	lea    0x11d88(%rip),%rax        # 1c530 <g_601>
    a7a8:	48 89 85 a0 f6 ff ff 	mov    %rax,-0x960(%rbp)
    a7af:	48 8d 05 7a 1d 01 00 	lea    0x11d7a(%rip),%rax        # 1c530 <g_601>
    a7b6:	48 89 85 a8 f6 ff ff 	mov    %rax,-0x958(%rbp)
    a7bd:	48 8d 05 6c 1d 01 00 	lea    0x11d6c(%rip),%rax        # 1c530 <g_601>
    a7c4:	48 89 85 b0 f6 ff ff 	mov    %rax,-0x950(%rbp)
    a7cb:	48 8d 05 56 cc 00 00 	lea    0xcc56(%rip),%rax        # 17428 <g_412>
    a7d2:	48 89 85 c0 f4 ff ff 	mov    %rax,-0xb40(%rbp)
    a7d9:	48 8d 85 c0 f4 ff ff 	lea    -0xb40(%rbp),%rax
    a7e0:	48 89 85 c8 f4 ff ff 	mov    %rax,-0xb38(%rbp)
    a7e7:	48 8d 85 c8 f4 ff ff 	lea    -0xb38(%rbp),%rax
    a7ee:	48 89 85 40 f5 ff ff 	mov    %rax,-0xac0(%rbp)
    a7f5:	48 8d 05 c4 d2 00 00 	lea    0xd2c4(%rip),%rax        # 17ac0 <g_2609>
    a7fc:	48 89 85 d0 f4 ff ff 	mov    %rax,-0xb30(%rbp)
    a803:	48 8d 85 d0 f4 ff ff 	lea    -0xb30(%rbp),%rax
    a80a:	48 89 85 d8 f4 ff ff 	mov    %rax,-0xb28(%rbp)
    a811:	48 8d 85 d8 f4 ff ff 	lea    -0xb28(%rbp),%rax
    a818:	48 89 85 38 f5 ff ff 	mov    %rax,-0xac8(%rbp)
    a81f:	48 8d 05 8a da 00 00 	lea    0xda8a(%rip),%rax        # 182b0 <g_3135>
    a826:	48 89 85 48 f5 ff ff 	mov    %rax,-0xab8(%rbp)
    a82d:	48 8d 85 30 f6 ff ff 	lea    -0x9d0(%rbp),%rax
    a834:	48 83 c0 30          	add    $0x30,%rax
    a838:	48 89 85 e0 f4 ff ff 	mov    %rax,-0xb20(%rbp)
    a83f:	48 8d 85 e0 f4 ff ff 	lea    -0xb20(%rbp),%rax
    a846:	48 89 85 50 f5 ff ff 	mov    %rax,-0xab0(%rbp)
    a84d:	c7 85 60 f7 ff ff 04 	movl   $0x1e23304,-0x8a0(%rbp)
    a854:	33 e2 01 
    a857:	66 c7 85 64 f7 ff ff 	movw   $0x33e2,-0x89c(%rbp)
    a85e:	e2 33 
    a860:	c7 85 66 f7 ff ff ff 	movl   $0xf9e204ff,-0x89a(%rbp)
    a867:	04 e2 f9 
    a86a:	66 c7 85 6a f7 ff ff 	movw   $0x1ff,-0x896(%rbp)
    a871:	ff 01 
    a873:	c7 85 6c f7 ff ff 9d 	movl   $0x3333f99d,-0x894(%rbp)
    a87a:	f9 33 33 
    a87d:	66 c7 85 70 f7 ff ff 	movw   $0x9df9,-0x890(%rbp)
    a884:	f9 9d 
    a886:	c7 85 72 f7 ff ff 33 	movl   $0x2a9df933,-0x88e(%rbp)
    a88d:	f9 9d 2a 
    a890:	66 c7 85 76 f7 ff ff 	movw   $0xe2ff,-0x88a(%rbp)
    a897:	ff e2 
    a899:	c7 85 78 f7 ff ff e2 	movl   $0x4ff04e2,-0x888(%rbp)
    a8a0:	04 ff 04 
    a8a3:	66 c7 85 7c f7 ff ff 	movw   $0xf9e2,-0x884(%rbp)
    a8aa:	e2 f9 
    a8ac:	c7 85 7e f7 ff ff e2 	movl   $0x2a0433e2,-0x882(%rbp)
    a8b3:	33 04 2a 
    a8b6:	66 c7 85 82 f7 ff ff 	movw   $0x0,-0x87e(%rbp)
    a8bd:	00 00 
    a8bf:	c7 85 84 f7 ff ff 33 	movl   $0x33ffff33,-0x87c(%rbp)
    a8c6:	ff ff 33 
    a8c9:	66 c7 85 88 f7 ff ff 	movw   $0xff,-0x878(%rbp)
    a8d0:	ff 00 
    a8d2:	c7 85 8a f7 ff ff 9d 	movl   $0xf904009d,-0x876(%rbp)
    a8d9:	00 04 f9 
    a8dc:	66 c7 85 8e f7 ff ff 	movw   $0xf92a,-0x872(%rbp)
    a8e3:	2a f9 
    a8e5:	c7 85 90 f7 ff ff ff 	movl   $0x1ff30ff,-0x870(%rbp)
    a8ec:	30 ff 01 
    a8ef:	66 c7 85 94 f7 ff ff 	movw   $0xe22a,-0x86c(%rbp)
    a8f6:	2a e2 
    a8f8:	c7 85 96 f7 ff ff 04 	movl   $0xff9d0004,-0x86a(%rbp)
    a8ff:	00 9d ff 
    a902:	66 c7 85 9a f7 ff ff 	movw   $0x9dff,-0x866(%rbp)
    a909:	ff 9d 
    a90b:	c7 85 9c f7 ff ff ff 	movl   $0xff33ffff,-0x864(%rbp)
    a912:	ff 33 ff 
    a915:	66 c7 85 a0 f7 ff ff 	movw   $0x100,-0x860(%rbp)
    a91c:	00 01 
    a91e:	c7 85 a2 f7 ff ff 04 	movl   $0x1e23304,-0x85e(%rbp)
    a925:	33 e2 01 
    a928:	66 c7 85 a6 f7 ff ff 	movw   $0x33e2,-0x85a(%rbp)
    a92f:	e2 33 
    a931:	c7 85 a8 f7 ff ff ff 	movl   $0xf9e204ff,-0x858(%rbp)
    a938:	04 e2 f9 
    a93b:	66 c7 85 ac f7 ff ff 	movw   $0x1ff,-0x854(%rbp)
    a942:	ff 01 
    a944:	c7 85 ae f7 ff ff 9d 	movl   $0x3333f99d,-0x852(%rbp)
    a94b:	f9 33 33 
    a94e:	66 c7 85 b2 f7 ff ff 	movw   $0x9df9,-0x84e(%rbp)
    a955:	f9 9d 
    a957:	c7 85 b4 f7 ff ff 33 	movl   $0x2a9df933,-0x84c(%rbp)
    a95e:	f9 9d 2a 
    a961:	66 c7 85 b8 f7 ff ff 	movw   $0xe2ff,-0x848(%rbp)
    a968:	ff e2 
    a96a:	c7 85 ba f7 ff ff e2 	movl   $0x4ff04e2,-0x846(%rbp)
    a971:	04 ff 04 
    a974:	66 c7 85 be f7 ff ff 	movw   $0xf9e2,-0x842(%rbp)
    a97b:	e2 f9 
    a97d:	c7 85 c0 f7 ff ff e2 	movl   $0x2a0433e2,-0x840(%rbp)
    a984:	33 04 2a 
    a987:	66 c7 85 c4 f7 ff ff 	movw   $0x0,-0x83c(%rbp)
    a98e:	00 00 
    a990:	c7 85 c6 f7 ff ff 33 	movl   $0x33ffff33,-0x83a(%rbp)
    a997:	ff ff 33 
    a99a:	66 c7 85 ca f7 ff ff 	movw   $0xff,-0x836(%rbp)
    a9a1:	ff 00 
    a9a3:	c7 85 cc f7 ff ff 9d 	movl   $0xf904009d,-0x834(%rbp)
    a9aa:	00 04 f9 
    a9ad:	66 c7 85 d0 f7 ff ff 	movw   $0xf92a,-0x830(%rbp)
    a9b4:	2a f9 
    a9b6:	c7 85 d2 f7 ff ff ff 	movl   $0x1ff30ff,-0x82e(%rbp)
    a9bd:	30 ff 01 
    a9c0:	66 c7 85 d6 f7 ff ff 	movw   $0xe22a,-0x82a(%rbp)
    a9c7:	2a e2 
    a9c9:	c7 85 d8 f7 ff ff 04 	movl   $0xff9d0004,-0x828(%rbp)
    a9d0:	00 9d ff 
    a9d3:	66 c7 85 dc f7 ff ff 	movw   $0x9dff,-0x824(%rbp)
    a9da:	ff 9d 
    a9dc:	c7 85 de f7 ff ff ff 	movl   $0xff33ffff,-0x822(%rbp)
    a9e3:	ff 33 ff 
    a9e6:	66 c7 85 e2 f7 ff ff 	movw   $0x100,-0x81e(%rbp)
    a9ed:	00 01 
    a9ef:	c7 85 e4 f7 ff ff 04 	movl   $0x1e23304,-0x81c(%rbp)
    a9f6:	33 e2 01 
    a9f9:	66 c7 85 e8 f7 ff ff 	movw   $0x33e2,-0x818(%rbp)
    aa00:	e2 33 
    aa02:	c7 85 ea f7 ff ff ff 	movl   $0xf9e204ff,-0x816(%rbp)
    aa09:	04 e2 f9 
    aa0c:	66 c7 85 ee f7 ff ff 	movw   $0x1ff,-0x812(%rbp)
    aa13:	ff 01 
    aa15:	c7 85 f0 f7 ff ff 9d 	movl   $0x3333f99d,-0x810(%rbp)
    aa1c:	f9 33 33 
    aa1f:	66 c7 85 f4 f7 ff ff 	movw   $0x9df9,-0x80c(%rbp)
    aa26:	f9 9d 
    aa28:	c7 85 f6 f7 ff ff 33 	movl   $0x2a9df933,-0x80a(%rbp)
    aa2f:	f9 9d 2a 
    aa32:	66 c7 85 fa f7 ff ff 	movw   $0xe2ff,-0x806(%rbp)
    aa39:	ff e2 
    aa3b:	c7 85 fc f7 ff ff e2 	movl   $0x4ff04e2,-0x804(%rbp)
    aa42:	04 ff 04 
    aa45:	66 c7 85 00 f8 ff ff 	movw   $0x339d,-0x800(%rbp)
    aa4c:	9d 33 
    aa4e:	c7 85 02 f8 ff ff 9d 	movl   $0x30ff9d,-0x7fe(%rbp)
    aa55:	ff 30 00 
    aa58:	66 c7 85 06 f8 ff ff 	movw   $0xe2e2,-0x7fa(%rbp)
    aa5f:	e2 e2 
    aa61:	c7 85 08 f8 ff ff ff 	movl   $0xff0101ff,-0x7f8(%rbp)
    aa68:	01 01 ff 
    aa6b:	66 c7 85 0c f8 ff ff 	movw   $0xe2f9,-0x7f4(%rbp)
    aa72:	f9 e2 
    aa74:	c7 85 0e f8 ff ff ff 	movl   $0x3330e2ff,-0x7f2(%rbp)
    aa7b:	e2 30 33 
    aa7e:	66 c7 85 12 f8 ff ff 	movw   $0x3300,-0x7ee(%rbp)
    aa85:	00 33 
    aa87:	c7 85 14 f8 ff ff f9 	movl   $0x4f92af9,-0x7ec(%rbp)
    aa8e:	2a f9 04 
    aa91:	66 c7 85 18 f8 ff ff 	movw   $0x9d00,-0x7e8(%rbp)
    aa98:	00 9d 
    aa9a:	c7 85 1a f8 ff ff 30 	movl   $0xf9ffe230,-0x7e6(%rbp)
    aaa1:	e2 ff f9 
    aaa4:	66 c7 85 1e f8 ff ff 	movw   $0xfff9,-0x7e2(%rbp)
    aaab:	f9 ff 
    aaad:	c7 85 20 f8 ff ff 01 	movl   $0xf9ff0101,-0x7e0(%rbp)
    aab4:	01 ff f9 
    aab7:	66 c7 85 24 f8 ff ff 	movw   $0x4e2,-0x7dc(%rbp)
    aabe:	e2 04 
    aac0:	c7 85 26 f8 ff ff 30 	movl   $0x49dff30,-0x7da(%rbp)
    aac7:	ff 9d 04 
    aaca:	66 c7 85 2a f8 ff ff 	movw   $0xff9d,-0x7d6(%rbp)
    aad1:	9d ff 
    aad3:	c7 85 2c f8 ff ff f9 	movl   $0x339d30f9,-0x7d4(%rbp)
    aada:	30 9d 33 
    aadd:	66 c7 85 30 f8 ff ff 	movw   $0x401,-0x7d0(%rbp)
    aae4:	01 04 
    aae6:	48 c7 85 58 f5 ff ff 	movq   $0x0,-0xaa8(%rbp)
    aaed:	00 00 00 00 
    aaf1:	c7 85 a4 f4 ff ff 96 	movl   $0x8dbe7f96,-0xb5c(%rbp)
    aaf8:	7f be 8d 
    aafb:	48 c7 85 60 f5 ff ff 	movq   $0x0,-0xaa0(%rbp)
    ab02:	00 00 00 00 
    ab06:	c6 85 89 f4 ff ff f7 	movb   $0xf7,-0xb77(%rbp)
    ab0d:	48 8d 05 04 05 01 00 	lea    0x10504(%rip),%rax        # 1b018 <g_946>
    ab14:	48 89 85 e8 f4 ff ff 	mov    %rax,-0xb18(%rbp)
    ab1b:	48 8d 85 e8 f4 ff ff 	lea    -0xb18(%rbp),%rax
    ab22:	48 89 85 f0 f4 ff ff 	mov    %rax,-0xb10(%rbp)
    ab29:	c7 85 98 f4 ff ff 00 	movl   $0x0,-0xb68(%rbp)
    ab30:	00 00 00 
    ab33:	eb 1e                	jmp    ab53 <func_14+0x454>
    ab35:	8b 85 98 f4 ff ff    	mov    -0xb68(%rbp),%eax
    ab3b:	48 98                	cltq   
    ab3d:	48 8d 15 d4 c8 00 00 	lea    0xc8d4(%rip),%rdx        # 17418 <g_354>
    ab44:	48 89 94 c5 30 f6 ff 	mov    %rdx,-0x9d0(%rbp,%rax,8)
    ab4b:	ff 
    ab4c:	83 85 98 f4 ff ff 01 	addl   $0x1,-0xb68(%rbp)
    ab53:	83 bd 98 f4 ff ff 06 	cmpl   $0x6,-0xb68(%rbp)
    ab5a:	7e d9                	jle    ab35 <func_14+0x436>
    ab5c:	c7 85 98 f4 ff ff 00 	movl   $0x0,-0xb68(%rbp)
    ab63:	00 00 00 
    ab66:	eb 19                	jmp    ab81 <func_14+0x482>
    ab68:	8b 85 98 f4 ff ff    	mov    -0xb68(%rbp),%eax
    ab6e:	48 98                	cltq   
    ab70:	66 c7 84 45 de f5 ff 	movw   $0x4e81,-0xa22(%rbp,%rax,2)
    ab77:	ff 81 4e 
    ab7a:	83 85 98 f4 ff ff 01 	addl   $0x1,-0xb68(%rbp)
    ab81:	83 bd 98 f4 ff ff 02 	cmpl   $0x2,-0xb68(%rbp)
    ab88:	7e de                	jle    ab68 <func_14+0x469>
    ab8a:	c7 85 98 f4 ff ff 00 	movl   $0x0,-0xb68(%rbp)
    ab91:	00 00 00 
    ab94:	eb 1a                	jmp    abb0 <func_14+0x4b1>
    ab96:	8b 85 98 f4 ff ff    	mov    -0xb68(%rbp),%eax
    ab9c:	48 98                	cltq   
    ab9e:	c7 84 85 e4 f5 ff ff 	movl   $0x6,-0xa1c(%rbp,%rax,4)
    aba5:	06 00 00 00 
    aba9:	83 85 98 f4 ff ff 01 	addl   $0x1,-0xb68(%rbp)
    abb0:	83 bd 98 f4 ff ff 01 	cmpl   $0x1,-0xb68(%rbp)
    abb7:	7e dd                	jle    ab96 <func_14+0x497>
    abb9:	83 bd 94 f4 ff ff 00 	cmpl   $0x0,-0xb6c(%rbp)
    abc0:	0f 84 c1 00 00 00    	je     ac87 <func_14+0x588>
    abc6:	8b 85 94 f4 ff ff    	mov    -0xb6c(%rbp),%eax
    abcc:	89 c6                	mov    %eax,%esi
    abce:	bf 5c c0 00 00       	mov    $0xc05c,%edi
    abd3:	e8 70 e2 ff ff       	callq  8e48 <safe_rshift_func_uint16_t_u_s>
    abd8:	89 c2                	mov    %eax,%edx
    abda:	48 8b 05 17 05 01 00 	mov    0x10517(%rip),%rax        # 1b0f8 <g_1698>
    abe1:	48 8b 00             	mov    (%rax),%rax
    abe4:	0f b7 d2             	movzwl %dx,%edx
    abe7:	89 10                	mov    %edx,(%rax)
    abe9:	8b 00                	mov    (%rax),%eax
    abeb:	89 c1                	mov    %eax,%ecx
    abed:	48 8b 05 54 04 01 00 	mov    0x10454(%rip),%rax        # 1b048 <g_1203>
    abf4:	48 8b 00             	mov    (%rax),%rax
    abf7:	0f b6 00             	movzbl (%rax),%eax
    abfa:	48 8b 95 88 f6 ff ff 	mov    -0x978(%rbp),%rdx
    ac01:	48 8b 05 10 05 01 00 	mov    0x10510(%rip),%rax        # 1b118 <g_1730>
    ac08:	48 8b 00             	mov    (%rax),%rax
    ac0b:	48 39 c2             	cmp    %rax,%rdx
    ac0e:	0f 94 c2             	sete   %dl
    ac11:	48 8b 05 00 0e 01 00 	mov    0x10e00(%rip),%rax        # 1ba18 <g_3305>
    ac18:	48 8b 00             	mov    (%rax),%rax
    ac1b:	48 8b 00             	mov    (%rax),%rax
    ac1e:	48 89 85 38 f5 ff ff 	mov    %rax,-0xac8(%rbp)
    ac25:	48 8b 85 38 f5 ff ff 	mov    -0xac8(%rbp),%rax
    ac2c:	48 3b 85 40 f5 ff ff 	cmp    -0xac0(%rbp),%rax
    ac33:	75 07                	jne    ac3c <func_14+0x53d>
    ac35:	b8 01 00 00 00       	mov    $0x1,%eax
    ac3a:	eb 05                	jmp    ac41 <func_14+0x542>
    ac3c:	b8 00 00 00 00       	mov    $0x0,%eax
    ac41:	83 e0 01             	and    $0x1,%eax
    ac44:	31 d0                	xor    %edx,%eax
    ac46:	0f b6 c0             	movzbl %al,%eax
    ac49:	89 ce                	mov    %ecx,%esi
    ac4b:	89 c7                	mov    %eax,%edi
    ac4d:	e8 b3 d9 ff ff       	callq  8605 <safe_sub_func_int32_t_s_s>
    ac52:	48 8b 15 a7 04 01 00 	mov    0x104a7(%rip),%rdx        # 1b100 <g_1727>
    ac59:	48 8b 0a             	mov    (%rdx),%rcx
    ac5c:	48 63 d0             	movslq %eax,%rdx
    ac5f:	48 8b 05 9a 04 01 00 	mov    0x1049a(%rip),%rax        # 1b100 <g_1727>
    ac66:	48 31 ca             	xor    %rcx,%rdx
    ac69:	48 89 10             	mov    %rdx,(%rax)
    ac6c:	b8 01 00 00 00       	mov    $0x1,%eax
    ac71:	89 85 94 f4 ff ff    	mov    %eax,-0xb6c(%rbp)
    ac77:	83 bd 94 f4 ff ff 00 	cmpl   $0x0,-0xb6c(%rbp)
    ac7e:	74 07                	je     ac87 <func_14+0x588>
    ac80:	ba 01 00 00 00       	mov    $0x1,%edx
    ac85:	eb 05                	jmp    ac8c <func_14+0x58d>
    ac87:	ba 00 00 00 00       	mov    $0x0,%edx
    ac8c:	48 8b 85 48 f5 ff ff 	mov    -0xab8(%rbp),%rax
    ac93:	89 10                	mov    %edx,(%rax)
    ac95:	48 c7 05 78 c7 00 00 	movq   $0x0,0xc778(%rip)        # 17418 <g_354>
    ac9c:	00 00 00 00 
    aca0:	e9 e0 12 00 00       	jmpq   bf85 <func_14+0x1886>
    aca5:	48 c7 85 68 f5 ff ff 	movq   $0x0,-0xa98(%rbp)
    acac:	00 00 00 00 
    acb0:	48 8d 85 00 fc ff ff 	lea    -0x400(%rbp),%rax
    acb7:	48 8d 15 82 86 00 00 	lea    0x8682(%rip),%rdx        # 13340 <g_3574+0x2b0>
    acbe:	b9 78 00 00 00       	mov    $0x78,%ecx
    acc3:	48 89 c7             	mov    %rax,%rdi
    acc6:	48 89 d6             	mov    %rdx,%rsi
    acc9:	f3 48 a5             	rep movsq %ds:(%rsi),%es:(%rdi)
    accc:	66 c7 85 8e f4 ff ff 	movw   $0x6ceb,-0xb72(%rbp)
    acd3:	eb 6c 
    acd5:	c7 85 00 f6 ff ff 00 	movl   $0xc8470900,-0xa00(%rbp)
    acdc:	09 47 c8 
    acdf:	c6 85 04 f6 ff ff 61 	movb   $0x61,-0x9fc(%rbp)
    ace6:	c7 85 05 f6 ff ff 01 	movl   $0x1000001,-0x9fb(%rbp)
    aced:	00 00 01 
    acf0:	c6 85 09 f6 ff ff fc 	movb   $0xfc,-0x9f7(%rbp)
    acf7:	c7 85 0a f6 ff ff 00 	movl   $0xc8470900,-0x9f6(%rbp)
    acfe:	09 47 c8 
    ad01:	c6 85 0e f6 ff ff 61 	movb   $0x61,-0x9f2(%rbp)
    ad08:	c7 85 0f f6 ff ff 01 	movl   $0x1000001,-0x9f1(%rbp)
    ad0f:	00 00 01 
    ad12:	c6 85 13 f6 ff ff fc 	movb   $0xfc,-0x9ed(%rbp)
    ad19:	c7 85 14 f6 ff ff 00 	movl   $0xc8470900,-0x9ec(%rbp)
    ad20:	09 47 c8 
    ad23:	c6 85 18 f6 ff ff 61 	movb   $0x61,-0x9e8(%rbp)
    ad2a:	c7 85 19 f6 ff ff 01 	movl   $0x1000001,-0x9e7(%rbp)
    ad31:	00 00 01 
    ad34:	c6 85 1d f6 ff ff fc 	movb   $0xfc,-0x9e3(%rbp)
    ad3b:	c7 85 1e f6 ff ff 00 	movl   $0xc8470900,-0x9e2(%rbp)
    ad42:	09 47 c8 
    ad45:	c6 85 22 f6 ff ff 61 	movb   $0x61,-0x9de(%rbp)
    ad4c:	c7 85 23 f6 ff ff 01 	movl   $0x1000001,-0x9dd(%rbp)
    ad53:	00 00 01 
    ad56:	c6 85 27 f6 ff ff fc 	movb   $0xfc,-0x9d9(%rbp)
    ad5d:	c7 85 28 f6 ff ff 00 	movl   $0xc8470900,-0x9d8(%rbp)
    ad64:	09 47 c8 
    ad67:	c6 85 2c f6 ff ff 61 	movb   $0x61,-0x9d4(%rbp)
    ad6e:	48 8b 85 70 f4 ff ff 	mov    -0xb90(%rbp),%rax
    ad75:	8b 00                	mov    (%rax),%eax
    ad77:	85 c0                	test   %eax,%eax
    ad79:	0f 85 18 12 00 00    	jne    bf97 <func_14+0x1898>
    ad7f:	c6 05 2a d5 00 00 00 	movb   $0x0,0xd52a(%rip)        # 182b0 <g_3135>
    ad86:	e9 d9 11 00 00       	jmpq   bf64 <func_14+0x1865>
    ad8b:	66 c7 85 8c f4 ff ff 	movw   $0x0,-0xb74(%rbp)
    ad92:	00 00 
    ad94:	c7 85 9c f4 ff ff d1 	movl   $0xd24b7d1,-0xb64(%rbp)
    ad9b:	b7 24 0d 
    ad9e:	c6 85 8a f4 ff ff 01 	movb   $0x1,-0xb76(%rbp)
    ada5:	c7 85 a8 f4 ff ff fd 	movl   $0xfffffffd,-0xb58(%rbp)
    adac:	ff ff ff 
    adaf:	48 8d 05 92 16 01 00 	lea    0x11692(%rip),%rax        # 1c448 <g_336>
    adb6:	48 89 85 10 f7 ff ff 	mov    %rax,-0x8f0(%rbp)
    adbd:	48 8d 05 84 16 01 00 	lea    0x11684(%rip),%rax        # 1c448 <g_336>
    adc4:	48 89 85 18 f7 ff ff 	mov    %rax,-0x8e8(%rbp)
    adcb:	48 8d 05 76 16 01 00 	lea    0x11676(%rip),%rax        # 1c448 <g_336>
    add2:	48 89 85 20 f7 ff ff 	mov    %rax,-0x8e0(%rbp)
    add9:	48 8d 05 68 16 01 00 	lea    0x11668(%rip),%rax        # 1c448 <g_336>
    ade0:	48 89 85 28 f7 ff ff 	mov    %rax,-0x8d8(%rbp)
    ade7:	48 8d 05 5a 16 01 00 	lea    0x1165a(%rip),%rax        # 1c448 <g_336>
    adee:	48 89 85 30 f7 ff ff 	mov    %rax,-0x8d0(%rbp)
    adf5:	48 8d 05 4c 16 01 00 	lea    0x1164c(%rip),%rax        # 1c448 <g_336>
    adfc:	48 89 85 38 f7 ff ff 	mov    %rax,-0x8c8(%rbp)
    ae03:	48 8d 05 3e 16 01 00 	lea    0x1163e(%rip),%rax        # 1c448 <g_336>
    ae0a:	48 89 85 40 f7 ff ff 	mov    %rax,-0x8c0(%rbp)
    ae11:	48 8d 05 30 16 01 00 	lea    0x11630(%rip),%rax        # 1c448 <g_336>
    ae18:	48 89 85 48 f7 ff ff 	mov    %rax,-0x8b8(%rbp)
    ae1f:	48 8d 05 22 16 01 00 	lea    0x11622(%rip),%rax        # 1c448 <g_336>
    ae26:	48 89 85 50 f7 ff ff 	mov    %rax,-0x8b0(%rbp)
    ae2d:	48 8d 05 14 16 01 00 	lea    0x11614(%rip),%rax        # 1c448 <g_336>
    ae34:	48 89 85 58 f7 ff ff 	mov    %rax,-0x8a8(%rbp)
    ae3b:	48 8d 85 c0 f4 ff ff 	lea    -0xb40(%rbp),%rax
    ae42:	48 89 85 f8 f4 ff ff 	mov    %rax,-0xb08(%rbp)
    ae49:	48 8d 05 e8 0b 01 00 	lea    0x10be8(%rip),%rax        # 1ba38 <g_3587>
    ae50:	48 89 85 00 f5 ff ff 	mov    %rax,-0xb00(%rbp)
    ae57:	48 8d 85 f0 f4 ff ff 	lea    -0xb10(%rbp),%rax
    ae5e:	48 89 85 70 f5 ff ff 	mov    %rax,-0xa90(%rbp)
    ae65:	c7 85 a0 f4 ff ff 00 	movl   $0x0,-0xb60(%rbp)
    ae6c:	00 00 00 
    ae6f:	eb 1a                	jmp    ae8b <func_14+0x78c>
    ae71:	8b 85 a0 f4 ff ff    	mov    -0xb60(%rbp),%eax
    ae77:	48 98                	cltq   
    ae79:	c7 84 85 f4 f5 ff ff 	movl   $0xfffffffa,-0xa0c(%rbp,%rax,4)
    ae80:	fa ff ff ff 
    ae84:	83 85 a0 f4 ff ff 01 	addl   $0x1,-0xb60(%rbp)
    ae8b:	83 bd a0 f4 ff ff 02 	cmpl   $0x2,-0xb60(%rbp)
    ae92:	7e dd                	jle    ae71 <func_14+0x772>
    ae94:	48 8b 05 85 01 01 00 	mov    0x10185(%rip),%rax        # 1b020 <g_1089>
    ae9b:	48 c7 00 00 00 00 00 	movq   $0x0,(%rax)
    aea2:	c6 85 78 f4 ff ff 00 	movb   $0x0,-0xb88(%rbp)
    aea9:	e9 27 10 00 00       	jmpq   bed5 <func_14+0x17d6>
    aeae:	c6 85 8b f4 ff ff 04 	movb   $0x4,-0xb75(%rbp)
    aeb5:	c7 85 ac f4 ff ff 86 	movl   $0x2070ec86,-0xb54(%rbp)
    aebc:	ec 70 20 
    aebf:	c7 85 90 f4 ff ff ff 	movl   $0xffffffff,-0xb70(%rbp)
    aec6:	ff ff ff 
    aec9:	48 8d 85 90 fa ff ff 	lea    -0x570(%rbp),%rax
    aed0:	48 8d 15 29 88 00 00 	lea    0x8829(%rip),%rdx        # 13700 <g_3574+0x670>
    aed7:	b9 2d 00 00 00       	mov    $0x2d,%ecx
    aedc:	48 89 c7             	mov    %rax,%rdi
    aedf:	48 89 d6             	mov    %rdx,%rsi
    aee2:	f3 48 a5             	rep movsq %ds:(%rsi),%es:(%rdi)
    aee5:	66 c7 85 ec f5 ff ff 	movw   $0x0,-0xa14(%rbp)
    aeec:	00 00 
    aeee:	66 c7 85 ee f5 ff ff 	movw   $0x0,-0xa12(%rbp)
    aef5:	00 00 
    aef7:	66 c7 85 f0 f5 ff ff 	movw   $0x0,-0xa10(%rbp)
    aefe:	00 00 
    af00:	66 c7 85 f2 f5 ff ff 	movw   $0x0,-0xa0e(%rbp)
    af07:	00 00 
    af09:	48 8d 05 e8 01 01 00 	lea    0x101e8(%rip),%rax        # 1b0f8 <g_1698>
    af10:	48 89 85 78 f5 ff ff 	mov    %rax,-0xa88(%rbp)
    af17:	48 8d 05 22 15 01 00 	lea    0x11522(%rip),%rax        # 1c440 <g_270>
    af1e:	48 89 85 08 f5 ff ff 	mov    %rax,-0xaf8(%rbp)
    af25:	48 8d 85 08 f5 ff ff 	lea    -0xaf8(%rbp),%rax
    af2c:	48 89 85 10 f5 ff ff 	mov    %rax,-0xaf0(%rbp)
    af33:	48 8d 85 10 f5 ff ff 	lea    -0xaf0(%rbp),%rax
    af3a:	48 89 85 18 f5 ff ff 	mov    %rax,-0xae8(%rbp)
    af41:	48 8d 85 18 f5 ff ff 	lea    -0xae8(%rbp),%rax
    af48:	48 89 85 80 f5 ff ff 	mov    %rax,-0xa80(%rbp)
    af4f:	48 8d 05 ca 00 01 00 	lea    0x100ca(%rip),%rax        # 1b020 <g_1089>
    af56:	48 89 85 20 f5 ff ff 	mov    %rax,-0xae0(%rbp)
    af5d:	48 8d 85 20 f5 ff ff 	lea    -0xae0(%rbp),%rax
    af64:	48 89 85 28 f5 ff ff 	mov    %rax,-0xad8(%rbp)
    af6b:	48 8d 85 28 f5 ff ff 	lea    -0xad8(%rbp),%rax
    af72:	48 89 85 88 f5 ff ff 	mov    %rax,-0xa78(%rbp)
    af79:	48 8d 05 a0 08 01 00 	lea    0x108a0(%rip),%rax        # 1b820 <g_3297+0x320>
    af80:	48 39 85 50 f5 ff ff 	cmp    %rax,-0xab0(%rbp)
    af87:	0f 85 e5 04 00 00    	jne    b472 <func_14+0xd73>
    af8d:	c7 85 b0 f4 ff ff 01 	movl   $0x1,-0xb50(%rbp)
    af94:	00 00 00 
    af97:	48 c7 85 b8 f5 ff ff 	movq   $0x9,-0xa48(%rbp)
    af9e:	09 00 00 00 
    afa2:	8b 05 20 db 00 00    	mov    0xdb20(%rip),%eax        # 18ac8 <g_3426>
    afa8:	48 8b 05 31 01 01 00 	mov    0x10131(%rip),%rax        # 1b0e0 <g_1675>
    afaf:	48 8b 00             	mov    (%rax),%rax
    afb2:	48 8b 95 68 f5 ff ff 	mov    -0xa98(%rbp),%rdx
    afb9:	48 89 10             	mov    %rdx,(%rax)
    afbc:	c7 05 b2 c7 00 00 00 	movl   $0x0,0xc7b2(%rip)        # 17778 <g_2194>
    afc3:	00 00 00 
    afc6:	90                   	nop
    afc7:	8b 05 ab c7 00 00    	mov    0xc7ab(%rip),%eax        # 17778 <g_2194>
    afcd:	85 c0                	test   %eax,%eax
    afcf:	0f 85 f3 01 00 00    	jne    b1c8 <func_14+0xac9>
    afd5:	83 bd 6c f4 ff ff 00 	cmpl   $0x0,-0xb94(%rbp)
    afdc:	0f 84 71 01 00 00    	je     b153 <func_14+0xa54>
    afe2:	8b 9d 14 fe ff ff    	mov    -0x1ec(%rbp),%ebx
    afe8:	44 8b a5 6c f4 ff ff 	mov    -0xb94(%rbp),%r12d
    afef:	0f b6 85 97 f7 ff ff 	movzbl -0x869(%rbp),%eax
    aff6:	44 0f be e8          	movsbl %al,%r13d
    affa:	44 0f b6 b5 7c f4 ff 	movzbl -0xb84(%rbp),%r14d
    b001:	ff 
    b002:	0f b7 85 8c f4 ff ff 	movzwl -0xb74(%rbp),%eax
    b009:	83 e8 01             	sub    $0x1,%eax
    b00c:	66 89 85 8c f4 ff ff 	mov    %ax,-0xb74(%rbp)
    b013:	8b 85 b0 f4 ff ff    	mov    -0xb50(%rbp),%eax
    b019:	0f bf d0             	movswl %ax,%edx
    b01c:	48 8b 05 65 f7 00 00 	mov    0xf765(%rip),%rax        # 1a788 <g_211>
    b023:	48 8b 00             	mov    (%rax),%rax
    b026:	0f b7 00             	movzwl (%rax),%eax
    b029:	98                   	cwtl   
    b02a:	89 d6                	mov    %edx,%esi
    b02c:	89 c7                	mov    %eax,%edi
    b02e:	e8 a0 d3 ff ff       	callq  83d3 <safe_sub_func_int16_t_s_s>
    b033:	98                   	cwtl   
    b034:	be 09 00 00 00       	mov    $0x9,%esi
    b039:	89 c7                	mov    %eax,%edi
    b03b:	e8 52 d4 ff ff       	callq  8492 <safe_lshift_func_int16_t_s_s>
    b040:	98                   	cwtl   
    b041:	39 85 6c f4 ff ff    	cmp    %eax,-0xb94(%rbp)
    b047:	8b 85 6c f4 ff ff    	mov    -0xb94(%rbp),%eax
    b04d:	83 f0 01             	xor    $0x1,%eax
    b050:	89 c1                	mov    %eax,%ecx
    b052:	8b 05 20 c7 00 00    	mov    0xc720(%rip),%eax        # 17778 <g_2194>
    b058:	8d 50 01             	lea    0x1(%rax),%edx
    b05b:	48 8b 05 b6 c3 00 00 	mov    0xc3b6(%rip),%rax        # 17418 <g_354>
    b062:	48 8d 70 02          	lea    0x2(%rax),%rsi
    b066:	8b 05 0c c7 00 00    	mov    0xc70c(%rip),%eax        # 17778 <g_2194>
    b06c:	89 c7                	mov    %eax,%edi
    b06e:	89 d2                	mov    %edx,%edx
    b070:	48 89 d0             	mov    %rdx,%rax
    b073:	48 c1 e0 02          	shl    $0x2,%rax
    b077:	48 01 d0             	add    %rdx,%rax
    b07a:	48 01 f0             	add    %rsi,%rax
    b07d:	48 01 f8             	add    %rdi,%rax
    b080:	48 8d 14 c5 00 00 00 	lea    0x0(,%rax,8),%rdx
    b087:	00 
    b088:	48 8d 05 b1 c9 00 00 	lea    0xc9b1(%rip),%rax        # 17a40 <g_2375>
    b08f:	48 8b 04 02          	mov    (%rdx,%rax,1),%rax
    b093:	48 f7 d0             	not    %rax
    b096:	48 c1 e8 3f          	shr    $0x3f,%rax
    b09a:	0f b6 c0             	movzbl %al,%eax
    b09d:	39 c1                	cmp    %eax,%ecx
    b09f:	0f 95 c0             	setne  %al
    b0a2:	0f b6 d0             	movzbl %al,%edx
    b0a5:	0f b6 85 8b f4 ff ff 	movzbl -0xb75(%rbp),%eax
    b0ac:	f7 d0                	not    %eax
    b0ae:	48 98                	cltq   
    b0b0:	48 89 d6             	mov    %rdx,%rsi
    b0b3:	48 89 c7             	mov    %rax,%rdi
    b0b6:	e8 90 df ff ff       	callq  904b <safe_sub_func_uint64_t_u_u>
    b0bb:	49 39 c6             	cmp    %rax,%r14
    b0be:	75 44                	jne    b104 <func_14+0xa05>
    b0c0:	8b 05 b2 c6 00 00    	mov    0xc6b2(%rip),%eax        # 17778 <g_2194>
    b0c6:	8d 50 01             	lea    0x1(%rax),%edx
    b0c9:	48 8b 05 48 c3 00 00 	mov    0xc348(%rip),%rax        # 17418 <g_354>
    b0d0:	48 8d 48 02          	lea    0x2(%rax),%rcx
    b0d4:	8b 05 9e c6 00 00    	mov    0xc69e(%rip),%eax        # 17778 <g_2194>
    b0da:	89 c6                	mov    %eax,%esi
    b0dc:	89 d2                	mov    %edx,%edx
    b0de:	48 89 d0             	mov    %rdx,%rax
    b0e1:	48 c1 e0 02          	shl    $0x2,%rax
    b0e5:	48 01 d0             	add    %rdx,%rax
    b0e8:	48 01 c8             	add    %rcx,%rax
    b0eb:	48 01 f0             	add    %rsi,%rax
    b0ee:	48 8d 14 c5 00 00 00 	lea    0x0(,%rax,8),%rdx
    b0f5:	00 
    b0f6:	48 8d 05 43 c9 00 00 	lea    0xc943(%rip),%rax        # 17a40 <g_2375>
    b0fd:	48 8b 04 02          	mov    (%rdx,%rax,1),%rax
    b101:	48 85 c0             	test   %rax,%rax
    b104:	0f b6 85 7c f4 ff ff 	movzbl -0xb84(%rbp),%eax
    b10b:	44 89 ee             	mov    %r13d,%esi
    b10e:	89 c7                	mov    %eax,%edi
    b110:	e8 37 db ff ff       	callq  8c4c <safe_lshift_func_uint8_t_u_u>
    b115:	84 c0                	test   %al,%al
    b117:	74 11                	je     b12a <func_14+0xa2b>
    b119:	66 83 bd 8c f4 ff ff 	cmpw   $0x0,-0xb74(%rbp)
    b120:	00 
    b121:	74 07                	je     b12a <func_14+0xa2b>
    b123:	b8 01 00 00 00       	mov    $0x1,%eax
    b128:	eb 05                	jmp    b12f <func_14+0xa30>
    b12a:	b8 00 00 00 00       	mov    $0x0,%eax
    b12f:	0f b6 c0             	movzbl %al,%eax
    b132:	44 89 e6             	mov    %r12d,%esi
    b135:	89 c7                	mov    %eax,%edi
    b137:	e8 82 db ff ff       	callq  8cbe <safe_rshift_func_uint8_t_u_u>
    b13c:	89 de                	mov    %ebx,%esi
    b13e:	bf 01 00 00 00       	mov    $0x1,%edi
    b143:	e8 b7 d5 ff ff       	callq  86ff <safe_div_func_int32_t_s_s>
    b148:	85 c0                	test   %eax,%eax
    b14a:	74 07                	je     b153 <func_14+0xa54>
    b14c:	b8 01 00 00 00       	mov    $0x1,%eax
    b151:	eb 05                	jmp    b158 <func_14+0xa59>
    b153:	b8 00 00 00 00       	mov    $0x0,%eax
    b158:	0f b6 c0             	movzbl %al,%eax
    b15b:	be f0 00 00 00       	mov    $0xf0,%esi
    b160:	89 c7                	mov    %eax,%edi
    b162:	e8 2c da ff ff       	callq  8b93 <safe_mul_func_uint8_t_u_u>
    b167:	0f b6 d0             	movzbl %al,%edx
    b16a:	8b 05 08 c6 00 00    	mov    0xc608(%rip),%eax        # 17778 <g_2194>
    b170:	8d 48 01             	lea    0x1(%rax),%ecx
    b173:	48 8b 05 9e c2 00 00 	mov    0xc29e(%rip),%rax        # 17418 <g_354>
    b17a:	48 8d 70 02          	lea    0x2(%rax),%rsi
    b17e:	8b 05 f4 c5 00 00    	mov    0xc5f4(%rip),%eax        # 17778 <g_2194>
    b184:	89 c7                	mov    %eax,%edi
    b186:	89 c9                	mov    %ecx,%ecx
    b188:	48 89 c8             	mov    %rcx,%rax
    b18b:	48 c1 e0 02          	shl    $0x2,%rax
    b18f:	48 01 c8             	add    %rcx,%rax
    b192:	48 01 f0             	add    %rsi,%rax
    b195:	48 01 f8             	add    %rdi,%rax
    b198:	48 8d 0c c5 00 00 00 	lea    0x0(,%rax,8),%rcx
    b19f:	00 
    b1a0:	48 8d 05 99 c8 00 00 	lea    0xc899(%rip),%rax        # 17a40 <g_2375>
    b1a7:	48 8b 04 01          	mov    (%rcx,%rax,1),%rax
    b1ab:	48 89 d6             	mov    %rdx,%rsi
    b1ae:	48 89 c7             	mov    %rax,%rdi
    b1b1:	e8 fe d7 ff ff       	callq  89b4 <safe_mod_func_int64_t_s_s>
    b1b6:	89 85 14 fe ff ff    	mov    %eax,-0x1ec(%rbp)
    b1bc:	0f b7 85 8c f4 ff ff 	movzwl -0xb74(%rbp),%eax
    b1c3:	e9 d6 0d 00 00       	jmpq   bf9e <func_14+0x189f>
    b1c8:	48 8b 05 f9 fe 00 00 	mov    0xfef9(%rip),%rax        # 1b0c8 <g_1421>
    b1cf:	48 8b 00             	mov    (%rax),%rax
    b1d2:	48 8b 10             	mov    (%rax),%rdx
    b1d5:	48 8b 05 74 fd 00 00 	mov    0xfd74(%rip),%rax        # 1af50 <g_352>
    b1dc:	48 8b 00             	mov    (%rax),%rax
    b1df:	48 8b 00             	mov    (%rax),%rax
    b1e2:	48 39 c2             	cmp    %rax,%rdx
    b1e5:	0f 94 c2             	sete   %dl
    b1e8:	48 8b 05 59 f5 00 00 	mov    0xf559(%rip),%rax        # 1a748 <g_165>
    b1ef:	0f b6 d2             	movzbl %dl,%edx
    b1f2:	66 89 10             	mov    %dx,(%rax)
    b1f5:	48 0f be 9d 78 f4 ff 	movsbq -0xb88(%rbp),%rbx
    b1fc:	ff 
    b1fd:	0f b7 85 8c f4 ff ff 	movzwl -0xb74(%rbp),%eax
    b204:	44 0f bf e0          	movswl %ax,%r12d
    b208:	48 83 bd 58 f5 ff ff 	cmpq   $0x0,-0xaa8(%rbp)
    b20f:	00 
    b210:	0f 94 c0             	sete   %al
    b213:	88 85 6b f4 ff ff    	mov    %al,-0xb95(%rbp)
    b219:	0f b6 85 78 f4 ff ff 	movzbl -0xb88(%rbp),%eax
    b220:	44 0f b6 e8          	movzbl %al,%r13d
    b224:	48 8b 85 70 f4 ff ff 	mov    -0xb90(%rbp),%rax
    b22b:	44 8b 30             	mov    (%rax),%r14d
    b22e:	48 8b 85 60 f5 ff ff 	mov    -0xaa0(%rbp),%rax
    b235:	44 0f bf f8          	movswl %ax,%r15d
    b239:	48 8b 05 88 01 01 00 	mov    0x10188(%rip),%rax        # 1b3c8 <g_2230>
    b240:	8b 08                	mov    (%rax),%ecx
    b242:	89 8d 64 f4 ff ff    	mov    %ecx,-0xb9c(%rbp)
    b248:	0f bf 85 8e f4 ff ff 	movswl -0xb72(%rbp),%eax
    b24f:	89 c6                	mov    %eax,%esi
    b251:	bf ff ff ff ff       	mov    $0xffffffff,%edi
    b256:	e8 37 d2 ff ff       	callq  8492 <safe_lshift_func_int16_t_s_s>
    b25b:	48 8b 05 e6 f4 00 00 	mov    0xf4e6(%rip),%rax        # 1a748 <g_165>
    b262:	0f b7 00             	movzwl (%rax),%eax
    b265:	89 c2                	mov    %eax,%edx
    b267:	66 0f be 85 78 f4 ff 	movsbw -0xb88(%rbp),%ax
    b26e:	ff 
    b26f:	31 c2                	xor    %eax,%edx
    b271:	48 8b 05 d0 f4 00 00 	mov    0xf4d0(%rip),%rax        # 1a748 <g_165>
    b278:	66 89 10             	mov    %dx,(%rax)
    b27b:	0f b7 00             	movzwl (%rax),%eax
    b27e:	0f b7 c0             	movzwl %ax,%eax
    b281:	be 00 00 00 00       	mov    $0x0,%esi
    b286:	89 c7                	mov    %eax,%edi
    b288:	e8 31 db ff ff       	callq  8dbe <safe_lshift_func_uint16_t_u_s>
    b28d:	32 85 78 f4 ff ff    	xor    -0xb88(%rbp),%al
    b293:	0f b6 c0             	movzbl %al,%eax
    b296:	be ca 00 00 00       	mov    $0xca,%esi
    b29b:	89 c7                	mov    %eax,%edi
    b29d:	e8 0c d9 ff ff       	callq  8bae <safe_mod_func_uint8_t_u_u>
    b2a2:	8b 85 6c f4 ff ff    	mov    -0xb94(%rbp),%eax
    b2a8:	0f be c0             	movsbl %al,%eax
    b2ab:	be 01 00 00 00       	mov    $0x1,%esi
    b2b0:	89 c7                	mov    %eax,%edi
    b2b2:	e8 1d cf ff ff       	callq  81d4 <safe_add_func_int8_t_s_s>
    b2b7:	0f be c0             	movsbl %al,%eax
    b2ba:	8b b5 64 f4 ff ff    	mov    -0xb9c(%rbp),%esi
    b2c0:	89 c7                	mov    %eax,%edi
    b2c2:	e8 3e d3 ff ff       	callq  8605 <safe_sub_func_int32_t_s_s>
    b2c7:	98                   	cwtl   
    b2c8:	44 89 fe             	mov    %r15d,%esi
    b2cb:	89 c7                	mov    %eax,%edi
    b2cd:	e8 e1 d0 ff ff       	callq  83b3 <safe_add_func_int16_t_s_s>
    b2d2:	98                   	cwtl   
    b2d3:	44 89 f6             	mov    %r14d,%esi
    b2d6:	89 c7                	mov    %eax,%edi
    b2d8:	e8 22 d4 ff ff       	callq  86ff <safe_div_func_int32_t_s_s>
    b2dd:	39 85 6c f4 ff ff    	cmp    %eax,-0xb94(%rbp)
    b2e3:	0f 95 c0             	setne  %al
    b2e6:	0f b6 c0             	movzbl %al,%eax
    b2e9:	44 89 ee             	mov    %r13d,%esi
    b2ec:	89 c7                	mov    %eax,%edi
    b2ee:	e8 e8 d8 ff ff       	callq  8bdb <safe_div_func_uint8_t_u_u>
    b2f3:	22 85 6b f4 ff ff    	and    -0xb95(%rbp),%al
    b2f9:	0f b6 c0             	movzbl %al,%eax
    b2fc:	be 02 00 00 00       	mov    $0x2,%esi
    b301:	89 c7                	mov    %eax,%edi
    b303:	e8 b6 d9 ff ff       	callq  8cbe <safe_rshift_func_uint8_t_u_u>
    b308:	0f b6 d0             	movzbl %al,%edx
    b30b:	48 8b 05 1e fd 00 00 	mov    0xfd1e(%rip),%rax        # 1b030 <g_1176>
    b312:	48 8b 00             	mov    (%rax),%rax
    b315:	48 89 d6             	mov    %rdx,%rsi
    b318:	48 89 c7             	mov    %rax,%rdi
    b31b:	e8 94 d6 ff ff       	callq  89b4 <safe_mod_func_int64_t_s_s>
    b320:	0f b6 d0             	movzbl %al,%edx
    b323:	0f b6 85 78 f4 ff ff 	movzbl -0xb88(%rbp),%eax
    b32a:	0f b6 c0             	movzbl %al,%eax
    b32d:	89 d6                	mov    %edx,%esi
    b32f:	89 c7                	mov    %eax,%edi
    b331:	e8 5d d8 ff ff       	callq  8b93 <safe_mul_func_uint8_t_u_u>
    b336:	32 85 7c f4 ff ff    	xor    -0xb84(%rbp),%al
    b33c:	0f b6 c8             	movzbl %al,%ecx
    b33f:	0f b6 05 6a cf 00 00 	movzbl 0xcf6a(%rip),%eax        # 182b0 <g_3135>
    b346:	0f be c0             	movsbl %al,%eax
    b349:	0f be 95 78 f4 ff ff 	movsbl -0xb88(%rbp),%edx
    b350:	83 c2 04             	add    $0x4,%edx
    b353:	48 8b 3d be c0 00 00 	mov    0xc0be(%rip),%rdi        # 17418 <g_354>
    b35a:	48 63 f2             	movslq %edx,%rsi
    b35d:	48 63 d0             	movslq %eax,%rdx
    b360:	48 89 d0             	mov    %rdx,%rax
    b363:	48 c1 e0 02          	shl    $0x2,%rax
    b367:	48 01 d0             	add    %rdx,%rax
    b36a:	48 01 f8             	add    %rdi,%rax
    b36d:	48 01 f0             	add    %rsi,%rax
    b370:	48 8d 14 c5 00 00 00 	lea    0x0(,%rax,8),%rdx
    b377:	00 
    b378:	48 8d 05 c1 c6 00 00 	lea    0xc6c1(%rip),%rax        # 17a40 <g_2375>
    b37f:	48 8b 34 02          	mov    (%rdx,%rax,1),%rsi
    b383:	48 63 c1             	movslq %ecx,%rax
    b386:	0f b6 15 23 cf 00 00 	movzbl 0xcf23(%rip),%edx        # 182b0 <g_3135>
    b38d:	0f be ca             	movsbl %dl,%ecx
    b390:	0f be 95 78 f4 ff ff 	movsbl -0xb88(%rbp),%edx
    b397:	8d 7a 04             	lea    0x4(%rdx),%edi
    b39a:	48 8b 15 77 c0 00 00 	mov    0xc077(%rip),%rdx        # 17418 <g_354>
    b3a1:	48 21 c6             	and    %rax,%rsi
    b3a4:	49 89 f0             	mov    %rsi,%r8
    b3a7:	4c 63 cf             	movslq %edi,%r9
    b3aa:	48 63 f1             	movslq %ecx,%rsi
    b3ad:	48 89 f0             	mov    %rsi,%rax
    b3b0:	48 c1 e0 02          	shl    $0x2,%rax
    b3b4:	48 01 f0             	add    %rsi,%rax
    b3b7:	48 01 d0             	add    %rdx,%rax
    b3ba:	4c 01 c8             	add    %r9,%rax
    b3bd:	48 8d 34 c5 00 00 00 	lea    0x0(,%rax,8),%rsi
    b3c4:	00 
    b3c5:	48 8d 05 74 c6 00 00 	lea    0xc674(%rip),%rax        # 17a40 <g_2375>
    b3cc:	4c 89 04 06          	mov    %r8,(%rsi,%rax,1)
    b3d0:	48 63 f7             	movslq %edi,%rsi
    b3d3:	48 63 c9             	movslq %ecx,%rcx
    b3d6:	48 89 c8             	mov    %rcx,%rax
    b3d9:	48 c1 e0 02          	shl    $0x2,%rax
    b3dd:	48 01 c8             	add    %rcx,%rax
    b3e0:	48 01 d0             	add    %rdx,%rax
    b3e3:	48 01 f0             	add    %rsi,%rax
    b3e6:	48 8d 14 c5 00 00 00 	lea    0x0(,%rax,8),%rdx
    b3ed:	00 
    b3ee:	48 8d 05 4b c6 00 00 	lea    0xc64b(%rip),%rax        # 17a40 <g_2375>
    b3f5:	48 8b 14 02          	mov    (%rdx,%rax,1),%rdx
    b3f9:	0f b7 85 8c f4 ff ff 	movzwl -0xb74(%rbp),%eax
    b400:	48 39 c2             	cmp    %rax,%rdx
    b403:	0f 9e c0             	setle  %al
    b406:	0f b6 c0             	movzbl %al,%eax
    b409:	44 89 e6             	mov    %r12d,%esi
    b40c:	89 c7                	mov    %eax,%edi
    b40e:	e8 e2 cf ff ff       	callq  83f5 <safe_mul_func_int16_t_s_s>
    b413:	48 0f bf c0          	movswq %ax,%rax
    b417:	48 89 de             	mov    %rbx,%rsi
    b41a:	48 89 c7             	mov    %rax,%rdi
    b41d:	e8 1f d4 ff ff       	callq  8841 <safe_add_func_int64_t_s_s>
    b422:	48 be 05 8d 26 3b 5c 	movabs $0x4967125c3b268d05,%rsi
    b429:	12 67 49 
    b42c:	48 89 c7             	mov    %rax,%rdi
    b42f:	e8 74 d4 ff ff       	callq  88a8 <safe_sub_func_int64_t_s_s>
    b434:	0f bf d0             	movswl %ax,%edx
    b437:	8b 85 b0 f4 ff ff    	mov    -0xb50(%rbp),%eax
    b43d:	98                   	cwtl   
    b43e:	89 d6                	mov    %edx,%esi
    b440:	89 c7                	mov    %eax,%edi
    b442:	e8 ae cf ff ff       	callq  83f5 <safe_mul_func_int16_t_s_s>
    b447:	0f bf d0             	movswl %ax,%edx
    b44a:	0f b6 85 8b f4 ff ff 	movzbl -0xb75(%rbp),%eax
    b451:	39 c2                	cmp    %eax,%edx
    b453:	0f 9c c0             	setl   %al
    b456:	0f b6 c0             	movzbl %al,%eax
    b459:	21 85 ac f4 ff ff    	and    %eax,-0xb54(%rbp)
    b45f:	48 83 bd b8 f5 ff ff 	cmpq   $0x0,-0xa48(%rbp)
    b466:	00 
    b467:	0f 84 b8 03 00 00    	je     b825 <func_14+0x1126>
    b46d:	e9 70 0a 00 00       	jmpq   bee2 <func_14+0x17e3>
    b472:	48 8d 85 40 f9 ff ff 	lea    -0x6c0(%rbp),%rax
    b479:	48 8d 15 00 84 00 00 	lea    0x8400(%rip),%rdx        # 13880 <g_3574+0x7f0>
    b480:	b9 2a 00 00 00       	mov    $0x2a,%ecx
    b485:	48 89 c7             	mov    %rax,%rdi
    b488:	48 89 d6             	mov    %rdx,%rsi
    b48b:	f3 48 a5             	rep movsq %ds:(%rsi),%es:(%rdi)
    b48e:	48 8d 05 6b fc 00 00 	lea    0xfc6b(%rip),%rax        # 1b100 <g_1727>
    b495:	48 89 85 30 f5 ff ff 	mov    %rax,-0xad0(%rbp)
    b49c:	48 8d 85 30 f5 ff ff 	lea    -0xad0(%rbp),%rax
    b4a3:	48 89 85 40 f8 ff ff 	mov    %rax,-0x7c0(%rbp)
    b4aa:	48 8d 85 30 f5 ff ff 	lea    -0xad0(%rbp),%rax
    b4b1:	48 89 85 48 f8 ff ff 	mov    %rax,-0x7b8(%rbp)
    b4b8:	48 8d 85 30 f5 ff ff 	lea    -0xad0(%rbp),%rax
    b4bf:	48 89 85 50 f8 ff ff 	mov    %rax,-0x7b0(%rbp)
    b4c6:	48 8d 85 30 f5 ff ff 	lea    -0xad0(%rbp),%rax
    b4cd:	48 89 85 58 f8 ff ff 	mov    %rax,-0x7a8(%rbp)
    b4d4:	48 8d 85 30 f5 ff ff 	lea    -0xad0(%rbp),%rax
    b4db:	48 89 85 60 f8 ff ff 	mov    %rax,-0x7a0(%rbp)
    b4e2:	48 8d 85 30 f5 ff ff 	lea    -0xad0(%rbp),%rax
    b4e9:	48 89 85 68 f8 ff ff 	mov    %rax,-0x798(%rbp)
    b4f0:	48 8d 05 81 10 01 00 	lea    0x11081(%rip),%rax        # 1c578 <g_1726+0x18>
    b4f7:	48 89 85 70 f8 ff ff 	mov    %rax,-0x790(%rbp)
    b4fe:	48 8d 05 73 10 01 00 	lea    0x11073(%rip),%rax        # 1c578 <g_1726+0x18>
    b505:	48 89 85 78 f8 ff ff 	mov    %rax,-0x788(%rbp)
    b50c:	48 8d 85 30 f5 ff ff 	lea    -0xad0(%rbp),%rax
    b513:	48 89 85 80 f8 ff ff 	mov    %rax,-0x780(%rbp)
    b51a:	48 8d 85 30 f5 ff ff 	lea    -0xad0(%rbp),%rax
    b521:	48 89 85 88 f8 ff ff 	mov    %rax,-0x778(%rbp)
    b528:	48 8d 85 30 f5 ff ff 	lea    -0xad0(%rbp),%rax
    b52f:	48 89 85 90 f8 ff ff 	mov    %rax,-0x770(%rbp)
    b536:	48 8d 85 30 f5 ff ff 	lea    -0xad0(%rbp),%rax
    b53d:	48 89 85 98 f8 ff ff 	mov    %rax,-0x768(%rbp)
    b544:	48 8d 85 30 f5 ff ff 	lea    -0xad0(%rbp),%rax
    b54b:	48 89 85 a0 f8 ff ff 	mov    %rax,-0x760(%rbp)
    b552:	48 8d 85 30 f5 ff ff 	lea    -0xad0(%rbp),%rax
    b559:	48 89 85 a8 f8 ff ff 	mov    %rax,-0x758(%rbp)
    b560:	48 8d 05 11 10 01 00 	lea    0x11011(%rip),%rax        # 1c578 <g_1726+0x18>
    b567:	48 89 85 b0 f8 ff ff 	mov    %rax,-0x750(%rbp)
    b56e:	48 8d 05 03 10 01 00 	lea    0x11003(%rip),%rax        # 1c578 <g_1726+0x18>
    b575:	48 89 85 b8 f8 ff ff 	mov    %rax,-0x748(%rbp)
    b57c:	48 8d 85 30 f5 ff ff 	lea    -0xad0(%rbp),%rax
    b583:	48 89 85 c0 f8 ff ff 	mov    %rax,-0x740(%rbp)
    b58a:	48 8d 85 30 f5 ff ff 	lea    -0xad0(%rbp),%rax
    b591:	48 89 85 c8 f8 ff ff 	mov    %rax,-0x738(%rbp)
    b598:	48 8d 85 30 f5 ff ff 	lea    -0xad0(%rbp),%rax
    b59f:	48 89 85 d0 f8 ff ff 	mov    %rax,-0x730(%rbp)
    b5a6:	48 8d 85 30 f5 ff ff 	lea    -0xad0(%rbp),%rax
    b5ad:	48 89 85 d8 f8 ff ff 	mov    %rax,-0x728(%rbp)
    b5b4:	48 8d 85 30 f5 ff ff 	lea    -0xad0(%rbp),%rax
    b5bb:	48 89 85 e0 f8 ff ff 	mov    %rax,-0x720(%rbp)
    b5c2:	48 8d 85 30 f5 ff ff 	lea    -0xad0(%rbp),%rax
    b5c9:	48 89 85 e8 f8 ff ff 	mov    %rax,-0x718(%rbp)
    b5d0:	48 8d 05 a1 0f 01 00 	lea    0x10fa1(%rip),%rax        # 1c578 <g_1726+0x18>
    b5d7:	48 89 85 f0 f8 ff ff 	mov    %rax,-0x710(%rbp)
    b5de:	48 8d 05 93 0f 01 00 	lea    0x10f93(%rip),%rax        # 1c578 <g_1726+0x18>
    b5e5:	48 89 85 f8 f8 ff ff 	mov    %rax,-0x708(%rbp)
    b5ec:	48 8d 85 30 f5 ff ff 	lea    -0xad0(%rbp),%rax
    b5f3:	48 89 85 00 f9 ff ff 	mov    %rax,-0x700(%rbp)
    b5fa:	48 8d 85 30 f5 ff ff 	lea    -0xad0(%rbp),%rax
    b601:	48 89 85 08 f9 ff ff 	mov    %rax,-0x6f8(%rbp)
    b608:	48 8d 85 30 f5 ff ff 	lea    -0xad0(%rbp),%rax
    b60f:	48 89 85 10 f9 ff ff 	mov    %rax,-0x6f0(%rbp)
    b616:	48 8d 85 30 f5 ff ff 	lea    -0xad0(%rbp),%rax
    b61d:	48 89 85 18 f9 ff ff 	mov    %rax,-0x6e8(%rbp)
    b624:	48 8d 85 30 f5 ff ff 	lea    -0xad0(%rbp),%rax
    b62b:	48 89 85 20 f9 ff ff 	mov    %rax,-0x6e0(%rbp)
    b632:	48 8d 85 30 f5 ff ff 	lea    -0xad0(%rbp),%rax
    b639:	48 89 85 28 f9 ff ff 	mov    %rax,-0x6d8(%rbp)
    b640:	48 8d 05 31 0f 01 00 	lea    0x10f31(%rip),%rax        # 1c578 <g_1726+0x18>
    b647:	48 89 85 30 f9 ff ff 	mov    %rax,-0x6d0(%rbp)
    b64e:	48 8d 05 23 0f 01 00 	lea    0x10f23(%rip),%rax        # 1c578 <g_1726+0x18>
    b655:	48 89 85 38 f9 ff ff 	mov    %rax,-0x6c8(%rbp)
    b65c:	48 8d 05 c5 b9 00 00 	lea    0xb9c5(%rip),%rax        # 17028 <g_29>
    b663:	48 89 85 90 f5 ff ff 	mov    %rax,-0xa70(%rbp)
    b66a:	48 8d 05 cb bb 00 00 	lea    0xbbcb(%rip),%rax        # 1723c <g_90>
    b671:	48 89 85 98 f5 ff ff 	mov    %rax,-0xa68(%rbp)
    b678:	48 c7 85 a0 f5 ff ff 	movq   $0x0,-0xa60(%rbp)
    b67f:	00 00 00 00 
    b683:	48 c7 85 c0 f6 ff ff 	movq   $0x0,-0x940(%rbp)
    b68a:	00 00 00 00 
    b68e:	48 c7 85 c8 f6 ff ff 	movq   $0x0,-0x938(%rbp)
    b695:	00 00 00 00 
    b699:	48 c7 85 d0 f6 ff ff 	movq   $0x0,-0x930(%rbp)
    b6a0:	00 00 00 00 
    b6a4:	48 c7 85 d8 f6 ff ff 	movq   $0x0,-0x928(%rbp)
    b6ab:	00 00 00 00 
    b6af:	48 c7 85 e0 f6 ff ff 	movq   $0x0,-0x920(%rbp)
    b6b6:	00 00 00 00 
    b6ba:	48 c7 85 e8 f6 ff ff 	movq   $0x0,-0x918(%rbp)
    b6c1:	00 00 00 00 
    b6c5:	48 c7 85 f0 f6 ff ff 	movq   $0x0,-0x910(%rbp)
    b6cc:	00 00 00 00 
    b6d0:	48 c7 85 f8 f6 ff ff 	movq   $0x0,-0x908(%rbp)
    b6d7:	00 00 00 00 
    b6db:	48 c7 85 00 f7 ff ff 	movq   $0x0,-0x900(%rbp)
    b6e2:	00 00 00 00 
    b6e6:	48 b8 cf bd cc af 31 	movabs $0xd7f68531afccbdcf,%rax
    b6ed:	85 f6 d7 
    b6f0:	48 89 85 a8 f5 ff ff 	mov    %rax,-0xa58(%rbp)
    b6f7:	48 8d 05 aa bd 00 00 	lea    0xbdaa(%rip),%rax        # 174a8 <g_969>
    b6fe:	48 89 85 b0 f5 ff ff 	mov    %rax,-0xa50(%rbp)
    b705:	8b 85 ac f4 ff ff    	mov    -0xb54(%rbp),%eax
    b70b:	0f be d8             	movsbl %al,%ebx
    b70e:	48 8b 85 f0 f9 ff ff 	mov    -0x610(%rbp),%rax
    b715:	48 85 c0             	test   %rax,%rax
    b718:	0f 84 92 00 00 00    	je     b7b0 <func_14+0x10b1>
    b71e:	8b 85 6c f4 ff ff    	mov    -0xb94(%rbp),%eax
    b724:	89 c6                	mov    %eax,%esi
    b726:	bf ab 00 00 00       	mov    $0xab,%edi
    b72b:	e8 8e d5 ff ff       	callq  8cbe <safe_rshift_func_uint8_t_u_u>
    b730:	0f b6 c0             	movzbl %al,%eax
    b733:	48 89 c7             	mov    %rax,%rdi
    b736:	e8 db d0 ff ff       	callq  8816 <safe_unary_minus_func_int64_t_s>
    b73b:	41 89 c4             	mov    %eax,%r12d
    b73e:	48 8b 05 c3 f9 00 00 	mov    0xf9c3(%rip),%rax        # 1b108 <g_1725>
    b745:	48 8b 10             	mov    (%rax),%rdx
    b748:	48 c7 05 cd 02 01 00 	movq   $0x0,0x102cd(%rip)        # 1ba20 <g_3503>
    b74f:	00 00 00 00 
    b753:	48 8b 05 c6 02 01 00 	mov    0x102c6(%rip),%rax        # 1ba20 <g_3503>
    b75a:	48 39 c2             	cmp    %rax,%rdx
    b75d:	0f 94 c2             	sete   %dl
    b760:	48 8b 05 49 f8 00 00 	mov    0xf849(%rip),%rax        # 1afb0 <g_507>
    b767:	48 8b 00             	mov    (%rax),%rax
    b76a:	0f b6 d2             	movzbl %dl,%edx
    b76d:	66 89 10             	mov    %dx,(%rax)
    b770:	0f b7 00             	movzwl (%rax),%eax
    b773:	98                   	cwtl   
    b774:	89 c7                	mov    %eax,%edi
    b776:	e8 22 cc ff ff       	callq  839d <safe_unary_minus_func_int16_t_s>
    b77b:	98                   	cwtl   
    b77c:	44 89 e6             	mov    %r12d,%esi
    b77f:	89 c7                	mov    %eax,%edi
    b781:	e8 0c cd ff ff       	callq  8492 <safe_lshift_func_int16_t_s_s>
    b786:	0f be c0             	movsbl %al,%eax
    b789:	be 03 00 00 00       	mov    $0x3,%esi
    b78e:	89 c7                	mov    %eax,%edi
    b790:	e8 0c cb ff ff       	callq  82a1 <safe_lshift_func_int8_t_s_s>
    b795:	0f be c0             	movsbl %al,%eax
    b798:	89 c6                	mov    %eax,%esi
    b79a:	bf 01 00 00 00       	mov    $0x1,%edi
    b79f:	e8 51 cc ff ff       	callq  83f5 <safe_mul_func_int16_t_s_s>
    b7a4:	66 85 c0             	test   %ax,%ax
    b7a7:	74 07                	je     b7b0 <func_14+0x10b1>
    b7a9:	b8 01 00 00 00       	mov    $0x1,%eax
    b7ae:	eb 05                	jmp    b7b5 <func_14+0x10b6>
    b7b0:	b8 00 00 00 00       	mov    $0x0,%eax
    b7b5:	0f be c0             	movsbl %al,%eax
    b7b8:	89 de                	mov    %ebx,%esi
    b7ba:	89 c7                	mov    %eax,%edi
    b7bc:	e8 31 ca ff ff       	callq  81f2 <safe_sub_func_int8_t_s_s>
    b7c1:	84 c0                	test   %al,%al
    b7c3:	0f 94 c0             	sete   %al
    b7c6:	0f b6 c0             	movzbl %al,%eax
    b7c9:	09 85 9c f4 ff ff    	or     %eax,-0xb64(%rbp)
    b7cf:	c6 05 aa bf 00 00 00 	movb   $0x0,0xbfaa(%rip)        # 17780 <g_2200>
    b7d6:	eb 26                	jmp    b7fe <func_14+0x10ff>
    b7d8:	0f b6 05 a1 bf 00 00 	movzbl 0xbfa1(%rip),%eax        # 17780 <g_2200>
    b7df:	0f be c0             	movsbl %al,%eax
    b7e2:	48 98                	cltq   
    b7e4:	66 c7 84 45 de f5 ff 	movw   $0x5,-0xa22(%rbp,%rax,2)
    b7eb:	ff 05 00 
    b7ee:	0f b6 05 8b bf 00 00 	movzbl 0xbf8b(%rip),%eax        # 17780 <g_2200>
    b7f5:	83 c0 01             	add    $0x1,%eax
    b7f8:	88 05 82 bf 00 00    	mov    %al,0xbf82(%rip)        # 17780 <g_2200>
    b7fe:	0f b6 05 7b bf 00 00 	movzbl 0xbf7b(%rip),%eax        # 17780 <g_2200>
    b805:	3c 02                	cmp    $0x2,%al
    b807:	7e cf                	jle    b7d8 <func_14+0x10d9>
    b809:	48 83 ad a8 f5 ff ff 	subq   $0x1,-0xa58(%rbp)
    b810:	01 
    b811:	48 8b 85 50 f5 ff ff 	mov    -0xab0(%rbp),%rax
    b818:	48 8b 00             	mov    (%rax),%rax
    b81b:	48 8b 95 b0 f5 ff ff 	mov    -0xa50(%rbp),%rdx
    b822:	48 89 10             	mov    %rdx,(%rax)
    b825:	0f b6 9d 7c f4 ff ff 	movzbl -0xb84(%rbp),%ebx
    b82c:	0f b7 85 8e f4 ff ff 	movzwl -0xb72(%rbp),%eax
    b833:	44 0f be e8          	movsbl %al,%r13d
    b837:	8b 85 64 fb ff ff    	mov    -0x49c(%rbp),%eax
    b83d:	44 0f b7 e0          	movzwl %ax,%r12d
    b841:	44 0f b6 b5 7c f4 ff 	movzbl -0xb84(%rbp),%r14d
    b848:	ff 
    b849:	44 8b bd a4 fb ff ff 	mov    -0x45c(%rbp),%r15d
    b850:	48 8d 05 a1 f8 00 00 	lea    0xf8a1(%rip),%rax        # 1b0f8 <g_1698>
    b857:	48 89 85 78 f5 ff ff 	mov    %rax,-0xa88(%rbp)
    b85e:	48 8b 85 80 f5 ff ff 	mov    -0xa80(%rbp),%rax
    b865:	48 8d 15 8c f8 00 00 	lea    0xf88c(%rip),%rdx        # 1b0f8 <g_1698>
    b86c:	48 89 10             	mov    %rdx,(%rax)
    b86f:	48 8b 85 80 f5 ff ff 	mov    -0xa80(%rbp),%rax
    b876:	48 8b 00             	mov    (%rax),%rax
    b879:	48 8d 15 78 f8 00 00 	lea    0xf878(%rip),%rdx        # 1b0f8 <g_1698>
    b880:	48 39 d0             	cmp    %rdx,%rax
    b883:	0f 94 c2             	sete   %dl
    b886:	48 8b 05 b3 ee 00 00 	mov    0xeeb3(%rip),%rax        # 1a740 <g_126>
    b88d:	0f b6 d2             	movzbl %dl,%edx
    b890:	89 10                	mov    %edx,(%rax)
    b892:	48 8b 05 27 f7 00 00 	mov    0xf727(%rip),%rax        # 1afc0 <g_736>
    b899:	48 8b 10             	mov    (%rax),%rdx
    b89c:	48 8b 05 2d f8 00 00 	mov    0xf82d(%rip),%rax        # 1b0d0 <g_1420>
    b8a3:	48 8b 00             	mov    (%rax),%rax
    b8a6:	48 8b 12             	mov    (%rdx),%rdx
    b8a9:	48 89 10             	mov    %rdx,(%rax)
    b8ac:	48 8b 10             	mov    (%rax),%rdx
    b8af:	48 8b 85 30 f7 ff ff 	mov    -0x8d0(%rbp),%rax
    b8b6:	48 39 c2             	cmp    %rax,%rdx
    b8b9:	0f 94 c0             	sete   %al
    b8bc:	0f b6 c0             	movzbl %al,%eax
    b8bf:	39 85 6c f4 ff ff    	cmp    %eax,-0xb94(%rbp)
    b8c5:	0f 95 c0             	setne  %al
    b8c8:	0f b6 d0             	movzbl %al,%edx
    b8cb:	8b 85 f4 f5 ff ff    	mov    -0xa0c(%rbp),%eax
    b8d1:	98                   	cwtl   
    b8d2:	89 d6                	mov    %edx,%esi
    b8d4:	89 c7                	mov    %eax,%edi
    b8d6:	e8 1a cb ff ff       	callq  83f5 <safe_mul_func_int16_t_s_s>
    b8db:	be 05 00 00 00       	mov    $0x5,%esi
    b8e0:	bf 00 00 00 00       	mov    $0x0,%edi
    b8e5:	e8 d4 d3 ff ff       	callq  8cbe <safe_rshift_func_uint8_t_u_u>
    b8ea:	0f b6 85 7c f4 ff ff 	movzbl -0xb84(%rbp),%eax
    b8f1:	be aa c1 ff ff       	mov    $0xffffc1aa,%esi
    b8f6:	89 c7                	mov    %eax,%edi
    b8f8:	e8 58 cb ff ff       	callq  8455 <safe_div_func_int16_t_s_s>
    b8fd:	8b 85 f4 f5 ff ff    	mov    -0xa0c(%rbp),%eax
    b903:	98                   	cwtl   
    b904:	83 e0 01             	and    $0x1,%eax
    b907:	be 09 00 00 00       	mov    $0x9,%esi
    b90c:	89 c7                	mov    %eax,%edi
    b90e:	e8 7f cb ff ff       	callq  8492 <safe_lshift_func_int16_t_s_s>
    b913:	66 3d a2 00          	cmp    $0xa2,%ax
    b917:	0f 9f c0             	setg   %al
    b91a:	0f b6 c0             	movzbl %al,%eax
    b91d:	41 39 c7             	cmp    %eax,%r15d
    b920:	0f 95 c0             	setne  %al
    b923:	0f b6 c0             	movzbl %al,%eax
    b926:	44 89 f6             	mov    %r14d,%esi
    b929:	89 c7                	mov    %eax,%edi
    b92b:	e8 2a d2 ff ff       	callq  8b5a <safe_add_func_uint8_t_u_u>
    b930:	0f b6 d0             	movzbl %al,%edx
    b933:	0f be 85 78 f4 ff ff 	movsbl -0xb88(%rbp),%eax
    b93a:	21 c2                	and    %eax,%edx
    b93c:	0f be 85 8a f4 ff ff 	movsbl -0xb76(%rbp),%eax
    b943:	89 d6                	mov    %edx,%esi
    b945:	89 c7                	mov    %eax,%edi
    b947:	e8 6a cc ff ff       	callq  85b6 <safe_add_func_int32_t_s_s>
    b94c:	48 63 d0             	movslq %eax,%rdx
    b94f:	8b 85 14 fe ff ff    	mov    -0x1ec(%rbp),%eax
    b955:	48 98                	cltq   
    b957:	48 89 d6             	mov    %rdx,%rsi
    b95a:	48 89 c7             	mov    %rax,%rdi
    b95d:	e8 4d d7 ff ff       	callq  90af <safe_div_func_uint64_t_u_u>
    b962:	88 85 89 f4 ff ff    	mov    %al,-0xb77(%rbp)
    b968:	44 89 ea             	mov    %r13d,%edx
    b96b:	44 89 e6             	mov    %r12d,%esi
    b96e:	bf 00 00 00 00       	mov    $0x0,%edi
    b973:	e8 1f 09 00 00       	callq  c297 <func_41>
    b978:	4c 8b 25 a9 f6 00 00 	mov    0xf6a9(%rip),%r12        # 1b028 <g_1091>
    b97f:	89 de                	mov    %ebx,%esi
    b981:	48 89 c7             	mov    %rax,%rdi
    b984:	e8 1b 07 00 00       	callq  c0a4 <func_30>
    b989:	49 89 04 24          	mov    %rax,(%r12)
    b98d:	c6 05 34 c9 00 00 00 	movb   $0x0,0xc934(%rip)        # 182c8 <g_3272>
    b994:	e9 1d 05 00 00       	jmpq   beb6 <func_14+0x17b7>
    b999:	48 b8 52 f1 d5 ff 9f 	movabs $0x55cfad9fffd5f152,%rax
    b9a0:	ad cf 55 
    b9a3:	48 89 85 c0 f5 ff ff 	mov    %rax,-0xa40(%rbp)
    b9aa:	c7 85 b4 f4 ff ff 01 	movl   $0x1,-0xb4c(%rbp)
    b9b1:	00 00 00 
    b9b4:	c6 05 21 ba 00 00 14 	movb   $0x14,0xba21(%rip)        # 173dc <g_283>
    b9bb:	e9 b5 03 00 00       	jmpq   bd75 <func_14+0x1676>
    b9c0:	48 8d 85 f8 f4 ff ff 	lea    -0xb08(%rbp),%rax
    b9c7:	48 89 85 40 f9 ff ff 	mov    %rax,-0x6c0(%rbp)
    b9ce:	48 c7 85 48 f9 ff ff 	movq   $0x0,-0x6b8(%rbp)
    b9d5:	00 00 00 00 
    b9d9:	48 8d 85 f8 f4 ff ff 	lea    -0xb08(%rbp),%rax
    b9e0:	48 89 85 50 f9 ff ff 	mov    %rax,-0x6b0(%rbp)
    b9e7:	48 c7 85 58 f9 ff ff 	movq   $0x0,-0x6a8(%rbp)
    b9ee:	00 00 00 00 
    b9f2:	48 8d 85 f8 f4 ff ff 	lea    -0xb08(%rbp),%rax
    b9f9:	48 89 85 60 f9 ff ff 	mov    %rax,-0x6a0(%rbp)
    ba00:	48 c7 85 68 f9 ff ff 	movq   $0x0,-0x698(%rbp)
    ba07:	00 00 00 00 
    ba0b:	48 8d 85 f8 f4 ff ff 	lea    -0xb08(%rbp),%rax
    ba12:	48 89 85 70 f9 ff ff 	mov    %rax,-0x690(%rbp)
    ba19:	48 c7 85 78 f9 ff ff 	movq   $0x0,-0x688(%rbp)
    ba20:	00 00 00 00 
    ba24:	48 8d 85 f8 f4 ff ff 	lea    -0xb08(%rbp),%rax
    ba2b:	48 89 85 80 f9 ff ff 	mov    %rax,-0x680(%rbp)
    ba32:	48 c7 85 88 f9 ff ff 	movq   $0x0,-0x678(%rbp)
    ba39:	00 00 00 00 
    ba3d:	48 8d 85 f8 f4 ff ff 	lea    -0xb08(%rbp),%rax
    ba44:	48 89 85 90 f9 ff ff 	mov    %rax,-0x670(%rbp)
    ba4b:	48 c7 85 98 f9 ff ff 	movq   $0x0,-0x668(%rbp)
    ba52:	00 00 00 00 
    ba56:	48 8d 85 f8 f4 ff ff 	lea    -0xb08(%rbp),%rax
    ba5d:	48 89 85 a0 f9 ff ff 	mov    %rax,-0x660(%rbp)
    ba64:	48 c7 85 a8 f9 ff ff 	movq   $0x0,-0x658(%rbp)
    ba6b:	00 00 00 00 
    ba6f:	48 8d 85 f8 f4 ff ff 	lea    -0xb08(%rbp),%rax
    ba76:	48 89 85 b0 f9 ff ff 	mov    %rax,-0x650(%rbp)
    ba7d:	48 c7 85 b8 f9 ff ff 	movq   $0x0,-0x648(%rbp)
    ba84:	00 00 00 00 
    ba88:	48 8d 85 f8 f4 ff ff 	lea    -0xb08(%rbp),%rax
    ba8f:	48 89 85 c0 f9 ff ff 	mov    %rax,-0x640(%rbp)
    ba96:	48 c7 85 c8 f9 ff ff 	movq   $0x0,-0x638(%rbp)
    ba9d:	00 00 00 00 
    baa1:	48 8d 85 f8 f4 ff ff 	lea    -0xb08(%rbp),%rax
    baa8:	48 89 85 d0 f9 ff ff 	mov    %rax,-0x630(%rbp)
    baaf:	48 c7 85 d8 f9 ff ff 	movq   $0x0,-0x628(%rbp)
    bab6:	00 00 00 00 
    baba:	48 8d 85 f8 f4 ff ff 	lea    -0xb08(%rbp),%rax
    bac1:	48 89 85 e0 f9 ff ff 	mov    %rax,-0x620(%rbp)
    bac8:	48 c7 85 e8 f9 ff ff 	movq   $0x0,-0x618(%rbp)
    bacf:	00 00 00 00 
    bad3:	48 8d 85 f8 f4 ff ff 	lea    -0xb08(%rbp),%rax
    bada:	48 89 85 f0 f9 ff ff 	mov    %rax,-0x610(%rbp)
    bae1:	48 c7 85 f8 f9 ff ff 	movq   $0x0,-0x608(%rbp)
    bae8:	00 00 00 00 
    baec:	c7 85 b8 f4 ff ff a2 	movl   $0xc73d70a2,-0xb48(%rbp)
    baf3:	70 3d c7 
    baf6:	c7 85 bc f4 ff ff 15 	movl   $0x24995615,-0xb44(%rbp)
    bafd:	56 99 24 
    bb00:	48 8d 05 01 c0 00 00 	lea    0xc001(%rip),%rax        # 17b08 <g_2886>
    bb07:	48 89 85 c8 f5 ff ff 	mov    %rax,-0xa38(%rbp)
    bb0e:	48 8d 85 90 f4 ff ff 	lea    -0xb70(%rbp),%rax
    bb15:	48 89 85 40 f8 ff ff 	mov    %rax,-0x7c0(%rbp)
    bb1c:	48 8d 85 90 f4 ff ff 	lea    -0xb70(%rbp),%rax
    bb23:	48 89 85 48 f8 ff ff 	mov    %rax,-0x7b8(%rbp)
    bb2a:	48 8d 05 77 b9 00 00 	lea    0xb977(%rip),%rax        # 174a8 <g_969>
    bb31:	48 89 85 50 f8 ff ff 	mov    %rax,-0x7b0(%rbp)
    bb38:	48 8d 85 90 f4 ff ff 	lea    -0xb70(%rbp),%rax
    bb3f:	48 89 85 58 f8 ff ff 	mov    %rax,-0x7a8(%rbp)
    bb46:	48 8d 85 90 f4 ff ff 	lea    -0xb70(%rbp),%rax
    bb4d:	48 89 85 60 f8 ff ff 	mov    %rax,-0x7a0(%rbp)
    bb54:	48 8d 05 4d b9 00 00 	lea    0xb94d(%rip),%rax        # 174a8 <g_969>
    bb5b:	48 89 85 68 f8 ff ff 	mov    %rax,-0x798(%rbp)
    bb62:	48 8d 85 90 f4 ff ff 	lea    -0xb70(%rbp),%rax
    bb69:	48 89 85 70 f8 ff ff 	mov    %rax,-0x790(%rbp)
    bb70:	48 8d 85 90 f4 ff ff 	lea    -0xb70(%rbp),%rax
    bb77:	48 89 85 78 f8 ff ff 	mov    %rax,-0x788(%rbp)
    bb7e:	48 8d 05 23 b9 00 00 	lea    0xb923(%rip),%rax        # 174a8 <g_969>
    bb85:	48 89 85 80 f8 ff ff 	mov    %rax,-0x780(%rbp)
    bb8c:	0f b7 85 8c f4 ff ff 	movzwl -0xb74(%rbp),%eax
    bb93:	0f be d8             	movsbl %al,%ebx
    bb96:	48 8b 85 18 f5 ff ff 	mov    -0xae8(%rbp),%rax
    bb9d:	48 8b 00             	mov    (%rax),%rax
    bba0:	48 8b 00             	mov    (%rax),%rax
    bba3:	8b 10                	mov    (%rax),%edx
    bba5:	83 ea 01             	sub    $0x1,%edx
    bba8:	89 10                	mov    %edx,(%rax)
    bbaa:	0f b6 85 78 f4 ff ff 	movzbl -0xb88(%rbp),%eax
    bbb1:	44 0f b6 e0          	movzbl %al,%r12d
    bbb5:	66 0f be 85 78 f4 ff 	movsbw -0xb88(%rbp),%ax
    bbbc:	ff 
    bbbd:	44 0f b7 e8          	movzwl %ax,%r13d
    bbc1:	48 8b 05 80 eb 00 00 	mov    0xeb80(%rip),%rax        # 1a748 <g_165>
    bbc8:	0f b7 10             	movzwl (%rax),%edx
    bbcb:	83 c2 01             	add    $0x1,%edx
    bbce:	66 89 10             	mov    %dx,(%rax)
    bbd1:	0f b7 00             	movzwl (%rax),%eax
    bbd4:	66 85 c0             	test   %ax,%ax
    bbd7:	0f 95 c0             	setne  %al
    bbda:	0f b6 d0             	movzbl %al,%edx
    bbdd:	48 8b 85 f8 f4 ff ff 	mov    -0xb08(%rbp),%rax
    bbe4:	48 89 05 45 fe 00 00 	mov    %rax,0xfe45(%rip)        # 1ba30 <g_3572>
    bbeb:	48 8b 0d 3e fe 00 00 	mov    0xfe3e(%rip),%rcx        # 1ba30 <g_3572>
    bbf2:	48 8b 85 38 f5 ff ff 	mov    -0xac8(%rbp),%rax
    bbf9:	48 8b 00             	mov    (%rax),%rax
    bbfc:	48 39 c1             	cmp    %rax,%rcx
    bbff:	0f 94 c0             	sete   %al
    bc02:	0f b6 c0             	movzbl %al,%eax
    bc05:	89 d6                	mov    %edx,%esi
    bc07:	89 c7                	mov    %eax,%edi
    bc09:	e8 04 c6 ff ff       	callq  8212 <safe_mul_func_int8_t_s_s>
    bc0e:	89 c2                	mov    %eax,%edx
    bc10:	48 8b 05 e9 f4 00 00 	mov    0xf4e9(%rip),%rax        # 1b100 <g_1727>
    bc17:	48 0f be d2          	movsbq %dl,%rdx
    bc1b:	48 89 10             	mov    %rdx,(%rax)
    bc1e:	48 8b 00             	mov    (%rax),%rax
    bc21:	48 85 c0             	test   %rax,%rax
    bc24:	74 07                	je     bc2d <func_14+0x152e>
    bc26:	80 bd 7c f4 ff ff 00 	cmpb   $0x0,-0xb84(%rbp)
    bc2d:	0f b7 95 8c f4 ff ff 	movzwl -0xb74(%rbp),%edx
    bc34:	48 8b 05 f5 fd 00 00 	mov    0xfdf5(%rip),%rax        # 1ba30 <g_3572>
    bc3b:	48 8b 00             	mov    (%rax),%rax
    bc3e:	48 8b 00             	mov    (%rax),%rax
    bc41:	48 31 c2             	xor    %rax,%rdx
    bc44:	48 8b 05 ed f3 00 00 	mov    0xf3ed(%rip),%rax        # 1b038 <g_1175>
    bc4b:	48 8b 00             	mov    (%rax),%rax
    bc4e:	48 8b 00             	mov    (%rax),%rax
    bc51:	0f b6 85 7c f4 ff ff 	movzbl -0xb84(%rbp),%eax
    bc58:	48 89 d6             	mov    %rdx,%rsi
    bc5b:	48 89 c7             	mov    %rax,%rdi
    bc5e:	e8 e8 d3 ff ff       	callq  904b <safe_sub_func_uint64_t_u_u>
    bc63:	f7 d0                	not    %eax
    bc65:	89 c2                	mov    %eax,%edx
    bc67:	48 8b 85 c8 f5 ff ff 	mov    -0xa38(%rbp),%rax
    bc6e:	89 10                	mov    %edx,(%rax)
    bc70:	48 8b 85 c8 f5 ff ff 	mov    -0xa38(%rbp),%rax
    bc77:	8b 00                	mov    (%rax),%eax
    bc79:	8b 95 6c f4 ff ff    	mov    -0xb94(%rbp),%edx
    bc7f:	89 d6                	mov    %edx,%esi
    bc81:	89 c7                	mov    %eax,%edi
    bc83:	e8 44 ca ff ff       	callq  86cc <safe_mod_func_int32_t_s_s>
    bc88:	0f b7 d0             	movzwl %ax,%edx
    bc8b:	8b 85 6c f4 ff ff    	mov    -0xb94(%rbp),%eax
    bc91:	0f b7 c0             	movzwl %ax,%eax
    bc94:	89 d6                	mov    %edx,%esi
    bc96:	89 c7                	mov    %eax,%edi
    bc98:	e8 62 d0 ff ff       	callq  8cff <safe_add_func_uint16_t_u_u>
    bc9d:	0f b7 d0             	movzwl %ax,%edx
    bca0:	48 8b 05 19 f7 00 00 	mov    0xf719(%rip),%rax        # 1b3c0 <g_2225>
    bca7:	48 8b 00             	mov    (%rax),%rax
    bcaa:	48 8b 00             	mov    (%rax),%rax
    bcad:	48 8b 00             	mov    (%rax),%rax
    bcb0:	0f b7 00             	movzwl (%rax),%eax
    bcb3:	98                   	cwtl   
    bcb4:	39 c2                	cmp    %eax,%edx
    bcb6:	0f 9e c0             	setle  %al
    bcb9:	0f b6 c0             	movzbl %al,%eax
    bcbc:	44 89 ee             	mov    %r13d,%esi
    bcbf:	89 c7                	mov    %eax,%edi
    bcc1:	e8 59 d0 ff ff       	callq  8d1f <safe_sub_func_uint16_t_u_u>
    bcc6:	44 89 e6             	mov    %r12d,%esi
    bcc9:	bf 00 00 00 00       	mov    $0x0,%edi
    bcce:	e8 db ce ff ff       	callq  8bae <safe_mod_func_uint8_t_u_u>
    bcd3:	80 bd 7c f4 ff ff 00 	cmpb   $0x0,-0xb84(%rbp)
    bcda:	74 10                	je     bcec <func_14+0x15ed>
    bcdc:	83 bd 6c f4 ff ff 00 	cmpl   $0x0,-0xb94(%rbp)
    bce3:	74 07                	je     bcec <func_14+0x15ed>
    bce5:	b8 01 00 00 00       	mov    $0x1,%eax
    bcea:	eb 05                	jmp    bcf1 <func_14+0x15f2>
    bcec:	b8 00 00 00 00       	mov    $0x0,%eax
    bcf1:	48 98                	cltq   
    bcf3:	be 01 00 00 00       	mov    $0x1,%esi
    bcf8:	48 89 c7             	mov    %rax,%rdi
    bcfb:	e8 4b d3 ff ff       	callq  904b <safe_sub_func_uint64_t_u_u>
    bd00:	b8 01 00 00 00       	mov    $0x1,%eax
    bd05:	0f be c0             	movsbl %al,%eax
    bd08:	89 de                	mov    %ebx,%esi
    bd0a:	89 c7                	mov    %eax,%edi
    bd0c:	e8 20 c5 ff ff       	callq  8231 <safe_mod_func_int8_t_s_s>
    bd11:	c7 85 40 fb ff ff 00 	movl   $0xf3f61e00,-0x4c0(%rbp)
    bd18:	1e f6 f3 
    bd1b:	8b 85 40 fb ff ff    	mov    -0x4c0(%rbp),%eax
    bd21:	48 98                	cltq   
    bd23:	48 ba 4e c7 b8 db 1d 	movabs $0xc197c91ddbb8c74e,%rdx
    bd2a:	c9 97 c1 
    bd2d:	48 31 d0             	xor    %rdx,%rax
    bd30:	89 c2                	mov    %eax,%edx
    bd32:	8b 85 94 f4 ff ff    	mov    -0xb6c(%rbp),%eax
    bd38:	31 d0                	xor    %edx,%eax
    bd3a:	89 85 94 f4 ff ff    	mov    %eax,-0xb6c(%rbp)
    bd40:	0f b7 85 ee f5 ff ff 	movzwl -0xa12(%rbp),%eax
    bd47:	66 85 c0             	test   %ax,%ax
    bd4a:	75 3a                	jne    bd86 <func_14+0x1687>
    bd4c:	48 8b 85 c8 f5 ff ff 	mov    -0xa38(%rbp),%rax
    bd53:	c7 00 09 da d1 15    	movl   $0x15d1da09,(%rax)
    bd59:	0f b6 05 7c b6 00 00 	movzbl 0xb67c(%rip),%eax        # 173dc <g_283>
    bd60:	0f b6 c0             	movzbl %al,%eax
    bd63:	be 01 00 00 00       	mov    $0x1,%esi
    bd68:	89 c7                	mov    %eax,%edi
    bd6a:	e8 90 cf ff ff       	callq  8cff <safe_add_func_uint16_t_u_u>
    bd6f:	88 05 67 b6 00 00    	mov    %al,0xb667(%rip)        # 173dc <g_283>
    bd75:	0f b6 05 60 b6 00 00 	movzbl 0xb660(%rip),%eax        # 173dc <g_283>
    bd7c:	3c 2f                	cmp    $0x2f,%al
    bd7e:	0f 87 3c fc ff ff    	ja     b9c0 <func_14+0x12c1>
    bd84:	eb 01                	jmp    bd87 <func_14+0x1688>
    bd86:	90                   	nop
    bd87:	c6 05 42 bd 00 00 ef 	movb   $0xef,0xbd42(%rip)        # 17ad0 <g_2771>
    bd8e:	e9 84 00 00 00       	jmpq   be17 <func_14+0x1718>
    bd93:	48 8d 85 e4 f5 ff ff 	lea    -0xa1c(%rbp),%rax
    bd9a:	48 83 c0 04          	add    $0x4,%rax
    bd9e:	48 89 85 d0 f5 ff ff 	mov    %rax,-0xa30(%rbp)
    bda5:	48 8b 85 d0 f5 ff ff 	mov    -0xa30(%rbp),%rax
    bdac:	8b 00                	mov    (%rax),%eax
    bdae:	0d 9e c4 40 a3       	or     $0xa340c49e,%eax
    bdb3:	89 c2                	mov    %eax,%edx
    bdb5:	48 8b 85 d0 f5 ff ff 	mov    -0xa30(%rbp),%rax
    bdbc:	89 10                	mov    %edx,(%rax)
    bdbe:	48 8b 05 db 07 01 00 	mov    0x107db(%rip),%rax        # 1c5a0 <g_3585>
    bdc5:	48 89 85 00 f5 ff ff 	mov    %rax,-0xb00(%rbp)
    bdcc:	48 8b 05 4d f2 00 00 	mov    0xf24d(%rip),%rax        # 1b020 <g_1089>
    bdd3:	48 c7 00 00 00 00 00 	movq   $0x0,(%rax)
    bdda:	0f b6 85 29 f6 ff ff 	movzbl -0x9d7(%rbp),%eax
    bde1:	0f b6 c0             	movzbl %al,%eax
    bde4:	be 03 00 00 00       	mov    $0x3,%esi
    bde9:	89 c7                	mov    %eax,%edi
    bdeb:	e8 5c ce ff ff       	callq  8c4c <safe_lshift_func_uint8_t_u_u>
    bdf0:	48 8b 95 d0 f5 ff ff 	mov    -0xa30(%rbp),%rdx
    bdf7:	8b 12                	mov    (%rdx),%edx
    bdf9:	0f b6 c0             	movzbl %al,%eax
    bdfc:	09 c2                	or     %eax,%edx
    bdfe:	48 8b 85 d0 f5 ff ff 	mov    -0xa30(%rbp),%rax
    be05:	89 10                	mov    %edx,(%rax)
    be07:	0f b6 05 c2 bc 00 00 	movzbl 0xbcc2(%rip),%eax        # 17ad0 <g_2771>
    be0e:	83 c0 01             	add    $0x1,%eax
    be11:	88 05 b9 bc 00 00    	mov    %al,0xbcb9(%rip)        # 17ad0 <g_2771>
    be17:	0f b6 05 b2 bc 00 00 	movzbl 0xbcb2(%rip),%eax        # 17ad0 <g_2771>
    be1e:	3c 08                	cmp    $0x8,%al
    be20:	0f 85 6d ff ff ff    	jne    bd93 <func_14+0x1694>
    be26:	48 8b 05 1b e9 00 00 	mov    0xe91b(%rip),%rax        # 1a748 <g_165>
    be2d:	8b 95 9c f4 ff ff    	mov    -0xb64(%rbp),%edx
    be33:	66 89 10             	mov    %dx,(%rax)
    be36:	0f b7 00             	movzwl (%rax),%eax
    be39:	0f b7 c0             	movzwl %ax,%eax
    be3c:	be 0a 00 00 00       	mov    $0xa,%esi
    be41:	89 c7                	mov    %eax,%edi
    be43:	e8 be cf ff ff       	callq  8e06 <safe_lshift_func_uint16_t_u_u>
    be48:	48 8b 05 b1 07 01 00 	mov    0x107b1(%rip),%rax        # 1c600 <g_3597>
    be4f:	48 89 05 aa 07 01 00 	mov    %rax,0x107aa(%rip)        # 1c600 <g_3597>
    be56:	48 8b 05 a3 07 01 00 	mov    0x107a3(%rip),%rax        # 1c600 <g_3597>
    be5d:	48 39 85 88 f5 ff ff 	cmp    %rax,-0xa78(%rbp)
    be64:	8b 85 14 fe ff ff    	mov    -0x1ec(%rbp),%eax
    be6a:	0c ff                	or     $0xff,%al
    be6c:	89 85 14 fe ff ff    	mov    %eax,-0x1ec(%rbp)
    be72:	8b 85 14 fe ff ff    	mov    -0x1ec(%rbp),%eax
    be78:	85 c0                	test   %eax,%eax
    be7a:	48 c7 c2 ff ff ff ff 	mov    $0xffffffffffffffff,%rdx
    be81:	8b 85 fc f5 ff ff    	mov    -0xa04(%rbp),%eax
    be87:	09 d0                	or     %edx,%eax
    be89:	89 85 fc f5 ff ff    	mov    %eax,-0xa04(%rbp)
    be8f:	48 8b 85 70 f4 ff ff 	mov    -0xb90(%rbp),%rax
    be96:	8b 00                	mov    (%rax),%eax
    be98:	85 c0                	test   %eax,%eax
    be9a:	0f b6 05 27 c4 00 00 	movzbl 0xc427(%rip),%eax        # 182c8 <g_3272>
    bea1:	0f b6 c0             	movzbl %al,%eax
    bea4:	be 08 00 00 00       	mov    $0x8,%esi
    bea9:	89 c7                	mov    %eax,%edi
    beab:	e8 aa cc ff ff       	callq  8b5a <safe_add_func_uint8_t_u_u>
    beb0:	88 05 12 c4 00 00    	mov    %al,0xc412(%rip)        # 182c8 <g_3272>
    beb6:	0f b6 05 0b c4 00 00 	movzbl 0xc40b(%rip),%eax        # 182c8 <g_3272>
    bebd:	3c 2a                	cmp    $0x2a,%al
    bebf:	0f 87 d4 fa ff ff    	ja     b999 <func_14+0x129a>
    bec5:	0f b6 85 78 f4 ff ff 	movzbl -0xb88(%rbp),%eax
    becc:	83 e8 01             	sub    $0x1,%eax
    becf:	88 85 78 f4 ff ff    	mov    %al,-0xb88(%rbp)
    bed5:	80 bd 78 f4 ff ff 00 	cmpb   $0x0,-0xb88(%rbp)
    bedc:	0f 89 cc ef ff ff    	jns    aeae <func_14+0x7af>
    bee2:	48 8b 95 f0 f4 ff ff 	mov    -0xb10(%rbp),%rdx
    bee9:	48 8b 85 70 f5 ff ff 	mov    -0xa90(%rbp),%rax
    bef0:	48 89 10             	mov    %rdx,(%rax)
    bef3:	c7 85 9c f4 ff ff 00 	movl   $0x0,-0xb64(%rbp)
    befa:	00 00 00 
    befd:	eb 49                	jmp    bf48 <func_14+0x1849>
    beff:	48 8b 15 12 b5 00 00 	mov    0xb512(%rip),%rdx        # 17418 <g_354>
    bf06:	8b 85 9c f4 ff ff    	mov    -0xb64(%rbp),%eax
    bf0c:	83 c0 02             	add    $0x2,%eax
    bf0f:	48 8b 35 02 b5 00 00 	mov    0xb502(%rip),%rsi        # 17418 <g_354>
    bf16:	48 63 c8             	movslq %eax,%rcx
    bf19:	48 89 d0             	mov    %rdx,%rax
    bf1c:	48 c1 e0 02          	shl    $0x2,%rax
    bf20:	48 01 d0             	add    %rdx,%rax
    bf23:	48 01 f0             	add    %rsi,%rax
    bf26:	48 01 c8             	add    %rcx,%rax
    bf29:	48 8d 14 c5 00 00 00 	lea    0x0(,%rax,8),%rdx
    bf30:	00 
    bf31:	48 8d 05 08 bb 00 00 	lea    0xbb08(%rip),%rax        # 17a40 <g_2375>
    bf38:	48 8b 04 02          	mov    (%rdx,%rax,1),%rax
    bf3c:	48 85 c0             	test   %rax,%rax
    bf3f:	75 12                	jne    bf53 <func_14+0x1854>
    bf41:	83 ad 9c f4 ff ff 01 	subl   $0x1,-0xb64(%rbp)
    bf48:	83 bd 9c f4 ff ff 00 	cmpl   $0x0,-0xb64(%rbp)
    bf4f:	79 ae                	jns    beff <func_14+0x1800>
    bf51:	eb 01                	jmp    bf54 <func_14+0x1855>
    bf53:	90                   	nop
    bf54:	0f b6 05 55 c3 00 00 	movzbl 0xc355(%rip),%eax        # 182b0 <g_3135>
    bf5b:	83 c0 01             	add    $0x1,%eax
    bf5e:	88 05 4c c3 00 00    	mov    %al,0xc34c(%rip)        # 182b0 <g_3135>
    bf64:	0f b6 05 45 c3 00 00 	movzbl 0xc345(%rip),%eax        # 182b0 <g_3135>
    bf6b:	84 c0                	test   %al,%al
    bf6d:	0f 8e 18 ee ff ff    	jle    ad8b <func_14+0x68c>
    bf73:	48 8b 05 9e b4 00 00 	mov    0xb49e(%rip),%rax        # 17418 <g_354>
    bf7a:	48 83 c0 01          	add    $0x1,%rax
    bf7e:	48 89 05 93 b4 00 00 	mov    %rax,0xb493(%rip)        # 17418 <g_354>
    bf85:	48 8b 05 8c b4 00 00 	mov    0xb48c(%rip),%rax        # 17418 <g_354>
    bf8c:	48 85 c0             	test   %rax,%rax
    bf8f:	0f 84 10 ed ff ff    	je     aca5 <func_14+0x5a6>
    bf95:	eb 01                	jmp    bf98 <func_14+0x1899>
    bf97:	90                   	nop
    bf98:	8b 85 6c f4 ff ff    	mov    -0xb94(%rbp),%eax
    bf9e:	48 8b 5d c8          	mov    -0x38(%rbp),%rbx
    bfa2:	64 48 33 1c 25 28 00 	xor    %fs:0x28,%rbx
    bfa9:	00 00 
    bfab:	74 05                	je     bfb2 <func_14+0x18b3>
    bfad:	e8 be c0 ff ff       	callq  8070 <__stack_chk_fail@plt>
    bfb2:	48 81 c4 78 0b 00 00 	add    $0xb78,%rsp
    bfb9:	5b                   	pop    %rbx
    bfba:	41 5c                	pop    %r12
    bfbc:	41 5d                	pop    %r13
    bfbe:	41 5e                	pop    %r14
    bfc0:	41 5f                	pop    %r15
    bfc2:	5d                   	pop    %rbp
    bfc3:	c3                   	retq   

000000000000bfc4 <func_20>:
    bfc4:	f3 0f 1e fa          	endbr64 
    bfc8:	55                   	push   %rbp
    bfc9:	48 89 e5             	mov    %rsp,%rbp
    bfcc:	48 83 ec 60          	sub    $0x60,%rsp
    bfd0:	48 89 7d c8          	mov    %rdi,-0x38(%rbp)
    bfd4:	48 89 75 c0          	mov    %rsi,-0x40(%rbp)
    bfd8:	89 d0                	mov    %edx,%eax
    bfda:	48 89 4d b0          	mov    %rcx,-0x50(%rbp)
    bfde:	4c 89 45 a8          	mov    %r8,-0x58(%rbp)
    bfe2:	88 45 bc             	mov    %al,-0x44(%rbp)
    bfe5:	64 48 8b 04 25 28 00 	mov    %fs:0x28,%rax
    bfec:	00 00 
    bfee:	48 89 45 f8          	mov    %rax,-0x8(%rbp)
    bff2:	31 c0                	xor    %eax,%eax
    bff4:	48 8d 05 49 b2 00 00 	lea    0xb249(%rip),%rax        # 17244 <g_125>
    bffb:	48 89 45 e0          	mov    %rax,-0x20(%rbp)
    bfff:	c7 45 dc 00 00 00 00 	movl   $0x0,-0x24(%rbp)
    c006:	eb 0e                	jmp    c016 <func_20+0x52>
    c008:	8b 45 dc             	mov    -0x24(%rbp),%eax
    c00b:	48 98                	cltq   
    c00d:	c6 44 05 f6 e5       	movb   $0xe5,-0xa(%rbp,%rax,1)
    c012:	83 45 dc 01          	addl   $0x1,-0x24(%rbp)
    c016:	83 7d dc 01          	cmpl   $0x1,-0x24(%rbp)
    c01a:	7e ec                	jle    c008 <func_20+0x44>
    c01c:	48 8b 05 05 f0 00 00 	mov    0xf005(%rip),%rax        # 1b028 <g_1091>
    c023:	48 8b 55 c0          	mov    -0x40(%rbp),%rdx
    c027:	48 89 10             	mov    %rdx,(%rax)
    c02a:	c6 05 6f c2 00 00 00 	movb   $0x0,0xc26f(%rip)        # 182a0 <g_2948>
    c031:	90                   	nop
    c032:	0f b6 05 67 c2 00 00 	movzbl 0xc267(%rip),%eax        # 182a0 <g_2948>
    c039:	3c e9                	cmp    $0xe9,%al
    c03b:	7d 06                	jge    c043 <func_20+0x7f>
    c03d:	48 8b 45 c8          	mov    -0x38(%rbp),%rax
    c041:	eb 4b                	jmp    c08e <func_20+0xca>
    c043:	c7 05 ef b1 00 00 eb 	movl   $0xffffffeb,0xb1ef(%rip)        # 1723c <g_90>
    c04a:	ff ff ff 
    c04d:	eb 2d                	jmp    c07c <func_20+0xb8>
    c04f:	48 8d 05 aa f9 00 00 	lea    0xf9aa(%rip),%rax        # 1ba00 <g_3296>
    c056:	48 89 45 e8          	mov    %rax,-0x18(%rbp)
    c05a:	0f b6 45 f7          	movzbl -0x9(%rbp),%eax
    c05e:	84 c0                	test   %al,%al
    c060:	75 27                	jne    c089 <func_20+0xc5>
    c062:	48 8d 05 97 f9 00 00 	lea    0xf997(%rip),%rax        # 1ba00 <g_3296>
    c069:	48 89 45 e8          	mov    %rax,-0x18(%rbp)
    c06d:	8b 05 c9 b1 00 00    	mov    0xb1c9(%rip),%eax        # 1723c <g_90>
    c073:	83 c0 01             	add    $0x1,%eax
    c076:	89 05 c0 b1 00 00    	mov    %eax,0xb1c0(%rip)        # 1723c <g_90>
    c07c:	8b 05 ba b1 00 00    	mov    0xb1ba(%rip),%eax        # 1723c <g_90>
    c082:	83 f8 f8             	cmp    $0xfffffff8,%eax
    c085:	75 c8                	jne    c04f <func_20+0x8b>
    c087:	eb 01                	jmp    c08a <func_20+0xc6>
    c089:	90                   	nop
    c08a:	48 8b 45 e0          	mov    -0x20(%rbp),%rax
    c08e:	48 8b 4d f8          	mov    -0x8(%rbp),%rcx
    c092:	64 48 33 0c 25 28 00 	xor    %fs:0x28,%rcx
    c099:	00 00 
    c09b:	74 05                	je     c0a2 <func_20+0xde>
    c09d:	e8 ce bf ff ff       	callq  8070 <__stack_chk_fail@plt>
    c0a2:	c9                   	leaveq 
    c0a3:	c3                   	retq   

000000000000c0a4 <func_30>:
    c0a4:	f3 0f 1e fa          	endbr64 
    c0a8:	55                   	push   %rbp
    c0a9:	48 89 e5             	mov    %rsp,%rbp
    c0ac:	48 81 ec 80 05 00 00 	sub    $0x580,%rsp
    c0b3:	48 89 bd 88 fa ff ff 	mov    %rdi,-0x578(%rbp)
    c0ba:	89 f0                	mov    %esi,%eax
    c0bc:	66 89 85 84 fa ff ff 	mov    %ax,-0x57c(%rbp)
    c0c3:	64 48 8b 04 25 28 00 	mov    %fs:0x28,%rax
    c0ca:	00 00 
    c0cc:	48 89 45 f8          	mov    %rax,-0x8(%rbp)
    c0d0:	31 c0                	xor    %eax,%eax
    c0d2:	66 c7 85 20 fb ff ff 	movw   $0x2e5f,-0x4e0(%rbp)
    c0d9:	5f 2e 
    c0db:	66 c7 85 22 fb ff ff 	movw   $0x2e5f,-0x4de(%rbp)
    c0e2:	5f 2e 
    c0e4:	66 c7 85 24 fb ff ff 	movw   $0x2e5f,-0x4dc(%rbp)
    c0eb:	5f 2e 
    c0ed:	66 c7 85 26 fb ff ff 	movw   $0x2e5f,-0x4da(%rbp)
    c0f4:	5f 2e 
    c0f6:	66 c7 85 28 fb ff ff 	movw   $0x2e5f,-0x4d8(%rbp)
    c0fd:	5f 2e 
    c0ff:	66 c7 85 2a fb ff ff 	movw   $0x2e5f,-0x4d6(%rbp)
    c106:	5f 2e 
    c108:	66 c7 85 2c fb ff ff 	movw   $0x2e5f,-0x4d4(%rbp)
    c10f:	5f 2e 
    c111:	66 c7 85 2e fb ff ff 	movw   $0x2e5f,-0x4d2(%rbp)
    c118:	5f 2e 
    c11a:	66 c7 85 30 fb ff ff 	movw   $0x2e5f,-0x4d0(%rbp)
    c121:	5f 2e 
    c123:	48 c7 85 d8 fa ff ff 	movq   $0x1,-0x528(%rbp)
    c12a:	01 00 00 00 
    c12e:	48 c7 85 e0 fa ff ff 	movq   $0x0,-0x520(%rbp)
    c135:	00 00 00 00 
    c139:	48 8d 05 38 03 01 00 	lea    0x10338(%rip),%rax        # 1c478 <g_407+0x18>
    c140:	48 89 85 e8 fa ff ff 	mov    %rax,-0x518(%rbp)
    c147:	c7 85 a0 fa ff ff 1e 	movl   $0x8dc411e,-0x560(%rbp)
    c14e:	41 dc 08 
    c151:	c7 85 a4 fa ff ff ff 	movl   $0xffffffff,-0x55c(%rbp)
    c158:	ff ff ff 
    c15b:	c7 85 a8 fa ff ff 0d 	movl   $0xbcf8b20d,-0x558(%rbp)
    c162:	b2 f8 bc 
    c165:	c7 85 ac fa ff ff 40 	movl   $0xce1940,-0x554(%rbp)
    c16c:	19 ce 00 
    c16f:	c7 85 b0 fa ff ff fd 	movl   $0xfffffffd,-0x550(%rbp)
    c176:	ff ff ff 
    c179:	c7 85 b4 fa ff ff 9c 	movl   $0xf93d4f9c,-0x54c(%rbp)
    c180:	4f 3d f9 
    c183:	c7 85 b8 fa ff ff f6 	movl   $0xfffffff6,-0x548(%rbp)
    c18a:	ff ff ff 
    c18d:	c7 85 bc fa ff ff 98 	movl   $0x622ff898,-0x544(%rbp)
    c194:	f8 2f 62 
    c197:	c7 85 c0 fa ff ff aa 	movl   $0xd75fd1aa,-0x540(%rbp)
    c19e:	d1 5f d7 
    c1a1:	48 8d 05 e8 ee 00 00 	lea    0xeee8(%rip),%rax        # 1b090 <g_1286+0x10>
    c1a8:	48 89 85 f0 fa ff ff 	mov    %rax,-0x510(%rbp)
    c1af:	c6 85 9d fa ff ff 08 	movb   $0x8,-0x563(%rbp)
    c1b6:	48 8d 05 f3 ed 00 00 	lea    0xedf3(%rip),%rax        # 1afb0 <g_507>
    c1bd:	48 89 85 d0 fa ff ff 	mov    %rax,-0x530(%rbp)
    c1c4:	48 8d 85 d0 fa ff ff 	lea    -0x530(%rbp),%rax
    c1cb:	48 89 85 f8 fa ff ff 	mov    %rax,-0x508(%rbp)
    c1d2:	48 8d 05 4b ae 00 00 	lea    0xae4b(%rip),%rax        # 17024 <g_3>
    c1d9:	48 89 85 00 fb ff ff 	mov    %rax,-0x500(%rbp)
    c1e0:	48 8d 85 40 fb ff ff 	lea    -0x4c0(%rbp),%rax
    c1e7:	48 8d 15 d2 cc 00 00 	lea    0xccd2(%rip),%rdx        # 18ec0 <g_4249+0x20>
    c1ee:	b9 96 00 00 00       	mov    $0x96,%ecx
    c1f3:	48 89 c7             	mov    %rax,%rdi
    c1f6:	48 89 d6             	mov    %rdx,%rsi
    c1f9:	f3 48 a5             	rep movsq %ds:(%rsi),%es:(%rdi)
    c1fc:	66 c7 85 9e fa ff ff 	movw   $0x1,-0x562(%rbp)
    c203:	01 00 
    c205:	c7 85 10 fb ff ff 01 	movl   $0x1,-0x4f0(%rbp)
    c20c:	00 00 00 
    c20f:	c7 85 14 fb ff ff 01 	movl   $0x1,-0x4ec(%rbp)
    c216:	00 00 00 
    c219:	c7 85 18 fb ff ff 01 	movl   $0x1,-0x4e8(%rbp)
    c220:	00 00 00 
    c223:	c7 85 1c fb ff ff 01 	movl   $0x1,-0x4e4(%rbp)
    c22a:	00 00 00 
    c22d:	c7 85 c4 fa ff ff 00 	movl   $0x0,-0x53c(%rbp)
    c234:	00 00 00 
    c237:	c7 85 c8 fa ff ff 8c 	movl   $0xe8617b8c,-0x538(%rbp)
    c23e:	7b 61 e8 
    c241:	48 b8 28 3a 7c c4 aa 	movabs $0x779214aac47c3a28,%rax
    c248:	14 92 77 
    c24b:	48 89 85 08 fb ff ff 	mov    %rax,-0x4f8(%rbp)
    c252:	c7 85 cc fa ff ff 89 	movl   $0x65bc3f89,-0x534(%rbp)
    c259:	3f bc 65 
    c25c:	c7 05 c2 ad 00 00 08 	movl   $0x8,0xadc2(%rip)        # 17028 <g_29>
    c263:	00 00 00 
    c266:	90                   	nop
    c267:	8b 05 bb ad 00 00    	mov    0xadbb(%rip),%eax        # 17028 <g_29>
    c26d:	85 c0                	test   %eax,%eax
    c26f:	78 09                	js     c27a <func_30+0x1d6>
    c271:	48 8d 05 ac ad 00 00 	lea    0xadac(%rip),%rax        # 17024 <g_3>
    c278:	eb 07                	jmp    c281 <func_30+0x1dd>
    c27a:	48 8b 85 88 fa ff ff 	mov    -0x578(%rbp),%rax
    c281:	48 8b 55 f8          	mov    -0x8(%rbp),%rdx
    c285:	64 48 33 14 25 28 00 	xor    %fs:0x28,%rdx
    c28c:	00 00 
    c28e:	74 05                	je     c295 <func_30+0x1f1>
    c290:	e8 db bd ff ff       	callq  8070 <__stack_chk_fail@plt>
    c295:	c9                   	leaveq 
    c296:	c3                   	retq   

000000000000c297 <func_41>:
    c297:	f3 0f 1e fa          	endbr64 
    c29b:	55                   	push   %rbp
    c29c:	48 89 e5             	mov    %rsp,%rbp
    c29f:	41 54                	push   %r12
    c2a1:	53                   	push   %rbx
    c2a2:	48 83 ec 30          	sub    $0x30,%rsp
    c2a6:	89 7d cc             	mov    %edi,-0x34(%rbp)
    c2a9:	89 f0                	mov    %esi,%eax
    c2ab:	66 89 45 c8          	mov    %ax,-0x38(%rbp)
    c2af:	89 d0                	mov    %edx,%eax
    c2b1:	88 45 c4             	mov    %al,-0x3c(%rbp)
    c2b4:	48 8d 05 45 ee 00 00 	lea    0xee45(%rip),%rax        # 1b100 <g_1727>
    c2bb:	48 89 45 e0          	mov    %rax,-0x20(%rbp)
    c2bf:	c7 45 d4 f6 ff ff ff 	movl   $0xfffffff6,-0x2c(%rbp)
    c2c6:	c7 45 d8 4c 4b 75 c4 	movl   $0xc4754b4c,-0x28(%rbp)
    c2cd:	c7 45 dc 9e 9b f0 b8 	movl   $0xb8f09b9e,-0x24(%rbp)
    c2d4:	48 8d 05 69 af 00 00 	lea    0xaf69(%rip),%rax        # 17244 <g_125>
    c2db:	48 89 45 e8          	mov    %rax,-0x18(%rbp)
    c2df:	0f b7 45 c8          	movzwl -0x38(%rbp),%eax
    c2e3:	0f be c0             	movsbl %al,%eax
    c2e6:	be 00 00 00 00       	mov    $0x0,%esi
    c2eb:	89 c7                	mov    %eax,%edi
    c2ed:	e8 af bf ff ff       	callq  82a1 <safe_lshift_func_int8_t_s_s>
    c2f2:	84 c0                	test   %al,%al
    c2f4:	0f 84 0a 01 00 00    	je     c404 <func_41+0x16d>
    c2fa:	48 8b 05 07 ee 00 00 	mov    0xee07(%rip),%rax        # 1b108 <g_1725>
    c301:	48 8b 55 e0          	mov    -0x20(%rbp),%rdx
    c305:	48 89 10             	mov    %rdx,(%rax)
    c308:	48 8b 00             	mov    (%rax),%rax
    c30b:	48 39 45 e0          	cmp    %rax,-0x20(%rbp)
    c30f:	0f 84 ad 00 00 00    	je     c3c2 <func_41+0x12b>
    c315:	8b 45 d4             	mov    -0x2c(%rbp),%eax
    c318:	48 63 d8             	movslq %eax,%rbx
    c31b:	8b 45 cc             	mov    -0x34(%rbp),%eax
    c31e:	44 0f b6 e0          	movzbl %al,%r12d
    c322:	be f7 ff ff ff       	mov    $0xfffffff7,%esi
    c327:	bf 00 00 00 00       	mov    $0x0,%edi
    c32c:	e8 00 bf ff ff       	callq  8231 <safe_mod_func_int8_t_s_s>
    c331:	0f be c0             	movsbl %al,%eax
    c334:	39 45 d4             	cmp    %eax,-0x2c(%rbp)
    c337:	0f 9c c0             	setl   %al
    c33a:	0f b6 d0             	movzbl %al,%edx
    c33d:	80 7d c4 00          	cmpb   $0x0,-0x3c(%rbp)
    c341:	75 06                	jne    c349 <func_41+0xb2>
    c343:	83 7d d4 00          	cmpl   $0x0,-0x2c(%rbp)
    c347:	74 07                	je     c350 <func_41+0xb9>
    c349:	b8 01 00 00 00       	mov    $0x1,%eax
    c34e:	eb 05                	jmp    c355 <func_41+0xbe>
    c350:	b8 00 00 00 00       	mov    $0x0,%eax
    c355:	48 98                	cltq   
    c357:	48 89 d6             	mov    %rdx,%rsi
    c35a:	48 89 c7             	mov    %rax,%rdi
    c35d:	e8 cc cc ff ff       	callq  902e <safe_add_func_uint64_t_u_u>
    c362:	48 85 c0             	test   %rax,%rax
    c365:	74 07                	je     c36e <func_41+0xd7>
    c367:	b8 01 00 00 00       	mov    $0x1,%eax
    c36c:	eb 05                	jmp    c373 <func_41+0xdc>
    c36e:	b8 00 00 00 00       	mov    $0x0,%eax
    c373:	0f b6 c0             	movzbl %al,%eax
    c376:	44 89 e6             	mov    %r12d,%esi
    c379:	89 c7                	mov    %eax,%edi
    c37b:	e8 13 c8 ff ff       	callq  8b93 <safe_mul_func_uint8_t_u_u>
    c380:	0f be c0             	movsbl %al,%eax
    c383:	be 01 00 00 00       	mov    $0x1,%esi
    c388:	89 c7                	mov    %eax,%edi
    c38a:	e8 12 bf ff ff       	callq  82a1 <safe_lshift_func_int8_t_s_s>
    c38f:	48 0f be c0          	movsbq %al,%rax
    c393:	48 89 de             	mov    %rbx,%rsi
    c396:	48 89 c7             	mov    %rax,%rdi
    c399:	e8 11 cd ff ff       	callq  90af <safe_div_func_uint64_t_u_u>
    c39e:	48 0f be 55 c4       	movsbq -0x3c(%rbp),%rdx
    c3a3:	48 31 d0             	xor    %rdx,%rax
    c3a6:	48 3d c8 ef 23 63    	cmp    $0x6323efc8,%rax
    c3ac:	0f 94 c0             	sete   %al
    c3af:	0f b6 c0             	movzbl %al,%eax
    c3b2:	be 3f 00 00 00       	mov    $0x3f,%esi
    c3b7:	89 c7                	mov    %eax,%edi
    c3b9:	e8 34 be ff ff       	callq  81f2 <safe_sub_func_int8_t_s_s>
    c3be:	84 c0                	test   %al,%al
    c3c0:	74 07                	je     c3c9 <func_41+0x132>
    c3c2:	b8 01 00 00 00       	mov    $0x1,%eax
    c3c7:	eb 05                	jmp    c3ce <func_41+0x137>
    c3c9:	b8 00 00 00 00       	mov    $0x0,%eax
    c3ce:	3b 45 d4             	cmp    -0x2c(%rbp),%eax
    c3d1:	0f 9d c0             	setge  %al
    c3d4:	0f b6 d0             	movzbl %al,%edx
    c3d7:	48 8b 05 1a ed 00 00 	mov    0xed1a(%rip),%rax        # 1b0f8 <g_1698>
    c3de:	48 8b 00             	mov    (%rax),%rax
    c3e1:	8b 00                	mov    (%rax),%eax
    c3e3:	39 c2                	cmp    %eax,%edx
    c3e5:	0f 95 c2             	setne  %dl
    c3e8:	48 8b 05 59 e3 00 00 	mov    0xe359(%rip),%rax        # 1a748 <g_165>
    c3ef:	0f b6 d2             	movzbl %dl,%edx
    c3f2:	66 89 10             	mov    %dx,(%rax)
    c3f5:	0f b7 00             	movzwl (%rax),%eax
    c3f8:	66 85 c0             	test   %ax,%ax
    c3fb:	74 07                	je     c404 <func_41+0x16d>
    c3fd:	b8 01 00 00 00       	mov    $0x1,%eax
    c402:	eb 05                	jmp    c409 <func_41+0x172>
    c404:	b8 00 00 00 00       	mov    $0x0,%eax
    c409:	0f b6 d8             	movzbl %al,%ebx
    c40c:	bf 08 00 00 00       	mov    $0x8,%edi
    c411:	e8 2f c7 ff ff       	callq  8b45 <safe_unary_minus_func_uint8_t_u>
    c416:	0f b6 c0             	movzbl %al,%eax
    c419:	89 de                	mov    %ebx,%esi
    c41b:	89 c7                	mov    %eax,%edi
    c41d:	e8 8c c7 ff ff       	callq  8bae <safe_mod_func_uint8_t_u_u>
    c422:	0f b6 c0             	movzbl %al,%eax
    c425:	39 45 d4             	cmp    %eax,-0x2c(%rbp)
    c428:	0f 94 c0             	sete   %al
    c42b:	0f b6 c0             	movzbl %al,%eax
    c42e:	21 45 d8             	and    %eax,-0x28(%rbp)
    c431:	8b 45 d8             	mov    -0x28(%rbp),%eax
    c434:	48 98                	cltq   
    c436:	25 93 00 00 00       	and    $0x93,%eax
    c43b:	31 45 dc             	xor    %eax,-0x24(%rbp)
    c43e:	48 8b 45 e8          	mov    -0x18(%rbp),%rax
    c442:	48 83 c4 30          	add    $0x30,%rsp
    c446:	5b                   	pop    %rbx
    c447:	41 5c                	pop    %r12
    c449:	5d                   	pop    %rbp
    c44a:	c3                   	retq   

000000000000c44b <func_47>:
    c44b:	f3 0f 1e fa          	endbr64 
    c44f:	55                   	push   %rbp
    c450:	48 89 e5             	mov    %rsp,%rbp
    c453:	41 55                	push   %r13
    c455:	41 54                	push   %r12
    c457:	53                   	push   %rbx
    c458:	48 81 ec 00 10 00 00 	sub    $0x1000,%rsp
    c45f:	48 83 0c 24 00       	orq    $0x0,(%rsp)
    c464:	48 81 ec 38 01 00 00 	sub    $0x138,%rsp
    c46b:	89 bd bc ee ff ff    	mov    %edi,-0x1144(%rbp)
    c471:	89 f0                	mov    %esi,%eax
    c473:	89 95 b4 ee ff ff    	mov    %edx,-0x114c(%rbp)
    c479:	66 89 85 b8 ee ff ff 	mov    %ax,-0x1148(%rbp)
    c480:	64 48 8b 04 25 28 00 	mov    %fs:0x28,%rax
    c487:	00 00 
    c489:	48 89 45 d8          	mov    %rax,-0x28(%rbp)
    c48d:	31 c0                	xor    %eax,%eax
    c48f:	48 8d 05 92 ab 00 00 	lea    0xab92(%rip),%rax        # 17028 <g_29>
    c496:	48 89 85 80 f1 ff ff 	mov    %rax,-0xe80(%rbp)
    c49d:	48 8d 05 84 ab 00 00 	lea    0xab84(%rip),%rax        # 17028 <g_29>
    c4a4:	48 89 85 88 f1 ff ff 	mov    %rax,-0xe78(%rbp)
    c4ab:	48 8d 05 76 ab 00 00 	lea    0xab76(%rip),%rax        # 17028 <g_29>
    c4b2:	48 89 85 90 f1 ff ff 	mov    %rax,-0xe70(%rbp)
    c4b9:	48 8d 05 68 ab 00 00 	lea    0xab68(%rip),%rax        # 17028 <g_29>
    c4c0:	48 89 85 98 f1 ff ff 	mov    %rax,-0xe68(%rbp)
    c4c7:	48 8d 05 5a ab 00 00 	lea    0xab5a(%rip),%rax        # 17028 <g_29>
    c4ce:	48 89 85 a0 f1 ff ff 	mov    %rax,-0xe60(%rbp)
    c4d5:	48 8d 05 4c ab 00 00 	lea    0xab4c(%rip),%rax        # 17028 <g_29>
    c4dc:	48 89 85 a8 f1 ff ff 	mov    %rax,-0xe58(%rbp)
    c4e3:	48 8d 05 3e ab 00 00 	lea    0xab3e(%rip),%rax        # 17028 <g_29>
    c4ea:	48 89 85 b0 f1 ff ff 	mov    %rax,-0xe50(%rbp)
    c4f1:	48 8d 05 30 ab 00 00 	lea    0xab30(%rip),%rax        # 17028 <g_29>
    c4f8:	48 89 85 b8 f1 ff ff 	mov    %rax,-0xe48(%rbp)
    c4ff:	48 8d 05 22 ab 00 00 	lea    0xab22(%rip),%rax        # 17028 <g_29>
    c506:	48 89 85 c0 f1 ff ff 	mov    %rax,-0xe40(%rbp)
    c50d:	c7 85 ec ee ff ff 0a 	movl   $0xce4ca00a,-0x1114(%rbp)
    c514:	a0 4c ce 
    c517:	48 c7 85 80 ef ff ff 	movq   $0x0,-0x1080(%rbp)
    c51e:	00 00 00 00 
    c522:	48 8d 05 57 af 00 00 	lea    0xaf57(%rip),%rax        # 17480 <g_851>
    c529:	48 89 85 30 ef ff ff 	mov    %rax,-0x10d0(%rbp)
    c530:	48 8d 85 30 ef ff ff 	lea    -0x10d0(%rbp),%rax
    c537:	48 89 85 88 ef ff ff 	mov    %rax,-0x1078(%rbp)
    c53e:	48 8d 05 c3 ea 00 00 	lea    0xeac3(%rip),%rax        # 1b008 <g_885>
    c545:	48 89 85 38 ef ff ff 	mov    %rax,-0x10c8(%rbp)
    c54c:	48 8d 85 38 ef ff ff 	lea    -0x10c8(%rbp),%rax
    c553:	48 89 85 90 ef ff ff 	mov    %rax,-0x1070(%rbp)
    c55a:	66 c7 85 a0 f0 ff ff 	movw   $0x1cd4,-0xf60(%rbp)
    c561:	d4 1c 
    c563:	66 c7 85 a2 f0 ff ff 	movw   $0x1cd4,-0xf5e(%rbp)
    c56a:	d4 1c 
    c56c:	66 c7 85 a4 f0 ff ff 	movw   $0xe21e,-0xf5c(%rbp)
    c573:	1e e2 
    c575:	66 c7 85 a6 f0 ff ff 	movw   $0xfffb,-0xf5a(%rbp)
    c57c:	fb ff 
    c57e:	66 c7 85 a8 f0 ff ff 	movw   $0xffff,-0xf58(%rbp)
    c585:	ff ff 
    c587:	66 c7 85 aa f0 ff ff 	movw   $0xfffd,-0xf56(%rbp)
    c58e:	fd ff 
    c590:	66 c7 85 ac f0 ff ff 	movw   $0xffff,-0xf54(%rbp)
    c597:	ff ff 
    c599:	66 c7 85 ae f0 ff ff 	movw   $0xe21e,-0xf52(%rbp)
    c5a0:	1e e2 
    c5a2:	66 c7 85 b0 f0 ff ff 	movw   $0xffff,-0xf50(%rbp)
    c5a9:	ff ff 
    c5ab:	66 c7 85 b2 f0 ff ff 	movw   $0xe21e,-0xf4e(%rbp)
    c5b2:	1e e2 
    c5b4:	66 c7 85 b4 f0 ff ff 	movw   $0xe21e,-0xf4c(%rbp)
    c5bb:	1e e2 
    c5bd:	66 c7 85 b6 f0 ff ff 	movw   $0xffff,-0xf4a(%rbp)
    c5c4:	ff ff 
    c5c6:	48 c7 85 98 ef ff ff 	movq   $0x0,-0x1068(%rbp)
    c5cd:	00 00 00 00 
    c5d1:	48 8d 05 d8 e9 00 00 	lea    0xe9d8(%rip),%rax        # 1afb0 <g_507>
    c5d8:	48 89 85 40 ef ff ff 	mov    %rax,-0x10c0(%rbp)
    c5df:	48 8d 05 76 6a 00 00 	lea    0x6a76(%rip),%rax        # 1305c <g_1294>
    c5e6:	48 89 85 20 f2 ff ff 	mov    %rax,-0xde0(%rbp)
    c5ed:	48 8d 05 68 6a 00 00 	lea    0x6a68(%rip),%rax        # 1305c <g_1294>
    c5f4:	48 89 85 28 f2 ff ff 	mov    %rax,-0xdd8(%rbp)
    c5fb:	48 8d 05 5a 6a 00 00 	lea    0x6a5a(%rip),%rax        # 1305c <g_1294>
    c602:	48 89 85 30 f2 ff ff 	mov    %rax,-0xdd0(%rbp)
    c609:	48 c7 85 38 f2 ff ff 	movq   $0x0,-0xdc8(%rbp)
    c610:	00 00 00 00 
    c614:	48 c7 85 40 f2 ff ff 	movq   $0x0,-0xdc0(%rbp)
    c61b:	00 00 00 00 
    c61f:	48 8d 05 36 6a 00 00 	lea    0x6a36(%rip),%rax        # 1305c <g_1294>
    c626:	48 89 85 48 f2 ff ff 	mov    %rax,-0xdb8(%rbp)
    c62d:	48 8d 05 28 6a 00 00 	lea    0x6a28(%rip),%rax        # 1305c <g_1294>
    c634:	48 89 85 50 f2 ff ff 	mov    %rax,-0xdb0(%rbp)
    c63b:	48 8d 05 1a 6a 00 00 	lea    0x6a1a(%rip),%rax        # 1305c <g_1294>
    c642:	48 89 85 58 f2 ff ff 	mov    %rax,-0xda8(%rbp)
    c649:	48 8d 05 0c 6a 00 00 	lea    0x6a0c(%rip),%rax        # 1305c <g_1294>
    c650:	48 89 85 60 f2 ff ff 	mov    %rax,-0xda0(%rbp)
    c657:	48 8d 05 fe 69 00 00 	lea    0x69fe(%rip),%rax        # 1305c <g_1294>
    c65e:	48 89 85 68 f2 ff ff 	mov    %rax,-0xd98(%rbp)
    c665:	48 c7 85 70 f2 ff ff 	movq   $0x0,-0xd90(%rbp)
    c66c:	00 00 00 00 
    c670:	48 8d 05 e5 69 00 00 	lea    0x69e5(%rip),%rax        # 1305c <g_1294>
    c677:	48 89 85 78 f2 ff ff 	mov    %rax,-0xd88(%rbp)
    c67e:	48 8d 05 d7 69 00 00 	lea    0x69d7(%rip),%rax        # 1305c <g_1294>
    c685:	48 89 85 80 f2 ff ff 	mov    %rax,-0xd80(%rbp)
    c68c:	48 8d 05 c9 69 00 00 	lea    0x69c9(%rip),%rax        # 1305c <g_1294>
    c693:	48 89 85 88 f2 ff ff 	mov    %rax,-0xd78(%rbp)
    c69a:	48 8d 05 bb 69 00 00 	lea    0x69bb(%rip),%rax        # 1305c <g_1294>
    c6a1:	48 89 85 90 f2 ff ff 	mov    %rax,-0xd70(%rbp)
    c6a8:	48 c7 85 98 f2 ff ff 	movq   $0x0,-0xd68(%rbp)
    c6af:	00 00 00 00 
    c6b3:	48 8d 05 a2 69 00 00 	lea    0x69a2(%rip),%rax        # 1305c <g_1294>
    c6ba:	48 89 85 a0 f2 ff ff 	mov    %rax,-0xd60(%rbp)
    c6c1:	48 8d 05 94 69 00 00 	lea    0x6994(%rip),%rax        # 1305c <g_1294>
    c6c8:	48 89 85 a8 f2 ff ff 	mov    %rax,-0xd58(%rbp)
    c6cf:	48 8d 05 86 69 00 00 	lea    0x6986(%rip),%rax        # 1305c <g_1294>
    c6d6:	48 89 85 b0 f2 ff ff 	mov    %rax,-0xd50(%rbp)
    c6dd:	48 8d 05 78 69 00 00 	lea    0x6978(%rip),%rax        # 1305c <g_1294>
    c6e4:	48 89 85 b8 f2 ff ff 	mov    %rax,-0xd48(%rbp)
    c6eb:	48 8d 05 6a 69 00 00 	lea    0x696a(%rip),%rax        # 1305c <g_1294>
    c6f2:	48 89 85 c0 f2 ff ff 	mov    %rax,-0xd40(%rbp)
    c6f9:	48 c7 85 48 ef ff ff 	movq   $0x0,-0x10b8(%rbp)
    c700:	00 00 00 00 
    c704:	48 8d 85 48 ef ff ff 	lea    -0x10b8(%rbp),%rax
    c70b:	48 89 85 50 ef ff ff 	mov    %rax,-0x10b0(%rbp)
    c712:	48 8d 85 50 ef ff ff 	lea    -0x10b0(%rbp),%rax
    c719:	48 89 85 a0 ef ff ff 	mov    %rax,-0x1060(%rbp)
    c720:	48 8d 05 6b ac 00 00 	lea    0xac6b(%rip),%rax        # 17392 <g_275+0x12>
    c727:	48 89 85 a8 ef ff ff 	mov    %rax,-0x1058(%rbp)
    c72e:	48 8d 85 40 ef ff ff 	lea    -0x10c0(%rbp),%rax
    c735:	48 89 85 c0 f3 ff ff 	mov    %rax,-0xc40(%rbp)
    c73c:	48 8d 85 40 ef ff ff 	lea    -0x10c0(%rbp),%rax
    c743:	48 89 85 c8 f3 ff ff 	mov    %rax,-0xc38(%rbp)
    c74a:	48 8d 85 40 ef ff ff 	lea    -0x10c0(%rbp),%rax
    c751:	48 89 85 d0 f3 ff ff 	mov    %rax,-0xc30(%rbp)
    c758:	48 8d 85 40 ef ff ff 	lea    -0x10c0(%rbp),%rax
    c75f:	48 89 85 d8 f3 ff ff 	mov    %rax,-0xc28(%rbp)
    c766:	48 8d 85 40 ef ff ff 	lea    -0x10c0(%rbp),%rax
    c76d:	48 89 85 e0 f3 ff ff 	mov    %rax,-0xc20(%rbp)
    c774:	48 8d 85 40 ef ff ff 	lea    -0x10c0(%rbp),%rax
    c77b:	48 89 85 e8 f3 ff ff 	mov    %rax,-0xc18(%rbp)
    c782:	48 c7 85 f0 f3 ff ff 	movq   $0x0,-0xc10(%rbp)
    c789:	00 00 00 00 
    c78d:	48 8d 85 40 ef ff ff 	lea    -0x10c0(%rbp),%rax
    c794:	48 89 85 f8 f3 ff ff 	mov    %rax,-0xc08(%rbp)
    c79b:	48 8d 85 40 ef ff ff 	lea    -0x10c0(%rbp),%rax
    c7a2:	48 89 85 00 f4 ff ff 	mov    %rax,-0xc00(%rbp)
    c7a9:	48 8d 85 40 ef ff ff 	lea    -0x10c0(%rbp),%rax
    c7b0:	48 89 85 08 f4 ff ff 	mov    %rax,-0xbf8(%rbp)
    c7b7:	48 c7 85 10 f4 ff ff 	movq   $0x0,-0xbf0(%rbp)
    c7be:	00 00 00 00 
    c7c2:	48 8d 85 40 ef ff ff 	lea    -0x10c0(%rbp),%rax
    c7c9:	48 89 85 18 f4 ff ff 	mov    %rax,-0xbe8(%rbp)
    c7d0:	48 8d 85 40 ef ff ff 	lea    -0x10c0(%rbp),%rax
    c7d7:	48 89 85 20 f4 ff ff 	mov    %rax,-0xbe0(%rbp)
    c7de:	48 8d 85 40 ef ff ff 	lea    -0x10c0(%rbp),%rax
    c7e5:	48 89 85 28 f4 ff ff 	mov    %rax,-0xbd8(%rbp)
    c7ec:	48 8d 85 40 ef ff ff 	lea    -0x10c0(%rbp),%rax
    c7f3:	48 89 85 30 f4 ff ff 	mov    %rax,-0xbd0(%rbp)
    c7fa:	48 8d 85 40 ef ff ff 	lea    -0x10c0(%rbp),%rax
    c801:	48 89 85 38 f4 ff ff 	mov    %rax,-0xbc8(%rbp)
    c808:	48 c7 85 40 f4 ff ff 	movq   $0x0,-0xbc0(%rbp)
    c80f:	00 00 00 00 
    c813:	48 8d 85 40 ef ff ff 	lea    -0x10c0(%rbp),%rax
    c81a:	48 89 85 48 f4 ff ff 	mov    %rax,-0xbb8(%rbp)
    c821:	48 8d 85 40 ef ff ff 	lea    -0x10c0(%rbp),%rax
    c828:	48 89 85 50 f4 ff ff 	mov    %rax,-0xbb0(%rbp)
    c82f:	48 8d 85 40 ef ff ff 	lea    -0x10c0(%rbp),%rax
    c836:	48 89 85 58 f4 ff ff 	mov    %rax,-0xba8(%rbp)
    c83d:	48 c7 85 60 f4 ff ff 	movq   $0x0,-0xba0(%rbp)
    c844:	00 00 00 00 
    c848:	48 8d 85 40 ef ff ff 	lea    -0x10c0(%rbp),%rax
    c84f:	48 89 85 68 f4 ff ff 	mov    %rax,-0xb98(%rbp)
    c856:	48 8d 85 40 ef ff ff 	lea    -0x10c0(%rbp),%rax
    c85d:	48 89 85 70 f4 ff ff 	mov    %rax,-0xb90(%rbp)
    c864:	48 8d 85 40 ef ff ff 	lea    -0x10c0(%rbp),%rax
    c86b:	48 89 85 78 f4 ff ff 	mov    %rax,-0xb88(%rbp)
    c872:	48 8d 85 40 ef ff ff 	lea    -0x10c0(%rbp),%rax
    c879:	48 89 85 80 f4 ff ff 	mov    %rax,-0xb80(%rbp)
    c880:	48 8d 85 40 ef ff ff 	lea    -0x10c0(%rbp),%rax
    c887:	48 89 85 88 f4 ff ff 	mov    %rax,-0xb78(%rbp)
    c88e:	48 8d 85 40 ef ff ff 	lea    -0x10c0(%rbp),%rax
    c895:	48 89 85 90 f4 ff ff 	mov    %rax,-0xb70(%rbp)
    c89c:	48 8d 85 40 ef ff ff 	lea    -0x10c0(%rbp),%rax
    c8a3:	48 89 85 98 f4 ff ff 	mov    %rax,-0xb68(%rbp)
    c8aa:	48 c7 85 a0 f4 ff ff 	movq   $0x0,-0xb60(%rbp)
    c8b1:	00 00 00 00 
    c8b5:	48 8d 85 40 ef ff ff 	lea    -0x10c0(%rbp),%rax
    c8bc:	48 89 85 a8 f4 ff ff 	mov    %rax,-0xb58(%rbp)
    c8c3:	48 8d 85 40 ef ff ff 	lea    -0x10c0(%rbp),%rax
    c8ca:	48 89 85 b0 f4 ff ff 	mov    %rax,-0xb50(%rbp)
    c8d1:	48 8d 85 40 ef ff ff 	lea    -0x10c0(%rbp),%rax
    c8d8:	48 89 85 b8 f4 ff ff 	mov    %rax,-0xb48(%rbp)
    c8df:	48 c7 85 c0 f4 ff ff 	movq   $0x0,-0xb40(%rbp)
    c8e6:	00 00 00 00 
    c8ea:	48 8d 85 40 ef ff ff 	lea    -0x10c0(%rbp),%rax
    c8f1:	48 89 85 c8 f4 ff ff 	mov    %rax,-0xb38(%rbp)
    c8f8:	48 8d 85 40 ef ff ff 	lea    -0x10c0(%rbp),%rax
    c8ff:	48 89 85 d0 f4 ff ff 	mov    %rax,-0xb30(%rbp)
    c906:	48 8d 85 40 ef ff ff 	lea    -0x10c0(%rbp),%rax
    c90d:	48 89 85 d8 f4 ff ff 	mov    %rax,-0xb28(%rbp)
    c914:	48 8d 85 40 ef ff ff 	lea    -0x10c0(%rbp),%rax
    c91b:	48 89 85 e0 f4 ff ff 	mov    %rax,-0xb20(%rbp)
    c922:	48 8d 85 40 ef ff ff 	lea    -0x10c0(%rbp),%rax
    c929:	48 89 85 e8 f4 ff ff 	mov    %rax,-0xb18(%rbp)
    c930:	48 c7 85 f0 f4 ff ff 	movq   $0x0,-0xb10(%rbp)
    c937:	00 00 00 00 
    c93b:	48 8d 85 40 ef ff ff 	lea    -0x10c0(%rbp),%rax
    c942:	48 89 85 f8 f4 ff ff 	mov    %rax,-0xb08(%rbp)
    c949:	48 8d 85 40 ef ff ff 	lea    -0x10c0(%rbp),%rax
    c950:	48 89 85 00 f5 ff ff 	mov    %rax,-0xb00(%rbp)
    c957:	48 8d 85 40 ef ff ff 	lea    -0x10c0(%rbp),%rax
    c95e:	48 89 85 08 f5 ff ff 	mov    %rax,-0xaf8(%rbp)
    c965:	48 c7 85 10 f5 ff ff 	movq   $0x0,-0xaf0(%rbp)
    c96c:	00 00 00 00 
    c970:	48 8d 85 40 ef ff ff 	lea    -0x10c0(%rbp),%rax
    c977:	48 89 85 18 f5 ff ff 	mov    %rax,-0xae8(%rbp)
    c97e:	48 8d 85 40 ef ff ff 	lea    -0x10c0(%rbp),%rax
    c985:	48 89 85 20 f5 ff ff 	mov    %rax,-0xae0(%rbp)
    c98c:	48 8d 85 40 ef ff ff 	lea    -0x10c0(%rbp),%rax
    c993:	48 89 85 28 f5 ff ff 	mov    %rax,-0xad8(%rbp)
    c99a:	48 8d 85 40 ef ff ff 	lea    -0x10c0(%rbp),%rax
    c9a1:	48 89 85 30 f5 ff ff 	mov    %rax,-0xad0(%rbp)
    c9a8:	48 8d 85 40 ef ff ff 	lea    -0x10c0(%rbp),%rax
    c9af:	48 89 85 38 f5 ff ff 	mov    %rax,-0xac8(%rbp)
    c9b6:	48 8d 05 a3 e6 00 00 	lea    0xe6a3(%rip),%rax        # 1b060 <g_1230>
    c9bd:	48 89 85 e0 f0 ff ff 	mov    %rax,-0xf20(%rbp)
    c9c4:	48 8d 05 95 e6 00 00 	lea    0xe695(%rip),%rax        # 1b060 <g_1230>
    c9cb:	48 89 85 e8 f0 ff ff 	mov    %rax,-0xf18(%rbp)
    c9d2:	48 8d 05 87 e6 00 00 	lea    0xe687(%rip),%rax        # 1b060 <g_1230>
    c9d9:	48 89 85 f0 f0 ff ff 	mov    %rax,-0xf10(%rbp)
    c9e0:	48 8d 05 79 e6 00 00 	lea    0xe679(%rip),%rax        # 1b060 <g_1230>
    c9e7:	48 89 85 f8 f0 ff ff 	mov    %rax,-0xf08(%rbp)
    c9ee:	48 c7 85 b0 ef ff ff 	movq   $0x0,-0x1050(%rbp)
    c9f5:	00 00 00 00 
    c9f9:	c7 85 f0 ee ff ff 89 	movl   $0xaf916989,-0x1110(%rbp)
    ca00:	69 91 af 
    ca03:	48 8d 05 fe e5 00 00 	lea    0xe5fe(%rip),%rax        # 1b008 <g_885>
    ca0a:	48 89 85 58 ef ff ff 	mov    %rax,-0x10a8(%rbp)
    ca11:	48 8d 85 58 ef ff ff 	lea    -0x10a8(%rbp),%rax
    ca18:	48 89 85 d0 f2 ff ff 	mov    %rax,-0xd30(%rbp)
    ca1f:	48 c7 85 d8 f2 ff ff 	movq   $0x0,-0xd28(%rbp)
    ca26:	00 00 00 00 
    ca2a:	48 8d 85 58 ef ff ff 	lea    -0x10a8(%rbp),%rax
    ca31:	48 89 85 e0 f2 ff ff 	mov    %rax,-0xd20(%rbp)
    ca38:	48 c7 85 e8 f2 ff ff 	movq   $0x0,-0xd18(%rbp)
    ca3f:	00 00 00 00 
    ca43:	48 8d 85 58 ef ff ff 	lea    -0x10a8(%rbp),%rax
    ca4a:	48 89 85 f0 f2 ff ff 	mov    %rax,-0xd10(%rbp)
    ca51:	48 c7 85 f8 f2 ff ff 	movq   $0x0,-0xd08(%rbp)
    ca58:	00 00 00 00 
    ca5c:	48 8d 85 58 ef ff ff 	lea    -0x10a8(%rbp),%rax
    ca63:	48 89 85 00 f3 ff ff 	mov    %rax,-0xd00(%rbp)
    ca6a:	48 c7 85 08 f3 ff ff 	movq   $0x0,-0xcf8(%rbp)
    ca71:	00 00 00 00 
    ca75:	48 8d 85 58 ef ff ff 	lea    -0x10a8(%rbp),%rax
    ca7c:	48 89 85 10 f3 ff ff 	mov    %rax,-0xcf0(%rbp)
    ca83:	48 c7 85 18 f3 ff ff 	movq   $0x0,-0xce8(%rbp)
    ca8a:	00 00 00 00 
    ca8e:	48 8d 85 58 ef ff ff 	lea    -0x10a8(%rbp),%rax
    ca95:	48 89 85 20 f3 ff ff 	mov    %rax,-0xce0(%rbp)
    ca9c:	48 c7 85 28 f3 ff ff 	movq   $0x0,-0xcd8(%rbp)
    caa3:	00 00 00 00 
    caa7:	48 8d 85 58 ef ff ff 	lea    -0x10a8(%rbp),%rax
    caae:	48 89 85 30 f3 ff ff 	mov    %rax,-0xcd0(%rbp)
    cab5:	48 c7 85 38 f3 ff ff 	movq   $0x0,-0xcc8(%rbp)
    cabc:	00 00 00 00 
    cac0:	48 8d 85 58 ef ff ff 	lea    -0x10a8(%rbp),%rax
    cac7:	48 89 85 40 f3 ff ff 	mov    %rax,-0xcc0(%rbp)
    cace:	48 c7 85 48 f3 ff ff 	movq   $0x0,-0xcb8(%rbp)
    cad5:	00 00 00 00 
    cad9:	48 8d 85 58 ef ff ff 	lea    -0x10a8(%rbp),%rax
    cae0:	48 89 85 50 f3 ff ff 	mov    %rax,-0xcb0(%rbp)
    cae7:	48 c7 85 58 f3 ff ff 	movq   $0x0,-0xca8(%rbp)
    caee:	00 00 00 00 
    caf2:	48 8d 85 58 ef ff ff 	lea    -0x10a8(%rbp),%rax
    caf9:	48 89 85 60 f3 ff ff 	mov    %rax,-0xca0(%rbp)
    cb00:	48 c7 85 68 f3 ff ff 	movq   $0x0,-0xc98(%rbp)
    cb07:	00 00 00 00 
    cb0b:	48 8d 85 58 ef ff ff 	lea    -0x10a8(%rbp),%rax
    cb12:	48 89 85 70 f3 ff ff 	mov    %rax,-0xc90(%rbp)
    cb19:	48 c7 85 78 f3 ff ff 	movq   $0x0,-0xc88(%rbp)
    cb20:	00 00 00 00 
    cb24:	48 8d 85 58 ef ff ff 	lea    -0x10a8(%rbp),%rax
    cb2b:	48 89 85 80 f3 ff ff 	mov    %rax,-0xc80(%rbp)
    cb32:	48 c7 85 88 f3 ff ff 	movq   $0x0,-0xc78(%rbp)
    cb39:	00 00 00 00 
    cb3d:	48 8d 85 58 ef ff ff 	lea    -0x10a8(%rbp),%rax
    cb44:	48 89 85 90 f3 ff ff 	mov    %rax,-0xc70(%rbp)
    cb4b:	48 c7 85 98 f3 ff ff 	movq   $0x0,-0xc68(%rbp)
    cb52:	00 00 00 00 
    cb56:	48 8d 85 58 ef ff ff 	lea    -0x10a8(%rbp),%rax
    cb5d:	48 89 85 a0 f3 ff ff 	mov    %rax,-0xc60(%rbp)
    cb64:	48 c7 85 a8 f3 ff ff 	movq   $0x0,-0xc58(%rbp)
    cb6b:	00 00 00 00 
    cb6f:	48 8d 85 58 ef ff ff 	lea    -0x10a8(%rbp),%rax
    cb76:	48 89 85 b0 f3 ff ff 	mov    %rax,-0xc50(%rbp)
    cb7d:	48 c7 85 b8 f3 ff ff 	movq   $0x0,-0xc48(%rbp)
    cb84:	00 00 00 00 
    cb88:	c7 85 f4 ee ff ff c6 	movl   $0xb3a62ec6,-0x110c(%rbp)
    cb8f:	2e a6 b3 
    cb92:	66 c7 85 7c f0 ff ff 	movw   $0x445d,-0xf84(%rbp)
    cb99:	5d 44 
    cb9b:	66 c7 85 7e f0 ff ff 	movw   $0x445d,-0xf82(%rbp)
    cba2:	5d 44 
    cba4:	66 c7 85 80 f0 ff ff 	movw   $0x445d,-0xf80(%rbp)
    cbab:	5d 44 
    cbad:	66 c7 85 82 f0 ff ff 	movw   $0x445d,-0xf7e(%rbp)
    cbb4:	5d 44 
    cbb6:	48 8d 05 33 e5 00 00 	lea    0xe533(%rip),%rax        # 1b0f0 <g_1693>
    cbbd:	48 89 85 b8 ef ff ff 	mov    %rax,-0x1048(%rbp)
    cbc4:	c7 85 f8 ee ff ff 01 	movl   $0x1,-0x1108(%rbp)
    cbcb:	00 00 00 
    cbce:	c7 85 fc ee ff ff 8a 	movl   $0x24deef8a,-0x1104(%rbp)
    cbd5:	ef de 24 
    cbd8:	48 8d 05 c9 a8 00 00 	lea    0xa8c9(%rip),%rax        # 174a8 <g_969>
    cbdf:	48 89 85 c0 ef ff ff 	mov    %rax,-0x1040(%rbp)
    cbe6:	48 8d 85 40 f5 ff ff 	lea    -0xac0(%rbp),%rax
    cbed:	48 8d 15 8c c7 00 00 	lea    0xc78c(%rip),%rdx        # 19380 <g_4249+0x4e0>
    cbf4:	b9 a8 00 00 00       	mov    $0xa8,%ecx
    cbf9:	48 89 c7             	mov    %rax,%rdi
    cbfc:	48 89 d6             	mov    %rdx,%rsi
    cbff:	f3 48 a5             	rep movsq %ds:(%rsi),%es:(%rdi)
    cc02:	c7 85 00 ef ff ff 17 	movl   $0xc2dc1c17,-0x1100(%rbp)
    cc09:	1c dc c2 
    cc0c:	48 c7 85 d0 f1 ff ff 	movq   $0x0,-0xe30(%rbp)
    cc13:	00 00 00 00 
    cc17:	48 c7 85 d8 f1 ff ff 	movq   $0x0,-0xe28(%rbp)
    cc1e:	00 00 00 00 
    cc22:	48 c7 85 e0 f1 ff ff 	movq   $0x0,-0xe20(%rbp)
    cc29:	00 00 00 00 
    cc2d:	48 c7 85 e8 f1 ff ff 	movq   $0x0,-0xe18(%rbp)
    cc34:	00 00 00 00 
    cc38:	48 c7 85 f0 f1 ff ff 	movq   $0x0,-0xe10(%rbp)
    cc3f:	00 00 00 00 
    cc43:	48 c7 85 f8 f1 ff ff 	movq   $0x0,-0xe08(%rbp)
    cc4a:	00 00 00 00 
    cc4e:	48 c7 85 00 f2 ff ff 	movq   $0x0,-0xe00(%rbp)
    cc55:	00 00 00 00 
    cc59:	48 c7 85 08 f2 ff ff 	movq   $0x0,-0xdf8(%rbp)
    cc60:	00 00 00 00 
    cc64:	48 c7 85 10 f2 ff ff 	movq   $0x0,-0xdf0(%rbp)
    cc6b:	00 00 00 00 
    cc6f:	48 c7 85 18 f2 ff ff 	movq   $0x0,-0xde8(%rbp)
    cc76:	00 00 00 00 
    cc7a:	48 8d 05 6f a8 00 00 	lea    0xa86f(%rip),%rax        # 174f0 <g_1150>
    cc81:	48 89 85 00 f1 ff ff 	mov    %rax,-0xf00(%rbp)
    cc88:	48 8d 05 61 a8 00 00 	lea    0xa861(%rip),%rax        # 174f0 <g_1150>
    cc8f:	48 89 85 08 f1 ff ff 	mov    %rax,-0xef8(%rbp)
    cc96:	48 8d 05 53 a8 00 00 	lea    0xa853(%rip),%rax        # 174f0 <g_1150>
    cc9d:	48 89 85 10 f1 ff ff 	mov    %rax,-0xef0(%rbp)
    cca4:	48 8d 05 45 a8 00 00 	lea    0xa845(%rip),%rax        # 174f0 <g_1150>
    ccab:	48 89 85 18 f1 ff ff 	mov    %rax,-0xee8(%rbp)
    ccb2:	66 c7 85 ce ee ff ff 	movw   $0xfffd,-0x1132(%rbp)
    ccb9:	fd ff 
    ccbb:	48 b8 bb 5e cc 90 34 	movabs $0x735a863490cc5ebb,%rax
    ccc2:	86 5a 73 
    ccc5:	48 89 85 c8 ef ff ff 	mov    %rax,-0x1038(%rbp)
    cccc:	48 8d 05 2d a8 00 00 	lea    0xa82d(%rip),%rax        # 17500 <g_1227>
    ccd3:	48 89 85 d0 ef ff ff 	mov    %rax,-0x1030(%rbp)
    ccda:	66 c7 85 d0 ee ff ff 	movw   $0xfff9,-0x1130(%rbp)
    cce1:	f9 ff 
    cce3:	66 c7 85 d2 ee ff ff 	movw   $0x46ec,-0x112e(%rbp)
    ccea:	ec 46 
    ccec:	c7 85 04 ef ff ff 01 	movl   $0x1,-0x10fc(%rbp)
    ccf3:	00 00 00 
    ccf6:	c6 85 c9 ee ff ff ff 	movb   $0xff,-0x1137(%rbp)
    ccfd:	48 8d 85 20 f1 ff ff 	lea    -0xee0(%rbp),%rax
    cd04:	48 83 c0 20          	add    $0x20,%rax
    cd08:	48 89 85 d8 ef ff ff 	mov    %rax,-0x1028(%rbp)
    cd0f:	c6 85 ca ee ff ff 00 	movb   $0x0,-0x1136(%rbp)
    cd16:	c7 85 08 ef ff ff 0c 	movl   $0x1e2ded0c,-0x10f8(%rbp)
    cd1d:	ed 2d 1e 
    cd20:	c7 85 50 f1 ff ff 43 	movl   $0xca97dc43,-0xeb0(%rbp)
    cd27:	dc 97 ca 
    cd2a:	c7 85 54 f1 ff ff f9 	movl   $0xfffffff9,-0xeac(%rbp)
    cd31:	ff ff ff 
    cd34:	c7 85 58 f1 ff ff 01 	movl   $0x1,-0xea8(%rbp)
    cd3b:	00 00 00 
    cd3e:	c7 85 5c f1 ff ff 01 	movl   $0x1,-0xea4(%rbp)
    cd45:	00 00 00 
    cd48:	c7 85 60 f1 ff ff f9 	movl   $0xfffffff9,-0xea0(%rbp)
    cd4f:	ff ff ff 
    cd52:	c7 85 64 f1 ff ff 43 	movl   $0xca97dc43,-0xe9c(%rbp)
    cd59:	dc 97 ca 
    cd5c:	c7 85 68 f1 ff ff f9 	movl   $0xfffffff9,-0xe98(%rbp)
    cd63:	ff ff ff 
    cd66:	c7 85 6c f1 ff ff 01 	movl   $0x1,-0xe94(%rbp)
    cd6d:	00 00 00 
    cd70:	c7 85 70 f1 ff ff 01 	movl   $0x1,-0xe90(%rbp)
    cd77:	00 00 00 
    cd7a:	c7 85 74 f1 ff ff f9 	movl   $0xfffffff9,-0xe8c(%rbp)
    cd81:	ff ff ff 
    cd84:	48 8d 05 15 d9 00 00 	lea    0xd915(%rip),%rax        # 1a6a0 <g_111>
    cd8b:	48 89 85 e0 ef ff ff 	mov    %rax,-0x1020(%rbp)
    cd92:	c7 45 d1 73 00 00 73 	movl   $0x73000073,-0x2f(%rbp)
    cd99:	66 c7 45 d5 00 00    	movw   $0x0,-0x2b(%rbp)
    cd9f:	c6 45 d7 73          	movb   $0x73,-0x29(%rbp)
    cda3:	c7 85 dc ee ff ff 00 	movl   $0x0,-0x1124(%rbp)
    cdaa:	00 00 00 
    cdad:	eb 1e                	jmp    cdcd <func_47+0x982>
    cdaf:	8b 85 dc ee ff ff    	mov    -0x1124(%rbp),%eax
    cdb5:	48 98                	cltq   
    cdb7:	48 8d 15 a2 e2 00 00 	lea    0xe2a2(%rip),%rdx        # 1b060 <g_1230>
    cdbe:	48 89 94 c5 20 f1 ff 	mov    %rdx,-0xee0(%rbp,%rax,8)
    cdc5:	ff 
    cdc6:	83 85 dc ee ff ff 01 	addl   $0x1,-0x1124(%rbp)
    cdcd:	83 bd dc ee ff ff 04 	cmpl   $0x4,-0x1124(%rbp)
    cdd4:	7e d9                	jle    cdaf <func_47+0x964>
    cdd6:	c7 85 dc ee ff ff 00 	movl   $0x0,-0x1124(%rbp)
    cddd:	00 00 00 
    cde0:	eb 1e                	jmp    ce00 <func_47+0x9b5>
    cde2:	8b 85 dc ee ff ff    	mov    -0x1124(%rbp),%eax
    cde8:	48 98                	cltq   
    cdea:	48 8d 95 80 f1 ff ff 	lea    -0xe80(%rbp),%rdx
    cdf1:	48 89 94 c5 90 f0 ff 	mov    %rdx,-0xf70(%rbp,%rax,8)
    cdf8:	ff 
    cdf9:	83 85 dc ee ff ff 01 	addl   $0x1,-0x1124(%rbp)
    ce00:	83 bd dc ee ff ff 01 	cmpl   $0x1,-0x1124(%rbp)
    ce07:	7e d9                	jle    cde2 <func_47+0x997>
    ce09:	c7 85 dc ee ff ff 00 	movl   $0x0,-0x1124(%rbp)
    ce10:	00 00 00 
    ce13:	eb 7d                	jmp    ce92 <func_47+0xa47>
    ce15:	c7 85 e0 ee ff ff 00 	movl   $0x0,-0x1120(%rbp)
    ce1c:	00 00 00 
    ce1f:	eb 61                	jmp    ce82 <func_47+0xa37>
    ce21:	c7 85 e4 ee ff ff 00 	movl   $0x0,-0x111c(%rbp)
    ce28:	00 00 00 
    ce2b:	eb 45                	jmp    ce72 <func_47+0xa27>
    ce2d:	8b 85 e4 ee ff ff    	mov    -0x111c(%rbp),%eax
    ce33:	48 63 c8             	movslq %eax,%rcx
    ce36:	8b 85 dc ee ff ff    	mov    -0x1124(%rbp),%eax
    ce3c:	48 63 d0             	movslq %eax,%rdx
    ce3f:	8b 85 e0 ee ff ff    	mov    -0x1120(%rbp),%eax
    ce45:	48 63 f0             	movslq %eax,%rsi
    ce48:	48 89 d0             	mov    %rdx,%rax
    ce4b:	48 01 c0             	add    %rax,%rax
    ce4e:	48 01 d0             	add    %rdx,%rax
    ce51:	48 01 f0             	add    %rsi,%rax
    ce54:	48 c1 e0 02          	shl    $0x2,%rax
    ce58:	48 8d 5d e0          	lea    -0x20(%rbp),%rbx
    ce5c:	48 01 d8             	add    %rbx,%rax
    ce5f:	48 01 c8             	add    %rcx,%rax
    ce62:	48 2d 5c 0f 00 00    	sub    $0xf5c,%rax
    ce68:	c6 00 01             	movb   $0x1,(%rax)
    ce6b:	83 85 e4 ee ff ff 01 	addl   $0x1,-0x111c(%rbp)
    ce72:	83 bd e4 ee ff ff 03 	cmpl   $0x3,-0x111c(%rbp)
    ce79:	7e b2                	jle    ce2d <func_47+0x9e2>
    ce7b:	83 85 e0 ee ff ff 01 	addl   $0x1,-0x1120(%rbp)
    ce82:	83 bd e0 ee ff ff 02 	cmpl   $0x2,-0x1120(%rbp)
    ce89:	7e 96                	jle    ce21 <func_47+0x9d6>
    ce8b:	83 85 dc ee ff ff 01 	addl   $0x1,-0x1124(%rbp)
    ce92:	83 bd dc ee ff ff 00 	cmpl   $0x0,-0x1124(%rbp)
    ce99:	0f 8e 76 ff ff ff    	jle    ce15 <func_47+0x9ca>
    ce9f:	8b 85 bc ee ff ff    	mov    -0x1144(%rbp),%eax
    cea5:	21 85 ec ee ff ff    	and    %eax,-0x1114(%rbp)
    ceab:	8b 05 87 a3 00 00    	mov    0xa387(%rip),%eax        # 17238 <g_55>
    ceb1:	35 d3 c1 b2 7c       	xor    $0x7cb2c1d3,%eax
    ceb6:	89 05 7c a3 00 00    	mov    %eax,0xa37c(%rip)        # 17238 <g_55>
    cebc:	8b 05 76 a3 00 00    	mov    0xa376(%rip),%eax        # 17238 <g_55>
    cec2:	85 c0                	test   %eax,%eax
    cec4:	74 0b                	je     ced1 <func_47+0xa86>
    cec6:	8b 05 5c a1 00 00    	mov    0xa15c(%rip),%eax        # 17028 <g_29>
    cecc:	e9 0b 09 00 00       	jmpq   d7dc <func_47+0x1391>
    ced1:	c7 85 0c ef ff ff 00 	movl   $0x0,-0x10f4(%rbp)
    ced8:	00 00 00 
    cedb:	c7 85 10 ef ff ff 01 	movl   $0x1,-0x10f0(%rbp)
    cee2:	00 00 00 
    cee5:	48 c7 85 e8 ef ff ff 	movq   $0xffffffffffffffff,-0x1018(%rbp)
    ceec:	ff ff ff ff 
    cef0:	48 8d 05 a9 d7 00 00 	lea    0xd7a9(%rip),%rax        # 1a6a0 <g_111>
    cef7:	48 89 85 60 ef ff ff 	mov    %rax,-0x10a0(%rbp)
    cefe:	48 8d 85 60 ef ff ff 	lea    -0x10a0(%rbp),%rax
    cf05:	48 89 85 f0 ef ff ff 	mov    %rax,-0x1010(%rbp)
    cf0c:	c7 85 e8 ee ff ff 00 	movl   $0x0,-0x1118(%rbp)
    cf13:	00 00 00 
    cf16:	eb 1e                	jmp    cf36 <func_47+0xaeb>
    cf18:	8b 85 e8 ee ff ff    	mov    -0x1118(%rbp),%eax
    cf1e:	48 98                	cltq   
    cf20:	48 8d 15 01 e1 00 00 	lea    0xe101(%rip),%rdx        # 1b028 <g_1091>
    cf27:	48 89 94 c5 c0 f0 ff 	mov    %rdx,-0xf40(%rbp,%rax,8)
    cf2e:	ff 
    cf2f:	83 85 e8 ee ff ff 01 	addl   $0x1,-0x1118(%rbp)
    cf36:	83 bd e8 ee ff ff 01 	cmpl   $0x1,-0x1118(%rbp)
    cf3d:	7e d9                	jle    cf18 <func_47+0xacd>
    cf3f:	0f b7 05 32 a2 00 00 	movzwl 0xa232(%rip),%eax        # 17178 <g_53+0x138>
    cf46:	98                   	cwtl   
    cf47:	89 05 eb a2 00 00    	mov    %eax,0xa2eb(%rip)        # 17238 <g_55>
    cf4d:	66 c7 85 b8 ee ff ff 	movw   $0xfff6,-0x1148(%rbp)
    cf54:	f6 ff 
    cf56:	e9 b6 06 00 00       	jmpq   d611 <func_47+0x11c6>
    cf5b:	c6 85 c8 ee ff ff 93 	movb   $0x93,-0x1138(%rbp)
    cf62:	c7 85 14 ef ff ff 05 	movl   $0x5,-0x10ec(%rbp)
    cf69:	00 00 00 
    cf6c:	48 c7 85 68 ef ff ff 	movq   $0x0,-0x1098(%rbp)
    cf73:	00 00 00 00 
    cf77:	48 8d 05 f0 a1 00 00 	lea    0xa1f0(%rip),%rax        # 1716e <g_53+0x12e>
    cf7e:	48 89 85 70 ef ff ff 	mov    %rax,-0x1090(%rbp)
    cf85:	c7 45 cc 01 01 01 01 	movl   $0x1010101,-0x34(%rbp)
    cf8c:	c6 45 d0 01          	movb   $0x1,-0x30(%rbp)
    cf90:	48 b8 b6 1e ac 99 4f 	movabs $0xd91b054f99ac1eb6,%rax
    cf97:	05 1b d9 
    cf9a:	48 89 85 f8 ef ff ff 	mov    %rax,-0x1008(%rbp)
    cfa1:	c7 85 18 ef ff ff 01 	movl   $0x1,-0x10e8(%rbp)
    cfa8:	00 00 00 
    cfab:	c7 05 83 a2 00 00 02 	movl   $0x2,0xa283(%rip)        # 17238 <g_55>
    cfb2:	00 00 00 
    cfb5:	e9 aa 00 00 00       	jmpq   d064 <func_47+0xc19>
    cfba:	48 8d 05 67 f4 00 00 	lea    0xf467(%rip),%rax        # 1c428 <g_65>
    cfc1:	48 89 85 10 f0 ff ff 	mov    %rax,-0xff0(%rbp)
    cfc8:	48 c7 85 78 ef ff ff 	movq   $0x0,-0x1088(%rbp)
    cfcf:	00 00 00 00 
    cfd3:	48 8d 85 78 ef ff ff 	lea    -0x1088(%rbp),%rax
    cfda:	48 89 85 18 f0 ff ff 	mov    %rax,-0xfe8(%rbp)
    cfe1:	c7 85 80 fa ff ff ff 	movl   $0xffffffff,-0x580(%rbp)
    cfe8:	ff ff ff 
    cfeb:	c7 85 84 fa ff ff ff 	movl   $0xffffffff,-0x57c(%rbp)
    cff2:	ff ff ff 
    cff5:	c7 85 88 fa ff ff ff 	movl   $0xffffffff,-0x578(%rbp)
    cffc:	ff ff ff 
    cfff:	c7 85 8c fa ff ff ff 	movl   $0xffffffff,-0x574(%rbp)
    d006:	ff ff ff 
    d009:	c7 85 90 fa ff ff ff 	movl   $0xffffffff,-0x570(%rbp)
    d010:	ff ff ff 
    d013:	c7 85 94 fa ff ff ff 	movl   $0xffffffff,-0x56c(%rbp)
    d01a:	ff ff ff 
    d01d:	c7 85 98 fa ff ff ff 	movl   $0xffffffff,-0x568(%rbp)
    d024:	ff ff ff 
    d027:	c7 85 9c fa ff ff ff 	movl   $0xffffffff,-0x564(%rbp)
    d02e:	ff ff ff 
    d031:	c7 85 a0 fa ff ff ff 	movl   $0xffffffff,-0x560(%rbp)
    d038:	ff ff ff 
    d03b:	c6 85 cb ee ff ff c0 	movb   $0xc0,-0x1135(%rbp)
    d042:	66 c7 85 d4 ee ff ff 	movw   $0xcf66,-0x112c(%rbp)
    d049:	66 cf 
    d04b:	c7 85 20 ef ff ff ff 	movl   $0xffffffff,-0x10e0(%rbp)
    d052:	ff ff ff 
    d055:	8b 05 dd a1 00 00    	mov    0xa1dd(%rip),%eax        # 17238 <g_55>
    d05b:	83 c0 01             	add    $0x1,%eax
    d05e:	89 05 d4 a1 00 00    	mov    %eax,0xa1d4(%rip)        # 17238 <g_55>
    d064:	8b 05 ce a1 00 00    	mov    0xa1ce(%rip),%eax        # 17238 <g_55>
    d06a:	83 f8 08             	cmp    $0x8,%eax
    d06d:	0f 8e 47 ff ff ff    	jle    cfba <func_47+0xb6f>
    d073:	8b 85 14 ef ff ff    	mov    -0x10ec(%rbp),%eax
    d079:	89 c6                	mov    %eax,%esi
    d07b:	bf 07 00 00 00       	mov    $0x7,%edi
    d080:	e8 78 be ff ff       	callq  8efd <safe_mod_func_uint32_t_u_u>
    d085:	85 c0                	test   %eax,%eax
    d087:	0f 84 fa 04 00 00    	je     d587 <func_47+0x113c>
    d08d:	48 8d 85 68 ef ff ff 	lea    -0x1098(%rbp),%rax
    d094:	48 89 85 00 f0 ff ff 	mov    %rax,-0x1000(%rbp)
    d09b:	48 c7 85 80 fa ff ff 	movq   $0x0,-0x580(%rbp)
    d0a2:	00 00 00 00 
    d0a6:	48 8d 05 fb dd 00 00 	lea    0xddfb(%rip),%rax        # 1aea8 <g_325>
    d0ad:	48 89 85 88 fa ff ff 	mov    %rax,-0x578(%rbp)
    d0b4:	48 8d 85 70 ef ff ff 	lea    -0x1090(%rbp),%rax
    d0bb:	48 89 85 90 fa ff ff 	mov    %rax,-0x570(%rbp)
    d0c2:	48 8d 05 df dd 00 00 	lea    0xdddf(%rip),%rax        # 1aea8 <g_325>
    d0c9:	48 89 85 98 fa ff ff 	mov    %rax,-0x568(%rbp)
    d0d0:	48 c7 85 a0 fa ff ff 	movq   $0x0,-0x560(%rbp)
    d0d7:	00 00 00 00 
    d0db:	48 c7 85 a8 fa ff ff 	movq   $0x0,-0x558(%rbp)
    d0e2:	00 00 00 00 
    d0e6:	48 8d 05 bb dd 00 00 	lea    0xddbb(%rip),%rax        # 1aea8 <g_325>
    d0ed:	48 89 85 b0 fa ff ff 	mov    %rax,-0x550(%rbp)
    d0f4:	48 8d 85 70 ef ff ff 	lea    -0x1090(%rbp),%rax
    d0fb:	48 89 85 b8 fa ff ff 	mov    %rax,-0x548(%rbp)
    d102:	48 8d 05 9f dd 00 00 	lea    0xdd9f(%rip),%rax        # 1aea8 <g_325>
    d109:	48 89 85 c0 fa ff ff 	mov    %rax,-0x540(%rbp)
    d110:	48 8d 05 91 dd 00 00 	lea    0xdd91(%rip),%rax        # 1aea8 <g_325>
    d117:	48 89 85 c8 fa ff ff 	mov    %rax,-0x538(%rbp)
    d11e:	48 c7 85 d0 fa ff ff 	movq   $0x0,-0x530(%rbp)
    d125:	00 00 00 00 
    d129:	48 8d 85 70 ef ff ff 	lea    -0x1090(%rbp),%rax
    d130:	48 89 85 d8 fa ff ff 	mov    %rax,-0x528(%rbp)
    d137:	48 8d 85 70 ef ff ff 	lea    -0x1090(%rbp),%rax
    d13e:	48 89 85 e0 fa ff ff 	mov    %rax,-0x520(%rbp)
    d145:	48 c7 85 e8 fa ff ff 	movq   $0x0,-0x518(%rbp)
    d14c:	00 00 00 00 
    d150:	48 8d 05 51 dd 00 00 	lea    0xdd51(%rip),%rax        # 1aea8 <g_325>
    d157:	48 89 85 f0 fa ff ff 	mov    %rax,-0x510(%rbp)
    d15e:	48 c7 85 f8 fa ff ff 	movq   $0x0,-0x508(%rbp)
    d165:	00 00 00 00 
    d169:	48 8d 85 70 ef ff ff 	lea    -0x1090(%rbp),%rax
    d170:	48 89 85 00 fb ff ff 	mov    %rax,-0x500(%rbp)
    d177:	48 8d 85 70 ef ff ff 	lea    -0x1090(%rbp),%rax
    d17e:	48 89 85 08 fb ff ff 	mov    %rax,-0x4f8(%rbp)
    d185:	48 c7 85 10 fb ff ff 	movq   $0x0,-0x4f0(%rbp)
    d18c:	00 00 00 00 
    d190:	48 c7 85 18 fb ff ff 	movq   $0x0,-0x4e8(%rbp)
    d197:	00 00 00 00 
    d19b:	48 8d 05 06 dd 00 00 	lea    0xdd06(%rip),%rax        # 1aea8 <g_325>
    d1a2:	48 89 85 20 fb ff ff 	mov    %rax,-0x4e0(%rbp)
    d1a9:	48 8d 85 70 ef ff ff 	lea    -0x1090(%rbp),%rax
    d1b0:	48 89 85 28 fb ff ff 	mov    %rax,-0x4d8(%rbp)
    d1b7:	48 8d 05 ea dc 00 00 	lea    0xdcea(%rip),%rax        # 1aea8 <g_325>
    d1be:	48 89 85 30 fb ff ff 	mov    %rax,-0x4d0(%rbp)
    d1c5:	48 c7 85 38 fb ff ff 	movq   $0x0,-0x4c8(%rbp)
    d1cc:	00 00 00 00 
    d1d0:	48 c7 85 40 fb ff ff 	movq   $0x0,-0x4c0(%rbp)
    d1d7:	00 00 00 00 
    d1db:	48 8d 05 c6 dc 00 00 	lea    0xdcc6(%rip),%rax        # 1aea8 <g_325>
    d1e2:	48 89 85 48 fb ff ff 	mov    %rax,-0x4b8(%rbp)
    d1e9:	48 8d 85 70 ef ff ff 	lea    -0x1090(%rbp),%rax
    d1f0:	48 89 85 50 fb ff ff 	mov    %rax,-0x4b0(%rbp)
    d1f7:	48 8d 05 aa dc 00 00 	lea    0xdcaa(%rip),%rax        # 1aea8 <g_325>
    d1fe:	48 89 85 58 fb ff ff 	mov    %rax,-0x4a8(%rbp)
    d205:	48 c7 85 60 fb ff ff 	movq   $0x0,-0x4a0(%rbp)
    d20c:	00 00 00 00 
    d210:	48 8d 05 91 dc 00 00 	lea    0xdc91(%rip),%rax        # 1aea8 <g_325>
    d217:	48 89 85 68 fb ff ff 	mov    %rax,-0x498(%rbp)
    d21e:	48 8d 05 83 dc 00 00 	lea    0xdc83(%rip),%rax        # 1aea8 <g_325>
    d225:	48 89 85 70 fb ff ff 	mov    %rax,-0x490(%rbp)
    d22c:	48 8d 05 75 dc 00 00 	lea    0xdc75(%rip),%rax        # 1aea8 <g_325>
    d233:	48 89 85 78 fb ff ff 	mov    %rax,-0x488(%rbp)
    d23a:	48 8d 05 67 dc 00 00 	lea    0xdc67(%rip),%rax        # 1aea8 <g_325>
    d241:	48 89 85 80 fb ff ff 	mov    %rax,-0x480(%rbp)
    d248:	48 c7 85 88 fb ff ff 	movq   $0x0,-0x478(%rbp)
    d24f:	00 00 00 00 
    d253:	48 8d 05 4e dc 00 00 	lea    0xdc4e(%rip),%rax        # 1aea8 <g_325>
    d25a:	48 89 85 90 fb ff ff 	mov    %rax,-0x470(%rbp)
    d261:	48 8d 05 40 dc 00 00 	lea    0xdc40(%rip),%rax        # 1aea8 <g_325>
    d268:	48 89 85 98 fb ff ff 	mov    %rax,-0x468(%rbp)
    d26f:	48 8d 05 32 dc 00 00 	lea    0xdc32(%rip),%rax        # 1aea8 <g_325>
    d276:	48 89 85 a0 fb ff ff 	mov    %rax,-0x460(%rbp)
    d27d:	48 8d 05 24 dc 00 00 	lea    0xdc24(%rip),%rax        # 1aea8 <g_325>
    d284:	48 89 85 a8 fb ff ff 	mov    %rax,-0x458(%rbp)
    d28b:	48 8d 05 16 dc 00 00 	lea    0xdc16(%rip),%rax        # 1aea8 <g_325>
    d292:	48 89 85 b0 fb ff ff 	mov    %rax,-0x450(%rbp)
    d299:	48 8d 05 08 dc 00 00 	lea    0xdc08(%rip),%rax        # 1aea8 <g_325>
    d2a0:	48 89 85 b8 fb ff ff 	mov    %rax,-0x448(%rbp)
    d2a7:	48 c7 85 c0 fb ff ff 	movq   $0x0,-0x440(%rbp)
    d2ae:	00 00 00 00 
    d2b2:	48 8d 05 ef db 00 00 	lea    0xdbef(%rip),%rax        # 1aea8 <g_325>
    d2b9:	48 89 85 c8 fb ff ff 	mov    %rax,-0x438(%rbp)
    d2c0:	48 8d 05 e1 db 00 00 	lea    0xdbe1(%rip),%rax        # 1aea8 <g_325>
    d2c7:	48 89 85 d0 fb ff ff 	mov    %rax,-0x430(%rbp)
    d2ce:	48 8d 05 d3 db 00 00 	lea    0xdbd3(%rip),%rax        # 1aea8 <g_325>
    d2d5:	48 89 85 d8 fb ff ff 	mov    %rax,-0x428(%rbp)
    d2dc:	48 8d 05 c5 db 00 00 	lea    0xdbc5(%rip),%rax        # 1aea8 <g_325>
    d2e3:	48 89 85 e0 fb ff ff 	mov    %rax,-0x420(%rbp)
    d2ea:	c7 85 1c ef ff ff 56 	movl   $0x41687f56,-0x10e4(%rbp)
    d2f1:	7f 68 41 
    d2f4:	48 8b 95 68 ef ff ff 	mov    -0x1098(%rbp),%rdx
    d2fb:	48 8b 85 00 f0 ff ff 	mov    -0x1000(%rbp),%rax
    d302:	48 89 10             	mov    %rdx,(%rax)
    d305:	48 8b 05 b4 dd 00 00 	mov    0xddb4(%rip),%rax        # 1b0c0 <g_1285>
    d30c:	48 8b 95 00 f0 ff ff 	mov    -0x1000(%rbp),%rdx
    d313:	48 8b 12             	mov    (%rdx),%rdx
    d316:	48 89 10             	mov    %rdx,(%rax)
    d319:	83 bd bc ee ff ff 00 	cmpl   $0x0,-0x1144(%rbp)
    d320:	0f 85 da 02 00 00    	jne    d600 <func_47+0x11b5>
    d326:	83 bd 1c ef ff ff 00 	cmpl   $0x0,-0x10e4(%rbp)
    d32d:	0f 85 82 00 00 00    	jne    d3b5 <func_47+0xf6a>
    d333:	0f b6 45 cd          	movzbl -0x33(%rbp),%eax
    d337:	0f b6 d8             	movzbl %al,%ebx
    d33a:	0f b6 45 cd          	movzbl -0x33(%rbp),%eax
    d33e:	0f be d0             	movsbl %al,%edx
    d341:	48 8b 05 10 dd 00 00 	mov    0xdd10(%rip),%rax        # 1b058 <g_1201>
    d348:	48 8b 00             	mov    (%rax),%rax
    d34b:	48 8b 00             	mov    (%rax),%rax
    d34e:	48 8b 00             	mov    (%rax),%rax
    d351:	0f b6 00             	movzbl (%rax),%eax
    d354:	0f b6 c0             	movzbl %al,%eax
    d357:	39 85 bc ee ff ff    	cmp    %eax,-0x1144(%rbp)
    d35d:	0f 9f c0             	setg   %al
    d360:	89 c1                	mov    %eax,%ecx
    d362:	0f b6 05 3f a1 00 00 	movzbl 0xa13f(%rip),%eax        # 174a8 <g_969>
    d369:	21 c8                	and    %ecx,%eax
    d36b:	0f be c0             	movsbl %al,%eax
    d36e:	89 d6                	mov    %edx,%esi
    d370:	89 c7                	mov    %eax,%edi
    d372:	e8 9b ae ff ff       	callq  8212 <safe_mul_func_int8_t_s_s>
    d377:	48 0f be d0          	movsbq %al,%rdx
    d37b:	8b 85 1c ef ff ff    	mov    -0x10e4(%rbp),%eax
    d381:	48 63 c8             	movslq %eax,%rcx
    d384:	48 8b 05 9d a0 00 00 	mov    0xa09d(%rip),%rax        # 17428 <g_412>
    d38b:	48 31 c8             	xor    %rcx,%rax
    d38e:	48 89 05 93 a0 00 00 	mov    %rax,0xa093(%rip)        # 17428 <g_412>
    d395:	48 8b 05 8c a0 00 00 	mov    0xa08c(%rip),%rax        # 17428 <g_412>
    d39c:	48 85 c0             	test   %rax,%rax
    d39f:	0f 94 c0             	sete   %al
    d3a2:	0f b6 c0             	movzbl %al,%eax
    d3a5:	48 89 d6             	mov    %rdx,%rsi
    d3a8:	48 89 c7             	mov    %rax,%rdi
    d3ab:	e8 ff bc ff ff       	callq  90af <safe_div_func_uint64_t_u_u>
    d3b0:	48 39 c3             	cmp    %rax,%rbx
    d3b3:	75 07                	jne    d3bc <func_47+0xf71>
    d3b5:	b8 01 00 00 00       	mov    $0x1,%eax
    d3ba:	eb 05                	jmp    d3c1 <func_47+0xf76>
    d3bc:	b8 00 00 00 00       	mov    $0x0,%eax
    d3c1:	83 c8 7e             	or     $0x7e,%eax
    d3c4:	0f be d0             	movsbl %al,%edx
    d3c7:	48 8b 85 70 ef ff ff 	mov    -0x1090(%rbp),%rax
    d3ce:	48 89 85 80 f2 ff ff 	mov    %rax,-0xd80(%rbp)
    d3d5:	48 8b b5 80 f2 ff ff 	mov    -0xd80(%rbp),%rsi
    d3dc:	48 8b 85 40 ef ff ff 	mov    -0x10c0(%rbp),%rax
    d3e3:	48 8b 00             	mov    (%rax),%rax
    d3e6:	48 8d 8d b8 ee ff ff 	lea    -0x1148(%rbp),%rcx
    d3ed:	48 89 08             	mov    %rcx,(%rax)
    d3f0:	48 8b 00             	mov    (%rax),%rax
    d3f3:	48 39 c6             	cmp    %rax,%rsi
    d3f6:	0f 94 c0             	sete   %al
    d3f9:	0f b6 c0             	movzbl %al,%eax
    d3fc:	89 d6                	mov    %edx,%esi
    d3fe:	89 c7                	mov    %eax,%edi
    d400:	e8 65 ae ff ff       	callq  826a <safe_div_func_int8_t_s_s>
    d405:	66 98                	cbtw   
    d407:	0f b7 c0             	movzwl %ax,%eax
    d40a:	be 07 00 00 00       	mov    $0x7,%esi
    d40f:	89 c7                	mov    %eax,%edi
    d411:	e8 32 ba ff ff       	callq  8e48 <safe_rshift_func_uint16_t_u_s>
    d416:	66 85 c0             	test   %ax,%ax
    d419:	74 43                	je     d45e <func_47+0x1013>
    d41b:	48 b8 6f f8 3f 5b 74 	movabs $0xb81411745b3ff86f,%rax
    d422:	11 14 b8 
    d425:	48 89 85 08 f0 ff ff 	mov    %rax,-0xff8(%rbp)
    d42c:	48 c7 85 e8 ef ff ff 	movq   $0xd,-0x1018(%rbp)
    d433:	0d 00 00 00 
    d437:	48 83 bd e8 ef ff ff 	cmpq   $0x7,-0x1018(%rbp)
    d43e:	07 
    d43f:	74 0c                	je     d44d <func_47+0x1002>
    d441:	48 8b 85 08 f0 ff ff 	mov    -0xff8(%rbp),%rax
    d448:	e9 8f 03 00 00       	jmpq   d7dc <func_47+0x1391>
    d44d:	0f b7 85 b8 ee ff ff 	movzwl -0x1148(%rbp),%eax
    d454:	66 85 c0             	test   %ax,%ax
    d457:	74 19                	je     d472 <func_47+0x1027>
    d459:	e9 c4 01 00 00       	jmpq   d622 <func_47+0x11d7>
    d45e:	48 8b 15 c3 db 00 00 	mov    0xdbc3(%rip),%rdx        # 1b028 <g_1091>
    d465:	48 8b 05 bc db 00 00 	mov    0xdbbc(%rip),%rax        # 1b028 <g_1091>
    d46c:	48 8b 12             	mov    (%rdx),%rdx
    d46f:	48 89 10             	mov    %rdx,(%rax)
    d472:	8b 85 b4 ee ff ff    	mov    -0x114c(%rbp),%eax
    d478:	0f bf d8             	movswl %ax,%ebx
    d47b:	8b 85 b4 ee ff ff    	mov    -0x114c(%rbp),%eax
    d481:	44 0f b7 e0          	movzwl %ax,%r12d
    d485:	48 8b 85 a0 ef ff ff 	mov    -0x1060(%rbp),%rax
    d48c:	48 89 05 c5 f0 00 00 	mov    %rax,0xf0c5(%rip)        # 1c558 <g_1322>
    d493:	48 8b 05 be f0 00 00 	mov    0xf0be(%rip),%rax        # 1c558 <g_1322>
    d49a:	48 8d 95 68 ef ff ff 	lea    -0x1098(%rbp),%rdx
    d4a1:	48 89 95 00 f0 ff ff 	mov    %rdx,-0x1000(%rbp)
    d4a8:	48 39 85 00 f0 ff ff 	cmp    %rax,-0x1000(%rbp)
    d4af:	0f 94 c0             	sete   %al
    d4b2:	0f b6 c0             	movzbl %al,%eax
    d4b5:	89 c6                	mov    %eax,%esi
    d4b7:	bf 00 00 00 00       	mov    $0x0,%edi
    d4bc:	e8 34 af ff ff       	callq  83f5 <safe_mul_func_int16_t_s_s>
    d4c1:	0f bf d0             	movswl %ax,%edx
    d4c4:	8b 85 b4 ee ff ff    	mov    -0x114c(%rbp),%eax
    d4ca:	0f b7 c0             	movzwl %ax,%eax
    d4cd:	89 d6                	mov    %edx,%esi
    d4cf:	89 c7                	mov    %eax,%edi
    d4d1:	e8 e8 b8 ff ff       	callq  8dbe <safe_lshift_func_uint16_t_u_s>
    d4d6:	0f b7 d0             	movzwl %ax,%edx
    d4d9:	48 8b 85 f8 ef ff ff 	mov    -0x1008(%rbp),%rax
    d4e0:	89 85 14 ef ff ff    	mov    %eax,-0x10ec(%rbp)
    d4e6:	81 bd 14 ef ff ff 73 	cmpl   $0x6d73,-0x10ec(%rbp)
    d4ed:	6d 00 00 
    d4f0:	0f 9f c1             	setg   %cl
    d4f3:	48 8b 85 30 ef ff ff 	mov    -0x10d0(%rbp),%rax
    d4fa:	0f b6 c9             	movzbl %cl,%ecx
    d4fd:	48 89 08             	mov    %rcx,(%rax)
    d500:	48 8b 00             	mov    (%rax),%rax
    d503:	48 89 d6             	mov    %rdx,%rsi
    d506:	48 89 c7             	mov    %rax,%rdi
    d509:	e8 33 b3 ff ff       	callq  8841 <safe_add_func_int64_t_s_s>
    d50e:	41 89 c5             	mov    %eax,%r13d
    d511:	8b 05 a9 a0 00 00    	mov    0xa0a9(%rip),%eax        # 175c0 <g_1325>
    d517:	85 c0                	test   %eax,%eax
    d519:	75 0f                	jne    d52a <func_47+0x10df>
    d51b:	48 8b 05 0e db 00 00 	mov    0xdb0e(%rip),%rax        # 1b030 <g_1176>
    d522:	48 8b 00             	mov    (%rax),%rax
    d525:	48 85 c0             	test   %rax,%rax
    d528:	74 07                	je     d531 <func_47+0x10e6>
    d52a:	ba 01 00 00 00       	mov    $0x1,%edx
    d52f:	eb 05                	jmp    d536 <func_47+0x10eb>
    d531:	ba 00 00 00 00       	mov    $0x0,%edx
    d536:	48 8b 05 eb da 00 00 	mov    0xdaeb(%rip),%rax        # 1b028 <g_1091>
    d53d:	48 8b 00             	mov    (%rax),%rax
    d540:	8b 00                	mov    (%rax),%eax
    d542:	89 d6                	mov    %edx,%esi
    d544:	89 c7                	mov    %eax,%edi
    d546:	e8 81 b1 ff ff       	callq  86cc <safe_mod_func_int32_t_s_s>
    d54b:	44 09 e8             	or     %r13d,%eax
    d54e:	0f b6 c0             	movzbl %al,%eax
    d551:	be 07 00 00 00       	mov    $0x7,%esi
    d556:	89 c7                	mov    %eax,%edi
    d558:	e8 a8 b6 ff ff       	callq  8c05 <safe_lshift_func_uint8_t_u_s>
    d55d:	0f b6 c0             	movzbl %al,%eax
    d560:	44 89 e6             	mov    %r12d,%esi
    d563:	89 c7                	mov    %eax,%edi
    d565:	e8 24 b8 ff ff       	callq  8d8e <safe_div_func_uint16_t_u_u>
    d56a:	98                   	cwtl   
    d56b:	89 de                	mov    %ebx,%esi
    d56d:	89 c7                	mov    %eax,%edi
    d56f:	e8 3f ae ff ff       	callq  83b3 <safe_add_func_int16_t_s_s>
    d574:	98                   	cwtl   
    d575:	89 85 18 ef ff ff    	mov    %eax,-0x10e8(%rbp)
    d57b:	c7 05 b7 9c 00 00 00 	movl   $0x0,0x9cb7(%rip)        # 1723c <g_90>
    d582:	00 00 00 
    d585:	eb 6e                	jmp    d5f5 <func_47+0x11aa>
    d587:	0f b6 45 ce          	movzbl -0x32(%rbp),%eax
    d58b:	0f b6 c0             	movzbl %al,%eax
    d58e:	e9 49 02 00 00       	jmpq   d7dc <func_47+0x1391>
    d593:	c7 05 03 9f 00 00 00 	movl   $0x0,0x9f03(%rip)        # 174a0 <g_949>
    d59a:	00 00 00 
    d59d:	eb 3c                	jmp    d5db <func_47+0x1190>
    d59f:	8b 05 97 9c 00 00    	mov    0x9c97(%rip),%eax        # 1723c <g_90>
    d5a5:	8b 15 f5 9e 00 00    	mov    0x9ef5(%rip),%edx        # 174a0 <g_949>
    d5ab:	48 63 ca             	movslq %edx,%rcx
    d5ae:	48 63 d0             	movslq %eax,%rdx
    d5b1:	48 89 d0             	mov    %rdx,%rax
    d5b4:	48 c1 e0 03          	shl    $0x3,%rax
    d5b8:	48 01 d0             	add    %rdx,%rax
    d5bb:	48 8d 14 08          	lea    (%rax,%rcx,1),%rdx
    d5bf:	48 8d 05 fa 9d 00 00 	lea    0x9dfa(%rip),%rax        # 173c0 <g_277>
    d5c6:	48 01 d0             	add    %rdx,%rax
    d5c9:	c6 00 77             	movb   $0x77,(%rax)
    d5cc:	8b 05 ce 9e 00 00    	mov    0x9ece(%rip),%eax        # 174a0 <g_949>
    d5d2:	83 c0 01             	add    $0x1,%eax
    d5d5:	89 05 c5 9e 00 00    	mov    %eax,0x9ec5(%rip)        # 174a0 <g_949>
    d5db:	8b 05 bf 9e 00 00    	mov    0x9ebf(%rip),%eax        # 174a0 <g_949>
    d5e1:	83 f8 08             	cmp    $0x8,%eax
    d5e4:	7e b9                	jle    d59f <func_47+0x1154>
    d5e6:	8b 05 50 9c 00 00    	mov    0x9c50(%rip),%eax        # 1723c <g_90>
    d5ec:	83 c0 01             	add    $0x1,%eax
    d5ef:	89 05 47 9c 00 00    	mov    %eax,0x9c47(%rip)        # 1723c <g_90>
    d5f5:	8b 05 41 9c 00 00    	mov    0x9c41(%rip),%eax        # 1723c <g_90>
    d5fb:	83 f8 02             	cmp    $0x2,%eax
    d5fe:	7e 93                	jle    d593 <func_47+0x1148>
    d600:	0f b7 85 b8 ee ff ff 	movzwl -0x1148(%rbp),%eax
    d607:	83 e8 01             	sub    $0x1,%eax
    d60a:	66 89 85 b8 ee ff ff 	mov    %ax,-0x1148(%rbp)
    d611:	0f b7 85 b8 ee ff ff 	movzwl -0x1148(%rbp),%eax
    d618:	66 83 f8 e3          	cmp    $0xffe3,%ax
    d61c:	0f 85 39 f9 ff ff    	jne    cf5b <func_47+0xb10>
    d622:	c7 85 b4 ee ff ff f6 	movl   $0xfffffff6,-0x114c(%rbp)
    d629:	ff ff ff 
    d62c:	e9 91 01 00 00       	jmpq   d7c2 <func_47+0x1377>
    d631:	48 8d 05 0c 9c 00 00 	lea    0x9c0c(%rip),%rax        # 17244 <g_125>
    d638:	48 89 85 20 f0 ff ff 	mov    %rax,-0xfe0(%rbp)
    d63f:	48 8d 05 1a da 00 00 	lea    0xda1a(%rip),%rax        # 1b060 <g_1230>
    d646:	48 89 85 28 f0 ff ff 	mov    %rax,-0xfd8(%rbp)
    d64d:	48 8d 05 0c da 00 00 	lea    0xda0c(%rip),%rax        # 1b060 <g_1230>
    d654:	48 89 85 68 ef ff ff 	mov    %rax,-0x1098(%rbp)
    d65b:	48 8d 85 68 ef ff ff 	lea    -0x1098(%rbp),%rax
    d662:	48 89 85 30 f0 ff ff 	mov    %rax,-0xfd0(%rbp)
    d669:	48 8d 05 58 9f 00 00 	lea    0x9f58(%rip),%rax        # 175c8 <g_1344>
    d670:	48 89 85 70 ef ff ff 	mov    %rax,-0x1090(%rbp)
    d677:	48 8d 85 70 ef ff ff 	lea    -0x1090(%rbp),%rax
    d67e:	48 89 85 78 ef ff ff 	mov    %rax,-0x1088(%rbp)
    d685:	48 8d 85 78 ef ff ff 	lea    -0x1088(%rbp),%rax
    d68c:	48 89 85 38 f0 ff ff 	mov    %rax,-0xfc8(%rbp)
    d693:	c7 85 24 ef ff ff 22 	movl   $0xa327e722,-0x10dc(%rbp)
    d69a:	e7 27 a3 
    d69d:	c6 85 cc ee ff ff 01 	movb   $0x1,-0x1134(%rbp)
    d6a4:	48 c7 85 40 f0 ff ff 	movq   $0x0,-0xfc0(%rbp)
    d6ab:	00 00 00 00 
    d6af:	c6 85 cd ee ff ff 01 	movb   $0x1,-0x1133(%rbp)
    d6b6:	66 c7 85 d6 ee ff ff 	movw   $0xfffb,-0x112a(%rbp)
    d6bd:	fb ff 
    d6bf:	66 c7 85 d8 ee ff ff 	movw   $0x4c25,-0x1128(%rbp)
    d6c6:	25 4c 
    d6c8:	48 8d 85 80 fa ff ff 	lea    -0x580(%rbp),%rax
    d6cf:	48 8d 15 ea c1 00 00 	lea    0xc1ea(%rip),%rdx        # 198c0 <g_4249+0xa20>
    d6d6:	b9 a8 00 00 00       	mov    $0xa8,%ecx
    d6db:	48 89 c7             	mov    %rax,%rdi
    d6de:	48 89 d6             	mov    %rdx,%rsi
    d6e1:	f3 48 a5             	rep movsq %ds:(%rsi),%es:(%rdi)
    d6e4:	66 c7 85 da ee ff ff 	movw   $0xfff8,-0x1126(%rbp)
    d6eb:	f8 ff 
    d6ed:	48 8d 05 54 d0 00 00 	lea    0xd054(%rip),%rax        # 1a748 <g_165>
    d6f4:	48 89 85 48 f0 ff ff 	mov    %rax,-0xfb8(%rbp)
    d6fb:	48 c7 85 50 f0 ff ff 	movq   $0x0,-0xfb0(%rbp)
    d702:	00 00 00 00 
    d706:	c7 85 28 ef ff ff fa 	movl   $0xfffffffa,-0x10d8(%rbp)
    d70d:	ff ff ff 
    d710:	48 8d 05 b1 9e 00 00 	lea    0x9eb1(%rip),%rax        # 175c8 <g_1344>
    d717:	48 89 85 58 f0 ff ff 	mov    %rax,-0xfa8(%rbp)
    d71e:	48 8d 05 d3 d9 00 00 	lea    0xd9d3(%rip),%rax        # 1b0f8 <g_1698>
    d725:	48 89 85 60 f0 ff ff 	mov    %rax,-0xfa0(%rbp)
    d72c:	c7 85 2c ef ff ff cf 	movl   $0x9f5042cf,-0x10d4(%rbp)
    d733:	42 50 9f 
    d736:	c7 85 c0 f0 ff ff fb 	movl   $0xfffffffb,-0xf40(%rbp)
    d73d:	ff ff ff 
    d740:	c7 85 c4 f0 ff ff 69 	movl   $0x2b0fdc69,-0xf3c(%rbp)
    d747:	dc 0f 2b 
    d74a:	c7 85 c8 f0 ff ff 69 	movl   $0x2b0fdc69,-0xf38(%rbp)
    d751:	dc 0f 2b 
    d754:	c7 85 cc f0 ff ff fb 	movl   $0xfffffffb,-0xf34(%rbp)
    d75b:	ff ff ff 
    d75e:	c7 85 d0 f0 ff ff 69 	movl   $0x2b0fdc69,-0xf30(%rbp)
    d765:	dc 0f 2b 
    d768:	c7 85 d4 f0 ff ff 69 	movl   $0x2b0fdc69,-0xf2c(%rbp)
    d76f:	dc 0f 2b 
    d772:	c7 85 d8 f0 ff ff fb 	movl   $0xfffffffb,-0xf28(%rbp)
    d779:	ff ff ff 
    d77c:	48 8d 05 b5 ed 00 00 	lea    0xedb5(%rip),%rax        # 1c538 <g_685>
    d783:	48 89 85 68 f0 ff ff 	mov    %rax,-0xf98(%rbp)
    d78a:	48 8d 05 9f 9e 00 00 	lea    0x9e9f(%rip),%rax        # 17630 <g_1583>
    d791:	48 89 85 70 f0 ff ff 	mov    %rax,-0xf90(%rbp)
    d798:	48 8b 05 89 d8 00 00 	mov    0xd889(%rip),%rax        # 1b028 <g_1091>
    d79f:	48 8b 95 20 f0 ff ff 	mov    -0xfe0(%rbp),%rdx
    d7a6:	48 89 10             	mov    %rdx,(%rax)
    d7a9:	8b 85 b4 ee ff ff    	mov    -0x114c(%rbp),%eax
    d7af:	be 07 00 00 00       	mov    $0x7,%esi
    d7b4:	48 89 c7             	mov    %rax,%rdi
    d7b7:	e8 72 b8 ff ff       	callq  902e <safe_add_func_uint64_t_u_u>
    d7bc:	89 85 b4 ee ff ff    	mov    %eax,-0x114c(%rbp)
    d7c2:	83 bd b4 ee ff ff 09 	cmpl   $0x9,-0x114c(%rbp)
    d7c9:	0f 84 62 fe ff ff    	je     d631 <func_47+0x11e6>
    d7cf:	48 8b 05 9a dc 00 00 	mov    0xdc9a(%rip),%rax        # 1b470 <g_2594>
    d7d6:	48 8b 00             	mov    (%rax),%rax
    d7d9:	0f b7 00             	movzwl (%rax),%eax
    d7dc:	48 8b 5d d8          	mov    -0x28(%rbp),%rbx
    d7e0:	64 48 33 1c 25 28 00 	xor    %fs:0x28,%rbx
    d7e7:	00 00 
    d7e9:	74 05                	je     d7f0 <func_47+0x13a5>
    d7eb:	e8 80 a8 ff ff       	callq  8070 <__stack_chk_fail@plt>
    d7f0:	48 81 c4 38 11 00 00 	add    $0x1138,%rsp
    d7f7:	5b                   	pop    %rbx
    d7f8:	41 5c                	pop    %r12
    d7fa:	41 5d                	pop    %r13
    d7fc:	5d                   	pop    %rbp
    d7fd:	c3                   	retq   

000000000000d7fe <func_59>:
    d7fe:	f3 0f 1e fa          	endbr64 
    d802:	55                   	push   %rbp
    d803:	48 89 e5             	mov    %rsp,%rbp
    d806:	41 57                	push   %r15
    d808:	41 56                	push   %r14
    d80a:	41 55                	push   %r13
    d80c:	41 54                	push   %r12
    d80e:	53                   	push   %rbx
    d80f:	48 81 ec 78 0f 00 00 	sub    $0xf78,%rsp
    d816:	48 89 bd 88 f0 ff ff 	mov    %rdi,-0xf78(%rbp)
    d81d:	48 89 b5 80 f0 ff ff 	mov    %rsi,-0xf80(%rbp)
    d824:	48 89 95 78 f0 ff ff 	mov    %rdx,-0xf88(%rbp)
    d82b:	89 8d 74 f0 ff ff    	mov    %ecx,-0xf8c(%rbp)
    d831:	64 48 8b 04 25 28 00 	mov    %fs:0x28,%rax
    d838:	00 00 
    d83a:	48 89 45 c8          	mov    %rax,-0x38(%rbp)
    d83e:	31 c0                	xor    %eax,%eax
    d840:	c7 85 d8 f0 ff ff 01 	movl   $0x1,-0xf28(%rbp)
    d847:	00 00 00 
    d84a:	c7 85 d4 f0 ff ff 01 	movl   $0x1,-0xf2c(%rbp)
    d851:	00 00 00 
    d854:	c7 85 ac f0 ff ff f8 	movl   $0xfffffff8,-0xf54(%rbp)
    d85b:	ff ff ff 
    d85e:	48 8d 05 2a 9b 00 00 	lea    0x9b2a(%rip),%rax        # 1738f <g_275+0xf>
    d865:	48 89 85 30 f4 ff ff 	mov    %rax,-0xbd0(%rbp)
    d86c:	48 8d 05 69 9b 00 00 	lea    0x9b69(%rip),%rax        # 173dc <g_283>
    d873:	48 89 85 38 f4 ff ff 	mov    %rax,-0xbc8(%rbp)
    d87a:	48 8d 05 0e 9b 00 00 	lea    0x9b0e(%rip),%rax        # 1738f <g_275+0xf>
    d881:	48 89 85 40 f4 ff ff 	mov    %rax,-0xbc0(%rbp)
    d888:	48 8d 05 4d 9b 00 00 	lea    0x9b4d(%rip),%rax        # 173dc <g_283>
    d88f:	48 89 85 48 f4 ff ff 	mov    %rax,-0xbb8(%rbp)
    d896:	48 8d 05 f2 9a 00 00 	lea    0x9af2(%rip),%rax        # 1738f <g_275+0xf>
    d89d:	48 89 85 50 f4 ff ff 	mov    %rax,-0xbb0(%rbp)
    d8a4:	48 8d 05 31 9b 00 00 	lea    0x9b31(%rip),%rax        # 173dc <g_283>
    d8ab:	48 89 85 58 f4 ff ff 	mov    %rax,-0xba8(%rbp)
    d8b2:	48 8d 05 d6 9a 00 00 	lea    0x9ad6(%rip),%rax        # 1738f <g_275+0xf>
    d8b9:	48 89 85 60 f4 ff ff 	mov    %rax,-0xba0(%rbp)
    d8c0:	48 8d 05 15 9b 00 00 	lea    0x9b15(%rip),%rax        # 173dc <g_283>
    d8c7:	48 89 85 68 f4 ff ff 	mov    %rax,-0xb98(%rbp)
    d8ce:	48 8d 05 ba 9a 00 00 	lea    0x9aba(%rip),%rax        # 1738f <g_275+0xf>
    d8d5:	48 89 85 70 f4 ff ff 	mov    %rax,-0xb90(%rbp)
    d8dc:	48 8d 05 f9 9a 00 00 	lea    0x9af9(%rip),%rax        # 173dc <g_283>
    d8e3:	48 89 85 78 f4 ff ff 	mov    %rax,-0xb88(%rbp)
    d8ea:	48 8d 05 9e 9a 00 00 	lea    0x9a9e(%rip),%rax        # 1738f <g_275+0xf>
    d8f1:	48 89 85 80 f4 ff ff 	mov    %rax,-0xb80(%rbp)
    d8f8:	48 8d 05 dd 9a 00 00 	lea    0x9add(%rip),%rax        # 173dc <g_283>
    d8ff:	48 89 85 88 f4 ff ff 	mov    %rax,-0xb78(%rbp)
    d906:	c7 85 b0 f0 ff ff f7 	movl   $0xfffffff7,-0xf50(%rbp)
    d90d:	ff ff ff 
    d910:	c7 85 b4 f0 ff ff 07 	movl   $0x7,-0xf4c(%rbp)
    d917:	00 00 00 
    d91a:	c7 85 b8 f0 ff ff 00 	movl   $0x0,-0xf48(%rbp)
    d921:	00 00 00 
    d924:	c7 85 dc f0 ff ff ea 	movl   $0x9f0b2fea,-0xf24(%rbp)
    d92b:	2f 0b 9f 
    d92e:	c7 85 e0 f0 ff ff 82 	movl   $0x504fa382,-0xf20(%rbp)
    d935:	a3 4f 50 
    d938:	c7 85 40 f3 ff ff ff 	movl   $0xffffffff,-0xcc0(%rbp)
    d93f:	ff ff ff 
    d942:	c7 85 44 f3 ff ff 2f 	movl   $0xda2d072f,-0xcbc(%rbp)
    d949:	07 2d da 
    d94c:	c7 85 48 f3 ff ff 2f 	movl   $0xda2d072f,-0xcb8(%rbp)
    d953:	07 2d da 
    d956:	c7 85 4c f3 ff ff ff 	movl   $0xffffffff,-0xcb4(%rbp)
    d95d:	ff ff ff 
    d960:	c7 85 50 f3 ff ff ff 	movl   $0xffffffff,-0xcb0(%rbp)
    d967:	ff ff ff 
    d96a:	c7 85 54 f3 ff ff ff 	movl   $0xffffffff,-0xcac(%rbp)
    d971:	ff ff ff 
    d974:	c7 85 58 f3 ff ff 01 	movl   $0x1,-0xca8(%rbp)
    d97b:	00 00 00 
    d97e:	c7 85 5c f3 ff ff ff 	movl   $0xffffffff,-0xca4(%rbp)
    d985:	ff ff ff 
    d988:	c7 85 60 f3 ff ff ff 	movl   $0xffffffff,-0xca0(%rbp)
    d98f:	ff ff ff 
    d992:	c7 85 64 f3 ff ff 01 	movl   $0x1,-0xc9c(%rbp)
    d999:	00 00 00 
    d99c:	66 c7 85 a0 f0 ff ff 	movw   $0xfff7,-0xf60(%rbp)
    d9a3:	f7 ff 
    d9a5:	c7 85 e4 f0 ff ff 9d 	movl   $0x1acfe89d,-0xf1c(%rbp)
    d9ac:	e8 cf 1a 
    d9af:	48 8d 85 20 f6 ff ff 	lea    -0x9e0(%rbp),%rax
    d9b6:	48 8d 15 23 60 00 00 	lea    0x6023(%rip),%rdx        # 139e0 <g_3574+0x950>
    d9bd:	b9 28 00 00 00       	mov    $0x28,%ecx
    d9c2:	48 89 c7             	mov    %rax,%rdi
    d9c5:	48 89 d6             	mov    %rdx,%rsi
    d9c8:	f3 48 a5             	rep movsq %ds:(%rsi),%es:(%rdi)
    d9cb:	48 89 f2             	mov    %rsi,%rdx
    d9ce:	48 89 f8             	mov    %rdi,%rax
    d9d1:	8b 0a                	mov    (%rdx),%ecx
    d9d3:	89 08                	mov    %ecx,(%rax)
    d9d5:	48 c7 85 38 f1 ff ff 	movq   $0x0,-0xec8(%rbp)
    d9dc:	00 00 00 00 
    d9e0:	48 8d 85 38 f1 ff ff 	lea    -0xec8(%rbp),%rax
    d9e7:	48 89 85 58 f1 ff ff 	mov    %rax,-0xea8(%rbp)
    d9ee:	48 8d 05 4b ea 00 00 	lea    0xea4b(%rip),%rax        # 1c440 <g_270>
    d9f5:	48 89 85 60 f1 ff ff 	mov    %rax,-0xea0(%rbp)
    d9fc:	c6 85 9d f0 ff ff 31 	movb   $0x31,-0xf63(%rbp)
    da03:	c6 85 9e f0 ff ff 64 	movb   $0x64,-0xf62(%rbp)
    da0a:	66 c7 85 a2 f0 ff ff 	movw   $0x8bc1,-0xf5e(%rbp)
    da11:	c1 8b 
    da13:	66 c7 85 a4 f0 ff ff 	movw   $0x4,-0xf5c(%rbp)
    da1a:	04 00 
    da1c:	48 c7 85 20 f3 ff ff 	movq   $0x0,-0xce0(%rbp)
    da23:	00 00 00 00 
    da27:	48 c7 85 28 f3 ff ff 	movq   $0x0,-0xcd8(%rbp)
    da2e:	00 00 00 00 
    da32:	48 c7 85 30 f3 ff ff 	movq   $0x0,-0xcd0(%rbp)
    da39:	00 00 00 00 
    da3d:	48 c7 85 38 f3 ff ff 	movq   $0x0,-0xcc8(%rbp)
    da44:	00 00 00 00 
    da48:	48 b8 39 dc 27 92 21 	movabs $0x9276f1219227dc39,%rax
    da4f:	f1 76 92 
    da52:	48 89 85 68 f1 ff ff 	mov    %rax,-0xe98(%rbp)
    da59:	48 8d 05 e2 97 00 00 	lea    0x97e2(%rip),%rax        # 17242 <g_120>
    da60:	48 89 85 70 f1 ff ff 	mov    %rax,-0xe90(%rbp)
    da67:	c7 85 e8 f0 ff ff 07 	movl   $0x7,-0xf18(%rbp)
    da6e:	00 00 00 
    da71:	48 c7 85 78 f1 ff ff 	movq   $0x0,-0xe88(%rbp)
    da78:	00 00 00 00 
    da7c:	c7 85 ec f0 ff ff 01 	movl   $0x1,-0xf14(%rbp)
    da83:	00 00 00 
    da86:	48 b9 21 84 3b 5d 74 	movabs $0xf9c5a0745d3b8421,%rcx
    da8d:	a0 c5 f9 
    da90:	48 89 8d a0 f3 ff ff 	mov    %rcx,-0xc60(%rbp)
    da97:	48 b8 7f c1 ce a9 27 	movabs $0xe6a30227a9cec17f,%rax
    da9e:	02 a3 e6 
    daa1:	48 89 85 a8 f3 ff ff 	mov    %rax,-0xc58(%rbp)
    daa8:	48 89 85 b0 f3 ff ff 	mov    %rax,-0xc50(%rbp)
    daaf:	48 89 8d b8 f3 ff ff 	mov    %rcx,-0xc48(%rbp)
    dab6:	48 89 85 c0 f3 ff ff 	mov    %rax,-0xc40(%rbp)
    dabd:	48 89 85 c8 f3 ff ff 	mov    %rax,-0xc38(%rbp)
    dac4:	48 89 8d d0 f3 ff ff 	mov    %rcx,-0xc30(%rbp)
    dacb:	48 89 85 d8 f3 ff ff 	mov    %rax,-0xc28(%rbp)
    dad2:	48 8d 05 c7 cb 00 00 	lea    0xcbc7(%rip),%rax        # 1a6a0 <g_111>
    dad9:	48 89 85 80 f1 ff ff 	mov    %rax,-0xe80(%rbp)
    dae0:	c7 85 f0 f0 ff ff 05 	movl   $0x5,-0xf10(%rbp)
    dae7:	00 00 00 
    daea:	c7 85 f4 f0 ff ff 09 	movl   $0x9,-0xf0c(%rbp)
    daf1:	00 00 00 
    daf4:	c7 85 f8 f0 ff ff 00 	movl   $0x0,-0xf08(%rbp)
    dafb:	00 00 00 
    dafe:	c7 85 fc f0 ff ff 08 	movl   $0x8,-0xf04(%rbp)
    db05:	00 00 00 
    db08:	66 c7 85 a6 f0 ff ff 	movw   $0x77c1,-0xf5a(%rbp)
    db0f:	c1 77 
    db11:	c7 85 00 f1 ff ff 04 	movl   $0x4,-0xf00(%rbp)
    db18:	00 00 00 
    db1b:	48 8d 05 26 cc 00 00 	lea    0xcc26(%rip),%rax        # 1a748 <g_165>
    db22:	48 89 85 88 f1 ff ff 	mov    %rax,-0xe78(%rbp)
    db29:	66 c7 85 a8 f0 ff ff 	movw   $0xffff,-0xf58(%rbp)
    db30:	ff ff 
    db32:	c7 85 04 f1 ff ff cb 	movl   $0xcd7600cb,-0xefc(%rbp)
    db39:	00 76 cd 
    db3c:	c7 85 cc f0 ff ff 00 	movl   $0x0,-0xf34(%rbp)
    db43:	00 00 00 
    db46:	eb 1e                	jmp    db66 <func_59+0x368>
    db48:	8b 85 cc f0 ff ff    	mov    -0xf34(%rbp),%eax
    db4e:	48 98                	cltq   
    db50:	48 8d 95 b8 f0 ff ff 	lea    -0xf48(%rbp),%rdx
    db57:	48 89 94 c5 00 f3 ff 	mov    %rdx,-0xd00(%rbp,%rax,8)
    db5e:	ff 
    db5f:	83 85 cc f0 ff ff 01 	addl   $0x1,-0xf34(%rbp)
    db66:	83 bd cc f0 ff ff 02 	cmpl   $0x2,-0xf34(%rbp)
    db6d:	7e d9                	jle    db48 <func_59+0x34a>
    db6f:	c6 05 9a 98 00 00 05 	movb   $0x5,0x989a(%rip)        # 17410 <g_345>
    db76:	e9 57 1c 00 00       	jmpq   f7d2 <func_59+0x1fd4>
    db7b:	48 8d 05 c2 96 00 00 	lea    0x96c2(%rip),%rax        # 17244 <g_125>
    db82:	48 89 85 08 f2 ff ff 	mov    %rax,-0xdf8(%rbp)
    db89:	48 8d 05 88 98 00 00 	lea    0x9888(%rip),%rax        # 17418 <g_354>
    db90:	48 89 85 10 f2 ff ff 	mov    %rax,-0xdf0(%rbp)
    db97:	48 8d 05 a6 96 00 00 	lea    0x96a6(%rip),%rax        # 17244 <g_125>
    db9e:	48 89 85 48 f1 ff ff 	mov    %rax,-0xeb8(%rbp)
    dba5:	48 8d 05 98 96 00 00 	lea    0x9698(%rip),%rax        # 17244 <g_125>
    dbac:	48 89 85 18 f2 ff ff 	mov    %rax,-0xde8(%rbp)
    dbb3:	48 8d 05 66 98 00 00 	lea    0x9866(%rip),%rax        # 17420 <g_371>
    dbba:	48 89 85 20 f2 ff ff 	mov    %rax,-0xde0(%rbp)
    dbc1:	48 8d 05 58 98 00 00 	lea    0x9858(%rip),%rax        # 17420 <g_371>
    dbc8:	48 89 85 28 f2 ff ff 	mov    %rax,-0xdd8(%rbp)
    dbcf:	48 c7 85 30 f2 ff ff 	movq   $0x0,-0xdd0(%rbp)
    dbd6:	00 00 00 00 
    dbda:	48 8d 05 37 98 00 00 	lea    0x9837(%rip),%rax        # 17418 <g_354>
    dbe1:	48 89 85 38 f2 ff ff 	mov    %rax,-0xdc8(%rbp)
    dbe8:	48 8d 05 31 98 00 00 	lea    0x9831(%rip),%rax        # 17420 <g_371>
    dbef:	48 89 85 40 f2 ff ff 	mov    %rax,-0xdc0(%rbp)
    dbf6:	48 8d 05 3f 96 00 00 	lea    0x963f(%rip),%rax        # 1723c <g_90>
    dbfd:	48 89 85 48 f2 ff ff 	mov    %rax,-0xdb8(%rbp)
    dc04:	48 8d 05 15 98 00 00 	lea    0x9815(%rip),%rax        # 17420 <g_371>
    dc0b:	48 89 85 50 f2 ff ff 	mov    %rax,-0xdb0(%rbp)
    dc12:	48 8d 05 23 96 00 00 	lea    0x9623(%rip),%rax        # 1723c <g_90>
    dc19:	48 89 85 58 f2 ff ff 	mov    %rax,-0xda8(%rbp)
    dc20:	48 8d 05 1d 96 00 00 	lea    0x961d(%rip),%rax        # 17244 <g_125>
    dc27:	48 89 85 60 f2 ff ff 	mov    %rax,-0xda0(%rbp)
    dc2e:	48 8d 05 e3 97 00 00 	lea    0x97e3(%rip),%rax        # 17418 <g_354>
    dc35:	48 89 85 68 f2 ff ff 	mov    %rax,-0xd98(%rbp)
    dc3c:	48 8d 05 d5 97 00 00 	lea    0x97d5(%rip),%rax        # 17418 <g_354>
    dc43:	48 89 85 70 f2 ff ff 	mov    %rax,-0xd90(%rbp)
    dc4a:	48 c7 85 78 f2 ff ff 	movq   $0x0,-0xd88(%rbp)
    dc51:	00 00 00 00 
    dc55:	48 c7 85 80 f2 ff ff 	movq   $0x0,-0xd80(%rbp)
    dc5c:	00 00 00 00 
    dc60:	48 b8 ca 9d 7e 03 85 	movabs $0xd0cee685037e9dca,%rax
    dc67:	e6 ce d0 
    dc6a:	48 89 85 e0 f3 ff ff 	mov    %rax,-0xc20(%rbp)
    dc71:	48 bb e4 a6 1e 9d 13 	movabs $0x1576d3139d1ea6e4,%rbx
    dc78:	d3 76 15 
    dc7b:	48 89 9d e8 f3 ff ff 	mov    %rbx,-0xc18(%rbp)
    dc82:	48 89 9d f0 f3 ff ff 	mov    %rbx,-0xc10(%rbp)
    dc89:	48 89 85 f8 f3 ff ff 	mov    %rax,-0xc08(%rbp)
    dc90:	48 b9 3f 5d de 30 08 	movabs $0xc77acf0830de5d3f,%rcx
    dc97:	cf 7a c7 
    dc9a:	48 89 8d 00 f4 ff ff 	mov    %rcx,-0xc00(%rbp)
    dca1:	48 89 85 08 f4 ff ff 	mov    %rax,-0xbf8(%rbp)
    dca8:	48 89 9d 10 f4 ff ff 	mov    %rbx,-0xbf0(%rbp)
    dcaf:	48 89 9d 18 f4 ff ff 	mov    %rbx,-0xbe8(%rbp)
    dcb6:	48 89 85 20 f4 ff ff 	mov    %rax,-0xbe0(%rbp)
    dcbd:	48 89 8d 28 f4 ff ff 	mov    %rcx,-0xbd8(%rbp)
    dcc4:	c7 85 d0 f0 ff ff 00 	movl   $0x0,-0xf30(%rbp)
    dccb:	00 00 00 
    dcce:	eb 51                	jmp    dd21 <func_59+0x523>
    dcd0:	c7 85 c8 f0 ff ff 00 	movl   $0x0,-0xf38(%rbp)
    dcd7:	00 00 00 
    dcda:	eb 35                	jmp    dd11 <func_59+0x513>
    dcdc:	8b 85 c8 f0 ff ff    	mov    -0xf38(%rbp),%eax
    dce2:	48 63 c8             	movslq %eax,%rcx
    dce5:	8b 85 d0 f0 ff ff    	mov    -0xf30(%rbp),%eax
    dceb:	48 63 d0             	movslq %eax,%rdx
    dcee:	48 89 d0             	mov    %rdx,%rax
    dcf1:	48 c1 e0 03          	shl    $0x3,%rax
    dcf5:	48 29 d0             	sub    %rdx,%rax
    dcf8:	48 01 c8             	add    %rcx,%rax
    dcfb:	48 8d 15 3a 95 00 00 	lea    0x953a(%rip),%rdx        # 1723c <g_90>
    dd02:	48 89 94 c5 40 f5 ff 	mov    %rdx,-0xac0(%rbp,%rax,8)
    dd09:	ff 
    dd0a:	83 85 c8 f0 ff ff 01 	addl   $0x1,-0xf38(%rbp)
    dd11:	83 bd c8 f0 ff ff 06 	cmpl   $0x6,-0xf38(%rbp)
    dd18:	7e c2                	jle    dcdc <func_59+0x4de>
    dd1a:	83 85 d0 f0 ff ff 01 	addl   $0x1,-0xf30(%rbp)
    dd21:	83 bd d0 f0 ff ff 03 	cmpl   $0x3,-0xf30(%rbp)
    dd28:	7e a6                	jle    dcd0 <func_59+0x4d2>
    dd2a:	48 8b 85 e0 f3 ff ff 	mov    -0xc20(%rbp),%rax
    dd31:	48 83 c0 01          	add    $0x1,%rax
    dd35:	48 89 85 e0 f3 ff ff 	mov    %rax,-0xc20(%rbp)
    dd3c:	c7 05 f6 94 00 00 00 	movl   $0x0,0x94f6(%rip)        # 1723c <g_90>
    dd43:	00 00 00 
    dd46:	e9 68 1a 00 00       	jmpq   f7b3 <func_59+0x1fb5>
    dd4b:	c7 85 1c f1 ff ff ff 	movl   $0xffffffff,-0xee4(%rbp)
    dd52:	ff ff ff 
    dd55:	48 8d 05 ec e6 00 00 	lea    0xe6ec(%rip),%rax        # 1c448 <g_336>
    dd5c:	48 89 85 88 f2 ff ff 	mov    %rax,-0xd78(%rbp)
    dd63:	c7 85 20 f1 ff ff 00 	movl   $0x0,-0xee0(%rbp)
    dd6a:	00 00 00 
    dd6d:	48 8d 05 2c c9 00 00 	lea    0xc92c(%rip),%rax        # 1a6a0 <g_111>
    dd74:	48 89 85 70 f3 ff ff 	mov    %rax,-0xc90(%rbp)
    dd7b:	48 8d 05 1e c9 00 00 	lea    0xc91e(%rip),%rax        # 1a6a0 <g_111>
    dd82:	48 89 85 78 f3 ff ff 	mov    %rax,-0xc88(%rbp)
    dd89:	48 8d 05 10 c9 00 00 	lea    0xc910(%rip),%rax        # 1a6a0 <g_111>
    dd90:	48 89 85 80 f3 ff ff 	mov    %rax,-0xc80(%rbp)
    dd97:	48 8d 05 02 c9 00 00 	lea    0xc902(%rip),%rax        # 1a6a0 <g_111>
    dd9e:	48 89 85 88 f3 ff ff 	mov    %rax,-0xc78(%rbp)
    dda5:	48 8d 05 f4 c8 00 00 	lea    0xc8f4(%rip),%rax        # 1a6a0 <g_111>
    ddac:	48 89 85 90 f3 ff ff 	mov    %rax,-0xc70(%rbp)
    ddb3:	48 8d 05 8e 94 00 00 	lea    0x948e(%rip),%rax        # 17248 <g_150>
    ddba:	48 89 85 90 f2 ff ff 	mov    %rax,-0xd70(%rbp)
    ddc1:	48 8b 05 d8 c8 00 00 	mov    0xc8d8(%rip),%rax        # 1a6a0 <g_111>
    ddc8:	8b 95 1c f1 ff ff    	mov    -0xee4(%rbp),%edx
    ddce:	66 89 10             	mov    %dx,(%rax)
    ddd1:	0f b7 00             	movzwl (%rax),%eax
    ddd4:	66 85 c0             	test   %ax,%ax
    ddd7:	74 2d                	je     de06 <func_59+0x608>
    ddd9:	48 8b 05 68 c9 00 00 	mov    0xc968(%rip),%rax        # 1a748 <g_165>
    dde0:	0f b7 00             	movzwl (%rax),%eax
    dde3:	66 85 c0             	test   %ax,%ax
    dde6:	74 1e                	je     de06 <func_59+0x608>
    dde8:	48 c7 85 98 f2 ff ff 	movq   $0x0,-0xd68(%rbp)
    ddef:	00 00 00 00 
    ddf3:	48 8b 85 20 f2 ff ff 	mov    -0xde0(%rbp),%rax
    ddfa:	48 89 85 98 f2 ff ff 	mov    %rax,-0xd68(%rbp)
    de01:	e9 9e 19 00 00       	jmpq   f7a4 <func_59+0x1fa6>
    de06:	c7 85 24 f1 ff ff 00 	movl   $0x0,-0xedc(%rbp)
    de0d:	00 00 00 
    de10:	48 8d 85 30 f4 ff ff 	lea    -0xbd0(%rbp),%rax
    de17:	48 83 c0 48          	add    $0x48,%rax
    de1b:	48 89 85 00 f9 ff ff 	mov    %rax,-0x700(%rbp)
    de22:	48 8d 85 30 f4 ff ff 	lea    -0xbd0(%rbp),%rax
    de29:	48 83 c0 48          	add    $0x48,%rax
    de2d:	48 89 85 08 f9 ff ff 	mov    %rax,-0x6f8(%rbp)
    de34:	48 8d 85 30 f4 ff ff 	lea    -0xbd0(%rbp),%rax
    de3b:	48 83 c0 10          	add    $0x10,%rax
    de3f:	48 89 85 10 f9 ff ff 	mov    %rax,-0x6f0(%rbp)
    de46:	48 8d 85 30 f4 ff ff 	lea    -0xbd0(%rbp),%rax
    de4d:	48 83 c0 48          	add    $0x48,%rax
    de51:	48 89 85 18 f9 ff ff 	mov    %rax,-0x6e8(%rbp)
    de58:	48 8d 85 30 f4 ff ff 	lea    -0xbd0(%rbp),%rax
    de5f:	48 89 85 20 f9 ff ff 	mov    %rax,-0x6e0(%rbp)
    de66:	48 8d 85 30 f4 ff ff 	lea    -0xbd0(%rbp),%rax
    de6d:	48 83 c0 50          	add    $0x50,%rax
    de71:	48 89 85 28 f9 ff ff 	mov    %rax,-0x6d8(%rbp)
    de78:	48 8d 85 30 f4 ff ff 	lea    -0xbd0(%rbp),%rax
    de7f:	48 83 c0 48          	add    $0x48,%rax
    de83:	48 89 85 30 f9 ff ff 	mov    %rax,-0x6d0(%rbp)
    de8a:	48 8d 85 30 f4 ff ff 	lea    -0xbd0(%rbp),%rax
    de91:	48 83 c0 48          	add    $0x48,%rax
    de95:	48 89 85 38 f9 ff ff 	mov    %rax,-0x6c8(%rbp)
    de9c:	48 8d 85 30 f4 ff ff 	lea    -0xbd0(%rbp),%rax
    dea3:	48 83 c0 28          	add    $0x28,%rax
    dea7:	48 89 85 40 f9 ff ff 	mov    %rax,-0x6c0(%rbp)
    deae:	48 8d 85 30 f4 ff ff 	lea    -0xbd0(%rbp),%rax
    deb5:	48 83 c0 48          	add    $0x48,%rax
    deb9:	48 89 85 48 f9 ff ff 	mov    %rax,-0x6b8(%rbp)
    dec0:	48 8d 85 30 f4 ff ff 	lea    -0xbd0(%rbp),%rax
    dec7:	48 83 c0 18          	add    $0x18,%rax
    decb:	48 89 85 50 f9 ff ff 	mov    %rax,-0x6b0(%rbp)
    ded2:	48 8d 85 30 f4 ff ff 	lea    -0xbd0(%rbp),%rax
    ded9:	48 83 c0 10          	add    $0x10,%rax
    dedd:	48 89 85 58 f9 ff ff 	mov    %rax,-0x6a8(%rbp)
    dee4:	48 8d 85 30 f4 ff ff 	lea    -0xbd0(%rbp),%rax
    deeb:	48 83 c0 48          	add    $0x48,%rax
    deef:	48 89 85 60 f9 ff ff 	mov    %rax,-0x6a0(%rbp)
    def6:	48 8d 85 30 f4 ff ff 	lea    -0xbd0(%rbp),%rax
    defd:	48 83 c0 48          	add    $0x48,%rax
    df01:	48 89 85 68 f9 ff ff 	mov    %rax,-0x698(%rbp)
    df08:	48 8d 85 30 f4 ff ff 	lea    -0xbd0(%rbp),%rax
    df0f:	48 83 c0 48          	add    $0x48,%rax
    df13:	48 89 85 70 f9 ff ff 	mov    %rax,-0x690(%rbp)
    df1a:	48 8d 85 30 f4 ff ff 	lea    -0xbd0(%rbp),%rax
    df21:	48 83 c0 28          	add    $0x28,%rax
    df25:	48 89 85 78 f9 ff ff 	mov    %rax,-0x688(%rbp)
    df2c:	48 8d 85 30 f4 ff ff 	lea    -0xbd0(%rbp),%rax
    df33:	48 83 c0 48          	add    $0x48,%rax
    df37:	48 89 85 80 f9 ff ff 	mov    %rax,-0x680(%rbp)
    df3e:	48 8d 85 30 f4 ff ff 	lea    -0xbd0(%rbp),%rax
    df45:	48 83 c0 20          	add    $0x20,%rax
    df49:	48 89 85 88 f9 ff ff 	mov    %rax,-0x678(%rbp)
    df50:	48 8d 85 30 f4 ff ff 	lea    -0xbd0(%rbp),%rax
    df57:	48 83 c0 18          	add    $0x18,%rax
    df5b:	48 89 85 90 f9 ff ff 	mov    %rax,-0x670(%rbp)
    df62:	48 8d 85 30 f4 ff ff 	lea    -0xbd0(%rbp),%rax
    df69:	48 83 c0 48          	add    $0x48,%rax
    df6d:	48 89 85 98 f9 ff ff 	mov    %rax,-0x668(%rbp)
    df74:	48 8d 85 30 f4 ff ff 	lea    -0xbd0(%rbp),%rax
    df7b:	48 83 c0 20          	add    $0x20,%rax
    df7f:	48 89 85 a0 f9 ff ff 	mov    %rax,-0x660(%rbp)
    df86:	48 c7 85 a8 f9 ff ff 	movq   $0x0,-0x658(%rbp)
    df8d:	00 00 00 00 
    df91:	48 8d 85 30 f4 ff ff 	lea    -0xbd0(%rbp),%rax
    df98:	48 83 c0 48          	add    $0x48,%rax
    df9c:	48 89 85 b0 f9 ff ff 	mov    %rax,-0x650(%rbp)
    dfa3:	48 8d 85 30 f4 ff ff 	lea    -0xbd0(%rbp),%rax
    dfaa:	48 83 c0 48          	add    $0x48,%rax
    dfae:	48 89 85 b8 f9 ff ff 	mov    %rax,-0x648(%rbp)
    dfb5:	48 8d 85 30 f4 ff ff 	lea    -0xbd0(%rbp),%rax
    dfbc:	48 83 c0 48          	add    $0x48,%rax
    dfc0:	48 89 85 c0 f9 ff ff 	mov    %rax,-0x640(%rbp)
    dfc7:	48 8d 85 30 f4 ff ff 	lea    -0xbd0(%rbp),%rax
    dfce:	48 83 c0 48          	add    $0x48,%rax
    dfd2:	48 89 85 c8 f9 ff ff 	mov    %rax,-0x638(%rbp)
    dfd9:	48 8d 85 30 f4 ff ff 	lea    -0xbd0(%rbp),%rax
    dfe0:	48 83 c0 10          	add    $0x10,%rax
    dfe4:	48 89 85 d0 f9 ff ff 	mov    %rax,-0x630(%rbp)
    dfeb:	48 8d 85 30 f4 ff ff 	lea    -0xbd0(%rbp),%rax
    dff2:	48 83 c0 48          	add    $0x48,%rax
    dff6:	48 89 85 d8 f9 ff ff 	mov    %rax,-0x628(%rbp)
    dffd:	48 8d 85 30 f4 ff ff 	lea    -0xbd0(%rbp),%rax
    e004:	48 83 c0 48          	add    $0x48,%rax
    e008:	48 89 85 e0 f9 ff ff 	mov    %rax,-0x620(%rbp)
    e00f:	48 8d 85 30 f4 ff ff 	lea    -0xbd0(%rbp),%rax
    e016:	48 83 c0 28          	add    $0x28,%rax
    e01a:	48 89 85 e8 f9 ff ff 	mov    %rax,-0x618(%rbp)
    e021:	48 8d 85 30 f4 ff ff 	lea    -0xbd0(%rbp),%rax
    e028:	48 83 c0 48          	add    $0x48,%rax
    e02c:	48 89 85 f0 f9 ff ff 	mov    %rax,-0x610(%rbp)
    e033:	48 8d 85 30 f4 ff ff 	lea    -0xbd0(%rbp),%rax
    e03a:	48 83 c0 48          	add    $0x48,%rax
    e03e:	48 89 85 f8 f9 ff ff 	mov    %rax,-0x608(%rbp)
    e045:	48 8d 85 30 f4 ff ff 	lea    -0xbd0(%rbp),%rax
    e04c:	48 83 c0 50          	add    $0x50,%rax
    e050:	48 89 85 00 fa ff ff 	mov    %rax,-0x600(%rbp)
    e057:	48 8d 85 30 f4 ff ff 	lea    -0xbd0(%rbp),%rax
    e05e:	48 83 c0 48          	add    $0x48,%rax
    e062:	48 89 85 08 fa ff ff 	mov    %rax,-0x5f8(%rbp)
    e069:	48 8d 85 30 f4 ff ff 	lea    -0xbd0(%rbp),%rax
    e070:	48 83 c0 40          	add    $0x40,%rax
    e074:	48 89 85 10 fa ff ff 	mov    %rax,-0x5f0(%rbp)
    e07b:	48 8d 85 30 f4 ff ff 	lea    -0xbd0(%rbp),%rax
    e082:	48 83 c0 10          	add    $0x10,%rax
    e086:	48 89 85 18 fa ff ff 	mov    %rax,-0x5e8(%rbp)
    e08d:	48 8d 85 30 f4 ff ff 	lea    -0xbd0(%rbp),%rax
    e094:	48 83 c0 48          	add    $0x48,%rax
    e098:	48 89 85 20 fa ff ff 	mov    %rax,-0x5e0(%rbp)
    e09f:	48 8d 85 30 f4 ff ff 	lea    -0xbd0(%rbp),%rax
    e0a6:	48 83 c0 48          	add    $0x48,%rax
    e0aa:	48 89 85 28 fa ff ff 	mov    %rax,-0x5d8(%rbp)
    e0b1:	48 8d 85 30 f4 ff ff 	lea    -0xbd0(%rbp),%rax
    e0b8:	48 83 c0 48          	add    $0x48,%rax
    e0bc:	48 89 85 30 fa ff ff 	mov    %rax,-0x5d0(%rbp)
    e0c3:	48 8d 85 30 f4 ff ff 	lea    -0xbd0(%rbp),%rax
    e0ca:	48 83 c0 48          	add    $0x48,%rax
    e0ce:	48 89 85 38 fa ff ff 	mov    %rax,-0x5c8(%rbp)
    e0d5:	48 8d 85 30 f4 ff ff 	lea    -0xbd0(%rbp),%rax
    e0dc:	48 83 c0 48          	add    $0x48,%rax
    e0e0:	48 89 85 40 fa ff ff 	mov    %rax,-0x5c0(%rbp)
    e0e7:	48 8d 85 30 f4 ff ff 	lea    -0xbd0(%rbp),%rax
    e0ee:	48 83 c0 40          	add    $0x40,%rax
    e0f2:	48 89 85 48 fa ff ff 	mov    %rax,-0x5b8(%rbp)
    e0f9:	48 8d 85 30 f4 ff ff 	lea    -0xbd0(%rbp),%rax
    e100:	48 83 c0 48          	add    $0x48,%rax
    e104:	48 89 85 50 fa ff ff 	mov    %rax,-0x5b0(%rbp)
    e10b:	48 8d 85 30 f4 ff ff 	lea    -0xbd0(%rbp),%rax
    e112:	48 83 c0 48          	add    $0x48,%rax
    e116:	48 89 85 58 fa ff ff 	mov    %rax,-0x5a8(%rbp)
    e11d:	48 8d 85 30 f4 ff ff 	lea    -0xbd0(%rbp),%rax
    e124:	48 83 c0 48          	add    $0x48,%rax
    e128:	48 89 85 60 fa ff ff 	mov    %rax,-0x5a0(%rbp)
    e12f:	48 8d 85 30 f4 ff ff 	lea    -0xbd0(%rbp),%rax
    e136:	48 83 c0 48          	add    $0x48,%rax
    e13a:	48 89 85 68 fa ff ff 	mov    %rax,-0x598(%rbp)
    e141:	48 8d 85 30 f4 ff ff 	lea    -0xbd0(%rbp),%rax
    e148:	48 83 c0 48          	add    $0x48,%rax
    e14c:	48 89 85 70 fa ff ff 	mov    %rax,-0x590(%rbp)
    e153:	48 8d 85 30 f4 ff ff 	lea    -0xbd0(%rbp),%rax
    e15a:	48 83 c0 48          	add    $0x48,%rax
    e15e:	48 89 85 78 fa ff ff 	mov    %rax,-0x588(%rbp)
    e165:	48 8d 85 30 f4 ff ff 	lea    -0xbd0(%rbp),%rax
    e16c:	48 83 c0 48          	add    $0x48,%rax
    e170:	48 89 85 80 fa ff ff 	mov    %rax,-0x580(%rbp)
    e177:	48 8d 85 30 f4 ff ff 	lea    -0xbd0(%rbp),%rax
    e17e:	48 83 c0 48          	add    $0x48,%rax
    e182:	48 89 85 88 fa ff ff 	mov    %rax,-0x578(%rbp)
    e189:	48 c7 85 90 fa ff ff 	movq   $0x0,-0x570(%rbp)
    e190:	00 00 00 00 
    e194:	48 8d 85 30 f4 ff ff 	lea    -0xbd0(%rbp),%rax
    e19b:	48 83 c0 48          	add    $0x48,%rax
    e19f:	48 89 85 98 fa ff ff 	mov    %rax,-0x568(%rbp)
    e1a6:	48 8d 85 30 f4 ff ff 	lea    -0xbd0(%rbp),%rax
    e1ad:	48 83 c0 48          	add    $0x48,%rax
    e1b1:	48 89 85 a0 fa ff ff 	mov    %rax,-0x560(%rbp)
    e1b8:	48 c7 85 a8 fa ff ff 	movq   $0x0,-0x558(%rbp)
    e1bf:	00 00 00 00 
    e1c3:	48 8d 85 30 f4 ff ff 	lea    -0xbd0(%rbp),%rax
    e1ca:	48 83 c0 48          	add    $0x48,%rax
    e1ce:	48 89 85 b0 fa ff ff 	mov    %rax,-0x550(%rbp)
    e1d5:	48 8d 85 30 f4 ff ff 	lea    -0xbd0(%rbp),%rax
    e1dc:	48 83 c0 48          	add    $0x48,%rax
    e1e0:	48 89 85 b8 fa ff ff 	mov    %rax,-0x548(%rbp)
    e1e7:	48 c7 85 c0 fa ff ff 	movq   $0x0,-0x540(%rbp)
    e1ee:	00 00 00 00 
    e1f2:	48 8d 85 30 f4 ff ff 	lea    -0xbd0(%rbp),%rax
    e1f9:	48 83 c0 48          	add    $0x48,%rax
    e1fd:	48 89 85 c8 fa ff ff 	mov    %rax,-0x538(%rbp)
    e204:	48 8d 85 30 f4 ff ff 	lea    -0xbd0(%rbp),%rax
    e20b:	48 83 c0 18          	add    $0x18,%rax
    e20f:	48 89 85 d0 fa ff ff 	mov    %rax,-0x530(%rbp)
    e216:	48 8d 85 30 f4 ff ff 	lea    -0xbd0(%rbp),%rax
    e21d:	48 83 c0 48          	add    $0x48,%rax
    e221:	48 89 85 d8 fa ff ff 	mov    %rax,-0x528(%rbp)
    e228:	48 8d 85 30 f4 ff ff 	lea    -0xbd0(%rbp),%rax
    e22f:	48 83 c0 48          	add    $0x48,%rax
    e233:	48 89 85 e0 fa ff ff 	mov    %rax,-0x520(%rbp)
    e23a:	48 8d 85 30 f4 ff ff 	lea    -0xbd0(%rbp),%rax
    e241:	48 83 c0 48          	add    $0x48,%rax
    e245:	48 89 85 e8 fa ff ff 	mov    %rax,-0x518(%rbp)
    e24c:	48 8d 85 30 f4 ff ff 	lea    -0xbd0(%rbp),%rax
    e253:	48 83 c0 48          	add    $0x48,%rax
    e257:	48 89 85 f0 fa ff ff 	mov    %rax,-0x510(%rbp)
    e25e:	48 8d 85 30 f4 ff ff 	lea    -0xbd0(%rbp),%rax
    e265:	48 83 c0 48          	add    $0x48,%rax
    e269:	48 89 85 f8 fa ff ff 	mov    %rax,-0x508(%rbp)
    e270:	48 8d 85 30 f4 ff ff 	lea    -0xbd0(%rbp),%rax
    e277:	48 89 85 00 fb ff ff 	mov    %rax,-0x500(%rbp)
    e27e:	48 8d 85 30 f4 ff ff 	lea    -0xbd0(%rbp),%rax
    e285:	48 83 c0 38          	add    $0x38,%rax
    e289:	48 89 85 08 fb ff ff 	mov    %rax,-0x4f8(%rbp)
    e290:	48 8d 85 30 f4 ff ff 	lea    -0xbd0(%rbp),%rax
    e297:	48 83 c0 48          	add    $0x48,%rax
    e29b:	48 89 85 10 fb ff ff 	mov    %rax,-0x4f0(%rbp)
    e2a2:	48 8d 85 30 f4 ff ff 	lea    -0xbd0(%rbp),%rax
    e2a9:	48 83 c0 48          	add    $0x48,%rax
    e2ad:	48 89 85 18 fb ff ff 	mov    %rax,-0x4e8(%rbp)
    e2b4:	48 8d 85 30 f4 ff ff 	lea    -0xbd0(%rbp),%rax
    e2bb:	48 83 c0 48          	add    $0x48,%rax
    e2bf:	48 89 85 20 fb ff ff 	mov    %rax,-0x4e0(%rbp)
    e2c6:	48 8d 85 30 f4 ff ff 	lea    -0xbd0(%rbp),%rax
    e2cd:	48 83 c0 48          	add    $0x48,%rax
    e2d1:	48 89 85 28 fb ff ff 	mov    %rax,-0x4d8(%rbp)
    e2d8:	48 8d 85 30 f4 ff ff 	lea    -0xbd0(%rbp),%rax
    e2df:	48 83 c0 10          	add    $0x10,%rax
    e2e3:	48 89 85 30 fb ff ff 	mov    %rax,-0x4d0(%rbp)
    e2ea:	48 8d 85 30 f4 ff ff 	lea    -0xbd0(%rbp),%rax
    e2f1:	48 83 c0 48          	add    $0x48,%rax
    e2f5:	48 89 85 38 fb ff ff 	mov    %rax,-0x4c8(%rbp)
    e2fc:	48 8d 85 30 f4 ff ff 	lea    -0xbd0(%rbp),%rax
    e303:	48 83 c0 48          	add    $0x48,%rax
    e307:	48 89 85 40 fb ff ff 	mov    %rax,-0x4c0(%rbp)
    e30e:	48 8d 85 30 f4 ff ff 	lea    -0xbd0(%rbp),%rax
    e315:	48 89 85 48 fb ff ff 	mov    %rax,-0x4b8(%rbp)
    e31c:	48 c7 85 50 fb ff ff 	movq   $0x0,-0x4b0(%rbp)
    e323:	00 00 00 00 
    e327:	48 8d 85 30 f4 ff ff 	lea    -0xbd0(%rbp),%rax
    e32e:	48 83 c0 48          	add    $0x48,%rax
    e332:	48 89 85 58 fb ff ff 	mov    %rax,-0x4a8(%rbp)
    e339:	48 8d 85 30 f4 ff ff 	lea    -0xbd0(%rbp),%rax
    e340:	48 83 c0 48          	add    $0x48,%rax
    e344:	48 89 85 60 fb ff ff 	mov    %rax,-0x4a0(%rbp)
    e34b:	48 c7 85 68 fb ff ff 	movq   $0x0,-0x498(%rbp)
    e352:	00 00 00 00 
    e356:	48 c7 85 70 fb ff ff 	movq   $0x0,-0x490(%rbp)
    e35d:	00 00 00 00 
    e361:	48 8d 85 30 f4 ff ff 	lea    -0xbd0(%rbp),%rax
    e368:	48 83 c0 48          	add    $0x48,%rax
    e36c:	48 89 85 78 fb ff ff 	mov    %rax,-0x488(%rbp)
    e373:	48 c7 85 80 fb ff ff 	movq   $0x0,-0x480(%rbp)
    e37a:	00 00 00 00 
    e37e:	48 8d 85 30 f4 ff ff 	lea    -0xbd0(%rbp),%rax
    e385:	48 83 c0 18          	add    $0x18,%rax
    e389:	48 89 85 88 fb ff ff 	mov    %rax,-0x478(%rbp)
    e390:	48 8d 85 30 f4 ff ff 	lea    -0xbd0(%rbp),%rax
    e397:	48 83 c0 48          	add    $0x48,%rax
    e39b:	48 89 85 90 fb ff ff 	mov    %rax,-0x470(%rbp)
    e3a2:	48 8d 85 30 f4 ff ff 	lea    -0xbd0(%rbp),%rax
    e3a9:	48 83 c0 48          	add    $0x48,%rax
    e3ad:	48 89 85 98 fb ff ff 	mov    %rax,-0x468(%rbp)
    e3b4:	48 8d 85 30 f4 ff ff 	lea    -0xbd0(%rbp),%rax
    e3bb:	48 83 c0 28          	add    $0x28,%rax
    e3bf:	48 89 85 a0 fb ff ff 	mov    %rax,-0x460(%rbp)
    e3c6:	48 8d 85 30 f4 ff ff 	lea    -0xbd0(%rbp),%rax
    e3cd:	48 83 c0 48          	add    $0x48,%rax
    e3d1:	48 89 85 a8 fb ff ff 	mov    %rax,-0x458(%rbp)
    e3d8:	48 8d 85 30 f4 ff ff 	lea    -0xbd0(%rbp),%rax
    e3df:	48 83 c0 48          	add    $0x48,%rax
    e3e3:	48 89 85 b0 fb ff ff 	mov    %rax,-0x450(%rbp)
    e3ea:	48 8d 85 30 f4 ff ff 	lea    -0xbd0(%rbp),%rax
    e3f1:	48 83 c0 48          	add    $0x48,%rax
    e3f5:	48 89 85 b8 fb ff ff 	mov    %rax,-0x448(%rbp)
    e3fc:	48 8d 85 30 f4 ff ff 	lea    -0xbd0(%rbp),%rax
    e403:	48 89 85 c0 fb ff ff 	mov    %rax,-0x440(%rbp)
    e40a:	48 8d 85 30 f4 ff ff 	lea    -0xbd0(%rbp),%rax
    e411:	48 83 c0 40          	add    $0x40,%rax
    e415:	48 89 85 c8 fb ff ff 	mov    %rax,-0x438(%rbp)
    e41c:	48 8d 85 30 f4 ff ff 	lea    -0xbd0(%rbp),%rax
    e423:	48 83 c0 48          	add    $0x48,%rax
    e427:	48 89 85 d0 fb ff ff 	mov    %rax,-0x430(%rbp)
    e42e:	48 8d 85 30 f4 ff ff 	lea    -0xbd0(%rbp),%rax
    e435:	48 83 c0 10          	add    $0x10,%rax
    e439:	48 89 85 d8 fb ff ff 	mov    %rax,-0x428(%rbp)
    e440:	48 8d 85 30 f4 ff ff 	lea    -0xbd0(%rbp),%rax
    e447:	48 83 c0 48          	add    $0x48,%rax
    e44b:	48 89 85 e0 fb ff ff 	mov    %rax,-0x420(%rbp)
    e452:	48 8d 85 30 f4 ff ff 	lea    -0xbd0(%rbp),%rax
    e459:	48 83 c0 48          	add    $0x48,%rax
    e45d:	48 89 85 e8 fb ff ff 	mov    %rax,-0x418(%rbp)
    e464:	48 8d 85 30 f4 ff ff 	lea    -0xbd0(%rbp),%rax
    e46b:	48 83 c0 48          	add    $0x48,%rax
    e46f:	48 89 85 f0 fb ff ff 	mov    %rax,-0x410(%rbp)
    e476:	48 8d 85 30 f4 ff ff 	lea    -0xbd0(%rbp),%rax
    e47d:	48 83 c0 10          	add    $0x10,%rax
    e481:	48 89 85 f8 fb ff ff 	mov    %rax,-0x408(%rbp)
    e488:	48 8d 85 30 f4 ff ff 	lea    -0xbd0(%rbp),%rax
    e48f:	48 83 c0 48          	add    $0x48,%rax
    e493:	48 89 85 00 fc ff ff 	mov    %rax,-0x400(%rbp)
    e49a:	48 8d 85 30 f4 ff ff 	lea    -0xbd0(%rbp),%rax
    e4a1:	48 89 85 08 fc ff ff 	mov    %rax,-0x3f8(%rbp)
    e4a8:	48 8d 85 30 f4 ff ff 	lea    -0xbd0(%rbp),%rax
    e4af:	48 83 c0 50          	add    $0x50,%rax
    e4b3:	48 89 85 10 fc ff ff 	mov    %rax,-0x3f0(%rbp)
    e4ba:	48 8d 85 30 f4 ff ff 	lea    -0xbd0(%rbp),%rax
    e4c1:	48 83 c0 48          	add    $0x48,%rax
    e4c5:	48 89 85 18 fc ff ff 	mov    %rax,-0x3e8(%rbp)
    e4cc:	48 8d 85 30 f4 ff ff 	lea    -0xbd0(%rbp),%rax
    e4d3:	48 83 c0 48          	add    $0x48,%rax
    e4d7:	48 89 85 20 fc ff ff 	mov    %rax,-0x3e0(%rbp)
    e4de:	48 8d 85 30 f4 ff ff 	lea    -0xbd0(%rbp),%rax
    e4e5:	48 83 c0 28          	add    $0x28,%rax
    e4e9:	48 89 85 28 fc ff ff 	mov    %rax,-0x3d8(%rbp)
    e4f0:	48 8d 85 30 f4 ff ff 	lea    -0xbd0(%rbp),%rax
    e4f7:	48 83 c0 48          	add    $0x48,%rax
    e4fb:	48 89 85 30 fc ff ff 	mov    %rax,-0x3d0(%rbp)
    e502:	48 8d 85 30 f4 ff ff 	lea    -0xbd0(%rbp),%rax
    e509:	48 83 c0 18          	add    $0x18,%rax
    e50d:	48 89 85 38 fc ff ff 	mov    %rax,-0x3c8(%rbp)
    e514:	48 8d 85 30 f4 ff ff 	lea    -0xbd0(%rbp),%rax
    e51b:	48 83 c0 10          	add    $0x10,%rax
    e51f:	48 89 85 40 fc ff ff 	mov    %rax,-0x3c0(%rbp)
    e526:	48 8d 85 30 f4 ff ff 	lea    -0xbd0(%rbp),%rax
    e52d:	48 83 c0 48          	add    $0x48,%rax
    e531:	48 89 85 48 fc ff ff 	mov    %rax,-0x3b8(%rbp)
    e538:	48 8d 85 30 f4 ff ff 	lea    -0xbd0(%rbp),%rax
    e53f:	48 83 c0 48          	add    $0x48,%rax
    e543:	48 89 85 50 fc ff ff 	mov    %rax,-0x3b0(%rbp)
    e54a:	48 8d 85 30 f4 ff ff 	lea    -0xbd0(%rbp),%rax
    e551:	48 83 c0 48          	add    $0x48,%rax
    e555:	48 89 85 58 fc ff ff 	mov    %rax,-0x3a8(%rbp)
    e55c:	48 8d 85 30 f4 ff ff 	lea    -0xbd0(%rbp),%rax
    e563:	48 83 c0 28          	add    $0x28,%rax
    e567:	48 89 85 60 fc ff ff 	mov    %rax,-0x3a0(%rbp)
    e56e:	48 8d 85 30 f4 ff ff 	lea    -0xbd0(%rbp),%rax
    e575:	48 83 c0 48          	add    $0x48,%rax
    e579:	48 89 85 68 fc ff ff 	mov    %rax,-0x398(%rbp)
    e580:	48 8d 85 30 f4 ff ff 	lea    -0xbd0(%rbp),%rax
    e587:	48 83 c0 20          	add    $0x20,%rax
    e58b:	48 89 85 70 fc ff ff 	mov    %rax,-0x390(%rbp)
    e592:	48 8d 85 30 f4 ff ff 	lea    -0xbd0(%rbp),%rax
    e599:	48 83 c0 18          	add    $0x18,%rax
    e59d:	48 89 85 78 fc ff ff 	mov    %rax,-0x388(%rbp)
    e5a4:	48 8d 85 30 f4 ff ff 	lea    -0xbd0(%rbp),%rax
    e5ab:	48 83 c0 48          	add    $0x48,%rax
    e5af:	48 89 85 80 fc ff ff 	mov    %rax,-0x380(%rbp)
    e5b6:	48 8d 85 30 f4 ff ff 	lea    -0xbd0(%rbp),%rax
    e5bd:	48 83 c0 20          	add    $0x20,%rax
    e5c1:	48 89 85 88 fc ff ff 	mov    %rax,-0x378(%rbp)
    e5c8:	48 c7 85 90 fc ff ff 	movq   $0x0,-0x370(%rbp)
    e5cf:	00 00 00 00 
    e5d3:	48 8d 85 30 f4 ff ff 	lea    -0xbd0(%rbp),%rax
    e5da:	48 83 c0 48          	add    $0x48,%rax
    e5de:	48 89 85 98 fc ff ff 	mov    %rax,-0x368(%rbp)
    e5e5:	48 8d 85 30 f4 ff ff 	lea    -0xbd0(%rbp),%rax
    e5ec:	48 83 c0 48          	add    $0x48,%rax
    e5f0:	48 89 85 a0 fc ff ff 	mov    %rax,-0x360(%rbp)
    e5f7:	48 8d 85 30 f4 ff ff 	lea    -0xbd0(%rbp),%rax
    e5fe:	48 83 c0 48          	add    $0x48,%rax
    e602:	48 89 85 a8 fc ff ff 	mov    %rax,-0x358(%rbp)
    e609:	48 8d 85 30 f4 ff ff 	lea    -0xbd0(%rbp),%rax
    e610:	48 83 c0 48          	add    $0x48,%rax
    e614:	48 89 85 b0 fc ff ff 	mov    %rax,-0x350(%rbp)
    e61b:	48 8d 85 30 f4 ff ff 	lea    -0xbd0(%rbp),%rax
    e622:	48 83 c0 10          	add    $0x10,%rax
    e626:	48 89 85 b8 fc ff ff 	mov    %rax,-0x348(%rbp)
    e62d:	48 8d 85 30 f4 ff ff 	lea    -0xbd0(%rbp),%rax
    e634:	48 83 c0 48          	add    $0x48,%rax
    e638:	48 89 85 c0 fc ff ff 	mov    %rax,-0x340(%rbp)
    e63f:	48 8d 85 30 f4 ff ff 	lea    -0xbd0(%rbp),%rax
    e646:	48 83 c0 48          	add    $0x48,%rax
    e64a:	48 89 85 c8 fc ff ff 	mov    %rax,-0x338(%rbp)
    e651:	48 8d 85 30 f4 ff ff 	lea    -0xbd0(%rbp),%rax
    e658:	48 83 c0 28          	add    $0x28,%rax
    e65c:	48 89 85 d0 fc ff ff 	mov    %rax,-0x330(%rbp)
    e663:	48 8d 85 30 f4 ff ff 	lea    -0xbd0(%rbp),%rax
    e66a:	48 83 c0 48          	add    $0x48,%rax
    e66e:	48 89 85 d8 fc ff ff 	mov    %rax,-0x328(%rbp)
    e675:	48 8d 85 30 f4 ff ff 	lea    -0xbd0(%rbp),%rax
    e67c:	48 83 c0 48          	add    $0x48,%rax
    e680:	48 89 85 e0 fc ff ff 	mov    %rax,-0x320(%rbp)
    e687:	48 8d 85 30 f4 ff ff 	lea    -0xbd0(%rbp),%rax
    e68e:	48 83 c0 50          	add    $0x50,%rax
    e692:	48 89 85 e8 fc ff ff 	mov    %rax,-0x318(%rbp)
    e699:	48 8d 85 30 f4 ff ff 	lea    -0xbd0(%rbp),%rax
    e6a0:	48 83 c0 48          	add    $0x48,%rax
    e6a4:	48 89 85 f0 fc ff ff 	mov    %rax,-0x310(%rbp)
    e6ab:	48 8d 85 30 f4 ff ff 	lea    -0xbd0(%rbp),%rax
    e6b2:	48 83 c0 40          	add    $0x40,%rax
    e6b6:	48 89 85 f8 fc ff ff 	mov    %rax,-0x308(%rbp)
    e6bd:	48 8d 85 30 f4 ff ff 	lea    -0xbd0(%rbp),%rax
    e6c4:	48 83 c0 10          	add    $0x10,%rax
    e6c8:	48 89 85 00 fd ff ff 	mov    %rax,-0x300(%rbp)
    e6cf:	48 8d 85 30 f4 ff ff 	lea    -0xbd0(%rbp),%rax
    e6d6:	48 83 c0 48          	add    $0x48,%rax
    e6da:	48 89 85 08 fd ff ff 	mov    %rax,-0x2f8(%rbp)
    e6e1:	48 8d 85 30 f4 ff ff 	lea    -0xbd0(%rbp),%rax
    e6e8:	48 83 c0 48          	add    $0x48,%rax
    e6ec:	48 89 85 10 fd ff ff 	mov    %rax,-0x2f0(%rbp)
    e6f3:	48 8d 85 30 f4 ff ff 	lea    -0xbd0(%rbp),%rax
    e6fa:	48 83 c0 48          	add    $0x48,%rax
    e6fe:	48 89 85 18 fd ff ff 	mov    %rax,-0x2e8(%rbp)
    e705:	48 8d 85 30 f4 ff ff 	lea    -0xbd0(%rbp),%rax
    e70c:	48 83 c0 48          	add    $0x48,%rax
    e710:	48 89 85 20 fd ff ff 	mov    %rax,-0x2e0(%rbp)
    e717:	48 8d 85 30 f4 ff ff 	lea    -0xbd0(%rbp),%rax
    e71e:	48 83 c0 48          	add    $0x48,%rax
    e722:	48 89 85 28 fd ff ff 	mov    %rax,-0x2d8(%rbp)
    e729:	48 8d 85 30 f4 ff ff 	lea    -0xbd0(%rbp),%rax
    e730:	48 83 c0 40          	add    $0x40,%rax
    e734:	48 89 85 30 fd ff ff 	mov    %rax,-0x2d0(%rbp)
    e73b:	48 8d 85 30 f4 ff ff 	lea    -0xbd0(%rbp),%rax
    e742:	48 83 c0 48          	add    $0x48,%rax
    e746:	48 89 85 38 fd ff ff 	mov    %rax,-0x2c8(%rbp)
    e74d:	48 8d 85 30 f4 ff ff 	lea    -0xbd0(%rbp),%rax
    e754:	48 83 c0 48          	add    $0x48,%rax
    e758:	48 89 85 40 fd ff ff 	mov    %rax,-0x2c0(%rbp)
    e75f:	48 8d 85 30 f4 ff ff 	lea    -0xbd0(%rbp),%rax
    e766:	48 83 c0 48          	add    $0x48,%rax
    e76a:	48 89 85 48 fd ff ff 	mov    %rax,-0x2b8(%rbp)
    e771:	48 8d 85 30 f4 ff ff 	lea    -0xbd0(%rbp),%rax
    e778:	48 83 c0 48          	add    $0x48,%rax
    e77c:	48 89 85 50 fd ff ff 	mov    %rax,-0x2b0(%rbp)
    e783:	48 8d 85 30 f4 ff ff 	lea    -0xbd0(%rbp),%rax
    e78a:	48 83 c0 48          	add    $0x48,%rax
    e78e:	48 89 85 58 fd ff ff 	mov    %rax,-0x2a8(%rbp)
    e795:	48 8d 85 30 f4 ff ff 	lea    -0xbd0(%rbp),%rax
    e79c:	48 83 c0 48          	add    $0x48,%rax
    e7a0:	48 89 85 60 fd ff ff 	mov    %rax,-0x2a0(%rbp)
    e7a7:	48 8d 85 30 f4 ff ff 	lea    -0xbd0(%rbp),%rax
    e7ae:	48 83 c0 48          	add    $0x48,%rax
    e7b2:	48 89 85 68 fd ff ff 	mov    %rax,-0x298(%rbp)
    e7b9:	48 8d 85 30 f4 ff ff 	lea    -0xbd0(%rbp),%rax
    e7c0:	48 83 c0 48          	add    $0x48,%rax
    e7c4:	48 89 85 70 fd ff ff 	mov    %rax,-0x290(%rbp)
    e7cb:	48 c7 85 78 fd ff ff 	movq   $0x0,-0x288(%rbp)
    e7d2:	00 00 00 00 
    e7d6:	48 8d 85 30 f4 ff ff 	lea    -0xbd0(%rbp),%rax
    e7dd:	48 83 c0 48          	add    $0x48,%rax
    e7e1:	48 89 85 80 fd ff ff 	mov    %rax,-0x280(%rbp)
    e7e8:	48 8d 85 30 f4 ff ff 	lea    -0xbd0(%rbp),%rax
    e7ef:	48 83 c0 48          	add    $0x48,%rax
    e7f3:	48 89 85 88 fd ff ff 	mov    %rax,-0x278(%rbp)
    e7fa:	48 c7 85 90 fd ff ff 	movq   $0x0,-0x270(%rbp)
    e801:	00 00 00 00 
    e805:	48 8d 85 30 f4 ff ff 	lea    -0xbd0(%rbp),%rax
    e80c:	48 83 c0 48          	add    $0x48,%rax
    e810:	48 89 85 98 fd ff ff 	mov    %rax,-0x268(%rbp)
    e817:	48 8d 85 30 f4 ff ff 	lea    -0xbd0(%rbp),%rax
    e81e:	48 83 c0 48          	add    $0x48,%rax
    e822:	48 89 85 a0 fd ff ff 	mov    %rax,-0x260(%rbp)
    e829:	48 c7 85 a8 fd ff ff 	movq   $0x0,-0x258(%rbp)
    e830:	00 00 00 00 
    e834:	48 8d 85 30 f4 ff ff 	lea    -0xbd0(%rbp),%rax
    e83b:	48 83 c0 48          	add    $0x48,%rax
    e83f:	48 89 85 b0 fd ff ff 	mov    %rax,-0x250(%rbp)
    e846:	48 8d 85 30 f4 ff ff 	lea    -0xbd0(%rbp),%rax
    e84d:	48 83 c0 18          	add    $0x18,%rax
    e851:	48 89 85 b8 fd ff ff 	mov    %rax,-0x248(%rbp)
    e858:	48 8d 85 30 f4 ff ff 	lea    -0xbd0(%rbp),%rax
    e85f:	48 83 c0 48          	add    $0x48,%rax
    e863:	48 89 85 c0 fd ff ff 	mov    %rax,-0x240(%rbp)
    e86a:	48 8d 85 30 f4 ff ff 	lea    -0xbd0(%rbp),%rax
    e871:	48 83 c0 48          	add    $0x48,%rax
    e875:	48 89 85 c8 fd ff ff 	mov    %rax,-0x238(%rbp)
    e87c:	48 8d 85 30 f4 ff ff 	lea    -0xbd0(%rbp),%rax
    e883:	48 83 c0 48          	add    $0x48,%rax
    e887:	48 89 85 d0 fd ff ff 	mov    %rax,-0x230(%rbp)
    e88e:	48 8d 85 30 f4 ff ff 	lea    -0xbd0(%rbp),%rax
    e895:	48 83 c0 48          	add    $0x48,%rax
    e899:	48 89 85 d8 fd ff ff 	mov    %rax,-0x228(%rbp)
    e8a0:	48 8d 85 30 f4 ff ff 	lea    -0xbd0(%rbp),%rax
    e8a7:	48 83 c0 48          	add    $0x48,%rax
    e8ab:	48 89 85 e0 fd ff ff 	mov    %rax,-0x220(%rbp)
    e8b2:	48 8d 85 30 f4 ff ff 	lea    -0xbd0(%rbp),%rax
    e8b9:	48 89 85 e8 fd ff ff 	mov    %rax,-0x218(%rbp)
    e8c0:	48 8d 85 30 f4 ff ff 	lea    -0xbd0(%rbp),%rax
    e8c7:	48 83 c0 38          	add    $0x38,%rax
    e8cb:	48 89 85 f0 fd ff ff 	mov    %rax,-0x210(%rbp)
    e8d2:	48 8d 85 30 f4 ff ff 	lea    -0xbd0(%rbp),%rax
    e8d9:	48 83 c0 48          	add    $0x48,%rax
    e8dd:	48 89 85 f8 fd ff ff 	mov    %rax,-0x208(%rbp)
    e8e4:	48 8d 85 30 f4 ff ff 	lea    -0xbd0(%rbp),%rax
    e8eb:	48 83 c0 48          	add    $0x48,%rax
    e8ef:	48 89 85 00 fe ff ff 	mov    %rax,-0x200(%rbp)
    e8f6:	48 8d 85 30 f4 ff ff 	lea    -0xbd0(%rbp),%rax
    e8fd:	48 83 c0 48          	add    $0x48,%rax
    e901:	48 89 85 08 fe ff ff 	mov    %rax,-0x1f8(%rbp)
    e908:	48 8d 85 30 f4 ff ff 	lea    -0xbd0(%rbp),%rax
    e90f:	48 83 c0 48          	add    $0x48,%rax
    e913:	48 89 85 10 fe ff ff 	mov    %rax,-0x1f0(%rbp)
    e91a:	48 8d 85 30 f4 ff ff 	lea    -0xbd0(%rbp),%rax
    e921:	48 83 c0 10          	add    $0x10,%rax
    e925:	48 89 85 18 fe ff ff 	mov    %rax,-0x1e8(%rbp)
    e92c:	48 8d 85 30 f4 ff ff 	lea    -0xbd0(%rbp),%rax
    e933:	48 83 c0 48          	add    $0x48,%rax
    e937:	48 89 85 20 fe ff ff 	mov    %rax,-0x1e0(%rbp)
    e93e:	48 8d 85 30 f4 ff ff 	lea    -0xbd0(%rbp),%rax
    e945:	48 83 c0 48          	add    $0x48,%rax
    e949:	48 89 85 28 fe ff ff 	mov    %rax,-0x1d8(%rbp)
    e950:	48 8d 85 30 f4 ff ff 	lea    -0xbd0(%rbp),%rax
    e957:	48 89 85 30 fe ff ff 	mov    %rax,-0x1d0(%rbp)
    e95e:	48 c7 85 38 fe ff ff 	movq   $0x0,-0x1c8(%rbp)
    e965:	00 00 00 00 
    e969:	48 8d 85 30 f4 ff ff 	lea    -0xbd0(%rbp),%rax
    e970:	48 83 c0 48          	add    $0x48,%rax
    e974:	48 89 85 40 fe ff ff 	mov    %rax,-0x1c0(%rbp)
    e97b:	48 8d 85 30 f4 ff ff 	lea    -0xbd0(%rbp),%rax
    e982:	48 83 c0 48          	add    $0x48,%rax
    e986:	48 89 85 48 fe ff ff 	mov    %rax,-0x1b8(%rbp)
    e98d:	48 c7 85 50 fe ff ff 	movq   $0x0,-0x1b0(%rbp)
    e994:	00 00 00 00 
    e998:	48 c7 85 58 fe ff ff 	movq   $0x0,-0x1a8(%rbp)
    e99f:	00 00 00 00 
    e9a3:	48 8d 85 30 f4 ff ff 	lea    -0xbd0(%rbp),%rax
    e9aa:	48 83 c0 48          	add    $0x48,%rax
    e9ae:	48 89 85 60 fe ff ff 	mov    %rax,-0x1a0(%rbp)
    e9b5:	48 c7 85 68 fe ff ff 	movq   $0x0,-0x198(%rbp)
    e9bc:	00 00 00 00 
    e9c0:	48 8d 85 30 f4 ff ff 	lea    -0xbd0(%rbp),%rax
    e9c7:	48 83 c0 18          	add    $0x18,%rax
    e9cb:	48 89 85 70 fe ff ff 	mov    %rax,-0x190(%rbp)
    e9d2:	48 8d 85 30 f4 ff ff 	lea    -0xbd0(%rbp),%rax
    e9d9:	48 83 c0 48          	add    $0x48,%rax
    e9dd:	48 89 85 78 fe ff ff 	mov    %rax,-0x188(%rbp)
    e9e4:	48 8d 85 30 f4 ff ff 	lea    -0xbd0(%rbp),%rax
    e9eb:	48 83 c0 48          	add    $0x48,%rax
    e9ef:	48 89 85 80 fe ff ff 	mov    %rax,-0x180(%rbp)
    e9f6:	48 8d 85 30 f4 ff ff 	lea    -0xbd0(%rbp),%rax
    e9fd:	48 83 c0 28          	add    $0x28,%rax
    ea01:	48 89 85 88 fe ff ff 	mov    %rax,-0x178(%rbp)
    ea08:	48 8d 85 30 f4 ff ff 	lea    -0xbd0(%rbp),%rax
    ea0f:	48 83 c0 48          	add    $0x48,%rax
    ea13:	48 89 85 90 fe ff ff 	mov    %rax,-0x170(%rbp)
    ea1a:	48 8d 85 30 f4 ff ff 	lea    -0xbd0(%rbp),%rax
    ea21:	48 83 c0 48          	add    $0x48,%rax
    ea25:	48 89 85 98 fe ff ff 	mov    %rax,-0x168(%rbp)
    ea2c:	48 8d 85 30 f4 ff ff 	lea    -0xbd0(%rbp),%rax
    ea33:	48 83 c0 48          	add    $0x48,%rax
    ea37:	48 89 85 a0 fe ff ff 	mov    %rax,-0x160(%rbp)
    ea3e:	48 8d 85 30 f4 ff ff 	lea    -0xbd0(%rbp),%rax
    ea45:	48 89 85 a8 fe ff ff 	mov    %rax,-0x158(%rbp)
    ea4c:	48 8d 85 30 f4 ff ff 	lea    -0xbd0(%rbp),%rax
    ea53:	48 83 c0 40          	add    $0x40,%rax
    ea57:	48 89 85 b0 fe ff ff 	mov    %rax,-0x150(%rbp)
    ea5e:	48 8d 85 30 f4 ff ff 	lea    -0xbd0(%rbp),%rax
    ea65:	48 83 c0 48          	add    $0x48,%rax
    ea69:	48 89 85 b8 fe ff ff 	mov    %rax,-0x148(%rbp)
    ea70:	48 8d 85 30 f4 ff ff 	lea    -0xbd0(%rbp),%rax
    ea77:	48 83 c0 10          	add    $0x10,%rax
    ea7b:	48 89 85 c0 fe ff ff 	mov    %rax,-0x140(%rbp)
    ea82:	48 8d 85 30 f4 ff ff 	lea    -0xbd0(%rbp),%rax
    ea89:	48 83 c0 48          	add    $0x48,%rax
    ea8d:	48 89 85 c8 fe ff ff 	mov    %rax,-0x138(%rbp)
    ea94:	48 8d 85 30 f4 ff ff 	lea    -0xbd0(%rbp),%rax
    ea9b:	48 83 c0 48          	add    $0x48,%rax
    ea9f:	48 89 85 d0 fe ff ff 	mov    %rax,-0x130(%rbp)
    eaa6:	48 8d 85 30 f4 ff ff 	lea    -0xbd0(%rbp),%rax
    eaad:	48 83 c0 28          	add    $0x28,%rax
    eab1:	48 89 85 d8 fe ff ff 	mov    %rax,-0x128(%rbp)
    eab8:	48 8d 85 30 f4 ff ff 	lea    -0xbd0(%rbp),%rax
    eabf:	48 83 c0 48          	add    $0x48,%rax
    eac3:	48 89 85 e0 fe ff ff 	mov    %rax,-0x120(%rbp)
    eaca:	48 8d 85 30 f4 ff ff 	lea    -0xbd0(%rbp),%rax
    ead1:	48 83 c0 48          	add    $0x48,%rax
    ead5:	48 89 85 e8 fe ff ff 	mov    %rax,-0x118(%rbp)
    eadc:	48 8d 85 30 f4 ff ff 	lea    -0xbd0(%rbp),%rax
    eae3:	48 89 85 f0 fe ff ff 	mov    %rax,-0x110(%rbp)
    eaea:	48 8d 85 30 f4 ff ff 	lea    -0xbd0(%rbp),%rax
    eaf1:	48 83 c0 48          	add    $0x48,%rax
    eaf5:	48 89 85 f8 fe ff ff 	mov    %rax,-0x108(%rbp)
    eafc:	48 8d 85 30 f4 ff ff 	lea    -0xbd0(%rbp),%rax
    eb03:	48 83 c0 48          	add    $0x48,%rax
    eb07:	48 89 85 00 ff ff ff 	mov    %rax,-0x100(%rbp)
    eb0e:	48 8d 85 30 f4 ff ff 	lea    -0xbd0(%rbp),%rax
    eb15:	48 83 c0 30          	add    $0x30,%rax
    eb19:	48 89 85 08 ff ff ff 	mov    %rax,-0xf8(%rbp)
    eb20:	48 c7 85 10 ff ff ff 	movq   $0x0,-0xf0(%rbp)
    eb27:	00 00 00 00 
    eb2b:	48 8d 85 30 f4 ff ff 	lea    -0xbd0(%rbp),%rax
    eb32:	48 83 c0 10          	add    $0x10,%rax
    eb36:	48 89 85 18 ff ff ff 	mov    %rax,-0xe8(%rbp)
    eb3d:	48 8d 85 30 f4 ff ff 	lea    -0xbd0(%rbp),%rax
    eb44:	48 83 c0 48          	add    $0x48,%rax
    eb48:	48 89 85 20 ff ff ff 	mov    %rax,-0xe0(%rbp)
    eb4f:	48 8d 85 30 f4 ff ff 	lea    -0xbd0(%rbp),%rax
    eb56:	48 83 c0 48          	add    $0x48,%rax
    eb5a:	48 89 85 28 ff ff ff 	mov    %rax,-0xd8(%rbp)
    eb61:	48 8d 85 30 f4 ff ff 	lea    -0xbd0(%rbp),%rax
    eb68:	48 83 c0 48          	add    $0x48,%rax
    eb6c:	48 89 85 30 ff ff ff 	mov    %rax,-0xd0(%rbp)
    eb73:	48 8d 85 30 f4 ff ff 	lea    -0xbd0(%rbp),%rax
    eb7a:	48 83 c0 18          	add    $0x18,%rax
    eb7e:	48 89 85 38 ff ff ff 	mov    %rax,-0xc8(%rbp)
    eb85:	48 8d 85 30 f4 ff ff 	lea    -0xbd0(%rbp),%rax
    eb8c:	48 83 c0 48          	add    $0x48,%rax
    eb90:	48 89 85 40 ff ff ff 	mov    %rax,-0xc0(%rbp)
    eb97:	48 8d 85 30 f4 ff ff 	lea    -0xbd0(%rbp),%rax
    eb9e:	48 83 c0 48          	add    $0x48,%rax
    eba2:	48 89 85 48 ff ff ff 	mov    %rax,-0xb8(%rbp)
    eba9:	48 c7 85 50 ff ff ff 	movq   $0x0,-0xb0(%rbp)
    ebb0:	00 00 00 00 
    ebb4:	48 8d 85 30 f4 ff ff 	lea    -0xbd0(%rbp),%rax
    ebbb:	48 83 c0 48          	add    $0x48,%rax
    ebbf:	48 89 85 58 ff ff ff 	mov    %rax,-0xa8(%rbp)
    ebc6:	48 8d 85 30 f4 ff ff 	lea    -0xbd0(%rbp),%rax
    ebcd:	48 83 c0 48          	add    $0x48,%rax
    ebd1:	48 89 85 60 ff ff ff 	mov    %rax,-0xa0(%rbp)
    ebd8:	48 8d 85 30 f4 ff ff 	lea    -0xbd0(%rbp),%rax
    ebdf:	48 83 c0 48          	add    $0x48,%rax
    ebe3:	48 89 85 68 ff ff ff 	mov    %rax,-0x98(%rbp)
    ebea:	48 8d 85 30 f4 ff ff 	lea    -0xbd0(%rbp),%rax
    ebf1:	48 83 c0 48          	add    $0x48,%rax
    ebf5:	48 89 85 70 ff ff ff 	mov    %rax,-0x90(%rbp)
    ebfc:	48 8d 85 30 f4 ff ff 	lea    -0xbd0(%rbp),%rax
    ec03:	48 83 c0 48          	add    $0x48,%rax
    ec07:	48 89 85 78 ff ff ff 	mov    %rax,-0x88(%rbp)
    ec0e:	48 8d 85 30 f4 ff ff 	lea    -0xbd0(%rbp),%rax
    ec15:	48 83 c0 48          	add    $0x48,%rax
    ec19:	48 89 45 80          	mov    %rax,-0x80(%rbp)
    ec1d:	48 8d 85 30 f4 ff ff 	lea    -0xbd0(%rbp),%rax
    ec24:	48 83 c0 48          	add    $0x48,%rax
    ec28:	48 89 45 88          	mov    %rax,-0x78(%rbp)
    ec2c:	48 8d 85 30 f4 ff ff 	lea    -0xbd0(%rbp),%rax
    ec33:	48 89 45 90          	mov    %rax,-0x70(%rbp)
    ec37:	48 8d 85 30 f4 ff ff 	lea    -0xbd0(%rbp),%rax
    ec3e:	48 83 c0 48          	add    $0x48,%rax
    ec42:	48 89 45 98          	mov    %rax,-0x68(%rbp)
    ec46:	48 8d 85 30 f4 ff ff 	lea    -0xbd0(%rbp),%rax
    ec4d:	48 83 c0 48          	add    $0x48,%rax
    ec51:	48 89 45 a0          	mov    %rax,-0x60(%rbp)
    ec55:	48 8d 85 30 f4 ff ff 	lea    -0xbd0(%rbp),%rax
    ec5c:	48 83 c0 48          	add    $0x48,%rax
    ec60:	48 89 45 a8          	mov    %rax,-0x58(%rbp)
    ec64:	48 c7 45 b0 00 00 00 	movq   $0x0,-0x50(%rbp)
    ec6b:	00 
    ec6c:	48 c7 45 b8 00 00 00 	movq   $0x0,-0x48(%rbp)
    ec73:	00 
    ec74:	48 8d 05 4b 87 00 00 	lea    0x874b(%rip),%rax        # 173c6 <g_277+0x6>
    ec7b:	48 89 85 a0 f2 ff ff 	mov    %rax,-0xd60(%rbp)
    ec82:	48 8d 05 17 ba 00 00 	lea    0xba17(%rip),%rax        # 1a6a0 <g_111>
    ec89:	48 89 85 a8 f2 ff ff 	mov    %rax,-0xd58(%rbp)
    ec90:	48 8d 05 bb 87 00 00 	lea    0x87bb(%rip),%rax        # 17452 <g_532+0x12>
    ec97:	48 89 85 b0 f2 ff ff 	mov    %rax,-0xd50(%rbp)
    ec9e:	83 bd 1c f1 ff ff 00 	cmpl   $0x0,-0xee4(%rbp)
    eca5:	0f 84 2a 01 00 00    	je     edd5 <func_59+0x15d7>
    ecab:	c6 85 9f f0 ff ff ff 	movb   $0xff,-0xf61(%rbp)
    ecb2:	c6 05 8b d7 00 00 02 	movb   $0x2,0xd78b(%rip)        # 1c444 <g_279>
    ecb9:	e9 03 01 00 00       	jmpq   edc1 <func_59+0x15c3>
    ecbe:	48 8d 05 80 d7 00 00 	lea    0xd780(%rip),%rax        # 1c445 <g_280>
    ecc5:	48 89 85 50 f1 ff ff 	mov    %rax,-0xeb0(%rbp)
    eccc:	48 8d 85 50 f1 ff ff 	lea    -0xeb0(%rbp),%rax
    ecd3:	48 89 85 e0 f2 ff ff 	mov    %rax,-0xd20(%rbp)
    ecda:	48 8d 05 5f d7 00 00 	lea    0xd75f(%rip),%rax        # 1c440 <g_270>
    ece1:	48 89 85 e8 f2 ff ff 	mov    %rax,-0xd18(%rbp)
    ece8:	48 8b 85 60 f2 ff ff 	mov    -0xda0(%rbp),%rax
    ecef:	8b 00                	mov    (%rax),%eax
    ecf1:	48 63 d8             	movslq %eax,%rbx
    ecf4:	48 8b 05 4d ba 00 00 	mov    0xba4d(%rip),%rax        # 1a748 <g_165>
    ecfb:	0f b7 00             	movzwl (%rax),%eax
    ecfe:	44 0f b7 e0          	movzwl %ax,%r12d
    ed02:	48 8b 85 e8 f2 ff ff 	mov    -0xd18(%rbp),%rax
    ed09:	8b 00                	mov    (%rax),%eax
    ed0b:	83 e0 01             	and    $0x1,%eax
    ed0e:	89 c2                	mov    %eax,%edx
    ed10:	48 8b 85 e8 f2 ff ff 	mov    -0xd18(%rbp),%rax
    ed17:	89 10                	mov    %edx,(%rax)
    ed19:	0f b6 95 9f f0 ff ff 	movzbl -0xf61(%rbp),%edx
    ed20:	8b 85 24 f1 ff ff    	mov    -0xedc(%rbp),%eax
    ed26:	89 d6                	mov    %edx,%esi
    ed28:	89 c7                	mov    %eax,%edi
    ed2a:	e8 f6 a1 ff ff       	callq  8f25 <safe_div_func_uint32_t_u_u>
    ed2f:	48 8b 85 80 f0 ff ff 	mov    -0xf80(%rbp),%rax
    ed36:	8b 00                	mov    (%rax),%eax
    ed38:	85 c0                	test   %eax,%eax
    ed3a:	7f 07                	jg     ed43 <func_59+0x1545>
    ed3c:	b8 01 00 00 00       	mov    $0x1,%eax
    ed41:	eb 05                	jmp    ed48 <func_59+0x154a>
    ed43:	b8 00 00 00 00       	mov    $0x0,%eax
    ed48:	0f b7 c0             	movzwl %ax,%eax
    ed4b:	44 89 e6             	mov    %r12d,%esi
    ed4e:	89 c7                	mov    %eax,%edi
    ed50:	e8 39 a0 ff ff       	callq  8d8e <safe_div_func_uint16_t_u_u>
    ed55:	48 8b 05 fc c1 00 00 	mov    0xc1fc(%rip),%rax        # 1af58 <g_351>
    ed5c:	48 89 de             	mov    %rbx,%rsi
    ed5f:	bf 01 00 00 00       	mov    $0x1,%edi
    ed64:	e8 17 a3 ff ff       	callq  9080 <safe_mod_func_uint64_t_u_u>
    ed69:	8b 95 1c f1 ff ff    	mov    -0xee4(%rbp),%edx
    ed6f:	48 39 d0             	cmp    %rdx,%rax
    ed72:	48 8b 95 50 f1 ff ff 	mov    -0xeb0(%rbp),%rdx
    ed79:	48 8b 85 e0 f2 ff ff 	mov    -0xd20(%rbp),%rax
    ed80:	48 89 10             	mov    %rdx,(%rax)
    ed83:	48 8b 85 e0 f2 ff ff 	mov    -0xd20(%rbp),%rax
    ed8a:	48 8b 10             	mov    (%rax),%rdx
    ed8d:	48 8b 85 78 f4 ff ff 	mov    -0xb88(%rbp),%rax
    ed94:	48 39 c2             	cmp    %rax,%rdx
    ed97:	0f 94 c0             	sete   %al
    ed9a:	0f b6 d0             	movzbl %al,%edx
    ed9d:	48 8b 85 38 f2 ff ff 	mov    -0xdc8(%rbp),%rax
    eda4:	89 10                	mov    %edx,(%rax)
    eda6:	48 8b 85 80 f0 ff ff 	mov    -0xf80(%rbp),%rax
    edad:	8b 00                	mov    (%rax),%eax
    edaf:	85 c0                	test   %eax,%eax
    edb1:	0f b6 05 8c d6 00 00 	movzbl 0xd68c(%rip),%eax        # 1c444 <g_279>
    edb8:	83 c0 01             	add    $0x1,%eax
    edbb:	88 05 83 d6 00 00    	mov    %al,0xd683(%rip)        # 1c444 <g_279>
    edc1:	0f b6 05 7c d6 00 00 	movzbl 0xd67c(%rip),%eax        # 1c444 <g_279>
    edc8:	3c 06                	cmp    $0x6,%al
    edca:	0f 86 ee fe ff ff    	jbe    ecbe <func_59+0x14c0>
    edd0:	e9 76 09 00 00       	jmpq   f74b <func_59+0x1f4d>
    edd5:	48 c7 85 50 f1 ff ff 	movq   $0x0,-0xeb0(%rbp)
    eddc:	00 00 00 00 
    ede0:	48 8d 85 50 f1 ff ff 	lea    -0xeb0(%rbp),%rax
    ede7:	48 89 85 90 f4 ff ff 	mov    %rax,-0xb70(%rbp)
    edee:	48 8d 85 50 f1 ff ff 	lea    -0xeb0(%rbp),%rax
    edf5:	48 89 85 98 f4 ff ff 	mov    %rax,-0xb68(%rbp)
    edfc:	48 8d 85 50 f1 ff ff 	lea    -0xeb0(%rbp),%rax
    ee03:	48 89 85 a0 f4 ff ff 	mov    %rax,-0xb60(%rbp)
    ee0a:	48 c7 85 a8 f4 ff ff 	movq   $0x0,-0xb58(%rbp)
    ee11:	00 00 00 00 
    ee15:	48 c7 85 b0 f4 ff ff 	movq   $0x0,-0xb50(%rbp)
    ee1c:	00 00 00 00 
    ee20:	48 8d 85 50 f1 ff ff 	lea    -0xeb0(%rbp),%rax
    ee27:	48 89 85 b8 f4 ff ff 	mov    %rax,-0xb48(%rbp)
    ee2e:	48 8d 85 50 f1 ff ff 	lea    -0xeb0(%rbp),%rax
    ee35:	48 89 85 c0 f4 ff ff 	mov    %rax,-0xb40(%rbp)
    ee3c:	48 8d 85 50 f1 ff ff 	lea    -0xeb0(%rbp),%rax
    ee43:	48 89 85 c8 f4 ff ff 	mov    %rax,-0xb38(%rbp)
    ee4a:	48 8d 85 50 f1 ff ff 	lea    -0xeb0(%rbp),%rax
    ee51:	48 89 85 d0 f4 ff ff 	mov    %rax,-0xb30(%rbp)
    ee58:	48 c7 85 d8 f4 ff ff 	movq   $0x0,-0xb28(%rbp)
    ee5f:	00 00 00 00 
    ee63:	48 8d 85 50 f1 ff ff 	lea    -0xeb0(%rbp),%rax
    ee6a:	48 89 85 e0 f4 ff ff 	mov    %rax,-0xb20(%rbp)
    ee71:	48 8d 85 50 f1 ff ff 	lea    -0xeb0(%rbp),%rax
    ee78:	48 89 85 e8 f4 ff ff 	mov    %rax,-0xb18(%rbp)
    ee7f:	48 8d 85 50 f1 ff ff 	lea    -0xeb0(%rbp),%rax
    ee86:	48 89 85 f0 f4 ff ff 	mov    %rax,-0xb10(%rbp)
    ee8d:	48 8d 85 50 f1 ff ff 	lea    -0xeb0(%rbp),%rax
    ee94:	48 89 85 f8 f4 ff ff 	mov    %rax,-0xb08(%rbp)
    ee9b:	48 8d 85 50 f1 ff ff 	lea    -0xeb0(%rbp),%rax
    eea2:	48 89 85 00 f5 ff ff 	mov    %rax,-0xb00(%rbp)
    eea9:	48 c7 85 08 f5 ff ff 	movq   $0x0,-0xaf8(%rbp)
    eeb0:	00 00 00 00 
    eeb4:	48 c7 85 10 f5 ff ff 	movq   $0x0,-0xaf0(%rbp)
    eebb:	00 00 00 00 
    eebf:	48 8d 85 50 f1 ff ff 	lea    -0xeb0(%rbp),%rax
    eec6:	48 89 85 18 f5 ff ff 	mov    %rax,-0xae8(%rbp)
    eecd:	48 8d 85 50 f1 ff ff 	lea    -0xeb0(%rbp),%rax
    eed4:	48 89 85 20 f5 ff ff 	mov    %rax,-0xae0(%rbp)
    eedb:	48 8d 85 50 f1 ff ff 	lea    -0xeb0(%rbp),%rax
    eee2:	48 89 85 28 f5 ff ff 	mov    %rax,-0xad8(%rbp)
    eee9:	48 8d 85 50 f1 ff ff 	lea    -0xeb0(%rbp),%rax
    eef0:	48 89 85 30 f5 ff ff 	mov    %rax,-0xad0(%rbp)
    eef7:	48 8d 85 90 f4 ff ff 	lea    -0xb70(%rbp),%rax
    eefe:	48 83 c0 58          	add    $0x58,%rax
    ef02:	48 89 85 70 f7 ff ff 	mov    %rax,-0x890(%rbp)
    ef09:	48 8d 85 90 f4 ff ff 	lea    -0xb70(%rbp),%rax
    ef10:	48 05 88 00 00 00    	add    $0x88,%rax
    ef16:	48 89 85 78 f7 ff ff 	mov    %rax,-0x888(%rbp)
    ef1d:	48 8d 85 90 f4 ff ff 	lea    -0xb70(%rbp),%rax
    ef24:	48 05 88 00 00 00    	add    $0x88,%rax
    ef2a:	48 89 85 80 f7 ff ff 	mov    %rax,-0x880(%rbp)
    ef31:	48 8d 85 90 f4 ff ff 	lea    -0xb70(%rbp),%rax
    ef38:	48 05 88 00 00 00    	add    $0x88,%rax
    ef3e:	48 89 85 88 f7 ff ff 	mov    %rax,-0x878(%rbp)
    ef45:	48 8d 85 90 f4 ff ff 	lea    -0xb70(%rbp),%rax
    ef4c:	48 05 88 00 00 00    	add    $0x88,%rax
    ef52:	48 89 85 90 f7 ff ff 	mov    %rax,-0x870(%rbp)
    ef59:	48 8d 85 90 f4 ff ff 	lea    -0xb70(%rbp),%rax
    ef60:	48 05 88 00 00 00    	add    $0x88,%rax
    ef66:	48 89 85 98 f7 ff ff 	mov    %rax,-0x868(%rbp)
    ef6d:	48 8d 85 90 f4 ff ff 	lea    -0xb70(%rbp),%rax
    ef74:	48 05 88 00 00 00    	add    $0x88,%rax
    ef7a:	48 89 85 a0 f7 ff ff 	mov    %rax,-0x860(%rbp)
    ef81:	48 8d 85 90 f4 ff ff 	lea    -0xb70(%rbp),%rax
    ef88:	48 83 c0 58          	add    $0x58,%rax
    ef8c:	48 89 85 a8 f7 ff ff 	mov    %rax,-0x858(%rbp)
    ef93:	48 8d 85 90 f4 ff ff 	lea    -0xb70(%rbp),%rax
    ef9a:	48 05 88 00 00 00    	add    $0x88,%rax
    efa0:	48 89 85 b0 f7 ff ff 	mov    %rax,-0x850(%rbp)
    efa7:	48 8d 85 90 f4 ff ff 	lea    -0xb70(%rbp),%rax
    efae:	48 83 c0 58          	add    $0x58,%rax
    efb2:	48 89 85 b8 f7 ff ff 	mov    %rax,-0x848(%rbp)
    efb9:	48 8d 85 90 f4 ff ff 	lea    -0xb70(%rbp),%rax
    efc0:	48 05 88 00 00 00    	add    $0x88,%rax
    efc6:	48 89 85 c0 f7 ff ff 	mov    %rax,-0x840(%rbp)
    efcd:	48 8d 85 90 f4 ff ff 	lea    -0xb70(%rbp),%rax
    efd4:	48 05 88 00 00 00    	add    $0x88,%rax
    efda:	48 89 85 c8 f7 ff ff 	mov    %rax,-0x838(%rbp)
    efe1:	48 c7 85 d0 f7 ff ff 	movq   $0x0,-0x830(%rbp)
    efe8:	00 00 00 00 
    efec:	48 8d 85 90 f4 ff ff 	lea    -0xb70(%rbp),%rax
    eff3:	48 05 88 00 00 00    	add    $0x88,%rax
    eff9:	48 89 85 d8 f7 ff ff 	mov    %rax,-0x828(%rbp)
    f000:	48 c7 85 e0 f7 ff ff 	movq   $0x0,-0x820(%rbp)
    f007:	00 00 00 00 
    f00b:	48 8d 85 90 f4 ff ff 	lea    -0xb70(%rbp),%rax
    f012:	48 05 88 00 00 00    	add    $0x88,%rax
    f018:	48 89 85 e8 f7 ff ff 	mov    %rax,-0x818(%rbp)
    f01f:	48 8d 85 90 f4 ff ff 	lea    -0xb70(%rbp),%rax
    f026:	48 05 88 00 00 00    	add    $0x88,%rax
    f02c:	48 89 85 f0 f7 ff ff 	mov    %rax,-0x810(%rbp)
    f033:	48 8d 85 90 f4 ff ff 	lea    -0xb70(%rbp),%rax
    f03a:	48 05 88 00 00 00    	add    $0x88,%rax
    f040:	48 89 85 f8 f7 ff ff 	mov    %rax,-0x808(%rbp)
    f047:	48 8d 85 90 f4 ff ff 	lea    -0xb70(%rbp),%rax
    f04e:	48 05 88 00 00 00    	add    $0x88,%rax
    f054:	48 89 85 00 f8 ff ff 	mov    %rax,-0x800(%rbp)
    f05b:	48 8d 85 90 f4 ff ff 	lea    -0xb70(%rbp),%rax
    f062:	48 05 88 00 00 00    	add    $0x88,%rax
    f068:	48 89 85 08 f8 ff ff 	mov    %rax,-0x7f8(%rbp)
    f06f:	48 8d 85 90 f4 ff ff 	lea    -0xb70(%rbp),%rax
    f076:	48 05 88 00 00 00    	add    $0x88,%rax
    f07c:	48 89 85 10 f8 ff ff 	mov    %rax,-0x7f0(%rbp)
    f083:	48 8d 85 90 f4 ff ff 	lea    -0xb70(%rbp),%rax
    f08a:	48 83 c0 58          	add    $0x58,%rax
    f08e:	48 89 85 18 f8 ff ff 	mov    %rax,-0x7e8(%rbp)
    f095:	48 c7 85 20 f8 ff ff 	movq   $0x0,-0x7e0(%rbp)
    f09c:	00 00 00 00 
    f0a0:	48 c7 85 28 f8 ff ff 	movq   $0x0,-0x7d8(%rbp)
    f0a7:	00 00 00 00 
    f0ab:	48 8d 85 90 f4 ff ff 	lea    -0xb70(%rbp),%rax
    f0b2:	48 83 c0 58          	add    $0x58,%rax
    f0b6:	48 89 85 30 f8 ff ff 	mov    %rax,-0x7d0(%rbp)
    f0bd:	48 8d 85 90 f4 ff ff 	lea    -0xb70(%rbp),%rax
    f0c4:	48 05 88 00 00 00    	add    $0x88,%rax
    f0ca:	48 89 85 38 f8 ff ff 	mov    %rax,-0x7c8(%rbp)
    f0d1:	48 8d 85 90 f4 ff ff 	lea    -0xb70(%rbp),%rax
    f0d8:	48 05 88 00 00 00    	add    $0x88,%rax
    f0de:	48 89 85 40 f8 ff ff 	mov    %rax,-0x7c0(%rbp)
    f0e5:	48 8d 85 90 f4 ff ff 	lea    -0xb70(%rbp),%rax
    f0ec:	48 83 c0 58          	add    $0x58,%rax
    f0f0:	48 89 85 48 f8 ff ff 	mov    %rax,-0x7b8(%rbp)
    f0f7:	48 8d 85 90 f4 ff ff 	lea    -0xb70(%rbp),%rax
    f0fe:	48 05 88 00 00 00    	add    $0x88,%rax
    f104:	48 89 85 50 f8 ff ff 	mov    %rax,-0x7b0(%rbp)
    f10b:	48 8d 85 90 f4 ff ff 	lea    -0xb70(%rbp),%rax
    f112:	48 05 88 00 00 00    	add    $0x88,%rax
    f118:	48 89 85 58 f8 ff ff 	mov    %rax,-0x7a8(%rbp)
    f11f:	48 8d 85 90 f4 ff ff 	lea    -0xb70(%rbp),%rax
    f126:	48 05 88 00 00 00    	add    $0x88,%rax
    f12c:	48 89 85 60 f8 ff ff 	mov    %rax,-0x7a0(%rbp)
    f133:	48 8d 85 90 f4 ff ff 	lea    -0xb70(%rbp),%rax
    f13a:	48 83 c0 58          	add    $0x58,%rax
    f13e:	48 89 85 68 f8 ff ff 	mov    %rax,-0x798(%rbp)
    f145:	48 8d 85 90 f4 ff ff 	lea    -0xb70(%rbp),%rax
    f14c:	48 05 88 00 00 00    	add    $0x88,%rax
    f152:	48 89 85 70 f8 ff ff 	mov    %rax,-0x790(%rbp)
    f159:	48 8d 85 90 f4 ff ff 	lea    -0xb70(%rbp),%rax
    f160:	48 83 c0 58          	add    $0x58,%rax
    f164:	48 89 85 78 f8 ff ff 	mov    %rax,-0x788(%rbp)
    f16b:	48 8d 85 90 f4 ff ff 	lea    -0xb70(%rbp),%rax
    f172:	48 05 88 00 00 00    	add    $0x88,%rax
    f178:	48 89 85 80 f8 ff ff 	mov    %rax,-0x780(%rbp)
    f17f:	48 8d 85 90 f4 ff ff 	lea    -0xb70(%rbp),%rax
    f186:	48 05 88 00 00 00    	add    $0x88,%rax
    f18c:	48 89 85 88 f8 ff ff 	mov    %rax,-0x778(%rbp)
    f193:	48 8d 85 90 f4 ff ff 	lea    -0xb70(%rbp),%rax
    f19a:	48 05 88 00 00 00    	add    $0x88,%rax
    f1a0:	48 89 85 90 f8 ff ff 	mov    %rax,-0x770(%rbp)
    f1a7:	48 8d 85 90 f4 ff ff 	lea    -0xb70(%rbp),%rax
    f1ae:	48 05 88 00 00 00    	add    $0x88,%rax
    f1b4:	48 89 85 98 f8 ff ff 	mov    %rax,-0x768(%rbp)
    f1bb:	48 8d 85 90 f4 ff ff 	lea    -0xb70(%rbp),%rax
    f1c2:	48 05 88 00 00 00    	add    $0x88,%rax
    f1c8:	48 89 85 a0 f8 ff ff 	mov    %rax,-0x760(%rbp)
    f1cf:	48 8d 85 90 f4 ff ff 	lea    -0xb70(%rbp),%rax
    f1d6:	48 05 88 00 00 00    	add    $0x88,%rax
    f1dc:	48 89 85 a8 f8 ff ff 	mov    %rax,-0x758(%rbp)
    f1e3:	48 8d 85 90 f4 ff ff 	lea    -0xb70(%rbp),%rax
    f1ea:	48 05 88 00 00 00    	add    $0x88,%rax
    f1f0:	48 89 85 b0 f8 ff ff 	mov    %rax,-0x750(%rbp)
    f1f7:	48 8d 85 90 f4 ff ff 	lea    -0xb70(%rbp),%rax
    f1fe:	48 05 88 00 00 00    	add    $0x88,%rax
    f204:	48 89 85 b8 f8 ff ff 	mov    %rax,-0x748(%rbp)
    f20b:	48 8d 85 90 f4 ff ff 	lea    -0xb70(%rbp),%rax
    f212:	48 05 88 00 00 00    	add    $0x88,%rax
    f218:	48 89 85 c0 f8 ff ff 	mov    %rax,-0x740(%rbp)
    f21f:	48 8d 85 90 f4 ff ff 	lea    -0xb70(%rbp),%rax
    f226:	48 05 88 00 00 00    	add    $0x88,%rax
    f22c:	48 89 85 c8 f8 ff ff 	mov    %rax,-0x738(%rbp)
    f233:	48 c7 85 d0 f8 ff ff 	movq   $0x0,-0x730(%rbp)
    f23a:	00 00 00 00 
    f23e:	48 8d 85 90 f4 ff ff 	lea    -0xb70(%rbp),%rax
    f245:	48 05 88 00 00 00    	add    $0x88,%rax
    f24b:	48 89 85 d8 f8 ff ff 	mov    %rax,-0x728(%rbp)
    f252:	48 8d 85 90 f4 ff ff 	lea    -0xb70(%rbp),%rax
    f259:	48 05 88 00 00 00    	add    $0x88,%rax
    f25f:	48 89 85 e0 f8 ff ff 	mov    %rax,-0x720(%rbp)
    f266:	48 8d 85 90 f4 ff ff 	lea    -0xb70(%rbp),%rax
    f26d:	48 05 88 00 00 00    	add    $0x88,%rax
    f273:	48 89 85 e8 f8 ff ff 	mov    %rax,-0x718(%rbp)
    f27a:	48 c7 85 f0 f8 ff ff 	movq   $0x0,-0x710(%rbp)
    f281:	00 00 00 00 
    f285:	48 8d 85 90 f4 ff ff 	lea    -0xb70(%rbp),%rax
    f28c:	48 05 88 00 00 00    	add    $0x88,%rax
    f292:	48 89 85 f8 f8 ff ff 	mov    %rax,-0x708(%rbp)
    f299:	48 8d 85 70 f7 ff ff 	lea    -0x890(%rbp),%rax
    f2a0:	48 05 b8 00 00 00    	add    $0xb8,%rax
    f2a6:	48 89 85 b8 f2 ff ff 	mov    %rax,-0xd48(%rbp)
    f2ad:	48 8d 05 e4 bc 00 00 	lea    0xbce4(%rip),%rax        # 1af98 <g_487+0x38>
    f2b4:	48 89 85 c0 f2 ff ff 	mov    %rax,-0xd40(%rbp)
    f2bb:	48 8d 05 66 d1 00 00 	lea    0xd166(%rip),%rax        # 1c428 <g_65>
    f2c2:	48 89 85 c8 f2 ff ff 	mov    %rax,-0xd38(%rbp)
    f2c9:	c7 85 28 f1 ff ff 2a 	movl   $0x20f3122a,-0xed8(%rbp)
    f2d0:	12 f3 20 
    f2d3:	c7 85 2c f1 ff ff 2e 	movl   $0xa3550f2e,-0xed4(%rbp)
    f2da:	0f 55 a3 
    f2dd:	8b 85 d8 f0 ff ff    	mov    -0xf28(%rbp),%eax
    f2e3:	98                   	cwtl   
    f2e4:	be 02 00 00 00       	mov    $0x2,%esi
    f2e9:	89 c7                	mov    %eax,%edi
    f2eb:	e8 a2 91 ff ff       	callq  8492 <safe_lshift_func_int16_t_s_s>
    f2f0:	0f bf d0             	movswl %ax,%edx
    f2f3:	0f b6 05 6c 80 00 00 	movzbl 0x806c(%rip),%eax        # 17366 <g_274>
    f2fa:	0f b6 c0             	movzbl %al,%eax
    f2fd:	31 c2                	xor    %eax,%edx
    f2ff:	41 89 d4             	mov    %edx,%r12d
    f302:	48 8b 85 80 f0 ff ff 	mov    -0xf80(%rbp),%rax
    f309:	8b 18                	mov    (%rax),%ebx
    f30b:	48 8b 85 78 f0 ff ff 	mov    -0xf88(%rbp),%rax
    f312:	f7 d0                	not    %eax
    f314:	0f be c0             	movsbl %al,%eax
    f317:	89 c6                	mov    %eax,%esi
    f319:	bf 03 00 00 00       	mov    $0x3,%edi
    f31e:	e8 ef 8e ff ff       	callq  8212 <safe_mul_func_int8_t_s_s>
    f323:	84 c0                	test   %al,%al
    f325:	75 5f                	jne    f386 <func_59+0x1b88>
    f327:	48 8b 95 28 f8 ff ff 	mov    -0x7d8(%rbp),%rdx
    f32e:	48 8b 85 b8 f2 ff ff 	mov    -0xd48(%rbp),%rax
    f335:	48 89 10             	mov    %rdx,(%rax)
    f338:	48 8b 15 51 bc 00 00 	mov    0xbc51(%rip),%rdx        # 1af90 <g_487+0x30>
    f33f:	48 8b 85 c0 f2 ff ff 	mov    -0xd40(%rbp),%rax
    f346:	48 89 10             	mov    %rdx,(%rax)
    f349:	8b 85 74 f0 ff ff    	mov    -0xf8c(%rbp),%eax
    f34f:	89 c2                	mov    %eax,%edx
    f351:	48 8b 85 c8 f2 ff ff 	mov    -0xd38(%rbp),%rax
    f358:	88 10                	mov    %dl,(%rax)
    f35a:	48 8b 85 c8 f2 ff ff 	mov    -0xd38(%rbp),%rax
    f361:	0f b6 00             	movzbl (%rax),%eax
    f364:	0f be c0             	movsbl %al,%eax
    f367:	89 85 20 f1 ff ff    	mov    %eax,-0xee0(%rbp)
    f36d:	8b 85 20 f1 ff ff    	mov    -0xee0(%rbp),%eax
    f373:	0f be c0             	movsbl %al,%eax
    f376:	be 00 00 00 00       	mov    $0x0,%esi
    f37b:	89 c7                	mov    %eax,%edi
    f37d:	e8 ea 8f ff ff       	callq  836c <safe_rshift_func_int8_t_s_u>
    f382:	84 c0                	test   %al,%al
    f384:	74 07                	je     f38d <func_59+0x1b8f>
    f386:	b8 01 00 00 00       	mov    $0x1,%eax
    f38b:	eb 05                	jmp    f392 <func_59+0x1b94>
    f38d:	b8 00 00 00 00       	mov    $0x0,%eax
    f392:	0f b6 c0             	movzbl %al,%eax
    f395:	be f3 00 00 00       	mov    $0xf3,%esi
    f39a:	89 c7                	mov    %eax,%edi
    f39c:	e8 0d 98 ff ff       	callq  8bae <safe_mod_func_uint8_t_u_u>
    f3a1:	0f b6 c0             	movzbl %al,%eax
    f3a4:	21 c3                	and    %eax,%ebx
    f3a6:	89 da                	mov    %ebx,%edx
    f3a8:	0f b6 05 96 d0 00 00 	movzbl 0xd096(%rip),%eax        # 1c445 <g_280>
    f3af:	0f b6 c0             	movzbl %al,%eax
    f3b2:	39 c2                	cmp    %eax,%edx
    f3b4:	0f 9c c0             	setl   %al
    f3b7:	0f b6 c0             	movzbl %al,%eax
    f3ba:	44 21 e0             	and    %r12d,%eax
    f3bd:	85 c0                	test   %eax,%eax
    f3bf:	75 0c                	jne    f3cd <func_59+0x1bcf>
    f3c1:	48 8b 85 78 f0 ff ff 	mov    -0xf88(%rbp),%rax
    f3c8:	48 85 c0             	test   %rax,%rax
    f3cb:	74 07                	je     f3d4 <func_59+0x1bd6>
    f3cd:	b8 01 00 00 00       	mov    $0x1,%eax
    f3d2:	eb 05                	jmp    f3d9 <func_59+0x1bdb>
    f3d4:	b8 00 00 00 00       	mov    $0x0,%eax
    f3d9:	89 85 28 f1 ff ff    	mov    %eax,-0xed8(%rbp)
    f3df:	83 bd 24 f1 ff ff 00 	cmpl   $0x0,-0xedc(%rbp)
    f3e6:	0f 85 b8 03 00 00    	jne    f7a4 <func_59+0x1fa6>
    f3ec:	8b 85 ac f0 ff ff    	mov    -0xf54(%rbp),%eax
    f3f2:	85 c0                	test   %eax,%eax
    f3f4:	0f 94 c0             	sete   %al
    f3f7:	0f b6 c0             	movzbl %al,%eax
    f3fa:	be 05 00 00 00       	mov    $0x5,%esi
    f3ff:	89 c7                	mov    %eax,%edi
    f401:	e8 2f 8f ff ff       	callq  8335 <safe_rshift_func_int8_t_s_s>
    f406:	0f be d0             	movsbl %al,%edx
    f409:	8b 85 ac f0 ff ff    	mov    -0xf54(%rbp),%eax
    f40f:	0f be c0             	movsbl %al,%eax
    f412:	89 d6                	mov    %edx,%esi
    f414:	89 c7                	mov    %eax,%edi
    f416:	e8 51 8f ff ff       	callq  836c <safe_rshift_func_int8_t_s_u>
    f41b:	48 8b 05 2e bb 00 00 	mov    0xbb2e(%rip),%rax        # 1af50 <g_352>
    f422:	48 8b 00             	mov    (%rax),%rax
    f425:	48 8b 00             	mov    (%rax),%rax
    f428:	48 89 85 e8 f9 ff ff 	mov    %rax,-0x618(%rbp)
    f42f:	48 8b 05 1a bb 00 00 	mov    0xbb1a(%rip),%rax        # 1af50 <g_352>
    f436:	48 8b 00             	mov    (%rax),%rax
    f439:	48 8b 95 e8 f9 ff ff 	mov    -0x618(%rbp),%rdx
    f440:	48 89 10             	mov    %rdx,(%rax)
    f443:	48 8b 00             	mov    (%rax),%rax
    f446:	48 8d 95 30 f4 ff ff 	lea    -0xbd0(%rbp),%rdx
    f44d:	48 83 c2 28          	add    $0x28,%rdx
    f451:	48 39 d0             	cmp    %rdx,%rax
    f454:	75 07                	jne    f45d <func_59+0x1c5f>
    f456:	b8 01 00 00 00       	mov    $0x1,%eax
    f45b:	eb 05                	jmp    f462 <func_59+0x1c64>
    f45d:	b8 00 00 00 00       	mov    $0x0,%eax
    f462:	89 c6                	mov    %eax,%esi
    f464:	bf f8 a5 f4 45       	mov    $0x45f4a5f8,%edi
    f469:	e8 62 9a ff ff       	callq  8ed0 <safe_sub_func_uint32_t_u_u>
    f46e:	85 c0                	test   %eax,%eax
    f470:	74 50                	je     f4c2 <func_59+0x1cc4>
    f472:	48 8d 05 27 b2 00 00 	lea    0xb227(%rip),%rax        # 1a6a0 <g_111>
    f479:	48 89 85 d0 f2 ff ff 	mov    %rax,-0xd30(%rbp)
    f480:	c7 85 30 f1 ff ff 38 	movl   $0x978c7138,-0xed0(%rbp)
    f487:	71 8c 97 
    f48a:	48 8b 85 80 f3 ff ff 	mov    -0xc80(%rbp),%rax
    f491:	48 89 05 18 bb 00 00 	mov    %rax,0xbb18(%rip)        # 1afb0 <g_507>
    f498:	48 8b 05 11 bb 00 00 	mov    0xbb11(%rip),%rax        # 1afb0 <g_507>
    f49f:	48 8b 95 a8 f2 ff ff 	mov    -0xd58(%rbp),%rdx
    f4a6:	48 89 95 d0 f2 ff ff 	mov    %rdx,-0xd30(%rbp)
    f4ad:	48 39 85 d0 f2 ff ff 	cmp    %rax,-0xd30(%rbp)
    f4b4:	0f 95 c0             	setne  %al
    f4b7:	0f b6 c0             	movzbl %al,%eax
    f4ba:	89 85 30 f1 ff ff    	mov    %eax,-0xed0(%rbp)
    f4c0:	eb 0d                	jmp    f4cf <func_59+0x1cd1>
    f4c2:	48 8b 85 68 f2 ff ff 	mov    -0xd98(%rbp),%rax
    f4c9:	c7 00 08 00 00 00    	movl   $0x8,(%rax)
    f4cf:	c6 05 6f cf 00 00 00 	movb   $0x0,0xcf6f(%rip)        # 1c445 <g_280>
    f4d6:	90                   	nop
    f4d7:	0f b6 05 67 cf 00 00 	movzbl 0xcf67(%rip),%eax        # 1c445 <g_280>
    f4de:	3c 06                	cmp    $0x6,%al
    f4e0:	0f 87 65 02 00 00    	ja     f74b <func_59+0x1f4d>
    f4e6:	48 c7 85 d8 f2 ff ff 	movq   $0x1,-0xd28(%rbp)
    f4ed:	01 00 00 00 
    f4f1:	c7 85 34 f1 ff ff 01 	movl   $0x1,-0xecc(%rbp)
    f4f8:	00 00 00 
    f4fb:	8b 85 1c f1 ff ff    	mov    -0xee4(%rbp),%eax
    f501:	0f be d8             	movsbl %al,%ebx
    f504:	8b 05 1e 7b 00 00    	mov    0x7b1e(%rip),%eax        # 17028 <g_29>
    f50a:	4c 63 e0             	movslq %eax,%r12
    f50d:	0f b6 05 fc 7e 00 00 	movzbl 0x7efc(%rip),%eax        # 17410 <g_345>
    f514:	66 98                	cbtw   
    f516:	44 0f b7 e8          	movzwl %ax,%r13d
    f51a:	48 8b 85 d8 f2 ff ff 	mov    -0xd28(%rbp),%rax
    f521:	44 0f bf f0          	movswl %ax,%r14d
    f525:	48 8b 85 78 f0 ff ff 	mov    -0xf88(%rbp),%rax
    f52c:	89 85 70 f0 ff ff    	mov    %eax,-0xf90(%rbp)
    f532:	48 8b 05 ff ce 00 00 	mov    0xceff(%rip),%rax        # 1c438 <g_192>
    f539:	89 85 6c f0 ff ff    	mov    %eax,-0xf94(%rbp)
    f53f:	0f b6 05 87 7e 00 00 	movzbl 0x7e87(%rip),%eax        # 173cd <g_277+0xd>
    f546:	44 0f b6 f8          	movzbl %al,%r15d
    f54a:	8b 85 74 f0 ff ff    	mov    -0xf8c(%rbp),%eax
    f550:	89 85 68 f0 ff ff    	mov    %eax,-0xf98(%rbp)
    f556:	8b 85 34 f1 ff ff    	mov    -0xecc(%rbp),%eax
    f55c:	0f bf d0             	movswl %ax,%edx
    f55f:	0f b6 05 04 7f 00 00 	movzbl 0x7f04(%rip),%eax        # 1746a <g_548>
    f566:	0f b6 c0             	movzbl %al,%eax
    f569:	89 d6                	mov    %edx,%esi
    f56b:	89 c7                	mov    %eax,%edi
    f56d:	e8 41 8e ff ff       	callq  83b3 <safe_add_func_int16_t_s_s>
    f572:	0f b7 d0             	movzwl %ax,%edx
    f575:	48 8b 85 b0 f2 ff ff 	mov    -0xd50(%rbp),%rax
    f57c:	0f b7 00             	movzwl (%rax),%eax
    f57f:	8d 48 ff             	lea    -0x1(%rax),%ecx
    f582:	48 8b 85 b0 f2 ff ff 	mov    -0xd50(%rbp),%rax
    f589:	66 89 08             	mov    %cx,(%rax)
    f58c:	48 8b 85 b0 f2 ff ff 	mov    -0xd50(%rbp),%rax
    f593:	0f b7 00             	movzwl (%rax),%eax
    f596:	0f b7 c0             	movzwl %ax,%eax
    f599:	89 d6                	mov    %edx,%esi
    f59b:	89 c7                	mov    %eax,%edi
    f59d:	e8 9b 97 ff ff       	callq  8d3d <safe_mul_func_uint16_t_u_u>
    f5a2:	0f b6 c0             	movzbl %al,%eax
    f5a5:	be f6 00 00 00       	mov    $0xf6,%esi
    f5aa:	89 c7                	mov    %eax,%edi
    f5ac:	e8 e2 95 ff ff       	callq  8b93 <safe_mul_func_uint8_t_u_u>
    f5b1:	0f b6 c0             	movzbl %al,%eax
    f5b4:	8b b5 68 f0 ff ff    	mov    -0xf98(%rbp),%esi
    f5ba:	89 c7                	mov    %eax,%edi
    f5bc:	e8 3e 91 ff ff       	callq  86ff <safe_div_func_int32_t_s_s>
    f5c1:	8b 85 28 f1 ff ff    	mov    -0xed8(%rbp),%eax
    f5c7:	98                   	cwtl   
    f5c8:	be 04 00 00 00       	mov    $0x4,%esi
    f5cd:	89 c7                	mov    %eax,%edi
    f5cf:	e8 8f 8f ff ff       	callq  8563 <safe_rshift_func_int16_t_s_u>
    f5d4:	98                   	cwtl   
    f5d5:	44 89 fe             	mov    %r15d,%esi
    f5d8:	89 c7                	mov    %eax,%edi
    f5da:	e8 d9 98 ff ff       	callq  8eb8 <safe_add_func_uint32_t_u_u>
    f5df:	48 8d 05 6c 7e 00 00 	lea    0x7e6c(%rip),%rax        # 17452 <g_532+0x12>
    f5e6:	48 39 85 b0 f2 ff ff 	cmp    %rax,-0xd50(%rbp)
    f5ed:	0f 95 c0             	setne  %al
    f5f0:	0f b6 c0             	movzbl %al,%eax
    f5f3:	8b b5 6c f0 ff ff    	mov    -0xf94(%rbp),%esi
    f5f9:	89 c7                	mov    %eax,%edi
    f5fb:	e8 a1 8c ff ff       	callq  82a1 <safe_lshift_func_int8_t_s_s>
    f600:	84 c0                	test   %al,%al
    f602:	74 07                	je     f60b <func_59+0x1e0d>
    f604:	83 bd 74 f0 ff ff 00 	cmpl   $0x0,-0xf8c(%rbp)
    f60b:	8b 85 74 f0 ff ff    	mov    -0xf8c(%rbp),%eax
    f611:	89 c6                	mov    %eax,%esi
    f613:	bf 01 00 00 00       	mov    $0x1,%edi
    f618:	e8 d1 8c ff ff       	callq  82ee <safe_lshift_func_int8_t_s_u>
    f61d:	0f be c0             	movsbl %al,%eax
    f620:	89 85 20 f1 ff ff    	mov    %eax,-0xee0(%rbp)
    f626:	8b 85 20 f1 ff ff    	mov    -0xee0(%rbp),%eax
    f62c:	98                   	cwtl   
    f62d:	8b b5 70 f0 ff ff    	mov    -0xf90(%rbp),%esi
    f633:	89 c7                	mov    %eax,%edi
    f635:	e8 a7 8e ff ff       	callq  84e1 <safe_lshift_func_int16_t_s_u>
    f63a:	83 f0 01             	xor    $0x1,%eax
    f63d:	83 c8 51             	or     $0x51,%eax
    f640:	98                   	cwtl   
    f641:	44 89 f6             	mov    %r14d,%esi
    f644:	89 c7                	mov    %eax,%edi
    f646:	e8 0a 8e ff ff       	callq  8455 <safe_div_func_int16_t_s_s>
    f64b:	66 85 c0             	test   %ax,%ax
    f64e:	74 14                	je     f664 <func_59+0x1e66>
    f650:	48 8b 85 18 f2 ff ff 	mov    -0xde8(%rbp),%rax
    f657:	8b 00                	mov    (%rax),%eax
    f659:	85 c0                	test   %eax,%eax
    f65b:	74 07                	je     f664 <func_59+0x1e66>
    f65d:	ba 01 00 00 00       	mov    $0x1,%edx
    f662:	eb 05                	jmp    f669 <func_59+0x1e6b>
    f664:	ba 00 00 00 00       	mov    $0x0,%edx
    f669:	8b 05 d5 7b 00 00    	mov    0x7bd5(%rip),%eax        # 17244 <g_125>
    f66f:	39 c2                	cmp    %eax,%edx
    f671:	0f 95 c0             	setne  %al
    f674:	0f b6 c0             	movzbl %al,%eax
    f677:	39 85 34 f1 ff ff    	cmp    %eax,-0xecc(%rbp)
    f67d:	75 10                	jne    f68f <func_59+0x1e91>
    f67f:	83 bd 74 f0 ff ff 00 	cmpl   $0x0,-0xf8c(%rbp)
    f686:	74 07                	je     f68f <func_59+0x1e91>
    f688:	ba 01 00 00 00       	mov    $0x1,%edx
    f68d:	eb 05                	jmp    f694 <func_59+0x1e96>
    f68f:	ba 00 00 00 00       	mov    $0x0,%edx
    f694:	48 8b 85 a8 f2 ff ff 	mov    -0xd58(%rbp),%rax
    f69b:	48 8b 00             	mov    (%rax),%rax
    f69e:	66 89 10             	mov    %dx,(%rax)
    f6a1:	0f b7 00             	movzwl (%rax),%eax
    f6a4:	0f b7 d0             	movzwl %ax,%edx
    f6a7:	48 8b 85 78 f0 ff ff 	mov    -0xf88(%rbp),%rax
    f6ae:	48 85 c0             	test   %rax,%rax
    f6b1:	0f 9f c0             	setg   %al
    f6b4:	0f b6 c8             	movzbl %al,%ecx
    f6b7:	48 8b 85 90 f2 ff ff 	mov    -0xd70(%rbp),%rax
    f6be:	66 89 08             	mov    %cx,(%rax)
    f6c1:	48 8b 85 90 f2 ff ff 	mov    -0xd70(%rbp),%rax
    f6c8:	0f b7 00             	movzwl (%rax),%eax
    f6cb:	0f b7 c0             	movzwl %ax,%eax
    f6ce:	89 d6                	mov    %edx,%esi
    f6d0:	89 c7                	mov    %eax,%edi
    f6d2:	e8 85 96 ff ff       	callq  8d5c <safe_mod_func_uint16_t_u_u>
    f6d7:	44 89 ee             	mov    %r13d,%esi
    f6da:	bf 05 00 00 00       	mov    $0x5,%edi
    f6df:	e8 aa 96 ff ff       	callq  8d8e <safe_div_func_uint16_t_u_u>
    f6e4:	66 83 f8 05          	cmp    $0x5,%ax
    f6e8:	0f 96 c0             	setbe  %al
    f6eb:	0f b6 c0             	movzbl %al,%eax
    f6ee:	be 14 8b 00 00       	mov    $0x8b14,%esi
    f6f3:	89 c7                	mov    %eax,%edi
    f6f5:	e8 25 96 ff ff       	callq  8d1f <safe_sub_func_uint16_t_u_u>
    f6fa:	0f b7 c0             	movzwl %ax,%eax
    f6fd:	4c 89 e6             	mov    %r12,%rsi
    f700:	48 89 c7             	mov    %rax,%rdi
    f703:	e8 ac 92 ff ff       	callq  89b4 <safe_mod_func_int64_t_s_s>
    f708:	48 85 c0             	test   %rax,%rax
    f70b:	74 16                	je     f723 <func_59+0x1f25>
    f70d:	48 8b 05 34 b0 00 00 	mov    0xb034(%rip),%rax        # 1a748 <g_165>
    f714:	0f b7 00             	movzwl (%rax),%eax
    f717:	66 85 c0             	test   %ax,%ax
    f71a:	74 07                	je     f723 <func_59+0x1f25>
    f71c:	b8 01 00 00 00       	mov    $0x1,%eax
    f721:	eb 05                	jmp    f728 <func_59+0x1f2a>
    f723:	b8 00 00 00 00       	mov    $0x0,%eax
    f728:	0f be c0             	movsbl %al,%eax
    f72b:	89 de                	mov    %ebx,%esi
    f72d:	89 c7                	mov    %eax,%edi
    f72f:	e8 a0 8a ff ff       	callq  81d4 <safe_add_func_int8_t_s_s>
    f734:	0f be c0             	movsbl %al,%eax
    f737:	21 85 2c f1 ff ff    	and    %eax,-0xed4(%rbp)
    f73d:	48 8b 85 80 f0 ff ff 	mov    -0xf80(%rbp),%rax
    f744:	8b 00                	mov    (%rax),%eax
    f746:	e9 83 09 00 00       	jmpq   100ce <func_59+0x28d0>
    f74b:	c7 05 eb cc 00 00 01 	movl   $0x1,0xcceb(%rip)        # 1c440 <g_270>
    f752:	00 00 00 
    f755:	90                   	nop
    f756:	8b 05 e4 cc 00 00    	mov    0xcce4(%rip),%eax        # 1c440 <g_270>
    f75c:	83 f8 06             	cmp    $0x6,%eax
    f75f:	77 43                	ja     f7a4 <func_59+0x1fa6>
    f761:	48 c7 85 f0 f2 ff ff 	movq   $0x0,-0xd10(%rbp)
    f768:	00 00 00 00 
    f76c:	48 8d 85 48 f1 ff ff 	lea    -0xeb8(%rbp),%rax
    f773:	48 89 85 f8 f2 ff ff 	mov    %rax,-0xd08(%rbp)
    f77a:	48 8b 85 f8 f2 ff ff 	mov    -0xd08(%rbp),%rax
    f781:	48 c7 00 00 00 00 00 	movq   $0x0,(%rax)
    f788:	48 8b 85 88 f0 ff ff 	mov    -0xf78(%rbp),%rax
    f78f:	8b 00                	mov    (%rax),%eax
    f791:	85 c0                	test   %eax,%eax
    f793:	75 0e                	jne    f7a3 <func_59+0x1fa5>
    f795:	48 8b 85 80 f0 ff ff 	mov    -0xf80(%rbp),%rax
    f79c:	8b 00                	mov    (%rax),%eax
    f79e:	e9 2b 09 00 00       	jmpq   100ce <func_59+0x28d0>
    f7a3:	90                   	nop
    f7a4:	8b 05 92 7a 00 00    	mov    0x7a92(%rip),%eax        # 1723c <g_90>
    f7aa:	83 c0 01             	add    $0x1,%eax
    f7ad:	89 05 89 7a 00 00    	mov    %eax,0x7a89(%rip)        # 1723c <g_90>
    f7b3:	8b 05 83 7a 00 00    	mov    0x7a83(%rip),%eax        # 1723c <g_90>
    f7b9:	83 f8 06             	cmp    $0x6,%eax
    f7bc:	0f 8e 89 e5 ff ff    	jle    dd4b <func_59+0x54d>
    f7c2:	0f b6 05 47 7c 00 00 	movzbl 0x7c47(%rip),%eax        # 17410 <g_345>
    f7c9:	83 e8 01             	sub    $0x1,%eax
    f7cc:	88 05 3e 7c 00 00    	mov    %al,0x7c3e(%rip)        # 17410 <g_345>
    f7d2:	0f b6 05 37 7c 00 00 	movzbl 0x7c37(%rip),%eax        # 17410 <g_345>
    f7d9:	84 c0                	test   %al,%al
    f7db:	0f 89 9a e3 ff ff    	jns    db7b <func_59+0x37d>
    f7e1:	c7 85 d4 f0 ff ff 02 	movl   $0x2,-0xf2c(%rbp)
    f7e8:	00 00 00 
    f7eb:	e9 ea 03 00 00       	jmpq   fbda <func_59+0x23dc>
    f7f0:	48 8d 05 29 7c 00 00 	lea    0x7c29(%rip),%rax        # 17420 <g_371>
    f7f7:	48 89 85 b0 f1 ff ff 	mov    %rax,-0xe50(%rbp)
    f7fe:	c7 85 50 f1 ff ff 35 	movl   $0x23374735,-0xeb0(%rbp)
    f805:	47 37 23 
    f808:	48 8d 85 50 f1 ff ff 	lea    -0xeb0(%rbp),%rax
    f80f:	48 89 85 b8 f1 ff ff 	mov    %rax,-0xe48(%rbp)
    f816:	48 8d 85 50 f1 ff ff 	lea    -0xeb0(%rbp),%rax
    f81d:	48 89 85 c0 f1 ff ff 	mov    %rax,-0xe40(%rbp)
    f824:	48 8d 05 f5 7b 00 00 	lea    0x7bf5(%rip),%rax        # 17420 <g_371>
    f82b:	48 89 85 c8 f1 ff ff 	mov    %rax,-0xe38(%rbp)
    f832:	48 8d 85 50 f1 ff ff 	lea    -0xeb0(%rbp),%rax
    f839:	48 89 85 d0 f1 ff ff 	mov    %rax,-0xe30(%rbp)
    f840:	48 8d 05 d9 7b 00 00 	lea    0x7bd9(%rip),%rax        # 17420 <g_371>
    f847:	48 89 85 d8 f1 ff ff 	mov    %rax,-0xe28(%rbp)
    f84e:	48 8d 05 e7 79 00 00 	lea    0x79e7(%rip),%rax        # 1723c <g_90>
    f855:	48 89 85 e0 f1 ff ff 	mov    %rax,-0xe20(%rbp)
    f85c:	48 8d 05 d9 79 00 00 	lea    0x79d9(%rip),%rax        # 1723c <g_90>
    f863:	48 89 85 e8 f1 ff ff 	mov    %rax,-0xe18(%rbp)
    f86a:	48 8d 05 a7 7b 00 00 	lea    0x7ba7(%rip),%rax        # 17418 <g_354>
    f871:	48 89 85 f0 f1 ff ff 	mov    %rax,-0xe10(%rbp)
    f878:	48 c7 85 f8 f1 ff ff 	movq   $0x0,-0xe08(%rbp)
    f87f:	00 00 00 00 
    f883:	48 8d 05 96 7b 00 00 	lea    0x7b96(%rip),%rax        # 17420 <g_371>
    f88a:	48 89 85 00 f2 ff ff 	mov    %rax,-0xe00(%rbp)
    f891:	48 8d 05 ac 79 00 00 	lea    0x79ac(%rip),%rax        # 17244 <g_125>
    f898:	48 89 85 00 f9 ff ff 	mov    %rax,-0x700(%rbp)
    f89f:	48 8d 05 96 79 00 00 	lea    0x7996(%rip),%rax        # 1723c <g_90>
    f8a6:	48 89 85 08 f9 ff ff 	mov    %rax,-0x6f8(%rbp)
    f8ad:	48 8d 05 88 79 00 00 	lea    0x7988(%rip),%rax        # 1723c <g_90>
    f8b4:	48 89 85 10 f9 ff ff 	mov    %rax,-0x6f0(%rbp)
    f8bb:	48 8d 05 82 79 00 00 	lea    0x7982(%rip),%rax        # 17244 <g_125>
    f8c2:	48 89 85 18 f9 ff ff 	mov    %rax,-0x6e8(%rbp)
    f8c9:	48 8d 85 ac f0 ff ff 	lea    -0xf54(%rbp),%rax
    f8d0:	48 89 85 20 f9 ff ff 	mov    %rax,-0x6e0(%rbp)
    f8d7:	48 c7 85 28 f9 ff ff 	movq   $0x0,-0x6d8(%rbp)
    f8de:	00 00 00 00 
    f8e2:	48 8d 85 ac f0 ff ff 	lea    -0xf54(%rbp),%rax
    f8e9:	48 89 85 30 f9 ff ff 	mov    %rax,-0x6d0(%rbp)
    f8f0:	48 8d 05 4d 79 00 00 	lea    0x794d(%rip),%rax        # 17244 <g_125>
    f8f7:	48 89 85 38 f9 ff ff 	mov    %rax,-0x6c8(%rbp)
    f8fe:	48 8d 05 37 79 00 00 	lea    0x7937(%rip),%rax        # 1723c <g_90>
    f905:	48 89 85 40 f9 ff ff 	mov    %rax,-0x6c0(%rbp)
    f90c:	48 8d 85 ac f0 ff ff 	lea    -0xf54(%rbp),%rax
    f913:	48 89 85 48 f9 ff ff 	mov    %rax,-0x6b8(%rbp)
    f91a:	48 8d 05 1b 79 00 00 	lea    0x791b(%rip),%rax        # 1723c <g_90>
    f921:	48 89 85 50 f9 ff ff 	mov    %rax,-0x6b0(%rbp)
    f928:	48 8d 85 b0 f0 ff ff 	lea    -0xf50(%rbp),%rax
    f92f:	48 89 85 58 f9 ff ff 	mov    %rax,-0x6a8(%rbp)
    f936:	48 8d 05 07 79 00 00 	lea    0x7907(%rip),%rax        # 17244 <g_125>
    f93d:	48 89 85 60 f9 ff ff 	mov    %rax,-0x6a0(%rbp)
    f944:	48 8d 05 f9 78 00 00 	lea    0x78f9(%rip),%rax        # 17244 <g_125>
    f94b:	48 89 85 68 f9 ff ff 	mov    %rax,-0x698(%rbp)
    f952:	48 8d 85 b0 f0 ff ff 	lea    -0xf50(%rbp),%rax
    f959:	48 89 85 70 f9 ff ff 	mov    %rax,-0x690(%rbp)
    f960:	48 8d 05 d5 78 00 00 	lea    0x78d5(%rip),%rax        # 1723c <g_90>
    f967:	48 89 85 78 f9 ff ff 	mov    %rax,-0x688(%rbp)
    f96e:	48 8d 85 ac f0 ff ff 	lea    -0xf54(%rbp),%rax
    f975:	48 89 85 80 f9 ff ff 	mov    %rax,-0x680(%rbp)
    f97c:	48 8d 85 ac f0 ff ff 	lea    -0xf54(%rbp),%rax
    f983:	48 89 85 88 f9 ff ff 	mov    %rax,-0x678(%rbp)
    f98a:	48 8d 05 b3 78 00 00 	lea    0x78b3(%rip),%rax        # 17244 <g_125>
    f991:	48 89 85 90 f9 ff ff 	mov    %rax,-0x670(%rbp)
    f998:	48 c7 85 98 f9 ff ff 	movq   $0x0,-0x668(%rbp)
    f99f:	00 00 00 00 
    f9a3:	48 c7 85 a0 f9 ff ff 	movq   $0x0,-0x660(%rbp)
    f9aa:	00 00 00 00 
    f9ae:	48 c7 85 a8 f9 ff ff 	movq   $0x0,-0x658(%rbp)
    f9b5:	00 00 00 00 
    f9b9:	48 8d 05 84 78 00 00 	lea    0x7884(%rip),%rax        # 17244 <g_125>
    f9c0:	48 89 85 b0 f9 ff ff 	mov    %rax,-0x650(%rbp)
    f9c7:	48 8d 85 ac f0 ff ff 	lea    -0xf54(%rbp),%rax
    f9ce:	48 89 85 b8 f9 ff ff 	mov    %rax,-0x648(%rbp)
    f9d5:	48 8d 85 ac f0 ff ff 	lea    -0xf54(%rbp),%rax
    f9dc:	48 89 85 c0 f9 ff ff 	mov    %rax,-0x640(%rbp)
    f9e3:	48 8d 05 52 78 00 00 	lea    0x7852(%rip),%rax        # 1723c <g_90>
    f9ea:	48 89 85 c8 f9 ff ff 	mov    %rax,-0x638(%rbp)
    f9f1:	48 8d 85 b0 f0 ff ff 	lea    -0xf50(%rbp),%rax
    f9f8:	48 89 85 d0 f9 ff ff 	mov    %rax,-0x630(%rbp)
    f9ff:	48 8d 05 3e 78 00 00 	lea    0x783e(%rip),%rax        # 17244 <g_125>
    fa06:	48 89 85 d8 f9 ff ff 	mov    %rax,-0x628(%rbp)
    fa0d:	48 8d 05 30 78 00 00 	lea    0x7830(%rip),%rax        # 17244 <g_125>
    fa14:	48 89 85 e0 f9 ff ff 	mov    %rax,-0x620(%rbp)
    fa1b:	48 8d 85 b0 f0 ff ff 	lea    -0xf50(%rbp),%rax
    fa22:	48 89 85 e8 f9 ff ff 	mov    %rax,-0x618(%rbp)
    fa29:	48 8d 05 0c 78 00 00 	lea    0x780c(%rip),%rax        # 1723c <g_90>
    fa30:	48 89 85 f0 f9 ff ff 	mov    %rax,-0x610(%rbp)
    fa37:	48 8d 85 ac f0 ff ff 	lea    -0xf54(%rbp),%rax
    fa3e:	48 89 85 f8 f9 ff ff 	mov    %rax,-0x608(%rbp)
    fa45:	48 8d 05 f0 77 00 00 	lea    0x77f0(%rip),%rax        # 1723c <g_90>
    fa4c:	48 89 85 00 fa ff ff 	mov    %rax,-0x600(%rbp)
    fa53:	48 8d 05 ea 77 00 00 	lea    0x77ea(%rip),%rax        # 17244 <g_125>
    fa5a:	48 89 85 08 fa ff ff 	mov    %rax,-0x5f8(%rbp)
    fa61:	48 8d 85 ac f0 ff ff 	lea    -0xf54(%rbp),%rax
    fa68:	48 89 85 10 fa ff ff 	mov    %rax,-0x5f0(%rbp)
    fa6f:	48 c7 85 18 fa ff ff 	movq   $0x0,-0x5e8(%rbp)
    fa76:	00 00 00 00 
    fa7a:	48 8d 85 ac f0 ff ff 	lea    -0xf54(%rbp),%rax
    fa81:	48 89 85 20 fa ff ff 	mov    %rax,-0x5e0(%rbp)
    fa88:	48 8d 05 b5 77 00 00 	lea    0x77b5(%rip),%rax        # 17244 <g_125>
    fa8f:	48 89 85 28 fa ff ff 	mov    %rax,-0x5d8(%rbp)
    fa96:	48 8d 05 9f 77 00 00 	lea    0x779f(%rip),%rax        # 1723c <g_90>
    fa9d:	48 89 85 30 fa ff ff 	mov    %rax,-0x5d0(%rbp)
    faa4:	48 8d 05 91 77 00 00 	lea    0x7791(%rip),%rax        # 1723c <g_90>
    faab:	48 89 85 38 fa ff ff 	mov    %rax,-0x5c8(%rbp)
    fab2:	48 8d 05 8b 77 00 00 	lea    0x778b(%rip),%rax        # 17244 <g_125>
    fab9:	48 89 85 40 fa ff ff 	mov    %rax,-0x5c0(%rbp)
    fac0:	48 c7 85 48 fa ff ff 	movq   $0x0,-0x5b8(%rbp)
    fac7:	00 00 00 00 
    facb:	48 8d 85 b0 f0 ff ff 	lea    -0xf50(%rbp),%rax
    fad2:	48 89 85 50 fa ff ff 	mov    %rax,-0x5b0(%rbp)
    fad9:	48 8d 85 b0 f0 ff ff 	lea    -0xf50(%rbp),%rax
    fae0:	48 89 85 58 fa ff ff 	mov    %rax,-0x5a8(%rbp)
    fae7:	48 c7 85 60 fa ff ff 	movq   $0x0,-0x5a0(%rbp)
    faee:	00 00 00 00 
    faf2:	48 8d 05 4b 77 00 00 	lea    0x774b(%rip),%rax        # 17244 <g_125>
    faf9:	48 89 85 68 fa ff ff 	mov    %rax,-0x598(%rbp)
    fb00:	48 8d 05 3d 77 00 00 	lea    0x773d(%rip),%rax        # 17244 <g_125>
    fb07:	48 89 85 70 fa ff ff 	mov    %rax,-0x590(%rbp)
    fb0e:	48 8d 05 2f 77 00 00 	lea    0x772f(%rip),%rax        # 17244 <g_125>
    fb15:	48 89 85 78 fa ff ff 	mov    %rax,-0x588(%rbp)
    fb1c:	48 c7 85 80 fa ff ff 	movq   $0x0,-0x580(%rbp)
    fb23:	00 00 00 00 
    fb27:	48 8d 05 16 77 00 00 	lea    0x7716(%rip),%rax        # 17244 <g_125>
    fb2e:	48 89 85 88 fa ff ff 	mov    %rax,-0x578(%rbp)
    fb35:	48 8d 05 08 77 00 00 	lea    0x7708(%rip),%rax        # 17244 <g_125>
    fb3c:	48 89 85 90 fa ff ff 	mov    %rax,-0x570(%rbp)
    fb43:	48 8d 05 fa 76 00 00 	lea    0x76fa(%rip),%rax        # 17244 <g_125>
    fb4a:	48 89 85 98 fa ff ff 	mov    %rax,-0x568(%rbp)
    fb51:	48 c7 85 a0 fa ff ff 	movq   $0x0,-0x560(%rbp)
    fb58:	00 00 00 00 
    fb5c:	48 8d 85 b0 f0 ff ff 	lea    -0xf50(%rbp),%rax
    fb63:	48 89 85 a8 fa ff ff 	mov    %rax,-0x558(%rbp)
    fb6a:	48 8d 85 b0 f0 ff ff 	lea    -0xf50(%rbp),%rax
    fb71:	48 89 85 b0 fa ff ff 	mov    %rax,-0x550(%rbp)
    fb78:	48 c7 85 b8 fa ff ff 	movq   $0x0,-0x548(%rbp)
    fb7f:	00 00 00 00 
    fb83:	66 c7 85 aa f0 ff ff 	movw   $0xeee1,-0xf56(%rbp)
    fb8a:	e1 ee 
    fb8c:	c7 85 c0 f0 ff ff 00 	movl   $0x0,-0xf40(%rbp)
    fb93:	00 00 00 
    fb96:	eb 21                	jmp    fbb9 <func_59+0x23bb>
    fb98:	8b 85 c0 f0 ff ff    	mov    -0xf40(%rbp),%eax
    fb9e:	48 98                	cltq   
    fba0:	48 bb 26 07 bf 9f 9b 	movabs $0xf5467f9b9fbf0726,%rbx
    fba7:	7f 46 f5 
    fbaa:	48 89 9c c5 70 f7 ff 	mov    %rbx,-0x890(%rbp,%rax,8)
    fbb1:	ff 
    fbb2:	83 85 c0 f0 ff ff 01 	addl   $0x1,-0xf40(%rbp)
    fbb9:	83 bd c0 f0 ff ff 01 	cmpl   $0x1,-0xf40(%rbp)
    fbc0:	7e d6                	jle    fb98 <func_59+0x239a>
    fbc2:	0f b7 85 aa f0 ff ff 	movzwl -0xf56(%rbp),%eax
    fbc9:	83 e8 01             	sub    $0x1,%eax
    fbcc:	66 89 85 aa f0 ff ff 	mov    %ax,-0xf56(%rbp)
    fbd3:	83 85 d4 f0 ff ff 01 	addl   $0x1,-0xf2c(%rbp)
    fbda:	83 bd d4 f0 ff ff 04 	cmpl   $0x4,-0xf2c(%rbp)
    fbe1:	0f 8e 09 fc ff ff    	jle    f7f0 <func_59+0x1ff2>
    fbe7:	c7 05 4f c8 00 00 00 	movl   $0x0,0xc84f(%rip)        # 1c440 <g_270>
    fbee:	00 00 00 
    fbf1:	90                   	nop
    fbf2:	8b 05 48 c8 00 00    	mov    0xc848(%rip),%eax        # 1c440 <g_270>
    fbf8:	83 f8 02             	cmp    $0x2,%eax
    fbfb:	77 0e                	ja     fc0b <func_59+0x240d>
    fbfd:	48 8b 85 80 f0 ff ff 	mov    -0xf80(%rbp),%rax
    fc04:	8b 00                	mov    (%rax),%eax
    fc06:	e9 c3 04 00 00       	jmpq   100ce <func_59+0x28d0>
    fc0b:	0f b6 05 80 77 00 00 	movzbl 0x7780(%rip),%eax        # 17392 <g_275+0x12>
    fc12:	0f b6 d8             	movzbl %al,%ebx
    fc15:	44 0f b7 a5 a4 f0 ff 	movzwl -0xf5c(%rbp),%r12d
    fc1c:	ff 
    fc1d:	48 8b 85 78 f0 ff ff 	mov    -0xf88(%rbp),%rax
    fc24:	49 89 c5             	mov    %rax,%r13
    fc27:	0f b6 85 9d f0 ff ff 	movzbl -0xf63(%rbp),%eax
    fc2e:	48 0f be c0          	movsbq %al,%rax
    fc32:	48 8b 95 60 f1 ff ff 	mov    -0xea0(%rbp),%rdx
    fc39:	c7 02 00 00 00 00    	movl   $0x0,(%rdx)
    fc3f:	48 89 c6             	mov    %rax,%rsi
    fc42:	bf 01 00 00 00       	mov    $0x1,%edi
    fc47:	e8 ab 8d ff ff       	callq  89f7 <safe_div_func_int64_t_s_s>
    fc4c:	48 be ad 4f 5a 85 e6 	movabs $0xba3cd4e6855a4fad,%rsi
    fc53:	d4 3c ba 
    fc56:	48 89 c7             	mov    %rax,%rdi
    fc59:	e8 4a 8c ff ff       	callq  88a8 <safe_sub_func_int64_t_s_s>
    fc5e:	48 85 c0             	test   %rax,%rax
    fc61:	74 12                	je     fc75 <func_59+0x2477>
    fc63:	0f b6 05 04 76 00 00 	movzbl 0x7604(%rip),%eax        # 1726e <g_175+0xe>
    fc6a:	84 c0                	test   %al,%al
    fc6c:	74 07                	je     fc75 <func_59+0x2477>
    fc6e:	b8 01 00 00 00       	mov    $0x1,%eax
    fc73:	eb 05                	jmp    fc7a <func_59+0x247c>
    fc75:	b8 00 00 00 00       	mov    $0x0,%eax
    fc7a:	88 85 9e f0 ff ff    	mov    %al,-0xf62(%rbp)
    fc80:	66 0f be 85 9e f0 ff 	movsbw -0xf62(%rbp),%ax
    fc87:	ff 
    fc88:	66 89 85 a2 f0 ff ff 	mov    %ax,-0xf5e(%rbp)
    fc8f:	0f b7 85 9a f6 ff ff 	movzwl -0x966(%rbp),%eax
    fc96:	0f bf d0             	movswl %ax,%edx
    fc99:	8b 05 9d 75 00 00    	mov    0x759d(%rip),%eax        # 1723c <g_90>
    fc9f:	85 c0                	test   %eax,%eax
    fca1:	0f 94 c0             	sete   %al
    fca4:	0f b6 c0             	movzbl %al,%eax
    fca7:	39 c2                	cmp    %eax,%edx
    fca9:	0f 9f c0             	setg   %al
    fcac:	0f b6 c0             	movzbl %al,%eax
    fcaf:	4c 89 ee             	mov    %r13,%rsi
    fcb2:	48 89 c7             	mov    %rax,%rdi
    fcb5:	e8 74 93 ff ff       	callq  902e <safe_add_func_uint64_t_u_u>
    fcba:	0f be c0             	movsbl %al,%eax
    fcbd:	44 89 e6             	mov    %r12d,%esi
    fcc0:	89 c7                	mov    %eax,%edi
    fcc2:	e8 27 86 ff ff       	callq  82ee <safe_lshift_func_int8_t_s_u>
    fcc7:	48 0f be d0          	movsbq %al,%rdx
    fccb:	48 8b 85 78 f0 ff ff 	mov    -0xf88(%rbp),%rax
    fcd2:	48 39 c2             	cmp    %rax,%rdx
    fcd5:	0f 95 c0             	setne  %al
    fcd8:	0f b6 d0             	movzbl %al,%edx
    fcdb:	0f b7 85 9a f6 ff ff 	movzwl -0x966(%rbp),%eax
    fce2:	0f be c0             	movsbl %al,%eax
    fce5:	89 d6                	mov    %edx,%esi
    fce7:	89 c7                	mov    %eax,%edi
    fce9:	e8 00 86 ff ff       	callq  82ee <safe_lshift_func_int8_t_s_u>
    fcee:	8b 05 4c c7 00 00    	mov    0xc74c(%rip),%eax        # 1c440 <g_270>
    fcf4:	48 8b 95 38 f3 ff ff 	mov    -0xcc8(%rbp),%rdx
    fcfb:	48 8d 85 78 f0 ff ff 	lea    -0xf88(%rbp),%rax
    fd02:	48 39 c2             	cmp    %rax,%rdx
    fd05:	0f 94 c0             	sete   %al
    fd08:	0f b6 c0             	movzbl %al,%eax
    fd0b:	48 89 de             	mov    %rbx,%rsi
    fd0e:	48 89 c7             	mov    %rax,%rdi
    fd11:	e8 2b 8b ff ff       	callq  8841 <safe_add_func_int64_t_s_s>
    fd16:	48 8b 15 2b aa 00 00 	mov    0xaa2b(%rip),%rdx        # 1a748 <g_165>
    fd1d:	0f b7 12             	movzwl (%rdx),%edx
    fd20:	21 c2                	and    %eax,%edx
    fd22:	48 8b 05 1f aa 00 00 	mov    0xaa1f(%rip),%rax        # 1a748 <g_165>
    fd29:	66 89 10             	mov    %dx,(%rax)
    fd2c:	c7 85 08 f1 ff ff d1 	movl   $0xeda560d1,-0xef8(%rbp)
    fd33:	60 a5 ed 
    fd36:	c7 85 70 f7 ff ff ca 	movl   $0x38529fca,-0x890(%rbp)
    fd3d:	9f 52 38 
    fd40:	c7 85 74 f7 ff ff f8 	movl   $0x461f04f8,-0x88c(%rbp)
    fd47:	04 1f 46 
    fd4a:	c7 85 78 f7 ff ff ff 	movl   $0xffffffff,-0x888(%rbp)
    fd51:	ff ff ff 
    fd54:	c7 85 7c f7 ff ff 07 	movl   $0x7,-0x884(%rbp)
    fd5b:	00 00 00 
    fd5e:	c7 85 80 f7 ff ff 07 	movl   $0x7,-0x880(%rbp)
    fd65:	00 00 00 
    fd68:	c7 85 84 f7 ff ff b2 	movl   $0x4406beb2,-0x87c(%rbp)
    fd6f:	be 06 44 
    fd72:	c7 85 88 f7 ff ff f8 	movl   $0xfffffff8,-0x878(%rbp)
    fd79:	ff ff ff 
    fd7c:	c7 85 8c f7 ff ff b2 	movl   $0x4406beb2,-0x874(%rbp)
    fd83:	be 06 44 
    fd86:	c7 85 90 f7 ff ff 5e 	movl   $0x5a274d5e,-0x870(%rbp)
    fd8d:	4d 27 5a 
    fd90:	c7 85 94 f7 ff ff 00 	movl   $0x0,-0x86c(%rbp)
    fd97:	00 00 00 
    fd9a:	c7 85 98 f7 ff ff ff 	movl   $0xffffffff,-0x868(%rbp)
    fda1:	ff ff ff 
    fda4:	c7 85 9c f7 ff ff f8 	movl   $0x461f04f8,-0x864(%rbp)
    fdab:	04 1f 46 
    fdae:	c7 85 a0 f7 ff ff ca 	movl   $0x38529fca,-0x860(%rbp)
    fdb5:	9f 52 38 
    fdb8:	c7 85 a4 f7 ff ff 00 	movl   $0x0,-0x85c(%rbp)
    fdbf:	00 00 00 
    fdc2:	c7 85 a8 f7 ff ff bf 	movl   $0x8f3b3dbf,-0x858(%rbp)
    fdc9:	3d 3b 8f 
    fdcc:	c7 85 ac f7 ff ff 00 	movl   $0x0,-0x854(%rbp)
    fdd3:	00 00 00 
    fdd6:	c7 85 b0 f7 ff ff 05 	movl   $0xfad70105,-0x850(%rbp)
    fddd:	01 d7 fa 
    fde0:	c7 85 b4 f7 ff ff 05 	movl   $0xfad70105,-0x84c(%rbp)
    fde7:	01 d7 fa 
    fdea:	c7 85 b8 f7 ff ff 00 	movl   $0x0,-0x848(%rbp)
    fdf1:	00 00 00 
    fdf4:	c7 85 bc f7 ff ff b2 	movl   $0x4406beb2,-0x844(%rbp)
    fdfb:	be 06 44 
    fdfe:	c7 85 c0 f7 ff ff 04 	movl   $0x4,-0x840(%rbp)
    fe05:	00 00 00 
    fe08:	c7 85 c4 f7 ff ff 04 	movl   $0x1bf2b904,-0x83c(%rbp)
    fe0f:	b9 f2 1b 
    fe12:	c7 85 c8 f7 ff ff ca 	movl   $0x38529fca,-0x838(%rbp)
    fe19:	9f 52 38 
    fe1c:	c7 85 cc f7 ff ff bf 	movl   $0x8f3b3dbf,-0x834(%rbp)
    fe23:	3d 3b 8f 
    fe26:	c7 85 d0 f7 ff ff f8 	movl   $0x461f04f8,-0x830(%rbp)
    fe2d:	04 1f 46 
    fe30:	c7 85 d4 f7 ff ff ff 	movl   $0xffffffff,-0x82c(%rbp)
    fe37:	ff ff ff 
    fe3a:	c7 85 d8 f7 ff ff 01 	movl   $0x1,-0x828(%rbp)
    fe41:	00 00 00 
    fe44:	c7 85 dc f7 ff ff b2 	movl   $0x4406beb2,-0x824(%rbp)
    fe4b:	be 06 44 
    fe4e:	c7 85 e0 f7 ff ff 01 	movl   $0x1,-0x820(%rbp)
    fe55:	00 00 00 
    fe58:	c7 85 e4 f7 ff ff fb 	movl   $0xa922cafb,-0x81c(%rbp)
    fe5f:	ca 22 a9 
    fe62:	c7 85 e8 f7 ff ff 01 	movl   $0x1,-0x818(%rbp)
    fe69:	00 00 00 
    fe6c:	c7 85 ec f7 ff ff 04 	movl   $0x1bf2b904,-0x814(%rbp)
    fe73:	b9 f2 1b 
    fe76:	c7 85 f0 f7 ff ff 07 	movl   $0x7,-0x810(%rbp)
    fe7d:	00 00 00 
    fe80:	c7 85 f4 f7 ff ff f8 	movl   $0x461f04f8,-0x80c(%rbp)
    fe87:	04 1f 46 
    fe8a:	c7 85 f8 f7 ff ff 88 	movl   $0x1c53ae88,-0x808(%rbp)
    fe91:	ae 53 1c 
    fe94:	c7 85 fc f7 ff ff b2 	movl   $0x4406beb2,-0x804(%rbp)
    fe9b:	be 06 44 
    fe9e:	c7 85 00 f8 ff ff 00 	movl   $0x0,-0x800(%rbp)
    fea5:	00 00 00 
    fea8:	c7 85 04 f8 ff ff 05 	movl   $0xfad70105,-0x7fc(%rbp)
    feaf:	01 d7 fa 
    feb2:	c7 85 08 f8 ff ff 05 	movl   $0xfad70105,-0x7f8(%rbp)
    feb9:	01 d7 fa 
    febc:	c7 85 0c f8 ff ff 00 	movl   $0x0,-0x7f4(%rbp)
    fec3:	00 00 00 
    fec6:	c7 85 10 f8 ff ff 00 	movl   $0x0,-0x7f0(%rbp)
    fecd:	00 00 00 
    fed0:	c7 85 14 f8 ff ff 08 	movl   $0x8,-0x7ec(%rbp)
    fed7:	00 00 00 
    feda:	c7 85 18 f8 ff ff ff 	movl   $0xffffffff,-0x7e8(%rbp)
    fee1:	ff ff ff 
    fee4:	c7 85 1c f8 ff ff 04 	movl   $0x1bf2b904,-0x7e4(%rbp)
    feeb:	b9 f2 1b 
    feee:	c7 85 20 f8 ff ff 88 	movl   $0x1c53ae88,-0x7e0(%rbp)
    fef5:	ae 53 1c 
    fef8:	48 8d 05 b9 b0 00 00 	lea    0xb0b9(%rip),%rax        # 1afb8 <g_697>
    feff:	48 89 85 90 f1 ff ff 	mov    %rax,-0xe70(%rbp)
    ff06:	c7 85 c4 f0 ff ff 00 	movl   $0x0,-0xf3c(%rbp)
    ff0d:	00 00 00 
    ff10:	eb 22                	jmp    ff34 <func_59+0x2736>
    ff12:	8b 85 c4 f0 ff ff    	mov    -0xf3c(%rbp),%eax
    ff18:	48 98                	cltq   
    ff1a:	48 8d 95 30 f4 ff ff 	lea    -0xbd0(%rbp),%rdx
    ff21:	48 83 c2 58          	add    $0x58,%rdx
    ff25:	48 89 94 c5 e0 f3 ff 	mov    %rdx,-0xc20(%rbp,%rax,8)
    ff2c:	ff 
    ff2d:	83 85 c4 f0 ff ff 01 	addl   $0x1,-0xf3c(%rbp)
    ff34:	83 bd c4 f0 ff ff 03 	cmpl   $0x3,-0xf3c(%rbp)
    ff3b:	7e d5                	jle    ff12 <func_59+0x2714>
    ff3d:	c6 05 5c 75 00 00 00 	movb   $0x0,0x755c(%rip)        # 174a0 <g_949>
    ff44:	e9 6d 01 00 00       	jmpq   100b6 <func_59+0x28b8>
    ff49:	48 8d 05 f8 c4 00 00 	lea    0xc4f8(%rip),%rax        # 1c448 <g_336>
    ff50:	48 89 85 40 f5 ff ff 	mov    %rax,-0xac0(%rbp)
    ff57:	48 8d 05 ea c4 00 00 	lea    0xc4ea(%rip),%rax        # 1c448 <g_336>
    ff5e:	48 89 85 48 f5 ff ff 	mov    %rax,-0xab8(%rbp)
    ff65:	48 8d 05 dc c4 00 00 	lea    0xc4dc(%rip),%rax        # 1c448 <g_336>
    ff6c:	48 89 85 50 f5 ff ff 	mov    %rax,-0xab0(%rbp)
    ff73:	48 8d 05 ce c4 00 00 	lea    0xc4ce(%rip),%rax        # 1c448 <g_336>
    ff7a:	48 89 85 58 f5 ff ff 	mov    %rax,-0xaa8(%rbp)
    ff81:	48 8d 05 c0 c4 00 00 	lea    0xc4c0(%rip),%rax        # 1c448 <g_336>
    ff88:	48 89 85 60 f5 ff ff 	mov    %rax,-0xaa0(%rbp)
    ff8f:	48 8d 05 b2 c4 00 00 	lea    0xc4b2(%rip),%rax        # 1c448 <g_336>
    ff96:	48 89 85 68 f5 ff ff 	mov    %rax,-0xa98(%rbp)
    ff9d:	48 8d 05 a4 c4 00 00 	lea    0xc4a4(%rip),%rax        # 1c448 <g_336>
    ffa4:	48 89 85 70 f5 ff ff 	mov    %rax,-0xa90(%rbp)
    ffab:	48 8d 05 96 c4 00 00 	lea    0xc496(%rip),%rax        # 1c448 <g_336>
    ffb2:	48 89 85 78 f5 ff ff 	mov    %rax,-0xa88(%rbp)
    ffb9:	c7 85 0c f1 ff ff 47 	movl   $0x2d387047,-0xef4(%rbp)
    ffc0:	70 38 2d 
    ffc3:	c7 85 10 f1 ff ff 08 	movl   $0x8,-0xef0(%rbp)
    ffca:	00 00 00 
    ffcd:	48 8d 05 6c c4 00 00 	lea    0xc46c(%rip),%rax        # 1c440 <g_270>
    ffd4:	48 89 85 40 f1 ff ff 	mov    %rax,-0xec0(%rbp)
    ffdb:	c7 85 14 f1 ff ff c0 	movl   $0x530926c0,-0xeec(%rbp)
    ffe2:	26 09 53 
    ffe5:	c6 05 59 c4 00 00 00 	movb   $0x0,0xc459(%rip)        # 1c445 <g_280>
    ffec:	e9 a6 00 00 00       	jmpq   10097 <func_59+0x2899>
    fff1:	48 c7 85 48 f1 ff ff 	movq   $0x0,-0xeb8(%rbp)
    fff8:	00 00 00 00 
    fffc:	48 8d 85 48 f1 ff ff 	lea    -0xeb8(%rbp),%rax
   10003:	48 89 85 98 f1 ff ff 	mov    %rax,-0xe68(%rbp)
   1000a:	48 c7 85 50 f1 ff ff 	movq   $0x0,-0xeb0(%rbp)
   10011:	00 00 00 00 
   10015:	48 8d 85 50 f1 ff ff 	lea    -0xeb0(%rbp),%rax
   1001c:	48 89 85 a0 f1 ff ff 	mov    %rax,-0xe60(%rbp)
   10023:	48 8d 85 00 f9 ff ff 	lea    -0x700(%rbp),%rax
   1002a:	48 8d 15 0f 3b 00 00 	lea    0x3b0f(%rip),%rdx        # 13b40 <g_3574+0xab0>
   10031:	b9 50 00 00 00       	mov    $0x50,%ecx
   10036:	48 89 c7             	mov    %rax,%rdi
   10039:	48 89 d6             	mov    %rdx,%rsi
   1003c:	f3 48 a5             	rep movsq %ds:(%rsi),%es:(%rdi)
   1003f:	c7 85 18 f1 ff ff b5 	movl   $0x15d9ccb5,-0xee8(%rbp)
   10046:	cc d9 15 
   10049:	48 8d 85 40 f1 ff ff 	lea    -0xec0(%rbp),%rax
   10050:	48 89 85 a8 f1 ff ff 	mov    %rax,-0xe58(%rbp)
   10057:	c7 85 bc f0 ff ff 00 	movl   $0x0,-0xf44(%rbp)
   1005e:	00 00 00 
   10061:	eb 1b                	jmp    1007e <func_59+0x2880>
   10063:	8b 85 bc f0 ff ff    	mov    -0xf44(%rbp),%eax
   10069:	48 98                	cltq   
   1006b:	48 c7 84 c5 90 f4 ff 	movq   $0x0,-0xb70(%rbp,%rax,8)
   10072:	ff 00 00 00 00 
   10077:	83 85 bc f0 ff ff 01 	addl   $0x1,-0xf44(%rbp)
   1007e:	83 bd bc f0 ff ff 04 	cmpl   $0x4,-0xf44(%rbp)
   10085:	7e dc                	jle    10063 <func_59+0x2865>
   10087:	0f b6 05 b7 c3 00 00 	movzbl 0xc3b7(%rip),%eax        # 1c445 <g_280>
   1008e:	83 c0 01             	add    $0x1,%eax
   10091:	88 05 ae c3 00 00    	mov    %al,0xc3ae(%rip)        # 1c445 <g_280>
   10097:	0f b6 05 a7 c3 00 00 	movzbl 0xc3a7(%rip),%eax        # 1c445 <g_280>
   1009e:	3c 03                	cmp    $0x3,%al
   100a0:	0f 86 4b ff ff ff    	jbe    fff1 <func_59+0x27f3>
   100a6:	0f b6 05 f3 73 00 00 	movzbl 0x73f3(%rip),%eax        # 174a0 <g_949>
   100ad:	83 c0 01             	add    $0x1,%eax
   100b0:	88 05 ea 73 00 00    	mov    %al,0x73ea(%rip)        # 174a0 <g_949>
   100b6:	0f b6 05 e3 73 00 00 	movzbl 0x73e3(%rip),%eax        # 174a0 <g_949>
   100bd:	3c 04                	cmp    $0x4,%al
   100bf:	0f 8e 84 fe ff ff    	jle    ff49 <func_59+0x274b>
   100c5:	48 8b 85 88 f0 ff ff 	mov    -0xf78(%rbp),%rax
   100cc:	8b 00                	mov    (%rax),%eax
   100ce:	48 8b 5d c8          	mov    -0x38(%rbp),%rbx
   100d2:	64 48 33 1c 25 28 00 	xor    %fs:0x28,%rbx
   100d9:	00 00 
   100db:	74 05                	je     100e2 <func_59+0x28e4>
   100dd:	e8 8e 7f ff ff       	callq  8070 <__stack_chk_fail@plt>
   100e2:	48 81 c4 78 0f 00 00 	add    $0xf78,%rsp
   100e9:	5b                   	pop    %rbx
   100ea:	41 5c                	pop    %r12
   100ec:	41 5d                	pop    %r13
   100ee:	41 5e                	pop    %r14
   100f0:	41 5f                	pop    %r15
   100f2:	5d                   	pop    %rbp
   100f3:	c3                   	retq   

00000000000100f4 <func_66>:
   100f4:	f3 0f 1e fa          	endbr64 
   100f8:	55                   	push   %rbp
   100f9:	48 89 e5             	mov    %rsp,%rbp
   100fc:	41 54                	push   %r12
   100fe:	53                   	push   %rbx
   100ff:	48 81 ec 50 0c 00 00 	sub    $0xc50,%rsp
   10106:	48 89 bd a8 f3 ff ff 	mov    %rdi,-0xc58(%rbp)
   1010d:	89 f0                	mov    %esi,%eax
   1010f:	88 85 a4 f3 ff ff    	mov    %al,-0xc5c(%rbp)
   10115:	64 48 8b 04 25 28 00 	mov    %fs:0x28,%rax
   1011c:	00 00 
   1011e:	48 89 45 e8          	mov    %rax,-0x18(%rbp)
   10122:	31 c0                	xor    %eax,%eax
   10124:	c7 85 b0 f4 ff ff ce 	movl   $0x8bcdafce,-0xb50(%rbp)
   1012b:	af cd 8b 
   1012e:	c7 85 b4 f4 ff ff ce 	movl   $0x8bcdafce,-0xb4c(%rbp)
   10135:	af cd 8b 
   10138:	c7 85 b8 f4 ff ff ce 	movl   $0x8bcdafce,-0xb48(%rbp)
   1013f:	af cd 8b 
   10142:	c7 85 bc f4 ff ff ce 	movl   $0x8bcdafce,-0xb44(%rbp)
   10149:	af cd 8b 
   1014c:	c7 85 c0 f4 ff ff ce 	movl   $0x8bcdafce,-0xb40(%rbp)
   10153:	af cd 8b 
   10156:	48 8d 05 e7 70 00 00 	lea    0x70e7(%rip),%rax        # 17244 <g_125>
   1015d:	48 89 85 08 f4 ff ff 	mov    %rax,-0xbf8(%rbp)
   10164:	48 c7 85 10 f4 ff ff 	movq   $0x0,-0xbf0(%rbp)
   1016b:	00 00 00 00 
   1016f:	48 8d 05 d2 70 00 00 	lea    0x70d2(%rip),%rax        # 17248 <g_150>
   10176:	48 89 85 18 f4 ff ff 	mov    %rax,-0xbe8(%rbp)
   1017d:	48 8d 05 c4 70 00 00 	lea    0x70c4(%rip),%rax        # 17248 <g_150>
   10184:	48 89 85 20 f4 ff ff 	mov    %rax,-0xbe0(%rbp)
   1018b:	48 8d 85 00 f6 ff ff 	lea    -0xa00(%rbp),%rax
   10192:	48 8d 15 67 9c 00 00 	lea    0x9c67(%rip),%rdx        # 19e00 <g_4249+0xf60>
   10199:	b9 3c 00 00 00       	mov    $0x3c,%ecx
   1019e:	48 89 c7             	mov    %rax,%rdi
   101a1:	48 89 d6             	mov    %rdx,%rsi
   101a4:	f3 48 a5             	rep movsq %ds:(%rsi),%es:(%rdi)
   101a7:	48 8d 85 20 fa ff ff 	lea    -0x5e0(%rbp),%rax
   101ae:	48 8d 15 0b 3c 00 00 	lea    0x3c0b(%rip),%rdx        # 13dc0 <g_3574+0xd30>
   101b5:	b9 5a 00 00 00       	mov    $0x5a,%ecx
   101ba:	48 89 c7             	mov    %rax,%rdi
   101bd:	48 89 d6             	mov    %rdx,%rsi
   101c0:	f3 48 a5             	rep movsq %ds:(%rsi),%es:(%rdi)
   101c3:	48 c7 85 28 f4 ff ff 	movq   $0x6,-0xbd8(%rbp)
   101ca:	06 00 00 00 
   101ce:	c6 85 b6 f3 ff ff 02 	movb   $0x2,-0xc4a(%rbp)
   101d5:	48 c7 85 d8 f3 ff ff 	movq   $0x0,-0xc28(%rbp)
   101dc:	00 00 00 00 
   101e0:	48 8d 85 e0 f7 ff ff 	lea    -0x820(%rbp),%rax
   101e7:	48 8d 15 f2 9d 00 00 	lea    0x9df2(%rip),%rdx        # 19fe0 <g_4249+0x1140>
   101ee:	b9 48 00 00 00       	mov    $0x48,%ecx
   101f3:	48 89 c7             	mov    %rax,%rdi
   101f6:	48 89 d6             	mov    %rdx,%rsi
   101f9:	f3 48 a5             	rep movsq %ds:(%rsi),%es:(%rdi)
   101fc:	48 8d 85 e0 f7 ff ff 	lea    -0x820(%rbp),%rax
   10203:	48 83 c0 50          	add    $0x50,%rax
   10207:	48 89 85 30 f4 ff ff 	mov    %rax,-0xbd0(%rbp)
   1020e:	48 c7 85 38 f4 ff ff 	movq   $0x0,-0xbc8(%rbp)
   10215:	00 00 00 00 
   10219:	48 b8 b3 3e 72 a0 54 	movabs $0xf8236f54a0723eb3,%rax
   10220:	6f 23 f8 
   10223:	48 89 85 40 f4 ff ff 	mov    %rax,-0xbc0(%rbp)
   1022a:	48 8d 85 b0 f4 ff ff 	lea    -0xb50(%rbp),%rax
   10231:	48 89 85 48 f4 ff ff 	mov    %rax,-0xbb8(%rbp)
   10238:	48 8d 05 f9 6f 00 00 	lea    0x6ff9(%rip),%rax        # 17238 <g_55>
   1023f:	48 89 85 50 f4 ff ff 	mov    %rax,-0xbb0(%rbp)
   10246:	c7 85 bc f3 ff ff 00 	movl   $0x0,-0xc44(%rbp)
   1024d:	00 00 00 
   10250:	eb 1e                	jmp    10270 <func_66+0x17c>
   10252:	8b 85 bc f3 ff ff    	mov    -0xc44(%rbp),%eax
   10258:	48 98                	cltq   
   1025a:	48 8d 15 e7 6f 00 00 	lea    0x6fe7(%rip),%rdx        # 17248 <g_150>
   10261:	48 89 94 c5 d0 f4 ff 	mov    %rdx,-0xb30(%rbp,%rax,8)
   10268:	ff 
   10269:	83 85 bc f3 ff ff 01 	addl   $0x1,-0xc44(%rbp)
   10270:	83 bd bc f3 ff ff 03 	cmpl   $0x3,-0xc44(%rbp)
   10277:	7e d9                	jle    10252 <func_66+0x15e>
   10279:	c6 05 a8 c1 00 00 f1 	movb   $0xf1,0xc1a8(%rip)        # 1c428 <g_65>
   10280:	e9 78 06 00 00       	jmpq   108fd <func_66+0x809>
   10285:	66 c7 85 b8 f3 ff ff 	movw   $0x0,-0xc48(%rbp)
   1028c:	00 00 
   1028e:	48 8d 85 b0 f4 ff ff 	lea    -0xb50(%rbp),%rax
   10295:	48 83 c0 08          	add    $0x8,%rax
   10299:	48 89 85 50 f5 ff ff 	mov    %rax,-0xab0(%rbp)
   102a0:	48 8d 05 91 6f 00 00 	lea    0x6f91(%rip),%rax        # 17238 <g_55>
   102a7:	48 89 85 58 f5 ff ff 	mov    %rax,-0xaa8(%rbp)
   102ae:	48 8d 05 83 6f 00 00 	lea    0x6f83(%rip),%rax        # 17238 <g_55>
   102b5:	48 89 85 60 f5 ff ff 	mov    %rax,-0xaa0(%rbp)
   102bc:	48 8d 85 b0 f4 ff ff 	lea    -0xb50(%rbp),%rax
   102c3:	48 83 c0 08          	add    $0x8,%rax
   102c7:	48 89 85 68 f5 ff ff 	mov    %rax,-0xa98(%rbp)
   102ce:	48 8d 05 63 6f 00 00 	lea    0x6f63(%rip),%rax        # 17238 <g_55>
   102d5:	48 89 85 70 f5 ff ff 	mov    %rax,-0xa90(%rbp)
   102dc:	48 8d 05 55 6f 00 00 	lea    0x6f55(%rip),%rax        # 17238 <g_55>
   102e3:	48 89 85 78 f5 ff ff 	mov    %rax,-0xa88(%rbp)
   102ea:	48 8d 05 51 6f 00 00 	lea    0x6f51(%rip),%rax        # 17242 <g_120>
   102f1:	48 89 85 58 f4 ff ff 	mov    %rax,-0xba8(%rbp)
   102f8:	48 8d 85 b8 f3 ff ff 	lea    -0xc48(%rbp),%rax
   102ff:	48 89 85 60 f4 ff ff 	mov    %rax,-0xba0(%rbp)
   10306:	48 8d 05 3b 6f 00 00 	lea    0x6f3b(%rip),%rax        # 17248 <g_150>
   1030d:	48 89 85 e0 f3 ff ff 	mov    %rax,-0xc20(%rbp)
   10314:	48 c7 85 68 f4 ff ff 	movq   $0x0,-0xb98(%rbp)
   1031b:	00 00 00 00 
   1031f:	48 8d 05 12 c1 00 00 	lea    0xc112(%rip),%rax        # 1c438 <g_192>
   10326:	48 89 85 70 f4 ff ff 	mov    %rax,-0xb90(%rbp)
   1032d:	48 c7 85 78 f4 ff ff 	movq   $0x0,-0xb88(%rbp)
   10334:	00 00 00 00 
   10338:	48 c7 85 80 f4 ff ff 	movq   $0xfffffffffffffff8,-0xb80(%rbp)
   1033f:	f8 ff ff ff 
   10343:	66 c7 85 ba f3 ff ff 	movw   $0x2b6b,-0xc46(%rbp)
   1034a:	6b 2b 
   1034c:	48 8d 05 c3 6d 00 00 	lea    0x6dc3(%rip),%rax        # 17116 <g_53+0xd6>
   10353:	48 89 85 e8 f3 ff ff 	mov    %rax,-0xc18(%rbp)
   1035a:	48 8d 85 e8 f3 ff ff 	lea    -0xc18(%rbp),%rax
   10361:	48 89 85 88 f4 ff ff 	mov    %rax,-0xb78(%rbp)
   10368:	c7 85 80 f5 ff ff 00 	movl   $0x0,-0xa80(%rbp)
   1036f:	00 00 00 
   10372:	c7 85 84 f5 ff ff ff 	movl   $0xffffffff,-0xa7c(%rbp)
   10379:	ff ff ff 
   1037c:	c7 85 88 f5 ff ff ff 	movl   $0xffffffff,-0xa78(%rbp)
   10383:	ff ff ff 
   10386:	c7 85 8c f5 ff ff 00 	movl   $0x0,-0xa74(%rbp)
   1038d:	00 00 00 
   10390:	c7 85 90 f5 ff ff 00 	movl   $0x0,-0xa70(%rbp)
   10397:	00 00 00 
   1039a:	c7 85 94 f5 ff ff ff 	movl   $0xffffffff,-0xa6c(%rbp)
   103a1:	ff ff ff 
   103a4:	c7 85 98 f5 ff ff ff 	movl   $0xffffffff,-0xa68(%rbp)
   103ab:	ff ff ff 
   103ae:	c7 85 9c f5 ff ff 00 	movl   $0x0,-0xa64(%rbp)
   103b5:	00 00 00 
   103b8:	c7 85 a0 f5 ff ff 00 	movl   $0x0,-0xa60(%rbp)
   103bf:	00 00 00 
   103c2:	c7 85 a4 f5 ff ff ff 	movl   $0xffffffff,-0xa5c(%rbp)
   103c9:	ff ff ff 
   103cc:	c7 85 a8 f5 ff ff 00 	movl   $0x0,-0xa58(%rbp)
   103d3:	00 00 00 
   103d6:	c7 85 ac f5 ff ff 00 	movl   $0x0,-0xa54(%rbp)
   103dd:	00 00 00 
   103e0:	c7 85 b0 f5 ff ff ff 	movl   $0xffffffff,-0xa50(%rbp)
   103e7:	ff ff ff 
   103ea:	c7 85 b4 f5 ff ff ff 	movl   $0xffffffff,-0xa4c(%rbp)
   103f1:	ff ff ff 
   103f4:	c7 85 b8 f5 ff ff 00 	movl   $0x0,-0xa48(%rbp)
   103fb:	00 00 00 
   103fe:	c7 85 bc f5 ff ff 00 	movl   $0x0,-0xa44(%rbp)
   10405:	00 00 00 
   10408:	c7 85 c0 f5 ff ff ff 	movl   $0xffffffff,-0xa40(%rbp)
   1040f:	ff ff ff 
   10412:	c7 85 c4 f5 ff ff ff 	movl   $0xffffffff,-0xa3c(%rbp)
   10419:	ff ff ff 
   1041c:	c7 85 c8 f5 ff ff 00 	movl   $0x0,-0xa38(%rbp)
   10423:	00 00 00 
   10426:	c7 85 cc f5 ff ff 00 	movl   $0x0,-0xa34(%rbp)
   1042d:	00 00 00 
   10430:	c7 85 d0 f5 ff ff 00 	movl   $0x0,-0xa30(%rbp)
   10437:	00 00 00 
   1043a:	c7 85 d4 f5 ff ff ff 	movl   $0xffffffff,-0xa2c(%rbp)
   10441:	ff ff ff 
   10444:	c7 85 d8 f5 ff ff ff 	movl   $0xffffffff,-0xa28(%rbp)
   1044b:	ff ff ff 
   1044e:	c7 85 dc f5 ff ff 00 	movl   $0x0,-0xa24(%rbp)
   10455:	00 00 00 
   10458:	c7 85 e0 f5 ff ff 00 	movl   $0x0,-0xa20(%rbp)
   1045f:	00 00 00 
   10462:	c7 85 e4 f5 ff ff ff 	movl   $0xffffffff,-0xa1c(%rbp)
   10469:	ff ff ff 
   1046c:	c7 85 e8 f5 ff ff ff 	movl   $0xffffffff,-0xa18(%rbp)
   10473:	ff ff ff 
   10476:	c7 85 ec f5 ff ff 00 	movl   $0x0,-0xa14(%rbp)
   1047d:	00 00 00 
   10480:	c7 85 f0 f5 ff ff 00 	movl   $0x0,-0xa10(%rbp)
   10487:	00 00 00 
   1048a:	c7 85 f4 f5 ff ff ff 	movl   $0xffffffff,-0xa0c(%rbp)
   10491:	ff ff ff 
   10494:	48 8d 85 d8 f3 ff ff 	lea    -0xc28(%rbp),%rax
   1049b:	48 89 85 90 f4 ff ff 	mov    %rax,-0xb70(%rbp)
   104a2:	c7 85 c0 f3 ff ff 00 	movl   $0x0,-0xc40(%rbp)
   104a9:	00 00 00 
   104ac:	eb 1e                	jmp    104cc <func_66+0x3d8>
   104ae:	8b 85 c0 f3 ff ff    	mov    -0xc40(%rbp),%eax
   104b4:	48 98                	cltq   
   104b6:	48 8d 95 e0 f3 ff ff 	lea    -0xc20(%rbp),%rdx
   104bd:	48 89 94 c5 f0 f4 ff 	mov    %rdx,-0xb10(%rbp,%rax,8)
   104c4:	ff 
   104c5:	83 85 c0 f3 ff ff 01 	addl   $0x1,-0xc40(%rbp)
   104cc:	83 bd c0 f3 ff ff 04 	cmpl   $0x4,-0xc40(%rbp)
   104d3:	7e d9                	jle    104ae <func_66+0x3ba>
   104d5:	c6 85 a4 f3 ff ff 00 	movb   $0x0,-0xc5c(%rbp)
   104dc:	80 bd a4 f3 ff ff 0f 	cmpb   $0xf,-0xc5c(%rbp)
   104e3:	0f 8f ab 02 00 00    	jg     10794 <func_66+0x6a0>
   104e9:	48 8d 05 96 6c 00 00 	lea    0x6c96(%rip),%rax        # 17186 <g_53+0x146>
   104f0:	48 89 85 f0 f3 ff ff 	mov    %rax,-0xc10(%rbp)
   104f7:	c7 85 c4 f3 ff ff ff 	movl   $0xffffffff,-0xc3c(%rbp)
   104fe:	ff ff ff 
   10501:	48 8d 05 38 6d 00 00 	lea    0x6d38(%rip),%rax        # 17240 <g_116>
   10508:	48 89 85 f8 f3 ff ff 	mov    %rax,-0xc08(%rbp)
   1050f:	c7 85 d4 f3 ff ff 9d 	movl   $0x325b119d,-0xc2c(%rbp)
   10516:	11 5b 32 
   10519:	48 8d 85 f0 fc ff ff 	lea    -0x310(%rbp),%rax
   10520:	48 8d 15 79 3b 00 00 	lea    0x3b79(%rip),%rdx        # 140a0 <g_3574+0x1010>
   10527:	b9 5e 00 00 00       	mov    $0x5e,%ecx
   1052c:	48 89 c7             	mov    %rax,%rdi
   1052f:	48 89 d6             	mov    %rdx,%rsi
   10532:	f3 48 a5             	rep movsq %ds:(%rsi),%es:(%rdi)
   10535:	48 89 f2             	mov    %rsi,%rdx
   10538:	48 89 f8             	mov    %rdi,%rax
   1053b:	8b 0a                	mov    (%rdx),%ecx
   1053d:	89 08                	mov    %ecx,(%rax)
   1053f:	48 8d 40 04          	lea    0x4(%rax),%rax
   10543:	48 8d 52 04          	lea    0x4(%rdx),%rdx
   10547:	c7 85 c8 f3 ff ff 00 	movl   $0x0,-0xc38(%rbp)
   1054e:	00 00 00 
   10551:	eb 1e                	jmp    10571 <func_66+0x47d>
   10553:	8b 85 c8 f3 ff ff    	mov    -0xc38(%rbp),%eax
   10559:	48 98                	cltq   
   1055b:	48 8d 95 f8 f3 ff ff 	lea    -0xc08(%rbp),%rdx
   10562:	48 89 94 c5 20 f5 ff 	mov    %rdx,-0xae0(%rbp,%rax,8)
   10569:	ff 
   1056a:	83 85 c8 f3 ff ff 01 	addl   $0x1,-0xc38(%rbp)
   10571:	83 bd c8 f3 ff ff 04 	cmpl   $0x4,-0xc38(%rbp)
   10578:	7e d9                	jle    10553 <func_66+0x45f>
   1057a:	c7 05 b8 6c 00 00 00 	movl   $0x0,0x6cb8(%rip)        # 1723c <g_90>
   10581:	00 00 00 
   10584:	e9 f0 01 00 00       	jmpq   10779 <func_66+0x685>
   10589:	48 8d 05 f6 6b 00 00 	lea    0x6bf6(%rip),%rax        # 17186 <g_53+0x146>
   10590:	48 89 85 00 f4 ff ff 	mov    %rax,-0xc00(%rbp)
   10597:	48 8d 85 00 f4 ff ff 	lea    -0xc00(%rbp),%rax
   1059e:	48 89 85 98 f4 ff ff 	mov    %rax,-0xb68(%rbp)
   105a5:	c7 85 cc f3 ff ff 01 	movl   $0x1,-0xc34(%rbp)
   105ac:	00 00 00 
   105af:	48 8d 05 8c 6c 00 00 	lea    0x6c8c(%rip),%rax        # 17242 <g_120>
   105b6:	48 89 85 a0 f4 ff ff 	mov    %rax,-0xb60(%rbp)
   105bd:	c7 85 d0 f3 ff ff 00 	movl   $0x0,-0xc30(%rbp)
   105c4:	00 00 00 
   105c7:	eb 1b                	jmp    105e4 <func_66+0x4f0>
   105c9:	8b 85 d0 f3 ff ff    	mov    -0xc30(%rbp),%eax
   105cf:	48 98                	cltq   
   105d1:	48 c7 84 c5 a8 f4 ff 	movq   $0x0,-0xb58(%rbp,%rax,8)
   105d8:	ff 00 00 00 00 
   105dd:	83 85 d0 f3 ff ff 01 	addl   $0x1,-0xc30(%rbp)
   105e4:	83 bd d0 f3 ff ff 00 	cmpl   $0x0,-0xc30(%rbp)
   105eb:	7e dc                	jle    105c9 <func_66+0x4d5>
   105ed:	8b 9d d4 f3 ff ff    	mov    -0xc2c(%rbp),%ebx
   105f3:	0f b7 85 b8 f3 ff ff 	movzwl -0xc48(%rbp),%eax
   105fa:	44 0f b7 e0          	movzwl %ax,%r12d
   105fe:	48 8b 05 a3 a0 00 00 	mov    0xa0a3(%rip),%rax        # 1a6a8 <g_110>
   10605:	b8 01 00 00 00       	mov    $0x1,%eax
   1060a:	31 85 c4 f3 ff ff    	xor    %eax,-0xc3c(%rbp)
   10610:	be 75 00 00 00       	mov    $0x75,%esi
   10615:	bf ff ff ff ff       	mov    $0xffffffff,%edi
   1061a:	e8 4b 7c ff ff       	callq  826a <safe_div_func_int8_t_s_s>
   1061f:	0f be c0             	movsbl %al,%eax
   10622:	89 c6                	mov    %eax,%esi
   10624:	bf 59 b2 ec bb       	mov    $0xbbecb259,%edi
   10629:	e8 d1 80 ff ff       	callq  86ff <safe_div_func_int32_t_s_s>
   1062e:	48 8d 05 6b a0 00 00 	lea    0xa06b(%rip),%rax        # 1a6a0 <g_111>
   10635:	48 89 85 40 f5 ff ff 	mov    %rax,-0xac0(%rbp)
   1063c:	48 8b 95 40 f5 ff ff 	mov    -0xac0(%rbp),%rdx
   10643:	48 8d 85 f0 f3 ff ff 	lea    -0xc10(%rbp),%rax
   1064a:	48 39 c2             	cmp    %rax,%rdx
   1064d:	0f 95 c0             	setne  %al
   10650:	0f b6 c0             	movzbl %al,%eax
   10653:	39 85 d4 f3 ff ff    	cmp    %eax,-0xc2c(%rbp)
   10659:	0f 9f c0             	setg   %al
   1065c:	0f b6 c0             	movzbl %al,%eax
   1065f:	89 c7                	mov    %eax,%edi
   10661:	e8 30 7f ff ff       	callq  8596 <safe_unary_minus_func_int32_t_s>
   10666:	48 8b 95 00 f4 ff ff 	mov    -0xc00(%rbp),%rdx
   1066d:	48 8b 85 98 f4 ff ff 	mov    -0xb68(%rbp),%rax
   10674:	48 89 10             	mov    %rdx,(%rax)
   10677:	48 8b 85 98 f4 ff ff 	mov    -0xb68(%rbp),%rax
   1067e:	48 8b 10             	mov    (%rax),%rdx
   10681:	48 8b 85 f0 f3 ff ff 	mov    -0xc10(%rbp),%rax
   10688:	48 39 c2             	cmp    %rax,%rdx
   1068b:	0f 95 c0             	setne  %al
   1068e:	0f b6 c0             	movzbl %al,%eax
   10691:	89 85 bc f4 ff ff    	mov    %eax,-0xb44(%rbp)
   10697:	8b 85 bc f4 ff ff    	mov    -0xb44(%rbp),%eax
   1069d:	83 c8 06             	or     $0x6,%eax
   106a0:	48 63 d0             	movslq %eax,%rdx
   106a3:	48 8b 05 f6 9f 00 00 	mov    0x9ff6(%rip),%rax        # 1a6a0 <g_111>
   106aa:	0f b7 00             	movzwl (%rax),%eax
   106ad:	48 0f bf c0          	movswq %ax,%rax
   106b1:	48 39 c2             	cmp    %rax,%rdx
   106b4:	72 07                	jb     106bd <func_66+0x5c9>
   106b6:	83 bd cc f3 ff ff 00 	cmpl   $0x0,-0xc34(%rbp)
   106bd:	be 4f d3 00 00       	mov    $0xd34f,%esi
   106c2:	bf 45 89 00 00       	mov    $0x8945,%edi
   106c7:	e8 90 86 ff ff       	callq  8d5c <safe_mod_func_uint16_t_u_u>
   106cc:	be 19 19 00 00       	mov    $0x1919,%esi
   106d1:	bf 01 00 00 00       	mov    $0x1,%edi
   106d6:	e8 d8 7c ff ff       	callq  83b3 <safe_add_func_int16_t_s_s>
   106db:	98                   	cwtl   
   106dc:	44 89 e1             	mov    %r12d,%ecx
   106df:	31 c1                	xor    %eax,%ecx
   106e1:	48 8b 85 a0 f4 ff ff 	mov    -0xb60(%rbp),%rax
   106e8:	0f b6 00             	movzbl (%rax),%eax
   106eb:	89 c2                	mov    %eax,%edx
   106ed:	89 c8                	mov    %ecx,%eax
   106ef:	21 d0                	and    %edx,%eax
   106f1:	89 c2                	mov    %eax,%edx
   106f3:	48 8b 85 a0 f4 ff ff 	mov    -0xb60(%rbp),%rax
   106fa:	88 10                	mov    %dl,(%rax)
   106fc:	48 8b 85 a0 f4 ff ff 	mov    -0xb60(%rbp),%rax
   10703:	0f b6 00             	movzbl (%rax),%eax
   10706:	84 c0                	test   %al,%al
   10708:	74 07                	je     10711 <func_66+0x61d>
   1070a:	80 bd a4 f3 ff ff 00 	cmpb   $0x0,-0xc5c(%rbp)
   10711:	0f b6 05 10 bd 00 00 	movzbl 0xbd10(%rip),%eax        # 1c428 <g_65>
   10718:	84 c0                	test   %al,%al
   1071a:	0f 94 c0             	sete   %al
   1071d:	0f b6 c0             	movzbl %al,%eax
   10720:	89 de                	mov    %ebx,%esi
   10722:	89 c7                	mov    %eax,%edi
   10724:	e8 8f 87 ff ff       	callq  8eb8 <safe_add_func_uint32_t_u_u>
   10729:	8b 95 48 fd ff ff    	mov    -0x2b8(%rbp),%edx
   1072f:	09 d0                	or     %edx,%eax
   10731:	89 85 48 fd ff ff    	mov    %eax,-0x2b8(%rbp)
   10737:	c7 85 cc f3 ff ff 04 	movl   $0x4,-0xc34(%rbp)
   1073e:	00 00 00 
   10741:	eb 1e                	jmp    10761 <func_66+0x66d>
   10743:	c6 85 b7 f3 ff ff 0a 	movb   $0xa,-0xc49(%rbp)
   1074a:	48 8b 05 ef 9f 00 00 	mov    0x9fef(%rip),%rax        # 1a740 <g_126>
   10751:	0f be 95 b7 f3 ff ff 	movsbl -0xc49(%rbp),%edx
   10758:	89 10                	mov    %edx,(%rax)
   1075a:	83 ad cc f3 ff ff 01 	subl   $0x1,-0xc34(%rbp)
   10761:	83 bd cc f3 ff ff 00 	cmpl   $0x0,-0xc34(%rbp)
   10768:	79 d9                	jns    10743 <func_66+0x64f>
   1076a:	8b 05 cc 6a 00 00    	mov    0x6acc(%rip),%eax        # 1723c <g_90>
   10770:	83 c0 01             	add    $0x1,%eax
   10773:	89 05 c3 6a 00 00    	mov    %eax,0x6ac3(%rip)        # 1723c <g_90>
   10779:	8b 05 bd 6a 00 00    	mov    0x6abd(%rip),%eax        # 1723c <g_90>
   1077f:	83 f8 08             	cmp    $0x8,%eax
   10782:	0f 8e 01 fe ff ff    	jle    10589 <func_66+0x495>
   10788:	48 8b 85 08 f4 ff ff 	mov    -0xbf8(%rbp),%rax
   1078f:	e9 7f 01 00 00       	jmpq   10913 <func_66+0x81f>
   10794:	48 8b 85 58 f4 ff ff 	mov    -0xba8(%rbp),%rax
   1079b:	c6 00 9f             	movb   $0x9f,(%rax)
   1079e:	41 bc 01 00 00 00    	mov    $0x1,%r12d
   107a4:	48 8b 85 60 f4 ff ff 	mov    -0xba0(%rbp),%rax
   107ab:	48 89 85 18 f4 ff ff 	mov    %rax,-0xbe8(%rbp)
   107b2:	48 8b 85 18 f4 ff ff 	mov    -0xbe8(%rbp),%rax
   107b9:	48 89 85 20 f4 ff ff 	mov    %rax,-0xbe0(%rbp)
   107c0:	48 8b 85 d8 f4 ff ff 	mov    -0xb28(%rbp),%rax
   107c7:	48 39 85 20 f4 ff ff 	cmp    %rax,-0xbe0(%rbp)
   107ce:	0f 94 c0             	sete   %al
   107d1:	0f b6 c0             	movzbl %al,%eax
   107d4:	be 03 00 00 00       	mov    $0x3,%esi
   107d9:	89 c7                	mov    %eax,%edi
   107db:	e8 de 84 ff ff       	callq  8cbe <safe_rshift_func_uint8_t_u_u>
   107e0:	0f b7 05 61 6a 00 00 	movzwl 0x6a61(%rip),%eax        # 17248 <g_150>
   107e7:	0f b6 d8             	movzbl %al,%ebx
   107ea:	0f b6 05 37 bc 00 00 	movzbl 0xbc37(%rip),%eax        # 1c428 <g_65>
   107f1:	48 0f be c0          	movsbq %al,%rax
   107f5:	48 89 c6             	mov    %rax,%rsi
   107f8:	48 c7 c7 ff ff ff ff 	mov    $0xffffffffffffffff,%rdi
   107ff:	e8 47 88 ff ff       	callq  904b <safe_sub_func_uint64_t_u_u>
   10804:	0f b6 c0             	movzbl %al,%eax
   10807:	89 de                	mov    %ebx,%esi
   10809:	89 c7                	mov    %eax,%edi
   1080b:	e8 9e 83 ff ff       	callq  8bae <safe_mod_func_uint8_t_u_u>
   10810:	0f b6 95 a4 f3 ff ff 	movzbl -0xc5c(%rbp),%edx
   10817:	48 8b 05 82 9e 00 00 	mov    0x9e82(%rip),%rax        # 1a6a0 <g_111>
   1081e:	0f b7 08             	movzwl (%rax),%ecx
   10821:	66 0f be d2          	movsbw %dl,%dx
   10825:	48 8b 05 74 9e 00 00 	mov    0x9e74(%rip),%rax        # 1a6a0 <g_111>
   1082c:	31 ca                	xor    %ecx,%edx
   1082e:	66 89 10             	mov    %dx,(%rax)
   10831:	0f b7 00             	movzwl (%rax),%eax
   10834:	66 85 c0             	test   %ax,%ax
   10837:	0f 94 c0             	sete   %al
   1083a:	0f b6 c0             	movzbl %al,%eax
   1083d:	be 06 00 00 00       	mov    $0x6,%esi
   10842:	89 c7                	mov    %eax,%edi
   10844:	e8 75 84 ff ff       	callq  8cbe <safe_rshift_func_uint8_t_u_u>
   10849:	84 c0                	test   %al,%al
   1084b:	74 08                	je     10855 <func_66+0x761>
   1084d:	48 83 bd a8 f3 ff ff 	cmpq   $0x0,-0xc58(%rbp)
   10854:	00 
   10855:	80 bd a4 f3 ff ff 00 	cmpb   $0x0,-0xc5c(%rbp)
   1085c:	0f 95 c0             	setne  %al
   1085f:	0f b6 c0             	movzbl %al,%eax
   10862:	be 00 00 00 00       	mov    $0x0,%esi
   10867:	89 c7                	mov    %eax,%edi
   10869:	e8 87 7b ff ff       	callq  83f5 <safe_mul_func_int16_t_s_s>
   1086e:	0f b7 05 11 69 00 00 	movzwl 0x6911(%rip),%eax        # 17186 <g_53+0x146>
   10875:	0f b7 d0             	movzwl %ax,%edx
   10878:	48 8b 85 60 f4 ff ff 	mov    -0xba0(%rbp),%rax
   1087f:	0f b7 00             	movzwl (%rax),%eax
   10882:	8d 48 ff             	lea    -0x1(%rax),%ecx
   10885:	48 8b 85 60 f4 ff ff 	mov    -0xba0(%rbp),%rax
   1088c:	66 89 08             	mov    %cx,(%rax)
   1088f:	48 8b 85 60 f4 ff ff 	mov    -0xba0(%rbp),%rax
   10896:	0f b7 00             	movzwl (%rax),%eax
   10899:	0f b7 c8             	movzwl %ax,%ecx
   1089c:	48 8b 85 08 f4 ff ff 	mov    -0xbf8(%rbp),%rax
   108a3:	89 08                	mov    %ecx,(%rax)
   108a5:	48 8b 85 08 f4 ff ff 	mov    -0xbf8(%rbp),%rax
   108ac:	8b 00                	mov    (%rax),%eax
   108ae:	0f b7 c0             	movzwl %ax,%eax
   108b1:	89 d6                	mov    %edx,%esi
   108b3:	89 c7                	mov    %eax,%edi
   108b5:	e8 d4 84 ff ff       	callq  8d8e <safe_div_func_uint16_t_u_u>
   108ba:	be 2a 88 00 00       	mov    $0x882a,%esi
   108bf:	bf f2 31 00 00       	mov    $0x31f2,%edi
   108c4:	e8 74 84 ff ff       	callq  8d3d <safe_mul_func_uint16_t_u_u>
   108c9:	0f b7 c0             	movzwl %ax,%eax
   108cc:	41 39 c4             	cmp    %eax,%r12d
   108cf:	0f 9f c0             	setg   %al
   108d2:	0f b6 c0             	movzbl %al,%eax
   108d5:	48 8b 95 a8 f3 ff ff 	mov    -0xc58(%rbp),%rdx
   108dc:	48 89 d6             	mov    %rdx,%rsi
   108df:	48 89 c7             	mov    %rax,%rdi
   108e2:	e8 64 87 ff ff       	callq  904b <safe_sub_func_uint64_t_u_u>
   108e7:	89 85 bc f4 ff ff    	mov    %eax,-0xb44(%rbp)
   108ed:	0f b6 05 34 bb 00 00 	movzbl 0xbb34(%rip),%eax        # 1c428 <g_65>
   108f4:	83 e8 01             	sub    $0x1,%eax
   108f7:	88 05 2b bb 00 00    	mov    %al,0xbb2b(%rip)        # 1c428 <g_65>
   108fd:	0f b6 05 24 bb 00 00 	movzbl 0xbb24(%rip),%eax        # 1c428 <g_65>
   10904:	3c e5                	cmp    $0xe5,%al
   10906:	0f 8d 79 f9 ff ff    	jge    10285 <func_66+0x191>
   1090c:	48 8b 85 50 f4 ff ff 	mov    -0xbb0(%rbp),%rax
   10913:	48 8b 5d e8          	mov    -0x18(%rbp),%rbx
   10917:	64 48 33 1c 25 28 00 	xor    %fs:0x28,%rbx
   1091e:	00 00 
   10920:	74 05                	je     10927 <func_66+0x833>
   10922:	e8 49 77 ff ff       	callq  8070 <__stack_chk_fail@plt>
   10927:	48 81 c4 50 0c 00 00 	add    $0xc50,%rsp
   1092e:	5b                   	pop    %rbx
   1092f:	41 5c                	pop    %r12
   10931:	5d                   	pop    %rbp
   10932:	c3                   	retq   

0000000000010933 <main>:
   10933:	f3 0f 1e fa          	endbr64 
   10937:	55                   	push   %rbp
   10938:	48 89 e5             	mov    %rsp,%rbp
   1093b:	48 83 ec 20          	sub    $0x20,%rsp
   1093f:	89 7d ec             	mov    %edi,-0x14(%rbp)
   10942:	48 89 75 e0          	mov    %rsi,-0x20(%rbp)
   10946:	c7 45 fc 00 00 00 00 	movl   $0x0,-0x4(%rbp)
   1094d:	83 7d ec 02          	cmpl   $0x2,-0x14(%rbp)
   10951:	75 25                	jne    10978 <main+0x45>
   10953:	48 8b 45 e0          	mov    -0x20(%rbp),%rax
   10957:	48 83 c0 08          	add    $0x8,%rax
   1095b:	48 8b 00             	mov    (%rax),%rax
   1095e:	48 8d 35 2f 3a 00 00 	lea    0x3a2f(%rip),%rsi        # 14394 <g_3574+0x1304>
   10965:	48 89 c7             	mov    %rax,%rdi
   10968:	e8 23 77 ff ff       	callq  8090 <strcmp@plt>
   1096d:	85 c0                	test   %eax,%eax
   1096f:	75 07                	jne    10978 <main+0x45>
   10971:	c7 45 fc 01 00 00 00 	movl   $0x1,-0x4(%rbp)
   10978:	e8 0c 78 ff ff       	callq  8189 <platform_main_begin>
   1097d:	e8 16 8c ff ff       	callq  9598 <crc32_gentab>
   10982:	e8 2e 8e ff ff       	callq  97b5 <func_1>
   10987:	8b 05 97 66 00 00    	mov    0x6697(%rip),%eax        # 17024 <g_3>
   1098d:	48 98                	cltq   
   1098f:	8b 55 fc             	mov    -0x4(%rbp),%edx
   10992:	48 8d 35 fd 39 00 00 	lea    0x39fd(%rip),%rsi        # 14396 <g_3574+0x1306>
   10999:	48 89 c7             	mov    %rax,%rdi
   1099c:	e8 52 8d ff ff       	callq  96f3 <transparent_crc>
   109a1:	8b 05 81 66 00 00    	mov    0x6681(%rip),%eax        # 17028 <g_29>
   109a7:	48 98                	cltq   
   109a9:	8b 55 fc             	mov    -0x4(%rbp),%edx
   109ac:	48 8d 35 e7 39 00 00 	lea    0x39e7(%rip),%rsi        # 1439a <g_3574+0x130a>
   109b3:	48 89 c7             	mov    %rax,%rdi
   109b6:	e8 38 8d ff ff       	callq  96f3 <transparent_crc>
   109bb:	c7 45 f0 00 00 00 00 	movl   $0x0,-0x10(%rbp)
   109c2:	e9 9e 00 00 00       	jmpq   10a65 <main+0x132>
   109c7:	c7 45 f4 00 00 00 00 	movl   $0x0,-0xc(%rbp)
   109ce:	e9 84 00 00 00       	jmpq   10a57 <main+0x124>
   109d3:	c7 45 f8 00 00 00 00 	movl   $0x0,-0x8(%rbp)
   109da:	eb 71                	jmp    10a4d <main+0x11a>
   109dc:	8b 45 f8             	mov    -0x8(%rbp),%eax
   109df:	48 63 c8             	movslq %eax,%rcx
   109e2:	8b 45 f0             	mov    -0x10(%rbp),%eax
   109e5:	48 63 d0             	movslq %eax,%rdx
   109e8:	8b 45 f4             	mov    -0xc(%rbp),%eax
   109eb:	48 63 f0             	movslq %eax,%rsi
   109ee:	48 89 d0             	mov    %rdx,%rax
   109f1:	48 c1 e0 03          	shl    $0x3,%rax
   109f5:	48 01 d0             	add    %rdx,%rax
   109f8:	48 01 f0             	add    %rsi,%rax
   109fb:	48 c1 e0 02          	shl    $0x2,%rax
   109ff:	48 01 c8             	add    %rcx,%rax
   10a02:	48 8d 14 00          	lea    (%rax,%rax,1),%rdx
   10a06:	48 8d 05 33 66 00 00 	lea    0x6633(%rip),%rax        # 17040 <g_53>
   10a0d:	0f b7 04 02          	movzwl (%rdx,%rax,1),%eax
   10a11:	48 0f bf c0          	movswq %ax,%rax
   10a15:	8b 55 fc             	mov    -0x4(%rbp),%edx
   10a18:	48 8d 35 80 39 00 00 	lea    0x3980(%rip),%rsi        # 1439f <g_3574+0x130f>
   10a1f:	48 89 c7             	mov    %rax,%rdi
   10a22:	e8 cc 8c ff ff       	callq  96f3 <transparent_crc>
   10a27:	83 7d fc 00          	cmpl   $0x0,-0x4(%rbp)
   10a2b:	74 1c                	je     10a49 <main+0x116>
   10a2d:	8b 4d f8             	mov    -0x8(%rbp),%ecx
   10a30:	8b 55 f4             	mov    -0xc(%rbp),%edx
   10a33:	8b 45 f0             	mov    -0x10(%rbp),%eax
   10a36:	89 c6                	mov    %eax,%esi
   10a38:	48 8d 3d 6e 39 00 00 	lea    0x396e(%rip),%rdi        # 143ad <g_3574+0x131d>
   10a3f:	b8 00 00 00 00       	mov    $0x0,%eax
   10a44:	e8 37 76 ff ff       	callq  8080 <printf@plt>
   10a49:	83 45 f8 01          	addl   $0x1,-0x8(%rbp)
   10a4d:	83 7d f8 03          	cmpl   $0x3,-0x8(%rbp)
   10a51:	7e 89                	jle    109dc <main+0xa9>
   10a53:	83 45 f4 01          	addl   $0x1,-0xc(%rbp)
   10a57:	83 7d f4 08          	cmpl   $0x8,-0xc(%rbp)
   10a5b:	0f 8e 72 ff ff ff    	jle    109d3 <main+0xa0>
   10a61:	83 45 f0 01          	addl   $0x1,-0x10(%rbp)
   10a65:	83 7d f0 06          	cmpl   $0x6,-0x10(%rbp)
   10a69:	0f 8e 58 ff ff ff    	jle    109c7 <main+0x94>
   10a6f:	8b 05 c3 67 00 00    	mov    0x67c3(%rip),%eax        # 17238 <g_55>
   10a75:	48 98                	cltq   
   10a77:	8b 55 fc             	mov    -0x4(%rbp),%edx
   10a7a:	48 8d 35 42 39 00 00 	lea    0x3942(%rip),%rsi        # 143c3 <g_3574+0x1333>
   10a81:	48 89 c7             	mov    %rax,%rdi
   10a84:	e8 6a 8c ff ff       	callq  96f3 <transparent_crc>
   10a89:	0f b6 05 98 b9 00 00 	movzbl 0xb998(%rip),%eax        # 1c428 <g_65>
   10a90:	48 0f be c0          	movsbq %al,%rax
   10a94:	8b 55 fc             	mov    -0x4(%rbp),%edx
   10a97:	48 8d 35 2a 39 00 00 	lea    0x392a(%rip),%rsi        # 143c8 <g_3574+0x1338>
   10a9e:	48 89 c7             	mov    %rax,%rdi
   10aa1:	e8 4d 8c ff ff       	callq  96f3 <transparent_crc>
   10aa6:	8b 05 90 67 00 00    	mov    0x6790(%rip),%eax        # 1723c <g_90>
   10aac:	48 98                	cltq   
   10aae:	8b 55 fc             	mov    -0x4(%rbp),%edx
   10ab1:	48 8d 35 15 39 00 00 	lea    0x3915(%rip),%rsi        # 143cd <g_3574+0x133d>
   10ab8:	48 89 c7             	mov    %rax,%rdi
   10abb:	e8 33 8c ff ff       	callq  96f3 <transparent_crc>
   10ac0:	0f b7 05 79 67 00 00 	movzwl 0x6779(%rip),%eax        # 17240 <g_116>
   10ac7:	48 0f bf c0          	movswq %ax,%rax
   10acb:	8b 55 fc             	mov    -0x4(%rbp),%edx
   10ace:	48 8d 35 fd 38 00 00 	lea    0x38fd(%rip),%rsi        # 143d2 <g_3574+0x1342>
   10ad5:	48 89 c7             	mov    %rax,%rdi
   10ad8:	e8 16 8c ff ff       	callq  96f3 <transparent_crc>
   10add:	0f b6 05 5e 67 00 00 	movzbl 0x675e(%rip),%eax        # 17242 <g_120>
   10ae4:	0f b6 c0             	movzbl %al,%eax
   10ae7:	8b 55 fc             	mov    -0x4(%rbp),%edx
   10aea:	48 8d 35 e7 38 00 00 	lea    0x38e7(%rip),%rsi        # 143d8 <g_3574+0x1348>
   10af1:	48 89 c7             	mov    %rax,%rdi
   10af4:	e8 fa 8b ff ff       	callq  96f3 <transparent_crc>
   10af9:	8b 05 45 67 00 00    	mov    0x6745(%rip),%eax        # 17244 <g_125>
   10aff:	48 98                	cltq   
   10b01:	8b 55 fc             	mov    -0x4(%rbp),%edx
   10b04:	48 8d 35 d3 38 00 00 	lea    0x38d3(%rip),%rsi        # 143de <g_3574+0x134e>
   10b0b:	48 89 c7             	mov    %rax,%rdi
   10b0e:	e8 e0 8b ff ff       	callq  96f3 <transparent_crc>
   10b13:	c7 45 f0 00 00 00 00 	movl   $0x0,-0x10(%rbp)
   10b1a:	eb 49                	jmp    10b65 <main+0x232>
   10b1c:	8b 45 f0             	mov    -0x10(%rbp),%eax
   10b1f:	48 98                	cltq   
   10b21:	48 8d 14 00          	lea    (%rax,%rax,1),%rdx
   10b25:	48 8d 05 1c 67 00 00 	lea    0x671c(%rip),%rax        # 17248 <g_150>
   10b2c:	0f b7 04 02          	movzwl (%rdx,%rax,1),%eax
   10b30:	0f b7 c0             	movzwl %ax,%eax
   10b33:	8b 55 fc             	mov    -0x4(%rbp),%edx
   10b36:	48 8d 35 a7 38 00 00 	lea    0x38a7(%rip),%rsi        # 143e4 <g_3574+0x1354>
   10b3d:	48 89 c7             	mov    %rax,%rdi
   10b40:	e8 ae 8b ff ff       	callq  96f3 <transparent_crc>
   10b45:	83 7d fc 00          	cmpl   $0x0,-0x4(%rbp)
   10b49:	74 16                	je     10b61 <main+0x22e>
   10b4b:	8b 45 f0             	mov    -0x10(%rbp),%eax
   10b4e:	89 c6                	mov    %eax,%esi
   10b50:	48 8d 3d 96 38 00 00 	lea    0x3896(%rip),%rdi        # 143ed <g_3574+0x135d>
   10b57:	b8 00 00 00 00       	mov    $0x0,%eax
   10b5c:	e8 1f 75 ff ff       	callq  8080 <printf@plt>
   10b61:	83 45 f0 01          	addl   $0x1,-0x10(%rbp)
   10b65:	83 7d f0 02          	cmpl   $0x2,-0x10(%rbp)
   10b69:	7e b1                	jle    10b1c <main+0x1e9>
   10b6b:	c7 45 f0 00 00 00 00 	movl   $0x0,-0x10(%rbp)
   10b72:	e9 af 00 00 00       	jmpq   10c26 <main+0x2f3>
   10b77:	c7 45 f4 00 00 00 00 	movl   $0x0,-0xc(%rbp)
   10b7e:	e9 95 00 00 00       	jmpq   10c18 <main+0x2e5>
   10b83:	c7 45 f8 00 00 00 00 	movl   $0x0,-0x8(%rbp)
   10b8a:	eb 7e                	jmp    10c0a <main+0x2d7>
   10b8c:	8b 45 f8             	mov    -0x8(%rbp),%eax
   10b8f:	48 63 f0             	movslq %eax,%rsi
   10b92:	8b 45 f0             	mov    -0x10(%rbp),%eax
   10b95:	48 63 d0             	movslq %eax,%rdx
   10b98:	8b 45 f4             	mov    -0xc(%rbp),%eax
   10b9b:	48 63 c8             	movslq %eax,%rcx
   10b9e:	48 89 d0             	mov    %rdx,%rax
   10ba1:	48 01 c0             	add    %rax,%rax
   10ba4:	48 01 d0             	add    %rdx,%rax
   10ba7:	48 89 c2             	mov    %rax,%rdx
   10baa:	48 c1 e2 04          	shl    $0x4,%rdx
   10bae:	48 29 c2             	sub    %rax,%rdx
   10bb1:	48 89 c8             	mov    %rcx,%rax
   10bb4:	48 c1 e0 02          	shl    $0x2,%rax
   10bb8:	48 01 c8             	add    %rcx,%rax
   10bbb:	48 01 d0             	add    %rdx,%rax
   10bbe:	48 8d 14 30          	lea    (%rax,%rsi,1),%rdx
   10bc2:	48 8d 05 97 66 00 00 	lea    0x6697(%rip),%rax        # 17260 <g_175>
   10bc9:	48 01 d0             	add    %rdx,%rax
   10bcc:	0f b6 00             	movzbl (%rax),%eax
   10bcf:	0f b6 c0             	movzbl %al,%eax
   10bd2:	8b 55 fc             	mov    -0x4(%rbp),%edx
   10bd5:	48 8d 35 1f 38 00 00 	lea    0x381f(%rip),%rsi        # 143fb <g_3574+0x136b>
   10bdc:	48 89 c7             	mov    %rax,%rdi
   10bdf:	e8 0f 8b ff ff       	callq  96f3 <transparent_crc>
   10be4:	83 7d fc 00          	cmpl   $0x0,-0x4(%rbp)
   10be8:	74 1c                	je     10c06 <main+0x2d3>
   10bea:	8b 4d f8             	mov    -0x8(%rbp),%ecx
   10bed:	8b 55 f4             	mov    -0xc(%rbp),%edx
   10bf0:	8b 45 f0             	mov    -0x10(%rbp),%eax
   10bf3:	89 c6                	mov    %eax,%esi
   10bf5:	48 8d 3d b1 37 00 00 	lea    0x37b1(%rip),%rdi        # 143ad <g_3574+0x131d>
   10bfc:	b8 00 00 00 00       	mov    $0x0,%eax
   10c01:	e8 7a 74 ff ff       	callq  8080 <printf@plt>
   10c06:	83 45 f8 01          	addl   $0x1,-0x8(%rbp)
   10c0a:	83 7d f8 04          	cmpl   $0x4,-0x8(%rbp)
   10c0e:	0f 8e 78 ff ff ff    	jle    10b8c <main+0x259>
   10c14:	83 45 f4 01          	addl   $0x1,-0xc(%rbp)
   10c18:	83 7d f4 08          	cmpl   $0x8,-0xc(%rbp)
   10c1c:	0f 8e 61 ff ff ff    	jle    10b83 <main+0x250>
   10c22:	83 45 f0 01          	addl   $0x1,-0x10(%rbp)
   10c26:	83 7d f0 04          	cmpl   $0x4,-0x10(%rbp)
   10c2a:	0f 8e 47 ff ff ff    	jle    10b77 <main+0x244>
   10c30:	48 8b 05 01 b8 00 00 	mov    0xb801(%rip),%rax        # 1c438 <g_192>
   10c37:	8b 55 fc             	mov    -0x4(%rbp),%edx
   10c3a:	48 8d 35 c9 37 00 00 	lea    0x37c9(%rip),%rsi        # 1440a <g_3574+0x137a>
   10c41:	48 89 c7             	mov    %rax,%rdi
   10c44:	e8 aa 8a ff ff       	callq  96f3 <transparent_crc>
   10c49:	c7 45 f0 00 00 00 00 	movl   $0x0,-0x10(%rbp)
   10c50:	eb 4a                	jmp    10c9c <main+0x369>
   10c52:	8b 45 f0             	mov    -0x10(%rbp),%eax
   10c55:	48 98                	cltq   
   10c57:	48 8d 14 00          	lea    (%rax,%rax,1),%rdx
   10c5b:	48 8d 05 ee 66 00 00 	lea    0x66ee(%rip),%rax        # 17350 <g_213>
   10c62:	0f b7 04 02          	movzwl (%rdx,%rax,1),%eax
   10c66:	48 0f bf c0          	movswq %ax,%rax
   10c6a:	8b 55 fc             	mov    -0x4(%rbp),%edx
   10c6d:	48 8d 35 9c 37 00 00 	lea    0x379c(%rip),%rsi        # 14410 <g_3574+0x1380>
   10c74:	48 89 c7             	mov    %rax,%rdi
   10c77:	e8 77 8a ff ff       	callq  96f3 <transparent_crc>
   10c7c:	83 7d fc 00          	cmpl   $0x0,-0x4(%rbp)
   10c80:	74 16                	je     10c98 <main+0x365>
   10c82:	8b 45 f0             	mov    -0x10(%rbp),%eax
   10c85:	89 c6                	mov    %eax,%esi
   10c87:	48 8d 3d 5f 37 00 00 	lea    0x375f(%rip),%rdi        # 143ed <g_3574+0x135d>
   10c8e:	b8 00 00 00 00       	mov    $0x0,%eax
   10c93:	e8 e8 73 ff ff       	callq  8080 <printf@plt>
   10c98:	83 45 f0 01          	addl   $0x1,-0x10(%rbp)
   10c9c:	83 7d f0 09          	cmpl   $0x9,-0x10(%rbp)
   10ca0:	7e b0                	jle    10c52 <main+0x31f>
   10ca2:	0f b7 05 bb 66 00 00 	movzwl 0x66bb(%rip),%eax        # 17364 <g_214>
   10ca9:	48 0f bf c0          	movswq %ax,%rax
   10cad:	8b 55 fc             	mov    -0x4(%rbp),%edx
   10cb0:	48 8d 35 62 37 00 00 	lea    0x3762(%rip),%rsi        # 14419 <g_3574+0x1389>
   10cb7:	48 89 c7             	mov    %rax,%rdi
   10cba:	e8 34 8a ff ff       	callq  96f3 <transparent_crc>
   10cbf:	8b 05 7b b7 00 00    	mov    0xb77b(%rip),%eax        # 1c440 <g_270>
   10cc5:	89 c1                	mov    %eax,%ecx
   10cc7:	8b 45 fc             	mov    -0x4(%rbp),%eax
   10cca:	89 c2                	mov    %eax,%edx
   10ccc:	48 8d 35 4c 37 00 00 	lea    0x374c(%rip),%rsi        # 1441f <g_3574+0x138f>
   10cd3:	48 89 cf             	mov    %rcx,%rdi
   10cd6:	e8 18 8a ff ff       	callq  96f3 <transparent_crc>
   10cdb:	8b 05 5f b7 00 00    	mov    0xb75f(%rip),%eax        # 1c440 <g_270>
   10ce1:	89 c1                	mov    %eax,%ecx
   10ce3:	8b 45 fc             	mov    -0x4(%rbp),%eax
   10ce6:	89 c2                	mov    %eax,%edx
   10ce8:	48 8d 35 39 37 00 00 	lea    0x3739(%rip),%rsi        # 14428 <g_3574+0x1398>
   10cef:	48 89 cf             	mov    %rcx,%rdi
   10cf2:	e8 fc 89 ff ff       	callq  96f3 <transparent_crc>
   10cf7:	8b 05 43 b7 00 00    	mov    0xb743(%rip),%eax        # 1c440 <g_270>
   10cfd:	89 c1                	mov    %eax,%ecx
   10cff:	8b 45 fc             	mov    -0x4(%rbp),%eax
   10d02:	89 c2                	mov    %eax,%edx
   10d04:	48 8d 35 26 37 00 00 	lea    0x3726(%rip),%rsi        # 14431 <g_3574+0x13a1>
   10d0b:	48 89 cf             	mov    %rcx,%rdi
   10d0e:	e8 e0 89 ff ff       	callq  96f3 <transparent_crc>
   10d13:	0f b6 05 26 b7 00 00 	movzbl 0xb726(%rip),%eax        # 1c440 <g_270>
   10d1a:	0f b6 c0             	movzbl %al,%eax
   10d1d:	8b 55 fc             	mov    -0x4(%rbp),%edx
   10d20:	48 8d 35 13 37 00 00 	lea    0x3713(%rip),%rsi        # 1443a <g_3574+0x13aa>
   10d27:	48 89 c7             	mov    %rax,%rdi
   10d2a:	e8 c4 89 ff ff       	callq  96f3 <transparent_crc>
   10d2f:	8b 05 0b b7 00 00    	mov    0xb70b(%rip),%eax        # 1c440 <g_270>
   10d35:	48 98                	cltq   
   10d37:	8b 55 fc             	mov    -0x4(%rbp),%edx
   10d3a:	48 8d 35 02 37 00 00 	lea    0x3702(%rip),%rsi        # 14443 <g_3574+0x13b3>
   10d41:	48 89 c7             	mov    %rax,%rdi
   10d44:	e8 aa 89 ff ff       	callq  96f3 <transparent_crc>
   10d49:	0f b6 05 16 66 00 00 	movzbl 0x6616(%rip),%eax        # 17366 <g_274>
   10d50:	0f b6 c0             	movzbl %al,%eax
   10d53:	8b 55 fc             	mov    -0x4(%rbp),%edx
   10d56:	48 8d 35 ef 36 00 00 	lea    0x36ef(%rip),%rsi        # 1444c <g_3574+0x13bc>
   10d5d:	48 89 c7             	mov    %rax,%rdi
   10d60:	e8 8e 89 ff ff       	callq  96f3 <transparent_crc>
   10d65:	c7 45 f0 00 00 00 00 	movl   $0x0,-0x10(%rbp)
   10d6c:	e9 a3 00 00 00       	jmpq   10e14 <main+0x4e1>
   10d71:	c7 45 f4 00 00 00 00 	movl   $0x0,-0xc(%rbp)
   10d78:	e9 89 00 00 00       	jmpq   10e06 <main+0x4d3>
   10d7d:	c7 45 f8 00 00 00 00 	movl   $0x0,-0x8(%rbp)
   10d84:	eb 76                	jmp    10dfc <main+0x4c9>
   10d86:	8b 45 f8             	mov    -0x8(%rbp),%eax
   10d89:	48 63 f0             	movslq %eax,%rsi
   10d8c:	8b 45 f0             	mov    -0x10(%rbp),%eax
   10d8f:	48 63 d0             	movslq %eax,%rdx
   10d92:	8b 45 f4             	mov    -0xc(%rbp),%eax
   10d95:	48 63 c8             	movslq %eax,%rcx
   10d98:	48 89 d0             	mov    %rdx,%rax
   10d9b:	48 01 c0             	add    %rax,%rax
   10d9e:	48 01 d0             	add    %rdx,%rax
   10da1:	48 01 c0             	add    %rax,%rax
   10da4:	48 89 ca             	mov    %rcx,%rdx
   10da7:	48 01 d2             	add    %rdx,%rdx
   10daa:	48 01 ca             	add    %rcx,%rdx
   10dad:	48 01 d0             	add    %rdx,%rax
   10db0:	48 8d 14 30          	lea    (%rax,%rsi,1),%rdx
   10db4:	48 8d 05 c5 65 00 00 	lea    0x65c5(%rip),%rax        # 17380 <g_275>
   10dbb:	48 01 d0             	add    %rdx,%rax
   10dbe:	0f b6 00             	movzbl (%rax),%eax
   10dc1:	0f b6 c0             	movzbl %al,%eax
   10dc4:	8b 55 fc             	mov    -0x4(%rbp),%edx
   10dc7:	48 8d 35 84 36 00 00 	lea    0x3684(%rip),%rsi        # 14452 <g_3574+0x13c2>
   10dce:	48 89 c7             	mov    %rax,%rdi
   10dd1:	e8 1d 89 ff ff       	callq  96f3 <transparent_crc>
   10dd6:	83 7d fc 00          	cmpl   $0x0,-0x4(%rbp)
   10dda:	74 1c                	je     10df8 <main+0x4c5>
   10ddc:	8b 4d f8             	mov    -0x8(%rbp),%ecx
   10ddf:	8b 55 f4             	mov    -0xc(%rbp),%edx
   10de2:	8b 45 f0             	mov    -0x10(%rbp),%eax
   10de5:	89 c6                	mov    %eax,%esi
   10de7:	48 8d 3d bf 35 00 00 	lea    0x35bf(%rip),%rdi        # 143ad <g_3574+0x131d>
   10dee:	b8 00 00 00 00       	mov    $0x0,%eax
   10df3:	e8 88 72 ff ff       	callq  8080 <printf@plt>
   10df8:	83 45 f8 01          	addl   $0x1,-0x8(%rbp)
   10dfc:	83 7d f8 02          	cmpl   $0x2,-0x8(%rbp)
   10e00:	7e 84                	jle    10d86 <main+0x453>
   10e02:	83 45 f4 01          	addl   $0x1,-0xc(%rbp)
   10e06:	83 7d f4 01          	cmpl   $0x1,-0xc(%rbp)
   10e0a:	0f 8e 6d ff ff ff    	jle    10d7d <main+0x44a>
   10e10:	83 45 f0 01          	addl   $0x1,-0x10(%rbp)
   10e14:	83 7d f0 06          	cmpl   $0x6,-0x10(%rbp)
   10e18:	0f 8e 53 ff ff ff    	jle    10d71 <main+0x43e>
   10e1e:	c7 45 f0 00 00 00 00 	movl   $0x0,-0x10(%rbp)
   10e25:	eb 45                	jmp    10e6c <main+0x539>
   10e27:	8b 45 f0             	mov    -0x10(%rbp),%eax
   10e2a:	48 98                	cltq   
   10e2c:	48 8d 15 7d 65 00 00 	lea    0x657d(%rip),%rdx        # 173b0 <g_276>
   10e33:	0f b6 04 10          	movzbl (%rax,%rdx,1),%eax
   10e37:	0f b6 c0             	movzbl %al,%eax
   10e3a:	8b 55 fc             	mov    -0x4(%rbp),%edx
   10e3d:	48 8d 35 1d 36 00 00 	lea    0x361d(%rip),%rsi        # 14461 <g_3574+0x13d1>
   10e44:	48 89 c7             	mov    %rax,%rdi
   10e47:	e8 a7 88 ff ff       	callq  96f3 <transparent_crc>
   10e4c:	83 7d fc 00          	cmpl   $0x0,-0x4(%rbp)
   10e50:	74 16                	je     10e68 <main+0x535>
   10e52:	8b 45 f0             	mov    -0x10(%rbp),%eax
   10e55:	89 c6                	mov    %eax,%esi
   10e57:	48 8d 3d 8f 35 00 00 	lea    0x358f(%rip),%rdi        # 143ed <g_3574+0x135d>
   10e5e:	b8 00 00 00 00       	mov    $0x0,%eax
   10e63:	e8 18 72 ff ff       	callq  8080 <printf@plt>
   10e68:	83 45 f0 01          	addl   $0x1,-0x10(%rbp)
   10e6c:	83 7d f0 07          	cmpl   $0x7,-0x10(%rbp)
   10e70:	7e b5                	jle    10e27 <main+0x4f4>
   10e72:	c7 45 f0 00 00 00 00 	movl   $0x0,-0x10(%rbp)
   10e79:	eb 72                	jmp    10eed <main+0x5ba>
   10e7b:	c7 45 f4 00 00 00 00 	movl   $0x0,-0xc(%rbp)
   10e82:	eb 5f                	jmp    10ee3 <main+0x5b0>
   10e84:	8b 45 f4             	mov    -0xc(%rbp),%eax
   10e87:	48 63 c8             	movslq %eax,%rcx
   10e8a:	8b 45 f0             	mov    -0x10(%rbp),%eax
   10e8d:	48 63 d0             	movslq %eax,%rdx
   10e90:	48 89 d0             	mov    %rdx,%rax
   10e93:	48 c1 e0 03          	shl    $0x3,%rax
   10e97:	48 01 d0             	add    %rdx,%rax
   10e9a:	48 8d 14 08          	lea    (%rax,%rcx,1),%rdx
   10e9e:	48 8d 05 1b 65 00 00 	lea    0x651b(%rip),%rax        # 173c0 <g_277>
   10ea5:	48 01 d0             	add    %rdx,%rax
   10ea8:	0f b6 00             	movzbl (%rax),%eax
   10eab:	0f b6 c0             	movzbl %al,%eax
   10eae:	8b 55 fc             	mov    -0x4(%rbp),%edx
   10eb1:	48 8d 35 b2 35 00 00 	lea    0x35b2(%rip),%rsi        # 1446a <g_3574+0x13da>
   10eb8:	48 89 c7             	mov    %rax,%rdi
   10ebb:	e8 33 88 ff ff       	callq  96f3 <transparent_crc>
   10ec0:	83 7d fc 00          	cmpl   $0x0,-0x4(%rbp)
   10ec4:	74 19                	je     10edf <main+0x5ac>
   10ec6:	8b 55 f4             	mov    -0xc(%rbp),%edx
   10ec9:	8b 45 f0             	mov    -0x10(%rbp),%eax
   10ecc:	89 c6                	mov    %eax,%esi
   10ece:	48 8d 3d a1 35 00 00 	lea    0x35a1(%rip),%rdi        # 14476 <g_3574+0x13e6>
   10ed5:	b8 00 00 00 00       	mov    $0x0,%eax
   10eda:	e8 a1 71 ff ff       	callq  8080 <printf@plt>
   10edf:	83 45 f4 01          	addl   $0x1,-0xc(%rbp)
   10ee3:	83 7d f4 08          	cmpl   $0x8,-0xc(%rbp)
   10ee7:	7e 9b                	jle    10e84 <main+0x551>
   10ee9:	83 45 f0 01          	addl   $0x1,-0x10(%rbp)
   10eed:	83 7d f0 02          	cmpl   $0x2,-0x10(%rbp)
   10ef1:	7e 88                	jle    10e7b <main+0x548>
   10ef3:	0f b6 05 e1 64 00 00 	movzbl 0x64e1(%rip),%eax        # 173db <g_278>
   10efa:	0f b6 c0             	movzbl %al,%eax
   10efd:	8b 55 fc             	mov    -0x4(%rbp),%edx
   10f00:	48 8d 35 81 35 00 00 	lea    0x3581(%rip),%rsi        # 14488 <g_3574+0x13f8>
   10f07:	48 89 c7             	mov    %rax,%rdi
   10f0a:	e8 e4 87 ff ff       	callq  96f3 <transparent_crc>
   10f0f:	0f b6 05 2e b5 00 00 	movzbl 0xb52e(%rip),%eax        # 1c444 <g_279>
   10f16:	0f b6 c0             	movzbl %al,%eax
   10f19:	8b 55 fc             	mov    -0x4(%rbp),%edx
   10f1c:	48 8d 35 6b 35 00 00 	lea    0x356b(%rip),%rsi        # 1448e <g_3574+0x13fe>
   10f23:	48 89 c7             	mov    %rax,%rdi
   10f26:	e8 c8 87 ff ff       	callq  96f3 <transparent_crc>
   10f2b:	0f b6 05 13 b5 00 00 	movzbl 0xb513(%rip),%eax        # 1c445 <g_280>
   10f32:	0f b6 c0             	movzbl %al,%eax
   10f35:	8b 55 fc             	mov    -0x4(%rbp),%edx
   10f38:	48 8d 35 55 35 00 00 	lea    0x3555(%rip),%rsi        # 14494 <g_3574+0x1404>
   10f3f:	48 89 c7             	mov    %rax,%rdi
   10f42:	e8 ac 87 ff ff       	callq  96f3 <transparent_crc>
   10f47:	0f b6 05 8e 64 00 00 	movzbl 0x648e(%rip),%eax        # 173dc <g_283>
   10f4e:	0f b6 c0             	movzbl %al,%eax
   10f51:	8b 55 fc             	mov    -0x4(%rbp),%edx
   10f54:	48 8d 35 3f 35 00 00 	lea    0x353f(%rip),%rsi        # 1449a <g_3574+0x140a>
   10f5b:	48 89 c7             	mov    %rax,%rdi
   10f5e:	e8 90 87 ff ff       	callq  96f3 <transparent_crc>
   10f63:	c7 45 f0 00 00 00 00 	movl   $0x0,-0x10(%rbp)
   10f6a:	e9 ff 00 00 00       	jmpq   1106e <main+0x73b>
   10f6f:	8b 45 f0             	mov    -0x10(%rbp),%eax
   10f72:	48 98                	cltq   
   10f74:	48 8d 14 85 00 00 00 	lea    0x0(,%rax,4),%rdx
   10f7b:	00 
   10f7c:	48 8d 05 5d 64 00 00 	lea    0x645d(%rip),%rax        # 173e0 <g_308>
   10f83:	8b 04 02             	mov    (%rdx,%rax,1),%eax
   10f86:	89 c1                	mov    %eax,%ecx
   10f88:	8b 45 fc             	mov    -0x4(%rbp),%eax
   10f8b:	89 c2                	mov    %eax,%edx
   10f8d:	48 8d 35 0c 35 00 00 	lea    0x350c(%rip),%rsi        # 144a0 <g_3574+0x1410>
   10f94:	48 89 cf             	mov    %rcx,%rdi
   10f97:	e8 57 87 ff ff       	callq  96f3 <transparent_crc>
   10f9c:	8b 45 f0             	mov    -0x10(%rbp),%eax
   10f9f:	48 98                	cltq   
   10fa1:	48 8d 14 85 00 00 00 	lea    0x0(,%rax,4),%rdx
   10fa8:	00 
   10fa9:	48 8d 05 30 64 00 00 	lea    0x6430(%rip),%rax        # 173e0 <g_308>
   10fb0:	8b 04 02             	mov    (%rdx,%rax,1),%eax
   10fb3:	89 c1                	mov    %eax,%ecx
   10fb5:	8b 45 fc             	mov    -0x4(%rbp),%eax
   10fb8:	89 c2                	mov    %eax,%edx
   10fba:	48 8d 35 eb 34 00 00 	lea    0x34eb(%rip),%rsi        # 144ac <g_3574+0x141c>
   10fc1:	48 89 cf             	mov    %rcx,%rdi
   10fc4:	e8 2a 87 ff ff       	callq  96f3 <transparent_crc>
   10fc9:	8b 45 f0             	mov    -0x10(%rbp),%eax
   10fcc:	48 98                	cltq   
   10fce:	48 8d 14 85 00 00 00 	lea    0x0(,%rax,4),%rdx
   10fd5:	00 
   10fd6:	48 8d 05 03 64 00 00 	lea    0x6403(%rip),%rax        # 173e0 <g_308>
   10fdd:	8b 04 02             	mov    (%rdx,%rax,1),%eax
   10fe0:	89 c1                	mov    %eax,%ecx
   10fe2:	8b 45 fc             	mov    -0x4(%rbp),%eax
   10fe5:	89 c2                	mov    %eax,%edx
   10fe7:	48 8d 35 ca 34 00 00 	lea    0x34ca(%rip),%rsi        # 144b8 <g_3574+0x1428>
   10fee:	48 89 cf             	mov    %rcx,%rdi
   10ff1:	e8 fd 86 ff ff       	callq  96f3 <transparent_crc>
   10ff6:	8b 45 f0             	mov    -0x10(%rbp),%eax
   10ff9:	48 98                	cltq   
   10ffb:	48 8d 14 85 00 00 00 	lea    0x0(,%rax,4),%rdx
   11002:	00 
   11003:	48 8d 05 d6 63 00 00 	lea    0x63d6(%rip),%rax        # 173e0 <g_308>
   1100a:	0f b6 04 02          	movzbl (%rdx,%rax,1),%eax
   1100e:	0f b6 c0             	movzbl %al,%eax
   11011:	8b 55 fc             	mov    -0x4(%rbp),%edx
   11014:	48 8d 35 a9 34 00 00 	lea    0x34a9(%rip),%rsi        # 144c4 <g_3574+0x1434>
   1101b:	48 89 c7             	mov    %rax,%rdi
   1101e:	e8 d0 86 ff ff       	callq  96f3 <transparent_crc>
   11023:	8b 45 f0             	mov    -0x10(%rbp),%eax
   11026:	48 98                	cltq   
   11028:	48 8d 14 85 00 00 00 	lea    0x0(,%rax,4),%rdx
   1102f:	00 
   11030:	48 8d 05 a9 63 00 00 	lea    0x63a9(%rip),%rax        # 173e0 <g_308>
   11037:	8b 04 02             	mov    (%rdx,%rax,1),%eax
   1103a:	48 98                	cltq   
   1103c:	8b 55 fc             	mov    -0x4(%rbp),%edx
   1103f:	48 8d 35 8a 34 00 00 	lea    0x348a(%rip),%rsi        # 144d0 <g_3574+0x1440>
   11046:	48 89 c7             	mov    %rax,%rdi
   11049:	e8 a5 86 ff ff       	callq  96f3 <transparent_crc>
   1104e:	83 7d fc 00          	cmpl   $0x0,-0x4(%rbp)
   11052:	74 16                	je     1106a <main+0x737>
   11054:	8b 45 f0             	mov    -0x10(%rbp),%eax
   11057:	89 c6                	mov    %eax,%esi
   11059:	48 8d 3d 8d 33 00 00 	lea    0x338d(%rip),%rdi        # 143ed <g_3574+0x135d>
   11060:	b8 00 00 00 00       	mov    $0x0,%eax
   11065:	e8 16 70 ff ff       	callq  8080 <printf@plt>
   1106a:	83 45 f0 01          	addl   $0x1,-0x10(%rbp)
   1106e:	83 7d f0 09          	cmpl   $0x9,-0x10(%rbp)
   11072:	0f 8e f7 fe ff ff    	jle    10f6f <main+0x63c>
   11078:	48 8b 05 89 63 00 00 	mov    0x6389(%rip),%rax        # 17408 <g_334>
   1107f:	8b 55 fc             	mov    -0x4(%rbp),%edx
   11082:	48 8d 35 53 34 00 00 	lea    0x3453(%rip),%rsi        # 144dc <g_3574+0x144c>
   11089:	48 89 c7             	mov    %rax,%rdi
   1108c:	e8 62 86 ff ff       	callq  96f3 <transparent_crc>
   11091:	0f b6 05 78 63 00 00 	movzbl 0x6378(%rip),%eax        # 17410 <g_345>
   11098:	48 0f be c0          	movsbq %al,%rax
   1109c:	8b 55 fc             	mov    -0x4(%rbp),%edx
   1109f:	48 8d 35 3c 34 00 00 	lea    0x343c(%rip),%rsi        # 144e2 <g_3574+0x1452>
   110a6:	48 89 c7             	mov    %rax,%rdi
   110a9:	e8 45 86 ff ff       	callq  96f3 <transparent_crc>
   110ae:	0f b6 05 63 63 00 00 	movzbl 0x6363(%rip),%eax        # 17418 <g_354>
   110b5:	48 0f be c0          	movsbq %al,%rax
   110b9:	8b 55 fc             	mov    -0x4(%rbp),%edx
   110bc:	48 8d 35 25 34 00 00 	lea    0x3425(%rip),%rsi        # 144e8 <g_3574+0x1458>
   110c3:	48 89 c7             	mov    %rax,%rdi
   110c6:	e8 28 86 ff ff       	callq  96f3 <transparent_crc>
   110cb:	0f b6 05 4e 63 00 00 	movzbl 0x634e(%rip),%eax        # 17420 <g_371>
   110d2:	48 0f be c0          	movsbq %al,%rax
   110d6:	8b 55 fc             	mov    -0x4(%rbp),%edx
   110d9:	48 8d 35 11 34 00 00 	lea    0x3411(%rip),%rsi        # 144f1 <g_3574+0x1461>
   110e0:	48 89 c7             	mov    %rax,%rdi
   110e3:	e8 0b 86 ff ff       	callq  96f3 <transparent_crc>
   110e8:	48 8b 05 39 63 00 00 	mov    0x6339(%rip),%rax        # 17428 <g_412>
   110ef:	8b 55 fc             	mov    -0x4(%rbp),%edx
   110f2:	48 8d 35 01 34 00 00 	lea    0x3401(%rip),%rsi        # 144fa <g_3574+0x146a>
   110f9:	48 89 c7             	mov    %rax,%rdi
   110fc:	e8 f2 85 ff ff       	callq  96f3 <transparent_crc>
   11101:	c7 45 f0 00 00 00 00 	movl   $0x0,-0x10(%rbp)
   11108:	e9 ae 00 00 00       	jmpq   111bb <main+0x888>
   1110d:	c7 45 f4 00 00 00 00 	movl   $0x0,-0xc(%rbp)
   11114:	e9 94 00 00 00       	jmpq   111ad <main+0x87a>
   11119:	c7 45 f8 00 00 00 00 	movl   $0x0,-0x8(%rbp)
   11120:	eb 7d                	jmp    1119f <main+0x86c>
   11122:	8b 45 f8             	mov    -0x8(%rbp),%eax
   11125:	48 63 f0             	movslq %eax,%rsi
   11128:	8b 45 f0             	mov    -0x10(%rbp),%eax
   1112b:	48 63 d0             	movslq %eax,%rdx
   1112e:	8b 45 f4             	mov    -0xc(%rbp),%eax
   11131:	48 63 c8             	movslq %eax,%rcx
   11134:	48 89 d0             	mov    %rdx,%rax
   11137:	48 c1 e0 02          	shl    $0x2,%rax
   1113b:	48 01 d0             	add    %rdx,%rax
   1113e:	48 c1 e0 02          	shl    $0x2,%rax
   11142:	48 01 d0             	add    %rdx,%rax
   11145:	48 89 ca             	mov    %rcx,%rdx
   11148:	48 c1 e2 03          	shl    $0x3,%rdx
   1114c:	48 29 ca             	sub    %rcx,%rdx
   1114f:	48 01 d0             	add    %rdx,%rax
   11152:	48 01 f0             	add    %rsi,%rax
   11155:	48 8d 14 00          	lea    (%rax,%rax,1),%rdx
   11159:	48 8d 05 e0 62 00 00 	lea    0x62e0(%rip),%rax        # 17440 <g_532>
   11160:	0f b7 04 02          	movzwl (%rdx,%rax,1),%eax
   11164:	0f b7 c0             	movzwl %ax,%eax
   11167:	8b 55 fc             	mov    -0x4(%rbp),%edx
   1116a:	48 8d 35 8f 33 00 00 	lea    0x338f(%rip),%rsi        # 14500 <g_3574+0x1470>
   11171:	48 89 c7             	mov    %rax,%rdi
   11174:	e8 7a 85 ff ff       	callq  96f3 <transparent_crc>
   11179:	83 7d fc 00          	cmpl   $0x0,-0x4(%rbp)
   1117d:	74 1c                	je     1119b <main+0x868>
   1117f:	8b 4d f8             	mov    -0x8(%rbp),%ecx
   11182:	8b 55 f4             	mov    -0xc(%rbp),%edx
   11185:	8b 45 f0             	mov    -0x10(%rbp),%eax
   11188:	89 c6                	mov    %eax,%esi
   1118a:	48 8d 3d 1c 32 00 00 	lea    0x321c(%rip),%rdi        # 143ad <g_3574+0x131d>
   11191:	b8 00 00 00 00       	mov    $0x0,%eax
   11196:	e8 e5 6e ff ff       	callq  8080 <printf@plt>
   1119b:	83 45 f8 01          	addl   $0x1,-0x8(%rbp)
   1119f:	83 7d f8 06          	cmpl   $0x6,-0x8(%rbp)
   111a3:	0f 8e 79 ff ff ff    	jle    11122 <main+0x7ef>
   111a9:	83 45 f4 01          	addl   $0x1,-0xc(%rbp)
   111ad:	83 7d f4 02          	cmpl   $0x2,-0xc(%rbp)
   111b1:	0f 8e 62 ff ff ff    	jle    11119 <main+0x7e6>
   111b7:	83 45 f0 01          	addl   $0x1,-0x10(%rbp)
   111bb:	83 7d f0 00          	cmpl   $0x0,-0x10(%rbp)
   111bf:	0f 8e 48 ff ff ff    	jle    1110d <main+0x7da>
   111c5:	0f b6 05 9e 62 00 00 	movzbl 0x629e(%rip),%eax        # 1746a <g_548>
   111cc:	0f b6 c0             	movzbl %al,%eax
   111cf:	8b 55 fc             	mov    -0x4(%rbp),%edx
   111d2:	48 8d 35 36 33 00 00 	lea    0x3336(%rip),%rsi        # 1450f <g_3574+0x147f>
   111d9:	48 89 c7             	mov    %rax,%rdi
   111dc:	e8 12 85 ff ff       	callq  96f3 <transparent_crc>
   111e1:	48 8b 05 48 b3 00 00 	mov    0xb348(%rip),%rax        # 1c530 <g_601>
   111e8:	48 89 c1             	mov    %rax,%rcx
   111eb:	8b 45 fc             	mov    -0x4(%rbp),%eax
   111ee:	89 c2                	mov    %eax,%edx
   111f0:	48 8d 35 1e 33 00 00 	lea    0x331e(%rip),%rsi        # 14515 <g_3574+0x1485>
   111f7:	48 89 cf             	mov    %rcx,%rdi
   111fa:	e8 f4 84 ff ff       	callq  96f3 <transparent_crc>
   111ff:	8b 05 33 b3 00 00    	mov    0xb333(%rip),%eax        # 1c538 <g_685>
   11205:	89 c1                	mov    %eax,%ecx
   11207:	8b 45 fc             	mov    -0x4(%rbp),%eax
   1120a:	89 c2                	mov    %eax,%edx
   1120c:	48 8d 35 08 33 00 00 	lea    0x3308(%rip),%rsi        # 1451b <g_3574+0x148b>
   11213:	48 89 cf             	mov    %rcx,%rdi
   11216:	e8 d8 84 ff ff       	callq  96f3 <transparent_crc>
   1121b:	8b 05 17 b3 00 00    	mov    0xb317(%rip),%eax        # 1c538 <g_685>
   11221:	89 c1                	mov    %eax,%ecx
   11223:	8b 45 fc             	mov    -0x4(%rbp),%eax
   11226:	89 c2                	mov    %eax,%edx
   11228:	48 8d 35 f5 32 00 00 	lea    0x32f5(%rip),%rsi        # 14524 <g_3574+0x1494>
   1122f:	48 89 cf             	mov    %rcx,%rdi
   11232:	e8 bc 84 ff ff       	callq  96f3 <transparent_crc>
   11237:	8b 05 fb b2 00 00    	mov    0xb2fb(%rip),%eax        # 1c538 <g_685>
   1123d:	89 c1                	mov    %eax,%ecx
   1123f:	8b 45 fc             	mov    -0x4(%rbp),%eax
   11242:	89 c2                	mov    %eax,%edx
   11244:	48 8d 35 e2 32 00 00 	lea    0x32e2(%rip),%rsi        # 1452d <g_3574+0x149d>
   1124b:	48 89 cf             	mov    %rcx,%rdi
   1124e:	e8 a0 84 ff ff       	callq  96f3 <transparent_crc>
   11253:	0f b6 05 de b2 00 00 	movzbl 0xb2de(%rip),%eax        # 1c538 <g_685>
   1125a:	0f b6 c0             	movzbl %al,%eax
   1125d:	8b 55 fc             	mov    -0x4(%rbp),%edx
   11260:	48 8d 35 cf 32 00 00 	lea    0x32cf(%rip),%rsi        # 14536 <g_3574+0x14a6>
   11267:	48 89 c7             	mov    %rax,%rdi
   1126a:	e8 84 84 ff ff       	callq  96f3 <transparent_crc>
   1126f:	8b 05 c3 b2 00 00    	mov    0xb2c3(%rip),%eax        # 1c538 <g_685>
   11275:	48 98                	cltq   
   11277:	8b 55 fc             	mov    -0x4(%rbp),%edx
   1127a:	48 8d 35 be 32 00 00 	lea    0x32be(%rip),%rsi        # 1453f <g_3574+0x14af>
   11281:	48 89 c7             	mov    %rax,%rdi
   11284:	e8 6a 84 ff ff       	callq  96f3 <transparent_crc>
   11289:	48 8b 05 e0 61 00 00 	mov    0x61e0(%rip),%rax        # 17470 <g_727>
   11290:	48 89 c1             	mov    %rax,%rcx
   11293:	8b 45 fc             	mov    -0x4(%rbp),%eax
   11296:	89 c2                	mov    %eax,%edx
   11298:	48 8d 35 a9 32 00 00 	lea    0x32a9(%rip),%rsi        # 14548 <g_3574+0x14b8>
   1129f:	48 89 cf             	mov    %rcx,%rdi
   112a2:	e8 4c 84 ff ff       	callq  96f3 <transparent_crc>
   112a7:	b8 00 00 00 00       	mov    $0x0,%eax
   112ac:	48 0f be c0          	movsbq %al,%rax
   112b0:	8b 55 fc             	mov    -0x4(%rbp),%edx
   112b3:	48 8d 35 94 32 00 00 	lea    0x3294(%rip),%rsi        # 1454e <g_3574+0x14be>
   112ba:	48 89 c7             	mov    %rax,%rdi
   112bd:	e8 31 84 ff ff       	callq  96f3 <transparent_crc>
   112c2:	c7 45 f0 00 00 00 00 	movl   $0x0,-0x10(%rbp)
   112c9:	eb 4f                	jmp    1131a <main+0x9e7>
   112cb:	8b 45 f0             	mov    -0x10(%rbp),%eax
   112ce:	48 98                	cltq   
   112d0:	48 8d 14 c5 00 00 00 	lea    0x0(,%rax,8),%rdx
   112d7:	00 
   112d8:	48 8d 05 a1 61 00 00 	lea    0x61a1(%rip),%rax        # 17480 <g_851>
   112df:	48 8b 04 02          	mov    (%rdx,%rax,1),%rax
   112e3:	48 89 c1             	mov    %rax,%rcx
   112e6:	8b 45 fc             	mov    -0x4(%rbp),%eax
   112e9:	89 c2                	mov    %eax,%edx
   112eb:	48 8d 35 62 32 00 00 	lea    0x3262(%rip),%rsi        # 14554 <g_3574+0x14c4>
   112f2:	48 89 cf             	mov    %rcx,%rdi
   112f5:	e8 f9 83 ff ff       	callq  96f3 <transparent_crc>
   112fa:	83 7d fc 00          	cmpl   $0x0,-0x4(%rbp)
   112fe:	74 16                	je     11316 <main+0x9e3>
   11300:	8b 45 f0             	mov    -0x10(%rbp),%eax
   11303:	89 c6                	mov    %eax,%esi
   11305:	48 8d 3d e1 30 00 00 	lea    0x30e1(%rip),%rdi        # 143ed <g_3574+0x135d>
   1130c:	b8 00 00 00 00       	mov    $0x0,%eax
   11311:	e8 6a 6d ff ff       	callq  8080 <printf@plt>
   11316:	83 45 f0 01          	addl   $0x1,-0x10(%rbp)
   1131a:	83 7d f0 03          	cmpl   $0x3,-0x10(%rbp)
   1131e:	7e ab                	jle    112cb <main+0x998>
   11320:	0f b6 05 79 61 00 00 	movzbl 0x6179(%rip),%eax        # 174a0 <g_949>
   11327:	48 0f be c0          	movsbq %al,%rax
   1132b:	8b 55 fc             	mov    -0x4(%rbp),%edx
   1132e:	48 8d 35 28 32 00 00 	lea    0x3228(%rip),%rsi        # 1455d <g_3574+0x14cd>
   11335:	48 89 c7             	mov    %rax,%rdi
   11338:	e8 b6 83 ff ff       	callq  96f3 <transparent_crc>
   1133d:	0f b6 05 64 61 00 00 	movzbl 0x6164(%rip),%eax        # 174a8 <g_969>
   11344:	48 0f be c0          	movsbq %al,%rax
   11348:	8b 55 fc             	mov    -0x4(%rbp),%edx
   1134b:	48 8d 35 14 32 00 00 	lea    0x3214(%rip),%rsi        # 14566 <g_3574+0x14d6>
   11352:	48 89 c7             	mov    %rax,%rdi
   11355:	e8 99 83 ff ff       	callq  96f3 <transparent_crc>
   1135a:	c7 45 f0 00 00 00 00 	movl   $0x0,-0x10(%rbp)
   11361:	e9 ff 00 00 00       	jmpq   11465 <main+0xb32>
   11366:	8b 45 f0             	mov    -0x10(%rbp),%eax
   11369:	48 98                	cltq   
   1136b:	48 8d 14 85 00 00 00 	lea    0x0(,%rax,4),%rdx
   11372:	00 
   11373:	48 8d 05 46 61 00 00 	lea    0x6146(%rip),%rax        # 174c0 <g_1022>
   1137a:	8b 04 02             	mov    (%rdx,%rax,1),%eax
   1137d:	89 c1                	mov    %eax,%ecx
   1137f:	8b 45 fc             	mov    -0x4(%rbp),%eax
   11382:	89 c2                	mov    %eax,%edx
   11384:	48 8d 35 e4 31 00 00 	lea    0x31e4(%rip),%rsi        # 1456f <g_3574+0x14df>
   1138b:	48 89 cf             	mov    %rcx,%rdi
   1138e:	e8 60 83 ff ff       	callq  96f3 <transparent_crc>
   11393:	8b 45 f0             	mov    -0x10(%rbp),%eax
   11396:	48 98                	cltq   
   11398:	48 8d 14 85 00 00 00 	lea    0x0(,%rax,4),%rdx
   1139f:	00 
   113a0:	48 8d 05 19 61 00 00 	lea    0x6119(%rip),%rax        # 174c0 <g_1022>
   113a7:	8b 04 02             	mov    (%rdx,%rax,1),%eax
   113aa:	89 c1                	mov    %eax,%ecx
   113ac:	8b 45 fc             	mov    -0x4(%rbp),%eax
   113af:	89 c2                	mov    %eax,%edx
   113b1:	48 8d 35 c4 31 00 00 	lea    0x31c4(%rip),%rsi        # 1457c <g_3574+0x14ec>
   113b8:	48 89 cf             	mov    %rcx,%rdi
   113bb:	e8 33 83 ff ff       	callq  96f3 <transparent_crc>
   113c0:	8b 45 f0             	mov    -0x10(%rbp),%eax
   113c3:	48 98                	cltq   
   113c5:	48 8d 14 85 00 00 00 	lea    0x0(,%rax,4),%rdx
   113cc:	00 
   113cd:	48 8d 05 ec 60 00 00 	lea    0x60ec(%rip),%rax        # 174c0 <g_1022>
   113d4:	8b 04 02             	mov    (%rdx,%rax,1),%eax
   113d7:	89 c1                	mov    %eax,%ecx
   113d9:	8b 45 fc             	mov    -0x4(%rbp),%eax
   113dc:	89 c2                	mov    %eax,%edx
   113de:	48 8d 35 a4 31 00 00 	lea    0x31a4(%rip),%rsi        # 14589 <g_3574+0x14f9>
   113e5:	48 89 cf             	mov    %rcx,%rdi
   113e8:	e8 06 83 ff ff       	callq  96f3 <transparent_crc>
   113ed:	8b 45 f0             	mov    -0x10(%rbp),%eax
   113f0:	48 98                	cltq   
   113f2:	48 8d 14 85 00 00 00 	lea    0x0(,%rax,4),%rdx
   113f9:	00 
   113fa:	48 8d 05 bf 60 00 00 	lea    0x60bf(%rip),%rax        # 174c0 <g_1022>
   11401:	0f b6 04 02          	movzbl (%rdx,%rax,1),%eax
   11405:	0f b6 c0             	movzbl %al,%eax
   11408:	8b 55 fc             	mov    -0x4(%rbp),%edx
   1140b:	48 8d 35 84 31 00 00 	lea    0x3184(%rip),%rsi        # 14596 <g_3574+0x1506>
   11412:	48 89 c7             	mov    %rax,%rdi
   11415:	e8 d9 82 ff ff       	callq  96f3 <transparent_crc>
   1141a:	8b 45 f0             	mov    -0x10(%rbp),%eax
   1141d:	48 98                	cltq   
   1141f:	48 8d 14 85 00 00 00 	lea    0x0(,%rax,4),%rdx
   11426:	00 
   11427:	48 8d 05 92 60 00 00 	lea    0x6092(%rip),%rax        # 174c0 <g_1022>
   1142e:	8b 04 02             	mov    (%rdx,%rax,1),%eax
   11431:	48 98                	cltq   
   11433:	8b 55 fc             	mov    -0x4(%rbp),%edx
   11436:	48 8d 35 66 31 00 00 	lea    0x3166(%rip),%rsi        # 145a3 <g_3574+0x1513>
   1143d:	48 89 c7             	mov    %rax,%rdi
   11440:	e8 ae 82 ff ff       	callq  96f3 <transparent_crc>
   11445:	83 7d fc 00          	cmpl   $0x0,-0x4(%rbp)
   11449:	74 16                	je     11461 <main+0xb2e>
   1144b:	8b 45 f0             	mov    -0x10(%rbp),%eax
   1144e:	89 c6                	mov    %eax,%esi
   11450:	48 8d 3d 96 2f 00 00 	lea    0x2f96(%rip),%rdi        # 143ed <g_3574+0x135d>
   11457:	b8 00 00 00 00       	mov    $0x0,%eax
   1145c:	e8 1f 6c ff ff       	callq  8080 <printf@plt>
   11461:	83 45 f0 01          	addl   $0x1,-0x10(%rbp)
   11465:	83 7d f0 08          	cmpl   $0x8,-0x10(%rbp)
   11469:	0f 8e f7 fe ff ff    	jle    11366 <main+0xa33>
   1146f:	0f b6 05 72 60 00 00 	movzbl 0x6072(%rip),%eax        # 174e8 <g_1067>
   11476:	48 0f be c0          	movsbq %al,%rax
   1147a:	8b 55 fc             	mov    -0x4(%rbp),%edx
   1147d:	48 8d 35 2c 31 00 00 	lea    0x312c(%rip),%rsi        # 145b0 <g_3574+0x1520>
   11484:	48 89 c7             	mov    %rax,%rdi
   11487:	e8 67 82 ff ff       	callq  96f3 <transparent_crc>
   1148c:	8b 05 5e 60 00 00    	mov    0x605e(%rip),%eax        # 174f0 <g_1150>
   11492:	48 98                	cltq   
   11494:	8b 55 fc             	mov    -0x4(%rbp),%edx
   11497:	48 8d 35 1c 31 00 00 	lea    0x311c(%rip),%rsi        # 145ba <g_3574+0x152a>
   1149e:	48 89 c7             	mov    %rax,%rdi
   114a1:	e8 4d 82 ff ff       	callq  96f3 <transparent_crc>
   114a6:	48 8b 05 4b 60 00 00 	mov    0x604b(%rip),%rax        # 174f8 <g_1177>
   114ad:	48 89 c1             	mov    %rax,%rcx
   114b0:	8b 45 fc             	mov    -0x4(%rbp),%eax
   114b3:	89 c2                	mov    %eax,%edx
   114b5:	48 8d 35 05 31 00 00 	lea    0x3105(%rip),%rsi        # 145c1 <g_3574+0x1531>
   114bc:	48 89 cf             	mov    %rcx,%rdi
   114bf:	e8 2f 82 ff ff       	callq  96f3 <transparent_crc>
   114c4:	0f b6 05 35 60 00 00 	movzbl 0x6035(%rip),%eax        # 17500 <g_1227>
   114cb:	48 0f be c0          	movsbq %al,%rax
   114cf:	8b 55 fc             	mov    -0x4(%rbp),%edx
   114d2:	48 8d 35 ef 30 00 00 	lea    0x30ef(%rip),%rsi        # 145c8 <g_3574+0x1538>
   114d9:	48 89 c7             	mov    %rax,%rdi
   114dc:	e8 12 82 ff ff       	callq  96f3 <transparent_crc>
   114e1:	b8 0a 25 5d 41       	mov    $0x415d250a,%eax
   114e6:	48 98                	cltq   
   114e8:	8b 55 fc             	mov    -0x4(%rbp),%edx
   114eb:	48 8d 35 e0 30 00 00 	lea    0x30e0(%rip),%rsi        # 145d2 <g_3574+0x1542>
   114f2:	48 89 c7             	mov    %rax,%rdi
   114f5:	e8 f9 81 ff ff       	callq  96f3 <transparent_crc>
   114fa:	c7 45 f0 00 00 00 00 	movl   $0x0,-0x10(%rbp)
   11501:	eb 77                	jmp    1157a <main+0xc47>
   11503:	c7 45 f4 00 00 00 00 	movl   $0x0,-0xc(%rbp)
   1150a:	eb 64                	jmp    11570 <main+0xc3d>
   1150c:	8b 45 f4             	mov    -0xc(%rbp),%eax
   1150f:	48 63 c8             	movslq %eax,%rcx
   11512:	8b 45 f0             	mov    -0x10(%rbp),%eax
   11515:	48 63 d0             	movslq %eax,%rdx
   11518:	48 89 d0             	mov    %rdx,%rax
   1151b:	48 c1 e0 02          	shl    $0x2,%rax
   1151f:	48 01 d0             	add    %rdx,%rax
   11522:	48 01 c8             	add    %rcx,%rax
   11525:	48 8d 14 85 00 00 00 	lea    0x0(,%rax,4),%rdx
   1152c:	00 
   1152d:	48 8d 05 ec 5f 00 00 	lea    0x5fec(%rip),%rax        # 17520 <g_1242>
   11534:	8b 04 02             	mov    (%rdx,%rax,1),%eax
   11537:	89 c1                	mov    %eax,%ecx
   11539:	8b 45 fc             	mov    -0x4(%rbp),%eax
   1153c:	89 c2                	mov    %eax,%edx
   1153e:	48 8d 35 94 30 00 00 	lea    0x3094(%rip),%rsi        # 145d9 <g_3574+0x1549>
   11545:	48 89 cf             	mov    %rcx,%rdi
   11548:	e8 a6 81 ff ff       	callq  96f3 <transparent_crc>
   1154d:	83 7d fc 00          	cmpl   $0x0,-0x4(%rbp)
   11551:	74 19                	je     1156c <main+0xc39>
   11553:	8b 55 f4             	mov    -0xc(%rbp),%edx
   11556:	8b 45 f0             	mov    -0x10(%rbp),%eax
   11559:	89 c6                	mov    %eax,%esi
   1155b:	48 8d 3d 14 2f 00 00 	lea    0x2f14(%rip),%rdi        # 14476 <g_3574+0x13e6>
   11562:	b8 00 00 00 00       	mov    $0x0,%eax
   11567:	e8 14 6b ff ff       	callq  8080 <printf@plt>
   1156c:	83 45 f4 01          	addl   $0x1,-0xc(%rbp)
   11570:	83 7d f4 04          	cmpl   $0x4,-0xc(%rbp)
   11574:	7e 96                	jle    1150c <main+0xbd9>
   11576:	83 45 f0 01          	addl   $0x1,-0x10(%rbp)
   1157a:	83 7d f0 07          	cmpl   $0x7,-0x10(%rbp)
   1157e:	7e 83                	jle    11503 <main+0xbd0>
   11580:	b8 b6 bc ff ff       	mov    $0xffffbcb6,%eax
   11585:	48 0f bf c0          	movswq %ax,%rax
   11589:	8b 55 fc             	mov    -0x4(%rbp),%edx
   1158c:	48 8d 35 53 30 00 00 	lea    0x3053(%rip),%rsi        # 145e6 <g_3574+0x1556>
   11593:	48 89 c7             	mov    %rax,%rdi
   11596:	e8 58 81 ff ff       	callq  96f3 <transparent_crc>
   1159b:	8b 05 1f 60 00 00    	mov    0x601f(%rip),%eax        # 175c0 <g_1325>
   115a1:	89 c1                	mov    %eax,%ecx
   115a3:	8b 45 fc             	mov    -0x4(%rbp),%eax
   115a6:	89 c2                	mov    %eax,%edx
   115a8:	48 8d 35 3e 30 00 00 	lea    0x303e(%rip),%rsi        # 145ed <g_3574+0x155d>
   115af:	48 89 cf             	mov    %rcx,%rdi
   115b2:	e8 3c 81 ff ff       	callq  96f3 <transparent_crc>
   115b7:	48 8b 05 0a 60 00 00 	mov    0x600a(%rip),%rax        # 175c8 <g_1344>
   115be:	8b 55 fc             	mov    -0x4(%rbp),%edx
   115c1:	48 8d 35 2c 30 00 00 	lea    0x302c(%rip),%rsi        # 145f4 <g_3574+0x1564>
   115c8:	48 89 c7             	mov    %rax,%rdi
   115cb:	e8 23 81 ff ff       	callq  96f3 <transparent_crc>
   115d0:	0f b6 05 f9 5f 00 00 	movzbl 0x5ff9(%rip),%eax        # 175d0 <g_1432>
   115d7:	48 0f be c0          	movsbq %al,%rax
   115db:	8b 55 fc             	mov    -0x4(%rbp),%edx
   115de:	48 8d 35 16 30 00 00 	lea    0x3016(%rip),%rsi        # 145fb <g_3574+0x156b>
   115e5:	48 89 c7             	mov    %rax,%rdi
   115e8:	e8 06 81 ff ff       	callq  96f3 <transparent_crc>
   115ed:	c7 45 f0 00 00 00 00 	movl   $0x0,-0x10(%rbp)
   115f4:	eb 4e                	jmp    11644 <main+0xd11>
   115f6:	8b 45 f0             	mov    -0x10(%rbp),%eax
   115f9:	48 98                	cltq   
   115fb:	48 8d 14 c5 00 00 00 	lea    0x0(,%rax,8),%rdx
   11602:	00 
   11603:	48 8d 05 d6 5f 00 00 	lea    0x5fd6(%rip),%rax        # 175e0 <g_1445>
   1160a:	0f b6 04 02          	movzbl (%rdx,%rax,1),%eax
   1160e:	48 0f be c0          	movsbq %al,%rax
   11612:	8b 55 fc             	mov    -0x4(%rbp),%edx
   11615:	48 8d 35 e6 2f 00 00 	lea    0x2fe6(%rip),%rsi        # 14602 <g_3574+0x1572>
   1161c:	48 89 c7             	mov    %rax,%rdi
   1161f:	e8 cf 80 ff ff       	callq  96f3 <transparent_crc>
   11624:	83 7d fc 00          	cmpl   $0x0,-0x4(%rbp)
   11628:	74 16                	je     11640 <main+0xd0d>
   1162a:	8b 45 f0             	mov    -0x10(%rbp),%eax
   1162d:	89 c6                	mov    %eax,%esi
   1162f:	48 8d 3d b7 2d 00 00 	lea    0x2db7(%rip),%rdi        # 143ed <g_3574+0x135d>
   11636:	b8 00 00 00 00       	mov    $0x0,%eax
   1163b:	e8 40 6a ff ff       	callq  8080 <printf@plt>
   11640:	83 45 f0 01          	addl   $0x1,-0x10(%rbp)
   11644:	83 7d f0 09          	cmpl   $0x9,-0x10(%rbp)
   11648:	7e ac                	jle    115f6 <main+0xcc3>
   1164a:	0f b6 05 df 5f 00 00 	movzbl 0x5fdf(%rip),%eax        # 17630 <g_1583>
   11651:	48 0f be c0          	movsbq %al,%rax
   11655:	8b 55 fc             	mov    -0x4(%rbp),%edx
   11658:	48 8d 35 b0 2f 00 00 	lea    0x2fb0(%rip),%rsi        # 1460f <g_3574+0x157f>
   1165f:	48 89 c7             	mov    %rax,%rdi
   11662:	e8 8c 80 ff ff       	callq  96f3 <transparent_crc>
   11667:	0f b6 05 ca 5f 00 00 	movzbl 0x5fca(%rip),%eax        # 17638 <g_1709>
   1166e:	48 0f be c0          	movsbq %al,%rax
   11672:	8b 55 fc             	mov    -0x4(%rbp),%edx
   11675:	48 8d 35 9d 2f 00 00 	lea    0x2f9d(%rip),%rsi        # 14619 <g_3574+0x1589>
   1167c:	48 89 c7             	mov    %rax,%rdi
   1167f:	e8 6f 80 ff ff       	callq  96f3 <transparent_crc>
   11684:	8b 05 b6 5f 00 00    	mov    0x5fb6(%rip),%eax        # 17640 <g_1721>
   1168a:	89 c1                	mov    %eax,%ecx
   1168c:	8b 45 fc             	mov    -0x4(%rbp),%eax
   1168f:	89 c2                	mov    %eax,%edx
   11691:	48 8d 35 8b 2f 00 00 	lea    0x2f8b(%rip),%rsi        # 14623 <g_3574+0x1593>
   11698:	48 89 cf             	mov    %rcx,%rdi
   1169b:	e8 53 80 ff ff       	callq  96f3 <transparent_crc>
   116a0:	8b 05 9a 5f 00 00    	mov    0x5f9a(%rip),%eax        # 17640 <g_1721>
   116a6:	89 c1                	mov    %eax,%ecx
   116a8:	8b 45 fc             	mov    -0x4(%rbp),%eax
   116ab:	89 c2                	mov    %eax,%edx
   116ad:	48 8d 35 79 2f 00 00 	lea    0x2f79(%rip),%rsi        # 1462d <g_3574+0x159d>
   116b4:	48 89 cf             	mov    %rcx,%rdi
   116b7:	e8 37 80 ff ff       	callq  96f3 <transparent_crc>
   116bc:	8b 05 7e 5f 00 00    	mov    0x5f7e(%rip),%eax        # 17640 <g_1721>
   116c2:	89 c1                	mov    %eax,%ecx
   116c4:	8b 45 fc             	mov    -0x4(%rbp),%eax
   116c7:	89 c2                	mov    %eax,%edx
   116c9:	48 8d 35 67 2f 00 00 	lea    0x2f67(%rip),%rsi        # 14637 <g_3574+0x15a7>
   116d0:	48 89 cf             	mov    %rcx,%rdi
   116d3:	e8 1b 80 ff ff       	callq  96f3 <transparent_crc>
   116d8:	0f b6 05 61 5f 00 00 	movzbl 0x5f61(%rip),%eax        # 17640 <g_1721>
   116df:	0f b6 c0             	movzbl %al,%eax
   116e2:	8b 55 fc             	mov    -0x4(%rbp),%edx
   116e5:	48 8d 35 55 2f 00 00 	lea    0x2f55(%rip),%rsi        # 14641 <g_3574+0x15b1>
   116ec:	48 89 c7             	mov    %rax,%rdi
   116ef:	e8 ff 7f ff ff       	callq  96f3 <transparent_crc>
   116f4:	8b 05 46 5f 00 00    	mov    0x5f46(%rip),%eax        # 17640 <g_1721>
   116fa:	48 98                	cltq   
   116fc:	8b 55 fc             	mov    -0x4(%rbp),%edx
   116ff:	48 8d 35 45 2f 00 00 	lea    0x2f45(%rip),%rsi        # 1464b <g_3574+0x15bb>
   11706:	48 89 c7             	mov    %rax,%rdi
   11709:	e8 e5 7f ff ff       	callq  96f3 <transparent_crc>
   1170e:	0f b6 05 33 5f 00 00 	movzbl 0x5f33(%rip),%eax        # 17648 <g_1769>
   11715:	48 0f be c0          	movsbq %al,%rax
   11719:	8b 55 fc             	mov    -0x4(%rbp),%edx
   1171c:	48 8d 35 32 2f 00 00 	lea    0x2f32(%rip),%rsi        # 14655 <g_3574+0x15c5>
   11723:	48 89 c7             	mov    %rax,%rdi
   11726:	e8 c8 7f ff ff       	callq  96f3 <transparent_crc>
   1172b:	b8 b8 07 3a 60       	mov    $0x603a07b8,%eax
   11730:	89 c1                	mov    %eax,%ecx
   11732:	8b 45 fc             	mov    -0x4(%rbp),%eax
   11735:	89 c2                	mov    %eax,%edx
   11737:	48 8d 35 21 2f 00 00 	lea    0x2f21(%rip),%rsi        # 1465f <g_3574+0x15cf>
   1173e:	48 89 cf             	mov    %rcx,%rdi
   11741:	e8 ad 7f ff ff       	callq  96f3 <transparent_crc>
   11746:	b8 f0 ff ff ff       	mov    $0xfffffff0,%eax
   1174b:	48 0f be c0          	movsbq %al,%rax
   1174f:	8b 55 fc             	mov    -0x4(%rbp),%edx
   11752:	48 8d 35 0d 2f 00 00 	lea    0x2f0d(%rip),%rsi        # 14666 <g_3574+0x15d6>
   11759:	48 89 c7             	mov    %rax,%rdi
   1175c:	e8 92 7f ff ff       	callq  96f3 <transparent_crc>
   11761:	c7 45 f0 00 00 00 00 	movl   $0x0,-0x10(%rbp)
   11768:	eb 6c                	jmp    117d6 <main+0xea3>
   1176a:	c7 45 f4 00 00 00 00 	movl   $0x0,-0xc(%rbp)
   11771:	eb 59                	jmp    117cc <main+0xe99>
   11773:	8b 45 f4             	mov    -0xc(%rbp),%eax
   11776:	48 98                	cltq   
   11778:	8b 55 f0             	mov    -0x10(%rbp),%edx
   1177b:	48 63 d2             	movslq %edx,%rdx
   1177e:	48 c1 e2 03          	shl    $0x3,%rdx
   11782:	48 01 d0             	add    %rdx,%rax
   11785:	48 8d 14 00          	lea    (%rax,%rax,1),%rdx
   11789:	48 8d 05 d0 5e 00 00 	lea    0x5ed0(%rip),%rax        # 17660 <g_1941>
   11790:	0f b7 04 02          	movzwl (%rdx,%rax,1),%eax
   11794:	0f b7 c0             	movzwl %ax,%eax
   11797:	8b 55 fc             	mov    -0x4(%rbp),%edx
   1179a:	48 8d 35 cf 2e 00 00 	lea    0x2ecf(%rip),%rsi        # 14670 <g_3574+0x15e0>
   117a1:	48 89 c7             	mov    %rax,%rdi
   117a4:	e8 4a 7f ff ff       	callq  96f3 <transparent_crc>
   117a9:	83 7d fc 00          	cmpl   $0x0,-0x4(%rbp)
   117ad:	74 19                	je     117c8 <main+0xe95>
   117af:	8b 55 f4             	mov    -0xc(%rbp),%edx
   117b2:	8b 45 f0             	mov    -0x10(%rbp),%eax
   117b5:	89 c6                	mov    %eax,%esi
   117b7:	48 8d 3d b8 2c 00 00 	lea    0x2cb8(%rip),%rdi        # 14476 <g_3574+0x13e6>
   117be:	b8 00 00 00 00       	mov    $0x0,%eax
   117c3:	e8 b8 68 ff ff       	callq  8080 <printf@plt>
   117c8:	83 45 f4 01          	addl   $0x1,-0xc(%rbp)
   117cc:	83 7d f4 07          	cmpl   $0x7,-0xc(%rbp)
   117d0:	7e a1                	jle    11773 <main+0xe40>
   117d2:	83 45 f0 01          	addl   $0x1,-0x10(%rbp)
   117d6:	83 7d f0 05          	cmpl   $0x5,-0x10(%rbp)
   117da:	7e 8e                	jle    1176a <main+0xe37>
   117dc:	8b 05 de 5e 00 00    	mov    0x5ede(%rip),%eax        # 176c0 <g_1992>
   117e2:	89 c1                	mov    %eax,%ecx
   117e4:	8b 45 fc             	mov    -0x4(%rbp),%eax
   117e7:	89 c2                	mov    %eax,%edx
   117e9:	48 8d 35 8d 2e 00 00 	lea    0x2e8d(%rip),%rsi        # 1467d <g_3574+0x15ed>
   117f0:	48 89 cf             	mov    %rcx,%rdi
   117f3:	e8 fb 7e ff ff       	callq  96f3 <transparent_crc>
   117f8:	8b 05 c2 5e 00 00    	mov    0x5ec2(%rip),%eax        # 176c0 <g_1992>
   117fe:	89 c1                	mov    %eax,%ecx
   11800:	8b 45 fc             	mov    -0x4(%rbp),%eax
   11803:	89 c2                	mov    %eax,%edx
   11805:	48 8d 35 7b 2e 00 00 	lea    0x2e7b(%rip),%rsi        # 14687 <g_3574+0x15f7>
   1180c:	48 89 cf             	mov    %rcx,%rdi
   1180f:	e8 df 7e ff ff       	callq  96f3 <transparent_crc>
   11814:	8b 05 a6 5e 00 00    	mov    0x5ea6(%rip),%eax        # 176c0 <g_1992>
   1181a:	89 c1                	mov    %eax,%ecx
   1181c:	8b 45 fc             	mov    -0x4(%rbp),%eax
   1181f:	89 c2                	mov    %eax,%edx
   11821:	48 8d 35 69 2e 00 00 	lea    0x2e69(%rip),%rsi        # 14691 <g_3574+0x1601>
   11828:	48 89 cf             	mov    %rcx,%rdi
   1182b:	e8 c3 7e ff ff       	callq  96f3 <transparent_crc>
   11830:	0f b6 05 89 5e 00 00 	movzbl 0x5e89(%rip),%eax        # 176c0 <g_1992>
   11837:	0f b6 c0             	movzbl %al,%eax
   1183a:	8b 55 fc             	mov    -0x4(%rbp),%edx
   1183d:	48 8d 35 57 2e 00 00 	lea    0x2e57(%rip),%rsi        # 1469b <g_3574+0x160b>
   11844:	48 89 c7             	mov    %rax,%rdi
   11847:	e8 a7 7e ff ff       	callq  96f3 <transparent_crc>
   1184c:	8b 05 6e 5e 00 00    	mov    0x5e6e(%rip),%eax        # 176c0 <g_1992>
   11852:	48 98                	cltq   
   11854:	8b 55 fc             	mov    -0x4(%rbp),%edx
   11857:	48 8d 35 47 2e 00 00 	lea    0x2e47(%rip),%rsi        # 146a5 <g_3574+0x1615>
   1185e:	48 89 c7             	mov    %rax,%rdi
   11861:	e8 8d 7e ff ff       	callq  96f3 <transparent_crc>
   11866:	8b 05 24 ad 00 00    	mov    0xad24(%rip),%eax        # 1c590 <g_2076>
   1186c:	89 c1                	mov    %eax,%ecx
   1186e:	8b 45 fc             	mov    -0x4(%rbp),%eax
   11871:	89 c2                	mov    %eax,%edx
   11873:	48 8d 35 35 2e 00 00 	lea    0x2e35(%rip),%rsi        # 146af <g_3574+0x161f>
   1187a:	48 89 cf             	mov    %rcx,%rdi
   1187d:	e8 71 7e ff ff       	callq  96f3 <transparent_crc>
   11882:	8b 05 08 ad 00 00    	mov    0xad08(%rip),%eax        # 1c590 <g_2076>
   11888:	89 c1                	mov    %eax,%ecx
   1188a:	8b 45 fc             	mov    -0x4(%rbp),%eax
   1188d:	89 c2                	mov    %eax,%edx
   1188f:	48 8d 35 23 2e 00 00 	lea    0x2e23(%rip),%rsi        # 146b9 <g_3574+0x1629>
   11896:	48 89 cf             	mov    %rcx,%rdi
   11899:	e8 55 7e ff ff       	callq  96f3 <transparent_crc>
   1189e:	8b 05 ec ac 00 00    	mov    0xacec(%rip),%eax        # 1c590 <g_2076>
   118a4:	89 c1                	mov    %eax,%ecx
   118a6:	8b 45 fc             	mov    -0x4(%rbp),%eax
   118a9:	89 c2                	mov    %eax,%edx
   118ab:	48 8d 35 11 2e 00 00 	lea    0x2e11(%rip),%rsi        # 146c3 <g_3574+0x1633>
   118b2:	48 89 cf             	mov    %rcx,%rdi
   118b5:	e8 39 7e ff ff       	callq  96f3 <transparent_crc>
   118ba:	0f b6 05 cf ac 00 00 	movzbl 0xaccf(%rip),%eax        # 1c590 <g_2076>
   118c1:	0f b6 c0             	movzbl %al,%eax
   118c4:	8b 55 fc             	mov    -0x4(%rbp),%edx
   118c7:	48 8d 35 ff 2d 00 00 	lea    0x2dff(%rip),%rsi        # 146cd <g_3574+0x163d>
   118ce:	48 89 c7             	mov    %rax,%rdi
   118d1:	e8 1d 7e ff ff       	callq  96f3 <transparent_crc>
   118d6:	8b 05 b4 ac 00 00    	mov    0xacb4(%rip),%eax        # 1c590 <g_2076>
   118dc:	48 98                	cltq   
   118de:	8b 55 fc             	mov    -0x4(%rbp),%edx
   118e1:	48 8d 35 ef 2d 00 00 	lea    0x2def(%rip),%rsi        # 146d7 <g_3574+0x1647>
   118e8:	48 89 c7             	mov    %rax,%rdi
   118eb:	e8 03 7e ff ff       	callq  96f3 <transparent_crc>
   118f0:	c7 45 f0 00 00 00 00 	movl   $0x0,-0x10(%rbp)
   118f7:	e9 c5 01 00 00       	jmpq   11ac1 <main+0x118e>
   118fc:	c7 45 f4 00 00 00 00 	movl   $0x0,-0xc(%rbp)
   11903:	e9 ab 01 00 00       	jmpq   11ab3 <main+0x1180>
   11908:	c7 45 f8 00 00 00 00 	movl   $0x0,-0x8(%rbp)
   1190f:	e9 91 01 00 00       	jmpq   11aa5 <main+0x1172>
   11914:	8b 45 f8             	mov    -0x8(%rbp),%eax
   11917:	48 63 c8             	movslq %eax,%rcx
   1191a:	8b 45 f0             	mov    -0x10(%rbp),%eax
   1191d:	48 63 d0             	movslq %eax,%rdx
   11920:	8b 45 f4             	mov    -0xc(%rbp),%eax
   11923:	48 98                	cltq   
   11925:	48 01 c2             	add    %rax,%rdx
   11928:	48 89 d0             	mov    %rdx,%rax
   1192b:	48 c1 e0 03          	shl    $0x3,%rax
   1192f:	48 29 d0             	sub    %rdx,%rax
   11932:	48 01 c8             	add    %rcx,%rax
   11935:	48 8d 14 85 00 00 00 	lea    0x0(,%rax,4),%rdx
   1193c:	00 
   1193d:	48 8d 05 9c 5d 00 00 	lea    0x5d9c(%rip),%rax        # 176e0 <g_2121>
   11944:	8b 04 02             	mov    (%rdx,%rax,1),%eax
   11947:	89 c1                	mov    %eax,%ecx
   11949:	8b 45 fc             	mov    -0x4(%rbp),%eax
   1194c:	89 c2                	mov    %eax,%edx
   1194e:	48 8d 35 8c 2d 00 00 	lea    0x2d8c(%rip),%rsi        # 146e1 <g_3574+0x1651>
   11955:	48 89 cf             	mov    %rcx,%rdi
   11958:	e8 96 7d ff ff       	callq  96f3 <transparent_crc>
   1195d:	8b 45 f8             	mov    -0x8(%rbp),%eax
   11960:	48 63 c8             	movslq %eax,%rcx
   11963:	8b 45 f0             	mov    -0x10(%rbp),%eax
   11966:	48 63 d0             	movslq %eax,%rdx
   11969:	8b 45 f4             	mov    -0xc(%rbp),%eax
   1196c:	48 98                	cltq   
   1196e:	48 01 c2             	add    %rax,%rdx
   11971:	48 89 d0             	mov    %rdx,%rax
   11974:	48 c1 e0 03          	shl    $0x3,%rax
   11978:	48 29 d0             	sub    %rdx,%rax
   1197b:	48 01 c8             	add    %rcx,%rax
   1197e:	48 8d 14 85 00 00 00 	lea    0x0(,%rax,4),%rdx
   11985:	00 
   11986:	48 8d 05 53 5d 00 00 	lea    0x5d53(%rip),%rax        # 176e0 <g_2121>
   1198d:	8b 04 02             	mov    (%rdx,%rax,1),%eax
   11990:	89 c1                	mov    %eax,%ecx
   11992:	8b 45 fc             	mov    -0x4(%rbp),%eax
   11995:	89 c2                	mov    %eax,%edx
   11997:	48 8d 35 56 2d 00 00 	lea    0x2d56(%rip),%rsi        # 146f4 <g_3574+0x1664>
   1199e:	48 89 cf             	mov    %rcx,%rdi
   119a1:	e8 4d 7d ff ff       	callq  96f3 <transparent_crc>
   119a6:	8b 45 f8             	mov    -0x8(%rbp),%eax
   119a9:	48 63 c8             	movslq %eax,%rcx
   119ac:	8b 45 f0             	mov    -0x10(%rbp),%eax
   119af:	48 63 d0             	movslq %eax,%rdx
   119b2:	8b 45 f4             	mov    -0xc(%rbp),%eax
   119b5:	48 98                	cltq   
   119b7:	48 01 c2             	add    %rax,%rdx
   119ba:	48 89 d0             	mov    %rdx,%rax
   119bd:	48 c1 e0 03          	shl    $0x3,%rax
   119c1:	48 29 d0             	sub    %rdx,%rax
   119c4:	48 01 c8             	add    %rcx,%rax
   119c7:	48 8d 14 85 00 00 00 	lea    0x0(,%rax,4),%rdx
   119ce:	00 
   119cf:	48 8d 05 0a 5d 00 00 	lea    0x5d0a(%rip),%rax        # 176e0 <g_2121>
   119d6:	8b 04 02             	mov    (%rdx,%rax,1),%eax
   119d9:	89 c1                	mov    %eax,%ecx
   119db:	8b 45 fc             	mov    -0x4(%rbp),%eax
   119de:	89 c2                	mov    %eax,%edx
   119e0:	48 8d 35 20 2d 00 00 	lea    0x2d20(%rip),%rsi        # 14707 <g_3574+0x1677>
   119e7:	48 89 cf             	mov    %rcx,%rdi
   119ea:	e8 04 7d ff ff       	callq  96f3 <transparent_crc>
   119ef:	8b 45 f8             	mov    -0x8(%rbp),%eax
   119f2:	48 63 c8             	movslq %eax,%rcx
   119f5:	8b 45 f0             	mov    -0x10(%rbp),%eax
   119f8:	48 63 d0             	movslq %eax,%rdx
   119fb:	8b 45 f4             	mov    -0xc(%rbp),%eax
   119fe:	48 98                	cltq   
   11a00:	48 01 c2             	add    %rax,%rdx
   11a03:	48 89 d0             	mov    %rdx,%rax
   11a06:	48 c1 e0 03          	shl    $0x3,%rax
   11a0a:	48 29 d0             	sub    %rdx,%rax
   11a0d:	48 01 c8             	add    %rcx,%rax
   11a10:	48 8d 14 85 00 00 00 	lea    0x0(,%rax,4),%rdx
   11a17:	00 
   11a18:	48 8d 05 c1 5c 00 00 	lea    0x5cc1(%rip),%rax        # 176e0 <g_2121>
   11a1f:	0f b6 04 02          	movzbl (%rdx,%rax,1),%eax
   11a23:	0f b6 c0             	movzbl %al,%eax
   11a26:	8b 55 fc             	mov    -0x4(%rbp),%edx
   11a29:	48 8d 35 ea 2c 00 00 	lea    0x2cea(%rip),%rsi        # 1471a <g_3574+0x168a>
   11a30:	48 89 c7             	mov    %rax,%rdi
   11a33:	e8 bb 7c ff ff       	callq  96f3 <transparent_crc>
   11a38:	8b 45 f8             	mov    -0x8(%rbp),%eax
   11a3b:	48 63 c8             	movslq %eax,%rcx
   11a3e:	8b 45 f0             	mov    -0x10(%rbp),%eax
   11a41:	48 63 d0             	movslq %eax,%rdx
   11a44:	8b 45 f4             	mov    -0xc(%rbp),%eax
   11a47:	48 98                	cltq   
   11a49:	48 01 c2             	add    %rax,%rdx
   11a4c:	48 89 d0             	mov    %rdx,%rax
   11a4f:	48 c1 e0 03          	shl    $0x3,%rax
   11a53:	48 29 d0             	sub    %rdx,%rax
   11a56:	48 01 c8             	add    %rcx,%rax
   11a59:	48 8d 14 85 00 00 00 	lea    0x0(,%rax,4),%rdx
   11a60:	00 
   11a61:	48 8d 05 78 5c 00 00 	lea    0x5c78(%rip),%rax        # 176e0 <g_2121>
   11a68:	8b 04 02             	mov    (%rdx,%rax,1),%eax
   11a6b:	48 98                	cltq   
   11a6d:	8b 55 fc             	mov    -0x4(%rbp),%edx
   11a70:	48 8d 35 b6 2c 00 00 	lea    0x2cb6(%rip),%rsi        # 1472d <g_3574+0x169d>
   11a77:	48 89 c7             	mov    %rax,%rdi
   11a7a:	e8 74 7c ff ff       	callq  96f3 <transparent_crc>
   11a7f:	83 7d fc 00          	cmpl   $0x0,-0x4(%rbp)
   11a83:	74 1c                	je     11aa1 <main+0x116e>
   11a85:	8b 4d f8             	mov    -0x8(%rbp),%ecx
   11a88:	8b 55 f4             	mov    -0xc(%rbp),%edx
   11a8b:	8b 45 f0             	mov    -0x10(%rbp),%eax
   11a8e:	89 c6                	mov    %eax,%esi
   11a90:	48 8d 3d 16 29 00 00 	lea    0x2916(%rip),%rdi        # 143ad <g_3574+0x131d>
   11a97:	b8 00 00 00 00       	mov    $0x0,%eax
   11a9c:	e8 df 65 ff ff       	callq  8080 <printf@plt>
   11aa1:	83 45 f8 01          	addl   $0x1,-0x8(%rbp)
   11aa5:	83 7d f8 06          	cmpl   $0x6,-0x8(%rbp)
   11aa9:	0f 8e 65 fe ff ff    	jle    11914 <main+0xfe1>
   11aaf:	83 45 f4 01          	addl   $0x1,-0xc(%rbp)
   11ab3:	83 7d f4 00          	cmpl   $0x0,-0xc(%rbp)
   11ab7:	0f 8e 4b fe ff ff    	jle    11908 <main+0xfd5>
   11abd:	83 45 f0 01          	addl   $0x1,-0x10(%rbp)
   11ac1:	83 7d f0 04          	cmpl   $0x4,-0x10(%rbp)
   11ac5:	0f 8e 31 fe ff ff    	jle    118fc <main+0xfc9>
   11acb:	48 8b 05 9e 5c 00 00 	mov    0x5c9e(%rip),%rax        # 17770 <g_2159>
   11ad2:	48 89 c1             	mov    %rax,%rcx
   11ad5:	8b 45 fc             	mov    -0x4(%rbp),%eax
   11ad8:	89 c2                	mov    %eax,%edx
   11ada:	48 8d 35 5f 2c 00 00 	lea    0x2c5f(%rip),%rsi        # 14740 <g_3574+0x16b0>
   11ae1:	48 89 cf             	mov    %rcx,%rdi
   11ae4:	e8 0a 7c ff ff       	callq  96f3 <transparent_crc>
   11ae9:	8b 05 89 5c 00 00    	mov    0x5c89(%rip),%eax        # 17778 <g_2194>
   11aef:	89 c1                	mov    %eax,%ecx
   11af1:	8b 45 fc             	mov    -0x4(%rbp),%eax
   11af4:	89 c2                	mov    %eax,%edx
   11af6:	48 8d 35 4a 2c 00 00 	lea    0x2c4a(%rip),%rsi        # 14747 <g_3574+0x16b7>
   11afd:	48 89 cf             	mov    %rcx,%rdi
   11b00:	e8 ee 7b ff ff       	callq  96f3 <transparent_crc>
   11b05:	8b 05 6d 5c 00 00    	mov    0x5c6d(%rip),%eax        # 17778 <g_2194>
   11b0b:	89 c1                	mov    %eax,%ecx
   11b0d:	8b 45 fc             	mov    -0x4(%rbp),%eax
   11b10:	89 c2                	mov    %eax,%edx
   11b12:	48 8d 35 38 2c 00 00 	lea    0x2c38(%rip),%rsi        # 14751 <g_3574+0x16c1>
   11b19:	48 89 cf             	mov    %rcx,%rdi
   11b1c:	e8 d2 7b ff ff       	callq  96f3 <transparent_crc>
   11b21:	8b 05 51 5c 00 00    	mov    0x5c51(%rip),%eax        # 17778 <g_2194>
   11b27:	89 c1                	mov    %eax,%ecx
   11b29:	8b 45 fc             	mov    -0x4(%rbp),%eax
   11b2c:	89 c2                	mov    %eax,%edx
   11b2e:	48 8d 35 26 2c 00 00 	lea    0x2c26(%rip),%rsi        # 1475b <g_3574+0x16cb>
   11b35:	48 89 cf             	mov    %rcx,%rdi
   11b38:	e8 b6 7b ff ff       	callq  96f3 <transparent_crc>
   11b3d:	0f b6 05 34 5c 00 00 	movzbl 0x5c34(%rip),%eax        # 17778 <g_2194>
   11b44:	0f b6 c0             	movzbl %al,%eax
   11b47:	8b 55 fc             	mov    -0x4(%rbp),%edx
   11b4a:	48 8d 35 14 2c 00 00 	lea    0x2c14(%rip),%rsi        # 14765 <g_3574+0x16d5>
   11b51:	48 89 c7             	mov    %rax,%rdi
   11b54:	e8 9a 7b ff ff       	callq  96f3 <transparent_crc>
   11b59:	8b 05 19 5c 00 00    	mov    0x5c19(%rip),%eax        # 17778 <g_2194>
   11b5f:	48 98                	cltq   
   11b61:	8b 55 fc             	mov    -0x4(%rbp),%edx
   11b64:	48 8d 35 04 2c 00 00 	lea    0x2c04(%rip),%rsi        # 1476f <g_3574+0x16df>
   11b6b:	48 89 c7             	mov    %rax,%rdi
   11b6e:	e8 80 7b ff ff       	callq  96f3 <transparent_crc>
   11b73:	0f b6 05 06 5c 00 00 	movzbl 0x5c06(%rip),%eax        # 17780 <g_2200>
   11b7a:	48 0f be c0          	movsbq %al,%rax
   11b7e:	8b 55 fc             	mov    -0x4(%rbp),%edx
   11b81:	48 8d 35 f1 2b 00 00 	lea    0x2bf1(%rip),%rsi        # 14779 <g_3574+0x16e9>
   11b88:	48 89 c7             	mov    %rax,%rdi
   11b8b:	e8 63 7b ff ff       	callq  96f3 <transparent_crc>
   11b90:	c7 45 f0 00 00 00 00 	movl   $0x0,-0x10(%rbp)
   11b97:	eb 46                	jmp    11bdf <main+0x12ac>
   11b99:	8b 45 f0             	mov    -0x10(%rbp),%eax
   11b9c:	48 98                	cltq   
   11b9e:	48 8d 15 e3 5b 00 00 	lea    0x5be3(%rip),%rdx        # 17788 <g_2212>
   11ba5:	0f b6 04 10          	movzbl (%rax,%rdx,1),%eax
   11ba9:	48 0f be c0          	movsbq %al,%rax
   11bad:	8b 55 fc             	mov    -0x4(%rbp),%edx
   11bb0:	48 8d 35 cc 2b 00 00 	lea    0x2bcc(%rip),%rsi        # 14783 <g_3574+0x16f3>
   11bb7:	48 89 c7             	mov    %rax,%rdi
   11bba:	e8 34 7b ff ff       	callq  96f3 <transparent_crc>
   11bbf:	83 7d fc 00          	cmpl   $0x0,-0x4(%rbp)
   11bc3:	74 16                	je     11bdb <main+0x12a8>
   11bc5:	8b 45 f0             	mov    -0x10(%rbp),%eax
   11bc8:	89 c6                	mov    %eax,%esi
   11bca:	48 8d 3d 1c 28 00 00 	lea    0x281c(%rip),%rdi        # 143ed <g_3574+0x135d>
   11bd1:	b8 00 00 00 00       	mov    $0x0,%eax
   11bd6:	e8 a5 64 ff ff       	callq  8080 <printf@plt>
   11bdb:	83 45 f0 01          	addl   $0x1,-0x10(%rbp)
   11bdf:	83 7d f0 07          	cmpl   $0x7,-0x10(%rbp)
   11be3:	7e b4                	jle    11b99 <main+0x1266>
   11be5:	b8 fe ff ff ff       	mov    $0xfffffffe,%eax
   11bea:	48 98                	cltq   
   11bec:	8b 55 fc             	mov    -0x4(%rbp),%edx
   11bef:	48 8d 35 97 2b 00 00 	lea    0x2b97(%rip),%rsi        # 1478d <g_3574+0x16fd>
   11bf6:	48 89 c7             	mov    %rax,%rdi
   11bf9:	e8 f5 7a ff ff       	callq  96f3 <transparent_crc>
   11bfe:	b8 08 00 00 00       	mov    $0x8,%eax
   11c03:	48 98                	cltq   
   11c05:	8b 55 fc             	mov    -0x4(%rbp),%edx
   11c08:	48 8d 35 85 2b 00 00 	lea    0x2b85(%rip),%rsi        # 14794 <g_3574+0x1704>
   11c0f:	48 89 c7             	mov    %rax,%rdi
   11c12:	e8 dc 7a ff ff       	callq  96f3 <transparent_crc>
   11c17:	c7 45 f0 00 00 00 00 	movl   $0x0,-0x10(%rbp)
   11c1e:	e9 47 02 00 00       	jmpq   11e6a <main+0x1537>
   11c23:	c7 45 f4 00 00 00 00 	movl   $0x0,-0xc(%rbp)
   11c2a:	e9 2d 02 00 00       	jmpq   11e5c <main+0x1529>
   11c2f:	c7 45 f8 00 00 00 00 	movl   $0x0,-0x8(%rbp)
   11c36:	e9 13 02 00 00       	jmpq   11e4e <main+0x151b>
   11c3b:	8b 45 f8             	mov    -0x8(%rbp),%eax
   11c3e:	48 63 f0             	movslq %eax,%rsi
   11c41:	8b 45 f0             	mov    -0x10(%rbp),%eax
   11c44:	48 63 d0             	movslq %eax,%rdx
   11c47:	8b 45 f4             	mov    -0xc(%rbp),%eax
   11c4a:	48 63 c8             	movslq %eax,%rcx
   11c4d:	48 89 d0             	mov    %rdx,%rax
   11c50:	48 01 c0             	add    %rax,%rax
   11c53:	48 01 d0             	add    %rdx,%rax
   11c56:	48 8d 14 c5 00 00 00 	lea    0x0(,%rax,8),%rdx
   11c5d:	00 
   11c5e:	48 01 d0             	add    %rdx,%rax
   11c61:	48 01 c0             	add    %rax,%rax
   11c64:	48 89 ca             	mov    %rcx,%rdx
   11c67:	48 01 d2             	add    %rdx,%rdx
   11c6a:	48 01 ca             	add    %rcx,%rdx
   11c6d:	48 01 d2             	add    %rdx,%rdx
   11c70:	48 01 d0             	add    %rdx,%rax
   11c73:	48 01 f0             	add    %rsi,%rax
   11c76:	48 8d 14 85 00 00 00 	lea    0x0(,%rax,4),%rdx
   11c7d:	00 
   11c7e:	48 8d 05 1b 5b 00 00 	lea    0x5b1b(%rip),%rax        # 177a0 <g_2295>
   11c85:	8b 04 02             	mov    (%rdx,%rax,1),%eax
   11c88:	89 c1                	mov    %eax,%ecx
   11c8a:	8b 45 fc             	mov    -0x4(%rbp),%eax
   11c8d:	89 c2                	mov    %eax,%edx
   11c8f:	48 8d 35 05 2b 00 00 	lea    0x2b05(%rip),%rsi        # 1479b <g_3574+0x170b>
   11c96:	48 89 cf             	mov    %rcx,%rdi
   11c99:	e8 55 7a ff ff       	callq  96f3 <transparent_crc>
   11c9e:	8b 45 f8             	mov    -0x8(%rbp),%eax
   11ca1:	48 63 f0             	movslq %eax,%rsi
   11ca4:	8b 45 f0             	mov    -0x10(%rbp),%eax
   11ca7:	48 63 d0             	movslq %eax,%rdx
   11caa:	8b 45 f4             	mov    -0xc(%rbp),%eax
   11cad:	48 63 c8             	movslq %eax,%rcx
   11cb0:	48 89 d0             	mov    %rdx,%rax
   11cb3:	48 01 c0             	add    %rax,%rax
   11cb6:	48 01 d0             	add    %rdx,%rax
   11cb9:	48 8d 14 c5 00 00 00 	lea    0x0(,%rax,8),%rdx
   11cc0:	00 
   11cc1:	48 01 d0             	add    %rdx,%rax
   11cc4:	48 01 c0             	add    %rax,%rax
   11cc7:	48 89 ca             	mov    %rcx,%rdx
   11cca:	48 01 d2             	add    %rdx,%rdx
   11ccd:	48 01 ca             	add    %rcx,%rdx
   11cd0:	48 01 d2             	add    %rdx,%rdx
   11cd3:	48 01 d0             	add    %rdx,%rax
   11cd6:	48 01 f0             	add    %rsi,%rax
   11cd9:	48 8d 14 85 00 00 00 	lea    0x0(,%rax,4),%rdx
   11ce0:	00 
   11ce1:	48 8d 05 b8 5a 00 00 	lea    0x5ab8(%rip),%rax        # 177a0 <g_2295>
   11ce8:	8b 04 02             	mov    (%rdx,%rax,1),%eax
   11ceb:	89 c1                	mov    %eax,%ecx
   11ced:	8b 45 fc             	mov    -0x4(%rbp),%eax
   11cf0:	89 c2                	mov    %eax,%edx
   11cf2:	48 8d 35 b5 2a 00 00 	lea    0x2ab5(%rip),%rsi        # 147ae <g_3574+0x171e>
   11cf9:	48 89 cf             	mov    %rcx,%rdi
   11cfc:	e8 f2 79 ff ff       	callq  96f3 <transparent_crc>
   11d01:	8b 45 f8             	mov    -0x8(%rbp),%eax
   11d04:	48 63 f0             	movslq %eax,%rsi
   11d07:	8b 45 f0             	mov    -0x10(%rbp),%eax
   11d0a:	48 63 d0             	movslq %eax,%rdx
   11d0d:	8b 45 f4             	mov    -0xc(%rbp),%eax
   11d10:	48 63 c8             	movslq %eax,%rcx
   11d13:	48 89 d0             	mov    %rdx,%rax
   11d16:	48 01 c0             	add    %rax,%rax
   11d19:	48 01 d0             	add    %rdx,%rax
   11d1c:	48 8d 14 c5 00 00 00 	lea    0x0(,%rax,8),%rdx
   11d23:	00 
   11d24:	48 01 d0             	add    %rdx,%rax
   11d27:	48 01 c0             	add    %rax,%rax
   11d2a:	48 89 ca             	mov    %rcx,%rdx
   11d2d:	48 01 d2             	add    %rdx,%rdx
   11d30:	48 01 ca             	add    %rcx,%rdx
   11d33:	48 01 d2             	add    %rdx,%rdx
   11d36:	48 01 d0             	add    %rdx,%rax
   11d39:	48 01 f0             	add    %rsi,%rax
   11d3c:	48 8d 14 85 00 00 00 	lea    0x0(,%rax,4),%rdx
   11d43:	00 
   11d44:	48 8d 05 55 5a 00 00 	lea    0x5a55(%rip),%rax        # 177a0 <g_2295>
   11d4b:	8b 04 02             	mov    (%rdx,%rax,1),%eax
   11d4e:	89 c1                	mov    %eax,%ecx
   11d50:	8b 45 fc             	mov    -0x4(%rbp),%eax
   11d53:	89 c2                	mov    %eax,%edx
   11d55:	48 8d 35 65 2a 00 00 	lea    0x2a65(%rip),%rsi        # 147c1 <g_3574+0x1731>
   11d5c:	48 89 cf             	mov    %rcx,%rdi
   11d5f:	e8 8f 79 ff ff       	callq  96f3 <transparent_crc>
   11d64:	8b 45 f8             	mov    -0x8(%rbp),%eax
   11d67:	48 63 f0             	movslq %eax,%rsi
   11d6a:	8b 45 f0             	mov    -0x10(%rbp),%eax
   11d6d:	48 63 d0             	movslq %eax,%rdx
   11d70:	8b 45 f4             	mov    -0xc(%rbp),%eax
   11d73:	48 63 c8             	movslq %eax,%rcx
   11d76:	48 89 d0             	mov    %rdx,%rax
   11d79:	48 01 c0             	add    %rax,%rax
   11d7c:	48 01 d0             	add    %rdx,%rax
   11d7f:	48 8d 14 c5 00 00 00 	lea    0x0(,%rax,8),%rdx
   11d86:	00 
   11d87:	48 01 d0             	add    %rdx,%rax
   11d8a:	48 01 c0             	add    %rax,%rax
   11d8d:	48 89 ca             	mov    %rcx,%rdx
   11d90:	48 01 d2             	add    %rdx,%rdx
   11d93:	48 01 ca             	add    %rcx,%rdx
   11d96:	48 01 d2             	add    %rdx,%rdx
   11d99:	48 01 d0             	add    %rdx,%rax
   11d9c:	48 01 f0             	add    %rsi,%rax
   11d9f:	48 8d 14 85 00 00 00 	lea    0x0(,%rax,4),%rdx
   11da6:	00 
   11da7:	48 8d 05 f2 59 00 00 	lea    0x59f2(%rip),%rax        # 177a0 <g_2295>
   11dae:	0f b6 04 02          	movzbl (%rdx,%rax,1),%eax
   11db2:	0f b6 c0             	movzbl %al,%eax
   11db5:	8b 55 fc             	mov    -0x4(%rbp),%edx
   11db8:	48 8d 35 15 2a 00 00 	lea    0x2a15(%rip),%rsi        # 147d4 <g_3574+0x1744>
   11dbf:	48 89 c7             	mov    %rax,%rdi
   11dc2:	e8 2c 79 ff ff       	callq  96f3 <transparent_crc>
   11dc7:	8b 45 f8             	mov    -0x8(%rbp),%eax
   11dca:	48 63 f0             	movslq %eax,%rsi
   11dcd:	8b 45 f0             	mov    -0x10(%rbp),%eax
   11dd0:	48 63 d0             	movslq %eax,%rdx
   11dd3:	8b 45 f4             	mov    -0xc(%rbp),%eax
   11dd6:	48 63 c8             	movslq %eax,%rcx
   11dd9:	48 89 d0             	mov    %rdx,%rax
   11ddc:	48 01 c0             	add    %rax,%rax
   11ddf:	48 01 d0             	add    %rdx,%rax
   11de2:	48 8d 14 c5 00 00 00 	lea    0x0(,%rax,8),%rdx
   11de9:	00 
   11dea:	48 01 d0             	add    %rdx,%rax
   11ded:	48 01 c0             	add    %rax,%rax
   11df0:	48 89 ca             	mov    %rcx,%rdx
   11df3:	48 01 d2             	add    %rdx,%rdx
   11df6:	48 01 ca             	add    %rcx,%rdx
   11df9:	48 01 d2             	add    %rdx,%rdx
   11dfc:	48 01 d0             	add    %rdx,%rax
   11dff:	48 01 f0             	add    %rsi,%rax
   11e02:	48 8d 14 85 00 00 00 	lea    0x0(,%rax,4),%rdx
   11e09:	00 
   11e0a:	48 8d 05 8f 59 00 00 	lea    0x598f(%rip),%rax        # 177a0 <g_2295>
   11e11:	8b 04 02             	mov    (%rdx,%rax,1),%eax
   11e14:	48 98                	cltq   
   11e16:	8b 55 fc             	mov    -0x4(%rbp),%edx
   11e19:	48 8d 35 c7 29 00 00 	lea    0x29c7(%rip),%rsi        # 147e7 <g_3574+0x1757>
   11e20:	48 89 c7             	mov    %rax,%rdi
   11e23:	e8 cb 78 ff ff       	callq  96f3 <transparent_crc>
   11e28:	83 7d fc 00          	cmpl   $0x0,-0x4(%rbp)
   11e2c:	74 1c                	je     11e4a <main+0x1517>
   11e2e:	8b 4d f8             	mov    -0x8(%rbp),%ecx
   11e31:	8b 55 f4             	mov    -0xc(%rbp),%edx
   11e34:	8b 45 f0             	mov    -0x10(%rbp),%eax
   11e37:	89 c6                	mov    %eax,%esi
   11e39:	48 8d 3d 6d 25 00 00 	lea    0x256d(%rip),%rdi        # 143ad <g_3574+0x131d>
   11e40:	b8 00 00 00 00       	mov    $0x0,%eax
   11e45:	e8 36 62 ff ff       	callq  8080 <printf@plt>
   11e4a:	83 45 f8 01          	addl   $0x1,-0x8(%rbp)
   11e4e:	83 7d f8 05          	cmpl   $0x5,-0x8(%rbp)
   11e52:	0f 8e e3 fd ff ff    	jle    11c3b <main+0x1308>
   11e58:	83 45 f4 01          	addl   $0x1,-0xc(%rbp)
   11e5c:	83 7d f4 08          	cmpl   $0x8,-0xc(%rbp)
   11e60:	0f 8e c9 fd ff ff    	jle    11c2f <main+0x12fc>
   11e66:	83 45 f0 01          	addl   $0x1,-0x10(%rbp)
   11e6a:	83 7d f0 02          	cmpl   $0x2,-0x10(%rbp)
   11e6e:	0f 8e af fd ff ff    	jle    11c23 <main+0x12f0>
   11e74:	8b 05 ae 5b 00 00    	mov    0x5bae(%rip),%eax        # 17a28 <g_2350>
   11e7a:	89 c1                	mov    %eax,%ecx
   11e7c:	8b 45 fc             	mov    -0x4(%rbp),%eax
   11e7f:	89 c2                	mov    %eax,%edx
   11e81:	48 8d 35 72 29 00 00 	lea    0x2972(%rip),%rsi        # 147fa <g_3574+0x176a>
   11e88:	48 89 cf             	mov    %rcx,%rdi
   11e8b:	e8 63 78 ff ff       	callq  96f3 <transparent_crc>
   11e90:	8b 05 96 5b 00 00    	mov    0x5b96(%rip),%eax        # 17a2c <g_2359>
   11e96:	89 c1                	mov    %eax,%ecx
   11e98:	8b 45 fc             	mov    -0x4(%rbp),%eax
   11e9b:	89 c2                	mov    %eax,%edx
   11e9d:	48 8d 35 5d 29 00 00 	lea    0x295d(%rip),%rsi        # 14801 <g_3574+0x1771>
   11ea4:	48 89 cf             	mov    %rcx,%rdi
   11ea7:	e8 47 78 ff ff       	callq  96f3 <transparent_crc>
   11eac:	8b 05 7a 5b 00 00    	mov    0x5b7a(%rip),%eax        # 17a2c <g_2359>
   11eb2:	89 c1                	mov    %eax,%ecx
   11eb4:	8b 45 fc             	mov    -0x4(%rbp),%eax
   11eb7:	89 c2                	mov    %eax,%edx
   11eb9:	48 8d 35 4b 29 00 00 	lea    0x294b(%rip),%rsi        # 1480b <g_3574+0x177b>
   11ec0:	48 89 cf             	mov    %rcx,%rdi
   11ec3:	e8 2b 78 ff ff       	callq  96f3 <transparent_crc>
   11ec8:	8b 05 5e 5b 00 00    	mov    0x5b5e(%rip),%eax        # 17a2c <g_2359>
   11ece:	89 c1                	mov    %eax,%ecx
   11ed0:	8b 45 fc             	mov    -0x4(%rbp),%eax
   11ed3:	89 c2                	mov    %eax,%edx
   11ed5:	48 8d 35 39 29 00 00 	lea    0x2939(%rip),%rsi        # 14815 <g_3574+0x1785>
   11edc:	48 89 cf             	mov    %rcx,%rdi
   11edf:	e8 0f 78 ff ff       	callq  96f3 <transparent_crc>
   11ee4:	0f b6 05 41 5b 00 00 	movzbl 0x5b41(%rip),%eax        # 17a2c <g_2359>
   11eeb:	0f b6 c0             	movzbl %al,%eax
   11eee:	8b 55 fc             	mov    -0x4(%rbp),%edx
   11ef1:	48 8d 35 27 29 00 00 	lea    0x2927(%rip),%rsi        # 1481f <g_3574+0x178f>
   11ef8:	48 89 c7             	mov    %rax,%rdi
   11efb:	e8 f3 77 ff ff       	callq  96f3 <transparent_crc>
   11f00:	8b 05 26 5b 00 00    	mov    0x5b26(%rip),%eax        # 17a2c <g_2359>
   11f06:	48 98                	cltq   
   11f08:	8b 55 fc             	mov    -0x4(%rbp),%edx
   11f0b:	48 8d 35 17 29 00 00 	lea    0x2917(%rip),%rsi        # 14829 <g_3574+0x1799>
   11f12:	48 89 c7             	mov    %rax,%rdi
   11f15:	e8 d9 77 ff ff       	callq  96f3 <transparent_crc>
   11f1a:	c7 45 f0 00 00 00 00 	movl   $0x0,-0x10(%rbp)
   11f21:	e9 9f 00 00 00       	jmpq   11fc5 <main+0x1692>
   11f26:	c7 45 f4 00 00 00 00 	movl   $0x0,-0xc(%rbp)
   11f2d:	e9 85 00 00 00       	jmpq   11fb7 <main+0x1684>
   11f32:	c7 45 f8 00 00 00 00 	movl   $0x0,-0x8(%rbp)
   11f39:	eb 72                	jmp    11fad <main+0x167a>
   11f3b:	8b 45 f8             	mov    -0x8(%rbp),%eax
   11f3e:	48 63 f0             	movslq %eax,%rsi
   11f41:	8b 45 f4             	mov    -0xc(%rbp),%eax
   11f44:	48 63 c8             	movslq %eax,%rcx
   11f47:	8b 45 f0             	mov    -0x10(%rbp),%eax
   11f4a:	48 63 d0             	movslq %eax,%rdx
   11f4d:	48 89 d0             	mov    %rdx,%rax
   11f50:	48 c1 e0 02          	shl    $0x2,%rax
   11f54:	48 01 d0             	add    %rdx,%rax
   11f57:	48 01 f0             	add    %rsi,%rax
   11f5a:	48 01 c8             	add    %rcx,%rax
   11f5d:	48 8d 14 c5 00 00 00 	lea    0x0(,%rax,8),%rdx
   11f64:	00 
   11f65:	48 8d 05 d4 5a 00 00 	lea    0x5ad4(%rip),%rax        # 17a40 <g_2375>
   11f6c:	48 8b 04 02          	mov    (%rdx,%rax,1),%rax
   11f70:	48 89 c1             	mov    %rax,%rcx
   11f73:	8b 45 fc             	mov    -0x4(%rbp),%eax
   11f76:	89 c2                	mov    %eax,%edx
   11f78:	48 8d 35 b4 28 00 00 	lea    0x28b4(%rip),%rsi        # 14833 <g_3574+0x17a3>
   11f7f:	48 89 cf             	mov    %rcx,%rdi
   11f82:	e8 6c 77 ff ff       	callq  96f3 <transparent_crc>
   11f87:	83 7d fc 00          	cmpl   $0x0,-0x4(%rbp)
   11f8b:	74 1c                	je     11fa9 <main+0x1676>
   11f8d:	8b 4d f8             	mov    -0x8(%rbp),%ecx
   11f90:	8b 55 f4             	mov    -0xc(%rbp),%edx
   11f93:	8b 45 f0             	mov    -0x10(%rbp),%eax
   11f96:	89 c6                	mov    %eax,%esi
   11f98:	48 8d 3d 0e 24 00 00 	lea    0x240e(%rip),%rdi        # 143ad <g_3574+0x131d>
   11f9f:	b8 00 00 00 00       	mov    $0x0,%eax
   11fa4:	e8 d7 60 ff ff       	callq  8080 <printf@plt>
   11fa9:	83 45 f8 01          	addl   $0x1,-0x8(%rbp)
   11fad:	83 7d f8 00          	cmpl   $0x0,-0x8(%rbp)
   11fb1:	7e 88                	jle    11f3b <main+0x1608>
   11fb3:	83 45 f4 01          	addl   $0x1,-0xc(%rbp)
   11fb7:	83 7d f4 04          	cmpl   $0x4,-0xc(%rbp)
   11fbb:	0f 8e 71 ff ff ff    	jle    11f32 <main+0x15ff>
   11fc1:	83 45 f0 01          	addl   $0x1,-0x10(%rbp)
   11fc5:	83 7d f0 01          	cmpl   $0x1,-0x10(%rbp)
   11fc9:	0f 8e 57 ff ff ff    	jle    11f26 <main+0x15f3>
   11fcf:	0f b6 05 ba 5a 00 00 	movzbl 0x5aba(%rip),%eax        # 17a90 <g_2382>
   11fd6:	48 0f be c0          	movsbq %al,%rax
   11fda:	8b 55 fc             	mov    -0x4(%rbp),%edx
   11fdd:	48 8d 35 5f 28 00 00 	lea    0x285f(%rip),%rsi        # 14843 <g_3574+0x17b3>
   11fe4:	48 89 c7             	mov    %rax,%rdi
   11fe7:	e8 07 77 ff ff       	callq  96f3 <transparent_crc>
   11fec:	0f b7 05 a5 5a 00 00 	movzwl 0x5aa5(%rip),%eax        # 17a98 <g_2448>
   11ff3:	0f b7 c0             	movzwl %ax,%eax
   11ff6:	8b 55 fc             	mov    -0x4(%rbp),%edx
   11ff9:	48 8d 35 4d 28 00 00 	lea    0x284d(%rip),%rsi        # 1484d <g_3574+0x17bd>
   12000:	48 89 c7             	mov    %rax,%rdi
   12003:	e8 eb 76 ff ff       	callq  96f3 <transparent_crc>
   12008:	8b 05 8e 5a 00 00    	mov    0x5a8e(%rip),%eax        # 17a9c <g_2454>
   1200e:	89 c1                	mov    %eax,%ecx
   12010:	8b 45 fc             	mov    -0x4(%rbp),%eax
   12013:	89 c2                	mov    %eax,%edx
   12015:	48 8d 35 38 28 00 00 	lea    0x2838(%rip),%rsi        # 14854 <g_3574+0x17c4>
   1201c:	48 89 cf             	mov    %rcx,%rdi
   1201f:	e8 cf 76 ff ff       	callq  96f3 <transparent_crc>
   12024:	8b 05 72 5a 00 00    	mov    0x5a72(%rip),%eax        # 17a9c <g_2454>
   1202a:	89 c1                	mov    %eax,%ecx
   1202c:	8b 45 fc             	mov    -0x4(%rbp),%eax
   1202f:	89 c2                	mov    %eax,%edx
   12031:	48 8d 35 26 28 00 00 	lea    0x2826(%rip),%rsi        # 1485e <g_3574+0x17ce>
   12038:	48 89 cf             	mov    %rcx,%rdi
   1203b:	e8 b3 76 ff ff       	callq  96f3 <transparent_crc>
   12040:	8b 05 56 5a 00 00    	mov    0x5a56(%rip),%eax        # 17a9c <g_2454>
   12046:	89 c1                	mov    %eax,%ecx
   12048:	8b 45 fc             	mov    -0x4(%rbp),%eax
   1204b:	89 c2                	mov    %eax,%edx
   1204d:	48 8d 35 14 28 00 00 	lea    0x2814(%rip),%rsi        # 14868 <g_3574+0x17d8>
   12054:	48 89 cf             	mov    %rcx,%rdi
   12057:	e8 97 76 ff ff       	callq  96f3 <transparent_crc>
   1205c:	0f b6 05 39 5a 00 00 	movzbl 0x5a39(%rip),%eax        # 17a9c <g_2454>
   12063:	0f b6 c0             	movzbl %al,%eax
   12066:	8b 55 fc             	mov    -0x4(%rbp),%edx
   12069:	48 8d 35 02 28 00 00 	lea    0x2802(%rip),%rsi        # 14872 <g_3574+0x17e2>
   12070:	48 89 c7             	mov    %rax,%rdi
   12073:	e8 7b 76 ff ff       	callq  96f3 <transparent_crc>
   12078:	8b 05 1e 5a 00 00    	mov    0x5a1e(%rip),%eax        # 17a9c <g_2454>
   1207e:	48 98                	cltq   
   12080:	8b 55 fc             	mov    -0x4(%rbp),%edx
   12083:	48 8d 35 f2 27 00 00 	lea    0x27f2(%rip),%rsi        # 1487c <g_3574+0x17ec>
   1208a:	48 89 c7             	mov    %rax,%rdi
   1208d:	e8 61 76 ff ff       	callq  96f3 <transparent_crc>
   12092:	0f b6 05 07 5a 00 00 	movzbl 0x5a07(%rip),%eax        # 17aa0 <g_2535>
   12099:	48 0f be c0          	movsbq %al,%rax
   1209d:	8b 55 fc             	mov    -0x4(%rbp),%edx
   120a0:	48 8d 35 df 27 00 00 	lea    0x27df(%rip),%rsi        # 14886 <g_3574+0x17f6>
   120a7:	48 89 c7             	mov    %rax,%rdi
   120aa:	e8 44 76 ff ff       	callq  96f3 <transparent_crc>
   120af:	8b 05 f3 59 00 00    	mov    0x59f3(%rip),%eax        # 17aa8 <g_2536>
   120b5:	89 c1                	mov    %eax,%ecx
   120b7:	8b 45 fc             	mov    -0x4(%rbp),%eax
   120ba:	89 c2                	mov    %eax,%edx
   120bc:	48 8d 35 cd 27 00 00 	lea    0x27cd(%rip),%rsi        # 14890 <g_3574+0x1800>
   120c3:	48 89 cf             	mov    %rcx,%rdi
   120c6:	e8 28 76 ff ff       	callq  96f3 <transparent_crc>
   120cb:	8b 05 d7 59 00 00    	mov    0x59d7(%rip),%eax        # 17aa8 <g_2536>
   120d1:	89 c1                	mov    %eax,%ecx
   120d3:	8b 45 fc             	mov    -0x4(%rbp),%eax
   120d6:	89 c2                	mov    %eax,%edx
   120d8:	48 8d 35 bb 27 00 00 	lea    0x27bb(%rip),%rsi        # 1489a <g_3574+0x180a>
   120df:	48 89 cf             	mov    %rcx,%rdi
   120e2:	e8 0c 76 ff ff       	callq  96f3 <transparent_crc>
   120e7:	8b 05 bb 59 00 00    	mov    0x59bb(%rip),%eax        # 17aa8 <g_2536>
   120ed:	89 c1                	mov    %eax,%ecx
   120ef:	8b 45 fc             	mov    -0x4(%rbp),%eax
   120f2:	89 c2                	mov    %eax,%edx
   120f4:	48 8d 35 a9 27 00 00 	lea    0x27a9(%rip),%rsi        # 148a4 <g_3574+0x1814>
   120fb:	48 89 cf             	mov    %rcx,%rdi
   120fe:	e8 f0 75 ff ff       	callq  96f3 <transparent_crc>
   12103:	0f b6 05 9e 59 00 00 	movzbl 0x599e(%rip),%eax        # 17aa8 <g_2536>
   1210a:	0f b6 c0             	movzbl %al,%eax
   1210d:	8b 55 fc             	mov    -0x4(%rbp),%edx
   12110:	48 8d 35 97 27 00 00 	lea    0x2797(%rip),%rsi        # 148ae <g_3574+0x181e>
   12117:	48 89 c7             	mov    %rax,%rdi
   1211a:	e8 d4 75 ff ff       	callq  96f3 <transparent_crc>
   1211f:	8b 05 83 59 00 00    	mov    0x5983(%rip),%eax        # 17aa8 <g_2536>
   12125:	48 98                	cltq   
   12127:	8b 55 fc             	mov    -0x4(%rbp),%edx
   1212a:	48 8d 35 87 27 00 00 	lea    0x2787(%rip),%rsi        # 148b8 <g_3574+0x1828>
   12131:	48 89 c7             	mov    %rax,%rdi
   12134:	e8 ba 75 ff ff       	callq  96f3 <transparent_crc>
   12139:	0f b6 05 70 59 00 00 	movzbl 0x5970(%rip),%eax        # 17ab0 <g_2537>
   12140:	48 0f be c0          	movsbq %al,%rax
   12144:	8b 55 fc             	mov    -0x4(%rbp),%edx
   12147:	48 8d 35 74 27 00 00 	lea    0x2774(%rip),%rsi        # 148c2 <g_3574+0x1832>
   1214e:	48 89 c7             	mov    %rax,%rdi
   12151:	e8 9d 75 ff ff       	callq  96f3 <transparent_crc>
   12156:	48 8b 05 5b 59 00 00 	mov    0x595b(%rip),%rax        # 17ab8 <g_2588>
   1215d:	8b 55 fc             	mov    -0x4(%rbp),%edx
   12160:	48 8d 35 65 27 00 00 	lea    0x2765(%rip),%rsi        # 148cc <g_3574+0x183c>
   12167:	48 89 c7             	mov    %rax,%rdi
   1216a:	e8 84 75 ff ff       	callq  96f3 <transparent_crc>
   1216f:	48 8b 05 4a 59 00 00 	mov    0x594a(%rip),%rax        # 17ac0 <g_2609>
   12176:	8b 55 fc             	mov    -0x4(%rbp),%edx
   12179:	48 8d 35 53 27 00 00 	lea    0x2753(%rip),%rsi        # 148d3 <g_3574+0x1843>
   12180:	48 89 c7             	mov    %rax,%rdi
   12183:	e8 6b 75 ff ff       	callq  96f3 <transparent_crc>
   12188:	8b 05 f2 0e 00 00    	mov    0xef2(%rip),%eax        # 13080 <g_2652>
   1218e:	89 c1                	mov    %eax,%ecx
   12190:	8b 45 fc             	mov    -0x4(%rbp),%eax
   12193:	89 c2                	mov    %eax,%edx
   12195:	48 8d 35 3e 27 00 00 	lea    0x273e(%rip),%rsi        # 148da <g_3574+0x184a>
   1219c:	48 89 cf             	mov    %rcx,%rdi
   1219f:	e8 4f 75 ff ff       	callq  96f3 <transparent_crc>
   121a4:	b8 fd ff ff ff       	mov    $0xfffffffd,%eax
   121a9:	89 c1                	mov    %eax,%ecx
   121ab:	8b 45 fc             	mov    -0x4(%rbp),%eax
   121ae:	89 c2                	mov    %eax,%edx
   121b0:	48 8d 35 2d 27 00 00 	lea    0x272d(%rip),%rsi        # 148e4 <g_3574+0x1854>
   121b7:	48 89 cf             	mov    %rcx,%rdi
   121ba:	e8 34 75 ff ff       	callq  96f3 <transparent_crc>
   121bf:	b8 fd ff ff ff       	mov    $0xfffffffd,%eax
   121c4:	89 c1                	mov    %eax,%ecx
   121c6:	8b 45 fc             	mov    -0x4(%rbp),%eax
   121c9:	89 c2                	mov    %eax,%edx
   121cb:	48 8d 35 1c 27 00 00 	lea    0x271c(%rip),%rsi        # 148ee <g_3574+0x185e>
   121d2:	48 89 cf             	mov    %rcx,%rdi
   121d5:	e8 19 75 ff ff       	callq  96f3 <transparent_crc>
   121da:	b8 fd ff ff ff       	mov    $0xfffffffd,%eax
   121df:	0f b6 c0             	movzbl %al,%eax
   121e2:	8b 55 fc             	mov    -0x4(%rbp),%edx
   121e5:	48 8d 35 0c 27 00 00 	lea    0x270c(%rip),%rsi        # 148f8 <g_3574+0x1868>
   121ec:	48 89 c7             	mov    %rax,%rdi
   121ef:	e8 ff 74 ff ff       	callq  96f3 <transparent_crc>
   121f4:	8b 05 86 0e 00 00    	mov    0xe86(%rip),%eax        # 13080 <g_2652>
   121fa:	48 98                	cltq   
   121fc:	8b 55 fc             	mov    -0x4(%rbp),%edx
   121ff:	48 8d 35 fc 26 00 00 	lea    0x26fc(%rip),%rsi        # 14902 <g_3574+0x1872>
   12206:	48 89 c7             	mov    %rax,%rdi
   12209:	e8 e5 74 ff ff       	callq  96f3 <transparent_crc>
   1220e:	0f b7 05 b3 58 00 00 	movzwl 0x58b3(%rip),%eax        # 17ac8 <g_2663>
   12215:	0f b7 c0             	movzwl %ax,%eax
   12218:	8b 55 fc             	mov    -0x4(%rbp),%edx
   1221b:	48 8d 35 ea 26 00 00 	lea    0x26ea(%rip),%rsi        # 1490c <g_3574+0x187c>
   12222:	48 89 c7             	mov    %rax,%rdi
   12225:	e8 c9 74 ff ff       	callq  96f3 <transparent_crc>
   1222a:	0f b6 05 9f 58 00 00 	movzbl 0x589f(%rip),%eax        # 17ad0 <g_2771>
   12231:	48 0f be c0          	movsbq %al,%rax
   12235:	8b 55 fc             	mov    -0x4(%rbp),%edx
   12238:	48 8d 35 d4 26 00 00 	lea    0x26d4(%rip),%rsi        # 14913 <g_3574+0x1883>
   1223f:	48 89 c7             	mov    %rax,%rdi
   12242:	e8 ac 74 ff ff       	callq  96f3 <transparent_crc>
   12247:	0f b7 05 8a 58 00 00 	movzwl 0x588a(%rip),%eax        # 17ad8 <g_2806>
   1224e:	0f b7 c0             	movzwl %ax,%eax
   12251:	8b 55 fc             	mov    -0x4(%rbp),%edx
   12254:	48 8d 35 c2 26 00 00 	lea    0x26c2(%rip),%rsi        # 1491d <g_3574+0x188d>
   1225b:	48 89 c7             	mov    %rax,%rdi
   1225e:	e8 90 74 ff ff       	callq  96f3 <transparent_crc>
   12263:	c7 45 f0 00 00 00 00 	movl   $0x0,-0x10(%rbp)
   1226a:	eb 4e                	jmp    122ba <main+0x1987>
   1226c:	8b 45 f0             	mov    -0x10(%rbp),%eax
   1226f:	48 98                	cltq   
   12271:	48 8d 14 c5 00 00 00 	lea    0x0(,%rax,8),%rdx
   12278:	00 
   12279:	48 8d 05 60 58 00 00 	lea    0x5860(%rip),%rax        # 17ae0 <g_2827>
   12280:	0f b6 04 02          	movzbl (%rdx,%rax,1),%eax
   12284:	48 0f be c0          	movsbq %al,%rax
   12288:	8b 55 fc             	mov    -0x4(%rbp),%edx
   1228b:	48 8d 35 92 26 00 00 	lea    0x2692(%rip),%rsi        # 14924 <g_3574+0x1894>
   12292:	48 89 c7             	mov    %rax,%rdi
   12295:	e8 59 74 ff ff       	callq  96f3 <transparent_crc>
   1229a:	83 7d fc 00          	cmpl   $0x0,-0x4(%rbp)
   1229e:	74 16                	je     122b6 <main+0x1983>
   122a0:	8b 45 f0             	mov    -0x10(%rbp),%eax
   122a3:	89 c6                	mov    %eax,%esi
   122a5:	48 8d 3d 41 21 00 00 	lea    0x2141(%rip),%rdi        # 143ed <g_3574+0x135d>
   122ac:	b8 00 00 00 00       	mov    $0x0,%eax
   122b1:	e8 ca 5d ff ff       	callq  8080 <printf@plt>
   122b6:	83 45 f0 01          	addl   $0x1,-0x10(%rbp)
   122ba:	83 7d f0 03          	cmpl   $0x3,-0x10(%rbp)
   122be:	7e ac                	jle    1226c <main+0x1939>
   122c0:	8b 05 3a 58 00 00    	mov    0x583a(%rip),%eax        # 17b00 <g_2846>
   122c6:	89 c1                	mov    %eax,%ecx
   122c8:	8b 45 fc             	mov    -0x4(%rbp),%eax
   122cb:	89 c2                	mov    %eax,%edx
   122cd:	48 8d 35 5d 26 00 00 	lea    0x265d(%rip),%rsi        # 14931 <g_3574+0x18a1>
   122d4:	48 89 cf             	mov    %rcx,%rdi
   122d7:	e8 17 74 ff ff       	callq  96f3 <transparent_crc>
   122dc:	0f b6 05 25 58 00 00 	movzbl 0x5825(%rip),%eax        # 17b08 <g_2886>
   122e3:	48 0f be c0          	movsbq %al,%rax
   122e7:	8b 55 fc             	mov    -0x4(%rbp),%edx
   122ea:	48 8d 35 47 26 00 00 	lea    0x2647(%rip),%rsi        # 14938 <g_3574+0x18a8>
   122f1:	48 89 c7             	mov    %rax,%rdi
   122f4:	e8 fa 73 ff ff       	callq  96f3 <transparent_crc>
   122f9:	8b 05 11 58 00 00    	mov    0x5811(%rip),%eax        # 17b10 <g_2888>
   122ff:	89 c1                	mov    %eax,%ecx
   12301:	8b 45 fc             	mov    -0x4(%rbp),%eax
   12304:	89 c2                	mov    %eax,%edx
   12306:	48 8d 35 35 26 00 00 	lea    0x2635(%rip),%rsi        # 14942 <g_3574+0x18b2>
   1230d:	48 89 cf             	mov    %rcx,%rdi
   12310:	e8 de 73 ff ff       	callq  96f3 <transparent_crc>
   12315:	8b 05 f5 57 00 00    	mov    0x57f5(%rip),%eax        # 17b10 <g_2888>
   1231b:	89 c1                	mov    %eax,%ecx
   1231d:	8b 45 fc             	mov    -0x4(%rbp),%eax
   12320:	89 c2                	mov    %eax,%edx
   12322:	48 8d 35 23 26 00 00 	lea    0x2623(%rip),%rsi        # 1494c <g_3574+0x18bc>
   12329:	48 89 cf             	mov    %rcx,%rdi
   1232c:	e8 c2 73 ff ff       	callq  96f3 <transparent_crc>
   12331:	8b 05 d9 57 00 00    	mov    0x57d9(%rip),%eax        # 17b10 <g_2888>
   12337:	89 c1                	mov    %eax,%ecx
   12339:	8b 45 fc             	mov    -0x4(%rbp),%eax
   1233c:	89 c2                	mov    %eax,%edx
   1233e:	48 8d 35 11 26 00 00 	lea    0x2611(%rip),%rsi        # 14956 <g_3574+0x18c6>
   12345:	48 89 cf             	mov    %rcx,%rdi
   12348:	e8 a6 73 ff ff       	callq  96f3 <transparent_crc>
   1234d:	0f b6 05 bc 57 00 00 	movzbl 0x57bc(%rip),%eax        # 17b10 <g_2888>
   12354:	0f b6 c0             	movzbl %al,%eax
   12357:	8b 55 fc             	mov    -0x4(%rbp),%edx
   1235a:	48 8d 35 ff 25 00 00 	lea    0x25ff(%rip),%rsi        # 14960 <g_3574+0x18d0>
   12361:	48 89 c7             	mov    %rax,%rdi
   12364:	e8 8a 73 ff ff       	callq  96f3 <transparent_crc>
   12369:	8b 05 a1 57 00 00    	mov    0x57a1(%rip),%eax        # 17b10 <g_2888>
   1236f:	48 98                	cltq   
   12371:	8b 55 fc             	mov    -0x4(%rbp),%edx
   12374:	48 8d 35 ef 25 00 00 	lea    0x25ef(%rip),%rsi        # 1496a <g_3574+0x18da>
   1237b:	48 89 c7             	mov    %rax,%rdi
   1237e:	e8 70 73 ff ff       	callq  96f3 <transparent_crc>
   12383:	c7 45 f0 00 00 00 00 	movl   $0x0,-0x10(%rbp)
   1238a:	e9 a4 00 00 00       	jmpq   12433 <main+0x1b00>
   1238f:	c7 45 f4 00 00 00 00 	movl   $0x0,-0xc(%rbp)
   12396:	e9 8a 00 00 00       	jmpq   12425 <main+0x1af2>
   1239b:	c7 45 f8 00 00 00 00 	movl   $0x0,-0x8(%rbp)
   123a2:	eb 77                	jmp    1241b <main+0x1ae8>
   123a4:	8b 45 f8             	mov    -0x8(%rbp),%eax
   123a7:	48 63 c8             	movslq %eax,%rcx
   123aa:	8b 45 f0             	mov    -0x10(%rbp),%eax
   123ad:	48 63 d0             	movslq %eax,%rdx
   123b0:	8b 45 f4             	mov    -0xc(%rbp),%eax
   123b3:	48 63 f0             	movslq %eax,%rsi
   123b6:	48 89 d0             	mov    %rdx,%rax
   123b9:	48 01 c0             	add    %rax,%rax
   123bc:	48 01 d0             	add    %rdx,%rax
   123bf:	48 01 c0             	add    %rax,%rax
   123c2:	48 01 f0             	add    %rsi,%rax
   123c5:	48 c1 e0 02          	shl    $0x2,%rax
   123c9:	48 01 c8             	add    %rcx,%rax
   123cc:	48 8d 14 c5 00 00 00 	lea    0x0(,%rax,8),%rdx
   123d3:	00 
   123d4:	48 8d 05 45 57 00 00 	lea    0x5745(%rip),%rax        # 17b20 <g_2919>
   123db:	0f b6 04 02          	movzbl (%rdx,%rax,1),%eax
   123df:	48 0f be c0          	movsbq %al,%rax
   123e3:	8b 55 fc             	mov    -0x4(%rbp),%edx
   123e6:	48 8d 35 87 25 00 00 	lea    0x2587(%rip),%rsi        # 14974 <g_3574+0x18e4>
   123ed:	48 89 c7             	mov    %rax,%rdi
   123f0:	e8 fe 72 ff ff       	callq  96f3 <transparent_crc>
   123f5:	83 7d fc 00          	cmpl   $0x0,-0x4(%rbp)
   123f9:	74 1c                	je     12417 <main+0x1ae4>
   123fb:	8b 4d f8             	mov    -0x8(%rbp),%ecx
   123fe:	8b 55 f4             	mov    -0xc(%rbp),%edx
   12401:	8b 45 f0             	mov    -0x10(%rbp),%eax
   12404:	89 c6                	mov    %eax,%esi
   12406:	48 8d 3d a0 1f 00 00 	lea    0x1fa0(%rip),%rdi        # 143ad <g_3574+0x131d>
   1240d:	b8 00 00 00 00       	mov    $0x0,%eax
   12412:	e8 69 5c ff ff       	callq  8080 <printf@plt>
   12417:	83 45 f8 01          	addl   $0x1,-0x8(%rbp)
   1241b:	83 7d f8 03          	cmpl   $0x3,-0x8(%rbp)
   1241f:	7e 83                	jle    123a4 <main+0x1a71>
   12421:	83 45 f4 01          	addl   $0x1,-0xc(%rbp)
   12425:	83 7d f4 05          	cmpl   $0x5,-0xc(%rbp)
   12429:	0f 8e 6c ff ff ff    	jle    1239b <main+0x1a68>
   1242f:	83 45 f0 01          	addl   $0x1,-0x10(%rbp)
   12433:	83 7d f0 09          	cmpl   $0x9,-0x10(%rbp)
   12437:	0f 8e 52 ff ff ff    	jle    1238f <main+0x1a5c>
   1243d:	b8 01 00 00 00       	mov    $0x1,%eax
   12442:	89 c1                	mov    %eax,%ecx
   12444:	8b 45 fc             	mov    -0x4(%rbp),%eax
   12447:	89 c2                	mov    %eax,%edx
   12449:	48 8d 35 37 25 00 00 	lea    0x2537(%rip),%rsi        # 14987 <g_3574+0x18f7>
   12450:	48 89 cf             	mov    %rcx,%rdi
   12453:	e8 9b 72 ff ff       	callq  96f3 <transparent_crc>
   12458:	0f b6 05 41 5e 00 00 	movzbl 0x5e41(%rip),%eax        # 182a0 <g_2948>
   1245f:	48 0f be c0          	movsbq %al,%rax
   12463:	8b 55 fc             	mov    -0x4(%rbp),%edx
   12466:	48 8d 35 21 25 00 00 	lea    0x2521(%rip),%rsi        # 1498e <g_3574+0x18fe>
   1246d:	48 89 c7             	mov    %rax,%rdi
   12470:	e8 7e 72 ff ff       	callq  96f3 <transparent_crc>
   12475:	8b 05 0d 0c 00 00    	mov    0xc0d(%rip),%eax        # 13088 <g_3047>
   1247b:	89 c1                	mov    %eax,%ecx
   1247d:	8b 45 fc             	mov    -0x4(%rbp),%eax
   12480:	89 c2                	mov    %eax,%edx
   12482:	48 8d 35 0f 25 00 00 	lea    0x250f(%rip),%rsi        # 14998 <g_3574+0x1908>
   12489:	48 89 cf             	mov    %rcx,%rdi
   1248c:	e8 62 72 ff ff       	callq  96f3 <transparent_crc>
   12491:	b8 c9 76 b5 d0       	mov    $0xd0b576c9,%eax
   12496:	89 c1                	mov    %eax,%ecx
   12498:	8b 45 fc             	mov    -0x4(%rbp),%eax
   1249b:	89 c2                	mov    %eax,%edx
   1249d:	48 8d 35 fe 24 00 00 	lea    0x24fe(%rip),%rsi        # 149a2 <g_3574+0x1912>
   124a4:	48 89 cf             	mov    %rcx,%rdi
   124a7:	e8 47 72 ff ff       	callq  96f3 <transparent_crc>
   124ac:	b8 c9 76 b5 d0       	mov    $0xd0b576c9,%eax
   124b1:	89 c1                	mov    %eax,%ecx
   124b3:	8b 45 fc             	mov    -0x4(%rbp),%eax
   124b6:	89 c2                	mov    %eax,%edx
   124b8:	48 8d 35 ed 24 00 00 	lea    0x24ed(%rip),%rsi        # 149ac <g_3574+0x191c>
   124bf:	48 89 cf             	mov    %rcx,%rdi
   124c2:	e8 2c 72 ff ff       	callq  96f3 <transparent_crc>
   124c7:	b8 c9 ff ff ff       	mov    $0xffffffc9,%eax
   124cc:	0f b6 c0             	movzbl %al,%eax
   124cf:	8b 55 fc             	mov    -0x4(%rbp),%edx
   124d2:	48 8d 35 dd 24 00 00 	lea    0x24dd(%rip),%rsi        # 149b6 <g_3574+0x1926>
   124d9:	48 89 c7             	mov    %rax,%rdi
   124dc:	e8 12 72 ff ff       	callq  96f3 <transparent_crc>
   124e1:	8b 05 a1 0b 00 00    	mov    0xba1(%rip),%eax        # 13088 <g_3047>
   124e7:	48 98                	cltq   
   124e9:	8b 55 fc             	mov    -0x4(%rbp),%edx
   124ec:	48 8d 35 cd 24 00 00 	lea    0x24cd(%rip),%rsi        # 149c0 <g_3574+0x1930>
   124f3:	48 89 c7             	mov    %rax,%rdi
   124f6:	e8 f8 71 ff ff       	callq  96f3 <transparent_crc>
   124fb:	8b 05 a7 5d 00 00    	mov    0x5da7(%rip),%eax        # 182a8 <g_3101>
   12501:	89 c1                	mov    %eax,%ecx
   12503:	8b 45 fc             	mov    -0x4(%rbp),%eax
   12506:	89 c2                	mov    %eax,%edx
   12508:	48 8d 35 bb 24 00 00 	lea    0x24bb(%rip),%rsi        # 149ca <g_3574+0x193a>
   1250f:	48 89 cf             	mov    %rcx,%rdi
   12512:	e8 dc 71 ff ff       	callq  96f3 <transparent_crc>
   12517:	8b 05 8b 5d 00 00    	mov    0x5d8b(%rip),%eax        # 182a8 <g_3101>
   1251d:	89 c1                	mov    %eax,%ecx
   1251f:	8b 45 fc             	mov    -0x4(%rbp),%eax
   12522:	89 c2                	mov    %eax,%edx
   12524:	48 8d 35 a9 24 00 00 	lea    0x24a9(%rip),%rsi        # 149d4 <g_3574+0x1944>
   1252b:	48 89 cf             	mov    %rcx,%rdi
   1252e:	e8 c0 71 ff ff       	callq  96f3 <transparent_crc>
   12533:	8b 05 6f 5d 00 00    	mov    0x5d6f(%rip),%eax        # 182a8 <g_3101>
   12539:	89 c1                	mov    %eax,%ecx
   1253b:	8b 45 fc             	mov    -0x4(%rbp),%eax
   1253e:	89 c2                	mov    %eax,%edx
   12540:	48 8d 35 97 24 00 00 	lea    0x2497(%rip),%rsi        # 149de <g_3574+0x194e>
   12547:	48 89 cf             	mov    %rcx,%rdi
   1254a:	e8 a4 71 ff ff       	callq  96f3 <transparent_crc>
   1254f:	0f b6 05 52 5d 00 00 	movzbl 0x5d52(%rip),%eax        # 182a8 <g_3101>
   12556:	0f b6 c0             	movzbl %al,%eax
   12559:	8b 55 fc             	mov    -0x4(%rbp),%edx
   1255c:	48 8d 35 85 24 00 00 	lea    0x2485(%rip),%rsi        # 149e8 <g_3574+0x1958>
   12563:	48 89 c7             	mov    %rax,%rdi
   12566:	e8 88 71 ff ff       	callq  96f3 <transparent_crc>
   1256b:	8b 05 37 5d 00 00    	mov    0x5d37(%rip),%eax        # 182a8 <g_3101>
   12571:	48 98                	cltq   
   12573:	8b 55 fc             	mov    -0x4(%rbp),%edx
   12576:	48 8d 35 75 24 00 00 	lea    0x2475(%rip),%rsi        # 149f2 <g_3574+0x1962>
   1257d:	48 89 c7             	mov    %rax,%rdi
   12580:	e8 6e 71 ff ff       	callq  96f3 <transparent_crc>
   12585:	8b 05 21 5d 00 00    	mov    0x5d21(%rip),%eax        # 182ac <g_3108>
   1258b:	89 c1                	mov    %eax,%ecx
   1258d:	8b 45 fc             	mov    -0x4(%rbp),%eax
   12590:	89 c2                	mov    %eax,%edx
   12592:	48 8d 35 63 24 00 00 	lea    0x2463(%rip),%rsi        # 149fc <g_3574+0x196c>
   12599:	48 89 cf             	mov    %rcx,%rdi
   1259c:	e8 52 71 ff ff       	callq  96f3 <transparent_crc>
   125a1:	8b 05 05 5d 00 00    	mov    0x5d05(%rip),%eax        # 182ac <g_3108>
   125a7:	89 c1                	mov    %eax,%ecx
   125a9:	8b 45 fc             	mov    -0x4(%rbp),%eax
   125ac:	89 c2                	mov    %eax,%edx
   125ae:	48 8d 35 51 24 00 00 	lea    0x2451(%rip),%rsi        # 14a06 <g_3574+0x1976>
   125b5:	48 89 cf             	mov    %rcx,%rdi
   125b8:	e8 36 71 ff ff       	callq  96f3 <transparent_crc>
   125bd:	8b 05 e9 5c 00 00    	mov    0x5ce9(%rip),%eax        # 182ac <g_3108>
   125c3:	89 c1                	mov    %eax,%ecx
   125c5:	8b 45 fc             	mov    -0x4(%rbp),%eax
   125c8:	89 c2                	mov    %eax,%edx
   125ca:	48 8d 35 3f 24 00 00 	lea    0x243f(%rip),%rsi        # 14a10 <g_3574+0x1980>
   125d1:	48 89 cf             	mov    %rcx,%rdi
   125d4:	e8 1a 71 ff ff       	callq  96f3 <transparent_crc>
   125d9:	0f b6 05 cc 5c 00 00 	movzbl 0x5ccc(%rip),%eax        # 182ac <g_3108>
   125e0:	0f b6 c0             	movzbl %al,%eax
   125e3:	8b 55 fc             	mov    -0x4(%rbp),%edx
   125e6:	48 8d 35 2d 24 00 00 	lea    0x242d(%rip),%rsi        # 14a1a <g_3574+0x198a>
   125ed:	48 89 c7             	mov    %rax,%rdi
   125f0:	e8 fe 70 ff ff       	callq  96f3 <transparent_crc>
   125f5:	8b 05 b1 5c 00 00    	mov    0x5cb1(%rip),%eax        # 182ac <g_3108>
   125fb:	48 98                	cltq   
   125fd:	8b 55 fc             	mov    -0x4(%rbp),%edx
   12600:	48 8d 35 1d 24 00 00 	lea    0x241d(%rip),%rsi        # 14a24 <g_3574+0x1994>
   12607:	48 89 c7             	mov    %rax,%rdi
   1260a:	e8 e4 70 ff ff       	callq  96f3 <transparent_crc>
   1260f:	0f b6 05 9a 5c 00 00 	movzbl 0x5c9a(%rip),%eax        # 182b0 <g_3135>
   12616:	48 0f be c0          	movsbq %al,%rax
   1261a:	8b 55 fc             	mov    -0x4(%rbp),%edx
   1261d:	48 8d 35 0a 24 00 00 	lea    0x240a(%rip),%rsi        # 14a2e <g_3574+0x199e>
   12624:	48 89 c7             	mov    %rax,%rdi
   12627:	e8 c7 70 ff ff       	callq  96f3 <transparent_crc>
   1262c:	8b 05 86 5c 00 00    	mov    0x5c86(%rip),%eax        # 182b8 <g_3148>
   12632:	89 c1                	mov    %eax,%ecx
   12634:	8b 45 fc             	mov    -0x4(%rbp),%eax
   12637:	89 c2                	mov    %eax,%edx
   12639:	48 8d 35 f8 23 00 00 	lea    0x23f8(%rip),%rsi        # 14a38 <g_3574+0x19a8>
   12640:	48 89 cf             	mov    %rcx,%rdi
   12643:	e8 ab 70 ff ff       	callq  96f3 <transparent_crc>
   12648:	8b 05 6a 5c 00 00    	mov    0x5c6a(%rip),%eax        # 182b8 <g_3148>
   1264e:	89 c1                	mov    %eax,%ecx
   12650:	8b 45 fc             	mov    -0x4(%rbp),%eax
   12653:	89 c2                	mov    %eax,%edx
   12655:	48 8d 35 e6 23 00 00 	lea    0x23e6(%rip),%rsi        # 14a42 <g_3574+0x19b2>
   1265c:	48 89 cf             	mov    %rcx,%rdi
   1265f:	e8 8f 70 ff ff       	callq  96f3 <transparent_crc>
   12664:	8b 05 4e 5c 00 00    	mov    0x5c4e(%rip),%eax        # 182b8 <g_3148>
   1266a:	89 c1                	mov    %eax,%ecx
   1266c:	8b 45 fc             	mov    -0x4(%rbp),%eax
   1266f:	89 c2                	mov    %eax,%edx
   12671:	48 8d 35 d4 23 00 00 	lea    0x23d4(%rip),%rsi        # 14a4c <g_3574+0x19bc>
   12678:	48 89 cf             	mov    %rcx,%rdi
   1267b:	e8 73 70 ff ff       	callq  96f3 <transparent_crc>
   12680:	0f b6 05 31 5c 00 00 	movzbl 0x5c31(%rip),%eax        # 182b8 <g_3148>
   12687:	0f b6 c0             	movzbl %al,%eax
   1268a:	8b 55 fc             	mov    -0x4(%rbp),%edx
   1268d:	48 8d 35 c2 23 00 00 	lea    0x23c2(%rip),%rsi        # 14a56 <g_3574+0x19c6>
   12694:	48 89 c7             	mov    %rax,%rdi
   12697:	e8 57 70 ff ff       	callq  96f3 <transparent_crc>
   1269c:	8b 05 16 5c 00 00    	mov    0x5c16(%rip),%eax        # 182b8 <g_3148>
   126a2:	48 98                	cltq   
   126a4:	8b 55 fc             	mov    -0x4(%rbp),%edx
   126a7:	48 8d 35 b2 23 00 00 	lea    0x23b2(%rip),%rsi        # 14a60 <g_3574+0x19d0>
   126ae:	48 89 c7             	mov    %rax,%rdi
   126b1:	e8 3d 70 ff ff       	callq  96f3 <transparent_crc>
   126b6:	0f b6 05 03 5c 00 00 	movzbl 0x5c03(%rip),%eax        # 182c0 <g_3236>
   126bd:	48 0f be c0          	movsbq %al,%rax
   126c1:	8b 55 fc             	mov    -0x4(%rbp),%edx
   126c4:	48 8d 35 9f 23 00 00 	lea    0x239f(%rip),%rsi        # 14a6a <g_3574+0x19da>
   126cb:	48 89 c7             	mov    %rax,%rdi
   126ce:	e8 20 70 ff ff       	callq  96f3 <transparent_crc>
   126d3:	0f b6 05 ee 5b 00 00 	movzbl 0x5bee(%rip),%eax        # 182c8 <g_3272>
   126da:	0f b6 c0             	movzbl %al,%eax
   126dd:	8b 55 fc             	mov    -0x4(%rbp),%edx
   126e0:	48 8d 35 8d 23 00 00 	lea    0x238d(%rip),%rsi        # 14a74 <g_3574+0x19e4>
   126e7:	48 89 c7             	mov    %rax,%rdi
   126ea:	e8 04 70 ff ff       	callq  96f3 <transparent_crc>
   126ef:	0f b6 05 d3 5b 00 00 	movzbl 0x5bd3(%rip),%eax        # 182c9 <g_3274>
   126f6:	0f b6 c0             	movzbl %al,%eax
   126f9:	8b 55 fc             	mov    -0x4(%rbp),%edx
   126fc:	48 8d 35 78 23 00 00 	lea    0x2378(%rip),%rsi        # 14a7b <g_3574+0x19eb>
   12703:	48 89 c7             	mov    %rax,%rdi
   12706:	e8 e8 6f ff ff       	callq  96f3 <transparent_crc>
   1270b:	c7 45 f0 00 00 00 00 	movl   $0x0,-0x10(%rbp)
   12712:	e9 a2 00 00 00       	jmpq   127b9 <main+0x1e86>
   12717:	c7 45 f4 00 00 00 00 	movl   $0x0,-0xc(%rbp)
   1271e:	e9 88 00 00 00       	jmpq   127ab <main+0x1e78>
   12723:	c7 45 f8 00 00 00 00 	movl   $0x0,-0x8(%rbp)
   1272a:	eb 75                	jmp    127a1 <main+0x1e6e>
   1272c:	8b 45 f8             	mov    -0x8(%rbp),%eax
   1272f:	48 63 c8             	movslq %eax,%rcx
   12732:	8b 45 f0             	mov    -0x10(%rbp),%eax
   12735:	48 63 d0             	movslq %eax,%rdx
   12738:	8b 45 f4             	mov    -0xc(%rbp),%eax
   1273b:	48 63 f0             	movslq %eax,%rsi
   1273e:	48 89 d0             	mov    %rdx,%rax
   12741:	48 c1 e0 03          	shl    $0x3,%rax
   12745:	48 29 d0             	sub    %rdx,%rax
   12748:	48 01 f0             	add    %rsi,%rax
   1274b:	48 c1 e0 02          	shl    $0x2,%rax
   1274f:	48 01 c8             	add    %rcx,%rax
   12752:	48 8d 14 c5 00 00 00 	lea    0x0(,%rax,8),%rdx
   12759:	00 
   1275a:	48 8d 05 7f 5b 00 00 	lea    0x5b7f(%rip),%rax        # 182e0 <g_3317>
   12761:	0f b6 04 02          	movzbl (%rdx,%rax,1),%eax
   12765:	48 0f be c0          	movsbq %al,%rax
   12769:	8b 55 fc             	mov    -0x4(%rbp),%edx
   1276c:	48 8d 35 0f 23 00 00 	lea    0x230f(%rip),%rsi        # 14a82 <g_3574+0x19f2>
   12773:	48 89 c7             	mov    %rax,%rdi
   12776:	e8 78 6f ff ff       	callq  96f3 <transparent_crc>
   1277b:	83 7d fc 00          	cmpl   $0x0,-0x4(%rbp)
   1277f:	74 1c                	je     1279d <main+0x1e6a>
   12781:	8b 4d f8             	mov    -0x8(%rbp),%ecx
   12784:	8b 55 f4             	mov    -0xc(%rbp),%edx
   12787:	8b 45 f0             	mov    -0x10(%rbp),%eax
   1278a:	89 c6                	mov    %eax,%esi
   1278c:	48 8d 3d 1a 1c 00 00 	lea    0x1c1a(%rip),%rdi        # 143ad <g_3574+0x131d>
   12793:	b8 00 00 00 00       	mov    $0x0,%eax
   12798:	e8 e3 58 ff ff       	callq  8080 <printf@plt>
   1279d:	83 45 f8 01          	addl   $0x1,-0x8(%rbp)
   127a1:	83 7d f8 03          	cmpl   $0x3,-0x8(%rbp)
   127a5:	7e 85                	jle    1272c <main+0x1df9>
   127a7:	83 45 f4 01          	addl   $0x1,-0xc(%rbp)
   127ab:	83 7d f4 06          	cmpl   $0x6,-0xc(%rbp)
   127af:	0f 8e 6e ff ff ff    	jle    12723 <main+0x1df0>
   127b5:	83 45 f0 01          	addl   $0x1,-0x10(%rbp)
   127b9:	83 7d f0 08          	cmpl   $0x8,-0x10(%rbp)
   127bd:	0f 8e 54 ff ff ff    	jle    12717 <main+0x1de4>
   127c3:	48 8b 05 f6 62 00 00 	mov    0x62f6(%rip),%rax        # 18ac0 <g_3397>
   127ca:	8b 55 fc             	mov    -0x4(%rbp),%edx
   127cd:	48 8d 35 c1 22 00 00 	lea    0x22c1(%rip),%rsi        # 14a95 <g_3574+0x1a05>
   127d4:	48 89 c7             	mov    %rax,%rdi
   127d7:	e8 17 6f ff ff       	callq  96f3 <transparent_crc>
   127dc:	8b 05 e6 62 00 00    	mov    0x62e6(%rip),%eax        # 18ac8 <g_3426>
   127e2:	89 c1                	mov    %eax,%ecx
   127e4:	8b 45 fc             	mov    -0x4(%rbp),%eax
   127e7:	89 c2                	mov    %eax,%edx
   127e9:	48 8d 35 ac 22 00 00 	lea    0x22ac(%rip),%rsi        # 14a9c <g_3574+0x1a0c>
   127f0:	48 89 cf             	mov    %rcx,%rdi
   127f3:	e8 fb 6e ff ff       	callq  96f3 <transparent_crc>
   127f8:	8b 05 ca 62 00 00    	mov    0x62ca(%rip),%eax        # 18ac8 <g_3426>
   127fe:	89 c1                	mov    %eax,%ecx
   12800:	8b 45 fc             	mov    -0x4(%rbp),%eax
   12803:	89 c2                	mov    %eax,%edx
   12805:	48 8d 35 9a 22 00 00 	lea    0x229a(%rip),%rsi        # 14aa6 <g_3574+0x1a16>
   1280c:	48 89 cf             	mov    %rcx,%rdi
   1280f:	e8 df 6e ff ff       	callq  96f3 <transparent_crc>
   12814:	8b 05 ae 62 00 00    	mov    0x62ae(%rip),%eax        # 18ac8 <g_3426>
   1281a:	89 c1                	mov    %eax,%ecx
   1281c:	8b 45 fc             	mov    -0x4(%rbp),%eax
   1281f:	89 c2                	mov    %eax,%edx
   12821:	48 8d 35 88 22 00 00 	lea    0x2288(%rip),%rsi        # 14ab0 <g_3574+0x1a20>
   12828:	48 89 cf             	mov    %rcx,%rdi
   1282b:	e8 c3 6e ff ff       	callq  96f3 <transparent_crc>
   12830:	0f b6 05 91 62 00 00 	movzbl 0x6291(%rip),%eax        # 18ac8 <g_3426>
   12837:	0f b6 c0             	movzbl %al,%eax
   1283a:	8b 55 fc             	mov    -0x4(%rbp),%edx
   1283d:	48 8d 35 76 22 00 00 	lea    0x2276(%rip),%rsi        # 14aba <g_3574+0x1a2a>
   12844:	48 89 c7             	mov    %rax,%rdi
   12847:	e8 a7 6e ff ff       	callq  96f3 <transparent_crc>
   1284c:	8b 05 76 62 00 00    	mov    0x6276(%rip),%eax        # 18ac8 <g_3426>
   12852:	48 98                	cltq   
   12854:	8b 55 fc             	mov    -0x4(%rbp),%edx
   12857:	48 8d 35 66 22 00 00 	lea    0x2266(%rip),%rsi        # 14ac4 <g_3574+0x1a34>
   1285e:	48 89 c7             	mov    %rax,%rdi
   12861:	e8 8d 6e ff ff       	callq  96f3 <transparent_crc>
   12866:	48 b9 86 78 15 e3 35 	movabs $0x7d155235e3157886,%rcx
   1286d:	52 15 7d 
   12870:	8b 45 fc             	mov    -0x4(%rbp),%eax
   12873:	89 c2                	mov    %eax,%edx
   12875:	48 8d 35 52 22 00 00 	lea    0x2252(%rip),%rsi        # 14ace <g_3574+0x1a3e>
   1287c:	48 89 cf             	mov    %rcx,%rdi
   1287f:	e8 6f 6e ff ff       	callq  96f3 <transparent_crc>
   12884:	0f b6 05 7d 9d 00 00 	movzbl 0x9d7d(%rip),%eax        # 1c608 <g_3620>
   1288b:	48 0f be c0          	movsbq %al,%rax
   1288f:	8b 55 fc             	mov    -0x4(%rbp),%edx
   12892:	48 8d 35 3c 22 00 00 	lea    0x223c(%rip),%rsi        # 14ad5 <g_3574+0x1a45>
   12899:	48 89 c7             	mov    %rax,%rdi
   1289c:	e8 52 6e ff ff       	callq  96f3 <transparent_crc>
   128a1:	c7 45 f0 00 00 00 00 	movl   $0x0,-0x10(%rbp)
   128a8:	e9 9a 00 00 00       	jmpq   12947 <main+0x2014>
   128ad:	c7 45 f4 00 00 00 00 	movl   $0x0,-0xc(%rbp)
   128b4:	e9 80 00 00 00       	jmpq   12939 <main+0x2006>
   128b9:	c7 45 f8 00 00 00 00 	movl   $0x0,-0x8(%rbp)
   128c0:	eb 6d                	jmp    1292f <main+0x1ffc>
   128c2:	8b 45 f8             	mov    -0x8(%rbp),%eax
   128c5:	48 98                	cltq   
   128c7:	8b 55 f0             	mov    -0x10(%rbp),%edx
   128ca:	48 63 ca             	movslq %edx,%rcx
   128cd:	8b 55 f4             	mov    -0xc(%rbp),%edx
   128d0:	48 63 d2             	movslq %edx,%rdx
   128d3:	48 c1 e1 03          	shl    $0x3,%rcx
   128d7:	48 01 ca             	add    %rcx,%rdx
   128da:	48 01 d2             	add    %rdx,%rdx
   128dd:	48 01 d0             	add    %rdx,%rax
   128e0:	48 8d 14 c5 00 00 00 	lea    0x0(,%rax,8),%rdx
   128e7:	00 
   128e8:	48 8d 05 f1 61 00 00 	lea    0x61f1(%rip),%rax        # 18ae0 <g_3728>
   128ef:	0f b6 04 02          	movzbl (%rdx,%rax,1),%eax
   128f3:	48 0f be c0          	movsbq %al,%rax
   128f7:	8b 55 fc             	mov    -0x4(%rbp),%edx
   128fa:	48 8d 35 de 21 00 00 	lea    0x21de(%rip),%rsi        # 14adf <g_3574+0x1a4f>
   12901:	48 89 c7             	mov    %rax,%rdi
   12904:	e8 ea 6d ff ff       	callq  96f3 <transparent_crc>
   12909:	83 7d fc 00          	cmpl   $0x0,-0x4(%rbp)
   1290d:	74 1c                	je     1292b <main+0x1ff8>
   1290f:	8b 4d f8             	mov    -0x8(%rbp),%ecx
   12912:	8b 55 f4             	mov    -0xc(%rbp),%edx
   12915:	8b 45 f0             	mov    -0x10(%rbp),%eax
   12918:	89 c6                	mov    %eax,%esi
   1291a:	48 8d 3d 8c 1a 00 00 	lea    0x1a8c(%rip),%rdi        # 143ad <g_3574+0x131d>
   12921:	b8 00 00 00 00       	mov    $0x0,%eax
   12926:	e8 55 57 ff ff       	callq  8080 <printf@plt>
   1292b:	83 45 f8 01          	addl   $0x1,-0x8(%rbp)
   1292f:	83 7d f8 01          	cmpl   $0x1,-0x8(%rbp)
   12933:	7e 8d                	jle    128c2 <main+0x1f8f>
   12935:	83 45 f4 01          	addl   $0x1,-0xc(%rbp)
   12939:	83 7d f4 07          	cmpl   $0x7,-0xc(%rbp)
   1293d:	0f 8e 76 ff ff ff    	jle    128b9 <main+0x1f86>
   12943:	83 45 f0 01          	addl   $0x1,-0x10(%rbp)
   12947:	83 7d f0 03          	cmpl   $0x3,-0x10(%rbp)
   1294b:	0f 8e 5c ff ff ff    	jle    128ad <main+0x1f7a>
   12951:	8b 05 89 63 00 00    	mov    0x6389(%rip),%eax        # 18ce0 <g_3729>
   12957:	89 c1                	mov    %eax,%ecx
   12959:	8b 45 fc             	mov    -0x4(%rbp),%eax
   1295c:	89 c2                	mov    %eax,%edx
   1295e:	48 8d 35 8d 21 00 00 	lea    0x218d(%rip),%rsi        # 14af2 <g_3574+0x1a62>
   12965:	48 89 cf             	mov    %rcx,%rdi
   12968:	e8 86 6d ff ff       	callq  96f3 <transparent_crc>
   1296d:	8b 05 6d 63 00 00    	mov    0x636d(%rip),%eax        # 18ce0 <g_3729>
   12973:	89 c1                	mov    %eax,%ecx
   12975:	8b 45 fc             	mov    -0x4(%rbp),%eax
   12978:	89 c2                	mov    %eax,%edx
   1297a:	48 8d 35 7b 21 00 00 	lea    0x217b(%rip),%rsi        # 14afc <g_3574+0x1a6c>
   12981:	48 89 cf             	mov    %rcx,%rdi
   12984:	e8 6a 6d ff ff       	callq  96f3 <transparent_crc>
   12989:	8b 05 51 63 00 00    	mov    0x6351(%rip),%eax        # 18ce0 <g_3729>
   1298f:	89 c1                	mov    %eax,%ecx
   12991:	8b 45 fc             	mov    -0x4(%rbp),%eax
   12994:	89 c2                	mov    %eax,%edx
   12996:	48 8d 35 69 21 00 00 	lea    0x2169(%rip),%rsi        # 14b06 <g_3574+0x1a76>
   1299d:	48 89 cf             	mov    %rcx,%rdi
   129a0:	e8 4e 6d ff ff       	callq  96f3 <transparent_crc>
   129a5:	0f b6 05 34 63 00 00 	movzbl 0x6334(%rip),%eax        # 18ce0 <g_3729>
   129ac:	0f b6 c0             	movzbl %al,%eax
   129af:	8b 55 fc             	mov    -0x4(%rbp),%edx
   129b2:	48 8d 35 57 21 00 00 	lea    0x2157(%rip),%rsi        # 14b10 <g_3574+0x1a80>
   129b9:	48 89 c7             	mov    %rax,%rdi
   129bc:	e8 32 6d ff ff       	callq  96f3 <transparent_crc>
   129c1:	8b 05 19 63 00 00    	mov    0x6319(%rip),%eax        # 18ce0 <g_3729>
   129c7:	48 98                	cltq   
   129c9:	8b 55 fc             	mov    -0x4(%rbp),%edx
   129cc:	48 8d 35 47 21 00 00 	lea    0x2147(%rip),%rsi        # 14b1a <g_3574+0x1a8a>
   129d3:	48 89 c7             	mov    %rax,%rdi
   129d6:	e8 18 6d ff ff       	callq  96f3 <transparent_crc>
   129db:	0f b6 05 06 63 00 00 	movzbl 0x6306(%rip),%eax        # 18ce8 <g_3753>
   129e2:	48 0f be c0          	movsbq %al,%rax
   129e6:	8b 55 fc             	mov    -0x4(%rbp),%edx
   129e9:	48 8d 35 34 21 00 00 	lea    0x2134(%rip),%rsi        # 14b24 <g_3574+0x1a94>
   129f0:	48 89 c7             	mov    %rax,%rdi
   129f3:	e8 fb 6c ff ff       	callq  96f3 <transparent_crc>
   129f8:	8b 05 f2 62 00 00    	mov    0x62f2(%rip),%eax        # 18cf0 <g_3785>
   129fe:	89 c1                	mov    %eax,%ecx
   12a00:	8b 45 fc             	mov    -0x4(%rbp),%eax
   12a03:	89 c2                	mov    %eax,%edx
   12a05:	48 8d 35 22 21 00 00 	lea    0x2122(%rip),%rsi        # 14b2e <g_3574+0x1a9e>
   12a0c:	48 89 cf             	mov    %rcx,%rdi
   12a0f:	e8 df 6c ff ff       	callq  96f3 <transparent_crc>
   12a14:	8b 05 d6 62 00 00    	mov    0x62d6(%rip),%eax        # 18cf0 <g_3785>
   12a1a:	89 c1                	mov    %eax,%ecx
   12a1c:	8b 45 fc             	mov    -0x4(%rbp),%eax
   12a1f:	89 c2                	mov    %eax,%edx
   12a21:	48 8d 35 10 21 00 00 	lea    0x2110(%rip),%rsi        # 14b38 <g_3574+0x1aa8>
   12a28:	48 89 cf             	mov    %rcx,%rdi
   12a2b:	e8 c3 6c ff ff       	callq  96f3 <transparent_crc>
   12a30:	8b 05 ba 62 00 00    	mov    0x62ba(%rip),%eax        # 18cf0 <g_3785>
   12a36:	89 c1                	mov    %eax,%ecx
   12a38:	8b 45 fc             	mov    -0x4(%rbp),%eax
   12a3b:	89 c2                	mov    %eax,%edx
   12a3d:	48 8d 35 fe 20 00 00 	lea    0x20fe(%rip),%rsi        # 14b42 <g_3574+0x1ab2>
   12a44:	48 89 cf             	mov    %rcx,%rdi
   12a47:	e8 a7 6c ff ff       	callq  96f3 <transparent_crc>
   12a4c:	0f b6 05 9d 62 00 00 	movzbl 0x629d(%rip),%eax        # 18cf0 <g_3785>
   12a53:	0f b6 c0             	movzbl %al,%eax
   12a56:	8b 55 fc             	mov    -0x4(%rbp),%edx
   12a59:	48 8d 35 ec 20 00 00 	lea    0x20ec(%rip),%rsi        # 14b4c <g_3574+0x1abc>
   12a60:	48 89 c7             	mov    %rax,%rdi
   12a63:	e8 8b 6c ff ff       	callq  96f3 <transparent_crc>
   12a68:	8b 05 82 62 00 00    	mov    0x6282(%rip),%eax        # 18cf0 <g_3785>
   12a6e:	48 98                	cltq   
   12a70:	8b 55 fc             	mov    -0x4(%rbp),%edx
   12a73:	48 8d 35 dc 20 00 00 	lea    0x20dc(%rip),%rsi        # 14b56 <g_3574+0x1ac6>
   12a7a:	48 89 c7             	mov    %rax,%rdi
   12a7d:	e8 71 6c ff ff       	callq  96f3 <transparent_crc>
   12a82:	8b 05 6c 62 00 00    	mov    0x626c(%rip),%eax        # 18cf4 <g_3788>
   12a88:	89 c1                	mov    %eax,%ecx
   12a8a:	8b 45 fc             	mov    -0x4(%rbp),%eax
   12a8d:	89 c2                	mov    %eax,%edx
   12a8f:	48 8d 35 ca 20 00 00 	lea    0x20ca(%rip),%rsi        # 14b60 <g_3574+0x1ad0>
   12a96:	48 89 cf             	mov    %rcx,%rdi
   12a99:	e8 55 6c ff ff       	callq  96f3 <transparent_crc>
   12a9e:	8b 05 54 62 00 00    	mov    0x6254(%rip),%eax        # 18cf8 <g_3890>
   12aa4:	89 c1                	mov    %eax,%ecx
   12aa6:	8b 45 fc             	mov    -0x4(%rbp),%eax
   12aa9:	89 c2                	mov    %eax,%edx
   12aab:	48 8d 35 b5 20 00 00 	lea    0x20b5(%rip),%rsi        # 14b67 <g_3574+0x1ad7>
   12ab2:	48 89 cf             	mov    %rcx,%rdi
   12ab5:	e8 39 6c ff ff       	callq  96f3 <transparent_crc>
   12aba:	8b 05 38 62 00 00    	mov    0x6238(%rip),%eax        # 18cf8 <g_3890>
   12ac0:	89 c1                	mov    %eax,%ecx
   12ac2:	8b 45 fc             	mov    -0x4(%rbp),%eax
   12ac5:	89 c2                	mov    %eax,%edx
   12ac7:	48 8d 35 a3 20 00 00 	lea    0x20a3(%rip),%rsi        # 14b71 <g_3574+0x1ae1>
   12ace:	48 89 cf             	mov    %rcx,%rdi
   12ad1:	e8 1d 6c ff ff       	callq  96f3 <transparent_crc>
   12ad6:	8b 05 1c 62 00 00    	mov    0x621c(%rip),%eax        # 18cf8 <g_3890>
   12adc:	89 c1                	mov    %eax,%ecx
   12ade:	8b 45 fc             	mov    -0x4(%rbp),%eax
   12ae1:	89 c2                	mov    %eax,%edx
   12ae3:	48 8d 35 91 20 00 00 	lea    0x2091(%rip),%rsi        # 14b7b <g_3574+0x1aeb>
   12aea:	48 89 cf             	mov    %rcx,%rdi
   12aed:	e8 01 6c ff ff       	callq  96f3 <transparent_crc>
   12af2:	0f b6 05 ff 61 00 00 	movzbl 0x61ff(%rip),%eax        # 18cf8 <g_3890>
   12af9:	0f b6 c0             	movzbl %al,%eax
   12afc:	8b 55 fc             	mov    -0x4(%rbp),%edx
   12aff:	48 8d 35 7f 20 00 00 	lea    0x207f(%rip),%rsi        # 14b85 <g_3574+0x1af5>
   12b06:	48 89 c7             	mov    %rax,%rdi
   12b09:	e8 e5 6b ff ff       	callq  96f3 <transparent_crc>
   12b0e:	8b 05 e4 61 00 00    	mov    0x61e4(%rip),%eax        # 18cf8 <g_3890>
   12b14:	48 98                	cltq   
   12b16:	8b 55 fc             	mov    -0x4(%rbp),%edx
   12b19:	48 8d 35 6f 20 00 00 	lea    0x206f(%rip),%rsi        # 14b8f <g_3574+0x1aff>
   12b20:	48 89 c7             	mov    %rax,%rdi
   12b23:	e8 cb 6b ff ff       	callq  96f3 <transparent_crc>
   12b28:	c7 45 f0 00 00 00 00 	movl   $0x0,-0x10(%rbp)
   12b2f:	e9 80 01 00 00       	jmpq   12cb4 <main+0x2381>
   12b34:	c7 45 f4 00 00 00 00 	movl   $0x0,-0xc(%rbp)
   12b3b:	e9 66 01 00 00       	jmpq   12ca6 <main+0x2373>
   12b40:	8b 45 f4             	mov    -0xc(%rbp),%eax
   12b43:	48 63 c8             	movslq %eax,%rcx
   12b46:	8b 45 f0             	mov    -0x10(%rbp),%eax
   12b49:	48 63 d0             	movslq %eax,%rdx
   12b4c:	48 89 d0             	mov    %rdx,%rax
   12b4f:	48 c1 e0 03          	shl    $0x3,%rax
   12b53:	48 01 d0             	add    %rdx,%rax
   12b56:	48 01 c8             	add    %rcx,%rax
   12b59:	48 8d 14 85 00 00 00 	lea    0x0(,%rax,4),%rdx
   12b60:	00 
   12b61:	48 8d 05 98 61 00 00 	lea    0x6198(%rip),%rax        # 18d00 <g_3935>
   12b68:	8b 04 02             	mov    (%rdx,%rax,1),%eax
   12b6b:	89 c1                	mov    %eax,%ecx
   12b6d:	8b 45 fc             	mov    -0x4(%rbp),%eax
   12b70:	89 c2                	mov    %eax,%edx
   12b72:	48 8d 35 20 20 00 00 	lea    0x2020(%rip),%rsi        # 14b99 <g_3574+0x1b09>
   12b79:	48 89 cf             	mov    %rcx,%rdi
   12b7c:	e8 72 6b ff ff       	callq  96f3 <transparent_crc>
   12b81:	8b 45 f4             	mov    -0xc(%rbp),%eax
   12b84:	48 63 c8             	movslq %eax,%rcx
   12b87:	8b 45 f0             	mov    -0x10(%rbp),%eax
   12b8a:	48 63 d0             	movslq %eax,%rdx
   12b8d:	48 89 d0             	mov    %rdx,%rax
   12b90:	48 c1 e0 03          	shl    $0x3,%rax
   12b94:	48 01 d0             	add    %rdx,%rax
   12b97:	48 01 c8             	add    %rcx,%rax
   12b9a:	48 8d 14 85 00 00 00 	lea    0x0(,%rax,4),%rdx
   12ba1:	00 
   12ba2:	48 8d 05 57 61 00 00 	lea    0x6157(%rip),%rax        # 18d00 <g_3935>
   12ba9:	8b 04 02             	mov    (%rdx,%rax,1),%eax
   12bac:	89 c1                	mov    %eax,%ecx
   12bae:	8b 45 fc             	mov    -0x4(%rbp),%eax
   12bb1:	89 c2                	mov    %eax,%edx
   12bb3:	48 8d 35 ef 1f 00 00 	lea    0x1fef(%rip),%rsi        # 14ba9 <g_3574+0x1b19>
   12bba:	48 89 cf             	mov    %rcx,%rdi
   12bbd:	e8 31 6b ff ff       	callq  96f3 <transparent_crc>
   12bc2:	8b 45 f4             	mov    -0xc(%rbp),%eax
   12bc5:	48 63 c8             	movslq %eax,%rcx
   12bc8:	8b 45 f0             	mov    -0x10(%rbp),%eax
   12bcb:	48 63 d0             	movslq %eax,%rdx
   12bce:	48 89 d0             	mov    %rdx,%rax
   12bd1:	48 c1 e0 03          	shl    $0x3,%rax
   12bd5:	48 01 d0             	add    %rdx,%rax
   12bd8:	48 01 c8             	add    %rcx,%rax
   12bdb:	48 8d 14 85 00 00 00 	lea    0x0(,%rax,4),%rdx
   12be2:	00 
   12be3:	48 8d 05 16 61 00 00 	lea    0x6116(%rip),%rax        # 18d00 <g_3935>
   12bea:	8b 04 02             	mov    (%rdx,%rax,1),%eax
   12bed:	89 c1                	mov    %eax,%ecx
   12bef:	8b 45 fc             	mov    -0x4(%rbp),%eax
   12bf2:	89 c2                	mov    %eax,%edx
   12bf4:	48 8d 35 be 1f 00 00 	lea    0x1fbe(%rip),%rsi        # 14bb9 <g_3574+0x1b29>
   12bfb:	48 89 cf             	mov    %rcx,%rdi
   12bfe:	e8 f0 6a ff ff       	callq  96f3 <transparent_crc>
   12c03:	8b 45 f4             	mov    -0xc(%rbp),%eax
   12c06:	48 63 c8             	movslq %eax,%rcx
   12c09:	8b 45 f0             	mov    -0x10(%rbp),%eax
   12c0c:	48 63 d0             	movslq %eax,%rdx
   12c0f:	48 89 d0             	mov    %rdx,%rax
   12c12:	48 c1 e0 03          	shl    $0x3,%rax
   12c16:	48 01 d0             	add    %rdx,%rax
   12c19:	48 01 c8             	add    %rcx,%rax
   12c1c:	48 8d 14 85 00 00 00 	lea    0x0(,%rax,4),%rdx
   12c23:	00 
   12c24:	48 8d 05 d5 60 00 00 	lea    0x60d5(%rip),%rax        # 18d00 <g_3935>
   12c2b:	0f b6 04 02          	movzbl (%rdx,%rax,1),%eax
   12c2f:	0f b6 c0             	movzbl %al,%eax
   12c32:	8b 55 fc             	mov    -0x4(%rbp),%edx
   12c35:	48 8d 35 8d 1f 00 00 	lea    0x1f8d(%rip),%rsi        # 14bc9 <g_3574+0x1b39>
   12c3c:	48 89 c7             	mov    %rax,%rdi
   12c3f:	e8 af 6a ff ff       	callq  96f3 <transparent_crc>
   12c44:	8b 45 f4             	mov    -0xc(%rbp),%eax
   12c47:	48 63 c8             	movslq %eax,%rcx
   12c4a:	8b 45 f0             	mov    -0x10(%rbp),%eax
   12c4d:	48 63 d0             	movslq %eax,%rdx
   12c50:	48 89 d0             	mov    %rdx,%rax
   12c53:	48 c1 e0 03          	shl    $0x3,%rax
   12c57:	48 01 d0             	add    %rdx,%rax
   12c5a:	48 01 c8             	add    %rcx,%rax
   12c5d:	48 8d 14 85 00 00 00 	lea    0x0(,%rax,4),%rdx
   12c64:	00 
   12c65:	48 8d 05 94 60 00 00 	lea    0x6094(%rip),%rax        # 18d00 <g_3935>
   12c6c:	8b 04 02             	mov    (%rdx,%rax,1),%eax
   12c6f:	48 98                	cltq   
   12c71:	8b 55 fc             	mov    -0x4(%rbp),%edx
   12c74:	48 8d 35 5e 1f 00 00 	lea    0x1f5e(%rip),%rsi        # 14bd9 <g_3574+0x1b49>
   12c7b:	48 89 c7             	mov    %rax,%rdi
   12c7e:	e8 70 6a ff ff       	callq  96f3 <transparent_crc>
   12c83:	83 7d fc 00          	cmpl   $0x0,-0x4(%rbp)
   12c87:	74 19                	je     12ca2 <main+0x236f>
   12c89:	8b 55 f4             	mov    -0xc(%rbp),%edx
   12c8c:	8b 45 f0             	mov    -0x10(%rbp),%eax
   12c8f:	89 c6                	mov    %eax,%esi
   12c91:	48 8d 3d de 17 00 00 	lea    0x17de(%rip),%rdi        # 14476 <g_3574+0x13e6>
   12c98:	b8 00 00 00 00       	mov    $0x0,%eax
   12c9d:	e8 de 53 ff ff       	callq  8080 <printf@plt>
   12ca2:	83 45 f4 01          	addl   $0x1,-0xc(%rbp)
   12ca6:	83 7d f4 08          	cmpl   $0x8,-0xc(%rbp)
   12caa:	0f 8e 90 fe ff ff    	jle    12b40 <main+0x220d>
   12cb0:	83 45 f0 01          	addl   $0x1,-0x10(%rbp)
   12cb4:	83 7d f0 09          	cmpl   $0x9,-0x10(%rbp)
   12cb8:	0f 8e 76 fe ff ff    	jle    12b34 <main+0x2201>
   12cbe:	0f b7 05 a3 61 00 00 	movzwl 0x61a3(%rip),%eax        # 18e68 <g_3982>
   12cc5:	48 0f bf c0          	movswq %ax,%rax
   12cc9:	8b 55 fc             	mov    -0x4(%rbp),%edx
   12ccc:	48 8d 35 16 1f 00 00 	lea    0x1f16(%rip),%rsi        # 14be9 <g_3574+0x1b59>
   12cd3:	48 89 c7             	mov    %rax,%rdi
   12cd6:	e8 18 6a ff ff       	callq  96f3 <transparent_crc>
   12cdb:	0f b6 05 8e 61 00 00 	movzbl 0x618e(%rip),%eax        # 18e70 <g_3988>
   12ce2:	48 0f be c0          	movsbq %al,%rax
   12ce6:	8b 55 fc             	mov    -0x4(%rbp),%edx
   12ce9:	48 8d 35 00 1f 00 00 	lea    0x1f00(%rip),%rsi        # 14bf0 <g_3574+0x1b60>
   12cf0:	48 89 c7             	mov    %rax,%rdi
   12cf3:	e8 fb 69 ff ff       	callq  96f3 <transparent_crc>
   12cf8:	c7 45 f0 00 00 00 00 	movl   $0x0,-0x10(%rbp)
   12cff:	eb 4e                	jmp    12d4f <main+0x241c>
   12d01:	8b 45 f0             	mov    -0x10(%rbp),%eax
   12d04:	48 98                	cltq   
   12d06:	48 8d 14 c5 00 00 00 	lea    0x0(,%rax,8),%rdx
   12d0d:	00 
   12d0e:	48 8d 05 6b 61 00 00 	lea    0x616b(%rip),%rax        # 18e80 <g_4025>
   12d15:	0f b6 04 02          	movzbl (%rdx,%rax,1),%eax
   12d19:	48 0f be c0          	movsbq %al,%rax
   12d1d:	8b 55 fc             	mov    -0x4(%rbp),%edx
   12d20:	48 8d 35 d3 1e 00 00 	lea    0x1ed3(%rip),%rsi        # 14bfa <g_3574+0x1b6a>
   12d27:	48 89 c7             	mov    %rax,%rdi
   12d2a:	e8 c4 69 ff ff       	callq  96f3 <transparent_crc>
   12d2f:	83 7d fc 00          	cmpl   $0x0,-0x4(%rbp)
   12d33:	74 16                	je     12d4b <main+0x2418>
   12d35:	8b 45 f0             	mov    -0x10(%rbp),%eax
   12d38:	89 c6                	mov    %eax,%esi
   12d3a:	48 8d 3d ac 16 00 00 	lea    0x16ac(%rip),%rdi        # 143ed <g_3574+0x135d>
   12d41:	b8 00 00 00 00       	mov    $0x0,%eax
   12d46:	e8 35 53 ff ff       	callq  8080 <printf@plt>
   12d4b:	83 45 f0 01          	addl   $0x1,-0x10(%rbp)
   12d4f:	83 7d f0 01          	cmpl   $0x1,-0x10(%rbp)
   12d53:	7e ac                	jle    12d01 <main+0x23ce>
   12d55:	0f b6 05 34 61 00 00 	movzbl 0x6134(%rip),%eax        # 18e90 <g_4139>
   12d5c:	48 0f be c0          	movsbq %al,%rax
   12d60:	8b 55 fc             	mov    -0x4(%rbp),%edx
   12d63:	48 8d 35 9d 1e 00 00 	lea    0x1e9d(%rip),%rsi        # 14c07 <g_3574+0x1b77>
   12d6a:	48 89 c7             	mov    %rax,%rdi
   12d6d:	e8 81 69 ff ff       	callq  96f3 <transparent_crc>
   12d72:	8b 05 20 61 00 00    	mov    0x6120(%rip),%eax        # 18e98 <g_4155>
   12d78:	89 c1                	mov    %eax,%ecx
   12d7a:	8b 45 fc             	mov    -0x4(%rbp),%eax
   12d7d:	89 c2                	mov    %eax,%edx
   12d7f:	48 8d 35 8b 1e 00 00 	lea    0x1e8b(%rip),%rsi        # 14c11 <g_3574+0x1b81>
   12d86:	48 89 cf             	mov    %rcx,%rdi
   12d89:	e8 65 69 ff ff       	callq  96f3 <transparent_crc>
   12d8e:	8b 05 04 61 00 00    	mov    0x6104(%rip),%eax        # 18e98 <g_4155>
   12d94:	89 c1                	mov    %eax,%ecx
   12d96:	8b 45 fc             	mov    -0x4(%rbp),%eax
   12d99:	89 c2                	mov    %eax,%edx
   12d9b:	48 8d 35 79 1e 00 00 	lea    0x1e79(%rip),%rsi        # 14c1b <g_3574+0x1b8b>
   12da2:	48 89 cf             	mov    %rcx,%rdi
   12da5:	e8 49 69 ff ff       	callq  96f3 <transparent_crc>
   12daa:	8b 05 e8 60 00 00    	mov    0x60e8(%rip),%eax        # 18e98 <g_4155>
   12db0:	89 c1                	mov    %eax,%ecx
   12db2:	8b 45 fc             	mov    -0x4(%rbp),%eax
   12db5:	89 c2                	mov    %eax,%edx
   12db7:	48 8d 35 67 1e 00 00 	lea    0x1e67(%rip),%rsi        # 14c25 <g_3574+0x1b95>
   12dbe:	48 89 cf             	mov    %rcx,%rdi
   12dc1:	e8 2d 69 ff ff       	callq  96f3 <transparent_crc>
   12dc6:	0f b6 05 cb 60 00 00 	movzbl 0x60cb(%rip),%eax        # 18e98 <g_4155>
   12dcd:	0f b6 c0             	movzbl %al,%eax
   12dd0:	8b 55 fc             	mov    -0x4(%rbp),%edx
   12dd3:	48 8d 35 55 1e 00 00 	lea    0x1e55(%rip),%rsi        # 14c2f <g_3574+0x1b9f>
   12dda:	48 89 c7             	mov    %rax,%rdi
   12ddd:	e8 11 69 ff ff       	callq  96f3 <transparent_crc>
   12de2:	8b 05 b0 60 00 00    	mov    0x60b0(%rip),%eax        # 18e98 <g_4155>
   12de8:	48 98                	cltq   
   12dea:	8b 55 fc             	mov    -0x4(%rbp),%edx
   12ded:	48 8d 35 45 1e 00 00 	lea    0x1e45(%rip),%rsi        # 14c39 <g_3574+0x1ba9>
   12df4:	48 89 c7             	mov    %rax,%rdi
   12df7:	e8 f7 68 ff ff       	callq  96f3 <transparent_crc>
   12dfc:	c7 45 f0 00 00 00 00 	movl   $0x0,-0x10(%rbp)
   12e03:	e9 ff 00 00 00       	jmpq   12f07 <main+0x25d4>
   12e08:	8b 45 f0             	mov    -0x10(%rbp),%eax
   12e0b:	48 98                	cltq   
   12e0d:	48 8d 14 85 00 00 00 	lea    0x0(,%rax,4),%rdx
   12e14:	00 
   12e15:	48 8d 05 84 60 00 00 	lea    0x6084(%rip),%rax        # 18ea0 <g_4249>
   12e1c:	8b 04 02             	mov    (%rdx,%rax,1),%eax
   12e1f:	89 c1                	mov    %eax,%ecx
   12e21:	8b 45 fc             	mov    -0x4(%rbp),%eax
   12e24:	89 c2                	mov    %eax,%edx
   12e26:	48 8d 35 16 1e 00 00 	lea    0x1e16(%rip),%rsi        # 14c43 <g_3574+0x1bb3>
   12e2d:	48 89 cf             	mov    %rcx,%rdi
   12e30:	e8 be 68 ff ff       	callq  96f3 <transparent_crc>
   12e35:	8b 45 f0             	mov    -0x10(%rbp),%eax
   12e38:	48 98                	cltq   
   12e3a:	48 8d 14 85 00 00 00 	lea    0x0(,%rax,4),%rdx
   12e41:	00 
   12e42:	48 8d 05 57 60 00 00 	lea    0x6057(%rip),%rax        # 18ea0 <g_4249>
   12e49:	8b 04 02             	mov    (%rdx,%rax,1),%eax
   12e4c:	89 c1                	mov    %eax,%ecx
   12e4e:	8b 45 fc             	mov    -0x4(%rbp),%eax
   12e51:	89 c2                	mov    %eax,%edx
   12e53:	48 8d 35 f6 1d 00 00 	lea    0x1df6(%rip),%rsi        # 14c50 <g_3574+0x1bc0>
   12e5a:	48 89 cf             	mov    %rcx,%rdi
   12e5d:	e8 91 68 ff ff       	callq  96f3 <transparent_crc>
   12e62:	8b 45 f0             	mov    -0x10(%rbp),%eax
   12e65:	48 98                	cltq   
   12e67:	48 8d 14 85 00 00 00 	lea    0x0(,%rax,4),%rdx
   12e6e:	00 
   12e6f:	48 8d 05 2a 60 00 00 	lea    0x602a(%rip),%rax        # 18ea0 <g_4249>
   12e76:	8b 04 02             	mov    (%rdx,%rax,1),%eax
   12e79:	89 c1                	mov    %eax,%ecx
   12e7b:	8b 45 fc             	mov    -0x4(%rbp),%eax
   12e7e:	89 c2                	mov    %eax,%edx
   12e80:	48 8d 35 d6 1d 00 00 	lea    0x1dd6(%rip),%rsi        # 14c5d <g_3574+0x1bcd>
   12e87:	48 89 cf             	mov    %rcx,%rdi
   12e8a:	e8 64 68 ff ff       	callq  96f3 <transparent_crc>
   12e8f:	8b 45 f0             	mov    -0x10(%rbp),%eax
   12e92:	48 98                	cltq   
   12e94:	48 8d 14 85 00 00 00 	lea    0x0(,%rax,4),%rdx
   12e9b:	00 
   12e9c:	48 8d 05 fd 5f 00 00 	lea    0x5ffd(%rip),%rax        # 18ea0 <g_4249>
   12ea3:	0f b6 04 02          	movzbl (%rdx,%rax,1),%eax
   12ea7:	0f b6 c0             	movzbl %al,%eax
   12eaa:	8b 55 fc             	mov    -0x4(%rbp),%edx
   12ead:	48 8d 35 b6 1d 00 00 	lea    0x1db6(%rip),%rsi        # 14c6a <g_3574+0x1bda>
   12eb4:	48 89 c7             	mov    %rax,%rdi
   12eb7:	e8 37 68 ff ff       	callq  96f3 <transparent_crc>
   12ebc:	8b 45 f0             	mov    -0x10(%rbp),%eax
   12ebf:	48 98                	cltq   
   12ec1:	48 8d 14 85 00 00 00 	lea    0x0(,%rax,4),%rdx
   12ec8:	00 
   12ec9:	48 8d 05 d0 5f 00 00 	lea    0x5fd0(%rip),%rax        # 18ea0 <g_4249>
   12ed0:	8b 04 02             	mov    (%rdx,%rax,1),%eax
   12ed3:	48 98                	cltq   
   12ed5:	8b 55 fc             	mov    -0x4(%rbp),%edx
   12ed8:	48 8d 35 98 1d 00 00 	lea    0x1d98(%rip),%rsi        # 14c77 <g_3574+0x1be7>
   12edf:	48 89 c7             	mov    %rax,%rdi
   12ee2:	e8 0c 68 ff ff       	callq  96f3 <transparent_crc>
   12ee7:	83 7d fc 00          	cmpl   $0x0,-0x4(%rbp)
   12eeb:	74 16                	je     12f03 <main+0x25d0>
   12eed:	8b 45 f0             	mov    -0x10(%rbp),%eax
   12ef0:	89 c6                	mov    %eax,%esi
   12ef2:	48 8d 3d f4 14 00 00 	lea    0x14f4(%rip),%rdi        # 143ed <g_3574+0x135d>
   12ef9:	b8 00 00 00 00       	mov    $0x0,%eax
   12efe:	e8 7d 51 ff ff       	callq  8080 <printf@plt>
   12f03:	83 45 f0 01          	addl   $0x1,-0x10(%rbp)
   12f07:	83 7d f0 04          	cmpl   $0x4,-0x10(%rbp)
   12f0b:	0f 8e f7 fe ff ff    	jle    12e08 <main+0x24d5>
   12f11:	8b 05 09 41 00 00    	mov    0x4109(%rip),%eax        # 17020 <crc32_context>
   12f17:	f7 d0                	not    %eax
   12f19:	89 c2                	mov    %eax,%edx
   12f1b:	8b 45 fc             	mov    -0x4(%rbp),%eax
   12f1e:	89 c6                	mov    %eax,%esi
   12f20:	89 d7                	mov    %edx,%edi
   12f22:	e8 6d 52 ff ff       	callq  8194 <platform_main_end>
   12f27:	b8 00 00 00 00       	mov    $0x0,%eax
   12f2c:	c9                   	leaveq 
   12f2d:	c3                   	retq   
   12f2e:	66 90                	xchg   %ax,%ax

0000000000012f30 <__libc_csu_init>:
   12f30:	f3 0f 1e fa          	endbr64 
   12f34:	41 57                	push   %r15
   12f36:	4c 8d 3d 5b 3e 00 00 	lea    0x3e5b(%rip),%r15        # 16d98 <__frame_dummy_init_array_entry>
   12f3d:	41 56                	push   %r14
   12f3f:	49 89 d6             	mov    %rdx,%r14
   12f42:	41 55                	push   %r13
   12f44:	49 89 f5             	mov    %rsi,%r13
   12f47:	41 54                	push   %r12
   12f49:	41 89 fc             	mov    %edi,%r12d
   12f4c:	55                   	push   %rbp
   12f4d:	48 8d 2d 4c 3e 00 00 	lea    0x3e4c(%rip),%rbp        # 16da0 <__do_global_dtors_aux_fini_array_entry>
   12f54:	53                   	push   %rbx
   12f55:	4c 29 fd             	sub    %r15,%rbp
   12f58:	48 83 ec 08          	sub    $0x8,%rsp
   12f5c:	e8 9f 50 ff ff       	callq  8000 <_init>
   12f61:	48 c1 fd 03          	sar    $0x3,%rbp
   12f65:	74 1f                	je     12f86 <__libc_csu_init+0x56>
   12f67:	31 db                	xor    %ebx,%ebx
   12f69:	0f 1f 80 00 00 00 00 	nopl   0x0(%rax)
   12f70:	4c 89 f2             	mov    %r14,%rdx
   12f73:	4c 89 ee             	mov    %r13,%rsi
   12f76:	44 89 e7             	mov    %r12d,%edi
   12f79:	41 ff 14 df          	callq  *(%r15,%rbx,8)
   12f7d:	48 83 c3 01          	add    $0x1,%rbx
   12f81:	48 39 dd             	cmp    %rbx,%rbp
   12f84:	75 ea                	jne    12f70 <__libc_csu_init+0x40>
   12f86:	48 83 c4 08          	add    $0x8,%rsp
   12f8a:	5b                   	pop    %rbx
   12f8b:	5d                   	pop    %rbp
   12f8c:	41 5c                	pop    %r12
   12f8e:	41 5d                	pop    %r13
   12f90:	41 5e                	pop    %r14
   12f92:	41 5f                	pop    %r15
   12f94:	c3                   	retq   
   12f95:	66 66 2e 0f 1f 84 00 	data16 nopw %cs:0x0(%rax,%rax,1)
   12f9c:	00 00 00 00 

0000000000012fa0 <__libc_csu_fini>:
   12fa0:	f3 0f 1e fa          	endbr64 
   12fa4:	c3                   	retq   
