


Disassembly of section .text:

00000000000050a0 <_start>:
    50a0:	f3 0f 1e fa          	endbr64 
    50a4:	31 ed                	xor    %ebp,%ebp
    50a6:	49 89 d1             	mov    %rdx,%r9
    50a9:	5e                   	pop    %rsi
    50aa:	48 89 e2             	mov    %rsp,%rdx
    50ad:	48 83 e4 f0          	and    $0xfffffffffffffff0,%rsp
    50b1:	50                   	push   %rax
    50b2:	54                   	push   %rsp
    50b3:	4c 8d 05 96 b8 00 00 	lea    0xb896(%rip),%r8        # 10950 <__libc_csu_fini>
    50ba:	48 8d 0d 1f b8 00 00 	lea    0xb81f(%rip),%rcx        # 108e0 <__libc_csu_init>
    50c1:	48 8d 3d 7e 8c 00 00 	lea    0x8c7e(%rip),%rdi        # dd46 <main>
    50c8:	ff 15 fa 0e 01 00    	callq  *0x10efa(%rip)        # 15fc8 <__libc_start_main@GLIBC_2.2.5>
    50ce:	f4                   	hlt    
    50cf:	90                   	nop

00000000000050d0 <deregister_tm_clones>:
    50d0:	48 8d 3d 29 36 01 00 	lea    0x13629(%rip),%rdi        # 18700 <__TMC_END__>
    50d7:	48 8d 05 22 36 01 00 	lea    0x13622(%rip),%rax        # 18700 <__TMC_END__>
    50de:	48 39 f8             	cmp    %rdi,%rax
    50e1:	74 15                	je     50f8 <deregister_tm_clones+0x28>
    50e3:	48 8b 05 d6 0e 01 00 	mov    0x10ed6(%rip),%rax        # 15fc0 <_ITM_deregisterTMCloneTable>
    50ea:	48 85 c0             	test   %rax,%rax
    50ed:	74 09                	je     50f8 <deregister_tm_clones+0x28>
    50ef:	ff e0                	jmpq   *%rax
    50f1:	0f 1f 80 00 00 00 00 	nopl   0x0(%rax)
    50f8:	c3                   	retq   
    50f9:	0f 1f 80 00 00 00 00 	nopl   0x0(%rax)

0000000000005100 <register_tm_clones>:
    5100:	48 8d 3d f9 35 01 00 	lea    0x135f9(%rip),%rdi        # 18700 <__TMC_END__>
    5107:	48 8d 35 f2 35 01 00 	lea    0x135f2(%rip),%rsi        # 18700 <__TMC_END__>
    510e:	48 29 fe             	sub    %rdi,%rsi
    5111:	48 89 f0             	mov    %rsi,%rax
    5114:	48 c1 ee 3f          	shr    $0x3f,%rsi
    5118:	48 c1 f8 03          	sar    $0x3,%rax
    511c:	48 01 c6             	add    %rax,%rsi
    511f:	48 d1 fe             	sar    %rsi
    5122:	74 14                	je     5138 <register_tm_clones+0x38>
    5124:	48 8b 05 ad 0e 01 00 	mov    0x10ead(%rip),%rax        # 15fd8 <_ITM_registerTMCloneTable>
    512b:	48 85 c0             	test   %rax,%rax
    512e:	74 08                	je     5138 <register_tm_clones+0x38>
    5130:	ff e0                	jmpq   *%rax
    5132:	66 0f 1f 44 00 00    	nopw   0x0(%rax,%rax,1)
    5138:	c3                   	retq   
    5139:	0f 1f 80 00 00 00 00 	nopl   0x0(%rax)

0000000000005140 <__do_global_dtors_aux>:
    5140:	f3 0f 1e fa          	endbr64 
    5144:	80 3d b5 35 01 00 00 	cmpb   $0x0,0x135b5(%rip)        # 18700 <__TMC_END__>
    514b:	75 2b                	jne    5178 <__do_global_dtors_aux+0x38>
    514d:	55                   	push   %rbp
    514e:	48 83 3d 8a 0e 01 00 	cmpq   $0x0,0x10e8a(%rip)        # 15fe0 <__cxa_finalize@GLIBC_2.2.5>
    5155:	00 
    5156:	48 89 e5             	mov    %rsp,%rbp
    5159:	74 0c                	je     5167 <__do_global_dtors_aux+0x27>
    515b:	48 8b 3d a6 0e 01 00 	mov    0x10ea6(%rip),%rdi        # 16008 <__dso_handle>
    5162:	e8 f9 fe ff ff       	callq  5060 <__cxa_finalize@plt>
    5167:	e8 64 ff ff ff       	callq  50d0 <deregister_tm_clones>
    516c:	c6 05 8d 35 01 00 01 	movb   $0x1,0x1358d(%rip)        # 18700 <__TMC_END__>
    5173:	5d                   	pop    %rbp
    5174:	c3                   	retq   
    5175:	0f 1f 00             	nopl   (%rax)
    5178:	c3                   	retq   
    5179:	0f 1f 80 00 00 00 00 	nopl   0x0(%rax)

0000000000005180 <frame_dummy>:
    5180:	f3 0f 1e fa          	endbr64 
    5184:	e9 77 ff ff ff       	jmpq   5100 <register_tm_clones>

0000000000005189 <platform_main_begin>:
    5189:	f3 0f 1e fa          	endbr64 
    518d:	55                   	push   %rbp
    518e:	48 89 e5             	mov    %rsp,%rbp
    5191:	90                   	nop
    5192:	5d                   	pop    %rbp
    5193:	c3                   	retq   

0000000000005194 <platform_main_end>:
    5194:	f3 0f 1e fa          	endbr64 
    5198:	55                   	push   %rbp
    5199:	48 89 e5             	mov    %rsp,%rbp
    519c:	48 83 ec 10          	sub    $0x10,%rsp
    51a0:	89 7d fc             	mov    %edi,-0x4(%rbp)
    51a3:	89 75 f8             	mov    %esi,-0x8(%rbp)
    51a6:	8b 45 fc             	mov    -0x4(%rbp),%eax
    51a9:	89 c6                	mov    %eax,%esi
    51ab:	48 8d 3d 6e be 00 00 	lea    0xbe6e(%rip),%rdi        # 11020 <_IO_stdin_used+0x20>
    51b2:	b8 00 00 00 00       	mov    $0x0,%eax
    51b7:	e8 c4 fe ff ff       	callq  5080 <printf@plt>
    51bc:	90                   	nop
    51bd:	c9                   	leaveq 
    51be:	c3                   	retq   

00000000000051bf <safe_unary_minus_func_int8_t_s>:
    51bf:	f3 0f 1e fa          	endbr64 
    51c3:	55                   	push   %rbp
    51c4:	48 89 e5             	mov    %rsp,%rbp
    51c7:	89 f8                	mov    %edi,%eax
    51c9:	88 45 fc             	mov    %al,-0x4(%rbp)
    51cc:	0f b6 45 fc          	movzbl -0x4(%rbp),%eax
    51d0:	f7 d8                	neg    %eax
    51d2:	5d                   	pop    %rbp
    51d3:	c3                   	retq   

00000000000051d4 <safe_add_func_int8_t_s_s>:
    51d4:	f3 0f 1e fa          	endbr64 
    51d8:	55                   	push   %rbp
    51d9:	48 89 e5             	mov    %rsp,%rbp
    51dc:	89 fa                	mov    %edi,%edx
    51de:	89 f0                	mov    %esi,%eax
    51e0:	88 55 fc             	mov    %dl,-0x4(%rbp)
    51e3:	88 45 f8             	mov    %al,-0x8(%rbp)
    51e6:	0f b6 55 fc          	movzbl -0x4(%rbp),%edx
    51ea:	0f b6 45 f8          	movzbl -0x8(%rbp),%eax
    51ee:	01 d0                	add    %edx,%eax
    51f0:	5d                   	pop    %rbp
    51f1:	c3                   	retq   

00000000000051f2 <safe_sub_func_int8_t_s_s>:
    51f2:	f3 0f 1e fa          	endbr64 
    51f6:	55                   	push   %rbp
    51f7:	48 89 e5             	mov    %rsp,%rbp
    51fa:	89 fa                	mov    %edi,%edx
    51fc:	89 f0                	mov    %esi,%eax
    51fe:	88 55 fc             	mov    %dl,-0x4(%rbp)
    5201:	88 45 f8             	mov    %al,-0x8(%rbp)
    5204:	0f b6 55 fc          	movzbl -0x4(%rbp),%edx
    5208:	0f b6 45 f8          	movzbl -0x8(%rbp),%eax
    520c:	29 c2                	sub    %eax,%edx
    520e:	89 d0                	mov    %edx,%eax
    5210:	5d                   	pop    %rbp
    5211:	c3                   	retq   

0000000000005212 <safe_mul_func_int8_t_s_s>:
    5212:	f3 0f 1e fa          	endbr64 
    5216:	55                   	push   %rbp
    5217:	48 89 e5             	mov    %rsp,%rbp
    521a:	89 fa                	mov    %edi,%edx
    521c:	89 f0                	mov    %esi,%eax
    521e:	88 55 fc             	mov    %dl,-0x4(%rbp)
    5221:	88 45 f8             	mov    %al,-0x8(%rbp)
    5224:	0f b6 45 fc          	movzbl -0x4(%rbp),%eax
    5228:	0f b6 55 f8          	movzbl -0x8(%rbp),%edx
    522c:	0f af c2             	imul   %edx,%eax
    522f:	5d                   	pop    %rbp
    5230:	c3                   	retq   

0000000000005231 <safe_mod_func_int8_t_s_s>:
    5231:	f3 0f 1e fa          	endbr64 
    5235:	55                   	push   %rbp
    5236:	48 89 e5             	mov    %rsp,%rbp
    5239:	89 fa                	mov    %edi,%edx
    523b:	89 f0                	mov    %esi,%eax
    523d:	88 55 fc             	mov    %dl,-0x4(%rbp)
    5240:	88 45 f8             	mov    %al,-0x8(%rbp)
    5243:	80 7d f8 00          	cmpb   $0x0,-0x8(%rbp)
    5247:	74 1b                	je     5264 <safe_mod_func_int8_t_s_s+0x33>
    5249:	80 7d fc 80          	cmpb   $0x80,-0x4(%rbp)
    524d:	75 06                	jne    5255 <safe_mod_func_int8_t_s_s+0x24>
    524f:	80 7d f8 ff          	cmpb   $0xff,-0x8(%rbp)
    5253:	74 0f                	je     5264 <safe_mod_func_int8_t_s_s+0x33>
    5255:	0f be 45 fc          	movsbl -0x4(%rbp),%eax
    5259:	0f be 4d f8          	movsbl -0x8(%rbp),%ecx
    525d:	99                   	cltd   
    525e:	f7 f9                	idiv   %ecx
    5260:	89 d0                	mov    %edx,%eax
    5262:	eb 04                	jmp    5268 <safe_mod_func_int8_t_s_s+0x37>
    5264:	0f b6 45 fc          	movzbl -0x4(%rbp),%eax
    5268:	5d                   	pop    %rbp
    5269:	c3                   	retq   

000000000000526a <safe_div_func_int8_t_s_s>:
    526a:	f3 0f 1e fa          	endbr64 
    526e:	55                   	push   %rbp
    526f:	48 89 e5             	mov    %rsp,%rbp
    5272:	89 fa                	mov    %edi,%edx
    5274:	89 f0                	mov    %esi,%eax
    5276:	88 55 fc             	mov    %dl,-0x4(%rbp)
    5279:	88 45 f8             	mov    %al,-0x8(%rbp)
    527c:	80 7d f8 00          	cmpb   $0x0,-0x8(%rbp)
    5280:	74 19                	je     529b <safe_div_func_int8_t_s_s+0x31>
    5282:	80 7d fc 80          	cmpb   $0x80,-0x4(%rbp)
    5286:	75 06                	jne    528e <safe_div_func_int8_t_s_s+0x24>
    5288:	80 7d f8 ff          	cmpb   $0xff,-0x8(%rbp)
    528c:	74 0d                	je     529b <safe_div_func_int8_t_s_s+0x31>
    528e:	0f be 45 fc          	movsbl -0x4(%rbp),%eax
    5292:	0f be 4d f8          	movsbl -0x8(%rbp),%ecx
    5296:	99                   	cltd   
    5297:	f7 f9                	idiv   %ecx
    5299:	eb 04                	jmp    529f <safe_div_func_int8_t_s_s+0x35>
    529b:	0f b6 45 fc          	movzbl -0x4(%rbp),%eax
    529f:	5d                   	pop    %rbp
    52a0:	c3                   	retq   

00000000000052a1 <safe_lshift_func_int8_t_s_s>:
    52a1:	f3 0f 1e fa          	endbr64 
    52a5:	55                   	push   %rbp
    52a6:	48 89 e5             	mov    %rsp,%rbp
    52a9:	89 f8                	mov    %edi,%eax
    52ab:	89 75 f8             	mov    %esi,-0x8(%rbp)
    52ae:	88 45 fc             	mov    %al,-0x4(%rbp)
    52b1:	80 7d fc 00          	cmpb   $0x0,-0x4(%rbp)
    52b5:	78 31                	js     52e8 <safe_lshift_func_int8_t_s_s+0x47>
    52b7:	83 7d f8 00          	cmpl   $0x0,-0x8(%rbp)
    52bb:	78 2b                	js     52e8 <safe_lshift_func_int8_t_s_s+0x47>
    52bd:	83 7d f8 1f          	cmpl   $0x1f,-0x8(%rbp)
    52c1:	7f 25                	jg     52e8 <safe_lshift_func_int8_t_s_s+0x47>
    52c3:	0f be 55 fc          	movsbl -0x4(%rbp),%edx
    52c7:	8b 45 f8             	mov    -0x8(%rbp),%eax
    52ca:	be 7f 00 00 00       	mov    $0x7f,%esi
    52cf:	89 c1                	mov    %eax,%ecx
    52d1:	d3 fe                	sar    %cl,%esi
    52d3:	89 f0                	mov    %esi,%eax
    52d5:	39 c2                	cmp    %eax,%edx
    52d7:	7f 0f                	jg     52e8 <safe_lshift_func_int8_t_s_s+0x47>
    52d9:	0f be 55 fc          	movsbl -0x4(%rbp),%edx
    52dd:	8b 45 f8             	mov    -0x8(%rbp),%eax
    52e0:	89 c1                	mov    %eax,%ecx
    52e2:	d3 e2                	shl    %cl,%edx
    52e4:	89 d0                	mov    %edx,%eax
    52e6:	eb 04                	jmp    52ec <safe_lshift_func_int8_t_s_s+0x4b>
    52e8:	0f b6 45 fc          	movzbl -0x4(%rbp),%eax
    52ec:	5d                   	pop    %rbp
    52ed:	c3                   	retq   

00000000000052ee <safe_lshift_func_int8_t_s_u>:
    52ee:	f3 0f 1e fa          	endbr64 
    52f2:	55                   	push   %rbp
    52f3:	48 89 e5             	mov    %rsp,%rbp
    52f6:	89 f8                	mov    %edi,%eax
    52f8:	89 75 f8             	mov    %esi,-0x8(%rbp)
    52fb:	88 45 fc             	mov    %al,-0x4(%rbp)
    52fe:	80 7d fc 00          	cmpb   $0x0,-0x4(%rbp)
    5302:	78 2b                	js     532f <safe_lshift_func_int8_t_s_u+0x41>
    5304:	83 7d f8 1f          	cmpl   $0x1f,-0x8(%rbp)
    5308:	77 25                	ja     532f <safe_lshift_func_int8_t_s_u+0x41>
    530a:	0f be 55 fc          	movsbl -0x4(%rbp),%edx
    530e:	8b 45 f8             	mov    -0x8(%rbp),%eax
    5311:	be 7f 00 00 00       	mov    $0x7f,%esi
    5316:	89 c1                	mov    %eax,%ecx
    5318:	d3 fe                	sar    %cl,%esi
    531a:	89 f0                	mov    %esi,%eax
    531c:	39 c2                	cmp    %eax,%edx
    531e:	7f 0f                	jg     532f <safe_lshift_func_int8_t_s_u+0x41>
    5320:	0f be 55 fc          	movsbl -0x4(%rbp),%edx
    5324:	8b 45 f8             	mov    -0x8(%rbp),%eax
    5327:	89 c1                	mov    %eax,%ecx
    5329:	d3 e2                	shl    %cl,%edx
    532b:	89 d0                	mov    %edx,%eax
    532d:	eb 04                	jmp    5333 <safe_lshift_func_int8_t_s_u+0x45>
    532f:	0f b6 45 fc          	movzbl -0x4(%rbp),%eax
    5333:	5d                   	pop    %rbp
    5334:	c3                   	retq   

0000000000005335 <safe_rshift_func_int8_t_s_s>:
    5335:	f3 0f 1e fa          	endbr64 
    5339:	55                   	push   %rbp
    533a:	48 89 e5             	mov    %rsp,%rbp
    533d:	89 f8                	mov    %edi,%eax
    533f:	89 75 f8             	mov    %esi,-0x8(%rbp)
    5342:	88 45 fc             	mov    %al,-0x4(%rbp)
    5345:	80 7d fc 00          	cmpb   $0x0,-0x4(%rbp)
    5349:	78 1b                	js     5366 <safe_rshift_func_int8_t_s_s+0x31>
    534b:	83 7d f8 00          	cmpl   $0x0,-0x8(%rbp)
    534f:	78 15                	js     5366 <safe_rshift_func_int8_t_s_s+0x31>
    5351:	83 7d f8 1f          	cmpl   $0x1f,-0x8(%rbp)
    5355:	7f 0f                	jg     5366 <safe_rshift_func_int8_t_s_s+0x31>
    5357:	0f be 55 fc          	movsbl -0x4(%rbp),%edx
    535b:	8b 45 f8             	mov    -0x8(%rbp),%eax
    535e:	89 c1                	mov    %eax,%ecx
    5360:	d3 fa                	sar    %cl,%edx
    5362:	89 d0                	mov    %edx,%eax
    5364:	eb 04                	jmp    536a <safe_rshift_func_int8_t_s_s+0x35>
    5366:	0f b6 45 fc          	movzbl -0x4(%rbp),%eax
    536a:	5d                   	pop    %rbp
    536b:	c3                   	retq   

000000000000536c <safe_rshift_func_int8_t_s_u>:
    536c:	f3 0f 1e fa          	endbr64 
    5370:	55                   	push   %rbp
    5371:	48 89 e5             	mov    %rsp,%rbp
    5374:	89 f8                	mov    %edi,%eax
    5376:	89 75 f8             	mov    %esi,-0x8(%rbp)
    5379:	88 45 fc             	mov    %al,-0x4(%rbp)
    537c:	80 7d fc 00          	cmpb   $0x0,-0x4(%rbp)
    5380:	78 15                	js     5397 <safe_rshift_func_int8_t_s_u+0x2b>
    5382:	83 7d f8 1f          	cmpl   $0x1f,-0x8(%rbp)
    5386:	77 0f                	ja     5397 <safe_rshift_func_int8_t_s_u+0x2b>
    5388:	0f be 55 fc          	movsbl -0x4(%rbp),%edx
    538c:	8b 45 f8             	mov    -0x8(%rbp),%eax
    538f:	89 c1                	mov    %eax,%ecx
    5391:	d3 fa                	sar    %cl,%edx
    5393:	89 d0                	mov    %edx,%eax
    5395:	eb 04                	jmp    539b <safe_rshift_func_int8_t_s_u+0x2f>
    5397:	0f b6 45 fc          	movzbl -0x4(%rbp),%eax
    539b:	5d                   	pop    %rbp
    539c:	c3                   	retq   

000000000000539d <safe_unary_minus_func_int16_t_s>:
    539d:	f3 0f 1e fa          	endbr64 
    53a1:	55                   	push   %rbp
    53a2:	48 89 e5             	mov    %rsp,%rbp
    53a5:	89 f8                	mov    %edi,%eax
    53a7:	66 89 45 fc          	mov    %ax,-0x4(%rbp)
    53ab:	0f b7 45 fc          	movzwl -0x4(%rbp),%eax
    53af:	f7 d8                	neg    %eax
    53b1:	5d                   	pop    %rbp
    53b2:	c3                   	retq   

00000000000053b3 <safe_add_func_int16_t_s_s>:
    53b3:	f3 0f 1e fa          	endbr64 
    53b7:	55                   	push   %rbp
    53b8:	48 89 e5             	mov    %rsp,%rbp
    53bb:	89 fa                	mov    %edi,%edx
    53bd:	89 f0                	mov    %esi,%eax
    53bf:	66 89 55 fc          	mov    %dx,-0x4(%rbp)
    53c3:	66 89 45 f8          	mov    %ax,-0x8(%rbp)
    53c7:	0f b7 55 fc          	movzwl -0x4(%rbp),%edx
    53cb:	0f b7 45 f8          	movzwl -0x8(%rbp),%eax
    53cf:	01 d0                	add    %edx,%eax
    53d1:	5d                   	pop    %rbp
    53d2:	c3                   	retq   

00000000000053d3 <safe_sub_func_int16_t_s_s>:
    53d3:	f3 0f 1e fa          	endbr64 
    53d7:	55                   	push   %rbp
    53d8:	48 89 e5             	mov    %rsp,%rbp
    53db:	89 fa                	mov    %edi,%edx
    53dd:	89 f0                	mov    %esi,%eax
    53df:	66 89 55 fc          	mov    %dx,-0x4(%rbp)
    53e3:	66 89 45 f8          	mov    %ax,-0x8(%rbp)
    53e7:	0f b7 55 fc          	movzwl -0x4(%rbp),%edx
    53eb:	0f b7 45 f8          	movzwl -0x8(%rbp),%eax
    53ef:	29 c2                	sub    %eax,%edx
    53f1:	89 d0                	mov    %edx,%eax
    53f3:	5d                   	pop    %rbp
    53f4:	c3                   	retq   

00000000000053f5 <safe_mul_func_int16_t_s_s>:
    53f5:	f3 0f 1e fa          	endbr64 
    53f9:	55                   	push   %rbp
    53fa:	48 89 e5             	mov    %rsp,%rbp
    53fd:	89 fa                	mov    %edi,%edx
    53ff:	89 f0                	mov    %esi,%eax
    5401:	66 89 55 fc          	mov    %dx,-0x4(%rbp)
    5405:	66 89 45 f8          	mov    %ax,-0x8(%rbp)
    5409:	0f b7 55 fc          	movzwl -0x4(%rbp),%edx
    540d:	0f b7 45 f8          	movzwl -0x8(%rbp),%eax
    5411:	0f af c2             	imul   %edx,%eax
    5414:	5d                   	pop    %rbp
    5415:	c3                   	retq   

0000000000005416 <safe_mod_func_int16_t_s_s>:
    5416:	f3 0f 1e fa          	endbr64 
    541a:	55                   	push   %rbp
    541b:	48 89 e5             	mov    %rsp,%rbp
    541e:	89 fa                	mov    %edi,%edx
    5420:	89 f0                	mov    %esi,%eax
    5422:	66 89 55 fc          	mov    %dx,-0x4(%rbp)
    5426:	66 89 45 f8          	mov    %ax,-0x8(%rbp)
    542a:	66 83 7d f8 00       	cmpw   $0x0,-0x8(%rbp)
    542f:	74 1e                	je     544f <safe_mod_func_int16_t_s_s+0x39>
    5431:	66 81 7d fc 00 80    	cmpw   $0x8000,-0x4(%rbp)
    5437:	75 07                	jne    5440 <safe_mod_func_int16_t_s_s+0x2a>
    5439:	66 83 7d f8 ff       	cmpw   $0xffff,-0x8(%rbp)
    543e:	74 0f                	je     544f <safe_mod_func_int16_t_s_s+0x39>
    5440:	0f bf 45 fc          	movswl -0x4(%rbp),%eax
    5444:	0f bf 4d f8          	movswl -0x8(%rbp),%ecx
    5448:	99                   	cltd   
    5449:	f7 f9                	idiv   %ecx
    544b:	89 d0                	mov    %edx,%eax
    544d:	eb 04                	jmp    5453 <safe_mod_func_int16_t_s_s+0x3d>
    544f:	0f b7 45 fc          	movzwl -0x4(%rbp),%eax
    5453:	5d                   	pop    %rbp
    5454:	c3                   	retq   

0000000000005455 <safe_div_func_int16_t_s_s>:
    5455:	f3 0f 1e fa          	endbr64 
    5459:	55                   	push   %rbp
    545a:	48 89 e5             	mov    %rsp,%rbp
    545d:	89 fa                	mov    %edi,%edx
    545f:	89 f0                	mov    %esi,%eax
    5461:	66 89 55 fc          	mov    %dx,-0x4(%rbp)
    5465:	66 89 45 f8          	mov    %ax,-0x8(%rbp)
    5469:	66 83 7d f8 00       	cmpw   $0x0,-0x8(%rbp)
    546e:	74 1c                	je     548c <safe_div_func_int16_t_s_s+0x37>
    5470:	66 81 7d fc 00 80    	cmpw   $0x8000,-0x4(%rbp)
    5476:	75 07                	jne    547f <safe_div_func_int16_t_s_s+0x2a>
    5478:	66 83 7d f8 ff       	cmpw   $0xffff,-0x8(%rbp)
    547d:	74 0d                	je     548c <safe_div_func_int16_t_s_s+0x37>
    547f:	0f bf 45 fc          	movswl -0x4(%rbp),%eax
    5483:	0f bf 4d f8          	movswl -0x8(%rbp),%ecx
    5487:	99                   	cltd   
    5488:	f7 f9                	idiv   %ecx
    548a:	eb 04                	jmp    5490 <safe_div_func_int16_t_s_s+0x3b>
    548c:	0f b7 45 fc          	movzwl -0x4(%rbp),%eax
    5490:	5d                   	pop    %rbp
    5491:	c3                   	retq   

0000000000005492 <safe_lshift_func_int16_t_s_s>:
    5492:	f3 0f 1e fa          	endbr64 
    5496:	55                   	push   %rbp
    5497:	48 89 e5             	mov    %rsp,%rbp
    549a:	89 f8                	mov    %edi,%eax
    549c:	89 75 f8             	mov    %esi,-0x8(%rbp)
    549f:	66 89 45 fc          	mov    %ax,-0x4(%rbp)
    54a3:	66 83 7d fc 00       	cmpw   $0x0,-0x4(%rbp)
    54a8:	78 31                	js     54db <safe_lshift_func_int16_t_s_s+0x49>
    54aa:	83 7d f8 00          	cmpl   $0x0,-0x8(%rbp)
    54ae:	78 2b                	js     54db <safe_lshift_func_int16_t_s_s+0x49>
    54b0:	83 7d f8 1f          	cmpl   $0x1f,-0x8(%rbp)
    54b4:	7f 25                	jg     54db <safe_lshift_func_int16_t_s_s+0x49>
    54b6:	0f bf 55 fc          	movswl -0x4(%rbp),%edx
    54ba:	8b 45 f8             	mov    -0x8(%rbp),%eax
    54bd:	be ff 7f 00 00       	mov    $0x7fff,%esi
    54c2:	89 c1                	mov    %eax,%ecx
    54c4:	d3 fe                	sar    %cl,%esi
    54c6:	89 f0                	mov    %esi,%eax
    54c8:	39 c2                	cmp    %eax,%edx
    54ca:	7f 0f                	jg     54db <safe_lshift_func_int16_t_s_s+0x49>
    54cc:	0f bf 55 fc          	movswl -0x4(%rbp),%edx
    54d0:	8b 45 f8             	mov    -0x8(%rbp),%eax
    54d3:	89 c1                	mov    %eax,%ecx
    54d5:	d3 e2                	shl    %cl,%edx
    54d7:	89 d0                	mov    %edx,%eax
    54d9:	eb 04                	jmp    54df <safe_lshift_func_int16_t_s_s+0x4d>
    54db:	0f b7 45 fc          	movzwl -0x4(%rbp),%eax
    54df:	5d                   	pop    %rbp
    54e0:	c3                   	retq   

00000000000054e1 <safe_lshift_func_int16_t_s_u>:
    54e1:	f3 0f 1e fa          	endbr64 
    54e5:	55                   	push   %rbp
    54e6:	48 89 e5             	mov    %rsp,%rbp
    54e9:	89 f8                	mov    %edi,%eax
    54eb:	89 75 f8             	mov    %esi,-0x8(%rbp)
    54ee:	66 89 45 fc          	mov    %ax,-0x4(%rbp)
    54f2:	66 83 7d fc 00       	cmpw   $0x0,-0x4(%rbp)
    54f7:	78 2b                	js     5524 <safe_lshift_func_int16_t_s_u+0x43>
    54f9:	83 7d f8 1f          	cmpl   $0x1f,-0x8(%rbp)
    54fd:	77 25                	ja     5524 <safe_lshift_func_int16_t_s_u+0x43>
    54ff:	0f bf 55 fc          	movswl -0x4(%rbp),%edx
    5503:	8b 45 f8             	mov    -0x8(%rbp),%eax
    5506:	be ff 7f 00 00       	mov    $0x7fff,%esi
    550b:	89 c1                	mov    %eax,%ecx
    550d:	d3 fe                	sar    %cl,%esi
    550f:	89 f0                	mov    %esi,%eax
    5511:	39 c2                	cmp    %eax,%edx
    5513:	7f 0f                	jg     5524 <safe_lshift_func_int16_t_s_u+0x43>
    5515:	0f bf 55 fc          	movswl -0x4(%rbp),%edx
    5519:	8b 45 f8             	mov    -0x8(%rbp),%eax
    551c:	89 c1                	mov    %eax,%ecx
    551e:	d3 e2                	shl    %cl,%edx
    5520:	89 d0                	mov    %edx,%eax
    5522:	eb 04                	jmp    5528 <safe_lshift_func_int16_t_s_u+0x47>
    5524:	0f b7 45 fc          	movzwl -0x4(%rbp),%eax
    5528:	5d                   	pop    %rbp
    5529:	c3                   	retq   

000000000000552a <safe_rshift_func_int16_t_s_s>:
    552a:	f3 0f 1e fa          	endbr64 
    552e:	55                   	push   %rbp
    552f:	48 89 e5             	mov    %rsp,%rbp
    5532:	89 f8                	mov    %edi,%eax
    5534:	89 75 f8             	mov    %esi,-0x8(%rbp)
    5537:	66 89 45 fc          	mov    %ax,-0x4(%rbp)
    553b:	66 83 7d fc 00       	cmpw   $0x0,-0x4(%rbp)
    5540:	78 1b                	js     555d <safe_rshift_func_int16_t_s_s+0x33>
    5542:	83 7d f8 00          	cmpl   $0x0,-0x8(%rbp)
    5546:	78 15                	js     555d <safe_rshift_func_int16_t_s_s+0x33>
    5548:	83 7d f8 1f          	cmpl   $0x1f,-0x8(%rbp)
    554c:	7f 0f                	jg     555d <safe_rshift_func_int16_t_s_s+0x33>
    554e:	0f bf 55 fc          	movswl -0x4(%rbp),%edx
    5552:	8b 45 f8             	mov    -0x8(%rbp),%eax
    5555:	89 c1                	mov    %eax,%ecx
    5557:	d3 fa                	sar    %cl,%edx
    5559:	89 d0                	mov    %edx,%eax
    555b:	eb 04                	jmp    5561 <safe_rshift_func_int16_t_s_s+0x37>
    555d:	0f b7 45 fc          	movzwl -0x4(%rbp),%eax
    5561:	5d                   	pop    %rbp
    5562:	c3                   	retq   

0000000000005563 <safe_rshift_func_int16_t_s_u>:
    5563:	f3 0f 1e fa          	endbr64 
    5567:	55                   	push   %rbp
    5568:	48 89 e5             	mov    %rsp,%rbp
    556b:	89 f8                	mov    %edi,%eax
    556d:	89 75 f8             	mov    %esi,-0x8(%rbp)
    5570:	66 89 45 fc          	mov    %ax,-0x4(%rbp)
    5574:	66 83 7d fc 00       	cmpw   $0x0,-0x4(%rbp)
    5579:	78 15                	js     5590 <safe_rshift_func_int16_t_s_u+0x2d>
    557b:	83 7d f8 1f          	cmpl   $0x1f,-0x8(%rbp)
    557f:	77 0f                	ja     5590 <safe_rshift_func_int16_t_s_u+0x2d>
    5581:	0f bf 55 fc          	movswl -0x4(%rbp),%edx
    5585:	8b 45 f8             	mov    -0x8(%rbp),%eax
    5588:	89 c1                	mov    %eax,%ecx
    558a:	d3 fa                	sar    %cl,%edx
    558c:	89 d0                	mov    %edx,%eax
    558e:	eb 04                	jmp    5594 <safe_rshift_func_int16_t_s_u+0x31>
    5590:	0f b7 45 fc          	movzwl -0x4(%rbp),%eax
    5594:	5d                   	pop    %rbp
    5595:	c3                   	retq   

0000000000005596 <safe_unary_minus_func_int32_t_s>:
    5596:	f3 0f 1e fa          	endbr64 
    559a:	55                   	push   %rbp
    559b:	48 89 e5             	mov    %rsp,%rbp
    559e:	89 7d fc             	mov    %edi,-0x4(%rbp)
    55a1:	81 7d fc 00 00 00 80 	cmpl   $0x80000000,-0x4(%rbp)
    55a8:	74 07                	je     55b1 <safe_unary_minus_func_int32_t_s+0x1b>
    55aa:	8b 45 fc             	mov    -0x4(%rbp),%eax
    55ad:	f7 d8                	neg    %eax
    55af:	eb 03                	jmp    55b4 <safe_unary_minus_func_int32_t_s+0x1e>
    55b1:	8b 45 fc             	mov    -0x4(%rbp),%eax
    55b4:	5d                   	pop    %rbp
    55b5:	c3                   	retq   

00000000000055b6 <safe_add_func_int32_t_s_s>:
    55b6:	f3 0f 1e fa          	endbr64 
    55ba:	55                   	push   %rbp
    55bb:	48 89 e5             	mov    %rsp,%rbp
    55be:	89 7d fc             	mov    %edi,-0x4(%rbp)
    55c1:	89 75 f8             	mov    %esi,-0x8(%rbp)
    55c4:	83 7d fc 00          	cmpl   $0x0,-0x4(%rbp)
    55c8:	7e 13                	jle    55dd <safe_add_func_int32_t_s_s+0x27>
    55ca:	83 7d f8 00          	cmpl   $0x0,-0x8(%rbp)
    55ce:	7e 0d                	jle    55dd <safe_add_func_int32_t_s_s+0x27>
    55d0:	b8 ff ff ff 7f       	mov    $0x7fffffff,%eax
    55d5:	2b 45 f8             	sub    -0x8(%rbp),%eax
    55d8:	39 45 fc             	cmp    %eax,-0x4(%rbp)
    55db:	7f 23                	jg     5600 <safe_add_func_int32_t_s_s+0x4a>
    55dd:	83 7d fc 00          	cmpl   $0x0,-0x4(%rbp)
    55e1:	79 13                	jns    55f6 <safe_add_func_int32_t_s_s+0x40>
    55e3:	83 7d f8 00          	cmpl   $0x0,-0x8(%rbp)
    55e7:	79 0d                	jns    55f6 <safe_add_func_int32_t_s_s+0x40>
    55e9:	b8 00 00 00 80       	mov    $0x80000000,%eax
    55ee:	2b 45 f8             	sub    -0x8(%rbp),%eax
    55f1:	39 45 fc             	cmp    %eax,-0x4(%rbp)
    55f4:	7c 0a                	jl     5600 <safe_add_func_int32_t_s_s+0x4a>
    55f6:	8b 55 fc             	mov    -0x4(%rbp),%edx
    55f9:	8b 45 f8             	mov    -0x8(%rbp),%eax
    55fc:	01 d0                	add    %edx,%eax
    55fe:	eb 03                	jmp    5603 <safe_add_func_int32_t_s_s+0x4d>
    5600:	8b 45 fc             	mov    -0x4(%rbp),%eax
    5603:	5d                   	pop    %rbp
    5604:	c3                   	retq   

0000000000005605 <safe_sub_func_int32_t_s_s>:
    5605:	f3 0f 1e fa          	endbr64 
    5609:	55                   	push   %rbp
    560a:	48 89 e5             	mov    %rsp,%rbp
    560d:	89 7d fc             	mov    %edi,-0x4(%rbp)
    5610:	89 75 f8             	mov    %esi,-0x8(%rbp)
    5613:	8b 45 fc             	mov    -0x4(%rbp),%eax
    5616:	33 45 f8             	xor    -0x8(%rbp),%eax
    5619:	89 c2                	mov    %eax,%edx
    561b:	8b 45 fc             	mov    -0x4(%rbp),%eax
    561e:	33 45 f8             	xor    -0x8(%rbp),%eax
    5621:	25 00 00 00 80       	and    $0x80000000,%eax
    5626:	33 45 fc             	xor    -0x4(%rbp),%eax
    5629:	2b 45 f8             	sub    -0x8(%rbp),%eax
    562c:	33 45 f8             	xor    -0x8(%rbp),%eax
    562f:	21 d0                	and    %edx,%eax
    5631:	85 c0                	test   %eax,%eax
    5633:	78 08                	js     563d <safe_sub_func_int32_t_s_s+0x38>
    5635:	8b 45 fc             	mov    -0x4(%rbp),%eax
    5638:	2b 45 f8             	sub    -0x8(%rbp),%eax
    563b:	eb 03                	jmp    5640 <safe_sub_func_int32_t_s_s+0x3b>
    563d:	8b 45 fc             	mov    -0x4(%rbp),%eax
    5640:	5d                   	pop    %rbp
    5641:	c3                   	retq   

0000000000005642 <safe_mul_func_int32_t_s_s>:
    5642:	f3 0f 1e fa          	endbr64 
    5646:	55                   	push   %rbp
    5647:	48 89 e5             	mov    %rsp,%rbp
    564a:	89 7d fc             	mov    %edi,-0x4(%rbp)
    564d:	89 75 f8             	mov    %esi,-0x8(%rbp)
    5650:	83 7d fc 00          	cmpl   $0x0,-0x4(%rbp)
    5654:	7e 14                	jle    566a <safe_mul_func_int32_t_s_s+0x28>
    5656:	83 7d f8 00          	cmpl   $0x0,-0x8(%rbp)
    565a:	7e 0e                	jle    566a <safe_mul_func_int32_t_s_s+0x28>
    565c:	b8 ff ff ff 7f       	mov    $0x7fffffff,%eax
    5661:	99                   	cltd   
    5662:	f7 7d f8             	idivl  -0x8(%rbp)
    5665:	39 45 fc             	cmp    %eax,-0x4(%rbp)
    5668:	7f 5d                	jg     56c7 <safe_mul_func_int32_t_s_s+0x85>
    566a:	83 7d fc 00          	cmpl   $0x0,-0x4(%rbp)
    566e:	7e 14                	jle    5684 <safe_mul_func_int32_t_s_s+0x42>
    5670:	83 7d f8 00          	cmpl   $0x0,-0x8(%rbp)
    5674:	7f 0e                	jg     5684 <safe_mul_func_int32_t_s_s+0x42>
    5676:	b8 00 00 00 80       	mov    $0x80000000,%eax
    567b:	99                   	cltd   
    567c:	f7 7d fc             	idivl  -0x4(%rbp)
    567f:	39 45 f8             	cmp    %eax,-0x8(%rbp)
    5682:	7c 43                	jl     56c7 <safe_mul_func_int32_t_s_s+0x85>
    5684:	83 7d fc 00          	cmpl   $0x0,-0x4(%rbp)
    5688:	7f 14                	jg     569e <safe_mul_func_int32_t_s_s+0x5c>
    568a:	83 7d f8 00          	cmpl   $0x0,-0x8(%rbp)
    568e:	7e 0e                	jle    569e <safe_mul_func_int32_t_s_s+0x5c>
    5690:	b8 00 00 00 80       	mov    $0x80000000,%eax
    5695:	99                   	cltd   
    5696:	f7 7d f8             	idivl  -0x8(%rbp)
    5699:	39 45 fc             	cmp    %eax,-0x4(%rbp)
    569c:	7c 29                	jl     56c7 <safe_mul_func_int32_t_s_s+0x85>
    569e:	83 7d fc 00          	cmpl   $0x0,-0x4(%rbp)
    56a2:	7f 1a                	jg     56be <safe_mul_func_int32_t_s_s+0x7c>
    56a4:	83 7d f8 00          	cmpl   $0x0,-0x8(%rbp)
    56a8:	7f 14                	jg     56be <safe_mul_func_int32_t_s_s+0x7c>
    56aa:	83 7d fc 00          	cmpl   $0x0,-0x4(%rbp)
    56ae:	74 0e                	je     56be <safe_mul_func_int32_t_s_s+0x7c>
    56b0:	b8 ff ff ff 7f       	mov    $0x7fffffff,%eax
    56b5:	99                   	cltd   
    56b6:	f7 7d fc             	idivl  -0x4(%rbp)
    56b9:	39 45 f8             	cmp    %eax,-0x8(%rbp)
    56bc:	7c 09                	jl     56c7 <safe_mul_func_int32_t_s_s+0x85>
    56be:	8b 45 fc             	mov    -0x4(%rbp),%eax
    56c1:	0f af 45 f8          	imul   -0x8(%rbp),%eax
    56c5:	eb 03                	jmp    56ca <safe_mul_func_int32_t_s_s+0x88>
    56c7:	8b 45 fc             	mov    -0x4(%rbp),%eax
    56ca:	5d                   	pop    %rbp
    56cb:	c3                   	retq   

00000000000056cc <safe_mod_func_int32_t_s_s>:
    56cc:	f3 0f 1e fa          	endbr64 
    56d0:	55                   	push   %rbp
    56d1:	48 89 e5             	mov    %rsp,%rbp
    56d4:	89 7d fc             	mov    %edi,-0x4(%rbp)
    56d7:	89 75 f8             	mov    %esi,-0x8(%rbp)
    56da:	83 7d f8 00          	cmpl   $0x0,-0x8(%rbp)
    56de:	74 1a                	je     56fa <safe_mod_func_int32_t_s_s+0x2e>
    56e0:	81 7d fc 00 00 00 80 	cmpl   $0x80000000,-0x4(%rbp)
    56e7:	75 06                	jne    56ef <safe_mod_func_int32_t_s_s+0x23>
    56e9:	83 7d f8 ff          	cmpl   $0xffffffff,-0x8(%rbp)
    56ed:	74 0b                	je     56fa <safe_mod_func_int32_t_s_s+0x2e>
    56ef:	8b 45 fc             	mov    -0x4(%rbp),%eax
    56f2:	99                   	cltd   
    56f3:	f7 7d f8             	idivl  -0x8(%rbp)
    56f6:	89 d0                	mov    %edx,%eax
    56f8:	eb 03                	jmp    56fd <safe_mod_func_int32_t_s_s+0x31>
    56fa:	8b 45 fc             	mov    -0x4(%rbp),%eax
    56fd:	5d                   	pop    %rbp
    56fe:	c3                   	retq   

00000000000056ff <safe_div_func_int32_t_s_s>:
    56ff:	f3 0f 1e fa          	endbr64 
    5703:	55                   	push   %rbp
    5704:	48 89 e5             	mov    %rsp,%rbp
    5707:	89 7d fc             	mov    %edi,-0x4(%rbp)
    570a:	89 75 f8             	mov    %esi,-0x8(%rbp)
    570d:	83 7d f8 00          	cmpl   $0x0,-0x8(%rbp)
    5711:	74 18                	je     572b <safe_div_func_int32_t_s_s+0x2c>
    5713:	81 7d fc 00 00 00 80 	cmpl   $0x80000000,-0x4(%rbp)
    571a:	75 06                	jne    5722 <safe_div_func_int32_t_s_s+0x23>
    571c:	83 7d f8 ff          	cmpl   $0xffffffff,-0x8(%rbp)
    5720:	74 09                	je     572b <safe_div_func_int32_t_s_s+0x2c>
    5722:	8b 45 fc             	mov    -0x4(%rbp),%eax
    5725:	99                   	cltd   
    5726:	f7 7d f8             	idivl  -0x8(%rbp)
    5729:	eb 03                	jmp    572e <safe_div_func_int32_t_s_s+0x2f>
    572b:	8b 45 fc             	mov    -0x4(%rbp),%eax
    572e:	5d                   	pop    %rbp
    572f:	c3                   	retq   

0000000000005730 <safe_lshift_func_int32_t_s_s>:
    5730:	f3 0f 1e fa          	endbr64 
    5734:	55                   	push   %rbp
    5735:	48 89 e5             	mov    %rsp,%rbp
    5738:	89 7d fc             	mov    %edi,-0x4(%rbp)
    573b:	89 75 f8             	mov    %esi,-0x8(%rbp)
    573e:	83 7d fc 00          	cmpl   $0x0,-0x4(%rbp)
    5742:	78 2d                	js     5771 <safe_lshift_func_int32_t_s_s+0x41>
    5744:	83 7d f8 00          	cmpl   $0x0,-0x8(%rbp)
    5748:	78 27                	js     5771 <safe_lshift_func_int32_t_s_s+0x41>
    574a:	83 7d f8 1f          	cmpl   $0x1f,-0x8(%rbp)
    574e:	7f 21                	jg     5771 <safe_lshift_func_int32_t_s_s+0x41>
    5750:	8b 45 f8             	mov    -0x8(%rbp),%eax
    5753:	ba ff ff ff 7f       	mov    $0x7fffffff,%edx
    5758:	89 c1                	mov    %eax,%ecx
    575a:	d3 fa                	sar    %cl,%edx
    575c:	89 d0                	mov    %edx,%eax
    575e:	39 45 fc             	cmp    %eax,-0x4(%rbp)
    5761:	7f 0e                	jg     5771 <safe_lshift_func_int32_t_s_s+0x41>
    5763:	8b 45 f8             	mov    -0x8(%rbp),%eax
    5766:	8b 55 fc             	mov    -0x4(%rbp),%edx
    5769:	89 c1                	mov    %eax,%ecx
    576b:	d3 e2                	shl    %cl,%edx
    576d:	89 d0                	mov    %edx,%eax
    576f:	eb 03                	jmp    5774 <safe_lshift_func_int32_t_s_s+0x44>
    5771:	8b 45 fc             	mov    -0x4(%rbp),%eax
    5774:	5d                   	pop    %rbp
    5775:	c3                   	retq   

0000000000005776 <safe_lshift_func_int32_t_s_u>:
    5776:	f3 0f 1e fa          	endbr64 
    577a:	55                   	push   %rbp
    577b:	48 89 e5             	mov    %rsp,%rbp
    577e:	89 7d fc             	mov    %edi,-0x4(%rbp)
    5781:	89 75 f8             	mov    %esi,-0x8(%rbp)
    5784:	83 7d fc 00          	cmpl   $0x0,-0x4(%rbp)
    5788:	78 27                	js     57b1 <safe_lshift_func_int32_t_s_u+0x3b>
    578a:	83 7d f8 1f          	cmpl   $0x1f,-0x8(%rbp)
    578e:	77 21                	ja     57b1 <safe_lshift_func_int32_t_s_u+0x3b>
    5790:	8b 45 f8             	mov    -0x8(%rbp),%eax
    5793:	ba ff ff ff 7f       	mov    $0x7fffffff,%edx
    5798:	89 c1                	mov    %eax,%ecx
    579a:	d3 fa                	sar    %cl,%edx
    579c:	89 d0                	mov    %edx,%eax
    579e:	39 45 fc             	cmp    %eax,-0x4(%rbp)
    57a1:	7f 0e                	jg     57b1 <safe_lshift_func_int32_t_s_u+0x3b>
    57a3:	8b 45 f8             	mov    -0x8(%rbp),%eax
    57a6:	8b 55 fc             	mov    -0x4(%rbp),%edx
    57a9:	89 c1                	mov    %eax,%ecx
    57ab:	d3 e2                	shl    %cl,%edx
    57ad:	89 d0                	mov    %edx,%eax
    57af:	eb 03                	jmp    57b4 <safe_lshift_func_int32_t_s_u+0x3e>
    57b1:	8b 45 fc             	mov    -0x4(%rbp),%eax
    57b4:	5d                   	pop    %rbp
    57b5:	c3                   	retq   

00000000000057b6 <safe_rshift_func_int32_t_s_s>:
    57b6:	f3 0f 1e fa          	endbr64 
    57ba:	55                   	push   %rbp
    57bb:	48 89 e5             	mov    %rsp,%rbp
    57be:	89 7d fc             	mov    %edi,-0x4(%rbp)
    57c1:	89 75 f8             	mov    %esi,-0x8(%rbp)
    57c4:	83 7d fc 00          	cmpl   $0x0,-0x4(%rbp)
    57c8:	78 1a                	js     57e4 <safe_rshift_func_int32_t_s_s+0x2e>
    57ca:	83 7d f8 00          	cmpl   $0x0,-0x8(%rbp)
    57ce:	78 14                	js     57e4 <safe_rshift_func_int32_t_s_s+0x2e>
    57d0:	83 7d f8 1f          	cmpl   $0x1f,-0x8(%rbp)
    57d4:	7f 0e                	jg     57e4 <safe_rshift_func_int32_t_s_s+0x2e>
    57d6:	8b 45 f8             	mov    -0x8(%rbp),%eax
    57d9:	8b 55 fc             	mov    -0x4(%rbp),%edx
    57dc:	89 c1                	mov    %eax,%ecx
    57de:	d3 fa                	sar    %cl,%edx
    57e0:	89 d0                	mov    %edx,%eax
    57e2:	eb 03                	jmp    57e7 <safe_rshift_func_int32_t_s_s+0x31>
    57e4:	8b 45 fc             	mov    -0x4(%rbp),%eax
    57e7:	5d                   	pop    %rbp
    57e8:	c3                   	retq   

00000000000057e9 <safe_rshift_func_int32_t_s_u>:
    57e9:	f3 0f 1e fa          	endbr64 
    57ed:	55                   	push   %rbp
    57ee:	48 89 e5             	mov    %rsp,%rbp
    57f1:	89 7d fc             	mov    %edi,-0x4(%rbp)
    57f4:	89 75 f8             	mov    %esi,-0x8(%rbp)
    57f7:	83 7d fc 00          	cmpl   $0x0,-0x4(%rbp)
    57fb:	78 14                	js     5811 <safe_rshift_func_int32_t_s_u+0x28>
    57fd:	83 7d f8 1f          	cmpl   $0x1f,-0x8(%rbp)
    5801:	77 0e                	ja     5811 <safe_rshift_func_int32_t_s_u+0x28>
    5803:	8b 45 f8             	mov    -0x8(%rbp),%eax
    5806:	8b 55 fc             	mov    -0x4(%rbp),%edx
    5809:	89 c1                	mov    %eax,%ecx
    580b:	d3 fa                	sar    %cl,%edx
    580d:	89 d0                	mov    %edx,%eax
    580f:	eb 03                	jmp    5814 <safe_rshift_func_int32_t_s_u+0x2b>
    5811:	8b 45 fc             	mov    -0x4(%rbp),%eax
    5814:	5d                   	pop    %rbp
    5815:	c3                   	retq   

0000000000005816 <safe_unary_minus_func_int64_t_s>:
    5816:	f3 0f 1e fa          	endbr64 
    581a:	55                   	push   %rbp
    581b:	48 89 e5             	mov    %rsp,%rbp
    581e:	48 89 7d f8          	mov    %rdi,-0x8(%rbp)
    5822:	48 b8 00 00 00 00 00 	movabs $0x8000000000000000,%rax
    5829:	00 00 80 
    582c:	48 39 45 f8          	cmp    %rax,-0x8(%rbp)
    5830:	74 09                	je     583b <safe_unary_minus_func_int64_t_s+0x25>
    5832:	48 8b 45 f8          	mov    -0x8(%rbp),%rax
    5836:	48 f7 d8             	neg    %rax
    5839:	eb 04                	jmp    583f <safe_unary_minus_func_int64_t_s+0x29>
    583b:	48 8b 45 f8          	mov    -0x8(%rbp),%rax
    583f:	5d                   	pop    %rbp
    5840:	c3                   	retq   

0000000000005841 <safe_add_func_int64_t_s_s>:
    5841:	f3 0f 1e fa          	endbr64 
    5845:	55                   	push   %rbp
    5846:	48 89 e5             	mov    %rsp,%rbp
    5849:	48 89 7d f8          	mov    %rdi,-0x8(%rbp)
    584d:	48 89 75 f0          	mov    %rsi,-0x10(%rbp)
    5851:	48 83 7d f8 00       	cmpq   $0x0,-0x8(%rbp)
    5856:	7e 1b                	jle    5873 <safe_add_func_int64_t_s_s+0x32>
    5858:	48 83 7d f0 00       	cmpq   $0x0,-0x10(%rbp)
    585d:	7e 14                	jle    5873 <safe_add_func_int64_t_s_s+0x32>
    585f:	48 b8 ff ff ff ff ff 	movabs $0x7fffffffffffffff,%rax
    5866:	ff ff 7f 
    5869:	48 2b 45 f0          	sub    -0x10(%rbp),%rax
    586d:	48 39 45 f8          	cmp    %rax,-0x8(%rbp)
    5871:	7f 2f                	jg     58a2 <safe_add_func_int64_t_s_s+0x61>
    5873:	48 83 7d f8 00       	cmpq   $0x0,-0x8(%rbp)
    5878:	79 1b                	jns    5895 <safe_add_func_int64_t_s_s+0x54>
    587a:	48 83 7d f0 00       	cmpq   $0x0,-0x10(%rbp)
    587f:	79 14                	jns    5895 <safe_add_func_int64_t_s_s+0x54>
    5881:	48 b8 00 00 00 00 00 	movabs $0x8000000000000000,%rax
    5888:	00 00 80 
    588b:	48 2b 45 f0          	sub    -0x10(%rbp),%rax
    588f:	48 39 45 f8          	cmp    %rax,-0x8(%rbp)
    5893:	7c 0d                	jl     58a2 <safe_add_func_int64_t_s_s+0x61>
    5895:	48 8b 55 f8          	mov    -0x8(%rbp),%rdx
    5899:	48 8b 45 f0          	mov    -0x10(%rbp),%rax
    589d:	48 01 d0             	add    %rdx,%rax
    58a0:	eb 04                	jmp    58a6 <safe_add_func_int64_t_s_s+0x65>
    58a2:	48 8b 45 f8          	mov    -0x8(%rbp),%rax
    58a6:	5d                   	pop    %rbp
    58a7:	c3                   	retq   

00000000000058a8 <safe_sub_func_int64_t_s_s>:
    58a8:	f3 0f 1e fa          	endbr64 
    58ac:	55                   	push   %rbp
    58ad:	48 89 e5             	mov    %rsp,%rbp
    58b0:	48 89 7d f8          	mov    %rdi,-0x8(%rbp)
    58b4:	48 89 75 f0          	mov    %rsi,-0x10(%rbp)
    58b8:	48 8b 45 f8          	mov    -0x8(%rbp),%rax
    58bc:	48 33 45 f0          	xor    -0x10(%rbp),%rax
    58c0:	48 89 c2             	mov    %rax,%rdx
    58c3:	48 8b 45 f8          	mov    -0x8(%rbp),%rax
    58c7:	48 33 45 f0          	xor    -0x10(%rbp),%rax
    58cb:	48 b9 00 00 00 00 00 	movabs $0x8000000000000000,%rcx
    58d2:	00 00 80 
    58d5:	48 21 c8             	and    %rcx,%rax
    58d8:	48 33 45 f8          	xor    -0x8(%rbp),%rax
    58dc:	48 2b 45 f0          	sub    -0x10(%rbp),%rax
    58e0:	48 33 45 f0          	xor    -0x10(%rbp),%rax
    58e4:	48 21 d0             	and    %rdx,%rax
    58e7:	48 85 c0             	test   %rax,%rax
    58ea:	78 0a                	js     58f6 <safe_sub_func_int64_t_s_s+0x4e>
    58ec:	48 8b 45 f8          	mov    -0x8(%rbp),%rax
    58f0:	48 2b 45 f0          	sub    -0x10(%rbp),%rax
    58f4:	eb 04                	jmp    58fa <safe_sub_func_int64_t_s_s+0x52>
    58f6:	48 8b 45 f8          	mov    -0x8(%rbp),%rax
    58fa:	5d                   	pop    %rbp
    58fb:	c3                   	retq   

00000000000058fc <safe_mul_func_int64_t_s_s>:
    58fc:	f3 0f 1e fa          	endbr64 
    5900:	55                   	push   %rbp
    5901:	48 89 e5             	mov    %rsp,%rbp
    5904:	48 89 7d f8          	mov    %rdi,-0x8(%rbp)
    5908:	48 89 75 f0          	mov    %rsi,-0x10(%rbp)
    590c:	48 83 7d f8 00       	cmpq   $0x0,-0x8(%rbp)
    5911:	7e 1d                	jle    5930 <safe_mul_func_int64_t_s_s+0x34>
    5913:	48 83 7d f0 00       	cmpq   $0x0,-0x10(%rbp)
    5918:	7e 16                	jle    5930 <safe_mul_func_int64_t_s_s+0x34>
    591a:	48 b8 ff ff ff ff ff 	movabs $0x7fffffffffffffff,%rax
    5921:	ff ff 7f 
    5924:	48 99                	cqto   
    5926:	48 f7 7d f0          	idivq  -0x10(%rbp)
    592a:	48 39 45 f8          	cmp    %rax,-0x8(%rbp)
    592e:	7f 7e                	jg     59ae <safe_mul_func_int64_t_s_s+0xb2>
    5930:	48 83 7d f8 00       	cmpq   $0x0,-0x8(%rbp)
    5935:	7e 1d                	jle    5954 <safe_mul_func_int64_t_s_s+0x58>
    5937:	48 83 7d f0 00       	cmpq   $0x0,-0x10(%rbp)
    593c:	7f 16                	jg     5954 <safe_mul_func_int64_t_s_s+0x58>
    593e:	48 b8 00 00 00 00 00 	movabs $0x8000000000000000,%rax
    5945:	00 00 80 
    5948:	48 99                	cqto   
    594a:	48 f7 7d f8          	idivq  -0x8(%rbp)
    594e:	48 39 45 f0          	cmp    %rax,-0x10(%rbp)
    5952:	7c 5a                	jl     59ae <safe_mul_func_int64_t_s_s+0xb2>
    5954:	48 83 7d f8 00       	cmpq   $0x0,-0x8(%rbp)
    5959:	7f 1d                	jg     5978 <safe_mul_func_int64_t_s_s+0x7c>
    595b:	48 83 7d f0 00       	cmpq   $0x0,-0x10(%rbp)
    5960:	7e 16                	jle    5978 <safe_mul_func_int64_t_s_s+0x7c>
    5962:	48 b8 00 00 00 00 00 	movabs $0x8000000000000000,%rax
    5969:	00 00 80 
    596c:	48 99                	cqto   
    596e:	48 f7 7d f0          	idivq  -0x10(%rbp)
    5972:	48 39 45 f8          	cmp    %rax,-0x8(%rbp)
    5976:	7c 36                	jl     59ae <safe_mul_func_int64_t_s_s+0xb2>
    5978:	48 83 7d f8 00       	cmpq   $0x0,-0x8(%rbp)
    597d:	7f 24                	jg     59a3 <safe_mul_func_int64_t_s_s+0xa7>
    597f:	48 83 7d f0 00       	cmpq   $0x0,-0x10(%rbp)
    5984:	7f 1d                	jg     59a3 <safe_mul_func_int64_t_s_s+0xa7>
    5986:	48 83 7d f8 00       	cmpq   $0x0,-0x8(%rbp)
    598b:	74 16                	je     59a3 <safe_mul_func_int64_t_s_s+0xa7>
    598d:	48 b8 ff ff ff ff ff 	movabs $0x7fffffffffffffff,%rax
    5994:	ff ff 7f 
    5997:	48 99                	cqto   
    5999:	48 f7 7d f8          	idivq  -0x8(%rbp)
    599d:	48 39 45 f0          	cmp    %rax,-0x10(%rbp)
    59a1:	7c 0b                	jl     59ae <safe_mul_func_int64_t_s_s+0xb2>
    59a3:	48 8b 45 f8          	mov    -0x8(%rbp),%rax
    59a7:	48 0f af 45 f0       	imul   -0x10(%rbp),%rax
    59ac:	eb 04                	jmp    59b2 <safe_mul_func_int64_t_s_s+0xb6>
    59ae:	48 8b 45 f8          	mov    -0x8(%rbp),%rax
    59b2:	5d                   	pop    %rbp
    59b3:	c3                   	retq   

00000000000059b4 <safe_mod_func_int64_t_s_s>:
    59b4:	f3 0f 1e fa          	endbr64 
    59b8:	55                   	push   %rbp
    59b9:	48 89 e5             	mov    %rsp,%rbp
    59bc:	48 89 7d f8          	mov    %rdi,-0x8(%rbp)
    59c0:	48 89 75 f0          	mov    %rsi,-0x10(%rbp)
    59c4:	48 83 7d f0 00       	cmpq   $0x0,-0x10(%rbp)
    59c9:	74 26                	je     59f1 <safe_mod_func_int64_t_s_s+0x3d>
    59cb:	48 b8 00 00 00 00 00 	movabs $0x8000000000000000,%rax
    59d2:	00 00 80 
    59d5:	48 39 45 f8          	cmp    %rax,-0x8(%rbp)
    59d9:	75 07                	jne    59e2 <safe_mod_func_int64_t_s_s+0x2e>
    59db:	48 83 7d f0 ff       	cmpq   $0xffffffffffffffff,-0x10(%rbp)
    59e0:	74 0f                	je     59f1 <safe_mod_func_int64_t_s_s+0x3d>
    59e2:	48 8b 45 f8          	mov    -0x8(%rbp),%rax
    59e6:	48 99                	cqto   
    59e8:	48 f7 7d f0          	idivq  -0x10(%rbp)
    59ec:	48 89 d0             	mov    %rdx,%rax
    59ef:	eb 04                	jmp    59f5 <safe_mod_func_int64_t_s_s+0x41>
    59f1:	48 8b 45 f8          	mov    -0x8(%rbp),%rax
    59f5:	5d                   	pop    %rbp
    59f6:	c3                   	retq   

00000000000059f7 <safe_div_func_int64_t_s_s>:
    59f7:	f3 0f 1e fa          	endbr64 
    59fb:	55                   	push   %rbp
    59fc:	48 89 e5             	mov    %rsp,%rbp
    59ff:	48 89 7d f8          	mov    %rdi,-0x8(%rbp)
    5a03:	48 89 75 f0          	mov    %rsi,-0x10(%rbp)
    5a07:	48 83 7d f0 00       	cmpq   $0x0,-0x10(%rbp)
    5a0c:	74 23                	je     5a31 <safe_div_func_int64_t_s_s+0x3a>
    5a0e:	48 b8 00 00 00 00 00 	movabs $0x8000000000000000,%rax
    5a15:	00 00 80 
    5a18:	48 39 45 f8          	cmp    %rax,-0x8(%rbp)
    5a1c:	75 07                	jne    5a25 <safe_div_func_int64_t_s_s+0x2e>
    5a1e:	48 83 7d f0 ff       	cmpq   $0xffffffffffffffff,-0x10(%rbp)
    5a23:	74 0c                	je     5a31 <safe_div_func_int64_t_s_s+0x3a>
    5a25:	48 8b 45 f8          	mov    -0x8(%rbp),%rax
    5a29:	48 99                	cqto   
    5a2b:	48 f7 7d f0          	idivq  -0x10(%rbp)
    5a2f:	eb 04                	jmp    5a35 <safe_div_func_int64_t_s_s+0x3e>
    5a31:	48 8b 45 f8          	mov    -0x8(%rbp),%rax
    5a35:	5d                   	pop    %rbp
    5a36:	c3                   	retq   

0000000000005a37 <safe_lshift_func_int64_t_s_s>:
    5a37:	f3 0f 1e fa          	endbr64 
    5a3b:	55                   	push   %rbp
    5a3c:	48 89 e5             	mov    %rsp,%rbp
    5a3f:	48 89 7d f8          	mov    %rdi,-0x8(%rbp)
    5a43:	89 75 f4             	mov    %esi,-0xc(%rbp)
    5a46:	48 83 7d f8 00       	cmpq   $0x0,-0x8(%rbp)
    5a4b:	78 38                	js     5a85 <safe_lshift_func_int64_t_s_s+0x4e>
    5a4d:	83 7d f4 00          	cmpl   $0x0,-0xc(%rbp)
    5a51:	78 32                	js     5a85 <safe_lshift_func_int64_t_s_s+0x4e>
    5a53:	83 7d f4 1f          	cmpl   $0x1f,-0xc(%rbp)
    5a57:	7f 2c                	jg     5a85 <safe_lshift_func_int64_t_s_s+0x4e>
    5a59:	8b 45 f4             	mov    -0xc(%rbp),%eax
    5a5c:	48 ba ff ff ff ff ff 	movabs $0x7fffffffffffffff,%rdx
    5a63:	ff ff 7f 
    5a66:	89 c1                	mov    %eax,%ecx
    5a68:	48 d3 fa             	sar    %cl,%rdx
    5a6b:	48 89 d0             	mov    %rdx,%rax
    5a6e:	48 39 45 f8          	cmp    %rax,-0x8(%rbp)
    5a72:	7f 11                	jg     5a85 <safe_lshift_func_int64_t_s_s+0x4e>
    5a74:	8b 45 f4             	mov    -0xc(%rbp),%eax
    5a77:	48 8b 55 f8          	mov    -0x8(%rbp),%rdx
    5a7b:	89 c1                	mov    %eax,%ecx
    5a7d:	48 d3 e2             	shl    %cl,%rdx
    5a80:	48 89 d0             	mov    %rdx,%rax
    5a83:	eb 04                	jmp    5a89 <safe_lshift_func_int64_t_s_s+0x52>
    5a85:	48 8b 45 f8          	mov    -0x8(%rbp),%rax
    5a89:	5d                   	pop    %rbp
    5a8a:	c3                   	retq   

0000000000005a8b <safe_lshift_func_int64_t_s_u>:
    5a8b:	f3 0f 1e fa          	endbr64 
    5a8f:	55                   	push   %rbp
    5a90:	48 89 e5             	mov    %rsp,%rbp
    5a93:	48 89 7d f8          	mov    %rdi,-0x8(%rbp)
    5a97:	89 75 f4             	mov    %esi,-0xc(%rbp)
    5a9a:	48 83 7d f8 00       	cmpq   $0x0,-0x8(%rbp)
    5a9f:	78 32                	js     5ad3 <safe_lshift_func_int64_t_s_u+0x48>
    5aa1:	83 7d f4 1f          	cmpl   $0x1f,-0xc(%rbp)
    5aa5:	77 2c                	ja     5ad3 <safe_lshift_func_int64_t_s_u+0x48>
    5aa7:	8b 45 f4             	mov    -0xc(%rbp),%eax
    5aaa:	48 ba ff ff ff ff ff 	movabs $0x7fffffffffffffff,%rdx
    5ab1:	ff ff 7f 
    5ab4:	89 c1                	mov    %eax,%ecx
    5ab6:	48 d3 fa             	sar    %cl,%rdx
    5ab9:	48 89 d0             	mov    %rdx,%rax
    5abc:	48 39 45 f8          	cmp    %rax,-0x8(%rbp)
    5ac0:	7f 11                	jg     5ad3 <safe_lshift_func_int64_t_s_u+0x48>
    5ac2:	8b 45 f4             	mov    -0xc(%rbp),%eax
    5ac5:	48 8b 55 f8          	mov    -0x8(%rbp),%rdx
    5ac9:	89 c1                	mov    %eax,%ecx
    5acb:	48 d3 e2             	shl    %cl,%rdx
    5ace:	48 89 d0             	mov    %rdx,%rax
    5ad1:	eb 04                	jmp    5ad7 <safe_lshift_func_int64_t_s_u+0x4c>
    5ad3:	48 8b 45 f8          	mov    -0x8(%rbp),%rax
    5ad7:	5d                   	pop    %rbp
    5ad8:	c3                   	retq   

0000000000005ad9 <safe_rshift_func_int64_t_s_s>:
    5ad9:	f3 0f 1e fa          	endbr64 
    5add:	55                   	push   %rbp
    5ade:	48 89 e5             	mov    %rsp,%rbp
    5ae1:	48 89 7d f8          	mov    %rdi,-0x8(%rbp)
    5ae5:	89 75 f4             	mov    %esi,-0xc(%rbp)
    5ae8:	48 83 7d f8 00       	cmpq   $0x0,-0x8(%rbp)
    5aed:	78 1d                	js     5b0c <safe_rshift_func_int64_t_s_s+0x33>
    5aef:	83 7d f4 00          	cmpl   $0x0,-0xc(%rbp)
    5af3:	78 17                	js     5b0c <safe_rshift_func_int64_t_s_s+0x33>
    5af5:	83 7d f4 1f          	cmpl   $0x1f,-0xc(%rbp)
    5af9:	7f 11                	jg     5b0c <safe_rshift_func_int64_t_s_s+0x33>
    5afb:	8b 45 f4             	mov    -0xc(%rbp),%eax
    5afe:	48 8b 55 f8          	mov    -0x8(%rbp),%rdx
    5b02:	89 c1                	mov    %eax,%ecx
    5b04:	48 d3 fa             	sar    %cl,%rdx
    5b07:	48 89 d0             	mov    %rdx,%rax
    5b0a:	eb 04                	jmp    5b10 <safe_rshift_func_int64_t_s_s+0x37>
    5b0c:	48 8b 45 f8          	mov    -0x8(%rbp),%rax
    5b10:	5d                   	pop    %rbp
    5b11:	c3                   	retq   

0000000000005b12 <safe_rshift_func_int64_t_s_u>:
    5b12:	f3 0f 1e fa          	endbr64 
    5b16:	55                   	push   %rbp
    5b17:	48 89 e5             	mov    %rsp,%rbp
    5b1a:	48 89 7d f8          	mov    %rdi,-0x8(%rbp)
    5b1e:	89 75 f4             	mov    %esi,-0xc(%rbp)
    5b21:	48 83 7d f8 00       	cmpq   $0x0,-0x8(%rbp)
    5b26:	78 17                	js     5b3f <safe_rshift_func_int64_t_s_u+0x2d>
    5b28:	83 7d f4 1f          	cmpl   $0x1f,-0xc(%rbp)
    5b2c:	77 11                	ja     5b3f <safe_rshift_func_int64_t_s_u+0x2d>
    5b2e:	8b 45 f4             	mov    -0xc(%rbp),%eax
    5b31:	48 8b 55 f8          	mov    -0x8(%rbp),%rdx
    5b35:	89 c1                	mov    %eax,%ecx
    5b37:	48 d3 fa             	sar    %cl,%rdx
    5b3a:	48 89 d0             	mov    %rdx,%rax
    5b3d:	eb 04                	jmp    5b43 <safe_rshift_func_int64_t_s_u+0x31>
    5b3f:	48 8b 45 f8          	mov    -0x8(%rbp),%rax
    5b43:	5d                   	pop    %rbp
    5b44:	c3                   	retq   

0000000000005b45 <safe_unary_minus_func_uint8_t_u>:
    5b45:	f3 0f 1e fa          	endbr64 
    5b49:	55                   	push   %rbp
    5b4a:	48 89 e5             	mov    %rsp,%rbp
    5b4d:	89 f8                	mov    %edi,%eax
    5b4f:	88 45 fc             	mov    %al,-0x4(%rbp)
    5b52:	0f b6 45 fc          	movzbl -0x4(%rbp),%eax
    5b56:	f7 d8                	neg    %eax
    5b58:	5d                   	pop    %rbp
    5b59:	c3                   	retq   

0000000000005b5a <safe_add_func_uint8_t_u_u>:
    5b5a:	f3 0f 1e fa          	endbr64 
    5b5e:	55                   	push   %rbp
    5b5f:	48 89 e5             	mov    %rsp,%rbp
    5b62:	89 fa                	mov    %edi,%edx
    5b64:	89 f0                	mov    %esi,%eax
    5b66:	88 55 fc             	mov    %dl,-0x4(%rbp)
    5b69:	88 45 f8             	mov    %al,-0x8(%rbp)
    5b6c:	0f b6 55 fc          	movzbl -0x4(%rbp),%edx
    5b70:	0f b6 45 f8          	movzbl -0x8(%rbp),%eax
    5b74:	01 d0                	add    %edx,%eax
    5b76:	5d                   	pop    %rbp
    5b77:	c3                   	retq   

0000000000005b78 <safe_sub_func_uint8_t_u_u>:
    5b78:	f3 0f 1e fa          	endbr64 
    5b7c:	55                   	push   %rbp
    5b7d:	48 89 e5             	mov    %rsp,%rbp
    5b80:	89 fa                	mov    %edi,%edx
    5b82:	89 f0                	mov    %esi,%eax
    5b84:	88 55 fc             	mov    %dl,-0x4(%rbp)
    5b87:	88 45 f8             	mov    %al,-0x8(%rbp)
    5b8a:	0f b6 45 fc          	movzbl -0x4(%rbp),%eax
    5b8e:	2a 45 f8             	sub    -0x8(%rbp),%al
    5b91:	5d                   	pop    %rbp
    5b92:	c3                   	retq   

0000000000005b93 <safe_mul_func_uint8_t_u_u>:
    5b93:	f3 0f 1e fa          	endbr64 
    5b97:	55                   	push   %rbp
    5b98:	48 89 e5             	mov    %rsp,%rbp
    5b9b:	89 fa                	mov    %edi,%edx
    5b9d:	89 f0                	mov    %esi,%eax
    5b9f:	88 55 fc             	mov    %dl,-0x4(%rbp)
    5ba2:	88 45 f8             	mov    %al,-0x8(%rbp)
    5ba5:	0f b6 45 fc          	movzbl -0x4(%rbp),%eax
    5ba9:	f6 65 f8             	mulb   -0x8(%rbp)
    5bac:	5d                   	pop    %rbp
    5bad:	c3                   	retq   

0000000000005bae <safe_mod_func_uint8_t_u_u>:
    5bae:	f3 0f 1e fa          	endbr64 
    5bb2:	55                   	push   %rbp
    5bb3:	48 89 e5             	mov    %rsp,%rbp
    5bb6:	89 fa                	mov    %edi,%edx
    5bb8:	89 f0                	mov    %esi,%eax
    5bba:	88 55 fc             	mov    %dl,-0x4(%rbp)
    5bbd:	88 45 f8             	mov    %al,-0x8(%rbp)
    5bc0:	80 7d f8 00          	cmpb   $0x0,-0x8(%rbp)
    5bc4:	74 0f                	je     5bd5 <safe_mod_func_uint8_t_u_u+0x27>
    5bc6:	0f b6 45 fc          	movzbl -0x4(%rbp),%eax
    5bca:	0f b6 c0             	movzbl %al,%eax
    5bcd:	f6 75 f8             	divb   -0x8(%rbp)
    5bd0:	0f b6 c4             	movzbl %ah,%eax
    5bd3:	eb 04                	jmp    5bd9 <safe_mod_func_uint8_t_u_u+0x2b>
    5bd5:	0f b6 45 fc          	movzbl -0x4(%rbp),%eax
    5bd9:	5d                   	pop    %rbp
    5bda:	c3                   	retq   

0000000000005bdb <safe_div_func_uint8_t_u_u>:
    5bdb:	f3 0f 1e fa          	endbr64 
    5bdf:	55                   	push   %rbp
    5be0:	48 89 e5             	mov    %rsp,%rbp
    5be3:	89 fa                	mov    %edi,%edx
    5be5:	89 f0                	mov    %esi,%eax
    5be7:	88 55 fc             	mov    %dl,-0x4(%rbp)
    5bea:	88 45 f8             	mov    %al,-0x8(%rbp)
    5bed:	80 7d f8 00          	cmpb   $0x0,-0x8(%rbp)
    5bf1:	74 0c                	je     5bff <safe_div_func_uint8_t_u_u+0x24>
    5bf3:	0f b6 45 fc          	movzbl -0x4(%rbp),%eax
    5bf7:	0f b6 c0             	movzbl %al,%eax
    5bfa:	f6 75 f8             	divb   -0x8(%rbp)
    5bfd:	eb 04                	jmp    5c03 <safe_div_func_uint8_t_u_u+0x28>
    5bff:	0f b6 45 fc          	movzbl -0x4(%rbp),%eax
    5c03:	5d                   	pop    %rbp
    5c04:	c3                   	retq   

0000000000005c05 <safe_lshift_func_uint8_t_u_s>:
    5c05:	f3 0f 1e fa          	endbr64 
    5c09:	55                   	push   %rbp
    5c0a:	48 89 e5             	mov    %rsp,%rbp
    5c0d:	89 f8                	mov    %edi,%eax
    5c0f:	89 75 f8             	mov    %esi,-0x8(%rbp)
    5c12:	88 45 fc             	mov    %al,-0x4(%rbp)
    5c15:	83 7d f8 00          	cmpl   $0x0,-0x8(%rbp)
    5c19:	78 2b                	js     5c46 <safe_lshift_func_uint8_t_u_s+0x41>
    5c1b:	83 7d f8 1f          	cmpl   $0x1f,-0x8(%rbp)
    5c1f:	7f 25                	jg     5c46 <safe_lshift_func_uint8_t_u_s+0x41>
    5c21:	0f b6 55 fc          	movzbl -0x4(%rbp),%edx
    5c25:	8b 45 f8             	mov    -0x8(%rbp),%eax
    5c28:	be ff 00 00 00       	mov    $0xff,%esi
    5c2d:	89 c1                	mov    %eax,%ecx
    5c2f:	d3 fe                	sar    %cl,%esi
    5c31:	89 f0                	mov    %esi,%eax
    5c33:	39 c2                	cmp    %eax,%edx
    5c35:	7f 0f                	jg     5c46 <safe_lshift_func_uint8_t_u_s+0x41>
    5c37:	0f b6 55 fc          	movzbl -0x4(%rbp),%edx
    5c3b:	8b 45 f8             	mov    -0x8(%rbp),%eax
    5c3e:	89 c1                	mov    %eax,%ecx
    5c40:	d3 e2                	shl    %cl,%edx
    5c42:	89 d0                	mov    %edx,%eax
    5c44:	eb 04                	jmp    5c4a <safe_lshift_func_uint8_t_u_s+0x45>
    5c46:	0f b6 45 fc          	movzbl -0x4(%rbp),%eax
    5c4a:	5d                   	pop    %rbp
    5c4b:	c3                   	retq   

0000000000005c4c <safe_lshift_func_uint8_t_u_u>:
    5c4c:	f3 0f 1e fa          	endbr64 
    5c50:	55                   	push   %rbp
    5c51:	48 89 e5             	mov    %rsp,%rbp
    5c54:	89 f8                	mov    %edi,%eax
    5c56:	89 75 f8             	mov    %esi,-0x8(%rbp)
    5c59:	88 45 fc             	mov    %al,-0x4(%rbp)
    5c5c:	83 7d f8 1f          	cmpl   $0x1f,-0x8(%rbp)
    5c60:	77 25                	ja     5c87 <safe_lshift_func_uint8_t_u_u+0x3b>
    5c62:	0f b6 55 fc          	movzbl -0x4(%rbp),%edx
    5c66:	8b 45 f8             	mov    -0x8(%rbp),%eax
    5c69:	be ff 00 00 00       	mov    $0xff,%esi
    5c6e:	89 c1                	mov    %eax,%ecx
    5c70:	d3 fe                	sar    %cl,%esi
    5c72:	89 f0                	mov    %esi,%eax
    5c74:	39 c2                	cmp    %eax,%edx
    5c76:	7f 0f                	jg     5c87 <safe_lshift_func_uint8_t_u_u+0x3b>
    5c78:	0f b6 55 fc          	movzbl -0x4(%rbp),%edx
    5c7c:	8b 45 f8             	mov    -0x8(%rbp),%eax
    5c7f:	89 c1                	mov    %eax,%ecx
    5c81:	d3 e2                	shl    %cl,%edx
    5c83:	89 d0                	mov    %edx,%eax
    5c85:	eb 04                	jmp    5c8b <safe_lshift_func_uint8_t_u_u+0x3f>
    5c87:	0f b6 45 fc          	movzbl -0x4(%rbp),%eax
    5c8b:	5d                   	pop    %rbp
    5c8c:	c3                   	retq   

0000000000005c8d <safe_rshift_func_uint8_t_u_s>:
    5c8d:	f3 0f 1e fa          	endbr64 
    5c91:	55                   	push   %rbp
    5c92:	48 89 e5             	mov    %rsp,%rbp
    5c95:	89 f8                	mov    %edi,%eax
    5c97:	89 75 f8             	mov    %esi,-0x8(%rbp)
    5c9a:	88 45 fc             	mov    %al,-0x4(%rbp)
    5c9d:	83 7d f8 00          	cmpl   $0x0,-0x8(%rbp)
    5ca1:	78 15                	js     5cb8 <safe_rshift_func_uint8_t_u_s+0x2b>
    5ca3:	83 7d f8 1f          	cmpl   $0x1f,-0x8(%rbp)
    5ca7:	7f 0f                	jg     5cb8 <safe_rshift_func_uint8_t_u_s+0x2b>
    5ca9:	0f b6 55 fc          	movzbl -0x4(%rbp),%edx
    5cad:	8b 45 f8             	mov    -0x8(%rbp),%eax
    5cb0:	89 c1                	mov    %eax,%ecx
    5cb2:	d3 fa                	sar    %cl,%edx
    5cb4:	89 d0                	mov    %edx,%eax
    5cb6:	eb 04                	jmp    5cbc <safe_rshift_func_uint8_t_u_s+0x2f>
    5cb8:	0f b6 45 fc          	movzbl -0x4(%rbp),%eax
    5cbc:	5d                   	pop    %rbp
    5cbd:	c3                   	retq   

0000000000005cbe <safe_rshift_func_uint8_t_u_u>:
    5cbe:	f3 0f 1e fa          	endbr64 
    5cc2:	55                   	push   %rbp
    5cc3:	48 89 e5             	mov    %rsp,%rbp
    5cc6:	89 f8                	mov    %edi,%eax
    5cc8:	89 75 f8             	mov    %esi,-0x8(%rbp)
    5ccb:	88 45 fc             	mov    %al,-0x4(%rbp)
    5cce:	83 7d f8 1f          	cmpl   $0x1f,-0x8(%rbp)
    5cd2:	77 0f                	ja     5ce3 <safe_rshift_func_uint8_t_u_u+0x25>
    5cd4:	0f b6 55 fc          	movzbl -0x4(%rbp),%edx
    5cd8:	8b 45 f8             	mov    -0x8(%rbp),%eax
    5cdb:	89 c1                	mov    %eax,%ecx
    5cdd:	d3 fa                	sar    %cl,%edx
    5cdf:	89 d0                	mov    %edx,%eax
    5ce1:	eb 04                	jmp    5ce7 <safe_rshift_func_uint8_t_u_u+0x29>
    5ce3:	0f b6 45 fc          	movzbl -0x4(%rbp),%eax
    5ce7:	5d                   	pop    %rbp
    5ce8:	c3                   	retq   

0000000000005ce9 <safe_unary_minus_func_uint16_t_u>:
    5ce9:	f3 0f 1e fa          	endbr64 
    5ced:	55                   	push   %rbp
    5cee:	48 89 e5             	mov    %rsp,%rbp
    5cf1:	89 f8                	mov    %edi,%eax
    5cf3:	66 89 45 fc          	mov    %ax,-0x4(%rbp)
    5cf7:	0f b7 45 fc          	movzwl -0x4(%rbp),%eax
    5cfb:	f7 d8                	neg    %eax
    5cfd:	5d                   	pop    %rbp
    5cfe:	c3                   	retq   

0000000000005cff <safe_add_func_uint16_t_u_u>:
    5cff:	f3 0f 1e fa          	endbr64 
    5d03:	55                   	push   %rbp
    5d04:	48 89 e5             	mov    %rsp,%rbp
    5d07:	89 fa                	mov    %edi,%edx
    5d09:	89 f0                	mov    %esi,%eax
    5d0b:	66 89 55 fc          	mov    %dx,-0x4(%rbp)
    5d0f:	66 89 45 f8          	mov    %ax,-0x8(%rbp)
    5d13:	0f b7 55 fc          	movzwl -0x4(%rbp),%edx
    5d17:	0f b7 45 f8          	movzwl -0x8(%rbp),%eax
    5d1b:	01 d0                	add    %edx,%eax
    5d1d:	5d                   	pop    %rbp
    5d1e:	c3                   	retq   

0000000000005d1f <safe_sub_func_uint16_t_u_u>:
    5d1f:	f3 0f 1e fa          	endbr64 
    5d23:	55                   	push   %rbp
    5d24:	48 89 e5             	mov    %rsp,%rbp
    5d27:	89 fa                	mov    %edi,%edx
    5d29:	89 f0                	mov    %esi,%eax
    5d2b:	66 89 55 fc          	mov    %dx,-0x4(%rbp)
    5d2f:	66 89 45 f8          	mov    %ax,-0x8(%rbp)
    5d33:	0f b7 45 fc          	movzwl -0x4(%rbp),%eax
    5d37:	66 2b 45 f8          	sub    -0x8(%rbp),%ax
    5d3b:	5d                   	pop    %rbp
    5d3c:	c3                   	retq   

0000000000005d3d <safe_mul_func_uint16_t_u_u>:
    5d3d:	f3 0f 1e fa          	endbr64 
    5d41:	55                   	push   %rbp
    5d42:	48 89 e5             	mov    %rsp,%rbp
    5d45:	89 fa                	mov    %edi,%edx
    5d47:	89 f0                	mov    %esi,%eax
    5d49:	66 89 55 fc          	mov    %dx,-0x4(%rbp)
    5d4d:	66 89 45 f8          	mov    %ax,-0x8(%rbp)
    5d51:	0f b7 45 fc          	movzwl -0x4(%rbp),%eax
    5d55:	66 0f af 45 f8       	imul   -0x8(%rbp),%ax
    5d5a:	5d                   	pop    %rbp
    5d5b:	c3                   	retq   

0000000000005d5c <safe_mod_func_uint16_t_u_u>:
    5d5c:	f3 0f 1e fa          	endbr64 
    5d60:	55                   	push   %rbp
    5d61:	48 89 e5             	mov    %rsp,%rbp
    5d64:	89 fa                	mov    %edi,%edx
    5d66:	89 f0                	mov    %esi,%eax
    5d68:	66 89 55 fc          	mov    %dx,-0x4(%rbp)
    5d6c:	66 89 45 f8          	mov    %ax,-0x8(%rbp)
    5d70:	66 83 7d f8 00       	cmpw   $0x0,-0x8(%rbp)
    5d75:	74 11                	je     5d88 <safe_mod_func_uint16_t_u_u+0x2c>
    5d77:	0f b7 45 fc          	movzwl -0x4(%rbp),%eax
    5d7b:	ba 00 00 00 00       	mov    $0x0,%edx
    5d80:	66 f7 75 f8          	divw   -0x8(%rbp)
    5d84:	89 d0                	mov    %edx,%eax
    5d86:	eb 04                	jmp    5d8c <safe_mod_func_uint16_t_u_u+0x30>
    5d88:	0f b7 45 fc          	movzwl -0x4(%rbp),%eax
    5d8c:	5d                   	pop    %rbp
    5d8d:	c3                   	retq   

0000000000005d8e <safe_div_func_uint16_t_u_u>:
    5d8e:	f3 0f 1e fa          	endbr64 
    5d92:	55                   	push   %rbp
    5d93:	48 89 e5             	mov    %rsp,%rbp
    5d96:	89 fa                	mov    %edi,%edx
    5d98:	89 f0                	mov    %esi,%eax
    5d9a:	66 89 55 fc          	mov    %dx,-0x4(%rbp)
    5d9e:	66 89 45 f8          	mov    %ax,-0x8(%rbp)
    5da2:	66 83 7d f8 00       	cmpw   $0x0,-0x8(%rbp)
    5da7:	74 0f                	je     5db8 <safe_div_func_uint16_t_u_u+0x2a>
    5da9:	0f b7 45 fc          	movzwl -0x4(%rbp),%eax
    5dad:	ba 00 00 00 00       	mov    $0x0,%edx
    5db2:	66 f7 75 f8          	divw   -0x8(%rbp)
    5db6:	eb 04                	jmp    5dbc <safe_div_func_uint16_t_u_u+0x2e>
    5db8:	0f b7 45 fc          	movzwl -0x4(%rbp),%eax
    5dbc:	5d                   	pop    %rbp
    5dbd:	c3                   	retq   

0000000000005dbe <safe_lshift_func_uint16_t_u_s>:
    5dbe:	f3 0f 1e fa          	endbr64 
    5dc2:	55                   	push   %rbp
    5dc3:	48 89 e5             	mov    %rsp,%rbp
    5dc6:	89 f8                	mov    %edi,%eax
    5dc8:	89 75 f8             	mov    %esi,-0x8(%rbp)
    5dcb:	66 89 45 fc          	mov    %ax,-0x4(%rbp)
    5dcf:	83 7d f8 00          	cmpl   $0x0,-0x8(%rbp)
    5dd3:	78 2b                	js     5e00 <safe_lshift_func_uint16_t_u_s+0x42>
    5dd5:	83 7d f8 1f          	cmpl   $0x1f,-0x8(%rbp)
    5dd9:	7f 25                	jg     5e00 <safe_lshift_func_uint16_t_u_s+0x42>
    5ddb:	0f b7 55 fc          	movzwl -0x4(%rbp),%edx
    5ddf:	8b 45 f8             	mov    -0x8(%rbp),%eax
    5de2:	be ff ff 00 00       	mov    $0xffff,%esi
    5de7:	89 c1                	mov    %eax,%ecx
    5de9:	d3 fe                	sar    %cl,%esi
    5deb:	89 f0                	mov    %esi,%eax
    5ded:	39 c2                	cmp    %eax,%edx
    5def:	7f 0f                	jg     5e00 <safe_lshift_func_uint16_t_u_s+0x42>
    5df1:	0f b7 55 fc          	movzwl -0x4(%rbp),%edx
    5df5:	8b 45 f8             	mov    -0x8(%rbp),%eax
    5df8:	89 c1                	mov    %eax,%ecx
    5dfa:	d3 e2                	shl    %cl,%edx
    5dfc:	89 d0                	mov    %edx,%eax
    5dfe:	eb 04                	jmp    5e04 <safe_lshift_func_uint16_t_u_s+0x46>
    5e00:	0f b7 45 fc          	movzwl -0x4(%rbp),%eax
    5e04:	5d                   	pop    %rbp
    5e05:	c3                   	retq   

0000000000005e06 <safe_lshift_func_uint16_t_u_u>:
    5e06:	f3 0f 1e fa          	endbr64 
    5e0a:	55                   	push   %rbp
    5e0b:	48 89 e5             	mov    %rsp,%rbp
    5e0e:	89 f8                	mov    %edi,%eax
    5e10:	89 75 f8             	mov    %esi,-0x8(%rbp)
    5e13:	66 89 45 fc          	mov    %ax,-0x4(%rbp)
    5e17:	83 7d f8 1f          	cmpl   $0x1f,-0x8(%rbp)
    5e1b:	77 25                	ja     5e42 <safe_lshift_func_uint16_t_u_u+0x3c>
    5e1d:	0f b7 55 fc          	movzwl -0x4(%rbp),%edx
    5e21:	8b 45 f8             	mov    -0x8(%rbp),%eax
    5e24:	be ff ff 00 00       	mov    $0xffff,%esi
    5e29:	89 c1                	mov    %eax,%ecx
    5e2b:	d3 fe                	sar    %cl,%esi
    5e2d:	89 f0                	mov    %esi,%eax
    5e2f:	39 c2                	cmp    %eax,%edx
    5e31:	7f 0f                	jg     5e42 <safe_lshift_func_uint16_t_u_u+0x3c>
    5e33:	0f b7 55 fc          	movzwl -0x4(%rbp),%edx
    5e37:	8b 45 f8             	mov    -0x8(%rbp),%eax
    5e3a:	89 c1                	mov    %eax,%ecx
    5e3c:	d3 e2                	shl    %cl,%edx
    5e3e:	89 d0                	mov    %edx,%eax
    5e40:	eb 04                	jmp    5e46 <safe_lshift_func_uint16_t_u_u+0x40>
    5e42:	0f b7 45 fc          	movzwl -0x4(%rbp),%eax
    5e46:	5d                   	pop    %rbp
    5e47:	c3                   	retq   

0000000000005e48 <safe_rshift_func_uint16_t_u_s>:
    5e48:	f3 0f 1e fa          	endbr64 
    5e4c:	55                   	push   %rbp
    5e4d:	48 89 e5             	mov    %rsp,%rbp
    5e50:	89 f8                	mov    %edi,%eax
    5e52:	89 75 f8             	mov    %esi,-0x8(%rbp)
    5e55:	66 89 45 fc          	mov    %ax,-0x4(%rbp)
    5e59:	83 7d f8 00          	cmpl   $0x0,-0x8(%rbp)
    5e5d:	78 15                	js     5e74 <safe_rshift_func_uint16_t_u_s+0x2c>
    5e5f:	83 7d f8 1f          	cmpl   $0x1f,-0x8(%rbp)
    5e63:	7f 0f                	jg     5e74 <safe_rshift_func_uint16_t_u_s+0x2c>
    5e65:	0f b7 55 fc          	movzwl -0x4(%rbp),%edx
    5e69:	8b 45 f8             	mov    -0x8(%rbp),%eax
    5e6c:	89 c1                	mov    %eax,%ecx
    5e6e:	d3 fa                	sar    %cl,%edx
    5e70:	89 d0                	mov    %edx,%eax
    5e72:	eb 04                	jmp    5e78 <safe_rshift_func_uint16_t_u_s+0x30>
    5e74:	0f b7 45 fc          	movzwl -0x4(%rbp),%eax
    5e78:	5d                   	pop    %rbp
    5e79:	c3                   	retq   

0000000000005e7a <safe_rshift_func_uint16_t_u_u>:
    5e7a:	f3 0f 1e fa          	endbr64 
    5e7e:	55                   	push   %rbp
    5e7f:	48 89 e5             	mov    %rsp,%rbp
    5e82:	89 f8                	mov    %edi,%eax
    5e84:	89 75 f8             	mov    %esi,-0x8(%rbp)
    5e87:	66 89 45 fc          	mov    %ax,-0x4(%rbp)
    5e8b:	83 7d f8 1f          	cmpl   $0x1f,-0x8(%rbp)
    5e8f:	77 0f                	ja     5ea0 <safe_rshift_func_uint16_t_u_u+0x26>
    5e91:	0f b7 55 fc          	movzwl -0x4(%rbp),%edx
    5e95:	8b 45 f8             	mov    -0x8(%rbp),%eax
    5e98:	89 c1                	mov    %eax,%ecx
    5e9a:	d3 fa                	sar    %cl,%edx
    5e9c:	89 d0                	mov    %edx,%eax
    5e9e:	eb 04                	jmp    5ea4 <safe_rshift_func_uint16_t_u_u+0x2a>
    5ea0:	0f b7 45 fc          	movzwl -0x4(%rbp),%eax
    5ea4:	5d                   	pop    %rbp
    5ea5:	c3                   	retq   

0000000000005ea6 <safe_unary_minus_func_uint32_t_u>:
    5ea6:	f3 0f 1e fa          	endbr64 
    5eaa:	55                   	push   %rbp
    5eab:	48 89 e5             	mov    %rsp,%rbp
    5eae:	89 7d fc             	mov    %edi,-0x4(%rbp)
    5eb1:	8b 45 fc             	mov    -0x4(%rbp),%eax
    5eb4:	f7 d8                	neg    %eax
    5eb6:	5d                   	pop    %rbp
    5eb7:	c3                   	retq   

0000000000005eb8 <safe_add_func_uint32_t_u_u>:
    5eb8:	f3 0f 1e fa          	endbr64 
    5ebc:	55                   	push   %rbp
    5ebd:	48 89 e5             	mov    %rsp,%rbp
    5ec0:	89 7d fc             	mov    %edi,-0x4(%rbp)
    5ec3:	89 75 f8             	mov    %esi,-0x8(%rbp)
    5ec6:	8b 55 fc             	mov    -0x4(%rbp),%edx
    5ec9:	8b 45 f8             	mov    -0x8(%rbp),%eax
    5ecc:	01 d0                	add    %edx,%eax
    5ece:	5d                   	pop    %rbp
    5ecf:	c3                   	retq   

0000000000005ed0 <safe_sub_func_uint32_t_u_u>:
    5ed0:	f3 0f 1e fa          	endbr64 
    5ed4:	55                   	push   %rbp
    5ed5:	48 89 e5             	mov    %rsp,%rbp
    5ed8:	89 7d fc             	mov    %edi,-0x4(%rbp)
    5edb:	89 75 f8             	mov    %esi,-0x8(%rbp)
    5ede:	8b 45 fc             	mov    -0x4(%rbp),%eax
    5ee1:	2b 45 f8             	sub    -0x8(%rbp),%eax
    5ee4:	5d                   	pop    %rbp
    5ee5:	c3                   	retq   

0000000000005ee6 <safe_mul_func_uint32_t_u_u>:
    5ee6:	f3 0f 1e fa          	endbr64 
    5eea:	55                   	push   %rbp
    5eeb:	48 89 e5             	mov    %rsp,%rbp
    5eee:	89 7d fc             	mov    %edi,-0x4(%rbp)
    5ef1:	89 75 f8             	mov    %esi,-0x8(%rbp)
    5ef4:	8b 45 fc             	mov    -0x4(%rbp),%eax
    5ef7:	0f af 45 f8          	imul   -0x8(%rbp),%eax
    5efb:	5d                   	pop    %rbp
    5efc:	c3                   	retq   

0000000000005efd <safe_mod_func_uint32_t_u_u>:
    5efd:	f3 0f 1e fa          	endbr64 
    5f01:	55                   	push   %rbp
    5f02:	48 89 e5             	mov    %rsp,%rbp
    5f05:	89 7d fc             	mov    %edi,-0x4(%rbp)
    5f08:	89 75 f8             	mov    %esi,-0x8(%rbp)
    5f0b:	83 7d f8 00          	cmpl   $0x0,-0x8(%rbp)
    5f0f:	74 0f                	je     5f20 <safe_mod_func_uint32_t_u_u+0x23>
    5f11:	8b 45 fc             	mov    -0x4(%rbp),%eax
    5f14:	ba 00 00 00 00       	mov    $0x0,%edx
    5f19:	f7 75 f8             	divl   -0x8(%rbp)
    5f1c:	89 d0                	mov    %edx,%eax
    5f1e:	eb 03                	jmp    5f23 <safe_mod_func_uint32_t_u_u+0x26>
    5f20:	8b 45 fc             	mov    -0x4(%rbp),%eax
    5f23:	5d                   	pop    %rbp
    5f24:	c3                   	retq   

0000000000005f25 <safe_div_func_uint32_t_u_u>:
    5f25:	f3 0f 1e fa          	endbr64 
    5f29:	55                   	push   %rbp
    5f2a:	48 89 e5             	mov    %rsp,%rbp
    5f2d:	89 7d fc             	mov    %edi,-0x4(%rbp)
    5f30:	89 75 f8             	mov    %esi,-0x8(%rbp)
    5f33:	83 7d f8 00          	cmpl   $0x0,-0x8(%rbp)
    5f37:	74 0d                	je     5f46 <safe_div_func_uint32_t_u_u+0x21>
    5f39:	8b 45 fc             	mov    -0x4(%rbp),%eax
    5f3c:	ba 00 00 00 00       	mov    $0x0,%edx
    5f41:	f7 75 f8             	divl   -0x8(%rbp)
    5f44:	eb 03                	jmp    5f49 <safe_div_func_uint32_t_u_u+0x24>
    5f46:	8b 45 fc             	mov    -0x4(%rbp),%eax
    5f49:	5d                   	pop    %rbp
    5f4a:	c3                   	retq   

0000000000005f4b <safe_lshift_func_uint32_t_u_s>:
    5f4b:	f3 0f 1e fa          	endbr64 
    5f4f:	55                   	push   %rbp
    5f50:	48 89 e5             	mov    %rsp,%rbp
    5f53:	89 7d fc             	mov    %edi,-0x4(%rbp)
    5f56:	89 75 f8             	mov    %esi,-0x8(%rbp)
    5f59:	83 7d f8 00          	cmpl   $0x0,-0x8(%rbp)
    5f5d:	78 27                	js     5f86 <safe_lshift_func_uint32_t_u_s+0x3b>
    5f5f:	83 7d f8 1f          	cmpl   $0x1f,-0x8(%rbp)
    5f63:	7f 21                	jg     5f86 <safe_lshift_func_uint32_t_u_s+0x3b>
    5f65:	8b 45 f8             	mov    -0x8(%rbp),%eax
    5f68:	ba ff ff ff ff       	mov    $0xffffffff,%edx
    5f6d:	89 c1                	mov    %eax,%ecx
    5f6f:	d3 ea                	shr    %cl,%edx
    5f71:	89 d0                	mov    %edx,%eax
    5f73:	39 45 fc             	cmp    %eax,-0x4(%rbp)
    5f76:	77 0e                	ja     5f86 <safe_lshift_func_uint32_t_u_s+0x3b>
    5f78:	8b 45 f8             	mov    -0x8(%rbp),%eax
    5f7b:	8b 55 fc             	mov    -0x4(%rbp),%edx
    5f7e:	89 c1                	mov    %eax,%ecx
    5f80:	d3 e2                	shl    %cl,%edx
    5f82:	89 d0                	mov    %edx,%eax
    5f84:	eb 03                	jmp    5f89 <safe_lshift_func_uint32_t_u_s+0x3e>
    5f86:	8b 45 fc             	mov    -0x4(%rbp),%eax
    5f89:	5d                   	pop    %rbp
    5f8a:	c3                   	retq   

0000000000005f8b <safe_lshift_func_uint32_t_u_u>:
    5f8b:	f3 0f 1e fa          	endbr64 
    5f8f:	55                   	push   %rbp
    5f90:	48 89 e5             	mov    %rsp,%rbp
    5f93:	89 7d fc             	mov    %edi,-0x4(%rbp)
    5f96:	89 75 f8             	mov    %esi,-0x8(%rbp)
    5f99:	83 7d f8 1f          	cmpl   $0x1f,-0x8(%rbp)
    5f9d:	77 21                	ja     5fc0 <safe_lshift_func_uint32_t_u_u+0x35>
    5f9f:	8b 45 f8             	mov    -0x8(%rbp),%eax
    5fa2:	ba ff ff ff ff       	mov    $0xffffffff,%edx
    5fa7:	89 c1                	mov    %eax,%ecx
    5fa9:	d3 ea                	shr    %cl,%edx
    5fab:	89 d0                	mov    %edx,%eax
    5fad:	39 45 fc             	cmp    %eax,-0x4(%rbp)
    5fb0:	77 0e                	ja     5fc0 <safe_lshift_func_uint32_t_u_u+0x35>
    5fb2:	8b 45 f8             	mov    -0x8(%rbp),%eax
    5fb5:	8b 55 fc             	mov    -0x4(%rbp),%edx
    5fb8:	89 c1                	mov    %eax,%ecx
    5fba:	d3 e2                	shl    %cl,%edx
    5fbc:	89 d0                	mov    %edx,%eax
    5fbe:	eb 03                	jmp    5fc3 <safe_lshift_func_uint32_t_u_u+0x38>
    5fc0:	8b 45 fc             	mov    -0x4(%rbp),%eax
    5fc3:	5d                   	pop    %rbp
    5fc4:	c3                   	retq   

0000000000005fc5 <safe_rshift_func_uint32_t_u_s>:
    5fc5:	f3 0f 1e fa          	endbr64 
    5fc9:	55                   	push   %rbp
    5fca:	48 89 e5             	mov    %rsp,%rbp
    5fcd:	89 7d fc             	mov    %edi,-0x4(%rbp)
    5fd0:	89 75 f8             	mov    %esi,-0x8(%rbp)
    5fd3:	83 7d f8 00          	cmpl   $0x0,-0x8(%rbp)
    5fd7:	78 14                	js     5fed <safe_rshift_func_uint32_t_u_s+0x28>
    5fd9:	83 7d f8 1f          	cmpl   $0x1f,-0x8(%rbp)
    5fdd:	7f 0e                	jg     5fed <safe_rshift_func_uint32_t_u_s+0x28>
    5fdf:	8b 45 f8             	mov    -0x8(%rbp),%eax
    5fe2:	8b 55 fc             	mov    -0x4(%rbp),%edx
    5fe5:	89 c1                	mov    %eax,%ecx
    5fe7:	d3 ea                	shr    %cl,%edx
    5fe9:	89 d0                	mov    %edx,%eax
    5feb:	eb 03                	jmp    5ff0 <safe_rshift_func_uint32_t_u_s+0x2b>
    5fed:	8b 45 fc             	mov    -0x4(%rbp),%eax
    5ff0:	5d                   	pop    %rbp
    5ff1:	c3                   	retq   

0000000000005ff2 <safe_rshift_func_uint32_t_u_u>:
    5ff2:	f3 0f 1e fa          	endbr64 
    5ff6:	55                   	push   %rbp
    5ff7:	48 89 e5             	mov    %rsp,%rbp
    5ffa:	89 7d fc             	mov    %edi,-0x4(%rbp)
    5ffd:	89 75 f8             	mov    %esi,-0x8(%rbp)
    6000:	83 7d f8 1f          	cmpl   $0x1f,-0x8(%rbp)
    6004:	77 0e                	ja     6014 <safe_rshift_func_uint32_t_u_u+0x22>
    6006:	8b 45 f8             	mov    -0x8(%rbp),%eax
    6009:	8b 55 fc             	mov    -0x4(%rbp),%edx
    600c:	89 c1                	mov    %eax,%ecx
    600e:	d3 ea                	shr    %cl,%edx
    6010:	89 d0                	mov    %edx,%eax
    6012:	eb 03                	jmp    6017 <safe_rshift_func_uint32_t_u_u+0x25>
    6014:	8b 45 fc             	mov    -0x4(%rbp),%eax
    6017:	5d                   	pop    %rbp
    6018:	c3                   	retq   

0000000000006019 <safe_unary_minus_func_uint64_t_u>:
    6019:	f3 0f 1e fa          	endbr64 
    601d:	55                   	push   %rbp
    601e:	48 89 e5             	mov    %rsp,%rbp
    6021:	48 89 7d f8          	mov    %rdi,-0x8(%rbp)
    6025:	48 8b 45 f8          	mov    -0x8(%rbp),%rax
    6029:	48 f7 d8             	neg    %rax
    602c:	5d                   	pop    %rbp
    602d:	c3                   	retq   

000000000000602e <safe_add_func_uint64_t_u_u>:
    602e:	f3 0f 1e fa          	endbr64 
    6032:	55                   	push   %rbp
    6033:	48 89 e5             	mov    %rsp,%rbp
    6036:	48 89 7d f8          	mov    %rdi,-0x8(%rbp)
    603a:	48 89 75 f0          	mov    %rsi,-0x10(%rbp)
    603e:	48 8b 55 f8          	mov    -0x8(%rbp),%rdx
    6042:	48 8b 45 f0          	mov    -0x10(%rbp),%rax
    6046:	48 01 d0             	add    %rdx,%rax
    6049:	5d                   	pop    %rbp
    604a:	c3                   	retq   

000000000000604b <safe_sub_func_uint64_t_u_u>:
    604b:	f3 0f 1e fa          	endbr64 
    604f:	55                   	push   %rbp
    6050:	48 89 e5             	mov    %rsp,%rbp
    6053:	48 89 7d f8          	mov    %rdi,-0x8(%rbp)
    6057:	48 89 75 f0          	mov    %rsi,-0x10(%rbp)
    605b:	48 8b 45 f8          	mov    -0x8(%rbp),%rax
    605f:	48 2b 45 f0          	sub    -0x10(%rbp),%rax
    6063:	5d                   	pop    %rbp
    6064:	c3                   	retq   

0000000000006065 <safe_mul_func_uint64_t_u_u>:
    6065:	f3 0f 1e fa          	endbr64 
    6069:	55                   	push   %rbp
    606a:	48 89 e5             	mov    %rsp,%rbp
    606d:	48 89 7d f8          	mov    %rdi,-0x8(%rbp)
    6071:	48 89 75 f0          	mov    %rsi,-0x10(%rbp)
    6075:	48 8b 45 f8          	mov    -0x8(%rbp),%rax
    6079:	48 0f af 45 f0       	imul   -0x10(%rbp),%rax
    607e:	5d                   	pop    %rbp
    607f:	c3                   	retq   

0000000000006080 <safe_mod_func_uint64_t_u_u>:
    6080:	f3 0f 1e fa          	endbr64 
    6084:	55                   	push   %rbp
    6085:	48 89 e5             	mov    %rsp,%rbp
    6088:	48 89 7d f8          	mov    %rdi,-0x8(%rbp)
    608c:	48 89 75 f0          	mov    %rsi,-0x10(%rbp)
    6090:	48 83 7d f0 00       	cmpq   $0x0,-0x10(%rbp)
    6095:	74 12                	je     60a9 <safe_mod_func_uint64_t_u_u+0x29>
    6097:	48 8b 45 f8          	mov    -0x8(%rbp),%rax
    609b:	ba 00 00 00 00       	mov    $0x0,%edx
    60a0:	48 f7 75 f0          	divq   -0x10(%rbp)
    60a4:	48 89 d0             	mov    %rdx,%rax
    60a7:	eb 04                	jmp    60ad <safe_mod_func_uint64_t_u_u+0x2d>
    60a9:	48 8b 45 f8          	mov    -0x8(%rbp),%rax
    60ad:	5d                   	pop    %rbp
    60ae:	c3                   	retq   

00000000000060af <safe_div_func_uint64_t_u_u>:
    60af:	f3 0f 1e fa          	endbr64 
    60b3:	55                   	push   %rbp
    60b4:	48 89 e5             	mov    %rsp,%rbp
    60b7:	48 89 7d f8          	mov    %rdi,-0x8(%rbp)
    60bb:	48 89 75 f0          	mov    %rsi,-0x10(%rbp)
    60bf:	48 83 7d f0 00       	cmpq   $0x0,-0x10(%rbp)
    60c4:	74 0f                	je     60d5 <safe_div_func_uint64_t_u_u+0x26>
    60c6:	48 8b 45 f8          	mov    -0x8(%rbp),%rax
    60ca:	ba 00 00 00 00       	mov    $0x0,%edx
    60cf:	48 f7 75 f0          	divq   -0x10(%rbp)
    60d3:	eb 04                	jmp    60d9 <safe_div_func_uint64_t_u_u+0x2a>
    60d5:	48 8b 45 f8          	mov    -0x8(%rbp),%rax
    60d9:	5d                   	pop    %rbp
    60da:	c3                   	retq   

00000000000060db <safe_lshift_func_uint64_t_u_s>:
    60db:	f3 0f 1e fa          	endbr64 
    60df:	55                   	push   %rbp
    60e0:	48 89 e5             	mov    %rsp,%rbp
    60e3:	48 89 7d f8          	mov    %rdi,-0x8(%rbp)
    60e7:	89 75 f4             	mov    %esi,-0xc(%rbp)
    60ea:	83 7d f4 00          	cmpl   $0x0,-0xc(%rbp)
    60ee:	78 2f                	js     611f <safe_lshift_func_uint64_t_u_s+0x44>
    60f0:	83 7d f4 1f          	cmpl   $0x1f,-0xc(%rbp)
    60f4:	7f 29                	jg     611f <safe_lshift_func_uint64_t_u_s+0x44>
    60f6:	8b 45 f4             	mov    -0xc(%rbp),%eax
    60f9:	48 c7 c2 ff ff ff ff 	mov    $0xffffffffffffffff,%rdx
    6100:	89 c1                	mov    %eax,%ecx
    6102:	48 d3 ea             	shr    %cl,%rdx
    6105:	48 89 d0             	mov    %rdx,%rax
    6108:	48 39 45 f8          	cmp    %rax,-0x8(%rbp)
    610c:	77 11                	ja     611f <safe_lshift_func_uint64_t_u_s+0x44>
    610e:	8b 45 f4             	mov    -0xc(%rbp),%eax
    6111:	48 8b 55 f8          	mov    -0x8(%rbp),%rdx
    6115:	89 c1                	mov    %eax,%ecx
    6117:	48 d3 e2             	shl    %cl,%rdx
    611a:	48 89 d0             	mov    %rdx,%rax
    611d:	eb 04                	jmp    6123 <safe_lshift_func_uint64_t_u_s+0x48>
    611f:	48 8b 45 f8          	mov    -0x8(%rbp),%rax
    6123:	5d                   	pop    %rbp
    6124:	c3                   	retq   

0000000000006125 <safe_lshift_func_uint64_t_u_u>:
    6125:	f3 0f 1e fa          	endbr64 
    6129:	55                   	push   %rbp
    612a:	48 89 e5             	mov    %rsp,%rbp
    612d:	48 89 7d f8          	mov    %rdi,-0x8(%rbp)
    6131:	89 75 f4             	mov    %esi,-0xc(%rbp)
    6134:	83 7d f4 1f          	cmpl   $0x1f,-0xc(%rbp)
    6138:	77 29                	ja     6163 <safe_lshift_func_uint64_t_u_u+0x3e>
    613a:	8b 45 f4             	mov    -0xc(%rbp),%eax
    613d:	48 c7 c2 ff ff ff ff 	mov    $0xffffffffffffffff,%rdx
    6144:	89 c1                	mov    %eax,%ecx
    6146:	48 d3 ea             	shr    %cl,%rdx
    6149:	48 89 d0             	mov    %rdx,%rax
    614c:	48 39 45 f8          	cmp    %rax,-0x8(%rbp)
    6150:	77 11                	ja     6163 <safe_lshift_func_uint64_t_u_u+0x3e>
    6152:	8b 45 f4             	mov    -0xc(%rbp),%eax
    6155:	48 8b 55 f8          	mov    -0x8(%rbp),%rdx
    6159:	89 c1                	mov    %eax,%ecx
    615b:	48 d3 e2             	shl    %cl,%rdx
    615e:	48 89 d0             	mov    %rdx,%rax
    6161:	eb 04                	jmp    6167 <safe_lshift_func_uint64_t_u_u+0x42>
    6163:	48 8b 45 f8          	mov    -0x8(%rbp),%rax
    6167:	5d                   	pop    %rbp
    6168:	c3                   	retq   

0000000000006169 <safe_rshift_func_uint64_t_u_s>:
    6169:	f3 0f 1e fa          	endbr64 
    616d:	55                   	push   %rbp
    616e:	48 89 e5             	mov    %rsp,%rbp
    6171:	48 89 7d f8          	mov    %rdi,-0x8(%rbp)
    6175:	89 75 f4             	mov    %esi,-0xc(%rbp)
    6178:	83 7d f4 00          	cmpl   $0x0,-0xc(%rbp)
    617c:	78 17                	js     6195 <safe_rshift_func_uint64_t_u_s+0x2c>
    617e:	83 7d f4 1f          	cmpl   $0x1f,-0xc(%rbp)
    6182:	7f 11                	jg     6195 <safe_rshift_func_uint64_t_u_s+0x2c>
    6184:	8b 45 f4             	mov    -0xc(%rbp),%eax
    6187:	48 8b 55 f8          	mov    -0x8(%rbp),%rdx
    618b:	89 c1                	mov    %eax,%ecx
    618d:	48 d3 ea             	shr    %cl,%rdx
    6190:	48 89 d0             	mov    %rdx,%rax
    6193:	eb 04                	jmp    6199 <safe_rshift_func_uint64_t_u_s+0x30>
    6195:	48 8b 45 f8          	mov    -0x8(%rbp),%rax
    6199:	5d                   	pop    %rbp
    619a:	c3                   	retq   

000000000000619b <safe_rshift_func_uint64_t_u_u>:
    619b:	f3 0f 1e fa          	endbr64 
    619f:	55                   	push   %rbp
    61a0:	48 89 e5             	mov    %rsp,%rbp
    61a3:	48 89 7d f8          	mov    %rdi,-0x8(%rbp)
    61a7:	89 75 f4             	mov    %esi,-0xc(%rbp)
    61aa:	83 7d f4 1f          	cmpl   $0x1f,-0xc(%rbp)
    61ae:	77 11                	ja     61c1 <safe_rshift_func_uint64_t_u_u+0x26>
    61b0:	8b 45 f4             	mov    -0xc(%rbp),%eax
    61b3:	48 8b 55 f8          	mov    -0x8(%rbp),%rdx
    61b7:	89 c1                	mov    %eax,%ecx
    61b9:	48 d3 ea             	shr    %cl,%rdx
    61bc:	48 89 d0             	mov    %rdx,%rax
    61bf:	eb 04                	jmp    61c5 <safe_rshift_func_uint64_t_u_u+0x2a>
    61c1:	48 8b 45 f8          	mov    -0x8(%rbp),%rax
    61c5:	5d                   	pop    %rbp
    61c6:	c3                   	retq   

00000000000061c7 <safe_add_func_float_f_f>:
    61c7:	f3 0f 1e fa          	endbr64 
    61cb:	55                   	push   %rbp
    61cc:	48 89 e5             	mov    %rsp,%rbp
    61cf:	f3 0f 11 45 fc       	movss  %xmm0,-0x4(%rbp)
    61d4:	f3 0f 11 4d f8       	movss  %xmm1,-0x8(%rbp)
    61d9:	f3 0f 10 4d fc       	movss  -0x4(%rbp),%xmm1
    61de:	f3 0f 10 05 da cc 00 	movss  0xccda(%rip),%xmm0        # 12ec0 <l_144.4981+0x3c0>
    61e5:	00 
    61e6:	f3 0f 59 c8          	mulss  %xmm0,%xmm1
    61ea:	f3 0f 10 55 f8       	movss  -0x8(%rbp),%xmm2
    61ef:	f3 0f 10 05 c9 cc 00 	movss  0xccc9(%rip),%xmm0        # 12ec0 <l_144.4981+0x3c0>
    61f6:	00 
    61f7:	f3 0f 59 c2          	mulss  %xmm2,%xmm0
    61fb:	f3 0f 58 c1          	addss  %xmm1,%xmm0
    61ff:	f3 0f 10 0d c9 cc 00 	movss  0xccc9(%rip),%xmm1        # 12ed0 <l_144.4981+0x3d0>
    6206:	00 
    6207:	0f 54 c1             	andps  %xmm1,%xmm0
    620a:	0f 2f 05 cf cc 00 00 	comiss 0xcccf(%rip),%xmm0        # 12ee0 <l_144.4981+0x3e0>
    6211:	76 07                	jbe    621a <safe_add_func_float_f_f+0x53>
    6213:	f3 0f 10 45 fc       	movss  -0x4(%rbp),%xmm0
    6218:	eb 0a                	jmp    6224 <safe_add_func_float_f_f+0x5d>
    621a:	f3 0f 10 45 fc       	movss  -0x4(%rbp),%xmm0
    621f:	f3 0f 58 45 f8       	addss  -0x8(%rbp),%xmm0
    6224:	5d                   	pop    %rbp
    6225:	c3                   	retq   

0000000000006226 <safe_sub_func_float_f_f>:
    6226:	f3 0f 1e fa          	endbr64 
    622a:	55                   	push   %rbp
    622b:	48 89 e5             	mov    %rsp,%rbp
    622e:	f3 0f 11 45 fc       	movss  %xmm0,-0x4(%rbp)
    6233:	f3 0f 11 4d f8       	movss  %xmm1,-0x8(%rbp)
    6238:	f3 0f 10 4d fc       	movss  -0x4(%rbp),%xmm1
    623d:	f3 0f 10 05 7b cc 00 	movss  0xcc7b(%rip),%xmm0        # 12ec0 <l_144.4981+0x3c0>
    6244:	00 
    6245:	f3 0f 59 c1          	mulss  %xmm1,%xmm0
    6249:	f3 0f 10 55 f8       	movss  -0x8(%rbp),%xmm2
    624e:	f3 0f 10 0d 6a cc 00 	movss  0xcc6a(%rip),%xmm1        # 12ec0 <l_144.4981+0x3c0>
    6255:	00 
    6256:	f3 0f 59 ca          	mulss  %xmm2,%xmm1
    625a:	f3 0f 5c c1          	subss  %xmm1,%xmm0
    625e:	f3 0f 10 0d 6a cc 00 	movss  0xcc6a(%rip),%xmm1        # 12ed0 <l_144.4981+0x3d0>
    6265:	00 
    6266:	0f 54 c1             	andps  %xmm1,%xmm0
    6269:	0f 2f 05 70 cc 00 00 	comiss 0xcc70(%rip),%xmm0        # 12ee0 <l_144.4981+0x3e0>
    6270:	76 07                	jbe    6279 <safe_sub_func_float_f_f+0x53>
    6272:	f3 0f 10 45 fc       	movss  -0x4(%rbp),%xmm0
    6277:	eb 0a                	jmp    6283 <safe_sub_func_float_f_f+0x5d>
    6279:	f3 0f 10 45 fc       	movss  -0x4(%rbp),%xmm0
    627e:	f3 0f 5c 45 f8       	subss  -0x8(%rbp),%xmm0
    6283:	5d                   	pop    %rbp
    6284:	c3                   	retq   

0000000000006285 <safe_mul_func_float_f_f>:
    6285:	f3 0f 1e fa          	endbr64 
    6289:	55                   	push   %rbp
    628a:	48 89 e5             	mov    %rsp,%rbp
    628d:	f3 0f 11 45 fc       	movss  %xmm0,-0x4(%rbp)
    6292:	f3 0f 11 4d f8       	movss  %xmm1,-0x8(%rbp)
    6297:	f3 0f 10 4d fc       	movss  -0x4(%rbp),%xmm1
    629c:	f3 0f 10 05 40 cc 00 	movss  0xcc40(%rip),%xmm0        # 12ee4 <l_144.4981+0x3e4>
    62a3:	00 
    62a4:	f3 0f 59 c8          	mulss  %xmm0,%xmm1
    62a8:	f3 0f 10 55 f8       	movss  -0x8(%rbp),%xmm2
    62ad:	f3 0f 10 05 33 cc 00 	movss  0xcc33(%rip),%xmm0        # 12ee8 <l_144.4981+0x3e8>
    62b4:	00 
    62b5:	f3 0f 59 c2          	mulss  %xmm2,%xmm0
    62b9:	f3 0f 59 c1          	mulss  %xmm1,%xmm0
    62bd:	f3 0f 10 0d 0b cc 00 	movss  0xcc0b(%rip),%xmm1        # 12ed0 <l_144.4981+0x3d0>
    62c4:	00 
    62c5:	0f 54 c1             	andps  %xmm1,%xmm0
    62c8:	0f 2f 05 1d cc 00 00 	comiss 0xcc1d(%rip),%xmm0        # 12eec <l_144.4981+0x3ec>
    62cf:	76 07                	jbe    62d8 <safe_mul_func_float_f_f+0x53>
    62d1:	f3 0f 10 45 fc       	movss  -0x4(%rbp),%xmm0
    62d6:	eb 0a                	jmp    62e2 <safe_mul_func_float_f_f+0x5d>
    62d8:	f3 0f 10 45 fc       	movss  -0x4(%rbp),%xmm0
    62dd:	f3 0f 59 45 f8       	mulss  -0x8(%rbp),%xmm0
    62e2:	5d                   	pop    %rbp
    62e3:	c3                   	retq   

00000000000062e4 <safe_div_func_float_f_f>:
    62e4:	f3 0f 1e fa          	endbr64 
    62e8:	55                   	push   %rbp
    62e9:	48 89 e5             	mov    %rsp,%rbp
    62ec:	f3 0f 11 45 fc       	movss  %xmm0,-0x4(%rbp)
    62f1:	f3 0f 11 4d f8       	movss  %xmm1,-0x8(%rbp)
    62f6:	f3 0f 10 45 f8       	movss  -0x8(%rbp),%xmm0
    62fb:	f3 0f 10 0d cd cb 00 	movss  0xcbcd(%rip),%xmm1        # 12ed0 <l_144.4981+0x3d0>
    6302:	00 
    6303:	0f 54 c8             	andps  %xmm0,%xmm1
    6306:	f3 0f 10 05 e2 cb 00 	movss  0xcbe2(%rip),%xmm0        # 12ef0 <l_144.4981+0x3f0>
    630d:	00 
    630e:	0f 2f c1             	comiss %xmm1,%xmm0
    6311:	0f 97 c0             	seta   %al
    6314:	83 f0 01             	xor    $0x1,%eax
    6317:	84 c0                	test   %al,%al
    6319:	75 56                	jne    6371 <safe_div_func_float_f_f+0x8d>
    631b:	66 0f ef c0          	pxor   %xmm0,%xmm0
    631f:	0f 2e 45 f8          	ucomiss -0x8(%rbp),%xmm0
    6323:	7a 0a                	jp     632f <safe_div_func_float_f_f+0x4b>
    6325:	66 0f ef c0          	pxor   %xmm0,%xmm0
    6329:	0f 2e 45 f8          	ucomiss -0x8(%rbp),%xmm0
    632d:	74 4e                	je     637d <safe_div_func_float_f_f+0x99>
    632f:	f3 0f 10 4d fc       	movss  -0x4(%rbp),%xmm1
    6334:	f3 0f 10 05 b8 cb 00 	movss  0xcbb8(%rip),%xmm0        # 12ef4 <l_144.4981+0x3f4>
    633b:	00 
    633c:	f3 0f 59 c1          	mulss  %xmm1,%xmm0
    6340:	f3 0f 10 55 f8       	movss  -0x8(%rbp),%xmm2
    6345:	f3 0f 10 0d ab cb 00 	movss  0xcbab(%rip),%xmm1        # 12ef8 <l_144.4981+0x3f8>
    634c:	00 
    634d:	f3 0f 59 ca          	mulss  %xmm2,%xmm1
    6351:	f3 0f 5e c1          	divss  %xmm1,%xmm0
    6355:	f3 0f 10 0d 73 cb 00 	movss  0xcb73(%rip),%xmm1        # 12ed0 <l_144.4981+0x3d0>
    635c:	00 
    635d:	0f 54 c1             	andps  %xmm1,%xmm0
    6360:	0f 2f 05 95 cb 00 00 	comiss 0xcb95(%rip),%xmm0        # 12efc <l_144.4981+0x3fc>
    6367:	0f 97 c0             	seta   %al
    636a:	83 f0 01             	xor    $0x1,%eax
    636d:	84 c0                	test   %al,%al
    636f:	74 0c                	je     637d <safe_div_func_float_f_f+0x99>
    6371:	f3 0f 10 45 fc       	movss  -0x4(%rbp),%xmm0
    6376:	f3 0f 5e 45 f8       	divss  -0x8(%rbp),%xmm0
    637b:	eb 05                	jmp    6382 <safe_div_func_float_f_f+0x9e>
    637d:	f3 0f 10 45 fc       	movss  -0x4(%rbp),%xmm0
    6382:	5d                   	pop    %rbp
    6383:	c3                   	retq   

0000000000006384 <safe_add_func_double_f_f>:
    6384:	f3 0f 1e fa          	endbr64 
    6388:	55                   	push   %rbp
    6389:	48 89 e5             	mov    %rsp,%rbp
    638c:	f2 0f 11 45 f8       	movsd  %xmm0,-0x8(%rbp)
    6391:	f2 0f 11 4d f0       	movsd  %xmm1,-0x10(%rbp)
    6396:	f2 0f 10 4d f8       	movsd  -0x8(%rbp),%xmm1
    639b:	f2 0f 10 05 5d cb 00 	movsd  0xcb5d(%rip),%xmm0        # 12f00 <l_144.4981+0x400>
    63a2:	00 
    63a3:	f2 0f 59 c8          	mulsd  %xmm0,%xmm1
    63a7:	f2 0f 10 55 f0       	movsd  -0x10(%rbp),%xmm2
    63ac:	f2 0f 10 05 4c cb 00 	movsd  0xcb4c(%rip),%xmm0        # 12f00 <l_144.4981+0x400>
    63b3:	00 
    63b4:	f2 0f 59 c2          	mulsd  %xmm2,%xmm0
    63b8:	f2 0f 58 c1          	addsd  %xmm1,%xmm0
    63bc:	f3 0f 7e 0d 4c cb 00 	movq   0xcb4c(%rip),%xmm1        # 12f10 <l_144.4981+0x410>
    63c3:	00 
    63c4:	66 0f 54 c1          	andpd  %xmm1,%xmm0
    63c8:	66 0f 2f 05 50 cb 00 	comisd 0xcb50(%rip),%xmm0        # 12f20 <l_144.4981+0x420>
    63cf:	00 
    63d0:	76 07                	jbe    63d9 <safe_add_func_double_f_f+0x55>
    63d2:	f2 0f 10 45 f8       	movsd  -0x8(%rbp),%xmm0
    63d7:	eb 0a                	jmp    63e3 <safe_add_func_double_f_f+0x5f>
    63d9:	f2 0f 10 45 f8       	movsd  -0x8(%rbp),%xmm0
    63de:	f2 0f 58 45 f0       	addsd  -0x10(%rbp),%xmm0
    63e3:	5d                   	pop    %rbp
    63e4:	c3                   	retq   

00000000000063e5 <safe_sub_func_double_f_f>:
    63e5:	f3 0f 1e fa          	endbr64 
    63e9:	55                   	push   %rbp
    63ea:	48 89 e5             	mov    %rsp,%rbp
    63ed:	f2 0f 11 45 f8       	movsd  %xmm0,-0x8(%rbp)
    63f2:	f2 0f 11 4d f0       	movsd  %xmm1,-0x10(%rbp)
    63f7:	f2 0f 10 4d f8       	movsd  -0x8(%rbp),%xmm1
    63fc:	f2 0f 10 05 fc ca 00 	movsd  0xcafc(%rip),%xmm0        # 12f00 <l_144.4981+0x400>
    6403:	00 
    6404:	f2 0f 59 c1          	mulsd  %xmm1,%xmm0
    6408:	f2 0f 10 55 f0       	movsd  -0x10(%rbp),%xmm2
    640d:	f2 0f 10 0d eb ca 00 	movsd  0xcaeb(%rip),%xmm1        # 12f00 <l_144.4981+0x400>
    6414:	00 
    6415:	f2 0f 59 ca          	mulsd  %xmm2,%xmm1
    6419:	f2 0f 5c c1          	subsd  %xmm1,%xmm0
    641d:	f3 0f 7e 0d eb ca 00 	movq   0xcaeb(%rip),%xmm1        # 12f10 <l_144.4981+0x410>
    6424:	00 
    6425:	66 0f 54 c1          	andpd  %xmm1,%xmm0
    6429:	66 0f 2f 05 ef ca 00 	comisd 0xcaef(%rip),%xmm0        # 12f20 <l_144.4981+0x420>
    6430:	00 
    6431:	76 07                	jbe    643a <safe_sub_func_double_f_f+0x55>
    6433:	f2 0f 10 45 f8       	movsd  -0x8(%rbp),%xmm0
    6438:	eb 0a                	jmp    6444 <safe_sub_func_double_f_f+0x5f>
    643a:	f2 0f 10 45 f8       	movsd  -0x8(%rbp),%xmm0
    643f:	f2 0f 5c 45 f0       	subsd  -0x10(%rbp),%xmm0
    6444:	5d                   	pop    %rbp
    6445:	c3                   	retq   

0000000000006446 <safe_mul_func_double_f_f>:
    6446:	f3 0f 1e fa          	endbr64 
    644a:	55                   	push   %rbp
    644b:	48 89 e5             	mov    %rsp,%rbp
    644e:	f2 0f 11 45 f8       	movsd  %xmm0,-0x8(%rbp)
    6453:	f2 0f 11 4d f0       	movsd  %xmm1,-0x10(%rbp)
    6458:	f2 0f 10 4d f8       	movsd  -0x8(%rbp),%xmm1
    645d:	f2 0f 10 05 c3 ca 00 	movsd  0xcac3(%rip),%xmm0        # 12f28 <l_144.4981+0x428>
    6464:	00 
    6465:	f2 0f 59 c8          	mulsd  %xmm0,%xmm1
    6469:	f2 0f 10 55 f0       	movsd  -0x10(%rbp),%xmm2
    646e:	f2 0f 10 05 ba ca 00 	movsd  0xcaba(%rip),%xmm0        # 12f30 <l_144.4981+0x430>
    6475:	00 
    6476:	f2 0f 59 c2          	mulsd  %xmm2,%xmm0
    647a:	f2 0f 59 c1          	mulsd  %xmm1,%xmm0
    647e:	f3 0f 7e 0d 8a ca 00 	movq   0xca8a(%rip),%xmm1        # 12f10 <l_144.4981+0x410>
    6485:	00 
    6486:	66 0f 54 c1          	andpd  %xmm1,%xmm0
    648a:	66 0f 2f 05 a6 ca 00 	comisd 0xcaa6(%rip),%xmm0        # 12f38 <l_144.4981+0x438>
    6491:	00 
    6492:	76 07                	jbe    649b <safe_mul_func_double_f_f+0x55>
    6494:	f2 0f 10 45 f8       	movsd  -0x8(%rbp),%xmm0
    6499:	eb 0a                	jmp    64a5 <safe_mul_func_double_f_f+0x5f>
    649b:	f2 0f 10 45 f8       	movsd  -0x8(%rbp),%xmm0
    64a0:	f2 0f 59 45 f0       	mulsd  -0x10(%rbp),%xmm0
    64a5:	5d                   	pop    %rbp
    64a6:	c3                   	retq   

00000000000064a7 <safe_div_func_double_f_f>:
    64a7:	f3 0f 1e fa          	endbr64 
    64ab:	55                   	push   %rbp
    64ac:	48 89 e5             	mov    %rsp,%rbp
    64af:	f2 0f 11 45 f8       	movsd  %xmm0,-0x8(%rbp)
    64b4:	f2 0f 11 4d f0       	movsd  %xmm1,-0x10(%rbp)
    64b9:	f2 0f 10 45 f0       	movsd  -0x10(%rbp),%xmm0
    64be:	f3 0f 7e 0d 4a ca 00 	movq   0xca4a(%rip),%xmm1        # 12f10 <l_144.4981+0x410>
    64c5:	00 
    64c6:	66 0f 54 c8          	andpd  %xmm0,%xmm1
    64ca:	f2 0f 10 05 6e ca 00 	movsd  0xca6e(%rip),%xmm0        # 12f40 <l_144.4981+0x440>
    64d1:	00 
    64d2:	66 0f 2f c1          	comisd %xmm1,%xmm0
    64d6:	0f 97 c0             	seta   %al
    64d9:	83 f0 01             	xor    $0x1,%eax
    64dc:	84 c0                	test   %al,%al
    64de:	75 5a                	jne    653a <safe_div_func_double_f_f+0x93>
    64e0:	66 0f ef c0          	pxor   %xmm0,%xmm0
    64e4:	66 0f 2e 45 f0       	ucomisd -0x10(%rbp),%xmm0
    64e9:	7a 0b                	jp     64f6 <safe_div_func_double_f_f+0x4f>
    64eb:	66 0f ef c0          	pxor   %xmm0,%xmm0
    64ef:	66 0f 2e 45 f0       	ucomisd -0x10(%rbp),%xmm0
    64f4:	74 50                	je     6546 <safe_div_func_double_f_f+0x9f>
    64f6:	f2 0f 10 4d f8       	movsd  -0x8(%rbp),%xmm1
    64fb:	f2 0f 10 05 45 ca 00 	movsd  0xca45(%rip),%xmm0        # 12f48 <l_144.4981+0x448>
    6502:	00 
    6503:	f2 0f 59 c1          	mulsd  %xmm1,%xmm0
    6507:	f2 0f 10 55 f0       	movsd  -0x10(%rbp),%xmm2
    650c:	f2 0f 10 0d 3c ca 00 	movsd  0xca3c(%rip),%xmm1        # 12f50 <l_144.4981+0x450>
    6513:	00 
    6514:	f2 0f 59 ca          	mulsd  %xmm2,%xmm1
    6518:	f2 0f 5e c1          	divsd  %xmm1,%xmm0
    651c:	f3 0f 7e 0d ec c9 00 	movq   0xc9ec(%rip),%xmm1        # 12f10 <l_144.4981+0x410>
    6523:	00 
    6524:	66 0f 54 c1          	andpd  %xmm1,%xmm0
    6528:	66 0f 2f 05 28 ca 00 	comisd 0xca28(%rip),%xmm0        # 12f58 <l_144.4981+0x458>
    652f:	00 
    6530:	0f 97 c0             	seta   %al
    6533:	83 f0 01             	xor    $0x1,%eax
    6536:	84 c0                	test   %al,%al
    6538:	74 0c                	je     6546 <safe_div_func_double_f_f+0x9f>
    653a:	f2 0f 10 45 f8       	movsd  -0x8(%rbp),%xmm0
    653f:	f2 0f 5e 45 f0       	divsd  -0x10(%rbp),%xmm0
    6544:	eb 05                	jmp    654b <safe_div_func_double_f_f+0xa4>
    6546:	f2 0f 10 45 f8       	movsd  -0x8(%rbp),%xmm0
    654b:	5d                   	pop    %rbp
    654c:	c3                   	retq   

000000000000654d <safe_convert_func_float_to_int32_t>:
    654d:	f3 0f 1e fa          	endbr64 
    6551:	55                   	push   %rbp
    6552:	48 89 e5             	mov    %rsp,%rbp
    6555:	f3 0f 11 45 fc       	movss  %xmm0,-0x4(%rbp)
    655a:	f3 0f 10 05 fe c9 00 	movss  0xc9fe(%rip),%xmm0        # 12f60 <l_144.4981+0x460>
    6561:	00 
    6562:	0f 2f 45 fc          	comiss -0x4(%rbp),%xmm0
    6566:	0f 93 c0             	setae  %al
    6569:	83 f0 01             	xor    $0x1,%eax
    656c:	84 c0                	test   %al,%al
    656e:	74 21                	je     6591 <safe_convert_func_float_to_int32_t+0x44>
    6570:	f3 0f 10 45 fc       	movss  -0x4(%rbp),%xmm0
    6575:	0f 2f 05 e8 c9 00 00 	comiss 0xc9e8(%rip),%xmm0        # 12f64 <l_144.4981+0x464>
    657c:	0f 93 c0             	setae  %al
    657f:	83 f0 01             	xor    $0x1,%eax
    6582:	84 c0                	test   %al,%al
    6584:	74 0b                	je     6591 <safe_convert_func_float_to_int32_t+0x44>
    6586:	f3 0f 10 45 fc       	movss  -0x4(%rbp),%xmm0
    658b:	f3 0f 2c c0          	cvttss2si %xmm0,%eax
    658f:	eb 05                	jmp    6596 <safe_convert_func_float_to_int32_t+0x49>
    6591:	b8 ff ff ff 7f       	mov    $0x7fffffff,%eax
    6596:	5d                   	pop    %rbp
    6597:	c3                   	retq   

0000000000006598 <crc32_gentab>:
    6598:	f3 0f 1e fa          	endbr64 
    659c:	55                   	push   %rbp
    659d:	48 89 e5             	mov    %rsp,%rbp
    65a0:	c7 45 fc 20 83 b8 ed 	movl   $0xedb88320,-0x4(%rbp)
    65a7:	c7 45 f4 00 00 00 00 	movl   $0x0,-0xc(%rbp)
    65ae:	eb 51                	jmp    6601 <crc32_gentab+0x69>
    65b0:	8b 45 f4             	mov    -0xc(%rbp),%eax
    65b3:	89 45 f0             	mov    %eax,-0x10(%rbp)
    65b6:	c7 45 f8 08 00 00 00 	movl   $0x8,-0x8(%rbp)
    65bd:	eb 1e                	jmp    65dd <crc32_gentab+0x45>
    65bf:	8b 45 f0             	mov    -0x10(%rbp),%eax
    65c2:	83 e0 01             	and    $0x1,%eax
    65c5:	85 c0                	test   %eax,%eax
    65c7:	74 0d                	je     65d6 <crc32_gentab+0x3e>
    65c9:	8b 45 f0             	mov    -0x10(%rbp),%eax
    65cc:	d1 e8                	shr    %eax
    65ce:	33 45 fc             	xor    -0x4(%rbp),%eax
    65d1:	89 45 f0             	mov    %eax,-0x10(%rbp)
    65d4:	eb 03                	jmp    65d9 <crc32_gentab+0x41>
    65d6:	d1 6d f0             	shrl   -0x10(%rbp)
    65d9:	83 6d f8 01          	subl   $0x1,-0x8(%rbp)
    65dd:	83 7d f8 00          	cmpl   $0x0,-0x8(%rbp)
    65e1:	7f dc                	jg     65bf <crc32_gentab+0x27>
    65e3:	8b 45 f4             	mov    -0xc(%rbp),%eax
    65e6:	48 98                	cltq   
    65e8:	48 8d 0c 85 00 00 00 	lea    0x0(,%rax,4),%rcx
    65ef:	00 
    65f0:	48 8d 15 29 21 01 00 	lea    0x12129(%rip),%rdx        # 18720 <crc32_tab>
    65f7:	8b 45 f0             	mov    -0x10(%rbp),%eax
    65fa:	89 04 11             	mov    %eax,(%rcx,%rdx,1)
    65fd:	83 45 f4 01          	addl   $0x1,-0xc(%rbp)
    6601:	81 7d f4 ff 00 00 00 	cmpl   $0xff,-0xc(%rbp)
    6608:	7e a6                	jle    65b0 <crc32_gentab+0x18>
    660a:	90                   	nop
    660b:	90                   	nop
    660c:	5d                   	pop    %rbp
    660d:	c3                   	retq   

000000000000660e <crc32_byte>:
    660e:	f3 0f 1e fa          	endbr64 
    6612:	55                   	push   %rbp
    6613:	48 89 e5             	mov    %rsp,%rbp
    6616:	89 f8                	mov    %edi,%eax
    6618:	88 45 fc             	mov    %al,-0x4(%rbp)
    661b:	8b 05 ff f9 00 00    	mov    0xf9ff(%rip),%eax        # 16020 <crc32_context>
    6621:	c1 e8 08             	shr    $0x8,%eax
    6624:	89 c1                	mov    %eax,%ecx
    6626:	0f b6 55 fc          	movzbl -0x4(%rbp),%edx
    662a:	8b 05 f0 f9 00 00    	mov    0xf9f0(%rip),%eax        # 16020 <crc32_context>
    6630:	31 d0                	xor    %edx,%eax
    6632:	0f b6 c0             	movzbl %al,%eax
    6635:	89 c0                	mov    %eax,%eax
    6637:	48 8d 14 85 00 00 00 	lea    0x0(,%rax,4),%rdx
    663e:	00 
    663f:	48 8d 05 da 20 01 00 	lea    0x120da(%rip),%rax        # 18720 <crc32_tab>
    6646:	8b 04 02             	mov    (%rdx,%rax,1),%eax
    6649:	31 c8                	xor    %ecx,%eax
    664b:	89 05 cf f9 00 00    	mov    %eax,0xf9cf(%rip)        # 16020 <crc32_context>
    6651:	90                   	nop
    6652:	5d                   	pop    %rbp
    6653:	c3                   	retq   

0000000000006654 <crc32_8bytes>:
    6654:	f3 0f 1e fa          	endbr64 
    6658:	55                   	push   %rbp
    6659:	48 89 e5             	mov    %rsp,%rbp
    665c:	48 83 ec 08          	sub    $0x8,%rsp
    6660:	48 89 7d f8          	mov    %rdi,-0x8(%rbp)
    6664:	48 8b 45 f8          	mov    -0x8(%rbp),%rax
    6668:	0f b6 c0             	movzbl %al,%eax
    666b:	89 c7                	mov    %eax,%edi
    666d:	e8 9c ff ff ff       	callq  660e <crc32_byte>
    6672:	48 8b 45 f8          	mov    -0x8(%rbp),%rax
    6676:	48 c1 e8 08          	shr    $0x8,%rax
    667a:	0f b6 c0             	movzbl %al,%eax
    667d:	89 c7                	mov    %eax,%edi
    667f:	e8 8a ff ff ff       	callq  660e <crc32_byte>
    6684:	48 8b 45 f8          	mov    -0x8(%rbp),%rax
    6688:	48 c1 e8 10          	shr    $0x10,%rax
    668c:	0f b6 c0             	movzbl %al,%eax
    668f:	89 c7                	mov    %eax,%edi
    6691:	e8 78 ff ff ff       	callq  660e <crc32_byte>
    6696:	48 8b 45 f8          	mov    -0x8(%rbp),%rax
    669a:	48 c1 e8 18          	shr    $0x18,%rax
    669e:	0f b6 c0             	movzbl %al,%eax
    66a1:	89 c7                	mov    %eax,%edi
    66a3:	e8 66 ff ff ff       	callq  660e <crc32_byte>
    66a8:	48 8b 45 f8          	mov    -0x8(%rbp),%rax
    66ac:	48 c1 e8 20          	shr    $0x20,%rax
    66b0:	0f b6 c0             	movzbl %al,%eax
    66b3:	89 c7                	mov    %eax,%edi
    66b5:	e8 54 ff ff ff       	callq  660e <crc32_byte>
    66ba:	48 8b 45 f8          	mov    -0x8(%rbp),%rax
    66be:	48 c1 e8 28          	shr    $0x28,%rax
    66c2:	0f b6 c0             	movzbl %al,%eax
    66c5:	89 c7                	mov    %eax,%edi
    66c7:	e8 42 ff ff ff       	callq  660e <crc32_byte>
    66cc:	48 8b 45 f8          	mov    -0x8(%rbp),%rax
    66d0:	48 c1 e8 30          	shr    $0x30,%rax
    66d4:	0f b6 c0             	movzbl %al,%eax
    66d7:	89 c7                	mov    %eax,%edi
    66d9:	e8 30 ff ff ff       	callq  660e <crc32_byte>
    66de:	48 8b 45 f8          	mov    -0x8(%rbp),%rax
    66e2:	48 c1 e8 38          	shr    $0x38,%rax
    66e6:	0f b6 c0             	movzbl %al,%eax
    66e9:	89 c7                	mov    %eax,%edi
    66eb:	e8 1e ff ff ff       	callq  660e <crc32_byte>
    66f0:	90                   	nop
    66f1:	c9                   	leaveq 
    66f2:	c3                   	retq   

00000000000066f3 <transparent_crc>:
    66f3:	f3 0f 1e fa          	endbr64 
    66f7:	55                   	push   %rbp
    66f8:	48 89 e5             	mov    %rsp,%rbp
    66fb:	48 83 ec 20          	sub    $0x20,%rsp
    66ff:	48 89 7d f8          	mov    %rdi,-0x8(%rbp)
    6703:	48 89 75 f0          	mov    %rsi,-0x10(%rbp)
    6707:	89 55 ec             	mov    %edx,-0x14(%rbp)
    670a:	48 8b 45 f8          	mov    -0x8(%rbp),%rax
    670e:	48 89 c7             	mov    %rax,%rdi
    6711:	e8 3e ff ff ff       	callq  6654 <crc32_8bytes>
    6716:	83 7d ec 00          	cmpl   $0x0,-0x14(%rbp)
    671a:	74 22                	je     673e <transparent_crc+0x4b>
    671c:	8b 05 fe f8 00 00    	mov    0xf8fe(%rip),%eax        # 16020 <crc32_context>
    6722:	f7 d0                	not    %eax
    6724:	89 c2                	mov    %eax,%edx
    6726:	48 8b 45 f0          	mov    -0x10(%rbp),%rax
    672a:	48 89 c6             	mov    %rax,%rsi
    672d:	48 8d 3d fc a8 00 00 	lea    0xa8fc(%rip),%rdi        # 11030 <_IO_stdin_used+0x30>
    6734:	b8 00 00 00 00       	mov    $0x0,%eax
    6739:	e8 42 e9 ff ff       	callq  5080 <printf@plt>
    673e:	90                   	nop
    673f:	c9                   	leaveq 
    6740:	c3                   	retq   

0000000000006741 <transparent_crc_bytes>:
    6741:	f3 0f 1e fa          	endbr64 
    6745:	55                   	push   %rbp
    6746:	48 89 e5             	mov    %rsp,%rbp
    6749:	48 83 ec 30          	sub    $0x30,%rsp
    674d:	48 89 7d e8          	mov    %rdi,-0x18(%rbp)
    6751:	89 75 e4             	mov    %esi,-0x1c(%rbp)
    6754:	48 89 55 d8          	mov    %rdx,-0x28(%rbp)
    6758:	89 4d e0             	mov    %ecx,-0x20(%rbp)
    675b:	c7 45 fc 00 00 00 00 	movl   $0x0,-0x4(%rbp)
    6762:	eb 1e                	jmp    6782 <transparent_crc_bytes+0x41>
    6764:	8b 45 fc             	mov    -0x4(%rbp),%eax
    6767:	48 63 d0             	movslq %eax,%rdx
    676a:	48 8b 45 e8          	mov    -0x18(%rbp),%rax
    676e:	48 01 d0             	add    %rdx,%rax
    6771:	0f b6 00             	movzbl (%rax),%eax
    6774:	0f b6 c0             	movzbl %al,%eax
    6777:	89 c7                	mov    %eax,%edi
    6779:	e8 90 fe ff ff       	callq  660e <crc32_byte>
    677e:	83 45 fc 01          	addl   $0x1,-0x4(%rbp)
    6782:	8b 45 fc             	mov    -0x4(%rbp),%eax
    6785:	3b 45 e4             	cmp    -0x1c(%rbp),%eax
    6788:	7c da                	jl     6764 <transparent_crc_bytes+0x23>
    678a:	83 7d e0 00          	cmpl   $0x0,-0x20(%rbp)
    678e:	74 22                	je     67b2 <transparent_crc_bytes+0x71>
    6790:	8b 05 8a f8 00 00    	mov    0xf88a(%rip),%eax        # 16020 <crc32_context>
    6796:	f7 d0                	not    %eax
    6798:	89 c2                	mov    %eax,%edx
    679a:	48 8b 45 d8          	mov    -0x28(%rbp),%rax
    679e:	48 89 c6             	mov    %rax,%rsi
    67a1:	48 8d 3d 88 a8 00 00 	lea    0xa888(%rip),%rdi        # 11030 <_IO_stdin_used+0x30>
    67a8:	b8 00 00 00 00       	mov    $0x0,%eax
    67ad:	e8 ce e8 ff ff       	callq  5080 <printf@plt>
    67b2:	90                   	nop
    67b3:	c9                   	leaveq 
    67b4:	c3                   	retq   

00000000000067b5 <func_1>:
    67b5:	f3 0f 1e fa          	endbr64 
    67b9:	55                   	push   %rbp
    67ba:	48 89 e5             	mov    %rsp,%rbp
    67bd:	41 57                	push   %r15
    67bf:	41 56                	push   %r14
    67c1:	41 55                	push   %r13
    67c3:	41 54                	push   %r12
    67c5:	53                   	push   %rbx
    67c6:	48 81 ec 88 05 00 00 	sub    $0x588,%rsp
    67cd:	64 48 8b 04 25 28 00 	mov    %fs:0x28,%rax
    67d4:	00 00 
    67d6:	48 89 45 c8          	mov    %rax,-0x38(%rbp)
    67da:	31 c0                	xor    %eax,%eax
    67dc:	c7 85 80 fc ff ff c2 	movl   $0xec17e5c2,-0x380(%rbp)
    67e3:	e5 17 ec 
    67e6:	c7 85 84 fc ff ff c2 	movl   $0xec17e5c2,-0x37c(%rbp)
    67ed:	e5 17 ec 
    67f0:	c7 85 88 fc ff ff ff 	movl   $0xffffffff,-0x378(%rbp)
    67f7:	ff ff ff 
    67fa:	c7 85 8c fc ff ff c2 	movl   $0xec17e5c2,-0x374(%rbp)
    6801:	e5 17 ec 
    6804:	c7 85 90 fc ff ff c2 	movl   $0xec17e5c2,-0x370(%rbp)
    680b:	e5 17 ec 
    680e:	c7 85 94 fc ff ff ff 	movl   $0xffffffff,-0x36c(%rbp)
    6815:	ff ff ff 
    6818:	c7 85 98 fc ff ff c2 	movl   $0xec17e5c2,-0x368(%rbp)
    681f:	e5 17 ec 
    6822:	c7 85 9c fc ff ff c2 	movl   $0xec17e5c2,-0x364(%rbp)
    6829:	e5 17 ec 
    682c:	c7 85 a0 fc ff ff ff 	movl   $0xffffffff,-0x360(%rbp)
    6833:	ff ff ff 
    6836:	c7 85 a4 fc ff ff c2 	movl   $0xec17e5c2,-0x35c(%rbp)
    683d:	e5 17 ec 
    6840:	48 8d 05 f1 f7 00 00 	lea    0xf7f1(%rip),%rax        # 16038 <g_26>
    6847:	48 89 85 30 fb ff ff 	mov    %rax,-0x4d0(%rbp)
    684e:	c6 85 6d fa ff ff b2 	movb   $0xb2,-0x593(%rbp)
    6855:	c7 85 9c fa ff ff 6a 	movl   $0x7c70e36a,-0x564(%rbp)
    685c:	e3 70 7c 
    685f:	48 c7 85 38 fb ff ff 	movq   $0xffffffffffffffff,-0x4c8(%rbp)
    6866:	ff ff ff ff 
    686a:	48 c7 85 40 fb ff ff 	movq   $0x0,-0x4c0(%rbp)
    6871:	00 00 00 00 
    6875:	66 c7 85 74 fa ff ff 	movw   $0xf958,-0x58c(%rbp)
    687c:	58 f9 
    687e:	c7 85 a0 fa ff ff c0 	movl   $0x858555c0,-0x560(%rbp)
    6885:	55 85 85 
    6888:	48 c7 85 48 fb ff ff 	movq   $0x0,-0x4b8(%rbp)
    688f:	00 00 00 00 
    6893:	c6 85 6f fa ff ff 43 	movb   $0x43,-0x591(%rbp)
    689a:	48 8d 05 9f 1c 01 00 	lea    0x11c9f(%rip),%rax        # 18540 <g_3250>
    68a1:	48 89 85 50 fb ff ff 	mov    %rax,-0x4b0(%rbp)
    68a8:	48 c7 85 58 fb ff ff 	movq   $0x4,-0x4a8(%rbp)
    68af:	04 00 00 00 
    68b3:	c7 85 80 fa ff ff 00 	movl   $0x0,-0x580(%rbp)
    68ba:	00 00 00 
    68bd:	eb 1e                	jmp    68dd <func_1+0x128>
    68bf:	8b 85 80 fa ff ff    	mov    -0x580(%rbp),%eax
    68c5:	48 98                	cltq   
    68c7:	48 8d 15 56 f7 00 00 	lea    0xf756(%rip),%rdx        # 16024 <g_3>
    68ce:	48 89 94 c5 e0 fb ff 	mov    %rdx,-0x420(%rbp,%rax,8)
    68d5:	ff 
    68d6:	83 85 80 fa ff ff 01 	addl   $0x1,-0x580(%rbp)
    68dd:	83 bd 80 fa ff ff 01 	cmpl   $0x1,-0x580(%rbp)
    68e4:	7e d9                	jle    68bf <func_1+0x10a>
    68e6:	c7 85 80 fa ff ff 00 	movl   $0x0,-0x580(%rbp)
    68ed:	00 00 00 
    68f0:	eb 1b                	jmp    690d <func_1+0x158>
    68f2:	8b 85 80 fa ff ff    	mov    -0x580(%rbp),%eax
    68f8:	48 98                	cltq   
    68fa:	48 c7 84 c5 00 fc ff 	movq   $0xffffffffffffffff,-0x400(%rbp,%rax,8)
    6901:	ff ff ff ff ff 
    6906:	83 85 80 fa ff ff 01 	addl   $0x1,-0x580(%rbp)
    690d:	83 bd 80 fa ff ff 02 	cmpl   $0x2,-0x580(%rbp)
    6914:	7e dc                	jle    68f2 <func_1+0x13d>
    6916:	c7 05 04 f7 00 00 1f 	movl   $0x4ea6801f,0xf704(%rip)        # 16024 <g_3>
    691d:	80 a6 4e 
    6920:	48 8b 9d e0 fb ff ff 	mov    -0x420(%rbp),%rbx
    6927:	4c 8b a5 e0 fb ff ff 	mov    -0x420(%rbp),%r12
    692e:	8b 05 f0 f6 00 00    	mov    0xf6f0(%rip),%eax        # 16024 <g_3>
    6934:	4c 63 f8             	movslq %eax,%r15
    6937:	b8 01 00 00 00       	mov    $0x1,%eax
    693c:	44 0f b6 f0          	movzbl %al,%r14d
    6940:	8b 05 de f6 00 00    	mov    0xf6de(%rip),%eax        # 16024 <g_3>
    6946:	4c 63 e8             	movslq %eax,%r13
    6949:	0f b6 85 6d fa ff ff 	movzbl -0x593(%rbp),%eax
    6950:	0f b6 c0             	movzbl %al,%eax
    6953:	89 c6                	mov    %eax,%esi
    6955:	bf ff 00 00 00       	mov    $0xff,%edi
    695a:	e8 ed f2 ff ff       	callq  5c4c <safe_lshift_func_uint8_t_u_u>
    695f:	84 c0                	test   %al,%al
    6961:	74 07                	je     696a <func_1+0x1b5>
    6963:	b8 01 00 00 00       	mov    $0x1,%eax
    6968:	eb 05                	jmp    696f <func_1+0x1ba>
    696a:	b8 00 00 00 00       	mov    $0x0,%eax
    696f:	48 63 d0             	movslq %eax,%rdx
    6972:	8b 05 ac f6 00 00    	mov    0xf6ac(%rip),%eax        # 16024 <g_3>
    6978:	48 98                	cltq   
    697a:	48 89 d6             	mov    %rdx,%rsi
    697d:	48 89 c7             	mov    %rax,%rdi
    6980:	e8 a9 f6 ff ff       	callq  602e <safe_add_func_uint64_t_u_u>
    6985:	4d 89 f8             	mov    %r15,%r8
    6988:	44 89 f1             	mov    %r14d,%ecx
    698b:	48 8d 15 92 f6 00 00 	lea    0xf692(%rip),%rdx        # 16024 <g_3>
    6992:	4c 89 ee             	mov    %r13,%rsi
    6995:	89 c7                	mov    %eax,%edi
    6997:	e8 03 40 00 00       	callq  a99f <func_27>
    699c:	49 89 c5             	mov    %rax,%r13
    699f:	8b 05 8b f6 00 00    	mov    0xf68b(%rip),%eax        # 16030 <g_24+0x8>
    69a5:	8b 05 85 f6 00 00    	mov    0xf685(%rip),%eax        # 16030 <g_24+0x8>
    69ab:	0f b7 c0             	movzwl %ax,%eax
    69ae:	be 0c 00 00 00       	mov    $0xc,%esi
    69b3:	89 c7                	mov    %eax,%edi
    69b5:	e8 04 f4 ff ff       	callq  5dbe <safe_lshift_func_uint16_t_u_s>
    69ba:	0f b7 d0             	movzwl %ax,%edx
    69bd:	48 8b 85 30 fb ff ff 	mov    -0x4d0(%rbp),%rax
    69c4:	48 89 10             	mov    %rdx,(%rax)
    69c7:	8b 05 57 f6 00 00    	mov    0xf657(%rip),%eax        # 16024 <g_3>
    69cd:	0f be d0             	movsbl %al,%edx
    69d0:	8b 05 4e f6 00 00    	mov    0xf64e(%rip),%eax        # 16024 <g_3>
    69d6:	0f be c0             	movsbl %al,%eax
    69d9:	89 d6                	mov    %edx,%esi
    69db:	89 c7                	mov    %eax,%edi
    69dd:	e8 10 e8 ff ff       	callq  51f2 <safe_sub_func_int8_t_s_s>
    69e2:	0f b6 c0             	movzbl %al,%eax
    69e5:	4c 89 e9             	mov    %r13,%rcx
    69e8:	ba 00 00 00 00       	mov    $0x0,%edx
    69ed:	48 8d 35 30 f6 00 00 	lea    0xf630(%rip),%rsi        # 16024 <g_3>
    69f4:	89 c7                	mov    %eax,%edi
    69f6:	e8 c3 32 00 00       	callq  9cbe <func_15>
    69fb:	48 8b 05 c6 14 01 00 	mov    0x114c6(%rip),%rax        # 17ec8 <g_2024>
    6a02:	8b 00                	mov    (%rax),%eax
    6a04:	4c 89 e6             	mov    %r12,%rsi
    6a07:	bf 01 00 00 00       	mov    $0x1,%edi
    6a0c:	e8 5d 23 00 00       	callq  8d6e <func_12>
    6a11:	48 89 de             	mov    %rbx,%rsi
    6a14:	48 89 c7             	mov    %rax,%rdi
    6a17:	e8 fa 0d 00 00       	callq  7816 <func_9>
    6a1c:	98                   	cwtl   
    6a1d:	be b0 65 00 00       	mov    $0x65b0,%esi
    6a22:	89 c7                	mov    %eax,%edi
    6a24:	e8 aa e9 ff ff       	callq  53d3 <safe_sub_func_int16_t_s_s>
    6a29:	0f b7 d0             	movzwl %ax,%edx
    6a2c:	8b 85 90 fc ff ff    	mov    -0x370(%rbp),%eax
    6a32:	0f b7 c0             	movzwl %ax,%eax
    6a35:	89 d6                	mov    %edx,%esi
    6a37:	89 c7                	mov    %eax,%edi
    6a39:	e8 50 f3 ff ff       	callq  5d8e <safe_div_func_uint16_t_u_u>
    6a3e:	89 c2                	mov    %eax,%edx
    6a40:	48 8b 05 79 0f 01 00 	mov    0x10f79(%rip),%rax        # 179c0 <g_903>
    6a47:	0f b7 d2             	movzwl %dx,%edx
    6a4a:	89 10                	mov    %edx,(%rax)
    6a4c:	c7 05 16 ff 00 00 00 	movl   $0x0,0xff16(%rip)        # 1696c <g_2870>
    6a53:	00 00 00 
    6a56:	e9 7d 0d 00 00       	jmpq   77d8 <func_1+0x1023>
    6a5b:	48 8d 05 6e 1c 01 00 	lea    0x11c6e(%rip),%rax        # 186d0 <g_3467>
    6a62:	48 89 85 60 fb ff ff 	mov    %rax,-0x4a0(%rbp)
    6a69:	c7 85 a4 fa ff ff 2a 	movl   $0xe05a152a,-0x55c(%rbp)
    6a70:	15 5a e0 
    6a73:	66 c7 85 78 fa ff ff 	movw   $0xfff6,-0x588(%rbp)
    6a7a:	f6 ff 
    6a7c:	48 8d 85 f0 fb ff ff 	lea    -0x410(%rbp),%rax
    6a83:	48 83 c0 08          	add    $0x8,%rax
    6a87:	48 89 85 68 fb ff ff 	mov    %rax,-0x498(%rbp)
    6a8e:	c7 85 a8 fa ff ff b2 	movl   $0x2c07c0b2,-0x558(%rbp)
    6a95:	c0 07 2c 
    6a98:	48 8d 05 e9 10 01 00 	lea    0x110e9(%rip),%rax        # 17b88 <g_1095>
    6a9f:	48 89 85 70 fb ff ff 	mov    %rax,-0x490(%rbp)
    6aa6:	c7 85 ac fa ff ff ff 	movl   $0xffffffff,-0x554(%rbp)
    6aad:	ff ff ff 
    6ab0:	48 b8 00 01 00 01 00 	movabs $0x100010001000100,%rax
    6ab7:	01 00 01 
    6aba:	48 89 45 bf          	mov    %rax,-0x41(%rbp)
    6abe:	c6 45 c7 00          	movb   $0x0,-0x39(%rbp)
    6ac2:	48 c7 85 78 fb ff ff 	movq   $0xfffffffffffffff6,-0x488(%rbp)
    6ac9:	f6 ff ff ff 
    6acd:	48 b8 1a ed a4 23 85 	movabs $0x9be8ac8523a4ed1a,%rax
    6ad4:	ac e8 9b 
    6ad7:	48 89 85 80 fb ff ff 	mov    %rax,-0x480(%rbp)
    6ade:	48 c7 85 88 fb ff ff 	movq   $0x0,-0x478(%rbp)
    6ae5:	00 00 00 00 
    6ae9:	c7 85 b0 fa ff ff 75 	movl   $0xf9489275,-0x550(%rbp)
    6af0:	92 48 f9 
    6af3:	c6 85 6e fa ff ff 01 	movb   $0x1,-0x592(%rbp)
    6afa:	c7 85 b4 fa ff ff f6 	movl   $0xfffffff6,-0x54c(%rbp)
    6b01:	ff ff ff 
    6b04:	48 b8 eb e5 a6 0d 03 	movabs $0xc004d4030da6e5eb,%rax
    6b0b:	d4 04 c0 
    6b0e:	48 89 85 90 fb ff ff 	mov    %rax,-0x470(%rbp)
    6b15:	c7 85 b8 fa ff ff 49 	movl   $0xb68b9449,-0x548(%rbp)
    6b1c:	94 8b b6 
    6b1f:	66 c7 85 7a fa ff ff 	movw   $0x76a9,-0x586(%rbp)
    6b26:	a9 76 
    6b28:	66 c7 85 76 fa ff ff 	movw   $0x1,-0x58a(%rbp)
    6b2f:	01 00 
    6b31:	c7 85 84 fa ff ff 00 	movl   $0x0,-0x57c(%rbp)
    6b38:	00 00 00 
    6b3b:	eb 46                	jmp    6b83 <func_1+0x3ce>
    6b3d:	c7 85 88 fa ff ff 00 	movl   $0x0,-0x578(%rbp)
    6b44:	00 00 00 
    6b47:	eb 2a                	jmp    6b73 <func_1+0x3be>
    6b49:	8b 85 88 fa ff ff    	mov    -0x578(%rbp),%eax
    6b4f:	48 98                	cltq   
    6b51:	8b 95 84 fa ff ff    	mov    -0x57c(%rbp),%edx
    6b57:	48 63 d2             	movslq %edx,%rdx
    6b5a:	48 c1 e2 03          	shl    $0x3,%rdx
    6b5e:	48 01 d0             	add    %rdx,%rax
    6b61:	c7 84 85 40 fc ff ff 	movl   $0xffffffff,-0x3c0(%rbp,%rax,4)
    6b68:	ff ff ff ff 
    6b6c:	83 85 88 fa ff ff 01 	addl   $0x1,-0x578(%rbp)
    6b73:	83 bd 88 fa ff ff 07 	cmpl   $0x7,-0x578(%rbp)
    6b7a:	7e cd                	jle    6b49 <func_1+0x394>
    6b7c:	83 85 84 fa ff ff 01 	addl   $0x1,-0x57c(%rbp)
    6b83:	83 bd 84 fa ff ff 00 	cmpl   $0x0,-0x57c(%rbp)
    6b8a:	7e b1                	jle    6b3d <func_1+0x388>
    6b8c:	c7 85 84 fa ff ff 00 	movl   $0x0,-0x57c(%rbp)
    6b93:	00 00 00 
    6b96:	eb 6b                	jmp    6c03 <func_1+0x44e>
    6b98:	c7 85 88 fa ff ff 00 	movl   $0x0,-0x578(%rbp)
    6b9f:	00 00 00 
    6ba2:	eb 4f                	jmp    6bf3 <func_1+0x43e>
    6ba4:	c7 85 8c fa ff ff 00 	movl   $0x0,-0x574(%rbp)
    6bab:	00 00 00 
    6bae:	eb 33                	jmp    6be3 <func_1+0x42e>
    6bb0:	8b 85 8c fa ff ff    	mov    -0x574(%rbp),%eax
    6bb6:	48 63 c8             	movslq %eax,%rcx
    6bb9:	8b 85 88 fa ff ff    	mov    -0x578(%rbp),%eax
    6bbf:	48 63 d0             	movslq %eax,%rdx
    6bc2:	8b 85 84 fa ff ff    	mov    -0x57c(%rbp),%eax
    6bc8:	48 98                	cltq   
    6bca:	48 01 ca             	add    %rcx,%rdx
    6bcd:	48 01 d0             	add    %rdx,%rax
    6bd0:	48 c7 84 c5 f0 fb ff 	movq   $0x0,-0x410(%rbp,%rax,8)
    6bd7:	ff 00 00 00 00 
    6bdc:	83 85 8c fa ff ff 01 	addl   $0x1,-0x574(%rbp)
    6be3:	83 bd 8c fa ff ff 00 	cmpl   $0x0,-0x574(%rbp)
    6bea:	7e c4                	jle    6bb0 <func_1+0x3fb>
    6bec:	83 85 88 fa ff ff 01 	addl   $0x1,-0x578(%rbp)
    6bf3:	83 bd 88 fa ff ff 00 	cmpl   $0x0,-0x578(%rbp)
    6bfa:	7e a8                	jle    6ba4 <func_1+0x3ef>
    6bfc:	83 85 84 fa ff ff 01 	addl   $0x1,-0x57c(%rbp)
    6c03:	83 bd 84 fa ff ff 01 	cmpl   $0x1,-0x57c(%rbp)
    6c0a:	7e 8c                	jle    6b98 <func_1+0x3e3>
    6c0c:	8b 05 5a fd 00 00    	mov    0xfd5a(%rip),%eax        # 1696c <g_2870>
    6c12:	48 98                	cltq   
    6c14:	48 8d 14 c5 00 00 00 	lea    0x0(,%rax,8),%rdx
    6c1b:	00 
    6c1c:	48 8d 05 bd f4 00 00 	lea    0xf4bd(%rip),%rax        # 160e0 <g_96>
    6c23:	48 8b 04 02          	mov    (%rdx,%rax,1),%rax
    6c27:	41 89 c6             	mov    %eax,%r14d
    6c2a:	8b 05 3c fd 00 00    	mov    0xfd3c(%rip),%eax        # 1696c <g_2870>
    6c30:	48 98                	cltq   
    6c32:	48 8d 14 85 00 00 00 	lea    0x0(,%rax,4),%rdx
    6c39:	00 
    6c3a:	48 8d 05 9f f7 00 00 	lea    0xf79f(%rip),%rax        # 163e0 <g_280>
    6c41:	8b 04 02             	mov    (%rdx,%rax,1),%eax
    6c44:	89 85 54 fc ff ff    	mov    %eax,-0x3ac(%rbp)
    6c4a:	44 8b a5 54 fc ff ff 	mov    -0x3ac(%rbp),%r12d
    6c51:	8b 85 a4 fa ff ff    	mov    -0x55c(%rbp),%eax
    6c57:	0f b7 d8             	movzwl %ax,%ebx
    6c5a:	8b 05 0c fd 00 00    	mov    0xfd0c(%rip),%eax        # 1696c <g_2870>
    6c60:	48 98                	cltq   
    6c62:	48 8d 14 85 00 00 00 	lea    0x0(,%rax,4),%rdx
    6c69:	00 
    6c6a:	48 8d 05 6f f7 00 00 	lea    0xf76f(%rip),%rax        # 163e0 <g_280>
    6c71:	44 8b 2c 02          	mov    (%rdx,%rax,1),%r13d
    6c75:	0f b6 05 01 02 01 00 	movzbl 0x10201(%rip),%eax        # 16e7d <g_3550>
    6c7c:	48 0f be c0          	movsbq %al,%rax
    6c80:	48 89 c7             	mov    %rax,%rdi
    6c83:	e8 91 f3 ff ff       	callq  6019 <safe_unary_minus_func_uint64_t_u>
    6c88:	48 89 c2             	mov    %rax,%rdx
    6c8b:	48 8d 05 3e 1a 01 00 	lea    0x11a3e(%rip),%rax        # 186d0 <g_3467>
    6c92:	48 39 85 60 fb ff ff 	cmp    %rax,-0x4a0(%rbp)
    6c99:	0f 95 c0             	setne  %al
    6c9c:	0f b6 c8             	movzbl %al,%ecx
    6c9f:	8b 05 f3 1e 01 00    	mov    0x11ef3(%rip),%eax        # 18b98 <g_2864>
    6ca5:	21 c1                	and    %eax,%ecx
    6ca7:	48 8b 05 12 18 01 00 	mov    0x11812(%rip),%rax        # 184c0 <g_2681>
    6cae:	48 8b 00             	mov    (%rax),%rax
    6cb1:	48 63 c9             	movslq %ecx,%rcx
    6cb4:	48 89 08             	mov    %rcx,(%rax)
    6cb7:	48 8b 08             	mov    (%rax),%rcx
    6cba:	8b 05 ac fc 00 00    	mov    0xfcac(%rip),%eax        # 1696c <g_2870>
    6cc0:	48 98                	cltq   
    6cc2:	48 8d 34 85 00 00 00 	lea    0x0(,%rax,4),%rsi
    6cc9:	00 
    6cca:	48 8d 05 0f f7 00 00 	lea    0xf70f(%rip),%rax        # 163e0 <g_280>
    6cd1:	8b 04 06             	mov    (%rsi,%rax,1),%eax
    6cd4:	85 c0                	test   %eax,%eax
    6cd6:	0f 94 c0             	sete   %al
    6cd9:	0f b6 c0             	movzbl %al,%eax
    6cdc:	48 09 c1             	or     %rax,%rcx
    6cdf:	48 89 ce             	mov    %rcx,%rsi
    6ce2:	8b 05 84 fc 00 00    	mov    0xfc84(%rip),%eax        # 1696c <g_2870>
    6ce8:	48 98                	cltq   
    6cea:	48 8d 0c 85 00 00 00 	lea    0x0(,%rax,4),%rcx
    6cf1:	00 
    6cf2:	48 8d 05 e7 f6 00 00 	lea    0xf6e7(%rip),%rax        # 163e0 <g_280>
    6cf9:	8b 04 01             	mov    (%rcx,%rax,1),%eax
    6cfc:	89 c0                	mov    %eax,%eax
    6cfe:	48 39 c6             	cmp    %rax,%rsi
    6d01:	0f 93 c0             	setae  %al
    6d04:	0f b6 c8             	movzbl %al,%ecx
    6d07:	8b 05 5f fc 00 00    	mov    0xfc5f(%rip),%eax        # 1696c <g_2870>
    6d0d:	48 98                	cltq   
    6d0f:	48 8d 34 85 00 00 00 	lea    0x0(,%rax,4),%rsi
    6d16:	00 
    6d17:	48 8d 05 c2 f6 00 00 	lea    0xf6c2(%rip),%rax        # 163e0 <g_280>
    6d1e:	8b 04 06             	mov    (%rsi,%rax,1),%eax
    6d21:	39 c1                	cmp    %eax,%ecx
    6d23:	0f 92 c0             	setb   %al
    6d26:	0f b6 c8             	movzbl %al,%ecx
    6d29:	48 8b 05 a0 19 01 00 	mov    0x119a0(%rip),%rax        # 186d0 <g_3467>
    6d30:	0f b7 00             	movzwl (%rax),%eax
    6d33:	98                   	cwtl   
    6d34:	39 c1                	cmp    %eax,%ecx
    6d36:	0f 94 c0             	sete   %al
    6d39:	0f b6 c8             	movzbl %al,%ecx
    6d3c:	8b 05 2a fc 00 00    	mov    0xfc2a(%rip),%eax        # 1696c <g_2870>
    6d42:	39 c1                	cmp    %eax,%ecx
    6d44:	0f 9d c0             	setge  %al
    6d47:	0f b6 c0             	movzbl %al,%eax
    6d4a:	48 39 c2             	cmp    %rax,%rdx
    6d4d:	0f 97 c0             	seta   %al
    6d50:	0f b6 c0             	movzbl %al,%eax
    6d53:	41 39 c5             	cmp    %eax,%r13d
    6d56:	0f 92 c0             	setb   %al
    6d59:	0f b6 c0             	movzbl %al,%eax
    6d5c:	89 de                	mov    %ebx,%esi
    6d5e:	89 c7                	mov    %eax,%edi
    6d60:	e8 9a ef ff ff       	callq  5cff <safe_add_func_uint16_t_u_u>
    6d65:	66 85 c0             	test   %ax,%ax
    6d68:	74 25                	je     6d8f <func_1+0x5da>
    6d6a:	8b 05 fc fb 00 00    	mov    0xfbfc(%rip),%eax        # 1696c <g_2870>
    6d70:	48 98                	cltq   
    6d72:	48 8d 14 85 00 00 00 	lea    0x0(,%rax,4),%rdx
    6d79:	00 
    6d7a:	48 8d 05 5f f6 00 00 	lea    0xf65f(%rip),%rax        # 163e0 <g_280>
    6d81:	8b 04 02             	mov    (%rdx,%rax,1),%eax
    6d84:	85 c0                	test   %eax,%eax
    6d86:	74 07                	je     6d8f <func_1+0x5da>
    6d88:	b8 01 00 00 00       	mov    $0x1,%eax
    6d8d:	eb 05                	jmp    6d94 <func_1+0x5df>
    6d8f:	b8 00 00 00 00       	mov    $0x0,%eax
    6d94:	44 39 e0             	cmp    %r12d,%eax
    6d97:	0f 9d c0             	setge  %al
    6d9a:	0f b6 c0             	movzbl %al,%eax
    6d9d:	be 0e 00 00 00       	mov    $0xe,%esi
    6da2:	89 c7                	mov    %eax,%edi
    6da4:	e8 d1 f0 ff ff       	callq  5e7a <safe_rshift_func_uint16_t_u_u>
    6da9:	b8 00 00 00 00       	mov    $0x0,%eax
    6dae:	89 05 54 f9 00 00    	mov    %eax,0xf954(%rip)        # 16708 <g_1119>
    6db4:	8b 05 4e f9 00 00    	mov    0xf94e(%rip),%eax        # 16708 <g_1119>
    6dba:	44 89 f6             	mov    %r14d,%esi
    6dbd:	89 c7                	mov    %eax,%edi
    6dbf:	e8 f4 f0 ff ff       	callq  5eb8 <safe_add_func_uint32_t_u_u>
    6dc4:	89 c1                	mov    %eax,%ecx
    6dc6:	8b 05 a0 fb 00 00    	mov    0xfba0(%rip),%eax        # 1696c <g_2870>
    6dcc:	48 98                	cltq   
    6dce:	48 8d 14 c5 00 00 00 	lea    0x0(,%rax,8),%rdx
    6dd5:	00 
    6dd6:	48 8d 05 03 f3 00 00 	lea    0xf303(%rip),%rax        # 160e0 <g_96>
    6ddd:	48 8b 04 02          	mov    (%rdx,%rax,1),%rax
    6de1:	48 89 ce             	mov    %rcx,%rsi
    6de4:	48 89 c7             	mov    %rax,%rdi
    6de7:	e8 94 f2 ff ff       	callq  6080 <safe_mod_func_uint64_t_u_u>
    6dec:	48 85 c0             	test   %rax,%rax
    6def:	0f 84 c0 01 00 00    	je     6fb5 <func_1+0x800>
    6df5:	48 8d 05 44 10 01 00 	lea    0x11044(%rip),%rax        # 17e40 <g_1823>
    6dfc:	48 89 85 18 fb ff ff 	mov    %rax,-0x4e8(%rbp)
    6e03:	48 8d 85 18 fb ff ff 	lea    -0x4e8(%rbp),%rax
    6e0a:	48 89 85 b8 fb ff ff 	mov    %rax,-0x448(%rbp)
    6e11:	48 c7 85 c0 fb ff ff 	movq   $0x0,-0x440(%rbp)
    6e18:	00 00 00 00 
    6e1c:	c7 85 00 fb ff ff 04 	movl   $0x4,-0x500(%rbp)
    6e23:	00 00 00 
    6e26:	48 8d 85 10 fd ff ff 	lea    -0x2f0(%rbp),%rax
    6e2d:	48 8d 15 ec a2 00 00 	lea    0xa2ec(%rip),%rdx        # 11120 <g_3193+0x20>
    6e34:	b9 24 00 00 00       	mov    $0x24,%ecx
    6e39:	48 89 c7             	mov    %rax,%rdi
    6e3c:	48 89 d6             	mov    %rdx,%rsi
    6e3f:	f3 48 a5             	rep movsq %ds:(%rsi),%es:(%rdi)
    6e42:	c7 85 04 fb ff ff fe 	movl   $0xfffffffe,-0x4fc(%rbp)
    6e49:	ff ff ff 
    6e4c:	48 8d 05 35 0d 01 00 	lea    0x10d35(%rip),%rax        # 17b88 <g_1095>
    6e53:	48 89 85 c8 fb ff ff 	mov    %rax,-0x438(%rbp)
    6e5a:	c7 85 08 fb ff ff a3 	movl   $0xf02ca8a3,-0x4f8(%rbp)
    6e61:	a8 2c f0 
    6e64:	48 b8 90 22 69 71 03 	movabs $0x9332440371692290,%rax
    6e6b:	44 32 93 
    6e6e:	48 89 85 e0 fc ff ff 	mov    %rax,-0x320(%rbp)
    6e75:	48 c7 85 e8 fc ff ff 	movq   $0x0,-0x318(%rbp)
    6e7c:	00 00 00 00 
    6e80:	48 c7 85 f0 fc ff ff 	movq   $0x0,-0x310(%rbp)
    6e87:	00 00 00 00 
    6e8b:	48 89 85 f8 fc ff ff 	mov    %rax,-0x308(%rbp)
    6e92:	48 c7 85 00 fd ff ff 	movq   $0x0,-0x300(%rbp)
    6e99:	00 00 00 00 
    6e9d:	48 c7 85 08 fd ff ff 	movq   $0x0,-0x2f8(%rbp)
    6ea4:	00 00 00 00 
    6ea8:	48 b8 2e 1a ec a6 72 	movabs $0x9481e872a6ec1a2e,%rax
    6eaf:	e8 81 94 
    6eb2:	48 89 85 d0 fb ff ff 	mov    %rax,-0x430(%rbp)
    6eb9:	48 8b 95 18 fb ff ff 	mov    -0x4e8(%rbp),%rdx
    6ec0:	48 8b 85 b8 fb ff ff 	mov    -0x448(%rbp),%rax
    6ec7:	48 89 10             	mov    %rdx,(%rax)
    6eca:	c6 85 6d fa ff ff 01 	movb   $0x1,-0x593(%rbp)
    6ed1:	e9 a2 00 00 00       	jmpq   6f78 <func_1+0x7c3>
    6ed6:	48 8d 85 30 fe ff ff 	lea    -0x1d0(%rbp),%rax
    6edd:	48 8d 15 bc ff 00 00 	lea    0xffbc(%rip),%rdx        # 16ea0 <g_3808+0x14>
    6ee4:	b9 30 00 00 00       	mov    $0x30,%ecx
    6ee9:	48 89 c7             	mov    %rax,%rdi
    6eec:	48 89 d6             	mov    %rdx,%rsi
    6eef:	f3 48 a5             	rep movsq %ds:(%rsi),%es:(%rdi)
    6ef2:	c7 85 0c fb ff ff 02 	movl   $0x2,-0x4f4(%rbp)
    6ef9:	00 00 00 
    6efc:	c7 85 10 fb ff ff 15 	movl   $0xc3ca5a15,-0x4f0(%rbp)
    6f03:	5a ca c3 
    6f06:	48 8d 85 6d fa ff ff 	lea    -0x593(%rbp),%rax
    6f0d:	48 89 85 20 fb ff ff 	mov    %rax,-0x4e0(%rbp)
    6f14:	48 8d 85 20 fb ff ff 	lea    -0x4e0(%rbp),%rax
    6f1b:	48 89 85 28 fb ff ff 	mov    %rax,-0x4d8(%rbp)
    6f22:	48 8d 85 28 fb ff ff 	lea    -0x4d8(%rbp),%rax
    6f29:	48 89 85 d8 fb ff ff 	mov    %rax,-0x428(%rbp)
    6f30:	c7 85 14 fb ff ff 94 	movl   $0x75cf9394,-0x4ec(%rbp)
    6f37:	93 cf 75 
    6f3a:	c7 85 90 fa ff ff 00 	movl   $0x0,-0x570(%rbp)
    6f41:	00 00 00 
    6f44:	eb 19                	jmp    6f5f <func_1+0x7aa>
    6f46:	8b 85 90 fa ff ff    	mov    -0x570(%rbp),%eax
    6f4c:	48 98                	cltq   
    6f4e:	66 c7 84 45 b0 fc ff 	movw   $0x4,-0x350(%rbp,%rax,2)
    6f55:	ff 04 00 
    6f58:	83 85 90 fa ff ff 01 	addl   $0x1,-0x570(%rbp)
    6f5f:	83 bd 90 fa ff ff 08 	cmpl   $0x8,-0x570(%rbp)
    6f66:	7e de                	jle    6f46 <func_1+0x791>
    6f68:	0f b6 85 6d fa ff ff 	movzbl -0x593(%rbp),%eax
    6f6f:	83 c0 01             	add    $0x1,%eax
    6f72:	88 85 6d fa ff ff    	mov    %al,-0x593(%rbp)
    6f78:	0f b6 85 6d fa ff ff 	movzbl -0x593(%rbp),%eax
    6f7f:	3c 09                	cmp    $0x9,%al
    6f81:	0f 86 4f ff ff ff    	jbe    6ed6 <func_1+0x721>
    6f87:	48 8b 85 c8 fb ff ff 	mov    -0x438(%rbp),%rax
    6f8e:	48 8b 00             	mov    (%rax),%rax
    6f91:	48 8b 00             	mov    (%rax),%rax
    6f94:	48 8b 00             	mov    (%rax),%rax
    6f97:	8b 00                	mov    (%rax),%eax
    6f99:	85 c0                	test   %eax,%eax
    6f9b:	0f 85 46 08 00 00    	jne    77e7 <func_1+0x1032>
    6fa1:	8b 05 c5 f9 00 00    	mov    0xf9c5(%rip),%eax        # 1696c <g_2870>
    6fa7:	83 c0 01             	add    $0x1,%eax
    6faa:	89 05 bc f9 00 00    	mov    %eax,0xf9bc(%rip)        # 1696c <g_2870>
    6fb0:	e9 23 08 00 00       	jmpq   77d8 <func_1+0x1023>
    6fb5:	c6 85 70 fa ff ff fb 	movb   $0xfb,-0x590(%rbp)
    6fbc:	c6 85 71 fa ff ff 3d 	movb   $0x3d,-0x58f(%rbp)
    6fc3:	c7 85 bc fa ff ff bb 	movl   $0x84e4b1bb,-0x544(%rbp)
    6fca:	b1 e4 84 
    6fcd:	48 8d 85 30 fe ff ff 	lea    -0x1d0(%rbp),%rax
    6fd4:	48 8d 15 65 a2 00 00 	lea    0xa265(%rip),%rdx        # 11240 <g_3193+0x140>
    6fdb:	b9 28 00 00 00       	mov    $0x28,%ecx
    6fe0:	48 89 c7             	mov    %rax,%rdi
    6fe3:	48 89 d6             	mov    %rdx,%rsi
    6fe6:	f3 48 a5             	rep movsq %ds:(%rsi),%es:(%rdi)
    6fe9:	48 89 f2             	mov    %rsi,%rdx
    6fec:	48 89 f8             	mov    %rdi,%rax
    6fef:	8b 0a                	mov    (%rdx),%ecx
    6ff1:	89 08                	mov    %ecx,(%rax)
    6ff3:	48 8d 85 74 fa ff ff 	lea    -0x58c(%rbp),%rax
    6ffa:	48 89 85 b0 fc ff ff 	mov    %rax,-0x350(%rbp)
    7001:	48 8d 05 14 f4 00 00 	lea    0xf414(%rip),%rax        # 1641c <g_455>
    7008:	48 89 85 b8 fc ff ff 	mov    %rax,-0x348(%rbp)
    700f:	48 8d 05 06 f4 00 00 	lea    0xf406(%rip),%rax        # 1641c <g_455>
    7016:	48 89 85 c0 fc ff ff 	mov    %rax,-0x340(%rbp)
    701d:	48 8d 85 74 fa ff ff 	lea    -0x58c(%rbp),%rax
    7024:	48 89 85 c8 fc ff ff 	mov    %rax,-0x338(%rbp)
    702b:	48 8d 05 ea f3 00 00 	lea    0xf3ea(%rip),%rax        # 1641c <g_455>
    7032:	48 89 85 d0 fc ff ff 	mov    %rax,-0x330(%rbp)
    7039:	48 8d 05 dc f3 00 00 	lea    0xf3dc(%rip),%rax        # 1641c <g_455>
    7040:	48 89 85 d8 fc ff ff 	mov    %rax,-0x328(%rbp)
    7047:	66 c7 85 7c fa ff ff 	movw   $0xfff8,-0x584(%rbp)
    704e:	f8 ff 
    7050:	48 b8 30 ec 8a 3c 4a 	movabs $0xee65144a3c8aec30,%rax
    7057:	14 65 ee 
    705a:	48 89 85 98 fb ff ff 	mov    %rax,-0x468(%rbp)
    7061:	c6 85 72 fa ff ff e9 	movb   $0xe9,-0x58e(%rbp)
    7068:	c7 05 ce f5 00 00 00 	movl   $0x0,0xf5ce(%rip)        # 16640 <g_722>
    706f:	00 00 00 
    7072:	e9 47 07 00 00       	jmpq   77be <func_1+0x1009>
    7077:	c7 85 c0 fa ff ff 96 	movl   $0x8ce91a96,-0x540(%rbp)
    707e:	1a e9 8c 
    7081:	c7 85 c4 fa ff ff 7d 	movl   $0x8e80467d,-0x53c(%rbp)
    7088:	46 80 8e 
    708b:	c7 85 c8 fa ff ff f7 	movl   $0xfffffff7,-0x538(%rbp)
    7092:	ff ff ff 
    7095:	c7 85 e0 fc ff ff f6 	movl   $0xfffffff6,-0x320(%rbp)
    709c:	ff ff ff 
    709f:	c7 85 e4 fc ff ff 22 	movl   $0x7d622422,-0x31c(%rbp)
    70a6:	24 62 7d 
    70a9:	c7 85 e8 fc ff ff db 	movl   $0x90c8b3db,-0x318(%rbp)
    70b0:	b3 c8 90 
    70b3:	c7 85 ec fc ff ff 00 	movl   $0x0,-0x314(%rbp)
    70ba:	00 00 00 
    70bd:	c7 85 f0 fc ff ff 22 	movl   $0x7d622422,-0x310(%rbp)
    70c4:	24 62 7d 
    70c7:	c7 85 f4 fc ff ff 00 	movl   $0x0,-0x30c(%rbp)
    70ce:	00 00 00 
    70d1:	c7 85 f8 fc ff ff db 	movl   $0x90c8b3db,-0x308(%rbp)
    70d8:	b3 c8 90 
    70db:	c7 85 fc fc ff ff 22 	movl   $0x7d622422,-0x304(%rbp)
    70e2:	24 62 7d 
    70e5:	c7 85 00 fd ff ff f6 	movl   $0xfffffff6,-0x300(%rbp)
    70ec:	ff ff ff 
    70ef:	c7 85 04 fd ff ff f6 	movl   $0xfffffff6,-0x2fc(%rbp)
    70f6:	ff ff ff 
    70f9:	c7 85 08 fd ff ff f6 	movl   $0xfffffff6,-0x2f8(%rbp)
    7100:	ff ff ff 
    7103:	c7 85 0c fd ff ff 22 	movl   $0x7d622422,-0x2f4(%rbp)
    710a:	24 62 7d 
    710d:	c7 85 cc fa ff ff fb 	movl   $0x17c7a5fb,-0x534(%rbp)
    7114:	a5 c7 17 
    7117:	c7 85 20 fc ff ff 01 	movl   $0x1,-0x3e0(%rbp)
    711e:	00 00 00 
    7121:	c7 85 24 fc ff ff 00 	movl   $0x0,-0x3dc(%rbp)
    7128:	00 00 00 
    712b:	c7 85 28 fc ff ff 00 	movl   $0x0,-0x3d8(%rbp)
    7132:	00 00 00 
    7135:	c7 85 2c fc ff ff 01 	movl   $0x1,-0x3d4(%rbp)
    713c:	00 00 00 
    713f:	c7 85 30 fc ff ff 00 	movl   $0x0,-0x3d0(%rbp)
    7146:	00 00 00 
    7149:	c7 85 34 fc ff ff 00 	movl   $0x0,-0x3cc(%rbp)
    7150:	00 00 00 
    7153:	48 b8 2d 2e 47 e6 0f 	movabs $0x89888a0fe6472e2d,%rax
    715a:	8a 88 89 
    715d:	48 89 85 a0 fb ff ff 	mov    %rax,-0x460(%rbp)
    7164:	8b 85 e8 fc ff ff    	mov    -0x318(%rbp),%eax
    716a:	41 89 c4             	mov    %eax,%r12d
    716d:	8b 85 fc fc ff ff    	mov    -0x304(%rbp),%eax
    7173:	41 89 c5             	mov    %eax,%r13d
    7176:	48 8b 85 70 fb ff ff 	mov    -0x490(%rbp),%rax
    717d:	48 8b 00             	mov    (%rax),%rax
    7180:	48 8b 00             	mov    (%rax),%rax
    7183:	48 8b 00             	mov    (%rax),%rax
    7186:	8b 00                	mov    (%rax),%eax
    7188:	0f b6 d8             	movzbl %al,%ebx
    718b:	48 8b 05 ce 07 01 00 	mov    0x107ce(%rip),%rax        # 17960 <g_81>
    7192:	48 8b 00             	mov    (%rax),%rax
    7195:	48 89 c2             	mov    %rax,%rdx
    7198:	48 8b 05 d9 07 01 00 	mov    0x107d9(%rip),%rax        # 17978 <g_149>
    719f:	c6 00 86             	movb   $0x86,(%rax)
    71a2:	48 89 d6             	mov    %rdx,%rsi
    71a5:	bf 00 00 00 00       	mov    $0x0,%edi
    71aa:	e8 9c ee ff ff       	callq  604b <safe_sub_func_uint64_t_u_u>
    71af:	0f b6 95 70 fa ff ff 	movzbl -0x590(%rbp),%edx
    71b6:	48 39 d0             	cmp    %rdx,%rax
    71b9:	48 8b 05 20 0b 01 00 	mov    0x10b20(%rip),%rax        # 17ce0 <g_1796>
    71c0:	48 8b 00             	mov    (%rax),%rax
    71c3:	48 8b 00             	mov    (%rax),%rax
    71c6:	8b 85 c4 fa ff ff    	mov    -0x53c(%rbp),%eax
    71cc:	f7 d0                	not    %eax
    71ce:	c1 e8 1f             	shr    $0x1f,%eax
    71d1:	0f b6 c0             	movzbl %al,%eax
    71d4:	89 de                	mov    %ebx,%esi
    71d6:	89 c7                	mov    %eax,%edi
    71d8:	e8 d1 e9 ff ff       	callq  5bae <safe_mod_func_uint8_t_u_u>
    71dd:	4c 89 ee             	mov    %r13,%rsi
    71e0:	bf 01 00 00 00       	mov    $0x1,%edi
    71e5:	e8 61 ee ff ff       	callq  604b <safe_sub_func_uint64_t_u_u>
    71ea:	0f b7 c0             	movzwl %ax,%eax
    71ed:	be 09 00 00 00       	mov    $0x9,%esi
    71f2:	89 c7                	mov    %eax,%edi
    71f4:	e8 c5 eb ff ff       	callq  5dbe <safe_lshift_func_uint16_t_u_s>
    71f9:	0f b6 c0             	movzbl %al,%eax
    71fc:	44 89 e6             	mov    %r12d,%esi
    71ff:	89 c7                	mov    %eax,%edi
    7201:	e8 87 ea ff ff       	callq  5c8d <safe_rshift_func_uint8_t_u_s>
    7206:	0f b6 95 70 fa ff ff 	movzbl -0x590(%rbp),%edx
    720d:	48 8b 85 30 fb ff ff 	mov    -0x4d0(%rbp),%rax
    7214:	48 89 10             	mov    %rdx,(%rax)
    7217:	48 8b 85 30 fb ff ff 	mov    -0x4d0(%rbp),%rax
    721e:	48 8b 10             	mov    (%rax),%rdx
    7221:	0f be 85 71 fa ff ff 	movsbl -0x58f(%rbp),%eax
    7228:	09 85 c0 fa ff ff    	or     %eax,-0x540(%rbp)
    722e:	8b 85 c0 fa ff ff    	mov    -0x540(%rbp),%eax
    7234:	48 39 c2             	cmp    %rax,%rdx
    7237:	0f 95 c2             	setne  %dl
    723a:	48 8b 05 8f 14 01 00 	mov    0x1148f(%rip),%rax        # 186d0 <g_3467>
    7241:	0f b6 d2             	movzbl %dl,%edx
    7244:	66 89 10             	mov    %dx,(%rax)
    7247:	0f b7 00             	movzwl (%rax),%eax
    724a:	98                   	cwtl   
    724b:	be 01 00 00 00       	mov    $0x1,%esi
    7250:	89 c7                	mov    %eax,%edi
    7252:	e8 8a e2 ff ff       	callq  54e1 <safe_lshift_func_int16_t_s_u>
    7257:	98                   	cwtl   
    7258:	89 c7                	mov    %eax,%edi
    725a:	e8 37 e3 ff ff       	callq  5596 <safe_unary_minus_func_int32_t_s>
    725f:	8b 95 54 fc ff ff    	mov    -0x3ac(%rbp),%edx
    7265:	09 d0                	or     %edx,%eax
    7267:	89 85 54 fc ff ff    	mov    %eax,-0x3ac(%rbp)
    726d:	0f b6 85 6e fa ff ff 	movzbl -0x592(%rbp),%eax
    7274:	83 c0 01             	add    $0x1,%eax
    7277:	88 85 6e fa ff ff    	mov    %al,-0x592(%rbp)
    727d:	8b 15 bd f3 00 00    	mov    0xf3bd(%rip),%edx        # 16640 <g_722>
    7283:	48 8b 05 fe 08 01 00 	mov    0x108fe(%rip),%rax        # 17b88 <g_1095>
    728a:	48 8b 00             	mov    (%rax),%rax
    728d:	48 63 d2             	movslq %edx,%rdx
    7290:	48 8b 94 d5 e0 fb ff 	mov    -0x420(%rbp,%rdx,8),%rdx
    7297:	ff 
    7298:	48 89 10             	mov    %rdx,(%rax)
    729b:	c7 05 b7 fb 00 00 03 	movl   $0x3,0xfbb7(%rip)        # 16e5c <g_3225>
    72a2:	00 00 00 
    72a5:	e9 ed 04 00 00       	jmpq   7797 <func_1+0xfe2>
    72aa:	c7 85 d0 fa ff ff 00 	movl   $0x0,-0x530(%rbp)
    72b1:	00 00 00 
    72b4:	48 8d 05 a5 f3 00 00 	lea    0xf3a5(%rip),%rax        # 16660 <g_990>
    72bb:	48 89 85 a8 fb ff ff 	mov    %rax,-0x458(%rbp)
    72c2:	48 8d 05 57 12 01 00 	lea    0x11257(%rip),%rax        # 18520 <g_3161>
    72c9:	48 89 85 60 fc ff ff 	mov    %rax,-0x3a0(%rbp)
    72d0:	48 8d 05 49 12 01 00 	lea    0x11249(%rip),%rax        # 18520 <g_3161>
    72d7:	48 89 85 68 fc ff ff 	mov    %rax,-0x398(%rbp)
    72de:	48 8d 05 3b 12 01 00 	lea    0x1123b(%rip),%rax        # 18520 <g_3161>
    72e5:	48 89 85 70 fc ff ff 	mov    %rax,-0x390(%rbp)
    72ec:	48 8d 05 2d 12 01 00 	lea    0x1122d(%rip),%rax        # 18520 <g_3161>
    72f3:	48 89 85 78 fc ff ff 	mov    %rax,-0x388(%rbp)
    72fa:	48 8d 85 60 fc ff ff 	lea    -0x3a0(%rbp),%rax
    7301:	48 83 c0 08          	add    $0x8,%rax
    7305:	48 89 85 b0 fb ff ff 	mov    %rax,-0x450(%rbp)
    730c:	c7 85 d4 fa ff ff ff 	movl   $0xffffffff,-0x52c(%rbp)
    7313:	ff ff ff 
    7316:	c7 85 d8 fa ff ff fa 	movl   $0xfffffffa,-0x528(%rbp)
    731d:	ff ff ff 
    7320:	c7 85 dc fa ff ff 01 	movl   $0x1,-0x524(%rbp)
    7327:	00 00 00 
    732a:	c7 85 e0 fa ff ff 01 	movl   $0x1,-0x520(%rbp)
    7331:	00 00 00 
    7334:	c7 85 e4 fa ff ff 58 	movl   $0xe07b9a58,-0x51c(%rbp)
    733b:	9a 7b e0 
    733e:	c7 85 e8 fa ff ff 78 	movl   $0x4ea92578,-0x518(%rbp)
    7345:	25 a9 4e 
    7348:	c6 85 73 fa ff ff ff 	movb   $0xff,-0x58d(%rbp)
    734f:	c7 85 ec fa ff ff b1 	movl   $0xb3ec0cb1,-0x514(%rbp)
    7356:	0c ec b3 
    7359:	c7 85 94 fa ff ff 00 	movl   $0x0,-0x56c(%rbp)
    7360:	00 00 00 
    7363:	eb 49                	jmp    73ae <func_1+0xbf9>
    7365:	c7 85 98 fa ff ff 00 	movl   $0x0,-0x568(%rbp)
    736c:	00 00 00 
    736f:	eb 2d                	jmp    739e <func_1+0xbe9>
    7371:	8b 85 98 fa ff ff    	mov    -0x568(%rbp),%eax
    7377:	48 98                	cltq   
    7379:	8b 95 94 fa ff ff    	mov    -0x56c(%rbp),%edx
    737f:	48 63 d2             	movslq %edx,%rdx
    7382:	48 01 d2             	add    %rdx,%rdx
    7385:	48 01 d0             	add    %rdx,%rax
    7388:	48 8d 15 8d f0 00 00 	lea    0xf08d(%rip),%rdx        # 1641c <g_455>
    738f:	48 89 94 c5 10 fd ff 	mov    %rdx,-0x2f0(%rbp,%rax,8)
    7396:	ff 
    7397:	83 85 98 fa ff ff 01 	addl   $0x1,-0x568(%rbp)
    739e:	83 bd 98 fa ff ff 01 	cmpl   $0x1,-0x568(%rbp)
    73a5:	7e ca                	jle    7371 <func_1+0xbbc>
    73a7:	83 85 94 fa ff ff 01 	addl   $0x1,-0x56c(%rbp)
    73ae:	83 bd 94 fa ff ff 05 	cmpl   $0x5,-0x56c(%rbp)
    73b5:	7e ae                	jle    7365 <func_1+0xbb0>
    73b7:	48 8b 05 da 05 01 00 	mov    0x105da(%rip),%rax        # 17998 <g_320>
    73be:	48 8b 00             	mov    (%rax),%rax
    73c1:	48 8b 10             	mov    (%rax),%rdx
    73c4:	48 83 c2 01          	add    $0x1,%rdx
    73c8:	48 89 10             	mov    %rdx,(%rax)
    73cb:	0f b6 9d 6f fa ff ff 	movzbl -0x591(%rbp),%ebx
    73d2:	8b 85 d0 fa ff ff    	mov    -0x530(%rbp),%eax
    73d8:	0f be c0             	movsbl %al,%eax
    73db:	89 c6                	mov    %eax,%esi
    73dd:	bf 01 00 00 00       	mov    $0x1,%edi
    73e2:	e8 0b de ff ff       	callq  51f2 <safe_sub_func_int8_t_s_s>
    73e7:	0f be c0             	movsbl %al,%eax
    73ea:	be c0 76 94 6c       	mov    $0x6c9476c0,%esi
    73ef:	89 c7                	mov    %eax,%edi
    73f1:	e8 0f e2 ff ff       	callq  5605 <safe_sub_func_int32_t_s_s>
    73f6:	89 c2                	mov    %eax,%edx
    73f8:	8b 85 d0 fa ff ff    	mov    -0x530(%rbp),%eax
    73fe:	21 c2                	and    %eax,%edx
    7400:	48 8b 05 39 0a 01 00 	mov    0x10a39(%rip),%rax        # 17e40 <g_1823>
    7407:	88 10                	mov    %dl,(%rax)
    7409:	0f b6 00             	movzbl (%rax),%eax
    740c:	3c ff                	cmp    $0xff,%al
    740e:	0f 94 c0             	sete   %al
    7411:	0f b6 c0             	movzbl %al,%eax
    7414:	be 5b 00 00 00       	mov    $0x5b,%esi
    7419:	89 c7                	mov    %eax,%edi
    741b:	e8 d2 dd ff ff       	callq  51f2 <safe_sub_func_int8_t_s_s>
    7420:	0f be c0             	movsbl %al,%eax
    7423:	39 c3                	cmp    %eax,%ebx
    7425:	0f 95 c0             	setne  %al
    7428:	0f b6 c0             	movzbl %al,%eax
    742b:	89 c2                	mov    %eax,%edx
    742d:	0f b7 05 e8 ef 00 00 	movzwl 0xefe8(%rip),%eax        # 1641c <g_455>
    7434:	21 d0                	and    %edx,%eax
    7436:	66 89 05 df ef 00 00 	mov    %ax,0xefdf(%rip)        # 1641c <g_455>
    743d:	0f b7 05 d8 ef 00 00 	movzwl 0xefd8(%rip),%eax        # 1641c <g_455>
    7444:	0f b7 d8             	movzwl %ax,%ebx
    7447:	48 8b 05 72 05 01 00 	mov    0x10572(%rip),%rax        # 179c0 <g_903>
    744e:	8b 00                	mov    (%rax),%eax
    7450:	89 c6                	mov    %eax,%esi
    7452:	bf 2e 15 98 1a       	mov    $0x1a98152e,%edi
    7457:	e8 a9 e1 ff ff       	callq  5605 <safe_sub_func_int32_t_s_s>
    745c:	0f b7 c0             	movzwl %ax,%eax
    745f:	89 de                	mov    %ebx,%esi
    7461:	89 c7                	mov    %eax,%edi
    7463:	e8 d5 e8 ff ff       	callq  5d3d <safe_mul_func_uint16_t_u_u>
    7468:	0f b7 d0             	movzwl %ax,%edx
    746b:	48 8b 05 7e 12 01 00 	mov    0x1127e(%rip),%rax        # 186f0 <g_3607>
    7472:	48 8b 00             	mov    (%rax),%rax
    7475:	8b 00                	mov    (%rax),%eax
    7477:	3d 75 53 db cb       	cmp    $0xcbdb5375,%eax
    747c:	0f 96 c0             	setbe  %al
    747f:	0f b6 c0             	movzbl %al,%eax
    7482:	89 d6                	mov    %edx,%esi
    7484:	89 c7                	mov    %eax,%edi
    7486:	e8 03 e9 ff ff       	callq  5d8e <safe_div_func_uint16_t_u_u>
    748b:	8b 85 d0 fa ff ff    	mov    -0x530(%rbp),%eax
    7491:	48 63 d0             	movslq %eax,%rdx
    7494:	48 8b 05 dd 04 01 00 	mov    0x104dd(%rip),%rax        # 17978 <g_149>
    749b:	0f b6 00             	movzbl (%rax),%eax
    749e:	48 0f be c0          	movsbq %al,%rax
    74a2:	48 89 d6             	mov    %rdx,%rsi
    74a5:	48 89 c7             	mov    %rax,%rdi
    74a8:	e8 4a e5 ff ff       	callq  59f7 <safe_div_func_int64_t_s_s>
    74ad:	c7 45 ba 00 00 00 00 	movl   $0x0,-0x46(%rbp)
    74b4:	c6 45 be 00          	movb   $0x0,-0x42(%rbp)
    74b8:	48 8b 85 70 fb ff ff 	mov    -0x490(%rbp),%rax
    74bf:	48 8b 00             	mov    (%rax),%rax
    74c2:	48 8b 00             	mov    (%rax),%rax
    74c5:	48 8b 00             	mov    (%rax),%rax
    74c8:	8b 10                	mov    (%rax),%edx
    74ca:	48 8b 85 10 fc ff ff 	mov    -0x3f0(%rbp),%rax
    74d1:	89 c1                	mov    %eax,%ecx
    74d3:	48 8b 85 70 fb ff ff 	mov    -0x490(%rbp),%rax
    74da:	48 8b 00             	mov    (%rax),%rax
    74dd:	48 8b 00             	mov    (%rax),%rax
    74e0:	48 8b 00             	mov    (%rax),%rax
    74e3:	21 ca                	and    %ecx,%edx
    74e5:	89 10                	mov    %edx,(%rax)
    74e7:	8b 00                	mov    (%rax),%eax
    74e9:	89 85 bc fa ff ff    	mov    %eax,-0x544(%rbp)
    74ef:	48 8b 05 02 12 01 00 	mov    0x11202(%rip),%rax        # 186f8 <g_3746>
    74f6:	48 8b 95 a8 fb ff ff 	mov    -0x458(%rbp),%rdx
    74fd:	48 89 10             	mov    %rdx,(%rax)
    7500:	0f b6 45 be          	movzbl -0x42(%rbp),%eax
    7504:	84 c0                	test   %al,%al
    7506:	0f 85 9c 02 00 00    	jne    77a8 <func_1+0xff3>
    750c:	0f b6 45 bb          	movzbl -0x45(%rbp),%eax
    7510:	84 c0                	test   %al,%al
    7512:	0f 85 93 02 00 00    	jne    77ab <func_1+0xff6>
    7518:	48 8b 85 b0 fb ff ff 	mov    -0x450(%rbp),%rax
    751f:	48 3b 85 50 fb ff ff 	cmp    -0x4b0(%rbp),%rax
    7526:	0f 85 14 02 00 00    	jne    7740 <func_1+0xf8b>
    752c:	66 c7 85 7e fa ff ff 	movw   $0x6449,-0x582(%rbp)
    7533:	49 64 
    7535:	48 8b 85 a8 fb ff ff 	mov    -0x458(%rbp),%rax
    753c:	8b 00                	mov    (%rax),%eax
    753e:	85 c0                	test   %eax,%eax
    7540:	0f 85 68 02 00 00    	jne    77ae <func_1+0xff9>
    7546:	48 8b 05 53 06 01 00 	mov    0x10653(%rip),%rax        # 17ba0 <g_1133>
    754d:	48 8b 00             	mov    (%rax),%rax
    7550:	48 8b 00             	mov    (%rax),%rax
    7553:	48 8b 00             	mov    (%rax),%rax
    7556:	0f b6 00             	movzbl (%rax),%eax
    7559:	0f be c0             	movsbl %al,%eax
    755c:	89 c6                	mov    %eax,%esi
    755e:	bf fd ff ff ff       	mov    $0xfffffffd,%edi
    7563:	e8 8a dc ff ff       	callq  51f2 <safe_sub_func_int8_t_s_s>
    7568:	48 8b 95 60 fb ff ff 	mov    -0x4a0(%rbp),%rdx
    756f:	48 8b 12             	mov    (%rdx),%rdx
    7572:	0f b7 0a             	movzwl (%rdx),%ecx
    7575:	66 0f be d0          	movsbw %al,%dx
    7579:	48 8b 85 60 fb ff ff 	mov    -0x4a0(%rbp),%rax
    7580:	48 8b 00             	mov    (%rax),%rax
    7583:	09 ca                	or     %ecx,%edx
    7585:	66 89 10             	mov    %dx,(%rax)
    7588:	0f b7 00             	movzwl (%rax),%eax
    758b:	98                   	cwtl   
    758c:	be 05 00 00 00       	mov    $0x5,%esi
    7591:	89 c7                	mov    %eax,%edi
    7593:	e8 92 df ff ff       	callq  552a <safe_rshift_func_int16_t_s_s>
    7598:	89 c2                	mov    %eax,%edx
    759a:	48 8b 05 e7 05 01 00 	mov    0x105e7(%rip),%rax        # 17b88 <g_1095>
    75a1:	48 8b 00             	mov    (%rax),%rax
    75a4:	48 8b 00             	mov    (%rax),%rax
    75a7:	0f bf d2             	movswl %dx,%edx
    75aa:	89 10                	mov    %edx,(%rax)
    75ac:	8b 10                	mov    (%rax),%edx
    75ae:	8b 85 54 fc ff ff    	mov    -0x3ac(%rbp),%eax
    75b4:	09 d0                	or     %edx,%eax
    75b6:	89 85 54 fc ff ff    	mov    %eax,-0x3ac(%rbp)
    75bc:	48 8b 05 c5 05 01 00 	mov    0x105c5(%rip),%rax        # 17b88 <g_1095>
    75c3:	48 8b 00             	mov    (%rax),%rax
    75c6:	48 8b 00             	mov    (%rax),%rax
    75c9:	8b 08                	mov    (%rax),%ecx
    75cb:	0f b6 95 70 fa ff ff 	movzbl -0x590(%rbp),%edx
    75d2:	48 8b 05 af 05 01 00 	mov    0x105af(%rip),%rax        # 17b88 <g_1095>
    75d9:	48 8b 00             	mov    (%rax),%rax
    75dc:	48 8b 00             	mov    (%rax),%rax
    75df:	09 ca                	or     %ecx,%edx
    75e1:	89 10                	mov    %edx,(%rax)
    75e3:	48 8d 05 45 f1 00 00 	lea    0xf145(%rip),%rax        # 1672f <g_1137+0xf>
    75ea:	0f b6 00             	movzbl (%rax),%eax
    75ed:	66 98                	cbtw   
    75ef:	66 89 85 5e fa ff ff 	mov    %ax,-0x5a2(%rbp)
    75f6:	48 8b 85 70 fb ff ff 	mov    -0x490(%rbp),%rax
    75fd:	48 8b 00             	mov    (%rax),%rax
    7600:	48 8b 00             	mov    (%rax),%rax
    7603:	48 8b 00             	mov    (%rax),%rax
    7606:	8b 00                	mov    (%rax),%eax
    7608:	0f b6 d8             	movzbl %al,%ebx
    760b:	48 8b 05 66 03 01 00 	mov    0x10366(%rip),%rax        # 17978 <g_149>
    7612:	0f b6 00             	movzbl (%rax),%eax
    7615:	44 0f be e0          	movsbl %al,%r12d
    7619:	48 8b 85 a8 fb ff ff 	mov    -0x458(%rbp),%rax
    7620:	8b 00                	mov    (%rax),%eax
    7622:	44 0f be e8          	movsbl %al,%r13d
    7626:	0f b6 85 71 fa ff ff 	movzbl -0x58f(%rbp),%eax
    762d:	44 0f b6 f0          	movzbl %al,%r14d
    7631:	8b 05 e1 15 01 00    	mov    0x115e1(%rip),%eax        # 18c18 <g_3788>
    7637:	44 0f b7 f8          	movzwl %ax,%r15d
    763b:	be 04 00 00 00       	mov    $0x4,%esi
    7640:	bf 01 00 00 00       	mov    $0x1,%edi
    7645:	e8 01 ea ff ff       	callq  604b <safe_sub_func_uint64_t_u_u>
    764a:	48 8b 95 30 fb ff ff 	mov    -0x4d0(%rbp),%rdx
    7651:	48 8b 12             	mov    (%rdx),%rdx
    7654:	48 31 d0             	xor    %rdx,%rax
    7657:	48 89 c2             	mov    %rax,%rdx
    765a:	48 8b 85 30 fb ff ff 	mov    -0x4d0(%rbp),%rax
    7661:	48 89 10             	mov    %rdx,(%rax)
    7664:	48 8b 85 30 fb ff ff 	mov    -0x4d0(%rbp),%rax
    766b:	48 8b 00             	mov    (%rax),%rax
    766e:	0f b7 c0             	movzwl %ax,%eax
    7671:	be 52 6d 00 00       	mov    $0x6d52,%esi
    7676:	89 c7                	mov    %eax,%edi
    7678:	e8 a2 e6 ff ff       	callq  5d1f <safe_sub_func_uint16_t_u_u>
    767d:	0f b7 c0             	movzwl %ax,%eax
    7680:	44 89 fe             	mov    %r15d,%esi
    7683:	89 c7                	mov    %eax,%edi
    7685:	e8 b3 e6 ff ff       	callq  5d3d <safe_mul_func_uint16_t_u_u>
    768a:	0f b7 c0             	movzwl %ax,%eax
    768d:	be ba 13 cc 02       	mov    $0x2cc13ba,%esi
    7692:	89 c7                	mov    %eax,%edi
    7694:	e8 66 e0 ff ff       	callq  56ff <safe_div_func_int32_t_s_s>
    7699:	0f b6 c0             	movzbl %al,%eax
    769c:	44 89 f6             	mov    %r14d,%esi
    769f:	89 c7                	mov    %eax,%edi
    76a1:	e8 35 e5 ff ff       	callq  5bdb <safe_div_func_uint8_t_u_u>
    76a6:	0f be c0             	movsbl %al,%eax
    76a9:	44 89 ee             	mov    %r13d,%esi
    76ac:	89 c7                	mov    %eax,%edi
    76ae:	e8 5f db ff ff       	callq  5212 <safe_mul_func_int8_t_s_s>
    76b3:	48 8b 85 a8 fb ff ff 	mov    -0x458(%rbp),%rax
    76ba:	8b 00                	mov    (%rax),%eax
    76bc:	0f be c0             	movsbl %al,%eax
    76bf:	44 89 e6             	mov    %r12d,%esi
    76c2:	89 c7                	mov    %eax,%edi
    76c4:	e8 49 db ff ff       	callq  5212 <safe_mul_func_int8_t_s_s>
    76c9:	0f bf 85 7e fa ff ff 	movswl -0x582(%rbp),%eax
    76d0:	83 f8 03             	cmp    $0x3,%eax
    76d3:	0f 97 c2             	seta   %dl
    76d6:	48 8b 05 63 07 01 00 	mov    0x10763(%rip),%rax        # 17e40 <g_1823>
    76dd:	88 10                	mov    %dl,(%rax)
    76df:	0f b6 00             	movzbl (%rax),%eax
    76e2:	0f b6 c0             	movzbl %al,%eax
    76e5:	89 de                	mov    %ebx,%esi
    76e7:	89 c7                	mov    %eax,%edi
    76e9:	e8 6c e4 ff ff       	callq  5b5a <safe_add_func_uint8_t_u_u>
    76ee:	0f b6 c0             	movzbl %al,%eax
    76f1:	be 0b 00 00 00       	mov    $0xb,%esi
    76f6:	89 c7                	mov    %eax,%edi
    76f8:	e8 7d e7 ff ff       	callq  5e7a <safe_rshift_func_uint16_t_u_u>
    76fd:	66 3d 30 58          	cmp    $0x5830,%ax
    7701:	48 8b 95 b0 fc ff ff 	mov    -0x350(%rbp),%rdx
    7708:	48 8b 05 c9 0f 01 00 	mov    0x10fc9(%rip),%rax        # 186d8 <g_3466>
    770f:	48 8b 00             	mov    (%rax),%rax
    7712:	48 39 c2             	cmp    %rax,%rdx
    7715:	0f 94 c0             	sete   %al
    7718:	0f b6 c0             	movzbl %al,%eax
    771b:	48 89 c7             	mov    %rax,%rdi
    771e:	e8 f3 e0 ff ff       	callq  5816 <safe_unary_minus_func_int64_t_s>
    7723:	66 23 85 5e fa ff ff 	and    -0x5a2(%rbp),%ax
    772a:	98                   	cwtl   
    772b:	be ff ff ff ff       	mov    $0xffffffff,%esi
    7730:	89 c7                	mov    %eax,%edi
    7732:	e8 9c dc ff ff       	callq  53d3 <safe_sub_func_int16_t_s_s>
    7737:	98                   	cwtl   
    7738:	09 85 d0 fa ff ff    	or     %eax,-0x530(%rbp)
    773e:	eb 40                	jmp    7780 <func_1+0xfcb>
    7740:	c7 85 f0 fa ff ff 36 	movl   $0x1bef6136,-0x510(%rbp)
    7747:	61 ef 1b 
    774a:	c7 85 f4 fa ff ff f9 	movl   $0xfffffff9,-0x50c(%rbp)
    7751:	ff ff ff 
    7754:	c7 85 f8 fa ff ff 07 	movl   $0x7,-0x508(%rbp)
    775b:	00 00 00 
    775e:	c7 85 fc fa ff ff 8e 	movl   $0xc20a368e,-0x504(%rbp)
    7765:	36 0a c2 
    7768:	83 ad f0 fa ff ff 01 	subl   $0x1,-0x510(%rbp)
    776f:	0f b7 05 14 f7 00 00 	movzwl 0xf714(%rip),%eax        # 16e8a <g_3800>
    7776:	83 c0 01             	add    $0x1,%eax
    7779:	66 89 05 0a f7 00 00 	mov    %ax,0xf70a(%rip)        # 16e8a <g_3800>
    7780:	66 83 85 76 fa ff ff 	addw   $0x1,-0x58a(%rbp)
    7787:	01 
    7788:	8b 05 ce f6 00 00    	mov    0xf6ce(%rip),%eax        # 16e5c <g_3225>
    778e:	83 c0 01             	add    $0x1,%eax
    7791:	89 05 c5 f6 00 00    	mov    %eax,0xf6c5(%rip)        # 16e5c <g_3225>
    7797:	8b 05 bf f6 00 00    	mov    0xf6bf(%rip),%eax        # 16e5c <g_3225>
    779d:	83 f8 09             	cmp    $0x9,%eax
    77a0:	0f 8e 04 fb ff ff    	jle    72aa <func_1+0xaf5>
    77a6:	eb 07                	jmp    77af <func_1+0xffa>
    77a8:	90                   	nop
    77a9:	eb 04                	jmp    77af <func_1+0xffa>
    77ab:	90                   	nop
    77ac:	eb 01                	jmp    77af <func_1+0xffa>
    77ae:	90                   	nop
    77af:	8b 05 8b ee 00 00    	mov    0xee8b(%rip),%eax        # 16640 <g_722>
    77b5:	83 c0 01             	add    $0x1,%eax
    77b8:	89 05 82 ee 00 00    	mov    %eax,0xee82(%rip)        # 16640 <g_722>
    77be:	8b 05 7c ee 00 00    	mov    0xee7c(%rip),%eax        # 16640 <g_722>
    77c4:	83 f8 01             	cmp    $0x1,%eax
    77c7:	0f 8e aa f8 ff ff    	jle    7077 <func_1+0x8c2>
    77cd:	48 8b 05 f4 06 01 00 	mov    0x106f4(%rip),%rax        # 17ec8 <g_2024>
    77d4:	8b 00                	mov    (%rax),%eax
    77d6:	eb 18                	jmp    77f0 <func_1+0x103b>
    77d8:	8b 05 8e f1 00 00    	mov    0xf18e(%rip),%eax        # 1696c <g_2870>
    77de:	83 f8 09             	cmp    $0x9,%eax
    77e1:	0f 8e 74 f2 ff ff    	jle    6a5b <func_1+0x2a6>
    77e7:	48 8b 05 da 06 01 00 	mov    0x106da(%rip),%rax        # 17ec8 <g_2024>
    77ee:	8b 00                	mov    (%rax),%eax
    77f0:	48 8b 5d c8          	mov    -0x38(%rbp),%rbx
    77f4:	64 48 33 1c 25 28 00 	xor    %fs:0x28,%rbx
    77fb:	00 00 
    77fd:	74 05                	je     7804 <func_1+0x104f>
    77ff:	e8 6c d8 ff ff       	callq  5070 <__stack_chk_fail@plt>
    7804:	48 81 c4 88 05 00 00 	add    $0x588,%rsp
    780b:	5b                   	pop    %rbx
    780c:	41 5c                	pop    %r12
    780e:	41 5d                	pop    %r13
    7810:	41 5e                	pop    %r14
    7812:	41 5f                	pop    %r15
    7814:	5d                   	pop    %rbp
    7815:	c3                   	retq   

0000000000007816 <func_9>:
    7816:	f3 0f 1e fa          	endbr64 
    781a:	55                   	push   %rbp
    781b:	48 89 e5             	mov    %rsp,%rbp
    781e:	41 56                	push   %r14
    7820:	41 55                	push   %r13
    7822:	41 54                	push   %r12
    7824:	53                   	push   %rbx
    7825:	48 81 ec 20 09 00 00 	sub    $0x920,%rsp
    782c:	48 89 bd c8 f6 ff ff 	mov    %rdi,-0x938(%rbp)
    7833:	48 89 b5 c0 f6 ff ff 	mov    %rsi,-0x940(%rbp)
    783a:	64 48 8b 04 25 28 00 	mov    %fs:0x28,%rax
    7841:	00 00 
    7843:	48 89 45 d8          	mov    %rax,-0x28(%rbp)
    7847:	31 c0                	xor    %eax,%eax
    7849:	c7 85 e4 f6 ff ff ff 	movl   $0xffffffff,-0x91c(%rbp)
    7850:	ff ff ff 
    7853:	48 8d 05 5e 06 01 00 	lea    0x1065e(%rip),%rax        # 17eb8 <g_1936>
    785a:	48 89 85 20 f7 ff ff 	mov    %rax,-0x8e0(%rbp)
    7861:	48 8d 05 d0 e7 00 00 	lea    0xe7d0(%rip),%rax        # 16038 <g_26>
    7868:	48 89 85 28 f7 ff ff 	mov    %rax,-0x8d8(%rbp)
    786f:	48 c7 85 30 f7 ff ff 	movq   $0x0,-0x8d0(%rbp)
    7876:	00 00 00 00 
    787a:	48 8d 05 2f ee 00 00 	lea    0xee2f(%rip),%rax        # 166b0 <g_1063>
    7881:	48 89 85 38 f7 ff ff 	mov    %rax,-0x8c8(%rbp)
    7888:	c6 85 d0 f6 ff ff fb 	movb   $0xfb,-0x930(%rbp)
    788f:	48 c7 85 40 f7 ff ff 	movq   $0x0,-0x8c0(%rbp)
    7896:	00 00 00 00 
    789a:	48 8d 05 df 00 01 00 	lea    0x100df(%rip),%rax        # 17980 <g_165>
    78a1:	48 89 85 48 f7 ff ff 	mov    %rax,-0x8b8(%rbp)
    78a8:	c7 85 dc f6 ff ff 00 	movl   $0x0,-0x924(%rbp)
    78af:	00 00 00 
    78b2:	eb 1e                	jmp    78d2 <func_9+0xbc>
    78b4:	8b 85 dc f6 ff ff    	mov    -0x924(%rbp),%eax
    78ba:	48 98                	cltq   
    78bc:	48 8d 15 fd ea 00 00 	lea    0xeafd(%rip),%rdx        # 163c0 <g_159>
    78c3:	48 89 94 c5 00 f8 ff 	mov    %rdx,-0x800(%rbp,%rax,8)
    78ca:	ff 
    78cb:	83 85 dc f6 ff ff 01 	addl   $0x1,-0x924(%rbp)
    78d2:	83 bd dc f6 ff ff 05 	cmpl   $0x5,-0x924(%rbp)
    78d9:	7e d9                	jle    78b4 <func_9+0x9e>
    78db:	c7 05 73 ee 00 00 00 	movl   $0x0,0xee73(%rip)        # 16758 <g_1403>
    78e2:	00 00 00 
    78e5:	e9 48 14 00 00       	jmpq   8d32 <func_9+0x151c>
    78ea:	c7 85 d4 f6 ff ff 84 	movl   $0xf59dcd84,-0x92c(%rbp)
    78f1:	cd 9d f5 
    78f4:	48 c7 85 50 f7 ff ff 	movq   $0x0,-0x8b0(%rbp)
    78fb:	00 00 00 00 
    78ff:	48 8d 05 3a 05 01 00 	lea    0x1053a(%rip),%rax        # 17e40 <g_1823>
    7906:	48 89 85 00 f7 ff ff 	mov    %rax,-0x900(%rbp)
    790d:	c7 85 e8 f6 ff ff ff 	movl   $0xffffffff,-0x918(%rbp)
    7914:	ff ff ff 
    7917:	66 c7 05 6e ef 00 00 	movw   $0x9a67,0xef6e(%rip)        # 1688e <g_2569>
    791e:	67 9a 
    7920:	b8 01 00 00 00       	mov    $0x1,%eax
    7925:	89 c6                	mov    %eax,%esi
    7927:	bf 00 00 00 00       	mov    $0x0,%edi
    792c:	e8 8d e3 ff ff       	callq  5cbe <safe_rshift_func_uint8_t_u_u>
    7931:	84 c0                	test   %al,%al
    7933:	0f 84 96 13 00 00    	je     8ccf <func_9+0x14b9>
    7939:	48 8d 05 48 02 01 00 	lea    0x10248(%rip),%rax        # 17b88 <g_1095>
    7940:	48 89 85 60 f7 ff ff 	mov    %rax,-0x8a0(%rbp)
    7947:	48 8d 05 66 ee 00 00 	lea    0xee66(%rip),%rax        # 167b4 <g_2124>
    794e:	48 89 85 68 f7 ff ff 	mov    %rax,-0x898(%rbp)
    7955:	48 8d 85 00 f7 ff ff 	lea    -0x900(%rbp),%rax
    795c:	48 89 85 70 f7 ff ff 	mov    %rax,-0x890(%rbp)
    7963:	48 8d 05 12 f5 00 00 	lea    0xf512(%rip),%rax        # 16e7c <g_3523>
    796a:	48 89 85 08 f7 ff ff 	mov    %rax,-0x8f8(%rbp)
    7971:	48 8d 85 08 f7 ff ff 	lea    -0x8f8(%rbp),%rax
    7978:	48 89 85 10 f7 ff ff 	mov    %rax,-0x8f0(%rbp)
    797f:	48 8d 85 10 f7 ff ff 	lea    -0x8f0(%rbp),%rax
    7986:	48 89 85 78 f7 ff ff 	mov    %rax,-0x888(%rbp)
    798d:	48 8d 05 ac 0b 01 00 	lea    0x10bac(%rip),%rax        # 18540 <g_3250>
    7994:	48 89 85 80 f7 ff ff 	mov    %rax,-0x880(%rbp)
    799b:	48 8d 05 9e 04 01 00 	lea    0x1049e(%rip),%rax        # 17e40 <g_1823>
    79a2:	48 89 85 88 f7 ff ff 	mov    %rax,-0x878(%rbp)
    79a9:	c7 05 b1 ec 00 00 00 	movl   $0x0,0xecb1(%rip)        # 16664 <g_996>
    79b0:	00 00 00 
    79b3:	e9 b3 11 00 00       	jmpq   8b6b <func_9+0x1355>
    79b8:	48 c7 85 90 f7 ff ff 	movq   $0x0,-0x870(%rbp)
    79bf:	00 00 00 00 
    79c3:	48 8d 85 d4 f6 ff ff 	lea    -0x92c(%rbp),%rax
    79ca:	48 89 85 98 f7 ff ff 	mov    %rax,-0x868(%rbp)
    79d1:	8b 15 8d ec 00 00    	mov    0xec8d(%rip),%edx        # 16664 <g_996>
    79d7:	8b 05 87 ec 00 00    	mov    0xec87(%rip),%eax        # 16664 <g_996>
    79dd:	48 98                	cltq   
    79df:	48 63 d2             	movslq %edx,%rdx
    79e2:	48 c1 e2 02          	shl    $0x2,%rdx
    79e6:	48 01 d0             	add    %rdx,%rax
    79e9:	48 8d 14 85 00 00 00 	lea    0x0(,%rax,4),%rdx
    79f0:	00 
    79f1:	48 8d 05 38 ea 00 00 	lea    0xea38(%rip),%rax        # 16430 <g_547>
    79f8:	8b 04 02             	mov    (%rdx,%rax,1),%eax
    79fb:	85 c0                	test   %eax,%eax
    79fd:	0f 85 78 11 00 00    	jne    8b7b <func_9+0x1365>
    7a03:	48 8b 05 b6 02 01 00 	mov    0x102b6(%rip),%rax        # 17cc0 <g_1537>
    7a0a:	48 8b 00             	mov    (%rax),%rax
    7a0d:	48 8b 95 50 f7 ff ff 	mov    -0x8b0(%rbp),%rdx
    7a14:	48 89 10             	mov    %rdx,(%rax)
    7a17:	48 8b 10             	mov    (%rax),%rdx
    7a1a:	48 8b 85 28 f8 ff ff 	mov    -0x7d8(%rbp),%rax
    7a21:	48 39 c2             	cmp    %rax,%rdx
    7a24:	0f 95 c0             	setne  %al
    7a27:	0f b6 d0             	movzbl %al,%edx
    7a2a:	48 8b 85 c8 f6 ff ff 	mov    -0x938(%rbp),%rax
    7a31:	89 10                	mov    %edx,(%rax)
    7a33:	48 83 bd 90 f7 ff ff 	cmpq   $0x0,-0x870(%rbp)
    7a3a:	00 
    7a3b:	0f 84 ac 0e 00 00    	je     88ed <func_9+0x10d7>
    7a41:	c7 85 f4 f6 ff ff 01 	movl   $0x1,-0x90c(%rbp)
    7a48:	00 00 00 
    7a4b:	48 c7 85 18 f7 ff ff 	movq   $0x0,-0x8e8(%rbp)
    7a52:	00 00 00 00 
    7a56:	48 8d 85 18 f7 ff ff 	lea    -0x8e8(%rbp),%rax
    7a5d:	48 89 85 30 f8 ff ff 	mov    %rax,-0x7d0(%rbp)
    7a64:	48 c7 85 38 f8 ff ff 	movq   $0x0,-0x7c8(%rbp)
    7a6b:	00 00 00 00 
    7a6f:	48 c7 85 40 f8 ff ff 	movq   $0x0,-0x7c0(%rbp)
    7a76:	00 00 00 00 
    7a7a:	48 8d 85 18 f7 ff ff 	lea    -0x8e8(%rbp),%rax
    7a81:	48 89 85 48 f8 ff ff 	mov    %rax,-0x7b8(%rbp)
    7a88:	48 c7 85 50 f8 ff ff 	movq   $0x0,-0x7b0(%rbp)
    7a8f:	00 00 00 00 
    7a93:	48 c7 85 58 f8 ff ff 	movq   $0x0,-0x7a8(%rbp)
    7a9a:	00 00 00 00 
    7a9e:	48 8d 85 18 f7 ff ff 	lea    -0x8e8(%rbp),%rax
    7aa5:	48 89 85 60 f8 ff ff 	mov    %rax,-0x7a0(%rbp)
    7aac:	48 c7 85 68 f8 ff ff 	movq   $0x0,-0x798(%rbp)
    7ab3:	00 00 00 00 
    7ab7:	48 8d 85 18 f7 ff ff 	lea    -0x8e8(%rbp),%rax
    7abe:	48 89 85 70 f8 ff ff 	mov    %rax,-0x790(%rbp)
    7ac5:	48 c7 85 78 f8 ff ff 	movq   $0x0,-0x788(%rbp)
    7acc:	00 00 00 00 
    7ad0:	48 c7 85 80 f8 ff ff 	movq   $0x0,-0x780(%rbp)
    7ad7:	00 00 00 00 
    7adb:	48 8d 85 18 f7 ff ff 	lea    -0x8e8(%rbp),%rax
    7ae2:	48 89 85 88 f8 ff ff 	mov    %rax,-0x778(%rbp)
    7ae9:	48 c7 85 90 f8 ff ff 	movq   $0x0,-0x770(%rbp)
    7af0:	00 00 00 00 
    7af4:	48 c7 85 98 f8 ff ff 	movq   $0x0,-0x768(%rbp)
    7afb:	00 00 00 00 
    7aff:	48 8d 85 18 f7 ff ff 	lea    -0x8e8(%rbp),%rax
    7b06:	48 89 85 a0 f8 ff ff 	mov    %rax,-0x760(%rbp)
    7b0d:	48 8d 85 18 f7 ff ff 	lea    -0x8e8(%rbp),%rax
    7b14:	48 89 85 a8 f8 ff ff 	mov    %rax,-0x758(%rbp)
    7b1b:	48 8d 85 18 f7 ff ff 	lea    -0x8e8(%rbp),%rax
    7b22:	48 89 85 b0 f8 ff ff 	mov    %rax,-0x750(%rbp)
    7b29:	48 8d 85 18 f7 ff ff 	lea    -0x8e8(%rbp),%rax
    7b30:	48 89 85 b8 f8 ff ff 	mov    %rax,-0x748(%rbp)
    7b37:	48 8d 85 18 f7 ff ff 	lea    -0x8e8(%rbp),%rax
    7b3e:	48 89 85 c0 f8 ff ff 	mov    %rax,-0x740(%rbp)
    7b45:	48 8d 85 18 f7 ff ff 	lea    -0x8e8(%rbp),%rax
    7b4c:	48 89 85 c8 f8 ff ff 	mov    %rax,-0x738(%rbp)
    7b53:	48 8d 85 18 f7 ff ff 	lea    -0x8e8(%rbp),%rax
    7b5a:	48 89 85 d0 f8 ff ff 	mov    %rax,-0x730(%rbp)
    7b61:	48 8d 85 18 f7 ff ff 	lea    -0x8e8(%rbp),%rax
    7b68:	48 89 85 d8 f8 ff ff 	mov    %rax,-0x728(%rbp)
    7b6f:	48 c7 85 e0 f8 ff ff 	movq   $0x0,-0x720(%rbp)
    7b76:	00 00 00 00 
    7b7a:	48 c7 85 e8 f8 ff ff 	movq   $0x0,-0x718(%rbp)
    7b81:	00 00 00 00 
    7b85:	48 8d 85 18 f7 ff ff 	lea    -0x8e8(%rbp),%rax
    7b8c:	48 89 85 f0 f8 ff ff 	mov    %rax,-0x710(%rbp)
    7b93:	48 c7 85 f8 f8 ff ff 	movq   $0x0,-0x708(%rbp)
    7b9a:	00 00 00 00 
    7b9e:	48 c7 85 00 f9 ff ff 	movq   $0x0,-0x700(%rbp)
    7ba5:	00 00 00 00 
    7ba9:	48 8d 85 18 f7 ff ff 	lea    -0x8e8(%rbp),%rax
    7bb0:	48 89 85 08 f9 ff ff 	mov    %rax,-0x6f8(%rbp)
    7bb7:	48 c7 85 10 f9 ff ff 	movq   $0x0,-0x6f0(%rbp)
    7bbe:	00 00 00 00 
    7bc2:	48 8d 85 18 f7 ff ff 	lea    -0x8e8(%rbp),%rax
    7bc9:	48 89 85 18 f9 ff ff 	mov    %rax,-0x6e8(%rbp)
    7bd0:	48 c7 85 20 f9 ff ff 	movq   $0x0,-0x6e0(%rbp)
    7bd7:	00 00 00 00 
    7bdb:	48 c7 85 28 f9 ff ff 	movq   $0x0,-0x6d8(%rbp)
    7be2:	00 00 00 00 
    7be6:	48 8d 85 18 f7 ff ff 	lea    -0x8e8(%rbp),%rax
    7bed:	48 89 85 30 f9 ff ff 	mov    %rax,-0x6d0(%rbp)
    7bf4:	48 c7 85 38 f9 ff ff 	movq   $0x0,-0x6c8(%rbp)
    7bfb:	00 00 00 00 
    7bff:	48 c7 85 40 f9 ff ff 	movq   $0x0,-0x6c0(%rbp)
    7c06:	00 00 00 00 
    7c0a:	48 8d 85 18 f7 ff ff 	lea    -0x8e8(%rbp),%rax
    7c11:	48 89 85 48 f9 ff ff 	mov    %rax,-0x6b8(%rbp)
    7c18:	48 8d 85 18 f7 ff ff 	lea    -0x8e8(%rbp),%rax
    7c1f:	48 89 85 50 f9 ff ff 	mov    %rax,-0x6b0(%rbp)
    7c26:	48 8d 85 18 f7 ff ff 	lea    -0x8e8(%rbp),%rax
    7c2d:	48 89 85 58 f9 ff ff 	mov    %rax,-0x6a8(%rbp)
    7c34:	48 8d 85 18 f7 ff ff 	lea    -0x8e8(%rbp),%rax
    7c3b:	48 89 85 60 f9 ff ff 	mov    %rax,-0x6a0(%rbp)
    7c42:	48 8d 85 18 f7 ff ff 	lea    -0x8e8(%rbp),%rax
    7c49:	48 89 85 68 f9 ff ff 	mov    %rax,-0x698(%rbp)
    7c50:	48 8d 85 18 f7 ff ff 	lea    -0x8e8(%rbp),%rax
    7c57:	48 89 85 70 f9 ff ff 	mov    %rax,-0x690(%rbp)
    7c5e:	48 8d 85 18 f7 ff ff 	lea    -0x8e8(%rbp),%rax
    7c65:	48 89 85 78 f9 ff ff 	mov    %rax,-0x688(%rbp)
    7c6c:	48 8d 85 18 f7 ff ff 	lea    -0x8e8(%rbp),%rax
    7c73:	48 89 85 80 f9 ff ff 	mov    %rax,-0x680(%rbp)
    7c7a:	48 c7 85 88 f9 ff ff 	movq   $0x0,-0x678(%rbp)
    7c81:	00 00 00 00 
    7c85:	48 c7 85 90 f9 ff ff 	movq   $0x0,-0x670(%rbp)
    7c8c:	00 00 00 00 
    7c90:	48 8d 85 18 f7 ff ff 	lea    -0x8e8(%rbp),%rax
    7c97:	48 89 85 98 f9 ff ff 	mov    %rax,-0x668(%rbp)
    7c9e:	48 c7 85 a0 f9 ff ff 	movq   $0x0,-0x660(%rbp)
    7ca5:	00 00 00 00 
    7ca9:	48 c7 85 a8 f9 ff ff 	movq   $0x0,-0x658(%rbp)
    7cb0:	00 00 00 00 
    7cb4:	48 8d 85 18 f7 ff ff 	lea    -0x8e8(%rbp),%rax
    7cbb:	48 89 85 b0 f9 ff ff 	mov    %rax,-0x650(%rbp)
    7cc2:	48 c7 85 b8 f9 ff ff 	movq   $0x0,-0x648(%rbp)
    7cc9:	00 00 00 00 
    7ccd:	48 8d 85 18 f7 ff ff 	lea    -0x8e8(%rbp),%rax
    7cd4:	48 89 85 c0 f9 ff ff 	mov    %rax,-0x640(%rbp)
    7cdb:	48 c7 85 c8 f9 ff ff 	movq   $0x0,-0x638(%rbp)
    7ce2:	00 00 00 00 
    7ce6:	48 c7 85 d0 f9 ff ff 	movq   $0x0,-0x630(%rbp)
    7ced:	00 00 00 00 
    7cf1:	48 c7 85 d8 f9 ff ff 	movq   $0x0,-0x628(%rbp)
    7cf8:	00 00 00 00 
    7cfc:	48 8d 85 18 f7 ff ff 	lea    -0x8e8(%rbp),%rax
    7d03:	48 89 85 e0 f9 ff ff 	mov    %rax,-0x620(%rbp)
    7d0a:	48 8d 85 18 f7 ff ff 	lea    -0x8e8(%rbp),%rax
    7d11:	48 89 85 e8 f9 ff ff 	mov    %rax,-0x618(%rbp)
    7d18:	48 c7 85 f0 f9 ff ff 	movq   $0x0,-0x610(%rbp)
    7d1f:	00 00 00 00 
    7d23:	48 c7 85 f8 f9 ff ff 	movq   $0x0,-0x608(%rbp)
    7d2a:	00 00 00 00 
    7d2e:	48 8d 85 18 f7 ff ff 	lea    -0x8e8(%rbp),%rax
    7d35:	48 89 85 00 fa ff ff 	mov    %rax,-0x600(%rbp)
    7d3c:	48 c7 85 08 fa ff ff 	movq   $0x0,-0x5f8(%rbp)
    7d43:	00 00 00 00 
    7d47:	48 c7 85 10 fa ff ff 	movq   $0x0,-0x5f0(%rbp)
    7d4e:	00 00 00 00 
    7d52:	48 8d 85 18 f7 ff ff 	lea    -0x8e8(%rbp),%rax
    7d59:	48 89 85 18 fa ff ff 	mov    %rax,-0x5e8(%rbp)
    7d60:	48 c7 85 20 fa ff ff 	movq   $0x0,-0x5e0(%rbp)
    7d67:	00 00 00 00 
    7d6b:	48 c7 85 28 fa ff ff 	movq   $0x0,-0x5d8(%rbp)
    7d72:	00 00 00 00 
    7d76:	48 8d 85 18 f7 ff ff 	lea    -0x8e8(%rbp),%rax
    7d7d:	48 89 85 30 fa ff ff 	mov    %rax,-0x5d0(%rbp)
    7d84:	48 8d 85 18 f7 ff ff 	lea    -0x8e8(%rbp),%rax
    7d8b:	48 89 85 38 fa ff ff 	mov    %rax,-0x5c8(%rbp)
    7d92:	48 c7 85 40 fa ff ff 	movq   $0x0,-0x5c0(%rbp)
    7d99:	00 00 00 00 
    7d9d:	48 8d 85 18 f7 ff ff 	lea    -0x8e8(%rbp),%rax
    7da4:	48 89 85 48 fa ff ff 	mov    %rax,-0x5b8(%rbp)
    7dab:	48 8d 85 18 f7 ff ff 	lea    -0x8e8(%rbp),%rax
    7db2:	48 89 85 50 fa ff ff 	mov    %rax,-0x5b0(%rbp)
    7db9:	48 c7 85 58 fa ff ff 	movq   $0x0,-0x5a8(%rbp)
    7dc0:	00 00 00 00 
    7dc4:	48 8d 85 18 f7 ff ff 	lea    -0x8e8(%rbp),%rax
    7dcb:	48 89 85 60 fa ff ff 	mov    %rax,-0x5a0(%rbp)
    7dd2:	48 c7 85 68 fa ff ff 	movq   $0x0,-0x598(%rbp)
    7dd9:	00 00 00 00 
    7ddd:	48 8d 85 18 f7 ff ff 	lea    -0x8e8(%rbp),%rax
    7de4:	48 89 85 70 fa ff ff 	mov    %rax,-0x590(%rbp)
    7deb:	48 8d 85 18 f7 ff ff 	lea    -0x8e8(%rbp),%rax
    7df2:	48 89 85 78 fa ff ff 	mov    %rax,-0x588(%rbp)
    7df9:	48 c7 85 80 fa ff ff 	movq   $0x0,-0x580(%rbp)
    7e00:	00 00 00 00 
    7e04:	48 8d 85 18 f7 ff ff 	lea    -0x8e8(%rbp),%rax
    7e0b:	48 89 85 88 fa ff ff 	mov    %rax,-0x578(%rbp)
    7e12:	48 8d 85 18 f7 ff ff 	lea    -0x8e8(%rbp),%rax
    7e19:	48 89 85 90 fa ff ff 	mov    %rax,-0x570(%rbp)
    7e20:	48 c7 85 98 fa ff ff 	movq   $0x0,-0x568(%rbp)
    7e27:	00 00 00 00 
    7e2b:	48 c7 85 a0 fa ff ff 	movq   $0x0,-0x560(%rbp)
    7e32:	00 00 00 00 
    7e36:	48 8d 85 18 f7 ff ff 	lea    -0x8e8(%rbp),%rax
    7e3d:	48 89 85 a8 fa ff ff 	mov    %rax,-0x558(%rbp)
    7e44:	48 c7 85 b0 fa ff ff 	movq   $0x0,-0x550(%rbp)
    7e4b:	00 00 00 00 
    7e4f:	48 c7 85 b8 fa ff ff 	movq   $0x0,-0x548(%rbp)
    7e56:	00 00 00 00 
    7e5a:	48 8d 85 18 f7 ff ff 	lea    -0x8e8(%rbp),%rax
    7e61:	48 89 85 c0 fa ff ff 	mov    %rax,-0x540(%rbp)
    7e68:	48 c7 85 c8 fa ff ff 	movq   $0x0,-0x538(%rbp)
    7e6f:	00 00 00 00 
    7e73:	48 c7 85 d0 fa ff ff 	movq   $0x0,-0x530(%rbp)
    7e7a:	00 00 00 00 
    7e7e:	48 8d 85 18 f7 ff ff 	lea    -0x8e8(%rbp),%rax
    7e85:	48 89 85 d8 fa ff ff 	mov    %rax,-0x528(%rbp)
    7e8c:	48 8d 85 18 f7 ff ff 	lea    -0x8e8(%rbp),%rax
    7e93:	48 89 85 e0 fa ff ff 	mov    %rax,-0x520(%rbp)
    7e9a:	48 c7 85 e8 fa ff ff 	movq   $0x0,-0x518(%rbp)
    7ea1:	00 00 00 00 
    7ea5:	48 8d 85 18 f7 ff ff 	lea    -0x8e8(%rbp),%rax
    7eac:	48 89 85 f0 fa ff ff 	mov    %rax,-0x510(%rbp)
    7eb3:	48 8d 85 18 f7 ff ff 	lea    -0x8e8(%rbp),%rax
    7eba:	48 89 85 f8 fa ff ff 	mov    %rax,-0x508(%rbp)
    7ec1:	48 c7 85 00 fb ff ff 	movq   $0x0,-0x500(%rbp)
    7ec8:	00 00 00 00 
    7ecc:	48 8d 85 18 f7 ff ff 	lea    -0x8e8(%rbp),%rax
    7ed3:	48 89 85 08 fb ff ff 	mov    %rax,-0x4f8(%rbp)
    7eda:	48 c7 85 10 fb ff ff 	movq   $0x0,-0x4f0(%rbp)
    7ee1:	00 00 00 00 
    7ee5:	48 8d 85 18 f7 ff ff 	lea    -0x8e8(%rbp),%rax
    7eec:	48 89 85 18 fb ff ff 	mov    %rax,-0x4e8(%rbp)
    7ef3:	48 8d 85 18 f7 ff ff 	lea    -0x8e8(%rbp),%rax
    7efa:	48 89 85 20 fb ff ff 	mov    %rax,-0x4e0(%rbp)
    7f01:	48 c7 85 28 fb ff ff 	movq   $0x0,-0x4d8(%rbp)
    7f08:	00 00 00 00 
    7f0c:	48 8d 85 18 f7 ff ff 	lea    -0x8e8(%rbp),%rax
    7f13:	48 89 85 30 fb ff ff 	mov    %rax,-0x4d0(%rbp)
    7f1a:	48 8d 85 18 f7 ff ff 	lea    -0x8e8(%rbp),%rax
    7f21:	48 89 85 38 fb ff ff 	mov    %rax,-0x4c8(%rbp)
    7f28:	48 c7 85 40 fb ff ff 	movq   $0x0,-0x4c0(%rbp)
    7f2f:	00 00 00 00 
    7f33:	48 c7 85 48 fb ff ff 	movq   $0x0,-0x4b8(%rbp)
    7f3a:	00 00 00 00 
    7f3e:	48 8d 85 18 f7 ff ff 	lea    -0x8e8(%rbp),%rax
    7f45:	48 89 85 50 fb ff ff 	mov    %rax,-0x4b0(%rbp)
    7f4c:	48 c7 85 58 fb ff ff 	movq   $0x0,-0x4a8(%rbp)
    7f53:	00 00 00 00 
    7f57:	48 c7 85 60 fb ff ff 	movq   $0x0,-0x4a0(%rbp)
    7f5e:	00 00 00 00 
    7f62:	48 8d 85 18 f7 ff ff 	lea    -0x8e8(%rbp),%rax
    7f69:	48 89 85 68 fb ff ff 	mov    %rax,-0x498(%rbp)
    7f70:	48 c7 85 70 fb ff ff 	movq   $0x0,-0x490(%rbp)
    7f77:	00 00 00 00 
    7f7b:	48 c7 85 78 fb ff ff 	movq   $0x0,-0x488(%rbp)
    7f82:	00 00 00 00 
    7f86:	48 8d 85 18 f7 ff ff 	lea    -0x8e8(%rbp),%rax
    7f8d:	48 89 85 80 fb ff ff 	mov    %rax,-0x480(%rbp)
    7f94:	48 8d 85 18 f7 ff ff 	lea    -0x8e8(%rbp),%rax
    7f9b:	48 89 85 88 fb ff ff 	mov    %rax,-0x478(%rbp)
    7fa2:	48 c7 85 90 fb ff ff 	movq   $0x0,-0x470(%rbp)
    7fa9:	00 00 00 00 
    7fad:	48 8d 85 18 f7 ff ff 	lea    -0x8e8(%rbp),%rax
    7fb4:	48 89 85 98 fb ff ff 	mov    %rax,-0x468(%rbp)
    7fbb:	48 8d 85 18 f7 ff ff 	lea    -0x8e8(%rbp),%rax
    7fc2:	48 89 85 a0 fb ff ff 	mov    %rax,-0x460(%rbp)
    7fc9:	48 c7 85 a8 fb ff ff 	movq   $0x0,-0x458(%rbp)
    7fd0:	00 00 00 00 
    7fd4:	48 8d 85 18 f7 ff ff 	lea    -0x8e8(%rbp),%rax
    7fdb:	48 89 85 b0 fb ff ff 	mov    %rax,-0x450(%rbp)
    7fe2:	48 c7 85 b8 fb ff ff 	movq   $0x0,-0x448(%rbp)
    7fe9:	00 00 00 00 
    7fed:	48 8d 85 18 f7 ff ff 	lea    -0x8e8(%rbp),%rax
    7ff4:	48 89 85 c0 fb ff ff 	mov    %rax,-0x440(%rbp)
    7ffb:	48 8d 85 18 f7 ff ff 	lea    -0x8e8(%rbp),%rax
    8002:	48 89 85 c8 fb ff ff 	mov    %rax,-0x438(%rbp)
    8009:	48 c7 85 d0 fb ff ff 	movq   $0x0,-0x430(%rbp)
    8010:	00 00 00 00 
    8014:	48 8d 85 18 f7 ff ff 	lea    -0x8e8(%rbp),%rax
    801b:	48 89 85 d8 fb ff ff 	mov    %rax,-0x428(%rbp)
    8022:	48 8d 85 18 f7 ff ff 	lea    -0x8e8(%rbp),%rax
    8029:	48 89 85 e0 fb ff ff 	mov    %rax,-0x420(%rbp)
    8030:	48 c7 85 e8 fb ff ff 	movq   $0x0,-0x418(%rbp)
    8037:	00 00 00 00 
    803b:	48 c7 85 f0 fb ff ff 	movq   $0x0,-0x410(%rbp)
    8042:	00 00 00 00 
    8046:	48 8d 85 18 f7 ff ff 	lea    -0x8e8(%rbp),%rax
    804d:	48 89 85 f8 fb ff ff 	mov    %rax,-0x408(%rbp)
    8054:	48 c7 85 00 fc ff ff 	movq   $0x0,-0x400(%rbp)
    805b:	00 00 00 00 
    805f:	48 c7 85 08 fc ff ff 	movq   $0x0,-0x3f8(%rbp)
    8066:	00 00 00 00 
    806a:	48 8d 85 18 f7 ff ff 	lea    -0x8e8(%rbp),%rax
    8071:	48 89 85 10 fc ff ff 	mov    %rax,-0x3f0(%rbp)
    8078:	48 c7 85 18 fc ff ff 	movq   $0x0,-0x3e8(%rbp)
    807f:	00 00 00 00 
    8083:	48 c7 85 20 fc ff ff 	movq   $0x0,-0x3e0(%rbp)
    808a:	00 00 00 00 
    808e:	48 8d 85 18 f7 ff ff 	lea    -0x8e8(%rbp),%rax
    8095:	48 89 85 28 fc ff ff 	mov    %rax,-0x3d8(%rbp)
    809c:	48 8d 85 18 f7 ff ff 	lea    -0x8e8(%rbp),%rax
    80a3:	48 89 85 30 fc ff ff 	mov    %rax,-0x3d0(%rbp)
    80aa:	48 c7 85 38 fc ff ff 	movq   $0x0,-0x3c8(%rbp)
    80b1:	00 00 00 00 
    80b5:	48 8d 85 18 f7 ff ff 	lea    -0x8e8(%rbp),%rax
    80bc:	48 89 85 40 fc ff ff 	mov    %rax,-0x3c0(%rbp)
    80c3:	48 8d 85 18 f7 ff ff 	lea    -0x8e8(%rbp),%rax
    80ca:	48 89 85 48 fc ff ff 	mov    %rax,-0x3b8(%rbp)
    80d1:	48 c7 85 50 fc ff ff 	movq   $0x0,-0x3b0(%rbp)
    80d8:	00 00 00 00 
    80dc:	48 8d 85 18 f7 ff ff 	lea    -0x8e8(%rbp),%rax
    80e3:	48 89 85 58 fc ff ff 	mov    %rax,-0x3a8(%rbp)
    80ea:	48 c7 85 60 fc ff ff 	movq   $0x0,-0x3a0(%rbp)
    80f1:	00 00 00 00 
    80f5:	48 8d 85 18 f7 ff ff 	lea    -0x8e8(%rbp),%rax
    80fc:	48 89 85 68 fc ff ff 	mov    %rax,-0x398(%rbp)
    8103:	48 8d 85 18 f7 ff ff 	lea    -0x8e8(%rbp),%rax
    810a:	48 89 85 70 fc ff ff 	mov    %rax,-0x390(%rbp)
    8111:	48 c7 85 78 fc ff ff 	movq   $0x0,-0x388(%rbp)
    8118:	00 00 00 00 
    811c:	48 8d 85 18 f7 ff ff 	lea    -0x8e8(%rbp),%rax
    8123:	48 89 85 80 fc ff ff 	mov    %rax,-0x380(%rbp)
    812a:	48 8d 85 18 f7 ff ff 	lea    -0x8e8(%rbp),%rax
    8131:	48 89 85 88 fc ff ff 	mov    %rax,-0x378(%rbp)
    8138:	48 c7 85 90 fc ff ff 	movq   $0x0,-0x370(%rbp)
    813f:	00 00 00 00 
    8143:	48 c7 85 98 fc ff ff 	movq   $0x0,-0x368(%rbp)
    814a:	00 00 00 00 
    814e:	48 8d 85 18 f7 ff ff 	lea    -0x8e8(%rbp),%rax
    8155:	48 89 85 a0 fc ff ff 	mov    %rax,-0x360(%rbp)
    815c:	48 c7 85 a8 fc ff ff 	movq   $0x0,-0x358(%rbp)
    8163:	00 00 00 00 
    8167:	48 c7 85 b0 fc ff ff 	movq   $0x0,-0x350(%rbp)
    816e:	00 00 00 00 
    8172:	48 8d 85 18 f7 ff ff 	lea    -0x8e8(%rbp),%rax
    8179:	48 89 85 b8 fc ff ff 	mov    %rax,-0x348(%rbp)
    8180:	48 c7 85 c0 fc ff ff 	movq   $0x0,-0x340(%rbp)
    8187:	00 00 00 00 
    818b:	48 c7 85 c8 fc ff ff 	movq   $0x0,-0x338(%rbp)
    8192:	00 00 00 00 
    8196:	48 8d 85 18 f7 ff ff 	lea    -0x8e8(%rbp),%rax
    819d:	48 89 85 d0 fc ff ff 	mov    %rax,-0x330(%rbp)
    81a4:	48 8d 85 18 f7 ff ff 	lea    -0x8e8(%rbp),%rax
    81ab:	48 89 85 d8 fc ff ff 	mov    %rax,-0x328(%rbp)
    81b2:	48 c7 85 e0 fc ff ff 	movq   $0x0,-0x320(%rbp)
    81b9:	00 00 00 00 
    81bd:	48 8d 85 18 f7 ff ff 	lea    -0x8e8(%rbp),%rax
    81c4:	48 89 85 e8 fc ff ff 	mov    %rax,-0x318(%rbp)
    81cb:	48 8d 85 18 f7 ff ff 	lea    -0x8e8(%rbp),%rax
    81d2:	48 89 85 f0 fc ff ff 	mov    %rax,-0x310(%rbp)
    81d9:	48 c7 85 f8 fc ff ff 	movq   $0x0,-0x308(%rbp)
    81e0:	00 00 00 00 
    81e4:	48 8d 85 18 f7 ff ff 	lea    -0x8e8(%rbp),%rax
    81eb:	48 89 85 00 fd ff ff 	mov    %rax,-0x300(%rbp)
    81f2:	48 c7 85 08 fd ff ff 	movq   $0x0,-0x2f8(%rbp)
    81f9:	00 00 00 00 
    81fd:	48 8d 85 18 f7 ff ff 	lea    -0x8e8(%rbp),%rax
    8204:	48 89 85 10 fd ff ff 	mov    %rax,-0x2f0(%rbp)
    820b:	48 8d 85 18 f7 ff ff 	lea    -0x8e8(%rbp),%rax
    8212:	48 89 85 18 fd ff ff 	mov    %rax,-0x2e8(%rbp)
    8219:	48 c7 85 20 fd ff ff 	movq   $0x0,-0x2e0(%rbp)
    8220:	00 00 00 00 
    8224:	48 8d 85 18 f7 ff ff 	lea    -0x8e8(%rbp),%rax
    822b:	48 89 85 28 fd ff ff 	mov    %rax,-0x2d8(%rbp)
    8232:	48 8d 85 18 f7 ff ff 	lea    -0x8e8(%rbp),%rax
    8239:	48 89 85 30 fd ff ff 	mov    %rax,-0x2d0(%rbp)
    8240:	48 c7 85 38 fd ff ff 	movq   $0x0,-0x2c8(%rbp)
    8247:	00 00 00 00 
    824b:	48 c7 85 40 fd ff ff 	movq   $0x0,-0x2c0(%rbp)
    8252:	00 00 00 00 
    8256:	48 8d 85 18 f7 ff ff 	lea    -0x8e8(%rbp),%rax
    825d:	48 89 85 48 fd ff ff 	mov    %rax,-0x2b8(%rbp)
    8264:	48 c7 85 50 fd ff ff 	movq   $0x0,-0x2b0(%rbp)
    826b:	00 00 00 00 
    826f:	48 c7 85 58 fd ff ff 	movq   $0x0,-0x2a8(%rbp)
    8276:	00 00 00 00 
    827a:	48 8d 85 18 f7 ff ff 	lea    -0x8e8(%rbp),%rax
    8281:	48 89 85 60 fd ff ff 	mov    %rax,-0x2a0(%rbp)
    8288:	48 c7 85 68 fd ff ff 	movq   $0x0,-0x298(%rbp)
    828f:	00 00 00 00 
    8293:	48 c7 85 70 fd ff ff 	movq   $0x0,-0x290(%rbp)
    829a:	00 00 00 00 
    829e:	48 8d 85 18 f7 ff ff 	lea    -0x8e8(%rbp),%rax
    82a5:	48 89 85 78 fd ff ff 	mov    %rax,-0x288(%rbp)
    82ac:	48 8d 85 18 f7 ff ff 	lea    -0x8e8(%rbp),%rax
    82b3:	48 89 85 80 fd ff ff 	mov    %rax,-0x280(%rbp)
    82ba:	48 c7 85 88 fd ff ff 	movq   $0x0,-0x278(%rbp)
    82c1:	00 00 00 00 
    82c5:	48 8d 85 18 f7 ff ff 	lea    -0x8e8(%rbp),%rax
    82cc:	48 89 85 90 fd ff ff 	mov    %rax,-0x270(%rbp)
    82d3:	48 8d 85 18 f7 ff ff 	lea    -0x8e8(%rbp),%rax
    82da:	48 89 85 98 fd ff ff 	mov    %rax,-0x268(%rbp)
    82e1:	48 c7 85 a0 fd ff ff 	movq   $0x0,-0x260(%rbp)
    82e8:	00 00 00 00 
    82ec:	48 8d 85 18 f7 ff ff 	lea    -0x8e8(%rbp),%rax
    82f3:	48 89 85 a8 fd ff ff 	mov    %rax,-0x258(%rbp)
    82fa:	48 c7 85 b0 fd ff ff 	movq   $0x0,-0x250(%rbp)
    8301:	00 00 00 00 
    8305:	48 8d 85 18 f7 ff ff 	lea    -0x8e8(%rbp),%rax
    830c:	48 89 85 b8 fd ff ff 	mov    %rax,-0x248(%rbp)
    8313:	48 8d 85 18 f7 ff ff 	lea    -0x8e8(%rbp),%rax
    831a:	48 89 85 c0 fd ff ff 	mov    %rax,-0x240(%rbp)
    8321:	48 c7 85 c8 fd ff ff 	movq   $0x0,-0x238(%rbp)
    8328:	00 00 00 00 
    832c:	48 8d 85 18 f7 ff ff 	lea    -0x8e8(%rbp),%rax
    8333:	48 89 85 d0 fd ff ff 	mov    %rax,-0x230(%rbp)
    833a:	48 8d 85 18 f7 ff ff 	lea    -0x8e8(%rbp),%rax
    8341:	48 89 85 d8 fd ff ff 	mov    %rax,-0x228(%rbp)
    8348:	48 c7 85 e0 fd ff ff 	movq   $0x0,-0x220(%rbp)
    834f:	00 00 00 00 
    8353:	48 c7 85 e8 fd ff ff 	movq   $0x0,-0x218(%rbp)
    835a:	00 00 00 00 
    835e:	48 8d 85 18 f7 ff ff 	lea    -0x8e8(%rbp),%rax
    8365:	48 89 85 f0 fd ff ff 	mov    %rax,-0x210(%rbp)
    836c:	48 c7 85 f8 fd ff ff 	movq   $0x0,-0x208(%rbp)
    8373:	00 00 00 00 
    8377:	48 c7 85 00 fe ff ff 	movq   $0x0,-0x200(%rbp)
    837e:	00 00 00 00 
    8382:	48 8d 85 18 f7 ff ff 	lea    -0x8e8(%rbp),%rax
    8389:	48 89 85 08 fe ff ff 	mov    %rax,-0x1f8(%rbp)
    8390:	48 c7 85 10 fe ff ff 	movq   $0x0,-0x1f0(%rbp)
    8397:	00 00 00 00 
    839b:	48 c7 85 18 fe ff ff 	movq   $0x0,-0x1e8(%rbp)
    83a2:	00 00 00 00 
    83a6:	48 8d 85 18 f7 ff ff 	lea    -0x8e8(%rbp),%rax
    83ad:	48 89 85 20 fe ff ff 	mov    %rax,-0x1e0(%rbp)
    83b4:	48 8d 85 18 f7 ff ff 	lea    -0x8e8(%rbp),%rax
    83bb:	48 89 85 28 fe ff ff 	mov    %rax,-0x1d8(%rbp)
    83c2:	48 c7 85 30 fe ff ff 	movq   $0x0,-0x1d0(%rbp)
    83c9:	00 00 00 00 
    83cd:	48 8d 85 18 f7 ff ff 	lea    -0x8e8(%rbp),%rax
    83d4:	48 89 85 38 fe ff ff 	mov    %rax,-0x1c8(%rbp)
    83db:	48 8d 85 18 f7 ff ff 	lea    -0x8e8(%rbp),%rax
    83e2:	48 89 85 40 fe ff ff 	mov    %rax,-0x1c0(%rbp)
    83e9:	48 c7 85 48 fe ff ff 	movq   $0x0,-0x1b8(%rbp)
    83f0:	00 00 00 00 
    83f4:	48 8d 85 18 f7 ff ff 	lea    -0x8e8(%rbp),%rax
    83fb:	48 89 85 50 fe ff ff 	mov    %rax,-0x1b0(%rbp)
    8402:	48 c7 85 58 fe ff ff 	movq   $0x0,-0x1a8(%rbp)
    8409:	00 00 00 00 
    840d:	48 8d 85 18 f7 ff ff 	lea    -0x8e8(%rbp),%rax
    8414:	48 89 85 60 fe ff ff 	mov    %rax,-0x1a0(%rbp)
    841b:	48 8d 85 18 f7 ff ff 	lea    -0x8e8(%rbp),%rax
    8422:	48 89 85 68 fe ff ff 	mov    %rax,-0x198(%rbp)
    8429:	48 c7 85 70 fe ff ff 	movq   $0x0,-0x190(%rbp)
    8430:	00 00 00 00 
    8434:	48 8d 85 18 f7 ff ff 	lea    -0x8e8(%rbp),%rax
    843b:	48 89 85 78 fe ff ff 	mov    %rax,-0x188(%rbp)
    8442:	48 8d 85 18 f7 ff ff 	lea    -0x8e8(%rbp),%rax
    8449:	48 89 85 80 fe ff ff 	mov    %rax,-0x180(%rbp)
    8450:	48 c7 85 88 fe ff ff 	movq   $0x0,-0x178(%rbp)
    8457:	00 00 00 00 
    845b:	48 c7 85 90 fe ff ff 	movq   $0x0,-0x170(%rbp)
    8462:	00 00 00 00 
    8466:	48 8d 85 18 f7 ff ff 	lea    -0x8e8(%rbp),%rax
    846d:	48 89 85 98 fe ff ff 	mov    %rax,-0x168(%rbp)
    8474:	48 c7 85 a0 fe ff ff 	movq   $0x0,-0x160(%rbp)
    847b:	00 00 00 00 
    847f:	48 c7 85 a8 fe ff ff 	movq   $0x0,-0x158(%rbp)
    8486:	00 00 00 00 
    848a:	48 8d 85 18 f7 ff ff 	lea    -0x8e8(%rbp),%rax
    8491:	48 89 85 b0 fe ff ff 	mov    %rax,-0x150(%rbp)
    8498:	48 c7 85 b8 fe ff ff 	movq   $0x0,-0x148(%rbp)
    849f:	00 00 00 00 
    84a3:	48 c7 85 c0 fe ff ff 	movq   $0x0,-0x140(%rbp)
    84aa:	00 00 00 00 
    84ae:	48 8d 85 18 f7 ff ff 	lea    -0x8e8(%rbp),%rax
    84b5:	48 89 85 c8 fe ff ff 	mov    %rax,-0x138(%rbp)
    84bc:	48 8d 85 18 f7 ff ff 	lea    -0x8e8(%rbp),%rax
    84c3:	48 89 85 d0 fe ff ff 	mov    %rax,-0x130(%rbp)
    84ca:	48 c7 85 d8 fe ff ff 	movq   $0x0,-0x128(%rbp)
    84d1:	00 00 00 00 
    84d5:	48 8d 85 18 f7 ff ff 	lea    -0x8e8(%rbp),%rax
    84dc:	48 89 85 e0 fe ff ff 	mov    %rax,-0x120(%rbp)
    84e3:	48 8d 85 18 f7 ff ff 	lea    -0x8e8(%rbp),%rax
    84ea:	48 89 85 e8 fe ff ff 	mov    %rax,-0x118(%rbp)
    84f1:	48 c7 85 f0 fe ff ff 	movq   $0x0,-0x110(%rbp)
    84f8:	00 00 00 00 
    84fc:	48 8d 85 18 f7 ff ff 	lea    -0x8e8(%rbp),%rax
    8503:	48 89 85 f8 fe ff ff 	mov    %rax,-0x108(%rbp)
    850a:	48 c7 85 00 ff ff ff 	movq   $0x0,-0x100(%rbp)
    8511:	00 00 00 00 
    8515:	48 8d 85 18 f7 ff ff 	lea    -0x8e8(%rbp),%rax
    851c:	48 89 85 08 ff ff ff 	mov    %rax,-0xf8(%rbp)
    8523:	48 8d 85 18 f7 ff ff 	lea    -0x8e8(%rbp),%rax
    852a:	48 89 85 10 ff ff ff 	mov    %rax,-0xf0(%rbp)
    8531:	48 c7 85 18 ff ff ff 	movq   $0x0,-0xe8(%rbp)
    8538:	00 00 00 00 
    853c:	48 8d 85 18 f7 ff ff 	lea    -0x8e8(%rbp),%rax
    8543:	48 89 85 20 ff ff ff 	mov    %rax,-0xe0(%rbp)
    854a:	48 8d 85 18 f7 ff ff 	lea    -0x8e8(%rbp),%rax
    8551:	48 89 85 28 ff ff ff 	mov    %rax,-0xd8(%rbp)
    8558:	48 c7 85 30 ff ff ff 	movq   $0x0,-0xd0(%rbp)
    855f:	00 00 00 00 
    8563:	48 c7 85 38 ff ff ff 	movq   $0x0,-0xc8(%rbp)
    856a:	00 00 00 00 
    856e:	48 8d 85 18 f7 ff ff 	lea    -0x8e8(%rbp),%rax
    8575:	48 89 85 40 ff ff ff 	mov    %rax,-0xc0(%rbp)
    857c:	48 c7 85 48 ff ff ff 	movq   $0x0,-0xb8(%rbp)
    8583:	00 00 00 00 
    8587:	48 c7 85 50 ff ff ff 	movq   $0x0,-0xb0(%rbp)
    858e:	00 00 00 00 
    8592:	48 8d 85 18 f7 ff ff 	lea    -0x8e8(%rbp),%rax
    8599:	48 89 85 58 ff ff ff 	mov    %rax,-0xa8(%rbp)
    85a0:	48 c7 85 60 ff ff ff 	movq   $0x0,-0xa0(%rbp)
    85a7:	00 00 00 00 
    85ab:	48 c7 85 68 ff ff ff 	movq   $0x0,-0x98(%rbp)
    85b2:	00 00 00 00 
    85b6:	48 8d 85 18 f7 ff ff 	lea    -0x8e8(%rbp),%rax
    85bd:	48 89 85 70 ff ff ff 	mov    %rax,-0x90(%rbp)
    85c4:	48 8d 85 18 f7 ff ff 	lea    -0x8e8(%rbp),%rax
    85cb:	48 89 85 78 ff ff ff 	mov    %rax,-0x88(%rbp)
    85d2:	48 c7 45 80 00 00 00 	movq   $0x0,-0x80(%rbp)
    85d9:	00 
    85da:	48 8d 85 18 f7 ff ff 	lea    -0x8e8(%rbp),%rax
    85e1:	48 89 45 88          	mov    %rax,-0x78(%rbp)
    85e5:	48 8d 85 18 f7 ff ff 	lea    -0x8e8(%rbp),%rax
    85ec:	48 89 45 90          	mov    %rax,-0x70(%rbp)
    85f0:	48 c7 45 98 00 00 00 	movq   $0x0,-0x68(%rbp)
    85f7:	00 
    85f8:	48 8d 85 18 f7 ff ff 	lea    -0x8e8(%rbp),%rax
    85ff:	48 89 45 a0          	mov    %rax,-0x60(%rbp)
    8603:	48 c7 45 a8 00 00 00 	movq   $0x0,-0x58(%rbp)
    860a:	00 
    860b:	48 8d 85 18 f7 ff ff 	lea    -0x8e8(%rbp),%rax
    8612:	48 89 45 b0          	mov    %rax,-0x50(%rbp)
    8616:	48 8d 85 18 f7 ff ff 	lea    -0x8e8(%rbp),%rax
    861d:	48 89 45 b8          	mov    %rax,-0x48(%rbp)
    8621:	48 c7 45 c0 00 00 00 	movq   $0x0,-0x40(%rbp)
    8628:	00 
    8629:	48 8d 85 18 f7 ff ff 	lea    -0x8e8(%rbp),%rax
    8630:	48 89 45 c8          	mov    %rax,-0x38(%rbp)
    8634:	48 8d 85 18 f7 ff ff 	lea    -0x8e8(%rbp),%rax
    863b:	48 89 45 d0          	mov    %rax,-0x30(%rbp)
    863f:	c7 85 f8 f6 ff ff ff 	movl   $0xffffffff,-0x908(%rbp)
    8646:	ff ff ff 
    8649:	c7 05 49 e2 00 00 00 	movl   $0x0,0xe249(%rip)        # 1689c <g_2742>
    8650:	00 00 00 
    8653:	eb 49                	jmp    869e <func_9+0xe88>
    8655:	c7 85 fc f6 ff ff f9 	movl   $0xfffffff9,-0x904(%rbp)
    865c:	ff ff ff 
    865f:	48 8d 85 30 f8 ff ff 	lea    -0x7d0(%rbp),%rax
    8666:	48 05 90 03 00 00    	add    $0x390,%rax
    866c:	48 89 85 b8 f7 ff ff 	mov    %rax,-0x848(%rbp)
    8673:	48 8d 05 06 8a 00 00 	lea    0x8a06(%rip),%rax        # 11080 <g_84>
    867a:	48 89 85 c0 f7 ff ff 	mov    %rax,-0x840(%rbp)
    8681:	48 8d 05 38 f3 00 00 	lea    0xf338(%rip),%rax        # 179c0 <g_903>
    8688:	48 89 85 c8 f7 ff ff 	mov    %rax,-0x838(%rbp)
    868f:	8b 05 07 e2 00 00    	mov    0xe207(%rip),%eax        # 1689c <g_2742>
    8695:	83 c0 01             	add    $0x1,%eax
    8698:	89 05 fe e1 00 00    	mov    %eax,0xe1fe(%rip)        # 1689c <g_2742>
    869e:	8b 05 f8 e1 00 00    	mov    0xe1f8(%rip),%eax        # 1689c <g_2742>
    86a4:	83 f8 0d             	cmp    $0xd,%eax
    86a7:	74 ac                	je     8655 <func_9+0xe3f>
    86a9:	c7 05 5d e7 00 00 ef 	movl   $0xffffffef,0xe75d(%rip)        # 16e10 <g_2880>
    86b0:	ff ff ff 
    86b3:	e9 21 02 00 00       	jmpq   88d9 <func_9+0x10c3>
    86b8:	48 8d 05 19 00 01 00 	lea    0x10019(%rip),%rax        # 186d8 <g_3466>
    86bf:	48 89 85 b0 f7 ff ff 	mov    %rax,-0x850(%rbp)
    86c6:	c7 85 e0 f6 ff ff 00 	movl   $0x0,-0x920(%rbp)
    86cd:	00 00 00 
    86d0:	eb 1a                	jmp    86ec <func_9+0xed6>
    86d2:	8b 85 e0 f6 ff ff    	mov    -0x920(%rbp),%eax
    86d8:	48 98                	cltq   
    86da:	c7 84 85 d0 f7 ff ff 	movl   $0x9,-0x830(%rbp,%rax,4)
    86e1:	09 00 00 00 
    86e5:	83 85 e0 f6 ff ff 01 	addl   $0x1,-0x920(%rbp)
    86ec:	83 bd e0 f6 ff ff 08 	cmpl   $0x8,-0x920(%rbp)
    86f3:	7e dd                	jle    86d2 <func_9+0xebc>
    86f5:	48 8b 05 d4 ff 00 00 	mov    0xffd4(%rip),%rax        # 186d0 <g_3467>
    86fc:	0f b7 00             	movzwl (%rax),%eax
    86ff:	0f bf d8             	movswl %ax,%ebx
    8702:	48 8b 05 57 f2 00 00 	mov    0xf257(%rip),%rax        # 17960 <g_81>
    8709:	48 8b 00             	mov    (%rax),%rax
    870c:	8b 85 d8 f7 ff ff    	mov    -0x828(%rbp),%eax
    8712:	41 89 c4             	mov    %eax,%r12d
    8715:	8b 85 d4 f6 ff ff    	mov    -0x92c(%rbp),%eax
    871b:	98                   	cwtl   
    871c:	89 c6                	mov    %eax,%esi
    871e:	bf dd 16 00 00       	mov    $0x16dd,%edi
    8723:	e8 cd cc ff ff       	callq  53f5 <safe_mul_func_int16_t_s_s>
    8728:	0f b6 c0             	movzbl %al,%eax
    872b:	44 89 e6             	mov    %r12d,%esi
    872e:	89 c7                	mov    %eax,%edi
    8730:	e8 17 d5 ff ff       	callq  5c4c <safe_lshift_func_uint8_t_u_u>
    8735:	0f b6 d0             	movzbl %al,%edx
    8738:	48 8b 05 49 f4 00 00 	mov    0xf449(%rip),%rax        # 17b88 <g_1095>
    873f:	48 8b 00             	mov    (%rax),%rax
    8742:	48 8b 00             	mov    (%rax),%rax
    8745:	8b 00                	mov    (%rax),%eax
    8747:	39 c2                	cmp    %eax,%edx
    8749:	0f 9e c0             	setle  %al
    874c:	44 0f b6 e0          	movzbl %al,%r12d
    8750:	8b 05 f6 de 00 00    	mov    0xdef6(%rip),%eax        # 1664c <g_726>
    8756:	98                   	cwtl   
    8757:	89 c6                	mov    %eax,%esi
    8759:	bf 07 00 00 00       	mov    $0x7,%edi
    875e:	e8 50 cc ff ff       	callq  53b3 <safe_add_func_int16_t_s_s>
    8763:	89 c1                	mov    %eax,%ecx
    8765:	48 8b 15 6c ff 00 00 	mov    0xff6c(%rip),%rdx        # 186d8 <g_3466>
    876c:	48 8b 85 b0 f7 ff ff 	mov    -0x850(%rbp),%rax
    8773:	48 89 10             	mov    %rdx,(%rax)
    8776:	48 8b 85 b0 f7 ff ff 	mov    -0x850(%rbp),%rax
    877d:	48 8b 00             	mov    (%rax),%rax
    8780:	48 39 85 30 f7 ff ff 	cmp    %rax,-0x8d0(%rbp)
    8787:	0f 94 c0             	sete   %al
    878a:	09 c8                	or     %ecx,%eax
    878c:	0f be d0             	movsbl %al,%edx
    878f:	8b 0d cf de 00 00    	mov    0xdecf(%rip),%ecx        # 16664 <g_996>
    8795:	8b 05 c9 de 00 00    	mov    0xdec9(%rip),%eax        # 16664 <g_996>
    879b:	48 98                	cltq   
    879d:	48 63 c9             	movslq %ecx,%rcx
    87a0:	48 c1 e1 02          	shl    $0x2,%rcx
    87a4:	48 01 c8             	add    %rcx,%rax
    87a7:	48 8d 0c 85 00 00 00 	lea    0x0(,%rax,4),%rcx
    87ae:	00 
    87af:	48 8d 05 7a dc 00 00 	lea    0xdc7a(%rip),%rax        # 16430 <g_547>
    87b6:	8b 04 01             	mov    (%rcx,%rax,1),%eax
    87b9:	0f be c0             	movsbl %al,%eax
    87bc:	89 d6                	mov    %edx,%esi
    87be:	89 c7                	mov    %eax,%edi
    87c0:	e8 0f ca ff ff       	callq  51d4 <safe_add_func_int8_t_s_s>
    87c5:	0f be c0             	movsbl %al,%eax
    87c8:	44 89 e6             	mov    %r12d,%esi
    87cb:	89 c7                	mov    %eax,%edi
    87cd:	e8 58 cd ff ff       	callq  552a <safe_rshift_func_int16_t_s_s>
    87d2:	8b 15 8c de 00 00    	mov    0xde8c(%rip),%edx        # 16664 <g_996>
    87d8:	8b 05 86 de 00 00    	mov    0xde86(%rip),%eax        # 16664 <g_996>
    87de:	48 98                	cltq   
    87e0:	48 63 d2             	movslq %edx,%rdx
    87e3:	48 c1 e2 02          	shl    $0x2,%rdx
    87e7:	48 01 d0             	add    %rdx,%rax
    87ea:	48 8d 14 85 00 00 00 	lea    0x0(,%rax,4),%rdx
    87f1:	00 
    87f2:	48 8d 05 37 dc 00 00 	lea    0xdc37(%rip),%rax        # 16430 <g_547>
    87f9:	8b 04 02             	mov    (%rdx,%rax,1),%eax
    87fc:	85 c0                	test   %eax,%eax
    87fe:	48 8b 05 03 fd 00 00 	mov    0xfd03(%rip),%rax        # 18508 <g_3120>
    8805:	0f b6 00             	movzbl (%rax),%eax
    8808:	84 c0                	test   %al,%al
    880a:	75 11                	jne    881d <func_9+0x1007>
    880c:	48 8b 15 2d f6 00 00 	mov    0xf62d(%rip),%rdx        # 17e40 <g_1823>
    8813:	0f b6 02             	movzbl (%rdx),%eax
    8816:	8d 48 ff             	lea    -0x1(%rax),%ecx
    8819:	88 0a                	mov    %cl,(%rdx)
    881b:	84 c0                	test   %al,%al
    881d:	48 be 46 ae 8e e3 ef 	movabs $0xd99becefe38eae46,%rsi
    8824:	ec 9b d9 
    8827:	bf 00 00 00 00       	mov    $0x0,%edi
    882c:	e8 1a d8 ff ff       	callq  604b <safe_sub_func_uint64_t_u_u>
    8831:	be 0a 00 00 00       	mov    $0xa,%esi
    8836:	bf 09 00 00 00       	mov    $0x9,%edi
    883b:	e8 a1 cc ff ff       	callq  54e1 <safe_lshift_func_int16_t_s_u>
    8840:	98                   	cwtl   
    8841:	89 de                	mov    %ebx,%esi
    8843:	89 c7                	mov    %eax,%edi
    8845:	e8 e0 cc ff ff       	callq  552a <safe_rshift_func_int16_t_s_s>
    884a:	8b 15 14 de 00 00    	mov    0xde14(%rip),%edx        # 16664 <g_996>
    8850:	8b 05 0e de 00 00    	mov    0xde0e(%rip),%eax        # 16664 <g_996>
    8856:	48 98                	cltq   
    8858:	48 63 d2             	movslq %edx,%rdx
    885b:	48 c1 e2 02          	shl    $0x2,%rdx
    885f:	48 01 d0             	add    %rdx,%rax
    8862:	48 8d 14 85 00 00 00 	lea    0x0(,%rax,4),%rdx
    8869:	00 
    886a:	48 8d 05 bf db 00 00 	lea    0xdbbf(%rip),%rax        # 16430 <g_547>
    8871:	8b 04 02             	mov    (%rdx,%rax,1),%eax
    8874:	83 f8 01             	cmp    $0x1,%eax
    8877:	74 07                	je     8880 <func_9+0x106a>
    8879:	b8 01 00 00 00       	mov    $0x1,%eax
    887e:	eb 05                	jmp    8885 <func_9+0x106f>
    8880:	b8 00 00 00 00       	mov    $0x0,%eax
    8885:	89 c7                	mov    %eax,%edi
    8887:	e8 1a d6 ff ff       	callq  5ea6 <safe_unary_minus_func_uint32_t_u>
    888c:	48 8b 95 c0 f6 ff ff 	mov    -0x940(%rbp),%rdx
    8893:	8b 12                	mov    (%rdx),%edx
    8895:	09 d0                	or     %edx,%eax
    8897:	89 c2                	mov    %eax,%edx
    8899:	48 8b 85 c0 f6 ff ff 	mov    -0x940(%rbp),%rax
    88a0:	89 10                	mov    %edx,(%rax)
    88a2:	48 8b 15 87 fc 00 00 	mov    0xfc87(%rip),%rdx        # 18530 <g_3192>
    88a9:	48 8b 05 30 fe 00 00 	mov    0xfe30(%rip),%rax        # 186e0 <g_3474>
    88b0:	48 8b 12             	mov    (%rdx),%rdx
    88b3:	48 89 10             	mov    %rdx,(%rax)
    88b6:	48 8b 85 60 f7 ff ff 	mov    -0x8a0(%rbp),%rax
    88bd:	48 8b 00             	mov    (%rax),%rax
    88c0:	48 8b 00             	mov    (%rax),%rax
    88c3:	48 8b 00             	mov    (%rax),%rax
    88c6:	8b 00                	mov    (%rax),%eax
    88c8:	85 c0                	test   %eax,%eax
    88ca:	8b 05 40 e5 00 00    	mov    0xe540(%rip),%eax        # 16e10 <g_2880>
    88d0:	83 e8 01             	sub    $0x1,%eax
    88d3:	89 05 37 e5 00 00    	mov    %eax,0xe537(%rip)        # 16e10 <g_2880>
    88d9:	8b 05 31 e5 00 00    	mov    0xe531(%rip),%eax        # 16e10 <g_2880>
    88df:	83 f8 e8             	cmp    $0xffffffe8,%eax
    88e2:	0f 8d d0 fd ff ff    	jge    86b8 <func_9+0xea2>
    88e8:	e9 6f 02 00 00       	jmpq   8b5c <func_9+0x1346>
    88ed:	48 8d 05 84 e5 00 00 	lea    0xe584(%rip),%rax        # 16e78 <g_3495+0x8>
    88f4:	48 89 85 a0 f7 ff ff 	mov    %rax,-0x860(%rbp)
    88fb:	c7 85 d8 f6 ff ff 00 	movl   $0x0,-0x928(%rbp)
    8902:	00 00 00 
    8905:	c7 85 ec f6 ff ff 01 	movl   $0x1,-0x914(%rbp)
    890c:	00 00 00 
    890f:	c7 05 0b dd 00 00 00 	movl   $0x0,0xdd0b(%rip)        # 16624 <g_718>
    8916:	00 00 00 
    8919:	e9 2f 02 00 00       	jmpq   8b4d <func_9+0x1337>
    891e:	c6 85 d1 f6 ff ff 88 	movb   $0x88,-0x92f(%rbp)
    8925:	48 c7 85 a8 f7 ff ff 	movq   $0x0,-0x858(%rbp)
    892c:	00 00 00 00 
    8930:	c7 85 f0 f6 ff ff 41 	movl   $0xaac3f841,-0x910(%rbp)
    8937:	f8 c3 aa 
    893a:	66 c7 85 d2 f6 ff ff 	movw   $0xffff,-0x92e(%rbp)
    8941:	ff ff 
    8943:	48 8b 85 c8 f6 ff ff 	mov    -0x938(%rbp),%rax
    894a:	48 89 85 98 f7 ff ff 	mov    %rax,-0x868(%rbp)
    8951:	48 8b 85 98 f7 ff ff 	mov    -0x868(%rbp),%rax
    8958:	48 3b 85 c0 f6 ff ff 	cmp    -0x940(%rbp),%rax
    895f:	75 7e                	jne    89df <func_9+0x11c9>
    8961:	8b 85 d4 f6 ff ff    	mov    -0x92c(%rbp),%eax
    8967:	0f b6 d8             	movzbl %al,%ebx
    896a:	48 8d 05 be dd 00 00 	lea    0xddbe(%rip),%rax        # 1672f <g_1137+0xf>
    8971:	0f b6 00             	movzbl (%rax),%eax
    8974:	0f b6 d0             	movzbl %al,%edx
    8977:	8b 85 e4 f6 ff ff    	mov    -0x91c(%rbp),%eax
    897d:	0f b6 c0             	movzbl %al,%eax
    8980:	89 d6                	mov    %edx,%esi
    8982:	89 c7                	mov    %eax,%edi
    8984:	e8 ef d1 ff ff       	callq  5b78 <safe_sub_func_uint8_t_u_u>
    8989:	84 c0                	test   %al,%al
    898b:	74 10                	je     899d <func_9+0x1187>
    898d:	83 bd e4 f6 ff ff 00 	cmpl   $0x0,-0x91c(%rbp)
    8994:	74 07                	je     899d <func_9+0x1187>
    8996:	b8 01 00 00 00       	mov    $0x1,%eax
    899b:	eb 05                	jmp    89a2 <func_9+0x118c>
    899d:	b8 00 00 00 00       	mov    $0x0,%eax
    89a2:	be 25 b5 9c 7a       	mov    $0x7a9cb525,%esi
    89a7:	89 c7                	mov    %eax,%edi
    89a9:	e8 4f d5 ff ff       	callq  5efd <safe_mod_func_uint32_t_u_u>
    89ae:	0f be d0             	movsbl %al,%edx
    89b1:	48 83 bd 68 f7 ff ff 	cmpq   $0x0,-0x898(%rbp)
    89b8:	00 
    89b9:	0f 95 c0             	setne  %al
    89bc:	0f b6 c0             	movzbl %al,%eax
    89bf:	89 d6                	mov    %edx,%esi
    89c1:	89 c7                	mov    %eax,%edi
    89c3:	e8 69 c8 ff ff       	callq  5231 <safe_mod_func_int8_t_s_s>
    89c8:	0f b6 c0             	movzbl %al,%eax
    89cb:	89 de                	mov    %ebx,%esi
    89cd:	89 c7                	mov    %eax,%edi
    89cf:	e8 a4 d1 ff ff       	callq  5b78 <safe_sub_func_uint8_t_u_u>
    89d4:	8b 85 d4 f6 ff ff    	mov    -0x92c(%rbp),%eax
    89da:	83 f8 01             	cmp    $0x1,%eax
    89dd:	76 07                	jbe    89e6 <func_9+0x11d0>
    89df:	b8 01 00 00 00       	mov    $0x1,%eax
    89e4:	eb 05                	jmp    89eb <func_9+0x11d5>
    89e6:	b8 00 00 00 00       	mov    $0x0,%eax
    89eb:	0f b6 d0             	movzbl %al,%edx
    89ee:	0f b6 85 d1 f6 ff ff 	movzbl -0x92f(%rbp),%eax
    89f5:	0f b6 c0             	movzbl %al,%eax
    89f8:	89 d6                	mov    %edx,%esi
    89fa:	89 c7                	mov    %eax,%edi
    89fc:	e8 59 d1 ff ff       	callq  5b5a <safe_add_func_uint8_t_u_u>
    8a01:	0f b6 d0             	movzbl %al,%edx
    8a04:	48 8b 05 bd fa 00 00 	mov    0xfabd(%rip),%rax        # 184c8 <g_2680>
    8a0b:	48 8b 08             	mov    (%rax),%rcx
    8a0e:	48 8b 05 b3 fa 00 00 	mov    0xfab3(%rip),%rax        # 184c8 <g_2680>
    8a15:	48 8b 00             	mov    (%rax),%rax
    8a18:	48 8b 09             	mov    (%rcx),%rcx
    8a1b:	48 89 08             	mov    %rcx,(%rax)
    8a1e:	48 8b 00             	mov    (%rax),%rax
    8a21:	48 39 85 28 f7 ff ff 	cmp    %rax,-0x8d8(%rbp)
    8a28:	0f 94 c0             	sete   %al
    8a2b:	0f b6 c0             	movzbl %al,%eax
    8a2e:	48 89 d6             	mov    %rdx,%rsi
    8a31:	48 89 c7             	mov    %rax,%rdi
    8a34:	e8 6f ce ff ff       	callq  58a8 <safe_sub_func_int64_t_s_s>
    8a39:	48 89 c2             	mov    %rax,%rdx
    8a3c:	48 8b 05 45 f1 00 00 	mov    0xf145(%rip),%rax        # 17b88 <g_1095>
    8a43:	48 8b 00             	mov    (%rax),%rax
    8a46:	48 8b 00             	mov    (%rax),%rax
    8a49:	89 10                	mov    %edx,(%rax)
    8a4b:	48 8b 85 38 f7 ff ff 	mov    -0x8c8(%rbp),%rax
    8a52:	48 89 85 a0 f7 ff ff 	mov    %rax,-0x860(%rbp)
    8a59:	48 8b 85 60 f7 ff ff 	mov    -0x8a0(%rbp),%rax
    8a60:	48 8b 00             	mov    (%rax),%rax
    8a63:	48 8b 00             	mov    (%rax),%rax
    8a66:	48 8b 00             	mov    (%rax),%rax
    8a69:	8b 00                	mov    (%rax),%eax
    8a6b:	89 c2                	mov    %eax,%edx
    8a6d:	8b 85 d4 f6 ff ff    	mov    -0x92c(%rbp),%eax
    8a73:	39 c2                	cmp    %eax,%edx
    8a75:	0f 95 c0             	setne  %al
    8a78:	0f b6 c0             	movzbl %al,%eax
    8a7b:	8b 95 e4 f6 ff ff    	mov    -0x91c(%rbp),%edx
    8a81:	89 d6                	mov    %edx,%esi
    8a83:	89 c7                	mov    %eax,%edi
    8a85:	e8 42 cc ff ff       	callq  56cc <safe_mod_func_int32_t_s_s>
    8a8a:	48 0f bf 9d d2 f6 ff 	movswq -0x92e(%rbp),%rbx
    8a91:	ff 
    8a92:	4c 0f be a5 d0 f6 ff 	movsbq -0x930(%rbp),%r12
    8a99:	ff 
    8a9a:	c7 85 f0 f6 ff ff 43 	movl   $0x43,-0x910(%rbp)
    8aa1:	00 00 00 
    8aa4:	be 01 00 00 00       	mov    $0x1,%esi
    8aa9:	bf 25 00 00 00       	mov    $0x25,%edi
    8aae:	e8 da d1 ff ff       	callq  5c8d <safe_rshift_func_uint8_t_u_s>
    8ab3:	84 c0                	test   %al,%al
    8ab5:	75 10                	jne    8ac7 <func_9+0x12b1>
    8ab7:	83 bd e4 f6 ff ff 00 	cmpl   $0x0,-0x91c(%rbp)
    8abe:	75 07                	jne    8ac7 <func_9+0x12b1>
    8ac0:	b8 01 00 00 00       	mov    $0x1,%eax
    8ac5:	eb 05                	jmp    8acc <func_9+0x12b6>
    8ac7:	b8 00 00 00 00       	mov    $0x0,%eax
    8acc:	48 98                	cltq   
    8ace:	4c 89 e6             	mov    %r12,%rsi
    8ad1:	48 89 c7             	mov    %rax,%rdi
    8ad4:	e8 72 d5 ff ff       	callq  604b <safe_sub_func_uint64_t_u_u>
    8ad9:	48 be 32 a7 6d b8 56 	movabs $0x422c1256b86da732,%rsi
    8ae0:	12 2c 42 
    8ae3:	48 89 c7             	mov    %rax,%rdi
    8ae6:	e8 60 d5 ff ff       	callq  604b <safe_sub_func_uint64_t_u_u>
    8aeb:	0f be c0             	movsbl %al,%eax
    8aee:	be f3 ff ff ff       	mov    $0xfffffff3,%esi
    8af3:	89 c7                	mov    %eax,%edi
    8af5:	e8 f8 c6 ff ff       	callq  51f2 <safe_sub_func_int8_t_s_s>
    8afa:	48 0f be c0          	movsbq %al,%rax
    8afe:	48 89 de             	mov    %rbx,%rsi
    8b01:	48 89 c7             	mov    %rax,%rdi
    8b04:	e8 42 d5 ff ff       	callq  604b <safe_sub_func_uint64_t_u_u>
    8b09:	8b 05 3d db 00 00    	mov    0xdb3d(%rip),%eax        # 1664c <g_726>
    8b0f:	48 8b 05 72 ee 00 00 	mov    0xee72(%rip),%rax        # 17988 <g_164>
    8b16:	48 8b 00             	mov    (%rax),%rax
    8b19:	8b 95 e4 f6 ff ff    	mov    -0x91c(%rbp),%edx
    8b1f:	48 63 d2             	movslq %edx,%rdx
    8b22:	48 89 10             	mov    %rdx,(%rax)
    8b25:	ba 01 00 00 00       	mov    $0x1,%edx
    8b2a:	48 8b 85 c0 f6 ff ff 	mov    -0x940(%rbp),%rax
    8b31:	8b 00                	mov    (%rax),%eax
    8b33:	09 c2                	or     %eax,%edx
    8b35:	48 8b 85 c0 f6 ff ff 	mov    -0x940(%rbp),%rax
    8b3c:	89 10                	mov    %edx,(%rax)
    8b3e:	8b 05 e0 da 00 00    	mov    0xdae0(%rip),%eax        # 16624 <g_718>
    8b44:	83 e8 01             	sub    $0x1,%eax
    8b47:	89 05 d7 da 00 00    	mov    %eax,0xdad7(%rip)        # 16624 <g_718>
    8b4d:	8b 05 d1 da 00 00    	mov    0xdad1(%rip),%eax        # 16624 <g_718>
    8b53:	83 f8 fd             	cmp    $0xfffffffd,%eax
    8b56:	0f 8d c2 fd ff ff    	jge    891e <func_9+0x1108>
    8b5c:	8b 05 02 db 00 00    	mov    0xdb02(%rip),%eax        # 16664 <g_996>
    8b62:	83 c0 01             	add    $0x1,%eax
    8b65:	89 05 f9 da 00 00    	mov    %eax,0xdaf9(%rip)        # 16664 <g_996>
    8b6b:	8b 05 f3 da 00 00    	mov    0xdaf3(%rip),%eax        # 16664 <g_996>
    8b71:	85 c0                	test   %eax,%eax
    8b73:	0f 8e 3f ee ff ff    	jle    79b8 <func_9+0x1a2>
    8b79:	eb 01                	jmp    8b7c <func_9+0x1366>
    8b7b:	90                   	nop
    8b7c:	48 8b 05 05 f0 00 00 	mov    0xf005(%rip),%rax        # 17b88 <g_1095>
    8b83:	48 8b 00             	mov    (%rax),%rax
    8b86:	48 8b 00             	mov    (%rax),%rax
    8b89:	c7 00 5f a5 ad 99    	movl   $0x99ada55f,(%rax)
    8b8f:	83 bd e4 f6 ff ff 00 	cmpl   $0x0,-0x91c(%rbp)
    8b96:	0f 85 87 01 00 00    	jne    8d23 <func_9+0x150d>
    8b9c:	8b 85 d4 f6 ff ff    	mov    -0x92c(%rbp),%eax
    8ba2:	0f b7 d8             	movzwl %ax,%ebx
    8ba5:	8b 85 d4 f6 ff ff    	mov    -0x92c(%rbp),%eax
    8bab:	44 0f b7 e0          	movzwl %ax,%r12d
    8baf:	48 8b 85 60 f7 ff ff 	mov    -0x8a0(%rbp),%rax
    8bb6:	48 8b 00             	mov    (%rax),%rax
    8bb9:	48 8b 00             	mov    (%rax),%rax
    8bbc:	48 8b 00             	mov    (%rax),%rax
    8bbf:	8b 00                	mov    (%rax),%eax
    8bc1:	44 0f be e8          	movsbl %al,%r13d
    8bc5:	48 8b 85 60 f7 ff ff 	mov    -0x8a0(%rbp),%rax
    8bcc:	48 8b 00             	mov    (%rax),%rax
    8bcf:	48 8b 00             	mov    (%rax),%rax
    8bd2:	48 8b 00             	mov    (%rax),%rax
    8bd5:	44 8b 30             	mov    (%rax),%r14d
    8bd8:	48 8b 05 d1 f2 00 00 	mov    0xf2d1(%rip),%rax        # 17eb0 <g_1909>
    8bdf:	48 8b 00             	mov    (%rax),%rax
    8be2:	48 8b 00             	mov    (%rax),%rax
    8be5:	48 8b 00             	mov    (%rax),%rax
    8be8:	8b 00                	mov    (%rax),%eax
    8bea:	be 03 00 00 00       	mov    $0x3,%esi
    8bef:	bf 01 00 00 00       	mov    $0x1,%edi
    8bf4:	e8 c5 d1 ff ff       	callq  5dbe <safe_lshift_func_uint16_t_u_s>
    8bf9:	0f b7 c0             	movzwl %ax,%eax
    8bfc:	48 89 c6             	mov    %rax,%rsi
    8bff:	bf 00 00 00 00       	mov    $0x0,%edi
    8c04:	e8 77 d4 ff ff       	callq  6080 <safe_mod_func_uint64_t_u_u>
    8c09:	48 8b 15 b0 ed 00 00 	mov    0xedb0(%rip),%rdx        # 179c0 <g_903>
    8c10:	8b 12                	mov    (%rdx),%edx
    8c12:	48 63 d2             	movslq %edx,%rdx
    8c15:	48 39 d0             	cmp    %rdx,%rax
    8c18:	0f 92 c0             	setb   %al
    8c1b:	0f b6 c0             	movzbl %al,%eax
    8c1e:	44 89 f6             	mov    %r14d,%esi
    8c21:	89 c7                	mov    %eax,%edi
    8c23:	e8 a4 ca ff ff       	callq  56cc <safe_mod_func_int32_t_s_s>
    8c28:	0f be c0             	movsbl %al,%eax
    8c2b:	44 89 ee             	mov    %r13d,%esi
    8c2e:	89 c7                	mov    %eax,%edi
    8c30:	e8 9f c5 ff ff       	callq  51d4 <safe_add_func_int8_t_s_s>
    8c35:	0f be d0             	movsbl %al,%edx
    8c38:	8b 85 d4 f6 ff ff    	mov    -0x92c(%rbp),%eax
    8c3e:	39 c2                	cmp    %eax,%edx
    8c40:	77 11                	ja     8c53 <func_9+0x143d>
    8c42:	8b 85 d4 f6 ff ff    	mov    -0x92c(%rbp),%eax
    8c48:	85 c0                	test   %eax,%eax
    8c4a:	74 07                	je     8c53 <func_9+0x143d>
    8c4c:	ba 01 00 00 00       	mov    $0x1,%edx
    8c51:	eb 05                	jmp    8c58 <func_9+0x1442>
    8c53:	ba 00 00 00 00       	mov    $0x0,%edx
    8c58:	48 8b 05 e1 f1 00 00 	mov    0xf1e1(%rip),%rax        # 17e40 <g_1823>
    8c5f:	88 10                	mov    %dl,(%rax)
    8c61:	48 8b 95 08 f7 ff ff 	mov    -0x8f8(%rbp),%rdx
    8c68:	0f b6 00             	movzbl (%rax),%eax
    8c6b:	88 02                	mov    %al,(%rdx)
    8c6d:	48 8b 95 00 f7 ff ff 	mov    -0x900(%rbp),%rdx
    8c74:	48 8b 85 70 f7 ff ff 	mov    -0x890(%rbp),%rax
    8c7b:	48 89 10             	mov    %rdx,(%rax)
    8c7e:	48 8b 85 70 f7 ff ff 	mov    -0x890(%rbp),%rax
    8c85:	48 8b 10             	mov    (%rax),%rdx
    8c88:	48 8b 85 78 f7 ff ff 	mov    -0x888(%rbp),%rax
    8c8f:	48 89 10             	mov    %rdx,(%rax)
    8c92:	48 8b 85 78 f7 ff ff 	mov    -0x888(%rbp),%rax
    8c99:	48 8b 00             	mov    (%rax),%rax
    8c9c:	48 39 85 88 f7 ff ff 	cmp    %rax,-0x878(%rbp)
    8ca3:	0f 95 c0             	setne  %al
    8ca6:	0f b6 c0             	movzbl %al,%eax
    8ca9:	44 89 e6             	mov    %r12d,%esi
    8cac:	89 c7                	mov    %eax,%edi
    8cae:	e8 a9 d0 ff ff       	callq  5d5c <safe_mod_func_uint16_t_u_u>
    8cb3:	0f b7 c0             	movzwl %ax,%eax
    8cb6:	89 de                	mov    %ebx,%esi
    8cb8:	89 c7                	mov    %eax,%edi
    8cba:	e8 40 d0 ff ff       	callq  5cff <safe_add_func_uint16_t_u_u>
    8cbf:	89 c2                	mov    %eax,%edx
    8cc1:	48 8b 05 f8 ec 00 00 	mov    0xecf8(%rip),%rax        # 179c0 <g_903>
    8cc8:	0f b7 d2             	movzwl %dx,%edx
    8ccb:	89 10                	mov    %edx,(%rax)
    8ccd:	eb 54                	jmp    8d23 <func_9+0x150d>
    8ccf:	48 8d 05 ea f7 00 00 	lea    0xf7ea(%rip),%rax        # 184c0 <g_2681>
    8cd6:	48 89 85 58 f7 ff ff 	mov    %rax,-0x8a8(%rbp)
    8cdd:	80 bd d0 f6 ff ff 00 	cmpb   $0x0,-0x930(%rbp)
    8ce4:	75 5d                	jne    8d43 <func_9+0x152d>
    8ce6:	8b 85 e8 f6 ff ff    	mov    -0x918(%rbp),%eax
    8cec:	0f be c0             	movsbl %al,%eax
    8cef:	be 04 00 00 00       	mov    $0x4,%esi
    8cf4:	89 c7                	mov    %eax,%edi
    8cf6:	e8 71 c6 ff ff       	callq  536c <safe_rshift_func_int8_t_s_u>
    8cfb:	48 8b 15 be ec 00 00 	mov    0xecbe(%rip),%rdx        # 179c0 <g_903>
    8d02:	8b 0a                	mov    (%rdx),%ecx
    8d04:	0f be d0             	movsbl %al,%edx
    8d07:	48 8b 05 b2 ec 00 00 	mov    0xecb2(%rip),%rax        # 179c0 <g_903>
    8d0e:	21 ca                	and    %ecx,%edx
    8d10:	89 10                	mov    %edx,(%rax)
    8d12:	48 8b 85 58 f7 ff ff 	mov    -0x8a8(%rbp),%rax
    8d19:	48 8b 95 48 f7 ff ff 	mov    -0x8b8(%rbp),%rdx
    8d20:	48 89 10             	mov    %rdx,(%rax)
    8d23:	8b 05 2f da 00 00    	mov    0xda2f(%rip),%eax        # 16758 <g_1403>
    8d29:	83 c0 01             	add    $0x1,%eax
    8d2c:	89 05 26 da 00 00    	mov    %eax,0xda26(%rip)        # 16758 <g_1403>
    8d32:	8b 05 20 da 00 00    	mov    0xda20(%rip),%eax        # 16758 <g_1403>
    8d38:	83 f8 07             	cmp    $0x7,%eax
    8d3b:	0f 84 a9 eb ff ff    	je     78ea <func_9+0xd4>
    8d41:	eb 01                	jmp    8d44 <func_9+0x152e>
    8d43:	90                   	nop
    8d44:	8b 85 e4 f6 ff ff    	mov    -0x91c(%rbp),%eax
    8d4a:	48 8b 5d d8          	mov    -0x28(%rbp),%rbx
    8d4e:	64 48 33 1c 25 28 00 	xor    %fs:0x28,%rbx
    8d55:	00 00 
    8d57:	74 05                	je     8d5e <func_9+0x1548>
    8d59:	e8 12 c3 ff ff       	callq  5070 <__stack_chk_fail@plt>
    8d5e:	48 81 c4 20 09 00 00 	add    $0x920,%rsp
    8d65:	5b                   	pop    %rbx
    8d66:	41 5c                	pop    %r12
    8d68:	41 5d                	pop    %r13
    8d6a:	41 5e                	pop    %r14
    8d6c:	5d                   	pop    %rbp
    8d6d:	c3                   	retq   

0000000000008d6e <func_12>:
    8d6e:	f3 0f 1e fa          	endbr64 
    8d72:	55                   	push   %rbp
    8d73:	48 89 e5             	mov    %rsp,%rbp
    8d76:	48 81 ec 00 0e 00 00 	sub    $0xe00,%rsp
    8d7d:	89 bd 0c f2 ff ff    	mov    %edi,-0xdf4(%rbp)
    8d83:	48 89 b5 00 f2 ff ff 	mov    %rsi,-0xe00(%rbp)
    8d8a:	64 48 8b 04 25 28 00 	mov    %fs:0x28,%rax
    8d91:	00 00 
    8d93:	48 89 45 f8          	mov    %rax,-0x8(%rbp)
    8d97:	31 c0                	xor    %eax,%eax
    8d99:	48 8d 05 e0 f0 00 00 	lea    0xf0e0(%rip),%rax        # 17e80 <g_1822+0x20>
    8da0:	48 89 85 20 f2 ff ff 	mov    %rax,-0xde0(%rbp)
    8da7:	48 c7 85 60 f8 ff ff 	movq   $0x0,-0x7a0(%rbp)
    8dae:	00 00 00 00 
    8db2:	48 8d 85 20 f2 ff ff 	lea    -0xde0(%rbp),%rax
    8db9:	48 89 85 68 f8 ff ff 	mov    %rax,-0x798(%rbp)
    8dc0:	48 c7 85 70 f8 ff ff 	movq   $0x0,-0x790(%rbp)
    8dc7:	00 00 00 00 
    8dcb:	48 c7 85 78 f8 ff ff 	movq   $0x0,-0x788(%rbp)
    8dd2:	00 00 00 00 
    8dd6:	48 8d 85 20 f2 ff ff 	lea    -0xde0(%rbp),%rax
    8ddd:	48 89 85 80 f8 ff ff 	mov    %rax,-0x780(%rbp)
    8de4:	48 8d 85 20 f2 ff ff 	lea    -0xde0(%rbp),%rax
    8deb:	48 89 85 88 f8 ff ff 	mov    %rax,-0x778(%rbp)
    8df2:	48 8d 85 20 f2 ff ff 	lea    -0xde0(%rbp),%rax
    8df9:	48 89 85 90 f8 ff ff 	mov    %rax,-0x770(%rbp)
    8e00:	48 8d 85 20 f2 ff ff 	lea    -0xde0(%rbp),%rax
    8e07:	48 89 85 98 f8 ff ff 	mov    %rax,-0x768(%rbp)
    8e0e:	48 8d 85 20 f2 ff ff 	lea    -0xde0(%rbp),%rax
    8e15:	48 89 85 a0 f8 ff ff 	mov    %rax,-0x760(%rbp)
    8e1c:	48 8d 85 20 f2 ff ff 	lea    -0xde0(%rbp),%rax
    8e23:	48 89 85 a8 f8 ff ff 	mov    %rax,-0x758(%rbp)
    8e2a:	48 8d 85 20 f2 ff ff 	lea    -0xde0(%rbp),%rax
    8e31:	48 89 85 b0 f8 ff ff 	mov    %rax,-0x750(%rbp)
    8e38:	48 8d 85 20 f2 ff ff 	lea    -0xde0(%rbp),%rax
    8e3f:	48 89 85 b8 f8 ff ff 	mov    %rax,-0x748(%rbp)
    8e46:	48 8d 85 20 f2 ff ff 	lea    -0xde0(%rbp),%rax
    8e4d:	48 89 85 c0 f8 ff ff 	mov    %rax,-0x740(%rbp)
    8e54:	48 8d 85 20 f2 ff ff 	lea    -0xde0(%rbp),%rax
    8e5b:	48 89 85 c8 f8 ff ff 	mov    %rax,-0x738(%rbp)
    8e62:	48 8d 85 20 f2 ff ff 	lea    -0xde0(%rbp),%rax
    8e69:	48 89 85 d0 f8 ff ff 	mov    %rax,-0x730(%rbp)
    8e70:	48 8d 85 20 f2 ff ff 	lea    -0xde0(%rbp),%rax
    8e77:	48 89 85 d8 f8 ff ff 	mov    %rax,-0x728(%rbp)
    8e7e:	48 8d 85 20 f2 ff ff 	lea    -0xde0(%rbp),%rax
    8e85:	48 89 85 e0 f8 ff ff 	mov    %rax,-0x720(%rbp)
    8e8c:	48 8d 85 20 f2 ff ff 	lea    -0xde0(%rbp),%rax
    8e93:	48 89 85 e8 f8 ff ff 	mov    %rax,-0x718(%rbp)
    8e9a:	48 8d 85 20 f2 ff ff 	lea    -0xde0(%rbp),%rax
    8ea1:	48 89 85 f0 f8 ff ff 	mov    %rax,-0x710(%rbp)
    8ea8:	48 8d 85 20 f2 ff ff 	lea    -0xde0(%rbp),%rax
    8eaf:	48 89 85 f8 f8 ff ff 	mov    %rax,-0x708(%rbp)
    8eb6:	48 8d 85 20 f2 ff ff 	lea    -0xde0(%rbp),%rax
    8ebd:	48 89 85 00 f9 ff ff 	mov    %rax,-0x700(%rbp)
    8ec4:	48 8d 85 20 f2 ff ff 	lea    -0xde0(%rbp),%rax
    8ecb:	48 89 85 08 f9 ff ff 	mov    %rax,-0x6f8(%rbp)
    8ed2:	48 8d 85 20 f2 ff ff 	lea    -0xde0(%rbp),%rax
    8ed9:	48 89 85 10 f9 ff ff 	mov    %rax,-0x6f0(%rbp)
    8ee0:	48 8d 85 20 f2 ff ff 	lea    -0xde0(%rbp),%rax
    8ee7:	48 89 85 18 f9 ff ff 	mov    %rax,-0x6e8(%rbp)
    8eee:	48 8d 85 20 f2 ff ff 	lea    -0xde0(%rbp),%rax
    8ef5:	48 89 85 20 f9 ff ff 	mov    %rax,-0x6e0(%rbp)
    8efc:	48 8d 85 20 f2 ff ff 	lea    -0xde0(%rbp),%rax
    8f03:	48 89 85 28 f9 ff ff 	mov    %rax,-0x6d8(%rbp)
    8f0a:	48 8d 85 20 f2 ff ff 	lea    -0xde0(%rbp),%rax
    8f11:	48 89 85 30 f9 ff ff 	mov    %rax,-0x6d0(%rbp)
    8f18:	48 c7 85 38 f9 ff ff 	movq   $0x0,-0x6c8(%rbp)
    8f1f:	00 00 00 00 
    8f23:	48 8d 85 20 f2 ff ff 	lea    -0xde0(%rbp),%rax
    8f2a:	48 89 85 40 f9 ff ff 	mov    %rax,-0x6c0(%rbp)
    8f31:	48 8d 85 20 f2 ff ff 	lea    -0xde0(%rbp),%rax
    8f38:	48 89 85 48 f9 ff ff 	mov    %rax,-0x6b8(%rbp)
    8f3f:	48 8d 85 20 f2 ff ff 	lea    -0xde0(%rbp),%rax
    8f46:	48 89 85 50 f9 ff ff 	mov    %rax,-0x6b0(%rbp)
    8f4d:	48 8d 85 20 f2 ff ff 	lea    -0xde0(%rbp),%rax
    8f54:	48 89 85 58 f9 ff ff 	mov    %rax,-0x6a8(%rbp)
    8f5b:	48 8d 85 20 f2 ff ff 	lea    -0xde0(%rbp),%rax
    8f62:	48 89 85 60 f9 ff ff 	mov    %rax,-0x6a0(%rbp)
    8f69:	48 c7 85 68 f9 ff ff 	movq   $0x0,-0x698(%rbp)
    8f70:	00 00 00 00 
    8f74:	48 8d 85 20 f2 ff ff 	lea    -0xde0(%rbp),%rax
    8f7b:	48 89 85 70 f9 ff ff 	mov    %rax,-0x690(%rbp)
    8f82:	48 8d 85 20 f2 ff ff 	lea    -0xde0(%rbp),%rax
    8f89:	48 89 85 78 f9 ff ff 	mov    %rax,-0x688(%rbp)
    8f90:	48 8d 85 20 f2 ff ff 	lea    -0xde0(%rbp),%rax
    8f97:	48 89 85 80 f9 ff ff 	mov    %rax,-0x680(%rbp)
    8f9e:	48 8d 85 20 f2 ff ff 	lea    -0xde0(%rbp),%rax
    8fa5:	48 89 85 88 f9 ff ff 	mov    %rax,-0x678(%rbp)
    8fac:	48 8d 85 20 f2 ff ff 	lea    -0xde0(%rbp),%rax
    8fb3:	48 89 85 90 f9 ff ff 	mov    %rax,-0x670(%rbp)
    8fba:	48 8d 85 20 f2 ff ff 	lea    -0xde0(%rbp),%rax
    8fc1:	48 89 85 98 f9 ff ff 	mov    %rax,-0x668(%rbp)
    8fc8:	48 8d 85 20 f2 ff ff 	lea    -0xde0(%rbp),%rax
    8fcf:	48 89 85 a0 f9 ff ff 	mov    %rax,-0x660(%rbp)
    8fd6:	48 8d 85 20 f2 ff ff 	lea    -0xde0(%rbp),%rax
    8fdd:	48 89 85 a8 f9 ff ff 	mov    %rax,-0x658(%rbp)
    8fe4:	48 8d 85 20 f2 ff ff 	lea    -0xde0(%rbp),%rax
    8feb:	48 89 85 b0 f9 ff ff 	mov    %rax,-0x650(%rbp)
    8ff2:	48 8d 85 20 f2 ff ff 	lea    -0xde0(%rbp),%rax
    8ff9:	48 89 85 b8 f9 ff ff 	mov    %rax,-0x648(%rbp)
    9000:	48 8d 85 20 f2 ff ff 	lea    -0xde0(%rbp),%rax
    9007:	48 89 85 c0 f9 ff ff 	mov    %rax,-0x640(%rbp)
    900e:	48 8d 85 20 f2 ff ff 	lea    -0xde0(%rbp),%rax
    9015:	48 89 85 c8 f9 ff ff 	mov    %rax,-0x638(%rbp)
    901c:	48 8d 85 20 f2 ff ff 	lea    -0xde0(%rbp),%rax
    9023:	48 89 85 d0 f9 ff ff 	mov    %rax,-0x630(%rbp)
    902a:	48 8d 85 20 f2 ff ff 	lea    -0xde0(%rbp),%rax
    9031:	48 89 85 d8 f9 ff ff 	mov    %rax,-0x628(%rbp)
    9038:	48 8d 85 20 f2 ff ff 	lea    -0xde0(%rbp),%rax
    903f:	48 89 85 e0 f9 ff ff 	mov    %rax,-0x620(%rbp)
    9046:	48 8d 85 20 f2 ff ff 	lea    -0xde0(%rbp),%rax
    904d:	48 89 85 e8 f9 ff ff 	mov    %rax,-0x618(%rbp)
    9054:	48 8d 85 20 f2 ff ff 	lea    -0xde0(%rbp),%rax
    905b:	48 89 85 f0 f9 ff ff 	mov    %rax,-0x610(%rbp)
    9062:	48 8d 85 20 f2 ff ff 	lea    -0xde0(%rbp),%rax
    9069:	48 89 85 f8 f9 ff ff 	mov    %rax,-0x608(%rbp)
    9070:	48 8d 85 20 f2 ff ff 	lea    -0xde0(%rbp),%rax
    9077:	48 89 85 00 fa ff ff 	mov    %rax,-0x600(%rbp)
    907e:	48 8d 85 20 f2 ff ff 	lea    -0xde0(%rbp),%rax
    9085:	48 89 85 08 fa ff ff 	mov    %rax,-0x5f8(%rbp)
    908c:	48 8d 85 20 f2 ff ff 	lea    -0xde0(%rbp),%rax
    9093:	48 89 85 10 fa ff ff 	mov    %rax,-0x5f0(%rbp)
    909a:	48 8d 85 20 f2 ff ff 	lea    -0xde0(%rbp),%rax
    90a1:	48 89 85 18 fa ff ff 	mov    %rax,-0x5e8(%rbp)
    90a8:	48 c7 85 20 fa ff ff 	movq   $0x0,-0x5e0(%rbp)
    90af:	00 00 00 00 
    90b3:	48 8d 85 20 f2 ff ff 	lea    -0xde0(%rbp),%rax
    90ba:	48 89 85 28 fa ff ff 	mov    %rax,-0x5d8(%rbp)
    90c1:	48 8d 85 20 f2 ff ff 	lea    -0xde0(%rbp),%rax
    90c8:	48 89 85 30 fa ff ff 	mov    %rax,-0x5d0(%rbp)
    90cf:	48 c7 85 38 fa ff ff 	movq   $0x0,-0x5c8(%rbp)
    90d6:	00 00 00 00 
    90da:	48 8d 85 20 f2 ff ff 	lea    -0xde0(%rbp),%rax
    90e1:	48 89 85 40 fa ff ff 	mov    %rax,-0x5c0(%rbp)
    90e8:	48 8d 85 20 f2 ff ff 	lea    -0xde0(%rbp),%rax
    90ef:	48 89 85 48 fa ff ff 	mov    %rax,-0x5b8(%rbp)
    90f6:	48 c7 85 50 fa ff ff 	movq   $0x0,-0x5b0(%rbp)
    90fd:	00 00 00 00 
    9101:	48 c7 85 58 fa ff ff 	movq   $0x0,-0x5a8(%rbp)
    9108:	00 00 00 00 
    910c:	48 c7 85 60 fa ff ff 	movq   $0x0,-0x5a0(%rbp)
    9113:	00 00 00 00 
    9117:	48 8d 85 20 f2 ff ff 	lea    -0xde0(%rbp),%rax
    911e:	48 89 85 68 fa ff ff 	mov    %rax,-0x598(%rbp)
    9125:	48 8d 85 20 f2 ff ff 	lea    -0xde0(%rbp),%rax
    912c:	48 89 85 70 fa ff ff 	mov    %rax,-0x590(%rbp)
    9133:	48 c7 85 78 fa ff ff 	movq   $0x0,-0x588(%rbp)
    913a:	00 00 00 00 
    913e:	48 8d 85 20 f2 ff ff 	lea    -0xde0(%rbp),%rax
    9145:	48 89 85 80 fa ff ff 	mov    %rax,-0x580(%rbp)
    914c:	48 c7 85 88 fa ff ff 	movq   $0x0,-0x578(%rbp)
    9153:	00 00 00 00 
    9157:	48 c7 85 90 fa ff ff 	movq   $0x0,-0x570(%rbp)
    915e:	00 00 00 00 
    9162:	48 c7 85 98 fa ff ff 	movq   $0x0,-0x568(%rbp)
    9169:	00 00 00 00 
    916d:	48 8d 85 20 f2 ff ff 	lea    -0xde0(%rbp),%rax
    9174:	48 89 85 a0 fa ff ff 	mov    %rax,-0x560(%rbp)
    917b:	48 8d 85 20 f2 ff ff 	lea    -0xde0(%rbp),%rax
    9182:	48 89 85 a8 fa ff ff 	mov    %rax,-0x558(%rbp)
    9189:	48 8d 85 20 f2 ff ff 	lea    -0xde0(%rbp),%rax
    9190:	48 89 85 b0 fa ff ff 	mov    %rax,-0x550(%rbp)
    9197:	48 8d 85 20 f2 ff ff 	lea    -0xde0(%rbp),%rax
    919e:	48 89 85 b8 fa ff ff 	mov    %rax,-0x548(%rbp)
    91a5:	48 8d 85 20 f2 ff ff 	lea    -0xde0(%rbp),%rax
    91ac:	48 89 85 c0 fa ff ff 	mov    %rax,-0x540(%rbp)
    91b3:	48 c7 85 c8 fa ff ff 	movq   $0x0,-0x538(%rbp)
    91ba:	00 00 00 00 
    91be:	48 8d 85 20 f2 ff ff 	lea    -0xde0(%rbp),%rax
    91c5:	48 89 85 d0 fa ff ff 	mov    %rax,-0x530(%rbp)
    91cc:	48 8d 85 20 f2 ff ff 	lea    -0xde0(%rbp),%rax
    91d3:	48 89 85 d8 fa ff ff 	mov    %rax,-0x528(%rbp)
    91da:	48 8d 85 20 f2 ff ff 	lea    -0xde0(%rbp),%rax
    91e1:	48 89 85 e0 fa ff ff 	mov    %rax,-0x520(%rbp)
    91e8:	48 8d 85 20 f2 ff ff 	lea    -0xde0(%rbp),%rax
    91ef:	48 89 85 e8 fa ff ff 	mov    %rax,-0x518(%rbp)
    91f6:	48 8d 85 20 f2 ff ff 	lea    -0xde0(%rbp),%rax
    91fd:	48 89 85 f0 fa ff ff 	mov    %rax,-0x510(%rbp)
    9204:	48 8d 85 20 f2 ff ff 	lea    -0xde0(%rbp),%rax
    920b:	48 89 85 f8 fa ff ff 	mov    %rax,-0x508(%rbp)
    9212:	48 8d 85 20 f2 ff ff 	lea    -0xde0(%rbp),%rax
    9219:	48 89 85 00 fb ff ff 	mov    %rax,-0x500(%rbp)
    9220:	48 8d 85 20 f2 ff ff 	lea    -0xde0(%rbp),%rax
    9227:	48 89 85 08 fb ff ff 	mov    %rax,-0x4f8(%rbp)
    922e:	48 8d 85 20 f2 ff ff 	lea    -0xde0(%rbp),%rax
    9235:	48 89 85 10 fb ff ff 	mov    %rax,-0x4f0(%rbp)
    923c:	48 8d 85 20 f2 ff ff 	lea    -0xde0(%rbp),%rax
    9243:	48 89 85 18 fb ff ff 	mov    %rax,-0x4e8(%rbp)
    924a:	48 8d 85 20 f2 ff ff 	lea    -0xde0(%rbp),%rax
    9251:	48 89 85 20 fb ff ff 	mov    %rax,-0x4e0(%rbp)
    9258:	48 8d 85 20 f2 ff ff 	lea    -0xde0(%rbp),%rax
    925f:	48 89 85 28 fb ff ff 	mov    %rax,-0x4d8(%rbp)
    9266:	48 8d 85 20 f2 ff ff 	lea    -0xde0(%rbp),%rax
    926d:	48 89 85 30 fb ff ff 	mov    %rax,-0x4d0(%rbp)
    9274:	48 8d 85 20 f2 ff ff 	lea    -0xde0(%rbp),%rax
    927b:	48 89 85 38 fb ff ff 	mov    %rax,-0x4c8(%rbp)
    9282:	48 8d 85 20 f2 ff ff 	lea    -0xde0(%rbp),%rax
    9289:	48 89 85 40 fb ff ff 	mov    %rax,-0x4c0(%rbp)
    9290:	48 c7 85 48 fb ff ff 	movq   $0x0,-0x4b8(%rbp)
    9297:	00 00 00 00 
    929b:	48 8d 85 20 f2 ff ff 	lea    -0xde0(%rbp),%rax
    92a2:	48 89 85 50 fb ff ff 	mov    %rax,-0x4b0(%rbp)
    92a9:	48 c7 85 58 fb ff ff 	movq   $0x0,-0x4a8(%rbp)
    92b0:	00 00 00 00 
    92b4:	48 c7 85 60 fb ff ff 	movq   $0x0,-0x4a0(%rbp)
    92bb:	00 00 00 00 
    92bf:	48 8d 85 20 f2 ff ff 	lea    -0xde0(%rbp),%rax
    92c6:	48 89 85 68 fb ff ff 	mov    %rax,-0x498(%rbp)
    92cd:	48 8d 85 20 f2 ff ff 	lea    -0xde0(%rbp),%rax
    92d4:	48 89 85 70 fb ff ff 	mov    %rax,-0x490(%rbp)
    92db:	48 c7 85 78 fb ff ff 	movq   $0x0,-0x488(%rbp)
    92e2:	00 00 00 00 
    92e6:	48 8d 85 20 f2 ff ff 	lea    -0xde0(%rbp),%rax
    92ed:	48 89 85 80 fb ff ff 	mov    %rax,-0x480(%rbp)
    92f4:	48 c7 85 88 fb ff ff 	movq   $0x0,-0x478(%rbp)
    92fb:	00 00 00 00 
    92ff:	48 8d 85 20 f2 ff ff 	lea    -0xde0(%rbp),%rax
    9306:	48 89 85 90 fb ff ff 	mov    %rax,-0x470(%rbp)
    930d:	48 8d 85 20 f2 ff ff 	lea    -0xde0(%rbp),%rax
    9314:	48 89 85 98 fb ff ff 	mov    %rax,-0x468(%rbp)
    931b:	48 8d 85 20 f2 ff ff 	lea    -0xde0(%rbp),%rax
    9322:	48 89 85 a0 fb ff ff 	mov    %rax,-0x460(%rbp)
    9329:	48 8d 85 20 f2 ff ff 	lea    -0xde0(%rbp),%rax
    9330:	48 89 85 a8 fb ff ff 	mov    %rax,-0x458(%rbp)
    9337:	48 8d 85 20 f2 ff ff 	lea    -0xde0(%rbp),%rax
    933e:	48 89 85 b0 fb ff ff 	mov    %rax,-0x450(%rbp)
    9345:	48 8d 85 20 f2 ff ff 	lea    -0xde0(%rbp),%rax
    934c:	48 89 85 b8 fb ff ff 	mov    %rax,-0x448(%rbp)
    9353:	48 8d 85 20 f2 ff ff 	lea    -0xde0(%rbp),%rax
    935a:	48 89 85 c0 fb ff ff 	mov    %rax,-0x440(%rbp)
    9361:	48 8d 85 20 f2 ff ff 	lea    -0xde0(%rbp),%rax
    9368:	48 89 85 c8 fb ff ff 	mov    %rax,-0x438(%rbp)
    936f:	48 c7 85 d0 fb ff ff 	movq   $0x0,-0x430(%rbp)
    9376:	00 00 00 00 
    937a:	48 c7 85 d8 fb ff ff 	movq   $0x0,-0x428(%rbp)
    9381:	00 00 00 00 
    9385:	48 8d 85 20 f2 ff ff 	lea    -0xde0(%rbp),%rax
    938c:	48 89 85 e0 fb ff ff 	mov    %rax,-0x420(%rbp)
    9393:	48 c7 85 e8 fb ff ff 	movq   $0x0,-0x418(%rbp)
    939a:	00 00 00 00 
    939e:	48 c7 85 f0 fb ff ff 	movq   $0x0,-0x410(%rbp)
    93a5:	00 00 00 00 
    93a9:	48 8d 85 20 f2 ff ff 	lea    -0xde0(%rbp),%rax
    93b0:	48 89 85 f8 fb ff ff 	mov    %rax,-0x408(%rbp)
    93b7:	48 c7 85 00 fc ff ff 	movq   $0x0,-0x400(%rbp)
    93be:	00 00 00 00 
    93c2:	48 c7 85 08 fc ff ff 	movq   $0x0,-0x3f8(%rbp)
    93c9:	00 00 00 00 
    93cd:	48 8d 85 20 f2 ff ff 	lea    -0xde0(%rbp),%rax
    93d4:	48 89 85 10 fc ff ff 	mov    %rax,-0x3f0(%rbp)
    93db:	48 8d 85 20 f2 ff ff 	lea    -0xde0(%rbp),%rax
    93e2:	48 89 85 18 fc ff ff 	mov    %rax,-0x3e8(%rbp)
    93e9:	48 8d 85 20 f2 ff ff 	lea    -0xde0(%rbp),%rax
    93f0:	48 89 85 20 fc ff ff 	mov    %rax,-0x3e0(%rbp)
    93f7:	48 8d 85 20 f2 ff ff 	lea    -0xde0(%rbp),%rax
    93fe:	48 89 85 28 fc ff ff 	mov    %rax,-0x3d8(%rbp)
    9405:	48 8d 85 20 f2 ff ff 	lea    -0xde0(%rbp),%rax
    940c:	48 89 85 30 fc ff ff 	mov    %rax,-0x3d0(%rbp)
    9413:	48 8d 85 20 f2 ff ff 	lea    -0xde0(%rbp),%rax
    941a:	48 89 85 38 fc ff ff 	mov    %rax,-0x3c8(%rbp)
    9421:	48 8d 85 20 f2 ff ff 	lea    -0xde0(%rbp),%rax
    9428:	48 89 85 40 fc ff ff 	mov    %rax,-0x3c0(%rbp)
    942f:	48 8d 85 20 f2 ff ff 	lea    -0xde0(%rbp),%rax
    9436:	48 89 85 48 fc ff ff 	mov    %rax,-0x3b8(%rbp)
    943d:	48 8d 85 20 f2 ff ff 	lea    -0xde0(%rbp),%rax
    9444:	48 89 85 50 fc ff ff 	mov    %rax,-0x3b0(%rbp)
    944b:	48 8d 85 20 f2 ff ff 	lea    -0xde0(%rbp),%rax
    9452:	48 89 85 58 fc ff ff 	mov    %rax,-0x3a8(%rbp)
    9459:	48 8d 85 20 f2 ff ff 	lea    -0xde0(%rbp),%rax
    9460:	48 89 85 60 fc ff ff 	mov    %rax,-0x3a0(%rbp)
    9467:	48 8d 85 20 f2 ff ff 	lea    -0xde0(%rbp),%rax
    946e:	48 89 85 68 fc ff ff 	mov    %rax,-0x398(%rbp)
    9475:	48 8d 85 20 f2 ff ff 	lea    -0xde0(%rbp),%rax
    947c:	48 89 85 70 fc ff ff 	mov    %rax,-0x390(%rbp)
    9483:	48 8d 85 20 f2 ff ff 	lea    -0xde0(%rbp),%rax
    948a:	48 89 85 78 fc ff ff 	mov    %rax,-0x388(%rbp)
    9491:	48 8d 85 20 f2 ff ff 	lea    -0xde0(%rbp),%rax
    9498:	48 89 85 80 fc ff ff 	mov    %rax,-0x380(%rbp)
    949f:	48 8d 85 20 f2 ff ff 	lea    -0xde0(%rbp),%rax
    94a6:	48 89 85 88 fc ff ff 	mov    %rax,-0x378(%rbp)
    94ad:	48 8d 85 20 f2 ff ff 	lea    -0xde0(%rbp),%rax
    94b4:	48 89 85 90 fc ff ff 	mov    %rax,-0x370(%rbp)
    94bb:	48 8d 85 20 f2 ff ff 	lea    -0xde0(%rbp),%rax
    94c2:	48 89 85 98 fc ff ff 	mov    %rax,-0x368(%rbp)
    94c9:	48 8d 85 20 f2 ff ff 	lea    -0xde0(%rbp),%rax
    94d0:	48 89 85 a0 fc ff ff 	mov    %rax,-0x360(%rbp)
    94d7:	48 8d 85 20 f2 ff ff 	lea    -0xde0(%rbp),%rax
    94de:	48 89 85 a8 fc ff ff 	mov    %rax,-0x358(%rbp)
    94e5:	48 8d 85 20 f2 ff ff 	lea    -0xde0(%rbp),%rax
    94ec:	48 89 85 b0 fc ff ff 	mov    %rax,-0x350(%rbp)
    94f3:	48 8d 85 20 f2 ff ff 	lea    -0xde0(%rbp),%rax
    94fa:	48 89 85 b8 fc ff ff 	mov    %rax,-0x348(%rbp)
    9501:	48 8d 85 20 f2 ff ff 	lea    -0xde0(%rbp),%rax
    9508:	48 89 85 c0 fc ff ff 	mov    %rax,-0x340(%rbp)
    950f:	48 c7 85 c8 fc ff ff 	movq   $0x0,-0x338(%rbp)
    9516:	00 00 00 00 
    951a:	48 8d 85 20 f2 ff ff 	lea    -0xde0(%rbp),%rax
    9521:	48 89 85 d0 fc ff ff 	mov    %rax,-0x330(%rbp)
    9528:	48 8d 85 20 f2 ff ff 	lea    -0xde0(%rbp),%rax
    952f:	48 89 85 d8 fc ff ff 	mov    %rax,-0x328(%rbp)
    9536:	48 8d 85 20 f2 ff ff 	lea    -0xde0(%rbp),%rax
    953d:	48 89 85 e0 fc ff ff 	mov    %rax,-0x320(%rbp)
    9544:	48 8d 85 20 f2 ff ff 	lea    -0xde0(%rbp),%rax
    954b:	48 89 85 e8 fc ff ff 	mov    %rax,-0x318(%rbp)
    9552:	48 8d 85 20 f2 ff ff 	lea    -0xde0(%rbp),%rax
    9559:	48 89 85 f0 fc ff ff 	mov    %rax,-0x310(%rbp)
    9560:	48 c7 85 f8 fc ff ff 	movq   $0x0,-0x308(%rbp)
    9567:	00 00 00 00 
    956b:	48 8d 85 20 f2 ff ff 	lea    -0xde0(%rbp),%rax
    9572:	48 89 85 00 fd ff ff 	mov    %rax,-0x300(%rbp)
    9579:	48 8d 85 20 f2 ff ff 	lea    -0xde0(%rbp),%rax
    9580:	48 89 85 08 fd ff ff 	mov    %rax,-0x2f8(%rbp)
    9587:	48 8d 85 20 f2 ff ff 	lea    -0xde0(%rbp),%rax
    958e:	48 89 85 10 fd ff ff 	mov    %rax,-0x2f0(%rbp)
    9595:	48 8d 85 20 f2 ff ff 	lea    -0xde0(%rbp),%rax
    959c:	48 89 85 18 fd ff ff 	mov    %rax,-0x2e8(%rbp)
    95a3:	48 8d 85 20 f2 ff ff 	lea    -0xde0(%rbp),%rax
    95aa:	48 89 85 20 fd ff ff 	mov    %rax,-0x2e0(%rbp)
    95b1:	48 8d 85 20 f2 ff ff 	lea    -0xde0(%rbp),%rax
    95b8:	48 89 85 28 fd ff ff 	mov    %rax,-0x2d8(%rbp)
    95bf:	48 8d 85 20 f2 ff ff 	lea    -0xde0(%rbp),%rax
    95c6:	48 89 85 30 fd ff ff 	mov    %rax,-0x2d0(%rbp)
    95cd:	48 8d 85 20 f2 ff ff 	lea    -0xde0(%rbp),%rax
    95d4:	48 89 85 38 fd ff ff 	mov    %rax,-0x2c8(%rbp)
    95db:	48 8d 85 20 f2 ff ff 	lea    -0xde0(%rbp),%rax
    95e2:	48 89 85 40 fd ff ff 	mov    %rax,-0x2c0(%rbp)
    95e9:	48 8d 85 20 f2 ff ff 	lea    -0xde0(%rbp),%rax
    95f0:	48 89 85 48 fd ff ff 	mov    %rax,-0x2b8(%rbp)
    95f7:	48 8d 85 20 f2 ff ff 	lea    -0xde0(%rbp),%rax
    95fe:	48 89 85 50 fd ff ff 	mov    %rax,-0x2b0(%rbp)
    9605:	48 8d 85 20 f2 ff ff 	lea    -0xde0(%rbp),%rax
    960c:	48 89 85 58 fd ff ff 	mov    %rax,-0x2a8(%rbp)
    9613:	48 8d 85 20 f2 ff ff 	lea    -0xde0(%rbp),%rax
    961a:	48 89 85 60 fd ff ff 	mov    %rax,-0x2a0(%rbp)
    9621:	48 8d 85 20 f2 ff ff 	lea    -0xde0(%rbp),%rax
    9628:	48 89 85 68 fd ff ff 	mov    %rax,-0x298(%rbp)
    962f:	48 8d 85 20 f2 ff ff 	lea    -0xde0(%rbp),%rax
    9636:	48 89 85 70 fd ff ff 	mov    %rax,-0x290(%rbp)
    963d:	48 8d 85 20 f2 ff ff 	lea    -0xde0(%rbp),%rax
    9644:	48 89 85 78 fd ff ff 	mov    %rax,-0x288(%rbp)
    964b:	48 8d 85 20 f2 ff ff 	lea    -0xde0(%rbp),%rax
    9652:	48 89 85 80 fd ff ff 	mov    %rax,-0x280(%rbp)
    9659:	48 8d 85 20 f2 ff ff 	lea    -0xde0(%rbp),%rax
    9660:	48 89 85 88 fd ff ff 	mov    %rax,-0x278(%rbp)
    9667:	48 8d 85 20 f2 ff ff 	lea    -0xde0(%rbp),%rax
    966e:	48 89 85 90 fd ff ff 	mov    %rax,-0x270(%rbp)
    9675:	48 8d 85 20 f2 ff ff 	lea    -0xde0(%rbp),%rax
    967c:	48 89 85 98 fd ff ff 	mov    %rax,-0x268(%rbp)
    9683:	48 8d 85 20 f2 ff ff 	lea    -0xde0(%rbp),%rax
    968a:	48 89 85 a0 fd ff ff 	mov    %rax,-0x260(%rbp)
    9691:	48 8d 85 20 f2 ff ff 	lea    -0xde0(%rbp),%rax
    9698:	48 89 85 a8 fd ff ff 	mov    %rax,-0x258(%rbp)
    969f:	48 c7 85 b0 fd ff ff 	movq   $0x0,-0x250(%rbp)
    96a6:	00 00 00 00 
    96aa:	48 8d 85 20 f2 ff ff 	lea    -0xde0(%rbp),%rax
    96b1:	48 89 85 b8 fd ff ff 	mov    %rax,-0x248(%rbp)
    96b8:	48 8d 85 20 f2 ff ff 	lea    -0xde0(%rbp),%rax
    96bf:	48 89 85 c0 fd ff ff 	mov    %rax,-0x240(%rbp)
    96c6:	48 c7 85 c8 fd ff ff 	movq   $0x0,-0x238(%rbp)
    96cd:	00 00 00 00 
    96d1:	48 8d 85 20 f2 ff ff 	lea    -0xde0(%rbp),%rax
    96d8:	48 89 85 d0 fd ff ff 	mov    %rax,-0x230(%rbp)
    96df:	48 8d 85 20 f2 ff ff 	lea    -0xde0(%rbp),%rax
    96e6:	48 89 85 d8 fd ff ff 	mov    %rax,-0x228(%rbp)
    96ed:	48 c7 85 e0 fd ff ff 	movq   $0x0,-0x220(%rbp)
    96f4:	00 00 00 00 
    96f8:	48 c7 85 e8 fd ff ff 	movq   $0x0,-0x218(%rbp)
    96ff:	00 00 00 00 
    9703:	48 c7 85 f0 fd ff ff 	movq   $0x0,-0x210(%rbp)
    970a:	00 00 00 00 
    970e:	48 8d 85 20 f2 ff ff 	lea    -0xde0(%rbp),%rax
    9715:	48 89 85 f8 fd ff ff 	mov    %rax,-0x208(%rbp)
    971c:	48 8d 85 20 f2 ff ff 	lea    -0xde0(%rbp),%rax
    9723:	48 89 85 00 fe ff ff 	mov    %rax,-0x200(%rbp)
    972a:	48 c7 85 08 fe ff ff 	movq   $0x0,-0x1f8(%rbp)
    9731:	00 00 00 00 
    9735:	48 8d 85 20 f2 ff ff 	lea    -0xde0(%rbp),%rax
    973c:	48 89 85 10 fe ff ff 	mov    %rax,-0x1f0(%rbp)
    9743:	48 c7 85 18 fe ff ff 	movq   $0x0,-0x1e8(%rbp)
    974a:	00 00 00 00 
    974e:	48 c7 85 20 fe ff ff 	movq   $0x0,-0x1e0(%rbp)
    9755:	00 00 00 00 
    9759:	48 c7 85 28 fe ff ff 	movq   $0x0,-0x1d8(%rbp)
    9760:	00 00 00 00 
    9764:	48 8d 85 20 f2 ff ff 	lea    -0xde0(%rbp),%rax
    976b:	48 89 85 30 fe ff ff 	mov    %rax,-0x1d0(%rbp)
    9772:	48 8d 85 20 f2 ff ff 	lea    -0xde0(%rbp),%rax
    9779:	48 89 85 38 fe ff ff 	mov    %rax,-0x1c8(%rbp)
    9780:	48 8d 85 20 f2 ff ff 	lea    -0xde0(%rbp),%rax
    9787:	48 89 85 40 fe ff ff 	mov    %rax,-0x1c0(%rbp)
    978e:	48 8d 85 20 f2 ff ff 	lea    -0xde0(%rbp),%rax
    9795:	48 89 85 48 fe ff ff 	mov    %rax,-0x1b8(%rbp)
    979c:	48 8d 85 20 f2 ff ff 	lea    -0xde0(%rbp),%rax
    97a3:	48 89 85 50 fe ff ff 	mov    %rax,-0x1b0(%rbp)
    97aa:	48 8d 85 20 f2 ff ff 	lea    -0xde0(%rbp),%rax
    97b1:	48 89 85 58 fe ff ff 	mov    %rax,-0x1a8(%rbp)
    97b8:	48 c7 85 60 fe ff ff 	movq   $0x0,-0x1a0(%rbp)
    97bf:	00 00 00 00 
    97c3:	48 8d 85 20 f2 ff ff 	lea    -0xde0(%rbp),%rax
    97ca:	48 89 85 68 fe ff ff 	mov    %rax,-0x198(%rbp)
    97d1:	48 8d 85 20 f2 ff ff 	lea    -0xde0(%rbp),%rax
    97d8:	48 89 85 70 fe ff ff 	mov    %rax,-0x190(%rbp)
    97df:	48 c7 85 78 fe ff ff 	movq   $0x0,-0x188(%rbp)
    97e6:	00 00 00 00 
    97ea:	48 8d 85 20 f2 ff ff 	lea    -0xde0(%rbp),%rax
    97f1:	48 89 85 80 fe ff ff 	mov    %rax,-0x180(%rbp)
    97f8:	48 8d 85 20 f2 ff ff 	lea    -0xde0(%rbp),%rax
    97ff:	48 89 85 88 fe ff ff 	mov    %rax,-0x178(%rbp)
    9806:	48 8d 85 20 f2 ff ff 	lea    -0xde0(%rbp),%rax
    980d:	48 89 85 90 fe ff ff 	mov    %rax,-0x170(%rbp)
    9814:	48 8d 85 20 f2 ff ff 	lea    -0xde0(%rbp),%rax
    981b:	48 89 85 98 fe ff ff 	mov    %rax,-0x168(%rbp)
    9822:	48 8d 85 20 f2 ff ff 	lea    -0xde0(%rbp),%rax
    9829:	48 89 85 a0 fe ff ff 	mov    %rax,-0x160(%rbp)
    9830:	48 8d 85 20 f2 ff ff 	lea    -0xde0(%rbp),%rax
    9837:	48 89 85 a8 fe ff ff 	mov    %rax,-0x158(%rbp)
    983e:	48 c7 85 b0 fe ff ff 	movq   $0x0,-0x150(%rbp)
    9845:	00 00 00 00 
    9849:	48 8d 85 20 f2 ff ff 	lea    -0xde0(%rbp),%rax
    9850:	48 89 85 b8 fe ff ff 	mov    %rax,-0x148(%rbp)
    9857:	48 8d 85 20 f2 ff ff 	lea    -0xde0(%rbp),%rax
    985e:	48 89 85 c0 fe ff ff 	mov    %rax,-0x140(%rbp)
    9865:	48 8d 85 20 f2 ff ff 	lea    -0xde0(%rbp),%rax
    986c:	48 89 85 c8 fe ff ff 	mov    %rax,-0x138(%rbp)
    9873:	48 8d 85 20 f2 ff ff 	lea    -0xde0(%rbp),%rax
    987a:	48 89 85 d0 fe ff ff 	mov    %rax,-0x130(%rbp)
    9881:	48 8d 85 20 f2 ff ff 	lea    -0xde0(%rbp),%rax
    9888:	48 89 85 d8 fe ff ff 	mov    %rax,-0x128(%rbp)
    988f:	48 8d 85 20 f2 ff ff 	lea    -0xde0(%rbp),%rax
    9896:	48 89 85 e0 fe ff ff 	mov    %rax,-0x120(%rbp)
    989d:	48 8d 85 20 f2 ff ff 	lea    -0xde0(%rbp),%rax
    98a4:	48 89 85 e8 fe ff ff 	mov    %rax,-0x118(%rbp)
    98ab:	48 8d 85 20 f2 ff ff 	lea    -0xde0(%rbp),%rax
    98b2:	48 89 85 f0 fe ff ff 	mov    %rax,-0x110(%rbp)
    98b9:	48 8d 85 20 f2 ff ff 	lea    -0xde0(%rbp),%rax
    98c0:	48 89 85 f8 fe ff ff 	mov    %rax,-0x108(%rbp)
    98c7:	48 8d 85 20 f2 ff ff 	lea    -0xde0(%rbp),%rax
    98ce:	48 89 85 00 ff ff ff 	mov    %rax,-0x100(%rbp)
    98d5:	48 8d 85 20 f2 ff ff 	lea    -0xde0(%rbp),%rax
    98dc:	48 89 85 08 ff ff ff 	mov    %rax,-0xf8(%rbp)
    98e3:	48 8d 85 20 f2 ff ff 	lea    -0xde0(%rbp),%rax
    98ea:	48 89 85 10 ff ff ff 	mov    %rax,-0xf0(%rbp)
    98f1:	48 c7 85 18 ff ff ff 	movq   $0x0,-0xe8(%rbp)
    98f8:	00 00 00 00 
    98fc:	48 8d 85 20 f2 ff ff 	lea    -0xde0(%rbp),%rax
    9903:	48 89 85 20 ff ff ff 	mov    %rax,-0xe0(%rbp)
    990a:	48 8d 85 20 f2 ff ff 	lea    -0xde0(%rbp),%rax
    9911:	48 89 85 28 ff ff ff 	mov    %rax,-0xd8(%rbp)
    9918:	48 8d 85 20 f2 ff ff 	lea    -0xde0(%rbp),%rax
    991f:	48 89 85 30 ff ff ff 	mov    %rax,-0xd0(%rbp)
    9926:	48 8d 85 20 f2 ff ff 	lea    -0xde0(%rbp),%rax
    992d:	48 89 85 38 ff ff ff 	mov    %rax,-0xc8(%rbp)
    9934:	48 c7 85 40 ff ff ff 	movq   $0x0,-0xc0(%rbp)
    993b:	00 00 00 00 
    993f:	48 c7 85 48 ff ff ff 	movq   $0x0,-0xb8(%rbp)
    9946:	00 00 00 00 
    994a:	48 8d 85 20 f2 ff ff 	lea    -0xde0(%rbp),%rax
    9951:	48 89 85 50 ff ff ff 	mov    %rax,-0xb0(%rbp)
    9958:	48 8d 85 20 f2 ff ff 	lea    -0xde0(%rbp),%rax
    995f:	48 89 85 58 ff ff ff 	mov    %rax,-0xa8(%rbp)
    9966:	48 8d 85 20 f2 ff ff 	lea    -0xde0(%rbp),%rax
    996d:	48 89 85 60 ff ff ff 	mov    %rax,-0xa0(%rbp)
    9974:	48 8d 85 20 f2 ff ff 	lea    -0xde0(%rbp),%rax
    997b:	48 89 85 68 ff ff ff 	mov    %rax,-0x98(%rbp)
    9982:	48 8d 85 20 f2 ff ff 	lea    -0xde0(%rbp),%rax
    9989:	48 89 85 70 ff ff ff 	mov    %rax,-0x90(%rbp)
    9990:	48 8d 85 20 f2 ff ff 	lea    -0xde0(%rbp),%rax
    9997:	48 89 85 78 ff ff ff 	mov    %rax,-0x88(%rbp)
    999e:	48 8d 85 20 f2 ff ff 	lea    -0xde0(%rbp),%rax
    99a5:	48 89 45 80          	mov    %rax,-0x80(%rbp)
    99a9:	48 c7 45 88 00 00 00 	movq   $0x0,-0x78(%rbp)
    99b0:	00 
    99b1:	48 8d 85 20 f2 ff ff 	lea    -0xde0(%rbp),%rax
    99b8:	48 89 45 90          	mov    %rax,-0x70(%rbp)
    99bc:	48 8d 85 20 f2 ff ff 	lea    -0xde0(%rbp),%rax
    99c3:	48 89 45 98          	mov    %rax,-0x68(%rbp)
    99c7:	48 8d 85 20 f2 ff ff 	lea    -0xde0(%rbp),%rax
    99ce:	48 89 45 a0          	mov    %rax,-0x60(%rbp)
    99d2:	48 8d 85 20 f2 ff ff 	lea    -0xde0(%rbp),%rax
    99d9:	48 89 45 a8          	mov    %rax,-0x58(%rbp)
    99dd:	48 8d 85 20 f2 ff ff 	lea    -0xde0(%rbp),%rax
    99e4:	48 89 45 b0          	mov    %rax,-0x50(%rbp)
    99e8:	48 8d 85 20 f2 ff ff 	lea    -0xde0(%rbp),%rax
    99ef:	48 89 45 b8          	mov    %rax,-0x48(%rbp)
    99f3:	48 8d 85 20 f2 ff ff 	lea    -0xde0(%rbp),%rax
    99fa:	48 89 45 c0          	mov    %rax,-0x40(%rbp)
    99fe:	48 8d 85 20 f2 ff ff 	lea    -0xde0(%rbp),%rax
    9a05:	48 89 45 c8          	mov    %rax,-0x38(%rbp)
    9a09:	48 c7 45 d0 00 00 00 	movq   $0x0,-0x30(%rbp)
    9a10:	00 
    9a11:	48 8d 85 20 f2 ff ff 	lea    -0xde0(%rbp),%rax
    9a18:	48 89 45 d8          	mov    %rax,-0x28(%rbp)
    9a1c:	48 8d 85 20 f2 ff ff 	lea    -0xde0(%rbp),%rax
    9a23:	48 89 45 e0          	mov    %rax,-0x20(%rbp)
    9a27:	48 8d 85 20 f2 ff ff 	lea    -0xde0(%rbp),%rax
    9a2e:	48 89 45 e8          	mov    %rax,-0x18(%rbp)
    9a32:	48 8d 85 20 f2 ff ff 	lea    -0xde0(%rbp),%rax
    9a39:	48 89 45 f0          	mov    %rax,-0x10(%rbp)
    9a3d:	48 8d 05 fc c9 00 00 	lea    0xc9fc(%rip),%rax        # 16440 <g_607>
    9a44:	48 89 85 28 f2 ff ff 	mov    %rax,-0xdd8(%rbp)
    9a4b:	48 8d 85 c0 f2 ff ff 	lea    -0xd40(%rbp),%rax
    9a52:	48 8d 15 c7 d5 00 00 	lea    0xd5c7(%rip),%rdx        # 17020 <g_3808+0x194>
    9a59:	b9 b4 00 00 00       	mov    $0xb4,%ecx
    9a5e:	48 89 c7             	mov    %rax,%rdi
    9a61:	48 89 d6             	mov    %rdx,%rsi
    9a64:	f3 48 a5             	rep movsq %ds:(%rsi),%es:(%rdi)
    9a67:	c6 85 17 f2 ff ff 5a 	movb   $0x5a,-0xde9(%rbp)
    9a6e:	c7 85 40 f2 ff ff 01 	movl   $0x1010101,-0xdc0(%rbp)
    9a75:	01 01 01 
    9a78:	66 c7 85 44 f2 ff ff 	movw   $0x101,-0xdbc(%rbp)
    9a7f:	01 01 
    9a81:	c7 85 46 f2 ff ff 01 	movl   $0x1010101,-0xdba(%rbp)
    9a88:	01 01 01 
    9a8b:	66 c7 85 4a f2 ff ff 	movw   $0x101,-0xdb6(%rbp)
    9a92:	01 01 
    9a94:	c7 85 4c f2 ff ff 01 	movl   $0x1010101,-0xdb4(%rbp)
    9a9b:	01 01 01 
    9a9e:	66 c7 85 50 f2 ff ff 	movw   $0x101,-0xdb0(%rbp)
    9aa5:	01 01 
    9aa7:	c7 85 52 f2 ff ff 01 	movl   $0x1010101,-0xdae(%rbp)
    9aae:	01 01 01 
    9ab1:	66 c7 85 56 f2 ff ff 	movw   $0x101,-0xdaa(%rbp)
    9ab8:	01 01 
    9aba:	c7 85 58 f2 ff ff 01 	movl   $0x1010101,-0xda8(%rbp)
    9ac1:	01 01 01 
    9ac4:	66 c7 85 5c f2 ff ff 	movw   $0x101,-0xda4(%rbp)
    9acb:	01 01 
    9acd:	c7 85 5e f2 ff ff 01 	movl   $0x1010101,-0xda2(%rbp)
    9ad4:	01 01 01 
    9ad7:	66 c7 85 62 f2 ff ff 	movw   $0x101,-0xd9e(%rbp)
    9ade:	01 01 
    9ae0:	48 8b 85 20 f2 ff ff 	mov    -0xde0(%rbp),%rax
    9ae7:	48 89 05 d2 eb 00 00 	mov    %rax,0xebd2(%rip)        # 186c0 <g_3393>
    9aee:	48 8b 15 cb eb 00 00 	mov    0xebcb(%rip),%rdx        # 186c0 <g_3393>
    9af5:	48 8b 85 20 f2 ff ff 	mov    -0xde0(%rbp),%rax
    9afc:	48 39 c2             	cmp    %rax,%rdx
    9aff:	0f 95 c0             	setne  %al
    9b02:	0f b6 d0             	movzbl %al,%edx
    9b05:	48 8b 85 00 f2 ff ff 	mov    -0xe00(%rbp),%rax
    9b0c:	89 10                	mov    %edx,(%rax)
    9b0e:	48 8b 05 73 e0 00 00 	mov    0xe073(%rip),%rax        # 17b88 <g_1095>
    9b15:	48 8b 00             	mov    (%rax),%rax
    9b18:	48 8b 00             	mov    (%rax),%rax
    9b1b:	48 8b 95 00 f2 ff ff 	mov    -0xe00(%rbp),%rdx
    9b22:	8b 12                	mov    (%rdx),%edx
    9b24:	89 10                	mov    %edx,(%rax)
    9b26:	c7 85 0c f2 ff ff 00 	movl   $0x0,-0xdf4(%rbp)
    9b2d:	00 00 00 
    9b30:	e9 49 01 00 00       	jmpq   9c7e <func_12+0xf10>
    9b35:	c7 85 18 f2 ff ff ff 	movl   $0xffffffff,-0xde8(%rbp)
    9b3c:	ff ff ff 
    9b3f:	48 8d 05 d4 c8 00 00 	lea    0xc8d4(%rip),%rax        # 1641a <g_340+0x2>
    9b46:	48 89 85 30 f2 ff ff 	mov    %rax,-0xdd0(%rbp)
    9b4d:	48 8d 05 c5 c8 00 00 	lea    0xc8c5(%rip),%rax        # 16419 <g_340+0x1>
    9b54:	48 89 85 38 f2 ff ff 	mov    %rax,-0xdc8(%rbp)
    9b5b:	48 8d 05 b6 c8 00 00 	lea    0xc8b6(%rip),%rax        # 16418 <g_340>
    9b62:	48 89 85 70 f2 ff ff 	mov    %rax,-0xd90(%rbp)
    9b69:	48 8d 05 a8 c8 00 00 	lea    0xc8a8(%rip),%rax        # 16418 <g_340>
    9b70:	48 89 85 78 f2 ff ff 	mov    %rax,-0xd88(%rbp)
    9b77:	48 8d 05 9a c8 00 00 	lea    0xc89a(%rip),%rax        # 16418 <g_340>
    9b7e:	48 89 85 80 f2 ff ff 	mov    %rax,-0xd80(%rbp)
    9b85:	48 8d 05 8c c8 00 00 	lea    0xc88c(%rip),%rax        # 16418 <g_340>
    9b8c:	48 89 85 88 f2 ff ff 	mov    %rax,-0xd78(%rbp)
    9b93:	48 8d 05 7e c8 00 00 	lea    0xc87e(%rip),%rax        # 16418 <g_340>
    9b9a:	48 89 85 90 f2 ff ff 	mov    %rax,-0xd70(%rbp)
    9ba1:	48 8d 05 72 c8 00 00 	lea    0xc872(%rip),%rax        # 1641a <g_340+0x2>
    9ba8:	48 89 85 98 f2 ff ff 	mov    %rax,-0xd68(%rbp)
    9baf:	48 8d 05 64 c8 00 00 	lea    0xc864(%rip),%rax        # 1641a <g_340+0x2>
    9bb6:	48 89 85 a0 f2 ff ff 	mov    %rax,-0xd60(%rbp)
    9bbd:	48 8d 05 56 c8 00 00 	lea    0xc856(%rip),%rax        # 1641a <g_340+0x2>
    9bc4:	48 89 85 a8 f2 ff ff 	mov    %rax,-0xd58(%rbp)
    9bcb:	48 8d 05 48 c8 00 00 	lea    0xc848(%rip),%rax        # 1641a <g_340+0x2>
    9bd2:	48 89 85 b0 f2 ff ff 	mov    %rax,-0xd50(%rbp)
    9bd9:	48 8d 05 3a c8 00 00 	lea    0xc83a(%rip),%rax        # 1641a <g_340+0x2>
    9be0:	48 89 85 b8 f2 ff ff 	mov    %rax,-0xd48(%rbp)
    9be7:	c7 85 1c f2 ff ff 01 	movl   $0x1,-0xde4(%rbp)
    9bee:	00 00 00 
    9bf1:	83 bd 18 f2 ff ff 00 	cmpl   $0x0,-0xde8(%rbp)
    9bf8:	74 51                	je     9c4b <func_12+0xedd>
    9bfa:	48 8b 05 3f e2 00 00 	mov    0xe23f(%rip),%rax        # 17e40 <g_1823>
    9c01:	0f b6 00             	movzbl (%rax),%eax
    9c04:	0f b6 c0             	movzbl %al,%eax
    9c07:	48 c7 85 30 f2 ff ff 	movq   $0x0,-0xdd0(%rbp)
    9c0e:	00 00 00 00 
    9c12:	48 8b 95 30 f2 ff ff 	mov    -0xdd0(%rbp),%rdx
    9c19:	48 89 95 38 f2 ff ff 	mov    %rdx,-0xdc8(%rbp)
    9c20:	48 8b 95 a8 f2 ff ff 	mov    -0xd58(%rbp),%rdx
    9c27:	48 39 95 38 f2 ff ff 	cmp    %rdx,-0xdc8(%rbp)
    9c2e:	0f 94 c2             	sete   %dl
    9c31:	0f b6 d2             	movzbl %dl,%edx
    9c34:	89 95 18 f2 ff ff    	mov    %edx,-0xde8(%rbp)
    9c3a:	0b 85 18 f2 ff ff    	or     -0xde8(%rbp),%eax
    9c40:	85 c0                	test   %eax,%eax
    9c42:	74 07                	je     9c4b <func_12+0xedd>
    9c44:	b8 01 00 00 00       	mov    $0x1,%eax
    9c49:	eb 05                	jmp    9c50 <func_12+0xee2>
    9c4b:	b8 00 00 00 00       	mov    $0x0,%eax
    9c50:	89 85 1c f2 ff ff    	mov    %eax,-0xde4(%rbp)
    9c56:	8b 85 1c f2 ff ff    	mov    -0xde4(%rbp),%eax
    9c5c:	0f be c0             	movsbl %al,%eax
    9c5f:	be 02 00 00 00       	mov    $0x2,%esi
    9c64:	89 c7                	mov    %eax,%edi
    9c66:	e8 36 b6 ff ff       	callq  52a1 <safe_lshift_func_int8_t_s_s>
    9c6b:	0f be d0             	movsbl %al,%edx
    9c6e:	48 8b 85 00 f2 ff ff 	mov    -0xe00(%rbp),%rax
    9c75:	89 10                	mov    %edx,(%rax)
    9c77:	83 85 0c f2 ff ff 01 	addl   $0x1,-0xdf4(%rbp)
    9c7e:	83 bd 0c f2 ff ff 05 	cmpl   $0x5,-0xdf4(%rbp)
    9c85:	0f 85 aa fe ff ff    	jne    9b35 <func_12+0xdc7>
    9c8b:	0f b6 85 62 f2 ff ff 	movzbl -0xd9e(%rbp),%eax
    9c92:	83 c0 01             	add    $0x1,%eax
    9c95:	88 85 62 f2 ff ff    	mov    %al,-0xd9e(%rbp)
    9c9b:	48 8b 05 e6 de 00 00 	mov    0xdee6(%rip),%rax        # 17b88 <g_1095>
    9ca2:	48 8b 00             	mov    (%rax),%rax
    9ca5:	48 8b 00             	mov    (%rax),%rax
    9ca8:	48 8b 4d f8          	mov    -0x8(%rbp),%rcx
    9cac:	64 48 33 0c 25 28 00 	xor    %fs:0x28,%rcx
    9cb3:	00 00 
    9cb5:	74 05                	je     9cbc <func_12+0xf4e>
    9cb7:	e8 b4 b3 ff ff       	callq  5070 <__stack_chk_fail@plt>
    9cbc:	c9                   	leaveq 
    9cbd:	c3                   	retq   

0000000000009cbe <func_15>:
    9cbe:	f3 0f 1e fa          	endbr64 
    9cc2:	55                   	push   %rbp
    9cc3:	48 89 e5             	mov    %rsp,%rbp
    9cc6:	53                   	push   %rbx
    9cc7:	48 81 ec 00 10 00 00 	sub    $0x1000,%rsp
    9cce:	48 83 0c 24 00       	orq    $0x0,(%rsp)
    9cd3:	48 81 ec a8 00 00 00 	sub    $0xa8,%rsp
    9cda:	89 f8                	mov    %edi,%eax
    9cdc:	48 89 b5 60 ef ff ff 	mov    %rsi,-0x10a0(%rbp)
    9ce3:	48 89 95 58 ef ff ff 	mov    %rdx,-0x10a8(%rbp)
    9cea:	48 89 8d 50 ef ff ff 	mov    %rcx,-0x10b0(%rbp)
    9cf1:	88 85 6c ef ff ff    	mov    %al,-0x1094(%rbp)
    9cf7:	64 48 8b 04 25 28 00 	mov    %fs:0x28,%rax
    9cfe:	00 00 
    9d00:	48 89 45 e8          	mov    %rax,-0x18(%rbp)
    9d04:	31 c0                	xor    %eax,%eax
    9d06:	c6 85 7b ef ff ff 40 	movb   $0x40,-0x1085(%rbp)
    9d0d:	c7 85 94 ef ff ff f7 	movl   $0xfffffff7,-0x106c(%rbp)
    9d14:	ff ff ff 
    9d17:	c7 85 f0 f0 ff ff 6e 	movl   $0x67e4e26e,-0xf10(%rbp)
    9d1e:	e2 e4 67 
    9d21:	c7 85 f4 f0 ff ff 6e 	movl   $0x67e4e26e,-0xf0c(%rbp)
    9d28:	e2 e4 67 
    9d2b:	c7 85 f8 f0 ff ff 6e 	movl   $0x67e4e26e,-0xf08(%rbp)
    9d32:	e2 e4 67 
    9d35:	c7 85 fc f0 ff ff 6e 	movl   $0x67e4e26e,-0xf04(%rbp)
    9d3c:	e2 e4 67 
    9d3f:	c7 85 00 f1 ff ff 6e 	movl   $0x67e4e26e,-0xf00(%rbp)
    9d46:	e2 e4 67 
    9d49:	c7 85 98 ef ff ff 06 	movl   $0x6,-0x1068(%rbp)
    9d50:	00 00 00 
    9d53:	c7 85 9c ef ff ff 01 	movl   $0x1,-0x1064(%rbp)
    9d5a:	00 00 00 
    9d5d:	c7 85 a0 ef ff ff f9 	movl   $0xfffffff9,-0x1060(%rbp)
    9d64:	ff ff ff 
    9d67:	c7 85 a4 ef ff ff 07 	movl   $0x7,-0x105c(%rbp)
    9d6e:	00 00 00 
    9d71:	c7 85 a8 ef ff ff 1f 	movl   $0x912ff21f,-0x1058(%rbp)
    9d78:	f2 2f 91 
    9d7b:	c7 85 ac ef ff ff 6c 	movl   $0x53f0a16c,-0x1054(%rbp)
    9d82:	a1 f0 53 
    9d85:	c7 85 b0 ef ff ff 2a 	movl   $0xc621ba2a,-0x1050(%rbp)
    9d8c:	ba 21 c6 
    9d8f:	c7 85 b4 ef ff ff ff 	movl   $0xffffffff,-0x104c(%rbp)
    9d96:	ff ff ff 
    9d99:	c7 85 b8 ef ff ff f6 	movl   $0xfffffff6,-0x1048(%rbp)
    9da0:	ff ff ff 
    9da3:	c7 85 bc ef ff ff 1f 	movl   $0x59b0941f,-0x1044(%rbp)
    9daa:	94 b0 59 
    9dad:	48 c7 85 48 f0 ff ff 	movq   $0x0,-0xfb8(%rbp)
    9db4:	00 00 00 00 
    9db8:	48 8d 05 d9 db 00 00 	lea    0xdbd9(%rip),%rax        # 17998 <g_320>
    9dbf:	48 89 85 10 f0 ff ff 	mov    %rax,-0xff0(%rbp)
    9dc6:	48 8d 85 10 f0 ff ff 	lea    -0xff0(%rbp),%rax
    9dcd:	48 89 85 18 f0 ff ff 	mov    %rax,-0xfe8(%rbp)
    9dd4:	c7 85 c0 ef ff ff 67 	movl   $0x6bd69a67,-0x1040(%rbp)
    9ddb:	9a d6 6b 
    9dde:	48 c7 85 20 f0 ff ff 	movq   $0x0,-0xfe0(%rbp)
    9de5:	00 00 00 00 
    9de9:	48 c7 85 28 f0 ff ff 	movq   $0x0,-0xfd8(%rbp)
    9df0:	00 00 00 00 
    9df4:	48 8d 85 28 f0 ff ff 	lea    -0xfd8(%rbp),%rax
    9dfb:	48 89 85 50 f0 ff ff 	mov    %rax,-0xfb0(%rbp)
    9e02:	48 8d 05 37 e7 00 00 	lea    0xe737(%rip),%rax        # 18540 <g_3250>
    9e09:	48 89 85 58 f0 ff ff 	mov    %rax,-0xfa8(%rbp)
    9e10:	48 c7 85 60 f0 ff ff 	movq   $0x0,-0xfa0(%rbp)
    9e17:	00 00 00 00 
    9e1b:	c7 85 c4 ef ff ff 01 	movl   $0x1,-0x103c(%rbp)
    9e22:	00 00 00 
    9e25:	c7 85 c8 ef ff ff 74 	movl   $0xdd581474,-0x1038(%rbp)
    9e2c:	14 58 dd 
    9e2f:	48 8d 85 20 f0 ff ff 	lea    -0xfe0(%rbp),%rax
    9e36:	48 89 85 68 f0 ff ff 	mov    %rax,-0xf98(%rbp)
    9e3d:	48 8d 05 24 e0 00 00 	lea    0xe024(%rip),%rax        # 17e68 <g_1822+0x8>
    9e44:	48 89 85 70 f0 ff ff 	mov    %rax,-0xf90(%rbp)
    9e4b:	48 8d 05 12 d0 00 00 	lea    0xd012(%rip),%rax        # 16e64 <g_3348>
    9e52:	48 89 85 78 f0 ff ff 	mov    %rax,-0xf88(%rbp)
    9e59:	c7 85 cc ef ff ff 5a 	movl   $0x7b72a35a,-0x1034(%rbp)
    9e60:	a3 72 7b 
    9e63:	c6 85 7c ef ff ff d5 	movb   $0xd5,-0x1084(%rbp)
    9e6a:	c7 85 d0 ef ff ff ff 	movl   $0xffffffff,-0x1030(%rbp)
    9e71:	ff ff ff 
    9e74:	c7 85 d4 ef ff ff b9 	movl   $0x3c8a1fb9,-0x102c(%rbp)
    9e7b:	1f 8a 3c 
    9e7e:	c7 85 d8 ef ff ff e7 	movl   $0x22dd74e7,-0x1028(%rbp)
    9e85:	74 dd 22 
    9e88:	c7 85 dc ef ff ff 00 	movl   $0x0,-0x1024(%rbp)
    9e8f:	00 00 00 
    9e92:	c7 85 e0 ef ff ff f8 	movl   $0xfffffff8,-0x1020(%rbp)
    9e99:	ff ff ff 
    9e9c:	c7 85 e4 ef ff ff 8a 	movl   $0x9cf7118a,-0x101c(%rbp)
    9ea3:	11 f7 9c 
    9ea6:	48 b8 b7 ba 77 3e 66 	movabs $0xb0adc0663e77bab7,%rax
    9ead:	c0 ad b0 
    9eb0:	48 89 85 80 f0 ff ff 	mov    %rax,-0xf80(%rbp)
    9eb7:	c7 85 e8 ef ff ff 04 	movl   $0x4,-0x1018(%rbp)
    9ebe:	00 00 00 
    9ec1:	c7 85 ec ef ff ff 02 	movl   $0x2,-0x1014(%rbp)
    9ec8:	00 00 00 
    9ecb:	c7 85 f0 ef ff ff 01 	movl   $0x1,-0x1010(%rbp)
    9ed2:	00 00 00 
    9ed5:	c7 85 f4 ef ff ff f0 	movl   $0xff5de4f0,-0x100c(%rbp)
    9edc:	e4 5d ff 
    9edf:	48 8d 85 a0 f4 ff ff 	lea    -0xb60(%rbp),%rax
    9ee6:	48 8d 15 b3 74 00 00 	lea    0x74b3(%rip),%rdx        # 113a0 <g_3193+0x2a0>
    9eed:	b9 78 00 00 00       	mov    $0x78,%ecx
    9ef2:	48 89 c7             	mov    %rax,%rdi
    9ef5:	48 89 d6             	mov    %rdx,%rsi
    9ef8:	f3 48 a5             	rep movsq %ds:(%rsi),%es:(%rdi)
    9efb:	48 b8 9b 02 1b d4 57 	movabs $0xabfba457d41b029b,%rax
    9f02:	a4 fb ab 
    9f05:	48 89 85 88 f0 ff ff 	mov    %rax,-0xf78(%rbp)
    9f0c:	c7 85 f8 ef ff ff 00 	movl   $0x0,-0x1008(%rbp)
    9f13:	00 00 00 
    9f16:	c7 85 80 ef ff ff 00 	movl   $0x0,-0x1080(%rbp)
    9f1d:	00 00 00 
    9f20:	eb 1e                	jmp    9f40 <func_15+0x282>
    9f22:	8b 85 80 ef ff ff    	mov    -0x1080(%rbp),%eax
    9f28:	48 98                	cltq   
    9f2a:	48 8d 95 18 f0 ff ff 	lea    -0xfe8(%rbp),%rdx
    9f31:	48 89 94 c5 40 f1 ff 	mov    %rdx,-0xec0(%rbp,%rax,8)
    9f38:	ff 
    9f39:	83 85 80 ef ff ff 01 	addl   $0x1,-0x1080(%rbp)
    9f40:	83 bd 80 ef ff ff 05 	cmpl   $0x5,-0x1080(%rbp)
    9f47:	7e d9                	jle    9f22 <func_15+0x264>
    9f49:	66 c7 05 3c c9 00 00 	movw   $0x5,0xc93c(%rip)        # 1688e <g_2569>
    9f50:	05 00 
    9f52:	e9 ad 06 00 00       	jmpq   a604 <func_15+0x946>
    9f57:	48 8d 05 ea eb 00 00 	lea    0xebea(%rip),%rax        # 18b48 <g_1169>
    9f5e:	48 89 85 b8 f0 ff ff 	mov    %rax,-0xf48(%rbp)
    9f65:	48 8d 85 60 f8 ff ff 	lea    -0x7a0(%rbp),%rax
    9f6c:	48 8d 15 ed 77 00 00 	lea    0x77ed(%rip),%rdx        # 11760 <g_3193+0x660>
    9f73:	b9 7e 00 00 00       	mov    $0x7e,%ecx
    9f78:	48 89 c7             	mov    %rax,%rdi
    9f7b:	48 89 d6             	mov    %rdx,%rsi
    9f7e:	f3 48 a5             	rep movsq %ds:(%rsi),%es:(%rdi)
    9f81:	66 c7 85 7e ef ff ff 	movw   $0x8b26,-0x1082(%rbp)
    9f88:	26 8b 
    9f8a:	c7 05 d4 c7 00 00 00 	movl   $0x0,0xc7d4(%rip)        # 16768 <g_1516>
    9f91:	00 00 00 
    9f94:	eb 23                	jmp    9fb9 <func_15+0x2fb>
    9f96:	48 8b 15 03 da 00 00 	mov    0xda03(%rip),%rdx        # 179a0 <g_398>
    9f9d:	48 8b 05 fc d9 00 00 	mov    0xd9fc(%rip),%rax        # 179a0 <g_398>
    9fa4:	48 8b 12             	mov    (%rdx),%rdx
    9fa7:	48 89 10             	mov    %rdx,(%rax)
    9faa:	8b 05 b8 c7 00 00    	mov    0xc7b8(%rip),%eax        # 16768 <g_1516>
    9fb0:	83 c0 01             	add    $0x1,%eax
    9fb3:	89 05 af c7 00 00    	mov    %eax,0xc7af(%rip)        # 16768 <g_1516>
    9fb9:	8b 05 a9 c7 00 00    	mov    0xc7a9(%rip),%eax        # 16768 <g_1516>
    9fbf:	83 f8 09             	cmp    $0x9,%eax
    9fc2:	76 d2                	jbe    9f96 <func_15+0x2d8>
    9fc4:	48 8d 05 2d da 00 00 	lea    0xda2d(%rip),%rax        # 179f8 <g_1053+0x8>
    9fcb:	48 8d 15 26 da 00 00 	lea    0xda26(%rip),%rdx        # 179f8 <g_1053+0x8>
    9fd2:	48 8b 00             	mov    (%rax),%rax
    9fd5:	48 89 02             	mov    %rax,(%rdx)
    9fd8:	48 83 bd b8 f0 ff ff 	cmpq   $0x0,-0xf48(%rbp)
    9fdf:	00 
    9fe0:	0f 95 c2             	setne  %dl
    9fe3:	48 8b 05 9e db 00 00 	mov    0xdb9e(%rip),%rax        # 17b88 <g_1095>
    9fea:	48 8b 00             	mov    (%rax),%rax
    9fed:	48 8b 00             	mov    (%rax),%rax
    9ff0:	0f b6 d2             	movzbl %dl,%edx
    9ff3:	89 10                	mov    %edx,(%rax)
    9ff5:	8b 18                	mov    (%rax),%ebx
    9ff7:	0f b6 95 6c ef ff ff 	movzbl -0x1094(%rbp),%edx
    9ffe:	8b 05 2c ce 00 00    	mov    0xce2c(%rip),%eax        # 16e30 <g_2977+0x10>
    a004:	48 8d 05 ed d9 00 00 	lea    0xd9ed(%rip),%rax        # 179f8 <g_1053+0x8>
    a00b:	48 8b 00             	mov    (%rax),%rax
    a00e:	8b 00                	mov    (%rax),%eax
    a010:	48 8b 05 c9 dc 00 00 	mov    0xdcc9(%rip),%rax        # 17ce0 <g_1796>
    a017:	48 8b 00             	mov    (%rax),%rax
    a01a:	48 8b 00             	mov    (%rax),%rax
    a01d:	48 8b 08             	mov    (%rax),%rcx
    a020:	8b 85 a4 f8 ff ff    	mov    -0x75c(%rbp),%eax
    a026:	48 98                	cltq   
    a028:	48 39 c1             	cmp    %rax,%rcx
    a02b:	0f 93 c0             	setae  %al
    a02e:	0f b6 c0             	movzbl %al,%eax
    a031:	48 89 d6             	mov    %rdx,%rsi
    a034:	48 89 c7             	mov    %rax,%rdi
    a037:	e8 f2 bf ff ff       	callq  602e <safe_add_func_uint64_t_u_u>
    a03c:	0f b6 c0             	movzbl %al,%eax
    a03f:	89 c6                	mov    %eax,%esi
    a041:	bf 00 00 00 00       	mov    $0x0,%edi
    a046:	e8 90 bb ff ff       	callq  5bdb <safe_div_func_uint8_t_u_u>
    a04b:	0f b6 85 6c ef ff ff 	movzbl -0x1094(%rbp),%eax
    a052:	be 04 00 00 00       	mov    $0x4,%esi
    a057:	89 c7                	mov    %eax,%edi
    a059:	e8 34 b4 ff ff       	callq  5492 <safe_lshift_func_int16_t_s_s>
    a05e:	98                   	cwtl   
    a05f:	39 c3                	cmp    %eax,%ebx
    a061:	0f 9e c0             	setle  %al
    a064:	0f b6 c8             	movzbl %al,%ecx
    a067:	48 8b 05 3a d9 00 00 	mov    0xd93a(%rip),%rax        # 179a8 <g_468>
    a06e:	8b 10                	mov    (%rax),%edx
    a070:	48 8b 05 31 d9 00 00 	mov    0xd931(%rip),%rax        # 179a8 <g_468>
    a077:	09 ca                	or     %ecx,%edx
    a079:	89 10                	mov    %edx,(%rax)
    a07b:	48 8b 05 3e d9 00 00 	mov    0xd93e(%rip),%rax        # 179c0 <g_903>
    a082:	c7 00 01 00 00 00    	movl   $0x1,(%rax)
    a088:	c7 05 b2 c3 00 00 00 	movl   $0x0,0xc3b2(%rip)        # 16444 <g_675>
    a08f:	00 00 00 
    a092:	e9 4d 05 00 00       	jmpq   a5e4 <func_15+0x926>
    a097:	48 8d 05 82 c3 00 00 	lea    0xc382(%rip),%rax        # 16420 <g_464>
    a09e:	48 89 85 c0 f0 ff ff 	mov    %rax,-0xf40(%rbp)
    a0a5:	48 8d 05 24 da 00 00 	lea    0xda24(%rip),%rax        # 17ad0 <g_1055+0xb0>
    a0ac:	48 89 85 c8 f0 ff ff 	mov    %rax,-0xf38(%rbp)
    a0b3:	48 8d 05 de c1 00 00 	lea    0xc1de(%rip),%rax        # 16298 <g_156+0x158>
    a0ba:	48 89 85 d0 f0 ff ff 	mov    %rax,-0xf30(%rbp)
    a0c1:	c7 85 08 f0 ff ff b3 	movl   $0xb2c4c6b3,-0xff8(%rbp)
    a0c8:	c6 c4 b2 
    a0cb:	c6 85 7d ef ff ff 99 	movb   $0x99,-0x1083(%rbp)
    a0d2:	c7 85 0c f0 ff ff 09 	movl   $0x9,-0xff4(%rbp)
    a0d9:	00 00 00 
    a0dc:	c7 85 84 ef ff ff 00 	movl   $0x0,-0x107c(%rbp)
    a0e3:	00 00 00 
    a0e6:	eb 1a                	jmp    a102 <func_15+0x444>
    a0e8:	8b 85 84 ef ff ff    	mov    -0x107c(%rbp),%eax
    a0ee:	48 98                	cltq   
    a0f0:	c7 84 85 10 f1 ff ff 	movl   $0x1,-0xef0(%rbp,%rax,4)
    a0f7:	01 00 00 00 
    a0fb:	83 85 84 ef ff ff 01 	addl   $0x1,-0x107c(%rbp)
    a102:	83 bd 84 ef ff ff 09 	cmpl   $0x9,-0x107c(%rbp)
    a109:	7e dd                	jle    a0e8 <func_15+0x42a>
    a10b:	48 8b 05 8e d8 00 00 	mov    0xd88e(%rip),%rax        # 179a0 <g_398>
    a112:	48 8b 00             	mov    (%rax),%rax
    a115:	48 89 85 c0 f0 ff ff 	mov    %rax,-0xf40(%rbp)
    a11c:	c7 05 1e c5 00 00 05 	movl   $0x5,0xc51e(%rip)        # 16644 <g_724>
    a123:	00 00 00 
    a126:	e9 8f 04 00 00       	jmpq   a5ba <func_15+0x8fc>
    a12b:	48 8d 05 fe bf 00 00 	lea    0xbffe(%rip),%rax        # 16130 <g_125>
    a132:	48 89 85 d8 f0 ff ff 	mov    %rax,-0xf28(%rbp)
    a139:	48 8d 85 70 f1 ff ff 	lea    -0xe90(%rbp),%rax
    a140:	48 8d 15 19 7a 00 00 	lea    0x7a19(%rip),%rdx        # 11b60 <g_3193+0xa60>
    a147:	b9 1f 00 00 00       	mov    $0x1f,%ecx
    a14c:	48 89 c7             	mov    %rax,%rdi
    a14f:	48 89 d6             	mov    %rdx,%rsi
    a152:	f3 48 a5             	rep movsq %ds:(%rsi),%es:(%rdi)
    a155:	48 89 f2             	mov    %rsi,%rdx
    a158:	48 89 f8             	mov    %rdi,%rax
    a15b:	8b 0a                	mov    (%rdx),%ecx
    a15d:	89 08                	mov    %ecx,(%rax)
    a15f:	48 8d 40 04          	lea    0x4(%rax),%rax
    a163:	48 8d 52 04          	lea    0x4(%rdx),%rdx
    a167:	48 c7 85 e0 f0 ff ff 	movq   $0x0,-0xf20(%rbp)
    a16e:	00 00 00 00 
    a172:	48 8d 05 3f db 00 00 	lea    0xdb3f(%rip),%rax        # 17cb8 <g_1538+0x58>
    a179:	48 89 85 30 f0 ff ff 	mov    %rax,-0xfd0(%rbp)
    a180:	48 8d 85 30 f0 ff ff 	lea    -0xfd0(%rbp),%rax
    a187:	48 89 85 e8 f0 ff ff 	mov    %rax,-0xf18(%rbp)
    a18e:	48 c7 85 38 f0 ff ff 	movq   $0x0,-0xfc8(%rbp)
    a195:	00 00 00 00 
    a199:	48 8d 85 38 f0 ff ff 	lea    -0xfc8(%rbp),%rax
    a1a0:	48 89 85 40 f0 ff ff 	mov    %rax,-0xfc0(%rbp)
    a1a7:	48 8d 85 40 f0 ff ff 	lea    -0xfc0(%rbp),%rax
    a1ae:	48 89 85 70 f2 ff ff 	mov    %rax,-0xd90(%rbp)
    a1b5:	48 8d 85 40 f0 ff ff 	lea    -0xfc0(%rbp),%rax
    a1bc:	48 89 85 78 f2 ff ff 	mov    %rax,-0xd88(%rbp)
    a1c3:	48 8d 85 40 f0 ff ff 	lea    -0xfc0(%rbp),%rax
    a1ca:	48 89 85 80 f2 ff ff 	mov    %rax,-0xd80(%rbp)
    a1d1:	48 8d 85 40 f0 ff ff 	lea    -0xfc0(%rbp),%rax
    a1d8:	48 89 85 88 f2 ff ff 	mov    %rax,-0xd78(%rbp)
    a1df:	48 8d 85 40 f0 ff ff 	lea    -0xfc0(%rbp),%rax
    a1e6:	48 89 85 90 f2 ff ff 	mov    %rax,-0xd70(%rbp)
    a1ed:	48 8d 85 40 f0 ff ff 	lea    -0xfc0(%rbp),%rax
    a1f4:	48 89 85 98 f2 ff ff 	mov    %rax,-0xd68(%rbp)
    a1fb:	48 8d 85 40 f0 ff ff 	lea    -0xfc0(%rbp),%rax
    a202:	48 89 85 a0 f2 ff ff 	mov    %rax,-0xd60(%rbp)
    a209:	48 8d 85 40 f0 ff ff 	lea    -0xfc0(%rbp),%rax
    a210:	48 89 85 a8 f2 ff ff 	mov    %rax,-0xd58(%rbp)
    a217:	48 8d 85 40 f0 ff ff 	lea    -0xfc0(%rbp),%rax
    a21e:	48 89 85 b0 f2 ff ff 	mov    %rax,-0xd50(%rbp)
    a225:	48 8d 85 40 f0 ff ff 	lea    -0xfc0(%rbp),%rax
    a22c:	48 89 85 b8 f2 ff ff 	mov    %rax,-0xd48(%rbp)
    a233:	48 8d 85 40 f0 ff ff 	lea    -0xfc0(%rbp),%rax
    a23a:	48 89 85 c0 f2 ff ff 	mov    %rax,-0xd40(%rbp)
    a241:	48 8d 85 40 f0 ff ff 	lea    -0xfc0(%rbp),%rax
    a248:	48 89 85 c8 f2 ff ff 	mov    %rax,-0xd38(%rbp)
    a24f:	48 8d 85 40 f0 ff ff 	lea    -0xfc0(%rbp),%rax
    a256:	48 89 85 d0 f2 ff ff 	mov    %rax,-0xd30(%rbp)
    a25d:	48 8d 85 40 f0 ff ff 	lea    -0xfc0(%rbp),%rax
    a264:	48 89 85 d8 f2 ff ff 	mov    %rax,-0xd28(%rbp)
    a26b:	48 8d 85 40 f0 ff ff 	lea    -0xfc0(%rbp),%rax
    a272:	48 89 85 e0 f2 ff ff 	mov    %rax,-0xd20(%rbp)
    a279:	48 8d 85 40 f0 ff ff 	lea    -0xfc0(%rbp),%rax
    a280:	48 89 85 e8 f2 ff ff 	mov    %rax,-0xd18(%rbp)
    a287:	48 8d 85 40 f0 ff ff 	lea    -0xfc0(%rbp),%rax
    a28e:	48 89 85 f0 f2 ff ff 	mov    %rax,-0xd10(%rbp)
    a295:	48 8d 85 40 f0 ff ff 	lea    -0xfc0(%rbp),%rax
    a29c:	48 89 85 f8 f2 ff ff 	mov    %rax,-0xd08(%rbp)
    a2a3:	48 8d 85 40 f0 ff ff 	lea    -0xfc0(%rbp),%rax
    a2aa:	48 89 85 00 f3 ff ff 	mov    %rax,-0xd00(%rbp)
    a2b1:	48 8d 85 40 f0 ff ff 	lea    -0xfc0(%rbp),%rax
    a2b8:	48 89 85 08 f3 ff ff 	mov    %rax,-0xcf8(%rbp)
    a2bf:	48 8d 85 40 f0 ff ff 	lea    -0xfc0(%rbp),%rax
    a2c6:	48 89 85 10 f3 ff ff 	mov    %rax,-0xcf0(%rbp)
    a2cd:	48 8d 85 40 f0 ff ff 	lea    -0xfc0(%rbp),%rax
    a2d4:	48 89 85 18 f3 ff ff 	mov    %rax,-0xce8(%rbp)
    a2db:	48 8d 85 40 f0 ff ff 	lea    -0xfc0(%rbp),%rax
    a2e2:	48 89 85 20 f3 ff ff 	mov    %rax,-0xce0(%rbp)
    a2e9:	48 8d 85 40 f0 ff ff 	lea    -0xfc0(%rbp),%rax
    a2f0:	48 89 85 28 f3 ff ff 	mov    %rax,-0xcd8(%rbp)
    a2f7:	48 8d 85 40 f0 ff ff 	lea    -0xfc0(%rbp),%rax
    a2fe:	48 89 85 30 f3 ff ff 	mov    %rax,-0xcd0(%rbp)
    a305:	48 8d 85 40 f0 ff ff 	lea    -0xfc0(%rbp),%rax
    a30c:	48 89 85 38 f3 ff ff 	mov    %rax,-0xcc8(%rbp)
    a313:	48 8d 85 40 f0 ff ff 	lea    -0xfc0(%rbp),%rax
    a31a:	48 89 85 40 f3 ff ff 	mov    %rax,-0xcc0(%rbp)
    a321:	48 8d 85 40 f0 ff ff 	lea    -0xfc0(%rbp),%rax
    a328:	48 89 85 48 f3 ff ff 	mov    %rax,-0xcb8(%rbp)
    a32f:	48 8d 85 40 f0 ff ff 	lea    -0xfc0(%rbp),%rax
    a336:	48 89 85 50 f3 ff ff 	mov    %rax,-0xcb0(%rbp)
    a33d:	48 8d 85 40 f0 ff ff 	lea    -0xfc0(%rbp),%rax
    a344:	48 89 85 58 f3 ff ff 	mov    %rax,-0xca8(%rbp)
    a34b:	48 8d 85 40 f0 ff ff 	lea    -0xfc0(%rbp),%rax
    a352:	48 89 85 60 f3 ff ff 	mov    %rax,-0xca0(%rbp)
    a359:	48 8d 85 40 f0 ff ff 	lea    -0xfc0(%rbp),%rax
    a360:	48 89 85 68 f3 ff ff 	mov    %rax,-0xc98(%rbp)
    a367:	48 8d 85 40 f0 ff ff 	lea    -0xfc0(%rbp),%rax
    a36e:	48 89 85 70 f3 ff ff 	mov    %rax,-0xc90(%rbp)
    a375:	48 8d 85 40 f0 ff ff 	lea    -0xfc0(%rbp),%rax
    a37c:	48 89 85 78 f3 ff ff 	mov    %rax,-0xc88(%rbp)
    a383:	48 8d 85 40 f0 ff ff 	lea    -0xfc0(%rbp),%rax
    a38a:	48 89 85 80 f3 ff ff 	mov    %rax,-0xc80(%rbp)
    a391:	48 8d 85 40 f0 ff ff 	lea    -0xfc0(%rbp),%rax
    a398:	48 89 85 88 f3 ff ff 	mov    %rax,-0xc78(%rbp)
    a39f:	48 8d 85 40 f0 ff ff 	lea    -0xfc0(%rbp),%rax
    a3a6:	48 89 85 90 f3 ff ff 	mov    %rax,-0xc70(%rbp)
    a3ad:	48 8d 85 40 f0 ff ff 	lea    -0xfc0(%rbp),%rax
    a3b4:	48 89 85 98 f3 ff ff 	mov    %rax,-0xc68(%rbp)
    a3bb:	48 8d 85 40 f0 ff ff 	lea    -0xfc0(%rbp),%rax
    a3c2:	48 89 85 a0 f3 ff ff 	mov    %rax,-0xc60(%rbp)
    a3c9:	48 8d 85 40 f0 ff ff 	lea    -0xfc0(%rbp),%rax
    a3d0:	48 89 85 a8 f3 ff ff 	mov    %rax,-0xc58(%rbp)
    a3d7:	48 8d 85 40 f0 ff ff 	lea    -0xfc0(%rbp),%rax
    a3de:	48 89 85 b0 f3 ff ff 	mov    %rax,-0xc50(%rbp)
    a3e5:	48 8d 85 40 f0 ff ff 	lea    -0xfc0(%rbp),%rax
    a3ec:	48 89 85 b8 f3 ff ff 	mov    %rax,-0xc48(%rbp)
    a3f3:	48 8d 85 40 f0 ff ff 	lea    -0xfc0(%rbp),%rax
    a3fa:	48 89 85 c0 f3 ff ff 	mov    %rax,-0xc40(%rbp)
    a401:	48 8d 85 40 f0 ff ff 	lea    -0xfc0(%rbp),%rax
    a408:	48 89 85 c8 f3 ff ff 	mov    %rax,-0xc38(%rbp)
    a40f:	48 8d 85 40 f0 ff ff 	lea    -0xfc0(%rbp),%rax
    a416:	48 89 85 d0 f3 ff ff 	mov    %rax,-0xc30(%rbp)
    a41d:	48 8d 85 40 f0 ff ff 	lea    -0xfc0(%rbp),%rax
    a424:	48 89 85 d8 f3 ff ff 	mov    %rax,-0xc28(%rbp)
    a42b:	48 8d 85 40 f0 ff ff 	lea    -0xfc0(%rbp),%rax
    a432:	48 89 85 e0 f3 ff ff 	mov    %rax,-0xc20(%rbp)
    a439:	48 8d 85 40 f0 ff ff 	lea    -0xfc0(%rbp),%rax
    a440:	48 89 85 e8 f3 ff ff 	mov    %rax,-0xc18(%rbp)
    a447:	48 8d 85 40 f0 ff ff 	lea    -0xfc0(%rbp),%rax
    a44e:	48 89 85 f0 f3 ff ff 	mov    %rax,-0xc10(%rbp)
    a455:	48 8d 85 40 f0 ff ff 	lea    -0xfc0(%rbp),%rax
    a45c:	48 89 85 f8 f3 ff ff 	mov    %rax,-0xc08(%rbp)
    a463:	48 8d 85 40 f0 ff ff 	lea    -0xfc0(%rbp),%rax
    a46a:	48 89 85 00 f4 ff ff 	mov    %rax,-0xc00(%rbp)
    a471:	48 8d 85 40 f0 ff ff 	lea    -0xfc0(%rbp),%rax
    a478:	48 89 85 08 f4 ff ff 	mov    %rax,-0xbf8(%rbp)
    a47f:	48 8d 85 40 f0 ff ff 	lea    -0xfc0(%rbp),%rax
    a486:	48 89 85 10 f4 ff ff 	mov    %rax,-0xbf0(%rbp)
    a48d:	48 8d 85 40 f0 ff ff 	lea    -0xfc0(%rbp),%rax
    a494:	48 89 85 18 f4 ff ff 	mov    %rax,-0xbe8(%rbp)
    a49b:	48 8d 85 40 f0 ff ff 	lea    -0xfc0(%rbp),%rax
    a4a2:	48 89 85 20 f4 ff ff 	mov    %rax,-0xbe0(%rbp)
    a4a9:	48 8d 85 40 f0 ff ff 	lea    -0xfc0(%rbp),%rax
    a4b0:	48 89 85 28 f4 ff ff 	mov    %rax,-0xbd8(%rbp)
    a4b7:	48 8d 85 40 f0 ff ff 	lea    -0xfc0(%rbp),%rax
    a4be:	48 89 85 30 f4 ff ff 	mov    %rax,-0xbd0(%rbp)
    a4c5:	48 8d 85 40 f0 ff ff 	lea    -0xfc0(%rbp),%rax
    a4cc:	48 89 85 38 f4 ff ff 	mov    %rax,-0xbc8(%rbp)
    a4d3:	48 8d 85 40 f0 ff ff 	lea    -0xfc0(%rbp),%rax
    a4da:	48 89 85 40 f4 ff ff 	mov    %rax,-0xbc0(%rbp)
    a4e1:	48 8d 85 40 f0 ff ff 	lea    -0xfc0(%rbp),%rax
    a4e8:	48 89 85 48 f4 ff ff 	mov    %rax,-0xbb8(%rbp)
    a4ef:	48 8d 85 40 f0 ff ff 	lea    -0xfc0(%rbp),%rax
    a4f6:	48 89 85 50 f4 ff ff 	mov    %rax,-0xbb0(%rbp)
    a4fd:	48 8d 85 40 f0 ff ff 	lea    -0xfc0(%rbp),%rax
    a504:	48 89 85 58 f4 ff ff 	mov    %rax,-0xba8(%rbp)
    a50b:	48 8d 85 40 f0 ff ff 	lea    -0xfc0(%rbp),%rax
    a512:	48 89 85 60 f4 ff ff 	mov    %rax,-0xba0(%rbp)
    a519:	48 8d 85 40 f0 ff ff 	lea    -0xfc0(%rbp),%rax
    a520:	48 89 85 68 f4 ff ff 	mov    %rax,-0xb98(%rbp)
    a527:	48 8d 85 40 f0 ff ff 	lea    -0xfc0(%rbp),%rax
    a52e:	48 89 85 70 f4 ff ff 	mov    %rax,-0xb90(%rbp)
    a535:	48 8d 85 40 f0 ff ff 	lea    -0xfc0(%rbp),%rax
    a53c:	48 89 85 78 f4 ff ff 	mov    %rax,-0xb88(%rbp)
    a543:	48 8d 85 40 f0 ff ff 	lea    -0xfc0(%rbp),%rax
    a54a:	48 89 85 80 f4 ff ff 	mov    %rax,-0xb80(%rbp)
    a551:	48 8d 85 40 f0 ff ff 	lea    -0xfc0(%rbp),%rax
    a558:	48 89 85 88 f4 ff ff 	mov    %rax,-0xb78(%rbp)
    a55f:	48 8d 85 40 f0 ff ff 	lea    -0xfc0(%rbp),%rax
    a566:	48 89 85 90 f4 ff ff 	mov    %rax,-0xb70(%rbp)
    a56d:	48 8d 85 40 f0 ff ff 	lea    -0xfc0(%rbp),%rax
    a574:	48 89 85 98 f4 ff ff 	mov    %rax,-0xb68(%rbp)
    a57b:	8b 05 bb c8 00 00    	mov    0xc8bb(%rip),%eax        # 16e3c <g_2980>
    a581:	0f b6 95 6c ef ff ff 	movzbl -0x1094(%rbp),%edx
    a588:	48 83 bd c8 f0 ff ff 	cmpq   $0x0,-0xf38(%rbp)
    a58f:	00 
    a590:	0f 95 c0             	setne  %al
    a593:	0f b6 c0             	movzbl %al,%eax
    a596:	89 d6                	mov    %edx,%esi
    a598:	89 c7                	mov    %eax,%edi
    a59a:	e8 f3 ae ff ff       	callq  5492 <safe_lshift_func_int16_t_s_s>
    a59f:	0f bf d0             	movswl %ax,%edx
    a5a2:	48 8b 85 60 ef ff ff 	mov    -0x10a0(%rbp),%rax
    a5a9:	89 10                	mov    %edx,(%rax)
    a5ab:	8b 05 93 c0 00 00    	mov    0xc093(%rip),%eax        # 16644 <g_724>
    a5b1:	83 e8 01             	sub    $0x1,%eax
    a5b4:	89 05 8a c0 00 00    	mov    %eax,0xc08a(%rip)        # 16644 <g_724>
    a5ba:	8b 05 84 c0 00 00    	mov    0xc084(%rip),%eax        # 16644 <g_724>
    a5c0:	85 c0                	test   %eax,%eax
    a5c2:	0f 89 63 fb ff ff    	jns    a12b <func_15+0x46d>
    a5c8:	48 8b 05 d9 d3 00 00 	mov    0xd3d9(%rip),%rax        # 179a8 <g_468>
    a5cf:	c7 00 01 00 00 00    	movl   $0x1,(%rax)
    a5d5:	8b 05 69 be 00 00    	mov    0xbe69(%rip),%eax        # 16444 <g_675>
    a5db:	83 c0 01             	add    $0x1,%eax
    a5de:	89 05 60 be 00 00    	mov    %eax,0xbe60(%rip)        # 16444 <g_675>
    a5e4:	8b 05 5a be 00 00    	mov    0xbe5a(%rip),%eax        # 16444 <g_675>
    a5ea:	83 f8 05             	cmp    $0x5,%eax
    a5ed:	0f 86 a4 fa ff ff    	jbe    a097 <func_15+0x3d9>
    a5f3:	0f b7 05 94 c2 00 00 	movzwl 0xc294(%rip),%eax        # 1688e <g_2569>
    a5fa:	83 e8 01             	sub    $0x1,%eax
    a5fd:	66 89 05 8a c2 00 00 	mov    %ax,0xc28a(%rip)        # 1688e <g_2569>
    a604:	0f b7 05 83 c2 00 00 	movzwl 0xc283(%rip),%eax        # 1688e <g_2569>
    a60b:	66 85 c0             	test   %ax,%ax
    a60e:	0f 8f 43 f9 ff ff    	jg     9f57 <func_15+0x299>
    a614:	c7 05 3a c1 00 00 00 	movl   $0x0,0xc13a(%rip)        # 16758 <g_1403>
    a61b:	00 00 00 
    a61e:	e9 45 03 00 00       	jmpq   a968 <func_15+0xcaa>
    a623:	c7 85 fc ef ff ff 4c 	movl   $0x37ea764c,-0x1004(%rbp)
    a62a:	76 ea 37 
    a62d:	c7 85 00 f0 ff ff d3 	movl   $0x84e6b9d3,-0x1000(%rbp)
    a634:	b9 e6 84 
    a637:	48 8d 05 92 d4 00 00 	lea    0xd492(%rip),%rax        # 17ad0 <g_1055+0xb0>
    a63e:	48 89 85 38 f0 ff ff 	mov    %rax,-0xfc8(%rbp)
    a645:	48 8d 85 38 f0 ff ff 	lea    -0xfc8(%rbp),%rax
    a64c:	48 89 85 70 f2 ff ff 	mov    %rax,-0xd90(%rbp)
    a653:	48 c7 85 78 f2 ff ff 	movq   $0x0,-0xd88(%rbp)
    a65a:	00 00 00 00 
    a65e:	48 c7 85 80 f2 ff ff 	movq   $0x0,-0xd80(%rbp)
    a665:	00 00 00 00 
    a669:	48 8d 85 38 f0 ff ff 	lea    -0xfc8(%rbp),%rax
    a670:	48 89 85 88 f2 ff ff 	mov    %rax,-0xd78(%rbp)
    a677:	48 c7 85 90 f2 ff ff 	movq   $0x0,-0xd70(%rbp)
    a67e:	00 00 00 00 
    a682:	48 8d 85 38 f0 ff ff 	lea    -0xfc8(%rbp),%rax
    a689:	48 89 85 98 f2 ff ff 	mov    %rax,-0xd68(%rbp)
    a690:	48 8d 85 38 f0 ff ff 	lea    -0xfc8(%rbp),%rax
    a697:	48 89 85 a0 f2 ff ff 	mov    %rax,-0xd60(%rbp)
    a69e:	48 8d 85 38 f0 ff ff 	lea    -0xfc8(%rbp),%rax
    a6a5:	48 89 85 a8 f2 ff ff 	mov    %rax,-0xd58(%rbp)
    a6ac:	48 8d 85 38 f0 ff ff 	lea    -0xfc8(%rbp),%rax
    a6b3:	48 89 85 b0 f2 ff ff 	mov    %rax,-0xd50(%rbp)
    a6ba:	48 8d 85 38 f0 ff ff 	lea    -0xfc8(%rbp),%rax
    a6c1:	48 89 85 b8 f2 ff ff 	mov    %rax,-0xd48(%rbp)
    a6c8:	48 c7 85 c0 f2 ff ff 	movq   $0x0,-0xd40(%rbp)
    a6cf:	00 00 00 00 
    a6d3:	48 8d 85 38 f0 ff ff 	lea    -0xfc8(%rbp),%rax
    a6da:	48 89 85 c8 f2 ff ff 	mov    %rax,-0xd38(%rbp)
    a6e1:	48 c7 85 d0 f2 ff ff 	movq   $0x0,-0xd30(%rbp)
    a6e8:	00 00 00 00 
    a6ec:	48 c7 85 d8 f2 ff ff 	movq   $0x0,-0xd28(%rbp)
    a6f3:	00 00 00 00 
    a6f7:	48 8d 85 38 f0 ff ff 	lea    -0xfc8(%rbp),%rax
    a6fe:	48 89 85 e0 f2 ff ff 	mov    %rax,-0xd20(%rbp)
    a705:	48 8d 85 38 f0 ff ff 	lea    -0xfc8(%rbp),%rax
    a70c:	48 89 85 e8 f2 ff ff 	mov    %rax,-0xd18(%rbp)
    a713:	48 c7 85 f0 f2 ff ff 	movq   $0x0,-0xd10(%rbp)
    a71a:	00 00 00 00 
    a71e:	48 c7 85 f8 f2 ff ff 	movq   $0x0,-0xd08(%rbp)
    a725:	00 00 00 00 
    a729:	48 8d 85 38 f0 ff ff 	lea    -0xfc8(%rbp),%rax
    a730:	48 89 85 00 f3 ff ff 	mov    %rax,-0xd00(%rbp)
    a737:	48 c7 85 08 f3 ff ff 	movq   $0x0,-0xcf8(%rbp)
    a73e:	00 00 00 00 
    a742:	48 8d 85 38 f0 ff ff 	lea    -0xfc8(%rbp),%rax
    a749:	48 89 85 10 f3 ff ff 	mov    %rax,-0xcf0(%rbp)
    a750:	48 8d 85 38 f0 ff ff 	lea    -0xfc8(%rbp),%rax
    a757:	48 89 85 18 f3 ff ff 	mov    %rax,-0xce8(%rbp)
    a75e:	48 8d 85 38 f0 ff ff 	lea    -0xfc8(%rbp),%rax
    a765:	48 89 85 20 f3 ff ff 	mov    %rax,-0xce0(%rbp)
    a76c:	48 8d 85 38 f0 ff ff 	lea    -0xfc8(%rbp),%rax
    a773:	48 89 85 28 f3 ff ff 	mov    %rax,-0xcd8(%rbp)
    a77a:	48 8d 85 38 f0 ff ff 	lea    -0xfc8(%rbp),%rax
    a781:	48 89 85 30 f3 ff ff 	mov    %rax,-0xcd0(%rbp)
    a788:	48 c7 85 38 f3 ff ff 	movq   $0x0,-0xcc8(%rbp)
    a78f:	00 00 00 00 
    a793:	48 8d 85 38 f0 ff ff 	lea    -0xfc8(%rbp),%rax
    a79a:	48 89 85 40 f3 ff ff 	mov    %rax,-0xcc0(%rbp)
    a7a1:	48 c7 85 48 f3 ff ff 	movq   $0x0,-0xcb8(%rbp)
    a7a8:	00 00 00 00 
    a7ac:	48 c7 85 50 f3 ff ff 	movq   $0x0,-0xcb0(%rbp)
    a7b3:	00 00 00 00 
    a7b7:	48 8d 85 38 f0 ff ff 	lea    -0xfc8(%rbp),%rax
    a7be:	48 89 85 58 f3 ff ff 	mov    %rax,-0xca8(%rbp)
    a7c5:	48 8d 85 38 f0 ff ff 	lea    -0xfc8(%rbp),%rax
    a7cc:	48 89 85 60 f3 ff ff 	mov    %rax,-0xca0(%rbp)
    a7d3:	48 c7 85 68 f3 ff ff 	movq   $0x0,-0xc98(%rbp)
    a7da:	00 00 00 00 
    a7de:	48 c7 85 70 f3 ff ff 	movq   $0x0,-0xc90(%rbp)
    a7e5:	00 00 00 00 
    a7e9:	48 8d 85 38 f0 ff ff 	lea    -0xfc8(%rbp),%rax
    a7f0:	48 89 85 78 f3 ff ff 	mov    %rax,-0xc88(%rbp)
    a7f7:	48 c7 85 80 f3 ff ff 	movq   $0x0,-0xc80(%rbp)
    a7fe:	00 00 00 00 
    a802:	48 8d 85 38 f0 ff ff 	lea    -0xfc8(%rbp),%rax
    a809:	48 89 85 88 f3 ff ff 	mov    %rax,-0xc78(%rbp)
    a810:	48 8d 85 38 f0 ff ff 	lea    -0xfc8(%rbp),%rax
    a817:	48 89 85 90 f3 ff ff 	mov    %rax,-0xc70(%rbp)
    a81e:	48 8d 85 38 f0 ff ff 	lea    -0xfc8(%rbp),%rax
    a825:	48 89 85 98 f3 ff ff 	mov    %rax,-0xc68(%rbp)
    a82c:	48 8d 85 38 f0 ff ff 	lea    -0xfc8(%rbp),%rax
    a833:	48 89 85 a0 f3 ff ff 	mov    %rax,-0xc60(%rbp)
    a83a:	48 8d 85 38 f0 ff ff 	lea    -0xfc8(%rbp),%rax
    a841:	48 89 85 a8 f3 ff ff 	mov    %rax,-0xc58(%rbp)
    a848:	48 c7 85 90 f0 ff ff 	movq   $0x0,-0xf70(%rbp)
    a84f:	00 00 00 00 
    a853:	c7 85 04 f0 ff ff f8 	movl   $0xfffffff8,-0xffc(%rbp)
    a85a:	ff ff ff 
    a85d:	48 8d 85 20 f0 ff ff 	lea    -0xfe0(%rbp),%rax
    a864:	48 89 85 98 f0 ff ff 	mov    %rax,-0xf68(%rbp)
    a86b:	48 8d 05 ce d5 00 00 	lea    0xd5ce(%rip),%rax        # 17e40 <g_1823>
    a872:	48 89 85 a0 f0 ff ff 	mov    %rax,-0xf60(%rbp)
    a879:	48 c7 85 a8 f0 ff ff 	movq   $0x0,-0xf58(%rbp)
    a880:	00 00 00 00 
    a884:	48 8d 05 8f bb 00 00 	lea    0xbb8f(%rip),%rax        # 1641a <g_340+0x2>
    a88b:	48 89 85 40 f0 ff ff 	mov    %rax,-0xfc0(%rbp)
    a892:	48 8d 85 40 f0 ff ff 	lea    -0xfc0(%rbp),%rax
    a899:	48 89 85 b0 f0 ff ff 	mov    %rax,-0xf50(%rbp)
    a8a0:	c7 85 88 ef ff ff 00 	movl   $0x0,-0x1078(%rbp)
    a8a7:	00 00 00 
    a8aa:	eb 7c                	jmp    a928 <func_15+0xc6a>
    a8ac:	c7 85 8c ef ff ff 00 	movl   $0x0,-0x1074(%rbp)
    a8b3:	00 00 00 
    a8b6:	eb 60                	jmp    a918 <func_15+0xc5a>
    a8b8:	c7 85 90 ef ff ff 00 	movl   $0x0,-0x1070(%rbp)
    a8bf:	00 00 00 
    a8c2:	eb 44                	jmp    a908 <func_15+0xc4a>
    a8c4:	8b 85 90 ef ff ff    	mov    -0x1070(%rbp),%eax
    a8ca:	48 63 c8             	movslq %eax,%rcx
    a8cd:	8b 85 88 ef ff ff    	mov    -0x1078(%rbp),%eax
    a8d3:	48 63 d0             	movslq %eax,%rdx
    a8d6:	8b 85 8c ef ff ff    	mov    -0x1074(%rbp),%eax
    a8dc:	48 63 f0             	movslq %eax,%rsi
    a8df:	48 89 d0             	mov    %rdx,%rax
    a8e2:	48 01 c0             	add    %rax,%rax
    a8e5:	48 01 d0             	add    %rdx,%rax
    a8e8:	48 01 c0             	add    %rax,%rax
    a8eb:	48 01 f0             	add    %rsi,%rax
    a8ee:	48 c1 e0 03          	shl    $0x3,%rax
    a8f2:	48 01 c8             	add    %rcx,%rax
    a8f5:	48 c7 84 c5 60 f8 ff 	movq   $0x0,-0x7a0(%rbp,%rax,8)
    a8fc:	ff 00 00 00 00 
    a901:	83 85 90 ef ff ff 01 	addl   $0x1,-0x1070(%rbp)
    a908:	83 bd 90 ef ff ff 07 	cmpl   $0x7,-0x1070(%rbp)
    a90f:	7e b3                	jle    a8c4 <func_15+0xc06>
    a911:	83 85 8c ef ff ff 01 	addl   $0x1,-0x1074(%rbp)
    a918:	83 bd 8c ef ff ff 05 	cmpl   $0x5,-0x1074(%rbp)
    a91f:	7e 97                	jle    a8b8 <func_15+0xbfa>
    a921:	83 85 88 ef ff ff 01 	addl   $0x1,-0x1078(%rbp)
    a928:	83 bd 88 ef ff ff 04 	cmpl   $0x4,-0x1078(%rbp)
    a92f:	0f 8e 77 ff ff ff    	jle    a8ac <func_15+0xbee>
    a935:	48 8b 05 6c d0 00 00 	mov    0xd06c(%rip),%rax        # 179a8 <g_468>
    a93c:	8b 10                	mov    (%rax),%edx
    a93e:	48 8b 05 63 d0 00 00 	mov    0xd063(%rip),%rax        # 179a8 <g_468>
    a945:	83 f2 01             	xor    $0x1,%edx
    a948:	89 10                	mov    %edx,(%rax)
    a94a:	8b 05 08 be 00 00    	mov    0xbe08(%rip),%eax        # 16758 <g_1403>
    a950:	0f b6 c0             	movzbl %al,%eax
    a953:	be 07 00 00 00       	mov    $0x7,%esi
    a958:	89 c7                	mov    %eax,%edi
    a95a:	e8 19 b2 ff ff       	callq  5b78 <safe_sub_func_uint8_t_u_u>
    a95f:	0f b6 c0             	movzbl %al,%eax
    a962:	89 05 f0 bd 00 00    	mov    %eax,0xbdf0(%rip)        # 16758 <g_1403>
    a968:	8b 05 ea bd 00 00    	mov    0xbdea(%rip),%eax        # 16758 <g_1403>
    a96e:	83 f8 f0             	cmp    $0xfffffff0,%eax
    a971:	0f 8c ac fc ff ff    	jl     a623 <func_15+0x965>
    a977:	48 8b 05 e2 cf 00 00 	mov    0xcfe2(%rip),%rax        # 17960 <g_81>
    a97e:	48 8b 00             	mov    (%rax),%rax
    a981:	48 8b 5d e8          	mov    -0x18(%rbp),%rbx
    a985:	64 48 33 1c 25 28 00 	xor    %fs:0x28,%rbx
    a98c:	00 00 
    a98e:	74 05                	je     a995 <func_15+0xcd7>
    a990:	e8 db a6 ff ff       	callq  5070 <__stack_chk_fail@plt>
    a995:	48 81 c4 a8 10 00 00 	add    $0x10a8,%rsp
    a99c:	5b                   	pop    %rbx
    a99d:	5d                   	pop    %rbp
    a99e:	c3                   	retq   

000000000000a99f <func_27>:
    a99f:	f3 0f 1e fa          	endbr64 
    a9a3:	55                   	push   %rbp
    a9a4:	48 89 e5             	mov    %rsp,%rbp
    a9a7:	41 57                	push   %r15
    a9a9:	41 56                	push   %r14
    a9ab:	41 55                	push   %r13
    a9ad:	41 54                	push   %r12
    a9af:	53                   	push   %rbx
    a9b0:	48 81 ec 48 01 00 00 	sub    $0x148,%rsp
    a9b7:	89 bd cc fe ff ff    	mov    %edi,-0x134(%rbp)
    a9bd:	48 89 b5 c0 fe ff ff 	mov    %rsi,-0x140(%rbp)
    a9c4:	48 89 95 b8 fe ff ff 	mov    %rdx,-0x148(%rbp)
    a9cb:	89 c8                	mov    %ecx,%eax
    a9cd:	4c 89 85 b0 fe ff ff 	mov    %r8,-0x150(%rbp)
    a9d4:	88 85 c8 fe ff ff    	mov    %al,-0x138(%rbp)
    a9da:	64 48 8b 04 25 28 00 	mov    %fs:0x28,%rax
    a9e1:	00 00 
    a9e3:	48 89 45 c8          	mov    %rax,-0x38(%rbp)
    a9e7:	31 c0                	xor    %eax,%eax
    a9e9:	c7 85 d4 fe ff ff 01 	movl   $0x1,-0x12c(%rbp)
    a9f0:	00 00 00 
    a9f3:	48 8d 05 86 b6 00 00 	lea    0xb686(%rip),%rax        # 16080 <g_79>
    a9fa:	48 89 85 e0 fe ff ff 	mov    %rax,-0x120(%rbp)
    aa01:	48 8d 05 3c bc 00 00 	lea    0xbc3c(%rip),%rax        # 16644 <g_724>
    aa08:	48 89 85 e8 fe ff ff 	mov    %rax,-0x118(%rbp)
    aa0f:	48 8d 05 1a c1 00 00 	lea    0xc11a(%rip),%rax        # 16b30 <g_2876>
    aa16:	48 89 85 f0 fe ff ff 	mov    %rax,-0x110(%rbp)
    aa1d:	48 8d 05 14 ba 00 00 	lea    0xba14(%rip),%rax        # 16438 <g_547+0x8>
    aa24:	48 89 85 f8 fe ff ff 	mov    %rax,-0x108(%rbp)
    aa2b:	c7 85 60 ff ff ff 03 	movl   $0x3,-0xa0(%rbp)
    aa32:	00 00 00 
    aa35:	c7 85 64 ff ff ff 03 	movl   $0x3,-0x9c(%rbp)
    aa3c:	00 00 00 
    aa3f:	c7 85 68 ff ff ff 03 	movl   $0x3,-0x98(%rbp)
    aa46:	00 00 00 
    aa49:	c7 85 6c ff ff ff 03 	movl   $0x3,-0x94(%rbp)
    aa50:	00 00 00 
    aa53:	c7 85 70 ff ff ff 03 	movl   $0x3,-0x90(%rbp)
    aa5a:	00 00 00 
    aa5d:	c7 85 74 ff ff ff 03 	movl   $0x3,-0x8c(%rbp)
    aa64:	00 00 00 
    aa67:	c7 85 78 ff ff ff 03 	movl   $0x3,-0x88(%rbp)
    aa6e:	00 00 00 
    aa71:	c7 85 7c ff ff ff 03 	movl   $0x3,-0x84(%rbp)
    aa78:	00 00 00 
    aa7b:	48 8d 05 a2 bb 00 00 	lea    0xbba2(%rip),%rax        # 16624 <g_718>
    aa82:	48 89 85 00 ff ff ff 	mov    %rax,-0x100(%rbp)
    aa89:	48 8d 05 74 be 00 00 	lea    0xbe74(%rip),%rax        # 16904 <g_2865>
    aa90:	48 89 85 08 ff ff ff 	mov    %rax,-0xf8(%rbp)
    aa97:	48 8d 05 9a c0 00 00 	lea    0xc09a(%rip),%rax        # 16b38 <g_2878>
    aa9e:	48 89 85 10 ff ff ff 	mov    %rax,-0xf0(%rbp)
    aaa5:	48 8d 05 90 bb 00 00 	lea    0xbb90(%rip),%rax        # 1663c <g_721+0xc>
    aaac:	48 89 85 18 ff ff ff 	mov    %rax,-0xe8(%rbp)
    aab3:	48 8d 05 72 bb 00 00 	lea    0xbb72(%rip),%rax        # 1662c <g_720>
    aaba:	48 89 85 20 ff ff ff 	mov    %rax,-0xe0(%rbp)
    aac1:	48 8d 05 70 c0 00 00 	lea    0xc070(%rip),%rax        # 16b38 <g_2878>
    aac8:	48 89 45 80          	mov    %rax,-0x80(%rbp)
    aacc:	48 8d 05 65 c0 00 00 	lea    0xc065(%rip),%rax        # 16b38 <g_2878>
    aad3:	48 89 45 88          	mov    %rax,-0x78(%rbp)
    aad7:	48 8d 05 5a c0 00 00 	lea    0xc05a(%rip),%rax        # 16b38 <g_2878>
    aade:	48 89 45 90          	mov    %rax,-0x70(%rbp)
    aae2:	48 8d 05 4f c0 00 00 	lea    0xc04f(%rip),%rax        # 16b38 <g_2878>
    aae9:	48 89 45 98          	mov    %rax,-0x68(%rbp)
    aaed:	48 8d 05 44 c0 00 00 	lea    0xc044(%rip),%rax        # 16b38 <g_2878>
    aaf4:	48 89 45 a0          	mov    %rax,-0x60(%rbp)
    aaf8:	48 8d 05 39 c0 00 00 	lea    0xc039(%rip),%rax        # 16b38 <g_2878>
    aaff:	48 89 45 a8          	mov    %rax,-0x58(%rbp)
    ab03:	48 8d 05 2e c0 00 00 	lea    0xc02e(%rip),%rax        # 16b38 <g_2878>
    ab0a:	48 89 45 b0          	mov    %rax,-0x50(%rbp)
    ab0e:	48 8d 05 23 c0 00 00 	lea    0xc023(%rip),%rax        # 16b38 <g_2878>
    ab15:	48 89 45 b8          	mov    %rax,-0x48(%rbp)
    ab19:	48 8d 05 18 c0 00 00 	lea    0xc018(%rip),%rax        # 16b38 <g_2878>
    ab20:	48 89 45 c0          	mov    %rax,-0x40(%rbp)
    ab24:	c6 85 d1 fe ff ff 05 	movb   $0x5,-0x12f(%rbp)
    ab2b:	48 c7 85 d8 fe ff ff 	movq   $0xfffffffffffffffe,-0x128(%rbp)
    ab32:	fe ff ff ff 
    ab36:	66 c7 85 d2 fe ff ff 	movw   $0x2e24,-0x12e(%rbp)
    ab3d:	24 2e 
    ab3f:	48 c7 85 28 ff ff ff 	movq   $0x0,-0xd8(%rbp)
    ab46:	00 00 00 00 
    ab4a:	8b 85 cc fe ff ff    	mov    -0x134(%rbp),%eax
    ab50:	89 85 ac fe ff ff    	mov    %eax,-0x154(%rbp)
    ab56:	48 8b 05 2b d0 00 00 	mov    0xd02b(%rip),%rax        # 17b88 <g_1095>
    ab5d:	48 8b 00             	mov    (%rax),%rax
    ab60:	48 8b 00             	mov    (%rax),%rax
    ab63:	44 8b 28             	mov    (%rax),%r13d
    ab66:	48 8b 85 b0 fe ff ff 	mov    -0x150(%rbp),%rax
    ab6d:	44 0f b6 e0          	movzbl %al,%r12d
    ab71:	8b 85 cc fe ff ff    	mov    -0x134(%rbp),%eax
    ab77:	0f be c0             	movsbl %al,%eax
    ab7a:	89 85 a8 fe ff ff    	mov    %eax,-0x158(%rbp)
    ab80:	44 8b b5 d4 fe ff ff 	mov    -0x12c(%rbp),%r14d
    ab87:	48 8b 85 b8 fe ff ff 	mov    -0x148(%rbp),%rax
    ab8e:	8b 18                	mov    (%rax),%ebx
    ab90:	8b 05 a2 b8 00 00    	mov    0xb8a2(%rip),%eax        # 16438 <g_547+0x8>
    ab96:	44 0f be f8          	movsbl %al,%r15d
    ab9a:	0f b6 85 c8 fe ff ff 	movzbl -0x138(%rbp),%eax
    aba1:	89 85 a4 fe ff ff    	mov    %eax,-0x15c(%rbp)
    aba7:	8b 85 cc fe ff ff    	mov    -0x134(%rbp),%eax
    abad:	89 85 a0 fe ff ff    	mov    %eax,-0x160(%rbp)
    abb3:	8b 05 6b b4 00 00    	mov    0xb46b(%rip),%eax        # 16024 <g_3>
    abb9:	0f b7 c0             	movzwl %ax,%eax
    abbc:	89 85 9c fe ff ff    	mov    %eax,-0x164(%rbp)
    abc2:	8b 85 d4 fe ff ff    	mov    -0x12c(%rbp),%eax
    abc8:	0f b7 c0             	movzwl %ax,%eax
    abcb:	89 85 98 fe ff ff    	mov    %eax,-0x168(%rbp)
    abd1:	48 83 bd b8 fe ff ff 	cmpq   $0x0,-0x148(%rbp)
    abd8:	00 
    abd9:	0f 94 c0             	sete   %al
    abdc:	0f b6 c8             	movzbl %al,%ecx
    abdf:	48 89 8d 90 fe ff ff 	mov    %rcx,-0x170(%rbp)
    abe6:	8b 05 38 b4 00 00    	mov    0xb438(%rip),%eax        # 16024 <g_3>
    abec:	0f b7 c0             	movzwl %ax,%eax
    abef:	89 c7                	mov    %eax,%edi
    abf1:	e8 f3 b0 ff ff       	callq  5ce9 <safe_unary_minus_func_uint16_t_u>
    abf6:	98                   	cwtl   
    abf7:	8b 95 d4 fe ff ff    	mov    -0x12c(%rbp),%edx
    abfd:	89 d6                	mov    %edx,%esi
    abff:	89 c7                	mov    %eax,%edi
    ac01:	e8 5d a9 ff ff       	callq  5563 <safe_rshift_func_int16_t_s_u>
    ac06:	98                   	cwtl   
    ac07:	33 85 d4 fe ff ff    	xor    -0x12c(%rbp),%eax
    ac0d:	89 c0                	mov    %eax,%eax
    ac0f:	48 33 85 b0 fe ff ff 	xor    -0x150(%rbp),%rax
    ac16:	48 39 85 90 fe ff ff 	cmp    %rax,-0x170(%rbp)
    ac1d:	0f 95 c0             	setne  %al
    ac20:	0f b6 c0             	movzbl %al,%eax
    ac23:	23 85 d4 fe ff ff    	and    -0x12c(%rbp),%eax
    ac29:	83 f8 01             	cmp    $0x1,%eax
    ac2c:	0f 94 c0             	sete   %al
    ac2f:	0f b6 d0             	movzbl %al,%edx
    ac32:	8b 05 ec b3 00 00    	mov    0xb3ec(%rip),%eax        # 16024 <g_3>
    ac38:	39 c2                	cmp    %eax,%edx
    ac3a:	0f 94 c0             	sete   %al
    ac3d:	0f b6 c0             	movzbl %al,%eax
    ac40:	8b b5 98 fe ff ff    	mov    -0x168(%rbp),%esi
    ac46:	89 c7                	mov    %eax,%edi
    ac48:	e8 b2 b0 ff ff       	callq  5cff <safe_add_func_uint16_t_u_u>
    ac4d:	66 85 c0             	test   %ax,%ax
    ac50:	75 0d                	jne    ac5f <func_27+0x2c0>
    ac52:	48 8b 85 b8 fe ff ff 	mov    -0x148(%rbp),%rax
    ac59:	8b 00                	mov    (%rax),%eax
    ac5b:	85 c0                	test   %eax,%eax
    ac5d:	74 07                	je     ac66 <func_27+0x2c7>
    ac5f:	b9 01 00 00 00       	mov    $0x1,%ecx
    ac64:	eb 05                	jmp    ac6b <func_27+0x2cc>
    ac66:	b9 00 00 00 00       	mov    $0x0,%ecx
    ac6b:	48 8b 85 b8 fe ff ff 	mov    -0x148(%rbp),%rax
    ac72:	48 89 c2             	mov    %rax,%rdx
    ac75:	8b b5 9c fe ff ff    	mov    -0x164(%rbp),%esi
    ac7b:	89 cf                	mov    %ecx,%edi
    ac7d:	e8 7e 25 00 00       	callq  d200 <func_66>
    ac82:	8b 8d a0 fe ff ff    	mov    -0x160(%rbp),%ecx
    ac88:	48 8d 15 95 b3 00 00 	lea    0xb395(%rip),%rdx        # 16024 <g_3>
    ac8f:	48 89 c6             	mov    %rax,%rsi
    ac92:	48 8d 3d 8b b3 00 00 	lea    0xb38b(%rip),%rdi        # 16024 <g_3>
    ac99:	e8 cb 0f 00 00       	callq  bc69 <func_61>
    ac9e:	8b b5 a4 fe ff ff    	mov    -0x15c(%rbp),%esi
    aca4:	89 c7                	mov    %eax,%edi
    aca6:	e8 7a b2 ff ff       	callq  5f25 <safe_div_func_uint32_t_u_u>
    acab:	48 8b 95 b8 fe ff ff 	mov    -0x148(%rbp),%rdx
    acb2:	8b 12                	mov    (%rdx),%edx
    acb4:	39 d0                	cmp    %edx,%eax
    acb6:	0f 92 c0             	setb   %al
    acb9:	0f b6 c0             	movzbl %al,%eax
    acbc:	44 89 fe             	mov    %r15d,%esi
    acbf:	89 c7                	mov    %eax,%edi
    acc1:	e8 6b a5 ff ff       	callq  5231 <safe_mod_func_int8_t_s_s>
    acc6:	48 0f be c0          	movsbq %al,%rax
    acca:	48 39 85 c0 fe ff ff 	cmp    %rax,-0x140(%rbp)
    acd1:	0f 9c c0             	setl   %al
    acd4:	89 c2                	mov    %eax,%edx
    acd6:	8b 05 48 b3 00 00    	mov    0xb348(%rip),%eax        # 16024 <g_3>
    acdc:	31 d0                	xor    %edx,%eax
    acde:	0f be c0             	movsbl %al,%eax
    ace1:	89 c7                	mov    %eax,%edi
    ace3:	e8 13 0d 00 00       	callq  b9fb <func_55>
    ace8:	44 8b 85 a8 fe ff ff 	mov    -0x158(%rbp),%r8d
    acef:	44 89 f1             	mov    %r14d,%ecx
    acf2:	48 8d 15 2f b7 00 00 	lea    0xb72f(%rip),%rdx        # 16428 <g_498>
    acf9:	89 de                	mov    %ebx,%esi
    acfb:	48 89 c7             	mov    %rax,%rdi
    acfe:	e8 a4 05 00 00       	callq  b2a7 <func_49>
    ad03:	48 89 c7             	mov    %rax,%rdi
    ad06:	48 8b 05 b3 cf 00 00 	mov    0xcfb3(%rip),%rax        # 17cc0 <g_1537>
    ad0d:	48 8b 00             	mov    (%rax),%rax
    ad10:	48 8b 18             	mov    (%rax),%rbx
    ad13:	8b 85 d4 fe ff ff    	mov    -0x12c(%rbp),%eax
    ad19:	44 8b 85 ac fe ff ff 	mov    -0x154(%rbp),%r8d
    ad20:	89 c1                	mov    %eax,%ecx
    ad22:	44 89 ea             	mov    %r13d,%edx
    ad25:	44 89 e6             	mov    %r12d,%esi
    ad28:	e8 d3 03 00 00       	callq  b100 <func_43>
    ad2d:	66 89 03             	mov    %ax,(%rbx)
    ad30:	0f b7 03             	movzwl (%rbx),%eax
    ad33:	0f bf d8             	movswl %ax,%ebx
    ad36:	8b 85 d4 fe ff ff    	mov    -0x12c(%rbp),%eax
    ad3c:	0f b6 c0             	movzbl %al,%eax
    ad3f:	89 c7                	mov    %eax,%edi
    ad41:	e8 ff ad ff ff       	callq  5b45 <safe_unary_minus_func_uint8_t_u>
    ad46:	0f b6 c0             	movzbl %al,%eax
    ad49:	89 de                	mov    %ebx,%esi
    ad4b:	89 c7                	mov    %eax,%edi
    ad4d:	e8 81 a6 ff ff       	callq  53d3 <safe_sub_func_int16_t_s_s>
    ad52:	98                   	cwtl   
    ad53:	39 85 d4 fe ff ff    	cmp    %eax,-0x12c(%rbp)
    ad59:	48 8b 05 48 cc 00 00 	mov    0xcc48(%rip),%rax        # 179a8 <g_468>
    ad60:	48 8b 95 b8 fe ff ff 	mov    -0x148(%rbp),%rdx
    ad67:	8b 12                	mov    (%rdx),%edx
    ad69:	89 10                	mov    %edx,(%rax)
    ad6b:	0f b6 85 d1 fe ff ff 	movzbl -0x12f(%rbp),%eax
    ad72:	83 e8 01             	sub    $0x1,%eax
    ad75:	88 85 d1 fe ff ff    	mov    %al,-0x12f(%rbp)
    ad7b:	0f b7 85 d2 fe ff ff 	movzwl -0x12e(%rbp),%eax
    ad82:	83 e8 01             	sub    $0x1,%eax
    ad85:	66 89 85 d2 fe ff ff 	mov    %ax,-0x12e(%rbp)
    ad8c:	c7 05 a2 bd 00 00 05 	movl   $0x5,0xbda2(%rip)        # 16b38 <g_2878>
    ad93:	00 00 00 
    ad96:	90                   	nop
    ad97:	8b 05 9b bd 00 00    	mov    0xbd9b(%rip),%eax        # 16b38 <g_2878>
    ad9d:	83 f8 15             	cmp    $0x15,%eax
    ada0:	0f 8f 2d 03 00 00    	jg     b0d3 <func_27+0x734>
    ada6:	48 8d 05 2f b7 00 00 	lea    0xb72f(%rip),%rax        # 164dc <g_715>
    adad:	48 89 85 30 ff ff ff 	mov    %rax,-0xd0(%rbp)
    adb4:	48 8d 05 75 b3 00 00 	lea    0xb375(%rip),%rax        # 16130 <g_125>
    adbb:	48 89 85 38 ff ff ff 	mov    %rax,-0xc8(%rbp)
    adc2:	48 8d 05 ef b9 00 00 	lea    0xb9ef(%rip),%rax        # 167b8 <g_2196>
    adc9:	48 89 85 40 ff ff ff 	mov    %rax,-0xc0(%rbp)
    add0:	48 c7 85 48 ff ff ff 	movq   $0x0,-0xb8(%rbp)
    add7:	00 00 00 00 
    addb:	48 8d 05 76 dd 00 00 	lea    0xdd76(%rip),%rax        # 18b58 <g_1448>
    ade2:	48 89 85 50 ff ff ff 	mov    %rax,-0xb0(%rbp)
    ade9:	48 8d 05 9c ba 00 00 	lea    0xba9c(%rip),%rax        # 1688c <g_2506>
    adf0:	48 89 85 58 ff ff ff 	mov    %rax,-0xa8(%rbp)
    adf7:	48 8b 85 c0 fe ff ff 	mov    -0x140(%rbp),%rax
    adfe:	44 0f be f0          	movsbl %al,%r14d
    ae02:	48 8b 85 08 ff ff ff 	mov    -0xf8(%rbp),%rax
    ae09:	8b 00                	mov    (%rax),%eax
    ae0b:	0f b7 d8             	movzwl %ax,%ebx
    ae0e:	44 8b a5 cc fe ff ff 	mov    -0x134(%rbp),%r12d
    ae15:	48 8b 85 b0 fe ff ff 	mov    -0x150(%rbp),%rax
    ae1c:	41 89 c7             	mov    %eax,%r15d
    ae1f:	48 8b 85 c0 fe ff ff 	mov    -0x140(%rbp),%rax
    ae26:	44 0f bf e8          	movswl %ax,%r13d
    ae2a:	48 8b 85 f8 fe ff ff 	mov    -0x108(%rbp),%rax
    ae31:	8b 00                	mov    (%rax),%eax
    ae33:	0f be d0             	movsbl %al,%edx
    ae36:	48 83 bd 28 ff ff ff 	cmpq   $0x0,-0xd8(%rbp)
    ae3d:	00 
    ae3e:	0f 95 c0             	setne  %al
    ae41:	0f b6 c0             	movzbl %al,%eax
    ae44:	89 d6                	mov    %edx,%esi
    ae46:	89 c7                	mov    %eax,%edi
    ae48:	e8 e4 a3 ff ff       	callq  5231 <safe_mod_func_int8_t_s_s>
    ae4d:	84 c0                	test   %al,%al
    ae4f:	74 14                	je     ae65 <func_27+0x4c6>
    ae51:	48 8b 85 10 ff ff ff 	mov    -0xf0(%rbp),%rax
    ae58:	8b 00                	mov    (%rax),%eax
    ae5a:	85 c0                	test   %eax,%eax
    ae5c:	74 07                	je     ae65 <func_27+0x4c6>
    ae5e:	ba 01 00 00 00       	mov    $0x1,%edx
    ae63:	eb 05                	jmp    ae6a <func_27+0x4cb>
    ae65:	ba 00 00 00 00       	mov    $0x0,%edx
    ae6a:	48 8b 85 30 ff ff ff 	mov    -0xd0(%rbp),%rax
    ae71:	8b 00                	mov    (%rax),%eax
    ae73:	09 c2                	or     %eax,%edx
    ae75:	48 8b 05 c4 cf 00 00 	mov    0xcfc4(%rip),%rax        # 17e40 <g_1823>
    ae7c:	0f b6 00             	movzbl (%rax),%eax
    ae7f:	0f b6 c0             	movzbl %al,%eax
    ae82:	09 d0                	or     %edx,%eax
    ae84:	48 98                	cltq   
    ae86:	be 03 00 00 00       	mov    $0x3,%esi
    ae8b:	48 89 c7             	mov    %rax,%rdi
    ae8e:	e8 21 ab ff ff       	callq  59b4 <safe_mod_func_int64_t_s_s>
    ae93:	48 be bf 80 0d 48 50 	movabs $0xb8dcb250480d80bf,%rsi
    ae9a:	b2 dc b8 
    ae9d:	48 89 c7             	mov    %rax,%rdi
    aea0:	e8 52 ab ff ff       	callq  59f7 <safe_div_func_int64_t_s_s>
    aea5:	89 c1                	mov    %eax,%ecx
    aea7:	48 8b 05 12 ce 00 00 	mov    0xce12(%rip),%rax        # 17cc0 <g_1537>
    aeae:	48 8b 00             	mov    (%rax),%rax
    aeb1:	48 8b 00             	mov    (%rax),%rax
    aeb4:	0f b7 10             	movzwl (%rax),%edx
    aeb7:	66 89 10             	mov    %dx,(%rax)
    aeba:	0f b7 00             	movzwl (%rax),%eax
    aebd:	0f b7 c0             	movzwl %ax,%eax
    aec0:	89 ce                	mov    %ecx,%esi
    aec2:	89 c7                	mov    %eax,%edi
    aec4:	e8 7f af ff ff       	callq  5e48 <safe_rshift_func_uint16_t_u_s>
    aec9:	48 8b 05 f0 cd 00 00 	mov    0xcdf0(%rip),%rax        # 17cc0 <g_1537>
    aed0:	48 8b 00             	mov    (%rax),%rax
    aed3:	48 8b 00             	mov    (%rax),%rax
    aed6:	0f b7 00             	movzwl (%rax),%eax
    aed9:	0f b7 d0             	movzwl %ax,%edx
    aedc:	48 8b 85 08 ff ff ff 	mov    -0xf8(%rbp),%rax
    aee3:	8b 00                	mov    (%rax),%eax
    aee5:	39 c2                	cmp    %eax,%edx
    aee7:	0f 9c c0             	setl   %al
    aeea:	0f b6 d0             	movzbl %al,%edx
    aeed:	48 8b 85 38 ff ff ff 	mov    -0xc8(%rbp),%rax
    aef4:	0f b7 00             	movzwl (%rax),%eax
    aef7:	09 c2                	or     %eax,%edx
    aef9:	48 8b 85 38 ff ff ff 	mov    -0xc8(%rbp),%rax
    af00:	66 89 10             	mov    %dx,(%rax)
    af03:	48 8b 85 38 ff ff ff 	mov    -0xc8(%rbp),%rax
    af0a:	0f b7 00             	movzwl (%rax),%eax
    af0d:	98                   	cwtl   
    af0e:	44 89 ee             	mov    %r13d,%esi
    af11:	89 c7                	mov    %eax,%edi
    af13:	e8 9b a4 ff ff       	callq  53b3 <safe_add_func_int16_t_s_s>
    af18:	48 8b 85 40 ff ff ff 	mov    -0xc0(%rbp),%rax
    af1f:	c7 00 ff ff ff ff    	movl   $0xffffffff,(%rax)
    af25:	83 bd cc fe ff ff 00 	cmpl   $0x0,-0x134(%rbp)
    af2c:	44 89 fe             	mov    %r15d,%esi
    af2f:	bf b4 00 00 00       	mov    $0xb4,%edi
    af34:	e8 13 ad ff ff       	callq  5c4c <safe_lshift_func_uint8_t_u_u>
    af39:	0f b6 c0             	movzbl %al,%eax
    af3c:	44 89 e6             	mov    %r12d,%esi
    af3f:	89 c7                	mov    %eax,%edi
    af41:	e8 9b a5 ff ff       	callq  54e1 <safe_lshift_func_int16_t_s_u>
    af46:	0f bf d0             	movswl %ax,%edx
    af49:	48 8b 85 b8 fe ff ff 	mov    -0x148(%rbp),%rax
    af50:	8b 00                	mov    (%rax),%eax
    af52:	39 c2                	cmp    %eax,%edx
    af54:	0f 9e c0             	setle  %al
    af57:	0f b6 d0             	movzbl %al,%edx
    af5a:	48 8b 85 b8 fe ff ff 	mov    -0x148(%rbp),%rax
    af61:	8b 00                	mov    (%rax),%eax
    af63:	39 c2                	cmp    %eax,%edx
    af65:	74 0d                	je     af74 <func_27+0x5d5>
    af67:	48 8b 85 30 ff ff ff 	mov    -0xd0(%rbp),%rax
    af6e:	8b 00                	mov    (%rax),%eax
    af70:	85 c0                	test   %eax,%eax
    af72:	74 07                	je     af7b <func_27+0x5dc>
    af74:	b8 01 00 00 00       	mov    $0x1,%eax
    af79:	eb 05                	jmp    af80 <func_27+0x5e1>
    af7b:	b8 00 00 00 00       	mov    $0x0,%eax
    af80:	0f b7 c0             	movzwl %ax,%eax
    af83:	be b1 04 00 00       	mov    $0x4b1,%esi
    af88:	89 c7                	mov    %eax,%edi
    af8a:	e8 90 ad ff ff       	callq  5d1f <safe_sub_func_uint16_t_u_u>
    af8f:	66 85 c0             	test   %ax,%ax
    af92:	74 0d                	je     afa1 <func_27+0x602>
    af94:	48 8b 85 30 ff ff ff 	mov    -0xd0(%rbp),%rax
    af9b:	8b 00                	mov    (%rax),%eax
    af9d:	85 c0                	test   %eax,%eax
    af9f:	75 0a                	jne    afab <func_27+0x60c>
    afa1:	48 83 bd c0 fe ff ff 	cmpq   $0x0,-0x140(%rbp)
    afa8:	00 
    afa9:	74 07                	je     afb2 <func_27+0x613>
    afab:	b8 01 00 00 00       	mov    $0x1,%eax
    afb0:	eb 05                	jmp    afb7 <func_27+0x618>
    afb2:	b8 00 00 00 00       	mov    $0x0,%eax
    afb7:	89 c2                	mov    %eax,%edx
    afb9:	48 8b 85 30 ff ff ff 	mov    -0xd0(%rbp),%rax
    afc0:	8b 00                	mov    (%rax),%eax
    afc2:	0f b6 c0             	movzbl %al,%eax
    afc5:	89 d6                	mov    %edx,%esi
    afc7:	89 c7                	mov    %eax,%edi
    afc9:	e8 7e ac ff ff       	callq  5c4c <safe_lshift_func_uint8_t_u_u>
    afce:	0f be c0             	movsbl %al,%eax
    afd1:	be 03 00 00 00       	mov    $0x3,%esi
    afd6:	89 c7                	mov    %eax,%edi
    afd8:	e8 11 a3 ff ff       	callq  52ee <safe_lshift_func_int8_t_s_u>
    afdd:	0f be c0             	movsbl %al,%eax
    afe0:	23 85 cc fe ff ff    	and    -0x134(%rbp),%eax
    afe6:	f7 d0                	not    %eax
    afe8:	c1 e8 1f             	shr    $0x1f,%eax
    afeb:	0f b6 c0             	movzbl %al,%eax
    afee:	89 de                	mov    %ebx,%esi
    aff0:	89 c7                	mov    %eax,%edi
    aff2:	e8 28 ad ff ff       	callq  5d1f <safe_sub_func_uint16_t_u_u>
    aff7:	0f b7 c8             	movzwl %ax,%ecx
    affa:	48 8b 05 bf c9 00 00 	mov    0xc9bf(%rip),%rax        # 179c0 <g_903>
    b001:	8b 30                	mov    (%rax),%esi
    b003:	48 8d 95 d8 fe ff ff 	lea    -0x128(%rbp),%rdx
    b00a:	48 8b 85 30 ff ff ff 	mov    -0xd0(%rbp),%rax
    b011:	45 89 f0             	mov    %r14d,%r8d
    b014:	48 89 c7             	mov    %rax,%rdi
    b017:	e8 8b 02 00 00       	callq  b2a7 <func_49>
    b01c:	48 8b 95 50 ff ff ff 	mov    -0xb0(%rbp),%rdx
    b023:	48 89 02             	mov    %rax,(%rdx)
    b026:	48 8b 85 58 ff ff ff 	mov    -0xa8(%rbp),%rax
    b02d:	0f b7 00             	movzwl (%rax),%eax
    b030:	8d 50 01             	lea    0x1(%rax),%edx
    b033:	48 8b 85 58 ff ff ff 	mov    -0xa8(%rbp),%rax
    b03a:	66 89 10             	mov    %dx,(%rax)
    b03d:	48 8b 85 58 ff ff ff 	mov    -0xa8(%rbp),%rax
    b044:	0f b7 00             	movzwl (%rax),%eax
    b047:	0f b7 d0             	movzwl %ax,%edx
    b04a:	48 8b 85 50 ff ff ff 	mov    -0xb0(%rbp),%rax
    b051:	48 8b 00             	mov    (%rax),%rax
    b054:	8b 00                	mov    (%rax),%eax
    b056:	85 c0                	test   %eax,%eax
    b058:	75 27                	jne    b081 <func_27+0x6e2>
    b05a:	48 8b 05 ef cb 00 00 	mov    0xcbef(%rip),%rax        # 17c50 <g_1539>
    b061:	0f b7 00             	movzwl (%rax),%eax
    b064:	89 c1                	mov    %eax,%ecx
    b066:	48 8b 85 c0 fe ff ff 	mov    -0x140(%rbp),%rax
    b06d:	31 c1                	xor    %eax,%ecx
    b06f:	48 8b 05 da cb 00 00 	mov    0xcbda(%rip),%rax        # 17c50 <g_1539>
    b076:	66 89 08             	mov    %cx,(%rax)
    b079:	0f b7 00             	movzwl (%rax),%eax
    b07c:	66 85 c0             	test   %ax,%ax
    b07f:	74 07                	je     b088 <func_27+0x6e9>
    b081:	b9 01 00 00 00       	mov    $0x1,%ecx
    b086:	eb 05                	jmp    b08d <func_27+0x6ee>
    b088:	b9 00 00 00 00       	mov    $0x0,%ecx
    b08d:	48 8b 05 f4 ca 00 00 	mov    0xcaf4(%rip),%rax        # 17b88 <g_1095>
    b094:	48 8b 00             	mov    (%rax),%rax
    b097:	48 8b 00             	mov    (%rax),%rax
    b09a:	8b 00                	mov    (%rax),%eax
    b09c:	39 c1                	cmp    %eax,%ecx
    b09e:	0f 9d c0             	setge  %al
    b0a1:	0f b6 c0             	movzbl %al,%eax
    b0a4:	89 d6                	mov    %edx,%esi
    b0a6:	89 c7                	mov    %eax,%edi
    b0a8:	e8 e1 ac ff ff       	callq  5d8e <safe_div_func_uint16_t_u_u>
    b0ad:	48 8b 95 f8 fe ff ff 	mov    -0x108(%rbp),%rdx
    b0b4:	8b 12                	mov    (%rdx),%edx
    b0b6:	0f b7 c0             	movzwl %ax,%eax
    b0b9:	09 c2                	or     %eax,%edx
    b0bb:	48 8b 85 f8 fe ff ff 	mov    -0x108(%rbp),%rax
    b0c2:	89 10                	mov    %edx,(%rax)
    b0c4:	48 8b 05 bd ca 00 00 	mov    0xcabd(%rip),%rax        # 17b88 <g_1095>
    b0cb:	48 8b 00             	mov    (%rax),%rax
    b0ce:	48 8b 00             	mov    (%rax),%rax
    b0d1:	eb 07                	jmp    b0da <func_27+0x73b>
    b0d3:	48 8b 85 b8 fe ff ff 	mov    -0x148(%rbp),%rax
    b0da:	48 8b 5d c8          	mov    -0x38(%rbp),%rbx
    b0de:	64 48 33 1c 25 28 00 	xor    %fs:0x28,%rbx
    b0e5:	00 00 
    b0e7:	74 05                	je     b0ee <func_27+0x74f>
    b0e9:	e8 82 9f ff ff       	callq  5070 <__stack_chk_fail@plt>
    b0ee:	48 81 c4 48 01 00 00 	add    $0x148,%rsp
    b0f5:	5b                   	pop    %rbx
    b0f6:	41 5c                	pop    %r12
    b0f8:	41 5d                	pop    %r13
    b0fa:	41 5e                	pop    %r14
    b0fc:	41 5f                	pop    %r15
    b0fe:	5d                   	pop    %rbp
    b0ff:	c3                   	retq   

000000000000b100 <func_43>:
    b100:	f3 0f 1e fa          	endbr64 
    b104:	55                   	push   %rbp
    b105:	48 89 e5             	mov    %rsp,%rbp
    b108:	48 81 ec 60 02 00 00 	sub    $0x260,%rsp
    b10f:	48 89 bd b8 fd ff ff 	mov    %rdi,-0x248(%rbp)
    b116:	89 f0                	mov    %esi,%eax
    b118:	89 95 b0 fd ff ff    	mov    %edx,-0x250(%rbp)
    b11e:	89 8d ac fd ff ff    	mov    %ecx,-0x254(%rbp)
    b124:	44 89 85 a8 fd ff ff 	mov    %r8d,-0x258(%rbp)
    b12b:	88 85 b4 fd ff ff    	mov    %al,-0x24c(%rbp)
    b131:	64 48 8b 04 25 28 00 	mov    %fs:0x28,%rax
    b138:	00 00 
    b13a:	48 89 45 f8          	mov    %rax,-0x8(%rbp)
    b13e:	31 c0                	xor    %eax,%eax
    b140:	c7 85 d0 fd ff ff f7 	movl   $0xfffffff7,-0x230(%rbp)
    b147:	ff ff ff 
    b14a:	c7 85 d4 fd ff ff 00 	movl   $0x0,-0x22c(%rbp)
    b151:	00 00 00 
    b154:	c6 85 c8 fd ff ff 01 	movb   $0x1,-0x238(%rbp)
    b15b:	48 b8 f7 f7 e0 ad 0f 	movabs $0xde22f50fade0f7f7,%rax
    b162:	f5 22 de 
    b165:	48 89 85 00 fe ff ff 	mov    %rax,-0x200(%rbp)
    b16c:	48 b8 5b 37 8e 79 b8 	movabs $0x618944b8798e375b,%rax
    b173:	44 89 61 
    b176:	48 89 85 08 fe ff ff 	mov    %rax,-0x1f8(%rbp)
    b17d:	48 8d 05 fc c7 00 00 	lea    0xc7fc(%rip),%rax        # 17980 <g_165>
    b184:	48 89 85 e0 fd ff ff 	mov    %rax,-0x220(%rbp)
    b18b:	48 8d 85 e0 fd ff ff 	lea    -0x220(%rbp),%rax
    b192:	48 89 85 e8 fd ff ff 	mov    %rax,-0x218(%rbp)
    b199:	48 8d 85 e8 fd ff ff 	lea    -0x218(%rbp),%rax
    b1a0:	48 89 85 f0 fd ff ff 	mov    %rax,-0x210(%rbp)
    b1a7:	48 8d 85 f0 fd ff ff 	lea    -0x210(%rbp),%rax
    b1ae:	48 89 85 10 fe ff ff 	mov    %rax,-0x1f0(%rbp)
    b1b5:	48 8d 05 5e b2 00 00 	lea    0xb25e(%rip),%rax        # 1641a <g_340+0x2>
    b1bc:	48 89 85 18 fe ff ff 	mov    %rax,-0x1e8(%rbp)
    b1c3:	48 c7 85 20 fe ff ff 	movq   $0x0,-0x1e0(%rbp)
    b1ca:	00 00 00 00 
    b1ce:	48 c7 85 28 fe ff ff 	movq   $0x0,-0x1d8(%rbp)
    b1d5:	00 00 00 00 
    b1d9:	c6 85 c9 fd ff ff 01 	movb   $0x1,-0x237(%rbp)
    b1e0:	c7 85 d8 fd ff ff 07 	movl   $0x7,-0x228(%rbp)
    b1e7:	00 00 00 
    b1ea:	48 8d 05 5f ca 00 00 	lea    0xca5f(%rip),%rax        # 17c50 <g_1539>
    b1f1:	48 89 85 30 fe ff ff 	mov    %rax,-0x1d0(%rbp)
    b1f8:	c7 85 dc fd ff ff ae 	movl   $0x7b5881ae,-0x224(%rbp)
    b1ff:	81 58 7b 
    b202:	48 8d 05 93 b6 00 00 	lea    0xb693(%rip),%rax        # 1689c <g_2742>
    b209:	48 89 85 f8 fd ff ff 	mov    %rax,-0x208(%rbp)
    b210:	48 8d 85 f8 fd ff ff 	lea    -0x208(%rbp),%rax
    b217:	48 89 85 38 fe ff ff 	mov    %rax,-0x1c8(%rbp)
    b21e:	48 8d 05 c3 c7 00 00 	lea    0xc7c3(%rip),%rax        # 179e8 <g_925>
    b225:	48 89 85 40 fe ff ff 	mov    %rax,-0x1c0(%rbp)
    b22c:	48 c7 85 48 fe ff ff 	movq   $0xffffffffffffffff,-0x1b8(%rbp)
    b233:	ff ff ff ff 
    b237:	66 c7 85 ca fd ff ff 	movw   $0xdf2,-0x236(%rbp)
    b23e:	f2 0d 
    b240:	48 8d 85 60 fe ff ff 	lea    -0x1a0(%rbp),%rax
    b247:	48 8d 15 72 c3 00 00 	lea    0xc372(%rip),%rdx        # 175c0 <g_3808+0x734>
    b24e:	b9 32 00 00 00       	mov    $0x32,%ecx
    b253:	48 89 c7             	mov    %rax,%rdi
    b256:	48 89 d6             	mov    %rdx,%rsi
    b259:	f3 48 a5             	rep movsq %ds:(%rsi),%es:(%rdi)
    b25c:	c7 85 cc fd ff ff 00 	movl   $0x0,-0x234(%rbp)
    b263:	00 00 00 
    b266:	eb 1a                	jmp    b282 <func_43+0x182>
    b268:	8b 85 cc fd ff ff    	mov    -0x234(%rbp),%eax
    b26e:	48 98                	cltq   
    b270:	c7 84 85 50 fe ff ff 	movl   $0x1,-0x1b0(%rbp,%rax,4)
    b277:	01 00 00 00 
    b27b:	83 85 cc fd ff ff 01 	addl   $0x1,-0x234(%rbp)
    b282:	83 bd cc fd ff ff 03 	cmpl   $0x3,-0x234(%rbp)
    b289:	7e dd                	jle    b268 <func_43+0x168>
    b28b:	8b 85 ac fd ff ff    	mov    -0x254(%rbp),%eax
    b291:	48 8b 55 f8          	mov    -0x8(%rbp),%rdx
    b295:	64 48 33 14 25 28 00 	xor    %fs:0x28,%rdx
    b29c:	00 00 
    b29e:	74 05                	je     b2a5 <func_43+0x1a5>
    b2a0:	e8 cb 9d ff ff       	callq  5070 <__stack_chk_fail@plt>
    b2a5:	c9                   	leaveq 
    b2a6:	c3                   	retq   

000000000000b2a7 <func_49>:
    b2a7:	f3 0f 1e fa          	endbr64 
    b2ab:	55                   	push   %rbp
    b2ac:	48 89 e5             	mov    %rsp,%rbp
    b2af:	48 81 ec 30 04 00 00 	sub    $0x430,%rsp
    b2b6:	48 89 bd e8 fb ff ff 	mov    %rdi,-0x418(%rbp)
    b2bd:	89 b5 e4 fb ff ff    	mov    %esi,-0x41c(%rbp)
    b2c3:	48 89 95 d8 fb ff ff 	mov    %rdx,-0x428(%rbp)
    b2ca:	89 8d e0 fb ff ff    	mov    %ecx,-0x420(%rbp)
    b2d0:	44 89 c0             	mov    %r8d,%eax
    b2d3:	88 85 d4 fb ff ff    	mov    %al,-0x42c(%rbp)
    b2d9:	64 48 8b 04 25 28 00 	mov    %fs:0x28,%rax
    b2e0:	00 00 
    b2e2:	48 89 45 f8          	mov    %rax,-0x8(%rbp)
    b2e6:	31 c0                	xor    %eax,%eax
    b2e8:	48 b8 63 ed 29 a9 b5 	movabs $0xd50563b5a929ed63,%rax
    b2ef:	63 05 d5 
    b2f2:	48 89 85 38 fc ff ff 	mov    %rax,-0x3c8(%rbp)
    b2f9:	c7 85 fc fb ff ff 00 	movl   $0x0,-0x404(%rbp)
    b300:	00 00 00 
    b303:	48 8d 05 10 b1 00 00 	lea    0xb110(%rip),%rax        # 1641a <g_340+0x2>
    b30a:	48 89 85 e0 fd ff ff 	mov    %rax,-0x220(%rbp)
    b311:	48 8d 05 02 b1 00 00 	lea    0xb102(%rip),%rax        # 1641a <g_340+0x2>
    b318:	48 89 85 e8 fd ff ff 	mov    %rax,-0x218(%rbp)
    b31f:	48 8d 05 f4 b0 00 00 	lea    0xb0f4(%rip),%rax        # 1641a <g_340+0x2>
    b326:	48 89 85 f0 fd ff ff 	mov    %rax,-0x210(%rbp)
    b32d:	48 8d 05 e6 b0 00 00 	lea    0xb0e6(%rip),%rax        # 1641a <g_340+0x2>
    b334:	48 89 85 f8 fd ff ff 	mov    %rax,-0x208(%rbp)
    b33b:	48 8d 05 d8 b0 00 00 	lea    0xb0d8(%rip),%rax        # 1641a <g_340+0x2>
    b342:	48 89 85 00 fe ff ff 	mov    %rax,-0x200(%rbp)
    b349:	48 8d 05 ca b0 00 00 	lea    0xb0ca(%rip),%rax        # 1641a <g_340+0x2>
    b350:	48 89 85 08 fe ff ff 	mov    %rax,-0x1f8(%rbp)
    b357:	48 8d 05 bc b0 00 00 	lea    0xb0bc(%rip),%rax        # 1641a <g_340+0x2>
    b35e:	48 89 85 10 fe ff ff 	mov    %rax,-0x1f0(%rbp)
    b365:	48 8d 05 ae b0 00 00 	lea    0xb0ae(%rip),%rax        # 1641a <g_340+0x2>
    b36c:	48 89 85 18 fe ff ff 	mov    %rax,-0x1e8(%rbp)
    b373:	48 8d 05 a0 b0 00 00 	lea    0xb0a0(%rip),%rax        # 1641a <g_340+0x2>
    b37a:	48 89 85 20 fe ff ff 	mov    %rax,-0x1e0(%rbp)
    b381:	48 8d 05 92 b0 00 00 	lea    0xb092(%rip),%rax        # 1641a <g_340+0x2>
    b388:	48 89 85 28 fe ff ff 	mov    %rax,-0x1d8(%rbp)
    b38f:	48 8d 05 84 b0 00 00 	lea    0xb084(%rip),%rax        # 1641a <g_340+0x2>
    b396:	48 89 85 30 fe ff ff 	mov    %rax,-0x1d0(%rbp)
    b39d:	48 8d 05 76 b0 00 00 	lea    0xb076(%rip),%rax        # 1641a <g_340+0x2>
    b3a4:	48 89 85 38 fe ff ff 	mov    %rax,-0x1c8(%rbp)
    b3ab:	c7 85 e0 fc ff ff 05 	movl   $0x5,-0x320(%rbp)
    b3b2:	00 00 00 
    b3b5:	c7 85 e4 fc ff ff 05 	movl   $0x5,-0x31c(%rbp)
    b3bc:	00 00 00 
    b3bf:	c7 85 e8 fc ff ff 3b 	movl   $0xdc124b3b,-0x318(%rbp)
    b3c6:	4b 12 dc 
    b3c9:	c7 85 ec fc ff ff 05 	movl   $0x5,-0x314(%rbp)
    b3d0:	00 00 00 
    b3d3:	c7 85 f0 fc ff ff 05 	movl   $0x5,-0x310(%rbp)
    b3da:	00 00 00 
    b3dd:	c7 85 f4 fc ff ff 3b 	movl   $0xdc124b3b,-0x30c(%rbp)
    b3e4:	4b 12 dc 
    b3e7:	c7 85 00 fc ff ff 01 	movl   $0x1,-0x400(%rbp)
    b3ee:	00 00 00 
    b3f1:	c7 85 04 fc ff ff b5 	movl   $0x931031b5,-0x3fc(%rbp)
    b3f8:	31 10 93 
    b3fb:	c7 85 08 fc ff ff 53 	movl   $0x39d2d553,-0x3f8(%rbp)
    b402:	d5 d2 39 
    b405:	c7 85 0c fc ff ff 00 	movl   $0x0,-0x3f4(%rbp)
    b40c:	00 00 00 
    b40f:	48 8d 05 32 b0 00 00 	lea    0xb032(%rip),%rax        # 16448 <g_678>
    b416:	48 89 85 40 fc ff ff 	mov    %rax,-0x3c0(%rbp)
    b41d:	66 c7 85 f6 fb ff ff 	movw   $0xfffc,-0x40a(%rbp)
    b424:	fc ff 
    b426:	48 c7 85 00 fd ff ff 	movq   $0x0,-0x300(%rbp)
    b42d:	00 00 00 00 
    b431:	48 c7 85 08 fd ff ff 	movq   $0x0,-0x2f8(%rbp)
    b438:	00 00 00 00 
    b43c:	48 c7 85 10 fd ff ff 	movq   $0x0,-0x2f0(%rbp)
    b443:	00 00 00 00 
    b447:	48 8d 05 2a c5 00 00 	lea    0xc52a(%rip),%rax        # 17978 <g_149>
    b44e:	48 89 85 20 fc ff ff 	mov    %rax,-0x3e0(%rbp)
    b455:	48 8d 85 20 fc ff ff 	lea    -0x3e0(%rbp),%rax
    b45c:	48 89 85 40 fe ff ff 	mov    %rax,-0x1c0(%rbp)
    b463:	48 8d 85 20 fc ff ff 	lea    -0x3e0(%rbp),%rax
    b46a:	48 89 85 48 fe ff ff 	mov    %rax,-0x1b8(%rbp)
    b471:	48 8d 85 20 fc ff ff 	lea    -0x3e0(%rbp),%rax
    b478:	48 89 85 50 fe ff ff 	mov    %rax,-0x1b0(%rbp)
    b47f:	48 8d 85 20 fc ff ff 	lea    -0x3e0(%rbp),%rax
    b486:	48 89 85 58 fe ff ff 	mov    %rax,-0x1a8(%rbp)
    b48d:	48 8d 85 20 fc ff ff 	lea    -0x3e0(%rbp),%rax
    b494:	48 89 85 60 fe ff ff 	mov    %rax,-0x1a0(%rbp)
    b49b:	48 8d 85 20 fc ff ff 	lea    -0x3e0(%rbp),%rax
    b4a2:	48 89 85 68 fe ff ff 	mov    %rax,-0x198(%rbp)
    b4a9:	48 c7 85 70 fe ff ff 	movq   $0x0,-0x190(%rbp)
    b4b0:	00 00 00 00 
    b4b4:	48 8d 85 20 fc ff ff 	lea    -0x3e0(%rbp),%rax
    b4bb:	48 89 85 78 fe ff ff 	mov    %rax,-0x188(%rbp)
    b4c2:	48 8d 85 20 fc ff ff 	lea    -0x3e0(%rbp),%rax
    b4c9:	48 89 85 80 fe ff ff 	mov    %rax,-0x180(%rbp)
    b4d0:	48 c7 85 88 fe ff ff 	movq   $0x0,-0x178(%rbp)
    b4d7:	00 00 00 00 
    b4db:	48 c7 85 90 fe ff ff 	movq   $0x0,-0x170(%rbp)
    b4e2:	00 00 00 00 
    b4e6:	48 8d 85 20 fc ff ff 	lea    -0x3e0(%rbp),%rax
    b4ed:	48 89 85 98 fe ff ff 	mov    %rax,-0x168(%rbp)
    b4f4:	48 8d 85 20 fc ff ff 	lea    -0x3e0(%rbp),%rax
    b4fb:	48 89 85 a0 fe ff ff 	mov    %rax,-0x160(%rbp)
    b502:	48 8d 85 20 fc ff ff 	lea    -0x3e0(%rbp),%rax
    b509:	48 89 85 a8 fe ff ff 	mov    %rax,-0x158(%rbp)
    b510:	48 8d 85 20 fc ff ff 	lea    -0x3e0(%rbp),%rax
    b517:	48 89 85 b0 fe ff ff 	mov    %rax,-0x150(%rbp)
    b51e:	48 8d 85 20 fc ff ff 	lea    -0x3e0(%rbp),%rax
    b525:	48 89 85 b8 fe ff ff 	mov    %rax,-0x148(%rbp)
    b52c:	48 8d 85 20 fc ff ff 	lea    -0x3e0(%rbp),%rax
    b533:	48 89 85 c0 fe ff ff 	mov    %rax,-0x140(%rbp)
    b53a:	48 8d 85 20 fc ff ff 	lea    -0x3e0(%rbp),%rax
    b541:	48 89 85 c8 fe ff ff 	mov    %rax,-0x138(%rbp)
    b548:	48 8d 85 20 fc ff ff 	lea    -0x3e0(%rbp),%rax
    b54f:	48 89 85 d0 fe ff ff 	mov    %rax,-0x130(%rbp)
    b556:	48 8d 85 20 fc ff ff 	lea    -0x3e0(%rbp),%rax
    b55d:	48 89 85 d8 fe ff ff 	mov    %rax,-0x128(%rbp)
    b564:	48 8d 85 20 fc ff ff 	lea    -0x3e0(%rbp),%rax
    b56b:	48 89 85 e0 fe ff ff 	mov    %rax,-0x120(%rbp)
    b572:	48 c7 85 e8 fe ff ff 	movq   $0x0,-0x118(%rbp)
    b579:	00 00 00 00 
    b57d:	48 8d 85 20 fc ff ff 	lea    -0x3e0(%rbp),%rax
    b584:	48 89 85 f0 fe ff ff 	mov    %rax,-0x110(%rbp)
    b58b:	48 8d 85 20 fc ff ff 	lea    -0x3e0(%rbp),%rax
    b592:	48 89 85 f8 fe ff ff 	mov    %rax,-0x108(%rbp)
    b599:	48 c7 85 00 ff ff ff 	movq   $0x0,-0x100(%rbp)
    b5a0:	00 00 00 00 
    b5a4:	48 c7 85 08 ff ff ff 	movq   $0x0,-0xf8(%rbp)
    b5ab:	00 00 00 00 
    b5af:	48 8d 85 20 fc ff ff 	lea    -0x3e0(%rbp),%rax
    b5b6:	48 89 85 10 ff ff ff 	mov    %rax,-0xf0(%rbp)
    b5bd:	48 8d 85 40 fe ff ff 	lea    -0x1c0(%rbp),%rax
    b5c4:	48 05 b8 00 00 00    	add    $0xb8,%rax
    b5ca:	48 89 85 48 fc ff ff 	mov    %rax,-0x3b8(%rbp)
    b5d1:	48 8d 05 54 b0 00 00 	lea    0xb054(%rip),%rax        # 1662c <g_720>
    b5d8:	48 89 85 50 fc ff ff 	mov    %rax,-0x3b0(%rbp)
    b5df:	48 8d 85 f6 fb ff ff 	lea    -0x40a(%rbp),%rax
    b5e6:	48 89 85 58 fc ff ff 	mov    %rax,-0x3a8(%rbp)
    b5ed:	66 c7 85 b0 fc ff ff 	movw   $0x5,-0x350(%rbp)
    b5f4:	05 00 
    b5f6:	66 c7 85 b2 fc ff ff 	movw   $0x0,-0x34e(%rbp)
    b5fd:	00 00 
    b5ff:	66 c7 85 b4 fc ff ff 	movw   $0x5,-0x34c(%rbp)
    b606:	05 00 
    b608:	66 c7 85 b6 fc ff ff 	movw   $0x0,-0x34a(%rbp)
    b60f:	00 00 
    b611:	66 c7 85 b8 fc ff ff 	movw   $0x5,-0x348(%rbp)
    b618:	05 00 
    b61a:	66 c7 85 ba fc ff ff 	movw   $0x0,-0x346(%rbp)
    b621:	00 00 
    b623:	66 c7 85 bc fc ff ff 	movw   $0x5,-0x344(%rbp)
    b62a:	05 00 
    b62c:	66 c7 85 be fc ff ff 	movw   $0x0,-0x342(%rbp)
    b633:	00 00 
    b635:	c6 85 f0 fb ff ff a2 	movb   $0xa2,-0x410(%rbp)
    b63c:	c7 85 10 fc ff ff 01 	movl   $0x1,-0x3f0(%rbp)
    b643:	00 00 00 
    b646:	48 c7 85 60 fc ff ff 	movq   $0x0,-0x3a0(%rbp)
    b64d:	00 00 00 00 
    b651:	48 8d 05 60 5a 00 00 	lea    0x5a60(%rip),%rax        # 110b8 <g_1340>
    b658:	48 89 85 68 fc ff ff 	mov    %rax,-0x398(%rbp)
    b65f:	c6 85 f1 fb ff ff 01 	movb   $0x1,-0x40f(%rbp)
    b666:	c7 85 14 fc ff ff ff 	movl   $0xffffffff,-0x3ec(%rbp)
    b66d:	ff ff ff 
    b670:	48 8d 05 f5 b0 00 00 	lea    0xb0f5(%rip),%rax        # 1676c <g_1551>
    b677:	48 89 85 70 fc ff ff 	mov    %rax,-0x390(%rbp)
    b67e:	48 b8 d2 4d 16 f1 a6 	movabs $0x79cec4a6f1164dd2,%rax
    b685:	c4 ce 79 
    b688:	48 89 85 78 fc ff ff 	mov    %rax,-0x388(%rbp)
    b68f:	c6 85 f2 fb ff ff 07 	movb   $0x7,-0x40e(%rbp)
    b696:	48 c7 85 80 fc ff ff 	movq   $0x0,-0x380(%rbp)
    b69d:	00 00 00 00 
    b6a1:	48 8d 85 e0 fd ff ff 	lea    -0x220(%rbp),%rax
    b6a8:	48 83 c0 28          	add    $0x28,%rax
    b6ac:	48 89 85 88 fc ff ff 	mov    %rax,-0x378(%rbp)
    b6b3:	48 c7 85 90 fc ff ff 	movq   $0x0,-0x370(%rbp)
    b6ba:	00 00 00 00 
    b6be:	c7 85 20 fd ff ff ff 	movl   $0xffffffff,-0x2e0(%rbp)
    b6c5:	ff ff ff 
    b6c8:	c7 85 24 fd ff ff ff 	movl   $0xffffffff,-0x2dc(%rbp)
    b6cf:	ff ff ff 
    b6d2:	c7 85 28 fd ff ff ff 	movl   $0xffffffff,-0x2d8(%rbp)
    b6d9:	ff ff ff 
    b6dc:	c7 85 2c fd ff ff ff 	movl   $0xffffffff,-0x2d4(%rbp)
    b6e3:	ff ff ff 
    b6e6:	c7 85 30 fd ff ff ff 	movl   $0xffffffff,-0x2d0(%rbp)
    b6ed:	ff ff ff 
    b6f0:	c7 85 34 fd ff ff ff 	movl   $0xffffffff,-0x2cc(%rbp)
    b6f7:	ff ff ff 
    b6fa:	c7 85 38 fd ff ff ff 	movl   $0xffffffff,-0x2c8(%rbp)
    b701:	ff ff ff 
    b704:	48 8d 05 75 c2 00 00 	lea    0xc275(%rip),%rax        # 17980 <g_165>
    b70b:	48 89 85 28 fc ff ff 	mov    %rax,-0x3d8(%rbp)
    b712:	48 8d 85 28 fc ff ff 	lea    -0x3d8(%rbp),%rax
    b719:	48 89 85 30 fc ff ff 	mov    %rax,-0x3d0(%rbp)
    b720:	48 8d 85 30 fc ff ff 	lea    -0x3d0(%rbp),%rax
    b727:	48 89 85 20 ff ff ff 	mov    %rax,-0xe0(%rbp)
    b72e:	48 8d 85 30 fc ff ff 	lea    -0x3d0(%rbp),%rax
    b735:	48 89 85 28 ff ff ff 	mov    %rax,-0xd8(%rbp)
    b73c:	48 8d 85 30 fc ff ff 	lea    -0x3d0(%rbp),%rax
    b743:	48 89 85 30 ff ff ff 	mov    %rax,-0xd0(%rbp)
    b74a:	48 8d 85 30 fc ff ff 	lea    -0x3d0(%rbp),%rax
    b751:	48 89 85 38 ff ff ff 	mov    %rax,-0xc8(%rbp)
    b758:	48 8d 85 30 fc ff ff 	lea    -0x3d0(%rbp),%rax
    b75f:	48 89 85 40 ff ff ff 	mov    %rax,-0xc0(%rbp)
    b766:	48 8d 85 30 fc ff ff 	lea    -0x3d0(%rbp),%rax
    b76d:	48 89 85 48 ff ff ff 	mov    %rax,-0xb8(%rbp)
    b774:	48 8d 85 30 fc ff ff 	lea    -0x3d0(%rbp),%rax
    b77b:	48 89 85 50 ff ff ff 	mov    %rax,-0xb0(%rbp)
    b782:	48 8d 85 30 fc ff ff 	lea    -0x3d0(%rbp),%rax
    b789:	48 89 85 58 ff ff ff 	mov    %rax,-0xa8(%rbp)
    b790:	48 8d 85 30 fc ff ff 	lea    -0x3d0(%rbp),%rax
    b797:	48 89 85 60 ff ff ff 	mov    %rax,-0xa0(%rbp)
    b79e:	48 8d 85 30 fc ff ff 	lea    -0x3d0(%rbp),%rax
    b7a5:	48 89 85 68 ff ff ff 	mov    %rax,-0x98(%rbp)
    b7ac:	48 8d 85 30 fc ff ff 	lea    -0x3d0(%rbp),%rax
    b7b3:	48 89 85 70 ff ff ff 	mov    %rax,-0x90(%rbp)
    b7ba:	48 8d 85 30 fc ff ff 	lea    -0x3d0(%rbp),%rax
    b7c1:	48 89 85 78 ff ff ff 	mov    %rax,-0x88(%rbp)
    b7c8:	48 8d 85 30 fc ff ff 	lea    -0x3d0(%rbp),%rax
    b7cf:	48 89 45 80          	mov    %rax,-0x80(%rbp)
    b7d3:	48 8d 85 30 fc ff ff 	lea    -0x3d0(%rbp),%rax
    b7da:	48 89 45 88          	mov    %rax,-0x78(%rbp)
    b7de:	48 8d 85 30 fc ff ff 	lea    -0x3d0(%rbp),%rax
    b7e5:	48 89 45 90          	mov    %rax,-0x70(%rbp)
    b7e9:	48 8d 85 30 fc ff ff 	lea    -0x3d0(%rbp),%rax
    b7f0:	48 89 45 98          	mov    %rax,-0x68(%rbp)
    b7f4:	48 8d 85 30 fc ff ff 	lea    -0x3d0(%rbp),%rax
    b7fb:	48 89 45 a0          	mov    %rax,-0x60(%rbp)
    b7ff:	48 8d 85 30 fc ff ff 	lea    -0x3d0(%rbp),%rax
    b806:	48 89 45 a8          	mov    %rax,-0x58(%rbp)
    b80a:	48 8d 85 30 fc ff ff 	lea    -0x3d0(%rbp),%rax
    b811:	48 89 45 b0          	mov    %rax,-0x50(%rbp)
    b815:	48 8d 85 30 fc ff ff 	lea    -0x3d0(%rbp),%rax
    b81c:	48 89 45 b8          	mov    %rax,-0x48(%rbp)
    b820:	48 8d 85 30 fc ff ff 	lea    -0x3d0(%rbp),%rax
    b827:	48 89 45 c0          	mov    %rax,-0x40(%rbp)
    b82b:	48 8d 85 30 fc ff ff 	lea    -0x3d0(%rbp),%rax
    b832:	48 89 45 c8          	mov    %rax,-0x38(%rbp)
    b836:	48 8d 85 30 fc ff ff 	lea    -0x3d0(%rbp),%rax
    b83d:	48 89 45 d0          	mov    %rax,-0x30(%rbp)
    b841:	48 8d 85 30 fc ff ff 	lea    -0x3d0(%rbp),%rax
    b848:	48 89 45 d8          	mov    %rax,-0x28(%rbp)
    b84c:	48 8d 85 30 fc ff ff 	lea    -0x3d0(%rbp),%rax
    b853:	48 89 45 e0          	mov    %rax,-0x20(%rbp)
    b857:	48 8d 85 30 fc ff ff 	lea    -0x3d0(%rbp),%rax
    b85e:	48 89 45 e8          	mov    %rax,-0x18(%rbp)
    b862:	48 8d 85 30 fc ff ff 	lea    -0x3d0(%rbp),%rax
    b869:	48 89 45 f0          	mov    %rax,-0x10(%rbp)
    b86d:	c7 85 a0 fd ff ff 50 	movl   $0x3c254250,-0x260(%rbp)
    b874:	42 25 3c 
    b877:	c7 85 a4 fd ff ff 50 	movl   $0x3c254250,-0x25c(%rbp)
    b87e:	42 25 3c 
    b881:	c7 85 a8 fd ff ff 50 	movl   $0x3c254250,-0x258(%rbp)
    b888:	42 25 3c 
    b88b:	c7 85 ac fd ff ff f1 	movl   $0x9d0f12f1,-0x254(%rbp)
    b892:	12 0f 9d 
    b895:	c7 85 b0 fd ff ff f1 	movl   $0x9d0f12f1,-0x250(%rbp)
    b89c:	12 0f 9d 
    b89f:	c7 85 b4 fd ff ff f1 	movl   $0x9d0f12f1,-0x24c(%rbp)
    b8a6:	12 0f 9d 
    b8a9:	c7 85 b8 fd ff ff 50 	movl   $0x3c254250,-0x248(%rbp)
    b8b0:	42 25 3c 
    b8b3:	c7 85 bc fd ff ff 50 	movl   $0x3c254250,-0x244(%rbp)
    b8ba:	42 25 3c 
    b8bd:	c7 85 c0 fd ff ff 50 	movl   $0x3c254250,-0x240(%rbp)
    b8c4:	42 25 3c 
    b8c7:	c7 85 c4 fd ff ff f1 	movl   $0x9d0f12f1,-0x23c(%rbp)
    b8ce:	12 0f 9d 
    b8d1:	c7 85 c8 fd ff ff f1 	movl   $0x9d0f12f1,-0x238(%rbp)
    b8d8:	12 0f 9d 
    b8db:	c7 85 cc fd ff ff f1 	movl   $0x9d0f12f1,-0x234(%rbp)
    b8e2:	12 0f 9d 
    b8e5:	c7 85 d0 fd ff ff 50 	movl   $0x3c254250,-0x230(%rbp)
    b8ec:	42 25 3c 
    b8ef:	c7 85 d4 fd ff ff 50 	movl   $0x3c254250,-0x22c(%rbp)
    b8f6:	42 25 3c 
    b8f9:	c7 85 d8 fd ff ff 50 	movl   $0x3c254250,-0x228(%rbp)
    b900:	42 25 3c 
    b903:	48 c7 85 c0 fc ff ff 	movq   $0x0,-0x340(%rbp)
    b90a:	00 00 00 00 
    b90e:	48 c7 85 c8 fc ff ff 	movq   $0x0,-0x338(%rbp)
    b915:	00 00 00 00 
    b919:	66 c7 85 d0 fc ff ff 	movw   $0x0,-0x330(%rbp)
    b920:	00 00 
    b922:	c6 85 f3 fb ff ff 3a 	movb   $0x3a,-0x40d(%rbp)
    b929:	48 c7 85 98 fc ff ff 	movq   $0x0,-0x368(%rbp)
    b930:	00 00 00 00 
    b934:	48 8d 05 a1 ab 00 00 	lea    0xaba1(%rip),%rax        # 164dc <g_715>
    b93b:	48 89 85 a0 fc ff ff 	mov    %rax,-0x360(%rbp)
    b942:	c7 85 18 fc ff ff 00 	movl   $0x0,-0x3e8(%rbp)
    b949:	00 00 00 
    b94c:	48 b8 48 2e f8 04 39 	movabs $0xcfdf4c3904f82e48,%rax
    b953:	4c df cf 
    b956:	48 89 85 a8 fc ff ff 	mov    %rax,-0x358(%rbp)
    b95d:	c6 85 f4 fb ff ff c5 	movb   $0xc5,-0x40c(%rbp)
    b964:	c6 85 f5 fb ff ff ce 	movb   $0xce,-0x40b(%rbp)
    b96b:	c7 85 1c fc ff ff 01 	movl   $0x1,-0x3e4(%rbp)
    b972:	00 00 00 
    b975:	c7 85 f8 fb ff ff 00 	movl   $0x0,-0x408(%rbp)
    b97c:	00 00 00 
    b97f:	eb 1e                	jmp    b99f <func_49+0x6f8>
    b981:	8b 85 f8 fb ff ff    	mov    -0x408(%rbp),%eax
    b987:	48 98                	cltq   
    b989:	48 8d 15 8c aa 00 00 	lea    0xaa8c(%rip),%rdx        # 1641c <g_455>
    b990:	48 89 94 c5 60 fd ff 	mov    %rdx,-0x2a0(%rbp,%rax,8)
    b997:	ff 
    b998:	83 85 f8 fb ff ff 01 	addl   $0x1,-0x408(%rbp)
    b99f:	83 bd f8 fb ff ff 06 	cmpl   $0x6,-0x408(%rbp)
    b9a6:	7e d9                	jle    b981 <func_49+0x6da>
    b9a8:	c7 85 f8 fb ff ff 00 	movl   $0x0,-0x408(%rbp)
    b9af:	00 00 00 
    b9b2:	eb 1b                	jmp    b9cf <func_49+0x728>
    b9b4:	8b 85 f8 fb ff ff    	mov    -0x408(%rbp),%eax
    b9ba:	48 98                	cltq   
    b9bc:	48 c7 84 c5 40 fd ff 	movq   $0x0,-0x2c0(%rbp,%rax,8)
    b9c3:	ff 00 00 00 00 
    b9c8:	83 85 f8 fb ff ff 01 	addl   $0x1,-0x408(%rbp)
    b9cf:	83 bd f8 fb ff ff 03 	cmpl   $0x3,-0x408(%rbp)
    b9d6:	7e dc                	jle    b9b4 <func_49+0x70d>
    b9d8:	48 8b 05 a9 c1 00 00 	mov    0xc1a9(%rip),%rax        # 17b88 <g_1095>
    b9df:	48 8b 00             	mov    (%rax),%rax
    b9e2:	48 8b 00             	mov    (%rax),%rax
    b9e5:	48 8b 4d f8          	mov    -0x8(%rbp),%rcx
    b9e9:	64 48 33 0c 25 28 00 	xor    %fs:0x28,%rcx
    b9f0:	00 00 
    b9f2:	74 05                	je     b9f9 <func_49+0x752>
    b9f4:	e8 77 96 ff ff       	callq  5070 <__stack_chk_fail@plt>
    b9f9:	c9                   	leaveq 
    b9fa:	c3                   	retq   

000000000000b9fb <func_55>:
    b9fb:	f3 0f 1e fa          	endbr64 
    b9ff:	55                   	push   %rbp
    ba00:	48 89 e5             	mov    %rsp,%rbp
    ba03:	41 55                	push   %r13
    ba05:	41 54                	push   %r12
    ba07:	53                   	push   %rbx
    ba08:	48 81 ec 68 02 00 00 	sub    $0x268,%rsp
    ba0f:	89 f8                	mov    %edi,%eax
    ba11:	88 85 8c fd ff ff    	mov    %al,-0x274(%rbp)
    ba17:	64 48 8b 04 25 28 00 	mov    %fs:0x28,%rax
    ba1e:	00 00 
    ba20:	48 89 45 d8          	mov    %rax,-0x28(%rbp)
    ba24:	31 c0                	xor    %eax,%eax
    ba26:	48 8d 05 1b aa 00 00 	lea    0xaa1b(%rip),%rax        # 16448 <g_678>
    ba2d:	48 89 85 a0 fd ff ff 	mov    %rax,-0x260(%rbp)
    ba34:	48 8d 05 11 aa 00 00 	lea    0xaa11(%rip),%rax        # 1644c <g_680>
    ba3b:	48 89 85 a8 fd ff ff 	mov    %rax,-0x258(%rbp)
    ba42:	48 8d 85 d0 fd ff ff 	lea    -0x230(%rbp),%rax
    ba49:	48 8d 15 10 bd 00 00 	lea    0xbd10(%rip),%rdx        # 17760 <g_3808+0x8d4>
    ba50:	b9 40 00 00 00       	mov    $0x40,%ecx
    ba55:	48 89 c7             	mov    %rax,%rdi
    ba58:	48 89 d6             	mov    %rdx,%rsi
    ba5b:	f3 48 a5             	rep movsq %ds:(%rsi),%es:(%rdi)
    ba5e:	48 8d 85 d0 fd ff ff 	lea    -0x230(%rbp),%rax
    ba65:	48 05 80 01 00 00    	add    $0x180,%rax
    ba6b:	48 89 85 b0 fd ff ff 	mov    %rax,-0x250(%rbp)
    ba72:	48 8b 85 a0 fd ff ff 	mov    -0x260(%rbp),%rax
    ba79:	48 89 85 a8 fd ff ff 	mov    %rax,-0x258(%rbp)
    ba80:	c7 05 ba a9 00 00 00 	movl   $0x0,0xa9ba(%rip)        # 16444 <g_675>
    ba87:	00 00 00 
    ba8a:	eb 3f                	jmp    bacb <func_55+0xd0>
    ba8c:	8b 05 b2 a9 00 00    	mov    0xa9b2(%rip),%eax        # 16444 <g_675>
    ba92:	89 c2                	mov    %eax,%edx
    ba94:	48 8d 05 7d a9 00 00 	lea    0xa97d(%rip),%rax        # 16418 <g_340>
    ba9b:	0f b6 04 02          	movzbl (%rdx,%rax,1),%eax
    ba9f:	0f be c0             	movsbl %al,%eax
    baa2:	be 06 00 00 00       	mov    $0x6,%esi
    baa7:	89 c7                	mov    %eax,%edi
    baa9:	e8 87 98 ff ff       	callq  5335 <safe_rshift_func_int8_t_s_s>
    baae:	89 c2                	mov    %eax,%edx
    bab0:	48 8b 05 f1 be 00 00 	mov    0xbef1(%rip),%rax        # 179a8 <g_468>
    bab7:	0f be d2             	movsbl %dl,%edx
    baba:	89 10                	mov    %edx,(%rax)
    babc:	8b 05 82 a9 00 00    	mov    0xa982(%rip),%eax        # 16444 <g_675>
    bac2:	83 c0 01             	add    $0x1,%eax
    bac5:	89 05 79 a9 00 00    	mov    %eax,0xa979(%rip)        # 16444 <g_675>
    bacb:	8b 05 73 a9 00 00    	mov    0xa973(%rip),%eax        # 16444 <g_675>
    bad1:	83 f8 02             	cmp    $0x2,%eax
    bad4:	76 b6                	jbe    ba8c <func_55+0x91>
    bad6:	66 c7 05 3f a9 00 00 	movw   $0xfffa,0xa93f(%rip)        # 1641e <g_456>
    badd:	fa ff 
    badf:	90                   	nop
    bae0:	0f b7 05 37 a9 00 00 	movzwl 0xa937(%rip),%eax        # 1641e <g_456>
    bae7:	66 83 f8 08          	cmp    $0x8,%ax
    baeb:	0f 86 4f 01 00 00    	jbe    bc40 <func_55+0x245>
    baf1:	66 c7 85 9e fd ff ff 	movw   $0x0,-0x262(%rbp)
    baf8:	00 00 
    bafa:	48 c7 85 b8 fd ff ff 	movq   $0x0,-0x248(%rbp)
    bb01:	00 00 00 00 
    bb05:	48 8d 05 0e a9 00 00 	lea    0xa90e(%rip),%rax        # 1641a <g_340+0x2>
    bb0c:	48 89 85 c0 fd ff ff 	mov    %rax,-0x240(%rbp)
    bb13:	48 8d 05 a6 a8 00 00 	lea    0xa8a6(%rip),%rax        # 163c0 <g_159>
    bb1a:	48 89 85 c8 fd ff ff 	mov    %rax,-0x238(%rbp)
    bb21:	0f b7 05 f6 a8 00 00 	movzwl 0xa8f6(%rip),%eax        # 1641e <g_456>
    bb28:	66 85 c0             	test   %ax,%ax
    bb2b:	74 05                	je     bb32 <func_55+0x137>
    bb2d:	e9 4e ff ff ff       	jmpq   ba80 <func_55+0x85>
    bb32:	48 0f be 9d 8c fd ff 	movsbq -0x274(%rbp),%rbx
    bb39:	ff 
    bb3a:	8b 05 48 a5 00 00    	mov    0xa548(%rip),%eax        # 16088 <g_79+0x8>
    bb40:	98                   	cwtl   
    bb41:	be 01 00 00 00       	mov    $0x1,%esi
    bb46:	89 c7                	mov    %eax,%edi
    bb48:	e8 08 99 ff ff       	callq  5455 <safe_div_func_int16_t_s_s>
    bb4d:	0f b7 85 9e fd ff ff 	movzwl -0x262(%rbp),%eax
    bb54:	44 0f bf e0          	movswl %ax,%r12d
    bb58:	0f b7 05 61 a8 00 00 	movzwl 0xa861(%rip),%eax        # 163c0 <g_159>
    bb5f:	66 83 f8 01          	cmp    $0x1,%ax
    bb63:	0f 97 c0             	seta   %al
    bb66:	44 0f b6 e8          	movzbl %al,%r13d
    bb6a:	48 8b 05 07 be 00 00 	mov    0xbe07(%rip),%rax        # 17978 <g_149>
    bb71:	0f b6 00             	movzbl (%rax),%eax
    bb74:	0f b6 c0             	movzbl %al,%eax
    bb77:	48 8b 95 c0 fd ff ff 	mov    -0x240(%rbp),%rdx
    bb7e:	0f b6 12             	movzbl (%rdx),%edx
    bb81:	8d 4a 01             	lea    0x1(%rdx),%ecx
    bb84:	48 8b 95 c0 fd ff ff 	mov    -0x240(%rbp),%rdx
    bb8b:	88 0a                	mov    %cl,(%rdx)
    bb8d:	89 c6                	mov    %eax,%esi
    bb8f:	bf 00 00 00 00       	mov    $0x0,%edi
    bb94:	e8 df 9f ff ff       	callq  5b78 <safe_sub_func_uint8_t_u_u>
    bb99:	0f b6 c0             	movzbl %al,%eax
    bb9c:	41 39 c5             	cmp    %eax,%r13d
    bb9f:	0f 9e c0             	setle  %al
    bba2:	0f b6 d0             	movzbl %al,%edx
    bba5:	0f be 85 8c fd ff ff 	movsbl -0x274(%rbp),%eax
    bbac:	39 c2                	cmp    %eax,%edx
    bbae:	7d 08                	jge    bbb8 <func_55+0x1bd>
    bbb0:	66 83 bd 9e fd ff ff 	cmpw   $0x0,-0x262(%rbp)
    bbb7:	00 
    bbb8:	44 89 e6             	mov    %r12d,%esi
    bbbb:	bf 00 00 00 00       	mov    $0x0,%edi
    bbc0:	e8 ee 97 ff ff       	callq  53b3 <safe_add_func_int16_t_s_s>
    bbc5:	66 25 60 80          	and    $0x8060,%ax
    bbc9:	89 c2                	mov    %eax,%edx
    bbcb:	48 8b 85 c8 fd ff ff 	mov    -0x238(%rbp),%rax
    bbd2:	66 89 10             	mov    %dx,(%rax)
    bbd5:	48 8b 85 c8 fd ff ff 	mov    -0x238(%rbp),%rax
    bbdc:	0f b7 00             	movzwl (%rax),%eax
    bbdf:	0f b7 c0             	movzwl %ax,%eax
    bbe2:	be 6c a6 00 00       	mov    $0xa66c,%esi
    bbe7:	89 c7                	mov    %eax,%edi
    bbe9:	e8 11 a1 ff ff       	callq  5cff <safe_add_func_uint16_t_u_u>
    bbee:	66 85 c0             	test   %ax,%ax
    bbf1:	0f 94 c0             	sete   %al
    bbf4:	0f b6 c0             	movzbl %al,%eax
    bbf7:	be 00 00 00 00       	mov    $0x0,%esi
    bbfc:	89 c7                	mov    %eax,%edi
    bbfe:	e8 49 a0 ff ff       	callq  5c4c <safe_lshift_func_uint8_t_u_u>
    bc03:	0f b6 c0             	movzbl %al,%eax
    bc06:	48 89 de             	mov    %rbx,%rsi
    bc09:	48 89 c7             	mov    %rax,%rdi
    bc0c:	e8 97 9c ff ff       	callq  58a8 <safe_sub_func_int64_t_s_s>
    bc11:	8b 15 29 cf 00 00    	mov    0xcf29(%rip),%edx        # 18b40 <g_728>
    bc17:	48 63 d2             	movslq %edx,%rdx
    bc1a:	48 39 d0             	cmp    %rdx,%rax
    bc1d:	0f 9f c0             	setg   %al
    bc20:	0f b6 c8             	movzbl %al,%ecx
    bc23:	48 8b 05 7e bd 00 00 	mov    0xbd7e(%rip),%rax        # 179a8 <g_468>
    bc2a:	8b 10                	mov    (%rax),%edx
    bc2c:	48 8b 05 75 bd 00 00 	mov    0xbd75(%rip),%rax        # 179a8 <g_468>
    bc33:	31 ca                	xor    %ecx,%edx
    bc35:	89 10                	mov    %edx,(%rax)
    bc37:	48 8d 05 86 a4 00 00 	lea    0xa486(%rip),%rax        # 160c4 <g_87+0x4>
    bc3e:	eb 07                	jmp    bc47 <func_55+0x24c>
    bc40:	48 8d 05 f1 a7 00 00 	lea    0xa7f1(%rip),%rax        # 16438 <g_547+0x8>
    bc47:	48 8b 5d d8          	mov    -0x28(%rbp),%rbx
    bc4b:	64 48 33 1c 25 28 00 	xor    %fs:0x28,%rbx
    bc52:	00 00 
    bc54:	74 05                	je     bc5b <func_55+0x260>
    bc56:	e8 15 94 ff ff       	callq  5070 <__stack_chk_fail@plt>
    bc5b:	48 81 c4 68 02 00 00 	add    $0x268,%rsp
    bc62:	5b                   	pop    %rbx
    bc63:	41 5c                	pop    %r12
    bc65:	41 5d                	pop    %r13
    bc67:	5d                   	pop    %rbp
    bc68:	c3                   	retq   

000000000000bc69 <func_61>:
    bc69:	f3 0f 1e fa          	endbr64 
    bc6d:	55                   	push   %rbp
    bc6e:	48 89 e5             	mov    %rsp,%rbp
    bc71:	41 57                	push   %r15
    bc73:	41 56                	push   %r14
    bc75:	41 55                	push   %r13
    bc77:	41 54                	push   %r12
    bc79:	53                   	push   %rbx
    bc7a:	48 81 ec f8 05 00 00 	sub    $0x5f8,%rsp
    bc81:	48 89 bd 08 fa ff ff 	mov    %rdi,-0x5f8(%rbp)
    bc88:	48 89 b5 00 fa ff ff 	mov    %rsi,-0x600(%rbp)
    bc8f:	48 89 95 f8 f9 ff ff 	mov    %rdx,-0x608(%rbp)
    bc96:	89 8d f4 f9 ff ff    	mov    %ecx,-0x60c(%rbp)
    bc9c:	64 48 8b 04 25 28 00 	mov    %fs:0x28,%rax
    bca3:	00 00 
    bca5:	48 89 45 c8          	mov    %rax,-0x38(%rbp)
    bca9:	31 c0                	xor    %eax,%eax
    bcab:	48 8d 05 0e a7 00 00 	lea    0xa70e(%rip),%rax        # 163c0 <g_159>
    bcb2:	48 89 85 a8 fb ff ff 	mov    %rax,-0x458(%rbp)
    bcb9:	c7 85 28 fa ff ff 06 	movl   $0x6,-0x5d8(%rbp)
    bcc0:	00 00 00 
    bcc3:	c6 85 10 fa ff ff 48 	movb   $0x48,-0x5f0(%rbp)
    bcca:	48 8d 05 62 a4 00 00 	lea    0xa462(%rip),%rax        # 16133 <g_138>
    bcd1:	48 89 85 80 fa ff ff 	mov    %rax,-0x580(%rbp)
    bcd8:	c7 85 34 fa ff ff f6 	movl   $0xfffffff6,-0x5cc(%rbp)
    bcdf:	ff ff ff 
    bce2:	48 8d 05 97 bc 00 00 	lea    0xbc97(%rip),%rax        # 17980 <g_165>
    bce9:	48 89 85 88 fa ff ff 	mov    %rax,-0x578(%rbp)
    bcf0:	66 c7 85 d0 fb ff ff 	movw   $0x2712,-0x430(%rbp)
    bcf7:	12 27 
    bcf9:	66 c7 85 d2 fb ff ff 	movw   $0x4e70,-0x42e(%rbp)
    bd00:	70 4e 
    bd02:	66 c7 85 d4 fb ff ff 	movw   $0xa3cf,-0x42c(%rbp)
    bd09:	cf a3 
    bd0b:	66 c7 85 d6 fb ff ff 	movw   $0x4e70,-0x42a(%rbp)
    bd12:	70 4e 
    bd14:	66 c7 85 d8 fb ff ff 	movw   $0xc4ee,-0x428(%rbp)
    bd1b:	ee c4 
    bd1d:	66 c7 85 da fb ff ff 	movw   $0x2780,-0x426(%rbp)
    bd24:	80 27 
    bd26:	66 c7 85 dc fb ff ff 	movw   $0x1,-0x424(%rbp)
    bd2d:	01 00 
    bd2f:	66 c7 85 de fb ff ff 	movw   $0xfff6,-0x422(%rbp)
    bd36:	f6 ff 
    bd38:	66 c7 85 e0 fb ff ff 	movw   $0x1,-0x420(%rbp)
    bd3f:	01 00 
    bd41:	66 c7 85 e2 fb ff ff 	movw   $0x31da,-0x41e(%rbp)
    bd48:	da 31 
    bd4a:	66 c7 85 e4 fb ff ff 	movw   $0x2712,-0x41c(%rbp)
    bd51:	12 27 
    bd53:	66 c7 85 e6 fb ff ff 	movw   $0x1,-0x41a(%rbp)
    bd5a:	01 00 
    bd5c:	66 c7 85 e8 fb ff ff 	movw   $0xffff,-0x418(%rbp)
    bd63:	ff ff 
    bd65:	66 c7 85 ea fb ff ff 	movw   $0xfff6,-0x416(%rbp)
    bd6c:	f6 ff 
    bd6e:	66 c7 85 ec fb ff ff 	movw   $0x1,-0x414(%rbp)
    bd75:	01 00 
    bd77:	66 c7 85 ee fb ff ff 	movw   $0x1,-0x412(%rbp)
    bd7e:	01 00 
    bd80:	66 c7 85 f0 fb ff ff 	movw   $0xffff,-0x410(%rbp)
    bd87:	ff ff 
    bd89:	66 c7 85 f2 fb ff ff 	movw   $0xfff7,-0x40e(%rbp)
    bd90:	f7 ff 
    bd92:	66 c7 85 f4 fb ff ff 	movw   $0x2712,-0x40c(%rbp)
    bd99:	12 27 
    bd9b:	66 c7 85 f6 fb ff ff 	movw   $0x2712,-0x40a(%rbp)
    bda2:	12 27 
    bda4:	66 c7 85 f8 fb ff ff 	movw   $0x1,-0x408(%rbp)
    bdab:	01 00 
    bdad:	66 c7 85 fa fb ff ff 	movw   $0x1,-0x406(%rbp)
    bdb4:	01 00 
    bdb6:	66 c7 85 fc fb ff ff 	movw   $0x1,-0x404(%rbp)
    bdbd:	01 00 
    bdbf:	66 c7 85 fe fb ff ff 	movw   $0xa405,-0x402(%rbp)
    bdc6:	05 a4 
    bdc8:	66 c7 85 00 fc ff ff 	movw   $0xc4ee,-0x400(%rbp)
    bdcf:	ee c4 
    bdd1:	66 c7 85 02 fc ff ff 	movw   $0x1,-0x3fe(%rbp)
    bdd8:	01 00 
    bdda:	66 c7 85 04 fc ff ff 	movw   $0xa3cf,-0x3fc(%rbp)
    bde1:	cf a3 
    bde3:	66 c7 85 06 fc ff ff 	movw   $0x2780,-0x3fa(%rbp)
    bdea:	80 27 
    bdec:	66 c7 85 08 fc ff ff 	movw   $0x2712,-0x3f8(%rbp)
    bdf3:	12 27 
    bdf5:	66 c7 85 0a fc ff ff 	movw   $0xc,-0x3f6(%rbp)
    bdfc:	0c 00 
    bdfe:	66 c7 85 0c fc ff ff 	movw   $0x5,-0x3f4(%rbp)
    be05:	05 00 
    be07:	66 c7 85 0e fc ff ff 	movw   $0xa3cf,-0x3f2(%rbp)
    be0e:	cf a3 
    be10:	66 c7 85 10 fc ff ff 	movw   $0xa3cf,-0x3f0(%rbp)
    be17:	cf a3 
    be19:	66 c7 85 12 fc ff ff 	movw   $0xc,-0x3ee(%rbp)
    be20:	0c 00 
    be22:	66 c7 85 14 fc ff ff 	movw   $0x1,-0x3ec(%rbp)
    be29:	01 00 
    be2b:	66 c7 85 16 fc ff ff 	movw   $0x2780,-0x3ea(%rbp)
    be32:	80 27 
    be34:	66 c7 85 18 fc ff ff 	movw   $0xc,-0x3e8(%rbp)
    be3b:	0c 00 
    be3d:	66 c7 85 1a fc ff ff 	movw   $0x1,-0x3e6(%rbp)
    be44:	01 00 
    be46:	66 c7 85 1c fc ff ff 	movw   $0xc,-0x3e4(%rbp)
    be4d:	0c 00 
    be4f:	66 c7 85 1e fc ff ff 	movw   $0xa405,-0x3e2(%rbp)
    be56:	05 a4 
    be58:	66 c7 85 14 fa ff ff 	movw   $0xf6ed,-0x5ec(%rbp)
    be5f:	ed f6 
    be61:	66 c7 85 16 fa ff ff 	movw   $0xa6d8,-0x5ea(%rbp)
    be68:	d8 a6 
    be6a:	48 8d 05 07 bb 00 00 	lea    0xbb07(%rip),%rax        # 17978 <g_149>
    be71:	48 89 85 20 fc ff ff 	mov    %rax,-0x3e0(%rbp)
    be78:	48 8d 05 f9 ba 00 00 	lea    0xbaf9(%rip),%rax        # 17978 <g_149>
    be7f:	48 89 85 28 fc ff ff 	mov    %rax,-0x3d8(%rbp)
    be86:	48 8d 05 eb ba 00 00 	lea    0xbaeb(%rip),%rax        # 17978 <g_149>
    be8d:	48 89 85 30 fc ff ff 	mov    %rax,-0x3d0(%rbp)
    be94:	48 c7 85 38 fc ff ff 	movq   $0x0,-0x3c8(%rbp)
    be9b:	00 00 00 00 
    be9f:	48 8d 05 d2 ba 00 00 	lea    0xbad2(%rip),%rax        # 17978 <g_149>
    bea6:	48 89 85 40 fc ff ff 	mov    %rax,-0x3c0(%rbp)
    bead:	48 8d 05 c4 ba 00 00 	lea    0xbac4(%rip),%rax        # 17978 <g_149>
    beb4:	48 89 85 48 fc ff ff 	mov    %rax,-0x3b8(%rbp)
    bebb:	48 c7 85 50 fc ff ff 	movq   $0x0,-0x3b0(%rbp)
    bec2:	00 00 00 00 
    bec6:	48 c7 85 58 fc ff ff 	movq   $0x0,-0x3a8(%rbp)
    becd:	00 00 00 00 
    bed1:	48 8d 05 a0 ba 00 00 	lea    0xbaa0(%rip),%rax        # 17978 <g_149>
    bed8:	48 89 85 60 fc ff ff 	mov    %rax,-0x3a0(%rbp)
    bedf:	48 8d 05 92 ba 00 00 	lea    0xba92(%rip),%rax        # 17978 <g_149>
    bee6:	48 89 85 68 fc ff ff 	mov    %rax,-0x398(%rbp)
    beed:	48 8d 05 84 ba 00 00 	lea    0xba84(%rip),%rax        # 17978 <g_149>
    bef4:	48 89 85 70 fc ff ff 	mov    %rax,-0x390(%rbp)
    befb:	48 8d 05 76 ba 00 00 	lea    0xba76(%rip),%rax        # 17978 <g_149>
    bf02:	48 89 85 78 fc ff ff 	mov    %rax,-0x388(%rbp)
    bf09:	48 8d 85 20 fc ff ff 	lea    -0x3e0(%rbp),%rax
    bf10:	48 83 c0 58          	add    $0x58,%rax
    bf14:	48 89 85 90 fa ff ff 	mov    %rax,-0x570(%rbp)
    bf1b:	c7 85 38 fa ff ff 4f 	movl   $0x2cf0d54f,-0x5c8(%rbp)
    bf22:	d5 f0 2c 
    bf25:	c7 85 2c fa ff ff 00 	movl   $0x0,-0x5d4(%rbp)
    bf2c:	00 00 00 
    bf2f:	eb 1a                	jmp    bf4b <func_61+0x2e2>
    bf31:	8b 85 2c fa ff ff    	mov    -0x5d4(%rbp),%eax
    bf37:	48 98                	cltq   
    bf39:	c7 84 85 c0 fb ff ff 	movl   $0x85748553,-0x440(%rbp,%rax,4)
    bf40:	53 85 74 85 
    bf44:	83 85 2c fa ff ff 01 	addl   $0x1,-0x5d4(%rbp)
    bf4b:	83 bd 2c fa ff ff 03 	cmpl   $0x3,-0x5d4(%rbp)
    bf52:	7e dd                	jle    bf31 <func_61+0x2c8>
    bf54:	c7 85 2c fa ff ff 00 	movl   $0x0,-0x5d4(%rbp)
    bf5b:	00 00 00 
    bf5e:	eb 19                	jmp    bf79 <func_61+0x310>
    bf60:	8b 85 2c fa ff ff    	mov    -0x5d4(%rbp),%eax
    bf66:	48 98                	cltq   
    bf68:	66 c7 84 45 b6 fb ff 	movw   $0x0,-0x44a(%rbp,%rax,2)
    bf6f:	ff 00 00 
    bf72:	83 85 2c fa ff ff 01 	addl   $0x1,-0x5d4(%rbp)
    bf79:	83 bd 2c fa ff ff 04 	cmpl   $0x4,-0x5d4(%rbp)
    bf80:	7e de                	jle    bf60 <func_61+0x2f7>
    bf82:	48 c7 05 3b a4 00 00 	movq   $0xffffffffffffffe9,0xa43b(%rip)        # 163c8 <g_221>
    bf89:	e9 ff ff ff 
    bf8d:	e9 31 12 00 00       	jmpq   d1c3 <func_61+0x155a>
    bf92:	48 8d 05 27 a4 00 00 	lea    0xa427(%rip),%rax        # 163c0 <g_159>
    bf99:	48 89 85 98 fa ff ff 	mov    %rax,-0x568(%rbp)
    bfa0:	c7 85 1c fa ff ff 7b 	movl   $0x5affe87b,-0x5e4(%rbp)
    bfa7:	e8 ff 5a 
    bfaa:	c7 85 30 fa ff ff 7d 	movl   $0x20c6c97d,-0x5d0(%rbp)
    bfb1:	c9 c6 20 
    bfb4:	48 8d 05 c5 b9 00 00 	lea    0xb9c5(%rip),%rax        # 17980 <g_165>
    bfbb:	48 89 85 50 fa ff ff 	mov    %rax,-0x5b0(%rbp)
    bfc2:	48 8d 05 5f a1 00 00 	lea    0xa15f(%rip),%rax        # 16128 <g_96+0x48>
    bfc9:	48 89 85 a0 fa ff ff 	mov    %rax,-0x560(%rbp)
    bfd0:	48 8d 05 59 a1 00 00 	lea    0xa159(%rip),%rax        # 16130 <g_125>
    bfd7:	48 89 85 58 fa ff ff 	mov    %rax,-0x5a8(%rbp)
    bfde:	48 8d 85 58 fa ff ff 	lea    -0x5a8(%rbp),%rax
    bfe5:	48 89 85 a8 fa ff ff 	mov    %rax,-0x558(%rbp)
    bfec:	c7 85 3c fa ff ff ff 	movl   $0xffffffff,-0x5c4(%rbp)
    bff3:	ff ff ff 
    bff6:	c7 85 c0 fd ff ff bc 	movl   $0x121100bc,-0x240(%rbp)
    bffd:	00 11 12 
    c000:	c7 85 c4 fd ff ff 79 	movl   $0xbde6f79,-0x23c(%rbp)
    c007:	6f de 0b 
    c00a:	c7 85 c8 fd ff ff 47 	movl   $0xacffe447,-0x238(%rbp)
    c011:	e4 ff ac 
    c014:	c7 85 cc fd ff ff 44 	movl   $0x60c6e544,-0x234(%rbp)
    c01b:	e5 c6 60 
    c01e:	c7 85 d0 fd ff ff fe 	movl   $0xfffffffe,-0x230(%rbp)
    c025:	ff ff ff 
    c028:	c7 85 d4 fd ff ff bc 	movl   $0x121100bc,-0x22c(%rbp)
    c02f:	00 11 12 
    c032:	c7 85 d8 fd ff ff fe 	movl   $0xfffffffe,-0x228(%rbp)
    c039:	ff ff ff 
    c03c:	c7 85 dc fd ff ff 00 	movl   $0x0,-0x224(%rbp)
    c043:	00 00 00 
    c046:	c7 85 e0 fd ff ff fa 	movl   $0x40659cfa,-0x220(%rbp)
    c04d:	9c 65 40 
    c050:	c7 85 e4 fd ff ff fa 	movl   $0x40659cfa,-0x21c(%rbp)
    c057:	9c 65 40 
    c05a:	c7 85 e8 fd ff ff 44 	movl   $0x60c6e544,-0x218(%rbp)
    c061:	e5 c6 60 
    c064:	c7 85 ec fd ff ff 91 	movl   $0xdee54091,-0x214(%rbp)
    c06b:	40 e5 de 
    c06e:	c7 85 f0 fd ff ff 44 	movl   $0x60c6e544,-0x210(%rbp)
    c075:	e5 c6 60 
    c078:	c7 85 f4 fd ff ff 79 	movl   $0xbde6f79,-0x20c(%rbp)
    c07f:	6f de 0b 
    c082:	c7 85 f8 fd ff ff fe 	movl   $0xfffffffe,-0x208(%rbp)
    c089:	ff ff ff 
    c08c:	c7 85 fc fd ff ff ff 	movl   $0xffffffff,-0x204(%rbp)
    c093:	ff ff ff 
    c096:	c7 85 00 fe ff ff fa 	movl   $0x40659cfa,-0x200(%rbp)
    c09d:	9c 65 40 
    c0a0:	c7 85 04 fe ff ff fe 	movl   $0xfffffffe,-0x1fc(%rbp)
    c0a7:	ff ff ff 
    c0aa:	c7 85 08 fe ff ff 79 	movl   $0xbde6f79,-0x1f8(%rbp)
    c0b1:	6f de 0b 
    c0b4:	c7 85 0c fe ff ff 44 	movl   $0x60c6e544,-0x1f4(%rbp)
    c0bb:	e5 c6 60 
    c0be:	c7 85 10 fe ff ff fe 	movl   $0xfffffffe,-0x1f0(%rbp)
    c0c5:	ff ff ff 
    c0c8:	c7 85 14 fe ff ff 00 	movl   $0x0,-0x1ec(%rbp)
    c0cf:	00 00 00 
    c0d2:	c7 85 18 fe ff ff fa 	movl   $0x40659cfa,-0x1e8(%rbp)
    c0d9:	9c 65 40 
    c0dc:	c7 85 1c fe ff ff fa 	movl   $0x40659cfa,-0x1e4(%rbp)
    c0e3:	9c 65 40 
    c0e6:	c7 85 20 fe ff ff 00 	movl   $0x0,-0x1e0(%rbp)
    c0ed:	00 00 00 
    c0f0:	c7 85 24 fe ff ff 00 	movl   $0x0,-0x1dc(%rbp)
    c0f7:	00 00 00 
    c0fa:	c7 85 28 fe ff ff 40 	movl   $0x95a64240,-0x1d8(%rbp)
    c101:	42 a6 95 
    c104:	c7 85 2c fe ff ff fe 	movl   $0xfffffffe,-0x1d4(%rbp)
    c10b:	ff ff ff 
    c10e:	c7 85 30 fe ff ff 44 	movl   $0x60c6e544,-0x1d0(%rbp)
    c115:	e5 c6 60 
    c118:	c7 85 34 fe ff ff 47 	movl   $0xacffe447,-0x1cc(%rbp)
    c11f:	e4 ff ac 
    c122:	c7 85 38 fe ff ff 91 	movl   $0xdee54091,-0x1c8(%rbp)
    c129:	40 e5 de 
    c12c:	c7 85 3c fe ff ff 40 	movl   $0x95a64240,-0x1c4(%rbp)
    c133:	42 a6 95 
    c136:	c7 85 40 fe ff ff 44 	movl   $0x60c6e544,-0x1c0(%rbp)
    c13d:	e5 c6 60 
    c140:	c7 85 44 fe ff ff 01 	movl   $0x1,-0x1bc(%rbp)
    c147:	00 00 00 
    c14a:	c7 85 48 fe ff ff 06 	movl   $0x6,-0x1b8(%rbp)
    c151:	00 00 00 
    c154:	c7 85 4c fe ff ff 21 	movl   $0xf7164121,-0x1b4(%rbp)
    c15b:	41 16 f7 
    c15e:	c7 85 50 fe ff ff 00 	movl   $0x0,-0x1b0(%rbp)
    c165:	00 00 00 
    c168:	c7 85 54 fe ff ff 00 	movl   $0x0,-0x1ac(%rbp)
    c16f:	00 00 00 
    c172:	c7 85 58 fe ff ff 21 	movl   $0xf7164121,-0x1a8(%rbp)
    c179:	41 16 f7 
    c17c:	c7 85 5c fe ff ff 01 	movl   $0x1,-0x1a4(%rbp)
    c183:	00 00 00 
    c186:	c7 85 60 fe ff ff 91 	movl   $0xdee54091,-0x1a0(%rbp)
    c18d:	40 e5 de 
    c190:	c7 85 64 fe ff ff fa 	movl   $0x40659cfa,-0x19c(%rbp)
    c197:	9c 65 40 
    c19a:	c7 85 68 fe ff ff 47 	movl   $0xacffe447,-0x198(%rbp)
    c1a1:	e4 ff ac 
    c1a4:	c7 85 6c fe ff ff bc 	movl   $0x121100bc,-0x194(%rbp)
    c1ab:	00 11 12 
    c1ae:	c7 85 70 fe ff ff 01 	movl   $0x1,-0x190(%rbp)
    c1b5:	00 00 00 
    c1b8:	66 c7 85 80 fc ff ff 	movw   $0x3927,-0x380(%rbp)
    c1bf:	27 39 
    c1c1:	66 c7 85 82 fc ff ff 	movw   $0x29d7,-0x37e(%rbp)
    c1c8:	d7 29 
    c1ca:	66 c7 85 84 fc ff ff 	movw   $0xcc21,-0x37c(%rbp)
    c1d1:	21 cc 
    c1d3:	66 c7 85 86 fc ff ff 	movw   $0xffff,-0x37a(%rbp)
    c1da:	ff ff 
    c1dc:	66 c7 85 88 fc ff ff 	movw   $0x772,-0x378(%rbp)
    c1e3:	72 07 
    c1e5:	66 c7 85 8a fc ff ff 	movw   $0x3927,-0x376(%rbp)
    c1ec:	27 39 
    c1ee:	66 c7 85 8c fc ff ff 	movw   $0xcc21,-0x374(%rbp)
    c1f5:	21 cc 
    c1f7:	66 c7 85 8e fc ff ff 	movw   $0x9,-0x372(%rbp)
    c1fe:	09 00 
    c200:	66 c7 85 90 fc ff ff 	movw   $0xcc21,-0x370(%rbp)
    c207:	21 cc 
    c209:	66 c7 85 92 fc ff ff 	movw   $0x3927,-0x36e(%rbp)
    c210:	27 39 
    c212:	66 c7 85 94 fc ff ff 	movw   $0x29d7,-0x36c(%rbp)
    c219:	d7 29 
    c21b:	66 c7 85 96 fc ff ff 	movw   $0x6,-0x36a(%rbp)
    c222:	06 00 
    c224:	66 c7 85 98 fc ff ff 	movw   $0x5,-0x368(%rbp)
    c22b:	05 00 
    c22d:	66 c7 85 9a fc ff ff 	movw   $0xffff,-0x366(%rbp)
    c234:	ff ff 
    c236:	66 c7 85 9c fc ff ff 	movw   $0x1,-0x364(%rbp)
    c23d:	01 00 
    c23f:	66 c7 85 9e fc ff ff 	movw   $0x5,-0x362(%rbp)
    c246:	05 00 
    c248:	66 c7 85 a0 fc ff ff 	movw   $0x6,-0x360(%rbp)
    c24f:	06 00 
    c251:	66 c7 85 a2 fc ff ff 	movw   $0x29d7,-0x35e(%rbp)
    c258:	d7 29 
    c25a:	66 c7 85 a4 fc ff ff 	movw   $0x29d7,-0x35c(%rbp)
    c261:	d7 29 
    c263:	66 c7 85 a6 fc ff ff 	movw   $0x6,-0x35a(%rbp)
    c26a:	06 00 
    c26c:	66 c7 85 a8 fc ff ff 	movw   $0x9,-0x358(%rbp)
    c273:	09 00 
    c275:	66 c7 85 aa fc ff ff 	movw   $0xcc21,-0x356(%rbp)
    c27c:	21 cc 
    c27e:	66 c7 85 ac fc ff ff 	movw   $0x3927,-0x354(%rbp)
    c285:	27 39 
    c287:	66 c7 85 ae fc ff ff 	movw   $0x6,-0x352(%rbp)
    c28e:	06 00 
    c290:	66 c7 85 b0 fc ff ff 	movw   $0x1,-0x350(%rbp)
    c297:	01 00 
    c299:	66 c7 85 b2 fc ff ff 	movw   $0xcc21,-0x34e(%rbp)
    c2a0:	21 cc 
    c2a2:	66 c7 85 b4 fc ff ff 	movw   $0x29d7,-0x34c(%rbp)
    c2a9:	d7 29 
    c2ab:	66 c7 85 b6 fc ff ff 	movw   $0x3927,-0x34a(%rbp)
    c2b2:	27 39 
    c2b4:	66 c7 85 b8 fc ff ff 	movw   $0x8,-0x348(%rbp)
    c2bb:	08 00 
    c2bd:	66 c7 85 ba fc ff ff 	movw   $0x3927,-0x346(%rbp)
    c2c4:	27 39 
    c2c6:	66 c7 85 bc fc ff ff 	movw   $0x1,-0x344(%rbp)
    c2cd:	01 00 
    c2cf:	66 c7 85 be fc ff ff 	movw   $0x1,-0x342(%rbp)
    c2d6:	01 00 
    c2d8:	66 c7 85 c0 fc ff ff 	movw   $0x29d7,-0x340(%rbp)
    c2df:	d7 29 
    c2e1:	66 c7 85 c2 fc ff ff 	movw   $0x9,-0x33e(%rbp)
    c2e8:	09 00 
    c2ea:	66 c7 85 c4 fc ff ff 	movw   $0x772,-0x33c(%rbp)
    c2f1:	72 07 
    c2f3:	66 c7 85 c6 fc ff ff 	movw   $0xcc21,-0x33a(%rbp)
    c2fa:	21 cc 
    c2fc:	66 c7 85 c8 fc ff ff 	movw   $0x772,-0x338(%rbp)
    c303:	72 07 
    c305:	66 c7 85 ca fc ff ff 	movw   $0x5,-0x336(%rbp)
    c30c:	05 00 
    c30e:	66 c7 85 cc fc ff ff 	movw   $0x9,-0x334(%rbp)
    c315:	09 00 
    c317:	66 c7 85 ce fc ff ff 	movw   $0x9,-0x332(%rbp)
    c31e:	09 00 
    c320:	66 c7 85 d0 fc ff ff 	movw   $0x9,-0x330(%rbp)
    c327:	09 00 
    c329:	66 c7 85 d2 fc ff ff 	movw   $0xd0be,-0x32e(%rbp)
    c330:	be d0 
    c332:	66 c7 85 d4 fc ff ff 	movw   $0x6,-0x32c(%rbp)
    c339:	06 00 
    c33b:	66 c7 85 d6 fc ff ff 	movw   $0xcc21,-0x32a(%rbp)
    c342:	21 cc 
    c344:	66 c7 85 d8 fc ff ff 	movw   $0x772,-0x328(%rbp)
    c34b:	72 07 
    c34d:	66 c7 85 da fc ff ff 	movw   $0x9,-0x326(%rbp)
    c354:	09 00 
    c356:	66 c7 85 dc fc ff ff 	movw   $0x3927,-0x324(%rbp)
    c35d:	27 39 
    c35f:	66 c7 85 de fc ff ff 	movw   $0xd0be,-0x322(%rbp)
    c366:	be d0 
    c368:	66 c7 85 e0 fc ff ff 	movw   $0x29d7,-0x320(%rbp)
    c36f:	d7 29 
    c371:	66 c7 85 e2 fc ff ff 	movw   $0x772,-0x31e(%rbp)
    c378:	72 07 
    c37a:	66 c7 85 e4 fc ff ff 	movw   $0x1,-0x31c(%rbp)
    c381:	01 00 
    c383:	66 c7 85 e6 fc ff ff 	movw   $0x8,-0x31a(%rbp)
    c38a:	08 00 
    c38c:	66 c7 85 e8 fc ff ff 	movw   $0x8,-0x318(%rbp)
    c393:	08 00 
    c395:	66 c7 85 ea fc ff ff 	movw   $0x1,-0x316(%rbp)
    c39c:	01 00 
    c39e:	66 c7 85 ec fc ff ff 	movw   $0x6,-0x314(%rbp)
    c3a5:	06 00 
    c3a7:	66 c7 85 ee fc ff ff 	movw   $0x5,-0x312(%rbp)
    c3ae:	05 00 
    c3b0:	66 c7 85 f0 fc ff ff 	movw   $0x1,-0x310(%rbp)
    c3b7:	01 00 
    c3b9:	66 c7 85 f2 fc ff ff 	movw   $0xd0be,-0x30e(%rbp)
    c3c0:	be d0 
    c3c2:	66 c7 85 f4 fc ff ff 	movw   $0x772,-0x30c(%rbp)
    c3c9:	72 07 
    c3cb:	66 c7 85 f6 fc ff ff 	movw   $0x3927,-0x30a(%rbp)
    c3d2:	27 39 
    c3d4:	66 c7 85 f8 fc ff ff 	movw   $0x5,-0x308(%rbp)
    c3db:	05 00 
    c3dd:	66 c7 85 fa fc ff ff 	movw   $0xd0be,-0x306(%rbp)
    c3e4:	be d0 
    c3e6:	66 c7 85 fc fc ff ff 	movw   $0x6,-0x304(%rbp)
    c3ed:	06 00 
    c3ef:	66 c7 85 fe fc ff ff 	movw   $0xd0be,-0x302(%rbp)
    c3f6:	be d0 
    c3f8:	66 c7 85 00 fd ff ff 	movw   $0x5,-0x300(%rbp)
    c3ff:	05 00 
    c401:	66 c7 85 02 fd ff ff 	movw   $0x1,-0x2fe(%rbp)
    c408:	01 00 
    c40a:	66 c7 85 04 fd ff ff 	movw   $0x29d7,-0x2fc(%rbp)
    c411:	d7 29 
    c413:	66 c7 85 06 fd ff ff 	movw   $0x9,-0x2fa(%rbp)
    c41a:	09 00 
    c41c:	66 c7 85 08 fd ff ff 	movw   $0x772,-0x2f8(%rbp)
    c423:	72 07 
    c425:	66 c7 85 0a fd ff ff 	movw   $0x8,-0x2f6(%rbp)
    c42c:	08 00 
    c42e:	66 c7 85 0c fd ff ff 	movw   $0x9,-0x2f4(%rbp)
    c435:	09 00 
    c437:	66 c7 85 0e fd ff ff 	movw   $0x29d7,-0x2f2(%rbp)
    c43e:	d7 29 
    c440:	66 c7 85 10 fd ff ff 	movw   $0x1,-0x2f0(%rbp)
    c447:	01 00 
    c449:	66 c7 85 12 fd ff ff 	movw   $0x1,-0x2ee(%rbp)
    c450:	01 00 
    c452:	66 c7 85 14 fd ff ff 	movw   $0x29d7,-0x2ec(%rbp)
    c459:	d7 29 
    c45b:	66 c7 85 16 fd ff ff 	movw   $0x6,-0x2ea(%rbp)
    c462:	06 00 
    c464:	66 c7 85 18 fd ff ff 	movw   $0xd0be,-0x2e8(%rbp)
    c46b:	be d0 
    c46d:	66 c7 85 1a fd ff ff 	movw   $0x5,-0x2e6(%rbp)
    c474:	05 00 
    c476:	66 c7 85 1c fd ff ff 	movw   $0x29d7,-0x2e4(%rbp)
    c47d:	d7 29 
    c47f:	66 c7 85 1e fd ff ff 	movw   $0x8,-0x2e2(%rbp)
    c486:	08 00 
    c488:	48 c7 85 60 fa ff ff 	movq   $0x0,-0x5a0(%rbp)
    c48f:	00 00 00 00 
    c493:	48 8d 85 60 fa ff ff 	lea    -0x5a0(%rbp),%rax
    c49a:	48 89 85 b0 fa ff ff 	mov    %rax,-0x550(%rbp)
    c4a1:	c7 85 40 fa ff ff 01 	movl   $0x1,-0x5c0(%rbp)
    c4a8:	00 00 00 
    c4ab:	48 8d 05 92 9f 00 00 	lea    0x9f92(%rip),%rax        # 16444 <g_675>
    c4b2:	48 89 85 68 fa ff ff 	mov    %rax,-0x598(%rbp)
    c4b9:	66 c7 05 6e 9c 00 00 	movw   $0x1,0x9c6e(%rip)        # 16130 <g_125>
    c4c0:	01 00 
    c4c2:	e9 d7 0c 00 00       	jmpq   d19e <func_61+0x1535>
    c4c7:	c7 85 20 fa ff ff 52 	movl   $0x1de6e452,-0x5e0(%rbp)
    c4ce:	e4 e6 1d 
    c4d1:	48 8d 05 a8 b4 00 00 	lea    0xb4a8(%rip),%rax        # 17980 <g_165>
    c4d8:	48 89 85 b8 fa ff ff 	mov    %rax,-0x548(%rbp)
    c4df:	c7 85 24 fa ff ff 00 	movl   $0x0,-0x5dc(%rbp)
    c4e6:	00 00 00 
    c4e9:	c7 85 44 fa ff ff 01 	movl   $0x1,-0x5bc(%rbp)
    c4f0:	00 00 00 
    c4f3:	c7 85 48 fa ff ff 83 	movl   $0xd383b883,-0x5b8(%rbp)
    c4fa:	b8 83 d3 
    c4fd:	c7 85 20 fd ff ff 03 	movl   $0x3,-0x2e0(%rbp)
    c504:	00 00 00 
    c507:	c7 85 24 fd ff ff 77 	movl   $0x9d82c877,-0x2dc(%rbp)
    c50e:	c8 82 9d 
    c511:	c7 85 28 fd ff ff f8 	movl   $0xfffffff8,-0x2d8(%rbp)
    c518:	ff ff ff 
    c51b:	c7 85 2c fd ff ff ff 	movl   $0xffffffff,-0x2d4(%rbp)
    c522:	ff ff ff 
    c525:	c7 85 30 fd ff ff f8 	movl   $0xfffffff8,-0x2d0(%rbp)
    c52c:	ff ff ff 
    c52f:	c7 85 34 fd ff ff 77 	movl   $0x9d82c877,-0x2cc(%rbp)
    c536:	c8 82 9d 
    c539:	c7 85 38 fd ff ff 03 	movl   $0x3,-0x2c8(%rbp)
    c540:	00 00 00 
    c543:	c7 85 3c fd ff ff 04 	movl   $0x4,-0x2c4(%rbp)
    c54a:	00 00 00 
    c54d:	c7 85 40 fd ff ff f8 	movl   $0xfffffff8,-0x2c0(%rbp)
    c554:	ff ff ff 
    c557:	c7 85 44 fd ff ff 77 	movl   $0x9d82c877,-0x2bc(%rbp)
    c55e:	c8 82 9d 
    c561:	c7 85 48 fd ff ff 03 	movl   $0x3,-0x2b8(%rbp)
    c568:	00 00 00 
    c56b:	c7 85 4c fd ff ff 04 	movl   $0x4,-0x2b4(%rbp)
    c572:	00 00 00 
    c575:	c7 85 50 fd ff ff d2 	movl   $0x4f7b63d2,-0x2b0(%rbp)
    c57c:	63 7b 4f 
    c57f:	c7 85 54 fd ff ff d2 	movl   $0x4f7b63d2,-0x2ac(%rbp)
    c586:	63 7b 4f 
    c589:	c7 85 58 fd ff ff 04 	movl   $0x4,-0x2a8(%rbp)
    c590:	00 00 00 
    c593:	c7 85 5c fd ff ff 03 	movl   $0x3,-0x2a4(%rbp)
    c59a:	00 00 00 
    c59d:	c7 85 60 fd ff ff 79 	movl   $0xa449d879,-0x2a0(%rbp)
    c5a4:	d8 49 a4 
    c5a7:	c7 85 64 fd ff ff 79 	movl   $0xa449d879,-0x29c(%rbp)
    c5ae:	d8 49 a4 
    c5b1:	c7 85 68 fd ff ff 77 	movl   $0x9d82c877,-0x298(%rbp)
    c5b8:	c8 82 9d 
    c5bb:	c7 85 6c fd ff ff 01 	movl   $0x1,-0x294(%rbp)
    c5c2:	00 00 00 
    c5c5:	c7 85 70 fd ff ff d2 	movl   $0x4f7b63d2,-0x290(%rbp)
    c5cc:	63 7b 4f 
    c5cf:	c7 85 74 fd ff ff ff 	movl   $0xffffffff,-0x28c(%rbp)
    c5d6:	ff ff ff 
    c5d9:	c7 85 78 fd ff ff fa 	movl   $0xfffffffa,-0x288(%rbp)
    c5e0:	ff ff ff 
    c5e3:	c7 85 7c fd ff ff ff 	movl   $0xffffffff,-0x284(%rbp)
    c5ea:	ff ff ff 
    c5ed:	c7 85 80 fd ff ff f8 	movl   $0xfffffff8,-0x280(%rbp)
    c5f4:	ff ff ff 
    c5f7:	c7 85 84 fd ff ff 03 	movl   $0x3,-0x27c(%rbp)
    c5fe:	00 00 00 
    c601:	c7 85 88 fd ff ff 01 	movl   $0x1,-0x278(%rbp)
    c608:	00 00 00 
    c60b:	c7 85 8c fd ff ff 03 	movl   $0x3,-0x274(%rbp)
    c612:	00 00 00 
    c615:	c7 85 90 fd ff ff f8 	movl   $0xfffffff8,-0x270(%rbp)
    c61c:	ff ff ff 
    c61f:	c7 85 94 fd ff ff b7 	movl   $0x2b4017b7,-0x26c(%rbp)
    c626:	17 40 2b 
    c629:	c7 85 98 fd ff ff 79 	movl   $0xa449d879,-0x268(%rbp)
    c630:	d8 49 a4 
    c633:	c7 85 9c fd ff ff ff 	movl   $0xffffffff,-0x264(%rbp)
    c63a:	ff ff ff 
    c63d:	c7 85 a0 fd ff ff 03 	movl   $0x3,-0x260(%rbp)
    c644:	00 00 00 
    c647:	c7 85 a4 fd ff ff d2 	movl   $0x4f7b63d2,-0x25c(%rbp)
    c64e:	63 7b 4f 
    c651:	c7 85 a8 fd ff ff fa 	movl   $0xfffffffa,-0x258(%rbp)
    c658:	ff ff ff 
    c65b:	c7 85 ac fd ff ff 01 	movl   $0x1,-0x254(%rbp)
    c662:	00 00 00 
    c665:	c7 85 b0 fd ff ff 01 	movl   $0x1,-0x250(%rbp)
    c66c:	00 00 00 
    c66f:	c7 85 b4 fd ff ff fa 	movl   $0xfffffffa,-0x24c(%rbp)
    c676:	ff ff ff 
    c679:	c7 85 b8 fd ff ff d2 	movl   $0x4f7b63d2,-0x248(%rbp)
    c680:	63 7b 4f 
    c683:	c7 85 bc fd ff ff 03 	movl   $0x3,-0x244(%rbp)
    c68a:	00 00 00 
    c68d:	c6 85 11 fa ff ff 00 	movb   $0x0,-0x5ef(%rbp)
    c694:	48 8d 85 24 fa ff ff 	lea    -0x5dc(%rbp),%rax
    c69b:	48 89 85 c0 fa ff ff 	mov    %rax,-0x540(%rbp)
    c6a2:	48 8d 05 97 9d 00 00 	lea    0x9d97(%rip),%rax        # 16440 <g_607>
    c6a9:	48 89 85 70 fa ff ff 	mov    %rax,-0x590(%rbp)
    c6b0:	48 8d 85 70 fa ff ff 	lea    -0x590(%rbp),%rax
    c6b7:	48 89 85 c8 fa ff ff 	mov    %rax,-0x538(%rbp)
    c6be:	48 8d 85 68 fa ff ff 	lea    -0x598(%rbp),%rax
    c6c5:	48 89 85 d0 fa ff ff 	mov    %rax,-0x530(%rbp)
    c6cc:	8b 85 28 fa ff ff    	mov    -0x5d8(%rbp),%eax
    c6d2:	48 63 d8             	movslq %eax,%rbx
    c6d5:	0f b7 05 54 9a 00 00 	movzwl 0x9a54(%rip),%eax        # 16130 <g_125>
    c6dc:	98                   	cwtl   
    c6dd:	48 98                	cltq   
    c6df:	48 8d 14 85 00 00 00 	lea    0x0(,%rax,4),%rdx
    c6e6:	00 
    c6e7:	48 8d 05 d2 99 00 00 	lea    0x99d2(%rip),%rax        # 160c0 <g_87>
    c6ee:	8b 14 02             	mov    (%rdx,%rax,1),%edx
    c6f1:	48 8b 05 90 b2 00 00 	mov    0xb290(%rip),%rax        # 17988 <g_164>
    c6f8:	48 8b 00             	mov    (%rax),%rax
    c6fb:	48 63 d2             	movslq %edx,%rdx
    c6fe:	48 89 10             	mov    %rdx,(%rax)
    c701:	8b 85 1c fa ff ff    	mov    -0x5e4(%rbp),%eax
    c707:	0f b7 c0             	movzwl %ax,%eax
    c70a:	be 00 00 00 00       	mov    $0x0,%esi
    c70f:	89 c7                	mov    %eax,%edi
    c711:	e8 f0 96 ff ff       	callq  5e06 <safe_lshift_func_uint16_t_u_u>
    c716:	66 85 c0             	test   %ax,%ax
    c719:	74 07                	je     c722 <func_61+0xab9>
    c71b:	b8 01 00 00 00       	mov    $0x1,%eax
    c720:	eb 05                	jmp    c727 <func_61+0xabe>
    c722:	b8 00 00 00 00       	mov    $0x0,%eax
    c727:	3b 85 28 fa ff ff    	cmp    -0x5d8(%rbp),%eax
    c72d:	0f 94 c0             	sete   %al
    c730:	0f b6 c0             	movzbl %al,%eax
    c733:	0f b7 15 f6 99 00 00 	movzwl 0x99f6(%rip),%edx        # 16130 <g_125>
    c73a:	0f bf d2             	movswl %dx,%edx
    c73d:	48 63 d2             	movslq %edx,%rdx
    c740:	48 8d 0c 95 00 00 00 	lea    0x0(,%rdx,4),%rcx
    c747:	00 
    c748:	48 8d 15 71 99 00 00 	lea    0x9971(%rip),%rdx        # 160c0 <g_87>
    c74f:	8b 14 11             	mov    (%rcx,%rdx,1),%edx
    c752:	21 d0                	and    %edx,%eax
    c754:	89 c2                	mov    %eax,%edx
    c756:	48 8b 85 98 fa ff ff 	mov    -0x568(%rbp),%rax
    c75d:	66 89 10             	mov    %dx,(%rax)
    c760:	48 8b 85 98 fa ff ff 	mov    -0x568(%rbp),%rax
    c767:	0f b7 00             	movzwl (%rax),%eax
    c76a:	0f b7 c0             	movzwl %ax,%eax
    c76d:	89 85 1c fa ff ff    	mov    %eax,-0x5e4(%rbp)
    c773:	8b 85 1c fa ff ff    	mov    -0x5e4(%rbp),%eax
    c779:	83 f8 01             	cmp    $0x1,%eax
    c77c:	0f 9e c0             	setle  %al
    c77f:	0f b6 c0             	movzbl %al,%eax
    c782:	48 89 de             	mov    %rbx,%rsi
    c785:	48 89 c7             	mov    %rax,%rdi
    c788:	e8 6a 92 ff ff       	callq  59f7 <safe_div_func_int64_t_s_s>
    c78d:	8b 05 2d 99 00 00    	mov    0x992d(%rip),%eax        # 160c0 <g_87>
    c793:	39 85 30 fa ff ff    	cmp    %eax,-0x5d0(%rbp)
    c799:	0f 87 01 02 00 00    	ja     c9a0 <func_61+0xd37>
    c79f:	0f b7 05 8a 99 00 00 	movzwl 0x998a(%rip),%eax        # 16130 <g_125>
    c7a6:	98                   	cwtl   
    c7a7:	83 c0 01             	add    $0x1,%eax
    c7aa:	48 98                	cltq   
    c7ac:	48 8d 14 85 00 00 00 	lea    0x0(,%rax,4),%rdx
    c7b3:	00 
    c7b4:	48 8d 05 c5 98 00 00 	lea    0x98c5(%rip),%rax        # 16080 <g_79>
    c7bb:	48 01 d0             	add    %rdx,%rax
    c7be:	48 89 85 68 fb ff ff 	mov    %rax,-0x498(%rbp)
    c7c5:	48 8d 05 b4 98 00 00 	lea    0x98b4(%rip),%rax        # 16080 <g_79>
    c7cc:	48 89 85 70 fb ff ff 	mov    %rax,-0x490(%rbp)
    c7d3:	48 8d 85 1c fa ff ff 	lea    -0x5e4(%rbp),%rax
    c7da:	48 89 85 78 fb ff ff 	mov    %rax,-0x488(%rbp)
    c7e1:	0f b7 05 48 99 00 00 	movzwl 0x9948(%rip),%eax        # 16130 <g_125>
    c7e8:	98                   	cwtl   
    c7e9:	83 c0 01             	add    $0x1,%eax
    c7ec:	48 98                	cltq   
    c7ee:	48 8d 14 85 00 00 00 	lea    0x0(,%rax,4),%rdx
    c7f5:	00 
    c7f6:	48 8d 05 83 98 00 00 	lea    0x9883(%rip),%rax        # 16080 <g_79>
    c7fd:	48 01 d0             	add    %rdx,%rax
    c800:	48 89 85 80 fb ff ff 	mov    %rax,-0x480(%rbp)
    c807:	48 8d 05 b6 98 00 00 	lea    0x98b6(%rip),%rax        # 160c4 <g_87+0x4>
    c80e:	48 89 85 88 fb ff ff 	mov    %rax,-0x478(%rbp)
    c815:	48 8d 05 a8 98 00 00 	lea    0x98a8(%rip),%rax        # 160c4 <g_87+0x4>
    c81c:	48 89 85 90 fb ff ff 	mov    %rax,-0x470(%rbp)
    c823:	0f b7 05 06 99 00 00 	movzwl 0x9906(%rip),%eax        # 16130 <g_125>
    c82a:	98                   	cwtl   
    c82b:	48 98                	cltq   
    c82d:	48 8d 14 85 00 00 00 	lea    0x0(,%rax,4),%rdx
    c834:	00 
    c835:	48 8d 05 84 98 00 00 	lea    0x9884(%rip),%rax        # 160c0 <g_87>
    c83c:	48 01 d0             	add    %rdx,%rax
    c83f:	48 89 85 98 fb ff ff 	mov    %rax,-0x468(%rbp)
    c846:	48 c7 85 a0 fb ff ff 	movq   $0x0,-0x460(%rbp)
    c84d:	00 00 00 00 
    c851:	0f b7 05 d8 98 00 00 	movzwl 0x98d8(%rip),%eax        # 16130 <g_125>
    c858:	98                   	cwtl   
    c859:	83 c0 01             	add    $0x1,%eax
    c85c:	48 98                	cltq   
    c85e:	48 8d 14 85 00 00 00 	lea    0x0(,%rax,4),%rdx
    c865:	00 
    c866:	48 8d 05 13 98 00 00 	lea    0x9813(%rip),%rax        # 16080 <g_79>
    c86d:	48 01 d0             	add    %rdx,%rax
    c870:	48 89 85 80 fe ff ff 	mov    %rax,-0x180(%rbp)
    c877:	0f b7 05 b2 98 00 00 	movzwl 0x98b2(%rip),%eax        # 16130 <g_125>
    c87e:	98                   	cwtl   
    c87f:	83 c0 01             	add    $0x1,%eax
    c882:	48 98                	cltq   
    c884:	48 8d 14 85 00 00 00 	lea    0x0(,%rax,4),%rdx
    c88b:	00 
    c88c:	48 8d 05 ed 97 00 00 	lea    0x97ed(%rip),%rax        # 16080 <g_79>
    c893:	48 01 d0             	add    %rdx,%rax
    c896:	48 89 85 88 fe ff ff 	mov    %rax,-0x178(%rbp)
    c89d:	0f b7 05 8c 98 00 00 	movzwl 0x988c(%rip),%eax        # 16130 <g_125>
    c8a4:	98                   	cwtl   
    c8a5:	83 c0 01             	add    $0x1,%eax
    c8a8:	48 98                	cltq   
    c8aa:	48 8d 14 85 00 00 00 	lea    0x0(,%rax,4),%rdx
    c8b1:	00 
    c8b2:	48 8d 05 c7 97 00 00 	lea    0x97c7(%rip),%rax        # 16080 <g_79>
    c8b9:	48 01 d0             	add    %rdx,%rax
    c8bc:	48 89 85 90 fe ff ff 	mov    %rax,-0x170(%rbp)
    c8c3:	0f b7 05 66 98 00 00 	movzwl 0x9866(%rip),%eax        # 16130 <g_125>
    c8ca:	98                   	cwtl   
    c8cb:	83 c0 01             	add    $0x1,%eax
    c8ce:	48 98                	cltq   
    c8d0:	48 8d 14 85 00 00 00 	lea    0x0(,%rax,4),%rdx
    c8d7:	00 
    c8d8:	48 8d 05 a1 97 00 00 	lea    0x97a1(%rip),%rax        # 16080 <g_79>
    c8df:	48 01 d0             	add    %rdx,%rax
    c8e2:	48 89 85 98 fe ff ff 	mov    %rax,-0x168(%rbp)
    c8e9:	0f b7 05 40 98 00 00 	movzwl 0x9840(%rip),%eax        # 16130 <g_125>
    c8f0:	98                   	cwtl   
    c8f1:	83 c0 01             	add    $0x1,%eax
    c8f4:	48 98                	cltq   
    c8f6:	48 8d 14 85 00 00 00 	lea    0x0(,%rax,4),%rdx
    c8fd:	00 
    c8fe:	48 8d 05 7b 97 00 00 	lea    0x977b(%rip),%rax        # 16080 <g_79>
    c905:	48 01 d0             	add    %rdx,%rax
    c908:	48 89 85 a0 fe ff ff 	mov    %rax,-0x160(%rbp)
    c90f:	0f b7 05 1a 98 00 00 	movzwl 0x981a(%rip),%eax        # 16130 <g_125>
    c916:	98                   	cwtl   
    c917:	83 c0 01             	add    $0x1,%eax
    c91a:	48 98                	cltq   
    c91c:	48 8d 14 85 00 00 00 	lea    0x0(,%rax,4),%rdx
    c923:	00 
    c924:	48 8d 05 55 97 00 00 	lea    0x9755(%rip),%rax        # 16080 <g_79>
    c92b:	48 01 d0             	add    %rdx,%rax
    c92e:	48 89 85 a8 fe ff ff 	mov    %rax,-0x158(%rbp)
    c935:	0f b7 05 f4 97 00 00 	movzwl 0x97f4(%rip),%eax        # 16130 <g_125>
    c93c:	98                   	cwtl   
    c93d:	83 c0 01             	add    $0x1,%eax
    c940:	48 98                	cltq   
    c942:	48 8d 14 85 00 00 00 	lea    0x0(,%rax,4),%rdx
    c949:	00 
    c94a:	48 8d 05 2f 97 00 00 	lea    0x972f(%rip),%rax        # 16080 <g_79>
    c951:	48 01 d0             	add    %rdx,%rax
    c954:	48 89 85 b0 fe ff ff 	mov    %rax,-0x150(%rbp)
    c95b:	0f b7 05 ce 97 00 00 	movzwl 0x97ce(%rip),%eax        # 16130 <g_125>
    c962:	98                   	cwtl   
    c963:	83 c0 01             	add    $0x1,%eax
    c966:	48 98                	cltq   
    c968:	48 8d 14 85 00 00 00 	lea    0x0(,%rax,4),%rdx
    c96f:	00 
    c970:	48 8d 05 09 97 00 00 	lea    0x9709(%rip),%rax        # 16080 <g_79>
    c977:	48 01 d0             	add    %rdx,%rax
    c97a:	48 89 85 b8 fe ff ff 	mov    %rax,-0x148(%rbp)
    c981:	66 c7 85 1a fa ff ff 	movw   $0x5792,-0x5e6(%rbp)
    c988:	92 57 
    c98a:	0f b7 85 1a fa ff ff 	movzwl -0x5e6(%rbp),%eax
    c991:	83 c0 01             	add    $0x1,%eax
    c994:	66 89 85 1a fa ff ff 	mov    %ax,-0x5e6(%rbp)
    c99b:	e9 ed 07 00 00       	jmpq   d18d <func_61+0x1524>
    c9a0:	48 b8 92 83 14 bf d3 	movabs $0xc7747fd3bf148392,%rax
    c9a7:	7f 74 c7 
    c9aa:	48 89 85 d8 fa ff ff 	mov    %rax,-0x528(%rbp)
    c9b1:	c7 85 30 fa ff ff 1b 	movl   $0x1b,-0x5d0(%rbp)
    c9b8:	00 00 00 
    c9bb:	e9 5b 04 00 00       	jmpq   ce1b <func_61+0x11b2>
    c9c0:	48 8d 05 c9 af 00 00 	lea    0xafc9(%rip),%rax        # 17990 <g_309>
    c9c7:	48 89 85 50 fb ff ff 	mov    %rax,-0x4b0(%rbp)
    c9ce:	48 8d 85 50 fa ff ff 	lea    -0x5b0(%rbp),%rax
    c9d5:	48 89 85 80 fe ff ff 	mov    %rax,-0x180(%rbp)
    c9dc:	48 8d 85 50 fa ff ff 	lea    -0x5b0(%rbp),%rax
    c9e3:	48 89 85 88 fe ff ff 	mov    %rax,-0x178(%rbp)
    c9ea:	48 8d 85 50 fa ff ff 	lea    -0x5b0(%rbp),%rax
    c9f1:	48 89 85 90 fe ff ff 	mov    %rax,-0x170(%rbp)
    c9f8:	48 8d 85 50 fa ff ff 	lea    -0x5b0(%rbp),%rax
    c9ff:	48 89 85 98 fe ff ff 	mov    %rax,-0x168(%rbp)
    ca06:	48 8d 85 50 fa ff ff 	lea    -0x5b0(%rbp),%rax
    ca0d:	48 89 85 a0 fe ff ff 	mov    %rax,-0x160(%rbp)
    ca14:	48 8d 85 50 fa ff ff 	lea    -0x5b0(%rbp),%rax
    ca1b:	48 89 85 a8 fe ff ff 	mov    %rax,-0x158(%rbp)
    ca22:	48 8d 85 50 fa ff ff 	lea    -0x5b0(%rbp),%rax
    ca29:	48 89 85 b0 fe ff ff 	mov    %rax,-0x150(%rbp)
    ca30:	48 8d 85 50 fa ff ff 	lea    -0x5b0(%rbp),%rax
    ca37:	48 89 85 b8 fe ff ff 	mov    %rax,-0x148(%rbp)
    ca3e:	48 8d 85 50 fa ff ff 	lea    -0x5b0(%rbp),%rax
    ca45:	48 89 85 c0 fe ff ff 	mov    %rax,-0x140(%rbp)
    ca4c:	48 8d 85 50 fa ff ff 	lea    -0x5b0(%rbp),%rax
    ca53:	48 89 85 c8 fe ff ff 	mov    %rax,-0x138(%rbp)
    ca5a:	48 c7 85 d0 fe ff ff 	movq   $0x0,-0x130(%rbp)
    ca61:	00 00 00 00 
    ca65:	48 8d 85 50 fa ff ff 	lea    -0x5b0(%rbp),%rax
    ca6c:	48 89 85 d8 fe ff ff 	mov    %rax,-0x128(%rbp)
    ca73:	48 c7 85 e0 fe ff ff 	movq   $0x0,-0x120(%rbp)
    ca7a:	00 00 00 00 
    ca7e:	48 c7 85 e8 fe ff ff 	movq   $0x0,-0x118(%rbp)
    ca85:	00 00 00 00 
    ca89:	48 c7 85 f0 fe ff ff 	movq   $0x0,-0x110(%rbp)
    ca90:	00 00 00 00 
    ca94:	48 8d 85 50 fa ff ff 	lea    -0x5b0(%rbp),%rax
    ca9b:	48 89 85 f8 fe ff ff 	mov    %rax,-0x108(%rbp)
    caa2:	48 8d 85 50 fa ff ff 	lea    -0x5b0(%rbp),%rax
    caa9:	48 89 85 00 ff ff ff 	mov    %rax,-0x100(%rbp)
    cab0:	48 8d 85 50 fa ff ff 	lea    -0x5b0(%rbp),%rax
    cab7:	48 89 85 08 ff ff ff 	mov    %rax,-0xf8(%rbp)
    cabe:	48 8d 85 50 fa ff ff 	lea    -0x5b0(%rbp),%rax
    cac5:	48 89 85 10 ff ff ff 	mov    %rax,-0xf0(%rbp)
    cacc:	48 8d 85 50 fa ff ff 	lea    -0x5b0(%rbp),%rax
    cad3:	48 89 85 18 ff ff ff 	mov    %rax,-0xe8(%rbp)
    cada:	48 8d 85 50 fa ff ff 	lea    -0x5b0(%rbp),%rax
    cae1:	48 89 85 20 ff ff ff 	mov    %rax,-0xe0(%rbp)
    cae8:	48 c7 85 28 ff ff ff 	movq   $0x0,-0xd8(%rbp)
    caef:	00 00 00 00 
    caf3:	48 8d 85 50 fa ff ff 	lea    -0x5b0(%rbp),%rax
    cafa:	48 89 85 30 ff ff ff 	mov    %rax,-0xd0(%rbp)
    cb01:	48 c7 85 38 ff ff ff 	movq   $0x0,-0xc8(%rbp)
    cb08:	00 00 00 00 
    cb0c:	48 8d 85 50 fa ff ff 	lea    -0x5b0(%rbp),%rax
    cb13:	48 89 85 40 ff ff ff 	mov    %rax,-0xc0(%rbp)
    cb1a:	48 8d 85 50 fa ff ff 	lea    -0x5b0(%rbp),%rax
    cb21:	48 89 85 48 ff ff ff 	mov    %rax,-0xb8(%rbp)
    cb28:	48 8d 85 50 fa ff ff 	lea    -0x5b0(%rbp),%rax
    cb2f:	48 89 85 50 ff ff ff 	mov    %rax,-0xb0(%rbp)
    cb36:	48 8d 85 50 fa ff ff 	lea    -0x5b0(%rbp),%rax
    cb3d:	48 89 85 58 ff ff ff 	mov    %rax,-0xa8(%rbp)
    cb44:	48 8d 85 50 fa ff ff 	lea    -0x5b0(%rbp),%rax
    cb4b:	48 89 85 60 ff ff ff 	mov    %rax,-0xa0(%rbp)
    cb52:	48 8d 85 50 fa ff ff 	lea    -0x5b0(%rbp),%rax
    cb59:	48 89 85 68 ff ff ff 	mov    %rax,-0x98(%rbp)
    cb60:	48 c7 85 70 ff ff ff 	movq   $0x0,-0x90(%rbp)
    cb67:	00 00 00 00 
    cb6b:	48 c7 85 78 ff ff ff 	movq   $0x0,-0x88(%rbp)
    cb72:	00 00 00 00 
    cb76:	48 c7 45 80 00 00 00 	movq   $0x0,-0x80(%rbp)
    cb7d:	00 
    cb7e:	48 8d 85 50 fa ff ff 	lea    -0x5b0(%rbp),%rax
    cb85:	48 89 45 88          	mov    %rax,-0x78(%rbp)
    cb89:	48 c7 45 90 00 00 00 	movq   $0x0,-0x70(%rbp)
    cb90:	00 
    cb91:	48 8d 85 50 fa ff ff 	lea    -0x5b0(%rbp),%rax
    cb98:	48 89 45 98          	mov    %rax,-0x68(%rbp)
    cb9c:	48 8d 85 50 fa ff ff 	lea    -0x5b0(%rbp),%rax
    cba3:	48 89 45 a0          	mov    %rax,-0x60(%rbp)
    cba7:	48 8d 85 50 fa ff ff 	lea    -0x5b0(%rbp),%rax
    cbae:	48 89 45 a8          	mov    %rax,-0x58(%rbp)
    cbb2:	48 8d 85 50 fa ff ff 	lea    -0x5b0(%rbp),%rax
    cbb9:	48 89 45 b0          	mov    %rax,-0x50(%rbp)
    cbbd:	48 8d 85 50 fa ff ff 	lea    -0x5b0(%rbp),%rax
    cbc4:	48 89 45 b8          	mov    %rax,-0x48(%rbp)
    cbc8:	c7 85 4c fa ff ff 00 	movl   $0x0,-0x5b4(%rbp)
    cbcf:	00 00 00 
    cbd2:	48 8d 05 41 98 00 00 	lea    0x9841(%rip),%rax        # 1641a <g_340+0x2>
    cbd9:	48 89 85 58 fb ff ff 	mov    %rax,-0x4a8(%rbp)
    cbe0:	48 8d 85 c0 fb ff ff 	lea    -0x440(%rbp),%rax
    cbe7:	48 83 c0 0c          	add    $0xc,%rax
    cbeb:	48 89 85 60 fb ff ff 	mov    %rax,-0x4a0(%rbp)
    cbf2:	48 8b 15 97 ad 00 00 	mov    0xad97(%rip),%rdx        # 17990 <g_309>
    cbf9:	48 8b 85 50 fb ff ff 	mov    -0x4b0(%rbp),%rax
    cc00:	48 89 10             	mov    %rdx,(%rax)
    cc03:	0f b7 05 b6 97 00 00 	movzwl 0x97b6(%rip),%eax        # 163c0 <g_159>
    cc0a:	0f b7 d8             	movzwl %ax,%ebx
    cc0d:	8b 85 f4 f9 ff ff    	mov    -0x60c(%rbp),%eax
    cc13:	44 0f b6 e0          	movzbl %al,%r12d
    cc17:	48 8b 85 50 fa ff ff 	mov    -0x5b0(%rbp),%rax
    cc1e:	48 89 05 73 ad 00 00 	mov    %rax,0xad73(%rip)        # 17998 <g_320>
    cc25:	48 8b 15 6c ad 00 00 	mov    0xad6c(%rip),%rdx        # 17998 <g_320>
    cc2c:	48 8b 85 50 fa ff ff 	mov    -0x5b0(%rbp),%rax
    cc33:	48 39 c2             	cmp    %rax,%rdx
    cc36:	0f 85 cb 00 00 00    	jne    cd07 <func_61+0x109e>
    cc3c:	48 8b 85 d8 fa ff ff 	mov    -0x528(%rbp),%rax
    cc43:	89 85 f0 f9 ff ff    	mov    %eax,-0x610(%rbp)
    cc49:	8b 85 f4 f9 ff ff    	mov    -0x60c(%rbp),%eax
    cc4f:	44 0f be e8          	movsbl %al,%r13d
    cc53:	8b 85 f4 f9 ff ff    	mov    -0x60c(%rbp),%eax
    cc59:	44 0f bf f0          	movswl %ax,%r14d
    cc5d:	48 8b 05 64 97 00 00 	mov    0x9764(%rip),%rax        # 163c8 <g_221>
    cc64:	44 0f b7 f8          	movzwl %ax,%r15d
    cc68:	8b 85 f4 f9 ff ff    	mov    -0x60c(%rbp),%eax
    cc6e:	0f b7 c0             	movzwl %ax,%eax
    cc71:	89 85 ec f9 ff ff    	mov    %eax,-0x614(%rbp)
    cc77:	0f b7 05 b2 94 00 00 	movzwl 0x94b2(%rip),%eax        # 16130 <g_125>
    cc7e:	98                   	cwtl   
    cc7f:	48 98                	cltq   
    cc81:	48 8d 14 85 00 00 00 	lea    0x0(,%rax,4),%rdx
    cc88:	00 
    cc89:	48 8d 05 30 94 00 00 	lea    0x9430(%rip),%rax        # 160c0 <g_87>
    cc90:	8b 04 02             	mov    (%rdx,%rax,1),%eax
    cc93:	0f b6 d0             	movzbl %al,%edx
    cc96:	8b 85 f4 f9 ff ff    	mov    -0x60c(%rbp),%eax
    cc9c:	0f b6 c0             	movzbl %al,%eax
    cc9f:	89 d6                	mov    %edx,%esi
    cca1:	89 c7                	mov    %eax,%edi
    cca3:	e8 eb 8e ff ff       	callq  5b93 <safe_mul_func_uint8_t_u_u>
    cca8:	0f b6 c0             	movzbl %al,%eax
    ccab:	25 9e 1c 00 00       	and    $0x1c9e,%eax
    ccb0:	8b b5 ec f9 ff ff    	mov    -0x614(%rbp),%esi
    ccb6:	89 c7                	mov    %eax,%edi
    ccb8:	e8 80 90 ff ff       	callq  5d3d <safe_mul_func_uint16_t_u_u>
    ccbd:	88 05 6f 94 00 00    	mov    %al,0x946f(%rip)        # 16132 <g_127>
    ccc3:	44 89 fe             	mov    %r15d,%esi
    ccc6:	bf 01 00 00 00       	mov    $0x1,%edi
    cccb:	e8 4f 90 ff ff       	callq  5d1f <safe_sub_func_uint16_t_u_u>
    ccd0:	98                   	cwtl   
    ccd1:	44 89 f6             	mov    %r14d,%esi
    ccd4:	89 c7                	mov    %eax,%edi
    ccd6:	e8 7a 87 ff ff       	callq  5455 <safe_div_func_int16_t_s_s>
    ccdb:	0f be c0             	movsbl %al,%eax
    ccde:	44 89 ee             	mov    %r13d,%esi
    cce1:	89 c7                	mov    %eax,%edi
    cce3:	e8 82 85 ff ff       	callq  526a <safe_div_func_int8_t_s_s>
    cce8:	0f be c0             	movsbl %al,%eax
    cceb:	89 85 4c fa ff ff    	mov    %eax,-0x5b4(%rbp)
    ccf1:	8b 85 4c fa ff ff    	mov    -0x5b4(%rbp),%eax
    ccf7:	0f be c0             	movsbl %al,%eax
    ccfa:	8b b5 f0 f9 ff ff    	mov    -0x610(%rbp),%esi
    cd00:	89 c7                	mov    %eax,%edi
    cd02:	e8 e7 85 ff ff       	callq  52ee <safe_lshift_func_int8_t_s_u>
    cd07:	b8 01 00 00 00       	mov    $0x1,%eax
    cd0c:	89 c2                	mov    %eax,%edx
    cd0e:	48 8b 85 58 fb ff ff 	mov    -0x4a8(%rbp),%rax
    cd15:	88 10                	mov    %dl,(%rax)
    cd17:	48 8b 85 58 fb ff ff 	mov    -0x4a8(%rbp),%rax
    cd1e:	0f b6 00             	movzbl (%rax),%eax
    cd21:	84 c0                	test   %al,%al
    cd23:	75 0e                	jne    cd33 <func_61+0x10ca>
    cd25:	48 8b 05 4c ac 00 00 	mov    0xac4c(%rip),%rax        # 17978 <g_149>
    cd2c:	0f b6 00             	movzbl (%rax),%eax
    cd2f:	84 c0                	test   %al,%al
    cd31:	74 07                	je     cd3a <func_61+0x10d1>
    cd33:	b8 01 00 00 00       	mov    $0x1,%eax
    cd38:	eb 05                	jmp    cd3f <func_61+0x10d6>
    cd3a:	b8 00 00 00 00       	mov    $0x0,%eax
    cd3f:	98                   	cwtl   
    cd40:	be 0c 00 00 00       	mov    $0xc,%esi
    cd45:	89 c7                	mov    %eax,%edi
    cd47:	e8 95 87 ff ff       	callq  54e1 <safe_lshift_func_int16_t_s_u>
    cd4c:	0f b6 c0             	movzbl %al,%eax
    cd4f:	44 89 e6             	mov    %r12d,%esi
    cd52:	89 c7                	mov    %eax,%edi
    cd54:	e8 01 8e ff ff       	callq  5b5a <safe_add_func_uint8_t_u_u>
    cd59:	84 c0                	test   %al,%al
    cd5b:	74 07                	je     cd64 <func_61+0x10fb>
    cd5d:	b8 01 00 00 00       	mov    $0x1,%eax
    cd62:	eb 05                	jmp    cd69 <func_61+0x1100>
    cd64:	b8 00 00 00 00       	mov    $0x0,%eax
    cd69:	39 85 f4 f9 ff ff    	cmp    %eax,-0x60c(%rbp)
    cd6f:	0f 94 c0             	sete   %al
    cd72:	0f b6 c0             	movzbl %al,%eax
    cd75:	21 85 28 fa ff ff    	and    %eax,-0x5d8(%rbp)
    cd7b:	0f b7 05 ae 93 00 00 	movzwl 0x93ae(%rip),%eax        # 16130 <g_125>
    cd82:	98                   	cwtl   
    cd83:	48 98                	cltq   
    cd85:	48 8d 14 85 00 00 00 	lea    0x0(,%rax,4),%rdx
    cd8c:	00 
    cd8d:	48 8d 05 2c 93 00 00 	lea    0x932c(%rip),%rax        # 160c0 <g_87>
    cd94:	8b 14 02             	mov    (%rdx,%rax,1),%edx
    cd97:	48 8b 05 da ab 00 00 	mov    0xabda(%rip),%rax        # 17978 <g_149>
    cd9e:	0f b6 00             	movzbl (%rax),%eax
    cda1:	0f be c0             	movsbl %al,%eax
    cda4:	39 c2                	cmp    %eax,%edx
    cda6:	0f 9c c0             	setl   %al
    cda9:	0f b6 c0             	movzbl %al,%eax
    cdac:	89 de                	mov    %ebx,%esi
    cdae:	89 c7                	mov    %eax,%edi
    cdb0:	e8 88 8f ff ff       	callq  5d3d <safe_mul_func_uint16_t_u_u>
    cdb5:	0f b7 c0             	movzwl %ax,%eax
    cdb8:	89 05 c6 92 00 00    	mov    %eax,0x92c6(%rip)        # 16084 <g_79+0x4>
    cdbe:	8b 15 c0 92 00 00    	mov    0x92c0(%rip),%edx        # 16084 <g_79+0x4>
    cdc4:	48 8b 85 60 fb ff ff 	mov    -0x4a0(%rbp),%rax
    cdcb:	8b 00                	mov    (%rax),%eax
    cdcd:	31 c2                	xor    %eax,%edx
    cdcf:	48 8b 85 60 fb ff ff 	mov    -0x4a0(%rbp),%rax
    cdd6:	89 10                	mov    %edx,(%rax)
    cdd8:	c7 85 4c fa ff ff 00 	movl   $0x0,-0x5b4(%rbp)
    cddf:	00 00 00 
    cde2:	83 bd 4c fa ff ff fc 	cmpl   $0xfffffffc,-0x5b4(%rbp)
    cde9:	7d 0b                	jge    cdf6 <func_61+0x118d>
    cdeb:	8b 85 f4 f9 ff ff    	mov    -0x60c(%rbp),%eax
    cdf1:	e9 e4 03 00 00       	jmpq   d1da <func_61+0x1571>
    cdf6:	0f b7 05 33 93 00 00 	movzwl 0x9333(%rip),%eax        # 16130 <g_125>
    cdfd:	98                   	cwtl   
    cdfe:	48 98                	cltq   
    ce00:	48 8d 14 85 00 00 00 	lea    0x0(,%rax,4),%rdx
    ce07:	00 
    ce08:	48 8d 05 b1 92 00 00 	lea    0x92b1(%rip),%rax        # 160c0 <g_87>
    ce0f:	8b 04 02             	mov    (%rdx,%rax,1),%eax
    ce12:	85 c0                	test   %eax,%eax
    ce14:	83 ad 30 fa ff ff 01 	subl   $0x1,-0x5d0(%rbp)
    ce1b:	83 bd 30 fa ff ff 18 	cmpl   $0x18,-0x5d0(%rbp)
    ce22:	0f 85 98 fb ff ff    	jne    c9c0 <func_61+0xd57>
    ce28:	c7 85 28 fa ff ff 08 	movl   $0x8,-0x5d8(%rbp)
    ce2f:	00 00 00 
    ce32:	83 bd 28 fa ff ff fc 	cmpl   $0xfffffffc,-0x5d8(%rbp)
    ce39:	0f 8d 43 03 00 00    	jge    d182 <func_61+0x1519>
    ce3f:	c6 85 12 fa ff ff c6 	movb   $0xc6,-0x5ee(%rbp)
    ce46:	48 8d 05 e3 92 00 00 	lea    0x92e3(%rip),%rax        # 16130 <g_125>
    ce4d:	48 89 85 78 fa ff ff 	mov    %rax,-0x588(%rbp)
    ce54:	48 8d 85 78 fa ff ff 	lea    -0x588(%rbp),%rax
    ce5b:	48 89 85 e0 fa ff ff 	mov    %rax,-0x520(%rbp)
    ce62:	0f b7 85 bc fb ff ff 	movzwl -0x444(%rbp),%eax
    ce69:	0f b6 d0             	movzbl %al,%edx
    ce6c:	8b 85 f4 f9 ff ff    	mov    -0x60c(%rbp),%eax
    ce72:	0f b6 c0             	movzbl %al,%eax
    ce75:	89 d6                	mov    %edx,%esi
    ce77:	89 c7                	mov    %eax,%edi
    ce79:	e8 5d 8d ff ff       	callq  5bdb <safe_div_func_uint8_t_u_u>
    ce7e:	be 01 00 00 00       	mov    $0x1,%esi
    ce83:	bf 01 00 00 00       	mov    $0x1,%edi
    ce88:	e8 31 8f ff ff       	callq  5dbe <safe_lshift_func_uint16_t_u_s>
    ce8d:	48 8b 95 00 fa ff ff 	mov    -0x600(%rbp),%rdx
    ce94:	8b 12                	mov    (%rdx),%edx
    ce96:	0f b7 c0             	movzwl %ax,%eax
    ce99:	31 c2                	xor    %eax,%edx
    ce9b:	48 8b 85 00 fa ff ff 	mov    -0x600(%rbp),%rax
    cea2:	89 10                	mov    %edx,(%rax)
    cea4:	c7 85 30 fa ff ff 00 	movl   $0x0,-0x5d0(%rbp)
    ceab:	00 00 00 
    ceae:	e9 b5 02 00 00       	jmpq   d168 <func_61+0x14ff>
    ceb3:	48 8d 05 5f 95 00 00 	lea    0x955f(%rip),%rax        # 16419 <g_340+0x1>
    ceba:	48 89 85 e8 fa ff ff 	mov    %rax,-0x518(%rbp)
    cec1:	48 8d 05 a0 91 00 00 	lea    0x91a0(%rip),%rax        # 16068 <g_78+0x28>
    cec8:	48 89 85 f0 fa ff ff 	mov    %rax,-0x510(%rbp)
    cecf:	c7 85 80 fe ff ff 7a 	movl   $0x2325a27a,-0x180(%rbp)
    ced6:	a2 25 23 
    ced9:	c7 85 84 fe ff ff 7a 	movl   $0x2325a27a,-0x17c(%rbp)
    cee0:	a2 25 23 
    cee3:	c7 85 88 fe ff ff 7a 	movl   $0x2325a27a,-0x178(%rbp)
    ceea:	a2 25 23 
    ceed:	c7 85 8c fe ff ff 7a 	movl   $0x2325a27a,-0x174(%rbp)
    cef4:	a2 25 23 
    cef7:	66 c7 85 18 fa ff ff 	movw   $0xee65,-0x5e8(%rbp)
    cefe:	65 ee 
    cf00:	48 8d 85 c0 fb ff ff 	lea    -0x440(%rbp),%rax
    cf07:	48 83 c0 08          	add    $0x8,%rax
    cf0b:	48 89 85 f8 fa ff ff 	mov    %rax,-0x508(%rbp)
    cf12:	48 8d 05 67 91 00 00 	lea    0x9167(%rip),%rax        # 16080 <g_79>
    cf19:	48 89 85 00 fb ff ff 	mov    %rax,-0x500(%rbp)
    cf20:	48 8d 05 9d 91 00 00 	lea    0x919d(%rip),%rax        # 160c4 <g_87+0x4>
    cf27:	48 89 85 08 fb ff ff 	mov    %rax,-0x4f8(%rbp)
    cf2e:	48 c7 85 10 fb ff ff 	movq   $0x0,-0x4f0(%rbp)
    cf35:	00 00 00 00 
    cf39:	48 8d 05 84 91 00 00 	lea    0x9184(%rip),%rax        # 160c4 <g_87+0x4>
    cf40:	48 89 85 18 fb ff ff 	mov    %rax,-0x4e8(%rbp)
    cf47:	48 8d 85 1c fa ff ff 	lea    -0x5e4(%rbp),%rax
    cf4e:	48 89 85 20 fb ff ff 	mov    %rax,-0x4e0(%rbp)
    cf55:	48 8d 05 30 91 00 00 	lea    0x9130(%rip),%rax        # 1608c <g_79+0xc>
    cf5c:	48 89 85 28 fb ff ff 	mov    %rax,-0x4d8(%rbp)
    cf63:	48 8d 85 c0 fb ff ff 	lea    -0x440(%rbp),%rax
    cf6a:	48 83 c0 04          	add    $0x4,%rax
    cf6e:	48 89 85 30 fb ff ff 	mov    %rax,-0x4d0(%rbp)
    cf75:	48 8d 05 48 91 00 00 	lea    0x9148(%rip),%rax        # 160c4 <g_87+0x4>
    cf7c:	48 89 85 38 fb ff ff 	mov    %rax,-0x4c8(%rbp)
    cf83:	c6 85 13 fa ff ff ff 	movb   $0xff,-0x5ed(%rbp)
    cf8a:	48 8d 05 ef 90 00 00 	lea    0x90ef(%rip),%rax        # 16080 <g_79>
    cf91:	48 89 85 40 fb ff ff 	mov    %rax,-0x4c0(%rbp)
    cf98:	48 8d 85 20 fa ff ff 	lea    -0x5e0(%rbp),%rax
    cf9f:	48 89 85 48 fb ff ff 	mov    %rax,-0x4b8(%rbp)
    cfa6:	0f b7 05 83 91 00 00 	movzwl 0x9183(%rip),%eax        # 16130 <g_125>
    cfad:	98                   	cwtl   
    cfae:	8d 50 01             	lea    0x1(%rax),%edx
    cfb1:	0f b7 05 78 91 00 00 	movzwl 0x9178(%rip),%eax        # 16130 <g_125>
    cfb8:	98                   	cwtl   
    cfb9:	8d 70 04             	lea    0x4(%rax),%esi
    cfbc:	0f b7 05 6d 91 00 00 	movzwl 0x916d(%rip),%eax        # 16130 <g_125>
    cfc3:	98                   	cwtl   
    cfc4:	48 63 c8             	movslq %eax,%rcx
    cfc7:	48 63 d2             	movslq %edx,%rdx
    cfca:	48 63 f6             	movslq %esi,%rsi
    cfcd:	48 89 d0             	mov    %rdx,%rax
    cfd0:	48 c1 e0 02          	shl    $0x2,%rax
    cfd4:	48 01 d0             	add    %rdx,%rax
    cfd7:	48 01 c0             	add    %rax,%rax
    cfda:	48 01 f0             	add    %rsi,%rax
    cfdd:	48 01 c0             	add    %rax,%rax
    cfe0:	48 01 c8             	add    %rcx,%rax
    cfe3:	48 8d 14 c5 00 00 00 	lea    0x0(,%rax,8),%rdx
    cfea:	00 
    cfeb:	48 8d 05 4e 91 00 00 	lea    0x914e(%rip),%rax        # 16140 <g_156>
    cff2:	48 8b 04 02          	mov    (%rdx,%rax,1),%rax
    cff6:	0f b6 c0             	movzbl %al,%eax
    cff9:	be 01 00 00 00       	mov    $0x1,%esi
    cffe:	89 c7                	mov    %eax,%edi
    d000:	e8 b9 8c ff ff       	callq  5cbe <safe_rshift_func_uint8_t_u_u>
    d005:	8b 9d f4 f9 ff ff    	mov    -0x60c(%rbp),%ebx
    d00b:	44 8b a5 30 fa ff ff 	mov    -0x5d0(%rbp),%r12d
    d012:	48 83 bd e0 fa ff ff 	cmpq   $0x0,-0x520(%rbp)
    d019:	00 
    d01a:	0f 95 c0             	setne  %al
    d01d:	44 0f b6 f0          	movzbl %al,%r14d
    d021:	44 8b ad 20 fa ff ff 	mov    -0x5e0(%rbp),%r13d
    d028:	0f b7 85 bc fb ff ff 	movzwl -0x444(%rbp),%eax
    d02f:	0f b7 d0             	movzwl %ax,%edx
    d032:	48 8b 85 e8 fa ff ff 	mov    -0x518(%rbp),%rax
    d039:	0f b6 00             	movzbl (%rax),%eax
    d03c:	89 c1                	mov    %eax,%ecx
    d03e:	48 c7 c0 ff ff ff ff 	mov    $0xffffffffffffffff,%rax
    d045:	31 c8                	xor    %ecx,%eax
    d047:	89 c1                	mov    %eax,%ecx
    d049:	48 8b 85 e8 fa ff ff 	mov    -0x518(%rbp),%rax
    d050:	88 08                	mov    %cl,(%rax)
    d052:	8b 85 f4 f9 ff ff    	mov    -0x60c(%rbp),%eax
    d058:	0f b7 c0             	movzwl %ax,%eax
    d05b:	89 d6                	mov    %edx,%esi
    d05d:	89 c7                	mov    %eax,%edi
    d05f:	e8 d9 8c ff ff       	callq  5d3d <safe_mul_func_uint16_t_u_u>
    d064:	48 8b 95 00 fa ff ff 	mov    -0x600(%rbp),%rdx
    d06b:	8b 12                	mov    (%rdx),%edx
    d06d:	0f b7 c0             	movzwl %ax,%eax
    d070:	31 c2                	xor    %eax,%edx
    d072:	48 8b 85 00 fa ff ff 	mov    -0x600(%rbp),%rax
    d079:	89 10                	mov    %edx,(%rax)
    d07b:	48 8b 85 00 fa ff ff 	mov    -0x600(%rbp),%rax
    d082:	8b 00                	mov    (%rax),%eax
    d084:	89 c6                	mov    %eax,%esi
    d086:	bf 01 00 00 00       	mov    $0x1,%edi
    d08b:	e8 6f 86 ff ff       	callq  56ff <safe_div_func_int32_t_s_s>
    d090:	44 89 ee             	mov    %r13d,%esi
    d093:	bf d9 04 ec 77       	mov    $0x77ec04d9,%edi
    d098:	e8 19 85 ff ff       	callq  55b6 <safe_add_func_int32_t_s_s>
    d09d:	41 39 c6             	cmp    %eax,%r14d
    d0a0:	0f 9f c0             	setg   %al
    d0a3:	0f b6 d0             	movzbl %al,%edx
    d0a6:	48 8b 85 f0 fa ff ff 	mov    -0x510(%rbp),%rax
    d0ad:	48 89 10             	mov    %rdx,(%rax)
    d0b0:	48 8b 85 f0 fa ff ff 	mov    -0x510(%rbp),%rax
    d0b7:	48 8b 00             	mov    (%rax),%rax
    d0ba:	4c 89 e6             	mov    %r12,%rsi
    d0bd:	48 89 c7             	mov    %rax,%rdi
    d0c0:	e8 69 8f ff ff       	callq  602e <safe_add_func_uint64_t_u_u>
    d0c5:	48 83 f8 08          	cmp    $0x8,%rax
    d0c9:	0f 95 c0             	setne  %al
    d0cc:	0f b6 c0             	movzbl %al,%eax
    d0cf:	be 06 00 00 00       	mov    $0x6,%esi
    d0d4:	89 c7                	mov    %eax,%edi
    d0d6:	e8 22 8e ff ff       	callq  5efd <safe_mod_func_uint32_t_u_u>
    d0db:	0f bf 95 18 fa ff ff 	movswl -0x5e8(%rbp),%edx
    d0e2:	0f b6 05 49 90 00 00 	movzbl 0x9049(%rip),%eax        # 16132 <g_127>
    d0e9:	0f b6 c0             	movzbl %al,%eax
    d0ec:	21 d0                	and    %edx,%eax
    d0ee:	48 98                	cltq   
    d0f0:	48 39 85 d8 fa ff ff 	cmp    %rax,-0x528(%rbp)
    d0f7:	72 09                	jb     d102 <func_61+0x1499>
    d0f9:	48 c7 c2 ff ff ff ff 	mov    $0xffffffffffffffff,%rdx
    d100:	eb 07                	jmp    d109 <func_61+0x14a0>
    d102:	48 c7 c2 fe ff ff ff 	mov    $0xfffffffffffffffe,%rdx
    d109:	48 8b 05 68 a8 00 00 	mov    0xa868(%rip),%rax        # 17978 <g_149>
    d110:	0f b6 00             	movzbl (%rax),%eax
    d113:	48 0f be c0          	movsbq %al,%rax
    d117:	48 39 c2             	cmp    %rax,%rdx
    d11a:	0f 9e c0             	setle  %al
    d11d:	0f b6 c0             	movzbl %al,%eax
    d120:	48 89 de             	mov    %rbx,%rsi
    d123:	48 89 c7             	mov    %rax,%rdi
    d126:	e8 20 8f ff ff       	callq  604b <safe_sub_func_uint64_t_u_u>
    d12b:	ba 00 00 00 00       	mov    $0x0,%edx
    d130:	48 8b 85 f8 fa ff ff 	mov    -0x508(%rbp),%rax
    d137:	8b 00                	mov    (%rax),%eax
    d139:	21 c2                	and    %eax,%edx
    d13b:	48 8b 85 f8 fa ff ff 	mov    -0x508(%rbp),%rax
    d142:	89 10                	mov    %edx,(%rax)
    d144:	0f b6 85 10 fa ff ff 	movzbl -0x5f0(%rbp),%eax
    d14b:	83 e8 01             	sub    $0x1,%eax
    d14e:	88 85 10 fa ff ff    	mov    %al,-0x5f0(%rbp)
    d154:	48 8b 85 00 fa ff ff 	mov    -0x600(%rbp),%rax
    d15b:	8b 00                	mov    (%rax),%eax
    d15d:	85 c0                	test   %eax,%eax
    d15f:	75 16                	jne    d177 <func_61+0x150e>
    d161:	83 85 30 fa ff ff 01 	addl   $0x1,-0x5d0(%rbp)
    d168:	83 bd 30 fa ff ff 01 	cmpl   $0x1,-0x5d0(%rbp)
    d16f:	0f 86 3e fd ff ff    	jbe    ceb3 <func_61+0x124a>
    d175:	eb 01                	jmp    d178 <func_61+0x150f>
    d177:	90                   	nop
    d178:	0f b7 05 b1 8f 00 00 	movzwl 0x8fb1(%rip),%eax        # 16130 <g_125>
    d17f:	98                   	cwtl   
    d180:	eb 58                	jmp    d1da <func_61+0x1571>
    d182:	0f b6 05 aa 8f 00 00 	movzbl 0x8faa(%rip),%eax        # 16133 <g_138>
    d189:	84 c0                	test   %al,%al
    d18b:	75 23                	jne    d1b0 <func_61+0x1547>
    d18d:	0f b7 05 9c 8f 00 00 	movzwl 0x8f9c(%rip),%eax        # 16130 <g_125>
    d194:	83 e8 01             	sub    $0x1,%eax
    d197:	66 89 05 92 8f 00 00 	mov    %ax,0x8f92(%rip)        # 16130 <g_125>
    d19e:	0f b7 05 8b 8f 00 00 	movzwl 0x8f8b(%rip),%eax        # 16130 <g_125>
    d1a5:	66 85 c0             	test   %ax,%ax
    d1a8:	0f 89 19 f3 ff ff    	jns    c4c7 <func_61+0x85e>
    d1ae:	eb 01                	jmp    d1b1 <func_61+0x1548>
    d1b0:	90                   	nop
    d1b1:	48 8b 05 10 92 00 00 	mov    0x9210(%rip),%rax        # 163c8 <g_221>
    d1b8:	48 83 c0 01          	add    $0x1,%rax
    d1bc:	48 89 05 05 92 00 00 	mov    %rax,0x9205(%rip)        # 163c8 <g_221>
    d1c3:	48 8b 05 fe 91 00 00 	mov    0x91fe(%rip),%rax        # 163c8 <g_221>
    d1ca:	48 83 f8 0e          	cmp    $0xe,%rax
    d1ce:	0f 8e be ed ff ff    	jle    bf92 <func_61+0x329>
    d1d4:	8b 85 f4 f9 ff ff    	mov    -0x60c(%rbp),%eax
    d1da:	48 8b 5d c8          	mov    -0x38(%rbp),%rbx
    d1de:	64 48 33 1c 25 28 00 	xor    %fs:0x28,%rbx
    d1e5:	00 00 
    d1e7:	74 05                	je     d1ee <func_61+0x1585>
    d1e9:	e8 82 7e ff ff       	callq  5070 <__stack_chk_fail@plt>
    d1ee:	48 81 c4 f8 05 00 00 	add    $0x5f8,%rsp
    d1f5:	5b                   	pop    %rbx
    d1f6:	41 5c                	pop    %r12
    d1f8:	41 5d                	pop    %r13
    d1fa:	41 5e                	pop    %r14
    d1fc:	41 5f                	pop    %r15
    d1fe:	5d                   	pop    %rbp
    d1ff:	c3                   	retq   

000000000000d200 <func_66>:
    d200:	f3 0f 1e fa          	endbr64 
    d204:	55                   	push   %rbp
    d205:	48 89 e5             	mov    %rsp,%rbp
    d208:	41 56                	push   %r14
    d20a:	41 55                	push   %r13
    d20c:	41 54                	push   %r12
    d20e:	53                   	push   %rbx
    d20f:	48 81 ec 30 07 00 00 	sub    $0x730,%rsp
    d216:	89 bd bc f8 ff ff    	mov    %edi,-0x744(%rbp)
    d21c:	89 f0                	mov    %esi,%eax
    d21e:	48 89 95 b0 f8 ff ff 	mov    %rdx,-0x750(%rbp)
    d225:	66 89 85 b8 f8 ff ff 	mov    %ax,-0x748(%rbp)
    d22c:	64 48 8b 04 25 28 00 	mov    %fs:0x28,%rax
    d233:	00 00 
    d235:	48 89 45 d8          	mov    %rax,-0x28(%rbp)
    d239:	31 c0                	xor    %eax,%eax
    d23b:	48 8d 05 b6 8e 00 00 	lea    0x8eb6(%rip),%rax        # 160f8 <g_96+0x18>
    d242:	48 89 85 58 f9 ff ff 	mov    %rax,-0x6a8(%rbp)
    d249:	48 8d 05 a8 8e 00 00 	lea    0x8ea8(%rip),%rax        # 160f8 <g_96+0x18>
    d250:	48 89 85 d0 f9 ff ff 	mov    %rax,-0x630(%rbp)
    d257:	48 8d 05 9a 8e 00 00 	lea    0x8e9a(%rip),%rax        # 160f8 <g_96+0x18>
    d25e:	48 89 85 d8 f9 ff ff 	mov    %rax,-0x628(%rbp)
    d265:	48 8d 05 8c 8e 00 00 	lea    0x8e8c(%rip),%rax        # 160f8 <g_96+0x18>
    d26c:	48 89 85 e0 f9 ff ff 	mov    %rax,-0x620(%rbp)
    d273:	48 8d 05 7e 8e 00 00 	lea    0x8e7e(%rip),%rax        # 160f8 <g_96+0x18>
    d27a:	48 89 85 e8 f9 ff ff 	mov    %rax,-0x618(%rbp)
    d281:	48 8d 05 70 8e 00 00 	lea    0x8e70(%rip),%rax        # 160f8 <g_96+0x18>
    d288:	48 89 85 f0 f9 ff ff 	mov    %rax,-0x610(%rbp)
    d28f:	48 8d 05 62 8e 00 00 	lea    0x8e62(%rip),%rax        # 160f8 <g_96+0x18>
    d296:	48 89 85 f8 f9 ff ff 	mov    %rax,-0x608(%rbp)
    d29d:	48 8d 05 54 8e 00 00 	lea    0x8e54(%rip),%rax        # 160f8 <g_96+0x18>
    d2a4:	48 89 85 00 fa ff ff 	mov    %rax,-0x600(%rbp)
    d2ab:	48 8d 05 46 8e 00 00 	lea    0x8e46(%rip),%rax        # 160f8 <g_96+0x18>
    d2b2:	48 89 85 08 fa ff ff 	mov    %rax,-0x5f8(%rbp)
    d2b9:	48 8d 05 38 8e 00 00 	lea    0x8e38(%rip),%rax        # 160f8 <g_96+0x18>
    d2c0:	48 89 85 10 fa ff ff 	mov    %rax,-0x5f0(%rbp)
    d2c7:	48 8d 05 2a 8e 00 00 	lea    0x8e2a(%rip),%rax        # 160f8 <g_96+0x18>
    d2ce:	48 89 85 18 fa ff ff 	mov    %rax,-0x5e8(%rbp)
    d2d5:	48 8d 05 1c 8e 00 00 	lea    0x8e1c(%rip),%rax        # 160f8 <g_96+0x18>
    d2dc:	48 89 85 20 fa ff ff 	mov    %rax,-0x5e0(%rbp)
    d2e3:	48 8d 05 0e 8e 00 00 	lea    0x8e0e(%rip),%rax        # 160f8 <g_96+0x18>
    d2ea:	48 89 85 28 fa ff ff 	mov    %rax,-0x5d8(%rbp)
    d2f1:	48 8d 05 00 8e 00 00 	lea    0x8e00(%rip),%rax        # 160f8 <g_96+0x18>
    d2f8:	48 89 85 30 fa ff ff 	mov    %rax,-0x5d0(%rbp)
    d2ff:	48 8d 05 f2 8d 00 00 	lea    0x8df2(%rip),%rax        # 160f8 <g_96+0x18>
    d306:	48 89 85 38 fa ff ff 	mov    %rax,-0x5c8(%rbp)
    d30d:	48 8d 05 e4 8d 00 00 	lea    0x8de4(%rip),%rax        # 160f8 <g_96+0x18>
    d314:	48 89 85 40 fa ff ff 	mov    %rax,-0x5c0(%rbp)
    d31b:	48 8d 05 d6 8d 00 00 	lea    0x8dd6(%rip),%rax        # 160f8 <g_96+0x18>
    d322:	48 89 85 48 fa ff ff 	mov    %rax,-0x5b8(%rbp)
    d329:	48 8d 05 c8 8d 00 00 	lea    0x8dc8(%rip),%rax        # 160f8 <g_96+0x18>
    d330:	48 89 85 50 fa ff ff 	mov    %rax,-0x5b0(%rbp)
    d337:	48 8d 05 ba 8d 00 00 	lea    0x8dba(%rip),%rax        # 160f8 <g_96+0x18>
    d33e:	48 89 85 58 fa ff ff 	mov    %rax,-0x5a8(%rbp)
    d345:	48 8d 05 ac 8d 00 00 	lea    0x8dac(%rip),%rax        # 160f8 <g_96+0x18>
    d34c:	48 89 85 60 fa ff ff 	mov    %rax,-0x5a0(%rbp)
    d353:	48 8d 05 9e 8d 00 00 	lea    0x8d9e(%rip),%rax        # 160f8 <g_96+0x18>
    d35a:	48 89 85 68 fa ff ff 	mov    %rax,-0x598(%rbp)
    d361:	48 8d 05 90 8d 00 00 	lea    0x8d90(%rip),%rax        # 160f8 <g_96+0x18>
    d368:	48 89 85 70 fa ff ff 	mov    %rax,-0x590(%rbp)
    d36f:	48 8d 05 82 8d 00 00 	lea    0x8d82(%rip),%rax        # 160f8 <g_96+0x18>
    d376:	48 89 85 78 fa ff ff 	mov    %rax,-0x588(%rbp)
    d37d:	48 8d 05 74 8d 00 00 	lea    0x8d74(%rip),%rax        # 160f8 <g_96+0x18>
    d384:	48 89 85 80 fa ff ff 	mov    %rax,-0x580(%rbp)
    d38b:	48 8d 05 66 8d 00 00 	lea    0x8d66(%rip),%rax        # 160f8 <g_96+0x18>
    d392:	48 89 85 88 fa ff ff 	mov    %rax,-0x578(%rbp)
    d399:	48 8d 05 58 8d 00 00 	lea    0x8d58(%rip),%rax        # 160f8 <g_96+0x18>
    d3a0:	48 89 85 90 fa ff ff 	mov    %rax,-0x570(%rbp)
    d3a7:	48 8d 05 4a 8d 00 00 	lea    0x8d4a(%rip),%rax        # 160f8 <g_96+0x18>
    d3ae:	48 89 85 98 fa ff ff 	mov    %rax,-0x568(%rbp)
    d3b5:	48 8d 05 3c 8d 00 00 	lea    0x8d3c(%rip),%rax        # 160f8 <g_96+0x18>
    d3bc:	48 89 85 a0 fa ff ff 	mov    %rax,-0x560(%rbp)
    d3c3:	48 8d 05 2e 8d 00 00 	lea    0x8d2e(%rip),%rax        # 160f8 <g_96+0x18>
    d3ca:	48 89 85 a8 fa ff ff 	mov    %rax,-0x558(%rbp)
    d3d1:	48 8d 05 20 8d 00 00 	lea    0x8d20(%rip),%rax        # 160f8 <g_96+0x18>
    d3d8:	48 89 85 b0 fa ff ff 	mov    %rax,-0x550(%rbp)
    d3df:	48 8d 05 12 8d 00 00 	lea    0x8d12(%rip),%rax        # 160f8 <g_96+0x18>
    d3e6:	48 89 85 b8 fa ff ff 	mov    %rax,-0x548(%rbp)
    d3ed:	48 8d 05 04 8d 00 00 	lea    0x8d04(%rip),%rax        # 160f8 <g_96+0x18>
    d3f4:	48 89 85 c0 fa ff ff 	mov    %rax,-0x540(%rbp)
    d3fb:	48 8d 05 f6 8c 00 00 	lea    0x8cf6(%rip),%rax        # 160f8 <g_96+0x18>
    d402:	48 89 85 c8 fa ff ff 	mov    %rax,-0x538(%rbp)
    d409:	c7 85 ec f8 ff ff 06 	movl   $0x6,-0x714(%rbp)
    d410:	00 00 00 
    d413:	c7 85 c0 f8 ff ff ff 	movl   $0xffffffff,-0x740(%rbp)
    d41a:	ff ff ff 
    d41d:	48 8d 05 a0 8c 00 00 	lea    0x8ca0(%rip),%rax        # 160c4 <g_87+0x4>
    d424:	48 89 85 70 f9 ff ff 	mov    %rax,-0x690(%rbp)
    d42b:	48 8d 05 92 8c 00 00 	lea    0x8c92(%rip),%rax        # 160c4 <g_87+0x4>
    d432:	48 89 85 78 f9 ff ff 	mov    %rax,-0x688(%rbp)
    d439:	48 8d 05 84 8c 00 00 	lea    0x8c84(%rip),%rax        # 160c4 <g_87+0x4>
    d440:	48 89 85 80 f9 ff ff 	mov    %rax,-0x680(%rbp)
    d447:	48 8d 05 76 8c 00 00 	lea    0x8c76(%rip),%rax        # 160c4 <g_87+0x4>
    d44e:	48 89 85 88 f9 ff ff 	mov    %rax,-0x678(%rbp)
    d455:	48 8d 05 68 8c 00 00 	lea    0x8c68(%rip),%rax        # 160c4 <g_87+0x4>
    d45c:	48 89 85 90 f9 ff ff 	mov    %rax,-0x670(%rbp)
    d463:	c7 85 c4 f8 ff ff cd 	movl   $0x8bb56dcd,-0x73c(%rbp)
    d46a:	6d b5 8b 
    d46d:	48 8d 05 0c 8c 00 00 	lea    0x8c0c(%rip),%rax        # 16080 <g_79>
    d474:	48 89 85 f8 f8 ff ff 	mov    %rax,-0x708(%rbp)
    d47b:	48 8d 05 b1 8c 00 00 	lea    0x8cb1(%rip),%rax        # 16133 <g_138>
    d482:	48 89 85 50 f9 ff ff 	mov    %rax,-0x6b0(%rbp)
    d489:	48 8d 85 70 f9 ff ff 	lea    -0x690(%rbp),%rax
    d490:	48 83 c0 18          	add    $0x18,%rax
    d494:	48 89 85 10 f9 ff ff 	mov    %rax,-0x6f0(%rbp)
    d49b:	c7 85 cc f8 ff ff 29 	movl   $0x2858ab29,-0x734(%rbp)
    d4a2:	ab 58 28 
    d4a5:	c7 85 d0 f8 ff ff 06 	movl   $0x6,-0x730(%rbp)
    d4ac:	00 00 00 
    d4af:	c7 85 d4 f8 ff ff ff 	movl   $0xffffffff,-0x72c(%rbp)
    d4b6:	ff ff ff 
    d4b9:	c7 85 d8 f8 ff ff 2d 	movl   $0xc5eef02d,-0x728(%rbp)
    d4c0:	f0 ee c5 
    d4c3:	c7 85 dc f8 ff ff 01 	movl   $0x1,-0x724(%rbp)
    d4ca:	00 00 00 
    d4cd:	48 8d 85 10 fc ff ff 	lea    -0x3f0(%rbp),%rax
    d4d4:	48 8d 15 85 47 00 00 	lea    0x4785(%rip),%rdx        # 11c60 <g_3193+0xb60>
    d4db:	b9 78 00 00 00       	mov    $0x78,%ecx
    d4e0:	48 89 c7             	mov    %rax,%rdi
    d4e3:	48 89 d6             	mov    %rdx,%rsi
    d4e6:	f3 48 a5             	rep movsq %ds:(%rsi),%es:(%rdi)
    d4e9:	c7 85 e0 f8 ff ff e7 	movl   $0x929b31e7,-0x720(%rbp)
    d4f0:	31 9b 92 
    d4f3:	48 8b 85 10 f9 ff ff 	mov    -0x6f0(%rbp),%rax
    d4fa:	48 8d 15 c3 8b 00 00 	lea    0x8bc3(%rip),%rdx        # 160c4 <g_87+0x4>
    d501:	48 89 10             	mov    %rdx,(%rax)
    d504:	c7 85 bc f8 ff ff 00 	movl   $0x0,-0x744(%rbp)
    d50b:	00 00 00 
    d50e:	e9 b9 06 00 00       	jmpq   dbcc <func_66+0x9cc>
    d513:	48 b8 3e b1 c0 20 fc 	movabs $0x2bbb11fc20c0b13e,%rax
    d51a:	11 bb 2b 
    d51d:	48 89 85 28 f9 ff ff 	mov    %rax,-0x6d8(%rbp)
    d524:	48 8d 05 95 8b 00 00 	lea    0x8b95(%rip),%rax        # 160c0 <g_87>
    d52b:	48 89 85 30 f9 ff ff 	mov    %rax,-0x6d0(%rbp)
    d532:	c7 85 e8 f8 ff ff 09 	movl   $0x9,-0x718(%rbp)
    d539:	00 00 00 
    d53c:	66 c7 85 68 f9 ff ff 	movw   $0x1,-0x698(%rbp)
    d543:	01 00 
    d545:	66 c7 85 6a f9 ff ff 	movw   $0x1,-0x696(%rbp)
    d54c:	01 00 
    d54e:	66 c7 85 6c f9 ff ff 	movw   $0x1,-0x694(%rbp)
    d555:	01 00 
    d557:	66 c7 85 6e f9 ff ff 	movw   $0x1,-0x692(%rbp)
    d55e:	01 00 
    d560:	48 c7 85 a0 f9 ff ff 	movq   $0x0,-0x660(%rbp)
    d567:	00 00 00 00 
    d56b:	48 c7 85 a8 f9 ff ff 	movq   $0x0,-0x658(%rbp)
    d572:	00 00 00 00 
    d576:	48 c7 85 b0 f9 ff ff 	movq   $0x0,-0x650(%rbp)
    d57d:	00 00 00 00 
    d581:	48 c7 85 b8 f9 ff ff 	movq   $0x0,-0x648(%rbp)
    d588:	00 00 00 00 
    d58c:	48 c7 85 c0 f9 ff ff 	movq   $0x0,-0x640(%rbp)
    d593:	00 00 00 00 
    d597:	48 8d 85 a0 f9 ff ff 	lea    -0x660(%rbp),%rax
    d59e:	48 89 85 38 f9 ff ff 	mov    %rax,-0x6c8(%rbp)
    d5a5:	48 c7 85 40 f9 ff ff 	movq   $0x0,-0x6c0(%rbp)
    d5ac:	00 00 00 00 
    d5b0:	48 8d 05 09 8e 00 00 	lea    0x8e09(%rip),%rax        # 163c0 <g_159>
    d5b7:	48 89 85 48 f9 ff ff 	mov    %rax,-0x6b8(%rbp)
    d5be:	66 c7 85 b8 f8 ff ff 	movw   $0x0,-0x748(%rbp)
    d5c5:	00 00 
    d5c7:	e9 98 03 00 00       	jmpq   d964 <func_66+0x764>
    d5cc:	48 b8 9f 2c 85 0b ae 	movabs $0x633990ae0b852c9f,%rax
    d5d3:	90 39 63 
    d5d6:	48 89 85 08 f9 ff ff 	mov    %rax,-0x6f8(%rbp)
    d5dd:	66 c7 05 da 8d 00 00 	movw   $0x0,0x8dda(%rip)        # 163c0 <g_159>
    d5e4:	00 00 
    d5e6:	e9 1a 03 00 00       	jmpq   d905 <func_66+0x705>
    d5eb:	48 c7 85 f0 f8 ff ff 	movq   $0x0,-0x710(%rbp)
    d5f2:	00 00 00 00 
    d5f6:	48 8d 85 f0 f8 ff ff 	lea    -0x710(%rbp),%rax
    d5fd:	48 89 85 d0 fa ff ff 	mov    %rax,-0x530(%rbp)
    d604:	48 c7 85 d8 fa ff ff 	movq   $0x0,-0x528(%rbp)
    d60b:	00 00 00 00 
    d60f:	48 8d 85 f0 f8 ff ff 	lea    -0x710(%rbp),%rax
    d616:	48 89 85 e0 fa ff ff 	mov    %rax,-0x520(%rbp)
    d61d:	48 c7 85 e8 fa ff ff 	movq   $0x0,-0x518(%rbp)
    d624:	00 00 00 00 
    d628:	48 8d 85 f0 f8 ff ff 	lea    -0x710(%rbp),%rax
    d62f:	48 89 85 f0 fa ff ff 	mov    %rax,-0x510(%rbp)
    d636:	48 8d 85 f0 f8 ff ff 	lea    -0x710(%rbp),%rax
    d63d:	48 89 85 f8 fa ff ff 	mov    %rax,-0x508(%rbp)
    d644:	48 8d 85 f0 f8 ff ff 	lea    -0x710(%rbp),%rax
    d64b:	48 89 85 00 fb ff ff 	mov    %rax,-0x500(%rbp)
    d652:	48 c7 85 08 fb ff ff 	movq   $0x0,-0x4f8(%rbp)
    d659:	00 00 00 00 
    d65d:	48 8d 85 f0 f8 ff ff 	lea    -0x710(%rbp),%rax
    d664:	48 89 85 10 fb ff ff 	mov    %rax,-0x4f0(%rbp)
    d66b:	48 c7 85 18 fb ff ff 	movq   $0x0,-0x4e8(%rbp)
    d672:	00 00 00 00 
    d676:	48 8d 85 f0 f8 ff ff 	lea    -0x710(%rbp),%rax
    d67d:	48 89 85 20 fb ff ff 	mov    %rax,-0x4e0(%rbp)
    d684:	48 8d 85 f0 f8 ff ff 	lea    -0x710(%rbp),%rax
    d68b:	48 89 85 28 fb ff ff 	mov    %rax,-0x4d8(%rbp)
    d692:	48 8d 85 f0 f8 ff ff 	lea    -0x710(%rbp),%rax
    d699:	48 89 85 30 fb ff ff 	mov    %rax,-0x4d0(%rbp)
    d6a0:	48 c7 85 38 fb ff ff 	movq   $0x0,-0x4c8(%rbp)
    d6a7:	00 00 00 00 
    d6ab:	48 8d 85 f0 f8 ff ff 	lea    -0x710(%rbp),%rax
    d6b2:	48 89 85 40 fb ff ff 	mov    %rax,-0x4c0(%rbp)
    d6b9:	48 c7 85 48 fb ff ff 	movq   $0x0,-0x4b8(%rbp)
    d6c0:	00 00 00 00 
    d6c4:	48 8d 85 f0 f8 ff ff 	lea    -0x710(%rbp),%rax
    d6cb:	48 89 85 50 fb ff ff 	mov    %rax,-0x4b0(%rbp)
    d6d2:	48 8d 85 f0 f8 ff ff 	lea    -0x710(%rbp),%rax
    d6d9:	48 89 85 58 fb ff ff 	mov    %rax,-0x4a8(%rbp)
    d6e0:	48 8d 85 f0 f8 ff ff 	lea    -0x710(%rbp),%rax
    d6e7:	48 89 85 60 fb ff ff 	mov    %rax,-0x4a0(%rbp)
    d6ee:	48 c7 85 68 fb ff ff 	movq   $0x0,-0x498(%rbp)
    d6f5:	00 00 00 00 
    d6f9:	48 8d 85 f0 f8 ff ff 	lea    -0x710(%rbp),%rax
    d700:	48 89 85 70 fb ff ff 	mov    %rax,-0x490(%rbp)
    d707:	48 c7 85 78 fb ff ff 	movq   $0x0,-0x488(%rbp)
    d70e:	00 00 00 00 
    d712:	48 8d 85 f0 f8 ff ff 	lea    -0x710(%rbp),%rax
    d719:	48 89 85 80 fb ff ff 	mov    %rax,-0x480(%rbp)
    d720:	48 8d 85 f0 f8 ff ff 	lea    -0x710(%rbp),%rax
    d727:	48 89 85 88 fb ff ff 	mov    %rax,-0x478(%rbp)
    d72e:	48 8d 85 f0 f8 ff ff 	lea    -0x710(%rbp),%rax
    d735:	48 89 85 90 fb ff ff 	mov    %rax,-0x470(%rbp)
    d73c:	48 c7 85 98 fb ff ff 	movq   $0x0,-0x468(%rbp)
    d743:	00 00 00 00 
    d747:	48 8d 85 f0 f8 ff ff 	lea    -0x710(%rbp),%rax
    d74e:	48 89 85 a0 fb ff ff 	mov    %rax,-0x460(%rbp)
    d755:	48 c7 85 a8 fb ff ff 	movq   $0x0,-0x458(%rbp)
    d75c:	00 00 00 00 
    d760:	48 8d 85 f0 f8 ff ff 	lea    -0x710(%rbp),%rax
    d767:	48 89 85 b0 fb ff ff 	mov    %rax,-0x450(%rbp)
    d76e:	48 8d 85 f0 f8 ff ff 	lea    -0x710(%rbp),%rax
    d775:	48 89 85 b8 fb ff ff 	mov    %rax,-0x448(%rbp)
    d77c:	48 8d 85 f0 f8 ff ff 	lea    -0x710(%rbp),%rax
    d783:	48 89 85 c0 fb ff ff 	mov    %rax,-0x440(%rbp)
    d78a:	48 c7 85 c8 fb ff ff 	movq   $0x0,-0x438(%rbp)
    d791:	00 00 00 00 
    d795:	48 8d 85 f0 f8 ff ff 	lea    -0x710(%rbp),%rax
    d79c:	48 89 85 d0 fb ff ff 	mov    %rax,-0x430(%rbp)
    d7a3:	48 c7 85 d8 fb ff ff 	movq   $0x0,-0x428(%rbp)
    d7aa:	00 00 00 00 
    d7ae:	48 8d 85 f0 f8 ff ff 	lea    -0x710(%rbp),%rax
    d7b5:	48 89 85 e0 fb ff ff 	mov    %rax,-0x420(%rbp)
    d7bc:	48 8d 85 f0 f8 ff ff 	lea    -0x710(%rbp),%rax
    d7c3:	48 89 85 e8 fb ff ff 	mov    %rax,-0x418(%rbp)
    d7ca:	48 8d 85 f0 f8 ff ff 	lea    -0x710(%rbp),%rax
    d7d1:	48 89 85 f0 fb ff ff 	mov    %rax,-0x410(%rbp)
    d7d8:	48 c7 85 f8 fb ff ff 	movq   $0x0,-0x408(%rbp)
    d7df:	00 00 00 00 
    d7e3:	48 8d 85 f0 f8 ff ff 	lea    -0x710(%rbp),%rax
    d7ea:	48 89 85 00 fc ff ff 	mov    %rax,-0x400(%rbp)
    d7f1:	48 c7 85 08 fc ff ff 	movq   $0x0,-0x3f8(%rbp)
    d7f8:	00 00 00 00 
    d7fc:	48 8d 05 2d 89 00 00 	lea    0x892d(%rip),%rax        # 16130 <g_125>
    d803:	48 89 85 00 f9 ff ff 	mov    %rax,-0x700(%rbp)
    d80a:	48 8d 05 1f 89 00 00 	lea    0x891f(%rip),%rax        # 16130 <g_125>
    d811:	48 89 85 00 f9 ff ff 	mov    %rax,-0x700(%rbp)
    d818:	66 81 bd b8 f8 ff ff 	cmpw   $0x945e,-0x748(%rbp)
    d81f:	5e 94 
    d821:	74 50                	je     d873 <func_66+0x673>
    d823:	c7 85 c8 f8 ff ff 00 	movl   $0x0,-0x738(%rbp)
    d82a:	00 00 00 
    d82d:	eb 1a                	jmp    d849 <func_66+0x649>
    d82f:	8b 85 c8 f8 ff ff    	mov    -0x738(%rbp),%eax
    d835:	48 98                	cltq   
    d837:	c7 84 85 60 f9 ff ff 	movl   $0xd5bfb389,-0x6a0(%rbp,%rax,4)
    d83e:	89 b3 bf d5 
    d842:	83 85 c8 f8 ff ff 01 	addl   $0x1,-0x738(%rbp)
    d849:	83 bd c8 f8 ff ff 01 	cmpl   $0x1,-0x738(%rbp)
    d850:	7e dd                	jle    d82f <func_66+0x62f>
    d852:	8b 85 60 f9 ff ff    	mov    -0x6a0(%rbp),%eax
    d858:	89 c2                	mov    %eax,%edx
    d85a:	48 8b 05 57 8b 00 00 	mov    0x8b57(%rip),%rax        # 163b8 <g_156+0x278>
    d861:	09 d0                	or     %edx,%eax
    d863:	89 85 60 f9 ff ff    	mov    %eax,-0x6a0(%rbp)
    d869:	48 83 ad 08 f9 ff ff 	subq   $0x1,-0x6f8(%rbp)
    d870:	01 
    d871:	eb 2e                	jmp    d8a1 <func_66+0x6a1>
    d873:	48 8b 85 10 f9 ff ff 	mov    -0x6f0(%rbp),%rax
    d87a:	48 8d 15 3f 88 00 00 	lea    0x883f(%rip),%rdx        # 160c0 <g_87>
    d881:	48 89 10             	mov    %rdx,(%rax)
    d884:	48 8b 05 6d 88 00 00 	mov    0x886d(%rip),%rax        # 160f8 <g_96+0x18>
    d88b:	48 85 c0             	test   %rax,%rax
    d88e:	75 57                	jne    d8e7 <func_66+0x6e7>
    d890:	48 8b 85 10 f9 ff ff 	mov    -0x6f0(%rbp),%rax
    d897:	48 8d 95 bc f8 ff ff 	lea    -0x744(%rbp),%rdx
    d89e:	48 89 10             	mov    %rdx,(%rax)
    d8a1:	48 c7 c0 ff ff ff ff 	mov    $0xffffffffffffffff,%rax
    d8a8:	0f b7 c0             	movzwl %ax,%eax
    d8ab:	be 01 00 00 00       	mov    $0x1,%esi
    d8b0:	89 c7                	mov    %eax,%edi
    d8b2:	e8 48 84 ff ff       	callq  5cff <safe_add_func_uint16_t_u_u>
    d8b7:	0f b7 c0             	movzwl %ax,%eax
    d8ba:	31 85 c4 f8 ff ff    	xor    %eax,-0x73c(%rbp)
    d8c0:	48 8b 85 10 f9 ff ff 	mov    -0x6f0(%rbp),%rax
    d8c7:	48 8b 10             	mov    (%rax),%rdx
    d8ca:	48 8b 85 10 f9 ff ff 	mov    -0x6f0(%rbp),%rax
    d8d1:	48 89 10             	mov    %rdx,(%rax)
    d8d4:	48 8b 85 10 f9 ff ff 	mov    -0x6f0(%rbp),%rax
    d8db:	48 8b 00             	mov    (%rax),%rax
    d8de:	48 89 85 f8 f8 ff ff 	mov    %rax,-0x708(%rbp)
    d8e5:	eb 01                	jmp    d8e8 <func_66+0x6e8>
    d8e7:	90                   	nop
    d8e8:	0f b7 05 d1 8a 00 00 	movzwl 0x8ad1(%rip),%eax        # 163c0 <g_159>
    d8ef:	0f b7 c0             	movzwl %ax,%eax
    d8f2:	be 05 00 00 00       	mov    $0x5,%esi
    d8f7:	89 c7                	mov    %eax,%edi
    d8f9:	e8 01 84 ff ff       	callq  5cff <safe_add_func_uint16_t_u_u>
    d8fe:	66 89 05 bb 8a 00 00 	mov    %ax,0x8abb(%rip)        # 163c0 <g_159>
    d905:	0f b7 05 b4 8a 00 00 	movzwl 0x8ab4(%rip),%eax        # 163c0 <g_159>
    d90c:	66 83 f8 06          	cmp    $0x6,%ax
    d910:	0f 87 d5 fc ff ff    	ja     d5eb <func_66+0x3eb>
    d916:	48 8b 85 28 f9 ff ff 	mov    -0x6d8(%rbp),%rax
    d91d:	89 85 cc f8 ff ff    	mov    %eax,-0x734(%rbp)
    d923:	48 8b 85 b0 f8 ff ff 	mov    -0x750(%rbp),%rax
    d92a:	8b 00                	mov    (%rax),%eax
    d92c:	85 c0                	test   %eax,%eax
    d92e:	75 44                	jne    d974 <func_66+0x774>
    d930:	66 c7 05 87 8a 00 00 	movw   $0xffed,0x8a87(%rip)        # 163c0 <g_159>
    d937:	ed ff 
    d939:	90                   	nop
    d93a:	0f b7 05 7f 8a 00 00 	movzwl 0x8a7f(%rip),%eax        # 163c0 <g_159>
    d941:	66 83 f8 32          	cmp    $0x32,%ax
    d945:	75 0c                	jne    d953 <func_66+0x753>
    d947:	48 8b 85 30 f9 ff ff 	mov    -0x6d0(%rbp),%rax
    d94e:	e9 cf 03 00 00       	jmpq   dd22 <func_66+0xb22>
    d953:	0f b7 85 b8 f8 ff ff 	movzwl -0x748(%rbp),%eax
    d95a:	83 c0 01             	add    $0x1,%eax
    d95d:	66 89 85 b8 f8 ff ff 	mov    %ax,-0x748(%rbp)
    d964:	66 83 bd b8 f8 ff ff 	cmpw   $0x26,-0x748(%rbp)
    d96b:	26 
    d96c:	0f 86 5a fc ff ff    	jbe    d5cc <func_66+0x3cc>
    d972:	eb 01                	jmp    d975 <func_66+0x775>
    d974:	90                   	nop
    d975:	0f b7 85 68 f9 ff ff 	movzwl -0x698(%rbp),%eax
    d97c:	83 c0 01             	add    $0x1,%eax
    d97f:	66 89 85 68 f9 ff ff 	mov    %ax,-0x698(%rbp)
    d986:	48 8b 85 38 f9 ff ff 	mov    -0x6c8(%rbp),%rax
    d98d:	48 8d 15 d8 36 00 00 	lea    0x36d8(%rip),%rdx        # 1106c <g_38+0xc>
    d994:	48 89 10             	mov    %rdx,(%rax)
    d997:	0f b7 9d b8 f8 ff ff 	movzwl -0x748(%rbp),%ebx
    d99e:	8b 85 bc f8 ff ff    	mov    -0x744(%rbp),%eax
    d9a4:	85 c0                	test   %eax,%eax
    d9a6:	74 0c                	je     d9b4 <func_66+0x7b4>
    d9a8:	48 8b 85 b0 f8 ff ff 	mov    -0x750(%rbp),%rax
    d9af:	8b 00                	mov    (%rax),%eax
    d9b1:	83 f8 ff             	cmp    $0xffffffff,%eax
    d9b4:	8b 85 bc f8 ff ff    	mov    -0x744(%rbp),%eax
    d9ba:	89 c2                	mov    %eax,%edx
    d9bc:	0f b7 05 6d 87 00 00 	movzwl 0x876d(%rip),%eax        # 16130 <g_125>
    d9c3:	09 d0                	or     %edx,%eax
    d9c5:	66 89 05 64 87 00 00 	mov    %ax,0x8764(%rip)        # 16130 <g_125>
    d9cc:	0f b7 05 5d 87 00 00 	movzwl 0x875d(%rip),%eax        # 16130 <g_125>
    d9d3:	66 85 c0             	test   %ax,%ax
    d9d6:	0f 85 14 01 00 00    	jne    daf0 <func_66+0x8f0>
    d9dc:	48 8b 85 10 f9 ff ff 	mov    -0x6f0(%rbp),%rax
    d9e3:	48 8b 00             	mov    (%rax),%rax
    d9e6:	8b 00                	mov    (%rax),%eax
    d9e8:	4c 63 e0             	movslq %eax,%r12
    d9eb:	48 8b 85 48 f9 ff ff 	mov    -0x6b8(%rbp),%rax
    d9f2:	0f b7 00             	movzwl (%rax),%eax
    d9f5:	8d 50 ff             	lea    -0x1(%rax),%edx
    d9f8:	48 8b 85 48 f9 ff ff 	mov    -0x6b8(%rbp),%rax
    d9ff:	66 89 10             	mov    %dx,(%rax)
    da02:	48 8b 85 48 f9 ff ff 	mov    -0x6b8(%rbp),%rax
    da09:	0f b7 00             	movzwl (%rax),%eax
    da0c:	0f b7 d0             	movzwl %ax,%edx
    da0f:	8b 85 bc f8 ff ff    	mov    -0x744(%rbp),%eax
    da15:	0f b7 c0             	movzwl %ax,%eax
    da18:	89 d6                	mov    %edx,%esi
    da1a:	89 c7                	mov    %eax,%edi
    da1c:	e8 de 82 ff ff       	callq  5cff <safe_add_func_uint16_t_u_u>
    da21:	8b 85 bc f8 ff ff    	mov    -0x744(%rbp),%eax
    da27:	4c 63 e8             	movslq %eax,%r13
    da2a:	0f b7 85 b8 f8 ff ff 	movzwl -0x748(%rbp),%eax
    da31:	44 0f bf f0          	movswl %ax,%r14d
    da35:	48 8b 85 30 f9 ff ff 	mov    -0x6d0(%rbp),%rax
    da3c:	8b 00                	mov    (%rax),%eax
    da3e:	48 63 d0             	movslq %eax,%rdx
    da41:	48 8b 05 30 9f 00 00 	mov    0x9f30(%rip),%rax        # 17978 <g_149>
    da48:	0f b6 00             	movzbl (%rax),%eax
    da4b:	3c 60                	cmp    $0x60,%al
    da4d:	0f 9e c0             	setle  %al
    da50:	0f b6 c0             	movzbl %al,%eax
    da53:	48 89 d6             	mov    %rdx,%rsi
    da56:	48 89 c7             	mov    %rax,%rdi
    da59:	e8 99 7f ff ff       	callq  59f7 <safe_div_func_int64_t_s_s>
    da5e:	98                   	cwtl   
    da5f:	44 89 f6             	mov    %r14d,%esi
    da62:	89 c7                	mov    %eax,%edi
    da64:	e8 ec 79 ff ff       	callq  5455 <safe_div_func_int16_t_s_s>
    da69:	48 8b 15 08 9f 00 00 	mov    0x9f08(%rip),%rdx        # 17978 <g_149>
    da70:	0f b6 12             	movzbl (%rdx),%edx
    da73:	66 0f be d2          	movsbw %dl,%dx
    da77:	66 39 d0             	cmp    %dx,%ax
    da7a:	0f 9d c0             	setge  %al
    da7d:	0f b6 d0             	movzbl %al,%edx
    da80:	0f b7 85 b8 f8 ff ff 	movzwl -0x748(%rbp),%eax
    da87:	89 d6                	mov    %edx,%esi
    da89:	89 c7                	mov    %eax,%edi
    da8b:	e8 8f 82 ff ff       	callq  5d1f <safe_sub_func_uint16_t_u_u>
    da90:	66 85 c0             	test   %ax,%ax
    da93:	74 11                	je     daa6 <func_66+0x8a6>
    da95:	8b 85 bc f8 ff ff    	mov    -0x744(%rbp),%eax
    da9b:	85 c0                	test   %eax,%eax
    da9d:	74 07                	je     daa6 <func_66+0x8a6>
    da9f:	b8 01 00 00 00       	mov    $0x1,%eax
    daa4:	eb 05                	jmp    daab <func_66+0x8ab>
    daa6:	b8 00 00 00 00       	mov    $0x0,%eax
    daab:	48 98                	cltq   
    daad:	4c 89 ee             	mov    %r13,%rsi
    dab0:	48 89 c7             	mov    %rax,%rdi
    dab3:	e8 c8 85 ff ff       	callq  6080 <safe_mod_func_uint64_t_u_u>
    dab8:	0f b6 d0             	movzbl %al,%edx
    dabb:	0f b7 85 b8 f8 ff ff 	movzwl -0x748(%rbp),%eax
    dac2:	0f b6 c0             	movzbl %al,%eax
    dac5:	89 d6                	mov    %edx,%esi
    dac7:	89 c7                	mov    %eax,%edi
    dac9:	e8 c5 80 ff ff       	callq  5b93 <safe_mul_func_uint8_t_u_u>
    dace:	89 c2                	mov    %eax,%edx
    dad0:	48 8b 05 91 9e 00 00 	mov    0x9e91(%rip),%rax        # 17968 <g_97>
    dad7:	0f b6 d2             	movzbl %dl,%edx
    dada:	48 89 10             	mov    %rdx,(%rax)
    dadd:	48 8b 00             	mov    (%rax),%rax
    dae0:	4c 89 e6             	mov    %r12,%rsi
    dae3:	48 89 c7             	mov    %rax,%rdi
    dae6:	e8 0c 7f ff ff       	callq  59f7 <safe_div_func_int64_t_s_s>
    daeb:	48 85 c0             	test   %rax,%rax
    daee:	74 07                	je     daf7 <func_66+0x8f7>
    daf0:	b8 01 00 00 00       	mov    $0x1,%eax
    daf5:	eb 05                	jmp    dafc <func_66+0x8fc>
    daf7:	b8 00 00 00 00       	mov    $0x0,%eax
    dafc:	0f b7 c0             	movzwl %ax,%eax
    daff:	be 07 00 00 00       	mov    $0x7,%esi
    db04:	89 c7                	mov    %eax,%edi
    db06:	e8 3d 83 ff ff       	callq  5e48 <safe_rshift_func_uint16_t_u_s>
    db0b:	66 85 c0             	test   %ax,%ax
    db0e:	74 10                	je     db20 <func_66+0x920>
    db10:	b8 01 00 00 00       	mov    $0x1,%eax
    db15:	85 c0                	test   %eax,%eax
    db17:	74 07                	je     db20 <func_66+0x920>
    db19:	b8 01 00 00 00       	mov    $0x1,%eax
    db1e:	eb 05                	jmp    db25 <func_66+0x925>
    db20:	b8 00 00 00 00       	mov    $0x0,%eax
    db25:	85 c0                	test   %eax,%eax
    db27:	48 8b 05 5a 9e 00 00 	mov    0x9e5a(%rip),%rax        # 17988 <g_164>
    db2e:	48 8b 00             	mov    (%rax),%rax
    db31:	48 8b 85 30 f9 ff ff 	mov    -0x6d0(%rbp),%rax
    db38:	8b 00                	mov    (%rax),%eax
    db3a:	0f b7 c0             	movzwl %ax,%eax
    db3d:	be 01 00 00 00       	mov    $0x1,%esi
    db42:	89 c7                	mov    %eax,%edi
    db44:	e8 f4 81 ff ff       	callq  5d3d <safe_mul_func_uint16_t_u_u>
    db49:	44 0f b7 e0          	movzwl %ax,%r12d
    db4d:	8b 85 bc f8 ff ff    	mov    -0x744(%rbp),%eax
    db53:	0f b7 c0             	movzwl %ax,%eax
    db56:	be 08 00 00 00       	mov    $0x8,%esi
    db5b:	89 c7                	mov    %eax,%edi
    db5d:	e8 5c 82 ff ff       	callq  5dbe <safe_lshift_func_uint16_t_u_s>
    db62:	0f b6 c0             	movzbl %al,%eax
    db65:	44 89 e6             	mov    %r12d,%esi
    db68:	89 c7                	mov    %eax,%edi
    db6a:	e8 dd 80 ff ff       	callq  5c4c <safe_lshift_func_uint8_t_u_u>
    db6f:	0f b6 c0             	movzbl %al,%eax
    db72:	48 89 de             	mov    %rbx,%rsi
    db75:	48 89 c7             	mov    %rax,%rdi
    db78:	e8 ce 84 ff ff       	callq  604b <safe_sub_func_uint64_t_u_u>
    db7d:	48 85 c0             	test   %rax,%rax
    db80:	74 07                	je     db89 <func_66+0x989>
    db82:	ba 01 00 00 00       	mov    $0x1,%edx
    db87:	eb 05                	jmp    db8e <func_66+0x98e>
    db89:	ba 00 00 00 00       	mov    $0x0,%edx
    db8e:	48 8b 05 e3 9d 00 00 	mov    0x9de3(%rip),%rax        # 17978 <g_149>
    db95:	88 10                	mov    %dl,(%rax)
    db97:	0f b6 00             	movzbl (%rax),%eax
    db9a:	84 c0                	test   %al,%al
    db9c:	75 0a                	jne    dba8 <func_66+0x9a8>
    db9e:	8b 85 bc f8 ff ff    	mov    -0x744(%rbp),%eax
    dba4:	85 c0                	test   %eax,%eax
    dba6:	74 07                	je     dbaf <func_66+0x9af>
    dba8:	ba 01 00 00 00       	mov    $0x1,%edx
    dbad:	eb 05                	jmp    dbb4 <func_66+0x9b4>
    dbaf:	ba 00 00 00 00       	mov    $0x0,%edx
    dbb4:	48 8b 85 30 f9 ff ff 	mov    -0x6d0(%rbp),%rax
    dbbb:	89 10                	mov    %edx,(%rax)
    dbbd:	8b 85 bc f8 ff ff    	mov    -0x744(%rbp),%eax
    dbc3:	83 e8 01             	sub    $0x1,%eax
    dbc6:	89 85 bc f8 ff ff    	mov    %eax,-0x744(%rbp)
    dbcc:	8b 85 bc f8 ff ff    	mov    -0x744(%rbp),%eax
    dbd2:	83 f8 fa             	cmp    $0xfffffffa,%eax
    dbd5:	0f 8c 38 f9 ff ff    	jl     d513 <func_66+0x313>
    dbdb:	8b 05 df 84 00 00    	mov    0x84df(%rip),%eax        # 160c0 <g_87>
    dbe1:	83 f0 f6             	xor    $0xfffffff6,%eax
    dbe4:	89 05 d6 84 00 00    	mov    %eax,0x84d6(%rip)        # 160c0 <g_87>
    dbea:	8b 05 d0 84 00 00    	mov    0x84d0(%rip),%eax        # 160c0 <g_87>
    dbf0:	85 c0                	test   %eax,%eax
    dbf2:	0f 84 f4 00 00 00    	je     dcec <func_66+0xaec>
    dbf8:	48 8d 05 31 85 00 00 	lea    0x8531(%rip),%rax        # 16130 <g_125>
    dbff:	48 89 85 18 f9 ff ff 	mov    %rax,-0x6e8(%rbp)
    dc06:	48 8d 05 26 85 00 00 	lea    0x8526(%rip),%rax        # 16133 <g_138>
    dc0d:	48 89 85 f0 f8 ff ff 	mov    %rax,-0x710(%rbp)
    dc14:	48 8d 85 f0 f8 ff ff 	lea    -0x710(%rbp),%rax
    dc1b:	48 89 85 20 f9 ff ff 	mov    %rax,-0x6e0(%rbp)
    dc22:	c7 85 e4 f8 ff ff 08 	movl   $0x6452f108,-0x71c(%rbp)
    dc29:	f1 52 64 
    dc2c:	48 8b 95 f0 f8 ff ff 	mov    -0x710(%rbp),%rdx
    dc33:	48 8b 85 20 f9 ff ff 	mov    -0x6e0(%rbp),%rax
    dc3a:	48 89 10             	mov    %rdx,(%rax)
    dc3d:	0f b6 05 ee 84 00 00 	movzbl 0x84ee(%rip),%eax        # 16132 <g_127>
    dc44:	0f b6 d8             	movzbl %al,%ebx
    dc47:	48 8b 85 10 f9 ff ff 	mov    -0x6f0(%rbp),%rax
    dc4e:	48 8b 00             	mov    (%rax),%rax
    dc51:	44 8b 20             	mov    (%rax),%r12d
    dc54:	be 05 00 00 00       	mov    $0x5,%esi
    dc59:	bf 00 00 00 00       	mov    $0x0,%edi
    dc5e:	e8 9c 7a ff ff       	callq  56ff <safe_div_func_int32_t_s_s>
    dc63:	33 85 e4 f8 ff ff    	xor    -0x71c(%rbp),%eax
    dc69:	41 39 c4             	cmp    %eax,%r12d
    dc6c:	0f 94 c0             	sete   %al
    dc6f:	0f b6 d0             	movzbl %al,%edx
    dc72:	8b 85 bc f8 ff ff    	mov    -0x744(%rbp),%eax
    dc78:	21 d0                	and    %edx,%eax
    dc7a:	f7 d0                	not    %eax
    dc7c:	be f9 ff ff ff       	mov    $0xfffffff9,%esi
    dc81:	89 c7                	mov    %eax,%edi
    dc83:	e8 2e 79 ff ff       	callq  55b6 <safe_add_func_int32_t_s_s>
    dc88:	89 de                	mov    %ebx,%esi
    dc8a:	89 c7                	mov    %eax,%edi
    dc8c:	e8 74 79 ff ff       	callq  5605 <safe_sub_func_int32_t_s_s>
    dc91:	8b 85 bc f8 ff ff    	mov    -0x744(%rbp),%eax
    dc97:	0f b6 c0             	movzbl %al,%eax
    dc9a:	be 07 00 00 00       	mov    $0x7,%esi
    dc9f:	89 c7                	mov    %eax,%edi
    dca1:	e8 a6 7f ff ff       	callq  5c4c <safe_lshift_func_uint8_t_u_u>
    dca6:	0f b6 d0             	movzbl %al,%edx
    dca9:	48 8b 85 18 f9 ff ff 	mov    -0x6e8(%rbp),%rax
    dcb0:	66 89 10             	mov    %dx,(%rax)
    dcb3:	0f b7 95 b8 f8 ff ff 	movzwl -0x748(%rbp),%edx
    dcba:	8b 05 c0 83 00 00    	mov    0x83c0(%rip),%eax        # 16080 <g_79>
    dcc0:	39 c2                	cmp    %eax,%edx
    dcc2:	48 c7 c0 ff ff ff ff 	mov    $0xffffffffffffffff,%rax
    dcc9:	48 89 c2             	mov    %rax,%rdx
    dccc:	48 8b 05 8d 83 00 00 	mov    0x838d(%rip),%rax        # 16060 <g_78+0x20>
    dcd3:	48 39 c2             	cmp    %rax,%rdx
    dcd6:	0f 92 c0             	setb   %al
    dcd9:	0f b6 d0             	movzbl %al,%edx
    dcdc:	8b 05 1a 87 00 00    	mov    0x871a(%rip),%eax        # 163fc <g_280+0x1c>
    dce2:	09 d0                	or     %edx,%eax
    dce4:	89 05 12 87 00 00    	mov    %eax,0x8712(%rip)        # 163fc <g_280+0x1c>
    dcea:	eb 20                	jmp    dd0c <func_66+0xb0c>
    dcec:	be 01 00 00 00       	mov    $0x1,%esi
    dcf1:	bf 01 00 00 00       	mov    $0x1,%edi
    dcf6:	e8 5f 7e ff ff       	callq  5b5a <safe_add_func_uint8_t_u_u>
    dcfb:	89 c2                	mov    %eax,%edx
    dcfd:	48 8b 85 10 f9 ff ff 	mov    -0x6f0(%rbp),%rax
    dd04:	48 8b 00             	mov    (%rax),%rax
    dd07:	0f b6 d2             	movzbl %dl,%edx
    dd0a:	89 10                	mov    %edx,(%rax)
    dd0c:	8b 15 12 83 00 00    	mov    0x8312(%rip),%edx        # 16024 <g_3>
    dd12:	48 8b 85 f8 f8 ff ff 	mov    -0x708(%rbp),%rax
    dd19:	89 10                	mov    %edx,(%rax)
    dd1b:	48 8d 05 5e 83 00 00 	lea    0x835e(%rip),%rax        # 16080 <g_79>
    dd22:	48 8b 4d d8          	mov    -0x28(%rbp),%rcx
    dd26:	64 48 33 0c 25 28 00 	xor    %fs:0x28,%rcx
    dd2d:	00 00 
    dd2f:	74 05                	je     dd36 <func_66+0xb36>
    dd31:	e8 3a 73 ff ff       	callq  5070 <__stack_chk_fail@plt>
    dd36:	48 81 c4 30 07 00 00 	add    $0x730,%rsp
    dd3d:	5b                   	pop    %rbx
    dd3e:	41 5c                	pop    %r12
    dd40:	41 5d                	pop    %r13
    dd42:	41 5e                	pop    %r14
    dd44:	5d                   	pop    %rbp
    dd45:	c3                   	retq   

000000000000dd46 <main>:
    dd46:	f3 0f 1e fa          	endbr64 
    dd4a:	55                   	push   %rbp
    dd4b:	48 89 e5             	mov    %rsp,%rbp
    dd4e:	48 83 ec 20          	sub    $0x20,%rsp
    dd52:	89 7d ec             	mov    %edi,-0x14(%rbp)
    dd55:	48 89 75 e0          	mov    %rsi,-0x20(%rbp)
    dd59:	c7 45 fc 00 00 00 00 	movl   $0x0,-0x4(%rbp)
    dd60:	83 7d ec 02          	cmpl   $0x2,-0x14(%rbp)
    dd64:	75 25                	jne    dd8b <main+0x45>
    dd66:	48 8b 45 e0          	mov    -0x20(%rbp),%rax
    dd6a:	48 83 c0 08          	add    $0x8,%rax
    dd6e:	48 8b 00             	mov    (%rax),%rax
    dd71:	48 8d 35 a8 42 00 00 	lea    0x42a8(%rip),%rsi        # 12020 <g_3193+0xf20>
    dd78:	48 89 c7             	mov    %rax,%rdi
    dd7b:	e8 10 73 ff ff       	callq  5090 <strcmp@plt>
    dd80:	85 c0                	test   %eax,%eax
    dd82:	75 07                	jne    dd8b <main+0x45>
    dd84:	c7 45 fc 01 00 00 00 	movl   $0x1,-0x4(%rbp)
    dd8b:	e8 f9 73 ff ff       	callq  5189 <platform_main_begin>
    dd90:	e8 03 88 ff ff       	callq  6598 <crc32_gentab>
    dd95:	e8 1b 8a ff ff       	callq  67b5 <func_1>
    dd9a:	8b 05 84 82 00 00    	mov    0x8284(%rip),%eax        # 16024 <g_3>
    dda0:	48 98                	cltq   
    dda2:	8b 55 fc             	mov    -0x4(%rbp),%edx
    dda5:	48 8d 35 76 42 00 00 	lea    0x4276(%rip),%rsi        # 12022 <g_3193+0xf22>
    ddac:	48 89 c7             	mov    %rax,%rdi
    ddaf:	e8 3f 89 ff ff       	callq  66f3 <transparent_crc>
    ddb4:	c7 45 f0 00 00 00 00 	movl   $0x0,-0x10(%rbp)
    ddbb:	e9 a1 00 00 00       	jmpq   de61 <main+0x11b>
    ddc0:	8b 45 f0             	mov    -0x10(%rbp),%eax
    ddc3:	48 98                	cltq   
    ddc5:	48 8d 14 85 00 00 00 	lea    0x0(,%rax,4),%rdx
    ddcc:	00 
    ddcd:	48 8d 05 54 82 00 00 	lea    0x8254(%rip),%rax        # 16028 <g_24>
    ddd4:	8b 04 02             	mov    (%rdx,%rax,1),%eax
    ddd7:	48 98                	cltq   
    ddd9:	8b 55 fc             	mov    -0x4(%rbp),%edx
    dddc:	48 8d 35 43 42 00 00 	lea    0x4243(%rip),%rsi        # 12026 <g_3193+0xf26>
    dde3:	48 89 c7             	mov    %rax,%rdi
    dde6:	e8 08 89 ff ff       	callq  66f3 <transparent_crc>
    ddeb:	8b 45 f0             	mov    -0x10(%rbp),%eax
    ddee:	48 98                	cltq   
    ddf0:	48 8d 14 85 00 00 00 	lea    0x0(,%rax,4),%rdx
    ddf7:	00 
    ddf8:	48 8d 05 29 82 00 00 	lea    0x8229(%rip),%rax        # 16028 <g_24>
    ddff:	8b 04 02             	mov    (%rdx,%rax,1),%eax
    de02:	48 98                	cltq   
    de04:	8b 55 fc             	mov    -0x4(%rbp),%edx
    de07:	48 8d 35 23 42 00 00 	lea    0x4223(%rip),%rsi        # 12031 <g_3193+0xf31>
    de0e:	48 89 c7             	mov    %rax,%rdi
    de11:	e8 dd 88 ff ff       	callq  66f3 <transparent_crc>
    de16:	8b 45 f0             	mov    -0x10(%rbp),%eax
    de19:	48 98                	cltq   
    de1b:	48 8d 14 85 00 00 00 	lea    0x0(,%rax,4),%rdx
    de22:	00 
    de23:	48 8d 05 fe 81 00 00 	lea    0x81fe(%rip),%rax        # 16028 <g_24>
    de2a:	8b 04 02             	mov    (%rdx,%rax,1),%eax
    de2d:	48 98                	cltq   
    de2f:	8b 55 fc             	mov    -0x4(%rbp),%edx
    de32:	48 8d 35 03 42 00 00 	lea    0x4203(%rip),%rsi        # 1203c <g_3193+0xf3c>
    de39:	48 89 c7             	mov    %rax,%rdi
    de3c:	e8 b2 88 ff ff       	callq  66f3 <transparent_crc>
    de41:	83 7d fc 00          	cmpl   $0x0,-0x4(%rbp)
    de45:	74 16                	je     de5d <main+0x117>
    de47:	8b 45 f0             	mov    -0x10(%rbp),%eax
    de4a:	89 c6                	mov    %eax,%esi
    de4c:	48 8d 3d f4 41 00 00 	lea    0x41f4(%rip),%rdi        # 12047 <g_3193+0xf47>
    de53:	b8 00 00 00 00       	mov    $0x0,%eax
    de58:	e8 23 72 ff ff       	callq  5080 <printf@plt>
    de5d:	83 45 f0 01          	addl   $0x1,-0x10(%rbp)
    de61:	83 7d f0 02          	cmpl   $0x2,-0x10(%rbp)
    de65:	0f 8e 55 ff ff ff    	jle    ddc0 <main+0x7a>
    de6b:	48 8b 05 c6 81 00 00 	mov    0x81c6(%rip),%rax        # 16038 <g_26>
    de72:	48 89 c1             	mov    %rax,%rcx
    de75:	8b 45 fc             	mov    -0x4(%rbp),%eax
    de78:	89 c2                	mov    %eax,%edx
    de7a:	48 8d 35 d4 41 00 00 	lea    0x41d4(%rip),%rsi        # 12055 <g_3193+0xf55>
    de81:	48 89 cf             	mov    %rcx,%rdi
    de84:	e8 6a 88 ff ff       	callq  66f3 <transparent_crc>
    de89:	c7 45 f0 00 00 00 00 	movl   $0x0,-0x10(%rbp)
    de90:	eb 4b                	jmp    dedd <main+0x197>
    de92:	8b 45 f0             	mov    -0x10(%rbp),%eax
    de95:	48 98                	cltq   
    de97:	48 8d 14 85 00 00 00 	lea    0x0(,%rax,4),%rdx
    de9e:	00 
    de9f:	48 8d 05 ba 31 00 00 	lea    0x31ba(%rip),%rax        # 11060 <g_38>
    dea6:	8b 04 02             	mov    (%rdx,%rax,1),%eax
    dea9:	48 98                	cltq   
    deab:	8b 55 fc             	mov    -0x4(%rbp),%edx
    deae:	48 8d 35 a5 41 00 00 	lea    0x41a5(%rip),%rsi        # 1205a <g_3193+0xf5a>
    deb5:	48 89 c7             	mov    %rax,%rdi
    deb8:	e8 36 88 ff ff       	callq  66f3 <transparent_crc>
    debd:	83 7d fc 00          	cmpl   $0x0,-0x4(%rbp)
    dec1:	74 16                	je     ded9 <main+0x193>
    dec3:	8b 45 f0             	mov    -0x10(%rbp),%eax
    dec6:	89 c6                	mov    %eax,%esi
    dec8:	48 8d 3d 78 41 00 00 	lea    0x4178(%rip),%rdi        # 12047 <g_3193+0xf47>
    decf:	b8 00 00 00 00       	mov    $0x0,%eax
    ded4:	e8 a7 71 ff ff       	callq  5080 <printf@plt>
    ded9:	83 45 f0 01          	addl   $0x1,-0x10(%rbp)
    dedd:	83 7d f0 03          	cmpl   $0x3,-0x10(%rbp)
    dee1:	7e af                	jle    de92 <main+0x14c>
    dee3:	c7 45 f0 00 00 00 00 	movl   $0x0,-0x10(%rbp)
    deea:	eb 4a                	jmp    df36 <main+0x1f0>
    deec:	8b 45 f0             	mov    -0x10(%rbp),%eax
    deef:	48 98                	cltq   
    def1:	48 8d 14 c5 00 00 00 	lea    0x0(,%rax,8),%rdx
    def8:	00 
    def9:	48 8d 05 40 81 00 00 	lea    0x8140(%rip),%rax        # 16040 <g_78>
    df00:	48 8b 04 02          	mov    (%rdx,%rax,1),%rax
    df04:	8b 55 fc             	mov    -0x4(%rbp),%edx
    df07:	48 8d 35 54 41 00 00 	lea    0x4154(%rip),%rsi        # 12062 <g_3193+0xf62>
    df0e:	48 89 c7             	mov    %rax,%rdi
    df11:	e8 dd 87 ff ff       	callq  66f3 <transparent_crc>
    df16:	83 7d fc 00          	cmpl   $0x0,-0x4(%rbp)
    df1a:	74 16                	je     df32 <main+0x1ec>
    df1c:	8b 45 f0             	mov    -0x10(%rbp),%eax
    df1f:	89 c6                	mov    %eax,%esi
    df21:	48 8d 3d 1f 41 00 00 	lea    0x411f(%rip),%rdi        # 12047 <g_3193+0xf47>
    df28:	b8 00 00 00 00       	mov    $0x0,%eax
    df2d:	e8 4e 71 ff ff       	callq  5080 <printf@plt>
    df32:	83 45 f0 01          	addl   $0x1,-0x10(%rbp)
    df36:	83 7d f0 07          	cmpl   $0x7,-0x10(%rbp)
    df3a:	7e b0                	jle    deec <main+0x1a6>
    df3c:	c7 45 f0 00 00 00 00 	movl   $0x0,-0x10(%rbp)
    df43:	eb 4b                	jmp    df90 <main+0x24a>
    df45:	8b 45 f0             	mov    -0x10(%rbp),%eax
    df48:	48 98                	cltq   
    df4a:	48 8d 14 85 00 00 00 	lea    0x0(,%rax,4),%rdx
    df51:	00 
    df52:	48 8d 05 27 81 00 00 	lea    0x8127(%rip),%rax        # 16080 <g_79>
    df59:	8b 04 02             	mov    (%rdx,%rax,1),%eax
    df5c:	48 98                	cltq   
    df5e:	8b 55 fc             	mov    -0x4(%rbp),%edx
    df61:	48 8d 35 02 41 00 00 	lea    0x4102(%rip),%rsi        # 1206a <g_3193+0xf6a>
    df68:	48 89 c7             	mov    %rax,%rdi
    df6b:	e8 83 87 ff ff       	callq  66f3 <transparent_crc>
    df70:	83 7d fc 00          	cmpl   $0x0,-0x4(%rbp)
    df74:	74 16                	je     df8c <main+0x246>
    df76:	8b 45 f0             	mov    -0x10(%rbp),%eax
    df79:	89 c6                	mov    %eax,%esi
    df7b:	48 8d 3d c5 40 00 00 	lea    0x40c5(%rip),%rdi        # 12047 <g_3193+0xf47>
    df82:	b8 00 00 00 00       	mov    $0x0,%eax
    df87:	e8 f4 70 ff ff       	callq  5080 <printf@plt>
    df8c:	83 45 f0 01          	addl   $0x1,-0x10(%rbp)
    df90:	83 7d f0 03          	cmpl   $0x3,-0x10(%rbp)
    df94:	7e af                	jle    df45 <main+0x1ff>
    df96:	c7 45 f0 00 00 00 00 	movl   $0x0,-0x10(%rbp)
    df9d:	eb 4f                	jmp    dfee <main+0x2a8>
    df9f:	8b 45 f0             	mov    -0x10(%rbp),%eax
    dfa2:	48 98                	cltq   
    dfa4:	48 8d 14 c5 00 00 00 	lea    0x0(,%rax,8),%rdx
    dfab:	00 
    dfac:	48 8d 05 ed 80 00 00 	lea    0x80ed(%rip),%rax        # 160a0 <g_82>
    dfb3:	48 8b 04 02          	mov    (%rdx,%rax,1),%rax
    dfb7:	48 89 c1             	mov    %rax,%rcx
    dfba:	8b 45 fc             	mov    -0x4(%rbp),%eax
    dfbd:	89 c2                	mov    %eax,%edx
    dfbf:	48 8d 35 ac 40 00 00 	lea    0x40ac(%rip),%rsi        # 12072 <g_3193+0xf72>
    dfc6:	48 89 cf             	mov    %rcx,%rdi
    dfc9:	e8 25 87 ff ff       	callq  66f3 <transparent_crc>
    dfce:	83 7d fc 00          	cmpl   $0x0,-0x4(%rbp)
    dfd2:	74 16                	je     dfea <main+0x2a4>
    dfd4:	8b 45 f0             	mov    -0x10(%rbp),%eax
    dfd7:	89 c6                	mov    %eax,%esi
    dfd9:	48 8d 3d 67 40 00 00 	lea    0x4067(%rip),%rdi        # 12047 <g_3193+0xf47>
    dfe0:	b8 00 00 00 00       	mov    $0x0,%eax
    dfe5:	e8 96 70 ff ff       	callq  5080 <printf@plt>
    dfea:	83 45 f0 01          	addl   $0x1,-0x10(%rbp)
    dfee:	83 7d f0 03          	cmpl   $0x3,-0x10(%rbp)
    dff2:	7e ab                	jle    df9f <main+0x259>
    dff4:	c7 45 f0 00 00 00 00 	movl   $0x0,-0x10(%rbp)
    dffb:	eb 4f                	jmp    e04c <main+0x306>
    dffd:	8b 45 f0             	mov    -0x10(%rbp),%eax
    e000:	48 98                	cltq   
    e002:	48 8d 14 c5 00 00 00 	lea    0x0(,%rax,8),%rdx
    e009:	00 
    e00a:	48 8d 05 6f 30 00 00 	lea    0x306f(%rip),%rax        # 11080 <g_84>
    e011:	48 8b 04 02          	mov    (%rdx,%rax,1),%rax
    e015:	48 89 c1             	mov    %rax,%rcx
    e018:	8b 45 fc             	mov    -0x4(%rbp),%eax
    e01b:	89 c2                	mov    %eax,%edx
    e01d:	48 8d 35 56 40 00 00 	lea    0x4056(%rip),%rsi        # 1207a <g_3193+0xf7a>
    e024:	48 89 cf             	mov    %rcx,%rdi
    e027:	e8 c7 86 ff ff       	callq  66f3 <transparent_crc>
    e02c:	83 7d fc 00          	cmpl   $0x0,-0x4(%rbp)
    e030:	74 16                	je     e048 <main+0x302>
    e032:	8b 45 f0             	mov    -0x10(%rbp),%eax
    e035:	89 c6                	mov    %eax,%esi
    e037:	48 8d 3d 09 40 00 00 	lea    0x4009(%rip),%rdi        # 12047 <g_3193+0xf47>
    e03e:	b8 00 00 00 00       	mov    $0x0,%eax
    e043:	e8 38 70 ff ff       	callq  5080 <printf@plt>
    e048:	83 45 f0 01          	addl   $0x1,-0x10(%rbp)
    e04c:	83 7d f0 06          	cmpl   $0x6,-0x10(%rbp)
    e050:	7e ab                	jle    dffd <main+0x2b7>
    e052:	c7 45 f0 00 00 00 00 	movl   $0x0,-0x10(%rbp)
    e059:	eb 4b                	jmp    e0a6 <main+0x360>
    e05b:	8b 45 f0             	mov    -0x10(%rbp),%eax
    e05e:	48 98                	cltq   
    e060:	48 8d 14 85 00 00 00 	lea    0x0(,%rax,4),%rdx
    e067:	00 
    e068:	48 8d 05 51 80 00 00 	lea    0x8051(%rip),%rax        # 160c0 <g_87>
    e06f:	8b 04 02             	mov    (%rdx,%rax,1),%eax
    e072:	48 98                	cltq   
    e074:	8b 55 fc             	mov    -0x4(%rbp),%edx
    e077:	48 8d 35 04 40 00 00 	lea    0x4004(%rip),%rsi        # 12082 <g_3193+0xf82>
    e07e:	48 89 c7             	mov    %rax,%rdi
    e081:	e8 6d 86 ff ff       	callq  66f3 <transparent_crc>
    e086:	83 7d fc 00          	cmpl   $0x0,-0x4(%rbp)
    e08a:	74 16                	je     e0a2 <main+0x35c>
    e08c:	8b 45 f0             	mov    -0x10(%rbp),%eax
    e08f:	89 c6                	mov    %eax,%esi
    e091:	48 8d 3d af 3f 00 00 	lea    0x3faf(%rip),%rdi        # 12047 <g_3193+0xf47>
    e098:	b8 00 00 00 00       	mov    $0x0,%eax
    e09d:	e8 de 6f ff ff       	callq  5080 <printf@plt>
    e0a2:	83 45 f0 01          	addl   $0x1,-0x10(%rbp)
    e0a6:	83 7d f0 01          	cmpl   $0x1,-0x10(%rbp)
    e0aa:	7e af                	jle    e05b <main+0x315>
    e0ac:	c7 45 f0 00 00 00 00 	movl   $0x0,-0x10(%rbp)
    e0b3:	eb 4f                	jmp    e104 <main+0x3be>
    e0b5:	8b 45 f0             	mov    -0x10(%rbp),%eax
    e0b8:	48 98                	cltq   
    e0ba:	48 8d 14 c5 00 00 00 	lea    0x0(,%rax,8),%rdx
    e0c1:	00 
    e0c2:	48 8d 05 17 80 00 00 	lea    0x8017(%rip),%rax        # 160e0 <g_96>
    e0c9:	48 8b 04 02          	mov    (%rdx,%rax,1),%rax
    e0cd:	48 89 c1             	mov    %rax,%rcx
    e0d0:	8b 45 fc             	mov    -0x4(%rbp),%eax
    e0d3:	89 c2                	mov    %eax,%edx
    e0d5:	48 8d 35 ae 3f 00 00 	lea    0x3fae(%rip),%rsi        # 1208a <g_3193+0xf8a>
    e0dc:	48 89 cf             	mov    %rcx,%rdi
    e0df:	e8 0f 86 ff ff       	callq  66f3 <transparent_crc>
    e0e4:	83 7d fc 00          	cmpl   $0x0,-0x4(%rbp)
    e0e8:	74 16                	je     e100 <main+0x3ba>
    e0ea:	8b 45 f0             	mov    -0x10(%rbp),%eax
    e0ed:	89 c6                	mov    %eax,%esi
    e0ef:	48 8d 3d 51 3f 00 00 	lea    0x3f51(%rip),%rdi        # 12047 <g_3193+0xf47>
    e0f6:	b8 00 00 00 00       	mov    $0x0,%eax
    e0fb:	e8 80 6f ff ff       	callq  5080 <printf@plt>
    e100:	83 45 f0 01          	addl   $0x1,-0x10(%rbp)
    e104:	83 7d f0 09          	cmpl   $0x9,-0x10(%rbp)
    e108:	7e ab                	jle    e0b5 <main+0x36f>
    e10a:	0f b7 05 1f 80 00 00 	movzwl 0x801f(%rip),%eax        # 16130 <g_125>
    e111:	48 0f bf c0          	movswq %ax,%rax
    e115:	8b 55 fc             	mov    -0x4(%rbp),%edx
    e118:	48 8d 35 73 3f 00 00 	lea    0x3f73(%rip),%rsi        # 12092 <g_3193+0xf92>
    e11f:	48 89 c7             	mov    %rax,%rdi
    e122:	e8 cc 85 ff ff       	callq  66f3 <transparent_crc>
    e127:	0f b6 05 04 80 00 00 	movzbl 0x8004(%rip),%eax        # 16132 <g_127>
    e12e:	0f b6 c0             	movzbl %al,%eax
    e131:	8b 55 fc             	mov    -0x4(%rbp),%edx
    e134:	48 8d 35 5d 3f 00 00 	lea    0x3f5d(%rip),%rsi        # 12098 <g_3193+0xf98>
    e13b:	48 89 c7             	mov    %rax,%rdi
    e13e:	e8 b0 85 ff ff       	callq  66f3 <transparent_crc>
    e143:	0f b6 05 e9 7f 00 00 	movzbl 0x7fe9(%rip),%eax        # 16133 <g_138>
    e14a:	48 0f be c0          	movsbq %al,%rax
    e14e:	8b 55 fc             	mov    -0x4(%rbp),%edx
    e151:	48 8d 35 46 3f 00 00 	lea    0x3f46(%rip),%rsi        # 1209e <g_3193+0xf9e>
    e158:	48 89 c7             	mov    %rax,%rdi
    e15b:	e8 93 85 ff ff       	callq  66f3 <transparent_crc>
    e160:	c7 45 f0 00 00 00 00 	movl   $0x0,-0x10(%rbp)
    e167:	e9 a0 00 00 00       	jmpq   e20c <main+0x4c6>
    e16c:	c7 45 f4 00 00 00 00 	movl   $0x0,-0xc(%rbp)
    e173:	e9 86 00 00 00       	jmpq   e1fe <main+0x4b8>
    e178:	c7 45 f8 00 00 00 00 	movl   $0x0,-0x8(%rbp)
    e17f:	eb 73                	jmp    e1f4 <main+0x4ae>
    e181:	8b 45 f8             	mov    -0x8(%rbp),%eax
    e184:	48 63 c8             	movslq %eax,%rcx
    e187:	8b 45 f0             	mov    -0x10(%rbp),%eax
    e18a:	48 63 d0             	movslq %eax,%rdx
    e18d:	8b 45 f4             	mov    -0xc(%rbp),%eax
    e190:	48 63 f0             	movslq %eax,%rsi
    e193:	48 89 d0             	mov    %rdx,%rax
    e196:	48 c1 e0 02          	shl    $0x2,%rax
    e19a:	48 01 d0             	add    %rdx,%rax
    e19d:	48 01 c0             	add    %rax,%rax
    e1a0:	48 01 f0             	add    %rsi,%rax
    e1a3:	48 01 c0             	add    %rax,%rax
    e1a6:	48 01 c8             	add    %rcx,%rax
    e1a9:	48 8d 14 c5 00 00 00 	lea    0x0(,%rax,8),%rdx
    e1b0:	00 
    e1b1:	48 8d 05 88 7f 00 00 	lea    0x7f88(%rip),%rax        # 16140 <g_156>
    e1b8:	48 8b 04 02          	mov    (%rdx,%rax,1),%rax
    e1bc:	8b 55 fc             	mov    -0x4(%rbp),%edx
    e1bf:	48 8d 35 de 3e 00 00 	lea    0x3ede(%rip),%rsi        # 120a4 <g_3193+0xfa4>
    e1c6:	48 89 c7             	mov    %rax,%rdi
    e1c9:	e8 25 85 ff ff       	callq  66f3 <transparent_crc>
    e1ce:	83 7d fc 00          	cmpl   $0x0,-0x4(%rbp)
    e1d2:	74 1c                	je     e1f0 <main+0x4aa>
    e1d4:	8b 4d f8             	mov    -0x8(%rbp),%ecx
    e1d7:	8b 55 f4             	mov    -0xc(%rbp),%edx
    e1da:	8b 45 f0             	mov    -0x10(%rbp),%eax
    e1dd:	89 c6                	mov    %eax,%esi
    e1df:	48 8d 3d cd 3e 00 00 	lea    0x3ecd(%rip),%rdi        # 120b3 <g_3193+0xfb3>
    e1e6:	b8 00 00 00 00       	mov    $0x0,%eax
    e1eb:	e8 90 6e ff ff       	callq  5080 <printf@plt>
    e1f0:	83 45 f8 01          	addl   $0x1,-0x8(%rbp)
    e1f4:	83 7d f8 01          	cmpl   $0x1,-0x8(%rbp)
    e1f8:	7e 87                	jle    e181 <main+0x43b>
    e1fa:	83 45 f4 01          	addl   $0x1,-0xc(%rbp)
    e1fe:	83 7d f4 09          	cmpl   $0x9,-0xc(%rbp)
    e202:	0f 8e 70 ff ff ff    	jle    e178 <main+0x432>
    e208:	83 45 f0 01          	addl   $0x1,-0x10(%rbp)
    e20c:	83 7d f0 03          	cmpl   $0x3,-0x10(%rbp)
    e210:	0f 8e 56 ff ff ff    	jle    e16c <main+0x426>
    e216:	0f b7 05 a3 81 00 00 	movzwl 0x81a3(%rip),%eax        # 163c0 <g_159>
    e21d:	0f b7 c0             	movzwl %ax,%eax
    e220:	8b 55 fc             	mov    -0x4(%rbp),%edx
    e223:	48 8d 35 9f 3e 00 00 	lea    0x3e9f(%rip),%rsi        # 120c9 <g_3193+0xfc9>
    e22a:	48 89 c7             	mov    %rax,%rdi
    e22d:	e8 c1 84 ff ff       	callq  66f3 <transparent_crc>
    e232:	48 8b 05 8f 81 00 00 	mov    0x818f(%rip),%rax        # 163c8 <g_221>
    e239:	48 89 c1             	mov    %rax,%rcx
    e23c:	8b 45 fc             	mov    -0x4(%rbp),%eax
    e23f:	89 c2                	mov    %eax,%edx
    e241:	48 8d 35 87 3e 00 00 	lea    0x3e87(%rip),%rsi        # 120cf <g_3193+0xfcf>
    e248:	48 89 cf             	mov    %rcx,%rdi
    e24b:	e8 a3 84 ff ff       	callq  66f3 <transparent_crc>
    e250:	c7 45 f0 00 00 00 00 	movl   $0x0,-0x10(%rbp)
    e257:	eb 4d                	jmp    e2a6 <main+0x560>
    e259:	8b 45 f0             	mov    -0x10(%rbp),%eax
    e25c:	48 98                	cltq   
    e25e:	48 8d 14 85 00 00 00 	lea    0x0(,%rax,4),%rdx
    e265:	00 
    e266:	48 8d 05 73 81 00 00 	lea    0x8173(%rip),%rax        # 163e0 <g_280>
    e26d:	8b 04 02             	mov    (%rdx,%rax,1),%eax
    e270:	89 c1                	mov    %eax,%ecx
    e272:	8b 45 fc             	mov    -0x4(%rbp),%eax
    e275:	89 c2                	mov    %eax,%edx
    e277:	48 8d 35 57 3e 00 00 	lea    0x3e57(%rip),%rsi        # 120d5 <g_3193+0xfd5>
    e27e:	48 89 cf             	mov    %rcx,%rdi
    e281:	e8 6d 84 ff ff       	callq  66f3 <transparent_crc>
    e286:	83 7d fc 00          	cmpl   $0x0,-0x4(%rbp)
    e28a:	74 16                	je     e2a2 <main+0x55c>
    e28c:	8b 45 f0             	mov    -0x10(%rbp),%eax
    e28f:	89 c6                	mov    %eax,%esi
    e291:	48 8d 3d af 3d 00 00 	lea    0x3daf(%rip),%rdi        # 12047 <g_3193+0xf47>
    e298:	b8 00 00 00 00       	mov    $0x0,%eax
    e29d:	e8 de 6d ff ff       	callq  5080 <printf@plt>
    e2a2:	83 45 f0 01          	addl   $0x1,-0x10(%rbp)
    e2a6:	83 7d f0 09          	cmpl   $0x9,-0x10(%rbp)
    e2aa:	7e ad                	jle    e259 <main+0x513>
    e2ac:	8b 05 56 81 00 00    	mov    0x8156(%rip),%eax        # 16408 <g_310>
    e2b2:	48 98                	cltq   
    e2b4:	8b 55 fc             	mov    -0x4(%rbp),%edx
    e2b7:	48 8d 35 20 3e 00 00 	lea    0x3e20(%rip),%rsi        # 120de <g_3193+0xfde>
    e2be:	48 89 c7             	mov    %rax,%rdi
    e2c1:	e8 2d 84 ff ff       	callq  66f3 <transparent_crc>
    e2c6:	8b 05 3c 81 00 00    	mov    0x813c(%rip),%eax        # 16408 <g_310>
    e2cc:	48 98                	cltq   
    e2ce:	8b 55 fc             	mov    -0x4(%rbp),%edx
    e2d1:	48 8d 35 0f 3e 00 00 	lea    0x3e0f(%rip),%rsi        # 120e7 <g_3193+0xfe7>
    e2d8:	48 89 c7             	mov    %rax,%rdi
    e2db:	e8 13 84 ff ff       	callq  66f3 <transparent_crc>
    e2e0:	8b 05 22 81 00 00    	mov    0x8122(%rip),%eax        # 16408 <g_310>
    e2e6:	48 98                	cltq   
    e2e8:	8b 55 fc             	mov    -0x4(%rbp),%edx
    e2eb:	48 8d 35 fe 3d 00 00 	lea    0x3dfe(%rip),%rsi        # 120f0 <g_3193+0xff0>
    e2f2:	48 89 c7             	mov    %rax,%rdi
    e2f5:	e8 f9 83 ff ff       	callq  66f3 <transparent_crc>
    e2fa:	48 8b 05 0f 81 00 00 	mov    0x810f(%rip),%rax        # 16410 <g_322>
    e301:	8b 55 fc             	mov    -0x4(%rbp),%edx
    e304:	48 8d 35 ee 3d 00 00 	lea    0x3dee(%rip),%rsi        # 120f9 <g_3193+0xff9>
    e30b:	48 89 c7             	mov    %rax,%rdi
    e30e:	e8 e0 83 ff ff       	callq  66f3 <transparent_crc>
    e313:	c7 45 f0 00 00 00 00 	movl   $0x0,-0x10(%rbp)
    e31a:	eb 45                	jmp    e361 <main+0x61b>
    e31c:	8b 45 f0             	mov    -0x10(%rbp),%eax
    e31f:	48 98                	cltq   
    e321:	48 8d 15 f0 80 00 00 	lea    0x80f0(%rip),%rdx        # 16418 <g_340>
    e328:	0f b6 04 10          	movzbl (%rax,%rdx,1),%eax
    e32c:	0f b6 c0             	movzbl %al,%eax
    e32f:	8b 55 fc             	mov    -0x4(%rbp),%edx
    e332:	48 8d 35 c6 3d 00 00 	lea    0x3dc6(%rip),%rsi        # 120ff <g_3193+0xfff>
    e339:	48 89 c7             	mov    %rax,%rdi
    e33c:	e8 b2 83 ff ff       	callq  66f3 <transparent_crc>
    e341:	83 7d fc 00          	cmpl   $0x0,-0x4(%rbp)
    e345:	74 16                	je     e35d <main+0x617>
    e347:	8b 45 f0             	mov    -0x10(%rbp),%eax
    e34a:	89 c6                	mov    %eax,%esi
    e34c:	48 8d 3d f4 3c 00 00 	lea    0x3cf4(%rip),%rdi        # 12047 <g_3193+0xf47>
    e353:	b8 00 00 00 00       	mov    $0x0,%eax
    e358:	e8 23 6d ff ff       	callq  5080 <printf@plt>
    e35d:	83 45 f0 01          	addl   $0x1,-0x10(%rbp)
    e361:	83 7d f0 02          	cmpl   $0x2,-0x10(%rbp)
    e365:	7e b5                	jle    e31c <main+0x5d6>
    e367:	0f b7 05 ae 80 00 00 	movzwl 0x80ae(%rip),%eax        # 1641c <g_455>
    e36e:	48 0f bf c0          	movswq %ax,%rax
    e372:	8b 55 fc             	mov    -0x4(%rbp),%edx
    e375:	48 8d 35 8c 3d 00 00 	lea    0x3d8c(%rip),%rsi        # 12108 <g_3193+0x1008>
    e37c:	48 89 c7             	mov    %rax,%rdi
    e37f:	e8 6f 83 ff ff       	callq  66f3 <transparent_crc>
    e384:	0f b7 05 93 80 00 00 	movzwl 0x8093(%rip),%eax        # 1641e <g_456>
    e38b:	0f b7 c0             	movzwl %ax,%eax
    e38e:	8b 55 fc             	mov    -0x4(%rbp),%edx
    e391:	48 8d 35 76 3d 00 00 	lea    0x3d76(%rip),%rsi        # 1210e <g_3193+0x100e>
    e398:	48 89 c7             	mov    %rax,%rdi
    e39b:	e8 53 83 ff ff       	callq  66f3 <transparent_crc>
    e3a0:	8b 05 7a 80 00 00    	mov    0x807a(%rip),%eax        # 16420 <g_464>
    e3a6:	48 98                	cltq   
    e3a8:	8b 55 fc             	mov    -0x4(%rbp),%edx
    e3ab:	48 8d 35 62 3d 00 00 	lea    0x3d62(%rip),%rsi        # 12114 <g_3193+0x1014>
    e3b2:	48 89 c7             	mov    %rax,%rdi
    e3b5:	e8 39 83 ff ff       	callq  66f3 <transparent_crc>
    e3ba:	48 8b 05 67 80 00 00 	mov    0x8067(%rip),%rax        # 16428 <g_498>
    e3c1:	48 89 c1             	mov    %rax,%rcx
    e3c4:	8b 45 fc             	mov    -0x4(%rbp),%eax
    e3c7:	89 c2                	mov    %eax,%edx
    e3c9:	48 8d 35 4a 3d 00 00 	lea    0x3d4a(%rip),%rsi        # 1211a <g_3193+0x101a>
    e3d0:	48 89 cf             	mov    %rcx,%rdi
    e3d3:	e8 1b 83 ff ff       	callq  66f3 <transparent_crc>
    e3d8:	c7 45 f0 00 00 00 00 	movl   $0x0,-0x10(%rbp)
    e3df:	eb 6e                	jmp    e44f <main+0x709>
    e3e1:	c7 45 f4 00 00 00 00 	movl   $0x0,-0xc(%rbp)
    e3e8:	eb 5b                	jmp    e445 <main+0x6ff>
    e3ea:	8b 45 f4             	mov    -0xc(%rbp),%eax
    e3ed:	48 98                	cltq   
    e3ef:	8b 55 f0             	mov    -0x10(%rbp),%edx
    e3f2:	48 63 d2             	movslq %edx,%rdx
    e3f5:	48 c1 e2 02          	shl    $0x2,%rdx
    e3f9:	48 01 d0             	add    %rdx,%rax
    e3fc:	48 8d 14 85 00 00 00 	lea    0x0(,%rax,4),%rdx
    e403:	00 
    e404:	48 8d 05 25 80 00 00 	lea    0x8025(%rip),%rax        # 16430 <g_547>
    e40b:	8b 04 02             	mov    (%rdx,%rax,1),%eax
    e40e:	48 98                	cltq   
    e410:	8b 55 fc             	mov    -0x4(%rbp),%edx
    e413:	48 8d 35 06 3d 00 00 	lea    0x3d06(%rip),%rsi        # 12120 <g_3193+0x1020>
    e41a:	48 89 c7             	mov    %rax,%rdi
    e41d:	e8 d1 82 ff ff       	callq  66f3 <transparent_crc>
    e422:	83 7d fc 00          	cmpl   $0x0,-0x4(%rbp)
    e426:	74 19                	je     e441 <main+0x6fb>
    e428:	8b 55 f4             	mov    -0xc(%rbp),%edx
    e42b:	8b 45 f0             	mov    -0x10(%rbp),%eax
    e42e:	89 c6                	mov    %eax,%esi
    e430:	48 8d 3d f5 3c 00 00 	lea    0x3cf5(%rip),%rdi        # 1212c <g_3193+0x102c>
    e437:	b8 00 00 00 00       	mov    $0x0,%eax
    e43c:	e8 3f 6c ff ff       	callq  5080 <printf@plt>
    e441:	83 45 f4 01          	addl   $0x1,-0xc(%rbp)
    e445:	83 7d f4 03          	cmpl   $0x3,-0xc(%rbp)
    e449:	7e 9f                	jle    e3ea <main+0x6a4>
    e44b:	83 45 f0 01          	addl   $0x1,-0x10(%rbp)
    e44f:	83 7d f0 00          	cmpl   $0x0,-0x10(%rbp)
    e453:	7e 8c                	jle    e3e1 <main+0x69b>
    e455:	8b 05 e5 7f 00 00    	mov    0x7fe5(%rip),%eax        # 16440 <g_607>
    e45b:	48 98                	cltq   
    e45d:	8b 55 fc             	mov    -0x4(%rbp),%edx
    e460:	48 8d 35 d7 3c 00 00 	lea    0x3cd7(%rip),%rsi        # 1213e <g_3193+0x103e>
    e467:	48 89 c7             	mov    %rax,%rdi
    e46a:	e8 84 82 ff ff       	callq  66f3 <transparent_crc>
    e46f:	8b 05 cb 7f 00 00    	mov    0x7fcb(%rip),%eax        # 16440 <g_607>
    e475:	48 98                	cltq   
    e477:	8b 55 fc             	mov    -0x4(%rbp),%edx
    e47a:	48 8d 35 c6 3c 00 00 	lea    0x3cc6(%rip),%rsi        # 12147 <g_3193+0x1047>
    e481:	48 89 c7             	mov    %rax,%rdi
    e484:	e8 6a 82 ff ff       	callq  66f3 <transparent_crc>
    e489:	8b 05 b1 7f 00 00    	mov    0x7fb1(%rip),%eax        # 16440 <g_607>
    e48f:	48 98                	cltq   
    e491:	8b 55 fc             	mov    -0x4(%rbp),%edx
    e494:	48 8d 35 b5 3c 00 00 	lea    0x3cb5(%rip),%rsi        # 12150 <g_3193+0x1050>
    e49b:	48 89 c7             	mov    %rax,%rdi
    e49e:	e8 50 82 ff ff       	callq  66f3 <transparent_crc>
    e4a3:	0f b7 05 9a 7f 00 00 	movzwl 0x7f9a(%rip),%eax        # 16444 <g_675>
    e4aa:	48 0f bf c0          	movswq %ax,%rax
    e4ae:	8b 55 fc             	mov    -0x4(%rbp),%edx
    e4b1:	48 8d 35 a1 3c 00 00 	lea    0x3ca1(%rip),%rsi        # 12159 <g_3193+0x1059>
    e4b8:	48 89 c7             	mov    %rax,%rdi
    e4bb:	e8 33 82 ff ff       	callq  66f3 <transparent_crc>
    e4c0:	8b 05 7e 7f 00 00    	mov    0x7f7e(%rip),%eax        # 16444 <g_675>
    e4c6:	89 c1                	mov    %eax,%ecx
    e4c8:	8b 45 fc             	mov    -0x4(%rbp),%eax
    e4cb:	89 c2                	mov    %eax,%edx
    e4cd:	48 8d 35 8e 3c 00 00 	lea    0x3c8e(%rip),%rsi        # 12162 <g_3193+0x1062>
    e4d4:	48 89 cf             	mov    %rcx,%rdi
    e4d7:	e8 17 82 ff ff       	callq  66f3 <transparent_crc>
    e4dc:	8b 05 62 7f 00 00    	mov    0x7f62(%rip),%eax        # 16444 <g_675>
    e4e2:	89 c1                	mov    %eax,%ecx
    e4e4:	8b 45 fc             	mov    -0x4(%rbp),%eax
    e4e7:	89 c2                	mov    %eax,%edx
    e4e9:	48 8d 35 7b 3c 00 00 	lea    0x3c7b(%rip),%rsi        # 1216b <g_3193+0x106b>
    e4f0:	48 89 cf             	mov    %rcx,%rdi
    e4f3:	e8 fb 81 ff ff       	callq  66f3 <transparent_crc>
    e4f8:	0f b7 05 49 7f 00 00 	movzwl 0x7f49(%rip),%eax        # 16448 <g_678>
    e4ff:	48 0f bf c0          	movswq %ax,%rax
    e503:	8b 55 fc             	mov    -0x4(%rbp),%edx
    e506:	48 8d 35 67 3c 00 00 	lea    0x3c67(%rip),%rsi        # 12174 <g_3193+0x1074>
    e50d:	48 89 c7             	mov    %rax,%rdi
    e510:	e8 de 81 ff ff       	callq  66f3 <transparent_crc>
    e515:	0f b7 05 30 7f 00 00 	movzwl 0x7f30(%rip),%eax        # 1644c <g_680>
    e51c:	48 0f bf c0          	movswq %ax,%rax
    e520:	8b 55 fc             	mov    -0x4(%rbp),%edx
    e523:	48 8d 35 53 3c 00 00 	lea    0x3c53(%rip),%rsi        # 1217d <g_3193+0x107d>
    e52a:	48 89 c7             	mov    %rax,%rdi
    e52d:	e8 c1 81 ff ff       	callq  66f3 <transparent_crc>
    e532:	c7 45 f0 00 00 00 00 	movl   $0x0,-0x10(%rbp)
    e539:	e9 a1 00 00 00       	jmpq   e5df <main+0x899>
    e53e:	8b 45 f0             	mov    -0x10(%rbp),%eax
    e541:	48 98                	cltq   
    e543:	48 8d 14 85 00 00 00 	lea    0x0(,%rax,4),%rdx
    e54a:	00 
    e54b:	48 8d 05 fe 7e 00 00 	lea    0x7efe(%rip),%rax        # 16450 <g_706>
    e552:	8b 04 02             	mov    (%rdx,%rax,1),%eax
    e555:	48 98                	cltq   
    e557:	8b 55 fc             	mov    -0x4(%rbp),%edx
    e55a:	48 8d 35 25 3c 00 00 	lea    0x3c25(%rip),%rsi        # 12186 <g_3193+0x1086>
    e561:	48 89 c7             	mov    %rax,%rdi
    e564:	e8 8a 81 ff ff       	callq  66f3 <transparent_crc>
    e569:	8b 45 f0             	mov    -0x10(%rbp),%eax
    e56c:	48 98                	cltq   
    e56e:	48 8d 14 85 00 00 00 	lea    0x0(,%rax,4),%rdx
    e575:	00 
    e576:	48 8d 05 d3 7e 00 00 	lea    0x7ed3(%rip),%rax        # 16450 <g_706>
    e57d:	8b 04 02             	mov    (%rdx,%rax,1),%eax
    e580:	48 98                	cltq   
    e582:	8b 55 fc             	mov    -0x4(%rbp),%edx
    e585:	48 8d 35 06 3c 00 00 	lea    0x3c06(%rip),%rsi        # 12192 <g_3193+0x1092>
    e58c:	48 89 c7             	mov    %rax,%rdi
    e58f:	e8 5f 81 ff ff       	callq  66f3 <transparent_crc>
    e594:	8b 45 f0             	mov    -0x10(%rbp),%eax
    e597:	48 98                	cltq   
    e599:	48 8d 14 85 00 00 00 	lea    0x0(,%rax,4),%rdx
    e5a0:	00 
    e5a1:	48 8d 05 a8 7e 00 00 	lea    0x7ea8(%rip),%rax        # 16450 <g_706>
    e5a8:	8b 04 02             	mov    (%rdx,%rax,1),%eax
    e5ab:	48 98                	cltq   
    e5ad:	8b 55 fc             	mov    -0x4(%rbp),%edx
    e5b0:	48 8d 35 e7 3b 00 00 	lea    0x3be7(%rip),%rsi        # 1219e <g_3193+0x109e>
    e5b7:	48 89 c7             	mov    %rax,%rdi
    e5ba:	e8 34 81 ff ff       	callq  66f3 <transparent_crc>
    e5bf:	83 7d fc 00          	cmpl   $0x0,-0x4(%rbp)
    e5c3:	74 16                	je     e5db <main+0x895>
    e5c5:	8b 45 f0             	mov    -0x10(%rbp),%eax
    e5c8:	89 c6                	mov    %eax,%esi
    e5ca:	48 8d 3d 76 3a 00 00 	lea    0x3a76(%rip),%rdi        # 12047 <g_3193+0xf47>
    e5d1:	b8 00 00 00 00       	mov    $0x0,%eax
    e5d6:	e8 a5 6a ff ff       	callq  5080 <printf@plt>
    e5db:	83 45 f0 01          	addl   $0x1,-0x10(%rbp)
    e5df:	83 7d f0 06          	cmpl   $0x6,-0x10(%rbp)
    e5e3:	0f 8e 55 ff ff ff    	jle    e53e <main+0x7f8>
    e5e9:	8b 05 7d 7e 00 00    	mov    0x7e7d(%rip),%eax        # 1646c <g_707>
    e5ef:	48 98                	cltq   
    e5f1:	8b 55 fc             	mov    -0x4(%rbp),%edx
    e5f4:	48 8d 35 af 3b 00 00 	lea    0x3baf(%rip),%rsi        # 121aa <g_3193+0x10aa>
    e5fb:	48 89 c7             	mov    %rax,%rdi
    e5fe:	e8 f0 80 ff ff       	callq  66f3 <transparent_crc>
    e603:	8b 05 63 7e 00 00    	mov    0x7e63(%rip),%eax        # 1646c <g_707>
    e609:	48 98                	cltq   
    e60b:	8b 55 fc             	mov    -0x4(%rbp),%edx
    e60e:	48 8d 35 9e 3b 00 00 	lea    0x3b9e(%rip),%rsi        # 121b3 <g_3193+0x10b3>
    e615:	48 89 c7             	mov    %rax,%rdi
    e618:	e8 d6 80 ff ff       	callq  66f3 <transparent_crc>
    e61d:	8b 05 49 7e 00 00    	mov    0x7e49(%rip),%eax        # 1646c <g_707>
    e623:	48 98                	cltq   
    e625:	8b 55 fc             	mov    -0x4(%rbp),%edx
    e628:	48 8d 35 8d 3b 00 00 	lea    0x3b8d(%rip),%rsi        # 121bc <g_3193+0x10bc>
    e62f:	48 89 c7             	mov    %rax,%rdi
    e632:	e8 bc 80 ff ff       	callq  66f3 <transparent_crc>
    e637:	c7 45 f0 00 00 00 00 	movl   $0x0,-0x10(%rbp)
    e63e:	e9 68 01 00 00       	jmpq   e7ab <main+0xa65>
    e643:	c7 45 f4 00 00 00 00 	movl   $0x0,-0xc(%rbp)
    e64a:	e9 4e 01 00 00       	jmpq   e79d <main+0xa57>
    e64f:	c7 45 f8 00 00 00 00 	movl   $0x0,-0x8(%rbp)
    e656:	e9 34 01 00 00       	jmpq   e78f <main+0xa49>
    e65b:	8b 45 f8             	mov    -0x8(%rbp),%eax
    e65e:	48 63 f0             	movslq %eax,%rsi
    e661:	8b 45 f0             	mov    -0x10(%rbp),%eax
    e664:	48 98                	cltq   
    e666:	8b 55 f4             	mov    -0xc(%rbp),%edx
    e669:	48 63 ca             	movslq %edx,%rcx
    e66c:	48 89 c2             	mov    %rax,%rdx
    e66f:	48 c1 e2 03          	shl    $0x3,%rdx
    e673:	48 01 c2             	add    %rax,%rdx
    e676:	48 8d 04 12          	lea    (%rdx,%rdx,1),%rax
    e67a:	48 89 c2             	mov    %rax,%rdx
    e67d:	48 89 c8             	mov    %rcx,%rax
    e680:	48 01 c0             	add    %rax,%rax
    e683:	48 01 c8             	add    %rcx,%rax
    e686:	48 01 c0             	add    %rax,%rax
    e689:	48 01 d0             	add    %rdx,%rax
    e68c:	48 01 f0             	add    %rsi,%rax
    e68f:	48 8d 14 85 00 00 00 	lea    0x0(,%rax,4),%rdx
    e696:	00 
    e697:	48 8d 05 e2 7d 00 00 	lea    0x7de2(%rip),%rax        # 16480 <g_708>
    e69e:	8b 04 02             	mov    (%rdx,%rax,1),%eax
    e6a1:	48 98                	cltq   
    e6a3:	8b 55 fc             	mov    -0x4(%rbp),%edx
    e6a6:	48 8d 35 18 3b 00 00 	lea    0x3b18(%rip),%rsi        # 121c5 <g_3193+0x10c5>
    e6ad:	48 89 c7             	mov    %rax,%rdi
    e6b0:	e8 3e 80 ff ff       	callq  66f3 <transparent_crc>
    e6b5:	8b 45 f8             	mov    -0x8(%rbp),%eax
    e6b8:	48 63 f0             	movslq %eax,%rsi
    e6bb:	8b 45 f0             	mov    -0x10(%rbp),%eax
    e6be:	48 98                	cltq   
    e6c0:	8b 55 f4             	mov    -0xc(%rbp),%edx
    e6c3:	48 63 ca             	movslq %edx,%rcx
    e6c6:	48 89 c2             	mov    %rax,%rdx
    e6c9:	48 c1 e2 03          	shl    $0x3,%rdx
    e6cd:	48 01 c2             	add    %rax,%rdx
    e6d0:	48 8d 04 12          	lea    (%rdx,%rdx,1),%rax
    e6d4:	48 89 c2             	mov    %rax,%rdx
    e6d7:	48 89 c8             	mov    %rcx,%rax
    e6da:	48 01 c0             	add    %rax,%rax
    e6dd:	48 01 c8             	add    %rcx,%rax
    e6e0:	48 01 c0             	add    %rax,%rax
    e6e3:	48 01 d0             	add    %rdx,%rax
    e6e6:	48 01 f0             	add    %rsi,%rax
    e6e9:	48 8d 14 85 00 00 00 	lea    0x0(,%rax,4),%rdx
    e6f0:	00 
    e6f1:	48 8d 05 88 7d 00 00 	lea    0x7d88(%rip),%rax        # 16480 <g_708>
    e6f8:	8b 04 02             	mov    (%rdx,%rax,1),%eax
    e6fb:	48 98                	cltq   
    e6fd:	8b 55 fc             	mov    -0x4(%rbp),%edx
    e700:	48 8d 35 d0 3a 00 00 	lea    0x3ad0(%rip),%rsi        # 121d7 <g_3193+0x10d7>
    e707:	48 89 c7             	mov    %rax,%rdi
    e70a:	e8 e4 7f ff ff       	callq  66f3 <transparent_crc>
    e70f:	8b 45 f8             	mov    -0x8(%rbp),%eax
    e712:	48 63 f0             	movslq %eax,%rsi
    e715:	8b 45 f0             	mov    -0x10(%rbp),%eax
    e718:	48 98                	cltq   
    e71a:	8b 55 f4             	mov    -0xc(%rbp),%edx
    e71d:	48 63 ca             	movslq %edx,%rcx
    e720:	48 89 c2             	mov    %rax,%rdx
    e723:	48 c1 e2 03          	shl    $0x3,%rdx
    e727:	48 01 c2             	add    %rax,%rdx
    e72a:	48 8d 04 12          	lea    (%rdx,%rdx,1),%rax
    e72e:	48 89 c2             	mov    %rax,%rdx
    e731:	48 89 c8             	mov    %rcx,%rax
    e734:	48 01 c0             	add    %rax,%rax
    e737:	48 01 c8             	add    %rcx,%rax
    e73a:	48 01 c0             	add    %rax,%rax
    e73d:	48 01 d0             	add    %rdx,%rax
    e740:	48 01 f0             	add    %rsi,%rax
    e743:	48 8d 14 85 00 00 00 	lea    0x0(,%rax,4),%rdx
    e74a:	00 
    e74b:	48 8d 05 2e 7d 00 00 	lea    0x7d2e(%rip),%rax        # 16480 <g_708>
    e752:	8b 04 02             	mov    (%rdx,%rax,1),%eax
    e755:	48 98                	cltq   
    e757:	8b 55 fc             	mov    -0x4(%rbp),%edx
    e75a:	48 8d 35 88 3a 00 00 	lea    0x3a88(%rip),%rsi        # 121e9 <g_3193+0x10e9>
    e761:	48 89 c7             	mov    %rax,%rdi
    e764:	e8 8a 7f ff ff       	callq  66f3 <transparent_crc>
    e769:	83 7d fc 00          	cmpl   $0x0,-0x4(%rbp)
    e76d:	74 1c                	je     e78b <main+0xa45>
    e76f:	8b 4d f8             	mov    -0x8(%rbp),%ecx
    e772:	8b 55 f4             	mov    -0xc(%rbp),%edx
    e775:	8b 45 f0             	mov    -0x10(%rbp),%eax
    e778:	89 c6                	mov    %eax,%esi
    e77a:	48 8d 3d 32 39 00 00 	lea    0x3932(%rip),%rdi        # 120b3 <g_3193+0xfb3>
    e781:	b8 00 00 00 00       	mov    $0x0,%eax
    e786:	e8 f5 68 ff ff       	callq  5080 <printf@plt>
    e78b:	83 45 f8 01          	addl   $0x1,-0x8(%rbp)
    e78f:	83 7d f8 05          	cmpl   $0x5,-0x8(%rbp)
    e793:	0f 8e c2 fe ff ff    	jle    e65b <main+0x915>
    e799:	83 45 f4 01          	addl   $0x1,-0xc(%rbp)
    e79d:	83 7d f4 02          	cmpl   $0x2,-0xc(%rbp)
    e7a1:	0f 8e a8 fe ff ff    	jle    e64f <main+0x909>
    e7a7:	83 45 f0 01          	addl   $0x1,-0x10(%rbp)
    e7ab:	83 7d f0 00          	cmpl   $0x0,-0x10(%rbp)
    e7af:	0f 8e 8e fe ff ff    	jle    e643 <main+0x8fd>
    e7b5:	8b 05 0d 7d 00 00    	mov    0x7d0d(%rip),%eax        # 164c8 <g_709>
    e7bb:	48 98                	cltq   
    e7bd:	8b 55 fc             	mov    -0x4(%rbp),%edx
    e7c0:	48 8d 35 34 3a 00 00 	lea    0x3a34(%rip),%rsi        # 121fb <g_3193+0x10fb>
    e7c7:	48 89 c7             	mov    %rax,%rdi
    e7ca:	e8 24 7f ff ff       	callq  66f3 <transparent_crc>
    e7cf:	8b 05 f3 7c 00 00    	mov    0x7cf3(%rip),%eax        # 164c8 <g_709>
    e7d5:	48 98                	cltq   
    e7d7:	8b 55 fc             	mov    -0x4(%rbp),%edx
    e7da:	48 8d 35 23 3a 00 00 	lea    0x3a23(%rip),%rsi        # 12204 <g_3193+0x1104>
    e7e1:	48 89 c7             	mov    %rax,%rdi
    e7e4:	e8 0a 7f ff ff       	callq  66f3 <transparent_crc>
    e7e9:	8b 05 d9 7c 00 00    	mov    0x7cd9(%rip),%eax        # 164c8 <g_709>
    e7ef:	48 98                	cltq   
    e7f1:	8b 55 fc             	mov    -0x4(%rbp),%edx
    e7f4:	48 8d 35 12 3a 00 00 	lea    0x3a12(%rip),%rsi        # 1220d <g_3193+0x110d>
    e7fb:	48 89 c7             	mov    %rax,%rdi
    e7fe:	e8 f0 7e ff ff       	callq  66f3 <transparent_crc>
    e803:	8b 05 c3 7c 00 00    	mov    0x7cc3(%rip),%eax        # 164cc <g_710>
    e809:	48 98                	cltq   
    e80b:	8b 55 fc             	mov    -0x4(%rbp),%edx
    e80e:	48 8d 35 01 3a 00 00 	lea    0x3a01(%rip),%rsi        # 12216 <g_3193+0x1116>
    e815:	48 89 c7             	mov    %rax,%rdi
    e818:	e8 d6 7e ff ff       	callq  66f3 <transparent_crc>
    e81d:	8b 05 a9 7c 00 00    	mov    0x7ca9(%rip),%eax        # 164cc <g_710>
    e823:	48 98                	cltq   
    e825:	8b 55 fc             	mov    -0x4(%rbp),%edx
    e828:	48 8d 35 f0 39 00 00 	lea    0x39f0(%rip),%rsi        # 1221f <g_3193+0x111f>
    e82f:	48 89 c7             	mov    %rax,%rdi
    e832:	e8 bc 7e ff ff       	callq  66f3 <transparent_crc>
    e837:	8b 05 8f 7c 00 00    	mov    0x7c8f(%rip),%eax        # 164cc <g_710>
    e83d:	48 98                	cltq   
    e83f:	8b 55 fc             	mov    -0x4(%rbp),%edx
    e842:	48 8d 35 df 39 00 00 	lea    0x39df(%rip),%rsi        # 12228 <g_3193+0x1128>
    e849:	48 89 c7             	mov    %rax,%rdi
    e84c:	e8 a2 7e ff ff       	callq  66f3 <transparent_crc>
    e851:	8b 05 79 7c 00 00    	mov    0x7c79(%rip),%eax        # 164d0 <g_711>
    e857:	48 98                	cltq   
    e859:	8b 55 fc             	mov    -0x4(%rbp),%edx
    e85c:	48 8d 35 ce 39 00 00 	lea    0x39ce(%rip),%rsi        # 12231 <g_3193+0x1131>
    e863:	48 89 c7             	mov    %rax,%rdi
    e866:	e8 88 7e ff ff       	callq  66f3 <transparent_crc>
    e86b:	8b 05 5f 7c 00 00    	mov    0x7c5f(%rip),%eax        # 164d0 <g_711>
    e871:	48 98                	cltq   
    e873:	8b 55 fc             	mov    -0x4(%rbp),%edx
    e876:	48 8d 35 bd 39 00 00 	lea    0x39bd(%rip),%rsi        # 1223a <g_3193+0x113a>
    e87d:	48 89 c7             	mov    %rax,%rdi
    e880:	e8 6e 7e ff ff       	callq  66f3 <transparent_crc>
    e885:	8b 05 45 7c 00 00    	mov    0x7c45(%rip),%eax        # 164d0 <g_711>
    e88b:	48 98                	cltq   
    e88d:	8b 55 fc             	mov    -0x4(%rbp),%edx
    e890:	48 8d 35 ac 39 00 00 	lea    0x39ac(%rip),%rsi        # 12243 <g_3193+0x1143>
    e897:	48 89 c7             	mov    %rax,%rdi
    e89a:	e8 54 7e ff ff       	callq  66f3 <transparent_crc>
    e89f:	8b 05 2f 7c 00 00    	mov    0x7c2f(%rip),%eax        # 164d4 <g_712>
    e8a5:	48 98                	cltq   
    e8a7:	8b 55 fc             	mov    -0x4(%rbp),%edx
    e8aa:	48 8d 35 9b 39 00 00 	lea    0x399b(%rip),%rsi        # 1224c <g_3193+0x114c>
    e8b1:	48 89 c7             	mov    %rax,%rdi
    e8b4:	e8 3a 7e ff ff       	callq  66f3 <transparent_crc>
    e8b9:	8b 05 15 7c 00 00    	mov    0x7c15(%rip),%eax        # 164d4 <g_712>
    e8bf:	48 98                	cltq   
    e8c1:	8b 55 fc             	mov    -0x4(%rbp),%edx
    e8c4:	48 8d 35 8a 39 00 00 	lea    0x398a(%rip),%rsi        # 12255 <g_3193+0x1155>
    e8cb:	48 89 c7             	mov    %rax,%rdi
    e8ce:	e8 20 7e ff ff       	callq  66f3 <transparent_crc>
    e8d3:	8b 05 fb 7b 00 00    	mov    0x7bfb(%rip),%eax        # 164d4 <g_712>
    e8d9:	48 98                	cltq   
    e8db:	8b 55 fc             	mov    -0x4(%rbp),%edx
    e8de:	48 8d 35 79 39 00 00 	lea    0x3979(%rip),%rsi        # 1225e <g_3193+0x115e>
    e8e5:	48 89 c7             	mov    %rax,%rdi
    e8e8:	e8 06 7e ff ff       	callq  66f3 <transparent_crc>
    e8ed:	8b 05 45 a2 00 00    	mov    0xa245(%rip),%eax        # 18b38 <g_713>
    e8f3:	48 98                	cltq   
    e8f5:	8b 55 fc             	mov    -0x4(%rbp),%edx
    e8f8:	48 8d 35 68 39 00 00 	lea    0x3968(%rip),%rsi        # 12267 <g_3193+0x1167>
    e8ff:	48 89 c7             	mov    %rax,%rdi
    e902:	e8 ec 7d ff ff       	callq  66f3 <transparent_crc>
    e907:	8b 05 2b a2 00 00    	mov    0xa22b(%rip),%eax        # 18b38 <g_713>
    e90d:	48 98                	cltq   
    e90f:	8b 55 fc             	mov    -0x4(%rbp),%edx
    e912:	48 8d 35 57 39 00 00 	lea    0x3957(%rip),%rsi        # 12270 <g_3193+0x1170>
    e919:	48 89 c7             	mov    %rax,%rdi
    e91c:	e8 d2 7d ff ff       	callq  66f3 <transparent_crc>
    e921:	8b 05 11 a2 00 00    	mov    0xa211(%rip),%eax        # 18b38 <g_713>
    e927:	48 98                	cltq   
    e929:	8b 55 fc             	mov    -0x4(%rbp),%edx
    e92c:	48 8d 35 46 39 00 00 	lea    0x3946(%rip),%rsi        # 12279 <g_3193+0x1179>
    e933:	48 89 c7             	mov    %rax,%rdi
    e936:	e8 b8 7d ff ff       	callq  66f3 <transparent_crc>
    e93b:	8b 05 97 7b 00 00    	mov    0x7b97(%rip),%eax        # 164d8 <g_714>
    e941:	48 98                	cltq   
    e943:	8b 55 fc             	mov    -0x4(%rbp),%edx
    e946:	48 8d 35 35 39 00 00 	lea    0x3935(%rip),%rsi        # 12282 <g_3193+0x1182>
    e94d:	48 89 c7             	mov    %rax,%rdi
    e950:	e8 9e 7d ff ff       	callq  66f3 <transparent_crc>
    e955:	8b 05 7d 7b 00 00    	mov    0x7b7d(%rip),%eax        # 164d8 <g_714>
    e95b:	48 98                	cltq   
    e95d:	8b 55 fc             	mov    -0x4(%rbp),%edx
    e960:	48 8d 35 24 39 00 00 	lea    0x3924(%rip),%rsi        # 1228b <g_3193+0x118b>
    e967:	48 89 c7             	mov    %rax,%rdi
    e96a:	e8 84 7d ff ff       	callq  66f3 <transparent_crc>
    e96f:	8b 05 63 7b 00 00    	mov    0x7b63(%rip),%eax        # 164d8 <g_714>
    e975:	48 98                	cltq   
    e977:	8b 55 fc             	mov    -0x4(%rbp),%edx
    e97a:	48 8d 35 13 39 00 00 	lea    0x3913(%rip),%rsi        # 12294 <g_3193+0x1194>
    e981:	48 89 c7             	mov    %rax,%rdi
    e984:	e8 6a 7d ff ff       	callq  66f3 <transparent_crc>
    e989:	8b 05 4d 7b 00 00    	mov    0x7b4d(%rip),%eax        # 164dc <g_715>
    e98f:	48 98                	cltq   
    e991:	8b 55 fc             	mov    -0x4(%rbp),%edx
    e994:	48 8d 35 02 39 00 00 	lea    0x3902(%rip),%rsi        # 1229d <g_3193+0x119d>
    e99b:	48 89 c7             	mov    %rax,%rdi
    e99e:	e8 50 7d ff ff       	callq  66f3 <transparent_crc>
    e9a3:	8b 05 33 7b 00 00    	mov    0x7b33(%rip),%eax        # 164dc <g_715>
    e9a9:	48 98                	cltq   
    e9ab:	8b 55 fc             	mov    -0x4(%rbp),%edx
    e9ae:	48 8d 35 f1 38 00 00 	lea    0x38f1(%rip),%rsi        # 122a6 <g_3193+0x11a6>
    e9b5:	48 89 c7             	mov    %rax,%rdi
    e9b8:	e8 36 7d ff ff       	callq  66f3 <transparent_crc>
    e9bd:	8b 05 19 7b 00 00    	mov    0x7b19(%rip),%eax        # 164dc <g_715>
    e9c3:	48 98                	cltq   
    e9c5:	8b 55 fc             	mov    -0x4(%rbp),%edx
    e9c8:	48 8d 35 e0 38 00 00 	lea    0x38e0(%rip),%rsi        # 122af <g_3193+0x11af>
    e9cf:	48 89 c7             	mov    %rax,%rdi
    e9d2:	e8 1c 7d ff ff       	callq  66f3 <transparent_crc>
    e9d7:	c7 45 f0 00 00 00 00 	movl   $0x0,-0x10(%rbp)
    e9de:	e9 03 01 00 00       	jmpq   eae6 <main+0xda0>
    e9e3:	c7 45 f4 00 00 00 00 	movl   $0x0,-0xc(%rbp)
    e9ea:	e9 e9 00 00 00       	jmpq   ead8 <main+0xd92>
    e9ef:	8b 45 f4             	mov    -0xc(%rbp),%eax
    e9f2:	48 63 c8             	movslq %eax,%rcx
    e9f5:	8b 45 f0             	mov    -0x10(%rbp),%eax
    e9f8:	48 63 d0             	movslq %eax,%rdx
    e9fb:	48 89 d0             	mov    %rdx,%rax
    e9fe:	48 c1 e0 02          	shl    $0x2,%rax
    ea02:	48 01 d0             	add    %rdx,%rax
    ea05:	48 01 c0             	add    %rax,%rax
    ea08:	48 01 c8             	add    %rcx,%rax
    ea0b:	48 8d 14 85 00 00 00 	lea    0x0(,%rax,4),%rdx
    ea12:	00 
    ea13:	48 8d 05 c6 7a 00 00 	lea    0x7ac6(%rip),%rax        # 164e0 <g_716>
    ea1a:	8b 04 02             	mov    (%rdx,%rax,1),%eax
    ea1d:	48 98                	cltq   
    ea1f:	8b 55 fc             	mov    -0x4(%rbp),%edx
    ea22:	48 8d 35 8f 38 00 00 	lea    0x388f(%rip),%rsi        # 122b8 <g_3193+0x11b8>
    ea29:	48 89 c7             	mov    %rax,%rdi
    ea2c:	e8 c2 7c ff ff       	callq  66f3 <transparent_crc>
    ea31:	8b 45 f4             	mov    -0xc(%rbp),%eax
    ea34:	48 63 c8             	movslq %eax,%rcx
    ea37:	8b 45 f0             	mov    -0x10(%rbp),%eax
    ea3a:	48 63 d0             	movslq %eax,%rdx
    ea3d:	48 89 d0             	mov    %rdx,%rax
    ea40:	48 c1 e0 02          	shl    $0x2,%rax
    ea44:	48 01 d0             	add    %rdx,%rax
    ea47:	48 01 c0             	add    %rax,%rax
    ea4a:	48 01 c8             	add    %rcx,%rax
    ea4d:	48 8d 14 85 00 00 00 	lea    0x0(,%rax,4),%rdx
    ea54:	00 
    ea55:	48 8d 05 84 7a 00 00 	lea    0x7a84(%rip),%rax        # 164e0 <g_716>
    ea5c:	8b 04 02             	mov    (%rdx,%rax,1),%eax
    ea5f:	48 98                	cltq   
    ea61:	8b 55 fc             	mov    -0x4(%rbp),%edx
    ea64:	48 8d 35 5c 38 00 00 	lea    0x385c(%rip),%rsi        # 122c7 <g_3193+0x11c7>
    ea6b:	48 89 c7             	mov    %rax,%rdi
    ea6e:	e8 80 7c ff ff       	callq  66f3 <transparent_crc>
    ea73:	8b 45 f4             	mov    -0xc(%rbp),%eax
    ea76:	48 63 c8             	movslq %eax,%rcx
    ea79:	8b 45 f0             	mov    -0x10(%rbp),%eax
    ea7c:	48 63 d0             	movslq %eax,%rdx
    ea7f:	48 89 d0             	mov    %rdx,%rax
    ea82:	48 c1 e0 02          	shl    $0x2,%rax
    ea86:	48 01 d0             	add    %rdx,%rax
    ea89:	48 01 c0             	add    %rax,%rax
    ea8c:	48 01 c8             	add    %rcx,%rax
    ea8f:	48 8d 14 85 00 00 00 	lea    0x0(,%rax,4),%rdx
    ea96:	00 
    ea97:	48 8d 05 42 7a 00 00 	lea    0x7a42(%rip),%rax        # 164e0 <g_716>
    ea9e:	8b 04 02             	mov    (%rdx,%rax,1),%eax
    eaa1:	48 98                	cltq   
    eaa3:	8b 55 fc             	mov    -0x4(%rbp),%edx
    eaa6:	48 8d 35 29 38 00 00 	lea    0x3829(%rip),%rsi        # 122d6 <g_3193+0x11d6>
    eaad:	48 89 c7             	mov    %rax,%rdi
    eab0:	e8 3e 7c ff ff       	callq  66f3 <transparent_crc>
    eab5:	83 7d fc 00          	cmpl   $0x0,-0x4(%rbp)
    eab9:	74 19                	je     ead4 <main+0xd8e>
    eabb:	8b 55 f4             	mov    -0xc(%rbp),%edx
    eabe:	8b 45 f0             	mov    -0x10(%rbp),%eax
    eac1:	89 c6                	mov    %eax,%esi
    eac3:	48 8d 3d 62 36 00 00 	lea    0x3662(%rip),%rdi        # 1212c <g_3193+0x102c>
    eaca:	b8 00 00 00 00       	mov    $0x0,%eax
    eacf:	e8 ac 65 ff ff       	callq  5080 <printf@plt>
    ead4:	83 45 f4 01          	addl   $0x1,-0xc(%rbp)
    ead8:	83 7d f4 09          	cmpl   $0x9,-0xc(%rbp)
    eadc:	0f 8e 0d ff ff ff    	jle    e9ef <main+0xca9>
    eae2:	83 45 f0 01          	addl   $0x1,-0x10(%rbp)
    eae6:	83 7d f0 07          	cmpl   $0x7,-0x10(%rbp)
    eaea:	0f 8e f3 fe ff ff    	jle    e9e3 <main+0xc9d>
    eaf0:	8b 05 2a 7b 00 00    	mov    0x7b2a(%rip),%eax        # 16620 <g_717>
    eaf6:	48 98                	cltq   
    eaf8:	8b 55 fc             	mov    -0x4(%rbp),%edx
    eafb:	48 8d 35 e3 37 00 00 	lea    0x37e3(%rip),%rsi        # 122e5 <g_3193+0x11e5>
    eb02:	48 89 c7             	mov    %rax,%rdi
    eb05:	e8 e9 7b ff ff       	callq  66f3 <transparent_crc>
    eb0a:	8b 05 10 7b 00 00    	mov    0x7b10(%rip),%eax        # 16620 <g_717>
    eb10:	48 98                	cltq   
    eb12:	8b 55 fc             	mov    -0x4(%rbp),%edx
    eb15:	48 8d 35 d2 37 00 00 	lea    0x37d2(%rip),%rsi        # 122ee <g_3193+0x11ee>
    eb1c:	48 89 c7             	mov    %rax,%rdi
    eb1f:	e8 cf 7b ff ff       	callq  66f3 <transparent_crc>
    eb24:	8b 05 f6 7a 00 00    	mov    0x7af6(%rip),%eax        # 16620 <g_717>
    eb2a:	48 98                	cltq   
    eb2c:	8b 55 fc             	mov    -0x4(%rbp),%edx
    eb2f:	48 8d 35 c1 37 00 00 	lea    0x37c1(%rip),%rsi        # 122f7 <g_3193+0x11f7>
    eb36:	48 89 c7             	mov    %rax,%rdi
    eb39:	e8 b5 7b ff ff       	callq  66f3 <transparent_crc>
    eb3e:	8b 05 e0 7a 00 00    	mov    0x7ae0(%rip),%eax        # 16624 <g_718>
    eb44:	48 98                	cltq   
    eb46:	8b 55 fc             	mov    -0x4(%rbp),%edx
    eb49:	48 8d 35 b0 37 00 00 	lea    0x37b0(%rip),%rsi        # 12300 <g_3193+0x1200>
    eb50:	48 89 c7             	mov    %rax,%rdi
    eb53:	e8 9b 7b ff ff       	callq  66f3 <transparent_crc>
    eb58:	8b 05 c6 7a 00 00    	mov    0x7ac6(%rip),%eax        # 16624 <g_718>
    eb5e:	48 98                	cltq   
    eb60:	8b 55 fc             	mov    -0x4(%rbp),%edx
    eb63:	48 8d 35 9f 37 00 00 	lea    0x379f(%rip),%rsi        # 12309 <g_3193+0x1209>
    eb6a:	48 89 c7             	mov    %rax,%rdi
    eb6d:	e8 81 7b ff ff       	callq  66f3 <transparent_crc>
    eb72:	8b 05 ac 7a 00 00    	mov    0x7aac(%rip),%eax        # 16624 <g_718>
    eb78:	48 98                	cltq   
    eb7a:	8b 55 fc             	mov    -0x4(%rbp),%edx
    eb7d:	48 8d 35 8e 37 00 00 	lea    0x378e(%rip),%rsi        # 12312 <g_3193+0x1212>
    eb84:	48 89 c7             	mov    %rax,%rdi
    eb87:	e8 67 7b ff ff       	callq  66f3 <transparent_crc>
    eb8c:	8b 05 96 7a 00 00    	mov    0x7a96(%rip),%eax        # 16628 <g_719>
    eb92:	48 98                	cltq   
    eb94:	8b 55 fc             	mov    -0x4(%rbp),%edx
    eb97:	48 8d 35 7d 37 00 00 	lea    0x377d(%rip),%rsi        # 1231b <g_3193+0x121b>
    eb9e:	48 89 c7             	mov    %rax,%rdi
    eba1:	e8 4d 7b ff ff       	callq  66f3 <transparent_crc>
    eba6:	8b 05 7c 7a 00 00    	mov    0x7a7c(%rip),%eax        # 16628 <g_719>
    ebac:	48 98                	cltq   
    ebae:	8b 55 fc             	mov    -0x4(%rbp),%edx
    ebb1:	48 8d 35 6c 37 00 00 	lea    0x376c(%rip),%rsi        # 12324 <g_3193+0x1224>
    ebb8:	48 89 c7             	mov    %rax,%rdi
    ebbb:	e8 33 7b ff ff       	callq  66f3 <transparent_crc>
    ebc0:	8b 05 62 7a 00 00    	mov    0x7a62(%rip),%eax        # 16628 <g_719>
    ebc6:	48 98                	cltq   
    ebc8:	8b 55 fc             	mov    -0x4(%rbp),%edx
    ebcb:	48 8d 35 5b 37 00 00 	lea    0x375b(%rip),%rsi        # 1232d <g_3193+0x122d>
    ebd2:	48 89 c7             	mov    %rax,%rdi
    ebd5:	e8 19 7b ff ff       	callq  66f3 <transparent_crc>
    ebda:	8b 05 4c 7a 00 00    	mov    0x7a4c(%rip),%eax        # 1662c <g_720>
    ebe0:	48 98                	cltq   
    ebe2:	8b 55 fc             	mov    -0x4(%rbp),%edx
    ebe5:	48 8d 35 4a 37 00 00 	lea    0x374a(%rip),%rsi        # 12336 <g_3193+0x1236>
    ebec:	48 89 c7             	mov    %rax,%rdi
    ebef:	e8 ff 7a ff ff       	callq  66f3 <transparent_crc>
    ebf4:	8b 05 32 7a 00 00    	mov    0x7a32(%rip),%eax        # 1662c <g_720>
    ebfa:	48 98                	cltq   
    ebfc:	8b 55 fc             	mov    -0x4(%rbp),%edx
    ebff:	48 8d 35 39 37 00 00 	lea    0x3739(%rip),%rsi        # 1233f <g_3193+0x123f>
    ec06:	48 89 c7             	mov    %rax,%rdi
    ec09:	e8 e5 7a ff ff       	callq  66f3 <transparent_crc>
    ec0e:	8b 05 18 7a 00 00    	mov    0x7a18(%rip),%eax        # 1662c <g_720>
    ec14:	48 98                	cltq   
    ec16:	8b 55 fc             	mov    -0x4(%rbp),%edx
    ec19:	48 8d 35 28 37 00 00 	lea    0x3728(%rip),%rsi        # 12348 <g_3193+0x1248>
    ec20:	48 89 c7             	mov    %rax,%rdi
    ec23:	e8 cb 7a ff ff       	callq  66f3 <transparent_crc>
    ec28:	c7 45 f0 00 00 00 00 	movl   $0x0,-0x10(%rbp)
    ec2f:	e9 a1 00 00 00       	jmpq   ecd5 <main+0xf8f>
    ec34:	8b 45 f0             	mov    -0x10(%rbp),%eax
    ec37:	48 98                	cltq   
    ec39:	48 8d 14 85 00 00 00 	lea    0x0(,%rax,4),%rdx
    ec40:	00 
    ec41:	48 8d 05 e8 79 00 00 	lea    0x79e8(%rip),%rax        # 16630 <g_721>
    ec48:	8b 04 02             	mov    (%rdx,%rax,1),%eax
    ec4b:	48 98                	cltq   
    ec4d:	8b 55 fc             	mov    -0x4(%rbp),%edx
    ec50:	48 8d 35 fa 36 00 00 	lea    0x36fa(%rip),%rsi        # 12351 <g_3193+0x1251>
    ec57:	48 89 c7             	mov    %rax,%rdi
    ec5a:	e8 94 7a ff ff       	callq  66f3 <transparent_crc>
    ec5f:	8b 45 f0             	mov    -0x10(%rbp),%eax
    ec62:	48 98                	cltq   
    ec64:	48 8d 14 85 00 00 00 	lea    0x0(,%rax,4),%rdx
    ec6b:	00 
    ec6c:	48 8d 05 bd 79 00 00 	lea    0x79bd(%rip),%rax        # 16630 <g_721>
    ec73:	8b 04 02             	mov    (%rdx,%rax,1),%eax
    ec76:	48 98                	cltq   
    ec78:	8b 55 fc             	mov    -0x4(%rbp),%edx
    ec7b:	48 8d 35 db 36 00 00 	lea    0x36db(%rip),%rsi        # 1235d <g_3193+0x125d>
    ec82:	48 89 c7             	mov    %rax,%rdi
    ec85:	e8 69 7a ff ff       	callq  66f3 <transparent_crc>
    ec8a:	8b 45 f0             	mov    -0x10(%rbp),%eax
    ec8d:	48 98                	cltq   
    ec8f:	48 8d 14 85 00 00 00 	lea    0x0(,%rax,4),%rdx
    ec96:	00 
    ec97:	48 8d 05 92 79 00 00 	lea    0x7992(%rip),%rax        # 16630 <g_721>
    ec9e:	8b 04 02             	mov    (%rdx,%rax,1),%eax
    eca1:	48 98                	cltq   
    eca3:	8b 55 fc             	mov    -0x4(%rbp),%edx
    eca6:	48 8d 35 bc 36 00 00 	lea    0x36bc(%rip),%rsi        # 12369 <g_3193+0x1269>
    ecad:	48 89 c7             	mov    %rax,%rdi
    ecb0:	e8 3e 7a ff ff       	callq  66f3 <transparent_crc>
    ecb5:	83 7d fc 00          	cmpl   $0x0,-0x4(%rbp)
    ecb9:	74 16                	je     ecd1 <main+0xf8b>
    ecbb:	8b 45 f0             	mov    -0x10(%rbp),%eax
    ecbe:	89 c6                	mov    %eax,%esi
    ecc0:	48 8d 3d 80 33 00 00 	lea    0x3380(%rip),%rdi        # 12047 <g_3193+0xf47>
    ecc7:	b8 00 00 00 00       	mov    $0x0,%eax
    eccc:	e8 af 63 ff ff       	callq  5080 <printf@plt>
    ecd1:	83 45 f0 01          	addl   $0x1,-0x10(%rbp)
    ecd5:	83 7d f0 03          	cmpl   $0x3,-0x10(%rbp)
    ecd9:	0f 8e 55 ff ff ff    	jle    ec34 <main+0xeee>
    ecdf:	8b 05 5b 79 00 00    	mov    0x795b(%rip),%eax        # 16640 <g_722>
    ece5:	48 98                	cltq   
    ece7:	8b 55 fc             	mov    -0x4(%rbp),%edx
    ecea:	48 8d 35 84 36 00 00 	lea    0x3684(%rip),%rsi        # 12375 <g_3193+0x1275>
    ecf1:	48 89 c7             	mov    %rax,%rdi
    ecf4:	e8 fa 79 ff ff       	callq  66f3 <transparent_crc>
    ecf9:	8b 05 41 79 00 00    	mov    0x7941(%rip),%eax        # 16640 <g_722>
    ecff:	48 98                	cltq   
    ed01:	8b 55 fc             	mov    -0x4(%rbp),%edx
    ed04:	48 8d 35 73 36 00 00 	lea    0x3673(%rip),%rsi        # 1237e <g_3193+0x127e>
    ed0b:	48 89 c7             	mov    %rax,%rdi
    ed0e:	e8 e0 79 ff ff       	callq  66f3 <transparent_crc>
    ed13:	8b 05 27 79 00 00    	mov    0x7927(%rip),%eax        # 16640 <g_722>
    ed19:	48 98                	cltq   
    ed1b:	8b 55 fc             	mov    -0x4(%rbp),%edx
    ed1e:	48 8d 35 62 36 00 00 	lea    0x3662(%rip),%rsi        # 12387 <g_3193+0x1287>
    ed25:	48 89 c7             	mov    %rax,%rdi
    ed28:	e8 c6 79 ff ff       	callq  66f3 <transparent_crc>
    ed2d:	8b 05 09 9e 00 00    	mov    0x9e09(%rip),%eax        # 18b3c <g_723>
    ed33:	48 98                	cltq   
    ed35:	8b 55 fc             	mov    -0x4(%rbp),%edx
    ed38:	48 8d 35 51 36 00 00 	lea    0x3651(%rip),%rsi        # 12390 <g_3193+0x1290>
    ed3f:	48 89 c7             	mov    %rax,%rdi
    ed42:	e8 ac 79 ff ff       	callq  66f3 <transparent_crc>
    ed47:	8b 05 ef 9d 00 00    	mov    0x9def(%rip),%eax        # 18b3c <g_723>
    ed4d:	48 98                	cltq   
    ed4f:	8b 55 fc             	mov    -0x4(%rbp),%edx
    ed52:	48 8d 35 40 36 00 00 	lea    0x3640(%rip),%rsi        # 12399 <g_3193+0x1299>
    ed59:	48 89 c7             	mov    %rax,%rdi
    ed5c:	e8 92 79 ff ff       	callq  66f3 <transparent_crc>
    ed61:	8b 05 d5 9d 00 00    	mov    0x9dd5(%rip),%eax        # 18b3c <g_723>
    ed67:	48 98                	cltq   
    ed69:	8b 55 fc             	mov    -0x4(%rbp),%edx
    ed6c:	48 8d 35 2f 36 00 00 	lea    0x362f(%rip),%rsi        # 123a2 <g_3193+0x12a2>
    ed73:	48 89 c7             	mov    %rax,%rdi
    ed76:	e8 78 79 ff ff       	callq  66f3 <transparent_crc>
    ed7b:	8b 05 c3 78 00 00    	mov    0x78c3(%rip),%eax        # 16644 <g_724>
    ed81:	48 98                	cltq   
    ed83:	8b 55 fc             	mov    -0x4(%rbp),%edx
    ed86:	48 8d 35 1e 36 00 00 	lea    0x361e(%rip),%rsi        # 123ab <g_3193+0x12ab>
    ed8d:	48 89 c7             	mov    %rax,%rdi
    ed90:	e8 5e 79 ff ff       	callq  66f3 <transparent_crc>
    ed95:	8b 05 a9 78 00 00    	mov    0x78a9(%rip),%eax        # 16644 <g_724>
    ed9b:	48 98                	cltq   
    ed9d:	8b 55 fc             	mov    -0x4(%rbp),%edx
    eda0:	48 8d 35 0d 36 00 00 	lea    0x360d(%rip),%rsi        # 123b4 <g_3193+0x12b4>
    eda7:	48 89 c7             	mov    %rax,%rdi
    edaa:	e8 44 79 ff ff       	callq  66f3 <transparent_crc>
    edaf:	8b 05 8f 78 00 00    	mov    0x788f(%rip),%eax        # 16644 <g_724>
    edb5:	48 98                	cltq   
    edb7:	8b 55 fc             	mov    -0x4(%rbp),%edx
    edba:	48 8d 35 fc 35 00 00 	lea    0x35fc(%rip),%rsi        # 123bd <g_3193+0x12bd>
    edc1:	48 89 c7             	mov    %rax,%rdi
    edc4:	e8 2a 79 ff ff       	callq  66f3 <transparent_crc>
    edc9:	c7 45 f0 00 00 00 00 	movl   $0x0,-0x10(%rbp)
    edd0:	e9 a1 00 00 00       	jmpq   ee76 <main+0x1130>
    edd5:	8b 45 f0             	mov    -0x10(%rbp),%eax
    edd8:	48 98                	cltq   
    edda:	48 8d 14 85 00 00 00 	lea    0x0(,%rax,4),%rdx
    ede1:	00 
    ede2:	48 8d 05 5f 78 00 00 	lea    0x785f(%rip),%rax        # 16648 <g_725>
    ede9:	8b 04 02             	mov    (%rdx,%rax,1),%eax
    edec:	48 98                	cltq   
    edee:	8b 55 fc             	mov    -0x4(%rbp),%edx
    edf1:	48 8d 35 ce 35 00 00 	lea    0x35ce(%rip),%rsi        # 123c6 <g_3193+0x12c6>
    edf8:	48 89 c7             	mov    %rax,%rdi
    edfb:	e8 f3 78 ff ff       	callq  66f3 <transparent_crc>
    ee00:	8b 45 f0             	mov    -0x10(%rbp),%eax
    ee03:	48 98                	cltq   
    ee05:	48 8d 14 85 00 00 00 	lea    0x0(,%rax,4),%rdx
    ee0c:	00 
    ee0d:	48 8d 05 34 78 00 00 	lea    0x7834(%rip),%rax        # 16648 <g_725>
    ee14:	8b 04 02             	mov    (%rdx,%rax,1),%eax
    ee17:	48 98                	cltq   
    ee19:	8b 55 fc             	mov    -0x4(%rbp),%edx
    ee1c:	48 8d 35 af 35 00 00 	lea    0x35af(%rip),%rsi        # 123d2 <g_3193+0x12d2>
    ee23:	48 89 c7             	mov    %rax,%rdi
    ee26:	e8 c8 78 ff ff       	callq  66f3 <transparent_crc>
    ee2b:	8b 45 f0             	mov    -0x10(%rbp),%eax
    ee2e:	48 98                	cltq   
    ee30:	48 8d 14 85 00 00 00 	lea    0x0(,%rax,4),%rdx
    ee37:	00 
    ee38:	48 8d 05 09 78 00 00 	lea    0x7809(%rip),%rax        # 16648 <g_725>
    ee3f:	8b 04 02             	mov    (%rdx,%rax,1),%eax
    ee42:	48 98                	cltq   
    ee44:	8b 55 fc             	mov    -0x4(%rbp),%edx
    ee47:	48 8d 35 90 35 00 00 	lea    0x3590(%rip),%rsi        # 123de <g_3193+0x12de>
    ee4e:	48 89 c7             	mov    %rax,%rdi
    ee51:	e8 9d 78 ff ff       	callq  66f3 <transparent_crc>
    ee56:	83 7d fc 00          	cmpl   $0x0,-0x4(%rbp)
    ee5a:	74 16                	je     ee72 <main+0x112c>
    ee5c:	8b 45 f0             	mov    -0x10(%rbp),%eax
    ee5f:	89 c6                	mov    %eax,%esi
    ee61:	48 8d 3d df 31 00 00 	lea    0x31df(%rip),%rdi        # 12047 <g_3193+0xf47>
    ee68:	b8 00 00 00 00       	mov    $0x0,%eax
    ee6d:	e8 0e 62 ff ff       	callq  5080 <printf@plt>
    ee72:	83 45 f0 01          	addl   $0x1,-0x10(%rbp)
    ee76:	83 7d f0 00          	cmpl   $0x0,-0x10(%rbp)
    ee7a:	0f 8e 55 ff ff ff    	jle    edd5 <main+0x108f>
    ee80:	8b 05 c6 77 00 00    	mov    0x77c6(%rip),%eax        # 1664c <g_726>
    ee86:	48 98                	cltq   
    ee88:	8b 55 fc             	mov    -0x4(%rbp),%edx
    ee8b:	48 8d 35 58 35 00 00 	lea    0x3558(%rip),%rsi        # 123ea <g_3193+0x12ea>
    ee92:	48 89 c7             	mov    %rax,%rdi
    ee95:	e8 59 78 ff ff       	callq  66f3 <transparent_crc>
    ee9a:	8b 05 ac 77 00 00    	mov    0x77ac(%rip),%eax        # 1664c <g_726>
    eea0:	48 98                	cltq   
    eea2:	8b 55 fc             	mov    -0x4(%rbp),%edx
    eea5:	48 8d 35 47 35 00 00 	lea    0x3547(%rip),%rsi        # 123f3 <g_3193+0x12f3>
    eeac:	48 89 c7             	mov    %rax,%rdi
    eeaf:	e8 3f 78 ff ff       	callq  66f3 <transparent_crc>
    eeb4:	8b 05 92 77 00 00    	mov    0x7792(%rip),%eax        # 1664c <g_726>
    eeba:	48 98                	cltq   
    eebc:	8b 55 fc             	mov    -0x4(%rbp),%edx
    eebf:	48 8d 35 36 35 00 00 	lea    0x3536(%rip),%rsi        # 123fc <g_3193+0x12fc>
    eec6:	48 89 c7             	mov    %rax,%rdi
    eec9:	e8 25 78 ff ff       	callq  66f3 <transparent_crc>
    eece:	8b 05 7c 77 00 00    	mov    0x777c(%rip),%eax        # 16650 <g_727>
    eed4:	48 98                	cltq   
    eed6:	8b 55 fc             	mov    -0x4(%rbp),%edx
    eed9:	48 8d 35 25 35 00 00 	lea    0x3525(%rip),%rsi        # 12405 <g_3193+0x1305>
    eee0:	48 89 c7             	mov    %rax,%rdi
    eee3:	e8 0b 78 ff ff       	callq  66f3 <transparent_crc>
    eee8:	8b 05 62 77 00 00    	mov    0x7762(%rip),%eax        # 16650 <g_727>
    eeee:	48 98                	cltq   
    eef0:	8b 55 fc             	mov    -0x4(%rbp),%edx
    eef3:	48 8d 35 14 35 00 00 	lea    0x3514(%rip),%rsi        # 1240e <g_3193+0x130e>
    eefa:	48 89 c7             	mov    %rax,%rdi
    eefd:	e8 f1 77 ff ff       	callq  66f3 <transparent_crc>
    ef02:	8b 05 48 77 00 00    	mov    0x7748(%rip),%eax        # 16650 <g_727>
    ef08:	48 98                	cltq   
    ef0a:	8b 55 fc             	mov    -0x4(%rbp),%edx
    ef0d:	48 8d 35 03 35 00 00 	lea    0x3503(%rip),%rsi        # 12417 <g_3193+0x1317>
    ef14:	48 89 c7             	mov    %rax,%rdi
    ef17:	e8 d7 77 ff ff       	callq  66f3 <transparent_crc>
    ef1c:	8b 05 1e 9c 00 00    	mov    0x9c1e(%rip),%eax        # 18b40 <g_728>
    ef22:	48 98                	cltq   
    ef24:	8b 55 fc             	mov    -0x4(%rbp),%edx
    ef27:	48 8d 35 f2 34 00 00 	lea    0x34f2(%rip),%rsi        # 12420 <g_3193+0x1320>
    ef2e:	48 89 c7             	mov    %rax,%rdi
    ef31:	e8 bd 77 ff ff       	callq  66f3 <transparent_crc>
    ef36:	8b 05 04 9c 00 00    	mov    0x9c04(%rip),%eax        # 18b40 <g_728>
    ef3c:	48 98                	cltq   
    ef3e:	8b 55 fc             	mov    -0x4(%rbp),%edx
    ef41:	48 8d 35 e1 34 00 00 	lea    0x34e1(%rip),%rsi        # 12429 <g_3193+0x1329>
    ef48:	48 89 c7             	mov    %rax,%rdi
    ef4b:	e8 a3 77 ff ff       	callq  66f3 <transparent_crc>
    ef50:	8b 05 ea 9b 00 00    	mov    0x9bea(%rip),%eax        # 18b40 <g_728>
    ef56:	48 98                	cltq   
    ef58:	8b 55 fc             	mov    -0x4(%rbp),%edx
    ef5b:	48 8d 35 d0 34 00 00 	lea    0x34d0(%rip),%rsi        # 12432 <g_3193+0x1332>
    ef62:	48 89 c7             	mov    %rax,%rdi
    ef65:	e8 89 77 ff ff       	callq  66f3 <transparent_crc>
    ef6a:	0f b7 05 e3 76 00 00 	movzwl 0x76e3(%rip),%eax        # 16654 <g_876>
    ef71:	48 0f bf c0          	movswq %ax,%rax
    ef75:	8b 55 fc             	mov    -0x4(%rbp),%edx
    ef78:	48 8d 35 bc 34 00 00 	lea    0x34bc(%rip),%rsi        # 1243b <g_3193+0x133b>
    ef7f:	48 89 c7             	mov    %rax,%rdi
    ef82:	e8 6c 77 ff ff       	callq  66f3 <transparent_crc>
    ef87:	0f b7 05 ca 76 00 00 	movzwl 0x76ca(%rip),%eax        # 16658 <g_878>
    ef8e:	48 0f bf c0          	movswq %ax,%rax
    ef92:	8b 55 fc             	mov    -0x4(%rbp),%edx
    ef95:	48 8d 35 a8 34 00 00 	lea    0x34a8(%rip),%rsi        # 12444 <g_3193+0x1344>
    ef9c:	48 89 c7             	mov    %rax,%rdi
    ef9f:	e8 4f 77 ff ff       	callq  66f3 <transparent_crc>
    efa4:	8b 05 b2 76 00 00    	mov    0x76b2(%rip),%eax        # 1665c <g_908>
    efaa:	48 98                	cltq   
    efac:	8b 55 fc             	mov    -0x4(%rbp),%edx
    efaf:	48 8d 35 97 34 00 00 	lea    0x3497(%rip),%rsi        # 1244d <g_3193+0x134d>
    efb6:	48 89 c7             	mov    %rax,%rdi
    efb9:	e8 35 77 ff ff       	callq  66f3 <transparent_crc>
    efbe:	8b 05 98 76 00 00    	mov    0x7698(%rip),%eax        # 1665c <g_908>
    efc4:	48 98                	cltq   
    efc6:	8b 55 fc             	mov    -0x4(%rbp),%edx
    efc9:	48 8d 35 86 34 00 00 	lea    0x3486(%rip),%rsi        # 12456 <g_3193+0x1356>
    efd0:	48 89 c7             	mov    %rax,%rdi
    efd3:	e8 1b 77 ff ff       	callq  66f3 <transparent_crc>
    efd8:	8b 05 7e 76 00 00    	mov    0x767e(%rip),%eax        # 1665c <g_908>
    efde:	48 98                	cltq   
    efe0:	8b 55 fc             	mov    -0x4(%rbp),%edx
    efe3:	48 8d 35 75 34 00 00 	lea    0x3475(%rip),%rsi        # 1245f <g_3193+0x135f>
    efea:	48 89 c7             	mov    %rax,%rdi
    efed:	e8 01 77 ff ff       	callq  66f3 <transparent_crc>
    eff2:	8b 05 68 76 00 00    	mov    0x7668(%rip),%eax        # 16660 <g_990>
    eff8:	48 98                	cltq   
    effa:	8b 55 fc             	mov    -0x4(%rbp),%edx
    effd:	48 8d 35 64 34 00 00 	lea    0x3464(%rip),%rsi        # 12468 <g_3193+0x1368>
    f004:	48 89 c7             	mov    %rax,%rdi
    f007:	e8 e7 76 ff ff       	callq  66f3 <transparent_crc>
    f00c:	8b 05 4e 76 00 00    	mov    0x764e(%rip),%eax        # 16660 <g_990>
    f012:	48 98                	cltq   
    f014:	8b 55 fc             	mov    -0x4(%rbp),%edx
    f017:	48 8d 35 53 34 00 00 	lea    0x3453(%rip),%rsi        # 12471 <g_3193+0x1371>
    f01e:	48 89 c7             	mov    %rax,%rdi
    f021:	e8 cd 76 ff ff       	callq  66f3 <transparent_crc>
    f026:	8b 05 34 76 00 00    	mov    0x7634(%rip),%eax        # 16660 <g_990>
    f02c:	48 98                	cltq   
    f02e:	8b 55 fc             	mov    -0x4(%rbp),%edx
    f031:	48 8d 35 42 34 00 00 	lea    0x3442(%rip),%rsi        # 1247a <g_3193+0x137a>
    f038:	48 89 c7             	mov    %rax,%rdi
    f03b:	e8 b3 76 ff ff       	callq  66f3 <transparent_crc>
    f040:	8b 05 1e 76 00 00    	mov    0x761e(%rip),%eax        # 16664 <g_996>
    f046:	48 98                	cltq   
    f048:	8b 55 fc             	mov    -0x4(%rbp),%edx
    f04b:	48 8d 35 31 34 00 00 	lea    0x3431(%rip),%rsi        # 12483 <g_3193+0x1383>
    f052:	48 89 c7             	mov    %rax,%rdi
    f055:	e8 99 76 ff ff       	callq  66f3 <transparent_crc>
    f05a:	8b 05 04 76 00 00    	mov    0x7604(%rip),%eax        # 16664 <g_996>
    f060:	48 98                	cltq   
    f062:	8b 55 fc             	mov    -0x4(%rbp),%edx
    f065:	48 8d 35 20 34 00 00 	lea    0x3420(%rip),%rsi        # 1248c <g_3193+0x138c>
    f06c:	48 89 c7             	mov    %rax,%rdi
    f06f:	e8 7f 76 ff ff       	callq  66f3 <transparent_crc>
    f074:	8b 05 ea 75 00 00    	mov    0x75ea(%rip),%eax        # 16664 <g_996>
    f07a:	48 98                	cltq   
    f07c:	8b 55 fc             	mov    -0x4(%rbp),%edx
    f07f:	48 8d 35 0f 34 00 00 	lea    0x340f(%rip),%rsi        # 12495 <g_3193+0x1395>
    f086:	48 89 c7             	mov    %rax,%rdi
    f089:	e8 65 76 ff ff       	callq  66f3 <transparent_crc>
    f08e:	c7 45 f0 00 00 00 00 	movl   $0x0,-0x10(%rbp)
    f095:	eb 4d                	jmp    f0e4 <main+0x139e>
    f097:	8b 45 f0             	mov    -0x10(%rbp),%eax
    f09a:	48 98                	cltq   
    f09c:	48 8d 14 85 00 00 00 	lea    0x0(,%rax,4),%rdx
    f0a3:	00 
    f0a4:	48 8d 05 d5 75 00 00 	lea    0x75d5(%rip),%rax        # 16680 <g_1017>
    f0ab:	8b 04 02             	mov    (%rdx,%rax,1),%eax
    f0ae:	89 c1                	mov    %eax,%ecx
    f0b0:	8b 45 fc             	mov    -0x4(%rbp),%eax
    f0b3:	89 c2                	mov    %eax,%edx
    f0b5:	48 8d 35 e2 33 00 00 	lea    0x33e2(%rip),%rsi        # 1249e <g_3193+0x139e>
    f0bc:	48 89 cf             	mov    %rcx,%rdi
    f0bf:	e8 2f 76 ff ff       	callq  66f3 <transparent_crc>
    f0c4:	83 7d fc 00          	cmpl   $0x0,-0x4(%rbp)
    f0c8:	74 16                	je     f0e0 <main+0x139a>
    f0ca:	8b 45 f0             	mov    -0x10(%rbp),%eax
    f0cd:	89 c6                	mov    %eax,%esi
    f0cf:	48 8d 3d 71 2f 00 00 	lea    0x2f71(%rip),%rdi        # 12047 <g_3193+0xf47>
    f0d6:	b8 00 00 00 00       	mov    $0x0,%eax
    f0db:	e8 a0 5f ff ff       	callq  5080 <printf@plt>
    f0e0:	83 45 f0 01          	addl   $0x1,-0x10(%rbp)
    f0e4:	83 7d f0 09          	cmpl   $0x9,-0x10(%rbp)
    f0e8:	7e ad                	jle    f097 <main+0x1351>
    f0ea:	0f b7 05 b7 75 00 00 	movzwl 0x75b7(%rip),%eax        # 166a8 <g_1054>
    f0f1:	48 0f bf c0          	movswq %ax,%rax
    f0f5:	8b 55 fc             	mov    -0x4(%rbp),%edx
    f0f8:	48 8d 35 a9 33 00 00 	lea    0x33a9(%rip),%rsi        # 124a8 <g_3193+0x13a8>
    f0ff:	48 89 c7             	mov    %rax,%rdi
    f102:	e8 ec 75 ff ff       	callq  66f3 <transparent_crc>
    f107:	0f b7 05 9e 75 00 00 	movzwl 0x759e(%rip),%eax        # 166ac <g_1057>
    f10e:	48 0f bf c0          	movswq %ax,%rax
    f112:	8b 55 fc             	mov    -0x4(%rbp),%edx
    f115:	48 8d 35 96 33 00 00 	lea    0x3396(%rip),%rsi        # 124b2 <g_3193+0x13b2>
    f11c:	48 89 c7             	mov    %rax,%rdi
    f11f:	e8 cf 75 ff ff       	callq  66f3 <transparent_crc>
    f124:	0f b7 05 85 75 00 00 	movzwl 0x7585(%rip),%eax        # 166b0 <g_1063>
    f12b:	48 0f bf c0          	movswq %ax,%rax
    f12f:	8b 55 fc             	mov    -0x4(%rbp),%edx
    f132:	48 8d 35 83 33 00 00 	lea    0x3383(%rip),%rsi        # 124bc <g_3193+0x13bc>
    f139:	48 89 c7             	mov    %rax,%rdi
    f13c:	e8 b2 75 ff ff       	callq  66f3 <transparent_crc>
    f141:	c7 45 f0 00 00 00 00 	movl   $0x0,-0x10(%rbp)
    f148:	e9 a6 00 00 00       	jmpq   f1f3 <main+0x14ad>
    f14d:	c7 45 f4 00 00 00 00 	movl   $0x0,-0xc(%rbp)
    f154:	e9 8c 00 00 00       	jmpq   f1e5 <main+0x149f>
    f159:	c7 45 f8 00 00 00 00 	movl   $0x0,-0x8(%rbp)
    f160:	eb 79                	jmp    f1db <main+0x1495>
    f162:	8b 45 f8             	mov    -0x8(%rbp),%eax
    f165:	48 63 f0             	movslq %eax,%rsi
    f168:	8b 45 f0             	mov    -0x10(%rbp),%eax
    f16b:	48 98                	cltq   
    f16d:	8b 55 f4             	mov    -0xc(%rbp),%edx
    f170:	48 63 ca             	movslq %edx,%rcx
    f173:	48 89 c2             	mov    %rax,%rdx
    f176:	48 c1 e2 03          	shl    $0x3,%rdx
    f17a:	48 01 c2             	add    %rax,%rdx
    f17d:	48 89 c8             	mov    %rcx,%rax
    f180:	48 01 c0             	add    %rax,%rax
    f183:	48 01 c8             	add    %rcx,%rax
    f186:	48 01 d0             	add    %rdx,%rax
    f189:	48 01 f0             	add    %rsi,%rax
    f18c:	48 8d 14 85 00 00 00 	lea    0x0(,%rax,4),%rdx
    f193:	00 
    f194:	48 8d 05 25 75 00 00 	lea    0x7525(%rip),%rax        # 166c0 <g_1070>
    f19b:	0f b7 04 02          	movzwl (%rdx,%rax,1),%eax
    f19f:	48 0f bf c0          	movswq %ax,%rax
    f1a3:	8b 55 fc             	mov    -0x4(%rbp),%edx
    f1a6:	48 8d 35 19 33 00 00 	lea    0x3319(%rip),%rsi        # 124c6 <g_3193+0x13c6>
    f1ad:	48 89 c7             	mov    %rax,%rdi
    f1b0:	e8 3e 75 ff ff       	callq  66f3 <transparent_crc>
    f1b5:	83 7d fc 00          	cmpl   $0x0,-0x4(%rbp)
    f1b9:	74 1c                	je     f1d7 <main+0x1491>
    f1bb:	8b 4d f8             	mov    -0x8(%rbp),%ecx
    f1be:	8b 55 f4             	mov    -0xc(%rbp),%edx
    f1c1:	8b 45 f0             	mov    -0x10(%rbp),%eax
    f1c4:	89 c6                	mov    %eax,%esi
    f1c6:	48 8d 3d e6 2e 00 00 	lea    0x2ee6(%rip),%rdi        # 120b3 <g_3193+0xfb3>
    f1cd:	b8 00 00 00 00       	mov    $0x0,%eax
    f1d2:	e8 a9 5e ff ff       	callq  5080 <printf@plt>
    f1d7:	83 45 f8 01          	addl   $0x1,-0x8(%rbp)
    f1db:	83 7d f8 02          	cmpl   $0x2,-0x8(%rbp)
    f1df:	7e 81                	jle    f162 <main+0x141c>
    f1e1:	83 45 f4 01          	addl   $0x1,-0xc(%rbp)
    f1e5:	83 7d f4 02          	cmpl   $0x2,-0xc(%rbp)
    f1e9:	0f 8e 6a ff ff ff    	jle    f159 <main+0x1413>
    f1ef:	83 45 f0 01          	addl   $0x1,-0x10(%rbp)
    f1f3:	83 7d f0 01          	cmpl   $0x1,-0x10(%rbp)
    f1f7:	0f 8e 50 ff ff ff    	jle    f14d <main+0x1407>
    f1fd:	8b 05 05 75 00 00    	mov    0x7505(%rip),%eax        # 16708 <g_1119>
    f203:	89 c1                	mov    %eax,%ecx
    f205:	8b 45 fc             	mov    -0x4(%rbp),%eax
    f208:	89 c2                	mov    %eax,%edx
    f20a:	48 8d 35 c8 32 00 00 	lea    0x32c8(%rip),%rsi        # 124d9 <g_3193+0x13d9>
    f211:	48 89 cf             	mov    %rcx,%rdi
    f214:	e8 da 74 ff ff       	callq  66f3 <transparent_crc>
    f219:	c7 45 f0 00 00 00 00 	movl   $0x0,-0x10(%rbp)
    f220:	eb 6b                	jmp    f28d <main+0x1547>
    f222:	c7 45 f4 00 00 00 00 	movl   $0x0,-0xc(%rbp)
    f229:	eb 58                	jmp    f283 <main+0x153d>
    f22b:	8b 45 f4             	mov    -0xc(%rbp),%eax
    f22e:	48 98                	cltq   
    f230:	8b 55 f0             	mov    -0x10(%rbp),%edx
    f233:	48 63 d2             	movslq %edx,%rdx
    f236:	48 c1 e2 03          	shl    $0x3,%rdx
    f23a:	48 01 c2             	add    %rax,%rdx
    f23d:	48 8d 05 dc 74 00 00 	lea    0x74dc(%rip),%rax        # 16720 <g_1137>
    f244:	48 01 d0             	add    %rdx,%rax
    f247:	0f b6 00             	movzbl (%rax),%eax
    f24a:	48 0f be c0          	movsbq %al,%rax
    f24e:	8b 55 fc             	mov    -0x4(%rbp),%edx
    f251:	48 8d 35 88 32 00 00 	lea    0x3288(%rip),%rsi        # 124e0 <g_3193+0x13e0>
    f258:	48 89 c7             	mov    %rax,%rdi
    f25b:	e8 93 74 ff ff       	callq  66f3 <transparent_crc>
    f260:	83 7d fc 00          	cmpl   $0x0,-0x4(%rbp)
    f264:	74 19                	je     f27f <main+0x1539>
    f266:	8b 55 f4             	mov    -0xc(%rbp),%edx
    f269:	8b 45 f0             	mov    -0x10(%rbp),%eax
    f26c:	89 c6                	mov    %eax,%esi
    f26e:	48 8d 3d b7 2e 00 00 	lea    0x2eb7(%rip),%rdi        # 1212c <g_3193+0x102c>
    f275:	b8 00 00 00 00       	mov    $0x0,%eax
    f27a:	e8 01 5e ff ff       	callq  5080 <printf@plt>
    f27f:	83 45 f4 01          	addl   $0x1,-0xc(%rbp)
    f283:	83 7d f4 07          	cmpl   $0x7,-0xc(%rbp)
    f287:	7e a2                	jle    f22b <main+0x14e5>
    f289:	83 45 f0 01          	addl   $0x1,-0x10(%rbp)
    f28d:	83 7d f0 05          	cmpl   $0x5,-0x10(%rbp)
    f291:	7e 8f                	jle    f222 <main+0x14dc>
    f293:	0f b7 05 b6 74 00 00 	movzwl 0x74b6(%rip),%eax        # 16750 <g_1252>
    f29a:	48 0f bf c0          	movswq %ax,%rax
    f29e:	8b 55 fc             	mov    -0x4(%rbp),%edx
    f2a1:	48 8d 35 45 32 00 00 	lea    0x3245(%rip),%rsi        # 124ed <g_3193+0x13ed>
    f2a8:	48 89 c7             	mov    %rax,%rdi
    f2ab:	e8 43 74 ff ff       	callq  66f3 <transparent_crc>
    f2b0:	8b 05 9e 74 00 00    	mov    0x749e(%rip),%eax        # 16754 <g_1275>
    f2b6:	48 98                	cltq   
    f2b8:	8b 55 fc             	mov    -0x4(%rbp),%edx
    f2bb:	48 8d 35 35 32 00 00 	lea    0x3235(%rip),%rsi        # 124f7 <g_3193+0x13f7>
    f2c2:	48 89 c7             	mov    %rax,%rdi
    f2c5:	e8 29 74 ff ff       	callq  66f3 <transparent_crc>
    f2ca:	b8 00 00 00 00       	mov    $0x0,%eax
    f2cf:	89 c1                	mov    %eax,%ecx
    f2d1:	8b 45 fc             	mov    -0x4(%rbp),%eax
    f2d4:	89 c2                	mov    %eax,%edx
    f2d6:	48 8d 35 21 32 00 00 	lea    0x3221(%rip),%rsi        # 124fe <g_3193+0x13fe>
    f2dd:	48 89 cf             	mov    %rcx,%rdi
    f2e0:	e8 0e 74 ff ff       	callq  66f3 <transparent_crc>
    f2e5:	8b 05 6d 74 00 00    	mov    0x746d(%rip),%eax        # 16758 <g_1403>
    f2eb:	48 98                	cltq   
    f2ed:	8b 55 fc             	mov    -0x4(%rbp),%edx
    f2f0:	48 8d 35 0e 32 00 00 	lea    0x320e(%rip),%rsi        # 12505 <g_3193+0x1405>
    f2f7:	48 89 c7             	mov    %rax,%rdi
    f2fa:	e8 f4 73 ff ff       	callq  66f3 <transparent_crc>
    f2ff:	8b 05 53 74 00 00    	mov    0x7453(%rip),%eax        # 16758 <g_1403>
    f305:	48 98                	cltq   
    f307:	8b 55 fc             	mov    -0x4(%rbp),%edx
    f30a:	48 8d 35 fe 31 00 00 	lea    0x31fe(%rip),%rsi        # 1250f <g_3193+0x140f>
    f311:	48 89 c7             	mov    %rax,%rdi
    f314:	e8 da 73 ff ff       	callq  66f3 <transparent_crc>
    f319:	8b 05 39 74 00 00    	mov    0x7439(%rip),%eax        # 16758 <g_1403>
    f31f:	48 98                	cltq   
    f321:	8b 55 fc             	mov    -0x4(%rbp),%edx
    f324:	48 8d 35 ee 31 00 00 	lea    0x31ee(%rip),%rsi        # 12519 <g_3193+0x1419>
    f32b:	48 89 c7             	mov    %rax,%rdi
    f32e:	e8 c0 73 ff ff       	callq  66f3 <transparent_crc>
    f333:	48 8b 05 26 74 00 00 	mov    0x7426(%rip),%rax        # 16760 <g_1414>
    f33a:	8b 55 fc             	mov    -0x4(%rbp),%edx
    f33d:	48 8d 35 df 31 00 00 	lea    0x31df(%rip),%rsi        # 12523 <g_3193+0x1423>
    f344:	48 89 c7             	mov    %rax,%rdi
    f347:	e8 a7 73 ff ff       	callq  66f3 <transparent_crc>
    f34c:	8b 05 16 74 00 00    	mov    0x7416(%rip),%eax        # 16768 <g_1516>
    f352:	89 c1                	mov    %eax,%ecx
    f354:	8b 45 fc             	mov    -0x4(%rbp),%eax
    f357:	89 c2                	mov    %eax,%edx
    f359:	48 8d 35 ca 31 00 00 	lea    0x31ca(%rip),%rsi        # 1252a <g_3193+0x142a>
    f360:	48 89 cf             	mov    %rcx,%rdi
    f363:	e8 8b 73 ff ff       	callq  66f3 <transparent_crc>
    f368:	8b 05 fe 73 00 00    	mov    0x73fe(%rip),%eax        # 1676c <g_1551>
    f36e:	48 98                	cltq   
    f370:	8b 55 fc             	mov    -0x4(%rbp),%edx
    f373:	48 8d 35 b7 31 00 00 	lea    0x31b7(%rip),%rsi        # 12531 <g_3193+0x1431>
    f37a:	48 89 c7             	mov    %rax,%rdi
    f37d:	e8 71 73 ff ff       	callq  66f3 <transparent_crc>
    f382:	8b 05 e4 73 00 00    	mov    0x73e4(%rip),%eax        # 1676c <g_1551>
    f388:	48 98                	cltq   
    f38a:	8b 55 fc             	mov    -0x4(%rbp),%edx
    f38d:	48 8d 35 a7 31 00 00 	lea    0x31a7(%rip),%rsi        # 1253b <g_3193+0x143b>
    f394:	48 89 c7             	mov    %rax,%rdi
    f397:	e8 57 73 ff ff       	callq  66f3 <transparent_crc>
    f39c:	8b 05 ca 73 00 00    	mov    0x73ca(%rip),%eax        # 1676c <g_1551>
    f3a2:	48 98                	cltq   
    f3a4:	8b 55 fc             	mov    -0x4(%rbp),%edx
    f3a7:	48 8d 35 97 31 00 00 	lea    0x3197(%rip),%rsi        # 12545 <g_3193+0x1445>
    f3ae:	48 89 c7             	mov    %rax,%rdi
    f3b1:	e8 3d 73 ff ff       	callq  66f3 <transparent_crc>
    f3b6:	8b 05 b4 73 00 00    	mov    0x73b4(%rip),%eax        # 16770 <g_1645>
    f3bc:	89 c1                	mov    %eax,%ecx
    f3be:	8b 45 fc             	mov    -0x4(%rbp),%eax
    f3c1:	89 c2                	mov    %eax,%edx
    f3c3:	48 8d 35 85 31 00 00 	lea    0x3185(%rip),%rsi        # 1254f <g_3193+0x144f>
    f3ca:	48 89 cf             	mov    %rcx,%rdi
    f3cd:	e8 21 73 ff ff       	callq  66f3 <transparent_crc>
    f3d2:	b8 09 00 00 00       	mov    $0x9,%eax
    f3d7:	0f b7 c0             	movzwl %ax,%eax
    f3da:	8b 55 fc             	mov    -0x4(%rbp),%edx
    f3dd:	48 8d 35 72 31 00 00 	lea    0x3172(%rip),%rsi        # 12556 <g_3193+0x1456>
    f3e4:	48 89 c7             	mov    %rax,%rdi
    f3e7:	e8 07 73 ff ff       	callq  66f3 <transparent_crc>
    f3ec:	c7 45 f0 00 00 00 00 	movl   $0x0,-0x10(%rbp)
    f3f3:	eb 4e                	jmp    f443 <main+0x16fd>
    f3f5:	8b 45 f0             	mov    -0x10(%rbp),%eax
    f3f8:	48 98                	cltq   
    f3fa:	48 8d 14 85 00 00 00 	lea    0x0(,%rax,4),%rdx
    f401:	00 
    f402:	48 8d 05 77 73 00 00 	lea    0x7377(%rip),%rax        # 16780 <g_1686>
    f409:	0f b7 04 02          	movzwl (%rdx,%rax,1),%eax
    f40d:	48 0f bf c0          	movswq %ax,%rax
    f411:	8b 55 fc             	mov    -0x4(%rbp),%edx
    f414:	48 8d 35 42 31 00 00 	lea    0x3142(%rip),%rsi        # 1255d <g_3193+0x145d>
    f41b:	48 89 c7             	mov    %rax,%rdi
    f41e:	e8 d0 72 ff ff       	callq  66f3 <transparent_crc>
    f423:	83 7d fc 00          	cmpl   $0x0,-0x4(%rbp)
    f427:	74 16                	je     f43f <main+0x16f9>
    f429:	8b 45 f0             	mov    -0x10(%rbp),%eax
    f42c:	89 c6                	mov    %eax,%esi
    f42e:	48 8d 3d 12 2c 00 00 	lea    0x2c12(%rip),%rdi        # 12047 <g_3193+0xf47>
    f435:	b8 00 00 00 00       	mov    $0x0,%eax
    f43a:	e8 41 5c ff ff       	callq  5080 <printf@plt>
    f43f:	83 45 f0 01          	addl   $0x1,-0x10(%rbp)
    f443:	83 7d f0 03          	cmpl   $0x3,-0x10(%rbp)
    f447:	7e ac                	jle    f3f5 <main+0x16af>
    f449:	48 8b 05 40 73 00 00 	mov    0x7340(%rip),%rax        # 16790 <g_1759>
    f450:	48 89 c1             	mov    %rax,%rcx
    f453:	8b 45 fc             	mov    -0x4(%rbp),%eax
    f456:	89 c2                	mov    %eax,%edx
    f458:	48 8d 35 0b 31 00 00 	lea    0x310b(%rip),%rsi        # 1256a <g_3193+0x146a>
    f45f:	48 89 cf             	mov    %rcx,%rdi
    f462:	e8 8c 72 ff ff       	callq  66f3 <transparent_crc>
    f467:	0f b7 05 52 1c 00 00 	movzwl 0x1c52(%rip),%eax        # 110c0 <g_1877>
    f46e:	48 0f bf c0          	movswq %ax,%rax
    f472:	8b 55 fc             	mov    -0x4(%rbp),%edx
    f475:	48 8d 35 f5 30 00 00 	lea    0x30f5(%rip),%rsi        # 12571 <g_3193+0x1471>
    f47c:	48 89 c7             	mov    %rax,%rdi
    f47f:	e8 6f 72 ff ff       	callq  66f3 <transparent_crc>
    f484:	8b 05 0e 73 00 00    	mov    0x730e(%rip),%eax        # 16798 <g_1891>
    f48a:	48 98                	cltq   
    f48c:	8b 55 fc             	mov    -0x4(%rbp),%edx
    f48f:	48 8d 35 e5 30 00 00 	lea    0x30e5(%rip),%rsi        # 1257b <g_3193+0x147b>
    f496:	48 89 c7             	mov    %rax,%rdi
    f499:	e8 55 72 ff ff       	callq  66f3 <transparent_crc>
    f49e:	48 8b 05 cb 96 00 00 	mov    0x96cb(%rip),%rax        # 18b70 <g_1947>
    f4a5:	8b 55 fc             	mov    -0x4(%rbp),%edx
    f4a8:	48 8d 35 d3 30 00 00 	lea    0x30d3(%rip),%rsi        # 12582 <g_3193+0x1482>
    f4af:	48 89 c7             	mov    %rax,%rdi
    f4b2:	e8 3c 72 ff ff       	callq  66f3 <transparent_crc>
    f4b7:	48 8b 05 e2 72 00 00 	mov    0x72e2(%rip),%rax        # 167a0 <g_1952>
    f4be:	48 89 c1             	mov    %rax,%rcx
    f4c1:	8b 45 fc             	mov    -0x4(%rbp),%eax
    f4c4:	89 c2                	mov    %eax,%edx
    f4c6:	48 8d 35 bc 30 00 00 	lea    0x30bc(%rip),%rsi        # 12589 <g_3193+0x1489>
    f4cd:	48 89 cf             	mov    %rcx,%rdi
    f4d0:	e8 1e 72 ff ff       	callq  66f3 <transparent_crc>
    f4d5:	0f b7 05 cc 72 00 00 	movzwl 0x72cc(%rip),%eax        # 167a8 <g_1968>
    f4dc:	48 0f bf c0          	movswq %ax,%rax
    f4e0:	8b 55 fc             	mov    -0x4(%rbp),%edx
    f4e3:	48 8d 35 a6 30 00 00 	lea    0x30a6(%rip),%rsi        # 12590 <g_3193+0x1490>
    f4ea:	48 89 c7             	mov    %rax,%rdi
    f4ed:	e8 01 72 ff ff       	callq  66f3 <transparent_crc>
    f4f2:	8b 05 b4 72 00 00    	mov    0x72b4(%rip),%eax        # 167ac <g_1993>
    f4f8:	48 98                	cltq   
    f4fa:	8b 55 fc             	mov    -0x4(%rbp),%edx
    f4fd:	48 8d 35 96 30 00 00 	lea    0x3096(%rip),%rsi        # 1259a <g_3193+0x149a>
    f504:	48 89 c7             	mov    %rax,%rdi
    f507:	e8 e7 71 ff ff       	callq  66f3 <transparent_crc>
    f50c:	8b 05 9e 72 00 00    	mov    0x729e(%rip),%eax        # 167b0 <g_2025>
    f512:	89 c1                	mov    %eax,%ecx
    f514:	8b 45 fc             	mov    -0x4(%rbp),%eax
    f517:	89 c2                	mov    %eax,%edx
    f519:	48 8d 35 81 30 00 00 	lea    0x3081(%rip),%rsi        # 125a1 <g_3193+0x14a1>
    f520:	48 89 cf             	mov    %rcx,%rdi
    f523:	e8 cb 71 ff ff       	callq  66f3 <transparent_crc>
    f528:	0f b6 05 85 72 00 00 	movzbl 0x7285(%rip),%eax        # 167b4 <g_2124>
    f52f:	48 0f be c0          	movsbq %al,%rax
    f533:	8b 55 fc             	mov    -0x4(%rbp),%edx
    f536:	48 8d 35 6b 30 00 00 	lea    0x306b(%rip),%rsi        # 125a8 <g_3193+0x14a8>
    f53d:	48 89 c7             	mov    %rax,%rdi
    f540:	e8 ae 71 ff ff       	callq  66f3 <transparent_crc>
    f545:	8b 05 6d 72 00 00    	mov    0x726d(%rip),%eax        # 167b8 <g_2196>
    f54b:	89 c1                	mov    %eax,%ecx
    f54d:	8b 45 fc             	mov    -0x4(%rbp),%eax
    f550:	89 c2                	mov    %eax,%edx
    f552:	48 8d 35 56 30 00 00 	lea    0x3056(%rip),%rsi        # 125af <g_3193+0x14af>
    f559:	48 89 cf             	mov    %rcx,%rdi
    f55c:	e8 92 71 ff ff       	callq  66f3 <transparent_crc>
    f561:	48 8b 05 18 96 00 00 	mov    0x9618(%rip),%rax        # 18b80 <g_2352>
    f568:	8b 55 fc             	mov    -0x4(%rbp),%edx
    f56b:	48 8d 35 44 30 00 00 	lea    0x3044(%rip),%rsi        # 125b6 <g_3193+0x14b6>
    f572:	48 89 c7             	mov    %rax,%rdi
    f575:	e8 79 71 ff ff       	callq  66f3 <transparent_crc>
    f57a:	8b 05 3c 72 00 00    	mov    0x723c(%rip),%eax        # 167bc <g_2360>
    f580:	48 98                	cltq   
    f582:	8b 55 fc             	mov    -0x4(%rbp),%edx
    f585:	48 8d 35 31 30 00 00 	lea    0x3031(%rip),%rsi        # 125bd <g_3193+0x14bd>
    f58c:	48 89 c7             	mov    %rax,%rdi
    f58f:	e8 5f 71 ff ff       	callq  66f3 <transparent_crc>
    f594:	8b 05 22 72 00 00    	mov    0x7222(%rip),%eax        # 167bc <g_2360>
    f59a:	48 98                	cltq   
    f59c:	8b 55 fc             	mov    -0x4(%rbp),%edx
    f59f:	48 8d 35 21 30 00 00 	lea    0x3021(%rip),%rsi        # 125c7 <g_3193+0x14c7>
    f5a6:	48 89 c7             	mov    %rax,%rdi
    f5a9:	e8 45 71 ff ff       	callq  66f3 <transparent_crc>
    f5ae:	8b 05 08 72 00 00    	mov    0x7208(%rip),%eax        # 167bc <g_2360>
    f5b4:	48 98                	cltq   
    f5b6:	8b 55 fc             	mov    -0x4(%rbp),%edx
    f5b9:	48 8d 35 11 30 00 00 	lea    0x3011(%rip),%rsi        # 125d1 <g_3193+0x14d1>
    f5c0:	48 89 c7             	mov    %rax,%rdi
    f5c3:	e8 2b 71 ff ff       	callq  66f3 <transparent_crc>
    f5c8:	8b 05 f2 71 00 00    	mov    0x71f2(%rip),%eax        # 167c0 <g_2399>
    f5ce:	48 98                	cltq   
    f5d0:	8b 55 fc             	mov    -0x4(%rbp),%edx
    f5d3:	48 8d 35 01 30 00 00 	lea    0x3001(%rip),%rsi        # 125db <g_3193+0x14db>
    f5da:	48 89 c7             	mov    %rax,%rdi
    f5dd:	e8 11 71 ff ff       	callq  66f3 <transparent_crc>
    f5e2:	8b 05 d8 71 00 00    	mov    0x71d8(%rip),%eax        # 167c0 <g_2399>
    f5e8:	48 98                	cltq   
    f5ea:	8b 55 fc             	mov    -0x4(%rbp),%edx
    f5ed:	48 8d 35 f1 2f 00 00 	lea    0x2ff1(%rip),%rsi        # 125e5 <g_3193+0x14e5>
    f5f4:	48 89 c7             	mov    %rax,%rdi
    f5f7:	e8 f7 70 ff ff       	callq  66f3 <transparent_crc>
    f5fc:	8b 05 be 71 00 00    	mov    0x71be(%rip),%eax        # 167c0 <g_2399>
    f602:	48 98                	cltq   
    f604:	8b 55 fc             	mov    -0x4(%rbp),%edx
    f607:	48 8d 35 e1 2f 00 00 	lea    0x2fe1(%rip),%rsi        # 125ef <g_3193+0x14ef>
    f60e:	48 89 c7             	mov    %rax,%rdi
    f611:	e8 dd 70 ff ff       	callq  66f3 <transparent_crc>
    f616:	c7 45 f0 00 00 00 00 	movl   $0x0,-0x10(%rbp)
    f61d:	e9 a1 00 00 00       	jmpq   f6c3 <main+0x197d>
    f622:	8b 45 f0             	mov    -0x10(%rbp),%eax
    f625:	48 98                	cltq   
    f627:	48 8d 14 85 00 00 00 	lea    0x0(,%rax,4),%rdx
    f62e:	00 
    f62f:	48 8d 05 9a 71 00 00 	lea    0x719a(%rip),%rax        # 167d0 <g_2401>
    f636:	8b 04 02             	mov    (%rdx,%rax,1),%eax
    f639:	48 98                	cltq   
    f63b:	8b 55 fc             	mov    -0x4(%rbp),%edx
    f63e:	48 8d 35 b4 2f 00 00 	lea    0x2fb4(%rip),%rsi        # 125f9 <g_3193+0x14f9>
    f645:	48 89 c7             	mov    %rax,%rdi
    f648:	e8 a6 70 ff ff       	callq  66f3 <transparent_crc>
    f64d:	8b 45 f0             	mov    -0x10(%rbp),%eax
    f650:	48 98                	cltq   
    f652:	48 8d 14 85 00 00 00 	lea    0x0(,%rax,4),%rdx
    f659:	00 
    f65a:	48 8d 05 6f 71 00 00 	lea    0x716f(%rip),%rax        # 167d0 <g_2401>
    f661:	8b 04 02             	mov    (%rdx,%rax,1),%eax
    f664:	48 98                	cltq   
    f666:	8b 55 fc             	mov    -0x4(%rbp),%edx
    f669:	48 8d 35 96 2f 00 00 	lea    0x2f96(%rip),%rsi        # 12606 <g_3193+0x1506>
    f670:	48 89 c7             	mov    %rax,%rdi
    f673:	e8 7b 70 ff ff       	callq  66f3 <transparent_crc>
    f678:	8b 45 f0             	mov    -0x10(%rbp),%eax
    f67b:	48 98                	cltq   
    f67d:	48 8d 14 85 00 00 00 	lea    0x0(,%rax,4),%rdx
    f684:	00 
    f685:	48 8d 05 44 71 00 00 	lea    0x7144(%rip),%rax        # 167d0 <g_2401>
    f68c:	8b 04 02             	mov    (%rdx,%rax,1),%eax
    f68f:	48 98                	cltq   
    f691:	8b 55 fc             	mov    -0x4(%rbp),%edx
    f694:	48 8d 35 78 2f 00 00 	lea    0x2f78(%rip),%rsi        # 12613 <g_3193+0x1513>
    f69b:	48 89 c7             	mov    %rax,%rdi
    f69e:	e8 50 70 ff ff       	callq  66f3 <transparent_crc>
    f6a3:	83 7d fc 00          	cmpl   $0x0,-0x4(%rbp)
    f6a7:	74 16                	je     f6bf <main+0x1979>
    f6a9:	8b 45 f0             	mov    -0x10(%rbp),%eax
    f6ac:	89 c6                	mov    %eax,%esi
    f6ae:	48 8d 3d 92 29 00 00 	lea    0x2992(%rip),%rdi        # 12047 <g_3193+0xf47>
    f6b5:	b8 00 00 00 00       	mov    $0x0,%eax
    f6ba:	e8 c1 59 ff ff       	callq  5080 <printf@plt>
    f6bf:	83 45 f0 01          	addl   $0x1,-0x10(%rbp)
    f6c3:	83 7d f0 05          	cmpl   $0x5,-0x10(%rbp)
    f6c7:	0f 8e 55 ff ff ff    	jle    f622 <main+0x18dc>
    f6cd:	c7 45 f0 00 00 00 00 	movl   $0x0,-0x10(%rbp)
    f6d4:	eb 70                	jmp    f746 <main+0x1a00>
    f6d6:	c7 45 f4 00 00 00 00 	movl   $0x0,-0xc(%rbp)
    f6dd:	eb 5d                	jmp    f73c <main+0x19f6>
    f6df:	8b 45 f4             	mov    -0xc(%rbp),%eax
    f6e2:	48 98                	cltq   
    f6e4:	8b 55 f0             	mov    -0x10(%rbp),%edx
    f6e7:	48 63 d2             	movslq %edx,%rdx
    f6ea:	48 01 d2             	add    %rdx,%rdx
    f6ed:	48 01 d0             	add    %rdx,%rax
    f6f0:	48 8d 14 85 00 00 00 	lea    0x0(,%rax,4),%rdx
    f6f7:	00 
    f6f8:	48 8d 05 01 71 00 00 	lea    0x7101(%rip),%rax        # 16800 <g_2436>
    f6ff:	0f b7 04 02          	movzwl (%rdx,%rax,1),%eax
    f703:	48 0f bf c0          	movswq %ax,%rax
    f707:	8b 55 fc             	mov    -0x4(%rbp),%edx
    f70a:	48 8d 35 0f 2f 00 00 	lea    0x2f0f(%rip),%rsi        # 12620 <g_3193+0x1520>
    f711:	48 89 c7             	mov    %rax,%rdi
    f714:	e8 da 6f ff ff       	callq  66f3 <transparent_crc>
    f719:	83 7d fc 00          	cmpl   $0x0,-0x4(%rbp)
    f71d:	74 19                	je     f738 <main+0x19f2>
    f71f:	8b 55 f4             	mov    -0xc(%rbp),%edx
    f722:	8b 45 f0             	mov    -0x10(%rbp),%eax
    f725:	89 c6                	mov    %eax,%esi
    f727:	48 8d 3d fe 29 00 00 	lea    0x29fe(%rip),%rdi        # 1212c <g_3193+0x102c>
    f72e:	b8 00 00 00 00       	mov    $0x0,%eax
    f733:	e8 48 59 ff ff       	callq  5080 <printf@plt>
    f738:	83 45 f4 01          	addl   $0x1,-0xc(%rbp)
    f73c:	83 7d f4 01          	cmpl   $0x1,-0xc(%rbp)
    f740:	7e 9d                	jle    f6df <main+0x1999>
    f742:	83 45 f0 01          	addl   $0x1,-0x10(%rbp)
    f746:	83 7d f0 08          	cmpl   $0x8,-0x10(%rbp)
    f74a:	7e 8a                	jle    f6d6 <main+0x1990>
    f74c:	c7 45 f0 00 00 00 00 	movl   $0x0,-0x10(%rbp)
    f753:	eb 4b                	jmp    f7a0 <main+0x1a5a>
    f755:	8b 45 f0             	mov    -0x10(%rbp),%eax
    f758:	48 98                	cltq   
    f75a:	48 8d 14 85 00 00 00 	lea    0x0(,%rax,4),%rdx
    f761:	00 
    f762:	48 8d 05 f7 70 00 00 	lea    0x70f7(%rip),%rax        # 16860 <g_2459>
    f769:	8b 04 02             	mov    (%rdx,%rax,1),%eax
    f76c:	48 98                	cltq   
    f76e:	8b 55 fc             	mov    -0x4(%rbp),%edx
    f771:	48 8d 35 b8 2e 00 00 	lea    0x2eb8(%rip),%rsi        # 12630 <g_3193+0x1530>
    f778:	48 89 c7             	mov    %rax,%rdi
    f77b:	e8 73 6f ff ff       	callq  66f3 <transparent_crc>
    f780:	83 7d fc 00          	cmpl   $0x0,-0x4(%rbp)
    f784:	74 16                	je     f79c <main+0x1a56>
    f786:	8b 45 f0             	mov    -0x10(%rbp),%eax
    f789:	89 c6                	mov    %eax,%esi
    f78b:	48 8d 3d b5 28 00 00 	lea    0x28b5(%rip),%rdi        # 12047 <g_3193+0xf47>
    f792:	b8 00 00 00 00       	mov    $0x0,%eax
    f797:	e8 e4 58 ff ff       	callq  5080 <printf@plt>
    f79c:	83 45 f0 01          	addl   $0x1,-0x10(%rbp)
    f7a0:	83 7d f0 09          	cmpl   $0x9,-0x10(%rbp)
    f7a4:	7e af                	jle    f755 <main+0x1a0f>
    f7a6:	c7 45 f0 00 00 00 00 	movl   $0x0,-0x10(%rbp)
    f7ad:	eb 46                	jmp    f7f5 <main+0x1aaf>
    f7af:	8b 45 f0             	mov    -0x10(%rbp),%eax
    f7b2:	48 98                	cltq   
    f7b4:	48 8d 15 cd 70 00 00 	lea    0x70cd(%rip),%rdx        # 16888 <g_2500>
    f7bb:	0f b6 04 10          	movzbl (%rax,%rdx,1),%eax
    f7bf:	48 0f be c0          	movsbq %al,%rax
    f7c3:	8b 55 fc             	mov    -0x4(%rbp),%edx
    f7c6:	48 8d 35 6d 2e 00 00 	lea    0x2e6d(%rip),%rsi        # 1263a <g_3193+0x153a>
    f7cd:	48 89 c7             	mov    %rax,%rdi
    f7d0:	e8 1e 6f ff ff       	callq  66f3 <transparent_crc>
    f7d5:	83 7d fc 00          	cmpl   $0x0,-0x4(%rbp)
    f7d9:	74 16                	je     f7f1 <main+0x1aab>
    f7db:	8b 45 f0             	mov    -0x10(%rbp),%eax
    f7de:	89 c6                	mov    %eax,%esi
    f7e0:	48 8d 3d 60 28 00 00 	lea    0x2860(%rip),%rdi        # 12047 <g_3193+0xf47>
    f7e7:	b8 00 00 00 00       	mov    $0x0,%eax
    f7ec:	e8 8f 58 ff ff       	callq  5080 <printf@plt>
    f7f1:	83 45 f0 01          	addl   $0x1,-0x10(%rbp)
    f7f5:	83 7d f0 03          	cmpl   $0x3,-0x10(%rbp)
    f7f9:	7e b4                	jle    f7af <main+0x1a69>
    f7fb:	0f b7 05 8a 70 00 00 	movzwl 0x708a(%rip),%eax        # 1688c <g_2506>
    f802:	0f b7 c0             	movzwl %ax,%eax
    f805:	8b 55 fc             	mov    -0x4(%rbp),%edx
    f808:	48 8d 35 35 2e 00 00 	lea    0x2e35(%rip),%rsi        # 12644 <g_3193+0x1544>
    f80f:	48 89 c7             	mov    %rax,%rdi
    f812:	e8 dc 6e ff ff       	callq  66f3 <transparent_crc>
    f817:	0f b7 05 70 70 00 00 	movzwl 0x7070(%rip),%eax        # 1688e <g_2569>
    f81e:	48 0f bf c0          	movswq %ax,%rax
    f822:	8b 55 fc             	mov    -0x4(%rbp),%edx
    f825:	48 8d 35 1f 2e 00 00 	lea    0x2e1f(%rip),%rsi        # 1264b <g_3193+0x154b>
    f82c:	48 89 c7             	mov    %rax,%rdi
    f82f:	e8 bf 6e ff ff       	callq  66f3 <transparent_crc>
    f834:	8b 05 56 70 00 00    	mov    0x7056(%rip),%eax        # 16890 <g_2570>
    f83a:	48 98                	cltq   
    f83c:	8b 55 fc             	mov    -0x4(%rbp),%edx
    f83f:	48 8d 35 0c 2e 00 00 	lea    0x2e0c(%rip),%rsi        # 12652 <g_3193+0x1552>
    f846:	48 89 c7             	mov    %rax,%rdi
    f849:	e8 a5 6e ff ff       	callq  66f3 <transparent_crc>
    f84e:	8b 05 40 70 00 00    	mov    0x7040(%rip),%eax        # 16894 <g_2633>
    f854:	48 98                	cltq   
    f856:	8b 55 fc             	mov    -0x4(%rbp),%edx
    f859:	48 8d 35 f9 2d 00 00 	lea    0x2df9(%rip),%rsi        # 12659 <g_3193+0x1559>
    f860:	48 89 c7             	mov    %rax,%rdi
    f863:	e8 8b 6e ff ff       	callq  66f3 <transparent_crc>
    f868:	8b 05 2a 70 00 00    	mov    0x702a(%rip),%eax        # 16898 <g_2665>
    f86e:	48 98                	cltq   
    f870:	8b 55 fc             	mov    -0x4(%rbp),%edx
    f873:	48 8d 35 e6 2d 00 00 	lea    0x2de6(%rip),%rsi        # 12660 <g_3193+0x1560>
    f87a:	48 89 c7             	mov    %rax,%rdi
    f87d:	e8 71 6e ff ff       	callq  66f3 <transparent_crc>
    f882:	8b 05 14 70 00 00    	mov    0x7014(%rip),%eax        # 1689c <g_2742>
    f888:	48 98                	cltq   
    f88a:	8b 55 fc             	mov    -0x4(%rbp),%edx
    f88d:	48 8d 35 d3 2d 00 00 	lea    0x2dd3(%rip),%rsi        # 12667 <g_3193+0x1567>
    f894:	48 89 c7             	mov    %rax,%rdi
    f897:	e8 57 6e ff ff       	callq  66f3 <transparent_crc>
    f89c:	8b 05 fe 6f 00 00    	mov    0x6ffe(%rip),%eax        # 168a0 <g_2805>
    f8a2:	48 98                	cltq   
    f8a4:	8b 55 fc             	mov    -0x4(%rbp),%edx
    f8a7:	48 8d 35 c0 2d 00 00 	lea    0x2dc0(%rip),%rsi        # 1266e <g_3193+0x156e>
    f8ae:	48 89 c7             	mov    %rax,%rdi
    f8b1:	e8 3d 6e ff ff       	callq  66f3 <transparent_crc>
    f8b6:	8b 05 e4 6f 00 00    	mov    0x6fe4(%rip),%eax        # 168a0 <g_2805>
    f8bc:	48 98                	cltq   
    f8be:	8b 55 fc             	mov    -0x4(%rbp),%edx
    f8c1:	48 8d 35 b0 2d 00 00 	lea    0x2db0(%rip),%rsi        # 12678 <g_3193+0x1578>
    f8c8:	48 89 c7             	mov    %rax,%rdi
    f8cb:	e8 23 6e ff ff       	callq  66f3 <transparent_crc>
    f8d0:	8b 05 ca 6f 00 00    	mov    0x6fca(%rip),%eax        # 168a0 <g_2805>
    f8d6:	48 98                	cltq   
    f8d8:	8b 55 fc             	mov    -0x4(%rbp),%edx
    f8db:	48 8d 35 a0 2d 00 00 	lea    0x2da0(%rip),%rsi        # 12682 <g_3193+0x1582>
    f8e2:	48 89 c7             	mov    %rax,%rdi
    f8e5:	e8 09 6e ff ff       	callq  66f3 <transparent_crc>
    f8ea:	c7 45 f0 00 00 00 00 	movl   $0x0,-0x10(%rbp)
    f8f1:	e9 fa 00 00 00       	jmpq   f9f0 <main+0x1caa>
    f8f6:	c7 45 f4 00 00 00 00 	movl   $0x0,-0xc(%rbp)
    f8fd:	e9 e0 00 00 00       	jmpq   f9e2 <main+0x1c9c>
    f902:	8b 45 f4             	mov    -0xc(%rbp),%eax
    f905:	48 63 c8             	movslq %eax,%rcx
    f908:	8b 45 f0             	mov    -0x10(%rbp),%eax
    f90b:	48 63 d0             	movslq %eax,%rdx
    f90e:	48 89 d0             	mov    %rdx,%rax
    f911:	48 c1 e0 02          	shl    $0x2,%rax
    f915:	48 01 d0             	add    %rdx,%rax
    f918:	48 01 c8             	add    %rcx,%rax
    f91b:	48 8d 14 85 00 00 00 	lea    0x0(,%rax,4),%rdx
    f922:	00 
    f923:	48 8d 05 96 6f 00 00 	lea    0x6f96(%rip),%rax        # 168c0 <g_2821>
    f92a:	8b 04 02             	mov    (%rdx,%rax,1),%eax
    f92d:	48 98                	cltq   
    f92f:	8b 55 fc             	mov    -0x4(%rbp),%edx
    f932:	48 8d 35 53 2d 00 00 	lea    0x2d53(%rip),%rsi        # 1268c <g_3193+0x158c>
    f939:	48 89 c7             	mov    %rax,%rdi
    f93c:	e8 b2 6d ff ff       	callq  66f3 <transparent_crc>
    f941:	8b 45 f4             	mov    -0xc(%rbp),%eax
    f944:	48 63 c8             	movslq %eax,%rcx
    f947:	8b 45 f0             	mov    -0x10(%rbp),%eax
    f94a:	48 63 d0             	movslq %eax,%rdx
    f94d:	48 89 d0             	mov    %rdx,%rax
    f950:	48 c1 e0 02          	shl    $0x2,%rax
    f954:	48 01 d0             	add    %rdx,%rax
    f957:	48 01 c8             	add    %rcx,%rax
    f95a:	48 8d 14 85 00 00 00 	lea    0x0(,%rax,4),%rdx
    f961:	00 
    f962:	48 8d 05 57 6f 00 00 	lea    0x6f57(%rip),%rax        # 168c0 <g_2821>
    f969:	8b 04 02             	mov    (%rdx,%rax,1),%eax
    f96c:	48 98                	cltq   
    f96e:	8b 55 fc             	mov    -0x4(%rbp),%edx
    f971:	48 8d 35 24 2d 00 00 	lea    0x2d24(%rip),%rsi        # 1269c <g_3193+0x159c>
    f978:	48 89 c7             	mov    %rax,%rdi
    f97b:	e8 73 6d ff ff       	callq  66f3 <transparent_crc>
    f980:	8b 45 f4             	mov    -0xc(%rbp),%eax
    f983:	48 63 c8             	movslq %eax,%rcx
    f986:	8b 45 f0             	mov    -0x10(%rbp),%eax
    f989:	48 63 d0             	movslq %eax,%rdx
    f98c:	48 89 d0             	mov    %rdx,%rax
    f98f:	48 c1 e0 02          	shl    $0x2,%rax
    f993:	48 01 d0             	add    %rdx,%rax
    f996:	48 01 c8             	add    %rcx,%rax
    f999:	48 8d 14 85 00 00 00 	lea    0x0(,%rax,4),%rdx
    f9a0:	00 
    f9a1:	48 8d 05 18 6f 00 00 	lea    0x6f18(%rip),%rax        # 168c0 <g_2821>
    f9a8:	8b 04 02             	mov    (%rdx,%rax,1),%eax
    f9ab:	48 98                	cltq   
    f9ad:	8b 55 fc             	mov    -0x4(%rbp),%edx
    f9b0:	48 8d 35 f5 2c 00 00 	lea    0x2cf5(%rip),%rsi        # 126ac <g_3193+0x15ac>
    f9b7:	48 89 c7             	mov    %rax,%rdi
    f9ba:	e8 34 6d ff ff       	callq  66f3 <transparent_crc>
    f9bf:	83 7d fc 00          	cmpl   $0x0,-0x4(%rbp)
    f9c3:	74 19                	je     f9de <main+0x1c98>
    f9c5:	8b 55 f4             	mov    -0xc(%rbp),%edx
    f9c8:	8b 45 f0             	mov    -0x10(%rbp),%eax
    f9cb:	89 c6                	mov    %eax,%esi
    f9cd:	48 8d 3d 58 27 00 00 	lea    0x2758(%rip),%rdi        # 1212c <g_3193+0x102c>
    f9d4:	b8 00 00 00 00       	mov    $0x0,%eax
    f9d9:	e8 a2 56 ff ff       	callq  5080 <printf@plt>
    f9de:	83 45 f4 01          	addl   $0x1,-0xc(%rbp)
    f9e2:	83 7d f4 04          	cmpl   $0x4,-0xc(%rbp)
    f9e6:	0f 8e 16 ff ff ff    	jle    f902 <main+0x1bbc>
    f9ec:	83 45 f0 01          	addl   $0x1,-0x10(%rbp)
    f9f0:	83 7d f0 02          	cmpl   $0x2,-0x10(%rbp)
    f9f4:	0f 8e fc fe ff ff    	jle    f8f6 <main+0x1bb0>
    f9fa:	b8 00 00 00 00       	mov    $0x0,%eax
    f9ff:	48 98                	cltq   
    fa01:	8b 55 fc             	mov    -0x4(%rbp),%edx
    fa04:	48 8d 35 b1 2c 00 00 	lea    0x2cb1(%rip),%rsi        # 126bc <g_3193+0x15bc>
    fa0b:	48 89 c7             	mov    %rax,%rdi
    fa0e:	e8 e0 6c ff ff       	callq  66f3 <transparent_crc>
    fa13:	8b 05 e3 6e 00 00    	mov    0x6ee3(%rip),%eax        # 168fc <g_2862>
    fa19:	48 98                	cltq   
    fa1b:	8b 55 fc             	mov    -0x4(%rbp),%edx
    fa1e:	48 8d 35 9e 2c 00 00 	lea    0x2c9e(%rip),%rsi        # 126c3 <g_3193+0x15c3>
    fa25:	48 89 c7             	mov    %rax,%rdi
    fa28:	e8 c6 6c ff ff       	callq  66f3 <transparent_crc>
    fa2d:	8b 05 c9 6e 00 00    	mov    0x6ec9(%rip),%eax        # 168fc <g_2862>
    fa33:	48 98                	cltq   
    fa35:	8b 55 fc             	mov    -0x4(%rbp),%edx
    fa38:	48 8d 35 8e 2c 00 00 	lea    0x2c8e(%rip),%rsi        # 126cd <g_3193+0x15cd>
    fa3f:	48 89 c7             	mov    %rax,%rdi
    fa42:	e8 ac 6c ff ff       	callq  66f3 <transparent_crc>
    fa47:	8b 05 af 6e 00 00    	mov    0x6eaf(%rip),%eax        # 168fc <g_2862>
    fa4d:	48 98                	cltq   
    fa4f:	8b 55 fc             	mov    -0x4(%rbp),%edx
    fa52:	48 8d 35 7e 2c 00 00 	lea    0x2c7e(%rip),%rsi        # 126d7 <g_3193+0x15d7>
    fa59:	48 89 c7             	mov    %rax,%rdi
    fa5c:	e8 92 6c ff ff       	callq  66f3 <transparent_crc>
    fa61:	8b 05 99 6e 00 00    	mov    0x6e99(%rip),%eax        # 16900 <g_2863>
    fa67:	48 98                	cltq   
    fa69:	8b 55 fc             	mov    -0x4(%rbp),%edx
    fa6c:	48 8d 35 6e 2c 00 00 	lea    0x2c6e(%rip),%rsi        # 126e1 <g_3193+0x15e1>
    fa73:	48 89 c7             	mov    %rax,%rdi
    fa76:	e8 78 6c ff ff       	callq  66f3 <transparent_crc>
    fa7b:	8b 05 7f 6e 00 00    	mov    0x6e7f(%rip),%eax        # 16900 <g_2863>
    fa81:	48 98                	cltq   
    fa83:	8b 55 fc             	mov    -0x4(%rbp),%edx
    fa86:	48 8d 35 5e 2c 00 00 	lea    0x2c5e(%rip),%rsi        # 126eb <g_3193+0x15eb>
    fa8d:	48 89 c7             	mov    %rax,%rdi
    fa90:	e8 5e 6c ff ff       	callq  66f3 <transparent_crc>
    fa95:	8b 05 65 6e 00 00    	mov    0x6e65(%rip),%eax        # 16900 <g_2863>
    fa9b:	48 98                	cltq   
    fa9d:	8b 55 fc             	mov    -0x4(%rbp),%edx
    faa0:	48 8d 35 4e 2c 00 00 	lea    0x2c4e(%rip),%rsi        # 126f5 <g_3193+0x15f5>
    faa7:	48 89 c7             	mov    %rax,%rdi
    faaa:	e8 44 6c ff ff       	callq  66f3 <transparent_crc>
    faaf:	8b 05 e3 90 00 00    	mov    0x90e3(%rip),%eax        # 18b98 <g_2864>
    fab5:	48 98                	cltq   
    fab7:	8b 55 fc             	mov    -0x4(%rbp),%edx
    faba:	48 8d 35 3e 2c 00 00 	lea    0x2c3e(%rip),%rsi        # 126ff <g_3193+0x15ff>
    fac1:	48 89 c7             	mov    %rax,%rdi
    fac4:	e8 2a 6c ff ff       	callq  66f3 <transparent_crc>
    fac9:	8b 05 c9 90 00 00    	mov    0x90c9(%rip),%eax        # 18b98 <g_2864>
    facf:	48 98                	cltq   
    fad1:	8b 55 fc             	mov    -0x4(%rbp),%edx
    fad4:	48 8d 35 2e 2c 00 00 	lea    0x2c2e(%rip),%rsi        # 12709 <g_3193+0x1609>
    fadb:	48 89 c7             	mov    %rax,%rdi
    fade:	e8 10 6c ff ff       	callq  66f3 <transparent_crc>
    fae3:	8b 05 af 90 00 00    	mov    0x90af(%rip),%eax        # 18b98 <g_2864>
    fae9:	48 98                	cltq   
    faeb:	8b 55 fc             	mov    -0x4(%rbp),%edx
    faee:	48 8d 35 1e 2c 00 00 	lea    0x2c1e(%rip),%rsi        # 12713 <g_3193+0x1613>
    faf5:	48 89 c7             	mov    %rax,%rdi
    faf8:	e8 f6 6b ff ff       	callq  66f3 <transparent_crc>
    fafd:	8b 05 01 6e 00 00    	mov    0x6e01(%rip),%eax        # 16904 <g_2865>
    fb03:	48 98                	cltq   
    fb05:	8b 55 fc             	mov    -0x4(%rbp),%edx
    fb08:	48 8d 35 0e 2c 00 00 	lea    0x2c0e(%rip),%rsi        # 1271d <g_3193+0x161d>
    fb0f:	48 89 c7             	mov    %rax,%rdi
    fb12:	e8 dc 6b ff ff       	callq  66f3 <transparent_crc>
    fb17:	8b 05 e7 6d 00 00    	mov    0x6de7(%rip),%eax        # 16904 <g_2865>
    fb1d:	48 98                	cltq   
    fb1f:	8b 55 fc             	mov    -0x4(%rbp),%edx
    fb22:	48 8d 35 fe 2b 00 00 	lea    0x2bfe(%rip),%rsi        # 12727 <g_3193+0x1627>
    fb29:	48 89 c7             	mov    %rax,%rdi
    fb2c:	e8 c2 6b ff ff       	callq  66f3 <transparent_crc>
    fb31:	8b 05 cd 6d 00 00    	mov    0x6dcd(%rip),%eax        # 16904 <g_2865>
    fb37:	48 98                	cltq   
    fb39:	8b 55 fc             	mov    -0x4(%rbp),%edx
    fb3c:	48 8d 35 ee 2b 00 00 	lea    0x2bee(%rip),%rsi        # 12731 <g_3193+0x1631>
    fb43:	48 89 c7             	mov    %rax,%rdi
    fb46:	e8 a8 6b ff ff       	callq  66f3 <transparent_crc>
    fb4b:	8b 05 b7 6d 00 00    	mov    0x6db7(%rip),%eax        # 16908 <g_2866>
    fb51:	48 98                	cltq   
    fb53:	8b 55 fc             	mov    -0x4(%rbp),%edx
    fb56:	48 8d 35 de 2b 00 00 	lea    0x2bde(%rip),%rsi        # 1273b <g_3193+0x163b>
    fb5d:	48 89 c7             	mov    %rax,%rdi
    fb60:	e8 8e 6b ff ff       	callq  66f3 <transparent_crc>
    fb65:	8b 05 9d 6d 00 00    	mov    0x6d9d(%rip),%eax        # 16908 <g_2866>
    fb6b:	48 98                	cltq   
    fb6d:	8b 55 fc             	mov    -0x4(%rbp),%edx
    fb70:	48 8d 35 ce 2b 00 00 	lea    0x2bce(%rip),%rsi        # 12745 <g_3193+0x1645>
    fb77:	48 89 c7             	mov    %rax,%rdi
    fb7a:	e8 74 6b ff ff       	callq  66f3 <transparent_crc>
    fb7f:	8b 05 83 6d 00 00    	mov    0x6d83(%rip),%eax        # 16908 <g_2866>
    fb85:	48 98                	cltq   
    fb87:	8b 55 fc             	mov    -0x4(%rbp),%edx
    fb8a:	48 8d 35 be 2b 00 00 	lea    0x2bbe(%rip),%rsi        # 1274f <g_3193+0x164f>
    fb91:	48 89 c7             	mov    %rax,%rdi
    fb94:	e8 5a 6b ff ff       	callq  66f3 <transparent_crc>
    fb99:	8b 05 6d 6d 00 00    	mov    0x6d6d(%rip),%eax        # 1690c <g_2867>
    fb9f:	48 98                	cltq   
    fba1:	8b 55 fc             	mov    -0x4(%rbp),%edx
    fba4:	48 8d 35 ae 2b 00 00 	lea    0x2bae(%rip),%rsi        # 12759 <g_3193+0x1659>
    fbab:	48 89 c7             	mov    %rax,%rdi
    fbae:	e8 40 6b ff ff       	callq  66f3 <transparent_crc>
    fbb3:	8b 05 53 6d 00 00    	mov    0x6d53(%rip),%eax        # 1690c <g_2867>
    fbb9:	48 98                	cltq   
    fbbb:	8b 55 fc             	mov    -0x4(%rbp),%edx
    fbbe:	48 8d 35 9e 2b 00 00 	lea    0x2b9e(%rip),%rsi        # 12763 <g_3193+0x1663>
    fbc5:	48 89 c7             	mov    %rax,%rdi
    fbc8:	e8 26 6b ff ff       	callq  66f3 <transparent_crc>
    fbcd:	8b 05 39 6d 00 00    	mov    0x6d39(%rip),%eax        # 1690c <g_2867>
    fbd3:	48 98                	cltq   
    fbd5:	8b 55 fc             	mov    -0x4(%rbp),%edx
    fbd8:	48 8d 35 8e 2b 00 00 	lea    0x2b8e(%rip),%rsi        # 1276d <g_3193+0x166d>
    fbdf:	48 89 c7             	mov    %rax,%rdi
    fbe2:	e8 0c 6b ff ff       	callq  66f3 <transparent_crc>
    fbe7:	c7 45 f0 00 00 00 00 	movl   $0x0,-0x10(%rbp)
    fbee:	e9 e2 00 00 00       	jmpq   fcd5 <main+0x1f8f>
    fbf3:	c7 45 f4 00 00 00 00 	movl   $0x0,-0xc(%rbp)
    fbfa:	e9 c8 00 00 00       	jmpq   fcc7 <main+0x1f81>
    fbff:	8b 45 f4             	mov    -0xc(%rbp),%eax
    fc02:	48 98                	cltq   
    fc04:	8b 55 f0             	mov    -0x10(%rbp),%edx
    fc07:	48 63 d2             	movslq %edx,%rdx
    fc0a:	48 01 d2             	add    %rdx,%rdx
    fc0d:	48 01 d0             	add    %rdx,%rax
    fc10:	48 8d 14 85 00 00 00 	lea    0x0(,%rax,4),%rdx
    fc17:	00 
    fc18:	48 8d 05 01 6d 00 00 	lea    0x6d01(%rip),%rax        # 16920 <g_2868>
    fc1f:	8b 04 02             	mov    (%rdx,%rax,1),%eax
    fc22:	48 98                	cltq   
    fc24:	8b 55 fc             	mov    -0x4(%rbp),%edx
    fc27:	48 8d 35 49 2b 00 00 	lea    0x2b49(%rip),%rsi        # 12777 <g_3193+0x1677>
    fc2e:	48 89 c7             	mov    %rax,%rdi
    fc31:	e8 bd 6a ff ff       	callq  66f3 <transparent_crc>
    fc36:	8b 45 f4             	mov    -0xc(%rbp),%eax
    fc39:	48 98                	cltq   
    fc3b:	8b 55 f0             	mov    -0x10(%rbp),%edx
    fc3e:	48 63 d2             	movslq %edx,%rdx
    fc41:	48 01 d2             	add    %rdx,%rdx
    fc44:	48 01 d0             	add    %rdx,%rax
    fc47:	48 8d 14 85 00 00 00 	lea    0x0(,%rax,4),%rdx
    fc4e:	00 
    fc4f:	48 8d 05 ca 6c 00 00 	lea    0x6cca(%rip),%rax        # 16920 <g_2868>
    fc56:	8b 04 02             	mov    (%rdx,%rax,1),%eax
    fc59:	48 98                	cltq   
    fc5b:	8b 55 fc             	mov    -0x4(%rbp),%edx
    fc5e:	48 8d 35 22 2b 00 00 	lea    0x2b22(%rip),%rsi        # 12787 <g_3193+0x1687>
    fc65:	48 89 c7             	mov    %rax,%rdi
    fc68:	e8 86 6a ff ff       	callq  66f3 <transparent_crc>
    fc6d:	8b 45 f4             	mov    -0xc(%rbp),%eax
    fc70:	48 98                	cltq   
    fc72:	8b 55 f0             	mov    -0x10(%rbp),%edx
    fc75:	48 63 d2             	movslq %edx,%rdx
    fc78:	48 01 d2             	add    %rdx,%rdx
    fc7b:	48 01 d0             	add    %rdx,%rax
    fc7e:	48 8d 14 85 00 00 00 	lea    0x0(,%rax,4),%rdx
    fc85:	00 
    fc86:	48 8d 05 93 6c 00 00 	lea    0x6c93(%rip),%rax        # 16920 <g_2868>
    fc8d:	8b 04 02             	mov    (%rdx,%rax,1),%eax
    fc90:	48 98                	cltq   
    fc92:	8b 55 fc             	mov    -0x4(%rbp),%edx
    fc95:	48 8d 35 fb 2a 00 00 	lea    0x2afb(%rip),%rsi        # 12797 <g_3193+0x1697>
    fc9c:	48 89 c7             	mov    %rax,%rdi
    fc9f:	e8 4f 6a ff ff       	callq  66f3 <transparent_crc>
    fca4:	83 7d fc 00          	cmpl   $0x0,-0x4(%rbp)
    fca8:	74 19                	je     fcc3 <main+0x1f7d>
    fcaa:	8b 55 f4             	mov    -0xc(%rbp),%edx
    fcad:	8b 45 f0             	mov    -0x10(%rbp),%eax
    fcb0:	89 c6                	mov    %eax,%esi
    fcb2:	48 8d 3d 73 24 00 00 	lea    0x2473(%rip),%rdi        # 1212c <g_3193+0x102c>
    fcb9:	b8 00 00 00 00       	mov    $0x0,%eax
    fcbe:	e8 bd 53 ff ff       	callq  5080 <printf@plt>
    fcc3:	83 45 f4 01          	addl   $0x1,-0xc(%rbp)
    fcc7:	83 7d f4 01          	cmpl   $0x1,-0xc(%rbp)
    fccb:	0f 8e 2e ff ff ff    	jle    fbff <main+0x1eb9>
    fcd1:	83 45 f0 01          	addl   $0x1,-0x10(%rbp)
    fcd5:	83 7d f0 08          	cmpl   $0x8,-0x10(%rbp)
    fcd9:	0f 8e 14 ff ff ff    	jle    fbf3 <main+0x1ead>
    fcdf:	8b 05 83 6c 00 00    	mov    0x6c83(%rip),%eax        # 16968 <g_2869>
    fce5:	48 98                	cltq   
    fce7:	8b 55 fc             	mov    -0x4(%rbp),%edx
    fcea:	48 8d 35 b6 2a 00 00 	lea    0x2ab6(%rip),%rsi        # 127a7 <g_3193+0x16a7>
    fcf1:	48 89 c7             	mov    %rax,%rdi
    fcf4:	e8 fa 69 ff ff       	callq  66f3 <transparent_crc>
    fcf9:	8b 05 69 6c 00 00    	mov    0x6c69(%rip),%eax        # 16968 <g_2869>
    fcff:	48 98                	cltq   
    fd01:	8b 55 fc             	mov    -0x4(%rbp),%edx
    fd04:	48 8d 35 a6 2a 00 00 	lea    0x2aa6(%rip),%rsi        # 127b1 <g_3193+0x16b1>
    fd0b:	48 89 c7             	mov    %rax,%rdi
    fd0e:	e8 e0 69 ff ff       	callq  66f3 <transparent_crc>
    fd13:	8b 05 4f 6c 00 00    	mov    0x6c4f(%rip),%eax        # 16968 <g_2869>
    fd19:	48 98                	cltq   
    fd1b:	8b 55 fc             	mov    -0x4(%rbp),%edx
    fd1e:	48 8d 35 96 2a 00 00 	lea    0x2a96(%rip),%rsi        # 127bb <g_3193+0x16bb>
    fd25:	48 89 c7             	mov    %rax,%rdi
    fd28:	e8 c6 69 ff ff       	callq  66f3 <transparent_crc>
    fd2d:	8b 05 39 6c 00 00    	mov    0x6c39(%rip),%eax        # 1696c <g_2870>
    fd33:	48 98                	cltq   
    fd35:	8b 55 fc             	mov    -0x4(%rbp),%edx
    fd38:	48 8d 35 86 2a 00 00 	lea    0x2a86(%rip),%rsi        # 127c5 <g_3193+0x16c5>
    fd3f:	48 89 c7             	mov    %rax,%rdi
    fd42:	e8 ac 69 ff ff       	callq  66f3 <transparent_crc>
    fd47:	8b 05 1f 6c 00 00    	mov    0x6c1f(%rip),%eax        # 1696c <g_2870>
    fd4d:	48 98                	cltq   
    fd4f:	8b 55 fc             	mov    -0x4(%rbp),%edx
    fd52:	48 8d 35 76 2a 00 00 	lea    0x2a76(%rip),%rsi        # 127cf <g_3193+0x16cf>
    fd59:	48 89 c7             	mov    %rax,%rdi
    fd5c:	e8 92 69 ff ff       	callq  66f3 <transparent_crc>
    fd61:	8b 05 05 6c 00 00    	mov    0x6c05(%rip),%eax        # 1696c <g_2870>
    fd67:	48 98                	cltq   
    fd69:	8b 55 fc             	mov    -0x4(%rbp),%edx
    fd6c:	48 8d 35 66 2a 00 00 	lea    0x2a66(%rip),%rsi        # 127d9 <g_3193+0x16d9>
    fd73:	48 89 c7             	mov    %rax,%rdi
    fd76:	e8 78 69 ff ff       	callq  66f3 <transparent_crc>
    fd7b:	c7 45 f0 00 00 00 00 	movl   $0x0,-0x10(%rbp)
    fd82:	e9 e2 00 00 00       	jmpq   fe69 <main+0x2123>
    fd87:	c7 45 f4 00 00 00 00 	movl   $0x0,-0xc(%rbp)
    fd8e:	e9 c8 00 00 00       	jmpq   fe5b <main+0x2115>
    fd93:	8b 45 f4             	mov    -0xc(%rbp),%eax
    fd96:	48 98                	cltq   
    fd98:	8b 55 f0             	mov    -0x10(%rbp),%edx
    fd9b:	48 63 d2             	movslq %edx,%rdx
    fd9e:	48 01 d2             	add    %rdx,%rdx
    fda1:	48 01 d0             	add    %rdx,%rax
    fda4:	48 8d 14 85 00 00 00 	lea    0x0(,%rax,4),%rdx
    fdab:	00 
    fdac:	48 8d 05 cd 6b 00 00 	lea    0x6bcd(%rip),%rax        # 16980 <g_2871>
    fdb3:	8b 04 02             	mov    (%rdx,%rax,1),%eax
    fdb6:	48 98                	cltq   
    fdb8:	8b 55 fc             	mov    -0x4(%rbp),%edx
    fdbb:	48 8d 35 21 2a 00 00 	lea    0x2a21(%rip),%rsi        # 127e3 <g_3193+0x16e3>
    fdc2:	48 89 c7             	mov    %rax,%rdi
    fdc5:	e8 29 69 ff ff       	callq  66f3 <transparent_crc>
    fdca:	8b 45 f4             	mov    -0xc(%rbp),%eax
    fdcd:	48 98                	cltq   
    fdcf:	8b 55 f0             	mov    -0x10(%rbp),%edx
    fdd2:	48 63 d2             	movslq %edx,%rdx
    fdd5:	48 01 d2             	add    %rdx,%rdx
    fdd8:	48 01 d0             	add    %rdx,%rax
    fddb:	48 8d 14 85 00 00 00 	lea    0x0(,%rax,4),%rdx
    fde2:	00 
    fde3:	48 8d 05 96 6b 00 00 	lea    0x6b96(%rip),%rax        # 16980 <g_2871>
    fdea:	8b 04 02             	mov    (%rdx,%rax,1),%eax
    fded:	48 98                	cltq   
    fdef:	8b 55 fc             	mov    -0x4(%rbp),%edx
    fdf2:	48 8d 35 fa 29 00 00 	lea    0x29fa(%rip),%rsi        # 127f3 <g_3193+0x16f3>
    fdf9:	48 89 c7             	mov    %rax,%rdi
    fdfc:	e8 f2 68 ff ff       	callq  66f3 <transparent_crc>
    fe01:	8b 45 f4             	mov    -0xc(%rbp),%eax
    fe04:	48 98                	cltq   
    fe06:	8b 55 f0             	mov    -0x10(%rbp),%edx
    fe09:	48 63 d2             	movslq %edx,%rdx
    fe0c:	48 01 d2             	add    %rdx,%rdx
    fe0f:	48 01 d0             	add    %rdx,%rax
    fe12:	48 8d 14 85 00 00 00 	lea    0x0(,%rax,4),%rdx
    fe19:	00 
    fe1a:	48 8d 05 5f 6b 00 00 	lea    0x6b5f(%rip),%rax        # 16980 <g_2871>
    fe21:	8b 04 02             	mov    (%rdx,%rax,1),%eax
    fe24:	48 98                	cltq   
    fe26:	8b 55 fc             	mov    -0x4(%rbp),%edx
    fe29:	48 8d 35 d3 29 00 00 	lea    0x29d3(%rip),%rsi        # 12803 <g_3193+0x1703>
    fe30:	48 89 c7             	mov    %rax,%rdi
    fe33:	e8 bb 68 ff ff       	callq  66f3 <transparent_crc>
    fe38:	83 7d fc 00          	cmpl   $0x0,-0x4(%rbp)
    fe3c:	74 19                	je     fe57 <main+0x2111>
    fe3e:	8b 55 f4             	mov    -0xc(%rbp),%edx
    fe41:	8b 45 f0             	mov    -0x10(%rbp),%eax
    fe44:	89 c6                	mov    %eax,%esi
    fe46:	48 8d 3d df 22 00 00 	lea    0x22df(%rip),%rdi        # 1212c <g_3193+0x102c>
    fe4d:	b8 00 00 00 00       	mov    $0x0,%eax
    fe52:	e8 29 52 ff ff       	callq  5080 <printf@plt>
    fe57:	83 45 f4 01          	addl   $0x1,-0xc(%rbp)
    fe5b:	83 7d f4 01          	cmpl   $0x1,-0xc(%rbp)
    fe5f:	0f 8e 2e ff ff ff    	jle    fd93 <main+0x204d>
    fe65:	83 45 f0 01          	addl   $0x1,-0x10(%rbp)
    fe69:	83 7d f0 06          	cmpl   $0x6,-0x10(%rbp)
    fe6d:	0f 8e 14 ff ff ff    	jle    fd87 <main+0x2041>
    fe73:	8b 05 23 8d 00 00    	mov    0x8d23(%rip),%eax        # 18b9c <g_2872>
    fe79:	48 98                	cltq   
    fe7b:	8b 55 fc             	mov    -0x4(%rbp),%edx
    fe7e:	48 8d 35 8e 29 00 00 	lea    0x298e(%rip),%rsi        # 12813 <g_3193+0x1713>
    fe85:	48 89 c7             	mov    %rax,%rdi
    fe88:	e8 66 68 ff ff       	callq  66f3 <transparent_crc>
    fe8d:	8b 05 09 8d 00 00    	mov    0x8d09(%rip),%eax        # 18b9c <g_2872>
    fe93:	48 98                	cltq   
    fe95:	8b 55 fc             	mov    -0x4(%rbp),%edx
    fe98:	48 8d 35 7e 29 00 00 	lea    0x297e(%rip),%rsi        # 1281d <g_3193+0x171d>
    fe9f:	48 89 c7             	mov    %rax,%rdi
    fea2:	e8 4c 68 ff ff       	callq  66f3 <transparent_crc>
    fea7:	8b 05 ef 8c 00 00    	mov    0x8cef(%rip),%eax        # 18b9c <g_2872>
    fead:	48 98                	cltq   
    feaf:	8b 55 fc             	mov    -0x4(%rbp),%edx
    feb2:	48 8d 35 6e 29 00 00 	lea    0x296e(%rip),%rsi        # 12827 <g_3193+0x1727>
    feb9:	48 89 c7             	mov    %rax,%rdi
    febc:	e8 32 68 ff ff       	callq  66f3 <transparent_crc>
    fec1:	c7 45 f0 00 00 00 00 	movl   $0x0,-0x10(%rbp)
    fec8:	e9 32 01 00 00       	jmpq   ffff <main+0x22b9>
    fecd:	c7 45 f4 00 00 00 00 	movl   $0x0,-0xc(%rbp)
    fed4:	e9 18 01 00 00       	jmpq   fff1 <main+0x22ab>
    fed9:	c7 45 f8 00 00 00 00 	movl   $0x0,-0x8(%rbp)
    fee0:	e9 fe 00 00 00       	jmpq   ffe3 <main+0x229d>
    fee5:	8b 45 f8             	mov    -0x8(%rbp),%eax
    fee8:	48 63 f0             	movslq %eax,%rsi
    feeb:	8b 45 f4             	mov    -0xc(%rbp),%eax
    feee:	48 63 c8             	movslq %eax,%rcx
    fef1:	8b 45 f0             	mov    -0x10(%rbp),%eax
    fef4:	48 63 d0             	movslq %eax,%rdx
    fef7:	48 89 d0             	mov    %rdx,%rax
    fefa:	48 c1 e0 03          	shl    $0x3,%rax
    fefe:	48 01 d0             	add    %rdx,%rax
    ff01:	48 01 f0             	add    %rsi,%rax
    ff04:	48 01 c8             	add    %rcx,%rax
    ff07:	48 8d 14 85 00 00 00 	lea    0x0(,%rax,4),%rdx
    ff0e:	00 
    ff0f:	48 8d 05 aa 6a 00 00 	lea    0x6aaa(%rip),%rax        # 169c0 <g_2873>
    ff16:	8b 04 02             	mov    (%rdx,%rax,1),%eax
    ff19:	48 98                	cltq   
    ff1b:	8b 55 fc             	mov    -0x4(%rbp),%edx
    ff1e:	48 8d 35 0c 29 00 00 	lea    0x290c(%rip),%rsi        # 12831 <g_3193+0x1731>
    ff25:	48 89 c7             	mov    %rax,%rdi
    ff28:	e8 c6 67 ff ff       	callq  66f3 <transparent_crc>
    ff2d:	8b 45 f8             	mov    -0x8(%rbp),%eax
    ff30:	48 63 f0             	movslq %eax,%rsi
    ff33:	8b 45 f4             	mov    -0xc(%rbp),%eax
    ff36:	48 63 c8             	movslq %eax,%rcx
    ff39:	8b 45 f0             	mov    -0x10(%rbp),%eax
    ff3c:	48 63 d0             	movslq %eax,%rdx
    ff3f:	48 89 d0             	mov    %rdx,%rax
    ff42:	48 c1 e0 03          	shl    $0x3,%rax
    ff46:	48 01 d0             	add    %rdx,%rax
    ff49:	48 01 f0             	add    %rsi,%rax
    ff4c:	48 01 c8             	add    %rcx,%rax
    ff4f:	48 8d 14 85 00 00 00 	lea    0x0(,%rax,4),%rdx
    ff56:	00 
    ff57:	48 8d 05 62 6a 00 00 	lea    0x6a62(%rip),%rax        # 169c0 <g_2873>
    ff5e:	8b 04 02             	mov    (%rdx,%rax,1),%eax
    ff61:	48 98                	cltq   
    ff63:	8b 55 fc             	mov    -0x4(%rbp),%edx
    ff66:	48 8d 35 d7 28 00 00 	lea    0x28d7(%rip),%rsi        # 12844 <g_3193+0x1744>
    ff6d:	48 89 c7             	mov    %rax,%rdi
    ff70:	e8 7e 67 ff ff       	callq  66f3 <transparent_crc>
    ff75:	8b 45 f8             	mov    -0x8(%rbp),%eax
    ff78:	48 63 f0             	movslq %eax,%rsi
    ff7b:	8b 45 f4             	mov    -0xc(%rbp),%eax
    ff7e:	48 63 c8             	movslq %eax,%rcx
    ff81:	8b 45 f0             	mov    -0x10(%rbp),%eax
    ff84:	48 63 d0             	movslq %eax,%rdx
    ff87:	48 89 d0             	mov    %rdx,%rax
    ff8a:	48 c1 e0 03          	shl    $0x3,%rax
    ff8e:	48 01 d0             	add    %rdx,%rax
    ff91:	48 01 f0             	add    %rsi,%rax
    ff94:	48 01 c8             	add    %rcx,%rax
    ff97:	48 8d 14 85 00 00 00 	lea    0x0(,%rax,4),%rdx
    ff9e:	00 
    ff9f:	48 8d 05 1a 6a 00 00 	lea    0x6a1a(%rip),%rax        # 169c0 <g_2873>
    ffa6:	8b 04 02             	mov    (%rdx,%rax,1),%eax
    ffa9:	48 98                	cltq   
    ffab:	8b 55 fc             	mov    -0x4(%rbp),%edx
    ffae:	48 8d 35 a2 28 00 00 	lea    0x28a2(%rip),%rsi        # 12857 <g_3193+0x1757>
    ffb5:	48 89 c7             	mov    %rax,%rdi
    ffb8:	e8 36 67 ff ff       	callq  66f3 <transparent_crc>
    ffbd:	83 7d fc 00          	cmpl   $0x0,-0x4(%rbp)
    ffc1:	74 1c                	je     ffdf <main+0x2299>
    ffc3:	8b 4d f8             	mov    -0x8(%rbp),%ecx
    ffc6:	8b 55 f4             	mov    -0xc(%rbp),%edx
    ffc9:	8b 45 f0             	mov    -0x10(%rbp),%eax
    ffcc:	89 c6                	mov    %eax,%esi
    ffce:	48 8d 3d de 20 00 00 	lea    0x20de(%rip),%rdi        # 120b3 <g_3193+0xfb3>
    ffd5:	b8 00 00 00 00       	mov    $0x0,%eax
    ffda:	e8 a1 50 ff ff       	callq  5080 <printf@plt>
    ffdf:	83 45 f8 01          	addl   $0x1,-0x8(%rbp)
    ffe3:	83 7d f8 00          	cmpl   $0x0,-0x8(%rbp)
    ffe7:	0f 8e f8 fe ff ff    	jle    fee5 <main+0x219f>
    ffed:	83 45 f4 01          	addl   $0x1,-0xc(%rbp)
    fff1:	83 7d f4 08          	cmpl   $0x8,-0xc(%rbp)
    fff5:	0f 8e de fe ff ff    	jle    fed9 <main+0x2193>
    fffb:	83 45 f0 01          	addl   $0x1,-0x10(%rbp)
    ffff:	83 7d f0 09          	cmpl   $0x9,-0x10(%rbp)
   10003:	0f 8e c4 fe ff ff    	jle    fecd <main+0x2187>
   10009:	8b 05 19 6b 00 00    	mov    0x6b19(%rip),%eax        # 16b28 <g_2874>
   1000f:	48 98                	cltq   
   10011:	8b 55 fc             	mov    -0x4(%rbp),%edx
   10014:	48 8d 35 4f 28 00 00 	lea    0x284f(%rip),%rsi        # 1286a <g_3193+0x176a>
   1001b:	48 89 c7             	mov    %rax,%rdi
   1001e:	e8 d0 66 ff ff       	callq  66f3 <transparent_crc>
   10023:	8b 05 ff 6a 00 00    	mov    0x6aff(%rip),%eax        # 16b28 <g_2874>
   10029:	48 98                	cltq   
   1002b:	8b 55 fc             	mov    -0x4(%rbp),%edx
   1002e:	48 8d 35 3f 28 00 00 	lea    0x283f(%rip),%rsi        # 12874 <g_3193+0x1774>
   10035:	48 89 c7             	mov    %rax,%rdi
   10038:	e8 b6 66 ff ff       	callq  66f3 <transparent_crc>
   1003d:	8b 05 e5 6a 00 00    	mov    0x6ae5(%rip),%eax        # 16b28 <g_2874>
   10043:	48 98                	cltq   
   10045:	8b 55 fc             	mov    -0x4(%rbp),%edx
   10048:	48 8d 35 2f 28 00 00 	lea    0x282f(%rip),%rsi        # 1287e <g_3193+0x177e>
   1004f:	48 89 c7             	mov    %rax,%rdi
   10052:	e8 9c 66 ff ff       	callq  66f3 <transparent_crc>
   10057:	8b 05 cf 6a 00 00    	mov    0x6acf(%rip),%eax        # 16b2c <g_2875>
   1005d:	48 98                	cltq   
   1005f:	8b 55 fc             	mov    -0x4(%rbp),%edx
   10062:	48 8d 35 1f 28 00 00 	lea    0x281f(%rip),%rsi        # 12888 <g_3193+0x1788>
   10069:	48 89 c7             	mov    %rax,%rdi
   1006c:	e8 82 66 ff ff       	callq  66f3 <transparent_crc>
   10071:	8b 05 b5 6a 00 00    	mov    0x6ab5(%rip),%eax        # 16b2c <g_2875>
   10077:	48 98                	cltq   
   10079:	8b 55 fc             	mov    -0x4(%rbp),%edx
   1007c:	48 8d 35 0f 28 00 00 	lea    0x280f(%rip),%rsi        # 12892 <g_3193+0x1792>
   10083:	48 89 c7             	mov    %rax,%rdi
   10086:	e8 68 66 ff ff       	callq  66f3 <transparent_crc>
   1008b:	8b 05 9b 6a 00 00    	mov    0x6a9b(%rip),%eax        # 16b2c <g_2875>
   10091:	48 98                	cltq   
   10093:	8b 55 fc             	mov    -0x4(%rbp),%edx
   10096:	48 8d 35 ff 27 00 00 	lea    0x27ff(%rip),%rsi        # 1289c <g_3193+0x179c>
   1009d:	48 89 c7             	mov    %rax,%rdi
   100a0:	e8 4e 66 ff ff       	callq  66f3 <transparent_crc>
   100a5:	8b 05 85 6a 00 00    	mov    0x6a85(%rip),%eax        # 16b30 <g_2876>
   100ab:	48 98                	cltq   
   100ad:	8b 55 fc             	mov    -0x4(%rbp),%edx
   100b0:	48 8d 35 ef 27 00 00 	lea    0x27ef(%rip),%rsi        # 128a6 <g_3193+0x17a6>
   100b7:	48 89 c7             	mov    %rax,%rdi
   100ba:	e8 34 66 ff ff       	callq  66f3 <transparent_crc>
   100bf:	8b 05 6b 6a 00 00    	mov    0x6a6b(%rip),%eax        # 16b30 <g_2876>
   100c5:	48 98                	cltq   
   100c7:	8b 55 fc             	mov    -0x4(%rbp),%edx
   100ca:	48 8d 35 df 27 00 00 	lea    0x27df(%rip),%rsi        # 128b0 <g_3193+0x17b0>
   100d1:	48 89 c7             	mov    %rax,%rdi
   100d4:	e8 1a 66 ff ff       	callq  66f3 <transparent_crc>
   100d9:	8b 05 51 6a 00 00    	mov    0x6a51(%rip),%eax        # 16b30 <g_2876>
   100df:	48 98                	cltq   
   100e1:	8b 55 fc             	mov    -0x4(%rbp),%edx
   100e4:	48 8d 35 cf 27 00 00 	lea    0x27cf(%rip),%rsi        # 128ba <g_3193+0x17ba>
   100eb:	48 89 c7             	mov    %rax,%rdi
   100ee:	e8 00 66 ff ff       	callq  66f3 <transparent_crc>
   100f3:	8b 05 3b 6a 00 00    	mov    0x6a3b(%rip),%eax        # 16b34 <g_2877>
   100f9:	48 98                	cltq   
   100fb:	8b 55 fc             	mov    -0x4(%rbp),%edx
   100fe:	48 8d 35 bf 27 00 00 	lea    0x27bf(%rip),%rsi        # 128c4 <g_3193+0x17c4>
   10105:	48 89 c7             	mov    %rax,%rdi
   10108:	e8 e6 65 ff ff       	callq  66f3 <transparent_crc>
   1010d:	8b 05 21 6a 00 00    	mov    0x6a21(%rip),%eax        # 16b34 <g_2877>
   10113:	48 98                	cltq   
   10115:	8b 55 fc             	mov    -0x4(%rbp),%edx
   10118:	48 8d 35 af 27 00 00 	lea    0x27af(%rip),%rsi        # 128ce <g_3193+0x17ce>
   1011f:	48 89 c7             	mov    %rax,%rdi
   10122:	e8 cc 65 ff ff       	callq  66f3 <transparent_crc>
   10127:	8b 05 07 6a 00 00    	mov    0x6a07(%rip),%eax        # 16b34 <g_2877>
   1012d:	48 98                	cltq   
   1012f:	8b 55 fc             	mov    -0x4(%rbp),%edx
   10132:	48 8d 35 9f 27 00 00 	lea    0x279f(%rip),%rsi        # 128d8 <g_3193+0x17d8>
   10139:	48 89 c7             	mov    %rax,%rdi
   1013c:	e8 b2 65 ff ff       	callq  66f3 <transparent_crc>
   10141:	8b 05 f1 69 00 00    	mov    0x69f1(%rip),%eax        # 16b38 <g_2878>
   10147:	48 98                	cltq   
   10149:	8b 55 fc             	mov    -0x4(%rbp),%edx
   1014c:	48 8d 35 8f 27 00 00 	lea    0x278f(%rip),%rsi        # 128e2 <g_3193+0x17e2>
   10153:	48 89 c7             	mov    %rax,%rdi
   10156:	e8 98 65 ff ff       	callq  66f3 <transparent_crc>
   1015b:	8b 05 d7 69 00 00    	mov    0x69d7(%rip),%eax        # 16b38 <g_2878>
   10161:	48 98                	cltq   
   10163:	8b 55 fc             	mov    -0x4(%rbp),%edx
   10166:	48 8d 35 7f 27 00 00 	lea    0x277f(%rip),%rsi        # 128ec <g_3193+0x17ec>
   1016d:	48 89 c7             	mov    %rax,%rdi
   10170:	e8 7e 65 ff ff       	callq  66f3 <transparent_crc>
   10175:	8b 05 bd 69 00 00    	mov    0x69bd(%rip),%eax        # 16b38 <g_2878>
   1017b:	48 98                	cltq   
   1017d:	8b 55 fc             	mov    -0x4(%rbp),%edx
   10180:	48 8d 35 6f 27 00 00 	lea    0x276f(%rip),%rsi        # 128f6 <g_3193+0x17f6>
   10187:	48 89 c7             	mov    %rax,%rdi
   1018a:	e8 64 65 ff ff       	callq  66f3 <transparent_crc>
   1018f:	c7 45 f0 00 00 00 00 	movl   $0x0,-0x10(%rbp)
   10196:	e9 6b 01 00 00       	jmpq   10306 <main+0x25c0>
   1019b:	c7 45 f4 00 00 00 00 	movl   $0x0,-0xc(%rbp)
   101a2:	e9 51 01 00 00       	jmpq   102f8 <main+0x25b2>
   101a7:	c7 45 f8 00 00 00 00 	movl   $0x0,-0x8(%rbp)
   101ae:	e9 37 01 00 00       	jmpq   102ea <main+0x25a4>
   101b3:	8b 45 f8             	mov    -0x8(%rbp),%eax
   101b6:	48 63 f0             	movslq %eax,%rsi
   101b9:	8b 45 f0             	mov    -0x10(%rbp),%eax
   101bc:	48 63 d0             	movslq %eax,%rdx
   101bf:	8b 45 f4             	mov    -0xc(%rbp),%eax
   101c2:	48 63 c8             	movslq %eax,%rcx
   101c5:	48 89 d0             	mov    %rdx,%rax
   101c8:	48 01 c0             	add    %rax,%rax
   101cb:	48 01 d0             	add    %rdx,%rax
   101ce:	48 89 c2             	mov    %rax,%rdx
   101d1:	48 c1 e2 04          	shl    $0x4,%rdx
   101d5:	48 29 c2             	sub    %rax,%rdx
   101d8:	48 89 c8             	mov    %rcx,%rax
   101db:	48 c1 e0 02          	shl    $0x2,%rax
   101df:	48 01 c8             	add    %rcx,%rax
   101e2:	48 01 d0             	add    %rdx,%rax
   101e5:	48 01 f0             	add    %rsi,%rax
   101e8:	48 8d 14 85 00 00 00 	lea    0x0(,%rax,4),%rdx
   101ef:	00 
   101f0:	48 8d 05 49 69 00 00 	lea    0x6949(%rip),%rax        # 16b40 <g_2879>
   101f7:	8b 04 02             	mov    (%rdx,%rax,1),%eax
   101fa:	48 98                	cltq   
   101fc:	8b 55 fc             	mov    -0x4(%rbp),%edx
   101ff:	48 8d 35 fa 26 00 00 	lea    0x26fa(%rip),%rsi        # 12900 <g_3193+0x1800>
   10206:	48 89 c7             	mov    %rax,%rdi
   10209:	e8 e5 64 ff ff       	callq  66f3 <transparent_crc>
   1020e:	8b 45 f8             	mov    -0x8(%rbp),%eax
   10211:	48 63 f0             	movslq %eax,%rsi
   10214:	8b 45 f0             	mov    -0x10(%rbp),%eax
   10217:	48 63 d0             	movslq %eax,%rdx
   1021a:	8b 45 f4             	mov    -0xc(%rbp),%eax
   1021d:	48 63 c8             	movslq %eax,%rcx
   10220:	48 89 d0             	mov    %rdx,%rax
   10223:	48 01 c0             	add    %rax,%rax
   10226:	48 01 d0             	add    %rdx,%rax
   10229:	48 89 c2             	mov    %rax,%rdx
   1022c:	48 c1 e2 04          	shl    $0x4,%rdx
   10230:	48 29 c2             	sub    %rax,%rdx
   10233:	48 89 c8             	mov    %rcx,%rax
   10236:	48 c1 e0 02          	shl    $0x2,%rax
   1023a:	48 01 c8             	add    %rcx,%rax
   1023d:	48 01 d0             	add    %rdx,%rax
   10240:	48 01 f0             	add    %rsi,%rax
   10243:	48 8d 14 85 00 00 00 	lea    0x0(,%rax,4),%rdx
   1024a:	00 
   1024b:	48 8d 05 ee 68 00 00 	lea    0x68ee(%rip),%rax        # 16b40 <g_2879>
   10252:	8b 04 02             	mov    (%rdx,%rax,1),%eax
   10255:	48 98                	cltq   
   10257:	8b 55 fc             	mov    -0x4(%rbp),%edx
   1025a:	48 8d 35 b2 26 00 00 	lea    0x26b2(%rip),%rsi        # 12913 <g_3193+0x1813>
   10261:	48 89 c7             	mov    %rax,%rdi
   10264:	e8 8a 64 ff ff       	callq  66f3 <transparent_crc>
   10269:	8b 45 f8             	mov    -0x8(%rbp),%eax
   1026c:	48 63 f0             	movslq %eax,%rsi
   1026f:	8b 45 f0             	mov    -0x10(%rbp),%eax
   10272:	48 63 d0             	movslq %eax,%rdx
   10275:	8b 45 f4             	mov    -0xc(%rbp),%eax
   10278:	48 63 c8             	movslq %eax,%rcx
   1027b:	48 89 d0             	mov    %rdx,%rax
   1027e:	48 01 c0             	add    %rax,%rax
   10281:	48 01 d0             	add    %rdx,%rax
   10284:	48 89 c2             	mov    %rax,%rdx
   10287:	48 c1 e2 04          	shl    $0x4,%rdx
   1028b:	48 29 c2             	sub    %rax,%rdx
   1028e:	48 89 c8             	mov    %rcx,%rax
   10291:	48 c1 e0 02          	shl    $0x2,%rax
   10295:	48 01 c8             	add    %rcx,%rax
   10298:	48 01 d0             	add    %rdx,%rax
   1029b:	48 01 f0             	add    %rsi,%rax
   1029e:	48 8d 14 85 00 00 00 	lea    0x0(,%rax,4),%rdx
   102a5:	00 
   102a6:	48 8d 05 93 68 00 00 	lea    0x6893(%rip),%rax        # 16b40 <g_2879>
   102ad:	8b 04 02             	mov    (%rdx,%rax,1),%eax
   102b0:	48 98                	cltq   
   102b2:	8b 55 fc             	mov    -0x4(%rbp),%edx
   102b5:	48 8d 35 6a 26 00 00 	lea    0x266a(%rip),%rsi        # 12926 <g_3193+0x1826>
   102bc:	48 89 c7             	mov    %rax,%rdi
   102bf:	e8 2f 64 ff ff       	callq  66f3 <transparent_crc>
   102c4:	83 7d fc 00          	cmpl   $0x0,-0x4(%rbp)
   102c8:	74 1c                	je     102e6 <main+0x25a0>
   102ca:	8b 4d f8             	mov    -0x8(%rbp),%ecx
   102cd:	8b 55 f4             	mov    -0xc(%rbp),%edx
   102d0:	8b 45 f0             	mov    -0x10(%rbp),%eax
   102d3:	89 c6                	mov    %eax,%esi
   102d5:	48 8d 3d d7 1d 00 00 	lea    0x1dd7(%rip),%rdi        # 120b3 <g_3193+0xfb3>
   102dc:	b8 00 00 00 00       	mov    $0x0,%eax
   102e1:	e8 9a 4d ff ff       	callq  5080 <printf@plt>
   102e6:	83 45 f8 01          	addl   $0x1,-0x8(%rbp)
   102ea:	83 7d f8 04          	cmpl   $0x4,-0x8(%rbp)
   102ee:	0f 8e bf fe ff ff    	jle    101b3 <main+0x246d>
   102f4:	83 45 f4 01          	addl   $0x1,-0xc(%rbp)
   102f8:	83 7d f4 08          	cmpl   $0x8,-0xc(%rbp)
   102fc:	0f 8e a5 fe ff ff    	jle    101a7 <main+0x2461>
   10302:	83 45 f0 01          	addl   $0x1,-0x10(%rbp)
   10306:	83 7d f0 03          	cmpl   $0x3,-0x10(%rbp)
   1030a:	0f 8e 8b fe ff ff    	jle    1019b <main+0x2455>
   10310:	8b 05 fa 6a 00 00    	mov    0x6afa(%rip),%eax        # 16e10 <g_2880>
   10316:	48 98                	cltq   
   10318:	8b 55 fc             	mov    -0x4(%rbp),%edx
   1031b:	48 8d 35 17 26 00 00 	lea    0x2617(%rip),%rsi        # 12939 <g_3193+0x1839>
   10322:	48 89 c7             	mov    %rax,%rdi
   10325:	e8 c9 63 ff ff       	callq  66f3 <transparent_crc>
   1032a:	8b 05 e0 6a 00 00    	mov    0x6ae0(%rip),%eax        # 16e10 <g_2880>
   10330:	48 98                	cltq   
   10332:	8b 55 fc             	mov    -0x4(%rbp),%edx
   10335:	48 8d 35 07 26 00 00 	lea    0x2607(%rip),%rsi        # 12943 <g_3193+0x1843>
   1033c:	48 89 c7             	mov    %rax,%rdi
   1033f:	e8 af 63 ff ff       	callq  66f3 <transparent_crc>
   10344:	8b 05 c6 6a 00 00    	mov    0x6ac6(%rip),%eax        # 16e10 <g_2880>
   1034a:	48 98                	cltq   
   1034c:	8b 55 fc             	mov    -0x4(%rbp),%edx
   1034f:	48 8d 35 f7 25 00 00 	lea    0x25f7(%rip),%rsi        # 1294d <g_3193+0x184d>
   10356:	48 89 c7             	mov    %rax,%rdi
   10359:	e8 95 63 ff ff       	callq  66f3 <transparent_crc>
   1035e:	8b 05 3c 88 00 00    	mov    0x883c(%rip),%eax        # 18ba0 <g_2881>
   10364:	48 98                	cltq   
   10366:	8b 55 fc             	mov    -0x4(%rbp),%edx
   10369:	48 8d 35 e7 25 00 00 	lea    0x25e7(%rip),%rsi        # 12957 <g_3193+0x1857>
   10370:	48 89 c7             	mov    %rax,%rdi
   10373:	e8 7b 63 ff ff       	callq  66f3 <transparent_crc>
   10378:	8b 05 22 88 00 00    	mov    0x8822(%rip),%eax        # 18ba0 <g_2881>
   1037e:	48 98                	cltq   
   10380:	8b 55 fc             	mov    -0x4(%rbp),%edx
   10383:	48 8d 35 d7 25 00 00 	lea    0x25d7(%rip),%rsi        # 12961 <g_3193+0x1861>
   1038a:	48 89 c7             	mov    %rax,%rdi
   1038d:	e8 61 63 ff ff       	callq  66f3 <transparent_crc>
   10392:	8b 05 08 88 00 00    	mov    0x8808(%rip),%eax        # 18ba0 <g_2881>
   10398:	48 98                	cltq   
   1039a:	8b 55 fc             	mov    -0x4(%rbp),%edx
   1039d:	48 8d 35 c7 25 00 00 	lea    0x25c7(%rip),%rsi        # 1296b <g_3193+0x186b>
   103a4:	48 89 c7             	mov    %rax,%rdi
   103a7:	e8 47 63 ff ff       	callq  66f3 <transparent_crc>
   103ac:	c7 45 f0 00 00 00 00 	movl   $0x0,-0x10(%rbp)
   103b3:	e9 a1 00 00 00       	jmpq   10459 <main+0x2713>
   103b8:	8b 45 f0             	mov    -0x10(%rbp),%eax
   103bb:	48 98                	cltq   
   103bd:	48 8d 14 85 00 00 00 	lea    0x0(,%rax,4),%rdx
   103c4:	00 
   103c5:	48 8d 05 14 0d 00 00 	lea    0xd14(%rip),%rax        # 110e0 <g_2972>
   103cc:	8b 04 02             	mov    (%rdx,%rax,1),%eax
   103cf:	48 98                	cltq   
   103d1:	8b 55 fc             	mov    -0x4(%rbp),%edx
   103d4:	48 8d 35 9a 25 00 00 	lea    0x259a(%rip),%rsi        # 12975 <g_3193+0x1875>
   103db:	48 89 c7             	mov    %rax,%rdi
   103de:	e8 10 63 ff ff       	callq  66f3 <transparent_crc>
   103e3:	8b 45 f0             	mov    -0x10(%rbp),%eax
   103e6:	48 98                	cltq   
   103e8:	48 8d 14 85 00 00 00 	lea    0x0(,%rax,4),%rdx
   103ef:	00 
   103f0:	48 8d 05 e9 0c 00 00 	lea    0xce9(%rip),%rax        # 110e0 <g_2972>
   103f7:	8b 04 02             	mov    (%rdx,%rax,1),%eax
   103fa:	48 98                	cltq   
   103fc:	8b 55 fc             	mov    -0x4(%rbp),%edx
   103ff:	48 8d 35 7c 25 00 00 	lea    0x257c(%rip),%rsi        # 12982 <g_3193+0x1882>
   10406:	48 89 c7             	mov    %rax,%rdi
   10409:	e8 e5 62 ff ff       	callq  66f3 <transparent_crc>
   1040e:	8b 45 f0             	mov    -0x10(%rbp),%eax
   10411:	48 98                	cltq   
   10413:	48 8d 14 85 00 00 00 	lea    0x0(,%rax,4),%rdx
   1041a:	00 
   1041b:	48 8d 05 be 0c 00 00 	lea    0xcbe(%rip),%rax        # 110e0 <g_2972>
   10422:	8b 04 02             	mov    (%rdx,%rax,1),%eax
   10425:	48 98                	cltq   
   10427:	8b 55 fc             	mov    -0x4(%rbp),%edx
   1042a:	48 8d 35 5e 25 00 00 	lea    0x255e(%rip),%rsi        # 1298f <g_3193+0x188f>
   10431:	48 89 c7             	mov    %rax,%rdi
   10434:	e8 ba 62 ff ff       	callq  66f3 <transparent_crc>
   10439:	83 7d fc 00          	cmpl   $0x0,-0x4(%rbp)
   1043d:	74 16                	je     10455 <main+0x270f>
   1043f:	8b 45 f0             	mov    -0x10(%rbp),%eax
   10442:	89 c6                	mov    %eax,%esi
   10444:	48 8d 3d fc 1b 00 00 	lea    0x1bfc(%rip),%rdi        # 12047 <g_3193+0xf47>
   1044b:	b8 00 00 00 00       	mov    $0x0,%eax
   10450:	e8 2b 4c ff ff       	callq  5080 <printf@plt>
   10455:	83 45 f0 01          	addl   $0x1,-0x10(%rbp)
   10459:	83 7d f0 07          	cmpl   $0x7,-0x10(%rbp)
   1045d:	0f 8e 55 ff ff ff    	jle    103b8 <main+0x2672>
   10463:	c7 45 f0 00 00 00 00 	movl   $0x0,-0x10(%rbp)
   1046a:	e9 a1 00 00 00       	jmpq   10510 <main+0x27ca>
   1046f:	8b 45 f0             	mov    -0x10(%rbp),%eax
   10472:	48 98                	cltq   
   10474:	48 8d 14 85 00 00 00 	lea    0x0(,%rax,4),%rdx
   1047b:	00 
   1047c:	48 8d 05 9d 69 00 00 	lea    0x699d(%rip),%rax        # 16e20 <g_2977>
   10483:	8b 04 02             	mov    (%rdx,%rax,1),%eax
   10486:	48 98                	cltq   
   10488:	8b 55 fc             	mov    -0x4(%rbp),%edx
   1048b:	48 8d 35 0a 25 00 00 	lea    0x250a(%rip),%rsi        # 1299c <g_3193+0x189c>
   10492:	48 89 c7             	mov    %rax,%rdi
   10495:	e8 59 62 ff ff       	callq  66f3 <transparent_crc>
   1049a:	8b 45 f0             	mov    -0x10(%rbp),%eax
   1049d:	48 98                	cltq   
   1049f:	48 8d 14 85 00 00 00 	lea    0x0(,%rax,4),%rdx
   104a6:	00 
   104a7:	48 8d 05 72 69 00 00 	lea    0x6972(%rip),%rax        # 16e20 <g_2977>
   104ae:	8b 04 02             	mov    (%rdx,%rax,1),%eax
   104b1:	48 98                	cltq   
   104b3:	8b 55 fc             	mov    -0x4(%rbp),%edx
   104b6:	48 8d 35 ec 24 00 00 	lea    0x24ec(%rip),%rsi        # 129a9 <g_3193+0x18a9>
   104bd:	48 89 c7             	mov    %rax,%rdi
   104c0:	e8 2e 62 ff ff       	callq  66f3 <transparent_crc>
   104c5:	8b 45 f0             	mov    -0x10(%rbp),%eax
   104c8:	48 98                	cltq   
   104ca:	48 8d 14 85 00 00 00 	lea    0x0(,%rax,4),%rdx
   104d1:	00 
   104d2:	48 8d 05 47 69 00 00 	lea    0x6947(%rip),%rax        # 16e20 <g_2977>
   104d9:	8b 04 02             	mov    (%rdx,%rax,1),%eax
   104dc:	48 98                	cltq   
   104de:	8b 55 fc             	mov    -0x4(%rbp),%edx
   104e1:	48 8d 35 ce 24 00 00 	lea    0x24ce(%rip),%rsi        # 129b6 <g_3193+0x18b6>
   104e8:	48 89 c7             	mov    %rax,%rdi
   104eb:	e8 03 62 ff ff       	callq  66f3 <transparent_crc>
   104f0:	83 7d fc 00          	cmpl   $0x0,-0x4(%rbp)
   104f4:	74 16                	je     1050c <main+0x27c6>
   104f6:	8b 45 f0             	mov    -0x10(%rbp),%eax
   104f9:	89 c6                	mov    %eax,%esi
   104fb:	48 8d 3d 45 1b 00 00 	lea    0x1b45(%rip),%rdi        # 12047 <g_3193+0xf47>
   10502:	b8 00 00 00 00       	mov    $0x0,%eax
   10507:	e8 74 4b ff ff       	callq  5080 <printf@plt>
   1050c:	83 45 f0 01          	addl   $0x1,-0x10(%rbp)
   10510:	83 7d f0 06          	cmpl   $0x6,-0x10(%rbp)
   10514:	0f 8e 55 ff ff ff    	jle    1046f <main+0x2729>
   1051a:	0f b7 05 1b 69 00 00 	movzwl 0x691b(%rip),%eax        # 16e3c <g_2980>
   10521:	48 0f bf c0          	movswq %ax,%rax
   10525:	8b 55 fc             	mov    -0x4(%rbp),%edx
   10528:	48 8d 35 94 24 00 00 	lea    0x2494(%rip),%rsi        # 129c3 <g_3193+0x18c3>
   1052f:	48 89 c7             	mov    %rax,%rdi
   10532:	e8 bc 61 ff ff       	callq  66f3 <transparent_crc>
   10537:	8b 05 03 69 00 00    	mov    0x6903(%rip),%eax        # 16e40 <g_3067>
   1053d:	48 98                	cltq   
   1053f:	8b 55 fc             	mov    -0x4(%rbp),%edx
   10542:	48 8d 35 84 24 00 00 	lea    0x2484(%rip),%rsi        # 129cd <g_3193+0x18cd>
   10549:	48 89 c7             	mov    %rax,%rdi
   1054c:	e8 a2 61 ff ff       	callq  66f3 <transparent_crc>
   10551:	8b 05 e9 68 00 00    	mov    0x68e9(%rip),%eax        # 16e40 <g_3067>
   10557:	48 98                	cltq   
   10559:	8b 55 fc             	mov    -0x4(%rbp),%edx
   1055c:	48 8d 35 74 24 00 00 	lea    0x2474(%rip),%rsi        # 129d7 <g_3193+0x18d7>
   10563:	48 89 c7             	mov    %rax,%rdi
   10566:	e8 88 61 ff ff       	callq  66f3 <transparent_crc>
   1056b:	8b 05 cf 68 00 00    	mov    0x68cf(%rip),%eax        # 16e40 <g_3067>
   10571:	48 98                	cltq   
   10573:	8b 55 fc             	mov    -0x4(%rbp),%edx
   10576:	48 8d 35 64 24 00 00 	lea    0x2464(%rip),%rsi        # 129e1 <g_3193+0x18e1>
   1057d:	48 89 c7             	mov    %rax,%rdi
   10580:	e8 6e 61 ff ff       	callq  66f3 <transparent_crc>
   10585:	8b 05 b9 68 00 00    	mov    0x68b9(%rip),%eax        # 16e44 <g_3092>
   1058b:	89 c1                	mov    %eax,%ecx
   1058d:	8b 45 fc             	mov    -0x4(%rbp),%eax
   10590:	89 c2                	mov    %eax,%edx
   10592:	48 8d 35 52 24 00 00 	lea    0x2452(%rip),%rsi        # 129eb <g_3193+0x18eb>
   10599:	48 89 cf             	mov    %rcx,%rdi
   1059c:	e8 52 61 ff ff       	callq  66f3 <transparent_crc>
   105a1:	8b 05 a1 68 00 00    	mov    0x68a1(%rip),%eax        # 16e48 <g_3096>
   105a7:	48 98                	cltq   
   105a9:	8b 55 fc             	mov    -0x4(%rbp),%edx
   105ac:	48 8d 35 3f 24 00 00 	lea    0x243f(%rip),%rsi        # 129f2 <g_3193+0x18f2>
   105b3:	48 89 c7             	mov    %rax,%rdi
   105b6:	e8 38 61 ff ff       	callq  66f3 <transparent_crc>
   105bb:	8b 05 87 68 00 00    	mov    0x6887(%rip),%eax        # 16e48 <g_3096>
   105c1:	48 98                	cltq   
   105c3:	8b 55 fc             	mov    -0x4(%rbp),%edx
   105c6:	48 8d 35 2f 24 00 00 	lea    0x242f(%rip),%rsi        # 129fc <g_3193+0x18fc>
   105cd:	48 89 c7             	mov    %rax,%rdi
   105d0:	e8 1e 61 ff ff       	callq  66f3 <transparent_crc>
   105d5:	8b 05 6d 68 00 00    	mov    0x686d(%rip),%eax        # 16e48 <g_3096>
   105db:	48 98                	cltq   
   105dd:	8b 55 fc             	mov    -0x4(%rbp),%edx
   105e0:	48 8d 35 1f 24 00 00 	lea    0x241f(%rip),%rsi        # 12a06 <g_3193+0x1906>
   105e7:	48 89 c7             	mov    %rax,%rdi
   105ea:	e8 04 61 ff ff       	callq  66f3 <transparent_crc>
   105ef:	0f b6 05 56 68 00 00 	movzbl 0x6856(%rip),%eax        # 16e4c <g_3121>
   105f6:	0f b6 c0             	movzbl %al,%eax
   105f9:	8b 55 fc             	mov    -0x4(%rbp),%edx
   105fc:	48 8d 35 0d 24 00 00 	lea    0x240d(%rip),%rsi        # 12a10 <g_3193+0x1910>
   10603:	48 89 c7             	mov    %rax,%rdi
   10606:	e8 e8 60 ff ff       	callq  66f3 <transparent_crc>
   1060b:	8b 05 3f 68 00 00    	mov    0x683f(%rip),%eax        # 16e50 <g_3145>
   10611:	48 98                	cltq   
   10613:	8b 55 fc             	mov    -0x4(%rbp),%edx
   10616:	48 8d 35 fa 23 00 00 	lea    0x23fa(%rip),%rsi        # 12a17 <g_3193+0x1917>
   1061d:	48 89 c7             	mov    %rax,%rdi
   10620:	e8 ce 60 ff ff       	callq  66f3 <transparent_crc>
   10625:	8b 05 25 68 00 00    	mov    0x6825(%rip),%eax        # 16e50 <g_3145>
   1062b:	48 98                	cltq   
   1062d:	8b 55 fc             	mov    -0x4(%rbp),%edx
   10630:	48 8d 35 ea 23 00 00 	lea    0x23ea(%rip),%rsi        # 12a21 <g_3193+0x1921>
   10637:	48 89 c7             	mov    %rax,%rdi
   1063a:	e8 b4 60 ff ff       	callq  66f3 <transparent_crc>
   1063f:	8b 05 0b 68 00 00    	mov    0x680b(%rip),%eax        # 16e50 <g_3145>
   10645:	48 98                	cltq   
   10647:	8b 55 fc             	mov    -0x4(%rbp),%edx
   1064a:	48 8d 35 da 23 00 00 	lea    0x23da(%rip),%rsi        # 12a2b <g_3193+0x192b>
   10651:	48 89 c7             	mov    %rax,%rdi
   10654:	e8 9a 60 ff ff       	callq  66f3 <transparent_crc>
   10659:	8b 05 f5 67 00 00    	mov    0x67f5(%rip),%eax        # 16e54 <g_3167>
   1065f:	48 98                	cltq   
   10661:	8b 55 fc             	mov    -0x4(%rbp),%edx
   10664:	48 8d 35 ca 23 00 00 	lea    0x23ca(%rip),%rsi        # 12a35 <g_3193+0x1935>
   1066b:	48 89 c7             	mov    %rax,%rdi
   1066e:	e8 80 60 ff ff       	callq  66f3 <transparent_crc>
   10673:	8b 05 db 67 00 00    	mov    0x67db(%rip),%eax        # 16e54 <g_3167>
   10679:	48 98                	cltq   
   1067b:	8b 55 fc             	mov    -0x4(%rbp),%edx
   1067e:	48 8d 35 ba 23 00 00 	lea    0x23ba(%rip),%rsi        # 12a3f <g_3193+0x193f>
   10685:	48 89 c7             	mov    %rax,%rdi
   10688:	e8 66 60 ff ff       	callq  66f3 <transparent_crc>
   1068d:	8b 05 c1 67 00 00    	mov    0x67c1(%rip),%eax        # 16e54 <g_3167>
   10693:	48 98                	cltq   
   10695:	8b 55 fc             	mov    -0x4(%rbp),%edx
   10698:	48 8d 35 aa 23 00 00 	lea    0x23aa(%rip),%rsi        # 12a49 <g_3193+0x1949>
   1069f:	48 89 c7             	mov    %rax,%rdi
   106a2:	e8 4c 60 ff ff       	callq  66f3 <transparent_crc>
   106a7:	0f b7 05 aa 67 00 00 	movzwl 0x67aa(%rip),%eax        # 16e58 <g_3172>
   106ae:	48 0f bf c0          	movswq %ax,%rax
   106b2:	8b 55 fc             	mov    -0x4(%rbp),%edx
   106b5:	48 8d 35 97 23 00 00 	lea    0x2397(%rip),%rsi        # 12a53 <g_3193+0x1953>
   106bc:	48 89 c7             	mov    %rax,%rdi
   106bf:	e8 2f 60 ff ff       	callq  66f3 <transparent_crc>
   106c4:	8b 05 da 84 00 00    	mov    0x84da(%rip),%eax        # 18ba4 <g_3188>
   106ca:	48 98                	cltq   
   106cc:	8b 55 fc             	mov    -0x4(%rbp),%edx
   106cf:	48 8d 35 87 23 00 00 	lea    0x2387(%rip),%rsi        # 12a5d <g_3193+0x195d>
   106d6:	48 89 c7             	mov    %rax,%rdi
   106d9:	e8 15 60 ff ff       	callq  66f3 <transparent_crc>
   106de:	8b 05 78 67 00 00    	mov    0x6778(%rip),%eax        # 16e5c <g_3225>
   106e4:	48 98                	cltq   
   106e6:	8b 55 fc             	mov    -0x4(%rbp),%edx
   106e9:	48 8d 35 74 23 00 00 	lea    0x2374(%rip),%rsi        # 12a64 <g_3193+0x1964>
   106f0:	48 89 c7             	mov    %rax,%rdi
   106f3:	e8 fb 5f ff ff       	callq  66f3 <transparent_crc>
   106f8:	0f b7 05 09 85 00 00 	movzwl 0x8509(%rip),%eax        # 18c08 <g_3304>
   106ff:	48 0f bf c0          	movswq %ax,%rax
   10703:	8b 55 fc             	mov    -0x4(%rbp),%edx
   10706:	48 8d 35 5e 23 00 00 	lea    0x235e(%rip),%rsi        # 12a6b <g_3193+0x196b>
   1070d:	48 89 c7             	mov    %rax,%rdi
   10710:	e8 de 5f ff ff       	callq  66f3 <transparent_crc>
   10715:	0f b7 05 44 67 00 00 	movzwl 0x6744(%rip),%eax        # 16e60 <g_3344>
   1071c:	48 0f bf c0          	movswq %ax,%rax
   10720:	8b 55 fc             	mov    -0x4(%rbp),%edx
   10723:	48 8d 35 4b 23 00 00 	lea    0x234b(%rip),%rsi        # 12a75 <g_3193+0x1975>
   1072a:	48 89 c7             	mov    %rax,%rdi
   1072d:	e8 c1 5f ff ff       	callq  66f3 <transparent_crc>
   10732:	0f b7 05 2b 67 00 00 	movzwl 0x672b(%rip),%eax        # 16e64 <g_3348>
   10739:	48 0f bf c0          	movswq %ax,%rax
   1073d:	8b 55 fc             	mov    -0x4(%rbp),%edx
   10740:	48 8d 35 38 23 00 00 	lea    0x2338(%rip),%rsi        # 12a7f <g_3193+0x197f>
   10747:	48 89 c7             	mov    %rax,%rdi
   1074a:	e8 a4 5f ff ff       	callq  66f3 <transparent_crc>
   1074f:	8b 05 13 67 00 00    	mov    0x6713(%rip),%eax        # 16e68 <g_3374>
   10755:	48 98                	cltq   
   10757:	8b 55 fc             	mov    -0x4(%rbp),%edx
   1075a:	48 8d 35 28 23 00 00 	lea    0x2328(%rip),%rsi        # 12a89 <g_3193+0x1989>
   10761:	48 89 c7             	mov    %rax,%rdi
   10764:	e8 8a 5f ff ff       	callq  66f3 <transparent_crc>
   10769:	0f b7 05 fc 66 00 00 	movzwl 0x66fc(%rip),%eax        # 16e6c <g_3429>
   10770:	48 0f bf c0          	movswq %ax,%rax
   10774:	8b 55 fc             	mov    -0x4(%rbp),%edx
   10777:	48 8d 35 12 23 00 00 	lea    0x2312(%rip),%rsi        # 12a90 <g_3193+0x1990>
   1077e:	48 89 c7             	mov    %rax,%rdi
   10781:	e8 6d 5f ff ff       	callq  66f3 <transparent_crc>
   10786:	c7 45 f0 00 00 00 00 	movl   $0x0,-0x10(%rbp)
   1078d:	eb 4e                	jmp    107dd <main+0x2a97>
   1078f:	8b 45 f0             	mov    -0x10(%rbp),%eax
   10792:	48 98                	cltq   
   10794:	48 8d 14 85 00 00 00 	lea    0x0(,%rax,4),%rdx
   1079b:	00 
   1079c:	48 8d 05 cd 66 00 00 	lea    0x66cd(%rip),%rax        # 16e70 <g_3495>
   107a3:	0f b7 04 02          	movzwl (%rdx,%rax,1),%eax
   107a7:	48 0f bf c0          	movswq %ax,%rax
   107ab:	8b 55 fc             	mov    -0x4(%rbp),%edx
   107ae:	48 8d 35 e5 22 00 00 	lea    0x22e5(%rip),%rsi        # 12a9a <g_3193+0x199a>
   107b5:	48 89 c7             	mov    %rax,%rdi
   107b8:	e8 36 5f ff ff       	callq  66f3 <transparent_crc>
   107bd:	83 7d fc 00          	cmpl   $0x0,-0x4(%rbp)
   107c1:	74 16                	je     107d9 <main+0x2a93>
   107c3:	8b 45 f0             	mov    -0x10(%rbp),%eax
   107c6:	89 c6                	mov    %eax,%esi
   107c8:	48 8d 3d 78 18 00 00 	lea    0x1878(%rip),%rdi        # 12047 <g_3193+0xf47>
   107cf:	b8 00 00 00 00       	mov    $0x0,%eax
   107d4:	e8 a7 48 ff ff       	callq  5080 <printf@plt>
   107d9:	83 45 f0 01          	addl   $0x1,-0x10(%rbp)
   107dd:	83 7d f0 02          	cmpl   $0x2,-0x10(%rbp)
   107e1:	7e ac                	jle    1078f <main+0x2a49>
   107e3:	0f b6 05 92 66 00 00 	movzbl 0x6692(%rip),%eax        # 16e7c <g_3523>
   107ea:	0f b6 c0             	movzbl %al,%eax
   107ed:	8b 55 fc             	mov    -0x4(%rbp),%edx
   107f0:	48 8d 35 b0 22 00 00 	lea    0x22b0(%rip),%rsi        # 12aa7 <g_3193+0x19a7>
   107f7:	48 89 c7             	mov    %rax,%rdi
   107fa:	e8 f4 5e ff ff       	callq  66f3 <transparent_crc>
   107ff:	0f b6 05 77 66 00 00 	movzbl 0x6677(%rip),%eax        # 16e7d <g_3550>
   10806:	48 0f be c0          	movsbq %al,%rax
   1080a:	8b 55 fc             	mov    -0x4(%rbp),%edx
   1080d:	48 8d 35 9a 22 00 00 	lea    0x229a(%rip),%rsi        # 12aae <g_3193+0x19ae>
   10814:	48 89 c7             	mov    %rax,%rdi
   10817:	e8 d7 5e ff ff       	callq  66f3 <transparent_crc>
   1081c:	8b 05 5e 66 00 00    	mov    0x665e(%rip),%eax        # 16e80 <g_3587>
   10822:	48 98                	cltq   
   10824:	8b 55 fc             	mov    -0x4(%rbp),%edx
   10827:	48 8d 35 87 22 00 00 	lea    0x2287(%rip),%rsi        # 12ab5 <g_3193+0x19b5>
   1082e:	48 89 c7             	mov    %rax,%rdi
   10831:	e8 bd 5e ff ff       	callq  66f3 <transparent_crc>
   10836:	0f b7 05 47 66 00 00 	movzwl 0x6647(%rip),%eax        # 16e84 <g_3633>
   1083d:	48 0f bf c0          	movswq %ax,%rax
   10841:	8b 55 fc             	mov    -0x4(%rbp),%edx
   10844:	48 8d 35 71 22 00 00 	lea    0x2271(%rip),%rsi        # 12abc <g_3193+0x19bc>
   1084b:	48 89 c7             	mov    %rax,%rdi
   1084e:	e8 a0 5e ff ff       	callq  66f3 <transparent_crc>
   10853:	0f b6 05 2e 66 00 00 	movzbl 0x662e(%rip),%eax        # 16e88 <g_3756>
   1085a:	48 0f be c0          	movsbq %al,%rax
   1085e:	8b 55 fc             	mov    -0x4(%rbp),%edx
   10861:	48 8d 35 5e 22 00 00 	lea    0x225e(%rip),%rsi        # 12ac6 <g_3193+0x19c6>
   10868:	48 89 c7             	mov    %rax,%rdi
   1086b:	e8 83 5e ff ff       	callq  66f3 <transparent_crc>
   10870:	8b 05 a2 83 00 00    	mov    0x83a2(%rip),%eax        # 18c18 <g_3788>
   10876:	48 98                	cltq   
   10878:	8b 55 fc             	mov    -0x4(%rbp),%edx
   1087b:	48 8d 35 4b 22 00 00 	lea    0x224b(%rip),%rsi        # 12acd <g_3193+0x19cd>
   10882:	48 89 c7             	mov    %rax,%rdi
   10885:	e8 69 5e ff ff       	callq  66f3 <transparent_crc>
   1088a:	0f b7 05 f9 65 00 00 	movzwl 0x65f9(%rip),%eax        # 16e8a <g_3800>
   10891:	0f b7 c0             	movzwl %ax,%eax
   10894:	8b 55 fc             	mov    -0x4(%rbp),%edx
   10897:	48 8d 35 36 22 00 00 	lea    0x2236(%rip),%rsi        # 12ad4 <g_3193+0x19d4>
   1089e:	48 89 c7             	mov    %rax,%rdi
   108a1:	e8 4d 5e ff ff       	callq  66f3 <transparent_crc>
   108a6:	8b 05 e0 65 00 00    	mov    0x65e0(%rip),%eax        # 16e8c <g_3808>
   108ac:	48 98                	cltq   
   108ae:	8b 55 fc             	mov    -0x4(%rbp),%edx
   108b1:	48 8d 35 23 22 00 00 	lea    0x2223(%rip),%rsi        # 12adb <g_3193+0x19db>
   108b8:	48 89 c7             	mov    %rax,%rdi
   108bb:	e8 33 5e ff ff       	callq  66f3 <transparent_crc>
   108c0:	8b 05 5a 57 00 00    	mov    0x575a(%rip),%eax        # 16020 <crc32_context>
   108c6:	f7 d0                	not    %eax
   108c8:	89 c2                	mov    %eax,%edx
   108ca:	8b 45 fc             	mov    -0x4(%rbp),%eax
   108cd:	89 c6                	mov    %eax,%esi
   108cf:	89 d7                	mov    %edx,%edi
   108d1:	e8 be 48 ff ff       	callq  5194 <platform_main_end>
   108d6:	b8 00 00 00 00       	mov    $0x0,%eax
   108db:	c9                   	leaveq 
   108dc:	c3                   	retq   
   108dd:	0f 1f 00             	nopl   (%rax)

00000000000108e0 <__libc_csu_init>:
   108e0:	f3 0f 1e fa          	endbr64 
   108e4:	41 57                	push   %r15
   108e6:	4c 8d 3d 63 54 00 00 	lea    0x5463(%rip),%r15        # 15d50 <__frame_dummy_init_array_entry>
   108ed:	41 56                	push   %r14
   108ef:	49 89 d6             	mov    %rdx,%r14
   108f2:	41 55                	push   %r13
   108f4:	49 89 f5             	mov    %rsi,%r13
   108f7:	41 54                	push   %r12
   108f9:	41 89 fc             	mov    %edi,%r12d
   108fc:	55                   	push   %rbp
   108fd:	48 8d 2d 54 54 00 00 	lea    0x5454(%rip),%rbp        # 15d58 <__do_global_dtors_aux_fini_array_entry>
   10904:	53                   	push   %rbx
   10905:	4c 29 fd             	sub    %r15,%rbp
   10908:	48 83 ec 08          	sub    $0x8,%rsp
   1090c:	e8 ef 46 ff ff       	callq  5000 <_init>
   10911:	48 c1 fd 03          	sar    $0x3,%rbp
   10915:	74 1f                	je     10936 <__libc_csu_init+0x56>
   10917:	31 db                	xor    %ebx,%ebx
   10919:	0f 1f 80 00 00 00 00 	nopl   0x0(%rax)
   10920:	4c 89 f2             	mov    %r14,%rdx
   10923:	4c 89 ee             	mov    %r13,%rsi
   10926:	44 89 e7             	mov    %r12d,%edi
   10929:	41 ff 14 df          	callq  *(%r15,%rbx,8)
   1092d:	48 83 c3 01          	add    $0x1,%rbx
   10931:	48 39 dd             	cmp    %rbx,%rbp
   10934:	75 ea                	jne    10920 <__libc_csu_init+0x40>
   10936:	48 83 c4 08          	add    $0x8,%rsp
   1093a:	5b                   	pop    %rbx
   1093b:	5d                   	pop    %rbp
   1093c:	41 5c                	pop    %r12
   1093e:	41 5d                	pop    %r13
   10940:	41 5e                	pop    %r14
   10942:	41 5f                	pop    %r15
   10944:	c3                   	retq   
   10945:	66 66 2e 0f 1f 84 00 	data16 nopw %cs:0x0(%rax,%rax,1)
   1094c:	00 00 00 00 

0000000000010950 <__libc_csu_fini>:
   10950:	f3 0f 1e fa          	endbr64 
   10954:	c3                   	retq   
