


Disassembly of section .text:

00000000000020a0 <_start>:
    20a0:	f3 0f 1e fa          	endbr64 
    20a4:	31 ed                	xor    %ebp,%ebp
    20a6:	49 89 d1             	mov    %rdx,%r9
    20a9:	5e                   	pop    %rsi
    20aa:	48 89 e2             	mov    %rsp,%rdx
    20ad:	48 83 e4 f0          	and    $0xfffffffffffffff0,%rsp
    20b1:	50                   	push   %rax
    20b2:	54                   	push   %rsp
    20b3:	4c 8d 05 96 0c 01 00 	lea    0x10c96(%rip),%r8        # 12d50 <__libc_csu_fini>
    20ba:	48 8d 0d 1f 0c 01 00 	lea    0x10c1f(%rip),%rcx        # 12ce0 <__libc_csu_init>
    20c1:	48 8d 3d 2b 02 01 00 	lea    0x1022b(%rip),%rdi        # 122f3 <main>
    20c8:	ff 15 12 4f 01 00    	callq  *0x14f12(%rip)        # 16fe0 <__libc_start_main@GLIBC_2.2.5>
    20ce:	f4                   	hlt    
    20cf:	90                   	nop

00000000000020d0 <deregister_tm_clones>:
    20d0:	48 8d 3d f1 5d 01 00 	lea    0x15df1(%rip),%rdi        # 17ec8 <__TMC_END__>
    20d7:	48 8d 05 ea 5d 01 00 	lea    0x15dea(%rip),%rax        # 17ec8 <__TMC_END__>
    20de:	48 39 f8             	cmp    %rdi,%rax
    20e1:	74 15                	je     20f8 <deregister_tm_clones+0x28>
    20e3:	48 8b 05 ee 4e 01 00 	mov    0x14eee(%rip),%rax        # 16fd8 <_ITM_deregisterTMCloneTable>
    20ea:	48 85 c0             	test   %rax,%rax
    20ed:	74 09                	je     20f8 <deregister_tm_clones+0x28>
    20ef:	ff e0                	jmpq   *%rax
    20f1:	0f 1f 80 00 00 00 00 	nopl   0x0(%rax)
    20f8:	c3                   	retq   
    20f9:	0f 1f 80 00 00 00 00 	nopl   0x0(%rax)

0000000000002100 <register_tm_clones>:
    2100:	48 8d 3d c1 5d 01 00 	lea    0x15dc1(%rip),%rdi        # 17ec8 <__TMC_END__>
    2107:	48 8d 35 ba 5d 01 00 	lea    0x15dba(%rip),%rsi        # 17ec8 <__TMC_END__>
    210e:	48 29 fe             	sub    %rdi,%rsi
    2111:	48 89 f0             	mov    %rsi,%rax
    2114:	48 c1 ee 3f          	shr    $0x3f,%rsi
    2118:	48 c1 f8 03          	sar    $0x3,%rax
    211c:	48 01 c6             	add    %rax,%rsi
    211f:	48 d1 fe             	sar    %rsi
    2122:	74 14                	je     2138 <register_tm_clones+0x38>
    2124:	48 8b 05 c5 4e 01 00 	mov    0x14ec5(%rip),%rax        # 16ff0 <_ITM_registerTMCloneTable>
    212b:	48 85 c0             	test   %rax,%rax
    212e:	74 08                	je     2138 <register_tm_clones+0x38>
    2130:	ff e0                	jmpq   *%rax
    2132:	66 0f 1f 44 00 00    	nopw   0x0(%rax,%rax,1)
    2138:	c3                   	retq   
    2139:	0f 1f 80 00 00 00 00 	nopl   0x0(%rax)

0000000000002140 <__do_global_dtors_aux>:
    2140:	f3 0f 1e fa          	endbr64 
    2144:	80 3d 95 5d 01 00 00 	cmpb   $0x0,0x15d95(%rip)        # 17ee0 <completed.8061>
    214b:	75 2b                	jne    2178 <__do_global_dtors_aux+0x38>
    214d:	55                   	push   %rbp
    214e:	48 83 3d a2 4e 01 00 	cmpq   $0x0,0x14ea2(%rip)        # 16ff8 <__cxa_finalize@GLIBC_2.2.5>
    2155:	00 
    2156:	48 89 e5             	mov    %rsp,%rbp
    2159:	74 0c                	je     2167 <__do_global_dtors_aux+0x27>
    215b:	48 8b 3d a6 4e 01 00 	mov    0x14ea6(%rip),%rdi        # 17008 <__dso_handle>
    2162:	e8 f9 fe ff ff       	callq  2060 <__cxa_finalize@plt>
    2167:	e8 64 ff ff ff       	callq  20d0 <deregister_tm_clones>
    216c:	c6 05 6d 5d 01 00 01 	movb   $0x1,0x15d6d(%rip)        # 17ee0 <completed.8061>
    2173:	5d                   	pop    %rbp
    2174:	c3                   	retq   
    2175:	0f 1f 00             	nopl   (%rax)
    2178:	c3                   	retq   
    2179:	0f 1f 80 00 00 00 00 	nopl   0x0(%rax)

0000000000002180 <frame_dummy>:
    2180:	f3 0f 1e fa          	endbr64 
    2184:	e9 77 ff ff ff       	jmpq   2100 <register_tm_clones>

0000000000002189 <platform_main_begin>:
    2189:	f3 0f 1e fa          	endbr64 
    218d:	55                   	push   %rbp
    218e:	48 89 e5             	mov    %rsp,%rbp
    2191:	90                   	nop
    2192:	5d                   	pop    %rbp
    2193:	c3                   	retq   

0000000000002194 <platform_main_end>:
    2194:	f3 0f 1e fa          	endbr64 
    2198:	55                   	push   %rbp
    2199:	48 89 e5             	mov    %rsp,%rbp
    219c:	48 83 ec 10          	sub    $0x10,%rsp
    21a0:	89 7d fc             	mov    %edi,-0x4(%rbp)
    21a3:	89 75 f8             	mov    %esi,-0x8(%rbp)
    21a6:	8b 45 fc             	mov    -0x4(%rbp),%eax
    21a9:	89 c6                	mov    %eax,%esi
    21ab:	48 8d 3d 6e 0e 01 00 	lea    0x10e6e(%rip),%rdi        # 13020 <_IO_stdin_used+0x20>
    21b2:	b8 00 00 00 00       	mov    $0x0,%eax
    21b7:	e8 c4 fe ff ff       	callq  2080 <printf@plt>
    21bc:	90                   	nop
    21bd:	c9                   	leaveq 
    21be:	c3                   	retq   

00000000000021bf <safe_unary_minus_func_int8_t_s>:
    21bf:	f3 0f 1e fa          	endbr64 
    21c3:	55                   	push   %rbp
    21c4:	48 89 e5             	mov    %rsp,%rbp
    21c7:	89 f8                	mov    %edi,%eax
    21c9:	88 45 fc             	mov    %al,-0x4(%rbp)
    21cc:	0f b6 45 fc          	movzbl -0x4(%rbp),%eax
    21d0:	f7 d8                	neg    %eax
    21d2:	5d                   	pop    %rbp
    21d3:	c3                   	retq   

00000000000021d4 <safe_add_func_int8_t_s_s>:
    21d4:	f3 0f 1e fa          	endbr64 
    21d8:	55                   	push   %rbp
    21d9:	48 89 e5             	mov    %rsp,%rbp
    21dc:	89 fa                	mov    %edi,%edx
    21de:	89 f0                	mov    %esi,%eax
    21e0:	88 55 fc             	mov    %dl,-0x4(%rbp)
    21e3:	88 45 f8             	mov    %al,-0x8(%rbp)
    21e6:	0f b6 55 fc          	movzbl -0x4(%rbp),%edx
    21ea:	0f b6 45 f8          	movzbl -0x8(%rbp),%eax
    21ee:	01 d0                	add    %edx,%eax
    21f0:	5d                   	pop    %rbp
    21f1:	c3                   	retq   

00000000000021f2 <safe_sub_func_int8_t_s_s>:
    21f2:	f3 0f 1e fa          	endbr64 
    21f6:	55                   	push   %rbp
    21f7:	48 89 e5             	mov    %rsp,%rbp
    21fa:	89 fa                	mov    %edi,%edx
    21fc:	89 f0                	mov    %esi,%eax
    21fe:	88 55 fc             	mov    %dl,-0x4(%rbp)
    2201:	88 45 f8             	mov    %al,-0x8(%rbp)
    2204:	0f b6 55 fc          	movzbl -0x4(%rbp),%edx
    2208:	0f b6 45 f8          	movzbl -0x8(%rbp),%eax
    220c:	29 c2                	sub    %eax,%edx
    220e:	89 d0                	mov    %edx,%eax
    2210:	5d                   	pop    %rbp
    2211:	c3                   	retq   

0000000000002212 <safe_mul_func_int8_t_s_s>:
    2212:	f3 0f 1e fa          	endbr64 
    2216:	55                   	push   %rbp
    2217:	48 89 e5             	mov    %rsp,%rbp
    221a:	89 fa                	mov    %edi,%edx
    221c:	89 f0                	mov    %esi,%eax
    221e:	88 55 fc             	mov    %dl,-0x4(%rbp)
    2221:	88 45 f8             	mov    %al,-0x8(%rbp)
    2224:	0f b6 45 fc          	movzbl -0x4(%rbp),%eax
    2228:	0f b6 55 f8          	movzbl -0x8(%rbp),%edx
    222c:	0f af c2             	imul   %edx,%eax
    222f:	5d                   	pop    %rbp
    2230:	c3                   	retq   

0000000000002231 <safe_mod_func_int8_t_s_s>:
    2231:	f3 0f 1e fa          	endbr64 
    2235:	55                   	push   %rbp
    2236:	48 89 e5             	mov    %rsp,%rbp
    2239:	89 fa                	mov    %edi,%edx
    223b:	89 f0                	mov    %esi,%eax
    223d:	88 55 fc             	mov    %dl,-0x4(%rbp)
    2240:	88 45 f8             	mov    %al,-0x8(%rbp)
    2243:	80 7d f8 00          	cmpb   $0x0,-0x8(%rbp)
    2247:	74 1b                	je     2264 <safe_mod_func_int8_t_s_s+0x33>
    2249:	80 7d fc 80          	cmpb   $0x80,-0x4(%rbp)
    224d:	75 06                	jne    2255 <safe_mod_func_int8_t_s_s+0x24>
    224f:	80 7d f8 ff          	cmpb   $0xff,-0x8(%rbp)
    2253:	74 0f                	je     2264 <safe_mod_func_int8_t_s_s+0x33>
    2255:	0f be 45 fc          	movsbl -0x4(%rbp),%eax
    2259:	0f be 4d f8          	movsbl -0x8(%rbp),%ecx
    225d:	99                   	cltd   
    225e:	f7 f9                	idiv   %ecx
    2260:	89 d0                	mov    %edx,%eax
    2262:	eb 04                	jmp    2268 <safe_mod_func_int8_t_s_s+0x37>
    2264:	0f b6 45 fc          	movzbl -0x4(%rbp),%eax
    2268:	5d                   	pop    %rbp
    2269:	c3                   	retq   

000000000000226a <safe_div_func_int8_t_s_s>:
    226a:	f3 0f 1e fa          	endbr64 
    226e:	55                   	push   %rbp
    226f:	48 89 e5             	mov    %rsp,%rbp
    2272:	89 fa                	mov    %edi,%edx
    2274:	89 f0                	mov    %esi,%eax
    2276:	88 55 fc             	mov    %dl,-0x4(%rbp)
    2279:	88 45 f8             	mov    %al,-0x8(%rbp)
    227c:	80 7d f8 00          	cmpb   $0x0,-0x8(%rbp)
    2280:	74 19                	je     229b <safe_div_func_int8_t_s_s+0x31>
    2282:	80 7d fc 80          	cmpb   $0x80,-0x4(%rbp)
    2286:	75 06                	jne    228e <safe_div_func_int8_t_s_s+0x24>
    2288:	80 7d f8 ff          	cmpb   $0xff,-0x8(%rbp)
    228c:	74 0d                	je     229b <safe_div_func_int8_t_s_s+0x31>
    228e:	0f be 45 fc          	movsbl -0x4(%rbp),%eax
    2292:	0f be 4d f8          	movsbl -0x8(%rbp),%ecx
    2296:	99                   	cltd   
    2297:	f7 f9                	idiv   %ecx
    2299:	eb 04                	jmp    229f <safe_div_func_int8_t_s_s+0x35>
    229b:	0f b6 45 fc          	movzbl -0x4(%rbp),%eax
    229f:	5d                   	pop    %rbp
    22a0:	c3                   	retq   

00000000000022a1 <safe_lshift_func_int8_t_s_s>:
    22a1:	f3 0f 1e fa          	endbr64 
    22a5:	55                   	push   %rbp
    22a6:	48 89 e5             	mov    %rsp,%rbp
    22a9:	89 f8                	mov    %edi,%eax
    22ab:	89 75 f8             	mov    %esi,-0x8(%rbp)
    22ae:	88 45 fc             	mov    %al,-0x4(%rbp)
    22b1:	80 7d fc 00          	cmpb   $0x0,-0x4(%rbp)
    22b5:	78 31                	js     22e8 <safe_lshift_func_int8_t_s_s+0x47>
    22b7:	83 7d f8 00          	cmpl   $0x0,-0x8(%rbp)
    22bb:	78 2b                	js     22e8 <safe_lshift_func_int8_t_s_s+0x47>
    22bd:	83 7d f8 1f          	cmpl   $0x1f,-0x8(%rbp)
    22c1:	7f 25                	jg     22e8 <safe_lshift_func_int8_t_s_s+0x47>
    22c3:	0f be 55 fc          	movsbl -0x4(%rbp),%edx
    22c7:	8b 45 f8             	mov    -0x8(%rbp),%eax
    22ca:	be 7f 00 00 00       	mov    $0x7f,%esi
    22cf:	89 c1                	mov    %eax,%ecx
    22d1:	d3 fe                	sar    %cl,%esi
    22d3:	89 f0                	mov    %esi,%eax
    22d5:	39 c2                	cmp    %eax,%edx
    22d7:	7f 0f                	jg     22e8 <safe_lshift_func_int8_t_s_s+0x47>
    22d9:	0f be 55 fc          	movsbl -0x4(%rbp),%edx
    22dd:	8b 45 f8             	mov    -0x8(%rbp),%eax
    22e0:	89 c1                	mov    %eax,%ecx
    22e2:	d3 e2                	shl    %cl,%edx
    22e4:	89 d0                	mov    %edx,%eax
    22e6:	eb 04                	jmp    22ec <safe_lshift_func_int8_t_s_s+0x4b>
    22e8:	0f b6 45 fc          	movzbl -0x4(%rbp),%eax
    22ec:	5d                   	pop    %rbp
    22ed:	c3                   	retq   

00000000000022ee <safe_lshift_func_int8_t_s_u>:
    22ee:	f3 0f 1e fa          	endbr64 
    22f2:	55                   	push   %rbp
    22f3:	48 89 e5             	mov    %rsp,%rbp
    22f6:	89 f8                	mov    %edi,%eax
    22f8:	89 75 f8             	mov    %esi,-0x8(%rbp)
    22fb:	88 45 fc             	mov    %al,-0x4(%rbp)
    22fe:	80 7d fc 00          	cmpb   $0x0,-0x4(%rbp)
    2302:	78 2b                	js     232f <safe_lshift_func_int8_t_s_u+0x41>
    2304:	83 7d f8 1f          	cmpl   $0x1f,-0x8(%rbp)
    2308:	77 25                	ja     232f <safe_lshift_func_int8_t_s_u+0x41>
    230a:	0f be 55 fc          	movsbl -0x4(%rbp),%edx
    230e:	8b 45 f8             	mov    -0x8(%rbp),%eax
    2311:	be 7f 00 00 00       	mov    $0x7f,%esi
    2316:	89 c1                	mov    %eax,%ecx
    2318:	d3 fe                	sar    %cl,%esi
    231a:	89 f0                	mov    %esi,%eax
    231c:	39 c2                	cmp    %eax,%edx
    231e:	7f 0f                	jg     232f <safe_lshift_func_int8_t_s_u+0x41>
    2320:	0f be 55 fc          	movsbl -0x4(%rbp),%edx
    2324:	8b 45 f8             	mov    -0x8(%rbp),%eax
    2327:	89 c1                	mov    %eax,%ecx
    2329:	d3 e2                	shl    %cl,%edx
    232b:	89 d0                	mov    %edx,%eax
    232d:	eb 04                	jmp    2333 <safe_lshift_func_int8_t_s_u+0x45>
    232f:	0f b6 45 fc          	movzbl -0x4(%rbp),%eax
    2333:	5d                   	pop    %rbp
    2334:	c3                   	retq   

0000000000002335 <safe_rshift_func_int8_t_s_s>:
    2335:	f3 0f 1e fa          	endbr64 
    2339:	55                   	push   %rbp
    233a:	48 89 e5             	mov    %rsp,%rbp
    233d:	89 f8                	mov    %edi,%eax
    233f:	89 75 f8             	mov    %esi,-0x8(%rbp)
    2342:	88 45 fc             	mov    %al,-0x4(%rbp)
    2345:	80 7d fc 00          	cmpb   $0x0,-0x4(%rbp)
    2349:	78 1b                	js     2366 <safe_rshift_func_int8_t_s_s+0x31>
    234b:	83 7d f8 00          	cmpl   $0x0,-0x8(%rbp)
    234f:	78 15                	js     2366 <safe_rshift_func_int8_t_s_s+0x31>
    2351:	83 7d f8 1f          	cmpl   $0x1f,-0x8(%rbp)
    2355:	7f 0f                	jg     2366 <safe_rshift_func_int8_t_s_s+0x31>
    2357:	0f be 55 fc          	movsbl -0x4(%rbp),%edx
    235b:	8b 45 f8             	mov    -0x8(%rbp),%eax
    235e:	89 c1                	mov    %eax,%ecx
    2360:	d3 fa                	sar    %cl,%edx
    2362:	89 d0                	mov    %edx,%eax
    2364:	eb 04                	jmp    236a <safe_rshift_func_int8_t_s_s+0x35>
    2366:	0f b6 45 fc          	movzbl -0x4(%rbp),%eax
    236a:	5d                   	pop    %rbp
    236b:	c3                   	retq   

000000000000236c <safe_rshift_func_int8_t_s_u>:
    236c:	f3 0f 1e fa          	endbr64 
    2370:	55                   	push   %rbp
    2371:	48 89 e5             	mov    %rsp,%rbp
    2374:	89 f8                	mov    %edi,%eax
    2376:	89 75 f8             	mov    %esi,-0x8(%rbp)
    2379:	88 45 fc             	mov    %al,-0x4(%rbp)
    237c:	80 7d fc 00          	cmpb   $0x0,-0x4(%rbp)
    2380:	78 15                	js     2397 <safe_rshift_func_int8_t_s_u+0x2b>
    2382:	83 7d f8 1f          	cmpl   $0x1f,-0x8(%rbp)
    2386:	77 0f                	ja     2397 <safe_rshift_func_int8_t_s_u+0x2b>
    2388:	0f be 55 fc          	movsbl -0x4(%rbp),%edx
    238c:	8b 45 f8             	mov    -0x8(%rbp),%eax
    238f:	89 c1                	mov    %eax,%ecx
    2391:	d3 fa                	sar    %cl,%edx
    2393:	89 d0                	mov    %edx,%eax
    2395:	eb 04                	jmp    239b <safe_rshift_func_int8_t_s_u+0x2f>
    2397:	0f b6 45 fc          	movzbl -0x4(%rbp),%eax
    239b:	5d                   	pop    %rbp
    239c:	c3                   	retq   

000000000000239d <safe_unary_minus_func_int16_t_s>:
    239d:	f3 0f 1e fa          	endbr64 
    23a1:	55                   	push   %rbp
    23a2:	48 89 e5             	mov    %rsp,%rbp
    23a5:	89 f8                	mov    %edi,%eax
    23a7:	66 89 45 fc          	mov    %ax,-0x4(%rbp)
    23ab:	0f b7 45 fc          	movzwl -0x4(%rbp),%eax
    23af:	f7 d8                	neg    %eax
    23b1:	5d                   	pop    %rbp
    23b2:	c3                   	retq   

00000000000023b3 <safe_add_func_int16_t_s_s>:
    23b3:	f3 0f 1e fa          	endbr64 
    23b7:	55                   	push   %rbp
    23b8:	48 89 e5             	mov    %rsp,%rbp
    23bb:	89 fa                	mov    %edi,%edx
    23bd:	89 f0                	mov    %esi,%eax
    23bf:	66 89 55 fc          	mov    %dx,-0x4(%rbp)
    23c3:	66 89 45 f8          	mov    %ax,-0x8(%rbp)
    23c7:	0f b7 55 fc          	movzwl -0x4(%rbp),%edx
    23cb:	0f b7 45 f8          	movzwl -0x8(%rbp),%eax
    23cf:	01 d0                	add    %edx,%eax
    23d1:	5d                   	pop    %rbp
    23d2:	c3                   	retq   

00000000000023d3 <safe_sub_func_int16_t_s_s>:
    23d3:	f3 0f 1e fa          	endbr64 
    23d7:	55                   	push   %rbp
    23d8:	48 89 e5             	mov    %rsp,%rbp
    23db:	89 fa                	mov    %edi,%edx
    23dd:	89 f0                	mov    %esi,%eax
    23df:	66 89 55 fc          	mov    %dx,-0x4(%rbp)
    23e3:	66 89 45 f8          	mov    %ax,-0x8(%rbp)
    23e7:	0f b7 55 fc          	movzwl -0x4(%rbp),%edx
    23eb:	0f b7 45 f8          	movzwl -0x8(%rbp),%eax
    23ef:	29 c2                	sub    %eax,%edx
    23f1:	89 d0                	mov    %edx,%eax
    23f3:	5d                   	pop    %rbp
    23f4:	c3                   	retq   

00000000000023f5 <safe_mul_func_int16_t_s_s>:
    23f5:	f3 0f 1e fa          	endbr64 
    23f9:	55                   	push   %rbp
    23fa:	48 89 e5             	mov    %rsp,%rbp
    23fd:	89 fa                	mov    %edi,%edx
    23ff:	89 f0                	mov    %esi,%eax
    2401:	66 89 55 fc          	mov    %dx,-0x4(%rbp)
    2405:	66 89 45 f8          	mov    %ax,-0x8(%rbp)
    2409:	0f b7 55 fc          	movzwl -0x4(%rbp),%edx
    240d:	0f b7 45 f8          	movzwl -0x8(%rbp),%eax
    2411:	0f af c2             	imul   %edx,%eax
    2414:	5d                   	pop    %rbp
    2415:	c3                   	retq   

0000000000002416 <safe_mod_func_int16_t_s_s>:
    2416:	f3 0f 1e fa          	endbr64 
    241a:	55                   	push   %rbp
    241b:	48 89 e5             	mov    %rsp,%rbp
    241e:	89 fa                	mov    %edi,%edx
    2420:	89 f0                	mov    %esi,%eax
    2422:	66 89 55 fc          	mov    %dx,-0x4(%rbp)
    2426:	66 89 45 f8          	mov    %ax,-0x8(%rbp)
    242a:	66 83 7d f8 00       	cmpw   $0x0,-0x8(%rbp)
    242f:	74 1e                	je     244f <safe_mod_func_int16_t_s_s+0x39>
    2431:	66 81 7d fc 00 80    	cmpw   $0x8000,-0x4(%rbp)
    2437:	75 07                	jne    2440 <safe_mod_func_int16_t_s_s+0x2a>
    2439:	66 83 7d f8 ff       	cmpw   $0xffff,-0x8(%rbp)
    243e:	74 0f                	je     244f <safe_mod_func_int16_t_s_s+0x39>
    2440:	0f bf 45 fc          	movswl -0x4(%rbp),%eax
    2444:	0f bf 4d f8          	movswl -0x8(%rbp),%ecx
    2448:	99                   	cltd   
    2449:	f7 f9                	idiv   %ecx
    244b:	89 d0                	mov    %edx,%eax
    244d:	eb 04                	jmp    2453 <safe_mod_func_int16_t_s_s+0x3d>
    244f:	0f b7 45 fc          	movzwl -0x4(%rbp),%eax
    2453:	5d                   	pop    %rbp
    2454:	c3                   	retq   

0000000000002455 <safe_div_func_int16_t_s_s>:
    2455:	f3 0f 1e fa          	endbr64 
    2459:	55                   	push   %rbp
    245a:	48 89 e5             	mov    %rsp,%rbp
    245d:	89 fa                	mov    %edi,%edx
    245f:	89 f0                	mov    %esi,%eax
    2461:	66 89 55 fc          	mov    %dx,-0x4(%rbp)
    2465:	66 89 45 f8          	mov    %ax,-0x8(%rbp)
    2469:	66 83 7d f8 00       	cmpw   $0x0,-0x8(%rbp)
    246e:	74 1c                	je     248c <safe_div_func_int16_t_s_s+0x37>
    2470:	66 81 7d fc 00 80    	cmpw   $0x8000,-0x4(%rbp)
    2476:	75 07                	jne    247f <safe_div_func_int16_t_s_s+0x2a>
    2478:	66 83 7d f8 ff       	cmpw   $0xffff,-0x8(%rbp)
    247d:	74 0d                	je     248c <safe_div_func_int16_t_s_s+0x37>
    247f:	0f bf 45 fc          	movswl -0x4(%rbp),%eax
    2483:	0f bf 4d f8          	movswl -0x8(%rbp),%ecx
    2487:	99                   	cltd   
    2488:	f7 f9                	idiv   %ecx
    248a:	eb 04                	jmp    2490 <safe_div_func_int16_t_s_s+0x3b>
    248c:	0f b7 45 fc          	movzwl -0x4(%rbp),%eax
    2490:	5d                   	pop    %rbp
    2491:	c3                   	retq   

0000000000002492 <safe_lshift_func_int16_t_s_s>:
    2492:	f3 0f 1e fa          	endbr64 
    2496:	55                   	push   %rbp
    2497:	48 89 e5             	mov    %rsp,%rbp
    249a:	89 f8                	mov    %edi,%eax
    249c:	89 75 f8             	mov    %esi,-0x8(%rbp)
    249f:	66 89 45 fc          	mov    %ax,-0x4(%rbp)
    24a3:	66 83 7d fc 00       	cmpw   $0x0,-0x4(%rbp)
    24a8:	78 31                	js     24db <safe_lshift_func_int16_t_s_s+0x49>
    24aa:	83 7d f8 00          	cmpl   $0x0,-0x8(%rbp)
    24ae:	78 2b                	js     24db <safe_lshift_func_int16_t_s_s+0x49>
    24b0:	83 7d f8 1f          	cmpl   $0x1f,-0x8(%rbp)
    24b4:	7f 25                	jg     24db <safe_lshift_func_int16_t_s_s+0x49>
    24b6:	0f bf 55 fc          	movswl -0x4(%rbp),%edx
    24ba:	8b 45 f8             	mov    -0x8(%rbp),%eax
    24bd:	be ff 7f 00 00       	mov    $0x7fff,%esi
    24c2:	89 c1                	mov    %eax,%ecx
    24c4:	d3 fe                	sar    %cl,%esi
    24c6:	89 f0                	mov    %esi,%eax
    24c8:	39 c2                	cmp    %eax,%edx
    24ca:	7f 0f                	jg     24db <safe_lshift_func_int16_t_s_s+0x49>
    24cc:	0f bf 55 fc          	movswl -0x4(%rbp),%edx
    24d0:	8b 45 f8             	mov    -0x8(%rbp),%eax
    24d3:	89 c1                	mov    %eax,%ecx
    24d5:	d3 e2                	shl    %cl,%edx
    24d7:	89 d0                	mov    %edx,%eax
    24d9:	eb 04                	jmp    24df <safe_lshift_func_int16_t_s_s+0x4d>
    24db:	0f b7 45 fc          	movzwl -0x4(%rbp),%eax
    24df:	5d                   	pop    %rbp
    24e0:	c3                   	retq   

00000000000024e1 <safe_lshift_func_int16_t_s_u>:
    24e1:	f3 0f 1e fa          	endbr64 
    24e5:	55                   	push   %rbp
    24e6:	48 89 e5             	mov    %rsp,%rbp
    24e9:	89 f8                	mov    %edi,%eax
    24eb:	89 75 f8             	mov    %esi,-0x8(%rbp)
    24ee:	66 89 45 fc          	mov    %ax,-0x4(%rbp)
    24f2:	66 83 7d fc 00       	cmpw   $0x0,-0x4(%rbp)
    24f7:	78 2b                	js     2524 <safe_lshift_func_int16_t_s_u+0x43>
    24f9:	83 7d f8 1f          	cmpl   $0x1f,-0x8(%rbp)
    24fd:	77 25                	ja     2524 <safe_lshift_func_int16_t_s_u+0x43>
    24ff:	0f bf 55 fc          	movswl -0x4(%rbp),%edx
    2503:	8b 45 f8             	mov    -0x8(%rbp),%eax
    2506:	be ff 7f 00 00       	mov    $0x7fff,%esi
    250b:	89 c1                	mov    %eax,%ecx
    250d:	d3 fe                	sar    %cl,%esi
    250f:	89 f0                	mov    %esi,%eax
    2511:	39 c2                	cmp    %eax,%edx
    2513:	7f 0f                	jg     2524 <safe_lshift_func_int16_t_s_u+0x43>
    2515:	0f bf 55 fc          	movswl -0x4(%rbp),%edx
    2519:	8b 45 f8             	mov    -0x8(%rbp),%eax
    251c:	89 c1                	mov    %eax,%ecx
    251e:	d3 e2                	shl    %cl,%edx
    2520:	89 d0                	mov    %edx,%eax
    2522:	eb 04                	jmp    2528 <safe_lshift_func_int16_t_s_u+0x47>
    2524:	0f b7 45 fc          	movzwl -0x4(%rbp),%eax
    2528:	5d                   	pop    %rbp
    2529:	c3                   	retq   

000000000000252a <safe_rshift_func_int16_t_s_s>:
    252a:	f3 0f 1e fa          	endbr64 
    252e:	55                   	push   %rbp
    252f:	48 89 e5             	mov    %rsp,%rbp
    2532:	89 f8                	mov    %edi,%eax
    2534:	89 75 f8             	mov    %esi,-0x8(%rbp)
    2537:	66 89 45 fc          	mov    %ax,-0x4(%rbp)
    253b:	66 83 7d fc 00       	cmpw   $0x0,-0x4(%rbp)
    2540:	78 1b                	js     255d <safe_rshift_func_int16_t_s_s+0x33>
    2542:	83 7d f8 00          	cmpl   $0x0,-0x8(%rbp)
    2546:	78 15                	js     255d <safe_rshift_func_int16_t_s_s+0x33>
    2548:	83 7d f8 1f          	cmpl   $0x1f,-0x8(%rbp)
    254c:	7f 0f                	jg     255d <safe_rshift_func_int16_t_s_s+0x33>
    254e:	0f bf 55 fc          	movswl -0x4(%rbp),%edx
    2552:	8b 45 f8             	mov    -0x8(%rbp),%eax
    2555:	89 c1                	mov    %eax,%ecx
    2557:	d3 fa                	sar    %cl,%edx
    2559:	89 d0                	mov    %edx,%eax
    255b:	eb 04                	jmp    2561 <safe_rshift_func_int16_t_s_s+0x37>
    255d:	0f b7 45 fc          	movzwl -0x4(%rbp),%eax
    2561:	5d                   	pop    %rbp
    2562:	c3                   	retq   

0000000000002563 <safe_rshift_func_int16_t_s_u>:
    2563:	f3 0f 1e fa          	endbr64 
    2567:	55                   	push   %rbp
    2568:	48 89 e5             	mov    %rsp,%rbp
    256b:	89 f8                	mov    %edi,%eax
    256d:	89 75 f8             	mov    %esi,-0x8(%rbp)
    2570:	66 89 45 fc          	mov    %ax,-0x4(%rbp)
    2574:	66 83 7d fc 00       	cmpw   $0x0,-0x4(%rbp)
    2579:	78 15                	js     2590 <safe_rshift_func_int16_t_s_u+0x2d>
    257b:	83 7d f8 1f          	cmpl   $0x1f,-0x8(%rbp)
    257f:	77 0f                	ja     2590 <safe_rshift_func_int16_t_s_u+0x2d>
    2581:	0f bf 55 fc          	movswl -0x4(%rbp),%edx
    2585:	8b 45 f8             	mov    -0x8(%rbp),%eax
    2588:	89 c1                	mov    %eax,%ecx
    258a:	d3 fa                	sar    %cl,%edx
    258c:	89 d0                	mov    %edx,%eax
    258e:	eb 04                	jmp    2594 <safe_rshift_func_int16_t_s_u+0x31>
    2590:	0f b7 45 fc          	movzwl -0x4(%rbp),%eax
    2594:	5d                   	pop    %rbp
    2595:	c3                   	retq   

0000000000002596 <safe_unary_minus_func_int32_t_s>:
    2596:	f3 0f 1e fa          	endbr64 
    259a:	55                   	push   %rbp
    259b:	48 89 e5             	mov    %rsp,%rbp
    259e:	89 7d fc             	mov    %edi,-0x4(%rbp)
    25a1:	81 7d fc 00 00 00 80 	cmpl   $0x80000000,-0x4(%rbp)
    25a8:	74 07                	je     25b1 <safe_unary_minus_func_int32_t_s+0x1b>
    25aa:	8b 45 fc             	mov    -0x4(%rbp),%eax
    25ad:	f7 d8                	neg    %eax
    25af:	eb 03                	jmp    25b4 <safe_unary_minus_func_int32_t_s+0x1e>
    25b1:	8b 45 fc             	mov    -0x4(%rbp),%eax
    25b4:	5d                   	pop    %rbp
    25b5:	c3                   	retq   

00000000000025b6 <safe_add_func_int32_t_s_s>:
    25b6:	f3 0f 1e fa          	endbr64 
    25ba:	55                   	push   %rbp
    25bb:	48 89 e5             	mov    %rsp,%rbp
    25be:	89 7d fc             	mov    %edi,-0x4(%rbp)
    25c1:	89 75 f8             	mov    %esi,-0x8(%rbp)
    25c4:	83 7d fc 00          	cmpl   $0x0,-0x4(%rbp)
    25c8:	7e 13                	jle    25dd <safe_add_func_int32_t_s_s+0x27>
    25ca:	83 7d f8 00          	cmpl   $0x0,-0x8(%rbp)
    25ce:	7e 0d                	jle    25dd <safe_add_func_int32_t_s_s+0x27>
    25d0:	b8 ff ff ff 7f       	mov    $0x7fffffff,%eax
    25d5:	2b 45 f8             	sub    -0x8(%rbp),%eax
    25d8:	39 45 fc             	cmp    %eax,-0x4(%rbp)
    25db:	7f 23                	jg     2600 <safe_add_func_int32_t_s_s+0x4a>
    25dd:	83 7d fc 00          	cmpl   $0x0,-0x4(%rbp)
    25e1:	79 13                	jns    25f6 <safe_add_func_int32_t_s_s+0x40>
    25e3:	83 7d f8 00          	cmpl   $0x0,-0x8(%rbp)
    25e7:	79 0d                	jns    25f6 <safe_add_func_int32_t_s_s+0x40>
    25e9:	b8 00 00 00 80       	mov    $0x80000000,%eax
    25ee:	2b 45 f8             	sub    -0x8(%rbp),%eax
    25f1:	39 45 fc             	cmp    %eax,-0x4(%rbp)
    25f4:	7c 0a                	jl     2600 <safe_add_func_int32_t_s_s+0x4a>
    25f6:	8b 55 fc             	mov    -0x4(%rbp),%edx
    25f9:	8b 45 f8             	mov    -0x8(%rbp),%eax
    25fc:	01 d0                	add    %edx,%eax
    25fe:	eb 03                	jmp    2603 <safe_add_func_int32_t_s_s+0x4d>
    2600:	8b 45 fc             	mov    -0x4(%rbp),%eax
    2603:	5d                   	pop    %rbp
    2604:	c3                   	retq   

0000000000002605 <safe_sub_func_int32_t_s_s>:
    2605:	f3 0f 1e fa          	endbr64 
    2609:	55                   	push   %rbp
    260a:	48 89 e5             	mov    %rsp,%rbp
    260d:	89 7d fc             	mov    %edi,-0x4(%rbp)
    2610:	89 75 f8             	mov    %esi,-0x8(%rbp)
    2613:	8b 45 fc             	mov    -0x4(%rbp),%eax
    2616:	33 45 f8             	xor    -0x8(%rbp),%eax
    2619:	89 c2                	mov    %eax,%edx
    261b:	8b 45 fc             	mov    -0x4(%rbp),%eax
    261e:	33 45 f8             	xor    -0x8(%rbp),%eax
    2621:	25 00 00 00 80       	and    $0x80000000,%eax
    2626:	33 45 fc             	xor    -0x4(%rbp),%eax
    2629:	2b 45 f8             	sub    -0x8(%rbp),%eax
    262c:	33 45 f8             	xor    -0x8(%rbp),%eax
    262f:	21 d0                	and    %edx,%eax
    2631:	85 c0                	test   %eax,%eax
    2633:	78 08                	js     263d <safe_sub_func_int32_t_s_s+0x38>
    2635:	8b 45 fc             	mov    -0x4(%rbp),%eax
    2638:	2b 45 f8             	sub    -0x8(%rbp),%eax
    263b:	eb 03                	jmp    2640 <safe_sub_func_int32_t_s_s+0x3b>
    263d:	8b 45 fc             	mov    -0x4(%rbp),%eax
    2640:	5d                   	pop    %rbp
    2641:	c3                   	retq   

0000000000002642 <safe_mul_func_int32_t_s_s>:
    2642:	f3 0f 1e fa          	endbr64 
    2646:	55                   	push   %rbp
    2647:	48 89 e5             	mov    %rsp,%rbp
    264a:	89 7d fc             	mov    %edi,-0x4(%rbp)
    264d:	89 75 f8             	mov    %esi,-0x8(%rbp)
    2650:	83 7d fc 00          	cmpl   $0x0,-0x4(%rbp)
    2654:	7e 14                	jle    266a <safe_mul_func_int32_t_s_s+0x28>
    2656:	83 7d f8 00          	cmpl   $0x0,-0x8(%rbp)
    265a:	7e 0e                	jle    266a <safe_mul_func_int32_t_s_s+0x28>
    265c:	b8 ff ff ff 7f       	mov    $0x7fffffff,%eax
    2661:	99                   	cltd   
    2662:	f7 7d f8             	idivl  -0x8(%rbp)
    2665:	39 45 fc             	cmp    %eax,-0x4(%rbp)
    2668:	7f 5d                	jg     26c7 <safe_mul_func_int32_t_s_s+0x85>
    266a:	83 7d fc 00          	cmpl   $0x0,-0x4(%rbp)
    266e:	7e 14                	jle    2684 <safe_mul_func_int32_t_s_s+0x42>
    2670:	83 7d f8 00          	cmpl   $0x0,-0x8(%rbp)
    2674:	7f 0e                	jg     2684 <safe_mul_func_int32_t_s_s+0x42>
    2676:	b8 00 00 00 80       	mov    $0x80000000,%eax
    267b:	99                   	cltd   
    267c:	f7 7d fc             	idivl  -0x4(%rbp)
    267f:	39 45 f8             	cmp    %eax,-0x8(%rbp)
    2682:	7c 43                	jl     26c7 <safe_mul_func_int32_t_s_s+0x85>
    2684:	83 7d fc 00          	cmpl   $0x0,-0x4(%rbp)
    2688:	7f 14                	jg     269e <safe_mul_func_int32_t_s_s+0x5c>
    268a:	83 7d f8 00          	cmpl   $0x0,-0x8(%rbp)
    268e:	7e 0e                	jle    269e <safe_mul_func_int32_t_s_s+0x5c>
    2690:	b8 00 00 00 80       	mov    $0x80000000,%eax
    2695:	99                   	cltd   
    2696:	f7 7d f8             	idivl  -0x8(%rbp)
    2699:	39 45 fc             	cmp    %eax,-0x4(%rbp)
    269c:	7c 29                	jl     26c7 <safe_mul_func_int32_t_s_s+0x85>
    269e:	83 7d fc 00          	cmpl   $0x0,-0x4(%rbp)
    26a2:	7f 1a                	jg     26be <safe_mul_func_int32_t_s_s+0x7c>
    26a4:	83 7d f8 00          	cmpl   $0x0,-0x8(%rbp)
    26a8:	7f 14                	jg     26be <safe_mul_func_int32_t_s_s+0x7c>
    26aa:	83 7d fc 00          	cmpl   $0x0,-0x4(%rbp)
    26ae:	74 0e                	je     26be <safe_mul_func_int32_t_s_s+0x7c>
    26b0:	b8 ff ff ff 7f       	mov    $0x7fffffff,%eax
    26b5:	99                   	cltd   
    26b6:	f7 7d fc             	idivl  -0x4(%rbp)
    26b9:	39 45 f8             	cmp    %eax,-0x8(%rbp)
    26bc:	7c 09                	jl     26c7 <safe_mul_func_int32_t_s_s+0x85>
    26be:	8b 45 fc             	mov    -0x4(%rbp),%eax
    26c1:	0f af 45 f8          	imul   -0x8(%rbp),%eax
    26c5:	eb 03                	jmp    26ca <safe_mul_func_int32_t_s_s+0x88>
    26c7:	8b 45 fc             	mov    -0x4(%rbp),%eax
    26ca:	5d                   	pop    %rbp
    26cb:	c3                   	retq   

00000000000026cc <safe_mod_func_int32_t_s_s>:
    26cc:	f3 0f 1e fa          	endbr64 
    26d0:	55                   	push   %rbp
    26d1:	48 89 e5             	mov    %rsp,%rbp
    26d4:	89 7d fc             	mov    %edi,-0x4(%rbp)
    26d7:	89 75 f8             	mov    %esi,-0x8(%rbp)
    26da:	83 7d f8 00          	cmpl   $0x0,-0x8(%rbp)
    26de:	74 1a                	je     26fa <safe_mod_func_int32_t_s_s+0x2e>
    26e0:	81 7d fc 00 00 00 80 	cmpl   $0x80000000,-0x4(%rbp)
    26e7:	75 06                	jne    26ef <safe_mod_func_int32_t_s_s+0x23>
    26e9:	83 7d f8 ff          	cmpl   $0xffffffff,-0x8(%rbp)
    26ed:	74 0b                	je     26fa <safe_mod_func_int32_t_s_s+0x2e>
    26ef:	8b 45 fc             	mov    -0x4(%rbp),%eax
    26f2:	99                   	cltd   
    26f3:	f7 7d f8             	idivl  -0x8(%rbp)
    26f6:	89 d0                	mov    %edx,%eax
    26f8:	eb 03                	jmp    26fd <safe_mod_func_int32_t_s_s+0x31>
    26fa:	8b 45 fc             	mov    -0x4(%rbp),%eax
    26fd:	5d                   	pop    %rbp
    26fe:	c3                   	retq   

00000000000026ff <safe_div_func_int32_t_s_s>:
    26ff:	f3 0f 1e fa          	endbr64 
    2703:	55                   	push   %rbp
    2704:	48 89 e5             	mov    %rsp,%rbp
    2707:	89 7d fc             	mov    %edi,-0x4(%rbp)
    270a:	89 75 f8             	mov    %esi,-0x8(%rbp)
    270d:	83 7d f8 00          	cmpl   $0x0,-0x8(%rbp)
    2711:	74 18                	je     272b <safe_div_func_int32_t_s_s+0x2c>
    2713:	81 7d fc 00 00 00 80 	cmpl   $0x80000000,-0x4(%rbp)
    271a:	75 06                	jne    2722 <safe_div_func_int32_t_s_s+0x23>
    271c:	83 7d f8 ff          	cmpl   $0xffffffff,-0x8(%rbp)
    2720:	74 09                	je     272b <safe_div_func_int32_t_s_s+0x2c>
    2722:	8b 45 fc             	mov    -0x4(%rbp),%eax
    2725:	99                   	cltd   
    2726:	f7 7d f8             	idivl  -0x8(%rbp)
    2729:	eb 03                	jmp    272e <safe_div_func_int32_t_s_s+0x2f>
    272b:	8b 45 fc             	mov    -0x4(%rbp),%eax
    272e:	5d                   	pop    %rbp
    272f:	c3                   	retq   

0000000000002730 <safe_lshift_func_int32_t_s_s>:
    2730:	f3 0f 1e fa          	endbr64 
    2734:	55                   	push   %rbp
    2735:	48 89 e5             	mov    %rsp,%rbp
    2738:	89 7d fc             	mov    %edi,-0x4(%rbp)
    273b:	89 75 f8             	mov    %esi,-0x8(%rbp)
    273e:	83 7d fc 00          	cmpl   $0x0,-0x4(%rbp)
    2742:	78 2d                	js     2771 <safe_lshift_func_int32_t_s_s+0x41>
    2744:	83 7d f8 00          	cmpl   $0x0,-0x8(%rbp)
    2748:	78 27                	js     2771 <safe_lshift_func_int32_t_s_s+0x41>
    274a:	83 7d f8 1f          	cmpl   $0x1f,-0x8(%rbp)
    274e:	7f 21                	jg     2771 <safe_lshift_func_int32_t_s_s+0x41>
    2750:	8b 45 f8             	mov    -0x8(%rbp),%eax
    2753:	ba ff ff ff 7f       	mov    $0x7fffffff,%edx
    2758:	89 c1                	mov    %eax,%ecx
    275a:	d3 fa                	sar    %cl,%edx
    275c:	89 d0                	mov    %edx,%eax
    275e:	39 45 fc             	cmp    %eax,-0x4(%rbp)
    2761:	7f 0e                	jg     2771 <safe_lshift_func_int32_t_s_s+0x41>
    2763:	8b 45 f8             	mov    -0x8(%rbp),%eax
    2766:	8b 55 fc             	mov    -0x4(%rbp),%edx
    2769:	89 c1                	mov    %eax,%ecx
    276b:	d3 e2                	shl    %cl,%edx
    276d:	89 d0                	mov    %edx,%eax
    276f:	eb 03                	jmp    2774 <safe_lshift_func_int32_t_s_s+0x44>
    2771:	8b 45 fc             	mov    -0x4(%rbp),%eax
    2774:	5d                   	pop    %rbp
    2775:	c3                   	retq   

0000000000002776 <safe_lshift_func_int32_t_s_u>:
    2776:	f3 0f 1e fa          	endbr64 
    277a:	55                   	push   %rbp
    277b:	48 89 e5             	mov    %rsp,%rbp
    277e:	89 7d fc             	mov    %edi,-0x4(%rbp)
    2781:	89 75 f8             	mov    %esi,-0x8(%rbp)
    2784:	83 7d fc 00          	cmpl   $0x0,-0x4(%rbp)
    2788:	78 27                	js     27b1 <safe_lshift_func_int32_t_s_u+0x3b>
    278a:	83 7d f8 1f          	cmpl   $0x1f,-0x8(%rbp)
    278e:	77 21                	ja     27b1 <safe_lshift_func_int32_t_s_u+0x3b>
    2790:	8b 45 f8             	mov    -0x8(%rbp),%eax
    2793:	ba ff ff ff 7f       	mov    $0x7fffffff,%edx
    2798:	89 c1                	mov    %eax,%ecx
    279a:	d3 fa                	sar    %cl,%edx
    279c:	89 d0                	mov    %edx,%eax
    279e:	39 45 fc             	cmp    %eax,-0x4(%rbp)
    27a1:	7f 0e                	jg     27b1 <safe_lshift_func_int32_t_s_u+0x3b>
    27a3:	8b 45 f8             	mov    -0x8(%rbp),%eax
    27a6:	8b 55 fc             	mov    -0x4(%rbp),%edx
    27a9:	89 c1                	mov    %eax,%ecx
    27ab:	d3 e2                	shl    %cl,%edx
    27ad:	89 d0                	mov    %edx,%eax
    27af:	eb 03                	jmp    27b4 <safe_lshift_func_int32_t_s_u+0x3e>
    27b1:	8b 45 fc             	mov    -0x4(%rbp),%eax
    27b4:	5d                   	pop    %rbp
    27b5:	c3                   	retq   

00000000000027b6 <safe_rshift_func_int32_t_s_s>:
    27b6:	f3 0f 1e fa          	endbr64 
    27ba:	55                   	push   %rbp
    27bb:	48 89 e5             	mov    %rsp,%rbp
    27be:	89 7d fc             	mov    %edi,-0x4(%rbp)
    27c1:	89 75 f8             	mov    %esi,-0x8(%rbp)
    27c4:	83 7d fc 00          	cmpl   $0x0,-0x4(%rbp)
    27c8:	78 1a                	js     27e4 <safe_rshift_func_int32_t_s_s+0x2e>
    27ca:	83 7d f8 00          	cmpl   $0x0,-0x8(%rbp)
    27ce:	78 14                	js     27e4 <safe_rshift_func_int32_t_s_s+0x2e>
    27d0:	83 7d f8 1f          	cmpl   $0x1f,-0x8(%rbp)
    27d4:	7f 0e                	jg     27e4 <safe_rshift_func_int32_t_s_s+0x2e>
    27d6:	8b 45 f8             	mov    -0x8(%rbp),%eax
    27d9:	8b 55 fc             	mov    -0x4(%rbp),%edx
    27dc:	89 c1                	mov    %eax,%ecx
    27de:	d3 fa                	sar    %cl,%edx
    27e0:	89 d0                	mov    %edx,%eax
    27e2:	eb 03                	jmp    27e7 <safe_rshift_func_int32_t_s_s+0x31>
    27e4:	8b 45 fc             	mov    -0x4(%rbp),%eax
    27e7:	5d                   	pop    %rbp
    27e8:	c3                   	retq   

00000000000027e9 <safe_rshift_func_int32_t_s_u>:
    27e9:	f3 0f 1e fa          	endbr64 
    27ed:	55                   	push   %rbp
    27ee:	48 89 e5             	mov    %rsp,%rbp
    27f1:	89 7d fc             	mov    %edi,-0x4(%rbp)
    27f4:	89 75 f8             	mov    %esi,-0x8(%rbp)
    27f7:	83 7d fc 00          	cmpl   $0x0,-0x4(%rbp)
    27fb:	78 14                	js     2811 <safe_rshift_func_int32_t_s_u+0x28>
    27fd:	83 7d f8 1f          	cmpl   $0x1f,-0x8(%rbp)
    2801:	77 0e                	ja     2811 <safe_rshift_func_int32_t_s_u+0x28>
    2803:	8b 45 f8             	mov    -0x8(%rbp),%eax
    2806:	8b 55 fc             	mov    -0x4(%rbp),%edx
    2809:	89 c1                	mov    %eax,%ecx
    280b:	d3 fa                	sar    %cl,%edx
    280d:	89 d0                	mov    %edx,%eax
    280f:	eb 03                	jmp    2814 <safe_rshift_func_int32_t_s_u+0x2b>
    2811:	8b 45 fc             	mov    -0x4(%rbp),%eax
    2814:	5d                   	pop    %rbp
    2815:	c3                   	retq   

0000000000002816 <safe_unary_minus_func_int64_t_s>:
    2816:	f3 0f 1e fa          	endbr64 
    281a:	55                   	push   %rbp
    281b:	48 89 e5             	mov    %rsp,%rbp
    281e:	48 89 7d f8          	mov    %rdi,-0x8(%rbp)
    2822:	48 b8 00 00 00 00 00 	movabs $0x8000000000000000,%rax
    2829:	00 00 80 
    282c:	48 39 45 f8          	cmp    %rax,-0x8(%rbp)
    2830:	74 09                	je     283b <safe_unary_minus_func_int64_t_s+0x25>
    2832:	48 8b 45 f8          	mov    -0x8(%rbp),%rax
    2836:	48 f7 d8             	neg    %rax
    2839:	eb 04                	jmp    283f <safe_unary_minus_func_int64_t_s+0x29>
    283b:	48 8b 45 f8          	mov    -0x8(%rbp),%rax
    283f:	5d                   	pop    %rbp
    2840:	c3                   	retq   

0000000000002841 <safe_add_func_int64_t_s_s>:
    2841:	f3 0f 1e fa          	endbr64 
    2845:	55                   	push   %rbp
    2846:	48 89 e5             	mov    %rsp,%rbp
    2849:	48 89 7d f8          	mov    %rdi,-0x8(%rbp)
    284d:	48 89 75 f0          	mov    %rsi,-0x10(%rbp)
    2851:	48 83 7d f8 00       	cmpq   $0x0,-0x8(%rbp)
    2856:	7e 1b                	jle    2873 <safe_add_func_int64_t_s_s+0x32>
    2858:	48 83 7d f0 00       	cmpq   $0x0,-0x10(%rbp)
    285d:	7e 14                	jle    2873 <safe_add_func_int64_t_s_s+0x32>
    285f:	48 b8 ff ff ff ff ff 	movabs $0x7fffffffffffffff,%rax
    2866:	ff ff 7f 
    2869:	48 2b 45 f0          	sub    -0x10(%rbp),%rax
    286d:	48 39 45 f8          	cmp    %rax,-0x8(%rbp)
    2871:	7f 2f                	jg     28a2 <safe_add_func_int64_t_s_s+0x61>
    2873:	48 83 7d f8 00       	cmpq   $0x0,-0x8(%rbp)
    2878:	79 1b                	jns    2895 <safe_add_func_int64_t_s_s+0x54>
    287a:	48 83 7d f0 00       	cmpq   $0x0,-0x10(%rbp)
    287f:	79 14                	jns    2895 <safe_add_func_int64_t_s_s+0x54>
    2881:	48 b8 00 00 00 00 00 	movabs $0x8000000000000000,%rax
    2888:	00 00 80 
    288b:	48 2b 45 f0          	sub    -0x10(%rbp),%rax
    288f:	48 39 45 f8          	cmp    %rax,-0x8(%rbp)
    2893:	7c 0d                	jl     28a2 <safe_add_func_int64_t_s_s+0x61>
    2895:	48 8b 55 f8          	mov    -0x8(%rbp),%rdx
    2899:	48 8b 45 f0          	mov    -0x10(%rbp),%rax
    289d:	48 01 d0             	add    %rdx,%rax
    28a0:	eb 04                	jmp    28a6 <safe_add_func_int64_t_s_s+0x65>
    28a2:	48 8b 45 f8          	mov    -0x8(%rbp),%rax
    28a6:	5d                   	pop    %rbp
    28a7:	c3                   	retq   

00000000000028a8 <safe_sub_func_int64_t_s_s>:
    28a8:	f3 0f 1e fa          	endbr64 
    28ac:	55                   	push   %rbp
    28ad:	48 89 e5             	mov    %rsp,%rbp
    28b0:	48 89 7d f8          	mov    %rdi,-0x8(%rbp)
    28b4:	48 89 75 f0          	mov    %rsi,-0x10(%rbp)
    28b8:	48 8b 45 f8          	mov    -0x8(%rbp),%rax
    28bc:	48 33 45 f0          	xor    -0x10(%rbp),%rax
    28c0:	48 89 c2             	mov    %rax,%rdx
    28c3:	48 8b 45 f8          	mov    -0x8(%rbp),%rax
    28c7:	48 33 45 f0          	xor    -0x10(%rbp),%rax
    28cb:	48 b9 00 00 00 00 00 	movabs $0x8000000000000000,%rcx
    28d2:	00 00 80 
    28d5:	48 21 c8             	and    %rcx,%rax
    28d8:	48 33 45 f8          	xor    -0x8(%rbp),%rax
    28dc:	48 2b 45 f0          	sub    -0x10(%rbp),%rax
    28e0:	48 33 45 f0          	xor    -0x10(%rbp),%rax
    28e4:	48 21 d0             	and    %rdx,%rax
    28e7:	48 85 c0             	test   %rax,%rax
    28ea:	78 0a                	js     28f6 <safe_sub_func_int64_t_s_s+0x4e>
    28ec:	48 8b 45 f8          	mov    -0x8(%rbp),%rax
    28f0:	48 2b 45 f0          	sub    -0x10(%rbp),%rax
    28f4:	eb 04                	jmp    28fa <safe_sub_func_int64_t_s_s+0x52>
    28f6:	48 8b 45 f8          	mov    -0x8(%rbp),%rax
    28fa:	5d                   	pop    %rbp
    28fb:	c3                   	retq   

00000000000028fc <safe_mul_func_int64_t_s_s>:
    28fc:	f3 0f 1e fa          	endbr64 
    2900:	55                   	push   %rbp
    2901:	48 89 e5             	mov    %rsp,%rbp
    2904:	48 89 7d f8          	mov    %rdi,-0x8(%rbp)
    2908:	48 89 75 f0          	mov    %rsi,-0x10(%rbp)
    290c:	48 83 7d f8 00       	cmpq   $0x0,-0x8(%rbp)
    2911:	7e 1d                	jle    2930 <safe_mul_func_int64_t_s_s+0x34>
    2913:	48 83 7d f0 00       	cmpq   $0x0,-0x10(%rbp)
    2918:	7e 16                	jle    2930 <safe_mul_func_int64_t_s_s+0x34>
    291a:	48 b8 ff ff ff ff ff 	movabs $0x7fffffffffffffff,%rax
    2921:	ff ff 7f 
    2924:	48 99                	cqto   
    2926:	48 f7 7d f0          	idivq  -0x10(%rbp)
    292a:	48 39 45 f8          	cmp    %rax,-0x8(%rbp)
    292e:	7f 7e                	jg     29ae <safe_mul_func_int64_t_s_s+0xb2>
    2930:	48 83 7d f8 00       	cmpq   $0x0,-0x8(%rbp)
    2935:	7e 1d                	jle    2954 <safe_mul_func_int64_t_s_s+0x58>
    2937:	48 83 7d f0 00       	cmpq   $0x0,-0x10(%rbp)
    293c:	7f 16                	jg     2954 <safe_mul_func_int64_t_s_s+0x58>
    293e:	48 b8 00 00 00 00 00 	movabs $0x8000000000000000,%rax
    2945:	00 00 80 
    2948:	48 99                	cqto   
    294a:	48 f7 7d f8          	idivq  -0x8(%rbp)
    294e:	48 39 45 f0          	cmp    %rax,-0x10(%rbp)
    2952:	7c 5a                	jl     29ae <safe_mul_func_int64_t_s_s+0xb2>
    2954:	48 83 7d f8 00       	cmpq   $0x0,-0x8(%rbp)
    2959:	7f 1d                	jg     2978 <safe_mul_func_int64_t_s_s+0x7c>
    295b:	48 83 7d f0 00       	cmpq   $0x0,-0x10(%rbp)
    2960:	7e 16                	jle    2978 <safe_mul_func_int64_t_s_s+0x7c>
    2962:	48 b8 00 00 00 00 00 	movabs $0x8000000000000000,%rax
    2969:	00 00 80 
    296c:	48 99                	cqto   
    296e:	48 f7 7d f0          	idivq  -0x10(%rbp)
    2972:	48 39 45 f8          	cmp    %rax,-0x8(%rbp)
    2976:	7c 36                	jl     29ae <safe_mul_func_int64_t_s_s+0xb2>
    2978:	48 83 7d f8 00       	cmpq   $0x0,-0x8(%rbp)
    297d:	7f 24                	jg     29a3 <safe_mul_func_int64_t_s_s+0xa7>
    297f:	48 83 7d f0 00       	cmpq   $0x0,-0x10(%rbp)
    2984:	7f 1d                	jg     29a3 <safe_mul_func_int64_t_s_s+0xa7>
    2986:	48 83 7d f8 00       	cmpq   $0x0,-0x8(%rbp)
    298b:	74 16                	je     29a3 <safe_mul_func_int64_t_s_s+0xa7>
    298d:	48 b8 ff ff ff ff ff 	movabs $0x7fffffffffffffff,%rax
    2994:	ff ff 7f 
    2997:	48 99                	cqto   
    2999:	48 f7 7d f8          	idivq  -0x8(%rbp)
    299d:	48 39 45 f0          	cmp    %rax,-0x10(%rbp)
    29a1:	7c 0b                	jl     29ae <safe_mul_func_int64_t_s_s+0xb2>
    29a3:	48 8b 45 f8          	mov    -0x8(%rbp),%rax
    29a7:	48 0f af 45 f0       	imul   -0x10(%rbp),%rax
    29ac:	eb 04                	jmp    29b2 <safe_mul_func_int64_t_s_s+0xb6>
    29ae:	48 8b 45 f8          	mov    -0x8(%rbp),%rax
    29b2:	5d                   	pop    %rbp
    29b3:	c3                   	retq   

00000000000029b4 <safe_mod_func_int64_t_s_s>:
    29b4:	f3 0f 1e fa          	endbr64 
    29b8:	55                   	push   %rbp
    29b9:	48 89 e5             	mov    %rsp,%rbp
    29bc:	48 89 7d f8          	mov    %rdi,-0x8(%rbp)
    29c0:	48 89 75 f0          	mov    %rsi,-0x10(%rbp)
    29c4:	48 83 7d f0 00       	cmpq   $0x0,-0x10(%rbp)
    29c9:	74 26                	je     29f1 <safe_mod_func_int64_t_s_s+0x3d>
    29cb:	48 b8 00 00 00 00 00 	movabs $0x8000000000000000,%rax
    29d2:	00 00 80 
    29d5:	48 39 45 f8          	cmp    %rax,-0x8(%rbp)
    29d9:	75 07                	jne    29e2 <safe_mod_func_int64_t_s_s+0x2e>
    29db:	48 83 7d f0 ff       	cmpq   $0xffffffffffffffff,-0x10(%rbp)
    29e0:	74 0f                	je     29f1 <safe_mod_func_int64_t_s_s+0x3d>
    29e2:	48 8b 45 f8          	mov    -0x8(%rbp),%rax
    29e6:	48 99                	cqto   
    29e8:	48 f7 7d f0          	idivq  -0x10(%rbp)
    29ec:	48 89 d0             	mov    %rdx,%rax
    29ef:	eb 04                	jmp    29f5 <safe_mod_func_int64_t_s_s+0x41>
    29f1:	48 8b 45 f8          	mov    -0x8(%rbp),%rax
    29f5:	5d                   	pop    %rbp
    29f6:	c3                   	retq   

00000000000029f7 <safe_div_func_int64_t_s_s>:
    29f7:	f3 0f 1e fa          	endbr64 
    29fb:	55                   	push   %rbp
    29fc:	48 89 e5             	mov    %rsp,%rbp
    29ff:	48 89 7d f8          	mov    %rdi,-0x8(%rbp)
    2a03:	48 89 75 f0          	mov    %rsi,-0x10(%rbp)
    2a07:	48 83 7d f0 00       	cmpq   $0x0,-0x10(%rbp)
    2a0c:	74 23                	je     2a31 <safe_div_func_int64_t_s_s+0x3a>
    2a0e:	48 b8 00 00 00 00 00 	movabs $0x8000000000000000,%rax
    2a15:	00 00 80 
    2a18:	48 39 45 f8          	cmp    %rax,-0x8(%rbp)
    2a1c:	75 07                	jne    2a25 <safe_div_func_int64_t_s_s+0x2e>
    2a1e:	48 83 7d f0 ff       	cmpq   $0xffffffffffffffff,-0x10(%rbp)
    2a23:	74 0c                	je     2a31 <safe_div_func_int64_t_s_s+0x3a>
    2a25:	48 8b 45 f8          	mov    -0x8(%rbp),%rax
    2a29:	48 99                	cqto   
    2a2b:	48 f7 7d f0          	idivq  -0x10(%rbp)
    2a2f:	eb 04                	jmp    2a35 <safe_div_func_int64_t_s_s+0x3e>
    2a31:	48 8b 45 f8          	mov    -0x8(%rbp),%rax
    2a35:	5d                   	pop    %rbp
    2a36:	c3                   	retq   

0000000000002a37 <safe_lshift_func_int64_t_s_s>:
    2a37:	f3 0f 1e fa          	endbr64 
    2a3b:	55                   	push   %rbp
    2a3c:	48 89 e5             	mov    %rsp,%rbp
    2a3f:	48 89 7d f8          	mov    %rdi,-0x8(%rbp)
    2a43:	89 75 f4             	mov    %esi,-0xc(%rbp)
    2a46:	48 83 7d f8 00       	cmpq   $0x0,-0x8(%rbp)
    2a4b:	78 38                	js     2a85 <safe_lshift_func_int64_t_s_s+0x4e>
    2a4d:	83 7d f4 00          	cmpl   $0x0,-0xc(%rbp)
    2a51:	78 32                	js     2a85 <safe_lshift_func_int64_t_s_s+0x4e>
    2a53:	83 7d f4 1f          	cmpl   $0x1f,-0xc(%rbp)
    2a57:	7f 2c                	jg     2a85 <safe_lshift_func_int64_t_s_s+0x4e>
    2a59:	8b 45 f4             	mov    -0xc(%rbp),%eax
    2a5c:	48 ba ff ff ff ff ff 	movabs $0x7fffffffffffffff,%rdx
    2a63:	ff ff 7f 
    2a66:	89 c1                	mov    %eax,%ecx
    2a68:	48 d3 fa             	sar    %cl,%rdx
    2a6b:	48 89 d0             	mov    %rdx,%rax
    2a6e:	48 39 45 f8          	cmp    %rax,-0x8(%rbp)
    2a72:	7f 11                	jg     2a85 <safe_lshift_func_int64_t_s_s+0x4e>
    2a74:	8b 45 f4             	mov    -0xc(%rbp),%eax
    2a77:	48 8b 55 f8          	mov    -0x8(%rbp),%rdx
    2a7b:	89 c1                	mov    %eax,%ecx
    2a7d:	48 d3 e2             	shl    %cl,%rdx
    2a80:	48 89 d0             	mov    %rdx,%rax
    2a83:	eb 04                	jmp    2a89 <safe_lshift_func_int64_t_s_s+0x52>
    2a85:	48 8b 45 f8          	mov    -0x8(%rbp),%rax
    2a89:	5d                   	pop    %rbp
    2a8a:	c3                   	retq   

0000000000002a8b <safe_lshift_func_int64_t_s_u>:
    2a8b:	f3 0f 1e fa          	endbr64 
    2a8f:	55                   	push   %rbp
    2a90:	48 89 e5             	mov    %rsp,%rbp
    2a93:	48 89 7d f8          	mov    %rdi,-0x8(%rbp)
    2a97:	89 75 f4             	mov    %esi,-0xc(%rbp)
    2a9a:	48 83 7d f8 00       	cmpq   $0x0,-0x8(%rbp)
    2a9f:	78 32                	js     2ad3 <safe_lshift_func_int64_t_s_u+0x48>
    2aa1:	83 7d f4 1f          	cmpl   $0x1f,-0xc(%rbp)
    2aa5:	77 2c                	ja     2ad3 <safe_lshift_func_int64_t_s_u+0x48>
    2aa7:	8b 45 f4             	mov    -0xc(%rbp),%eax
    2aaa:	48 ba ff ff ff ff ff 	movabs $0x7fffffffffffffff,%rdx
    2ab1:	ff ff 7f 
    2ab4:	89 c1                	mov    %eax,%ecx
    2ab6:	48 d3 fa             	sar    %cl,%rdx
    2ab9:	48 89 d0             	mov    %rdx,%rax
    2abc:	48 39 45 f8          	cmp    %rax,-0x8(%rbp)
    2ac0:	7f 11                	jg     2ad3 <safe_lshift_func_int64_t_s_u+0x48>
    2ac2:	8b 45 f4             	mov    -0xc(%rbp),%eax
    2ac5:	48 8b 55 f8          	mov    -0x8(%rbp),%rdx
    2ac9:	89 c1                	mov    %eax,%ecx
    2acb:	48 d3 e2             	shl    %cl,%rdx
    2ace:	48 89 d0             	mov    %rdx,%rax
    2ad1:	eb 04                	jmp    2ad7 <safe_lshift_func_int64_t_s_u+0x4c>
    2ad3:	48 8b 45 f8          	mov    -0x8(%rbp),%rax
    2ad7:	5d                   	pop    %rbp
    2ad8:	c3                   	retq   

0000000000002ad9 <safe_rshift_func_int64_t_s_s>:
    2ad9:	f3 0f 1e fa          	endbr64 
    2add:	55                   	push   %rbp
    2ade:	48 89 e5             	mov    %rsp,%rbp
    2ae1:	48 89 7d f8          	mov    %rdi,-0x8(%rbp)
    2ae5:	89 75 f4             	mov    %esi,-0xc(%rbp)
    2ae8:	48 83 7d f8 00       	cmpq   $0x0,-0x8(%rbp)
    2aed:	78 1d                	js     2b0c <safe_rshift_func_int64_t_s_s+0x33>
    2aef:	83 7d f4 00          	cmpl   $0x0,-0xc(%rbp)
    2af3:	78 17                	js     2b0c <safe_rshift_func_int64_t_s_s+0x33>
    2af5:	83 7d f4 1f          	cmpl   $0x1f,-0xc(%rbp)
    2af9:	7f 11                	jg     2b0c <safe_rshift_func_int64_t_s_s+0x33>
    2afb:	8b 45 f4             	mov    -0xc(%rbp),%eax
    2afe:	48 8b 55 f8          	mov    -0x8(%rbp),%rdx
    2b02:	89 c1                	mov    %eax,%ecx
    2b04:	48 d3 fa             	sar    %cl,%rdx
    2b07:	48 89 d0             	mov    %rdx,%rax
    2b0a:	eb 04                	jmp    2b10 <safe_rshift_func_int64_t_s_s+0x37>
    2b0c:	48 8b 45 f8          	mov    -0x8(%rbp),%rax
    2b10:	5d                   	pop    %rbp
    2b11:	c3                   	retq   

0000000000002b12 <safe_rshift_func_int64_t_s_u>:
    2b12:	f3 0f 1e fa          	endbr64 
    2b16:	55                   	push   %rbp
    2b17:	48 89 e5             	mov    %rsp,%rbp
    2b1a:	48 89 7d f8          	mov    %rdi,-0x8(%rbp)
    2b1e:	89 75 f4             	mov    %esi,-0xc(%rbp)
    2b21:	48 83 7d f8 00       	cmpq   $0x0,-0x8(%rbp)
    2b26:	78 17                	js     2b3f <safe_rshift_func_int64_t_s_u+0x2d>
    2b28:	83 7d f4 1f          	cmpl   $0x1f,-0xc(%rbp)
    2b2c:	77 11                	ja     2b3f <safe_rshift_func_int64_t_s_u+0x2d>
    2b2e:	8b 45 f4             	mov    -0xc(%rbp),%eax
    2b31:	48 8b 55 f8          	mov    -0x8(%rbp),%rdx
    2b35:	89 c1                	mov    %eax,%ecx
    2b37:	48 d3 fa             	sar    %cl,%rdx
    2b3a:	48 89 d0             	mov    %rdx,%rax
    2b3d:	eb 04                	jmp    2b43 <safe_rshift_func_int64_t_s_u+0x31>
    2b3f:	48 8b 45 f8          	mov    -0x8(%rbp),%rax
    2b43:	5d                   	pop    %rbp
    2b44:	c3                   	retq   

0000000000002b45 <safe_unary_minus_func_uint8_t_u>:
    2b45:	f3 0f 1e fa          	endbr64 
    2b49:	55                   	push   %rbp
    2b4a:	48 89 e5             	mov    %rsp,%rbp
    2b4d:	89 f8                	mov    %edi,%eax
    2b4f:	88 45 fc             	mov    %al,-0x4(%rbp)
    2b52:	0f b6 45 fc          	movzbl -0x4(%rbp),%eax
    2b56:	f7 d8                	neg    %eax
    2b58:	5d                   	pop    %rbp
    2b59:	c3                   	retq   

0000000000002b5a <safe_add_func_uint8_t_u_u>:
    2b5a:	f3 0f 1e fa          	endbr64 
    2b5e:	55                   	push   %rbp
    2b5f:	48 89 e5             	mov    %rsp,%rbp
    2b62:	89 fa                	mov    %edi,%edx
    2b64:	89 f0                	mov    %esi,%eax
    2b66:	88 55 fc             	mov    %dl,-0x4(%rbp)
    2b69:	88 45 f8             	mov    %al,-0x8(%rbp)
    2b6c:	0f b6 55 fc          	movzbl -0x4(%rbp),%edx
    2b70:	0f b6 45 f8          	movzbl -0x8(%rbp),%eax
    2b74:	01 d0                	add    %edx,%eax
    2b76:	5d                   	pop    %rbp
    2b77:	c3                   	retq   

0000000000002b78 <safe_sub_func_uint8_t_u_u>:
    2b78:	f3 0f 1e fa          	endbr64 
    2b7c:	55                   	push   %rbp
    2b7d:	48 89 e5             	mov    %rsp,%rbp
    2b80:	89 fa                	mov    %edi,%edx
    2b82:	89 f0                	mov    %esi,%eax
    2b84:	88 55 fc             	mov    %dl,-0x4(%rbp)
    2b87:	88 45 f8             	mov    %al,-0x8(%rbp)
    2b8a:	0f b6 45 fc          	movzbl -0x4(%rbp),%eax
    2b8e:	2a 45 f8             	sub    -0x8(%rbp),%al
    2b91:	5d                   	pop    %rbp
    2b92:	c3                   	retq   

0000000000002b93 <safe_mul_func_uint8_t_u_u>:
    2b93:	f3 0f 1e fa          	endbr64 
    2b97:	55                   	push   %rbp
    2b98:	48 89 e5             	mov    %rsp,%rbp
    2b9b:	89 fa                	mov    %edi,%edx
    2b9d:	89 f0                	mov    %esi,%eax
    2b9f:	88 55 fc             	mov    %dl,-0x4(%rbp)
    2ba2:	88 45 f8             	mov    %al,-0x8(%rbp)
    2ba5:	0f b6 45 fc          	movzbl -0x4(%rbp),%eax
    2ba9:	f6 65 f8             	mulb   -0x8(%rbp)
    2bac:	5d                   	pop    %rbp
    2bad:	c3                   	retq   

0000000000002bae <safe_mod_func_uint8_t_u_u>:
    2bae:	f3 0f 1e fa          	endbr64 
    2bb2:	55                   	push   %rbp
    2bb3:	48 89 e5             	mov    %rsp,%rbp
    2bb6:	89 fa                	mov    %edi,%edx
    2bb8:	89 f0                	mov    %esi,%eax
    2bba:	88 55 fc             	mov    %dl,-0x4(%rbp)
    2bbd:	88 45 f8             	mov    %al,-0x8(%rbp)
    2bc0:	80 7d f8 00          	cmpb   $0x0,-0x8(%rbp)
    2bc4:	74 0f                	je     2bd5 <safe_mod_func_uint8_t_u_u+0x27>
    2bc6:	0f b6 45 fc          	movzbl -0x4(%rbp),%eax
    2bca:	0f b6 c0             	movzbl %al,%eax
    2bcd:	f6 75 f8             	divb   -0x8(%rbp)
    2bd0:	0f b6 c4             	movzbl %ah,%eax
    2bd3:	eb 04                	jmp    2bd9 <safe_mod_func_uint8_t_u_u+0x2b>
    2bd5:	0f b6 45 fc          	movzbl -0x4(%rbp),%eax
    2bd9:	5d                   	pop    %rbp
    2bda:	c3                   	retq   

0000000000002bdb <safe_div_func_uint8_t_u_u>:
    2bdb:	f3 0f 1e fa          	endbr64 
    2bdf:	55                   	push   %rbp
    2be0:	48 89 e5             	mov    %rsp,%rbp
    2be3:	89 fa                	mov    %edi,%edx
    2be5:	89 f0                	mov    %esi,%eax
    2be7:	88 55 fc             	mov    %dl,-0x4(%rbp)
    2bea:	88 45 f8             	mov    %al,-0x8(%rbp)
    2bed:	80 7d f8 00          	cmpb   $0x0,-0x8(%rbp)
    2bf1:	74 0c                	je     2bff <safe_div_func_uint8_t_u_u+0x24>
    2bf3:	0f b6 45 fc          	movzbl -0x4(%rbp),%eax
    2bf7:	0f b6 c0             	movzbl %al,%eax
    2bfa:	f6 75 f8             	divb   -0x8(%rbp)
    2bfd:	eb 04                	jmp    2c03 <safe_div_func_uint8_t_u_u+0x28>
    2bff:	0f b6 45 fc          	movzbl -0x4(%rbp),%eax
    2c03:	5d                   	pop    %rbp
    2c04:	c3                   	retq   

0000000000002c05 <safe_lshift_func_uint8_t_u_s>:
    2c05:	f3 0f 1e fa          	endbr64 
    2c09:	55                   	push   %rbp
    2c0a:	48 89 e5             	mov    %rsp,%rbp
    2c0d:	89 f8                	mov    %edi,%eax
    2c0f:	89 75 f8             	mov    %esi,-0x8(%rbp)
    2c12:	88 45 fc             	mov    %al,-0x4(%rbp)
    2c15:	83 7d f8 00          	cmpl   $0x0,-0x8(%rbp)
    2c19:	78 2b                	js     2c46 <safe_lshift_func_uint8_t_u_s+0x41>
    2c1b:	83 7d f8 1f          	cmpl   $0x1f,-0x8(%rbp)
    2c1f:	7f 25                	jg     2c46 <safe_lshift_func_uint8_t_u_s+0x41>
    2c21:	0f b6 55 fc          	movzbl -0x4(%rbp),%edx
    2c25:	8b 45 f8             	mov    -0x8(%rbp),%eax
    2c28:	be ff 00 00 00       	mov    $0xff,%esi
    2c2d:	89 c1                	mov    %eax,%ecx
    2c2f:	d3 fe                	sar    %cl,%esi
    2c31:	89 f0                	mov    %esi,%eax
    2c33:	39 c2                	cmp    %eax,%edx
    2c35:	7f 0f                	jg     2c46 <safe_lshift_func_uint8_t_u_s+0x41>
    2c37:	0f b6 55 fc          	movzbl -0x4(%rbp),%edx
    2c3b:	8b 45 f8             	mov    -0x8(%rbp),%eax
    2c3e:	89 c1                	mov    %eax,%ecx
    2c40:	d3 e2                	shl    %cl,%edx
    2c42:	89 d0                	mov    %edx,%eax
    2c44:	eb 04                	jmp    2c4a <safe_lshift_func_uint8_t_u_s+0x45>
    2c46:	0f b6 45 fc          	movzbl -0x4(%rbp),%eax
    2c4a:	5d                   	pop    %rbp
    2c4b:	c3                   	retq   

0000000000002c4c <safe_lshift_func_uint8_t_u_u>:
    2c4c:	f3 0f 1e fa          	endbr64 
    2c50:	55                   	push   %rbp
    2c51:	48 89 e5             	mov    %rsp,%rbp
    2c54:	89 f8                	mov    %edi,%eax
    2c56:	89 75 f8             	mov    %esi,-0x8(%rbp)
    2c59:	88 45 fc             	mov    %al,-0x4(%rbp)
    2c5c:	83 7d f8 1f          	cmpl   $0x1f,-0x8(%rbp)
    2c60:	77 25                	ja     2c87 <safe_lshift_func_uint8_t_u_u+0x3b>
    2c62:	0f b6 55 fc          	movzbl -0x4(%rbp),%edx
    2c66:	8b 45 f8             	mov    -0x8(%rbp),%eax
    2c69:	be ff 00 00 00       	mov    $0xff,%esi
    2c6e:	89 c1                	mov    %eax,%ecx
    2c70:	d3 fe                	sar    %cl,%esi
    2c72:	89 f0                	mov    %esi,%eax
    2c74:	39 c2                	cmp    %eax,%edx
    2c76:	7f 0f                	jg     2c87 <safe_lshift_func_uint8_t_u_u+0x3b>
    2c78:	0f b6 55 fc          	movzbl -0x4(%rbp),%edx
    2c7c:	8b 45 f8             	mov    -0x8(%rbp),%eax
    2c7f:	89 c1                	mov    %eax,%ecx
    2c81:	d3 e2                	shl    %cl,%edx
    2c83:	89 d0                	mov    %edx,%eax
    2c85:	eb 04                	jmp    2c8b <safe_lshift_func_uint8_t_u_u+0x3f>
    2c87:	0f b6 45 fc          	movzbl -0x4(%rbp),%eax
    2c8b:	5d                   	pop    %rbp
    2c8c:	c3                   	retq   

0000000000002c8d <safe_rshift_func_uint8_t_u_s>:
    2c8d:	f3 0f 1e fa          	endbr64 
    2c91:	55                   	push   %rbp
    2c92:	48 89 e5             	mov    %rsp,%rbp
    2c95:	89 f8                	mov    %edi,%eax
    2c97:	89 75 f8             	mov    %esi,-0x8(%rbp)
    2c9a:	88 45 fc             	mov    %al,-0x4(%rbp)
    2c9d:	83 7d f8 00          	cmpl   $0x0,-0x8(%rbp)
    2ca1:	78 15                	js     2cb8 <safe_rshift_func_uint8_t_u_s+0x2b>
    2ca3:	83 7d f8 1f          	cmpl   $0x1f,-0x8(%rbp)
    2ca7:	7f 0f                	jg     2cb8 <safe_rshift_func_uint8_t_u_s+0x2b>
    2ca9:	0f b6 55 fc          	movzbl -0x4(%rbp),%edx
    2cad:	8b 45 f8             	mov    -0x8(%rbp),%eax
    2cb0:	89 c1                	mov    %eax,%ecx
    2cb2:	d3 fa                	sar    %cl,%edx
    2cb4:	89 d0                	mov    %edx,%eax
    2cb6:	eb 04                	jmp    2cbc <safe_rshift_func_uint8_t_u_s+0x2f>
    2cb8:	0f b6 45 fc          	movzbl -0x4(%rbp),%eax
    2cbc:	5d                   	pop    %rbp
    2cbd:	c3                   	retq   

0000000000002cbe <safe_rshift_func_uint8_t_u_u>:
    2cbe:	f3 0f 1e fa          	endbr64 
    2cc2:	55                   	push   %rbp
    2cc3:	48 89 e5             	mov    %rsp,%rbp
    2cc6:	89 f8                	mov    %edi,%eax
    2cc8:	89 75 f8             	mov    %esi,-0x8(%rbp)
    2ccb:	88 45 fc             	mov    %al,-0x4(%rbp)
    2cce:	83 7d f8 1f          	cmpl   $0x1f,-0x8(%rbp)
    2cd2:	77 0f                	ja     2ce3 <safe_rshift_func_uint8_t_u_u+0x25>
    2cd4:	0f b6 55 fc          	movzbl -0x4(%rbp),%edx
    2cd8:	8b 45 f8             	mov    -0x8(%rbp),%eax
    2cdb:	89 c1                	mov    %eax,%ecx
    2cdd:	d3 fa                	sar    %cl,%edx
    2cdf:	89 d0                	mov    %edx,%eax
    2ce1:	eb 04                	jmp    2ce7 <safe_rshift_func_uint8_t_u_u+0x29>
    2ce3:	0f b6 45 fc          	movzbl -0x4(%rbp),%eax
    2ce7:	5d                   	pop    %rbp
    2ce8:	c3                   	retq   

0000000000002ce9 <safe_unary_minus_func_uint16_t_u>:
    2ce9:	f3 0f 1e fa          	endbr64 
    2ced:	55                   	push   %rbp
    2cee:	48 89 e5             	mov    %rsp,%rbp
    2cf1:	89 f8                	mov    %edi,%eax
    2cf3:	66 89 45 fc          	mov    %ax,-0x4(%rbp)
    2cf7:	0f b7 45 fc          	movzwl -0x4(%rbp),%eax
    2cfb:	f7 d8                	neg    %eax
    2cfd:	5d                   	pop    %rbp
    2cfe:	c3                   	retq   

0000000000002cff <safe_add_func_uint16_t_u_u>:
    2cff:	f3 0f 1e fa          	endbr64 
    2d03:	55                   	push   %rbp
    2d04:	48 89 e5             	mov    %rsp,%rbp
    2d07:	89 fa                	mov    %edi,%edx
    2d09:	89 f0                	mov    %esi,%eax
    2d0b:	66 89 55 fc          	mov    %dx,-0x4(%rbp)
    2d0f:	66 89 45 f8          	mov    %ax,-0x8(%rbp)
    2d13:	0f b7 55 fc          	movzwl -0x4(%rbp),%edx
    2d17:	0f b7 45 f8          	movzwl -0x8(%rbp),%eax
    2d1b:	01 d0                	add    %edx,%eax
    2d1d:	5d                   	pop    %rbp
    2d1e:	c3                   	retq   

0000000000002d1f <safe_sub_func_uint16_t_u_u>:
    2d1f:	f3 0f 1e fa          	endbr64 
    2d23:	55                   	push   %rbp
    2d24:	48 89 e5             	mov    %rsp,%rbp
    2d27:	89 fa                	mov    %edi,%edx
    2d29:	89 f0                	mov    %esi,%eax
    2d2b:	66 89 55 fc          	mov    %dx,-0x4(%rbp)
    2d2f:	66 89 45 f8          	mov    %ax,-0x8(%rbp)
    2d33:	0f b7 45 fc          	movzwl -0x4(%rbp),%eax
    2d37:	66 2b 45 f8          	sub    -0x8(%rbp),%ax
    2d3b:	5d                   	pop    %rbp
    2d3c:	c3                   	retq   

0000000000002d3d <safe_mul_func_uint16_t_u_u>:
    2d3d:	f3 0f 1e fa          	endbr64 
    2d41:	55                   	push   %rbp
    2d42:	48 89 e5             	mov    %rsp,%rbp
    2d45:	89 fa                	mov    %edi,%edx
    2d47:	89 f0                	mov    %esi,%eax
    2d49:	66 89 55 fc          	mov    %dx,-0x4(%rbp)
    2d4d:	66 89 45 f8          	mov    %ax,-0x8(%rbp)
    2d51:	0f b7 45 fc          	movzwl -0x4(%rbp),%eax
    2d55:	66 0f af 45 f8       	imul   -0x8(%rbp),%ax
    2d5a:	5d                   	pop    %rbp
    2d5b:	c3                   	retq   

0000000000002d5c <safe_mod_func_uint16_t_u_u>:
    2d5c:	f3 0f 1e fa          	endbr64 
    2d60:	55                   	push   %rbp
    2d61:	48 89 e5             	mov    %rsp,%rbp
    2d64:	89 fa                	mov    %edi,%edx
    2d66:	89 f0                	mov    %esi,%eax
    2d68:	66 89 55 fc          	mov    %dx,-0x4(%rbp)
    2d6c:	66 89 45 f8          	mov    %ax,-0x8(%rbp)
    2d70:	66 83 7d f8 00       	cmpw   $0x0,-0x8(%rbp)
    2d75:	74 11                	je     2d88 <safe_mod_func_uint16_t_u_u+0x2c>
    2d77:	0f b7 45 fc          	movzwl -0x4(%rbp),%eax
    2d7b:	ba 00 00 00 00       	mov    $0x0,%edx
    2d80:	66 f7 75 f8          	divw   -0x8(%rbp)
    2d84:	89 d0                	mov    %edx,%eax
    2d86:	eb 04                	jmp    2d8c <safe_mod_func_uint16_t_u_u+0x30>
    2d88:	0f b7 45 fc          	movzwl -0x4(%rbp),%eax
    2d8c:	5d                   	pop    %rbp
    2d8d:	c3                   	retq   

0000000000002d8e <safe_div_func_uint16_t_u_u>:
    2d8e:	f3 0f 1e fa          	endbr64 
    2d92:	55                   	push   %rbp
    2d93:	48 89 e5             	mov    %rsp,%rbp
    2d96:	89 fa                	mov    %edi,%edx
    2d98:	89 f0                	mov    %esi,%eax
    2d9a:	66 89 55 fc          	mov    %dx,-0x4(%rbp)
    2d9e:	66 89 45 f8          	mov    %ax,-0x8(%rbp)
    2da2:	66 83 7d f8 00       	cmpw   $0x0,-0x8(%rbp)
    2da7:	74 0f                	je     2db8 <safe_div_func_uint16_t_u_u+0x2a>
    2da9:	0f b7 45 fc          	movzwl -0x4(%rbp),%eax
    2dad:	ba 00 00 00 00       	mov    $0x0,%edx
    2db2:	66 f7 75 f8          	divw   -0x8(%rbp)
    2db6:	eb 04                	jmp    2dbc <safe_div_func_uint16_t_u_u+0x2e>
    2db8:	0f b7 45 fc          	movzwl -0x4(%rbp),%eax
    2dbc:	5d                   	pop    %rbp
    2dbd:	c3                   	retq   

0000000000002dbe <safe_lshift_func_uint16_t_u_s>:
    2dbe:	f3 0f 1e fa          	endbr64 
    2dc2:	55                   	push   %rbp
    2dc3:	48 89 e5             	mov    %rsp,%rbp
    2dc6:	89 f8                	mov    %edi,%eax
    2dc8:	89 75 f8             	mov    %esi,-0x8(%rbp)
    2dcb:	66 89 45 fc          	mov    %ax,-0x4(%rbp)
    2dcf:	83 7d f8 00          	cmpl   $0x0,-0x8(%rbp)
    2dd3:	78 2b                	js     2e00 <safe_lshift_func_uint16_t_u_s+0x42>
    2dd5:	83 7d f8 1f          	cmpl   $0x1f,-0x8(%rbp)
    2dd9:	7f 25                	jg     2e00 <safe_lshift_func_uint16_t_u_s+0x42>
    2ddb:	0f b7 55 fc          	movzwl -0x4(%rbp),%edx
    2ddf:	8b 45 f8             	mov    -0x8(%rbp),%eax
    2de2:	be ff ff 00 00       	mov    $0xffff,%esi
    2de7:	89 c1                	mov    %eax,%ecx
    2de9:	d3 fe                	sar    %cl,%esi
    2deb:	89 f0                	mov    %esi,%eax
    2ded:	39 c2                	cmp    %eax,%edx
    2def:	7f 0f                	jg     2e00 <safe_lshift_func_uint16_t_u_s+0x42>
    2df1:	0f b7 55 fc          	movzwl -0x4(%rbp),%edx
    2df5:	8b 45 f8             	mov    -0x8(%rbp),%eax
    2df8:	89 c1                	mov    %eax,%ecx
    2dfa:	d3 e2                	shl    %cl,%edx
    2dfc:	89 d0                	mov    %edx,%eax
    2dfe:	eb 04                	jmp    2e04 <safe_lshift_func_uint16_t_u_s+0x46>
    2e00:	0f b7 45 fc          	movzwl -0x4(%rbp),%eax
    2e04:	5d                   	pop    %rbp
    2e05:	c3                   	retq   

0000000000002e06 <safe_lshift_func_uint16_t_u_u>:
    2e06:	f3 0f 1e fa          	endbr64 
    2e0a:	55                   	push   %rbp
    2e0b:	48 89 e5             	mov    %rsp,%rbp
    2e0e:	89 f8                	mov    %edi,%eax
    2e10:	89 75 f8             	mov    %esi,-0x8(%rbp)
    2e13:	66 89 45 fc          	mov    %ax,-0x4(%rbp)
    2e17:	83 7d f8 1f          	cmpl   $0x1f,-0x8(%rbp)
    2e1b:	77 25                	ja     2e42 <safe_lshift_func_uint16_t_u_u+0x3c>
    2e1d:	0f b7 55 fc          	movzwl -0x4(%rbp),%edx
    2e21:	8b 45 f8             	mov    -0x8(%rbp),%eax
    2e24:	be ff ff 00 00       	mov    $0xffff,%esi
    2e29:	89 c1                	mov    %eax,%ecx
    2e2b:	d3 fe                	sar    %cl,%esi
    2e2d:	89 f0                	mov    %esi,%eax
    2e2f:	39 c2                	cmp    %eax,%edx
    2e31:	7f 0f                	jg     2e42 <safe_lshift_func_uint16_t_u_u+0x3c>
    2e33:	0f b7 55 fc          	movzwl -0x4(%rbp),%edx
    2e37:	8b 45 f8             	mov    -0x8(%rbp),%eax
    2e3a:	89 c1                	mov    %eax,%ecx
    2e3c:	d3 e2                	shl    %cl,%edx
    2e3e:	89 d0                	mov    %edx,%eax
    2e40:	eb 04                	jmp    2e46 <safe_lshift_func_uint16_t_u_u+0x40>
    2e42:	0f b7 45 fc          	movzwl -0x4(%rbp),%eax
    2e46:	5d                   	pop    %rbp
    2e47:	c3                   	retq   

0000000000002e48 <safe_rshift_func_uint16_t_u_s>:
    2e48:	f3 0f 1e fa          	endbr64 
    2e4c:	55                   	push   %rbp
    2e4d:	48 89 e5             	mov    %rsp,%rbp
    2e50:	89 f8                	mov    %edi,%eax
    2e52:	89 75 f8             	mov    %esi,-0x8(%rbp)
    2e55:	66 89 45 fc          	mov    %ax,-0x4(%rbp)
    2e59:	83 7d f8 00          	cmpl   $0x0,-0x8(%rbp)
    2e5d:	78 15                	js     2e74 <safe_rshift_func_uint16_t_u_s+0x2c>
    2e5f:	83 7d f8 1f          	cmpl   $0x1f,-0x8(%rbp)
    2e63:	7f 0f                	jg     2e74 <safe_rshift_func_uint16_t_u_s+0x2c>
    2e65:	0f b7 55 fc          	movzwl -0x4(%rbp),%edx
    2e69:	8b 45 f8             	mov    -0x8(%rbp),%eax
    2e6c:	89 c1                	mov    %eax,%ecx
    2e6e:	d3 fa                	sar    %cl,%edx
    2e70:	89 d0                	mov    %edx,%eax
    2e72:	eb 04                	jmp    2e78 <safe_rshift_func_uint16_t_u_s+0x30>
    2e74:	0f b7 45 fc          	movzwl -0x4(%rbp),%eax
    2e78:	5d                   	pop    %rbp
    2e79:	c3                   	retq   

0000000000002e7a <safe_rshift_func_uint16_t_u_u>:
    2e7a:	f3 0f 1e fa          	endbr64 
    2e7e:	55                   	push   %rbp
    2e7f:	48 89 e5             	mov    %rsp,%rbp
    2e82:	89 f8                	mov    %edi,%eax
    2e84:	89 75 f8             	mov    %esi,-0x8(%rbp)
    2e87:	66 89 45 fc          	mov    %ax,-0x4(%rbp)
    2e8b:	83 7d f8 1f          	cmpl   $0x1f,-0x8(%rbp)
    2e8f:	77 0f                	ja     2ea0 <safe_rshift_func_uint16_t_u_u+0x26>
    2e91:	0f b7 55 fc          	movzwl -0x4(%rbp),%edx
    2e95:	8b 45 f8             	mov    -0x8(%rbp),%eax
    2e98:	89 c1                	mov    %eax,%ecx
    2e9a:	d3 fa                	sar    %cl,%edx
    2e9c:	89 d0                	mov    %edx,%eax
    2e9e:	eb 04                	jmp    2ea4 <safe_rshift_func_uint16_t_u_u+0x2a>
    2ea0:	0f b7 45 fc          	movzwl -0x4(%rbp),%eax
    2ea4:	5d                   	pop    %rbp
    2ea5:	c3                   	retq   

0000000000002ea6 <safe_unary_minus_func_uint32_t_u>:
    2ea6:	f3 0f 1e fa          	endbr64 
    2eaa:	55                   	push   %rbp
    2eab:	48 89 e5             	mov    %rsp,%rbp
    2eae:	89 7d fc             	mov    %edi,-0x4(%rbp)
    2eb1:	8b 45 fc             	mov    -0x4(%rbp),%eax
    2eb4:	f7 d8                	neg    %eax
    2eb6:	5d                   	pop    %rbp
    2eb7:	c3                   	retq   

0000000000002eb8 <safe_add_func_uint32_t_u_u>:
    2eb8:	f3 0f 1e fa          	endbr64 
    2ebc:	55                   	push   %rbp
    2ebd:	48 89 e5             	mov    %rsp,%rbp
    2ec0:	89 7d fc             	mov    %edi,-0x4(%rbp)
    2ec3:	89 75 f8             	mov    %esi,-0x8(%rbp)
    2ec6:	8b 55 fc             	mov    -0x4(%rbp),%edx
    2ec9:	8b 45 f8             	mov    -0x8(%rbp),%eax
    2ecc:	01 d0                	add    %edx,%eax
    2ece:	5d                   	pop    %rbp
    2ecf:	c3                   	retq   

0000000000002ed0 <safe_sub_func_uint32_t_u_u>:
    2ed0:	f3 0f 1e fa          	endbr64 
    2ed4:	55                   	push   %rbp
    2ed5:	48 89 e5             	mov    %rsp,%rbp
    2ed8:	89 7d fc             	mov    %edi,-0x4(%rbp)
    2edb:	89 75 f8             	mov    %esi,-0x8(%rbp)
    2ede:	8b 45 fc             	mov    -0x4(%rbp),%eax
    2ee1:	2b 45 f8             	sub    -0x8(%rbp),%eax
    2ee4:	5d                   	pop    %rbp
    2ee5:	c3                   	retq   

0000000000002ee6 <safe_mul_func_uint32_t_u_u>:
    2ee6:	f3 0f 1e fa          	endbr64 
    2eea:	55                   	push   %rbp
    2eeb:	48 89 e5             	mov    %rsp,%rbp
    2eee:	89 7d fc             	mov    %edi,-0x4(%rbp)
    2ef1:	89 75 f8             	mov    %esi,-0x8(%rbp)
    2ef4:	8b 45 fc             	mov    -0x4(%rbp),%eax
    2ef7:	0f af 45 f8          	imul   -0x8(%rbp),%eax
    2efb:	5d                   	pop    %rbp
    2efc:	c3                   	retq   

0000000000002efd <safe_mod_func_uint32_t_u_u>:
    2efd:	f3 0f 1e fa          	endbr64 
    2f01:	55                   	push   %rbp
    2f02:	48 89 e5             	mov    %rsp,%rbp
    2f05:	89 7d fc             	mov    %edi,-0x4(%rbp)
    2f08:	89 75 f8             	mov    %esi,-0x8(%rbp)
    2f0b:	83 7d f8 00          	cmpl   $0x0,-0x8(%rbp)
    2f0f:	74 0f                	je     2f20 <safe_mod_func_uint32_t_u_u+0x23>
    2f11:	8b 45 fc             	mov    -0x4(%rbp),%eax
    2f14:	ba 00 00 00 00       	mov    $0x0,%edx
    2f19:	f7 75 f8             	divl   -0x8(%rbp)
    2f1c:	89 d0                	mov    %edx,%eax
    2f1e:	eb 03                	jmp    2f23 <safe_mod_func_uint32_t_u_u+0x26>
    2f20:	8b 45 fc             	mov    -0x4(%rbp),%eax
    2f23:	5d                   	pop    %rbp
    2f24:	c3                   	retq   

0000000000002f25 <safe_div_func_uint32_t_u_u>:
    2f25:	f3 0f 1e fa          	endbr64 
    2f29:	55                   	push   %rbp
    2f2a:	48 89 e5             	mov    %rsp,%rbp
    2f2d:	89 7d fc             	mov    %edi,-0x4(%rbp)
    2f30:	89 75 f8             	mov    %esi,-0x8(%rbp)
    2f33:	83 7d f8 00          	cmpl   $0x0,-0x8(%rbp)
    2f37:	74 0d                	je     2f46 <safe_div_func_uint32_t_u_u+0x21>
    2f39:	8b 45 fc             	mov    -0x4(%rbp),%eax
    2f3c:	ba 00 00 00 00       	mov    $0x0,%edx
    2f41:	f7 75 f8             	divl   -0x8(%rbp)
    2f44:	eb 03                	jmp    2f49 <safe_div_func_uint32_t_u_u+0x24>
    2f46:	8b 45 fc             	mov    -0x4(%rbp),%eax
    2f49:	5d                   	pop    %rbp
    2f4a:	c3                   	retq   

0000000000002f4b <safe_lshift_func_uint32_t_u_s>:
    2f4b:	f3 0f 1e fa          	endbr64 
    2f4f:	55                   	push   %rbp
    2f50:	48 89 e5             	mov    %rsp,%rbp
    2f53:	89 7d fc             	mov    %edi,-0x4(%rbp)
    2f56:	89 75 f8             	mov    %esi,-0x8(%rbp)
    2f59:	83 7d f8 00          	cmpl   $0x0,-0x8(%rbp)
    2f5d:	78 27                	js     2f86 <safe_lshift_func_uint32_t_u_s+0x3b>
    2f5f:	83 7d f8 1f          	cmpl   $0x1f,-0x8(%rbp)
    2f63:	7f 21                	jg     2f86 <safe_lshift_func_uint32_t_u_s+0x3b>
    2f65:	8b 45 f8             	mov    -0x8(%rbp),%eax
    2f68:	ba ff ff ff ff       	mov    $0xffffffff,%edx
    2f6d:	89 c1                	mov    %eax,%ecx
    2f6f:	d3 ea                	shr    %cl,%edx
    2f71:	89 d0                	mov    %edx,%eax
    2f73:	39 45 fc             	cmp    %eax,-0x4(%rbp)
    2f76:	77 0e                	ja     2f86 <safe_lshift_func_uint32_t_u_s+0x3b>
    2f78:	8b 45 f8             	mov    -0x8(%rbp),%eax
    2f7b:	8b 55 fc             	mov    -0x4(%rbp),%edx
    2f7e:	89 c1                	mov    %eax,%ecx
    2f80:	d3 e2                	shl    %cl,%edx
    2f82:	89 d0                	mov    %edx,%eax
    2f84:	eb 03                	jmp    2f89 <safe_lshift_func_uint32_t_u_s+0x3e>
    2f86:	8b 45 fc             	mov    -0x4(%rbp),%eax
    2f89:	5d                   	pop    %rbp
    2f8a:	c3                   	retq   

0000000000002f8b <safe_lshift_func_uint32_t_u_u>:
    2f8b:	f3 0f 1e fa          	endbr64 
    2f8f:	55                   	push   %rbp
    2f90:	48 89 e5             	mov    %rsp,%rbp
    2f93:	89 7d fc             	mov    %edi,-0x4(%rbp)
    2f96:	89 75 f8             	mov    %esi,-0x8(%rbp)
    2f99:	83 7d f8 1f          	cmpl   $0x1f,-0x8(%rbp)
    2f9d:	77 21                	ja     2fc0 <safe_lshift_func_uint32_t_u_u+0x35>
    2f9f:	8b 45 f8             	mov    -0x8(%rbp),%eax
    2fa2:	ba ff ff ff ff       	mov    $0xffffffff,%edx
    2fa7:	89 c1                	mov    %eax,%ecx
    2fa9:	d3 ea                	shr    %cl,%edx
    2fab:	89 d0                	mov    %edx,%eax
    2fad:	39 45 fc             	cmp    %eax,-0x4(%rbp)
    2fb0:	77 0e                	ja     2fc0 <safe_lshift_func_uint32_t_u_u+0x35>
    2fb2:	8b 45 f8             	mov    -0x8(%rbp),%eax
    2fb5:	8b 55 fc             	mov    -0x4(%rbp),%edx
    2fb8:	89 c1                	mov    %eax,%ecx
    2fba:	d3 e2                	shl    %cl,%edx
    2fbc:	89 d0                	mov    %edx,%eax
    2fbe:	eb 03                	jmp    2fc3 <safe_lshift_func_uint32_t_u_u+0x38>
    2fc0:	8b 45 fc             	mov    -0x4(%rbp),%eax
    2fc3:	5d                   	pop    %rbp
    2fc4:	c3                   	retq   

0000000000002fc5 <safe_rshift_func_uint32_t_u_s>:
    2fc5:	f3 0f 1e fa          	endbr64 
    2fc9:	55                   	push   %rbp
    2fca:	48 89 e5             	mov    %rsp,%rbp
    2fcd:	89 7d fc             	mov    %edi,-0x4(%rbp)
    2fd0:	89 75 f8             	mov    %esi,-0x8(%rbp)
    2fd3:	83 7d f8 00          	cmpl   $0x0,-0x8(%rbp)
    2fd7:	78 14                	js     2fed <safe_rshift_func_uint32_t_u_s+0x28>
    2fd9:	83 7d f8 1f          	cmpl   $0x1f,-0x8(%rbp)
    2fdd:	7f 0e                	jg     2fed <safe_rshift_func_uint32_t_u_s+0x28>
    2fdf:	8b 45 f8             	mov    -0x8(%rbp),%eax
    2fe2:	8b 55 fc             	mov    -0x4(%rbp),%edx
    2fe5:	89 c1                	mov    %eax,%ecx
    2fe7:	d3 ea                	shr    %cl,%edx
    2fe9:	89 d0                	mov    %edx,%eax
    2feb:	eb 03                	jmp    2ff0 <safe_rshift_func_uint32_t_u_s+0x2b>
    2fed:	8b 45 fc             	mov    -0x4(%rbp),%eax
    2ff0:	5d                   	pop    %rbp
    2ff1:	c3                   	retq   

0000000000002ff2 <safe_rshift_func_uint32_t_u_u>:
    2ff2:	f3 0f 1e fa          	endbr64 
    2ff6:	55                   	push   %rbp
    2ff7:	48 89 e5             	mov    %rsp,%rbp
    2ffa:	89 7d fc             	mov    %edi,-0x4(%rbp)
    2ffd:	89 75 f8             	mov    %esi,-0x8(%rbp)
    3000:	83 7d f8 1f          	cmpl   $0x1f,-0x8(%rbp)
    3004:	77 0e                	ja     3014 <safe_rshift_func_uint32_t_u_u+0x22>
    3006:	8b 45 f8             	mov    -0x8(%rbp),%eax
    3009:	8b 55 fc             	mov    -0x4(%rbp),%edx
    300c:	89 c1                	mov    %eax,%ecx
    300e:	d3 ea                	shr    %cl,%edx
    3010:	89 d0                	mov    %edx,%eax
    3012:	eb 03                	jmp    3017 <safe_rshift_func_uint32_t_u_u+0x25>
    3014:	8b 45 fc             	mov    -0x4(%rbp),%eax
    3017:	5d                   	pop    %rbp
    3018:	c3                   	retq   

0000000000003019 <safe_unary_minus_func_uint64_t_u>:
    3019:	f3 0f 1e fa          	endbr64 
    301d:	55                   	push   %rbp
    301e:	48 89 e5             	mov    %rsp,%rbp
    3021:	48 89 7d f8          	mov    %rdi,-0x8(%rbp)
    3025:	48 8b 45 f8          	mov    -0x8(%rbp),%rax
    3029:	48 f7 d8             	neg    %rax
    302c:	5d                   	pop    %rbp
    302d:	c3                   	retq   

000000000000302e <safe_add_func_uint64_t_u_u>:
    302e:	f3 0f 1e fa          	endbr64 
    3032:	55                   	push   %rbp
    3033:	48 89 e5             	mov    %rsp,%rbp
    3036:	48 89 7d f8          	mov    %rdi,-0x8(%rbp)
    303a:	48 89 75 f0          	mov    %rsi,-0x10(%rbp)
    303e:	48 8b 55 f8          	mov    -0x8(%rbp),%rdx
    3042:	48 8b 45 f0          	mov    -0x10(%rbp),%rax
    3046:	48 01 d0             	add    %rdx,%rax
    3049:	5d                   	pop    %rbp
    304a:	c3                   	retq   

000000000000304b <safe_sub_func_uint64_t_u_u>:
    304b:	f3 0f 1e fa          	endbr64 
    304f:	55                   	push   %rbp
    3050:	48 89 e5             	mov    %rsp,%rbp
    3053:	48 89 7d f8          	mov    %rdi,-0x8(%rbp)
    3057:	48 89 75 f0          	mov    %rsi,-0x10(%rbp)
    305b:	48 8b 45 f8          	mov    -0x8(%rbp),%rax
    305f:	48 2b 45 f0          	sub    -0x10(%rbp),%rax
    3063:	5d                   	pop    %rbp
    3064:	c3                   	retq   

0000000000003065 <safe_mul_func_uint64_t_u_u>:
    3065:	f3 0f 1e fa          	endbr64 
    3069:	55                   	push   %rbp
    306a:	48 89 e5             	mov    %rsp,%rbp
    306d:	48 89 7d f8          	mov    %rdi,-0x8(%rbp)
    3071:	48 89 75 f0          	mov    %rsi,-0x10(%rbp)
    3075:	48 8b 45 f8          	mov    -0x8(%rbp),%rax
    3079:	48 0f af 45 f0       	imul   -0x10(%rbp),%rax
    307e:	5d                   	pop    %rbp
    307f:	c3                   	retq   

0000000000003080 <safe_mod_func_uint64_t_u_u>:
    3080:	f3 0f 1e fa          	endbr64 
    3084:	55                   	push   %rbp
    3085:	48 89 e5             	mov    %rsp,%rbp
    3088:	48 89 7d f8          	mov    %rdi,-0x8(%rbp)
    308c:	48 89 75 f0          	mov    %rsi,-0x10(%rbp)
    3090:	48 83 7d f0 00       	cmpq   $0x0,-0x10(%rbp)
    3095:	74 12                	je     30a9 <safe_mod_func_uint64_t_u_u+0x29>
    3097:	48 8b 45 f8          	mov    -0x8(%rbp),%rax
    309b:	ba 00 00 00 00       	mov    $0x0,%edx
    30a0:	48 f7 75 f0          	divq   -0x10(%rbp)
    30a4:	48 89 d0             	mov    %rdx,%rax
    30a7:	eb 04                	jmp    30ad <safe_mod_func_uint64_t_u_u+0x2d>
    30a9:	48 8b 45 f8          	mov    -0x8(%rbp),%rax
    30ad:	5d                   	pop    %rbp
    30ae:	c3                   	retq   

00000000000030af <safe_div_func_uint64_t_u_u>:
    30af:	f3 0f 1e fa          	endbr64 
    30b3:	55                   	push   %rbp
    30b4:	48 89 e5             	mov    %rsp,%rbp
    30b7:	48 89 7d f8          	mov    %rdi,-0x8(%rbp)
    30bb:	48 89 75 f0          	mov    %rsi,-0x10(%rbp)
    30bf:	48 83 7d f0 00       	cmpq   $0x0,-0x10(%rbp)
    30c4:	74 0f                	je     30d5 <safe_div_func_uint64_t_u_u+0x26>
    30c6:	48 8b 45 f8          	mov    -0x8(%rbp),%rax
    30ca:	ba 00 00 00 00       	mov    $0x0,%edx
    30cf:	48 f7 75 f0          	divq   -0x10(%rbp)
    30d3:	eb 04                	jmp    30d9 <safe_div_func_uint64_t_u_u+0x2a>
    30d5:	48 8b 45 f8          	mov    -0x8(%rbp),%rax
    30d9:	5d                   	pop    %rbp
    30da:	c3                   	retq   

00000000000030db <safe_lshift_func_uint64_t_u_s>:
    30db:	f3 0f 1e fa          	endbr64 
    30df:	55                   	push   %rbp
    30e0:	48 89 e5             	mov    %rsp,%rbp
    30e3:	48 89 7d f8          	mov    %rdi,-0x8(%rbp)
    30e7:	89 75 f4             	mov    %esi,-0xc(%rbp)
    30ea:	83 7d f4 00          	cmpl   $0x0,-0xc(%rbp)
    30ee:	78 2f                	js     311f <safe_lshift_func_uint64_t_u_s+0x44>
    30f0:	83 7d f4 1f          	cmpl   $0x1f,-0xc(%rbp)
    30f4:	7f 29                	jg     311f <safe_lshift_func_uint64_t_u_s+0x44>
    30f6:	8b 45 f4             	mov    -0xc(%rbp),%eax
    30f9:	48 c7 c2 ff ff ff ff 	mov    $0xffffffffffffffff,%rdx
    3100:	89 c1                	mov    %eax,%ecx
    3102:	48 d3 ea             	shr    %cl,%rdx
    3105:	48 89 d0             	mov    %rdx,%rax
    3108:	48 39 45 f8          	cmp    %rax,-0x8(%rbp)
    310c:	77 11                	ja     311f <safe_lshift_func_uint64_t_u_s+0x44>
    310e:	8b 45 f4             	mov    -0xc(%rbp),%eax
    3111:	48 8b 55 f8          	mov    -0x8(%rbp),%rdx
    3115:	89 c1                	mov    %eax,%ecx
    3117:	48 d3 e2             	shl    %cl,%rdx
    311a:	48 89 d0             	mov    %rdx,%rax
    311d:	eb 04                	jmp    3123 <safe_lshift_func_uint64_t_u_s+0x48>
    311f:	48 8b 45 f8          	mov    -0x8(%rbp),%rax
    3123:	5d                   	pop    %rbp
    3124:	c3                   	retq   

0000000000003125 <safe_lshift_func_uint64_t_u_u>:
    3125:	f3 0f 1e fa          	endbr64 
    3129:	55                   	push   %rbp
    312a:	48 89 e5             	mov    %rsp,%rbp
    312d:	48 89 7d f8          	mov    %rdi,-0x8(%rbp)
    3131:	89 75 f4             	mov    %esi,-0xc(%rbp)
    3134:	83 7d f4 1f          	cmpl   $0x1f,-0xc(%rbp)
    3138:	77 29                	ja     3163 <safe_lshift_func_uint64_t_u_u+0x3e>
    313a:	8b 45 f4             	mov    -0xc(%rbp),%eax
    313d:	48 c7 c2 ff ff ff ff 	mov    $0xffffffffffffffff,%rdx
    3144:	89 c1                	mov    %eax,%ecx
    3146:	48 d3 ea             	shr    %cl,%rdx
    3149:	48 89 d0             	mov    %rdx,%rax
    314c:	48 39 45 f8          	cmp    %rax,-0x8(%rbp)
    3150:	77 11                	ja     3163 <safe_lshift_func_uint64_t_u_u+0x3e>
    3152:	8b 45 f4             	mov    -0xc(%rbp),%eax
    3155:	48 8b 55 f8          	mov    -0x8(%rbp),%rdx
    3159:	89 c1                	mov    %eax,%ecx
    315b:	48 d3 e2             	shl    %cl,%rdx
    315e:	48 89 d0             	mov    %rdx,%rax
    3161:	eb 04                	jmp    3167 <safe_lshift_func_uint64_t_u_u+0x42>
    3163:	48 8b 45 f8          	mov    -0x8(%rbp),%rax
    3167:	5d                   	pop    %rbp
    3168:	c3                   	retq   

0000000000003169 <safe_rshift_func_uint64_t_u_s>:
    3169:	f3 0f 1e fa          	endbr64 
    316d:	55                   	push   %rbp
    316e:	48 89 e5             	mov    %rsp,%rbp
    3171:	48 89 7d f8          	mov    %rdi,-0x8(%rbp)
    3175:	89 75 f4             	mov    %esi,-0xc(%rbp)
    3178:	83 7d f4 00          	cmpl   $0x0,-0xc(%rbp)
    317c:	78 17                	js     3195 <safe_rshift_func_uint64_t_u_s+0x2c>
    317e:	83 7d f4 1f          	cmpl   $0x1f,-0xc(%rbp)
    3182:	7f 11                	jg     3195 <safe_rshift_func_uint64_t_u_s+0x2c>
    3184:	8b 45 f4             	mov    -0xc(%rbp),%eax
    3187:	48 8b 55 f8          	mov    -0x8(%rbp),%rdx
    318b:	89 c1                	mov    %eax,%ecx
    318d:	48 d3 ea             	shr    %cl,%rdx
    3190:	48 89 d0             	mov    %rdx,%rax
    3193:	eb 04                	jmp    3199 <safe_rshift_func_uint64_t_u_s+0x30>
    3195:	48 8b 45 f8          	mov    -0x8(%rbp),%rax
    3199:	5d                   	pop    %rbp
    319a:	c3                   	retq   

000000000000319b <safe_rshift_func_uint64_t_u_u>:
    319b:	f3 0f 1e fa          	endbr64 
    319f:	55                   	push   %rbp
    31a0:	48 89 e5             	mov    %rsp,%rbp
    31a3:	48 89 7d f8          	mov    %rdi,-0x8(%rbp)
    31a7:	89 75 f4             	mov    %esi,-0xc(%rbp)
    31aa:	83 7d f4 1f          	cmpl   $0x1f,-0xc(%rbp)
    31ae:	77 11                	ja     31c1 <safe_rshift_func_uint64_t_u_u+0x26>
    31b0:	8b 45 f4             	mov    -0xc(%rbp),%eax
    31b3:	48 8b 55 f8          	mov    -0x8(%rbp),%rdx
    31b7:	89 c1                	mov    %eax,%ecx
    31b9:	48 d3 ea             	shr    %cl,%rdx
    31bc:	48 89 d0             	mov    %rdx,%rax
    31bf:	eb 04                	jmp    31c5 <safe_rshift_func_uint64_t_u_u+0x2a>
    31c1:	48 8b 45 f8          	mov    -0x8(%rbp),%rax
    31c5:	5d                   	pop    %rbp
    31c6:	c3                   	retq   

00000000000031c7 <safe_add_func_float_f_f>:
    31c7:	f3 0f 1e fa          	endbr64 
    31cb:	55                   	push   %rbp
    31cc:	48 89 e5             	mov    %rsp,%rbp
    31cf:	f3 0f 11 45 fc       	movss  %xmm0,-0x4(%rbp)
    31d4:	f3 0f 11 4d f8       	movss  %xmm1,-0x8(%rbp)
    31d9:	f3 0f 10 4d fc       	movss  -0x4(%rbp),%xmm1
    31de:	f3 0f 10 05 9e 16 01 	movss  0x1169e(%rip),%xmm0        # 14884 <l_1191.4549+0x14>
    31e5:	00 
    31e6:	f3 0f 59 c8          	mulss  %xmm0,%xmm1
    31ea:	f3 0f 10 55 f8       	movss  -0x8(%rbp),%xmm2
    31ef:	f3 0f 10 05 8d 16 01 	movss  0x1168d(%rip),%xmm0        # 14884 <l_1191.4549+0x14>
    31f6:	00 
    31f7:	f3 0f 59 c2          	mulss  %xmm2,%xmm0
    31fb:	f3 0f 58 c1          	addss  %xmm1,%xmm0
    31ff:	f3 0f 10 0d 89 16 01 	movss  0x11689(%rip),%xmm1        # 14890 <l_1191.4549+0x20>
    3206:	00 
    3207:	0f 54 c1             	andps  %xmm1,%xmm0
    320a:	0f 2f 05 8f 16 01 00 	comiss 0x1168f(%rip),%xmm0        # 148a0 <l_1191.4549+0x30>
    3211:	76 07                	jbe    321a <safe_add_func_float_f_f+0x53>
    3213:	f3 0f 10 45 fc       	movss  -0x4(%rbp),%xmm0
    3218:	eb 0a                	jmp    3224 <safe_add_func_float_f_f+0x5d>
    321a:	f3 0f 10 45 fc       	movss  -0x4(%rbp),%xmm0
    321f:	f3 0f 58 45 f8       	addss  -0x8(%rbp),%xmm0
    3224:	5d                   	pop    %rbp
    3225:	c3                   	retq   

0000000000003226 <safe_sub_func_float_f_f>:
    3226:	f3 0f 1e fa          	endbr64 
    322a:	55                   	push   %rbp
    322b:	48 89 e5             	mov    %rsp,%rbp
    322e:	f3 0f 11 45 fc       	movss  %xmm0,-0x4(%rbp)
    3233:	f3 0f 11 4d f8       	movss  %xmm1,-0x8(%rbp)
    3238:	f3 0f 10 4d fc       	movss  -0x4(%rbp),%xmm1
    323d:	f3 0f 10 05 3f 16 01 	movss  0x1163f(%rip),%xmm0        # 14884 <l_1191.4549+0x14>
    3244:	00 
    3245:	f3 0f 59 c1          	mulss  %xmm1,%xmm0
    3249:	f3 0f 10 55 f8       	movss  -0x8(%rbp),%xmm2
    324e:	f3 0f 10 0d 2e 16 01 	movss  0x1162e(%rip),%xmm1        # 14884 <l_1191.4549+0x14>
    3255:	00 
    3256:	f3 0f 59 ca          	mulss  %xmm2,%xmm1
    325a:	f3 0f 5c c1          	subss  %xmm1,%xmm0
    325e:	f3 0f 10 0d 2a 16 01 	movss  0x1162a(%rip),%xmm1        # 14890 <l_1191.4549+0x20>
    3265:	00 
    3266:	0f 54 c1             	andps  %xmm1,%xmm0
    3269:	0f 2f 05 30 16 01 00 	comiss 0x11630(%rip),%xmm0        # 148a0 <l_1191.4549+0x30>
    3270:	76 07                	jbe    3279 <safe_sub_func_float_f_f+0x53>
    3272:	f3 0f 10 45 fc       	movss  -0x4(%rbp),%xmm0
    3277:	eb 0a                	jmp    3283 <safe_sub_func_float_f_f+0x5d>
    3279:	f3 0f 10 45 fc       	movss  -0x4(%rbp),%xmm0
    327e:	f3 0f 5c 45 f8       	subss  -0x8(%rbp),%xmm0
    3283:	5d                   	pop    %rbp
    3284:	c3                   	retq   

0000000000003285 <safe_mul_func_float_f_f>:
    3285:	f3 0f 1e fa          	endbr64 
    3289:	55                   	push   %rbp
    328a:	48 89 e5             	mov    %rsp,%rbp
    328d:	f3 0f 11 45 fc       	movss  %xmm0,-0x4(%rbp)
    3292:	f3 0f 11 4d f8       	movss  %xmm1,-0x8(%rbp)
    3297:	f3 0f 10 4d fc       	movss  -0x4(%rbp),%xmm1
    329c:	f3 0f 10 05 00 16 01 	movss  0x11600(%rip),%xmm0        # 148a4 <l_1191.4549+0x34>
    32a3:	00 
    32a4:	f3 0f 59 c8          	mulss  %xmm0,%xmm1
    32a8:	f3 0f 10 55 f8       	movss  -0x8(%rbp),%xmm2
    32ad:	f3 0f 10 05 f3 15 01 	movss  0x115f3(%rip),%xmm0        # 148a8 <l_1191.4549+0x38>
    32b4:	00 
    32b5:	f3 0f 59 c2          	mulss  %xmm2,%xmm0
    32b9:	f3 0f 59 c1          	mulss  %xmm1,%xmm0
    32bd:	f3 0f 10 0d cb 15 01 	movss  0x115cb(%rip),%xmm1        # 14890 <l_1191.4549+0x20>
    32c4:	00 
    32c5:	0f 54 c1             	andps  %xmm1,%xmm0
    32c8:	0f 2f 05 dd 15 01 00 	comiss 0x115dd(%rip),%xmm0        # 148ac <l_1191.4549+0x3c>
    32cf:	76 07                	jbe    32d8 <safe_mul_func_float_f_f+0x53>
    32d1:	f3 0f 10 45 fc       	movss  -0x4(%rbp),%xmm0
    32d6:	eb 0a                	jmp    32e2 <safe_mul_func_float_f_f+0x5d>
    32d8:	f3 0f 10 45 fc       	movss  -0x4(%rbp),%xmm0
    32dd:	f3 0f 59 45 f8       	mulss  -0x8(%rbp),%xmm0
    32e2:	5d                   	pop    %rbp
    32e3:	c3                   	retq   

00000000000032e4 <safe_div_func_float_f_f>:
    32e4:	f3 0f 1e fa          	endbr64 
    32e8:	55                   	push   %rbp
    32e9:	48 89 e5             	mov    %rsp,%rbp
    32ec:	f3 0f 11 45 fc       	movss  %xmm0,-0x4(%rbp)
    32f1:	f3 0f 11 4d f8       	movss  %xmm1,-0x8(%rbp)
    32f6:	f3 0f 10 45 f8       	movss  -0x8(%rbp),%xmm0
    32fb:	f3 0f 10 0d 8d 15 01 	movss  0x1158d(%rip),%xmm1        # 14890 <l_1191.4549+0x20>
    3302:	00 
    3303:	0f 54 c8             	andps  %xmm0,%xmm1
    3306:	f3 0f 10 05 a2 15 01 	movss  0x115a2(%rip),%xmm0        # 148b0 <l_1191.4549+0x40>
    330d:	00 
    330e:	0f 2f c1             	comiss %xmm1,%xmm0
    3311:	0f 97 c0             	seta   %al
    3314:	83 f0 01             	xor    $0x1,%eax
    3317:	84 c0                	test   %al,%al
    3319:	75 56                	jne    3371 <safe_div_func_float_f_f+0x8d>
    331b:	66 0f ef c0          	pxor   %xmm0,%xmm0
    331f:	0f 2e 45 f8          	ucomiss -0x8(%rbp),%xmm0
    3323:	7a 0a                	jp     332f <safe_div_func_float_f_f+0x4b>
    3325:	66 0f ef c0          	pxor   %xmm0,%xmm0
    3329:	0f 2e 45 f8          	ucomiss -0x8(%rbp),%xmm0
    332d:	74 4e                	je     337d <safe_div_func_float_f_f+0x99>
    332f:	f3 0f 10 4d fc       	movss  -0x4(%rbp),%xmm1
    3334:	f3 0f 10 05 78 15 01 	movss  0x11578(%rip),%xmm0        # 148b4 <l_1191.4549+0x44>
    333b:	00 
    333c:	f3 0f 59 c1          	mulss  %xmm1,%xmm0
    3340:	f3 0f 10 55 f8       	movss  -0x8(%rbp),%xmm2
    3345:	f3 0f 10 0d 6b 15 01 	movss  0x1156b(%rip),%xmm1        # 148b8 <l_1191.4549+0x48>
    334c:	00 
    334d:	f3 0f 59 ca          	mulss  %xmm2,%xmm1
    3351:	f3 0f 5e c1          	divss  %xmm1,%xmm0
    3355:	f3 0f 10 0d 33 15 01 	movss  0x11533(%rip),%xmm1        # 14890 <l_1191.4549+0x20>
    335c:	00 
    335d:	0f 54 c1             	andps  %xmm1,%xmm0
    3360:	0f 2f 05 55 15 01 00 	comiss 0x11555(%rip),%xmm0        # 148bc <l_1191.4549+0x4c>
    3367:	0f 97 c0             	seta   %al
    336a:	83 f0 01             	xor    $0x1,%eax
    336d:	84 c0                	test   %al,%al
    336f:	74 0c                	je     337d <safe_div_func_float_f_f+0x99>
    3371:	f3 0f 10 45 fc       	movss  -0x4(%rbp),%xmm0
    3376:	f3 0f 5e 45 f8       	divss  -0x8(%rbp),%xmm0
    337b:	eb 05                	jmp    3382 <safe_div_func_float_f_f+0x9e>
    337d:	f3 0f 10 45 fc       	movss  -0x4(%rbp),%xmm0
    3382:	5d                   	pop    %rbp
    3383:	c3                   	retq   

0000000000003384 <safe_add_func_double_f_f>:
    3384:	f3 0f 1e fa          	endbr64 
    3388:	55                   	push   %rbp
    3389:	48 89 e5             	mov    %rsp,%rbp
    338c:	f2 0f 11 45 f8       	movsd  %xmm0,-0x8(%rbp)
    3391:	f2 0f 11 4d f0       	movsd  %xmm1,-0x10(%rbp)
    3396:	f2 0f 10 4d f8       	movsd  -0x8(%rbp),%xmm1
    339b:	f2 0f 10 05 1d 15 01 	movsd  0x1151d(%rip),%xmm0        # 148c0 <l_1191.4549+0x50>
    33a2:	00 
    33a3:	f2 0f 59 c8          	mulsd  %xmm0,%xmm1
    33a7:	f2 0f 10 55 f0       	movsd  -0x10(%rbp),%xmm2
    33ac:	f2 0f 10 05 0c 15 01 	movsd  0x1150c(%rip),%xmm0        # 148c0 <l_1191.4549+0x50>
    33b3:	00 
    33b4:	f2 0f 59 c2          	mulsd  %xmm2,%xmm0
    33b8:	f2 0f 58 c1          	addsd  %xmm1,%xmm0
    33bc:	f3 0f 7e 0d 0c 15 01 	movq   0x1150c(%rip),%xmm1        # 148d0 <l_1191.4549+0x60>
    33c3:	00 
    33c4:	66 0f 54 c1          	andpd  %xmm1,%xmm0
    33c8:	66 0f 2f 05 10 15 01 	comisd 0x11510(%rip),%xmm0        # 148e0 <l_1191.4549+0x70>
    33cf:	00 
    33d0:	76 07                	jbe    33d9 <safe_add_func_double_f_f+0x55>
    33d2:	f2 0f 10 45 f8       	movsd  -0x8(%rbp),%xmm0
    33d7:	eb 0a                	jmp    33e3 <safe_add_func_double_f_f+0x5f>
    33d9:	f2 0f 10 45 f8       	movsd  -0x8(%rbp),%xmm0
    33de:	f2 0f 58 45 f0       	addsd  -0x10(%rbp),%xmm0
    33e3:	5d                   	pop    %rbp
    33e4:	c3                   	retq   

00000000000033e5 <safe_sub_func_double_f_f>:
    33e5:	f3 0f 1e fa          	endbr64 
    33e9:	55                   	push   %rbp
    33ea:	48 89 e5             	mov    %rsp,%rbp
    33ed:	f2 0f 11 45 f8       	movsd  %xmm0,-0x8(%rbp)
    33f2:	f2 0f 11 4d f0       	movsd  %xmm1,-0x10(%rbp)
    33f7:	f2 0f 10 4d f8       	movsd  -0x8(%rbp),%xmm1
    33fc:	f2 0f 10 05 bc 14 01 	movsd  0x114bc(%rip),%xmm0        # 148c0 <l_1191.4549+0x50>
    3403:	00 
    3404:	f2 0f 59 c1          	mulsd  %xmm1,%xmm0
    3408:	f2 0f 10 55 f0       	movsd  -0x10(%rbp),%xmm2
    340d:	f2 0f 10 0d ab 14 01 	movsd  0x114ab(%rip),%xmm1        # 148c0 <l_1191.4549+0x50>
    3414:	00 
    3415:	f2 0f 59 ca          	mulsd  %xmm2,%xmm1
    3419:	f2 0f 5c c1          	subsd  %xmm1,%xmm0
    341d:	f3 0f 7e 0d ab 14 01 	movq   0x114ab(%rip),%xmm1        # 148d0 <l_1191.4549+0x60>
    3424:	00 
    3425:	66 0f 54 c1          	andpd  %xmm1,%xmm0
    3429:	66 0f 2f 05 af 14 01 	comisd 0x114af(%rip),%xmm0        # 148e0 <l_1191.4549+0x70>
    3430:	00 
    3431:	76 07                	jbe    343a <safe_sub_func_double_f_f+0x55>
    3433:	f2 0f 10 45 f8       	movsd  -0x8(%rbp),%xmm0
    3438:	eb 0a                	jmp    3444 <safe_sub_func_double_f_f+0x5f>
    343a:	f2 0f 10 45 f8       	movsd  -0x8(%rbp),%xmm0
    343f:	f2 0f 5c 45 f0       	subsd  -0x10(%rbp),%xmm0
    3444:	5d                   	pop    %rbp
    3445:	c3                   	retq   

0000000000003446 <safe_mul_func_double_f_f>:
    3446:	f3 0f 1e fa          	endbr64 
    344a:	55                   	push   %rbp
    344b:	48 89 e5             	mov    %rsp,%rbp
    344e:	f2 0f 11 45 f8       	movsd  %xmm0,-0x8(%rbp)
    3453:	f2 0f 11 4d f0       	movsd  %xmm1,-0x10(%rbp)
    3458:	f2 0f 10 4d f8       	movsd  -0x8(%rbp),%xmm1
    345d:	f2 0f 10 05 83 14 01 	movsd  0x11483(%rip),%xmm0        # 148e8 <l_1191.4549+0x78>
    3464:	00 
    3465:	f2 0f 59 c8          	mulsd  %xmm0,%xmm1
    3469:	f2 0f 10 55 f0       	movsd  -0x10(%rbp),%xmm2
    346e:	f2 0f 10 05 7a 14 01 	movsd  0x1147a(%rip),%xmm0        # 148f0 <l_1191.4549+0x80>
    3475:	00 
    3476:	f2 0f 59 c2          	mulsd  %xmm2,%xmm0
    347a:	f2 0f 59 c1          	mulsd  %xmm1,%xmm0
    347e:	f3 0f 7e 0d 4a 14 01 	movq   0x1144a(%rip),%xmm1        # 148d0 <l_1191.4549+0x60>
    3485:	00 
    3486:	66 0f 54 c1          	andpd  %xmm1,%xmm0
    348a:	66 0f 2f 05 66 14 01 	comisd 0x11466(%rip),%xmm0        # 148f8 <l_1191.4549+0x88>
    3491:	00 
    3492:	76 07                	jbe    349b <safe_mul_func_double_f_f+0x55>
    3494:	f2 0f 10 45 f8       	movsd  -0x8(%rbp),%xmm0
    3499:	eb 0a                	jmp    34a5 <safe_mul_func_double_f_f+0x5f>
    349b:	f2 0f 10 45 f8       	movsd  -0x8(%rbp),%xmm0
    34a0:	f2 0f 59 45 f0       	mulsd  -0x10(%rbp),%xmm0
    34a5:	5d                   	pop    %rbp
    34a6:	c3                   	retq   

00000000000034a7 <safe_div_func_double_f_f>:
    34a7:	f3 0f 1e fa          	endbr64 
    34ab:	55                   	push   %rbp
    34ac:	48 89 e5             	mov    %rsp,%rbp
    34af:	f2 0f 11 45 f8       	movsd  %xmm0,-0x8(%rbp)
    34b4:	f2 0f 11 4d f0       	movsd  %xmm1,-0x10(%rbp)
    34b9:	f2 0f 10 45 f0       	movsd  -0x10(%rbp),%xmm0
    34be:	f3 0f 7e 0d 0a 14 01 	movq   0x1140a(%rip),%xmm1        # 148d0 <l_1191.4549+0x60>
    34c5:	00 
    34c6:	66 0f 54 c8          	andpd  %xmm0,%xmm1
    34ca:	f2 0f 10 05 2e 14 01 	movsd  0x1142e(%rip),%xmm0        # 14900 <l_1191.4549+0x90>
    34d1:	00 
    34d2:	66 0f 2f c1          	comisd %xmm1,%xmm0
    34d6:	0f 97 c0             	seta   %al
    34d9:	83 f0 01             	xor    $0x1,%eax
    34dc:	84 c0                	test   %al,%al
    34de:	75 5a                	jne    353a <safe_div_func_double_f_f+0x93>
    34e0:	66 0f ef c0          	pxor   %xmm0,%xmm0
    34e4:	66 0f 2e 45 f0       	ucomisd -0x10(%rbp),%xmm0
    34e9:	7a 0b                	jp     34f6 <safe_div_func_double_f_f+0x4f>
    34eb:	66 0f ef c0          	pxor   %xmm0,%xmm0
    34ef:	66 0f 2e 45 f0       	ucomisd -0x10(%rbp),%xmm0
    34f4:	74 50                	je     3546 <safe_div_func_double_f_f+0x9f>
    34f6:	f2 0f 10 4d f8       	movsd  -0x8(%rbp),%xmm1
    34fb:	f2 0f 10 05 05 14 01 	movsd  0x11405(%rip),%xmm0        # 14908 <l_1191.4549+0x98>
    3502:	00 
    3503:	f2 0f 59 c1          	mulsd  %xmm1,%xmm0
    3507:	f2 0f 10 55 f0       	movsd  -0x10(%rbp),%xmm2
    350c:	f2 0f 10 0d fc 13 01 	movsd  0x113fc(%rip),%xmm1        # 14910 <l_1191.4549+0xa0>
    3513:	00 
    3514:	f2 0f 59 ca          	mulsd  %xmm2,%xmm1
    3518:	f2 0f 5e c1          	divsd  %xmm1,%xmm0
    351c:	f3 0f 7e 0d ac 13 01 	movq   0x113ac(%rip),%xmm1        # 148d0 <l_1191.4549+0x60>
    3523:	00 
    3524:	66 0f 54 c1          	andpd  %xmm1,%xmm0
    3528:	66 0f 2f 05 e8 13 01 	comisd 0x113e8(%rip),%xmm0        # 14918 <l_1191.4549+0xa8>
    352f:	00 
    3530:	0f 97 c0             	seta   %al
    3533:	83 f0 01             	xor    $0x1,%eax
    3536:	84 c0                	test   %al,%al
    3538:	74 0c                	je     3546 <safe_div_func_double_f_f+0x9f>
    353a:	f2 0f 10 45 f8       	movsd  -0x8(%rbp),%xmm0
    353f:	f2 0f 5e 45 f0       	divsd  -0x10(%rbp),%xmm0
    3544:	eb 05                	jmp    354b <safe_div_func_double_f_f+0xa4>
    3546:	f2 0f 10 45 f8       	movsd  -0x8(%rbp),%xmm0
    354b:	5d                   	pop    %rbp
    354c:	c3                   	retq   

000000000000354d <safe_convert_func_float_to_int32_t>:
    354d:	f3 0f 1e fa          	endbr64 
    3551:	55                   	push   %rbp
    3552:	48 89 e5             	mov    %rsp,%rbp
    3555:	f3 0f 11 45 fc       	movss  %xmm0,-0x4(%rbp)
    355a:	f3 0f 10 05 be 13 01 	movss  0x113be(%rip),%xmm0        # 14920 <l_1191.4549+0xb0>
    3561:	00 
    3562:	0f 2f 45 fc          	comiss -0x4(%rbp),%xmm0
    3566:	0f 93 c0             	setae  %al
    3569:	83 f0 01             	xor    $0x1,%eax
    356c:	84 c0                	test   %al,%al
    356e:	74 21                	je     3591 <safe_convert_func_float_to_int32_t+0x44>
    3570:	f3 0f 10 45 fc       	movss  -0x4(%rbp),%xmm0
    3575:	0f 2f 05 a8 13 01 00 	comiss 0x113a8(%rip),%xmm0        # 14924 <l_1191.4549+0xb4>
    357c:	0f 93 c0             	setae  %al
    357f:	83 f0 01             	xor    $0x1,%eax
    3582:	84 c0                	test   %al,%al
    3584:	74 0b                	je     3591 <safe_convert_func_float_to_int32_t+0x44>
    3586:	f3 0f 10 45 fc       	movss  -0x4(%rbp),%xmm0
    358b:	f3 0f 2c c0          	cvttss2si %xmm0,%eax
    358f:	eb 05                	jmp    3596 <safe_convert_func_float_to_int32_t+0x49>
    3591:	b8 ff ff ff 7f       	mov    $0x7fffffff,%eax
    3596:	5d                   	pop    %rbp
    3597:	c3                   	retq   

0000000000003598 <crc32_gentab>:
    3598:	f3 0f 1e fa          	endbr64 
    359c:	55                   	push   %rbp
    359d:	48 89 e5             	mov    %rsp,%rbp
    35a0:	c7 45 fc 20 83 b8 ed 	movl   $0xedb88320,-0x4(%rbp)
    35a7:	c7 45 f4 00 00 00 00 	movl   $0x0,-0xc(%rbp)
    35ae:	eb 51                	jmp    3601 <crc32_gentab+0x69>
    35b0:	8b 45 f4             	mov    -0xc(%rbp),%eax
    35b3:	89 45 f0             	mov    %eax,-0x10(%rbp)
    35b6:	c7 45 f8 08 00 00 00 	movl   $0x8,-0x8(%rbp)
    35bd:	eb 1e                	jmp    35dd <crc32_gentab+0x45>
    35bf:	8b 45 f0             	mov    -0x10(%rbp),%eax
    35c2:	83 e0 01             	and    $0x1,%eax
    35c5:	85 c0                	test   %eax,%eax
    35c7:	74 0d                	je     35d6 <crc32_gentab+0x3e>
    35c9:	8b 45 f0             	mov    -0x10(%rbp),%eax
    35cc:	d1 e8                	shr    %eax
    35ce:	33 45 fc             	xor    -0x4(%rbp),%eax
    35d1:	89 45 f0             	mov    %eax,-0x10(%rbp)
    35d4:	eb 03                	jmp    35d9 <crc32_gentab+0x41>
    35d6:	d1 6d f0             	shrl   -0x10(%rbp)
    35d9:	83 6d f8 01          	subl   $0x1,-0x8(%rbp)
    35dd:	83 7d f8 00          	cmpl   $0x0,-0x8(%rbp)
    35e1:	7f dc                	jg     35bf <crc32_gentab+0x27>
    35e3:	8b 45 f4             	mov    -0xc(%rbp),%eax
    35e6:	48 98                	cltq   
    35e8:	48 8d 0c 85 00 00 00 	lea    0x0(,%rax,4),%rcx
    35ef:	00 
    35f0:	48 8d 15 09 49 01 00 	lea    0x14909(%rip),%rdx        # 17f00 <crc32_tab>
    35f7:	8b 45 f0             	mov    -0x10(%rbp),%eax
    35fa:	89 04 11             	mov    %eax,(%rcx,%rdx,1)
    35fd:	83 45 f4 01          	addl   $0x1,-0xc(%rbp)
    3601:	81 7d f4 ff 00 00 00 	cmpl   $0xff,-0xc(%rbp)
    3608:	7e a6                	jle    35b0 <crc32_gentab+0x18>
    360a:	90                   	nop
    360b:	90                   	nop
    360c:	5d                   	pop    %rbp
    360d:	c3                   	retq   

000000000000360e <crc32_byte>:
    360e:	f3 0f 1e fa          	endbr64 
    3612:	55                   	push   %rbp
    3613:	48 89 e5             	mov    %rsp,%rbp
    3616:	89 f8                	mov    %edi,%eax
    3618:	88 45 fc             	mov    %al,-0x4(%rbp)
    361b:	8b 05 ff 39 01 00    	mov    0x139ff(%rip),%eax        # 17020 <crc32_context>
    3621:	c1 e8 08             	shr    $0x8,%eax
    3624:	89 c1                	mov    %eax,%ecx
    3626:	0f b6 55 fc          	movzbl -0x4(%rbp),%edx
    362a:	8b 05 f0 39 01 00    	mov    0x139f0(%rip),%eax        # 17020 <crc32_context>
    3630:	31 d0                	xor    %edx,%eax
    3632:	0f b6 c0             	movzbl %al,%eax
    3635:	89 c0                	mov    %eax,%eax
    3637:	48 8d 14 85 00 00 00 	lea    0x0(,%rax,4),%rdx
    363e:	00 
    363f:	48 8d 05 ba 48 01 00 	lea    0x148ba(%rip),%rax        # 17f00 <crc32_tab>
    3646:	8b 04 02             	mov    (%rdx,%rax,1),%eax
    3649:	31 c8                	xor    %ecx,%eax
    364b:	89 05 cf 39 01 00    	mov    %eax,0x139cf(%rip)        # 17020 <crc32_context>
    3651:	90                   	nop
    3652:	5d                   	pop    %rbp
    3653:	c3                   	retq   

0000000000003654 <crc32_8bytes>:
    3654:	f3 0f 1e fa          	endbr64 
    3658:	55                   	push   %rbp
    3659:	48 89 e5             	mov    %rsp,%rbp
    365c:	48 83 ec 08          	sub    $0x8,%rsp
    3660:	48 89 7d f8          	mov    %rdi,-0x8(%rbp)
    3664:	48 8b 45 f8          	mov    -0x8(%rbp),%rax
    3668:	0f b6 c0             	movzbl %al,%eax
    366b:	89 c7                	mov    %eax,%edi
    366d:	e8 9c ff ff ff       	callq  360e <crc32_byte>
    3672:	48 8b 45 f8          	mov    -0x8(%rbp),%rax
    3676:	48 c1 e8 08          	shr    $0x8,%rax
    367a:	0f b6 c0             	movzbl %al,%eax
    367d:	89 c7                	mov    %eax,%edi
    367f:	e8 8a ff ff ff       	callq  360e <crc32_byte>
    3684:	48 8b 45 f8          	mov    -0x8(%rbp),%rax
    3688:	48 c1 e8 10          	shr    $0x10,%rax
    368c:	0f b6 c0             	movzbl %al,%eax
    368f:	89 c7                	mov    %eax,%edi
    3691:	e8 78 ff ff ff       	callq  360e <crc32_byte>
    3696:	48 8b 45 f8          	mov    -0x8(%rbp),%rax
    369a:	48 c1 e8 18          	shr    $0x18,%rax
    369e:	0f b6 c0             	movzbl %al,%eax
    36a1:	89 c7                	mov    %eax,%edi
    36a3:	e8 66 ff ff ff       	callq  360e <crc32_byte>
    36a8:	48 8b 45 f8          	mov    -0x8(%rbp),%rax
    36ac:	48 c1 e8 20          	shr    $0x20,%rax
    36b0:	0f b6 c0             	movzbl %al,%eax
    36b3:	89 c7                	mov    %eax,%edi
    36b5:	e8 54 ff ff ff       	callq  360e <crc32_byte>
    36ba:	48 8b 45 f8          	mov    -0x8(%rbp),%rax
    36be:	48 c1 e8 28          	shr    $0x28,%rax
    36c2:	0f b6 c0             	movzbl %al,%eax
    36c5:	89 c7                	mov    %eax,%edi
    36c7:	e8 42 ff ff ff       	callq  360e <crc32_byte>
    36cc:	48 8b 45 f8          	mov    -0x8(%rbp),%rax
    36d0:	48 c1 e8 30          	shr    $0x30,%rax
    36d4:	0f b6 c0             	movzbl %al,%eax
    36d7:	89 c7                	mov    %eax,%edi
    36d9:	e8 30 ff ff ff       	callq  360e <crc32_byte>
    36de:	48 8b 45 f8          	mov    -0x8(%rbp),%rax
    36e2:	48 c1 e8 38          	shr    $0x38,%rax
    36e6:	0f b6 c0             	movzbl %al,%eax
    36e9:	89 c7                	mov    %eax,%edi
    36eb:	e8 1e ff ff ff       	callq  360e <crc32_byte>
    36f0:	90                   	nop
    36f1:	c9                   	leaveq 
    36f2:	c3                   	retq   

00000000000036f3 <transparent_crc>:
    36f3:	f3 0f 1e fa          	endbr64 
    36f7:	55                   	push   %rbp
    36f8:	48 89 e5             	mov    %rsp,%rbp
    36fb:	48 83 ec 20          	sub    $0x20,%rsp
    36ff:	48 89 7d f8          	mov    %rdi,-0x8(%rbp)
    3703:	48 89 75 f0          	mov    %rsi,-0x10(%rbp)
    3707:	89 55 ec             	mov    %edx,-0x14(%rbp)
    370a:	48 8b 45 f8          	mov    -0x8(%rbp),%rax
    370e:	48 89 c7             	mov    %rax,%rdi
    3711:	e8 3e ff ff ff       	callq  3654 <crc32_8bytes>
    3716:	83 7d ec 00          	cmpl   $0x0,-0x14(%rbp)
    371a:	74 22                	je     373e <transparent_crc+0x4b>
    371c:	8b 05 fe 38 01 00    	mov    0x138fe(%rip),%eax        # 17020 <crc32_context>
    3722:	f7 d0                	not    %eax
    3724:	89 c2                	mov    %eax,%edx
    3726:	48 8b 45 f0          	mov    -0x10(%rbp),%rax
    372a:	48 89 c6             	mov    %rax,%rsi
    372d:	48 8d 3d fc f8 00 00 	lea    0xf8fc(%rip),%rdi        # 13030 <_IO_stdin_used+0x30>
    3734:	b8 00 00 00 00       	mov    $0x0,%eax
    3739:	e8 42 e9 ff ff       	callq  2080 <printf@plt>
    373e:	90                   	nop
    373f:	c9                   	leaveq 
    3740:	c3                   	retq   

0000000000003741 <transparent_crc_bytes>:
    3741:	f3 0f 1e fa          	endbr64 
    3745:	55                   	push   %rbp
    3746:	48 89 e5             	mov    %rsp,%rbp
    3749:	48 83 ec 30          	sub    $0x30,%rsp
    374d:	48 89 7d e8          	mov    %rdi,-0x18(%rbp)
    3751:	89 75 e4             	mov    %esi,-0x1c(%rbp)
    3754:	48 89 55 d8          	mov    %rdx,-0x28(%rbp)
    3758:	89 4d e0             	mov    %ecx,-0x20(%rbp)
    375b:	c7 45 fc 00 00 00 00 	movl   $0x0,-0x4(%rbp)
    3762:	eb 1e                	jmp    3782 <transparent_crc_bytes+0x41>
    3764:	8b 45 fc             	mov    -0x4(%rbp),%eax
    3767:	48 63 d0             	movslq %eax,%rdx
    376a:	48 8b 45 e8          	mov    -0x18(%rbp),%rax
    376e:	48 01 d0             	add    %rdx,%rax
    3771:	0f b6 00             	movzbl (%rax),%eax
    3774:	0f b6 c0             	movzbl %al,%eax
    3777:	89 c7                	mov    %eax,%edi
    3779:	e8 90 fe ff ff       	callq  360e <crc32_byte>
    377e:	83 45 fc 01          	addl   $0x1,-0x4(%rbp)
    3782:	8b 45 fc             	mov    -0x4(%rbp),%eax
    3785:	3b 45 e4             	cmp    -0x1c(%rbp),%eax
    3788:	7c da                	jl     3764 <transparent_crc_bytes+0x23>
    378a:	83 7d e0 00          	cmpl   $0x0,-0x20(%rbp)
    378e:	74 22                	je     37b2 <transparent_crc_bytes+0x71>
    3790:	8b 05 8a 38 01 00    	mov    0x1388a(%rip),%eax        # 17020 <crc32_context>
    3796:	f7 d0                	not    %eax
    3798:	89 c2                	mov    %eax,%edx
    379a:	48 8b 45 d8          	mov    -0x28(%rbp),%rax
    379e:	48 89 c6             	mov    %rax,%rsi
    37a1:	48 8d 3d 88 f8 00 00 	lea    0xf888(%rip),%rdi        # 13030 <_IO_stdin_used+0x30>
    37a8:	b8 00 00 00 00       	mov    $0x0,%eax
    37ad:	e8 ce e8 ff ff       	callq  2080 <printf@plt>
    37b2:	90                   	nop
    37b3:	c9                   	leaveq 
    37b4:	c3                   	retq   

00000000000037b5 <func_1>:
    37b5:	f3 0f 1e fa          	endbr64 
    37b9:	55                   	push   %rbp
    37ba:	48 89 e5             	mov    %rsp,%rbp
    37bd:	41 57                	push   %r15
    37bf:	41 56                	push   %r14
    37c1:	41 55                	push   %r13
    37c3:	41 54                	push   %r12
    37c5:	53                   	push   %rbx
    37c6:	48 81 ec 00 10 00 00 	sub    $0x1000,%rsp
    37cd:	48 83 0c 24 00       	orq    $0x0,(%rsp)
    37d2:	48 81 ec 98 01 00 00 	sub    $0x198,%rsp
    37d9:	64 48 8b 04 25 28 00 	mov    %fs:0x28,%rax
    37e0:	00 00 
    37e2:	48 89 45 c8          	mov    %rax,-0x38(%rbp)
    37e6:	31 c0                	xor    %eax,%eax
    37e8:	c6 85 8b ee ff ff 06 	movb   $0x6,-0x1175(%rbp)
    37ef:	48 c7 85 30 f0 ff ff 	movq   $0x0,-0xfd0(%rbp)
    37f6:	00 00 00 00 
    37fa:	48 8d 85 30 f0 ff ff 	lea    -0xfd0(%rbp),%rax
    3801:	48 89 85 b0 f0 ff ff 	mov    %rax,-0xf50(%rbp)
    3808:	48 c7 85 b8 f0 ff ff 	movq   $0x0,-0xf48(%rbp)
    380f:	00 00 00 00 
    3813:	48 8d 05 ae 38 01 00 	lea    0x138ae(%rip),%rax        # 170c8 <g_307>
    381a:	48 89 85 c0 f0 ff ff 	mov    %rax,-0xf40(%rbp)
    3821:	48 8d 05 97 39 01 00 	lea    0x13997(%rip),%rax        # 171bf <g_536+0x3f>
    3828:	48 89 85 38 f0 ff ff 	mov    %rax,-0xfc8(%rbp)
    382f:	48 8d 05 f4 3a 01 00 	lea    0x13af4(%rip),%rax        # 1732a <g_969>
    3836:	48 89 85 40 f0 ff ff 	mov    %rax,-0xfc0(%rbp)
    383d:	48 8d 05 07 3b 01 00 	lea    0x13b07(%rip),%rax        # 1734b <g_982+0xb>
    3844:	48 89 85 c8 f0 ff ff 	mov    %rax,-0xf38(%rbp)
    384b:	48 8d 05 e6 37 01 00 	lea    0x137e6(%rip),%rax        # 17038 <g_99>
    3852:	48 89 85 48 f0 ff ff 	mov    %rax,-0xfb8(%rbp)
    3859:	48 8d 05 28 3a 01 00 	lea    0x13a28(%rip),%rax        # 17288 <g_572>
    3860:	48 89 85 d0 f0 ff ff 	mov    %rax,-0xf30(%rbp)
    3867:	c7 85 54 ef ff ff 9a 	movl   $0xfee3239a,-0x10ac(%rbp)
    386e:	23 e3 fe 
    3871:	48 8d 05 28 4b 01 00 	lea    0x14b28(%rip),%rax        # 183a0 <g_576>
    3878:	48 89 85 50 f0 ff ff 	mov    %rax,-0xfb0(%rbp)
    387f:	c7 85 a8 ee ff ff 2c 	movl   $0x907ef42c,-0x1158(%rbp)
    3886:	f4 7e 90 
    3889:	c7 85 ac ee ff ff 02 	movl   $0x2,-0x1154(%rbp)
    3890:	00 00 00 
    3893:	c7 85 58 ef ff ff fe 	movl   $0xfffffffe,-0x10a8(%rbp)
    389a:	ff ff ff 
    389d:	c7 85 b0 ee ff ff 8e 	movl   $0xf828808e,-0x1150(%rbp)
    38a4:	80 28 f8 
    38a7:	c7 85 b4 ee ff ff fa 	movl   $0xfffffffa,-0x114c(%rbp)
    38ae:	ff ff ff 
    38b1:	48 b8 90 95 b2 b2 30 	movabs $0x5d0eda30b2b29590,%rax
    38b8:	da 0e 5d 
    38bb:	48 89 85 58 f0 ff ff 	mov    %rax,-0xfa8(%rbp)
    38c2:	48 8d 05 07 42 01 00 	lea    0x14207(%rip),%rax        # 17ad0 <g_190>
    38c9:	48 89 85 60 f0 ff ff 	mov    %rax,-0xfa0(%rbp)
    38d0:	48 8d 05 11 44 01 00 	lea    0x14411(%rip),%rax        # 17ce8 <g_1103>
    38d7:	48 89 85 e0 f4 ff ff 	mov    %rax,-0xb20(%rbp)
    38de:	48 8d 05 03 44 01 00 	lea    0x14403(%rip),%rax        # 17ce8 <g_1103>
    38e5:	48 89 85 e8 f4 ff ff 	mov    %rax,-0xb18(%rbp)
    38ec:	48 8d 05 f5 43 01 00 	lea    0x143f5(%rip),%rax        # 17ce8 <g_1103>
    38f3:	48 89 85 f0 f4 ff ff 	mov    %rax,-0xb10(%rbp)
    38fa:	48 8d 05 e7 43 01 00 	lea    0x143e7(%rip),%rax        # 17ce8 <g_1103>
    3901:	48 89 85 f8 f4 ff ff 	mov    %rax,-0xb08(%rbp)
    3908:	48 8d 05 d9 43 01 00 	lea    0x143d9(%rip),%rax        # 17ce8 <g_1103>
    390f:	48 89 85 00 f5 ff ff 	mov    %rax,-0xb00(%rbp)
    3916:	48 8d 05 cb 43 01 00 	lea    0x143cb(%rip),%rax        # 17ce8 <g_1103>
    391d:	48 89 85 08 f5 ff ff 	mov    %rax,-0xaf8(%rbp)
    3924:	48 8d 05 bd 43 01 00 	lea    0x143bd(%rip),%rax        # 17ce8 <g_1103>
    392b:	48 89 85 10 f5 ff ff 	mov    %rax,-0xaf0(%rbp)
    3932:	48 8d 05 af 43 01 00 	lea    0x143af(%rip),%rax        # 17ce8 <g_1103>
    3939:	48 89 85 18 f5 ff ff 	mov    %rax,-0xae8(%rbp)
    3940:	c7 85 50 ef ff ff 12 	movl   $0xe6bcf712,-0x10b0(%rbp)
    3947:	f7 bc e6 
    394a:	66 c7 85 60 f4 ff ff 	movw   $0x12c0,-0xba0(%rbp)
    3951:	c0 12 
    3953:	66 c7 85 62 f4 ff ff 	movw   $0x8,-0xb9e(%rbp)
    395a:	08 00 
    395c:	66 c7 85 64 f4 ff ff 	movw   $0x12c0,-0xb9c(%rbp)
    3963:	c0 12 
    3965:	66 c7 85 66 f4 ff ff 	movw   $0xcf8f,-0xb9a(%rbp)
    396c:	8f cf 
    396e:	66 c7 85 68 f4 ff ff 	movw   $0xfe45,-0xb98(%rbp)
    3975:	45 fe 
    3977:	66 c7 85 6a f4 ff ff 	movw   $0xe4d0,-0xb96(%rbp)
    397e:	d0 e4 
    3980:	66 c7 85 6c f4 ff ff 	movw   $0xfffa,-0xb94(%rbp)
    3987:	fa ff 
    3989:	66 c7 85 6e f4 ff ff 	movw   $0x46fe,-0xb92(%rbp)
    3990:	fe 46 
    3992:	66 c7 85 70 f4 ff ff 	movw   $0x3547,-0xb90(%rbp)
    3999:	47 35 
    399b:	66 c7 85 72 f4 ff ff 	movw   $0xfe45,-0xb8e(%rbp)
    39a2:	45 fe 
    39a4:	66 c7 85 74 f4 ff ff 	movw   $0x9,-0xb8c(%rbp)
    39ab:	09 00 
    39ad:	66 c7 85 76 f4 ff ff 	movw   $0xfffb,-0xb8a(%rbp)
    39b4:	fb ff 
    39b6:	66 c7 85 78 f4 ff ff 	movw   $0xfffb,-0xb88(%rbp)
    39bd:	fb ff 
    39bf:	66 c7 85 7a f4 ff ff 	movw   $0x9,-0xb86(%rbp)
    39c6:	09 00 
    39c8:	66 c7 85 7c f4 ff ff 	movw   $0x12c0,-0xb84(%rbp)
    39cf:	c0 12 
    39d1:	66 c7 85 7e f4 ff ff 	movw   $0x1,-0xb82(%rbp)
    39d8:	01 00 
    39da:	66 c7 85 80 f4 ff ff 	movw   $0x9,-0xb80(%rbp)
    39e1:	09 00 
    39e3:	66 c7 85 82 f4 ff ff 	movw   $0x46fe,-0xb7e(%rbp)
    39ea:	fe 46 
    39ec:	66 c7 85 84 f4 ff ff 	movw   $0xfe45,-0xb7c(%rbp)
    39f3:	45 fe 
    39f5:	66 c7 85 86 f4 ff ff 	movw   $0xfffa,-0xb7a(%rbp)
    39fc:	fa ff 
    39fe:	66 c7 85 88 f4 ff ff 	movw   $0x1,-0xb78(%rbp)
    3a05:	01 00 
    3a07:	66 c7 85 8a f4 ff ff 	movw   $0x46fe,-0xb76(%rbp)
    3a0e:	fe 46 
    3a10:	66 c7 85 8c f4 ff ff 	movw   $0x12c0,-0xb74(%rbp)
    3a17:	c0 12 
    3a19:	66 c7 85 8e f4 ff ff 	movw   $0x46fe,-0xb72(%rbp)
    3a20:	fe 46 
    3a22:	66 c7 85 90 f4 ff ff 	movw   $0x1,-0xb70(%rbp)
    3a29:	01 00 
    3a2b:	48 8d 05 86 42 01 00 	lea    0x14286(%rip),%rax        # 17cb8 <g_864+0x18>
    3a32:	48 89 85 d8 f0 ff ff 	mov    %rax,-0xf28(%rbp)
    3a39:	c7 85 a0 f4 ff ff bd 	movl   $0xbd00bdbd,-0xb60(%rbp)
    3a40:	bd 00 bd 
    3a43:	66 c7 85 a4 f4 ff ff 	movw   $0xbd,-0xb5c(%rbp)
    3a4a:	bd 00 
    3a4c:	c7 85 a6 f4 ff ff bd 	movl   $0xbd00bdbd,-0xb5a(%rbp)
    3a53:	bd 00 bd 
    3a56:	66 c7 85 aa f4 ff ff 	movw   $0xbd,-0xb56(%rbp)
    3a5d:	bd 00 
    3a5f:	c7 85 ac f4 ff ff bd 	movl   $0xbd00bdbd,-0xb54(%rbp)
    3a66:	bd 00 bd 
    3a69:	66 c7 85 b0 f4 ff ff 	movw   $0xbd,-0xb50(%rbp)
    3a70:	bd 00 
    3a72:	c7 85 b2 f4 ff ff bd 	movl   $0xbd00bdbd,-0xb4e(%rbp)
    3a79:	bd 00 bd 
    3a7c:	66 c7 85 b6 f4 ff ff 	movw   $0xbd,-0xb4a(%rbp)
    3a83:	bd 00 
    3a85:	c7 85 b8 f4 ff ff bd 	movl   $0xbd00bdbd,-0xb48(%rbp)
    3a8c:	bd 00 bd 
    3a8f:	66 c7 85 bc f4 ff ff 	movw   $0xbd,-0xb44(%rbp)
    3a96:	bd 00 
    3a98:	c7 85 be f4 ff ff bd 	movl   $0xbd00bdbd,-0xb42(%rbp)
    3a9f:	bd 00 bd 
    3aa2:	66 c7 85 c2 f4 ff ff 	movw   $0xbd,-0xb3e(%rbp)
    3aa9:	bd 00 
    3aab:	c7 85 c4 f4 ff ff bd 	movl   $0xbd00bdbd,-0xb3c(%rbp)
    3ab2:	bd 00 bd 
    3ab5:	66 c7 85 c8 f4 ff ff 	movw   $0xbd,-0xb38(%rbp)
    3abc:	bd 00 
    3abe:	c7 85 ca f4 ff ff bd 	movl   $0xbd00bdbd,-0xb36(%rbp)
    3ac5:	bd 00 bd 
    3ac8:	66 c7 85 ce f4 ff ff 	movw   $0xbd,-0xb32(%rbp)
    3acf:	bd 00 
    3ad1:	c7 85 d0 f4 ff ff bd 	movl   $0xbdbdbd,-0xb30(%rbp)
    3ad8:	bd bd 00 
    3adb:	66 c7 85 d4 f4 ff ff 	movw   $0xbd00,-0xb2c(%rbp)
    3ae2:	00 bd 
    3ae4:	48 8d 05 52 35 01 00 	lea    0x13552(%rip),%rax        # 1703d <g_124>
    3aeb:	48 89 85 e0 f0 ff ff 	mov    %rax,-0xf20(%rbp)
    3af2:	c7 85 4c ef ff ff 09 	movl   $0x9,-0x10b4(%rbp)
    3af9:	00 00 00 
    3afc:	c7 85 b8 ee ff ff 23 	movl   $0xde96ff23,-0x1148(%rbp)
    3b03:	ff 96 de 
    3b06:	c7 85 5c ef ff ff 00 	movl   $0x0,-0x10a4(%rbp)
    3b0d:	00 00 00 
    3b10:	c7 85 60 ef ff ff 00 	movl   $0x0,-0x10a0(%rbp)
    3b17:	00 00 00 
    3b1a:	c7 85 bc ee ff ff 01 	movl   $0x1,-0x1144(%rbp)
    3b21:	00 00 00 
    3b24:	c7 85 c0 ee ff ff b5 	movl   $0x823259b5,-0x1140(%rbp)
    3b2b:	59 32 82 
    3b2e:	c7 85 64 ef ff ff 01 	movl   $0x1,-0x109c(%rbp)
    3b35:	00 00 00 
    3b38:	c7 85 c4 ee ff ff fc 	movl   $0xfffffffc,-0x113c(%rbp)
    3b3f:	ff ff ff 
    3b42:	c7 85 30 f4 ff ff fd 	movl   $0xfffffffd,-0xbd0(%rbp)
    3b49:	ff ff ff 
    3b4c:	c7 85 34 f4 ff ff fd 	movl   $0xfffffffd,-0xbcc(%rbp)
    3b53:	ff ff ff 
    3b56:	c7 85 38 f4 ff ff 00 	movl   $0x0,-0xbc8(%rbp)
    3b5d:	00 00 00 
    3b60:	c7 85 3c f4 ff ff fd 	movl   $0xfffffffd,-0xbc4(%rbp)
    3b67:	ff ff ff 
    3b6a:	c7 85 40 f4 ff ff fd 	movl   $0xfffffffd,-0xbc0(%rbp)
    3b71:	ff ff ff 
    3b74:	c7 85 44 f4 ff ff 00 	movl   $0x0,-0xbbc(%rbp)
    3b7b:	00 00 00 
    3b7e:	c7 85 48 f4 ff ff fd 	movl   $0xfffffffd,-0xbb8(%rbp)
    3b85:	ff ff ff 
    3b88:	c7 85 4c f4 ff ff fd 	movl   $0xfffffffd,-0xbb4(%rbp)
    3b8f:	ff ff ff 
    3b92:	c7 85 50 f4 ff ff 00 	movl   $0x0,-0xbb0(%rbp)
    3b99:	00 00 00 
    3b9c:	c7 85 54 f4 ff ff fd 	movl   $0xfffffffd,-0xbac(%rbp)
    3ba3:	ff ff ff 
    3ba6:	c7 85 68 ef ff ff 00 	movl   $0x0,-0x1098(%rbp)
    3bad:	00 00 00 
    3bb0:	c7 85 3c ef ff ff 00 	movl   $0x0,-0x10c4(%rbp)
    3bb7:	00 00 00 
    3bba:	eb 1a                	jmp    3bd6 <func_1+0x421>
    3bbc:	8b 85 3c ef ff ff    	mov    -0x10c4(%rbp),%eax
    3bc2:	48 98                	cltq   
    3bc4:	c7 84 85 80 f3 ff ff 	movl   $0x0,-0xc80(%rbp,%rax,4)
    3bcb:	00 00 00 00 
    3bcf:	83 85 3c ef ff ff 01 	addl   $0x1,-0x10c4(%rbp)
    3bd6:	83 bd 3c ef ff ff 05 	cmpl   $0x5,-0x10c4(%rbp)
    3bdd:	7e dd                	jle    3bbc <func_1+0x407>
    3bdf:	48 8b 05 ba 37 01 00 	mov    0x137ba(%rip),%rax        # 173a0 <g_1148>
    3be6:	89 85 7c ee ff ff    	mov    %eax,-0x1184(%rbp)
    3bec:	48 8b 05 dd 40 01 00 	mov    0x140dd(%rip),%rax        # 17cd0 <g_980>
    3bf3:	4c 8b 30             	mov    (%rax),%r14
    3bf6:	0f b6 85 8b ee ff ff 	movzbl -0x1175(%rbp),%eax
    3bfd:	44 0f be f8          	movsbl %al,%r15d
    3c01:	0f b6 85 8b ee ff ff 	movzbl -0x1175(%rbp),%eax
    3c08:	0f be d0             	movsbl %al,%edx
    3c0b:	0f b6 85 8b ee ff ff 	movzbl -0x1175(%rbp),%eax
    3c12:	0f be c0             	movsbl %al,%eax
    3c15:	89 d6                	mov    %edx,%esi
    3c17:	89 c7                	mov    %eax,%edi
    3c19:	e8 45 e9 ff ff       	callq  2563 <safe_rshift_func_int16_t_s_u>
    3c1e:	0f b6 85 8b ee ff ff 	movzbl -0x1175(%rbp),%eax
    3c25:	0f be c0             	movsbl %al,%eax
    3c28:	89 85 78 ee ff ff    	mov    %eax,-0x1188(%rbp)
    3c2e:	48 8b 85 38 f0 ff ff 	mov    -0xfc8(%rbp),%rax
    3c35:	48 89 85 70 ee ff ff 	mov    %rax,-0x1190(%rbp)
    3c3c:	48 8b 85 40 f0 ff ff 	mov    -0xfc0(%rbp),%rax
    3c43:	48 89 85 68 ee ff ff 	mov    %rax,-0x1198(%rbp)
    3c4a:	0f b6 85 8b ee ff ff 	movzbl -0x1175(%rbp),%eax
    3c51:	0f b6 c0             	movzbl %al,%eax
    3c54:	be 01 00 00 00       	mov    $0x1,%esi
    3c59:	89 c7                	mov    %eax,%edi
    3c5b:	e8 2d f0 ff ff       	callq  2c8d <safe_rshift_func_uint8_t_u_s>
    3c60:	0f be d0             	movsbl %al,%edx
    3c63:	8b 05 bb 33 01 00    	mov    0x133bb(%rip),%eax        # 17024 <g_15>
    3c69:	0f be c0             	movsbl %al,%eax
    3c6c:	89 d6                	mov    %edx,%esi
    3c6e:	89 c7                	mov    %eax,%edi
    3c70:	e8 9d e5 ff ff       	callq  2212 <safe_mul_func_int8_t_s_s>
    3c75:	84 c0                	test   %al,%al
    3c77:	0f 84 71 01 00 00    	je     3dee <func_1+0x639>
    3c7d:	0f b7 05 a4 36 01 00 	movzwl 0x136a4(%rip),%eax        # 17328 <g_950>
    3c84:	0f b6 c0             	movzbl %al,%eax
    3c87:	89 85 64 ee ff ff    	mov    %eax,-0x119c(%rbp)
    3c8d:	0f b6 85 8b ee ff ff 	movzbl -0x1175(%rbp),%eax
    3c94:	48 0f be d8          	movsbq %al,%rbx
    3c98:	48 89 9d 58 ee ff ff 	mov    %rbx,-0x11a8(%rbp)
    3c9f:	48 8b bd 40 f0 ff ff 	mov    -0xfc0(%rbp),%rdi
    3ca6:	48 89 bd 50 ee ff ff 	mov    %rdi,-0x11b0(%rbp)
    3cad:	0f b6 85 8b ee ff ff 	movzbl -0x1175(%rbp),%eax
    3cb4:	66 98                	cbtw   
    3cb6:	44 0f b7 c8          	movzwl %ax,%r9d
    3cba:	44 89 8d 60 ee ff ff 	mov    %r9d,-0x11a0(%rbp)
    3cc1:	0f b6 85 8b ee ff ff 	movzbl -0x1175(%rbp),%eax
    3cc8:	66 98                	cbtw   
    3cca:	44 0f b7 d0          	movzwl %ax,%r10d
    3cce:	44 89 95 4c ee ff ff 	mov    %r10d,-0x11b4(%rbp)
    3cd5:	0f b6 85 8b ee ff ff 	movzbl -0x1175(%rbp),%eax
    3cdc:	48 0f be d8          	movsbq %al,%rbx
    3ce0:	8b 05 42 33 01 00    	mov    0x13342(%rip),%eax        # 17028 <g_52>
    3ce6:	44 0f b6 e0          	movzbl %al,%r12d
    3cea:	8b 05 38 33 01 00    	mov    0x13338(%rip),%eax        # 17028 <g_52>
    3cf0:	44 0f b7 e8          	movzwl %ax,%r13d
    3cf4:	8b 0d 2a 33 01 00    	mov    0x1332a(%rip),%ecx        # 17024 <g_15>
    3cfa:	8b 05 24 33 01 00    	mov    0x13324(%rip),%eax        # 17024 <g_15>
    3d00:	89 c6                	mov    %eax,%esi
    3d02:	48 8b 95 b0 f0 ff ff 	mov    -0xf50(%rbp),%rdx
    3d09:	48 8d 85 8b ee ff ff 	lea    -0x1175(%rbp),%rax
    3d10:	48 89 02             	mov    %rax,(%rdx)
    3d13:	48 8b 85 b0 f0 ff ff 	mov    -0xf50(%rbp),%rax
    3d1a:	48 8b 00             	mov    (%rax),%rax
    3d1d:	89 ca                	mov    %ecx,%edx
    3d1f:	48 89 c7             	mov    %rax,%rdi
    3d22:	e8 6b 8d 00 00       	callq  ca92 <func_45>
    3d27:	48 89 c2             	mov    %rax,%rdx
    3d2a:	48 b8 4e 68 c6 a4 37 	movabs $0x58ddfa37a4c6684e,%rax
    3d31:	fa dd 58 
    3d34:	48 39 c2             	cmp    %rax,%rdx
    3d37:	0f 9e c0             	setle  %al
    3d3a:	89 c2                	mov    %eax,%edx
    3d3c:	0f b6 85 8b ee ff ff 	movzbl -0x1175(%rbp),%eax
    3d43:	f7 d0                	not    %eax
    3d45:	21 d0                	and    %edx,%eax
    3d47:	0f b6 c0             	movzbl %al,%eax
    3d4a:	be 05 00 00 00       	mov    $0x5,%esi
    3d4f:	89 c7                	mov    %eax,%edi
    3d51:	e8 f6 ee ff ff       	callq  2c4c <safe_lshift_func_uint8_t_u_u>
    3d56:	0f be c0             	movsbl %al,%eax
    3d59:	44 8b 85 4c ee ff ff 	mov    -0x11b4(%rbp),%r8d
    3d60:	48 89 d9             	mov    %rbx,%rcx
    3d63:	44 89 e2             	mov    %r12d,%edx
    3d66:	44 89 ee             	mov    %r13d,%esi
    3d69:	89 c7                	mov    %eax,%edi
    3d6b:	e8 c8 8c 00 00       	callq  ca38 <func_37>
    3d70:	0f be c0             	movsbl %al,%eax
    3d73:	be 04 00 00 00       	mov    $0x4,%esi
    3d78:	89 c7                	mov    %eax,%edi
    3d7a:	e8 b6 e5 ff ff       	callq  2335 <safe_rshift_func_int8_t_s_s>
    3d7f:	0f b6 95 8b ee ff ff 	movzbl -0x1175(%rbp),%edx
    3d86:	38 d0                	cmp    %dl,%al
    3d88:	48 8b 85 b8 f0 ff ff 	mov    -0xf48(%rbp),%rax
    3d8f:	48 89 c7             	mov    %rax,%rdi
    3d92:	e8 ba 5b 00 00       	callq  9951 <func_33>
    3d97:	48 8b 95 c0 f0 ff ff 	mov    -0xf40(%rbp),%rdx
    3d9e:	66 89 02             	mov    %ax,(%rdx)
    3da1:	48 8b 85 c0 f0 ff ff 	mov    -0xf40(%rbp),%rax
    3da8:	0f b7 00             	movzwl (%rax),%eax
    3dab:	0f b7 c0             	movzwl %ax,%eax
    3dae:	8b b5 60 ee ff ff    	mov    -0x11a0(%rbp),%esi
    3db4:	89 c7                	mov    %eax,%edi
    3db6:	e8 82 ef ff ff       	callq  2d3d <safe_mul_func_uint16_t_u_u>
    3dbb:	48 8b 85 38 f0 ff ff 	mov    -0xfc8(%rbp),%rax
    3dc2:	8b 8d 64 ee ff ff    	mov    -0x119c(%rbp),%ecx
    3dc8:	48 8b 95 58 ee ff ff 	mov    -0x11a8(%rbp),%rdx
    3dcf:	48 8b b5 50 ee ff ff 	mov    -0x11b0(%rbp),%rsi
    3dd6:	48 89 c7             	mov    %rax,%rdi
    3dd9:	e8 29 55 00 00       	callq  9307 <func_26>
    3dde:	0f b6 95 8b ee ff ff 	movzbl -0x1175(%rbp),%edx
    3de5:	0f b6 05 3e 35 01 00 	movzbl 0x1353e(%rip),%eax        # 1732a <g_969>
    3dec:	38 c2                	cmp    %al,%dl
    3dee:	48 8b 85 b0 f0 ff ff 	mov    -0xf50(%rbp),%rax
    3df5:	48 8b 00             	mov    (%rax),%rax
    3df8:	44 8b 85 78 ee ff ff 	mov    -0x1188(%rbp),%r8d
    3dff:	48 8b 8d 70 ee ff ff 	mov    -0x1190(%rbp),%rcx
    3e06:	48 8d 15 3e 35 01 00 	lea    0x1353e(%rip),%rdx        # 1734b <g_982+0xb>
    3e0d:	48 8b b5 68 ee ff ff 	mov    -0x1198(%rbp),%rsi
    3e14:	48 89 c7             	mov    %rax,%rdi
    3e17:	e8 ab 54 00 00       	callq  92c7 <func_16>
    3e1c:	48 85 c0             	test   %rax,%rax
    3e1f:	0f 95 c0             	setne  %al
    3e22:	0f b6 c0             	movzbl %al,%eax
    3e25:	44 89 fe             	mov    %r15d,%esi
    3e28:	89 c7                	mov    %eax,%edi
    3e2a:	e8 f6 f0 ff ff       	callq  2f25 <safe_div_func_uint32_t_u_u>
    3e2f:	89 c1                	mov    %eax,%ecx
    3e31:	48 8b 85 c8 f0 ff ff 	mov    -0xf38(%rbp),%rax
    3e38:	4c 89 f2             	mov    %r14,%rdx
    3e3b:	48 89 c6             	mov    %rax,%rsi
    3e3e:	89 cf                	mov    %ecx,%edi
    3e40:	e8 b9 51 00 00       	callq  8ffe <func_6>
    3e45:	89 c2                	mov    %eax,%edx
    3e47:	0f b6 85 8b ee ff ff 	movzbl -0x1175(%rbp),%eax
    3e4e:	31 d0                	xor    %edx,%eax
    3e50:	0f b6 c0             	movzbl %al,%eax
    3e53:	8b b5 7c ee ff ff    	mov    -0x1184(%rbp),%esi
    3e59:	89 c7                	mov    %eax,%edi
    3e5b:	e8 5e ee ff ff       	callq  2cbe <safe_rshift_func_uint8_t_u_u>
    3e60:	0f b6 c0             	movzbl %al,%eax
    3e63:	be 00 00 00 00       	mov    $0x0,%esi
    3e68:	89 c7                	mov    %eax,%edi
    3e6a:	e8 b0 ee ff ff       	callq  2d1f <safe_sub_func_uint16_t_u_u>
    3e6f:	89 c2                	mov    %eax,%edx
    3e71:	48 8b 85 48 f0 ff ff 	mov    -0xfb8(%rbp),%rax
    3e78:	0f b7 d2             	movzwl %dx,%edx
    3e7b:	89 10                	mov    %edx,(%rax)
    3e7d:	8b 00                	mov    (%rax),%eax
    3e7f:	85 c0                	test   %eax,%eax
    3e81:	0f 84 d7 25 00 00    	je     645e <func_1+0x2ca9>
    3e87:	48 c7 85 30 f2 ff ff 	movq   $0x0,-0xdd0(%rbp)
    3e8e:	00 00 00 00 
    3e92:	48 8d 05 8f 34 01 00 	lea    0x1348f(%rip),%rax        # 17328 <g_950>
    3e99:	48 89 85 38 f2 ff ff 	mov    %rax,-0xdc8(%rbp)
    3ea0:	c7 85 70 f0 ff ff 91 	movl   $0x2ba79291,-0xf90(%rbp)
    3ea7:	92 a7 2b 
    3eaa:	48 8d 85 40 f0 ff ff 	lea    -0xfc0(%rbp),%rax
    3eb1:	48 89 85 88 f0 ff ff 	mov    %rax,-0xf78(%rbp)
    3eb8:	48 8d 85 70 f0 ff ff 	lea    -0xf90(%rbp),%rax
    3ebf:	48 89 85 40 f8 ff ff 	mov    %rax,-0x7c0(%rbp)
    3ec6:	48 8d 85 70 f0 ff ff 	lea    -0xf90(%rbp),%rax
    3ecd:	48 89 85 48 f8 ff ff 	mov    %rax,-0x7b8(%rbp)
    3ed4:	48 8d 85 70 f0 ff ff 	lea    -0xf90(%rbp),%rax
    3edb:	48 89 85 50 f8 ff ff 	mov    %rax,-0x7b0(%rbp)
    3ee2:	48 8d 85 70 f0 ff ff 	lea    -0xf90(%rbp),%rax
    3ee9:	48 89 85 58 f8 ff ff 	mov    %rax,-0x7a8(%rbp)
    3ef0:	48 8d 85 70 f0 ff ff 	lea    -0xf90(%rbp),%rax
    3ef7:	48 89 85 60 f8 ff ff 	mov    %rax,-0x7a0(%rbp)
    3efe:	48 8d 85 70 f0 ff ff 	lea    -0xf90(%rbp),%rax
    3f05:	48 89 85 68 f8 ff ff 	mov    %rax,-0x798(%rbp)
    3f0c:	48 8d 85 70 f0 ff ff 	lea    -0xf90(%rbp),%rax
    3f13:	48 89 85 70 f8 ff ff 	mov    %rax,-0x790(%rbp)
    3f1a:	48 8d 85 70 f0 ff ff 	lea    -0xf90(%rbp),%rax
    3f21:	48 89 85 78 f8 ff ff 	mov    %rax,-0x788(%rbp)
    3f28:	48 8d 85 70 f0 ff ff 	lea    -0xf90(%rbp),%rax
    3f2f:	48 89 85 80 f8 ff ff 	mov    %rax,-0x780(%rbp)
    3f36:	48 8d 85 70 f0 ff ff 	lea    -0xf90(%rbp),%rax
    3f3d:	48 89 85 88 f8 ff ff 	mov    %rax,-0x778(%rbp)
    3f44:	48 8d 85 70 f0 ff ff 	lea    -0xf90(%rbp),%rax
    3f4b:	48 89 85 90 f8 ff ff 	mov    %rax,-0x770(%rbp)
    3f52:	48 8d 85 70 f0 ff ff 	lea    -0xf90(%rbp),%rax
    3f59:	48 89 85 98 f8 ff ff 	mov    %rax,-0x768(%rbp)
    3f60:	48 8d 85 70 f0 ff ff 	lea    -0xf90(%rbp),%rax
    3f67:	48 89 85 a0 f8 ff ff 	mov    %rax,-0x760(%rbp)
    3f6e:	48 8d 85 70 f0 ff ff 	lea    -0xf90(%rbp),%rax
    3f75:	48 89 85 a8 f8 ff ff 	mov    %rax,-0x758(%rbp)
    3f7c:	48 8d 85 70 f0 ff ff 	lea    -0xf90(%rbp),%rax
    3f83:	48 89 85 b0 f8 ff ff 	mov    %rax,-0x750(%rbp)
    3f8a:	48 8d 85 70 f0 ff ff 	lea    -0xf90(%rbp),%rax
    3f91:	48 89 85 b8 f8 ff ff 	mov    %rax,-0x748(%rbp)
    3f98:	48 8d 85 70 f0 ff ff 	lea    -0xf90(%rbp),%rax
    3f9f:	48 89 85 c0 f8 ff ff 	mov    %rax,-0x740(%rbp)
    3fa6:	48 8d 85 70 f0 ff ff 	lea    -0xf90(%rbp),%rax
    3fad:	48 89 85 c8 f8 ff ff 	mov    %rax,-0x738(%rbp)
    3fb4:	48 8d 85 70 f0 ff ff 	lea    -0xf90(%rbp),%rax
    3fbb:	48 89 85 d0 f8 ff ff 	mov    %rax,-0x730(%rbp)
    3fc2:	48 8d 85 70 f0 ff ff 	lea    -0xf90(%rbp),%rax
    3fc9:	48 89 85 d8 f8 ff ff 	mov    %rax,-0x728(%rbp)
    3fd0:	48 8d 85 70 f0 ff ff 	lea    -0xf90(%rbp),%rax
    3fd7:	48 89 85 e0 f8 ff ff 	mov    %rax,-0x720(%rbp)
    3fde:	48 8d 85 70 f0 ff ff 	lea    -0xf90(%rbp),%rax
    3fe5:	48 89 85 e8 f8 ff ff 	mov    %rax,-0x718(%rbp)
    3fec:	48 8d 85 70 f0 ff ff 	lea    -0xf90(%rbp),%rax
    3ff3:	48 89 85 f0 f8 ff ff 	mov    %rax,-0x710(%rbp)
    3ffa:	48 8d 85 70 f0 ff ff 	lea    -0xf90(%rbp),%rax
    4001:	48 89 85 f8 f8 ff ff 	mov    %rax,-0x708(%rbp)
    4008:	48 8d 85 70 f0 ff ff 	lea    -0xf90(%rbp),%rax
    400f:	48 89 85 00 f9 ff ff 	mov    %rax,-0x700(%rbp)
    4016:	48 8d 85 70 f0 ff ff 	lea    -0xf90(%rbp),%rax
    401d:	48 89 85 08 f9 ff ff 	mov    %rax,-0x6f8(%rbp)
    4024:	48 8d 85 70 f0 ff ff 	lea    -0xf90(%rbp),%rax
    402b:	48 89 85 10 f9 ff ff 	mov    %rax,-0x6f0(%rbp)
    4032:	48 8d 85 70 f0 ff ff 	lea    -0xf90(%rbp),%rax
    4039:	48 89 85 18 f9 ff ff 	mov    %rax,-0x6e8(%rbp)
    4040:	48 8d 85 70 f0 ff ff 	lea    -0xf90(%rbp),%rax
    4047:	48 89 85 20 f9 ff ff 	mov    %rax,-0x6e0(%rbp)
    404e:	48 8d 85 70 f0 ff ff 	lea    -0xf90(%rbp),%rax
    4055:	48 89 85 28 f9 ff ff 	mov    %rax,-0x6d8(%rbp)
    405c:	48 8d 85 70 f0 ff ff 	lea    -0xf90(%rbp),%rax
    4063:	48 89 85 30 f9 ff ff 	mov    %rax,-0x6d0(%rbp)
    406a:	48 8d 85 70 f0 ff ff 	lea    -0xf90(%rbp),%rax
    4071:	48 89 85 38 f9 ff ff 	mov    %rax,-0x6c8(%rbp)
    4078:	48 8d 85 70 f0 ff ff 	lea    -0xf90(%rbp),%rax
    407f:	48 89 85 40 f9 ff ff 	mov    %rax,-0x6c0(%rbp)
    4086:	48 8d 85 70 f0 ff ff 	lea    -0xf90(%rbp),%rax
    408d:	48 89 85 48 f9 ff ff 	mov    %rax,-0x6b8(%rbp)
    4094:	48 8d 85 70 f0 ff ff 	lea    -0xf90(%rbp),%rax
    409b:	48 89 85 50 f9 ff ff 	mov    %rax,-0x6b0(%rbp)
    40a2:	48 8d 85 70 f0 ff ff 	lea    -0xf90(%rbp),%rax
    40a9:	48 89 85 58 f9 ff ff 	mov    %rax,-0x6a8(%rbp)
    40b0:	48 8d 85 70 f0 ff ff 	lea    -0xf90(%rbp),%rax
    40b7:	48 89 85 60 f9 ff ff 	mov    %rax,-0x6a0(%rbp)
    40be:	48 8d 85 70 f0 ff ff 	lea    -0xf90(%rbp),%rax
    40c5:	48 89 85 68 f9 ff ff 	mov    %rax,-0x698(%rbp)
    40cc:	48 8d 85 70 f0 ff ff 	lea    -0xf90(%rbp),%rax
    40d3:	48 89 85 70 f9 ff ff 	mov    %rax,-0x690(%rbp)
    40da:	48 8d 85 70 f0 ff ff 	lea    -0xf90(%rbp),%rax
    40e1:	48 89 85 78 f9 ff ff 	mov    %rax,-0x688(%rbp)
    40e8:	48 8d 85 70 f0 ff ff 	lea    -0xf90(%rbp),%rax
    40ef:	48 89 85 80 f9 ff ff 	mov    %rax,-0x680(%rbp)
    40f6:	48 8d 85 70 f0 ff ff 	lea    -0xf90(%rbp),%rax
    40fd:	48 89 85 88 f9 ff ff 	mov    %rax,-0x678(%rbp)
    4104:	48 8d 85 70 f0 ff ff 	lea    -0xf90(%rbp),%rax
    410b:	48 89 85 90 f9 ff ff 	mov    %rax,-0x670(%rbp)
    4112:	48 8d 85 70 f0 ff ff 	lea    -0xf90(%rbp),%rax
    4119:	48 89 85 98 f9 ff ff 	mov    %rax,-0x668(%rbp)
    4120:	48 8d 85 70 f0 ff ff 	lea    -0xf90(%rbp),%rax
    4127:	48 89 85 a0 f9 ff ff 	mov    %rax,-0x660(%rbp)
    412e:	48 8d 85 70 f0 ff ff 	lea    -0xf90(%rbp),%rax
    4135:	48 89 85 a8 f9 ff ff 	mov    %rax,-0x658(%rbp)
    413c:	48 8d 85 70 f0 ff ff 	lea    -0xf90(%rbp),%rax
    4143:	48 89 85 b0 f9 ff ff 	mov    %rax,-0x650(%rbp)
    414a:	48 8d 85 70 f0 ff ff 	lea    -0xf90(%rbp),%rax
    4151:	48 89 85 b8 f9 ff ff 	mov    %rax,-0x648(%rbp)
    4158:	48 8d 85 70 f0 ff ff 	lea    -0xf90(%rbp),%rax
    415f:	48 89 85 c0 f9 ff ff 	mov    %rax,-0x640(%rbp)
    4166:	48 8d 85 70 f0 ff ff 	lea    -0xf90(%rbp),%rax
    416d:	48 89 85 c8 f9 ff ff 	mov    %rax,-0x638(%rbp)
    4174:	48 8d 85 70 f0 ff ff 	lea    -0xf90(%rbp),%rax
    417b:	48 89 85 d0 f9 ff ff 	mov    %rax,-0x630(%rbp)
    4182:	48 8d 85 70 f0 ff ff 	lea    -0xf90(%rbp),%rax
    4189:	48 89 85 d8 f9 ff ff 	mov    %rax,-0x628(%rbp)
    4190:	48 8d 85 70 f0 ff ff 	lea    -0xf90(%rbp),%rax
    4197:	48 89 85 e0 f9 ff ff 	mov    %rax,-0x620(%rbp)
    419e:	48 8d 85 70 f0 ff ff 	lea    -0xf90(%rbp),%rax
    41a5:	48 89 85 e8 f9 ff ff 	mov    %rax,-0x618(%rbp)
    41ac:	48 8d 85 70 f0 ff ff 	lea    -0xf90(%rbp),%rax
    41b3:	48 89 85 f0 f9 ff ff 	mov    %rax,-0x610(%rbp)
    41ba:	48 8d 85 70 f0 ff ff 	lea    -0xf90(%rbp),%rax
    41c1:	48 89 85 f8 f9 ff ff 	mov    %rax,-0x608(%rbp)
    41c8:	48 8d 85 70 f0 ff ff 	lea    -0xf90(%rbp),%rax
    41cf:	48 89 85 00 fa ff ff 	mov    %rax,-0x600(%rbp)
    41d6:	48 8d 85 70 f0 ff ff 	lea    -0xf90(%rbp),%rax
    41dd:	48 89 85 08 fa ff ff 	mov    %rax,-0x5f8(%rbp)
    41e4:	48 8d 85 70 f0 ff ff 	lea    -0xf90(%rbp),%rax
    41eb:	48 89 85 10 fa ff ff 	mov    %rax,-0x5f0(%rbp)
    41f2:	48 8d 85 70 f0 ff ff 	lea    -0xf90(%rbp),%rax
    41f9:	48 89 85 18 fa ff ff 	mov    %rax,-0x5e8(%rbp)
    4200:	48 8d 85 70 f0 ff ff 	lea    -0xf90(%rbp),%rax
    4207:	48 89 85 20 fa ff ff 	mov    %rax,-0x5e0(%rbp)
    420e:	48 8d 85 70 f0 ff ff 	lea    -0xf90(%rbp),%rax
    4215:	48 89 85 28 fa ff ff 	mov    %rax,-0x5d8(%rbp)
    421c:	48 8d 85 70 f0 ff ff 	lea    -0xf90(%rbp),%rax
    4223:	48 89 85 30 fa ff ff 	mov    %rax,-0x5d0(%rbp)
    422a:	48 8d 85 70 f0 ff ff 	lea    -0xf90(%rbp),%rax
    4231:	48 89 85 38 fa ff ff 	mov    %rax,-0x5c8(%rbp)
    4238:	48 8d 85 70 f0 ff ff 	lea    -0xf90(%rbp),%rax
    423f:	48 89 85 40 fa ff ff 	mov    %rax,-0x5c0(%rbp)
    4246:	48 8d 85 70 f0 ff ff 	lea    -0xf90(%rbp),%rax
    424d:	48 89 85 48 fa ff ff 	mov    %rax,-0x5b8(%rbp)
    4254:	48 8d 85 70 f0 ff ff 	lea    -0xf90(%rbp),%rax
    425b:	48 89 85 50 fa ff ff 	mov    %rax,-0x5b0(%rbp)
    4262:	48 8d 85 70 f0 ff ff 	lea    -0xf90(%rbp),%rax
    4269:	48 89 85 58 fa ff ff 	mov    %rax,-0x5a8(%rbp)
    4270:	48 8d 85 70 f0 ff ff 	lea    -0xf90(%rbp),%rax
    4277:	48 89 85 60 fa ff ff 	mov    %rax,-0x5a0(%rbp)
    427e:	48 8d 85 70 f0 ff ff 	lea    -0xf90(%rbp),%rax
    4285:	48 89 85 68 fa ff ff 	mov    %rax,-0x598(%rbp)
    428c:	48 8d 85 70 f0 ff ff 	lea    -0xf90(%rbp),%rax
    4293:	48 89 85 70 fa ff ff 	mov    %rax,-0x590(%rbp)
    429a:	48 8d 85 70 f0 ff ff 	lea    -0xf90(%rbp),%rax
    42a1:	48 89 85 78 fa ff ff 	mov    %rax,-0x588(%rbp)
    42a8:	48 8d 85 70 f0 ff ff 	lea    -0xf90(%rbp),%rax
    42af:	48 89 85 80 fa ff ff 	mov    %rax,-0x580(%rbp)
    42b6:	48 8d 85 70 f0 ff ff 	lea    -0xf90(%rbp),%rax
    42bd:	48 89 85 88 fa ff ff 	mov    %rax,-0x578(%rbp)
    42c4:	48 8d 85 70 f0 ff ff 	lea    -0xf90(%rbp),%rax
    42cb:	48 89 85 90 fa ff ff 	mov    %rax,-0x570(%rbp)
    42d2:	48 8d 85 70 f0 ff ff 	lea    -0xf90(%rbp),%rax
    42d9:	48 89 85 98 fa ff ff 	mov    %rax,-0x568(%rbp)
    42e0:	48 8d 85 70 f0 ff ff 	lea    -0xf90(%rbp),%rax
    42e7:	48 89 85 a0 fa ff ff 	mov    %rax,-0x560(%rbp)
    42ee:	48 8d 85 70 f0 ff ff 	lea    -0xf90(%rbp),%rax
    42f5:	48 89 85 a8 fa ff ff 	mov    %rax,-0x558(%rbp)
    42fc:	48 8d 85 70 f0 ff ff 	lea    -0xf90(%rbp),%rax
    4303:	48 89 85 b0 fa ff ff 	mov    %rax,-0x550(%rbp)
    430a:	48 8d 85 70 f0 ff ff 	lea    -0xf90(%rbp),%rax
    4311:	48 89 85 b8 fa ff ff 	mov    %rax,-0x548(%rbp)
    4318:	48 8d 85 70 f0 ff ff 	lea    -0xf90(%rbp),%rax
    431f:	48 89 85 c0 fa ff ff 	mov    %rax,-0x540(%rbp)
    4326:	48 8d 85 70 f0 ff ff 	lea    -0xf90(%rbp),%rax
    432d:	48 89 85 c8 fa ff ff 	mov    %rax,-0x538(%rbp)
    4334:	48 8d 85 70 f0 ff ff 	lea    -0xf90(%rbp),%rax
    433b:	48 89 85 d0 fa ff ff 	mov    %rax,-0x530(%rbp)
    4342:	48 8d 85 70 f0 ff ff 	lea    -0xf90(%rbp),%rax
    4349:	48 89 85 d8 fa ff ff 	mov    %rax,-0x528(%rbp)
    4350:	48 8d 85 70 f0 ff ff 	lea    -0xf90(%rbp),%rax
    4357:	48 89 85 e0 fa ff ff 	mov    %rax,-0x520(%rbp)
    435e:	48 8d 85 70 f0 ff ff 	lea    -0xf90(%rbp),%rax
    4365:	48 89 85 e8 fa ff ff 	mov    %rax,-0x518(%rbp)
    436c:	48 8d 85 70 f0 ff ff 	lea    -0xf90(%rbp),%rax
    4373:	48 89 85 f0 fa ff ff 	mov    %rax,-0x510(%rbp)
    437a:	48 8d 85 70 f0 ff ff 	lea    -0xf90(%rbp),%rax
    4381:	48 89 85 f8 fa ff ff 	mov    %rax,-0x508(%rbp)
    4388:	48 8d 85 70 f0 ff ff 	lea    -0xf90(%rbp),%rax
    438f:	48 89 85 00 fb ff ff 	mov    %rax,-0x500(%rbp)
    4396:	48 8d 85 70 f0 ff ff 	lea    -0xf90(%rbp),%rax
    439d:	48 89 85 08 fb ff ff 	mov    %rax,-0x4f8(%rbp)
    43a4:	48 8d 85 70 f0 ff ff 	lea    -0xf90(%rbp),%rax
    43ab:	48 89 85 10 fb ff ff 	mov    %rax,-0x4f0(%rbp)
    43b2:	48 8d 85 70 f0 ff ff 	lea    -0xf90(%rbp),%rax
    43b9:	48 89 85 18 fb ff ff 	mov    %rax,-0x4e8(%rbp)
    43c0:	48 8d 85 70 f0 ff ff 	lea    -0xf90(%rbp),%rax
    43c7:	48 89 85 20 fb ff ff 	mov    %rax,-0x4e0(%rbp)
    43ce:	48 8d 85 70 f0 ff ff 	lea    -0xf90(%rbp),%rax
    43d5:	48 89 85 28 fb ff ff 	mov    %rax,-0x4d8(%rbp)
    43dc:	48 8d 85 70 f0 ff ff 	lea    -0xf90(%rbp),%rax
    43e3:	48 89 85 30 fb ff ff 	mov    %rax,-0x4d0(%rbp)
    43ea:	48 8d 85 70 f0 ff ff 	lea    -0xf90(%rbp),%rax
    43f1:	48 89 85 38 fb ff ff 	mov    %rax,-0x4c8(%rbp)
    43f8:	48 8d 85 70 f0 ff ff 	lea    -0xf90(%rbp),%rax
    43ff:	48 89 85 40 fb ff ff 	mov    %rax,-0x4c0(%rbp)
    4406:	48 8d 85 70 f0 ff ff 	lea    -0xf90(%rbp),%rax
    440d:	48 89 85 48 fb ff ff 	mov    %rax,-0x4b8(%rbp)
    4414:	48 8d 85 70 f0 ff ff 	lea    -0xf90(%rbp),%rax
    441b:	48 89 85 50 fb ff ff 	mov    %rax,-0x4b0(%rbp)
    4422:	48 8d 85 70 f0 ff ff 	lea    -0xf90(%rbp),%rax
    4429:	48 89 85 58 fb ff ff 	mov    %rax,-0x4a8(%rbp)
    4430:	48 8d 85 70 f0 ff ff 	lea    -0xf90(%rbp),%rax
    4437:	48 89 85 60 fb ff ff 	mov    %rax,-0x4a0(%rbp)
    443e:	48 8d 85 70 f0 ff ff 	lea    -0xf90(%rbp),%rax
    4445:	48 89 85 68 fb ff ff 	mov    %rax,-0x498(%rbp)
    444c:	48 8d 85 70 f0 ff ff 	lea    -0xf90(%rbp),%rax
    4453:	48 89 85 70 fb ff ff 	mov    %rax,-0x490(%rbp)
    445a:	48 8d 85 70 f0 ff ff 	lea    -0xf90(%rbp),%rax
    4461:	48 89 85 78 fb ff ff 	mov    %rax,-0x488(%rbp)
    4468:	48 8d 85 70 f0 ff ff 	lea    -0xf90(%rbp),%rax
    446f:	48 89 85 80 fb ff ff 	mov    %rax,-0x480(%rbp)
    4476:	48 8d 85 70 f0 ff ff 	lea    -0xf90(%rbp),%rax
    447d:	48 89 85 88 fb ff ff 	mov    %rax,-0x478(%rbp)
    4484:	48 8d 85 70 f0 ff ff 	lea    -0xf90(%rbp),%rax
    448b:	48 89 85 90 fb ff ff 	mov    %rax,-0x470(%rbp)
    4492:	48 8d 85 70 f0 ff ff 	lea    -0xf90(%rbp),%rax
    4499:	48 89 85 98 fb ff ff 	mov    %rax,-0x468(%rbp)
    44a0:	48 8d 85 70 f0 ff ff 	lea    -0xf90(%rbp),%rax
    44a7:	48 89 85 a0 fb ff ff 	mov    %rax,-0x460(%rbp)
    44ae:	48 8d 85 70 f0 ff ff 	lea    -0xf90(%rbp),%rax
    44b5:	48 89 85 a8 fb ff ff 	mov    %rax,-0x458(%rbp)
    44bc:	48 8d 85 70 f0 ff ff 	lea    -0xf90(%rbp),%rax
    44c3:	48 89 85 b0 fb ff ff 	mov    %rax,-0x450(%rbp)
    44ca:	48 8d 85 70 f0 ff ff 	lea    -0xf90(%rbp),%rax
    44d1:	48 89 85 b8 fb ff ff 	mov    %rax,-0x448(%rbp)
    44d8:	48 8d 85 70 f0 ff ff 	lea    -0xf90(%rbp),%rax
    44df:	48 89 85 c0 fb ff ff 	mov    %rax,-0x440(%rbp)
    44e6:	48 8d 85 70 f0 ff ff 	lea    -0xf90(%rbp),%rax
    44ed:	48 89 85 c8 fb ff ff 	mov    %rax,-0x438(%rbp)
    44f4:	48 8d 85 70 f0 ff ff 	lea    -0xf90(%rbp),%rax
    44fb:	48 89 85 d0 fb ff ff 	mov    %rax,-0x430(%rbp)
    4502:	48 8d 85 70 f0 ff ff 	lea    -0xf90(%rbp),%rax
    4509:	48 89 85 d8 fb ff ff 	mov    %rax,-0x428(%rbp)
    4510:	48 8d 85 70 f0 ff ff 	lea    -0xf90(%rbp),%rax
    4517:	48 89 85 e0 fb ff ff 	mov    %rax,-0x420(%rbp)
    451e:	48 8d 85 70 f0 ff ff 	lea    -0xf90(%rbp),%rax
    4525:	48 89 85 e8 fb ff ff 	mov    %rax,-0x418(%rbp)
    452c:	48 8d 85 70 f0 ff ff 	lea    -0xf90(%rbp),%rax
    4533:	48 89 85 f0 fb ff ff 	mov    %rax,-0x410(%rbp)
    453a:	48 8d 85 70 f0 ff ff 	lea    -0xf90(%rbp),%rax
    4541:	48 89 85 f8 fb ff ff 	mov    %rax,-0x408(%rbp)
    4548:	48 8d 85 70 f0 ff ff 	lea    -0xf90(%rbp),%rax
    454f:	48 89 85 00 fc ff ff 	mov    %rax,-0x400(%rbp)
    4556:	48 8d 85 70 f0 ff ff 	lea    -0xf90(%rbp),%rax
    455d:	48 89 85 08 fc ff ff 	mov    %rax,-0x3f8(%rbp)
    4564:	48 8d 85 70 f0 ff ff 	lea    -0xf90(%rbp),%rax
    456b:	48 89 85 10 fc ff ff 	mov    %rax,-0x3f0(%rbp)
    4572:	48 8d 85 70 f0 ff ff 	lea    -0xf90(%rbp),%rax
    4579:	48 89 85 18 fc ff ff 	mov    %rax,-0x3e8(%rbp)
    4580:	48 8d 85 70 f0 ff ff 	lea    -0xf90(%rbp),%rax
    4587:	48 89 85 20 fc ff ff 	mov    %rax,-0x3e0(%rbp)
    458e:	48 8d 85 70 f0 ff ff 	lea    -0xf90(%rbp),%rax
    4595:	48 89 85 28 fc ff ff 	mov    %rax,-0x3d8(%rbp)
    459c:	48 8d 85 70 f0 ff ff 	lea    -0xf90(%rbp),%rax
    45a3:	48 89 85 30 fc ff ff 	mov    %rax,-0x3d0(%rbp)
    45aa:	48 8d 85 70 f0 ff ff 	lea    -0xf90(%rbp),%rax
    45b1:	48 89 85 38 fc ff ff 	mov    %rax,-0x3c8(%rbp)
    45b8:	48 8d 85 70 f0 ff ff 	lea    -0xf90(%rbp),%rax
    45bf:	48 89 85 40 fc ff ff 	mov    %rax,-0x3c0(%rbp)
    45c6:	48 8d 85 70 f0 ff ff 	lea    -0xf90(%rbp),%rax
    45cd:	48 89 85 48 fc ff ff 	mov    %rax,-0x3b8(%rbp)
    45d4:	48 8d 85 70 f0 ff ff 	lea    -0xf90(%rbp),%rax
    45db:	48 89 85 50 fc ff ff 	mov    %rax,-0x3b0(%rbp)
    45e2:	48 8d 85 70 f0 ff ff 	lea    -0xf90(%rbp),%rax
    45e9:	48 89 85 58 fc ff ff 	mov    %rax,-0x3a8(%rbp)
    45f0:	48 8d 85 70 f0 ff ff 	lea    -0xf90(%rbp),%rax
    45f7:	48 89 85 60 fc ff ff 	mov    %rax,-0x3a0(%rbp)
    45fe:	48 8d 85 70 f0 ff ff 	lea    -0xf90(%rbp),%rax
    4605:	48 89 85 68 fc ff ff 	mov    %rax,-0x398(%rbp)
    460c:	48 8d 85 70 f0 ff ff 	lea    -0xf90(%rbp),%rax
    4613:	48 89 85 70 fc ff ff 	mov    %rax,-0x390(%rbp)
    461a:	48 8d 85 70 f0 ff ff 	lea    -0xf90(%rbp),%rax
    4621:	48 89 85 78 fc ff ff 	mov    %rax,-0x388(%rbp)
    4628:	48 8d 85 70 f0 ff ff 	lea    -0xf90(%rbp),%rax
    462f:	48 89 85 80 fc ff ff 	mov    %rax,-0x380(%rbp)
    4636:	48 8d 85 70 f0 ff ff 	lea    -0xf90(%rbp),%rax
    463d:	48 89 85 88 fc ff ff 	mov    %rax,-0x378(%rbp)
    4644:	48 8d 85 70 f0 ff ff 	lea    -0xf90(%rbp),%rax
    464b:	48 89 85 90 fc ff ff 	mov    %rax,-0x370(%rbp)
    4652:	48 8d 85 70 f0 ff ff 	lea    -0xf90(%rbp),%rax
    4659:	48 89 85 98 fc ff ff 	mov    %rax,-0x368(%rbp)
    4660:	48 8d 85 70 f0 ff ff 	lea    -0xf90(%rbp),%rax
    4667:	48 89 85 a0 fc ff ff 	mov    %rax,-0x360(%rbp)
    466e:	48 8d 85 70 f0 ff ff 	lea    -0xf90(%rbp),%rax
    4675:	48 89 85 a8 fc ff ff 	mov    %rax,-0x358(%rbp)
    467c:	48 8d 85 70 f0 ff ff 	lea    -0xf90(%rbp),%rax
    4683:	48 89 85 b0 fc ff ff 	mov    %rax,-0x350(%rbp)
    468a:	48 8d 85 70 f0 ff ff 	lea    -0xf90(%rbp),%rax
    4691:	48 89 85 b8 fc ff ff 	mov    %rax,-0x348(%rbp)
    4698:	48 8d 85 70 f0 ff ff 	lea    -0xf90(%rbp),%rax
    469f:	48 89 85 c0 fc ff ff 	mov    %rax,-0x340(%rbp)
    46a6:	48 8d 85 70 f0 ff ff 	lea    -0xf90(%rbp),%rax
    46ad:	48 89 85 c8 fc ff ff 	mov    %rax,-0x338(%rbp)
    46b4:	48 8d 85 70 f0 ff ff 	lea    -0xf90(%rbp),%rax
    46bb:	48 89 85 d0 fc ff ff 	mov    %rax,-0x330(%rbp)
    46c2:	48 8d 85 70 f0 ff ff 	lea    -0xf90(%rbp),%rax
    46c9:	48 89 85 d8 fc ff ff 	mov    %rax,-0x328(%rbp)
    46d0:	48 8d 85 70 f0 ff ff 	lea    -0xf90(%rbp),%rax
    46d7:	48 89 85 e0 fc ff ff 	mov    %rax,-0x320(%rbp)
    46de:	48 8d 85 70 f0 ff ff 	lea    -0xf90(%rbp),%rax
    46e5:	48 89 85 e8 fc ff ff 	mov    %rax,-0x318(%rbp)
    46ec:	48 8d 85 70 f0 ff ff 	lea    -0xf90(%rbp),%rax
    46f3:	48 89 85 f0 fc ff ff 	mov    %rax,-0x310(%rbp)
    46fa:	48 8d 85 70 f0 ff ff 	lea    -0xf90(%rbp),%rax
    4701:	48 89 85 f8 fc ff ff 	mov    %rax,-0x308(%rbp)
    4708:	48 8d 85 70 f0 ff ff 	lea    -0xf90(%rbp),%rax
    470f:	48 89 85 00 fd ff ff 	mov    %rax,-0x300(%rbp)
    4716:	48 8d 85 70 f0 ff ff 	lea    -0xf90(%rbp),%rax
    471d:	48 89 85 08 fd ff ff 	mov    %rax,-0x2f8(%rbp)
    4724:	48 8d 85 70 f0 ff ff 	lea    -0xf90(%rbp),%rax
    472b:	48 89 85 10 fd ff ff 	mov    %rax,-0x2f0(%rbp)
    4732:	48 8d 85 70 f0 ff ff 	lea    -0xf90(%rbp),%rax
    4739:	48 89 85 18 fd ff ff 	mov    %rax,-0x2e8(%rbp)
    4740:	48 8d 85 70 f0 ff ff 	lea    -0xf90(%rbp),%rax
    4747:	48 89 85 20 fd ff ff 	mov    %rax,-0x2e0(%rbp)
    474e:	48 8d 85 70 f0 ff ff 	lea    -0xf90(%rbp),%rax
    4755:	48 89 85 28 fd ff ff 	mov    %rax,-0x2d8(%rbp)
    475c:	48 8d 85 70 f0 ff ff 	lea    -0xf90(%rbp),%rax
    4763:	48 89 85 30 fd ff ff 	mov    %rax,-0x2d0(%rbp)
    476a:	48 8d 85 70 f0 ff ff 	lea    -0xf90(%rbp),%rax
    4771:	48 89 85 38 fd ff ff 	mov    %rax,-0x2c8(%rbp)
    4778:	48 8d 85 70 f0 ff ff 	lea    -0xf90(%rbp),%rax
    477f:	48 89 85 40 fd ff ff 	mov    %rax,-0x2c0(%rbp)
    4786:	48 8d 85 70 f0 ff ff 	lea    -0xf90(%rbp),%rax
    478d:	48 89 85 48 fd ff ff 	mov    %rax,-0x2b8(%rbp)
    4794:	48 8d 85 70 f0 ff ff 	lea    -0xf90(%rbp),%rax
    479b:	48 89 85 50 fd ff ff 	mov    %rax,-0x2b0(%rbp)
    47a2:	48 8d 85 70 f0 ff ff 	lea    -0xf90(%rbp),%rax
    47a9:	48 89 85 58 fd ff ff 	mov    %rax,-0x2a8(%rbp)
    47b0:	48 8d 85 70 f0 ff ff 	lea    -0xf90(%rbp),%rax
    47b7:	48 89 85 60 fd ff ff 	mov    %rax,-0x2a0(%rbp)
    47be:	48 8d 85 70 f0 ff ff 	lea    -0xf90(%rbp),%rax
    47c5:	48 89 85 68 fd ff ff 	mov    %rax,-0x298(%rbp)
    47cc:	48 8d 85 70 f0 ff ff 	lea    -0xf90(%rbp),%rax
    47d3:	48 89 85 70 fd ff ff 	mov    %rax,-0x290(%rbp)
    47da:	48 8d 85 70 f0 ff ff 	lea    -0xf90(%rbp),%rax
    47e1:	48 89 85 78 fd ff ff 	mov    %rax,-0x288(%rbp)
    47e8:	48 8d 85 70 f0 ff ff 	lea    -0xf90(%rbp),%rax
    47ef:	48 89 85 80 fd ff ff 	mov    %rax,-0x280(%rbp)
    47f6:	48 8d 85 70 f0 ff ff 	lea    -0xf90(%rbp),%rax
    47fd:	48 89 85 88 fd ff ff 	mov    %rax,-0x278(%rbp)
    4804:	48 8d 85 70 f0 ff ff 	lea    -0xf90(%rbp),%rax
    480b:	48 89 85 90 fd ff ff 	mov    %rax,-0x270(%rbp)
    4812:	48 8d 85 70 f0 ff ff 	lea    -0xf90(%rbp),%rax
    4819:	48 89 85 98 fd ff ff 	mov    %rax,-0x268(%rbp)
    4820:	48 8d 85 70 f0 ff ff 	lea    -0xf90(%rbp),%rax
    4827:	48 89 85 a0 fd ff ff 	mov    %rax,-0x260(%rbp)
    482e:	48 8d 85 70 f0 ff ff 	lea    -0xf90(%rbp),%rax
    4835:	48 89 85 a8 fd ff ff 	mov    %rax,-0x258(%rbp)
    483c:	48 8d 85 70 f0 ff ff 	lea    -0xf90(%rbp),%rax
    4843:	48 89 85 b0 fd ff ff 	mov    %rax,-0x250(%rbp)
    484a:	48 8d 85 70 f0 ff ff 	lea    -0xf90(%rbp),%rax
    4851:	48 89 85 b8 fd ff ff 	mov    %rax,-0x248(%rbp)
    4858:	48 8d 85 70 f0 ff ff 	lea    -0xf90(%rbp),%rax
    485f:	48 89 85 c0 fd ff ff 	mov    %rax,-0x240(%rbp)
    4866:	48 8d 85 70 f0 ff ff 	lea    -0xf90(%rbp),%rax
    486d:	48 89 85 c8 fd ff ff 	mov    %rax,-0x238(%rbp)
    4874:	48 c7 85 d0 fd ff ff 	movq   $0x0,-0x230(%rbp)
    487b:	00 00 00 00 
    487f:	48 8d 85 70 f0 ff ff 	lea    -0xf90(%rbp),%rax
    4886:	48 89 85 d8 fd ff ff 	mov    %rax,-0x228(%rbp)
    488d:	48 8d 05 44 32 01 00 	lea    0x13244(%rip),%rax        # 17ad8 <g_189>
    4894:	48 89 85 40 f2 ff ff 	mov    %rax,-0xdc0(%rbp)
    489b:	48 c7 85 20 f5 ff ff 	movq   $0xfffffffffffffff9,-0xae0(%rbp)
    48a2:	f9 ff ff ff 
    48a6:	48 c7 85 28 f5 ff ff 	movq   $0x2,-0xad8(%rbp)
    48ad:	02 00 00 00 
    48b1:	48 c7 85 30 f5 ff ff 	movq   $0xfffffffffffffff9,-0xad0(%rbp)
    48b8:	f9 ff ff ff 
    48bc:	48 c7 85 38 f5 ff ff 	movq   $0xfffffffffffffff9,-0xac8(%rbp)
    48c3:	f9 ff ff ff 
    48c7:	48 c7 85 40 f5 ff ff 	movq   $0x2,-0xac0(%rbp)
    48ce:	02 00 00 00 
    48d2:	48 c7 85 48 f5 ff ff 	movq   $0xfffffffffffffff9,-0xab8(%rbp)
    48d9:	f9 ff ff ff 
    48dd:	48 c7 85 50 f5 ff ff 	movq   $0xfffffffffffffff9,-0xab0(%rbp)
    48e4:	f9 ff ff ff 
    48e8:	48 c7 85 58 f5 ff ff 	movq   $0x2,-0xaa8(%rbp)
    48ef:	02 00 00 00 
    48f3:	c7 85 c8 ef ff ff f9 	movl   $0xfffffff9,-0x1038(%rbp)
    48fa:	ff ff ff 
    48fd:	48 c7 85 90 f0 ff ff 	movq   $0x0,-0xf70(%rbp)
    4904:	00 00 00 00 
    4908:	48 8d 85 d0 f6 ff ff 	lea    -0x930(%rbp),%rax
    490f:	48 8d 15 ea 2a 01 00 	lea    0x12aea(%rip),%rdx        # 17400 <g_1809+0x8>
    4916:	b9 2d 00 00 00       	mov    $0x2d,%ecx
    491b:	48 89 c7             	mov    %rax,%rdi
    491e:	48 89 d6             	mov    %rdx,%rsi
    4921:	f3 48 a5             	rep movsq %ds:(%rsi),%es:(%rdi)
    4924:	c7 85 cc ef ff ff 3d 	movl   $0xac1f2b3d,-0x1034(%rbp)
    492b:	2b 1f ac 
    492e:	c7 85 c0 f3 ff ff fe 	movl   $0xcaf995fe,-0xc40(%rbp)
    4935:	95 f9 ca 
    4938:	c7 85 c4 f3 ff ff fe 	movl   $0xcaf995fe,-0xc3c(%rbp)
    493f:	95 f9 ca 
    4942:	c7 85 c8 f3 ff ff fe 	movl   $0xcaf995fe,-0xc38(%rbp)
    4949:	95 f9 ca 
    494c:	c7 85 cc f3 ff ff fe 	movl   $0xcaf995fe,-0xc34(%rbp)
    4953:	95 f9 ca 
    4956:	c7 85 d0 f3 ff ff fe 	movl   $0xcaf995fe,-0xc30(%rbp)
    495d:	95 f9 ca 
    4960:	c7 85 d4 f3 ff ff fe 	movl   $0xcaf995fe,-0xc2c(%rbp)
    4967:	95 f9 ca 
    496a:	c7 85 d8 f3 ff ff fe 	movl   $0xcaf995fe,-0xc28(%rbp)
    4971:	95 f9 ca 
    4974:	48 b8 14 43 e2 f1 97 	movabs $0x609fe097f1e24314,%rax
    497b:	e0 9f 60 
    497e:	48 89 85 48 f2 ff ff 	mov    %rax,-0xdb8(%rbp)
    4985:	c7 85 d0 ef ff ff 00 	movl   $0x0,-0x1030(%rbp)
    498c:	00 00 00 
    498f:	c7 85 d4 ef ff ff d6 	movl   $0xba84b2d6,-0x102c(%rbp)
    4996:	b2 84 ba 
    4999:	c7 85 40 ef ff ff 00 	movl   $0x0,-0x10c0(%rbp)
    49a0:	00 00 00 
    49a3:	eb 47                	jmp    49ec <func_1+0x1237>
    49a5:	c7 85 44 ef ff ff 00 	movl   $0x0,-0x10bc(%rbp)
    49ac:	00 00 00 
    49af:	eb 2b                	jmp    49dc <func_1+0x1227>
    49b1:	8b 85 44 ef ff ff    	mov    -0x10bc(%rbp),%eax
    49b7:	48 98                	cltq   
    49b9:	8b 95 40 ef ff ff    	mov    -0x10c0(%rbp),%edx
    49bf:	48 63 d2             	movslq %edx,%rdx
    49c2:	48 c1 e2 02          	shl    $0x2,%rdx
    49c6:	48 01 d0             	add    %rdx,%rax
    49c9:	48 c7 84 c5 e0 f3 ff 	movq   $0x0,-0xc20(%rbp,%rax,8)
    49d0:	ff 00 00 00 00 
    49d5:	83 85 44 ef ff ff 01 	addl   $0x1,-0x10bc(%rbp)
    49dc:	83 bd 44 ef ff ff 03 	cmpl   $0x3,-0x10bc(%rbp)
    49e3:	7e cc                	jle    49b1 <func_1+0x11fc>
    49e5:	83 85 40 ef ff ff 01 	addl   $0x1,-0x10c0(%rbp)
    49ec:	83 bd 40 ef ff ff 00 	cmpl   $0x0,-0x10c0(%rbp)
    49f3:	7e b0                	jle    49a5 <func_1+0x11f0>
    49f5:	48 8b 05 d4 31 01 00 	mov    0x131d4(%rip),%rax        # 17bd0 <g_507>
    49fc:	48 c7 00 00 00 00 00 	movq   $0x0,(%rax)
    4a03:	8b 9d 54 ef ff ff    	mov    -0x10ac(%rbp),%ebx
    4a09:	48 8b 85 48 f0 ff ff 	mov    -0xfb8(%rbp),%rax
    4a10:	44 8b 20             	mov    (%rax),%r12d
    4a13:	48 8b 85 e8 f3 ff ff 	mov    -0xc18(%rbp),%rax
    4a1a:	48 85 c0             	test   %rax,%rax
    4a1d:	0f 94 c0             	sete   %al
    4a20:	0f b6 c0             	movzbl %al,%eax
    4a23:	48 be db c9 07 cd f5 	movabs $0x9cb98df5cd07c9db,%rsi
    4a2a:	8d b9 9c 
    4a2d:	48 89 c7             	mov    %rax,%rdi
    4a30:	e8 7a e6 ff ff       	callq  30af <safe_div_func_uint64_t_u_u>
    4a35:	48 83 f8 01          	cmp    $0x1,%rax
    4a39:	77 14                	ja     4a4f <func_1+0x129a>
    4a3b:	48 8b 85 48 f0 ff ff 	mov    -0xfb8(%rbp),%rax
    4a42:	8b 00                	mov    (%rax),%eax
    4a44:	85 c0                	test   %eax,%eax
    4a46:	74 07                	je     4a4f <func_1+0x129a>
    4a48:	ba 01 00 00 00       	mov    $0x1,%edx
    4a4d:	eb 05                	jmp    4a54 <func_1+0x129f>
    4a4f:	ba 00 00 00 00       	mov    $0x0,%edx
    4a54:	48 8b 85 38 f2 ff ff 	mov    -0xdc8(%rbp),%rax
    4a5b:	0f b7 00             	movzwl (%rax),%eax
    4a5e:	31 c2                	xor    %eax,%edx
    4a60:	48 8b 85 38 f2 ff ff 	mov    -0xdc8(%rbp),%rax
    4a67:	66 89 10             	mov    %dx,(%rax)
    4a6a:	b8 01 00 00 00       	mov    $0x1,%eax
    4a6f:	44 39 e0             	cmp    %r12d,%eax
    4a72:	0f 94 c0             	sete   %al
    4a75:	0f b6 c0             	movzbl %al,%eax
    4a78:	89 c7                	mov    %eax,%edi
    4a7a:	e8 c6 e0 ff ff       	callq  2b45 <safe_unary_minus_func_uint8_t_u>
    4a7f:	0f b6 d0             	movzbl %al,%edx
    4a82:	48 8b 05 a7 25 01 00 	mov    0x125a7(%rip),%rax        # 17030 <g_67>
    4a89:	48 31 d0             	xor    %rdx,%rax
    4a8c:	48 89 05 9d 25 01 00 	mov    %rax,0x1259d(%rip)        # 17030 <g_67>
    4a93:	48 8b 05 96 25 01 00 	mov    0x12596(%rip),%rax        # 17030 <g_67>
    4a9a:	48 85 c0             	test   %rax,%rax
    4a9d:	74 0b                	je     4aaa <func_1+0x12f5>
    4a9f:	48 8b 85 48 f0 ff ff 	mov    -0xfb8(%rbp),%rax
    4aa6:	8b 00                	mov    (%rax),%eax
    4aa8:	85 c0                	test   %eax,%eax
    4aaa:	be 05 00 00 00       	mov    $0x5,%esi
    4aaf:	bf 01 00 00 00       	mov    $0x1,%edi
    4ab4:	e8 93 e1 ff ff       	callq  2c4c <safe_lshift_func_uint8_t_u_u>
    4ab9:	0f b6 d0             	movzbl %al,%edx
    4abc:	48 8b 85 48 f0 ff ff 	mov    -0xfb8(%rbp),%rax
    4ac3:	8b 00                	mov    (%rax),%eax
    4ac5:	39 c2                	cmp    %eax,%edx
    4ac7:	0f 9c c0             	setl   %al
    4aca:	0f b6 c0             	movzbl %al,%eax
    4acd:	be 75 e2 7d f6       	mov    $0xf67de275,%esi
    4ad2:	89 c7                	mov    %eax,%edi
    4ad4:	e8 dd da ff ff       	callq  25b6 <safe_add_func_int32_t_s_s>
    4ad9:	48 8b 85 48 f0 ff ff 	mov    -0xfb8(%rbp),%rax
    4ae0:	8b 00                	mov    (%rax),%eax
    4ae2:	0f b6 c0             	movzbl %al,%eax
    4ae5:	89 de                	mov    %ebx,%esi
    4ae7:	89 c7                	mov    %eax,%edi
    4ae9:	e8 17 e1 ff ff       	callq  2c05 <safe_lshift_func_uint8_t_u_s>
    4aee:	48 8b 85 48 f0 ff ff 	mov    -0xfb8(%rbp),%rax
    4af5:	8b 00                	mov    (%rax),%eax
    4af7:	85 c0                	test   %eax,%eax
    4af9:	8b 85 70 f0 ff ff    	mov    -0xf90(%rbp),%eax
    4aff:	85 c0                	test   %eax,%eax
    4b01:	0f 84 94 14 00 00    	je     5f9b <func_1+0x27e6>
    4b07:	c7 85 fc ef ff ff 05 	movl   $0x712f4505,-0x1004(%rbp)
    4b0e:	45 2f 71 
    4b11:	48 8d 05 58 31 01 00 	lea    0x13158(%rip),%rax        # 17c70 <g_737>
    4b18:	48 89 85 78 f2 ff ff 	mov    %rax,-0xd88(%rbp)
    4b1f:	48 b8 e3 fb db 58 b1 	movabs $0xc4b18b158dbfbe3,%rax
    4b26:	18 4b 0c 
    4b29:	48 89 85 80 f2 ff ff 	mov    %rax,-0xd80(%rbp)
    4b30:	c7 85 00 f0 ff ff fd 	movl   $0xfffffffd,-0x1000(%rbp)
    4b37:	ff ff ff 
    4b3a:	c7 85 60 f3 ff ff 72 	movl   $0x2025d772,-0xca0(%rbp)
    4b41:	d7 25 20 
    4b44:	c7 85 64 f3 ff ff 72 	movl   $0x2025d772,-0xc9c(%rbp)
    4b4b:	d7 25 20 
    4b4e:	c7 85 68 f3 ff ff 72 	movl   $0x2025d772,-0xc98(%rbp)
    4b55:	d7 25 20 
    4b58:	c7 85 6c f3 ff ff 72 	movl   $0x2025d772,-0xc94(%rbp)
    4b5f:	d7 25 20 
    4b62:	c7 85 70 f3 ff ff 72 	movl   $0x2025d772,-0xc90(%rbp)
    4b69:	d7 25 20 
    4b6c:	66 c7 85 40 f3 ff ff 	movw   $0x2437,-0xcc0(%rbp)
    4b73:	37 24 
    4b75:	66 c7 85 42 f3 ff ff 	movw   $0x2437,-0xcbe(%rbp)
    4b7c:	37 24 
    4b7e:	66 c7 85 44 f3 ff ff 	movw   $0x1,-0xcbc(%rbp)
    4b85:	01 00 
    4b87:	66 c7 85 46 f3 ff ff 	movw   $0x2437,-0xcba(%rbp)
    4b8e:	37 24 
    4b90:	66 c7 85 48 f3 ff ff 	movw   $0x2437,-0xcb8(%rbp)
    4b97:	37 24 
    4b99:	66 c7 85 4a f3 ff ff 	movw   $0x1,-0xcb6(%rbp)
    4ba0:	01 00 
    4ba2:	66 c7 85 4c f3 ff ff 	movw   $0x2437,-0xcb4(%rbp)
    4ba9:	37 24 
    4bab:	66 c7 85 4e f3 ff ff 	movw   $0x2437,-0xcb2(%rbp)
    4bb2:	37 24 
    4bb4:	66 c7 85 50 f3 ff ff 	movw   $0x1,-0xcb0(%rbp)
    4bbb:	01 00 
    4bbd:	48 c7 85 88 f2 ff ff 	movq   $0x0,-0xd78(%rbp)
    4bc4:	00 00 00 00 
    4bc8:	48 8d 05 f1 2e 01 00 	lea    0x12ef1(%rip),%rax        # 17ac0 <g_106>
    4bcf:	48 89 85 90 f2 ff ff 	mov    %rax,-0xd70(%rbp)
    4bd6:	48 c7 85 98 f2 ff ff 	movq   $0x1,-0xd68(%rbp)
    4bdd:	01 00 00 00 
    4be1:	8b 85 70 f0 ff ff    	mov    -0xf90(%rbp),%eax
    4be7:	85 c0                	test   %eax,%eax
    4be9:	75 0d                	jne    4bf8 <func_1+0x1443>
    4beb:	48 8b 85 48 f0 ff ff 	mov    -0xfb8(%rbp),%rax
    4bf2:	8b 00                	mov    (%rax),%eax
    4bf4:	85 c0                	test   %eax,%eax
    4bf6:	74 07                	je     4bff <func_1+0x144a>
    4bf8:	bb 01 00 00 00       	mov    $0x1,%ebx
    4bfd:	eb 05                	jmp    4c04 <func_1+0x144f>
    4bff:	bb 00 00 00 00       	mov    $0x0,%ebx
    4c04:	8b 85 70 f0 ff ff    	mov    -0xf90(%rbp),%eax
    4c0a:	0f be c0             	movsbl %al,%eax
    4c0d:	89 c6                	mov    %eax,%esi
    4c0f:	bf 01 00 00 00       	mov    $0x1,%edi
    4c14:	e8 18 d6 ff ff       	callq  2231 <safe_mod_func_int8_t_s_s>
    4c19:	66 98                	cbtw   
    4c1b:	0f b7 d0             	movzwl %ax,%edx
    4c1e:	0f b6 05 43 24 01 00 	movzbl 0x12443(%rip),%eax        # 17068 <g_195>
    4c25:	0f b6 05 10 24 01 00 	movzbl 0x12410(%rip),%eax        # 1703c <g_107>
    4c2c:	66 98                	cbtw   
    4c2e:	8b 8d fc ef ff ff    	mov    -0x1004(%rbp),%ecx
    4c34:	31 c8                	xor    %ecx,%eax
    4c36:	0f b7 c0             	movzwl %ax,%eax
    4c39:	89 d6                	mov    %edx,%esi
    4c3b:	89 c7                	mov    %eax,%edi
    4c3d:	e8 bd e0 ff ff       	callq  2cff <safe_add_func_uint16_t_u_u>
    4c42:	0f be c0             	movsbl %al,%eax
    4c45:	89 de                	mov    %ebx,%esi
    4c47:	89 c7                	mov    %eax,%edi
    4c49:	e8 e7 d6 ff ff       	callq  2335 <safe_rshift_func_int8_t_s_s>
    4c4e:	3c 05                	cmp    $0x5,%al
    4c50:	83 bd fc ef ff ff 00 	cmpl   $0x0,-0x1004(%rbp)
    4c57:	74 11                	je     4c6a <func_1+0x14b5>
    4c59:	8b 85 70 f0 ff ff    	mov    -0xf90(%rbp),%eax
    4c5f:	85 c0                	test   %eax,%eax
    4c61:	74 07                	je     4c6a <func_1+0x14b5>
    4c63:	ba 01 00 00 00       	mov    $0x1,%edx
    4c68:	eb 05                	jmp    4c6f <func_1+0x14ba>
    4c6a:	ba 00 00 00 00       	mov    $0x0,%edx
    4c6f:	48 8b 05 ea 2f 01 00 	mov    0x12fea(%rip),%rax        # 17c60 <g_724>
    4c76:	89 10                	mov    %edx,(%rax)
    4c78:	c7 85 54 ef ff ff 00 	movl   $0x0,-0x10ac(%rbp)
    4c7f:	00 00 00 
    4c82:	e9 67 05 00 00       	jmpq   51ee <func_1+0x1a39>
    4c87:	c6 85 91 ee ff ff 00 	movb   $0x0,-0x116f(%rbp)
    4c8e:	c7 85 04 f0 ff ff f6 	movl   $0xfffffff6,-0xffc(%rbp)
    4c95:	ff ff ff 
    4c98:	48 8b 85 88 f0 ff ff 	mov    -0xf78(%rbp),%rax
    4c9f:	48 8b 15 4a 31 01 00 	mov    0x1314a(%rip),%rdx        # 17df0 <g_1105>
    4ca6:	48 8d 15 13 2e 01 00 	lea    0x12e13(%rip),%rdx        # 17ac0 <g_106>
    4cad:	48 89 c6             	mov    %rax,%rsi
    4cb0:	bf 01 00 00 00       	mov    $0x1,%edi
    4cb5:	e8 d5 80 00 00       	callq  cd8f <func_70>
    4cba:	48 89 85 e0 fa ff ff 	mov    %rax,-0x520(%rbp)
    4cc1:	c6 05 74 23 01 00 00 	movb   $0x0,0x12374(%rip)        # 1703c <g_107>
    4cc8:	90                   	nop
    4cc9:	0f b6 05 6c 23 01 00 	movzbl 0x1236c(%rip),%eax        # 1703c <g_107>
    4cd0:	84 c0                	test   %al,%al
    4cd2:	78 77                	js     4d4b <func_1+0x1596>
    4cd4:	48 c7 05 a9 25 01 00 	movq   $0x0,0x125a9(%rip)        # 17288 <g_572>
    4cdb:	00 00 00 00 
    4cdf:	90                   	nop
    4ce0:	48 8b 05 a1 25 01 00 	mov    0x125a1(%rip),%rax        # 17288 <g_572>
    4ce7:	48 85 c0             	test   %rax,%rax
    4cea:	75 4a                	jne    4d36 <func_1+0x1581>
    4cec:	0f b6 05 49 23 01 00 	movzbl 0x12349(%rip),%eax        # 1703c <g_107>
    4cf3:	0f be c0             	movsbl %al,%eax
    4cf6:	8d 48 05             	lea    0x5(%rax),%ecx
    4cf9:	0f b6 05 3c 23 01 00 	movzbl 0x1233c(%rip),%eax        # 1703c <g_107>
    4d00:	0f be c0             	movsbl %al,%eax
    4d03:	8b 95 54 ef ff ff    	mov    -0x10ac(%rbp),%edx
    4d09:	83 c2 06             	add    $0x6,%edx
    4d0c:	89 d6                	mov    %edx,%esi
    4d0e:	48 63 d1             	movslq %ecx,%rdx
    4d11:	48 98                	cltq   
    4d13:	48 01 c2             	add    %rax,%rdx
    4d16:	48 89 d0             	mov    %rdx,%rax
    4d19:	48 c1 e0 03          	shl    $0x3,%rax
    4d1d:	48 29 d0             	sub    %rdx,%rax
    4d20:	48 8d 14 30          	lea    (%rax,%rsi,1),%rdx
    4d24:	48 8d 05 15 26 01 00 	lea    0x12615(%rip),%rax        # 17340 <g_982>
    4d2b:	48 01 d0             	add    %rdx,%rax
    4d2e:	0f b6 00             	movzbl (%rax),%eax
    4d31:	e9 a2 42 00 00       	jmpq   8fd8 <func_1+0x5823>
    4d36:	48 8b 05 9b 2f 01 00 	mov    0x12f9b(%rip),%rax        # 17cd8 <g_979>
    4d3d:	48 8b 00             	mov    (%rax),%rax
    4d40:	48 8b 00             	mov    (%rax),%rax
    4d43:	0f b6 00             	movzbl (%rax),%eax
    4d46:	e9 8d 42 00 00       	jmpq   8fd8 <func_1+0x5823>
    4d4b:	0f b6 85 91 ee ff ff 	movzbl -0x116f(%rbp),%eax
    4d52:	09 85 04 f0 ff ff    	or     %eax,-0xffc(%rbp)
    4d58:	48 8b 85 48 f0 ff ff 	mov    -0xfb8(%rbp),%rax
    4d5f:	44 8b 28             	mov    (%rax),%r13d
    4d62:	0f b6 9d 91 ee ff ff 	movzbl -0x116f(%rbp),%ebx
    4d69:	44 8b a5 fc ef ff ff 	mov    -0x1004(%rbp),%r12d
    4d70:	b8 00 00 00 00       	mov    $0x0,%eax
    4d75:	0f be c0             	movsbl %al,%eax
    4d78:	be 07 00 00 00       	mov    $0x7,%esi
    4d7d:	89 c7                	mov    %eax,%edi
    4d7f:	e8 ad d4 ff ff       	callq  2231 <safe_mod_func_int8_t_s_s>
    4d84:	66 0f be d0          	movsbw %al,%dx
    4d88:	48 8b 85 38 f2 ff ff 	mov    -0xdc8(%rbp),%rax
    4d8f:	66 89 10             	mov    %dx,(%rax)
    4d92:	48 8b 85 38 f2 ff ff 	mov    -0xdc8(%rbp),%rax
    4d99:	0f b7 00             	movzwl (%rax),%eax
    4d9c:	98                   	cwtl   
    4d9d:	44 89 e6             	mov    %r12d,%esi
    4da0:	89 c7                	mov    %eax,%edi
    4da2:	e8 bc d7 ff ff       	callq  2563 <safe_rshift_func_int16_t_s_u>
    4da7:	48 0f bf d0          	movswq %ax,%rdx
    4dab:	48 8b 05 0e 23 01 00 	mov    0x1230e(%rip),%rax        # 170c0 <g_299>
    4db2:	48 39 c2             	cmp    %rax,%rdx
    4db5:	0f 9d c0             	setge  %al
    4db8:	0f b6 c0             	movzbl %al,%eax
    4dbb:	39 85 04 f0 ff ff    	cmp    %eax,-0xffc(%rbp)
    4dc1:	7c 09                	jl     4dcc <func_1+0x1617>
    4dc3:	80 bd 91 ee ff ff 00 	cmpb   $0x0,-0x116f(%rbp)
    4dca:	74 07                	je     4dd3 <func_1+0x161e>
    4dcc:	b8 01 00 00 00       	mov    $0x1,%eax
    4dd1:	eb 05                	jmp    4dd8 <func_1+0x1623>
    4dd3:	b8 00 00 00 00       	mov    $0x0,%eax
    4dd8:	98                   	cwtl   
    4dd9:	be 01 00 00 00       	mov    $0x1,%esi
    4dde:	89 c7                	mov    %eax,%edi
    4de0:	e8 fc d6 ff ff       	callq  24e1 <safe_lshift_func_int16_t_s_u>
    4de5:	98                   	cwtl   
    4de6:	89 de                	mov    %ebx,%esi
    4de8:	89 c7                	mov    %eax,%edi
    4dea:	e8 c4 d5 ff ff       	callq  23b3 <safe_add_func_int16_t_s_s>
    4def:	0f bf d0             	movswl %ax,%edx
    4df2:	8b 05 54 22 01 00    	mov    0x12254(%rip),%eax        # 1704c <g_182+0xc>
    4df8:	39 c2                	cmp    %eax,%edx
    4dfa:	0f 9e c0             	setle  %al
    4dfd:	0f b6 d0             	movzbl %al,%edx
    4e00:	48 8b 05 59 2e 01 00 	mov    0x12e59(%rip),%rax        # 17c60 <g_724>
    4e07:	44 31 ea             	xor    %r13d,%edx
    4e0a:	89 10                	mov    %edx,(%rax)
    4e0c:	48 8b 05 3d 2e 01 00 	mov    0x12e3d(%rip),%rax        # 17c50 <g_679>
    4e13:	48 8b 00             	mov    (%rax),%rax
    4e16:	8b 00                	mov    (%rax),%eax
    4e18:	85 c0                	test   %eax,%eax
    4e1a:	0f 85 dd 03 00 00    	jne    51fd <func_1+0x1a48>
    4e20:	66 c7 05 9f 22 01 00 	movw   $0x0,0x1229f(%rip)        # 170c8 <g_307>
    4e27:	00 00 
    4e29:	90                   	nop
    4e2a:	0f b7 05 97 22 01 00 	movzwl 0x12297(%rip),%eax        # 170c8 <g_307>
    4e31:	66 85 c0             	test   %ax,%ax
    4e34:	0f 85 ad 03 00 00    	jne    51e7 <func_1+0x1a32>
    4e3a:	48 c7 85 a0 f0 ff ff 	movq   $0x0,-0xf60(%rbp)
    4e41:	00 00 00 00 
    4e45:	48 8d 85 a0 f0 ff ff 	lea    -0xf60(%rbp),%rax
    4e4c:	48 89 85 a0 f2 ff ff 	mov    %rax,-0xd60(%rbp)
    4e53:	c7 85 d0 f5 ff ff 01 	movl   $0x1,-0xa30(%rbp)
    4e5a:	00 00 00 
    4e5d:	c7 85 d4 f5 ff ff 01 	movl   $0x1,-0xa2c(%rbp)
    4e64:	00 00 00 
    4e67:	c7 85 d8 f5 ff ff 01 	movl   $0x1,-0xa28(%rbp)
    4e6e:	00 00 00 
    4e71:	c7 85 dc f5 ff ff 01 	movl   $0x1,-0xa24(%rbp)
    4e78:	00 00 00 
    4e7b:	c7 85 e0 f5 ff ff 01 	movl   $0x1,-0xa20(%rbp)
    4e82:	00 00 00 
    4e85:	c7 85 e4 f5 ff ff 01 	movl   $0x1,-0xa1c(%rbp)
    4e8c:	00 00 00 
    4e8f:	c7 85 e8 f5 ff ff 01 	movl   $0x1,-0xa18(%rbp)
    4e96:	00 00 00 
    4e99:	c7 85 ec f5 ff ff 01 	movl   $0x1,-0xa14(%rbp)
    4ea0:	00 00 00 
    4ea3:	c7 85 f0 f5 ff ff 01 	movl   $0x1,-0xa10(%rbp)
    4eaa:	00 00 00 
    4ead:	c7 85 f4 f5 ff ff 01 	movl   $0x1,-0xa0c(%rbp)
    4eb4:	00 00 00 
    4eb7:	c7 85 f8 f5 ff ff 01 	movl   $0x1,-0xa08(%rbp)
    4ebe:	00 00 00 
    4ec1:	c7 85 fc f5 ff ff 01 	movl   $0x1,-0xa04(%rbp)
    4ec8:	00 00 00 
    4ecb:	c7 85 00 f6 ff ff 01 	movl   $0x1,-0xa00(%rbp)
    4ed2:	00 00 00 
    4ed5:	c7 85 04 f6 ff ff 01 	movl   $0x1,-0x9fc(%rbp)
    4edc:	00 00 00 
    4edf:	c7 85 08 f6 ff ff 01 	movl   $0x1,-0x9f8(%rbp)
    4ee6:	00 00 00 
    4ee9:	c7 85 0c f6 ff ff 01 	movl   $0x1,-0x9f4(%rbp)
    4ef0:	00 00 00 
    4ef3:	c7 85 10 f6 ff ff 01 	movl   $0x1,-0x9f0(%rbp)
    4efa:	00 00 00 
    4efd:	c7 85 14 f6 ff ff 01 	movl   $0x1,-0x9ec(%rbp)
    4f04:	00 00 00 
    4f07:	c6 05 2e 21 01 00 00 	movb   $0x0,0x1212e(%rip)        # 1703c <g_107>
    4f0e:	90                   	nop
    4f0f:	0f b6 05 26 21 01 00 	movzbl 0x12126(%rip),%eax        # 1703c <g_107>
    4f16:	84 c0                	test   %al,%al
    4f18:	0f 8f 18 01 00 00    	jg     5036 <func_1+0x1881>
    4f1e:	48 8d 85 88 f0 ff ff 	lea    -0xf78(%rbp),%rax
    4f25:	48 89 85 b0 f2 ff ff 	mov    %rax,-0xd50(%rbp)
    4f2c:	c7 85 0c f0 ff ff b0 	movl   $0xaa8789b0,-0xff4(%rbp)
    4f33:	89 87 aa 
    4f36:	c7 85 48 ef ff ff 00 	movl   $0x0,-0x10b8(%rbp)
    4f3d:	00 00 00 
    4f40:	eb 1e                	jmp    4f60 <func_1+0x17ab>
    4f42:	8b 85 48 ef ff ff    	mov    -0x10b8(%rbp),%eax
    4f48:	48 98                	cltq   
    4f4a:	48 8d 15 7f 2b 01 00 	lea    0x12b7f(%rip),%rdx        # 17ad0 <g_190>
    4f51:	48 89 94 c5 60 f5 ff 	mov    %rdx,-0xaa0(%rbp,%rax,8)
    4f58:	ff 
    4f59:	83 85 48 ef ff ff 01 	addl   $0x1,-0x10b8(%rbp)
    4f60:	83 bd 48 ef ff ff 04 	cmpl   $0x4,-0x10b8(%rbp)
    4f67:	7e d9                	jle    4f42 <func_1+0x178d>
    4f69:	48 8b 85 48 f0 ff ff 	mov    -0xfb8(%rbp),%rax
    4f70:	8b 18                	mov    (%rax),%ebx
    4f72:	48 8b 85 80 f5 ff ff 	mov    -0xa80(%rbp),%rax
    4f79:	48 85 c0             	test   %rax,%rax
    4f7c:	0f 94 c0             	sete   %al
    4f7f:	44 0f b6 e0          	movzbl %al,%r12d
    4f83:	48 8b 85 b0 f2 ff ff 	mov    -0xd50(%rbp),%rax
    4f8a:	48 8d 15 2f 2b 01 00 	lea    0x12b2f(%rip),%rdx        # 17ac0 <g_106>
    4f91:	48 89 10             	mov    %rdx,(%rax)
    4f94:	48 8b 85 b0 f2 ff ff 	mov    -0xd50(%rbp),%rax
    4f9b:	48 8b 10             	mov    (%rax),%rdx
    4f9e:	48 8d 85 38 f0 ff ff 	lea    -0xfc8(%rbp),%rax
    4fa5:	48 39 c2             	cmp    %rax,%rdx
    4fa8:	0f 94 c0             	sete   %al
    4fab:	0f b6 c0             	movzbl %al,%eax
    4fae:	39 85 fc ef ff ff    	cmp    %eax,-0x1004(%rbp)
    4fb4:	0f 9c c0             	setl   %al
    4fb7:	0f b6 c0             	movzbl %al,%eax
    4fba:	be 00 00 00 00       	mov    $0x0,%esi
    4fbf:	89 c7                	mov    %eax,%edi
    4fc1:	e8 db d2 ff ff       	callq  22a1 <safe_lshift_func_int8_t_s_s>
    4fc6:	0f be c0             	movsbl %al,%eax
    4fc9:	89 c6                	mov    %eax,%esi
    4fcb:	bf 4a 00 00 00       	mov    $0x4a,%edi
    4fd0:	e8 30 dc ff ff       	callq  2c05 <safe_lshift_func_uint8_t_u_s>
    4fd5:	0f b6 c0             	movzbl %al,%eax
    4fd8:	41 39 c4             	cmp    %eax,%r12d
    4fdb:	0f 9f c0             	setg   %al
    4fde:	0f b6 c0             	movzbl %al,%eax
    4fe1:	89 c6                	mov    %eax,%esi
    4fe3:	bf f9 ff ff ff       	mov    $0xfffffff9,%edi
    4fe8:	e8 e6 d3 ff ff       	callq  23d3 <safe_sub_func_int16_t_s_s>
    4fed:	98                   	cwtl   
    4fee:	be 95 fb ff ff       	mov    $0xfffffb95,%esi
    4ff3:	89 c7                	mov    %eax,%edi
    4ff5:	e8 b9 d3 ff ff       	callq  23b3 <safe_add_func_int16_t_s_s>
    4ffa:	0f b7 15 73 20 01 00 	movzwl 0x12073(%rip),%edx        # 17074 <g_254>
    5001:	66 39 d0             	cmp    %dx,%ax
    5004:	0f 9f c0             	setg   %al
    5007:	0f b6 c0             	movzbl %al,%eax
    500a:	39 c3                	cmp    %eax,%ebx
    500c:	0f 95 c0             	setne  %al
    500f:	0f b6 c0             	movzbl %al,%eax
    5012:	39 85 0c f0 ff ff    	cmp    %eax,-0xff4(%rbp)
    5018:	0f 95 c2             	setne  %dl
    501b:	48 8b 85 48 f0 ff ff 	mov    -0xfb8(%rbp),%rax
    5022:	0f b6 d2             	movzbl %dl,%edx
    5025:	89 10                	mov    %edx,(%rax)
    5027:	48 8d 05 1d 23 01 00 	lea    0x1231d(%rip),%rax        # 1734b <g_982+0xb>
    502e:	0f b6 00             	movzbl (%rax),%eax
    5031:	e9 a2 3f 00 00       	jmpq   8fd8 <func_1+0x5823>
    5036:	48 8b 05 6b 2b 01 00 	mov    0x12b6b(%rip),%rax        # 17ba8 <g_289>
    503d:	8b 00                	mov    (%rax),%eax
    503f:	85 c0                	test   %eax,%eax
    5041:	0f 85 9f 01 00 00    	jne    51e6 <func_1+0x1a31>
    5047:	0f b6 05 92 e0 00 00 	movzbl 0xe092(%rip),%eax        # 130e0 <g_1227>
    504e:	0f b6 c0             	movzbl %al,%eax
    5051:	8b 8d e0 f5 ff ff    	mov    -0xa20(%rbp),%ecx
    5057:	48 83 bd 40 f2 ff ff 	cmpq   $0x0,-0xdc0(%rbp)
    505e:	00 
    505f:	0f 94 c2             	sete   %dl
    5062:	0f b6 d2             	movzbl %dl,%edx
    5065:	09 ca                	or     %ecx,%edx
    5067:	89 c6                	mov    %eax,%esi
    5069:	89 d7                	mov    %edx,%edi
    506b:	e8 95 d5 ff ff       	callq  2605 <safe_sub_func_int32_t_s_s>
    5070:	85 c0                	test   %eax,%eax
    5072:	74 3a                	je     50ae <func_1+0x18f9>
    5074:	48 b8 55 38 ea d0 5a 	movabs $0x4beaa65ad0ea3855,%rax
    507b:	a6 ea 4b 
    507e:	48 89 85 a8 f2 ff ff 	mov    %rax,-0xd58(%rbp)
    5085:	be 00 00 00 00       	mov    $0x0,%esi
    508a:	bf d9 db 00 00       	mov    $0xdbd9,%edi
    508f:	e8 8b dc ff ff       	callq  2d1f <safe_sub_func_uint16_t_u_u>
    5094:	89 c2                	mov    %eax,%edx
    5096:	48 8b 05 13 2b 01 00 	mov    0x12b13(%rip),%rax        # 17bb0 <g_385>
    509d:	0f b7 d2             	movzwl %dx,%edx
    50a0:	89 10                	mov    %edx,(%rax)
    50a2:	48 8b 85 a8 f2 ff ff 	mov    -0xd58(%rbp),%rax
    50a9:	e9 2a 3f 00 00       	jmpq   8fd8 <func_1+0x5823>
    50ae:	66 c7 85 a6 ee ff ff 	movw   $0xfff8,-0x115a(%rbp)
    50b5:	f8 ff 
    50b7:	c6 85 92 ee ff ff 01 	movb   $0x1,-0x116e(%rbp)
    50be:	c7 85 08 f0 ff ff 00 	movl   $0x0,-0xff8(%rbp)
    50c5:	00 00 00 
    50c8:	48 8b 95 48 f0 ff ff 	mov    -0xfb8(%rbp),%rdx
    50cf:	48 8b 05 da 2a 01 00 	mov    0x12ada(%rip),%rax        # 17bb0 <g_385>
    50d6:	8b 12                	mov    (%rdx),%edx
    50d8:	89 10                	mov    %edx,(%rax)
    50da:	0f b6 05 5b 1f 01 00 	movzbl 0x11f5b(%rip),%eax        # 1703c <g_107>
    50e1:	84 c0                	test   %al,%al
    50e3:	74 05                	je     50ea <func_1+0x1935>
    50e5:	e9 f7 fa ff ff       	jmpq   4be1 <func_1+0x142c>
    50ea:	0f b7 9d a6 ee ff ff 	movzwl -0x115a(%rbp),%ebx
    50f1:	48 83 bd d0 f0 ff ff 	cmpq   $0x0,-0xf30(%rbp)
    50f8:	00 
    50f9:	0f 95 c0             	setne  %al
    50fc:	0f b6 d0             	movzbl %al,%edx
    50ff:	48 8d 05 37 1f 01 00 	lea    0x11f37(%rip),%rax        # 1703d <g_124>
    5106:	48 89 05 13 2b 01 00 	mov    %rax,0x12b13(%rip)        # 17c20 <g_605+0x20>
    510d:	48 8b 05 0c 2b 01 00 	mov    0x12b0c(%rip),%rax        # 17c20 <g_605+0x20>
    5114:	48 8d 0d 22 1f 01 00 	lea    0x11f22(%rip),%rcx        # 1703d <g_124>
    511b:	48 39 c8             	cmp    %rcx,%rax
    511e:	0f 95 c0             	setne  %al
    5121:	0f b6 c0             	movzbl %al,%eax
    5124:	89 d6                	mov    %edx,%esi
    5126:	89 c7                	mov    %eax,%edi
    5128:	e8 66 da ff ff       	callq  2b93 <safe_mul_func_uint8_t_u_u>
    512d:	0f b6 d0             	movzbl %al,%edx
    5130:	48 8b 85 d0 f0 ff ff 	mov    -0xf30(%rbp),%rax
    5137:	48 89 10             	mov    %rdx,(%rax)
    513a:	48 8b 85 d0 f0 ff ff 	mov    -0xf30(%rbp),%rax
    5141:	48 8b 00             	mov    (%rax),%rax
    5144:	48 89 de             	mov    %rbx,%rsi
    5147:	48 89 c7             	mov    %rax,%rdi
    514a:	e8 fc de ff ff       	callq  304b <safe_sub_func_uint64_t_u_u>
    514f:	48 89 c3             	mov    %rax,%rbx
    5152:	0f b6 05 0f 1f 01 00 	movzbl 0x11f0f(%rip),%eax        # 17068 <g_195>
    5159:	44 0f b6 e0          	movzbl %al,%r12d
    515d:	b8 5e d4 46 45       	mov    $0x4546d45e,%eax
    5162:	48 63 d0             	movslq %eax,%rdx
    5165:	48 8b 05 34 22 01 00 	mov    0x12234(%rip),%rax        # 173a0 <g_1148>
    516c:	48 39 c2             	cmp    %rax,%rdx
    516f:	0f 94 c0             	sete   %al
    5172:	0f b6 c0             	movzbl %al,%eax
    5175:	89 c6                	mov    %eax,%esi
    5177:	bf 24 f4 00 00       	mov    $0xf424,%edi
    517c:	e8 7e db ff ff       	callq  2cff <safe_add_func_uint16_t_u_u>
    5181:	66 41 39 c4          	cmp    %ax,%r12w
    5185:	0f 94 c0             	sete   %al
    5188:	0f b6 d0             	movzbl %al,%edx
    518b:	0f b6 85 92 ee ff ff 	movzbl -0x116e(%rbp),%eax
    5192:	48 89 d6             	mov    %rdx,%rsi
    5195:	48 89 c7             	mov    %rax,%rdi
    5198:	e8 91 de ff ff       	callq  302e <safe_add_func_uint64_t_u_u>
    519d:	48 85 c0             	test   %rax,%rax
    51a0:	75 0a                	jne    51ac <func_1+0x19f7>
    51a2:	8b 85 08 f6 ff ff    	mov    -0x9f8(%rbp),%eax
    51a8:	85 c0                	test   %eax,%eax
    51aa:	74 07                	je     51b3 <func_1+0x19fe>
    51ac:	b8 01 00 00 00       	mov    $0x1,%eax
    51b1:	eb 05                	jmp    51b8 <func_1+0x1a03>
    51b3:	b8 00 00 00 00       	mov    $0x0,%eax
    51b8:	89 85 08 f0 ff ff    	mov    %eax,-0xff8(%rbp)
    51be:	8b 85 08 f0 ff ff    	mov    -0xff8(%rbp),%eax
    51c4:	48 98                	cltq   
    51c6:	48 39 c3             	cmp    %rax,%rbx
    51c9:	0f 97 c2             	seta   %dl
    51cc:	48 8b 05 dd 29 01 00 	mov    0x129dd(%rip),%rax        # 17bb0 <g_385>
    51d3:	0f b6 d2             	movzbl %dl,%edx
    51d6:	89 10                	mov    %edx,(%rax)
    51d8:	48 8b 85 48 f0 ff ff 	mov    -0xfb8(%rbp),%rax
    51df:	8b 00                	mov    (%rax),%eax
    51e1:	e9 f2 3d 00 00       	jmpq   8fd8 <func_1+0x5823>
    51e6:	90                   	nop
    51e7:	83 85 54 ef ff ff 01 	addl   $0x1,-0x10ac(%rbp)
    51ee:	83 bd 54 ef ff ff 00 	cmpl   $0x0,-0x10ac(%rbp)
    51f5:	0f 84 8c fa ff ff    	je     4c87 <func_1+0x14d2>
    51fb:	eb 01                	jmp    51fe <func_1+0x1a49>
    51fd:	90                   	nop
    51fe:	8b 05 a4 21 01 00    	mov    0x121a4(%rip),%eax        # 173a8 <g_1311>
    5204:	0f b6 d8             	movzbl %al,%ebx
    5207:	48 8b 05 22 1f 01 00 	mov    0x11f22(%rip),%rax        # 17130 <g_483+0x50>
    520e:	48 85 c0             	test   %rax,%rax
    5211:	75 1a                	jne    522d <func_1+0x1a78>
    5213:	8b 85 fc ef ff ff    	mov    -0x1004(%rbp),%eax
    5219:	98                   	cwtl   
    521a:	89 c6                	mov    %eax,%esi
    521c:	bf f8 ff ff ff       	mov    $0xfffffff8,%edi
    5221:	e8 8d d1 ff ff       	callq  23b3 <safe_add_func_int16_t_s_s>
    5226:	b8 00 00 00 00       	mov    $0x0,%eax
    522b:	eb 05                	jmp    5232 <func_1+0x1a7d>
    522d:	b8 01 00 00 00       	mov    $0x1,%eax
    5232:	3b 85 fc ef ff ff    	cmp    -0x1004(%rbp),%eax
    5238:	0f 9e c0             	setle  %al
    523b:	0f b6 c0             	movzbl %al,%eax
    523e:	89 de                	mov    %ebx,%esi
    5240:	89 c7                	mov    %eax,%edi
    5242:	e8 4c d9 ff ff       	callq  2b93 <safe_mul_func_uint8_t_u_u>
    5247:	48 8b 85 48 f5 ff ff 	mov    -0xab8(%rbp),%rax
    524e:	83 e0 01             	and    $0x1,%eax
    5251:	48 89 85 48 f5 ff ff 	mov    %rax,-0xab8(%rbp)
    5258:	48 8b 85 48 f5 ff ff 	mov    -0xab8(%rbp),%rax
    525f:	0f b7 c0             	movzwl %ax,%eax
    5262:	89 c6                	mov    %eax,%esi
    5264:	bf 85 26 00 00       	mov    $0x2685,%edi
    5269:	e8 91 da ff ff       	callq  2cff <safe_add_func_uint16_t_u_u>
    526e:	c7 85 10 f0 ff ff ff 	movl   $0xffffffff,-0xff0(%rbp)
    5275:	ff ff ff 
    5278:	c6 85 8d ee ff ff f9 	movb   $0xf9,-0x1173(%rbp)
    527f:	c7 85 14 f0 ff ff ff 	movl   $0xffffffff,-0xfec(%rbp)
    5286:	ff ff ff 
    5289:	c7 85 78 f0 ff ff 1c 	movl   $0xa2090d1c,-0xf88(%rbp)
    5290:	0d 09 a2 
    5293:	48 8d 05 86 20 01 00 	lea    0x12086(%rip),%rax        # 17320 <g_880>
    529a:	48 89 85 b8 f2 ff ff 	mov    %rax,-0xd48(%rbp)
    52a1:	48 8d 05 40 de 00 00 	lea    0xde40(%rip),%rax        # 130e8 <g_1358>
    52a8:	48 89 85 98 f0 ff ff 	mov    %rax,-0xf68(%rbp)
    52af:	48 c7 85 60 f5 ff ff 	movq   $0x0,-0xaa0(%rbp)
    52b6:	00 00 00 00 
    52ba:	48 c7 85 68 f5 ff ff 	movq   $0x0,-0xa98(%rbp)
    52c1:	00 00 00 00 
    52c5:	48 8d 85 98 f0 ff ff 	lea    -0xf68(%rbp),%rax
    52cc:	48 89 85 70 f5 ff ff 	mov    %rax,-0xa90(%rbp)
    52d3:	48 c7 85 78 f5 ff ff 	movq   $0x0,-0xa88(%rbp)
    52da:	00 00 00 00 
    52de:	48 c7 85 80 f5 ff ff 	movq   $0x0,-0xa80(%rbp)
    52e5:	00 00 00 00 
    52e9:	48 8d 85 98 f0 ff ff 	lea    -0xf68(%rbp),%rax
    52f0:	48 89 85 88 f5 ff ff 	mov    %rax,-0xa78(%rbp)
    52f7:	48 c7 85 90 f5 ff ff 	movq   $0x0,-0xa70(%rbp)
    52fe:	00 00 00 00 
    5302:	48 c7 85 98 f5 ff ff 	movq   $0x0,-0xa68(%rbp)
    5309:	00 00 00 00 
    530d:	48 8d 85 98 f0 ff ff 	lea    -0xf68(%rbp),%rax
    5314:	48 89 85 a0 f5 ff ff 	mov    %rax,-0xa60(%rbp)
    531b:	48 c7 85 a8 f5 ff ff 	movq   $0x0,-0xa58(%rbp)
    5322:	00 00 00 00 
    5326:	48 8d 85 60 f5 ff ff 	lea    -0xaa0(%rbp),%rax
    532d:	48 83 c0 40          	add    $0x40,%rax
    5331:	48 89 85 a0 f0 ff ff 	mov    %rax,-0xf60(%rbp)
    5338:	48 8d 85 a0 f0 ff ff 	lea    -0xf60(%rbp),%rax
    533f:	48 89 85 d0 f5 ff ff 	mov    %rax,-0xa30(%rbp)
    5346:	48 8d 85 a0 f0 ff ff 	lea    -0xf60(%rbp),%rax
    534d:	48 89 85 d8 f5 ff ff 	mov    %rax,-0xa28(%rbp)
    5354:	48 8d 85 a0 f0 ff ff 	lea    -0xf60(%rbp),%rax
    535b:	48 89 85 e0 f5 ff ff 	mov    %rax,-0xa20(%rbp)
    5362:	48 8d 85 a0 f0 ff ff 	lea    -0xf60(%rbp),%rax
    5369:	48 89 85 e8 f5 ff ff 	mov    %rax,-0xa18(%rbp)
    5370:	48 8d 85 a0 f0 ff ff 	lea    -0xf60(%rbp),%rax
    5377:	48 89 85 f0 f5 ff ff 	mov    %rax,-0xa10(%rbp)
    537e:	48 8d 85 a0 f0 ff ff 	lea    -0xf60(%rbp),%rax
    5385:	48 89 85 f8 f5 ff ff 	mov    %rax,-0xa08(%rbp)
    538c:	48 8d 85 a0 f0 ff ff 	lea    -0xf60(%rbp),%rax
    5393:	48 89 85 00 f6 ff ff 	mov    %rax,-0xa00(%rbp)
    539a:	48 8d 85 a0 f0 ff ff 	lea    -0xf60(%rbp),%rax
    53a1:	48 89 85 08 f6 ff ff 	mov    %rax,-0x9f8(%rbp)
    53a8:	48 8d 85 a0 f0 ff ff 	lea    -0xf60(%rbp),%rax
    53af:	48 89 85 10 f6 ff ff 	mov    %rax,-0x9f0(%rbp)
    53b6:	48 8d 85 a0 f0 ff ff 	lea    -0xf60(%rbp),%rax
    53bd:	48 89 85 18 f6 ff ff 	mov    %rax,-0x9e8(%rbp)
    53c4:	48 8d 85 a0 f0 ff ff 	lea    -0xf60(%rbp),%rax
    53cb:	48 89 85 20 f6 ff ff 	mov    %rax,-0x9e0(%rbp)
    53d2:	48 8d 85 a0 f0 ff ff 	lea    -0xf60(%rbp),%rax
    53d9:	48 89 85 28 f6 ff ff 	mov    %rax,-0x9d8(%rbp)
    53e0:	48 8d 85 a0 f0 ff ff 	lea    -0xf60(%rbp),%rax
    53e7:	48 89 85 30 f6 ff ff 	mov    %rax,-0x9d0(%rbp)
    53ee:	48 8d 85 a0 f0 ff ff 	lea    -0xf60(%rbp),%rax
    53f5:	48 89 85 38 f6 ff ff 	mov    %rax,-0x9c8(%rbp)
    53fc:	48 8d 85 a0 f0 ff ff 	lea    -0xf60(%rbp),%rax
    5403:	48 89 85 40 f6 ff ff 	mov    %rax,-0x9c0(%rbp)
    540a:	48 8d 85 a0 f0 ff ff 	lea    -0xf60(%rbp),%rax
    5411:	48 89 85 48 f6 ff ff 	mov    %rax,-0x9b8(%rbp)
    5418:	48 8d 85 d0 f5 ff ff 	lea    -0xa30(%rbp),%rax
    541f:	48 83 c0 18          	add    $0x18,%rax
    5423:	48 89 85 c0 f2 ff ff 	mov    %rax,-0xd40(%rbp)
    542a:	66 c7 85 98 ee ff ff 	movw   $0xffff,-0x1168(%rbp)
    5431:	ff ff 
    5433:	48 8d 85 40 f0 ff ff 	lea    -0xfc0(%rbp),%rax
    543a:	48 89 85 c8 f2 ff ff 	mov    %rax,-0xd38(%rbp)
    5441:	c7 85 2c ef ff ff 00 	movl   $0x0,-0x10d4(%rbp)
    5448:	00 00 00 
    544b:	eb 1e                	jmp    546b <func_1+0x1cb6>
    544d:	8b 85 2c ef ff ff    	mov    -0x10d4(%rbp),%eax
    5453:	48 98                	cltq   
    5455:	48 8d 15 c8 1b 01 00 	lea    0x11bc8(%rip),%rdx        # 17024 <g_15>
    545c:	48 89 94 c5 a0 f3 ff 	mov    %rdx,-0xc60(%rbp,%rax,8)
    5463:	ff 
    5464:	83 85 2c ef ff ff 01 	addl   $0x1,-0x10d4(%rbp)
    546b:	83 bd 2c ef ff ff 02 	cmpl   $0x2,-0x10d4(%rbp)
    5472:	7e d9                	jle    544d <func_1+0x1c98>
    5474:	c6 05 c1 1b 01 00 01 	movb   $0x1,0x11bc1(%rip)        # 1703c <g_107>
    547b:	e9 03 02 00 00       	jmpq   5683 <func_1+0x1ece>
    5480:	48 c7 85 d0 f2 ff ff 	movq   $0x1,-0xd30(%rbp)
    5487:	01 00 00 00 
    548b:	c7 85 18 f0 ff ff 08 	movl   $0x8,-0xfe8(%rbp)
    5492:	00 00 00 
    5495:	c7 85 1c f0 ff ff 07 	movl   $0x7,-0xfe4(%rbp)
    549c:	00 00 00 
    549f:	c7 85 20 f0 ff ff 00 	movl   $0x0,-0xfe0(%rbp)
    54a6:	00 00 00 
    54a9:	48 8d 05 10 1e 01 00 	lea    0x11e10(%rip),%rax        # 172c0 <g_574+0x20>
    54b0:	48 89 85 d8 f2 ff ff 	mov    %rax,-0xd28(%rbp)
    54b7:	c7 05 77 1b 01 00 06 	movl   $0x6,0x11b77(%rip)        # 17038 <g_99>
    54be:	00 00 00 
    54c1:	eb 59                	jmp    551c <func_1+0x1d67>
    54c3:	48 8b 85 48 f0 ff ff 	mov    -0xfb8(%rbp),%rax
    54ca:	8b 00                	mov    (%rax),%eax
    54cc:	85 c0                	test   %eax,%eax
    54ce:	75 59                	jne    5529 <func_1+0x1d74>
    54d0:	83 bd 10 f0 ff ff 00 	cmpl   $0x0,-0xff0(%rbp)
    54d7:	75 27                	jne    5500 <func_1+0x1d4b>
    54d9:	48 8b 05 d8 26 01 00 	mov    0x126d8(%rip),%rax        # 17bb8 <g_384>
    54e0:	48 8b 00             	mov    (%rax),%rax
    54e3:	8b 00                	mov    (%rax),%eax
    54e5:	85 c0                	test   %eax,%eax
    54e7:	75 43                	jne    552c <func_1+0x1d77>
    54e9:	8b 85 10 f0 ff ff    	mov    -0xff0(%rbp),%eax
    54ef:	98                   	cwtl   
    54f0:	89 c7                	mov    %eax,%edi
    54f2:	e8 a6 ce ff ff       	callq  239d <safe_unary_minus_func_int16_t_s>
    54f7:	c6 85 8d ee ff ff fb 	movb   $0xfb,-0x1173(%rbp)
    54fe:	eb 01                	jmp    5501 <func_1+0x1d4c>
    5500:	90                   	nop
    5501:	8b 05 31 1b 01 00    	mov    0x11b31(%rip),%eax        # 17038 <g_99>
    5507:	48 98                	cltq   
    5509:	be 02 00 00 00       	mov    $0x2,%esi
    550e:	48 89 c7             	mov    %rax,%rdi
    5511:	e8 92 d3 ff ff       	callq  28a8 <safe_sub_func_int64_t_s_s>
    5516:	89 05 1c 1b 01 00    	mov    %eax,0x11b1c(%rip)        # 17038 <g_99>
    551c:	8b 05 16 1b 01 00    	mov    0x11b16(%rip),%eax        # 17038 <g_99>
    5522:	83 f8 e5             	cmp    $0xffffffe5,%eax
    5525:	7c 9c                	jl     54c3 <func_1+0x1d0e>
    5527:	eb 04                	jmp    552d <func_1+0x1d78>
    5529:	90                   	nop
    552a:	eb 01                	jmp    552d <func_1+0x1d78>
    552c:	90                   	nop
    552d:	48 8b 85 48 f0 ff ff 	mov    -0xfb8(%rbp),%rax
    5534:	8b 00                	mov    (%rax),%eax
    5536:	85 c0                	test   %eax,%eax
    5538:	0f 85 ba 00 00 00    	jne    55f8 <func_1+0x1e43>
    553e:	48 8b 85 d0 f2 ff ff 	mov    -0xd30(%rbp),%rax
    5545:	0f be d8             	movsbl %al,%ebx
    5548:	8b 05 5a 1e 01 00    	mov    0x11e5a(%rip),%eax        # 173a8 <g_1311>
    554e:	48 8b 85 48 f0 ff ff 	mov    -0xfb8(%rbp),%rax
    5555:	8b 00                	mov    (%rax),%eax
    5557:	3d 01 ed b9 31       	cmp    $0x31b9ed01,%eax
    555c:	0f 95 c0             	setne  %al
    555f:	89 c2                	mov    %eax,%edx
    5561:	0f b6 05 e3 1d 01 00 	movzbl 0x11de3(%rip),%eax        # 1734b <g_982+0xb>
    5568:	21 d0                	and    %edx,%eax
    556a:	0f b6 d0             	movzbl %al,%edx
    556d:	8b 85 c8 ef ff ff    	mov    -0x1038(%rbp),%eax
    5573:	0f b6 c0             	movzbl %al,%eax
    5576:	89 d6                	mov    %edx,%esi
    5578:	89 c7                	mov    %eax,%edi
    557a:	e8 db d5 ff ff       	callq  2b5a <safe_add_func_uint8_t_u_u>
    557f:	48 8d 05 c5 1d 01 00 	lea    0x11dc5(%rip),%rax        # 1734b <g_982+0xb>
    5586:	0f b6 00             	movzbl (%rax),%eax
    5589:	0f be c0             	movsbl %al,%eax
    558c:	39 85 fc ef ff ff    	cmp    %eax,-0x1004(%rbp)
    5592:	0f 9e c0             	setle  %al
    5595:	0f b6 c0             	movzbl %al,%eax
    5598:	48 39 85 d0 f2 ff ff 	cmp    %rax,-0xd30(%rbp)
    559f:	0f 97 c2             	seta   %dl
    55a2:	48 8b 85 88 f0 ff ff 	mov    -0xf78(%rbp),%rax
    55a9:	48 8b 00             	mov    (%rax),%rax
    55ac:	88 10                	mov    %dl,(%rax)
    55ae:	0f b6 00             	movzbl (%rax),%eax
    55b1:	0f b6 d0             	movzbl %al,%edx
    55b4:	48 8b 85 48 f0 ff ff 	mov    -0xfb8(%rbp),%rax
    55bb:	8b 00                	mov    (%rax),%eax
    55bd:	0f b6 c0             	movzbl %al,%eax
    55c0:	89 d6                	mov    %edx,%esi
    55c2:	89 c7                	mov    %eax,%edi
    55c4:	e8 ca d5 ff ff       	callq  2b93 <safe_mul_func_uint8_t_u_u>
    55c9:	0f b6 c0             	movzbl %al,%eax
    55cc:	48 39 85 80 f2 ff ff 	cmp    %rax,-0xd80(%rbp)
    55d3:	0f 9c c0             	setl   %al
    55d6:	0f b6 d0             	movzbl %al,%edx
    55d9:	8b 85 10 f0 ff ff    	mov    -0xff0(%rbp),%eax
    55df:	89 d6                	mov    %edx,%esi
    55e1:	89 c7                	mov    %eax,%edi
    55e3:	e8 1d d0 ff ff       	callq  2605 <safe_sub_func_int32_t_s_s>
    55e8:	0f be c0             	movsbl %al,%eax
    55eb:	89 de                	mov    %ebx,%esi
    55ed:	89 c7                	mov    %eax,%edi
    55ef:	e8 76 cc ff ff       	callq  226a <safe_div_func_int8_t_s_s>
    55f4:	84 c0                	test   %al,%al
    55f6:	74 3c                	je     5634 <func_1+0x1e7f>
    55f8:	c7 85 24 f0 ff ff 00 	movl   $0x0,-0xfdc(%rbp)
    55ff:	00 00 00 
    5602:	48 8d 85 78 f0 ff ff 	lea    -0xf88(%rbp),%rax
    5609:	48 89 85 e0 f2 ff ff 	mov    %rax,-0xd20(%rbp)
    5610:	83 85 24 f0 ff ff 01 	addl   $0x1,-0xfdc(%rbp)
    5617:	48 83 bd 80 f2 ff ff 	cmpq   $0x0,-0xd80(%rbp)
    561e:	00 
    561f:	75 73                	jne    5694 <func_1+0x1edf>
    5621:	48 8b 05 a8 25 01 00 	mov    0x125a8(%rip),%rax        # 17bd0 <g_507>
    5628:	48 8b 95 e0 f2 ff ff 	mov    -0xd20(%rbp),%rdx
    562f:	48 89 10             	mov    %rdx,(%rax)
    5632:	eb 23                	jmp    5657 <func_1+0x1ea2>
    5634:	8b 85 20 f0 ff ff    	mov    -0xfe0(%rbp),%eax
    563a:	0d 14 ca 9d 2f       	or     $0x2f9dca14,%eax
    563f:	89 c2                	mov    %eax,%edx
    5641:	48 8b 85 48 f0 ff ff 	mov    -0xfb8(%rbp),%rax
    5648:	89 10                	mov    %edx,(%rax)
    564a:	48 8b 05 0f 26 01 00 	mov    0x1260f(%rip),%rax        # 17c60 <g_724>
    5651:	8b 00                	mov    (%rax),%eax
    5653:	85 c0                	test   %eax,%eax
    5655:	75 40                	jne    5697 <func_1+0x1ee2>
    5657:	48 8b 85 b8 f2 ff ff 	mov    -0xd48(%rbp),%rax
    565e:	48 89 85 d8 f2 ff ff 	mov    %rax,-0xd28(%rbp)
    5665:	0f b6 05 d0 19 01 00 	movzbl 0x119d0(%rip),%eax        # 1703c <g_107>
    566c:	48 0f be c0          	movsbq %al,%rax
    5670:	be 04 00 00 00       	mov    $0x4,%esi
    5675:	48 89 c7             	mov    %rax,%rdi
    5678:	e8 ce d9 ff ff       	callq  304b <safe_sub_func_uint64_t_u_u>
    567d:	88 05 b9 19 01 00    	mov    %al,0x119b9(%rip)        # 1703c <g_107>
    5683:	0f b6 05 b2 19 01 00 	movzbl 0x119b2(%rip),%eax        # 1703c <g_107>
    568a:	3c eb                	cmp    $0xeb,%al
    568c:	0f 8d ee fd ff ff    	jge    5480 <func_1+0x1ccb>
    5692:	eb 04                	jmp    5698 <func_1+0x1ee3>
    5694:	90                   	nop
    5695:	eb 01                	jmp    5698 <func_1+0x1ee3>
    5697:	90                   	nop
    5698:	0f b7 9d 98 ee ff ff 	movzwl -0x1168(%rbp),%ebx
    569f:	44 8b a5 14 f0 ff ff 	mov    -0xfec(%rbp),%r12d
    56a6:	80 bd 8d ee ff ff 00 	cmpb   $0x0,-0x1173(%rbp)
    56ad:	0f 85 c2 00 00 00    	jne    5775 <func_1+0x1fc0>
    56b3:	c7 05 67 19 01 00 ff 	movl   $0xffffffff,0x11967(%rip)        # 17024 <g_15>
    56ba:	ff ff ff 
    56bd:	0f b6 05 5c 1c 01 00 	movzbl 0x11c5c(%rip),%eax        # 17320 <g_880>
    56c4:	0f b6 c0             	movzbl %al,%eax
    56c7:	be 01 00 00 00       	mov    $0x1,%esi
    56cc:	89 c7                	mov    %eax,%edi
    56ce:	e8 e0 cc ff ff       	callq  23b3 <safe_add_func_int16_t_s_s>
    56d3:	0f b7 15 9a 19 01 00 	movzwl 0x1199a(%rip),%edx        # 17074 <g_254>
    56da:	31 d0                	xor    %edx,%eax
    56dc:	66 89 05 91 19 01 00 	mov    %ax,0x11991(%rip)        # 17074 <g_254>
    56e3:	0f b7 05 8a 19 01 00 	movzwl 0x1198a(%rip),%eax        # 17074 <g_254>
    56ea:	98                   	cwtl   
    56eb:	be 03 00 00 00       	mov    $0x3,%esi
    56f0:	89 c7                	mov    %eax,%edi
    56f2:	e8 5e cd ff ff       	callq  2455 <safe_div_func_int16_t_s_s>
    56f7:	66 85 c0             	test   %ax,%ax
    56fa:	8b 15 c8 2c 01 00    	mov    0x12cc8(%rip),%edx        # 183c8 <g_1366>
    5700:	8b 85 fc ef ff ff    	mov    -0x1004(%rbp),%eax
    5706:	21 d0                	and    %edx,%eax
    5708:	89 c2                	mov    %eax,%edx
    570a:	8b 85 60 f3 ff ff    	mov    -0xca0(%rbp),%eax
    5710:	0f b6 c0             	movzbl %al,%eax
    5713:	89 d6                	mov    %edx,%esi
    5715:	89 c7                	mov    %eax,%edi
    5717:	e8 71 d5 ff ff       	callq  2c8d <safe_rshift_func_uint8_t_u_s>
    571c:	48 8b 85 c0 f2 ff ff 	mov    -0xd40(%rbp),%rax
    5723:	48 c7 00 00 00 00 00 	movq   $0x0,(%rax)
    572a:	48 8b 05 97 24 01 00 	mov    0x12497(%rip),%rax        # 17bc8 <g_476>
    5731:	48 8b 00             	mov    (%rax),%rax
    5734:	48 85 c0             	test   %rax,%rax
    5737:	0f 94 c0             	sete   %al
    573a:	0f b6 c0             	movzbl %al,%eax
    573d:	89 c6                	mov    %eax,%esi
    573f:	bf 03 00 00 00       	mov    $0x3,%edi
    5744:	e8 ac cc ff ff       	callq  23f5 <safe_mul_func_int16_t_s_s>
    5749:	98                   	cwtl   
    574a:	8b 95 64 f3 ff ff    	mov    -0xc9c(%rbp),%edx
    5750:	48 63 ca             	movslq %edx,%rcx
    5753:	48 8b 15 16 1a 01 00 	mov    0x11a16(%rip),%rdx        # 17170 <g_484>
    575a:	48 21 d1             	and    %rdx,%rcx
    575d:	ba ff ff ff ff       	mov    $0xffffffff,%edx
    5762:	48 39 d1             	cmp    %rdx,%rcx
    5765:	74 07                	je     576e <func_1+0x1fb9>
    5767:	ba 01 00 00 00       	mov    $0x1,%edx
    576c:	eb 05                	jmp    5773 <func_1+0x1fbe>
    576e:	ba 00 00 00 00       	mov    $0x0,%edx
    5773:	39 c2                	cmp    %eax,%edx
    5775:	8b 8d 70 f3 ff ff    	mov    -0xc90(%rbp),%ecx
    577b:	48 8b 85 d0 f0 ff ff 	mov    -0xf30(%rbp),%rax
    5782:	48 8b 10             	mov    (%rax),%rdx
    5785:	48 63 c1             	movslq %ecx,%rax
    5788:	48 31 c2             	xor    %rax,%rdx
    578b:	48 8b 85 d0 f0 ff ff 	mov    -0xf30(%rbp),%rax
    5792:	48 89 10             	mov    %rdx,(%rax)
    5795:	44 89 e6             	mov    %r12d,%esi
    5798:	bf 01 00 00 00       	mov    $0x1,%edi
    579d:	e8 16 d7 ff ff       	callq  2eb8 <safe_add_func_uint32_t_u_u>
    57a2:	89 de                	mov    %ebx,%esi
    57a4:	89 c7                	mov    %eax,%edi
    57a6:	e8 0d d7 ff ff       	callq  2eb8 <safe_add_func_uint32_t_u_u>
    57ab:	48 8b 05 1e 25 01 00 	mov    0x1251e(%rip),%rax        # 17cd0 <g_980>
    57b2:	48 8b 00             	mov    (%rax),%rax
    57b5:	0f b6 00             	movzbl (%rax),%eax
    57b8:	38 85 8d ee ff ff    	cmp    %al,-0x1173(%rbp)
    57be:	0f 9d c0             	setge  %al
    57c1:	0f b6 c0             	movzbl %al,%eax
    57c4:	89 85 78 f0 ff ff    	mov    %eax,-0xf88(%rbp)
    57ca:	8b 85 78 f0 ff ff    	mov    -0xf88(%rbp),%eax
    57d0:	85 c0                	test   %eax,%eax
    57d2:	0f 84 14 04 00 00    	je     5bec <func_1+0x2437>
    57d8:	c6 85 93 ee ff ff f8 	movb   $0xf8,-0x116d(%rbp)
    57df:	48 c7 85 f8 f2 ff ff 	movq   $0x0,-0xd08(%rbp)
    57e6:	00 00 00 00 
    57ea:	c7 85 30 ef ff ff 00 	movl   $0x0,-0x10d0(%rbp)
    57f1:	00 00 00 
    57f4:	eb 14                	jmp    580a <func_1+0x2055>
    57f6:	8b 85 30 ef ff ff    	mov    -0x10d0(%rbp),%eax
    57fc:	48 98                	cltq   
    57fe:	c6 44 05 c0 b2       	movb   $0xb2,-0x40(%rbp,%rax,1)
    5803:	83 85 30 ef ff ff 01 	addl   $0x1,-0x10d0(%rbp)
    580a:	83 bd 30 ef ff ff 04 	cmpl   $0x4,-0x10d0(%rbp)
    5811:	7e e3                	jle    57f6 <func_1+0x2041>
    5813:	0f be 9d 8d ee ff ff 	movsbl -0x1173(%rbp),%ebx
    581a:	8b 85 fc ef ff ff    	mov    -0x1004(%rbp),%eax
    5820:	44 0f b6 e0          	movzbl %al,%r12d
    5824:	8b 05 a6 18 01 00    	mov    0x118a6(%rip),%eax        # 170d0 <g_469>
    582a:	44 0f bf e8          	movswl %ax,%r13d
    582e:	48 8b 05 83 23 01 00 	mov    0x12383(%rip),%rax        # 17bb8 <g_384>
    5835:	48 8b 00             	mov    (%rax),%rax
    5838:	8b 10                	mov    (%rax),%edx
    583a:	0f b6 05 89 18 01 00 	movzbl 0x11889(%rip),%eax        # 170ca <g_311>
    5841:	0f b6 c0             	movzbl %al,%eax
    5844:	39 c2                	cmp    %eax,%edx
    5846:	0f 9c c0             	setl   %al
    5849:	0f b6 c0             	movzbl %al,%eax
    584c:	be 53 25 00 00       	mov    $0x2553,%esi
    5851:	89 c7                	mov    %eax,%edi
    5853:	e8 9d cb ff ff       	callq  23f5 <safe_mul_func_int16_t_s_s>
    5858:	41 89 c7             	mov    %eax,%r15d
    585b:	44 0f b6 b5 93 ee ff 	movzbl -0x116d(%rbp),%r14d
    5862:	ff 
    5863:	0f b6 45 c3          	movzbl -0x3d(%rbp),%eax
    5867:	0f b6 c0             	movzbl %al,%eax
    586a:	48 8d 15 a7 2a 01 00 	lea    0x12aa7(%rip),%rdx        # 18318 <g_477>
    5871:	48 89 15 50 23 01 00 	mov    %rdx,0x12350(%rip)        # 17bc8 <g_476>
    5878:	48 89 c6             	mov    %rax,%rsi
    587b:	bf 00 00 00 00       	mov    $0x0,%edi
    5880:	e8 2f d1 ff ff       	callq  29b4 <safe_mod_func_int64_t_s_s>
    5885:	0f b6 05 9e 1a 01 00 	movzbl 0x11a9e(%rip),%eax        # 1732a <g_969>
    588c:	0f be c0             	movsbl %al,%eax
    588f:	44 89 f6             	mov    %r14d,%esi
    5892:	89 c7                	mov    %eax,%edi
    5894:	e8 3a cb ff ff       	callq  23d3 <safe_sub_func_int16_t_s_s>
    5899:	48 8b 05 10 26 01 00 	mov    0x12610(%rip),%rax        # 17eb0 <g_1382>
    58a0:	48 89 05 09 26 01 00 	mov    %rax,0x12609(%rip)        # 17eb0 <g_1382>
    58a7:	48 8b 05 12 22 01 00 	mov    0x12212(%rip),%rax        # 17ac0 <g_106>
    58ae:	0f b6 95 93 ee ff ff 	movzbl -0x116d(%rbp),%edx
    58b5:	88 10                	mov    %dl,(%rax)
    58b7:	0f b6 00             	movzbl (%rax),%eax
    58ba:	66 98                	cbtw   
    58bc:	66 41 39 c7          	cmp    %ax,%r15w
    58c0:	0f 9d c0             	setge  %al
    58c3:	0f b6 c0             	movzbl %al,%eax
    58c6:	44 89 ee             	mov    %r13d,%esi
    58c9:	89 c7                	mov    %eax,%edi
    58cb:	e8 25 cb ff ff       	callq  23f5 <safe_mul_func_int16_t_s_s>
    58d0:	48 0f bf d0          	movswq %ax,%rdx
    58d4:	48 8b 05 55 17 01 00 	mov    0x11755(%rip),%rax        # 17030 <g_67>
    58db:	48 39 c2             	cmp    %rax,%rdx
    58de:	0f 92 c0             	setb   %al
    58e1:	0f b6 c0             	movzbl %al,%eax
    58e4:	44 89 e6             	mov    %r12d,%esi
    58e7:	89 c7                	mov    %eax,%edi
    58e9:	e8 a5 d2 ff ff       	callq  2b93 <safe_mul_func_uint8_t_u_u>
    58ee:	0f b6 c0             	movzbl %al,%eax
    58f1:	48 89 c6             	mov    %rax,%rsi
    58f4:	bf 00 00 00 00       	mov    $0x0,%edi
    58f9:	e8 b6 d0 ff ff       	callq  29b4 <safe_mod_func_int64_t_s_s>
    58fe:	89 de                	mov    %ebx,%esi
    5900:	89 c7                	mov    %eax,%edi
    5902:	e8 f6 d5 ff ff       	callq  2efd <safe_mod_func_uint32_t_u_u>
    5907:	48 8b 95 38 f2 ff ff 	mov    -0xdc8(%rbp),%rdx
    590e:	0f b7 12             	movzwl (%rdx),%edx
    5911:	31 d0                	xor    %edx,%eax
    5913:	89 c2                	mov    %eax,%edx
    5915:	48 8b 85 38 f2 ff ff 	mov    -0xdc8(%rbp),%rax
    591c:	66 89 10             	mov    %dx,(%rax)
    591f:	48 8b 85 38 f2 ff ff 	mov    -0xdc8(%rbp),%rax
    5926:	0f b7 00             	movzwl (%rax),%eax
    5929:	98                   	cwtl   
    592a:	be 00 00 00 00       	mov    $0x0,%esi
    592f:	89 c7                	mov    %eax,%edi
    5931:	e8 2d cc ff ff       	callq  2563 <safe_rshift_func_int16_t_s_u>
    5936:	8b 85 78 f0 ff ff    	mov    -0xf88(%rbp),%eax
    593c:	85 c0                	test   %eax,%eax
    593e:	0f 84 ea 01 00 00    	je     5b2e <func_1+0x2379>
    5944:	48 8d 85 90 f0 ff ff 	lea    -0xf70(%rbp),%rax
    594b:	48 89 85 18 f3 ff ff 	mov    %rax,-0xce8(%rbp)
    5952:	48 8d 85 d0 f6 ff ff 	lea    -0x930(%rbp),%rax
    5959:	48 83 c0 78          	add    $0x78,%rax
    595d:	48 89 85 20 f3 ff ff 	mov    %rax,-0xce0(%rbp)
    5964:	c7 85 80 f0 ff ff 56 	movl   $0xae28c656,-0xf80(%rbp)
    596b:	c6 28 ae 
    596e:	48 c7 85 28 f3 ff ff 	movq   $0x0,-0xcd8(%rbp)
    5975:	00 00 00 00 
    5979:	48 8d 05 4a 17 01 00 	lea    0x1174a(%rip),%rax        # 170ca <g_311>
    5980:	48 89 85 30 f3 ff ff 	mov    %rax,-0xcd0(%rbp)
    5987:	48 8b 85 80 f2 ff ff 	mov    -0xd80(%rbp),%rax
    598e:	41 89 c6             	mov    %eax,%r14d
    5991:	8b 85 70 f3 ff ff    	mov    -0xc90(%rbp),%eax
    5997:	41 89 c7             	mov    %eax,%r15d
    599a:	48 8b 05 17 22 01 00 	mov    0x12217(%rip),%rax        # 17bb8 <g_384>
    59a1:	48 8b 00             	mov    (%rax),%rax
    59a4:	8b 00                	mov    (%rax),%eax
    59a6:	85 c0                	test   %eax,%eax
    59a8:	75 0d                	jne    59b7 <func_1+0x2202>
    59aa:	48 8b 85 48 f0 ff ff 	mov    -0xfb8(%rbp),%rax
    59b1:	c7 00 2d 1c 67 6f    	movl   $0x6f671c2d,(%rax)
    59b7:	b8 01 00 00 00       	mov    $0x1,%eax
    59bc:	83 f8 03             	cmp    $0x3,%eax
    59bf:	48 8d 05 85 19 01 00 	lea    0x11985(%rip),%rax        # 1734b <g_982+0xb>
    59c6:	0f b6 00             	movzbl (%rax),%eax
    59c9:	0f be d8             	movsbl %al,%ebx
    59cc:	8b 85 14 f0 ff ff    	mov    -0xfec(%rbp),%eax
    59d2:	44 0f bf e0          	movswl %ax,%r12d
    59d6:	8b 85 78 f0 ff ff    	mov    -0xf88(%rbp),%eax
    59dc:	44 0f b6 e8          	movzbl %al,%r13d
    59e0:	8b 95 78 f0 ff ff    	mov    -0xf88(%rbp),%edx
    59e6:	8b 05 3c 16 01 00    	mov    0x1163c(%rip),%eax        # 17028 <g_52>
    59ec:	85 c0                	test   %eax,%eax
    59ee:	74 4b                	je     5a3b <func_1+0x2286>
    59f0:	48 8b 8d 90 f0 ff ff 	mov    -0xf70(%rbp),%rcx
    59f7:	48 8b 85 18 f3 ff ff 	mov    -0xce8(%rbp),%rax
    59fe:	48 89 08             	mov    %rcx,(%rax)
    5a01:	48 8b 85 18 f3 ff ff 	mov    -0xce8(%rbp),%rax
    5a08:	48 8b 30             	mov    (%rax),%rsi
    5a0b:	48 8b 8d a0 f7 ff ff 	mov    -0x860(%rbp),%rcx
    5a12:	48 8b 85 20 f3 ff ff 	mov    -0xce0(%rbp),%rax
    5a19:	48 89 08             	mov    %rcx,(%rax)
    5a1c:	48 8b 85 20 f3 ff ff 	mov    -0xce0(%rbp),%rax
    5a23:	48 8b 00             	mov    (%rax),%rax
    5a26:	48 39 c6             	cmp    %rax,%rsi
    5a29:	0f 94 c0             	sete   %al
    5a2c:	0f b6 c8             	movzbl %al,%ecx
    5a2f:	0f b7 05 ce 18 01 00 	movzwl 0x118ce(%rip),%eax        # 17304 <g_796>
    5a36:	0f b7 c0             	movzwl %ax,%eax
    5a39:	39 c1                	cmp    %eax,%ecx
    5a3b:	0f b6 85 93 ee ff ff 	movzbl -0x116d(%rbp),%eax
    5a42:	0f be c0             	movsbl %al,%eax
    5a45:	89 d6                	mov    %edx,%esi
    5a47:	89 c7                	mov    %eax,%edi
    5a49:	e8 53 c8 ff ff       	callq  22a1 <safe_lshift_func_int8_t_s_s>
    5a4e:	0f b6 c0             	movzbl %al,%eax
    5a51:	44 89 ee             	mov    %r13d,%esi
    5a54:	89 c7                	mov    %eax,%edi
    5a56:	e8 38 d1 ff ff       	callq  2b93 <safe_mul_func_uint8_t_u_u>
    5a5b:	0f b6 c0             	movzbl %al,%eax
    5a5e:	f7 d0                	not    %eax
    5a60:	98                   	cwtl   
    5a61:	44 89 e6             	mov    %r12d,%esi
    5a64:	89 c7                	mov    %eax,%edi
    5a66:	e8 ab c9 ff ff       	callq  2416 <safe_mod_func_int16_t_s_s>
    5a6b:	0f be c0             	movsbl %al,%eax
    5a6e:	89 de                	mov    %ebx,%esi
    5a70:	89 c7                	mov    %eax,%edi
    5a72:	e8 7b c7 ff ff       	callq  21f2 <safe_sub_func_int8_t_s_s>
    5a77:	8b 05 63 18 01 00    	mov    0x11863(%rip),%eax        # 172e0 <g_771>
    5a7d:	44 89 fe             	mov    %r15d,%esi
    5a80:	89 c7                	mov    %eax,%edi
    5a82:	e8 49 d4 ff ff       	callq  2ed0 <safe_sub_func_uint32_t_u_u>
    5a87:	0f b7 c0             	movzwl %ax,%eax
    5a8a:	44 89 f6             	mov    %r14d,%esi
    5a8d:	89 c7                	mov    %eax,%edi
    5a8f:	e8 72 d3 ff ff       	callq  2e06 <safe_lshift_func_uint16_t_u_u>
    5a94:	89 c2                	mov    %eax,%edx
    5a96:	48 8b 05 13 21 01 00 	mov    0x12113(%rip),%rax        # 17bb0 <g_385>
    5a9d:	0f b7 d2             	movzwl %dx,%edx
    5aa0:	89 10                	mov    %edx,(%rax)
    5aa2:	48 8b 05 ff 23 01 00 	mov    0x123ff(%rip),%rax        # 17ea8 <g_1383>
    5aa9:	48 8b 00             	mov    (%rax),%rax
    5aac:	48 85 c0             	test   %rax,%rax
    5aaf:	0f 94 c2             	sete   %dl
    5ab2:	48 8b 05 a7 21 01 00 	mov    0x121a7(%rip),%rax        # 17c60 <g_724>
    5ab9:	0f b6 d2             	movzbl %dl,%edx
    5abc:	89 10                	mov    %edx,(%rax)
    5abe:	0f b6 55 c3          	movzbl -0x3d(%rbp),%edx
    5ac2:	48 8b 85 30 f3 ff ff 	mov    -0xcd0(%rbp),%rax
    5ac9:	0f b6 00             	movzbl (%rax),%eax
    5acc:	89 c1                	mov    %eax,%ecx
    5ace:	8b 85 60 f3 ff ff    	mov    -0xca0(%rbp),%eax
    5ad4:	21 c8                	and    %ecx,%eax
    5ad6:	89 c1                	mov    %eax,%ecx
    5ad8:	48 8b 85 30 f3 ff ff 	mov    -0xcd0(%rbp),%rax
    5adf:	88 08                	mov    %cl,(%rax)
    5ae1:	48 8b 85 30 f3 ff ff 	mov    -0xcd0(%rbp),%rax
    5ae8:	0f b6 00             	movzbl (%rax),%eax
    5aeb:	21 c2                	and    %eax,%edx
    5aed:	48 8b 85 48 f0 ff ff 	mov    -0xfb8(%rbp),%rax
    5af4:	0f b6 d2             	movzbl %dl,%edx
    5af7:	89 10                	mov    %edx,(%rax)
    5af9:	8b 08                	mov    (%rax),%ecx
    5afb:	48 8b 05 ae 20 01 00 	mov    0x120ae(%rip),%rax        # 17bb0 <g_385>
    5b02:	8b 10                	mov    (%rax),%edx
    5b04:	48 8b 05 a5 20 01 00 	mov    0x120a5(%rip),%rax        # 17bb0 <g_385>
    5b0b:	09 ca                	or     %ecx,%edx
    5b0d:	89 10                	mov    %edx,(%rax)
    5b0f:	48 8b 05 ba 20 01 00 	mov    0x120ba(%rip),%rax        # 17bd0 <g_507>
    5b16:	48 8d 95 80 f0 ff ff 	lea    -0xf80(%rbp),%rdx
    5b1d:	48 89 10             	mov    %rdx,(%rax)
    5b20:	66 c7 85 98 ee ff ff 	movw   $0x0,-0x1168(%rbp)
    5b27:	00 00 
    5b29:	e9 af 00 00 00       	jmpq   5bdd <func_1+0x2428>
    5b2e:	48 c7 85 00 f3 ff ff 	movq   $0x7,-0xd00(%rbp)
    5b35:	07 00 00 00 
    5b39:	48 c7 85 08 f3 ff ff 	movq   $0x1,-0xcf8(%rbp)
    5b40:	01 00 00 00 
    5b44:	48 c7 85 10 f3 ff ff 	movq   $0xfffffffffffffffe,-0xcf0(%rbp)
    5b4b:	fe ff ff ff 
    5b4f:	48 83 85 10 f3 ff ff 	addq   $0x1,-0xcf0(%rbp)
    5b56:	01 
    5b57:	48 8b 95 60 f0 ff ff 	mov    -0xfa0(%rbp),%rdx
    5b5e:	48 8b 85 40 f2 ff ff 	mov    -0xdc0(%rbp),%rax
    5b65:	48 89 10             	mov    %rdx,(%rax)
    5b68:	8b 85 78 f0 ff ff    	mov    -0xf88(%rbp),%eax
    5b6e:	e9 65 34 00 00       	jmpq   8fd8 <func_1+0x5823>
    5b73:	48 8b 85 c0 f0 ff ff 	mov    -0xf40(%rbp),%rax
    5b7a:	66 c7 00 01 00       	movw   $0x1,(%rax)
    5b7f:	0f b6 95 93 ee ff ff 	movzbl -0x116d(%rbp),%edx
    5b86:	0f b6 45 c3          	movzbl -0x3d(%rbp),%eax
    5b8a:	3c 01                	cmp    $0x1,%al
    5b8c:	0f 96 c0             	setbe  %al
    5b8f:	0f b6 c8             	movzbl %al,%ecx
    5b92:	48 8b 05 27 1f 01 00 	mov    0x11f27(%rip),%rax        # 17ac0 <g_106>
    5b99:	0f b6 00             	movzbl (%rax),%eax
    5b9c:	0f be c0             	movsbl %al,%eax
    5b9f:	39 c1                	cmp    %eax,%ecx
    5ba1:	0f 94 c0             	sete   %al
    5ba4:	0f b6 c0             	movzbl %al,%eax
    5ba7:	39 c2                	cmp    %eax,%edx
    5ba9:	75 0c                	jne    5bb7 <func_1+0x2402>
    5bab:	48 b8 6f 0c ef 87 3c 	movabs $0x8507343c87ef0c6f,%rax
    5bb2:	34 07 85 
    5bb5:	eb 0a                	jmp    5bc1 <func_1+0x240c>
    5bb7:	48 b8 6e 0c ef 87 3c 	movabs $0x8507343c87ef0c6e,%rax
    5bbe:	34 07 85 
    5bc1:	48 8b 15 e8 1f 01 00 	mov    0x11fe8(%rip),%rdx        # 17bb0 <g_385>
    5bc8:	8b 12                	mov    (%rdx),%edx
    5bca:	31 c2                	xor    %eax,%edx
    5bcc:	48 8b 05 dd 1f 01 00 	mov    0x11fdd(%rip),%rax        # 17bb0 <g_385>
    5bd3:	89 10                	mov    %edx,(%rax)
    5bd5:	66 83 85 98 ee ff ff 	addw   $0x1,-0x1168(%rbp)
    5bdc:	01 
    5bdd:	66 83 bd 98 ee ff ff 	cmpw   $0x3,-0x1168(%rbp)
    5be4:	03 
    5be5:	76 8c                	jbe    5b73 <func_1+0x23be>
    5be7:	e9 95 07 00 00       	jmpq   6381 <func_1+0x2bcc>
    5bec:	48 8d 85 40 f3 ff ff 	lea    -0xcc0(%rbp),%rax
    5bf3:	48 83 c0 04          	add    $0x4,%rax
    5bf7:	48 89 85 e8 f2 ff ff 	mov    %rax,-0xd18(%rbp)
    5bfe:	c7 85 00 f4 ff ff fc 	movl   $0xfffffffc,-0xc00(%rbp)
    5c05:	ff ff ff 
    5c08:	c7 85 04 f4 ff ff fc 	movl   $0xfffffffc,-0xbfc(%rbp)
    5c0f:	ff ff ff 
    5c12:	c7 85 08 f4 ff ff fc 	movl   $0xfffffffc,-0xbf8(%rbp)
    5c19:	ff ff ff 
    5c1c:	c7 85 0c f4 ff ff fc 	movl   $0xfffffffc,-0xbf4(%rbp)
    5c23:	ff ff ff 
    5c26:	c7 85 10 f4 ff ff fc 	movl   $0xfffffffc,-0xbf0(%rbp)
    5c2d:	ff ff ff 
    5c30:	c7 85 14 f4 ff ff fc 	movl   $0xfffffffc,-0xbec(%rbp)
    5c37:	ff ff ff 
    5c3a:	c7 85 18 f4 ff ff fc 	movl   $0xfffffffc,-0xbe8(%rbp)
    5c41:	ff ff ff 
    5c44:	c7 85 1c f4 ff ff fc 	movl   $0xfffffffc,-0xbe4(%rbp)
    5c4b:	ff ff ff 
    5c4e:	c7 85 20 f4 ff ff fc 	movl   $0xfffffffc,-0xbe0(%rbp)
    5c55:	ff ff ff 
    5c58:	c7 85 34 ef ff ff 00 	movl   $0x0,-0x10cc(%rbp)
    5c5f:	00 00 00 
    5c62:	eb 19                	jmp    5c7d <func_1+0x24c8>
    5c64:	8b 85 34 ef ff ff    	mov    -0x10cc(%rbp),%eax
    5c6a:	48 98                	cltq   
    5c6c:	66 c7 84 45 3c f3 ff 	movw   $0x6,-0xcc4(%rbp,%rax,2)
    5c73:	ff 06 00 
    5c76:	83 85 34 ef ff ff 01 	addl   $0x1,-0x10cc(%rbp)
    5c7d:	83 bd 34 ef ff ff 01 	cmpl   $0x1,-0x10cc(%rbp)
    5c84:	7e de                	jle    5c64 <func_1+0x24af>
    5c86:	8b 85 14 f0 ff ff    	mov    -0xfec(%rbp),%eax
    5c8c:	89 85 78 f0 ff ff    	mov    %eax,-0xf88(%rbp)
    5c92:	0f b6 05 27 16 01 00 	movzbl 0x11627(%rip),%eax        # 172c0 <g_574+0x20>
    5c99:	0f b6 d8             	movzbl %al,%ebx
    5c9c:	48 8b 05 8d 13 01 00 	mov    0x1138d(%rip),%rax        # 17030 <g_67>
    5ca3:	98                   	cwtl   
    5ca4:	be 03 00 00 00       	mov    $0x3,%esi
    5ca9:	89 c7                	mov    %eax,%edi
    5cab:	e8 7a c8 ff ff       	callq  252a <safe_rshift_func_int16_t_s_s>
    5cb0:	98                   	cwtl   
    5cb1:	39 c3                	cmp    %eax,%ebx
    5cb3:	0f 9c c0             	setl   %al
    5cb6:	0f b6 d0             	movzbl %al,%edx
    5cb9:	48 8b 85 38 f2 ff ff 	mov    -0xdc8(%rbp),%rax
    5cc0:	66 89 10             	mov    %dx,(%rax)
    5cc3:	48 8b 85 38 f2 ff ff 	mov    -0xdc8(%rbp),%rax
    5cca:	0f b7 00             	movzwl (%rax),%eax
    5ccd:	0f b7 d0             	movzwl %ax,%edx
    5cd0:	48 8b 85 48 f0 ff ff 	mov    -0xfb8(%rbp),%rax
    5cd7:	8b 00                	mov    (%rax),%eax
    5cd9:	0f b7 c0             	movzwl %ax,%eax
    5cdc:	89 d6                	mov    %edx,%esi
    5cde:	89 c7                	mov    %eax,%edi
    5ce0:	e8 58 d0 ff ff       	callq  2d3d <safe_mul_func_uint16_t_u_u>
    5ce5:	0f b7 c0             	movzwl %ax,%eax
    5ce8:	ba fd ff ff ff       	mov    $0xfffffffd,%edx
    5ced:	39 d0                	cmp    %edx,%eax
    5cef:	0f 9f c2             	setg   %dl
    5cf2:	48 8b 05 67 1f 01 00 	mov    0x11f67(%rip),%rax        # 17c60 <g_724>
    5cf9:	0f b6 d2             	movzbl %dl,%edx
    5cfc:	89 10                	mov    %edx,(%rax)
    5cfe:	8b 00                	mov    (%rax),%eax
    5d00:	85 c0                	test   %eax,%eax
    5d02:	0f 84 3a 01 00 00    	je     5e42 <func_1+0x268d>
    5d08:	c7 85 2c f0 ff ff 27 	movl   $0x4f9ef127,-0xfd4(%rbp)
    5d0f:	f1 9e 4f 
    5d12:	48 8d 05 b1 13 01 00 	lea    0x113b1(%rip),%rax        # 170ca <g_311>
    5d19:	48 89 85 f0 f2 ff ff 	mov    %rax,-0xd10(%rbp)
    5d20:	0f b6 05 e9 15 01 00 	movzbl 0x115e9(%rip),%eax        # 17310 <g_816>
    5d27:	0f b6 d8             	movzbl %al,%ebx
    5d2a:	8b 85 00 f0 ff ff    	mov    -0x1000(%rbp),%eax
    5d30:	44 0f b6 e0          	movzbl %al,%r12d
    5d34:	8b 85 2c f0 ff ff    	mov    -0xfd4(%rbp),%eax
    5d3a:	0f be d0             	movsbl %al,%edx
    5d3d:	48 8b 85 c0 f0 ff ff 	mov    -0xf40(%rbp),%rax
    5d44:	48 89 85 e0 f3 ff ff 	mov    %rax,-0xc20(%rbp)
    5d4b:	48 8b 85 e0 f3 ff ff 	mov    -0xc20(%rbp),%rax
    5d52:	48 8b 8d e8 f2 ff ff 	mov    -0xd18(%rbp),%rcx
    5d59:	48 89 8d 88 f2 ff ff 	mov    %rcx,-0xd78(%rbp)
    5d60:	48 39 85 88 f2 ff ff 	cmp    %rax,-0xd78(%rbp)
    5d67:	0f 95 c0             	setne  %al
    5d6a:	0f b6 c0             	movzbl %al,%eax
    5d6d:	89 d6                	mov    %edx,%esi
    5d6f:	89 c7                	mov    %eax,%edi
    5d71:	e8 9c c4 ff ff       	callq  2212 <safe_mul_func_int8_t_s_s>
    5d76:	0f b7 85 44 f3 ff ff 	movzwl -0xcbc(%rbp),%eax
    5d7d:	0f b7 c0             	movzwl %ax,%eax
    5d80:	89 c6                	mov    %eax,%esi
    5d82:	bf f7 ff ff ff       	mov    $0xfffffff7,%edi
    5d87:	e8 9e c7 ff ff       	callq  252a <safe_rshift_func_int16_t_s_s>
    5d8c:	66 83 f8 01          	cmp    $0x1,%ax
    5d90:	8b 85 2c f0 ff ff    	mov    -0xfd4(%rbp),%eax
    5d96:	83 c8 01             	or     $0x1,%eax
    5d99:	0f b6 c0             	movzbl %al,%eax
    5d9c:	be eb 00 00 00       	mov    $0xeb,%esi
    5da1:	89 c7                	mov    %eax,%edi
    5da3:	e8 b2 cd ff ff       	callq  2b5a <safe_add_func_uint8_t_u_u>
    5da8:	0f b6 c0             	movzbl %al,%eax
    5dab:	44 89 e6             	mov    %r12d,%esi
    5dae:	89 c7                	mov    %eax,%edi
    5db0:	e8 de cd ff ff       	callq  2b93 <safe_mul_func_uint8_t_u_u>
    5db5:	0f b6 d0             	movzbl %al,%edx
    5db8:	8b 85 c8 f3 ff ff    	mov    -0xc38(%rbp),%eax
    5dbe:	39 c2                	cmp    %eax,%edx
    5dc0:	0f 9d c0             	setge  %al
    5dc3:	89 c2                	mov    %eax,%edx
    5dc5:	48 8b 85 f0 f2 ff ff 	mov    -0xd10(%rbp),%rax
    5dcc:	88 10                	mov    %dl,(%rax)
    5dce:	8b 85 2c f0 ff ff    	mov    -0xfd4(%rbp),%eax
    5dd4:	48 98                	cltq   
    5dd6:	48 89 c6             	mov    %rax,%rsi
    5dd9:	bf 01 00 00 00       	mov    $0x1,%edi
    5dde:	e8 5e ca ff ff       	callq  2841 <safe_add_func_int64_t_s_s>
    5de3:	8b 95 2c f0 ff ff    	mov    -0xfd4(%rbp),%edx
    5de9:	48 63 d2             	movslq %edx,%rdx
    5dec:	48 39 d0             	cmp    %rdx,%rax
    5def:	0f 9d c0             	setge  %al
    5df2:	0f b6 d0             	movzbl %al,%edx
    5df5:	0f b7 85 44 f3 ff ff 	movzwl -0xcbc(%rbp),%eax
    5dfc:	0f b7 c0             	movzwl %ax,%eax
    5dff:	39 c2                	cmp    %eax,%edx
    5e01:	0f 9e c0             	setle  %al
    5e04:	0f b6 c0             	movzbl %al,%eax
    5e07:	48 89 de             	mov    %rbx,%rsi
    5e0a:	48 89 c7             	mov    %rax,%rdi
    5e0d:	e8 6e d2 ff ff       	callq  3080 <safe_mod_func_uint64_t_u_u>
    5e12:	8b 15 34 12 01 00    	mov    0x11234(%rip),%edx        # 1704c <g_182+0xc>
    5e18:	48 63 d2             	movslq %edx,%rdx
    5e1b:	48 39 d0             	cmp    %rdx,%rax
    5e1e:	0f 93 c0             	setae  %al
    5e21:	0f b6 c0             	movzbl %al,%eax
    5e24:	89 c6                	mov    %eax,%esi
    5e26:	bf cc 58 00 00       	mov    $0x58cc,%edi
    5e2b:	e8 c5 c5 ff ff       	callq  23f5 <safe_mul_func_int16_t_s_s>
    5e30:	48 8b 05 29 1e 01 00 	mov    0x11e29(%rip),%rax        # 17c60 <g_724>
    5e37:	c7 00 ab 00 00 00    	movl   $0xab,(%rax)
    5e3d:	e9 41 01 00 00       	jmpq   5f83 <func_1+0x27ce>
    5e42:	c7 85 28 f0 ff ff f6 	movl   $0xfffffff6,-0xfd8(%rbp)
    5e49:	ff ff ff 
    5e4c:	c7 85 38 ef ff ff 00 	movl   $0x0,-0x10c8(%rbp)
    5e53:	00 00 00 
    5e56:	eb 1a                	jmp    5e72 <func_1+0x26bd>
    5e58:	8b 85 38 ef ff ff    	mov    -0x10c8(%rbp),%eax
    5e5e:	48 98                	cltq   
    5e60:	c7 84 85 38 f3 ff ff 	movl   $0xfffffff8,-0xcc8(%rbp,%rax,4)
    5e67:	f8 ff ff ff 
    5e6b:	83 85 38 ef ff ff 01 	addl   $0x1,-0x10c8(%rbp)
    5e72:	83 bd 38 ef ff ff 00 	cmpl   $0x0,-0x10c8(%rbp)
    5e79:	7e dd                	jle    5e58 <func_1+0x26a3>
    5e7b:	8b 85 38 f3 ff ff    	mov    -0xcc8(%rbp),%eax
    5e81:	41 89 c6             	mov    %eax,%r14d
    5e84:	48 0f be 9d 8d ee ff 	movsbq -0x1173(%rbp),%rbx
    5e8b:	ff 
    5e8c:	48 8b 05 25 20 01 00 	mov    0x12025(%rip),%rax        # 17eb8 <g_1463>
    5e93:	48 85 c0             	test   %rax,%rax
    5e96:	0f 94 c0             	sete   %al
    5e99:	44 0f b6 e8          	movzbl %al,%r13d
    5e9d:	0f b7 85 3e f3 ff ff 	movzwl -0xcc2(%rbp),%eax
    5ea4:	4c 0f bf e0          	movswq %ax,%r12
    5ea8:	8b 85 d0 ef ff ff    	mov    -0x1030(%rbp),%eax
    5eae:	98                   	cwtl   
    5eaf:	89 c6                	mov    %eax,%esi
    5eb1:	bf 01 00 00 00       	mov    $0x1,%edi
    5eb6:	e8 3a c5 ff ff       	callq  23f5 <safe_mul_func_int16_t_s_s>
    5ebb:	48 0f bf c0          	movswq %ax,%rax
    5ebf:	4c 89 e6             	mov    %r12,%rsi
    5ec2:	48 89 c7             	mov    %rax,%rdi
    5ec5:	e8 de c9 ff ff       	callq  28a8 <safe_sub_func_int64_t_s_s>
    5eca:	48 83 f8 fd          	cmp    $0xfffffffffffffffd,%rax
    5ece:	0f 94 c0             	sete   %al
    5ed1:	0f b6 c0             	movzbl %al,%eax
    5ed4:	44 31 e8             	xor    %r13d,%eax
    5ed7:	3d 69 80 00 00       	cmp    $0x8069,%eax
    5edc:	0f 9f c0             	setg   %al
    5edf:	0f b6 d0             	movzbl %al,%edx
    5ee2:	8b 85 38 f3 ff ff    	mov    -0xcc8(%rbp),%eax
    5ee8:	09 d0                	or     %edx,%eax
    5eea:	83 f0 01             	xor    $0x1,%eax
    5eed:	48 98                	cltq   
    5eef:	48 89 de             	mov    %rbx,%rsi
    5ef2:	48 89 c7             	mov    %rax,%rdi
    5ef5:	e8 ae c9 ff ff       	callq  28a8 <safe_sub_func_int64_t_s_s>
    5efa:	0f be c0             	movsbl %al,%eax
    5efd:	44 89 f6             	mov    %r14d,%esi
    5f00:	89 c7                	mov    %eax,%edi
    5f02:	e8 e7 c3 ff ff       	callq  22ee <safe_lshift_func_int8_t_s_u>
    5f07:	0f be c0             	movsbl %al,%eax
    5f0a:	0b 85 14 f0 ff ff    	or     -0xfec(%rbp),%eax
    5f10:	85 c0                	test   %eax,%eax
    5f12:	be 00 00 00 00       	mov    $0x0,%esi
    5f17:	bf 00 00 00 00       	mov    $0x0,%edi
    5f1c:	e8 f1 c2 ff ff       	callq  2212 <safe_mul_func_int8_t_s_s>
    5f21:	0f be c0             	movsbl %al,%eax
    5f24:	be ae ff ff ff       	mov    $0xffffffae,%esi
    5f29:	89 c7                	mov    %eax,%edi
    5f2b:	e8 3a c3 ff ff       	callq  226a <safe_div_func_int8_t_s_s>
    5f30:	84 c0                	test   %al,%al
    5f32:	74 12                	je     5f46 <func_1+0x2791>
    5f34:	0f b6 05 75 14 01 00 	movzbl 0x11475(%rip),%eax        # 173b0 <g_1473>
    5f3b:	84 c0                	test   %al,%al
    5f3d:	74 07                	je     5f46 <func_1+0x2791>
    5f3f:	b8 01 00 00 00       	mov    $0x1,%eax
    5f44:	eb 05                	jmp    5f4b <func_1+0x2796>
    5f46:	b8 00 00 00 00       	mov    $0x0,%eax
    5f4b:	89 05 77 13 01 00    	mov    %eax,0x11377(%rip)        # 172c8 <g_658>
    5f51:	48 8b 05 78 1c 01 00 	mov    0x11c78(%rip),%rax        # 17bd0 <g_507>
    5f58:	48 8d 95 38 f3 ff ff 	lea    -0xcc8(%rbp),%rdx
    5f5f:	48 89 10             	mov    %rdx,(%rax)
    5f62:	0f b6 05 b7 13 01 00 	movzbl 0x113b7(%rip),%eax        # 17320 <g_880>
    5f69:	0f b6 d0             	movzbl %al,%edx
    5f6c:	8b 05 c6 10 01 00    	mov    0x110c6(%rip),%eax        # 17038 <g_99>
    5f72:	39 c2                	cmp    %eax,%edx
    5f74:	0f 94 c2             	sete   %dl
    5f77:	48 8b 05 32 1c 01 00 	mov    0x11c32(%rip),%rax        # 17bb0 <g_385>
    5f7e:	0f b6 d2             	movzbl %dl,%edx
    5f81:	89 10                	mov    %edx,(%rax)
    5f83:	48 8b 05 56 1d 01 00 	mov    0x11d56(%rip),%rax        # 17ce0 <g_1084>
    5f8a:	48 8b 00             	mov    (%rax),%rax
    5f8d:	48 8b 00             	mov    (%rax),%rax
    5f90:	48 8b 00             	mov    (%rax),%rax
    5f93:	0f b6 00             	movzbl (%rax),%eax
    5f96:	e9 3d 30 00 00       	jmpq   8fd8 <func_1+0x5823>
    5f9b:	c7 85 d8 ef ff ff 28 	movl   $0x796cb728,-0x1028(%rbp)
    5fa2:	b7 6c 79 
    5fa5:	c7 85 dc ef ff ff 18 	movl   $0x4e7a5d18,-0x1024(%rbp)
    5fac:	5d 7a 4e 
    5faf:	c7 85 e0 ef ff ff ff 	movl   $0xffffffff,-0x1020(%rbp)
    5fb6:	ff ff ff 
    5fb9:	c7 85 e4 ef ff ff a0 	movl   $0xf2db99a0,-0x101c(%rbp)
    5fc0:	99 db f2 
    5fc3:	c6 85 8c ee ff ff 00 	movb   $0x0,-0x1174(%rbp)
    5fca:	c7 85 24 ef ff ff 00 	movl   $0x0,-0x10dc(%rbp)
    5fd1:	00 00 00 
    5fd4:	eb 1e                	jmp    5ff4 <func_1+0x283f>
    5fd6:	8b 85 24 ef ff ff    	mov    -0x10dc(%rbp),%eax
    5fdc:	48 98                	cltq   
    5fde:	48 8d 15 db 1a 01 00 	lea    0x11adb(%rip),%rdx        # 17ac0 <g_106>
    5fe5:	48 89 94 c5 00 f4 ff 	mov    %rdx,-0xc00(%rbp,%rax,8)
    5fec:	ff 
    5fed:	83 85 24 ef ff ff 01 	addl   $0x1,-0x10dc(%rbp)
    5ff4:	83 bd 24 ef ff ff 02 	cmpl   $0x2,-0x10dc(%rbp)
    5ffb:	7e d9                	jle    5fd6 <func_1+0x2821>
    5ffd:	48 c7 85 58 f0 ff ff 	movq   $0x0,-0xfa8(%rbp)
    6004:	00 00 00 00 
    6008:	e9 3e 03 00 00       	jmpq   634b <func_1+0x2b96>
    600d:	c7 85 60 f5 ff ff 3a 	movl   $0x4604f33a,-0xaa0(%rbp)
    6014:	f3 04 46 
    6017:	c7 85 64 f5 ff ff 3a 	movl   $0x4604f33a,-0xa9c(%rbp)
    601e:	f3 04 46 
    6021:	c7 85 68 f5 ff ff 3a 	movl   $0x4604f33a,-0xa98(%rbp)
    6028:	f3 04 46 
    602b:	c7 85 6c f5 ff ff 3a 	movl   $0x4604f33a,-0xa94(%rbp)
    6032:	f3 04 46 
    6035:	c7 85 70 f5 ff ff 3a 	movl   $0x4604f33a,-0xa90(%rbp)
    603c:	f3 04 46 
    603f:	c7 85 74 f5 ff ff 3a 	movl   $0x4604f33a,-0xa8c(%rbp)
    6046:	f3 04 46 
    6049:	c7 85 78 f5 ff ff 3a 	movl   $0x4604f33a,-0xa88(%rbp)
    6050:	f3 04 46 
    6053:	c7 85 7c f5 ff ff ff 	movl   $0xffffffff,-0xa84(%rbp)
    605a:	ff ff ff 
    605d:	c7 85 80 f5 ff ff ff 	movl   $0xffffffff,-0xa80(%rbp)
    6064:	ff ff ff 
    6067:	c7 85 84 f5 ff ff ff 	movl   $0xffffffff,-0xa7c(%rbp)
    606e:	ff ff ff 
    6071:	c7 85 88 f5 ff ff ff 	movl   $0xffffffff,-0xa78(%rbp)
    6078:	ff ff ff 
    607b:	c7 85 8c f5 ff ff ff 	movl   $0xffffffff,-0xa74(%rbp)
    6082:	ff ff ff 
    6085:	c7 85 90 f5 ff ff ff 	movl   $0xffffffff,-0xa70(%rbp)
    608c:	ff ff ff 
    608f:	c7 85 94 f5 ff ff ff 	movl   $0xffffffff,-0xa6c(%rbp)
    6096:	ff ff ff 
    6099:	c7 85 98 f5 ff ff 3a 	movl   $0x4604f33a,-0xa68(%rbp)
    60a0:	f3 04 46 
    60a3:	c7 85 9c f5 ff ff 3a 	movl   $0x4604f33a,-0xa64(%rbp)
    60aa:	f3 04 46 
    60ad:	c7 85 a0 f5 ff ff 3a 	movl   $0x4604f33a,-0xa60(%rbp)
    60b4:	f3 04 46 
    60b7:	c7 85 a4 f5 ff ff 3a 	movl   $0x4604f33a,-0xa5c(%rbp)
    60be:	f3 04 46 
    60c1:	c7 85 a8 f5 ff ff 3a 	movl   $0x4604f33a,-0xa58(%rbp)
    60c8:	f3 04 46 
    60cb:	c7 85 ac f5 ff ff 3a 	movl   $0x4604f33a,-0xa54(%rbp)
    60d2:	f3 04 46 
    60d5:	c7 85 b0 f5 ff ff 3a 	movl   $0x4604f33a,-0xa50(%rbp)
    60dc:	f3 04 46 
    60df:	c7 85 b4 f5 ff ff ff 	movl   $0xffffffff,-0xa4c(%rbp)
    60e6:	ff ff ff 
    60e9:	c7 85 b8 f5 ff ff ff 	movl   $0xffffffff,-0xa48(%rbp)
    60f0:	ff ff ff 
    60f3:	c7 85 bc f5 ff ff ff 	movl   $0xffffffff,-0xa44(%rbp)
    60fa:	ff ff ff 
    60fd:	c7 85 c0 f5 ff ff ff 	movl   $0xffffffff,-0xa40(%rbp)
    6104:	ff ff ff 
    6107:	c7 85 c4 f5 ff ff ff 	movl   $0xffffffff,-0xa3c(%rbp)
    610e:	ff ff ff 
    6111:	c7 85 c8 f5 ff ff ff 	movl   $0xffffffff,-0xa38(%rbp)
    6118:	ff ff ff 
    611b:	c7 85 cc f5 ff ff ff 	movl   $0xffffffff,-0xa34(%rbp)
    6122:	ff ff ff 
    6125:	c7 85 e8 ef ff ff 07 	movl   $0x7,-0x1018(%rbp)
    612c:	00 00 00 
    612f:	48 8d 85 d0 f5 ff ff 	lea    -0xa30(%rbp),%rax
    6136:	48 8d 15 c3 cf 00 00 	lea    0xcfc3(%rip),%rdx        # 13100 <g_1644+0x10>
    613d:	b9 1f 00 00 00       	mov    $0x1f,%ecx
    6142:	48 89 c7             	mov    %rax,%rdi
    6145:	48 89 d6             	mov    %rdx,%rsi
    6148:	f3 48 a5             	rep movsq %ds:(%rsi),%es:(%rdi)
    614b:	48 89 f2             	mov    %rsi,%rdx
    614e:	48 89 f8             	mov    %rdi,%rax
    6151:	8b 0a                	mov    (%rdx),%ecx
    6153:	89 08                	mov    %ecx,(%rax)
    6155:	8b 85 d8 ef ff ff    	mov    -0x1028(%rbp),%eax
    615b:	23 85 dc ef ff ff    	and    -0x1024(%rbp),%eax
    6161:	85 c0                	test   %eax,%eax
    6163:	74 0b                	je     6170 <func_1+0x29bb>
    6165:	8b 85 60 f5 ff ff    	mov    -0xaa0(%rbp),%eax
    616b:	e9 68 2e 00 00       	jmpq   8fd8 <func_1+0x5823>
    6170:	48 8d 05 59 19 01 00 	lea    0x11959(%rip),%rax        # 17ad0 <g_190>
    6177:	48 89 85 50 f2 ff ff 	mov    %rax,-0xdb0(%rbp)
    617e:	48 c7 85 58 f2 ff ff 	movq   $0x0,-0xda8(%rbp)
    6185:	00 00 00 00 
    6189:	c7 85 ec ef ff ff e2 	movl   $0x7e05dde2,-0x1014(%rbp)
    6190:	dd 05 7e 
    6193:	48 8d 85 40 f0 ff ff 	lea    -0xfc0(%rbp),%rax
    619a:	48 89 85 60 f2 ff ff 	mov    %rax,-0xda0(%rbp)
    61a1:	48 8b 85 48 f0 ff ff 	mov    -0xfb8(%rbp),%rax
    61a8:	8b 10                	mov    (%rax),%edx
    61aa:	48 8b 85 48 f0 ff ff 	mov    -0xfb8(%rbp),%rax
    61b1:	0b 95 dc ef ff ff    	or     -0x1024(%rbp),%edx
    61b7:	89 10                	mov    %edx,(%rax)
    61b9:	c7 05 75 0e 01 00 16 	movl   $0x16,0x10e75(%rip)        # 17038 <g_99>
    61c0:	00 00 00 
    61c3:	e9 1c 01 00 00       	jmpq   62e4 <func_1+0x2b2f>
    61c8:	48 8d 05 01 19 01 00 	lea    0x11901(%rip),%rax        # 17ad0 <g_190>
    61cf:	48 89 85 68 f2 ff ff 	mov    %rax,-0xd98(%rbp)
    61d6:	48 8d 85 90 f0 ff ff 	lea    -0xf70(%rbp),%rax
    61dd:	48 89 85 70 f2 ff ff 	mov    %rax,-0xd90(%rbp)
    61e4:	c7 85 f0 ef ff ff f8 	movl   $0xfffffff8,-0x1010(%rbp)
    61eb:	ff ff ff 
    61ee:	c7 85 f4 ef ff ff 01 	movl   $0x1,-0x100c(%rbp)
    61f5:	00 00 00 
    61f8:	c7 85 f8 ef ff ff 2d 	movl   $0x535622d,-0x1008(%rbp)
    61ff:	62 35 05 
    6202:	c7 85 28 ef ff ff 00 	movl   $0x0,-0x10d8(%rbp)
    6209:	00 00 00 
    620c:	eb 1a                	jmp    6228 <func_1+0x2a73>
    620e:	8b 85 28 ef ff ff    	mov    -0x10d8(%rbp),%eax
    6214:	48 98                	cltq   
    6216:	c7 84 85 a0 f3 ff ff 	movl   $0xfffffff9,-0xc60(%rbp,%rax,4)
    621d:	f9 ff ff ff 
    6221:	83 85 28 ef ff ff 01 	addl   $0x1,-0x10d8(%rbp)
    6228:	83 bd 28 ef ff ff 01 	cmpl   $0x1,-0x10d8(%rbp)
    622f:	7e dd                	jle    620e <func_1+0x2a59>
    6231:	48 8b 05 f8 0e 01 00 	mov    0x10ef8(%rip),%rax        # 17130 <g_483+0x50>
    6238:	89 c6                	mov    %eax,%esi
    623a:	48 8b 85 50 f2 ff ff 	mov    -0xdb0(%rbp),%rax
    6241:	48 89 85 68 f2 ff ff 	mov    %rax,-0xd98(%rbp)
    6248:	48 83 bd 68 f2 ff ff 	cmpq   $0x0,-0xd98(%rbp)
    624f:	00 
    6250:	0f 94 c0             	sete   %al
    6253:	0f b6 d0             	movzbl %al,%edx
    6256:	48 8b 85 70 f2 ff ff 	mov    -0xd90(%rbp),%rax
    625d:	48 8d 0d 5c 0e 01 00 	lea    0x10e5c(%rip),%rcx        # 170c0 <g_299>
    6264:	48 89 08             	mov    %rcx,(%rax)
    6267:	48 8b 85 70 f2 ff ff 	mov    -0xd90(%rbp),%rax
    626e:	48 8b 00             	mov    (%rax),%rax
    6271:	48 39 85 58 f2 ff ff 	cmp    %rax,-0xda8(%rbp)
    6278:	0f 94 c0             	sete   %al
    627b:	0f b6 c0             	movzbl %al,%eax
    627e:	39 c2                	cmp    %eax,%edx
    6280:	0f 9d c0             	setge  %al
    6283:	0f b6 c0             	movzbl %al,%eax
    6286:	89 85 a4 f3 ff ff    	mov    %eax,-0xc5c(%rbp)
    628c:	8b 85 a4 f3 ff ff    	mov    -0xc5c(%rbp),%eax
    6292:	89 c7                	mov    %eax,%edi
    6294:	e8 66 c4 ff ff       	callq  26ff <safe_div_func_int32_t_s_s>
    6299:	89 c2                	mov    %eax,%edx
    629b:	8b 05 0b 11 01 00    	mov    0x1110b(%rip),%eax        # 173ac <g_1381>
    62a1:	39 c2                	cmp    %eax,%edx
    62a3:	0f 95 c0             	setne  %al
    62a6:	0f b6 c0             	movzbl %al,%eax
    62a9:	be 05 00 00 00       	mov    $0x5,%esi
    62ae:	89 c7                	mov    %eax,%edi
    62b0:	e8 d8 c9 ff ff       	callq  2c8d <safe_rshift_func_uint8_t_u_s>
    62b5:	0f b6 c0             	movzbl %al,%eax
    62b8:	21 85 f0 ef ff ff    	and    %eax,-0x1010(%rbp)
    62be:	0f b6 05 13 11 01 00 	movzbl 0x11113(%rip),%eax        # 173d8 <g_1511>
    62c5:	83 e8 01             	sub    $0x1,%eax
    62c8:	88 05 0a 11 01 00    	mov    %al,0x1110a(%rip)        # 173d8 <g_1511>
    62ce:	83 bd ec ef ff ff 00 	cmpl   $0x0,-0x1014(%rbp)
    62d5:	8b 05 5d 0d 01 00    	mov    0x10d5d(%rip),%eax        # 17038 <g_99>
    62db:	83 e8 01             	sub    $0x1,%eax
    62de:	89 05 54 0d 01 00    	mov    %eax,0x10d54(%rip)        # 17038 <g_99>
    62e4:	8b 05 4e 0d 01 00    	mov    0x10d4e(%rip),%eax        # 17038 <g_99>
    62ea:	83 f8 ed             	cmp    $0xffffffed,%eax
    62ed:	0f 84 d5 fe ff ff    	je     61c8 <func_1+0x2a13>
    62f3:	48 8b 95 08 f4 ff ff 	mov    -0xbf8(%rbp),%rdx
    62fa:	8b 85 ec ef ff ff    	mov    -0x1014(%rbp),%eax
    6300:	0f b6 c0             	movzbl %al,%eax
    6303:	83 e0 01             	and    $0x1,%eax
    6306:	89 c1                	mov    %eax,%ecx
    6308:	48 8b 85 60 f2 ff ff 	mov    -0xda0(%rbp),%rax
    630f:	48 89 c6             	mov    %rax,%rsi
    6312:	89 cf                	mov    %ecx,%edi
    6314:	e8 76 6a 00 00       	callq  cd8f <func_70>
    6319:	48 89 85 e0 fa ff ff 	mov    %rax,-0x520(%rbp)
    6320:	0f b6 85 8c ee ff ff 	movzbl -0x1174(%rbp),%eax
    6327:	83 e8 01             	sub    $0x1,%eax
    632a:	88 85 8c ee ff ff    	mov    %al,-0x1174(%rbp)
    6330:	48 8b 85 58 f0 ff ff 	mov    -0xfa8(%rbp),%rax
    6337:	be 03 00 00 00       	mov    $0x3,%esi
    633c:	48 89 c7             	mov    %rax,%rdi
    633f:	e8 ea cc ff ff       	callq  302e <safe_add_func_uint64_t_u_u>
    6344:	48 89 85 58 f0 ff ff 	mov    %rax,-0xfa8(%rbp)
    634b:	48 8b 85 58 f0 ff ff 	mov    -0xfa8(%rbp),%rax
    6352:	48 83 f8 1b          	cmp    $0x1b,%rax
    6356:	0f 8e b1 fc ff ff    	jle    600d <func_1+0x2858>
    635c:	c7 05 46 10 01 00 12 	movl   $0x12,0x11046(%rip)        # 173ac <g_1381>
    6363:	00 00 00 
    6366:	90                   	nop
    6367:	8b 05 3f 10 01 00    	mov    0x1103f(%rip),%eax        # 173ac <g_1381>
    636d:	83 f8 29             	cmp    $0x29,%eax
    6370:	76 0f                	jbe    6381 <func_1+0x2bcc>
    6372:	48 8d 05 d2 0f 01 00 	lea    0x10fd2(%rip),%rax        # 1734b <g_982+0xb>
    6379:	0f b6 00             	movzbl (%rax),%eax
    637c:	e9 57 2c 00 00       	jmpq   8fd8 <func_1+0x5823>
    6381:	48 8b 05 38 17 01 00 	mov    0x11738(%rip),%rax        # 17ac0 <g_106>
    6388:	0f b6 00             	movzbl (%rax),%eax
    638b:	0f b6 d8             	movzbl %al,%ebx
    638e:	8b 15 00 0d 01 00    	mov    0x10d00(%rip),%edx        # 17094 <g_273+0x14>
    6394:	8b 05 56 0f 01 00    	mov    0x10f56(%rip),%eax        # 172f0 <g_771+0x10>
    639a:	21 d0                	and    %edx,%eax
    639c:	89 05 4e 0f 01 00    	mov    %eax,0x10f4e(%rip)        # 172f0 <g_771+0x10>
    63a2:	be 00 00 00 00       	mov    $0x0,%esi
    63a7:	bf 01 00 00 00       	mov    $0x1,%edi
    63ac:	e8 f0 be ff ff       	callq  22a1 <safe_lshift_func_int8_t_s_s>
    63b1:	66 98                	cbtw   
    63b3:	0f b7 d0             	movzwl %ax,%edx
    63b6:	48 8b 85 48 f0 ff ff 	mov    -0xfb8(%rbp),%rax
    63bd:	8b 00                	mov    (%rax),%eax
    63bf:	0f b7 c0             	movzwl %ax,%eax
    63c2:	89 d6                	mov    %edx,%esi
    63c4:	89 c7                	mov    %eax,%edi
    63c6:	e8 91 c9 ff ff       	callq  2d5c <safe_mod_func_uint16_t_u_u>
    63cb:	48 8b 05 fe 18 01 00 	mov    0x118fe(%rip),%rax        # 17cd0 <g_980>
    63d2:	48 8b 00             	mov    (%rax),%rax
    63d5:	0f b6 00             	movzbl (%rax),%eax
    63d8:	44 0f be e0          	movsbl %al,%r12d
    63dc:	48 8b 85 48 f0 ff ff 	mov    -0xfb8(%rbp),%rax
    63e3:	8b 00                	mov    (%rax),%eax
    63e5:	83 f8 f8             	cmp    $0xfffffff8,%eax
    63e8:	0f 9c c0             	setl   %al
    63eb:	0f b6 d0             	movzbl %al,%edx
    63ee:	0f b6 85 a1 f4 ff ff 	movzbl -0xb5f(%rbp),%eax
    63f5:	0f b6 c0             	movzbl %al,%eax
    63f8:	48 89 d6             	mov    %rdx,%rsi
    63fb:	48 89 c7             	mov    %rax,%rdi
    63fe:	e8 f4 c5 ff ff       	callq  29f7 <safe_div_func_int64_t_s_s>
    6403:	0f be c0             	movsbl %al,%eax
    6406:	44 89 e6             	mov    %r12d,%esi
    6409:	89 c7                	mov    %eax,%edi
    640b:	e8 02 be ff ff       	callq  2212 <safe_mul_func_int8_t_s_s>
    6410:	84 c0                	test   %al,%al
    6412:	75 09                	jne    641d <func_1+0x2c68>
    6414:	83 bd d4 ef ff ff 00 	cmpl   $0x0,-0x102c(%rbp)
    641b:	74 07                	je     6424 <func_1+0x2c6f>
    641d:	b8 01 00 00 00       	mov    $0x1,%eax
    6422:	eb 05                	jmp    6429 <func_1+0x2c74>
    6424:	b8 00 00 00 00       	mov    $0x0,%eax
    6429:	0f b6 c0             	movzbl %al,%eax
    642c:	89 de                	mov    %ebx,%esi
    642e:	89 c7                	mov    %eax,%edi
    6430:	e8 79 c7 ff ff       	callq  2bae <safe_mod_func_uint8_t_u_u>
    6435:	0f b6 d0             	movzbl %al,%edx
    6438:	48 8b 05 89 16 01 00 	mov    0x11689(%rip),%rax        # 17ac8 <g_105>
    643f:	48 8b 00             	mov    (%rax),%rax
    6442:	0f b6 00             	movzbl (%rax),%eax
    6445:	0f be c0             	movsbl %al,%eax
    6448:	39 c2                	cmp    %eax,%edx
    644a:	0f 9f c2             	setg   %dl
    644d:	48 8b 05 5c 17 01 00 	mov    0x1175c(%rip),%rax        # 17bb0 <g_385>
    6454:	0f b6 d2             	movzbl %dl,%edx
    6457:	89 10                	mov    %edx,(%rax)
    6459:	e9 74 2b 00 00       	jmpq   8fd2 <func_1+0x581d>
    645e:	66 c7 85 94 ee ff ff 	movw   $0x6d04,-0x116c(%rbp)
    6465:	04 6d 
    6467:	c7 85 c8 ee ff ff f6 	movl   $0xfffffff6,-0x1138(%rbp)
    646e:	ff ff ff 
    6471:	c7 85 cc ee ff ff 00 	movl   $0x0,-0x1134(%rbp)
    6478:	00 00 00 
    647b:	48 c7 85 68 f0 ff ff 	movq   $0x1,-0xf98(%rbp)
    6482:	01 00 00 00 
    6486:	c7 85 d0 ee ff ff 04 	movl   $0x4,-0x1130(%rbp)
    648d:	00 00 00 
    6490:	c7 85 d4 ee ff ff 08 	movl   $0x8,-0x112c(%rbp)
    6497:	00 00 00 
    649a:	c7 85 d8 ee ff ff ff 	movl   $0xffffffff,-0x1128(%rbp)
    64a1:	ff ff ff 
    64a4:	c7 85 dc ee ff ff 8e 	movl   $0x3eea2e8e,-0x1124(%rbp)
    64ab:	2e ea 3e 
    64ae:	c7 85 e0 ee ff ff 0e 	movl   $0x185ed0e,-0x1120(%rbp)
    64b5:	ed 85 01 
    64b8:	c7 85 e4 ee ff ff fc 	movl   $0xfffffffc,-0x111c(%rbp)
    64bf:	ff ff ff 
    64c2:	48 8d 05 ff 15 01 00 	lea    0x115ff(%rip),%rax        # 17ac8 <g_105>
    64c9:	48 89 85 e8 f0 ff ff 	mov    %rax,-0xf18(%rbp)
    64d0:	48 8d 05 f9 17 01 00 	lea    0x117f9(%rip),%rax        # 17cd0 <g_980>
    64d7:	48 89 85 f0 f0 ff ff 	mov    %rax,-0xf10(%rbp)
    64de:	c6 85 8e ee ff ff ff 	movb   $0xff,-0x1172(%rbp)
    64e5:	48 8d 85 58 f0 ff ff 	lea    -0xfa8(%rbp),%rax
    64ec:	48 89 85 f8 f0 ff ff 	mov    %rax,-0xf08(%rbp)
    64f3:	0f b7 85 94 ee ff ff 	movzwl -0x116c(%rbp),%eax
    64fa:	83 e8 01             	sub    $0x1,%eax
    64fd:	66 89 85 94 ee ff ff 	mov    %ax,-0x116c(%rbp)
    6504:	c6 05 cd 0e 01 00 00 	movb   $0x0,0x10ecd(%rip)        # 173d8 <g_1511>
    650b:	e9 b3 2a 00 00       	jmpq   8fc3 <func_1+0x580e>
    6510:	66 c7 85 9a ee ff ff 	movw   $0x8,-0x1166(%rbp)
    6517:	08 00 
    6519:	48 8d 85 60 f4 ff ff 	lea    -0xba0(%rbp),%rax
    6520:	48 83 c0 1a          	add    $0x1a,%rax
    6524:	48 89 85 00 f1 ff ff 	mov    %rax,-0xf00(%rbp)
    652b:	48 c7 85 08 f1 ff ff 	movq   $0x0,-0xef8(%rbp)
    6532:	00 00 00 00 
    6536:	48 c7 85 10 f1 ff ff 	movq   $0x0,-0xef0(%rbp)
    653d:	00 00 00 00 
    6541:	66 c7 85 9c ee ff ff 	movw   $0x0,-0x1164(%rbp)
    6548:	00 00 
    654a:	c7 85 6c ef ff ff 82 	movl   $0xa162bc82,-0x1094(%rbp)
    6551:	bc 62 a1 
    6554:	48 8d 85 50 f0 ff ff 	lea    -0xfb0(%rbp),%rax
    655b:	48 89 85 18 f1 ff ff 	mov    %rax,-0xee8(%rbp)
    6562:	48 c7 85 20 f1 ff ff 	movq   $0x0,-0xee0(%rbp)
    6569:	00 00 00 00 
    656d:	48 8d 05 14 0d 01 00 	lea    0x10d14(%rip),%rax        # 17288 <g_572>
    6574:	48 89 85 28 f1 ff ff 	mov    %rax,-0xed8(%rbp)
    657b:	c7 85 70 ef ff ff 00 	movl   $0x0,-0x1090(%rbp)
    6582:	00 00 00 
    6585:	c7 85 74 ef ff ff ff 	movl   $0xffffffff,-0x108c(%rbp)
    658c:	ff ff ff 
    658f:	c7 85 e8 ee ff ff e6 	movl   $0x28cd42e6,-0x1118(%rbp)
    6596:	42 cd 28 
    6599:	c7 85 ec ee ff ff ff 	movl   $0xffffffff,-0x1114(%rbp)
    65a0:	ff ff ff 
    65a3:	c7 85 f0 ee ff ff 01 	movl   $0x1,-0x1110(%rbp)
    65aa:	00 00 00 
    65ad:	c7 85 78 ef ff ff fb 	movl   $0xeb8022fb,-0x1088(%rbp)
    65b4:	22 80 eb 
    65b7:	c7 85 7c ef ff ff 41 	movl   $0xb887dc41,-0x1084(%rbp)
    65be:	dc 87 b8 
    65c1:	48 8d 05 08 0b 01 00 	lea    0x10b08(%rip),%rax        # 170d0 <g_469>
    65c8:	48 89 85 30 f1 ff ff 	mov    %rax,-0xed0(%rbp)
    65cf:	66 c7 85 9e ee ff ff 	movw   $0x6,-0x1162(%rbp)
    65d6:	06 00 
    65d8:	66 c7 85 a0 ee ff ff 	movw   $0x840b,-0x1160(%rbp)
    65df:	0b 84 
    65e1:	48 8d 05 f0 14 01 00 	lea    0x114f0(%rip),%rax        # 17ad8 <g_189>
    65e8:	48 89 85 38 f1 ff ff 	mov    %rax,-0xec8(%rbp)
    65ef:	48 8d 85 30 f4 ff ff 	lea    -0xbd0(%rbp),%rax
    65f6:	48 83 c0 18          	add    $0x18,%rax
    65fa:	48 89 85 40 f1 ff ff 	mov    %rax,-0xec0(%rbp)
    6601:	48 c7 85 48 f1 ff ff 	movq   $0x0,-0xeb8(%rbp)
    6608:	00 00 00 00 
    660c:	48 c7 85 50 f1 ff ff 	movq   $0x0,-0xeb0(%rbp)
    6613:	00 00 00 00 
    6617:	48 c7 85 58 f1 ff ff 	movq   $0x0,-0xea8(%rbp)
    661e:	00 00 00 00 
    6622:	48 8d 85 c0 ee ff ff 	lea    -0x1140(%rbp),%rax
    6629:	48 89 85 60 f1 ff ff 	mov    %rax,-0xea0(%rbp)
    6630:	48 c7 85 68 f1 ff ff 	movq   $0x0,-0xe98(%rbp)
    6637:	00 00 00 00 
    663b:	48 8d 85 c8 ee ff ff 	lea    -0x1138(%rbp),%rax
    6642:	48 89 85 70 f1 ff ff 	mov    %rax,-0xe90(%rbp)
    6649:	48 8d 85 f0 ee ff ff 	lea    -0x1110(%rbp),%rax
    6650:	48 89 85 78 f1 ff ff 	mov    %rax,-0xe88(%rbp)
    6657:	c7 85 20 ef ff ff 00 	movl   $0x0,-0x10e0(%rbp)
    665e:	00 00 00 
    6661:	eb 1e                	jmp    6681 <func_1+0x2ecc>
    6663:	8b 85 20 ef ff ff    	mov    -0x10e0(%rbp),%eax
    6669:	48 98                	cltq   
    666b:	48 8d 15 02 0a 01 00 	lea    0x10a02(%rip),%rdx        # 17074 <g_254>
    6672:	48 89 94 c5 20 f5 ff 	mov    %rdx,-0xae0(%rbp,%rax,8)
    6679:	ff 
    667a:	83 85 20 ef ff ff 01 	addl   $0x1,-0x10e0(%rbp)
    6681:	83 bd 20 ef ff ff 00 	cmpl   $0x0,-0x10e0(%rbp)
    6688:	7e d9                	jle    6663 <func_1+0x2eae>
    668a:	c7 85 20 ef ff ff 00 	movl   $0x0,-0x10e0(%rbp)
    6691:	00 00 00 
    6694:	eb 1a                	jmp    66b0 <func_1+0x2efb>
    6696:	8b 85 20 ef ff ff    	mov    -0x10e0(%rbp),%eax
    669c:	48 98                	cltq   
    669e:	c7 84 85 d0 f5 ff ff 	movl   $0xd6a9a81d,-0xa30(%rbp,%rax,4)
    66a5:	1d a8 a9 d6 
    66a9:	83 85 20 ef ff ff 01 	addl   $0x1,-0x10e0(%rbp)
    66b0:	83 bd 20 ef ff ff 02 	cmpl   $0x2,-0x10e0(%rbp)
    66b7:	7e dd                	jle    6696 <func_1+0x2ee1>
    66b9:	0f b7 85 9a ee ff ff 	movzwl -0x1166(%rbp),%eax
    66c0:	0f b6 d0             	movzbl %al,%edx
    66c3:	0f bf b5 9a ee ff ff 	movswl -0x1166(%rbp),%esi
    66ca:	48 8d 05 7a 0c 01 00 	lea    0x10c7a(%rip),%rax        # 1734b <g_982+0xb>
    66d1:	0f b6 00             	movzbl (%rax),%eax
    66d4:	0f be f8             	movsbl %al,%edi
    66d7:	48 8b 85 48 f0 ff ff 	mov    -0xfb8(%rbp),%rax
    66de:	8b 00                	mov    (%rax),%eax
    66e0:	89 c1                	mov    %eax,%ecx
    66e2:	0f b6 05 41 0c 01 00 	movzbl 0x10c41(%rip),%eax        # 1732a <g_969>
    66e9:	66 98                	cbtw   
    66eb:	09 c8                	or     %ecx,%eax
    66ed:	41 89 c0             	mov    %eax,%r8d
    66f0:	48 8b 85 00 f1 ff ff 	mov    -0xf00(%rbp),%rax
    66f7:	66 c7 00 00 00       	movw   $0x0,(%rax)
    66fc:	48 8b 85 00 f1 ff ff 	mov    -0xf00(%rbp),%rax
    6703:	0f b7 00             	movzwl (%rax),%eax
    6706:	66 89 05 67 09 01 00 	mov    %ax,0x10967(%rip)        # 17074 <g_254>
    670d:	0f b7 05 60 09 01 00 	movzwl 0x10960(%rip),%eax        # 17074 <g_254>
    6714:	83 c8 01             	or     $0x1,%eax
    6717:	48 0f bf c8          	movswq %ax,%rcx
    671b:	48 8b 85 d0 f0 ff ff 	mov    -0xf30(%rbp),%rax
    6722:	48 89 08             	mov    %rcx,(%rax)
    6725:	48 8b 85 d0 f0 ff ff 	mov    -0xf30(%rbp),%rax
    672c:	48 8b 00             	mov    (%rax),%rax
    672f:	44 89 c1             	mov    %r8d,%ecx
    6732:	31 c1                	xor    %eax,%ecx
    6734:	48 8b 85 c0 f0 ff ff 	mov    -0xf40(%rbp),%rax
    673b:	66 89 08             	mov    %cx,(%rax)
    673e:	48 8b 85 c0 f0 ff ff 	mov    -0xf40(%rbp),%rax
    6745:	0f b7 00             	movzwl (%rax),%eax
    6748:	0f b7 c8             	movzwl %ax,%ecx
    674b:	44 0f bf 85 9a ee ff 	movswl -0x1166(%rbp),%r8d
    6752:	ff 
    6753:	8b 05 77 09 01 00    	mov    0x10977(%rip),%eax        # 170d0 <g_469>
    6759:	41 39 c0             	cmp    %eax,%r8d
    675c:	0f 96 c0             	setbe  %al
    675f:	0f b6 c0             	movzbl %al,%eax
    6762:	21 c8                	and    %ecx,%eax
    6764:	39 c7                	cmp    %eax,%edi
    6766:	0f 9c c0             	setl   %al
    6769:	0f b6 c0             	movzbl %al,%eax
    676c:	39 c6                	cmp    %eax,%esi
    676e:	0f 9f c0             	setg   %al
    6771:	0f b6 c8             	movzbl %al,%ecx
    6774:	0f b7 85 94 ee ff ff 	movzwl -0x116c(%rbp),%eax
    677b:	0f b7 c0             	movzwl %ax,%eax
    677e:	39 c1                	cmp    %eax,%ecx
    6780:	0f 9d c0             	setge  %al
    6783:	0f b6 c0             	movzbl %al,%eax
    6786:	89 d6                	mov    %edx,%esi
    6788:	89 c7                	mov    %eax,%edi
    678a:	e8 4c c4 ff ff       	callq  2bdb <safe_div_func_uint8_t_u_u>
    678f:	84 c0                	test   %al,%al
    6791:	0f 84 23 03 00 00    	je     6aba <func_1+0x3305>
    6797:	c7 85 b0 ef ff ff e3 	movl   $0x8bb287e3,-0x1050(%rbp)
    679e:	87 b2 8b 
    67a1:	c7 85 1c ef ff ff 00 	movl   $0x0,-0x10e4(%rbp)
    67a8:	00 00 00 
    67ab:	eb 1a                	jmp    67c7 <func_1+0x3012>
    67ad:	8b 85 1c ef ff ff    	mov    -0x10e4(%rbp),%eax
    67b3:	48 98                	cltq   
    67b5:	c7 84 85 40 f8 ff ff 	movl   $0x0,-0x7c0(%rbp,%rax,4)
    67bc:	00 00 00 00 
    67c0:	83 85 1c ef ff ff 01 	addl   $0x1,-0x10e4(%rbp)
    67c7:	83 bd 1c ef ff ff 07 	cmpl   $0x7,-0x10e4(%rbp)
    67ce:	7e dd                	jle    67ad <func_1+0x2ff8>
    67d0:	c7 85 b4 ee ff ff 00 	movl   $0x0,-0x114c(%rbp)
    67d7:	00 00 00 
    67da:	90                   	nop
    67db:	8b 85 b4 ee ff ff    	mov    -0x114c(%rbp),%eax
    67e1:	83 f8 fc             	cmp    $0xfffffffc,%eax
    67e4:	0f 8d 2c 21 00 00    	jge    8916 <func_1+0x5161>
    67ea:	66 c7 85 a4 ee ff ff 	movw   $0xfffb,-0x115c(%rbp)
    67f1:	fb ff 
    67f3:	48 8d 05 fe 0a 01 00 	lea    0x10afe(%rip),%rax        # 172f8 <g_771+0x18>
    67fa:	48 89 85 f0 f1 ff ff 	mov    %rax,-0xe10(%rbp)
    6801:	48 8d 85 a8 ee ff ff 	lea    -0x1158(%rbp),%rax
    6808:	48 89 85 f8 f1 ff ff 	mov    %rax,-0xe08(%rbp)
    680f:	0f b7 05 ee 0a 01 00 	movzwl 0x10aee(%rip),%eax        # 17304 <g_796>
    6816:	0f b7 d8             	movzwl %ax,%ebx
    6819:	0f b6 05 60 0a 01 00 	movzbl 0x10a60(%rip),%eax        # 17280 <g_550>
    6820:	44 0f b6 e0          	movzbl %al,%r12d
    6824:	48 8b 85 f0 f1 ff ff 	mov    -0xe10(%rbp),%rax
    682b:	c7 00 6a c3 cf c3    	movl   $0xc3cfc36a,(%rax)
    6831:	0f b7 95 a4 ee ff ff 	movzwl -0x115c(%rbp),%edx
    6838:	0f bf 85 9a ee ff ff 	movswl -0x1166(%rbp),%eax
    683f:	39 c2                	cmp    %eax,%edx
    6841:	0f 9f c0             	setg   %al
    6844:	89 c2                	mov    %eax,%edx
    6846:	8b 85 40 f8 ff ff    	mov    -0x7c0(%rbp),%eax
    684c:	09 d0                	or     %edx,%eax
    684e:	0f be c0             	movsbl %al,%eax
    6851:	be 9f ff ff ff       	mov    $0xffffff9f,%esi
    6856:	89 c7                	mov    %eax,%edi
    6858:	e8 95 b9 ff ff       	callq  21f2 <safe_sub_func_int8_t_s_s>
    685d:	66 98                	cbtw   
    685f:	0f b7 d0             	movzwl %ax,%edx
    6862:	0f b7 85 9a ee ff ff 	movzwl -0x1166(%rbp),%eax
    6869:	0f b7 c0             	movzwl %ax,%eax
    686c:	89 d6                	mov    %edx,%esi
    686e:	89 c7                	mov    %eax,%edi
    6870:	e8 c8 c4 ff ff       	callq  2d3d <safe_mul_func_uint16_t_u_u>
    6875:	0f b7 d0             	movzwl %ax,%edx
    6878:	48 8b 85 48 f0 ff ff 	mov    -0xfb8(%rbp),%rax
    687f:	8b 00                	mov    (%rax),%eax
    6881:	39 c2                	cmp    %eax,%edx
    6883:	7f 12                	jg     6897 <func_1+0x30e2>
    6885:	8b 85 40 f8 ff ff    	mov    -0x7c0(%rbp),%eax
    688b:	85 c0                	test   %eax,%eax
    688d:	74 08                	je     6897 <func_1+0x30e2>
    688f:	66 83 bd a4 ee ff ff 	cmpw   $0x0,-0x115c(%rbp)
    6896:	00 
    6897:	44 89 e6             	mov    %r12d,%esi
    689a:	bf 01 00 00 00       	mov    $0x1,%edi
    689f:	e8 2f bb ff ff       	callq  23d3 <safe_sub_func_int16_t_s_s>
    68a4:	0f bf d0             	movswl %ax,%edx
    68a7:	8b 85 40 f8 ff ff    	mov    -0x7c0(%rbp),%eax
    68ad:	31 d0                	xor    %edx,%eax
    68af:	48 98                	cltq   
    68b1:	48 89 de             	mov    %rbx,%rsi
    68b4:	48 89 c7             	mov    %rax,%rdi
    68b7:	e8 c4 c7 ff ff       	callq  3080 <safe_mod_func_uint64_t_u_u>
    68bc:	48 89 c2             	mov    %rax,%rdx
    68bf:	48 8d 05 85 0a 01 00 	lea    0x10a85(%rip),%rax        # 1734b <g_982+0xb>
    68c6:	0f b6 00             	movzbl (%rax),%eax
    68c9:	89 c1                	mov    %eax,%ecx
    68cb:	89 d0                	mov    %edx,%eax
    68cd:	31 c1                	xor    %eax,%ecx
    68cf:	89 ca                	mov    %ecx,%edx
    68d1:	48 8d 05 73 0a 01 00 	lea    0x10a73(%rip),%rax        # 1734b <g_982+0xb>
    68d8:	88 10                	mov    %dl,(%rax)
    68da:	0f b6 00             	movzbl (%rax),%eax
    68dd:	0f be d0             	movsbl %al,%edx
    68e0:	48 8d 05 56 07 01 00 	lea    0x10756(%rip),%rax        # 1703d <g_124>
    68e7:	48 39 85 e0 f0 ff ff 	cmp    %rax,-0xf20(%rbp)
    68ee:	0f 94 c1             	sete   %cl
    68f1:	0f b7 85 94 ee ff ff 	movzwl -0x116c(%rbp),%eax
    68f8:	66 39 85 a4 ee ff ff 	cmp    %ax,-0x115c(%rbp)
    68ff:	0f 94 c0             	sete   %al
    6902:	21 c8                	and    %ecx,%eax
    6904:	0f b6 c0             	movzbl %al,%eax
    6907:	89 d6                	mov    %edx,%esi
    6909:	89 c7                	mov    %eax,%edi
    690b:	e8 21 b9 ff ff       	callq  2231 <safe_mod_func_int8_t_s_s>
    6910:	0f be d0             	movsbl %al,%edx
    6913:	8b 05 0f 07 01 00    	mov    0x1070f(%rip),%eax        # 17028 <g_52>
    6919:	09 c2                	or     %eax,%edx
    691b:	8b 85 c8 ee ff ff    	mov    -0x1138(%rbp),%eax
    6921:	31 d0                	xor    %edx,%eax
    6923:	89 85 c8 ee ff ff    	mov    %eax,-0x1138(%rbp)
    6929:	0f b7 85 94 ee ff ff 	movzwl -0x116c(%rbp),%eax
    6930:	44 0f b7 f8          	movzwl %ax,%r15d
    6934:	0f b7 85 a4 ee ff ff 	movzwl -0x115c(%rbp),%eax
    693b:	0f bf d8             	movswl %ax,%ebx
    693e:	44 0f b7 a5 a4 ee ff 	movzwl -0x115c(%rbp),%r12d
    6945:	ff 
    6946:	0f b7 85 a4 ee ff ff 	movzwl -0x115c(%rbp),%eax
    694d:	0f be d0             	movsbl %al,%edx
    6950:	48 8b 05 89 0a 01 00 	mov    0x10a89(%rip),%rax        # 173e0 <g_1587>
    6957:	66 83 bd a4 ee ff ff 	cmpw   $0x1,-0x115c(%rbp)
    695e:	01 
    695f:	0f 94 c0             	sete   %al
    6962:	0f b6 c0             	movzbl %al,%eax
    6965:	89 d6                	mov    %edx,%esi
    6967:	89 c7                	mov    %eax,%edi
    6969:	e8 c3 b8 ff ff       	callq  2231 <safe_mod_func_int8_t_s_s>
    696e:	0f be d0             	movsbl %al,%edx
    6971:	48 8b 85 48 f0 ff ff 	mov    -0xfb8(%rbp),%rax
    6978:	8b 00                	mov    (%rax),%eax
    697a:	39 c2                	cmp    %eax,%edx
    697c:	0f 9c c0             	setl   %al
    697f:	44 0f b6 e8          	movzbl %al,%r13d
    6983:	8b 85 c8 ee ff ff    	mov    -0x1138(%rbp),%eax
    6989:	83 f8 01             	cmp    $0x1,%eax
    698c:	0f 9f c0             	setg   %al
    698f:	44 0f b6 f0          	movzbl %al,%r14d
    6993:	8b 85 40 f8 ff ff    	mov    -0x7c0(%rbp),%eax
    6999:	0f b6 c0             	movzbl %al,%eax
    699c:	be 02 00 00 00       	mov    $0x2,%esi
    69a1:	89 c7                	mov    %eax,%edi
    69a3:	e8 5d c2 ff ff       	callq  2c05 <safe_lshift_func_uint8_t_u_s>
    69a8:	0f b6 d0             	movzbl %al,%edx
    69ab:	48 8b 85 d0 f0 ff ff 	mov    -0xf30(%rbp),%rax
    69b2:	48 89 10             	mov    %rdx,(%rax)
    69b5:	48 8b 85 d0 f0 ff ff 	mov    -0xf30(%rbp),%rax
    69bc:	48 8b 00             	mov    (%rax),%rax
    69bf:	4c 89 f6             	mov    %r14,%rsi
    69c2:	48 89 c7             	mov    %rax,%rdi
    69c5:	e8 64 c6 ff ff       	callq  302e <safe_add_func_uint64_t_u_u>
    69ca:	8b 95 b0 ef ff ff    	mov    -0x1050(%rbp),%edx
    69d0:	48 63 d2             	movslq %edx,%rdx
    69d3:	48 39 d0             	cmp    %rdx,%rax
    69d6:	0f 97 c0             	seta   %al
    69d9:	0f b6 c0             	movzbl %al,%eax
    69dc:	44 89 ee             	mov    %r13d,%esi
    69df:	89 c7                	mov    %eax,%edi
    69e1:	e8 a7 c2 ff ff       	callq  2c8d <safe_rshift_func_uint8_t_u_s>
    69e6:	0f b6 c0             	movzbl %al,%eax
    69e9:	44 89 e6             	mov    %r12d,%esi
    69ec:	89 c7                	mov    %eax,%edi
    69ee:	e8 cb c2 ff ff       	callq  2cbe <safe_rshift_func_uint8_t_u_u>
    69f3:	84 c0                	test   %al,%al
    69f5:	74 11                	je     6a08 <func_1+0x3253>
    69f7:	8b 05 e7 08 01 00    	mov    0x108e7(%rip),%eax        # 172e4 <g_771+0x4>
    69fd:	85 c0                	test   %eax,%eax
    69ff:	74 07                	je     6a08 <func_1+0x3253>
    6a01:	ba 01 00 00 00       	mov    $0x1,%edx
    6a06:	eb 05                	jmp    6a0d <func_1+0x3258>
    6a08:	ba 00 00 00 00       	mov    $0x0,%edx
    6a0d:	0f b7 85 9a ee ff ff 	movzwl -0x1166(%rbp),%eax
    6a14:	89 c1                	mov    %eax,%ecx
    6a16:	48 8b 85 e0 f0 ff ff 	mov    -0xf20(%rbp),%rax
    6a1d:	88 08                	mov    %cl,(%rax)
    6a1f:	48 8b 85 e0 f0 ff ff 	mov    -0xf20(%rbp),%rax
    6a26:	0f b6 00             	movzbl (%rax),%eax
    6a29:	0f b6 c0             	movzbl %al,%eax
    6a2c:	89 d6                	mov    %edx,%esi
    6a2e:	89 c7                	mov    %eax,%edi
    6a30:	e8 58 c2 ff ff       	callq  2c8d <safe_rshift_func_uint8_t_u_s>
    6a35:	0f b6 d0             	movzbl %al,%edx
    6a38:	0f b7 05 35 06 01 00 	movzwl 0x10635(%rip),%eax        # 17074 <g_254>
    6a3f:	09 d0                	or     %edx,%eax
    6a41:	66 89 05 2c 06 01 00 	mov    %ax,0x1062c(%rip)        # 17074 <g_254>
    6a48:	0f b7 05 25 06 01 00 	movzwl 0x10625(%rip),%eax        # 17074 <g_254>
    6a4f:	98                   	cwtl   
    6a50:	89 de                	mov    %ebx,%esi
    6a52:	89 c7                	mov    %eax,%edi
    6a54:	e8 fc b9 ff ff       	callq  2455 <safe_div_func_int16_t_s_s>
    6a59:	98                   	cwtl   
    6a5a:	44 31 f8             	xor    %r15d,%eax
    6a5d:	39 85 b0 ef ff ff    	cmp    %eax,-0x1050(%rbp)
    6a63:	0f 94 c0             	sete   %al
    6a66:	0f b6 d0             	movzbl %al,%edx
    6a69:	48 8b 85 f8 f1 ff ff 	mov    -0xe08(%rbp),%rax
    6a70:	8b 00                	mov    (%rax),%eax
    6a72:	31 c2                	xor    %eax,%edx
    6a74:	48 8b 85 f8 f1 ff ff 	mov    -0xe08(%rbp),%rax
    6a7b:	89 10                	mov    %edx,(%rax)
    6a7d:	48 8b 85 f8 f1 ff ff 	mov    -0xe08(%rbp),%rax
    6a84:	8b 00                	mov    (%rax),%eax
    6a86:	83 f8 ff             	cmp    $0xffffffff,%eax
    6a89:	8b 95 58 f8 ff ff    	mov    -0x7a8(%rbp),%edx
    6a8f:	0f bf 85 9a ee ff ff 	movswl -0x1166(%rbp),%eax
    6a96:	39 c2                	cmp    %eax,%edx
    6a98:	0f 9e c0             	setle  %al
    6a9b:	0f b6 c0             	movzbl %al,%eax
    6a9e:	66 89 85 9c ee ff ff 	mov    %ax,-0x1164(%rbp)
    6aa5:	48 8b 05 2c 12 01 00 	mov    0x1122c(%rip),%rax        # 17cd8 <g_979>
    6aac:	48 8b 00             	mov    (%rax),%rax
    6aaf:	48 8b 00             	mov    (%rax),%rax
    6ab2:	0f b6 00             	movzbl (%rax),%eax
    6ab5:	e9 1e 25 00 00       	jmpq   8fd8 <func_1+0x5823>
    6aba:	48 c7 85 80 f1 ff ff 	movq   $0x0,-0xe80(%rbp)
    6ac1:	00 00 00 00 
    6ac5:	48 8d 05 64 06 01 00 	lea    0x10664(%rip),%rax        # 17130 <g_483+0x50>
    6acc:	48 89 85 88 f1 ff ff 	mov    %rax,-0xe78(%rbp)
    6ad3:	c7 85 80 ef ff ff 8b 	movl   $0x8b4a658b,-0x1080(%rbp)
    6ada:	65 4a 8b 
    6add:	48 8d 85 d0 f5 ff ff 	lea    -0xa30(%rbp),%rax
    6ae4:	48 89 85 70 f0 ff ff 	mov    %rax,-0xf90(%rbp)
    6aeb:	48 8d 85 70 f0 ff ff 	lea    -0xf90(%rbp),%rax
    6af2:	48 89 85 78 f0 ff ff 	mov    %rax,-0xf88(%rbp)
    6af9:	48 8d 85 78 f0 ff ff 	lea    -0xf88(%rbp),%rax
    6b00:	48 89 85 80 f0 ff ff 	mov    %rax,-0xf80(%rbp)
    6b07:	48 8d 85 80 f0 ff ff 	lea    -0xf80(%rbp),%rax
    6b0e:	48 89 85 88 f0 ff ff 	mov    %rax,-0xf78(%rbp)
    6b15:	48 8d 85 88 f0 ff ff 	lea    -0xf78(%rbp),%rax
    6b1c:	48 89 85 90 f1 ff ff 	mov    %rax,-0xe70(%rbp)
    6b23:	66 c7 85 a2 ee ff ff 	movw   $0x8451,-0x115e(%rbp)
    6b2a:	51 84 
    6b2c:	c7 85 84 ef ff ff 01 	movl   $0x1,-0x107c(%rbp)
    6b33:	00 00 00 
    6b36:	c7 85 f4 ee ff ff 04 	movl   $0x4,-0x110c(%rbp)
    6b3d:	00 00 00 
    6b40:	c7 85 88 ef ff ff 00 	movl   $0x0,-0x1078(%rbp)
    6b47:	00 00 00 
    6b4a:	c7 85 f8 ee ff ff 65 	movl   $0x4b11b065,-0x1108(%rbp)
    6b51:	b0 11 4b 
    6b54:	c7 85 fc ee ff ff 31 	movl   $0xaf10a731,-0x1104(%rbp)
    6b5b:	a7 10 af 
    6b5e:	c7 85 00 ef ff ff 00 	movl   $0x0,-0x1100(%rbp)
    6b65:	00 00 00 
    6b68:	c7 85 04 ef ff ff 47 	movl   $0xcee73347,-0x10fc(%rbp)
    6b6f:	33 e7 ce 
    6b72:	c7 85 8c ef ff ff 08 	movl   $0x8,-0x1074(%rbp)
    6b79:	00 00 00 
    6b7c:	c7 85 08 ef ff ff 00 	movl   $0x0,-0x10f8(%rbp)
    6b83:	00 00 00 
    6b86:	c7 85 0c ef ff ff ff 	movl   $0xffffffff,-0x10f4(%rbp)
    6b8d:	ff ff ff 
    6b90:	48 8d 05 d9 10 01 00 	lea    0x110d9(%rip),%rax        # 17c70 <g_737>
    6b97:	48 89 85 a8 f0 ff ff 	mov    %rax,-0xf58(%rbp)
    6b9e:	48 b8 87 38 38 13 15 	movabs $0xa7fbb51513383887,%rax
    6ba5:	b5 fb a7 
    6ba8:	48 89 85 98 f1 ff ff 	mov    %rax,-0xe68(%rbp)
    6baf:	66 c7 85 96 ee ff ff 	movw   $0x9d06,-0x116a(%rbp)
    6bb6:	06 9d 
    6bb8:	c7 85 10 ef ff ff 00 	movl   $0x0,-0x10f0(%rbp)
    6bbf:	00 00 00 
    6bc2:	eb 1e                	jmp    6be2 <func_1+0x342d>
    6bc4:	8b 85 10 ef ff ff    	mov    -0x10f0(%rbp),%eax
    6bca:	48 98                	cltq   
    6bcc:	48 8d 15 d9 07 01 00 	lea    0x107d9(%rip),%rdx        # 173ac <g_1381>
    6bd3:	48 89 94 c5 60 f5 ff 	mov    %rdx,-0xaa0(%rbp,%rax,8)
    6bda:	ff 
    6bdb:	83 85 10 ef ff ff 01 	addl   $0x1,-0x10f0(%rbp)
    6be2:	83 bd 10 ef ff ff 00 	cmpl   $0x0,-0x10f0(%rbp)
    6be9:	7e d9                	jle    6bc4 <func_1+0x340f>
    6beb:	8b 05 ff 06 01 00    	mov    0x106ff(%rip),%eax        # 172f0 <g_771+0x10>
    6bf1:	89 c0                	mov    %eax,%eax
    6bf3:	48 89 c6             	mov    %rax,%rsi
    6bf6:	48 c7 c7 ff ff ff ff 	mov    $0xffffffffffffffff,%rdi
    6bfd:	e8 a6 bc ff ff       	callq  28a8 <safe_sub_func_int64_t_s_s>
    6c02:	49 89 c5             	mov    %rax,%r13
    6c05:	48 8b 85 48 f0 ff ff 	mov    -0xfb8(%rbp),%rax
    6c0c:	8b 00                	mov    (%rax),%eax
    6c0e:	0f be d8             	movsbl %al,%ebx
    6c11:	0f b7 85 94 ee ff ff 	movzwl -0x116c(%rbp),%eax
    6c18:	0f b7 c0             	movzwl %ax,%eax
    6c1b:	25 2f 9f 00 00       	and    $0x9f2f,%eax
    6c20:	48 89 c2             	mov    %rax,%rdx
    6c23:	48 8b 85 88 f1 ff ff 	mov    -0xe78(%rbp),%rax
    6c2a:	48 89 10             	mov    %rdx,(%rax)
    6c2d:	48 8b 85 88 f1 ff ff 	mov    -0xe78(%rbp),%rax
    6c34:	48 8b 00             	mov    (%rax),%rax
    6c37:	41 89 c6             	mov    %eax,%r14d
    6c3a:	8b 85 80 ef ff ff    	mov    -0x1080(%rbp),%eax
    6c40:	44 0f be e0          	movsbl %al,%r12d
    6c44:	0f b7 85 94 ee ff ff 	movzwl -0x116c(%rbp),%eax
    6c4b:	0f b7 c0             	movzwl %ax,%eax
    6c4e:	89 c7                	mov    %eax,%edi
    6c50:	e8 94 c0 ff ff       	callq  2ce9 <safe_unary_minus_func_uint16_t_u>
    6c55:	66 85 c0             	test   %ax,%ax
    6c58:	74 36                	je     6c90 <func_1+0x34db>
    6c5a:	8b 85 4c ef ff ff    	mov    -0x10b4(%rbp),%eax
    6c60:	8d 50 01             	lea    0x1(%rax),%edx
    6c63:	89 95 4c ef ff ff    	mov    %edx,-0x10b4(%rbp)
    6c69:	89 c7                	mov    %eax,%edi
    6c6b:	e8 36 c2 ff ff       	callq  2ea6 <safe_unary_minus_func_uint32_t_u>
    6c70:	48 8b 95 48 f0 ff ff 	mov    -0xfb8(%rbp),%rdx
    6c77:	8b 12                	mov    (%rdx),%edx
    6c79:	39 d0                	cmp    %edx,%eax
    6c7b:	77 0c                	ja     6c89 <func_1+0x34d4>
    6c7d:	0f b7 05 80 06 01 00 	movzwl 0x10680(%rip),%eax        # 17304 <g_796>
    6c84:	66 85 c0             	test   %ax,%ax
    6c87:	74 07                	je     6c90 <func_1+0x34db>
    6c89:	b8 01 00 00 00       	mov    $0x1,%eax
    6c8e:	eb 05                	jmp    6c95 <func_1+0x34e0>
    6c90:	b8 00 00 00 00       	mov    $0x0,%eax
    6c95:	0f bf d0             	movswl %ax,%edx
    6c98:	8b 05 56 06 01 00    	mov    0x10656(%rip),%eax        # 172f4 <g_771+0x14>
    6c9e:	98                   	cwtl   
    6c9f:	89 d6                	mov    %edx,%esi
    6ca1:	89 c7                	mov    %eax,%edi
    6ca3:	e8 0b b7 ff ff       	callq  23b3 <safe_add_func_int16_t_s_s>
    6ca8:	48 8b 05 19 0e 01 00 	mov    0x10e19(%rip),%rax        # 17ac8 <g_105>
    6caf:	48 8b 00             	mov    (%rax),%rax
    6cb2:	0f b6 00             	movzbl (%rax),%eax
    6cb5:	0f be c0             	movsbl %al,%eax
    6cb8:	44 89 e6             	mov    %r12d,%esi
    6cbb:	89 c7                	mov    %eax,%edi
    6cbd:	e8 12 b5 ff ff       	callq  21d4 <safe_add_func_int8_t_s_s>
    6cc2:	8b 85 d0 f5 ff ff    	mov    -0xa30(%rbp),%eax
    6cc8:	89 c2                	mov    %eax,%edx
    6cca:	0f b7 85 94 ee ff ff 	movzwl -0x116c(%rbp),%eax
    6cd1:	31 d0                	xor    %edx,%eax
    6cd3:	0f b7 c0             	movzwl %ax,%eax
    6cd6:	be 03 00 00 00       	mov    $0x3,%esi
    6cdb:	89 c7                	mov    %eax,%edi
    6cdd:	e8 24 c1 ff ff       	callq  2e06 <safe_lshift_func_uint16_t_u_u>
    6ce2:	48 8b 05 ef 0f 01 00 	mov    0x10fef(%rip),%rax        # 17cd8 <g_979>
    6ce9:	48 8b 00             	mov    (%rax),%rax
    6cec:	48 8b 00             	mov    (%rax),%rax
    6cef:	48 85 c0             	test   %rax,%rax
    6cf2:	0f 95 c0             	setne  %al
    6cf5:	0f b6 d0             	movzbl %al,%edx
    6cf8:	0f b7 05 05 06 01 00 	movzwl 0x10605(%rip),%eax        # 17304 <g_796>
    6cff:	0f b7 c0             	movzwl %ax,%eax
    6d02:	39 c2                	cmp    %eax,%edx
    6d04:	0f 94 c0             	sete   %al
    6d07:	0f b6 d0             	movzbl %al,%edx
    6d0a:	48 8b 85 d0 f0 ff ff 	mov    -0xf30(%rbp),%rax
    6d11:	48 89 10             	mov    %rdx,(%rax)
    6d14:	48 8b 85 d0 f0 ff ff 	mov    -0xf30(%rbp),%rax
    6d1b:	48 8b 00             	mov    (%rax),%rax
    6d1e:	89 c2                	mov    %eax,%edx
    6d20:	8b 85 80 ef ff ff    	mov    -0x1080(%rbp),%eax
    6d26:	31 d0                	xor    %edx,%eax
    6d28:	44 31 f0             	xor    %r14d,%eax
    6d2b:	0f be c0             	movsbl %al,%eax
    6d2e:	89 de                	mov    %ebx,%esi
    6d30:	89 c7                	mov    %eax,%edi
    6d32:	e8 9d b4 ff ff       	callq  21d4 <safe_add_func_int8_t_s_s>
    6d37:	8b 85 d8 f5 ff ff    	mov    -0xa28(%rbp),%eax
    6d3d:	85 c0                	test   %eax,%eax
    6d3f:	74 12                	je     6d53 <func_1+0x359e>
    6d41:	0f b6 05 c8 05 01 00 	movzbl 0x105c8(%rip),%eax        # 17310 <g_816>
    6d48:	84 c0                	test   %al,%al
    6d4a:	74 07                	je     6d53 <func_1+0x359e>
    6d4c:	b8 01 00 00 00       	mov    $0x1,%eax
    6d51:	eb 05                	jmp    6d58 <func_1+0x35a3>
    6d53:	b8 00 00 00 00       	mov    $0x0,%eax
    6d58:	89 05 4e 06 01 00    	mov    %eax,0x1064e(%rip)        # 173ac <g_1381>
    6d5e:	8b 05 48 06 01 00    	mov    0x10648(%rip),%eax        # 173ac <g_1381>
    6d64:	89 c0                	mov    %eax,%eax
    6d66:	49 39 c5             	cmp    %rax,%r13
    6d69:	75 1d                	jne    6d88 <func_1+0x35d3>
    6d6b:	8b 05 b7 02 01 00    	mov    0x102b7(%rip),%eax        # 17028 <g_52>
    6d71:	85 c0                	test   %eax,%eax
    6d73:	74 13                	je     6d88 <func_1+0x35d3>
    6d75:	0f b7 85 94 ee ff ff 	movzwl -0x116c(%rbp),%eax
    6d7c:	66 85 c0             	test   %ax,%ax
    6d7f:	74 07                	je     6d88 <func_1+0x35d3>
    6d81:	b8 01 00 00 00       	mov    $0x1,%eax
    6d86:	eb 05                	jmp    6d8d <func_1+0x35d8>
    6d88:	b8 00 00 00 00       	mov    $0x0,%eax
    6d8d:	0f be c0             	movsbl %al,%eax
    6d90:	be 19 00 00 00       	mov    $0x19,%esi
    6d95:	89 c7                	mov    %eax,%edi
    6d97:	e8 56 b4 ff ff       	callq  21f2 <safe_sub_func_int8_t_s_s>
    6d9c:	84 c0                	test   %al,%al
    6d9e:	74 30                	je     6dd0 <func_1+0x361b>
    6da0:	c6 05 79 15 01 00 1d 	movb   $0x1d,0x11579(%rip)        # 18320 <g_542>
    6da7:	90                   	nop
    6da8:	0f b6 05 71 15 01 00 	movzbl 0x11571(%rip),%eax        # 18320 <g_542>
    6daf:	3c 05                	cmp    $0x5,%al
    6db1:	0f 8f 7a 06 00 00    	jg     7431 <func_1+0x3c7c>
    6db7:	8b 85 d8 f5 ff ff    	mov    -0xa28(%rbp),%eax
    6dbd:	85 c0                	test   %eax,%eax
    6dbf:	0f 85 6b 06 00 00    	jne    7430 <func_1+0x3c7b>
    6dc5:	8b 85 b8 ee ff ff    	mov    -0x1148(%rbp),%eax
    6dcb:	e9 08 22 00 00       	jmpq   8fd8 <func_1+0x5823>
    6dd0:	c6 85 8f ee ff ff d1 	movb   $0xd1,-0x1171(%rbp)
    6dd7:	48 8d 05 92 0e 01 00 	lea    0x10e92(%rip),%rax        # 17c70 <g_737>
    6dde:	48 89 85 a0 f1 ff ff 	mov    %rax,-0xe60(%rbp)
    6de5:	48 8d 05 18 05 01 00 	lea    0x10518(%rip),%rax        # 17304 <g_796>
    6dec:	48 89 85 a8 f1 ff ff 	mov    %rax,-0xe58(%rbp)
    6df3:	8b 05 53 02 01 00    	mov    0x10253(%rip),%eax        # 1704c <g_182+0xc>
    6df9:	48 63 d8             	movslq %eax,%rbx
    6dfc:	8b 05 26 02 01 00    	mov    0x10226(%rip),%eax        # 17028 <g_52>
    6e02:	41 89 c5             	mov    %eax,%r13d
    6e05:	48 8b 05 d4 02 01 00 	mov    0x102d4(%rip),%rax        # 170e0 <g_483>
    6e0c:	41 89 c6             	mov    %eax,%r14d
    6e0f:	8b 85 80 ef ff ff    	mov    -0x1080(%rbp),%eax
    6e15:	44 0f be e0          	movsbl %al,%r12d
    6e19:	48 8b 85 18 f1 ff ff 	mov    -0xee8(%rbp),%rax
    6e20:	48 8b 00             	mov    (%rax),%rax
    6e23:	48 85 c0             	test   %rax,%rax
    6e26:	0f 94 c0             	sete   %al
    6e29:	0f b6 d0             	movzbl %al,%edx
    6e2c:	0f be 85 8f ee ff ff 	movsbl -0x1171(%rbp),%eax
    6e33:	89 d6                	mov    %edx,%esi
    6e35:	89 c7                	mov    %eax,%edi
    6e37:	e8 f9 b4 ff ff       	callq  2335 <safe_rshift_func_int8_t_s_s>
    6e3c:	0f be c0             	movsbl %al,%eax
    6e3f:	44 89 e6             	mov    %r12d,%esi
    6e42:	89 c7                	mov    %eax,%edi
    6e44:	e8 c9 b3 ff ff       	callq  2212 <safe_mul_func_int8_t_s_s>
    6e49:	0f be c0             	movsbl %al,%eax
    6e4c:	39 85 80 ef ff ff    	cmp    %eax,-0x1080(%rbp)
    6e52:	0f 9c c0             	setl   %al
    6e55:	0f b6 d0             	movzbl %al,%edx
    6e58:	8b 85 6c ef ff ff    	mov    -0x1094(%rbp),%eax
    6e5e:	89 d6                	mov    %edx,%esi
    6e60:	89 c7                	mov    %eax,%edi
    6e62:	e8 69 c0 ff ff       	callq  2ed0 <safe_sub_func_uint32_t_u_u>
    6e67:	44 89 f6             	mov    %r14d,%esi
    6e6a:	89 c7                	mov    %eax,%edi
    6e6c:	e8 8e b8 ff ff       	callq  26ff <safe_div_func_int32_t_s_s>
    6e71:	44 89 ee             	mov    %r13d,%esi
    6e74:	89 c7                	mov    %eax,%edi
    6e76:	e8 82 c0 ff ff       	callq  2efd <safe_mod_func_uint32_t_u_u>
    6e7b:	89 c0                	mov    %eax,%eax
    6e7d:	48 89 de             	mov    %rbx,%rsi
    6e80:	48 89 c7             	mov    %rax,%rdi
    6e83:	e8 2c bb ff ff       	callq  29b4 <safe_mod_func_int64_t_s_s>
    6e88:	48 0f bf 95 9c ee ff 	movswq -0x1164(%rbp),%rdx
    6e8f:	ff 
    6e90:	48 31 c2             	xor    %rax,%rdx
    6e93:	48 8b 05 26 02 01 00 	mov    0x10226(%rip),%rax        # 170c0 <g_299>
    6e9a:	48 39 c2             	cmp    %rax,%rdx
    6e9d:	0f 9d c0             	setge  %al
    6ea0:	0f b6 c0             	movzbl %al,%eax
    6ea3:	48 be c6 ba 8d f6 3a 	movabs $0xda41203af68dbac6,%rsi
    6eaa:	20 41 da 
    6ead:	48 89 c7             	mov    %rax,%rdi
    6eb0:	e8 fa c1 ff ff       	callq  30af <safe_div_func_uint64_t_u_u>
    6eb5:	48 85 c0             	test   %rax,%rax
    6eb8:	0f 84 43 05 00 00    	je     7401 <func_1+0x3c4c>
    6ebe:	48 8d 05 9b 0d 01 00 	lea    0x10d9b(%rip),%rax        # 17c60 <g_724>
    6ec5:	48 89 85 40 f8 ff ff 	mov    %rax,-0x7c0(%rbp)
    6ecc:	48 8d 05 8d 0d 01 00 	lea    0x10d8d(%rip),%rax        # 17c60 <g_724>
    6ed3:	48 89 85 48 f8 ff ff 	mov    %rax,-0x7b8(%rbp)
    6eda:	48 8d 05 7f 0d 01 00 	lea    0x10d7f(%rip),%rax        # 17c60 <g_724>
    6ee1:	48 89 85 50 f8 ff ff 	mov    %rax,-0x7b0(%rbp)
    6ee8:	48 8d 05 71 0d 01 00 	lea    0x10d71(%rip),%rax        # 17c60 <g_724>
    6eef:	48 89 85 58 f8 ff ff 	mov    %rax,-0x7a8(%rbp)
    6ef6:	48 8d 05 07 04 01 00 	lea    0x10407(%rip),%rax        # 17304 <g_796>
    6efd:	48 89 85 b0 f1 ff ff 	mov    %rax,-0xe50(%rbp)
    6f04:	48 8d 85 94 ee ff ff 	lea    -0x116c(%rbp),%rax
    6f0b:	48 89 85 b8 f1 ff ff 	mov    %rax,-0xe48(%rbp)
    6f12:	48 b8 3b dd b8 8f 8c 	movabs $0xddd2738c8fb8dd3b,%rax
    6f19:	73 d2 dd 
    6f1c:	48 89 85 c0 f1 ff ff 	mov    %rax,-0xe40(%rbp)
    6f23:	c7 85 14 ef ff ff 00 	movl   $0x0,-0x10ec(%rbp)
    6f2a:	00 00 00 
    6f2d:	eb 14                	jmp    6f43 <func_1+0x378e>
    6f2f:	8b 85 14 ef ff ff    	mov    -0x10ec(%rbp),%eax
    6f35:	48 98                	cltq   
    6f37:	c6 44 05 c0 cd       	movb   $0xcd,-0x40(%rbp,%rax,1)
    6f3c:	83 85 14 ef ff ff 01 	addl   $0x1,-0x10ec(%rbp)
    6f43:	83 bd 14 ef ff ff 07 	cmpl   $0x7,-0x10ec(%rbp)
    6f4a:	7e e3                	jle    6f2f <func_1+0x377a>
    6f4c:	8b 9d c8 ee ff ff    	mov    -0x1138(%rbp),%ebx
    6f52:	4c 8b 25 67 01 01 00 	mov    0x10167(%rip),%r12        # 170c0 <g_299>
    6f59:	44 0f be ad 8f ee ff 	movsbl -0x1171(%rbp),%r13d
    6f60:	ff 
    6f61:	0f b6 05 d4 00 01 00 	movzbl 0x100d4(%rip),%eax        # 1703c <g_107>
    6f68:	66 98                	cbtw   
    6f6a:	44 0f b7 f0          	movzwl %ax,%r14d
    6f6e:	48 8b 85 e0 f0 ff ff 	mov    -0xf20(%rbp),%rax
    6f75:	0f b6 00             	movzbl (%rax),%eax
    6f78:	8d 50 ff             	lea    -0x1(%rax),%edx
    6f7b:	48 8b 85 e0 f0 ff ff 	mov    -0xf20(%rbp),%rax
    6f82:	88 10                	mov    %dl,(%rax)
    6f84:	48 8b 85 e0 f0 ff ff 	mov    -0xf20(%rbp),%rax
    6f8b:	0f b6 00             	movzbl (%rax),%eax
    6f8e:	84 c0                	test   %al,%al
    6f90:	0f 85 8b 01 00 00    	jne    7121 <func_1+0x396c>
    6f96:	48 8b 85 c0 f1 ff ff 	mov    -0xe40(%rbp),%rax
    6f9d:	89 85 7c ee ff ff    	mov    %eax,-0x1184(%rbp)
    6fa3:	44 8b 3d ae 00 01 00 	mov    0x100ae(%rip),%r15d        # 17058 <g_182+0x18>
    6faa:	8b 85 d0 f5 ff ff    	mov    -0xa30(%rbp),%eax
    6fb0:	89 85 78 ee ff ff    	mov    %eax,-0x1188(%rbp)
    6fb6:	be 00 00 00 00       	mov    $0x0,%esi
    6fbb:	bf ff ff ff ff       	mov    $0xffffffff,%edi
    6fc0:	e8 0b bf ff ff       	callq  2ed0 <safe_sub_func_uint32_t_u_u>
    6fc5:	3d fe ff 00 00       	cmp    $0xfffe,%eax
    6fca:	0f 96 c0             	setbe  %al
    6fcd:	0f b6 d0             	movzbl %al,%edx
    6fd0:	8b 05 d2 03 01 00    	mov    0x103d2(%rip),%eax        # 173a8 <g_1311>
    6fd6:	21 c2                	and    %eax,%edx
    6fd8:	48 8b 85 c0 f0 ff ff 	mov    -0xf40(%rbp),%rax
    6fdf:	0f b7 00             	movzwl (%rax),%eax
    6fe2:	21 c2                	and    %eax,%edx
    6fe4:	48 8b 85 c0 f0 ff ff 	mov    -0xf40(%rbp),%rax
    6feb:	66 89 10             	mov    %dx,(%rax)
    6fee:	48 8b 85 c0 f0 ff ff 	mov    -0xf40(%rbp),%rax
    6ff5:	0f b7 10             	movzwl (%rax),%edx
    6ff8:	48 8b 85 b0 f1 ff ff 	mov    -0xe50(%rbp),%rax
    6fff:	0f b7 00             	movzwl (%rax),%eax
    7002:	31 c2                	xor    %eax,%edx
    7004:	48 8b 85 b0 f1 ff ff 	mov    -0xe50(%rbp),%rax
    700b:	66 89 10             	mov    %dx,(%rax)
    700e:	48 8b 85 b0 f1 ff ff 	mov    -0xe50(%rbp),%rax
    7015:	0f b7 00             	movzwl (%rax),%eax
    7018:	0f b7 c0             	movzwl %ax,%eax
    701b:	8b b5 78 ee ff ff    	mov    -0x1188(%rbp),%esi
    7021:	89 c7                	mov    %eax,%edi
    7023:	e8 de bd ff ff       	callq  2e06 <safe_lshift_func_uint16_t_u_u>
    7028:	89 c2                	mov    %eax,%edx
    702a:	48 8b 85 00 f1 ff ff 	mov    -0xf00(%rbp),%rax
    7031:	66 89 10             	mov    %dx,(%rax)
    7034:	48 8b 85 00 f1 ff ff 	mov    -0xf00(%rbp),%rax
    703b:	0f b7 00             	movzwl (%rax),%eax
    703e:	66 89 05 2f 00 01 00 	mov    %ax,0x1002f(%rip)        # 17074 <g_254>
    7045:	48 8b 85 b8 f1 ff ff 	mov    -0xe48(%rbp),%rax
    704c:	66 c7 00 01 00       	movw   $0x1,(%rax)
    7051:	48 8b 85 b8 f1 ff ff 	mov    -0xe48(%rbp),%rax
    7058:	0f b7 00             	movzwl (%rax),%eax
    705b:	0f b7 c0             	movzwl %ax,%eax
    705e:	f7 d0                	not    %eax
    7060:	89 c2                	mov    %eax,%edx
    7062:	48 8b 05 f7 0b 01 00 	mov    0x10bf7(%rip),%rax        # 17c60 <g_724>
    7069:	8b 00                	mov    (%rax),%eax
    706b:	39 c2                	cmp    %eax,%edx
    706d:	0f 9d c0             	setge  %al
    7070:	0f b6 c0             	movzbl %al,%eax
    7073:	89 c2                	mov    %eax,%edx
    7075:	0f b7 05 ac 02 01 00 	movzwl 0x102ac(%rip),%eax        # 17328 <g_950>
    707c:	31 d0                	xor    %edx,%eax
    707e:	66 89 05 a3 02 01 00 	mov    %ax,0x102a3(%rip)        # 17328 <g_950>
    7085:	0f b7 05 9c 02 01 00 	movzwl 0x1029c(%rip),%eax        # 17328 <g_950>
    708c:	0f bf d0             	movswl %ax,%edx
    708f:	8b 85 d8 f5 ff ff    	mov    -0xa28(%rbp),%eax
    7095:	21 d0                	and    %edx,%eax
    7097:	48 98                	cltq   
    7099:	48 89 c6             	mov    %rax,%rsi
    709c:	48 c7 c7 fa ff ff ff 	mov    $0xfffffffffffffffa,%rdi
    70a3:	e8 0c b9 ff ff       	callq  29b4 <safe_mod_func_int64_t_s_s>
    70a8:	48 89 05 81 ff 00 00 	mov    %rax,0xff81(%rip)        # 17030 <g_67>
    70af:	44 89 fe             	mov    %r15d,%esi
    70b2:	bf 9a e1 ff ff       	mov    $0xffffe19a,%edi
    70b7:	e8 6e b4 ff ff       	callq  252a <safe_rshift_func_int16_t_s_s>
    70bc:	89 c2                	mov    %eax,%edx
    70be:	48 8b 85 38 f0 ff ff 	mov    -0xfc8(%rbp),%rax
    70c5:	88 10                	mov    %dl,(%rax)
    70c7:	0f b6 00             	movzbl (%rax),%eax
    70ca:	0f be c0             	movsbl %al,%eax
    70cd:	be 60 00 00 00       	mov    $0x60,%esi
    70d2:	89 c7                	mov    %eax,%edi
    70d4:	e8 58 b1 ff ff       	callq  2231 <safe_mod_func_int8_t_s_s>
    70d9:	89 c2                	mov    %eax,%edx
    70db:	48 8b 85 48 f0 ff ff 	mov    -0xfb8(%rbp),%rax
    70e2:	0f be d2             	movsbl %dl,%edx
    70e5:	89 10                	mov    %edx,(%rax)
    70e7:	8b 00                	mov    (%rax),%eax
    70e9:	85 c0                	test   %eax,%eax
    70eb:	75 0c                	jne    70f9 <func_1+0x3944>
    70ed:	0f b7 85 94 ee ff ff 	movzwl -0x116c(%rbp),%eax
    70f4:	66 85 c0             	test   %ax,%ax
    70f7:	74 07                	je     7100 <func_1+0x394b>
    70f9:	b8 01 00 00 00       	mov    $0x1,%eax
    70fe:	eb 05                	jmp    7105 <func_1+0x3950>
    7100:	b8 00 00 00 00       	mov    $0x0,%eax
    7105:	0f be c0             	movsbl %al,%eax
    7108:	8b b5 7c ee ff ff    	mov    -0x1184(%rbp),%esi
    710e:	89 c7                	mov    %eax,%edi
    7110:	e8 20 b2 ff ff       	callq  2335 <safe_rshift_func_int8_t_s_s>
    7115:	48 8b 85 40 f8 ff ff 	mov    -0x7c0(%rbp),%rax
    711c:	48 85 c0             	test   %rax,%rax
    711f:	74 07                	je     7128 <func_1+0x3973>
    7121:	b8 01 00 00 00       	mov    $0x1,%eax
    7126:	eb 05                	jmp    712d <func_1+0x3978>
    7128:	b8 00 00 00 00       	mov    $0x0,%eax
    712d:	48 63 d0             	movslq %eax,%rdx
    7130:	48 8b 85 d0 f0 ff ff 	mov    -0xf30(%rbp),%rax
    7137:	48 89 10             	mov    %rdx,(%rax)
    713a:	be 3f 84 00 00       	mov    $0x843f,%esi
    713f:	bf 01 00 00 00       	mov    $0x1,%edi
    7144:	e8 f4 bb ff ff       	callq  2d3d <safe_mul_func_uint16_t_u_u>
    7149:	0f b7 d0             	movzwl %ax,%edx
    714c:	8b 85 c8 ee ff ff    	mov    -0x1138(%rbp),%eax
    7152:	09 d0                	or     %edx,%eax
    7154:	85 c0                	test   %eax,%eax
    7156:	75 0a                	jne    7162 <func_1+0x39ad>
    7158:	8b 05 6a 12 01 00    	mov    0x1126a(%rip),%eax        # 183c8 <g_1366>
    715e:	85 c0                	test   %eax,%eax
    7160:	74 07                	je     7169 <func_1+0x39b4>
    7162:	b8 01 00 00 00       	mov    $0x1,%eax
    7167:	eb 05                	jmp    716e <func_1+0x39b9>
    7169:	b8 00 00 00 00       	mov    $0x0,%eax
    716e:	0f b7 c0             	movzwl %ax,%eax
    7171:	44 89 f6             	mov    %r14d,%esi
    7174:	89 c7                	mov    %eax,%edi
    7176:	e8 e1 bb ff ff       	callq  2d5c <safe_mod_func_uint16_t_u_u>
    717b:	0f b7 d0             	movzwl %ax,%edx
    717e:	48 8b 05 ab ff 00 00 	mov    0xffab(%rip),%rax        # 17130 <g_483+0x50>
    7185:	48 09 c2             	or     %rax,%rdx
    7188:	48 8b 05 11 02 01 00 	mov    0x10211(%rip),%rax        # 173a0 <g_1148>
    718f:	48 89 d6             	mov    %rdx,%rsi
    7192:	48 89 c7             	mov    %rax,%rdi
    7195:	e8 0e b7 ff ff       	callq  28a8 <safe_sub_func_int64_t_s_s>
    719a:	48 3d ed 00 00 00    	cmp    $0xed,%rax
    71a0:	7f 07                	jg     71a9 <func_1+0x39f4>
    71a2:	ba 01 00 00 00       	mov    $0x1,%edx
    71a7:	eb 05                	jmp    71ae <func_1+0x39f9>
    71a9:	ba 00 00 00 00       	mov    $0x0,%edx
    71ae:	0f be 85 8f ee ff ff 	movsbl -0x1171(%rbp),%eax
    71b5:	39 c2                	cmp    %eax,%edx
    71b7:	0f b6 05 9a be 00 00 	movzbl 0xbe9a(%rip),%eax        # 13058 <g_467>
    71be:	84 c0                	test   %al,%al
    71c0:	75 0d                	jne    71cf <func_1+0x3a1a>
    71c2:	48 8b 85 48 f0 ff ff 	mov    -0xfb8(%rbp),%rax
    71c9:	8b 00                	mov    (%rax),%eax
    71cb:	85 c0                	test   %eax,%eax
    71cd:	74 07                	je     71d6 <func_1+0x3a21>
    71cf:	ba 01 00 00 00       	mov    $0x1,%edx
    71d4:	eb 05                	jmp    71db <func_1+0x3a26>
    71d6:	ba 00 00 00 00       	mov    $0x0,%edx
    71db:	0f b7 85 a2 ee ff ff 	movzwl -0x115e(%rbp),%eax
    71e2:	21 d0                	and    %edx,%eax
    71e4:	be 04 00 00 00       	mov    $0x4,%esi
    71e9:	89 c7                	mov    %eax,%edi
    71eb:	e8 dc b4 ff ff       	callq  26cc <safe_mod_func_int32_t_s_s>
    71f0:	0f b7 c0             	movzwl %ax,%eax
    71f3:	44 89 ee             	mov    %r13d,%esi
    71f6:	89 c7                	mov    %eax,%edi
    71f8:	e8 7d bc ff ff       	callq  2e7a <safe_rshift_func_uint16_t_u_u>
    71fd:	0f b7 c0             	movzwl %ax,%eax
    7200:	4c 89 e6             	mov    %r12,%rsi
    7203:	48 89 c7             	mov    %rax,%rdi
    7206:	e8 a9 b7 ff ff       	callq  29b4 <safe_mod_func_int64_t_s_s>
    720b:	98                   	cwtl   
    720c:	8b 95 6c ef ff ff    	mov    -0x1094(%rbp),%edx
    7212:	89 d6                	mov    %edx,%esi
    7214:	89 c7                	mov    %eax,%edi
    7216:	e8 0f b3 ff ff       	callq  252a <safe_rshift_func_int16_t_s_s>
    721b:	0f bf d0             	movswl %ax,%edx
    721e:	8b 85 d0 f5 ff ff    	mov    -0xa30(%rbp),%eax
    7224:	09 d0                	or     %edx,%eax
    7226:	48 63 d0             	movslq %eax,%rdx
    7229:	8b 85 c8 ee ff ff    	mov    -0x1138(%rbp),%eax
    722f:	48 98                	cltq   
    7231:	48 89 d6             	mov    %rdx,%rsi
    7234:	48 89 c7             	mov    %rax,%rdi
    7237:	e8 05 b6 ff ff       	callq  2841 <safe_add_func_int64_t_s_s>
    723c:	83 f0 fa             	xor    $0xfffffffa,%eax
    723f:	0f b6 c0             	movzbl %al,%eax
    7242:	89 de                	mov    %ebx,%esi
    7244:	89 c7                	mov    %eax,%edi
    7246:	e8 42 ba ff ff       	callq  2c8d <safe_rshift_func_uint8_t_u_s>
    724b:	8b 05 8f 00 01 00    	mov    0x1008f(%rip),%eax        # 172e0 <g_771>
    7251:	85 c0                	test   %eax,%eax
    7253:	0f 94 c0             	sete   %al
    7256:	0f b6 d0             	movzbl %al,%edx
    7259:	0f b7 85 a2 ee ff ff 	movzwl -0x115e(%rbp),%eax
    7260:	39 c2                	cmp    %eax,%edx
    7262:	0f 9d c0             	setge  %al
    7265:	0f b6 c0             	movzbl %al,%eax
    7268:	be 05 00 00 00       	mov    $0x5,%esi
    726d:	89 c7                	mov    %eax,%edi
    726f:	e8 5f b1 ff ff       	callq  23d3 <safe_sub_func_int16_t_s_s>
    7274:	48 8b 85 90 f1 ff ff 	mov    -0xe70(%rbp),%rax
    727b:	48 89 05 56 11 01 00 	mov    %rax,0x11156(%rip)        # 183d8 <g_1650>
    7282:	48 8b 15 4f 11 01 00 	mov    0x1114f(%rip),%rdx        # 183d8 <g_1650>
    7289:	48 8d 85 88 f0 ff ff 	lea    -0xf78(%rbp),%rax
    7290:	48 39 c2             	cmp    %rax,%rdx
    7293:	0f 94 c0             	sete   %al
    7296:	0f b6 d0             	movzbl %al,%edx
    7299:	48 8b 05 08 09 01 00 	mov    0x10908(%rip),%rax        # 17ba8 <g_289>
    72a0:	89 10                	mov    %edx,(%rax)
    72a2:	8b 10                	mov    (%rax),%edx
    72a4:	8b 85 cc ee ff ff    	mov    -0x1134(%rbp),%eax
    72aa:	09 d0                	or     %edx,%eax
    72ac:	89 85 cc ee ff ff    	mov    %eax,-0x1134(%rbp)
    72b2:	0f b7 85 94 ee ff ff 	movzwl -0x116c(%rbp),%eax
    72b9:	0f b7 d8             	movzwl %ax,%ebx
    72bc:	48 83 bd a8 f1 ff ff 	cmpq   $0x0,-0xe58(%rbp)
    72c3:	00 
    72c4:	48 8b 85 e0 f0 ff ff 	mov    -0xf20(%rbp),%rax
    72cb:	0f b6 00             	movzbl (%rax),%eax
    72ce:	8d 50 ff             	lea    -0x1(%rax),%edx
    72d1:	48 8b 85 e0 f0 ff ff 	mov    -0xf20(%rbp),%rax
    72d8:	88 10                	mov    %dl,(%rax)
    72da:	8b 85 80 ef ff ff    	mov    -0x1080(%rbp),%eax
    72e0:	44 0f bf e0          	movswl %ax,%r12d
    72e4:	0f be 95 8f ee ff ff 	movsbl -0x1171(%rbp),%edx
    72eb:	8b 85 5c ef ff ff    	mov    -0x10a4(%rbp),%eax
    72f1:	98                   	cwtl   
    72f2:	89 d6                	mov    %edx,%esi
    72f4:	89 c7                	mov    %eax,%edi
    72f6:	e8 d8 b0 ff ff       	callq  23d3 <safe_sub_func_int16_t_s_s>
    72fb:	98                   	cwtl   
    72fc:	39 85 70 ef ff ff    	cmp    %eax,-0x1090(%rbp)
    7302:	0f 9f c0             	setg   %al
    7305:	0f b6 d0             	movzbl %al,%edx
    7308:	48 8b 85 00 f1 ff ff 	mov    -0xf00(%rbp),%rax
    730f:	66 89 10             	mov    %dx,(%rax)
    7312:	48 8b 85 00 f1 ff ff 	mov    -0xf00(%rbp),%rax
    7319:	0f b7 00             	movzwl (%rax),%eax
    731c:	98                   	cwtl   
    731d:	44 89 e6             	mov    %r12d,%esi
    7320:	89 c7                	mov    %eax,%edi
    7322:	e8 ce b0 ff ff       	callq  23f5 <safe_mul_func_int16_t_s_s>
    7327:	66 3d ea 3d          	cmp    $0x3dea,%ax
    732b:	0f 9e c0             	setle  %al
    732e:	0f b6 d0             	movzbl %al,%edx
    7331:	0f bf 85 9a ee ff ff 	movswl -0x1166(%rbp),%eax
    7338:	09 d0                	or     %edx,%eax
    733a:	48 98                	cltq   
    733c:	48 be 84 4d 1d 1f ee 	movabs $0xd8449bee1f1d4d84,%rsi
    7343:	9b 44 d8 
    7346:	48 89 c7             	mov    %rax,%rdi
    7349:	e8 a9 b6 ff ff       	callq  29f7 <safe_div_func_int64_t_s_s>
    734e:	48 c7 c6 fb ff ff ff 	mov    $0xfffffffffffffffb,%rsi
    7355:	48 c7 c7 fc ff ff ff 	mov    $0xfffffffffffffffc,%rdi
    735c:	e8 e0 b4 ff ff       	callq  2841 <safe_add_func_int64_t_s_s>
    7361:	48 8d 05 e3 ff 00 00 	lea    0xffe3(%rip),%rax        # 1734b <g_982+0xb>
    7368:	0f b6 00             	movzbl (%rax),%eax
    736b:	f7 d0                	not    %eax
    736d:	89 c2                	mov    %eax,%edx
    736f:	48 8b 85 e0 f0 ff ff 	mov    -0xf20(%rbp),%rax
    7376:	88 10                	mov    %dl,(%rax)
    7378:	48 8b 85 e0 f0 ff ff 	mov    -0xf20(%rbp),%rax
    737f:	0f b6 00             	movzbl (%rax),%eax
    7382:	84 c0                	test   %al,%al
    7384:	75 0a                	jne    7390 <func_1+0x3bdb>
    7386:	66 83 bd 9a ee ff ff 	cmpw   $0x0,-0x1166(%rbp)
    738d:	00 
    738e:	74 07                	je     7397 <func_1+0x3be2>
    7390:	b8 01 00 00 00       	mov    $0x1,%eax
    7395:	eb 05                	jmp    739c <func_1+0x3be7>
    7397:	b8 00 00 00 00       	mov    $0x0,%eax
    739c:	0f bf d0             	movswl %ax,%edx
    739f:	48 8b 85 48 f0 ff ff 	mov    -0xfb8(%rbp),%rax
    73a6:	8b 08                	mov    (%rax),%ecx
    73a8:	48 8b 85 48 f0 ff ff 	mov    -0xfb8(%rbp),%rax
    73af:	0b 8d 80 ef ff ff    	or     -0x1080(%rbp),%ecx
    73b5:	89 08                	mov    %ecx,(%rax)
    73b7:	8b 00                	mov    (%rax),%eax
    73b9:	98                   	cwtl   
    73ba:	89 d6                	mov    %edx,%esi
    73bc:	89 c7                	mov    %eax,%edi
    73be:	e8 32 b0 ff ff       	callq  23f5 <safe_mul_func_int16_t_s_s>
    73c3:	66 c1 e8 0f          	shr    $0xf,%ax
    73c7:	0f b6 d0             	movzbl %al,%edx
    73ca:	0f bf 85 9a ee ff ff 	movswl -0x1166(%rbp),%eax
    73d1:	31 d0                	xor    %edx,%eax
    73d3:	89 de                	mov    %ebx,%esi
    73d5:	89 c7                	mov    %eax,%edi
    73d7:	e8 f0 b2 ff ff       	callq  26cc <safe_mod_func_int32_t_s_s>
    73dc:	8b 85 d0 f5 ff ff    	mov    -0xa30(%rbp),%eax
    73e2:	83 f8 6d             	cmp    $0x6d,%eax
    73e5:	0f 9f c0             	setg   %al
    73e8:	0f b6 c8             	movzbl %al,%ecx
    73eb:	48 8b 05 be 07 01 00 	mov    0x107be(%rip),%rax        # 17bb0 <g_385>
    73f2:	8b 10                	mov    (%rax),%edx
    73f4:	48 8b 05 b5 07 01 00 	mov    0x107b5(%rip),%rax        # 17bb0 <g_385>
    73fb:	31 ca                	xor    %ecx,%edx
    73fd:	89 10                	mov    %edx,(%rax)
    73ff:	eb 30                	jmp    7431 <func_1+0x3c7c>
    7401:	48 8b 85 48 f0 ff ff 	mov    -0xfb8(%rbp),%rax
    7408:	8b 10                	mov    (%rax),%edx
    740a:	48 8b 85 48 f0 ff ff 	mov    -0xfb8(%rbp),%rax
    7411:	0b 95 84 ef ff ff    	or     -0x107c(%rbp),%edx
    7417:	89 10                	mov    %edx,(%rax)
    7419:	48 8b 85 48 f0 ff ff 	mov    -0xfb8(%rbp),%rax
    7420:	8b 10                	mov    (%rax),%edx
    7422:	48 8b 85 48 f0 ff ff 	mov    -0xfb8(%rbp),%rax
    7429:	83 f2 01             	xor    $0x1,%edx
    742c:	89 10                	mov    %edx,(%rax)
    742e:	eb 01                	jmp    7431 <func_1+0x3c7c>
    7430:	90                   	nop
    7431:	0f b6 05 f2 fe 00 00 	movzbl 0xfef2(%rip),%eax        # 1732a <g_969>
    7438:	84 c0                	test   %al,%al
    743a:	0f 95 c0             	setne  %al
    743d:	0f b6 c0             	movzbl %al,%eax
    7440:	be 01 00 00 00       	mov    $0x1,%esi
    7445:	89 c7                	mov    %eax,%edi
    7447:	e8 a2 ae ff ff       	callq  22ee <safe_lshift_func_int8_t_s_u>
    744c:	84 c0                	test   %al,%al
    744e:	0f 84 b5 01 00 00    	je     7609 <func_1+0x3e54>
    7454:	c7 85 98 ef ff ff 3d 	movl   $0x41c903d,-0x1068(%rbp)
    745b:	90 1c 04 
    745e:	c7 85 9c ef ff ff c0 	movl   $0x14162dc0,-0x1064(%rbp)
    7465:	2d 16 14 
    7468:	48 c7 85 d8 f1 ff ff 	movq   $0x0,-0xe28(%rbp)
    746f:	00 00 00 00 
    7473:	48 c7 85 e0 f1 ff ff 	movq   $0x0,-0xe20(%rbp)
    747a:	00 00 00 00 
    747e:	48 8d 85 b0 ee ff ff 	lea    -0x1150(%rbp),%rax
    7485:	48 89 85 40 f8 ff ff 	mov    %rax,-0x7c0(%rbp)
    748c:	48 8d 85 b0 ee ff ff 	lea    -0x1150(%rbp),%rax
    7493:	48 89 85 48 f8 ff ff 	mov    %rax,-0x7b8(%rbp)
    749a:	48 8d 85 b0 ee ff ff 	lea    -0x1150(%rbp),%rax
    74a1:	48 89 85 50 f8 ff ff 	mov    %rax,-0x7b0(%rbp)
    74a8:	48 8d 85 b0 ee ff ff 	lea    -0x1150(%rbp),%rax
    74af:	48 89 85 58 f8 ff ff 	mov    %rax,-0x7a8(%rbp)
    74b6:	48 8d 85 b0 ee ff ff 	lea    -0x1150(%rbp),%rax
    74bd:	48 89 85 60 f8 ff ff 	mov    %rax,-0x7a0(%rbp)
    74c4:	48 8d 85 b0 ee ff ff 	lea    -0x1150(%rbp),%rax
    74cb:	48 89 85 68 f8 ff ff 	mov    %rax,-0x798(%rbp)
    74d2:	48 8d 85 b0 ee ff ff 	lea    -0x1150(%rbp),%rax
    74d9:	48 89 85 70 f8 ff ff 	mov    %rax,-0x790(%rbp)
    74e0:	48 8d 85 b0 ee ff ff 	lea    -0x1150(%rbp),%rax
    74e7:	48 89 85 78 f8 ff ff 	mov    %rax,-0x788(%rbp)
    74ee:	48 8b 85 88 f1 ff ff 	mov    -0xe78(%rbp),%rax
    74f5:	bb da 2e f0 9d       	mov    $0x9df02eda,%ebx
    74fa:	48 89 18             	mov    %rbx,(%rax)
    74fd:	0f b7 05 24 fe 00 00 	movzwl 0xfe24(%rip),%eax        # 17328 <g_950>
    7504:	0f bf d8             	movswl %ax,%ebx
    7507:	48 8b 85 68 f0 ff ff 	mov    -0xf98(%rbp),%rax
    750e:	0f bf d0             	movswl %ax,%edx
    7511:	0f b7 05 10 fe 00 00 	movzwl 0xfe10(%rip),%eax        # 17328 <g_950>
    7518:	98                   	cwtl   
    7519:	89 d6                	mov    %edx,%esi
    751b:	89 c7                	mov    %eax,%edi
    751d:	e8 d3 ae ff ff       	callq  23f5 <safe_mul_func_int16_t_s_s>
    7522:	98                   	cwtl   
    7523:	39 85 80 ef ff ff    	cmp    %eax,-0x1080(%rbp)
    7529:	0f 9d c0             	setge  %al
    752c:	89 c2                	mov    %eax,%edx
    752e:	8b 85 98 ef ff ff    	mov    -0x1068(%rbp),%eax
    7534:	21 d0                	and    %edx,%eax
    7536:	0f be d0             	movsbl %al,%edx
    7539:	8b 85 74 ef ff ff    	mov    -0x108c(%rbp),%eax
    753f:	0f be c0             	movsbl %al,%eax
    7542:	89 d6                	mov    %edx,%esi
    7544:	89 c7                	mov    %eax,%edi
    7546:	e8 c7 ac ff ff       	callq  2212 <safe_mul_func_int8_t_s_s>
    754b:	89 de                	mov    %ebx,%esi
    754d:	bf 01 00 00 00       	mov    $0x1,%edi
    7552:	e8 75 b1 ff ff       	callq  26cc <safe_mod_func_int32_t_s_s>
    7557:	39 85 9c ef ff ff    	cmp    %eax,-0x1064(%rbp)
    755d:	0f 97 c0             	seta   %al
    7560:	0f b6 d0             	movzbl %al,%edx
    7563:	8b 85 c8 ee ff ff    	mov    -0x1138(%rbp),%eax
    7569:	39 c2                	cmp    %eax,%edx
    756b:	0f 9e c0             	setle  %al
    756e:	0f b6 c0             	movzbl %al,%eax
    7571:	8b 95 6c ef ff ff    	mov    -0x1094(%rbp),%edx
    7577:	89 d6                	mov    %edx,%esi
    7579:	89 c7                	mov    %eax,%edi
    757b:	e8 85 b0 ff ff       	callq  2605 <safe_sub_func_int32_t_s_s>
    7580:	0f b6 d8             	movzbl %al,%ebx
    7583:	48 8b 85 48 f0 ff ff 	mov    -0xfb8(%rbp),%rax
    758a:	8b 08                	mov    (%rax),%ecx
    758c:	8b 95 c8 ee ff ff    	mov    -0x1138(%rbp),%edx
    7592:	48 8b 85 48 f0 ff ff 	mov    -0xfb8(%rbp),%rax
    7599:	31 ca                	xor    %ecx,%edx
    759b:	89 10                	mov    %edx,(%rax)
    759d:	8b 00                	mov    (%rax),%eax
    759f:	be 2b 67 57 0a       	mov    $0xa57672b,%esi
    75a4:	89 c7                	mov    %eax,%edi
    75a6:	e8 5a b0 ff ff       	callq  2605 <safe_sub_func_int32_t_s_s>
    75ab:	0f b6 c0             	movzbl %al,%eax
    75ae:	89 de                	mov    %ebx,%esi
    75b0:	89 c7                	mov    %eax,%edi
    75b2:	e8 f7 b5 ff ff       	callq  2bae <safe_mod_func_uint8_t_u_u>
    75b7:	ba 00 00 00 00       	mov    $0x0,%edx
    75bc:	48 8b 05 ed 05 01 00 	mov    0x105ed(%rip),%rax        # 17bb0 <g_385>
    75c3:	89 10                	mov    %edx,(%rax)
    75c5:	48 8b 05 04 06 01 00 	mov    0x10604(%rip),%rax        # 17bd0 <g_507>
    75cc:	48 c7 00 00 00 00 00 	movq   $0x0,(%rax)
    75d3:	0f b7 05 16 fe 00 00 	movzwl 0xfe16(%rip),%eax        # 173f0 <g_1762>
    75da:	83 c0 01             	add    $0x1,%eax
    75dd:	66 89 05 0c fe 00 00 	mov    %ax,0xfe0c(%rip)        # 173f0 <g_1762>
    75e4:	48 8b 05 cd 05 01 00 	mov    0x105cd(%rip),%rax        # 17bb8 <g_384>
    75eb:	48 8b 00             	mov    (%rax),%rax
    75ee:	8b 08                	mov    (%rax),%ecx
    75f0:	48 8b 85 48 f0 ff ff 	mov    -0xfb8(%rbp),%rax
    75f7:	8b 10                	mov    (%rax),%edx
    75f9:	48 8b 85 48 f0 ff ff 	mov    -0xfb8(%rbp),%rax
    7600:	21 ca                	and    %ecx,%edx
    7602:	89 10                	mov    %edx,(%rax)
    7604:	e9 04 02 00 00       	jmpq   780d <func_1+0x4058>
    7609:	c7 85 90 ef ff ff 00 	movl   $0x0,-0x1070(%rbp)
    7610:	00 00 00 
    7613:	c7 85 60 ef ff ff 00 	movl   $0x0,-0x10a0(%rbp)
    761a:	00 00 00 
    761d:	83 bd 60 ef ff ff f4 	cmpl   $0xfffffff4,-0x10a0(%rbp)
    7624:	0f 8d e3 01 00 00    	jge    780d <func_1+0x4058>
    762a:	48 8d 05 3f 06 01 00 	lea    0x1063f(%rip),%rax        # 17c70 <g_737>
    7631:	48 89 85 90 f0 ff ff 	mov    %rax,-0xf70(%rbp)
    7638:	48 8d 05 91 fa 00 00 	lea    0xfa91(%rip),%rax        # 170d0 <g_469>
    763f:	48 89 85 98 f0 ff ff 	mov    %rax,-0xf68(%rbp)
    7646:	48 8d 85 98 f0 ff ff 	lea    -0xf68(%rbp),%rax
    764d:	48 89 85 c8 f1 ff ff 	mov    %rax,-0xe38(%rbp)
    7654:	48 8d 05 6d 0d 01 00 	lea    0x10d6d(%rip),%rax        # 183c8 <g_1366>
    765b:	48 89 85 a0 f0 ff ff 	mov    %rax,-0xf60(%rbp)
    7662:	48 8d 85 a0 f0 ff ff 	lea    -0xf60(%rbp),%rax
    7669:	48 89 85 d0 f1 ff ff 	mov    %rax,-0xe30(%rbp)
    7670:	c7 85 94 ef ff ff f7 	movl   $0xfffffff7,-0x106c(%rbp)
    7677:	ff ff ff 
    767a:	c7 85 18 ef ff ff 00 	movl   $0x0,-0x10e8(%rbp)
    7681:	00 00 00 
    7684:	eb 1e                	jmp    76a4 <func_1+0x3eef>
    7686:	8b 85 18 ef ff ff    	mov    -0x10e8(%rbp),%eax
    768c:	48 98                	cltq   
    768e:	48 8d 95 90 f0 ff ff 	lea    -0xf70(%rbp),%rdx
    7695:	48 89 94 c5 40 f8 ff 	mov    %rdx,-0x7c0(%rbp,%rax,8)
    769c:	ff 
    769d:	83 85 18 ef ff ff 01 	addl   $0x1,-0x10e8(%rbp)
    76a4:	83 bd 18 ef ff ff 00 	cmpl   $0x0,-0x10e8(%rbp)
    76ab:	7e d9                	jle    7686 <func_1+0x3ed1>
    76ad:	8b 85 90 ef ff ff    	mov    -0x1070(%rbp),%eax
    76b3:	0f b7 c0             	movzwl %ax,%eax
    76b6:	89 c6                	mov    %eax,%esi
    76b8:	bf 58 72 00 00       	mov    $0x7258,%edi
    76bd:	e8 9a b6 ff ff       	callq  2d5c <safe_mod_func_uint16_t_u_u>
    76c2:	0f b7 d8             	movzwl %ax,%ebx
    76c5:	48 8b 05 f4 04 01 00 	mov    0x104f4(%rip),%rax        # 17bc0 <g_416>
    76cc:	48 8b 00             	mov    (%rax),%rax
    76cf:	8b 00                	mov    (%rax),%eax
    76d1:	85 c0                	test   %eax,%eax
    76d3:	75 77                	jne    774c <func_1+0x3f97>
    76d5:	48 8b 85 c8 f1 ff ff 	mov    -0xe38(%rbp),%rax
    76dc:	48 8d 15 ed f9 00 00 	lea    0xf9ed(%rip),%rdx        # 170d0 <g_469>
    76e3:	48 89 10             	mov    %rdx,(%rax)
    76e6:	48 8b 85 c8 f1 ff ff 	mov    -0xe38(%rbp),%rax
    76ed:	48 8b 10             	mov    (%rax),%rdx
    76f0:	48 8b 85 d0 f1 ff ff 	mov    -0xe30(%rbp),%rax
    76f7:	48 89 10             	mov    %rdx,(%rax)
    76fa:	48 8b 85 d0 f1 ff ff 	mov    -0xe30(%rbp),%rax
    7701:	48 8b 00             	mov    (%rax),%rax
    7704:	48 39 85 30 f1 ff ff 	cmp    %rax,-0xed0(%rbp)
    770b:	48 8b 05 4e 05 01 00 	mov    0x1054e(%rip),%rax        # 17c60 <g_724>
    7712:	8b 08                	mov    (%rax),%ecx
    7714:	8b 95 f0 ee ff ff    	mov    -0x1110(%rbp),%edx
    771a:	48 8b 05 3f 05 01 00 	mov    0x1053f(%rip),%rax        # 17c60 <g_724>
    7721:	09 ca                	or     %ecx,%edx
    7723:	89 10                	mov    %edx,(%rax)
    7725:	48 8b 05 b4 05 01 00 	mov    0x105b4(%rip),%rax        # 17ce0 <g_1084>
    772c:	48 8b 00             	mov    (%rax),%rax
    772f:	48 39 85 e8 f0 ff ff 	cmp    %rax,-0xf18(%rbp)
    7736:	0f 94 c0             	sete   %al
    7739:	0f b6 c0             	movzbl %al,%eax
    773c:	be 00 00 00 00       	mov    $0x0,%esi
    7741:	89 c7                	mov    %eax,%edi
    7743:	e8 24 ac ff ff       	callq  236c <safe_rshift_func_int8_t_s_u>
    7748:	84 c0                	test   %al,%al
    774a:	74 07                	je     7753 <func_1+0x3f9e>
    774c:	b8 01 00 00 00       	mov    $0x1,%eax
    7751:	eb 05                	jmp    7758 <func_1+0x3fa3>
    7753:	b8 00 00 00 00       	mov    $0x0,%eax
    7758:	39 d8                	cmp    %ebx,%eax
    775a:	0f 9f c0             	setg   %al
    775d:	0f b6 c0             	movzbl %al,%eax
    7760:	be 06 00 00 00       	mov    $0x6,%esi
    7765:	89 c7                	mov    %eax,%edi
    7767:	e8 21 b5 ff ff       	callq  2c8d <safe_rshift_func_uint8_t_u_s>
    776c:	84 c0                	test   %al,%al
    776e:	74 07                	je     7777 <func_1+0x3fc2>
    7770:	b8 01 00 00 00       	mov    $0x1,%eax
    7775:	eb 05                	jmp    777c <func_1+0x3fc7>
    7777:	b8 00 00 00 00       	mov    $0x0,%eax
    777c:	0f b6 d0             	movzbl %al,%edx
    777f:	48 8d 05 ea 04 01 00 	lea    0x104ea(%rip),%rax        # 17c70 <g_737>
    7786:	48 89 85 a8 f0 ff ff 	mov    %rax,-0xf58(%rbp)
    778d:	48 8b 05 1c 07 01 00 	mov    0x1071c(%rip),%rax        # 17eb0 <g_1382>
    7794:	48 8b 00             	mov    (%rax),%rax
    7797:	48 8d 0d d2 04 01 00 	lea    0x104d2(%rip),%rcx        # 17c70 <g_737>
    779e:	48 39 c8             	cmp    %rcx,%rax
    77a1:	0f 95 c0             	setne  %al
    77a4:	0f b6 c0             	movzbl %al,%eax
    77a7:	89 d6                	mov    %edx,%esi
    77a9:	89 c7                	mov    %eax,%edi
    77ab:	e8 2b b4 ff ff       	callq  2bdb <safe_div_func_uint8_t_u_u>
    77b0:	0f b7 05 4d fb 00 00 	movzwl 0xfb4d(%rip),%eax        # 17304 <g_796>
    77b7:	66 85 c0             	test   %ax,%ax
    77ba:	74 10                	je     77cc <func_1+0x4017>
    77bc:	83 bd 94 ef ff ff 00 	cmpl   $0x0,-0x106c(%rbp)
    77c3:	74 07                	je     77cc <func_1+0x4017>
    77c5:	b8 01 00 00 00       	mov    $0x1,%eax
    77ca:	eb 05                	jmp    77d1 <func_1+0x401c>
    77cc:	b8 00 00 00 00       	mov    $0x0,%eax
    77d1:	3b 85 74 ef ff ff    	cmp    -0x108c(%rbp),%eax
    77d7:	0f 9f c0             	setg   %al
    77da:	0f b6 c0             	movzbl %al,%eax
    77dd:	be 00 00 00 00       	mov    $0x0,%esi
    77e2:	48 89 c7             	mov    %rax,%rdi
    77e5:	e8 be b0 ff ff       	callq  28a8 <safe_sub_func_int64_t_s_s>
    77ea:	48 89 c2             	mov    %rax,%rdx
    77ed:	48 8b 05 bc 03 01 00 	mov    0x103bc(%rip),%rax        # 17bb0 <g_385>
    77f4:	89 10                	mov    %edx,(%rax)
    77f6:	8b 85 d0 f5 ff ff    	mov    -0xa30(%rbp),%eax
    77fc:	85 c0                	test   %eax,%eax
    77fe:	75 0c                	jne    780c <func_1+0x4057>
    7800:	0f b7 85 9c ee ff ff 	movzwl -0x1164(%rbp),%eax
    7807:	e9 cc 17 00 00       	jmpq   8fd8 <func_1+0x5823>
    780c:	90                   	nop
    780d:	c7 85 b4 ee ff ff 00 	movl   $0x0,-0x114c(%rbp)
    7814:	00 00 00 
    7817:	90                   	nop
    7818:	8b 85 b4 ee ff ff    	mov    -0x114c(%rbp),%eax
    781e:	83 f8 e9             	cmp    $0xffffffe9,%eax
    7821:	0f 8d 96 10 00 00    	jge    88bd <func_1+0x5108>
    7827:	48 8d 85 48 f0 ff ff 	lea    -0xfb8(%rbp),%rax
    782e:	48 89 85 e8 f1 ff ff 	mov    %rax,-0xe18(%rbp)
    7835:	c7 85 a0 ef ff ff c9 	movl   $0xe78c59c9,-0x1060(%rbp)
    783c:	59 8c e7 
    783f:	c7 85 a4 ef ff ff 70 	movl   $0x9b682170,-0x105c(%rbp)
    7846:	21 68 9b 
    7849:	c7 85 a8 ef ff ff d5 	movl   $0x9472b3d5,-0x1058(%rbp)
    7850:	b3 72 94 
    7853:	c7 85 4c ef ff ff 0a 	movl   $0xa,-0x10b4(%rbp)
    785a:	00 00 00 
    785d:	e9 3a 10 00 00       	jmpq   889c <func_1+0x50e7>
    7862:	c7 85 ac ef ff ff dd 	movl   $0x530e1add,-0x1054(%rbp)
    7869:	1a 0e 53 
    786c:	48 c7 85 40 f8 ff ff 	movq   $0x0,-0x7c0(%rbp)
    7873:	00 00 00 00 
    7877:	48 8d 85 d4 ee ff ff 	lea    -0x112c(%rbp),%rax
    787e:	48 89 85 48 f8 ff ff 	mov    %rax,-0x7b8(%rbp)
    7885:	48 c7 85 50 f8 ff ff 	movq   $0x0,-0x7b0(%rbp)
    788c:	00 00 00 00 
    7890:	48 8d 85 00 ef ff ff 	lea    -0x1100(%rbp),%rax
    7897:	48 89 85 58 f8 ff ff 	mov    %rax,-0x7a8(%rbp)
    789e:	48 8d 85 e0 ee ff ff 	lea    -0x1120(%rbp),%rax
    78a5:	48 89 85 60 f8 ff ff 	mov    %rax,-0x7a0(%rbp)
    78ac:	48 8d 85 f0 ee ff ff 	lea    -0x1110(%rbp),%rax
    78b3:	48 89 85 68 f8 ff ff 	mov    %rax,-0x798(%rbp)
    78ba:	48 8d 85 d4 ee ff ff 	lea    -0x112c(%rbp),%rax
    78c1:	48 89 85 70 f8 ff ff 	mov    %rax,-0x790(%rbp)
    78c8:	48 8d 85 30 f4 ff ff 	lea    -0xbd0(%rbp),%rax
    78cf:	48 83 c0 18          	add    $0x18,%rax
    78d3:	48 89 85 78 f8 ff ff 	mov    %rax,-0x788(%rbp)
    78da:	48 8d 85 c0 ee ff ff 	lea    -0x1140(%rbp),%rax
    78e1:	48 89 85 80 f8 ff ff 	mov    %rax,-0x780(%rbp)
    78e8:	48 8d 85 b4 ee ff ff 	lea    -0x114c(%rbp),%rax
    78ef:	48 89 85 88 f8 ff ff 	mov    %rax,-0x778(%rbp)
    78f6:	48 8d 85 b4 ee ff ff 	lea    -0x114c(%rbp),%rax
    78fd:	48 89 85 90 f8 ff ff 	mov    %rax,-0x770(%rbp)
    7904:	48 8d 85 e8 ee ff ff 	lea    -0x1118(%rbp),%rax
    790b:	48 89 85 98 f8 ff ff 	mov    %rax,-0x768(%rbp)
    7912:	48 8d 85 d4 ee ff ff 	lea    -0x112c(%rbp),%rax
    7919:	48 89 85 a0 f8 ff ff 	mov    %rax,-0x760(%rbp)
    7920:	48 c7 85 a8 f8 ff ff 	movq   $0x0,-0x758(%rbp)
    7927:	00 00 00 00 
    792b:	48 8d 85 c8 ee ff ff 	lea    -0x1138(%rbp),%rax
    7932:	48 89 85 b0 f8 ff ff 	mov    %rax,-0x750(%rbp)
    7939:	48 8d 85 00 ef ff ff 	lea    -0x1100(%rbp),%rax
    7940:	48 89 85 b8 f8 ff ff 	mov    %rax,-0x748(%rbp)
    7947:	48 8d 85 b4 ee ff ff 	lea    -0x114c(%rbp),%rax
    794e:	48 89 85 c0 f8 ff ff 	mov    %rax,-0x740(%rbp)
    7955:	48 c7 85 c8 f8 ff ff 	movq   $0x0,-0x738(%rbp)
    795c:	00 00 00 00 
    7960:	48 c7 85 d0 f8 ff ff 	movq   $0x0,-0x730(%rbp)
    7967:	00 00 00 00 
    796b:	48 8d 85 e0 ee ff ff 	lea    -0x1120(%rbp),%rax
    7972:	48 89 85 d8 f8 ff ff 	mov    %rax,-0x728(%rbp)
    7979:	48 8d 85 d4 ee ff ff 	lea    -0x112c(%rbp),%rax
    7980:	48 89 85 e0 f8 ff ff 	mov    %rax,-0x720(%rbp)
    7987:	48 8d 85 08 ef ff ff 	lea    -0x10f8(%rbp),%rax
    798e:	48 89 85 e8 f8 ff ff 	mov    %rax,-0x718(%rbp)
    7995:	48 c7 85 f0 f8 ff ff 	movq   $0x0,-0x710(%rbp)
    799c:	00 00 00 00 
    79a0:	48 c7 85 f8 f8 ff ff 	movq   $0x0,-0x708(%rbp)
    79a7:	00 00 00 00 
    79ab:	48 8d 85 b4 ee ff ff 	lea    -0x114c(%rbp),%rax
    79b2:	48 89 85 00 f9 ff ff 	mov    %rax,-0x700(%rbp)
    79b9:	48 8d 85 cc ee ff ff 	lea    -0x1134(%rbp),%rax
    79c0:	48 89 85 08 f9 ff ff 	mov    %rax,-0x6f8(%rbp)
    79c7:	48 8d 85 d0 ee ff ff 	lea    -0x1130(%rbp),%rax
    79ce:	48 89 85 10 f9 ff ff 	mov    %rax,-0x6f0(%rbp)
    79d5:	48 8d 85 d0 ee ff ff 	lea    -0x1130(%rbp),%rax
    79dc:	48 89 85 18 f9 ff ff 	mov    %rax,-0x6e8(%rbp)
    79e3:	48 8d 85 d0 ee ff ff 	lea    -0x1130(%rbp),%rax
    79ea:	48 89 85 20 f9 ff ff 	mov    %rax,-0x6e0(%rbp)
    79f1:	48 8d 85 c8 ee ff ff 	lea    -0x1138(%rbp),%rax
    79f8:	48 89 85 28 f9 ff ff 	mov    %rax,-0x6d8(%rbp)
    79ff:	48 8d 85 08 ef ff ff 	lea    -0x10f8(%rbp),%rax
    7a06:	48 89 85 30 f9 ff ff 	mov    %rax,-0x6d0(%rbp)
    7a0d:	48 8d 85 cc ee ff ff 	lea    -0x1134(%rbp),%rax
    7a14:	48 89 85 38 f9 ff ff 	mov    %rax,-0x6c8(%rbp)
    7a1b:	48 8d 85 f8 ee ff ff 	lea    -0x1108(%rbp),%rax
    7a22:	48 89 85 40 f9 ff ff 	mov    %rax,-0x6c0(%rbp)
    7a29:	48 c7 85 48 f9 ff ff 	movq   $0x0,-0x6b8(%rbp)
    7a30:	00 00 00 00 
    7a34:	48 c7 85 50 f9 ff ff 	movq   $0x0,-0x6b0(%rbp)
    7a3b:	00 00 00 00 
    7a3f:	48 8d 85 f8 ee ff ff 	lea    -0x1108(%rbp),%rax
    7a46:	48 89 85 58 f9 ff ff 	mov    %rax,-0x6a8(%rbp)
    7a4d:	48 8d 85 e0 ee ff ff 	lea    -0x1120(%rbp),%rax
    7a54:	48 89 85 60 f9 ff ff 	mov    %rax,-0x6a0(%rbp)
    7a5b:	48 8d 85 e0 ee ff ff 	lea    -0x1120(%rbp),%rax
    7a62:	48 89 85 68 f9 ff ff 	mov    %rax,-0x698(%rbp)
    7a69:	48 8d 85 30 f4 ff ff 	lea    -0xbd0(%rbp),%rax
    7a70:	48 83 c0 18          	add    $0x18,%rax
    7a74:	48 89 85 70 f9 ff ff 	mov    %rax,-0x690(%rbp)
    7a7b:	48 8d 85 f0 ee ff ff 	lea    -0x1110(%rbp),%rax
    7a82:	48 89 85 78 f9 ff ff 	mov    %rax,-0x688(%rbp)
    7a89:	48 8d 85 b4 ee ff ff 	lea    -0x114c(%rbp),%rax
    7a90:	48 89 85 80 f9 ff ff 	mov    %rax,-0x680(%rbp)
    7a97:	48 8d 85 d8 ee ff ff 	lea    -0x1128(%rbp),%rax
    7a9e:	48 89 85 88 f9 ff ff 	mov    %rax,-0x678(%rbp)
    7aa5:	48 8d 85 30 f4 ff ff 	lea    -0xbd0(%rbp),%rax
    7aac:	48 83 c0 18          	add    $0x18,%rax
    7ab0:	48 89 85 90 f9 ff ff 	mov    %rax,-0x670(%rbp)
    7ab7:	48 c7 85 98 f9 ff ff 	movq   $0x0,-0x668(%rbp)
    7abe:	00 00 00 00 
    7ac2:	48 8d 85 e8 ee ff ff 	lea    -0x1118(%rbp),%rax
    7ac9:	48 89 85 a0 f9 ff ff 	mov    %rax,-0x660(%rbp)
    7ad0:	48 8d 85 b4 ee ff ff 	lea    -0x114c(%rbp),%rax
    7ad7:	48 89 85 a8 f9 ff ff 	mov    %rax,-0x658(%rbp)
    7ade:	48 8d 85 b4 ee ff ff 	lea    -0x114c(%rbp),%rax
    7ae5:	48 89 85 b0 f9 ff ff 	mov    %rax,-0x650(%rbp)
    7aec:	48 8d 85 30 f4 ff ff 	lea    -0xbd0(%rbp),%rax
    7af3:	48 83 c0 18          	add    $0x18,%rax
    7af7:	48 89 85 b8 f9 ff ff 	mov    %rax,-0x648(%rbp)
    7afe:	48 8d 85 d0 ee ff ff 	lea    -0x1130(%rbp),%rax
    7b05:	48 89 85 c0 f9 ff ff 	mov    %rax,-0x640(%rbp)
    7b0c:	48 8d 85 30 f4 ff ff 	lea    -0xbd0(%rbp),%rax
    7b13:	48 83 c0 18          	add    $0x18,%rax
    7b17:	48 89 85 c8 f9 ff ff 	mov    %rax,-0x638(%rbp)
    7b1e:	48 8d 85 e8 ee ff ff 	lea    -0x1118(%rbp),%rax
    7b25:	48 89 85 d0 f9 ff ff 	mov    %rax,-0x630(%rbp)
    7b2c:	48 8d 85 d4 ee ff ff 	lea    -0x112c(%rbp),%rax
    7b33:	48 89 85 d8 f9 ff ff 	mov    %rax,-0x628(%rbp)
    7b3a:	48 8d 85 e0 ee ff ff 	lea    -0x1120(%rbp),%rax
    7b41:	48 89 85 e0 f9 ff ff 	mov    %rax,-0x620(%rbp)
    7b48:	48 8d 85 d8 ee ff ff 	lea    -0x1128(%rbp),%rax
    7b4f:	48 89 85 e8 f9 ff ff 	mov    %rax,-0x618(%rbp)
    7b56:	48 8d 85 cc ee ff ff 	lea    -0x1134(%rbp),%rax
    7b5d:	48 89 85 f0 f9 ff ff 	mov    %rax,-0x610(%rbp)
    7b64:	48 8d 85 d4 ee ff ff 	lea    -0x112c(%rbp),%rax
    7b6b:	48 89 85 f8 f9 ff ff 	mov    %rax,-0x608(%rbp)
    7b72:	48 8d 85 30 f4 ff ff 	lea    -0xbd0(%rbp),%rax
    7b79:	48 83 c0 18          	add    $0x18,%rax
    7b7d:	48 89 85 00 fa ff ff 	mov    %rax,-0x600(%rbp)
    7b84:	48 8d 85 bc ee ff ff 	lea    -0x1144(%rbp),%rax
    7b8b:	48 89 85 08 fa ff ff 	mov    %rax,-0x5f8(%rbp)
    7b92:	48 8d 05 9f f4 00 00 	lea    0xf49f(%rip),%rax        # 17038 <g_99>
    7b99:	48 89 85 10 fa ff ff 	mov    %rax,-0x5f0(%rbp)
    7ba0:	48 8d 85 f8 ee ff ff 	lea    -0x1108(%rbp),%rax
    7ba7:	48 89 85 18 fa ff ff 	mov    %rax,-0x5e8(%rbp)
    7bae:	48 8d 85 bc ee ff ff 	lea    -0x1144(%rbp),%rax
    7bb5:	48 89 85 20 fa ff ff 	mov    %rax,-0x5e0(%rbp)
    7bbc:	48 8d 05 75 f4 00 00 	lea    0xf475(%rip),%rax        # 17038 <g_99>
    7bc3:	48 89 85 28 fa ff ff 	mov    %rax,-0x5d8(%rbp)
    7bca:	48 8d 85 f8 ee ff ff 	lea    -0x1108(%rbp),%rax
    7bd1:	48 89 85 30 fa ff ff 	mov    %rax,-0x5d0(%rbp)
    7bd8:	48 8d 85 b4 ee ff ff 	lea    -0x114c(%rbp),%rax
    7bdf:	48 89 85 38 fa ff ff 	mov    %rax,-0x5c8(%rbp)
    7be6:	48 c7 85 40 fa ff ff 	movq   $0x0,-0x5c0(%rbp)
    7bed:	00 00 00 00 
    7bf1:	48 8d 85 c8 ee ff ff 	lea    -0x1138(%rbp),%rax
    7bf8:	48 89 85 48 fa ff ff 	mov    %rax,-0x5b8(%rbp)
    7bff:	48 8d 85 f0 ee ff ff 	lea    -0x1110(%rbp),%rax
    7c06:	48 89 85 50 fa ff ff 	mov    %rax,-0x5b0(%rbp)
    7c0d:	48 8d 85 dc ee ff ff 	lea    -0x1124(%rbp),%rax
    7c14:	48 89 85 58 fa ff ff 	mov    %rax,-0x5a8(%rbp)
    7c1b:	48 8d 85 d0 ee ff ff 	lea    -0x1130(%rbp),%rax
    7c22:	48 89 85 60 fa ff ff 	mov    %rax,-0x5a0(%rbp)
    7c29:	48 8d 85 b4 ee ff ff 	lea    -0x114c(%rbp),%rax
    7c30:	48 89 85 68 fa ff ff 	mov    %rax,-0x598(%rbp)
    7c37:	48 8d 85 bc ee ff ff 	lea    -0x1144(%rbp),%rax
    7c3e:	48 89 85 70 fa ff ff 	mov    %rax,-0x590(%rbp)
    7c45:	48 c7 85 78 fa ff ff 	movq   $0x0,-0x588(%rbp)
    7c4c:	00 00 00 00 
    7c50:	48 8d 85 bc ee ff ff 	lea    -0x1144(%rbp),%rax
    7c57:	48 89 85 80 fa ff ff 	mov    %rax,-0x580(%rbp)
    7c5e:	48 8d 85 d0 ee ff ff 	lea    -0x1130(%rbp),%rax
    7c65:	48 89 85 88 fa ff ff 	mov    %rax,-0x578(%rbp)
    7c6c:	48 8d 85 d4 ee ff ff 	lea    -0x112c(%rbp),%rax
    7c73:	48 89 85 90 fa ff ff 	mov    %rax,-0x570(%rbp)
    7c7a:	48 8d 85 bc ee ff ff 	lea    -0x1144(%rbp),%rax
    7c81:	48 89 85 98 fa ff ff 	mov    %rax,-0x568(%rbp)
    7c88:	48 8d 85 30 f4 ff ff 	lea    -0xbd0(%rbp),%rax
    7c8f:	48 83 c0 18          	add    $0x18,%rax
    7c93:	48 89 85 a0 fa ff ff 	mov    %rax,-0x560(%rbp)
    7c9a:	48 c7 85 a8 fa ff ff 	movq   $0x0,-0x558(%rbp)
    7ca1:	00 00 00 00 
    7ca5:	48 8d 85 cc ee ff ff 	lea    -0x1134(%rbp),%rax
    7cac:	48 89 85 b0 fa ff ff 	mov    %rax,-0x550(%rbp)
    7cb3:	48 8d 85 f0 ee ff ff 	lea    -0x1110(%rbp),%rax
    7cba:	48 89 85 b8 fa ff ff 	mov    %rax,-0x548(%rbp)
    7cc1:	48 8d 85 c8 ee ff ff 	lea    -0x1138(%rbp),%rax
    7cc8:	48 89 85 c0 fa ff ff 	mov    %rax,-0x540(%rbp)
    7ccf:	48 8d 85 d4 ee ff ff 	lea    -0x112c(%rbp),%rax
    7cd6:	48 89 85 c8 fa ff ff 	mov    %rax,-0x538(%rbp)
    7cdd:	48 8d 85 00 ef ff ff 	lea    -0x1100(%rbp),%rax
    7ce4:	48 89 85 d0 fa ff ff 	mov    %rax,-0x530(%rbp)
    7ceb:	48 8d 85 e8 ee ff ff 	lea    -0x1118(%rbp),%rax
    7cf2:	48 89 85 d8 fa ff ff 	mov    %rax,-0x528(%rbp)
    7cf9:	48 8d 85 d0 ee ff ff 	lea    -0x1130(%rbp),%rax
    7d00:	48 89 85 e0 fa ff ff 	mov    %rax,-0x520(%rbp)
    7d07:	48 8d 85 b4 ee ff ff 	lea    -0x114c(%rbp),%rax
    7d0e:	48 89 85 e8 fa ff ff 	mov    %rax,-0x518(%rbp)
    7d15:	48 8d 85 c0 ee ff ff 	lea    -0x1140(%rbp),%rax
    7d1c:	48 89 85 f0 fa ff ff 	mov    %rax,-0x510(%rbp)
    7d23:	48 8d 85 b4 ee ff ff 	lea    -0x114c(%rbp),%rax
    7d2a:	48 89 85 f8 fa ff ff 	mov    %rax,-0x508(%rbp)
    7d31:	48 8d 85 00 ef ff ff 	lea    -0x1100(%rbp),%rax
    7d38:	48 89 85 00 fb ff ff 	mov    %rax,-0x500(%rbp)
    7d3f:	48 8d 85 f0 ee ff ff 	lea    -0x1110(%rbp),%rax
    7d46:	48 89 85 08 fb ff ff 	mov    %rax,-0x4f8(%rbp)
    7d4d:	48 8d 85 30 f4 ff ff 	lea    -0xbd0(%rbp),%rax
    7d54:	48 83 c0 18          	add    $0x18,%rax
    7d58:	48 89 85 10 fb ff ff 	mov    %rax,-0x4f0(%rbp)
    7d5f:	48 8d 85 f0 ee ff ff 	lea    -0x1110(%rbp),%rax
    7d66:	48 89 85 18 fb ff ff 	mov    %rax,-0x4e8(%rbp)
    7d6d:	48 c7 85 20 fb ff ff 	movq   $0x0,-0x4e0(%rbp)
    7d74:	00 00 00 00 
    7d78:	48 8d 85 f0 ee ff ff 	lea    -0x1110(%rbp),%rax
    7d7f:	48 89 85 28 fb ff ff 	mov    %rax,-0x4d8(%rbp)
    7d86:	48 8d 85 30 f4 ff ff 	lea    -0xbd0(%rbp),%rax
    7d8d:	48 83 c0 18          	add    $0x18,%rax
    7d91:	48 89 85 30 fb ff ff 	mov    %rax,-0x4d0(%rbp)
    7d98:	48 8d 85 a8 ee ff ff 	lea    -0x1158(%rbp),%rax
    7d9f:	48 89 85 38 fb ff ff 	mov    %rax,-0x4c8(%rbp)
    7da6:	48 8d 85 e0 ee ff ff 	lea    -0x1120(%rbp),%rax
    7dad:	48 89 85 40 fb ff ff 	mov    %rax,-0x4c0(%rbp)
    7db4:	48 8d 85 d0 ee ff ff 	lea    -0x1130(%rbp),%rax
    7dbb:	48 89 85 48 fb ff ff 	mov    %rax,-0x4b8(%rbp)
    7dc2:	48 8d 85 fc ee ff ff 	lea    -0x1104(%rbp),%rax
    7dc9:	48 89 85 50 fb ff ff 	mov    %rax,-0x4b0(%rbp)
    7dd0:	48 c7 85 58 fb ff ff 	movq   $0x0,-0x4a8(%rbp)
    7dd7:	00 00 00 00 
    7ddb:	48 8d 85 bc ee ff ff 	lea    -0x1144(%rbp),%rax
    7de2:	48 89 85 60 fb ff ff 	mov    %rax,-0x4a0(%rbp)
    7de9:	48 8d 85 c4 ee ff ff 	lea    -0x113c(%rbp),%rax
    7df0:	48 89 85 68 fb ff ff 	mov    %rax,-0x498(%rbp)
    7df7:	48 8d 85 08 ef ff ff 	lea    -0x10f8(%rbp),%rax
    7dfe:	48 89 85 70 fb ff ff 	mov    %rax,-0x490(%rbp)
    7e05:	48 8d 85 dc ee ff ff 	lea    -0x1124(%rbp),%rax
    7e0c:	48 89 85 78 fb ff ff 	mov    %rax,-0x488(%rbp)
    7e13:	48 8d 85 d8 ee ff ff 	lea    -0x1128(%rbp),%rax
    7e1a:	48 89 85 80 fb ff ff 	mov    %rax,-0x480(%rbp)
    7e21:	48 8d 85 d0 ee ff ff 	lea    -0x1130(%rbp),%rax
    7e28:	48 89 85 88 fb ff ff 	mov    %rax,-0x478(%rbp)
    7e2f:	48 c7 85 90 fb ff ff 	movq   $0x0,-0x470(%rbp)
    7e36:	00 00 00 00 
    7e3a:	48 8d 85 c4 ee ff ff 	lea    -0x113c(%rbp),%rax
    7e41:	48 89 85 98 fb ff ff 	mov    %rax,-0x468(%rbp)
    7e48:	48 8d 85 b4 ee ff ff 	lea    -0x114c(%rbp),%rax
    7e4f:	48 89 85 a0 fb ff ff 	mov    %rax,-0x460(%rbp)
    7e56:	48 8d 05 db f1 00 00 	lea    0xf1db(%rip),%rax        # 17038 <g_99>
    7e5d:	48 89 85 a8 fb ff ff 	mov    %rax,-0x458(%rbp)
    7e64:	48 8d 85 fc ee ff ff 	lea    -0x1104(%rbp),%rax
    7e6b:	48 89 85 b0 fb ff ff 	mov    %rax,-0x450(%rbp)
    7e72:	48 8d 85 08 ef ff ff 	lea    -0x10f8(%rbp),%rax
    7e79:	48 89 85 b8 fb ff ff 	mov    %rax,-0x448(%rbp)
    7e80:	48 8d 05 b1 f1 00 00 	lea    0xf1b1(%rip),%rax        # 17038 <g_99>
    7e87:	48 89 85 c0 fb ff ff 	mov    %rax,-0x440(%rbp)
    7e8e:	48 8d 85 a8 ee ff ff 	lea    -0x1158(%rbp),%rax
    7e95:	48 89 85 c8 fb ff ff 	mov    %rax,-0x438(%rbp)
    7e9c:	48 c7 85 d0 fb ff ff 	movq   $0x0,-0x430(%rbp)
    7ea3:	00 00 00 00 
    7ea7:	48 8d 85 d4 ee ff ff 	lea    -0x112c(%rbp),%rax
    7eae:	48 89 85 d8 fb ff ff 	mov    %rax,-0x428(%rbp)
    7eb5:	48 c7 85 e0 fb ff ff 	movq   $0x0,-0x420(%rbp)
    7ebc:	00 00 00 00 
    7ec0:	48 8d 85 00 ef ff ff 	lea    -0x1100(%rbp),%rax
    7ec7:	48 89 85 e8 fb ff ff 	mov    %rax,-0x418(%rbp)
    7ece:	48 8d 85 e0 ee ff ff 	lea    -0x1120(%rbp),%rax
    7ed5:	48 89 85 f0 fb ff ff 	mov    %rax,-0x410(%rbp)
    7edc:	48 8d 85 f0 ee ff ff 	lea    -0x1110(%rbp),%rax
    7ee3:	48 89 85 f8 fb ff ff 	mov    %rax,-0x408(%rbp)
    7eea:	48 8d 85 d4 ee ff ff 	lea    -0x112c(%rbp),%rax
    7ef1:	48 89 85 00 fc ff ff 	mov    %rax,-0x400(%rbp)
    7ef8:	48 8d 85 30 f4 ff ff 	lea    -0xbd0(%rbp),%rax
    7eff:	48 83 c0 18          	add    $0x18,%rax
    7f03:	48 89 85 08 fc ff ff 	mov    %rax,-0x3f8(%rbp)
    7f0a:	48 8d 85 c0 ee ff ff 	lea    -0x1140(%rbp),%rax
    7f11:	48 89 85 10 fc ff ff 	mov    %rax,-0x3f0(%rbp)
    7f18:	48 8d 85 b4 ee ff ff 	lea    -0x114c(%rbp),%rax
    7f1f:	48 89 85 18 fc ff ff 	mov    %rax,-0x3e8(%rbp)
    7f26:	48 8d 85 b4 ee ff ff 	lea    -0x114c(%rbp),%rax
    7f2d:	48 89 85 20 fc ff ff 	mov    %rax,-0x3e0(%rbp)
    7f34:	48 8d 85 e8 ee ff ff 	lea    -0x1118(%rbp),%rax
    7f3b:	48 89 85 28 fc ff ff 	mov    %rax,-0x3d8(%rbp)
    7f42:	48 8d 85 d4 ee ff ff 	lea    -0x112c(%rbp),%rax
    7f49:	48 89 85 30 fc ff ff 	mov    %rax,-0x3d0(%rbp)
    7f50:	48 c7 85 38 fc ff ff 	movq   $0x0,-0x3c8(%rbp)
    7f57:	00 00 00 00 
    7f5b:	48 8d 85 c8 ee ff ff 	lea    -0x1138(%rbp),%rax
    7f62:	48 89 85 40 fc ff ff 	mov    %rax,-0x3c0(%rbp)
    7f69:	48 8d 85 00 ef ff ff 	lea    -0x1100(%rbp),%rax
    7f70:	48 89 85 48 fc ff ff 	mov    %rax,-0x3b8(%rbp)
    7f77:	48 8d 85 b4 ee ff ff 	lea    -0x114c(%rbp),%rax
    7f7e:	48 89 85 50 fc ff ff 	mov    %rax,-0x3b0(%rbp)
    7f85:	48 c7 85 58 fc ff ff 	movq   $0x0,-0x3a8(%rbp)
    7f8c:	00 00 00 00 
    7f90:	48 c7 85 60 fc ff ff 	movq   $0x0,-0x3a0(%rbp)
    7f97:	00 00 00 00 
    7f9b:	48 8d 85 e0 ee ff ff 	lea    -0x1120(%rbp),%rax
    7fa2:	48 89 85 68 fc ff ff 	mov    %rax,-0x398(%rbp)
    7fa9:	48 8d 85 d4 ee ff ff 	lea    -0x112c(%rbp),%rax
    7fb0:	48 89 85 70 fc ff ff 	mov    %rax,-0x390(%rbp)
    7fb7:	48 8d 85 08 ef ff ff 	lea    -0x10f8(%rbp),%rax
    7fbe:	48 89 85 78 fc ff ff 	mov    %rax,-0x388(%rbp)
    7fc5:	48 c7 85 80 fc ff ff 	movq   $0x0,-0x380(%rbp)
    7fcc:	00 00 00 00 
    7fd0:	48 c7 85 88 fc ff ff 	movq   $0x0,-0x378(%rbp)
    7fd7:	00 00 00 00 
    7fdb:	48 8d 85 b4 ee ff ff 	lea    -0x114c(%rbp),%rax
    7fe2:	48 89 85 90 fc ff ff 	mov    %rax,-0x370(%rbp)
    7fe9:	48 8d 85 cc ee ff ff 	lea    -0x1134(%rbp),%rax
    7ff0:	48 89 85 98 fc ff ff 	mov    %rax,-0x368(%rbp)
    7ff7:	48 8d 85 d0 ee ff ff 	lea    -0x1130(%rbp),%rax
    7ffe:	48 89 85 a0 fc ff ff 	mov    %rax,-0x360(%rbp)
    8005:	48 8d 85 d0 ee ff ff 	lea    -0x1130(%rbp),%rax
    800c:	48 89 85 a8 fc ff ff 	mov    %rax,-0x358(%rbp)
    8013:	48 8d 85 d0 ee ff ff 	lea    -0x1130(%rbp),%rax
    801a:	48 89 85 b0 fc ff ff 	mov    %rax,-0x350(%rbp)
    8021:	48 8d 85 c8 ee ff ff 	lea    -0x1138(%rbp),%rax
    8028:	48 89 85 b8 fc ff ff 	mov    %rax,-0x348(%rbp)
    802f:	48 8d 85 08 ef ff ff 	lea    -0x10f8(%rbp),%rax
    8036:	48 89 85 c0 fc ff ff 	mov    %rax,-0x340(%rbp)
    803d:	48 8d 85 cc ee ff ff 	lea    -0x1134(%rbp),%rax
    8044:	48 89 85 c8 fc ff ff 	mov    %rax,-0x338(%rbp)
    804b:	48 8d 85 f8 ee ff ff 	lea    -0x1108(%rbp),%rax
    8052:	48 89 85 d0 fc ff ff 	mov    %rax,-0x330(%rbp)
    8059:	48 c7 85 d8 fc ff ff 	movq   $0x0,-0x328(%rbp)
    8060:	00 00 00 00 
    8064:	48 8d 85 c4 ee ff ff 	lea    -0x113c(%rbp),%rax
    806b:	48 89 85 e0 fc ff ff 	mov    %rax,-0x320(%rbp)
    8072:	48 8d 85 b4 ee ff ff 	lea    -0x114c(%rbp),%rax
    8079:	48 89 85 e8 fc ff ff 	mov    %rax,-0x318(%rbp)
    8080:	48 8d 85 04 ef ff ff 	lea    -0x10fc(%rbp),%rax
    8087:	48 89 85 f0 fc ff ff 	mov    %rax,-0x310(%rbp)
    808e:	48 8d 85 04 ef ff ff 	lea    -0x10fc(%rbp),%rax
    8095:	48 89 85 f8 fc ff ff 	mov    %rax,-0x308(%rbp)
    809c:	48 c7 85 00 fd ff ff 	movq   $0x0,-0x300(%rbp)
    80a3:	00 00 00 00 
    80a7:	48 8d 85 e0 ee ff ff 	lea    -0x1120(%rbp),%rax
    80ae:	48 89 85 08 fd ff ff 	mov    %rax,-0x2f8(%rbp)
    80b5:	48 8d 85 f8 ee ff ff 	lea    -0x1108(%rbp),%rax
    80bc:	48 89 85 10 fd ff ff 	mov    %rax,-0x2f0(%rbp)
    80c3:	48 8d 85 dc ee ff ff 	lea    -0x1124(%rbp),%rax
    80ca:	48 89 85 18 fd ff ff 	mov    %rax,-0x2e8(%rbp)
    80d1:	48 c7 85 20 fd ff ff 	movq   $0x0,-0x2e0(%rbp)
    80d8:	00 00 00 00 
    80dc:	48 8d 85 c4 ee ff ff 	lea    -0x113c(%rbp),%rax
    80e3:	48 89 85 28 fd ff ff 	mov    %rax,-0x2d8(%rbp)
    80ea:	48 8d 85 d4 ee ff ff 	lea    -0x112c(%rbp),%rax
    80f1:	48 89 85 30 fd ff ff 	mov    %rax,-0x2d0(%rbp)
    80f8:	48 8d 05 39 ef 00 00 	lea    0xef39(%rip),%rax        # 17038 <g_99>
    80ff:	48 89 85 38 fd ff ff 	mov    %rax,-0x2c8(%rbp)
    8106:	48 8d 85 30 f4 ff ff 	lea    -0xbd0(%rbp),%rax
    810d:	48 83 c0 18          	add    $0x18,%rax
    8111:	48 89 85 40 fd ff ff 	mov    %rax,-0x2c0(%rbp)
    8118:	48 c7 85 48 fd ff ff 	movq   $0x0,-0x2b8(%rbp)
    811f:	00 00 00 00 
    8123:	48 8d 85 0c ef ff ff 	lea    -0x10f4(%rbp),%rax
    812a:	48 89 85 50 fd ff ff 	mov    %rax,-0x2b0(%rbp)
    8131:	48 c7 85 58 fd ff ff 	movq   $0x0,-0x2a8(%rbp)
    8138:	00 00 00 00 
    813c:	48 8d 85 d4 ee ff ff 	lea    -0x112c(%rbp),%rax
    8143:	48 89 85 60 fd ff ff 	mov    %rax,-0x2a0(%rbp)
    814a:	48 8d 85 e4 ee ff ff 	lea    -0x111c(%rbp),%rax
    8151:	48 89 85 68 fd ff ff 	mov    %rax,-0x298(%rbp)
    8158:	48 8d 85 04 ef ff ff 	lea    -0x10fc(%rbp),%rax
    815f:	48 89 85 70 fd ff ff 	mov    %rax,-0x290(%rbp)
    8166:	48 8d 85 dc ee ff ff 	lea    -0x1124(%rbp),%rax
    816d:	48 89 85 78 fd ff ff 	mov    %rax,-0x288(%rbp)
    8174:	48 8d 85 c0 ee ff ff 	lea    -0x1140(%rbp),%rax
    817b:	48 89 85 80 fd ff ff 	mov    %rax,-0x280(%rbp)
    8182:	48 8d 85 e4 ee ff ff 	lea    -0x111c(%rbp),%rax
    8189:	48 89 85 88 fd ff ff 	mov    %rax,-0x278(%rbp)
    8190:	48 c7 85 90 fd ff ff 	movq   $0x0,-0x270(%rbp)
    8197:	00 00 00 00 
    819b:	48 8d 85 ec ee ff ff 	lea    -0x1114(%rbp),%rax
    81a2:	48 89 85 98 fd ff ff 	mov    %rax,-0x268(%rbp)
    81a9:	48 8d 85 b0 ee ff ff 	lea    -0x1150(%rbp),%rax
    81b0:	48 89 85 a0 fd ff ff 	mov    %rax,-0x260(%rbp)
    81b7:	48 8d 85 b4 ee ff ff 	lea    -0x114c(%rbp),%rax
    81be:	48 89 85 a8 fd ff ff 	mov    %rax,-0x258(%rbp)
    81c5:	48 8d 85 ec ee ff ff 	lea    -0x1114(%rbp),%rax
    81cc:	48 89 85 b0 fd ff ff 	mov    %rax,-0x250(%rbp)
    81d3:	48 8d 85 b0 ee ff ff 	lea    -0x1150(%rbp),%rax
    81da:	48 89 85 b8 fd ff ff 	mov    %rax,-0x248(%rbp)
    81e1:	48 8d 85 b4 ee ff ff 	lea    -0x114c(%rbp),%rax
    81e8:	48 89 85 c0 fd ff ff 	mov    %rax,-0x240(%rbp)
    81ef:	48 8d 85 30 f4 ff ff 	lea    -0xbd0(%rbp),%rax
    81f6:	48 83 c0 18          	add    $0x18,%rax
    81fa:	48 89 85 c8 fd ff ff 	mov    %rax,-0x238(%rbp)
    8201:	48 8d 85 d8 ee ff ff 	lea    -0x1128(%rbp),%rax
    8208:	48 89 85 d0 fd ff ff 	mov    %rax,-0x230(%rbp)
    820f:	48 8d 85 30 f4 ff ff 	lea    -0xbd0(%rbp),%rax
    8216:	48 83 c0 18          	add    $0x18,%rax
    821a:	48 89 85 d8 fd ff ff 	mov    %rax,-0x228(%rbp)
    8221:	48 8d 85 e0 ee ff ff 	lea    -0x1120(%rbp),%rax
    8228:	48 89 85 e0 fd ff ff 	mov    %rax,-0x220(%rbp)
    822f:	48 8d 85 ac ee ff ff 	lea    -0x1154(%rbp),%rax
    8236:	48 89 85 e8 fd ff ff 	mov    %rax,-0x218(%rbp)
    823d:	48 8d 85 08 ef ff ff 	lea    -0x10f8(%rbp),%rax
    8244:	48 89 85 f0 fd ff ff 	mov    %rax,-0x210(%rbp)
    824b:	48 8d 85 30 f4 ff ff 	lea    -0xbd0(%rbp),%rax
    8252:	48 83 c0 18          	add    $0x18,%rax
    8256:	48 89 85 f8 fd ff ff 	mov    %rax,-0x208(%rbp)
    825d:	48 8d 85 ec ee ff ff 	lea    -0x1114(%rbp),%rax
    8264:	48 89 85 00 fe ff ff 	mov    %rax,-0x200(%rbp)
    826b:	48 8d 85 cc ee ff ff 	lea    -0x1134(%rbp),%rax
    8272:	48 89 85 08 fe ff ff 	mov    %rax,-0x1f8(%rbp)
    8279:	48 8d 85 ec ee ff ff 	lea    -0x1114(%rbp),%rax
    8280:	48 89 85 10 fe ff ff 	mov    %rax,-0x1f0(%rbp)
    8287:	48 c7 85 18 fe ff ff 	movq   $0x0,-0x1e8(%rbp)
    828e:	00 00 00 00 
    8292:	48 8d 85 e0 ee ff ff 	lea    -0x1120(%rbp),%rax
    8299:	48 89 85 20 fe ff ff 	mov    %rax,-0x1e0(%rbp)
    82a0:	48 8d 85 ec ee ff ff 	lea    -0x1114(%rbp),%rax
    82a7:	48 89 85 28 fe ff ff 	mov    %rax,-0x1d8(%rbp)
    82ae:	48 c7 85 30 fe ff ff 	movq   $0x0,-0x1d0(%rbp)
    82b5:	00 00 00 00 
    82b9:	48 8d 85 b4 ee ff ff 	lea    -0x114c(%rbp),%rax
    82c0:	48 89 85 38 fe ff ff 	mov    %rax,-0x1c8(%rbp)
    82c7:	48 8d 85 c0 ee ff ff 	lea    -0x1140(%rbp),%rax
    82ce:	48 89 85 40 fe ff ff 	mov    %rax,-0x1c0(%rbp)
    82d5:	48 8d 85 e0 ee ff ff 	lea    -0x1120(%rbp),%rax
    82dc:	48 89 85 48 fe ff ff 	mov    %rax,-0x1b8(%rbp)
    82e3:	48 8d 85 30 f4 ff ff 	lea    -0xbd0(%rbp),%rax
    82ea:	48 83 c0 18          	add    $0x18,%rax
    82ee:	48 89 85 50 fe ff ff 	mov    %rax,-0x1b0(%rbp)
    82f5:	48 8d 85 e4 ee ff ff 	lea    -0x111c(%rbp),%rax
    82fc:	48 89 85 58 fe ff ff 	mov    %rax,-0x1a8(%rbp)
    8303:	48 8d 85 d4 ee ff ff 	lea    -0x112c(%rbp),%rax
    830a:	48 89 85 60 fe ff ff 	mov    %rax,-0x1a0(%rbp)
    8311:	48 8d 85 d4 ee ff ff 	lea    -0x112c(%rbp),%rax
    8318:	48 89 85 68 fe ff ff 	mov    %rax,-0x198(%rbp)
    831f:	48 8d 85 0c ef ff ff 	lea    -0x10f4(%rbp),%rax
    8326:	48 89 85 70 fe ff ff 	mov    %rax,-0x190(%rbp)
    832d:	48 8d 85 30 f4 ff ff 	lea    -0xbd0(%rbp),%rax
    8334:	48 83 c0 18          	add    $0x18,%rax
    8338:	48 89 85 78 fe ff ff 	mov    %rax,-0x188(%rbp)
    833f:	48 8d 85 d0 ee ff ff 	lea    -0x1130(%rbp),%rax
    8346:	48 89 85 80 fe ff ff 	mov    %rax,-0x180(%rbp)
    834d:	48 8d 05 e4 ec 00 00 	lea    0xece4(%rip),%rax        # 17038 <g_99>
    8354:	48 89 85 88 fe ff ff 	mov    %rax,-0x178(%rbp)
    835b:	48 8d 85 d4 ee ff ff 	lea    -0x112c(%rbp),%rax
    8362:	48 89 85 90 fe ff ff 	mov    %rax,-0x170(%rbp)
    8369:	48 8d 85 b4 ee ff ff 	lea    -0x114c(%rbp),%rax
    8370:	48 89 85 98 fe ff ff 	mov    %rax,-0x168(%rbp)
    8377:	48 c7 85 a0 fe ff ff 	movq   $0x0,-0x160(%rbp)
    837e:	00 00 00 00 
    8382:	48 8d 85 e0 ee ff ff 	lea    -0x1120(%rbp),%rax
    8389:	48 89 85 a8 fe ff ff 	mov    %rax,-0x158(%rbp)
    8390:	48 8d 85 cc ee ff ff 	lea    -0x1134(%rbp),%rax
    8397:	48 89 85 b0 fe ff ff 	mov    %rax,-0x150(%rbp)
    839e:	48 8d 85 e0 ee ff ff 	lea    -0x1120(%rbp),%rax
    83a5:	48 89 85 b8 fe ff ff 	mov    %rax,-0x148(%rbp)
    83ac:	48 c7 85 c0 fe ff ff 	movq   $0x0,-0x140(%rbp)
    83b3:	00 00 00 00 
    83b7:	48 8d 85 00 ef ff ff 	lea    -0x1100(%rbp),%rax
    83be:	48 89 85 c8 fe ff ff 	mov    %rax,-0x138(%rbp)
    83c5:	48 8d 85 04 ef ff ff 	lea    -0x10fc(%rbp),%rax
    83cc:	48 89 85 d0 fe ff ff 	mov    %rax,-0x130(%rbp)
    83d3:	48 c7 85 d8 fe ff ff 	movq   $0x0,-0x128(%rbp)
    83da:	00 00 00 00 
    83de:	48 8d 85 bc ee ff ff 	lea    -0x1144(%rbp),%rax
    83e5:	48 89 85 e0 fe ff ff 	mov    %rax,-0x120(%rbp)
    83ec:	48 8d 85 c4 ee ff ff 	lea    -0x113c(%rbp),%rax
    83f3:	48 89 85 e8 fe ff ff 	mov    %rax,-0x118(%rbp)
    83fa:	48 8d 85 ec ee ff ff 	lea    -0x1114(%rbp),%rax
    8401:	48 89 85 f0 fe ff ff 	mov    %rax,-0x110(%rbp)
    8408:	48 8d 85 f4 ee ff ff 	lea    -0x110c(%rbp),%rax
    840f:	48 89 85 f8 fe ff ff 	mov    %rax,-0x108(%rbp)
    8416:	48 8d 85 b0 ee ff ff 	lea    -0x1150(%rbp),%rax
    841d:	48 89 85 00 ff ff ff 	mov    %rax,-0x100(%rbp)
    8424:	48 8d 85 ac ee ff ff 	lea    -0x1154(%rbp),%rax
    842b:	48 89 85 08 ff ff ff 	mov    %rax,-0xf8(%rbp)
    8432:	48 8d 85 f0 ee ff ff 	lea    -0x1110(%rbp),%rax
    8439:	48 89 85 10 ff ff ff 	mov    %rax,-0xf0(%rbp)
    8440:	48 c7 85 18 ff ff ff 	movq   $0x0,-0xe8(%rbp)
    8447:	00 00 00 00 
    844b:	48 8d 85 d8 ee ff ff 	lea    -0x1128(%rbp),%rax
    8452:	48 89 85 20 ff ff ff 	mov    %rax,-0xe0(%rbp)
    8459:	48 8d 85 f4 ee ff ff 	lea    -0x110c(%rbp),%rax
    8460:	48 89 85 28 ff ff ff 	mov    %rax,-0xd8(%rbp)
    8467:	48 8d 05 ca eb 00 00 	lea    0xebca(%rip),%rax        # 17038 <g_99>
    846e:	48 89 85 30 ff ff ff 	mov    %rax,-0xd0(%rbp)
    8475:	48 8d 85 b0 ee ff ff 	lea    -0x1150(%rbp),%rax
    847c:	48 89 85 38 ff ff ff 	mov    %rax,-0xc8(%rbp)
    8483:	48 8d 85 bc ee ff ff 	lea    -0x1144(%rbp),%rax
    848a:	48 89 85 40 ff ff ff 	mov    %rax,-0xc0(%rbp)
    8491:	48 8d 85 b0 ee ff ff 	lea    -0x1150(%rbp),%rax
    8498:	48 89 85 48 ff ff ff 	mov    %rax,-0xb8(%rbp)
    849f:	48 8d 85 b0 ee ff ff 	lea    -0x1150(%rbp),%rax
    84a6:	48 89 85 50 ff ff ff 	mov    %rax,-0xb0(%rbp)
    84ad:	48 8d 85 00 ef ff ff 	lea    -0x1100(%rbp),%rax
    84b4:	48 89 85 58 ff ff ff 	mov    %rax,-0xa8(%rbp)
    84bb:	48 8d 85 d8 ee ff ff 	lea    -0x1128(%rbp),%rax
    84c2:	48 89 85 60 ff ff ff 	mov    %rax,-0xa0(%rbp)
    84c9:	48 8d 85 e4 ee ff ff 	lea    -0x111c(%rbp),%rax
    84d0:	48 89 85 68 ff ff ff 	mov    %rax,-0x98(%rbp)
    84d7:	48 8d 85 cc ee ff ff 	lea    -0x1134(%rbp),%rax
    84de:	48 89 85 70 ff ff ff 	mov    %rax,-0x90(%rbp)
    84e5:	48 8d 85 d4 ee ff ff 	lea    -0x112c(%rbp),%rax
    84ec:	48 89 85 78 ff ff ff 	mov    %rax,-0x88(%rbp)
    84f3:	48 8d 85 04 ef ff ff 	lea    -0x10fc(%rbp),%rax
    84fa:	48 89 45 80          	mov    %rax,-0x80(%rbp)
    84fe:	48 8d 85 b4 ee ff ff 	lea    -0x114c(%rbp),%rax
    8505:	48 89 45 88          	mov    %rax,-0x78(%rbp)
    8509:	48 8d 85 e4 ee ff ff 	lea    -0x111c(%rbp),%rax
    8510:	48 89 45 90          	mov    %rax,-0x70(%rbp)
    8514:	48 c7 45 98 00 00 00 	movq   $0x0,-0x68(%rbp)
    851b:	00 
    851c:	48 8d 85 d0 ee ff ff 	lea    -0x1130(%rbp),%rax
    8523:	48 89 45 a0          	mov    %rax,-0x60(%rbp)
    8527:	48 8d 85 f8 ee ff ff 	lea    -0x1108(%rbp),%rax
    852e:	48 89 45 a8          	mov    %rax,-0x58(%rbp)
    8532:	48 8d 85 30 f4 ff ff 	lea    -0xbd0(%rbp),%rax
    8539:	48 83 c0 18          	add    $0x18,%rax
    853d:	48 89 45 b0          	mov    %rax,-0x50(%rbp)
    8541:	48 8d 85 d4 ee ff ff 	lea    -0x112c(%rbp),%rax
    8548:	48 89 45 b8          	mov    %rax,-0x48(%rbp)
    854c:	c7 85 d0 f6 ff ff 30 	movl   $0xbaff9930,-0x930(%rbp)
    8553:	99 ff ba 
    8556:	c7 85 d4 f6 ff ff 30 	movl   $0xbaff9930,-0x92c(%rbp)
    855d:	99 ff ba 
    8560:	c7 85 d8 f6 ff ff 30 	movl   $0xbaff9930,-0x928(%rbp)
    8567:	99 ff ba 
    856a:	c7 85 dc f6 ff ff 30 	movl   $0xbaff9930,-0x924(%rbp)
    8571:	99 ff ba 
    8574:	c7 85 e0 f6 ff ff 30 	movl   $0xbaff9930,-0x920(%rbp)
    857b:	99 ff ba 
    857e:	c7 85 e4 f6 ff ff 30 	movl   $0xbaff9930,-0x91c(%rbp)
    8585:	99 ff ba 
    8588:	c7 85 e8 f6 ff ff 30 	movl   $0xbaff9930,-0x918(%rbp)
    858f:	99 ff ba 
    8592:	c7 85 ec f6 ff ff 30 	movl   $0xbaff9930,-0x914(%rbp)
    8599:	99 ff ba 
    859c:	c7 85 f0 f6 ff ff 30 	movl   $0xbaff9930,-0x910(%rbp)
    85a3:	99 ff ba 
    85a6:	c7 85 f4 f6 ff ff 30 	movl   $0xbaff9930,-0x90c(%rbp)
    85ad:	99 ff ba 
    85b0:	c7 85 f8 f6 ff ff 30 	movl   $0xbaff9930,-0x908(%rbp)
    85b7:	99 ff ba 
    85ba:	c7 85 fc f6 ff ff 30 	movl   $0xbaff9930,-0x904(%rbp)
    85c1:	99 ff ba 
    85c4:	c7 85 00 f7 ff ff 30 	movl   $0xbaff9930,-0x900(%rbp)
    85cb:	99 ff ba 
    85ce:	c7 85 04 f7 ff ff 30 	movl   $0xbaff9930,-0x8fc(%rbp)
    85d5:	99 ff ba 
    85d8:	c7 85 08 f7 ff ff 30 	movl   $0xbaff9930,-0x8f8(%rbp)
    85df:	99 ff ba 
    85e2:	c7 85 0c f7 ff ff 30 	movl   $0xbaff9930,-0x8f4(%rbp)
    85e9:	99 ff ba 
    85ec:	c7 85 10 f7 ff ff 30 	movl   $0xbaff9930,-0x8f0(%rbp)
    85f3:	99 ff ba 
    85f6:	c7 85 14 f7 ff ff 30 	movl   $0xbaff9930,-0x8ec(%rbp)
    85fd:	99 ff ba 
    8600:	c7 85 18 f7 ff ff 30 	movl   $0xbaff9930,-0x8e8(%rbp)
    8607:	99 ff ba 
    860a:	c7 85 1c f7 ff ff 30 	movl   $0xbaff9930,-0x8e4(%rbp)
    8611:	99 ff ba 
    8614:	c7 85 20 f7 ff ff 30 	movl   $0xbaff9930,-0x8e0(%rbp)
    861b:	99 ff ba 
    861e:	c7 85 24 f7 ff ff 30 	movl   $0xbaff9930,-0x8dc(%rbp)
    8625:	99 ff ba 
    8628:	c7 85 28 f7 ff ff 30 	movl   $0xbaff9930,-0x8d8(%rbp)
    862f:	99 ff ba 
    8632:	c7 85 2c f7 ff ff 30 	movl   $0xbaff9930,-0x8d4(%rbp)
    8639:	99 ff ba 
    863c:	c7 85 30 f7 ff ff 30 	movl   $0xbaff9930,-0x8d0(%rbp)
    8643:	99 ff ba 
    8646:	c7 85 34 f7 ff ff 30 	movl   $0xbaff9930,-0x8cc(%rbp)
    864d:	99 ff ba 
    8650:	c7 85 38 f7 ff ff 30 	movl   $0xbaff9930,-0x8c8(%rbp)
    8657:	99 ff ba 
    865a:	c7 85 3c f7 ff ff 30 	movl   $0xbaff9930,-0x8c4(%rbp)
    8661:	99 ff ba 
    8664:	c7 85 40 f7 ff ff 30 	movl   $0xbaff9930,-0x8c0(%rbp)
    866b:	99 ff ba 
    866e:	c7 85 44 f7 ff ff 30 	movl   $0xbaff9930,-0x8bc(%rbp)
    8675:	99 ff ba 
    8678:	c7 85 48 f7 ff ff 30 	movl   $0xbaff9930,-0x8b8(%rbp)
    867f:	99 ff ba 
    8682:	c7 85 4c f7 ff ff 30 	movl   $0xbaff9930,-0x8b4(%rbp)
    8689:	99 ff ba 
    868c:	c7 85 50 f7 ff ff 30 	movl   $0xbaff9930,-0x8b0(%rbp)
    8693:	99 ff ba 
    8696:	c7 85 54 f7 ff ff 30 	movl   $0xbaff9930,-0x8ac(%rbp)
    869d:	99 ff ba 
    86a0:	c7 85 58 f7 ff ff 30 	movl   $0xbaff9930,-0x8a8(%rbp)
    86a7:	99 ff ba 
    86aa:	c7 85 5c f7 ff ff 30 	movl   $0xbaff9930,-0x8a4(%rbp)
    86b1:	99 ff ba 
    86b4:	c7 85 60 f7 ff ff 30 	movl   $0xbaff9930,-0x8a0(%rbp)
    86bb:	99 ff ba 
    86be:	c7 85 64 f7 ff ff 30 	movl   $0xbaff9930,-0x89c(%rbp)
    86c5:	99 ff ba 
    86c8:	c7 85 68 f7 ff ff 30 	movl   $0xbaff9930,-0x898(%rbp)
    86cf:	99 ff ba 
    86d2:	c7 85 6c f7 ff ff 30 	movl   $0xbaff9930,-0x894(%rbp)
    86d9:	99 ff ba 
    86dc:	c7 85 70 f7 ff ff 30 	movl   $0xbaff9930,-0x890(%rbp)
    86e3:	99 ff ba 
    86e6:	c7 85 74 f7 ff ff 30 	movl   $0xbaff9930,-0x88c(%rbp)
    86ed:	99 ff ba 
    86f0:	c7 85 78 f7 ff ff 30 	movl   $0xbaff9930,-0x888(%rbp)
    86f7:	99 ff ba 
    86fa:	c7 85 7c f7 ff ff 30 	movl   $0xbaff9930,-0x884(%rbp)
    8701:	99 ff ba 
    8704:	c7 85 80 f7 ff ff 30 	movl   $0xbaff9930,-0x880(%rbp)
    870b:	99 ff ba 
    870e:	c7 85 84 f7 ff ff 30 	movl   $0xbaff9930,-0x87c(%rbp)
    8715:	99 ff ba 
    8718:	c7 85 88 f7 ff ff 30 	movl   $0xbaff9930,-0x878(%rbp)
    871f:	99 ff ba 
    8722:	c7 85 8c f7 ff ff 30 	movl   $0xbaff9930,-0x874(%rbp)
    8729:	99 ff ba 
    872c:	c7 85 90 f7 ff ff 30 	movl   $0xbaff9930,-0x870(%rbp)
    8733:	99 ff ba 
    8736:	c7 85 94 f7 ff ff 30 	movl   $0xbaff9930,-0x86c(%rbp)
    873d:	99 ff ba 
    8740:	c7 85 98 f7 ff ff 30 	movl   $0xbaff9930,-0x868(%rbp)
    8747:	99 ff ba 
    874a:	c7 85 9c f7 ff ff 30 	movl   $0xbaff9930,-0x864(%rbp)
    8751:	99 ff ba 
    8754:	c7 85 a0 f7 ff ff 30 	movl   $0xbaff9930,-0x860(%rbp)
    875b:	99 ff ba 
    875e:	c7 85 a4 f7 ff ff 30 	movl   $0xbaff9930,-0x85c(%rbp)
    8765:	99 ff ba 
    8768:	0f b7 05 b9 eb 00 00 	movzwl 0xebb9(%rip),%eax        # 17328 <g_950>
    876f:	0f bf d8             	movswl %ax,%ebx
    8772:	44 8b 25 1b e9 00 00 	mov    0xe91b(%rip),%r12d        # 17094 <g_273+0x14>
    8779:	8b 85 c8 ee ff ff    	mov    -0x1138(%rbp),%eax
    877f:	48 98                	cltq   
    8781:	48 39 85 98 f1 ff ff 	cmp    %rax,-0xe68(%rbp)
    8788:	0f 95 c0             	setne  %al
    878b:	0f b6 c0             	movzbl %al,%eax
    878e:	89 c6                	mov    %eax,%esi
    8790:	bf 04 01 00 00       	mov    $0x104,%edi
    8795:	e8 65 a5 ff ff       	callq  2cff <safe_add_func_uint16_t_u_u>
    879a:	44 0f b7 e8          	movzwl %ax,%r13d
    879e:	8b 85 a0 ef ff ff    	mov    -0x1060(%rbp),%eax
    87a4:	89 c6                	mov    %eax,%esi
    87a6:	bf af ff ff ff       	mov    $0xffffffaf,%edi
    87ab:	e8 85 9b ff ff       	callq  2335 <safe_rshift_func_int8_t_s_s>
    87b0:	0f be c0             	movsbl %al,%eax
    87b3:	41 39 c5             	cmp    %eax,%r13d
    87b6:	0f 95 c0             	setne  %al
    87b9:	0f b6 c0             	movzbl %al,%eax
    87bc:	44 89 e6             	mov    %r12d,%esi
    87bf:	89 c7                	mov    %eax,%edi
    87c1:	e8 f0 9d ff ff       	callq  25b6 <safe_add_func_int32_t_s_s>
    87c6:	89 c2                	mov    %eax,%edx
    87c8:	8b 85 d0 ee ff ff    	mov    -0x1130(%rbp),%eax
    87ce:	21 c2                	and    %eax,%edx
    87d0:	48 8b 85 00 f1 ff ff 	mov    -0xf00(%rbp),%rax
    87d7:	66 89 10             	mov    %dx,(%rax)
    87da:	48 8b 85 00 f1 ff ff 	mov    -0xf00(%rbp),%rax
    87e1:	0f b7 00             	movzwl (%rax),%eax
    87e4:	98                   	cwtl   
    87e5:	89 de                	mov    %ebx,%esi
    87e7:	89 c7                	mov    %eax,%edi
    87e9:	e8 07 9c ff ff       	callq  23f5 <safe_mul_func_int16_t_s_s>
    87ee:	8b 05 f0 ea 00 00    	mov    0xeaf0(%rip),%eax        # 172e4 <g_771+0x4>
    87f4:	98                   	cwtl   
    87f5:	89 c7                	mov    %eax,%edi
    87f7:	e8 a1 9b ff ff       	callq  239d <safe_unary_minus_func_int16_t_s>
    87fc:	0f bf c8             	movswl %ax,%ecx
    87ff:	48 8b 85 d8 f0 ff ff 	mov    -0xf28(%rbp),%rax
    8806:	48 8b 95 e8 f1 ff ff 	mov    -0xe18(%rbp),%rdx
    880d:	48 89 10             	mov    %rdx,(%rax)
    8810:	48 8b 85 d8 f0 ff ff 	mov    -0xf28(%rbp),%rax
    8817:	48 8b 00             	mov    (%rax),%rax
    881a:	48 85 c0             	test   %rax,%rax
    881d:	0f 95 c0             	setne  %al
    8820:	0f b6 c0             	movzbl %al,%eax
    8823:	39 c1                	cmp    %eax,%ecx
    8825:	0f 9e c0             	setle  %al
    8828:	0f b6 d8             	movzbl %al,%ebx
    882b:	be 06 00 00 00       	mov    $0x6,%esi
    8830:	bf fc ff ff ff       	mov    $0xfffffffc,%edi
    8835:	e8 fb 9a ff ff       	callq  2335 <safe_rshift_func_int8_t_s_s>
    883a:	66 98                	cbtw   
    883c:	8b 95 ac ef ff ff    	mov    -0x1054(%rbp),%edx
    8842:	09 d0                	or     %edx,%eax
    8844:	98                   	cwtl   
    8845:	89 de                	mov    %ebx,%esi
    8847:	89 c7                	mov    %eax,%edi
    8849:	e8 15 9d ff ff       	callq  2563 <safe_rshift_func_int16_t_s_u>
    884e:	0f bf d0             	movswl %ax,%edx
    8851:	8b 05 8d ea 00 00    	mov    0xea8d(%rip),%eax        # 172e4 <g_771+0x4>
    8857:	39 c2                	cmp    %eax,%edx
    8859:	0f 92 c0             	setb   %al
    885c:	0f b6 c8             	movzbl %al,%ecx
    885f:	48 8b 85 48 f0 ff ff 	mov    -0xfb8(%rbp),%rax
    8866:	8b 10                	mov    (%rax),%edx
    8868:	48 8b 85 48 f0 ff ff 	mov    -0xfb8(%rbp),%rax
    886f:	09 ca                	or     %ecx,%edx
    8871:	89 10                	mov    %edx,(%rax)
    8873:	48 8b 05 7e eb 00 00 	mov    0xeb7e(%rip),%rax        # 173f8 <g_1809>
    887a:	48 85 c0             	test   %rax,%rax
    887d:	75 2c                	jne    88ab <func_1+0x50f6>
    887f:	66 83 85 96 ee ff ff 	addw   $0x1,-0x116a(%rbp)
    8886:	01 
    8887:	48 8b 05 2a f3 00 00 	mov    0xf32a(%rip),%rax        # 17bb8 <g_384>
    888e:	48 8b 00             	mov    (%rax),%rax
    8891:	8b 00                	mov    (%rax),%eax
    8893:	85 c0                	test   %eax,%eax
    8895:	83 85 4c ef ff ff 01 	addl   $0x1,-0x10b4(%rbp)
    889c:	83 bd 4c ef ff ff 2b 	cmpl   $0x2b,-0x10b4(%rbp)
    88a3:	0f 86 b9 ef ff ff    	jbe    7862 <func_1+0x40ad>
    88a9:	eb 01                	jmp    88ac <func_1+0x50f7>
    88ab:	90                   	nop
    88ac:	48 8b 85 e8 f1 ff ff 	mov    -0xe18(%rbp),%rax
    88b3:	48 8b 00             	mov    (%rax),%rax
    88b6:	8b 00                	mov    (%rax),%eax
    88b8:	e9 1b 07 00 00       	jmpq   8fd8 <func_1+0x5823>
    88bd:	0f b7 8d 9e ee ff ff 	movzwl -0x1162(%rbp),%ecx
    88c4:	48 8b 85 a8 f0 ff ff 	mov    -0xf58(%rbp),%rax
    88cb:	48 8b 00             	mov    (%rax),%rax
    88ce:	48 85 c0             	test   %rax,%rax
    88d1:	0f 94 c0             	sete   %al
    88d4:	0f b6 d0             	movzbl %al,%edx
    88d7:	48 8b 05 82 f3 00 00 	mov    0xf382(%rip),%rax        # 17c60 <g_724>
    88de:	21 ca                	and    %ecx,%edx
    88e0:	89 10                	mov    %edx,(%rax)
    88e2:	8b 00                	mov    (%rax),%eax
    88e4:	89 c1                	mov    %eax,%ecx
    88e6:	48 8b 05 f3 f3 00 00 	mov    0xf3f3(%rip),%rax        # 17ce0 <g_1084>
    88ed:	48 8b 00             	mov    (%rax),%rax
    88f0:	48 39 85 f0 f0 ff ff 	cmp    %rax,-0xf10(%rbp)
    88f7:	0f 94 c0             	sete   %al
    88fa:	0f b6 d0             	movzbl %al,%edx
    88fd:	8b 05 c5 fa 00 00    	mov    0xfac5(%rip),%eax        # 183c8 <g_1366>
    8903:	09 d0                	or     %edx,%eax
    8905:	39 c1                	cmp    %eax,%ecx
    8907:	0f 96 c2             	setbe  %dl
    890a:	48 8b 05 9f f2 00 00 	mov    0xf29f(%rip),%rax        # 17bb0 <g_385>
    8911:	0f b6 d2             	movzbl %dl,%edx
    8914:	89 10                	mov    %edx,(%rax)
    8916:	0f b7 85 94 ee ff ff 	movzwl -0x116c(%rbp),%eax
    891d:	0f b7 d0             	movzwl %ax,%edx
    8920:	8b 85 d0 ee ff ff    	mov    -0x1130(%rbp),%eax
    8926:	0f be c0             	movsbl %al,%eax
    8929:	89 d6                	mov    %edx,%esi
    892b:	89 c7                	mov    %eax,%edi
    892d:	e8 03 9a ff ff       	callq  2335 <safe_rshift_func_int8_t_s_s>
    8932:	89 c2                	mov    %eax,%edx
    8934:	48 8b 05 75 f2 00 00 	mov    0xf275(%rip),%rax        # 17bb0 <g_385>
    893b:	0f be d2             	movsbl %dl,%edx
    893e:	89 10                	mov    %edx,(%rax)
    8940:	48 c7 05 25 e8 00 00 	movq   $0xfffffffffffffff0,0xe825(%rip)        # 17170 <g_484>
    8947:	f0 ff ff ff 
    894b:	e9 33 06 00 00       	jmpq   8f83 <func_1+0x57ce>
    8950:	48 c7 85 40 f8 ff ff 	movq   $0x0,-0x7c0(%rbp)
    8957:	00 00 00 00 
    895b:	48 c7 85 48 f8 ff ff 	movq   $0x0,-0x7b8(%rbp)
    8962:	00 00 00 00 
    8966:	48 8d 85 b8 ee ff ff 	lea    -0x1148(%rbp),%rax
    896d:	48 89 85 50 f8 ff ff 	mov    %rax,-0x7b0(%rbp)
    8974:	48 c7 85 58 f8 ff ff 	movq   $0x0,-0x7a8(%rbp)
    897b:	00 00 00 00 
    897f:	48 c7 85 60 f8 ff ff 	movq   $0x0,-0x7a0(%rbp)
    8986:	00 00 00 00 
    898a:	48 8d 05 1b ea 00 00 	lea    0xea1b(%rip),%rax        # 173ac <g_1381>
    8991:	48 89 85 68 f8 ff ff 	mov    %rax,-0x798(%rbp)
    8998:	48 8d 05 61 e9 00 00 	lea    0xe961(%rip),%rax        # 17300 <g_771+0x20>
    899f:	48 89 85 70 f8 ff ff 	mov    %rax,-0x790(%rbp)
    89a6:	48 8d 05 ff e9 00 00 	lea    0xe9ff(%rip),%rax        # 173ac <g_1381>
    89ad:	48 89 85 78 f8 ff ff 	mov    %rax,-0x788(%rbp)
    89b4:	48 8d 05 f1 e9 00 00 	lea    0xe9f1(%rip),%rax        # 173ac <g_1381>
    89bb:	48 89 85 80 f8 ff ff 	mov    %rax,-0x780(%rbp)
    89c2:	48 8d 05 37 e9 00 00 	lea    0xe937(%rip),%rax        # 17300 <g_771+0x20>
    89c9:	48 89 85 88 f8 ff ff 	mov    %rax,-0x778(%rbp)
    89d0:	48 c7 85 90 f8 ff ff 	movq   $0x0,-0x770(%rbp)
    89d7:	00 00 00 00 
    89db:	48 8d 05 1a e9 00 00 	lea    0xe91a(%rip),%rax        # 172fc <g_771+0x1c>
    89e2:	48 89 85 98 f8 ff ff 	mov    %rax,-0x768(%rbp)
    89e9:	48 8d 05 0c e9 00 00 	lea    0xe90c(%rip),%rax        # 172fc <g_771+0x1c>
    89f0:	48 89 85 a0 f8 ff ff 	mov    %rax,-0x760(%rbp)
    89f7:	48 c7 85 a8 f8 ff ff 	movq   $0x0,-0x758(%rbp)
    89fe:	00 00 00 00 
    8a02:	48 8d 05 f3 e8 00 00 	lea    0xe8f3(%rip),%rax        # 172fc <g_771+0x1c>
    8a09:	48 89 85 b0 f8 ff ff 	mov    %rax,-0x750(%rbp)
    8a10:	48 8d 05 e9 e8 00 00 	lea    0xe8e9(%rip),%rax        # 17300 <g_771+0x20>
    8a17:	48 89 85 b8 f8 ff ff 	mov    %rax,-0x748(%rbp)
    8a1e:	48 8d 05 db e8 00 00 	lea    0xe8db(%rip),%rax        # 17300 <g_771+0x20>
    8a25:	48 89 85 c0 f8 ff ff 	mov    %rax,-0x740(%rbp)
    8a2c:	48 8d 05 bd e8 00 00 	lea    0xe8bd(%rip),%rax        # 172f0 <g_771+0x10>
    8a33:	48 89 85 c8 f8 ff ff 	mov    %rax,-0x738(%rbp)
    8a3a:	48 8d 05 bf e8 00 00 	lea    0xe8bf(%rip),%rax        # 17300 <g_771+0x20>
    8a41:	48 89 85 d0 f8 ff ff 	mov    %rax,-0x730(%rbp)
    8a48:	48 8d 05 b1 e8 00 00 	lea    0xe8b1(%rip),%rax        # 17300 <g_771+0x20>
    8a4f:	48 89 85 d8 f8 ff ff 	mov    %rax,-0x728(%rbp)
    8a56:	48 8d 05 9f e8 00 00 	lea    0xe89f(%rip),%rax        # 172fc <g_771+0x1c>
    8a5d:	48 89 85 e0 f8 ff ff 	mov    %rax,-0x720(%rbp)
    8a64:	48 c7 85 e8 f8 ff ff 	movq   $0x0,-0x718(%rbp)
    8a6b:	00 00 00 00 
    8a6f:	48 8d 05 86 e8 00 00 	lea    0xe886(%rip),%rax        # 172fc <g_771+0x1c>
    8a76:	48 89 85 f0 f8 ff ff 	mov    %rax,-0x710(%rbp)
    8a7d:	48 8d 05 78 e8 00 00 	lea    0xe878(%rip),%rax        # 172fc <g_771+0x1c>
    8a84:	48 89 85 f8 f8 ff ff 	mov    %rax,-0x708(%rbp)
    8a8b:	48 c7 85 00 f9 ff ff 	movq   $0x0,-0x700(%rbp)
    8a92:	00 00 00 00 
    8a96:	48 8d 05 63 e8 00 00 	lea    0xe863(%rip),%rax        # 17300 <g_771+0x20>
    8a9d:	48 89 85 08 f9 ff ff 	mov    %rax,-0x6f8(%rbp)
    8aa4:	48 8d 05 01 e9 00 00 	lea    0xe901(%rip),%rax        # 173ac <g_1381>
    8aab:	48 89 85 10 f9 ff ff 	mov    %rax,-0x6f0(%rbp)
    8ab2:	48 8d 05 f3 e8 00 00 	lea    0xe8f3(%rip),%rax        # 173ac <g_1381>
    8ab9:	48 89 85 18 f9 ff ff 	mov    %rax,-0x6e8(%rbp)
    8ac0:	48 8d 05 39 e8 00 00 	lea    0xe839(%rip),%rax        # 17300 <g_771+0x20>
    8ac7:	48 89 85 20 f9 ff ff 	mov    %rax,-0x6e0(%rbp)
    8ace:	48 8d 05 d7 e8 00 00 	lea    0xe8d7(%rip),%rax        # 173ac <g_1381>
    8ad5:	48 89 85 28 f9 ff ff 	mov    %rax,-0x6d8(%rbp)
    8adc:	48 c7 85 30 f9 ff ff 	movq   $0x0,-0x6d0(%rbp)
    8ae3:	00 00 00 00 
    8ae7:	48 c7 85 38 f9 ff ff 	movq   $0x0,-0x6c8(%rbp)
    8aee:	00 00 00 00 
    8af2:	48 8d 85 b8 ee ff ff 	lea    -0x1148(%rbp),%rax
    8af9:	48 89 85 40 f9 ff ff 	mov    %rax,-0x6c0(%rbp)
    8b00:	48 c7 85 48 f9 ff ff 	movq   $0x0,-0x6b8(%rbp)
    8b07:	00 00 00 00 
    8b0b:	48 c7 85 50 f9 ff ff 	movq   $0x0,-0x6b0(%rbp)
    8b12:	00 00 00 00 
    8b16:	48 8d 05 8f e8 00 00 	lea    0xe88f(%rip),%rax        # 173ac <g_1381>
    8b1d:	48 89 85 58 f9 ff ff 	mov    %rax,-0x6a8(%rbp)
    8b24:	48 8d 05 d5 e7 00 00 	lea    0xe7d5(%rip),%rax        # 17300 <g_771+0x20>
    8b2b:	48 89 85 60 f9 ff ff 	mov    %rax,-0x6a0(%rbp)
    8b32:	48 8d 05 73 e8 00 00 	lea    0xe873(%rip),%rax        # 173ac <g_1381>
    8b39:	48 89 85 68 f9 ff ff 	mov    %rax,-0x698(%rbp)
    8b40:	48 8d 05 65 e8 00 00 	lea    0xe865(%rip),%rax        # 173ac <g_1381>
    8b47:	48 89 85 70 f9 ff ff 	mov    %rax,-0x690(%rbp)
    8b4e:	48 8d 05 ab e7 00 00 	lea    0xe7ab(%rip),%rax        # 17300 <g_771+0x20>
    8b55:	48 89 85 78 f9 ff ff 	mov    %rax,-0x688(%rbp)
    8b5c:	48 c7 85 80 f9 ff ff 	movq   $0x0,-0x680(%rbp)
    8b63:	00 00 00 00 
    8b67:	48 8d 05 8e e7 00 00 	lea    0xe78e(%rip),%rax        # 172fc <g_771+0x1c>
    8b6e:	48 89 85 88 f9 ff ff 	mov    %rax,-0x678(%rbp)
    8b75:	48 8d 05 80 e7 00 00 	lea    0xe780(%rip),%rax        # 172fc <g_771+0x1c>
    8b7c:	48 89 85 90 f9 ff ff 	mov    %rax,-0x670(%rbp)
    8b83:	48 c7 85 98 f9 ff ff 	movq   $0x0,-0x668(%rbp)
    8b8a:	00 00 00 00 
    8b8e:	48 8d 05 67 e7 00 00 	lea    0xe767(%rip),%rax        # 172fc <g_771+0x1c>
    8b95:	48 89 85 a0 f9 ff ff 	mov    %rax,-0x660(%rbp)
    8b9c:	c7 85 b4 ef ff ff f7 	movl   $0xfffffff7,-0x104c(%rbp)
    8ba3:	ff ff ff 
    8ba6:	48 b8 3f 1a e5 97 76 	movabs $0x3fe60d7697e51a3f,%rax
    8bad:	0d e6 3f 
    8bb0:	48 89 85 00 f2 ff ff 	mov    %rax,-0xe00(%rbp)
    8bb7:	c7 85 b8 ef ff ff f0 	movl   $0x526cf6f0,-0x1048(%rbp)
    8bbe:	f6 6c 52 
    8bc1:	c7 85 bc ef ff ff 01 	movl   $0x1,-0x1044(%rbp)
    8bc8:	00 00 00 
    8bcb:	c6 85 90 ee ff ff 00 	movb   $0x0,-0x1170(%rbp)
    8bd2:	0f bf 85 a0 ee ff ff 	movswl -0x1160(%rbp),%eax
    8bd9:	f7 d0                	not    %eax
    8bdb:	89 c2                	mov    %eax,%edx
    8bdd:	8b 05 41 e4 00 00    	mov    0xe441(%rip),%eax        # 17024 <g_15>
    8be3:	21 d0                	and    %edx,%eax
    8be5:	89 05 39 e4 00 00    	mov    %eax,0xe439(%rip)        # 17024 <g_15>
    8beb:	8b 1d 33 e4 00 00    	mov    0xe433(%rip),%ebx        # 17024 <g_15>
    8bf1:	48 8b 05 d8 f0 00 00 	mov    0xf0d8(%rip),%rax        # 17cd0 <g_980>
    8bf8:	48 8b 00             	mov    (%rax),%rax
    8bfb:	0f b6 00             	movzbl (%rax),%eax
    8bfe:	0f b6 d0             	movzbl %al,%edx
    8c01:	0f b6 85 8e ee ff ff 	movzbl -0x1172(%rbp),%eax
    8c08:	89 d6                	mov    %edx,%esi
    8c0a:	89 c7                	mov    %eax,%edi
    8c0c:	e8 67 9f ff ff       	callq  2b78 <safe_sub_func_uint8_t_u_u>
    8c11:	48 8b 85 c0 f0 ff ff 	mov    -0xf40(%rbp),%rax
    8c18:	0f b7 00             	movzwl (%rax),%eax
    8c1b:	66 25 b8 61          	and    $0x61b8,%ax
    8c1f:	89 c2                	mov    %eax,%edx
    8c21:	48 8b 85 c0 f0 ff ff 	mov    -0xf40(%rbp),%rax
    8c28:	66 89 10             	mov    %dx,(%rax)
    8c2b:	48 83 bd f8 f0 ff ff 	cmpq   $0x0,-0xf08(%rbp)
    8c32:	00 
    8c33:	0f 95 c0             	setne  %al
    8c36:	0f b6 d0             	movzbl %al,%edx
    8c39:	0f b7 85 94 ee ff ff 	movzwl -0x116c(%rbp),%eax
    8c40:	0f b7 c0             	movzwl %ax,%eax
    8c43:	89 d6                	mov    %edx,%esi
    8c45:	89 c7                	mov    %eax,%edi
    8c47:	e8 ba a1 ff ff       	callq  2e06 <safe_lshift_func_uint16_t_u_u>
    8c4c:	0f b7 c0             	movzwl %ax,%eax
    8c4f:	89 de                	mov    %ebx,%esi
    8c51:	89 c7                	mov    %eax,%edi
    8c53:	e8 a5 a2 ff ff       	callq  2efd <safe_mod_func_uint32_t_u_u>
    8c58:	85 c0                	test   %eax,%eax
    8c5a:	74 10                	je     8c6c <func_1+0x54b7>
    8c5c:	83 bd b4 ef ff ff 00 	cmpl   $0x0,-0x104c(%rbp)
    8c63:	74 07                	je     8c6c <func_1+0x54b7>
    8c65:	ba 01 00 00 00       	mov    $0x1,%edx
    8c6a:	eb 05                	jmp    8c71 <func_1+0x54bc>
    8c6c:	ba 00 00 00 00       	mov    $0x0,%edx
    8c71:	48 8b 85 18 f1 ff ff 	mov    -0xee8(%rbp),%rax
    8c78:	48 8b 00             	mov    (%rax),%rax
    8c7b:	48 85 c0             	test   %rax,%rax
    8c7e:	0f 95 c0             	setne  %al
    8c81:	0f b6 c0             	movzbl %al,%eax
    8c84:	48 8b 9d 48 f0 ff ff 	mov    -0xfb8(%rbp),%rbx
    8c8b:	89 d6                	mov    %edx,%esi
    8c8d:	89 c7                	mov    %eax,%edi
    8c8f:	e8 22 99 ff ff       	callq  25b6 <safe_add_func_int32_t_s_s>
    8c94:	89 03                	mov    %eax,(%rbx)
    8c96:	83 bd b4 ef ff ff 00 	cmpl   $0x0,-0x104c(%rbp)
    8c9d:	0f 85 f3 02 00 00    	jne    8f96 <func_1+0x57e1>
    8ca3:	c7 85 50 ef ff ff ff 	movl   $0xffffffff,-0x10b0(%rbp)
    8caa:	ff ff ff 
    8cad:	eb 1a                	jmp    8cc9 <func_1+0x5514>
    8caf:	c7 85 c0 ef ff ff fa 	movl   $0xfffffffa,-0x1040(%rbp)
    8cb6:	ff ff ff 
    8cb9:	83 bd c0 ef ff ff 00 	cmpl   $0x0,-0x1040(%rbp)
    8cc0:	75 12                	jne    8cd4 <func_1+0x551f>
    8cc2:	83 85 50 ef ff ff 01 	addl   $0x1,-0x10b0(%rbp)
    8cc9:	83 bd 50 ef ff ff 15 	cmpl   $0x15,-0x10b0(%rbp)
    8cd0:	7e dd                	jle    8caf <func_1+0x54fa>
    8cd2:	eb 01                	jmp    8cd5 <func_1+0x5520>
    8cd4:	90                   	nop
    8cd5:	c7 85 f0 ee ff ff 10 	movl   $0x10,-0x1110(%rbp)
    8cdc:	00 00 00 
    8cdf:	e9 6c 02 00 00       	jmpq   8f50 <func_1+0x579b>
    8ce4:	c7 85 c4 ef ff ff 53 	movl   $0xd8d0ab53,-0x103c(%rbp)
    8ceb:	ab d0 d8 
    8cee:	8b 85 ec ee ff ff    	mov    -0x1114(%rbp),%eax
    8cf4:	85 c0                	test   %eax,%eax
    8cf6:	0f 84 8c 00 00 00    	je     8d88 <func_1+0x55d3>
    8cfc:	48 8d 85 30 f4 ff ff 	lea    -0xbd0(%rbp),%rax
    8d03:	48 83 c0 0c          	add    $0xc,%rax
    8d07:	48 89 85 20 f2 ff ff 	mov    %rax,-0xde0(%rbp)
    8d0e:	48 8d 85 c0 ee ff ff 	lea    -0x1140(%rbp),%rax
    8d15:	48 89 85 28 f2 ff ff 	mov    %rax,-0xdd8(%rbp)
    8d1c:	48 c7 85 d0 f6 ff ff 	movq   $0x0,-0x930(%rbp)
    8d23:	00 00 00 00 
    8d27:	48 8d 85 d4 ee ff ff 	lea    -0x112c(%rbp),%rax
    8d2e:	48 89 85 d8 f6 ff ff 	mov    %rax,-0x928(%rbp)
    8d35:	48 c7 85 e0 f6 ff ff 	movq   $0x0,-0x920(%rbp)
    8d3c:	00 00 00 00 
    8d40:	48 8d 85 d4 ee ff ff 	lea    -0x112c(%rbp),%rax
    8d47:	48 89 85 e8 f6 ff ff 	mov    %rax,-0x918(%rbp)
    8d4e:	48 c7 85 f0 f6 ff ff 	movq   $0x0,-0x910(%rbp)
    8d55:	00 00 00 00 
    8d59:	48 8b 15 58 ee 00 00 	mov    0xee58(%rip),%rdx        # 17bb8 <g_384>
    8d60:	48 8b 05 59 f1 00 00 	mov    0xf159(%rip),%rax        # 17ec0 <g_1842>
    8d67:	48 8b 12             	mov    (%rdx),%rdx
    8d6a:	48 89 10             	mov    %rdx,(%rax)
    8d6d:	0f b6 85 90 ee ff ff 	movzbl -0x1170(%rbp),%eax
    8d74:	83 c0 01             	add    $0x1,%eax
    8d77:	88 85 90 ee ff ff    	mov    %al,-0x1170(%rbp)
    8d7d:	8b 85 d4 ee ff ff    	mov    -0x112c(%rbp),%eax
    8d83:	e9 50 02 00 00       	jmpq   8fd8 <func_1+0x5823>
    8d88:	48 8d 05 f9 ee 00 00 	lea    0xeef9(%rip),%rax        # 17c88 <g_833+0x8>
    8d8f:	48 89 85 a0 f0 ff ff 	mov    %rax,-0xf60(%rbp)
    8d96:	48 8d 85 a0 f0 ff ff 	lea    -0xf60(%rbp),%rax
    8d9d:	48 89 85 08 f2 ff ff 	mov    %rax,-0xdf8(%rbp)
    8da4:	48 8d 85 68 f0 ff ff 	lea    -0xf98(%rbp),%rax
    8dab:	48 89 85 10 f2 ff ff 	mov    %rax,-0xdf0(%rbp)
    8db2:	48 8d 85 48 f0 ff ff 	lea    -0xfb8(%rbp),%rax
    8db9:	48 89 85 18 f2 ff ff 	mov    %rax,-0xde8(%rbp)
    8dc0:	48 8b 85 08 f2 ff ff 	mov    -0xdf8(%rbp),%rax
    8dc7:	48 8d 15 ba ee 00 00 	lea    0xeeba(%rip),%rdx        # 17c88 <g_833+0x8>
    8dce:	48 89 10             	mov    %rdx,(%rax)
    8dd1:	48 8b 05 58 e3 00 00 	mov    0xe358(%rip),%rax        # 17130 <g_483+0x50>
    8dd8:	0f b7 d8             	movzwl %ax,%ebx
    8ddb:	44 8b a5 c4 ef ff ff 	mov    -0x103c(%rbp),%r12d
    8de2:	48 8b 85 48 f0 ff ff 	mov    -0xfb8(%rbp),%rax
    8de9:	8b 00                	mov    (%rax),%eax
    8deb:	48 63 d0             	movslq %eax,%rdx
    8dee:	48 8b 85 d0 f0 ff ff 	mov    -0xf30(%rbp),%rax
    8df5:	48 89 10             	mov    %rdx,(%rax)
    8df8:	48 8b 85 d0 f0 ff ff 	mov    -0xf30(%rbp),%rax
    8dff:	48 8b 00             	mov    (%rax),%rax
    8e02:	48 89 c6             	mov    %rax,%rsi
    8e05:	bf 07 00 00 00       	mov    $0x7,%edi
    8e0a:	e8 a0 a2 ff ff       	callq  30af <safe_div_func_uint64_t_u_u>
    8e0f:	48 83 bd 18 f2 ff ff 	cmpq   $0x0,-0xde8(%rbp)
    8e16:	00 
    8e17:	0f 95 c0             	setne  %al
    8e1a:	0f b6 c0             	movzbl %al,%eax
    8e1d:	89 c6                	mov    %eax,%esi
    8e1f:	bf ff ff ff ff       	mov    $0xffffffff,%edi
    8e24:	e8 aa 95 ff ff       	callq  23d3 <safe_sub_func_int16_t_s_s>
    8e29:	48 0f bf d0          	movswq %ax,%rdx
    8e2d:	48 83 bd 38 f1 ff ff 	cmpq   $0x0,-0xec8(%rbp)
    8e34:	00 
    8e35:	0f 94 c0             	sete   %al
    8e38:	0f b6 c8             	movzbl %al,%ecx
    8e3b:	48 8b 85 f8 f0 ff ff 	mov    -0xf08(%rbp),%rax
    8e42:	48 89 08             	mov    %rcx,(%rax)
    8e45:	48 8b 85 f8 f0 ff ff 	mov    -0xf08(%rbp),%rax
    8e4c:	48 8b 08             	mov    (%rax),%rcx
    8e4f:	48 8b 85 10 f2 ff ff 	mov    -0xdf0(%rbp),%rax
    8e56:	48 89 08             	mov    %rcx,(%rax)
    8e59:	48 8b 85 10 f2 ff ff 	mov    -0xdf0(%rbp),%rax
    8e60:	48 8b 00             	mov    (%rax),%rax
    8e63:	48 89 d6             	mov    %rdx,%rsi
    8e66:	48 89 c7             	mov    %rax,%rdi
    8e69:	e8 d3 99 ff ff       	callq  2841 <safe_add_func_int64_t_s_s>
    8e6e:	89 c2                	mov    %eax,%edx
    8e70:	48 8b 05 49 f0 00 00 	mov    0xf049(%rip),%rax        # 17ec0 <g_1842>
    8e77:	48 8b 00             	mov    (%rax),%rax
    8e7a:	8b 00                	mov    (%rax),%eax
    8e7c:	31 d0                	xor    %edx,%eax
    8e7e:	0f b7 c0             	movzwl %ax,%eax
    8e81:	44 89 e6             	mov    %r12d,%esi
    8e84:	89 c7                	mov    %eax,%edi
    8e86:	e8 7b 9f ff ff       	callq  2e06 <safe_lshift_func_uint16_t_u_u>
    8e8b:	0f b7 c0             	movzwl %ax,%eax
    8e8e:	89 de                	mov    %ebx,%esi
    8e90:	89 c7                	mov    %eax,%edi
    8e92:	e8 c5 9e ff ff       	callq  2d5c <safe_mod_func_uint16_t_u_u>
    8e97:	0f b7 c0             	movzwl %ax,%eax
    8e9a:	be 49 ed 24 c9       	mov    $0xc924ed49,%esi
    8e9f:	89 c7                	mov    %eax,%edi
    8ea1:	e8 5f 97 ff ff       	callq  2605 <safe_sub_func_int32_t_s_s>
    8ea6:	85 c0                	test   %eax,%eax
    8ea8:	74 07                	je     8eb1 <func_1+0x56fc>
    8eaa:	ba 01 00 00 00       	mov    $0x1,%edx
    8eaf:	eb 05                	jmp    8eb6 <func_1+0x5701>
    8eb1:	ba 00 00 00 00       	mov    $0x0,%edx
    8eb6:	48 8b 85 48 f0 ff ff 	mov    -0xfb8(%rbp),%rax
    8ebd:	89 10                	mov    %edx,(%rax)
    8ebf:	48 8b 85 18 f2 ff ff 	mov    -0xde8(%rbp),%rax
    8ec6:	48 8b 10             	mov    (%rax),%rdx
    8ec9:	48 8b 85 18 f2 ff ff 	mov    -0xde8(%rbp),%rax
    8ed0:	48 8b 00             	mov    (%rax),%rax
    8ed3:	8b 12                	mov    (%rdx),%edx
    8ed5:	89 10                	mov    %edx,(%rax)
    8ed7:	48 8b 05 f2 ec 00 00 	mov    0xecf2(%rip),%rax        # 17bd0 <g_507>
    8ede:	48 8d 95 cc ee ff ff 	lea    -0x1134(%rbp),%rdx
    8ee5:	48 89 10             	mov    %rdx,(%rax)
    8ee8:	83 bd 74 ef ff ff 00 	cmpl   $0x0,-0x108c(%rbp)
    8eef:	75 70                	jne    8f61 <func_1+0x57ac>
    8ef1:	48 8b 05 c8 ef 00 00 	mov    0xefc8(%rip),%rax        # 17ec0 <g_1842>
    8ef8:	48 8b 00             	mov    (%rax),%rax
    8efb:	8b 08                	mov    (%rax),%ecx
    8efd:	48 8b 15 c4 ec 00 00 	mov    0xecc4(%rip),%rdx        # 17bc8 <g_476>
    8f04:	48 8b 12             	mov    (%rdx),%rdx
    8f07:	48 85 d2             	test   %rdx,%rdx
    8f0a:	0f 95 c2             	setne  %dl
    8f0d:	0f b6 d2             	movzbl %dl,%edx
    8f10:	31 ca                	xor    %ecx,%edx
    8f12:	89 10                	mov    %edx,(%rax)
    8f14:	66 c7 85 9e ee ff ff 	movw   $0x0,-0x1162(%rbp)
    8f1b:	00 00 
    8f1d:	66 83 bd 9e ee ff ff 	cmpw   $0x29,-0x1162(%rbp)
    8f24:	29 
    8f25:	75 0b                	jne    8f32 <func_1+0x577d>
    8f27:	8b 85 78 ef ff ff    	mov    -0x1088(%rbp),%eax
    8f2d:	e9 a6 00 00 00       	jmpq   8fd8 <func_1+0x5823>
    8f32:	8b 85 f0 ee ff ff    	mov    -0x1110(%rbp),%eax
    8f38:	0f b7 c0             	movzwl %ax,%eax
    8f3b:	be 01 00 00 00       	mov    $0x1,%esi
    8f40:	89 c7                	mov    %eax,%edi
    8f42:	e8 d8 9d ff ff       	callq  2d1f <safe_sub_func_uint16_t_u_u>
    8f47:	0f b7 c0             	movzwl %ax,%eax
    8f4a:	89 85 f0 ee ff ff    	mov    %eax,-0x1110(%rbp)
    8f50:	8b 85 f0 ee ff ff    	mov    -0x1110(%rbp),%eax
    8f56:	83 f8 08             	cmp    $0x8,%eax
    8f59:	0f 8e 85 fd ff ff    	jle    8ce4 <func_1+0x552f>
    8f5f:	eb 01                	jmp    8f62 <func_1+0x57ad>
    8f61:	90                   	nop
    8f62:	48 8b 05 07 e2 00 00 	mov    0xe207(%rip),%rax        # 17170 <g_484>
    8f69:	0f be c0             	movsbl %al,%eax
    8f6c:	be 06 00 00 00       	mov    $0x6,%esi
    8f71:	89 c7                	mov    %eax,%edi
    8f73:	e8 5c 92 ff ff       	callq  21d4 <safe_add_func_int8_t_s_s>
    8f78:	48 0f be c0          	movsbq %al,%rax
    8f7c:	48 89 05 ed e1 00 00 	mov    %rax,0xe1ed(%rip)        # 17170 <g_484>
    8f83:	48 8b 05 e6 e1 00 00 	mov    0xe1e6(%rip),%rax        # 17170 <g_484>
    8f8a:	48 83 f8 0f          	cmp    $0xf,%rax
    8f8e:	0f 84 bc f9 ff ff    	je     8950 <func_1+0x519b>
    8f94:	eb 01                	jmp    8f97 <func_1+0x57e2>
    8f96:	90                   	nop
    8f97:	8b 85 80 f3 ff ff    	mov    -0xc80(%rbp),%eax
    8f9d:	83 c0 01             	add    $0x1,%eax
    8fa0:	89 85 80 f3 ff ff    	mov    %eax,-0xc80(%rbp)
    8fa6:	0f b6 05 2b e4 00 00 	movzbl 0xe42b(%rip),%eax        # 173d8 <g_1511>
    8fad:	0f b6 c0             	movzbl %al,%eax
    8fb0:	be 09 00 00 00       	mov    $0x9,%esi
    8fb5:	48 89 c7             	mov    %rax,%rdi
    8fb8:	e8 71 a0 ff ff       	callq  302e <safe_add_func_uint64_t_u_u>
    8fbd:	88 05 15 e4 00 00    	mov    %al,0xe415(%rip)        # 173d8 <g_1511>
    8fc3:	0f b6 05 0e e4 00 00 	movzbl 0xe40e(%rip),%eax        # 173d8 <g_1511>
    8fca:	3c 14                	cmp    $0x14,%al
    8fcc:	0f 84 3e d5 ff ff    	je     6510 <func_1+0x2d5b>
    8fd2:	8b 85 68 ef ff ff    	mov    -0x1098(%rbp),%eax
    8fd8:	48 8b 5d c8          	mov    -0x38(%rbp),%rbx
    8fdc:	64 48 33 1c 25 28 00 	xor    %fs:0x28,%rbx
    8fe3:	00 00 
    8fe5:	74 05                	je     8fec <func_1+0x5837>
    8fe7:	e8 84 90 ff ff       	callq  2070 <__stack_chk_fail@plt>
    8fec:	48 81 c4 98 11 00 00 	add    $0x1198,%rsp
    8ff3:	5b                   	pop    %rbx
    8ff4:	41 5c                	pop    %r12
    8ff6:	41 5d                	pop    %r13
    8ff8:	41 5e                	pop    %r14
    8ffa:	41 5f                	pop    %r15
    8ffc:	5d                   	pop    %rbp
    8ffd:	c3                   	retq   

0000000000008ffe <func_6>:
    8ffe:	f3 0f 1e fa          	endbr64 
    9002:	55                   	push   %rbp
    9003:	48 89 e5             	mov    %rsp,%rbp
    9006:	53                   	push   %rbx
    9007:	48 81 ec 98 00 00 00 	sub    $0x98,%rsp
    900e:	89 bd 7c ff ff ff    	mov    %edi,-0x84(%rbp)
    9014:	48 89 b5 70 ff ff ff 	mov    %rsi,-0x90(%rbp)
    901b:	48 89 95 68 ff ff ff 	mov    %rdx,-0x98(%rbp)
    9022:	64 48 8b 04 25 28 00 	mov    %fs:0x28,%rax
    9029:	00 00 
    902b:	48 89 45 e8          	mov    %rax,-0x18(%rbp)
    902f:	31 c0                	xor    %eax,%eax
    9031:	48 b8 b6 b5 b9 d3 16 	movabs $0xdde15716d3b9b5b6,%rax
    9038:	57 e1 dd 
    903b:	48 89 45 98          	mov    %rax,-0x68(%rbp)
    903f:	66 c7 45 8c ff ff    	movw   $0xffff,-0x74(%rbp)
    9045:	48 8d 05 d4 eb 00 00 	lea    0xebd4(%rip),%rax        # 17c20 <g_605+0x20>
    904c:	48 89 45 c0          	mov    %rax,-0x40(%rbp)
    9050:	48 8d 05 c9 eb 00 00 	lea    0xebc9(%rip),%rax        # 17c20 <g_605+0x20>
    9057:	48 89 45 c8          	mov    %rax,-0x38(%rbp)
    905b:	48 8d 05 be eb 00 00 	lea    0xebbe(%rip),%rax        # 17c20 <g_605+0x20>
    9062:	48 89 45 d0          	mov    %rax,-0x30(%rbp)
    9066:	48 8d 05 b3 eb 00 00 	lea    0xebb3(%rip),%rax        # 17c20 <g_605+0x20>
    906d:	48 89 45 d8          	mov    %rax,-0x28(%rbp)
    9071:	48 c7 45 a0 00 00 00 	movq   $0x0,-0x60(%rbp)
    9078:	00 
    9079:	c7 45 90 06 00 00 00 	movl   $0x6,-0x70(%rbp)
    9080:	48 8d 05 49 e0 00 00 	lea    0xe049(%rip),%rax        # 170d0 <g_469>
    9087:	48 89 45 a8          	mov    %rax,-0x58(%rbp)
    908b:	48 8d 05 96 e2 00 00 	lea    0xe296(%rip),%rax        # 17328 <g_950>
    9092:	48 89 45 b0          	mov    %rax,-0x50(%rbp)
    9096:	66 c7 45 8e 00 00    	movw   $0x0,-0x72(%rbp)
    909c:	48 8d 05 d1 df 00 00 	lea    0xdfd1(%rip),%rax        # 17074 <g_254>
    90a3:	48 89 45 b8          	mov    %rax,-0x48(%rbp)
    90a7:	c7 45 94 f7 ff ff ff 	movl   $0xfffffff7,-0x6c(%rbp)
    90ae:	0f b7 05 cb b7 00 00 	movzwl 0xb7cb(%rip),%eax        # 14880 <l_1191.4549+0x10>
    90b5:	0f b6 c0             	movzbl %al,%eax
    90b8:	be 03 00 00 00       	mov    $0x3,%esi
    90bd:	89 c7                	mov    %eax,%edi
    90bf:	e8 41 9b ff ff       	callq  2c05 <safe_lshift_func_uint8_t_u_s>
    90c4:	89 c3                	mov    %eax,%ebx
    90c6:	0f b7 45 8c          	movzwl -0x74(%rbp),%eax
    90ca:	be 0e 00 00 00       	mov    $0xe,%esi
    90cf:	89 c7                	mov    %eax,%edi
    90d1:	e8 e8 9c ff ff       	callq  2dbe <safe_lshift_func_uint16_t_u_s>
    90d6:	98                   	cwtl   
    90d7:	89 c6                	mov    %eax,%esi
    90d9:	bf ea 50 00 00       	mov    $0x50ea,%edi
    90de:	e8 d0 92 ff ff       	callq  23b3 <safe_add_func_int16_t_s_s>
    90e3:	21 d8                	and    %ebx,%eax
    90e5:	0f be d8             	movsbl %al,%ebx
    90e8:	0f b7 05 91 b7 00 00 	movzwl 0xb791(%rip),%eax        # 14880 <l_1191.4549+0x10>
    90ef:	0f b6 d0             	movzbl %al,%edx
    90f2:	8b 85 7c ff ff ff    	mov    -0x84(%rbp),%eax
    90f8:	0f b6 c0             	movzbl %al,%eax
    90fb:	89 d6                	mov    %edx,%esi
    90fd:	89 c7                	mov    %eax,%edi
    90ff:	e8 aa 9a ff ff       	callq  2bae <safe_mod_func_uint8_t_u_u>
    9104:	0f be d0             	movsbl %al,%edx
    9107:	48 8b 45 98          	mov    -0x68(%rbp),%rax
    910b:	0f be c0             	movsbl %al,%eax
    910e:	89 d6                	mov    %edx,%esi
    9110:	89 c7                	mov    %eax,%edi
    9112:	e8 bd 90 ff ff       	callq  21d4 <safe_add_func_int8_t_s_s>
    9117:	0f be c0             	movsbl %al,%eax
    911a:	89 de                	mov    %ebx,%esi
    911c:	89 c7                	mov    %eax,%edi
    911e:	e8 cf 90 ff ff       	callq  21f2 <safe_sub_func_int8_t_s_s>
    9123:	48 8b 15 36 eb 00 00 	mov    0xeb36(%rip),%rdx        # 17c60 <g_724>
    912a:	8b 0a                	mov    (%rdx),%ecx
    912c:	0f be d0             	movsbl %al,%edx
    912f:	48 8b 05 2a eb 00 00 	mov    0xeb2a(%rip),%rax        # 17c60 <g_724>
    9136:	09 ca                	or     %ecx,%edx
    9138:	89 10                	mov    %edx,(%rax)
    913a:	48 8b 05 1f eb 00 00 	mov    0xeb1f(%rip),%rax        # 17c60 <g_724>
    9141:	8b 08                	mov    (%rax),%ecx
    9143:	48 8b 45 d8          	mov    -0x28(%rbp),%rax
    9147:	48 85 c0             	test   %rax,%rax
    914a:	0f 94 c0             	sete   %al
    914d:	0f b6 d0             	movzbl %al,%edx
    9150:	48 8b 05 09 eb 00 00 	mov    0xeb09(%rip),%rax        # 17c60 <g_724>
    9157:	09 ca                	or     %ecx,%edx
    9159:	89 10                	mov    %edx,(%rax)
    915b:	83 bd 7c ff ff ff 00 	cmpl   $0x0,-0x84(%rbp)
    9162:	90                   	nop
    9163:	f3 0f 1e fa          	endbr64 
    9167:	48 8b 45 a8          	mov    -0x58(%rbp),%rax
    916b:	8b 00                	mov    (%rax),%eax
    916d:	8d 50 ff             	lea    -0x1(%rax),%edx
    9170:	48 8b 45 a8          	mov    -0x58(%rbp),%rax
    9174:	89 10                	mov    %edx,(%rax)
    9176:	48 c7 c7 f8 ff ff ff 	mov    $0xfffffffffffffff8,%rdi
    917d:	e8 94 96 ff ff       	callq  2816 <safe_unary_minus_func_int64_t_s>
    9182:	48 89 c2             	mov    %rax,%rdx
    9185:	48 8b 05 24 ea 00 00 	mov    0xea24(%rip),%rax        # 17bb0 <g_385>
    918c:	89 10                	mov    %edx,(%rax)
    918e:	48 8b 45 b0          	mov    -0x50(%rbp),%rax
    9192:	66 c7 00 00 00       	movw   $0x0,(%rax)
    9197:	0f b7 05 e2 b6 00 00 	movzwl 0xb6e2(%rip),%eax        # 14880 <l_1191.4549+0x10>
    919e:	89 c2                	mov    %eax,%edx
    91a0:	48 8b 85 68 ff ff ff 	mov    -0x98(%rbp),%rax
    91a7:	88 10                	mov    %dl,(%rax)
    91a9:	48 8b 85 68 ff ff ff 	mov    -0x98(%rbp),%rax
    91b0:	0f b6 00             	movzbl (%rax),%eax
    91b3:	66 98                	cbtw   
    91b5:	66 89 45 8e          	mov    %ax,-0x72(%rbp)
    91b9:	48 8b 05 70 df 00 00 	mov    0xdf70(%rip),%rax        # 17130 <g_483+0x50>
    91c0:	48 89 c1             	mov    %rax,%rcx
    91c3:	48 8b 05 96 ea 00 00 	mov    0xea96(%rip),%rax        # 17c60 <g_724>
    91ca:	8b 10                	mov    (%rax),%edx
    91cc:	48 8b 05 8d ea 00 00 	mov    0xea8d(%rip),%rax        # 17c60 <g_724>
    91d3:	33 55 90             	xor    -0x70(%rbp),%edx
    91d6:	89 10                	mov    %edx,(%rax)
    91d8:	8b 05 f2 de 00 00    	mov    0xdef2(%rip),%eax        # 170d0 <g_469>
    91de:	85 c0                	test   %eax,%eax
    91e0:	74 10                	je     91f2 <func_6+0x1f4>
    91e2:	48 8b 45 b8          	mov    -0x48(%rbp),%rax
    91e6:	66 c7 00 9a 4c       	movw   $0x4c9a,(%rax)
    91eb:	ba 01 00 00 00       	mov    $0x1,%edx
    91f0:	eb 05                	jmp    91f7 <func_6+0x1f9>
    91f2:	ba 00 00 00 00       	mov    $0x0,%edx
    91f7:	48 8d 05 4d e1 00 00 	lea    0xe14d(%rip),%rax        # 1734b <g_982+0xb>
    91fe:	8b 75 90             	mov    -0x70(%rbp),%esi
    9201:	40 88 30             	mov    %sil,(%rax)
    9204:	0f b6 00             	movzbl (%rax),%eax
    9207:	0f be c0             	movsbl %al,%eax
    920a:	39 c2                	cmp    %eax,%edx
    920c:	0f 9f c0             	setg   %al
    920f:	0f b6 d0             	movzbl %al,%edx
    9212:	8b 05 0c de 00 00    	mov    0xde0c(%rip),%eax        # 17024 <g_15>
    9218:	89 c0                	mov    %eax,%eax
    921a:	48 23 45 98          	and    -0x68(%rbp),%rax
    921e:	48 39 c2             	cmp    %rax,%rdx
    9221:	0f 97 c0             	seta   %al
    9224:	0f b6 c0             	movzbl %al,%eax
    9227:	48 89 ce             	mov    %rcx,%rsi
    922a:	48 89 c7             	mov    %rax,%rdi
    922d:	e8 4e 9e ff ff       	callq  3080 <safe_mod_func_uint64_t_u_u>
    9232:	48 8b 05 87 e8 00 00 	mov    0xe887(%rip),%rax        # 17ac0 <g_106>
    9239:	c6 00 11             	movb   $0x11,(%rax)
    923c:	0f b6 00             	movzbl (%rax),%eax
    923f:	0f be c0             	movsbl %al,%eax
    9242:	be 02 00 00 00       	mov    $0x2,%esi
    9247:	89 c7                	mov    %eax,%edi
    9249:	e8 c4 8f ff ff       	callq  2212 <safe_mul_func_int8_t_s_s>
    924e:	0f be d0             	movsbl %al,%edx
    9251:	0f b7 05 28 b6 00 00 	movzwl 0xb628(%rip),%eax        # 14880 <l_1191.4549+0x10>
    9258:	0f b7 c0             	movzwl %ax,%eax
    925b:	39 c2                	cmp    %eax,%edx
    925d:	0f 95 c0             	setne  %al
    9260:	0f b6 c0             	movzbl %al,%eax
    9263:	39 85 7c ff ff ff    	cmp    %eax,-0x84(%rbp)
    9269:	0f 95 c0             	setne  %al
    926c:	0f b6 c0             	movzbl %al,%eax
    926f:	09 45 94             	or     %eax,-0x6c(%rbp)
    9272:	8b 45 94             	mov    -0x6c(%rbp),%eax
    9275:	39 85 7c ff ff ff    	cmp    %eax,-0x84(%rbp)
    927b:	0f 94 c0             	sete   %al
    927e:	0f b6 c0             	movzbl %al,%eax
    9281:	be 07 00 00 00       	mov    $0x7,%esi
    9286:	89 c7                	mov    %eax,%edi
    9288:	e8 d6 92 ff ff       	callq  2563 <safe_rshift_func_int16_t_s_u>
    928d:	0f bf d0             	movswl %ax,%edx
    9290:	48 8b 05 19 e9 00 00 	mov    0xe919(%rip),%rax        # 17bb0 <g_385>
    9297:	81 e2 2b 6d 3e 45    	and    $0x453e6d2b,%edx
    929d:	89 10                	mov    %edx,(%rax)
    929f:	0f b6 05 9f e0 00 00 	movzbl 0xe09f(%rip),%eax        # 17345 <g_982+0x5>
    92a6:	0f be c0             	movsbl %al,%eax
    92a9:	48 8b 5d e8          	mov    -0x18(%rbp),%rbx
    92ad:	64 48 33 1c 25 28 00 	xor    %fs:0x28,%rbx
    92b4:	00 00 
    92b6:	74 05                	je     92bd <func_6+0x2bf>
    92b8:	e8 b3 8d ff ff       	callq  2070 <__stack_chk_fail@plt>
    92bd:	48 81 c4 98 00 00 00 	add    $0x98,%rsp
    92c4:	5b                   	pop    %rbx
    92c5:	5d                   	pop    %rbp
    92c6:	c3                   	retq   

00000000000092c7 <func_16>:
    92c7:	f3 0f 1e fa          	endbr64 
    92cb:	55                   	push   %rbp
    92cc:	48 89 e5             	mov    %rsp,%rbp
    92cf:	48 89 7d e8          	mov    %rdi,-0x18(%rbp)
    92d3:	48 89 75 e0          	mov    %rsi,-0x20(%rbp)
    92d7:	48 89 55 d8          	mov    %rdx,-0x28(%rbp)
    92db:	48 89 4d d0          	mov    %rcx,-0x30(%rbp)
    92df:	44 89 45 cc          	mov    %r8d,-0x34(%rbp)
    92e3:	48 8d 05 fe e7 00 00 	lea    0xe7fe(%rip),%rax        # 17ae8 <g_188+0x8>
    92ea:	48 89 45 f8          	mov    %rax,-0x8(%rbp)
    92ee:	48 83 7d f8 00       	cmpq   $0x0,-0x8(%rbp)
    92f3:	0f 95 c2             	setne  %dl
    92f6:	48 8b 05 63 e9 00 00 	mov    0xe963(%rip),%rax        # 17c60 <g_724>
    92fd:	0f b6 d2             	movzbl %dl,%edx
    9300:	89 10                	mov    %edx,(%rax)
    9302:	8b 45 cc             	mov    -0x34(%rbp),%eax
    9305:	5d                   	pop    %rbp
    9306:	c3                   	retq   

0000000000009307 <func_26>:
    9307:	f3 0f 1e fa          	endbr64 
    930b:	55                   	push   %rbp
    930c:	48 89 e5             	mov    %rsp,%rbp
    930f:	41 56                	push   %r14
    9311:	41 55                	push   %r13
    9313:	41 54                	push   %r12
    9315:	53                   	push   %rbx
    9316:	48 81 ec 30 03 00 00 	sub    $0x330,%rsp
    931d:	48 89 bd c8 fc ff ff 	mov    %rdi,-0x338(%rbp)
    9324:	48 89 b5 c0 fc ff ff 	mov    %rsi,-0x340(%rbp)
    932b:	48 89 95 b8 fc ff ff 	mov    %rdx,-0x348(%rbp)
    9332:	89 c8                	mov    %ecx,%eax
    9334:	88 85 b4 fc ff ff    	mov    %al,-0x34c(%rbp)
    933a:	64 48 8b 04 25 28 00 	mov    %fs:0x28,%rax
    9341:	00 00 
    9343:	48 89 45 d8          	mov    %rax,-0x28(%rbp)
    9347:	31 c0                	xor    %eax,%eax
    9349:	48 8d 05 e8 dc 00 00 	lea    0xdce8(%rip),%rax        # 17038 <g_99>
    9350:	48 89 85 18 fd ff ff 	mov    %rax,-0x2e8(%rbp)
    9357:	48 8d 05 4a e9 00 00 	lea    0xe94a(%rip),%rax        # 17ca8 <g_864+0x8>
    935e:	48 89 85 20 fd ff ff 	mov    %rax,-0x2e0(%rbp)
    9365:	c7 45 d1 34 34 90 34 	movl   $0x34903434,-0x2f(%rbp)
    936c:	66 c7 45 d5 34 90    	movw   $0x9034,-0x2b(%rbp)
    9372:	c6 45 d7 34          	movb   $0x34,-0x29(%rbp)
    9376:	48 c7 85 f8 fc ff ff 	movq   $0x0,-0x308(%rbp)
    937d:	00 00 00 00 
    9381:	48 8d 85 f8 fc ff ff 	lea    -0x308(%rbp),%rax
    9388:	48 89 85 00 fd ff ff 	mov    %rax,-0x300(%rbp)
    938f:	48 8d 85 00 fd ff ff 	lea    -0x300(%rbp),%rax
    9396:	48 89 85 28 fd ff ff 	mov    %rax,-0x2d8(%rbp)
    939d:	c7 85 e8 fc ff ff 74 	movl   $0x5d98a674,-0x318(%rbp)
    93a4:	a6 98 5d 
    93a7:	48 8d 85 b0 fe ff ff 	lea    -0x150(%rbp),%rax
    93ae:	48 8d 15 4b 9e 00 00 	lea    0x9e4b(%rip),%rdx        # 13200 <g_1644+0x110>
    93b5:	b9 24 00 00 00       	mov    $0x24,%ecx
    93ba:	48 89 c7             	mov    %rax,%rdi
    93bd:	48 89 d6             	mov    %rdx,%rsi
    93c0:	f3 48 a5             	rep movsq %ds:(%rsi),%es:(%rdi)
    93c3:	c7 85 ec fc ff ff 61 	movl   $0x57291361,-0x314(%rbp)
    93ca:	13 29 57 
    93cd:	48 8d 05 04 e7 00 00 	lea    0xe704(%rip),%rax        # 17ad8 <g_189>
    93d4:	48 89 85 30 fd ff ff 	mov    %rax,-0x2d0(%rbp)
    93db:	48 8d 05 f6 e6 00 00 	lea    0xe6f6(%rip),%rax        # 17ad8 <g_189>
    93e2:	48 89 85 00 fe ff ff 	mov    %rax,-0x200(%rbp)
    93e9:	48 8d 05 e8 e6 00 00 	lea    0xe6e8(%rip),%rax        # 17ad8 <g_189>
    93f0:	48 89 85 08 fe ff ff 	mov    %rax,-0x1f8(%rbp)
    93f7:	48 8d 05 da e6 00 00 	lea    0xe6da(%rip),%rax        # 17ad8 <g_189>
    93fe:	48 89 85 10 fe ff ff 	mov    %rax,-0x1f0(%rbp)
    9405:	48 8d 05 cc e6 00 00 	lea    0xe6cc(%rip),%rax        # 17ad8 <g_189>
    940c:	48 89 85 18 fe ff ff 	mov    %rax,-0x1e8(%rbp)
    9413:	48 8d 05 be e6 00 00 	lea    0xe6be(%rip),%rax        # 17ad8 <g_189>
    941a:	48 89 85 20 fe ff ff 	mov    %rax,-0x1e0(%rbp)
    9421:	48 8d 05 b0 e6 00 00 	lea    0xe6b0(%rip),%rax        # 17ad8 <g_189>
    9428:	48 89 85 28 fe ff ff 	mov    %rax,-0x1d8(%rbp)
    942f:	c7 85 dc fc ff ff f8 	movl   $0xfffffff8,-0x324(%rbp)
    9436:	ff ff ff 
    9439:	c6 85 da fc ff ff dc 	movb   $0xdc,-0x326(%rbp)
    9440:	48 8d 05 51 df 00 00 	lea    0xdf51(%rip),%rax        # 17398 <g_1140>
    9447:	48 89 85 38 fd ff ff 	mov    %rax,-0x2c8(%rbp)
    944e:	48 c7 85 40 fd ff ff 	movq   $0x0,-0x2c0(%rbp)
    9455:	00 00 00 00 
    9459:	c6 85 db fc ff ff ff 	movb   $0xff,-0x325(%rbp)
    9460:	48 c7 85 48 fd ff ff 	movq   $0x0,-0x2b8(%rbp)
    9467:	00 00 00 00 
    946b:	48 8d 85 dc fc ff ff 	lea    -0x324(%rbp),%rax
    9472:	48 89 85 50 fd ff ff 	mov    %rax,-0x2b0(%rbp)
    9479:	48 c7 85 58 fd ff ff 	movq   $0x0,-0x2a8(%rbp)
    9480:	00 00 00 00 
    9484:	48 8d 05 e5 dc 00 00 	lea    0xdce5(%rip),%rax        # 17170 <g_484>
    948b:	48 89 85 60 fd ff ff 	mov    %rax,-0x2a0(%rbp)
    9492:	c7 85 f0 fc ff ff f8 	movl   $0xfffffff8,-0x310(%rbp)
    9499:	ff ff ff 
    949c:	48 8d 05 85 de 00 00 	lea    0xde85(%rip),%rax        # 17328 <g_950>
    94a3:	48 89 85 68 fd ff ff 	mov    %rax,-0x298(%rbp)
    94aa:	48 8d 05 c3 db 00 00 	lea    0xdbc3(%rip),%rax        # 17074 <g_254>
    94b1:	48 89 85 70 fd ff ff 	mov    %rax,-0x290(%rbp)
    94b8:	48 8d 85 ae fd ff ff 	lea    -0x252(%rbp),%rax
    94bf:	48 89 85 78 fd ff ff 	mov    %rax,-0x288(%rbp)
    94c6:	48 8d 05 5b db 00 00 	lea    0xdb5b(%rip),%rax        # 17028 <g_52>
    94cd:	48 89 85 80 fd ff ff 	mov    %rax,-0x280(%rbp)
    94d4:	c7 85 e0 fc ff ff 00 	movl   $0x0,-0x320(%rbp)
    94db:	00 00 00 
    94de:	eb 1a                	jmp    94fa <func_26+0x1f3>
    94e0:	8b 85 e0 fc ff ff    	mov    -0x320(%rbp),%eax
    94e6:	48 98                	cltq   
    94e8:	c7 84 85 e0 fd ff ff 	movl   $0xaec19dc4,-0x220(%rbp,%rax,4)
    94ef:	c4 9d c1 ae 
    94f3:	83 85 e0 fc ff ff 01 	addl   $0x1,-0x320(%rbp)
    94fa:	83 bd e0 fc ff ff 05 	cmpl   $0x5,-0x320(%rbp)
    9501:	7e dd                	jle    94e0 <func_26+0x1d9>
    9503:	c7 85 e0 fc ff ff 00 	movl   $0x0,-0x320(%rbp)
    950a:	00 00 00 
    950d:	eb 1e                	jmp    952d <func_26+0x226>
    950f:	8b 85 e0 fc ff ff    	mov    -0x320(%rbp),%eax
    9515:	48 98                	cltq   
    9517:	48 8d 15 aa db 00 00 	lea    0xdbaa(%rip),%rdx        # 170c8 <g_307>
    951e:	48 89 94 c5 b0 fd ff 	mov    %rdx,-0x250(%rbp,%rax,8)
    9525:	ff 
    9526:	83 85 e0 fc ff ff 01 	addl   $0x1,-0x320(%rbp)
    952d:	83 bd e0 fc ff ff 00 	cmpl   $0x0,-0x320(%rbp)
    9534:	7e d9                	jle    950f <func_26+0x208>
    9536:	c7 85 e0 fc ff ff 00 	movl   $0x0,-0x320(%rbp)
    953d:	00 00 00 
    9540:	eb 19                	jmp    955b <func_26+0x254>
    9542:	8b 85 e0 fc ff ff    	mov    -0x320(%rbp),%eax
    9548:	48 98                	cltq   
    954a:	66 c7 84 45 ae fd ff 	movw   $0x0,-0x252(%rbp,%rax,2)
    9551:	ff 00 00 
    9554:	83 85 e0 fc ff ff 01 	addl   $0x1,-0x320(%rbp)
    955b:	83 bd e0 fc ff ff 00 	cmpl   $0x0,-0x320(%rbp)
    9562:	7e de                	jle    9542 <func_26+0x23b>
    9564:	c7 85 e0 fc ff ff 00 	movl   $0x0,-0x320(%rbp)
    956b:	00 00 00 
    956e:	eb 1e                	jmp    958e <func_26+0x287>
    9570:	8b 85 e0 fc ff ff    	mov    -0x320(%rbp),%eax
    9576:	48 98                	cltq   
    9578:	48 8d 15 65 dd 00 00 	lea    0xdd65(%rip),%rdx        # 172e4 <g_771+0x4>
    957f:	48 89 94 c5 b8 fd ff 	mov    %rdx,-0x248(%rbp,%rax,8)
    9586:	ff 
    9587:	83 85 e0 fc ff ff 01 	addl   $0x1,-0x320(%rbp)
    958e:	83 bd e0 fc ff ff 00 	cmpl   $0x0,-0x320(%rbp)
    9595:	7e d9                	jle    9570 <func_26+0x269>
    9597:	48 8b 05 ca e6 00 00 	mov    0xe6ca(%rip),%rax        # 17c68 <g_723>
    959e:	48 8b 95 18 fd ff ff 	mov    -0x2e8(%rbp),%rdx
    95a5:	48 89 10             	mov    %rdx,(%rax)
    95a8:	c6 85 b4 fc ff ff 00 	movb   $0x0,-0x34c(%rbp)
    95af:	e9 6b 01 00 00       	jmpq   971f <func_26+0x418>
    95b4:	48 8d 05 e5 e6 00 00 	lea    0xe6e5(%rip),%rax        # 17ca0 <g_864>
    95bb:	48 89 85 88 fd ff ff 	mov    %rax,-0x278(%rbp)
    95c2:	c7 85 f4 fc ff ff 2a 	movl   $0xbcbf492a,-0x30c(%rbp)
    95c9:	49 bf bc 
    95cc:	48 8d 05 fd e4 00 00 	lea    0xe4fd(%rip),%rax        # 17ad0 <g_190>
    95d3:	48 89 85 08 fd ff ff 	mov    %rax,-0x2f8(%rbp)
    95da:	48 8d 85 08 fd ff ff 	lea    -0x2f8(%rbp),%rax
    95e1:	48 89 85 30 fe ff ff 	mov    %rax,-0x1d0(%rbp)
    95e8:	48 c7 85 38 fe ff ff 	movq   $0x0,-0x1c8(%rbp)
    95ef:	00 00 00 00 
    95f3:	48 8d 85 08 fd ff ff 	lea    -0x2f8(%rbp),%rax
    95fa:	48 89 85 40 fe ff ff 	mov    %rax,-0x1c0(%rbp)
    9601:	48 8d 85 08 fd ff ff 	lea    -0x2f8(%rbp),%rax
    9608:	48 89 85 48 fe ff ff 	mov    %rax,-0x1b8(%rbp)
    960f:	48 c7 85 50 fe ff ff 	movq   $0x0,-0x1b0(%rbp)
    9616:	00 00 00 00 
    961a:	48 8d 85 08 fd ff ff 	lea    -0x2f8(%rbp),%rax
    9621:	48 89 85 58 fe ff ff 	mov    %rax,-0x1a8(%rbp)
    9628:	48 8d 85 08 fd ff ff 	lea    -0x2f8(%rbp),%rax
    962f:	48 89 85 60 fe ff ff 	mov    %rax,-0x1a0(%rbp)
    9636:	48 c7 85 68 fe ff ff 	movq   $0x0,-0x198(%rbp)
    963d:	00 00 00 00 
    9641:	48 c7 85 90 fd ff ff 	movq   $0x0,-0x270(%rbp)
    9648:	00 00 00 00 
    964c:	48 b8 d8 db cb f1 5f 	movabs $0xa6fe535ff1cbdbd8,%rax
    9653:	53 fe a6 
    9656:	48 89 85 98 fd ff ff 	mov    %rax,-0x268(%rbp)
    965d:	48 8d 05 3c ed 00 00 	lea    0xed3c(%rip),%rax        # 183a0 <g_576>
    9664:	48 89 85 10 fd ff ff 	mov    %rax,-0x2f0(%rbp)
    966b:	48 8d 85 10 fd ff ff 	lea    -0x2f0(%rbp),%rax
    9672:	48 89 85 70 fe ff ff 	mov    %rax,-0x190(%rbp)
    9679:	48 8d 85 10 fd ff ff 	lea    -0x2f0(%rbp),%rax
    9680:	48 89 85 78 fe ff ff 	mov    %rax,-0x188(%rbp)
    9687:	48 8d 85 10 fd ff ff 	lea    -0x2f0(%rbp),%rax
    968e:	48 89 85 80 fe ff ff 	mov    %rax,-0x180(%rbp)
    9695:	48 8d 85 10 fd ff ff 	lea    -0x2f0(%rbp),%rax
    969c:	48 89 85 88 fe ff ff 	mov    %rax,-0x178(%rbp)
    96a3:	48 8d 85 10 fd ff ff 	lea    -0x2f0(%rbp),%rax
    96aa:	48 89 85 90 fe ff ff 	mov    %rax,-0x170(%rbp)
    96b1:	48 8d 85 10 fd ff ff 	lea    -0x2f0(%rbp),%rax
    96b8:	48 89 85 98 fe ff ff 	mov    %rax,-0x168(%rbp)
    96bf:	48 8d 85 10 fd ff ff 	lea    -0x2f0(%rbp),%rax
    96c6:	48 89 85 a0 fe ff ff 	mov    %rax,-0x160(%rbp)
    96cd:	48 8d 85 10 fd ff ff 	lea    -0x2f0(%rbp),%rax
    96d4:	48 89 85 a8 fe ff ff 	mov    %rax,-0x158(%rbp)
    96db:	48 8d 85 70 fe ff ff 	lea    -0x190(%rbp),%rax
    96e2:	48 89 85 a0 fd ff ff 	mov    %rax,-0x260(%rbp)
    96e9:	c7 85 e4 fc ff ff 00 	movl   $0x0,-0x31c(%rbp)
    96f0:	00 00 00 
    96f3:	eb 1a                	jmp    970f <func_26+0x408>
    96f5:	8b 85 e4 fc ff ff    	mov    -0x31c(%rbp),%eax
    96fb:	48 98                	cltq   
    96fd:	c7 84 85 c0 fd ff ff 	movl   $0x3,-0x240(%rbp,%rax,4)
    9704:	03 00 00 00 
    9708:	83 85 e4 fc ff ff 01 	addl   $0x1,-0x31c(%rbp)
    970f:	83 bd e4 fc ff ff 04 	cmpl   $0x4,-0x31c(%rbp)
    9716:	7e dd                	jle    96f5 <func_26+0x3ee>
    9718:	80 85 b4 fc ff ff 01 	addb   $0x1,-0x34c(%rbp)
    971f:	80 bd b4 fc ff ff 09 	cmpb   $0x9,-0x34c(%rbp)
    9726:	0f 86 88 fe ff ff    	jbe    95b4 <func_26+0x2ad>
    972c:	48 8b 85 b8 fc ff ff 	mov    -0x348(%rbp),%rax
    9733:	41 89 c6             	mov    %eax,%r14d
    9736:	0f b7 05 8b d9 00 00 	movzwl 0xd98b(%rip),%eax        # 170c8 <g_307>
    973d:	0f b7 d8             	movzwl %ax,%ebx
    9740:	44 0f b6 a5 b4 fc ff 	movzbl -0x34c(%rbp),%r12d
    9747:	ff 
    9748:	48 8b 05 d1 d9 00 00 	mov    0xd9d1(%rip),%rax        # 17120 <g_483+0x40>
    974f:	48 89 c6             	mov    %rax,%rsi
    9752:	bf 01 00 00 00       	mov    $0x1,%edi
    9757:	e8 e5 90 ff ff       	callq  2841 <safe_add_func_int64_t_s_s>
    975c:	0f b6 85 db fc ff ff 	movzbl -0x325(%rbp),%eax
    9763:	be ff ff 00 00       	mov    $0xffff,%esi
    9768:	89 c7                	mov    %eax,%edi
    976a:	e8 ed 95 ff ff       	callq  2d5c <safe_mod_func_uint16_t_u_u>
    976f:	0f b7 d0             	movzwl %ax,%edx
    9772:	48 8b 85 50 fd ff ff 	mov    -0x2b0(%rbp),%rax
    9779:	89 10                	mov    %edx,(%rax)
    977b:	48 8b 85 50 fd ff ff 	mov    -0x2b0(%rbp),%rax
    9782:	8b 00                	mov    (%rax),%eax
    9784:	41 39 c4             	cmp    %eax,%r12d
    9787:	0f 9e c0             	setle  %al
    978a:	44 0f b6 e0          	movzbl %al,%r12d
    978e:	48 8b 85 b8 fc ff ff 	mov    -0x348(%rbp),%rax
    9795:	44 0f b6 e8          	movzbl %al,%r13d
    9799:	be 67 04 00 00       	mov    $0x467,%esi
    979e:	bf 58 c6 ff ff       	mov    $0xffffc658,%edi
    97a3:	e8 6e 8c ff ff       	callq  2416 <safe_mod_func_int16_t_s_s>
    97a8:	0f b6 c0             	movzbl %al,%eax
    97ab:	44 89 ee             	mov    %r13d,%esi
    97ae:	89 c7                	mov    %eax,%edi
    97b0:	e8 26 94 ff ff       	callq  2bdb <safe_div_func_uint8_t_u_u>
    97b5:	44 89 e6             	mov    %r12d,%esi
    97b8:	bf 01 00 00 00       	mov    $0x1,%edi
    97bd:	e8 5d 95 ff ff       	callq  2d1f <safe_sub_func_uint16_t_u_u>
    97c2:	0f b7 d0             	movzwl %ax,%edx
    97c5:	48 8b 85 60 fd ff ff 	mov    -0x2a0(%rbp),%rax
    97cc:	48 89 10             	mov    %rdx,(%rax)
    97cf:	0f b6 05 c2 db 00 00 	movzbl 0xdbc2(%rip),%eax        # 17398 <g_1140>
    97d6:	0f b6 05 60 d8 00 00 	movzbl 0xd860(%rip),%eax        # 1703d <g_124>
    97dd:	0f b6 c0             	movzbl %al,%eax
    97e0:	48 39 85 b8 fc ff ff 	cmp    %rax,-0x348(%rbp)
    97e7:	0f 9c c0             	setl   %al
    97ea:	0f b6 d0             	movzbl %al,%edx
    97ed:	48 8b 85 b8 fc ff ff 	mov    -0x348(%rbp),%rax
    97f4:	98                   	cwtl   
    97f5:	89 d6                	mov    %edx,%esi
    97f7:	89 c7                	mov    %eax,%edi
    97f9:	e8 f7 8b ff ff       	callq  23f5 <safe_mul_func_int16_t_s_s>
    97fe:	48 0f bf c0          	movswq %ax,%rax
    9802:	48 89 de             	mov    %rbx,%rsi
    9805:	48 89 c7             	mov    %rax,%rdi
    9808:	e8 34 90 ff ff       	callq  2841 <safe_add_func_int64_t_s_s>
    980d:	48 83 f8 5a          	cmp    $0x5a,%rax
    9811:	0f 95 c0             	setne  %al
    9814:	0f b6 c0             	movzbl %al,%eax
    9817:	89 85 e8 fc ff ff    	mov    %eax,-0x318(%rbp)
    981d:	8b 95 e8 fc ff ff    	mov    -0x318(%rbp),%edx
    9823:	8b 85 e8 fd ff ff    	mov    -0x218(%rbp),%eax
    9829:	31 d0                	xor    %edx,%eax
    982b:	89 85 e8 fd ff ff    	mov    %eax,-0x218(%rbp)
    9831:	8b 85 e8 fd ff ff    	mov    -0x218(%rbp),%eax
    9837:	0f b7 c0             	movzwl %ax,%eax
    983a:	48 8b 95 18 fd ff ff 	mov    -0x2e8(%rbp),%rdx
    9841:	c7 02 00 00 00 00    	movl   $0x0,(%rdx)
    9847:	89 c6                	mov    %eax,%esi
    9849:	bf 00 00 00 00       	mov    $0x0,%edi
    984e:	e8 ea 94 ff ff       	callq  2d3d <safe_mul_func_uint16_t_u_u>
    9853:	0f b6 95 b4 fc ff ff 	movzbl -0x34c(%rbp),%edx
    985a:	66 39 d0             	cmp    %dx,%ax
    985d:	0f 95 c0             	setne  %al
    9860:	0f b6 c0             	movzbl %al,%eax
    9863:	39 85 f0 fc ff ff    	cmp    %eax,-0x310(%rbp)
    9869:	0f 9c c0             	setl   %al
    986c:	0f b6 d0             	movzbl %al,%edx
    986f:	48 8b 85 68 fd ff ff 	mov    -0x298(%rbp),%rax
    9876:	0f b7 00             	movzwl (%rax),%eax
    9879:	09 c2                	or     %eax,%edx
    987b:	48 8b 85 68 fd ff ff 	mov    -0x298(%rbp),%rax
    9882:	66 89 10             	mov    %dx,(%rax)
    9885:	48 8b 85 68 fd ff ff 	mov    -0x298(%rbp),%rax
    988c:	0f b7 10             	movzwl (%rax),%edx
    988f:	48 8b 85 70 fd ff ff 	mov    -0x290(%rbp),%rax
    9896:	66 89 10             	mov    %dx,(%rax)
    9899:	48 8b 85 70 fd ff ff 	mov    -0x290(%rbp),%rax
    98a0:	0f b7 00             	movzwl (%rax),%eax
    98a3:	66 83 f8 01          	cmp    $0x1,%ax
    98a7:	74 13                	je     98bc <func_26+0x5b5>
    98a9:	0f b7 85 ae fd ff ff 	movzwl -0x252(%rbp),%eax
    98b0:	66 85 c0             	test   %ax,%ax
    98b3:	74 07                	je     98bc <func_26+0x5b5>
    98b5:	b8 01 00 00 00       	mov    $0x1,%eax
    98ba:	eb 05                	jmp    98c1 <func_26+0x5ba>
    98bc:	b8 00 00 00 00       	mov    $0x0,%eax
    98c1:	89 c2                	mov    %eax,%edx
    98c3:	48 8b 85 78 fd ff ff 	mov    -0x288(%rbp),%rax
    98ca:	66 89 10             	mov    %dx,(%rax)
    98cd:	48 8b 85 78 fd ff ff 	mov    -0x288(%rbp),%rax
    98d4:	0f b7 00             	movzwl (%rax),%eax
    98d7:	98                   	cwtl   
    98d8:	44 89 f6             	mov    %r14d,%esi
    98db:	89 c7                	mov    %eax,%edi
    98dd:	e8 b0 8b ff ff       	callq  2492 <safe_lshift_func_int16_t_s_s>
    98e2:	0f bf d0             	movswl %ax,%edx
    98e5:	0f b6 85 b4 fc ff ff 	movzbl -0x34c(%rbp),%eax
    98ec:	39 c2                	cmp    %eax,%edx
    98ee:	0f 94 c0             	sete   %al
    98f1:	0f b6 d0             	movzbl %al,%edx
    98f4:	8b 05 ea d9 00 00    	mov    0xd9ea(%rip),%eax        # 172e4 <g_771+0x4>
    98fa:	31 d0                	xor    %edx,%eax
    98fc:	89 05 e2 d9 00 00    	mov    %eax,0xd9e2(%rip)        # 172e4 <g_771+0x4>
    9902:	0f b6 85 b4 fc ff ff 	movzbl -0x34c(%rbp),%eax
    9909:	83 c8 01             	or     $0x1,%eax
    990c:	0f b6 d0             	movzbl %al,%edx
    990f:	48 8b 85 80 fd ff ff 	mov    -0x280(%rbp),%rax
    9916:	8b 00                	mov    (%rax),%eax
    9918:	09 c2                	or     %eax,%edx
    991a:	48 8b 85 80 fd ff ff 	mov    -0x280(%rbp),%rax
    9921:	89 10                	mov    %edx,(%rax)
    9923:	48 8b 85 38 fd ff ff 	mov    -0x2c8(%rbp),%rax
    992a:	48 8b 00             	mov    (%rax),%rax
    992d:	48 8b 5d d8          	mov    -0x28(%rbp),%rbx
    9931:	64 48 33 1c 25 28 00 	xor    %fs:0x28,%rbx
    9938:	00 00 
    993a:	74 05                	je     9941 <func_26+0x63a>
    993c:	e8 2f 87 ff ff       	callq  2070 <__stack_chk_fail@plt>
    9941:	48 81 c4 30 03 00 00 	add    $0x330,%rsp
    9948:	5b                   	pop    %rbx
    9949:	41 5c                	pop    %r12
    994b:	41 5d                	pop    %r13
    994d:	41 5e                	pop    %r14
    994f:	5d                   	pop    %rbp
    9950:	c3                   	retq   

0000000000009951 <func_33>:
    9951:	f3 0f 1e fa          	endbr64 
    9955:	55                   	push   %rbp
    9956:	48 89 e5             	mov    %rsp,%rbp
    9959:	41 57                	push   %r15
    995b:	41 56                	push   %r14
    995d:	41 55                	push   %r13
    995f:	41 54                	push   %r12
    9961:	53                   	push   %rbx
    9962:	48 81 ec 00 10 00 00 	sub    $0x1000,%rsp
    9969:	48 83 0c 24 00       	orq    $0x0,(%rsp)
    996e:	48 81 ec c8 01 00 00 	sub    $0x1c8,%rsp
    9975:	48 89 bd 28 ee ff ff 	mov    %rdi,-0x11d8(%rbp)
    997c:	64 48 8b 04 25 28 00 	mov    %fs:0x28,%rax
    9983:	00 00 
    9985:	48 89 45 c8          	mov    %rax,-0x38(%rbp)
    9989:	31 c0                	xor    %eax,%eax
    998b:	c7 85 3c ee ff ff 07 	movl   $0x7,-0x11c4(%rbp)
    9992:	00 00 00 
    9995:	48 8d 85 80 f0 ff ff 	lea    -0xf80(%rbp),%rax
    999c:	48 89 85 e0 ee ff ff 	mov    %rax,-0x1120(%rbp)
    99a3:	48 8d 05 16 e1 00 00 	lea    0xe116(%rip),%rax        # 17ac0 <g_106>
    99aa:	48 89 85 90 ee ff ff 	mov    %rax,-0x1170(%rbp)
    99b1:	48 c7 85 98 ee ff ff 	movq   $0x0,-0x1168(%rbp)
    99b8:	00 00 00 00 
    99bc:	48 8d 05 dd e9 00 00 	lea    0xe9dd(%rip),%rax        # 183a0 <g_576>
    99c3:	48 89 85 a0 ee ff ff 	mov    %rax,-0x1160(%rbp)
    99ca:	48 8d 85 a0 ee ff ff 	lea    -0x1160(%rbp),%rax
    99d1:	48 89 85 e8 ee ff ff 	mov    %rax,-0x1118(%rbp)
    99d8:	c6 85 36 ee ff ff ff 	movb   $0xff,-0x11ca(%rbp)
    99df:	48 8d 05 f2 e0 00 00 	lea    0xe0f2(%rip),%rax        # 17ad8 <g_189>
    99e6:	48 89 85 d8 ee ff ff 	mov    %rax,-0x1128(%rbp)
    99ed:	c7 85 d0 f1 ff ff fd 	movl   $0xfffffffd,-0xe30(%rbp)
    99f4:	ff ff ff 
    99f7:	c7 85 d4 f1 ff ff 5b 	movl   $0xd235475b,-0xe2c(%rbp)
    99fe:	47 35 d2 
    9a01:	c7 85 d8 f1 ff ff 5b 	movl   $0xd235475b,-0xe28(%rbp)
    9a08:	47 35 d2 
    9a0b:	c7 85 dc f1 ff ff fd 	movl   $0xfffffffd,-0xe24(%rbp)
    9a12:	ff ff ff 
    9a15:	c7 85 e0 f1 ff ff 06 	movl   $0x6,-0xe20(%rbp)
    9a1c:	00 00 00 
    9a1f:	c7 85 e4 f1 ff ff 00 	movl   $0x0,-0xe1c(%rbp)
    9a26:	00 00 00 
    9a29:	c7 85 e8 f1 ff ff 06 	movl   $0x6,-0xe18(%rbp)
    9a30:	00 00 00 
    9a33:	c7 85 ec f1 ff ff f7 	movl   $0xb59ba8f7,-0xe14(%rbp)
    9a3a:	a8 9b b5 
    9a3d:	c7 85 f0 f1 ff ff 01 	movl   $0x1,-0xe10(%rbp)
    9a44:	00 00 00 
    9a47:	c7 85 f4 f1 ff ff 57 	movl   $0x7f4cff57,-0xe0c(%rbp)
    9a4e:	ff 4c 7f 
    9a51:	c7 85 f8 f1 ff ff a0 	movl   $0x4d0907a0,-0xe08(%rbp)
    9a58:	07 09 4d 
    9a5b:	c7 85 fc f1 ff ff 57 	movl   $0x7f4cff57,-0xe04(%rbp)
    9a62:	ff 4c 7f 
    9a65:	c7 85 00 f2 ff ff 01 	movl   $0x1,-0xe00(%rbp)
    9a6c:	00 00 00 
    9a6f:	c7 85 04 f2 ff ff f7 	movl   $0xb59ba8f7,-0xdfc(%rbp)
    9a76:	a8 9b b5 
    9a79:	c7 85 08 f2 ff ff 06 	movl   $0x6,-0xdf8(%rbp)
    9a80:	00 00 00 
    9a83:	c7 85 0c f2 ff ff 00 	movl   $0x0,-0xdf4(%rbp)
    9a8a:	00 00 00 
    9a8d:	c7 85 10 f2 ff ff 06 	movl   $0x6,-0xdf0(%rbp)
    9a94:	00 00 00 
    9a97:	c7 85 14 f2 ff ff fd 	movl   $0xfffffffd,-0xdec(%rbp)
    9a9e:	ff ff ff 
    9aa1:	c7 85 18 f2 ff ff 5b 	movl   $0xd235475b,-0xde8(%rbp)
    9aa8:	47 35 d2 
    9aab:	c7 85 1c f2 ff ff 5b 	movl   $0xd235475b,-0xde4(%rbp)
    9ab2:	47 35 d2 
    9ab5:	c7 85 20 f2 ff ff fd 	movl   $0xfffffffd,-0xde0(%rbp)
    9abc:	ff ff ff 
    9abf:	c7 85 24 f2 ff ff 06 	movl   $0x6,-0xddc(%rbp)
    9ac6:	00 00 00 
    9ac9:	c7 85 28 f2 ff ff 00 	movl   $0x0,-0xdd8(%rbp)
    9ad0:	00 00 00 
    9ad3:	c7 85 2c f2 ff ff 06 	movl   $0x6,-0xdd4(%rbp)
    9ada:	00 00 00 
    9add:	c7 85 30 f2 ff ff f7 	movl   $0xb59ba8f7,-0xdd0(%rbp)
    9ae4:	a8 9b b5 
    9ae7:	c7 85 34 f2 ff ff 01 	movl   $0x1,-0xdcc(%rbp)
    9aee:	00 00 00 
    9af1:	c7 85 38 f2 ff ff 57 	movl   $0x7f4cff57,-0xdc8(%rbp)
    9af8:	ff 4c 7f 
    9afb:	c7 85 3c f2 ff ff a0 	movl   $0x4d0907a0,-0xdc4(%rbp)
    9b02:	07 09 4d 
    9b05:	c7 85 40 f2 ff ff 57 	movl   $0x7f4cff57,-0xdc0(%rbp)
    9b0c:	ff 4c 7f 
    9b0f:	c7 85 44 f2 ff ff 01 	movl   $0x1,-0xdbc(%rbp)
    9b16:	00 00 00 
    9b19:	c7 85 48 f2 ff ff f7 	movl   $0xb59ba8f7,-0xdb8(%rbp)
    9b20:	a8 9b b5 
    9b23:	c7 85 4c f2 ff ff 06 	movl   $0x6,-0xdb4(%rbp)
    9b2a:	00 00 00 
    9b2d:	c7 85 50 f2 ff ff 00 	movl   $0x0,-0xdb0(%rbp)
    9b34:	00 00 00 
    9b37:	c7 85 54 f2 ff ff 06 	movl   $0x6,-0xdac(%rbp)
    9b3e:	00 00 00 
    9b41:	c7 85 58 f2 ff ff fd 	movl   $0xfffffffd,-0xda8(%rbp)
    9b48:	ff ff ff 
    9b4b:	c7 85 5c f2 ff ff 5b 	movl   $0xd235475b,-0xda4(%rbp)
    9b52:	47 35 d2 
    9b55:	c7 85 60 f2 ff ff 5b 	movl   $0xd235475b,-0xda0(%rbp)
    9b5c:	47 35 d2 
    9b5f:	c7 85 64 f2 ff ff fd 	movl   $0xfffffffd,-0xd9c(%rbp)
    9b66:	ff ff ff 
    9b69:	c7 85 68 f2 ff ff 06 	movl   $0x6,-0xd98(%rbp)
    9b70:	00 00 00 
    9b73:	c7 85 6c f2 ff ff 00 	movl   $0x0,-0xd94(%rbp)
    9b7a:	00 00 00 
    9b7d:	c7 85 c0 f0 ff ff f1 	movl   $0x6f84f7f1,-0xf40(%rbp)
    9b84:	f7 84 6f 
    9b87:	c7 85 c4 f0 ff ff f1 	movl   $0x6f84f7f1,-0xf3c(%rbp)
    9b8e:	f7 84 6f 
    9b91:	c7 85 c8 f0 ff ff 04 	movl   $0xaab65c04,-0xf38(%rbp)
    9b98:	5c b6 aa 
    9b9b:	c7 85 cc f0 ff ff f1 	movl   $0x6f84f7f1,-0xf34(%rbp)
    9ba2:	f7 84 6f 
    9ba5:	c7 85 d0 f0 ff ff f1 	movl   $0x6f84f7f1,-0xf30(%rbp)
    9bac:	f7 84 6f 
    9baf:	c7 85 d4 f0 ff ff 04 	movl   $0xaab65c04,-0xf2c(%rbp)
    9bb6:	5c b6 aa 
    9bb9:	c7 85 d8 f0 ff ff f1 	movl   $0x6f84f7f1,-0xf28(%rbp)
    9bc0:	f7 84 6f 
    9bc3:	c7 85 dc f0 ff ff f1 	movl   $0x6f84f7f1,-0xf24(%rbp)
    9bca:	f7 84 6f 
    9bcd:	c7 85 e0 f0 ff ff 04 	movl   $0xaab65c04,-0xf20(%rbp)
    9bd4:	5c b6 aa 
    9bd7:	c7 85 e4 f0 ff ff f1 	movl   $0x6f84f7f1,-0xf1c(%rbp)
    9bde:	f7 84 6f 
    9be1:	48 8d 85 90 ee ff ff 	lea    -0x1170(%rbp),%rax
    9be8:	48 89 85 f0 ee ff ff 	mov    %rax,-0x1110(%rbp)
    9bef:	c7 85 48 ee ff ff 01 	movl   $0x1,-0x11b8(%rbp)
    9bf6:	00 00 00 
    9bf9:	c7 85 4c ee ff ff 00 	movl   $0x0,-0x11b4(%rbp)
    9c00:	00 00 00 
    9c03:	eb 1b                	jmp    9c20 <func_33+0x2cf>
    9c05:	8b 85 4c ee ff ff    	mov    -0x11b4(%rbp),%eax
    9c0b:	48 98                	cltq   
    9c0d:	48 c7 84 c5 80 f0 ff 	movq   $0x0,-0xf80(%rbp,%rax,8)
    9c14:	ff 00 00 00 00 
    9c19:	83 85 4c ee ff ff 01 	addl   $0x1,-0x11b4(%rbp)
    9c20:	83 bd 4c ee ff ff 01 	cmpl   $0x1,-0x11b4(%rbp)
    9c27:	7e dc                	jle    9c05 <func_33+0x2b4>
    9c29:	48 8b 9d 90 ee ff ff 	mov    -0x1170(%rbp),%rbx
    9c30:	8b 85 3c ee ff ff    	mov    -0x11c4(%rbp),%eax
    9c36:	41 89 c7             	mov    %eax,%r15d
    9c39:	b8 5e d4 46 45       	mov    $0x4546d45e,%eax
    9c3e:	4c 63 e0             	movslq %eax,%r12
    9c41:	8b 05 e1 d3 00 00    	mov    0xd3e1(%rip),%eax        # 17028 <g_52>
    9c47:	89 85 24 ee ff ff    	mov    %eax,-0x11dc(%rbp)
    9c4d:	44 8b 2d d0 d3 00 00 	mov    0xd3d0(%rip),%r13d        # 17024 <g_15>
    9c54:	8b 05 ca d3 00 00    	mov    0xd3ca(%rip),%eax        # 17024 <g_15>
    9c5a:	89 c0                	mov    %eax,%eax
    9c5c:	48 89 85 18 ee ff ff 	mov    %rax,-0x11e8(%rbp)
    9c63:	8b 85 3c ee ff ff    	mov    -0x11c4(%rbp),%eax
    9c69:	83 f8 01             	cmp    $0x1,%eax
    9c6c:	0f 94 c0             	sete   %al
    9c6f:	0f b6 c0             	movzbl %al,%eax
    9c72:	f7 d0                	not    %eax
    9c74:	89 c2                	mov    %eax,%edx
    9c76:	8b 85 3c ee ff ff    	mov    -0x11c4(%rbp),%eax
    9c7c:	39 c2                	cmp    %eax,%edx
    9c7e:	0f 95 c0             	setne  %al
    9c81:	44 0f b6 f0          	movzbl %al,%r14d
    9c85:	48 8b 95 80 f0 ff ff 	mov    -0xf80(%rbp),%rdx
    9c8c:	48 8b 85 e0 ee ff ff 	mov    -0x1120(%rbp),%rax
    9c93:	48 89 10             	mov    %rdx,(%rax)
    9c96:	48 8b 85 e0 ee ff ff 	mov    -0x1120(%rbp),%rax
    9c9d:	48 8b 00             	mov    (%rax),%rax
    9ca0:	48 85 c0             	test   %rax,%rax
    9ca3:	0f 94 c0             	sete   %al
    9ca6:	0f b6 d0             	movzbl %al,%edx
    9ca9:	8b 85 3c ee ff ff    	mov    -0x11c4(%rbp),%eax
    9caf:	35 ea 96 ce 67       	xor    $0x67ce96ea,%eax
    9cb4:	48 98                	cltq   
    9cb6:	48 21 d0             	and    %rdx,%rax
    9cb9:	48 be b8 ce 21 6b 12 	movabs $0x38f517126b21ceb8,%rsi
    9cc0:	17 f5 38 
    9cc3:	48 89 c7             	mov    %rax,%rdi
    9cc6:	e8 80 93 ff ff       	callq  304b <safe_sub_func_uint64_t_u_u>
    9ccb:	49 39 c6             	cmp    %rax,%r14
    9cce:	0f 94 c0             	sete   %al
    9cd1:	0f b6 c0             	movzbl %al,%eax
    9cd4:	48 8b b5 18 ee ff ff 	mov    -0x11e8(%rbp),%rsi
    9cdb:	48 89 c7             	mov    %rax,%rdi
    9cde:	e8 9d 93 ff ff       	callq  3080 <safe_mod_func_uint64_t_u_u>
    9ce3:	0f be c0             	movsbl %al,%eax
    9ce6:	44 89 ee             	mov    %r13d,%esi
    9ce9:	89 c7                	mov    %eax,%edi
    9ceb:	e8 fe 85 ff ff       	callq  22ee <safe_lshift_func_int8_t_s_u>
    9cf0:	8b 85 3c ee ff ff    	mov    -0x11c4(%rbp),%eax
    9cf6:	48 98                	cltq   
    9cf8:	48 8b 15 31 d3 00 00 	mov    0xd331(%rip),%rdx        # 17030 <g_67>
    9cff:	48 83 f2 01          	xor    $0x1,%rdx
    9d03:	48 39 d0             	cmp    %rdx,%rax
    9d06:	74 0a                	je     9d12 <func_33+0x3c1>
    9d08:	8b 85 3c ee ff ff    	mov    -0x11c4(%rbp),%eax
    9d0e:	85 c0                	test   %eax,%eax
    9d10:	74 07                	je     9d19 <func_33+0x3c8>
    9d12:	b8 01 00 00 00       	mov    $0x1,%eax
    9d17:	eb 05                	jmp    9d1e <func_33+0x3cd>
    9d19:	b8 00 00 00 00       	mov    $0x0,%eax
    9d1e:	0f b6 c0             	movzbl %al,%eax
    9d21:	8b b5 24 ee ff ff    	mov    -0x11dc(%rbp),%esi
    9d27:	89 c7                	mov    %eax,%edi
    9d29:	e8 57 7c 00 00       	callq  11985 <func_79>
    9d2e:	0f b6 d0             	movzbl %al,%edx
    9d31:	48 8b 05 88 dd 00 00 	mov    0xdd88(%rip),%rax        # 17ac0 <g_106>
    9d38:	0f b6 00             	movzbl (%rax),%eax
    9d3b:	0f be c0             	movsbl %al,%eax
    9d3e:	39 c2                	cmp    %eax,%edx
    9d40:	0f 9e c0             	setle  %al
    9d43:	0f b6 d0             	movzbl %al,%edx
    9d46:	48 8b 05 e3 d2 00 00 	mov    0xd2e3(%rip),%rax        # 17030 <g_67>
    9d4d:	48 39 c2             	cmp    %rax,%rdx
    9d50:	0f 96 c0             	setbe  %al
    9d53:	0f b6 c0             	movzbl %al,%eax
    9d56:	8b 15 c8 d2 00 00    	mov    0xd2c8(%rip),%edx        # 17024 <g_15>
    9d5c:	89 d2                	mov    %edx,%edx
    9d5e:	48 89 c6             	mov    %rax,%rsi
    9d61:	48 89 d7             	mov    %rdx,%rdi
    9d64:	e8 c5 92 ff ff       	callq  302e <safe_add_func_uint64_t_u_u>
    9d69:	0f b7 c0             	movzwl %ax,%eax
    9d6c:	48 8d 35 c9 d2 00 00 	lea    0xd2c9(%rip),%rsi        # 1703c <g_107>
    9d73:	89 c7                	mov    %eax,%edi
    9d75:	e8 53 60 00 00       	callq  fdcd <func_74>
    9d7a:	44 89 fa             	mov    %r15d,%edx
    9d7d:	4c 89 e6             	mov    %r12,%rsi
    9d80:	48 89 c7             	mov    %rax,%rdi
    9d83:	e8 0a 2d 00 00       	callq  ca92 <func_45>
    9d88:	0f b6 c0             	movzbl %al,%eax
    9d8b:	4c 8b 25 d6 de 00 00 	mov    0xded6(%rip),%r12        # 17c68 <g_723>
    9d92:	48 89 da             	mov    %rbx,%rdx
    9d95:	48 8d 35 24 dd 00 00 	lea    0xdd24(%rip),%rsi        # 17ac0 <g_106>
    9d9c:	89 c7                	mov    %eax,%edi
    9d9e:	e8 ec 2f 00 00       	callq  cd8f <func_70>
    9da3:	49 89 04 24          	mov    %rax,(%r12)
    9da7:	48 8b 05 22 de 00 00 	mov    0xde22(%rip),%rax        # 17bd0 <g_507>
    9dae:	48 8b 95 98 ee ff ff 	mov    -0x1168(%rbp),%rdx
    9db5:	48 89 10             	mov    %rdx,(%rax)
    9db8:	c6 05 61 e5 00 00 e2 	movb   $0xe2,0xe561(%rip)        # 18320 <g_542>
    9dbf:	e9 39 2c 00 00       	jmpq   c9fd <func_33+0x30ac>
    9dc4:	c7 85 40 ee ff ff 02 	movl   $0x2,-0x11c0(%rbp)
    9dcb:	00 00 00 
    9dce:	48 8d 05 03 dd 00 00 	lea    0xdd03(%rip),%rax        # 17ad8 <g_189>
    9dd5:	48 89 85 a8 ee ff ff 	mov    %rax,-0x1158(%rbp)
    9ddc:	48 8d 85 60 f3 ff ff 	lea    -0xca0(%rbp),%rax
    9de3:	48 8d 15 36 95 00 00 	lea    0x9536(%rip),%rdx        # 13320 <g_1644+0x230>
    9dea:	b9 23 00 00 00       	mov    $0x23,%ecx
    9def:	48 89 c7             	mov    %rax,%rdi
    9df2:	48 89 d6             	mov    %rdx,%rsi
    9df5:	f3 48 a5             	rep movsq %ds:(%rsi),%es:(%rdi)
    9df8:	48 c7 85 b0 ee ff ff 	movq   $0xfffffffffffffffe,-0x1150(%rbp)
    9dff:	fe ff ff ff 
    9e03:	c6 85 37 ee ff ff 01 	movb   $0x1,-0x11c9(%rbp)
    9e0a:	c7 85 60 ee ff ff c9 	movl   $0x4081dfc9,-0x11a0(%rbp)
    9e11:	df 81 40 
    9e14:	48 8d 05 a5 de 00 00 	lea    0xdea5(%rip),%rax        # 17cc0 <g_864+0x20>
    9e1b:	48 89 85 f8 ee ff ff 	mov    %rax,-0x1108(%rbp)
    9e22:	c7 05 9c d4 00 00 eb 	movl   $0xffffffeb,0xd49c(%rip)        # 172c8 <g_658>
    9e29:	ff ff ff 
    9e2c:	e9 9e 2b 00 00       	jmpq   c9cf <func_33+0x307e>
    9e31:	48 b8 09 2b 8f 57 22 	movabs $0x56f81522578f2b09,%rax
    9e38:	15 f8 56 
    9e3b:	48 89 85 b8 ee ff ff 	mov    %rax,-0x1148(%rbp)
    9e42:	48 8d 05 27 de 00 00 	lea    0xde27(%rip),%rax        # 17c70 <g_737>
    9e49:	48 89 85 00 ef ff ff 	mov    %rax,-0x1100(%rbp)
    9e50:	48 8d 85 3c ee ff ff 	lea    -0x11c4(%rbp),%rax
    9e57:	48 89 85 08 ef ff ff 	mov    %rax,-0x10f8(%rbp)
    9e5e:	48 c7 85 10 ef ff ff 	movq   $0x0,-0x10f0(%rbp)
    9e65:	00 00 00 00 
    9e69:	48 c7 85 18 ef ff ff 	movq   $0x0,-0x10e8(%rbp)
    9e70:	00 00 00 00 
    9e74:	48 c7 85 20 ef ff ff 	movq   $0x0,-0x10e0(%rbp)
    9e7b:	00 00 00 00 
    9e7f:	48 8d 05 42 d2 00 00 	lea    0xd242(%rip),%rax        # 170c8 <g_307>
    9e86:	48 89 85 28 ef ff ff 	mov    %rax,-0x10d8(%rbp)
    9e8d:	48 8d 05 a4 d1 00 00 	lea    0xd1a4(%rip),%rax        # 17038 <g_99>
    9e94:	48 89 85 30 ef ff ff 	mov    %rax,-0x10d0(%rbp)
    9e9b:	48 c7 85 c0 ee ff ff 	movq   $0x0,-0x1140(%rbp)
    9ea2:	00 00 00 00 
    9ea6:	c7 85 64 ee ff ff 26 	movl   $0xf33fa526,-0x119c(%rbp)
    9ead:	a5 3f f3 
    9eb0:	48 b8 a7 e4 fa 41 b5 	movabs $0xf22e40b541fae4a7,%rax
    9eb7:	40 2e f2 
    9eba:	48 89 85 38 ef ff ff 	mov    %rax,-0x10c8(%rbp)
    9ec1:	48 8d 05 f8 db 00 00 	lea    0xdbf8(%rip),%rax        # 17ac0 <g_106>
    9ec8:	48 89 85 40 ef ff ff 	mov    %rax,-0x10c0(%rbp)
    9ecf:	48 c7 85 48 ef ff ff 	movq   $0x0,-0x10b8(%rbp)
    9ed6:	00 00 00 00 
    9eda:	c7 85 f0 f0 ff ff 2e 	movl   $0x1623332e,-0xf10(%rbp)
    9ee1:	33 23 16 
    9ee4:	c7 85 f4 f0 ff ff fe 	movl   $0xfffffffe,-0xf0c(%rbp)
    9eeb:	ff ff ff 
    9eee:	c7 85 f8 f0 ff ff 2e 	movl   $0x1623332e,-0xf08(%rbp)
    9ef5:	33 23 16 
    9ef8:	c7 85 fc f0 ff ff 00 	movl   $0x0,-0xf04(%rbp)
    9eff:	00 00 00 
    9f02:	c7 85 00 f1 ff ff fe 	movl   $0xfffffffe,-0xf00(%rbp)
    9f09:	ff ff ff 
    9f0c:	c7 85 04 f1 ff ff 01 	movl   $0x1,-0xefc(%rbp)
    9f13:	00 00 00 
    9f16:	c7 85 08 f1 ff ff 2e 	movl   $0x1623332e,-0xef8(%rbp)
    9f1d:	33 23 16 
    9f20:	c7 85 0c f1 ff ff bd 	movl   $0x2a6949bd,-0xef4(%rbp)
    9f27:	49 69 2a 
    9f2a:	c7 85 10 f1 ff ff 00 	movl   $0x0,-0xef0(%rbp)
    9f31:	00 00 00 
    9f34:	c7 85 14 f1 ff ff 00 	movl   $0x0,-0xeec(%rbp)
    9f3b:	00 00 00 
    9f3e:	c7 85 18 f1 ff ff bd 	movl   $0x2a6949bd,-0xee8(%rbp)
    9f45:	49 69 2a 
    9f48:	c7 85 1c f1 ff ff 2e 	movl   $0x1623332e,-0xee4(%rbp)
    9f4f:	33 23 16 
    9f52:	c7 85 20 f1 ff ff 2e 	movl   $0x1623332e,-0xee0(%rbp)
    9f59:	33 23 16 
    9f5c:	c7 85 24 f1 ff ff ba 	movl   $0xa3eceaba,-0xedc(%rbp)
    9f63:	ea ec a3 
    9f66:	c7 85 28 f1 ff ff 01 	movl   $0x1,-0xed8(%rbp)
    9f6d:	00 00 00 
    9f70:	c7 85 2c f1 ff ff 00 	movl   $0x0,-0xed4(%rbp)
    9f77:	00 00 00 
    9f7a:	c7 85 30 f1 ff ff ba 	movl   $0xa3eceaba,-0xed0(%rbp)
    9f81:	ea ec a3 
    9f84:	c7 85 34 f1 ff ff 00 	movl   $0x0,-0xecc(%rbp)
    9f8b:	00 00 00 
    9f8e:	48 8d 85 78 f0 ff ff 	lea    -0xf88(%rbp),%rax
    9f95:	48 83 c0 04          	add    $0x4,%rax
    9f99:	48 89 85 50 ef ff ff 	mov    %rax,-0x10b0(%rbp)
    9fa0:	48 8d 85 60 f3 ff ff 	lea    -0xca0(%rbp),%rax
    9fa7:	48 05 8c 00 00 00    	add    $0x8c,%rax
    9fad:	48 89 85 58 ef ff ff 	mov    %rax,-0x10a8(%rbp)
    9fb4:	48 8d 05 7d d0 00 00 	lea    0xd07d(%rip),%rax        # 17038 <g_99>
    9fbb:	48 89 85 60 ef ff ff 	mov    %rax,-0x10a0(%rbp)
    9fc2:	48 8d 85 40 ee ff ff 	lea    -0x11c0(%rbp),%rax
    9fc9:	48 89 85 68 ef ff ff 	mov    %rax,-0x1098(%rbp)
    9fd0:	48 8d 85 60 f3 ff ff 	lea    -0xca0(%rbp),%rax
    9fd7:	48 83 c0 34          	add    $0x34,%rax
    9fdb:	48 89 85 70 ef ff ff 	mov    %rax,-0x1090(%rbp)
    9fe2:	48 c7 85 78 ef ff ff 	movq   $0x0,-0x1088(%rbp)
    9fe9:	00 00 00 00 
    9fed:	48 8d 85 40 ee ff ff 	lea    -0x11c0(%rbp),%rax
    9ff4:	48 89 85 80 ef ff ff 	mov    %rax,-0x1080(%rbp)
    9ffb:	48 8d 85 40 ee ff ff 	lea    -0x11c0(%rbp),%rax
    a002:	48 89 85 80 f6 ff ff 	mov    %rax,-0x980(%rbp)
    a009:	48 8d 05 28 d0 00 00 	lea    0xd028(%rip),%rax        # 17038 <g_99>
    a010:	48 89 85 88 f6 ff ff 	mov    %rax,-0x978(%rbp)
    a017:	48 8d 85 78 f0 ff ff 	lea    -0xf88(%rbp),%rax
    a01e:	48 83 c0 04          	add    $0x4,%rax
    a022:	48 89 85 90 f6 ff ff 	mov    %rax,-0x970(%rbp)
    a029:	48 c7 85 98 f6 ff ff 	movq   $0x0,-0x968(%rbp)
    a030:	00 00 00 00 
    a034:	48 8d 85 c0 f0 ff ff 	lea    -0xf40(%rbp),%rax
    a03b:	48 89 85 a0 f6 ff ff 	mov    %rax,-0x960(%rbp)
    a042:	48 8d 85 60 f3 ff ff 	lea    -0xca0(%rbp),%rax
    a049:	48 05 90 00 00 00    	add    $0x90,%rax
    a04f:	48 89 85 a8 f6 ff ff 	mov    %rax,-0x958(%rbp)
    a056:	48 8d 85 40 ee ff ff 	lea    -0x11c0(%rbp),%rax
    a05d:	48 89 85 b0 f6 ff ff 	mov    %rax,-0x950(%rbp)
    a064:	48 8d 85 60 f3 ff ff 	lea    -0xca0(%rbp),%rax
    a06b:	48 05 f4 00 00 00    	add    $0xf4,%rax
    a071:	48 89 85 b8 f6 ff ff 	mov    %rax,-0x948(%rbp)
    a078:	48 8d 05 b9 cf 00 00 	lea    0xcfb9(%rip),%rax        # 17038 <g_99>
    a07f:	48 89 85 c0 f6 ff ff 	mov    %rax,-0x940(%rbp)
    a086:	48 8d 85 c0 f0 ff ff 	lea    -0xf40(%rbp),%rax
    a08d:	48 83 c0 18          	add    $0x18,%rax
    a091:	48 89 85 c8 f6 ff ff 	mov    %rax,-0x938(%rbp)
    a098:	48 8d 05 89 cf 00 00 	lea    0xcf89(%rip),%rax        # 17028 <g_52>
    a09f:	48 89 85 d0 f6 ff ff 	mov    %rax,-0x930(%rbp)
    a0a6:	48 8d 85 60 f3 ff ff 	lea    -0xca0(%rbp),%rax
    a0ad:	48 83 c0 2c          	add    $0x2c,%rax
    a0b1:	48 89 85 d8 f6 ff ff 	mov    %rax,-0x928(%rbp)
    a0b8:	48 8d 85 78 f0 ff ff 	lea    -0xf88(%rbp),%rax
    a0bf:	48 83 c0 04          	add    $0x4,%rax
    a0c3:	48 89 85 e0 f6 ff ff 	mov    %rax,-0x920(%rbp)
    a0ca:	48 c7 85 e8 f6 ff ff 	movq   $0x0,-0x918(%rbp)
    a0d1:	00 00 00 00 
    a0d5:	48 8d 85 78 f0 ff ff 	lea    -0xf88(%rbp),%rax
    a0dc:	48 83 c0 04          	add    $0x4,%rax
    a0e0:	48 89 85 f0 f6 ff ff 	mov    %rax,-0x910(%rbp)
    a0e7:	48 8d 85 78 f0 ff ff 	lea    -0xf88(%rbp),%rax
    a0ee:	48 83 c0 04          	add    $0x4,%rax
    a0f2:	48 89 85 f8 f6 ff ff 	mov    %rax,-0x908(%rbp)
    a0f9:	48 8d 85 78 f0 ff ff 	lea    -0xf88(%rbp),%rax
    a100:	48 83 c0 04          	add    $0x4,%rax
    a104:	48 89 85 00 f7 ff ff 	mov    %rax,-0x900(%rbp)
    a10b:	48 8d 85 60 f3 ff ff 	lea    -0xca0(%rbp),%rax
    a112:	48 83 c0 2c          	add    $0x2c,%rax
    a116:	48 89 85 08 f7 ff ff 	mov    %rax,-0x8f8(%rbp)
    a11d:	48 8d 05 14 cf 00 00 	lea    0xcf14(%rip),%rax        # 17038 <g_99>
    a124:	48 89 85 10 f7 ff ff 	mov    %rax,-0x8f0(%rbp)
    a12b:	48 8d 85 78 f0 ff ff 	lea    -0xf88(%rbp),%rax
    a132:	48 83 c0 04          	add    $0x4,%rax
    a136:	48 89 85 18 f7 ff ff 	mov    %rax,-0x8e8(%rbp)
    a13d:	48 8d 05 f4 ce 00 00 	lea    0xcef4(%rip),%rax        # 17038 <g_99>
    a144:	48 89 85 20 f7 ff ff 	mov    %rax,-0x8e0(%rbp)
    a14b:	48 8d 85 c0 f0 ff ff 	lea    -0xf40(%rbp),%rax
    a152:	48 89 85 28 f7 ff ff 	mov    %rax,-0x8d8(%rbp)
    a159:	48 8d 85 60 f3 ff ff 	lea    -0xca0(%rbp),%rax
    a160:	48 05 f4 00 00 00    	add    $0xf4,%rax
    a166:	48 89 85 30 f7 ff ff 	mov    %rax,-0x8d0(%rbp)
    a16d:	48 8d 85 78 f0 ff ff 	lea    -0xf88(%rbp),%rax
    a174:	48 83 c0 04          	add    $0x4,%rax
    a178:	48 89 85 38 f7 ff ff 	mov    %rax,-0x8c8(%rbp)
    a17f:	48 8d 85 60 f3 ff ff 	lea    -0xca0(%rbp),%rax
    a186:	48 05 90 00 00 00    	add    $0x90,%rax
    a18c:	48 89 85 40 f7 ff ff 	mov    %rax,-0x8c0(%rbp)
    a193:	48 8d 85 40 ee ff ff 	lea    -0x11c0(%rbp),%rax
    a19a:	48 89 85 48 f7 ff ff 	mov    %rax,-0x8b8(%rbp)
    a1a1:	48 8d 05 90 ce 00 00 	lea    0xce90(%rip),%rax        # 17038 <g_99>
    a1a8:	48 89 85 50 f7 ff ff 	mov    %rax,-0x8b0(%rbp)
    a1af:	48 8d 85 78 f0 ff ff 	lea    -0xf88(%rbp),%rax
    a1b6:	48 83 c0 04          	add    $0x4,%rax
    a1ba:	48 89 85 58 f7 ff ff 	mov    %rax,-0x8a8(%rbp)
    a1c1:	48 8d 85 c0 f0 ff ff 	lea    -0xf40(%rbp),%rax
    a1c8:	48 89 85 60 f7 ff ff 	mov    %rax,-0x8a0(%rbp)
    a1cf:	48 8d 85 78 f0 ff ff 	lea    -0xf88(%rbp),%rax
    a1d6:	48 83 c0 04          	add    $0x4,%rax
    a1da:	48 89 85 68 f7 ff ff 	mov    %rax,-0x898(%rbp)
    a1e1:	48 8d 05 50 ce 00 00 	lea    0xce50(%rip),%rax        # 17038 <g_99>
    a1e8:	48 89 85 70 f7 ff ff 	mov    %rax,-0x890(%rbp)
    a1ef:	48 8d 85 40 ee ff ff 	lea    -0x11c0(%rbp),%rax
    a1f6:	48 89 85 78 f7 ff ff 	mov    %rax,-0x888(%rbp)
    a1fd:	48 8d 85 60 f3 ff ff 	lea    -0xca0(%rbp),%rax
    a204:	48 83 c0 2c          	add    $0x2c,%rax
    a208:	48 89 85 80 f7 ff ff 	mov    %rax,-0x880(%rbp)
    a20f:	48 c7 85 88 f7 ff ff 	movq   $0x0,-0x878(%rbp)
    a216:	00 00 00 00 
    a21a:	48 c7 85 90 f7 ff ff 	movq   $0x0,-0x870(%rbp)
    a221:	00 00 00 00 
    a225:	48 8d 85 78 f0 ff ff 	lea    -0xf88(%rbp),%rax
    a22c:	48 83 c0 04          	add    $0x4,%rax
    a230:	48 89 85 98 f7 ff ff 	mov    %rax,-0x868(%rbp)
    a237:	48 8d 05 ea cd 00 00 	lea    0xcdea(%rip),%rax        # 17028 <g_52>
    a23e:	48 89 85 a0 f7 ff ff 	mov    %rax,-0x860(%rbp)
    a245:	48 8d 85 78 f0 ff ff 	lea    -0xf88(%rbp),%rax
    a24c:	48 83 c0 04          	add    $0x4,%rax
    a250:	48 89 85 a8 f7 ff ff 	mov    %rax,-0x858(%rbp)
    a257:	48 8d 85 60 f3 ff ff 	lea    -0xca0(%rbp),%rax
    a25e:	48 83 c0 2c          	add    $0x2c,%rax
    a262:	48 89 85 b0 f7 ff ff 	mov    %rax,-0x850(%rbp)
    a269:	48 8d 85 78 f0 ff ff 	lea    -0xf88(%rbp),%rax
    a270:	48 83 c0 04          	add    $0x4,%rax
    a274:	48 89 85 b8 f7 ff ff 	mov    %rax,-0x848(%rbp)
    a27b:	48 8d 85 78 f0 ff ff 	lea    -0xf88(%rbp),%rax
    a282:	48 83 c0 04          	add    $0x4,%rax
    a286:	48 89 85 c0 f7 ff ff 	mov    %rax,-0x840(%rbp)
    a28d:	48 8d 85 60 f3 ff ff 	lea    -0xca0(%rbp),%rax
    a294:	48 83 c0 2c          	add    $0x2c,%rax
    a298:	48 89 85 c8 f7 ff ff 	mov    %rax,-0x838(%rbp)
    a29f:	48 8d 05 82 cd 00 00 	lea    0xcd82(%rip),%rax        # 17028 <g_52>
    a2a6:	48 89 85 d0 f7 ff ff 	mov    %rax,-0x830(%rbp)
    a2ad:	48 c7 85 d8 f7 ff ff 	movq   $0x0,-0x828(%rbp)
    a2b4:	00 00 00 00 
    a2b8:	48 8d 85 60 f3 ff ff 	lea    -0xca0(%rbp),%rax
    a2bf:	48 83 c0 2c          	add    $0x2c,%rax
    a2c3:	48 89 85 e0 f7 ff ff 	mov    %rax,-0x820(%rbp)
    a2ca:	48 8d 85 78 f0 ff ff 	lea    -0xf88(%rbp),%rax
    a2d1:	48 89 85 e8 f7 ff ff 	mov    %rax,-0x818(%rbp)
    a2d8:	48 8d 85 60 f3 ff ff 	lea    -0xca0(%rbp),%rax
    a2df:	48 83 c0 2c          	add    $0x2c,%rax
    a2e3:	48 89 85 f0 f7 ff ff 	mov    %rax,-0x810(%rbp)
    a2ea:	48 8d 85 c0 f0 ff ff 	lea    -0xf40(%rbp),%rax
    a2f1:	48 89 85 f8 f7 ff ff 	mov    %rax,-0x808(%rbp)
    a2f8:	48 8d 85 78 f0 ff ff 	lea    -0xf88(%rbp),%rax
    a2ff:	48 83 c0 04          	add    $0x4,%rax
    a303:	48 89 85 00 f8 ff ff 	mov    %rax,-0x800(%rbp)
    a30a:	48 c7 85 08 f8 ff ff 	movq   $0x0,-0x7f8(%rbp)
    a311:	00 00 00 00 
    a315:	48 c7 85 10 f8 ff ff 	movq   $0x0,-0x7f0(%rbp)
    a31c:	00 00 00 00 
    a320:	48 8d 85 78 f0 ff ff 	lea    -0xf88(%rbp),%rax
    a327:	48 83 c0 04          	add    $0x4,%rax
    a32b:	48 89 85 18 f8 ff ff 	mov    %rax,-0x7e8(%rbp)
    a332:	48 8d 85 78 f0 ff ff 	lea    -0xf88(%rbp),%rax
    a339:	48 83 c0 04          	add    $0x4,%rax
    a33d:	48 89 85 20 f8 ff ff 	mov    %rax,-0x7e0(%rbp)
    a344:	48 8d 85 60 f3 ff ff 	lea    -0xca0(%rbp),%rax
    a34b:	48 05 90 00 00 00    	add    $0x90,%rax
    a351:	48 89 85 28 f8 ff ff 	mov    %rax,-0x7d8(%rbp)
    a358:	48 8d 05 d9 cc 00 00 	lea    0xccd9(%rip),%rax        # 17038 <g_99>
    a35f:	48 89 85 30 f8 ff ff 	mov    %rax,-0x7d0(%rbp)
    a366:	48 8d 85 c0 f0 ff ff 	lea    -0xf40(%rbp),%rax
    a36d:	48 83 c0 18          	add    $0x18,%rax
    a371:	48 89 85 38 f8 ff ff 	mov    %rax,-0x7c8(%rbp)
    a378:	48 8d 85 78 f0 ff ff 	lea    -0xf88(%rbp),%rax
    a37f:	48 83 c0 04          	add    $0x4,%rax
    a383:	48 89 85 40 f8 ff ff 	mov    %rax,-0x7c0(%rbp)
    a38a:	48 8d 85 60 f3 ff ff 	lea    -0xca0(%rbp),%rax
    a391:	48 05 90 00 00 00    	add    $0x90,%rax
    a397:	48 89 85 48 f8 ff ff 	mov    %rax,-0x7b8(%rbp)
    a39e:	48 8d 05 93 cc 00 00 	lea    0xcc93(%rip),%rax        # 17038 <g_99>
    a3a5:	48 89 85 50 f8 ff ff 	mov    %rax,-0x7b0(%rbp)
    a3ac:	48 8d 85 c0 f0 ff ff 	lea    -0xf40(%rbp),%rax
    a3b3:	48 83 c0 18          	add    $0x18,%rax
    a3b7:	48 89 85 58 f8 ff ff 	mov    %rax,-0x7a8(%rbp)
    a3be:	48 c7 85 60 f8 ff ff 	movq   $0x0,-0x7a0(%rbp)
    a3c5:	00 00 00 00 
    a3c9:	48 8d 85 c0 f0 ff ff 	lea    -0xf40(%rbp),%rax
    a3d0:	48 83 c0 18          	add    $0x18,%rax
    a3d4:	48 89 85 68 f8 ff ff 	mov    %rax,-0x798(%rbp)
    a3db:	48 8d 85 60 f3 ff ff 	lea    -0xca0(%rbp),%rax
    a3e2:	48 05 f4 00 00 00    	add    $0xf4,%rax
    a3e8:	48 89 85 70 f8 ff ff 	mov    %rax,-0x790(%rbp)
    a3ef:	48 8d 85 78 f0 ff ff 	lea    -0xf88(%rbp),%rax
    a3f6:	48 83 c0 04          	add    $0x4,%rax
    a3fa:	48 89 85 78 f8 ff ff 	mov    %rax,-0x788(%rbp)
    a401:	48 8d 85 60 f3 ff ff 	lea    -0xca0(%rbp),%rax
    a408:	48 83 c0 2c          	add    $0x2c,%rax
    a40c:	48 89 85 80 f8 ff ff 	mov    %rax,-0x780(%rbp)
    a413:	48 8d 85 78 f0 ff ff 	lea    -0xf88(%rbp),%rax
    a41a:	48 83 c0 04          	add    $0x4,%rax
    a41e:	48 89 85 88 f8 ff ff 	mov    %rax,-0x778(%rbp)
    a425:	48 8d 05 0c cc 00 00 	lea    0xcc0c(%rip),%rax        # 17038 <g_99>
    a42c:	48 89 85 90 f8 ff ff 	mov    %rax,-0x770(%rbp)
    a433:	48 c7 85 98 f8 ff ff 	movq   $0x0,-0x768(%rbp)
    a43a:	00 00 00 00 
    a43e:	48 c7 85 a0 f8 ff ff 	movq   $0x0,-0x760(%rbp)
    a445:	00 00 00 00 
    a449:	48 8d 05 e8 cb 00 00 	lea    0xcbe8(%rip),%rax        # 17038 <g_99>
    a450:	48 89 85 a8 f8 ff ff 	mov    %rax,-0x758(%rbp)
    a457:	48 8d 85 78 f0 ff ff 	lea    -0xf88(%rbp),%rax
    a45e:	48 83 c0 04          	add    $0x4,%rax
    a462:	48 89 85 b0 f8 ff ff 	mov    %rax,-0x750(%rbp)
    a469:	48 8d 85 60 f3 ff ff 	lea    -0xca0(%rbp),%rax
    a470:	48 83 c0 2c          	add    $0x2c,%rax
    a474:	48 89 85 b8 f8 ff ff 	mov    %rax,-0x748(%rbp)
    a47b:	48 8d 85 78 f0 ff ff 	lea    -0xf88(%rbp),%rax
    a482:	48 83 c0 04          	add    $0x4,%rax
    a486:	48 89 85 c0 f8 ff ff 	mov    %rax,-0x740(%rbp)
    a48d:	48 8d 85 c0 f0 ff ff 	lea    -0xf40(%rbp),%rax
    a494:	48 83 c0 18          	add    $0x18,%rax
    a498:	48 89 85 c8 f8 ff ff 	mov    %rax,-0x738(%rbp)
    a49f:	48 8d 05 82 cb 00 00 	lea    0xcb82(%rip),%rax        # 17028 <g_52>
    a4a6:	48 89 85 d0 f8 ff ff 	mov    %rax,-0x730(%rbp)
    a4ad:	48 8d 05 84 cb 00 00 	lea    0xcb84(%rip),%rax        # 17038 <g_99>
    a4b4:	48 89 85 d8 f8 ff ff 	mov    %rax,-0x728(%rbp)
    a4bb:	48 8d 85 78 f0 ff ff 	lea    -0xf88(%rbp),%rax
    a4c2:	48 83 c0 04          	add    $0x4,%rax
    a4c6:	48 89 85 e0 f8 ff ff 	mov    %rax,-0x720(%rbp)
    a4cd:	48 c7 85 e8 f8 ff ff 	movq   $0x0,-0x718(%rbp)
    a4d4:	00 00 00 00 
    a4d8:	48 8d 85 40 ee ff ff 	lea    -0x11c0(%rbp),%rax
    a4df:	48 89 85 f0 f8 ff ff 	mov    %rax,-0x710(%rbp)
    a4e6:	48 8d 85 40 ee ff ff 	lea    -0x11c0(%rbp),%rax
    a4ed:	48 89 85 f8 f8 ff ff 	mov    %rax,-0x708(%rbp)
    a4f4:	c7 85 50 ee ff ff 00 	movl   $0x0,-0x11b0(%rbp)
    a4fb:	00 00 00 
    a4fe:	eb 1a                	jmp    a51a <func_33+0xbc9>
    a500:	8b 85 50 ee ff ff    	mov    -0x11b0(%rbp),%eax
    a506:	48 98                	cltq   
    a508:	c7 84 85 78 f0 ff ff 	movl   $0x9a2010fa,-0xf88(%rbp,%rax,4)
    a50f:	fa 10 20 9a 
    a513:	83 85 50 ee ff ff 01 	addl   $0x1,-0x11b0(%rbp)
    a51a:	83 bd 50 ee ff ff 01 	cmpl   $0x1,-0x11b0(%rbp)
    a521:	7e dd                	jle    a500 <func_33+0xbaf>
    a523:	8b 85 40 ee ff ff    	mov    -0x11c0(%rbp),%eax
    a529:	48 63 d8             	movslq %eax,%rbx
    a52c:	8b 85 78 f0 ff ff    	mov    -0xf88(%rbp),%eax
    a532:	0f be d0             	movsbl %al,%edx
    a535:	48 8b 05 9c d5 00 00 	mov    0xd59c(%rip),%rax        # 17ad8 <g_189>
    a53c:	48 8b 00             	mov    (%rax),%rax
    a53f:	48 39 85 08 ef ff ff 	cmp    %rax,-0x10f8(%rbp)
    a546:	0f 94 c0             	sete   %al
    a549:	0f b6 c0             	movzbl %al,%eax
    a54c:	89 d6                	mov    %edx,%esi
    a54e:	89 c7                	mov    %eax,%edi
    a550:	e8 bd 7c ff ff       	callq  2212 <safe_mul_func_int8_t_s_s>
    a555:	48 8b 15 14 d7 00 00 	mov    0xd714(%rip),%rdx        # 17c70 <g_737>
    a55c:	48 8b 85 00 ef ff ff 	mov    -0x1100(%rbp),%rax
    a563:	48 89 10             	mov    %rdx,(%rax)
    a566:	8b 85 7c f0 ff ff    	mov    -0xf84(%rbp),%eax
    a56c:	85 c0                	test   %eax,%eax
    a56e:	74 28                	je     a598 <func_33+0xc47>
    a570:	48 8b 95 b8 ee ff ff 	mov    -0x1148(%rbp),%rdx
    a577:	48 8b 05 42 d5 00 00 	mov    0xd542(%rip),%rax        # 17ac0 <g_106>
    a57e:	88 10                	mov    %dl,(%rax)
    a580:	0f b6 00             	movzbl (%rax),%eax
    a583:	0f be d0             	movsbl %al,%edx
    a586:	8b 85 40 ee ff ff    	mov    -0x11c0(%rbp),%eax
    a58c:	39 c2                	cmp    %eax,%edx
    a58e:	74 08                	je     a598 <func_33+0xc47>
    a590:	41 bc 01 00 00 00    	mov    $0x1,%r12d
    a596:	eb 06                	jmp    a59e <func_33+0xc4d>
    a598:	41 bc 00 00 00 00    	mov    $0x0,%r12d
    a59e:	0f b6 05 e0 cc 00 00 	movzbl 0xcce0(%rip),%eax        # 17285 <g_550+0x5>
    a5a5:	48 8b 85 28 ef ff ff 	mov    -0x10d8(%rbp),%rax
    a5ac:	66 c7 00 00 00       	movw   $0x0,(%rax)
    a5b1:	48 8b 85 28 ef ff ff 	mov    -0x10d8(%rbp),%rax
    a5b8:	0f b7 00             	movzwl (%rax),%eax
    a5bb:	0f b7 c0             	movzwl %ax,%eax
    a5be:	be 83 1c 00 00       	mov    $0x1c83,%esi
    a5c3:	89 c7                	mov    %eax,%edi
    a5c5:	e8 c4 87 ff ff       	callq  2d8e <safe_div_func_uint16_t_u_u>
    a5ca:	66 85 c0             	test   %ax,%ax
    a5cd:	74 10                	je     a5df <func_33+0xc8e>
    a5cf:	80 bd 36 ee ff ff 00 	cmpb   $0x0,-0x11ca(%rbp)
    a5d6:	74 07                	je     a5df <func_33+0xc8e>
    a5d8:	b8 01 00 00 00       	mov    $0x1,%eax
    a5dd:	eb 05                	jmp    a5e4 <func_33+0xc93>
    a5df:	b8 00 00 00 00       	mov    $0x0,%eax
    a5e4:	44 31 e0             	xor    %r12d,%eax
    a5e7:	48 98                	cltq   
    a5e9:	48 89 de             	mov    %rbx,%rsi
    a5ec:	48 89 c7             	mov    %rax,%rdi
    a5ef:	e8 b4 82 ff ff       	callq  28a8 <safe_sub_func_int64_t_s_s>
    a5f4:	8b 85 7c f0 ff ff    	mov    -0xf84(%rbp),%eax
    a5fa:	0f be c0             	movsbl %al,%eax
    a5fd:	be 04 00 00 00       	mov    $0x4,%esi
    a602:	89 c7                	mov    %eax,%edi
    a604:	e8 63 7d ff ff       	callq  236c <safe_rshift_func_int8_t_s_u>
    a609:	0f be d0             	movsbl %al,%edx
    a60c:	48 8b 85 30 ef ff ff 	mov    -0x10d0(%rbp),%rax
    a613:	89 10                	mov    %edx,(%rax)
    a615:	48 8b 85 30 ef ff ff 	mov    -0x10d0(%rbp),%rax
    a61c:	8b 00                	mov    (%rax),%eax
    a61e:	85 c0                	test   %eax,%eax
    a620:	0f 84 d8 11 00 00    	je     b7fe <func_33+0x1ead>
    a626:	48 c7 85 d0 ee ff ff 	movq   $0x0,-0x1130(%rbp)
    a62d:	00 00 00 00 
    a631:	48 8d 85 d0 ee ff ff 	lea    -0x1130(%rbp),%rax
    a638:	48 89 85 30 f0 ff ff 	mov    %rax,-0xfd0(%rbp)
    a63f:	48 8d 05 7a ca 00 00 	lea    0xca7a(%rip),%rax        # 170c0 <g_299>
    a646:	48 89 85 38 f0 ff ff 	mov    %rax,-0xfc8(%rbp)
    a64d:	c7 85 88 ee ff ff 4e 	movl   $0x2363e54e,-0x1178(%rbp)
    a654:	e5 63 23 
    a657:	48 8d 05 6c ca 00 00 	lea    0xca6c(%rip),%rax        # 170ca <g_311>
    a65e:	48 89 85 40 f0 ff ff 	mov    %rax,-0xfc0(%rbp)
    a665:	48 8d 05 78 cc 00 00 	lea    0xcc78(%rip),%rax        # 172e4 <g_771+0x4>
    a66c:	48 89 85 48 f0 ff ff 	mov    %rax,-0xfb8(%rbp)
    a673:	48 8d 05 7e d4 00 00 	lea    0xd47e(%rip),%rax        # 17af8 <g_188+0x18>
    a67a:	48 89 85 50 f0 ff ff 	mov    %rax,-0xfb0(%rbp)
    a681:	48 8d 05 88 d4 00 00 	lea    0xd488(%rip),%rax        # 17b10 <g_188+0x30>
    a688:	48 89 85 58 f0 ff ff 	mov    %rax,-0xfa8(%rbp)
    a68f:	48 8d 05 62 d4 00 00 	lea    0xd462(%rip),%rax        # 17af8 <g_188+0x18>
    a696:	48 89 85 60 f0 ff ff 	mov    %rax,-0xfa0(%rbp)
    a69d:	48 8d 05 84 d4 00 00 	lea    0xd484(%rip),%rax        # 17b28 <g_188+0x48>
    a6a4:	48 89 85 00 f9 ff ff 	mov    %rax,-0x700(%rbp)
    a6ab:	48 8d 05 46 d4 00 00 	lea    0xd446(%rip),%rax        # 17af8 <g_188+0x18>
    a6b2:	48 89 85 08 f9 ff ff 	mov    %rax,-0x6f8(%rbp)
    a6b9:	48 8d 05 38 d4 00 00 	lea    0xd438(%rip),%rax        # 17af8 <g_188+0x18>
    a6c0:	48 89 85 10 f9 ff ff 	mov    %rax,-0x6f0(%rbp)
    a6c7:	48 8d 05 2a d4 00 00 	lea    0xd42a(%rip),%rax        # 17af8 <g_188+0x18>
    a6ce:	48 89 85 18 f9 ff ff 	mov    %rax,-0x6e8(%rbp)
    a6d5:	48 8d 05 44 d4 00 00 	lea    0xd444(%rip),%rax        # 17b20 <g_188+0x40>
    a6dc:	48 89 85 20 f9 ff ff 	mov    %rax,-0x6e0(%rbp)
    a6e3:	48 8d 85 c0 ee ff ff 	lea    -0x1140(%rbp),%rax
    a6ea:	48 89 85 28 f9 ff ff 	mov    %rax,-0x6d8(%rbp)
    a6f1:	48 8d 85 a8 ee ff ff 	lea    -0x1158(%rbp),%rax
    a6f8:	48 89 85 30 f9 ff ff 	mov    %rax,-0x6d0(%rbp)
    a6ff:	48 8d 05 1a d4 00 00 	lea    0xd41a(%rip),%rax        # 17b20 <g_188+0x40>
    a706:	48 89 85 38 f9 ff ff 	mov    %rax,-0x6c8(%rbp)
    a70d:	48 8d 05 0c d4 00 00 	lea    0xd40c(%rip),%rax        # 17b20 <g_188+0x40>
    a714:	48 89 85 40 f9 ff ff 	mov    %rax,-0x6c0(%rbp)
    a71b:	48 8d 05 ce d3 00 00 	lea    0xd3ce(%rip),%rax        # 17af0 <g_188+0x10>
    a722:	48 89 85 48 f9 ff ff 	mov    %rax,-0x6b8(%rbp)
    a729:	48 8d 85 c0 ee ff ff 	lea    -0x1140(%rbp),%rax
    a730:	48 89 85 50 f9 ff ff 	mov    %rax,-0x6b0(%rbp)
    a737:	48 8d 85 a8 ee ff ff 	lea    -0x1158(%rbp),%rax
    a73e:	48 89 85 58 f9 ff ff 	mov    %rax,-0x6a8(%rbp)
    a745:	48 8d 05 a4 d3 00 00 	lea    0xd3a4(%rip),%rax        # 17af0 <g_188+0x10>
    a74c:	48 89 85 60 f9 ff ff 	mov    %rax,-0x6a0(%rbp)
    a753:	48 8d 85 a8 ee ff ff 	lea    -0x1158(%rbp),%rax
    a75a:	48 89 85 68 f9 ff ff 	mov    %rax,-0x698(%rbp)
    a761:	48 8d 05 a0 d3 00 00 	lea    0xd3a0(%rip),%rax        # 17b08 <g_188+0x28>
    a768:	48 89 85 70 f9 ff ff 	mov    %rax,-0x690(%rbp)
    a76f:	48 c7 85 78 f9 ff ff 	movq   $0x0,-0x688(%rbp)
    a776:	00 00 00 00 
    a77a:	48 8d 85 c0 ee ff ff 	lea    -0x1140(%rbp),%rax
    a781:	48 89 85 80 f9 ff ff 	mov    %rax,-0x680(%rbp)
    a788:	48 c7 85 88 f9 ff ff 	movq   $0x0,-0x678(%rbp)
    a78f:	00 00 00 00 
    a793:	48 8d 05 5e d3 00 00 	lea    0xd35e(%rip),%rax        # 17af8 <g_188+0x18>
    a79a:	48 89 85 90 f9 ff ff 	mov    %rax,-0x670(%rbp)
    a7a1:	48 8d 05 78 d3 00 00 	lea    0xd378(%rip),%rax        # 17b20 <g_188+0x40>
    a7a8:	48 89 85 98 f9 ff ff 	mov    %rax,-0x668(%rbp)
    a7af:	48 c7 85 a0 f9 ff ff 	movq   $0x0,-0x660(%rbp)
    a7b6:	00 00 00 00 
    a7ba:	48 8d 05 37 d3 00 00 	lea    0xd337(%rip),%rax        # 17af8 <g_188+0x18>
    a7c1:	48 89 85 a8 f9 ff ff 	mov    %rax,-0x658(%rbp)
    a7c8:	48 8d 05 51 d3 00 00 	lea    0xd351(%rip),%rax        # 17b20 <g_188+0x40>
    a7cf:	48 89 85 b0 f9 ff ff 	mov    %rax,-0x650(%rbp)
    a7d6:	48 8d 05 43 d3 00 00 	lea    0xd343(%rip),%rax        # 17b20 <g_188+0x40>
    a7dd:	48 89 85 b8 f9 ff ff 	mov    %rax,-0x648(%rbp)
    a7e4:	48 8d 85 c0 ee ff ff 	lea    -0x1140(%rbp),%rax
    a7eb:	48 89 85 c0 f9 ff ff 	mov    %rax,-0x640(%rbp)
    a7f2:	48 8d 05 ff d2 00 00 	lea    0xd2ff(%rip),%rax        # 17af8 <g_188+0x18>
    a7f9:	48 89 85 c8 f9 ff ff 	mov    %rax,-0x638(%rbp)
    a800:	48 c7 85 d0 f9 ff ff 	movq   $0x0,-0x630(%rbp)
    a807:	00 00 00 00 
    a80b:	48 8d 85 a8 ee ff ff 	lea    -0x1158(%rbp),%rax
    a812:	48 89 85 d8 f9 ff ff 	mov    %rax,-0x628(%rbp)
    a819:	48 8d 05 00 d3 00 00 	lea    0xd300(%rip),%rax        # 17b20 <g_188+0x40>
    a820:	48 89 85 e0 f9 ff ff 	mov    %rax,-0x620(%rbp)
    a827:	48 c7 85 e8 f9 ff ff 	movq   $0x0,-0x618(%rbp)
    a82e:	00 00 00 00 
    a832:	48 c7 85 f0 f9 ff ff 	movq   $0x0,-0x610(%rbp)
    a839:	00 00 00 00 
    a83d:	48 8d 85 a8 ee ff ff 	lea    -0x1158(%rbp),%rax
    a844:	48 89 85 f8 f9 ff ff 	mov    %rax,-0x608(%rbp)
    a84b:	48 8d 05 c6 d2 00 00 	lea    0xd2c6(%rip),%rax        # 17b18 <g_188+0x38>
    a852:	48 89 85 00 fa ff ff 	mov    %rax,-0x600(%rbp)
    a859:	48 8d 85 a8 ee ff ff 	lea    -0x1158(%rbp),%rax
    a860:	48 89 85 08 fa ff ff 	mov    %rax,-0x5f8(%rbp)
    a867:	48 8d 85 a8 ee ff ff 	lea    -0x1158(%rbp),%rax
    a86e:	48 89 85 10 fa ff ff 	mov    %rax,-0x5f0(%rbp)
    a875:	48 8d 85 c0 ee ff ff 	lea    -0x1140(%rbp),%rax
    a87c:	48 89 85 18 fa ff ff 	mov    %rax,-0x5e8(%rbp)
    a883:	48 8d 85 c0 ee ff ff 	lea    -0x1140(%rbp),%rax
    a88a:	48 89 85 20 fa ff ff 	mov    %rax,-0x5e0(%rbp)
    a891:	48 8d 05 60 d2 00 00 	lea    0xd260(%rip),%rax        # 17af8 <g_188+0x18>
    a898:	48 89 85 28 fa ff ff 	mov    %rax,-0x5d8(%rbp)
    a89f:	48 8d 05 7a d2 00 00 	lea    0xd27a(%rip),%rax        # 17b20 <g_188+0x40>
    a8a6:	48 89 85 30 fa ff ff 	mov    %rax,-0x5d0(%rbp)
    a8ad:	48 8d 05 44 d2 00 00 	lea    0xd244(%rip),%rax        # 17af8 <g_188+0x18>
    a8b4:	48 89 85 38 fa ff ff 	mov    %rax,-0x5c8(%rbp)
    a8bb:	48 8d 05 46 d2 00 00 	lea    0xd246(%rip),%rax        # 17b08 <g_188+0x28>
    a8c2:	48 89 85 40 fa ff ff 	mov    %rax,-0x5c0(%rbp)
    a8c9:	48 c7 85 48 fa ff ff 	movq   $0x0,-0x5b8(%rbp)
    a8d0:	00 00 00 00 
    a8d4:	48 8d 05 1d d2 00 00 	lea    0xd21d(%rip),%rax        # 17af8 <g_188+0x18>
    a8db:	48 89 85 50 fa ff ff 	mov    %rax,-0x5b0(%rbp)
    a8e2:	48 8d 05 0f d2 00 00 	lea    0xd20f(%rip),%rax        # 17af8 <g_188+0x18>
    a8e9:	48 89 85 58 fa ff ff 	mov    %rax,-0x5a8(%rbp)
    a8f0:	48 8d 05 01 d2 00 00 	lea    0xd201(%rip),%rax        # 17af8 <g_188+0x18>
    a8f7:	48 89 85 60 fa ff ff 	mov    %rax,-0x5a0(%rbp)
    a8fe:	48 8d 85 a8 ee ff ff 	lea    -0x1158(%rbp),%rax
    a905:	48 89 85 68 fa ff ff 	mov    %rax,-0x598(%rbp)
    a90c:	48 c7 85 70 fa ff ff 	movq   $0x0,-0x590(%rbp)
    a913:	00 00 00 00 
    a917:	48 c7 85 78 fa ff ff 	movq   $0x0,-0x588(%rbp)
    a91e:	00 00 00 00 
    a922:	48 8d 05 c7 d1 00 00 	lea    0xd1c7(%rip),%rax        # 17af0 <g_188+0x10>
    a929:	48 89 85 80 fa ff ff 	mov    %rax,-0x580(%rbp)
    a930:	48 8d 05 c1 d1 00 00 	lea    0xd1c1(%rip),%rax        # 17af8 <g_188+0x18>
    a937:	48 89 85 88 fa ff ff 	mov    %rax,-0x578(%rbp)
    a93e:	48 8d 05 b3 d1 00 00 	lea    0xd1b3(%rip),%rax        # 17af8 <g_188+0x18>
    a945:	48 89 85 90 fa ff ff 	mov    %rax,-0x570(%rbp)
    a94c:	48 8d 85 c0 ee ff ff 	lea    -0x1140(%rbp),%rax
    a953:	48 89 85 98 fa ff ff 	mov    %rax,-0x568(%rbp)
    a95a:	48 8d 85 a8 ee ff ff 	lea    -0x1158(%rbp),%rax
    a961:	48 89 85 a0 fa ff ff 	mov    %rax,-0x560(%rbp)
    a968:	48 8d 85 a8 ee ff ff 	lea    -0x1158(%rbp),%rax
    a96f:	48 89 85 a8 fa ff ff 	mov    %rax,-0x558(%rbp)
    a976:	48 8d 05 9b d1 00 00 	lea    0xd19b(%rip),%rax        # 17b18 <g_188+0x38>
    a97d:	48 89 85 b0 fa ff ff 	mov    %rax,-0x550(%rbp)
    a984:	48 c7 85 b8 fa ff ff 	movq   $0x0,-0x548(%rbp)
    a98b:	00 00 00 00 
    a98f:	48 8d 05 5a d1 00 00 	lea    0xd15a(%rip),%rax        # 17af0 <g_188+0x10>
    a996:	48 89 85 c0 fa ff ff 	mov    %rax,-0x540(%rbp)
    a99d:	48 8d 85 a8 ee ff ff 	lea    -0x1158(%rbp),%rax
    a9a4:	48 89 85 c8 fa ff ff 	mov    %rax,-0x538(%rbp)
    a9ab:	48 8d 85 a8 ee ff ff 	lea    -0x1158(%rbp),%rax
    a9b2:	48 89 85 d0 fa ff ff 	mov    %rax,-0x530(%rbp)
    a9b9:	48 c7 85 d8 fa ff ff 	movq   $0x0,-0x528(%rbp)
    a9c0:	00 00 00 00 
    a9c4:	48 8d 85 a8 ee ff ff 	lea    -0x1158(%rbp),%rax
    a9cb:	48 89 85 e0 fa ff ff 	mov    %rax,-0x520(%rbp)
    a9d2:	48 8d 05 17 d1 00 00 	lea    0xd117(%rip),%rax        # 17af0 <g_188+0x10>
    a9d9:	48 89 85 e8 fa ff ff 	mov    %rax,-0x518(%rbp)
    a9e0:	48 8d 85 c0 ee ff ff 	lea    -0x1140(%rbp),%rax
    a9e7:	48 89 85 f0 fa ff ff 	mov    %rax,-0x510(%rbp)
    a9ee:	48 8d 05 2b d1 00 00 	lea    0xd12b(%rip),%rax        # 17b20 <g_188+0x40>
    a9f5:	48 89 85 f8 fa ff ff 	mov    %rax,-0x508(%rbp)
    a9fc:	48 8d 05 e5 d0 00 00 	lea    0xd0e5(%rip),%rax        # 17ae8 <g_188+0x8>
    aa03:	48 89 85 00 fb ff ff 	mov    %rax,-0x500(%rbp)
    aa0a:	48 8d 85 c0 ee ff ff 	lea    -0x1140(%rbp),%rax
    aa11:	48 89 85 08 fb ff ff 	mov    %rax,-0x4f8(%rbp)
    aa18:	48 8d 05 d9 d0 00 00 	lea    0xd0d9(%rip),%rax        # 17af8 <g_188+0x18>
    aa1f:	48 89 85 10 fb ff ff 	mov    %rax,-0x4f0(%rbp)
    aa26:	48 8d 05 c3 d0 00 00 	lea    0xd0c3(%rip),%rax        # 17af0 <g_188+0x10>
    aa2d:	48 89 85 18 fb ff ff 	mov    %rax,-0x4e8(%rbp)
    aa34:	48 8d 05 bd d0 00 00 	lea    0xd0bd(%rip),%rax        # 17af8 <g_188+0x18>
    aa3b:	48 89 85 20 fb ff ff 	mov    %rax,-0x4e0(%rbp)
    aa42:	48 8d 05 9f d0 00 00 	lea    0xd09f(%rip),%rax        # 17ae8 <g_188+0x8>
    aa49:	48 89 85 28 fb ff ff 	mov    %rax,-0x4d8(%rbp)
    aa50:	48 8d 85 a8 ee ff ff 	lea    -0x1158(%rbp),%rax
    aa57:	48 89 85 30 fb ff ff 	mov    %rax,-0x4d0(%rbp)
    aa5e:	48 c7 85 38 fb ff ff 	movq   $0x0,-0x4c8(%rbp)
    aa65:	00 00 00 00 
    aa69:	48 8d 05 88 d0 00 00 	lea    0xd088(%rip),%rax        # 17af8 <g_188+0x18>
    aa70:	48 89 85 40 fb ff ff 	mov    %rax,-0x4c0(%rbp)
    aa77:	48 c7 85 48 fb ff ff 	movq   $0x0,-0x4b8(%rbp)
    aa7e:	00 00 00 00 
    aa82:	48 8d 05 6f d0 00 00 	lea    0xd06f(%rip),%rax        # 17af8 <g_188+0x18>
    aa89:	48 89 85 50 fb ff ff 	mov    %rax,-0x4b0(%rbp)
    aa90:	48 8d 85 c0 ee ff ff 	lea    -0x1140(%rbp),%rax
    aa97:	48 89 85 58 fb ff ff 	mov    %rax,-0x4a8(%rbp)
    aa9e:	48 8d 85 a8 ee ff ff 	lea    -0x1158(%rbp),%rax
    aaa5:	48 89 85 60 fb ff ff 	mov    %rax,-0x4a0(%rbp)
    aaac:	48 c7 85 68 fb ff ff 	movq   $0x0,-0x498(%rbp)
    aab3:	00 00 00 00 
    aab7:	48 c7 85 70 fb ff ff 	movq   $0x0,-0x490(%rbp)
    aabe:	00 00 00 00 
    aac2:	48 8d 05 2f d0 00 00 	lea    0xd02f(%rip),%rax        # 17af8 <g_188+0x18>
    aac9:	48 89 85 78 fb ff ff 	mov    %rax,-0x488(%rbp)
    aad0:	48 8d 05 31 d0 00 00 	lea    0xd031(%rip),%rax        # 17b08 <g_188+0x28>
    aad7:	48 89 85 80 fb ff ff 	mov    %rax,-0x480(%rbp)
    aade:	48 8d 85 c0 ee ff ff 	lea    -0x1140(%rbp),%rax
    aae5:	48 89 85 88 fb ff ff 	mov    %rax,-0x478(%rbp)
    aaec:	48 c7 85 90 fb ff ff 	movq   $0x0,-0x470(%rbp)
    aaf3:	00 00 00 00 
    aaf7:	48 c7 85 98 fb ff ff 	movq   $0x0,-0x468(%rbp)
    aafe:	00 00 00 00 
    ab02:	48 c7 85 a0 fb ff ff 	movq   $0x0,-0x460(%rbp)
    ab09:	00 00 00 00 
    ab0d:	48 8d 05 e4 cf 00 00 	lea    0xcfe4(%rip),%rax        # 17af8 <g_188+0x18>
    ab14:	48 89 85 a8 fb ff ff 	mov    %rax,-0x458(%rbp)
    ab1b:	48 8d 05 d6 cf 00 00 	lea    0xcfd6(%rip),%rax        # 17af8 <g_188+0x18>
    ab22:	48 89 85 b0 fb ff ff 	mov    %rax,-0x450(%rbp)
    ab29:	48 8d 85 c0 ee ff ff 	lea    -0x1140(%rbp),%rax
    ab30:	48 89 85 b8 fb ff ff 	mov    %rax,-0x448(%rbp)
    ab37:	48 8d 05 ba cf 00 00 	lea    0xcfba(%rip),%rax        # 17af8 <g_188+0x18>
    ab3e:	48 89 85 c0 fb ff ff 	mov    %rax,-0x440(%rbp)
    ab45:	48 8d 85 a8 ee ff ff 	lea    -0x1158(%rbp),%rax
    ab4c:	48 89 85 c8 fb ff ff 	mov    %rax,-0x438(%rbp)
    ab53:	48 8d 05 9e cf 00 00 	lea    0xcf9e(%rip),%rax        # 17af8 <g_188+0x18>
    ab5a:	48 89 85 d0 fb ff ff 	mov    %rax,-0x430(%rbp)
    ab61:	48 8d 05 90 cf 00 00 	lea    0xcf90(%rip),%rax        # 17af8 <g_188+0x18>
    ab68:	48 89 85 d8 fb ff ff 	mov    %rax,-0x428(%rbp)
    ab6f:	48 8d 05 82 cf 00 00 	lea    0xcf82(%rip),%rax        # 17af8 <g_188+0x18>
    ab76:	48 89 85 e0 fb ff ff 	mov    %rax,-0x420(%rbp)
    ab7d:	48 8d 05 64 cf 00 00 	lea    0xcf64(%rip),%rax        # 17ae8 <g_188+0x8>
    ab84:	48 89 85 e8 fb ff ff 	mov    %rax,-0x418(%rbp)
    ab8b:	48 8d 85 a8 ee ff ff 	lea    -0x1158(%rbp),%rax
    ab92:	48 89 85 f0 fb ff ff 	mov    %rax,-0x410(%rbp)
    ab99:	48 8d 05 58 cf 00 00 	lea    0xcf58(%rip),%rax        # 17af8 <g_188+0x18>
    aba0:	48 89 85 f8 fb ff ff 	mov    %rax,-0x408(%rbp)
    aba7:	48 8d 05 4a cf 00 00 	lea    0xcf4a(%rip),%rax        # 17af8 <g_188+0x18>
    abae:	48 89 85 00 fc ff ff 	mov    %rax,-0x400(%rbp)
    abb5:	48 c7 85 08 fc ff ff 	movq   $0x0,-0x3f8(%rbp)
    abbc:	00 00 00 00 
    abc0:	48 8d 05 21 cf 00 00 	lea    0xcf21(%rip),%rax        # 17ae8 <g_188+0x8>
    abc7:	48 89 85 10 fc ff ff 	mov    %rax,-0x3f0(%rbp)
    abce:	48 8d 05 4b cf 00 00 	lea    0xcf4b(%rip),%rax        # 17b20 <g_188+0x40>
    abd5:	48 89 85 18 fc ff ff 	mov    %rax,-0x3e8(%rbp)
    abdc:	48 c7 85 20 fc ff ff 	movq   $0x0,-0x3e0(%rbp)
    abe3:	00 00 00 00 
    abe7:	48 8d 05 0a cf 00 00 	lea    0xcf0a(%rip),%rax        # 17af8 <g_188+0x18>
    abee:	48 89 85 28 fc ff ff 	mov    %rax,-0x3d8(%rbp)
    abf5:	48 8d 85 a8 ee ff ff 	lea    -0x1158(%rbp),%rax
    abfc:	48 89 85 30 fc ff ff 	mov    %rax,-0x3d0(%rbp)
    ac03:	48 8d 05 ee ce 00 00 	lea    0xceee(%rip),%rax        # 17af8 <g_188+0x18>
    ac0a:	48 89 85 38 fc ff ff 	mov    %rax,-0x3c8(%rbp)
    ac11:	48 8d 05 e0 ce 00 00 	lea    0xcee0(%rip),%rax        # 17af8 <g_188+0x18>
    ac18:	48 89 85 40 fc ff ff 	mov    %rax,-0x3c0(%rbp)
    ac1f:	48 8d 85 a8 ee ff ff 	lea    -0x1158(%rbp),%rax
    ac26:	48 89 85 48 fc ff ff 	mov    %rax,-0x3b8(%rbp)
    ac2d:	48 8d 85 c0 ee ff ff 	lea    -0x1140(%rbp),%rax
    ac34:	48 89 85 50 fc ff ff 	mov    %rax,-0x3b0(%rbp)
    ac3b:	48 8d 85 a8 ee ff ff 	lea    -0x1158(%rbp),%rax
    ac42:	48 89 85 58 fc ff ff 	mov    %rax,-0x3a8(%rbp)
    ac49:	48 8d 05 c8 ce 00 00 	lea    0xcec8(%rip),%rax        # 17b18 <g_188+0x38>
    ac50:	48 89 85 60 fc ff ff 	mov    %rax,-0x3a0(%rbp)
    ac57:	48 8d 05 92 ce 00 00 	lea    0xce92(%rip),%rax        # 17af0 <g_188+0x10>
    ac5e:	48 89 85 68 fc ff ff 	mov    %rax,-0x398(%rbp)
    ac65:	48 8d 05 8c ce 00 00 	lea    0xce8c(%rip),%rax        # 17af8 <g_188+0x18>
    ac6c:	48 89 85 70 fc ff ff 	mov    %rax,-0x390(%rbp)
    ac73:	48 8d 85 c0 ee ff ff 	lea    -0x1140(%rbp),%rax
    ac7a:	48 89 85 78 fc ff ff 	mov    %rax,-0x388(%rbp)
    ac81:	48 8d 85 a8 ee ff ff 	lea    -0x1158(%rbp),%rax
    ac88:	48 89 85 80 fc ff ff 	mov    %rax,-0x380(%rbp)
    ac8f:	48 c7 85 88 fc ff ff 	movq   $0x0,-0x378(%rbp)
    ac96:	00 00 00 00 
    ac9a:	48 8d 05 4f ce 00 00 	lea    0xce4f(%rip),%rax        # 17af0 <g_188+0x10>
    aca1:	48 89 85 90 fc ff ff 	mov    %rax,-0x370(%rbp)
    aca8:	48 8d 85 a8 ee ff ff 	lea    -0x1158(%rbp),%rax
    acaf:	48 89 85 98 fc ff ff 	mov    %rax,-0x368(%rbp)
    acb6:	48 8d 05 4b ce 00 00 	lea    0xce4b(%rip),%rax        # 17b08 <g_188+0x28>
    acbd:	48 89 85 a0 fc ff ff 	mov    %rax,-0x360(%rbp)
    acc4:	48 8d 85 a8 ee ff ff 	lea    -0x1158(%rbp),%rax
    accb:	48 89 85 a8 fc ff ff 	mov    %rax,-0x358(%rbp)
    acd2:	48 8d 85 a8 ee ff ff 	lea    -0x1158(%rbp),%rax
    acd9:	48 89 85 b0 fc ff ff 	mov    %rax,-0x350(%rbp)
    ace0:	48 c7 85 b8 fc ff ff 	movq   $0x0,-0x348(%rbp)
    ace7:	00 00 00 00 
    aceb:	48 c7 85 c0 fc ff ff 	movq   $0x0,-0x340(%rbp)
    acf2:	00 00 00 00 
    acf6:	48 8d 05 f3 cd 00 00 	lea    0xcdf3(%rip),%rax        # 17af0 <g_188+0x10>
    acfd:	48 89 85 c8 fc ff ff 	mov    %rax,-0x338(%rbp)
    ad04:	48 8d 05 ed cd 00 00 	lea    0xcded(%rip),%rax        # 17af8 <g_188+0x18>
    ad0b:	48 89 85 d0 fc ff ff 	mov    %rax,-0x330(%rbp)
    ad12:	48 c7 85 d8 fc ff ff 	movq   $0x0,-0x328(%rbp)
    ad19:	00 00 00 00 
    ad1d:	48 8d 85 c0 ee ff ff 	lea    -0x1140(%rbp),%rax
    ad24:	48 89 85 e0 fc ff ff 	mov    %rax,-0x320(%rbp)
    ad2b:	48 c7 85 e8 fc ff ff 	movq   $0x0,-0x318(%rbp)
    ad32:	00 00 00 00 
    ad36:	48 8d 05 e3 cd 00 00 	lea    0xcde3(%rip),%rax        # 17b20 <g_188+0x40>
    ad3d:	48 89 85 f0 fc ff ff 	mov    %rax,-0x310(%rbp)
    ad44:	48 8d 05 ad cd 00 00 	lea    0xcdad(%rip),%rax        # 17af8 <g_188+0x18>
    ad4b:	48 89 85 f8 fc ff ff 	mov    %rax,-0x308(%rbp)
    ad52:	48 8d 05 9f cd 00 00 	lea    0xcd9f(%rip),%rax        # 17af8 <g_188+0x18>
    ad59:	48 89 85 00 fd ff ff 	mov    %rax,-0x300(%rbp)
    ad60:	48 8d 05 b9 cd 00 00 	lea    0xcdb9(%rip),%rax        # 17b20 <g_188+0x40>
    ad67:	48 89 85 08 fd ff ff 	mov    %rax,-0x2f8(%rbp)
    ad6e:	48 c7 85 10 fd ff ff 	movq   $0x0,-0x2f0(%rbp)
    ad75:	00 00 00 00 
    ad79:	48 8d 85 c0 ee ff ff 	lea    -0x1140(%rbp),%rax
    ad80:	48 89 85 18 fd ff ff 	mov    %rax,-0x2e8(%rbp)
    ad87:	48 8d 05 8a cd 00 00 	lea    0xcd8a(%rip),%rax        # 17b18 <g_188+0x38>
    ad8e:	48 89 85 20 fd ff ff 	mov    %rax,-0x2e0(%rbp)
    ad95:	48 c7 85 28 fd ff ff 	movq   $0x0,-0x2d8(%rbp)
    ad9c:	00 00 00 00 
    ada0:	48 8d 85 c0 ee ff ff 	lea    -0x1140(%rbp),%rax
    ada7:	48 89 85 30 fd ff ff 	mov    %rax,-0x2d0(%rbp)
    adae:	48 8d 05 6b cd 00 00 	lea    0xcd6b(%rip),%rax        # 17b20 <g_188+0x40>
    adb5:	48 89 85 38 fd ff ff 	mov    %rax,-0x2c8(%rbp)
    adbc:	48 8d 85 a8 ee ff ff 	lea    -0x1158(%rbp),%rax
    adc3:	48 89 85 40 fd ff ff 	mov    %rax,-0x2c0(%rbp)
    adca:	48 c7 85 48 fd ff ff 	movq   $0x0,-0x2b8(%rbp)
    add1:	00 00 00 00 
    add5:	48 8d 05 44 cd 00 00 	lea    0xcd44(%rip),%rax        # 17b20 <g_188+0x40>
    addc:	48 89 85 50 fd ff ff 	mov    %rax,-0x2b0(%rbp)
    ade3:	48 8d 05 0e cd 00 00 	lea    0xcd0e(%rip),%rax        # 17af8 <g_188+0x18>
    adea:	48 89 85 58 fd ff ff 	mov    %rax,-0x2a8(%rbp)
    adf1:	48 8d 05 f8 cc 00 00 	lea    0xccf8(%rip),%rax        # 17af0 <g_188+0x10>
    adf8:	48 89 85 60 fd ff ff 	mov    %rax,-0x2a0(%rbp)
    adff:	48 c7 85 68 fd ff ff 	movq   $0x0,-0x298(%rbp)
    ae06:	00 00 00 00 
    ae0a:	48 8d 05 e7 cc 00 00 	lea    0xcce7(%rip),%rax        # 17af8 <g_188+0x18>
    ae11:	48 89 85 70 fd ff ff 	mov    %rax,-0x290(%rbp)
    ae18:	48 8d 85 a8 ee ff ff 	lea    -0x1158(%rbp),%rax
    ae1f:	48 89 85 78 fd ff ff 	mov    %rax,-0x288(%rbp)
    ae26:	48 c7 85 80 fd ff ff 	movq   $0x0,-0x280(%rbp)
    ae2d:	00 00 00 00 
    ae31:	48 8d 05 c0 cc 00 00 	lea    0xccc0(%rip),%rax        # 17af8 <g_188+0x18>
    ae38:	48 89 85 88 fd ff ff 	mov    %rax,-0x278(%rbp)
    ae3f:	48 8d 05 b2 cc 00 00 	lea    0xccb2(%rip),%rax        # 17af8 <g_188+0x18>
    ae46:	48 89 85 90 fd ff ff 	mov    %rax,-0x270(%rbp)
    ae4d:	48 8d 85 a8 ee ff ff 	lea    -0x1158(%rbp),%rax
    ae54:	48 89 85 98 fd ff ff 	mov    %rax,-0x268(%rbp)
    ae5b:	48 c7 85 a0 fd ff ff 	movq   $0x0,-0x260(%rbp)
    ae62:	00 00 00 00 
    ae66:	48 c7 85 a8 fd ff ff 	movq   $0x0,-0x258(%rbp)
    ae6d:	00 00 00 00 
    ae71:	48 8d 05 78 cc 00 00 	lea    0xcc78(%rip),%rax        # 17af0 <g_188+0x10>
    ae78:	48 89 85 b0 fd ff ff 	mov    %rax,-0x250(%rbp)
    ae7f:	48 8d 05 72 cc 00 00 	lea    0xcc72(%rip),%rax        # 17af8 <g_188+0x18>
    ae86:	48 89 85 b8 fd ff ff 	mov    %rax,-0x248(%rbp)
    ae8d:	48 8d 05 64 cc 00 00 	lea    0xcc64(%rip),%rax        # 17af8 <g_188+0x18>
    ae94:	48 89 85 c0 fd ff ff 	mov    %rax,-0x240(%rbp)
    ae9b:	48 8d 85 c0 ee ff ff 	lea    -0x1140(%rbp),%rax
    aea2:	48 89 85 c8 fd ff ff 	mov    %rax,-0x238(%rbp)
    aea9:	48 8d 85 a8 ee ff ff 	lea    -0x1158(%rbp),%rax
    aeb0:	48 89 85 d0 fd ff ff 	mov    %rax,-0x230(%rbp)
    aeb7:	48 8d 85 a8 ee ff ff 	lea    -0x1158(%rbp),%rax
    aebe:	48 89 85 d8 fd ff ff 	mov    %rax,-0x228(%rbp)
    aec5:	48 8d 05 4c cc 00 00 	lea    0xcc4c(%rip),%rax        # 17b18 <g_188+0x38>
    aecc:	48 89 85 e0 fd ff ff 	mov    %rax,-0x220(%rbp)
    aed3:	48 c7 85 e8 fd ff ff 	movq   $0x0,-0x218(%rbp)
    aeda:	00 00 00 00 
    aede:	48 8d 05 0b cc 00 00 	lea    0xcc0b(%rip),%rax        # 17af0 <g_188+0x10>
    aee5:	48 89 85 f0 fd ff ff 	mov    %rax,-0x210(%rbp)
    aeec:	48 8d 85 a8 ee ff ff 	lea    -0x1158(%rbp),%rax
    aef3:	48 89 85 f8 fd ff ff 	mov    %rax,-0x208(%rbp)
    aefa:	48 8d 85 a8 ee ff ff 	lea    -0x1158(%rbp),%rax
    af01:	48 89 85 00 fe ff ff 	mov    %rax,-0x200(%rbp)
    af08:	48 c7 85 08 fe ff ff 	movq   $0x0,-0x1f8(%rbp)
    af0f:	00 00 00 00 
    af13:	48 8d 85 a8 ee ff ff 	lea    -0x1158(%rbp),%rax
    af1a:	48 89 85 10 fe ff ff 	mov    %rax,-0x1f0(%rbp)
    af21:	48 8d 05 c8 cb 00 00 	lea    0xcbc8(%rip),%rax        # 17af0 <g_188+0x10>
    af28:	48 89 85 18 fe ff ff 	mov    %rax,-0x1e8(%rbp)
    af2f:	48 8d 85 c0 ee ff ff 	lea    -0x1140(%rbp),%rax
    af36:	48 89 85 20 fe ff ff 	mov    %rax,-0x1e0(%rbp)
    af3d:	48 8d 05 dc cb 00 00 	lea    0xcbdc(%rip),%rax        # 17b20 <g_188+0x40>
    af44:	48 89 85 28 fe ff ff 	mov    %rax,-0x1d8(%rbp)
    af4b:	48 8d 05 96 cb 00 00 	lea    0xcb96(%rip),%rax        # 17ae8 <g_188+0x8>
    af52:	48 89 85 30 fe ff ff 	mov    %rax,-0x1d0(%rbp)
    af59:	48 8d 85 c0 ee ff ff 	lea    -0x1140(%rbp),%rax
    af60:	48 89 85 38 fe ff ff 	mov    %rax,-0x1c8(%rbp)
    af67:	48 8d 05 8a cb 00 00 	lea    0xcb8a(%rip),%rax        # 17af8 <g_188+0x18>
    af6e:	48 89 85 40 fe ff ff 	mov    %rax,-0x1c0(%rbp)
    af75:	48 8d 05 74 cb 00 00 	lea    0xcb74(%rip),%rax        # 17af0 <g_188+0x10>
    af7c:	48 89 85 48 fe ff ff 	mov    %rax,-0x1b8(%rbp)
    af83:	48 8d 05 6e cb 00 00 	lea    0xcb6e(%rip),%rax        # 17af8 <g_188+0x18>
    af8a:	48 89 85 50 fe ff ff 	mov    %rax,-0x1b0(%rbp)
    af91:	48 8d 05 50 cb 00 00 	lea    0xcb50(%rip),%rax        # 17ae8 <g_188+0x8>
    af98:	48 89 85 58 fe ff ff 	mov    %rax,-0x1a8(%rbp)
    af9f:	48 8d 85 a8 ee ff ff 	lea    -0x1158(%rbp),%rax
    afa6:	48 89 85 60 fe ff ff 	mov    %rax,-0x1a0(%rbp)
    afad:	48 c7 85 68 fe ff ff 	movq   $0x0,-0x198(%rbp)
    afb4:	00 00 00 00 
    afb8:	48 8d 05 39 cb 00 00 	lea    0xcb39(%rip),%rax        # 17af8 <g_188+0x18>
    afbf:	48 89 85 70 fe ff ff 	mov    %rax,-0x190(%rbp)
    afc6:	48 c7 85 78 fe ff ff 	movq   $0x0,-0x188(%rbp)
    afcd:	00 00 00 00 
    afd1:	48 8d 05 20 cb 00 00 	lea    0xcb20(%rip),%rax        # 17af8 <g_188+0x18>
    afd8:	48 89 85 80 fe ff ff 	mov    %rax,-0x180(%rbp)
    afdf:	48 8d 85 c0 ee ff ff 	lea    -0x1140(%rbp),%rax
    afe6:	48 89 85 88 fe ff ff 	mov    %rax,-0x178(%rbp)
    afed:	48 8d 85 a8 ee ff ff 	lea    -0x1158(%rbp),%rax
    aff4:	48 89 85 90 fe ff ff 	mov    %rax,-0x170(%rbp)
    affb:	48 c7 85 98 fe ff ff 	movq   $0x0,-0x168(%rbp)
    b002:	00 00 00 00 
    b006:	48 c7 85 a0 fe ff ff 	movq   $0x0,-0x160(%rbp)
    b00d:	00 00 00 00 
    b011:	48 8d 05 e0 ca 00 00 	lea    0xcae0(%rip),%rax        # 17af8 <g_188+0x18>
    b018:	48 89 85 a8 fe ff ff 	mov    %rax,-0x158(%rbp)
    b01f:	48 8d 05 e2 ca 00 00 	lea    0xcae2(%rip),%rax        # 17b08 <g_188+0x28>
    b026:	48 89 85 b0 fe ff ff 	mov    %rax,-0x150(%rbp)
    b02d:	48 8d 85 c0 ee ff ff 	lea    -0x1140(%rbp),%rax
    b034:	48 89 85 b8 fe ff ff 	mov    %rax,-0x148(%rbp)
    b03b:	48 c7 85 c0 fe ff ff 	movq   $0x0,-0x140(%rbp)
    b042:	00 00 00 00 
    b046:	48 c7 85 c8 fe ff ff 	movq   $0x0,-0x138(%rbp)
    b04d:	00 00 00 00 
    b051:	48 c7 85 d0 fe ff ff 	movq   $0x0,-0x130(%rbp)
    b058:	00 00 00 00 
    b05c:	48 8d 05 95 ca 00 00 	lea    0xca95(%rip),%rax        # 17af8 <g_188+0x18>
    b063:	48 89 85 d8 fe ff ff 	mov    %rax,-0x128(%rbp)
    b06a:	48 8d 05 87 ca 00 00 	lea    0xca87(%rip),%rax        # 17af8 <g_188+0x18>
    b071:	48 89 85 e0 fe ff ff 	mov    %rax,-0x120(%rbp)
    b078:	48 8d 85 c0 ee ff ff 	lea    -0x1140(%rbp),%rax
    b07f:	48 89 85 e8 fe ff ff 	mov    %rax,-0x118(%rbp)
    b086:	48 8d 05 6b ca 00 00 	lea    0xca6b(%rip),%rax        # 17af8 <g_188+0x18>
    b08d:	48 89 85 f0 fe ff ff 	mov    %rax,-0x110(%rbp)
    b094:	48 8d 85 a8 ee ff ff 	lea    -0x1158(%rbp),%rax
    b09b:	48 89 85 f8 fe ff ff 	mov    %rax,-0x108(%rbp)
    b0a2:	48 8d 05 4f ca 00 00 	lea    0xca4f(%rip),%rax        # 17af8 <g_188+0x18>
    b0a9:	48 89 85 00 ff ff ff 	mov    %rax,-0x100(%rbp)
    b0b0:	48 8d 05 41 ca 00 00 	lea    0xca41(%rip),%rax        # 17af8 <g_188+0x18>
    b0b7:	48 89 85 08 ff ff ff 	mov    %rax,-0xf8(%rbp)
    b0be:	48 8d 05 33 ca 00 00 	lea    0xca33(%rip),%rax        # 17af8 <g_188+0x18>
    b0c5:	48 89 85 10 ff ff ff 	mov    %rax,-0xf0(%rbp)
    b0cc:	48 8d 05 15 ca 00 00 	lea    0xca15(%rip),%rax        # 17ae8 <g_188+0x8>
    b0d3:	48 89 85 18 ff ff ff 	mov    %rax,-0xe8(%rbp)
    b0da:	48 8d 85 a8 ee ff ff 	lea    -0x1158(%rbp),%rax
    b0e1:	48 89 85 20 ff ff ff 	mov    %rax,-0xe0(%rbp)
    b0e8:	48 8d 05 09 ca 00 00 	lea    0xca09(%rip),%rax        # 17af8 <g_188+0x18>
    b0ef:	48 89 85 28 ff ff ff 	mov    %rax,-0xd8(%rbp)
    b0f6:	48 8d 05 fb c9 00 00 	lea    0xc9fb(%rip),%rax        # 17af8 <g_188+0x18>
    b0fd:	48 89 85 30 ff ff ff 	mov    %rax,-0xd0(%rbp)
    b104:	48 c7 85 38 ff ff ff 	movq   $0x0,-0xc8(%rbp)
    b10b:	00 00 00 00 
    b10f:	48 8d 05 d2 c9 00 00 	lea    0xc9d2(%rip),%rax        # 17ae8 <g_188+0x8>
    b116:	48 89 85 40 ff ff ff 	mov    %rax,-0xc0(%rbp)
    b11d:	48 8d 05 fc c9 00 00 	lea    0xc9fc(%rip),%rax        # 17b20 <g_188+0x40>
    b124:	48 89 85 48 ff ff ff 	mov    %rax,-0xb8(%rbp)
    b12b:	48 c7 85 50 ff ff ff 	movq   $0x0,-0xb0(%rbp)
    b132:	00 00 00 00 
    b136:	48 8d 05 bb c9 00 00 	lea    0xc9bb(%rip),%rax        # 17af8 <g_188+0x18>
    b13d:	48 89 85 58 ff ff ff 	mov    %rax,-0xa8(%rbp)
    b144:	48 8d 85 a8 ee ff ff 	lea    -0x1158(%rbp),%rax
    b14b:	48 89 85 60 ff ff ff 	mov    %rax,-0xa0(%rbp)
    b152:	48 8d 05 9f c9 00 00 	lea    0xc99f(%rip),%rax        # 17af8 <g_188+0x18>
    b159:	48 89 85 68 ff ff ff 	mov    %rax,-0x98(%rbp)
    b160:	48 8d 05 91 c9 00 00 	lea    0xc991(%rip),%rax        # 17af8 <g_188+0x18>
    b167:	48 89 85 70 ff ff ff 	mov    %rax,-0x90(%rbp)
    b16e:	48 8d 85 a8 ee ff ff 	lea    -0x1158(%rbp),%rax
    b175:	48 89 85 78 ff ff ff 	mov    %rax,-0x88(%rbp)
    b17c:	48 8d 85 c0 ee ff ff 	lea    -0x1140(%rbp),%rax
    b183:	48 89 45 80          	mov    %rax,-0x80(%rbp)
    b187:	48 8d 85 a8 ee ff ff 	lea    -0x1158(%rbp),%rax
    b18e:	48 89 45 88          	mov    %rax,-0x78(%rbp)
    b192:	48 8d 05 7f c9 00 00 	lea    0xc97f(%rip),%rax        # 17b18 <g_188+0x38>
    b199:	48 89 45 90          	mov    %rax,-0x70(%rbp)
    b19d:	48 8d 05 4c c9 00 00 	lea    0xc94c(%rip),%rax        # 17af0 <g_188+0x10>
    b1a4:	48 89 45 98          	mov    %rax,-0x68(%rbp)
    b1a8:	48 8d 05 49 c9 00 00 	lea    0xc949(%rip),%rax        # 17af8 <g_188+0x18>
    b1af:	48 89 45 a0          	mov    %rax,-0x60(%rbp)
    b1b3:	48 8d 85 c0 ee ff ff 	lea    -0x1140(%rbp),%rax
    b1ba:	48 89 45 a8          	mov    %rax,-0x58(%rbp)
    b1be:	48 8d 85 a8 ee ff ff 	lea    -0x1158(%rbp),%rax
    b1c5:	48 89 45 b0          	mov    %rax,-0x50(%rbp)
    b1c9:	48 c7 45 b8 00 00 00 	movq   $0x0,-0x48(%rbp)
    b1d0:	00 
    b1d1:	48 c7 85 68 f0 ff ff 	movq   $0x0,-0xf98(%rbp)
    b1d8:	00 00 00 00 
    b1dc:	48 8d 05 a5 c0 00 00 	lea    0xc0a5(%rip),%rax        # 17288 <g_572>
    b1e3:	48 89 85 80 f4 ff ff 	mov    %rax,-0xb80(%rbp)
    b1ea:	48 8d 05 97 c0 00 00 	lea    0xc097(%rip),%rax        # 17288 <g_572>
    b1f1:	48 89 85 88 f4 ff ff 	mov    %rax,-0xb78(%rbp)
    b1f8:	48 8d 85 b8 ee ff ff 	lea    -0x1148(%rbp),%rax
    b1ff:	48 89 85 90 f4 ff ff 	mov    %rax,-0xb70(%rbp)
    b206:	48 8d 85 b8 ee ff ff 	lea    -0x1148(%rbp),%rax
    b20d:	48 89 85 98 f4 ff ff 	mov    %rax,-0xb68(%rbp)
    b214:	48 8d 05 55 bf 00 00 	lea    0xbf55(%rip),%rax        # 17170 <g_484>
    b21b:	48 89 85 a0 f4 ff ff 	mov    %rax,-0xb60(%rbp)
    b222:	48 8d 05 47 bf 00 00 	lea    0xbf47(%rip),%rax        # 17170 <g_484>
    b229:	48 89 85 a8 f4 ff ff 	mov    %rax,-0xb58(%rbp)
    b230:	48 8d 85 b8 ee ff ff 	lea    -0x1148(%rbp),%rax
    b237:	48 89 85 b0 f4 ff ff 	mov    %rax,-0xb50(%rbp)
    b23e:	48 8d 85 b8 ee ff ff 	lea    -0x1148(%rbp),%rax
    b245:	48 89 85 b8 f4 ff ff 	mov    %rax,-0xb48(%rbp)
    b24c:	48 8d 05 35 c0 00 00 	lea    0xc035(%rip),%rax        # 17288 <g_572>
    b253:	48 89 85 c0 f4 ff ff 	mov    %rax,-0xb40(%rbp)
    b25a:	48 8d 05 0f bf 00 00 	lea    0xbf0f(%rip),%rax        # 17170 <g_484>
    b261:	48 89 85 c8 f4 ff ff 	mov    %rax,-0xb38(%rbp)
    b268:	48 8d 85 b8 ee ff ff 	lea    -0x1148(%rbp),%rax
    b26f:	48 89 85 d0 f4 ff ff 	mov    %rax,-0xb30(%rbp)
    b276:	48 8d 05 b3 bd 00 00 	lea    0xbdb3(%rip),%rax        # 17030 <g_67>
    b27d:	48 89 85 d8 f4 ff ff 	mov    %rax,-0xb28(%rbp)
    b284:	48 8d 05 a5 bd 00 00 	lea    0xbda5(%rip),%rax        # 17030 <g_67>
    b28b:	48 89 85 e0 f4 ff ff 	mov    %rax,-0xb20(%rbp)
    b292:	48 8d 05 97 bd 00 00 	lea    0xbd97(%rip),%rax        # 17030 <g_67>
    b299:	48 89 85 e8 f4 ff ff 	mov    %rax,-0xb18(%rbp)
    b2a0:	48 8d 05 e1 bf 00 00 	lea    0xbfe1(%rip),%rax        # 17288 <g_572>
    b2a7:	48 89 85 f0 f4 ff ff 	mov    %rax,-0xb10(%rbp)
    b2ae:	48 8d 05 7b bd 00 00 	lea    0xbd7b(%rip),%rax        # 17030 <g_67>
    b2b5:	48 89 85 f8 f4 ff ff 	mov    %rax,-0xb08(%rbp)
    b2bc:	48 8d 05 6d bd 00 00 	lea    0xbd6d(%rip),%rax        # 17030 <g_67>
    b2c3:	48 89 85 00 f5 ff ff 	mov    %rax,-0xb00(%rbp)
    b2ca:	48 8d 05 b7 bf 00 00 	lea    0xbfb7(%rip),%rax        # 17288 <g_572>
    b2d1:	48 89 85 08 f5 ff ff 	mov    %rax,-0xaf8(%rbp)
    b2d8:	48 8d 05 51 bd 00 00 	lea    0xbd51(%rip),%rax        # 17030 <g_67>
    b2df:	48 89 85 10 f5 ff ff 	mov    %rax,-0xaf0(%rbp)
    b2e6:	48 c7 85 18 f5 ff ff 	movq   $0x0,-0xae8(%rbp)
    b2ed:	00 00 00 00 
    b2f1:	48 8d 05 90 bf 00 00 	lea    0xbf90(%rip),%rax        # 17288 <g_572>
    b2f8:	48 89 85 20 f5 ff ff 	mov    %rax,-0xae0(%rbp)
    b2ff:	48 c7 85 28 f5 ff ff 	movq   $0x0,-0xad8(%rbp)
    b306:	00 00 00 00 
    b30a:	48 c7 85 30 f5 ff ff 	movq   $0x0,-0xad0(%rbp)
    b311:	00 00 00 00 
    b315:	48 8d 05 14 bd 00 00 	lea    0xbd14(%rip),%rax        # 17030 <g_67>
    b31c:	48 89 85 38 f5 ff ff 	mov    %rax,-0xac8(%rbp)
    b323:	48 8d 05 06 bd 00 00 	lea    0xbd06(%rip),%rax        # 17030 <g_67>
    b32a:	48 89 85 40 f5 ff ff 	mov    %rax,-0xac0(%rbp)
    b331:	48 8d 85 b8 ee ff ff 	lea    -0x1148(%rbp),%rax
    b338:	48 89 85 48 f5 ff ff 	mov    %rax,-0xab8(%rbp)
    b33f:	48 8d 05 ea bc 00 00 	lea    0xbcea(%rip),%rax        # 17030 <g_67>
    b346:	48 89 85 50 f5 ff ff 	mov    %rax,-0xab0(%rbp)
    b34d:	48 8d 05 dc bc 00 00 	lea    0xbcdc(%rip),%rax        # 17030 <g_67>
    b354:	48 89 85 58 f5 ff ff 	mov    %rax,-0xaa8(%rbp)
    b35b:	48 8d 05 ce bc 00 00 	lea    0xbcce(%rip),%rax        # 17030 <g_67>
    b362:	48 89 85 60 f5 ff ff 	mov    %rax,-0xaa0(%rbp)
    b369:	48 c7 85 68 f5 ff ff 	movq   $0x0,-0xa98(%rbp)
    b370:	00 00 00 00 
    b374:	48 c7 85 70 f5 ff ff 	movq   $0x0,-0xa90(%rbp)
    b37b:	00 00 00 00 
    b37f:	48 8d 05 02 bf 00 00 	lea    0xbf02(%rip),%rax        # 17288 <g_572>
    b386:	48 89 85 78 f5 ff ff 	mov    %rax,-0xa88(%rbp)
    b38d:	48 c7 85 80 f5 ff ff 	movq   $0x0,-0xa80(%rbp)
    b394:	00 00 00 00 
    b398:	48 c7 85 88 f5 ff ff 	movq   $0x0,-0xa78(%rbp)
    b39f:	00 00 00 00 
    b3a3:	48 8d 05 86 bc 00 00 	lea    0xbc86(%rip),%rax        # 17030 <g_67>
    b3aa:	48 89 85 90 f5 ff ff 	mov    %rax,-0xa70(%rbp)
    b3b1:	48 8d 05 78 bc 00 00 	lea    0xbc78(%rip),%rax        # 17030 <g_67>
    b3b8:	48 89 85 98 f5 ff ff 	mov    %rax,-0xa68(%rbp)
    b3bf:	48 8d 05 c2 be 00 00 	lea    0xbec2(%rip),%rax        # 17288 <g_572>
    b3c6:	48 89 85 a0 f5 ff ff 	mov    %rax,-0xa60(%rbp)
    b3cd:	48 8d 85 b8 ee ff ff 	lea    -0x1148(%rbp),%rax
    b3d4:	48 89 85 a8 f5 ff ff 	mov    %rax,-0xa58(%rbp)
    b3db:	48 8d 05 a6 be 00 00 	lea    0xbea6(%rip),%rax        # 17288 <g_572>
    b3e2:	48 89 85 b0 f5 ff ff 	mov    %rax,-0xa50(%rbp)
    b3e9:	48 c7 85 b8 f5 ff ff 	movq   $0x0,-0xa48(%rbp)
    b3f0:	00 00 00 00 
    b3f4:	48 8d 85 b8 ee ff ff 	lea    -0x1148(%rbp),%rax
    b3fb:	48 89 85 c0 f5 ff ff 	mov    %rax,-0xa40(%rbp)
    b402:	48 8d 05 27 bc 00 00 	lea    0xbc27(%rip),%rax        # 17030 <g_67>
    b409:	48 89 85 c8 f5 ff ff 	mov    %rax,-0xa38(%rbp)
    b410:	48 8d 85 b8 ee ff ff 	lea    -0x1148(%rbp),%rax
    b417:	48 89 85 d0 f5 ff ff 	mov    %rax,-0xa30(%rbp)
    b41e:	48 8d 05 0b bc 00 00 	lea    0xbc0b(%rip),%rax        # 17030 <g_67>
    b425:	48 89 85 d8 f5 ff ff 	mov    %rax,-0xa28(%rbp)
    b42c:	48 8d 85 b8 ee ff ff 	lea    -0x1148(%rbp),%rax
    b433:	48 89 85 e0 f5 ff ff 	mov    %rax,-0xa20(%rbp)
    b43a:	48 8d 05 ef bb 00 00 	lea    0xbbef(%rip),%rax        # 17030 <g_67>
    b441:	48 89 85 e8 f5 ff ff 	mov    %rax,-0xa18(%rbp)
    b448:	48 8d 85 b8 ee ff ff 	lea    -0x1148(%rbp),%rax
    b44f:	48 89 85 f0 f5 ff ff 	mov    %rax,-0xa10(%rbp)
    b456:	48 8d 85 b8 ee ff ff 	lea    -0x1148(%rbp),%rax
    b45d:	48 89 85 f8 f5 ff ff 	mov    %rax,-0xa08(%rbp)
    b464:	48 8d 05 c5 bb 00 00 	lea    0xbbc5(%rip),%rax        # 17030 <g_67>
    b46b:	48 89 85 00 f6 ff ff 	mov    %rax,-0xa00(%rbp)
    b472:	48 c7 85 08 f6 ff ff 	movq   $0x0,-0x9f8(%rbp)
    b479:	00 00 00 00 
    b47d:	48 8d 85 b8 ee ff ff 	lea    -0x1148(%rbp),%rax
    b484:	48 89 85 10 f6 ff ff 	mov    %rax,-0x9f0(%rbp)
    b48b:	48 8d 05 9e bb 00 00 	lea    0xbb9e(%rip),%rax        # 17030 <g_67>
    b492:	48 89 85 18 f6 ff ff 	mov    %rax,-0x9e8(%rbp)
    b499:	48 8d 85 b8 ee ff ff 	lea    -0x1148(%rbp),%rax
    b4a0:	48 89 85 20 f6 ff ff 	mov    %rax,-0x9e0(%rbp)
    b4a7:	48 8d 05 da bd 00 00 	lea    0xbdda(%rip),%rax        # 17288 <g_572>
    b4ae:	48 89 85 28 f6 ff ff 	mov    %rax,-0x9d8(%rbp)
    b4b5:	48 8d 05 cc bd 00 00 	lea    0xbdcc(%rip),%rax        # 17288 <g_572>
    b4bc:	48 89 85 30 f6 ff ff 	mov    %rax,-0x9d0(%rbp)
    b4c3:	48 8d 85 b8 ee ff ff 	lea    -0x1148(%rbp),%rax
    b4ca:	48 89 85 38 f6 ff ff 	mov    %rax,-0x9c8(%rbp)
    b4d1:	48 8d 85 b8 ee ff ff 	lea    -0x1148(%rbp),%rax
    b4d8:	48 89 85 40 f6 ff ff 	mov    %rax,-0x9c0(%rbp)
    b4df:	48 8d 05 8a bc 00 00 	lea    0xbc8a(%rip),%rax        # 17170 <g_484>
    b4e6:	48 89 85 48 f6 ff ff 	mov    %rax,-0x9b8(%rbp)
    b4ed:	48 8d 05 7c bc 00 00 	lea    0xbc7c(%rip),%rax        # 17170 <g_484>
    b4f4:	48 89 85 50 f6 ff ff 	mov    %rax,-0x9b0(%rbp)
    b4fb:	48 8d 85 b8 ee ff ff 	lea    -0x1148(%rbp),%rax
    b502:	48 89 85 58 f6 ff ff 	mov    %rax,-0x9a8(%rbp)
    b509:	48 8d 85 b8 ee ff ff 	lea    -0x1148(%rbp),%rax
    b510:	48 89 85 60 f6 ff ff 	mov    %rax,-0x9a0(%rbp)
    b517:	48 8d 05 6a bd 00 00 	lea    0xbd6a(%rip),%rax        # 17288 <g_572>
    b51e:	48 89 85 68 f6 ff ff 	mov    %rax,-0x998(%rbp)
    b525:	48 8d 05 5c bd 00 00 	lea    0xbd5c(%rip),%rax        # 17288 <g_572>
    b52c:	48 89 85 70 f6 ff ff 	mov    %rax,-0x990(%rbp)
    b533:	48 c7 85 70 f0 ff ff 	movq   $0x0,-0xf90(%rbp)
    b53a:	00 00 00 00 
    b53e:	c7 85 8c ee ff ff eb 	movl   $0x69b3f0eb,-0x1174(%rbp)
    b545:	f0 b3 69 
    b548:	8b 85 40 ee ff ff    	mov    -0x11c0(%rbp),%eax
    b54e:	89 c2                	mov    %eax,%edx
    b550:	48 83 bd 38 f0 ff ff 	cmpq   $0x0,-0xfc8(%rbp)
    b557:	00 
    b558:	0f 94 c0             	sete   %al
    b55b:	0f b6 c0             	movzbl %al,%eax
    b55e:	89 d6                	mov    %edx,%esi
    b560:	89 c7                	mov    %eax,%edi
    b562:	e8 87 6d ff ff       	callq  22ee <safe_lshift_func_int8_t_s_u>
    b567:	89 c3                	mov    %eax,%ebx
    b569:	0f b6 05 5a bb 00 00 	movzbl 0xbb5a(%rip),%eax        # 170ca <g_311>
    b570:	3c 08                	cmp    $0x8,%al
    b572:	0f 94 c0             	sete   %al
    b575:	0f b6 d0             	movzbl %al,%edx
    b578:	48 8b 05 49 c5 00 00 	mov    0xc549(%rip),%rax        # 17ac8 <g_105>
    b57f:	48 8b 00             	mov    (%rax),%rax
    b582:	0f b6 08             	movzbl (%rax),%ecx
    b585:	8b 85 88 ee ff ff    	mov    -0x1178(%rbp),%eax
    b58b:	89 c6                	mov    %eax,%esi
    b58d:	48 8b 05 34 c5 00 00 	mov    0xc534(%rip),%rax        # 17ac8 <g_105>
    b594:	48 8b 00             	mov    (%rax),%rax
    b597:	09 f1                	or     %esi,%ecx
    b599:	88 08                	mov    %cl,(%rax)
    b59b:	0f b6 00             	movzbl (%rax),%eax
    b59e:	84 c0                	test   %al,%al
    b5a0:	75 0d                	jne    b5af <func_33+0x1c5e>
    b5a2:	48 8b 85 30 ef ff ff 	mov    -0x10d0(%rbp),%rax
    b5a9:	8b 00                	mov    (%rax),%eax
    b5ab:	85 c0                	test   %eax,%eax
    b5ad:	74 07                	je     b5b6 <func_33+0x1c65>
    b5af:	b8 01 00 00 00       	mov    $0x1,%eax
    b5b4:	eb 05                	jmp    b5bb <func_33+0x1c6a>
    b5b6:	b8 00 00 00 00       	mov    $0x0,%eax
    b5bb:	39 d0                	cmp    %edx,%eax
    b5bd:	0f 9c c0             	setl   %al
    b5c0:	0f b6 c0             	movzbl %al,%eax
    b5c3:	48 be cc ec 4d c9 39 	movabs $0x89990f39c94deccc,%rsi
    b5ca:	0f 99 89 
    b5cd:	48 89 c7             	mov    %rax,%rdi
    b5d0:	e8 76 7a ff ff       	callq  304b <safe_sub_func_uint64_t_u_u>
    b5d5:	31 c3                	xor    %eax,%ebx
    b5d7:	89 da                	mov    %ebx,%edx
    b5d9:	48 8b 85 40 f0 ff ff 	mov    -0xfc0(%rbp),%rax
    b5e0:	88 10                	mov    %dl,(%rax)
    b5e2:	be 4f 9d ff ff       	mov    $0xffff9d4f,%esi
    b5e7:	bf 4e 7d 00 00       	mov    $0x7d4e,%edi
    b5ec:	e8 64 6e ff ff       	callq  2455 <safe_div_func_int16_t_s_s>
    b5f1:	48 8b 95 d0 ee ff ff 	mov    -0x1130(%rbp),%rdx
    b5f8:	48 8b 85 30 f0 ff ff 	mov    -0xfd0(%rbp),%rax
    b5ff:	48 89 10             	mov    %rdx,(%rax)
    b602:	48 8b 85 30 f0 ff ff 	mov    -0xfd0(%rbp),%rax
    b609:	48 8b 00             	mov    (%rax),%rax
    b60c:	48 39 85 10 ef ff ff 	cmp    %rax,-0x10f0(%rbp)
    b613:	0f 94 c0             	sete   %al
    b616:	0f b6 c8             	movzbl %al,%ecx
    b619:	48 8b 05 90 c5 00 00 	mov    0xc590(%rip),%rax        # 17bb0 <g_385>
    b620:	8b 10                	mov    (%rax),%edx
    b622:	48 8b 05 87 c5 00 00 	mov    0xc587(%rip),%rax        # 17bb0 <g_385>
    b629:	21 ca                	and    %ecx,%edx
    b62b:	89 10                	mov    %edx,(%rax)
    b62d:	48 8b 85 48 f0 ff ff 	mov    -0xfb8(%rbp),%rax
    b634:	8b 00                	mov    (%rax),%eax
    b636:	8d 50 ff             	lea    -0x1(%rax),%edx
    b639:	48 8b 85 48 f0 ff ff 	mov    -0xfb8(%rbp),%rax
    b640:	89 10                	mov    %edx,(%rax)
    b642:	48 8b 05 67 c5 00 00 	mov    0xc567(%rip),%rax        # 17bb0 <g_385>
    b649:	8b 00                	mov    (%rax),%eax
    b64b:	0f b6 05 06 7a 00 00 	movzbl 0x7a06(%rip),%eax        # 13058 <g_467>
    b652:	84 c0                	test   %al,%al
    b654:	0f 85 33 01 00 00    	jne    b78d <func_33+0x1e3c>
    b65a:	0f b6 05 69 ba 00 00 	movzbl 0xba69(%rip),%eax        # 170ca <g_311>
    b661:	0f b6 d8             	movzbl %al,%ebx
    b664:	8b 85 ec f3 ff ff    	mov    -0xc14(%rbp),%eax
    b66a:	44 0f b6 e0          	movzbl %al,%r12d
    b66e:	48 8b 05 53 c4 00 00 	mov    0xc453(%rip),%rax        # 17ac8 <g_105>
    b675:	48 8b 00             	mov    (%rax),%rax
    b678:	0f b6 00             	movzbl (%rax),%eax
    b67b:	44 0f be e8          	movsbl %al,%r13d
    b67f:	0f b7 05 7e bc 00 00 	movzwl 0xbc7e(%rip),%eax        # 17304 <g_796>
    b686:	44 0f b7 f0          	movzwl %ax,%r14d
    b68a:	44 8b bd 60 f2 ff ff 	mov    -0xda0(%rbp),%r15d
    b691:	48 8b 85 30 ef ff ff 	mov    -0x10d0(%rbp),%rax
    b698:	8b 00                	mov    (%rax),%eax
    b69a:	98                   	cwtl   
    b69b:	be 0d 00 00 00       	mov    $0xd,%esi
    b6a0:	89 c7                	mov    %eax,%edi
    b6a2:	e8 eb 6d ff ff       	callq  2492 <safe_lshift_func_int16_t_s_s>
    b6a7:	66 85 c0             	test   %ax,%ax
    b6aa:	74 15                	je     b6c1 <func_33+0x1d70>
    b6ac:	48 8b 85 a8 ee ff ff 	mov    -0x1158(%rbp),%rax
    b6b3:	48 89 85 d8 ee ff ff 	mov    %rax,-0x1128(%rbp)
    b6ba:	ba 01 00 00 00       	mov    $0x1,%edx
    b6bf:	eb 05                	jmp    b6c6 <func_33+0x1d75>
    b6c1:	ba 00 00 00 00       	mov    $0x0,%edx
    b6c6:	8b 85 40 ee ff ff    	mov    -0x11c0(%rbp),%eax
    b6cc:	39 c2                	cmp    %eax,%edx
    b6ce:	0f 9c c0             	setl   %al
    b6d1:	0f b6 d0             	movzbl %al,%edx
    b6d4:	0f b7 05 f1 b9 00 00 	movzwl 0xb9f1(%rip),%eax        # 170cc <g_431>
    b6db:	0f b7 c0             	movzwl %ax,%eax
    b6de:	39 c2                	cmp    %eax,%edx
    b6e0:	0f 94 c0             	sete   %al
    b6e3:	0f b6 d0             	movzbl %al,%edx
    b6e6:	8b 85 40 ee ff ff    	mov    -0x11c0(%rbp),%eax
    b6ec:	39 c2                	cmp    %eax,%edx
    b6ee:	0f 94 c0             	sete   %al
    b6f1:	0f b6 d0             	movzbl %al,%edx
    b6f4:	48 8b 05 c5 c3 00 00 	mov    0xc3c5(%rip),%rax        # 17ac0 <g_106>
    b6fb:	0f b6 00             	movzbl (%rax),%eax
    b6fe:	0f be c0             	movsbl %al,%eax
    b701:	09 d0                	or     %edx,%eax
    b703:	44 89 fe             	mov    %r15d,%esi
    b706:	89 c7                	mov    %eax,%edi
    b708:	e8 f0 77 ff ff       	callq  2efd <safe_mod_func_uint32_t_u_u>
    b70d:	0f b7 c0             	movzwl %ax,%eax
    b710:	44 89 f6             	mov    %r14d,%esi
    b713:	89 c7                	mov    %eax,%edi
    b715:	e8 05 76 ff ff       	callq  2d1f <safe_sub_func_uint16_t_u_u>
    b71a:	0f be c0             	movsbl %al,%eax
    b71d:	44 89 ee             	mov    %r13d,%esi
    b720:	89 c7                	mov    %eax,%edi
    b722:	e8 7a 6b ff ff       	callq  22a1 <safe_lshift_func_int8_t_s_s>
    b727:	0f be d0             	movsbl %al,%edx
    b72a:	48 8b 85 30 ef ff ff 	mov    -0x10d0(%rbp),%rax
    b731:	8b 00                	mov    (%rax),%eax
    b733:	39 c2                	cmp    %eax,%edx
    b735:	0f 94 c0             	sete   %al
    b738:	0f b6 c0             	movzbl %al,%eax
    b73b:	89 85 40 ee ff ff    	mov    %eax,-0x11c0(%rbp)
    b741:	8b 85 40 ee ff ff    	mov    -0x11c0(%rbp),%eax
    b747:	0f b6 c0             	movzbl %al,%eax
    b74a:	44 89 e6             	mov    %r12d,%esi
    b74d:	89 c7                	mov    %eax,%edi
    b74f:	e8 3f 74 ff ff       	callq  2b93 <safe_mul_func_uint8_t_u_u>
    b754:	0f b6 c0             	movzbl %al,%eax
    b757:	8b 95 88 ee ff ff    	mov    -0x1178(%rbp),%edx
    b75d:	89 d6                	mov    %edx,%esi
    b75f:	89 c7                	mov    %eax,%edi
    b761:	e8 50 6e ff ff       	callq  25b6 <safe_add_func_int32_t_s_s>
    b766:	8b 85 84 f3 ff ff    	mov    -0xc7c(%rbp),%eax
    b76c:	48 98                	cltq   
    b76e:	48 89 de             	mov    %rbx,%rsi
    b771:	48 89 c7             	mov    %rax,%rdi
    b774:	e8 d2 78 ff ff       	callq  304b <safe_sub_func_uint64_t_u_u>
    b779:	89 c2                	mov    %eax,%edx
    b77b:	48 8b 85 30 ef ff ff 	mov    -0x10d0(%rbp),%rax
    b782:	89 10                	mov    %edx,(%rax)
    b784:	83 bd 88 ee ff ff 00 	cmpl   $0x0,-0x1178(%rbp)
    b78b:	74 07                	je     b794 <func_33+0x1e43>
    b78d:	ba 01 00 00 00       	mov    $0x1,%edx
    b792:	eb 05                	jmp    b799 <func_33+0x1e48>
    b794:	ba 00 00 00 00       	mov    $0x0,%edx
    b799:	0f b7 05 d4 b8 00 00 	movzwl 0xb8d4(%rip),%eax        # 17074 <g_254>
    b7a0:	98                   	cwtl   
    b7a1:	21 d0                	and    %edx,%eax
    b7a3:	48 63 d0             	movslq %eax,%rdx
    b7a6:	48 8b 05 33 b9 00 00 	mov    0xb933(%rip),%rax        # 170e0 <g_483>
    b7ad:	48 39 c2             	cmp    %rax,%rdx
    b7b0:	0f 9f c0             	setg   %al
    b7b3:	0f b6 c0             	movzbl %al,%eax
    b7b6:	be 0b 00 00 00       	mov    $0xb,%esi
    b7bb:	89 c7                	mov    %eax,%edi
    b7bd:	e8 44 76 ff ff       	callq  2e06 <safe_lshift_func_uint16_t_u_u>
    b7c2:	8b 05 5c b8 00 00    	mov    0xb85c(%rip),%eax        # 17024 <g_15>
    b7c8:	89 85 ec f3 ff ff    	mov    %eax,-0xc14(%rbp)
    b7ce:	8b 95 ec f3 ff ff    	mov    -0xc14(%rbp),%edx
    b7d4:	8b 05 72 b8 00 00    	mov    0xb872(%rip),%eax        # 1704c <g_182+0xc>
    b7da:	39 c2                	cmp    %eax,%edx
    b7dc:	0f 9f c0             	setg   %al
    b7df:	0f b6 c0             	movzbl %al,%eax
    b7e2:	09 85 8c ee ff ff    	or     %eax,-0x1174(%rbp)
    b7e8:	48 8b 85 30 ef ff ff 	mov    -0x10d0(%rbp),%rax
    b7ef:	8b 00                	mov    (%rax),%eax
    b7f1:	85 c0                	test   %eax,%eax
    b7f3:	0f 84 c0 11 00 00    	je     c9b9 <func_33+0x3068>
    b7f9:	e9 c2 11 00 00       	jmpq   c9c0 <func_33+0x306f>
    b7fe:	66 c7 85 38 ee ff ff 	movw   $0x5,-0x11c8(%rbp)
    b805:	05 00 
    b807:	c7 85 44 ee ff ff f6 	movl   $0xfffffff6,-0x11bc(%rbp)
    b80e:	ff ff ff 
    b811:	c7 85 a0 f0 ff ff 06 	movl   $0x6,-0xf60(%rbp)
    b818:	00 00 00 
    b81b:	c7 85 a4 f0 ff ff 90 	movl   $0xbe844890,-0xf5c(%rbp)
    b822:	48 84 be 
    b825:	c7 85 a8 f0 ff ff 90 	movl   $0xbe844890,-0xf58(%rbp)
    b82c:	48 84 be 
    b82f:	c7 85 ac f0 ff ff 06 	movl   $0x6,-0xf54(%rbp)
    b836:	00 00 00 
    b839:	c7 85 b0 f0 ff ff 90 	movl   $0xbe844890,-0xf50(%rbp)
    b840:	48 84 be 
    b843:	c7 85 b4 f0 ff ff 90 	movl   $0xbe844890,-0xf4c(%rbp)
    b84a:	48 84 be 
    b84d:	c7 85 b8 f0 ff ff 06 	movl   $0x6,-0xf48(%rbp)
    b854:	00 00 00 
    b857:	48 8d 05 5a ba 00 00 	lea    0xba5a(%rip),%rax        # 172b8 <g_574+0x18>
    b85e:	48 89 85 c8 ee ff ff 	mov    %rax,-0x1138(%rbp)
    b865:	48 8d 85 98 ee ff ff 	lea    -0x1168(%rbp),%rax
    b86c:	48 89 85 d0 ee ff ff 	mov    %rax,-0x1130(%rbp)
    b873:	48 8d 85 d0 ee ff ff 	lea    -0x1130(%rbp),%rax
    b87a:	48 89 85 88 ef ff ff 	mov    %rax,-0x1078(%rbp)
    b881:	48 8d 05 42 b8 00 00 	lea    0xb842(%rip),%rax        # 170ca <g_311>
    b888:	48 89 85 90 ef ff ff 	mov    %rax,-0x1070(%rbp)
    b88f:	48 b8 b1 5e 9e af 7a 	movabs $0xb0fdfa7aaf9e5eb1,%rax
    b896:	fa fd b0 
    b899:	48 89 85 98 ef ff ff 	mov    %rax,-0x1068(%rbp)
    b8a0:	c7 85 70 f2 ff ff 01 	movl   $0x1010101,-0xd90(%rbp)
    b8a7:	01 01 01 
    b8aa:	66 c7 85 74 f2 ff ff 	movw   $0x101,-0xd8c(%rbp)
    b8b1:	01 01 
    b8b3:	c7 85 76 f2 ff ff 01 	movl   $0x1010101,-0xd8a(%rbp)
    b8ba:	01 01 01 
    b8bd:	66 c7 85 7a f2 ff ff 	movw   $0x101,-0xd86(%rbp)
    b8c4:	01 01 
    b8c6:	c7 85 7c f2 ff ff 01 	movl   $0x1010101,-0xd84(%rbp)
    b8cd:	01 01 01 
    b8d0:	66 c7 85 80 f2 ff ff 	movw   $0x101,-0xd80(%rbp)
    b8d7:	01 01 
    b8d9:	c7 85 82 f2 ff ff 01 	movl   $0x1010101,-0xd7e(%rbp)
    b8e0:	01 01 01 
    b8e3:	66 c7 85 86 f2 ff ff 	movw   $0x101,-0xd7a(%rbp)
    b8ea:	01 01 
    b8ec:	c7 85 88 f2 ff ff 01 	movl   $0x1010101,-0xd78(%rbp)
    b8f3:	01 01 01 
    b8f6:	66 c7 85 8c f2 ff ff 	movw   $0x101,-0xd74(%rbp)
    b8fd:	01 01 
    b8ff:	c7 85 8e f2 ff ff 01 	movl   $0x1010101,-0xd72(%rbp)
    b906:	01 01 01 
    b909:	66 c7 85 92 f2 ff ff 	movw   $0x101,-0xd6e(%rbp)
    b910:	01 01 
    b912:	c7 85 94 f2 ff ff 01 	movl   $0x1010101,-0xd6c(%rbp)
    b919:	01 01 01 
    b91c:	66 c7 85 98 f2 ff ff 	movw   $0x101,-0xd68(%rbp)
    b923:	01 01 
    b925:	c7 85 9a f2 ff ff 01 	movl   $0x1010101,-0xd66(%rbp)
    b92c:	01 01 01 
    b92f:	66 c7 85 9e f2 ff ff 	movw   $0x101,-0xd62(%rbp)
    b936:	01 01 
    b938:	c7 85 a0 f2 ff ff 01 	movl   $0x1010101,-0xd60(%rbp)
    b93f:	01 01 01 
    b942:	66 c7 85 a4 f2 ff ff 	movw   $0x101,-0xd5c(%rbp)
    b949:	01 01 
    b94b:	c7 85 a6 f2 ff ff 01 	movl   $0x1010101,-0xd5a(%rbp)
    b952:	01 01 01 
    b955:	66 c7 85 aa f2 ff ff 	movw   $0x101,-0xd56(%rbp)
    b95c:	01 01 
    b95e:	c7 85 ac f2 ff ff 01 	movl   $0x1010101,-0xd54(%rbp)
    b965:	01 01 01 
    b968:	66 c7 85 b0 f2 ff ff 	movw   $0x101,-0xd50(%rbp)
    b96f:	01 01 
    b971:	c7 85 b2 f2 ff ff 01 	movl   $0x1010101,-0xd4e(%rbp)
    b978:	01 01 01 
    b97b:	66 c7 85 b6 f2 ff ff 	movw   $0x101,-0xd4a(%rbp)
    b982:	01 01 
    b984:	c7 85 b8 f2 ff ff 01 	movl   $0x1010101,-0xd48(%rbp)
    b98b:	01 01 01 
    b98e:	66 c7 85 bc f2 ff ff 	movw   $0x101,-0xd44(%rbp)
    b995:	01 01 
    b997:	c7 85 be f2 ff ff 01 	movl   $0x1010101,-0xd42(%rbp)
    b99e:	01 01 01 
    b9a1:	66 c7 85 c2 f2 ff ff 	movw   $0x101,-0xd3e(%rbp)
    b9a8:	01 01 
    b9aa:	c7 85 c4 f2 ff ff 01 	movl   $0x1010101,-0xd3c(%rbp)
    b9b1:	01 01 01 
    b9b4:	66 c7 85 c8 f2 ff ff 	movw   $0x101,-0xd38(%rbp)
    b9bb:	01 01 
    b9bd:	c7 85 ca f2 ff ff 01 	movl   $0x1010101,-0xd36(%rbp)
    b9c4:	01 01 01 
    b9c7:	66 c7 85 ce f2 ff ff 	movw   $0x101,-0xd32(%rbp)
    b9ce:	01 01 
    b9d0:	c7 85 d0 f2 ff ff 01 	movl   $0x1010101,-0xd30(%rbp)
    b9d7:	01 01 01 
    b9da:	66 c7 85 d4 f2 ff ff 	movw   $0x101,-0xd2c(%rbp)
    b9e1:	01 01 
    b9e3:	c7 85 d6 f2 ff ff 01 	movl   $0x1010101,-0xd2a(%rbp)
    b9ea:	01 01 01 
    b9ed:	66 c7 85 da f2 ff ff 	movw   $0x101,-0xd26(%rbp)
    b9f4:	01 01 
    b9f6:	c7 85 dc f2 ff ff 01 	movl   $0x1010101,-0xd24(%rbp)
    b9fd:	01 01 01 
    ba00:	66 c7 85 e0 f2 ff ff 	movw   $0x101,-0xd20(%rbp)
    ba07:	01 01 
    ba09:	c7 85 e2 f2 ff ff 01 	movl   $0x1010101,-0xd1e(%rbp)
    ba10:	01 01 01 
    ba13:	66 c7 85 e6 f2 ff ff 	movw   $0x101,-0xd1a(%rbp)
    ba1a:	01 01 
    ba1c:	c7 85 e8 f2 ff ff 01 	movl   $0x1010101,-0xd18(%rbp)
    ba23:	01 01 01 
    ba26:	66 c7 85 ec f2 ff ff 	movw   $0x101,-0xd14(%rbp)
    ba2d:	01 01 
    ba2f:	c7 85 ee f2 ff ff 01 	movl   $0x1010101,-0xd12(%rbp)
    ba36:	01 01 01 
    ba39:	66 c7 85 f2 f2 ff ff 	movw   $0x101,-0xd0e(%rbp)
    ba40:	01 01 
    ba42:	c7 85 f4 f2 ff ff 01 	movl   $0x1010101,-0xd0c(%rbp)
    ba49:	01 01 01 
    ba4c:	66 c7 85 f8 f2 ff ff 	movw   $0x101,-0xd08(%rbp)
    ba53:	01 01 
    ba55:	c7 85 fa f2 ff ff 01 	movl   $0x1010101,-0xd06(%rbp)
    ba5c:	01 01 01 
    ba5f:	66 c7 85 fe f2 ff ff 	movw   $0x101,-0xd02(%rbp)
    ba66:	01 01 
    ba68:	c7 85 00 f3 ff ff 01 	movl   $0x1010101,-0xd00(%rbp)
    ba6f:	01 01 01 
    ba72:	66 c7 85 04 f3 ff ff 	movw   $0x101,-0xcfc(%rbp)
    ba79:	01 01 
    ba7b:	c7 85 06 f3 ff ff 01 	movl   $0x1010101,-0xcfa(%rbp)
    ba82:	01 01 01 
    ba85:	66 c7 85 0a f3 ff ff 	movw   $0x101,-0xcf6(%rbp)
    ba8c:	01 01 
    ba8e:	c7 85 0c f3 ff ff 01 	movl   $0x1010101,-0xcf4(%rbp)
    ba95:	01 01 01 
    ba98:	66 c7 85 10 f3 ff ff 	movw   $0x101,-0xcf0(%rbp)
    ba9f:	01 01 
    baa1:	c7 85 12 f3 ff ff 01 	movl   $0x1010101,-0xcee(%rbp)
    baa8:	01 01 01 
    baab:	66 c7 85 16 f3 ff ff 	movw   $0x101,-0xcea(%rbp)
    bab2:	01 01 
    bab4:	c7 85 18 f3 ff ff 01 	movl   $0x1010101,-0xce8(%rbp)
    babb:	01 01 01 
    babe:	66 c7 85 1c f3 ff ff 	movw   $0x101,-0xce4(%rbp)
    bac5:	01 01 
    bac7:	c7 85 1e f3 ff ff 01 	movl   $0x1010101,-0xce2(%rbp)
    bace:	01 01 01 
    bad1:	66 c7 85 22 f3 ff ff 	movw   $0x101,-0xcde(%rbp)
    bad8:	01 01 
    bada:	c7 85 24 f3 ff ff 01 	movl   $0x1010101,-0xcdc(%rbp)
    bae1:	01 01 01 
    bae4:	66 c7 85 28 f3 ff ff 	movw   $0x101,-0xcd8(%rbp)
    baeb:	01 01 
    baed:	c7 85 2a f3 ff ff 01 	movl   $0x1010101,-0xcd6(%rbp)
    baf4:	01 01 01 
    baf7:	66 c7 85 2e f3 ff ff 	movw   $0x101,-0xcd2(%rbp)
    bafe:	01 01 
    bb00:	c7 85 30 f3 ff ff 01 	movl   $0x1010101,-0xcd0(%rbp)
    bb07:	01 01 01 
    bb0a:	66 c7 85 34 f3 ff ff 	movw   $0x101,-0xccc(%rbp)
    bb11:	01 01 
    bb13:	c7 85 36 f3 ff ff 01 	movl   $0x1010101,-0xcca(%rbp)
    bb1a:	01 01 01 
    bb1d:	66 c7 85 3a f3 ff ff 	movw   $0x101,-0xcc6(%rbp)
    bb24:	01 01 
    bb26:	c7 85 3c f3 ff ff 01 	movl   $0x1010101,-0xcc4(%rbp)
    bb2d:	01 01 01 
    bb30:	66 c7 85 40 f3 ff ff 	movw   $0x101,-0xcc0(%rbp)
    bb37:	01 01 
    bb39:	c7 85 42 f3 ff ff 01 	movl   $0x1010101,-0xcbe(%rbp)
    bb40:	01 01 01 
    bb43:	66 c7 85 46 f3 ff ff 	movw   $0x101,-0xcba(%rbp)
    bb4a:	01 01 
    bb4c:	c7 85 48 f3 ff ff 01 	movl   $0x1010101,-0xcb8(%rbp)
    bb53:	01 01 01 
    bb56:	66 c7 85 4c f3 ff ff 	movw   $0x101,-0xcb4(%rbp)
    bb5d:	01 01 
    bb5f:	c7 85 4e f3 ff ff 01 	movl   $0x1010101,-0xcb2(%rbp)
    bb66:	01 01 01 
    bb69:	66 c7 85 52 f3 ff ff 	movw   $0x101,-0xcae(%rbp)
    bb70:	01 01 
    bb72:	c7 85 54 f3 ff ff 01 	movl   $0x1010101,-0xcac(%rbp)
    bb79:	01 01 01 
    bb7c:	66 c7 85 58 f3 ff ff 	movw   $0x101,-0xca8(%rbp)
    bb83:	01 01 
    bb85:	c7 85 5a f3 ff ff 01 	movl   $0x1010101,-0xca6(%rbp)
    bb8c:	01 01 01 
    bb8f:	66 c7 85 5e f3 ff ff 	movw   $0x101,-0xca2(%rbp)
    bb96:	01 01 
    bb98:	8b 85 a8 f3 ff ff    	mov    -0xc58(%rbp),%eax
    bb9e:	85 c0                	test   %eax,%eax
    bba0:	0f 84 16 06 00 00    	je     c1bc <func_33+0x286b>
    bba6:	48 8d 85 80 f4 ff ff 	lea    -0xb80(%rbp),%rax
    bbad:	48 8d 15 cc b9 00 00 	lea    0xb9cc(%rip),%rdx        # 17580 <g_1809+0x188>
    bbb4:	b9 30 00 00 00       	mov    $0x30,%ecx
    bbb9:	48 89 c7             	mov    %rax,%rdi
    bbbc:	48 89 d6             	mov    %rdx,%rsi
    bbbf:	f3 48 a5             	rep movsq %ds:(%rsi),%es:(%rdi)
    bbc2:	48 8d 85 b0 ee ff ff 	lea    -0x1150(%rbp),%rax
    bbc9:	48 89 85 a8 ef ff ff 	mov    %rax,-0x1058(%rbp)
    bbd0:	48 8d 05 95 b6 00 00 	lea    0xb695(%rip),%rax        # 1726c <g_536+0xec>
    bbd7:	48 89 85 b0 ef ff ff 	mov    %rax,-0x1050(%rbp)
    bbde:	c7 85 68 ee ff ff 00 	movl   $0x0,-0x1198(%rbp)
    bbe5:	00 00 00 
    bbe8:	48 8d 85 60 f3 ff ff 	lea    -0xca0(%rbp),%rax
    bbef:	48 05 8c 00 00 00    	add    $0x8c,%rax
    bbf5:	48 89 85 b8 ef ff ff 	mov    %rax,-0x1048(%rbp)
    bbfc:	48 b8 de 01 98 02 fb 	movabs $0xa7f836fb029801de,%rax
    bc03:	36 f8 a7 
    bc06:	48 89 85 c0 ef ff ff 	mov    %rax,-0x1040(%rbp)
    bc0d:	c7 85 6c ee ff ff b6 	movl   $0x2732dbb6,-0x1194(%rbp)
    bc14:	db 32 27 
    bc17:	c7 85 70 ee ff ff fd 	movl   $0xfffffffd,-0x1190(%rbp)
    bc1e:	ff ff ff 
    bc21:	c7 85 74 ee ff ff 6f 	movl   $0x4560466f,-0x118c(%rbp)
    bc28:	46 60 45 
    bc2b:	c7 85 78 ee ff ff f9 	movl   $0xc5e195f9,-0x1188(%rbp)
    bc32:	95 e1 c5 
    bc35:	c7 85 40 f1 ff ff 01 	movl   $0x1,-0xec0(%rbp)
    bc3c:	00 00 00 
    bc3f:	c7 85 44 f1 ff ff 00 	movl   $0x0,-0xebc(%rbp)
    bc46:	00 00 00 
    bc49:	c7 85 48 f1 ff ff 00 	movl   $0x0,-0xeb8(%rbp)
    bc50:	00 00 00 
    bc53:	c7 85 4c f1 ff ff 01 	movl   $0x1,-0xeb4(%rbp)
    bc5a:	00 00 00 
    bc5d:	c7 85 50 f1 ff ff 10 	movl   $0xd7876910,-0xeb0(%rbp)
    bc64:	69 87 d7 
    bc67:	c7 85 54 f1 ff ff 01 	movl   $0x1,-0xeac(%rbp)
    bc6e:	00 00 00 
    bc71:	c7 85 58 f1 ff ff 00 	movl   $0x0,-0xea8(%rbp)
    bc78:	00 00 00 
    bc7b:	c7 85 5c f1 ff ff 00 	movl   $0x0,-0xea4(%rbp)
    bc82:	00 00 00 
    bc85:	c7 85 60 f1 ff ff 01 	movl   $0x1,-0xea0(%rbp)
    bc8c:	00 00 00 
    bc8f:	c7 85 64 f1 ff ff 05 	movl   $0x5,-0xe9c(%rbp)
    bc96:	00 00 00 
    bc99:	c7 85 68 f1 ff ff 00 	movl   $0x0,-0xe98(%rbp)
    bca0:	00 00 00 
    bca3:	c7 85 6c f1 ff ff dd 	movl   $0x7bfc7cdd,-0xe94(%rbp)
    bcaa:	7c fc 7b 
    bcad:	c7 85 70 f1 ff ff 00 	movl   $0x0,-0xe90(%rbp)
    bcb4:	00 00 00 
    bcb7:	c7 85 74 f1 ff ff c2 	movl   $0xebe47cc2,-0xe8c(%rbp)
    bcbe:	7c e4 eb 
    bcc1:	c7 85 78 f1 ff ff 05 	movl   $0x5,-0xe88(%rbp)
    bcc8:	00 00 00 
    bccb:	c7 85 7c f1 ff ff 00 	movl   $0x0,-0xe84(%rbp)
    bcd2:	00 00 00 
    bcd5:	c7 85 80 f1 ff ff fd 	movl   $0xfffffffd,-0xe80(%rbp)
    bcdc:	ff ff ff 
    bcdf:	c7 85 84 f1 ff ff 00 	movl   $0x0,-0xe7c(%rbp)
    bce6:	00 00 00 
    bce9:	c7 85 88 f1 ff ff 00 	movl   $0x0,-0xe78(%rbp)
    bcf0:	00 00 00 
    bcf3:	c7 85 8c f1 ff ff 10 	movl   $0xd7876910,-0xe74(%rbp)
    bcfa:	69 87 d7 
    bcfd:	c7 85 90 f1 ff ff dd 	movl   $0x7bfc7cdd,-0xe70(%rbp)
    bd04:	7c fc 7b 
    bd07:	c7 85 94 f1 ff ff dd 	movl   $0x7bfc7cdd,-0xe6c(%rbp)
    bd0e:	7c fc 7b 
    bd11:	c7 85 98 f1 ff ff 10 	movl   $0xd7876910,-0xe68(%rbp)
    bd18:	69 87 d7 
    bd1b:	c7 85 9c f1 ff ff 00 	movl   $0x0,-0xe64(%rbp)
    bd22:	00 00 00 
    bd25:	c7 85 a0 f1 ff ff ff 	movl   $0xffffffff,-0xe60(%rbp)
    bd2c:	ff ff ff 
    bd2f:	c7 85 a4 f1 ff ff fd 	movl   $0xfffffffd,-0xe5c(%rbp)
    bd36:	ff ff ff 
    bd39:	c7 85 a8 f1 ff ff dd 	movl   $0x7bfc7cdd,-0xe58(%rbp)
    bd40:	7c fc 7b 
    bd43:	c7 85 ac f1 ff ff 05 	movl   $0x5,-0xe54(%rbp)
    bd4a:	00 00 00 
    bd4d:	c7 85 b0 f1 ff ff c2 	movl   $0xebe47cc2,-0xe50(%rbp)
    bd54:	7c e4 eb 
    bd57:	c7 85 b4 f1 ff ff 00 	movl   $0x0,-0xe4c(%rbp)
    bd5e:	00 00 00 
    bd61:	c7 85 b8 f1 ff ff dd 	movl   $0x7bfc7cdd,-0xe48(%rbp)
    bd68:	7c fc 7b 
    bd6b:	c7 85 bc f1 ff ff 00 	movl   $0x0,-0xe44(%rbp)
    bd72:	00 00 00 
    bd75:	c7 85 c0 f1 ff ff 05 	movl   $0x5,-0xe40(%rbp)
    bd7c:	00 00 00 
    bd7f:	c7 85 c4 f1 ff ff 05 	movl   $0x5,-0xe3c(%rbp)
    bd86:	00 00 00 
    bd89:	c7 85 c8 f1 ff ff 00 	movl   $0x0,-0xe38(%rbp)
    bd90:	00 00 00 
    bd93:	c7 85 cc f1 ff ff dd 	movl   $0x7bfc7cdd,-0xe34(%rbp)
    bd9a:	7c fc 7b 
    bd9d:	66 c7 05 5e b5 00 00 	movw   $0x0,0xb55e(%rip)        # 17304 <g_796>
    bda4:	00 00 
    bda6:	90                   	nop
    bda7:	0f b7 05 56 b5 00 00 	movzwl 0xb556(%rip),%eax        # 17304 <g_796>
    bdae:	66 83 f8 02          	cmp    $0x2,%ax
    bdb2:	77 66                	ja     be1a <func_33+0x24c9>
    bdb4:	0f b7 05 49 b5 00 00 	movzwl 0xb549(%rip),%eax        # 17304 <g_796>
    bdbb:	0f b7 c0             	movzwl %ax,%eax
    bdbe:	0f b7 15 3f b5 00 00 	movzwl 0xb53f(%rip),%edx        # 17304 <g_796>
    bdc5:	0f b7 d2             	movzwl %dx,%edx
    bdc8:	8d 4a 03             	lea    0x3(%rdx),%ecx
    bdcb:	0f b7 15 32 b5 00 00 	movzwl 0xb532(%rip),%edx        # 17304 <g_796>
    bdd2:	0f b7 d2             	movzwl %dx,%edx
    bdd5:	83 c2 04             	add    $0x4,%edx
    bdd8:	48 63 f2             	movslq %edx,%rsi
    bddb:	48 63 d0             	movslq %eax,%rdx
    bdde:	48 63 c9             	movslq %ecx,%rcx
    bde1:	48 89 d0             	mov    %rdx,%rax
    bde4:	48 c1 e0 02          	shl    $0x2,%rax
    bde8:	48 01 d0             	add    %rdx,%rax
    bdeb:	48 c1 e0 02          	shl    $0x2,%rax
    bdef:	48 01 d0             	add    %rdx,%rax
    bdf2:	48 01 c0             	add    %rax,%rax
    bdf5:	48 89 ca             	mov    %rcx,%rdx
    bdf8:	48 c1 e2 03          	shl    $0x3,%rdx
    bdfc:	48 29 ca             	sub    %rcx,%rdx
    bdff:	48 01 d0             	add    %rdx,%rax
    be02:	48 8d 14 30          	lea    (%rax,%rsi,1),%rdx
    be06:	48 8d 05 73 b3 00 00 	lea    0xb373(%rip),%rax        # 17180 <g_536>
    be0d:	48 01 d0             	add    %rdx,%rax
    be10:	0f b6 00             	movzbl (%rax),%eax
    be13:	66 98                	cbtw   
    be15:	e9 f8 0b 00 00       	jmpq   ca12 <func_33+0x30c1>
    be1a:	48 8b 05 9f bc 00 00 	mov    0xbc9f(%rip),%rax        # 17ac0 <g_106>
    be21:	0f b6 00             	movzbl (%rax),%eax
    be24:	0f be d8             	movsbl %al,%ebx
    be27:	48 8b 85 30 ef ff ff 	mov    -0x10d0(%rbp),%rax
    be2e:	8b 10                	mov    (%rax),%edx
    be30:	48 8b 85 30 ef ff ff 	mov    -0x10d0(%rbp),%rax
    be37:	89 10                	mov    %edx,(%rax)
    be39:	48 8b 85 30 ef ff ff 	mov    -0x10d0(%rbp),%rax
    be40:	44 8b 28             	mov    (%rax),%r13d
    be43:	48 8b 05 7e bc 00 00 	mov    0xbc7e(%rip),%rax        # 17ac8 <g_105>
    be4a:	48 8b 00             	mov    (%rax),%rax
    be4d:	0f b6 00             	movzbl (%rax),%eax
    be50:	44 0f be f0          	movsbl %al,%r14d
    be54:	48 8b 05 65 bc 00 00 	mov    0xbc65(%rip),%rax        # 17ac0 <g_106>
    be5b:	0f b6 00             	movzbl (%rax),%eax
    be5e:	44 0f be e0          	movsbl %al,%r12d
    be62:	48 8b 05 9f b4 00 00 	mov    0xb49f(%rip),%rax        # 17308 <g_814>
    be69:	48 8b 85 b0 ee ff ff 	mov    -0x1150(%rbp),%rax
    be70:	89 c6                	mov    %eax,%esi
    be72:	bf 2e 00 00 00       	mov    $0x2e,%edi
    be77:	e8 b9 64 ff ff       	callq  2335 <safe_rshift_func_int8_t_s_s>
    be7c:	84 c0                	test   %al,%al
    be7e:	74 37                	je     beb7 <func_33+0x2566>
    be80:	48 8b 85 a8 ef ff ff 	mov    -0x1058(%rbp),%rax
    be87:	48 8b 00             	mov    (%rax),%rax
    be8a:	48 ba b3 6d 0e 5e fa 	movabs $0x5b4edcfa5e0e6db3,%rdx
    be91:	dc 4e 5b 
    be94:	48 21 c2             	and    %rax,%rdx
    be97:	48 8b 85 a8 ef ff ff 	mov    -0x1058(%rbp),%rax
    be9e:	48 89 10             	mov    %rdx,(%rax)
    bea1:	48 8b 85 a8 ef ff ff 	mov    -0x1058(%rbp),%rax
    bea8:	48 8b 00             	mov    (%rax),%rax
    beab:	48 85 c0             	test   %rax,%rax
    beae:	74 07                	je     beb7 <func_33+0x2566>
    beb0:	ba 01 00 00 00       	mov    $0x1,%edx
    beb5:	eb 05                	jmp    bebc <func_33+0x256b>
    beb7:	ba 00 00 00 00       	mov    $0x0,%edx
    bebc:	48 8b 85 b0 ef ff ff 	mov    -0x1050(%rbp),%rax
    bec3:	0f b6 00             	movzbl (%rax),%eax
    bec6:	31 c2                	xor    %eax,%edx
    bec8:	48 8b 85 b0 ef ff ff 	mov    -0x1050(%rbp),%rax
    becf:	88 10                	mov    %dl,(%rax)
    bed1:	48 8b 85 b0 ef ff ff 	mov    -0x1050(%rbp),%rax
    bed8:	0f b6 00             	movzbl (%rax),%eax
    bedb:	0f be c0             	movsbl %al,%eax
    bede:	44 89 e6             	mov    %r12d,%esi
    bee1:	89 c7                	mov    %eax,%edi
    bee3:	e8 4d 64 ff ff       	callq  2335 <safe_rshift_func_int8_t_s_s>
    bee8:	48 0f be c0          	movsbq %al,%rax
    beec:	be 07 00 00 00       	mov    $0x7,%esi
    bef1:	48 89 c7             	mov    %rax,%rdi
    bef4:	e8 af 69 ff ff       	callq  28a8 <safe_sub_func_int64_t_s_s>
    bef9:	0f be d0             	movsbl %al,%edx
    befc:	48 8b 85 d8 ee ff ff 	mov    -0x1128(%rbp),%rax
    bf03:	48 8b 08             	mov    (%rax),%rcx
    bf06:	48 8b 85 a8 ee ff ff 	mov    -0x1158(%rbp),%rax
    bf0d:	48 8b 00             	mov    (%rax),%rax
    bf10:	48 39 c1             	cmp    %rax,%rcx
    bf13:	0f 95 c0             	setne  %al
    bf16:	0f b6 c0             	movzbl %al,%eax
    bf19:	89 d6                	mov    %edx,%esi
    bf1b:	89 c7                	mov    %eax,%edi
    bf1d:	e8 f0 62 ff ff       	callq  2212 <safe_mul_func_int8_t_s_s>
    bf22:	0f be c0             	movsbl %al,%eax
    bf25:	39 85 68 ee ff ff    	cmp    %eax,-0x1198(%rbp)
    bf2b:	0f 9f c0             	setg   %al
    bf2e:	0f b6 c0             	movzbl %al,%eax
    bf31:	44 09 f0             	or     %r14d,%eax
    bf34:	85 c0                	test   %eax,%eax
    bf36:	75 0a                	jne    bf42 <func_33+0x25f1>
    bf38:	8b 05 0e b1 00 00    	mov    0xb10e(%rip),%eax        # 1704c <g_182+0xc>
    bf3e:	85 c0                	test   %eax,%eax
    bf40:	74 07                	je     bf49 <func_33+0x25f8>
    bf42:	b8 01 00 00 00       	mov    $0x1,%eax
    bf47:	eb 05                	jmp    bf4e <func_33+0x25fd>
    bf49:	b8 00 00 00 00       	mov    $0x0,%eax
    bf4e:	44 39 e8             	cmp    %r13d,%eax
    bf51:	0f 9d c0             	setge  %al
    bf54:	0f b6 d0             	movzbl %al,%edx
    bf57:	8b 85 40 ee ff ff    	mov    -0x11c0(%rbp),%eax
    bf5d:	39 c2                	cmp    %eax,%edx
    bf5f:	7d 0a                	jge    bf6b <func_33+0x261a>
    bf61:	0f b7 85 38 ee ff ff 	movzwl -0x11c8(%rbp),%eax
    bf68:	66 85 c0             	test   %ax,%ax
    bf6b:	89 de                	mov    %ebx,%esi
    bf6d:	bf 21 00 00 00       	mov    $0x21,%edi
    bf72:	e8 8e 6c ff ff       	callq  2c05 <safe_lshift_func_uint8_t_u_s>
    bf77:	0f b6 c0             	movzbl %al,%eax
    bf7a:	25 a1 92 0c ad       	and    $0xad0c92a1,%eax
    bf7f:	48 89 c2             	mov    %rax,%rdx
    bf82:	48 8b 85 b8 ef ff ff 	mov    -0x1048(%rbp),%rax
    bf89:	8b 00                	mov    (%rax),%eax
    bf8b:	31 c2                	xor    %eax,%edx
    bf8d:	48 8b 85 b8 ef ff ff 	mov    -0x1048(%rbp),%rax
    bf94:	89 10                	mov    %edx,(%rax)
    bf96:	48 8b 85 30 ef ff ff 	mov    -0x10d0(%rbp),%rax
    bf9d:	8b 18                	mov    (%rax),%ebx
    bf9f:	8b 85 40 ee ff ff    	mov    -0x11c0(%rbp),%eax
    bfa5:	0f be c0             	movsbl %al,%eax
    bfa8:	be 07 00 00 00       	mov    $0x7,%esi
    bfad:	89 c7                	mov    %eax,%edi
    bfaf:	e8 ed 62 ff ff       	callq  22a1 <safe_lshift_func_int8_t_s_s>
    bfb4:	0f be c0             	movsbl %al,%eax
    bfb7:	39 c3                	cmp    %eax,%ebx
    bfb9:	0f 84 28 01 00 00    	je     c0e7 <func_33+0x2796>
    bfbf:	48 8d 05 c2 bc 00 00 	lea    0xbcc2(%rip),%rax        # 17c88 <g_833+0x8>
    bfc6:	48 89 85 d8 ef ff ff 	mov    %rax,-0x1028(%rbp)
    bfcd:	48 8d 85 38 ee ff ff 	lea    -0x11c8(%rbp),%rax
    bfd4:	48 89 85 e0 ef ff ff 	mov    %rax,-0x1020(%rbp)
    bfdb:	48 8d 85 00 f9 ff ff 	lea    -0x700(%rbp),%rax
    bfe2:	48 8d 15 57 74 00 00 	lea    0x7457(%rip),%rdx        # 13440 <g_1644+0x350>
    bfe9:	b9 7e 00 00 00       	mov    $0x7e,%ecx
    bfee:	48 89 c7             	mov    %rax,%rdi
    bff1:	48 89 d6             	mov    %rdx,%rsi
    bff4:	f3 48 a5             	rep movsq %ds:(%rsi),%es:(%rdi)
    bff7:	c7 85 90 f0 ff ff 7e 	movl   $0xb3f9bf7e,-0xf70(%rbp)
    bffe:	bf f9 b3 
    c001:	c7 85 94 f0 ff ff 7e 	movl   $0xb3f9bf7e,-0xf6c(%rbp)
    c008:	bf f9 b3 
    c00b:	c7 85 98 f0 ff ff 7e 	movl   $0xb3f9bf7e,-0xf68(%rbp)
    c012:	bf f9 b3 
    c015:	c7 85 9c f0 ff ff 7e 	movl   $0xb3f9bf7e,-0xf64(%rbp)
    c01c:	bf f9 b3 
    c01f:	48 8b 85 b8 ef ff ff 	mov    -0x1048(%rbp),%rax
    c026:	8b 00                	mov    (%rax),%eax
    c028:	48 63 d8             	movslq %eax,%rbx
    c02b:	8b 85 64 ee ff ff    	mov    -0x119c(%rbp),%eax
    c031:	0f bf d0             	movswl %ax,%edx
    c034:	0f b6 05 4a b2 00 00 	movzbl 0xb24a(%rip),%eax        # 17285 <g_550+0x5>
    c03b:	48 8b 0d 46 bc 00 00 	mov    0xbc46(%rip),%rcx        # 17c88 <g_833+0x8>
    c042:	48 8b 85 d8 ef ff ff 	mov    -0x1028(%rbp),%rax
    c049:	48 89 08             	mov    %rcx,(%rax)
    c04c:	48 8b 85 d8 ef ff ff 	mov    -0x1028(%rbp),%rax
    c053:	48 8b 00             	mov    (%rax),%rax
    c056:	48 8d 0d 53 c3 00 00 	lea    0xc353(%rip),%rcx        # 183b0 <g_834>
    c05d:	48 39 c8             	cmp    %rcx,%rax
    c060:	0f 94 c0             	sete   %al
    c063:	0f b6 c0             	movzbl %al,%eax
    c066:	89 d6                	mov    %edx,%esi
    c068:	89 c7                	mov    %eax,%edi
    c06a:	e8 86 63 ff ff       	callq  23f5 <safe_mul_func_int16_t_s_s>
    c06f:	48 8b 95 e0 ef ff ff 	mov    -0x1020(%rbp),%rdx
    c076:	66 89 02             	mov    %ax,(%rdx)
    c079:	8b 85 ec f3 ff ff    	mov    -0xc14(%rbp),%eax
    c07f:	0f b7 c0             	movzwl %ax,%eax
    c082:	be 6a 00 00 00       	mov    $0x6a,%esi
    c087:	89 c7                	mov    %eax,%edi
    c089:	e8 00 6d ff ff       	callq  2d8e <safe_div_func_uint16_t_u_u>
    c08e:	0f b7 d0             	movzwl %ax,%edx
    c091:	8b 85 14 fc ff ff    	mov    -0x3ec(%rbp),%eax
    c097:	39 c2                	cmp    %eax,%edx
    c099:	0f 9e c0             	setle  %al
    c09c:	0f b6 c0             	movzbl %al,%eax
    c09f:	48 89 de             	mov    %rbx,%rsi
    c0a2:	48 89 c7             	mov    %rax,%rdi
    c0a5:	e8 0a 69 ff ff       	callq  29b4 <safe_mod_func_int64_t_s_s>
    c0aa:	48 89 c2             	mov    %rax,%rdx
    c0ad:	0f b7 05 c0 af 00 00 	movzwl 0xafc0(%rip),%eax        # 17074 <g_254>
    c0b4:	66 85 c0             	test   %ax,%ax
    c0b7:	0f 94 c0             	sete   %al
    c0ba:	0f b6 c0             	movzbl %al,%eax
    c0bd:	48 89 d6             	mov    %rdx,%rsi
    c0c0:	48 89 c7             	mov    %rax,%rdi
    c0c3:	e8 ec 68 ff ff       	callq  29b4 <safe_mod_func_int64_t_s_s>
    c0c8:	8b 95 14 fc ff ff    	mov    -0x3ec(%rbp),%edx
    c0ce:	48 63 d2             	movslq %edx,%rdx
    c0d1:	48 09 c2             	or     %rax,%rdx
    c0d4:	8b 85 98 f0 ff ff    	mov    -0xf68(%rbp),%eax
    c0da:	21 d0                	and    %edx,%eax
    c0dc:	89 85 98 f0 ff ff    	mov    %eax,-0xf68(%rbp)
    c0e2:	e9 c3 00 00 00       	jmpq   c1aa <func_33+0x2859>
    c0e7:	48 c7 85 c8 ef ff ff 	movq   $0x0,-0x1038(%rbp)
    c0ee:	00 00 00 00 
    c0f2:	48 8d 85 60 f3 ff ff 	lea    -0xca0(%rbp),%rax
    c0f9:	48 05 8c 00 00 00    	add    $0x8c,%rax
    c0ff:	48 89 85 d0 ef ff ff 	mov    %rax,-0x1030(%rbp)
    c106:	48 8d 05 1b af 00 00 	lea    0xaf1b(%rip),%rax        # 17028 <g_52>
    c10d:	48 89 85 00 f9 ff ff 	mov    %rax,-0x700(%rbp)
    c114:	48 8d 05 0d af 00 00 	lea    0xaf0d(%rip),%rax        # 17028 <g_52>
    c11b:	48 89 85 08 f9 ff ff 	mov    %rax,-0x6f8(%rbp)
    c122:	48 8d 05 ff ae 00 00 	lea    0xaeff(%rip),%rax        # 17028 <g_52>
    c129:	48 89 85 10 f9 ff ff 	mov    %rax,-0x6f0(%rbp)
    c130:	48 8d 05 f1 ae 00 00 	lea    0xaef1(%rip),%rax        # 17028 <g_52>
    c137:	48 89 85 18 f9 ff ff 	mov    %rax,-0x6e8(%rbp)
    c13e:	48 8d 05 e3 ae 00 00 	lea    0xaee3(%rip),%rax        # 17028 <g_52>
    c145:	48 89 85 20 f9 ff ff 	mov    %rax,-0x6e0(%rbp)
    c14c:	48 8d 05 d5 ae 00 00 	lea    0xaed5(%rip),%rax        # 17028 <g_52>
    c153:	48 89 85 28 f9 ff ff 	mov    %rax,-0x6d8(%rbp)
    c15a:	48 8d 05 c7 ae 00 00 	lea    0xaec7(%rip),%rax        # 17028 <g_52>
    c161:	48 89 85 30 f9 ff ff 	mov    %rax,-0x6d0(%rbp)
    c168:	48 8d 05 b9 ae 00 00 	lea    0xaeb9(%rip),%rax        # 17028 <g_52>
    c16f:	48 89 85 38 f9 ff ff 	mov    %rax,-0x6c8(%rbp)
    c176:	48 8d 05 ab ae 00 00 	lea    0xaeab(%rip),%rax        # 17028 <g_52>
    c17d:	48 89 85 40 f9 ff ff 	mov    %rax,-0x6c0(%rbp)
    c184:	48 83 bd c8 ef ff ff 	cmpq   $0x0,-0x1038(%rbp)
    c18b:	00 
    c18c:	0f 94 c2             	sete   %dl
    c18f:	48 8b 05 1a ba 00 00 	mov    0xba1a(%rip),%rax        # 17bb0 <g_385>
    c196:	0f b6 d2             	movzbl %dl,%edx
    c199:	89 10                	mov    %edx,(%rax)
    c19b:	8b 85 64 f1 ff ff    	mov    -0xe9c(%rbp),%eax
    c1a1:	83 c0 01             	add    $0x1,%eax
    c1a4:	89 85 64 f1 ff ff    	mov    %eax,-0xe9c(%rbp)
    c1aa:	48 8b 85 30 ef ff ff 	mov    -0x10d0(%rbp),%rax
    c1b1:	8b 00                	mov    (%rax),%eax
    c1b3:	85 c0                	test   %eax,%eax
    c1b5:	74 40                	je     c1f7 <func_33+0x28a6>
    c1b7:	e9 04 08 00 00       	jmpq   c9c0 <func_33+0x306f>
    c1bc:	48 8d 05 4d b1 00 00 	lea    0xb14d(%rip),%rax        # 17310 <g_816>
    c1c3:	48 89 85 a0 ef ff ff 	mov    %rax,-0x1060(%rbp)
    c1ca:	48 8d 05 f7 b8 00 00 	lea    0xb8f7(%rip),%rax        # 17ac8 <g_105>
    c1d1:	48 89 85 f0 ee ff ff 	mov    %rax,-0x1110(%rbp)
    c1d8:	48 8b 85 a0 ef ff ff 	mov    -0x1060(%rbp),%rax
    c1df:	48 89 85 c8 ee ff ff 	mov    %rax,-0x1138(%rbp)
    c1e6:	48 8b 85 30 ef ff ff 	mov    -0x10d0(%rbp),%rax
    c1ed:	8b 00                	mov    (%rax),%eax
    c1ef:	85 c0                	test   %eax,%eax
    c1f1:	0f 85 e9 07 00 00    	jne    c9e0 <func_33+0x308f>
    c1f7:	48 8b 05 1a b1 00 00 	mov    0xb11a(%rip),%rax        # 17318 <g_861>
    c1fe:	8b 85 ec f3 ff ff    	mov    -0xc14(%rbp),%eax
    c204:	0f be c0             	movsbl %al,%eax
    c207:	89 c6                	mov    %eax,%esi
    c209:	bf 01 00 00 00       	mov    $0x1,%edi
    c20e:	e8 c1 5f ff ff       	callq  21d4 <safe_add_func_int8_t_s_s>
    c213:	0f be d0             	movsbl %al,%edx
    c216:	48 8b 85 88 ef ff ff 	mov    -0x1078(%rbp),%rax
    c21d:	48 8d 0d 3c ba 00 00 	lea    0xba3c(%rip),%rcx        # 17c60 <g_724>
    c224:	48 89 08             	mov    %rcx,(%rax)
    c227:	48 8b 85 88 ef ff ff 	mov    -0x1078(%rbp),%rax
    c22e:	48 8b 08             	mov    (%rax),%rcx
    c231:	48 8d 05 28 ba 00 00 	lea    0xba28(%rip),%rax        # 17c60 <g_724>
    c238:	48 89 05 69 ba 00 00 	mov    %rax,0xba69(%rip)        # 17ca8 <g_864+0x8>
    c23f:	48 8b 05 62 ba 00 00 	mov    0xba62(%rip),%rax        # 17ca8 <g_864+0x8>
    c246:	48 39 c1             	cmp    %rax,%rcx
    c249:	0f 94 c0             	sete   %al
    c24c:	0f b6 c0             	movzbl %al,%eax
    c24f:	39 c2                	cmp    %eax,%edx
    c251:	7c 22                	jl     c275 <func_33+0x2924>
    c253:	c7 85 64 ee ff ff 00 	movl   $0x0,-0x119c(%rbp)
    c25a:	00 00 00 
    c25d:	83 bd 64 ee ff ff 21 	cmpl   $0x21,-0x119c(%rbp)
    c264:	0f 85 1c 07 00 00    	jne    c986 <func_33+0x3035>
    c26a:	8b 85 ec f3 ff ff    	mov    -0xc14(%rbp),%eax
    c270:	e9 9d 07 00 00       	jmpq   ca12 <func_33+0x30c1>
    c275:	66 c7 85 3a ee ff ff 	movw   $0xffff,-0x11c6(%rbp)
    c27c:	ff ff 
    c27e:	c7 85 7c ee ff ff 0b 	movl   $0xd360210b,-0x1184(%rbp)
    c285:	21 60 d3 
    c288:	48 c7 85 80 f4 ff ff 	movq   $0x0,-0xb80(%rbp)
    c28f:	00 00 00 00 
    c293:	48 c7 85 88 f4 ff ff 	movq   $0x0,-0xb78(%rbp)
    c29a:	00 00 00 00 
    c29e:	48 c7 85 90 f4 ff ff 	movq   $0x0,-0xb70(%rbp)
    c2a5:	00 00 00 00 
    c2a9:	c7 85 98 f4 ff ff 00 	movl   $0x0,-0xb68(%rbp)
    c2b0:	00 00 00 
    c2b3:	c7 85 44 ee ff ff 00 	movl   $0x0,-0x11bc(%rbp)
    c2ba:	00 00 00 
    c2bd:	e9 79 02 00 00       	jmpq   c53b <func_33+0x2bea>
    c2c2:	48 b8 9b 0c 22 14 09 	movabs $0xa4d3a0914220c9b,%rax
    c2c9:	3a 4d 0a 
    c2cc:	48 89 85 f0 ef ff ff 	mov    %rax,-0x1010(%rbp)
    c2d3:	48 8d 05 4e ad 00 00 	lea    0xad4e(%rip),%rax        # 17028 <g_52>
    c2da:	48 89 85 f8 ef ff ff 	mov    %rax,-0x1008(%rbp)
    c2e1:	48 c7 85 00 f0 ff ff 	movq   $0x0,-0x1000(%rbp)
    c2e8:	00 00 00 00 
    c2ec:	48 8d 85 60 f3 ff ff 	lea    -0xca0(%rbp),%rax
    c2f3:	48 05 8c 00 00 00    	add    $0x8c,%rax
    c2f9:	48 89 85 08 f0 ff ff 	mov    %rax,-0xff8(%rbp)
    c300:	48 8d 85 60 f3 ff ff 	lea    -0xca0(%rbp),%rax
    c307:	48 83 c0 48          	add    $0x48,%rax
    c30b:	48 89 85 10 f0 ff ff 	mov    %rax,-0xff0(%rbp)
    c312:	48 8d 85 60 f3 ff ff 	lea    -0xca0(%rbp),%rax
    c319:	48 05 8c 00 00 00    	add    $0x8c,%rax
    c31f:	48 89 85 18 f0 ff ff 	mov    %rax,-0xfe8(%rbp)
    c326:	48 8d 85 a0 f0 ff ff 	lea    -0xf60(%rbp),%rax
    c32d:	48 83 c0 08          	add    $0x8,%rax
    c331:	48 89 85 20 f0 ff ff 	mov    %rax,-0xfe0(%rbp)
    c338:	48 8d 85 a0 f0 ff ff 	lea    -0xf60(%rbp),%rax
    c33f:	48 83 c0 08          	add    $0x8,%rax
    c343:	48 89 85 28 f0 ff ff 	mov    %rax,-0xfd8(%rbp)
    c34a:	48 8d 85 60 f3 ff ff 	lea    -0xca0(%rbp),%rax
    c351:	48 05 8c 00 00 00    	add    $0x8c,%rax
    c357:	48 89 85 00 f9 ff ff 	mov    %rax,-0x700(%rbp)
    c35e:	48 8d 85 60 f3 ff ff 	lea    -0xca0(%rbp),%rax
    c365:	48 05 8c 00 00 00    	add    $0x8c,%rax
    c36b:	48 89 85 08 f9 ff ff 	mov    %rax,-0x6f8(%rbp)
    c372:	48 8d 85 60 f3 ff ff 	lea    -0xca0(%rbp),%rax
    c379:	48 05 8c 00 00 00    	add    $0x8c,%rax
    c37f:	48 89 85 10 f9 ff ff 	mov    %rax,-0x6f0(%rbp)
    c386:	48 8d 05 9b ac 00 00 	lea    0xac9b(%rip),%rax        # 17028 <g_52>
    c38d:	48 89 85 18 f9 ff ff 	mov    %rax,-0x6e8(%rbp)
    c394:	48 c7 85 20 f9 ff ff 	movq   $0x0,-0x6e0(%rbp)
    c39b:	00 00 00 00 
    c39f:	48 8d 05 82 ac 00 00 	lea    0xac82(%rip),%rax        # 17028 <g_52>
    c3a6:	48 89 85 28 f9 ff ff 	mov    %rax,-0x6d8(%rbp)
    c3ad:	48 8d 85 60 f3 ff ff 	lea    -0xca0(%rbp),%rax
    c3b4:	48 05 8c 00 00 00    	add    $0x8c,%rax
    c3ba:	48 89 85 30 f9 ff ff 	mov    %rax,-0x6d0(%rbp)
    c3c1:	48 8d 85 60 f3 ff ff 	lea    -0xca0(%rbp),%rax
    c3c8:	48 05 8c 00 00 00    	add    $0x8c,%rax
    c3ce:	48 89 85 38 f9 ff ff 	mov    %rax,-0x6c8(%rbp)
    c3d5:	48 8d 85 60 f3 ff ff 	lea    -0xca0(%rbp),%rax
    c3dc:	48 05 8c 00 00 00    	add    $0x8c,%rax
    c3e2:	48 89 85 40 f9 ff ff 	mov    %rax,-0x6c0(%rbp)
    c3e9:	48 8d 05 38 ac 00 00 	lea    0xac38(%rip),%rax        # 17028 <g_52>
    c3f0:	48 89 85 48 f9 ff ff 	mov    %rax,-0x6b8(%rbp)
    c3f7:	48 c7 85 50 f9 ff ff 	movq   $0x0,-0x6b0(%rbp)
    c3fe:	00 00 00 00 
    c402:	48 8d 05 1f ac 00 00 	lea    0xac1f(%rip),%rax        # 17028 <g_52>
    c409:	48 89 85 58 f9 ff ff 	mov    %rax,-0x6a8(%rbp)
    c410:	48 8d 85 60 f3 ff ff 	lea    -0xca0(%rbp),%rax
    c417:	48 05 8c 00 00 00    	add    $0x8c,%rax
    c41d:	48 89 85 60 f9 ff ff 	mov    %rax,-0x6a0(%rbp)
    c424:	48 8d 85 60 f3 ff ff 	lea    -0xca0(%rbp),%rax
    c42b:	48 05 8c 00 00 00    	add    $0x8c,%rax
    c431:	48 89 85 68 f9 ff ff 	mov    %rax,-0x698(%rbp)
    c438:	48 8d 85 60 f3 ff ff 	lea    -0xca0(%rbp),%rax
    c43f:	48 05 8c 00 00 00    	add    $0x8c,%rax
    c445:	48 89 85 70 f9 ff ff 	mov    %rax,-0x690(%rbp)
    c44c:	48 8d 05 d5 ab 00 00 	lea    0xabd5(%rip),%rax        # 17028 <g_52>
    c453:	48 89 85 78 f9 ff ff 	mov    %rax,-0x688(%rbp)
    c45a:	48 c7 85 80 f9 ff ff 	movq   $0x0,-0x680(%rbp)
    c461:	00 00 00 00 
    c465:	48 8d 05 bc ab 00 00 	lea    0xabbc(%rip),%rax        # 17028 <g_52>
    c46c:	48 89 85 88 f9 ff ff 	mov    %rax,-0x678(%rbp)
    c473:	c7 85 84 ee ff ff b2 	movl   $0xfa9f0fb2,-0x117c(%rbp)
    c47a:	0f 9f fa 
    c47d:	48 8b 85 f0 ef ff ff 	mov    -0x1010(%rbp),%rax
    c484:	89 c3                	mov    %eax,%ebx
    c486:	48 8b 05 33 b6 00 00 	mov    0xb633(%rip),%rax        # 17ac0 <g_106>
    c48d:	0f b6 00             	movzbl (%rax),%eax
    c490:	66 98                	cbtw   
    c492:	66 39 85 3a ee ff ff 	cmp    %ax,-0x11c6(%rbp)
    c499:	0f 95 c0             	setne  %al
    c49c:	0f b6 c0             	movzbl %al,%eax
    c49f:	be 0f 00 00 00       	mov    $0xf,%esi
    c4a4:	89 c7                	mov    %eax,%edi
    c4a6:	e8 13 69 ff ff       	callq  2dbe <safe_lshift_func_uint16_t_u_s>
    c4ab:	89 de                	mov    %ebx,%esi
    c4ad:	bf 01 00 00 00       	mov    $0x1,%edi
    c4b2:	e8 4f 69 ff ff       	callq  2e06 <safe_lshift_func_uint16_t_u_u>
    c4b7:	0f b7 d8             	movzwl %ax,%ebx
    c4ba:	48 0f bf 85 3a ee ff 	movswq -0x11c6(%rbp),%rax
    c4c1:	ff 
    c4c2:	48 89 c6             	mov    %rax,%rsi
    c4c5:	48 c7 c7 ff ff ff ff 	mov    $0xffffffffffffffff,%rdi
    c4cc:	e8 e3 64 ff ff       	callq  29b4 <safe_mod_func_int64_t_s_s>
    c4d1:	89 de                	mov    %ebx,%esi
    c4d3:	89 c7                	mov    %eax,%edi
    c4d5:	e8 f6 69 ff ff       	callq  2ed0 <safe_sub_func_uint32_t_u_u>
    c4da:	48 8b 95 f8 ef ff ff 	mov    -0x1008(%rbp),%rdx
    c4e1:	8b 12                	mov    (%rdx),%edx
    c4e3:	21 d0                	and    %edx,%eax
    c4e5:	89 c2                	mov    %eax,%edx
    c4e7:	48 8b 85 f8 ef ff ff 	mov    -0x1008(%rbp),%rax
    c4ee:	89 10                	mov    %edx,(%rax)
    c4f0:	0f b6 05 8f ad 00 00 	movzbl 0xad8f(%rip),%eax        # 17286 <g_550+0x6>
    c4f7:	48 8b 05 b2 b6 00 00 	mov    0xb6b2(%rip),%rax        # 17bb0 <g_385>
    c4fe:	c7 00 01 00 00 00    	movl   $0x1,(%rax)
    c504:	83 ad 84 ee ff ff 01 	subl   $0x1,-0x117c(%rbp)
    c50b:	48 8b 85 08 f0 ff ff 	mov    -0xff8(%rbp),%rax
    c512:	c7 00 ff ff ff ff    	movl   $0xffffffff,(%rax)
    c518:	48 8b 85 88 ef ff ff 	mov    -0x1078(%rbp),%rax
    c51f:	48 8b 00             	mov    (%rax),%rax
    c522:	48 8d 95 80 f4 ff ff 	lea    -0xb80(%rbp),%rdx
    c529:	48 89 10             	mov    %rdx,(%rax)
    c52c:	8b 85 44 ee ff ff    	mov    -0x11bc(%rbp),%eax
    c532:	83 e8 01             	sub    $0x1,%eax
    c535:	89 85 44 ee ff ff    	mov    %eax,-0x11bc(%rbp)
    c53b:	8b 85 44 ee ff ff    	mov    -0x11bc(%rbp),%eax
    c541:	83 f8 f8             	cmp    $0xfffffff8,%eax
    c544:	0f 8d 78 fd ff ff    	jge    c2c2 <func_33+0x2971>
    c54a:	c7 05 e4 aa 00 00 e6 	movl   $0xffffffe6,0xaae4(%rip)        # 17038 <g_99>
    c551:	ff ff ff 
    c554:	e9 1c 04 00 00       	jmpq   c975 <func_33+0x3024>
    c559:	c7 85 80 ee ff ff b6 	movl   $0xf1c0ecb6,-0x1180(%rbp)
    c560:	ec c0 f1 
    c563:	48 8d 85 44 ee ff ff 	lea    -0x11bc(%rbp),%rax
    c56a:	48 89 85 e8 ef ff ff 	mov    %rax,-0x1018(%rbp)
    c571:	48 8d 85 38 ee ff ff 	lea    -0x11c8(%rbp),%rax
    c578:	48 89 85 00 f9 ff ff 	mov    %rax,-0x700(%rbp)
    c57f:	48 8d 85 38 ee ff ff 	lea    -0x11c8(%rbp),%rax
    c586:	48 89 85 08 f9 ff ff 	mov    %rax,-0x6f8(%rbp)
    c58d:	48 8d 85 38 ee ff ff 	lea    -0x11c8(%rbp),%rax
    c594:	48 89 85 10 f9 ff ff 	mov    %rax,-0x6f0(%rbp)
    c59b:	48 8d 85 38 ee ff ff 	lea    -0x11c8(%rbp),%rax
    c5a2:	48 89 85 18 f9 ff ff 	mov    %rax,-0x6e8(%rbp)
    c5a9:	48 8d 85 38 ee ff ff 	lea    -0x11c8(%rbp),%rax
    c5b0:	48 89 85 20 f9 ff ff 	mov    %rax,-0x6e0(%rbp)
    c5b7:	48 8d 85 38 ee ff ff 	lea    -0x11c8(%rbp),%rax
    c5be:	48 89 85 28 f9 ff ff 	mov    %rax,-0x6d8(%rbp)
    c5c5:	48 8d 85 38 ee ff ff 	lea    -0x11c8(%rbp),%rax
    c5cc:	48 89 85 30 f9 ff ff 	mov    %rax,-0x6d0(%rbp)
    c5d3:	48 8d 85 38 ee ff ff 	lea    -0x11c8(%rbp),%rax
    c5da:	48 89 85 38 f9 ff ff 	mov    %rax,-0x6c8(%rbp)
    c5e1:	c7 85 54 ee ff ff 00 	movl   $0x0,-0x11ac(%rbp)
    c5e8:	00 00 00 
    c5eb:	eb 77                	jmp    c664 <func_33+0x2d13>
    c5ed:	c7 85 58 ee ff ff 00 	movl   $0x0,-0x11a8(%rbp)
    c5f4:	00 00 00 
    c5f7:	eb 5b                	jmp    c654 <func_33+0x2d03>
    c5f9:	c7 85 5c ee ff ff 00 	movl   $0x0,-0x11a4(%rbp)
    c600:	00 00 00 
    c603:	eb 3f                	jmp    c644 <func_33+0x2cf3>
    c605:	8b 85 5c ee ff ff    	mov    -0x11a4(%rbp),%eax
    c60b:	48 63 c8             	movslq %eax,%rcx
    c60e:	8b 85 54 ee ff ff    	mov    -0x11ac(%rbp),%eax
    c614:	48 63 d0             	movslq %eax,%rdx
    c617:	8b 85 58 ee ff ff    	mov    -0x11a8(%rbp),%eax
    c61d:	48 98                	cltq   
    c61f:	48 01 c2             	add    %rax,%rdx
    c622:	48 89 d0             	mov    %rdx,%rax
    c625:	48 01 c0             	add    %rax,%rax
    c628:	48 01 d0             	add    %rdx,%rax
    c62b:	48 01 c8             	add    %rcx,%rax
    c62e:	48 8d 15 53 ac 00 00 	lea    0xac53(%rip),%rdx        # 17288 <g_572>
    c635:	48 89 94 c5 40 f1 ff 	mov    %rdx,-0xec0(%rbp,%rax,8)
    c63c:	ff 
    c63d:	83 85 5c ee ff ff 01 	addl   $0x1,-0x11a4(%rbp)
    c644:	83 bd 5c ee ff ff 02 	cmpl   $0x2,-0x11a4(%rbp)
    c64b:	7e b8                	jle    c605 <func_33+0x2cb4>
    c64d:	83 85 58 ee ff ff 01 	addl   $0x1,-0x11a8(%rbp)
    c654:	83 bd 58 ee ff ff 00 	cmpl   $0x0,-0x11a8(%rbp)
    c65b:	7e 9c                	jle    c5f9 <func_33+0x2ca8>
    c65d:	83 85 54 ee ff ff 01 	addl   $0x1,-0x11ac(%rbp)
    c664:	83 bd 54 ee ff ff 00 	cmpl   $0x0,-0x11ac(%rbp)
    c66b:	7e 80                	jle    c5ed <func_33+0x2c9c>
    c66d:	0f b6 05 c9 a9 00 00 	movzbl 0xa9c9(%rip),%eax        # 1703d <g_124>
    c674:	84 c0                	test   %al,%al
    c676:	0f 85 da 00 00 00    	jne    c756 <func_33+0x2e05>
    c67c:	48 8b 85 28 ef ff ff 	mov    -0x10d8(%rbp),%rax
    c683:	0f b7 00             	movzwl (%rax),%eax
    c686:	8d 50 ff             	lea    -0x1(%rax),%edx
    c689:	48 8b 85 28 ef ff ff 	mov    -0x10d8(%rbp),%rax
    c690:	66 89 10             	mov    %dx,(%rax)
    c693:	48 8b 85 28 ef ff ff 	mov    -0x10d8(%rbp),%rax
    c69a:	0f b7 00             	movzwl (%rax),%eax
    c69d:	0f b7 c0             	movzwl %ax,%eax
    c6a0:	89 c6                	mov    %eax,%esi
    c6a2:	bf ff ff 00 00       	mov    $0xffff,%edi
    c6a7:	e8 53 66 ff ff       	callq  2cff <safe_add_func_uint16_t_u_u>
    c6ac:	89 c2                	mov    %eax,%edx
    c6ae:	0f b6 05 88 a9 00 00 	movzbl 0xa988(%rip),%eax        # 1703d <g_124>
    c6b5:	0f b6 d8             	movzbl %al,%ebx
    c6b8:	8b 85 7c ee ff ff    	mov    -0x1184(%rbp),%eax
    c6be:	4c 63 e0             	movslq %eax,%r12
    c6c1:	48 8b 85 90 ef ff ff 	mov    -0x1070(%rbp),%rax
    c6c8:	0f b6 00             	movzbl (%rax),%eax
    c6cb:	09 c2                	or     %eax,%edx
    c6cd:	48 8b 85 90 ef ff ff 	mov    -0x1070(%rbp),%rax
    c6d4:	88 10                	mov    %dl,(%rax)
    c6d6:	48 8b 85 90 ef ff ff 	mov    -0x1070(%rbp),%rax
    c6dd:	44 0f b6 28          	movzbl (%rax),%r13d
    c6e1:	8b 85 60 ee ff ff    	mov    -0x11a0(%rbp),%eax
    c6e7:	0f b6 c0             	movzbl %al,%eax
    c6ea:	89 c6                	mov    %eax,%esi
    c6ec:	bf 00 00 00 00       	mov    $0x0,%edi
    c6f1:	e8 9d 64 ff ff       	callq  2b93 <safe_mul_func_uint8_t_u_u>
    c6f6:	44 31 e8             	xor    %r13d,%eax
    c6f9:	83 f0 28             	xor    $0x28,%eax
    c6fc:	0f b6 c0             	movzbl %al,%eax
    c6ff:	49 39 c4             	cmp    %rax,%r12
    c702:	0f 95 c0             	setne  %al
    c705:	0f b6 d0             	movzbl %al,%edx
    c708:	48 8b 05 b1 b3 00 00 	mov    0xb3b1(%rip),%rax        # 17ac0 <g_106>
    c70f:	0f b6 00             	movzbl (%rax),%eax
    c712:	0f be c0             	movsbl %al,%eax
    c715:	39 c2                	cmp    %eax,%edx
    c717:	0f 9c c0             	setl   %al
    c71a:	0f b6 c0             	movzbl %al,%eax
    c71d:	8b 95 80 ee ff ff    	mov    -0x1180(%rbp),%edx
    c723:	09 d0                	or     %edx,%eax
    c725:	09 d8                	or     %ebx,%eax
    c727:	0f bf d0             	movswl %ax,%edx
    c72a:	0f b6 05 27 69 00 00 	movzbl 0x6927(%rip),%eax        # 13058 <g_467>
    c731:	0f b6 c0             	movzbl %al,%eax
    c734:	89 d6                	mov    %edx,%esi
    c736:	89 c7                	mov    %eax,%edi
    c738:	e8 b8 5c ff ff       	callq  23f5 <safe_mul_func_int16_t_s_s>
    c73d:	f7 d0                	not    %eax
    c73f:	0f be d0             	movsbl %al,%edx
    c742:	8b 85 80 f4 ff ff    	mov    -0xb80(%rbp),%eax
    c748:	0f be c0             	movsbl %al,%eax
    c74b:	89 d6                	mov    %edx,%esi
    c74d:	89 c7                	mov    %eax,%edi
    c74f:	e8 dd 5a ff ff       	callq  2231 <safe_mod_func_int8_t_s_s>
    c754:	84 c0                	test   %al,%al
    c756:	0f b6 85 2a f3 ff ff 	movzbl -0xcd6(%rbp),%eax
    c75d:	0f be c0             	movsbl %al,%eax
    c760:	be 03 00 00 00       	mov    $0x3,%esi
    c765:	89 c7                	mov    %eax,%edi
    c767:	e8 c9 5b ff ff       	callq  2335 <safe_rshift_func_int8_t_s_s>
    c76c:	0f be c0             	movsbl %al,%eax
    c76f:	be 1d 65 14 99       	mov    $0x9914651d,%esi
    c774:	89 c7                	mov    %eax,%edi
    c776:	e8 8a 5e ff ff       	callq  2605 <safe_sub_func_int32_t_s_s>
    c77b:	0f b7 15 4a a9 00 00 	movzwl 0xa94a(%rip),%edx        # 170cc <g_431>
    c782:	48 8b 05 27 b4 00 00 	mov    0xb427(%rip),%rax        # 17bb0 <g_385>
    c789:	0f b7 d2             	movzwl %dx,%edx
    c78c:	89 10                	mov    %edx,(%rax)
    c78e:	48 8b 05 23 b4 00 00 	mov    0xb423(%rip),%rax        # 17bb8 <g_384>
    c795:	48 8b 00             	mov    (%rax),%rax
    c798:	8b 10                	mov    (%rax),%edx
    c79a:	48 8b 85 e8 ef ff ff 	mov    -0x1018(%rbp),%rax
    c7a1:	8b 00                	mov    (%rax),%eax
    c7a3:	21 c2                	and    %eax,%edx
    c7a5:	48 8b 85 e8 ef ff ff 	mov    -0x1018(%rbp),%rax
    c7ac:	89 10                	mov    %edx,(%rax)
    c7ae:	48 8b 85 30 ef ff ff 	mov    -0x10d0(%rbp),%rax
    c7b5:	8b 00                	mov    (%rax),%eax
    c7b7:	89 c3                	mov    %eax,%ebx
    c7b9:	48 8b 85 48 ef ff ff 	mov    -0x10b8(%rbp),%rax
    c7c0:	be ff ff ff ff       	mov    $0xffffffff,%esi
    c7c5:	89 c7                	mov    %eax,%edi
    c7c7:	e8 00 5f ff ff       	callq  26cc <safe_mod_func_int32_t_s_s>
    c7cc:	8b 05 52 a8 00 00    	mov    0xa852(%rip),%eax        # 17024 <g_15>
    c7d2:	89 c1                	mov    %eax,%ecx
    c7d4:	66 0f be 95 37 ee ff 	movsbw -0x11c9(%rbp),%dx
    c7db:	ff 
    c7dc:	48 8b 85 28 ef ff ff 	mov    -0x10d8(%rbp),%rax
    c7e3:	66 89 10             	mov    %dx,(%rax)
    c7e6:	48 8b 85 28 ef ff ff 	mov    -0x10d8(%rbp),%rax
    c7ed:	0f b7 00             	movzwl (%rax),%eax
    c7f0:	0f b7 c0             	movzwl %ax,%eax
    c7f3:	89 ce                	mov    %ecx,%esi
    c7f5:	89 c7                	mov    %eax,%edi
    c7f7:	e8 4c 66 ff ff       	callq  2e48 <safe_rshift_func_uint16_t_u_s>
    c7fc:	0f b7 d0             	movzwl %ax,%edx
    c7ff:	48 8b 85 e8 ef ff ff 	mov    -0x1018(%rbp),%rax
    c806:	89 10                	mov    %edx,(%rax)
    c808:	48 8b 85 e8 ef ff ff 	mov    -0x1018(%rbp),%rax
    c80f:	8b 00                	mov    (%rax),%eax
    c811:	0f b7 c0             	movzwl %ax,%eax
    c814:	be 0c 00 00 00       	mov    $0xc,%esi
    c819:	89 c7                	mov    %eax,%edi
    c81b:	e8 28 66 ff ff       	callq  2e48 <safe_rshift_func_uint16_t_u_s>
    c820:	48 8b 85 30 ef ff ff 	mov    -0x10d0(%rbp),%rax
    c827:	8b 00                	mov    (%rax),%eax
    c829:	0f b6 d0             	movzbl %al,%edx
    c82c:	48 83 bd f8 ee ff ff 	cmpq   $0x0,-0x1108(%rbp)
    c833:	00 
    c834:	74 17                	je     c84d <func_33+0x2efc>
    c836:	66 c7 05 35 a8 00 00 	movw   $0x0,0xa835(%rip)        # 17074 <g_254>
    c83d:	00 00 
    c83f:	b9 01 00 00 00       	mov    $0x1,%ecx
    c844:	48 8b 85 e8 ef ff ff 	mov    -0x1018(%rbp),%rax
    c84b:	89 08                	mov    %ecx,(%rax)
    c84d:	b9 01 00 00 00       	mov    $0x1,%ecx
    c852:	0f b7 05 cf aa 00 00 	movzwl 0xaacf(%rip),%eax        # 17328 <g_950>
    c859:	98                   	cwtl   
    c85a:	39 c1                	cmp    %eax,%ecx
    c85c:	0f 95 c0             	setne  %al
    c85f:	0f b6 c0             	movzbl %al,%eax
    c862:	0b 85 80 ee ff ff    	or     -0x1180(%rbp),%eax
    c868:	35 a6 ab 7a 2e       	xor    $0x2e7aaba6,%eax
    c86d:	48 63 c8             	movslq %eax,%rcx
    c870:	8b 85 80 f4 ff ff    	mov    -0xb80(%rbp),%eax
    c876:	09 c8                	or     %ecx,%eax
    c878:	89 85 80 f4 ff ff    	mov    %eax,-0xb80(%rbp)
    c87e:	8b 85 80 f4 ff ff    	mov    -0xb80(%rbp),%eax
    c884:	f7 d0                	not    %eax
    c886:	0f b6 c0             	movzbl %al,%eax
    c889:	89 d6                	mov    %edx,%esi
    c88b:	89 c7                	mov    %eax,%edi
    c88d:	e8 49 63 ff ff       	callq  2bdb <safe_div_func_uint8_t_u_u>
    c892:	84 c0                	test   %al,%al
    c894:	0f 95 c0             	setne  %al
    c897:	0f b6 d0             	movzbl %al,%edx
    c89a:	48 8b 85 30 ef ff ff 	mov    -0x10d0(%rbp),%rax
    c8a1:	8b 00                	mov    (%rax),%eax
    c8a3:	39 c2                	cmp    %eax,%edx
    c8a5:	0f 9e c0             	setle  %al
    c8a8:	0f b6 d0             	movzbl %al,%edx
    c8ab:	48 8b 05 0e a8 00 00 	mov    0xa80e(%rip),%rax        # 170c0 <g_299>
    c8b2:	48 39 c2             	cmp    %rax,%rdx
    c8b5:	0f 94 c0             	sete   %al
    c8b8:	0f b6 d0             	movzbl %al,%edx
    c8bb:	48 8b 85 30 ef ff ff 	mov    -0x10d0(%rbp),%rax
    c8c2:	8b 00                	mov    (%rax),%eax
    c8c4:	39 c2                	cmp    %eax,%edx
    c8c6:	0f 95 c0             	setne  %al
    c8c9:	0f b6 c0             	movzbl %al,%eax
    c8cc:	be 8b fc 9d 21       	mov    $0x219dfc8b,%esi
    c8d1:	89 c7                	mov    %eax,%edi
    c8d3:	e8 de 5c ff ff       	callq  25b6 <safe_add_func_int32_t_s_s>
    c8d8:	0f b6 05 29 aa 00 00 	movzbl 0xaa29(%rip),%eax        # 17308 <g_814>
    c8df:	89 de                	mov    %ebx,%esi
    c8e1:	bf ff ff 00 00       	mov    $0xffff,%edi
    c8e6:	e8 8f 65 ff ff       	callq  2e7a <safe_rshift_func_uint16_t_u_u>
    c8eb:	0f b7 c0             	movzwl %ax,%eax
    c8ee:	48 f7 d0             	not    %rax
    c8f1:	8b 95 d0 f1 ff ff    	mov    -0xe30(%rbp),%edx
    c8f7:	89 d2                	mov    %edx,%edx
    c8f9:	48 31 c2             	xor    %rax,%rdx
    c8fc:	8b 85 80 ee ff ff    	mov    -0x1180(%rbp),%eax
    c902:	48 98                	cltq   
    c904:	48 89 d1             	mov    %rdx,%rcx
    c907:	48 31 c1             	xor    %rax,%rcx
    c90a:	48 8b 85 90 ef ff ff 	mov    -0x1070(%rbp),%rax
    c911:	0f b6 00             	movzbl (%rax),%eax
    c914:	89 c2                	mov    %eax,%edx
    c916:	89 c8                	mov    %ecx,%eax
    c918:	21 d0                	and    %edx,%eax
    c91a:	89 c2                	mov    %eax,%edx
    c91c:	48 8b 85 90 ef ff ff 	mov    -0x1070(%rbp),%rax
    c923:	88 10                	mov    %dl,(%rax)
    c925:	48 8b 85 90 ef ff ff 	mov    -0x1070(%rbp),%rax
    c92c:	0f b6 00             	movzbl (%rax),%eax
    c92f:	0f b6 c0             	movzbl %al,%eax
    c932:	be 03 00 00 00       	mov    $0x3,%esi
    c937:	89 c7                	mov    %eax,%edi
    c939:	e8 80 63 ff ff       	callq  2cbe <safe_rshift_func_uint8_t_u_u>
    c93e:	8b 95 cc f0 ff ff    	mov    -0xf34(%rbp),%edx
    c944:	0f b6 c0             	movzbl %al,%eax
    c947:	09 d0                	or     %edx,%eax
    c949:	89 85 cc f0 ff ff    	mov    %eax,-0xf34(%rbp)
    c94f:	48 8b 05 fa b2 00 00 	mov    0xb2fa(%rip),%rax        # 17c50 <g_679>
    c956:	48 8b 00             	mov    (%rax),%rax
    c959:	8b 00                	mov    (%rax),%eax
    c95b:	85 c0                	test   %eax,%eax
    c95d:	8b 05 d5 a6 00 00    	mov    0xa6d5(%rip),%eax        # 17038 <g_99>
    c963:	be 07 00 00 00       	mov    $0x7,%esi
    c968:	89 c7                	mov    %eax,%edi
    c96a:	e8 47 5c ff ff       	callq  25b6 <safe_add_func_int32_t_s_s>
    c96f:	89 05 c3 a6 00 00    	mov    %eax,0xa6c3(%rip)        # 17038 <g_99>
    c975:	8b 05 bd a6 00 00    	mov    0xa6bd(%rip),%eax        # 17038 <g_99>
    c97b:	83 f8 ef             	cmp    $0xffffffef,%eax
    c97e:	0f 84 d5 fb ff ff    	je     c559 <func_33+0x2c08>
    c984:	eb 01                	jmp    c987 <func_33+0x3036>
    c986:	90                   	nop
    c987:	48 c7 85 b0 ee ff ff 	movq   $0xffffffffffffffe8,-0x1150(%rbp)
    c98e:	e8 ff ff ff 
    c992:	90                   	nop
    c993:	48 8b 85 b0 ee ff ff 	mov    -0x1150(%rbp),%rax
    c99a:	48 83 f8 e7          	cmp    $0xffffffffffffffe7,%rax
    c99e:	7d 19                	jge    c9b9 <func_33+0x3068>
    c9a0:	48 8b 85 e8 ee ff ff 	mov    -0x1118(%rbp),%rax
    c9a7:	48 8d 95 c8 ee ff ff 	lea    -0x1138(%rbp),%rdx
    c9ae:	48 89 10             	mov    %rdx,(%rax)
    c9b1:	8b 85 00 f1 ff ff    	mov    -0xf00(%rbp),%eax
    c9b7:	eb 59                	jmp    ca12 <func_33+0x30c1>
    c9b9:	83 ad 48 ee ff ff 01 	subl   $0x1,-0x11b8(%rbp)
    c9c0:	8b 05 02 a9 00 00    	mov    0xa902(%rip),%eax        # 172c8 <g_658>
    c9c6:	83 c0 01             	add    $0x1,%eax
    c9c9:	89 05 f9 a8 00 00    	mov    %eax,0xa8f9(%rip)        # 172c8 <g_658>
    c9cf:	8b 05 f3 a8 00 00    	mov    0xa8f3(%rip),%eax        # 172c8 <g_658>
    c9d5:	83 f8 02             	cmp    $0x2,%eax
    c9d8:	0f 87 53 d4 ff ff    	ja     9e31 <func_33+0x4e0>
    c9de:	eb 01                	jmp    c9e1 <func_33+0x3090>
    c9e0:	90                   	nop
    c9e1:	0f b6 05 38 b9 00 00 	movzbl 0xb938(%rip),%eax        # 18320 <g_542>
    c9e8:	0f be c0             	movsbl %al,%eax
    c9eb:	be 05 00 00 00       	mov    $0x5,%esi
    c9f0:	89 c7                	mov    %eax,%edi
    c9f2:	e8 bc 59 ff ff       	callq  23b3 <safe_add_func_int16_t_s_s>
    c9f7:	88 05 23 b9 00 00    	mov    %al,0xb923(%rip)        # 18320 <g_542>
    c9fd:	0f b6 05 1c b9 00 00 	movzbl 0xb91c(%rip),%eax        # 18320 <g_542>
    ca04:	3c 1b                	cmp    $0x1b,%al
    ca06:	0f 8e b8 d3 ff ff    	jle    9dc4 <func_33+0x473>
    ca0c:	8b 85 3c ee ff ff    	mov    -0x11c4(%rbp),%eax
    ca12:	48 8b 5d c8          	mov    -0x38(%rbp),%rbx
    ca16:	64 48 33 1c 25 28 00 	xor    %fs:0x28,%rbx
    ca1d:	00 00 
    ca1f:	74 05                	je     ca26 <func_33+0x30d5>
    ca21:	e8 4a 56 ff ff       	callq  2070 <__stack_chk_fail@plt>
    ca26:	48 81 c4 c8 11 00 00 	add    $0x11c8,%rsp
    ca2d:	5b                   	pop    %rbx
    ca2e:	41 5c                	pop    %r12
    ca30:	41 5d                	pop    %r13
    ca32:	41 5e                	pop    %r14
    ca34:	41 5f                	pop    %r15
    ca36:	5d                   	pop    %rbp
    ca37:	c3                   	retq   

000000000000ca38 <func_37>:
    ca38:	f3 0f 1e fa          	endbr64 
    ca3c:	55                   	push   %rbp
    ca3d:	48 89 e5             	mov    %rsp,%rbp
    ca40:	48 83 ec 28          	sub    $0x28,%rsp
    ca44:	89 f0                	mov    %esi,%eax
    ca46:	89 d6                	mov    %edx,%esi
    ca48:	48 89 4d d8          	mov    %rcx,-0x28(%rbp)
    ca4c:	44 89 c2             	mov    %r8d,%edx
    ca4f:	89 f9                	mov    %edi,%ecx
    ca51:	88 4d ec             	mov    %cl,-0x14(%rbp)
    ca54:	66 89 45 e8          	mov    %ax,-0x18(%rbp)
    ca58:	89 f0                	mov    %esi,%eax
    ca5a:	88 45 e4             	mov    %al,-0x1c(%rbp)
    ca5d:	89 d0                	mov    %edx,%eax
    ca5f:	66 89 45 e0          	mov    %ax,-0x20(%rbp)
    ca63:	c6 45 ff 09          	movb   $0x9,-0x1(%rbp)
    ca67:	8b 05 bb a5 00 00    	mov    0xa5bb(%rip),%eax        # 17028 <g_52>
    ca6d:	89 c6                	mov    %eax,%esi
    ca6f:	bf f6 ff ff ff       	mov    $0xfffffff6,%edi
    ca74:	e8 57 64 ff ff       	callq  2ed0 <safe_sub_func_uint32_t_u_u>
    ca79:	89 c2                	mov    %eax,%edx
    ca7b:	48 8b 05 ae a5 00 00 	mov    0xa5ae(%rip),%rax        # 17030 <g_67>
    ca82:	48 31 d0             	xor    %rdx,%rax
    ca85:	48 89 05 a4 a5 00 00 	mov    %rax,0xa5a4(%rip)        # 17030 <g_67>
    ca8c:	0f b6 45 ff          	movzbl -0x1(%rbp),%eax
    ca90:	c9                   	leaveq 
    ca91:	c3                   	retq   

000000000000ca92 <func_45>:
    ca92:	f3 0f 1e fa          	endbr64 
    ca96:	55                   	push   %rbp
    ca97:	48 89 e5             	mov    %rsp,%rbp
    ca9a:	48 81 ec 20 04 00 00 	sub    $0x420,%rsp
    caa1:	48 89 bd f8 fb ff ff 	mov    %rdi,-0x408(%rbp)
    caa8:	48 89 b5 f0 fb ff ff 	mov    %rsi,-0x410(%rbp)
    caaf:	89 95 ec fb ff ff    	mov    %edx,-0x414(%rbp)
    cab5:	64 48 8b 04 25 28 00 	mov    %fs:0x28,%rax
    cabc:	00 00 
    cabe:	48 89 45 f8          	mov    %rax,-0x8(%rbp)
    cac2:	31 c0                	xor    %eax,%eax
    cac4:	48 8d 05 5d a5 00 00 	lea    0xa55d(%rip),%rax        # 17028 <g_52>
    cacb:	48 89 85 08 fc ff ff 	mov    %rax,-0x3f8(%rbp)
    cad2:	48 8d 05 4f a5 00 00 	lea    0xa54f(%rip),%rax        # 17028 <g_52>
    cad9:	48 89 85 10 fc ff ff 	mov    %rax,-0x3f0(%rbp)
    cae0:	48 8d 05 41 a5 00 00 	lea    0xa541(%rip),%rax        # 17028 <g_52>
    cae7:	48 89 85 18 fc ff ff 	mov    %rax,-0x3e8(%rbp)
    caee:	48 8d 05 33 a5 00 00 	lea    0xa533(%rip),%rax        # 17028 <g_52>
    caf5:	48 89 85 20 fc ff ff 	mov    %rax,-0x3e0(%rbp)
    cafc:	48 c7 85 28 fc ff ff 	movq   $0x0,-0x3d8(%rbp)
    cb03:	00 00 00 00 
    cb07:	48 8d 85 20 fd ff ff 	lea    -0x2e0(%rbp),%rax
    cb0e:	48 8d 15 2b 6d 00 00 	lea    0x6d2b(%rip),%rdx        # 13840 <g_1644+0x750>
    cb15:	b9 5a 00 00 00       	mov    $0x5a,%ecx
    cb1a:	48 89 c7             	mov    %rax,%rdi
    cb1d:	48 89 d6             	mov    %rdx,%rsi
    cb20:	f3 48 a5             	rep movsq %ds:(%rsi),%es:(%rdi)
    cb23:	48 8d 85 20 fd ff ff 	lea    -0x2e0(%rbp),%rax
    cb2a:	48 05 00 01 00 00    	add    $0x100,%rax
    cb30:	48 89 85 30 fc ff ff 	mov    %rax,-0x3d0(%rbp)
    cb37:	48 8d 05 ea a4 00 00 	lea    0xa4ea(%rip),%rax        # 17028 <g_52>
    cb3e:	48 89 85 38 fc ff ff 	mov    %rax,-0x3c8(%rbp)
    cb45:	c7 85 04 fc ff ff 38 	movl   $0xe3badf38,-0x3fc(%rbp)
    cb4c:	df ba e3 
    cb4f:	c7 85 60 fc ff ff 00 	movl   $0x0,-0x3a0(%rbp)
    cb56:	00 00 00 
    cb59:	c7 85 64 fc ff ff 00 	movl   $0x0,-0x39c(%rbp)
    cb60:	00 00 00 
    cb63:	c7 85 68 fc ff ff fb 	movl   $0xfffffffb,-0x398(%rbp)
    cb6a:	ff ff ff 
    cb6d:	c7 85 6c fc ff ff b4 	movl   $0x63fccfb4,-0x394(%rbp)
    cb74:	cf fc 63 
    cb77:	c7 85 70 fc ff ff 45 	movl   $0x6e61a645,-0x390(%rbp)
    cb7e:	a6 61 6e 
    cb81:	c7 85 74 fc ff ff 00 	movl   $0x0,-0x38c(%rbp)
    cb88:	00 00 00 
    cb8b:	c7 85 78 fc ff ff b4 	movl   $0x63fccfb4,-0x388(%rbp)
    cb92:	cf fc 63 
    cb95:	c7 85 7c fc ff ff b4 	movl   $0x63fccfb4,-0x384(%rbp)
    cb9c:	cf fc 63 
    cb9f:	c7 85 80 fc ff ff 00 	movl   $0x0,-0x380(%rbp)
    cba6:	00 00 00 
    cba9:	c7 85 84 fc ff ff 00 	movl   $0x0,-0x37c(%rbp)
    cbb0:	00 00 00 
    cbb3:	c7 85 88 fc ff ff fb 	movl   $0xfffffffb,-0x378(%rbp)
    cbba:	ff ff ff 
    cbbd:	c7 85 8c fc ff ff b4 	movl   $0x63fccfb4,-0x374(%rbp)
    cbc4:	cf fc 63 
    cbc7:	c7 85 90 fc ff ff 45 	movl   $0x6e61a645,-0x370(%rbp)
    cbce:	a6 61 6e 
    cbd1:	c7 85 94 fc ff ff 00 	movl   $0x0,-0x36c(%rbp)
    cbd8:	00 00 00 
    cbdb:	c7 85 98 fc ff ff b4 	movl   $0x63fccfb4,-0x368(%rbp)
    cbe2:	cf fc 63 
    cbe5:	c7 85 9c fc ff ff b4 	movl   $0x63fccfb4,-0x364(%rbp)
    cbec:	cf fc 63 
    cbef:	c7 85 a0 fc ff ff 00 	movl   $0x0,-0x360(%rbp)
    cbf6:	00 00 00 
    cbf9:	c7 85 a4 fc ff ff 00 	movl   $0x0,-0x35c(%rbp)
    cc00:	00 00 00 
    cc03:	c7 85 a8 fc ff ff fb 	movl   $0xfffffffb,-0x358(%rbp)
    cc0a:	ff ff ff 
    cc0d:	c7 85 ac fc ff ff b4 	movl   $0x63fccfb4,-0x354(%rbp)
    cc14:	cf fc 63 
    cc17:	c7 85 b0 fc ff ff 45 	movl   $0x6e61a645,-0x350(%rbp)
    cc1e:	a6 61 6e 
    cc21:	c7 85 b4 fc ff ff 00 	movl   $0x0,-0x34c(%rbp)
    cc28:	00 00 00 
    cc2b:	c7 85 b8 fc ff ff b4 	movl   $0x63fccfb4,-0x348(%rbp)
    cc32:	cf fc 63 
    cc35:	c7 85 bc fc ff ff b4 	movl   $0x63fccfb4,-0x344(%rbp)
    cc3c:	cf fc 63 
    cc3f:	c7 85 c0 fc ff ff 00 	movl   $0x0,-0x340(%rbp)
    cc46:	00 00 00 
    cc49:	c7 85 c4 fc ff ff 00 	movl   $0x0,-0x33c(%rbp)
    cc50:	00 00 00 
    cc53:	c7 85 c8 fc ff ff fb 	movl   $0xfffffffb,-0x338(%rbp)
    cc5a:	ff ff ff 
    cc5d:	c7 85 cc fc ff ff b4 	movl   $0x63fccfb4,-0x334(%rbp)
    cc64:	cf fc 63 
    cc67:	c7 85 d0 fc ff ff 45 	movl   $0x6e61a645,-0x330(%rbp)
    cc6e:	a6 61 6e 
    cc71:	c7 85 d4 fc ff ff 00 	movl   $0x0,-0x32c(%rbp)
    cc78:	00 00 00 
    cc7b:	c7 85 d8 fc ff ff b4 	movl   $0x63fccfb4,-0x328(%rbp)
    cc82:	cf fc 63 
    cc85:	c7 85 dc fc ff ff b4 	movl   $0x63fccfb4,-0x324(%rbp)
    cc8c:	cf fc 63 
    cc8f:	c7 85 e0 fc ff ff 00 	movl   $0x0,-0x320(%rbp)
    cc96:	00 00 00 
    cc99:	c7 85 e4 fc ff ff 00 	movl   $0x0,-0x31c(%rbp)
    cca0:	00 00 00 
    cca3:	c7 85 e8 fc ff ff fb 	movl   $0xfffffffb,-0x318(%rbp)
    ccaa:	ff ff ff 
    ccad:	c7 85 ec fc ff ff b4 	movl   $0x63fccfb4,-0x314(%rbp)
    ccb4:	cf fc 63 
    ccb7:	c7 85 f0 fc ff ff 45 	movl   $0x6e61a645,-0x310(%rbp)
    ccbe:	a6 61 6e 
    ccc1:	c7 85 f4 fc ff ff 00 	movl   $0x0,-0x30c(%rbp)
    ccc8:	00 00 00 
    cccb:	c7 85 f8 fc ff ff b4 	movl   $0x63fccfb4,-0x308(%rbp)
    ccd2:	cf fc 63 
    ccd5:	c7 85 fc fc ff ff b4 	movl   $0x63fccfb4,-0x304(%rbp)
    ccdc:	cf fc 63 
    ccdf:	c7 85 00 fd ff ff 00 	movl   $0x0,-0x300(%rbp)
    cce6:	00 00 00 
    cce9:	c7 85 04 fd ff ff 00 	movl   $0x0,-0x2fc(%rbp)
    ccf0:	00 00 00 
    ccf3:	c7 85 08 fd ff ff fb 	movl   $0xfffffffb,-0x2f8(%rbp)
    ccfa:	ff ff ff 
    ccfd:	c7 85 0c fd ff ff b4 	movl   $0x63fccfb4,-0x2f4(%rbp)
    cd04:	cf fc 63 
    cd07:	c7 85 10 fd ff ff 45 	movl   $0x6e61a645,-0x2f0(%rbp)
    cd0e:	a6 61 6e 
    cd11:	c7 85 14 fd ff ff 00 	movl   $0x0,-0x2ec(%rbp)
    cd18:	00 00 00 
    cd1b:	c7 85 18 fd ff ff b4 	movl   $0x63fccfb4,-0x2e8(%rbp)
    cd22:	cf fc 63 
    cd25:	c7 85 1c fd ff ff b4 	movl   $0x63fccfb4,-0x2e4(%rbp)
    cd2c:	cf fc 63 
    cd2f:	c7 85 00 fc ff ff 00 	movl   $0x0,-0x400(%rbp)
    cd36:	00 00 00 
    cd39:	eb 1e                	jmp    cd59 <func_45+0x2c7>
    cd3b:	8b 85 00 fc ff ff    	mov    -0x400(%rbp),%eax
    cd41:	48 98                	cltq   
    cd43:	48 8d 15 de a2 00 00 	lea    0xa2de(%rip),%rdx        # 17028 <g_52>
    cd4a:	48 89 94 c5 40 fc ff 	mov    %rdx,-0x3c0(%rbp,%rax,8)
    cd51:	ff 
    cd52:	83 85 00 fc ff ff 01 	addl   $0x1,-0x400(%rbp)
    cd59:	83 bd 00 fc ff ff 03 	cmpl   $0x3,-0x400(%rbp)
    cd60:	7e d9                	jle    cd3b <func_45+0x2a9>
    cd62:	8b 85 7c fc ff ff    	mov    -0x384(%rbp),%eax
    cd68:	83 e8 01             	sub    $0x1,%eax
    cd6b:	89 85 7c fc ff ff    	mov    %eax,-0x384(%rbp)
    cd71:	8b 05 b1 a2 00 00    	mov    0xa2b1(%rip),%eax        # 17028 <g_52>
    cd77:	48 98                	cltq   
    cd79:	48 8b 4d f8          	mov    -0x8(%rbp),%rcx
    cd7d:	64 48 33 0c 25 28 00 	xor    %fs:0x28,%rcx
    cd84:	00 00 
    cd86:	74 05                	je     cd8d <func_45+0x2fb>
    cd88:	e8 e3 52 ff ff       	callq  2070 <__stack_chk_fail@plt>
    cd8d:	c9                   	leaveq 
    cd8e:	c3                   	retq   

000000000000cd8f <func_70>:
    cd8f:	f3 0f 1e fa          	endbr64 
    cd93:	55                   	push   %rbp
    cd94:	48 89 e5             	mov    %rsp,%rbp
    cd97:	41 56                	push   %r14
    cd99:	41 55                	push   %r13
    cd9b:	41 54                	push   %r12
    cd9d:	53                   	push   %rbx
    cd9e:	48 81 ec 00 10 00 00 	sub    $0x1000,%rsp
    cda5:	48 83 0c 24 00       	orq    $0x0,(%rsp)
    cdaa:	48 83 ec 20          	sub    $0x20,%rsp
    cdae:	89 f8                	mov    %edi,%eax
    cdb0:	48 89 b5 d0 ef ff ff 	mov    %rsi,-0x1030(%rbp)
    cdb7:	48 89 95 c8 ef ff ff 	mov    %rdx,-0x1038(%rbp)
    cdbe:	88 85 dc ef ff ff    	mov    %al,-0x1024(%rbp)
    cdc4:	64 48 8b 04 25 28 00 	mov    %fs:0x28,%rax
    cdcb:	00 00 
    cdcd:	48 89 45 d8          	mov    %rax,-0x28(%rbp)
    cdd1:	31 c0                	xor    %eax,%eax
    cdd3:	48 8d 05 4e a2 00 00 	lea    0xa24e(%rip),%rax        # 17028 <g_52>
    cdda:	48 89 85 50 f0 ff ff 	mov    %rax,-0xfb0(%rbp)
    cde1:	48 8d 85 50 f0 ff ff 	lea    -0xfb0(%rbp),%rax
    cde8:	48 89 85 10 f9 ff ff 	mov    %rax,-0x6f0(%rbp)
    cdef:	48 8d 85 50 f0 ff ff 	lea    -0xfb0(%rbp),%rax
    cdf6:	48 89 85 18 f9 ff ff 	mov    %rax,-0x6e8(%rbp)
    cdfd:	48 8d 85 50 f0 ff ff 	lea    -0xfb0(%rbp),%rax
    ce04:	48 89 85 20 f9 ff ff 	mov    %rax,-0x6e0(%rbp)
    ce0b:	48 8d 85 50 f0 ff ff 	lea    -0xfb0(%rbp),%rax
    ce12:	48 89 85 28 f9 ff ff 	mov    %rax,-0x6d8(%rbp)
    ce19:	48 8d 85 50 f0 ff ff 	lea    -0xfb0(%rbp),%rax
    ce20:	48 89 85 30 f9 ff ff 	mov    %rax,-0x6d0(%rbp)
    ce27:	48 8d 85 50 f0 ff ff 	lea    -0xfb0(%rbp),%rax
    ce2e:	48 89 85 38 f9 ff ff 	mov    %rax,-0x6c8(%rbp)
    ce35:	48 8d 85 50 f0 ff ff 	lea    -0xfb0(%rbp),%rax
    ce3c:	48 89 85 40 f9 ff ff 	mov    %rax,-0x6c0(%rbp)
    ce43:	48 8d 85 50 f0 ff ff 	lea    -0xfb0(%rbp),%rax
    ce4a:	48 89 85 48 f9 ff ff 	mov    %rax,-0x6b8(%rbp)
    ce51:	48 8d 85 50 f0 ff ff 	lea    -0xfb0(%rbp),%rax
    ce58:	48 89 85 50 f9 ff ff 	mov    %rax,-0x6b0(%rbp)
    ce5f:	48 8d 85 50 f0 ff ff 	lea    -0xfb0(%rbp),%rax
    ce66:	48 89 85 58 f9 ff ff 	mov    %rax,-0x6a8(%rbp)
    ce6d:	48 8d 85 50 f0 ff ff 	lea    -0xfb0(%rbp),%rax
    ce74:	48 89 85 60 f9 ff ff 	mov    %rax,-0x6a0(%rbp)
    ce7b:	48 8d 85 50 f0 ff ff 	lea    -0xfb0(%rbp),%rax
    ce82:	48 89 85 68 f9 ff ff 	mov    %rax,-0x698(%rbp)
    ce89:	48 8d 85 50 f0 ff ff 	lea    -0xfb0(%rbp),%rax
    ce90:	48 89 85 70 f9 ff ff 	mov    %rax,-0x690(%rbp)
    ce97:	48 8d 85 50 f0 ff ff 	lea    -0xfb0(%rbp),%rax
    ce9e:	48 89 85 78 f9 ff ff 	mov    %rax,-0x688(%rbp)
    cea5:	48 8d 85 50 f0 ff ff 	lea    -0xfb0(%rbp),%rax
    ceac:	48 89 85 80 f9 ff ff 	mov    %rax,-0x680(%rbp)
    ceb3:	48 c7 85 88 f9 ff ff 	movq   $0x0,-0x678(%rbp)
    ceba:	00 00 00 00 
    cebe:	48 8d 85 50 f0 ff ff 	lea    -0xfb0(%rbp),%rax
    cec5:	48 89 85 90 f9 ff ff 	mov    %rax,-0x670(%rbp)
    cecc:	48 c7 85 98 f9 ff ff 	movq   $0x0,-0x668(%rbp)
    ced3:	00 00 00 00 
    ced7:	48 8d 85 50 f0 ff ff 	lea    -0xfb0(%rbp),%rax
    cede:	48 89 85 a0 f9 ff ff 	mov    %rax,-0x660(%rbp)
    cee5:	48 8d 85 50 f0 ff ff 	lea    -0xfb0(%rbp),%rax
    ceec:	48 89 85 a8 f9 ff ff 	mov    %rax,-0x658(%rbp)
    cef3:	48 8d 85 50 f0 ff ff 	lea    -0xfb0(%rbp),%rax
    cefa:	48 89 85 b0 f9 ff ff 	mov    %rax,-0x650(%rbp)
    cf01:	48 c7 85 b8 f9 ff ff 	movq   $0x0,-0x648(%rbp)
    cf08:	00 00 00 00 
    cf0c:	48 8d 85 50 f0 ff ff 	lea    -0xfb0(%rbp),%rax
    cf13:	48 89 85 c0 f9 ff ff 	mov    %rax,-0x640(%rbp)
    cf1a:	48 8d 85 50 f0 ff ff 	lea    -0xfb0(%rbp),%rax
    cf21:	48 89 85 c8 f9 ff ff 	mov    %rax,-0x638(%rbp)
    cf28:	48 8d 85 50 f0 ff ff 	lea    -0xfb0(%rbp),%rax
    cf2f:	48 89 85 d0 f9 ff ff 	mov    %rax,-0x630(%rbp)
    cf36:	48 8d 85 50 f0 ff ff 	lea    -0xfb0(%rbp),%rax
    cf3d:	48 89 85 d8 f9 ff ff 	mov    %rax,-0x628(%rbp)
    cf44:	48 8d 85 50 f0 ff ff 	lea    -0xfb0(%rbp),%rax
    cf4b:	48 89 85 e0 f9 ff ff 	mov    %rax,-0x620(%rbp)
    cf52:	48 8d 85 50 f0 ff ff 	lea    -0xfb0(%rbp),%rax
    cf59:	48 89 85 e8 f9 ff ff 	mov    %rax,-0x618(%rbp)
    cf60:	48 8d 85 50 f0 ff ff 	lea    -0xfb0(%rbp),%rax
    cf67:	48 89 85 f0 f9 ff ff 	mov    %rax,-0x610(%rbp)
    cf6e:	48 8d 85 50 f0 ff ff 	lea    -0xfb0(%rbp),%rax
    cf75:	48 89 85 f8 f9 ff ff 	mov    %rax,-0x608(%rbp)
    cf7c:	48 c7 85 00 fa ff ff 	movq   $0x0,-0x600(%rbp)
    cf83:	00 00 00 00 
    cf87:	48 8d 85 50 f0 ff ff 	lea    -0xfb0(%rbp),%rax
    cf8e:	48 89 85 08 fa ff ff 	mov    %rax,-0x5f8(%rbp)
    cf95:	48 8d 85 50 f0 ff ff 	lea    -0xfb0(%rbp),%rax
    cf9c:	48 89 85 10 fa ff ff 	mov    %rax,-0x5f0(%rbp)
    cfa3:	48 8d 85 50 f0 ff ff 	lea    -0xfb0(%rbp),%rax
    cfaa:	48 89 85 18 fa ff ff 	mov    %rax,-0x5e8(%rbp)
    cfb1:	48 8d 85 50 f0 ff ff 	lea    -0xfb0(%rbp),%rax
    cfb8:	48 89 85 20 fa ff ff 	mov    %rax,-0x5e0(%rbp)
    cfbf:	48 8d 85 50 f0 ff ff 	lea    -0xfb0(%rbp),%rax
    cfc6:	48 89 85 28 fa ff ff 	mov    %rax,-0x5d8(%rbp)
    cfcd:	48 c7 85 30 fa ff ff 	movq   $0x0,-0x5d0(%rbp)
    cfd4:	00 00 00 00 
    cfd8:	48 c7 85 38 fa ff ff 	movq   $0x0,-0x5c8(%rbp)
    cfdf:	00 00 00 00 
    cfe3:	48 8d 85 50 f0 ff ff 	lea    -0xfb0(%rbp),%rax
    cfea:	48 89 85 40 fa ff ff 	mov    %rax,-0x5c0(%rbp)
    cff1:	48 8d 85 50 f0 ff ff 	lea    -0xfb0(%rbp),%rax
    cff8:	48 89 85 48 fa ff ff 	mov    %rax,-0x5b8(%rbp)
    cfff:	48 8d 85 50 f0 ff ff 	lea    -0xfb0(%rbp),%rax
    d006:	48 89 85 50 fa ff ff 	mov    %rax,-0x5b0(%rbp)
    d00d:	48 8d 85 50 f0 ff ff 	lea    -0xfb0(%rbp),%rax
    d014:	48 89 85 58 fa ff ff 	mov    %rax,-0x5a8(%rbp)
    d01b:	48 8d 85 50 f0 ff ff 	lea    -0xfb0(%rbp),%rax
    d022:	48 89 85 60 fa ff ff 	mov    %rax,-0x5a0(%rbp)
    d029:	48 8d 85 50 f0 ff ff 	lea    -0xfb0(%rbp),%rax
    d030:	48 89 85 68 fa ff ff 	mov    %rax,-0x598(%rbp)
    d037:	48 c7 85 70 fa ff ff 	movq   $0x0,-0x590(%rbp)
    d03e:	00 00 00 00 
    d042:	48 c7 85 78 fa ff ff 	movq   $0x0,-0x588(%rbp)
    d049:	00 00 00 00 
    d04d:	48 8d 85 50 f0 ff ff 	lea    -0xfb0(%rbp),%rax
    d054:	48 89 85 80 fa ff ff 	mov    %rax,-0x580(%rbp)
    d05b:	48 c7 85 88 fa ff ff 	movq   $0x0,-0x578(%rbp)
    d062:	00 00 00 00 
    d066:	48 8d 85 50 f0 ff ff 	lea    -0xfb0(%rbp),%rax
    d06d:	48 89 85 90 fa ff ff 	mov    %rax,-0x570(%rbp)
    d074:	48 8d 85 50 f0 ff ff 	lea    -0xfb0(%rbp),%rax
    d07b:	48 89 85 98 fa ff ff 	mov    %rax,-0x568(%rbp)
    d082:	48 8d 85 50 f0 ff ff 	lea    -0xfb0(%rbp),%rax
    d089:	48 89 85 a0 fa ff ff 	mov    %rax,-0x560(%rbp)
    d090:	48 c7 85 a8 fa ff ff 	movq   $0x0,-0x558(%rbp)
    d097:	00 00 00 00 
    d09b:	48 c7 85 b0 fa ff ff 	movq   $0x0,-0x550(%rbp)
    d0a2:	00 00 00 00 
    d0a6:	48 c7 85 b8 fa ff ff 	movq   $0x0,-0x548(%rbp)
    d0ad:	00 00 00 00 
    d0b1:	48 c7 85 c0 fa ff ff 	movq   $0x0,-0x540(%rbp)
    d0b8:	00 00 00 00 
    d0bc:	48 c7 85 c8 fa ff ff 	movq   $0x0,-0x538(%rbp)
    d0c3:	00 00 00 00 
    d0c7:	48 8d 85 50 f0 ff ff 	lea    -0xfb0(%rbp),%rax
    d0ce:	48 89 85 d0 fa ff ff 	mov    %rax,-0x530(%rbp)
    d0d5:	48 8d 85 50 f0 ff ff 	lea    -0xfb0(%rbp),%rax
    d0dc:	48 89 85 d8 fa ff ff 	mov    %rax,-0x528(%rbp)
    d0e3:	48 8d 85 50 f0 ff ff 	lea    -0xfb0(%rbp),%rax
    d0ea:	48 89 85 e0 fa ff ff 	mov    %rax,-0x520(%rbp)
    d0f1:	48 8d 85 50 f0 ff ff 	lea    -0xfb0(%rbp),%rax
    d0f8:	48 89 85 e8 fa ff ff 	mov    %rax,-0x518(%rbp)
    d0ff:	48 8d 85 50 f0 ff ff 	lea    -0xfb0(%rbp),%rax
    d106:	48 89 85 f0 fa ff ff 	mov    %rax,-0x510(%rbp)
    d10d:	48 c7 85 f8 fa ff ff 	movq   $0x0,-0x508(%rbp)
    d114:	00 00 00 00 
    d118:	48 8d 85 50 f0 ff ff 	lea    -0xfb0(%rbp),%rax
    d11f:	48 89 85 00 fb ff ff 	mov    %rax,-0x500(%rbp)
    d126:	48 c7 85 08 fb ff ff 	movq   $0x0,-0x4f8(%rbp)
    d12d:	00 00 00 00 
    d131:	48 8d 85 50 f0 ff ff 	lea    -0xfb0(%rbp),%rax
    d138:	48 89 85 10 fb ff ff 	mov    %rax,-0x4f0(%rbp)
    d13f:	48 8d 85 50 f0 ff ff 	lea    -0xfb0(%rbp),%rax
    d146:	48 89 85 18 fb ff ff 	mov    %rax,-0x4e8(%rbp)
    d14d:	48 8d 85 50 f0 ff ff 	lea    -0xfb0(%rbp),%rax
    d154:	48 89 85 20 fb ff ff 	mov    %rax,-0x4e0(%rbp)
    d15b:	48 8d 85 50 f0 ff ff 	lea    -0xfb0(%rbp),%rax
    d162:	48 89 85 28 fb ff ff 	mov    %rax,-0x4d8(%rbp)
    d169:	48 8d 85 50 f0 ff ff 	lea    -0xfb0(%rbp),%rax
    d170:	48 89 85 30 fb ff ff 	mov    %rax,-0x4d0(%rbp)
    d177:	48 8d 85 50 f0 ff ff 	lea    -0xfb0(%rbp),%rax
    d17e:	48 89 85 38 fb ff ff 	mov    %rax,-0x4c8(%rbp)
    d185:	48 8d 85 50 f0 ff ff 	lea    -0xfb0(%rbp),%rax
    d18c:	48 89 85 40 fb ff ff 	mov    %rax,-0x4c0(%rbp)
    d193:	48 c7 85 48 fb ff ff 	movq   $0x0,-0x4b8(%rbp)
    d19a:	00 00 00 00 
    d19e:	48 8d 85 50 f0 ff ff 	lea    -0xfb0(%rbp),%rax
    d1a5:	48 89 85 50 fb ff ff 	mov    %rax,-0x4b0(%rbp)
    d1ac:	48 c7 85 58 fb ff ff 	movq   $0x0,-0x4a8(%rbp)
    d1b3:	00 00 00 00 
    d1b7:	48 8d 85 50 f0 ff ff 	lea    -0xfb0(%rbp),%rax
    d1be:	48 89 85 60 fb ff ff 	mov    %rax,-0x4a0(%rbp)
    d1c5:	48 8d 85 50 f0 ff ff 	lea    -0xfb0(%rbp),%rax
    d1cc:	48 89 85 68 fb ff ff 	mov    %rax,-0x498(%rbp)
    d1d3:	48 8d 85 50 f0 ff ff 	lea    -0xfb0(%rbp),%rax
    d1da:	48 89 85 70 fb ff ff 	mov    %rax,-0x490(%rbp)
    d1e1:	48 c7 85 78 fb ff ff 	movq   $0x0,-0x488(%rbp)
    d1e8:	00 00 00 00 
    d1ec:	48 8d 85 50 f0 ff ff 	lea    -0xfb0(%rbp),%rax
    d1f3:	48 89 85 80 fb ff ff 	mov    %rax,-0x480(%rbp)
    d1fa:	48 c7 85 88 fb ff ff 	movq   $0x0,-0x478(%rbp)
    d201:	00 00 00 00 
    d205:	48 8d 85 50 f0 ff ff 	lea    -0xfb0(%rbp),%rax
    d20c:	48 89 85 90 fb ff ff 	mov    %rax,-0x470(%rbp)
    d213:	48 8d 85 50 f0 ff ff 	lea    -0xfb0(%rbp),%rax
    d21a:	48 89 85 98 fb ff ff 	mov    %rax,-0x468(%rbp)
    d221:	48 8d 85 50 f0 ff ff 	lea    -0xfb0(%rbp),%rax
    d228:	48 89 85 a0 fb ff ff 	mov    %rax,-0x460(%rbp)
    d22f:	48 c7 85 a8 fb ff ff 	movq   $0x0,-0x458(%rbp)
    d236:	00 00 00 00 
    d23a:	48 8d 85 50 f0 ff ff 	lea    -0xfb0(%rbp),%rax
    d241:	48 89 85 b0 fb ff ff 	mov    %rax,-0x450(%rbp)
    d248:	48 8d 85 50 f0 ff ff 	lea    -0xfb0(%rbp),%rax
    d24f:	48 89 85 b8 fb ff ff 	mov    %rax,-0x448(%rbp)
    d256:	48 8d 85 50 f0 ff ff 	lea    -0xfb0(%rbp),%rax
    d25d:	48 89 85 c0 fb ff ff 	mov    %rax,-0x440(%rbp)
    d264:	48 8d 85 50 f0 ff ff 	lea    -0xfb0(%rbp),%rax
    d26b:	48 89 85 c8 fb ff ff 	mov    %rax,-0x438(%rbp)
    d272:	48 8d 85 50 f0 ff ff 	lea    -0xfb0(%rbp),%rax
    d279:	48 89 85 d0 fb ff ff 	mov    %rax,-0x430(%rbp)
    d280:	48 8d 85 50 f0 ff ff 	lea    -0xfb0(%rbp),%rax
    d287:	48 89 85 d8 fb ff ff 	mov    %rax,-0x428(%rbp)
    d28e:	48 8d 85 50 f0 ff ff 	lea    -0xfb0(%rbp),%rax
    d295:	48 89 85 e0 fb ff ff 	mov    %rax,-0x420(%rbp)
    d29c:	48 8d 85 50 f0 ff ff 	lea    -0xfb0(%rbp),%rax
    d2a3:	48 89 85 e8 fb ff ff 	mov    %rax,-0x418(%rbp)
    d2aa:	48 8d 85 50 f0 ff ff 	lea    -0xfb0(%rbp),%rax
    d2b1:	48 89 85 f0 fb ff ff 	mov    %rax,-0x410(%rbp)
    d2b8:	48 8d 85 50 f0 ff ff 	lea    -0xfb0(%rbp),%rax
    d2bf:	48 89 85 f8 fb ff ff 	mov    %rax,-0x408(%rbp)
    d2c6:	48 c7 85 00 fc ff ff 	movq   $0x0,-0x400(%rbp)
    d2cd:	00 00 00 00 
    d2d1:	48 8d 85 50 f0 ff ff 	lea    -0xfb0(%rbp),%rax
    d2d8:	48 89 85 08 fc ff ff 	mov    %rax,-0x3f8(%rbp)
    d2df:	48 8d 85 50 f0 ff ff 	lea    -0xfb0(%rbp),%rax
    d2e6:	48 89 85 10 fc ff ff 	mov    %rax,-0x3f0(%rbp)
    d2ed:	48 c7 85 18 fc ff ff 	movq   $0x0,-0x3e8(%rbp)
    d2f4:	00 00 00 00 
    d2f8:	48 8d 85 50 f0 ff ff 	lea    -0xfb0(%rbp),%rax
    d2ff:	48 89 85 20 fc ff ff 	mov    %rax,-0x3e0(%rbp)
    d306:	48 8d 85 50 f0 ff ff 	lea    -0xfb0(%rbp),%rax
    d30d:	48 89 85 28 fc ff ff 	mov    %rax,-0x3d8(%rbp)
    d314:	48 8d 85 50 f0 ff ff 	lea    -0xfb0(%rbp),%rax
    d31b:	48 89 85 30 fc ff ff 	mov    %rax,-0x3d0(%rbp)
    d322:	48 c7 85 38 fc ff ff 	movq   $0x0,-0x3c8(%rbp)
    d329:	00 00 00 00 
    d32d:	48 8d 85 50 f0 ff ff 	lea    -0xfb0(%rbp),%rax
    d334:	48 89 85 40 fc ff ff 	mov    %rax,-0x3c0(%rbp)
    d33b:	48 8d 85 50 f0 ff ff 	lea    -0xfb0(%rbp),%rax
    d342:	48 89 85 48 fc ff ff 	mov    %rax,-0x3b8(%rbp)
    d349:	48 8d 85 50 f0 ff ff 	lea    -0xfb0(%rbp),%rax
    d350:	48 89 85 50 fc ff ff 	mov    %rax,-0x3b0(%rbp)
    d357:	48 c7 85 58 fc ff ff 	movq   $0x0,-0x3a8(%rbp)
    d35e:	00 00 00 00 
    d362:	48 8d 85 50 f0 ff ff 	lea    -0xfb0(%rbp),%rax
    d369:	48 89 85 60 fc ff ff 	mov    %rax,-0x3a0(%rbp)
    d370:	48 8d 85 50 f0 ff ff 	lea    -0xfb0(%rbp),%rax
    d377:	48 89 85 68 fc ff ff 	mov    %rax,-0x398(%rbp)
    d37e:	48 8d 85 50 f0 ff ff 	lea    -0xfb0(%rbp),%rax
    d385:	48 89 85 70 fc ff ff 	mov    %rax,-0x390(%rbp)
    d38c:	48 8d 85 50 f0 ff ff 	lea    -0xfb0(%rbp),%rax
    d393:	48 89 85 78 fc ff ff 	mov    %rax,-0x388(%rbp)
    d39a:	48 8d 85 50 f0 ff ff 	lea    -0xfb0(%rbp),%rax
    d3a1:	48 89 85 80 fc ff ff 	mov    %rax,-0x380(%rbp)
    d3a8:	48 8d 85 50 f0 ff ff 	lea    -0xfb0(%rbp),%rax
    d3af:	48 89 85 88 fc ff ff 	mov    %rax,-0x378(%rbp)
    d3b6:	48 8d 85 50 f0 ff ff 	lea    -0xfb0(%rbp),%rax
    d3bd:	48 89 85 90 fc ff ff 	mov    %rax,-0x370(%rbp)
    d3c4:	48 8d 85 50 f0 ff ff 	lea    -0xfb0(%rbp),%rax
    d3cb:	48 89 85 98 fc ff ff 	mov    %rax,-0x368(%rbp)
    d3d2:	48 c7 85 a0 fc ff ff 	movq   $0x0,-0x360(%rbp)
    d3d9:	00 00 00 00 
    d3dd:	48 8d 85 50 f0 ff ff 	lea    -0xfb0(%rbp),%rax
    d3e4:	48 89 85 a8 fc ff ff 	mov    %rax,-0x358(%rbp)
    d3eb:	48 8d 85 50 f0 ff ff 	lea    -0xfb0(%rbp),%rax
    d3f2:	48 89 85 b0 fc ff ff 	mov    %rax,-0x350(%rbp)
    d3f9:	48 8d 85 50 f0 ff ff 	lea    -0xfb0(%rbp),%rax
    d400:	48 89 85 b8 fc ff ff 	mov    %rax,-0x348(%rbp)
    d407:	48 8d 85 50 f0 ff ff 	lea    -0xfb0(%rbp),%rax
    d40e:	48 89 85 c0 fc ff ff 	mov    %rax,-0x340(%rbp)
    d415:	48 c7 85 c8 fc ff ff 	movq   $0x0,-0x338(%rbp)
    d41c:	00 00 00 00 
    d420:	48 8d 85 50 f0 ff ff 	lea    -0xfb0(%rbp),%rax
    d427:	48 89 85 d0 fc ff ff 	mov    %rax,-0x330(%rbp)
    d42e:	48 8d 85 50 f0 ff ff 	lea    -0xfb0(%rbp),%rax
    d435:	48 89 85 d8 fc ff ff 	mov    %rax,-0x328(%rbp)
    d43c:	48 8d 85 50 f0 ff ff 	lea    -0xfb0(%rbp),%rax
    d443:	48 89 85 e0 fc ff ff 	mov    %rax,-0x320(%rbp)
    d44a:	48 8d 85 50 f0 ff ff 	lea    -0xfb0(%rbp),%rax
    d451:	48 89 85 e8 fc ff ff 	mov    %rax,-0x318(%rbp)
    d458:	48 8d 85 50 f0 ff ff 	lea    -0xfb0(%rbp),%rax
    d45f:	48 89 85 f0 fc ff ff 	mov    %rax,-0x310(%rbp)
    d466:	48 c7 85 f8 fc ff ff 	movq   $0x0,-0x308(%rbp)
    d46d:	00 00 00 00 
    d471:	48 8d 85 50 f0 ff ff 	lea    -0xfb0(%rbp),%rax
    d478:	48 89 85 00 fd ff ff 	mov    %rax,-0x300(%rbp)
    d47f:	48 8d 85 50 f0 ff ff 	lea    -0xfb0(%rbp),%rax
    d486:	48 89 85 08 fd ff ff 	mov    %rax,-0x2f8(%rbp)
    d48d:	48 8d 85 50 f0 ff ff 	lea    -0xfb0(%rbp),%rax
    d494:	48 89 85 10 fd ff ff 	mov    %rax,-0x2f0(%rbp)
    d49b:	48 c7 85 18 fd ff ff 	movq   $0x0,-0x2e8(%rbp)
    d4a2:	00 00 00 00 
    d4a6:	48 8d 85 50 f0 ff ff 	lea    -0xfb0(%rbp),%rax
    d4ad:	48 89 85 20 fd ff ff 	mov    %rax,-0x2e0(%rbp)
    d4b4:	48 c7 85 28 fd ff ff 	movq   $0x0,-0x2d8(%rbp)
    d4bb:	00 00 00 00 
    d4bf:	48 8d 85 50 f0 ff ff 	lea    -0xfb0(%rbp),%rax
    d4c6:	48 89 85 30 fd ff ff 	mov    %rax,-0x2d0(%rbp)
    d4cd:	48 8d 85 50 f0 ff ff 	lea    -0xfb0(%rbp),%rax
    d4d4:	48 89 85 38 fd ff ff 	mov    %rax,-0x2c8(%rbp)
    d4db:	48 8d 85 50 f0 ff ff 	lea    -0xfb0(%rbp),%rax
    d4e2:	48 89 85 40 fd ff ff 	mov    %rax,-0x2c0(%rbp)
    d4e9:	48 8d 85 50 f0 ff ff 	lea    -0xfb0(%rbp),%rax
    d4f0:	48 89 85 48 fd ff ff 	mov    %rax,-0x2b8(%rbp)
    d4f7:	48 8d 85 50 f0 ff ff 	lea    -0xfb0(%rbp),%rax
    d4fe:	48 89 85 50 fd ff ff 	mov    %rax,-0x2b0(%rbp)
    d505:	48 8d 85 50 f0 ff ff 	lea    -0xfb0(%rbp),%rax
    d50c:	48 89 85 58 fd ff ff 	mov    %rax,-0x2a8(%rbp)
    d513:	48 8d 85 50 f0 ff ff 	lea    -0xfb0(%rbp),%rax
    d51a:	48 89 85 60 fd ff ff 	mov    %rax,-0x2a0(%rbp)
    d521:	48 c7 85 68 fd ff ff 	movq   $0x0,-0x298(%rbp)
    d528:	00 00 00 00 
    d52c:	48 8d 85 50 f0 ff ff 	lea    -0xfb0(%rbp),%rax
    d533:	48 89 85 70 fd ff ff 	mov    %rax,-0x290(%rbp)
    d53a:	48 c7 85 78 fd ff ff 	movq   $0x0,-0x288(%rbp)
    d541:	00 00 00 00 
    d545:	48 c7 85 80 fd ff ff 	movq   $0x0,-0x280(%rbp)
    d54c:	00 00 00 00 
    d550:	48 8d 85 50 f0 ff ff 	lea    -0xfb0(%rbp),%rax
    d557:	48 89 85 88 fd ff ff 	mov    %rax,-0x278(%rbp)
    d55e:	48 8d 85 50 f0 ff ff 	lea    -0xfb0(%rbp),%rax
    d565:	48 89 85 90 fd ff ff 	mov    %rax,-0x270(%rbp)
    d56c:	48 8d 85 50 f0 ff ff 	lea    -0xfb0(%rbp),%rax
    d573:	48 89 85 98 fd ff ff 	mov    %rax,-0x268(%rbp)
    d57a:	48 8d 85 50 f0 ff ff 	lea    -0xfb0(%rbp),%rax
    d581:	48 89 85 a0 fd ff ff 	mov    %rax,-0x260(%rbp)
    d588:	48 8d 85 50 f0 ff ff 	lea    -0xfb0(%rbp),%rax
    d58f:	48 89 85 a8 fd ff ff 	mov    %rax,-0x258(%rbp)
    d596:	48 8d 85 50 f0 ff ff 	lea    -0xfb0(%rbp),%rax
    d59d:	48 89 85 b0 fd ff ff 	mov    %rax,-0x250(%rbp)
    d5a4:	48 c7 85 b8 fd ff ff 	movq   $0x0,-0x248(%rbp)
    d5ab:	00 00 00 00 
    d5af:	48 8d 85 50 f0 ff ff 	lea    -0xfb0(%rbp),%rax
    d5b6:	48 89 85 c0 fd ff ff 	mov    %rax,-0x240(%rbp)
    d5bd:	48 8d 85 50 f0 ff ff 	lea    -0xfb0(%rbp),%rax
    d5c4:	48 89 85 c8 fd ff ff 	mov    %rax,-0x238(%rbp)
    d5cb:	48 c7 85 d0 fd ff ff 	movq   $0x0,-0x230(%rbp)
    d5d2:	00 00 00 00 
    d5d6:	48 8d 85 50 f0 ff ff 	lea    -0xfb0(%rbp),%rax
    d5dd:	48 89 85 d8 fd ff ff 	mov    %rax,-0x228(%rbp)
    d5e4:	48 8d 85 50 f0 ff ff 	lea    -0xfb0(%rbp),%rax
    d5eb:	48 89 85 e0 fd ff ff 	mov    %rax,-0x220(%rbp)
    d5f2:	48 c7 85 e8 fd ff ff 	movq   $0x0,-0x218(%rbp)
    d5f9:	00 00 00 00 
    d5fd:	48 c7 85 f0 fd ff ff 	movq   $0x0,-0x210(%rbp)
    d604:	00 00 00 00 
    d608:	48 c7 85 f8 fd ff ff 	movq   $0x0,-0x208(%rbp)
    d60f:	00 00 00 00 
    d613:	48 8d 85 50 f0 ff ff 	lea    -0xfb0(%rbp),%rax
    d61a:	48 89 85 00 fe ff ff 	mov    %rax,-0x200(%rbp)
    d621:	48 8d 85 50 f0 ff ff 	lea    -0xfb0(%rbp),%rax
    d628:	48 89 85 08 fe ff ff 	mov    %rax,-0x1f8(%rbp)
    d62f:	48 8d 85 50 f0 ff ff 	lea    -0xfb0(%rbp),%rax
    d636:	48 89 85 10 fe ff ff 	mov    %rax,-0x1f0(%rbp)
    d63d:	48 8d 85 50 f0 ff ff 	lea    -0xfb0(%rbp),%rax
    d644:	48 89 85 18 fe ff ff 	mov    %rax,-0x1e8(%rbp)
    d64b:	48 8d 85 50 f0 ff ff 	lea    -0xfb0(%rbp),%rax
    d652:	48 89 85 20 fe ff ff 	mov    %rax,-0x1e0(%rbp)
    d659:	48 c7 85 28 fe ff ff 	movq   $0x0,-0x1d8(%rbp)
    d660:	00 00 00 00 
    d664:	48 8d 85 50 f0 ff ff 	lea    -0xfb0(%rbp),%rax
    d66b:	48 89 85 30 fe ff ff 	mov    %rax,-0x1d0(%rbp)
    d672:	48 c7 85 38 fe ff ff 	movq   $0x0,-0x1c8(%rbp)
    d679:	00 00 00 00 
    d67d:	48 8d 85 50 f0 ff ff 	lea    -0xfb0(%rbp),%rax
    d684:	48 89 85 40 fe ff ff 	mov    %rax,-0x1c0(%rbp)
    d68b:	48 8d 85 50 f0 ff ff 	lea    -0xfb0(%rbp),%rax
    d692:	48 89 85 48 fe ff ff 	mov    %rax,-0x1b8(%rbp)
    d699:	48 8d 85 50 f0 ff ff 	lea    -0xfb0(%rbp),%rax
    d6a0:	48 89 85 50 fe ff ff 	mov    %rax,-0x1b0(%rbp)
    d6a7:	48 8d 85 50 f0 ff ff 	lea    -0xfb0(%rbp),%rax
    d6ae:	48 89 85 58 fe ff ff 	mov    %rax,-0x1a8(%rbp)
    d6b5:	48 8d 85 50 f0 ff ff 	lea    -0xfb0(%rbp),%rax
    d6bc:	48 89 85 60 fe ff ff 	mov    %rax,-0x1a0(%rbp)
    d6c3:	48 8d 85 50 f0 ff ff 	lea    -0xfb0(%rbp),%rax
    d6ca:	48 89 85 68 fe ff ff 	mov    %rax,-0x198(%rbp)
    d6d1:	48 8d 85 50 f0 ff ff 	lea    -0xfb0(%rbp),%rax
    d6d8:	48 89 85 70 fe ff ff 	mov    %rax,-0x190(%rbp)
    d6df:	48 c7 85 78 fe ff ff 	movq   $0x0,-0x188(%rbp)
    d6e6:	00 00 00 00 
    d6ea:	48 8d 85 50 f0 ff ff 	lea    -0xfb0(%rbp),%rax
    d6f1:	48 89 85 80 fe ff ff 	mov    %rax,-0x180(%rbp)
    d6f8:	48 c7 85 88 fe ff ff 	movq   $0x0,-0x178(%rbp)
    d6ff:	00 00 00 00 
    d703:	48 8d 85 50 f0 ff ff 	lea    -0xfb0(%rbp),%rax
    d70a:	48 89 85 90 fe ff ff 	mov    %rax,-0x170(%rbp)
    d711:	48 8d 85 50 f0 ff ff 	lea    -0xfb0(%rbp),%rax
    d718:	48 89 85 98 fe ff ff 	mov    %rax,-0x168(%rbp)
    d71f:	48 8d 85 50 f0 ff ff 	lea    -0xfb0(%rbp),%rax
    d726:	48 89 85 a0 fe ff ff 	mov    %rax,-0x160(%rbp)
    d72d:	48 c7 85 a8 fe ff ff 	movq   $0x0,-0x158(%rbp)
    d734:	00 00 00 00 
    d738:	48 8d 85 50 f0 ff ff 	lea    -0xfb0(%rbp),%rax
    d73f:	48 89 85 b0 fe ff ff 	mov    %rax,-0x150(%rbp)
    d746:	48 c7 85 b8 fe ff ff 	movq   $0x0,-0x148(%rbp)
    d74d:	00 00 00 00 
    d751:	48 8d 85 50 f0 ff ff 	lea    -0xfb0(%rbp),%rax
    d758:	48 89 85 c0 fe ff ff 	mov    %rax,-0x140(%rbp)
    d75f:	48 8d 85 50 f0 ff ff 	lea    -0xfb0(%rbp),%rax
    d766:	48 89 85 c8 fe ff ff 	mov    %rax,-0x138(%rbp)
    d76d:	48 8d 85 50 f0 ff ff 	lea    -0xfb0(%rbp),%rax
    d774:	48 89 85 d0 fe ff ff 	mov    %rax,-0x130(%rbp)
    d77b:	48 c7 85 d8 fe ff ff 	movq   $0x0,-0x128(%rbp)
    d782:	00 00 00 00 
    d786:	48 8d 85 50 f0 ff ff 	lea    -0xfb0(%rbp),%rax
    d78d:	48 89 85 e0 fe ff ff 	mov    %rax,-0x120(%rbp)
    d794:	48 8d 85 50 f0 ff ff 	lea    -0xfb0(%rbp),%rax
    d79b:	48 89 85 e8 fe ff ff 	mov    %rax,-0x118(%rbp)
    d7a2:	48 8d 85 50 f0 ff ff 	lea    -0xfb0(%rbp),%rax
    d7a9:	48 89 85 f0 fe ff ff 	mov    %rax,-0x110(%rbp)
    d7b0:	48 8d 85 50 f0 ff ff 	lea    -0xfb0(%rbp),%rax
    d7b7:	48 89 85 f8 fe ff ff 	mov    %rax,-0x108(%rbp)
    d7be:	48 8d 85 50 f0 ff ff 	lea    -0xfb0(%rbp),%rax
    d7c5:	48 89 85 00 ff ff ff 	mov    %rax,-0x100(%rbp)
    d7cc:	48 8d 85 50 f0 ff ff 	lea    -0xfb0(%rbp),%rax
    d7d3:	48 89 85 08 ff ff ff 	mov    %rax,-0xf8(%rbp)
    d7da:	48 8d 85 50 f0 ff ff 	lea    -0xfb0(%rbp),%rax
    d7e1:	48 89 85 10 ff ff ff 	mov    %rax,-0xf0(%rbp)
    d7e8:	48 8d 85 50 f0 ff ff 	lea    -0xfb0(%rbp),%rax
    d7ef:	48 89 85 18 ff ff ff 	mov    %rax,-0xe8(%rbp)
    d7f6:	48 8d 85 50 f0 ff ff 	lea    -0xfb0(%rbp),%rax
    d7fd:	48 89 85 20 ff ff ff 	mov    %rax,-0xe0(%rbp)
    d804:	48 8d 85 50 f0 ff ff 	lea    -0xfb0(%rbp),%rax
    d80b:	48 89 85 28 ff ff ff 	mov    %rax,-0xd8(%rbp)
    d812:	48 c7 85 30 ff ff ff 	movq   $0x0,-0xd0(%rbp)
    d819:	00 00 00 00 
    d81d:	48 8d 85 50 f0 ff ff 	lea    -0xfb0(%rbp),%rax
    d824:	48 89 85 38 ff ff ff 	mov    %rax,-0xc8(%rbp)
    d82b:	48 8d 85 50 f0 ff ff 	lea    -0xfb0(%rbp),%rax
    d832:	48 89 85 40 ff ff ff 	mov    %rax,-0xc0(%rbp)
    d839:	48 c7 85 48 ff ff ff 	movq   $0x0,-0xb8(%rbp)
    d840:	00 00 00 00 
    d844:	48 8d 85 50 f0 ff ff 	lea    -0xfb0(%rbp),%rax
    d84b:	48 89 85 50 ff ff ff 	mov    %rax,-0xb0(%rbp)
    d852:	48 8d 85 50 f0 ff ff 	lea    -0xfb0(%rbp),%rax
    d859:	48 89 85 58 ff ff ff 	mov    %rax,-0xa8(%rbp)
    d860:	48 8d 85 50 f0 ff ff 	lea    -0xfb0(%rbp),%rax
    d867:	48 89 85 60 ff ff ff 	mov    %rax,-0xa0(%rbp)
    d86e:	48 c7 85 68 ff ff ff 	movq   $0x0,-0x98(%rbp)
    d875:	00 00 00 00 
    d879:	48 8d 85 50 f0 ff ff 	lea    -0xfb0(%rbp),%rax
    d880:	48 89 85 70 ff ff ff 	mov    %rax,-0x90(%rbp)
    d887:	48 8d 85 50 f0 ff ff 	lea    -0xfb0(%rbp),%rax
    d88e:	48 89 85 78 ff ff ff 	mov    %rax,-0x88(%rbp)
    d895:	48 8d 85 50 f0 ff ff 	lea    -0xfb0(%rbp),%rax
    d89c:	48 89 45 80          	mov    %rax,-0x80(%rbp)
    d8a0:	48 c7 45 88 00 00 00 	movq   $0x0,-0x78(%rbp)
    d8a7:	00 
    d8a8:	48 8d 85 50 f0 ff ff 	lea    -0xfb0(%rbp),%rax
    d8af:	48 89 45 90          	mov    %rax,-0x70(%rbp)
    d8b3:	48 8d 85 50 f0 ff ff 	lea    -0xfb0(%rbp),%rax
    d8ba:	48 89 45 98          	mov    %rax,-0x68(%rbp)
    d8be:	48 8d 85 50 f0 ff ff 	lea    -0xfb0(%rbp),%rax
    d8c5:	48 89 45 a0          	mov    %rax,-0x60(%rbp)
    d8c9:	48 8d 85 50 f0 ff ff 	lea    -0xfb0(%rbp),%rax
    d8d0:	48 89 45 a8          	mov    %rax,-0x58(%rbp)
    d8d4:	48 8d 85 50 f0 ff ff 	lea    -0xfb0(%rbp),%rax
    d8db:	48 89 45 b0          	mov    %rax,-0x50(%rbp)
    d8df:	48 8d 85 50 f0 ff ff 	lea    -0xfb0(%rbp),%rax
    d8e6:	48 89 45 b8          	mov    %rax,-0x48(%rbp)
    d8ea:	48 8d 85 50 f0 ff ff 	lea    -0xfb0(%rbp),%rax
    d8f1:	48 89 45 c0          	mov    %rax,-0x40(%rbp)
    d8f5:	48 8d 85 50 f0 ff ff 	lea    -0xfb0(%rbp),%rax
    d8fc:	48 89 45 c8          	mov    %rax,-0x38(%rbp)
    d900:	48 b8 c3 b0 de 3c ab 	movabs $0x2b708aab3cdeb0c3,%rax
    d907:	8a 70 2b 
    d90a:	48 89 85 58 f0 ff ff 	mov    %rax,-0xfa8(%rbp)
    d911:	48 8d 05 40 57 00 00 	lea    0x5740(%rip),%rax        # 13058 <g_467>
    d918:	48 89 85 60 f0 ff ff 	mov    %rax,-0xfa0(%rbp)
    d91f:	48 8d 05 17 97 00 00 	lea    0x9717(%rip),%rax        # 1703d <g_124>
    d926:	48 89 85 68 f0 ff ff 	mov    %rax,-0xf98(%rbp)
    d92d:	48 c7 85 90 f0 ff ff 	movq   $0x0,-0xf70(%rbp)
    d934:	00 00 00 00 
    d938:	c7 85 04 f0 ff ff 01 	movl   $0x1,-0xffc(%rbp)
    d93f:	00 00 00 
    d942:	c7 85 e8 ef ff ff 00 	movl   $0x0,-0x1018(%rbp)
    d949:	00 00 00 
    d94c:	eb 1b                	jmp    d969 <func_70+0xbda>
    d94e:	8b 85 e8 ef ff ff    	mov    -0x1018(%rbp),%eax
    d954:	48 98                	cltq   
    d956:	48 c7 84 c5 90 f1 ff 	movq   $0x0,-0xe70(%rbp,%rax,8)
    d95d:	ff 00 00 00 00 
    d962:	83 85 e8 ef ff ff 01 	addl   $0x1,-0x1018(%rbp)
    d969:	83 bd e8 ef ff ff 01 	cmpl   $0x1,-0x1018(%rbp)
    d970:	7e dc                	jle    d94e <func_70+0xbbf>
    d972:	48 8b 85 50 f0 ff ff 	mov    -0xfb0(%rbp),%rax
    d979:	48 89 05 a8 a0 00 00 	mov    %rax,0xa0a8(%rip)        # 17a28 <g_98+0x28>
    d980:	c7 05 ae 96 00 00 ec 	movl   $0xffffffec,0x96ae(%rip)        # 17038 <g_99>
    d987:	ff ff ff 
    d98a:	e9 57 0b 00 00       	jmpq   e4e6 <func_70+0x1757>
    d98f:	48 c7 85 98 f0 ff ff 	movq   $0x0,-0xf68(%rbp)
    d996:	00 00 00 00 
    d99a:	48 8d 05 1f 97 00 00 	lea    0x971f(%rip),%rax        # 170c0 <g_299>
    d9a1:	48 89 85 a0 f0 ff ff 	mov    %rax,-0xf60(%rbp)
    d9a8:	48 8d 05 49 a1 00 00 	lea    0xa149(%rip),%rax        # 17af8 <g_188+0x18>
    d9af:	48 89 85 a8 f0 ff ff 	mov    %rax,-0xf58(%rbp)
    d9b6:	48 8d 05 3b a1 00 00 	lea    0xa13b(%rip),%rax        # 17af8 <g_188+0x18>
    d9bd:	48 89 85 78 f0 ff ff 	mov    %rax,-0xf88(%rbp)
    d9c4:	48 8d 85 78 f0 ff ff 	lea    -0xf88(%rbp),%rax
    d9cb:	48 89 85 b0 f0 ff ff 	mov    %rax,-0xf50(%rbp)
    d9d2:	c7 85 ec ef ff ff a0 	movl   $0x9df72ba0,-0x1014(%rbp)
    d9d9:	2b f7 9d 
    d9dc:	48 c7 85 20 f2 ff ff 	movq   $0x0,-0xde0(%rbp)
    d9e3:	00 00 00 00 
    d9e7:	48 c7 85 28 f2 ff ff 	movq   $0x0,-0xdd8(%rbp)
    d9ee:	00 00 00 00 
    d9f2:	48 8d 05 37 96 00 00 	lea    0x9637(%rip),%rax        # 17030 <g_67>
    d9f9:	48 89 85 30 f2 ff ff 	mov    %rax,-0xdd0(%rbp)
    da00:	48 8d 05 29 96 00 00 	lea    0x9629(%rip),%rax        # 17030 <g_67>
    da07:	48 89 85 38 f2 ff ff 	mov    %rax,-0xdc8(%rbp)
    da0e:	48 c7 85 40 f2 ff ff 	movq   $0x0,-0xdc0(%rbp)
    da15:	00 00 00 00 
    da19:	48 8d 05 10 96 00 00 	lea    0x9610(%rip),%rax        # 17030 <g_67>
    da20:	48 89 85 48 f2 ff ff 	mov    %rax,-0xdb8(%rbp)
    da27:	48 c7 85 50 f2 ff ff 	movq   $0x0,-0xdb0(%rbp)
    da2e:	00 00 00 00 
    da32:	48 8d 05 f7 95 00 00 	lea    0x95f7(%rip),%rax        # 17030 <g_67>
    da39:	48 89 85 58 f2 ff ff 	mov    %rax,-0xda8(%rbp)
    da40:	48 8d 05 e9 95 00 00 	lea    0x95e9(%rip),%rax        # 17030 <g_67>
    da47:	48 89 85 60 f2 ff ff 	mov    %rax,-0xda0(%rbp)
    da4e:	48 8d 05 db 95 00 00 	lea    0x95db(%rip),%rax        # 17030 <g_67>
    da55:	48 89 85 68 f2 ff ff 	mov    %rax,-0xd98(%rbp)
    da5c:	48 c7 85 70 f2 ff ff 	movq   $0x0,-0xd90(%rbp)
    da63:	00 00 00 00 
    da67:	48 8d 05 c2 95 00 00 	lea    0x95c2(%rip),%rax        # 17030 <g_67>
    da6e:	48 89 85 78 f2 ff ff 	mov    %rax,-0xd88(%rbp)
    da75:	48 c7 85 80 f2 ff ff 	movq   $0x0,-0xd80(%rbp)
    da7c:	00 00 00 00 
    da80:	48 c7 85 88 f2 ff ff 	movq   $0x0,-0xd78(%rbp)
    da87:	00 00 00 00 
    da8b:	48 8d 05 9e 95 00 00 	lea    0x959e(%rip),%rax        # 17030 <g_67>
    da92:	48 89 85 90 f2 ff ff 	mov    %rax,-0xd70(%rbp)
    da99:	48 8d 05 90 95 00 00 	lea    0x9590(%rip),%rax        # 17030 <g_67>
    daa0:	48 89 85 98 f2 ff ff 	mov    %rax,-0xd68(%rbp)
    daa7:	48 c7 85 a0 f2 ff ff 	movq   $0x0,-0xd60(%rbp)
    daae:	00 00 00 00 
    dab2:	48 8d 05 77 95 00 00 	lea    0x9577(%rip),%rax        # 17030 <g_67>
    dab9:	48 89 85 a8 f2 ff ff 	mov    %rax,-0xd58(%rbp)
    dac0:	48 c7 85 b0 f2 ff ff 	movq   $0x0,-0xd50(%rbp)
    dac7:	00 00 00 00 
    dacb:	48 8d 05 5e 95 00 00 	lea    0x955e(%rip),%rax        # 17030 <g_67>
    dad2:	48 89 85 b8 f2 ff ff 	mov    %rax,-0xd48(%rbp)
    dad9:	48 8d 05 50 95 00 00 	lea    0x9550(%rip),%rax        # 17030 <g_67>
    dae0:	48 89 85 c0 f2 ff ff 	mov    %rax,-0xd40(%rbp)
    dae7:	48 8d 05 42 95 00 00 	lea    0x9542(%rip),%rax        # 17030 <g_67>
    daee:	48 89 85 c8 f2 ff ff 	mov    %rax,-0xd38(%rbp)
    daf5:	48 c7 85 d0 f2 ff ff 	movq   $0x0,-0xd30(%rbp)
    dafc:	00 00 00 00 
    db00:	48 8d 05 29 95 00 00 	lea    0x9529(%rip),%rax        # 17030 <g_67>
    db07:	48 89 85 d8 f2 ff ff 	mov    %rax,-0xd28(%rbp)
    db0e:	48 c7 85 e0 f2 ff ff 	movq   $0x0,-0xd20(%rbp)
    db15:	00 00 00 00 
    db19:	48 c7 85 e8 f2 ff ff 	movq   $0x0,-0xd18(%rbp)
    db20:	00 00 00 00 
    db24:	48 8d 05 05 95 00 00 	lea    0x9505(%rip),%rax        # 17030 <g_67>
    db2b:	48 89 85 f0 f2 ff ff 	mov    %rax,-0xd10(%rbp)
    db32:	48 c7 85 80 f0 ff ff 	movq   $0x0,-0xf80(%rbp)
    db39:	00 00 00 00 
    db3d:	c7 85 08 f0 ff ff fa 	movl   $0xbbf2b9fa,-0xff8(%rbp)
    db44:	b9 f2 bb 
    db47:	c7 85 f0 ef ff ff 00 	movl   $0x0,-0x1010(%rbp)
    db4e:	00 00 00 
    db51:	eb 1a                	jmp    db6d <func_70+0xdde>
    db53:	8b 85 f0 ef ff ff    	mov    -0x1010(%rbp),%eax
    db59:	48 98                	cltq   
    db5b:	c7 84 85 b0 f1 ff ff 	movl   $0x3,-0xe50(%rbp,%rax,4)
    db62:	03 00 00 00 
    db66:	83 85 f0 ef ff ff 01 	addl   $0x1,-0x1010(%rbp)
    db6d:	83 bd f0 ef ff ff 01 	cmpl   $0x1,-0x1010(%rbp)
    db74:	7e dd                	jle    db53 <func_70+0xdc4>
    db76:	48 8b 05 2b a0 00 00 	mov    0xa02b(%rip),%rax        # 17ba8 <g_289>
    db7d:	8b 00                	mov    (%rax),%eax
    db7f:	85 c0                	test   %eax,%eax
    db81:	0f 85 70 09 00 00    	jne    e4f7 <func_70+0x1768>
    db87:	48 8b 85 a0 f0 ff ff 	mov    -0xf60(%rbp),%rax
    db8e:	48 c7 00 05 00 00 00 	movq   $0x5,(%rax)
    db95:	48 8b 85 a0 f0 ff ff 	mov    -0xf60(%rbp),%rax
    db9c:	48 8b 00             	mov    (%rax),%rax
    db9f:	48 85 c0             	test   %rax,%rax
    dba2:	0f 9e c0             	setle  %al
    dba5:	0f b6 c0             	movzbl %al,%eax
    dba8:	89 c6                	mov    %eax,%esi
    dbaa:	bf 25 ae 00 00       	mov    $0xae25,%edi
    dbaf:	e8 6b 51 ff ff       	callq  2d1f <safe_sub_func_uint16_t_u_u>
    dbb4:	66 85 c0             	test   %ax,%ax
    dbb7:	0f 85 cd 00 00 00    	jne    dc8a <func_70+0xefb>
    dbbd:	8b 05 75 94 00 00    	mov    0x9475(%rip),%eax        # 17038 <g_99>
    dbc3:	89 c3                	mov    %eax,%ebx
    dbc5:	48 8b 85 d0 ef ff ff 	mov    -0x1030(%rbp),%rax
    dbcc:	48 8b 00             	mov    (%rax),%rax
    dbcf:	0f b6 00             	movzbl (%rax),%eax
    dbd2:	0f be d0             	movsbl %al,%edx
    dbd5:	48 8b 85 b0 f0 ff ff 	mov    -0xf50(%rbp),%rax
    dbdc:	48 8b 8d a8 f0 ff ff 	mov    -0xf58(%rbp),%rcx
    dbe3:	48 89 08             	mov    %rcx,(%rax)
    dbe6:	48 8b 85 b0 f0 ff ff 	mov    -0xf50(%rbp),%rax
    dbed:	48 8b 00             	mov    (%rax),%rax
    dbf0:	48 39 85 a8 f0 ff ff 	cmp    %rax,-0xf58(%rbp)
    dbf7:	0f 95 c0             	setne  %al
    dbfa:	0f b6 c0             	movzbl %al,%eax
    dbfd:	39 85 ec ef ff ff    	cmp    %eax,-0x1014(%rbp)
    dc03:	0f 9f c0             	setg   %al
    dc06:	0f b6 c0             	movzbl %al,%eax
    dc09:	89 d6                	mov    %edx,%esi
    dc0b:	89 c7                	mov    %eax,%edi
    dc0d:	e8 7b 50 ff ff       	callq  2c8d <safe_rshift_func_uint8_t_u_s>
    dc12:	89 de                	mov    %ebx,%esi
    dc14:	bf 00 00 00 00       	mov    $0x0,%edi
    dc19:	e8 a0 50 ff ff       	callq  2cbe <safe_rshift_func_uint8_t_u_u>
    dc1e:	84 c0                	test   %al,%al
    dc20:	75 0d                	jne    dc2f <func_70+0xea0>
    dc22:	48 8b 85 50 f0 ff ff 	mov    -0xfb0(%rbp),%rax
    dc29:	8b 00                	mov    (%rax),%eax
    dc2b:	85 c0                	test   %eax,%eax
    dc2d:	74 07                	je     dc36 <func_70+0xea7>
    dc2f:	b8 01 00 00 00       	mov    $0x1,%eax
    dc34:	eb 05                	jmp    dc3b <func_70+0xeac>
    dc36:	b8 00 00 00 00       	mov    $0x0,%eax
    dc3b:	48 98                	cltq   
    dc3d:	48 89 85 58 f0 ff ff 	mov    %rax,-0xfa8(%rbp)
    dc44:	48 8b 85 58 f0 ff ff 	mov    -0xfa8(%rbp),%rax
    dc4b:	89 c2                	mov    %eax,%edx
    dc4d:	8b 05 05 94 00 00    	mov    0x9405(%rip),%eax        # 17058 <g_182+0x18>
    dc53:	31 d0                	xor    %edx,%eax
    dc55:	be f6 ff ff ff       	mov    $0xfffffff6,%esi
    dc5a:	89 c7                	mov    %eax,%edi
    dc5c:	e8 57 52 ff ff       	callq  2eb8 <safe_add_func_uint32_t_u_u>
    dc61:	85 c0                	test   %eax,%eax
    dc63:	74 10                	je     dc75 <func_70+0xee6>
    dc65:	80 bd dc ef ff ff 00 	cmpb   $0x0,-0x1024(%rbp)
    dc6c:	74 07                	je     dc75 <func_70+0xee6>
    dc6e:	ba 01 00 00 00       	mov    $0x1,%edx
    dc73:	eb 05                	jmp    dc7a <func_70+0xeeb>
    dc75:	ba 00 00 00 00       	mov    $0x0,%edx
    dc7a:	0f b6 05 bb 93 00 00 	movzbl 0x93bb(%rip),%eax        # 1703c <g_107>
    dc81:	0f be c0             	movsbl %al,%eax
    dc84:	21 d0                	and    %edx,%eax
    dc86:	85 c0                	test   %eax,%eax
    dc88:	74 07                	je     dc91 <func_70+0xf02>
    dc8a:	b8 01 00 00 00       	mov    $0x1,%eax
    dc8f:	eb 05                	jmp    dc96 <func_70+0xf07>
    dc91:	b8 00 00 00 00       	mov    $0x0,%eax
    dc96:	48 98                	cltq   
    dc98:	be 06 00 00 00       	mov    $0x6,%esi
    dc9d:	48 89 c7             	mov    %rax,%rdi
    dca0:	e8 db 53 ff ff       	callq  3080 <safe_mod_func_uint64_t_u_u>
    dca5:	0f bf d8             	movswl %ax,%ebx
    dca8:	0f b6 85 dc ef ff ff 	movzbl -0x1024(%rbp),%eax
    dcaf:	89 85 b0 f1 ff ff    	mov    %eax,-0xe50(%rbp)
    dcb5:	8b 85 b0 f1 ff ff    	mov    -0xe50(%rbp),%eax
    dcbb:	98                   	cwtl   
    dcbc:	89 c6                	mov    %eax,%esi
    dcbe:	bf c6 a6 ff ff       	mov    $0xffffa6c6,%edi
    dcc3:	e8 2d 47 ff ff       	callq  23f5 <safe_mul_func_int16_t_s_s>
    dcc8:	98                   	cwtl   
    dcc9:	89 de                	mov    %ebx,%esi
    dccb:	89 c7                	mov    %eax,%edi
    dccd:	e8 e1 46 ff ff       	callq  23b3 <safe_add_func_int16_t_s_s>
    dcd2:	0f bf d0             	movswl %ax,%edx
    dcd5:	0f b6 85 dc ef ff ff 	movzbl -0x1024(%rbp),%eax
    dcdc:	39 c2                	cmp    %eax,%edx
    dcde:	0f 9e c0             	setle  %al
    dce1:	0f b6 d0             	movzbl %al,%edx
    dce4:	0f b6 85 dc ef ff ff 	movzbl -0x1024(%rbp),%eax
    dceb:	39 c2                	cmp    %eax,%edx
    dced:	0f 9e c0             	setle  %al
    dcf0:	0f b6 d0             	movzbl %al,%edx
    dcf3:	0f b6 85 dc ef ff ff 	movzbl -0x1024(%rbp),%eax
    dcfa:	39 c2                	cmp    %eax,%edx
    dcfc:	0f 9e c0             	setle  %al
    dcff:	0f b6 c0             	movzbl %al,%eax
    dd02:	be 0c 00 00 00       	mov    $0xc,%esi
    dd07:	89 c7                	mov    %eax,%edi
    dd09:	e8 f8 50 ff ff       	callq  2e06 <safe_lshift_func_uint16_t_u_u>
    dd0e:	48 8b 15 9b 9e 00 00 	mov    0x9e9b(%rip),%rdx        # 17bb0 <g_385>
    dd15:	8b 0a                	mov    (%rdx),%ecx
    dd17:	0f b7 d0             	movzwl %ax,%edx
    dd1a:	48 8b 05 8f 9e 00 00 	mov    0x9e8f(%rip),%rax        # 17bb0 <g_385>
    dd21:	09 ca                	or     %ecx,%edx
    dd23:	89 10                	mov    %edx,(%rax)
    dd25:	48 8b 15 8c 9e 00 00 	mov    0x9e8c(%rip),%rdx        # 17bb8 <g_384>
    dd2c:	48 8b 05 8d 9e 00 00 	mov    0x9e8d(%rip),%rax        # 17bc0 <g_416>
    dd33:	48 8b 12             	mov    (%rdx),%rdx
    dd36:	48 89 10             	mov    %rdx,(%rax)
    dd39:	c7 85 ec ef ff ff 00 	movl   $0x0,-0x1014(%rbp)
    dd40:	00 00 00 
    dd43:	e9 82 07 00 00       	jmpq   e4ca <func_70+0x173b>
    dd48:	66 c7 85 e4 ef ff ff 	movw   $0xf9f0,-0x101c(%rbp)
    dd4f:	f0 f9 
    dd51:	48 8d 05 f4 92 00 00 	lea    0x92f4(%rip),%rax        # 1704c <g_182+0xc>
    dd58:	48 89 85 b8 f0 ff ff 	mov    %rax,-0xf48(%rbp)
    dd5f:	48 8d 85 90 f3 ff ff 	lea    -0xc70(%rbp),%rax
    dd66:	48 8d 15 93 99 00 00 	lea    0x9993(%rip),%rdx        # 17700 <g_1809+0x308>
    dd6d:	b9 2d 00 00 00       	mov    $0x2d,%ecx
    dd72:	48 89 c7             	mov    %rax,%rdi
    dd75:	48 89 d6             	mov    %rdx,%rsi
    dd78:	f3 48 a5             	rep movsq %ds:(%rsi),%es:(%rdi)
    dd7b:	48 c7 85 58 f0 ff ff 	movq   $0xffffffffffffffff,-0xfa8(%rbp)
    dd82:	ff ff ff ff 
    dd86:	e9 32 02 00 00       	jmpq   dfbd <func_70+0x122e>
    dd8b:	48 b8 60 a1 1d 7d d8 	movabs $0xee84cfd87d1da160,%rax
    dd92:	cf 84 ee 
    dd95:	48 89 85 88 f0 ff ff 	mov    %rax,-0xf78(%rbp)
    dd9c:	48 8d 85 90 f3 ff ff 	lea    -0xc70(%rbp),%rax
    dda3:	48 83 c0 08          	add    $0x8,%rax
    dda7:	48 89 85 f8 f0 ff ff 	mov    %rax,-0xf08(%rbp)
    ddae:	48 8d 85 80 f0 ff ff 	lea    -0xf80(%rbp),%rax
    ddb5:	48 89 85 00 f1 ff ff 	mov    %rax,-0xf00(%rbp)
    ddbc:	80 bd dc ef ff ff 00 	cmpb   $0x0,-0x1024(%rbp)
    ddc3:	74 4b                	je     de10 <func_70+0x1081>
    ddc5:	48 8b 05 0c 9d 00 00 	mov    0x9d0c(%rip),%rax        # 17ad8 <g_189>
    ddcc:	48 8b 00             	mov    (%rax),%rax
    ddcf:	48 89 85 98 f3 ff ff 	mov    %rax,-0xc68(%rbp)
    ddd6:	48 8b 85 98 f3 ff ff 	mov    -0xc68(%rbp),%rax
    dddd:	48 39 85 b8 f0 ff ff 	cmp    %rax,-0xf48(%rbp)
    dde4:	0f 94 c0             	sete   %al
    dde7:	0f b6 d8             	movzbl %al,%ebx
    ddea:	0f b7 05 83 92 00 00 	movzwl 0x9283(%rip),%eax        # 17074 <g_254>
    ddf1:	0f b7 c0             	movzwl %ax,%eax
    ddf4:	be 01 00 00 00       	mov    $0x1,%esi
    ddf9:	89 c7                	mov    %eax,%edi
    ddfb:	e8 5c 4f ff ff       	callq  2d5c <safe_mod_func_uint16_t_u_u>
    de00:	0f b7 c0             	movzwl %ax,%eax
    de03:	21 d8                	and    %ebx,%eax
    de05:	85 c0                	test   %eax,%eax
    de07:	74 07                	je     de10 <func_70+0x1081>
    de09:	b8 01 00 00 00       	mov    $0x1,%eax
    de0e:	eb 05                	jmp    de15 <func_70+0x1086>
    de10:	b8 00 00 00 00       	mov    $0x0,%eax
    de15:	0f b6 c0             	movzbl %al,%eax
    de18:	89 c6                	mov    %eax,%esi
    de1a:	bf 2c 00 00 00       	mov    $0x2c,%edi
    de1f:	e8 54 4d ff ff       	callq  2b78 <safe_sub_func_uint8_t_u_u>
    de24:	89 c2                	mov    %eax,%edx
    de26:	48 8b 85 c8 ef ff ff 	mov    -0x1038(%rbp),%rax
    de2d:	48 8b 00             	mov    (%rax),%rax
    de30:	88 10                	mov    %dl,(%rax)
    de32:	0f b6 00             	movzbl (%rax),%eax
    de35:	0f be c0             	movsbl %al,%eax
    de38:	83 e0 05             	and    $0x5,%eax
    de3b:	83 f8 01             	cmp    $0x1,%eax
    de3e:	74 13                	je     de53 <func_70+0x10c4>
    de40:	48 8b 85 88 f0 ff ff 	mov    -0xf78(%rbp),%rax
    de47:	48 85 c0             	test   %rax,%rax
    de4a:	74 07                	je     de53 <func_70+0x10c4>
    de4c:	b8 01 00 00 00       	mov    $0x1,%eax
    de51:	eb 05                	jmp    de58 <func_70+0x10c9>
    de53:	b8 00 00 00 00       	mov    $0x0,%eax
    de58:	48 98                	cltq   
    de5a:	48 c7 c6 fe ff ff ff 	mov    $0xfffffffffffffffe,%rsi
    de61:	48 89 c7             	mov    %rax,%rdi
    de64:	e8 c5 51 ff ff       	callq  302e <safe_add_func_uint64_t_u_u>
    de69:	48 85 c0             	test   %rax,%rax
    de6c:	74 13                	je     de81 <func_70+0x10f2>
    de6e:	48 8b 85 88 f0 ff ff 	mov    -0xf78(%rbp),%rax
    de75:	48 85 c0             	test   %rax,%rax
    de78:	74 07                	je     de81 <func_70+0x10f2>
    de7a:	ba 01 00 00 00       	mov    $0x1,%edx
    de7f:	eb 05                	jmp    de86 <func_70+0x10f7>
    de81:	ba 00 00 00 00       	mov    $0x0,%edx
    de86:	8b 05 c0 91 00 00    	mov    0x91c0(%rip),%eax        # 1704c <g_182+0xc>
    de8c:	39 c2                	cmp    %eax,%edx
    de8e:	74 09                	je     de99 <func_70+0x110a>
    de90:	80 bd dc ef ff ff 00 	cmpb   $0x0,-0x1024(%rbp)
    de97:	74 07                	je     dea0 <func_70+0x1111>
    de99:	b9 01 00 00 00       	mov    $0x1,%ecx
    de9e:	eb 05                	jmp    dea5 <func_70+0x1116>
    dea0:	b9 00 00 00 00       	mov    $0x0,%ecx
    dea5:	48 8b 05 04 9d 00 00 	mov    0x9d04(%rip),%rax        # 17bb0 <g_385>
    deac:	8b 10                	mov    (%rax),%edx
    deae:	48 8b 05 fb 9c 00 00 	mov    0x9cfb(%rip),%rax        # 17bb0 <g_385>
    deb5:	21 ca                	and    %ecx,%edx
    deb7:	89 10                	mov    %edx,(%rax)
    deb9:	0f b7 05 0c 92 00 00 	movzwl 0x920c(%rip),%eax        # 170cc <g_431>
    dec0:	66 85 c0             	test   %ax,%ax
    dec3:	0f 85 d3 00 00 00    	jne    df9c <func_70+0x120d>
    dec9:	48 8b 95 80 f0 ff ff 	mov    -0xf80(%rbp),%rdx
    ded0:	48 8b 85 00 f1 ff ff 	mov    -0xf00(%rbp),%rax
    ded7:	48 89 10             	mov    %rdx,(%rax)
    deda:	48 8b 85 00 f1 ff ff 	mov    -0xf00(%rbp),%rax
    dee1:	48 8b 00             	mov    (%rax),%rax
    dee4:	48 39 85 f8 f0 ff ff 	cmp    %rax,-0xf08(%rbp)
    deeb:	74 37                	je     df24 <func_70+0x1195>
    deed:	48 8b 85 50 f0 ff ff 	mov    -0xfb0(%rbp),%rax
    def4:	8b 00                	mov    (%rax),%eax
    def6:	98                   	cwtl   
    def7:	be 0b 00 00 00       	mov    $0xb,%esi
    defc:	89 c7                	mov    %eax,%edi
    defe:	e8 27 46 ff ff       	callq  252a <safe_rshift_func_int16_t_s_s>
    df03:	0f bf d8             	movswl %ax,%ebx
    df06:	0f b6 85 dc ef ff ff 	movzbl -0x1024(%rbp),%eax
    df0d:	89 c6                	mov    %eax,%esi
    df0f:	bf c8 7f ed ba       	mov    $0xbaed7fc8,%edi
    df14:	e8 e6 47 ff ff       	callq  26ff <safe_div_func_int32_t_s_s>
    df19:	39 c3                	cmp    %eax,%ebx
    df1b:	75 07                	jne    df24 <func_70+0x1195>
    df1d:	b8 01 00 00 00       	mov    $0x1,%eax
    df22:	eb 05                	jmp    df29 <func_70+0x119a>
    df24:	b8 00 00 00 00       	mov    $0x0,%eax
    df29:	48 63 d0             	movslq %eax,%rdx
    df2c:	0f b6 85 dc ef ff ff 	movzbl -0x1024(%rbp),%eax
    df33:	48 89 d6             	mov    %rdx,%rsi
    df36:	48 89 c7             	mov    %rax,%rdi
    df39:	e8 0d 51 ff ff       	callq  304b <safe_sub_func_uint64_t_u_u>
    df3e:	0f b6 85 dc ef ff ff 	movzbl -0x1024(%rbp),%eax
    df45:	89 c6                	mov    %eax,%esi
    df47:	bf 00 00 00 00       	mov    $0x0,%edi
    df4c:	e8 90 45 ff ff       	callq  24e1 <safe_lshift_func_int16_t_s_u>
    df51:	0f bf d0             	movswl %ax,%edx
    df54:	8b 05 de 90 00 00    	mov    0x90de(%rip),%eax        # 17038 <g_99>
    df5a:	3d d7 80 af 29       	cmp    $0x29af80d7,%eax
    df5f:	0f 9f c0             	setg   %al
    df62:	0f b6 c0             	movzbl %al,%eax
    df65:	39 c2                	cmp    %eax,%edx
    df67:	74 0b                	je     df74 <func_70+0x11e5>
    df69:	0f b6 05 cd 90 00 00 	movzbl 0x90cd(%rip),%eax        # 1703d <g_124>
    df70:	84 c0                	test   %al,%al
    df72:	74 12                	je     df86 <func_70+0x11f7>
    df74:	48 8b 05 35 9c 00 00 	mov    0x9c35(%rip),%rax        # 17bb0 <g_385>
    df7b:	0f b6 95 dc ef ff ff 	movzbl -0x1024(%rbp),%edx
    df82:	89 10                	mov    %edx,(%rax)
    df84:	eb 17                	jmp    df9d <func_70+0x120e>
    df86:	c7 85 10 f0 ff ff fb 	movl   $0xfffffffb,-0xff0(%rbp)
    df8d:	ff ff ff 
    df90:	c7 85 10 f0 ff ff 47 	movl   $0x1b90ee47,-0xff0(%rbp)
    df97:	ee 90 1b 
    df9a:	eb 01                	jmp    df9d <func_70+0x120e>
    df9c:	90                   	nop
    df9d:	48 8b 85 58 f0 ff ff 	mov    -0xfa8(%rbp),%rax
    dfa4:	0f b7 c0             	movzwl %ax,%eax
    dfa7:	be 01 00 00 00       	mov    $0x1,%esi
    dfac:	89 c7                	mov    %eax,%edi
    dfae:	e8 4c 4d ff ff       	callq  2cff <safe_add_func_uint16_t_u_u>
    dfb3:	0f b7 c0             	movzwl %ax,%eax
    dfb6:	48 89 85 58 f0 ff ff 	mov    %rax,-0xfa8(%rbp)
    dfbd:	48 8b 85 58 f0 ff ff 	mov    -0xfa8(%rbp),%rax
    dfc4:	48 83 f8 1c          	cmp    $0x1c,%rax
    dfc8:	0f 86 bd fd ff ff    	jbe    dd8b <func_70+0xffc>
    dfce:	80 bd dc ef ff ff 00 	cmpb   $0x0,-0x1024(%rbp)
    dfd5:	74 1e                	je     dff5 <func_70+0x1266>
    dfd7:	48 8d 85 b0 f1 ff ff 	lea    -0xe50(%rbp),%rax
    dfde:	48 83 c0 04          	add    $0x4,%rax
    dfe2:	48 89 85 f0 f0 ff ff 	mov    %rax,-0xf10(%rbp)
    dfe9:	48 8d 05 38 90 00 00 	lea    0x9038(%rip),%rax        # 17028 <g_52>
    dff0:	e9 b4 1d 00 00       	jmpq   fda9 <func_70+0x301a>
    dff5:	48 c7 85 c0 f0 ff ff 	movq   $0x0,-0xf40(%rbp)
    dffc:	00 00 00 00 
    e000:	48 8d 05 c1 9a 00 00 	lea    0x9ac1(%rip),%rax        # 17ac8 <g_105>
    e007:	48 89 85 c8 f0 ff ff 	mov    %rax,-0xf38(%rbp)
    e00e:	c7 85 88 f0 ff ff 05 	movl   $0x5,-0xf78(%rbp)
    e015:	00 00 00 
    e018:	c7 85 f4 ef ff ff 00 	movl   $0x0,-0x100c(%rbp)
    e01f:	00 00 00 
    e022:	eb 1e                	jmp    e042 <func_70+0x12b3>
    e024:	8b 85 f4 ef ff ff    	mov    -0x100c(%rbp),%eax
    e02a:	48 98                	cltq   
    e02c:	48 8d 15 97 90 00 00 	lea    0x9097(%rip),%rdx        # 170ca <g_311>
    e033:	48 89 94 c5 a0 f1 ff 	mov    %rdx,-0xe60(%rbp,%rax,8)
    e03a:	ff 
    e03b:	83 85 f4 ef ff ff 01 	addl   $0x1,-0x100c(%rbp)
    e042:	83 bd f4 ef ff ff 00 	cmpl   $0x0,-0x100c(%rbp)
    e049:	7e d9                	jle    e024 <func_70+0x1295>
    e04b:	48 8b 05 6e 9a 00 00 	mov    0x9a6e(%rip),%rax        # 17ac0 <g_106>
    e052:	0f b6 00             	movzbl (%rax),%eax
    e055:	0f be d8             	movsbl %al,%ebx
    e058:	48 8b 85 c8 f0 ff ff 	mov    -0xf38(%rbp),%rax
    e05f:	48 8d 15 5a 9a 00 00 	lea    0x9a5a(%rip),%rdx        # 17ac0 <g_106>
    e066:	48 89 10             	mov    %rdx,(%rax)
    e069:	48 8b 85 c8 f0 ff ff 	mov    -0xf38(%rbp),%rax
    e070:	48 8b 00             	mov    (%rax),%rax
    e073:	48 8d 15 46 9a 00 00 	lea    0x9a46(%rip),%rdx        # 17ac0 <g_106>
    e07a:	48 39 d0             	cmp    %rdx,%rax
    e07d:	0f 94 c0             	sete   %al
    e080:	0f b6 d0             	movzbl %al,%edx
    e083:	0f b6 85 dc ef ff ff 	movzbl -0x1024(%rbp),%eax
    e08a:	39 c2                	cmp    %eax,%edx
    e08c:	0f 95 c0             	setne  %al
    e08f:	0f b6 c0             	movzbl %al,%eax
    e092:	89 c7                	mov    %eax,%edi
    e094:	e8 50 4c ff ff       	callq  2ce9 <safe_unary_minus_func_uint16_t_u>
    e099:	44 0f b7 e8          	movzwl %ax,%r13d
    e09d:	48 8b 05 1c 9a 00 00 	mov    0x9a1c(%rip),%rax        # 17ac0 <g_106>
    e0a4:	0f b6 00             	movzbl (%rax),%eax
    e0a7:	0f be c0             	movsbl %al,%eax
    e0aa:	89 c6                	mov    %eax,%esi
    e0ac:	bf 0e 00 00 00       	mov    $0xe,%edi
    e0b1:	e8 eb 41 ff ff       	callq  22a1 <safe_lshift_func_int8_t_s_s>
    e0b6:	44 0f be e0          	movsbl %al,%r12d
    e0ba:	be 05 00 00 00       	mov    $0x5,%esi
    e0bf:	bf 12 00 00 00       	mov    $0x12,%edi
    e0c4:	e8 3c 4b ff ff       	callq  2c05 <safe_lshift_func_uint8_t_u_s>
    e0c9:	0f be c0             	movsbl %al,%eax
    e0cc:	44 89 e6             	mov    %r12d,%esi
    e0cf:	89 c7                	mov    %eax,%edi
    e0d1:	e8 18 42 ff ff       	callq  22ee <safe_lshift_func_int8_t_s_u>
    e0d6:	0f b7 05 ef 8f 00 00 	movzwl 0x8fef(%rip),%eax        # 170cc <g_431>
    e0dd:	0f b7 c0             	movzwl %ax,%eax
    e0e0:	be 01 00 00 00       	mov    $0x1,%esi
    e0e5:	48 89 c7             	mov    %rax,%rdi
    e0e8:	e8 c7 48 ff ff       	callq  29b4 <safe_mod_func_int64_t_s_s>
    e0ed:	98                   	cwtl   
    e0ee:	be 07 00 00 00       	mov    $0x7,%esi
    e0f3:	89 c7                	mov    %eax,%edi
    e0f5:	e8 e7 43 ff ff       	callq  24e1 <safe_lshift_func_int16_t_s_u>
    e0fa:	be cf 92 00 00       	mov    $0x92cf,%esi
    e0ff:	bf 00 00 00 00       	mov    $0x0,%edi
    e104:	e8 53 4c ff ff       	callq  2d5c <safe_mod_func_uint16_t_u_u>
    e109:	98                   	cwtl   
    e10a:	be ff 3d 00 00       	mov    $0x3dff,%esi
    e10f:	89 c7                	mov    %eax,%edi
    e111:	e8 3f 43 ff ff       	callq  2455 <safe_div_func_int16_t_s_s>
    e116:	98                   	cwtl   
    e117:	41 39 c5             	cmp    %eax,%r13d
    e11a:	0f 9d c0             	setge  %al
    e11d:	0f b6 d0             	movzbl %al,%edx
    e120:	8b 05 12 8f 00 00    	mov    0x8f12(%rip),%eax        # 17038 <g_99>
    e126:	39 c2                	cmp    %eax,%edx
    e128:	0f 9c c0             	setl   %al
    e12b:	0f b6 c0             	movzbl %al,%eax
    e12e:	89 de                	mov    %ebx,%esi
    e130:	89 c7                	mov    %eax,%edi
    e132:	e8 ce 4a ff ff       	callq  2c05 <safe_lshift_func_uint8_t_u_s>
    e137:	0f b7 85 e4 ef ff ff 	movzwl -0x101c(%rbp),%eax
    e13e:	66 85 c0             	test   %ax,%ax
    e141:	0f 84 d8 02 00 00    	je     e41f <func_70+0x1690>
    e147:	c6 05 ee 8e 00 00 02 	movb   $0x2,0x8eee(%rip)        # 1703c <g_107>
    e14e:	e9 bb 02 00 00       	jmpq   e40e <func_70+0x167f>
    e153:	66 c7 85 70 f0 ff ff 	movw   $0x2a00,-0xf90(%rbp)
    e15a:	00 2a 
    e15c:	48 8d 05 cd 8f 00 00 	lea    0x8fcd(%rip),%rax        # 17130 <g_483+0x50>
    e163:	48 89 85 e0 f0 ff ff 	mov    %rax,-0xf20(%rbp)
    e16a:	c7 85 f8 ef ff ff 94 	movl   $0xde8cf694,-0x1008(%rbp)
    e171:	f6 8c de 
    e174:	c7 85 0c f0 ff ff 06 	movl   $0xb47df706,-0xff4(%rbp)
    e17b:	f7 7d b4 
    e17e:	48 8d 85 90 f5 ff ff 	lea    -0xa70(%rbp),%rax
    e185:	48 8d 15 f4 96 00 00 	lea    0x96f4(%rip),%rdx        # 17880 <g_1809+0x488>
    e18c:	b9 30 00 00 00       	mov    $0x30,%ecx
    e191:	48 89 c7             	mov    %rax,%rdi
    e194:	48 89 d6             	mov    %rdx,%rsi
    e197:	f3 48 a5             	rep movsq %ds:(%rsi),%es:(%rdi)
    e19a:	48 8d 85 70 f0 ff ff 	lea    -0xf90(%rbp),%rax
    e1a1:	48 89 85 e8 f0 ff ff 	mov    %rax,-0xf18(%rbp)
    e1a8:	8b 05 22 8f 00 00    	mov    0x8f22(%rip),%eax        # 170d0 <g_469>
    e1ae:	83 e8 01             	sub    $0x1,%eax
    e1b1:	89 05 19 8f 00 00    	mov    %eax,0x8f19(%rip)        # 170d0 <g_469>
    e1b7:	48 8b 05 0a 99 00 00 	mov    0x990a(%rip),%rax        # 17ac8 <g_105>
    e1be:	48 8b 00             	mov    (%rax),%rax
    e1c1:	0f b6 00             	movzbl (%rax),%eax
    e1c4:	0f be d8             	movsbl %al,%ebx
    e1c7:	80 bd dc ef ff ff 00 	cmpb   $0x0,-0x1024(%rbp)
    e1ce:	0f 85 da 00 00 00    	jne    e2ae <func_70+0x151f>
    e1d4:	48 8b 05 ed 99 00 00 	mov    0x99ed(%rip),%rax        # 17bc8 <g_476>
    e1db:	48 89 05 e6 99 00 00 	mov    %rax,0x99e6(%rip)        # 17bc8 <g_476>
    e1e2:	48 8b 05 df 99 00 00 	mov    0x99df(%rip),%rax        # 17bc8 <g_476>
    e1e9:	48 8d 15 40 99 00 00 	lea    0x9940(%rip),%rdx        # 17b30 <g_187>
    e1f0:	48 39 d0             	cmp    %rdx,%rax
    e1f3:	0f 85 9a 00 00 00    	jne    e293 <func_70+0x1504>
    e1f9:	b8 5e d4 46 45       	mov    $0x4546d45e,%eax
    e1fe:	48 63 c8             	movslq %eax,%rcx
    e201:	0f b6 95 dc ef ff ff 	movzbl -0x1024(%rbp),%edx
    e208:	48 8b 85 a0 f0 ff ff 	mov    -0xf60(%rbp),%rax
    e20f:	48 89 10             	mov    %rdx,(%rax)
    e212:	48 8b 85 a0 f0 ff ff 	mov    -0xf60(%rbp),%rax
    e219:	48 8b 10             	mov    (%rax),%rdx
    e21c:	48 8b 85 e0 f0 ff ff 	mov    -0xf20(%rbp),%rax
    e223:	48 89 10             	mov    %rdx,(%rax)
    e226:	48 8b 85 e0 f0 ff ff 	mov    -0xf20(%rbp),%rax
    e22d:	48 8b 00             	mov    (%rax),%rax
    e230:	48 39 c1             	cmp    %rax,%rcx
    e233:	0f 9e c0             	setle  %al
    e236:	0f b6 c0             	movzbl %al,%eax
    e239:	48 89 05 30 8f 00 00 	mov    %rax,0x8f30(%rip)        # 17170 <g_484>
    e240:	48 8b 05 29 8f 00 00 	mov    0x8f29(%rip),%rax        # 17170 <g_484>
    e247:	48 ba 02 dc c6 3c 28 	movabs $0x525309283cc6dc02,%rdx
    e24e:	09 53 52 
    e251:	48 21 d0             	and    %rdx,%rax
    e254:	48 83 f8 f8          	cmp    $0xfffffffffffffff8,%rax
    e258:	0f 96 c0             	setbe  %al
    e25b:	0f b6 d0             	movzbl %al,%edx
    e25e:	8b 05 0c 8e 00 00    	mov    0x8e0c(%rip),%eax        # 17070 <g_209>
    e264:	21 c2                	and    %eax,%edx
    e266:	8b 85 88 f0 ff ff    	mov    -0xf78(%rbp),%eax
    e26c:	39 c2                	cmp    %eax,%edx
    e26e:	0f 94 c0             	sete   %al
    e271:	0f b6 c0             	movzbl %al,%eax
    e274:	be e9 00 00 00       	mov    $0xe9,%esi
    e279:	89 c7                	mov    %eax,%edi
    e27b:	e8 13 49 ff ff       	callq  2b93 <safe_mul_func_uint8_t_u_u>
    e280:	48 8b 95 a0 f1 ff ff 	mov    -0xe60(%rbp),%rdx
    e287:	48 8b 85 68 f0 ff ff 	mov    -0xf98(%rbp),%rax
    e28e:	48 39 c2             	cmp    %rax,%rdx
    e291:	75 07                	jne    e29a <func_70+0x150b>
    e293:	b8 01 00 00 00       	mov    $0x1,%eax
    e298:	eb 05                	jmp    e29f <func_70+0x1510>
    e29a:	b8 00 00 00 00       	mov    $0x0,%eax
    e29f:	89 85 f8 ef ff ff    	mov    %eax,-0x1008(%rbp)
    e2a5:	80 bd dc ef ff ff 00 	cmpb   $0x0,-0x1024(%rbp)
    e2ac:	74 07                	je     e2b5 <func_70+0x1526>
    e2ae:	b8 01 00 00 00       	mov    $0x1,%eax
    e2b3:	eb 05                	jmp    e2ba <func_70+0x152b>
    e2b5:	b8 00 00 00 00       	mov    $0x0,%eax
    e2ba:	83 f8 ff             	cmp    $0xffffffff,%eax
    e2bd:	0f 95 c0             	setne  %al
    e2c0:	0f b6 d0             	movzbl %al,%edx
    e2c3:	48 8b 05 66 8d 00 00 	mov    0x8d66(%rip),%rax        # 17030 <g_67>
    e2ca:	48 39 c2             	cmp    %rax,%rdx
    e2cd:	0f 93 c0             	setae  %al
    e2d0:	0f b6 c0             	movzbl %al,%eax
    e2d3:	89 de                	mov    %ebx,%esi
    e2d5:	89 c7                	mov    %eax,%edi
    e2d7:	e8 59 40 ff ff       	callq  2335 <safe_rshift_func_int8_t_s_s>
    e2dc:	0f be d0             	movsbl %al,%edx
    e2df:	0f b7 85 70 f0 ff ff 	movzwl -0xf90(%rbp),%eax
    e2e6:	0f b7 c0             	movzwl %ax,%eax
    e2e9:	39 c2                	cmp    %eax,%edx
    e2eb:	0f 95 c0             	setne  %al
    e2ee:	0f b6 c0             	movzbl %al,%eax
    e2f1:	8b 95 08 f0 ff ff    	mov    -0xff8(%rbp),%edx
    e2f7:	89 d6                	mov    %edx,%esi
    e2f9:	89 c7                	mov    %eax,%edi
    e2fb:	e8 7a 4b ff ff       	callq  2e7a <safe_rshift_func_uint16_t_u_u>
    e300:	0f b7 c0             	movzwl %ax,%eax
    e303:	89 85 0c f0 ff ff    	mov    %eax,-0xff4(%rbp)
    e309:	8b 85 0c f0 ff ff    	mov    -0xff4(%rbp),%eax
    e30f:	48 98                	cltq   
    e311:	48 89 05 18 8d 00 00 	mov    %rax,0x8d18(%rip)        # 17030 <g_67>
    e318:	ba 00 00 00 00       	mov    $0x0,%edx
    e31d:	8b 05 05 8d 00 00    	mov    0x8d05(%rip),%eax        # 17028 <g_52>
    e323:	21 d0                	and    %edx,%eax
    e325:	89 05 fd 8c 00 00    	mov    %eax,0x8cfd(%rip)        # 17028 <g_52>
    e32b:	80 bd dc ef ff ff 00 	cmpb   $0x0,-0x1024(%rbp)
    e332:	0f 85 c5 00 00 00    	jne    e3fd <func_70+0x166e>
    e338:	0f b6 9d dc ef ff ff 	movzbl -0x1024(%rbp),%ebx
    e33f:	8b 05 f3 8c 00 00    	mov    0x8cf3(%rip),%eax        # 17038 <g_99>
    e345:	0f b7 c0             	movzwl %ax,%eax
    e348:	be 0f 00 00 00       	mov    $0xf,%esi
    e34d:	89 c7                	mov    %eax,%edi
    e34f:	e8 6a 4a ff ff       	callq  2dbe <safe_lshift_func_uint16_t_u_s>
    e354:	66 85 c0             	test   %ax,%ax
    e357:	74 49                	je     e3a2 <func_70+0x1613>
    e359:	be e4 d9 41 6e       	mov    $0x6e41d9e4,%esi
    e35e:	bf 00 00 00 00       	mov    $0x0,%edi
    e363:	e8 68 4b ff ff       	callq  2ed0 <safe_sub_func_uint32_t_u_u>
    e368:	3d 97 fe 00 00       	cmp    $0xfe97,%eax
    e36d:	0f 96 c0             	setbe  %al
    e370:	0f b6 d0             	movzbl %al,%edx
    e373:	48 8b 05 b6 8d 00 00 	mov    0x8db6(%rip),%rax        # 17130 <g_483+0x50>
    e37a:	48 21 c2             	and    %rax,%rdx
    e37d:	0f b6 05 d4 4c 00 00 	movzbl 0x4cd4(%rip),%eax        # 13058 <g_467>
    e384:	0f b6 c0             	movzbl %al,%eax
    e387:	48 21 d0             	and    %rdx,%rax
    e38a:	48 85 c0             	test   %rax,%rax
    e38d:	74 13                	je     e3a2 <func_70+0x1613>
    e38f:	0f b7 05 32 8d 00 00 	movzwl 0x8d32(%rip),%eax        # 170c8 <g_307>
    e396:	66 85 c0             	test   %ax,%ax
    e399:	74 07                	je     e3a2 <func_70+0x1613>
    e39b:	b8 01 00 00 00       	mov    $0x1,%eax
    e3a0:	eb 05                	jmp    e3a7 <func_70+0x1618>
    e3a2:	b8 00 00 00 00       	mov    $0x0,%eax
    e3a7:	39 d8                	cmp    %ebx,%eax
    e3a9:	8b 05 99 8c 00 00    	mov    0x8c99(%rip),%eax        # 17048 <g_182+0x8>
    e3af:	0f be c0             	movsbl %al,%eax
    e3b2:	89 c6                	mov    %eax,%esi
    e3b4:	bf 00 00 00 00       	mov    $0x0,%edi
    e3b9:	e8 54 3e ff ff       	callq  2212 <safe_mul_func_int8_t_s_s>
    e3be:	84 c0                	test   %al,%al
    e3c0:	0f 95 c0             	setne  %al
    e3c3:	0f b6 c0             	movzbl %al,%eax
    e3c6:	be ca 34 dd 1e       	mov    $0x1edd34ca,%esi
    e3cb:	89 c7                	mov    %eax,%edi
    e3cd:	e8 33 42 ff ff       	callq  2605 <safe_sub_func_int32_t_s_s>
    e3d2:	89 c2                	mov    %eax,%edx
    e3d4:	48 8b 85 e8 f0 ff ff 	mov    -0xf18(%rbp),%rax
    e3db:	66 89 10             	mov    %dx,(%rax)
    e3de:	48 8b 85 e8 f0 ff ff 	mov    -0xf18(%rbp),%rax
    e3e5:	0f b7 00             	movzwl (%rax),%eax
    e3e8:	0f b7 d0             	movzwl %ax,%edx
    e3eb:	8b 85 88 f0 ff ff    	mov    -0xf78(%rbp),%eax
    e3f1:	31 d0                	xor    %edx,%eax
    e3f3:	48 98                	cltq   
    e3f5:	21 85 f8 ef ff ff    	and    %eax,-0x1008(%rbp)
    e3fb:	eb 01                	jmp    e3fe <func_70+0x166f>
    e3fd:	90                   	nop
    e3fe:	0f b6 05 37 8c 00 00 	movzbl 0x8c37(%rip),%eax        # 1703c <g_107>
    e405:	83 e8 01             	sub    $0x1,%eax
    e408:	88 05 2e 8c 00 00    	mov    %al,0x8c2e(%rip)        # 1703c <g_107>
    e40e:	0f b6 05 27 8c 00 00 	movzbl 0x8c27(%rip),%eax        # 1703c <g_107>
    e415:	84 c0                	test   %al,%al
    e417:	0f 89 36 fd ff ff    	jns    e153 <func_70+0x13c4>
    e41d:	eb 52                	jmp    e471 <func_70+0x16e2>
    e41f:	48 8d 85 b0 f1 ff ff 	lea    -0xe50(%rbp),%rax
    e426:	48 89 85 d0 f0 ff ff 	mov    %rax,-0xf30(%rbp)
    e42d:	c7 85 88 f0 ff ff 0d 	movl   $0xd,-0xf78(%rbp)
    e434:	00 00 00 
    e437:	90                   	nop
    e438:	8b 85 88 f0 ff ff    	mov    -0xf78(%rbp),%eax
    e43e:	83 f8 f9             	cmp    $0xfffffff9,%eax
    e441:	7d 17                	jge    e45a <func_70+0x16cb>
    e443:	48 c7 85 d8 f0 ff ff 	movq   $0x0,-0xf28(%rbp)
    e44a:	00 00 00 00 
    e44e:	48 8b 85 d8 f0 ff ff 	mov    -0xf28(%rbp),%rax
    e455:	e9 4f 19 00 00       	jmpq   fda9 <func_70+0x301a>
    e45a:	80 bd dc ef ff ff 00 	cmpb   $0x0,-0x1024(%rbp)
    e461:	75 60                	jne    e4c3 <func_70+0x1734>
    e463:	48 8b 85 d0 f0 ff ff 	mov    -0xf30(%rbp),%rax
    e46a:	48 89 05 97 9e 00 00 	mov    %rax,0x9e97(%rip)        # 18308 <g_211>
    e471:	48 c7 05 b4 8b 00 00 	movq   $0x12,0x8bb4(%rip)        # 17030 <g_67>
    e478:	12 00 00 00 
    e47c:	eb 35                	jmp    e4b3 <func_70+0x1724>
    e47e:	48 8b 05 53 97 00 00 	mov    0x9753(%rip),%rax        # 17bd8 <g_506>
    e485:	48 8d 15 dc 95 00 00 	lea    0x95dc(%rip),%rdx        # 17a68 <g_98+0x68>
    e48c:	48 89 10             	mov    %rdx,(%rax)
    e48f:	80 bd dc ef ff ff 00 	cmpb   $0x0,-0x1024(%rbp)
    e496:	75 2a                	jne    e4c2 <func_70+0x1733>
    e498:	48 8b 05 91 8b 00 00 	mov    0x8b91(%rip),%rax        # 17030 <g_67>
    e49f:	be 04 00 00 00       	mov    $0x4,%esi
    e4a4:	48 89 c7             	mov    %rax,%rdi
    e4a7:	e8 95 43 ff ff       	callq  2841 <safe_add_func_int64_t_s_s>
    e4ac:	48 89 05 7d 8b 00 00 	mov    %rax,0x8b7d(%rip)        # 17030 <g_67>
    e4b3:	48 8b 05 76 8b 00 00 	mov    0x8b76(%rip),%rax        # 17030 <g_67>
    e4ba:	48 83 f8 32          	cmp    $0x32,%rax
    e4be:	76 be                	jbe    e47e <func_70+0x16ef>
    e4c0:	eb 01                	jmp    e4c3 <func_70+0x1734>
    e4c2:	90                   	nop
    e4c3:	83 85 ec ef ff ff 01 	addl   $0x1,-0x1014(%rbp)
    e4ca:	83 bd ec ef ff ff 09 	cmpl   $0x9,-0x1014(%rbp)
    e4d1:	0f 8e 71 f8 ff ff    	jle    dd48 <func_70+0xfb9>
    e4d7:	8b 05 5b 8b 00 00    	mov    0x8b5b(%rip),%eax        # 17038 <g_99>
    e4dd:	83 c0 01             	add    $0x1,%eax
    e4e0:	89 05 52 8b 00 00    	mov    %eax,0x8b52(%rip)        # 17038 <g_99>
    e4e6:	8b 05 4c 8b 00 00    	mov    0x8b4c(%rip),%eax        # 17038 <g_99>
    e4ec:	83 f8 18             	cmp    $0x18,%eax
    e4ef:	0f 8f 9a f4 ff ff    	jg     d98f <func_70+0xc00>
    e4f5:	eb 01                	jmp    e4f8 <func_70+0x1769>
    e4f7:	90                   	nop
    e4f8:	48 8d 05 31 8b 00 00 	lea    0x8b31(%rip),%rax        # 17030 <g_67>
    e4ff:	48 89 85 08 f1 ff ff 	mov    %rax,-0xef8(%rbp)
    e506:	48 8d 05 1b 8b 00 00 	lea    0x8b1b(%rip),%rax        # 17028 <g_52>
    e50d:	48 89 85 10 f1 ff ff 	mov    %rax,-0xef0(%rbp)
    e514:	48 8d 05 a5 8b 00 00 	lea    0x8ba5(%rip),%rax        # 170c0 <g_299>
    e51b:	48 89 85 18 f1 ff ff 	mov    %rax,-0xee8(%rbp)
    e522:	44 0f b6 ad dc ef ff 	movzbl -0x1024(%rbp),%r13d
    e529:	ff 
    e52a:	b8 5e d4 46 45       	mov    $0x4546d45e,%eax
    e52f:	0f b7 d8             	movzwl %ax,%ebx
    e532:	48 83 bd 90 f0 ff ff 	cmpq   $0x0,-0xf70(%rbp)
    e539:	00 
    e53a:	0f 94 c0             	sete   %al
    e53d:	44 0f b6 f0          	movzbl %al,%r14d
    e541:	48 8b 85 08 f1 ff ff 	mov    -0xef8(%rbp),%rax
    e548:	48 c7 00 ff ff ff ff 	movq   $0xffffffffffffffff,(%rax)
    e54f:	48 8b 05 6a 96 00 00 	mov    0x966a(%rip),%rax        # 17bc0 <g_416>
    e556:	48 8b 00             	mov    (%rax),%rax
    e559:	48 39 85 10 f1 ff ff 	cmp    %rax,-0xef0(%rbp)
    e560:	0f 94 c0             	sete   %al
    e563:	0f b6 c0             	movzbl %al,%eax
    e566:	be 02 00 00 00       	mov    $0x2,%esi
    e56b:	89 c7                	mov    %eax,%edi
    e56d:	e8 1b 47 ff ff       	callq  2c8d <safe_rshift_func_uint8_t_u_s>
    e572:	48 8b 05 47 8b 00 00 	mov    0x8b47(%rip),%rax        # 170c0 <g_299>
    e579:	44 0f be e0          	movsbl %al,%r12d
    e57d:	48 8b 85 10 f1 ff ff 	mov    -0xef0(%rbp),%rax
    e584:	8b 00                	mov    (%rax),%eax
    e586:	0f bf d0             	movswl %ax,%edx
    e589:	0f b6 8d dc ef ff ff 	movzbl -0x1024(%rbp),%ecx
    e590:	8b 05 8e 8a 00 00    	mov    0x8a8e(%rip),%eax        # 17024 <g_15>
    e596:	39 c1                	cmp    %eax,%ecx
    e598:	0f 92 c0             	setb   %al
    e59b:	0f b6 c0             	movzbl %al,%eax
    e59e:	89 d6                	mov    %edx,%esi
    e5a0:	89 c7                	mov    %eax,%edi
    e5a2:	e8 4e 3e ff ff       	callq  23f5 <safe_mul_func_int16_t_s_s>
    e5a7:	48 0f bf c0          	movswq %ax,%rax
    e5ab:	48 89 c7             	mov    %rax,%rdi
    e5ae:	e8 63 42 ff ff       	callq  2816 <safe_unary_minus_func_int64_t_s>
    e5b3:	48 89 c2             	mov    %rax,%rdx
    e5b6:	48 8b 85 08 f1 ff ff 	mov    -0xef8(%rbp),%rax
    e5bd:	48 89 10             	mov    %rdx,(%rax)
    e5c0:	48 8b 85 08 f1 ff ff 	mov    -0xef8(%rbp),%rax
    e5c7:	48 8b 00             	mov    (%rax),%rax
    e5ca:	48 89 c6             	mov    %rax,%rsi
    e5cd:	bf 01 00 00 00       	mov    $0x1,%edi
    e5d2:	e8 74 4a ff ff       	callq  304b <safe_sub_func_uint64_t_u_u>
    e5d7:	0f be c0             	movsbl %al,%eax
    e5da:	44 89 e6             	mov    %r12d,%esi
    e5dd:	89 c7                	mov    %eax,%edi
    e5df:	e8 4d 3c ff ff       	callq  2231 <safe_mod_func_int8_t_s_s>
    e5e4:	48 0f be d0          	movsbq %al,%rdx
    e5e8:	48 8b 85 18 f1 ff ff 	mov    -0xee8(%rbp),%rax
    e5ef:	48 89 10             	mov    %rdx,(%rax)
    e5f2:	48 8b 85 18 f1 ff ff 	mov    -0xee8(%rbp),%rax
    e5f9:	48 8b 10             	mov    (%rax),%rdx
    e5fc:	48 8b 85 10 f1 ff ff 	mov    -0xef0(%rbp),%rax
    e603:	8b 00                	mov    (%rax),%eax
    e605:	48 98                	cltq   
    e607:	48 31 d0             	xor    %rdx,%rax
    e60a:	4c 89 f2             	mov    %r14,%rdx
    e60d:	48 09 c2             	or     %rax,%rdx
    e610:	0f b6 05 26 8a 00 00 	movzbl 0x8a26(%rip),%eax        # 1703d <g_124>
    e617:	0f b6 c0             	movzbl %al,%eax
    e61a:	48 39 c2             	cmp    %rax,%rdx
    e61d:	0f 95 c0             	setne  %al
    e620:	0f b6 c0             	movzbl %al,%eax
    e623:	be f0 7f 4b 9d       	mov    $0x9d4b7ff0,%esi
    e628:	89 c7                	mov    %eax,%edi
    e62a:	e8 d0 40 ff ff       	callq  26ff <safe_div_func_int32_t_s_s>
    e62f:	0f b7 c0             	movzwl %ax,%eax
    e632:	89 de                	mov    %ebx,%esi
    e634:	89 c7                	mov    %eax,%edi
    e636:	e8 02 47 ff ff       	callq  2d3d <safe_mul_func_uint16_t_u_u>
    e63b:	66 41 39 c5          	cmp    %ax,%r13w
    e63f:	0f 93 c2             	setae  %dl
    e642:	48 8b 05 67 95 00 00 	mov    0x9567(%rip),%rax        # 17bb0 <g_385>
    e649:	0f b6 d2             	movzbl %dl,%edx
    e64c:	89 10                	mov    %edx,(%rax)
    e64e:	48 8b 05 7b 95 00 00 	mov    0x957b(%rip),%rax        # 17bd0 <g_507>
    e655:	48 8b 95 10 f1 ff ff 	mov    -0xef0(%rbp),%rdx
    e65c:	48 89 10             	mov    %rdx,(%rax)
    e65f:	c7 05 cf 89 00 00 00 	movl   $0x0,0x89cf(%rip)        # 17038 <g_99>
    e666:	00 00 00 
    e669:	e9 25 17 00 00       	jmpq   fd93 <func_70+0x3004>
    e66e:	c6 85 e2 ef ff ff 01 	movb   $0x1,-0x101e(%rbp)
    e675:	c7 85 14 f0 ff ff fc 	movl   $0xfffffffc,-0xfec(%rbp)
    e67c:	ff ff ff 
    e67f:	48 8d 05 1a 9d 00 00 	lea    0x9d1a(%rip),%rax        # 183a0 <g_576>
    e686:	48 89 85 20 f1 ff ff 	mov    %rax,-0xee0(%rbp)
    e68d:	c7 85 18 f0 ff ff 45 	movl   $0x7bc2c645,-0xfe8(%rbp)
    e694:	c6 c2 7b 
    e697:	48 8d 05 ae 89 00 00 	lea    0x89ae(%rip),%rax        # 1704c <g_182+0xc>
    e69e:	48 89 85 70 f0 ff ff 	mov    %rax,-0xf90(%rbp)
    e6a5:	48 8d 85 70 f0 ff ff 	lea    -0xf90(%rbp),%rax
    e6ac:	48 89 85 78 f0 ff ff 	mov    %rax,-0xf88(%rbp)
    e6b3:	48 8d 85 78 f0 ff ff 	lea    -0xf88(%rbp),%rax
    e6ba:	48 89 85 28 f1 ff ff 	mov    %rax,-0xed8(%rbp)
    e6c1:	48 c7 85 90 f3 ff ff 	movq   $0x0,-0xc70(%rbp)
    e6c8:	00 00 00 00 
    e6cc:	48 8d 85 10 f9 ff ff 	lea    -0x6f0(%rbp),%rax
    e6d3:	48 05 d0 05 00 00    	add    $0x5d0,%rax
    e6d9:	48 89 85 98 f3 ff ff 	mov    %rax,-0xc68(%rbp)
    e6e0:	48 8d 85 10 f9 ff ff 	lea    -0x6f0(%rbp),%rax
    e6e7:	48 05 20 03 00 00    	add    $0x320,%rax
    e6ed:	48 89 85 a0 f3 ff ff 	mov    %rax,-0xc60(%rbp)
    e6f4:	48 8d 85 10 f9 ff ff 	lea    -0x6f0(%rbp),%rax
    e6fb:	48 05 f8 01 00 00    	add    $0x1f8,%rax
    e701:	48 89 85 a8 f3 ff ff 	mov    %rax,-0xc58(%rbp)
    e708:	48 8d 85 10 f9 ff ff 	lea    -0x6f0(%rbp),%rax
    e70f:	48 05 20 03 00 00    	add    $0x320,%rax
    e715:	48 89 85 b0 f3 ff ff 	mov    %rax,-0xc50(%rbp)
    e71c:	48 8d 85 10 f9 ff ff 	lea    -0x6f0(%rbp),%rax
    e723:	48 05 50 06 00 00    	add    $0x650,%rax
    e729:	48 89 85 b8 f3 ff ff 	mov    %rax,-0xc48(%rbp)
    e730:	48 8d 85 10 f9 ff ff 	lea    -0x6f0(%rbp),%rax
    e737:	48 05 20 03 00 00    	add    $0x320,%rax
    e73d:	48 89 85 c0 f3 ff ff 	mov    %rax,-0xc40(%rbp)
    e744:	48 8d 85 10 f9 ff ff 	lea    -0x6f0(%rbp),%rax
    e74b:	48 05 20 03 00 00    	add    $0x320,%rax
    e751:	48 89 85 c8 f3 ff ff 	mov    %rax,-0xc38(%rbp)
    e758:	48 8d 85 10 f9 ff ff 	lea    -0x6f0(%rbp),%rax
    e75f:	48 05 20 03 00 00    	add    $0x320,%rax
    e765:	48 89 85 d0 f3 ff ff 	mov    %rax,-0xc30(%rbp)
    e76c:	48 8d 85 10 f9 ff ff 	lea    -0x6f0(%rbp),%rax
    e773:	48 05 20 03 00 00    	add    $0x320,%rax
    e779:	48 89 85 d8 f3 ff ff 	mov    %rax,-0xc28(%rbp)
    e780:	48 8d 85 10 f9 ff ff 	lea    -0x6f0(%rbp),%rax
    e787:	48 05 20 03 00 00    	add    $0x320,%rax
    e78d:	48 89 85 e0 f3 ff ff 	mov    %rax,-0xc20(%rbp)
    e794:	48 8d 85 10 f9 ff ff 	lea    -0x6f0(%rbp),%rax
    e79b:	48 05 f8 01 00 00    	add    $0x1f8,%rax
    e7a1:	48 89 85 e8 f3 ff ff 	mov    %rax,-0xc18(%rbp)
    e7a8:	48 8d 85 10 f9 ff ff 	lea    -0x6f0(%rbp),%rax
    e7af:	48 05 20 03 00 00    	add    $0x320,%rax
    e7b5:	48 89 85 f0 f3 ff ff 	mov    %rax,-0xc10(%rbp)
    e7bc:	48 8d 85 10 f9 ff ff 	lea    -0x6f0(%rbp),%rax
    e7c3:	48 05 20 03 00 00    	add    $0x320,%rax
    e7c9:	48 89 85 f8 f3 ff ff 	mov    %rax,-0xc08(%rbp)
    e7d0:	48 8d 85 10 f9 ff ff 	lea    -0x6f0(%rbp),%rax
    e7d7:	48 05 20 03 00 00    	add    $0x320,%rax
    e7dd:	48 89 85 00 f4 ff ff 	mov    %rax,-0xc00(%rbp)
    e7e4:	48 c7 85 08 f4 ff ff 	movq   $0x0,-0xbf8(%rbp)
    e7eb:	00 00 00 00 
    e7ef:	48 8d 85 10 f9 ff ff 	lea    -0x6f0(%rbp),%rax
    e7f6:	48 05 68 03 00 00    	add    $0x368,%rax
    e7fc:	48 89 85 10 f4 ff ff 	mov    %rax,-0xbf0(%rbp)
    e803:	48 8d 85 10 f9 ff ff 	lea    -0x6f0(%rbp),%rax
    e80a:	48 05 20 03 00 00    	add    $0x320,%rax
    e810:	48 89 85 18 f4 ff ff 	mov    %rax,-0xbe8(%rbp)
    e817:	48 c7 85 20 f4 ff ff 	movq   $0x0,-0xbe0(%rbp)
    e81e:	00 00 00 00 
    e822:	48 8d 85 10 f9 ff ff 	lea    -0x6f0(%rbp),%rax
    e829:	48 05 20 03 00 00    	add    $0x320,%rax
    e82f:	48 89 85 28 f4 ff ff 	mov    %rax,-0xbd8(%rbp)
    e836:	48 8d 85 10 f9 ff ff 	lea    -0x6f0(%rbp),%rax
    e83d:	48 05 50 06 00 00    	add    $0x650,%rax
    e843:	48 89 85 30 f4 ff ff 	mov    %rax,-0xbd0(%rbp)
    e84a:	48 c7 85 38 f4 ff ff 	movq   $0x0,-0xbc8(%rbp)
    e851:	00 00 00 00 
    e855:	48 8d 85 10 f9 ff ff 	lea    -0x6f0(%rbp),%rax
    e85c:	48 05 20 03 00 00    	add    $0x320,%rax
    e862:	48 89 85 40 f4 ff ff 	mov    %rax,-0xbc0(%rbp)
    e869:	48 8d 85 10 f9 ff ff 	lea    -0x6f0(%rbp),%rax
    e870:	48 05 20 03 00 00    	add    $0x320,%rax
    e876:	48 89 85 48 f4 ff ff 	mov    %rax,-0xbb8(%rbp)
    e87d:	48 8d 85 10 f9 ff ff 	lea    -0x6f0(%rbp),%rax
    e884:	48 05 f8 01 00 00    	add    $0x1f8,%rax
    e88a:	48 89 85 50 f4 ff ff 	mov    %rax,-0xbb0(%rbp)
    e891:	48 8d 85 10 f9 ff ff 	lea    -0x6f0(%rbp),%rax
    e898:	48 05 20 03 00 00    	add    $0x320,%rax
    e89e:	48 89 85 58 f4 ff ff 	mov    %rax,-0xba8(%rbp)
    e8a5:	48 8d 85 10 f9 ff ff 	lea    -0x6f0(%rbp),%rax
    e8ac:	48 05 20 03 00 00    	add    $0x320,%rax
    e8b2:	48 89 85 60 f4 ff ff 	mov    %rax,-0xba0(%rbp)
    e8b9:	48 8d 85 10 f9 ff ff 	lea    -0x6f0(%rbp),%rax
    e8c0:	48 05 50 06 00 00    	add    $0x650,%rax
    e8c6:	48 89 85 68 f4 ff ff 	mov    %rax,-0xb98(%rbp)
    e8cd:	48 8d 85 10 f9 ff ff 	lea    -0x6f0(%rbp),%rax
    e8d4:	48 05 50 06 00 00    	add    $0x650,%rax
    e8da:	48 89 85 70 f4 ff ff 	mov    %rax,-0xb90(%rbp)
    e8e1:	48 8d 85 10 f9 ff ff 	lea    -0x6f0(%rbp),%rax
    e8e8:	48 05 20 03 00 00    	add    $0x320,%rax
    e8ee:	48 89 85 78 f4 ff ff 	mov    %rax,-0xb88(%rbp)
    e8f5:	48 8d 85 10 f9 ff ff 	lea    -0x6f0(%rbp),%rax
    e8fc:	48 05 20 03 00 00    	add    $0x320,%rax
    e902:	48 89 85 80 f4 ff ff 	mov    %rax,-0xb80(%rbp)
    e909:	48 8d 85 10 f9 ff ff 	lea    -0x6f0(%rbp),%rax
    e910:	48 05 f8 01 00 00    	add    $0x1f8,%rax
    e916:	48 89 85 88 f4 ff ff 	mov    %rax,-0xb78(%rbp)
    e91d:	48 8d 85 10 f9 ff ff 	lea    -0x6f0(%rbp),%rax
    e924:	48 05 68 03 00 00    	add    $0x368,%rax
    e92a:	48 89 85 90 f4 ff ff 	mov    %rax,-0xb70(%rbp)
    e931:	48 8d 85 10 f9 ff ff 	lea    -0x6f0(%rbp),%rax
    e938:	48 05 f8 01 00 00    	add    $0x1f8,%rax
    e93e:	48 89 85 98 f4 ff ff 	mov    %rax,-0xb68(%rbp)
    e945:	48 8d 85 10 f9 ff ff 	lea    -0x6f0(%rbp),%rax
    e94c:	48 05 20 03 00 00    	add    $0x320,%rax
    e952:	48 89 85 a0 f4 ff ff 	mov    %rax,-0xb60(%rbp)
    e959:	48 8d 85 10 f9 ff ff 	lea    -0x6f0(%rbp),%rax
    e960:	48 05 20 03 00 00    	add    $0x320,%rax
    e966:	48 89 85 a8 f4 ff ff 	mov    %rax,-0xb58(%rbp)
    e96d:	48 8d 85 10 f9 ff ff 	lea    -0x6f0(%rbp),%rax
    e974:	48 05 20 03 00 00    	add    $0x320,%rax
    e97a:	48 89 85 b0 f4 ff ff 	mov    %rax,-0xb50(%rbp)
    e981:	48 8d 85 10 f9 ff ff 	lea    -0x6f0(%rbp),%rax
    e988:	48 05 20 03 00 00    	add    $0x320,%rax
    e98e:	48 89 85 b8 f4 ff ff 	mov    %rax,-0xb48(%rbp)
    e995:	48 c7 85 c0 f4 ff ff 	movq   $0x0,-0xb40(%rbp)
    e99c:	00 00 00 00 
    e9a0:	48 8d 85 10 f9 ff ff 	lea    -0x6f0(%rbp),%rax
    e9a7:	48 05 d0 05 00 00    	add    $0x5d0,%rax
    e9ad:	48 89 85 c8 f4 ff ff 	mov    %rax,-0xb38(%rbp)
    e9b4:	48 8d 85 10 f9 ff ff 	lea    -0x6f0(%rbp),%rax
    e9bb:	48 05 20 03 00 00    	add    $0x320,%rax
    e9c1:	48 89 85 d0 f4 ff ff 	mov    %rax,-0xb30(%rbp)
    e9c8:	48 8d 85 10 f9 ff ff 	lea    -0x6f0(%rbp),%rax
    e9cf:	48 05 20 03 00 00    	add    $0x320,%rax
    e9d5:	48 89 85 d8 f4 ff ff 	mov    %rax,-0xb28(%rbp)
    e9dc:	48 8d 85 10 f9 ff ff 	lea    -0x6f0(%rbp),%rax
    e9e3:	48 05 20 03 00 00    	add    $0x320,%rax
    e9e9:	48 89 85 e0 f4 ff ff 	mov    %rax,-0xb20(%rbp)
    e9f0:	48 8d 85 10 f9 ff ff 	lea    -0x6f0(%rbp),%rax
    e9f7:	48 05 20 03 00 00    	add    $0x320,%rax
    e9fd:	48 89 85 e8 f4 ff ff 	mov    %rax,-0xb18(%rbp)
    ea04:	48 8d 85 10 f9 ff ff 	lea    -0x6f0(%rbp),%rax
    ea0b:	48 05 20 03 00 00    	add    $0x320,%rax
    ea11:	48 89 85 f0 f4 ff ff 	mov    %rax,-0xb10(%rbp)
    ea18:	48 8d 85 10 f9 ff ff 	lea    -0x6f0(%rbp),%rax
    ea1f:	48 05 20 03 00 00    	add    $0x320,%rax
    ea25:	48 89 85 f8 f4 ff ff 	mov    %rax,-0xb08(%rbp)
    ea2c:	48 8d 85 10 f9 ff ff 	lea    -0x6f0(%rbp),%rax
    ea33:	48 05 20 03 00 00    	add    $0x320,%rax
    ea39:	48 89 85 00 f5 ff ff 	mov    %rax,-0xb00(%rbp)
    ea40:	48 8d 85 10 f9 ff ff 	lea    -0x6f0(%rbp),%rax
    ea47:	48 05 20 03 00 00    	add    $0x320,%rax
    ea4d:	48 89 85 08 f5 ff ff 	mov    %rax,-0xaf8(%rbp)
    ea54:	48 c7 85 10 f5 ff ff 	movq   $0x0,-0xaf0(%rbp)
    ea5b:	00 00 00 00 
    ea5f:	48 8d 85 10 f9 ff ff 	lea    -0x6f0(%rbp),%rax
    ea66:	48 05 f8 01 00 00    	add    $0x1f8,%rax
    ea6c:	48 89 85 18 f5 ff ff 	mov    %rax,-0xae8(%rbp)
    ea73:	48 8d 85 10 f9 ff ff 	lea    -0x6f0(%rbp),%rax
    ea7a:	48 05 d0 05 00 00    	add    $0x5d0,%rax
    ea80:	48 89 85 20 f5 ff ff 	mov    %rax,-0xae0(%rbp)
    ea87:	48 c7 85 28 f5 ff ff 	movq   $0x0,-0xad8(%rbp)
    ea8e:	00 00 00 00 
    ea92:	48 c7 85 30 f5 ff ff 	movq   $0x0,-0xad0(%rbp)
    ea99:	00 00 00 00 
    ea9d:	48 8d 85 10 f9 ff ff 	lea    -0x6f0(%rbp),%rax
    eaa4:	48 05 68 03 00 00    	add    $0x368,%rax
    eaaa:	48 89 85 38 f5 ff ff 	mov    %rax,-0xac8(%rbp)
    eab1:	48 8d 85 10 f9 ff ff 	lea    -0x6f0(%rbp),%rax
    eab8:	48 05 20 03 00 00    	add    $0x320,%rax
    eabe:	48 89 85 40 f5 ff ff 	mov    %rax,-0xac0(%rbp)
    eac5:	48 8d 85 10 f9 ff ff 	lea    -0x6f0(%rbp),%rax
    eacc:	48 05 50 06 00 00    	add    $0x650,%rax
    ead2:	48 89 85 48 f5 ff ff 	mov    %rax,-0xab8(%rbp)
    ead9:	48 8d 85 10 f9 ff ff 	lea    -0x6f0(%rbp),%rax
    eae0:	48 05 20 03 00 00    	add    $0x320,%rax
    eae6:	48 89 85 50 f5 ff ff 	mov    %rax,-0xab0(%rbp)
    eaed:	48 8d 85 10 f9 ff ff 	lea    -0x6f0(%rbp),%rax
    eaf4:	48 05 20 03 00 00    	add    $0x320,%rax
    eafa:	48 89 85 58 f5 ff ff 	mov    %rax,-0xaa8(%rbp)
    eb01:	48 8d 85 10 f9 ff ff 	lea    -0x6f0(%rbp),%rax
    eb08:	48 05 20 03 00 00    	add    $0x320,%rax
    eb0e:	48 89 85 60 f5 ff ff 	mov    %rax,-0xaa0(%rbp)
    eb15:	48 8d 85 10 f9 ff ff 	lea    -0x6f0(%rbp),%rax
    eb1c:	48 05 20 03 00 00    	add    $0x320,%rax
    eb22:	48 89 85 68 f5 ff ff 	mov    %rax,-0xa98(%rbp)
    eb29:	48 8d 85 10 f9 ff ff 	lea    -0x6f0(%rbp),%rax
    eb30:	48 05 20 03 00 00    	add    $0x320,%rax
    eb36:	48 89 85 70 f5 ff ff 	mov    %rax,-0xa90(%rbp)
    eb3d:	48 8d 85 10 f9 ff ff 	lea    -0x6f0(%rbp),%rax
    eb44:	48 05 20 03 00 00    	add    $0x320,%rax
    eb4a:	48 89 85 78 f5 ff ff 	mov    %rax,-0xa88(%rbp)
    eb51:	48 8d 85 10 f9 ff ff 	lea    -0x6f0(%rbp),%rax
    eb58:	48 05 20 03 00 00    	add    $0x320,%rax
    eb5e:	48 89 85 80 f5 ff ff 	mov    %rax,-0xa80(%rbp)
    eb65:	48 8d 85 10 f9 ff ff 	lea    -0x6f0(%rbp),%rax
    eb6c:	48 05 20 03 00 00    	add    $0x320,%rax
    eb72:	48 89 85 88 f5 ff ff 	mov    %rax,-0xa78(%rbp)
    eb79:	c6 05 bd 84 00 00 00 	movb   $0x0,0x84bd(%rip)        # 1703d <g_124>
    eb80:	e9 ed 11 00 00       	jmpq   fd72 <func_70+0x2fe3>
    eb85:	48 b8 d8 87 b7 55 86 	movabs $0xeef5d88655b787d8,%rax
    eb8c:	d8 f5 ee 
    eb8f:	48 89 85 80 f0 ff ff 	mov    %rax,-0xf80(%rbp)
    eb96:	48 8d 05 a0 84 00 00 	lea    0x84a0(%rip),%rax        # 1703d <g_124>
    eb9d:	48 89 85 30 f1 ff ff 	mov    %rax,-0xed0(%rbp)
    eba4:	c7 85 1c f0 ff ff 5f 	movl   $0xa607fa5f,-0xfe4(%rbp)
    ebab:	fa 07 a6 
    ebae:	48 b8 0d a5 1d 85 e7 	movabs $0xa667f3e7851da50d,%rax
    ebb5:	f3 67 a6 
    ebb8:	48 89 85 38 f1 ff ff 	mov    %rax,-0xec8(%rbp)
    ebbf:	48 8d 05 fa 86 00 00 	lea    0x86fa(%rip),%rax        # 172c0 <g_574+0x20>
    ebc6:	48 89 85 40 f1 ff ff 	mov    %rax,-0xec0(%rbp)
    ebcd:	48 8d 85 10 f9 ff ff 	lea    -0x6f0(%rbp),%rax
    ebd4:	48 05 20 03 00 00    	add    $0x320,%rax
    ebda:	48 89 85 90 f5 ff ff 	mov    %rax,-0xa70(%rbp)
    ebe1:	48 8d 85 10 f9 ff ff 	lea    -0x6f0(%rbp),%rax
    ebe8:	48 05 20 03 00 00    	add    $0x320,%rax
    ebee:	48 89 85 98 f5 ff ff 	mov    %rax,-0xa68(%rbp)
    ebf5:	48 c7 85 a0 f5 ff ff 	movq   $0x0,-0xa60(%rbp)
    ebfc:	00 00 00 00 
    ec00:	48 c7 85 a8 f5 ff ff 	movq   $0x0,-0xa58(%rbp)
    ec07:	00 00 00 00 
    ec0b:	48 c7 85 b0 f5 ff ff 	movq   $0x0,-0xa50(%rbp)
    ec12:	00 00 00 00 
    ec16:	48 8d 85 10 f9 ff ff 	lea    -0x6f0(%rbp),%rax
    ec1d:	48 05 20 03 00 00    	add    $0x320,%rax
    ec23:	48 89 85 b8 f5 ff ff 	mov    %rax,-0xa48(%rbp)
    ec2a:	48 c7 85 c0 f5 ff ff 	movq   $0x0,-0xa40(%rbp)
    ec31:	00 00 00 00 
    ec35:	48 8d 85 10 f9 ff ff 	lea    -0x6f0(%rbp),%rax
    ec3c:	48 05 b0 04 00 00    	add    $0x4b0,%rax
    ec42:	48 89 85 c8 f5 ff ff 	mov    %rax,-0xa38(%rbp)
    ec49:	48 8d 85 10 f9 ff ff 	lea    -0x6f0(%rbp),%rax
    ec50:	48 05 20 03 00 00    	add    $0x320,%rax
    ec56:	48 89 85 d0 f5 ff ff 	mov    %rax,-0xa30(%rbp)
    ec5d:	48 8d 85 10 f9 ff ff 	lea    -0x6f0(%rbp),%rax
    ec64:	48 05 20 03 00 00    	add    $0x320,%rax
    ec6a:	48 89 85 d8 f5 ff ff 	mov    %rax,-0xa28(%rbp)
    ec71:	48 8d 85 10 f9 ff ff 	lea    -0x6f0(%rbp),%rax
    ec78:	48 05 20 03 00 00    	add    $0x320,%rax
    ec7e:	48 89 85 e0 f5 ff ff 	mov    %rax,-0xa20(%rbp)
    ec85:	48 8d 85 10 f9 ff ff 	lea    -0x6f0(%rbp),%rax
    ec8c:	48 05 20 03 00 00    	add    $0x320,%rax
    ec92:	48 89 85 e8 f5 ff ff 	mov    %rax,-0xa18(%rbp)
    ec99:	48 8d 85 10 f9 ff ff 	lea    -0x6f0(%rbp),%rax
    eca0:	48 05 20 03 00 00    	add    $0x320,%rax
    eca6:	48 89 85 f0 f5 ff ff 	mov    %rax,-0xa10(%rbp)
    ecad:	48 8d 85 10 f9 ff ff 	lea    -0x6f0(%rbp),%rax
    ecb4:	48 05 20 03 00 00    	add    $0x320,%rax
    ecba:	48 89 85 f8 f5 ff ff 	mov    %rax,-0xa08(%rbp)
    ecc1:	48 8d 85 10 f9 ff ff 	lea    -0x6f0(%rbp),%rax
    ecc8:	48 05 10 03 00 00    	add    $0x310,%rax
    ecce:	48 89 85 00 f6 ff ff 	mov    %rax,-0xa00(%rbp)
    ecd5:	48 8d 85 10 f9 ff ff 	lea    -0x6f0(%rbp),%rax
    ecdc:	48 05 20 03 00 00    	add    $0x320,%rax
    ece2:	48 89 85 08 f6 ff ff 	mov    %rax,-0x9f8(%rbp)
    ece9:	48 8d 85 10 f9 ff ff 	lea    -0x6f0(%rbp),%rax
    ecf0:	48 05 10 03 00 00    	add    $0x310,%rax
    ecf6:	48 89 85 10 f6 ff ff 	mov    %rax,-0x9f0(%rbp)
    ecfd:	48 8d 85 10 f9 ff ff 	lea    -0x6f0(%rbp),%rax
    ed04:	48 05 20 03 00 00    	add    $0x320,%rax
    ed0a:	48 89 85 18 f6 ff ff 	mov    %rax,-0x9e8(%rbp)
    ed11:	48 8d 85 10 f9 ff ff 	lea    -0x6f0(%rbp),%rax
    ed18:	48 05 20 03 00 00    	add    $0x320,%rax
    ed1e:	48 89 85 20 f6 ff ff 	mov    %rax,-0x9e0(%rbp)
    ed25:	48 8d 85 10 f9 ff ff 	lea    -0x6f0(%rbp),%rax
    ed2c:	48 05 20 03 00 00    	add    $0x320,%rax
    ed32:	48 89 85 28 f6 ff ff 	mov    %rax,-0x9d8(%rbp)
    ed39:	48 8d 85 10 f9 ff ff 	lea    -0x6f0(%rbp),%rax
    ed40:	48 05 20 03 00 00    	add    $0x320,%rax
    ed46:	48 89 85 30 f6 ff ff 	mov    %rax,-0x9d0(%rbp)
    ed4d:	48 8d 85 10 f9 ff ff 	lea    -0x6f0(%rbp),%rax
    ed54:	48 05 20 03 00 00    	add    $0x320,%rax
    ed5a:	48 89 85 38 f6 ff ff 	mov    %rax,-0x9c8(%rbp)
    ed61:	48 8d 85 10 f9 ff ff 	lea    -0x6f0(%rbp),%rax
    ed68:	48 05 20 03 00 00    	add    $0x320,%rax
    ed6e:	48 89 85 40 f6 ff ff 	mov    %rax,-0x9c0(%rbp)
    ed75:	48 8d 85 10 f9 ff ff 	lea    -0x6f0(%rbp),%rax
    ed7c:	48 05 b0 04 00 00    	add    $0x4b0,%rax
    ed82:	48 89 85 48 f6 ff ff 	mov    %rax,-0x9b8(%rbp)
    ed89:	48 c7 85 50 f6 ff ff 	movq   $0x0,-0x9b0(%rbp)
    ed90:	00 00 00 00 
    ed94:	48 8d 85 10 f9 ff ff 	lea    -0x6f0(%rbp),%rax
    ed9b:	48 05 20 03 00 00    	add    $0x320,%rax
    eda1:	48 89 85 58 f6 ff ff 	mov    %rax,-0x9a8(%rbp)
    eda8:	48 c7 85 60 f6 ff ff 	movq   $0x0,-0x9a0(%rbp)
    edaf:	00 00 00 00 
    edb3:	48 c7 85 68 f6 ff ff 	movq   $0x0,-0x998(%rbp)
    edba:	00 00 00 00 
    edbe:	48 c7 85 70 f6 ff ff 	movq   $0x0,-0x990(%rbp)
    edc5:	00 00 00 00 
    edc9:	48 8d 85 10 f9 ff ff 	lea    -0x6f0(%rbp),%rax
    edd0:	48 05 20 03 00 00    	add    $0x320,%rax
    edd6:	48 89 85 78 f6 ff ff 	mov    %rax,-0x988(%rbp)
    eddd:	48 8d 85 10 f9 ff ff 	lea    -0x6f0(%rbp),%rax
    ede4:	48 05 20 03 00 00    	add    $0x320,%rax
    edea:	48 89 85 80 f6 ff ff 	mov    %rax,-0x980(%rbp)
    edf1:	48 8d 85 10 f9 ff ff 	lea    -0x6f0(%rbp),%rax
    edf8:	48 05 28 03 00 00    	add    $0x328,%rax
    edfe:	48 89 85 88 f6 ff ff 	mov    %rax,-0x978(%rbp)
    ee05:	48 8d 85 10 f9 ff ff 	lea    -0x6f0(%rbp),%rax
    ee0c:	48 05 20 03 00 00    	add    $0x320,%rax
    ee12:	48 89 85 90 f6 ff ff 	mov    %rax,-0x970(%rbp)
    ee19:	48 c7 85 98 f6 ff ff 	movq   $0x0,-0x968(%rbp)
    ee20:	00 00 00 00 
    ee24:	48 8d 85 10 f9 ff ff 	lea    -0x6f0(%rbp),%rax
    ee2b:	48 05 20 03 00 00    	add    $0x320,%rax
    ee31:	48 89 85 a0 f6 ff ff 	mov    %rax,-0x960(%rbp)
    ee38:	48 8d 85 10 f9 ff ff 	lea    -0x6f0(%rbp),%rax
    ee3f:	48 05 d8 05 00 00    	add    $0x5d8,%rax
    ee45:	48 89 85 a8 f6 ff ff 	mov    %rax,-0x958(%rbp)
    ee4c:	48 8d 85 10 f9 ff ff 	lea    -0x6f0(%rbp),%rax
    ee53:	48 05 10 03 00 00    	add    $0x310,%rax
    ee59:	48 89 85 b0 f6 ff ff 	mov    %rax,-0x950(%rbp)
    ee60:	48 c7 85 b8 f6 ff ff 	movq   $0x0,-0x948(%rbp)
    ee67:	00 00 00 00 
    ee6b:	48 8d 85 10 f9 ff ff 	lea    -0x6f0(%rbp),%rax
    ee72:	48 05 10 03 00 00    	add    $0x310,%rax
    ee78:	48 89 85 c0 f6 ff ff 	mov    %rax,-0x940(%rbp)
    ee7f:	48 8d 85 10 f9 ff ff 	lea    -0x6f0(%rbp),%rax
    ee86:	48 05 d8 05 00 00    	add    $0x5d8,%rax
    ee8c:	48 89 85 c8 f6 ff ff 	mov    %rax,-0x938(%rbp)
    ee93:	48 8d 85 10 f9 ff ff 	lea    -0x6f0(%rbp),%rax
    ee9a:	48 05 20 03 00 00    	add    $0x320,%rax
    eea0:	48 89 85 d0 f6 ff ff 	mov    %rax,-0x930(%rbp)
    eea7:	48 c7 85 d8 f6 ff ff 	movq   $0x0,-0x928(%rbp)
    eeae:	00 00 00 00 
    eeb2:	48 8d 85 10 f9 ff ff 	lea    -0x6f0(%rbp),%rax
    eeb9:	48 05 20 03 00 00    	add    $0x320,%rax
    eebf:	48 89 85 e0 f6 ff ff 	mov    %rax,-0x920(%rbp)
    eec6:	48 8d 85 10 f9 ff ff 	lea    -0x6f0(%rbp),%rax
    eecd:	48 05 28 03 00 00    	add    $0x328,%rax
    eed3:	48 89 85 e8 f6 ff ff 	mov    %rax,-0x918(%rbp)
    eeda:	48 8d 85 10 f9 ff ff 	lea    -0x6f0(%rbp),%rax
    eee1:	48 05 20 03 00 00    	add    $0x320,%rax
    eee7:	48 89 85 f0 f6 ff ff 	mov    %rax,-0x910(%rbp)
    eeee:	48 8d 85 10 f9 ff ff 	lea    -0x6f0(%rbp),%rax
    eef5:	48 05 20 03 00 00    	add    $0x320,%rax
    eefb:	48 89 85 f8 f6 ff ff 	mov    %rax,-0x908(%rbp)
    ef02:	48 c7 85 00 f7 ff ff 	movq   $0x0,-0x900(%rbp)
    ef09:	00 00 00 00 
    ef0d:	48 c7 85 08 f7 ff ff 	movq   $0x0,-0x8f8(%rbp)
    ef14:	00 00 00 00 
    ef18:	48 c7 85 10 f7 ff ff 	movq   $0x0,-0x8f0(%rbp)
    ef1f:	00 00 00 00 
    ef23:	48 8d 85 10 f9 ff ff 	lea    -0x6f0(%rbp),%rax
    ef2a:	48 05 20 03 00 00    	add    $0x320,%rax
    ef30:	48 89 85 18 f7 ff ff 	mov    %rax,-0x8e8(%rbp)
    ef37:	48 c7 85 20 f7 ff ff 	movq   $0x0,-0x8e0(%rbp)
    ef3e:	00 00 00 00 
    ef42:	48 8d 85 10 f9 ff ff 	lea    -0x6f0(%rbp),%rax
    ef49:	48 05 b0 04 00 00    	add    $0x4b0,%rax
    ef4f:	48 89 85 28 f7 ff ff 	mov    %rax,-0x8d8(%rbp)
    ef56:	48 8d 85 10 f9 ff ff 	lea    -0x6f0(%rbp),%rax
    ef5d:	48 05 20 03 00 00    	add    $0x320,%rax
    ef63:	48 89 85 30 f7 ff ff 	mov    %rax,-0x8d0(%rbp)
    ef6a:	48 8d 85 10 f9 ff ff 	lea    -0x6f0(%rbp),%rax
    ef71:	48 05 20 03 00 00    	add    $0x320,%rax
    ef77:	48 89 85 38 f7 ff ff 	mov    %rax,-0x8c8(%rbp)
    ef7e:	48 8d 85 10 f9 ff ff 	lea    -0x6f0(%rbp),%rax
    ef85:	48 05 20 03 00 00    	add    $0x320,%rax
    ef8b:	48 89 85 40 f7 ff ff 	mov    %rax,-0x8c0(%rbp)
    ef92:	48 8d 85 10 f9 ff ff 	lea    -0x6f0(%rbp),%rax
    ef99:	48 05 20 03 00 00    	add    $0x320,%rax
    ef9f:	48 89 85 48 f7 ff ff 	mov    %rax,-0x8b8(%rbp)
    efa6:	48 8d 85 10 f9 ff ff 	lea    -0x6f0(%rbp),%rax
    efad:	48 05 20 03 00 00    	add    $0x320,%rax
    efb3:	48 89 85 50 f7 ff ff 	mov    %rax,-0x8b0(%rbp)
    efba:	48 8d 85 10 f9 ff ff 	lea    -0x6f0(%rbp),%rax
    efc1:	48 05 20 03 00 00    	add    $0x320,%rax
    efc7:	48 89 85 58 f7 ff ff 	mov    %rax,-0x8a8(%rbp)
    efce:	48 8d 85 10 f9 ff ff 	lea    -0x6f0(%rbp),%rax
    efd5:	48 05 10 03 00 00    	add    $0x310,%rax
    efdb:	48 89 85 60 f7 ff ff 	mov    %rax,-0x8a0(%rbp)
    efe2:	48 8d 85 10 f9 ff ff 	lea    -0x6f0(%rbp),%rax
    efe9:	48 05 20 03 00 00    	add    $0x320,%rax
    efef:	48 89 85 68 f7 ff ff 	mov    %rax,-0x898(%rbp)
    eff6:	48 8d 85 10 f9 ff ff 	lea    -0x6f0(%rbp),%rax
    effd:	48 05 10 03 00 00    	add    $0x310,%rax
    f003:	48 89 85 70 f7 ff ff 	mov    %rax,-0x890(%rbp)
    f00a:	48 8d 85 10 f9 ff ff 	lea    -0x6f0(%rbp),%rax
    f011:	48 05 20 03 00 00    	add    $0x320,%rax
    f017:	48 89 85 78 f7 ff ff 	mov    %rax,-0x888(%rbp)
    f01e:	48 8d 85 10 f9 ff ff 	lea    -0x6f0(%rbp),%rax
    f025:	48 05 20 03 00 00    	add    $0x320,%rax
    f02b:	48 89 85 80 f7 ff ff 	mov    %rax,-0x880(%rbp)
    f032:	48 8d 85 10 f9 ff ff 	lea    -0x6f0(%rbp),%rax
    f039:	48 05 20 03 00 00    	add    $0x320,%rax
    f03f:	48 89 85 88 f7 ff ff 	mov    %rax,-0x878(%rbp)
    f046:	48 8d 85 10 f9 ff ff 	lea    -0x6f0(%rbp),%rax
    f04d:	48 05 20 03 00 00    	add    $0x320,%rax
    f053:	48 89 85 90 f7 ff ff 	mov    %rax,-0x870(%rbp)
    f05a:	48 8d 85 10 f9 ff ff 	lea    -0x6f0(%rbp),%rax
    f061:	48 05 20 03 00 00    	add    $0x320,%rax
    f067:	48 89 85 98 f7 ff ff 	mov    %rax,-0x868(%rbp)
    f06e:	48 8d 85 10 f9 ff ff 	lea    -0x6f0(%rbp),%rax
    f075:	48 05 20 03 00 00    	add    $0x320,%rax
    f07b:	48 89 85 a0 f7 ff ff 	mov    %rax,-0x860(%rbp)
    f082:	48 8d 85 10 f9 ff ff 	lea    -0x6f0(%rbp),%rax
    f089:	48 05 b0 04 00 00    	add    $0x4b0,%rax
    f08f:	48 89 85 a8 f7 ff ff 	mov    %rax,-0x858(%rbp)
    f096:	48 c7 85 b0 f7 ff ff 	movq   $0x0,-0x850(%rbp)
    f09d:	00 00 00 00 
    f0a1:	48 8d 85 10 f9 ff ff 	lea    -0x6f0(%rbp),%rax
    f0a8:	48 05 20 03 00 00    	add    $0x320,%rax
    f0ae:	48 89 85 b8 f7 ff ff 	mov    %rax,-0x848(%rbp)
    f0b5:	48 c7 85 c0 f7 ff ff 	movq   $0x0,-0x840(%rbp)
    f0bc:	00 00 00 00 
    f0c0:	48 c7 85 c8 f7 ff ff 	movq   $0x0,-0x838(%rbp)
    f0c7:	00 00 00 00 
    f0cb:	48 c7 85 d0 f7 ff ff 	movq   $0x0,-0x830(%rbp)
    f0d2:	00 00 00 00 
    f0d6:	48 8d 85 10 f9 ff ff 	lea    -0x6f0(%rbp),%rax
    f0dd:	48 05 20 03 00 00    	add    $0x320,%rax
    f0e3:	48 89 85 d8 f7 ff ff 	mov    %rax,-0x828(%rbp)
    f0ea:	48 8d 85 10 f9 ff ff 	lea    -0x6f0(%rbp),%rax
    f0f1:	48 05 20 03 00 00    	add    $0x320,%rax
    f0f7:	48 89 85 e0 f7 ff ff 	mov    %rax,-0x820(%rbp)
    f0fe:	48 8d 85 10 f9 ff ff 	lea    -0x6f0(%rbp),%rax
    f105:	48 05 28 03 00 00    	add    $0x328,%rax
    f10b:	48 89 85 e8 f7 ff ff 	mov    %rax,-0x818(%rbp)
    f112:	48 8d 85 10 f9 ff ff 	lea    -0x6f0(%rbp),%rax
    f119:	48 05 20 03 00 00    	add    $0x320,%rax
    f11f:	48 89 85 f0 f7 ff ff 	mov    %rax,-0x810(%rbp)
    f126:	48 c7 85 f8 f7 ff ff 	movq   $0x0,-0x808(%rbp)
    f12d:	00 00 00 00 
    f131:	48 8d 85 10 f9 ff ff 	lea    -0x6f0(%rbp),%rax
    f138:	48 05 20 03 00 00    	add    $0x320,%rax
    f13e:	48 89 85 00 f8 ff ff 	mov    %rax,-0x800(%rbp)
    f145:	48 8d 85 10 f9 ff ff 	lea    -0x6f0(%rbp),%rax
    f14c:	48 05 d8 05 00 00    	add    $0x5d8,%rax
    f152:	48 89 85 08 f8 ff ff 	mov    %rax,-0x7f8(%rbp)
    f159:	48 8d 85 10 f9 ff ff 	lea    -0x6f0(%rbp),%rax
    f160:	48 05 10 03 00 00    	add    $0x310,%rax
    f166:	48 89 85 10 f8 ff ff 	mov    %rax,-0x7f0(%rbp)
    f16d:	48 c7 85 18 f8 ff ff 	movq   $0x0,-0x7e8(%rbp)
    f174:	00 00 00 00 
    f178:	48 8d 85 10 f9 ff ff 	lea    -0x6f0(%rbp),%rax
    f17f:	48 05 10 03 00 00    	add    $0x310,%rax
    f185:	48 89 85 20 f8 ff ff 	mov    %rax,-0x7e0(%rbp)
    f18c:	48 8d 85 10 f9 ff ff 	lea    -0x6f0(%rbp),%rax
    f193:	48 05 d8 05 00 00    	add    $0x5d8,%rax
    f199:	48 89 85 28 f8 ff ff 	mov    %rax,-0x7d8(%rbp)
    f1a0:	48 8d 85 10 f9 ff ff 	lea    -0x6f0(%rbp),%rax
    f1a7:	48 05 20 03 00 00    	add    $0x320,%rax
    f1ad:	48 89 85 30 f8 ff ff 	mov    %rax,-0x7d0(%rbp)
    f1b4:	48 c7 85 38 f8 ff ff 	movq   $0x0,-0x7c8(%rbp)
    f1bb:	00 00 00 00 
    f1bf:	48 8d 85 10 f9 ff ff 	lea    -0x6f0(%rbp),%rax
    f1c6:	48 05 20 03 00 00    	add    $0x320,%rax
    f1cc:	48 89 85 40 f8 ff ff 	mov    %rax,-0x7c0(%rbp)
    f1d3:	48 8d 85 10 f9 ff ff 	lea    -0x6f0(%rbp),%rax
    f1da:	48 05 28 03 00 00    	add    $0x328,%rax
    f1e0:	48 89 85 48 f8 ff ff 	mov    %rax,-0x7b8(%rbp)
    f1e7:	48 8d 85 10 f9 ff ff 	lea    -0x6f0(%rbp),%rax
    f1ee:	48 05 20 03 00 00    	add    $0x320,%rax
    f1f4:	48 89 85 50 f8 ff ff 	mov    %rax,-0x7b0(%rbp)
    f1fb:	48 8d 85 10 f9 ff ff 	lea    -0x6f0(%rbp),%rax
    f202:	48 05 20 03 00 00    	add    $0x320,%rax
    f208:	48 89 85 58 f8 ff ff 	mov    %rax,-0x7a8(%rbp)
    f20f:	48 c7 85 60 f8 ff ff 	movq   $0x0,-0x7a0(%rbp)
    f216:	00 00 00 00 
    f21a:	48 c7 85 68 f8 ff ff 	movq   $0x0,-0x798(%rbp)
    f221:	00 00 00 00 
    f225:	48 c7 85 70 f8 ff ff 	movq   $0x0,-0x790(%rbp)
    f22c:	00 00 00 00 
    f230:	48 8d 85 10 f9 ff ff 	lea    -0x6f0(%rbp),%rax
    f237:	48 05 20 03 00 00    	add    $0x320,%rax
    f23d:	48 89 85 78 f8 ff ff 	mov    %rax,-0x788(%rbp)
    f244:	48 c7 85 80 f8 ff ff 	movq   $0x0,-0x780(%rbp)
    f24b:	00 00 00 00 
    f24f:	48 8d 85 10 f9 ff ff 	lea    -0x6f0(%rbp),%rax
    f256:	48 05 b0 04 00 00    	add    $0x4b0,%rax
    f25c:	48 89 85 88 f8 ff ff 	mov    %rax,-0x778(%rbp)
    f263:	48 8d 85 10 f9 ff ff 	lea    -0x6f0(%rbp),%rax
    f26a:	48 05 20 03 00 00    	add    $0x320,%rax
    f270:	48 89 85 90 f8 ff ff 	mov    %rax,-0x770(%rbp)
    f277:	48 8d 85 10 f9 ff ff 	lea    -0x6f0(%rbp),%rax
    f27e:	48 05 20 03 00 00    	add    $0x320,%rax
    f284:	48 89 85 98 f8 ff ff 	mov    %rax,-0x768(%rbp)
    f28b:	48 8d 85 10 f9 ff ff 	lea    -0x6f0(%rbp),%rax
    f292:	48 05 20 03 00 00    	add    $0x320,%rax
    f298:	48 89 85 a0 f8 ff ff 	mov    %rax,-0x760(%rbp)
    f29f:	48 8d 85 10 f9 ff ff 	lea    -0x6f0(%rbp),%rax
    f2a6:	48 05 20 03 00 00    	add    $0x320,%rax
    f2ac:	48 89 85 a8 f8 ff ff 	mov    %rax,-0x758(%rbp)
    f2b3:	48 8d 85 10 f9 ff ff 	lea    -0x6f0(%rbp),%rax
    f2ba:	48 05 20 03 00 00    	add    $0x320,%rax
    f2c0:	48 89 85 b0 f8 ff ff 	mov    %rax,-0x750(%rbp)
    f2c7:	48 8d 85 10 f9 ff ff 	lea    -0x6f0(%rbp),%rax
    f2ce:	48 05 20 03 00 00    	add    $0x320,%rax
    f2d4:	48 89 85 b8 f8 ff ff 	mov    %rax,-0x748(%rbp)
    f2db:	48 8d 85 10 f9 ff ff 	lea    -0x6f0(%rbp),%rax
    f2e2:	48 05 10 03 00 00    	add    $0x310,%rax
    f2e8:	48 89 85 c0 f8 ff ff 	mov    %rax,-0x740(%rbp)
    f2ef:	48 8d 85 10 f9 ff ff 	lea    -0x6f0(%rbp),%rax
    f2f6:	48 05 20 03 00 00    	add    $0x320,%rax
    f2fc:	48 89 85 c8 f8 ff ff 	mov    %rax,-0x738(%rbp)
    f303:	48 8d 85 10 f9 ff ff 	lea    -0x6f0(%rbp),%rax
    f30a:	48 05 10 03 00 00    	add    $0x310,%rax
    f310:	48 89 85 d0 f8 ff ff 	mov    %rax,-0x730(%rbp)
    f317:	48 8d 85 10 f9 ff ff 	lea    -0x6f0(%rbp),%rax
    f31e:	48 05 20 03 00 00    	add    $0x320,%rax
    f324:	48 89 85 d8 f8 ff ff 	mov    %rax,-0x728(%rbp)
    f32b:	48 8d 85 10 f9 ff ff 	lea    -0x6f0(%rbp),%rax
    f332:	48 05 20 03 00 00    	add    $0x320,%rax
    f338:	48 89 85 e0 f8 ff ff 	mov    %rax,-0x720(%rbp)
    f33f:	48 8d 85 10 f9 ff ff 	lea    -0x6f0(%rbp),%rax
    f346:	48 05 20 03 00 00    	add    $0x320,%rax
    f34c:	48 89 85 e8 f8 ff ff 	mov    %rax,-0x718(%rbp)
    f353:	48 8d 85 10 f9 ff ff 	lea    -0x6f0(%rbp),%rax
    f35a:	48 05 20 03 00 00    	add    $0x320,%rax
    f360:	48 89 85 f0 f8 ff ff 	mov    %rax,-0x710(%rbp)
    f367:	48 8d 85 10 f9 ff ff 	lea    -0x6f0(%rbp),%rax
    f36e:	48 05 20 03 00 00    	add    $0x320,%rax
    f374:	48 89 85 f8 f8 ff ff 	mov    %rax,-0x708(%rbp)
    f37b:	48 8d 85 10 f9 ff ff 	lea    -0x6f0(%rbp),%rax
    f382:	48 05 20 03 00 00    	add    $0x320,%rax
    f388:	48 89 85 00 f9 ff ff 	mov    %rax,-0x700(%rbp)
    f38f:	48 8d 85 10 f9 ff ff 	lea    -0x6f0(%rbp),%rax
    f396:	48 05 b0 04 00 00    	add    $0x4b0,%rax
    f39c:	48 89 85 08 f9 ff ff 	mov    %rax,-0x6f8(%rbp)
    f3a3:	c7 85 fc ef ff ff 00 	movl   $0x0,-0x1004(%rbp)
    f3aa:	00 00 00 
    f3ad:	eb 1a                	jmp    f3c9 <func_70+0x263a>
    f3af:	8b 85 fc ef ff ff    	mov    -0x1004(%rbp),%eax
    f3b5:	48 98                	cltq   
    f3b7:	c7 84 85 a0 f1 ff ff 	movl   $0xffffffff,-0xe60(%rbp,%rax,4)
    f3be:	ff ff ff ff 
    f3c2:	83 85 fc ef ff ff 01 	addl   $0x1,-0x1004(%rbp)
    f3c9:	83 bd fc ef ff ff 03 	cmpl   $0x3,-0x1004(%rbp)
    f3d0:	7e dd                	jle    f3af <func_70+0x2620>
    f3d2:	80 bd dc ef ff ff 00 	cmpb   $0x0,-0x1024(%rbp)
    f3d9:	0f 85 a4 09 00 00    	jne    fd83 <func_70+0x2ff4>
    f3df:	48 c7 05 86 7d 00 00 	movq   $0x0,0x7d86(%rip)        # 17170 <g_484>
    f3e6:	00 00 00 00 
    f3ea:	e9 62 09 00 00       	jmpq   fd51 <func_70+0x2fc2>
    f3ef:	48 8d 85 68 f0 ff ff 	lea    -0xf98(%rbp),%rax
    f3f6:	48 89 85 48 f1 ff ff 	mov    %rax,-0xeb8(%rbp)
    f3fd:	c7 85 20 f0 ff ff 01 	movl   $0x1,-0xfe0(%rbp)
    f404:	00 00 00 
    f407:	66 c7 85 e6 ef ff ff 	movw   $0xa75b,-0x101a(%rbp)
    f40e:	5b a7 
    f410:	c7 85 24 f0 ff ff f6 	movl   $0xfffffff6,-0xfdc(%rbp)
    f417:	ff ff ff 
    f41a:	c7 85 28 f0 ff ff ff 	movl   $0xffffffff,-0xfd8(%rbp)
    f421:	ff ff ff 
    f424:	48 8d 05 95 7e 00 00 	lea    0x7e95(%rip),%rax        # 172c0 <g_574+0x20>
    f42b:	48 89 85 50 f1 ff ff 	mov    %rax,-0xeb0(%rbp)
    f432:	c7 85 2c f0 ff ff 26 	movl   $0xd2ebf926,-0xfd4(%rbp)
    f439:	f9 eb d2 
    f43c:	c7 85 30 f0 ff ff 9a 	movl   $0xfbbd799a,-0xfd0(%rbp)
    f443:	79 bd fb 
    f446:	c7 85 34 f0 ff ff 4c 	movl   $0x8737e84c,-0xfcc(%rbp)
    f44d:	e8 37 87 
    f450:	c6 85 e3 ef ff ff 48 	movb   $0x48,-0x101d(%rbp)
    f457:	48 8b 85 48 f1 ff ff 	mov    -0xeb8(%rbp),%rax
    f45e:	48 8d 15 65 7c 00 00 	lea    0x7c65(%rip),%rdx        # 170ca <g_311>
    f465:	48 89 10             	mov    %rdx,(%rax)
    f468:	48 8b 85 48 f1 ff ff 	mov    -0xeb8(%rbp),%rax
    f46f:	48 8b 10             	mov    (%rax),%rdx
    f472:	48 8b 85 30 f1 ff ff 	mov    -0xed0(%rbp),%rax
    f479:	48 89 05 a0 87 00 00 	mov    %rax,0x87a0(%rip)        # 17c20 <g_605+0x20>
    f480:	48 8b 05 99 87 00 00 	mov    0x8799(%rip),%rax        # 17c20 <g_605+0x20>
    f487:	48 39 c2             	cmp    %rax,%rdx
    f48a:	0f 95 c0             	setne  %al
    f48d:	0f b6 d0             	movzbl %al,%edx
    f490:	48 8b 05 31 87 00 00 	mov    0x8731(%rip),%rax        # 17bc8 <g_476>
    f497:	48 8b 00             	mov    (%rax),%rax
    f49a:	48 85 c0             	test   %rax,%rax
    f49d:	0f 95 c0             	setne  %al
    f4a0:	0f b6 c8             	movzbl %al,%ecx
    f4a3:	0f b6 85 dc ef ff ff 	movzbl -0x1024(%rbp),%eax
    f4aa:	39 c1                	cmp    %eax,%ecx
    f4ac:	0f 95 c0             	setne  %al
    f4af:	0f b6 c8             	movzbl %al,%ecx
    f4b2:	48 8b 85 80 f0 ff ff 	mov    -0xf80(%rbp),%rax
    f4b9:	48 39 c1             	cmp    %rax,%rcx
    f4bc:	0f 95 c0             	setne  %al
    f4bf:	0f b6 c0             	movzbl %al,%eax
    f4c2:	48 89 d6             	mov    %rdx,%rsi
    f4c5:	48 89 c7             	mov    %rax,%rdi
    f4c8:	e8 7e 3b ff ff       	callq  304b <safe_sub_func_uint64_t_u_u>
    f4cd:	0f b6 d0             	movzbl %al,%edx
    f4d0:	48 8b 05 59 7b 00 00 	mov    0x7b59(%rip),%rax        # 17030 <g_67>
    f4d7:	0f b6 c0             	movzbl %al,%eax
    f4da:	89 d6                	mov    %edx,%esi
    f4dc:	89 c7                	mov    %eax,%edi
    f4de:	e8 cb 36 ff ff       	callq  2bae <safe_mod_func_uint8_t_u_u>
    f4e3:	84 c0                	test   %al,%al
    f4e5:	0f 84 94 04 00 00    	je     f97f <func_70+0x2bf0>
    f4eb:	c7 85 44 f0 ff ff 04 	movl   $0x4,-0xfbc(%rbp)
    f4f2:	00 00 00 
    f4f5:	c7 85 48 f0 ff ff 01 	movl   $0x1,-0xfb8(%rbp)
    f4fc:	00 00 00 
    f4ff:	c7 85 4c f0 ff ff 01 	movl   $0x1,-0xfb4(%rbp)
    f506:	00 00 00 
    f509:	c7 85 b0 f1 ff ff 8d 	movl   $0x9af77e8d,-0xe50(%rbp)
    f510:	7e f7 9a 
    f513:	c7 85 b4 f1 ff ff 57 	movl   $0x23822057,-0xe4c(%rbp)
    f51a:	20 82 23 
    f51d:	c7 85 b8 f1 ff ff 57 	movl   $0x23822057,-0xe48(%rbp)
    f524:	20 82 23 
    f527:	c7 85 bc f1 ff ff b9 	movl   $0x39ecc1b9,-0xe44(%rbp)
    f52e:	c1 ec 39 
    f531:	c7 85 c0 f1 ff ff b6 	movl   $0x694093b6,-0xe40(%rbp)
    f538:	93 40 69 
    f53b:	c7 85 c4 f1 ff ff b6 	movl   $0x694093b6,-0xe3c(%rbp)
    f542:	93 40 69 
    f545:	c7 85 c8 f1 ff ff 8d 	movl   $0x9af77e8d,-0xe38(%rbp)
    f54c:	7e f7 9a 
    f54f:	c7 85 cc f1 ff ff 57 	movl   $0x23822057,-0xe34(%rbp)
    f556:	20 82 23 
    f559:	c7 85 d0 f1 ff ff 57 	movl   $0x23822057,-0xe30(%rbp)
    f560:	20 82 23 
    f563:	c7 85 d4 f1 ff ff b9 	movl   $0x39ecc1b9,-0xe2c(%rbp)
    f56a:	c1 ec 39 
    f56d:	c7 85 d8 f1 ff ff b6 	movl   $0x694093b6,-0xe28(%rbp)
    f574:	93 40 69 
    f577:	c7 85 dc f1 ff ff b6 	movl   $0x694093b6,-0xe24(%rbp)
    f57e:	93 40 69 
    f581:	c7 85 e0 f1 ff ff 8d 	movl   $0x9af77e8d,-0xe20(%rbp)
    f588:	7e f7 9a 
    f58b:	c7 85 e4 f1 ff ff 57 	movl   $0x23822057,-0xe1c(%rbp)
    f592:	20 82 23 
    f595:	c7 85 e8 f1 ff ff 57 	movl   $0x23822057,-0xe18(%rbp)
    f59c:	20 82 23 
    f59f:	c7 85 ec f1 ff ff b9 	movl   $0x39ecc1b9,-0xe14(%rbp)
    f5a6:	c1 ec 39 
    f5a9:	c7 85 f0 f1 ff ff b6 	movl   $0x694093b6,-0xe10(%rbp)
    f5b0:	93 40 69 
    f5b3:	c7 85 f4 f1 ff ff b6 	movl   $0x694093b6,-0xe0c(%rbp)
    f5ba:	93 40 69 
    f5bd:	c7 85 f8 f1 ff ff 8d 	movl   $0x9af77e8d,-0xe08(%rbp)
    f5c4:	7e f7 9a 
    f5c7:	c7 85 fc f1 ff ff 57 	movl   $0x23822057,-0xe04(%rbp)
    f5ce:	20 82 23 
    f5d1:	c7 85 00 f2 ff ff 57 	movl   $0x23822057,-0xe00(%rbp)
    f5d8:	20 82 23 
    f5db:	c7 85 04 f2 ff ff b9 	movl   $0x39ecc1b9,-0xdfc(%rbp)
    f5e2:	c1 ec 39 
    f5e5:	c7 85 08 f2 ff ff b6 	movl   $0x694093b6,-0xdf8(%rbp)
    f5ec:	93 40 69 
    f5ef:	c7 85 0c f2 ff ff b6 	movl   $0x694093b6,-0xdf4(%rbp)
    f5f6:	93 40 69 
    f5f9:	c7 85 10 f2 ff ff 8d 	movl   $0x9af77e8d,-0xdf0(%rbp)
    f600:	7e f7 9a 
    f603:	c7 85 14 f2 ff ff 57 	movl   $0x23822057,-0xdec(%rbp)
    f60a:	20 82 23 
    f60d:	c7 85 18 f2 ff ff 57 	movl   $0x23822057,-0xde8(%rbp)
    f614:	20 82 23 
    f617:	c7 85 00 f0 ff ff 89 	movl   $0x4f488b89,-0x1000(%rbp)
    f61e:	8b 48 4f 
    f621:	48 8d 05 78 8d 00 00 	lea    0x8d78(%rip),%rax        # 183a0 <g_576>
    f628:	48 89 85 88 f0 ff ff 	mov    %rax,-0xf78(%rbp)
    f62f:	48 8d 85 88 f0 ff ff 	lea    -0xf78(%rbp),%rax
    f636:	48 89 85 88 f1 ff ff 	mov    %rax,-0xe78(%rbp)
    f63d:	c6 05 38 7c 00 00 00 	movb   $0x0,0x7c38(%rip)        # 1727c <g_540>
    f644:	e9 bc 02 00 00       	jmpq   f905 <func_70+0x2b76>
    f649:	48 8d 05 a8 84 00 00 	lea    0x84a8(%rip),%rax        # 17af8 <g_188+0x18>
    f650:	48 89 85 20 f2 ff ff 	mov    %rax,-0xde0(%rbp)
    f657:	48 8d 05 8a 84 00 00 	lea    0x848a(%rip),%rax        # 17ae8 <g_188+0x8>
    f65e:	48 89 85 28 f2 ff ff 	mov    %rax,-0xdd8(%rbp)
    f665:	48 8d 05 8c 84 00 00 	lea    0x848c(%rip),%rax        # 17af8 <g_188+0x18>
    f66c:	48 89 85 30 f2 ff ff 	mov    %rax,-0xdd0(%rbp)
    f673:	48 8d 85 90 f1 ff ff 	lea    -0xe70(%rbp),%rax
    f67a:	48 89 85 38 f2 ff ff 	mov    %rax,-0xdc8(%rbp)
    f681:	48 8d 05 60 84 00 00 	lea    0x8460(%rip),%rax        # 17ae8 <g_188+0x8>
    f688:	48 89 85 40 f2 ff ff 	mov    %rax,-0xdc0(%rbp)
    f68f:	48 8d 05 62 84 00 00 	lea    0x8462(%rip),%rax        # 17af8 <g_188+0x18>
    f696:	48 89 85 48 f2 ff ff 	mov    %rax,-0xdb8(%rbp)
    f69d:	48 8d 85 90 f1 ff ff 	lea    -0xe70(%rbp),%rax
    f6a4:	48 89 85 50 f2 ff ff 	mov    %rax,-0xdb0(%rbp)
    f6ab:	48 8d 05 46 84 00 00 	lea    0x8446(%rip),%rax        # 17af8 <g_188+0x18>
    f6b2:	48 89 85 58 f2 ff ff 	mov    %rax,-0xda8(%rbp)
    f6b9:	48 8d 85 90 f1 ff ff 	lea    -0xe70(%rbp),%rax
    f6c0:	48 89 85 60 f2 ff ff 	mov    %rax,-0xda0(%rbp)
    f6c7:	48 8d 85 90 f1 ff ff 	lea    -0xe70(%rbp),%rax
    f6ce:	48 89 85 68 f2 ff ff 	mov    %rax,-0xd98(%rbp)
    f6d5:	48 c7 85 70 f2 ff ff 	movq   $0x0,-0xd90(%rbp)
    f6dc:	00 00 00 00 
    f6e0:	48 8d 85 90 f1 ff ff 	lea    -0xe70(%rbp),%rax
    f6e7:	48 89 85 78 f2 ff ff 	mov    %rax,-0xd88(%rbp)
    f6ee:	48 8d 05 03 84 00 00 	lea    0x8403(%rip),%rax        # 17af8 <g_188+0x18>
    f6f5:	48 89 85 80 f2 ff ff 	mov    %rax,-0xd80(%rbp)
    f6fc:	48 8d 05 f5 83 00 00 	lea    0x83f5(%rip),%rax        # 17af8 <g_188+0x18>
    f703:	48 89 85 88 f2 ff ff 	mov    %rax,-0xd78(%rbp)
    f70a:	48 8d 85 90 f1 ff ff 	lea    -0xe70(%rbp),%rax
    f711:	48 89 85 90 f2 ff ff 	mov    %rax,-0xd70(%rbp)
    f718:	48 8d 05 d9 83 00 00 	lea    0x83d9(%rip),%rax        # 17af8 <g_188+0x18>
    f71f:	48 89 85 98 f2 ff ff 	mov    %rax,-0xd68(%rbp)
    f726:	48 8d 05 bb 83 00 00 	lea    0x83bb(%rip),%rax        # 17ae8 <g_188+0x8>
    f72d:	48 89 85 a0 f2 ff ff 	mov    %rax,-0xd60(%rbp)
    f734:	48 8d 05 bd 83 00 00 	lea    0x83bd(%rip),%rax        # 17af8 <g_188+0x18>
    f73b:	48 89 85 a8 f2 ff ff 	mov    %rax,-0xd58(%rbp)
    f742:	48 8d 85 90 f1 ff ff 	lea    -0xe70(%rbp),%rax
    f749:	48 89 85 b0 f2 ff ff 	mov    %rax,-0xd50(%rbp)
    f750:	48 8d 05 91 83 00 00 	lea    0x8391(%rip),%rax        # 17ae8 <g_188+0x8>
    f757:	48 89 85 b8 f2 ff ff 	mov    %rax,-0xd48(%rbp)
    f75e:	48 8d 05 93 83 00 00 	lea    0x8393(%rip),%rax        # 17af8 <g_188+0x18>
    f765:	48 89 85 c0 f2 ff ff 	mov    %rax,-0xd40(%rbp)
    f76c:	48 8d 85 90 f1 ff ff 	lea    -0xe70(%rbp),%rax
    f773:	48 89 85 c8 f2 ff ff 	mov    %rax,-0xd38(%rbp)
    f77a:	48 8d 05 77 83 00 00 	lea    0x8377(%rip),%rax        # 17af8 <g_188+0x18>
    f781:	48 89 85 d0 f2 ff ff 	mov    %rax,-0xd30(%rbp)
    f788:	48 8d 85 90 f1 ff ff 	lea    -0xe70(%rbp),%rax
    f78f:	48 89 85 d8 f2 ff ff 	mov    %rax,-0xd28(%rbp)
    f796:	48 8d 85 90 f1 ff ff 	lea    -0xe70(%rbp),%rax
    f79d:	48 89 85 e0 f2 ff ff 	mov    %rax,-0xd20(%rbp)
    f7a4:	48 c7 85 e8 f2 ff ff 	movq   $0x0,-0xd18(%rbp)
    f7ab:	00 00 00 00 
    f7af:	48 8d 85 90 f1 ff ff 	lea    -0xe70(%rbp),%rax
    f7b6:	48 89 85 f0 f2 ff ff 	mov    %rax,-0xd10(%rbp)
    f7bd:	48 8d 05 34 83 00 00 	lea    0x8334(%rip),%rax        # 17af8 <g_188+0x18>
    f7c4:	48 89 85 f8 f2 ff ff 	mov    %rax,-0xd08(%rbp)
    f7cb:	48 8d 05 26 83 00 00 	lea    0x8326(%rip),%rax        # 17af8 <g_188+0x18>
    f7d2:	48 89 85 00 f3 ff ff 	mov    %rax,-0xd00(%rbp)
    f7d9:	48 8d 85 90 f1 ff ff 	lea    -0xe70(%rbp),%rax
    f7e0:	48 89 85 08 f3 ff ff 	mov    %rax,-0xcf8(%rbp)
    f7e7:	48 8d 05 0a 83 00 00 	lea    0x830a(%rip),%rax        # 17af8 <g_188+0x18>
    f7ee:	48 89 85 10 f3 ff ff 	mov    %rax,-0xcf0(%rbp)
    f7f5:	48 8d 05 ec 82 00 00 	lea    0x82ec(%rip),%rax        # 17ae8 <g_188+0x8>
    f7fc:	48 89 85 18 f3 ff ff 	mov    %rax,-0xce8(%rbp)
    f803:	48 8d 05 ee 82 00 00 	lea    0x82ee(%rip),%rax        # 17af8 <g_188+0x18>
    f80a:	48 89 85 20 f3 ff ff 	mov    %rax,-0xce0(%rbp)
    f811:	48 8d 85 90 f1 ff ff 	lea    -0xe70(%rbp),%rax
    f818:	48 89 85 28 f3 ff ff 	mov    %rax,-0xcd8(%rbp)
    f81f:	48 8d 05 c2 82 00 00 	lea    0x82c2(%rip),%rax        # 17ae8 <g_188+0x8>
    f826:	48 89 85 30 f3 ff ff 	mov    %rax,-0xcd0(%rbp)
    f82d:	48 8d 05 c4 82 00 00 	lea    0x82c4(%rip),%rax        # 17af8 <g_188+0x18>
    f834:	48 89 85 38 f3 ff ff 	mov    %rax,-0xcc8(%rbp)
    f83b:	48 8d 85 90 f1 ff ff 	lea    -0xe70(%rbp),%rax
    f842:	48 89 85 40 f3 ff ff 	mov    %rax,-0xcc0(%rbp)
    f849:	48 8d 05 a8 82 00 00 	lea    0x82a8(%rip),%rax        # 17af8 <g_188+0x18>
    f850:	48 89 85 48 f3 ff ff 	mov    %rax,-0xcb8(%rbp)
    f857:	48 8d 85 90 f1 ff ff 	lea    -0xe70(%rbp),%rax
    f85e:	48 89 85 50 f3 ff ff 	mov    %rax,-0xcb0(%rbp)
    f865:	48 8d 85 90 f1 ff ff 	lea    -0xe70(%rbp),%rax
    f86c:	48 89 85 58 f3 ff ff 	mov    %rax,-0xca8(%rbp)
    f873:	48 c7 85 60 f3 ff ff 	movq   $0x0,-0xca0(%rbp)
    f87a:	00 00 00 00 
    f87e:	48 8d 85 90 f1 ff ff 	lea    -0xe70(%rbp),%rax
    f885:	48 89 85 68 f3 ff ff 	mov    %rax,-0xc98(%rbp)
    f88c:	48 8d 05 65 82 00 00 	lea    0x8265(%rip),%rax        # 17af8 <g_188+0x18>
    f893:	48 89 85 70 f3 ff ff 	mov    %rax,-0xc90(%rbp)
    f89a:	48 8d 05 57 82 00 00 	lea    0x8257(%rip),%rax        # 17af8 <g_188+0x18>
    f8a1:	48 89 85 78 f3 ff ff 	mov    %rax,-0xc88(%rbp)
    f8a8:	48 8d 85 90 f1 ff ff 	lea    -0xe70(%rbp),%rax
    f8af:	48 89 85 80 f3 ff ff 	mov    %rax,-0xc80(%rbp)
    f8b6:	8b 85 20 f0 ff ff    	mov    -0xfe0(%rbp),%eax
    f8bc:	0f b7 c0             	movzwl %ax,%eax
    f8bf:	be 0e 00 00 00       	mov    $0xe,%esi
    f8c4:	89 c7                	mov    %eax,%edi
    f8c6:	e8 f3 34 ff ff       	callq  2dbe <safe_lshift_func_uint16_t_u_s>
    f8cb:	66 85 c0             	test   %ax,%ax
    f8ce:	0f 94 c2             	sete   %dl
    f8d1:	48 8b 05 d8 82 00 00 	mov    0x82d8(%rip),%rax        # 17bb0 <g_385>
    f8d8:	0f b6 d2             	movzbl %dl,%edx
    f8db:	89 10                	mov    %edx,(%rax)
    f8dd:	48 8b 05 4c 82 00 00 	mov    0x824c(%rip),%rax        # 17b30 <g_187>
    f8e4:	48 8b 95 90 f1 ff ff 	mov    -0xe70(%rbp),%rdx
    f8eb:	48 89 10             	mov    %rdx,(%rax)
    f8ee:	83 85 00 f0 ff ff 01 	addl   $0x1,-0x1000(%rbp)
    f8f5:	0f b6 05 80 79 00 00 	movzbl 0x7980(%rip),%eax        # 1727c <g_540>
    f8fc:	83 c0 01             	add    $0x1,%eax
    f8ff:	88 05 77 79 00 00    	mov    %al,0x7977(%rip)        # 1727c <g_540>
    f905:	0f b6 05 70 79 00 00 	movzbl 0x7970(%rip),%eax        # 1727c <g_540>
    f90c:	3c 04                	cmp    $0x4,%al
    f90e:	0f 8e 35 fd ff ff    	jle    f649 <func_70+0x28ba>
    f914:	48 8b 85 88 f1 ff ff 	mov    -0xe78(%rbp),%rax
    f91b:	48 8d 15 7e 8a 00 00 	lea    0x8a7e(%rip),%rdx        # 183a0 <g_576>
    f922:	48 89 10             	mov    %rdx,(%rax)
    f925:	48 8b 05 5c 79 00 00 	mov    0x795c(%rip),%rax        # 17288 <g_572>
    f92c:	89 c6                	mov    %eax,%esi
    f92e:	bf 0b 38 5e 3a       	mov    $0x3a5e380b,%edi
    f933:	e8 c5 35 ff ff       	callq  2efd <safe_mod_func_uint32_t_u_u>
    f938:	48 8d 05 61 8a 00 00 	lea    0x8a61(%rip),%rax        # 183a0 <g_576>
    f93f:	48 39 85 20 f1 ff ff 	cmp    %rax,-0xee0(%rbp)
    f946:	0f b7 85 e6 ef ff ff 	movzwl -0x101a(%rbp),%eax
    f94d:	39 85 20 f0 ff ff    	cmp    %eax,-0xfe0(%rbp)
    f953:	0f 94 c0             	sete   %al
    f956:	0f b6 c8             	movzbl %al,%ecx
    f959:	48 8b 05 50 82 00 00 	mov    0x8250(%rip),%rax        # 17bb0 <g_385>
    f960:	8b 10                	mov    (%rax),%edx
    f962:	48 8b 05 47 82 00 00 	mov    0x8247(%rip),%rax        # 17bb0 <g_385>
    f969:	21 ca                	and    %ecx,%edx
    f96b:	89 10                	mov    %edx,(%rax)
    f96d:	80 bd dc ef ff ff 00 	cmpb   $0x0,-0x1024(%rbp)
    f974:	0f 84 8f 03 00 00    	je     fd09 <func_70+0x2f7a>
    f97a:	e9 e3 03 00 00       	jmpq   fd62 <func_70+0x2fd3>
    f97f:	48 8d 05 1a 8a 00 00 	lea    0x8a1a(%rip),%rax        # 183a0 <g_576>
    f986:	48 89 85 58 f1 ff ff 	mov    %rax,-0xea8(%rbp)
    f98d:	48 8d 05 9c 76 00 00 	lea    0x769c(%rip),%rax        # 17030 <g_67>
    f994:	48 89 85 20 f2 ff ff 	mov    %rax,-0xde0(%rbp)
    f99b:	48 8d 05 8e 76 00 00 	lea    0x768e(%rip),%rax        # 17030 <g_67>
    f9a2:	48 89 85 28 f2 ff ff 	mov    %rax,-0xdd8(%rbp)
    f9a9:	48 8d 05 80 76 00 00 	lea    0x7680(%rip),%rax        # 17030 <g_67>
    f9b0:	48 89 85 30 f2 ff ff 	mov    %rax,-0xdd0(%rbp)
    f9b7:	48 8d 05 72 76 00 00 	lea    0x7672(%rip),%rax        # 17030 <g_67>
    f9be:	48 89 85 38 f2 ff ff 	mov    %rax,-0xdc8(%rbp)
    f9c5:	48 8d 05 64 76 00 00 	lea    0x7664(%rip),%rax        # 17030 <g_67>
    f9cc:	48 89 85 40 f2 ff ff 	mov    %rax,-0xdc0(%rbp)
    f9d3:	48 8d 05 56 76 00 00 	lea    0x7656(%rip),%rax        # 17030 <g_67>
    f9da:	48 89 85 48 f2 ff ff 	mov    %rax,-0xdb8(%rbp)
    f9e1:	48 8d 05 48 76 00 00 	lea    0x7648(%rip),%rax        # 17030 <g_67>
    f9e8:	48 89 85 50 f2 ff ff 	mov    %rax,-0xdb0(%rbp)
    f9ef:	48 8d 05 ca 76 00 00 	lea    0x76ca(%rip),%rax        # 170c0 <g_299>
    f9f6:	48 89 85 60 f1 ff ff 	mov    %rax,-0xea0(%rbp)
    f9fd:	48 8d 05 c4 78 00 00 	lea    0x78c4(%rip),%rax        # 172c8 <g_658>
    fa04:	48 89 85 68 f1 ff ff 	mov    %rax,-0xe98(%rbp)
    fa0b:	c7 85 38 f0 ff ff 67 	movl   $0x5701e467,-0xfc8(%rbp)
    fa12:	e4 01 57 
    fa15:	48 8d 05 bc 80 00 00 	lea    0x80bc(%rip),%rax        # 17ad8 <g_189>
    fa1c:	48 89 85 70 f1 ff ff 	mov    %rax,-0xe90(%rbp)
    fa23:	48 8d 05 4a 76 00 00 	lea    0x764a(%rip),%rax        # 17074 <g_254>
    fa2a:	48 89 85 78 f1 ff ff 	mov    %rax,-0xe88(%rbp)
    fa31:	0f b6 9d dc ef ff ff 	movzbl -0x1024(%rbp),%ebx
    fa38:	44 0f b6 a5 dc ef ff 	movzbl -0x1024(%rbp),%r12d
    fa3f:	ff 
    fa40:	44 0f b6 b5 dc ef ff 	movzbl -0x1024(%rbp),%r14d
    fa47:	ff 
    fa48:	80 bd dc ef ff ff 00 	cmpb   $0x0,-0x1024(%rbp)
    fa4f:	0f 84 d0 00 00 00    	je     fb25 <func_70+0x2d96>
    fa55:	48 8b 05 d4 75 00 00 	mov    0x75d4(%rip),%rax        # 17030 <g_67>
    fa5c:	48 83 c0 01          	add    $0x1,%rax
    fa60:	48 89 05 c9 75 00 00 	mov    %rax,0x75c9(%rip)        # 17030 <g_67>
    fa67:	48 8b 0d c2 75 00 00 	mov    0x75c2(%rip),%rcx        # 17030 <g_67>
    fa6e:	8b 95 04 f0 ff ff    	mov    -0xffc(%rbp),%edx
    fa74:	48 8b 85 60 f1 ff ff 	mov    -0xea0(%rbp),%rax
    fa7b:	48 89 10             	mov    %rdx,(%rax)
    fa7e:	48 8b 85 60 f1 ff ff 	mov    -0xea0(%rbp),%rax
    fa85:	48 8b 00             	mov    (%rax),%rax
    fa88:	48 39 c1             	cmp    %rax,%rcx
    fa8b:	77 65                	ja     faf2 <func_70+0x2d63>
    fa8d:	44 0f b6 ad dc ef ff 	movzbl -0x1024(%rbp),%r13d
    fa94:	ff 
    fa95:	0f b6 05 46 77 00 00 	movzbl 0x7746(%rip),%eax        # 171e2 <g_536+0x62>
    fa9c:	66 98                	cbtw   
    fa9e:	0f b7 c0             	movzwl %ax,%eax
    faa1:	be 08 00 00 00       	mov    $0x8,%esi
    faa6:	89 c7                	mov    %eax,%edi
    faa8:	e8 11 33 ff ff       	callq  2dbe <safe_lshift_func_uint16_t_u_s>
    faad:	0f b6 95 dc ef ff ff 	movzbl -0x1024(%rbp),%edx
    fab4:	66 39 d0             	cmp    %dx,%ax
    fab7:	0f 96 c0             	setbe  %al
    faba:	0f b6 c0             	movzbl %al,%eax
    fabd:	44 89 ee             	mov    %r13d,%esi
    fac0:	89 c7                	mov    %eax,%edi
    fac2:	e8 0c 29 ff ff       	callq  23d3 <safe_sub_func_int16_t_s_s>
    fac7:	0f bf d0             	movswl %ax,%edx
    faca:	0f b6 85 dc ef ff ff 	movzbl -0x1024(%rbp),%eax
    fad1:	39 c2                	cmp    %eax,%edx
    fad3:	0f 9e c0             	setle  %al
    fad6:	0f b6 c0             	movzbl %al,%eax
    fad9:	48 f7 d0             	not    %rax
    fadc:	48 89 c2             	mov    %rax,%rdx
    fadf:	0f b6 85 dc ef ff ff 	movzbl -0x1024(%rbp),%eax
    fae6:	48 39 c2             	cmp    %rax,%rdx
    fae9:	7e 07                	jle    faf2 <func_70+0x2d63>
    faeb:	b8 01 00 00 00       	mov    $0x1,%eax
    faf0:	eb 05                	jmp    faf7 <func_70+0x2d68>
    faf2:	b8 00 00 00 00       	mov    $0x0,%eax
    faf7:	89 85 20 f0 ff ff    	mov    %eax,-0xfe0(%rbp)
    fafd:	8b 85 20 f0 ff ff    	mov    -0xfe0(%rbp),%eax
    fb03:	89 c6                	mov    %eax,%esi
    fb05:	bf 01 00 00 00       	mov    $0x1,%edi
    fb0a:	e8 bd 2b ff ff       	callq  26cc <safe_mod_func_int32_t_s_s>
    fb0f:	85 c0                	test   %eax,%eax
    fb11:	74 12                	je     fb25 <func_70+0x2d96>
    fb13:	0f b6 05 0a 77 00 00 	movzbl 0x770a(%rip),%eax        # 17224 <g_536+0xa4>
    fb1a:	84 c0                	test   %al,%al
    fb1c:	74 07                	je     fb25 <func_70+0x2d96>
    fb1e:	b8 01 00 00 00       	mov    $0x1,%eax
    fb23:	eb 05                	jmp    fb2a <func_70+0x2d9b>
    fb25:	b8 00 00 00 00       	mov    $0x0,%eax
    fb2a:	89 c2                	mov    %eax,%edx
    fb2c:	48 8b 85 68 f1 ff ff 	mov    -0xe98(%rbp),%rax
    fb33:	89 10                	mov    %edx,(%rax)
    fb35:	48 8b 85 68 f1 ff ff 	mov    -0xe98(%rbp),%rax
    fb3c:	8b 00                	mov    (%rax),%eax
    fb3e:	41 89 c5             	mov    %eax,%r13d
    fb41:	48 83 bd 58 f1 ff ff 	cmpq   $0x0,-0xea8(%rbp)
    fb48:	00 
    fb49:	0f 94 c0             	sete   %al
    fb4c:	0f b6 d0             	movzbl %al,%edx
    fb4f:	0f b6 85 dc ef ff ff 	movzbl -0x1024(%rbp),%eax
    fb56:	48 89 d6             	mov    %rdx,%rsi
    fb59:	48 89 c7             	mov    %rax,%rdi
    fb5c:	e8 96 2e ff ff       	callq  29f7 <safe_div_func_int64_t_s_s>
    fb61:	89 c2                	mov    %eax,%edx
    fb63:	8b 05 cf 74 00 00    	mov    0x74cf(%rip),%eax        # 17038 <g_99>
    fb69:	09 d0                	or     %edx,%eax
    fb6b:	44 89 ee             	mov    %r13d,%esi
    fb6e:	89 c7                	mov    %eax,%edi
    fb70:	e8 57 2b ff ff       	callq  26cc <safe_mod_func_int32_t_s_s>
    fb75:	83 f8 ff             	cmp    $0xffffffff,%eax
    fb78:	0f 94 c0             	sete   %al
    fb7b:	0f b6 c0             	movzbl %al,%eax
    fb7e:	44 89 f2             	mov    %r14d,%edx
    fb81:	21 c2                	and    %eax,%edx
    fb83:	8b 85 a0 f1 ff ff    	mov    -0xe60(%rbp),%eax
    fb89:	39 c2                	cmp    %eax,%edx
    fb8b:	0f 95 c0             	setne  %al
    fb8e:	0f b6 c0             	movzbl %al,%eax
    fb91:	be 83 00 00 00       	mov    $0x83,%esi
    fb96:	89 c7                	mov    %eax,%edi
    fb98:	e8 bd 2f ff ff       	callq  2b5a <safe_add_func_uint8_t_u_u>
    fb9d:	0f b6 c0             	movzbl %al,%eax
    fba0:	4c 89 e6             	mov    %r12,%rsi
    fba3:	48 89 c7             	mov    %rax,%rdi
    fba6:	e8 d5 34 ff ff       	callq  3080 <safe_mod_func_uint64_t_u_u>
    fbab:	48 89 de             	mov    %rbx,%rsi
    fbae:	48 89 c7             	mov    %rax,%rdi
    fbb1:	e8 78 34 ff ff       	callq  302e <safe_add_func_uint64_t_u_u>
    fbb6:	8b 85 a0 f1 ff ff    	mov    -0xe60(%rbp),%eax
    fbbc:	83 f8 ff             	cmp    $0xffffffff,%eax
    fbbf:	48 8d 85 60 f0 ff ff 	lea    -0xfa0(%rbp),%rax
    fbc6:	48 39 85 58 f1 ff ff 	cmp    %rax,-0xea8(%rbp)
    fbcd:	0f 95 c2             	setne  %dl
    fbd0:	48 8b 05 d9 7f 00 00 	mov    0x7fd9(%rip),%rax        # 17bb0 <g_385>
    fbd7:	0f b6 d2             	movzbl %dl,%edx
    fbda:	89 10                	mov    %edx,(%rax)
    fbdc:	48 8d 85 80 f0 ff ff 	lea    -0xf80(%rbp),%rax
    fbe3:	48 89 85 80 f1 ff ff 	mov    %rax,-0xe80(%rbp)
    fbea:	c7 85 3c f0 ff ff d6 	movl   $0xaa9efcd6,-0xfc4(%rbp)
    fbf1:	fc 9e aa 
    fbf4:	c7 85 40 f0 ff ff 6b 	movl   $0xb2eac16b,-0xfc0(%rbp)
    fbfb:	c1 ea b2 
    fbfe:	48 8b 85 28 f1 ff ff 	mov    -0xed8(%rbp),%rax
    fc05:	48 3b 85 70 f1 ff ff 	cmp    -0xe90(%rbp),%rax
    fc0c:	41 0f 94 c6          	sete   %r14b
    fc10:	8b 85 a4 f1 ff ff    	mov    -0xe5c(%rbp),%eax
    fc16:	48 63 d8             	movslq %eax,%rbx
    fc19:	8b 85 18 f0 ff ff    	mov    -0xfe8(%rbp),%eax
    fc1f:	44 0f b6 e0          	movzbl %al,%r12d
    fc23:	8b 85 18 f0 ff ff    	mov    -0xfe8(%rbp),%eax
    fc29:	44 0f be e8          	movsbl %al,%r13d
    fc2d:	48 bf 53 32 86 f1 3e 	movabs $0x8ea3c53ef1863253,%rdi
    fc34:	c5 a3 8e 
    fc37:	e8 dd 33 ff ff       	callq  3019 <safe_unary_minus_func_uint64_t_u>
    fc3c:	48 85 c0             	test   %rax,%rax
    fc3f:	74 14                	je     fc55 <func_70+0x2ec6>
    fc41:	8b 05 29 74 00 00    	mov    0x7429(%rip),%eax        # 17070 <g_209>
    fc47:	3d c8 48 00 00       	cmp    $0x48c8,%eax
    fc4c:	74 07                	je     fc55 <func_70+0x2ec6>
    fc4e:	b8 01 00 00 00       	mov    $0x1,%eax
    fc53:	eb 05                	jmp    fc5a <func_70+0x2ecb>
    fc55:	b8 00 00 00 00       	mov    $0x0,%eax
    fc5a:	0f be c0             	movsbl %al,%eax
    fc5d:	44 89 ee             	mov    %r13d,%esi
    fc60:	89 c7                	mov    %eax,%edi
    fc62:	e8 ab 25 ff ff       	callq  2212 <safe_mul_func_int8_t_s_s>
    fc67:	3c ff                	cmp    $0xff,%al
    fc69:	0f 9c c0             	setl   %al
    fc6c:	0f b6 c0             	movzbl %al,%eax
    fc6f:	44 89 e6             	mov    %r12d,%esi
    fc72:	89 c7                	mov    %eax,%edi
    fc74:	e8 1a 2f ff ff       	callq  2b93 <safe_mul_func_uint8_t_u_u>
    fc79:	0f b6 d0             	movzbl %al,%edx
    fc7c:	48 8b 85 80 f0 ff ff 	mov    -0xf80(%rbp),%rax
    fc83:	0f b6 c0             	movzbl %al,%eax
    fc86:	89 d6                	mov    %edx,%esi
    fc88:	89 c7                	mov    %eax,%edi
    fc8a:	e8 cb 2e ff ff       	callq  2b5a <safe_add_func_uint8_t_u_u>
    fc8f:	0f b6 c0             	movzbl %al,%eax
    fc92:	48 89 de             	mov    %rbx,%rsi
    fc95:	48 89 c7             	mov    %rax,%rdi
    fc98:	e8 17 2d ff ff       	callq  29b4 <safe_mod_func_int64_t_s_s>
    fc9d:	8b 95 3c f0 ff ff    	mov    -0xfc4(%rbp),%edx
    fca3:	48 63 d2             	movslq %edx,%rdx
    fca6:	48 39 d0             	cmp    %rdx,%rax
    fca9:	0f 9e c0             	setle  %al
    fcac:	44 09 f0             	or     %r14d,%eax
    fcaf:	0f b6 c0             	movzbl %al,%eax
    fcb2:	39 85 38 f0 ff ff    	cmp    %eax,-0xfc8(%rbp)
    fcb8:	0f 9e c0             	setle  %al
    fcbb:	0f b6 c8             	movzbl %al,%ecx
    fcbe:	48 8b 85 c8 ef ff ff 	mov    -0x1038(%rbp),%rax
    fcc5:	48 8b 00             	mov    (%rax),%rax
    fcc8:	0f b6 10             	movzbl (%rax),%edx
    fccb:	48 8b 85 c8 ef ff ff 	mov    -0x1038(%rbp),%rax
    fcd2:	48 8b 00             	mov    (%rax),%rax
    fcd5:	09 ca                	or     %ecx,%edx
    fcd7:	88 10                	mov    %dl,(%rax)
    fcd9:	c7 85 20 f0 ff ff 00 	movl   $0x0,-0xfe0(%rbp)
    fce0:	00 00 00 
    fce3:	48 8d 85 80 f0 ff ff 	lea    -0xf80(%rbp),%rax
    fcea:	48 39 85 80 f1 ff ff 	cmp    %rax,-0xe80(%rbp)
    fcf1:	0f 95 c0             	setne  %al
    fcf4:	0f b6 c0             	movzbl %al,%eax
    fcf7:	89 85 40 f0 ff ff    	mov    %eax,-0xfc0(%rbp)
    fcfd:	48 8d 05 24 73 00 00 	lea    0x7324(%rip),%rax        # 17028 <g_52>
    fd04:	e9 a0 00 00 00       	jmpq   fda9 <func_70+0x301a>
    fd09:	48 8b 15 a8 7e 00 00 	mov    0x7ea8(%rip),%rdx        # 17bb8 <g_384>
    fd10:	48 8b 05 41 7f 00 00 	mov    0x7f41(%rip),%rax        # 17c58 <g_721>
    fd17:	48 8b 12             	mov    (%rdx),%rdx
    fd1a:	48 89 10             	mov    %rdx,(%rax)
    fd1d:	48 8b 05 8c 7e 00 00 	mov    0x7e8c(%rip),%rax        # 17bb0 <g_385>
    fd24:	8b 08                	mov    (%rax),%ecx
    fd26:	66 83 bd e6 ef ff ff 	cmpw   $0x0,-0x101a(%rbp)
    fd2d:	00 
    fd2e:	0f 94 c0             	sete   %al
    fd31:	0f b6 d0             	movzbl %al,%edx
    fd34:	48 8b 05 75 7e 00 00 	mov    0x7e75(%rip),%rax        # 17bb0 <g_385>
    fd3b:	21 ca                	and    %ecx,%edx
    fd3d:	89 10                	mov    %edx,(%rax)
    fd3f:	48 8b 05 2a 74 00 00 	mov    0x742a(%rip),%rax        # 17170 <g_484>
    fd46:	48 83 c0 01          	add    $0x1,%rax
    fd4a:	48 89 05 1f 74 00 00 	mov    %rax,0x741f(%rip)        # 17170 <g_484>
    fd51:	48 8b 05 18 74 00 00 	mov    0x7418(%rip),%rax        # 17170 <g_484>
    fd58:	48 83 f8 02          	cmp    $0x2,%rax
    fd5c:	0f 86 8d f6 ff ff    	jbe    f3ef <func_70+0x2660>
    fd62:	0f b6 05 d4 72 00 00 	movzbl 0x72d4(%rip),%eax        # 1703d <g_124>
    fd69:	83 c0 01             	add    $0x1,%eax
    fd6c:	88 05 cb 72 00 00    	mov    %al,0x72cb(%rip)        # 1703d <g_124>
    fd72:	0f b6 05 c4 72 00 00 	movzbl 0x72c4(%rip),%eax        # 1703d <g_124>
    fd79:	3c 02                	cmp    $0x2,%al
    fd7b:	0f 86 04 ee ff ff    	jbe    eb85 <func_70+0x1df6>
    fd81:	eb 01                	jmp    fd84 <func_70+0x2ff5>
    fd83:	90                   	nop
    fd84:	8b 05 ae 72 00 00    	mov    0x72ae(%rip),%eax        # 17038 <g_99>
    fd8a:	83 c0 01             	add    $0x1,%eax
    fd8d:	89 05 a5 72 00 00    	mov    %eax,0x72a5(%rip)        # 17038 <g_99>
    fd93:	8b 05 9f 72 00 00    	mov    0x729f(%rip),%eax        # 17038 <g_99>
    fd99:	83 f8 06             	cmp    $0x6,%eax
    fd9c:	0f 85 cc e8 ff ff    	jne    e66e <func_70+0x18df>
    fda2:	48 8d 05 8f 72 00 00 	lea    0x728f(%rip),%rax        # 17038 <g_99>
    fda9:	48 8b 5d d8          	mov    -0x28(%rbp),%rbx
    fdad:	64 48 33 1c 25 28 00 	xor    %fs:0x28,%rbx
    fdb4:	00 00 
    fdb6:	74 05                	je     fdbd <func_70+0x302e>
    fdb8:	e8 b3 22 ff ff       	callq  2070 <__stack_chk_fail@plt>
    fdbd:	48 81 c4 20 10 00 00 	add    $0x1020,%rsp
    fdc4:	5b                   	pop    %rbx
    fdc5:	41 5c                	pop    %r12
    fdc7:	41 5d                	pop    %r13
    fdc9:	41 5e                	pop    %r14
    fdcb:	5d                   	pop    %rbp
    fdcc:	c3                   	retq   

000000000000fdcd <func_74>:
    fdcd:	f3 0f 1e fa          	endbr64 
    fdd1:	55                   	push   %rbp
    fdd2:	48 89 e5             	mov    %rsp,%rbp
    fdd5:	41 55                	push   %r13
    fdd7:	41 54                	push   %r12
    fdd9:	53                   	push   %rbx
    fdda:	48 81 ec b8 0e 00 00 	sub    $0xeb8,%rsp
    fde1:	89 f8                	mov    %edi,%eax
    fde3:	48 89 b5 30 f1 ff ff 	mov    %rsi,-0xed0(%rbp)
    fdea:	66 89 85 3c f1 ff ff 	mov    %ax,-0xec4(%rbp)
    fdf1:	64 48 8b 04 25 28 00 	mov    %fs:0x28,%rax
    fdf8:	00 00 
    fdfa:	48 89 45 d8          	mov    %rax,-0x28(%rbp)
    fdfe:	31 c0                	xor    %eax,%eax
    fe00:	48 b8 02 12 8f 3c 59 	movabs $0x870b2a593c8f1202,%rax
    fe07:	2a 0b 87 
    fe0a:	48 89 85 e0 f1 ff ff 	mov    %rax,-0xe20(%rbp)
    fe11:	c7 85 4c f1 ff ff 01 	movl   $0x1,-0xeb4(%rbp)
    fe18:	00 00 00 
    fe1b:	c7 85 50 f1 ff ff d8 	movl   $0xd9095fd8,-0xeb0(%rbp)
    fe22:	5f 09 d9 
    fe25:	48 8d 05 94 7c 00 00 	lea    0x7c94(%rip),%rax        # 17ac0 <g_106>
    fe2c:	48 89 85 c8 f1 ff ff 	mov    %rax,-0xe38(%rbp)
    fe33:	c7 85 60 f2 ff ff 23 	movl   $0x3918be23,-0xda0(%rbp)
    fe3a:	be 18 39 
    fe3d:	c7 85 64 f2 ff ff 23 	movl   $0x3918be23,-0xd9c(%rbp)
    fe44:	be 18 39 
    fe47:	c7 85 68 f2 ff ff 23 	movl   $0x3918be23,-0xd98(%rbp)
    fe4e:	be 18 39 
    fe51:	c7 85 6c f2 ff ff 23 	movl   $0x3918be23,-0xd94(%rbp)
    fe58:	be 18 39 
    fe5b:	c7 85 70 f2 ff ff 23 	movl   $0x3918be23,-0xd90(%rbp)
    fe62:	be 18 39 
    fe65:	c7 85 74 f2 ff ff 23 	movl   $0x3918be23,-0xd8c(%rbp)
    fe6c:	be 18 39 
    fe6f:	c7 85 78 f2 ff ff 23 	movl   $0x3918be23,-0xd88(%rbp)
    fe76:	be 18 39 
    fe79:	c7 85 7c f2 ff ff 23 	movl   $0x3918be23,-0xd84(%rbp)
    fe80:	be 18 39 
    fe83:	48 c7 85 d0 f2 ff ff 	movq   $0x1,-0xd30(%rbp)
    fe8a:	01 00 00 00 
    fe8e:	48 c7 85 d8 f2 ff ff 	movq   $0x1,-0xd28(%rbp)
    fe95:	01 00 00 00 
    fe99:	48 c7 85 e0 f2 ff ff 	movq   $0x1,-0xd20(%rbp)
    fea0:	01 00 00 00 
    fea4:	48 c7 85 e8 f2 ff ff 	movq   $0x1,-0xd18(%rbp)
    feab:	01 00 00 00 
    feaf:	48 c7 85 f0 f2 ff ff 	movq   $0x1,-0xd10(%rbp)
    feb6:	01 00 00 00 
    feba:	48 c7 85 f8 f2 ff ff 	movq   $0x1,-0xd08(%rbp)
    fec1:	01 00 00 00 
    fec5:	48 c7 85 00 f3 ff ff 	movq   $0x1,-0xd00(%rbp)
    fecc:	01 00 00 00 
    fed0:	48 c7 85 08 f3 ff ff 	movq   $0x1,-0xcf8(%rbp)
    fed7:	01 00 00 00 
    fedb:	48 8d 05 9e 71 00 00 	lea    0x719e(%rip),%rax        # 17080 <g_273>
    fee2:	48 89 85 d0 f1 ff ff 	mov    %rax,-0xe30(%rbp)
    fee9:	48 b8 eb 9b 30 8f b0 	movabs $0x9fe014b08f309beb,%rax
    fef0:	14 e0 9f 
    fef3:	48 89 85 d8 f1 ff ff 	mov    %rax,-0xe28(%rbp)
    fefa:	66 c7 85 44 f1 ff ff 	movw   $0x1,-0xebc(%rbp)
    ff01:	01 00 
    ff03:	c6 05 33 71 00 00 10 	movb   $0x10,0x7133(%rip)        # 1703d <g_124>
    ff0a:	e9 3b 1a 00 00       	jmpq   1194a <func_74+0x1b7d>
    ff0f:	48 8d 05 ba 7b 00 00 	lea    0x7bba(%rip),%rax        # 17ad0 <g_190>
    ff16:	48 89 85 b0 f1 ff ff 	mov    %rax,-0xe50(%rbp)
    ff1d:	48 c7 85 c0 f1 ff ff 	movq   $0x0,-0xe40(%rbp)
    ff24:	00 00 00 00 
    ff28:	c7 85 58 f1 ff ff 01 	movl   $0x1,-0xea8(%rbp)
    ff2f:	00 00 00 
    ff32:	c7 85 80 f2 ff ff cc 	movl   $0xbf2cd2cc,-0xd80(%rbp)
    ff39:	d2 2c bf 
    ff3c:	c7 85 84 f2 ff ff cc 	movl   $0xbf2cd2cc,-0xd7c(%rbp)
    ff43:	d2 2c bf 
    ff46:	c7 85 88 f2 ff ff ff 	movl   $0xffffffff,-0xd78(%rbp)
    ff4d:	ff ff ff 
    ff50:	c7 85 8c f2 ff ff cc 	movl   $0xbf2cd2cc,-0xd74(%rbp)
    ff57:	d2 2c bf 
    ff5a:	c7 85 90 f2 ff ff cc 	movl   $0xbf2cd2cc,-0xd70(%rbp)
    ff61:	d2 2c bf 
    ff64:	c7 85 94 f2 ff ff ff 	movl   $0xffffffff,-0xd6c(%rbp)
    ff6b:	ff ff ff 
    ff6e:	c7 85 98 f2 ff ff cc 	movl   $0xbf2cd2cc,-0xd68(%rbp)
    ff75:	d2 2c bf 
    ff78:	c7 85 9c f2 ff ff cc 	movl   $0xbf2cd2cc,-0xd64(%rbp)
    ff7f:	d2 2c bf 
    ff82:	66 c7 85 46 f1 ff ff 	movw   $0x4cbc,-0xeba(%rbp)
    ff89:	bc 4c 
    ff8b:	48 8d 85 f0 f3 ff ff 	lea    -0xc10(%rbp),%rax
    ff92:	48 8d 15 87 3b 00 00 	lea    0x3b87(%rip),%rdx        # 13b20 <g_1644+0xa30>
    ff99:	b9 28 00 00 00       	mov    $0x28,%ecx
    ff9e:	48 89 c7             	mov    %rax,%rdi
    ffa1:	48 89 d6             	mov    %rdx,%rsi
    ffa4:	f3 48 a5             	rep movsq %ds:(%rsi),%es:(%rdi)
    ffa7:	c7 85 5c f1 ff ff 19 	movl   $0x6327cc19,-0xea4(%rbp)
    ffae:	cc 27 63 
    ffb1:	8b 05 b9 70 00 00    	mov    0x70b9(%rip),%eax        # 17070 <g_209>
    ffb7:	85 c0                	test   %eax,%eax
    ffb9:	0f 88 af 01 00 00    	js     1016e <func_74+0x3a1>
    ffbf:	48 8d 05 72 70 00 00 	lea    0x7072(%rip),%rax        # 17038 <g_99>
    ffc6:	48 89 85 50 f8 ff ff 	mov    %rax,-0x7b0(%rbp)
    ffcd:	48 8d 05 54 70 00 00 	lea    0x7054(%rip),%rax        # 17028 <g_52>
    ffd4:	48 89 85 58 f8 ff ff 	mov    %rax,-0x7a8(%rbp)
    ffdb:	48 8d 05 46 70 00 00 	lea    0x7046(%rip),%rax        # 17028 <g_52>
    ffe2:	48 89 85 60 f8 ff ff 	mov    %rax,-0x7a0(%rbp)
    ffe9:	48 8d 05 48 70 00 00 	lea    0x7048(%rip),%rax        # 17038 <g_99>
    fff0:	48 89 85 68 f8 ff ff 	mov    %rax,-0x798(%rbp)
    fff7:	48 8d 05 3a 70 00 00 	lea    0x703a(%rip),%rax        # 17038 <g_99>
    fffe:	48 89 85 70 f8 ff ff 	mov    %rax,-0x790(%rbp)
   10005:	48 8d 05 2c 70 00 00 	lea    0x702c(%rip),%rax        # 17038 <g_99>
   1000c:	48 89 85 78 f8 ff ff 	mov    %rax,-0x788(%rbp)
   10013:	48 8d 05 1e 70 00 00 	lea    0x701e(%rip),%rax        # 17038 <g_99>
   1001a:	48 89 85 80 f8 ff ff 	mov    %rax,-0x780(%rbp)
   10021:	48 8d 05 10 70 00 00 	lea    0x7010(%rip),%rax        # 17038 <g_99>
   10028:	48 89 85 88 f8 ff ff 	mov    %rax,-0x778(%rbp)
   1002f:	48 8d 05 f2 6f 00 00 	lea    0x6ff2(%rip),%rax        # 17028 <g_52>
   10036:	48 89 85 90 f8 ff ff 	mov    %rax,-0x770(%rbp)
   1003d:	48 c7 85 98 f8 ff ff 	movq   $0x0,-0x768(%rbp)
   10044:	00 00 00 00 
   10048:	48 8d 05 e9 6f 00 00 	lea    0x6fe9(%rip),%rax        # 17038 <g_99>
   1004f:	48 89 85 a0 f8 ff ff 	mov    %rax,-0x760(%rbp)
   10056:	48 c7 85 a8 f8 ff ff 	movq   $0x0,-0x758(%rbp)
   1005d:	00 00 00 00 
   10061:	48 8d 05 d0 6f 00 00 	lea    0x6fd0(%rip),%rax        # 17038 <g_99>
   10068:	48 89 85 b0 f8 ff ff 	mov    %rax,-0x750(%rbp)
   1006f:	48 8d 05 b2 6f 00 00 	lea    0x6fb2(%rip),%rax        # 17028 <g_52>
   10076:	48 89 85 b8 f8 ff ff 	mov    %rax,-0x748(%rbp)
   1007d:	48 8d 05 a4 6f 00 00 	lea    0x6fa4(%rip),%rax        # 17028 <g_52>
   10084:	48 89 85 c0 f8 ff ff 	mov    %rax,-0x740(%rbp)
   1008b:	48 8d 05 a6 6f 00 00 	lea    0x6fa6(%rip),%rax        # 17038 <g_99>
   10092:	48 89 85 c8 f8 ff ff 	mov    %rax,-0x738(%rbp)
   10099:	48 8d 05 98 6f 00 00 	lea    0x6f98(%rip),%rax        # 17038 <g_99>
   100a0:	48 89 85 d0 f8 ff ff 	mov    %rax,-0x730(%rbp)
   100a7:	48 8d 05 8a 6f 00 00 	lea    0x6f8a(%rip),%rax        # 17038 <g_99>
   100ae:	48 89 85 d8 f8 ff ff 	mov    %rax,-0x728(%rbp)
   100b5:	48 8d 05 7c 6f 00 00 	lea    0x6f7c(%rip),%rax        # 17038 <g_99>
   100bc:	48 89 85 e0 f8 ff ff 	mov    %rax,-0x720(%rbp)
   100c3:	48 8d 05 6e 6f 00 00 	lea    0x6f6e(%rip),%rax        # 17038 <g_99>
   100ca:	48 89 85 e8 f8 ff ff 	mov    %rax,-0x718(%rbp)
   100d1:	48 8d 05 50 6f 00 00 	lea    0x6f50(%rip),%rax        # 17028 <g_52>
   100d8:	48 89 85 f0 f8 ff ff 	mov    %rax,-0x710(%rbp)
   100df:	48 c7 85 f8 f8 ff ff 	movq   $0x0,-0x708(%rbp)
   100e6:	00 00 00 00 
   100ea:	48 8d 05 47 6f 00 00 	lea    0x6f47(%rip),%rax        # 17038 <g_99>
   100f1:	48 89 85 00 f9 ff ff 	mov    %rax,-0x700(%rbp)
   100f8:	48 c7 85 08 f9 ff ff 	movq   $0x0,-0x6f8(%rbp)
   100ff:	00 00 00 00 
   10103:	48 8d 05 2e 6f 00 00 	lea    0x6f2e(%rip),%rax        # 17038 <g_99>
   1010a:	48 89 85 10 f9 ff ff 	mov    %rax,-0x6f0(%rbp)
   10111:	48 8d 05 10 6f 00 00 	lea    0x6f10(%rip),%rax        # 17028 <g_52>
   10118:	48 89 85 18 f9 ff ff 	mov    %rax,-0x6e8(%rbp)
   1011f:	48 8d 05 02 6f 00 00 	lea    0x6f02(%rip),%rax        # 17028 <g_52>
   10126:	48 89 85 20 f9 ff ff 	mov    %rax,-0x6e0(%rbp)
   1012d:	8b 05 19 6f 00 00    	mov    0x6f19(%rip),%eax        # 1704c <g_182+0xc>
   10133:	85 c0                	test   %eax,%eax
   10135:	75 18                	jne    1014f <func_74+0x382>
   10137:	0f b7 85 3c f1 ff ff 	movzwl -0xec4(%rbp),%eax
   1013e:	48 89 85 e0 f1 ff ff 	mov    %rax,-0xe20(%rbp)
   10145:	48 83 bd e0 f1 ff ff 	cmpq   $0x0,-0xe20(%rbp)
   1014c:	00 
   1014d:	74 07                	je     10156 <func_74+0x389>
   1014f:	ba 01 00 00 00       	mov    $0x1,%edx
   10154:	eb 05                	jmp    1015b <func_74+0x38e>
   10156:	ba 00 00 00 00       	mov    $0x0,%edx
   1015b:	8b 85 4c f1 ff ff    	mov    -0xeb4(%rbp),%eax
   10161:	31 d0                	xor    %edx,%eax
   10163:	89 85 4c f1 ff ff    	mov    %eax,-0xeb4(%rbp)
   10169:	e9 bf 17 00 00       	jmpq   1192d <func_74+0x1b60>
   1016e:	48 b8 fd 82 b1 9a 86 	movabs $0x1333cc869ab182fd,%rax
   10175:	cc 33 13 
   10178:	48 89 85 a0 f2 ff ff 	mov    %rax,-0xd60(%rbp)
   1017f:	48 89 85 a8 f2 ff ff 	mov    %rax,-0xd58(%rbp)
   10186:	48 89 85 b0 f2 ff ff 	mov    %rax,-0xd50(%rbp)
   1018d:	48 89 85 b8 f2 ff ff 	mov    %rax,-0xd48(%rbp)
   10194:	48 89 85 c0 f2 ff ff 	mov    %rax,-0xd40(%rbp)
   1019b:	48 89 85 c8 f2 ff ff 	mov    %rax,-0xd38(%rbp)
   101a2:	48 8d 05 27 79 00 00 	lea    0x7927(%rip),%rax        # 17ad0 <g_190>
   101a9:	48 89 85 b8 f1 ff ff 	mov    %rax,-0xe48(%rbp)
   101b0:	c7 85 54 f1 ff ff ca 	movl   $0xef44d4ca,-0xeac(%rbp)
   101b7:	d4 44 ef 
   101ba:	c7 85 68 f1 ff ff 5d 	movl   $0xe36bc85d,-0xe98(%rbp)
   101c1:	c8 6b e3 
   101c4:	c7 85 6c f1 ff ff 7d 	movl   $0x920b567d,-0xe94(%rbp)
   101cb:	56 0b 92 
   101ce:	c7 85 70 f1 ff ff 89 	movl   $0xc5aef289,-0xe90(%rbp)
   101d5:	f2 ae c5 
   101d8:	c7 85 74 f1 ff ff 3c 	movl   $0xb66c0a3c,-0xe8c(%rbp)
   101df:	0a 6c b6 
   101e2:	48 8d 05 d7 78 00 00 	lea    0x78d7(%rip),%rax        # 17ac0 <g_106>
   101e9:	48 89 85 e8 f1 ff ff 	mov    %rax,-0xe18(%rbp)
   101f0:	48 c7 85 10 f3 ff ff 	movq   $0x0,-0xcf0(%rbp)
   101f7:	00 00 00 00 
   101fb:	48 c7 85 18 f3 ff ff 	movq   $0x0,-0xce8(%rbp)
   10202:	00 00 00 00 
   10206:	48 c7 85 20 f3 ff ff 	movq   $0x0,-0xce0(%rbp)
   1020d:	00 00 00 00 
   10211:	48 c7 85 28 f3 ff ff 	movq   $0x0,-0xcd8(%rbp)
   10218:	00 00 00 00 
   1021c:	48 c7 85 30 f3 ff ff 	movq   $0x0,-0xcd0(%rbp)
   10223:	00 00 00 00 
   10227:	48 c7 85 38 f3 ff ff 	movq   $0x0,-0xcc8(%rbp)
   1022e:	00 00 00 00 
   10232:	48 c7 85 40 f3 ff ff 	movq   $0x0,-0xcc0(%rbp)
   10239:	00 00 00 00 
   1023d:	48 c7 85 48 f3 ff ff 	movq   $0x0,-0xcb8(%rbp)
   10244:	00 00 00 00 
   10248:	48 8d 85 30 f5 ff ff 	lea    -0xad0(%rbp),%rax
   1024f:	48 8d 15 0a 3a 00 00 	lea    0x3a0a(%rip),%rdx        # 13c60 <g_1644+0xb70>
   10256:	b9 64 00 00 00       	mov    $0x64,%ecx
   1025b:	48 89 c7             	mov    %rax,%rdi
   1025e:	48 89 d6             	mov    %rdx,%rsi
   10261:	f3 48 a5             	rep movsq %ds:(%rsi),%es:(%rdi)
   10264:	48 8d 05 8d 78 00 00 	lea    0x788d(%rip),%rax        # 17af8 <g_188+0x18>
   1026b:	48 89 85 f0 f1 ff ff 	mov    %rax,-0xe10(%rbp)
   10272:	48 b8 aa 4a 65 74 67 	movabs $0x6236556774654aaa,%rax
   10279:	55 36 62 
   1027c:	48 89 85 f8 f1 ff ff 	mov    %rax,-0xe08(%rbp)
   10283:	c7 85 4c f1 ff ff 1d 	movl   $0x1d,-0xeb4(%rbp)
   1028a:	00 00 00 
   1028d:	e9 03 01 00 00       	jmpq   10395 <func_74+0x5c8>
   10292:	c6 85 43 f1 ff ff 01 	movb   $0x1,-0xebd(%rbp)
   10299:	48 8d 05 98 6d 00 00 	lea    0x6d98(%rip),%rax        # 17038 <g_99>
   102a0:	48 89 85 50 f8 ff ff 	mov    %rax,-0x7b0(%rbp)
   102a7:	48 8d 05 8a 6d 00 00 	lea    0x6d8a(%rip),%rax        # 17038 <g_99>
   102ae:	48 89 85 58 f8 ff ff 	mov    %rax,-0x7a8(%rbp)
   102b5:	48 8d 05 7c 6d 00 00 	lea    0x6d7c(%rip),%rax        # 17038 <g_99>
   102bc:	48 89 85 60 f8 ff ff 	mov    %rax,-0x7a0(%rbp)
   102c3:	48 8d 05 6e 6d 00 00 	lea    0x6d6e(%rip),%rax        # 17038 <g_99>
   102ca:	48 89 85 68 f8 ff ff 	mov    %rax,-0x798(%rbp)
   102d1:	48 8d 05 f0 77 00 00 	lea    0x77f0(%rip),%rax        # 17ac8 <g_105>
   102d8:	48 89 85 50 f2 ff ff 	mov    %rax,-0xdb0(%rbp)
   102df:	48 8b 85 b8 f2 ff ff 	mov    -0xd48(%rbp),%rax
   102e6:	89 c1                	mov    %eax,%ecx
   102e8:	48 8b 85 b8 f2 ff ff 	mov    -0xd48(%rbp),%rax
   102ef:	89 c6                	mov    %eax,%esi
   102f1:	48 c7 85 b0 f1 ff ff 	movq   $0x0,-0xe50(%rbp)
   102f8:	00 00 00 00 
   102fc:	48 8b 95 b0 f1 ff ff 	mov    -0xe50(%rbp),%rdx
   10303:	48 8b 85 b8 f1 ff ff 	mov    -0xe48(%rbp),%rax
   1030a:	48 39 c2             	cmp    %rax,%rdx
   1030d:	0f 95 c0             	setne  %al
   10310:	31 f0                	xor    %esi,%eax
   10312:	0f b6 c0             	movzbl %al,%eax
   10315:	89 ce                	mov    %ecx,%esi
   10317:	89 c7                	mov    %eax,%edi
   10319:	e8 6f 29 ff ff       	callq  2c8d <safe_rshift_func_uint8_t_u_s>
   1031e:	0f b7 9d 3c f1 ff ff 	movzwl -0xec4(%rbp),%ebx
   10325:	0f b6 85 43 f1 ff ff 	movzbl -0xebd(%rbp),%eax
   1032c:	0f b6 c0             	movzbl %al,%eax
   1032f:	be 01 00 00 00       	mov    $0x1,%esi
   10334:	89 c7                	mov    %eax,%edi
   10336:	e8 1f 28 ff ff       	callq  2b5a <safe_add_func_uint8_t_u_u>
   1033b:	0f b6 d0             	movzbl %al,%edx
   1033e:	48 8b 85 b8 f2 ff ff 	mov    -0xd48(%rbp),%rax
   10345:	48 39 c2             	cmp    %rax,%rdx
   10348:	0f 9f c0             	setg   %al
   1034b:	0f b6 c0             	movzbl %al,%eax
   1034e:	89 de                	mov    %ebx,%esi
   10350:	89 c7                	mov    %eax,%edi
   10352:	e8 a8 23 ff ff       	callq  26ff <safe_div_func_int32_t_s_s>
   10357:	8b 95 50 f1 ff ff    	mov    -0xeb0(%rbp),%edx
   1035d:	21 d0                	and    %edx,%eax
   1035f:	89 85 50 f1 ff ff    	mov    %eax,-0xeb0(%rbp)
   10365:	48 c7 c6 fa ff ff ff 	mov    $0xfffffffffffffffa,%rsi
   1036c:	48 bf 2e c6 e9 e1 be 	movabs $0xf09f02bee1e9c62e,%rdi
   10373:	02 9f f0 
   10376:	e8 05 2d ff ff       	callq  3080 <safe_mod_func_uint64_t_u_u>
   1037b:	b8 01 00 00 00       	mov    $0x1,%eax
   10380:	89 85 50 f1 ff ff    	mov    %eax,-0xeb0(%rbp)
   10386:	8b 85 4c f1 ff ff    	mov    -0xeb4(%rbp),%eax
   1038c:	83 e8 01             	sub    $0x1,%eax
   1038f:	89 85 4c f1 ff ff    	mov    %eax,-0xeb4(%rbp)
   10395:	8b 85 4c f1 ff ff    	mov    -0xeb4(%rbp),%eax
   1039b:	85 c0                	test   %eax,%eax
   1039d:	0f 84 ef fe ff ff    	je     10292 <func_74+0x4c5>
   103a3:	48 c7 85 e0 f1 ff ff 	movq   $0x0,-0xe20(%rbp)
   103aa:	00 00 00 00 
   103ae:	e9 53 15 00 00       	jmpq   11906 <func_74+0x1b39>
   103b3:	48 8d 05 ba 6c 00 00 	lea    0x6cba(%rip),%rax        # 17074 <g_254>
   103ba:	48 89 85 00 f2 ff ff 	mov    %rax,-0xe00(%rbp)
   103c1:	c7 85 78 f1 ff ff 00 	movl   $0x0,-0xe88(%rbp)
   103c8:	00 00 00 
   103cb:	c7 85 7c f1 ff ff c9 	movl   $0xefa30dc9,-0xe84(%rbp)
   103d2:	0d a3 ef 
   103d5:	c7 85 50 f3 ff ff 01 	movl   $0x1,-0xcb0(%rbp)
   103dc:	00 00 00 
   103df:	c7 85 54 f3 ff ff 01 	movl   $0x1,-0xcac(%rbp)
   103e6:	00 00 00 
   103e9:	c7 85 58 f3 ff ff 4d 	movl   $0x876934d,-0xca8(%rbp)
   103f0:	93 76 08 
   103f3:	c7 85 5c f3 ff ff 01 	movl   $0x1,-0xca4(%rbp)
   103fa:	00 00 00 
   103fd:	c7 85 60 f3 ff ff 01 	movl   $0x1,-0xca0(%rbp)
   10404:	00 00 00 
   10407:	c7 85 64 f3 ff ff 4d 	movl   $0x876934d,-0xc9c(%rbp)
   1040e:	93 76 08 
   10411:	c7 85 68 f3 ff ff 01 	movl   $0x1,-0xc98(%rbp)
   10418:	00 00 00 
   1041b:	c7 85 6c f3 ff ff 01 	movl   $0x1,-0xc94(%rbp)
   10422:	00 00 00 
   10425:	c7 85 70 f3 ff ff 4d 	movl   $0x876934d,-0xc90(%rbp)
   1042c:	93 76 08 
   1042f:	c7 85 74 f3 ff ff 01 	movl   $0x1,-0xc8c(%rbp)
   10436:	00 00 00 
   10439:	c7 85 78 f3 ff ff 01 	movl   $0x1,-0xc88(%rbp)
   10440:	00 00 00 
   10443:	c7 85 7c f3 ff ff 4d 	movl   $0x876934d,-0xc84(%rbp)
   1044a:	93 76 08 
   1044d:	c7 85 80 f3 ff ff 01 	movl   $0x1,-0xc80(%rbp)
   10454:	00 00 00 
   10457:	c7 85 84 f3 ff ff 01 	movl   $0x1,-0xc7c(%rbp)
   1045e:	00 00 00 
   10461:	c7 85 88 f3 ff ff 4d 	movl   $0x876934d,-0xc78(%rbp)
   10468:	93 76 08 
   1046b:	c7 85 8c f3 ff ff 01 	movl   $0x1,-0xc74(%rbp)
   10472:	00 00 00 
   10475:	c7 85 90 f3 ff ff 01 	movl   $0x1,-0xc70(%rbp)
   1047c:	00 00 00 
   1047f:	c7 85 94 f3 ff ff 4d 	movl   $0x876934d,-0xc6c(%rbp)
   10486:	93 76 08 
   10489:	c7 85 98 f3 ff ff 01 	movl   $0x1,-0xc68(%rbp)
   10490:	00 00 00 
   10493:	c7 85 9c f3 ff ff 01 	movl   $0x1,-0xc64(%rbp)
   1049a:	00 00 00 
   1049d:	8b 85 58 f1 ff ff    	mov    -0xea8(%rbp),%eax
   104a3:	0f bf d8             	movswl %ax,%ebx
   104a6:	8b 05 c4 6b 00 00    	mov    0x6bc4(%rip),%eax        # 17070 <g_209>
   104ac:	0f b7 85 3c f1 ff ff 	movzwl -0xec4(%rbp),%eax
   104b3:	44 0f bf e0          	movswl %ax,%r12d
   104b7:	48 8b 85 30 f1 ff ff 	mov    -0xed0(%rbp),%rax
   104be:	0f b6 00             	movzbl (%rax),%eax
   104c1:	44 0f be e8          	movsbl %al,%r13d
   104c5:	8b 05 5d 6b 00 00    	mov    0x6b5d(%rip),%eax        # 17028 <g_52>
   104cb:	89 c2                	mov    %eax,%edx
   104cd:	0f b7 85 3c f1 ff ff 	movzwl -0xec4(%rbp),%eax
   104d4:	21 d0                	and    %edx,%eax
   104d6:	98                   	cwtl   
   104d7:	be f9 ff ff ff       	mov    $0xfffffff9,%esi
   104dc:	89 c7                	mov    %eax,%edi
   104de:	e8 33 1f ff ff       	callq  2416 <safe_mod_func_int16_t_s_s>
   104e3:	0f b6 d0             	movzbl %al,%edx
   104e6:	48 83 bd c0 f1 ff ff 	cmpq   $0x0,-0xe40(%rbp)
   104ed:	00 
   104ee:	0f 94 c1             	sete   %cl
   104f1:	8b 85 4c f1 ff ff    	mov    -0xeb4(%rbp),%eax
   104f7:	c1 e8 1f             	shr    $0x1f,%eax
   104fa:	31 c8                	xor    %ecx,%eax
   104fc:	0f b6 c0             	movzbl %al,%eax
   104ff:	89 d6                	mov    %edx,%esi
   10501:	89 c7                	mov    %eax,%edi
   10503:	e8 70 26 ff ff       	callq  2b78 <safe_sub_func_uint8_t_u_u>
   10508:	0f b6 c0             	movzbl %al,%eax
   1050b:	25 c1 ba 00 00       	and    $0xbac1,%eax
   10510:	48 89 c2             	mov    %rax,%rdx
   10513:	8b 85 4c f1 ff ff    	mov    -0xeb4(%rbp),%eax
   10519:	48 98                	cltq   
   1051b:	48 39 c2             	cmp    %rax,%rdx
   1051e:	0f 9d c0             	setge  %al
   10521:	0f b6 c0             	movzbl %al,%eax
   10524:	44 89 ee             	mov    %r13d,%esi
   10527:	89 c7                	mov    %eax,%edi
   10529:	e8 e4 1c ff ff       	callq  2212 <safe_mul_func_int8_t_s_s>
   1052e:	44 89 e6             	mov    %r12d,%esi
   10531:	bf 00 00 00 00       	mov    $0x0,%edi
   10536:	e8 db 1e ff ff       	callq  2416 <safe_mod_func_int16_t_s_s>
   1053b:	66 83 f8 f6          	cmp    $0xfff6,%ax
   1053f:	0f 9c c0             	setl   %al
   10542:	0f b6 d0             	movzbl %al,%edx
   10545:	48 8b 85 00 f2 ff ff 	mov    -0xe00(%rbp),%rax
   1054c:	0f b7 00             	movzwl (%rax),%eax
   1054f:	21 c2                	and    %eax,%edx
   10551:	48 8b 85 00 f2 ff ff 	mov    -0xe00(%rbp),%rax
   10558:	66 89 10             	mov    %dx,(%rax)
   1055b:	48 8b 85 00 f2 ff ff 	mov    -0xe00(%rbp),%rax
   10562:	0f b7 00             	movzwl (%rax),%eax
   10565:	98                   	cwtl   
   10566:	89 de                	mov    %ebx,%esi
   10568:	89 c7                	mov    %eax,%edi
   1056a:	e8 a7 1e ff ff       	callq  2416 <safe_mod_func_int16_t_s_s>
   1056f:	48 0f bf c0          	movswq %ax,%rax
   10573:	48 89 c7             	mov    %rax,%rdi
   10576:	e8 9e 2a ff ff       	callq  3019 <safe_unary_minus_func_uint64_t_u>
   1057b:	0f be c0             	movsbl %al,%eax
   1057e:	be ff ff ff ff       	mov    $0xffffffff,%esi
   10583:	89 c7                	mov    %eax,%edi
   10585:	e8 4a 1c ff ff       	callq  21d4 <safe_add_func_int8_t_s_s>
   1058a:	be 04 00 00 00       	mov    $0x4,%esi
   1058f:	bf d4 00 00 00       	mov    $0xd4,%edi
   10594:	e8 6c 26 ff ff       	callq  2c05 <safe_lshift_func_uint8_t_u_s>
   10599:	c6 85 41 f1 ff ff 11 	movb   $0x11,-0xebf(%rbp)
   105a0:	66 c7 05 cb 6a 00 00 	movw   $0x4,0x6acb(%rip)        # 17074 <g_254>
   105a7:	04 00 
   105a9:	e9 db 0e 00 00       	jmpq   11489 <func_74+0x16bc>
   105ae:	48 8d 85 50 f1 ff ff 	lea    -0xeb0(%rbp),%rax
   105b5:	48 89 85 08 f2 ff ff 	mov    %rax,-0xdf8(%rbp)
   105bc:	48 8d 05 75 6a 00 00 	lea    0x6a75(%rip),%rax        # 17038 <g_99>
   105c3:	48 89 85 10 f2 ff ff 	mov    %rax,-0xdf0(%rbp)
   105ca:	48 8d 85 50 f1 ff ff 	lea    -0xeb0(%rbp),%rax
   105d1:	48 89 85 18 f2 ff ff 	mov    %rax,-0xde8(%rbp)
   105d8:	48 8d 05 59 6a 00 00 	lea    0x6a59(%rip),%rax        # 17038 <g_99>
   105df:	48 89 85 20 f2 ff ff 	mov    %rax,-0xde0(%rbp)
   105e6:	48 8d 85 4c f1 ff ff 	lea    -0xeb4(%rbp),%rax
   105ed:	48 89 85 28 f2 ff ff 	mov    %rax,-0xdd8(%rbp)
   105f4:	48 8d 85 50 f1 ff ff 	lea    -0xeb0(%rbp),%rax
   105fb:	48 89 85 30 f2 ff ff 	mov    %rax,-0xdd0(%rbp)
   10602:	48 c7 85 38 f2 ff ff 	movq   $0x0,-0xdc8(%rbp)
   10609:	00 00 00 00 
   1060d:	48 c7 85 40 f2 ff ff 	movq   $0x0,-0xdc0(%rbp)
   10614:	00 00 00 00 
   10618:	48 8d 05 09 6a 00 00 	lea    0x6a09(%rip),%rax        # 17028 <g_52>
   1061f:	48 89 85 a0 f3 ff ff 	mov    %rax,-0xc60(%rbp)
   10626:	48 8d 85 50 f1 ff ff 	lea    -0xeb0(%rbp),%rax
   1062d:	48 89 85 a8 f3 ff ff 	mov    %rax,-0xc58(%rbp)
   10634:	48 8d 05 ed 69 00 00 	lea    0x69ed(%rip),%rax        # 17028 <g_52>
   1063b:	48 89 85 b0 f3 ff ff 	mov    %rax,-0xc50(%rbp)
   10642:	48 8d 85 50 f1 ff ff 	lea    -0xeb0(%rbp),%rax
   10649:	48 89 85 b8 f3 ff ff 	mov    %rax,-0xc48(%rbp)
   10650:	48 8d 05 d1 69 00 00 	lea    0x69d1(%rip),%rax        # 17028 <g_52>
   10657:	48 89 85 c0 f3 ff ff 	mov    %rax,-0xc40(%rbp)
   1065e:	48 8d 85 50 f1 ff ff 	lea    -0xeb0(%rbp),%rax
   10665:	48 89 85 c8 f3 ff ff 	mov    %rax,-0xc38(%rbp)
   1066c:	48 8d 05 b5 69 00 00 	lea    0x69b5(%rip),%rax        # 17028 <g_52>
   10673:	48 89 85 d0 f3 ff ff 	mov    %rax,-0xc30(%rbp)
   1067a:	48 8d 85 50 f1 ff ff 	lea    -0xeb0(%rbp),%rax
   10681:	48 89 85 d8 f3 ff ff 	mov    %rax,-0xc28(%rbp)
   10688:	48 8d 05 99 69 00 00 	lea    0x6999(%rip),%rax        # 17028 <g_52>
   1068f:	48 89 85 e0 f3 ff ff 	mov    %rax,-0xc20(%rbp)
   10696:	48 8d 85 50 f1 ff ff 	lea    -0xeb0(%rbp),%rax
   1069d:	48 89 85 e8 f3 ff ff 	mov    %rax,-0xc18(%rbp)
   106a4:	48 8d 85 b8 f1 ff ff 	lea    -0xe48(%rbp),%rax
   106ab:	48 89 85 50 f8 ff ff 	mov    %rax,-0x7b0(%rbp)
   106b2:	48 8d 05 1f 74 00 00 	lea    0x741f(%rip),%rax        # 17ad8 <g_189>
   106b9:	48 89 85 58 f8 ff ff 	mov    %rax,-0x7a8(%rbp)
   106c0:	48 8d 05 11 74 00 00 	lea    0x7411(%rip),%rax        # 17ad8 <g_189>
   106c7:	48 89 85 60 f8 ff ff 	mov    %rax,-0x7a0(%rbp)
   106ce:	48 8d 85 b8 f1 ff ff 	lea    -0xe48(%rbp),%rax
   106d5:	48 89 85 68 f8 ff ff 	mov    %rax,-0x798(%rbp)
   106dc:	48 8d 85 b8 f1 ff ff 	lea    -0xe48(%rbp),%rax
   106e3:	48 89 85 70 f8 ff ff 	mov    %rax,-0x790(%rbp)
   106ea:	48 8d 85 b8 f1 ff ff 	lea    -0xe48(%rbp),%rax
   106f1:	48 89 85 78 f8 ff ff 	mov    %rax,-0x788(%rbp)
   106f8:	48 8d 85 b8 f1 ff ff 	lea    -0xe48(%rbp),%rax
   106ff:	48 89 85 80 f8 ff ff 	mov    %rax,-0x780(%rbp)
   10706:	48 8d 85 b0 f1 ff ff 	lea    -0xe50(%rbp),%rax
   1070d:	48 89 85 88 f8 ff ff 	mov    %rax,-0x778(%rbp)
   10714:	48 8d 85 b8 f1 ff ff 	lea    -0xe48(%rbp),%rax
   1071b:	48 89 85 90 f8 ff ff 	mov    %rax,-0x770(%rbp)
   10722:	48 8d 85 b0 f1 ff ff 	lea    -0xe50(%rbp),%rax
   10729:	48 89 85 98 f8 ff ff 	mov    %rax,-0x768(%rbp)
   10730:	48 8d 85 b0 f1 ff ff 	lea    -0xe50(%rbp),%rax
   10737:	48 89 85 a0 f8 ff ff 	mov    %rax,-0x760(%rbp)
   1073e:	48 8d 85 b8 f1 ff ff 	lea    -0xe48(%rbp),%rax
   10745:	48 89 85 a8 f8 ff ff 	mov    %rax,-0x758(%rbp)
   1074c:	48 8d 85 b0 f1 ff ff 	lea    -0xe50(%rbp),%rax
   10753:	48 89 85 b0 f8 ff ff 	mov    %rax,-0x750(%rbp)
   1075a:	48 8d 85 b8 f1 ff ff 	lea    -0xe48(%rbp),%rax
   10761:	48 89 85 b8 f8 ff ff 	mov    %rax,-0x748(%rbp)
   10768:	48 8d 85 b0 f1 ff ff 	lea    -0xe50(%rbp),%rax
   1076f:	48 89 85 c0 f8 ff ff 	mov    %rax,-0x740(%rbp)
   10776:	48 8d 85 b0 f1 ff ff 	lea    -0xe50(%rbp),%rax
   1077d:	48 89 85 c8 f8 ff ff 	mov    %rax,-0x738(%rbp)
   10784:	48 8d 05 4d 73 00 00 	lea    0x734d(%rip),%rax        # 17ad8 <g_189>
   1078b:	48 89 85 d0 f8 ff ff 	mov    %rax,-0x730(%rbp)
   10792:	48 8d 85 b0 f1 ff ff 	lea    -0xe50(%rbp),%rax
   10799:	48 89 85 d8 f8 ff ff 	mov    %rax,-0x728(%rbp)
   107a0:	48 8d 85 b0 f1 ff ff 	lea    -0xe50(%rbp),%rax
   107a7:	48 89 85 e0 f8 ff ff 	mov    %rax,-0x720(%rbp)
   107ae:	48 8d 85 b0 f1 ff ff 	lea    -0xe50(%rbp),%rax
   107b5:	48 89 85 e8 f8 ff ff 	mov    %rax,-0x718(%rbp)
   107bc:	48 8d 85 b0 f1 ff ff 	lea    -0xe50(%rbp),%rax
   107c3:	48 89 85 f0 f8 ff ff 	mov    %rax,-0x710(%rbp)
   107ca:	48 8d 85 b8 f1 ff ff 	lea    -0xe48(%rbp),%rax
   107d1:	48 89 85 f8 f8 ff ff 	mov    %rax,-0x708(%rbp)
   107d8:	48 8d 85 b0 f1 ff ff 	lea    -0xe50(%rbp),%rax
   107df:	48 89 85 00 f9 ff ff 	mov    %rax,-0x700(%rbp)
   107e6:	48 8d 85 b0 f1 ff ff 	lea    -0xe50(%rbp),%rax
   107ed:	48 89 85 08 f9 ff ff 	mov    %rax,-0x6f8(%rbp)
   107f4:	48 8d 85 b0 f1 ff ff 	lea    -0xe50(%rbp),%rax
   107fb:	48 89 85 10 f9 ff ff 	mov    %rax,-0x6f0(%rbp)
   10802:	48 8d 05 cf 72 00 00 	lea    0x72cf(%rip),%rax        # 17ad8 <g_189>
   10809:	48 89 85 18 f9 ff ff 	mov    %rax,-0x6e8(%rbp)
   10810:	48 8d 85 b8 f1 ff ff 	lea    -0xe48(%rbp),%rax
   10817:	48 89 85 20 f9 ff ff 	mov    %rax,-0x6e0(%rbp)
   1081e:	48 8d 85 b8 f1 ff ff 	lea    -0xe48(%rbp),%rax
   10825:	48 89 85 28 f9 ff ff 	mov    %rax,-0x6d8(%rbp)
   1082c:	48 8d 05 a5 72 00 00 	lea    0x72a5(%rip),%rax        # 17ad8 <g_189>
   10833:	48 89 85 30 f9 ff ff 	mov    %rax,-0x6d0(%rbp)
   1083a:	48 8d 85 b0 f1 ff ff 	lea    -0xe50(%rbp),%rax
   10841:	48 89 85 38 f9 ff ff 	mov    %rax,-0x6c8(%rbp)
   10848:	48 8d 85 b0 f1 ff ff 	lea    -0xe50(%rbp),%rax
   1084f:	48 89 85 40 f9 ff ff 	mov    %rax,-0x6c0(%rbp)
   10856:	48 8d 85 b0 f1 ff ff 	lea    -0xe50(%rbp),%rax
   1085d:	48 89 85 48 f9 ff ff 	mov    %rax,-0x6b8(%rbp)
   10864:	48 8d 85 b8 f1 ff ff 	lea    -0xe48(%rbp),%rax
   1086b:	48 89 85 50 f9 ff ff 	mov    %rax,-0x6b0(%rbp)
   10872:	48 8d 85 b8 f1 ff ff 	lea    -0xe48(%rbp),%rax
   10879:	48 89 85 58 f9 ff ff 	mov    %rax,-0x6a8(%rbp)
   10880:	48 8d 85 b0 f1 ff ff 	lea    -0xe50(%rbp),%rax
   10887:	48 89 85 60 f9 ff ff 	mov    %rax,-0x6a0(%rbp)
   1088e:	48 8d 85 b8 f1 ff ff 	lea    -0xe48(%rbp),%rax
   10895:	48 89 85 68 f9 ff ff 	mov    %rax,-0x698(%rbp)
   1089c:	48 8d 85 b0 f1 ff ff 	lea    -0xe50(%rbp),%rax
   108a3:	48 89 85 70 f9 ff ff 	mov    %rax,-0x690(%rbp)
   108aa:	48 8d 85 b8 f1 ff ff 	lea    -0xe48(%rbp),%rax
   108b1:	48 89 85 78 f9 ff ff 	mov    %rax,-0x688(%rbp)
   108b8:	48 8d 85 b0 f1 ff ff 	lea    -0xe50(%rbp),%rax
   108bf:	48 89 85 80 f9 ff ff 	mov    %rax,-0x680(%rbp)
   108c6:	48 8d 85 b8 f1 ff ff 	lea    -0xe48(%rbp),%rax
   108cd:	48 89 85 88 f9 ff ff 	mov    %rax,-0x678(%rbp)
   108d4:	48 8d 85 b0 f1 ff ff 	lea    -0xe50(%rbp),%rax
   108db:	48 89 85 90 f9 ff ff 	mov    %rax,-0x670(%rbp)
   108e2:	48 8d 85 b8 f1 ff ff 	lea    -0xe48(%rbp),%rax
   108e9:	48 89 85 98 f9 ff ff 	mov    %rax,-0x668(%rbp)
   108f0:	48 8d 85 b0 f1 ff ff 	lea    -0xe50(%rbp),%rax
   108f7:	48 89 85 a0 f9 ff ff 	mov    %rax,-0x660(%rbp)
   108fe:	48 8d 85 b8 f1 ff ff 	lea    -0xe48(%rbp),%rax
   10905:	48 89 85 a8 f9 ff ff 	mov    %rax,-0x658(%rbp)
   1090c:	48 8d 85 b0 f1 ff ff 	lea    -0xe50(%rbp),%rax
   10913:	48 89 85 b0 f9 ff ff 	mov    %rax,-0x650(%rbp)
   1091a:	48 8d 85 b8 f1 ff ff 	lea    -0xe48(%rbp),%rax
   10921:	48 89 85 b8 f9 ff ff 	mov    %rax,-0x648(%rbp)
   10928:	48 8d 85 b8 f1 ff ff 	lea    -0xe48(%rbp),%rax
   1092f:	48 89 85 c0 f9 ff ff 	mov    %rax,-0x640(%rbp)
   10936:	48 8d 85 b0 f1 ff ff 	lea    -0xe50(%rbp),%rax
   1093d:	48 89 85 c8 f9 ff ff 	mov    %rax,-0x638(%rbp)
   10944:	48 8d 85 b0 f1 ff ff 	lea    -0xe50(%rbp),%rax
   1094b:	48 89 85 d0 f9 ff ff 	mov    %rax,-0x630(%rbp)
   10952:	48 8d 85 b0 f1 ff ff 	lea    -0xe50(%rbp),%rax
   10959:	48 89 85 d8 f9 ff ff 	mov    %rax,-0x628(%rbp)
   10960:	48 8d 05 71 71 00 00 	lea    0x7171(%rip),%rax        # 17ad8 <g_189>
   10967:	48 89 85 e0 f9 ff ff 	mov    %rax,-0x620(%rbp)
   1096e:	48 8d 85 b8 f1 ff ff 	lea    -0xe48(%rbp),%rax
   10975:	48 89 85 e8 f9 ff ff 	mov    %rax,-0x618(%rbp)
   1097c:	48 8d 85 b8 f1 ff ff 	lea    -0xe48(%rbp),%rax
   10983:	48 89 85 f0 f9 ff ff 	mov    %rax,-0x610(%rbp)
   1098a:	48 8d 05 47 71 00 00 	lea    0x7147(%rip),%rax        # 17ad8 <g_189>
   10991:	48 89 85 f8 f9 ff ff 	mov    %rax,-0x608(%rbp)
   10998:	48 8d 85 b0 f1 ff ff 	lea    -0xe50(%rbp),%rax
   1099f:	48 89 85 00 fa ff ff 	mov    %rax,-0x600(%rbp)
   109a6:	48 8d 85 b0 f1 ff ff 	lea    -0xe50(%rbp),%rax
   109ad:	48 89 85 08 fa ff ff 	mov    %rax,-0x5f8(%rbp)
   109b4:	48 8d 85 b0 f1 ff ff 	lea    -0xe50(%rbp),%rax
   109bb:	48 89 85 10 fa ff ff 	mov    %rax,-0x5f0(%rbp)
   109c2:	48 8d 85 b8 f1 ff ff 	lea    -0xe48(%rbp),%rax
   109c9:	48 89 85 18 fa ff ff 	mov    %rax,-0x5e8(%rbp)
   109d0:	48 8d 85 b0 f1 ff ff 	lea    -0xe50(%rbp),%rax
   109d7:	48 89 85 20 fa ff ff 	mov    %rax,-0x5e0(%rbp)
   109de:	48 8d 85 b0 f1 ff ff 	lea    -0xe50(%rbp),%rax
   109e5:	48 89 85 28 fa ff ff 	mov    %rax,-0x5d8(%rbp)
   109ec:	48 8d 85 b0 f1 ff ff 	lea    -0xe50(%rbp),%rax
   109f3:	48 89 85 30 fa ff ff 	mov    %rax,-0x5d0(%rbp)
   109fa:	48 8d 85 b0 f1 ff ff 	lea    -0xe50(%rbp),%rax
   10a01:	48 89 85 38 fa ff ff 	mov    %rax,-0x5c8(%rbp)
   10a08:	48 8d 05 c9 70 00 00 	lea    0x70c9(%rip),%rax        # 17ad8 <g_189>
   10a0f:	48 89 85 40 fa ff ff 	mov    %rax,-0x5c0(%rbp)
   10a16:	48 8d 85 b0 f1 ff ff 	lea    -0xe50(%rbp),%rax
   10a1d:	48 89 85 48 fa ff ff 	mov    %rax,-0x5b8(%rbp)
   10a24:	48 8d 85 b0 f1 ff ff 	lea    -0xe50(%rbp),%rax
   10a2b:	48 89 85 50 fa ff ff 	mov    %rax,-0x5b0(%rbp)
   10a32:	48 8d 85 b8 f1 ff ff 	lea    -0xe48(%rbp),%rax
   10a39:	48 89 85 58 fa ff ff 	mov    %rax,-0x5a8(%rbp)
   10a40:	48 8d 85 b0 f1 ff ff 	lea    -0xe50(%rbp),%rax
   10a47:	48 89 85 60 fa ff ff 	mov    %rax,-0x5a0(%rbp)
   10a4e:	48 8d 85 b8 f1 ff ff 	lea    -0xe48(%rbp),%rax
   10a55:	48 89 85 68 fa ff ff 	mov    %rax,-0x598(%rbp)
   10a5c:	48 8d 85 b0 f1 ff ff 	lea    -0xe50(%rbp),%rax
   10a63:	48 89 85 70 fa ff ff 	mov    %rax,-0x590(%rbp)
   10a6a:	48 8d 85 b0 f1 ff ff 	lea    -0xe50(%rbp),%rax
   10a71:	48 89 85 78 fa ff ff 	mov    %rax,-0x588(%rbp)
   10a78:	48 8d 85 b8 f1 ff ff 	lea    -0xe48(%rbp),%rax
   10a7f:	48 89 85 80 fa ff ff 	mov    %rax,-0x580(%rbp)
   10a86:	48 8d 85 b0 f1 ff ff 	lea    -0xe50(%rbp),%rax
   10a8d:	48 89 85 88 fa ff ff 	mov    %rax,-0x578(%rbp)
   10a94:	48 8d 85 b8 f1 ff ff 	lea    -0xe48(%rbp),%rax
   10a9b:	48 89 85 90 fa ff ff 	mov    %rax,-0x570(%rbp)
   10aa2:	48 8d 85 b8 f1 ff ff 	lea    -0xe48(%rbp),%rax
   10aa9:	48 89 85 98 fa ff ff 	mov    %rax,-0x568(%rbp)
   10ab0:	48 8d 85 b8 f1 ff ff 	lea    -0xe48(%rbp),%rax
   10ab7:	48 89 85 a0 fa ff ff 	mov    %rax,-0x560(%rbp)
   10abe:	48 8d 85 b8 f1 ff ff 	lea    -0xe48(%rbp),%rax
   10ac5:	48 89 85 a8 fa ff ff 	mov    %rax,-0x558(%rbp)
   10acc:	48 8d 05 05 70 00 00 	lea    0x7005(%rip),%rax        # 17ad8 <g_189>
   10ad3:	48 89 85 b0 fa ff ff 	mov    %rax,-0x550(%rbp)
   10ada:	48 8d 05 f7 6f 00 00 	lea    0x6ff7(%rip),%rax        # 17ad8 <g_189>
   10ae1:	48 89 85 b8 fa ff ff 	mov    %rax,-0x548(%rbp)
   10ae8:	48 8d 85 b8 f1 ff ff 	lea    -0xe48(%rbp),%rax
   10aef:	48 89 85 c0 fa ff ff 	mov    %rax,-0x540(%rbp)
   10af6:	48 8d 85 b8 f1 ff ff 	lea    -0xe48(%rbp),%rax
   10afd:	48 89 85 c8 fa ff ff 	mov    %rax,-0x538(%rbp)
   10b04:	48 8d 85 b0 f1 ff ff 	lea    -0xe50(%rbp),%rax
   10b0b:	48 89 85 d0 fa ff ff 	mov    %rax,-0x530(%rbp)
   10b12:	48 8d 85 b0 f1 ff ff 	lea    -0xe50(%rbp),%rax
   10b19:	48 89 85 d8 fa ff ff 	mov    %rax,-0x528(%rbp)
   10b20:	48 8d 85 b8 f1 ff ff 	lea    -0xe48(%rbp),%rax
   10b27:	48 89 85 e0 fa ff ff 	mov    %rax,-0x520(%rbp)
   10b2e:	48 8d 85 b0 f1 ff ff 	lea    -0xe50(%rbp),%rax
   10b35:	48 89 85 e8 fa ff ff 	mov    %rax,-0x518(%rbp)
   10b3c:	48 8d 85 b0 f1 ff ff 	lea    -0xe50(%rbp),%rax
   10b43:	48 89 85 f0 fa ff ff 	mov    %rax,-0x510(%rbp)
   10b4a:	48 8d 85 b8 f1 ff ff 	lea    -0xe48(%rbp),%rax
   10b51:	48 89 85 f8 fa ff ff 	mov    %rax,-0x508(%rbp)
   10b58:	48 8d 85 b8 f1 ff ff 	lea    -0xe48(%rbp),%rax
   10b5f:	48 89 85 00 fb ff ff 	mov    %rax,-0x500(%rbp)
   10b66:	48 8d 85 b8 f1 ff ff 	lea    -0xe48(%rbp),%rax
   10b6d:	48 89 85 08 fb ff ff 	mov    %rax,-0x4f8(%rbp)
   10b74:	48 8d 05 5d 6f 00 00 	lea    0x6f5d(%rip),%rax        # 17ad8 <g_189>
   10b7b:	48 89 85 10 fb ff ff 	mov    %rax,-0x4f0(%rbp)
   10b82:	48 8d 85 b8 f1 ff ff 	lea    -0xe48(%rbp),%rax
   10b89:	48 89 85 18 fb ff ff 	mov    %rax,-0x4e8(%rbp)
   10b90:	48 8d 85 b0 f1 ff ff 	lea    -0xe50(%rbp),%rax
   10b97:	48 89 85 20 fb ff ff 	mov    %rax,-0x4e0(%rbp)
   10b9e:	48 8d 85 b0 f1 ff ff 	lea    -0xe50(%rbp),%rax
   10ba5:	48 89 85 28 fb ff ff 	mov    %rax,-0x4d8(%rbp)
   10bac:	48 8d 85 b0 f1 ff ff 	lea    -0xe50(%rbp),%rax
   10bb3:	48 89 85 30 fb ff ff 	mov    %rax,-0x4d0(%rbp)
   10bba:	48 8d 85 b8 f1 ff ff 	lea    -0xe48(%rbp),%rax
   10bc1:	48 89 85 38 fb ff ff 	mov    %rax,-0x4c8(%rbp)
   10bc8:	48 8d 05 09 6f 00 00 	lea    0x6f09(%rip),%rax        # 17ad8 <g_189>
   10bcf:	48 89 85 40 fb ff ff 	mov    %rax,-0x4c0(%rbp)
   10bd6:	48 8d 85 b8 f1 ff ff 	lea    -0xe48(%rbp),%rax
   10bdd:	48 89 85 48 fb ff ff 	mov    %rax,-0x4b8(%rbp)
   10be4:	48 8d 85 b8 f1 ff ff 	lea    -0xe48(%rbp),%rax
   10beb:	48 89 85 50 fb ff ff 	mov    %rax,-0x4b0(%rbp)
   10bf2:	48 8d 85 b8 f1 ff ff 	lea    -0xe48(%rbp),%rax
   10bf9:	48 89 85 58 fb ff ff 	mov    %rax,-0x4a8(%rbp)
   10c00:	48 8d 85 b0 f1 ff ff 	lea    -0xe50(%rbp),%rax
   10c07:	48 89 85 60 fb ff ff 	mov    %rax,-0x4a0(%rbp)
   10c0e:	48 8d 85 b0 f1 ff ff 	lea    -0xe50(%rbp),%rax
   10c15:	48 89 85 68 fb ff ff 	mov    %rax,-0x498(%rbp)
   10c1c:	48 8d 85 b8 f1 ff ff 	lea    -0xe48(%rbp),%rax
   10c23:	48 89 85 70 fb ff ff 	mov    %rax,-0x490(%rbp)
   10c2a:	48 8d 85 b0 f1 ff ff 	lea    -0xe50(%rbp),%rax
   10c31:	48 89 85 78 fb ff ff 	mov    %rax,-0x488(%rbp)
   10c38:	48 8d 85 b0 f1 ff ff 	lea    -0xe50(%rbp),%rax
   10c3f:	48 89 85 80 fb ff ff 	mov    %rax,-0x480(%rbp)
   10c46:	48 8d 85 b8 f1 ff ff 	lea    -0xe48(%rbp),%rax
   10c4d:	48 89 85 88 fb ff ff 	mov    %rax,-0x478(%rbp)
   10c54:	48 8d 85 b8 f1 ff ff 	lea    -0xe48(%rbp),%rax
   10c5b:	48 89 85 90 fb ff ff 	mov    %rax,-0x470(%rbp)
   10c62:	48 8d 05 6f 6e 00 00 	lea    0x6e6f(%rip),%rax        # 17ad8 <g_189>
   10c69:	48 89 85 98 fb ff ff 	mov    %rax,-0x468(%rbp)
   10c70:	48 8d 05 61 6e 00 00 	lea    0x6e61(%rip),%rax        # 17ad8 <g_189>
   10c77:	48 89 85 a0 fb ff ff 	mov    %rax,-0x460(%rbp)
   10c7e:	48 8d 85 b8 f1 ff ff 	lea    -0xe48(%rbp),%rax
   10c85:	48 89 85 a8 fb ff ff 	mov    %rax,-0x458(%rbp)
   10c8c:	48 8d 85 b8 f1 ff ff 	lea    -0xe48(%rbp),%rax
   10c93:	48 89 85 b0 fb ff ff 	mov    %rax,-0x450(%rbp)
   10c9a:	48 8d 85 b8 f1 ff ff 	lea    -0xe48(%rbp),%rax
   10ca1:	48 89 85 b8 fb ff ff 	mov    %rax,-0x448(%rbp)
   10ca8:	48 8d 85 b8 f1 ff ff 	lea    -0xe48(%rbp),%rax
   10caf:	48 89 85 c0 fb ff ff 	mov    %rax,-0x440(%rbp)
   10cb6:	48 8d 85 b0 f1 ff ff 	lea    -0xe50(%rbp),%rax
   10cbd:	48 89 85 c8 fb ff ff 	mov    %rax,-0x438(%rbp)
   10cc4:	48 8d 85 b8 f1 ff ff 	lea    -0xe48(%rbp),%rax
   10ccb:	48 89 85 d0 fb ff ff 	mov    %rax,-0x430(%rbp)
   10cd2:	48 8d 85 b0 f1 ff ff 	lea    -0xe50(%rbp),%rax
   10cd9:	48 89 85 d8 fb ff ff 	mov    %rax,-0x428(%rbp)
   10ce0:	48 8d 85 b0 f1 ff ff 	lea    -0xe50(%rbp),%rax
   10ce7:	48 89 85 e0 fb ff ff 	mov    %rax,-0x420(%rbp)
   10cee:	48 8d 85 b8 f1 ff ff 	lea    -0xe48(%rbp),%rax
   10cf5:	48 89 85 e8 fb ff ff 	mov    %rax,-0x418(%rbp)
   10cfc:	48 8d 85 b0 f1 ff ff 	lea    -0xe50(%rbp),%rax
   10d03:	48 89 85 f0 fb ff ff 	mov    %rax,-0x410(%rbp)
   10d0a:	48 8d 85 b8 f1 ff ff 	lea    -0xe48(%rbp),%rax
   10d11:	48 89 85 f8 fb ff ff 	mov    %rax,-0x408(%rbp)
   10d18:	48 8d 85 b0 f1 ff ff 	lea    -0xe50(%rbp),%rax
   10d1f:	48 89 85 00 fc ff ff 	mov    %rax,-0x400(%rbp)
   10d26:	48 8d 85 b0 f1 ff ff 	lea    -0xe50(%rbp),%rax
   10d2d:	48 89 85 08 fc ff ff 	mov    %rax,-0x3f8(%rbp)
   10d34:	48 8d 05 9d 6d 00 00 	lea    0x6d9d(%rip),%rax        # 17ad8 <g_189>
   10d3b:	48 89 85 10 fc ff ff 	mov    %rax,-0x3f0(%rbp)
   10d42:	48 8d 85 b0 f1 ff ff 	lea    -0xe50(%rbp),%rax
   10d49:	48 89 85 18 fc ff ff 	mov    %rax,-0x3e8(%rbp)
   10d50:	48 8d 85 b0 f1 ff ff 	lea    -0xe50(%rbp),%rax
   10d57:	48 89 85 20 fc ff ff 	mov    %rax,-0x3e0(%rbp)
   10d5e:	48 8d 85 b0 f1 ff ff 	lea    -0xe50(%rbp),%rax
   10d65:	48 89 85 28 fc ff ff 	mov    %rax,-0x3d8(%rbp)
   10d6c:	48 8d 85 b0 f1 ff ff 	lea    -0xe50(%rbp),%rax
   10d73:	48 89 85 30 fc ff ff 	mov    %rax,-0x3d0(%rbp)
   10d7a:	48 8d 85 b8 f1 ff ff 	lea    -0xe48(%rbp),%rax
   10d81:	48 89 85 38 fc ff ff 	mov    %rax,-0x3c8(%rbp)
   10d88:	48 8d 85 b0 f1 ff ff 	lea    -0xe50(%rbp),%rax
   10d8f:	48 89 85 40 fc ff ff 	mov    %rax,-0x3c0(%rbp)
   10d96:	48 8d 85 b0 f1 ff ff 	lea    -0xe50(%rbp),%rax
   10d9d:	48 89 85 48 fc ff ff 	mov    %rax,-0x3b8(%rbp)
   10da4:	48 8d 85 b0 f1 ff ff 	lea    -0xe50(%rbp),%rax
   10dab:	48 89 85 50 fc ff ff 	mov    %rax,-0x3b0(%rbp)
   10db2:	48 8d 05 1f 6d 00 00 	lea    0x6d1f(%rip),%rax        # 17ad8 <g_189>
   10db9:	48 89 85 58 fc ff ff 	mov    %rax,-0x3a8(%rbp)
   10dc0:	48 8d 05 11 6d 00 00 	lea    0x6d11(%rip),%rax        # 17ad8 <g_189>
   10dc7:	48 89 85 60 fc ff ff 	mov    %rax,-0x3a0(%rbp)
   10dce:	48 8d 05 03 6d 00 00 	lea    0x6d03(%rip),%rax        # 17ad8 <g_189>
   10dd5:	48 89 85 68 fc ff ff 	mov    %rax,-0x398(%rbp)
   10ddc:	48 8d 85 b8 f1 ff ff 	lea    -0xe48(%rbp),%rax
   10de3:	48 89 85 70 fc ff ff 	mov    %rax,-0x390(%rbp)
   10dea:	48 8d 85 b8 f1 ff ff 	lea    -0xe48(%rbp),%rax
   10df1:	48 89 85 78 fc ff ff 	mov    %rax,-0x388(%rbp)
   10df8:	48 8d 85 b8 f1 ff ff 	lea    -0xe48(%rbp),%rax
   10dff:	48 89 85 80 fc ff ff 	mov    %rax,-0x380(%rbp)
   10e06:	48 8d 85 b8 f1 ff ff 	lea    -0xe48(%rbp),%rax
   10e0d:	48 89 85 88 fc ff ff 	mov    %rax,-0x378(%rbp)
   10e14:	48 8d 85 b0 f1 ff ff 	lea    -0xe50(%rbp),%rax
   10e1b:	48 89 85 90 fc ff ff 	mov    %rax,-0x370(%rbp)
   10e22:	48 8d 05 af 6c 00 00 	lea    0x6caf(%rip),%rax        # 17ad8 <g_189>
   10e29:	48 89 85 98 fc ff ff 	mov    %rax,-0x368(%rbp)
   10e30:	48 8d 85 b8 f1 ff ff 	lea    -0xe48(%rbp),%rax
   10e37:	48 89 85 a0 fc ff ff 	mov    %rax,-0x360(%rbp)
   10e3e:	48 8d 85 b0 f1 ff ff 	lea    -0xe50(%rbp),%rax
   10e45:	48 89 85 a8 fc ff ff 	mov    %rax,-0x358(%rbp)
   10e4c:	48 8d 85 b8 f1 ff ff 	lea    -0xe48(%rbp),%rax
   10e53:	48 89 85 b0 fc ff ff 	mov    %rax,-0x350(%rbp)
   10e5a:	48 8d 85 b0 f1 ff ff 	lea    -0xe50(%rbp),%rax
   10e61:	48 89 85 b8 fc ff ff 	mov    %rax,-0x348(%rbp)
   10e68:	48 8d 85 b8 f1 ff ff 	lea    -0xe48(%rbp),%rax
   10e6f:	48 89 85 c0 fc ff ff 	mov    %rax,-0x340(%rbp)
   10e76:	48 8d 85 b0 f1 ff ff 	lea    -0xe50(%rbp),%rax
   10e7d:	48 89 85 c8 fc ff ff 	mov    %rax,-0x338(%rbp)
   10e84:	48 8d 85 b8 f1 ff ff 	lea    -0xe48(%rbp),%rax
   10e8b:	48 89 85 d0 fc ff ff 	mov    %rax,-0x330(%rbp)
   10e92:	48 8d 85 b0 f1 ff ff 	lea    -0xe50(%rbp),%rax
   10e99:	48 89 85 d8 fc ff ff 	mov    %rax,-0x328(%rbp)
   10ea0:	48 8d 85 b8 f1 ff ff 	lea    -0xe48(%rbp),%rax
   10ea7:	48 89 85 e0 fc ff ff 	mov    %rax,-0x320(%rbp)
   10eae:	48 8d 85 b0 f1 ff ff 	lea    -0xe50(%rbp),%rax
   10eb5:	48 89 85 e8 fc ff ff 	mov    %rax,-0x318(%rbp)
   10ebc:	48 8d 85 b8 f1 ff ff 	lea    -0xe48(%rbp),%rax
   10ec3:	48 89 85 f0 fc ff ff 	mov    %rax,-0x310(%rbp)
   10eca:	48 8d 05 07 6c 00 00 	lea    0x6c07(%rip),%rax        # 17ad8 <g_189>
   10ed1:	48 89 85 f8 fc ff ff 	mov    %rax,-0x308(%rbp)
   10ed8:	48 8d 85 b0 f1 ff ff 	lea    -0xe50(%rbp),%rax
   10edf:	48 89 85 00 fd ff ff 	mov    %rax,-0x300(%rbp)
   10ee6:	48 8d 85 b8 f1 ff ff 	lea    -0xe48(%rbp),%rax
   10eed:	48 89 85 08 fd ff ff 	mov    %rax,-0x2f8(%rbp)
   10ef4:	48 8d 85 b8 f1 ff ff 	lea    -0xe48(%rbp),%rax
   10efb:	48 89 85 10 fd ff ff 	mov    %rax,-0x2f0(%rbp)
   10f02:	48 8d 85 b8 f1 ff ff 	lea    -0xe48(%rbp),%rax
   10f09:	48 89 85 18 fd ff ff 	mov    %rax,-0x2e8(%rbp)
   10f10:	48 8d 85 b8 f1 ff ff 	lea    -0xe48(%rbp),%rax
   10f17:	48 89 85 20 fd ff ff 	mov    %rax,-0x2e0(%rbp)
   10f1e:	48 8d 05 b3 6b 00 00 	lea    0x6bb3(%rip),%rax        # 17ad8 <g_189>
   10f25:	48 89 85 28 fd ff ff 	mov    %rax,-0x2d8(%rbp)
   10f2c:	48 8d 05 a5 6b 00 00 	lea    0x6ba5(%rip),%rax        # 17ad8 <g_189>
   10f33:	48 89 85 30 fd ff ff 	mov    %rax,-0x2d0(%rbp)
   10f3a:	48 8d 85 b8 f1 ff ff 	lea    -0xe48(%rbp),%rax
   10f41:	48 89 85 38 fd ff ff 	mov    %rax,-0x2c8(%rbp)
   10f48:	48 8d 85 b8 f1 ff ff 	lea    -0xe48(%rbp),%rax
   10f4f:	48 89 85 40 fd ff ff 	mov    %rax,-0x2c0(%rbp)
   10f56:	48 8d 85 b8 f1 ff ff 	lea    -0xe48(%rbp),%rax
   10f5d:	48 89 85 48 fd ff ff 	mov    %rax,-0x2b8(%rbp)
   10f64:	48 8d 85 b8 f1 ff ff 	lea    -0xe48(%rbp),%rax
   10f6b:	48 89 85 50 fd ff ff 	mov    %rax,-0x2b0(%rbp)
   10f72:	48 8d 85 b0 f1 ff ff 	lea    -0xe50(%rbp),%rax
   10f79:	48 89 85 58 fd ff ff 	mov    %rax,-0x2a8(%rbp)
   10f80:	48 8d 85 b0 f1 ff ff 	lea    -0xe50(%rbp),%rax
   10f87:	48 89 85 60 fd ff ff 	mov    %rax,-0x2a0(%rbp)
   10f8e:	48 8d 85 b8 f1 ff ff 	lea    -0xe48(%rbp),%rax
   10f95:	48 89 85 68 fd ff ff 	mov    %rax,-0x298(%rbp)
   10f9c:	48 8d 85 b8 f1 ff ff 	lea    -0xe48(%rbp),%rax
   10fa3:	48 89 85 70 fd ff ff 	mov    %rax,-0x290(%rbp)
   10faa:	48 8d 85 b0 f1 ff ff 	lea    -0xe50(%rbp),%rax
   10fb1:	48 89 85 78 fd ff ff 	mov    %rax,-0x288(%rbp)
   10fb8:	48 8d 85 b8 f1 ff ff 	lea    -0xe48(%rbp),%rax
   10fbf:	48 89 85 80 fd ff ff 	mov    %rax,-0x280(%rbp)
   10fc6:	48 8d 85 b0 f1 ff ff 	lea    -0xe50(%rbp),%rax
   10fcd:	48 89 85 88 fd ff ff 	mov    %rax,-0x278(%rbp)
   10fd4:	48 8d 85 b8 f1 ff ff 	lea    -0xe48(%rbp),%rax
   10fdb:	48 89 85 90 fd ff ff 	mov    %rax,-0x270(%rbp)
   10fe2:	48 8d 85 b8 f1 ff ff 	lea    -0xe48(%rbp),%rax
   10fe9:	48 89 85 98 fd ff ff 	mov    %rax,-0x268(%rbp)
   10ff0:	48 8d 85 b8 f1 ff ff 	lea    -0xe48(%rbp),%rax
   10ff7:	48 89 85 a0 fd ff ff 	mov    %rax,-0x260(%rbp)
   10ffe:	48 8d 85 b8 f1 ff ff 	lea    -0xe48(%rbp),%rax
   11005:	48 89 85 a8 fd ff ff 	mov    %rax,-0x258(%rbp)
   1100c:	48 8d 85 b8 f1 ff ff 	lea    -0xe48(%rbp),%rax
   11013:	48 89 85 b0 fd ff ff 	mov    %rax,-0x250(%rbp)
   1101a:	48 8d 85 b0 f1 ff ff 	lea    -0xe50(%rbp),%rax
   11021:	48 89 85 b8 fd ff ff 	mov    %rax,-0x248(%rbp)
   11028:	48 8d 85 b0 f1 ff ff 	lea    -0xe50(%rbp),%rax
   1102f:	48 89 85 c0 fd ff ff 	mov    %rax,-0x240(%rbp)
   11036:	48 8d 85 b8 f1 ff ff 	lea    -0xe48(%rbp),%rax
   1103d:	48 89 85 c8 fd ff ff 	mov    %rax,-0x238(%rbp)
   11044:	48 8d 85 b0 f1 ff ff 	lea    -0xe50(%rbp),%rax
   1104b:	48 89 85 d0 fd ff ff 	mov    %rax,-0x230(%rbp)
   11052:	48 8d 85 b0 f1 ff ff 	lea    -0xe50(%rbp),%rax
   11059:	48 89 85 d8 fd ff ff 	mov    %rax,-0x228(%rbp)
   11060:	48 8d 85 b8 f1 ff ff 	lea    -0xe48(%rbp),%rax
   11067:	48 89 85 e0 fd ff ff 	mov    %rax,-0x220(%rbp)
   1106e:	48 8d 85 b0 f1 ff ff 	lea    -0xe50(%rbp),%rax
   11075:	48 89 85 e8 fd ff ff 	mov    %rax,-0x218(%rbp)
   1107c:	48 8d 85 b8 f1 ff ff 	lea    -0xe48(%rbp),%rax
   11083:	48 89 85 f0 fd ff ff 	mov    %rax,-0x210(%rbp)
   1108a:	48 8d 85 b8 f1 ff ff 	lea    -0xe48(%rbp),%rax
   11091:	48 89 85 f8 fd ff ff 	mov    %rax,-0x208(%rbp)
   11098:	48 8d 85 b0 f1 ff ff 	lea    -0xe50(%rbp),%rax
   1109f:	48 89 85 00 fe ff ff 	mov    %rax,-0x200(%rbp)
   110a6:	48 8d 85 b8 f1 ff ff 	lea    -0xe48(%rbp),%rax
   110ad:	48 89 85 08 fe ff ff 	mov    %rax,-0x1f8(%rbp)
   110b4:	48 8d 85 b8 f1 ff ff 	lea    -0xe48(%rbp),%rax
   110bb:	48 89 85 10 fe ff ff 	mov    %rax,-0x1f0(%rbp)
   110c2:	48 8d 85 b8 f1 ff ff 	lea    -0xe48(%rbp),%rax
   110c9:	48 89 85 18 fe ff ff 	mov    %rax,-0x1e8(%rbp)
   110d0:	48 8d 85 b8 f1 ff ff 	lea    -0xe48(%rbp),%rax
   110d7:	48 89 85 20 fe ff ff 	mov    %rax,-0x1e0(%rbp)
   110de:	48 8d 85 b8 f1 ff ff 	lea    -0xe48(%rbp),%rax
   110e5:	48 89 85 28 fe ff ff 	mov    %rax,-0x1d8(%rbp)
   110ec:	48 8d 85 b0 f1 ff ff 	lea    -0xe50(%rbp),%rax
   110f3:	48 89 85 30 fe ff ff 	mov    %rax,-0x1d0(%rbp)
   110fa:	48 8d 05 d7 69 00 00 	lea    0x69d7(%rip),%rax        # 17ad8 <g_189>
   11101:	48 89 85 38 fe ff ff 	mov    %rax,-0x1c8(%rbp)
   11108:	48 8d 85 b0 f1 ff ff 	lea    -0xe50(%rbp),%rax
   1110f:	48 89 85 40 fe ff ff 	mov    %rax,-0x1c0(%rbp)
   11116:	48 8d 85 b0 f1 ff ff 	lea    -0xe50(%rbp),%rax
   1111d:	48 89 85 48 fe ff ff 	mov    %rax,-0x1b8(%rbp)
   11124:	48 8d 85 b8 f1 ff ff 	lea    -0xe48(%rbp),%rax
   1112b:	48 89 85 50 fe ff ff 	mov    %rax,-0x1b0(%rbp)
   11132:	48 8d 85 b0 f1 ff ff 	lea    -0xe50(%rbp),%rax
   11139:	48 89 85 58 fe ff ff 	mov    %rax,-0x1a8(%rbp)
   11140:	48 8d 85 b8 f1 ff ff 	lea    -0xe48(%rbp),%rax
   11147:	48 89 85 60 fe ff ff 	mov    %rax,-0x1a0(%rbp)
   1114e:	48 8d 85 b8 f1 ff ff 	lea    -0xe48(%rbp),%rax
   11155:	48 89 85 68 fe ff ff 	mov    %rax,-0x198(%rbp)
   1115c:	48 8d 85 b8 f1 ff ff 	lea    -0xe48(%rbp),%rax
   11163:	48 89 85 70 fe ff ff 	mov    %rax,-0x190(%rbp)
   1116a:	48 8d 85 b0 f1 ff ff 	lea    -0xe50(%rbp),%rax
   11171:	48 89 85 78 fe ff ff 	mov    %rax,-0x188(%rbp)
   11178:	48 8d 85 b8 f1 ff ff 	lea    -0xe48(%rbp),%rax
   1117f:	48 89 85 80 fe ff ff 	mov    %rax,-0x180(%rbp)
   11186:	48 8d 85 b0 f1 ff ff 	lea    -0xe50(%rbp),%rax
   1118d:	48 89 85 88 fe ff ff 	mov    %rax,-0x178(%rbp)
   11194:	48 8d 85 b0 f1 ff ff 	lea    -0xe50(%rbp),%rax
   1119b:	48 89 85 90 fe ff ff 	mov    %rax,-0x170(%rbp)
   111a2:	48 8d 05 2f 69 00 00 	lea    0x692f(%rip),%rax        # 17ad8 <g_189>
   111a9:	48 89 85 98 fe ff ff 	mov    %rax,-0x168(%rbp)
   111b0:	48 8d 85 b0 f1 ff ff 	lea    -0xe50(%rbp),%rax
   111b7:	48 89 85 a0 fe ff ff 	mov    %rax,-0x160(%rbp)
   111be:	48 8d 85 b8 f1 ff ff 	lea    -0xe48(%rbp),%rax
   111c5:	48 89 85 a8 fe ff ff 	mov    %rax,-0x158(%rbp)
   111cc:	48 8d 85 b8 f1 ff ff 	lea    -0xe48(%rbp),%rax
   111d3:	48 89 85 b0 fe ff ff 	mov    %rax,-0x150(%rbp)
   111da:	48 8d 85 b8 f1 ff ff 	lea    -0xe48(%rbp),%rax
   111e1:	48 89 85 b8 fe ff ff 	mov    %rax,-0x148(%rbp)
   111e8:	48 8d 85 b8 f1 ff ff 	lea    -0xe48(%rbp),%rax
   111ef:	48 89 85 c0 fe ff ff 	mov    %rax,-0x140(%rbp)
   111f6:	48 8d 85 b8 f1 ff ff 	lea    -0xe48(%rbp),%rax
   111fd:	48 89 85 c8 fe ff ff 	mov    %rax,-0x138(%rbp)
   11204:	48 8d 85 b0 f1 ff ff 	lea    -0xe50(%rbp),%rax
   1120b:	48 89 85 d0 fe ff ff 	mov    %rax,-0x130(%rbp)
   11212:	48 8d 85 b8 f1 ff ff 	lea    -0xe48(%rbp),%rax
   11219:	48 89 85 d8 fe ff ff 	mov    %rax,-0x128(%rbp)
   11220:	48 8d 85 b8 f1 ff ff 	lea    -0xe48(%rbp),%rax
   11227:	48 89 85 e0 fe ff ff 	mov    %rax,-0x120(%rbp)
   1122e:	48 8d 85 b0 f1 ff ff 	lea    -0xe50(%rbp),%rax
   11235:	48 89 85 e8 fe ff ff 	mov    %rax,-0x118(%rbp)
   1123c:	48 8d 85 b8 f1 ff ff 	lea    -0xe48(%rbp),%rax
   11243:	48 89 85 f0 fe ff ff 	mov    %rax,-0x110(%rbp)
   1124a:	48 8d 85 b0 f1 ff ff 	lea    -0xe50(%rbp),%rax
   11251:	48 89 85 f8 fe ff ff 	mov    %rax,-0x108(%rbp)
   11258:	48 8d 85 b0 f1 ff ff 	lea    -0xe50(%rbp),%rax
   1125f:	48 89 85 00 ff ff ff 	mov    %rax,-0x100(%rbp)
   11266:	48 8d 85 b8 f1 ff ff 	lea    -0xe48(%rbp),%rax
   1126d:	48 89 85 08 ff ff ff 	mov    %rax,-0xf8(%rbp)
   11274:	48 8d 85 b0 f1 ff ff 	lea    -0xe50(%rbp),%rax
   1127b:	48 89 85 10 ff ff ff 	mov    %rax,-0xf0(%rbp)
   11282:	48 8d 85 b0 f1 ff ff 	lea    -0xe50(%rbp),%rax
   11289:	48 89 85 18 ff ff ff 	mov    %rax,-0xe8(%rbp)
   11290:	48 8d 85 b8 f1 ff ff 	lea    -0xe48(%rbp),%rax
   11297:	48 89 85 20 ff ff ff 	mov    %rax,-0xe0(%rbp)
   1129e:	48 8d 85 b8 f1 ff ff 	lea    -0xe48(%rbp),%rax
   112a5:	48 89 85 28 ff ff ff 	mov    %rax,-0xd8(%rbp)
   112ac:	48 8d 85 b8 f1 ff ff 	lea    -0xe48(%rbp),%rax
   112b3:	48 89 85 30 ff ff ff 	mov    %rax,-0xd0(%rbp)
   112ba:	48 8d 85 b8 f1 ff ff 	lea    -0xe48(%rbp),%rax
   112c1:	48 89 85 38 ff ff ff 	mov    %rax,-0xc8(%rbp)
   112c8:	48 8d 85 b8 f1 ff ff 	lea    -0xe48(%rbp),%rax
   112cf:	48 89 85 40 ff ff ff 	mov    %rax,-0xc0(%rbp)
   112d6:	48 8d 85 b0 f1 ff ff 	lea    -0xe50(%rbp),%rax
   112dd:	48 89 85 48 ff ff ff 	mov    %rax,-0xb8(%rbp)
   112e4:	48 8d 85 b8 f1 ff ff 	lea    -0xe48(%rbp),%rax
   112eb:	48 89 85 50 ff ff ff 	mov    %rax,-0xb0(%rbp)
   112f2:	48 8d 85 b0 f1 ff ff 	lea    -0xe50(%rbp),%rax
   112f9:	48 89 85 58 ff ff ff 	mov    %rax,-0xa8(%rbp)
   11300:	48 8d 85 b8 f1 ff ff 	lea    -0xe48(%rbp),%rax
   11307:	48 89 85 60 ff ff ff 	mov    %rax,-0xa0(%rbp)
   1130e:	48 8d 85 b8 f1 ff ff 	lea    -0xe48(%rbp),%rax
   11315:	48 89 85 68 ff ff ff 	mov    %rax,-0x98(%rbp)
   1131c:	48 8d 85 b0 f1 ff ff 	lea    -0xe50(%rbp),%rax
   11323:	48 89 85 70 ff ff ff 	mov    %rax,-0x90(%rbp)
   1132a:	48 8d 85 b0 f1 ff ff 	lea    -0xe50(%rbp),%rax
   11331:	48 89 85 78 ff ff ff 	mov    %rax,-0x88(%rbp)
   11338:	48 8d 85 b8 f1 ff ff 	lea    -0xe48(%rbp),%rax
   1133f:	48 89 45 80          	mov    %rax,-0x80(%rbp)
   11343:	48 8d 85 b8 f1 ff ff 	lea    -0xe48(%rbp),%rax
   1134a:	48 89 45 88          	mov    %rax,-0x78(%rbp)
   1134e:	48 8d 85 b8 f1 ff ff 	lea    -0xe48(%rbp),%rax
   11355:	48 89 45 90          	mov    %rax,-0x70(%rbp)
   11359:	48 8d 85 b8 f1 ff ff 	lea    -0xe48(%rbp),%rax
   11360:	48 89 45 98          	mov    %rax,-0x68(%rbp)
   11364:	48 8d 05 6d 67 00 00 	lea    0x676d(%rip),%rax        # 17ad8 <g_189>
   1136b:	48 89 45 a0          	mov    %rax,-0x60(%rbp)
   1136f:	48 8d 05 62 67 00 00 	lea    0x6762(%rip),%rax        # 17ad8 <g_189>
   11376:	48 89 45 a8          	mov    %rax,-0x58(%rbp)
   1137a:	48 8d 85 b8 f1 ff ff 	lea    -0xe48(%rbp),%rax
   11381:	48 89 45 b0          	mov    %rax,-0x50(%rbp)
   11385:	48 8d 85 b8 f1 ff ff 	lea    -0xe48(%rbp),%rax
   1138c:	48 89 45 b8          	mov    %rax,-0x48(%rbp)
   11390:	48 8d 85 b8 f1 ff ff 	lea    -0xe48(%rbp),%rax
   11397:	48 89 45 c0          	mov    %rax,-0x40(%rbp)
   1139b:	48 8d 85 b8 f1 ff ff 	lea    -0xe48(%rbp),%rax
   113a2:	48 89 45 c8          	mov    %rax,-0x38(%rbp)
   113a6:	48 8d 05 83 5c 00 00 	lea    0x5c83(%rip),%rax        # 17030 <g_67>
   113ad:	48 89 85 48 f2 ff ff 	mov    %rax,-0xdb8(%rbp)
   113b4:	8b 85 24 f5 ff ff    	mov    -0xadc(%rbp),%eax
   113ba:	83 e8 01             	sub    $0x1,%eax
   113bd:	89 85 24 f5 ff ff    	mov    %eax,-0xadc(%rbp)
   113c3:	48 8b 85 30 f1 ff ff 	mov    -0xed0(%rbp),%rax
   113ca:	48 85 c0             	test   %rax,%rax
   113cd:	75 07                	jne    113d6 <func_74+0x1609>
   113cf:	bb fb 81 6e b0       	mov    $0xb06e81fb,%ebx
   113d4:	eb 05                	jmp    113db <func_74+0x160e>
   113d6:	bb fa 81 6e b0       	mov    $0xb06e81fa,%ebx
   113db:	48 8b 85 30 f1 ff ff 	mov    -0xed0(%rbp),%rax
   113e2:	0f b6 00             	movzbl (%rax),%eax
   113e5:	0f b6 c0             	movzbl %al,%eax
   113e8:	89 c6                	mov    %eax,%esi
   113ea:	bf f9 00 00 00       	mov    $0xf9,%edi
   113ef:	e8 9f 17 ff ff       	callq  2b93 <safe_mul_func_uint8_t_u_u>
   113f4:	8b 05 2a 5c 00 00    	mov    0x5c2a(%rip),%eax        # 17024 <g_15>
   113fa:	85 c0                	test   %eax,%eax
   113fc:	74 11                	je     1140f <func_74+0x1642>
   113fe:	66 83 bd 3c f1 ff ff 	cmpw   $0x0,-0xec4(%rbp)
   11405:	00 
   11406:	74 07                	je     1140f <func_74+0x1642>
   11408:	b8 01 00 00 00       	mov    $0x1,%eax
   1140d:	eb 05                	jmp    11414 <func_74+0x1647>
   1140f:	b8 00 00 00 00       	mov    $0x0,%eax
   11414:	83 f8 02             	cmp    $0x2,%eax
   11417:	0f 9e c0             	setle  %al
   1141a:	0f b6 d0             	movzbl %al,%edx
   1141d:	48 8b 85 48 f2 ff ff 	mov    -0xdb8(%rbp),%rax
   11424:	48 89 10             	mov    %rdx,(%rax)
   11427:	48 8b 85 48 f2 ff ff 	mov    -0xdb8(%rbp),%rax
   1142e:	48 8b 00             	mov    (%rax),%rax
   11431:	48 89 c6             	mov    %rax,%rsi
   11434:	bf 01 00 00 00       	mov    $0x1,%edi
   11439:	e8 03 14 ff ff       	callq  2841 <safe_add_func_int64_t_s_s>
   1143e:	0f b7 c0             	movzwl %ax,%eax
   11441:	be 09 00 00 00       	mov    $0x9,%esi
   11446:	89 c7                	mov    %eax,%edi
   11448:	e8 b9 19 ff ff       	callq  2e06 <safe_lshift_func_uint16_t_u_u>
   1144d:	0f b7 c0             	movzwl %ax,%eax
   11450:	48 21 c3             	and    %rax,%rbx
   11453:	48 89 da             	mov    %rbx,%rdx
   11456:	48 8b 85 18 f2 ff ff 	mov    -0xde8(%rbp),%rax
   1145d:	8b 00                	mov    (%rax),%eax
   1145f:	09 c2                	or     %eax,%edx
   11461:	48 8b 85 18 f2 ff ff 	mov    -0xde8(%rbp),%rax
   11468:	89 10                	mov    %edx,(%rax)
   1146a:	0f b7 05 03 5c 00 00 	movzwl 0x5c03(%rip),%eax        # 17074 <g_254>
   11471:	0f be c0             	movsbl %al,%eax
   11474:	be 03 00 00 00       	mov    $0x3,%esi
   11479:	89 c7                	mov    %eax,%edi
   1147b:	e8 54 0d ff ff       	callq  21d4 <safe_add_func_int8_t_s_s>
   11480:	66 98                	cbtw   
   11482:	66 89 05 eb 5b 00 00 	mov    %ax,0x5beb(%rip)        # 17074 <g_254>
   11489:	0f b7 05 e4 5b 00 00 	movzwl 0x5be4(%rip),%eax        # 17074 <g_254>
   11490:	66 83 f8 1a          	cmp    $0x1a,%ax
   11494:	0f 84 14 f1 ff ff    	je     105ae <func_74+0x7e1>
   1149a:	48 8b 05 07 67 00 00 	mov    0x6707(%rip),%rax        # 17ba8 <g_289>
   114a1:	0f b7 95 3c f1 ff ff 	movzwl -0xec4(%rbp),%edx
   114a8:	89 10                	mov    %edx,(%rax)
   114aa:	8b 85 50 f1 ff ff    	mov    -0xeb0(%rbp),%eax
   114b0:	85 c0                	test   %eax,%eax
   114b2:	0f 85 2e 04 00 00    	jne    118e6 <func_74+0x1b19>
   114b8:	66 83 bd 3c f1 ff ff 	cmpw   $0x0,-0xec4(%rbp)
   114bf:	00 
   114c0:	0f 84 e6 03 00 00    	je     118ac <func_74+0x1adf>
   114c6:	c7 85 84 f1 ff ff f7 	movl   $0xfffffff7,-0xe7c(%rbp)
   114cd:	ff ff ff 
   114d0:	c7 85 88 f1 ff ff 2b 	movl   $0xec01f32b,-0xe78(%rbp)
   114d7:	f3 01 ec 
   114da:	c7 85 8c f1 ff ff 81 	movl   $0x33aebe81,-0xe74(%rbp)
   114e1:	be ae 33 
   114e4:	c6 85 42 f1 ff ff 4d 	movb   $0x4d,-0xebe(%rbp)
   114eb:	c7 85 50 f8 ff ff 00 	movl   $0x0,-0x7b0(%rbp)
   114f2:	00 00 00 
   114f5:	c7 85 54 f8 ff ff 08 	movl   $0x8,-0x7ac(%rbp)
   114fc:	00 00 00 
   114ff:	c7 85 58 f8 ff ff ff 	movl   $0xffffffff,-0x7a8(%rbp)
   11506:	ff ff ff 
   11509:	c7 85 5c f8 ff ff 08 	movl   $0x8,-0x7a4(%rbp)
   11510:	00 00 00 
   11513:	c7 85 60 f8 ff ff 00 	movl   $0x0,-0x7a0(%rbp)
   1151a:	00 00 00 
   1151d:	c7 85 64 f8 ff ff ff 	movl   $0xffffffff,-0x79c(%rbp)
   11524:	ff ff ff 
   11527:	c7 85 68 f8 ff ff 00 	movl   $0x0,-0x798(%rbp)
   1152e:	00 00 00 
   11531:	c7 85 6c f8 ff ff f9 	movl   $0xfffffff9,-0x794(%rbp)
   11538:	ff ff ff 
   1153b:	c7 85 70 f8 ff ff 00 	movl   $0x0,-0x790(%rbp)
   11542:	00 00 00 
   11545:	c7 85 74 f8 ff ff ff 	movl   $0xffffffff,-0x78c(%rbp)
   1154c:	ff ff ff 
   1154f:	c7 85 78 f8 ff ff 00 	movl   $0x0,-0x788(%rbp)
   11556:	00 00 00 
   11559:	c7 85 7c f8 ff ff 08 	movl   $0x8,-0x784(%rbp)
   11560:	00 00 00 
   11563:	c7 85 80 f8 ff ff ff 	movl   $0xffffffff,-0x780(%rbp)
   1156a:	ff ff ff 
   1156d:	c7 85 84 f8 ff ff 08 	movl   $0x8,-0x77c(%rbp)
   11574:	00 00 00 
   11577:	c7 85 88 f8 ff ff 00 	movl   $0x0,-0x778(%rbp)
   1157e:	00 00 00 
   11581:	c7 85 8c f8 ff ff ff 	movl   $0xffffffff,-0x774(%rbp)
   11588:	ff ff ff 
   1158b:	c7 85 90 f8 ff ff 00 	movl   $0x0,-0x770(%rbp)
   11592:	00 00 00 
   11595:	c7 85 94 f8 ff ff f9 	movl   $0xfffffff9,-0x76c(%rbp)
   1159c:	ff ff ff 
   1159f:	c7 85 98 f8 ff ff 00 	movl   $0x0,-0x768(%rbp)
   115a6:	00 00 00 
   115a9:	c7 85 9c f8 ff ff ff 	movl   $0xffffffff,-0x764(%rbp)
   115b0:	ff ff ff 
   115b3:	c7 85 a0 f8 ff ff 00 	movl   $0x0,-0x760(%rbp)
   115ba:	00 00 00 
   115bd:	c7 85 a4 f8 ff ff 08 	movl   $0x8,-0x75c(%rbp)
   115c4:	00 00 00 
   115c7:	c7 85 a8 f8 ff ff ff 	movl   $0xffffffff,-0x758(%rbp)
   115ce:	ff ff ff 
   115d1:	c7 85 ac f8 ff ff 08 	movl   $0x8,-0x754(%rbp)
   115d8:	00 00 00 
   115db:	c7 85 b0 f8 ff ff 00 	movl   $0x0,-0x750(%rbp)
   115e2:	00 00 00 
   115e5:	c7 85 b4 f8 ff ff ff 	movl   $0xffffffff,-0x74c(%rbp)
   115ec:	ff ff ff 
   115ef:	c7 85 b8 f8 ff ff 00 	movl   $0x0,-0x748(%rbp)
   115f6:	00 00 00 
   115f9:	c7 85 bc f8 ff ff f9 	movl   $0xfffffff9,-0x744(%rbp)
   11600:	ff ff ff 
   11603:	c7 85 c0 f8 ff ff 00 	movl   $0x0,-0x740(%rbp)
   1160a:	00 00 00 
   1160d:	c7 85 c4 f8 ff ff ff 	movl   $0xffffffff,-0x73c(%rbp)
   11614:	ff ff ff 
   11617:	c7 85 c8 f8 ff ff 00 	movl   $0x0,-0x738(%rbp)
   1161e:	00 00 00 
   11621:	c7 85 cc f8 ff ff 08 	movl   $0x8,-0x734(%rbp)
   11628:	00 00 00 
   1162b:	c7 85 d0 f8 ff ff ff 	movl   $0xffffffff,-0x730(%rbp)
   11632:	ff ff ff 
   11635:	c7 85 d4 f8 ff ff 08 	movl   $0x8,-0x72c(%rbp)
   1163c:	00 00 00 
   1163f:	c7 85 d8 f8 ff ff 00 	movl   $0x0,-0x728(%rbp)
   11646:	00 00 00 
   11649:	c7 85 dc f8 ff ff ff 	movl   $0xffffffff,-0x724(%rbp)
   11650:	ff ff ff 
   11653:	c7 85 e0 f8 ff ff 00 	movl   $0x0,-0x720(%rbp)
   1165a:	00 00 00 
   1165d:	c7 85 e4 f8 ff ff f9 	movl   $0xfffffff9,-0x71c(%rbp)
   11664:	ff ff ff 
   11667:	c7 85 e8 f8 ff ff 00 	movl   $0x0,-0x718(%rbp)
   1166e:	00 00 00 
   11671:	c7 85 ec f8 ff ff ff 	movl   $0xffffffff,-0x714(%rbp)
   11678:	ff ff ff 
   1167b:	c7 85 f0 f8 ff ff 00 	movl   $0x0,-0x710(%rbp)
   11682:	00 00 00 
   11685:	c7 85 f4 f8 ff ff 08 	movl   $0x8,-0x70c(%rbp)
   1168c:	00 00 00 
   1168f:	c7 85 f8 f8 ff ff ff 	movl   $0xffffffff,-0x708(%rbp)
   11696:	ff ff ff 
   11699:	c7 85 fc f8 ff ff 08 	movl   $0x8,-0x704(%rbp)
   116a0:	00 00 00 
   116a3:	c7 85 00 f9 ff ff 00 	movl   $0x0,-0x700(%rbp)
   116aa:	00 00 00 
   116ad:	c7 85 04 f9 ff ff ff 	movl   $0xffffffff,-0x6fc(%rbp)
   116b4:	ff ff ff 
   116b7:	c7 85 08 f9 ff ff 00 	movl   $0x0,-0x6f8(%rbp)
   116be:	00 00 00 
   116c1:	c7 85 0c f9 ff ff f9 	movl   $0xfffffff9,-0x6f4(%rbp)
   116c8:	ff ff ff 
   116cb:	c7 85 10 f9 ff ff 00 	movl   $0x0,-0x6f0(%rbp)
   116d2:	00 00 00 
   116d5:	c7 85 14 f9 ff ff ff 	movl   $0xffffffff,-0x6ec(%rbp)
   116dc:	ff ff ff 
   116df:	66 c7 85 48 f1 ff ff 	movw   $0x9,-0xeb8(%rbp)
   116e6:	09 00 
   116e8:	c7 85 68 f1 ff ff 00 	movl   $0x0,-0xe98(%rbp)
   116ef:	00 00 00 
   116f2:	83 bd 68 f1 ff ff e6 	cmpl   $0xffffffe6,-0xe98(%rbp)
   116f9:	7d 79                	jge    11774 <func_74+0x19a7>
   116fb:	66 c7 85 4a f1 ff ff 	movw   $0x1,-0xeb6(%rbp)
   11702:	01 00 
   11704:	c7 85 a0 f3 ff ff 58 	movl   $0xd2ae1958,-0xc60(%rbp)
   1170b:	19 ae d2 
   1170e:	c7 85 a4 f3 ff ff 58 	movl   $0xd2ae1958,-0xc5c(%rbp)
   11715:	19 ae d2 
   11718:	c7 85 a8 f3 ff ff 58 	movl   $0xd2ae1958,-0xc58(%rbp)
   1171f:	19 ae d2 
   11722:	c7 85 ac f3 ff ff 58 	movl   $0xd2ae1958,-0xc54(%rbp)
   11729:	19 ae d2 
   1172c:	c7 85 b0 f3 ff ff 58 	movl   $0xd2ae1958,-0xc50(%rbp)
   11733:	19 ae d2 
   11736:	c7 85 b4 f3 ff ff 58 	movl   $0xd2ae1958,-0xc4c(%rbp)
   1173d:	19 ae d2 
   11740:	c7 85 b8 f3 ff ff 58 	movl   $0xd2ae1958,-0xc48(%rbp)
   11747:	19 ae d2 
   1174a:	c7 85 bc f3 ff ff 58 	movl   $0xd2ae1958,-0xc44(%rbp)
   11751:	19 ae d2 
   11754:	c7 85 c0 f3 ff ff 58 	movl   $0xd2ae1958,-0xc40(%rbp)
   1175b:	19 ae d2 
   1175e:	80 85 42 f1 ff ff 01 	addb   $0x1,-0xebe(%rbp)
   11765:	48 8b 05 5c 63 00 00 	mov    0x635c(%rip),%rax        # 17ac8 <g_105>
   1176c:	48 8b 00             	mov    (%rax),%rax
   1176f:	e9 ef 01 00 00       	jmpq   11963 <func_74+0x1b96>
   11774:	c7 05 ba 58 00 00 00 	movl   $0x0,0x58ba(%rip)        # 17038 <g_99>
   1177b:	00 00 00 
   1177e:	e9 08 01 00 00       	jmpq   1188b <func_74+0x1abe>
   11783:	c7 85 90 f1 ff ff 00 	movl   $0x0,-0xe70(%rbp)
   1178a:	00 00 00 
   1178d:	c7 85 94 f1 ff ff b2 	movl   $0x189bfeb2,-0xe6c(%rbp)
   11794:	fe 9b 18 
   11797:	c7 85 98 f1 ff ff 01 	movl   $0x1,-0xe68(%rbp)
   1179e:	00 00 00 
   117a1:	c7 85 9c f1 ff ff 01 	movl   $0x1,-0xe64(%rbp)
   117a8:	00 00 00 
   117ab:	c7 85 a0 f1 ff ff ee 	movl   $0xe66fb2ee,-0xe60(%rbp)
   117b2:	b2 6f e6 
   117b5:	c7 85 a4 f1 ff ff b6 	movl   $0x468d8fb6,-0xe5c(%rbp)
   117bc:	8f 8d 46 
   117bf:	c7 85 a8 f1 ff ff a9 	movl   $0xbbd17a9,-0xe58(%rbp)
   117c6:	17 bd 0b 
   117c9:	c7 85 ac f1 ff ff d9 	movl   $0xa49ff9d9,-0xe54(%rbp)
   117d0:	f9 9f a4 
   117d3:	c7 85 64 f1 ff ff 00 	movl   $0x0,-0xe9c(%rbp)
   117da:	00 00 00 
   117dd:	eb 19                	jmp    117f8 <func_74+0x1a2b>
   117df:	8b 85 64 f1 ff ff    	mov    -0xe9c(%rbp),%eax
   117e5:	48 98                	cltq   
   117e7:	66 c7 84 45 5a f2 ff 	movw   $0x0,-0xda6(%rbp,%rax,2)
   117ee:	ff 00 00 
   117f1:	83 85 64 f1 ff ff 01 	addl   $0x1,-0xe9c(%rbp)
   117f8:	83 bd 64 f1 ff ff 02 	cmpl   $0x2,-0xe9c(%rbp)
   117ff:	7e de                	jle    117df <func_74+0x1a12>
   11801:	c7 85 64 f1 ff ff 00 	movl   $0x0,-0xe9c(%rbp)
   11808:	00 00 00 
   1180b:	eb 45                	jmp    11852 <func_74+0x1a85>
   1180d:	c7 85 60 f1 ff ff 00 	movl   $0x0,-0xea0(%rbp)
   11814:	00 00 00 
   11817:	eb 29                	jmp    11842 <func_74+0x1a75>
   11819:	8b 85 60 f1 ff ff    	mov    -0xea0(%rbp),%eax
   1181f:	48 98                	cltq   
   11821:	8b 95 64 f1 ff ff    	mov    -0xe9c(%rbp),%edx
   11827:	48 63 d2             	movslq %edx,%rdx
   1182a:	48 01 d2             	add    %rdx,%rdx
   1182d:	48 01 d0             	add    %rdx,%rax
   11830:	c7 84 85 a0 f3 ff ff 	movl   $0xcf303c48,-0xc60(%rbp,%rax,4)
   11837:	48 3c 30 cf 
   1183b:	83 85 60 f1 ff ff 01 	addl   $0x1,-0xea0(%rbp)
   11842:	83 bd 60 f1 ff ff 01 	cmpl   $0x1,-0xea0(%rbp)
   11849:	7e ce                	jle    11819 <func_74+0x1a4c>
   1184b:	83 85 64 f1 ff ff 01 	addl   $0x1,-0xe9c(%rbp)
   11852:	83 bd 64 f1 ff ff 02 	cmpl   $0x2,-0xe9c(%rbp)
   11859:	7e b2                	jle    1180d <func_74+0x1a40>
   1185b:	48 8b 85 e0 f2 ff ff 	mov    -0xd20(%rbp),%rax
   11862:	48 85 c0             	test   %rax,%rax
   11865:	75 35                	jne    1189c <func_74+0x1acf>
   11867:	48 8d 05 42 58 00 00 	lea    0x5842(%rip),%rax        # 170b0 <g_273+0x30>
   1186e:	48 89 85 d0 f1 ff ff 	mov    %rax,-0xe30(%rbp)
   11875:	83 ad 5c f1 ff ff 01 	subl   $0x1,-0xea4(%rbp)
   1187c:	8b 05 b6 57 00 00    	mov    0x57b6(%rip),%eax        # 17038 <g_99>
   11882:	83 c0 01             	add    $0x1,%eax
   11885:	89 05 ad 57 00 00    	mov    %eax,0x57ad(%rip)        # 17038 <g_99>
   1188b:	8b 05 a7 57 00 00    	mov    0x57a7(%rip),%eax        # 17038 <g_99>
   11891:	83 f8 13             	cmp    $0x13,%eax
   11894:	0f 8e e9 fe ff ff    	jle    11783 <func_74+0x19b6>
   1189a:	eb 01                	jmp    1189d <func_74+0x1ad0>
   1189c:	90                   	nop
   1189d:	48 8b 05 24 62 00 00 	mov    0x6224(%rip),%rax        # 17ac8 <g_105>
   118a4:	48 8b 00             	mov    (%rax),%rax
   118a7:	e9 b7 00 00 00       	jmpq   11963 <func_74+0x1b96>
   118ac:	c7 85 80 f1 ff ff 01 	movl   $0x1,-0xe80(%rbp)
   118b3:	00 00 00 
   118b6:	83 85 80 f1 ff ff 01 	addl   $0x1,-0xe80(%rbp)
   118bd:	c7 85 6c f1 ff ff 06 	movl   $0x6,-0xe94(%rbp)
   118c4:	00 00 00 
   118c7:	83 bd 6c f1 ff ff f5 	cmpl   $0xfffffff5,-0xe94(%rbp)
   118ce:	74 1a                	je     118ea <func_74+0x1b1d>
   118d0:	48 83 bd f8 f1 ff ff 	cmpq   $0x0,-0xe08(%rbp)
   118d7:	00 
   118d8:	75 0f                	jne    118e9 <func_74+0x1b1c>
   118da:	48 8b 85 c8 f1 ff ff 	mov    -0xe38(%rbp),%rax
   118e1:	48 8b 00             	mov    (%rax),%rax
   118e4:	eb 7d                	jmp    11963 <func_74+0x1b96>
   118e6:	90                   	nop
   118e7:	eb 01                	jmp    118ea <func_74+0x1b1d>
   118e9:	90                   	nop
   118ea:	48 8b 85 e0 f1 ff ff 	mov    -0xe20(%rbp),%rax
   118f1:	be 06 00 00 00       	mov    $0x6,%esi
   118f6:	89 c7                	mov    %eax,%edi
   118f8:	e8 bb 15 ff ff       	callq  2eb8 <safe_add_func_uint32_t_u_u>
   118fd:	89 c0                	mov    %eax,%eax
   118ff:	48 89 85 e0 f1 ff ff 	mov    %rax,-0xe20(%rbp)
   11906:	48 83 bd e0 f1 ff ff 	cmpq   $0xe,-0xe20(%rbp)
   1190d:	0e 
   1190e:	0f 8f 9f ea ff ff    	jg     103b3 <func_74+0x5e6>
   11914:	48 8b 05 9d 62 00 00 	mov    0x629d(%rip),%rax        # 17bb8 <g_384>
   1191b:	48 8d 15 72 57 00 00 	lea    0x5772(%rip),%rdx        # 17094 <g_273+0x14>
   11922:	48 89 10             	mov    %rdx,(%rax)
   11925:	66 83 bd 3c f1 ff ff 	cmpw   $0x0,-0xec4(%rbp)
   1192c:	00 
   1192d:	0f b6 05 09 57 00 00 	movzbl 0x5709(%rip),%eax        # 1703d <g_124>
   11934:	0f b6 c0             	movzbl %al,%eax
   11937:	be 05 00 00 00       	mov    $0x5,%esi
   1193c:	48 89 c7             	mov    %rax,%rdi
   1193f:	e8 ea 16 ff ff       	callq  302e <safe_add_func_uint64_t_u_u>
   11944:	88 05 f3 56 00 00    	mov    %al,0x56f3(%rip)        # 1703d <g_124>
   1194a:	0f b6 05 ec 56 00 00 	movzbl 0x56ec(%rip),%eax        # 1703d <g_124>
   11951:	3c 15                	cmp    $0x15,%al
   11953:	0f 87 b6 e5 ff ff    	ja     ff0f <func_74+0x142>
   11959:	48 8b 85 c8 f1 ff ff 	mov    -0xe38(%rbp),%rax
   11960:	48 8b 00             	mov    (%rax),%rax
   11963:	48 8b 4d d8          	mov    -0x28(%rbp),%rcx
   11967:	64 48 33 0c 25 28 00 	xor    %fs:0x28,%rcx
   1196e:	00 00 
   11970:	74 05                	je     11977 <func_74+0x1baa>
   11972:	e8 f9 06 ff ff       	callq  2070 <__stack_chk_fail@plt>
   11977:	48 81 c4 b8 0e 00 00 	add    $0xeb8,%rsp
   1197e:	5b                   	pop    %rbx
   1197f:	41 5c                	pop    %r12
   11981:	41 5d                	pop    %r13
   11983:	5d                   	pop    %rbp
   11984:	c3                   	retq   

0000000000011985 <func_79>:
   11985:	f3 0f 1e fa          	endbr64 
   11989:	55                   	push   %rbp
   1198a:	48 89 e5             	mov    %rsp,%rbp
   1198d:	41 55                	push   %r13
   1198f:	41 54                	push   %r12
   11991:	53                   	push   %rbx
   11992:	48 81 ec c8 08 00 00 	sub    $0x8c8,%rsp
   11999:	89 f8                	mov    %edi,%eax
   1199b:	89 b5 28 f7 ff ff    	mov    %esi,-0x8d8(%rbp)
   119a1:	88 85 2c f7 ff ff    	mov    %al,-0x8d4(%rbp)
   119a7:	64 48 8b 04 25 28 00 	mov    %fs:0x28,%rax
   119ae:	00 00 
   119b0:	48 89 45 d8          	mov    %rax,-0x28(%rbp)
   119b4:	31 c0                	xor    %eax,%eax
   119b6:	48 b8 5d ed 57 63 37 	movabs $0x1b90aa376357ed5d,%rax
   119bd:	aa 90 1b 
   119c0:	48 89 85 a8 f7 ff ff 	mov    %rax,-0x858(%rbp)
   119c7:	c7 85 40 f7 ff ff 37 	movl   $0x96282f37,-0x8c0(%rbp)
   119ce:	2f 28 96 
   119d1:	c7 85 44 f7 ff ff ff 	movl   $0xffffffff,-0x8bc(%rbp)
   119d8:	ff ff ff 
   119db:	c7 85 5c f7 ff ff 00 	movl   $0x0,-0x8a4(%rbp)
   119e2:	00 00 00 
   119e5:	c7 85 3c f7 ff ff 01 	movl   $0x1,-0x8c4(%rbp)
   119ec:	00 00 00 
   119ef:	c7 85 60 f7 ff ff b2 	movl   $0x597347b2,-0x8a0(%rbp)
   119f6:	47 73 59 
   119f9:	c7 85 64 f7 ff ff 03 	movl   $0x3,-0x89c(%rbp)
   11a00:	00 00 00 
   11a03:	c7 85 68 f7 ff ff fe 	movl   $0xfffffffe,-0x898(%rbp)
   11a0a:	ff ff ff 
   11a0d:	c7 85 6c f7 ff ff 83 	movl   $0x95a27483,-0x894(%rbp)
   11a14:	74 a2 95 
   11a17:	48 8d 85 50 fc ff ff 	lea    -0x3b0(%rbp),%rax
   11a1e:	48 8d 15 5b 25 00 00 	lea    0x255b(%rip),%rdx        # 13f80 <g_1644+0xe90>
   11a25:	b9 70 00 00 00       	mov    $0x70,%ecx
   11a2a:	48 89 c7             	mov    %rax,%rdi
   11a2d:	48 89 d6             	mov    %rdx,%rsi
   11a30:	f3 48 a5             	rep movsq %ds:(%rsi),%es:(%rdi)
   11a33:	48 89 f2             	mov    %rsi,%rdx
   11a36:	48 89 f8             	mov    %rdi,%rax
   11a39:	8b 0a                	mov    (%rdx),%ecx
   11a3b:	89 08                	mov    %ecx,(%rax)
   11a3d:	48 8d 40 04          	lea    0x4(%rax),%rax
   11a41:	48 8d 52 04          	lea    0x4(%rdx),%rdx
   11a45:	48 8d 05 7c 60 00 00 	lea    0x607c(%rip),%rax        # 17ac8 <g_105>
   11a4c:	48 89 85 b8 f7 ff ff 	mov    %rax,-0x848(%rbp)
   11a53:	48 b8 11 53 2d e1 e3 	movabs $0xc327b0e3e12d5311,%rax
   11a5a:	b0 27 c3 
   11a5d:	48 89 85 c0 f7 ff ff 	mov    %rax,-0x840(%rbp)
   11a64:	48 c7 85 88 f7 ff ff 	movq   $0x0,-0x878(%rbp)
   11a6b:	00 00 00 00 
   11a6f:	48 8d 85 88 f7 ff ff 	lea    -0x878(%rbp),%rax
   11a76:	48 89 85 c8 f7 ff ff 	mov    %rax,-0x838(%rbp)
   11a7d:	c6 85 2c f7 ff ff fc 	movb   $0xfc,-0x8d4(%rbp)
   11a84:	e9 21 08 00 00       	jmpq   122aa <func_79+0x925>
   11a89:	48 c7 85 90 f7 ff ff 	movq   $0x0,-0x870(%rbp)
   11a90:	00 00 00 00 
   11a94:	48 8d 85 90 f7 ff ff 	lea    -0x870(%rbp),%rax
   11a9b:	48 89 85 70 f8 ff ff 	mov    %rax,-0x790(%rbp)
   11aa2:	48 8d 85 90 f7 ff ff 	lea    -0x870(%rbp),%rax
   11aa9:	48 89 85 78 f8 ff ff 	mov    %rax,-0x788(%rbp)
   11ab0:	48 8d 85 90 f7 ff ff 	lea    -0x870(%rbp),%rax
   11ab7:	48 89 85 80 f8 ff ff 	mov    %rax,-0x780(%rbp)
   11abe:	48 8d 85 90 f7 ff ff 	lea    -0x870(%rbp),%rax
   11ac5:	48 89 85 88 f8 ff ff 	mov    %rax,-0x778(%rbp)
   11acc:	48 c7 85 d0 f7 ff ff 	movq   $0x0,-0x830(%rbp)
   11ad3:	00 00 00 00 
   11ad7:	48 c7 85 b0 f8 ff ff 	movq   $0x0,-0x750(%rbp)
   11ade:	00 00 00 00 
   11ae2:	48 c7 85 b8 f8 ff ff 	movq   $0x0,-0x748(%rbp)
   11ae9:	00 00 00 00 
   11aed:	48 c7 85 c0 f8 ff ff 	movq   $0x0,-0x740(%rbp)
   11af4:	00 00 00 00 
   11af8:	48 c7 85 c8 f8 ff ff 	movq   $0x0,-0x738(%rbp)
   11aff:	00 00 00 00 
   11b03:	48 c7 85 d0 f8 ff ff 	movq   $0x0,-0x730(%rbp)
   11b0a:	00 00 00 00 
   11b0e:	48 c7 85 d8 f8 ff ff 	movq   $0x0,-0x728(%rbp)
   11b15:	00 00 00 00 
   11b19:	48 c7 85 e0 f8 ff ff 	movq   $0x0,-0x720(%rbp)
   11b20:	00 00 00 00 
   11b24:	48 c7 85 e8 f8 ff ff 	movq   $0x0,-0x718(%rbp)
   11b2b:	00 00 00 00 
   11b2f:	48 8d 85 b0 f8 ff ff 	lea    -0x750(%rbp),%rax
   11b36:	48 83 c0 18          	add    $0x18,%rax
   11b3a:	48 89 85 d8 f7 ff ff 	mov    %rax,-0x828(%rbp)
   11b41:	48 c7 85 98 f7 ff ff 	movq   $0x0,-0x868(%rbp)
   11b48:	00 00 00 00 
   11b4c:	48 8d 85 98 f7 ff ff 	lea    -0x868(%rbp),%rax
   11b53:	48 89 85 e0 f7 ff ff 	mov    %rax,-0x820(%rbp)
   11b5a:	48 8d 05 dc 54 00 00 	lea    0x54dc(%rip),%rax        # 1703d <g_124>
   11b61:	48 89 85 e8 f7 ff ff 	mov    %rax,-0x818(%rbp)
   11b68:	48 b8 1f d6 35 34 8d 	movabs $0x527df68d3435d61f,%rax
   11b6f:	f6 7d 52 
   11b72:	48 89 85 b0 f7 ff ff 	mov    %rax,-0x850(%rbp)
   11b79:	48 8d 05 58 5f 00 00 	lea    0x5f58(%rip),%rax        # 17ad8 <g_189>
   11b80:	48 89 85 f0 f7 ff ff 	mov    %rax,-0x810(%rbp)
   11b87:	c7 05 97 54 00 00 08 	movl   $0x8,0x5497(%rip)        # 17028 <g_52>
   11b8e:	00 00 00 
   11b91:	eb 43                	jmp    11bd6 <func_79+0x251>
   11b93:	48 c7 85 38 f8 ff ff 	movq   $0x0,-0x7c8(%rbp)
   11b9a:	00 00 00 00 
   11b9e:	48 8d 05 93 54 00 00 	lea    0x5493(%rip),%rax        # 17038 <g_99>
   11ba5:	48 89 85 40 f8 ff ff 	mov    %rax,-0x7c0(%rbp)
   11bac:	48 8b 85 40 f8 ff ff 	mov    -0x7c0(%rbp),%rax
   11bb3:	8b 10                	mov    (%rax),%edx
   11bb5:	0f b6 85 2c f7 ff ff 	movzbl -0x8d4(%rbp),%eax
   11bbc:	21 c2                	and    %eax,%edx
   11bbe:	48 8b 85 40 f8 ff ff 	mov    -0x7c0(%rbp),%rax
   11bc5:	89 10                	mov    %edx,(%rax)
   11bc7:	8b 05 5b 54 00 00    	mov    0x545b(%rip),%eax        # 17028 <g_52>
   11bcd:	83 e8 01             	sub    $0x1,%eax
   11bd0:	89 05 52 54 00 00    	mov    %eax,0x5452(%rip)        # 17028 <g_52>
   11bd6:	8b 05 4c 54 00 00    	mov    0x544c(%rip),%eax        # 17028 <g_52>
   11bdc:	83 f8 fd             	cmp    $0xfffffffd,%eax
   11bdf:	7c b2                	jl     11b93 <func_79+0x20e>
   11be1:	8b 1d 3d 54 00 00    	mov    0x543d(%rip),%ebx        # 17024 <g_15>
   11be7:	48 8b 85 b0 f7 ff ff 	mov    -0x850(%rbp),%rax
   11bee:	44 0f bf e0          	movswl %ax,%r12d
   11bf2:	48 8b 85 d8 f7 ff ff 	mov    -0x828(%rbp),%rax
   11bf9:	48 8d 15 38 54 00 00 	lea    0x5438(%rip),%rdx        # 17038 <g_99>
   11c00:	48 89 10             	mov    %rdx,(%rax)
   11c03:	48 8b 85 d8 f7 ff ff 	mov    -0x828(%rbp),%rax
   11c0a:	48 8b 10             	mov    (%rax),%rdx
   11c0d:	48 8b 85 e0 f7 ff ff 	mov    -0x820(%rbp),%rax
   11c14:	48 8d 0d 1d 54 00 00 	lea    0x541d(%rip),%rcx        # 17038 <g_99>
   11c1b:	48 89 08             	mov    %rcx,(%rax)
   11c1e:	48 8b 85 e0 f7 ff ff 	mov    -0x820(%rbp),%rax
   11c25:	48 8b 00             	mov    (%rax),%rax
   11c28:	48 39 c2             	cmp    %rax,%rdx
   11c2b:	44 0f b6 ad 2c f7 ff 	movzbl -0x8d4(%rbp),%r13d
   11c32:	ff 
   11c33:	48 8b 05 f6 53 00 00 	mov    0x53f6(%rip),%rax        # 17030 <g_67>
   11c3a:	89 c2                	mov    %eax,%edx
   11c3c:	8b 05 e2 53 00 00    	mov    0x53e2(%rip),%eax        # 17024 <g_15>
   11c42:	31 d0                	xor    %edx,%eax
   11c44:	8b 15 de 53 00 00    	mov    0x53de(%rip),%edx        # 17028 <g_52>
   11c4a:	89 c6                	mov    %eax,%esi
   11c4c:	89 d7                	mov    %edx,%edi
   11c4e:	e8 d2 12 ff ff       	callq  2f25 <safe_div_func_uint32_t_u_u>
   11c53:	41 39 c5             	cmp    %eax,%r13d
   11c56:	0f 95 c0             	setne  %al
   11c59:	0f b6 c0             	movzbl %al,%eax
   11c5c:	be ff 00 00 00       	mov    $0xff,%esi
   11c61:	89 c7                	mov    %eax,%edi
   11c63:	e8 46 0f ff ff       	callq  2bae <safe_mod_func_uint8_t_u_u>
   11c68:	48 8b 85 e8 f7 ff ff 	mov    -0x818(%rbp),%rax
   11c6f:	c6 00 01             	movb   $0x1,(%rax)
   11c72:	48 8b 85 e8 f7 ff ff 	mov    -0x818(%rbp),%rax
   11c79:	0f b6 00             	movzbl (%rax),%eax
   11c7c:	0f b6 c0             	movzbl %al,%eax
   11c7f:	be fa 00 00 00       	mov    $0xfa,%esi
   11c84:	89 c7                	mov    %eax,%edi
   11c86:	e8 50 0f ff ff       	callq  2bdb <safe_div_func_uint8_t_u_u>
   11c8b:	0f b6 c0             	movzbl %al,%eax
   11c8e:	44 89 e6             	mov    %r12d,%esi
   11c91:	89 c7                	mov    %eax,%edi
   11c93:	e8 5d 07 ff ff       	callq  23f5 <safe_mul_func_int16_t_s_s>
   11c98:	0f b6 c0             	movzbl %al,%eax
   11c9b:	89 de                	mov    %ebx,%esi
   11c9d:	89 c7                	mov    %eax,%edi
   11c9f:	e8 1a 10 ff ff       	callq  2cbe <safe_rshift_func_uint8_t_u_u>
   11ca4:	0f b6 d0             	movzbl %al,%edx
   11ca7:	8b 05 7b 53 00 00    	mov    0x537b(%rip),%eax        # 17028 <g_52>
   11cad:	09 d0                	or     %edx,%eax
   11caf:	be 00 00 00 00       	mov    $0x0,%esi
   11cb4:	89 c7                	mov    %eax,%edi
   11cb6:	e8 4a 09 ff ff       	callq  2605 <safe_sub_func_int32_t_s_s>
   11cbb:	85 c0                	test   %eax,%eax
   11cbd:	74 24                	je     11ce3 <func_79+0x35e>
   11cbf:	48 8d 05 72 53 00 00 	lea    0x5372(%rip),%rax        # 17038 <g_99>
   11cc6:	48 89 85 30 f8 ff ff 	mov    %rax,-0x7d0(%rbp)
   11ccd:	48 8b 85 d8 f7 ff ff 	mov    -0x828(%rbp),%rax
   11cd4:	48 8b 95 30 f8 ff ff 	mov    -0x7d0(%rbp),%rdx
   11cdb:	48 89 10             	mov    %rdx,(%rax)
   11cde:	e9 a7 05 00 00       	jmpq   1228a <func_79+0x905>
   11ce3:	c7 85 48 f7 ff ff 81 	movl   $0xc325d181,-0x8b8(%rbp)
   11cea:	d1 25 c3 
   11ced:	c6 85 39 f7 ff ff 01 	movb   $0x1,-0x8c7(%rbp)
   11cf4:	c7 85 4c f7 ff ff 00 	movl   $0x0,-0x8b4(%rbp)
   11cfb:	00 00 00 
   11cfe:	c7 85 70 f7 ff ff b8 	movl   $0xaf7b95b8,-0x890(%rbp)
   11d05:	95 7b af 
   11d08:	c7 85 74 f7 ff ff 2a 	movl   $0x7e93fe2a,-0x88c(%rbp)
   11d0f:	fe 93 7e 
   11d12:	c7 85 78 f7 ff ff e4 	movl   $0xf795cce4,-0x888(%rbp)
   11d19:	cc 95 f7 
   11d1c:	48 8d 85 f0 f8 ff ff 	lea    -0x710(%rbp),%rax
   11d23:	48 8d 15 f6 25 00 00 	lea    0x25f6(%rip),%rdx        # 14320 <g_1644+0x1230>
   11d2a:	b9 6c 00 00 00       	mov    $0x6c,%ecx
   11d2f:	48 89 c7             	mov    %rax,%rdi
   11d32:	48 89 d6             	mov    %rdx,%rsi
   11d35:	f3 48 a5             	rep movsq %ds:(%rsi),%es:(%rdi)
   11d38:	c7 85 50 f7 ff ff 00 	movl   $0x0,-0x8b0(%rbp)
   11d3f:	00 00 00 
   11d42:	eb 1a                	jmp    11d5e <func_79+0x3d9>
   11d44:	8b 85 50 f7 ff ff    	mov    -0x8b0(%rbp),%eax
   11d4a:	48 98                	cltq   
   11d4c:	c7 84 85 50 f8 ff ff 	movl   $0x0,-0x7b0(%rbp,%rax,4)
   11d53:	00 00 00 00 
   11d57:	83 85 50 f7 ff ff 01 	addl   $0x1,-0x8b0(%rbp)
   11d5e:	83 bd 50 f7 ff ff 04 	cmpl   $0x4,-0x8b0(%rbp)
   11d65:	7e dd                	jle    11d44 <func_79+0x3bf>
   11d67:	c6 05 cf 52 00 00 0b 	movb   $0xb,0x52cf(%rip)        # 1703d <g_124>
   11d6e:	e9 78 01 00 00       	jmpq   11eeb <func_79+0x566>
   11d73:	c6 85 3b f7 ff ff 00 	movb   $0x0,-0x8c5(%rbp)
   11d7a:	c7 85 54 f7 ff ff c5 	movl   $0x750682c5,-0x8ac(%rbp)
   11d81:	82 06 75 
   11d84:	48 c7 85 b0 f7 ff ff 	movq   $0xfffffffffffffffe,-0x850(%rbp)
   11d8b:	fe ff ff ff 
   11d8f:	e9 39 01 00 00       	jmpq   11ecd <func_79+0x548>
   11d94:	48 8d 05 2d 5d 00 00 	lea    0x5d2d(%rip),%rax        # 17ac8 <g_105>
   11d9b:	48 89 85 20 f8 ff ff 	mov    %rax,-0x7e0(%rbp)
   11da2:	c7 85 84 f7 ff ff 55 	movl   $0x77144e55,-0x87c(%rbp)
   11da9:	4e 14 77 
   11dac:	48 8b 85 20 f8 ff ff 	mov    -0x7e0(%rbp),%rax
   11db3:	48 8d 15 06 5d 00 00 	lea    0x5d06(%rip),%rdx        # 17ac0 <g_106>
   11dba:	48 89 10             	mov    %rdx,(%rax)
   11dbd:	b8 00 00 00 00       	mov    $0x0,%eax
   11dc2:	09 85 48 f7 ff ff    	or     %eax,-0x8b8(%rbp)
   11dc8:	83 bd 28 f7 ff ff 00 	cmpl   $0x0,-0x8d8(%rbp)
   11dcf:	0f 84 cf 00 00 00    	je     11ea4 <func_79+0x51f>
   11dd5:	48 b8 64 2d 10 44 07 	movabs $0xaac53a0744102d64,%rax
   11ddc:	3a c5 aa 
   11ddf:	48 89 85 28 f8 ff ff 	mov    %rax,-0x7d8(%rbp)
   11de6:	0f b6 05 50 52 00 00 	movzbl 0x5250(%rip),%eax        # 1703d <g_124>
   11ded:	0f b6 d8             	movzbl %al,%ebx
   11df0:	0f b6 85 2c f7 ff ff 	movzbl -0x8d4(%rbp),%eax
   11df7:	89 c6                	mov    %eax,%esi
   11df9:	bf 58 64 00 00       	mov    $0x6458,%edi
   11dfe:	e8 1c 0f ff ff       	callq  2d1f <safe_sub_func_uint16_t_u_u>
   11e03:	48 0f be 85 39 f7 ff 	movsbq -0x8c7(%rbp),%rax
   11e0a:	ff 
   11e0b:	be 00 00 00 00       	mov    $0x0,%esi
   11e10:	48 89 c7             	mov    %rax,%rdi
   11e13:	e8 90 0a ff ff       	callq  28a8 <safe_sub_func_int64_t_s_s>
   11e18:	83 bd 84 f7 ff ff 00 	cmpl   $0x0,-0x87c(%rbp)
   11e1f:	0f 9f c0             	setg   %al
   11e22:	0f b6 c0             	movzbl %al,%eax
   11e25:	39 85 28 f7 ff ff    	cmp    %eax,-0x8d8(%rbp)
   11e2b:	81 bd 84 f7 ff ff ce 	cmpl   $0xa0ce,-0x87c(%rbp)
   11e32:	a0 00 00 
   11e35:	0f 9f c0             	setg   %al
   11e38:	0f b6 c0             	movzbl %al,%eax
   11e3b:	89 de                	mov    %ebx,%esi
   11e3d:	89 c7                	mov    %eax,%edi
   11e3f:	e8 6f 05 ff ff       	callq  23b3 <safe_add_func_int16_t_s_s>
   11e44:	8b 05 de 51 00 00    	mov    0x51de(%rip),%eax        # 17028 <g_52>
   11e4a:	83 f8 01             	cmp    $0x1,%eax
   11e4d:	0f 9f c0             	setg   %al
   11e50:	0f b6 c0             	movzbl %al,%eax
   11e53:	8b 95 28 f7 ff ff    	mov    -0x8d8(%rbp),%edx
   11e59:	89 d6                	mov    %edx,%esi
   11e5b:	89 c7                	mov    %eax,%edi
   11e5d:	e8 c3 10 ff ff       	callq  2f25 <safe_div_func_uint32_t_u_u>
   11e62:	89 c0                	mov    %eax,%eax
   11e64:	48 39 85 28 f8 ff ff 	cmp    %rax,-0x7d8(%rbp)
   11e6b:	0f 97 c0             	seta   %al
   11e6e:	0f b6 d0             	movzbl %al,%edx
   11e71:	48 8b 85 e0 f7 ff ff 	mov    -0x820(%rbp),%rax
   11e78:	48 8b 00             	mov    (%rax),%rax
   11e7b:	8b 00                	mov    (%rax),%eax
   11e7d:	39 c2                	cmp    %eax,%edx
   11e7f:	0f 95 c0             	setne  %al
   11e82:	0f b6 c8             	movzbl %al,%ecx
   11e85:	0f b6 95 2c f7 ff ff 	movzbl -0x8d4(%rbp),%edx
   11e8c:	48 8b 85 e0 f7 ff ff 	mov    -0x820(%rbp),%rax
   11e93:	48 8b 00             	mov    (%rax),%rax
   11e96:	09 ca                	or     %ecx,%edx
   11e98:	89 10                	mov    %edx,(%rax)
   11e9a:	8b 00                	mov    (%rax),%eax
   11e9c:	31 85 54 f7 ff ff    	xor    %eax,-0x8ac(%rbp)
   11ea2:	eb 0e                	jmp    11eb2 <func_79+0x52d>
   11ea4:	0f b6 85 2c f7 ff ff 	movzbl -0x8d4(%rbp),%eax
   11eab:	48 31 85 a8 f7 ff ff 	xor    %rax,-0x858(%rbp)
   11eb2:	48 8b 85 b0 f7 ff ff 	mov    -0x850(%rbp),%rax
   11eb9:	be 09 00 00 00       	mov    $0x9,%esi
   11ebe:	48 89 c7             	mov    %rax,%rdi
   11ec1:	e8 7b 09 ff ff       	callq  2841 <safe_add_func_int64_t_s_s>
   11ec6:	48 89 85 b0 f7 ff ff 	mov    %rax,-0x850(%rbp)
   11ecd:	48 83 bd b0 f7 ff ff 	cmpq   $0x16,-0x850(%rbp)
   11ed4:	16 
   11ed5:	0f 86 b9 fe ff ff    	jbe    11d94 <func_79+0x40f>
   11edb:	0f b6 05 5b 51 00 00 	movzbl 0x515b(%rip),%eax        # 1703d <g_124>
   11ee2:	83 c0 01             	add    $0x1,%eax
   11ee5:	88 05 52 51 00 00    	mov    %al,0x5152(%rip)        # 1703d <g_124>
   11eeb:	0f b6 05 4b 51 00 00 	movzbl 0x514b(%rip),%eax        # 1703d <g_124>
   11ef2:	3c 13                	cmp    $0x13,%al
   11ef4:	0f 86 79 fe ff ff    	jbe    11d73 <func_79+0x3ee>
   11efa:	8b 85 88 fa ff ff    	mov    -0x578(%rbp),%eax
   11f00:	83 e8 01             	sub    $0x1,%eax
   11f03:	89 85 88 fa ff ff    	mov    %eax,-0x578(%rbp)
   11f09:	c7 85 44 f7 ff ff 02 	movl   $0x2,-0x8bc(%rbp)
   11f10:	00 00 00 
   11f13:	e9 65 03 00 00       	jmpq   1227d <func_79+0x8f8>
   11f18:	c7 85 7c f7 ff ff ff 	movl   $0xffffffff,-0x884(%rbp)
   11f1f:	ff ff ff 
   11f22:	c7 85 40 f7 ff ff 00 	movl   $0x0,-0x8c0(%rbp)
   11f29:	00 00 00 
   11f2c:	e9 21 03 00 00       	jmpq   12252 <func_79+0x8cd>
   11f31:	c6 85 3a f7 ff ff 30 	movb   $0x30,-0x8c6(%rbp)
   11f38:	48 8d 85 70 f8 ff ff 	lea    -0x790(%rbp),%rax
   11f3f:	48 83 c0 18          	add    $0x18,%rax
   11f43:	48 89 85 f8 f7 ff ff 	mov    %rax,-0x808(%rbp)
   11f4a:	48 8d 05 f3 50 00 00 	lea    0x50f3(%rip),%rax        # 17044 <g_182+0x4>
   11f51:	48 89 85 90 f8 ff ff 	mov    %rax,-0x770(%rbp)
   11f58:	48 8d 05 e5 50 00 00 	lea    0x50e5(%rip),%rax        # 17044 <g_182+0x4>
   11f5f:	48 89 85 98 f8 ff ff 	mov    %rax,-0x768(%rbp)
   11f66:	48 8d 05 d7 50 00 00 	lea    0x50d7(%rip),%rax        # 17044 <g_182+0x4>
   11f6d:	48 89 85 a0 f8 ff ff 	mov    %rax,-0x760(%rbp)
   11f74:	48 8d 05 c9 50 00 00 	lea    0x50c9(%rip),%rax        # 17044 <g_182+0x4>
   11f7b:	48 89 85 a8 f8 ff ff 	mov    %rax,-0x758(%rbp)
   11f82:	48 c7 85 a0 f7 ff ff 	movq   $0x0,-0x860(%rbp)
   11f89:	00 00 00 00 
   11f8d:	48 8d 85 a0 f7 ff ff 	lea    -0x860(%rbp),%rax
   11f94:	48 89 85 00 f8 ff ff 	mov    %rax,-0x800(%rbp)
   11f9b:	c7 85 58 f7 ff ff 00 	movl   $0x0,-0x8a8(%rbp)
   11fa2:	00 00 00 
   11fa5:	eb 1a                	jmp    11fc1 <func_79+0x63c>
   11fa7:	8b 85 58 f7 ff ff    	mov    -0x8a8(%rbp),%eax
   11fad:	48 98                	cltq   
   11faf:	c7 84 85 48 f8 ff ff 	movl   $0xf8e45f19,-0x7b8(%rbp,%rax,4)
   11fb6:	19 5f e4 f8 
   11fba:	83 85 58 f7 ff ff 01 	addl   $0x1,-0x8a8(%rbp)
   11fc1:	83 bd 58 f7 ff ff 01 	cmpl   $0x1,-0x8a8(%rbp)
   11fc8:	7e dd                	jle    11fa7 <func_79+0x622>
   11fca:	0f b6 9d 2c f7 ff ff 	movzbl -0x8d4(%rbp),%ebx
   11fd1:	48 8b 85 c0 f7 ff ff 	mov    -0x840(%rbp),%rax
   11fd8:	41 89 c4             	mov    %eax,%r12d
   11fdb:	0f b6 05 5b 50 00 00 	movzbl 0x505b(%rip),%eax        # 1703d <g_124>
   11fe2:	0f b6 c0             	movzbl %al,%eax
   11fe5:	be 01 00 00 00       	mov    $0x1,%esi
   11fea:	89 c7                	mov    %eax,%edi
   11fec:	e8 5b 0c ff ff       	callq  2c4c <safe_lshift_func_uint8_t_u_u>
   11ff1:	48 8b 85 f8 f7 ff ff 	mov    -0x808(%rbp),%rax
   11ff8:	48 89 85 b8 f7 ff ff 	mov    %rax,-0x848(%rbp)
   11fff:	48 8b 85 b8 f7 ff ff 	mov    -0x848(%rbp),%rax
   12006:	48 3b 85 f8 f7 ff ff 	cmp    -0x808(%rbp),%rax
   1200d:	0f 95 c0             	setne  %al
   12010:	0f b6 c0             	movzbl %al,%eax
   12013:	44 89 e6             	mov    %r12d,%esi
   12016:	89 c7                	mov    %eax,%edi
   12018:	e8 2b 0e ff ff       	callq  2e48 <safe_rshift_func_uint16_t_u_s>
   1201d:	66 83 f8 05          	cmp    $0x5,%ax
   12021:	0f 96 c0             	setbe  %al
   12024:	0f b6 d0             	movzbl %al,%edx
   12027:	8b 05 f7 4f 00 00    	mov    0x4ff7(%rip),%eax        # 17024 <g_15>
   1202d:	39 c2                	cmp    %eax,%edx
   1202f:	0f 96 c0             	setbe  %al
   12032:	0f b6 c0             	movzbl %al,%eax
   12035:	39 c3                	cmp    %eax,%ebx
   12037:	7e 0c                	jle    12045 <func_79+0x6c0>
   12039:	48 8b 05 f0 4f 00 00 	mov    0x4ff0(%rip),%rax        # 17030 <g_67>
   12040:	48 85 c0             	test   %rax,%rax
   12043:	74 07                	je     1204c <func_79+0x6c7>
   12045:	ba 01 00 00 00       	mov    $0x1,%edx
   1204a:	eb 05                	jmp    12051 <func_79+0x6cc>
   1204c:	ba 00 00 00 00       	mov    $0x0,%edx
   12051:	48 8b 85 e0 f7 ff ff 	mov    -0x820(%rbp),%rax
   12058:	48 8b 00             	mov    (%rax),%rax
   1205b:	89 10                	mov    %edx,(%rax)
   1205d:	8b 00                	mov    (%rax),%eax
   1205f:	39 85 28 f7 ff ff    	cmp    %eax,-0x8d8(%rbp)
   12065:	0f 93 c0             	setae  %al
   12068:	0f b6 c0             	movzbl %al,%eax
   1206b:	21 85 4c f7 ff ff    	and    %eax,-0x8b4(%rbp)
   12071:	0f b6 05 c4 4f 00 00 	movzbl 0x4fc4(%rip),%eax        # 1703c <g_107>
   12078:	0f be c0             	movsbl %al,%eax
   1207b:	39 85 44 f7 ff ff    	cmp    %eax,-0x8bc(%rbp)
   12081:	0f 9f c0             	setg   %al
   12084:	0f b6 c0             	movzbl %al,%eax
   12087:	be 4c 00 00 00       	mov    $0x4c,%esi
   1208c:	89 c7                	mov    %eax,%edi
   1208e:	e8 7f 01 ff ff       	callq  2212 <safe_mul_func_int8_t_s_s>
   12093:	83 e0 c7             	and    $0xffffffc7,%eax
   12096:	0f be d0             	movsbl %al,%edx
   12099:	48 8b 05 20 5a 00 00 	mov    0x5a20(%rip),%rax        # 17ac0 <g_106>
   120a0:	0f b6 00             	movzbl (%rax),%eax
   120a3:	0f be c0             	movsbl %al,%eax
   120a6:	89 d6                	mov    %edx,%esi
   120a8:	89 c7                	mov    %eax,%edi
   120aa:	e8 bb 01 ff ff       	callq  226a <safe_div_func_int8_t_s_s>
   120af:	8b 95 4c f8 ff ff    	mov    -0x7b4(%rbp),%edx
   120b5:	0f be c0             	movsbl %al,%eax
   120b8:	09 d0                	or     %edx,%eax
   120ba:	89 85 4c f8 ff ff    	mov    %eax,-0x7b4(%rbp)
   120c0:	0f b6 85 2c f7 ff ff 	movzbl -0x8d4(%rbp),%eax
   120c7:	89 85 68 f7 ff ff    	mov    %eax,-0x898(%rbp)
   120cd:	81 bd 28 f7 ff ff 2f 	cmpl   $0xc1adad2f,-0x8d8(%rbp)
   120d4:	ad ad c1 
   120d7:	75 12                	jne    120eb <func_79+0x766>
   120d9:	83 bd 28 f7 ff ff 00 	cmpl   $0x0,-0x8d8(%rbp)
   120e0:	0f 84 65 01 00 00    	je     1224b <func_79+0x8c6>
   120e6:	e9 74 01 00 00       	jmpq   1225f <func_79+0x8da>
   120eb:	48 8d 05 5a 4f 00 00 	lea    0x4f5a(%rip),%rax        # 1704c <g_182+0xc>
   120f2:	48 89 85 08 f8 ff ff 	mov    %rax,-0x7f8(%rbp)
   120f9:	48 8d 85 90 f8 ff ff 	lea    -0x770(%rbp),%rax
   12100:	48 89 85 10 f8 ff ff 	mov    %rax,-0x7f0(%rbp)
   12107:	48 8d 05 fa 59 00 00 	lea    0x59fa(%rip),%rax        # 17b08 <g_188+0x28>
   1210e:	48 89 85 18 f8 ff ff 	mov    %rax,-0x7e8(%rbp)
   12115:	c7 85 80 f7 ff ff f6 	movl   $0xfffffff6,-0x880(%rbp)
   1211c:	ff ff ff 
   1211f:	48 8b 85 90 f8 ff ff 	mov    -0x770(%rbp),%rax
   12126:	48 89 85 08 f8 ff ff 	mov    %rax,-0x7f8(%rbp)
   1212d:	48 8b 85 10 f8 ff ff 	mov    -0x7f0(%rbp),%rax
   12134:	48 8b 95 08 f8 ff ff 	mov    -0x7f8(%rbp),%rdx
   1213b:	48 89 10             	mov    %rdx,(%rax)
   1213e:	48 8b 85 10 f8 ff ff 	mov    -0x7f0(%rbp),%rax
   12145:	48 8b 00             	mov    (%rax),%rax
   12148:	48 8d 15 11 4f 00 00 	lea    0x4f11(%rip),%rdx        # 17060 <g_182+0x20>
   1214f:	48 39 d0             	cmp    %rdx,%rax
   12152:	0f 95 c2             	setne  %dl
   12155:	48 8b 85 98 f7 ff ff 	mov    -0x868(%rbp),%rax
   1215c:	0f b6 d2             	movzbl %dl,%edx
   1215f:	89 10                	mov    %edx,(%rax)
   12161:	48 8b 05 c8 59 00 00 	mov    0x59c8(%rip),%rax        # 17b30 <g_187>
   12168:	48 8b 95 00 f8 ff ff 	mov    -0x800(%rbp),%rdx
   1216f:	48 89 10             	mov    %rdx,(%rax)
   12172:	48 8b 05 ef 4e 00 00 	mov    0x4eef(%rip),%rax        # 17068 <g_195>
   12179:	48 83 bd f0 f7 ff ff 	cmpq   $0x0,-0x810(%rbp)
   12180:	00 
   12181:	0f 95 c0             	setne  %al
   12184:	0f b6 d0             	movzbl %al,%edx
   12187:	0f b6 85 2c f7 ff ff 	movzbl -0x8d4(%rbp),%eax
   1218e:	39 c2                	cmp    %eax,%edx
   12190:	0f 9e c0             	setle  %al
   12193:	0f b6 d0             	movzbl %al,%edx
   12196:	0f b6 85 2c f7 ff ff 	movzbl -0x8d4(%rbp),%eax
   1219d:	0f be c0             	movsbl %al,%eax
   121a0:	89 d6                	mov    %edx,%esi
   121a2:	89 c7                	mov    %eax,%edi
   121a4:	e8 2b 00 ff ff       	callq  21d4 <safe_add_func_int8_t_s_s>
   121a9:	0f be d0             	movsbl %al,%edx
   121ac:	0f b6 8d 2c f7 ff ff 	movzbl -0x8d4(%rbp),%ecx
   121b3:	8b 05 7f 4e 00 00    	mov    0x4e7f(%rip),%eax        # 17038 <g_99>
   121b9:	21 c8                	and    %ecx,%eax
   121bb:	85 c0                	test   %eax,%eax
   121bd:	74 14                	je     121d3 <func_79+0x84e>
   121bf:	48 8b 85 98 f7 ff ff 	mov    -0x868(%rbp),%rax
   121c6:	8b 00                	mov    (%rax),%eax
   121c8:	85 c0                	test   %eax,%eax
   121ca:	74 07                	je     121d3 <func_79+0x84e>
   121cc:	b8 01 00 00 00       	mov    $0x1,%eax
   121d1:	eb 05                	jmp    121d8 <func_79+0x853>
   121d3:	b8 00 00 00 00       	mov    $0x0,%eax
   121d8:	83 f8 ff             	cmp    $0xffffffff,%eax
   121db:	0f 9d c0             	setge  %al
   121de:	0f b6 c0             	movzbl %al,%eax
   121e1:	39 c2                	cmp    %eax,%edx
   121e3:	0f 94 c0             	sete   %al
   121e6:	0f b6 c0             	movzbl %al,%eax
   121e9:	23 85 80 f7 ff ff    	and    -0x880(%rbp),%eax
   121ef:	39 85 80 f7 ff ff    	cmp    %eax,-0x880(%rbp)
   121f5:	0f 95 c0             	setne  %al
   121f8:	0f b6 c0             	movzbl %al,%eax
   121fb:	89 c6                	mov    %eax,%esi
   121fd:	bf 52 17 00 00       	mov    $0x1752,%edi
   12202:	e8 da 02 ff ff       	callq  24e1 <safe_lshift_func_int16_t_s_u>
   12207:	48 8d 05 ea 58 00 00 	lea    0x58ea(%rip),%rax        # 17af8 <g_188+0x18>
   1220e:	48 39 85 18 f8 ff ff 	cmp    %rax,-0x7e8(%rbp)
   12215:	0f 94 c0             	sete   %al
   12218:	0f b6 c0             	movzbl %al,%eax
   1221b:	be 09 00 00 00       	mov    $0x9,%esi
   12220:	89 c7                	mov    %eax,%edi
   12222:	e8 2e 02 ff ff       	callq  2455 <safe_div_func_int16_t_s_s>
   12227:	0f bf d0             	movswl %ax,%edx
   1222a:	48 8b 05 ff 4d 00 00 	mov    0x4dff(%rip),%rax        # 17030 <g_67>
   12231:	0f b6 c0             	movzbl %al,%eax
   12234:	89 d6                	mov    %edx,%esi
   12236:	89 c7                	mov    %eax,%edi
   12238:	e8 0f 0a ff ff       	callq  2c4c <safe_lshift_func_uint8_t_u_u>
   1223d:	0f b6 c0             	movzbl %al,%eax
   12240:	0d a9 1c 38 8d       	or     $0x8d381ca9,%eax
   12245:	89 85 7c f7 ff ff    	mov    %eax,-0x884(%rbp)
   1224b:	83 ad 40 f7 ff ff 01 	subl   $0x1,-0x8c0(%rbp)
   12252:	83 bd 40 f7 ff ff fc 	cmpl   $0xfffffffc,-0x8c0(%rbp)
   12259:	0f 85 d2 fc ff ff    	jne    11f31 <func_79+0x5ac>
   1225f:	8b 85 44 f7 ff ff    	mov    -0x8bc(%rbp),%eax
   12265:	0f b7 c0             	movzwl %ax,%eax
   12268:	be 06 00 00 00       	mov    $0x6,%esi
   1226d:	89 c7                	mov    %eax,%edi
   1226f:	e8 ab 0a ff ff       	callq  2d1f <safe_sub_func_uint16_t_u_u>
   12274:	0f b7 c0             	movzwl %ax,%eax
   12277:	89 85 44 f7 ff ff    	mov    %eax,-0x8bc(%rbp)
   1227d:	83 bd 44 f7 ff ff f3 	cmpl   $0xfffffff3,-0x8bc(%rbp)
   12284:	0f 84 8e fc ff ff    	je     11f18 <func_79+0x593>
   1228a:	48 8b 85 e0 f7 ff ff 	mov    -0x820(%rbp),%rax
   12291:	48 8b 00             	mov    (%rax),%rax
   12294:	8b 00                	mov    (%rax),%eax
   12296:	85 c0                	test   %eax,%eax
   12298:	75 1f                	jne    122b9 <func_79+0x934>
   1229a:	0f b6 85 2c f7 ff ff 	movzbl -0x8d4(%rbp),%eax
   122a1:	83 c0 01             	add    $0x1,%eax
   122a4:	88 85 2c f7 ff ff    	mov    %al,-0x8d4(%rbp)
   122aa:	80 bd 2c f7 ff ff 18 	cmpb   $0x18,-0x8d4(%rbp)
   122b1:	0f 86 d2 f7 ff ff    	jbe    11a89 <func_79+0x104>
   122b7:	eb 01                	jmp    122ba <func_79+0x935>
   122b9:	90                   	nop
   122ba:	48 8b 85 c8 f7 ff ff 	mov    -0x838(%rbp),%rax
   122c1:	48 8d 95 3c f7 ff ff 	lea    -0x8c4(%rbp),%rdx
   122c8:	48 89 10             	mov    %rdx,(%rax)
   122cb:	8b 05 67 4d 00 00    	mov    0x4d67(%rip),%eax        # 17038 <g_99>
   122d1:	48 8b 5d d8          	mov    -0x28(%rbp),%rbx
   122d5:	64 48 33 1c 25 28 00 	xor    %fs:0x28,%rbx
   122dc:	00 00 
   122de:	74 05                	je     122e5 <func_79+0x960>
   122e0:	e8 8b fd fe ff       	callq  2070 <__stack_chk_fail@plt>
   122e5:	48 81 c4 c8 08 00 00 	add    $0x8c8,%rsp
   122ec:	5b                   	pop    %rbx
   122ed:	41 5c                	pop    %r12
   122ef:	41 5d                	pop    %r13
   122f1:	5d                   	pop    %rbp
   122f2:	c3                   	retq   

00000000000122f3 <main>:
   122f3:	f3 0f 1e fa          	endbr64 
   122f7:	55                   	push   %rbp
   122f8:	48 89 e5             	mov    %rsp,%rbp
   122fb:	48 83 ec 20          	sub    $0x20,%rsp
   122ff:	89 7d ec             	mov    %edi,-0x14(%rbp)
   12302:	48 89 75 e0          	mov    %rsi,-0x20(%rbp)
   12306:	c7 45 fc 00 00 00 00 	movl   $0x0,-0x4(%rbp)
   1230d:	83 7d ec 02          	cmpl   $0x2,-0x14(%rbp)
   12311:	75 25                	jne    12338 <main+0x45>
   12313:	48 8b 45 e0          	mov    -0x20(%rbp),%rax
   12317:	48 83 c0 08          	add    $0x8,%rax
   1231b:	48 8b 00             	mov    (%rax),%rax
   1231e:	48 8d 35 5b 23 00 00 	lea    0x235b(%rip),%rsi        # 14680 <g_1644+0x1590>
   12325:	48 89 c7             	mov    %rax,%rdi
   12328:	e8 63 fd fe ff       	callq  2090 <strcmp@plt>
   1232d:	85 c0                	test   %eax,%eax
   1232f:	75 07                	jne    12338 <main+0x45>
   12331:	c7 45 fc 01 00 00 00 	movl   $0x1,-0x4(%rbp)
   12338:	e8 4c fe fe ff       	callq  2189 <platform_main_begin>
   1233d:	e8 56 12 ff ff       	callq  3598 <crc32_gentab>
   12342:	e8 6e 14 ff ff       	callq  37b5 <func_1>
   12347:	8b 05 d7 4c 00 00    	mov    0x4cd7(%rip),%eax        # 17024 <g_15>
   1234d:	89 c1                	mov    %eax,%ecx
   1234f:	8b 45 fc             	mov    -0x4(%rbp),%eax
   12352:	89 c2                	mov    %eax,%edx
   12354:	48 8d 35 27 23 00 00 	lea    0x2327(%rip),%rsi        # 14682 <g_1644+0x1592>
   1235b:	48 89 cf             	mov    %rcx,%rdi
   1235e:	e8 90 13 ff ff       	callq  36f3 <transparent_crc>
   12363:	8b 05 bf 4c 00 00    	mov    0x4cbf(%rip),%eax        # 17028 <g_52>
   12369:	48 98                	cltq   
   1236b:	8b 55 fc             	mov    -0x4(%rbp),%edx
   1236e:	48 8d 35 12 23 00 00 	lea    0x2312(%rip),%rsi        # 14687 <g_1644+0x1597>
   12375:	48 89 c7             	mov    %rax,%rdi
   12378:	e8 76 13 ff ff       	callq  36f3 <transparent_crc>
   1237d:	48 8b 05 ac 4c 00 00 	mov    0x4cac(%rip),%rax        # 17030 <g_67>
   12384:	8b 55 fc             	mov    -0x4(%rbp),%edx
   12387:	48 8d 35 fe 22 00 00 	lea    0x22fe(%rip),%rsi        # 1468c <g_1644+0x159c>
   1238e:	48 89 c7             	mov    %rax,%rdi
   12391:	e8 5d 13 ff ff       	callq  36f3 <transparent_crc>
   12396:	8b 05 9c 4c 00 00    	mov    0x4c9c(%rip),%eax        # 17038 <g_99>
   1239c:	48 98                	cltq   
   1239e:	8b 55 fc             	mov    -0x4(%rbp),%edx
   123a1:	48 8d 35 e9 22 00 00 	lea    0x22e9(%rip),%rsi        # 14691 <g_1644+0x15a1>
   123a8:	48 89 c7             	mov    %rax,%rdi
   123ab:	e8 43 13 ff ff       	callq  36f3 <transparent_crc>
   123b0:	0f b6 05 85 4c 00 00 	movzbl 0x4c85(%rip),%eax        # 1703c <g_107>
   123b7:	48 0f be c0          	movsbq %al,%rax
   123bb:	8b 55 fc             	mov    -0x4(%rbp),%edx
   123be:	48 8d 35 d1 22 00 00 	lea    0x22d1(%rip),%rsi        # 14696 <g_1644+0x15a6>
   123c5:	48 89 c7             	mov    %rax,%rdi
   123c8:	e8 26 13 ff ff       	callq  36f3 <transparent_crc>
   123cd:	0f b6 05 69 4c 00 00 	movzbl 0x4c69(%rip),%eax        # 1703d <g_124>
   123d4:	0f b6 c0             	movzbl %al,%eax
   123d7:	8b 55 fc             	mov    -0x4(%rbp),%edx
   123da:	48 8d 35 bb 22 00 00 	lea    0x22bb(%rip),%rsi        # 1469c <g_1644+0x15ac>
   123e1:	48 89 c7             	mov    %rax,%rdi
   123e4:	e8 0a 13 ff ff       	callq  36f3 <transparent_crc>
   123e9:	c7 45 f0 00 00 00 00 	movl   $0x0,-0x10(%rbp)
   123f0:	eb 4b                	jmp    1243d <main+0x14a>
   123f2:	8b 45 f0             	mov    -0x10(%rbp),%eax
   123f5:	48 98                	cltq   
   123f7:	48 8d 14 85 00 00 00 	lea    0x0(,%rax,4),%rdx
   123fe:	00 
   123ff:	48 8d 05 3a 4c 00 00 	lea    0x4c3a(%rip),%rax        # 17040 <g_182>
   12406:	8b 04 02             	mov    (%rdx,%rax,1),%eax
   12409:	48 98                	cltq   
   1240b:	8b 55 fc             	mov    -0x4(%rbp),%edx
   1240e:	48 8d 35 8d 22 00 00 	lea    0x228d(%rip),%rsi        # 146a2 <g_1644+0x15b2>
   12415:	48 89 c7             	mov    %rax,%rdi
   12418:	e8 d6 12 ff ff       	callq  36f3 <transparent_crc>
   1241d:	83 7d fc 00          	cmpl   $0x0,-0x4(%rbp)
   12421:	74 16                	je     12439 <main+0x146>
   12423:	8b 45 f0             	mov    -0x10(%rbp),%eax
   12426:	89 c6                	mov    %eax,%esi
   12428:	48 8d 3d 7c 22 00 00 	lea    0x227c(%rip),%rdi        # 146ab <g_1644+0x15bb>
   1242f:	b8 00 00 00 00       	mov    $0x0,%eax
   12434:	e8 47 fc fe ff       	callq  2080 <printf@plt>
   12439:	83 45 f0 01          	addl   $0x1,-0x10(%rbp)
   1243d:	83 7d f0 08          	cmpl   $0x8,-0x10(%rbp)
   12441:	7e af                	jle    123f2 <main+0xff>
   12443:	0f b6 05 1e 4c 00 00 	movzbl 0x4c1e(%rip),%eax        # 17068 <g_195>
   1244a:	0f b6 c0             	movzbl %al,%eax
   1244d:	8b 55 fc             	mov    -0x4(%rbp),%edx
   12450:	48 8d 35 62 22 00 00 	lea    0x2262(%rip),%rsi        # 146b9 <g_1644+0x15c9>
   12457:	48 89 c7             	mov    %rax,%rdi
   1245a:	e8 94 12 ff ff       	callq  36f3 <transparent_crc>
   1245f:	8b 05 0b 4c 00 00    	mov    0x4c0b(%rip),%eax        # 17070 <g_209>
   12465:	48 98                	cltq   
   12467:	8b 55 fc             	mov    -0x4(%rbp),%edx
   1246a:	48 8d 35 51 22 00 00 	lea    0x2251(%rip),%rsi        # 146c2 <g_1644+0x15d2>
   12471:	48 89 c7             	mov    %rax,%rdi
   12474:	e8 7a 12 ff ff       	callq  36f3 <transparent_crc>
   12479:	0f b7 05 f4 4b 00 00 	movzwl 0x4bf4(%rip),%eax        # 17074 <g_254>
   12480:	48 0f bf c0          	movswq %ax,%rax
   12484:	8b 55 fc             	mov    -0x4(%rbp),%edx
   12487:	48 8d 35 3a 22 00 00 	lea    0x223a(%rip),%rsi        # 146c8 <g_1644+0x15d8>
   1248e:	48 89 c7             	mov    %rax,%rdi
   12491:	e8 5d 12 ff ff       	callq  36f3 <transparent_crc>
   12496:	c7 45 f0 00 00 00 00 	movl   $0x0,-0x10(%rbp)
   1249d:	eb 6d                	jmp    1250c <main+0x219>
   1249f:	c7 45 f4 00 00 00 00 	movl   $0x0,-0xc(%rbp)
   124a6:	eb 5a                	jmp    12502 <main+0x20f>
   124a8:	8b 45 f4             	mov    -0xc(%rbp),%eax
   124ab:	48 98                	cltq   
   124ad:	8b 55 f0             	mov    -0x10(%rbp),%edx
   124b0:	48 63 d2             	movslq %edx,%rdx
   124b3:	48 01 d2             	add    %rdx,%rdx
   124b6:	48 01 d0             	add    %rdx,%rax
   124b9:	48 8d 14 85 00 00 00 	lea    0x0(,%rax,4),%rdx
   124c0:	00 
   124c1:	48 8d 05 b8 4b 00 00 	lea    0x4bb8(%rip),%rax        # 17080 <g_273>
   124c8:	8b 04 02             	mov    (%rdx,%rax,1),%eax
   124cb:	48 98                	cltq   
   124cd:	8b 55 fc             	mov    -0x4(%rbp),%edx
   124d0:	48 8d 35 f7 21 00 00 	lea    0x21f7(%rip),%rsi        # 146ce <g_1644+0x15de>
   124d7:	48 89 c7             	mov    %rax,%rdi
   124da:	e8 14 12 ff ff       	callq  36f3 <transparent_crc>
   124df:	83 7d fc 00          	cmpl   $0x0,-0x4(%rbp)
   124e3:	74 19                	je     124fe <main+0x20b>
   124e5:	8b 55 f4             	mov    -0xc(%rbp),%edx
   124e8:	8b 45 f0             	mov    -0x10(%rbp),%eax
   124eb:	89 c6                	mov    %eax,%esi
   124ed:	48 8d 3d e6 21 00 00 	lea    0x21e6(%rip),%rdi        # 146da <g_1644+0x15ea>
   124f4:	b8 00 00 00 00       	mov    $0x0,%eax
   124f9:	e8 82 fb fe ff       	callq  2080 <printf@plt>
   124fe:	83 45 f4 01          	addl   $0x1,-0xc(%rbp)
   12502:	83 7d f4 01          	cmpl   $0x1,-0xc(%rbp)
   12506:	7e a0                	jle    124a8 <main+0x1b5>
   12508:	83 45 f0 01          	addl   $0x1,-0x10(%rbp)
   1250c:	83 7d f0 07          	cmpl   $0x7,-0x10(%rbp)
   12510:	7e 8d                	jle    1249f <main+0x1ac>
   12512:	b8 5e d4 46 45       	mov    $0x4546d45e,%eax
   12517:	48 98                	cltq   
   12519:	8b 55 fc             	mov    -0x4(%rbp),%edx
   1251c:	48 8d 35 c9 21 00 00 	lea    0x21c9(%rip),%rsi        # 146ec <g_1644+0x15fc>
   12523:	48 89 c7             	mov    %rax,%rdi
   12526:	e8 c8 11 ff ff       	callq  36f3 <transparent_crc>
   1252b:	48 8b 05 8e 4b 00 00 	mov    0x4b8e(%rip),%rax        # 170c0 <g_299>
   12532:	48 89 c1             	mov    %rax,%rcx
   12535:	8b 45 fc             	mov    -0x4(%rbp),%eax
   12538:	89 c2                	mov    %eax,%edx
   1253a:	48 8d 35 b1 21 00 00 	lea    0x21b1(%rip),%rsi        # 146f2 <g_1644+0x1602>
   12541:	48 89 cf             	mov    %rcx,%rdi
   12544:	e8 aa 11 ff ff       	callq  36f3 <transparent_crc>
   12549:	0f b7 05 78 4b 00 00 	movzwl 0x4b78(%rip),%eax        # 170c8 <g_307>
   12550:	0f b7 c0             	movzwl %ax,%eax
   12553:	8b 55 fc             	mov    -0x4(%rbp),%edx
   12556:	48 8d 35 9b 21 00 00 	lea    0x219b(%rip),%rsi        # 146f8 <g_1644+0x1608>
   1255d:	48 89 c7             	mov    %rax,%rdi
   12560:	e8 8e 11 ff ff       	callq  36f3 <transparent_crc>
   12565:	0f b6 05 5e 4b 00 00 	movzbl 0x4b5e(%rip),%eax        # 170ca <g_311>
   1256c:	0f b6 c0             	movzbl %al,%eax
   1256f:	8b 55 fc             	mov    -0x4(%rbp),%edx
   12572:	48 8d 35 85 21 00 00 	lea    0x2185(%rip),%rsi        # 146fe <g_1644+0x160e>
   12579:	48 89 c7             	mov    %rax,%rdi
   1257c:	e8 72 11 ff ff       	callq  36f3 <transparent_crc>
   12581:	0f b7 05 44 4b 00 00 	movzwl 0x4b44(%rip),%eax        # 170cc <g_431>
   12588:	0f b7 c0             	movzwl %ax,%eax
   1258b:	8b 55 fc             	mov    -0x4(%rbp),%edx
   1258e:	48 8d 35 6f 21 00 00 	lea    0x216f(%rip),%rsi        # 14704 <g_1644+0x1614>
   12595:	48 89 c7             	mov    %rax,%rdi
   12598:	e8 56 11 ff ff       	callq  36f3 <transparent_crc>
   1259d:	0f b6 05 b4 0a 00 00 	movzbl 0xab4(%rip),%eax        # 13058 <g_467>
   125a4:	0f b6 c0             	movzbl %al,%eax
   125a7:	8b 55 fc             	mov    -0x4(%rbp),%edx
   125aa:	48 8d 35 59 21 00 00 	lea    0x2159(%rip),%rsi        # 1470a <g_1644+0x161a>
   125b1:	48 89 c7             	mov    %rax,%rdi
   125b4:	e8 3a 11 ff ff       	callq  36f3 <transparent_crc>
   125b9:	8b 05 11 4b 00 00    	mov    0x4b11(%rip),%eax        # 170d0 <g_469>
   125bf:	89 c1                	mov    %eax,%ecx
   125c1:	8b 45 fc             	mov    -0x4(%rbp),%eax
   125c4:	89 c2                	mov    %eax,%edx
   125c6:	48 8d 35 46 21 00 00 	lea    0x2146(%rip),%rsi        # 14713 <g_1644+0x1623>
   125cd:	48 89 cf             	mov    %rcx,%rdi
   125d0:	e8 1e 11 ff ff       	callq  36f3 <transparent_crc>
   125d5:	c7 45 f0 00 00 00 00 	movl   $0x0,-0x10(%rbp)
   125dc:	eb 78                	jmp    12656 <main+0x363>
   125de:	c7 45 f4 00 00 00 00 	movl   $0x0,-0xc(%rbp)
   125e5:	eb 65                	jmp    1264c <main+0x359>
   125e7:	8b 45 f4             	mov    -0xc(%rbp),%eax
   125ea:	48 63 c8             	movslq %eax,%rcx
   125ed:	8b 45 f0             	mov    -0x10(%rbp),%eax
   125f0:	48 63 d0             	movslq %eax,%rdx
   125f3:	48 89 d0             	mov    %rdx,%rax
   125f6:	48 01 c0             	add    %rax,%rax
   125f9:	48 01 d0             	add    %rdx,%rax
   125fc:	48 01 c8             	add    %rcx,%rax
   125ff:	48 8d 14 c5 00 00 00 	lea    0x0(,%rax,8),%rdx
   12606:	00 
   12607:	48 8d 05 d2 4a 00 00 	lea    0x4ad2(%rip),%rax        # 170e0 <g_483>
   1260e:	48 8b 04 02          	mov    (%rdx,%rax,1),%rax
   12612:	48 89 c1             	mov    %rax,%rcx
   12615:	8b 45 fc             	mov    -0x4(%rbp),%eax
   12618:	89 c2                	mov    %eax,%edx
   1261a:	48 8d 35 f8 20 00 00 	lea    0x20f8(%rip),%rsi        # 14719 <g_1644+0x1629>
   12621:	48 89 cf             	mov    %rcx,%rdi
   12624:	e8 ca 10 ff ff       	callq  36f3 <transparent_crc>
   12629:	83 7d fc 00          	cmpl   $0x0,-0x4(%rbp)
   1262d:	74 19                	je     12648 <main+0x355>
   1262f:	8b 55 f4             	mov    -0xc(%rbp),%edx
   12632:	8b 45 f0             	mov    -0x10(%rbp),%eax
   12635:	89 c6                	mov    %eax,%esi
   12637:	48 8d 3d 9c 20 00 00 	lea    0x209c(%rip),%rdi        # 146da <g_1644+0x15ea>
   1263e:	b8 00 00 00 00       	mov    $0x0,%eax
   12643:	e8 38 fa fe ff       	callq  2080 <printf@plt>
   12648:	83 45 f4 01          	addl   $0x1,-0xc(%rbp)
   1264c:	83 7d f4 02          	cmpl   $0x2,-0xc(%rbp)
   12650:	7e 95                	jle    125e7 <main+0x2f4>
   12652:	83 45 f0 01          	addl   $0x1,-0x10(%rbp)
   12656:	83 7d f0 05          	cmpl   $0x5,-0x10(%rbp)
   1265a:	7e 82                	jle    125de <main+0x2eb>
   1265c:	48 8b 05 0d 4b 00 00 	mov    0x4b0d(%rip),%rax        # 17170 <g_484>
   12663:	8b 55 fc             	mov    -0x4(%rbp),%edx
   12666:	48 8d 35 b8 20 00 00 	lea    0x20b8(%rip),%rsi        # 14725 <g_1644+0x1635>
   1266d:	48 89 c7             	mov    %rax,%rdi
   12670:	e8 7e 10 ff ff       	callq  36f3 <transparent_crc>
   12675:	c7 45 f0 00 00 00 00 	movl   $0x0,-0x10(%rbp)
   1267c:	e9 b4 00 00 00       	jmpq   12735 <main+0x442>
   12681:	c7 45 f4 00 00 00 00 	movl   $0x0,-0xc(%rbp)
   12688:	e9 9a 00 00 00       	jmpq   12727 <main+0x434>
   1268d:	c7 45 f8 00 00 00 00 	movl   $0x0,-0x8(%rbp)
   12694:	e9 80 00 00 00       	jmpq   12719 <main+0x426>
   12699:	8b 45 f8             	mov    -0x8(%rbp),%eax
   1269c:	48 63 f0             	movslq %eax,%rsi
   1269f:	8b 45 f0             	mov    -0x10(%rbp),%eax
   126a2:	48 63 d0             	movslq %eax,%rdx
   126a5:	8b 45 f4             	mov    -0xc(%rbp),%eax
   126a8:	48 63 c8             	movslq %eax,%rcx
   126ab:	48 89 d0             	mov    %rdx,%rax
   126ae:	48 c1 e0 02          	shl    $0x2,%rax
   126b2:	48 01 d0             	add    %rdx,%rax
   126b5:	48 c1 e0 02          	shl    $0x2,%rax
   126b9:	48 01 d0             	add    %rdx,%rax
   126bc:	48 01 c0             	add    %rax,%rax
   126bf:	48 89 ca             	mov    %rcx,%rdx
   126c2:	48 c1 e2 03          	shl    $0x3,%rdx
   126c6:	48 29 ca             	sub    %rcx,%rdx
   126c9:	48 01 d0             	add    %rdx,%rax
   126cc:	48 8d 14 30          	lea    (%rax,%rsi,1),%rdx
   126d0:	48 8d 05 a9 4a 00 00 	lea    0x4aa9(%rip),%rax        # 17180 <g_536>
   126d7:	48 01 d0             	add    %rdx,%rax
   126da:	0f b6 00             	movzbl (%rax),%eax
   126dd:	48 0f be c0          	movsbq %al,%rax
   126e1:	8b 55 fc             	mov    -0x4(%rbp),%edx
   126e4:	48 8d 35 40 20 00 00 	lea    0x2040(%rip),%rsi        # 1472b <g_1644+0x163b>
   126eb:	48 89 c7             	mov    %rax,%rdi
   126ee:	e8 00 10 ff ff       	callq  36f3 <transparent_crc>
   126f3:	83 7d fc 00          	cmpl   $0x0,-0x4(%rbp)
   126f7:	74 1c                	je     12715 <main+0x422>
   126f9:	8b 4d f8             	mov    -0x8(%rbp),%ecx
   126fc:	8b 55 f4             	mov    -0xc(%rbp),%edx
   126ff:	8b 45 f0             	mov    -0x10(%rbp),%eax
   12702:	89 c6                	mov    %eax,%esi
   12704:	48 8d 3d 2f 20 00 00 	lea    0x202f(%rip),%rdi        # 1473a <g_1644+0x164a>
   1270b:	b8 00 00 00 00       	mov    $0x0,%eax
   12710:	e8 6b f9 fe ff       	callq  2080 <printf@plt>
   12715:	83 45 f8 01          	addl   $0x1,-0x8(%rbp)
   12719:	83 7d f8 06          	cmpl   $0x6,-0x8(%rbp)
   1271d:	0f 8e 76 ff ff ff    	jle    12699 <main+0x3a6>
   12723:	83 45 f4 01          	addl   $0x1,-0xc(%rbp)
   12727:	83 7d f4 05          	cmpl   $0x5,-0xc(%rbp)
   1272b:	0f 8e 5c ff ff ff    	jle    1268d <main+0x39a>
   12731:	83 45 f0 01          	addl   $0x1,-0x10(%rbp)
   12735:	83 7d f0 05          	cmpl   $0x5,-0x10(%rbp)
   12739:	0f 8e 42 ff ff ff    	jle    12681 <main+0x38e>
   1273f:	0f b6 05 36 4b 00 00 	movzbl 0x4b36(%rip),%eax        # 1727c <g_540>
   12746:	48 0f be c0          	movsbq %al,%rax
   1274a:	8b 55 fc             	mov    -0x4(%rbp),%edx
   1274d:	48 8d 35 fc 1f 00 00 	lea    0x1ffc(%rip),%rsi        # 14750 <g_1644+0x1660>
   12754:	48 89 c7             	mov    %rax,%rdi
   12757:	e8 97 0f ff ff       	callq  36f3 <transparent_crc>
   1275c:	0f b6 05 bd 5b 00 00 	movzbl 0x5bbd(%rip),%eax        # 18320 <g_542>
   12763:	48 0f be c0          	movsbq %al,%rax
   12767:	8b 55 fc             	mov    -0x4(%rbp),%edx
   1276a:	48 8d 35 e5 1f 00 00 	lea    0x1fe5(%rip),%rsi        # 14756 <g_1644+0x1666>
   12771:	48 89 c7             	mov    %rax,%rdi
   12774:	e8 7a 0f ff ff       	callq  36f3 <transparent_crc>
   12779:	c7 45 f0 00 00 00 00 	movl   $0x0,-0x10(%rbp)
   12780:	eb 45                	jmp    127c7 <main+0x4d4>
   12782:	8b 45 f0             	mov    -0x10(%rbp),%eax
   12785:	48 98                	cltq   
   12787:	48 8d 15 f2 4a 00 00 	lea    0x4af2(%rip),%rdx        # 17280 <g_550>
   1278e:	0f b6 04 10          	movzbl (%rax,%rdx,1),%eax
   12792:	0f b6 c0             	movzbl %al,%eax
   12795:	8b 55 fc             	mov    -0x4(%rbp),%edx
   12798:	48 8d 35 bd 1f 00 00 	lea    0x1fbd(%rip),%rsi        # 1475c <g_1644+0x166c>
   1279f:	48 89 c7             	mov    %rax,%rdi
   127a2:	e8 4c 0f ff ff       	callq  36f3 <transparent_crc>
   127a7:	83 7d fc 00          	cmpl   $0x0,-0x4(%rbp)
   127ab:	74 16                	je     127c3 <main+0x4d0>
   127ad:	8b 45 f0             	mov    -0x10(%rbp),%eax
   127b0:	89 c6                	mov    %eax,%esi
   127b2:	48 8d 3d f2 1e 00 00 	lea    0x1ef2(%rip),%rdi        # 146ab <g_1644+0x15bb>
   127b9:	b8 00 00 00 00       	mov    $0x0,%eax
   127be:	e8 bd f8 fe ff       	callq  2080 <printf@plt>
   127c3:	83 45 f0 01          	addl   $0x1,-0x10(%rbp)
   127c7:	83 7d f0 07          	cmpl   $0x7,-0x10(%rbp)
   127cb:	7e b5                	jle    12782 <main+0x48f>
   127cd:	48 8b 05 b4 4a 00 00 	mov    0x4ab4(%rip),%rax        # 17288 <g_572>
   127d4:	8b 55 fc             	mov    -0x4(%rbp),%edx
   127d7:	48 8d 35 87 1f 00 00 	lea    0x1f87(%rip),%rsi        # 14765 <g_1644+0x1675>
   127de:	48 89 c7             	mov    %rax,%rdi
   127e1:	e8 0d 0f ff ff       	callq  36f3 <transparent_crc>
   127e6:	c7 45 f0 00 00 00 00 	movl   $0x0,-0x10(%rbp)
   127ed:	eb 4d                	jmp    1283c <main+0x549>
   127ef:	8b 45 f0             	mov    -0x10(%rbp),%eax
   127f2:	48 98                	cltq   
   127f4:	48 8d 14 c5 00 00 00 	lea    0x0(,%rax,8),%rdx
   127fb:	00 
   127fc:	48 8d 05 9d 4a 00 00 	lea    0x4a9d(%rip),%rax        # 172a0 <g_574>
   12803:	0f b6 04 02          	movzbl (%rdx,%rax,1),%eax
   12807:	0f b6 c0             	movzbl %al,%eax
   1280a:	8b 55 fc             	mov    -0x4(%rbp),%edx
   1280d:	48 8d 35 57 1f 00 00 	lea    0x1f57(%rip),%rsi        # 1476b <g_1644+0x167b>
   12814:	48 89 c7             	mov    %rax,%rdi
   12817:	e8 d7 0e ff ff       	callq  36f3 <transparent_crc>
   1281c:	83 7d fc 00          	cmpl   $0x0,-0x4(%rbp)
   12820:	74 16                	je     12838 <main+0x545>
   12822:	8b 45 f0             	mov    -0x10(%rbp),%eax
   12825:	89 c6                	mov    %eax,%esi
   12827:	48 8d 3d 7d 1e 00 00 	lea    0x1e7d(%rip),%rdi        # 146ab <g_1644+0x15bb>
   1282e:	b8 00 00 00 00       	mov    $0x0,%eax
   12833:	e8 48 f8 fe ff       	callq  2080 <printf@plt>
   12838:	83 45 f0 01          	addl   $0x1,-0x10(%rbp)
   1283c:	83 7d f0 04          	cmpl   $0x4,-0x10(%rbp)
   12840:	7e ad                	jle    127ef <main+0x4fc>
   12842:	8b 05 80 4a 00 00    	mov    0x4a80(%rip),%eax        # 172c8 <g_658>
   12848:	89 c1                	mov    %eax,%ecx
   1284a:	8b 45 fc             	mov    -0x4(%rbp),%eax
   1284d:	89 c2                	mov    %eax,%edx
   1284f:	48 8d 35 21 1f 00 00 	lea    0x1f21(%rip),%rsi        # 14777 <g_1644+0x1687>
   12856:	48 89 cf             	mov    %rcx,%rdi
   12859:	e8 95 0e ff ff       	callq  36f3 <transparent_crc>
   1285e:	c7 45 f0 00 00 00 00 	movl   $0x0,-0x10(%rbp)
   12865:	eb 4d                	jmp    128b4 <main+0x5c1>
   12867:	8b 45 f0             	mov    -0x10(%rbp),%eax
   1286a:	48 98                	cltq   
   1286c:	48 8d 14 85 00 00 00 	lea    0x0(,%rax,4),%rdx
   12873:	00 
   12874:	48 8d 05 65 4a 00 00 	lea    0x4a65(%rip),%rax        # 172e0 <g_771>
   1287b:	8b 04 02             	mov    (%rdx,%rax,1),%eax
   1287e:	89 c1                	mov    %eax,%ecx
   12880:	8b 45 fc             	mov    -0x4(%rbp),%eax
   12883:	89 c2                	mov    %eax,%edx
   12885:	48 8d 35 f1 1e 00 00 	lea    0x1ef1(%rip),%rsi        # 1477d <g_1644+0x168d>
   1288c:	48 89 cf             	mov    %rcx,%rdi
   1288f:	e8 5f 0e ff ff       	callq  36f3 <transparent_crc>
   12894:	83 7d fc 00          	cmpl   $0x0,-0x4(%rbp)
   12898:	74 16                	je     128b0 <main+0x5bd>
   1289a:	8b 45 f0             	mov    -0x10(%rbp),%eax
   1289d:	89 c6                	mov    %eax,%esi
   1289f:	48 8d 3d 05 1e 00 00 	lea    0x1e05(%rip),%rdi        # 146ab <g_1644+0x15bb>
   128a6:	b8 00 00 00 00       	mov    $0x0,%eax
   128ab:	e8 d0 f7 fe ff       	callq  2080 <printf@plt>
   128b0:	83 45 f0 01          	addl   $0x1,-0x10(%rbp)
   128b4:	83 7d f0 08          	cmpl   $0x8,-0x10(%rbp)
   128b8:	7e ad                	jle    12867 <main+0x574>
   128ba:	0f b7 05 43 4a 00 00 	movzwl 0x4a43(%rip),%eax        # 17304 <g_796>
   128c1:	0f b7 c0             	movzwl %ax,%eax
   128c4:	8b 55 fc             	mov    -0x4(%rbp),%edx
   128c7:	48 8d 35 b8 1e 00 00 	lea    0x1eb8(%rip),%rsi        # 14786 <g_1644+0x1696>
   128ce:	48 89 c7             	mov    %rax,%rdi
   128d1:	e8 1d 0e ff ff       	callq  36f3 <transparent_crc>
   128d6:	0f b6 05 2b 4a 00 00 	movzbl 0x4a2b(%rip),%eax        # 17308 <g_814>
   128dd:	0f b6 c0             	movzbl %al,%eax
   128e0:	8b 55 fc             	mov    -0x4(%rbp),%edx
   128e3:	48 8d 35 a2 1e 00 00 	lea    0x1ea2(%rip),%rsi        # 1478c <g_1644+0x169c>
   128ea:	48 89 c7             	mov    %rax,%rdi
   128ed:	e8 01 0e ff ff       	callq  36f3 <transparent_crc>
   128f2:	0f b6 05 17 4a 00 00 	movzbl 0x4a17(%rip),%eax        # 17310 <g_816>
   128f9:	0f b6 c0             	movzbl %al,%eax
   128fc:	8b 55 fc             	mov    -0x4(%rbp),%edx
   128ff:	48 8d 35 8f 1e 00 00 	lea    0x1e8f(%rip),%rsi        # 14795 <g_1644+0x16a5>
   12906:	48 89 c7             	mov    %rax,%rdi
   12909:	e8 e5 0d ff ff       	callq  36f3 <transparent_crc>
   1290e:	0f b6 05 03 4a 00 00 	movzbl 0x4a03(%rip),%eax        # 17318 <g_861>
   12915:	0f b6 c0             	movzbl %al,%eax
   12918:	8b 55 fc             	mov    -0x4(%rbp),%edx
   1291b:	48 8d 35 7c 1e 00 00 	lea    0x1e7c(%rip),%rsi        # 1479e <g_1644+0x16ae>
   12922:	48 89 c7             	mov    %rax,%rdi
   12925:	e8 c9 0d ff ff       	callq  36f3 <transparent_crc>
   1292a:	0f b6 05 ef 49 00 00 	movzbl 0x49ef(%rip),%eax        # 17320 <g_880>
   12931:	0f b6 c0             	movzbl %al,%eax
   12934:	8b 55 fc             	mov    -0x4(%rbp),%edx
   12937:	48 8d 35 69 1e 00 00 	lea    0x1e69(%rip),%rsi        # 147a7 <g_1644+0x16b7>
   1293e:	48 89 c7             	mov    %rax,%rdi
   12941:	e8 ad 0d ff ff       	callq  36f3 <transparent_crc>
   12946:	0f b7 05 db 49 00 00 	movzwl 0x49db(%rip),%eax        # 17328 <g_950>
   1294d:	48 0f bf c0          	movswq %ax,%rax
   12951:	8b 55 fc             	mov    -0x4(%rbp),%edx
   12954:	48 8d 35 55 1e 00 00 	lea    0x1e55(%rip),%rsi        # 147b0 <g_1644+0x16c0>
   1295b:	48 89 c7             	mov    %rax,%rdi
   1295e:	e8 90 0d ff ff       	callq  36f3 <transparent_crc>
   12963:	0f b6 05 c0 49 00 00 	movzbl 0x49c0(%rip),%eax        # 1732a <g_969>
   1296a:	48 0f be c0          	movsbq %al,%rax
   1296e:	8b 55 fc             	mov    -0x4(%rbp),%edx
   12971:	48 8d 35 3e 1e 00 00 	lea    0x1e3e(%rip),%rsi        # 147b6 <g_1644+0x16c6>
   12978:	48 89 c7             	mov    %rax,%rdi
   1297b:	e8 73 0d ff ff       	callq  36f3 <transparent_crc>
   12980:	c7 45 f0 00 00 00 00 	movl   $0x0,-0x10(%rbp)
   12987:	e9 95 00 00 00       	jmpq   12a21 <main+0x72e>
   1298c:	c7 45 f4 00 00 00 00 	movl   $0x0,-0xc(%rbp)
   12993:	eb 7e                	jmp    12a13 <main+0x720>
   12995:	c7 45 f8 00 00 00 00 	movl   $0x0,-0x8(%rbp)
   1299c:	eb 6b                	jmp    12a09 <main+0x716>
   1299e:	8b 45 f8             	mov    -0x8(%rbp),%eax
   129a1:	48 63 c8             	movslq %eax,%rcx
   129a4:	8b 45 f0             	mov    -0x10(%rbp),%eax
   129a7:	48 63 d0             	movslq %eax,%rdx
   129aa:	8b 45 f4             	mov    -0xc(%rbp),%eax
   129ad:	48 98                	cltq   
   129af:	48 01 c2             	add    %rax,%rdx
   129b2:	48 89 d0             	mov    %rdx,%rax
   129b5:	48 c1 e0 03          	shl    $0x3,%rax
   129b9:	48 29 d0             	sub    %rdx,%rax
   129bc:	48 8d 14 08          	lea    (%rax,%rcx,1),%rdx
   129c0:	48 8d 05 79 49 00 00 	lea    0x4979(%rip),%rax        # 17340 <g_982>
   129c7:	48 01 d0             	add    %rdx,%rax
   129ca:	0f b6 00             	movzbl (%rax),%eax
   129cd:	48 0f be c0          	movsbq %al,%rax
   129d1:	8b 55 fc             	mov    -0x4(%rbp),%edx
   129d4:	48 8d 35 e1 1d 00 00 	lea    0x1de1(%rip),%rsi        # 147bc <g_1644+0x16cc>
   129db:	48 89 c7             	mov    %rax,%rdi
   129de:	e8 10 0d ff ff       	callq  36f3 <transparent_crc>
   129e3:	83 7d fc 00          	cmpl   $0x0,-0x4(%rbp)
   129e7:	74 1c                	je     12a05 <main+0x712>
   129e9:	8b 4d f8             	mov    -0x8(%rbp),%ecx
   129ec:	8b 55 f4             	mov    -0xc(%rbp),%edx
   129ef:	8b 45 f0             	mov    -0x10(%rbp),%eax
   129f2:	89 c6                	mov    %eax,%esi
   129f4:	48 8d 3d 3f 1d 00 00 	lea    0x1d3f(%rip),%rdi        # 1473a <g_1644+0x164a>
   129fb:	b8 00 00 00 00       	mov    $0x0,%eax
   12a00:	e8 7b f6 fe ff       	callq  2080 <printf@plt>
   12a05:	83 45 f8 01          	addl   $0x1,-0x8(%rbp)
   12a09:	83 7d f8 06          	cmpl   $0x6,-0x8(%rbp)
   12a0d:	7e 8f                	jle    1299e <main+0x6ab>
   12a0f:	83 45 f4 01          	addl   $0x1,-0xc(%rbp)
   12a13:	83 7d f4 00          	cmpl   $0x0,-0xc(%rbp)
   12a17:	0f 8e 78 ff ff ff    	jle    12995 <main+0x6a2>
   12a1d:	83 45 f0 01          	addl   $0x1,-0x10(%rbp)
   12a21:	83 7d f0 09          	cmpl   $0x9,-0x10(%rbp)
   12a25:	0f 8e 61 ff ff ff    	jle    1298c <main+0x699>
   12a2b:	c7 45 f0 00 00 00 00 	movl   $0x0,-0x10(%rbp)
   12a32:	eb 70                	jmp    12aa4 <main+0x7b1>
   12a34:	c7 45 f4 00 00 00 00 	movl   $0x0,-0xc(%rbp)
   12a3b:	eb 5d                	jmp    12a9a <main+0x7a7>
   12a3d:	8b 45 f4             	mov    -0xc(%rbp),%eax
   12a40:	48 98                	cltq   
   12a42:	8b 55 f0             	mov    -0x10(%rbp),%edx
   12a45:	48 63 d2             	movslq %edx,%rdx
   12a48:	48 c1 e2 03          	shl    $0x3,%rdx
   12a4c:	48 01 d0             	add    %rdx,%rax
   12a4f:	48 8d 14 c5 00 00 00 	lea    0x0(,%rax,8),%rdx
   12a56:	00 
   12a57:	48 8d 05 02 06 00 00 	lea    0x602(%rip),%rax        # 13060 <g_1047>
   12a5e:	0f b6 04 02          	movzbl (%rdx,%rax,1),%eax
   12a62:	0f b6 c0             	movzbl %al,%eax
   12a65:	8b 55 fc             	mov    -0x4(%rbp),%edx
   12a68:	48 8d 35 5c 1d 00 00 	lea    0x1d5c(%rip),%rsi        # 147cb <g_1644+0x16db>
   12a6f:	48 89 c7             	mov    %rax,%rdi
   12a72:	e8 7c 0c ff ff       	callq  36f3 <transparent_crc>
   12a77:	83 7d fc 00          	cmpl   $0x0,-0x4(%rbp)
   12a7b:	74 19                	je     12a96 <main+0x7a3>
   12a7d:	8b 55 f4             	mov    -0xc(%rbp),%edx
   12a80:	8b 45 f0             	mov    -0x10(%rbp),%eax
   12a83:	89 c6                	mov    %eax,%esi
   12a85:	48 8d 3d 4e 1c 00 00 	lea    0x1c4e(%rip),%rdi        # 146da <g_1644+0x15ea>
   12a8c:	b8 00 00 00 00       	mov    $0x0,%eax
   12a91:	e8 ea f5 fe ff       	callq  2080 <printf@plt>
   12a96:	83 45 f4 01          	addl   $0x1,-0xc(%rbp)
   12a9a:	83 7d f4 07          	cmpl   $0x7,-0xc(%rbp)
   12a9e:	7e 9d                	jle    12a3d <main+0x74a>
   12aa0:	83 45 f0 01          	addl   $0x1,-0x10(%rbp)
   12aa4:	83 7d f0 01          	cmpl   $0x1,-0x10(%rbp)
   12aa8:	7e 8a                	jle    12a34 <main+0x741>
   12aaa:	0f b6 05 d7 48 00 00 	movzbl 0x48d7(%rip),%eax        # 17388 <g_1050>
   12ab1:	0f b6 c0             	movzbl %al,%eax
   12ab4:	8b 55 fc             	mov    -0x4(%rbp),%edx
   12ab7:	48 8d 35 1d 1d 00 00 	lea    0x1d1d(%rip),%rsi        # 147db <g_1644+0x16eb>
   12abe:	48 89 c7             	mov    %rax,%rdi
   12ac1:	e8 2d 0c ff ff       	callq  36f3 <transparent_crc>
   12ac6:	0f b6 05 cb 48 00 00 	movzbl 0x48cb(%rip),%eax        # 17398 <g_1140>
   12acd:	0f b6 c0             	movzbl %al,%eax
   12ad0:	8b 55 fc             	mov    -0x4(%rbp),%edx
   12ad3:	48 8d 35 0b 1d 00 00 	lea    0x1d0b(%rip),%rsi        # 147e5 <g_1644+0x16f5>
   12ada:	48 89 c7             	mov    %rax,%rdi
   12add:	e8 11 0c ff ff       	callq  36f3 <transparent_crc>
   12ae2:	48 8b 05 b7 48 00 00 	mov    0x48b7(%rip),%rax        # 173a0 <g_1148>
   12ae9:	48 89 c1             	mov    %rax,%rcx
   12aec:	8b 45 fc             	mov    -0x4(%rbp),%eax
   12aef:	89 c2                	mov    %eax,%edx
   12af1:	48 8d 35 f7 1c 00 00 	lea    0x1cf7(%rip),%rsi        # 147ef <g_1644+0x16ff>
   12af8:	48 89 cf             	mov    %rcx,%rdi
   12afb:	e8 f3 0b ff ff       	callq  36f3 <transparent_crc>
   12b00:	0f b6 05 d9 05 00 00 	movzbl 0x5d9(%rip),%eax        # 130e0 <g_1227>
   12b07:	0f b6 c0             	movzbl %al,%eax
   12b0a:	8b 55 fc             	mov    -0x4(%rbp),%edx
   12b0d:	48 8d 35 e2 1c 00 00 	lea    0x1ce2(%rip),%rsi        # 147f6 <g_1644+0x1706>
   12b14:	48 89 c7             	mov    %rax,%rdi
   12b17:	e8 d7 0b ff ff       	callq  36f3 <transparent_crc>
   12b1c:	8b 05 86 48 00 00    	mov    0x4886(%rip),%eax        # 173a8 <g_1311>
   12b22:	89 c1                	mov    %eax,%ecx
   12b24:	8b 45 fc             	mov    -0x4(%rbp),%eax
   12b27:	89 c2                	mov    %eax,%edx
   12b29:	48 8d 35 d0 1c 00 00 	lea    0x1cd0(%rip),%rsi        # 14800 <g_1644+0x1710>
   12b30:	48 89 cf             	mov    %rcx,%rdi
   12b33:	e8 bb 0b ff ff       	callq  36f3 <transparent_crc>
   12b38:	b8 fd ff ff ff       	mov    $0xfffffffd,%eax
   12b3d:	48 98                	cltq   
   12b3f:	8b 55 fc             	mov    -0x4(%rbp),%edx
   12b42:	48 8d 35 be 1c 00 00 	lea    0x1cbe(%rip),%rsi        # 14807 <g_1644+0x1717>
   12b49:	48 89 c7             	mov    %rax,%rdi
   12b4c:	e8 a2 0b ff ff       	callq  36f3 <transparent_crc>
   12b51:	8b 05 71 58 00 00    	mov    0x5871(%rip),%eax        # 183c8 <g_1366>
   12b57:	89 c1                	mov    %eax,%ecx
   12b59:	8b 45 fc             	mov    -0x4(%rbp),%eax
   12b5c:	89 c2                	mov    %eax,%edx
   12b5e:	48 8d 35 a9 1c 00 00 	lea    0x1ca9(%rip),%rsi        # 1480e <g_1644+0x171e>
   12b65:	48 89 cf             	mov    %rcx,%rdi
   12b68:	e8 86 0b ff ff       	callq  36f3 <transparent_crc>
   12b6d:	8b 05 39 48 00 00    	mov    0x4839(%rip),%eax        # 173ac <g_1381>
   12b73:	89 c1                	mov    %eax,%ecx
   12b75:	8b 45 fc             	mov    -0x4(%rbp),%eax
   12b78:	89 c2                	mov    %eax,%edx
   12b7a:	48 8d 35 94 1c 00 00 	lea    0x1c94(%rip),%rsi        # 14815 <g_1644+0x1725>
   12b81:	48 89 cf             	mov    %rcx,%rdi
   12b84:	e8 6a 0b ff ff       	callq  36f3 <transparent_crc>
   12b89:	0f b6 05 40 58 00 00 	movzbl 0x5840(%rip),%eax        # 183d0 <g_1409>
   12b90:	0f b6 c0             	movzbl %al,%eax
   12b93:	8b 55 fc             	mov    -0x4(%rbp),%edx
   12b96:	48 8d 35 7f 1c 00 00 	lea    0x1c7f(%rip),%rsi        # 1481c <g_1644+0x172c>
   12b9d:	48 89 c7             	mov    %rax,%rdi
   12ba0:	e8 4e 0b ff ff       	callq  36f3 <transparent_crc>
   12ba5:	0f b6 05 04 48 00 00 	movzbl 0x4804(%rip),%eax        # 173b0 <g_1473>
   12bac:	0f b6 c0             	movzbl %al,%eax
   12baf:	8b 55 fc             	mov    -0x4(%rbp),%edx
   12bb2:	48 8d 35 6d 1c 00 00 	lea    0x1c6d(%rip),%rsi        # 14826 <g_1644+0x1736>
   12bb9:	48 89 c7             	mov    %rax,%rdi
   12bbc:	e8 32 0b ff ff       	callq  36f3 <transparent_crc>
   12bc1:	c7 45 f0 00 00 00 00 	movl   $0x0,-0x10(%rbp)
   12bc8:	eb 4d                	jmp    12c17 <main+0x924>
   12bca:	8b 45 f0             	mov    -0x10(%rbp),%eax
   12bcd:	48 98                	cltq   
   12bcf:	48 8d 14 c5 00 00 00 	lea    0x0(,%rax,8),%rdx
   12bd6:	00 
   12bd7:	48 8d 05 e2 47 00 00 	lea    0x47e2(%rip),%rax        # 173c0 <g_1500>
   12bde:	0f b6 04 02          	movzbl (%rdx,%rax,1),%eax
   12be2:	0f b6 c0             	movzbl %al,%eax
   12be5:	8b 55 fc             	mov    -0x4(%rbp),%edx
   12be8:	48 8d 35 41 1c 00 00 	lea    0x1c41(%rip),%rsi        # 14830 <g_1644+0x1740>
   12bef:	48 89 c7             	mov    %rax,%rdi
   12bf2:	e8 fc 0a ff ff       	callq  36f3 <transparent_crc>
   12bf7:	83 7d fc 00          	cmpl   $0x0,-0x4(%rbp)
   12bfb:	74 16                	je     12c13 <main+0x920>
   12bfd:	8b 45 f0             	mov    -0x10(%rbp),%eax
   12c00:	89 c6                	mov    %eax,%esi
   12c02:	48 8d 3d a2 1a 00 00 	lea    0x1aa2(%rip),%rdi        # 146ab <g_1644+0x15bb>
   12c09:	b8 00 00 00 00       	mov    $0x0,%eax
   12c0e:	e8 6d f4 fe ff       	callq  2080 <printf@plt>
   12c13:	83 45 f0 01          	addl   $0x1,-0x10(%rbp)
   12c17:	83 7d f0 02          	cmpl   $0x2,-0x10(%rbp)
   12c1b:	7e ad                	jle    12bca <main+0x8d7>
   12c1d:	0f b6 05 b4 47 00 00 	movzbl 0x47b4(%rip),%eax        # 173d8 <g_1511>
   12c24:	0f b6 c0             	movzbl %al,%eax
   12c27:	8b 55 fc             	mov    -0x4(%rbp),%edx
   12c2a:	48 8d 35 0c 1c 00 00 	lea    0x1c0c(%rip),%rsi        # 1483d <g_1644+0x174d>
   12c31:	48 89 c7             	mov    %rax,%rdi
   12c34:	e8 ba 0a ff ff       	callq  36f3 <transparent_crc>
   12c39:	0f b6 05 a0 47 00 00 	movzbl 0x47a0(%rip),%eax        # 173e0 <g_1587>
   12c40:	0f b6 c0             	movzbl %al,%eax
   12c43:	8b 55 fc             	mov    -0x4(%rbp),%edx
   12c46:	48 8d 35 f7 1b 00 00 	lea    0x1bf7(%rip),%rsi        # 14844 <g_1644+0x1754>
   12c4d:	48 89 c7             	mov    %rax,%rdi
   12c50:	e8 9e 0a ff ff       	callq  36f3 <transparent_crc>
   12c55:	0f b6 05 8c 47 00 00 	movzbl 0x478c(%rip),%eax        # 173e8 <g_1624>
   12c5c:	0f b6 c0             	movzbl %al,%eax
   12c5f:	8b 55 fc             	mov    -0x4(%rbp),%edx
   12c62:	48 8d 35 e5 1b 00 00 	lea    0x1be5(%rip),%rsi        # 1484e <g_1644+0x175e>
   12c69:	48 89 c7             	mov    %rax,%rdi
   12c6c:	e8 82 0a ff ff       	callq  36f3 <transparent_crc>
   12c71:	0f b6 05 78 04 00 00 	movzbl 0x478(%rip),%eax        # 130f0 <g_1644>
   12c78:	0f b6 c0             	movzbl %al,%eax
   12c7b:	8b 55 fc             	mov    -0x4(%rbp),%edx
   12c7e:	48 8d 35 d3 1b 00 00 	lea    0x1bd3(%rip),%rsi        # 14858 <g_1644+0x1768>
   12c85:	48 89 c7             	mov    %rax,%rdi
   12c88:	e8 66 0a ff ff       	callq  36f3 <transparent_crc>
   12c8d:	0f b7 05 5c 47 00 00 	movzwl 0x475c(%rip),%eax        # 173f0 <g_1762>
   12c94:	0f b7 c0             	movzwl %ax,%eax
   12c97:	8b 55 fc             	mov    -0x4(%rbp),%edx
   12c9a:	48 8d 35 c1 1b 00 00 	lea    0x1bc1(%rip),%rsi        # 14862 <g_1644+0x1772>
   12ca1:	48 89 c7             	mov    %rax,%rdi
   12ca4:	e8 4a 0a ff ff       	callq  36f3 <transparent_crc>
   12ca9:	48 8b 05 48 47 00 00 	mov    0x4748(%rip),%rax        # 173f8 <g_1809>
   12cb0:	8b 55 fc             	mov    -0x4(%rbp),%edx
   12cb3:	48 8d 35 af 1b 00 00 	lea    0x1baf(%rip),%rsi        # 14869 <g_1644+0x1779>
   12cba:	48 89 c7             	mov    %rax,%rdi
   12cbd:	e8 31 0a ff ff       	callq  36f3 <transparent_crc>
   12cc2:	8b 05 58 43 00 00    	mov    0x4358(%rip),%eax        # 17020 <crc32_context>
   12cc8:	f7 d0                	not    %eax
   12cca:	89 c2                	mov    %eax,%edx
   12ccc:	8b 45 fc             	mov    -0x4(%rbp),%eax
   12ccf:	89 c6                	mov    %eax,%esi
   12cd1:	89 d7                	mov    %edx,%edi
   12cd3:	e8 bc f4 fe ff       	callq  2194 <platform_main_end>
   12cd8:	b8 00 00 00 00       	mov    $0x0,%eax
   12cdd:	c9                   	leaveq 
   12cde:	c3                   	retq   
   12cdf:	90                   	nop

0000000000012ce0 <__libc_csu_init>:
   12ce0:	f3 0f 1e fa          	endbr64 
   12ce4:	41 57                	push   %r15
   12ce6:	4c 8d 3d b3 40 00 00 	lea    0x40b3(%rip),%r15        # 16da0 <__frame_dummy_init_array_entry>
   12ced:	41 56                	push   %r14
   12cef:	49 89 d6             	mov    %rdx,%r14
   12cf2:	41 55                	push   %r13
   12cf4:	49 89 f5             	mov    %rsi,%r13
   12cf7:	41 54                	push   %r12
   12cf9:	41 89 fc             	mov    %edi,%r12d
   12cfc:	55                   	push   %rbp
   12cfd:	48 8d 2d a4 40 00 00 	lea    0x40a4(%rip),%rbp        # 16da8 <__do_global_dtors_aux_fini_array_entry>
   12d04:	53                   	push   %rbx
   12d05:	4c 29 fd             	sub    %r15,%rbp
   12d08:	48 83 ec 08          	sub    $0x8,%rsp
   12d0c:	e8 ef f2 fe ff       	callq  2000 <_init>
   12d11:	48 c1 fd 03          	sar    $0x3,%rbp
   12d15:	74 1f                	je     12d36 <__libc_csu_init+0x56>
   12d17:	31 db                	xor    %ebx,%ebx
   12d19:	0f 1f 80 00 00 00 00 	nopl   0x0(%rax)
   12d20:	4c 89 f2             	mov    %r14,%rdx
   12d23:	4c 89 ee             	mov    %r13,%rsi
   12d26:	44 89 e7             	mov    %r12d,%edi
   12d29:	41 ff 14 df          	callq  *(%r15,%rbx,8)
   12d2d:	48 83 c3 01          	add    $0x1,%rbx
   12d31:	48 39 dd             	cmp    %rbx,%rbp
   12d34:	75 ea                	jne    12d20 <__libc_csu_init+0x40>
   12d36:	48 83 c4 08          	add    $0x8,%rsp
   12d3a:	5b                   	pop    %rbx
   12d3b:	5d                   	pop    %rbp
   12d3c:	41 5c                	pop    %r12
   12d3e:	41 5d                	pop    %r13
   12d40:	41 5e                	pop    %r14
   12d42:	41 5f                	pop    %r15
   12d44:	c3                   	retq   
   12d45:	66 66 2e 0f 1f 84 00 	data16 nopw %cs:0x0(%rax,%rax,1)
   12d4c:	00 00 00 00 

0000000000012d50 <__libc_csu_fini>:
   12d50:	f3 0f 1e fa          	endbr64 
   12d54:	c3                   	retq   
