


Disassembly of section .text:

00000000000090a0 <_start>:
    90a0:	f3 0f 1e fa          	endbr64 
    90a4:	31 ed                	xor    %ebp,%ebp
    90a6:	49 89 d1             	mov    %rdx,%r9
    90a9:	5e                   	pop    %rsi
    90aa:	48 89 e2             	mov    %rsp,%rdx
    90ad:	48 83 e4 f0          	and    $0xfffffffffffffff0,%rsp
    90b1:	50                   	push   %rax
    90b2:	54                   	push   %rsp
    90b3:	4c 8d 05 46 de 00 00 	lea    0xde46(%rip),%r8        # 16f00 <__libc_csu_fini>
    90ba:	48 8d 0d cf dd 00 00 	lea    0xddcf(%rip),%rcx        # 16e90 <__libc_csu_init>
    90c1:	48 8d 3d 4c cf 00 00 	lea    0xcf4c(%rip),%rdi        # 16014 <main>
    90c8:	ff 15 12 2f 01 00    	callq  *0x12f12(%rip)        # 1bfe0 <__libc_start_main@GLIBC_2.2.5>
    90ce:	f4                   	hlt    
    90cf:	90                   	nop

00000000000090d0 <deregister_tm_clones>:
    90d0:	48 8d 3d 11 6c 01 00 	lea    0x16c11(%rip),%rdi        # 1fce8 <__TMC_END__>
    90d7:	48 8d 05 0a 6c 01 00 	lea    0x16c0a(%rip),%rax        # 1fce8 <__TMC_END__>
    90de:	48 39 f8             	cmp    %rdi,%rax
    90e1:	74 15                	je     90f8 <deregister_tm_clones+0x28>
    90e3:	48 8b 05 ee 2e 01 00 	mov    0x12eee(%rip),%rax        # 1bfd8 <_ITM_deregisterTMCloneTable>
    90ea:	48 85 c0             	test   %rax,%rax
    90ed:	74 09                	je     90f8 <deregister_tm_clones+0x28>
    90ef:	ff e0                	jmpq   *%rax
    90f1:	0f 1f 80 00 00 00 00 	nopl   0x0(%rax)
    90f8:	c3                   	retq   
    90f9:	0f 1f 80 00 00 00 00 	nopl   0x0(%rax)

0000000000009100 <register_tm_clones>:
    9100:	48 8d 3d e1 6b 01 00 	lea    0x16be1(%rip),%rdi        # 1fce8 <__TMC_END__>
    9107:	48 8d 35 da 6b 01 00 	lea    0x16bda(%rip),%rsi        # 1fce8 <__TMC_END__>
    910e:	48 29 fe             	sub    %rdi,%rsi
    9111:	48 89 f0             	mov    %rsi,%rax
    9114:	48 c1 ee 3f          	shr    $0x3f,%rsi
    9118:	48 c1 f8 03          	sar    $0x3,%rax
    911c:	48 01 c6             	add    %rax,%rsi
    911f:	48 d1 fe             	sar    %rsi
    9122:	74 14                	je     9138 <register_tm_clones+0x38>
    9124:	48 8b 05 c5 2e 01 00 	mov    0x12ec5(%rip),%rax        # 1bff0 <_ITM_registerTMCloneTable>
    912b:	48 85 c0             	test   %rax,%rax
    912e:	74 08                	je     9138 <register_tm_clones+0x38>
    9130:	ff e0                	jmpq   *%rax
    9132:	66 0f 1f 44 00 00    	nopw   0x0(%rax,%rax,1)
    9138:	c3                   	retq   
    9139:	0f 1f 80 00 00 00 00 	nopl   0x0(%rax)

0000000000009140 <__do_global_dtors_aux>:
    9140:	f3 0f 1e fa          	endbr64 
    9144:	80 3d b5 6b 01 00 00 	cmpb   $0x0,0x16bb5(%rip)        # 1fd00 <completed.8061>
    914b:	75 2b                	jne    9178 <__do_global_dtors_aux+0x38>
    914d:	55                   	push   %rbp
    914e:	48 83 3d a2 2e 01 00 	cmpq   $0x0,0x12ea2(%rip)        # 1bff8 <__cxa_finalize@GLIBC_2.2.5>
    9155:	00 
    9156:	48 89 e5             	mov    %rsp,%rbp
    9159:	74 0c                	je     9167 <__do_global_dtors_aux+0x27>
    915b:	48 8b 3d a6 2e 01 00 	mov    0x12ea6(%rip),%rdi        # 1c008 <__dso_handle>
    9162:	e8 f9 fe ff ff       	callq  9060 <__cxa_finalize@plt>
    9167:	e8 64 ff ff ff       	callq  90d0 <deregister_tm_clones>
    916c:	c6 05 8d 6b 01 00 01 	movb   $0x1,0x16b8d(%rip)        # 1fd00 <completed.8061>
    9173:	5d                   	pop    %rbp
    9174:	c3                   	retq   
    9175:	0f 1f 00             	nopl   (%rax)
    9178:	c3                   	retq   
    9179:	0f 1f 80 00 00 00 00 	nopl   0x0(%rax)

0000000000009180 <frame_dummy>:
    9180:	f3 0f 1e fa          	endbr64 
    9184:	e9 77 ff ff ff       	jmpq   9100 <register_tm_clones>

0000000000009189 <platform_main_begin>:
    9189:	f3 0f 1e fa          	endbr64 
    918d:	55                   	push   %rbp
    918e:	48 89 e5             	mov    %rsp,%rbp
    9191:	90                   	nop
    9192:	5d                   	pop    %rbp
    9193:	c3                   	retq   

0000000000009194 <platform_main_end>:
    9194:	f3 0f 1e fa          	endbr64 
    9198:	55                   	push   %rbp
    9199:	48 89 e5             	mov    %rsp,%rbp
    919c:	48 83 ec 10          	sub    $0x10,%rsp
    91a0:	89 7d fc             	mov    %edi,-0x4(%rbp)
    91a3:	89 75 f8             	mov    %esi,-0x8(%rbp)
    91a6:	8b 45 fc             	mov    -0x4(%rbp),%eax
    91a9:	89 c6                	mov    %eax,%esi
    91ab:	48 8d 3d 6e de 00 00 	lea    0xde6e(%rip),%rdi        # 17020 <_IO_stdin_used+0x20>
    91b2:	b8 00 00 00 00       	mov    $0x0,%eax
    91b7:	e8 c4 fe ff ff       	callq  9080 <printf@plt>
    91bc:	90                   	nop
    91bd:	c9                   	leaveq 
    91be:	c3                   	retq   

00000000000091bf <safe_unary_minus_func_int8_t_s>:
    91bf:	f3 0f 1e fa          	endbr64 
    91c3:	55                   	push   %rbp
    91c4:	48 89 e5             	mov    %rsp,%rbp
    91c7:	89 f8                	mov    %edi,%eax
    91c9:	88 45 fc             	mov    %al,-0x4(%rbp)
    91cc:	0f b6 45 fc          	movzbl -0x4(%rbp),%eax
    91d0:	f7 d8                	neg    %eax
    91d2:	5d                   	pop    %rbp
    91d3:	c3                   	retq   

00000000000091d4 <safe_add_func_int8_t_s_s>:
    91d4:	f3 0f 1e fa          	endbr64 
    91d8:	55                   	push   %rbp
    91d9:	48 89 e5             	mov    %rsp,%rbp
    91dc:	89 fa                	mov    %edi,%edx
    91de:	89 f0                	mov    %esi,%eax
    91e0:	88 55 fc             	mov    %dl,-0x4(%rbp)
    91e3:	88 45 f8             	mov    %al,-0x8(%rbp)
    91e6:	0f b6 55 fc          	movzbl -0x4(%rbp),%edx
    91ea:	0f b6 45 f8          	movzbl -0x8(%rbp),%eax
    91ee:	01 d0                	add    %edx,%eax
    91f0:	5d                   	pop    %rbp
    91f1:	c3                   	retq   

00000000000091f2 <safe_sub_func_int8_t_s_s>:
    91f2:	f3 0f 1e fa          	endbr64 
    91f6:	55                   	push   %rbp
    91f7:	48 89 e5             	mov    %rsp,%rbp
    91fa:	89 fa                	mov    %edi,%edx
    91fc:	89 f0                	mov    %esi,%eax
    91fe:	88 55 fc             	mov    %dl,-0x4(%rbp)
    9201:	88 45 f8             	mov    %al,-0x8(%rbp)
    9204:	0f b6 55 fc          	movzbl -0x4(%rbp),%edx
    9208:	0f b6 45 f8          	movzbl -0x8(%rbp),%eax
    920c:	29 c2                	sub    %eax,%edx
    920e:	89 d0                	mov    %edx,%eax
    9210:	5d                   	pop    %rbp
    9211:	c3                   	retq   

0000000000009212 <safe_mul_func_int8_t_s_s>:
    9212:	f3 0f 1e fa          	endbr64 
    9216:	55                   	push   %rbp
    9217:	48 89 e5             	mov    %rsp,%rbp
    921a:	89 fa                	mov    %edi,%edx
    921c:	89 f0                	mov    %esi,%eax
    921e:	88 55 fc             	mov    %dl,-0x4(%rbp)
    9221:	88 45 f8             	mov    %al,-0x8(%rbp)
    9224:	0f b6 45 fc          	movzbl -0x4(%rbp),%eax
    9228:	0f b6 55 f8          	movzbl -0x8(%rbp),%edx
    922c:	0f af c2             	imul   %edx,%eax
    922f:	5d                   	pop    %rbp
    9230:	c3                   	retq   

0000000000009231 <safe_mod_func_int8_t_s_s>:
    9231:	f3 0f 1e fa          	endbr64 
    9235:	55                   	push   %rbp
    9236:	48 89 e5             	mov    %rsp,%rbp
    9239:	89 fa                	mov    %edi,%edx
    923b:	89 f0                	mov    %esi,%eax
    923d:	88 55 fc             	mov    %dl,-0x4(%rbp)
    9240:	88 45 f8             	mov    %al,-0x8(%rbp)
    9243:	80 7d f8 00          	cmpb   $0x0,-0x8(%rbp)
    9247:	74 1b                	je     9264 <safe_mod_func_int8_t_s_s+0x33>
    9249:	80 7d fc 80          	cmpb   $0x80,-0x4(%rbp)
    924d:	75 06                	jne    9255 <safe_mod_func_int8_t_s_s+0x24>
    924f:	80 7d f8 ff          	cmpb   $0xff,-0x8(%rbp)
    9253:	74 0f                	je     9264 <safe_mod_func_int8_t_s_s+0x33>
    9255:	0f be 45 fc          	movsbl -0x4(%rbp),%eax
    9259:	0f be 4d f8          	movsbl -0x8(%rbp),%ecx
    925d:	99                   	cltd   
    925e:	f7 f9                	idiv   %ecx
    9260:	89 d0                	mov    %edx,%eax
    9262:	eb 04                	jmp    9268 <safe_mod_func_int8_t_s_s+0x37>
    9264:	0f b6 45 fc          	movzbl -0x4(%rbp),%eax
    9268:	5d                   	pop    %rbp
    9269:	c3                   	retq   

000000000000926a <safe_div_func_int8_t_s_s>:
    926a:	f3 0f 1e fa          	endbr64 
    926e:	55                   	push   %rbp
    926f:	48 89 e5             	mov    %rsp,%rbp
    9272:	89 fa                	mov    %edi,%edx
    9274:	89 f0                	mov    %esi,%eax
    9276:	88 55 fc             	mov    %dl,-0x4(%rbp)
    9279:	88 45 f8             	mov    %al,-0x8(%rbp)
    927c:	80 7d f8 00          	cmpb   $0x0,-0x8(%rbp)
    9280:	74 19                	je     929b <safe_div_func_int8_t_s_s+0x31>
    9282:	80 7d fc 80          	cmpb   $0x80,-0x4(%rbp)
    9286:	75 06                	jne    928e <safe_div_func_int8_t_s_s+0x24>
    9288:	80 7d f8 ff          	cmpb   $0xff,-0x8(%rbp)
    928c:	74 0d                	je     929b <safe_div_func_int8_t_s_s+0x31>
    928e:	0f be 45 fc          	movsbl -0x4(%rbp),%eax
    9292:	0f be 4d f8          	movsbl -0x8(%rbp),%ecx
    9296:	99                   	cltd   
    9297:	f7 f9                	idiv   %ecx
    9299:	eb 04                	jmp    929f <safe_div_func_int8_t_s_s+0x35>
    929b:	0f b6 45 fc          	movzbl -0x4(%rbp),%eax
    929f:	5d                   	pop    %rbp
    92a0:	c3                   	retq   

00000000000092a1 <safe_lshift_func_int8_t_s_s>:
    92a1:	f3 0f 1e fa          	endbr64 
    92a5:	55                   	push   %rbp
    92a6:	48 89 e5             	mov    %rsp,%rbp
    92a9:	89 f8                	mov    %edi,%eax
    92ab:	89 75 f8             	mov    %esi,-0x8(%rbp)
    92ae:	88 45 fc             	mov    %al,-0x4(%rbp)
    92b1:	80 7d fc 00          	cmpb   $0x0,-0x4(%rbp)
    92b5:	78 31                	js     92e8 <safe_lshift_func_int8_t_s_s+0x47>
    92b7:	83 7d f8 00          	cmpl   $0x0,-0x8(%rbp)
    92bb:	78 2b                	js     92e8 <safe_lshift_func_int8_t_s_s+0x47>
    92bd:	83 7d f8 1f          	cmpl   $0x1f,-0x8(%rbp)
    92c1:	7f 25                	jg     92e8 <safe_lshift_func_int8_t_s_s+0x47>
    92c3:	0f be 55 fc          	movsbl -0x4(%rbp),%edx
    92c7:	8b 45 f8             	mov    -0x8(%rbp),%eax
    92ca:	be 7f 00 00 00       	mov    $0x7f,%esi
    92cf:	89 c1                	mov    %eax,%ecx
    92d1:	d3 fe                	sar    %cl,%esi
    92d3:	89 f0                	mov    %esi,%eax
    92d5:	39 c2                	cmp    %eax,%edx
    92d7:	7f 0f                	jg     92e8 <safe_lshift_func_int8_t_s_s+0x47>
    92d9:	0f be 55 fc          	movsbl -0x4(%rbp),%edx
    92dd:	8b 45 f8             	mov    -0x8(%rbp),%eax
    92e0:	89 c1                	mov    %eax,%ecx
    92e2:	d3 e2                	shl    %cl,%edx
    92e4:	89 d0                	mov    %edx,%eax
    92e6:	eb 04                	jmp    92ec <safe_lshift_func_int8_t_s_s+0x4b>
    92e8:	0f b6 45 fc          	movzbl -0x4(%rbp),%eax
    92ec:	5d                   	pop    %rbp
    92ed:	c3                   	retq   

00000000000092ee <safe_lshift_func_int8_t_s_u>:
    92ee:	f3 0f 1e fa          	endbr64 
    92f2:	55                   	push   %rbp
    92f3:	48 89 e5             	mov    %rsp,%rbp
    92f6:	89 f8                	mov    %edi,%eax
    92f8:	89 75 f8             	mov    %esi,-0x8(%rbp)
    92fb:	88 45 fc             	mov    %al,-0x4(%rbp)
    92fe:	80 7d fc 00          	cmpb   $0x0,-0x4(%rbp)
    9302:	78 2b                	js     932f <safe_lshift_func_int8_t_s_u+0x41>
    9304:	83 7d f8 1f          	cmpl   $0x1f,-0x8(%rbp)
    9308:	77 25                	ja     932f <safe_lshift_func_int8_t_s_u+0x41>
    930a:	0f be 55 fc          	movsbl -0x4(%rbp),%edx
    930e:	8b 45 f8             	mov    -0x8(%rbp),%eax
    9311:	be 7f 00 00 00       	mov    $0x7f,%esi
    9316:	89 c1                	mov    %eax,%ecx
    9318:	d3 fe                	sar    %cl,%esi
    931a:	89 f0                	mov    %esi,%eax
    931c:	39 c2                	cmp    %eax,%edx
    931e:	7f 0f                	jg     932f <safe_lshift_func_int8_t_s_u+0x41>
    9320:	0f be 55 fc          	movsbl -0x4(%rbp),%edx
    9324:	8b 45 f8             	mov    -0x8(%rbp),%eax
    9327:	89 c1                	mov    %eax,%ecx
    9329:	d3 e2                	shl    %cl,%edx
    932b:	89 d0                	mov    %edx,%eax
    932d:	eb 04                	jmp    9333 <safe_lshift_func_int8_t_s_u+0x45>
    932f:	0f b6 45 fc          	movzbl -0x4(%rbp),%eax
    9333:	5d                   	pop    %rbp
    9334:	c3                   	retq   

0000000000009335 <safe_rshift_func_int8_t_s_s>:
    9335:	f3 0f 1e fa          	endbr64 
    9339:	55                   	push   %rbp
    933a:	48 89 e5             	mov    %rsp,%rbp
    933d:	89 f8                	mov    %edi,%eax
    933f:	89 75 f8             	mov    %esi,-0x8(%rbp)
    9342:	88 45 fc             	mov    %al,-0x4(%rbp)
    9345:	80 7d fc 00          	cmpb   $0x0,-0x4(%rbp)
    9349:	78 1b                	js     9366 <safe_rshift_func_int8_t_s_s+0x31>
    934b:	83 7d f8 00          	cmpl   $0x0,-0x8(%rbp)
    934f:	78 15                	js     9366 <safe_rshift_func_int8_t_s_s+0x31>
    9351:	83 7d f8 1f          	cmpl   $0x1f,-0x8(%rbp)
    9355:	7f 0f                	jg     9366 <safe_rshift_func_int8_t_s_s+0x31>
    9357:	0f be 55 fc          	movsbl -0x4(%rbp),%edx
    935b:	8b 45 f8             	mov    -0x8(%rbp),%eax
    935e:	89 c1                	mov    %eax,%ecx
    9360:	d3 fa                	sar    %cl,%edx
    9362:	89 d0                	mov    %edx,%eax
    9364:	eb 04                	jmp    936a <safe_rshift_func_int8_t_s_s+0x35>
    9366:	0f b6 45 fc          	movzbl -0x4(%rbp),%eax
    936a:	5d                   	pop    %rbp
    936b:	c3                   	retq   

000000000000936c <safe_rshift_func_int8_t_s_u>:
    936c:	f3 0f 1e fa          	endbr64 
    9370:	55                   	push   %rbp
    9371:	48 89 e5             	mov    %rsp,%rbp
    9374:	89 f8                	mov    %edi,%eax
    9376:	89 75 f8             	mov    %esi,-0x8(%rbp)
    9379:	88 45 fc             	mov    %al,-0x4(%rbp)
    937c:	80 7d fc 00          	cmpb   $0x0,-0x4(%rbp)
    9380:	78 15                	js     9397 <safe_rshift_func_int8_t_s_u+0x2b>
    9382:	83 7d f8 1f          	cmpl   $0x1f,-0x8(%rbp)
    9386:	77 0f                	ja     9397 <safe_rshift_func_int8_t_s_u+0x2b>
    9388:	0f be 55 fc          	movsbl -0x4(%rbp),%edx
    938c:	8b 45 f8             	mov    -0x8(%rbp),%eax
    938f:	89 c1                	mov    %eax,%ecx
    9391:	d3 fa                	sar    %cl,%edx
    9393:	89 d0                	mov    %edx,%eax
    9395:	eb 04                	jmp    939b <safe_rshift_func_int8_t_s_u+0x2f>
    9397:	0f b6 45 fc          	movzbl -0x4(%rbp),%eax
    939b:	5d                   	pop    %rbp
    939c:	c3                   	retq   

000000000000939d <safe_unary_minus_func_int16_t_s>:
    939d:	f3 0f 1e fa          	endbr64 
    93a1:	55                   	push   %rbp
    93a2:	48 89 e5             	mov    %rsp,%rbp
    93a5:	89 f8                	mov    %edi,%eax
    93a7:	66 89 45 fc          	mov    %ax,-0x4(%rbp)
    93ab:	0f b7 45 fc          	movzwl -0x4(%rbp),%eax
    93af:	f7 d8                	neg    %eax
    93b1:	5d                   	pop    %rbp
    93b2:	c3                   	retq   

00000000000093b3 <safe_add_func_int16_t_s_s>:
    93b3:	f3 0f 1e fa          	endbr64 
    93b7:	55                   	push   %rbp
    93b8:	48 89 e5             	mov    %rsp,%rbp
    93bb:	89 fa                	mov    %edi,%edx
    93bd:	89 f0                	mov    %esi,%eax
    93bf:	66 89 55 fc          	mov    %dx,-0x4(%rbp)
    93c3:	66 89 45 f8          	mov    %ax,-0x8(%rbp)
    93c7:	0f b7 55 fc          	movzwl -0x4(%rbp),%edx
    93cb:	0f b7 45 f8          	movzwl -0x8(%rbp),%eax
    93cf:	01 d0                	add    %edx,%eax
    93d1:	5d                   	pop    %rbp
    93d2:	c3                   	retq   

00000000000093d3 <safe_sub_func_int16_t_s_s>:
    93d3:	f3 0f 1e fa          	endbr64 
    93d7:	55                   	push   %rbp
    93d8:	48 89 e5             	mov    %rsp,%rbp
    93db:	89 fa                	mov    %edi,%edx
    93dd:	89 f0                	mov    %esi,%eax
    93df:	66 89 55 fc          	mov    %dx,-0x4(%rbp)
    93e3:	66 89 45 f8          	mov    %ax,-0x8(%rbp)
    93e7:	0f b7 55 fc          	movzwl -0x4(%rbp),%edx
    93eb:	0f b7 45 f8          	movzwl -0x8(%rbp),%eax
    93ef:	29 c2                	sub    %eax,%edx
    93f1:	89 d0                	mov    %edx,%eax
    93f3:	5d                   	pop    %rbp
    93f4:	c3                   	retq   

00000000000093f5 <safe_mul_func_int16_t_s_s>:
    93f5:	f3 0f 1e fa          	endbr64 
    93f9:	55                   	push   %rbp
    93fa:	48 89 e5             	mov    %rsp,%rbp
    93fd:	89 fa                	mov    %edi,%edx
    93ff:	89 f0                	mov    %esi,%eax
    9401:	66 89 55 fc          	mov    %dx,-0x4(%rbp)
    9405:	66 89 45 f8          	mov    %ax,-0x8(%rbp)
    9409:	0f b7 55 fc          	movzwl -0x4(%rbp),%edx
    940d:	0f b7 45 f8          	movzwl -0x8(%rbp),%eax
    9411:	0f af c2             	imul   %edx,%eax
    9414:	5d                   	pop    %rbp
    9415:	c3                   	retq   

0000000000009416 <safe_mod_func_int16_t_s_s>:
    9416:	f3 0f 1e fa          	endbr64 
    941a:	55                   	push   %rbp
    941b:	48 89 e5             	mov    %rsp,%rbp
    941e:	89 fa                	mov    %edi,%edx
    9420:	89 f0                	mov    %esi,%eax
    9422:	66 89 55 fc          	mov    %dx,-0x4(%rbp)
    9426:	66 89 45 f8          	mov    %ax,-0x8(%rbp)
    942a:	66 83 7d f8 00       	cmpw   $0x0,-0x8(%rbp)
    942f:	74 1e                	je     944f <safe_mod_func_int16_t_s_s+0x39>
    9431:	66 81 7d fc 00 80    	cmpw   $0x8000,-0x4(%rbp)
    9437:	75 07                	jne    9440 <safe_mod_func_int16_t_s_s+0x2a>
    9439:	66 83 7d f8 ff       	cmpw   $0xffff,-0x8(%rbp)
    943e:	74 0f                	je     944f <safe_mod_func_int16_t_s_s+0x39>
    9440:	0f bf 45 fc          	movswl -0x4(%rbp),%eax
    9444:	0f bf 4d f8          	movswl -0x8(%rbp),%ecx
    9448:	99                   	cltd   
    9449:	f7 f9                	idiv   %ecx
    944b:	89 d0                	mov    %edx,%eax
    944d:	eb 04                	jmp    9453 <safe_mod_func_int16_t_s_s+0x3d>
    944f:	0f b7 45 fc          	movzwl -0x4(%rbp),%eax
    9453:	5d                   	pop    %rbp
    9454:	c3                   	retq   

0000000000009455 <safe_div_func_int16_t_s_s>:
    9455:	f3 0f 1e fa          	endbr64 
    9459:	55                   	push   %rbp
    945a:	48 89 e5             	mov    %rsp,%rbp
    945d:	89 fa                	mov    %edi,%edx
    945f:	89 f0                	mov    %esi,%eax
    9461:	66 89 55 fc          	mov    %dx,-0x4(%rbp)
    9465:	66 89 45 f8          	mov    %ax,-0x8(%rbp)
    9469:	66 83 7d f8 00       	cmpw   $0x0,-0x8(%rbp)
    946e:	74 1c                	je     948c <safe_div_func_int16_t_s_s+0x37>
    9470:	66 81 7d fc 00 80    	cmpw   $0x8000,-0x4(%rbp)
    9476:	75 07                	jne    947f <safe_div_func_int16_t_s_s+0x2a>
    9478:	66 83 7d f8 ff       	cmpw   $0xffff,-0x8(%rbp)
    947d:	74 0d                	je     948c <safe_div_func_int16_t_s_s+0x37>
    947f:	0f bf 45 fc          	movswl -0x4(%rbp),%eax
    9483:	0f bf 4d f8          	movswl -0x8(%rbp),%ecx
    9487:	99                   	cltd   
    9488:	f7 f9                	idiv   %ecx
    948a:	eb 04                	jmp    9490 <safe_div_func_int16_t_s_s+0x3b>
    948c:	0f b7 45 fc          	movzwl -0x4(%rbp),%eax
    9490:	5d                   	pop    %rbp
    9491:	c3                   	retq   

0000000000009492 <safe_lshift_func_int16_t_s_s>:
    9492:	f3 0f 1e fa          	endbr64 
    9496:	55                   	push   %rbp
    9497:	48 89 e5             	mov    %rsp,%rbp
    949a:	89 f8                	mov    %edi,%eax
    949c:	89 75 f8             	mov    %esi,-0x8(%rbp)
    949f:	66 89 45 fc          	mov    %ax,-0x4(%rbp)
    94a3:	66 83 7d fc 00       	cmpw   $0x0,-0x4(%rbp)
    94a8:	78 31                	js     94db <safe_lshift_func_int16_t_s_s+0x49>
    94aa:	83 7d f8 00          	cmpl   $0x0,-0x8(%rbp)
    94ae:	78 2b                	js     94db <safe_lshift_func_int16_t_s_s+0x49>
    94b0:	83 7d f8 1f          	cmpl   $0x1f,-0x8(%rbp)
    94b4:	7f 25                	jg     94db <safe_lshift_func_int16_t_s_s+0x49>
    94b6:	0f bf 55 fc          	movswl -0x4(%rbp),%edx
    94ba:	8b 45 f8             	mov    -0x8(%rbp),%eax
    94bd:	be ff 7f 00 00       	mov    $0x7fff,%esi
    94c2:	89 c1                	mov    %eax,%ecx
    94c4:	d3 fe                	sar    %cl,%esi
    94c6:	89 f0                	mov    %esi,%eax
    94c8:	39 c2                	cmp    %eax,%edx
    94ca:	7f 0f                	jg     94db <safe_lshift_func_int16_t_s_s+0x49>
    94cc:	0f bf 55 fc          	movswl -0x4(%rbp),%edx
    94d0:	8b 45 f8             	mov    -0x8(%rbp),%eax
    94d3:	89 c1                	mov    %eax,%ecx
    94d5:	d3 e2                	shl    %cl,%edx
    94d7:	89 d0                	mov    %edx,%eax
    94d9:	eb 04                	jmp    94df <safe_lshift_func_int16_t_s_s+0x4d>
    94db:	0f b7 45 fc          	movzwl -0x4(%rbp),%eax
    94df:	5d                   	pop    %rbp
    94e0:	c3                   	retq   

00000000000094e1 <safe_lshift_func_int16_t_s_u>:
    94e1:	f3 0f 1e fa          	endbr64 
    94e5:	55                   	push   %rbp
    94e6:	48 89 e5             	mov    %rsp,%rbp
    94e9:	89 f8                	mov    %edi,%eax
    94eb:	89 75 f8             	mov    %esi,-0x8(%rbp)
    94ee:	66 89 45 fc          	mov    %ax,-0x4(%rbp)
    94f2:	66 83 7d fc 00       	cmpw   $0x0,-0x4(%rbp)
    94f7:	78 2b                	js     9524 <safe_lshift_func_int16_t_s_u+0x43>
    94f9:	83 7d f8 1f          	cmpl   $0x1f,-0x8(%rbp)
    94fd:	77 25                	ja     9524 <safe_lshift_func_int16_t_s_u+0x43>
    94ff:	0f bf 55 fc          	movswl -0x4(%rbp),%edx
    9503:	8b 45 f8             	mov    -0x8(%rbp),%eax
    9506:	be ff 7f 00 00       	mov    $0x7fff,%esi
    950b:	89 c1                	mov    %eax,%ecx
    950d:	d3 fe                	sar    %cl,%esi
    950f:	89 f0                	mov    %esi,%eax
    9511:	39 c2                	cmp    %eax,%edx
    9513:	7f 0f                	jg     9524 <safe_lshift_func_int16_t_s_u+0x43>
    9515:	0f bf 55 fc          	movswl -0x4(%rbp),%edx
    9519:	8b 45 f8             	mov    -0x8(%rbp),%eax
    951c:	89 c1                	mov    %eax,%ecx
    951e:	d3 e2                	shl    %cl,%edx
    9520:	89 d0                	mov    %edx,%eax
    9522:	eb 04                	jmp    9528 <safe_lshift_func_int16_t_s_u+0x47>
    9524:	0f b7 45 fc          	movzwl -0x4(%rbp),%eax
    9528:	5d                   	pop    %rbp
    9529:	c3                   	retq   

000000000000952a <safe_rshift_func_int16_t_s_s>:
    952a:	f3 0f 1e fa          	endbr64 
    952e:	55                   	push   %rbp
    952f:	48 89 e5             	mov    %rsp,%rbp
    9532:	89 f8                	mov    %edi,%eax
    9534:	89 75 f8             	mov    %esi,-0x8(%rbp)
    9537:	66 89 45 fc          	mov    %ax,-0x4(%rbp)
    953b:	66 83 7d fc 00       	cmpw   $0x0,-0x4(%rbp)
    9540:	78 1b                	js     955d <safe_rshift_func_int16_t_s_s+0x33>
    9542:	83 7d f8 00          	cmpl   $0x0,-0x8(%rbp)
    9546:	78 15                	js     955d <safe_rshift_func_int16_t_s_s+0x33>
    9548:	83 7d f8 1f          	cmpl   $0x1f,-0x8(%rbp)
    954c:	7f 0f                	jg     955d <safe_rshift_func_int16_t_s_s+0x33>
    954e:	0f bf 55 fc          	movswl -0x4(%rbp),%edx
    9552:	8b 45 f8             	mov    -0x8(%rbp),%eax
    9555:	89 c1                	mov    %eax,%ecx
    9557:	d3 fa                	sar    %cl,%edx
    9559:	89 d0                	mov    %edx,%eax
    955b:	eb 04                	jmp    9561 <safe_rshift_func_int16_t_s_s+0x37>
    955d:	0f b7 45 fc          	movzwl -0x4(%rbp),%eax
    9561:	5d                   	pop    %rbp
    9562:	c3                   	retq   

0000000000009563 <safe_rshift_func_int16_t_s_u>:
    9563:	f3 0f 1e fa          	endbr64 
    9567:	55                   	push   %rbp
    9568:	48 89 e5             	mov    %rsp,%rbp
    956b:	89 f8                	mov    %edi,%eax
    956d:	89 75 f8             	mov    %esi,-0x8(%rbp)
    9570:	66 89 45 fc          	mov    %ax,-0x4(%rbp)
    9574:	66 83 7d fc 00       	cmpw   $0x0,-0x4(%rbp)
    9579:	78 15                	js     9590 <safe_rshift_func_int16_t_s_u+0x2d>
    957b:	83 7d f8 1f          	cmpl   $0x1f,-0x8(%rbp)
    957f:	77 0f                	ja     9590 <safe_rshift_func_int16_t_s_u+0x2d>
    9581:	0f bf 55 fc          	movswl -0x4(%rbp),%edx
    9585:	8b 45 f8             	mov    -0x8(%rbp),%eax
    9588:	89 c1                	mov    %eax,%ecx
    958a:	d3 fa                	sar    %cl,%edx
    958c:	89 d0                	mov    %edx,%eax
    958e:	eb 04                	jmp    9594 <safe_rshift_func_int16_t_s_u+0x31>
    9590:	0f b7 45 fc          	movzwl -0x4(%rbp),%eax
    9594:	5d                   	pop    %rbp
    9595:	c3                   	retq   

0000000000009596 <safe_unary_minus_func_int32_t_s>:
    9596:	f3 0f 1e fa          	endbr64 
    959a:	55                   	push   %rbp
    959b:	48 89 e5             	mov    %rsp,%rbp
    959e:	89 7d fc             	mov    %edi,-0x4(%rbp)
    95a1:	81 7d fc 00 00 00 80 	cmpl   $0x80000000,-0x4(%rbp)
    95a8:	74 07                	je     95b1 <safe_unary_minus_func_int32_t_s+0x1b>
    95aa:	8b 45 fc             	mov    -0x4(%rbp),%eax
    95ad:	f7 d8                	neg    %eax
    95af:	eb 03                	jmp    95b4 <safe_unary_minus_func_int32_t_s+0x1e>
    95b1:	8b 45 fc             	mov    -0x4(%rbp),%eax
    95b4:	5d                   	pop    %rbp
    95b5:	c3                   	retq   

00000000000095b6 <safe_add_func_int32_t_s_s>:
    95b6:	f3 0f 1e fa          	endbr64 
    95ba:	55                   	push   %rbp
    95bb:	48 89 e5             	mov    %rsp,%rbp
    95be:	89 7d fc             	mov    %edi,-0x4(%rbp)
    95c1:	89 75 f8             	mov    %esi,-0x8(%rbp)
    95c4:	83 7d fc 00          	cmpl   $0x0,-0x4(%rbp)
    95c8:	7e 13                	jle    95dd <safe_add_func_int32_t_s_s+0x27>
    95ca:	83 7d f8 00          	cmpl   $0x0,-0x8(%rbp)
    95ce:	7e 0d                	jle    95dd <safe_add_func_int32_t_s_s+0x27>
    95d0:	b8 ff ff ff 7f       	mov    $0x7fffffff,%eax
    95d5:	2b 45 f8             	sub    -0x8(%rbp),%eax
    95d8:	39 45 fc             	cmp    %eax,-0x4(%rbp)
    95db:	7f 23                	jg     9600 <safe_add_func_int32_t_s_s+0x4a>
    95dd:	83 7d fc 00          	cmpl   $0x0,-0x4(%rbp)
    95e1:	79 13                	jns    95f6 <safe_add_func_int32_t_s_s+0x40>
    95e3:	83 7d f8 00          	cmpl   $0x0,-0x8(%rbp)
    95e7:	79 0d                	jns    95f6 <safe_add_func_int32_t_s_s+0x40>
    95e9:	b8 00 00 00 80       	mov    $0x80000000,%eax
    95ee:	2b 45 f8             	sub    -0x8(%rbp),%eax
    95f1:	39 45 fc             	cmp    %eax,-0x4(%rbp)
    95f4:	7c 0a                	jl     9600 <safe_add_func_int32_t_s_s+0x4a>
    95f6:	8b 55 fc             	mov    -0x4(%rbp),%edx
    95f9:	8b 45 f8             	mov    -0x8(%rbp),%eax
    95fc:	01 d0                	add    %edx,%eax
    95fe:	eb 03                	jmp    9603 <safe_add_func_int32_t_s_s+0x4d>
    9600:	8b 45 fc             	mov    -0x4(%rbp),%eax
    9603:	5d                   	pop    %rbp
    9604:	c3                   	retq   

0000000000009605 <safe_sub_func_int32_t_s_s>:
    9605:	f3 0f 1e fa          	endbr64 
    9609:	55                   	push   %rbp
    960a:	48 89 e5             	mov    %rsp,%rbp
    960d:	89 7d fc             	mov    %edi,-0x4(%rbp)
    9610:	89 75 f8             	mov    %esi,-0x8(%rbp)
    9613:	8b 45 fc             	mov    -0x4(%rbp),%eax
    9616:	33 45 f8             	xor    -0x8(%rbp),%eax
    9619:	89 c2                	mov    %eax,%edx
    961b:	8b 45 fc             	mov    -0x4(%rbp),%eax
    961e:	33 45 f8             	xor    -0x8(%rbp),%eax
    9621:	25 00 00 00 80       	and    $0x80000000,%eax
    9626:	33 45 fc             	xor    -0x4(%rbp),%eax
    9629:	2b 45 f8             	sub    -0x8(%rbp),%eax
    962c:	33 45 f8             	xor    -0x8(%rbp),%eax
    962f:	21 d0                	and    %edx,%eax
    9631:	85 c0                	test   %eax,%eax
    9633:	78 08                	js     963d <safe_sub_func_int32_t_s_s+0x38>
    9635:	8b 45 fc             	mov    -0x4(%rbp),%eax
    9638:	2b 45 f8             	sub    -0x8(%rbp),%eax
    963b:	eb 03                	jmp    9640 <safe_sub_func_int32_t_s_s+0x3b>
    963d:	8b 45 fc             	mov    -0x4(%rbp),%eax
    9640:	5d                   	pop    %rbp
    9641:	c3                   	retq   

0000000000009642 <safe_mul_func_int32_t_s_s>:
    9642:	f3 0f 1e fa          	endbr64 
    9646:	55                   	push   %rbp
    9647:	48 89 e5             	mov    %rsp,%rbp
    964a:	89 7d fc             	mov    %edi,-0x4(%rbp)
    964d:	89 75 f8             	mov    %esi,-0x8(%rbp)
    9650:	83 7d fc 00          	cmpl   $0x0,-0x4(%rbp)
    9654:	7e 14                	jle    966a <safe_mul_func_int32_t_s_s+0x28>
    9656:	83 7d f8 00          	cmpl   $0x0,-0x8(%rbp)
    965a:	7e 0e                	jle    966a <safe_mul_func_int32_t_s_s+0x28>
    965c:	b8 ff ff ff 7f       	mov    $0x7fffffff,%eax
    9661:	99                   	cltd   
    9662:	f7 7d f8             	idivl  -0x8(%rbp)
    9665:	39 45 fc             	cmp    %eax,-0x4(%rbp)
    9668:	7f 5d                	jg     96c7 <safe_mul_func_int32_t_s_s+0x85>
    966a:	83 7d fc 00          	cmpl   $0x0,-0x4(%rbp)
    966e:	7e 14                	jle    9684 <safe_mul_func_int32_t_s_s+0x42>
    9670:	83 7d f8 00          	cmpl   $0x0,-0x8(%rbp)
    9674:	7f 0e                	jg     9684 <safe_mul_func_int32_t_s_s+0x42>
    9676:	b8 00 00 00 80       	mov    $0x80000000,%eax
    967b:	99                   	cltd   
    967c:	f7 7d fc             	idivl  -0x4(%rbp)
    967f:	39 45 f8             	cmp    %eax,-0x8(%rbp)
    9682:	7c 43                	jl     96c7 <safe_mul_func_int32_t_s_s+0x85>
    9684:	83 7d fc 00          	cmpl   $0x0,-0x4(%rbp)
    9688:	7f 14                	jg     969e <safe_mul_func_int32_t_s_s+0x5c>
    968a:	83 7d f8 00          	cmpl   $0x0,-0x8(%rbp)
    968e:	7e 0e                	jle    969e <safe_mul_func_int32_t_s_s+0x5c>
    9690:	b8 00 00 00 80       	mov    $0x80000000,%eax
    9695:	99                   	cltd   
    9696:	f7 7d f8             	idivl  -0x8(%rbp)
    9699:	39 45 fc             	cmp    %eax,-0x4(%rbp)
    969c:	7c 29                	jl     96c7 <safe_mul_func_int32_t_s_s+0x85>
    969e:	83 7d fc 00          	cmpl   $0x0,-0x4(%rbp)
    96a2:	7f 1a                	jg     96be <safe_mul_func_int32_t_s_s+0x7c>
    96a4:	83 7d f8 00          	cmpl   $0x0,-0x8(%rbp)
    96a8:	7f 14                	jg     96be <safe_mul_func_int32_t_s_s+0x7c>
    96aa:	83 7d fc 00          	cmpl   $0x0,-0x4(%rbp)
    96ae:	74 0e                	je     96be <safe_mul_func_int32_t_s_s+0x7c>
    96b0:	b8 ff ff ff 7f       	mov    $0x7fffffff,%eax
    96b5:	99                   	cltd   
    96b6:	f7 7d fc             	idivl  -0x4(%rbp)
    96b9:	39 45 f8             	cmp    %eax,-0x8(%rbp)
    96bc:	7c 09                	jl     96c7 <safe_mul_func_int32_t_s_s+0x85>
    96be:	8b 45 fc             	mov    -0x4(%rbp),%eax
    96c1:	0f af 45 f8          	imul   -0x8(%rbp),%eax
    96c5:	eb 03                	jmp    96ca <safe_mul_func_int32_t_s_s+0x88>
    96c7:	8b 45 fc             	mov    -0x4(%rbp),%eax
    96ca:	5d                   	pop    %rbp
    96cb:	c3                   	retq   

00000000000096cc <safe_mod_func_int32_t_s_s>:
    96cc:	f3 0f 1e fa          	endbr64 
    96d0:	55                   	push   %rbp
    96d1:	48 89 e5             	mov    %rsp,%rbp
    96d4:	89 7d fc             	mov    %edi,-0x4(%rbp)
    96d7:	89 75 f8             	mov    %esi,-0x8(%rbp)
    96da:	83 7d f8 00          	cmpl   $0x0,-0x8(%rbp)
    96de:	74 1a                	je     96fa <safe_mod_func_int32_t_s_s+0x2e>
    96e0:	81 7d fc 00 00 00 80 	cmpl   $0x80000000,-0x4(%rbp)
    96e7:	75 06                	jne    96ef <safe_mod_func_int32_t_s_s+0x23>
    96e9:	83 7d f8 ff          	cmpl   $0xffffffff,-0x8(%rbp)
    96ed:	74 0b                	je     96fa <safe_mod_func_int32_t_s_s+0x2e>
    96ef:	8b 45 fc             	mov    -0x4(%rbp),%eax
    96f2:	99                   	cltd   
    96f3:	f7 7d f8             	idivl  -0x8(%rbp)
    96f6:	89 d0                	mov    %edx,%eax
    96f8:	eb 03                	jmp    96fd <safe_mod_func_int32_t_s_s+0x31>
    96fa:	8b 45 fc             	mov    -0x4(%rbp),%eax
    96fd:	5d                   	pop    %rbp
    96fe:	c3                   	retq   

00000000000096ff <safe_div_func_int32_t_s_s>:
    96ff:	f3 0f 1e fa          	endbr64 
    9703:	55                   	push   %rbp
    9704:	48 89 e5             	mov    %rsp,%rbp
    9707:	89 7d fc             	mov    %edi,-0x4(%rbp)
    970a:	89 75 f8             	mov    %esi,-0x8(%rbp)
    970d:	83 7d f8 00          	cmpl   $0x0,-0x8(%rbp)
    9711:	74 18                	je     972b <safe_div_func_int32_t_s_s+0x2c>
    9713:	81 7d fc 00 00 00 80 	cmpl   $0x80000000,-0x4(%rbp)
    971a:	75 06                	jne    9722 <safe_div_func_int32_t_s_s+0x23>
    971c:	83 7d f8 ff          	cmpl   $0xffffffff,-0x8(%rbp)
    9720:	74 09                	je     972b <safe_div_func_int32_t_s_s+0x2c>
    9722:	8b 45 fc             	mov    -0x4(%rbp),%eax
    9725:	99                   	cltd   
    9726:	f7 7d f8             	idivl  -0x8(%rbp)
    9729:	eb 03                	jmp    972e <safe_div_func_int32_t_s_s+0x2f>
    972b:	8b 45 fc             	mov    -0x4(%rbp),%eax
    972e:	5d                   	pop    %rbp
    972f:	c3                   	retq   

0000000000009730 <safe_lshift_func_int32_t_s_s>:
    9730:	f3 0f 1e fa          	endbr64 
    9734:	55                   	push   %rbp
    9735:	48 89 e5             	mov    %rsp,%rbp
    9738:	89 7d fc             	mov    %edi,-0x4(%rbp)
    973b:	89 75 f8             	mov    %esi,-0x8(%rbp)
    973e:	83 7d fc 00          	cmpl   $0x0,-0x4(%rbp)
    9742:	78 2d                	js     9771 <safe_lshift_func_int32_t_s_s+0x41>
    9744:	83 7d f8 00          	cmpl   $0x0,-0x8(%rbp)
    9748:	78 27                	js     9771 <safe_lshift_func_int32_t_s_s+0x41>
    974a:	83 7d f8 1f          	cmpl   $0x1f,-0x8(%rbp)
    974e:	7f 21                	jg     9771 <safe_lshift_func_int32_t_s_s+0x41>
    9750:	8b 45 f8             	mov    -0x8(%rbp),%eax
    9753:	ba ff ff ff 7f       	mov    $0x7fffffff,%edx
    9758:	89 c1                	mov    %eax,%ecx
    975a:	d3 fa                	sar    %cl,%edx
    975c:	89 d0                	mov    %edx,%eax
    975e:	39 45 fc             	cmp    %eax,-0x4(%rbp)
    9761:	7f 0e                	jg     9771 <safe_lshift_func_int32_t_s_s+0x41>
    9763:	8b 45 f8             	mov    -0x8(%rbp),%eax
    9766:	8b 55 fc             	mov    -0x4(%rbp),%edx
    9769:	89 c1                	mov    %eax,%ecx
    976b:	d3 e2                	shl    %cl,%edx
    976d:	89 d0                	mov    %edx,%eax
    976f:	eb 03                	jmp    9774 <safe_lshift_func_int32_t_s_s+0x44>
    9771:	8b 45 fc             	mov    -0x4(%rbp),%eax
    9774:	5d                   	pop    %rbp
    9775:	c3                   	retq   

0000000000009776 <safe_lshift_func_int32_t_s_u>:
    9776:	f3 0f 1e fa          	endbr64 
    977a:	55                   	push   %rbp
    977b:	48 89 e5             	mov    %rsp,%rbp
    977e:	89 7d fc             	mov    %edi,-0x4(%rbp)
    9781:	89 75 f8             	mov    %esi,-0x8(%rbp)
    9784:	83 7d fc 00          	cmpl   $0x0,-0x4(%rbp)
    9788:	78 27                	js     97b1 <safe_lshift_func_int32_t_s_u+0x3b>
    978a:	83 7d f8 1f          	cmpl   $0x1f,-0x8(%rbp)
    978e:	77 21                	ja     97b1 <safe_lshift_func_int32_t_s_u+0x3b>
    9790:	8b 45 f8             	mov    -0x8(%rbp),%eax
    9793:	ba ff ff ff 7f       	mov    $0x7fffffff,%edx
    9798:	89 c1                	mov    %eax,%ecx
    979a:	d3 fa                	sar    %cl,%edx
    979c:	89 d0                	mov    %edx,%eax
    979e:	39 45 fc             	cmp    %eax,-0x4(%rbp)
    97a1:	7f 0e                	jg     97b1 <safe_lshift_func_int32_t_s_u+0x3b>
    97a3:	8b 45 f8             	mov    -0x8(%rbp),%eax
    97a6:	8b 55 fc             	mov    -0x4(%rbp),%edx
    97a9:	89 c1                	mov    %eax,%ecx
    97ab:	d3 e2                	shl    %cl,%edx
    97ad:	89 d0                	mov    %edx,%eax
    97af:	eb 03                	jmp    97b4 <safe_lshift_func_int32_t_s_u+0x3e>
    97b1:	8b 45 fc             	mov    -0x4(%rbp),%eax
    97b4:	5d                   	pop    %rbp
    97b5:	c3                   	retq   

00000000000097b6 <safe_rshift_func_int32_t_s_s>:
    97b6:	f3 0f 1e fa          	endbr64 
    97ba:	55                   	push   %rbp
    97bb:	48 89 e5             	mov    %rsp,%rbp
    97be:	89 7d fc             	mov    %edi,-0x4(%rbp)
    97c1:	89 75 f8             	mov    %esi,-0x8(%rbp)
    97c4:	83 7d fc 00          	cmpl   $0x0,-0x4(%rbp)
    97c8:	78 1a                	js     97e4 <safe_rshift_func_int32_t_s_s+0x2e>
    97ca:	83 7d f8 00          	cmpl   $0x0,-0x8(%rbp)
    97ce:	78 14                	js     97e4 <safe_rshift_func_int32_t_s_s+0x2e>
    97d0:	83 7d f8 1f          	cmpl   $0x1f,-0x8(%rbp)
    97d4:	7f 0e                	jg     97e4 <safe_rshift_func_int32_t_s_s+0x2e>
    97d6:	8b 45 f8             	mov    -0x8(%rbp),%eax
    97d9:	8b 55 fc             	mov    -0x4(%rbp),%edx
    97dc:	89 c1                	mov    %eax,%ecx
    97de:	d3 fa                	sar    %cl,%edx
    97e0:	89 d0                	mov    %edx,%eax
    97e2:	eb 03                	jmp    97e7 <safe_rshift_func_int32_t_s_s+0x31>
    97e4:	8b 45 fc             	mov    -0x4(%rbp),%eax
    97e7:	5d                   	pop    %rbp
    97e8:	c3                   	retq   

00000000000097e9 <safe_rshift_func_int32_t_s_u>:
    97e9:	f3 0f 1e fa          	endbr64 
    97ed:	55                   	push   %rbp
    97ee:	48 89 e5             	mov    %rsp,%rbp
    97f1:	89 7d fc             	mov    %edi,-0x4(%rbp)
    97f4:	89 75 f8             	mov    %esi,-0x8(%rbp)
    97f7:	83 7d fc 00          	cmpl   $0x0,-0x4(%rbp)
    97fb:	78 14                	js     9811 <safe_rshift_func_int32_t_s_u+0x28>
    97fd:	83 7d f8 1f          	cmpl   $0x1f,-0x8(%rbp)
    9801:	77 0e                	ja     9811 <safe_rshift_func_int32_t_s_u+0x28>
    9803:	8b 45 f8             	mov    -0x8(%rbp),%eax
    9806:	8b 55 fc             	mov    -0x4(%rbp),%edx
    9809:	89 c1                	mov    %eax,%ecx
    980b:	d3 fa                	sar    %cl,%edx
    980d:	89 d0                	mov    %edx,%eax
    980f:	eb 03                	jmp    9814 <safe_rshift_func_int32_t_s_u+0x2b>
    9811:	8b 45 fc             	mov    -0x4(%rbp),%eax
    9814:	5d                   	pop    %rbp
    9815:	c3                   	retq   

0000000000009816 <safe_unary_minus_func_int64_t_s>:
    9816:	f3 0f 1e fa          	endbr64 
    981a:	55                   	push   %rbp
    981b:	48 89 e5             	mov    %rsp,%rbp
    981e:	48 89 7d f8          	mov    %rdi,-0x8(%rbp)
    9822:	48 b8 00 00 00 00 00 	movabs $0x8000000000000000,%rax
    9829:	00 00 80 
    982c:	48 39 45 f8          	cmp    %rax,-0x8(%rbp)
    9830:	74 09                	je     983b <safe_unary_minus_func_int64_t_s+0x25>
    9832:	48 8b 45 f8          	mov    -0x8(%rbp),%rax
    9836:	48 f7 d8             	neg    %rax
    9839:	eb 04                	jmp    983f <safe_unary_minus_func_int64_t_s+0x29>
    983b:	48 8b 45 f8          	mov    -0x8(%rbp),%rax
    983f:	5d                   	pop    %rbp
    9840:	c3                   	retq   

0000000000009841 <safe_add_func_int64_t_s_s>:
    9841:	f3 0f 1e fa          	endbr64 
    9845:	55                   	push   %rbp
    9846:	48 89 e5             	mov    %rsp,%rbp
    9849:	48 89 7d f8          	mov    %rdi,-0x8(%rbp)
    984d:	48 89 75 f0          	mov    %rsi,-0x10(%rbp)
    9851:	48 83 7d f8 00       	cmpq   $0x0,-0x8(%rbp)
    9856:	7e 1b                	jle    9873 <safe_add_func_int64_t_s_s+0x32>
    9858:	48 83 7d f0 00       	cmpq   $0x0,-0x10(%rbp)
    985d:	7e 14                	jle    9873 <safe_add_func_int64_t_s_s+0x32>
    985f:	48 b8 ff ff ff ff ff 	movabs $0x7fffffffffffffff,%rax
    9866:	ff ff 7f 
    9869:	48 2b 45 f0          	sub    -0x10(%rbp),%rax
    986d:	48 39 45 f8          	cmp    %rax,-0x8(%rbp)
    9871:	7f 2f                	jg     98a2 <safe_add_func_int64_t_s_s+0x61>
    9873:	48 83 7d f8 00       	cmpq   $0x0,-0x8(%rbp)
    9878:	79 1b                	jns    9895 <safe_add_func_int64_t_s_s+0x54>
    987a:	48 83 7d f0 00       	cmpq   $0x0,-0x10(%rbp)
    987f:	79 14                	jns    9895 <safe_add_func_int64_t_s_s+0x54>
    9881:	48 b8 00 00 00 00 00 	movabs $0x8000000000000000,%rax
    9888:	00 00 80 
    988b:	48 2b 45 f0          	sub    -0x10(%rbp),%rax
    988f:	48 39 45 f8          	cmp    %rax,-0x8(%rbp)
    9893:	7c 0d                	jl     98a2 <safe_add_func_int64_t_s_s+0x61>
    9895:	48 8b 55 f8          	mov    -0x8(%rbp),%rdx
    9899:	48 8b 45 f0          	mov    -0x10(%rbp),%rax
    989d:	48 01 d0             	add    %rdx,%rax
    98a0:	eb 04                	jmp    98a6 <safe_add_func_int64_t_s_s+0x65>
    98a2:	48 8b 45 f8          	mov    -0x8(%rbp),%rax
    98a6:	5d                   	pop    %rbp
    98a7:	c3                   	retq   

00000000000098a8 <safe_sub_func_int64_t_s_s>:
    98a8:	f3 0f 1e fa          	endbr64 
    98ac:	55                   	push   %rbp
    98ad:	48 89 e5             	mov    %rsp,%rbp
    98b0:	48 89 7d f8          	mov    %rdi,-0x8(%rbp)
    98b4:	48 89 75 f0          	mov    %rsi,-0x10(%rbp)
    98b8:	48 8b 45 f8          	mov    -0x8(%rbp),%rax
    98bc:	48 33 45 f0          	xor    -0x10(%rbp),%rax
    98c0:	48 89 c2             	mov    %rax,%rdx
    98c3:	48 8b 45 f8          	mov    -0x8(%rbp),%rax
    98c7:	48 33 45 f0          	xor    -0x10(%rbp),%rax
    98cb:	48 b9 00 00 00 00 00 	movabs $0x8000000000000000,%rcx
    98d2:	00 00 80 
    98d5:	48 21 c8             	and    %rcx,%rax
    98d8:	48 33 45 f8          	xor    -0x8(%rbp),%rax
    98dc:	48 2b 45 f0          	sub    -0x10(%rbp),%rax
    98e0:	48 33 45 f0          	xor    -0x10(%rbp),%rax
    98e4:	48 21 d0             	and    %rdx,%rax
    98e7:	48 85 c0             	test   %rax,%rax
    98ea:	78 0a                	js     98f6 <safe_sub_func_int64_t_s_s+0x4e>
    98ec:	48 8b 45 f8          	mov    -0x8(%rbp),%rax
    98f0:	48 2b 45 f0          	sub    -0x10(%rbp),%rax
    98f4:	eb 04                	jmp    98fa <safe_sub_func_int64_t_s_s+0x52>
    98f6:	48 8b 45 f8          	mov    -0x8(%rbp),%rax
    98fa:	5d                   	pop    %rbp
    98fb:	c3                   	retq   

00000000000098fc <safe_mul_func_int64_t_s_s>:
    98fc:	f3 0f 1e fa          	endbr64 
    9900:	55                   	push   %rbp
    9901:	48 89 e5             	mov    %rsp,%rbp
    9904:	48 89 7d f8          	mov    %rdi,-0x8(%rbp)
    9908:	48 89 75 f0          	mov    %rsi,-0x10(%rbp)
    990c:	48 83 7d f8 00       	cmpq   $0x0,-0x8(%rbp)
    9911:	7e 1d                	jle    9930 <safe_mul_func_int64_t_s_s+0x34>
    9913:	48 83 7d f0 00       	cmpq   $0x0,-0x10(%rbp)
    9918:	7e 16                	jle    9930 <safe_mul_func_int64_t_s_s+0x34>
    991a:	48 b8 ff ff ff ff ff 	movabs $0x7fffffffffffffff,%rax
    9921:	ff ff 7f 
    9924:	48 99                	cqto   
    9926:	48 f7 7d f0          	idivq  -0x10(%rbp)
    992a:	48 39 45 f8          	cmp    %rax,-0x8(%rbp)
    992e:	7f 7e                	jg     99ae <safe_mul_func_int64_t_s_s+0xb2>
    9930:	48 83 7d f8 00       	cmpq   $0x0,-0x8(%rbp)
    9935:	7e 1d                	jle    9954 <safe_mul_func_int64_t_s_s+0x58>
    9937:	48 83 7d f0 00       	cmpq   $0x0,-0x10(%rbp)
    993c:	7f 16                	jg     9954 <safe_mul_func_int64_t_s_s+0x58>
    993e:	48 b8 00 00 00 00 00 	movabs $0x8000000000000000,%rax
    9945:	00 00 80 
    9948:	48 99                	cqto   
    994a:	48 f7 7d f8          	idivq  -0x8(%rbp)
    994e:	48 39 45 f0          	cmp    %rax,-0x10(%rbp)
    9952:	7c 5a                	jl     99ae <safe_mul_func_int64_t_s_s+0xb2>
    9954:	48 83 7d f8 00       	cmpq   $0x0,-0x8(%rbp)
    9959:	7f 1d                	jg     9978 <safe_mul_func_int64_t_s_s+0x7c>
    995b:	48 83 7d f0 00       	cmpq   $0x0,-0x10(%rbp)
    9960:	7e 16                	jle    9978 <safe_mul_func_int64_t_s_s+0x7c>
    9962:	48 b8 00 00 00 00 00 	movabs $0x8000000000000000,%rax
    9969:	00 00 80 
    996c:	48 99                	cqto   
    996e:	48 f7 7d f0          	idivq  -0x10(%rbp)
    9972:	48 39 45 f8          	cmp    %rax,-0x8(%rbp)
    9976:	7c 36                	jl     99ae <safe_mul_func_int64_t_s_s+0xb2>
    9978:	48 83 7d f8 00       	cmpq   $0x0,-0x8(%rbp)
    997d:	7f 24                	jg     99a3 <safe_mul_func_int64_t_s_s+0xa7>
    997f:	48 83 7d f0 00       	cmpq   $0x0,-0x10(%rbp)
    9984:	7f 1d                	jg     99a3 <safe_mul_func_int64_t_s_s+0xa7>
    9986:	48 83 7d f8 00       	cmpq   $0x0,-0x8(%rbp)
    998b:	74 16                	je     99a3 <safe_mul_func_int64_t_s_s+0xa7>
    998d:	48 b8 ff ff ff ff ff 	movabs $0x7fffffffffffffff,%rax
    9994:	ff ff 7f 
    9997:	48 99                	cqto   
    9999:	48 f7 7d f8          	idivq  -0x8(%rbp)
    999d:	48 39 45 f0          	cmp    %rax,-0x10(%rbp)
    99a1:	7c 0b                	jl     99ae <safe_mul_func_int64_t_s_s+0xb2>
    99a3:	48 8b 45 f8          	mov    -0x8(%rbp),%rax
    99a7:	48 0f af 45 f0       	imul   -0x10(%rbp),%rax
    99ac:	eb 04                	jmp    99b2 <safe_mul_func_int64_t_s_s+0xb6>
    99ae:	48 8b 45 f8          	mov    -0x8(%rbp),%rax
    99b2:	5d                   	pop    %rbp
    99b3:	c3                   	retq   

00000000000099b4 <safe_mod_func_int64_t_s_s>:
    99b4:	f3 0f 1e fa          	endbr64 
    99b8:	55                   	push   %rbp
    99b9:	48 89 e5             	mov    %rsp,%rbp
    99bc:	48 89 7d f8          	mov    %rdi,-0x8(%rbp)
    99c0:	48 89 75 f0          	mov    %rsi,-0x10(%rbp)
    99c4:	48 83 7d f0 00       	cmpq   $0x0,-0x10(%rbp)
    99c9:	74 26                	je     99f1 <safe_mod_func_int64_t_s_s+0x3d>
    99cb:	48 b8 00 00 00 00 00 	movabs $0x8000000000000000,%rax
    99d2:	00 00 80 
    99d5:	48 39 45 f8          	cmp    %rax,-0x8(%rbp)
    99d9:	75 07                	jne    99e2 <safe_mod_func_int64_t_s_s+0x2e>
    99db:	48 83 7d f0 ff       	cmpq   $0xffffffffffffffff,-0x10(%rbp)
    99e0:	74 0f                	je     99f1 <safe_mod_func_int64_t_s_s+0x3d>
    99e2:	48 8b 45 f8          	mov    -0x8(%rbp),%rax
    99e6:	48 99                	cqto   
    99e8:	48 f7 7d f0          	idivq  -0x10(%rbp)
    99ec:	48 89 d0             	mov    %rdx,%rax
    99ef:	eb 04                	jmp    99f5 <safe_mod_func_int64_t_s_s+0x41>
    99f1:	48 8b 45 f8          	mov    -0x8(%rbp),%rax
    99f5:	5d                   	pop    %rbp
    99f6:	c3                   	retq   

00000000000099f7 <safe_div_func_int64_t_s_s>:
    99f7:	f3 0f 1e fa          	endbr64 
    99fb:	55                   	push   %rbp
    99fc:	48 89 e5             	mov    %rsp,%rbp
    99ff:	48 89 7d f8          	mov    %rdi,-0x8(%rbp)
    9a03:	48 89 75 f0          	mov    %rsi,-0x10(%rbp)
    9a07:	48 83 7d f0 00       	cmpq   $0x0,-0x10(%rbp)
    9a0c:	74 23                	je     9a31 <safe_div_func_int64_t_s_s+0x3a>
    9a0e:	48 b8 00 00 00 00 00 	movabs $0x8000000000000000,%rax
    9a15:	00 00 80 
    9a18:	48 39 45 f8          	cmp    %rax,-0x8(%rbp)
    9a1c:	75 07                	jne    9a25 <safe_div_func_int64_t_s_s+0x2e>
    9a1e:	48 83 7d f0 ff       	cmpq   $0xffffffffffffffff,-0x10(%rbp)
    9a23:	74 0c                	je     9a31 <safe_div_func_int64_t_s_s+0x3a>
    9a25:	48 8b 45 f8          	mov    -0x8(%rbp),%rax
    9a29:	48 99                	cqto   
    9a2b:	48 f7 7d f0          	idivq  -0x10(%rbp)
    9a2f:	eb 04                	jmp    9a35 <safe_div_func_int64_t_s_s+0x3e>
    9a31:	48 8b 45 f8          	mov    -0x8(%rbp),%rax
    9a35:	5d                   	pop    %rbp
    9a36:	c3                   	retq   

0000000000009a37 <safe_lshift_func_int64_t_s_s>:
    9a37:	f3 0f 1e fa          	endbr64 
    9a3b:	55                   	push   %rbp
    9a3c:	48 89 e5             	mov    %rsp,%rbp
    9a3f:	48 89 7d f8          	mov    %rdi,-0x8(%rbp)
    9a43:	89 75 f4             	mov    %esi,-0xc(%rbp)
    9a46:	48 83 7d f8 00       	cmpq   $0x0,-0x8(%rbp)
    9a4b:	78 38                	js     9a85 <safe_lshift_func_int64_t_s_s+0x4e>
    9a4d:	83 7d f4 00          	cmpl   $0x0,-0xc(%rbp)
    9a51:	78 32                	js     9a85 <safe_lshift_func_int64_t_s_s+0x4e>
    9a53:	83 7d f4 1f          	cmpl   $0x1f,-0xc(%rbp)
    9a57:	7f 2c                	jg     9a85 <safe_lshift_func_int64_t_s_s+0x4e>
    9a59:	8b 45 f4             	mov    -0xc(%rbp),%eax
    9a5c:	48 ba ff ff ff ff ff 	movabs $0x7fffffffffffffff,%rdx
    9a63:	ff ff 7f 
    9a66:	89 c1                	mov    %eax,%ecx
    9a68:	48 d3 fa             	sar    %cl,%rdx
    9a6b:	48 89 d0             	mov    %rdx,%rax
    9a6e:	48 39 45 f8          	cmp    %rax,-0x8(%rbp)
    9a72:	7f 11                	jg     9a85 <safe_lshift_func_int64_t_s_s+0x4e>
    9a74:	8b 45 f4             	mov    -0xc(%rbp),%eax
    9a77:	48 8b 55 f8          	mov    -0x8(%rbp),%rdx
    9a7b:	89 c1                	mov    %eax,%ecx
    9a7d:	48 d3 e2             	shl    %cl,%rdx
    9a80:	48 89 d0             	mov    %rdx,%rax
    9a83:	eb 04                	jmp    9a89 <safe_lshift_func_int64_t_s_s+0x52>
    9a85:	48 8b 45 f8          	mov    -0x8(%rbp),%rax
    9a89:	5d                   	pop    %rbp
    9a8a:	c3                   	retq   

0000000000009a8b <safe_lshift_func_int64_t_s_u>:
    9a8b:	f3 0f 1e fa          	endbr64 
    9a8f:	55                   	push   %rbp
    9a90:	48 89 e5             	mov    %rsp,%rbp
    9a93:	48 89 7d f8          	mov    %rdi,-0x8(%rbp)
    9a97:	89 75 f4             	mov    %esi,-0xc(%rbp)
    9a9a:	48 83 7d f8 00       	cmpq   $0x0,-0x8(%rbp)
    9a9f:	78 32                	js     9ad3 <safe_lshift_func_int64_t_s_u+0x48>
    9aa1:	83 7d f4 1f          	cmpl   $0x1f,-0xc(%rbp)
    9aa5:	77 2c                	ja     9ad3 <safe_lshift_func_int64_t_s_u+0x48>
    9aa7:	8b 45 f4             	mov    -0xc(%rbp),%eax
    9aaa:	48 ba ff ff ff ff ff 	movabs $0x7fffffffffffffff,%rdx
    9ab1:	ff ff 7f 
    9ab4:	89 c1                	mov    %eax,%ecx
    9ab6:	48 d3 fa             	sar    %cl,%rdx
    9ab9:	48 89 d0             	mov    %rdx,%rax
    9abc:	48 39 45 f8          	cmp    %rax,-0x8(%rbp)
    9ac0:	7f 11                	jg     9ad3 <safe_lshift_func_int64_t_s_u+0x48>
    9ac2:	8b 45 f4             	mov    -0xc(%rbp),%eax
    9ac5:	48 8b 55 f8          	mov    -0x8(%rbp),%rdx
    9ac9:	89 c1                	mov    %eax,%ecx
    9acb:	48 d3 e2             	shl    %cl,%rdx
    9ace:	48 89 d0             	mov    %rdx,%rax
    9ad1:	eb 04                	jmp    9ad7 <safe_lshift_func_int64_t_s_u+0x4c>
    9ad3:	48 8b 45 f8          	mov    -0x8(%rbp),%rax
    9ad7:	5d                   	pop    %rbp
    9ad8:	c3                   	retq   

0000000000009ad9 <safe_rshift_func_int64_t_s_s>:
    9ad9:	f3 0f 1e fa          	endbr64 
    9add:	55                   	push   %rbp
    9ade:	48 89 e5             	mov    %rsp,%rbp
    9ae1:	48 89 7d f8          	mov    %rdi,-0x8(%rbp)
    9ae5:	89 75 f4             	mov    %esi,-0xc(%rbp)
    9ae8:	48 83 7d f8 00       	cmpq   $0x0,-0x8(%rbp)
    9aed:	78 1d                	js     9b0c <safe_rshift_func_int64_t_s_s+0x33>
    9aef:	83 7d f4 00          	cmpl   $0x0,-0xc(%rbp)
    9af3:	78 17                	js     9b0c <safe_rshift_func_int64_t_s_s+0x33>
    9af5:	83 7d f4 1f          	cmpl   $0x1f,-0xc(%rbp)
    9af9:	7f 11                	jg     9b0c <safe_rshift_func_int64_t_s_s+0x33>
    9afb:	8b 45 f4             	mov    -0xc(%rbp),%eax
    9afe:	48 8b 55 f8          	mov    -0x8(%rbp),%rdx
    9b02:	89 c1                	mov    %eax,%ecx
    9b04:	48 d3 fa             	sar    %cl,%rdx
    9b07:	48 89 d0             	mov    %rdx,%rax
    9b0a:	eb 04                	jmp    9b10 <safe_rshift_func_int64_t_s_s+0x37>
    9b0c:	48 8b 45 f8          	mov    -0x8(%rbp),%rax
    9b10:	5d                   	pop    %rbp
    9b11:	c3                   	retq   

0000000000009b12 <safe_rshift_func_int64_t_s_u>:
    9b12:	f3 0f 1e fa          	endbr64 
    9b16:	55                   	push   %rbp
    9b17:	48 89 e5             	mov    %rsp,%rbp
    9b1a:	48 89 7d f8          	mov    %rdi,-0x8(%rbp)
    9b1e:	89 75 f4             	mov    %esi,-0xc(%rbp)
    9b21:	48 83 7d f8 00       	cmpq   $0x0,-0x8(%rbp)
    9b26:	78 17                	js     9b3f <safe_rshift_func_int64_t_s_u+0x2d>
    9b28:	83 7d f4 1f          	cmpl   $0x1f,-0xc(%rbp)
    9b2c:	77 11                	ja     9b3f <safe_rshift_func_int64_t_s_u+0x2d>
    9b2e:	8b 45 f4             	mov    -0xc(%rbp),%eax
    9b31:	48 8b 55 f8          	mov    -0x8(%rbp),%rdx
    9b35:	89 c1                	mov    %eax,%ecx
    9b37:	48 d3 fa             	sar    %cl,%rdx
    9b3a:	48 89 d0             	mov    %rdx,%rax
    9b3d:	eb 04                	jmp    9b43 <safe_rshift_func_int64_t_s_u+0x31>
    9b3f:	48 8b 45 f8          	mov    -0x8(%rbp),%rax
    9b43:	5d                   	pop    %rbp
    9b44:	c3                   	retq   

0000000000009b45 <safe_unary_minus_func_uint8_t_u>:
    9b45:	f3 0f 1e fa          	endbr64 
    9b49:	55                   	push   %rbp
    9b4a:	48 89 e5             	mov    %rsp,%rbp
    9b4d:	89 f8                	mov    %edi,%eax
    9b4f:	88 45 fc             	mov    %al,-0x4(%rbp)
    9b52:	0f b6 45 fc          	movzbl -0x4(%rbp),%eax
    9b56:	f7 d8                	neg    %eax
    9b58:	5d                   	pop    %rbp
    9b59:	c3                   	retq   

0000000000009b5a <safe_add_func_uint8_t_u_u>:
    9b5a:	f3 0f 1e fa          	endbr64 
    9b5e:	55                   	push   %rbp
    9b5f:	48 89 e5             	mov    %rsp,%rbp
    9b62:	89 fa                	mov    %edi,%edx
    9b64:	89 f0                	mov    %esi,%eax
    9b66:	88 55 fc             	mov    %dl,-0x4(%rbp)
    9b69:	88 45 f8             	mov    %al,-0x8(%rbp)
    9b6c:	0f b6 55 fc          	movzbl -0x4(%rbp),%edx
    9b70:	0f b6 45 f8          	movzbl -0x8(%rbp),%eax
    9b74:	01 d0                	add    %edx,%eax
    9b76:	5d                   	pop    %rbp
    9b77:	c3                   	retq   

0000000000009b78 <safe_sub_func_uint8_t_u_u>:
    9b78:	f3 0f 1e fa          	endbr64 
    9b7c:	55                   	push   %rbp
    9b7d:	48 89 e5             	mov    %rsp,%rbp
    9b80:	89 fa                	mov    %edi,%edx
    9b82:	89 f0                	mov    %esi,%eax
    9b84:	88 55 fc             	mov    %dl,-0x4(%rbp)
    9b87:	88 45 f8             	mov    %al,-0x8(%rbp)
    9b8a:	0f b6 45 fc          	movzbl -0x4(%rbp),%eax
    9b8e:	2a 45 f8             	sub    -0x8(%rbp),%al
    9b91:	5d                   	pop    %rbp
    9b92:	c3                   	retq   

0000000000009b93 <safe_mul_func_uint8_t_u_u>:
    9b93:	f3 0f 1e fa          	endbr64 
    9b97:	55                   	push   %rbp
    9b98:	48 89 e5             	mov    %rsp,%rbp
    9b9b:	89 fa                	mov    %edi,%edx
    9b9d:	89 f0                	mov    %esi,%eax
    9b9f:	88 55 fc             	mov    %dl,-0x4(%rbp)
    9ba2:	88 45 f8             	mov    %al,-0x8(%rbp)
    9ba5:	0f b6 45 fc          	movzbl -0x4(%rbp),%eax
    9ba9:	f6 65 f8             	mulb   -0x8(%rbp)
    9bac:	5d                   	pop    %rbp
    9bad:	c3                   	retq   

0000000000009bae <safe_mod_func_uint8_t_u_u>:
    9bae:	f3 0f 1e fa          	endbr64 
    9bb2:	55                   	push   %rbp
    9bb3:	48 89 e5             	mov    %rsp,%rbp
    9bb6:	89 fa                	mov    %edi,%edx
    9bb8:	89 f0                	mov    %esi,%eax
    9bba:	88 55 fc             	mov    %dl,-0x4(%rbp)
    9bbd:	88 45 f8             	mov    %al,-0x8(%rbp)
    9bc0:	80 7d f8 00          	cmpb   $0x0,-0x8(%rbp)
    9bc4:	74 0f                	je     9bd5 <safe_mod_func_uint8_t_u_u+0x27>
    9bc6:	0f b6 45 fc          	movzbl -0x4(%rbp),%eax
    9bca:	0f b6 c0             	movzbl %al,%eax
    9bcd:	f6 75 f8             	divb   -0x8(%rbp)
    9bd0:	0f b6 c4             	movzbl %ah,%eax
    9bd3:	eb 04                	jmp    9bd9 <safe_mod_func_uint8_t_u_u+0x2b>
    9bd5:	0f b6 45 fc          	movzbl -0x4(%rbp),%eax
    9bd9:	5d                   	pop    %rbp
    9bda:	c3                   	retq   

0000000000009bdb <safe_div_func_uint8_t_u_u>:
    9bdb:	f3 0f 1e fa          	endbr64 
    9bdf:	55                   	push   %rbp
    9be0:	48 89 e5             	mov    %rsp,%rbp
    9be3:	89 fa                	mov    %edi,%edx
    9be5:	89 f0                	mov    %esi,%eax
    9be7:	88 55 fc             	mov    %dl,-0x4(%rbp)
    9bea:	88 45 f8             	mov    %al,-0x8(%rbp)
    9bed:	80 7d f8 00          	cmpb   $0x0,-0x8(%rbp)
    9bf1:	74 0c                	je     9bff <safe_div_func_uint8_t_u_u+0x24>
    9bf3:	0f b6 45 fc          	movzbl -0x4(%rbp),%eax
    9bf7:	0f b6 c0             	movzbl %al,%eax
    9bfa:	f6 75 f8             	divb   -0x8(%rbp)
    9bfd:	eb 04                	jmp    9c03 <safe_div_func_uint8_t_u_u+0x28>
    9bff:	0f b6 45 fc          	movzbl -0x4(%rbp),%eax
    9c03:	5d                   	pop    %rbp
    9c04:	c3                   	retq   

0000000000009c05 <safe_lshift_func_uint8_t_u_s>:
    9c05:	f3 0f 1e fa          	endbr64 
    9c09:	55                   	push   %rbp
    9c0a:	48 89 e5             	mov    %rsp,%rbp
    9c0d:	89 f8                	mov    %edi,%eax
    9c0f:	89 75 f8             	mov    %esi,-0x8(%rbp)
    9c12:	88 45 fc             	mov    %al,-0x4(%rbp)
    9c15:	83 7d f8 00          	cmpl   $0x0,-0x8(%rbp)
    9c19:	78 2b                	js     9c46 <safe_lshift_func_uint8_t_u_s+0x41>
    9c1b:	83 7d f8 1f          	cmpl   $0x1f,-0x8(%rbp)
    9c1f:	7f 25                	jg     9c46 <safe_lshift_func_uint8_t_u_s+0x41>
    9c21:	0f b6 55 fc          	movzbl -0x4(%rbp),%edx
    9c25:	8b 45 f8             	mov    -0x8(%rbp),%eax
    9c28:	be ff 00 00 00       	mov    $0xff,%esi
    9c2d:	89 c1                	mov    %eax,%ecx
    9c2f:	d3 fe                	sar    %cl,%esi
    9c31:	89 f0                	mov    %esi,%eax
    9c33:	39 c2                	cmp    %eax,%edx
    9c35:	7f 0f                	jg     9c46 <safe_lshift_func_uint8_t_u_s+0x41>
    9c37:	0f b6 55 fc          	movzbl -0x4(%rbp),%edx
    9c3b:	8b 45 f8             	mov    -0x8(%rbp),%eax
    9c3e:	89 c1                	mov    %eax,%ecx
    9c40:	d3 e2                	shl    %cl,%edx
    9c42:	89 d0                	mov    %edx,%eax
    9c44:	eb 04                	jmp    9c4a <safe_lshift_func_uint8_t_u_s+0x45>
    9c46:	0f b6 45 fc          	movzbl -0x4(%rbp),%eax
    9c4a:	5d                   	pop    %rbp
    9c4b:	c3                   	retq   

0000000000009c4c <safe_lshift_func_uint8_t_u_u>:
    9c4c:	f3 0f 1e fa          	endbr64 
    9c50:	55                   	push   %rbp
    9c51:	48 89 e5             	mov    %rsp,%rbp
    9c54:	89 f8                	mov    %edi,%eax
    9c56:	89 75 f8             	mov    %esi,-0x8(%rbp)
    9c59:	88 45 fc             	mov    %al,-0x4(%rbp)
    9c5c:	83 7d f8 1f          	cmpl   $0x1f,-0x8(%rbp)
    9c60:	77 25                	ja     9c87 <safe_lshift_func_uint8_t_u_u+0x3b>
    9c62:	0f b6 55 fc          	movzbl -0x4(%rbp),%edx
    9c66:	8b 45 f8             	mov    -0x8(%rbp),%eax
    9c69:	be ff 00 00 00       	mov    $0xff,%esi
    9c6e:	89 c1                	mov    %eax,%ecx
    9c70:	d3 fe                	sar    %cl,%esi
    9c72:	89 f0                	mov    %esi,%eax
    9c74:	39 c2                	cmp    %eax,%edx
    9c76:	7f 0f                	jg     9c87 <safe_lshift_func_uint8_t_u_u+0x3b>
    9c78:	0f b6 55 fc          	movzbl -0x4(%rbp),%edx
    9c7c:	8b 45 f8             	mov    -0x8(%rbp),%eax
    9c7f:	89 c1                	mov    %eax,%ecx
    9c81:	d3 e2                	shl    %cl,%edx
    9c83:	89 d0                	mov    %edx,%eax
    9c85:	eb 04                	jmp    9c8b <safe_lshift_func_uint8_t_u_u+0x3f>
    9c87:	0f b6 45 fc          	movzbl -0x4(%rbp),%eax
    9c8b:	5d                   	pop    %rbp
    9c8c:	c3                   	retq   

0000000000009c8d <safe_rshift_func_uint8_t_u_s>:
    9c8d:	f3 0f 1e fa          	endbr64 
    9c91:	55                   	push   %rbp
    9c92:	48 89 e5             	mov    %rsp,%rbp
    9c95:	89 f8                	mov    %edi,%eax
    9c97:	89 75 f8             	mov    %esi,-0x8(%rbp)
    9c9a:	88 45 fc             	mov    %al,-0x4(%rbp)
    9c9d:	83 7d f8 00          	cmpl   $0x0,-0x8(%rbp)
    9ca1:	78 15                	js     9cb8 <safe_rshift_func_uint8_t_u_s+0x2b>
    9ca3:	83 7d f8 1f          	cmpl   $0x1f,-0x8(%rbp)
    9ca7:	7f 0f                	jg     9cb8 <safe_rshift_func_uint8_t_u_s+0x2b>
    9ca9:	0f b6 55 fc          	movzbl -0x4(%rbp),%edx
    9cad:	8b 45 f8             	mov    -0x8(%rbp),%eax
    9cb0:	89 c1                	mov    %eax,%ecx
    9cb2:	d3 fa                	sar    %cl,%edx
    9cb4:	89 d0                	mov    %edx,%eax
    9cb6:	eb 04                	jmp    9cbc <safe_rshift_func_uint8_t_u_s+0x2f>
    9cb8:	0f b6 45 fc          	movzbl -0x4(%rbp),%eax
    9cbc:	5d                   	pop    %rbp
    9cbd:	c3                   	retq   

0000000000009cbe <safe_rshift_func_uint8_t_u_u>:
    9cbe:	f3 0f 1e fa          	endbr64 
    9cc2:	55                   	push   %rbp
    9cc3:	48 89 e5             	mov    %rsp,%rbp
    9cc6:	89 f8                	mov    %edi,%eax
    9cc8:	89 75 f8             	mov    %esi,-0x8(%rbp)
    9ccb:	88 45 fc             	mov    %al,-0x4(%rbp)
    9cce:	83 7d f8 1f          	cmpl   $0x1f,-0x8(%rbp)
    9cd2:	77 0f                	ja     9ce3 <safe_rshift_func_uint8_t_u_u+0x25>
    9cd4:	0f b6 55 fc          	movzbl -0x4(%rbp),%edx
    9cd8:	8b 45 f8             	mov    -0x8(%rbp),%eax
    9cdb:	89 c1                	mov    %eax,%ecx
    9cdd:	d3 fa                	sar    %cl,%edx
    9cdf:	89 d0                	mov    %edx,%eax
    9ce1:	eb 04                	jmp    9ce7 <safe_rshift_func_uint8_t_u_u+0x29>
    9ce3:	0f b6 45 fc          	movzbl -0x4(%rbp),%eax
    9ce7:	5d                   	pop    %rbp
    9ce8:	c3                   	retq   

0000000000009ce9 <safe_unary_minus_func_uint16_t_u>:
    9ce9:	f3 0f 1e fa          	endbr64 
    9ced:	55                   	push   %rbp
    9cee:	48 89 e5             	mov    %rsp,%rbp
    9cf1:	89 f8                	mov    %edi,%eax
    9cf3:	66 89 45 fc          	mov    %ax,-0x4(%rbp)
    9cf7:	0f b7 45 fc          	movzwl -0x4(%rbp),%eax
    9cfb:	f7 d8                	neg    %eax
    9cfd:	5d                   	pop    %rbp
    9cfe:	c3                   	retq   

0000000000009cff <safe_add_func_uint16_t_u_u>:
    9cff:	f3 0f 1e fa          	endbr64 
    9d03:	55                   	push   %rbp
    9d04:	48 89 e5             	mov    %rsp,%rbp
    9d07:	89 fa                	mov    %edi,%edx
    9d09:	89 f0                	mov    %esi,%eax
    9d0b:	66 89 55 fc          	mov    %dx,-0x4(%rbp)
    9d0f:	66 89 45 f8          	mov    %ax,-0x8(%rbp)
    9d13:	0f b7 55 fc          	movzwl -0x4(%rbp),%edx
    9d17:	0f b7 45 f8          	movzwl -0x8(%rbp),%eax
    9d1b:	01 d0                	add    %edx,%eax
    9d1d:	5d                   	pop    %rbp
    9d1e:	c3                   	retq   

0000000000009d1f <safe_sub_func_uint16_t_u_u>:
    9d1f:	f3 0f 1e fa          	endbr64 
    9d23:	55                   	push   %rbp
    9d24:	48 89 e5             	mov    %rsp,%rbp
    9d27:	89 fa                	mov    %edi,%edx
    9d29:	89 f0                	mov    %esi,%eax
    9d2b:	66 89 55 fc          	mov    %dx,-0x4(%rbp)
    9d2f:	66 89 45 f8          	mov    %ax,-0x8(%rbp)
    9d33:	0f b7 45 fc          	movzwl -0x4(%rbp),%eax
    9d37:	66 2b 45 f8          	sub    -0x8(%rbp),%ax
    9d3b:	5d                   	pop    %rbp
    9d3c:	c3                   	retq   

0000000000009d3d <safe_mul_func_uint16_t_u_u>:
    9d3d:	f3 0f 1e fa          	endbr64 
    9d41:	55                   	push   %rbp
    9d42:	48 89 e5             	mov    %rsp,%rbp
    9d45:	89 fa                	mov    %edi,%edx
    9d47:	89 f0                	mov    %esi,%eax
    9d49:	66 89 55 fc          	mov    %dx,-0x4(%rbp)
    9d4d:	66 89 45 f8          	mov    %ax,-0x8(%rbp)
    9d51:	0f b7 45 fc          	movzwl -0x4(%rbp),%eax
    9d55:	66 0f af 45 f8       	imul   -0x8(%rbp),%ax
    9d5a:	5d                   	pop    %rbp
    9d5b:	c3                   	retq   

0000000000009d5c <safe_mod_func_uint16_t_u_u>:
    9d5c:	f3 0f 1e fa          	endbr64 
    9d60:	55                   	push   %rbp
    9d61:	48 89 e5             	mov    %rsp,%rbp
    9d64:	89 fa                	mov    %edi,%edx
    9d66:	89 f0                	mov    %esi,%eax
    9d68:	66 89 55 fc          	mov    %dx,-0x4(%rbp)
    9d6c:	66 89 45 f8          	mov    %ax,-0x8(%rbp)
    9d70:	66 83 7d f8 00       	cmpw   $0x0,-0x8(%rbp)
    9d75:	74 11                	je     9d88 <safe_mod_func_uint16_t_u_u+0x2c>
    9d77:	0f b7 45 fc          	movzwl -0x4(%rbp),%eax
    9d7b:	ba 00 00 00 00       	mov    $0x0,%edx
    9d80:	66 f7 75 f8          	divw   -0x8(%rbp)
    9d84:	89 d0                	mov    %edx,%eax
    9d86:	eb 04                	jmp    9d8c <safe_mod_func_uint16_t_u_u+0x30>
    9d88:	0f b7 45 fc          	movzwl -0x4(%rbp),%eax
    9d8c:	5d                   	pop    %rbp
    9d8d:	c3                   	retq   

0000000000009d8e <safe_div_func_uint16_t_u_u>:
    9d8e:	f3 0f 1e fa          	endbr64 
    9d92:	55                   	push   %rbp
    9d93:	48 89 e5             	mov    %rsp,%rbp
    9d96:	89 fa                	mov    %edi,%edx
    9d98:	89 f0                	mov    %esi,%eax
    9d9a:	66 89 55 fc          	mov    %dx,-0x4(%rbp)
    9d9e:	66 89 45 f8          	mov    %ax,-0x8(%rbp)
    9da2:	66 83 7d f8 00       	cmpw   $0x0,-0x8(%rbp)
    9da7:	74 0f                	je     9db8 <safe_div_func_uint16_t_u_u+0x2a>
    9da9:	0f b7 45 fc          	movzwl -0x4(%rbp),%eax
    9dad:	ba 00 00 00 00       	mov    $0x0,%edx
    9db2:	66 f7 75 f8          	divw   -0x8(%rbp)
    9db6:	eb 04                	jmp    9dbc <safe_div_func_uint16_t_u_u+0x2e>
    9db8:	0f b7 45 fc          	movzwl -0x4(%rbp),%eax
    9dbc:	5d                   	pop    %rbp
    9dbd:	c3                   	retq   

0000000000009dbe <safe_lshift_func_uint16_t_u_s>:
    9dbe:	f3 0f 1e fa          	endbr64 
    9dc2:	55                   	push   %rbp
    9dc3:	48 89 e5             	mov    %rsp,%rbp
    9dc6:	89 f8                	mov    %edi,%eax
    9dc8:	89 75 f8             	mov    %esi,-0x8(%rbp)
    9dcb:	66 89 45 fc          	mov    %ax,-0x4(%rbp)
    9dcf:	83 7d f8 00          	cmpl   $0x0,-0x8(%rbp)
    9dd3:	78 2b                	js     9e00 <safe_lshift_func_uint16_t_u_s+0x42>
    9dd5:	83 7d f8 1f          	cmpl   $0x1f,-0x8(%rbp)
    9dd9:	7f 25                	jg     9e00 <safe_lshift_func_uint16_t_u_s+0x42>
    9ddb:	0f b7 55 fc          	movzwl -0x4(%rbp),%edx
    9ddf:	8b 45 f8             	mov    -0x8(%rbp),%eax
    9de2:	be ff ff 00 00       	mov    $0xffff,%esi
    9de7:	89 c1                	mov    %eax,%ecx
    9de9:	d3 fe                	sar    %cl,%esi
    9deb:	89 f0                	mov    %esi,%eax
    9ded:	39 c2                	cmp    %eax,%edx
    9def:	7f 0f                	jg     9e00 <safe_lshift_func_uint16_t_u_s+0x42>
    9df1:	0f b7 55 fc          	movzwl -0x4(%rbp),%edx
    9df5:	8b 45 f8             	mov    -0x8(%rbp),%eax
    9df8:	89 c1                	mov    %eax,%ecx
    9dfa:	d3 e2                	shl    %cl,%edx
    9dfc:	89 d0                	mov    %edx,%eax
    9dfe:	eb 04                	jmp    9e04 <safe_lshift_func_uint16_t_u_s+0x46>
    9e00:	0f b7 45 fc          	movzwl -0x4(%rbp),%eax
    9e04:	5d                   	pop    %rbp
    9e05:	c3                   	retq   

0000000000009e06 <safe_lshift_func_uint16_t_u_u>:
    9e06:	f3 0f 1e fa          	endbr64 
    9e0a:	55                   	push   %rbp
    9e0b:	48 89 e5             	mov    %rsp,%rbp
    9e0e:	89 f8                	mov    %edi,%eax
    9e10:	89 75 f8             	mov    %esi,-0x8(%rbp)
    9e13:	66 89 45 fc          	mov    %ax,-0x4(%rbp)
    9e17:	83 7d f8 1f          	cmpl   $0x1f,-0x8(%rbp)
    9e1b:	77 25                	ja     9e42 <safe_lshift_func_uint16_t_u_u+0x3c>
    9e1d:	0f b7 55 fc          	movzwl -0x4(%rbp),%edx
    9e21:	8b 45 f8             	mov    -0x8(%rbp),%eax
    9e24:	be ff ff 00 00       	mov    $0xffff,%esi
    9e29:	89 c1                	mov    %eax,%ecx
    9e2b:	d3 fe                	sar    %cl,%esi
    9e2d:	89 f0                	mov    %esi,%eax
    9e2f:	39 c2                	cmp    %eax,%edx
    9e31:	7f 0f                	jg     9e42 <safe_lshift_func_uint16_t_u_u+0x3c>
    9e33:	0f b7 55 fc          	movzwl -0x4(%rbp),%edx
    9e37:	8b 45 f8             	mov    -0x8(%rbp),%eax
    9e3a:	89 c1                	mov    %eax,%ecx
    9e3c:	d3 e2                	shl    %cl,%edx
    9e3e:	89 d0                	mov    %edx,%eax
    9e40:	eb 04                	jmp    9e46 <safe_lshift_func_uint16_t_u_u+0x40>
    9e42:	0f b7 45 fc          	movzwl -0x4(%rbp),%eax
    9e46:	5d                   	pop    %rbp
    9e47:	c3                   	retq   

0000000000009e48 <safe_rshift_func_uint16_t_u_s>:
    9e48:	f3 0f 1e fa          	endbr64 
    9e4c:	55                   	push   %rbp
    9e4d:	48 89 e5             	mov    %rsp,%rbp
    9e50:	89 f8                	mov    %edi,%eax
    9e52:	89 75 f8             	mov    %esi,-0x8(%rbp)
    9e55:	66 89 45 fc          	mov    %ax,-0x4(%rbp)
    9e59:	83 7d f8 00          	cmpl   $0x0,-0x8(%rbp)
    9e5d:	78 15                	js     9e74 <safe_rshift_func_uint16_t_u_s+0x2c>
    9e5f:	83 7d f8 1f          	cmpl   $0x1f,-0x8(%rbp)
    9e63:	7f 0f                	jg     9e74 <safe_rshift_func_uint16_t_u_s+0x2c>
    9e65:	0f b7 55 fc          	movzwl -0x4(%rbp),%edx
    9e69:	8b 45 f8             	mov    -0x8(%rbp),%eax
    9e6c:	89 c1                	mov    %eax,%ecx
    9e6e:	d3 fa                	sar    %cl,%edx
    9e70:	89 d0                	mov    %edx,%eax
    9e72:	eb 04                	jmp    9e78 <safe_rshift_func_uint16_t_u_s+0x30>
    9e74:	0f b7 45 fc          	movzwl -0x4(%rbp),%eax
    9e78:	5d                   	pop    %rbp
    9e79:	c3                   	retq   

0000000000009e7a <safe_rshift_func_uint16_t_u_u>:
    9e7a:	f3 0f 1e fa          	endbr64 
    9e7e:	55                   	push   %rbp
    9e7f:	48 89 e5             	mov    %rsp,%rbp
    9e82:	89 f8                	mov    %edi,%eax
    9e84:	89 75 f8             	mov    %esi,-0x8(%rbp)
    9e87:	66 89 45 fc          	mov    %ax,-0x4(%rbp)
    9e8b:	83 7d f8 1f          	cmpl   $0x1f,-0x8(%rbp)
    9e8f:	77 0f                	ja     9ea0 <safe_rshift_func_uint16_t_u_u+0x26>
    9e91:	0f b7 55 fc          	movzwl -0x4(%rbp),%edx
    9e95:	8b 45 f8             	mov    -0x8(%rbp),%eax
    9e98:	89 c1                	mov    %eax,%ecx
    9e9a:	d3 fa                	sar    %cl,%edx
    9e9c:	89 d0                	mov    %edx,%eax
    9e9e:	eb 04                	jmp    9ea4 <safe_rshift_func_uint16_t_u_u+0x2a>
    9ea0:	0f b7 45 fc          	movzwl -0x4(%rbp),%eax
    9ea4:	5d                   	pop    %rbp
    9ea5:	c3                   	retq   

0000000000009ea6 <safe_unary_minus_func_uint32_t_u>:
    9ea6:	f3 0f 1e fa          	endbr64 
    9eaa:	55                   	push   %rbp
    9eab:	48 89 e5             	mov    %rsp,%rbp
    9eae:	89 7d fc             	mov    %edi,-0x4(%rbp)
    9eb1:	8b 45 fc             	mov    -0x4(%rbp),%eax
    9eb4:	f7 d8                	neg    %eax
    9eb6:	5d                   	pop    %rbp
    9eb7:	c3                   	retq   

0000000000009eb8 <safe_add_func_uint32_t_u_u>:
    9eb8:	f3 0f 1e fa          	endbr64 
    9ebc:	55                   	push   %rbp
    9ebd:	48 89 e5             	mov    %rsp,%rbp
    9ec0:	89 7d fc             	mov    %edi,-0x4(%rbp)
    9ec3:	89 75 f8             	mov    %esi,-0x8(%rbp)
    9ec6:	8b 55 fc             	mov    -0x4(%rbp),%edx
    9ec9:	8b 45 f8             	mov    -0x8(%rbp),%eax
    9ecc:	01 d0                	add    %edx,%eax
    9ece:	5d                   	pop    %rbp
    9ecf:	c3                   	retq   

0000000000009ed0 <safe_sub_func_uint32_t_u_u>:
    9ed0:	f3 0f 1e fa          	endbr64 
    9ed4:	55                   	push   %rbp
    9ed5:	48 89 e5             	mov    %rsp,%rbp
    9ed8:	89 7d fc             	mov    %edi,-0x4(%rbp)
    9edb:	89 75 f8             	mov    %esi,-0x8(%rbp)
    9ede:	8b 45 fc             	mov    -0x4(%rbp),%eax
    9ee1:	2b 45 f8             	sub    -0x8(%rbp),%eax
    9ee4:	5d                   	pop    %rbp
    9ee5:	c3                   	retq   

0000000000009ee6 <safe_mul_func_uint32_t_u_u>:
    9ee6:	f3 0f 1e fa          	endbr64 
    9eea:	55                   	push   %rbp
    9eeb:	48 89 e5             	mov    %rsp,%rbp
    9eee:	89 7d fc             	mov    %edi,-0x4(%rbp)
    9ef1:	89 75 f8             	mov    %esi,-0x8(%rbp)
    9ef4:	8b 45 fc             	mov    -0x4(%rbp),%eax
    9ef7:	0f af 45 f8          	imul   -0x8(%rbp),%eax
    9efb:	5d                   	pop    %rbp
    9efc:	c3                   	retq   

0000000000009efd <safe_mod_func_uint32_t_u_u>:
    9efd:	f3 0f 1e fa          	endbr64 
    9f01:	55                   	push   %rbp
    9f02:	48 89 e5             	mov    %rsp,%rbp
    9f05:	89 7d fc             	mov    %edi,-0x4(%rbp)
    9f08:	89 75 f8             	mov    %esi,-0x8(%rbp)
    9f0b:	83 7d f8 00          	cmpl   $0x0,-0x8(%rbp)
    9f0f:	74 0f                	je     9f20 <safe_mod_func_uint32_t_u_u+0x23>
    9f11:	8b 45 fc             	mov    -0x4(%rbp),%eax
    9f14:	ba 00 00 00 00       	mov    $0x0,%edx
    9f19:	f7 75 f8             	divl   -0x8(%rbp)
    9f1c:	89 d0                	mov    %edx,%eax
    9f1e:	eb 03                	jmp    9f23 <safe_mod_func_uint32_t_u_u+0x26>
    9f20:	8b 45 fc             	mov    -0x4(%rbp),%eax
    9f23:	5d                   	pop    %rbp
    9f24:	c3                   	retq   

0000000000009f25 <safe_div_func_uint32_t_u_u>:
    9f25:	f3 0f 1e fa          	endbr64 
    9f29:	55                   	push   %rbp
    9f2a:	48 89 e5             	mov    %rsp,%rbp
    9f2d:	89 7d fc             	mov    %edi,-0x4(%rbp)
    9f30:	89 75 f8             	mov    %esi,-0x8(%rbp)
    9f33:	83 7d f8 00          	cmpl   $0x0,-0x8(%rbp)
    9f37:	74 0d                	je     9f46 <safe_div_func_uint32_t_u_u+0x21>
    9f39:	8b 45 fc             	mov    -0x4(%rbp),%eax
    9f3c:	ba 00 00 00 00       	mov    $0x0,%edx
    9f41:	f7 75 f8             	divl   -0x8(%rbp)
    9f44:	eb 03                	jmp    9f49 <safe_div_func_uint32_t_u_u+0x24>
    9f46:	8b 45 fc             	mov    -0x4(%rbp),%eax
    9f49:	5d                   	pop    %rbp
    9f4a:	c3                   	retq   

0000000000009f4b <safe_lshift_func_uint32_t_u_s>:
    9f4b:	f3 0f 1e fa          	endbr64 
    9f4f:	55                   	push   %rbp
    9f50:	48 89 e5             	mov    %rsp,%rbp
    9f53:	89 7d fc             	mov    %edi,-0x4(%rbp)
    9f56:	89 75 f8             	mov    %esi,-0x8(%rbp)
    9f59:	83 7d f8 00          	cmpl   $0x0,-0x8(%rbp)
    9f5d:	78 27                	js     9f86 <safe_lshift_func_uint32_t_u_s+0x3b>
    9f5f:	83 7d f8 1f          	cmpl   $0x1f,-0x8(%rbp)
    9f63:	7f 21                	jg     9f86 <safe_lshift_func_uint32_t_u_s+0x3b>
    9f65:	8b 45 f8             	mov    -0x8(%rbp),%eax
    9f68:	ba ff ff ff ff       	mov    $0xffffffff,%edx
    9f6d:	89 c1                	mov    %eax,%ecx
    9f6f:	d3 ea                	shr    %cl,%edx
    9f71:	89 d0                	mov    %edx,%eax
    9f73:	39 45 fc             	cmp    %eax,-0x4(%rbp)
    9f76:	77 0e                	ja     9f86 <safe_lshift_func_uint32_t_u_s+0x3b>
    9f78:	8b 45 f8             	mov    -0x8(%rbp),%eax
    9f7b:	8b 55 fc             	mov    -0x4(%rbp),%edx
    9f7e:	89 c1                	mov    %eax,%ecx
    9f80:	d3 e2                	shl    %cl,%edx
    9f82:	89 d0                	mov    %edx,%eax
    9f84:	eb 03                	jmp    9f89 <safe_lshift_func_uint32_t_u_s+0x3e>
    9f86:	8b 45 fc             	mov    -0x4(%rbp),%eax
    9f89:	5d                   	pop    %rbp
    9f8a:	c3                   	retq   

0000000000009f8b <safe_lshift_func_uint32_t_u_u>:
    9f8b:	f3 0f 1e fa          	endbr64 
    9f8f:	55                   	push   %rbp
    9f90:	48 89 e5             	mov    %rsp,%rbp
    9f93:	89 7d fc             	mov    %edi,-0x4(%rbp)
    9f96:	89 75 f8             	mov    %esi,-0x8(%rbp)
    9f99:	83 7d f8 1f          	cmpl   $0x1f,-0x8(%rbp)
    9f9d:	77 21                	ja     9fc0 <safe_lshift_func_uint32_t_u_u+0x35>
    9f9f:	8b 45 f8             	mov    -0x8(%rbp),%eax
    9fa2:	ba ff ff ff ff       	mov    $0xffffffff,%edx
    9fa7:	89 c1                	mov    %eax,%ecx
    9fa9:	d3 ea                	shr    %cl,%edx
    9fab:	89 d0                	mov    %edx,%eax
    9fad:	39 45 fc             	cmp    %eax,-0x4(%rbp)
    9fb0:	77 0e                	ja     9fc0 <safe_lshift_func_uint32_t_u_u+0x35>
    9fb2:	8b 45 f8             	mov    -0x8(%rbp),%eax
    9fb5:	8b 55 fc             	mov    -0x4(%rbp),%edx
    9fb8:	89 c1                	mov    %eax,%ecx
    9fba:	d3 e2                	shl    %cl,%edx
    9fbc:	89 d0                	mov    %edx,%eax
    9fbe:	eb 03                	jmp    9fc3 <safe_lshift_func_uint32_t_u_u+0x38>
    9fc0:	8b 45 fc             	mov    -0x4(%rbp),%eax
    9fc3:	5d                   	pop    %rbp
    9fc4:	c3                   	retq   

0000000000009fc5 <safe_rshift_func_uint32_t_u_s>:
    9fc5:	f3 0f 1e fa          	endbr64 
    9fc9:	55                   	push   %rbp
    9fca:	48 89 e5             	mov    %rsp,%rbp
    9fcd:	89 7d fc             	mov    %edi,-0x4(%rbp)
    9fd0:	89 75 f8             	mov    %esi,-0x8(%rbp)
    9fd3:	83 7d f8 00          	cmpl   $0x0,-0x8(%rbp)
    9fd7:	78 14                	js     9fed <safe_rshift_func_uint32_t_u_s+0x28>
    9fd9:	83 7d f8 1f          	cmpl   $0x1f,-0x8(%rbp)
    9fdd:	7f 0e                	jg     9fed <safe_rshift_func_uint32_t_u_s+0x28>
    9fdf:	8b 45 f8             	mov    -0x8(%rbp),%eax
    9fe2:	8b 55 fc             	mov    -0x4(%rbp),%edx
    9fe5:	89 c1                	mov    %eax,%ecx
    9fe7:	d3 ea                	shr    %cl,%edx
    9fe9:	89 d0                	mov    %edx,%eax
    9feb:	eb 03                	jmp    9ff0 <safe_rshift_func_uint32_t_u_s+0x2b>
    9fed:	8b 45 fc             	mov    -0x4(%rbp),%eax
    9ff0:	5d                   	pop    %rbp
    9ff1:	c3                   	retq   

0000000000009ff2 <safe_rshift_func_uint32_t_u_u>:
    9ff2:	f3 0f 1e fa          	endbr64 
    9ff6:	55                   	push   %rbp
    9ff7:	48 89 e5             	mov    %rsp,%rbp
    9ffa:	89 7d fc             	mov    %edi,-0x4(%rbp)
    9ffd:	89 75 f8             	mov    %esi,-0x8(%rbp)
    a000:	83 7d f8 1f          	cmpl   $0x1f,-0x8(%rbp)
    a004:	77 0e                	ja     a014 <safe_rshift_func_uint32_t_u_u+0x22>
    a006:	8b 45 f8             	mov    -0x8(%rbp),%eax
    a009:	8b 55 fc             	mov    -0x4(%rbp),%edx
    a00c:	89 c1                	mov    %eax,%ecx
    a00e:	d3 ea                	shr    %cl,%edx
    a010:	89 d0                	mov    %edx,%eax
    a012:	eb 03                	jmp    a017 <safe_rshift_func_uint32_t_u_u+0x25>
    a014:	8b 45 fc             	mov    -0x4(%rbp),%eax
    a017:	5d                   	pop    %rbp
    a018:	c3                   	retq   

000000000000a019 <safe_unary_minus_func_uint64_t_u>:
    a019:	f3 0f 1e fa          	endbr64 
    a01d:	55                   	push   %rbp
    a01e:	48 89 e5             	mov    %rsp,%rbp
    a021:	48 89 7d f8          	mov    %rdi,-0x8(%rbp)
    a025:	48 8b 45 f8          	mov    -0x8(%rbp),%rax
    a029:	48 f7 d8             	neg    %rax
    a02c:	5d                   	pop    %rbp
    a02d:	c3                   	retq   

000000000000a02e <safe_add_func_uint64_t_u_u>:
    a02e:	f3 0f 1e fa          	endbr64 
    a032:	55                   	push   %rbp
    a033:	48 89 e5             	mov    %rsp,%rbp
    a036:	48 89 7d f8          	mov    %rdi,-0x8(%rbp)
    a03a:	48 89 75 f0          	mov    %rsi,-0x10(%rbp)
    a03e:	48 8b 55 f8          	mov    -0x8(%rbp),%rdx
    a042:	48 8b 45 f0          	mov    -0x10(%rbp),%rax
    a046:	48 01 d0             	add    %rdx,%rax
    a049:	5d                   	pop    %rbp
    a04a:	c3                   	retq   

000000000000a04b <safe_sub_func_uint64_t_u_u>:
    a04b:	f3 0f 1e fa          	endbr64 
    a04f:	55                   	push   %rbp
    a050:	48 89 e5             	mov    %rsp,%rbp
    a053:	48 89 7d f8          	mov    %rdi,-0x8(%rbp)
    a057:	48 89 75 f0          	mov    %rsi,-0x10(%rbp)
    a05b:	48 8b 45 f8          	mov    -0x8(%rbp),%rax
    a05f:	48 2b 45 f0          	sub    -0x10(%rbp),%rax
    a063:	5d                   	pop    %rbp
    a064:	c3                   	retq   

000000000000a065 <safe_mul_func_uint64_t_u_u>:
    a065:	f3 0f 1e fa          	endbr64 
    a069:	55                   	push   %rbp
    a06a:	48 89 e5             	mov    %rsp,%rbp
    a06d:	48 89 7d f8          	mov    %rdi,-0x8(%rbp)
    a071:	48 89 75 f0          	mov    %rsi,-0x10(%rbp)
    a075:	48 8b 45 f8          	mov    -0x8(%rbp),%rax
    a079:	48 0f af 45 f0       	imul   -0x10(%rbp),%rax
    a07e:	5d                   	pop    %rbp
    a07f:	c3                   	retq   

000000000000a080 <safe_mod_func_uint64_t_u_u>:
    a080:	f3 0f 1e fa          	endbr64 
    a084:	55                   	push   %rbp
    a085:	48 89 e5             	mov    %rsp,%rbp
    a088:	48 89 7d f8          	mov    %rdi,-0x8(%rbp)
    a08c:	48 89 75 f0          	mov    %rsi,-0x10(%rbp)
    a090:	48 83 7d f0 00       	cmpq   $0x0,-0x10(%rbp)
    a095:	74 12                	je     a0a9 <safe_mod_func_uint64_t_u_u+0x29>
    a097:	48 8b 45 f8          	mov    -0x8(%rbp),%rax
    a09b:	ba 00 00 00 00       	mov    $0x0,%edx
    a0a0:	48 f7 75 f0          	divq   -0x10(%rbp)
    a0a4:	48 89 d0             	mov    %rdx,%rax
    a0a7:	eb 04                	jmp    a0ad <safe_mod_func_uint64_t_u_u+0x2d>
    a0a9:	48 8b 45 f8          	mov    -0x8(%rbp),%rax
    a0ad:	5d                   	pop    %rbp
    a0ae:	c3                   	retq   

000000000000a0af <safe_div_func_uint64_t_u_u>:
    a0af:	f3 0f 1e fa          	endbr64 
    a0b3:	55                   	push   %rbp
    a0b4:	48 89 e5             	mov    %rsp,%rbp
    a0b7:	48 89 7d f8          	mov    %rdi,-0x8(%rbp)
    a0bb:	48 89 75 f0          	mov    %rsi,-0x10(%rbp)
    a0bf:	48 83 7d f0 00       	cmpq   $0x0,-0x10(%rbp)
    a0c4:	74 0f                	je     a0d5 <safe_div_func_uint64_t_u_u+0x26>
    a0c6:	48 8b 45 f8          	mov    -0x8(%rbp),%rax
    a0ca:	ba 00 00 00 00       	mov    $0x0,%edx
    a0cf:	48 f7 75 f0          	divq   -0x10(%rbp)
    a0d3:	eb 04                	jmp    a0d9 <safe_div_func_uint64_t_u_u+0x2a>
    a0d5:	48 8b 45 f8          	mov    -0x8(%rbp),%rax
    a0d9:	5d                   	pop    %rbp
    a0da:	c3                   	retq   

000000000000a0db <safe_lshift_func_uint64_t_u_s>:
    a0db:	f3 0f 1e fa          	endbr64 
    a0df:	55                   	push   %rbp
    a0e0:	48 89 e5             	mov    %rsp,%rbp
    a0e3:	48 89 7d f8          	mov    %rdi,-0x8(%rbp)
    a0e7:	89 75 f4             	mov    %esi,-0xc(%rbp)
    a0ea:	83 7d f4 00          	cmpl   $0x0,-0xc(%rbp)
    a0ee:	78 2f                	js     a11f <safe_lshift_func_uint64_t_u_s+0x44>
    a0f0:	83 7d f4 1f          	cmpl   $0x1f,-0xc(%rbp)
    a0f4:	7f 29                	jg     a11f <safe_lshift_func_uint64_t_u_s+0x44>
    a0f6:	8b 45 f4             	mov    -0xc(%rbp),%eax
    a0f9:	48 c7 c2 ff ff ff ff 	mov    $0xffffffffffffffff,%rdx
    a100:	89 c1                	mov    %eax,%ecx
    a102:	48 d3 ea             	shr    %cl,%rdx
    a105:	48 89 d0             	mov    %rdx,%rax
    a108:	48 39 45 f8          	cmp    %rax,-0x8(%rbp)
    a10c:	77 11                	ja     a11f <safe_lshift_func_uint64_t_u_s+0x44>
    a10e:	8b 45 f4             	mov    -0xc(%rbp),%eax
    a111:	48 8b 55 f8          	mov    -0x8(%rbp),%rdx
    a115:	89 c1                	mov    %eax,%ecx
    a117:	48 d3 e2             	shl    %cl,%rdx
    a11a:	48 89 d0             	mov    %rdx,%rax
    a11d:	eb 04                	jmp    a123 <safe_lshift_func_uint64_t_u_s+0x48>
    a11f:	48 8b 45 f8          	mov    -0x8(%rbp),%rax
    a123:	5d                   	pop    %rbp
    a124:	c3                   	retq   

000000000000a125 <safe_lshift_func_uint64_t_u_u>:
    a125:	f3 0f 1e fa          	endbr64 
    a129:	55                   	push   %rbp
    a12a:	48 89 e5             	mov    %rsp,%rbp
    a12d:	48 89 7d f8          	mov    %rdi,-0x8(%rbp)
    a131:	89 75 f4             	mov    %esi,-0xc(%rbp)
    a134:	83 7d f4 1f          	cmpl   $0x1f,-0xc(%rbp)
    a138:	77 29                	ja     a163 <safe_lshift_func_uint64_t_u_u+0x3e>
    a13a:	8b 45 f4             	mov    -0xc(%rbp),%eax
    a13d:	48 c7 c2 ff ff ff ff 	mov    $0xffffffffffffffff,%rdx
    a144:	89 c1                	mov    %eax,%ecx
    a146:	48 d3 ea             	shr    %cl,%rdx
    a149:	48 89 d0             	mov    %rdx,%rax
    a14c:	48 39 45 f8          	cmp    %rax,-0x8(%rbp)
    a150:	77 11                	ja     a163 <safe_lshift_func_uint64_t_u_u+0x3e>
    a152:	8b 45 f4             	mov    -0xc(%rbp),%eax
    a155:	48 8b 55 f8          	mov    -0x8(%rbp),%rdx
    a159:	89 c1                	mov    %eax,%ecx
    a15b:	48 d3 e2             	shl    %cl,%rdx
    a15e:	48 89 d0             	mov    %rdx,%rax
    a161:	eb 04                	jmp    a167 <safe_lshift_func_uint64_t_u_u+0x42>
    a163:	48 8b 45 f8          	mov    -0x8(%rbp),%rax
    a167:	5d                   	pop    %rbp
    a168:	c3                   	retq   

000000000000a169 <safe_rshift_func_uint64_t_u_s>:
    a169:	f3 0f 1e fa          	endbr64 
    a16d:	55                   	push   %rbp
    a16e:	48 89 e5             	mov    %rsp,%rbp
    a171:	48 89 7d f8          	mov    %rdi,-0x8(%rbp)
    a175:	89 75 f4             	mov    %esi,-0xc(%rbp)
    a178:	83 7d f4 00          	cmpl   $0x0,-0xc(%rbp)
    a17c:	78 17                	js     a195 <safe_rshift_func_uint64_t_u_s+0x2c>
    a17e:	83 7d f4 1f          	cmpl   $0x1f,-0xc(%rbp)
    a182:	7f 11                	jg     a195 <safe_rshift_func_uint64_t_u_s+0x2c>
    a184:	8b 45 f4             	mov    -0xc(%rbp),%eax
    a187:	48 8b 55 f8          	mov    -0x8(%rbp),%rdx
    a18b:	89 c1                	mov    %eax,%ecx
    a18d:	48 d3 ea             	shr    %cl,%rdx
    a190:	48 89 d0             	mov    %rdx,%rax
    a193:	eb 04                	jmp    a199 <safe_rshift_func_uint64_t_u_s+0x30>
    a195:	48 8b 45 f8          	mov    -0x8(%rbp),%rax
    a199:	5d                   	pop    %rbp
    a19a:	c3                   	retq   

000000000000a19b <safe_rshift_func_uint64_t_u_u>:
    a19b:	f3 0f 1e fa          	endbr64 
    a19f:	55                   	push   %rbp
    a1a0:	48 89 e5             	mov    %rsp,%rbp
    a1a3:	48 89 7d f8          	mov    %rdi,-0x8(%rbp)
    a1a7:	89 75 f4             	mov    %esi,-0xc(%rbp)
    a1aa:	83 7d f4 1f          	cmpl   $0x1f,-0xc(%rbp)
    a1ae:	77 11                	ja     a1c1 <safe_rshift_func_uint64_t_u_u+0x26>
    a1b0:	8b 45 f4             	mov    -0xc(%rbp),%eax
    a1b3:	48 8b 55 f8          	mov    -0x8(%rbp),%rdx
    a1b7:	89 c1                	mov    %eax,%ecx
    a1b9:	48 d3 ea             	shr    %cl,%rdx
    a1bc:	48 89 d0             	mov    %rdx,%rax
    a1bf:	eb 04                	jmp    a1c5 <safe_rshift_func_uint64_t_u_u+0x2a>
    a1c1:	48 8b 45 f8          	mov    -0x8(%rbp),%rax
    a1c5:	5d                   	pop    %rbp
    a1c6:	c3                   	retq   

000000000000a1c7 <safe_add_func_float_f_f>:
    a1c7:	f3 0f 1e fa          	endbr64 
    a1cb:	55                   	push   %rbp
    a1cc:	48 89 e5             	mov    %rsp,%rbp
    a1cf:	f3 0f 11 45 fc       	movss  %xmm0,-0x4(%rbp)
    a1d4:	f3 0f 11 4d f8       	movss  %xmm1,-0x8(%rbp)
    a1d9:	f3 0f 10 4d fc       	movss  -0x4(%rbp),%xmm1
    a1de:	f3 0f 10 05 3e f0 00 	movss  0xf03e(%rip),%xmm0        # 19224 <l_2443.4449+0x14>
    a1e5:	00 
    a1e6:	f3 0f 59 c8          	mulss  %xmm0,%xmm1
    a1ea:	f3 0f 10 55 f8       	movss  -0x8(%rbp),%xmm2
    a1ef:	f3 0f 10 05 2d f0 00 	movss  0xf02d(%rip),%xmm0        # 19224 <l_2443.4449+0x14>
    a1f6:	00 
    a1f7:	f3 0f 59 c2          	mulss  %xmm2,%xmm0
    a1fb:	f3 0f 58 c1          	addss  %xmm1,%xmm0
    a1ff:	f3 0f 10 0d 29 f0 00 	movss  0xf029(%rip),%xmm1        # 19230 <l_2443.4449+0x20>
    a206:	00 
    a207:	0f 54 c1             	andps  %xmm1,%xmm0
    a20a:	0f 2f 05 2f f0 00 00 	comiss 0xf02f(%rip),%xmm0        # 19240 <l_2443.4449+0x30>
    a211:	76 07                	jbe    a21a <safe_add_func_float_f_f+0x53>
    a213:	f3 0f 10 45 fc       	movss  -0x4(%rbp),%xmm0
    a218:	eb 0a                	jmp    a224 <safe_add_func_float_f_f+0x5d>
    a21a:	f3 0f 10 45 fc       	movss  -0x4(%rbp),%xmm0
    a21f:	f3 0f 58 45 f8       	addss  -0x8(%rbp),%xmm0
    a224:	5d                   	pop    %rbp
    a225:	c3                   	retq   

000000000000a226 <safe_sub_func_float_f_f>:
    a226:	f3 0f 1e fa          	endbr64 
    a22a:	55                   	push   %rbp
    a22b:	48 89 e5             	mov    %rsp,%rbp
    a22e:	f3 0f 11 45 fc       	movss  %xmm0,-0x4(%rbp)
    a233:	f3 0f 11 4d f8       	movss  %xmm1,-0x8(%rbp)
    a238:	f3 0f 10 4d fc       	movss  -0x4(%rbp),%xmm1
    a23d:	f3 0f 10 05 df ef 00 	movss  0xefdf(%rip),%xmm0        # 19224 <l_2443.4449+0x14>
    a244:	00 
    a245:	f3 0f 59 c1          	mulss  %xmm1,%xmm0
    a249:	f3 0f 10 55 f8       	movss  -0x8(%rbp),%xmm2
    a24e:	f3 0f 10 0d ce ef 00 	movss  0xefce(%rip),%xmm1        # 19224 <l_2443.4449+0x14>
    a255:	00 
    a256:	f3 0f 59 ca          	mulss  %xmm2,%xmm1
    a25a:	f3 0f 5c c1          	subss  %xmm1,%xmm0
    a25e:	f3 0f 10 0d ca ef 00 	movss  0xefca(%rip),%xmm1        # 19230 <l_2443.4449+0x20>
    a265:	00 
    a266:	0f 54 c1             	andps  %xmm1,%xmm0
    a269:	0f 2f 05 d0 ef 00 00 	comiss 0xefd0(%rip),%xmm0        # 19240 <l_2443.4449+0x30>
    a270:	76 07                	jbe    a279 <safe_sub_func_float_f_f+0x53>
    a272:	f3 0f 10 45 fc       	movss  -0x4(%rbp),%xmm0
    a277:	eb 0a                	jmp    a283 <safe_sub_func_float_f_f+0x5d>
    a279:	f3 0f 10 45 fc       	movss  -0x4(%rbp),%xmm0
    a27e:	f3 0f 5c 45 f8       	subss  -0x8(%rbp),%xmm0
    a283:	5d                   	pop    %rbp
    a284:	c3                   	retq   

000000000000a285 <safe_mul_func_float_f_f>:
    a285:	f3 0f 1e fa          	endbr64 
    a289:	55                   	push   %rbp
    a28a:	48 89 e5             	mov    %rsp,%rbp
    a28d:	f3 0f 11 45 fc       	movss  %xmm0,-0x4(%rbp)
    a292:	f3 0f 11 4d f8       	movss  %xmm1,-0x8(%rbp)
    a297:	f3 0f 10 4d fc       	movss  -0x4(%rbp),%xmm1
    a29c:	f3 0f 10 05 a0 ef 00 	movss  0xefa0(%rip),%xmm0        # 19244 <l_2443.4449+0x34>
    a2a3:	00 
    a2a4:	f3 0f 59 c8          	mulss  %xmm0,%xmm1
    a2a8:	f3 0f 10 55 f8       	movss  -0x8(%rbp),%xmm2
    a2ad:	f3 0f 10 05 93 ef 00 	movss  0xef93(%rip),%xmm0        # 19248 <l_2443.4449+0x38>
    a2b4:	00 
    a2b5:	f3 0f 59 c2          	mulss  %xmm2,%xmm0
    a2b9:	f3 0f 59 c1          	mulss  %xmm1,%xmm0
    a2bd:	f3 0f 10 0d 6b ef 00 	movss  0xef6b(%rip),%xmm1        # 19230 <l_2443.4449+0x20>
    a2c4:	00 
    a2c5:	0f 54 c1             	andps  %xmm1,%xmm0
    a2c8:	0f 2f 05 7d ef 00 00 	comiss 0xef7d(%rip),%xmm0        # 1924c <l_2443.4449+0x3c>
    a2cf:	76 07                	jbe    a2d8 <safe_mul_func_float_f_f+0x53>
    a2d1:	f3 0f 10 45 fc       	movss  -0x4(%rbp),%xmm0
    a2d6:	eb 0a                	jmp    a2e2 <safe_mul_func_float_f_f+0x5d>
    a2d8:	f3 0f 10 45 fc       	movss  -0x4(%rbp),%xmm0
    a2dd:	f3 0f 59 45 f8       	mulss  -0x8(%rbp),%xmm0
    a2e2:	5d                   	pop    %rbp
    a2e3:	c3                   	retq   

000000000000a2e4 <safe_div_func_float_f_f>:
    a2e4:	f3 0f 1e fa          	endbr64 
    a2e8:	55                   	push   %rbp
    a2e9:	48 89 e5             	mov    %rsp,%rbp
    a2ec:	f3 0f 11 45 fc       	movss  %xmm0,-0x4(%rbp)
    a2f1:	f3 0f 11 4d f8       	movss  %xmm1,-0x8(%rbp)
    a2f6:	f3 0f 10 45 f8       	movss  -0x8(%rbp),%xmm0
    a2fb:	f3 0f 10 0d 2d ef 00 	movss  0xef2d(%rip),%xmm1        # 19230 <l_2443.4449+0x20>
    a302:	00 
    a303:	0f 54 c8             	andps  %xmm0,%xmm1
    a306:	f3 0f 10 05 42 ef 00 	movss  0xef42(%rip),%xmm0        # 19250 <l_2443.4449+0x40>
    a30d:	00 
    a30e:	0f 2f c1             	comiss %xmm1,%xmm0
    a311:	0f 97 c0             	seta   %al
    a314:	83 f0 01             	xor    $0x1,%eax
    a317:	84 c0                	test   %al,%al
    a319:	75 56                	jne    a371 <safe_div_func_float_f_f+0x8d>
    a31b:	66 0f ef c0          	pxor   %xmm0,%xmm0
    a31f:	0f 2e 45 f8          	ucomiss -0x8(%rbp),%xmm0
    a323:	7a 0a                	jp     a32f <safe_div_func_float_f_f+0x4b>
    a325:	66 0f ef c0          	pxor   %xmm0,%xmm0
    a329:	0f 2e 45 f8          	ucomiss -0x8(%rbp),%xmm0
    a32d:	74 4e                	je     a37d <safe_div_func_float_f_f+0x99>
    a32f:	f3 0f 10 4d fc       	movss  -0x4(%rbp),%xmm1
    a334:	f3 0f 10 05 18 ef 00 	movss  0xef18(%rip),%xmm0        # 19254 <l_2443.4449+0x44>
    a33b:	00 
    a33c:	f3 0f 59 c1          	mulss  %xmm1,%xmm0
    a340:	f3 0f 10 55 f8       	movss  -0x8(%rbp),%xmm2
    a345:	f3 0f 10 0d 0b ef 00 	movss  0xef0b(%rip),%xmm1        # 19258 <l_2443.4449+0x48>
    a34c:	00 
    a34d:	f3 0f 59 ca          	mulss  %xmm2,%xmm1
    a351:	f3 0f 5e c1          	divss  %xmm1,%xmm0
    a355:	f3 0f 10 0d d3 ee 00 	movss  0xeed3(%rip),%xmm1        # 19230 <l_2443.4449+0x20>
    a35c:	00 
    a35d:	0f 54 c1             	andps  %xmm1,%xmm0
    a360:	0f 2f 05 f5 ee 00 00 	comiss 0xeef5(%rip),%xmm0        # 1925c <l_2443.4449+0x4c>
    a367:	0f 97 c0             	seta   %al
    a36a:	83 f0 01             	xor    $0x1,%eax
    a36d:	84 c0                	test   %al,%al
    a36f:	74 0c                	je     a37d <safe_div_func_float_f_f+0x99>
    a371:	f3 0f 10 45 fc       	movss  -0x4(%rbp),%xmm0
    a376:	f3 0f 5e 45 f8       	divss  -0x8(%rbp),%xmm0
    a37b:	eb 05                	jmp    a382 <safe_div_func_float_f_f+0x9e>
    a37d:	f3 0f 10 45 fc       	movss  -0x4(%rbp),%xmm0
    a382:	5d                   	pop    %rbp
    a383:	c3                   	retq   

000000000000a384 <safe_add_func_double_f_f>:
    a384:	f3 0f 1e fa          	endbr64 
    a388:	55                   	push   %rbp
    a389:	48 89 e5             	mov    %rsp,%rbp
    a38c:	f2 0f 11 45 f8       	movsd  %xmm0,-0x8(%rbp)
    a391:	f2 0f 11 4d f0       	movsd  %xmm1,-0x10(%rbp)
    a396:	f2 0f 10 4d f8       	movsd  -0x8(%rbp),%xmm1
    a39b:	f2 0f 10 05 bd ee 00 	movsd  0xeebd(%rip),%xmm0        # 19260 <l_2443.4449+0x50>
    a3a2:	00 
    a3a3:	f2 0f 59 c8          	mulsd  %xmm0,%xmm1
    a3a7:	f2 0f 10 55 f0       	movsd  -0x10(%rbp),%xmm2
    a3ac:	f2 0f 10 05 ac ee 00 	movsd  0xeeac(%rip),%xmm0        # 19260 <l_2443.4449+0x50>
    a3b3:	00 
    a3b4:	f2 0f 59 c2          	mulsd  %xmm2,%xmm0
    a3b8:	f2 0f 58 c1          	addsd  %xmm1,%xmm0
    a3bc:	f3 0f 7e 0d ac ee 00 	movq   0xeeac(%rip),%xmm1        # 19270 <l_2443.4449+0x60>
    a3c3:	00 
    a3c4:	66 0f 54 c1          	andpd  %xmm1,%xmm0
    a3c8:	66 0f 2f 05 b0 ee 00 	comisd 0xeeb0(%rip),%xmm0        # 19280 <l_2443.4449+0x70>
    a3cf:	00 
    a3d0:	76 07                	jbe    a3d9 <safe_add_func_double_f_f+0x55>
    a3d2:	f2 0f 10 45 f8       	movsd  -0x8(%rbp),%xmm0
    a3d7:	eb 0a                	jmp    a3e3 <safe_add_func_double_f_f+0x5f>
    a3d9:	f2 0f 10 45 f8       	movsd  -0x8(%rbp),%xmm0
    a3de:	f2 0f 58 45 f0       	addsd  -0x10(%rbp),%xmm0
    a3e3:	5d                   	pop    %rbp
    a3e4:	c3                   	retq   

000000000000a3e5 <safe_sub_func_double_f_f>:
    a3e5:	f3 0f 1e fa          	endbr64 
    a3e9:	55                   	push   %rbp
    a3ea:	48 89 e5             	mov    %rsp,%rbp
    a3ed:	f2 0f 11 45 f8       	movsd  %xmm0,-0x8(%rbp)
    a3f2:	f2 0f 11 4d f0       	movsd  %xmm1,-0x10(%rbp)
    a3f7:	f2 0f 10 4d f8       	movsd  -0x8(%rbp),%xmm1
    a3fc:	f2 0f 10 05 5c ee 00 	movsd  0xee5c(%rip),%xmm0        # 19260 <l_2443.4449+0x50>
    a403:	00 
    a404:	f2 0f 59 c1          	mulsd  %xmm1,%xmm0
    a408:	f2 0f 10 55 f0       	movsd  -0x10(%rbp),%xmm2
    a40d:	f2 0f 10 0d 4b ee 00 	movsd  0xee4b(%rip),%xmm1        # 19260 <l_2443.4449+0x50>
    a414:	00 
    a415:	f2 0f 59 ca          	mulsd  %xmm2,%xmm1
    a419:	f2 0f 5c c1          	subsd  %xmm1,%xmm0
    a41d:	f3 0f 7e 0d 4b ee 00 	movq   0xee4b(%rip),%xmm1        # 19270 <l_2443.4449+0x60>
    a424:	00 
    a425:	66 0f 54 c1          	andpd  %xmm1,%xmm0
    a429:	66 0f 2f 05 4f ee 00 	comisd 0xee4f(%rip),%xmm0        # 19280 <l_2443.4449+0x70>
    a430:	00 
    a431:	76 07                	jbe    a43a <safe_sub_func_double_f_f+0x55>
    a433:	f2 0f 10 45 f8       	movsd  -0x8(%rbp),%xmm0
    a438:	eb 0a                	jmp    a444 <safe_sub_func_double_f_f+0x5f>
    a43a:	f2 0f 10 45 f8       	movsd  -0x8(%rbp),%xmm0
    a43f:	f2 0f 5c 45 f0       	subsd  -0x10(%rbp),%xmm0
    a444:	5d                   	pop    %rbp
    a445:	c3                   	retq   

000000000000a446 <safe_mul_func_double_f_f>:
    a446:	f3 0f 1e fa          	endbr64 
    a44a:	55                   	push   %rbp
    a44b:	48 89 e5             	mov    %rsp,%rbp
    a44e:	f2 0f 11 45 f8       	movsd  %xmm0,-0x8(%rbp)
    a453:	f2 0f 11 4d f0       	movsd  %xmm1,-0x10(%rbp)
    a458:	f2 0f 10 4d f8       	movsd  -0x8(%rbp),%xmm1
    a45d:	f2 0f 10 05 23 ee 00 	movsd  0xee23(%rip),%xmm0        # 19288 <l_2443.4449+0x78>
    a464:	00 
    a465:	f2 0f 59 c8          	mulsd  %xmm0,%xmm1
    a469:	f2 0f 10 55 f0       	movsd  -0x10(%rbp),%xmm2
    a46e:	f2 0f 10 05 1a ee 00 	movsd  0xee1a(%rip),%xmm0        # 19290 <l_2443.4449+0x80>
    a475:	00 
    a476:	f2 0f 59 c2          	mulsd  %xmm2,%xmm0
    a47a:	f2 0f 59 c1          	mulsd  %xmm1,%xmm0
    a47e:	f3 0f 7e 0d ea ed 00 	movq   0xedea(%rip),%xmm1        # 19270 <l_2443.4449+0x60>
    a485:	00 
    a486:	66 0f 54 c1          	andpd  %xmm1,%xmm0
    a48a:	66 0f 2f 05 06 ee 00 	comisd 0xee06(%rip),%xmm0        # 19298 <l_2443.4449+0x88>
    a491:	00 
    a492:	76 07                	jbe    a49b <safe_mul_func_double_f_f+0x55>
    a494:	f2 0f 10 45 f8       	movsd  -0x8(%rbp),%xmm0
    a499:	eb 0a                	jmp    a4a5 <safe_mul_func_double_f_f+0x5f>
    a49b:	f2 0f 10 45 f8       	movsd  -0x8(%rbp),%xmm0
    a4a0:	f2 0f 59 45 f0       	mulsd  -0x10(%rbp),%xmm0
    a4a5:	5d                   	pop    %rbp
    a4a6:	c3                   	retq   

000000000000a4a7 <safe_div_func_double_f_f>:
    a4a7:	f3 0f 1e fa          	endbr64 
    a4ab:	55                   	push   %rbp
    a4ac:	48 89 e5             	mov    %rsp,%rbp
    a4af:	f2 0f 11 45 f8       	movsd  %xmm0,-0x8(%rbp)
    a4b4:	f2 0f 11 4d f0       	movsd  %xmm1,-0x10(%rbp)
    a4b9:	f2 0f 10 45 f0       	movsd  -0x10(%rbp),%xmm0
    a4be:	f3 0f 7e 0d aa ed 00 	movq   0xedaa(%rip),%xmm1        # 19270 <l_2443.4449+0x60>
    a4c5:	00 
    a4c6:	66 0f 54 c8          	andpd  %xmm0,%xmm1
    a4ca:	f2 0f 10 05 ce ed 00 	movsd  0xedce(%rip),%xmm0        # 192a0 <l_2443.4449+0x90>
    a4d1:	00 
    a4d2:	66 0f 2f c1          	comisd %xmm1,%xmm0
    a4d6:	0f 97 c0             	seta   %al
    a4d9:	83 f0 01             	xor    $0x1,%eax
    a4dc:	84 c0                	test   %al,%al
    a4de:	75 5a                	jne    a53a <safe_div_func_double_f_f+0x93>
    a4e0:	66 0f ef c0          	pxor   %xmm0,%xmm0
    a4e4:	66 0f 2e 45 f0       	ucomisd -0x10(%rbp),%xmm0
    a4e9:	7a 0b                	jp     a4f6 <safe_div_func_double_f_f+0x4f>
    a4eb:	66 0f ef c0          	pxor   %xmm0,%xmm0
    a4ef:	66 0f 2e 45 f0       	ucomisd -0x10(%rbp),%xmm0
    a4f4:	74 50                	je     a546 <safe_div_func_double_f_f+0x9f>
    a4f6:	f2 0f 10 4d f8       	movsd  -0x8(%rbp),%xmm1
    a4fb:	f2 0f 10 05 a5 ed 00 	movsd  0xeda5(%rip),%xmm0        # 192a8 <l_2443.4449+0x98>
    a502:	00 
    a503:	f2 0f 59 c1          	mulsd  %xmm1,%xmm0
    a507:	f2 0f 10 55 f0       	movsd  -0x10(%rbp),%xmm2
    a50c:	f2 0f 10 0d 9c ed 00 	movsd  0xed9c(%rip),%xmm1        # 192b0 <l_2443.4449+0xa0>
    a513:	00 
    a514:	f2 0f 59 ca          	mulsd  %xmm2,%xmm1
    a518:	f2 0f 5e c1          	divsd  %xmm1,%xmm0
    a51c:	f3 0f 7e 0d 4c ed 00 	movq   0xed4c(%rip),%xmm1        # 19270 <l_2443.4449+0x60>
    a523:	00 
    a524:	66 0f 54 c1          	andpd  %xmm1,%xmm0
    a528:	66 0f 2f 05 88 ed 00 	comisd 0xed88(%rip),%xmm0        # 192b8 <l_2443.4449+0xa8>
    a52f:	00 
    a530:	0f 97 c0             	seta   %al
    a533:	83 f0 01             	xor    $0x1,%eax
    a536:	84 c0                	test   %al,%al
    a538:	74 0c                	je     a546 <safe_div_func_double_f_f+0x9f>
    a53a:	f2 0f 10 45 f8       	movsd  -0x8(%rbp),%xmm0
    a53f:	f2 0f 5e 45 f0       	divsd  -0x10(%rbp),%xmm0
    a544:	eb 05                	jmp    a54b <safe_div_func_double_f_f+0xa4>
    a546:	f2 0f 10 45 f8       	movsd  -0x8(%rbp),%xmm0
    a54b:	5d                   	pop    %rbp
    a54c:	c3                   	retq   

000000000000a54d <safe_convert_func_float_to_int32_t>:
    a54d:	f3 0f 1e fa          	endbr64 
    a551:	55                   	push   %rbp
    a552:	48 89 e5             	mov    %rsp,%rbp
    a555:	f3 0f 11 45 fc       	movss  %xmm0,-0x4(%rbp)
    a55a:	f3 0f 10 05 5e ed 00 	movss  0xed5e(%rip),%xmm0        # 192c0 <l_2443.4449+0xb0>
    a561:	00 
    a562:	0f 2f 45 fc          	comiss -0x4(%rbp),%xmm0
    a566:	0f 93 c0             	setae  %al
    a569:	83 f0 01             	xor    $0x1,%eax
    a56c:	84 c0                	test   %al,%al
    a56e:	74 21                	je     a591 <safe_convert_func_float_to_int32_t+0x44>
    a570:	f3 0f 10 45 fc       	movss  -0x4(%rbp),%xmm0
    a575:	0f 2f 05 48 ed 00 00 	comiss 0xed48(%rip),%xmm0        # 192c4 <l_2443.4449+0xb4>
    a57c:	0f 93 c0             	setae  %al
    a57f:	83 f0 01             	xor    $0x1,%eax
    a582:	84 c0                	test   %al,%al
    a584:	74 0b                	je     a591 <safe_convert_func_float_to_int32_t+0x44>
    a586:	f3 0f 10 45 fc       	movss  -0x4(%rbp),%xmm0
    a58b:	f3 0f 2c c0          	cvttss2si %xmm0,%eax
    a58f:	eb 05                	jmp    a596 <safe_convert_func_float_to_int32_t+0x49>
    a591:	b8 ff ff ff 7f       	mov    $0x7fffffff,%eax
    a596:	5d                   	pop    %rbp
    a597:	c3                   	retq   

000000000000a598 <crc32_gentab>:
    a598:	f3 0f 1e fa          	endbr64 
    a59c:	55                   	push   %rbp
    a59d:	48 89 e5             	mov    %rsp,%rbp
    a5a0:	c7 45 fc 20 83 b8 ed 	movl   $0xedb88320,-0x4(%rbp)
    a5a7:	c7 45 f4 00 00 00 00 	movl   $0x0,-0xc(%rbp)
    a5ae:	eb 51                	jmp    a601 <crc32_gentab+0x69>
    a5b0:	8b 45 f4             	mov    -0xc(%rbp),%eax
    a5b3:	89 45 f0             	mov    %eax,-0x10(%rbp)
    a5b6:	c7 45 f8 08 00 00 00 	movl   $0x8,-0x8(%rbp)
    a5bd:	eb 1e                	jmp    a5dd <crc32_gentab+0x45>
    a5bf:	8b 45 f0             	mov    -0x10(%rbp),%eax
    a5c2:	83 e0 01             	and    $0x1,%eax
    a5c5:	85 c0                	test   %eax,%eax
    a5c7:	74 0d                	je     a5d6 <crc32_gentab+0x3e>
    a5c9:	8b 45 f0             	mov    -0x10(%rbp),%eax
    a5cc:	d1 e8                	shr    %eax
    a5ce:	33 45 fc             	xor    -0x4(%rbp),%eax
    a5d1:	89 45 f0             	mov    %eax,-0x10(%rbp)
    a5d4:	eb 03                	jmp    a5d9 <crc32_gentab+0x41>
    a5d6:	d1 6d f0             	shrl   -0x10(%rbp)
    a5d9:	83 6d f8 01          	subl   $0x1,-0x8(%rbp)
    a5dd:	83 7d f8 00          	cmpl   $0x0,-0x8(%rbp)
    a5e1:	7f dc                	jg     a5bf <crc32_gentab+0x27>
    a5e3:	8b 45 f4             	mov    -0xc(%rbp),%eax
    a5e6:	48 98                	cltq   
    a5e8:	48 8d 0c 85 00 00 00 	lea    0x0(,%rax,4),%rcx
    a5ef:	00 
    a5f0:	48 8d 15 29 57 01 00 	lea    0x15729(%rip),%rdx        # 1fd20 <crc32_tab>
    a5f7:	8b 45 f0             	mov    -0x10(%rbp),%eax
    a5fa:	89 04 11             	mov    %eax,(%rcx,%rdx,1)
    a5fd:	83 45 f4 01          	addl   $0x1,-0xc(%rbp)
    a601:	81 7d f4 ff 00 00 00 	cmpl   $0xff,-0xc(%rbp)
    a608:	7e a6                	jle    a5b0 <crc32_gentab+0x18>
    a60a:	90                   	nop
    a60b:	90                   	nop
    a60c:	5d                   	pop    %rbp
    a60d:	c3                   	retq   

000000000000a60e <crc32_byte>:
    a60e:	f3 0f 1e fa          	endbr64 
    a612:	55                   	push   %rbp
    a613:	48 89 e5             	mov    %rsp,%rbp
    a616:	89 f8                	mov    %edi,%eax
    a618:	88 45 fc             	mov    %al,-0x4(%rbp)
    a61b:	8b 05 ff 19 01 00    	mov    0x119ff(%rip),%eax        # 1c020 <crc32_context>
    a621:	c1 e8 08             	shr    $0x8,%eax
    a624:	89 c1                	mov    %eax,%ecx
    a626:	0f b6 55 fc          	movzbl -0x4(%rbp),%edx
    a62a:	8b 05 f0 19 01 00    	mov    0x119f0(%rip),%eax        # 1c020 <crc32_context>
    a630:	31 d0                	xor    %edx,%eax
    a632:	0f b6 c0             	movzbl %al,%eax
    a635:	89 c0                	mov    %eax,%eax
    a637:	48 8d 14 85 00 00 00 	lea    0x0(,%rax,4),%rdx
    a63e:	00 
    a63f:	48 8d 05 da 56 01 00 	lea    0x156da(%rip),%rax        # 1fd20 <crc32_tab>
    a646:	8b 04 02             	mov    (%rdx,%rax,1),%eax
    a649:	31 c8                	xor    %ecx,%eax
    a64b:	89 05 cf 19 01 00    	mov    %eax,0x119cf(%rip)        # 1c020 <crc32_context>
    a651:	90                   	nop
    a652:	5d                   	pop    %rbp
    a653:	c3                   	retq   

000000000000a654 <crc32_8bytes>:
    a654:	f3 0f 1e fa          	endbr64 
    a658:	55                   	push   %rbp
    a659:	48 89 e5             	mov    %rsp,%rbp
    a65c:	48 83 ec 08          	sub    $0x8,%rsp
    a660:	48 89 7d f8          	mov    %rdi,-0x8(%rbp)
    a664:	48 8b 45 f8          	mov    -0x8(%rbp),%rax
    a668:	0f b6 c0             	movzbl %al,%eax
    a66b:	89 c7                	mov    %eax,%edi
    a66d:	e8 9c ff ff ff       	callq  a60e <crc32_byte>
    a672:	48 8b 45 f8          	mov    -0x8(%rbp),%rax
    a676:	48 c1 e8 08          	shr    $0x8,%rax
    a67a:	0f b6 c0             	movzbl %al,%eax
    a67d:	89 c7                	mov    %eax,%edi
    a67f:	e8 8a ff ff ff       	callq  a60e <crc32_byte>
    a684:	48 8b 45 f8          	mov    -0x8(%rbp),%rax
    a688:	48 c1 e8 10          	shr    $0x10,%rax
    a68c:	0f b6 c0             	movzbl %al,%eax
    a68f:	89 c7                	mov    %eax,%edi
    a691:	e8 78 ff ff ff       	callq  a60e <crc32_byte>
    a696:	48 8b 45 f8          	mov    -0x8(%rbp),%rax
    a69a:	48 c1 e8 18          	shr    $0x18,%rax
    a69e:	0f b6 c0             	movzbl %al,%eax
    a6a1:	89 c7                	mov    %eax,%edi
    a6a3:	e8 66 ff ff ff       	callq  a60e <crc32_byte>
    a6a8:	48 8b 45 f8          	mov    -0x8(%rbp),%rax
    a6ac:	48 c1 e8 20          	shr    $0x20,%rax
    a6b0:	0f b6 c0             	movzbl %al,%eax
    a6b3:	89 c7                	mov    %eax,%edi
    a6b5:	e8 54 ff ff ff       	callq  a60e <crc32_byte>
    a6ba:	48 8b 45 f8          	mov    -0x8(%rbp),%rax
    a6be:	48 c1 e8 28          	shr    $0x28,%rax
    a6c2:	0f b6 c0             	movzbl %al,%eax
    a6c5:	89 c7                	mov    %eax,%edi
    a6c7:	e8 42 ff ff ff       	callq  a60e <crc32_byte>
    a6cc:	48 8b 45 f8          	mov    -0x8(%rbp),%rax
    a6d0:	48 c1 e8 30          	shr    $0x30,%rax
    a6d4:	0f b6 c0             	movzbl %al,%eax
    a6d7:	89 c7                	mov    %eax,%edi
    a6d9:	e8 30 ff ff ff       	callq  a60e <crc32_byte>
    a6de:	48 8b 45 f8          	mov    -0x8(%rbp),%rax
    a6e2:	48 c1 e8 38          	shr    $0x38,%rax
    a6e6:	0f b6 c0             	movzbl %al,%eax
    a6e9:	89 c7                	mov    %eax,%edi
    a6eb:	e8 1e ff ff ff       	callq  a60e <crc32_byte>
    a6f0:	90                   	nop
    a6f1:	c9                   	leaveq 
    a6f2:	c3                   	retq   

000000000000a6f3 <transparent_crc>:
    a6f3:	f3 0f 1e fa          	endbr64 
    a6f7:	55                   	push   %rbp
    a6f8:	48 89 e5             	mov    %rsp,%rbp
    a6fb:	48 83 ec 20          	sub    $0x20,%rsp
    a6ff:	48 89 7d f8          	mov    %rdi,-0x8(%rbp)
    a703:	48 89 75 f0          	mov    %rsi,-0x10(%rbp)
    a707:	89 55 ec             	mov    %edx,-0x14(%rbp)
    a70a:	48 8b 45 f8          	mov    -0x8(%rbp),%rax
    a70e:	48 89 c7             	mov    %rax,%rdi
    a711:	e8 3e ff ff ff       	callq  a654 <crc32_8bytes>
    a716:	83 7d ec 00          	cmpl   $0x0,-0x14(%rbp)
    a71a:	74 22                	je     a73e <transparent_crc+0x4b>
    a71c:	8b 05 fe 18 01 00    	mov    0x118fe(%rip),%eax        # 1c020 <crc32_context>
    a722:	f7 d0                	not    %eax
    a724:	89 c2                	mov    %eax,%edx
    a726:	48 8b 45 f0          	mov    -0x10(%rbp),%rax
    a72a:	48 89 c6             	mov    %rax,%rsi
    a72d:	48 8d 3d fc c8 00 00 	lea    0xc8fc(%rip),%rdi        # 17030 <_IO_stdin_used+0x30>
    a734:	b8 00 00 00 00       	mov    $0x0,%eax
    a739:	e8 42 e9 ff ff       	callq  9080 <printf@plt>
    a73e:	90                   	nop
    a73f:	c9                   	leaveq 
    a740:	c3                   	retq   

000000000000a741 <transparent_crc_bytes>:
    a741:	f3 0f 1e fa          	endbr64 
    a745:	55                   	push   %rbp
    a746:	48 89 e5             	mov    %rsp,%rbp
    a749:	48 83 ec 30          	sub    $0x30,%rsp
    a74d:	48 89 7d e8          	mov    %rdi,-0x18(%rbp)
    a751:	89 75 e4             	mov    %esi,-0x1c(%rbp)
    a754:	48 89 55 d8          	mov    %rdx,-0x28(%rbp)
    a758:	89 4d e0             	mov    %ecx,-0x20(%rbp)
    a75b:	c7 45 fc 00 00 00 00 	movl   $0x0,-0x4(%rbp)
    a762:	eb 1e                	jmp    a782 <transparent_crc_bytes+0x41>
    a764:	8b 45 fc             	mov    -0x4(%rbp),%eax
    a767:	48 63 d0             	movslq %eax,%rdx
    a76a:	48 8b 45 e8          	mov    -0x18(%rbp),%rax
    a76e:	48 01 d0             	add    %rdx,%rax
    a771:	0f b6 00             	movzbl (%rax),%eax
    a774:	0f b6 c0             	movzbl %al,%eax
    a777:	89 c7                	mov    %eax,%edi
    a779:	e8 90 fe ff ff       	callq  a60e <crc32_byte>
    a77e:	83 45 fc 01          	addl   $0x1,-0x4(%rbp)
    a782:	8b 45 fc             	mov    -0x4(%rbp),%eax
    a785:	3b 45 e4             	cmp    -0x1c(%rbp),%eax
    a788:	7c da                	jl     a764 <transparent_crc_bytes+0x23>
    a78a:	83 7d e0 00          	cmpl   $0x0,-0x20(%rbp)
    a78e:	74 22                	je     a7b2 <transparent_crc_bytes+0x71>
    a790:	8b 05 8a 18 01 00    	mov    0x1188a(%rip),%eax        # 1c020 <crc32_context>
    a796:	f7 d0                	not    %eax
    a798:	89 c2                	mov    %eax,%edx
    a79a:	48 8b 45 d8          	mov    -0x28(%rbp),%rax
    a79e:	48 89 c6             	mov    %rax,%rsi
    a7a1:	48 8d 3d 88 c8 00 00 	lea    0xc888(%rip),%rdi        # 17030 <_IO_stdin_used+0x30>
    a7a8:	b8 00 00 00 00       	mov    $0x0,%eax
    a7ad:	e8 ce e8 ff ff       	callq  9080 <printf@plt>
    a7b2:	90                   	nop
    a7b3:	c9                   	leaveq 
    a7b4:	c3                   	retq   

000000000000a7b5 <func_1>:
    a7b5:	f3 0f 1e fa          	endbr64 
    a7b9:	55                   	push   %rbp
    a7ba:	48 89 e5             	mov    %rsp,%rbp
    a7bd:	41 57                	push   %r15
    a7bf:	41 56                	push   %r14
    a7c1:	41 55                	push   %r13
    a7c3:	41 54                	push   %r12
    a7c5:	53                   	push   %rbx
    a7c6:	48 81 ec 98 00 00 00 	sub    $0x98,%rsp
    a7cd:	64 48 8b 04 25 28 00 	mov    %fs:0x28,%rax
    a7d4:	00 00 
    a7d6:	48 89 45 c8          	mov    %rax,-0x38(%rbp)
    a7da:	31 c0                	xor    %eax,%eax
    a7dc:	c6 85 6b ff ff ff fc 	movb   $0xfc,-0x95(%rbp)
    a7e3:	48 8d 05 56 1a 01 00 	lea    0x11a56(%rip),%rax        # 1c240 <g_2012>
    a7ea:	48 89 85 70 ff ff ff 	mov    %rax,-0x90(%rbp)
    a7f1:	48 8d 05 60 1a 01 00 	lea    0x11a60(%rip),%rax        # 1c258 <g_2277+0x8>
    a7f8:	48 89 45 80          	mov    %rax,-0x80(%rbp)
    a7fc:	48 8d 05 2d 19 01 00 	lea    0x1192d(%rip),%rax        # 1c130 <g_126>
    a803:	48 89 45 88          	mov    %rax,-0x78(%rbp)
    a807:	48 8d 05 4a 1a 01 00 	lea    0x11a4a(%rip),%rax        # 1c258 <g_2277+0x8>
    a80e:	48 89 45 90          	mov    %rax,-0x70(%rbp)
    a812:	48 8d 05 17 19 01 00 	lea    0x11917(%rip),%rax        # 1c130 <g_126>
    a819:	48 89 45 98          	mov    %rax,-0x68(%rbp)
    a81d:	48 8d 05 34 1a 01 00 	lea    0x11a34(%rip),%rax        # 1c258 <g_2277+0x8>
    a824:	48 89 45 a0          	mov    %rax,-0x60(%rbp)
    a828:	48 8d 05 01 19 01 00 	lea    0x11901(%rip),%rax        # 1c130 <g_126>
    a82f:	48 89 45 a8          	mov    %rax,-0x58(%rbp)
    a833:	48 8d 05 1e 1a 01 00 	lea    0x11a1e(%rip),%rax        # 1c258 <g_2277+0x8>
    a83a:	48 89 45 b0          	mov    %rax,-0x50(%rbp)
    a83e:	48 8d 05 eb 18 01 00 	lea    0x118eb(%rip),%rax        # 1c130 <g_126>
    a845:	48 89 45 b8          	mov    %rax,-0x48(%rbp)
    a849:	c7 85 6c ff ff ff 01 	movl   $0x1,-0x94(%rbp)
    a850:	00 00 00 
    a853:	48 8d 05 c6 20 01 00 	lea    0x120c6(%rip),%rax        # 1c920 <g_2805>
    a85a:	48 89 85 78 ff ff ff 	mov    %rax,-0x88(%rbp)
    a861:	0f b6 9d 6b ff ff ff 	movzbl -0x95(%rbp),%ebx
    a868:	44 0f b6 ad 6b ff ff 	movzbl -0x95(%rbp),%r13d
    a86f:	ff 
    a870:	44 0f b6 a5 6b ff ff 	movzbl -0x95(%rbp),%r12d
    a877:	ff 
    a878:	0f b6 95 6b ff ff ff 	movzbl -0x95(%rbp),%edx
    a87f:	8b 05 fb 17 01 00    	mov    0x117fb(%rip),%eax        # 1c080 <g_14+0x40>
    a885:	89 c7                	mov    %eax,%edi
    a887:	8b 35 e3 17 01 00    	mov    0x117e3(%rip),%esi        # 1c070 <g_14+0x30>
    a88d:	8b 05 dd 17 01 00    	mov    0x117dd(%rip),%eax        # 1c070 <g_14+0x30>
    a893:	0f be c0             	movsbl %al,%eax
    a896:	48 89 d1             	mov    %rdx,%rcx
    a899:	48 89 fa             	mov    %rdi,%rdx
    a89c:	89 c7                	mov    %eax,%edi
    a89e:	e8 fc 18 00 00       	callq  c19f <func_9>
    a8a3:	44 0f b6 b5 6b ff ff 	movzbl -0x95(%rbp),%r14d
    a8aa:	ff 
    a8ab:	44 0f b6 bd 6b ff ff 	movzbl -0x95(%rbp),%r15d
    a8b2:	ff 
    a8b3:	0f b6 85 6b ff ff ff 	movzbl -0x95(%rbp),%eax
    a8ba:	89 85 5c ff ff ff    	mov    %eax,-0xa4(%rbp)
    a8c0:	0f b6 8d 6b ff ff ff 	movzbl -0x95(%rbp),%ecx
    a8c7:	48 89 8d 50 ff ff ff 	mov    %rcx,-0xb0(%rbp)
    a8ce:	0f b6 bd 6b ff ff ff 	movzbl -0x95(%rbp),%edi
    a8d5:	48 89 bd 48 ff ff ff 	mov    %rdi,-0xb8(%rbp)
    a8dc:	44 0f b6 85 6b ff ff 	movzbl -0x95(%rbp),%r8d
    a8e3:	ff 
    a8e4:	44 89 85 58 ff ff ff 	mov    %r8d,-0xa8(%rbp)
    a8eb:	44 0f b6 8d 6b ff ff 	movzbl -0x95(%rbp),%r9d
    a8f2:	ff 
    a8f3:	44 89 8d 44 ff ff ff 	mov    %r9d,-0xbc(%rbp)
    a8fa:	8b 05 74 17 01 00    	mov    0x11774(%rip),%eax        # 1c074 <g_14+0x34>
    a900:	89 c1                	mov    %eax,%ecx
    a902:	8b 05 68 17 01 00    	mov    0x11768(%rip),%eax        # 1c070 <g_14+0x30>
    a908:	89 c2                	mov    %eax,%edx
    a90a:	8b 35 64 17 01 00    	mov    0x11764(%rip),%esi        # 1c074 <g_14+0x34>
    a910:	0f b6 85 6b ff ff ff 	movzbl -0x95(%rbp),%eax
    a917:	0f be c0             	movsbl %al,%eax
    a91a:	89 c7                	mov    %eax,%edi
    a91c:	e8 7e 18 00 00       	callq  c19f <func_9>
    a921:	bf 01 00 00 00       	mov    $0x1,%edi
    a926:	e8 65 2c 00 00       	callq  d590 <func_27>
    a92b:	8b b5 44 ff ff ff    	mov    -0xbc(%rbp),%esi
    a931:	89 c7                	mov    %eax,%edi
    a933:	e8 62 19 00 00       	callq  c29a <func_24>
    a938:	be 03 00 00 00       	mov    $0x3,%esi
    a93d:	bf ff ff ff ff       	mov    $0xffffffff,%edi
    a942:	e8 1c ec ff ff       	callq  9563 <safe_rshift_func_int16_t_s_u>
    a947:	48 c7 c0 f8 ff ff ff 	mov    $0xfffffffffffffff8,%rax
    a94e:	89 c7                	mov    %eax,%edi
    a950:	e8 6a 18 00 00       	callq  c1bf <func_20>
    a955:	89 c2                	mov    %eax,%edx
    a957:	48 8b 85 70 ff ff ff 	mov    -0x90(%rbp),%rax
    a95e:	0f b6 00             	movzbl (%rax),%eax
    a961:	31 c2                	xor    %eax,%edx
    a963:	48 8b 85 70 ff ff ff 	mov    -0x90(%rbp),%rax
    a96a:	88 10                	mov    %dl,(%rax)
    a96c:	48 8b 85 70 ff ff ff 	mov    -0x90(%rbp),%rax
    a973:	0f b6 00             	movzbl (%rax),%eax
    a976:	0f be c0             	movsbl %al,%eax
    a979:	48 8b 8d 50 ff ff ff 	mov    -0xb0(%rbp),%rcx
    a980:	48 8b 95 48 ff ff ff 	mov    -0xb8(%rbp),%rdx
    a987:	8b b5 58 ff ff ff    	mov    -0xa8(%rbp),%esi
    a98d:	89 c7                	mov    %eax,%edi
    a98f:	e8 0b 18 00 00       	callq  c19f <func_9>
    a994:	0f b7 c0             	movzwl %ax,%eax
    a997:	8b b5 5c ff ff ff    	mov    -0xa4(%rbp),%esi
    a99d:	89 c7                	mov    %eax,%edi
    a99f:	e8 7b f3 ff ff       	callq  9d1f <safe_sub_func_uint16_t_u_u>
    a9a4:	0f b6 95 6b ff ff ff 	movzbl -0x95(%rbp),%edx
    a9ab:	66 39 d0             	cmp    %dx,%ax
    a9ae:	0f 95 c0             	setne  %al
    a9b1:	0f b6 d0             	movzbl %al,%edx
    a9b4:	8b 35 b6 16 01 00    	mov    0x116b6(%rip),%esi        # 1c070 <g_14+0x30>
    a9ba:	0f b6 85 6b ff ff ff 	movzbl -0x95(%rbp),%eax
    a9c1:	0f be c0             	movsbl %al,%eax
    a9c4:	4c 89 f9             	mov    %r15,%rcx
    a9c7:	89 c7                	mov    %eax,%edi
    a9c9:	e8 d1 17 00 00       	callq  c19f <func_9>
    a9ce:	89 c2                	mov    %eax,%edx
    a9d0:	48 8b 05 c1 48 01 00 	mov    0x148c1(%rip),%rax        # 1f298 <g_754>
    a9d7:	8b 00                	mov    (%rax),%eax
    a9d9:	21 d0                	and    %edx,%eax
    a9db:	0f b6 c0             	movzbl %al,%eax
    a9de:	44 89 f6             	mov    %r14d,%esi
    a9e1:	89 c7                	mov    %eax,%edi
    a9e3:	e8 90 f1 ff ff       	callq  9b78 <safe_sub_func_uint8_t_u_u>
    a9e8:	0f b6 c0             	movzbl %al,%eax
    a9eb:	89 85 6c ff ff ff    	mov    %eax,-0x94(%rbp)
    a9f1:	44 89 ea             	mov    %r13d,%edx
    a9f4:	44 89 e6             	mov    %r12d,%esi
    a9f7:	bf 01 00 00 00       	mov    $0x1,%edi
    a9fc:	e8 48 17 00 00       	callq  c149 <func_5>
    aa01:	0f be c0             	movsbl %al,%eax
    aa04:	89 de                	mov    %ebx,%esi
    aa06:	89 c7                	mov    %eax,%edi
    aa08:	e8 47 00 00 00       	callq  aa54 <func_2>
    aa0d:	48 8b 95 78 ff ff ff 	mov    -0x88(%rbp),%rdx
    aa14:	8b 12                	mov    (%rdx),%edx
    aa16:	21 c2                	and    %eax,%edx
    aa18:	48 8b 85 78 ff ff ff 	mov    -0x88(%rbp),%rax
    aa1f:	89 10                	mov    %edx,(%rax)
    aa21:	48 8b 05 b0 4a 01 00 	mov    0x14ab0(%rip),%rax        # 1f4d8 <g_1172>
    aa28:	48 8b 00             	mov    (%rax),%rax
    aa2b:	48 8b 00             	mov    (%rax),%rax
    aa2e:	48 8b 5d c8          	mov    -0x38(%rbp),%rbx
    aa32:	64 48 33 1c 25 28 00 	xor    %fs:0x28,%rbx
    aa39:	00 00 
    aa3b:	74 05                	je     aa42 <func_1+0x28d>
    aa3d:	e8 2e e6 ff ff       	callq  9070 <__stack_chk_fail@plt>
    aa42:	48 81 c4 98 00 00 00 	add    $0x98,%rsp
    aa49:	5b                   	pop    %rbx
    aa4a:	41 5c                	pop    %r12
    aa4c:	41 5d                	pop    %r13
    aa4e:	41 5e                	pop    %r14
    aa50:	41 5f                	pop    %r15
    aa52:	5d                   	pop    %rbp
    aa53:	c3                   	retq   

000000000000aa54 <func_2>:
    aa54:	f3 0f 1e fa          	endbr64 
    aa58:	55                   	push   %rbp
    aa59:	48 89 e5             	mov    %rsp,%rbp
    aa5c:	41 57                	push   %r15
    aa5e:	41 56                	push   %r14
    aa60:	41 55                	push   %r13
    aa62:	41 54                	push   %r12
    aa64:	53                   	push   %rbx
    aa65:	48 81 ec 18 0e 00 00 	sub    $0xe18,%rsp
    aa6c:	89 bd dc f1 ff ff    	mov    %edi,-0xe24(%rbp)
    aa72:	89 f0                	mov    %esi,%eax
    aa74:	66 89 85 d8 f1 ff ff 	mov    %ax,-0xe28(%rbp)
    aa7b:	64 48 8b 04 25 28 00 	mov    %fs:0x28,%rax
    aa82:	00 00 
    aa84:	48 89 45 c8          	mov    %rax,-0x38(%rbp)
    aa88:	31 c0                	xor    %eax,%eax
    aa8a:	c7 85 f8 f1 ff ff fe 	movl   $0xfffffffe,-0xe08(%rbp)
    aa91:	ff ff ff 
    aa94:	48 c7 85 30 f5 ff ff 	movq   $0x0,-0xad0(%rbp)
    aa9b:	00 00 00 00 
    aa9f:	48 c7 85 38 f5 ff ff 	movq   $0x0,-0xac8(%rbp)
    aaa6:	00 00 00 00 
    aaaa:	48 c7 85 40 f5 ff ff 	movq   $0x0,-0xac0(%rbp)
    aab1:	00 00 00 00 
    aab5:	48 c7 85 48 f5 ff ff 	movq   $0x0,-0xab8(%rbp)
    aabc:	00 00 00 00 
    aac0:	48 c7 85 50 f5 ff ff 	movq   $0x0,-0xab0(%rbp)
    aac7:	00 00 00 00 
    aacb:	48 c7 85 58 f5 ff ff 	movq   $0x0,-0xaa8(%rbp)
    aad2:	00 00 00 00 
    aad6:	48 c7 85 60 f5 ff ff 	movq   $0x0,-0xaa0(%rbp)
    aadd:	00 00 00 00 
    aae1:	48 c7 85 68 f5 ff ff 	movq   $0x0,-0xa98(%rbp)
    aae8:	00 00 00 00 
    aaec:	48 c7 85 70 f5 ff ff 	movq   $0x0,-0xa90(%rbp)
    aaf3:	00 00 00 00 
    aaf7:	48 c7 85 e0 f2 ff ff 	movq   $0x0,-0xd20(%rbp)
    aafe:	00 00 00 00 
    ab02:	48 8d 85 f0 fc ff ff 	lea    -0x310(%rbp),%rax
    ab09:	48 8d 15 30 1e 01 00 	lea    0x11e30(%rip),%rdx        # 1c940 <g_2805+0x20>
    ab10:	b9 5a 00 00 00       	mov    $0x5a,%ecx
    ab15:	48 89 c7             	mov    %rax,%rdi
    ab18:	48 89 d6             	mov    %rdx,%rsi
    ab1b:	f3 48 a5             	rep movsq %ds:(%rsi),%es:(%rdi)
    ab1e:	48 8d 85 f0 fc ff ff 	lea    -0x310(%rbp),%rax
    ab25:	48 05 f8 00 00 00    	add    $0xf8,%rax
    ab2b:	48 89 85 e8 f2 ff ff 	mov    %rax,-0xd18(%rbp)
    ab32:	48 c7 85 f0 f2 ff ff 	movq   $0x1,-0xd10(%rbp)
    ab39:	01 00 00 00 
    ab3d:	48 8d 85 b0 f8 ff ff 	lea    -0x750(%rbp),%rax
    ab44:	48 8d 15 35 c5 00 00 	lea    0xc535(%rip),%rdx        # 17080 <g_2409+0x10>
    ab4b:	b9 30 00 00 00       	mov    $0x30,%ecx
    ab50:	48 89 c7             	mov    %rax,%rdi
    ab53:	48 89 d6             	mov    %rdx,%rsi
    ab56:	f3 48 a5             	rep movsq %ds:(%rsi),%es:(%rdi)
    ab59:	48 8d 05 28 51 01 00 	lea    0x15128(%rip),%rax        # 1fc88 <g_2610>
    ab60:	48 89 85 c8 f2 ff ff 	mov    %rax,-0xd38(%rbp)
    ab67:	48 8d 05 d2 47 01 00 	lea    0x147d2(%rip),%rax        # 1f340 <g_1096>
    ab6e:	48 89 85 70 f4 ff ff 	mov    %rax,-0xb90(%rbp)
    ab75:	48 8d 05 c4 47 01 00 	lea    0x147c4(%rip),%rax        # 1f340 <g_1096>
    ab7c:	48 89 85 78 f4 ff ff 	mov    %rax,-0xb88(%rbp)
    ab83:	48 8d 05 b6 47 01 00 	lea    0x147b6(%rip),%rax        # 1f340 <g_1096>
    ab8a:	48 89 85 80 f4 ff ff 	mov    %rax,-0xb80(%rbp)
    ab91:	48 8d 05 a8 47 01 00 	lea    0x147a8(%rip),%rax        # 1f340 <g_1096>
    ab98:	48 89 85 88 f4 ff ff 	mov    %rax,-0xb78(%rbp)
    ab9f:	48 8d 05 9a 47 01 00 	lea    0x1479a(%rip),%rax        # 1f340 <g_1096>
    aba6:	48 89 85 90 f4 ff ff 	mov    %rax,-0xb70(%rbp)
    abad:	48 8d 05 8c 47 01 00 	lea    0x1478c(%rip),%rax        # 1f340 <g_1096>
    abb4:	48 89 85 98 f4 ff ff 	mov    %rax,-0xb68(%rbp)
    abbb:	48 8d 05 7e 47 01 00 	lea    0x1477e(%rip),%rax        # 1f340 <g_1096>
    abc2:	48 89 85 a0 f4 ff ff 	mov    %rax,-0xb60(%rbp)
    abc9:	48 8d 05 f0 1b 01 00 	lea    0x11bf0(%rip),%rax        # 1c7c0 <g_2687>
    abd0:	48 89 85 68 f2 ff ff 	mov    %rax,-0xd98(%rbp)
    abd7:	c7 85 04 f2 ff ff 8d 	movl   $0x49fefb8d,-0xdfc(%rbp)
    abde:	fb fe 49 
    abe1:	c7 85 08 f2 ff ff 00 	movl   $0x0,-0xdf8(%rbp)
    abe8:	00 00 00 
    abeb:	eb 1b                	jmp    ac08 <func_2+0x1b4>
    abed:	8b 85 08 f2 ff ff    	mov    -0xdf8(%rbp),%eax
    abf3:	48 98                	cltq   
    abf5:	48 c7 84 c5 c8 f3 ff 	movq   $0x7,-0xc38(%rbp,%rax,8)
    abfc:	ff 07 00 00 00 
    ac01:	83 85 08 f2 ff ff 01 	addl   $0x1,-0xdf8(%rbp)
    ac08:	83 bd 08 f2 ff ff 00 	cmpl   $0x0,-0xdf8(%rbp)
    ac0f:	7e dc                	jle    abed <func_2+0x199>
    ac11:	66 c7 05 fc 15 01 00 	movw   $0x4,0x115fc(%rip)        # 1c216 <g_714>
    ac18:	04 00 
    ac1a:	e9 ee 14 00 00       	jmpq   c10d <func_2+0x16b9>
    ac1f:	48 8d 05 5a 15 01 00 	lea    0x1155a(%rip),%rax        # 1c180 <g_238>
    ac26:	48 89 85 d0 f2 ff ff 	mov    %rax,-0xd30(%rbp)
    ac2d:	48 8d 05 4c 15 01 00 	lea    0x1154c(%rip),%rax        # 1c180 <g_238>
    ac34:	48 89 85 d8 f2 ff ff 	mov    %rax,-0xd28(%rbp)
    ac3b:	48 8d 05 62 14 01 00 	lea    0x11462(%rip),%rax        # 1c0a4 <g_99>
    ac42:	48 89 85 70 f2 ff ff 	mov    %rax,-0xd90(%rbp)
    ac49:	48 c7 85 78 f2 ff ff 	movq   $0x0,-0xd88(%rbp)
    ac50:	00 00 00 00 
    ac54:	c7 85 0c f2 ff ff 00 	movl   $0x0,-0xdf4(%rbp)
    ac5b:	00 00 00 
    ac5e:	c7 85 10 f2 ff ff 07 	movl   $0x7,-0xdf0(%rbp)
    ac65:	00 00 00 
    ac68:	c7 85 14 f2 ff ff 05 	movl   $0x5,-0xdec(%rbp)
    ac6f:	00 00 00 
    ac72:	c7 85 18 f2 ff ff f7 	movl   $0xfffffff7,-0xde8(%rbp)
    ac79:	ff ff ff 
    ac7c:	c7 85 1c f2 ff ff 1b 	movl   $0xb02de71b,-0xde4(%rbp)
    ac83:	e7 2d b0 
    ac86:	c7 85 20 f2 ff ff ae 	movl   $0x509602ae,-0xde0(%rbp)
    ac8d:	02 96 50 
    ac90:	c7 85 24 f2 ff ff ff 	movl   $0xffffffff,-0xddc(%rbp)
    ac97:	ff ff ff 
    ac9a:	c7 85 00 f2 ff ff 00 	movl   $0x0,-0xe00(%rbp)
    aca1:	00 00 00 
    aca4:	48 b8 ff 9e 00 9e ff 	movabs $0x2fe4eff9e009eff,%rax
    acab:	4e fe 02 
    acae:	48 89 85 e0 f5 ff ff 	mov    %rax,-0xa20(%rbp)
    acb5:	66 c7 85 e8 f5 ff ff 	movw   $0x4efe,-0xa18(%rbp)
    acbc:	fe 4e 
    acbe:	48 89 85 ea f5 ff ff 	mov    %rax,-0xa16(%rbp)
    acc5:	66 c7 85 f2 f5 ff ff 	movw   $0x4efe,-0xa0e(%rbp)
    accc:	fe 4e 
    acce:	48 89 85 f4 f5 ff ff 	mov    %rax,-0xa0c(%rbp)
    acd5:	66 c7 85 fc f5 ff ff 	movw   $0x4efe,-0xa04(%rbp)
    acdc:	fe 4e 
    acde:	48 89 85 fe f5 ff ff 	mov    %rax,-0xa02(%rbp)
    ace5:	66 c7 85 06 f6 ff ff 	movw   $0x4efe,-0x9fa(%rbp)
    acec:	fe 4e 
    acee:	48 89 85 08 f6 ff ff 	mov    %rax,-0x9f8(%rbp)
    acf5:	66 c7 85 10 f6 ff ff 	movw   $0x4efe,-0x9f0(%rbp)
    acfc:	fe 4e 
    acfe:	48 89 85 12 f6 ff ff 	mov    %rax,-0x9ee(%rbp)
    ad05:	66 c7 85 1a f6 ff ff 	movw   $0x4efe,-0x9e6(%rbp)
    ad0c:	fe 4e 
    ad0e:	48 89 85 1c f6 ff ff 	mov    %rax,-0x9e4(%rbp)
    ad15:	66 c7 85 24 f6 ff ff 	movw   $0x4efe,-0x9dc(%rbp)
    ad1c:	fe 4e 
    ad1e:	48 b8 fe ff f6 ff fe 	movabs $0xff89efefff6fffe,%rax
    ad25:	9e f8 0f 
    ad28:	48 89 85 26 f6 ff ff 	mov    %rax,-0x9da(%rbp)
    ad2f:	66 c7 85 2e f6 ff ff 	movw   $0x9ef8,-0x9d2(%rbp)
    ad36:	f8 9e 
    ad38:	48 89 85 30 f6 ff ff 	mov    %rax,-0x9d0(%rbp)
    ad3f:	66 c7 85 38 f6 ff ff 	movw   $0x9ef8,-0x9c8(%rbp)
    ad46:	f8 9e 
    ad48:	48 89 85 3a f6 ff ff 	mov    %rax,-0x9c6(%rbp)
    ad4f:	66 c7 85 42 f6 ff ff 	movw   $0x9ef8,-0x9be(%rbp)
    ad56:	f8 9e 
    ad58:	8b 85 90 f3 ff ff    	mov    -0xc70(%rbp),%eax
    ad5e:	25 00 00 f0 ff       	and    $0xfff00000,%eax
    ad63:	0c aa                	or     $0xaa,%al
    ad65:	89 85 90 f3 ff ff    	mov    %eax,-0xc70(%rbp)
    ad6b:	8b 85 94 f3 ff ff    	mov    -0xc6c(%rbp),%eax
    ad71:	25 00 00 00 fe       	and    $0xfe000000,%eax
    ad76:	0d ff 01 00 00       	or     $0x1ff,%eax
    ad7b:	89 85 94 f3 ff ff    	mov    %eax,-0xc6c(%rbp)
    ad81:	8b 85 98 f3 ff ff    	mov    -0xc68(%rbp),%eax
    ad87:	25 00 00 80 ff       	and    $0xff800000,%eax
    ad8c:	83 c8 49             	or     $0x49,%eax
    ad8f:	89 85 98 f3 ff ff    	mov    %eax,-0xc68(%rbp)
    ad95:	0f b7 85 9a f3 ff ff 	movzwl -0xc66(%rbp),%eax
    ad9c:	66 25 7f c0          	and    $0xc07f,%ax
    ada0:	66 0d 80 02          	or     $0x280,%ax
    ada4:	66 89 85 9a f3 ff ff 	mov    %ax,-0xc66(%rbp)
    adab:	8b 85 9c f3 ff ff    	mov    -0xc64(%rbp),%eax
    adb1:	25 00 00 00 fc       	and    $0xfc000000,%eax
    adb6:	0d 3c f4 ff 03       	or     $0x3fff43c,%eax
    adbb:	89 85 9c f3 ff ff    	mov    %eax,-0xc64(%rbp)
    adc1:	0f b7 85 a0 f3 ff ff 	movzwl -0xc60(%rbp),%eax
    adc8:	66 25 00 fe          	and    $0xfe00,%ax
    adcc:	66 0d fa 01          	or     $0x1fa,%ax
    add0:	66 89 85 a0 f3 ff ff 	mov    %ax,-0xc60(%rbp)
    add7:	0f b6 85 a1 f3 ff ff 	movzbl -0xc5f(%rbp),%eax
    adde:	83 e0 f1             	and    $0xfffffff1,%eax
    ade1:	88 85 a1 f3 ff ff    	mov    %al,-0xc5f(%rbp)
    ade7:	48 8d 05 48 13 01 00 	lea    0x11348(%rip),%rax        # 1c136 <g_143>
    adee:	48 89 85 a0 f2 ff ff 	mov    %rax,-0xd60(%rbp)
    adf5:	c7 85 f0 f1 ff ff ea 	movl   $0x9e083eea,-0xe10(%rbp)
    adfc:	3e 08 9e 
    adff:	48 8d 05 4a 53 01 00 	lea    0x1534a(%rip),%rax        # 20150 <g_538>
    ae06:	48 89 85 a8 f2 ff ff 	mov    %rax,-0xd58(%rbp)
    ae0d:	48 8d 05 e4 37 01 00 	lea    0x137e4(%rip),%rax        # 1e5f8 <g_262>
    ae14:	48 89 85 b0 f2 ff ff 	mov    %rax,-0xd50(%rbp)
    ae1b:	c7 85 f4 f1 ff ff 01 	movl   $0x1,-0xe0c(%rbp)
    ae22:	00 00 00 
    ae25:	48 8d 85 68 f2 ff ff 	lea    -0xd98(%rbp),%rax
    ae2c:	48 89 85 b8 f2 ff ff 	mov    %rax,-0xd48(%rbp)
    ae33:	48 8d 05 1e 1a 01 00 	lea    0x11a1e(%rip),%rax        # 1c858 <g_2801+0x78>
    ae3a:	48 89 85 80 f2 ff ff 	mov    %rax,-0xd80(%rbp)
    ae41:	83 85 f8 f1 ff ff 01 	addl   $0x1,-0xe08(%rbp)
    ae48:	c7 05 4e 12 01 00 01 	movl   $0x1,0x1124e(%rip)        # 1c0a0 <g_89>
    ae4f:	00 00 00 
    ae52:	eb 6a                	jmp    aebe <func_2+0x46a>
    ae54:	48 b8 c0 a1 28 21 f2 	movabs $0x23cc18f22128a1c0,%rax
    ae5b:	18 cc 23 
    ae5e:	48 89 85 88 f3 ff ff 	mov    %rax,-0xc78(%rbp)
    ae65:	48 c7 05 20 12 01 00 	movq   $0x1,0x11220(%rip)        # 1c090 <g_78>
    ae6c:	01 00 00 00 
    ae70:	eb 1c                	jmp    ae8e <func_2+0x43a>
    ae72:	48 83 bd 88 f3 ff ff 	cmpq   $0x0,-0xc78(%rbp)
    ae79:	00 
    ae7a:	75 21                	jne    ae9d <func_2+0x449>
    ae7c:	48 8b 05 0d 12 01 00 	mov    0x1120d(%rip),%rax        # 1c090 <g_78>
    ae83:	48 83 c0 01          	add    $0x1,%rax
    ae87:	48 89 05 02 12 01 00 	mov    %rax,0x11202(%rip)        # 1c090 <g_78>
    ae8e:	48 8b 05 fb 11 01 00 	mov    0x111fb(%rip),%rax        # 1c090 <g_78>
    ae95:	48 83 f8 04          	cmp    $0x4,%rax
    ae99:	7e d7                	jle    ae72 <func_2+0x41e>
    ae9b:	eb 01                	jmp    ae9e <func_2+0x44a>
    ae9d:	90                   	nop
    ae9e:	48 8b 05 d3 4d 01 00 	mov    0x14dd3(%rip),%rax        # 1fc78 <g_2468>
    aea5:	48 8b 95 48 f5 ff ff 	mov    -0xab8(%rbp),%rdx
    aeac:	48 89 10             	mov    %rdx,(%rax)
    aeaf:	8b 05 eb 11 01 00    	mov    0x111eb(%rip),%eax        # 1c0a0 <g_89>
    aeb5:	83 c0 01             	add    $0x1,%eax
    aeb8:	89 05 e2 11 01 00    	mov    %eax,0x111e2(%rip)        # 1c0a0 <g_89>
    aebe:	8b 05 dc 11 01 00    	mov    0x111dc(%rip),%eax        # 1c0a0 <g_89>
    aec4:	83 f8 04             	cmp    $0x4,%eax
    aec7:	7e 8b                	jle    ae54 <func_2+0x400>
    aec9:	48 c7 05 74 52 01 00 	movq   $0x0,0x15274(%rip)        # 20148 <g_449>
    aed0:	00 00 00 00 
    aed4:	e9 0f 12 00 00       	jmpq   c0e8 <func_2+0x1694>
    aed9:	66 c7 85 e4 f1 ff ff 	movw   $0x6218,-0xe1c(%rbp)
    aee0:	18 62 
    aee2:	c7 85 fc f1 ff ff 61 	movl   $0x8cab6361,-0xe04(%rbp)
    aee9:	63 ab 8c 
    aeec:	48 8d 85 30 fa ff ff 	lea    -0x5d0(%rbp),%rax
    aef3:	48 8d 15 06 c3 00 00 	lea    0xc306(%rip),%rdx        # 17200 <g_2409+0x190>
    aefa:	b9 57 00 00 00       	mov    $0x57,%ecx
    aeff:	48 89 c7             	mov    %rax,%rdi
    af02:	48 89 d6             	mov    %rdx,%rsi
    af05:	f3 48 a5             	rep movsq %ds:(%rsi),%es:(%rdi)
    af08:	48 89 f2             	mov    %rsi,%rdx
    af0b:	48 89 f8             	mov    %rdi,%rax
    af0e:	8b 0a                	mov    (%rdx),%ecx
    af10:	89 08                	mov    %ecx,(%rax)
    af12:	c7 85 f0 f3 ff ff fe 	movl   $0x400fe,-0xc10(%rbp)
    af19:	00 04 00 
    af1c:	c6 85 f4 f3 ff ff fe 	movb   $0xfe,-0xc0c(%rbp)
    af23:	c7 85 f5 f3 ff ff fe 	movl   $0x400fe,-0xc0b(%rbp)
    af2a:	00 04 00 
    af2d:	c6 85 f9 f3 ff ff fe 	movb   $0xfe,-0xc07(%rbp)
    af34:	c7 85 fa f3 ff ff fe 	movl   $0x400fe,-0xc06(%rbp)
    af3b:	00 04 00 
    af3e:	c6 85 fe f3 ff ff fe 	movb   $0xfe,-0xc02(%rbp)
    af45:	c7 85 ff f3 ff ff fe 	movl   $0x400fe,-0xc01(%rbp)
    af4c:	00 04 00 
    af4f:	c6 85 03 f4 ff ff fe 	movb   $0xfe,-0xbfd(%rbp)
    af56:	48 8d 05 f3 11 01 00 	lea    0x111f3(%rip),%rax        # 1c150 <g_163>
    af5d:	48 89 85 c0 f2 ff ff 	mov    %rax,-0xd40(%rbp)
    af64:	48 8d 05 3d 4d 01 00 	lea    0x14d3d(%rip),%rax        # 1fca8 <g_2701>
    af6b:	48 89 85 10 f4 ff ff 	mov    %rax,-0xbf0(%rbp)
    af72:	48 8d 05 2f 4d 01 00 	lea    0x14d2f(%rip),%rax        # 1fca8 <g_2701>
    af79:	48 89 85 18 f4 ff ff 	mov    %rax,-0xbe8(%rbp)
    af80:	48 8d 05 21 4d 01 00 	lea    0x14d21(%rip),%rax        # 1fca8 <g_2701>
    af87:	48 89 85 20 f4 ff ff 	mov    %rax,-0xbe0(%rbp)
    af8e:	48 8d 05 13 4d 01 00 	lea    0x14d13(%rip),%rax        # 1fca8 <g_2701>
    af95:	48 89 85 28 f4 ff ff 	mov    %rax,-0xbd8(%rbp)
    af9c:	48 8d 05 05 4d 01 00 	lea    0x14d05(%rip),%rax        # 1fca8 <g_2701>
    afa3:	48 89 85 30 f4 ff ff 	mov    %rax,-0xbd0(%rbp)
    afaa:	48 8d 05 f7 4c 01 00 	lea    0x14cf7(%rip),%rax        # 1fca8 <g_2701>
    afb1:	48 89 85 38 f4 ff ff 	mov    %rax,-0xbc8(%rbp)
    afb8:	48 c7 85 90 f2 ff ff 	movq   $0x0,-0xd70(%rbp)
    afbf:	00 00 00 00 
    afc3:	48 8d 85 70 f7 ff ff 	lea    -0x890(%rbp),%rax
    afca:	48 8d 15 ef c4 00 00 	lea    0xc4ef(%rip),%rdx        # 174c0 <g_2409+0x450>
    afd1:	b9 28 00 00 00       	mov    $0x28,%ecx
    afd6:	48 89 c7             	mov    %rax,%rdi
    afd9:	48 89 d6             	mov    %rdx,%rsi
    afdc:	f3 48 a5             	rep movsq %ds:(%rsi),%es:(%rdi)
    afdf:	48 8d 85 78 f2 ff ff 	lea    -0xd88(%rbp),%rax
    afe6:	48 89 85 98 f2 ff ff 	mov    %rax,-0xd68(%rbp)
    afed:	c7 85 e8 f1 ff ff f9 	movl   $0xfffffff9,-0xe18(%rbp)
    aff4:	ff ff ff 
    aff7:	c7 85 ec f1 ff ff 00 	movl   $0x0,-0xe14(%rbp)
    affe:	00 00 00 
    b001:	eb 19                	jmp    b01c <func_2+0x5c8>
    b003:	8b 85 ec f1 ff ff    	mov    -0xe14(%rbp),%eax
    b009:	48 98                	cltq   
    b00b:	66 c7 84 45 d0 f3 ff 	movw   $0x7974,-0xc30(%rbp,%rax,2)
    b012:	ff 74 79 
    b015:	83 85 ec f1 ff ff 01 	addl   $0x1,-0xe14(%rbp)
    b01c:	83 bd ec f1 ff ff 08 	cmpl   $0x8,-0xe14(%rbp)
    b023:	7e de                	jle    b003 <func_2+0x5af>
    b025:	83 bd dc f1 ff ff 00 	cmpl   $0x0,-0xe24(%rbp)
    b02c:	0f 85 c9 10 00 00    	jne    c0fb <func_2+0x16a7>
    b032:	48 c7 05 53 10 01 00 	movq   $0x0,0x11053(%rip)        # 1c090 <g_78>
    b039:	00 00 00 00 
    b03d:	90                   	nop
    b03e:	48 8b 05 4b 10 01 00 	mov    0x1104b(%rip),%rax        # 1c090 <g_78>
    b045:	48 83 f8 04          	cmp    $0x4,%rax
    b049:	0f 8f 0b 01 00 00    	jg     b15a <func_2+0x706>
    b04f:	66 c7 85 e6 f1 ff ff 	movw   $0x776d,-0xe1a(%rbp)
    b056:	6d 77 
    b058:	c7 05 12 11 01 00 00 	movl   $0x0,0x11112(%rip)        # 1c174 <g_231>
    b05f:	00 00 00 
    b062:	eb 40                	jmp    b0a4 <func_2+0x650>
    b064:	c6 85 e3 f1 ff ff 11 	movb   $0x11,-0xe1d(%rbp)
    b06b:	48 8b 05 d6 50 01 00 	mov    0x150d6(%rip),%rax        # 20148 <g_449>
    b072:	48 8d 50 01          	lea    0x1(%rax),%rdx
    b076:	48 8d 05 fb 10 01 00 	lea    0x110fb(%rip),%rax        # 1c178 <g_233>
    b07d:	0f b6 04 02          	movzbl (%rdx,%rax,1),%eax
    b081:	84 c0                	test   %al,%al
    b083:	75 2b                	jne    b0b0 <func_2+0x65c>
    b085:	0f be 95 e3 f1 ff ff 	movsbl -0xe1d(%rbp),%edx
    b08c:	48 8b 85 d0 f2 ff ff 	mov    -0xd30(%rbp),%rax
    b093:	89 10                	mov    %edx,(%rax)
    b095:	8b 05 d9 10 01 00    	mov    0x110d9(%rip),%eax        # 1c174 <g_231>
    b09b:	83 c0 01             	add    $0x1,%eax
    b09e:	89 05 d0 10 01 00    	mov    %eax,0x110d0(%rip)        # 1c174 <g_231>
    b0a4:	8b 05 ca 10 01 00    	mov    0x110ca(%rip),%eax        # 1c174 <g_231>
    b0aa:	85 c0                	test   %eax,%eax
    b0ac:	74 b6                	je     b064 <func_2+0x610>
    b0ae:	eb 01                	jmp    b0b1 <func_2+0x65d>
    b0b0:	90                   	nop
    b0b1:	c7 05 8d 11 01 00 00 	movl   $0x0,0x1118d(%rip)        # 1c248 <g_2248>
    b0b8:	00 00 00 
    b0bb:	90                   	nop
    b0bc:	8b 05 86 11 01 00    	mov    0x11186(%rip),%eax        # 1c248 <g_2248>
    b0c2:	83 f8 04             	cmp    $0x4,%eax
    b0c5:	0f 87 83 00 00 00    	ja     b14e <func_2+0x6fa>
    b0cb:	c7 05 db 50 01 00 00 	movl   $0x0,0x150db(%rip)        # 201b0 <g_1984>
    b0d2:	00 00 00 
    b0d5:	eb 5e                	jmp    b135 <func_2+0x6e1>
    b0d7:	48 8d 05 b2 41 01 00 	lea    0x141b2(%rip),%rax        # 1f290 <g_732>
    b0de:	48 89 85 b0 f3 ff ff 	mov    %rax,-0xc50(%rbp)
    b0e5:	48 8d 85 b0 f3 ff ff 	lea    -0xc50(%rbp),%rax
    b0ec:	48 89 85 80 f3 ff ff 	mov    %rax,-0xc80(%rbp)
    b0f3:	48 8b 05 86 4b 01 00 	mov    0x14b86(%rip),%rax        # 1fc80 <g_2470>
    b0fa:	48 8b 95 48 f5 ff ff 	mov    -0xab8(%rbp),%rdx
    b101:	48 89 10             	mov    %rdx,(%rax)
    b104:	48 8b 85 80 f3 ff ff 	mov    -0xc80(%rbp),%rax
    b10b:	48 8d 15 7e 41 01 00 	lea    0x1417e(%rip),%rdx        # 1f290 <g_732>
    b112:	48 89 10             	mov    %rdx,(%rax)
    b115:	48 8b 85 80 f3 ff ff 	mov    -0xc80(%rbp),%rax
    b11c:	48 8b 00             	mov    (%rax),%rax
    b11f:	48 89 05 9a 50 01 00 	mov    %rax,0x1509a(%rip)        # 201c0 <g_2473>
    b126:	8b 05 84 50 01 00    	mov    0x15084(%rip),%eax        # 201b0 <g_1984>
    b12c:	83 c0 01             	add    $0x1,%eax
    b12f:	89 05 7b 50 01 00    	mov    %eax,0x1507b(%rip)        # 201b0 <g_1984>
    b135:	8b 05 75 50 01 00    	mov    0x15075(%rip),%eax        # 201b0 <g_1984>
    b13b:	83 f8 04             	cmp    $0x4,%eax
    b13e:	76 97                	jbe    b0d7 <func_2+0x683>
    b140:	48 8b 05 29 3a 01 00 	mov    0x13a29(%rip),%rax        # 1eb70 <g_615>
    b147:	8b 00                	mov    (%rax),%eax
    b149:	e9 d5 0f 00 00       	jmpq   c123 <func_2+0x16cf>
    b14e:	0f bf 85 e6 f1 ff ff 	movswl -0xe1a(%rbp),%eax
    b155:	e9 c9 0f 00 00       	jmpq   c123 <func_2+0x16cf>
    b15a:	c7 05 1c 10 01 00 01 	movl   $0x1,0x1101c(%rip)        # 1c180 <g_238>
    b161:	00 00 00 
    b164:	e9 07 09 00 00       	jmpq   ba70 <func_2+0x101c>
    b169:	c7 85 40 f2 ff ff 16 	movl   $0x7cad8c16,-0xdc0(%rbp)
    b170:	8c ad 7c 
    b173:	48 8d 85 f0 fc ff ff 	lea    -0x310(%rbp),%rax
    b17a:	48 05 f8 00 00 00    	add    $0xf8,%rax
    b180:	48 89 85 10 f3 ff ff 	mov    %rax,-0xcf0(%rbp)
    b187:	48 8d 85 f0 fc ff ff 	lea    -0x310(%rbp),%rax
    b18e:	48 05 f8 00 00 00    	add    $0xf8,%rax
    b194:	48 89 85 88 f2 ff ff 	mov    %rax,-0xd78(%rbp)
    b19b:	c7 85 44 f2 ff ff 7f 	movl   $0xec8efd7f,-0xdbc(%rbp)
    b1a2:	fd 8e ec 
    b1a5:	c7 85 48 f2 ff ff 67 	movl   $0x815ca367,-0xdb8(%rbp)
    b1ac:	a3 5c 81 
    b1af:	48 8d 05 ea 4a 01 00 	lea    0x14aea(%rip),%rax        # 1fca0 <g_2621>
    b1b6:	48 89 85 18 f3 ff ff 	mov    %rax,-0xce8(%rbp)
    b1bd:	48 8d 05 52 10 01 00 	lea    0x11052(%rip),%rax        # 1c216 <g_714>
    b1c4:	48 89 85 20 f3 ff ff 	mov    %rax,-0xce0(%rbp)
    b1cb:	48 8d 85 e4 f1 ff ff 	lea    -0xe1c(%rbp),%rax
    b1d2:	48 89 85 28 f3 ff ff 	mov    %rax,-0xcd8(%rbp)
    b1d9:	48 8d 85 90 f3 ff ff 	lea    -0xc70(%rbp),%rax
    b1e0:	48 89 85 30 f3 ff ff 	mov    %rax,-0xcd0(%rbp)
    b1e7:	c7 85 28 f2 ff ff 00 	movl   $0x0,-0xdd8(%rbp)
    b1ee:	00 00 00 
    b1f1:	eb 50                	jmp    b243 <func_2+0x7ef>
    b1f3:	c7 85 2c f2 ff ff 00 	movl   $0x0,-0xdd4(%rbp)
    b1fa:	00 00 00 
    b1fd:	eb 34                	jmp    b233 <func_2+0x7df>
    b1ff:	8b 85 2c f2 ff ff    	mov    -0xdd4(%rbp),%eax
    b205:	48 63 c8             	movslq %eax,%rcx
    b208:	8b 85 28 f2 ff ff    	mov    -0xdd8(%rbp),%eax
    b20e:	48 63 d0             	movslq %eax,%rdx
    b211:	48 89 d0             	mov    %rdx,%rax
    b214:	48 01 c0             	add    %rax,%rax
    b217:	48 01 d0             	add    %rdx,%rax
    b21a:	48 01 c8             	add    %rcx,%rax
    b21d:	48 8d 15 f4 43 01 00 	lea    0x143f4(%rip),%rdx        # 1f618 <g_1936>
    b224:	48 89 94 c5 40 f4 ff 	mov    %rdx,-0xbc0(%rbp,%rax,8)
    b22b:	ff 
    b22c:	83 85 2c f2 ff ff 01 	addl   $0x1,-0xdd4(%rbp)
    b233:	83 bd 2c f2 ff ff 02 	cmpl   $0x2,-0xdd4(%rbp)
    b23a:	7e c3                	jle    b1ff <func_2+0x7ab>
    b23c:	83 85 28 f2 ff ff 01 	addl   $0x1,-0xdd8(%rbp)
    b243:	83 bd 28 f2 ff ff 01 	cmpl   $0x1,-0xdd8(%rbp)
    b24a:	7e a7                	jle    b1f3 <func_2+0x79f>
    b24c:	c7 05 5a 4f 01 00 00 	movl   $0x0,0x14f5a(%rip)        # 201b0 <g_1984>
    b253:	00 00 00 
    b256:	e9 9d 01 00 00       	jmpq   b3f8 <func_2+0x9a4>
    b25b:	48 c7 85 60 f3 ff ff 	movq   $0x1,-0xca0(%rbp)
    b262:	01 00 00 00 
    b266:	48 8d 05 23 0f 01 00 	lea    0x10f23(%rip),%rax        # 1c190 <g_321>
    b26d:	48 89 85 68 f3 ff ff 	mov    %rax,-0xc98(%rbp)
    b274:	c7 85 50 f2 ff ff 90 	movl   $0xa88e4d90,-0xdb0(%rbp)
    b27b:	4d 8e a8 
    b27e:	c7 85 54 f2 ff ff 25 	movl   $0x5dc5cc25,-0xdac(%rbp)
    b285:	cc c5 5d 
    b288:	c7 85 58 f2 ff ff fc 	movl   $0xfffffffc,-0xda8(%rbp)
    b28f:	ff ff ff 
    b292:	c7 85 5c f2 ff ff 04 	movl   $0x4,-0xda4(%rbp)
    b299:	00 00 00 
    b29c:	c7 85 60 f2 ff ff 00 	movl   $0x0,-0xda0(%rbp)
    b2a3:	00 00 00 
    b2a6:	c7 85 50 f6 ff ff 65 	movl   $0xe81dd165,-0x9b0(%rbp)
    b2ad:	d1 1d e8 
    b2b0:	c7 85 54 f6 ff ff 65 	movl   $0xe81dd165,-0x9ac(%rbp)
    b2b7:	d1 1d e8 
    b2ba:	c7 85 58 f6 ff ff 65 	movl   $0xe81dd165,-0x9a8(%rbp)
    b2c1:	d1 1d e8 
    b2c4:	c7 85 5c f6 ff ff 65 	movl   $0xe81dd165,-0x9a4(%rbp)
    b2cb:	d1 1d e8 
    b2ce:	c7 85 60 f6 ff ff 65 	movl   $0xe81dd165,-0x9a0(%rbp)
    b2d5:	d1 1d e8 
    b2d8:	c7 85 64 f6 ff ff 65 	movl   $0xe81dd165,-0x99c(%rbp)
    b2df:	d1 1d e8 
    b2e2:	c7 85 68 f6 ff ff 65 	movl   $0xe81dd165,-0x998(%rbp)
    b2e9:	d1 1d e8 
    b2ec:	c7 85 6c f6 ff ff 65 	movl   $0xe81dd165,-0x994(%rbp)
    b2f3:	d1 1d e8 
    b2f6:	c7 85 70 f6 ff ff 65 	movl   $0xe81dd165,-0x990(%rbp)
    b2fd:	d1 1d e8 
    b300:	8b 85 b0 f3 ff ff    	mov    -0xc50(%rbp),%eax
    b306:	25 00 00 f0 ff       	and    $0xfff00000,%eax
    b30b:	83 c8 66             	or     $0x66,%eax
    b30e:	89 85 b0 f3 ff ff    	mov    %eax,-0xc50(%rbp)
    b314:	8b 85 b4 f3 ff ff    	mov    -0xc4c(%rbp),%eax
    b31a:	25 00 00 00 fe       	and    $0xfe000000,%eax
    b31f:	0d a6 07 00 00       	or     $0x7a6,%eax
    b324:	89 85 b4 f3 ff ff    	mov    %eax,-0xc4c(%rbp)
    b32a:	8b 85 b8 f3 ff ff    	mov    -0xc48(%rbp),%eax
    b330:	25 00 00 80 ff       	and    $0xff800000,%eax
    b335:	0d bd 07 00 00       	or     $0x7bd,%eax
    b33a:	89 85 b8 f3 ff ff    	mov    %eax,-0xc48(%rbp)
    b340:	0f b7 85 ba f3 ff ff 	movzwl -0xc46(%rbp),%eax
    b347:	66 25 7f c0          	and    $0xc07f,%ax
    b34b:	66 89 85 ba f3 ff ff 	mov    %ax,-0xc46(%rbp)
    b352:	8b 85 bc f3 ff ff    	mov    -0xc44(%rbp),%eax
    b358:	25 00 00 00 fc       	and    $0xfc000000,%eax
    b35d:	0d 85 f1 ff 03       	or     $0x3fff185,%eax
    b362:	89 85 bc f3 ff ff    	mov    %eax,-0xc44(%rbp)
    b368:	0f b7 85 c0 f3 ff ff 	movzwl -0xc40(%rbp),%eax
    b36f:	66 25 00 fe          	and    $0xfe00,%ax
    b373:	83 c8 10             	or     $0x10,%eax
    b376:	66 89 85 c0 f3 ff ff 	mov    %ax,-0xc40(%rbp)
    b37d:	0f b6 85 c1 f3 ff ff 	movzbl -0xc3f(%rbp),%eax
    b384:	83 e0 f1             	and    $0xfffffff1,%eax
    b387:	83 c8 02             	or     $0x2,%eax
    b38a:	88 85 c1 f3 ff ff    	mov    %al,-0xc3f(%rbp)
    b390:	c7 85 64 f2 ff ff 00 	movl   $0x0,-0xd9c(%rbp)
    b397:	00 00 00 
    b39a:	48 8d 85 30 f5 ff ff 	lea    -0xad0(%rbp),%rax
    b3a1:	48 83 c0 18          	add    $0x18,%rax
    b3a5:	48 89 85 70 f3 ff ff 	mov    %rax,-0xc90(%rbp)
    b3ac:	48 8d 05 b5 37 01 00 	lea    0x137b5(%rip),%rax        # 1eb68 <g_587>
    b3b3:	48 89 85 78 f3 ff ff 	mov    %rax,-0xc88(%rbp)
    b3ba:	c7 85 30 f2 ff ff 00 	movl   $0x0,-0xdd0(%rbp)
    b3c1:	00 00 00 
    b3c4:	eb 1a                	jmp    b3e0 <func_2+0x98c>
    b3c6:	8b 85 30 f2 ff ff    	mov    -0xdd0(%rbp),%eax
    b3cc:	48 98                	cltq   
    b3ce:	c7 84 85 80 f5 ff ff 	movl   $0xb665a4a,-0xa80(%rbp,%rax,4)
    b3d5:	4a 5a 66 0b 
    b3d9:	83 85 30 f2 ff ff 01 	addl   $0x1,-0xdd0(%rbp)
    b3e0:	83 bd 30 f2 ff ff 00 	cmpl   $0x0,-0xdd0(%rbp)
    b3e7:	7e dd                	jle    b3c6 <func_2+0x972>
    b3e9:	8b 05 c1 4d 01 00    	mov    0x14dc1(%rip),%eax        # 201b0 <g_1984>
    b3ef:	83 c0 01             	add    $0x1,%eax
    b3f2:	89 05 b8 4d 01 00    	mov    %eax,0x14db8(%rip)        # 201b0 <g_1984>
    b3f8:	8b 05 b2 4d 01 00    	mov    0x14db2(%rip),%eax        # 201b0 <g_1984>
    b3fe:	83 f8 04             	cmp    $0x4,%eax
    b401:	0f 86 54 fe ff ff    	jbe    b25b <func_2+0x807>
    b407:	48 8b 85 d8 f2 ff ff 	mov    -0xd28(%rbp),%rax
    b40e:	8b 18                	mov    (%rax),%ebx
    b410:	48 8b 15 89 48 01 00 	mov    0x14889(%rip),%rdx        # 1fca0 <g_2621>
    b417:	48 8b 85 18 f3 ff ff 	mov    -0xce8(%rbp),%rax
    b41e:	48 89 10             	mov    %rdx,(%rax)
    b421:	48 8b 85 18 f3 ff ff 	mov    -0xce8(%rbp),%rax
    b428:	48 8b 00             	mov    (%rax),%rax
    b42b:	48 85 c0             	test   %rax,%rax
    b42e:	0f 95 c0             	setne  %al
    b431:	0f b6 c0             	movzbl %al,%eax
    b434:	89 85 d0 f1 ff ff    	mov    %eax,-0xe30(%rbp)
    b43a:	44 0f b7 a5 d8 f1 ff 	movzwl -0xe28(%rbp),%r12d
    b441:	ff 
    b442:	44 8b ad dc f1 ff ff 	mov    -0xe24(%rbp),%r13d
    b449:	44 8b b5 dc f1 ff ff 	mov    -0xe24(%rbp),%r14d
    b450:	48 8b 85 70 f2 ff ff 	mov    -0xd90(%rbp),%rax
    b457:	8b 00                	mov    (%rax),%eax
    b459:	0f b6 d0             	movzbl %al,%edx
    b45c:	0f b7 85 e0 f3 ff ff 	movzwl -0xc20(%rbp),%eax
    b463:	0f b6 c0             	movzbl %al,%eax
    b466:	89 d6                	mov    %edx,%esi
    b468:	89 c7                	mov    %eax,%edi
    b46a:	e8 24 e7 ff ff       	callq  9b93 <safe_mul_func_uint8_t_u_u>
    b46f:	0f b6 c0             	movzbl %al,%eax
    b472:	89 85 c8 f1 ff ff    	mov    %eax,-0xe38(%rbp)
    b478:	48 8b 85 70 f2 ff ff 	mov    -0xd90(%rbp),%rax
    b47f:	8b 00                	mov    (%rax),%eax
    b481:	44 0f b7 f8          	movzwl %ax,%r15d
    b485:	48 83 bd 20 f3 ff ff 	cmpq   $0x0,-0xce0(%rbp)
    b48c:	00 
    b48d:	75 4b                	jne    b4da <func_2+0xa86>
    b48f:	48 8b 05 42 3e 01 00 	mov    0x13e42(%rip),%rax        # 1f2d8 <g_1023>
    b496:	48 8b 00             	mov    (%rax),%rax
    b499:	0f b7 00             	movzwl (%rax),%eax
    b49c:	0f b7 d0             	movzwl %ax,%edx
    b49f:	48 8b 05 3a 3e 01 00 	mov    0x13e3a(%rip),%rax        # 1f2e0 <g_1022>
    b4a6:	48 8b 00             	mov    (%rax),%rax
    b4a9:	48 8b 00             	mov    (%rax),%rax
    b4ac:	0f b7 00             	movzwl (%rax),%eax
    b4af:	0f b7 c0             	movzwl %ax,%eax
    b4b2:	89 d6                	mov    %edx,%esi
    b4b4:	89 c7                	mov    %eax,%edi
    b4b6:	e8 4b e9 ff ff       	callq  9e06 <safe_lshift_func_uint16_t_u_u>
    b4bb:	48 8b 05 9e 36 01 00 	mov    0x1369e(%rip),%rax        # 1eb60 <g_588>
    b4c2:	0f b6 00             	movzbl (%rax),%eax
    b4c5:	3c 01                	cmp    $0x1,%al
    b4c7:	0f 96 c0             	setbe  %al
    b4ca:	0f b6 c0             	movzbl %al,%eax
    b4cd:	89 85 40 f2 ff ff    	mov    %eax,-0xdc0(%rbp)
    b4d3:	83 bd 40 f2 ff ff 00 	cmpl   $0x0,-0xdc0(%rbp)
    b4da:	8b 85 dc f1 ff ff    	mov    -0xe24(%rbp),%eax
    b4e0:	0f be c0             	movsbl %al,%eax
    b4e3:	be 16 00 00 00       	mov    $0x16,%esi
    b4e8:	89 c7                	mov    %eax,%edi
    b4ea:	e8 7b dd ff ff       	callq  926a <safe_div_func_int8_t_s_s>
    b4ef:	66 0f be d0          	movsbw %al,%dx
    b4f3:	48 8b 85 28 f3 ff ff 	mov    -0xcd8(%rbp),%rax
    b4fa:	66 89 10             	mov    %dx,(%rax)
    b4fd:	48 8b 85 28 f3 ff ff 	mov    -0xcd8(%rbp),%rax
    b504:	0f b7 00             	movzwl (%rax),%eax
    b507:	0f b7 c0             	movzwl %ax,%eax
    b50a:	44 89 fe             	mov    %r15d,%esi
    b50d:	89 c7                	mov    %eax,%edi
    b50f:	e8 29 e8 ff ff       	callq  9d3d <safe_mul_func_uint16_t_u_u>
    b514:	0f b7 c0             	movzwl %ax,%eax
    b517:	0b 85 c8 f1 ff ff    	or     -0xe38(%rbp),%eax
    b51d:	48 98                	cltq   
    b51f:	48 ba 7c f7 99 72 9a 	movabs $0xd2896d9a7299f77c,%rdx
    b526:	6d 89 d2 
    b529:	48 21 d0             	and    %rdx,%rax
    b52c:	48 85 c0             	test   %rax,%rax
    b52f:	75 15                	jne    b546 <func_2+0xaf2>
    b531:	48 8b 05 a8 3d 01 00 	mov    0x13da8(%rip),%rax        # 1f2e0 <g_1022>
    b538:	48 8b 00             	mov    (%rax),%rax
    b53b:	48 8b 00             	mov    (%rax),%rax
    b53e:	0f b7 00             	movzwl (%rax),%eax
    b541:	66 85 c0             	test   %ax,%ax
    b544:	74 07                	je     b54d <func_2+0xaf9>
    b546:	b8 01 00 00 00       	mov    $0x1,%eax
    b54b:	eb 05                	jmp    b552 <func_2+0xafe>
    b54d:	b8 00 00 00 00       	mov    $0x0,%eax
    b552:	44 89 f6             	mov    %r14d,%esi
    b555:	89 c7                	mov    %eax,%edi
    b557:	e8 5a e0 ff ff       	callq  95b6 <safe_add_func_int32_t_s_s>
    b55c:	0f b7 85 d8 f1 ff ff 	movzwl -0xe28(%rbp),%eax
    b563:	98                   	cwtl   
    b564:	44 89 ee             	mov    %r13d,%esi
    b567:	89 c7                	mov    %eax,%edi
    b569:	e8 24 df ff ff       	callq  9492 <safe_lshift_func_int16_t_s_s>
    b56e:	0f b7 c0             	movzwl %ax,%eax
    b571:	be 05 00 00 00       	mov    $0x5,%esi
    b576:	89 c7                	mov    %eax,%edi
    b578:	e8 89 e8 ff ff       	callq  9e06 <safe_lshift_func_uint16_t_u_u>
    b57d:	0f b7 c0             	movzwl %ax,%eax
    b580:	f7 d0                	not    %eax
    b582:	89 85 44 f2 ff ff    	mov    %eax,-0xdbc(%rbp)
    b588:	44 89 e6             	mov    %r12d,%esi
    b58b:	bf 01 00 00 00       	mov    $0x1,%edi
    b590:	e8 6a e1 ff ff       	callq  96ff <safe_div_func_int32_t_s_s>
    b595:	39 85 d0 f1 ff ff    	cmp    %eax,-0xe30(%rbp)
    b59b:	0f 95 c0             	setne  %al
    b59e:	0f b6 c0             	movzbl %al,%eax
    b5a1:	89 de                	mov    %ebx,%esi
    b5a3:	89 c7                	mov    %eax,%edi
    b5a5:	e8 5b e0 ff ff       	callq  9605 <safe_sub_func_int32_t_s_s>
    b5aa:	8b 95 00 fb ff ff    	mov    -0x500(%rbp),%edx
    b5b0:	39 d0                	cmp    %edx,%eax
    b5b2:	0f 84 cc 00 00 00    	je     b684 <func_2+0xc30>
    b5b8:	48 8d 05 e1 11 01 00 	lea    0x111e1(%rip),%rax        # 1c7a0 <g_2649>
    b5bf:	48 89 85 58 f3 ff ff 	mov    %rax,-0xca8(%rbp)
    b5c6:	c7 85 4c f2 ff ff bc 	movl   $0x8132aabc,-0xdb4(%rbp)
    b5cd:	aa 32 81 
    b5d0:	c7 85 00 f2 ff ff 01 	movl   $0x1,-0xe00(%rbp)
    b5d7:	00 00 00 
    b5da:	eb 4b                	jmp    b627 <func_2+0xbd3>
    b5dc:	83 bd dc f1 ff ff 00 	cmpl   $0x0,-0xe24(%rbp)
    b5e3:	75 2d                	jne    b612 <func_2+0xbbe>
    b5e5:	48 8b 85 d8 f2 ff ff 	mov    -0xd28(%rbp),%rax
    b5ec:	8b 00                	mov    (%rax),%eax
    b5ee:	48 98                	cltq   
    b5f0:	48 89 c6             	mov    %rax,%rsi
    b5f3:	48 c7 c7 f6 ff ff ff 	mov    $0xfffffffffffffff6,%rdi
    b5fa:	e8 b5 e3 ff ff       	callq  99b4 <safe_mod_func_int64_t_s_s>
    b5ff:	89 c2                	mov    %eax,%edx
    b601:	8b 85 dc f1 ff ff    	mov    -0xe24(%rbp),%eax
    b607:	89 d6                	mov    %edx,%esi
    b609:	89 c7                	mov    %eax,%edi
    b60b:	e8 bc e0 ff ff       	callq  96cc <safe_mod_func_int32_t_s_s>
    b610:	85 c0                	test   %eax,%eax
    b612:	48 8b 85 30 f3 ff ff 	mov    -0xcd0(%rbp),%rax
    b619:	48 89 85 58 f3 ff ff 	mov    %rax,-0xca8(%rbp)
    b620:	83 85 00 f2 ff ff 01 	addl   $0x1,-0xe00(%rbp)
    b627:	83 bd 00 f2 ff ff 04 	cmpl   $0x4,-0xe00(%rbp)
    b62e:	7e ac                	jle    b5dc <func_2+0xb88>
    b630:	48 8b 05 59 3c 01 00 	mov    0x13c59(%rip),%rax        # 1f290 <g_732>
    b637:	48 8b 00             	mov    (%rax),%rax
    b63a:	48 8b 00             	mov    (%rax),%rax
    b63d:	0f b7 d8             	movzwl %ax,%ebx
    b640:	8b 85 4c f2 ff ff    	mov    -0xdb4(%rbp),%eax
    b646:	0f b7 c0             	movzwl %ax,%eax
    b649:	be 0b 00 00 00       	mov    $0xb,%esi
    b64e:	89 c7                	mov    %eax,%edi
    b650:	e8 25 e8 ff ff       	callq  9e7a <safe_rshift_func_uint16_t_u_u>
    b655:	0f b7 c0             	movzwl %ax,%eax
    b658:	89 de                	mov    %ebx,%esi
    b65a:	89 c7                	mov    %eax,%edi
    b65c:	e8 fb e6 ff ff       	callq  9d5c <safe_mod_func_uint16_t_u_u>
    b661:	0f b7 c0             	movzwl %ax,%eax
    b664:	89 85 4c f2 ff ff    	mov    %eax,-0xdb4(%rbp)
    b66a:	8b 95 94 fc ff ff    	mov    -0x36c(%rbp),%edx
    b670:	0f b7 85 d8 f1 ff ff 	movzwl -0xe28(%rbp),%eax
    b677:	09 d0                	or     %edx,%eax
    b679:	89 85 94 fc ff ff    	mov    %eax,-0x36c(%rbp)
    b67f:	e9 c9 03 00 00       	jmpq   ba4d <func_2+0xff9>
    b684:	48 c7 85 38 f3 ff ff 	movq   $0x0,-0xcc8(%rbp)
    b68b:	00 00 00 00 
    b68f:	c7 85 34 f2 ff ff ff 	movl   $0xffffffff,-0xdcc(%rbp)
    b696:	ff ff ff 
    b699:	66 c7 05 a0 0b 01 00 	movw   $0x0,0x10ba0(%rip)        # 1c242 <g_2137>
    b6a0:	00 00 
    b6a2:	eb 75                	jmp    b719 <func_2+0xcc5>
    b6a4:	48 8d 05 2d 2e 01 00 	lea    0x12e2d(%rip),%rax        # 1e4d8 <g_98+0x138>
    b6ab:	48 89 85 40 f3 ff ff 	mov    %rax,-0xcc0(%rbp)
    b6b2:	48 c7 85 48 f3 ff ff 	movq   $0x0,-0xcb8(%rbp)
    b6b9:	00 00 00 00 
    b6bd:	48 8d 85 30 f5 ff ff 	lea    -0xad0(%rbp),%rax
    b6c4:	48 83 c0 10          	add    $0x10,%rax
    b6c8:	48 89 85 50 f3 ff ff 	mov    %rax,-0xcb0(%rbp)
    b6cf:	48 8b 85 18 f3 ff ff 	mov    -0xce8(%rbp),%rax
    b6d6:	48 8b 10             	mov    (%rax),%rdx
    b6d9:	48 8b 85 18 f3 ff ff 	mov    -0xce8(%rbp),%rax
    b6e0:	48 89 10             	mov    %rdx,(%rax)
    b6e3:	48 8b 85 40 f3 ff ff 	mov    -0xcc0(%rbp),%rax
    b6ea:	48 8b 95 38 f3 ff ff 	mov    -0xcc8(%rbp),%rdx
    b6f1:	48 89 10             	mov    %rdx,(%rax)
    b6f4:	48 8b 85 40 f3 ff ff 	mov    -0xcc0(%rbp),%rax
    b6fb:	48 8b 10             	mov    (%rax),%rdx
    b6fe:	48 8b 85 50 f3 ff ff 	mov    -0xcb0(%rbp),%rax
    b705:	48 89 10             	mov    %rdx,(%rax)
    b708:	0f b7 05 33 0b 01 00 	movzwl 0x10b33(%rip),%eax        # 1c242 <g_2137>
    b70f:	83 c0 01             	add    $0x1,%eax
    b712:	66 89 05 29 0b 01 00 	mov    %ax,0x10b29(%rip)        # 1c242 <g_2137>
    b719:	0f b7 05 22 0b 01 00 	movzwl 0x10b22(%rip),%eax        # 1c242 <g_2137>
    b720:	66 83 f8 06          	cmp    $0x6,%ax
    b724:	0f 86 7a ff ff ff    	jbe    b6a4 <func_2+0xc50>
    b72a:	c7 85 14 f2 ff ff 03 	movl   $0x3,-0xdec(%rbp)
    b731:	00 00 00 
    b734:	e9 da 02 00 00       	jmpq   ba13 <func_2+0xfbf>
    b739:	48 8d 85 88 f2 ff ff 	lea    -0xd78(%rbp),%rax
    b740:	48 89 85 b0 f4 ff ff 	mov    %rax,-0xb50(%rbp)
    b747:	48 8d 85 88 f2 ff ff 	lea    -0xd78(%rbp),%rax
    b74e:	48 89 85 b8 f4 ff ff 	mov    %rax,-0xb48(%rbp)
    b755:	48 8d 85 88 f2 ff ff 	lea    -0xd78(%rbp),%rax
    b75c:	48 89 85 c0 f4 ff ff 	mov    %rax,-0xb40(%rbp)
    b763:	48 8d 85 88 f2 ff ff 	lea    -0xd78(%rbp),%rax
    b76a:	48 89 85 c8 f4 ff ff 	mov    %rax,-0xb38(%rbp)
    b771:	48 8d 85 88 f2 ff ff 	lea    -0xd78(%rbp),%rax
    b778:	48 89 85 d0 f4 ff ff 	mov    %rax,-0xb30(%rbp)
    b77f:	48 8d 85 88 f2 ff ff 	lea    -0xd78(%rbp),%rax
    b786:	48 89 85 d8 f4 ff ff 	mov    %rax,-0xb28(%rbp)
    b78d:	48 8d 85 88 f2 ff ff 	lea    -0xd78(%rbp),%rax
    b794:	48 89 85 e0 f4 ff ff 	mov    %rax,-0xb20(%rbp)
    b79b:	48 c7 85 f0 f4 ff ff 	movq   $0x0,-0xb10(%rbp)
    b7a2:	00 00 00 00 
    b7a6:	48 c7 85 f8 f4 ff ff 	movq   $0x0,-0xb08(%rbp)
    b7ad:	00 00 00 00 
    b7b1:	48 c7 85 00 f5 ff ff 	movq   $0x0,-0xb00(%rbp)
    b7b8:	00 00 00 00 
    b7bc:	48 c7 85 08 f5 ff ff 	movq   $0x0,-0xaf8(%rbp)
    b7c3:	00 00 00 00 
    b7c7:	48 c7 85 10 f5 ff ff 	movq   $0x0,-0xaf0(%rbp)
    b7ce:	00 00 00 00 
    b7d2:	48 c7 85 18 f5 ff ff 	movq   $0x0,-0xae8(%rbp)
    b7d9:	00 00 00 00 
    b7dd:	48 c7 85 20 f5 ff ff 	movq   $0x0,-0xae0(%rbp)
    b7e4:	00 00 00 00 
    b7e8:	c7 85 80 f5 ff ff ff 	movl   $0xffffffff,-0xa80(%rbp)
    b7ef:	ff ff ff 
    b7f2:	c7 85 84 f5 ff ff ff 	movl   $0xffffffff,-0xa7c(%rbp)
    b7f9:	ff ff ff 
    b7fc:	c7 85 88 f5 ff ff 00 	movl   $0x0,-0xa78(%rbp)
    b803:	00 00 00 
    b806:	c7 85 8c f5 ff ff 00 	movl   $0x0,-0xa74(%rbp)
    b80d:	00 00 00 
    b810:	c7 85 90 f5 ff ff 00 	movl   $0x0,-0xa70(%rbp)
    b817:	00 00 00 
    b81a:	c7 85 94 f5 ff ff 00 	movl   $0x0,-0xa6c(%rbp)
    b821:	00 00 00 
    b824:	c7 85 98 f5 ff ff 00 	movl   $0x0,-0xa68(%rbp)
    b82b:	00 00 00 
    b82e:	c7 85 9c f5 ff ff ff 	movl   $0xffffffff,-0xa64(%rbp)
    b835:	ff ff ff 
    b838:	c7 85 a0 f5 ff ff ff 	movl   $0xffffffff,-0xa60(%rbp)
    b83f:	ff ff ff 
    b842:	c7 85 a4 f5 ff ff 00 	movl   $0x0,-0xa5c(%rbp)
    b849:	00 00 00 
    b84c:	c7 85 a8 f5 ff ff 00 	movl   $0x0,-0xa58(%rbp)
    b853:	00 00 00 
    b856:	c7 85 ac f5 ff ff 00 	movl   $0x0,-0xa54(%rbp)
    b85d:	00 00 00 
    b860:	c7 85 b0 f5 ff ff 00 	movl   $0x0,-0xa50(%rbp)
    b867:	00 00 00 
    b86a:	c7 85 b4 f5 ff ff 00 	movl   $0x0,-0xa4c(%rbp)
    b871:	00 00 00 
    b874:	c7 85 b8 f5 ff ff ff 	movl   $0xffffffff,-0xa48(%rbp)
    b87b:	ff ff ff 
    b87e:	c7 85 bc f5 ff ff ff 	movl   $0xffffffff,-0xa44(%rbp)
    b885:	ff ff ff 
    b888:	c7 85 c0 f5 ff ff 00 	movl   $0x0,-0xa40(%rbp)
    b88f:	00 00 00 
    b892:	c7 85 c4 f5 ff ff 00 	movl   $0x0,-0xa3c(%rbp)
    b899:	00 00 00 
    b89c:	c7 85 c8 f5 ff ff 00 	movl   $0x0,-0xa38(%rbp)
    b8a3:	00 00 00 
    b8a6:	c7 85 cc f5 ff ff 00 	movl   $0x0,-0xa34(%rbp)
    b8ad:	00 00 00 
    b8b0:	c7 85 d0 f5 ff ff 00 	movl   $0x0,-0xa30(%rbp)
    b8b7:	00 00 00 
    b8ba:	c7 85 d4 f5 ff ff ff 	movl   $0xffffffff,-0xa2c(%rbp)
    b8c1:	ff ff ff 
    b8c4:	c7 85 d8 f5 ff ff ff 	movl   $0xffffffff,-0xa28(%rbp)
    b8cb:	ff ff ff 
    b8ce:	c7 85 dc f5 ff ff 00 	movl   $0x0,-0xa24(%rbp)
    b8d5:	00 00 00 
    b8d8:	48 8d 85 50 f6 ff ff 	lea    -0x9b0(%rbp),%rax
    b8df:	48 8d 15 3a 13 01 00 	lea    0x1133a(%rip),%rdx        # 1cc20 <g_2805+0x300>
    b8e6:	b9 24 00 00 00       	mov    $0x24,%ecx
    b8eb:	48 89 c7             	mov    %rax,%rdi
    b8ee:	48 89 d6             	mov    %rdx,%rsi
    b8f1:	f3 48 a5             	rep movsq %ds:(%rsi),%es:(%rdi)
    b8f4:	48 8b 85 28 f3 ff ff 	mov    -0xcd8(%rbp),%rax
    b8fb:	0f b7 00             	movzwl (%rax),%eax
    b8fe:	8d 50 01             	lea    0x1(%rax),%edx
    b901:	48 8b 85 28 f3 ff ff 	mov    -0xcd8(%rbp),%rax
    b908:	66 89 10             	mov    %dx,(%rax)
    b90b:	48 8b 85 28 f3 ff ff 	mov    -0xcd8(%rbp),%rax
    b912:	0f b7 00             	movzwl (%rax),%eax
    b915:	66 89 85 d8 f1 ff ff 	mov    %ax,-0xe28(%rbp)
    b91c:	66 83 bd d8 f1 ff ff 	cmpw   $0x0,-0xe28(%rbp)
    b923:	00 
    b924:	0f 84 a1 00 00 00    	je     b9cb <func_2+0xf77>
    b92a:	8b 85 a0 f5 ff ff    	mov    -0xa60(%rbp),%eax
    b930:	0f b6 d8             	movzbl %al,%ebx
    b933:	83 ad 34 f2 ff ff 01 	subl   $0x1,-0xdcc(%rbp)
    b93a:	48 8b 05 8f 3b 01 00 	mov    0x13b8f(%rip),%rax        # 1f4d0 <g_1173>
    b941:	48 8b 00             	mov    (%rax),%rax
    b944:	48 85 c0             	test   %rax,%rax
    b947:	74 39                	je     b982 <func_2+0xf2e>
    b949:	0f b7 85 d8 f1 ff ff 	movzwl -0xe28(%rbp),%eax
    b950:	44 0f bf e0          	movswl %ax,%r12d
    b954:	be 00 00 00 00       	mov    $0x0,%esi
    b959:	bf d8 54 0b 28       	mov    $0x280b54d8,%edi
    b95e:	e8 53 dc ff ff       	callq  95b6 <safe_add_func_int32_t_s_s>
    b963:	0f be c0             	movsbl %al,%eax
    b966:	be 03 00 00 00       	mov    $0x3,%esi
    b96b:	89 c7                	mov    %eax,%edi
    b96d:	e8 fa d9 ff ff       	callq  936c <safe_rshift_func_int8_t_s_u>
    b972:	0f be c0             	movsbl %al,%eax
    b975:	44 89 e6             	mov    %r12d,%esi
    b978:	89 c7                	mov    %eax,%edi
    b97a:	e8 54 da ff ff       	callq  93d3 <safe_sub_func_int16_t_s_s>
    b97f:	66 85 c0             	test   %ax,%ax
    b982:	48 c7 85 98 f4 ff ff 	movq   $0x0,-0xb68(%rbp)
    b989:	00 00 00 00 
    b98d:	be 00 00 00 00       	mov    $0x0,%esi
    b992:	bf 01 00 00 00       	mov    $0x1,%edi
    b997:	e8 f1 e2 ff ff       	callq  9c8d <safe_rshift_func_uint8_t_u_s>
    b99c:	0f b6 c0             	movzbl %al,%eax
    b99f:	89 de                	mov    %ebx,%esi
    b9a1:	89 c7                	mov    %eax,%edi
    b9a3:	e8 b2 e1 ff ff       	callq  9b5a <safe_add_func_uint8_t_u_u>
    b9a8:	84 c0                	test   %al,%al
    b9aa:	0f 94 c0             	sete   %al
    b9ad:	0f b6 c0             	movzbl %al,%eax
    b9b0:	89 85 a0 f5 ff ff    	mov    %eax,-0xa60(%rbp)
    b9b6:	8b 85 a0 f5 ff ff    	mov    -0xa60(%rbp),%eax
    b9bc:	39 85 dc f1 ff ff    	cmp    %eax,-0xe24(%rbp)
    b9c2:	74 07                	je     b9cb <func_2+0xf77>
    b9c4:	b8 01 00 00 00       	mov    $0x1,%eax
    b9c9:	eb 05                	jmp    b9d0 <func_2+0xf7c>
    b9cb:	b8 00 00 00 00       	mov    $0x0,%eax
    b9d0:	98                   	cwtl   
    b9d1:	be 4d 1e 00 00       	mov    $0x1e4d,%esi
    b9d6:	89 c7                	mov    %eax,%edi
    b9d8:	e8 39 da ff ff       	callq  9416 <safe_mod_func_int16_t_s_s>
    b9dd:	66 85 c0             	test   %ax,%ax
    b9e0:	0f 9f c0             	setg   %al
    b9e3:	0f b6 c0             	movzbl %al,%eax
    b9e6:	39 85 dc f1 ff ff    	cmp    %eax,-0xe24(%rbp)
    b9ec:	76 10                	jbe    b9fe <func_2+0xfaa>
    b9ee:	83 bd f0 f1 ff ff 00 	cmpl   $0x0,-0xe10(%rbp)
    b9f5:	74 07                	je     b9fe <func_2+0xfaa>
    b9f7:	ba 01 00 00 00       	mov    $0x1,%edx
    b9fc:	eb 05                	jmp    ba03 <func_2+0xfaf>
    b9fe:	ba 00 00 00 00       	mov    $0x0,%edx
    ba03:	48 8b 85 70 f2 ff ff 	mov    -0xd90(%rbp),%rax
    ba0a:	89 10                	mov    %edx,(%rax)
    ba0c:	83 ad 14 f2 ff ff 01 	subl   $0x1,-0xdec(%rbp)
    ba13:	83 bd 14 f2 ff ff 00 	cmpl   $0x0,-0xdec(%rbp)
    ba1a:	0f 89 19 fd ff ff    	jns    b739 <func_2+0xce5>
    ba20:	c7 85 dc f1 ff ff 01 	movl   $0x1,-0xe24(%rbp)
    ba27:	00 00 00 
    ba2a:	83 bd dc f1 ff ff 04 	cmpl   $0x4,-0xe24(%rbp)
    ba31:	77 1a                	ja     ba4d <func_2+0xff9>
    ba33:	48 8d 85 90 f3 ff ff 	lea    -0xc70(%rbp),%rax
    ba3a:	48 89 85 68 f2 ff ff 	mov    %rax,-0xd98(%rbp)
    ba41:	0f b7 85 d8 f1 ff ff 	movzwl -0xe28(%rbp),%eax
    ba48:	e9 d6 06 00 00       	jmpq   c123 <func_2+0x16cf>
    ba4d:	48 8b 05 04 30 01 00 	mov    0x13004(%rip),%rax        # 1ea58 <g_543>
    ba54:	48 8b 00             	mov    (%rax),%rax
    ba57:	48 8b 95 c0 f2 ff ff 	mov    -0xd40(%rbp),%rdx
    ba5e:	48 89 10             	mov    %rdx,(%rax)
    ba61:	8b 05 19 07 01 00    	mov    0x10719(%rip),%eax        # 1c180 <g_238>
    ba67:	83 c0 01             	add    $0x1,%eax
    ba6a:	89 05 10 07 01 00    	mov    %eax,0x10710(%rip)        # 1c180 <g_238>
    ba70:	8b 05 0a 07 01 00    	mov    0x1070a(%rip),%eax        # 1c180 <g_238>
    ba76:	83 f8 04             	cmp    $0x4,%eax
    ba79:	0f 8e ea f6 ff ff    	jle    b169 <func_2+0x715>
    ba7f:	48 c7 05 ae 06 01 00 	movq   $0x0,0x106ae(%rip)        # 1c138 <g_148>
    ba86:	00 00 00 00 
    ba8a:	e9 36 06 00 00       	jmpq   c0c5 <func_2+0x1671>
    ba8f:	c7 85 88 f2 ff ff ff 	movl   $0xffffffff,-0xd78(%rbp)
    ba96:	ff ff ff 
    ba99:	c6 85 e2 f1 ff ff 03 	movb   $0x3,-0xe1e(%rbp)
    baa0:	48 8d 85 68 f2 ff ff 	lea    -0xd98(%rbp),%rax
    baa7:	48 89 85 f8 f2 ff ff 	mov    %rax,-0xd08(%rbp)
    baae:	c7 85 3c f2 ff ff 66 	movl   $0xcee4e766,-0xdc4(%rbp)
    bab5:	e7 e4 ce 
    bab8:	c7 85 38 f2 ff ff 00 	movl   $0x0,-0xdc8(%rbp)
    babf:	00 00 00 
    bac2:	eb 1e                	jmp    bae2 <func_2+0x108e>
    bac4:	8b 85 38 f2 ff ff    	mov    -0xdc8(%rbp),%eax
    baca:	48 98                	cltq   
    bacc:	48 8d 15 ed 46 01 00 	lea    0x146ed(%rip),%rdx        # 201c0 <g_2473>
    bad3:	48 89 94 c5 80 f5 ff 	mov    %rdx,-0xa80(%rbp,%rax,8)
    bada:	ff 
    badb:	83 85 38 f2 ff ff 01 	addl   $0x1,-0xdc8(%rbp)
    bae2:	83 bd 38 f2 ff ff 02 	cmpl   $0x2,-0xdc8(%rbp)
    bae9:	7e d9                	jle    bac4 <func_2+0x1070>
    baeb:	be 04 00 00 00       	mov    $0x4,%esi
    baf0:	bf 05 00 00 00       	mov    $0x5,%edi
    baf5:	e8 52 e1 ff ff       	callq  9c4c <safe_lshift_func_uint8_t_u_u>
    bafa:	0f b6 c0             	movzbl %al,%eax
    bafd:	89 85 94 fc ff ff    	mov    %eax,-0x36c(%rbp)
    bb03:	c7 05 23 06 01 00 04 	movl   $0x4,0x10623(%rip)        # 1c130 <g_126>
    bb0a:	00 00 00 
    bb0d:	90                   	nop
    bb0e:	8b 05 1c 06 01 00    	mov    0x1061c(%rip),%eax        # 1c130 <g_126>
    bb14:	85 c0                	test   %eax,%eax
    bb16:	78 0b                	js     bb23 <func_2+0x10cf>
    bb18:	8b 85 dc f1 ff ff    	mov    -0xe24(%rbp),%eax
    bb1e:	e9 00 06 00 00       	jmpq   c123 <func_2+0x16cf>
    bb23:	0f b6 85 fb f3 ff ff 	movzbl -0xc05(%rbp),%eax
    bb2a:	84 c0                	test   %al,%al
    bb2c:	75 32                	jne    bb60 <func_2+0x110c>
    bb2e:	48 8b 85 f8 f2 ff ff 	mov    -0xd08(%rbp),%rax
    bb35:	48 89 85 90 f2 ff ff 	mov    %rax,-0xd70(%rbp)
    bb3c:	48 8b 85 90 f2 ff ff 	mov    -0xd70(%rbp),%rax
    bb43:	48 3b 85 b8 f2 ff ff 	cmp    -0xd48(%rbp),%rax
    bb4a:	0f 95 c0             	setne  %al
    bb4d:	0f b6 c0             	movzbl %al,%eax
    bb50:	be 07 00 00 00       	mov    $0x7,%esi
    bb55:	89 c7                	mov    %eax,%edi
    bb57:	e8 10 d8 ff ff       	callq  936c <safe_rshift_func_int8_t_s_u>
    bb5c:	84 c0                	test   %al,%al
    bb5e:	74 12                	je     bb72 <func_2+0x111e>
    bb60:	83 bd dc f1 ff ff 00 	cmpl   $0x0,-0xe24(%rbp)
    bb67:	0f 84 4f 05 00 00    	je     c0bc <func_2+0x1668>
    bb6d:	e9 64 05 00 00       	jmpq   c0d6 <func_2+0x1682>
    bb72:	c7 85 50 f6 ff ff ff 	movl   $0xffffffff,-0x9b0(%rbp)
    bb79:	ff ff ff 
    bb7c:	c7 85 54 f6 ff ff ff 	movl   $0xffffffff,-0x9ac(%rbp)
    bb83:	ff ff ff 
    bb86:	c7 85 58 f6 ff ff 9d 	movl   $0xa98ee99d,-0x9a8(%rbp)
    bb8d:	e9 8e a9 
    bb90:	c7 85 5c f6 ff ff 44 	movl   $0xea21e344,-0x9a4(%rbp)
    bb97:	e3 21 ea 
    bb9a:	c7 85 60 f6 ff ff f8 	movl   $0xfffffff8,-0x9a0(%rbp)
    bba1:	ff ff ff 
    bba4:	c7 85 64 f6 ff ff f8 	movl   $0xfffffff8,-0x99c(%rbp)
    bbab:	ff ff ff 
    bbae:	c7 85 68 f6 ff ff 44 	movl   $0xea21e344,-0x998(%rbp)
    bbb5:	e3 21 ea 
    bbb8:	c7 85 6c f6 ff ff 9d 	movl   $0xa98ee99d,-0x994(%rbp)
    bbbf:	e9 8e a9 
    bbc2:	c7 85 70 f6 ff ff ff 	movl   $0xffffffff,-0x990(%rbp)
    bbc9:	ff ff ff 
    bbcc:	c7 85 74 f6 ff ff c0 	movl   $0x6fb6a3c0,-0x98c(%rbp)
    bbd3:	a3 b6 6f 
    bbd6:	c7 85 78 f6 ff ff f8 	movl   $0x44754f8,-0x988(%rbp)
    bbdd:	54 47 04 
    bbe0:	c7 85 7c f6 ff ff 47 	movl   $0x20f06447,-0x984(%rbp)
    bbe7:	64 f0 20 
    bbea:	c7 85 80 f6 ff ff f8 	movl   $0x44754f8,-0x980(%rbp)
    bbf1:	54 47 04 
    bbf4:	c7 85 84 f6 ff ff c0 	movl   $0x6fb6a3c0,-0x97c(%rbp)
    bbfb:	a3 b6 6f 
    bbfe:	c7 85 88 f6 ff ff f8 	movl   $0x44754f8,-0x978(%rbp)
    bc05:	54 47 04 
    bc08:	c7 85 8c f6 ff ff 47 	movl   $0x20f06447,-0x974(%rbp)
    bc0f:	64 f0 20 
    bc12:	c7 85 90 f6 ff ff f8 	movl   $0x44754f8,-0x970(%rbp)
    bc19:	54 47 04 
    bc1c:	c7 85 94 f6 ff ff c0 	movl   $0x6fb6a3c0,-0x96c(%rbp)
    bc23:	a3 b6 6f 
    bc26:	c7 85 98 f6 ff ff f8 	movl   $0xfffffff8,-0x968(%rbp)
    bc2d:	ff ff ff 
    bc30:	c7 85 9c f6 ff ff 44 	movl   $0xea21e344,-0x964(%rbp)
    bc37:	e3 21 ea 
    bc3a:	c7 85 a0 f6 ff ff 9d 	movl   $0xa98ee99d,-0x960(%rbp)
    bc41:	e9 8e a9 
    bc44:	c7 85 a4 f6 ff ff ff 	movl   $0xffffffff,-0x95c(%rbp)
    bc4b:	ff ff ff 
    bc4e:	c7 85 a8 f6 ff ff ff 	movl   $0xffffffff,-0x958(%rbp)
    bc55:	ff ff ff 
    bc58:	c7 85 ac f6 ff ff 9d 	movl   $0xa98ee99d,-0x954(%rbp)
    bc5f:	e9 8e a9 
    bc62:	c7 85 b0 f6 ff ff 44 	movl   $0xea21e344,-0x950(%rbp)
    bc69:	e3 21 ea 
    bc6c:	c7 85 b4 f6 ff ff f8 	movl   $0xfffffff8,-0x94c(%rbp)
    bc73:	ff ff ff 
    bc76:	c7 85 b8 f6 ff ff f8 	movl   $0xfffffff8,-0x948(%rbp)
    bc7d:	ff ff ff 
    bc80:	c7 85 bc f6 ff ff 84 	movl   $0x1dc2da84,-0x944(%rbp)
    bc87:	da c2 1d 
    bc8a:	c7 85 c0 f6 ff ff f8 	movl   $0x44754f8,-0x940(%rbp)
    bc91:	54 47 04 
    bc94:	c7 85 c4 f6 ff ff 84 	movl   $0x1dc2da84,-0x93c(%rbp)
    bc9b:	da c2 1d 
    bc9e:	c7 85 c8 f6 ff ff 76 	movl   $0x9de4e176,-0x938(%rbp)
    bca5:	e1 e4 9d 
    bca8:	c7 85 cc f6 ff ff 84 	movl   $0x1dc2da84,-0x934(%rbp)
    bcaf:	da c2 1d 
    bcb2:	c7 85 d0 f6 ff ff f8 	movl   $0x44754f8,-0x930(%rbp)
    bcb9:	54 47 04 
    bcbc:	c7 85 d4 f6 ff ff 84 	movl   $0x1dc2da84,-0x92c(%rbp)
    bcc3:	da c2 1d 
    bcc6:	c7 85 d8 f6 ff ff 76 	movl   $0x9de4e176,-0x928(%rbp)
    bccd:	e1 e4 9d 
    bcd0:	c7 85 dc f6 ff ff 84 	movl   $0x1dc2da84,-0x924(%rbp)
    bcd7:	da c2 1d 
    bcda:	48 8d 85 70 f7 ff ff 	lea    -0x890(%rbp),%rax
    bce1:	48 83 c0 50          	add    $0x50,%rax
    bce5:	48 89 85 00 f3 ff ff 	mov    %rax,-0xd00(%rbp)
    bcec:	c7 85 b0 f3 ff ff 01 	movl   $0x1,-0xc50(%rbp)
    bcf3:	00 00 00 
    bcf6:	8b 85 dc f1 ff ff    	mov    -0xe24(%rbp),%eax
    bcfc:	0f bf d8             	movswl %ax,%ebx
    bcff:	0f b6 85 fa f3 ff ff 	movzbl -0xc06(%rbp),%eax
    bd06:	44 0f be e0          	movsbl %al,%r12d
    bd0a:	48 8b 05 bf 35 01 00 	mov    0x135bf(%rip),%rax        # 1f2d0 <g_1024>
    bd11:	0f b7 00             	movzwl (%rax),%eax
    bd14:	44 0f bf e8          	movswl %ax,%r13d
    bd18:	83 bd dc f1 ff ff 00 	cmpl   $0x0,-0xe24(%rbp)
    bd1f:	0f 84 ea 01 00 00    	je     bf0f <func_2+0x14bb>
    bd25:	8b 85 dc f1 ff ff    	mov    -0xe24(%rbp),%eax
    bd2b:	44 0f b6 f0          	movzbl %al,%r14d
    bd2f:	48 8b 85 d0 f2 ff ff 	mov    -0xd30(%rbp),%rax
    bd36:	44 8b 38             	mov    (%rax),%r15d
    bd39:	0f b6 05 a5 d4 00 00 	movzbl 0xd4a5(%rip),%eax        # 191e5 <l_2741.4354+0x25>
    bd40:	d0 e8                	shr    %al
    bd42:	83 e0 07             	and    $0x7,%eax
    bd45:	0f b6 c0             	movzbl %al,%eax
    bd48:	48 89 85 d0 f1 ff ff 	mov    %rax,-0xe30(%rbp)
    bd4f:	0f b6 05 8f d4 00 00 	movzbl 0xd48f(%rip),%eax        # 191e5 <l_2741.4354+0x25>
    bd56:	d0 e8                	shr    %al
    bd58:	83 e0 07             	and    $0x7,%eax
    bd5b:	0f b6 c0             	movzbl %al,%eax
    bd5e:	48 89 85 c8 f1 ff ff 	mov    %rax,-0xe38(%rbp)
    bd65:	48 8b 85 c8 f7 ff ff 	mov    -0x838(%rbp),%rax
    bd6c:	48 85 c0             	test   %rax,%rax
    bd6f:	0f 84 8a 00 00 00    	je     bdff <func_2+0x13ab>
    bd75:	8b 85 dc f1 ff ff    	mov    -0xe24(%rbp),%eax
    bd7b:	0f b7 c0             	movzwl %ax,%eax
    bd7e:	89 85 c4 f1 ff ff    	mov    %eax,-0xe3c(%rbp)
    bd84:	8b 95 dc f1 ff ff    	mov    -0xe24(%rbp),%edx
    bd8a:	0f b7 05 53 d4 00 00 	movzwl 0xd453(%rip),%eax        # 191e4 <l_2741.4354+0x24>
    bd91:	c1 e0 07             	shl    $0x7,%eax
    bd94:	66 c1 f8 07          	sar    $0x7,%ax
    bd98:	98                   	cwtl   
    bd99:	89 85 a4 f6 ff ff    	mov    %eax,-0x95c(%rbp)
    bd9f:	48 8b 85 a0 f2 ff ff 	mov    -0xd60(%rbp),%rax
    bda6:	c6 00 01             	movb   $0x1,(%rax)
    bda9:	48 8b 85 a0 f2 ff ff 	mov    -0xd60(%rbp),%rax
    bdb0:	0f b6 00             	movzbl (%rax),%eax
    bdb3:	0f b6 c0             	movzbl %al,%eax
    bdb6:	89 d6                	mov    %edx,%esi
    bdb8:	89 c7                	mov    %eax,%edi
    bdba:	e8 46 de ff ff       	callq  9c05 <safe_lshift_func_uint8_t_u_s>
    bdbf:	0f b6 c0             	movzbl %al,%eax
    bdc2:	be 02 00 00 00       	mov    $0x2,%esi
    bdc7:	89 c7                	mov    %eax,%edi
    bdc9:	e8 38 e0 ff ff       	callq  9e06 <safe_lshift_func_uint16_t_u_u>
    bdce:	48 8b 05 0b 35 01 00 	mov    0x1350b(%rip),%rax        # 1f2e0 <g_1022>
    bdd5:	48 8b 00             	mov    (%rax),%rax
    bdd8:	48 8b 00             	mov    (%rax),%rax
    bddb:	0f b7 00             	movzwl (%rax),%eax
    bdde:	0f b7 c0             	movzwl %ax,%eax
    bde1:	8b b5 c4 f1 ff ff    	mov    -0xe3c(%rbp),%esi
    bde7:	89 c7                	mov    %eax,%edi
    bde9:	e8 4f df ff ff       	callq  9d3d <safe_mul_func_uint16_t_u_u>
    bdee:	66 83 bd d8 f1 ff ff 	cmpw   $0x1,-0xe28(%rbp)
    bdf5:	01 
    bdf6:	74 07                	je     bdff <func_2+0x13ab>
    bdf8:	b8 01 00 00 00       	mov    $0x1,%eax
    bdfd:	eb 05                	jmp    be04 <func_2+0x13b0>
    bdff:	b8 00 00 00 00       	mov    $0x0,%eax
    be04:	0f b7 c0             	movzwl %ax,%eax
    be07:	be 08 00 00 00       	mov    $0x8,%esi
    be0c:	89 c7                	mov    %eax,%edi
    be0e:	e8 67 e0 ff ff       	callq  9e7a <safe_rshift_func_uint16_t_u_u>
    be13:	48 8b 15 ce 37 01 00 	mov    0x137ce(%rip),%rdx        # 1f5e8 <g_1564>
    be1a:	48 8b 05 af 36 01 00 	mov    0x136af(%rip),%rax        # 1f4d0 <g_1173>
    be21:	48 8b 12             	mov    (%rdx),%rdx
    be24:	48 89 10             	mov    %rdx,(%rax)
    be27:	48 8b 00             	mov    (%rax),%rax
    be2a:	48 8b b5 c8 f1 ff ff 	mov    -0xe38(%rbp),%rsi
    be31:	48 89 c7             	mov    %rax,%rdi
    be34:	e8 f5 e1 ff ff       	callq  a02e <safe_add_func_uint64_t_u_u>
    be39:	48 89 c2             	mov    %rax,%rdx
    be3c:	48 8b 85 70 f2 ff ff 	mov    -0xd90(%rbp),%rax
    be43:	89 10                	mov    %edx,(%rax)
    be45:	8b 00                	mov    (%rax),%eax
    be47:	0f be c0             	movsbl %al,%eax
    be4a:	be 00 00 00 00       	mov    $0x0,%esi
    be4f:	89 c7                	mov    %eax,%edi
    be51:	e8 4b d4 ff ff       	callq  92a1 <safe_lshift_func_int8_t_s_s>
    be56:	48 0f be c0          	movsbq %al,%rax
    be5a:	48 8b b5 d0 f1 ff ff 	mov    -0xe30(%rbp),%rsi
    be61:	48 89 c7             	mov    %rax,%rdi
    be64:	e8 e2 e1 ff ff       	callq  a04b <safe_sub_func_uint64_t_u_u>
    be69:	48 8b 15 68 34 01 00 	mov    0x13468(%rip),%rdx        # 1f2d8 <g_1023>
    be70:	48 8b 12             	mov    (%rdx),%rdx
    be73:	0f b7 12             	movzwl (%rdx),%edx
    be76:	0f b7 d2             	movzwl %dx,%edx
    be79:	48 39 d0             	cmp    %rdx,%rax
    be7c:	0f 93 c0             	setae  %al
    be7f:	0f b6 d0             	movzbl %al,%edx
    be82:	0f b7 85 d8 f1 ff ff 	movzwl -0xe28(%rbp),%eax
    be89:	98                   	cwtl   
    be8a:	89 d6                	mov    %edx,%esi
    be8c:	89 c7                	mov    %eax,%edi
    be8e:	e8 ff d5 ff ff       	callq  9492 <safe_lshift_func_int16_t_s_s>
    be93:	98                   	cwtl   
    be94:	39 85 dc f1 ff ff    	cmp    %eax,-0xe24(%rbp)
    be9a:	0f 97 c0             	seta   %al
    be9d:	0f b6 c0             	movzbl %al,%eax
    bea0:	44 89 fe             	mov    %r15d,%esi
    bea3:	89 c7                	mov    %eax,%edi
    bea5:	e8 22 d8 ff ff       	callq  96cc <safe_mod_func_int32_t_s_s>
    beaa:	0f b6 c0             	movzbl %al,%eax
    bead:	44 89 f6             	mov    %r14d,%esi
    beb0:	89 c7                	mov    %eax,%edi
    beb2:	e8 24 dd ff ff       	callq  9bdb <safe_div_func_uint8_t_u_u>
    beb7:	0f b6 c0             	movzbl %al,%eax
    beba:	be 01 00 00 00       	mov    $0x1,%esi
    bebf:	89 c7                	mov    %eax,%edi
    bec1:	e8 9d d6 ff ff       	callq  9563 <safe_rshift_func_int16_t_s_u>
    bec6:	83 f0 04             	xor    $0x4,%eax
    bec9:	0f b6 c0             	movzbl %al,%eax
    becc:	be 02 00 00 00       	mov    $0x2,%esi
    bed1:	89 c7                	mov    %eax,%edi
    bed3:	e8 2d dd ff ff       	callq  9c05 <safe_lshift_func_uint8_t_u_s>
    bed8:	0f b7 05 05 d3 00 00 	movzwl 0xd305(%rip),%eax        # 191e4 <l_2741.4354+0x24>
    bedf:	66 25 ff 01          	and    $0x1ff,%ax
    bee3:	66 85 c0             	test   %ax,%ax
    bee6:	48 8b 05 63 26 01 00 	mov    0x12663(%rip),%rax        # 1e550 <g_106>
    beed:	0f b7 00             	movzwl (%rax),%eax
    bef0:	0f bf d0             	movswl %ax,%edx
    bef3:	8b 85 dc f1 ff ff    	mov    -0xe24(%rbp),%eax
    bef9:	98                   	cwtl   
    befa:	89 d6                	mov    %edx,%esi
    befc:	89 c7                	mov    %eax,%edi
    befe:	e8 b0 d4 ff ff       	callq  93b3 <safe_add_func_int16_t_s_s>
    bf03:	66 85 c0             	test   %ax,%ax
    bf06:	74 07                	je     bf0f <func_2+0x14bb>
    bf08:	ba 01 00 00 00       	mov    $0x1,%edx
    bf0d:	eb 05                	jmp    bf14 <func_2+0x14c0>
    bf0f:	ba 00 00 00 00       	mov    $0x0,%edx
    bf14:	48 8b 05 6d 3d 01 00 	mov    0x13d6d(%rip),%rax        # 1fc88 <g_2610>
    bf1b:	48 8b 00             	mov    (%rax),%rax
    bf1e:	48 8b 00             	mov    (%rax),%rax
    bf21:	88 10                	mov    %dl,(%rax)
    bf23:	0f b6 00             	movzbl (%rax),%eax
    bf26:	0f b6 d0             	movzbl %al,%edx
    bf29:	0f b7 05 b4 d2 00 00 	movzwl 0xd2b4(%rip),%eax        # 191e4 <l_2741.4354+0x24>
    bf30:	c1 e0 07             	shl    $0x7,%eax
    bf33:	66 c1 f8 07          	sar    $0x7,%ax
    bf37:	98                   	cwtl   
    bf38:	39 c2                	cmp    %eax,%edx
    bf3a:	0f 9f c0             	setg   %al
    bf3d:	0f b6 d0             	movzbl %al,%edx
    bf40:	0f b7 85 d8 f1 ff ff 	movzwl -0xe28(%rbp),%eax
    bf47:	0f be c0             	movsbl %al,%eax
    bf4a:	89 d6                	mov    %edx,%esi
    bf4c:	89 c7                	mov    %eax,%edi
    bf4e:	e8 9f d2 ff ff       	callq  91f2 <safe_sub_func_int8_t_s_s>
    bf53:	48 0f be d0          	movsbq %al,%rdx
    bf57:	48 8b 85 00 f3 ff ff 	mov    -0xd00(%rbp),%rax
    bf5e:	48 89 10             	mov    %rdx,(%rax)
    bf61:	48 8b 85 00 f3 ff ff 	mov    -0xd00(%rbp),%rax
    bf68:	48 8b 00             	mov    (%rax),%rax
    bf6b:	8b 95 94 fc ff ff    	mov    -0x36c(%rbp),%edx
    bf71:	21 d0                	and    %edx,%eax
    bf73:	89 85 94 fc ff ff    	mov    %eax,-0x36c(%rbp)
    bf79:	8b 85 94 fc ff ff    	mov    -0x36c(%rbp),%eax
    bf7f:	85 c0                	test   %eax,%eax
    bf81:	0f 95 c0             	setne  %al
    bf84:	0f b6 c0             	movzbl %al,%eax
    bf87:	09 85 fc f1 ff ff    	or     %eax,-0xe04(%rbp)
    bf8d:	be e4 ff ff ff       	mov    $0xffffffe4,%esi
    bf92:	bf 01 00 00 00       	mov    $0x1,%edi
    bf97:	e8 76 d2 ff ff       	callq  9212 <safe_mul_func_int8_t_s_s>
    bf9c:	66 0f be d0          	movsbw %al,%dx
    bfa0:	0f b7 85 d8 f1 ff ff 	movzwl -0xe28(%rbp),%eax
    bfa7:	21 d0                	and    %edx,%eax
    bfa9:	98                   	cwtl   
    bfaa:	44 89 ee             	mov    %r13d,%esi
    bfad:	89 c7                	mov    %eax,%edi
    bfaf:	e8 62 d4 ff ff       	callq  9416 <safe_mod_func_int16_t_s_s>
    bfb4:	66 85 c0             	test   %ax,%ax
    bfb7:	75 09                	jne    bfc2 <func_2+0x156e>
    bfb9:	83 bd dc f1 ff ff 00 	cmpl   $0x0,-0xe24(%rbp)
    bfc0:	74 07                	je     bfc9 <func_2+0x1575>
    bfc2:	b8 01 00 00 00       	mov    $0x1,%eax
    bfc7:	eb 05                	jmp    bfce <func_2+0x157a>
    bfc9:	b8 00 00 00 00       	mov    $0x0,%eax
    bfce:	0f be c0             	movsbl %al,%eax
    bfd1:	44 89 e6             	mov    %r12d,%esi
    bfd4:	89 c7                	mov    %eax,%edi
    bfd6:	e8 8f d2 ff ff       	callq  926a <safe_div_func_int8_t_s_s>
    bfdb:	0f be d0             	movsbl %al,%edx
    bfde:	0f b6 05 ef 07 01 00 	movzbl 0x107ef(%rip),%eax        # 1c7d4 <g_2793>
    bfe5:	0f b6 c0             	movzbl %al,%eax
    bfe8:	39 c2                	cmp    %eax,%edx
    bfea:	0f 95 c0             	setne  %al
    bfed:	0f b6 c0             	movzbl %al,%eax
    bff0:	89 de                	mov    %ebx,%esi
    bff2:	89 c7                	mov    %eax,%edi
    bff4:	e8 fc d3 ff ff       	callq  93f5 <safe_mul_func_int16_t_s_s>
    bff9:	48 8d 05 40 38 01 00 	lea    0x13840(%rip),%rax        # 1f840 <g_1992+0x100>
    c000:	48 39 85 98 f2 ff ff 	cmp    %rax,-0xd68(%rbp)
    c007:	75 0a                	jne    c013 <func_2+0x15bf>
    c009:	66 83 bd d8 f1 ff ff 	cmpw   $0x0,-0xe28(%rbp)
    c010:	00 
    c011:	74 07                	je     c01a <func_2+0x15c6>
    c013:	b8 01 00 00 00       	mov    $0x1,%eax
    c018:	eb 05                	jmp    c01f <func_2+0x15cb>
    c01a:	b8 00 00 00 00       	mov    $0x0,%eax
    c01f:	3d 91 ab 9b 69       	cmp    $0x699bab91,%eax
    c024:	0f 9f c0             	setg   %al
    c027:	0f b6 c0             	movzbl %al,%eax
    c02a:	89 85 e8 f1 ff ff    	mov    %eax,-0xe18(%rbp)
    c030:	8b 85 b0 f3 ff ff    	mov    -0xc50(%rbp),%eax
    c036:	39 85 e8 f1 ff ff    	cmp    %eax,-0xe18(%rbp)
    c03c:	74 6d                	je     c0ab <func_2+0x1657>
    c03e:	48 8d 05 93 24 01 00 	lea    0x12493(%rip),%rax        # 1e4d8 <g_98+0x138>
    c045:	48 89 85 08 f3 ff ff 	mov    %rax,-0xcf8(%rbp)
    c04c:	48 8b 85 d0 f2 ff ff 	mov    -0xd30(%rbp),%rax
    c053:	c7 00 a2 c5 d6 e6    	movl   $0xe6d6c5a2,(%rax)
    c059:	c7 85 04 f2 ff ff a2 	movl   $0xe6d6c5a2,-0xdfc(%rbp)
    c060:	c5 d6 e6 
    c063:	48 8b 05 fe 3b 01 00 	mov    0x13bfe(%rip),%rax        # 1fc68 <g_2394>
    c06a:	8b 00                	mov    (%rax),%eax
    c06c:	85 c0                	test   %eax,%eax
    c06e:	74 14                	je     c084 <func_2+0x1630>
    c070:	48 8b 05 c1 00 01 00 	mov    0x100c1(%rip),%rax        # 1c138 <g_148>
    c077:	48 83 c0 01          	add    $0x1,%rax
    c07b:	48 89 05 b6 00 01 00 	mov    %rax,0x100b6(%rip)        # 1c138 <g_148>
    c082:	eb 41                	jmp    c0c5 <func_2+0x1671>
    c084:	48 8b 85 08 f3 ff ff 	mov    -0xcf8(%rbp),%rax
    c08b:	48 8d 95 88 f2 ff ff 	lea    -0xd78(%rbp),%rdx
    c092:	48 89 10             	mov    %rdx,(%rax)
    c095:	48 8b 05 bc 29 01 00 	mov    0x129bc(%rip),%rax        # 1ea58 <g_543>
    c09c:	48 8b 00             	mov    (%rax),%rax
    c09f:	48 8b 00             	mov    (%rax),%rax
    c0a2:	48 89 85 80 f2 ff ff 	mov    %rax,-0xd80(%rbp)
    c0a9:	eb 11                	jmp    c0bc <func_2+0x1668>
    c0ab:	48 8b 05 2e 3c 01 00 	mov    0x13c2e(%rip),%rax        # 1fce0 <g_2803>
    c0b2:	48 8d 95 b0 f3 ff ff 	lea    -0xc50(%rbp),%rdx
    c0b9:	48 89 10             	mov    %rdx,(%rax)
    c0bc:	0f b7 85 d8 f1 ff ff 	movzwl -0xe28(%rbp),%eax
    c0c3:	eb 5e                	jmp    c123 <func_2+0x16cf>
    c0c5:	48 8b 05 6c 00 01 00 	mov    0x1006c(%rip),%rax        # 1c138 <g_148>
    c0cc:	48 83 f8 04          	cmp    $0x4,%rax
    c0d0:	0f 86 b9 f9 ff ff    	jbe    ba8f <func_2+0x103b>
    c0d6:	48 8b 05 6b 40 01 00 	mov    0x1406b(%rip),%rax        # 20148 <g_449>
    c0dd:	48 83 c0 01          	add    $0x1,%rax
    c0e1:	48 89 05 60 40 01 00 	mov    %rax,0x14060(%rip)        # 20148 <g_449>
    c0e8:	48 8b 05 59 40 01 00 	mov    0x14059(%rip),%rax        # 20148 <g_449>
    c0ef:	48 83 f8 04          	cmp    $0x4,%rax
    c0f3:	0f 8e e0 ed ff ff    	jle    aed9 <func_2+0x485>
    c0f9:	eb 01                	jmp    c0fc <func_2+0x16a8>
    c0fb:	90                   	nop
    c0fc:	0f b7 05 13 01 01 00 	movzwl 0x10113(%rip),%eax        # 1c216 <g_714>
    c103:	83 e8 01             	sub    $0x1,%eax
    c106:	66 89 05 09 01 01 00 	mov    %ax,0x10109(%rip)        # 1c216 <g_714>
    c10d:	0f b7 05 02 01 01 00 	movzwl 0x10102(%rip),%eax        # 1c216 <g_714>
    c114:	66 85 c0             	test   %ax,%ax
    c117:	0f 89 02 eb ff ff    	jns    ac1f <func_2+0x1cb>
    c11d:	8b 85 dc f1 ff ff    	mov    -0xe24(%rbp),%eax
    c123:	48 8b 5d c8          	mov    -0x38(%rbp),%rbx
    c127:	64 48 33 1c 25 28 00 	xor    %fs:0x28,%rbx
    c12e:	00 00 
    c130:	74 05                	je     c137 <func_2+0x16e3>
    c132:	e8 39 cf ff ff       	callq  9070 <__stack_chk_fail@plt>
    c137:	48 81 c4 18 0e 00 00 	add    $0xe18,%rsp
    c13e:	5b                   	pop    %rbx
    c13f:	41 5c                	pop    %r12
    c141:	41 5d                	pop    %r13
    c143:	41 5e                	pop    %r14
    c145:	41 5f                	pop    %r15
    c147:	5d                   	pop    %rbp
    c148:	c3                   	retq   

000000000000c149 <func_5>:
    c149:	f3 0f 1e fa          	endbr64 
    c14d:	55                   	push   %rbp
    c14e:	48 89 e5             	mov    %rsp,%rbp
    c151:	89 f1                	mov    %esi,%ecx
    c153:	89 d0                	mov    %edx,%eax
    c155:	89 fa                	mov    %edi,%edx
    c157:	88 55 ec             	mov    %dl,-0x14(%rbp)
    c15a:	89 ca                	mov    %ecx,%edx
    c15c:	66 89 55 e8          	mov    %dx,-0x18(%rbp)
    c160:	66 89 45 e4          	mov    %ax,-0x1c(%rbp)
    c164:	c6 05 ad 00 01 00 00 	movb   $0x0,0x100ad(%rip)        # 1c218 <g_715>
    c16b:	90                   	nop
    c16c:	0f b6 05 a5 00 01 00 	movzbl 0x100a5(%rip),%eax        # 1c218 <g_715>
    c173:	3c f5                	cmp    $0xf5,%al
    c175:	7c 14                	jl     c18b <func_5+0x42>
    c177:	48 b8 a5 56 d3 92 5e 	movabs $0x4263f55e92d356a5,%rax
    c17e:	f5 63 42 
    c181:	48 89 45 f8          	mov    %rax,-0x8(%rbp)
    c185:	48 8b 45 f8          	mov    -0x8(%rbp),%rax
    c189:	eb 12                	jmp    c19d <func_5+0x54>
    c18b:	48 8b 05 4e 34 01 00 	mov    0x1344e(%rip),%rax        # 1f5e0 <g_1507>
    c192:	48 c7 00 00 00 00 00 	movq   $0x0,(%rax)
    c199:	0f b7 45 e4          	movzwl -0x1c(%rbp),%eax
    c19d:	5d                   	pop    %rbp
    c19e:	c3                   	retq   

000000000000c19f <func_9>:
    c19f:	f3 0f 1e fa          	endbr64 
    c1a3:	55                   	push   %rbp
    c1a4:	48 89 e5             	mov    %rsp,%rbp
    c1a7:	89 f8                	mov    %edi,%eax
    c1a9:	89 75 f8             	mov    %esi,-0x8(%rbp)
    c1ac:	48 89 55 f0          	mov    %rdx,-0x10(%rbp)
    c1b0:	48 89 4d e8          	mov    %rcx,-0x18(%rbp)
    c1b4:	88 45 fc             	mov    %al,-0x4(%rbp)
    c1b7:	8b 05 97 fe 00 00    	mov    0xfe97(%rip),%eax        # 1c054 <g_14+0x14>
    c1bd:	5d                   	pop    %rbp
    c1be:	c3                   	retq   

000000000000c1bf <func_20>:
    c1bf:	f3 0f 1e fa          	endbr64 
    c1c3:	55                   	push   %rbp
    c1c4:	48 89 e5             	mov    %rsp,%rbp
    c1c7:	48 81 ec 90 00 00 00 	sub    $0x90,%rsp
    c1ce:	89 bd 7c ff ff ff    	mov    %edi,-0x84(%rbp)
    c1d4:	64 48 8b 04 25 28 00 	mov    %fs:0x28,%rax
    c1db:	00 00 
    c1dd:	48 89 45 f8          	mov    %rax,-0x8(%rbp)
    c1e1:	31 c0                	xor    %eax,%eax
    c1e3:	c6 45 83 13          	movb   $0x13,-0x7d(%rbp)
    c1e7:	48 8d 05 b2 fe 00 00 	lea    0xfeb2(%rip),%rax        # 1c0a0 <g_89>
    c1ee:	48 89 45 88          	mov    %rax,-0x78(%rbp)
    c1f2:	48 c7 45 90 00 00 00 	movq   $0x0,-0x70(%rbp)
    c1f9:	00 
    c1fa:	48 8d 05 7f ff 00 00 	lea    0xff7f(%rip),%rax        # 1c180 <g_238>
    c201:	48 89 45 98          	mov    %rax,-0x68(%rbp)
    c205:	48 8d 05 98 fe 00 00 	lea    0xfe98(%rip),%rax        # 1c0a4 <g_99>
    c20c:	48 89 45 a0          	mov    %rax,-0x60(%rbp)
    c210:	48 8d 05 8d fe 00 00 	lea    0xfe8d(%rip),%rax        # 1c0a4 <g_99>
    c217:	48 89 45 a8          	mov    %rax,-0x58(%rbp)
    c21b:	48 8d 05 82 fe 00 00 	lea    0xfe82(%rip),%rax        # 1c0a4 <g_99>
    c222:	48 89 45 b0          	mov    %rax,-0x50(%rbp)
    c226:	48 8d 05 77 fe 00 00 	lea    0xfe77(%rip),%rax        # 1c0a4 <g_99>
    c22d:	48 89 45 b8          	mov    %rax,-0x48(%rbp)
    c231:	48 8d 05 6c fe 00 00 	lea    0xfe6c(%rip),%rax        # 1c0a4 <g_99>
    c238:	48 89 45 c0          	mov    %rax,-0x40(%rbp)
    c23c:	48 8d 05 61 fe 00 00 	lea    0xfe61(%rip),%rax        # 1c0a4 <g_99>
    c243:	48 89 45 c8          	mov    %rax,-0x38(%rbp)
    c247:	48 8d 05 56 fe 00 00 	lea    0xfe56(%rip),%rax        # 1c0a4 <g_99>
    c24e:	48 89 45 d0          	mov    %rax,-0x30(%rbp)
    c252:	48 8d 05 4b fe 00 00 	lea    0xfe4b(%rip),%rax        # 1c0a4 <g_99>
    c259:	48 89 45 d8          	mov    %rax,-0x28(%rbp)
    c25d:	48 8d 05 40 fe 00 00 	lea    0xfe40(%rip),%rax        # 1c0a4 <g_99>
    c264:	48 89 45 e0          	mov    %rax,-0x20(%rbp)
    c268:	48 8d 05 35 fe 00 00 	lea    0xfe35(%rip),%rax        # 1c0a4 <g_99>
    c26f:	48 89 45 e8          	mov    %rax,-0x18(%rbp)
    c273:	c7 45 84 39 f6 68 84 	movl   $0x8468f639,-0x7c(%rbp)
    c27a:	83 45 84 01          	addl   $0x1,-0x7c(%rbp)
    c27e:	8b 85 7c ff ff ff    	mov    -0x84(%rbp),%eax
    c284:	48 8b 55 f8          	mov    -0x8(%rbp),%rdx
    c288:	64 48 33 14 25 28 00 	xor    %fs:0x28,%rdx
    c28f:	00 00 
    c291:	74 05                	je     c298 <func_20+0xd9>
    c293:	e8 d8 cd ff ff       	callq  9070 <__stack_chk_fail@plt>
    c298:	c9                   	leaveq 
    c299:	c3                   	retq   

000000000000c29a <func_24>:
    c29a:	f3 0f 1e fa          	endbr64 
    c29e:	55                   	push   %rbp
    c29f:	48 89 e5             	mov    %rsp,%rbp
    c2a2:	41 54                	push   %r12
    c2a4:	53                   	push   %rbx
    c2a5:	48 81 ec 00 10 00 00 	sub    $0x1000,%rsp
    c2ac:	48 83 0c 24 00       	orq    $0x0,(%rsp)
    c2b1:	48 81 ec e0 06 00 00 	sub    $0x6e0,%rsp
    c2b8:	89 bd 1c e9 ff ff    	mov    %edi,-0x16e4(%rbp)
    c2be:	89 b5 18 e9 ff ff    	mov    %esi,-0x16e8(%rbp)
    c2c4:	64 48 8b 04 25 28 00 	mov    %fs:0x28,%rax
    c2cb:	00 00 
    c2cd:	48 89 45 e8          	mov    %rax,-0x18(%rbp)
    c2d1:	31 c0                	xor    %eax,%eax
    c2d3:	48 c7 85 70 e9 ff ff 	movq   $0x0,-0x1690(%rbp)
    c2da:	00 00 00 00 
    c2de:	48 8d 85 70 e9 ff ff 	lea    -0x1690(%rbp),%rax
    c2e5:	48 89 85 98 e9 ff ff 	mov    %rax,-0x1668(%rbp)
    c2ec:	48 8d 05 dd 35 01 00 	lea    0x135dd(%rip),%rax        # 1f8d0 <g_1991>
    c2f3:	48 89 85 a0 e9 ff ff 	mov    %rax,-0x1660(%rbp)
    c2fa:	c6 85 21 e9 ff ff 3e 	movb   $0x3e,-0x16df(%rbp)
    c301:	c7 85 2c e9 ff ff 7a 	movl   $0xc6308b7a,-0x16d4(%rbp)
    c308:	8b 30 c6 
    c30b:	c7 85 38 e9 ff ff 01 	movl   $0x1,-0x16c8(%rbp)
    c312:	00 00 00 
    c315:	c7 85 3c e9 ff ff 8d 	movl   $0xa6b5528d,-0x16c4(%rbp)
    c31c:	52 b5 a6 
    c31f:	c7 85 40 e9 ff ff 88 	movl   $0xba1a7d88,-0x16c0(%rbp)
    c326:	7d 1a ba 
    c329:	c7 85 50 ea ff ff f6 	movl   $0xfffffff6,-0x15b0(%rbp)
    c330:	ff ff ff 
    c333:	c7 85 54 ea ff ff f6 	movl   $0xfffffff6,-0x15ac(%rbp)
    c33a:	ff ff ff 
    c33d:	c7 85 58 ea ff ff f6 	movl   $0xfffffff6,-0x15a8(%rbp)
    c344:	ff ff ff 
    c347:	c7 85 5c ea ff ff f6 	movl   $0xfffffff6,-0x15a4(%rbp)
    c34e:	ff ff ff 
    c351:	c7 85 60 ea ff ff f6 	movl   $0xfffffff6,-0x15a0(%rbp)
    c358:	ff ff ff 
    c35b:	48 c7 85 a8 e9 ff ff 	movq   $0x0,-0x1658(%rbp)
    c362:	00 00 00 00 
    c366:	48 8d 85 10 f8 ff ff 	lea    -0x7f0(%rbp),%rax
    c36d:	48 8d 15 cc 09 01 00 	lea    0x109cc(%rip),%rdx        # 1cd40 <g_2805+0x420>
    c374:	b9 fa 00 00 00       	mov    $0xfa,%ecx
    c379:	48 89 c7             	mov    %rax,%rdi
    c37c:	48 89 d6             	mov    %rdx,%rsi
    c37f:	f3 48 a5             	rep movsq %ds:(%rsi),%es:(%rdi)
    c382:	48 8d 05 b7 26 01 00 	lea    0x126b7(%rip),%rax        # 1ea40 <g_537>
    c389:	48 89 85 b0 e9 ff ff 	mov    %rax,-0x1650(%rbp)
    c390:	48 c7 85 b8 e9 ff ff 	movq   $0x0,-0x1648(%rbp)
    c397:	00 00 00 00 
    c39b:	c6 85 22 e9 ff ff ff 	movb   $0xff,-0x16de(%rbp)
    c3a2:	66 c7 85 24 e9 ff ff 	movw   $0xffff,-0x16dc(%rbp)
    c3a9:	ff ff 
    c3ab:	48 8d 05 76 3d 01 00 	lea    0x13d76(%rip),%rax        # 20128 <g_159>
    c3b2:	48 89 85 90 ea ff ff 	mov    %rax,-0x1570(%rbp)
    c3b9:	48 8d 05 68 3d 01 00 	lea    0x13d68(%rip),%rax        # 20128 <g_159>
    c3c0:	48 89 85 98 ea ff ff 	mov    %rax,-0x1568(%rbp)
    c3c7:	48 8d 05 5a 3d 01 00 	lea    0x13d5a(%rip),%rax        # 20128 <g_159>
    c3ce:	48 89 85 a0 ea ff ff 	mov    %rax,-0x1560(%rbp)
    c3d5:	48 8d 05 4c 3d 01 00 	lea    0x13d4c(%rip),%rax        # 20128 <g_159>
    c3dc:	48 89 85 a8 ea ff ff 	mov    %rax,-0x1558(%rbp)
    c3e3:	48 8d 05 3e 3d 01 00 	lea    0x13d3e(%rip),%rax        # 20128 <g_159>
    c3ea:	48 89 85 b0 ea ff ff 	mov    %rax,-0x1550(%rbp)
    c3f1:	48 8d 05 30 3d 01 00 	lea    0x13d30(%rip),%rax        # 20128 <g_159>
    c3f8:	48 89 85 b8 ea ff ff 	mov    %rax,-0x1548(%rbp)
    c3ff:	c6 85 23 e9 ff ff ff 	movb   $0xff,-0x16dd(%rbp)
    c406:	48 8b 95 70 e9 ff ff 	mov    -0x1690(%rbp),%rdx
    c40d:	48 8b 85 98 e9 ff ff 	mov    -0x1668(%rbp),%rax
    c414:	48 89 10             	mov    %rdx,(%rax)
    c417:	8b 9d 1c e9 ff ff    	mov    -0x16e4(%rbp),%ebx
    c41d:	48 8b 05 6c 2e 01 00 	mov    0x12e6c(%rip),%rax        # 1f290 <g_732>
    c424:	48 8b 00             	mov    (%rax),%rax
    c427:	48 8b 00             	mov    (%rax),%rax
    c42a:	49 89 c4             	mov    %rax,%r12
    c42d:	8b 85 18 e9 ff ff    	mov    -0x16e8(%rbp),%eax
    c433:	0f be d0             	movsbl %al,%edx
    c436:	48 8b 0d 93 34 01 00 	mov    0x13493(%rip),%rcx        # 1f8d0 <g_1991>
    c43d:	48 8b 85 a0 e9 ff ff 	mov    -0x1660(%rbp),%rax
    c444:	48 89 08             	mov    %rcx,(%rax)
    c447:	48 8b 85 a0 e9 ff ff 	mov    -0x1660(%rbp),%rax
    c44e:	48 8b 00             	mov    (%rax),%rax
    c451:	48 8d 0d e8 33 01 00 	lea    0x133e8(%rip),%rcx        # 1f840 <g_1992+0x100>
    c458:	48 39 c8             	cmp    %rcx,%rax
    c45b:	0f 95 c0             	setne  %al
    c45e:	0f b6 c0             	movzbl %al,%eax
    c461:	89 d6                	mov    %edx,%esi
    c463:	89 c7                	mov    %eax,%edi
    c465:	e8 a8 cd ff ff       	callq  9212 <safe_mul_func_int8_t_s_s>
    c46a:	0f be 85 21 e9 ff ff 	movsbl -0x16df(%rbp),%eax
    c471:	39 85 1c e9 ff ff    	cmp    %eax,-0x16e4(%rbp)
    c477:	0f 95 c0             	setne  %al
    c47a:	0f b6 d0             	movzbl %al,%edx
    c47d:	8b 85 18 e9 ff ff    	mov    -0x16e8(%rbp),%eax
    c483:	89 d6                	mov    %edx,%esi
    c485:	89 c7                	mov    %eax,%edi
    c487:	e8 2a d1 ff ff       	callq  95b6 <safe_add_func_int32_t_s_s>
    c48c:	48 8b 05 3d 30 01 00 	mov    0x1303d(%rip),%rax        # 1f4d0 <g_1173>
    c493:	8b 95 18 e9 ff ff    	mov    -0x16e8(%rbp),%edx
    c499:	48 89 10             	mov    %rdx,(%rax)
    c49c:	48 8b 00             	mov    (%rax),%rax
    c49f:	4c 89 e6             	mov    %r12,%rsi
    c4a2:	48 89 c7             	mov    %rax,%rdi
    c4a5:	e8 d6 db ff ff       	callq  a080 <safe_mod_func_uint64_t_u_u>
    c4aa:	98                   	cwtl   
    c4ab:	89 de                	mov    %ebx,%esi
    c4ad:	89 c7                	mov    %eax,%edi
    c4af:	e8 2d d0 ff ff       	callq  94e1 <safe_lshift_func_int16_t_s_u>
    c4b4:	0f bf d0             	movswl %ax,%edx
    c4b7:	8b 05 f3 3c 01 00    	mov    0x13cf3(%rip),%eax        # 201b0 <g_1984>
    c4bd:	39 c2                	cmp    %eax,%edx
    c4bf:	0f 95 c0             	setne  %al
    c4c2:	0f b6 c0             	movzbl %al,%eax
    c4c5:	39 85 1c e9 ff ff    	cmp    %eax,-0x16e4(%rbp)
    c4cb:	0f 9e c0             	setle  %al
    c4ce:	0f b6 c0             	movzbl %al,%eax
    c4d1:	23 85 18 e9 ff ff    	and    -0x16e8(%rbp),%eax
    c4d7:	85 c0                	test   %eax,%eax
    c4d9:	0f 84 a4 01 00 00    	je     c683 <func_24+0x3e9>
    c4df:	c7 85 64 e9 ff ff f7 	movl   $0xfffffff7,-0x169c(%rbp)
    c4e6:	ff ff ff 
    c4e9:	48 c7 85 f8 e9 ff ff 	movq   $0xfffffffffffffff9,-0x1608(%rbp)
    c4f0:	f9 ff ff ff 
    c4f4:	c7 85 68 e9 ff ff 2d 	movl   $0x6d4e492d,-0x1698(%rbp)
    c4fb:	49 4e 6d 
    c4fe:	c7 85 f0 ea ff ff ff 	movl   $0xffffffff,-0x1510(%rbp)
    c505:	ff ff ff 
    c508:	c7 85 f4 ea ff ff fb 	movl   $0xfffffffb,-0x150c(%rbp)
    c50f:	ff ff ff 
    c512:	c7 85 f8 ea ff ff ff 	movl   $0xffffffff,-0x1508(%rbp)
    c519:	ff ff ff 
    c51c:	c7 85 fc ea ff ff fb 	movl   $0xfffffffb,-0x1504(%rbp)
    c523:	ff ff ff 
    c526:	c7 85 00 eb ff ff ff 	movl   $0xffffffff,-0x1500(%rbp)
    c52d:	ff ff ff 
    c530:	c7 85 04 eb ff ff fb 	movl   $0xfffffffb,-0x14fc(%rbp)
    c537:	ff ff ff 
    c53a:	c7 85 08 eb ff ff ff 	movl   $0xffffffff,-0x14f8(%rbp)
    c541:	ff ff ff 
    c544:	c7 85 0c eb ff ff fb 	movl   $0xfffffffb,-0x14f4(%rbp)
    c54b:	ff ff ff 
    c54e:	c7 85 10 eb ff ff ff 	movl   $0xffffffff,-0x14f0(%rbp)
    c555:	ff ff ff 
    c558:	c7 85 14 eb ff ff fb 	movl   $0xfffffffb,-0x14ec(%rbp)
    c55f:	ff ff ff 
    c562:	c7 85 18 eb ff ff ff 	movl   $0xffffffff,-0x14e8(%rbp)
    c569:	ff ff ff 
    c56c:	c7 85 1c eb ff ff fb 	movl   $0xfffffffb,-0x14e4(%rbp)
    c573:	ff ff ff 
    c576:	c7 85 20 eb ff ff ff 	movl   $0xffffffff,-0x14e0(%rbp)
    c57d:	ff ff ff 
    c580:	c7 85 24 eb ff ff fb 	movl   $0xfffffffb,-0x14dc(%rbp)
    c587:	ff ff ff 
    c58a:	c7 85 28 eb ff ff ff 	movl   $0xffffffff,-0x14d8(%rbp)
    c591:	ff ff ff 
    c594:	c7 85 2c eb ff ff fb 	movl   $0xfffffffb,-0x14d4(%rbp)
    c59b:	ff ff ff 
    c59e:	c7 85 30 eb ff ff ff 	movl   $0xffffffff,-0x14d0(%rbp)
    c5a5:	ff ff ff 
    c5a8:	c7 85 34 eb ff ff fb 	movl   $0xfffffffb,-0x14cc(%rbp)
    c5af:	ff ff ff 
    c5b2:	c7 85 38 eb ff ff ff 	movl   $0xffffffff,-0x14c8(%rbp)
    c5b9:	ff ff ff 
    c5bc:	c7 85 3c eb ff ff fb 	movl   $0xfffffffb,-0x14c4(%rbp)
    c5c3:	ff ff ff 
    c5c6:	c7 85 6c e9 ff ff f6 	movl   $0xfffffff6,-0x1694(%rbp)
    c5cd:	ff ff ff 
    c5d0:	c6 05 41 fc 00 00 00 	movb   $0x0,0xfc41(%rip)        # 1c218 <g_715>
    c5d7:	90                   	nop
    c5d8:	0f b6 05 39 fc 00 00 	movzbl 0xfc39(%rip),%eax        # 1c218 <g_715>
    c5df:	3c 01                	cmp    $0x1,%al
    c5e1:	0f 8f 82 0f 00 00    	jg     d569 <func_24+0x12cf>
    c5e7:	48 8d 05 b2 fa 00 00 	lea    0xfab2(%rip),%rax        # 1c0a0 <g_89>
    c5ee:	48 89 85 00 ea ff ff 	mov    %rax,-0x1600(%rbp)
    c5f5:	48 8d 05 a8 fa 00 00 	lea    0xfaa8(%rip),%rax        # 1c0a4 <g_99>
    c5fc:	48 89 85 08 ea ff ff 	mov    %rax,-0x15f8(%rbp)
    c603:	48 c7 85 10 ea ff ff 	movq   $0x0,-0x15f0(%rbp)
    c60a:	00 00 00 00 
    c60e:	48 8d 05 8b fa 00 00 	lea    0xfa8b(%rip),%rax        # 1c0a0 <g_89>
    c615:	48 89 85 18 ea ff ff 	mov    %rax,-0x15e8(%rbp)
    c61c:	48 8d 05 81 fa 00 00 	lea    0xfa81(%rip),%rax        # 1c0a4 <g_99>
    c623:	48 89 85 20 ea ff ff 	mov    %rax,-0x15e0(%rbp)
    c62a:	48 c7 85 28 ea ff ff 	movq   $0xfffffffffffffff7,-0x15d8(%rbp)
    c631:	f7 ff ff ff 
    c635:	66 c7 85 2a e9 ff ff 	movw   $0xc6f8,-0x16d6(%rbp)
    c63c:	f8 c6 
    c63e:	c7 85 30 e9 ff ff 00 	movl   $0x0,-0x16d0(%rbp)
    c645:	00 00 00 
    c648:	eb 1e                	jmp    c668 <func_24+0x3ce>
    c64a:	8b 85 30 e9 ff ff    	mov    -0x16d0(%rbp),%eax
    c650:	48 98                	cltq   
    c652:	48 8d 15 27 fb 00 00 	lea    0xfb27(%rip),%rdx        # 1c180 <g_238>
    c659:	48 89 94 c5 90 f0 ff 	mov    %rdx,-0xf70(%rbp,%rax,8)
    c660:	ff 
    c661:	83 85 30 e9 ff ff 01 	addl   $0x1,-0x16d0(%rbp)
    c668:	83 bd 30 e9 ff ff 09 	cmpl   $0x9,-0x16d0(%rbp)
    c66f:	7e d9                	jle    c64a <func_24+0x3b0>
    c671:	83 85 6c e9 ff ff 01 	addl   $0x1,-0x1694(%rbp)
    c678:	8b 85 18 e9 ff ff    	mov    -0x16e8(%rbp),%eax
    c67e:	e9 ed 0e 00 00       	jmpq   d570 <func_24+0x12d6>
    c683:	c7 85 44 e9 ff ff 71 	movl   $0xa9c49f71,-0x16bc(%rbp)
    c68a:	9f c4 a9 
    c68d:	48 8d 05 e9 fa 00 00 	lea    0xfae9(%rip),%rax        # 1c17d <g_233+0x5>
    c694:	48 89 85 c0 e9 ff ff 	mov    %rax,-0x1640(%rbp)
    c69b:	48 8d 05 9e 3a 01 00 	lea    0x13a9e(%rip),%rax        # 20140 <g_341>
    c6a2:	48 89 85 78 e9 ff ff 	mov    %rax,-0x1688(%rbp)
    c6a9:	48 8d 85 78 e9 ff ff 	lea    -0x1688(%rbp),%rax
    c6b0:	48 89 85 90 f0 ff ff 	mov    %rax,-0xf70(%rbp)
    c6b7:	48 c7 85 98 f0 ff ff 	movq   $0x0,-0xf68(%rbp)
    c6be:	00 00 00 00 
    c6c2:	48 8d 85 78 e9 ff ff 	lea    -0x1688(%rbp),%rax
    c6c9:	48 89 85 a0 f0 ff ff 	mov    %rax,-0xf60(%rbp)
    c6d0:	48 c7 85 a8 f0 ff ff 	movq   $0x0,-0xf58(%rbp)
    c6d7:	00 00 00 00 
    c6db:	48 8d 85 78 e9 ff ff 	lea    -0x1688(%rbp),%rax
    c6e2:	48 89 85 b0 f0 ff ff 	mov    %rax,-0xf50(%rbp)
    c6e9:	48 c7 85 b8 f0 ff ff 	movq   $0x0,-0xf48(%rbp)
    c6f0:	00 00 00 00 
    c6f4:	48 8d 85 78 e9 ff ff 	lea    -0x1688(%rbp),%rax
    c6fb:	48 89 85 c0 f0 ff ff 	mov    %rax,-0xf40(%rbp)
    c702:	48 8d 85 78 e9 ff ff 	lea    -0x1688(%rbp),%rax
    c709:	48 89 85 c8 f0 ff ff 	mov    %rax,-0xf38(%rbp)
    c710:	48 8d 85 78 e9 ff ff 	lea    -0x1688(%rbp),%rax
    c717:	48 89 85 d0 f0 ff ff 	mov    %rax,-0xf30(%rbp)
    c71e:	48 8d 85 78 e9 ff ff 	lea    -0x1688(%rbp),%rax
    c725:	48 89 85 d8 f0 ff ff 	mov    %rax,-0xf28(%rbp)
    c72c:	48 8d 85 78 e9 ff ff 	lea    -0x1688(%rbp),%rax
    c733:	48 89 85 e0 f0 ff ff 	mov    %rax,-0xf20(%rbp)
    c73a:	48 c7 85 e8 f0 ff ff 	movq   $0x0,-0xf18(%rbp)
    c741:	00 00 00 00 
    c745:	48 c7 85 f0 f0 ff ff 	movq   $0x0,-0xf10(%rbp)
    c74c:	00 00 00 00 
    c750:	48 8d 85 78 e9 ff ff 	lea    -0x1688(%rbp),%rax
    c757:	48 89 85 f8 f0 ff ff 	mov    %rax,-0xf08(%rbp)
    c75e:	48 8d 85 78 e9 ff ff 	lea    -0x1688(%rbp),%rax
    c765:	48 89 85 00 f1 ff ff 	mov    %rax,-0xf00(%rbp)
    c76c:	48 c7 85 08 f1 ff ff 	movq   $0x0,-0xef8(%rbp)
    c773:	00 00 00 00 
    c777:	48 8d 85 78 e9 ff ff 	lea    -0x1688(%rbp),%rax
    c77e:	48 89 85 10 f1 ff ff 	mov    %rax,-0xef0(%rbp)
    c785:	48 8d 85 78 e9 ff ff 	lea    -0x1688(%rbp),%rax
    c78c:	48 89 85 18 f1 ff ff 	mov    %rax,-0xee8(%rbp)
    c793:	48 8d 85 78 e9 ff ff 	lea    -0x1688(%rbp),%rax
    c79a:	48 89 85 20 f1 ff ff 	mov    %rax,-0xee0(%rbp)
    c7a1:	48 8d 85 78 e9 ff ff 	lea    -0x1688(%rbp),%rax
    c7a8:	48 89 85 28 f1 ff ff 	mov    %rax,-0xed8(%rbp)
    c7af:	48 8d 85 78 e9 ff ff 	lea    -0x1688(%rbp),%rax
    c7b6:	48 89 85 30 f1 ff ff 	mov    %rax,-0xed0(%rbp)
    c7bd:	48 8d 85 78 e9 ff ff 	lea    -0x1688(%rbp),%rax
    c7c4:	48 89 85 38 f1 ff ff 	mov    %rax,-0xec8(%rbp)
    c7cb:	48 8d 85 78 e9 ff ff 	lea    -0x1688(%rbp),%rax
    c7d2:	48 89 85 40 f1 ff ff 	mov    %rax,-0xec0(%rbp)
    c7d9:	48 8d 85 78 e9 ff ff 	lea    -0x1688(%rbp),%rax
    c7e0:	48 89 85 48 f1 ff ff 	mov    %rax,-0xeb8(%rbp)
    c7e7:	48 c7 85 50 f1 ff ff 	movq   $0x0,-0xeb0(%rbp)
    c7ee:	00 00 00 00 
    c7f2:	48 8d 85 78 e9 ff ff 	lea    -0x1688(%rbp),%rax
    c7f9:	48 89 85 58 f1 ff ff 	mov    %rax,-0xea8(%rbp)
    c800:	48 8d 85 78 e9 ff ff 	lea    -0x1688(%rbp),%rax
    c807:	48 89 85 60 f1 ff ff 	mov    %rax,-0xea0(%rbp)
    c80e:	48 8d 85 78 e9 ff ff 	lea    -0x1688(%rbp),%rax
    c815:	48 89 85 68 f1 ff ff 	mov    %rax,-0xe98(%rbp)
    c81c:	48 8d 85 78 e9 ff ff 	lea    -0x1688(%rbp),%rax
    c823:	48 89 85 70 f1 ff ff 	mov    %rax,-0xe90(%rbp)
    c82a:	48 8d 85 78 e9 ff ff 	lea    -0x1688(%rbp),%rax
    c831:	48 89 85 78 f1 ff ff 	mov    %rax,-0xe88(%rbp)
    c838:	48 8d 85 78 e9 ff ff 	lea    -0x1688(%rbp),%rax
    c83f:	48 89 85 80 f1 ff ff 	mov    %rax,-0xe80(%rbp)
    c846:	48 8d 85 78 e9 ff ff 	lea    -0x1688(%rbp),%rax
    c84d:	48 89 85 88 f1 ff ff 	mov    %rax,-0xe78(%rbp)
    c854:	48 8d 85 78 e9 ff ff 	lea    -0x1688(%rbp),%rax
    c85b:	48 89 85 90 f1 ff ff 	mov    %rax,-0xe70(%rbp)
    c862:	48 c7 85 98 f1 ff ff 	movq   $0x0,-0xe68(%rbp)
    c869:	00 00 00 00 
    c86d:	48 8d 85 78 e9 ff ff 	lea    -0x1688(%rbp),%rax
    c874:	48 89 85 a0 f1 ff ff 	mov    %rax,-0xe60(%rbp)
    c87b:	48 c7 85 a8 f1 ff ff 	movq   $0x0,-0xe58(%rbp)
    c882:	00 00 00 00 
    c886:	48 8d 85 78 e9 ff ff 	lea    -0x1688(%rbp),%rax
    c88d:	48 89 85 b0 f1 ff ff 	mov    %rax,-0xe50(%rbp)
    c894:	48 c7 85 b8 f1 ff ff 	movq   $0x0,-0xe48(%rbp)
    c89b:	00 00 00 00 
    c89f:	48 c7 85 c0 f1 ff ff 	movq   $0x0,-0xe40(%rbp)
    c8a6:	00 00 00 00 
    c8aa:	48 c7 85 c8 f1 ff ff 	movq   $0x0,-0xe38(%rbp)
    c8b1:	00 00 00 00 
    c8b5:	48 8d 85 78 e9 ff ff 	lea    -0x1688(%rbp),%rax
    c8bc:	48 89 85 d0 f1 ff ff 	mov    %rax,-0xe30(%rbp)
    c8c3:	48 8d 85 78 e9 ff ff 	lea    -0x1688(%rbp),%rax
    c8ca:	48 89 85 d8 f1 ff ff 	mov    %rax,-0xe28(%rbp)
    c8d1:	48 c7 85 e0 f1 ff ff 	movq   $0x0,-0xe20(%rbp)
    c8d8:	00 00 00 00 
    c8dc:	48 8d 85 78 e9 ff ff 	lea    -0x1688(%rbp),%rax
    c8e3:	48 89 85 e8 f1 ff ff 	mov    %rax,-0xe18(%rbp)
    c8ea:	48 8d 85 78 e9 ff ff 	lea    -0x1688(%rbp),%rax
    c8f1:	48 89 85 f0 f1 ff ff 	mov    %rax,-0xe10(%rbp)
    c8f8:	48 8d 85 78 e9 ff ff 	lea    -0x1688(%rbp),%rax
    c8ff:	48 89 85 f8 f1 ff ff 	mov    %rax,-0xe08(%rbp)
    c906:	48 c7 85 00 f2 ff ff 	movq   $0x0,-0xe00(%rbp)
    c90d:	00 00 00 00 
    c911:	48 8d 85 78 e9 ff ff 	lea    -0x1688(%rbp),%rax
    c918:	48 89 85 08 f2 ff ff 	mov    %rax,-0xdf8(%rbp)
    c91f:	48 c7 85 10 f2 ff ff 	movq   $0x0,-0xdf0(%rbp)
    c926:	00 00 00 00 
    c92a:	48 8d 85 78 e9 ff ff 	lea    -0x1688(%rbp),%rax
    c931:	48 89 85 18 f2 ff ff 	mov    %rax,-0xde8(%rbp)
    c938:	48 8d 85 78 e9 ff ff 	lea    -0x1688(%rbp),%rax
    c93f:	48 89 85 20 f2 ff ff 	mov    %rax,-0xde0(%rbp)
    c946:	48 8d 85 78 e9 ff ff 	lea    -0x1688(%rbp),%rax
    c94d:	48 89 85 28 f2 ff ff 	mov    %rax,-0xdd8(%rbp)
    c954:	48 8d 85 78 e9 ff ff 	lea    -0x1688(%rbp),%rax
    c95b:	48 89 85 30 f2 ff ff 	mov    %rax,-0xdd0(%rbp)
    c962:	48 8d 85 78 e9 ff ff 	lea    -0x1688(%rbp),%rax
    c969:	48 89 85 38 f2 ff ff 	mov    %rax,-0xdc8(%rbp)
    c970:	48 8d 85 78 e9 ff ff 	lea    -0x1688(%rbp),%rax
    c977:	48 89 85 40 f2 ff ff 	mov    %rax,-0xdc0(%rbp)
    c97e:	48 8d 85 78 e9 ff ff 	lea    -0x1688(%rbp),%rax
    c985:	48 89 85 48 f2 ff ff 	mov    %rax,-0xdb8(%rbp)
    c98c:	48 8d 85 78 e9 ff ff 	lea    -0x1688(%rbp),%rax
    c993:	48 89 85 50 f2 ff ff 	mov    %rax,-0xdb0(%rbp)
    c99a:	48 8d 85 78 e9 ff ff 	lea    -0x1688(%rbp),%rax
    c9a1:	48 89 85 58 f2 ff ff 	mov    %rax,-0xda8(%rbp)
    c9a8:	48 c7 85 60 f2 ff ff 	movq   $0x0,-0xda0(%rbp)
    c9af:	00 00 00 00 
    c9b3:	48 8d 85 78 e9 ff ff 	lea    -0x1688(%rbp),%rax
    c9ba:	48 89 85 68 f2 ff ff 	mov    %rax,-0xd98(%rbp)
    c9c1:	48 8d 85 78 e9 ff ff 	lea    -0x1688(%rbp),%rax
    c9c8:	48 89 85 70 f2 ff ff 	mov    %rax,-0xd90(%rbp)
    c9cf:	48 8d 85 78 e9 ff ff 	lea    -0x1688(%rbp),%rax
    c9d6:	48 89 85 78 f2 ff ff 	mov    %rax,-0xd88(%rbp)
    c9dd:	48 8d 85 78 e9 ff ff 	lea    -0x1688(%rbp),%rax
    c9e4:	48 89 85 80 f2 ff ff 	mov    %rax,-0xd80(%rbp)
    c9eb:	48 8d 85 78 e9 ff ff 	lea    -0x1688(%rbp),%rax
    c9f2:	48 89 85 88 f2 ff ff 	mov    %rax,-0xd78(%rbp)
    c9f9:	48 8d 85 78 e9 ff ff 	lea    -0x1688(%rbp),%rax
    ca00:	48 89 85 90 f2 ff ff 	mov    %rax,-0xd70(%rbp)
    ca07:	48 c7 85 98 f2 ff ff 	movq   $0x0,-0xd68(%rbp)
    ca0e:	00 00 00 00 
    ca12:	48 8d 85 78 e9 ff ff 	lea    -0x1688(%rbp),%rax
    ca19:	48 89 85 a0 f2 ff ff 	mov    %rax,-0xd60(%rbp)
    ca20:	48 8d 85 78 e9 ff ff 	lea    -0x1688(%rbp),%rax
    ca27:	48 89 85 a8 f2 ff ff 	mov    %rax,-0xd58(%rbp)
    ca2e:	48 8d 85 78 e9 ff ff 	lea    -0x1688(%rbp),%rax
    ca35:	48 89 85 b0 f2 ff ff 	mov    %rax,-0xd50(%rbp)
    ca3c:	48 8d 85 78 e9 ff ff 	lea    -0x1688(%rbp),%rax
    ca43:	48 89 85 b8 f2 ff ff 	mov    %rax,-0xd48(%rbp)
    ca4a:	48 8d 85 78 e9 ff ff 	lea    -0x1688(%rbp),%rax
    ca51:	48 89 85 c0 f2 ff ff 	mov    %rax,-0xd40(%rbp)
    ca58:	48 8d 85 78 e9 ff ff 	lea    -0x1688(%rbp),%rax
    ca5f:	48 89 85 c8 f2 ff ff 	mov    %rax,-0xd38(%rbp)
    ca66:	48 c7 85 d0 f2 ff ff 	movq   $0x0,-0xd30(%rbp)
    ca6d:	00 00 00 00 
    ca71:	48 8d 85 78 e9 ff ff 	lea    -0x1688(%rbp),%rax
    ca78:	48 89 85 d8 f2 ff ff 	mov    %rax,-0xd28(%rbp)
    ca7f:	48 8d 85 78 e9 ff ff 	lea    -0x1688(%rbp),%rax
    ca86:	48 89 85 e0 f2 ff ff 	mov    %rax,-0xd20(%rbp)
    ca8d:	48 8d 85 78 e9 ff ff 	lea    -0x1688(%rbp),%rax
    ca94:	48 89 85 e8 f2 ff ff 	mov    %rax,-0xd18(%rbp)
    ca9b:	48 c7 85 f0 f2 ff ff 	movq   $0x0,-0xd10(%rbp)
    caa2:	00 00 00 00 
    caa6:	48 8d 85 78 e9 ff ff 	lea    -0x1688(%rbp),%rax
    caad:	48 89 85 f8 f2 ff ff 	mov    %rax,-0xd08(%rbp)
    cab4:	48 8d 85 78 e9 ff ff 	lea    -0x1688(%rbp),%rax
    cabb:	48 89 85 00 f3 ff ff 	mov    %rax,-0xd00(%rbp)
    cac2:	48 8d 85 78 e9 ff ff 	lea    -0x1688(%rbp),%rax
    cac9:	48 89 85 08 f3 ff ff 	mov    %rax,-0xcf8(%rbp)
    cad0:	48 8d 85 78 e9 ff ff 	lea    -0x1688(%rbp),%rax
    cad7:	48 89 85 10 f3 ff ff 	mov    %rax,-0xcf0(%rbp)
    cade:	48 8d 85 78 e9 ff ff 	lea    -0x1688(%rbp),%rax
    cae5:	48 89 85 18 f3 ff ff 	mov    %rax,-0xce8(%rbp)
    caec:	48 8d 85 78 e9 ff ff 	lea    -0x1688(%rbp),%rax
    caf3:	48 89 85 20 f3 ff ff 	mov    %rax,-0xce0(%rbp)
    cafa:	48 8d 85 78 e9 ff ff 	lea    -0x1688(%rbp),%rax
    cb01:	48 89 85 28 f3 ff ff 	mov    %rax,-0xcd8(%rbp)
    cb08:	48 c7 85 30 f3 ff ff 	movq   $0x0,-0xcd0(%rbp)
    cb0f:	00 00 00 00 
    cb13:	48 c7 85 38 f3 ff ff 	movq   $0x0,-0xcc8(%rbp)
    cb1a:	00 00 00 00 
    cb1e:	48 8d 85 78 e9 ff ff 	lea    -0x1688(%rbp),%rax
    cb25:	48 89 85 40 f3 ff ff 	mov    %rax,-0xcc0(%rbp)
    cb2c:	48 8d 85 78 e9 ff ff 	lea    -0x1688(%rbp),%rax
    cb33:	48 89 85 48 f3 ff ff 	mov    %rax,-0xcb8(%rbp)
    cb3a:	48 c7 85 50 f3 ff ff 	movq   $0x0,-0xcb0(%rbp)
    cb41:	00 00 00 00 
    cb45:	48 8d 85 78 e9 ff ff 	lea    -0x1688(%rbp),%rax
    cb4c:	48 89 85 58 f3 ff ff 	mov    %rax,-0xca8(%rbp)
    cb53:	48 c7 85 60 f3 ff ff 	movq   $0x0,-0xca0(%rbp)
    cb5a:	00 00 00 00 
    cb5e:	48 8d 85 78 e9 ff ff 	lea    -0x1688(%rbp),%rax
    cb65:	48 89 85 68 f3 ff ff 	mov    %rax,-0xc98(%rbp)
    cb6c:	48 8d 85 78 e9 ff ff 	lea    -0x1688(%rbp),%rax
    cb73:	48 89 85 70 f3 ff ff 	mov    %rax,-0xc90(%rbp)
    cb7a:	48 8d 85 78 e9 ff ff 	lea    -0x1688(%rbp),%rax
    cb81:	48 89 85 78 f3 ff ff 	mov    %rax,-0xc88(%rbp)
    cb88:	48 8d 85 78 e9 ff ff 	lea    -0x1688(%rbp),%rax
    cb8f:	48 89 85 80 f3 ff ff 	mov    %rax,-0xc80(%rbp)
    cb96:	48 c7 85 88 f3 ff ff 	movq   $0x0,-0xc78(%rbp)
    cb9d:	00 00 00 00 
    cba1:	48 8d 85 78 e9 ff ff 	lea    -0x1688(%rbp),%rax
    cba8:	48 89 85 90 f3 ff ff 	mov    %rax,-0xc70(%rbp)
    cbaf:	48 8d 85 78 e9 ff ff 	lea    -0x1688(%rbp),%rax
    cbb6:	48 89 85 98 f3 ff ff 	mov    %rax,-0xc68(%rbp)
    cbbd:	48 8d 85 78 e9 ff ff 	lea    -0x1688(%rbp),%rax
    cbc4:	48 89 85 a0 f3 ff ff 	mov    %rax,-0xc60(%rbp)
    cbcb:	48 c7 85 a8 f3 ff ff 	movq   $0x0,-0xc58(%rbp)
    cbd2:	00 00 00 00 
    cbd6:	48 c7 85 b0 f3 ff ff 	movq   $0x0,-0xc50(%rbp)
    cbdd:	00 00 00 00 
    cbe1:	48 8d 85 78 e9 ff ff 	lea    -0x1688(%rbp),%rax
    cbe8:	48 89 85 b8 f3 ff ff 	mov    %rax,-0xc48(%rbp)
    cbef:	48 8d 85 78 e9 ff ff 	lea    -0x1688(%rbp),%rax
    cbf6:	48 89 85 c0 f3 ff ff 	mov    %rax,-0xc40(%rbp)
    cbfd:	48 8d 85 78 e9 ff ff 	lea    -0x1688(%rbp),%rax
    cc04:	48 89 85 c8 f3 ff ff 	mov    %rax,-0xc38(%rbp)
    cc0b:	48 8d 85 78 e9 ff ff 	lea    -0x1688(%rbp),%rax
    cc12:	48 89 85 d0 f3 ff ff 	mov    %rax,-0xc30(%rbp)
    cc19:	48 8d 85 78 e9 ff ff 	lea    -0x1688(%rbp),%rax
    cc20:	48 89 85 d8 f3 ff ff 	mov    %rax,-0xc28(%rbp)
    cc27:	48 8d 85 78 e9 ff ff 	lea    -0x1688(%rbp),%rax
    cc2e:	48 89 85 e0 f3 ff ff 	mov    %rax,-0xc20(%rbp)
    cc35:	48 8d 85 78 e9 ff ff 	lea    -0x1688(%rbp),%rax
    cc3c:	48 89 85 e8 f3 ff ff 	mov    %rax,-0xc18(%rbp)
    cc43:	48 8d 85 78 e9 ff ff 	lea    -0x1688(%rbp),%rax
    cc4a:	48 89 85 f0 f3 ff ff 	mov    %rax,-0xc10(%rbp)
    cc51:	48 8d 85 78 e9 ff ff 	lea    -0x1688(%rbp),%rax
    cc58:	48 89 85 f8 f3 ff ff 	mov    %rax,-0xc08(%rbp)
    cc5f:	48 8d 85 78 e9 ff ff 	lea    -0x1688(%rbp),%rax
    cc66:	48 89 85 00 f4 ff ff 	mov    %rax,-0xc00(%rbp)
    cc6d:	48 8d 85 78 e9 ff ff 	lea    -0x1688(%rbp),%rax
    cc74:	48 89 85 08 f4 ff ff 	mov    %rax,-0xbf8(%rbp)
    cc7b:	48 c7 85 10 f4 ff ff 	movq   $0x0,-0xbf0(%rbp)
    cc82:	00 00 00 00 
    cc86:	48 c7 85 18 f4 ff ff 	movq   $0x0,-0xbe8(%rbp)
    cc8d:	00 00 00 00 
    cc91:	48 8d 85 78 e9 ff ff 	lea    -0x1688(%rbp),%rax
    cc98:	48 89 85 20 f4 ff ff 	mov    %rax,-0xbe0(%rbp)
    cc9f:	48 8d 85 78 e9 ff ff 	lea    -0x1688(%rbp),%rax
    cca6:	48 89 85 28 f4 ff ff 	mov    %rax,-0xbd8(%rbp)
    ccad:	48 8d 85 78 e9 ff ff 	lea    -0x1688(%rbp),%rax
    ccb4:	48 89 85 30 f4 ff ff 	mov    %rax,-0xbd0(%rbp)
    ccbb:	48 8d 85 78 e9 ff ff 	lea    -0x1688(%rbp),%rax
    ccc2:	48 89 85 38 f4 ff ff 	mov    %rax,-0xbc8(%rbp)
    ccc9:	48 8d 85 78 e9 ff ff 	lea    -0x1688(%rbp),%rax
    ccd0:	48 89 85 40 f4 ff ff 	mov    %rax,-0xbc0(%rbp)
    ccd7:	48 c7 85 48 f4 ff ff 	movq   $0x0,-0xbb8(%rbp)
    ccde:	00 00 00 00 
    cce2:	48 8d 85 78 e9 ff ff 	lea    -0x1688(%rbp),%rax
    cce9:	48 89 85 50 f4 ff ff 	mov    %rax,-0xbb0(%rbp)
    ccf0:	48 8d 85 78 e9 ff ff 	lea    -0x1688(%rbp),%rax
    ccf7:	48 89 85 58 f4 ff ff 	mov    %rax,-0xba8(%rbp)
    ccfe:	48 8d 85 78 e9 ff ff 	lea    -0x1688(%rbp),%rax
    cd05:	48 89 85 60 f4 ff ff 	mov    %rax,-0xba0(%rbp)
    cd0c:	48 c7 85 68 f4 ff ff 	movq   $0x0,-0xb98(%rbp)
    cd13:	00 00 00 00 
    cd17:	48 8d 85 78 e9 ff ff 	lea    -0x1688(%rbp),%rax
    cd1e:	48 89 85 70 f4 ff ff 	mov    %rax,-0xb90(%rbp)
    cd25:	48 8d 85 78 e9 ff ff 	lea    -0x1688(%rbp),%rax
    cd2c:	48 89 85 78 f4 ff ff 	mov    %rax,-0xb88(%rbp)
    cd33:	48 c7 85 80 f4 ff ff 	movq   $0x0,-0xb80(%rbp)
    cd3a:	00 00 00 00 
    cd3e:	48 8d 85 78 e9 ff ff 	lea    -0x1688(%rbp),%rax
    cd45:	48 89 85 88 f4 ff ff 	mov    %rax,-0xb78(%rbp)
    cd4c:	48 c7 85 90 f4 ff ff 	movq   $0x0,-0xb70(%rbp)
    cd53:	00 00 00 00 
    cd57:	48 8d 85 78 e9 ff ff 	lea    -0x1688(%rbp),%rax
    cd5e:	48 89 85 98 f4 ff ff 	mov    %rax,-0xb68(%rbp)
    cd65:	48 8d 85 78 e9 ff ff 	lea    -0x1688(%rbp),%rax
    cd6c:	48 89 85 a0 f4 ff ff 	mov    %rax,-0xb60(%rbp)
    cd73:	48 c7 85 a8 f4 ff ff 	movq   $0x0,-0xb58(%rbp)
    cd7a:	00 00 00 00 
    cd7e:	48 8d 85 78 e9 ff ff 	lea    -0x1688(%rbp),%rax
    cd85:	48 89 85 b0 f4 ff ff 	mov    %rax,-0xb50(%rbp)
    cd8c:	48 8d 85 78 e9 ff ff 	lea    -0x1688(%rbp),%rax
    cd93:	48 89 85 b8 f4 ff ff 	mov    %rax,-0xb48(%rbp)
    cd9a:	48 8d 85 78 e9 ff ff 	lea    -0x1688(%rbp),%rax
    cda1:	48 89 85 c0 f4 ff ff 	mov    %rax,-0xb40(%rbp)
    cda8:	48 c7 85 c8 f4 ff ff 	movq   $0x0,-0xb38(%rbp)
    cdaf:	00 00 00 00 
    cdb3:	48 8d 85 78 e9 ff ff 	lea    -0x1688(%rbp),%rax
    cdba:	48 89 85 d0 f4 ff ff 	mov    %rax,-0xb30(%rbp)
    cdc1:	48 8d 85 78 e9 ff ff 	lea    -0x1688(%rbp),%rax
    cdc8:	48 89 85 d8 f4 ff ff 	mov    %rax,-0xb28(%rbp)
    cdcf:	48 8d 85 78 e9 ff ff 	lea    -0x1688(%rbp),%rax
    cdd6:	48 89 85 e0 f4 ff ff 	mov    %rax,-0xb20(%rbp)
    cddd:	48 8d 85 78 e9 ff ff 	lea    -0x1688(%rbp),%rax
    cde4:	48 89 85 e8 f4 ff ff 	mov    %rax,-0xb18(%rbp)
    cdeb:	48 c7 85 f0 f4 ff ff 	movq   $0x0,-0xb10(%rbp)
    cdf2:	00 00 00 00 
    cdf6:	48 8d 85 78 e9 ff ff 	lea    -0x1688(%rbp),%rax
    cdfd:	48 89 85 f8 f4 ff ff 	mov    %rax,-0xb08(%rbp)
    ce04:	48 8d 85 78 e9 ff ff 	lea    -0x1688(%rbp),%rax
    ce0b:	48 89 85 00 f5 ff ff 	mov    %rax,-0xb00(%rbp)
    ce12:	48 8d 85 78 e9 ff ff 	lea    -0x1688(%rbp),%rax
    ce19:	48 89 85 08 f5 ff ff 	mov    %rax,-0xaf8(%rbp)
    ce20:	48 8d 85 78 e9 ff ff 	lea    -0x1688(%rbp),%rax
    ce27:	48 89 85 10 f5 ff ff 	mov    %rax,-0xaf0(%rbp)
    ce2e:	48 8d 85 78 e9 ff ff 	lea    -0x1688(%rbp),%rax
    ce35:	48 89 85 18 f5 ff ff 	mov    %rax,-0xae8(%rbp)
    ce3c:	48 c7 85 20 f5 ff ff 	movq   $0x0,-0xae0(%rbp)
    ce43:	00 00 00 00 
    ce47:	48 8d 85 78 e9 ff ff 	lea    -0x1688(%rbp),%rax
    ce4e:	48 89 85 28 f5 ff ff 	mov    %rax,-0xad8(%rbp)
    ce55:	48 8d 85 78 e9 ff ff 	lea    -0x1688(%rbp),%rax
    ce5c:	48 89 85 30 f5 ff ff 	mov    %rax,-0xad0(%rbp)
    ce63:	48 8d 85 78 e9 ff ff 	lea    -0x1688(%rbp),%rax
    ce6a:	48 89 85 38 f5 ff ff 	mov    %rax,-0xac8(%rbp)
    ce71:	48 8d 85 78 e9 ff ff 	lea    -0x1688(%rbp),%rax
    ce78:	48 89 85 40 f5 ff ff 	mov    %rax,-0xac0(%rbp)
    ce7f:	48 8d 85 78 e9 ff ff 	lea    -0x1688(%rbp),%rax
    ce86:	48 89 85 48 f5 ff ff 	mov    %rax,-0xab8(%rbp)
    ce8d:	48 c7 85 50 f5 ff ff 	movq   $0x0,-0xab0(%rbp)
    ce94:	00 00 00 00 
    ce98:	48 8d 85 78 e9 ff ff 	lea    -0x1688(%rbp),%rax
    ce9f:	48 89 85 58 f5 ff ff 	mov    %rax,-0xaa8(%rbp)
    cea6:	48 8d 85 78 e9 ff ff 	lea    -0x1688(%rbp),%rax
    cead:	48 89 85 60 f5 ff ff 	mov    %rax,-0xaa0(%rbp)
    ceb4:	48 8d 85 78 e9 ff ff 	lea    -0x1688(%rbp),%rax
    cebb:	48 89 85 68 f5 ff ff 	mov    %rax,-0xa98(%rbp)
    cec2:	48 c7 85 70 f5 ff ff 	movq   $0x0,-0xa90(%rbp)
    cec9:	00 00 00 00 
    cecd:	48 8d 85 78 e9 ff ff 	lea    -0x1688(%rbp),%rax
    ced4:	48 89 85 78 f5 ff ff 	mov    %rax,-0xa88(%rbp)
    cedb:	48 8d 85 78 e9 ff ff 	lea    -0x1688(%rbp),%rax
    cee2:	48 89 85 80 f5 ff ff 	mov    %rax,-0xa80(%rbp)
    cee9:	48 c7 85 88 f5 ff ff 	movq   $0x0,-0xa78(%rbp)
    cef0:	00 00 00 00 
    cef4:	48 8d 85 78 e9 ff ff 	lea    -0x1688(%rbp),%rax
    cefb:	48 89 85 90 f5 ff ff 	mov    %rax,-0xa70(%rbp)
    cf02:	48 8d 85 78 e9 ff ff 	lea    -0x1688(%rbp),%rax
    cf09:	48 89 85 98 f5 ff ff 	mov    %rax,-0xa68(%rbp)
    cf10:	48 8d 85 78 e9 ff ff 	lea    -0x1688(%rbp),%rax
    cf17:	48 89 85 a0 f5 ff ff 	mov    %rax,-0xa60(%rbp)
    cf1e:	48 8d 85 78 e9 ff ff 	lea    -0x1688(%rbp),%rax
    cf25:	48 89 85 a8 f5 ff ff 	mov    %rax,-0xa58(%rbp)
    cf2c:	48 c7 85 b0 f5 ff ff 	movq   $0x0,-0xa50(%rbp)
    cf33:	00 00 00 00 
    cf37:	48 8d 85 78 e9 ff ff 	lea    -0x1688(%rbp),%rax
    cf3e:	48 89 85 b8 f5 ff ff 	mov    %rax,-0xa48(%rbp)
    cf45:	48 8d 85 78 e9 ff ff 	lea    -0x1688(%rbp),%rax
    cf4c:	48 89 85 c0 f5 ff ff 	mov    %rax,-0xa40(%rbp)
    cf53:	48 8d 85 78 e9 ff ff 	lea    -0x1688(%rbp),%rax
    cf5a:	48 89 85 c8 f5 ff ff 	mov    %rax,-0xa38(%rbp)
    cf61:	48 c7 85 d0 f5 ff ff 	movq   $0x0,-0xa30(%rbp)
    cf68:	00 00 00 00 
    cf6c:	48 8d 85 78 e9 ff ff 	lea    -0x1688(%rbp),%rax
    cf73:	48 89 85 d8 f5 ff ff 	mov    %rax,-0xa28(%rbp)
    cf7a:	48 8d 85 78 e9 ff ff 	lea    -0x1688(%rbp),%rax
    cf81:	48 89 85 e0 f5 ff ff 	mov    %rax,-0xa20(%rbp)
    cf88:	48 8d 85 78 e9 ff ff 	lea    -0x1688(%rbp),%rax
    cf8f:	48 89 85 e8 f5 ff ff 	mov    %rax,-0xa18(%rbp)
    cf96:	48 8d 85 78 e9 ff ff 	lea    -0x1688(%rbp),%rax
    cf9d:	48 89 85 f0 f5 ff ff 	mov    %rax,-0xa10(%rbp)
    cfa4:	48 c7 85 f8 f5 ff ff 	movq   $0x0,-0xa08(%rbp)
    cfab:	00 00 00 00 
    cfaf:	48 8d 85 78 e9 ff ff 	lea    -0x1688(%rbp),%rax
    cfb6:	48 89 85 00 f6 ff ff 	mov    %rax,-0xa00(%rbp)
    cfbd:	48 8d 85 78 e9 ff ff 	lea    -0x1688(%rbp),%rax
    cfc4:	48 89 85 08 f6 ff ff 	mov    %rax,-0x9f8(%rbp)
    cfcb:	48 8d 85 78 e9 ff ff 	lea    -0x1688(%rbp),%rax
    cfd2:	48 89 85 10 f6 ff ff 	mov    %rax,-0x9f0(%rbp)
    cfd9:	48 8d 85 78 e9 ff ff 	lea    -0x1688(%rbp),%rax
    cfe0:	48 89 85 18 f6 ff ff 	mov    %rax,-0x9e8(%rbp)
    cfe7:	48 8d 85 78 e9 ff ff 	lea    -0x1688(%rbp),%rax
    cfee:	48 89 85 20 f6 ff ff 	mov    %rax,-0x9e0(%rbp)
    cff5:	48 8d 85 78 e9 ff ff 	lea    -0x1688(%rbp),%rax
    cffc:	48 89 85 28 f6 ff ff 	mov    %rax,-0x9d8(%rbp)
    d003:	48 8d 85 78 e9 ff ff 	lea    -0x1688(%rbp),%rax
    d00a:	48 89 85 30 f6 ff ff 	mov    %rax,-0x9d0(%rbp)
    d011:	48 8d 85 78 e9 ff ff 	lea    -0x1688(%rbp),%rax
    d018:	48 89 85 38 f6 ff ff 	mov    %rax,-0x9c8(%rbp)
    d01f:	48 8d 85 78 e9 ff ff 	lea    -0x1688(%rbp),%rax
    d026:	48 89 85 40 f6 ff ff 	mov    %rax,-0x9c0(%rbp)
    d02d:	48 8d 85 78 e9 ff ff 	lea    -0x1688(%rbp),%rax
    d034:	48 89 85 48 f6 ff ff 	mov    %rax,-0x9b8(%rbp)
    d03b:	48 8d 85 78 e9 ff ff 	lea    -0x1688(%rbp),%rax
    d042:	48 89 85 50 f6 ff ff 	mov    %rax,-0x9b0(%rbp)
    d049:	48 c7 85 58 f6 ff ff 	movq   $0x0,-0x9a8(%rbp)
    d050:	00 00 00 00 
    d054:	48 8d 85 78 e9 ff ff 	lea    -0x1688(%rbp),%rax
    d05b:	48 89 85 60 f6 ff ff 	mov    %rax,-0x9a0(%rbp)
    d062:	48 c7 85 68 f6 ff ff 	movq   $0x0,-0x998(%rbp)
    d069:	00 00 00 00 
    d06d:	48 c7 85 70 f6 ff ff 	movq   $0x0,-0x990(%rbp)
    d074:	00 00 00 00 
    d078:	48 8d 85 78 e9 ff ff 	lea    -0x1688(%rbp),%rax
    d07f:	48 89 85 78 f6 ff ff 	mov    %rax,-0x988(%rbp)
    d086:	48 8d 85 78 e9 ff ff 	lea    -0x1688(%rbp),%rax
    d08d:	48 89 85 80 f6 ff ff 	mov    %rax,-0x980(%rbp)
    d094:	48 c7 85 88 f6 ff ff 	movq   $0x0,-0x978(%rbp)
    d09b:	00 00 00 00 
    d09f:	48 8d 85 78 e9 ff ff 	lea    -0x1688(%rbp),%rax
    d0a6:	48 89 85 90 f6 ff ff 	mov    %rax,-0x970(%rbp)
    d0ad:	48 8d 85 78 e9 ff ff 	lea    -0x1688(%rbp),%rax
    d0b4:	48 89 85 98 f6 ff ff 	mov    %rax,-0x968(%rbp)
    d0bb:	48 c7 85 a0 f6 ff ff 	movq   $0x0,-0x960(%rbp)
    d0c2:	00 00 00 00 
    d0c6:	48 8d 85 78 e9 ff ff 	lea    -0x1688(%rbp),%rax
    d0cd:	48 89 85 a8 f6 ff ff 	mov    %rax,-0x958(%rbp)
    d0d4:	48 8d 85 78 e9 ff ff 	lea    -0x1688(%rbp),%rax
    d0db:	48 89 85 b0 f6 ff ff 	mov    %rax,-0x950(%rbp)
    d0e2:	48 8d 85 78 e9 ff ff 	lea    -0x1688(%rbp),%rax
    d0e9:	48 89 85 b8 f6 ff ff 	mov    %rax,-0x948(%rbp)
    d0f0:	48 8d 85 78 e9 ff ff 	lea    -0x1688(%rbp),%rax
    d0f7:	48 89 85 c0 f6 ff ff 	mov    %rax,-0x940(%rbp)
    d0fe:	48 8d 85 78 e9 ff ff 	lea    -0x1688(%rbp),%rax
    d105:	48 89 85 c8 f6 ff ff 	mov    %rax,-0x938(%rbp)
    d10c:	48 8d 85 78 e9 ff ff 	lea    -0x1688(%rbp),%rax
    d113:	48 89 85 d0 f6 ff ff 	mov    %rax,-0x930(%rbp)
    d11a:	48 8d 85 78 e9 ff ff 	lea    -0x1688(%rbp),%rax
    d121:	48 89 85 d8 f6 ff ff 	mov    %rax,-0x928(%rbp)
    d128:	48 8d 85 78 e9 ff ff 	lea    -0x1688(%rbp),%rax
    d12f:	48 89 85 e0 f6 ff ff 	mov    %rax,-0x920(%rbp)
    d136:	48 8d 85 78 e9 ff ff 	lea    -0x1688(%rbp),%rax
    d13d:	48 89 85 e8 f6 ff ff 	mov    %rax,-0x918(%rbp)
    d144:	48 8d 85 78 e9 ff ff 	lea    -0x1688(%rbp),%rax
    d14b:	48 89 85 f0 f6 ff ff 	mov    %rax,-0x910(%rbp)
    d152:	48 c7 85 f8 f6 ff ff 	movq   $0x0,-0x908(%rbp)
    d159:	00 00 00 00 
    d15d:	48 8d 85 78 e9 ff ff 	lea    -0x1688(%rbp),%rax
    d164:	48 89 85 00 f7 ff ff 	mov    %rax,-0x900(%rbp)
    d16b:	48 c7 85 08 f7 ff ff 	movq   $0x0,-0x8f8(%rbp)
    d172:	00 00 00 00 
    d176:	48 c7 85 10 f7 ff ff 	movq   $0x0,-0x8f0(%rbp)
    d17d:	00 00 00 00 
    d181:	48 8d 85 78 e9 ff ff 	lea    -0x1688(%rbp),%rax
    d188:	48 89 85 18 f7 ff ff 	mov    %rax,-0x8e8(%rbp)
    d18f:	48 8d 85 78 e9 ff ff 	lea    -0x1688(%rbp),%rax
    d196:	48 89 85 20 f7 ff ff 	mov    %rax,-0x8e0(%rbp)
    d19d:	48 8d 85 78 e9 ff ff 	lea    -0x1688(%rbp),%rax
    d1a4:	48 89 85 28 f7 ff ff 	mov    %rax,-0x8d8(%rbp)
    d1ab:	48 8d 85 78 e9 ff ff 	lea    -0x1688(%rbp),%rax
    d1b2:	48 89 85 30 f7 ff ff 	mov    %rax,-0x8d0(%rbp)
    d1b9:	48 8d 85 78 e9 ff ff 	lea    -0x1688(%rbp),%rax
    d1c0:	48 89 85 38 f7 ff ff 	mov    %rax,-0x8c8(%rbp)
    d1c7:	48 8d 85 78 e9 ff ff 	lea    -0x1688(%rbp),%rax
    d1ce:	48 89 85 40 f7 ff ff 	mov    %rax,-0x8c0(%rbp)
    d1d5:	48 8d 85 78 e9 ff ff 	lea    -0x1688(%rbp),%rax
    d1dc:	48 89 85 48 f7 ff ff 	mov    %rax,-0x8b8(%rbp)
    d1e3:	48 8d 85 78 e9 ff ff 	lea    -0x1688(%rbp),%rax
    d1ea:	48 89 85 50 f7 ff ff 	mov    %rax,-0x8b0(%rbp)
    d1f1:	48 8d 85 78 e9 ff ff 	lea    -0x1688(%rbp),%rax
    d1f8:	48 89 85 58 f7 ff ff 	mov    %rax,-0x8a8(%rbp)
    d1ff:	48 8d 85 78 e9 ff ff 	lea    -0x1688(%rbp),%rax
    d206:	48 89 85 60 f7 ff ff 	mov    %rax,-0x8a0(%rbp)
    d20d:	48 8d 85 78 e9 ff ff 	lea    -0x1688(%rbp),%rax
    d214:	48 89 85 68 f7 ff ff 	mov    %rax,-0x898(%rbp)
    d21b:	48 8d 85 78 e9 ff ff 	lea    -0x1688(%rbp),%rax
    d222:	48 89 85 70 f7 ff ff 	mov    %rax,-0x890(%rbp)
    d229:	48 8d 85 78 e9 ff ff 	lea    -0x1688(%rbp),%rax
    d230:	48 89 85 78 f7 ff ff 	mov    %rax,-0x888(%rbp)
    d237:	48 8d 85 78 e9 ff ff 	lea    -0x1688(%rbp),%rax
    d23e:	48 89 85 80 f7 ff ff 	mov    %rax,-0x880(%rbp)
    d245:	48 8d 85 78 e9 ff ff 	lea    -0x1688(%rbp),%rax
    d24c:	48 89 85 88 f7 ff ff 	mov    %rax,-0x878(%rbp)
    d253:	48 8d 85 78 e9 ff ff 	lea    -0x1688(%rbp),%rax
    d25a:	48 89 85 90 f7 ff ff 	mov    %rax,-0x870(%rbp)
    d261:	48 c7 85 98 f7 ff ff 	movq   $0x0,-0x868(%rbp)
    d268:	00 00 00 00 
    d26c:	48 8d 85 78 e9 ff ff 	lea    -0x1688(%rbp),%rax
    d273:	48 89 85 a0 f7 ff ff 	mov    %rax,-0x860(%rbp)
    d27a:	48 8d 85 78 e9 ff ff 	lea    -0x1688(%rbp),%rax
    d281:	48 89 85 a8 f7 ff ff 	mov    %rax,-0x858(%rbp)
    d288:	48 8d 85 78 e9 ff ff 	lea    -0x1688(%rbp),%rax
    d28f:	48 89 85 b0 f7 ff ff 	mov    %rax,-0x850(%rbp)
    d296:	48 8d 85 78 e9 ff ff 	lea    -0x1688(%rbp),%rax
    d29d:	48 89 85 b8 f7 ff ff 	mov    %rax,-0x848(%rbp)
    d2a4:	48 8d 85 78 e9 ff ff 	lea    -0x1688(%rbp),%rax
    d2ab:	48 89 85 c0 f7 ff ff 	mov    %rax,-0x840(%rbp)
    d2b2:	48 8d 85 78 e9 ff ff 	lea    -0x1688(%rbp),%rax
    d2b9:	48 89 85 c8 f7 ff ff 	mov    %rax,-0x838(%rbp)
    d2c0:	48 c7 85 d0 f7 ff ff 	movq   $0x0,-0x830(%rbp)
    d2c7:	00 00 00 00 
    d2cb:	48 8d 85 78 e9 ff ff 	lea    -0x1688(%rbp),%rax
    d2d2:	48 89 85 d8 f7 ff ff 	mov    %rax,-0x828(%rbp)
    d2d9:	48 8d 85 78 e9 ff ff 	lea    -0x1688(%rbp),%rax
    d2e0:	48 89 85 e0 f7 ff ff 	mov    %rax,-0x820(%rbp)
    d2e7:	48 8d 85 78 e9 ff ff 	lea    -0x1688(%rbp),%rax
    d2ee:	48 89 85 e8 f7 ff ff 	mov    %rax,-0x818(%rbp)
    d2f5:	48 8d 85 78 e9 ff ff 	lea    -0x1688(%rbp),%rax
    d2fc:	48 89 85 f0 f7 ff ff 	mov    %rax,-0x810(%rbp)
    d303:	48 8d 85 78 e9 ff ff 	lea    -0x1688(%rbp),%rax
    d30a:	48 89 85 f8 f7 ff ff 	mov    %rax,-0x808(%rbp)
    d311:	48 8d 85 78 e9 ff ff 	lea    -0x1688(%rbp),%rax
    d318:	48 89 85 00 f8 ff ff 	mov    %rax,-0x800(%rbp)
    d31f:	48 8d 85 78 e9 ff ff 	lea    -0x1688(%rbp),%rax
    d326:	48 89 85 08 f8 ff ff 	mov    %rax,-0x7f8(%rbp)
    d32d:	8b 85 30 ea ff ff    	mov    -0x15d0(%rbp),%eax
    d333:	25 00 00 f0 ff       	and    $0xfff00000,%eax
    d338:	0d e1 02 00 00       	or     $0x2e1,%eax
    d33d:	89 85 30 ea ff ff    	mov    %eax,-0x15d0(%rbp)
    d343:	8b 85 34 ea ff ff    	mov    -0x15cc(%rbp),%eax
    d349:	25 00 00 00 fe       	and    $0xfe000000,%eax
    d34e:	0d 2a 11 00 00       	or     $0x112a,%eax
    d353:	89 85 34 ea ff ff    	mov    %eax,-0x15cc(%rbp)
    d359:	8b 85 38 ea ff ff    	mov    -0x15c8(%rbp),%eax
    d35f:	25 00 00 80 ff       	and    $0xff800000,%eax
    d364:	0d 9d 08 00 00       	or     $0x89d,%eax
    d369:	89 85 38 ea ff ff    	mov    %eax,-0x15c8(%rbp)
    d36f:	0f b7 85 3a ea ff ff 	movzwl -0x15c6(%rbp),%eax
    d376:	66 25 7f c0          	and    $0xc07f,%ax
    d37a:	66 89 85 3a ea ff ff 	mov    %ax,-0x15c6(%rbp)
    d381:	8b 85 3c ea ff ff    	mov    -0x15c4(%rbp),%eax
    d387:	25 00 00 00 fc       	and    $0xfc000000,%eax
    d38c:	0d 2a e9 ff 03       	or     $0x3ffe92a,%eax
    d391:	89 85 3c ea ff ff    	mov    %eax,-0x15c4(%rbp)
    d397:	0f b7 85 40 ea ff ff 	movzwl -0x15c0(%rbp),%eax
    d39e:	66 25 00 fe          	and    $0xfe00,%ax
    d3a2:	66 0d f8 01          	or     $0x1f8,%ax
    d3a6:	66 89 85 40 ea ff ff 	mov    %ax,-0x15c0(%rbp)
    d3ad:	0f b6 85 41 ea ff ff 	movzbl -0x15bf(%rbp),%eax
    d3b4:	83 e0 f1             	and    $0xfffffff1,%eax
    d3b7:	83 c8 02             	or     $0x2,%eax
    d3ba:	88 85 41 ea ff ff    	mov    %al,-0x15bf(%rbp)
    d3c0:	48 c7 85 c8 e9 ff ff 	movq   $0x0,-0x1638(%rbp)
    d3c7:	00 00 00 00 
    d3cb:	48 8d 85 f0 ea ff ff 	lea    -0x1510(%rbp),%rax
    d3d2:	48 8d 15 27 a2 00 00 	lea    0xa227(%rip),%rdx        # 17600 <g_2409+0x590>
    d3d9:	b9 b4 00 00 00       	mov    $0xb4,%ecx
    d3de:	48 89 c7             	mov    %rax,%rdi
    d3e1:	48 89 d6             	mov    %rdx,%rsi
    d3e4:	f3 48 a5             	rep movsq %ds:(%rsi),%es:(%rdi)
    d3e7:	c7 85 48 e9 ff ff 01 	movl   $0x1,-0x16b8(%rbp)
    d3ee:	00 00 00 
    d3f1:	c7 85 4c e9 ff ff f7 	movl   $0xfffffff7,-0x16b4(%rbp)
    d3f8:	ff ff ff 
    d3fb:	c7 85 70 ea ff ff 01 	movl   $0x1,-0x1590(%rbp)
    d402:	00 00 00 
    d405:	c7 85 74 ea ff ff 01 	movl   $0x1,-0x158c(%rbp)
    d40c:	00 00 00 
    d40f:	c7 85 78 ea ff ff 01 	movl   $0x1,-0x1588(%rbp)
    d416:	00 00 00 
    d419:	c7 85 7c ea ff ff 01 	movl   $0x1,-0x1584(%rbp)
    d420:	00 00 00 
    d423:	c7 85 80 ea ff ff 01 	movl   $0x1,-0x1580(%rbp)
    d42a:	00 00 00 
    d42d:	c7 85 50 e9 ff ff e1 	movl   $0x221593e1,-0x16b0(%rbp)
    d434:	93 15 22 
    d437:	c7 85 54 e9 ff ff 6a 	movl   $0x4599546a,-0x16ac(%rbp)
    d43e:	54 99 45 
    d441:	48 8d 05 f8 2c 01 00 	lea    0x12cf8(%rip),%rax        # 20140 <g_341>
    d448:	48 89 85 c0 ea ff ff 	mov    %rax,-0x1540(%rbp)
    d44f:	48 8d 05 ea 2c 01 00 	lea    0x12cea(%rip),%rax        # 20140 <g_341>
    d456:	48 89 85 c8 ea ff ff 	mov    %rax,-0x1538(%rbp)
    d45d:	48 8d 05 dc 2c 01 00 	lea    0x12cdc(%rip),%rax        # 20140 <g_341>
    d464:	48 89 85 d0 ea ff ff 	mov    %rax,-0x1530(%rbp)
    d46b:	48 8d 05 ce 2c 01 00 	lea    0x12cce(%rip),%rax        # 20140 <g_341>
    d472:	48 89 85 d8 ea ff ff 	mov    %rax,-0x1528(%rbp)
    d479:	48 8d 05 c0 2c 01 00 	lea    0x12cc0(%rip),%rax        # 20140 <g_341>
    d480:	48 89 85 e0 ea ff ff 	mov    %rax,-0x1520(%rbp)
    d487:	48 8d 05 b2 2c 01 00 	lea    0x12cb2(%rip),%rax        # 20140 <g_341>
    d48e:	48 89 85 e8 ea ff ff 	mov    %rax,-0x1518(%rbp)
    d495:	48 8d 85 c0 ea ff ff 	lea    -0x1540(%rbp),%rax
    d49c:	48 83 c0 18          	add    $0x18,%rax
    d4a0:	48 89 85 d0 e9 ff ff 	mov    %rax,-0x1630(%rbp)
    d4a7:	66 c7 85 26 e9 ff ff 	movw   $0xffff,-0x16da(%rbp)
    d4ae:	ff ff 
    d4b0:	66 c7 85 28 e9 ff ff 	movw   $0x0,-0x16d8(%rbp)
    d4b7:	00 00 
    d4b9:	48 8d 05 40 11 01 00 	lea    0x11140(%rip),%rax        # 1e600 <g_261>
    d4c0:	48 89 85 d8 e9 ff ff 	mov    %rax,-0x1628(%rbp)
    d4c7:	c7 85 58 e9 ff ff 00 	movl   $0x0,-0x16a8(%rbp)
    d4ce:	00 00 00 
    d4d1:	48 8d 05 98 9b 00 00 	lea    0x9b98(%rip),%rax        # 17070 <g_2409>
    d4d8:	48 89 85 80 e9 ff ff 	mov    %rax,-0x1680(%rbp)
    d4df:	48 8d 85 80 e9 ff ff 	lea    -0x1680(%rbp),%rax
    d4e6:	48 89 85 88 e9 ff ff 	mov    %rax,-0x1678(%rbp)
    d4ed:	48 8d 85 88 e9 ff ff 	lea    -0x1678(%rbp),%rax
    d4f4:	48 89 85 90 e9 ff ff 	mov    %rax,-0x1670(%rbp)
    d4fb:	48 8d 85 90 e9 ff ff 	lea    -0x1670(%rbp),%rax
    d502:	48 89 85 e0 e9 ff ff 	mov    %rax,-0x1620(%rbp)
    d509:	48 8d 05 18 2c 01 00 	lea    0x12c18(%rip),%rax        # 20128 <g_159>
    d510:	48 89 85 e8 e9 ff ff 	mov    %rax,-0x1618(%rbp)
    d517:	c7 85 5c e9 ff ff fa 	movl   $0xfffffffa,-0x16a4(%rbp)
    d51e:	ff ff ff 
    d521:	c7 85 60 e9 ff ff 12 	movl   $0x1249112,-0x16a0(%rbp)
    d528:	91 24 01 
    d52b:	48 8d 85 2c e9 ff ff 	lea    -0x16d4(%rbp),%rax
    d532:	48 89 85 f0 e9 ff ff 	mov    %rax,-0x1610(%rbp)
    d539:	c7 85 34 e9 ff ff 00 	movl   $0x0,-0x16cc(%rbp)
    d540:	00 00 00 
    d543:	eb 1b                	jmp    d560 <func_24+0x12c6>
    d545:	8b 85 34 e9 ff ff    	mov    -0x16cc(%rbp),%eax
    d54b:	48 98                	cltq   
    d54d:	48 c7 84 c5 48 ea ff 	movq   $0x0,-0x15b8(%rbp,%rax,8)
    d554:	ff 00 00 00 00 
    d559:	83 85 34 e9 ff ff 01 	addl   $0x1,-0x16cc(%rbp)
    d560:	83 bd 34 e9 ff ff 00 	cmpl   $0x0,-0x16cc(%rbp)
    d567:	7e dc                	jle    d545 <func_24+0x12ab>
    d569:	0f be 85 23 e9 ff ff 	movsbl -0x16dd(%rbp),%eax
    d570:	48 8b 5d e8          	mov    -0x18(%rbp),%rbx
    d574:	64 48 33 1c 25 28 00 	xor    %fs:0x28,%rbx
    d57b:	00 00 
    d57d:	74 05                	je     d584 <func_24+0x12ea>
    d57f:	e8 ec ba ff ff       	callq  9070 <__stack_chk_fail@plt>
    d584:	48 81 c4 e0 16 00 00 	add    $0x16e0,%rsp
    d58b:	5b                   	pop    %rbx
    d58c:	41 5c                	pop    %r12
    d58e:	5d                   	pop    %rbp
    d58f:	c3                   	retq   

000000000000d590 <func_27>:
    d590:	f3 0f 1e fa          	endbr64 
    d594:	55                   	push   %rbp
    d595:	48 89 e5             	mov    %rsp,%rbp
    d598:	41 57                	push   %r15
    d59a:	41 56                	push   %r14
    d59c:	41 55                	push   %r13
    d59e:	41 54                	push   %r12
    d5a0:	53                   	push   %rbx
    d5a1:	48 81 ec 38 01 00 00 	sub    $0x138,%rsp
    d5a8:	89 bd dc fe ff ff    	mov    %edi,-0x124(%rbp)
    d5ae:	64 48 8b 04 25 28 00 	mov    %fs:0x28,%rax
    d5b5:	00 00 
    d5b7:	48 89 45 c8          	mov    %rax,-0x38(%rbp)
    d5bb:	31 c0                	xor    %eax,%eax
    d5bd:	48 8d 05 c4 ea 00 00 	lea    0xeac4(%rip),%rax        # 1c088 <g_52>
    d5c4:	48 89 85 60 ff ff ff 	mov    %rax,-0xa0(%rbp)
    d5cb:	48 8d 05 b6 ea 00 00 	lea    0xeab6(%rip),%rax        # 1c088 <g_52>
    d5d2:	48 89 85 68 ff ff ff 	mov    %rax,-0x98(%rbp)
    d5d9:	48 8d 05 a8 ea 00 00 	lea    0xeaa8(%rip),%rax        # 1c088 <g_52>
    d5e0:	48 89 85 70 ff ff ff 	mov    %rax,-0x90(%rbp)
    d5e7:	48 8d 05 9a ea 00 00 	lea    0xea9a(%rip),%rax        # 1c088 <g_52>
    d5ee:	48 89 85 78 ff ff ff 	mov    %rax,-0x88(%rbp)
    d5f5:	48 8d 05 8c ea 00 00 	lea    0xea8c(%rip),%rax        # 1c088 <g_52>
    d5fc:	48 89 45 80          	mov    %rax,-0x80(%rbp)
    d600:	48 8d 05 81 ea 00 00 	lea    0xea81(%rip),%rax        # 1c088 <g_52>
    d607:	48 89 45 88          	mov    %rax,-0x78(%rbp)
    d60b:	48 8d 05 76 ea 00 00 	lea    0xea76(%rip),%rax        # 1c088 <g_52>
    d612:	48 89 45 90          	mov    %rax,-0x70(%rbp)
    d616:	48 8d 05 6b ea 00 00 	lea    0xea6b(%rip),%rax        # 1c088 <g_52>
    d61d:	48 89 45 98          	mov    %rax,-0x68(%rbp)
    d621:	48 8d 05 60 ea 00 00 	lea    0xea60(%rip),%rax        # 1c088 <g_52>
    d628:	48 89 45 a0          	mov    %rax,-0x60(%rbp)
    d62c:	48 8d 05 55 ea 00 00 	lea    0xea55(%rip),%rax        # 1c088 <g_52>
    d633:	48 89 45 a8          	mov    %rax,-0x58(%rbp)
    d637:	48 8d 05 4a ea 00 00 	lea    0xea4a(%rip),%rax        # 1c088 <g_52>
    d63e:	48 89 45 b0          	mov    %rax,-0x50(%rbp)
    d642:	48 8d 05 3f ea 00 00 	lea    0xea3f(%rip),%rax        # 1c088 <g_52>
    d649:	48 89 45 b8          	mov    %rax,-0x48(%rbp)
    d64d:	66 c7 85 52 ff ff ff 	movw   $0x5cf6,-0xae(%rbp)
    d654:	f6 5c 
    d656:	66 c7 85 54 ff ff ff 	movw   $0x270,-0xac(%rbp)
    d65d:	70 02 
    d65f:	66 c7 85 56 ff ff ff 	movw   $0x270,-0xaa(%rbp)
    d666:	70 02 
    d668:	66 c7 85 58 ff ff ff 	movw   $0x5cf6,-0xa8(%rbp)
    d66f:	f6 5c 
    d671:	66 c7 85 5a ff ff ff 	movw   $0x270,-0xa6(%rbp)
    d678:	70 02 
    d67a:	66 c7 85 5c ff ff ff 	movw   $0x270,-0xa4(%rbp)
    d681:	70 02 
    d683:	66 c7 85 5e ff ff ff 	movw   $0x5cf6,-0xa2(%rbp)
    d68a:	f6 5c 
    d68c:	c7 85 f0 fe ff ff c2 	movl   $0x4792d8c2,-0x110(%rbp)
    d693:	d8 92 47 
    d696:	48 8d 05 f3 e9 00 00 	lea    0xe9f3(%rip),%rax        # 1c090 <g_78>
    d69d:	48 89 85 00 ff ff ff 	mov    %rax,-0x100(%rbp)
    d6a4:	8b 85 30 ff ff ff    	mov    -0xd0(%rbp),%eax
    d6aa:	25 00 00 f0 ff       	and    $0xfff00000,%eax
    d6af:	83 c8 1a             	or     $0x1a,%eax
    d6b2:	89 85 30 ff ff ff    	mov    %eax,-0xd0(%rbp)
    d6b8:	8b 85 34 ff ff ff    	mov    -0xcc(%rbp),%eax
    d6be:	25 00 00 00 fe       	and    $0xfe000000,%eax
    d6c3:	0d 3b 08 00 00       	or     $0x83b,%eax
    d6c8:	89 85 34 ff ff ff    	mov    %eax,-0xcc(%rbp)
    d6ce:	8b 85 38 ff ff ff    	mov    -0xc8(%rbp),%eax
    d6d4:	25 00 00 80 ff       	and    $0xff800000,%eax
    d6d9:	0d 8e 03 00 00       	or     $0x38e,%eax
    d6de:	89 85 38 ff ff ff    	mov    %eax,-0xc8(%rbp)
    d6e4:	0f b7 85 3a ff ff ff 	movzwl -0xc6(%rbp),%eax
    d6eb:	66 25 7f c0          	and    $0xc07f,%ax
    d6ef:	66 0d 80 02          	or     $0x280,%ax
    d6f3:	66 89 85 3a ff ff ff 	mov    %ax,-0xc6(%rbp)
    d6fa:	8b 85 3c ff ff ff    	mov    -0xc4(%rbp),%eax
    d700:	25 00 00 00 fc       	and    $0xfc000000,%eax
    d705:	0d 55 e2 ff 03       	or     $0x3ffe255,%eax
    d70a:	89 85 3c ff ff ff    	mov    %eax,-0xc4(%rbp)
    d710:	0f b7 85 40 ff ff ff 	movzwl -0xc0(%rbp),%eax
    d717:	66 25 00 fe          	and    $0xfe00,%ax
    d71b:	66 0d f2 01          	or     $0x1f2,%ax
    d71f:	66 89 85 40 ff ff ff 	mov    %ax,-0xc0(%rbp)
    d726:	0f b6 85 41 ff ff ff 	movzbl -0xbf(%rbp),%eax
    d72d:	83 e0 f1             	and    $0xfffffff1,%eax
    d730:	83 c8 02             	or     $0x2,%eax
    d733:	88 85 41 ff ff ff    	mov    %al,-0xbf(%rbp)
    d739:	48 c7 85 08 ff ff ff 	movq   $0x1,-0xf8(%rbp)
    d740:	01 00 00 00 
    d744:	48 8d 05 59 e9 00 00 	lea    0xe959(%rip),%rax        # 1c0a4 <g_99>
    d74b:	48 89 85 10 ff ff ff 	mov    %rax,-0xf0(%rbp)
    d752:	48 8d 05 27 ea 00 00 	lea    0xea27(%rip),%rax        # 1c180 <g_238>
    d759:	48 89 85 18 ff ff ff 	mov    %rax,-0xe8(%rbp)
    d760:	c7 85 f4 fe ff ff f4 	movl   $0xca7abf4,-0x10c(%rbp)
    d767:	ab a7 0c 
    d76a:	c7 85 f8 fe ff ff 66 	movl   $0x4f3f3b66,-0x108(%rbp)
    d771:	3b 3f 4f 
    d774:	48 c7 85 20 ff ff ff 	movq   $0xffffffffffffffff,-0xe0(%rbp)
    d77b:	ff ff ff ff 
    d77f:	c6 85 ef fe ff ff 08 	movb   $0x8,-0x111(%rbp)
    d786:	8b 85 dc fe ff ff    	mov    -0x124(%rbp),%eax
    d78c:	0f b7 c0             	movzwl %ax,%eax
    d78f:	89 85 d8 fe ff ff    	mov    %eax,-0x128(%rbp)
    d795:	8b 85 dc fe ff ff    	mov    -0x124(%rbp),%eax
    d79b:	48 89 85 d0 fe ff ff 	mov    %rax,-0x130(%rbp)
    d7a2:	8b 85 f0 fe ff ff    	mov    -0x110(%rbp),%eax
    d7a8:	48 98                	cltq   
    d7aa:	48 89 85 c8 fe ff ff 	mov    %rax,-0x138(%rbp)
    d7b1:	8b 85 3c ff ff ff    	mov    -0xc4(%rbp),%eax
    d7b7:	c1 e0 06             	shl    $0x6,%eax
    d7ba:	c1 f8 06             	sar    $0x6,%eax
    d7bd:	89 85 c4 fe ff ff    	mov    %eax,-0x13c(%rbp)
    d7c3:	8b 85 38 ff ff ff    	mov    -0xc8(%rbp),%eax
    d7c9:	25 ff ff 7f 00       	and    $0x7fffff,%eax
    d7ce:	0f be c0             	movsbl %al,%eax
    d7d1:	89 85 c0 fe ff ff    	mov    %eax,-0x140(%rbp)
    d7d7:	0f b7 85 5c ff ff ff 	movzwl -0xa4(%rbp),%eax
    d7de:	0f b7 c0             	movzwl %ax,%eax
    d7e1:	89 85 bc fe ff ff    	mov    %eax,-0x144(%rbp)
    d7e7:	8b 85 dc fe ff ff    	mov    -0x124(%rbp),%eax
    d7ed:	48 89 85 b0 fe ff ff 	mov    %rax,-0x150(%rbp)
    d7f4:	8b 85 dc fe ff ff    	mov    -0x124(%rbp),%eax
    d7fa:	0f b6 c0             	movzbl %al,%eax
    d7fd:	89 85 b8 fe ff ff    	mov    %eax,-0x148(%rbp)
    d803:	8b 85 dc fe ff ff    	mov    -0x124(%rbp),%eax
    d809:	0f be c0             	movsbl %al,%eax
    d80c:	89 85 ac fe ff ff    	mov    %eax,-0x154(%rbp)
    d812:	0f b7 85 5e ff ff ff 	movzwl -0xa2(%rbp),%eax
    d819:	98                   	cwtl   
    d81a:	89 85 a8 fe ff ff    	mov    %eax,-0x158(%rbp)
    d820:	0f b7 85 40 ff ff ff 	movzwl -0xc0(%rbp),%eax
    d827:	c1 e0 07             	shl    $0x7,%eax
    d82a:	66 c1 f8 07          	sar    $0x7,%ax
    d82e:	0f b6 c0             	movzbl %al,%eax
    d831:	89 85 a4 fe ff ff    	mov    %eax,-0x15c(%rbp)
    d837:	8b 05 0f e8 00 00    	mov    0xe80f(%rip),%eax        # 1c04c <g_14+0xc>
    d83d:	44 0f b7 f0          	movzwl %ax,%r14d
    d841:	0f b6 05 41 e8 00 00 	movzbl 0xe841(%rip),%eax        # 1c089 <g_68>
    d848:	4c 0f be f8          	movsbq %al,%r15
    d84c:	0f b7 85 5c ff ff ff 	movzwl -0xa4(%rbp),%eax
    d853:	44 0f b7 e8          	movzwl %ax,%r13d
    d857:	44 8b a5 dc fe ff ff 	mov    -0x124(%rbp),%r12d
    d85e:	8b 9d dc fe ff ff    	mov    -0x124(%rbp),%ebx
    d864:	8b 05 06 e8 00 00    	mov    0xe806(%rip),%eax        # 1c070 <g_14+0x30>
    d86a:	89 c2                	mov    %eax,%edx
    d86c:	8b 85 f0 fe ff ff    	mov    -0x110(%rbp),%eax
    d872:	31 d0                	xor    %edx,%eax
    d874:	0f b6 c0             	movzbl %al,%eax
    d877:	be 5e 00 00 00       	mov    $0x5e,%esi
    d87c:	89 c7                	mov    %eax,%edi
    d87e:	e8 10 c3 ff ff       	callq  9b93 <safe_mul_func_uint8_t_u_u>
    d883:	0f b6 d0             	movzbl %al,%edx
    d886:	48 8b 85 00 ff ff ff 	mov    -0x100(%rbp),%rax
    d88d:	48 89 10             	mov    %rdx,(%rax)
    d890:	48 8b 85 00 ff ff ff 	mov    -0x100(%rbp),%rax
    d897:	48 8b 00             	mov    (%rax),%rax
    d89a:	48 89 de             	mov    %rbx,%rsi
    d89d:	48 89 c7             	mov    %rax,%rdi
    d8a0:	e8 0f c1 ff ff       	callq  99b4 <safe_mod_func_int64_t_s_s>
    d8a5:	8b 05 c5 e7 00 00    	mov    0xe7c5(%rip),%eax        # 1c070 <g_14+0x30>
    d8ab:	0b 85 dc fe ff ff    	or     -0x124(%rbp),%eax
    d8b1:	89 c0                	mov    %eax,%eax
    d8b3:	4c 89 e6             	mov    %r12,%rsi
    d8b6:	48 89 c7             	mov    %rax,%rdi
    d8b9:	e8 f6 c0 ff ff       	callq  99b4 <safe_mod_func_int64_t_s_s>
    d8be:	48 85 c0             	test   %rax,%rax
    d8c1:	74 07                	je     d8ca <func_27+0x33a>
    d8c3:	b8 01 00 00 00       	mov    $0x1,%eax
    d8c8:	eb 05                	jmp    d8cf <func_27+0x33f>
    d8ca:	b8 00 00 00 00       	mov    $0x0,%eax
    d8cf:	44 31 e8             	xor    %r13d,%eax
    d8d2:	89 c6                	mov    %eax,%esi
    d8d4:	48 8b 3d 05 0a 01 00 	mov    0x10a05(%rip),%rdi        # 1e2e0 <g_67+0x60>
    d8db:	48 83 ec 08          	sub    $0x8,%rsp
    d8df:	48 83 ec 18          	sub    $0x18,%rsp
    d8e3:	48 89 e1             	mov    %rsp,%rcx
    d8e6:	48 8b 85 30 ff ff ff 	mov    -0xd0(%rbp),%rax
    d8ed:	48 8b 95 38 ff ff ff 	mov    -0xc8(%rbp),%rdx
    d8f4:	48 89 01             	mov    %rax,(%rcx)
    d8f7:	48 89 51 08          	mov    %rdx,0x8(%rcx)
    d8fb:	8b 85 40 ff ff ff    	mov    -0xc0(%rbp),%eax
    d901:	89 41 10             	mov    %eax,0x10(%rcx)
    d904:	44 89 f1             	mov    %r14d,%ecx
    d907:	4c 89 fa             	mov    %r15,%rdx
    d90a:	e8 1f 84 00 00       	callq  15d2e <func_61>
    d90f:	48 83 c4 20          	add    $0x20,%rsp
    d913:	8b 95 a8 fe ff ff    	mov    -0x158(%rbp),%edx
    d919:	8b b5 a4 fe ff ff    	mov    -0x15c(%rbp),%esi
    d91f:	48 89 c7             	mov    %rax,%rdi
    d922:	e8 fd 19 00 00       	callq  f324 <func_57>
    d927:	48 89 c6             	mov    %rax,%rsi
    d92a:	bf 06 00 00 00       	mov    $0x6,%edi
    d92f:	e8 80 c0 ff ff       	callq  99b4 <safe_mod_func_int64_t_s_s>
    d934:	48 8b 05 2d 12 01 00 	mov    0x1122d(%rip),%rax        # 1eb68 <g_587>
    d93b:	48 8b 00             	mov    (%rax),%rax
    d93e:	c6 00 00             	movb   $0x0,(%rax)
    d941:	0f b6 00             	movzbl (%rax),%eax
    d944:	0f b6 c0             	movzbl %al,%eax
    d947:	be 05 00 00 00       	mov    $0x5,%esi
    d94c:	89 c7                	mov    %eax,%edi
    d94e:	e8 f9 c2 ff ff       	callq  9c4c <safe_lshift_func_uint8_t_u_u>
    d953:	0f b6 05 2e e7 00 00 	movzbl 0xe72e(%rip),%eax        # 1c088 <g_52>
    d95a:	88 05 28 e7 00 00    	mov    %al,0xe728(%rip)        # 1c088 <g_52>
    d960:	0f b6 05 21 e7 00 00 	movzbl 0xe721(%rip),%eax        # 1c088 <g_52>
    d967:	0f be c0             	movsbl %al,%eax
    d96a:	be cc ff ff ff       	mov    $0xffffffcc,%esi
    d96f:	89 c7                	mov    %eax,%edi
    d971:	e8 f4 b8 ff ff       	callq  926a <safe_div_func_int8_t_s_s>
    d976:	0f be d0             	movsbl %al,%edx
    d979:	48 8b 05 18 19 01 00 	mov    0x11918(%rip),%rax        # 1f298 <g_754>
    d980:	8b 00                	mov    (%rax),%eax
    d982:	31 c2                	xor    %eax,%edx
    d984:	8b 85 38 ff ff ff    	mov    -0xc8(%rbp),%eax
    d98a:	25 ff ff 7f 00       	and    $0x7fffff,%eax
    d98f:	39 c2                	cmp    %eax,%edx
    d991:	0f 9d c0             	setge  %al
    d994:	0f b6 c0             	movzbl %al,%eax
    d997:	8b b5 ac fe ff ff    	mov    -0x154(%rbp),%esi
    d99d:	89 c7                	mov    %eax,%edi
    d99f:	e8 30 b8 ff ff       	callq  91d4 <safe_add_func_int8_t_s_s>
    d9a4:	48 8b 05 b5 11 01 00 	mov    0x111b5(%rip),%rax        # 1eb60 <g_588>
    d9ab:	0f b6 00             	movzbl (%rax),%eax
    d9ae:	0f b6 c0             	movzbl %al,%eax
    d9b1:	8b b5 b8 fe ff ff    	mov    -0x148(%rbp),%esi
    d9b7:	89 c7                	mov    %eax,%edi
    d9b9:	e8 f0 c1 ff ff       	callq  9bae <safe_mod_func_uint8_t_u_u>
    d9be:	0f b6 c0             	movzbl %al,%eax
    d9c1:	48 8b b5 b0 fe ff ff 	mov    -0x150(%rbp),%rsi
    d9c8:	48 89 c7             	mov    %rax,%rdi
    d9cb:	e8 5e c6 ff ff       	callq  a02e <safe_add_func_uint64_t_u_u>
    d9d0:	f7 d0                	not    %eax
    d9d2:	89 c2                	mov    %eax,%edx
    d9d4:	48 8b 85 08 ff ff ff 	mov    -0xf8(%rbp),%rax
    d9db:	89 d7                	mov    %edx,%edi
    d9dd:	09 c7                	or     %eax,%edi
    d9df:	8b 85 f0 fe ff ff    	mov    -0x110(%rbp),%eax
    d9e5:	89 c1                	mov    %eax,%ecx
    d9e7:	8b 95 c0 fe ff ff    	mov    -0x140(%rbp),%edx
    d9ed:	8b b5 bc fe ff ff    	mov    -0x144(%rbp),%esi
    d9f3:	e8 32 03 00 00       	callq  dd2a <func_37>
    d9f8:	0f be c0             	movsbl %al,%eax
    d9fb:	be 04 00 00 00       	mov    $0x4,%esi
    da00:	89 c7                	mov    %eax,%edi
    da02:	e8 9a b8 ff ff       	callq  92a1 <safe_lshift_func_int8_t_s_s>
    da07:	0f be c0             	movsbl %al,%eax
    da0a:	be 01 00 00 00       	mov    $0x1,%esi
    da0f:	89 c7                	mov    %eax,%edi
    da11:	e8 0f c5 ff ff       	callq  9f25 <safe_div_func_uint32_t_u_u>
    da16:	0f be c0             	movsbl %al,%eax
    da19:	48 8b 8d d0 fe ff ff 	mov    -0x130(%rbp),%rcx
    da20:	48 8b 95 c8 fe ff ff 	mov    -0x138(%rbp),%rdx
    da27:	8b b5 c4 fe ff ff    	mov    -0x13c(%rbp),%esi
    da2d:	89 c7                	mov    %eax,%edi
    da2f:	e8 6b e7 ff ff       	callq  c19f <func_9>
    da34:	48 8b 05 95 18 01 00 	mov    0x11895(%rip),%rax        # 1f2d0 <g_1024>
    da3b:	0f b7 00             	movzwl (%rax),%eax
    da3e:	0f b7 c0             	movzwl %ax,%eax
    da41:	8b b5 d8 fe ff ff    	mov    -0x128(%rbp),%esi
    da47:	89 c7                	mov    %eax,%edi
    da49:	e8 0e c3 ff ff       	callq  9d5c <safe_mod_func_uint16_t_u_u>
    da4e:	66 85 c0             	test   %ax,%ax
    da51:	74 19                	je     da6c <func_27+0x4dc>
    da53:	48 8b 05 7e 18 01 00 	mov    0x1187e(%rip),%rax        # 1f2d8 <g_1023>
    da5a:	48 8b 00             	mov    (%rax),%rax
    da5d:	0f b7 00             	movzwl (%rax),%eax
    da60:	66 85 c0             	test   %ax,%ax
    da63:	74 07                	je     da6c <func_27+0x4dc>
    da65:	b8 01 00 00 00       	mov    $0x1,%eax
    da6a:	eb 05                	jmp    da71 <func_27+0x4e1>
    da6c:	b8 00 00 00 00       	mov    $0x0,%eax
    da71:	98                   	cwtl   
    da72:	be c7 cd ff ff       	mov    $0xffffcdc7,%esi
    da77:	89 c7                	mov    %eax,%edi
    da79:	e8 77 b9 ff ff       	callq  93f5 <safe_mul_func_int16_t_s_s>
    da7e:	0f bf d0             	movswl %ax,%edx
    da81:	48 8b 85 10 ff ff ff 	mov    -0xf0(%rbp),%rax
    da88:	89 10                	mov    %edx,(%rax)
    da8a:	48 8b 85 10 ff ff ff 	mov    -0xf0(%rbp),%rax
    da91:	8b 10                	mov    (%rax),%edx
    da93:	48 8b 85 18 ff ff ff 	mov    -0xe8(%rbp),%rax
    da9a:	89 10                	mov    %edx,(%rax)
    da9c:	66 c7 05 8b 26 01 00 	movw   $0xfff4,0x1268b(%rip)        # 20130 <g_210>
    daa3:	f4 ff 
    daa5:	90                   	nop
    daa6:	0f b7 05 83 26 01 00 	movzwl 0x12683(%rip),%eax        # 20130 <g_210>
    daad:	66 83 f8 0f          	cmp    $0xf,%ax
    dab1:	0f 87 2c 02 00 00    	ja     dce3 <func_27+0x753>
    dab7:	c7 85 fc fe ff ff 7c 	movl   $0x929b307c,-0x104(%rbp)
    dabe:	30 9b 92 
    dac1:	48 8d 05 4e e7 00 00 	lea    0xe74e(%rip),%rax        # 1c216 <g_714>
    dac8:	48 89 85 28 ff ff ff 	mov    %rax,-0xd8(%rbp)
    dacf:	48 8b 05 2a 1b 01 00 	mov    0x11b2a(%rip),%rax        # 1f600 <g_1595>
    dad6:	48 8b 00             	mov    (%rax),%rax
    dad9:	48 8b 00             	mov    (%rax),%rax
    dadc:	48 8b 00             	mov    (%rax),%rax
    dadf:	f7 d0                	not    %eax
    dae1:	0f be c0             	movsbl %al,%eax
    dae4:	89 c7                	mov    %eax,%edi
    dae6:	e8 d4 b6 ff ff       	callq  91bf <safe_unary_minus_func_int8_t_s>
    daeb:	44 0f be e0          	movsbl %al,%r12d
    daef:	8b 85 dc fe ff ff    	mov    -0x124(%rbp),%eax
    daf5:	f7 d0                	not    %eax
    daf7:	89 c2                	mov    %eax,%edx
    daf9:	48 8b 85 10 ff ff ff 	mov    -0xf0(%rbp),%rax
    db00:	89 10                	mov    %edx,(%rax)
    db02:	8b 85 dc fe ff ff    	mov    -0x124(%rbp),%eax
    db08:	0f be d8             	movsbl %al,%ebx
    db0b:	48 8b 85 10 ff ff ff 	mov    -0xf0(%rbp),%rax
    db12:	8b 00                	mov    (%rax),%eax
    db14:	0f b7 c0             	movzwl %ax,%eax
    db17:	89 c7                	mov    %eax,%edi
    db19:	e8 cb c1 ff ff       	callq  9ce9 <safe_unary_minus_func_uint16_t_u>
    db1e:	8b 85 dc fe ff ff    	mov    -0x124(%rbp),%eax
    db24:	0f bf c8             	movswl %ax,%ecx
    db27:	48 8b 05 ba 1a 01 00 	mov    0x11aba(%rip),%rax        # 1f5e8 <g_1564>
    db2e:	48 8b 30             	mov    (%rax),%rsi
    db31:	8b 85 f4 fe ff ff    	mov    -0x10c(%rbp),%eax
    db37:	48 98                	cltq   
    db39:	48 8b 15 a8 1a 01 00 	mov    0x11aa8(%rip),%rdx        # 1f5e8 <g_1564>
    db40:	48 09 f0             	or     %rsi,%rax
    db43:	48 89 02             	mov    %rax,(%rdx)
    db46:	48 8b 05 83 19 01 00 	mov    0x11983(%rip),%rax        # 1f4d0 <g_1173>
    db4d:	48 8b 12             	mov    (%rdx),%rdx
    db50:	48 89 10             	mov    %rdx,(%rax)
    db53:	48 8b 00             	mov    (%rax),%rax
    db56:	89 85 f8 fe ff ff    	mov    %eax,-0x108(%rbp)
    db5c:	89 ce                	mov    %ecx,%esi
    db5e:	bf 00 00 00 00       	mov    $0x0,%edi
    db63:	e8 8d b8 ff ff       	callq  93f5 <safe_mul_func_int16_t_s_s>
    db68:	48 8b 85 00 ff ff ff 	mov    -0x100(%rbp),%rax
    db6f:	48 c7 00 00 00 00 00 	movq   $0x0,(%rax)
    db76:	48 8b 85 00 ff ff ff 	mov    -0x100(%rbp),%rax
    db7d:	48 8b 00             	mov    (%rax),%rax
    db80:	48 83 f8 ff          	cmp    $0xffffffffffffffff,%rax
    db84:	48 8b 85 10 ff ff ff 	mov    -0xf0(%rbp),%rax
    db8b:	8b 00                	mov    (%rax),%eax
    db8d:	85 c0                	test   %eax,%eax
    db8f:	74 0d                	je     db9e <func_27+0x60e>
    db91:	48 8b 85 10 ff ff ff 	mov    -0xf0(%rbp),%rax
    db98:	8b 00                	mov    (%rax),%eax
    db9a:	85 c0                	test   %eax,%eax
    db9c:	75 09                	jne    dba7 <func_27+0x617>
    db9e:	83 bd fc fe ff ff 00 	cmpl   $0x0,-0x104(%rbp)
    dba5:	74 07                	je     dbae <func_27+0x61e>
    dba7:	b8 01 00 00 00       	mov    $0x1,%eax
    dbac:	eb 05                	jmp    dbb3 <func_27+0x623>
    dbae:	b8 00 00 00 00       	mov    $0x0,%eax
    dbb3:	39 85 dc fe ff ff    	cmp    %eax,-0x124(%rbp)
    dbb9:	0f 95 c0             	setne  %al
    dbbc:	0f b6 c0             	movzbl %al,%eax
    dbbf:	39 85 dc fe ff ff    	cmp    %eax,-0x124(%rbp)
    dbc5:	0f 97 c0             	seta   %al
    dbc8:	0f b6 c0             	movzbl %al,%eax
    dbcb:	be ff ff ff ff       	mov    $0xffffffff,%esi
    dbd0:	89 c7                	mov    %eax,%edi
    dbd2:	e8 e1 c2 ff ff       	callq  9eb8 <safe_add_func_uint32_t_u_u>
    dbd7:	48 8b 05 82 0f 01 00 	mov    0x10f82(%rip),%rax        # 1eb60 <g_588>
    dbde:	0f b6 00             	movzbl (%rax),%eax
    dbe1:	0f b6 d0             	movzbl %al,%edx
    dbe4:	48 8b 85 10 ff ff ff 	mov    -0xf0(%rbp),%rax
    dbeb:	8b 00                	mov    (%rax),%eax
    dbed:	48 98                	cltq   
    dbef:	25 f1 4e 00 00       	and    $0x4ef1,%eax
    dbf4:	48 39 c2             	cmp    %rax,%rdx
    dbf7:	0f 97 c0             	seta   %al
    dbfa:	0f b6 c0             	movzbl %al,%eax
    dbfd:	89 c7                	mov    %eax,%edi
    dbff:	e8 41 bf ff ff       	callq  9b45 <safe_unary_minus_func_uint8_t_u>
    dc04:	84 c0                	test   %al,%al
    dc06:	75 10                	jne    dc18 <func_27+0x688>
    dc08:	83 bd dc fe ff ff 00 	cmpl   $0x0,-0x124(%rbp)
    dc0f:	75 07                	jne    dc18 <func_27+0x688>
    dc11:	83 bd dc fe ff ff 00 	cmpl   $0x0,-0x124(%rbp)
    dc18:	90                   	nop
    dc19:	be 00 00 00 00       	mov    $0x0,%esi
    dc1e:	bf 01 00 00 00       	mov    $0x1,%edi
    dc23:	e8 ea b5 ff ff       	callq  9212 <safe_mul_func_int8_t_s_s>
    dc28:	84 c0                	test   %al,%al
    dc2a:	bf 01 00 00 00       	mov    $0x1,%edi
    dc2f:	e8 62 b9 ff ff       	callq  9596 <safe_unary_minus_func_int32_t_s>
    dc34:	39 85 fc fe ff ff    	cmp    %eax,-0x104(%rbp)
    dc3a:	0f 95 c0             	setne  %al
    dc3d:	0f b6 c0             	movzbl %al,%eax
    dc40:	39 85 fc fe ff ff    	cmp    %eax,-0x104(%rbp)
    dc46:	0f 93 c0             	setae  %al
    dc49:	0f b6 c0             	movzbl %al,%eax
    dc4c:	89 de                	mov    %ebx,%esi
    dc4e:	89 c7                	mov    %eax,%edi
    dc50:	e8 bd b5 ff ff       	callq  9212 <safe_mul_func_int8_t_s_s>
    dc55:	48 8b 05 9c 09 01 00 	mov    0x1099c(%rip),%rax        # 1e5f8 <g_262>
    dc5c:	0f b7 00             	movzwl (%rax),%eax
    dc5f:	66 3d b7 7f          	cmp    $0x7fb7,%ax
    dc63:	0f 9f c0             	setg   %al
    dc66:	0f b6 d0             	movzbl %al,%edx
    dc69:	48 8b 85 28 ff ff ff 	mov    -0xd8(%rbp),%rax
    dc70:	0f b7 00             	movzwl (%rax),%eax
    dc73:	21 c2                	and    %eax,%edx
    dc75:	48 8b 85 28 ff ff ff 	mov    -0xd8(%rbp),%rax
    dc7c:	66 89 10             	mov    %dx,(%rax)
    dc7f:	48 8b 85 28 ff ff ff 	mov    -0xd8(%rbp),%rax
    dc86:	0f b7 00             	movzwl (%rax),%eax
    dc89:	66 85 c0             	test   %ax,%ax
    dc8c:	75 0a                	jne    dc98 <func_27+0x708>
    dc8e:	48 83 bd 20 ff ff ff 	cmpq   $0x0,-0xe0(%rbp)
    dc95:	00 
    dc96:	74 10                	je     dca8 <func_27+0x718>
    dc98:	83 bd fc fe ff ff 00 	cmpl   $0x0,-0x104(%rbp)
    dc9f:	74 07                	je     dca8 <func_27+0x718>
    dca1:	b8 01 00 00 00       	mov    $0x1,%eax
    dca6:	eb 05                	jmp    dcad <func_27+0x71d>
    dca8:	b8 00 00 00 00       	mov    $0x0,%eax
    dcad:	44 39 e0             	cmp    %r12d,%eax
    dcb0:	0f 95 c0             	setne  %al
    dcb3:	0f b6 d0             	movzbl %al,%edx
    dcb6:	48 8b 85 18 ff ff ff 	mov    -0xe8(%rbp),%rax
    dcbd:	8b 00                	mov    (%rax),%eax
    dcbf:	21 c2                	and    %eax,%edx
    dcc1:	48 8b 85 18 ff ff ff 	mov    -0xe8(%rbp),%rax
    dcc8:	89 10                	mov    %edx,(%rax)
    dcca:	0f b7 05 cb e3 00 00 	movzwl 0xe3cb(%rip),%eax        # 1c09c <g_87>
    dcd1:	66 85 c0             	test   %ax,%ax
    dcd4:	74 05                	je     dcdb <func_27+0x74b>
    dcd6:	e9 ab fa ff ff       	jmpq   d786 <func_27+0x1f6>
    dcdb:	8b 85 dc fe ff ff    	mov    -0x124(%rbp),%eax
    dce1:	eb 24                	jmp    dd07 <func_27+0x777>
    dce3:	48 8b 85 18 ff ff ff 	mov    -0xe8(%rbp),%rax
    dcea:	8b 10                	mov    (%rax),%edx
    dcec:	48 8b 85 10 ff ff ff 	mov    -0xf0(%rbp),%rax
    dcf3:	8b 00                	mov    (%rax),%eax
    dcf5:	09 c2                	or     %eax,%edx
    dcf7:	48 8b 85 18 ff ff ff 	mov    -0xe8(%rbp),%rax
    dcfe:	89 10                	mov    %edx,(%rax)
    dd00:	0f be 85 ef fe ff ff 	movsbl -0x111(%rbp),%eax
    dd07:	48 8b 5d c8          	mov    -0x38(%rbp),%rbx
    dd0b:	64 48 33 1c 25 28 00 	xor    %fs:0x28,%rbx
    dd12:	00 00 
    dd14:	74 05                	je     dd1b <func_27+0x78b>
    dd16:	e8 55 b3 ff ff       	callq  9070 <__stack_chk_fail@plt>
    dd1b:	48 8d 65 d8          	lea    -0x28(%rbp),%rsp
    dd1f:	5b                   	pop    %rbx
    dd20:	41 5c                	pop    %r12
    dd22:	41 5d                	pop    %r13
    dd24:	41 5e                	pop    %r14
    dd26:	41 5f                	pop    %r15
    dd28:	5d                   	pop    %rbp
    dd29:	c3                   	retq   

000000000000dd2a <func_37>:
    dd2a:	f3 0f 1e fa          	endbr64 
    dd2e:	55                   	push   %rbp
    dd2f:	48 89 e5             	mov    %rsp,%rbp
    dd32:	41 57                	push   %r15
    dd34:	41 56                	push   %r14
    dd36:	41 55                	push   %r13
    dd38:	41 54                	push   %r12
    dd3a:	53                   	push   %rbx
    dd3b:	48 81 ec 08 0c 00 00 	sub    $0xc08,%rsp
    dd42:	89 bd ec f3 ff ff    	mov    %edi,-0xc14(%rbp)
    dd48:	89 b5 e8 f3 ff ff    	mov    %esi,-0xc18(%rbp)
    dd4e:	89 d0                	mov    %edx,%eax
    dd50:	89 8d e0 f3 ff ff    	mov    %ecx,-0xc20(%rbp)
    dd56:	88 85 e4 f3 ff ff    	mov    %al,-0xc1c(%rbp)
    dd5c:	64 48 8b 04 25 28 00 	mov    %fs:0x28,%rax
    dd63:	00 00 
    dd65:	48 89 45 c8          	mov    %rax,-0x38(%rbp)
    dd69:	31 c0                	xor    %eax,%eax
    dd6b:	48 8d 05 36 15 01 00 	lea    0x11536(%rip),%rax        # 1f2a8 <g_981>
    dd72:	48 89 85 70 f4 ff ff 	mov    %rax,-0xb90(%rbp)
    dd79:	48 8d 85 70 f4 ff ff 	lea    -0xb90(%rbp),%rax
    dd80:	48 89 85 b8 f4 ff ff 	mov    %rax,-0xb48(%rbp)
    dd87:	48 8d 05 1a 15 01 00 	lea    0x1151a(%rip),%rax        # 1f2a8 <g_981>
    dd8e:	48 89 85 78 f4 ff ff 	mov    %rax,-0xb88(%rbp)
    dd95:	48 8d 85 78 f4 ff ff 	lea    -0xb88(%rbp),%rax
    dd9c:	48 89 85 80 f4 ff ff 	mov    %rax,-0xb80(%rbp)
    dda3:	48 8d 05 df e2 00 00 	lea    0xe2df(%rip),%rax        # 1c089 <g_68>
    ddaa:	48 89 85 50 f6 ff ff 	mov    %rax,-0x9b0(%rbp)
    ddb1:	48 8d 05 d1 e2 00 00 	lea    0xe2d1(%rip),%rax        # 1c089 <g_68>
    ddb8:	48 89 85 58 f6 ff ff 	mov    %rax,-0x9a8(%rbp)
    ddbf:	48 8d 05 c3 e2 00 00 	lea    0xe2c3(%rip),%rax        # 1c089 <g_68>
    ddc6:	48 89 85 60 f6 ff ff 	mov    %rax,-0x9a0(%rbp)
    ddcd:	48 8d 05 b5 e2 00 00 	lea    0xe2b5(%rip),%rax        # 1c089 <g_68>
    ddd4:	48 89 85 68 f6 ff ff 	mov    %rax,-0x998(%rbp)
    dddb:	48 8d 05 a7 e2 00 00 	lea    0xe2a7(%rip),%rax        # 1c089 <g_68>
    dde2:	48 89 85 70 f6 ff ff 	mov    %rax,-0x990(%rbp)
    dde9:	48 8d 05 99 e2 00 00 	lea    0xe299(%rip),%rax        # 1c089 <g_68>
    ddf0:	48 89 85 78 f6 ff ff 	mov    %rax,-0x988(%rbp)
    ddf7:	48 8d 05 8b e2 00 00 	lea    0xe28b(%rip),%rax        # 1c089 <g_68>
    ddfe:	48 89 85 80 f6 ff ff 	mov    %rax,-0x980(%rbp)
    de05:	48 8d 05 7d e2 00 00 	lea    0xe27d(%rip),%rax        # 1c089 <g_68>
    de0c:	48 89 85 88 f6 ff ff 	mov    %rax,-0x978(%rbp)
    de13:	c7 85 20 f4 ff ff 7d 	movl   $0x6b73b17d,-0xbe0(%rbp)
    de1a:	b1 73 6b 
    de1d:	48 8d 85 30 f6 ff ff 	lea    -0x9d0(%rbp),%rax
    de24:	48 89 85 c0 f4 ff ff 	mov    %rax,-0xb40(%rbp)
    de2b:	c7 85 00 f4 ff ff fc 	movl   $0xfffffffc,-0xc00(%rbp)
    de32:	ff ff ff 
    de35:	c7 85 4c f4 ff ff 57 	movl   $0xeb318857,-0xbb4(%rbp)
    de3c:	88 31 eb 
    de3f:	48 8d 05 42 e3 00 00 	lea    0xe342(%rip),%rax        # 1c188 <g_296>
    de46:	48 89 85 88 f4 ff ff 	mov    %rax,-0xb78(%rbp)
    de4d:	c7 85 24 f4 ff ff fc 	movl   $0xfffffffc,-0xbdc(%rbp)
    de54:	ff ff ff 
    de57:	66 c7 85 fa f3 ff ff 	movw   $0x7,-0xc06(%rbp)
    de5e:	07 00 
    de60:	48 8d 05 29 14 01 00 	lea    0x11429(%rip),%rax        # 1f290 <g_732>
    de67:	48 89 85 c8 f4 ff ff 	mov    %rax,-0xb38(%rbp)
    de6e:	c7 85 50 f4 ff ff fb 	movl   $0xfffffffb,-0xbb0(%rbp)
    de75:	ff ff ff 
    de78:	c7 85 04 f4 ff ff f0 	movl   $0xd0d41f0,-0xbfc(%rbp)
    de7f:	41 0d 0d 
    de82:	c7 85 08 f4 ff ff 09 	movl   $0x9,-0xbf8(%rbp)
    de89:	00 00 00 
    de8c:	48 c7 85 d0 f4 ff ff 	movq   $0x0,-0xb30(%rbp)
    de93:	00 00 00 00 
    de97:	48 8d 05 f2 e1 00 00 	lea    0xe1f2(%rip),%rax        # 1c090 <g_78>
    de9e:	48 89 85 90 f4 ff ff 	mov    %rax,-0xb70(%rbp)
    dea5:	48 8d 85 90 f4 ff ff 	lea    -0xb70(%rbp),%rax
    deac:	48 89 85 98 f4 ff ff 	mov    %rax,-0xb68(%rbp)
    deb3:	48 8d 85 98 f4 ff ff 	lea    -0xb68(%rbp),%rax
    deba:	48 89 85 d8 f4 ff ff 	mov    %rax,-0xb28(%rbp)
    dec1:	48 8d 05 28 05 01 00 	lea    0x10528(%rip),%rax        # 1e3f0 <g_98+0x50>
    dec8:	48 89 85 e0 f4 ff ff 	mov    %rax,-0xb20(%rbp)
    decf:	48 c7 85 90 f6 ff ff 	movq   $0xffffffffffffffff,-0x970(%rbp)
    ded6:	ff ff ff ff 
    deda:	48 b8 56 fe d0 2b fe 	movabs $0x5056d7fe2bd0fe56,%rax
    dee1:	d7 56 50 
    dee4:	48 89 85 98 f6 ff ff 	mov    %rax,-0x968(%rbp)
    deeb:	48 c7 85 a0 f6 ff ff 	movq   $0xffffffffffffffff,-0x960(%rbp)
    def2:	ff ff ff ff 
    def6:	48 89 85 a8 f6 ff ff 	mov    %rax,-0x958(%rbp)
    defd:	48 c7 85 b0 f6 ff ff 	movq   $0xffffffffffffffff,-0x950(%rbp)
    df04:	ff ff ff ff 
    df08:	48 89 85 b8 f6 ff ff 	mov    %rax,-0x948(%rbp)
    df0f:	48 c7 85 c0 f6 ff ff 	movq   $0xffffffffffffffff,-0x940(%rbp)
    df16:	ff ff ff ff 
    df1a:	48 89 85 c8 f6 ff ff 	mov    %rax,-0x938(%rbp)
    df21:	c7 85 28 f4 ff ff 00 	movl   $0x0,-0xbd8(%rbp)
    df28:	00 00 00 
    df2b:	eb 1b                	jmp    df48 <func_37+0x21e>
    df2d:	8b 85 28 f4 ff ff    	mov    -0xbd8(%rbp),%eax
    df33:	48 98                	cltq   
    df35:	48 c7 84 c5 30 f6 ff 	movq   $0x0,-0x9d0(%rbp,%rax,8)
    df3c:	ff 00 00 00 00 
    df41:	83 85 28 f4 ff ff 01 	addl   $0x1,-0xbd8(%rbp)
    df48:	83 bd 28 f4 ff ff 00 	cmpl   $0x0,-0xbd8(%rbp)
    df4f:	7e dc                	jle    df2d <func_37+0x203>
    df51:	c7 85 28 f4 ff ff 00 	movl   $0x0,-0xbd8(%rbp)
    df58:	00 00 00 
    df5b:	eb 19                	jmp    df76 <func_37+0x24c>
    df5d:	8b 85 28 f4 ff ff    	mov    -0xbd8(%rbp),%eax
    df63:	48 98                	cltq   
    df65:	66 c7 84 45 2c f6 ff 	movw   $0x6f32,-0x9d4(%rbp,%rax,2)
    df6c:	ff 32 6f 
    df6f:	83 85 28 f4 ff ff 01 	addl   $0x1,-0xbd8(%rbp)
    df76:	83 bd 28 f4 ff ff 01 	cmpl   $0x1,-0xbd8(%rbp)
    df7d:	7e de                	jle    df5d <func_37+0x233>
    df7f:	8b 85 ec f3 ff ff    	mov    -0xc14(%rbp),%eax
    df85:	0f b6 c0             	movzbl %al,%eax
    df88:	be 03 00 00 00       	mov    $0x3,%esi
    df8d:	89 c7                	mov    %eax,%edi
    df8f:	e8 2a bd ff ff       	callq  9cbe <safe_rshift_func_uint8_t_u_u>
    df94:	0f b6 d8             	movzbl %al,%ebx
    df97:	48 8b 95 70 f4 ff ff 	mov    -0xb90(%rbp),%rdx
    df9e:	48 8b 85 b8 f4 ff ff 	mov    -0xb48(%rbp),%rax
    dfa5:	48 89 10             	mov    %rdx,(%rax)
    dfa8:	48 8b 85 b8 f4 ff ff 	mov    -0xb48(%rbp),%rax
    dfaf:	48 8b 10             	mov    (%rax),%rdx
    dfb2:	48 8b 85 80 f4 ff ff 	mov    -0xb80(%rbp),%rax
    dfb9:	48 8d 0d e8 12 01 00 	lea    0x112e8(%rip),%rcx        # 1f2a8 <g_981>
    dfc0:	48 89 08             	mov    %rcx,(%rax)
    dfc3:	48 8b 00             	mov    (%rax),%rax
    dfc6:	48 39 c2             	cmp    %rax,%rdx
    dfc9:	8b 85 20 f4 ff ff    	mov    -0xbe0(%rbp),%eax
    dfcf:	89 c6                	mov    %eax,%esi
    dfd1:	bf 00 00 00 00       	mov    $0x0,%edi
    dfd6:	e8 b7 b4 ff ff       	callq  9492 <safe_lshift_func_int16_t_s_s>
    dfdb:	48 8d 05 8e 21 01 00 	lea    0x1218e(%rip),%rax        # 20170 <g_988>
    dfe2:	48 39 85 c0 f4 ff ff 	cmp    %rax,-0xb40(%rbp)
    dfe9:	0f 95 c0             	setne  %al
    dfec:	0f b6 d0             	movzbl %al,%edx
    dfef:	48 8b 05 e2 12 01 00 	mov    0x112e2(%rip),%rax        # 1f2d8 <g_1023>
    dff6:	48 8b 00             	mov    (%rax),%rax
    dff9:	0f b7 00             	movzwl (%rax),%eax
    dffc:	0f b7 c0             	movzwl %ax,%eax
    dfff:	39 c2                	cmp    %eax,%edx
    e001:	0f 9e c0             	setle  %al
    e004:	0f b6 c0             	movzbl %al,%eax
    e007:	39 85 ec f3 ff ff    	cmp    %eax,-0xc14(%rbp)
    e00d:	0f 95 c2             	setne  %dl
    e010:	48 8b 05 51 0b 01 00 	mov    0x10b51(%rip),%rax        # 1eb68 <g_587>
    e017:	48 8b 00             	mov    (%rax),%rax
    e01a:	88 10                	mov    %dl,(%rax)
    e01c:	0f b6 00             	movzbl (%rax),%eax
    e01f:	0f b6 c0             	movzbl %al,%eax
    e022:	39 85 e0 f3 ff ff    	cmp    %eax,-0xc20(%rbp)
    e028:	0f 9d c0             	setge  %al
    e02b:	0f b6 d0             	movzbl %al,%edx
    e02e:	48 8b 05 23 05 01 00 	mov    0x10523(%rip),%rax        # 1e558 <g_195>
    e035:	48 8b 00             	mov    (%rax),%rax
    e038:	48 39 c2             	cmp    %rax,%rdx
    e03b:	0f 9c c2             	setl   %dl
    e03e:	48 8b 05 bb 05 01 00 	mov    0x105bb(%rip),%rax        # 1e600 <g_261>
    e045:	48 8b 00             	mov    (%rax),%rax
    e048:	0f b6 d2             	movzbl %dl,%edx
    e04b:	66 89 10             	mov    %dx,(%rax)
    e04e:	83 bd e0 f3 ff ff 00 	cmpl   $0x0,-0xc20(%rbp)
    e055:	74 07                	je     e05e <func_37+0x334>
    e057:	b8 01 00 00 00       	mov    $0x1,%eax
    e05c:	eb 05                	jmp    e063 <func_37+0x339>
    e05e:	b8 00 00 00 00       	mov    $0x0,%eax
    e063:	48 63 d0             	movslq %eax,%rdx
    e066:	48 8b 05 63 14 01 00 	mov    0x11463(%rip),%rax        # 1f4d0 <g_1173>
    e06d:	48 8b 00             	mov    (%rax),%rax
    e070:	48 39 c2             	cmp    %rax,%rdx
    e073:	0f 93 c0             	setae  %al
    e076:	0f b6 c0             	movzbl %al,%eax
    e079:	be 01 00 00 00       	mov    $0x1,%esi
    e07e:	48 89 c7             	mov    %rax,%rdi
    e081:	e8 c5 bf ff ff       	callq  a04b <safe_sub_func_uint64_t_u_u>
    e086:	48 83 f0 f8          	xor    $0xfffffffffffffff8,%rax
    e08a:	48 89 c2             	mov    %rax,%rdx
    e08d:	8b 85 20 f4 ff ff    	mov    -0xbe0(%rbp),%eax
    e093:	48 39 c2             	cmp    %rax,%rdx
    e096:	0f 96 c0             	setbe  %al
    e099:	0f b6 c0             	movzbl %al,%eax
    e09c:	39 c3                	cmp    %eax,%ebx
    e09e:	0f 9d c0             	setge  %al
    e0a1:	0f b6 c0             	movzbl %al,%eax
    e0a4:	89 85 00 f4 ff ff    	mov    %eax,-0xc00(%rbp)
    e0aa:	8b 85 00 f4 ff ff    	mov    -0xc00(%rbp),%eax
    e0b0:	0f b6 c0             	movzbl %al,%eax
    e0b3:	be 45 00 00 00       	mov    $0x45,%esi
    e0b8:	89 c7                	mov    %eax,%edi
    e0ba:	e8 d4 ba ff ff       	callq  9b93 <safe_mul_func_uint8_t_u_u>
    e0bf:	0f b6 c0             	movzbl %al,%eax
    e0c2:	8b 95 20 f4 ff ff    	mov    -0xbe0(%rbp),%edx
    e0c8:	89 d6                	mov    %edx,%esi
    e0ca:	89 c7                	mov    %eax,%edi
    e0cc:	e8 10 b4 ff ff       	callq  94e1 <safe_lshift_func_int16_t_s_u>
    e0d1:	66 85 c0             	test   %ax,%ax
    e0d4:	0f 84 8d 00 00 00    	je     e167 <func_37+0x43d>
    e0da:	90                   	nop
    e0db:	66 c7 05 8c e0 00 00 	movw   $0xffef,0xe08c(%rip)        # 1c170 <g_207>
    e0e2:	ef ff 
    e0e4:	eb 6f                	jmp    e155 <func_37+0x42b>
    e0e6:	83 bd e8 f3 ff ff 00 	cmpl   $0x0,-0xc18(%rbp)
    e0ed:	0f 85 00 12 00 00    	jne    f2f3 <func_37+0x15c9>
    e0f3:	c7 05 83 e0 00 00 0e 	movl   $0xe,0xe083(%rip)        # 1c180 <g_238>
    e0fa:	00 00 00 
    e0fd:	eb 2d                	jmp    e12c <func_37+0x402>
    e0ff:	48 8b 05 6a 0a 01 00 	mov    0x10a6a(%rip),%rax        # 1eb70 <g_615>
    e106:	8b 00                	mov    (%rax),%eax
    e108:	89 85 4c f4 ff ff    	mov    %eax,-0xbb4(%rbp)
    e10e:	8b 05 6c e0 00 00    	mov    0xe06c(%rip),%eax        # 1c180 <g_238>
    e114:	0f be c0             	movsbl %al,%eax
    e117:	be 08 00 00 00       	mov    $0x8,%esi
    e11c:	89 c7                	mov    %eax,%edi
    e11e:	e8 cf b0 ff ff       	callq  91f2 <safe_sub_func_int8_t_s_s>
    e123:	0f be c0             	movsbl %al,%eax
    e126:	89 05 54 e0 00 00    	mov    %eax,0xe054(%rip)        # 1c180 <g_238>
    e12c:	8b 05 4e e0 00 00    	mov    0xe04e(%rip),%eax        # 1c180 <g_238>
    e132:	83 f8 0b             	cmp    $0xb,%eax
    e135:	7f c8                	jg     e0ff <func_37+0x3d5>
    e137:	0f b7 05 32 e0 00 00 	movzwl 0xe032(%rip),%eax        # 1c170 <g_207>
    e13e:	0f b7 c0             	movzwl %ax,%eax
    e141:	be 02 00 00 00       	mov    $0x2,%esi
    e146:	48 89 c7             	mov    %rax,%rdi
    e149:	e8 f3 b6 ff ff       	callq  9841 <safe_add_func_int64_t_s_s>
    e14e:	66 89 05 1b e0 00 00 	mov    %ax,0xe01b(%rip)        # 1c170 <g_207>
    e155:	0f b7 05 14 e0 00 00 	movzwl 0xe014(%rip),%eax        # 1c170 <g_207>
    e15c:	66 83 f8 10          	cmp    $0x10,%ax
    e160:	76 84                	jbe    e0e6 <func_37+0x3bc>
    e162:	e9 8d 11 00 00       	jmpq   f2f4 <func_37+0x15ca>
    e167:	c6 85 f6 f3 ff ff 9e 	movb   $0x9e,-0xc0a(%rbp)
    e16e:	c7 85 0c f4 ff ff b4 	movl   $0x2dd46db4,-0xbf4(%rbp)
    e175:	6d d4 2d 
    e178:	c7 85 10 f4 ff ff a0 	movl   $0x5e6915a0,-0xbf0(%rbp)
    e17f:	15 69 5e 
    e182:	c7 85 14 f4 ff ff fc 	movl   $0xfffffffc,-0xbec(%rbp)
    e189:	ff ff ff 
    e18c:	66 c7 85 fc f3 ff ff 	movw   $0x7,-0xc04(%rbp)
    e193:	07 00 
    e195:	48 8d 85 88 f4 ff ff 	lea    -0xb78(%rbp),%rax
    e19c:	48 89 85 e8 f4 ff ff 	mov    %rax,-0xb18(%rbp)
    e1a3:	c7 85 54 f4 ff ff 1d 	movl   $0xfdd3ed1d,-0xbac(%rbp)
    e1aa:	ed d3 fd 
    e1ad:	48 8d 05 f0 de 00 00 	lea    0xdef0(%rip),%rax        # 1c0a4 <g_99>
    e1b4:	48 89 85 f0 f4 ff ff 	mov    %rax,-0xb10(%rbp)
    e1bb:	c7 85 2c f4 ff ff 00 	movl   $0x0,-0xbd4(%rbp)
    e1c2:	00 00 00 
    e1c5:	eb 1e                	jmp    e1e5 <func_37+0x4bb>
    e1c7:	8b 85 2c f4 ff ff    	mov    -0xbd4(%rbp),%eax
    e1cd:	48 98                	cltq   
    e1cf:	48 8d 95 80 f4 ff ff 	lea    -0xb80(%rbp),%rdx
    e1d6:	48 89 94 c5 40 f6 ff 	mov    %rdx,-0x9c0(%rbp,%rax,8)
    e1dd:	ff 
    e1de:	83 85 2c f4 ff ff 01 	addl   $0x1,-0xbd4(%rbp)
    e1e5:	83 bd 2c f4 ff ff 01 	cmpl   $0x1,-0xbd4(%rbp)
    e1ec:	7e d9                	jle    e1c7 <func_37+0x49d>
    e1ee:	c7 85 2c f4 ff ff 00 	movl   $0x0,-0xbd4(%rbp)
    e1f5:	00 00 00 
    e1f8:	eb 1e                	jmp    e218 <func_37+0x4ee>
    e1fa:	8b 85 2c f4 ff ff    	mov    -0xbd4(%rbp),%eax
    e200:	48 98                	cltq   
    e202:	48 8d 95 40 f6 ff ff 	lea    -0x9c0(%rbp),%rdx
    e209:	48 89 94 c5 38 f6 ff 	mov    %rdx,-0x9c8(%rbp,%rax,8)
    e210:	ff 
    e211:	83 85 2c f4 ff ff 01 	addl   $0x1,-0xbd4(%rbp)
    e218:	83 bd 2c f4 ff ff 00 	cmpl   $0x0,-0xbd4(%rbp)
    e21f:	7e d9                	jle    e1fa <func_37+0x4d0>
    e221:	c6 05 0e df 00 00 00 	movb   $0x0,0xdf0e(%rip)        # 1c136 <g_143>
    e228:	eb 41                	jmp    e26b <func_37+0x541>
    e22a:	48 8d 05 6f de 00 00 	lea    0xde6f(%rip),%rax        # 1c0a0 <g_89>
    e231:	48 89 85 20 f6 ff ff 	mov    %rax,-0x9e0(%rbp)
    e238:	48 8b 85 20 f6 ff ff 	mov    -0x9e0(%rbp),%rax
    e23f:	8b 00                	mov    (%rax),%eax
    e241:	83 c8 f8             	or     $0xfffffff8,%eax
    e244:	89 c2                	mov    %eax,%edx
    e246:	48 8b 85 20 f6 ff ff 	mov    -0x9e0(%rbp),%rax
    e24d:	89 10                	mov    %edx,(%rax)
    e24f:	0f b6 05 e0 de 00 00 	movzbl 0xdee0(%rip),%eax        # 1c136 <g_143>
    e256:	0f b6 c0             	movzbl %al,%eax
    e259:	be 07 00 00 00       	mov    $0x7,%esi
    e25e:	89 c7                	mov    %eax,%edi
    e260:	e8 9a ba ff ff       	callq  9cff <safe_add_func_uint16_t_u_u>
    e265:	88 05 cb de 00 00    	mov    %al,0xdecb(%rip)        # 1c136 <g_143>
    e26b:	0f b6 05 c4 de 00 00 	movzbl 0xdec4(%rip),%eax        # 1c136 <g_143>
    e272:	3c 05                	cmp    $0x5,%al
    e274:	75 b4                	jne    e22a <func_37+0x500>
    e276:	90                   	nop
    e277:	0f b6 85 f6 f3 ff ff 	movzbl -0xc0a(%rbp),%eax
    e27e:	0f be c0             	movsbl %al,%eax
    e281:	be 01 00 00 00       	mov    $0x1,%esi
    e286:	89 c7                	mov    %eax,%edi
    e288:	e8 a8 b0 ff ff       	callq  9335 <safe_rshift_func_int8_t_s_s>
    e28d:	84 c0                	test   %al,%al
    e28f:	0f 84 b0 03 00 00    	je     e645 <func_37+0x91b>
    e295:	48 8d 05 ec de 00 00 	lea    0xdeec(%rip),%rax        # 1c188 <g_296>
    e29c:	48 89 85 f0 f5 ff ff 	mov    %rax,-0xa10(%rbp)
    e2a3:	48 8d 05 d6 de 00 00 	lea    0xded6(%rip),%rax        # 1c180 <g_238>
    e2aa:	48 89 85 40 f8 ff ff 	mov    %rax,-0x7c0(%rbp)
    e2b1:	48 8d 05 c8 de 00 00 	lea    0xdec8(%rip),%rax        # 1c180 <g_238>
    e2b8:	48 89 85 48 f8 ff ff 	mov    %rax,-0x7b8(%rbp)
    e2bf:	48 8d 05 ba de 00 00 	lea    0xdeba(%rip),%rax        # 1c180 <g_238>
    e2c6:	48 89 85 50 f8 ff ff 	mov    %rax,-0x7b0(%rbp)
    e2cd:	48 8d 05 ac de 00 00 	lea    0xdeac(%rip),%rax        # 1c180 <g_238>
    e2d4:	48 89 85 58 f8 ff ff 	mov    %rax,-0x7a8(%rbp)
    e2db:	48 8d 05 9e de 00 00 	lea    0xde9e(%rip),%rax        # 1c180 <g_238>
    e2e2:	48 89 85 60 f8 ff ff 	mov    %rax,-0x7a0(%rbp)
    e2e9:	48 8d 05 90 de 00 00 	lea    0xde90(%rip),%rax        # 1c180 <g_238>
    e2f0:	48 89 85 68 f8 ff ff 	mov    %rax,-0x798(%rbp)
    e2f7:	48 c7 85 f8 f5 ff ff 	movq   $0x0,-0xa08(%rbp)
    e2fe:	00 00 00 00 
    e302:	48 8d 05 93 dd 00 00 	lea    0xdd93(%rip),%rax        # 1c09c <g_87>
    e309:	48 89 85 00 f6 ff ff 	mov    %rax,-0xa00(%rbp)
    e310:	c6 85 f8 f3 ff ff 01 	movb   $0x1,-0xc08(%rbp)
    e317:	c7 85 30 f4 ff ff 00 	movl   $0x0,-0xbd0(%rbp)
    e31e:	00 00 00 
    e321:	eb 1e                	jmp    e341 <func_37+0x617>
    e323:	8b 85 30 f4 ff ff    	mov    -0xbd0(%rbp),%eax
    e329:	48 98                	cltq   
    e32b:	48 8d 15 3e de 00 00 	lea    0xde3e(%rip),%rdx        # 1c170 <g_207>
    e332:	48 89 94 c5 20 f7 ff 	mov    %rdx,-0x8e0(%rbp,%rax,8)
    e339:	ff 
    e33a:	83 85 30 f4 ff ff 01 	addl   $0x1,-0xbd0(%rbp)
    e341:	83 bd 30 f4 ff ff 01 	cmpl   $0x1,-0xbd0(%rbp)
    e348:	7e d9                	jle    e323 <func_37+0x5f9>
    e34a:	8b 85 e0 f3 ff ff    	mov    -0xc20(%rbp),%eax
    e350:	0f be d8             	movsbl %al,%ebx
    e353:	8b 85 14 f4 ff ff    	mov    -0xbec(%rbp),%eax
    e359:	44 0f b7 e0          	movzwl %ax,%r12d
    e35d:	44 8b ad e8 f3 ff ff 	mov    -0xc18(%rbp),%r13d
    e364:	48 8b 05 75 11 01 00 	mov    0x11175(%rip),%rax        # 1f4e0 <g_1485>
    e36b:	0f b6 00             	movzbl (%rax),%eax
    e36e:	44 0f b6 f0          	movzbl %al,%r14d
    e372:	48 8b 85 88 f4 ff ff 	mov    -0xb78(%rbp),%rax
    e379:	48 39 85 f0 f5 ff ff 	cmp    %rax,-0xa10(%rbp)
    e380:	0f 95 c0             	setne  %al
    e383:	30 85 e4 f3 ff ff    	xor    %al,-0xc1c(%rbp)
    e389:	8b 85 e8 f3 ff ff    	mov    -0xc18(%rbp),%eax
    e38f:	48 98                	cltq   
    e391:	48 89 c7             	mov    %rax,%rdi
    e394:	e8 80 bc ff ff       	callq  a019 <safe_unary_minus_func_uint64_t_u>
    e399:	48 89 85 d8 f3 ff ff 	mov    %rax,-0xc28(%rbp)
    e3a0:	8b 85 e8 f3 ff ff    	mov    -0xc18(%rbp),%eax
    e3a6:	44 0f be f8          	movsbl %al,%r15d
    e3aa:	8b 8d ec f3 ff ff    	mov    -0xc14(%rbp),%ecx
    e3b0:	48 89 8d d0 f3 ff ff 	mov    %rcx,-0xc30(%rbp)
    e3b7:	48 8b 85 00 f6 ff ff 	mov    -0xa00(%rbp),%rax
    e3be:	0f b7 00             	movzwl (%rax),%eax
    e3c1:	89 c2                	mov    %eax,%edx
    e3c3:	8b 85 00 f4 ff ff    	mov    -0xc00(%rbp),%eax
    e3c9:	89 c1                	mov    %eax,%ecx
    e3cb:	8b 85 e8 f3 ff ff    	mov    -0xc18(%rbp),%eax
    e3d1:	21 c8                	and    %ecx,%eax
    e3d3:	31 d0                	xor    %edx,%eax
    e3d5:	89 c2                	mov    %eax,%edx
    e3d7:	48 8b 85 00 f6 ff ff 	mov    -0xa00(%rbp),%rax
    e3de:	66 89 10             	mov    %dx,(%rax)
    e3e1:	48 8b 85 00 f6 ff ff 	mov    -0xa00(%rbp),%rax
    e3e8:	0f b7 00             	movzwl (%rax),%eax
    e3eb:	0f b7 c0             	movzwl %ax,%eax
    e3ee:	8b 95 e8 f3 ff ff    	mov    -0xc18(%rbp),%edx
    e3f4:	89 d6                	mov    %edx,%esi
    e3f6:	89 c7                	mov    %eax,%edi
    e3f8:	e8 c1 b9 ff ff       	callq  9dbe <safe_lshift_func_uint16_t_u_s>
    e3fd:	0f b7 d0             	movzwl %ax,%edx
    e400:	8b 85 0c f4 ff ff    	mov    -0xbf4(%rbp),%eax
    e406:	23 85 e8 f3 ff ff    	and    -0xc18(%rbp),%eax
    e40c:	89 85 0c f4 ff ff    	mov    %eax,-0xbf4(%rbp)
    e412:	8b 85 0c f4 ff ff    	mov    -0xbf4(%rbp),%eax
    e418:	89 d6                	mov    %edx,%esi
    e41a:	89 c7                	mov    %eax,%edi
    e41c:	e8 de b2 ff ff       	callq  96ff <safe_div_func_int32_t_s_s>
    e421:	0f b6 c0             	movzbl %al,%eax
    e424:	be aa 00 00 00       	mov    $0xaa,%esi
    e429:	89 c7                	mov    %eax,%edi
    e42b:	e8 63 b7 ff ff       	callq  9b93 <safe_mul_func_uint8_t_u_u>
    e430:	c7 85 10 f4 ff ff 01 	movl   $0x1,-0xbf0(%rbp)
    e437:	00 00 00 
    e43a:	8b 85 10 f4 ff ff    	mov    -0xbf0(%rbp),%eax
    e440:	0f b7 c0             	movzwl %ax,%eax
    e443:	83 e0 07             	and    $0x7,%eax
    e446:	be ff ff 00 00       	mov    $0xffff,%esi
    e44b:	89 c7                	mov    %eax,%edi
    e44d:	e8 0a b9 ff ff       	callq  9d5c <safe_mod_func_uint16_t_u_u>
    e452:	0f b7 c0             	movzwl %ax,%eax
    e455:	89 85 00 f4 ff ff    	mov    %eax,-0xc00(%rbp)
    e45b:	8b 85 00 f4 ff ff    	mov    -0xc00(%rbp),%eax
    e461:	83 c8 fd             	or     $0xfffffffd,%eax
    e464:	48 98                	cltq   
    e466:	48 8b b5 d0 f3 ff ff 	mov    -0xc30(%rbp),%rsi
    e46d:	48 89 c7             	mov    %rax,%rdi
    e470:	e8 3f b5 ff ff       	callq  99b4 <safe_mod_func_int64_t_s_s>
    e475:	0f be c0             	movsbl %al,%eax
    e478:	44 89 fe             	mov    %r15d,%esi
    e47b:	89 c7                	mov    %eax,%edi
    e47d:	e8 52 ad ff ff       	callq  91d4 <safe_add_func_int8_t_s_s>
    e482:	48 0f be c0          	movsbq %al,%rax
    e486:	48 39 85 d8 f3 ff ff 	cmp    %rax,-0xc28(%rbp)
    e48d:	0f 95 c2             	setne  %dl
    e490:	48 8b 05 d1 06 01 00 	mov    0x106d1(%rip),%rax        # 1eb68 <g_587>
    e497:	48 8b 00             	mov    (%rax),%rax
    e49a:	88 10                	mov    %dl,(%rax)
    e49c:	0f b6 00             	movzbl (%rax),%eax
    e49f:	0f b6 c0             	movzbl %al,%eax
    e4a2:	44 89 f6             	mov    %r14d,%esi
    e4a5:	89 c7                	mov    %eax,%edi
    e4a7:	e8 02 b7 ff ff       	callq  9bae <safe_mod_func_uint8_t_u_u>
    e4ac:	0f b6 c0             	movzbl %al,%eax
    e4af:	44 89 ee             	mov    %r13d,%esi
    e4b2:	89 c7                	mov    %eax,%edi
    e4b4:	e8 93 b7 ff ff       	callq  9c4c <safe_lshift_func_uint8_t_u_u>
    e4b9:	8b 85 e8 f3 ff ff    	mov    -0xc18(%rbp),%eax
    e4bf:	83 f0 04             	xor    $0x4,%eax
    e4c2:	0f b7 c0             	movzwl %ax,%eax
    e4c5:	44 89 e6             	mov    %r12d,%esi
    e4c8:	89 c7                	mov    %eax,%edi
    e4ca:	e8 bf b8 ff ff       	callq  9d8e <safe_div_func_uint16_t_u_u>
    e4cf:	0f b7 c0             	movzwl %ax,%eax
    e4d2:	be 52 79 00 00       	mov    $0x7952,%esi
    e4d7:	89 c7                	mov    %eax,%edi
    e4d9:	e8 5f b8 ff ff       	callq  9d3d <safe_mul_func_uint16_t_u_u>
    e4de:	0f be c0             	movsbl %al,%eax
    e4e1:	89 de                	mov    %ebx,%esi
    e4e3:	89 c7                	mov    %eax,%edi
    e4e5:	e8 ea ac ff ff       	callq  91d4 <safe_add_func_int8_t_s_s>
    e4ea:	0f b6 d8             	movzbl %al,%ebx
    e4ed:	48 8b 05 f4 10 01 00 	mov    0x110f4(%rip),%rax        # 1f5e8 <g_1564>
    e4f4:	48 8b 10             	mov    (%rax),%rdx
    e4f7:	48 83 c2 01          	add    $0x1,%rdx
    e4fb:	48 89 10             	mov    %rdx,(%rax)
    e4fe:	48 8b 00             	mov    (%rax),%rax
    e501:	48 c7 c6 fd ff ff ff 	mov    $0xfffffffffffffffd,%rsi
    e508:	48 89 c7             	mov    %rax,%rdi
    e50b:	e8 3b bb ff ff       	callq  a04b <safe_sub_func_uint64_t_u_u>
    e510:	0f b6 c0             	movzbl %al,%eax
    e513:	89 c6                	mov    %eax,%esi
    e515:	bf 01 00 00 00       	mov    $0x1,%edi
    e51a:	e8 74 b6 ff ff       	callq  9b93 <safe_mul_func_uint8_t_u_u>
    e51f:	0f b6 c0             	movzbl %al,%eax
    e522:	89 de                	mov    %ebx,%esi
    e524:	89 c7                	mov    %eax,%edi
    e526:	e8 4d b6 ff ff       	callq  9b78 <safe_sub_func_uint8_t_u_u>
    e52b:	0f b6 d0             	movzbl %al,%edx
    e52e:	48 8b 05 ab 0d 01 00 	mov    0x10dab(%rip),%rax        # 1f2e0 <g_1022>
    e535:	48 8b 00             	mov    (%rax),%rax
    e538:	48 8b 00             	mov    (%rax),%rax
    e53b:	0f b7 00             	movzwl (%rax),%eax
    e53e:	0f b7 c0             	movzwl %ax,%eax
    e541:	89 d6                	mov    %edx,%esi
    e543:	89 c7                	mov    %eax,%edi
    e545:	e8 74 b8 ff ff       	callq  9dbe <safe_lshift_func_uint16_t_u_s>
    e54a:	0f b7 c0             	movzwl %ax,%eax
    e54d:	89 85 e8 f3 ff ff    	mov    %eax,-0xc18(%rbp)
    e553:	66 c7 05 ba dc 00 00 	movw   $0xffe9,0xdcba(%rip)        # 1c216 <g_714>
    e55a:	e9 ff 
    e55c:	e9 ce 00 00 00       	jmpq   e62f <func_37+0x905>
    e561:	c7 85 68 f4 ff ff 42 	movl   $0xf3922a42,-0xb98(%rbp)
    e568:	2a 92 f3 
    e56b:	c7 85 10 f4 ff ff 06 	movl   $0x6,-0xbf0(%rbp)
    e572:	00 00 00 
    e575:	e9 8f 00 00 00       	jmpq   e609 <func_37+0x8df>
    e57a:	c7 05 e4 1b 01 00 00 	movl   $0x0,0x11be4(%rip)        # 20168 <g_838>
    e581:	00 00 00 
    e584:	eb 42                	jmp    e5c8 <func_37+0x89e>
    e586:	8b 85 e8 f3 ff ff    	mov    -0xc18(%rbp),%eax
    e58c:	48 63 d0             	movslq %eax,%rdx
    e58f:	8b 85 00 f4 ff ff    	mov    -0xc00(%rbp),%eax
    e595:	48 98                	cltq   
    e597:	48 89 d6             	mov    %rdx,%rsi
    e59a:	48 89 c7             	mov    %rax,%rdi
    e59d:	e8 9f b2 ff ff       	callq  9841 <safe_add_func_int64_t_s_s>
    e5a2:	88 85 f8 f3 ff ff    	mov    %al,-0xc08(%rbp)
    e5a8:	48 8b 05 31 10 01 00 	mov    0x11031(%rip),%rax        # 1f5e0 <g_1507>
    e5af:	48 8d 95 00 f4 ff ff 	lea    -0xc00(%rbp),%rdx
    e5b6:	48 89 10             	mov    %rdx,(%rax)
    e5b9:	8b 05 a9 1b 01 00    	mov    0x11ba9(%rip),%eax        # 20168 <g_838>
    e5bf:	83 c0 01             	add    $0x1,%eax
    e5c2:	89 05 a0 1b 01 00    	mov    %eax,0x11ba0(%rip)        # 20168 <g_838>
    e5c8:	8b 05 9a 1b 01 00    	mov    0x11b9a(%rip),%eax        # 20168 <g_838>
    e5ce:	83 f8 06             	cmp    $0x6,%eax
    e5d1:	76 b3                	jbe    e586 <func_37+0x85c>
    e5d3:	66 83 85 fc f3 ff ff 	addw   $0x1,-0xc04(%rbp)
    e5da:	01 
    e5db:	c6 05 4a db 00 00 00 	movb   $0x0,0xdb4a(%rip)        # 1c12c <g_109>
    e5e2:	90                   	nop
    e5e3:	0f b6 05 42 db 00 00 	movzbl 0xdb42(%rip),%eax        # 1c12c <g_109>
    e5ea:	3c 06                	cmp    $0x6,%al
    e5ec:	77 0c                	ja     e5fa <func_37+0x8d0>
    e5ee:	0f b6 85 e4 f3 ff ff 	movzbl -0xc1c(%rbp),%eax
    e5f5:	e9 04 0d 00 00       	jmpq   f2fe <func_37+0x15d4>
    e5fa:	8b 85 10 f4 ff ff    	mov    -0xbf0(%rbp),%eax
    e600:	83 e8 01             	sub    $0x1,%eax
    e603:	89 85 10 f4 ff ff    	mov    %eax,-0xbf0(%rbp)
    e609:	8b 85 10 f4 ff ff    	mov    -0xbf0(%rbp),%eax
    e60f:	85 c0                	test   %eax,%eax
    e611:	0f 89 63 ff ff ff    	jns    e57a <func_37+0x850>
    e617:	83 ad 68 f4 ff ff 01 	subl   $0x1,-0xb98(%rbp)
    e61e:	0f b7 05 f1 db 00 00 	movzwl 0xdbf1(%rip),%eax        # 1c216 <g_714>
    e625:	83 c0 01             	add    $0x1,%eax
    e628:	66 89 05 e7 db 00 00 	mov    %ax,0xdbe7(%rip)        # 1c216 <g_714>
    e62f:	0f b7 05 e0 db 00 00 	movzwl 0xdbe0(%rip),%eax        # 1c216 <g_714>
    e636:	66 83 f8 0f          	cmp    $0xf,%ax
    e63a:	0f 8f 21 ff ff ff    	jg     e561 <func_37+0x837>
    e640:	e9 34 09 00 00       	jmpq   ef79 <func_37+0x124f>
    e645:	48 b8 d6 fe 33 30 88 	movabs $0xf4a05a883033fed6,%rax
    e64c:	5a a0 f4 
    e64f:	48 89 85 f8 f4 ff ff 	mov    %rax,-0xb08(%rbp)
    e656:	48 8d 85 10 f4 ff ff 	lea    -0xbf0(%rbp),%rax
    e65d:	48 89 85 00 f5 ff ff 	mov    %rax,-0xb00(%rbp)
    e664:	48 c7 85 08 f5 ff ff 	movq   $0x0,-0xaf8(%rbp)
    e66b:	00 00 00 00 
    e66f:	48 8d 05 7a 0f 01 00 	lea    0x10f7a(%rip),%rax        # 1f5f0 <g_1568>
    e676:	48 89 85 10 f5 ff ff 	mov    %rax,-0xaf0(%rbp)
    e67d:	48 8d 05 a8 da 00 00 	lea    0xdaa8(%rip),%rax        # 1c12c <g_109>
    e684:	48 89 85 18 f5 ff ff 	mov    %rax,-0xae8(%rbp)
    e68b:	c6 85 f7 f3 ff ff 00 	movb   $0x0,-0xc09(%rbp)
    e692:	48 8d 85 30 f6 ff ff 	lea    -0x9d0(%rbp),%rax
    e699:	48 89 85 20 f5 ff ff 	mov    %rax,-0xae0(%rbp)
    e6a0:	c7 85 18 f4 ff ff 81 	movl   $0xd0b26281,-0xbe8(%rbp)
    e6a7:	62 b2 d0 
    e6aa:	c7 85 d0 f6 ff ff f7 	movl   $0xfffffff7,-0x930(%rbp)
    e6b1:	ff ff ff 
    e6b4:	c7 85 d4 f6 ff ff f7 	movl   $0xfffffff7,-0x92c(%rbp)
    e6bb:	ff ff ff 
    e6be:	c7 85 d8 f6 ff ff f7 	movl   $0xfffffff7,-0x928(%rbp)
    e6c5:	ff ff ff 
    e6c8:	c7 85 dc f6 ff ff f7 	movl   $0xfffffff7,-0x924(%rbp)
    e6cf:	ff ff ff 
    e6d2:	c7 85 e0 f6 ff ff f7 	movl   $0xfffffff7,-0x920(%rbp)
    e6d9:	ff ff ff 
    e6dc:	c7 85 e4 f6 ff ff f7 	movl   $0xfffffff7,-0x91c(%rbp)
    e6e3:	ff ff ff 
    e6e6:	c7 85 e8 f6 ff ff f7 	movl   $0xfffffff7,-0x918(%rbp)
    e6ed:	ff ff ff 
    e6f0:	c7 85 ec f6 ff ff f7 	movl   $0xfffffff7,-0x914(%rbp)
    e6f7:	ff ff ff 
    e6fa:	c7 85 f0 f6 ff ff f7 	movl   $0xfffffff7,-0x910(%rbp)
    e701:	ff ff ff 
    e704:	c7 85 f4 f6 ff ff f7 	movl   $0xfffffff7,-0x90c(%rbp)
    e70b:	ff ff ff 
    e70e:	c7 85 f8 f6 ff ff f7 	movl   $0xfffffff7,-0x908(%rbp)
    e715:	ff ff ff 
    e718:	c7 85 fc f6 ff ff f7 	movl   $0xfffffff7,-0x904(%rbp)
    e71f:	ff ff ff 
    e722:	c7 85 00 f7 ff ff f7 	movl   $0xfffffff7,-0x900(%rbp)
    e729:	ff ff ff 
    e72c:	c7 85 04 f7 ff ff f7 	movl   $0xfffffff7,-0x8fc(%rbp)
    e733:	ff ff ff 
    e736:	c7 85 08 f7 ff ff f7 	movl   $0xfffffff7,-0x8f8(%rbp)
    e73d:	ff ff ff 
    e740:	c7 85 0c f7 ff ff f7 	movl   $0xfffffff7,-0x8f4(%rbp)
    e747:	ff ff ff 
    e74a:	c7 85 10 f7 ff ff f7 	movl   $0xfffffff7,-0x8f0(%rbp)
    e751:	ff ff ff 
    e754:	c7 85 14 f7 ff ff f7 	movl   $0xfffffff7,-0x8ec(%rbp)
    e75b:	ff ff ff 
    e75e:	c7 85 18 f7 ff ff f7 	movl   $0xfffffff7,-0x8e8(%rbp)
    e765:	ff ff ff 
    e768:	c7 85 1c f7 ff ff f7 	movl   $0xfffffff7,-0x8e4(%rbp)
    e76f:	ff ff ff 
    e772:	c7 85 1c f4 ff ff b1 	movl   $0x62c2d7b1,-0xbe4(%rbp)
    e779:	d7 c2 62 
    e77c:	48 c7 85 a0 f4 ff ff 	movq   $0x0,-0xb60(%rbp)
    e783:	00 00 00 00 
    e787:	48 8d 05 5a 0e 01 00 	lea    0x10e5a(%rip),%rax        # 1f5e8 <g_1564>
    e78e:	48 89 85 28 f5 ff ff 	mov    %rax,-0xad8(%rbp)
    e795:	c7 85 34 f4 ff ff 00 	movl   $0x0,-0xbcc(%rbp)
    e79c:	00 00 00 
    e79f:	e9 85 00 00 00       	jmpq   e829 <func_37+0xaff>
    e7a4:	c7 85 38 f4 ff ff 00 	movl   $0x0,-0xbc8(%rbp)
    e7ab:	00 00 00 
    e7ae:	eb 69                	jmp    e819 <func_37+0xaef>
    e7b0:	c7 85 3c f4 ff ff 00 	movl   $0x0,-0xbc4(%rbp)
    e7b7:	00 00 00 
    e7ba:	eb 4d                	jmp    e809 <func_37+0xadf>
    e7bc:	8b 85 3c f4 ff ff    	mov    -0xbc4(%rbp),%eax
    e7c2:	48 63 f0             	movslq %eax,%rsi
    e7c5:	8b 85 34 f4 ff ff    	mov    -0xbcc(%rbp),%eax
    e7cb:	48 63 d0             	movslq %eax,%rdx
    e7ce:	8b 85 38 f4 ff ff    	mov    -0xbc8(%rbp),%eax
    e7d4:	48 63 c8             	movslq %eax,%rcx
    e7d7:	48 89 d0             	mov    %rdx,%rax
    e7da:	48 c1 e0 04          	shl    $0x4,%rax
    e7de:	48 29 d0             	sub    %rdx,%rax
    e7e1:	48 01 c0             	add    %rax,%rax
    e7e4:	48 89 ca             	mov    %rcx,%rdx
    e7e7:	48 01 d2             	add    %rdx,%rdx
    e7ea:	48 01 ca             	add    %rcx,%rdx
    e7ed:	48 01 d0             	add    %rdx,%rax
    e7f0:	48 01 f0             	add    %rsi,%rax
    e7f3:	48 8d 15 6e 03 01 00 	lea    0x1036e(%rip),%rdx        # 1eb68 <g_587>
    e7fa:	48 89 94 c5 40 f8 ff 	mov    %rdx,-0x7c0(%rbp,%rax,8)
    e801:	ff 
    e802:	83 85 3c f4 ff ff 01 	addl   $0x1,-0xbc4(%rbp)
    e809:	83 bd 3c f4 ff ff 02 	cmpl   $0x2,-0xbc4(%rbp)
    e810:	7e aa                	jle    e7bc <func_37+0xa92>
    e812:	83 85 38 f4 ff ff 01 	addl   $0x1,-0xbc8(%rbp)
    e819:	83 bd 38 f4 ff ff 09 	cmpl   $0x9,-0xbc8(%rbp)
    e820:	7e 8e                	jle    e7b0 <func_37+0xa86>
    e822:	83 85 34 f4 ff ff 01 	addl   $0x1,-0xbcc(%rbp)
    e829:	83 bd 34 f4 ff ff 07 	cmpl   $0x7,-0xbcc(%rbp)
    e830:	0f 8e 6e ff ff ff    	jle    e7a4 <func_37+0xa7a>
    e836:	c7 85 20 f4 ff ff 0c 	movl   $0xc,-0xbe0(%rbp)
    e83d:	00 00 00 
    e840:	e9 a1 02 00 00       	jmpq   eae6 <func_37+0xdbc>
    e845:	48 b8 c8 08 ec 20 78 	movabs $0x1597947820ec08c8,%rax
    e84c:	94 97 15 
    e84f:	48 89 85 a8 f5 ff ff 	mov    %rax,-0xa58(%rbp)
    e856:	48 8d 05 a3 fd 00 00 	lea    0xfda3(%rip),%rax        # 1e600 <g_261>
    e85d:	48 89 85 b0 f5 ff ff 	mov    %rax,-0xa50(%rbp)
    e864:	48 8d 05 95 fd 00 00 	lea    0xfd95(%rip),%rax        # 1e600 <g_261>
    e86b:	48 89 85 a8 f4 ff ff 	mov    %rax,-0xb58(%rbp)
    e872:	48 8d 85 a8 f4 ff ff 	lea    -0xb58(%rbp),%rax
    e879:	48 89 85 b0 f4 ff ff 	mov    %rax,-0xb50(%rbp)
    e880:	48 8d 85 b0 f4 ff ff 	lea    -0xb50(%rbp),%rax
    e887:	48 89 85 b8 f5 ff ff 	mov    %rax,-0xa48(%rbp)
    e88e:	c7 85 60 f4 ff ff 01 	movl   $0x1,-0xba0(%rbp)
    e895:	00 00 00 
    e898:	c7 85 64 f4 ff ff 00 	movl   $0x0,-0xb9c(%rbp)
    e89f:	00 00 00 
    e8a2:	48 c7 85 c0 f5 ff ff 	movq   $0x0,-0xa40(%rbp)
    e8a9:	00 00 00 00 
    e8ad:	c7 85 20 f7 ff ff fc 	movl   $0xfffffffc,-0x8e0(%rbp)
    e8b4:	ff ff ff 
    e8b7:	c7 85 24 f7 ff ff 31 	movl   $0x240fa131,-0x8dc(%rbp)
    e8be:	a1 0f 24 
    e8c1:	c7 85 28 f7 ff ff 9f 	movl   $0xf6218d9f,-0x8d8(%rbp)
    e8c8:	8d 21 f6 
    e8cb:	c7 85 2c f7 ff ff 60 	movl   $0x53bfc60,-0x8d4(%rbp)
    e8d2:	fc 3b 05 
    e8d5:	c7 85 30 f7 ff ff 6a 	movl   $0x80b5fa6a,-0x8d0(%rbp)
    e8dc:	fa b5 80 
    e8df:	c7 85 34 f7 ff ff fc 	movl   $0xfffffffc,-0x8cc(%rbp)
    e8e6:	ff ff ff 
    e8e9:	c7 85 38 f7 ff ff fc 	movl   $0xfffffffc,-0x8c8(%rbp)
    e8f0:	ff ff ff 
    e8f3:	c7 85 3c f7 ff ff 6a 	movl   $0x80b5fa6a,-0x8c4(%rbp)
    e8fa:	fa b5 80 
    e8fd:	c7 85 40 f7 ff ff 35 	movl   $0xca74d535,-0x8c0(%rbp)
    e904:	d5 74 ca 
    e907:	c7 85 44 f7 ff ff 9f 	movl   $0xf6218d9f,-0x8bc(%rbp)
    e90e:	8d 21 f6 
    e911:	c7 85 48 f7 ff ff 9f 	movl   $0xf6218d9f,-0x8b8(%rbp)
    e918:	8d 21 f6 
    e91b:	c7 85 4c f7 ff ff 35 	movl   $0xca74d535,-0x8b4(%rbp)
    e922:	d5 74 ca 
    e925:	c7 85 50 f7 ff ff 05 	movl   $0x5,-0x8b0(%rbp)
    e92c:	00 00 00 
    e92f:	c7 85 54 f7 ff ff 88 	movl   $0x1b33f088,-0x8ac(%rbp)
    e936:	f0 33 1b 
    e939:	c7 85 58 f7 ff ff 6a 	movl   $0x80b5fa6a,-0x8a8(%rbp)
    e940:	fa b5 80 
    e943:	c7 85 5c f7 ff ff 9f 	movl   $0xf6218d9f,-0x8a4(%rbp)
    e94a:	8d 21 f6 
    e94d:	c7 85 60 f7 ff ff 6a 	movl   $0x80b5fa6a,-0x8a0(%rbp)
    e954:	fa b5 80 
    e957:	c7 85 64 f7 ff ff ff 	movl   $0xffffffff,-0x89c(%rbp)
    e95e:	ff ff ff 
    e961:	c7 85 68 f7 ff ff 01 	movl   $0x1,-0x898(%rbp)
    e968:	00 00 00 
    e96b:	c7 85 6c f7 ff ff fe 	movl   $0xfffffffe,-0x894(%rbp)
    e972:	ff ff ff 
    e975:	c7 85 70 f7 ff ff ff 	movl   $0xffffffff,-0x890(%rbp)
    e97c:	ff ff ff 
    e97f:	c7 85 74 f7 ff ff 62 	movl   $0xa39ac362,-0x88c(%rbp)
    e986:	c3 9a a3 
    e989:	c7 85 78 f7 ff ff ff 	movl   $0xffffffff,-0x888(%rbp)
    e990:	ff ff ff 
    e993:	c7 85 7c f7 ff ff fe 	movl   $0xfffffffe,-0x884(%rbp)
    e99a:	ff ff ff 
    e99d:	c7 85 80 f7 ff ff 88 	movl   $0x1b33f088,-0x880(%rbp)
    e9a4:	f0 33 1b 
    e9a7:	c7 85 84 f7 ff ff ff 	movl   $0xffffffff,-0x87c(%rbp)
    e9ae:	ff ff ff 
    e9b1:	c7 85 88 f7 ff ff 88 	movl   $0x1b33f088,-0x878(%rbp)
    e9b8:	f0 33 1b 
    e9bb:	c7 85 8c f7 ff ff 9f 	movl   $0xf6218d9f,-0x874(%rbp)
    e9c2:	8d 21 f6 
    e9c5:	c7 85 90 f7 ff ff 6a 	movl   $0x80b5fa6a,-0x870(%rbp)
    e9cc:	fa b5 80 
    e9cf:	c7 85 94 f7 ff ff 88 	movl   $0x1b33f088,-0x86c(%rbp)
    e9d6:	f0 33 1b 
    e9d9:	c7 85 98 f7 ff ff 05 	movl   $0x5,-0x868(%rbp)
    e9e0:	00 00 00 
    e9e3:	c7 85 9c f7 ff ff 35 	movl   $0xca74d535,-0x864(%rbp)
    e9ea:	d5 74 ca 
    e9ed:	c7 85 a0 f7 ff ff 31 	movl   $0x240fa131,-0x860(%rbp)
    e9f4:	a1 0f 24 
    e9f7:	c7 85 a4 f7 ff ff 9f 	movl   $0xf6218d9f,-0x85c(%rbp)
    e9fe:	8d 21 f6 
    ea01:	c7 85 a8 f7 ff ff 60 	movl   $0x53bfc60,-0x858(%rbp)
    ea08:	fc 3b 05 
    ea0b:	c7 85 ac f7 ff ff 6a 	movl   $0x80b5fa6a,-0x854(%rbp)
    ea12:	fa b5 80 
    ea15:	c7 85 b0 f7 ff ff fc 	movl   $0xfffffffc,-0x850(%rbp)
    ea1c:	ff ff ff 
    ea1f:	c7 85 b4 f7 ff ff fc 	movl   $0xfffffffc,-0x84c(%rbp)
    ea26:	ff ff ff 
    ea29:	c7 85 b8 f7 ff ff 6a 	movl   $0x80b5fa6a,-0x848(%rbp)
    ea30:	fa b5 80 
    ea33:	c7 85 bc f7 ff ff 60 	movl   $0x53bfc60,-0x844(%rbp)
    ea3a:	fc 3b 05 
    ea3d:	c7 85 c0 f7 ff ff 31 	movl   $0x240fa131,-0x840(%rbp)
    ea44:	a1 0f 24 
    ea47:	c7 85 c4 f7 ff ff 31 	movl   $0x240fa131,-0x83c(%rbp)
    ea4e:	a1 0f 24 
    ea51:	c7 85 c8 f7 ff ff 62 	movl   $0xa39ac362,-0x838(%rbp)
    ea58:	c3 9a a3 
    ea5b:	c7 85 cc f7 ff ff fe 	movl   $0xfffffffe,-0x834(%rbp)
    ea62:	ff ff ff 
    ea65:	c7 85 d0 f7 ff ff 6a 	movl   $0x80b5fa6a,-0x830(%rbp)
    ea6c:	fa b5 80 
    ea6f:	c7 85 d4 f7 ff ff 4b 	movl   $0x4d0ada4b,-0x82c(%rbp)
    ea76:	da 0a 4d 
    ea79:	c7 85 d8 f7 ff ff 31 	movl   $0x240fa131,-0x828(%rbp)
    ea80:	a1 0f 24 
    ea83:	c7 85 dc f7 ff ff 6a 	movl   $0x80b5fa6a,-0x824(%rbp)
    ea8a:	fa b5 80 
    ea8d:	48 8d 85 04 f4 ff ff 	lea    -0xbfc(%rbp),%rax
    ea94:	48 89 85 c8 f5 ff ff 	mov    %rax,-0xa38(%rbp)
    ea9b:	48 c7 85 d0 f5 ff ff 	movq   $0x0,-0xa30(%rbp)
    eaa2:	00 00 00 00 
    eaa6:	48 8d 85 a0 f4 ff ff 	lea    -0xb60(%rbp),%rax
    eaad:	48 89 85 d8 f5 ff ff 	mov    %rax,-0xa28(%rbp)
    eab4:	48 c7 85 e0 f5 ff ff 	movq   $0x0,-0xa20(%rbp)
    eabb:	00 00 00 00 
    eabf:	48 8d 85 1c f4 ff ff 	lea    -0xbe4(%rbp),%rax
    eac6:	48 89 85 e8 f5 ff ff 	mov    %rax,-0xa18(%rbp)
    eacd:	8b 85 20 f4 ff ff    	mov    -0xbe0(%rbp),%eax
    ead3:	be 01 00 00 00       	mov    $0x1,%esi
    ead8:	48 89 c7             	mov    %rax,%rdi
    eadb:	e8 c8 ad ff ff       	callq  98a8 <safe_sub_func_int64_t_s_s>
    eae0:	89 85 20 f4 ff ff    	mov    %eax,-0xbe0(%rbp)
    eae6:	83 bd 20 f4 ff ff 02 	cmpl   $0x2,-0xbe0(%rbp)
    eaed:	0f 85 52 fd ff ff    	jne    e845 <func_37+0xb1b>
    eaf3:	c7 85 24 f4 ff ff 18 	movl   $0x18,-0xbdc(%rbp)
    eafa:	00 00 00 
    eafd:	e9 6a 04 00 00       	jmpq   ef6c <func_37+0x1242>
    eb02:	48 c7 85 30 f5 ff ff 	movq   $0xfffffffffffffffc,-0xad0(%rbp)
    eb09:	fc ff ff ff 
    eb0d:	c7 85 b0 f4 ff ff 9b 	movl   $0x214ce99b,-0xb50(%rbp)
    eb14:	e9 4c 21 
    eb17:	c7 05 7f d5 00 00 04 	movl   $0x4,0xd57f(%rip)        # 1c0a0 <g_89>
    eb1e:	00 00 00 
    eb21:	e9 31 04 00 00       	jmpq   ef57 <func_37+0x122d>
    eb26:	66 c7 85 fe f3 ff ff 	movw   $0x5da4,-0xc02(%rbp)
    eb2d:	a4 5d 
    eb2f:	c7 85 58 f4 ff ff c8 	movl   $0x735d47c8,-0xba8(%rbp)
    eb36:	47 5d 73 
    eb39:	48 8d 05 ec d6 00 00 	lea    0xd6ec(%rip),%rax        # 1c22c <g_1375+0xc>
    eb40:	48 89 85 38 f5 ff ff 	mov    %rax,-0xac8(%rbp)
    eb47:	0f b7 85 fe f3 ff ff 	movzwl -0xc02(%rbp),%eax
    eb4e:	83 e8 01             	sub    $0x1,%eax
    eb51:	66 89 85 fe f3 ff ff 	mov    %ax,-0xc02(%rbp)
    eb58:	48 8b 85 00 f5 ff ff 	mov    -0xb00(%rbp),%rax
    eb5f:	44 8b 20             	mov    (%rax),%r12d
    eb62:	8b 85 e8 f3 ff ff    	mov    -0xc18(%rbp),%eax
    eb68:	0f b6 d8             	movzbl %al,%ebx
    eb6b:	48 83 bd e0 f4 ff ff 	cmpq   $0x0,-0xb20(%rbp)
    eb72:	00 
    eb73:	0f 95 c0             	setne  %al
    eb76:	44 0f b6 e8          	movzbl %al,%r13d
    eb7a:	8b 85 e0 f3 ff ff    	mov    -0xc20(%rbp),%eax
    eb80:	c1 e8 1f             	shr    $0x1f,%eax
    eb83:	0f b6 c0             	movzbl %al,%eax
    eb86:	89 c6                	mov    %eax,%esi
    eb88:	bf 01 34 00 00       	mov    $0x3401,%edi
    eb8d:	e8 8d b1 ff ff       	callq  9d1f <safe_sub_func_uint16_t_u_u>
    eb92:	0f b7 c0             	movzwl %ax,%eax
    eb95:	41 39 c5             	cmp    %eax,%r13d
    eb98:	0f 95 c0             	setne  %al
    eb9b:	0f b6 c0             	movzbl %al,%eax
    eb9e:	be 04 00 00 00       	mov    $0x4,%esi
    eba3:	89 c7                	mov    %eax,%edi
    eba5:	e8 a2 b0 ff ff       	callq  9c4c <safe_lshift_func_uint8_t_u_u>
    ebaa:	44 0f b6 e8          	movzbl %al,%r13d
    ebae:	c6 85 e4 f3 ff ff 03 	movb   $0x3,-0xc1c(%rbp)
    ebb5:	48 8b 85 30 f5 ff ff 	mov    -0xad0(%rbp),%rax
    ebbc:	0f be c0             	movsbl %al,%eax
    ebbf:	be 03 00 00 00       	mov    $0x3,%esi
    ebc4:	89 c7                	mov    %eax,%edi
    ebc6:	e8 6a a7 ff ff       	callq  9335 <safe_rshift_func_int8_t_s_s>
    ebcb:	0f b6 c0             	movzbl %al,%eax
    ebce:	be 05 00 00 00       	mov    $0x5,%esi
    ebd3:	89 c7                	mov    %eax,%edi
    ebd5:	e8 2b b0 ff ff       	callq  9c05 <safe_lshift_func_uint8_t_u_s>
    ebda:	0f b6 c0             	movzbl %al,%eax
    ebdd:	48 39 85 30 f5 ff ff 	cmp    %rax,-0xad0(%rbp)
    ebe4:	74 07                	je     ebed <func_37+0xec3>
    ebe6:	b8 01 00 00 00       	mov    $0x1,%eax
    ebeb:	eb 05                	jmp    ebf2 <func_37+0xec8>
    ebed:	b8 00 00 00 00       	mov    $0x0,%eax
    ebf2:	09 85 58 f4 ff ff    	or     %eax,-0xba8(%rbp)
    ebf8:	8b 85 58 f4 ff ff    	mov    -0xba8(%rbp),%eax
    ebfe:	89 85 b0 f4 ff ff    	mov    %eax,-0xb50(%rbp)
    ec04:	8b 85 b0 f4 ff ff    	mov    -0xb50(%rbp),%eax
    ec0a:	41 39 c5             	cmp    %eax,%r13d
    ec0d:	0f 9f c0             	setg   %al
    ec10:	89 c2                	mov    %eax,%edx
    ec12:	8b 85 e0 f3 ff ff    	mov    -0xc20(%rbp),%eax
    ec18:	09 d0                	or     %edx,%eax
    ec1a:	0f b6 c0             	movzbl %al,%eax
    ec1d:	89 de                	mov    %ebx,%esi
    ec1f:	89 c7                	mov    %eax,%edi
    ec21:	e8 6d af ff ff       	callq  9b93 <safe_mul_func_uint8_t_u_u>
    ec26:	0f b6 d0             	movzbl %al,%edx
    ec29:	48 8b 85 38 f5 ff ff 	mov    -0xac8(%rbp),%rax
    ec30:	66 89 10             	mov    %dx,(%rax)
    ec33:	48 8b 85 38 f5 ff ff 	mov    -0xac8(%rbp),%rax
    ec3a:	0f b7 00             	movzwl (%rax),%eax
    ec3d:	0f b7 c0             	movzwl %ax,%eax
    ec40:	41 39 c4             	cmp    %eax,%r12d
    ec43:	0f 9e c0             	setle  %al
    ec46:	0f b6 d0             	movzbl %al,%edx
    ec49:	8b 85 10 f4 ff ff    	mov    -0xbf0(%rbp),%eax
    ec4f:	39 c2                	cmp    %eax,%edx
    ec51:	0f 9d c0             	setge  %al
    ec54:	0f b6 c0             	movzbl %al,%eax
    ec57:	39 85 54 f4 ff ff    	cmp    %eax,-0xbac(%rbp)
    ec5d:	0f 97 c0             	seta   %al
    ec60:	0f b6 d0             	movzbl %al,%edx
    ec63:	48 8b 85 00 f5 ff ff 	mov    -0xb00(%rbp),%rax
    ec6a:	89 10                	mov    %edx,(%rax)
    ec6c:	c7 85 10 f4 ff ff 00 	movl   $0x0,-0xbf0(%rbp)
    ec73:	00 00 00 
    ec76:	e9 be 02 00 00       	jmpq   ef39 <func_37+0x120f>
    ec7b:	48 8d 85 04 f4 ff ff 	lea    -0xbfc(%rbp),%rax
    ec82:	48 89 85 40 f5 ff ff 	mov    %rax,-0xac0(%rbp)
    ec89:	48 8d 85 b0 f4 ff ff 	lea    -0xb50(%rbp),%rax
    ec90:	48 89 85 48 f5 ff ff 	mov    %rax,-0xab8(%rbp)
    ec97:	48 c7 85 50 f5 ff ff 	movq   $0x0,-0xab0(%rbp)
    ec9e:	00 00 00 00 
    eca2:	48 c7 85 58 f5 ff ff 	movq   $0x0,-0xaa8(%rbp)
    eca9:	00 00 00 00 
    ecad:	48 8d 85 0c f4 ff ff 	lea    -0xbf4(%rbp),%rax
    ecb4:	48 89 85 60 f5 ff ff 	mov    %rax,-0xaa0(%rbp)
    ecbb:	48 8d 85 14 f4 ff ff 	lea    -0xbec(%rbp),%rax
    ecc2:	48 89 85 68 f5 ff ff 	mov    %rax,-0xa98(%rbp)
    ecc9:	48 8d 85 14 f4 ff ff 	lea    -0xbec(%rbp),%rax
    ecd0:	48 89 85 70 f5 ff ff 	mov    %rax,-0xa90(%rbp)
    ecd7:	48 8d 85 0c f4 ff ff 	lea    -0xbf4(%rbp),%rax
    ecde:	48 89 85 78 f5 ff ff 	mov    %rax,-0xa88(%rbp)
    ece5:	48 c7 85 80 f5 ff ff 	movq   $0x0,-0xa80(%rbp)
    ecec:	00 00 00 00 
    ecf0:	48 8d 85 18 f4 ff ff 	lea    -0xbe8(%rbp),%rax
    ecf7:	48 89 85 88 f5 ff ff 	mov    %rax,-0xa78(%rbp)
    ecfe:	48 8d 05 7b d4 00 00 	lea    0xd47b(%rip),%rax        # 1c180 <g_238>
    ed05:	48 89 85 90 f5 ff ff 	mov    %rax,-0xa70(%rbp)
    ed0c:	48 8d 85 b0 f4 ff ff 	lea    -0xb50(%rbp),%rax
    ed13:	48 89 85 98 f5 ff ff 	mov    %rax,-0xa68(%rbp)
    ed1a:	48 8d 85 14 f4 ff ff 	lea    -0xbec(%rbp),%rax
    ed21:	48 89 85 a0 f5 ff ff 	mov    %rax,-0xa60(%rbp)
    ed28:	48 8d 85 08 f4 ff ff 	lea    -0xbf8(%rbp),%rax
    ed2f:	48 89 85 20 f7 ff ff 	mov    %rax,-0x8e0(%rbp)
    ed36:	48 8d 85 08 f4 ff ff 	lea    -0xbf8(%rbp),%rax
    ed3d:	48 89 85 28 f7 ff ff 	mov    %rax,-0x8d8(%rbp)
    ed44:	48 8d 85 08 f4 ff ff 	lea    -0xbf8(%rbp),%rax
    ed4b:	48 89 85 30 f7 ff ff 	mov    %rax,-0x8d0(%rbp)
    ed52:	48 8d 85 08 f4 ff ff 	lea    -0xbf8(%rbp),%rax
    ed59:	48 89 85 38 f7 ff ff 	mov    %rax,-0x8c8(%rbp)
    ed60:	48 8d 85 08 f4 ff ff 	lea    -0xbf8(%rbp),%rax
    ed67:	48 89 85 40 f7 ff ff 	mov    %rax,-0x8c0(%rbp)
    ed6e:	48 8d 85 08 f4 ff ff 	lea    -0xbf8(%rbp),%rax
    ed75:	48 89 85 48 f7 ff ff 	mov    %rax,-0x8b8(%rbp)
    ed7c:	48 8d 85 08 f4 ff ff 	lea    -0xbf8(%rbp),%rax
    ed83:	48 89 85 50 f7 ff ff 	mov    %rax,-0x8b0(%rbp)
    ed8a:	48 8d 85 b0 f4 ff ff 	lea    -0xb50(%rbp),%rax
    ed91:	48 89 85 58 f7 ff ff 	mov    %rax,-0x8a8(%rbp)
    ed98:	48 8d 85 b0 f4 ff ff 	lea    -0xb50(%rbp),%rax
    ed9f:	48 89 85 60 f7 ff ff 	mov    %rax,-0x8a0(%rbp)
    eda6:	48 8d 85 b0 f4 ff ff 	lea    -0xb50(%rbp),%rax
    edad:	48 89 85 68 f7 ff ff 	mov    %rax,-0x898(%rbp)
    edb4:	48 8d 85 b0 f4 ff ff 	lea    -0xb50(%rbp),%rax
    edbb:	48 89 85 70 f7 ff ff 	mov    %rax,-0x890(%rbp)
    edc2:	48 8d 85 b0 f4 ff ff 	lea    -0xb50(%rbp),%rax
    edc9:	48 89 85 78 f7 ff ff 	mov    %rax,-0x888(%rbp)
    edd0:	48 8d 85 b0 f4 ff ff 	lea    -0xb50(%rbp),%rax
    edd7:	48 89 85 80 f7 ff ff 	mov    %rax,-0x880(%rbp)
    edde:	48 8d 85 b0 f4 ff ff 	lea    -0xb50(%rbp),%rax
    ede5:	48 89 85 88 f7 ff ff 	mov    %rax,-0x878(%rbp)
    edec:	48 8d 85 08 f4 ff ff 	lea    -0xbf8(%rbp),%rax
    edf3:	48 89 85 90 f7 ff ff 	mov    %rax,-0x870(%rbp)
    edfa:	48 8d 85 08 f4 ff ff 	lea    -0xbf8(%rbp),%rax
    ee01:	48 89 85 98 f7 ff ff 	mov    %rax,-0x868(%rbp)
    ee08:	48 8d 85 08 f4 ff ff 	lea    -0xbf8(%rbp),%rax
    ee0f:	48 89 85 a0 f7 ff ff 	mov    %rax,-0x860(%rbp)
    ee16:	48 8d 85 08 f4 ff ff 	lea    -0xbf8(%rbp),%rax
    ee1d:	48 89 85 a8 f7 ff ff 	mov    %rax,-0x858(%rbp)
    ee24:	48 8d 85 08 f4 ff ff 	lea    -0xbf8(%rbp),%rax
    ee2b:	48 89 85 b0 f7 ff ff 	mov    %rax,-0x850(%rbp)
    ee32:	48 8d 85 08 f4 ff ff 	lea    -0xbf8(%rbp),%rax
    ee39:	48 89 85 b8 f7 ff ff 	mov    %rax,-0x848(%rbp)
    ee40:	48 8d 85 08 f4 ff ff 	lea    -0xbf8(%rbp),%rax
    ee47:	48 89 85 c0 f7 ff ff 	mov    %rax,-0x840(%rbp)
    ee4e:	48 8d 85 b0 f4 ff ff 	lea    -0xb50(%rbp),%rax
    ee55:	48 89 85 c8 f7 ff ff 	mov    %rax,-0x838(%rbp)
    ee5c:	48 8d 85 b0 f4 ff ff 	lea    -0xb50(%rbp),%rax
    ee63:	48 89 85 d0 f7 ff ff 	mov    %rax,-0x830(%rbp)
    ee6a:	48 8d 85 b0 f4 ff ff 	lea    -0xb50(%rbp),%rax
    ee71:	48 89 85 d8 f7 ff ff 	mov    %rax,-0x828(%rbp)
    ee78:	48 8d 85 b0 f4 ff ff 	lea    -0xb50(%rbp),%rax
    ee7f:	48 89 85 e0 f7 ff ff 	mov    %rax,-0x820(%rbp)
    ee86:	48 8d 85 b0 f4 ff ff 	lea    -0xb50(%rbp),%rax
    ee8d:	48 89 85 e8 f7 ff ff 	mov    %rax,-0x818(%rbp)
    ee94:	48 8d 85 b0 f4 ff ff 	lea    -0xb50(%rbp),%rax
    ee9b:	48 89 85 f0 f7 ff ff 	mov    %rax,-0x810(%rbp)
    eea2:	48 8d 85 b0 f4 ff ff 	lea    -0xb50(%rbp),%rax
    eea9:	48 89 85 f8 f7 ff ff 	mov    %rax,-0x808(%rbp)
    eeb0:	48 8d 85 08 f4 ff ff 	lea    -0xbf8(%rbp),%rax
    eeb7:	48 89 85 00 f8 ff ff 	mov    %rax,-0x800(%rbp)
    eebe:	48 8d 85 08 f4 ff ff 	lea    -0xbf8(%rbp),%rax
    eec5:	48 89 85 08 f8 ff ff 	mov    %rax,-0x7f8(%rbp)
    eecc:	48 8d 85 08 f4 ff ff 	lea    -0xbf8(%rbp),%rax
    eed3:	48 89 85 10 f8 ff ff 	mov    %rax,-0x7f0(%rbp)
    eeda:	48 8d 85 08 f4 ff ff 	lea    -0xbf8(%rbp),%rax
    eee1:	48 89 85 18 f8 ff ff 	mov    %rax,-0x7e8(%rbp)
    eee8:	48 8d 85 08 f4 ff ff 	lea    -0xbf8(%rbp),%rax
    eeef:	48 89 85 20 f8 ff ff 	mov    %rax,-0x7e0(%rbp)
    eef6:	48 8d 85 08 f4 ff ff 	lea    -0xbf8(%rbp),%rax
    eefd:	48 89 85 28 f8 ff ff 	mov    %rax,-0x7d8(%rbp)
    ef04:	48 8d 85 08 f4 ff ff 	lea    -0xbf8(%rbp),%rax
    ef0b:	48 89 85 30 f8 ff ff 	mov    %rax,-0x7d0(%rbp)
    ef12:	c7 85 5c f4 ff ff 43 	movl   $0xf8b1de43,-0xba4(%rbp)
    ef19:	de b1 f8 
    ef1c:	83 85 5c f4 ff ff 01 	addl   $0x1,-0xba4(%rbp)
    ef23:	80 bd e4 f3 ff ff 00 	cmpb   $0x0,-0xc1c(%rbp)
    ef2a:	8b 85 10 f4 ff ff    	mov    -0xbf0(%rbp),%eax
    ef30:	83 c0 01             	add    $0x1,%eax
    ef33:	89 85 10 f4 ff ff    	mov    %eax,-0xbf0(%rbp)
    ef39:	8b 85 10 f4 ff ff    	mov    -0xbf0(%rbp),%eax
    ef3f:	83 f8 06             	cmp    $0x6,%eax
    ef42:	0f 8e 33 fd ff ff    	jle    ec7b <func_37+0xf51>
    ef48:	8b 05 52 d1 00 00    	mov    0xd152(%rip),%eax        # 1c0a0 <g_89>
    ef4e:	83 e8 01             	sub    $0x1,%eax
    ef51:	89 05 49 d1 00 00    	mov    %eax,0xd149(%rip)        # 1c0a0 <g_89>
    ef57:	8b 05 43 d1 00 00    	mov    0xd143(%rip),%eax        # 1c0a0 <g_89>
    ef5d:	85 c0                	test   %eax,%eax
    ef5f:	0f 8f c1 fb ff ff    	jg     eb26 <func_37+0xdfc>
    ef65:	83 ad 24 f4 ff ff 01 	subl   $0x1,-0xbdc(%rbp)
    ef6c:	83 bd 24 f4 ff ff f7 	cmpl   $0xfffffff7,-0xbdc(%rbp)
    ef73:	0f 85 89 fb ff ff    	jne    eb02 <func_37+0xdd8>
    ef79:	48 8b 85 f0 f4 ff ff 	mov    -0xb10(%rbp),%rax
    ef80:	8b 95 e0 f3 ff ff    	mov    -0xc20(%rbp),%edx
    ef86:	89 10                	mov    %edx,(%rax)
    ef88:	48 8b 85 f0 f4 ff ff 	mov    -0xb10(%rbp),%rax
    ef8f:	8b 00                	mov    (%rax),%eax
    ef91:	85 c0                	test   %eax,%eax
    ef93:	0f 84 fe 00 00 00    	je     f097 <func_37+0x136d>
    ef99:	c7 85 40 f4 ff ff 00 	movl   $0x0,-0xbc0(%rbp)
    efa0:	00 00 00 
    efa3:	eb 51                	jmp    eff6 <func_37+0x12cc>
    efa5:	c7 85 44 f4 ff ff 00 	movl   $0x0,-0xbbc(%rbp)
    efac:	00 00 00 
    efaf:	eb 35                	jmp    efe6 <func_37+0x12bc>
    efb1:	8b 85 44 f4 ff ff    	mov    -0xbbc(%rbp),%eax
    efb7:	48 63 c8             	movslq %eax,%rcx
    efba:	8b 85 40 f4 ff ff    	mov    -0xbc0(%rbp),%eax
    efc0:	48 63 d0             	movslq %eax,%rdx
    efc3:	48 89 d0             	mov    %rdx,%rax
    efc6:	48 c1 e0 02          	shl    $0x2,%rax
    efca:	48 01 d0             	add    %rdx,%rax
    efcd:	48 01 c8             	add    %rcx,%rax
    efd0:	48 8d 15 01 f3 00 00 	lea    0xf301(%rip),%rdx        # 1e2d8 <g_67+0x58>
    efd7:	48 89 94 c5 40 f8 ff 	mov    %rdx,-0x7c0(%rbp,%rax,8)
    efde:	ff 
    efdf:	83 85 44 f4 ff ff 01 	addl   $0x1,-0xbbc(%rbp)
    efe6:	83 bd 44 f4 ff ff 04 	cmpl   $0x4,-0xbbc(%rbp)
    efed:	7e c2                	jle    efb1 <func_37+0x1287>
    efef:	83 85 40 f4 ff ff 01 	addl   $0x1,-0xbc0(%rbp)
    eff6:	83 bd 40 f4 ff ff 07 	cmpl   $0x7,-0xbc0(%rbp)
    effd:	7e a6                	jle    efa5 <func_37+0x127b>
    efff:	48 8b 05 82 d1 00 00 	mov    0xd182(%rip),%rax        # 1c188 <g_296>
    f006:	48 85 c0             	test   %rax,%rax
    f009:	0f 85 cc f0 ff ff    	jne    e0db <func_37+0x3b1>
    f00f:	c7 05 87 d0 00 00 00 	movl   $0x0,0xd087(%rip)        # 1c0a0 <g_89>
    f016:	00 00 00 
    f019:	eb 2a                	jmp    f045 <func_37+0x131b>
    f01b:	48 8b 85 f0 f4 ff ff 	mov    -0xb10(%rbp),%rax
    f022:	8b 10                	mov    (%rax),%edx
    f024:	0f be 85 e4 f3 ff ff 	movsbl -0xc1c(%rbp),%eax
    f02b:	31 c2                	xor    %eax,%edx
    f02d:	48 8b 85 f0 f4 ff ff 	mov    -0xb10(%rbp),%rax
    f034:	89 10                	mov    %edx,(%rax)
    f036:	8b 05 64 d0 00 00    	mov    0xd064(%rip),%eax        # 1c0a0 <g_89>
    f03c:	83 e8 01             	sub    $0x1,%eax
    f03f:	89 05 5b d0 00 00    	mov    %eax,0xd05b(%rip)        # 1c0a0 <g_89>
    f045:	8b 05 55 d0 00 00    	mov    0xd055(%rip),%eax        # 1c0a0 <g_89>
    f04b:	83 f8 fd             	cmp    $0xfffffffd,%eax
    f04e:	7d cb                	jge    f01b <func_37+0x12f1>
    f050:	48 c7 05 dd d0 00 00 	movq   $0x0,0xd0dd(%rip)        # 1c138 <g_148>
    f057:	00 00 00 00 
    f05b:	eb 2c                	jmp    f089 <func_37+0x135f>
    f05d:	48 8b 05 d4 d0 00 00 	mov    0xd0d4(%rip),%rax        # 1c138 <g_148>
    f064:	48 8d 95 40 f8 ff ff 	lea    -0x7c0(%rbp),%rdx
    f06b:	48 83 c2 58          	add    $0x58,%rdx
    f06f:	48 89 94 c5 30 f6 ff 	mov    %rdx,-0x9d0(%rbp,%rax,8)
    f076:	ff 
    f077:	48 8b 05 ba d0 00 00 	mov    0xd0ba(%rip),%rax        # 1c138 <g_148>
    f07e:	48 83 c0 01          	add    $0x1,%rax
    f082:	48 89 05 af d0 00 00 	mov    %rax,0xd0af(%rip)        # 1c138 <g_148>
    f089:	48 8b 05 a8 d0 00 00 	mov    0xd0a8(%rip),%rax        # 1c138 <g_148>
    f090:	48 85 c0             	test   %rax,%rax
    f093:	74 c8                	je     f05d <func_37+0x1333>
    f095:	eb 15                	jmp    f0ac <func_37+0x1382>
    f097:	c7 85 6c f4 ff ff 02 	movl   $0xdaa24f02,-0xb94(%rbp)
    f09e:	4f a2 da 
    f0a1:	8b 85 6c f4 ff ff    	mov    -0xb94(%rbp),%eax
    f0a7:	e9 52 02 00 00       	jmpq   f2fe <func_37+0x15d4>
    f0ac:	48 8b 85 f0 f4 ff ff 	mov    -0xb10(%rbp),%rax
    f0b3:	8b 00                	mov    (%rax),%eax
    f0b5:	89 c2                	mov    %eax,%edx
    f0b7:	48 8b 05 fa 01 01 00 	mov    0x101fa(%rip),%rax        # 1f2b8 <g_979>
    f0be:	48 8b 00             	mov    (%rax),%rax
    f0c1:	48 8b 00             	mov    (%rax),%rax
    f0c4:	8b 00                	mov    (%rax),%eax
    f0c6:	39 c2                	cmp    %eax,%edx
    f0c8:	0f 86 a2 00 00 00    	jbe    f170 <func_37+0x1446>
    f0ce:	c6 85 f9 f3 ff ff 03 	movb   $0x3,-0xc07(%rbp)
    f0d5:	48 8d 05 24 06 01 00 	lea    0x10624(%rip),%rax        # 1f700 <g_1934>
    f0dc:	48 89 85 10 f6 ff ff 	mov    %rax,-0x9f0(%rbp)
    f0e3:	48 8d 85 10 f4 ff ff 	lea    -0xbf0(%rbp),%rax
    f0ea:	48 89 85 18 f6 ff ff 	mov    %rax,-0x9e8(%rbp)
    f0f1:	48 8b 85 f0 f4 ff ff 	mov    -0xb10(%rbp),%rax
    f0f8:	c7 00 fc ff ff ff    	movl   $0xfffffffc,(%rax)
    f0fe:	48 8b 85 38 f6 ff ff 	mov    -0x9c8(%rbp),%rax
    f105:	48 8b 15 0c 06 01 00 	mov    0x1060c(%rip),%rdx        # 1f718 <g_1933+0x8>
    f10c:	48 89 95 10 f6 ff ff 	mov    %rdx,-0x9f0(%rbp)
    f113:	48 39 85 10 f6 ff ff 	cmp    %rax,-0x9f0(%rbp)
    f11a:	74 13                	je     f12f <func_37+0x1405>
    f11c:	48 8b 85 b0 f6 ff ff 	mov    -0x950(%rbp),%rax
    f123:	48 85 c0             	test   %rax,%rax
    f126:	74 07                	je     f12f <func_37+0x1405>
    f128:	b8 01 00 00 00       	mov    $0x1,%eax
    f12d:	eb 05                	jmp    f134 <func_37+0x140a>
    f12f:	b8 00 00 00 00       	mov    $0x0,%eax
    f134:	89 85 e8 f3 ff ff    	mov    %eax,-0xc18(%rbp)
    f13a:	48 8b 85 f0 f4 ff ff 	mov    -0xb10(%rbp),%rax
    f141:	8b 95 e8 f3 ff ff    	mov    -0xc18(%rbp),%edx
    f147:	89 10                	mov    %edx,(%rax)
    f149:	48 8b 85 e0 f4 ff ff 	mov    -0xb20(%rbp),%rax
    f150:	48 8b 95 18 f6 ff ff 	mov    -0x9e8(%rbp),%rdx
    f157:	48 89 10             	mov    %rdx,(%rax)
    f15a:	48 8b 85 e0 f4 ff ff 	mov    -0xb20(%rbp),%rax
    f161:	48 8b 95 18 f6 ff ff 	mov    -0x9e8(%rbp),%rdx
    f168:	48 89 10             	mov    %rdx,(%rax)
    f16b:	e9 84 01 00 00       	jmpq   f2f4 <func_37+0x15ca>
    f170:	c7 05 2a cf 00 00 e8 	movl   $0xffffffe8,0xcf2a(%rip)        # 1c0a4 <g_99>
    f177:	ff ff ff 
    f17a:	e9 63 01 00 00       	jmpq   f2e2 <func_37+0x15b8>
    f17f:	48 c7 85 08 f6 ff ff 	movq   $0xffffffffffffffff,-0x9f8(%rbp)
    f186:	ff ff ff ff 
    f18a:	0f b6 05 a5 cf 00 00 	movzbl 0xcfa5(%rip),%eax        # 1c136 <g_143>
    f191:	84 c0                	test   %al,%al
    f193:	74 05                	je     f19a <func_37+0x1470>
    f195:	e9 dd f0 ff ff       	jmpq   e277 <func_37+0x54d>
    f19a:	48 c7 05 eb cf 00 00 	movq   $0x0,0xcfeb(%rip)        # 1c190 <g_321>
    f1a1:	00 00 00 00 
    f1a5:	e9 18 01 00 00       	jmpq   f2c2 <func_37+0x1598>
    f1aa:	c7 85 24 f4 ff ff 00 	movl   $0x0,-0xbdc(%rbp)
    f1b1:	00 00 00 
    f1b4:	e9 89 00 00 00       	jmpq   f242 <func_37+0x1518>
    f1b9:	c7 85 48 f4 ff ff 00 	movl   $0x0,-0xbb8(%rbp)
    f1c0:	00 00 00 
    f1c3:	eb 1e                	jmp    f1e3 <func_37+0x14b9>
    f1c5:	8b 85 48 f4 ff ff    	mov    -0xbb8(%rbp),%eax
    f1cb:	48 98                	cltq   
    f1cd:	48 8d 95 00 f4 ff ff 	lea    -0xc00(%rbp),%rdx
    f1d4:	48 89 94 c5 40 f8 ff 	mov    %rdx,-0x7c0(%rbp,%rax,8)
    f1db:	ff 
    f1dc:	83 85 48 f4 ff ff 01 	addl   $0x1,-0xbb8(%rbp)
    f1e3:	83 bd 48 f4 ff ff 06 	cmpl   $0x6,-0xbb8(%rbp)
    f1ea:	7e d9                	jle    f1c5 <func_37+0x149b>
    f1ec:	48 8b 05 25 04 01 00 	mov    0x10425(%rip),%rax        # 1f618 <g_1936>
    f1f3:	48 8b 00             	mov    (%rax),%rax
    f1f6:	8b 10                	mov    (%rax),%edx
    f1f8:	8d 4a ff             	lea    -0x1(%rdx),%ecx
    f1fb:	89 08                	mov    %ecx,(%rax)
    f1fd:	8b 85 e0 f3 ff ff    	mov    -0xc20(%rbp),%eax
    f203:	89 d6                	mov    %edx,%esi
    f205:	89 c7                	mov    %eax,%edi
    f207:	e8 aa a3 ff ff       	callq  95b6 <safe_add_func_int32_t_s_s>
    f20c:	48 8b 05 fd 03 01 00 	mov    0x103fd(%rip),%rax        # 1f610 <g_1651>
    f213:	0f b6 00             	movzbl (%rax),%eax
    f216:	84 c0                	test   %al,%al
    f218:	8b 85 e0 f3 ff ff    	mov    -0xc20(%rbp),%eax
    f21e:	0f be c0             	movsbl %al,%eax
    f221:	be 00 00 00 00       	mov    $0x0,%esi
    f226:	89 c7                	mov    %eax,%edi
    f228:	e8 3f a1 ff ff       	callq  936c <safe_rshift_func_int8_t_s_u>
    f22d:	3c f8                	cmp    $0xf8,%al
    f22f:	0f 9d c0             	setge  %al
    f232:	0f b6 c0             	movzbl %al,%eax
    f235:	31 85 e8 f3 ff ff    	xor    %eax,-0xc18(%rbp)
    f23b:	83 ad 24 f4 ff ff 01 	subl   $0x1,-0xbdc(%rbp)
    f242:	83 bd 24 f4 ff ff 00 	cmpl   $0x0,-0xbdc(%rbp)
    f249:	0f 89 6a ff ff ff    	jns    f1b9 <func_37+0x148f>
    f24f:	48 8b 85 e0 f4 ff ff 	mov    -0xb20(%rbp),%rax
    f256:	48 8d 95 0c f4 ff ff 	lea    -0xbf4(%rbp),%rdx
    f25d:	48 89 10             	mov    %rdx,(%rax)
    f260:	66 c7 85 fa f3 ff ff 	movw   $0x0,-0xc06(%rbp)
    f267:	00 00 
    f269:	eb 28                	jmp    f293 <func_37+0x1569>
    f26b:	83 bd e0 f3 ff ff 00 	cmpl   $0x0,-0xc20(%rbp)
    f272:	75 2b                	jne    f29f <func_37+0x1575>
    f274:	48 8b 05 f5 f8 00 00 	mov    0xf8f5(%rip),%rax        # 1eb70 <g_615>
    f27b:	8b 00                	mov    (%rax),%eax
    f27d:	85 c0                	test   %eax,%eax
    f27f:	75 21                	jne    f2a2 <func_37+0x1578>
    f281:	48 83 bd 08 f6 ff ff 	cmpq   $0x0,-0x9f8(%rbp)
    f288:	00 
    f289:	75 1a                	jne    f2a5 <func_37+0x157b>
    f28b:	66 83 85 fa f3 ff ff 	addw   $0x1,-0xc06(%rbp)
    f292:	01 
    f293:	66 83 bd fa f3 ff ff 	cmpw   $0x21,-0xc06(%rbp)
    f29a:	21 
    f29b:	75 ce                	jne    f26b <func_37+0x1541>
    f29d:	eb 07                	jmp    f2a6 <func_37+0x157c>
    f29f:	90                   	nop
    f2a0:	eb 04                	jmp    f2a6 <func_37+0x157c>
    f2a2:	90                   	nop
    f2a3:	eb 01                	jmp    f2a6 <func_37+0x157c>
    f2a5:	90                   	nop
    f2a6:	48 8b 05 e3 ce 00 00 	mov    0xcee3(%rip),%rax        # 1c190 <g_321>
    f2ad:	be 03 00 00 00       	mov    $0x3,%esi
    f2b2:	89 c7                	mov    %eax,%edi
    f2b4:	e8 ff ab ff ff       	callq  9eb8 <safe_add_func_uint32_t_u_u>
    f2b9:	89 c0                	mov    %eax,%eax
    f2bb:	48 89 05 ce ce 00 00 	mov    %rax,0xcece(%rip)        # 1c190 <g_321>
    f2c2:	48 8b 05 c7 ce 00 00 	mov    0xcec7(%rip),%rax        # 1c190 <g_321>
    f2c9:	48 83 f8 2c          	cmp    $0x2c,%rax
    f2cd:	0f 87 d7 fe ff ff    	ja     f1aa <func_37+0x1480>
    f2d3:	8b 05 cb cd 00 00    	mov    0xcdcb(%rip),%eax        # 1c0a4 <g_99>
    f2d9:	83 c0 01             	add    $0x1,%eax
    f2dc:	89 05 c2 cd 00 00    	mov    %eax,0xcdc2(%rip)        # 1c0a4 <g_99>
    f2e2:	8b 05 bc cd 00 00    	mov    0xcdbc(%rip),%eax        # 1c0a4 <g_99>
    f2e8:	83 f8 10             	cmp    $0x10,%eax
    f2eb:	0f 85 8e fe ff ff    	jne    f17f <func_37+0x1455>
    f2f1:	eb 01                	jmp    f2f4 <func_37+0x15ca>
    f2f3:	90                   	nop
    f2f4:	48 8b 05 e5 01 01 00 	mov    0x101e5(%rip),%rax        # 1f4e0 <g_1485>
    f2fb:	0f b6 00             	movzbl (%rax),%eax
    f2fe:	48 8b 5d c8          	mov    -0x38(%rbp),%rbx
    f302:	64 48 33 1c 25 28 00 	xor    %fs:0x28,%rbx
    f309:	00 00 
    f30b:	74 05                	je     f312 <func_37+0x15e8>
    f30d:	e8 5e 9d ff ff       	callq  9070 <__stack_chk_fail@plt>
    f312:	48 81 c4 08 0c 00 00 	add    $0xc08,%rsp
    f319:	5b                   	pop    %rbx
    f31a:	41 5c                	pop    %r12
    f31c:	41 5d                	pop    %r13
    f31e:	41 5e                	pop    %r14
    f320:	41 5f                	pop    %r15
    f322:	5d                   	pop    %rbp
    f323:	c3                   	retq   

000000000000f324 <func_57>:
    f324:	f3 0f 1e fa          	endbr64 
    f328:	55                   	push   %rbp
    f329:	48 89 e5             	mov    %rsp,%rbp
    f32c:	41 55                	push   %r13
    f32e:	41 54                	push   %r12
    f330:	53                   	push   %rbx
    f331:	48 81 ec 00 10 00 00 	sub    $0x1000,%rsp
    f338:	48 83 0c 24 00       	orq    $0x0,(%rsp)
    f33d:	48 81 ec 00 10 00 00 	sub    $0x1000,%rsp
    f344:	48 83 0c 24 00       	orq    $0x0,(%rsp)
    f349:	48 81 ec 00 10 00 00 	sub    $0x1000,%rsp
    f350:	48 83 0c 24 00       	orq    $0x0,(%rsp)
    f355:	48 81 ec f8 00 00 00 	sub    $0xf8,%rsp
    f35c:	48 89 bd f8 ce ff ff 	mov    %rdi,-0x3108(%rbp)
    f363:	89 f1                	mov    %esi,%ecx
    f365:	89 d0                	mov    %edx,%eax
    f367:	89 ca                	mov    %ecx,%edx
    f369:	88 95 f4 ce ff ff    	mov    %dl,-0x310c(%rbp)
    f36f:	66 89 85 f0 ce ff ff 	mov    %ax,-0x3110(%rbp)
    f376:	64 48 8b 04 25 28 00 	mov    %fs:0x28,%rax
    f37d:	00 00 
    f37f:	48 89 45 d8          	mov    %rax,-0x28(%rbp)
    f383:	31 c0                	xor    %eax,%eax
    f385:	66 c7 85 0c cf ff ff 	movw   $0x9,-0x30f4(%rbp)
    f38c:	09 00 
    f38e:	48 8d 85 f0 d7 ff ff 	lea    -0x2810(%rbp),%rax
    f395:	48 8d 15 84 e1 00 00 	lea    0xe184(%rip),%rdx        # 1d520 <g_2805+0xc00>
    f39c:	b9 28 00 00 00       	mov    $0x28,%ecx
    f3a1:	48 89 c7             	mov    %rax,%rdi
    f3a4:	48 89 d6             	mov    %rdx,%rsi
    f3a7:	f3 48 a5             	rep movsq %ds:(%rsi),%es:(%rdi)
    f3aa:	48 8d 85 30 d9 ff ff 	lea    -0x26d0(%rbp),%rax
    f3b1:	48 8d 15 a8 e2 00 00 	lea    0xe2a8(%rip),%rdx        # 1d660 <g_2805+0xd40>
    f3b8:	b9 2d 00 00 00       	mov    $0x2d,%ecx
    f3bd:	48 89 c7             	mov    %rax,%rdi
    f3c0:	48 89 d6             	mov    %rdx,%rsi
    f3c3:	f3 48 a5             	rep movsq %ds:(%rsi),%es:(%rdi)
    f3c6:	48 8d 05 d7 cc 00 00 	lea    0xccd7(%rip),%rax        # 1c0a4 <g_99>
    f3cd:	48 89 85 40 d0 ff ff 	mov    %rax,-0x2fc0(%rbp)
    f3d4:	48 c7 85 48 d0 ff ff 	movq   $0x0,-0x2fb8(%rbp)
    f3db:	00 00 00 00 
    f3df:	48 c7 85 50 d0 ff ff 	movq   $0x0,-0x2fb0(%rbp)
    f3e6:	00 00 00 00 
    f3ea:	c7 85 1c cf ff ff 75 	movl   $0xfddeae75,-0x30e4(%rbp)
    f3f1:	ae de fd 
    f3f4:	c7 85 20 cf ff ff 76 	movl   $0x8a64cc76,-0x30e0(%rbp)
    f3fb:	cc 64 8a 
    f3fe:	c7 85 24 cf ff ff f2 	movl   $0x466d3cf2,-0x30dc(%rbp)
    f405:	3c 6d 46 
    f408:	c7 85 f0 d3 ff ff dc 	movl   $0xa4c5bdc,-0x2c10(%rbp)
    f40f:	5b 4c 0a 
    f412:	c7 85 f4 d3 ff ff dc 	movl   $0xa4c5bdc,-0x2c0c(%rbp)
    f419:	5b 4c 0a 
    f41c:	c7 85 f8 d3 ff ff dc 	movl   $0xa4c5bdc,-0x2c08(%rbp)
    f423:	5b 4c 0a 
    f426:	c7 85 fc d3 ff ff dc 	movl   $0xa4c5bdc,-0x2c04(%rbp)
    f42d:	5b 4c 0a 
    f430:	c7 85 00 d4 ff ff dc 	movl   $0xa4c5bdc,-0x2c00(%rbp)
    f437:	5b 4c 0a 
    f43a:	c7 85 04 d4 ff ff dc 	movl   $0xa4c5bdc,-0x2bfc(%rbp)
    f441:	5b 4c 0a 
    f444:	c7 85 08 d4 ff ff dc 	movl   $0xa4c5bdc,-0x2bf8(%rbp)
    f44b:	5b 4c 0a 
    f44e:	c7 85 0c d4 ff ff dc 	movl   $0xa4c5bdc,-0x2bf4(%rbp)
    f455:	5b 4c 0a 
    f458:	48 c7 85 58 d0 ff ff 	movq   $0x4,-0x2fa8(%rbp)
    f45f:	04 00 00 00 
    f463:	c6 85 05 cf ff ff 04 	movb   $0x4,-0x30fb(%rbp)
    f46a:	48 8d 05 df 0c 01 00 	lea    0x10cdf(%rip),%rax        # 20150 <g_538>
    f471:	48 89 85 c8 d0 ff ff 	mov    %rax,-0x2f38(%rbp)
    f478:	48 8d 05 e1 f6 00 00 	lea    0xf6e1(%rip),%rax        # 1eb60 <g_588>
    f47f:	48 89 85 60 d0 ff ff 	mov    %rax,-0x2fa0(%rbp)
    f486:	48 8d 05 a7 cc 00 00 	lea    0xcca7(%rip),%rax        # 1c134 <g_131>
    f48d:	48 89 85 d0 d0 ff ff 	mov    %rax,-0x2f30(%rbp)
    f494:	c6 85 03 cf ff ff 06 	movb   $0x6,-0x30fd(%rbp)
    f49b:	48 c7 85 d8 d0 ff ff 	movq   $0x0,-0x2f28(%rbp)
    f4a2:	00 00 00 00 
    f4a6:	c7 85 28 cf ff ff 0f 	movl   $0x9bac320f,-0x30d8(%rbp)
    f4ad:	32 ac 9b 
    f4b0:	c7 85 80 d6 ff ff fa 	movl   $0xfffffffa,-0x2980(%rbp)
    f4b7:	ff ff ff 
    f4ba:	c7 85 84 d6 ff ff 01 	movl   $0x1,-0x297c(%rbp)
    f4c1:	00 00 00 
    f4c4:	c7 85 88 d6 ff ff 01 	movl   $0x1,-0x2978(%rbp)
    f4cb:	00 00 00 
    f4ce:	c7 85 8c d6 ff ff fa 	movl   $0xfffffffa,-0x2974(%rbp)
    f4d5:	ff ff ff 
    f4d8:	c7 85 90 d6 ff ff 01 	movl   $0x1,-0x2970(%rbp)
    f4df:	00 00 00 
    f4e2:	c7 85 94 d6 ff ff fa 	movl   $0xfffffffa,-0x296c(%rbp)
    f4e9:	ff ff ff 
    f4ec:	c7 85 98 d6 ff ff 01 	movl   $0x1,-0x2968(%rbp)
    f4f3:	00 00 00 
    f4f6:	c7 85 9c d6 ff ff 01 	movl   $0x1,-0x2964(%rbp)
    f4fd:	00 00 00 
    f500:	c7 85 a0 d6 ff ff fa 	movl   $0xfffffffa,-0x2960(%rbp)
    f507:	ff ff ff 
    f50a:	c7 85 a4 d6 ff ff fa 	movl   $0xfffffffa,-0x295c(%rbp)
    f511:	ff ff ff 
    f514:	c7 85 a8 d6 ff ff f7 	movl   $0xfffffff7,-0x2958(%rbp)
    f51b:	ff ff ff 
    f51e:	c7 85 ac d6 ff ff fa 	movl   $0xfffffffa,-0x2954(%rbp)
    f525:	ff ff ff 
    f528:	c7 85 b0 d6 ff ff fa 	movl   $0xfffffffa,-0x2950(%rbp)
    f52f:	ff ff ff 
    f532:	c7 85 b4 d6 ff ff 01 	movl   $0x1,-0x294c(%rbp)
    f539:	00 00 00 
    f53c:	c7 85 b8 d6 ff ff 01 	movl   $0x1,-0x2948(%rbp)
    f543:	00 00 00 
    f546:	c7 85 bc d6 ff ff fa 	movl   $0xfffffffa,-0x2944(%rbp)
    f54d:	ff ff ff 
    f550:	c7 85 c0 d6 ff ff 01 	movl   $0x1,-0x2940(%rbp)
    f557:	00 00 00 
    f55a:	c7 85 c4 d6 ff ff fa 	movl   $0xfffffffa,-0x293c(%rbp)
    f561:	ff ff ff 
    f564:	c7 85 c8 d6 ff ff 01 	movl   $0x1,-0x2938(%rbp)
    f56b:	00 00 00 
    f56e:	c7 85 cc d6 ff ff 01 	movl   $0x1,-0x2934(%rbp)
    f575:	00 00 00 
    f578:	c7 85 d0 d6 ff ff fa 	movl   $0xfffffffa,-0x2930(%rbp)
    f57f:	ff ff ff 
    f582:	c7 85 d4 d6 ff ff fa 	movl   $0xfffffffa,-0x292c(%rbp)
    f589:	ff ff ff 
    f58c:	c7 85 d8 d6 ff ff f7 	movl   $0xfffffff7,-0x2928(%rbp)
    f593:	ff ff ff 
    f596:	c7 85 dc d6 ff ff fa 	movl   $0xfffffffa,-0x2924(%rbp)
    f59d:	ff ff ff 
    f5a0:	c7 85 e0 d6 ff ff fa 	movl   $0xfffffffa,-0x2920(%rbp)
    f5a7:	ff ff ff 
    f5aa:	c7 85 e4 d6 ff ff 01 	movl   $0x1,-0x291c(%rbp)
    f5b1:	00 00 00 
    f5b4:	c7 85 e8 d6 ff ff 01 	movl   $0x1,-0x2918(%rbp)
    f5bb:	00 00 00 
    f5be:	c7 85 ec d6 ff ff fa 	movl   $0xfffffffa,-0x2914(%rbp)
    f5c5:	ff ff ff 
    f5c8:	c7 85 f0 d6 ff ff 01 	movl   $0x1,-0x2910(%rbp)
    f5cf:	00 00 00 
    f5d2:	c7 85 f4 d6 ff ff fa 	movl   $0xfffffffa,-0x290c(%rbp)
    f5d9:	ff ff ff 
    f5dc:	c7 85 f8 d6 ff ff 01 	movl   $0x1,-0x2908(%rbp)
    f5e3:	00 00 00 
    f5e6:	c7 85 fc d6 ff ff 01 	movl   $0x1,-0x2904(%rbp)
    f5ed:	00 00 00 
    f5f0:	c7 85 00 d7 ff ff fa 	movl   $0xfffffffa,-0x2900(%rbp)
    f5f7:	ff ff ff 
    f5fa:	c7 85 04 d7 ff ff fa 	movl   $0xfffffffa,-0x28fc(%rbp)
    f601:	ff ff ff 
    f604:	c7 85 08 d7 ff ff f7 	movl   $0xfffffff7,-0x28f8(%rbp)
    f60b:	ff ff ff 
    f60e:	c7 85 0c d7 ff ff fa 	movl   $0xfffffffa,-0x28f4(%rbp)
    f615:	ff ff ff 
    f618:	c7 85 10 d7 ff ff fa 	movl   $0xfffffffa,-0x28f0(%rbp)
    f61f:	ff ff ff 
    f622:	c7 85 14 d7 ff ff 01 	movl   $0x1,-0x28ec(%rbp)
    f629:	00 00 00 
    f62c:	c7 85 18 d7 ff ff 01 	movl   $0x1,-0x28e8(%rbp)
    f633:	00 00 00 
    f636:	c7 85 1c d7 ff ff fa 	movl   $0xfffffffa,-0x28e4(%rbp)
    f63d:	ff ff ff 
    f640:	48 c7 85 68 d0 ff ff 	movq   $0x1,-0x2f98(%rbp)
    f647:	01 00 00 00 
    f64b:	c7 85 20 d6 ff ff 00 	movl   $0x0,-0x29e0(%rbp)
    f652:	00 00 00 
    f655:	c7 85 24 d6 ff ff 00 	movl   $0x0,-0x29dc(%rbp)
    f65c:	00 00 00 
    f65f:	c7 85 28 d6 ff ff 00 	movl   $0x0,-0x29d8(%rbp)
    f666:	00 00 00 
    f669:	c7 85 2c d6 ff ff ab 	movl   $0x9897f9ab,-0x29d4(%rbp)
    f670:	f9 97 98 
    f673:	c7 85 30 d6 ff ff 00 	movl   $0x0,-0x29d0(%rbp)
    f67a:	00 00 00 
    f67d:	c7 85 34 d6 ff ff ab 	movl   $0x9897f9ab,-0x29cc(%rbp)
    f684:	f9 97 98 
    f687:	c7 85 38 d6 ff ff 49 	movl   $0xde66b749,-0x29c8(%rbp)
    f68e:	b7 66 de 
    f691:	c7 85 3c d6 ff ff 00 	movl   $0x0,-0x29c4(%rbp)
    f698:	00 00 00 
    f69b:	c7 85 40 d6 ff ff 49 	movl   $0xde66b749,-0x29c0(%rbp)
    f6a2:	b7 66 de 
    f6a5:	c7 85 44 d6 ff ff ca 	movl   $0x536155ca,-0x29bc(%rbp)
    f6ac:	55 61 53 
    f6af:	c7 85 48 d6 ff ff 00 	movl   $0x0,-0x29b8(%rbp)
    f6b6:	00 00 00 
    f6b9:	c7 85 4c d6 ff ff 00 	movl   $0x0,-0x29b4(%rbp)
    f6c0:	00 00 00 
    f6c3:	c7 85 50 d6 ff ff e7 	movl   $0x2626fae7,-0x29b0(%rbp)
    f6ca:	fa 26 26 
    f6cd:	c7 85 54 d6 ff ff 49 	movl   $0xde66b749,-0x29ac(%rbp)
    f6d4:	b7 66 de 
    f6d7:	c7 85 58 d6 ff ff 49 	movl   $0xde66b749,-0x29a8(%rbp)
    f6de:	b7 66 de 
    f6e1:	c7 85 5c d6 ff ff e7 	movl   $0x2626fae7,-0x29a4(%rbp)
    f6e8:	fa 26 26 
    f6eb:	c7 85 60 d6 ff ff 00 	movl   $0x0,-0x29a0(%rbp)
    f6f2:	00 00 00 
    f6f5:	c7 85 64 d6 ff ff ab 	movl   $0x9897f9ab,-0x299c(%rbp)
    f6fc:	f9 97 98 
    f6ff:	c7 85 68 d6 ff ff ab 	movl   $0x9897f9ab,-0x2998(%rbp)
    f706:	f9 97 98 
    f709:	c7 85 6c d6 ff ff e7 	movl   $0x2626fae7,-0x2994(%rbp)
    f710:	fa 26 26 
    f713:	c7 85 70 d6 ff ff 00 	movl   $0x0,-0x2990(%rbp)
    f71a:	00 00 00 
    f71d:	c7 85 74 d6 ff ff e7 	movl   $0x2626fae7,-0x298c(%rbp)
    f724:	fa 26 26 
    f727:	c7 85 78 d6 ff ff ab 	movl   $0x9897f9ab,-0x2988(%rbp)
    f72e:	f9 97 98 
    f731:	c7 85 7c d6 ff ff ca 	movl   $0x536155ca,-0x2984(%rbp)
    f738:	55 61 53 
    f73b:	c7 85 6c cf ff ff 86 	movl   $0x67bfcc86,-0x3094(%rbp)
    f742:	cc bf 67 
    f745:	8b 85 40 d3 ff ff    	mov    -0x2cc0(%rbp),%eax
    f74b:	25 00 00 f0 ff       	and    $0xfff00000,%eax
    f750:	0d 25 02 00 00       	or     $0x225,%eax
    f755:	89 85 40 d3 ff ff    	mov    %eax,-0x2cc0(%rbp)
    f75b:	8b 85 44 d3 ff ff    	mov    -0x2cbc(%rbp),%eax
    f761:	25 00 00 00 fe       	and    $0xfe000000,%eax
    f766:	0d 1c 09 00 00       	or     $0x91c,%eax
    f76b:	89 85 44 d3 ff ff    	mov    %eax,-0x2cbc(%rbp)
    f771:	8b 85 48 d3 ff ff    	mov    -0x2cb8(%rbp),%eax
    f777:	25 00 00 80 ff       	and    $0xff800000,%eax
    f77c:	0d af 04 00 00       	or     $0x4af,%eax
    f781:	89 85 48 d3 ff ff    	mov    %eax,-0x2cb8(%rbp)
    f787:	0f b7 85 4a d3 ff ff 	movzwl -0x2cb6(%rbp),%eax
    f78e:	66 25 7f c0          	and    $0xc07f,%ax
    f792:	66 0d 80 02          	or     $0x280,%ax
    f796:	66 89 85 4a d3 ff ff 	mov    %ax,-0x2cb6(%rbp)
    f79d:	8b 85 4c d3 ff ff    	mov    -0x2cb4(%rbp),%eax
    f7a3:	25 00 00 00 fc       	and    $0xfc000000,%eax
    f7a8:	0d aa fa ff 03       	or     $0x3fffaaa,%eax
    f7ad:	89 85 4c d3 ff ff    	mov    %eax,-0x2cb4(%rbp)
    f7b3:	0f b7 85 50 d3 ff ff 	movzwl -0x2cb0(%rbp),%eax
    f7ba:	66 25 00 fe          	and    $0xfe00,%ax
    f7be:	66 0d f2 01          	or     $0x1f2,%ax
    f7c2:	66 89 85 50 d3 ff ff 	mov    %ax,-0x2cb0(%rbp)
    f7c9:	0f b6 85 51 d3 ff ff 	movzbl -0x2caf(%rbp),%eax
    f7d0:	83 e0 f1             	and    $0xfffffff1,%eax
    f7d3:	88 85 51 d3 ff ff    	mov    %al,-0x2caf(%rbp)
    f7d9:	48 8d 85 24 cf ff ff 	lea    -0x30dc(%rbp),%rax
    f7e0:	48 89 85 e0 d0 ff ff 	mov    %rax,-0x2f20(%rbp)
    f7e7:	48 8d 85 f0 d3 ff ff 	lea    -0x2c10(%rbp),%rax
    f7ee:	48 83 c0 10          	add    $0x10,%rax
    f7f2:	48 89 85 e8 d0 ff ff 	mov    %rax,-0x2f18(%rbp)
    f7f9:	48 8d 05 00 ee 00 00 	lea    0xee00(%rip),%rax        # 1e600 <g_261>
    f800:	48 89 85 f0 d0 ff ff 	mov    %rax,-0x2f10(%rbp)
    f807:	48 8d 05 9a fa 00 00 	lea    0xfa9a(%rip),%rax        # 1f2a8 <g_981>
    f80e:	48 89 85 70 d0 ff ff 	mov    %rax,-0x2f90(%rbp)
    f815:	48 8d 85 70 d0 ff ff 	lea    -0x2f90(%rbp),%rax
    f81c:	48 89 85 78 d0 ff ff 	mov    %rax,-0x2f88(%rbp)
    f823:	48 c7 85 d0 d5 ff ff 	movq   $0x0,-0x2a30(%rbp)
    f82a:	00 00 00 00 
    f82e:	48 c7 85 d8 d5 ff ff 	movq   $0x0,-0x2a28(%rbp)
    f835:	00 00 00 00 
    f839:	48 c7 85 e0 d5 ff ff 	movq   $0xfffffffffffffffd,-0x2a20(%rbp)
    f840:	fd ff ff ff 
    f844:	48 b8 38 38 72 08 eb 	movabs $0x6d76d1eb08723838,%rax
    f84b:	d1 76 6d 
    f84e:	48 89 85 e8 d5 ff ff 	mov    %rax,-0x2a18(%rbp)
    f855:	48 c7 85 f0 d5 ff ff 	movq   $0xfffffffffffffffd,-0x2a10(%rbp)
    f85c:	fd ff ff ff 
    f860:	48 c7 85 f8 d5 ff ff 	movq   $0x0,-0x2a08(%rbp)
    f867:	00 00 00 00 
    f86b:	48 c7 85 00 d6 ff ff 	movq   $0x0,-0x2a00(%rbp)
    f872:	00 00 00 00 
    f876:	48 c7 85 08 d6 ff ff 	movq   $0xfffffffffffffffd,-0x29f8(%rbp)
    f87d:	fd ff ff ff 
    f881:	48 89 85 10 d6 ff ff 	mov    %rax,-0x29f0(%rbp)
    f888:	48 c7 85 18 d6 ff ff 	movq   $0xfffffffffffffffd,-0x29e8(%rbp)
    f88f:	fd ff ff ff 
    f893:	48 8d 85 a0 da ff ff 	lea    -0x2560(%rbp),%rax
    f89a:	48 8d 15 3f df 00 00 	lea    0xdf3f(%rip),%rdx        # 1d7e0 <g_2805+0xec0>
    f8a1:	b9 32 00 00 00       	mov    $0x32,%ecx
    f8a6:	48 89 c7             	mov    %rax,%rdi
    f8a9:	48 89 d6             	mov    %rdx,%rsi
    f8ac:	f3 48 a5             	rep movsq %ds:(%rsi),%es:(%rdi)
    f8af:	66 c7 85 0e cf ff ff 	movw   $0xdb80,-0x30f2(%rbp)
    f8b6:	80 db 
    f8b8:	c7 85 70 cf ff ff 08 	movl   $0x8,-0x3090(%rbp)
    f8bf:	00 00 00 
    f8c2:	c7 85 74 cf ff ff c4 	movl   $0xaeb24fc4,-0x308c(%rbp)
    f8c9:	4f b2 ae 
    f8cc:	48 8d 05 cd 08 01 00 	lea    0x108cd(%rip),%rax        # 201a0 <g_1569>
    f8d3:	48 89 85 f8 d0 ff ff 	mov    %rax,-0x2f08(%rbp)
    f8da:	c7 85 68 cf ff ff 00 	movl   $0x0,-0x3098(%rbp)
    f8e1:	00 00 00 
    f8e4:	eb 1e                	jmp    f904 <func_57+0x5e0>
    f8e6:	8b 85 68 cf ff ff    	mov    -0x3098(%rbp),%eax
    f8ec:	48 98                	cltq   
    f8ee:	48 8d 15 4b fa 00 00 	lea    0xfa4b(%rip),%rdx        # 1f340 <g_1096>
    f8f5:	48 89 94 c5 a0 d3 ff 	mov    %rdx,-0x2c60(%rbp,%rax,8)
    f8fc:	ff 
    f8fd:	83 85 68 cf ff ff 01 	addl   $0x1,-0x3098(%rbp)
    f904:	83 bd 68 cf ff ff 01 	cmpl   $0x1,-0x3098(%rbp)
    f90b:	7e d9                	jle    f8e6 <func_57+0x5c2>
    f90d:	c7 85 68 cf ff ff 00 	movl   $0x0,-0x3098(%rbp)
    f914:	00 00 00 
    f917:	eb 1e                	jmp    f937 <func_57+0x613>
    f919:	8b 85 68 cf ff ff    	mov    -0x3098(%rbp),%eax
    f91f:	48 98                	cltq   
    f921:	48 8d 95 78 d0 ff ff 	lea    -0x2f88(%rbp),%rdx
    f928:	48 89 94 c5 30 d4 ff 	mov    %rdx,-0x2bd0(%rbp,%rax,8)
    f92f:	ff 
    f930:	83 85 68 cf ff ff 01 	addl   $0x1,-0x3098(%rbp)
    f937:	83 bd 68 cf ff ff 04 	cmpl   $0x4,-0x3098(%rbp)
    f93e:	7e d9                	jle    f919 <func_57+0x5f5>
    f940:	c6 05 e5 c7 00 00 00 	movb   $0x0,0xc7e5(%rip)        # 1c12c <g_109>
    f947:	e9 36 53 00 00       	jmpq   14c82 <func_57+0x595e>
    f94c:	c7 85 80 cf ff ff 03 	movl   $0x3,-0x3080(%rbp)
    f953:	00 00 00 
    f956:	48 c7 85 38 d1 ff ff 	movq   $0x0,-0x2ec8(%rbp)
    f95d:	00 00 00 00 
    f961:	c7 85 2c cf ff ff 01 	movl   $0x1,-0x30d4(%rbp)
    f968:	00 00 00 
    f96b:	c7 85 84 cf ff ff 64 	movl   $0xcc65064,-0x307c(%rbp)
    f972:	50 c6 0c 
    f975:	c7 85 d0 d3 ff ff cf 	movl   $0x7f1438cf,-0x2c30(%rbp)
    f97c:	38 14 7f 
    f97f:	c7 85 d4 d3 ff ff cf 	movl   $0x7f1438cf,-0x2c2c(%rbp)
    f986:	38 14 7f 
    f989:	c7 85 d8 d3 ff ff cf 	movl   $0x7f1438cf,-0x2c28(%rbp)
    f990:	38 14 7f 
    f993:	c7 85 dc d3 ff ff cf 	movl   $0x7f1438cf,-0x2c24(%rbp)
    f99a:	38 14 7f 
    f99d:	c7 85 e0 d3 ff ff cf 	movl   $0x7f1438cf,-0x2c20(%rbp)
    f9a4:	38 14 7f 
    f9a7:	c7 85 e4 d3 ff ff cf 	movl   $0x7f1438cf,-0x2c1c(%rbp)
    f9ae:	38 14 7f 
    f9b1:	c7 85 e8 d3 ff ff cf 	movl   $0x7f1438cf,-0x2c18(%rbp)
    f9b8:	38 14 7f 
    f9bb:	48 c7 85 80 d0 ff ff 	movq   $0x0,-0x2f80(%rbp)
    f9c2:	00 00 00 00 
    f9c6:	66 c7 85 10 cf ff ff 	movw   $0x1,-0x30f0(%rbp)
    f9cd:	01 00 
    f9cf:	c6 85 04 cf ff ff 86 	movb   $0x86,-0x30fc(%rbp)
    f9d6:	48 b8 89 dd 02 c2 ce 	movabs $0xd0c776cec202dd89,%rax
    f9dd:	76 c7 d0 
    f9e0:	48 89 85 c0 d0 ff ff 	mov    %rax,-0x2f40(%rbp)
    f9e7:	c7 85 30 cf ff ff d1 	movl   $0x46b111d1,-0x30d0(%rbp)
    f9ee:	11 b1 46 
    f9f1:	48 c7 85 40 d1 ff ff 	movq   $0x0,-0x2ec0(%rbp)
    f9f8:	00 00 00 00 
    f9fc:	c7 85 88 cf ff ff a2 	movl   $0x42c6cca2,-0x3078(%rbp)
    fa03:	cc c6 42 
    fa06:	c6 85 02 cf ff ff 86 	movb   $0x86,-0x30fe(%rbp)
    fa0d:	c7 85 8c cf ff ff ff 	movl   $0xffffffff,-0x3074(%rbp)
    fa14:	ff ff ff 
    fa17:	c7 85 90 cf ff ff f6 	movl   $0xfffffff6,-0x3070(%rbp)
    fa1e:	ff ff ff 
    fa21:	48 8d 85 20 cf ff ff 	lea    -0x30e0(%rbp),%rax
    fa28:	48 89 85 48 d1 ff ff 	mov    %rax,-0x2eb8(%rbp)
    fa2f:	c7 85 94 cf ff ff 17 	movl   $0x35648917,-0x306c(%rbp)
    fa36:	89 64 35 
    fa39:	48 8d 85 58 d0 ff ff 	lea    -0x2fa8(%rbp),%rax
    fa40:	48 89 85 90 d5 ff ff 	mov    %rax,-0x2a70(%rbp)
    fa47:	48 8d 85 58 d0 ff ff 	lea    -0x2fa8(%rbp),%rax
    fa4e:	48 89 85 98 d5 ff ff 	mov    %rax,-0x2a68(%rbp)
    fa55:	48 8d 85 58 d0 ff ff 	lea    -0x2fa8(%rbp),%rax
    fa5c:	48 89 85 a0 d5 ff ff 	mov    %rax,-0x2a60(%rbp)
    fa63:	48 8d 85 58 d0 ff ff 	lea    -0x2fa8(%rbp),%rax
    fa6a:	48 89 85 a8 d5 ff ff 	mov    %rax,-0x2a58(%rbp)
    fa71:	48 8d 85 58 d0 ff ff 	lea    -0x2fa8(%rbp),%rax
    fa78:	48 89 85 b0 d5 ff ff 	mov    %rax,-0x2a50(%rbp)
    fa7f:	48 8d 85 58 d0 ff ff 	lea    -0x2fa8(%rbp),%rax
    fa86:	48 89 85 b8 d5 ff ff 	mov    %rax,-0x2a48(%rbp)
    fa8d:	48 8d 85 58 d0 ff ff 	lea    -0x2fa8(%rbp),%rax
    fa94:	48 89 85 c0 d5 ff ff 	mov    %rax,-0x2a40(%rbp)
    fa9b:	48 8d 85 58 d0 ff ff 	lea    -0x2fa8(%rbp),%rax
    faa2:	48 89 85 c8 d5 ff ff 	mov    %rax,-0x2a38(%rbp)
    faa9:	48 b8 eb ff eb eb ff 	movabs $0xffebebffebebffeb,%rax
    fab0:	eb eb ff 
    fab3:	48 89 45 c7          	mov    %rax,-0x39(%rbp)
    fab7:	c7 85 98 cf ff ff ff 	movl   $0xffffffff,-0x3068(%rbp)
    fabe:	ff ff ff 
    fac1:	48 8d 85 50 d0 ff ff 	lea    -0x2fb0(%rbp),%rax
    fac8:	48 89 85 50 d1 ff ff 	mov    %rax,-0x2eb0(%rbp)
    facf:	66 c7 85 12 cf ff ff 	movw   $0xb94,-0x30ee(%rbp)
    fad6:	94 0b 
    fad8:	48 c7 85 58 d1 ff ff 	movq   $0x2,-0x2ea8(%rbp)
    fadf:	02 00 00 00 
    fae3:	c7 85 9c cf ff ff f6 	movl   $0xfffffff6,-0x3064(%rbp)
    faea:	ff ff ff 
    faed:	48 b8 97 18 57 ed cf 	movabs $0x8d70f6cfed571897,%rax
    faf4:	f6 70 8d 
    faf7:	48 89 85 60 d4 ff ff 	mov    %rax,-0x2ba0(%rbp)
    fafe:	48 bb e5 26 a2 3f fc 	movabs $0x4688f9fc3fa226e5,%rbx
    fb05:	f9 88 46 
    fb08:	48 89 9d 68 d4 ff ff 	mov    %rbx,-0x2b98(%rbp)
    fb0f:	48 89 85 70 d4 ff ff 	mov    %rax,-0x2b90(%rbp)
    fb16:	48 89 9d 78 d4 ff ff 	mov    %rbx,-0x2b88(%rbp)
    fb1d:	48 89 85 80 d4 ff ff 	mov    %rax,-0x2b80(%rbp)
    fb24:	48 8d 85 30 cf ff ff 	lea    -0x30d0(%rbp),%rax
    fb2b:	48 89 85 88 d0 ff ff 	mov    %rax,-0x2f78(%rbp)
    fb32:	48 8d 85 88 d0 ff ff 	lea    -0x2f78(%rbp),%rax
    fb39:	48 89 85 90 d4 ff ff 	mov    %rax,-0x2b70(%rbp)
    fb40:	48 8d 85 88 d0 ff ff 	lea    -0x2f78(%rbp),%rax
    fb47:	48 89 85 98 d4 ff ff 	mov    %rax,-0x2b68(%rbp)
    fb4e:	48 8d 85 88 d0 ff ff 	lea    -0x2f78(%rbp),%rax
    fb55:	48 89 85 a0 d4 ff ff 	mov    %rax,-0x2b60(%rbp)
    fb5c:	48 8d 85 88 d0 ff ff 	lea    -0x2f78(%rbp),%rax
    fb63:	48 89 85 a8 d4 ff ff 	mov    %rax,-0x2b58(%rbp)
    fb6a:	48 8d 85 88 d0 ff ff 	lea    -0x2f78(%rbp),%rax
    fb71:	48 89 85 b0 d4 ff ff 	mov    %rax,-0x2b50(%rbp)
    fb78:	48 c7 85 c0 e6 ff ff 	movq   $0x0,-0x1940(%rbp)
    fb7f:	00 00 00 00 
    fb83:	48 8d 85 90 d4 ff ff 	lea    -0x2b70(%rbp),%rax
    fb8a:	48 83 c0 08          	add    $0x8,%rax
    fb8e:	48 89 85 c8 e6 ff ff 	mov    %rax,-0x1938(%rbp)
    fb95:	48 8d 85 90 d4 ff ff 	lea    -0x2b70(%rbp),%rax
    fb9c:	48 83 c0 08          	add    $0x8,%rax
    fba0:	48 89 85 d0 e6 ff ff 	mov    %rax,-0x1930(%rbp)
    fba7:	48 8d 85 90 d4 ff ff 	lea    -0x2b70(%rbp),%rax
    fbae:	48 83 c0 08          	add    $0x8,%rax
    fbb2:	48 89 85 d8 e6 ff ff 	mov    %rax,-0x1928(%rbp)
    fbb9:	48 8d 85 90 d4 ff ff 	lea    -0x2b70(%rbp),%rax
    fbc0:	48 83 c0 20          	add    $0x20,%rax
    fbc4:	48 89 85 e0 e6 ff ff 	mov    %rax,-0x1920(%rbp)
    fbcb:	48 8d 85 90 d4 ff ff 	lea    -0x2b70(%rbp),%rax
    fbd2:	48 83 c0 08          	add    $0x8,%rax
    fbd6:	48 89 85 e8 e6 ff ff 	mov    %rax,-0x1918(%rbp)
    fbdd:	48 c7 85 f0 e6 ff ff 	movq   $0x0,-0x1910(%rbp)
    fbe4:	00 00 00 00 
    fbe8:	48 8d 85 90 d4 ff ff 	lea    -0x2b70(%rbp),%rax
    fbef:	48 83 c0 20          	add    $0x20,%rax
    fbf3:	48 89 85 f8 e6 ff ff 	mov    %rax,-0x1908(%rbp)
    fbfa:	48 8d 85 90 d4 ff ff 	lea    -0x2b70(%rbp),%rax
    fc01:	48 83 c0 08          	add    $0x8,%rax
    fc05:	48 89 85 00 e7 ff ff 	mov    %rax,-0x1900(%rbp)
    fc0c:	48 8d 85 90 d4 ff ff 	lea    -0x2b70(%rbp),%rax
    fc13:	48 83 c0 08          	add    $0x8,%rax
    fc17:	48 89 85 08 e7 ff ff 	mov    %rax,-0x18f8(%rbp)
    fc1e:	48 8d 85 90 d4 ff ff 	lea    -0x2b70(%rbp),%rax
    fc25:	48 83 c0 10          	add    $0x10,%rax
    fc29:	48 89 85 10 e7 ff ff 	mov    %rax,-0x18f0(%rbp)
    fc30:	48 8d 85 90 d4 ff ff 	lea    -0x2b70(%rbp),%rax
    fc37:	48 83 c0 18          	add    $0x18,%rax
    fc3b:	48 89 85 18 e7 ff ff 	mov    %rax,-0x18e8(%rbp)
    fc42:	48 8d 85 90 d4 ff ff 	lea    -0x2b70(%rbp),%rax
    fc49:	48 89 85 20 e7 ff ff 	mov    %rax,-0x18e0(%rbp)
    fc50:	48 c7 85 28 e7 ff ff 	movq   $0x0,-0x18d8(%rbp)
    fc57:	00 00 00 00 
    fc5b:	48 8d 85 90 d4 ff ff 	lea    -0x2b70(%rbp),%rax
    fc62:	48 83 c0 08          	add    $0x8,%rax
    fc66:	48 89 85 30 e7 ff ff 	mov    %rax,-0x18d0(%rbp)
    fc6d:	48 8d 85 90 d4 ff ff 	lea    -0x2b70(%rbp),%rax
    fc74:	48 83 c0 20          	add    $0x20,%rax
    fc78:	48 89 85 38 e7 ff ff 	mov    %rax,-0x18c8(%rbp)
    fc7f:	48 c7 85 40 e7 ff ff 	movq   $0x0,-0x18c0(%rbp)
    fc86:	00 00 00 00 
    fc8a:	48 8d 85 90 d4 ff ff 	lea    -0x2b70(%rbp),%rax
    fc91:	48 89 85 48 e7 ff ff 	mov    %rax,-0x18b8(%rbp)
    fc98:	48 8d 85 90 d4 ff ff 	lea    -0x2b70(%rbp),%rax
    fc9f:	48 89 85 50 e7 ff ff 	mov    %rax,-0x18b0(%rbp)
    fca6:	48 8d 85 90 d4 ff ff 	lea    -0x2b70(%rbp),%rax
    fcad:	48 89 85 58 e7 ff ff 	mov    %rax,-0x18a8(%rbp)
    fcb4:	48 8d 85 90 d4 ff ff 	lea    -0x2b70(%rbp),%rax
    fcbb:	48 83 c0 20          	add    $0x20,%rax
    fcbf:	48 89 85 60 e7 ff ff 	mov    %rax,-0x18a0(%rbp)
    fcc6:	48 8d 85 90 d4 ff ff 	lea    -0x2b70(%rbp),%rax
    fccd:	48 83 c0 18          	add    $0x18,%rax
    fcd1:	48 89 85 68 e7 ff ff 	mov    %rax,-0x1898(%rbp)
    fcd8:	48 8d 85 90 d4 ff ff 	lea    -0x2b70(%rbp),%rax
    fcdf:	48 83 c0 08          	add    $0x8,%rax
    fce3:	48 89 85 70 e7 ff ff 	mov    %rax,-0x1890(%rbp)
    fcea:	48 8d 85 90 d4 ff ff 	lea    -0x2b70(%rbp),%rax
    fcf1:	48 89 85 78 e7 ff ff 	mov    %rax,-0x1888(%rbp)
    fcf8:	48 8d 85 90 d4 ff ff 	lea    -0x2b70(%rbp),%rax
    fcff:	48 83 c0 18          	add    $0x18,%rax
    fd03:	48 89 85 80 e7 ff ff 	mov    %rax,-0x1880(%rbp)
    fd0a:	48 c7 85 88 e7 ff ff 	movq   $0x0,-0x1878(%rbp)
    fd11:	00 00 00 00 
    fd15:	48 8d 85 90 d4 ff ff 	lea    -0x2b70(%rbp),%rax
    fd1c:	48 83 c0 20          	add    $0x20,%rax
    fd20:	48 89 85 90 e7 ff ff 	mov    %rax,-0x1870(%rbp)
    fd27:	48 8d 85 90 d4 ff ff 	lea    -0x2b70(%rbp),%rax
    fd2e:	48 83 c0 20          	add    $0x20,%rax
    fd32:	48 89 85 98 e7 ff ff 	mov    %rax,-0x1868(%rbp)
    fd39:	48 8d 85 90 d4 ff ff 	lea    -0x2b70(%rbp),%rax
    fd40:	48 83 c0 08          	add    $0x8,%rax
    fd44:	48 89 85 a0 e7 ff ff 	mov    %rax,-0x1860(%rbp)
    fd4b:	48 8d 85 90 d4 ff ff 	lea    -0x2b70(%rbp),%rax
    fd52:	48 83 c0 08          	add    $0x8,%rax
    fd56:	48 89 85 a8 e7 ff ff 	mov    %rax,-0x1858(%rbp)
    fd5d:	48 8d 85 90 d4 ff ff 	lea    -0x2b70(%rbp),%rax
    fd64:	48 83 c0 08          	add    $0x8,%rax
    fd68:	48 89 85 b0 e7 ff ff 	mov    %rax,-0x1850(%rbp)
    fd6f:	48 8d 85 90 d4 ff ff 	lea    -0x2b70(%rbp),%rax
    fd76:	48 83 c0 08          	add    $0x8,%rax
    fd7a:	48 89 85 b8 e7 ff ff 	mov    %rax,-0x1848(%rbp)
    fd81:	48 8d 85 90 d4 ff ff 	lea    -0x2b70(%rbp),%rax
    fd88:	48 83 c0 08          	add    $0x8,%rax
    fd8c:	48 89 85 c0 e7 ff ff 	mov    %rax,-0x1840(%rbp)
    fd93:	48 8d 85 90 d4 ff ff 	lea    -0x2b70(%rbp),%rax
    fd9a:	48 89 85 c8 e7 ff ff 	mov    %rax,-0x1838(%rbp)
    fda1:	48 8d 85 90 d4 ff ff 	lea    -0x2b70(%rbp),%rax
    fda8:	48 83 c0 20          	add    $0x20,%rax
    fdac:	48 89 85 d0 e7 ff ff 	mov    %rax,-0x1830(%rbp)
    fdb3:	48 8d 85 90 d4 ff ff 	lea    -0x2b70(%rbp),%rax
    fdba:	48 83 c0 08          	add    $0x8,%rax
    fdbe:	48 89 85 d8 e7 ff ff 	mov    %rax,-0x1828(%rbp)
    fdc5:	48 8d 85 90 d4 ff ff 	lea    -0x2b70(%rbp),%rax
    fdcc:	48 83 c0 08          	add    $0x8,%rax
    fdd0:	48 89 85 e0 e7 ff ff 	mov    %rax,-0x1820(%rbp)
    fdd7:	48 8d 85 90 d4 ff ff 	lea    -0x2b70(%rbp),%rax
    fdde:	48 83 c0 08          	add    $0x8,%rax
    fde2:	48 89 85 e8 e7 ff ff 	mov    %rax,-0x1818(%rbp)
    fde9:	48 8d 85 90 d4 ff ff 	lea    -0x2b70(%rbp),%rax
    fdf0:	48 83 c0 18          	add    $0x18,%rax
    fdf4:	48 89 85 f0 e7 ff ff 	mov    %rax,-0x1810(%rbp)
    fdfb:	48 8d 85 90 d4 ff ff 	lea    -0x2b70(%rbp),%rax
    fe02:	48 83 c0 08          	add    $0x8,%rax
    fe06:	48 89 85 f8 e7 ff ff 	mov    %rax,-0x1808(%rbp)
    fe0d:	48 c7 85 00 e8 ff ff 	movq   $0x0,-0x1800(%rbp)
    fe14:	00 00 00 00 
    fe18:	48 8d 85 90 d4 ff ff 	lea    -0x2b70(%rbp),%rax
    fe1f:	48 83 c0 20          	add    $0x20,%rax
    fe23:	48 89 85 08 e8 ff ff 	mov    %rax,-0x17f8(%rbp)
    fe2a:	48 8d 85 90 d4 ff ff 	lea    -0x2b70(%rbp),%rax
    fe31:	48 83 c0 08          	add    $0x8,%rax
    fe35:	48 89 85 10 e8 ff ff 	mov    %rax,-0x17f0(%rbp)
    fe3c:	48 8d 85 90 d4 ff ff 	lea    -0x2b70(%rbp),%rax
    fe43:	48 83 c0 08          	add    $0x8,%rax
    fe47:	48 89 85 18 e8 ff ff 	mov    %rax,-0x17e8(%rbp)
    fe4e:	48 8d 85 90 d4 ff ff 	lea    -0x2b70(%rbp),%rax
    fe55:	48 83 c0 20          	add    $0x20,%rax
    fe59:	48 89 85 20 e8 ff ff 	mov    %rax,-0x17e0(%rbp)
    fe60:	48 c7 85 28 e8 ff ff 	movq   $0x0,-0x17d8(%rbp)
    fe67:	00 00 00 00 
    fe6b:	48 c7 85 30 e8 ff ff 	movq   $0x0,-0x17d0(%rbp)
    fe72:	00 00 00 00 
    fe76:	48 c7 85 38 e8 ff ff 	movq   $0x0,-0x17c8(%rbp)
    fe7d:	00 00 00 00 
    fe81:	48 c7 85 40 e8 ff ff 	movq   $0x0,-0x17c0(%rbp)
    fe88:	00 00 00 00 
    fe8c:	48 8d 85 90 d4 ff ff 	lea    -0x2b70(%rbp),%rax
    fe93:	48 83 c0 10          	add    $0x10,%rax
    fe97:	48 89 85 48 e8 ff ff 	mov    %rax,-0x17b8(%rbp)
    fe9e:	48 8d 85 90 d4 ff ff 	lea    -0x2b70(%rbp),%rax
    fea5:	48 83 c0 18          	add    $0x18,%rax
    fea9:	48 89 85 50 e8 ff ff 	mov    %rax,-0x17b0(%rbp)
    feb0:	48 8d 85 90 d4 ff ff 	lea    -0x2b70(%rbp),%rax
    feb7:	48 83 c0 08          	add    $0x8,%rax
    febb:	48 89 85 58 e8 ff ff 	mov    %rax,-0x17a8(%rbp)
    fec2:	48 8d 85 90 d4 ff ff 	lea    -0x2b70(%rbp),%rax
    fec9:	48 89 85 60 e8 ff ff 	mov    %rax,-0x17a0(%rbp)
    fed0:	48 8d 85 90 d4 ff ff 	lea    -0x2b70(%rbp),%rax
    fed7:	48 83 c0 20          	add    $0x20,%rax
    fedb:	48 89 85 68 e8 ff ff 	mov    %rax,-0x1798(%rbp)
    fee2:	48 8d 85 90 d4 ff ff 	lea    -0x2b70(%rbp),%rax
    fee9:	48 83 c0 08          	add    $0x8,%rax
    feed:	48 89 85 70 e8 ff ff 	mov    %rax,-0x1790(%rbp)
    fef4:	48 8d 85 90 d4 ff ff 	lea    -0x2b70(%rbp),%rax
    fefb:	48 83 c0 08          	add    $0x8,%rax
    feff:	48 89 85 78 e8 ff ff 	mov    %rax,-0x1788(%rbp)
    ff06:	48 c7 85 80 e8 ff ff 	movq   $0x0,-0x1780(%rbp)
    ff0d:	00 00 00 00 
    ff11:	48 8d 85 90 d4 ff ff 	lea    -0x2b70(%rbp),%rax
    ff18:	48 83 c0 08          	add    $0x8,%rax
    ff1c:	48 89 85 88 e8 ff ff 	mov    %rax,-0x1778(%rbp)
    ff23:	48 8d 85 90 d4 ff ff 	lea    -0x2b70(%rbp),%rax
    ff2a:	48 83 c0 08          	add    $0x8,%rax
    ff2e:	48 89 85 90 e8 ff ff 	mov    %rax,-0x1770(%rbp)
    ff35:	48 8d 85 90 d4 ff ff 	lea    -0x2b70(%rbp),%rax
    ff3c:	48 83 c0 20          	add    $0x20,%rax
    ff40:	48 89 85 98 e8 ff ff 	mov    %rax,-0x1768(%rbp)
    ff47:	48 8d 85 90 d4 ff ff 	lea    -0x2b70(%rbp),%rax
    ff4e:	48 83 c0 08          	add    $0x8,%rax
    ff52:	48 89 85 a0 e8 ff ff 	mov    %rax,-0x1760(%rbp)
    ff59:	48 8d 85 90 d4 ff ff 	lea    -0x2b70(%rbp),%rax
    ff60:	48 83 c0 08          	add    $0x8,%rax
    ff64:	48 89 85 a8 e8 ff ff 	mov    %rax,-0x1758(%rbp)
    ff6b:	48 8d 85 90 d4 ff ff 	lea    -0x2b70(%rbp),%rax
    ff72:	48 83 c0 08          	add    $0x8,%rax
    ff76:	48 89 85 b0 e8 ff ff 	mov    %rax,-0x1750(%rbp)
    ff7d:	48 8d 85 90 d4 ff ff 	lea    -0x2b70(%rbp),%rax
    ff84:	48 83 c0 10          	add    $0x10,%rax
    ff88:	48 89 85 b8 e8 ff ff 	mov    %rax,-0x1748(%rbp)
    ff8f:	48 8d 85 90 d4 ff ff 	lea    -0x2b70(%rbp),%rax
    ff96:	48 83 c0 10          	add    $0x10,%rax
    ff9a:	48 89 85 c0 e8 ff ff 	mov    %rax,-0x1740(%rbp)
    ffa1:	48 c7 85 c8 e8 ff ff 	movq   $0x0,-0x1738(%rbp)
    ffa8:	00 00 00 00 
    ffac:	48 8d 85 90 d4 ff ff 	lea    -0x2b70(%rbp),%rax
    ffb3:	48 83 c0 08          	add    $0x8,%rax
    ffb7:	48 89 85 d0 e8 ff ff 	mov    %rax,-0x1730(%rbp)
    ffbe:	48 c7 85 d8 e8 ff ff 	movq   $0x0,-0x1728(%rbp)
    ffc5:	00 00 00 00 
    ffc9:	48 8d 85 90 d4 ff ff 	lea    -0x2b70(%rbp),%rax
    ffd0:	48 83 c0 08          	add    $0x8,%rax
    ffd4:	48 89 85 e0 e8 ff ff 	mov    %rax,-0x1720(%rbp)
    ffdb:	48 8d 85 90 d4 ff ff 	lea    -0x2b70(%rbp),%rax
    ffe2:	48 83 c0 08          	add    $0x8,%rax
    ffe6:	48 89 85 e8 e8 ff ff 	mov    %rax,-0x1718(%rbp)
    ffed:	48 c7 85 f0 e8 ff ff 	movq   $0x0,-0x1710(%rbp)
    fff4:	00 00 00 00 
    fff8:	48 8d 85 90 d4 ff ff 	lea    -0x2b70(%rbp),%rax
    ffff:	48 83 c0 08          	add    $0x8,%rax
   10003:	48 89 85 f8 e8 ff ff 	mov    %rax,-0x1708(%rbp)
   1000a:	48 c7 85 00 e9 ff ff 	movq   $0x0,-0x1700(%rbp)
   10011:	00 00 00 00 
   10015:	48 c7 85 08 e9 ff ff 	movq   $0x0,-0x16f8(%rbp)
   1001c:	00 00 00 00 
   10020:	48 8d 85 90 d4 ff ff 	lea    -0x2b70(%rbp),%rax
   10027:	48 83 c0 08          	add    $0x8,%rax
   1002b:	48 89 85 10 e9 ff ff 	mov    %rax,-0x16f0(%rbp)
   10032:	48 8d 85 90 d4 ff ff 	lea    -0x2b70(%rbp),%rax
   10039:	48 83 c0 08          	add    $0x8,%rax
   1003d:	48 89 85 18 e9 ff ff 	mov    %rax,-0x16e8(%rbp)
   10044:	48 8d 85 90 d4 ff ff 	lea    -0x2b70(%rbp),%rax
   1004b:	48 83 c0 08          	add    $0x8,%rax
   1004f:	48 89 85 20 e9 ff ff 	mov    %rax,-0x16e0(%rbp)
   10056:	48 8d 85 90 d4 ff ff 	lea    -0x2b70(%rbp),%rax
   1005d:	48 83 c0 08          	add    $0x8,%rax
   10061:	48 89 85 28 e9 ff ff 	mov    %rax,-0x16d8(%rbp)
   10068:	48 8d 85 90 d4 ff ff 	lea    -0x2b70(%rbp),%rax
   1006f:	48 83 c0 08          	add    $0x8,%rax
   10073:	48 89 85 30 e9 ff ff 	mov    %rax,-0x16d0(%rbp)
   1007a:	48 8d 85 90 d4 ff ff 	lea    -0x2b70(%rbp),%rax
   10081:	48 83 c0 08          	add    $0x8,%rax
   10085:	48 89 85 38 e9 ff ff 	mov    %rax,-0x16c8(%rbp)
   1008c:	48 8d 85 90 d4 ff ff 	lea    -0x2b70(%rbp),%rax
   10093:	48 83 c0 08          	add    $0x8,%rax
   10097:	48 89 85 40 e9 ff ff 	mov    %rax,-0x16c0(%rbp)
   1009e:	48 8d 85 90 d4 ff ff 	lea    -0x2b70(%rbp),%rax
   100a5:	48 83 c0 08          	add    $0x8,%rax
   100a9:	48 89 85 48 e9 ff ff 	mov    %rax,-0x16b8(%rbp)
   100b0:	48 8d 85 90 d4 ff ff 	lea    -0x2b70(%rbp),%rax
   100b7:	48 83 c0 08          	add    $0x8,%rax
   100bb:	48 89 85 50 e9 ff ff 	mov    %rax,-0x16b0(%rbp)
   100c2:	48 c7 85 58 e9 ff ff 	movq   $0x0,-0x16a8(%rbp)
   100c9:	00 00 00 00 
   100cd:	48 8d 85 90 d4 ff ff 	lea    -0x2b70(%rbp),%rax
   100d4:	48 83 c0 20          	add    $0x20,%rax
   100d8:	48 89 85 60 e9 ff ff 	mov    %rax,-0x16a0(%rbp)
   100df:	48 8d 85 90 d4 ff ff 	lea    -0x2b70(%rbp),%rax
   100e6:	48 83 c0 08          	add    $0x8,%rax
   100ea:	48 89 85 68 e9 ff ff 	mov    %rax,-0x1698(%rbp)
   100f1:	48 8d 85 90 d4 ff ff 	lea    -0x2b70(%rbp),%rax
   100f8:	48 83 c0 20          	add    $0x20,%rax
   100fc:	48 89 85 70 e9 ff ff 	mov    %rax,-0x1690(%rbp)
   10103:	48 8d 85 90 d4 ff ff 	lea    -0x2b70(%rbp),%rax
   1010a:	48 83 c0 08          	add    $0x8,%rax
   1010e:	48 89 85 78 e9 ff ff 	mov    %rax,-0x1688(%rbp)
   10115:	48 8d 85 90 d4 ff ff 	lea    -0x2b70(%rbp),%rax
   1011c:	48 83 c0 08          	add    $0x8,%rax
   10120:	48 89 85 80 e9 ff ff 	mov    %rax,-0x1680(%rbp)
   10127:	48 8d 85 90 d4 ff ff 	lea    -0x2b70(%rbp),%rax
   1012e:	48 83 c0 10          	add    $0x10,%rax
   10132:	48 89 85 88 e9 ff ff 	mov    %rax,-0x1678(%rbp)
   10139:	48 8d 85 90 d4 ff ff 	lea    -0x2b70(%rbp),%rax
   10140:	48 83 c0 08          	add    $0x8,%rax
   10144:	48 89 85 90 e9 ff ff 	mov    %rax,-0x1670(%rbp)
   1014b:	48 8d 85 90 d4 ff ff 	lea    -0x2b70(%rbp),%rax
   10152:	48 83 c0 08          	add    $0x8,%rax
   10156:	48 89 85 98 e9 ff ff 	mov    %rax,-0x1668(%rbp)
   1015d:	48 8d 85 90 d4 ff ff 	lea    -0x2b70(%rbp),%rax
   10164:	48 83 c0 08          	add    $0x8,%rax
   10168:	48 89 85 a0 e9 ff ff 	mov    %rax,-0x1660(%rbp)
   1016f:	48 8d 85 90 d4 ff ff 	lea    -0x2b70(%rbp),%rax
   10176:	48 83 c0 08          	add    $0x8,%rax
   1017a:	48 89 85 a8 e9 ff ff 	mov    %rax,-0x1658(%rbp)
   10181:	48 8d 85 90 d4 ff ff 	lea    -0x2b70(%rbp),%rax
   10188:	48 83 c0 08          	add    $0x8,%rax
   1018c:	48 89 85 b0 e9 ff ff 	mov    %rax,-0x1650(%rbp)
   10193:	48 8d 85 90 d4 ff ff 	lea    -0x2b70(%rbp),%rax
   1019a:	48 83 c0 08          	add    $0x8,%rax
   1019e:	48 89 85 b8 e9 ff ff 	mov    %rax,-0x1648(%rbp)
   101a5:	48 8d 85 90 d4 ff ff 	lea    -0x2b70(%rbp),%rax
   101ac:	48 83 c0 18          	add    $0x18,%rax
   101b0:	48 89 85 c0 e9 ff ff 	mov    %rax,-0x1640(%rbp)
   101b7:	48 8d 85 90 d4 ff ff 	lea    -0x2b70(%rbp),%rax
   101be:	48 83 c0 08          	add    $0x8,%rax
   101c2:	48 89 85 c8 e9 ff ff 	mov    %rax,-0x1638(%rbp)
   101c9:	48 c7 85 d0 e9 ff ff 	movq   $0x0,-0x1630(%rbp)
   101d0:	00 00 00 00 
   101d4:	48 c7 85 d8 e9 ff ff 	movq   $0x0,-0x1628(%rbp)
   101db:	00 00 00 00 
   101df:	48 c7 85 e0 e9 ff ff 	movq   $0x0,-0x1620(%rbp)
   101e6:	00 00 00 00 
   101ea:	48 c7 85 e8 e9 ff ff 	movq   $0x0,-0x1618(%rbp)
   101f1:	00 00 00 00 
   101f5:	48 8d 85 90 d4 ff ff 	lea    -0x2b70(%rbp),%rax
   101fc:	48 83 c0 08          	add    $0x8,%rax
   10200:	48 89 85 f0 e9 ff ff 	mov    %rax,-0x1610(%rbp)
   10207:	48 8d 85 90 d4 ff ff 	lea    -0x2b70(%rbp),%rax
   1020e:	48 83 c0 10          	add    $0x10,%rax
   10212:	48 89 85 f8 e9 ff ff 	mov    %rax,-0x1608(%rbp)
   10219:	48 8d 85 90 d4 ff ff 	lea    -0x2b70(%rbp),%rax
   10220:	48 83 c0 18          	add    $0x18,%rax
   10224:	48 89 85 00 ea ff ff 	mov    %rax,-0x1600(%rbp)
   1022b:	48 8d 85 90 d4 ff ff 	lea    -0x2b70(%rbp),%rax
   10232:	48 83 c0 08          	add    $0x8,%rax
   10236:	48 89 85 08 ea ff ff 	mov    %rax,-0x15f8(%rbp)
   1023d:	48 8d 85 90 d4 ff ff 	lea    -0x2b70(%rbp),%rax
   10244:	48 83 c0 08          	add    $0x8,%rax
   10248:	48 89 85 10 ea ff ff 	mov    %rax,-0x15f0(%rbp)
   1024f:	48 8d 85 90 d4 ff ff 	lea    -0x2b70(%rbp),%rax
   10256:	48 83 c0 20          	add    $0x20,%rax
   1025a:	48 89 85 18 ea ff ff 	mov    %rax,-0x15e8(%rbp)
   10261:	48 8d 85 90 d4 ff ff 	lea    -0x2b70(%rbp),%rax
   10268:	48 83 c0 08          	add    $0x8,%rax
   1026c:	48 89 85 20 ea ff ff 	mov    %rax,-0x15e0(%rbp)
   10273:	48 8d 85 90 d4 ff ff 	lea    -0x2b70(%rbp),%rax
   1027a:	48 83 c0 08          	add    $0x8,%rax
   1027e:	48 89 85 28 ea ff ff 	mov    %rax,-0x15d8(%rbp)
   10285:	48 8d 85 90 d4 ff ff 	lea    -0x2b70(%rbp),%rax
   1028c:	48 83 c0 08          	add    $0x8,%rax
   10290:	48 89 85 30 ea ff ff 	mov    %rax,-0x15d0(%rbp)
   10297:	48 8d 85 90 d4 ff ff 	lea    -0x2b70(%rbp),%rax
   1029e:	48 83 c0 08          	add    $0x8,%rax
   102a2:	48 89 85 38 ea ff ff 	mov    %rax,-0x15c8(%rbp)
   102a9:	48 8d 85 90 d4 ff ff 	lea    -0x2b70(%rbp),%rax
   102b0:	48 83 c0 08          	add    $0x8,%rax
   102b4:	48 89 85 40 ea ff ff 	mov    %rax,-0x15c0(%rbp)
   102bb:	48 8d 85 90 d4 ff ff 	lea    -0x2b70(%rbp),%rax
   102c2:	48 83 c0 08          	add    $0x8,%rax
   102c6:	48 89 85 48 ea ff ff 	mov    %rax,-0x15b8(%rbp)
   102cd:	48 8d 85 90 d4 ff ff 	lea    -0x2b70(%rbp),%rax
   102d4:	48 83 c0 08          	add    $0x8,%rax
   102d8:	48 89 85 50 ea ff ff 	mov    %rax,-0x15b0(%rbp)
   102df:	48 8d 85 90 d4 ff ff 	lea    -0x2b70(%rbp),%rax
   102e6:	48 83 c0 08          	add    $0x8,%rax
   102ea:	48 89 85 58 ea ff ff 	mov    %rax,-0x15a8(%rbp)
   102f1:	48 8d 85 90 d4 ff ff 	lea    -0x2b70(%rbp),%rax
   102f8:	48 83 c0 08          	add    $0x8,%rax
   102fc:	48 89 85 60 ea ff ff 	mov    %rax,-0x15a0(%rbp)
   10303:	48 c7 85 68 ea ff ff 	movq   $0x0,-0x1598(%rbp)
   1030a:	00 00 00 00 
   1030e:	48 8d 85 90 d4 ff ff 	lea    -0x2b70(%rbp),%rax
   10315:	48 83 c0 08          	add    $0x8,%rax
   10319:	48 89 85 70 ea ff ff 	mov    %rax,-0x1590(%rbp)
   10320:	48 8d 85 90 d4 ff ff 	lea    -0x2b70(%rbp),%rax
   10327:	48 83 c0 08          	add    $0x8,%rax
   1032b:	48 89 85 78 ea ff ff 	mov    %rax,-0x1588(%rbp)
   10332:	48 8d 85 90 d4 ff ff 	lea    -0x2b70(%rbp),%rax
   10339:	48 89 85 80 ea ff ff 	mov    %rax,-0x1580(%rbp)
   10340:	48 8d 85 90 d4 ff ff 	lea    -0x2b70(%rbp),%rax
   10347:	48 83 c0 08          	add    $0x8,%rax
   1034b:	48 89 85 88 ea ff ff 	mov    %rax,-0x1578(%rbp)
   10352:	48 8d 85 90 d4 ff ff 	lea    -0x2b70(%rbp),%rax
   10359:	48 83 c0 08          	add    $0x8,%rax
   1035d:	48 89 85 90 ea ff ff 	mov    %rax,-0x1570(%rbp)
   10364:	48 8d 85 90 d4 ff ff 	lea    -0x2b70(%rbp),%rax
   1036b:	48 83 c0 08          	add    $0x8,%rax
   1036f:	48 89 85 98 ea ff ff 	mov    %rax,-0x1568(%rbp)
   10376:	48 8d 85 90 d4 ff ff 	lea    -0x2b70(%rbp),%rax
   1037d:	48 83 c0 18          	add    $0x18,%rax
   10381:	48 89 85 a0 ea ff ff 	mov    %rax,-0x1560(%rbp)
   10388:	48 8d 85 90 d4 ff ff 	lea    -0x2b70(%rbp),%rax
   1038f:	48 83 c0 08          	add    $0x8,%rax
   10393:	48 89 85 a8 ea ff ff 	mov    %rax,-0x1558(%rbp)
   1039a:	48 8d 85 90 d4 ff ff 	lea    -0x2b70(%rbp),%rax
   103a1:	48 83 c0 08          	add    $0x8,%rax
   103a5:	48 89 85 b0 ea ff ff 	mov    %rax,-0x1550(%rbp)
   103ac:	48 8d 85 90 d4 ff ff 	lea    -0x2b70(%rbp),%rax
   103b3:	48 83 c0 08          	add    $0x8,%rax
   103b7:	48 89 85 b8 ea ff ff 	mov    %rax,-0x1548(%rbp)
   103be:	48 c7 85 c0 ea ff ff 	movq   $0x0,-0x1540(%rbp)
   103c5:	00 00 00 00 
   103c9:	48 8d 85 90 d4 ff ff 	lea    -0x2b70(%rbp),%rax
   103d0:	48 83 c0 08          	add    $0x8,%rax
   103d4:	48 89 85 c8 ea ff ff 	mov    %rax,-0x1538(%rbp)
   103db:	48 8d 85 90 d4 ff ff 	lea    -0x2b70(%rbp),%rax
   103e2:	48 83 c0 20          	add    $0x20,%rax
   103e6:	48 89 85 d0 ea ff ff 	mov    %rax,-0x1530(%rbp)
   103ed:	48 8d 85 90 d4 ff ff 	lea    -0x2b70(%rbp),%rax
   103f4:	48 83 c0 08          	add    $0x8,%rax
   103f8:	48 89 85 d8 ea ff ff 	mov    %rax,-0x1528(%rbp)
   103ff:	48 8d 85 90 d4 ff ff 	lea    -0x2b70(%rbp),%rax
   10406:	48 83 c0 08          	add    $0x8,%rax
   1040a:	48 89 85 e0 ea ff ff 	mov    %rax,-0x1520(%rbp)
   10411:	48 8d 85 90 d4 ff ff 	lea    -0x2b70(%rbp),%rax
   10418:	48 83 c0 08          	add    $0x8,%rax
   1041c:	48 89 85 e8 ea ff ff 	mov    %rax,-0x1518(%rbp)
   10423:	48 8d 85 90 d4 ff ff 	lea    -0x2b70(%rbp),%rax
   1042a:	48 83 c0 18          	add    $0x18,%rax
   1042e:	48 89 85 f0 ea ff ff 	mov    %rax,-0x1510(%rbp)
   10435:	48 8d 85 90 d4 ff ff 	lea    -0x2b70(%rbp),%rax
   1043c:	48 83 c0 10          	add    $0x10,%rax
   10440:	48 89 85 f8 ea ff ff 	mov    %rax,-0x1508(%rbp)
   10447:	48 8d 85 90 d4 ff ff 	lea    -0x2b70(%rbp),%rax
   1044e:	48 83 c0 08          	add    $0x8,%rax
   10452:	48 89 85 00 eb ff ff 	mov    %rax,-0x1500(%rbp)
   10459:	48 8d 85 90 d4 ff ff 	lea    -0x2b70(%rbp),%rax
   10460:	48 83 c0 08          	add    $0x8,%rax
   10464:	48 89 85 08 eb ff ff 	mov    %rax,-0x14f8(%rbp)
   1046b:	48 8d 85 90 d4 ff ff 	lea    -0x2b70(%rbp),%rax
   10472:	48 83 c0 08          	add    $0x8,%rax
   10476:	48 89 85 10 eb ff ff 	mov    %rax,-0x14f0(%rbp)
   1047d:	48 c7 85 18 eb ff ff 	movq   $0x0,-0x14e8(%rbp)
   10484:	00 00 00 00 
   10488:	48 c7 85 20 eb ff ff 	movq   $0x0,-0x14e0(%rbp)
   1048f:	00 00 00 00 
   10493:	48 8d 85 90 d4 ff ff 	lea    -0x2b70(%rbp),%rax
   1049a:	48 83 c0 20          	add    $0x20,%rax
   1049e:	48 89 85 28 eb ff ff 	mov    %rax,-0x14d8(%rbp)
   104a5:	48 8d 85 90 d4 ff ff 	lea    -0x2b70(%rbp),%rax
   104ac:	48 83 c0 08          	add    $0x8,%rax
   104b0:	48 89 85 30 eb ff ff 	mov    %rax,-0x14d0(%rbp)
   104b7:	48 8d 85 90 d4 ff ff 	lea    -0x2b70(%rbp),%rax
   104be:	48 83 c0 08          	add    $0x8,%rax
   104c2:	48 89 85 38 eb ff ff 	mov    %rax,-0x14c8(%rbp)
   104c9:	48 8d 85 90 d4 ff ff 	lea    -0x2b70(%rbp),%rax
   104d0:	48 83 c0 20          	add    $0x20,%rax
   104d4:	48 89 85 40 eb ff ff 	mov    %rax,-0x14c0(%rbp)
   104db:	48 8d 85 90 d4 ff ff 	lea    -0x2b70(%rbp),%rax
   104e2:	48 83 c0 18          	add    $0x18,%rax
   104e6:	48 89 85 48 eb ff ff 	mov    %rax,-0x14b8(%rbp)
   104ed:	48 8d 85 90 d4 ff ff 	lea    -0x2b70(%rbp),%rax
   104f4:	48 83 c0 08          	add    $0x8,%rax
   104f8:	48 89 85 50 eb ff ff 	mov    %rax,-0x14b0(%rbp)
   104ff:	48 8d 85 90 d4 ff ff 	lea    -0x2b70(%rbp),%rax
   10506:	48 83 c0 18          	add    $0x18,%rax
   1050a:	48 89 85 58 eb ff ff 	mov    %rax,-0x14a8(%rbp)
   10511:	48 c7 85 60 eb ff ff 	movq   $0x0,-0x14a0(%rbp)
   10518:	00 00 00 00 
   1051c:	48 8d 85 90 d4 ff ff 	lea    -0x2b70(%rbp),%rax
   10523:	48 83 c0 20          	add    $0x20,%rax
   10527:	48 89 85 68 eb ff ff 	mov    %rax,-0x1498(%rbp)
   1052e:	48 c7 85 70 eb ff ff 	movq   $0x0,-0x1490(%rbp)
   10535:	00 00 00 00 
   10539:	48 8d 85 90 d4 ff ff 	lea    -0x2b70(%rbp),%rax
   10540:	48 83 c0 10          	add    $0x10,%rax
   10544:	48 89 85 78 eb ff ff 	mov    %rax,-0x1488(%rbp)
   1054b:	48 c7 85 80 eb ff ff 	movq   $0x0,-0x1480(%rbp)
   10552:	00 00 00 00 
   10556:	48 8d 85 90 d4 ff ff 	lea    -0x2b70(%rbp),%rax
   1055d:	48 83 c0 20          	add    $0x20,%rax
   10561:	48 89 85 88 eb ff ff 	mov    %rax,-0x1478(%rbp)
   10568:	48 c7 85 90 eb ff ff 	movq   $0x0,-0x1470(%rbp)
   1056f:	00 00 00 00 
   10573:	48 8d 85 90 d4 ff ff 	lea    -0x2b70(%rbp),%rax
   1057a:	48 83 c0 08          	add    $0x8,%rax
   1057e:	48 89 85 98 eb ff ff 	mov    %rax,-0x1468(%rbp)
   10585:	48 8d 85 90 d4 ff ff 	lea    -0x2b70(%rbp),%rax
   1058c:	48 83 c0 08          	add    $0x8,%rax
   10590:	48 89 85 a0 eb ff ff 	mov    %rax,-0x1460(%rbp)
   10597:	48 c7 85 a8 eb ff ff 	movq   $0x0,-0x1458(%rbp)
   1059e:	00 00 00 00 
   105a2:	48 8d 85 90 d4 ff ff 	lea    -0x2b70(%rbp),%rax
   105a9:	48 83 c0 20          	add    $0x20,%rax
   105ad:	48 89 85 b0 eb ff ff 	mov    %rax,-0x1450(%rbp)
   105b4:	48 c7 85 b8 eb ff ff 	movq   $0x0,-0x1448(%rbp)
   105bb:	00 00 00 00 
   105bf:	48 8d 85 90 d4 ff ff 	lea    -0x2b70(%rbp),%rax
   105c6:	48 89 85 c0 eb ff ff 	mov    %rax,-0x1440(%rbp)
   105cd:	48 8d 85 90 d4 ff ff 	lea    -0x2b70(%rbp),%rax
   105d4:	48 83 c0 10          	add    $0x10,%rax
   105d8:	48 89 85 c8 eb ff ff 	mov    %rax,-0x1438(%rbp)
   105df:	48 8d 85 90 d4 ff ff 	lea    -0x2b70(%rbp),%rax
   105e6:	48 83 c0 08          	add    $0x8,%rax
   105ea:	48 89 85 d0 eb ff ff 	mov    %rax,-0x1430(%rbp)
   105f1:	48 8d 85 90 d4 ff ff 	lea    -0x2b70(%rbp),%rax
   105f8:	48 83 c0 08          	add    $0x8,%rax
   105fc:	48 89 85 d8 eb ff ff 	mov    %rax,-0x1428(%rbp)
   10603:	48 8d 85 90 d4 ff ff 	lea    -0x2b70(%rbp),%rax
   1060a:	48 83 c0 08          	add    $0x8,%rax
   1060e:	48 89 85 e0 eb ff ff 	mov    %rax,-0x1420(%rbp)
   10615:	48 8d 85 90 d4 ff ff 	lea    -0x2b70(%rbp),%rax
   1061c:	48 83 c0 08          	add    $0x8,%rax
   10620:	48 89 85 e8 eb ff ff 	mov    %rax,-0x1418(%rbp)
   10627:	48 8d 85 90 d4 ff ff 	lea    -0x2b70(%rbp),%rax
   1062e:	48 83 c0 08          	add    $0x8,%rax
   10632:	48 89 85 f0 eb ff ff 	mov    %rax,-0x1410(%rbp)
   10639:	48 8d 85 90 d4 ff ff 	lea    -0x2b70(%rbp),%rax
   10640:	48 83 c0 10          	add    $0x10,%rax
   10644:	48 89 85 f8 eb ff ff 	mov    %rax,-0x1408(%rbp)
   1064b:	48 8d 85 90 d4 ff ff 	lea    -0x2b70(%rbp),%rax
   10652:	48 83 c0 08          	add    $0x8,%rax
   10656:	48 89 85 00 ec ff ff 	mov    %rax,-0x1400(%rbp)
   1065d:	48 8d 85 90 d4 ff ff 	lea    -0x2b70(%rbp),%rax
   10664:	48 83 c0 08          	add    $0x8,%rax
   10668:	48 89 85 08 ec ff ff 	mov    %rax,-0x13f8(%rbp)
   1066f:	48 8d 85 90 d4 ff ff 	lea    -0x2b70(%rbp),%rax
   10676:	48 89 85 10 ec ff ff 	mov    %rax,-0x13f0(%rbp)
   1067d:	48 8d 85 90 d4 ff ff 	lea    -0x2b70(%rbp),%rax
   10684:	48 83 c0 08          	add    $0x8,%rax
   10688:	48 89 85 18 ec ff ff 	mov    %rax,-0x13e8(%rbp)
   1068f:	48 8d 85 90 d4 ff ff 	lea    -0x2b70(%rbp),%rax
   10696:	48 89 85 20 ec ff ff 	mov    %rax,-0x13e0(%rbp)
   1069d:	48 c7 85 28 ec ff ff 	movq   $0x0,-0x13d8(%rbp)
   106a4:	00 00 00 00 
   106a8:	48 c7 85 30 ec ff ff 	movq   $0x0,-0x13d0(%rbp)
   106af:	00 00 00 00 
   106b3:	48 8d 85 90 d4 ff ff 	lea    -0x2b70(%rbp),%rax
   106ba:	48 83 c0 20          	add    $0x20,%rax
   106be:	48 89 85 38 ec ff ff 	mov    %rax,-0x13c8(%rbp)
   106c5:	48 8d 85 90 d4 ff ff 	lea    -0x2b70(%rbp),%rax
   106cc:	48 83 c0 08          	add    $0x8,%rax
   106d0:	48 89 85 40 ec ff ff 	mov    %rax,-0x13c0(%rbp)
   106d7:	48 8d 85 90 d4 ff ff 	lea    -0x2b70(%rbp),%rax
   106de:	48 83 c0 08          	add    $0x8,%rax
   106e2:	48 89 85 48 ec ff ff 	mov    %rax,-0x13b8(%rbp)
   106e9:	48 8d 85 90 d4 ff ff 	lea    -0x2b70(%rbp),%rax
   106f0:	48 83 c0 08          	add    $0x8,%rax
   106f4:	48 89 85 50 ec ff ff 	mov    %rax,-0x13b0(%rbp)
   106fb:	48 c7 85 58 ec ff ff 	movq   $0x0,-0x13a8(%rbp)
   10702:	00 00 00 00 
   10706:	48 8d 85 90 d4 ff ff 	lea    -0x2b70(%rbp),%rax
   1070d:	48 83 c0 08          	add    $0x8,%rax
   10711:	48 89 85 60 ec ff ff 	mov    %rax,-0x13a0(%rbp)
   10718:	48 8d 85 90 d4 ff ff 	lea    -0x2b70(%rbp),%rax
   1071f:	48 89 85 68 ec ff ff 	mov    %rax,-0x1398(%rbp)
   10726:	48 c7 85 70 ec ff ff 	movq   $0x0,-0x1390(%rbp)
   1072d:	00 00 00 00 
   10731:	48 8d 85 90 d4 ff ff 	lea    -0x2b70(%rbp),%rax
   10738:	48 83 c0 10          	add    $0x10,%rax
   1073c:	48 89 85 78 ec ff ff 	mov    %rax,-0x1388(%rbp)
   10743:	48 8d 85 90 d4 ff ff 	lea    -0x2b70(%rbp),%rax
   1074a:	48 83 c0 08          	add    $0x8,%rax
   1074e:	48 89 85 80 ec ff ff 	mov    %rax,-0x1380(%rbp)
   10755:	48 c7 85 88 ec ff ff 	movq   $0x0,-0x1378(%rbp)
   1075c:	00 00 00 00 
   10760:	48 8d 85 90 d4 ff ff 	lea    -0x2b70(%rbp),%rax
   10767:	48 89 85 90 ec ff ff 	mov    %rax,-0x1370(%rbp)
   1076e:	48 c7 85 98 ec ff ff 	movq   $0x0,-0x1368(%rbp)
   10775:	00 00 00 00 
   10779:	48 8d 85 90 d4 ff ff 	lea    -0x2b70(%rbp),%rax
   10780:	48 83 c0 08          	add    $0x8,%rax
   10784:	48 89 85 a0 ec ff ff 	mov    %rax,-0x1360(%rbp)
   1078b:	48 8d 85 90 d4 ff ff 	lea    -0x2b70(%rbp),%rax
   10792:	48 83 c0 08          	add    $0x8,%rax
   10796:	48 89 85 a8 ec ff ff 	mov    %rax,-0x1358(%rbp)
   1079d:	48 8d 85 90 d4 ff ff 	lea    -0x2b70(%rbp),%rax
   107a4:	48 83 c0 08          	add    $0x8,%rax
   107a8:	48 89 85 b0 ec ff ff 	mov    %rax,-0x1350(%rbp)
   107af:	48 8d 85 90 d4 ff ff 	lea    -0x2b70(%rbp),%rax
   107b6:	48 83 c0 20          	add    $0x20,%rax
   107ba:	48 89 85 b8 ec ff ff 	mov    %rax,-0x1348(%rbp)
   107c1:	48 8d 05 b0 f9 00 00 	lea    0xf9b0(%rip),%rax        # 20178 <g_990>
   107c8:	48 89 85 60 d1 ff ff 	mov    %rax,-0x2ea0(%rbp)
   107cf:	c6 85 07 cf ff ff 80 	movb   $0x80,-0x30f9(%rbp)
   107d6:	c6 85 08 cf ff ff f9 	movb   $0xf9,-0x30f8(%rbp)
   107dd:	48 c7 85 90 d0 ff ff 	movq   $0x0,-0x2f70(%rbp)
   107e4:	00 00 00 00 
   107e8:	48 8d 85 90 d0 ff ff 	lea    -0x2f70(%rbp),%rax
   107ef:	48 89 85 68 d1 ff ff 	mov    %rax,-0x2e98(%rbp)
   107f6:	48 c7 85 70 d1 ff ff 	movq   $0x0,-0x2e90(%rbp)
   107fd:	00 00 00 00 
   10801:	48 8d 05 48 b9 00 00 	lea    0xb948(%rip),%rax        # 1c150 <g_163>
   10808:	48 89 85 78 d1 ff ff 	mov    %rax,-0x2e88(%rbp)
   1080f:	48 8d 05 ea dd 00 00 	lea    0xddea(%rip),%rax        # 1e600 <g_261>
   10816:	48 89 85 80 d1 ff ff 	mov    %rax,-0x2e80(%rbp)
   1081d:	48 8d 85 60 d4 ff ff 	lea    -0x2ba0(%rbp),%rax
   10824:	48 83 c0 18          	add    $0x18,%rax
   10828:	48 89 85 c0 ec ff ff 	mov    %rax,-0x1340(%rbp)
   1082f:	48 8d 05 0a b9 00 00 	lea    0xb90a(%rip),%rax        # 1c140 <g_152>
   10836:	48 89 85 c8 ec ff ff 	mov    %rax,-0x1338(%rbp)
   1083d:	48 8d 05 fc b8 00 00 	lea    0xb8fc(%rip),%rax        # 1c140 <g_152>
   10844:	48 89 85 d0 ec ff ff 	mov    %rax,-0x1330(%rbp)
   1084b:	48 8d 05 3e b8 00 00 	lea    0xb83e(%rip),%rax        # 1c090 <g_78>
   10852:	48 89 85 d8 ec ff ff 	mov    %rax,-0x1328(%rbp)
   10859:	48 8d 05 e8 f8 00 00 	lea    0xf8e8(%rip),%rax        # 20148 <g_449>
   10860:	48 89 85 e0 ec ff ff 	mov    %rax,-0x1320(%rbp)
   10867:	48 c7 85 e8 ec ff ff 	movq   $0x0,-0x1318(%rbp)
   1086e:	00 00 00 00 
   10872:	48 8d 05 c7 b8 00 00 	lea    0xb8c7(%rip),%rax        # 1c140 <g_152>
   10879:	48 89 85 f0 ec ff ff 	mov    %rax,-0x1310(%rbp)
   10880:	48 8d 85 58 d0 ff ff 	lea    -0x2fa8(%rbp),%rax
   10887:	48 89 85 f8 ec ff ff 	mov    %rax,-0x1308(%rbp)
   1088e:	48 8d 05 ab b8 00 00 	lea    0xb8ab(%rip),%rax        # 1c140 <g_152>
   10895:	48 89 85 00 ed ff ff 	mov    %rax,-0x1300(%rbp)
   1089c:	48 8d 85 60 d4 ff ff 	lea    -0x2ba0(%rbp),%rax
   108a3:	48 83 c0 08          	add    $0x8,%rax
   108a7:	48 89 85 08 ed ff ff 	mov    %rax,-0x12f8(%rbp)
   108ae:	48 8d 05 93 f8 00 00 	lea    0xf893(%rip),%rax        # 20148 <g_449>
   108b5:	48 89 85 10 ed ff ff 	mov    %rax,-0x12f0(%rbp)
   108bc:	48 8d 85 60 d4 ff ff 	lea    -0x2ba0(%rbp),%rax
   108c3:	48 83 c0 10          	add    $0x10,%rax
   108c7:	48 89 85 18 ed ff ff 	mov    %rax,-0x12e8(%rbp)
   108ce:	48 8d 05 73 f8 00 00 	lea    0xf873(%rip),%rax        # 20148 <g_449>
   108d5:	48 89 85 20 ed ff ff 	mov    %rax,-0x12e0(%rbp)
   108dc:	48 8d 05 ad b7 00 00 	lea    0xb7ad(%rip),%rax        # 1c090 <g_78>
   108e3:	48 89 85 28 ed ff ff 	mov    %rax,-0x12d8(%rbp)
   108ea:	48 8d 85 60 d4 ff ff 	lea    -0x2ba0(%rbp),%rax
   108f1:	48 83 c0 18          	add    $0x18,%rax
   108f5:	48 89 85 30 ed ff ff 	mov    %rax,-0x12d0(%rbp)
   108fc:	48 8d 85 60 d4 ff ff 	lea    -0x2ba0(%rbp),%rax
   10903:	48 83 c0 18          	add    $0x18,%rax
   10907:	48 89 85 38 ed ff ff 	mov    %rax,-0x12c8(%rbp)
   1090e:	48 8d 05 33 f8 00 00 	lea    0xf833(%rip),%rax        # 20148 <g_449>
   10915:	48 89 85 40 ed ff ff 	mov    %rax,-0x12c0(%rbp)
   1091c:	48 8d 85 58 d0 ff ff 	lea    -0x2fa8(%rbp),%rax
   10923:	48 89 85 48 ed ff ff 	mov    %rax,-0x12b8(%rbp)
   1092a:	48 8d 85 60 d4 ff ff 	lea    -0x2ba0(%rbp),%rax
   10931:	48 83 c0 18          	add    $0x18,%rax
   10935:	48 89 85 50 ed ff ff 	mov    %rax,-0x12b0(%rbp)
   1093c:	48 8d 05 4d b7 00 00 	lea    0xb74d(%rip),%rax        # 1c090 <g_78>
   10943:	48 89 85 58 ed ff ff 	mov    %rax,-0x12a8(%rbp)
   1094a:	48 8d 85 58 d0 ff ff 	lea    -0x2fa8(%rbp),%rax
   10951:	48 89 85 60 ed ff ff 	mov    %rax,-0x12a0(%rbp)
   10958:	48 8d 05 e9 f7 00 00 	lea    0xf7e9(%rip),%rax        # 20148 <g_449>
   1095f:	48 89 85 68 ed ff ff 	mov    %rax,-0x1298(%rbp)
   10966:	48 8d 05 d3 b7 00 00 	lea    0xb7d3(%rip),%rax        # 1c140 <g_152>
   1096d:	48 89 85 70 ed ff ff 	mov    %rax,-0x1290(%rbp)
   10974:	48 c7 85 78 ed ff ff 	movq   $0x0,-0x1288(%rbp)
   1097b:	00 00 00 00 
   1097f:	48 8d 05 ba b7 00 00 	lea    0xb7ba(%rip),%rax        # 1c140 <g_152>
   10986:	48 89 85 80 ed ff ff 	mov    %rax,-0x1280(%rbp)
   1098d:	48 c7 85 88 ed ff ff 	movq   $0x0,-0x1278(%rbp)
   10994:	00 00 00 00 
   10998:	48 c7 85 90 ed ff ff 	movq   $0x0,-0x1270(%rbp)
   1099f:	00 00 00 00 
   109a3:	48 8d 85 60 d4 ff ff 	lea    -0x2ba0(%rbp),%rax
   109aa:	48 83 c0 18          	add    $0x18,%rax
   109ae:	48 89 85 98 ed ff ff 	mov    %rax,-0x1268(%rbp)
   109b5:	48 8d 05 84 b7 00 00 	lea    0xb784(%rip),%rax        # 1c140 <g_152>
   109bc:	48 89 85 a0 ed ff ff 	mov    %rax,-0x1260(%rbp)
   109c3:	48 8d 85 58 d0 ff ff 	lea    -0x2fa8(%rbp),%rax
   109ca:	48 89 85 a8 ed ff ff 	mov    %rax,-0x1258(%rbp)
   109d1:	48 8d 05 70 f7 00 00 	lea    0xf770(%rip),%rax        # 20148 <g_449>
   109d8:	48 89 85 b0 ed ff ff 	mov    %rax,-0x1250(%rbp)
   109df:	48 8d 85 58 d0 ff ff 	lea    -0x2fa8(%rbp),%rax
   109e6:	48 89 85 b8 ed ff ff 	mov    %rax,-0x1248(%rbp)
   109ed:	48 8d 05 4c b7 00 00 	lea    0xb74c(%rip),%rax        # 1c140 <g_152>
   109f4:	48 89 85 c0 ed ff ff 	mov    %rax,-0x1240(%rbp)
   109fb:	48 8d 85 60 d4 ff ff 	lea    -0x2ba0(%rbp),%rax
   10a02:	48 83 c0 18          	add    $0x18,%rax
   10a06:	48 89 85 c8 ed ff ff 	mov    %rax,-0x1238(%rbp)
   10a0d:	48 8d 05 34 f7 00 00 	lea    0xf734(%rip),%rax        # 20148 <g_449>
   10a14:	48 89 85 d0 ed ff ff 	mov    %rax,-0x1230(%rbp)
   10a1b:	48 8d 85 60 d4 ff ff 	lea    -0x2ba0(%rbp),%rax
   10a22:	48 83 c0 18          	add    $0x18,%rax
   10a26:	48 89 85 d8 ed ff ff 	mov    %rax,-0x1228(%rbp)
   10a2d:	48 c7 85 e0 ed ff ff 	movq   $0x0,-0x1220(%rbp)
   10a34:	00 00 00 00 
   10a38:	48 c7 85 e8 ed ff ff 	movq   $0x0,-0x1218(%rbp)
   10a3f:	00 00 00 00 
   10a43:	48 c7 85 f0 ed ff ff 	movq   $0x0,-0x1210(%rbp)
   10a4a:	00 00 00 00 
   10a4e:	48 8d 85 58 d0 ff ff 	lea    -0x2fa8(%rbp),%rax
   10a55:	48 89 85 f8 ed ff ff 	mov    %rax,-0x1208(%rbp)
   10a5c:	48 8d 85 60 d4 ff ff 	lea    -0x2ba0(%rbp),%rax
   10a63:	48 83 c0 18          	add    $0x18,%rax
   10a67:	48 89 85 00 ee ff ff 	mov    %rax,-0x1200(%rbp)
   10a6e:	48 8d 05 cb b6 00 00 	lea    0xb6cb(%rip),%rax        # 1c140 <g_152>
   10a75:	48 89 85 08 ee ff ff 	mov    %rax,-0x11f8(%rbp)
   10a7c:	48 8d 05 bd b6 00 00 	lea    0xb6bd(%rip),%rax        # 1c140 <g_152>
   10a83:	48 89 85 10 ee ff ff 	mov    %rax,-0x11f0(%rbp)
   10a8a:	48 8d 05 af b6 00 00 	lea    0xb6af(%rip),%rax        # 1c140 <g_152>
   10a91:	48 89 85 18 ee ff ff 	mov    %rax,-0x11e8(%rbp)
   10a98:	48 8d 05 f1 b5 00 00 	lea    0xb5f1(%rip),%rax        # 1c090 <g_78>
   10a9f:	48 89 85 20 ee ff ff 	mov    %rax,-0x11e0(%rbp)
   10aa6:	48 8d 85 60 d4 ff ff 	lea    -0x2ba0(%rbp),%rax
   10aad:	48 83 c0 10          	add    $0x10,%rax
   10ab1:	48 89 85 28 ee ff ff 	mov    %rax,-0x11d8(%rbp)
   10ab8:	48 8d 85 58 d0 ff ff 	lea    -0x2fa8(%rbp),%rax
   10abf:	48 89 85 30 ee ff ff 	mov    %rax,-0x11d0(%rbp)
   10ac6:	48 8d 85 60 d4 ff ff 	lea    -0x2ba0(%rbp),%rax
   10acd:	48 83 c0 18          	add    $0x18,%rax
   10ad1:	48 89 85 38 ee ff ff 	mov    %rax,-0x11c8(%rbp)
   10ad8:	48 8d 05 61 b6 00 00 	lea    0xb661(%rip),%rax        # 1c140 <g_152>
   10adf:	48 89 85 40 ee ff ff 	mov    %rax,-0x11c0(%rbp)
   10ae6:	48 8d 85 60 d4 ff ff 	lea    -0x2ba0(%rbp),%rax
   10aed:	48 89 85 48 ee ff ff 	mov    %rax,-0x11b8(%rbp)
   10af4:	48 8d 05 45 b6 00 00 	lea    0xb645(%rip),%rax        # 1c140 <g_152>
   10afb:	48 89 85 50 ee ff ff 	mov    %rax,-0x11b0(%rbp)
   10b02:	48 c7 85 58 ee ff ff 	movq   $0x0,-0x11a8(%rbp)
   10b09:	00 00 00 00 
   10b0d:	48 8d 05 34 f6 00 00 	lea    0xf634(%rip),%rax        # 20148 <g_449>
   10b14:	48 89 85 60 ee ff ff 	mov    %rax,-0x11a0(%rbp)
   10b1b:	48 8d 05 1e b6 00 00 	lea    0xb61e(%rip),%rax        # 1c140 <g_152>
   10b22:	48 89 85 68 ee ff ff 	mov    %rax,-0x1198(%rbp)
   10b29:	48 8d 85 60 d4 ff ff 	lea    -0x2ba0(%rbp),%rax
   10b30:	48 83 c0 08          	add    $0x8,%rax
   10b34:	48 89 85 70 ee ff ff 	mov    %rax,-0x1190(%rbp)
   10b3b:	48 8d 05 fe b5 00 00 	lea    0xb5fe(%rip),%rax        # 1c140 <g_152>
   10b42:	48 89 85 78 ee ff ff 	mov    %rax,-0x1188(%rbp)
   10b49:	48 8d 05 f0 b5 00 00 	lea    0xb5f0(%rip),%rax        # 1c140 <g_152>
   10b50:	48 89 85 80 ee ff ff 	mov    %rax,-0x1180(%rbp)
   10b57:	48 8d 05 e2 b5 00 00 	lea    0xb5e2(%rip),%rax        # 1c140 <g_152>
   10b5e:	48 89 85 88 ee ff ff 	mov    %rax,-0x1178(%rbp)
   10b65:	48 8d 85 60 d4 ff ff 	lea    -0x2ba0(%rbp),%rax
   10b6c:	48 83 c0 18          	add    $0x18,%rax
   10b70:	48 89 85 90 ee ff ff 	mov    %rax,-0x1170(%rbp)
   10b77:	48 c7 85 98 ee ff ff 	movq   $0x0,-0x1168(%rbp)
   10b7e:	00 00 00 00 
   10b82:	48 8d 05 07 b5 00 00 	lea    0xb507(%rip),%rax        # 1c090 <g_78>
   10b89:	48 89 85 a0 ee ff ff 	mov    %rax,-0x1160(%rbp)
   10b90:	48 c7 85 a8 ee ff ff 	movq   $0x0,-0x1158(%rbp)
   10b97:	00 00 00 00 
   10b9b:	48 8d 05 9e b5 00 00 	lea    0xb59e(%rip),%rax        # 1c140 <g_152>
   10ba2:	48 89 85 b0 ee ff ff 	mov    %rax,-0x1150(%rbp)
   10ba9:	48 8d 05 90 b5 00 00 	lea    0xb590(%rip),%rax        # 1c140 <g_152>
   10bb0:	48 89 85 b8 ee ff ff 	mov    %rax,-0x1148(%rbp)
   10bb7:	48 8d 05 8a f5 00 00 	lea    0xf58a(%rip),%rax        # 20148 <g_449>
   10bbe:	48 89 85 c0 ee ff ff 	mov    %rax,-0x1140(%rbp)
   10bc5:	48 8d 85 60 d4 ff ff 	lea    -0x2ba0(%rbp),%rax
   10bcc:	48 83 c0 20          	add    $0x20,%rax
   10bd0:	48 89 85 c8 ee ff ff 	mov    %rax,-0x1138(%rbp)
   10bd7:	48 8d 85 60 d4 ff ff 	lea    -0x2ba0(%rbp),%rax
   10bde:	48 83 c0 08          	add    $0x8,%rax
   10be2:	48 89 85 d0 ee ff ff 	mov    %rax,-0x1130(%rbp)
   10be9:	48 8d 85 58 d0 ff ff 	lea    -0x2fa8(%rbp),%rax
   10bf0:	48 89 85 d8 ee ff ff 	mov    %rax,-0x1128(%rbp)
   10bf7:	48 8d 85 60 d4 ff ff 	lea    -0x2ba0(%rbp),%rax
   10bfe:	48 83 c0 08          	add    $0x8,%rax
   10c02:	48 89 85 e0 ee ff ff 	mov    %rax,-0x1120(%rbp)
   10c09:	48 8d 85 60 d4 ff ff 	lea    -0x2ba0(%rbp),%rax
   10c10:	48 83 c0 20          	add    $0x20,%rax
   10c14:	48 89 85 e8 ee ff ff 	mov    %rax,-0x1118(%rbp)
   10c1b:	48 8d 05 26 f5 00 00 	lea    0xf526(%rip),%rax        # 20148 <g_449>
   10c22:	48 89 85 f0 ee ff ff 	mov    %rax,-0x1110(%rbp)
   10c29:	48 8d 05 10 b5 00 00 	lea    0xb510(%rip),%rax        # 1c140 <g_152>
   10c30:	48 89 85 f8 ee ff ff 	mov    %rax,-0x1108(%rbp)
   10c37:	48 8d 05 02 b5 00 00 	lea    0xb502(%rip),%rax        # 1c140 <g_152>
   10c3e:	48 89 85 00 ef ff ff 	mov    %rax,-0x1100(%rbp)
   10c45:	48 8d 85 58 d0 ff ff 	lea    -0x2fa8(%rbp),%rax
   10c4c:	48 89 85 08 ef ff ff 	mov    %rax,-0x10f8(%rbp)
   10c53:	48 8d 85 60 d4 ff ff 	lea    -0x2ba0(%rbp),%rax
   10c5a:	48 83 c0 18          	add    $0x18,%rax
   10c5e:	48 89 85 10 ef ff ff 	mov    %rax,-0x10f0(%rbp)
   10c65:	48 8d 85 60 d4 ff ff 	lea    -0x2ba0(%rbp),%rax
   10c6c:	48 83 c0 18          	add    $0x18,%rax
   10c70:	48 89 85 18 ef ff ff 	mov    %rax,-0x10e8(%rbp)
   10c77:	48 8d 85 60 d4 ff ff 	lea    -0x2ba0(%rbp),%rax
   10c7e:	48 83 c0 08          	add    $0x8,%rax
   10c82:	48 89 85 20 ef ff ff 	mov    %rax,-0x10e0(%rbp)
   10c89:	48 8d 05 00 b4 00 00 	lea    0xb400(%rip),%rax        # 1c090 <g_78>
   10c90:	48 89 85 28 ef ff ff 	mov    %rax,-0x10d8(%rbp)
   10c97:	48 8d 05 a2 b4 00 00 	lea    0xb4a2(%rip),%rax        # 1c140 <g_152>
   10c9e:	48 89 85 30 ef ff ff 	mov    %rax,-0x10d0(%rbp)
   10ca5:	48 8d 85 58 d0 ff ff 	lea    -0x2fa8(%rbp),%rax
   10cac:	48 89 85 38 ef ff ff 	mov    %rax,-0x10c8(%rbp)
   10cb3:	48 8d 05 d6 b3 00 00 	lea    0xb3d6(%rip),%rax        # 1c090 <g_78>
   10cba:	48 89 85 40 ef ff ff 	mov    %rax,-0x10c0(%rbp)
   10cc1:	48 8d 05 80 f4 00 00 	lea    0xf480(%rip),%rax        # 20148 <g_449>
   10cc8:	48 89 85 48 ef ff ff 	mov    %rax,-0x10b8(%rbp)
   10ccf:	48 8d 05 6a b4 00 00 	lea    0xb46a(%rip),%rax        # 1c140 <g_152>
   10cd6:	48 89 85 50 ef ff ff 	mov    %rax,-0x10b0(%rbp)
   10cdd:	48 8d 05 ac b3 00 00 	lea    0xb3ac(%rip),%rax        # 1c090 <g_78>
   10ce4:	48 89 85 58 ef ff ff 	mov    %rax,-0x10a8(%rbp)
   10ceb:	48 8d 85 60 d4 ff ff 	lea    -0x2ba0(%rbp),%rax
   10cf2:	48 83 c0 10          	add    $0x10,%rax
   10cf6:	48 89 85 60 ef ff ff 	mov    %rax,-0x10a0(%rbp)
   10cfd:	48 8d 85 60 d4 ff ff 	lea    -0x2ba0(%rbp),%rax
   10d04:	48 83 c0 18          	add    $0x18,%rax
   10d08:	48 89 85 68 ef ff ff 	mov    %rax,-0x1098(%rbp)
   10d0f:	48 c7 85 70 ef ff ff 	movq   $0x0,-0x1090(%rbp)
   10d16:	00 00 00 00 
   10d1a:	48 8d 05 27 f4 00 00 	lea    0xf427(%rip),%rax        # 20148 <g_449>
   10d21:	48 89 85 78 ef ff ff 	mov    %rax,-0x1088(%rbp)
   10d28:	48 8d 05 19 f4 00 00 	lea    0xf419(%rip),%rax        # 20148 <g_449>
   10d2f:	48 89 85 80 ef ff ff 	mov    %rax,-0x1080(%rbp)
   10d36:	48 8d 85 60 d4 ff ff 	lea    -0x2ba0(%rbp),%rax
   10d3d:	48 83 c0 18          	add    $0x18,%rax
   10d41:	48 89 85 88 ef ff ff 	mov    %rax,-0x1078(%rbp)
   10d48:	48 8d 05 f1 b3 00 00 	lea    0xb3f1(%rip),%rax        # 1c140 <g_152>
   10d4f:	48 89 85 90 ef ff ff 	mov    %rax,-0x1070(%rbp)
   10d56:	48 8d 85 60 d4 ff ff 	lea    -0x2ba0(%rbp),%rax
   10d5d:	48 83 c0 08          	add    $0x8,%rax
   10d61:	48 89 85 98 ef ff ff 	mov    %rax,-0x1068(%rbp)
   10d68:	48 8d 05 d1 b3 00 00 	lea    0xb3d1(%rip),%rax        # 1c140 <g_152>
   10d6f:	48 89 85 a0 ef ff ff 	mov    %rax,-0x1060(%rbp)
   10d76:	48 8d 05 c3 b3 00 00 	lea    0xb3c3(%rip),%rax        # 1c140 <g_152>
   10d7d:	48 89 85 a8 ef ff ff 	mov    %rax,-0x1058(%rbp)
   10d84:	48 8d 05 b5 b3 00 00 	lea    0xb3b5(%rip),%rax        # 1c140 <g_152>
   10d8b:	48 89 85 b0 ef ff ff 	mov    %rax,-0x1050(%rbp)
   10d92:	48 8d 85 60 d4 ff ff 	lea    -0x2ba0(%rbp),%rax
   10d99:	48 83 c0 18          	add    $0x18,%rax
   10d9d:	48 89 85 b8 ef ff ff 	mov    %rax,-0x1048(%rbp)
   10da4:	48 c7 85 c0 ef ff ff 	movq   $0x0,-0x1040(%rbp)
   10dab:	00 00 00 00 
   10daf:	48 8d 05 da b2 00 00 	lea    0xb2da(%rip),%rax        # 1c090 <g_78>
   10db6:	48 89 85 c8 ef ff ff 	mov    %rax,-0x1038(%rbp)
   10dbd:	48 c7 85 d0 ef ff ff 	movq   $0x0,-0x1030(%rbp)
   10dc4:	00 00 00 00 
   10dc8:	48 8d 05 71 b3 00 00 	lea    0xb371(%rip),%rax        # 1c140 <g_152>
   10dcf:	48 89 85 d8 ef ff ff 	mov    %rax,-0x1028(%rbp)
   10dd6:	48 8d 85 60 d4 ff ff 	lea    -0x2ba0(%rbp),%rax
   10ddd:	48 83 c0 10          	add    $0x10,%rax
   10de1:	48 89 85 e0 ef ff ff 	mov    %rax,-0x1020(%rbp)
   10de8:	48 8d 85 58 d0 ff ff 	lea    -0x2fa8(%rbp),%rax
   10def:	48 89 85 e8 ef ff ff 	mov    %rax,-0x1018(%rbp)
   10df6:	48 8d 85 60 d4 ff ff 	lea    -0x2ba0(%rbp),%rax
   10dfd:	48 83 c0 18          	add    $0x18,%rax
   10e01:	48 89 85 f0 ef ff ff 	mov    %rax,-0x1010(%rbp)
   10e08:	48 8d 05 81 b2 00 00 	lea    0xb281(%rip),%rax        # 1c090 <g_78>
   10e0f:	48 89 85 f8 ef ff ff 	mov    %rax,-0x1008(%rbp)
   10e16:	48 8d 05 2b f3 00 00 	lea    0xf32b(%rip),%rax        # 20148 <g_449>
   10e1d:	48 89 85 00 f0 ff ff 	mov    %rax,-0x1000(%rbp)
   10e24:	48 8d 05 65 b2 00 00 	lea    0xb265(%rip),%rax        # 1c090 <g_78>
   10e2b:	48 89 85 08 f0 ff ff 	mov    %rax,-0xff8(%rbp)
   10e32:	48 8d 85 60 d4 ff ff 	lea    -0x2ba0(%rbp),%rax
   10e39:	48 83 c0 18          	add    $0x18,%rax
   10e3d:	48 89 85 10 f0 ff ff 	mov    %rax,-0xff0(%rbp)
   10e44:	48 8d 85 58 d0 ff ff 	lea    -0x2fa8(%rbp),%rax
   10e4b:	48 89 85 18 f0 ff ff 	mov    %rax,-0xfe8(%rbp)
   10e52:	48 8d 85 60 d4 ff ff 	lea    -0x2ba0(%rbp),%rax
   10e59:	48 83 c0 08          	add    $0x8,%rax
   10e5d:	48 89 85 20 f0 ff ff 	mov    %rax,-0xfe0(%rbp)
   10e64:	48 8d 85 60 d4 ff ff 	lea    -0x2ba0(%rbp),%rax
   10e6b:	48 83 c0 08          	add    $0x8,%rax
   10e6f:	48 89 85 28 f0 ff ff 	mov    %rax,-0xfd8(%rbp)
   10e76:	48 c7 85 30 f0 ff ff 	movq   $0x0,-0xfd0(%rbp)
   10e7d:	00 00 00 00 
   10e81:	48 c7 85 38 f0 ff ff 	movq   $0x0,-0xfc8(%rbp)
   10e88:	00 00 00 00 
   10e8c:	48 c7 85 40 f0 ff ff 	movq   $0x0,-0xfc0(%rbp)
   10e93:	00 00 00 00 
   10e97:	48 8d 85 58 d0 ff ff 	lea    -0x2fa8(%rbp),%rax
   10e9e:	48 89 85 48 f0 ff ff 	mov    %rax,-0xfb8(%rbp)
   10ea5:	48 8d 05 94 b2 00 00 	lea    0xb294(%rip),%rax        # 1c140 <g_152>
   10eac:	48 89 85 50 f0 ff ff 	mov    %rax,-0xfb0(%rbp)
   10eb3:	48 8d 85 58 d0 ff ff 	lea    -0x2fa8(%rbp),%rax
   10eba:	48 89 85 58 f0 ff ff 	mov    %rax,-0xfa8(%rbp)
   10ec1:	48 8d 05 78 b2 00 00 	lea    0xb278(%rip),%rax        # 1c140 <g_152>
   10ec8:	48 89 85 60 f0 ff ff 	mov    %rax,-0xfa0(%rbp)
   10ecf:	48 8d 85 60 d4 ff ff 	lea    -0x2ba0(%rbp),%rax
   10ed6:	48 83 c0 18          	add    $0x18,%rax
   10eda:	48 89 85 68 f0 ff ff 	mov    %rax,-0xf98(%rbp)
   10ee1:	48 8d 85 60 d4 ff ff 	lea    -0x2ba0(%rbp),%rax
   10ee8:	48 83 c0 18          	add    $0x18,%rax
   10eec:	48 89 85 70 f0 ff ff 	mov    %rax,-0xf90(%rbp)
   10ef3:	48 8d 05 4e f2 00 00 	lea    0xf24e(%rip),%rax        # 20148 <g_449>
   10efa:	48 89 85 78 f0 ff ff 	mov    %rax,-0xf88(%rbp)
   10f01:	48 8d 05 38 b2 00 00 	lea    0xb238(%rip),%rax        # 1c140 <g_152>
   10f08:	48 89 85 80 f0 ff ff 	mov    %rax,-0xf80(%rbp)
   10f0f:	48 8d 85 60 d4 ff ff 	lea    -0x2ba0(%rbp),%rax
   10f16:	48 89 85 88 f0 ff ff 	mov    %rax,-0xf78(%rbp)
   10f1d:	48 8d 85 60 d4 ff ff 	lea    -0x2ba0(%rbp),%rax
   10f24:	48 83 c0 18          	add    $0x18,%rax
   10f28:	48 89 85 90 f0 ff ff 	mov    %rax,-0xf70(%rbp)
   10f2f:	48 c7 85 98 f0 ff ff 	movq   $0x0,-0xf68(%rbp)
   10f36:	00 00 00 00 
   10f3a:	48 8d 05 ff b1 00 00 	lea    0xb1ff(%rip),%rax        # 1c140 <g_152>
   10f41:	48 89 85 a0 f0 ff ff 	mov    %rax,-0xf60(%rbp)
   10f48:	48 8d 85 58 d0 ff ff 	lea    -0x2fa8(%rbp),%rax
   10f4f:	48 89 85 a8 f0 ff ff 	mov    %rax,-0xf58(%rbp)
   10f56:	48 8d 05 e3 b1 00 00 	lea    0xb1e3(%rip),%rax        # 1c140 <g_152>
   10f5d:	48 89 85 b0 f0 ff ff 	mov    %rax,-0xf50(%rbp)
   10f64:	48 8d 85 58 d0 ff ff 	lea    -0x2fa8(%rbp),%rax
   10f6b:	48 89 85 b8 f0 ff ff 	mov    %rax,-0xf48(%rbp)
   10f72:	48 8d 05 c7 b1 00 00 	lea    0xb1c7(%rip),%rax        # 1c140 <g_152>
   10f79:	48 89 85 c0 f0 ff ff 	mov    %rax,-0xf40(%rbp)
   10f80:	48 c7 85 c8 f0 ff ff 	movq   $0x0,-0xf38(%rbp)
   10f87:	00 00 00 00 
   10f8b:	48 8d 05 b6 f1 00 00 	lea    0xf1b6(%rip),%rax        # 20148 <g_449>
   10f92:	48 89 85 d0 f0 ff ff 	mov    %rax,-0xf30(%rbp)
   10f99:	48 8d 05 f0 b0 00 00 	lea    0xb0f0(%rip),%rax        # 1c090 <g_78>
   10fa0:	48 89 85 d8 f0 ff ff 	mov    %rax,-0xf28(%rbp)
   10fa7:	48 8d 05 92 b1 00 00 	lea    0xb192(%rip),%rax        # 1c140 <g_152>
   10fae:	48 89 85 e0 f0 ff ff 	mov    %rax,-0xf20(%rbp)
   10fb5:	48 8d 05 84 b1 00 00 	lea    0xb184(%rip),%rax        # 1c140 <g_152>
   10fbc:	48 89 85 e8 f0 ff ff 	mov    %rax,-0xf18(%rbp)
   10fc3:	48 8d 85 60 d4 ff ff 	lea    -0x2ba0(%rbp),%rax
   10fca:	48 83 c0 18          	add    $0x18,%rax
   10fce:	48 89 85 f0 f0 ff ff 	mov    %rax,-0xf10(%rbp)
   10fd5:	48 8d 85 60 d4 ff ff 	lea    -0x2ba0(%rbp),%rax
   10fdc:	48 83 c0 18          	add    $0x18,%rax
   10fe0:	48 89 85 f8 f0 ff ff 	mov    %rax,-0xf08(%rbp)
   10fe7:	48 c7 85 00 f1 ff ff 	movq   $0x0,-0xf00(%rbp)
   10fee:	00 00 00 00 
   10ff2:	48 8d 05 47 b1 00 00 	lea    0xb147(%rip),%rax        # 1c140 <g_152>
   10ff9:	48 89 85 08 f1 ff ff 	mov    %rax,-0xef8(%rbp)
   11000:	48 8d 05 41 f1 00 00 	lea    0xf141(%rip),%rax        # 20148 <g_449>
   11007:	48 89 85 10 f1 ff ff 	mov    %rax,-0xef0(%rbp)
   1100e:	48 8d 85 60 d4 ff ff 	lea    -0x2ba0(%rbp),%rax
   11015:	48 83 c0 20          	add    $0x20,%rax
   11019:	48 89 85 18 f1 ff ff 	mov    %rax,-0xee8(%rbp)
   11020:	48 8d 85 60 d4 ff ff 	lea    -0x2ba0(%rbp),%rax
   11027:	48 83 c0 08          	add    $0x8,%rax
   1102b:	48 89 85 20 f1 ff ff 	mov    %rax,-0xee0(%rbp)
   11032:	48 8d 85 58 d0 ff ff 	lea    -0x2fa8(%rbp),%rax
   11039:	48 89 85 28 f1 ff ff 	mov    %rax,-0xed8(%rbp)
   11040:	48 8d 85 60 d4 ff ff 	lea    -0x2ba0(%rbp),%rax
   11047:	48 83 c0 08          	add    $0x8,%rax
   1104b:	48 89 85 30 f1 ff ff 	mov    %rax,-0xed0(%rbp)
   11052:	48 8d 85 60 d4 ff ff 	lea    -0x2ba0(%rbp),%rax
   11059:	48 83 c0 20          	add    $0x20,%rax
   1105d:	48 89 85 38 f1 ff ff 	mov    %rax,-0xec8(%rbp)
   11064:	48 c7 85 40 f1 ff ff 	movq   $0x0,-0xec0(%rbp)
   1106b:	00 00 00 00 
   1106f:	48 8d 85 60 d4 ff ff 	lea    -0x2ba0(%rbp),%rax
   11076:	48 83 c0 08          	add    $0x8,%rax
   1107a:	48 89 85 48 f1 ff ff 	mov    %rax,-0xeb8(%rbp)
   11081:	48 8d 85 60 d4 ff ff 	lea    -0x2ba0(%rbp),%rax
   11088:	48 83 c0 08          	add    $0x8,%rax
   1108c:	48 89 85 50 f1 ff ff 	mov    %rax,-0xeb0(%rbp)
   11093:	48 c7 85 58 f1 ff ff 	movq   $0x0,-0xea8(%rbp)
   1109a:	00 00 00 00 
   1109e:	48 c7 85 60 f1 ff ff 	movq   $0x0,-0xea0(%rbp)
   110a5:	00 00 00 00 
   110a9:	48 c7 85 68 f1 ff ff 	movq   $0x0,-0xe98(%rbp)
   110b0:	00 00 00 00 
   110b4:	48 8d 85 58 d0 ff ff 	lea    -0x2fa8(%rbp),%rax
   110bb:	48 89 85 70 f1 ff ff 	mov    %rax,-0xe90(%rbp)
   110c2:	48 8d 85 60 d4 ff ff 	lea    -0x2ba0(%rbp),%rax
   110c9:	48 83 c0 18          	add    $0x18,%rax
   110cd:	48 89 85 78 f1 ff ff 	mov    %rax,-0xe88(%rbp)
   110d4:	48 8d 05 65 b0 00 00 	lea    0xb065(%rip),%rax        # 1c140 <g_152>
   110db:	48 89 85 80 f1 ff ff 	mov    %rax,-0xe80(%rbp)
   110e2:	48 8d 05 a7 af 00 00 	lea    0xafa7(%rip),%rax        # 1c090 <g_78>
   110e9:	48 89 85 88 f1 ff ff 	mov    %rax,-0xe78(%rbp)
   110f0:	48 8d 85 60 d4 ff ff 	lea    -0x2ba0(%rbp),%rax
   110f7:	48 83 c0 20          	add    $0x20,%rax
   110fb:	48 89 85 90 f1 ff ff 	mov    %rax,-0xe70(%rbp)
   11102:	48 8d 85 60 d4 ff ff 	lea    -0x2ba0(%rbp),%rax
   11109:	48 83 c0 10          	add    $0x10,%rax
   1110d:	48 89 85 98 f1 ff ff 	mov    %rax,-0xe68(%rbp)
   11114:	48 8d 05 25 b0 00 00 	lea    0xb025(%rip),%rax        # 1c140 <g_152>
   1111b:	48 89 85 a0 f1 ff ff 	mov    %rax,-0xe60(%rbp)
   11122:	48 c7 85 a8 f1 ff ff 	movq   $0x0,-0xe58(%rbp)
   11129:	00 00 00 00 
   1112d:	48 8d 05 14 f0 00 00 	lea    0xf014(%rip),%rax        # 20148 <g_449>
   11134:	48 89 85 b0 f1 ff ff 	mov    %rax,-0xe50(%rbp)
   1113b:	48 8d 05 06 f0 00 00 	lea    0xf006(%rip),%rax        # 20148 <g_449>
   11142:	48 89 85 b8 f1 ff ff 	mov    %rax,-0xe48(%rbp)
   11149:	48 8d 85 60 d4 ff ff 	lea    -0x2ba0(%rbp),%rax
   11150:	48 83 c0 10          	add    $0x10,%rax
   11154:	48 89 85 c0 f1 ff ff 	mov    %rax,-0xe40(%rbp)
   1115b:	48 8d 85 60 d4 ff ff 	lea    -0x2ba0(%rbp),%rax
   11162:	48 89 85 c8 f1 ff ff 	mov    %rax,-0xe38(%rbp)
   11169:	48 c7 85 d0 f1 ff ff 	movq   $0x0,-0xe30(%rbp)
   11170:	00 00 00 00 
   11174:	48 8d 05 c5 af 00 00 	lea    0xafc5(%rip),%rax        # 1c140 <g_152>
   1117b:	48 89 85 d8 f1 ff ff 	mov    %rax,-0xe28(%rbp)
   11182:	48 c7 85 e0 f1 ff ff 	movq   $0x0,-0xe20(%rbp)
   11189:	00 00 00 00 
   1118d:	48 8d 05 ac af 00 00 	lea    0xafac(%rip),%rax        # 1c140 <g_152>
   11194:	48 89 85 e8 f1 ff ff 	mov    %rax,-0xe18(%rbp)
   1119b:	48 c7 85 f0 f1 ff ff 	movq   $0x0,-0xe10(%rbp)
   111a2:	00 00 00 00 
   111a6:	48 8d 85 60 d4 ff ff 	lea    -0x2ba0(%rbp),%rax
   111ad:	48 83 c0 18          	add    $0x18,%rax
   111b1:	48 89 85 f8 f1 ff ff 	mov    %rax,-0xe08(%rbp)
   111b8:	48 8d 05 81 af 00 00 	lea    0xaf81(%rip),%rax        # 1c140 <g_152>
   111bf:	48 89 85 00 f2 ff ff 	mov    %rax,-0xe00(%rbp)
   111c6:	48 8d 05 73 af 00 00 	lea    0xaf73(%rip),%rax        # 1c140 <g_152>
   111cd:	48 89 85 08 f2 ff ff 	mov    %rax,-0xdf8(%rbp)
   111d4:	48 8d 85 60 d4 ff ff 	lea    -0x2ba0(%rbp),%rax
   111db:	48 83 c0 08          	add    $0x8,%rax
   111df:	48 89 85 10 f2 ff ff 	mov    %rax,-0xdf0(%rbp)
   111e6:	48 8d 05 5b ef 00 00 	lea    0xef5b(%rip),%rax        # 20148 <g_449>
   111ed:	48 89 85 18 f2 ff ff 	mov    %rax,-0xde8(%rbp)
   111f4:	48 8d 05 4d ef 00 00 	lea    0xef4d(%rip),%rax        # 20148 <g_449>
   111fb:	48 89 85 20 f2 ff ff 	mov    %rax,-0xde0(%rbp)
   11202:	48 8d 85 60 d4 ff ff 	lea    -0x2ba0(%rbp),%rax
   11209:	48 83 c0 18          	add    $0x18,%rax
   1120d:	48 89 85 28 f2 ff ff 	mov    %rax,-0xdd8(%rbp)
   11214:	48 8d 05 2d ef 00 00 	lea    0xef2d(%rip),%rax        # 20148 <g_449>
   1121b:	48 89 85 30 f2 ff ff 	mov    %rax,-0xdd0(%rbp)
   11222:	48 8d 85 60 d4 ff ff 	lea    -0x2ba0(%rbp),%rax
   11229:	48 83 c0 20          	add    $0x20,%rax
   1122d:	48 89 85 38 f2 ff ff 	mov    %rax,-0xdc8(%rbp)
   11234:	48 8d 85 60 d4 ff ff 	lea    -0x2ba0(%rbp),%rax
   1123b:	48 83 c0 20          	add    $0x20,%rax
   1123f:	48 89 85 40 f2 ff ff 	mov    %rax,-0xdc0(%rbp)
   11246:	48 8d 85 60 d4 ff ff 	lea    -0x2ba0(%rbp),%rax
   1124d:	48 89 85 48 f2 ff ff 	mov    %rax,-0xdb8(%rbp)
   11254:	48 8d 85 60 d4 ff ff 	lea    -0x2ba0(%rbp),%rax
   1125b:	48 83 c0 18          	add    $0x18,%rax
   1125f:	48 89 85 50 f2 ff ff 	mov    %rax,-0xdb0(%rbp)
   11266:	48 8d 85 60 d4 ff ff 	lea    -0x2ba0(%rbp),%rax
   1126d:	48 89 85 58 f2 ff ff 	mov    %rax,-0xda8(%rbp)
   11274:	48 8d 85 60 d4 ff ff 	lea    -0x2ba0(%rbp),%rax
   1127b:	48 83 c0 18          	add    $0x18,%rax
   1127f:	48 89 85 60 f2 ff ff 	mov    %rax,-0xda0(%rbp)
   11286:	48 8d 05 bb ee 00 00 	lea    0xeebb(%rip),%rax        # 20148 <g_449>
   1128d:	48 89 85 68 f2 ff ff 	mov    %rax,-0xd98(%rbp)
   11294:	48 8d 85 60 d4 ff ff 	lea    -0x2ba0(%rbp),%rax
   1129b:	48 83 c0 18          	add    $0x18,%rax
   1129f:	48 89 85 70 f2 ff ff 	mov    %rax,-0xd90(%rbp)
   112a6:	48 8d 85 60 d4 ff ff 	lea    -0x2ba0(%rbp),%rax
   112ad:	48 83 c0 18          	add    $0x18,%rax
   112b1:	48 89 85 78 f2 ff ff 	mov    %rax,-0xd88(%rbp)
   112b8:	48 8d 05 89 ee 00 00 	lea    0xee89(%rip),%rax        # 20148 <g_449>
   112bf:	48 89 85 80 f2 ff ff 	mov    %rax,-0xd80(%rbp)
   112c6:	48 8d 85 60 d4 ff ff 	lea    -0x2ba0(%rbp),%rax
   112cd:	48 83 c0 18          	add    $0x18,%rax
   112d1:	48 89 85 88 f2 ff ff 	mov    %rax,-0xd78(%rbp)
   112d8:	48 8d 85 58 d0 ff ff 	lea    -0x2fa8(%rbp),%rax
   112df:	48 89 85 90 f2 ff ff 	mov    %rax,-0xd70(%rbp)
   112e6:	48 c7 85 98 f2 ff ff 	movq   $0x0,-0xd68(%rbp)
   112ed:	00 00 00 00 
   112f1:	48 c7 85 a0 f2 ff ff 	movq   $0x0,-0xd60(%rbp)
   112f8:	00 00 00 00 
   112fc:	48 c7 85 a8 f2 ff ff 	movq   $0x0,-0xd58(%rbp)
   11303:	00 00 00 00 
   11307:	48 8d 85 60 d4 ff ff 	lea    -0x2ba0(%rbp),%rax
   1130e:	48 83 c0 10          	add    $0x10,%rax
   11312:	48 89 85 b0 f2 ff ff 	mov    %rax,-0xd50(%rbp)
   11319:	48 8d 85 60 d4 ff ff 	lea    -0x2ba0(%rbp),%rax
   11320:	48 83 c0 08          	add    $0x8,%rax
   11324:	48 89 85 b8 f2 ff ff 	mov    %rax,-0xd48(%rbp)
   1132b:	48 8d 05 5e ad 00 00 	lea    0xad5e(%rip),%rax        # 1c090 <g_78>
   11332:	48 89 85 c0 f2 ff ff 	mov    %rax,-0xd40(%rbp)
   11339:	48 8d 85 60 d4 ff ff 	lea    -0x2ba0(%rbp),%rax
   11340:	48 89 85 c8 f2 ff ff 	mov    %rax,-0xd38(%rbp)
   11347:	48 8d 05 fa ed 00 00 	lea    0xedfa(%rip),%rax        # 20148 <g_449>
   1134e:	48 89 85 d0 f2 ff ff 	mov    %rax,-0xd30(%rbp)
   11355:	48 8d 85 60 d4 ff ff 	lea    -0x2ba0(%rbp),%rax
   1135c:	48 83 c0 18          	add    $0x18,%rax
   11360:	48 89 85 d8 f2 ff ff 	mov    %rax,-0xd28(%rbp)
   11367:	48 8d 05 d2 ad 00 00 	lea    0xadd2(%rip),%rax        # 1c140 <g_152>
   1136e:	48 89 85 e0 f2 ff ff 	mov    %rax,-0xd20(%rbp)
   11375:	48 8d 85 60 d4 ff ff 	lea    -0x2ba0(%rbp),%rax
   1137c:	48 83 c0 18          	add    $0x18,%rax
   11380:	48 89 85 e8 f2 ff ff 	mov    %rax,-0xd18(%rbp)
   11387:	48 8d 85 58 d0 ff ff 	lea    -0x2fa8(%rbp),%rax
   1138e:	48 89 85 f0 f2 ff ff 	mov    %rax,-0xd10(%rbp)
   11395:	48 c7 85 f8 f2 ff ff 	movq   $0x0,-0xd08(%rbp)
   1139c:	00 00 00 00 
   113a0:	48 8d 85 60 d4 ff ff 	lea    -0x2ba0(%rbp),%rax
   113a7:	48 83 c0 18          	add    $0x18,%rax
   113ab:	48 89 85 00 f3 ff ff 	mov    %rax,-0xd00(%rbp)
   113b2:	48 8d 05 87 ad 00 00 	lea    0xad87(%rip),%rax        # 1c140 <g_152>
   113b9:	48 89 85 08 f3 ff ff 	mov    %rax,-0xcf8(%rbp)
   113c0:	48 8d 85 60 d4 ff ff 	lea    -0x2ba0(%rbp),%rax
   113c7:	48 83 c0 18          	add    $0x18,%rax
   113cb:	48 89 85 10 f3 ff ff 	mov    %rax,-0xcf0(%rbp)
   113d2:	48 c7 85 18 f3 ff ff 	movq   $0x0,-0xce8(%rbp)
   113d9:	00 00 00 00 
   113dd:	48 8d 85 58 d0 ff ff 	lea    -0x2fa8(%rbp),%rax
   113e4:	48 89 85 20 f3 ff ff 	mov    %rax,-0xce0(%rbp)
   113eb:	48 8d 85 60 d4 ff ff 	lea    -0x2ba0(%rbp),%rax
   113f2:	48 83 c0 18          	add    $0x18,%rax
   113f6:	48 89 85 28 f3 ff ff 	mov    %rax,-0xcd8(%rbp)
   113fd:	48 8d 05 8c ac 00 00 	lea    0xac8c(%rip),%rax        # 1c090 <g_78>
   11404:	48 89 85 30 f3 ff ff 	mov    %rax,-0xcd0(%rbp)
   1140b:	48 8d 85 60 d4 ff ff 	lea    -0x2ba0(%rbp),%rax
   11412:	48 83 c0 18          	add    $0x18,%rax
   11416:	48 89 85 38 f3 ff ff 	mov    %rax,-0xcc8(%rbp)
   1141d:	48 8d 05 1c ad 00 00 	lea    0xad1c(%rip),%rax        # 1c140 <g_152>
   11424:	48 89 85 40 f3 ff ff 	mov    %rax,-0xcc0(%rbp)
   1142b:	48 8d 85 60 d4 ff ff 	lea    -0x2ba0(%rbp),%rax
   11432:	48 89 85 48 f3 ff ff 	mov    %rax,-0xcb8(%rbp)
   11439:	48 8d 05 00 ad 00 00 	lea    0xad00(%rip),%rax        # 1c140 <g_152>
   11440:	48 89 85 50 f3 ff ff 	mov    %rax,-0xcb0(%rbp)
   11447:	48 8d 85 60 d4 ff ff 	lea    -0x2ba0(%rbp),%rax
   1144e:	48 83 c0 10          	add    $0x10,%rax
   11452:	48 89 85 58 f3 ff ff 	mov    %rax,-0xca8(%rbp)
   11459:	48 8d 85 60 d4 ff ff 	lea    -0x2ba0(%rbp),%rax
   11460:	48 83 c0 08          	add    $0x8,%rax
   11464:	48 89 85 60 f3 ff ff 	mov    %rax,-0xca0(%rbp)
   1146b:	48 8d 85 60 d4 ff ff 	lea    -0x2ba0(%rbp),%rax
   11472:	48 89 85 68 f3 ff ff 	mov    %rax,-0xc98(%rbp)
   11479:	48 8d 05 c8 ec 00 00 	lea    0xecc8(%rip),%rax        # 20148 <g_449>
   11480:	48 89 85 70 f3 ff ff 	mov    %rax,-0xc90(%rbp)
   11487:	48 8d 05 02 ac 00 00 	lea    0xac02(%rip),%rax        # 1c090 <g_78>
   1148e:	48 89 85 78 f3 ff ff 	mov    %rax,-0xc88(%rbp)
   11495:	48 c7 85 88 d1 ff ff 	movq   $0x1,-0x2e78(%rbp)
   1149c:	01 00 00 00 
   114a0:	c7 85 20 d7 ff ff 8c 	movl   $0xb25a4c8c,-0x28e0(%rbp)
   114a7:	4c 5a b2 
   114aa:	c7 85 24 d7 ff ff a0 	movl   $0x4cc75fa0,-0x28dc(%rbp)
   114b1:	5f c7 4c 
   114b4:	c7 85 28 d7 ff ff 00 	movl   $0x0,-0x28d8(%rbp)
   114bb:	00 00 00 
   114be:	c7 85 2c d7 ff ff 00 	movl   $0x0,-0x28d4(%rbp)
   114c5:	00 00 00 
   114c8:	c7 85 30 d7 ff ff a0 	movl   $0x4cc75fa0,-0x28d0(%rbp)
   114cf:	5f c7 4c 
   114d2:	c7 85 34 d7 ff ff 8c 	movl   $0xb25a4c8c,-0x28cc(%rbp)
   114d9:	4c 5a b2 
   114dc:	c7 85 38 d7 ff ff 00 	movl   $0x0,-0x28c8(%rbp)
   114e3:	00 00 00 
   114e6:	c7 85 3c d7 ff ff 86 	movl   $0x2fc38b86,-0x28c4(%rbp)
   114ed:	8b c3 2f 
   114f0:	c7 85 40 d7 ff ff 70 	movl   $0x7eab8070,-0x28c0(%rbp)
   114f7:	80 ab 7e 
   114fa:	c7 85 44 d7 ff ff cc 	movl   $0xeeecaecc,-0x28bc(%rbp)
   11501:	ae ec ee 
   11504:	c7 85 48 d7 ff ff 70 	movl   $0x7eab8070,-0x28b8(%rbp)
   1150b:	80 ab 7e 
   1150e:	c7 85 4c d7 ff ff 86 	movl   $0x2fc38b86,-0x28b4(%rbp)
   11515:	8b c3 2f 
   11518:	c7 85 50 d7 ff ff c5 	movl   $0x3c8d62c5,-0x28b0(%rbp)
   1151f:	62 8d 3c 
   11522:	c7 85 54 d7 ff ff 86 	movl   $0x2fc38b86,-0x28ac(%rbp)
   11529:	8b c3 2f 
   1152c:	c7 85 58 d7 ff ff a0 	movl   $0x4cc75fa0,-0x28a8(%rbp)
   11533:	5f c7 4c 
   11536:	c7 85 5c d7 ff ff 00 	movl   $0x0,-0x28a4(%rbp)
   1153d:	00 00 00 
   11540:	c7 85 60 d7 ff ff 00 	movl   $0x0,-0x28a0(%rbp)
   11547:	00 00 00 
   1154a:	c7 85 64 d7 ff ff a0 	movl   $0x4cc75fa0,-0x289c(%rbp)
   11551:	5f c7 4c 
   11554:	c7 85 68 d7 ff ff 8c 	movl   $0xb25a4c8c,-0x2898(%rbp)
   1155b:	4c 5a b2 
   1155e:	c7 85 6c d7 ff ff 00 	movl   $0x0,-0x2894(%rbp)
   11565:	00 00 00 
   11568:	c7 85 70 d7 ff ff fe 	movl   $0xfffffffe,-0x2890(%rbp)
   1156f:	ff ff ff 
   11572:	c7 85 74 d7 ff ff 9c 	movl   $0xd6c6249c,-0x288c(%rbp)
   11579:	24 c6 d6 
   1157c:	c7 85 78 d7 ff ff 70 	movl   $0x7eab8070,-0x2888(%rbp)
   11583:	80 ab 7e 
   11586:	c7 85 7c d7 ff ff 9c 	movl   $0xd6c6249c,-0x2884(%rbp)
   1158d:	24 c6 d6 
   11590:	c7 85 80 d7 ff ff 80 	movl   $0x6012f480,-0x2880(%rbp)
   11597:	f4 12 60 
   1159a:	c7 85 84 d7 ff ff 19 	movl   $0x40158519,-0x287c(%rbp)
   115a1:	85 15 40 
   115a4:	c7 85 88 d7 ff ff 80 	movl   $0x6012f480,-0x2878(%rbp)
   115ab:	f4 12 60 
   115ae:	c7 85 8c d7 ff ff 9c 	movl   $0xd6c6249c,-0x2874(%rbp)
   115b5:	24 c6 d6 
   115b8:	c7 85 90 d7 ff ff a0 	movl   $0x4cc75fa0,-0x2870(%rbp)
   115bf:	5f c7 4c 
   115c2:	c7 85 94 d7 ff ff a0 	movl   $0x4cc75fa0,-0x286c(%rbp)
   115c9:	5f c7 4c 
   115cc:	c7 85 98 d7 ff ff 55 	movl   $0x71011e55,-0x2868(%rbp)
   115d3:	1e 01 71 
   115d6:	c7 85 9c d7 ff ff fe 	movl   $0xfffffffe,-0x2864(%rbp)
   115dd:	ff ff ff 
   115e0:	c7 85 a0 d7 ff ff a0 	movl   $0x4cc75fa0,-0x2860(%rbp)
   115e7:	5f c7 4c 
   115ea:	c7 85 a4 d7 ff ff 01 	movl   $0x1,-0x285c(%rbp)
   115f1:	00 00 00 
   115f4:	c7 85 a8 d7 ff ff fe 	movl   $0xfffffffe,-0x2858(%rbp)
   115fb:	ff ff ff 
   115fe:	c7 85 ac d7 ff ff 86 	movl   $0x2fc38b86,-0x2854(%rbp)
   11605:	8b c3 2f 
   11608:	c7 85 b0 d7 ff ff 80 	movl   $0x6012f480,-0x2850(%rbp)
   1160f:	f4 12 60 
   11612:	c7 85 b4 d7 ff ff fc 	movl   $0xfffffffc,-0x284c(%rbp)
   11619:	ff ff ff 
   1161c:	c7 85 b8 d7 ff ff 70 	movl   $0x7eab8070,-0x2848(%rbp)
   11623:	80 ab 7e 
   11626:	c7 85 bc d7 ff ff fc 	movl   $0xfffffffc,-0x2844(%rbp)
   1162d:	ff ff ff 
   11630:	c7 85 c0 d7 ff ff 80 	movl   $0x6012f480,-0x2840(%rbp)
   11637:	f4 12 60 
   1163a:	c7 85 c4 d7 ff ff 86 	movl   $0x2fc38b86,-0x283c(%rbp)
   11641:	8b c3 2f 
   11644:	c7 85 c8 d7 ff ff 8c 	movl   $0xb25a4c8c,-0x2838(%rbp)
   1164b:	4c 5a b2 
   1164e:	c7 85 cc d7 ff ff fe 	movl   $0xfffffffe,-0x2834(%rbp)
   11655:	ff ff ff 
   11658:	c7 85 d0 d7 ff ff 00 	movl   $0x0,-0x2830(%rbp)
   1165f:	00 00 00 
   11662:	c7 85 d4 d7 ff ff 8c 	movl   $0xb25a4c8c,-0x282c(%rbp)
   11669:	4c 5a b2 
   1166c:	c7 85 d8 d7 ff ff a0 	movl   $0x4cc75fa0,-0x2828(%rbp)
   11673:	5f c7 4c 
   11676:	c7 85 dc d7 ff ff 00 	movl   $0x0,-0x2824(%rbp)
   1167d:	00 00 00 
   11680:	c7 85 e0 d7 ff ff 00 	movl   $0x0,-0x2820(%rbp)
   11687:	00 00 00 
   1168a:	c7 85 3c cf ff ff 00 	movl   $0x0,-0x30c4(%rbp)
   11691:	00 00 00 
   11694:	eb 1e                	jmp    116b4 <func_57+0x2390>
   11696:	8b 85 3c cf ff ff    	mov    -0x30c4(%rbp),%eax
   1169c:	48 98                	cltq   
   1169e:	48 8d 95 80 d0 ff ff 	lea    -0x2f80(%rbp),%rdx
   116a5:	48 89 94 c5 b0 d3 ff 	mov    %rdx,-0x2c50(%rbp,%rax,8)
   116ac:	ff 
   116ad:	83 85 3c cf ff ff 01 	addl   $0x1,-0x30c4(%rbp)
   116b4:	83 bd 3c cf ff ff 02 	cmpl   $0x2,-0x30c4(%rbp)
   116bb:	7e d9                	jle    11696 <func_57+0x2372>
   116bd:	c7 05 dd a9 00 00 01 	movl   $0x1,0xa9dd(%rip)        # 1c0a4 <g_99>
   116c4:	00 00 00 
   116c7:	e9 d4 18 00 00       	jmpq   12fa0 <func_57+0x3c7c>
   116cc:	48 b8 17 6f d0 6b 98 	movabs $0x475536986bd06f17,%rax
   116d3:	36 55 47 
   116d6:	48 89 85 30 d2 ff ff 	mov    %rax,-0x2dd0(%rbp)
   116dd:	c7 85 34 cf ff ff f9 	movl   $0xfffffff9,-0x30cc(%rbp)
   116e4:	ff ff ff 
   116e7:	c7 85 f8 cf ff ff 07 	movl   $0x9c081a07,-0x3008(%rbp)
   116ee:	1a 08 9c 
   116f1:	48 8d 85 34 cf ff ff 	lea    -0x30cc(%rbp),%rax
   116f8:	48 89 85 38 d2 ff ff 	mov    %rax,-0x2dc8(%rbp)
   116ff:	48 8d 05 96 a9 00 00 	lea    0xa996(%rip),%rax        # 1c09c <g_87>
   11706:	48 89 85 40 d2 ff ff 	mov    %rax,-0x2dc0(%rbp)
   1170d:	48 8d 05 7c aa 00 00 	lea    0xaa7c(%rip),%rax        # 1c190 <g_321>
   11714:	48 89 85 48 d2 ff ff 	mov    %rax,-0x2db8(%rbp)
   1171b:	c7 85 fc cf ff ff ff 	movl   $0xffffffff,-0x3004(%rbp)
   11722:	ff ff ff 
   11725:	c7 85 00 d0 ff ff 35 	movl   $0xbf49bc35,-0x3000(%rbp)
   1172c:	bc 49 bf 
   1172f:	c7 85 04 d0 ff ff f7 	movl   $0xfffffff7,-0x2ffc(%rbp)
   11736:	ff ff ff 
   11739:	c7 85 08 d0 ff ff f6 	movl   $0xfffffff6,-0x2ff8(%rbp)
   11740:	ff ff ff 
   11743:	c7 85 0c d0 ff ff ff 	movl   $0xffffffff,-0x2ff4(%rbp)
   1174a:	ff ff ff 
   1174d:	c7 85 10 d0 ff ff ff 	movl   $0xffffffff,-0x2ff0(%rbp)
   11754:	ff ff ff 
   11757:	c7 85 14 d0 ff ff 66 	movl   $0xf1852066,-0x2fec(%rbp)
   1175e:	20 85 f1 
   11761:	c7 85 18 d0 ff ff af 	movl   $0x78ef0daf,-0x2fe8(%rbp)
   11768:	0d ef 78 
   1176b:	c7 85 1c d0 ff ff 6c 	movl   $0x247e36c,-0x2fe4(%rbp)
   11772:	e3 47 02 
   11775:	48 8d 05 d4 a9 00 00 	lea    0xa9d4(%rip),%rax        # 1c150 <g_163>
   1177c:	48 89 85 50 d2 ff ff 	mov    %rax,-0x2db0(%rbp)
   11783:	c7 85 20 d0 ff ff 2a 	movl   $0x13291e2a,-0x2fe0(%rbp)
   1178a:	1e 29 13 
   1178d:	c7 85 40 cf ff ff 00 	movl   $0x0,-0x30c0(%rbp)
   11794:	00 00 00 
   11797:	eb 72                	jmp    1180b <func_57+0x24e7>
   11799:	c7 85 44 cf ff ff 00 	movl   $0x0,-0x30bc(%rbp)
   117a0:	00 00 00 
   117a3:	eb 56                	jmp    117fb <func_57+0x24d7>
   117a5:	c7 85 48 cf ff ff 00 	movl   $0x0,-0x30b8(%rbp)
   117ac:	00 00 00 
   117af:	eb 3a                	jmp    117eb <func_57+0x24c7>
   117b1:	8b 85 48 cf ff ff    	mov    -0x30b8(%rbp),%eax
   117b7:	48 63 d0             	movslq %eax,%rdx
   117ba:	8b 85 44 cf ff ff    	mov    -0x30bc(%rbp),%eax
   117c0:	48 98                	cltq   
   117c2:	8b 8d 40 cf ff ff    	mov    -0x30c0(%rbp),%ecx
   117c8:	48 63 c9             	movslq %ecx,%rcx
   117cb:	48 01 c9             	add    %rcx,%rcx
   117ce:	48 8d 5d e0          	lea    -0x20(%rbp),%rbx
   117d2:	48 01 d9             	add    %rbx,%rcx
   117d5:	48 01 ca             	add    %rcx,%rdx
   117d8:	48 01 d0             	add    %rdx,%rax
   117db:	48 2d d0 2b 00 00    	sub    $0x2bd0,%rax
   117e1:	c6 00 75             	movb   $0x75,(%rax)
   117e4:	83 85 48 cf ff ff 01 	addl   $0x1,-0x30b8(%rbp)
   117eb:	83 bd 48 cf ff ff 00 	cmpl   $0x0,-0x30b8(%rbp)
   117f2:	7e bd                	jle    117b1 <func_57+0x248d>
   117f4:	83 85 44 cf ff ff 01 	addl   $0x1,-0x30bc(%rbp)
   117fb:	83 bd 44 cf ff ff 01 	cmpl   $0x1,-0x30bc(%rbp)
   11802:	7e a1                	jle    117a5 <func_57+0x2481>
   11804:	83 85 40 cf ff ff 01 	addl   $0x1,-0x30c0(%rbp)
   1180b:	83 bd 40 cf ff ff 00 	cmpl   $0x0,-0x30c0(%rbp)
   11812:	7e 85                	jle    11799 <func_57+0x2475>
   11814:	48 c7 05 71 a8 00 00 	movq   $0x0,0xa871(%rip)        # 1c090 <g_78>
   1181b:	00 00 00 00 
   1181f:	e9 d4 12 00 00       	jmpq   12af8 <func_57+0x37d4>
   11824:	c7 85 38 cf ff ff ff 	movl   $0xffffffff,-0x30c8(%rbp)
   1182b:	ff ff ff 
   1182e:	48 c7 85 58 d2 ff ff 	movq   $0x0,-0x2da8(%rbp)
   11835:	00 00 00 00 
   11839:	48 c7 85 60 d2 ff ff 	movq   $0x0,-0x2da0(%rbp)
   11840:	00 00 00 00 
   11844:	48 8d 05 e9 a8 00 00 	lea    0xa8e9(%rip),%rax        # 1c134 <g_131>
   1184b:	48 89 85 98 d0 ff ff 	mov    %rax,-0x2f68(%rbp)
   11852:	48 8d 85 98 d0 ff ff 	lea    -0x2f68(%rbp),%rax
   11859:	48 89 85 68 d2 ff ff 	mov    %rax,-0x2d98(%rbp)
   11860:	48 8d 05 cd a8 00 00 	lea    0xa8cd(%rip),%rax        # 1c134 <g_131>
   11867:	48 89 85 70 d2 ff ff 	mov    %rax,-0x2d90(%rbp)
   1186e:	48 8d 05 1b a8 00 00 	lea    0xa81b(%rip),%rax        # 1c090 <g_78>
   11875:	48 89 85 78 d2 ff ff 	mov    %rax,-0x2d88(%rbp)
   1187c:	48 8d 05 19 a8 00 00 	lea    0xa819(%rip),%rax        # 1c09c <g_87>
   11883:	48 89 85 a0 d0 ff ff 	mov    %rax,-0x2f60(%rbp)
   1188a:	48 8d 85 40 f4 ff ff 	lea    -0xbc0(%rbp),%rax
   11891:	48 8d 15 e8 c0 00 00 	lea    0xc0e8(%rip),%rdx        # 1d980 <g_2805+0x1060>
   11898:	b9 f0 00 00 00       	mov    $0xf0,%ecx
   1189d:	48 89 c7             	mov    %rax,%rdi
   118a0:	48 89 d6             	mov    %rdx,%rsi
   118a3:	f3 48 a5             	rep movsq %ds:(%rsi),%es:(%rdi)
   118a6:	66 c7 85 c0 d4 ff ff 	movw   $0xfff6,-0x2b40(%rbp)
   118ad:	f6 ff 
   118af:	66 c7 85 c2 d4 ff ff 	movw   $0xfff6,-0x2b3e(%rbp)
   118b6:	f6 ff 
   118b8:	66 c7 85 c4 d4 ff ff 	movw   $0x3cfa,-0x2b3c(%rbp)
   118bf:	fa 3c 
   118c1:	66 c7 85 c6 d4 ff ff 	movw   $0xfff6,-0x2b3a(%rbp)
   118c8:	f6 ff 
   118ca:	66 c7 85 c8 d4 ff ff 	movw   $0xfff6,-0x2b38(%rbp)
   118d1:	f6 ff 
   118d3:	66 c7 85 ca d4 ff ff 	movw   $0x3cfa,-0x2b36(%rbp)
   118da:	fa 3c 
   118dc:	66 c7 85 cc d4 ff ff 	movw   $0xfff6,-0x2b34(%rbp)
   118e3:	f6 ff 
   118e5:	48 8d 05 d4 cb 00 00 	lea    0xcbd4(%rip),%rax        # 1e4c0 <g_98+0x120>
   118ec:	48 89 85 80 d2 ff ff 	mov    %rax,-0x2d80(%rbp)
   118f3:	8b 85 38 cf ff ff    	mov    -0x30c8(%rbp),%eax
   118f9:	85 c0                	test   %eax,%eax
   118fb:	0f 95 c0             	setne  %al
   118fe:	0f b6 c0             	movzbl %al,%eax
   11901:	89 05 29 a8 00 00    	mov    %eax,0xa829(%rip)        # 1c130 <g_126>
   11907:	8b 05 23 a8 00 00    	mov    0xa823(%rip),%eax        # 1c130 <g_126>
   1190d:	89 c3                	mov    %eax,%ebx
   1190f:	8b 05 8f a7 00 00    	mov    0xa78f(%rip),%eax        # 1c0a4 <g_99>
   11915:	48 8b 0d 74 a7 00 00 	mov    0xa774(%rip),%rcx        # 1c090 <g_78>
   1191c:	8b 15 82 a7 00 00    	mov    0xa782(%rip),%edx        # 1c0a4 <g_99>
   11922:	83 c2 03             	add    $0x3,%edx
   11925:	48 63 f2             	movslq %edx,%rsi
   11928:	48 63 d0             	movslq %eax,%rdx
   1192b:	48 89 d0             	mov    %rdx,%rax
   1192e:	48 01 c0             	add    %rax,%rax
   11931:	48 01 d0             	add    %rdx,%rax
   11934:	48 8d 14 c5 00 00 00 	lea    0x0(,%rax,8),%rdx
   1193b:	00 
   1193c:	48 01 d0             	add    %rdx,%rax
   1193f:	48 89 ca             	mov    %rcx,%rdx
   11942:	48 c1 e2 03          	shl    $0x3,%rdx
   11946:	48 01 ca             	add    %rcx,%rdx
   11949:	48 01 d0             	add    %rdx,%rax
   1194c:	48 01 f0             	add    %rsi,%rax
   1194f:	48 8d 14 00          	lea    (%rax,%rax,1),%rdx
   11953:	48 8d 05 66 a7 00 00 	lea    0xa766(%rip),%rax        # 1c0c0 <g_107>
   1195a:	0f b7 14 02          	movzwl (%rdx,%rax,1),%edx
   1195e:	8b 05 34 a7 00 00    	mov    0xa734(%rip),%eax        # 1c098 <g_81>
   11964:	3d 89 c4 00 00       	cmp    $0xc489,%eax
   11969:	0f 97 c0             	seta   %al
   1196c:	0f b6 c0             	movzbl %al,%eax
   1196f:	09 d0                	or     %edx,%eax
   11971:	98                   	cwtl   
   11972:	89 c6                	mov    %eax,%esi
   11974:	bf cd 06 00 00       	mov    $0x6cd,%edi
   11979:	e8 98 7a ff ff       	callq  9416 <safe_mod_func_int16_t_s_s>
   1197e:	0f b6 c0             	movzbl %al,%eax
   11981:	89 de                	mov    %ebx,%esi
   11983:	89 c7                	mov    %eax,%edi
   11985:	e8 c2 82 ff ff       	callq  9c4c <safe_lshift_func_uint8_t_u_u>
   1198a:	0f b6 d8             	movzbl %al,%ebx
   1198d:	be 0f 00 00 00       	mov    $0xf,%esi
   11992:	bf 78 e2 00 00       	mov    $0xe278,%edi
   11997:	e8 de 84 ff ff       	callq  9e7a <safe_rshift_func_uint16_t_u_u>
   1199c:	98                   	cwtl   
   1199d:	be 09 00 00 00       	mov    $0x9,%esi
   119a2:	89 c7                	mov    %eax,%edi
   119a4:	e8 81 7b ff ff       	callq  952a <safe_rshift_func_int16_t_s_s>
   119a9:	48 0f bf c0          	movswq %ax,%rax
   119ad:	48 89 de             	mov    %rbx,%rsi
   119b0:	48 89 c7             	mov    %rax,%rdi
   119b3:	e8 76 86 ff ff       	callq  a02e <safe_add_func_uint64_t_u_u>
   119b8:	48 89 c3             	mov    %rax,%rbx
   119bb:	48 8b 85 68 d2 ff ff 	mov    -0x2d98(%rbp),%rax
   119c2:	48 8d 95 f0 ce ff ff 	lea    -0x3110(%rbp),%rdx
   119c9:	48 89 10             	mov    %rdx,(%rax)
   119cc:	48 8b 85 68 d2 ff ff 	mov    -0x2d98(%rbp),%rax
   119d3:	48 8b 00             	mov    (%rax),%rax
   119d6:	48 39 85 70 d2 ff ff 	cmp    %rax,-0x2d90(%rbp)
   119dd:	0f 95 c0             	setne  %al
   119e0:	0f b6 c0             	movzbl %al,%eax
   119e3:	be a2 8d ff ff       	mov    $0xffff8da2,%esi
   119e8:	89 c7                	mov    %eax,%edi
   119ea:	e8 66 7a ff ff       	callq  9455 <safe_div_func_int16_t_s_s>
   119ef:	48 0f bf c0          	movswq %ax,%rax
   119f3:	48 21 d8             	and    %rbx,%rax
   119f6:	48 85 c0             	test   %rax,%rax
   119f9:	0f 84 c9 04 00 00    	je     11ec8 <func_57+0x2ba4>
   119ff:	48 8d 05 30 a7 00 00 	lea    0xa730(%rip),%rax        # 1c136 <g_143>
   11a06:	48 89 85 f0 d2 ff ff 	mov    %rax,-0x2d10(%rbp)
   11a0d:	c7 85 d0 e2 ff ff ff 	movl   $0xffffffff,-0x1d30(%rbp)
   11a14:	ff ff ff 
   11a17:	c7 85 d4 e2 ff ff ff 	movl   $0xffffffff,-0x1d2c(%rbp)
   11a1e:	ff ff ff 
   11a21:	c7 85 d8 e2 ff ff 08 	movl   $0xb0677a08,-0x1d28(%rbp)
   11a28:	7a 67 b0 
   11a2b:	c7 85 dc e2 ff ff 08 	movl   $0xb0677a08,-0x1d24(%rbp)
   11a32:	7a 67 b0 
   11a35:	c7 85 e0 e2 ff ff ff 	movl   $0xffffffff,-0x1d20(%rbp)
   11a3c:	ff ff ff 
   11a3f:	c7 85 e4 e2 ff ff 69 	movl   $0xa8075069,-0x1d1c(%rbp)
   11a46:	50 07 a8 
   11a49:	c7 85 e8 e2 ff ff f8 	movl   $0xfffffff8,-0x1d18(%rbp)
   11a50:	ff ff ff 
   11a53:	c7 85 ec e2 ff ff 69 	movl   $0xa8075069,-0x1d14(%rbp)
   11a5a:	50 07 a8 
   11a5d:	c7 85 f0 e2 ff ff f8 	movl   $0xfffffff8,-0x1d10(%rbp)
   11a64:	ff ff ff 
   11a67:	c7 85 f4 e2 ff ff 69 	movl   $0xa8075069,-0x1d0c(%rbp)
   11a6e:	50 07 a8 
   11a71:	c7 85 f8 e2 ff ff ff 	movl   $0xffffffff,-0x1d08(%rbp)
   11a78:	ff ff ff 
   11a7b:	c7 85 fc e2 ff ff 08 	movl   $0xb0677a08,-0x1d04(%rbp)
   11a82:	7a 67 b0 
   11a85:	c7 85 00 e3 ff ff 08 	movl   $0xb0677a08,-0x1d00(%rbp)
   11a8c:	7a 67 b0 
   11a8f:	c7 85 04 e3 ff ff ff 	movl   $0xffffffff,-0x1cfc(%rbp)
   11a96:	ff ff ff 
   11a99:	c7 85 08 e3 ff ff ff 	movl   $0xffffffff,-0x1cf8(%rbp)
   11aa0:	ff ff ff 
   11aa3:	c7 85 0c e3 ff ff c3 	movl   $0x1b7de0c3,-0x1cf4(%rbp)
   11aaa:	e0 7d 1b 
   11aad:	c7 85 10 e3 ff ff f8 	movl   $0xfffffff8,-0x1cf0(%rbp)
   11ab4:	ff ff ff 
   11ab7:	c7 85 14 e3 ff ff c3 	movl   $0x1b7de0c3,-0x1cec(%rbp)
   11abe:	e0 7d 1b 
   11ac1:	c7 85 18 e3 ff ff f8 	movl   $0xfffffff8,-0x1ce8(%rbp)
   11ac8:	ff ff ff 
   11acb:	c7 85 1c e3 ff ff c3 	movl   $0x1b7de0c3,-0x1ce4(%rbp)
   11ad2:	e0 7d 1b 
   11ad5:	c7 85 20 e3 ff ff ff 	movl   $0xffffffff,-0x1ce0(%rbp)
   11adc:	ff ff ff 
   11adf:	c7 85 24 e3 ff ff ff 	movl   $0xffffffff,-0x1cdc(%rbp)
   11ae6:	ff ff ff 
   11ae9:	c7 85 28 e3 ff ff 08 	movl   $0xb0677a08,-0x1cd8(%rbp)
   11af0:	7a 67 b0 
   11af3:	c7 85 2c e3 ff ff 08 	movl   $0xb0677a08,-0x1cd4(%rbp)
   11afa:	7a 67 b0 
   11afd:	c7 85 30 e3 ff ff ff 	movl   $0xffffffff,-0x1cd0(%rbp)
   11b04:	ff ff ff 
   11b07:	48 c7 85 f8 d2 ff ff 	movq   $0x0,-0x2d08(%rbp)
   11b0e:	00 00 00 00 
   11b12:	66 c7 85 50 d5 ff ff 	movw   $0x9,-0x2ab0(%rbp)
   11b19:	09 00 
   11b1b:	66 c7 85 52 d5 ff ff 	movw   $0x900,-0x2aae(%rbp)
   11b22:	00 09 
   11b24:	66 c7 85 54 d5 ff ff 	movw   $0x0,-0x2aac(%rbp)
   11b2b:	00 00 
   11b2d:	66 c7 85 56 d5 ff ff 	movw   $0x9,-0x2aaa(%rbp)
   11b34:	09 00 
   11b36:	66 c7 85 58 d5 ff ff 	movw   $0x900,-0x2aa8(%rbp)
   11b3d:	00 09 
   11b3f:	66 c7 85 5a d5 ff ff 	movw   $0x0,-0x2aa6(%rbp)
   11b46:	00 00 
   11b48:	66 c7 85 5c d5 ff ff 	movw   $0x9,-0x2aa4(%rbp)
   11b4f:	09 00 
   11b51:	c7 85 4c cf ff ff 00 	movl   $0x0,-0x30b4(%rbp)
   11b58:	00 00 00 
   11b5b:	eb 1e                	jmp    11b7b <func_57+0x2857>
   11b5d:	8b 85 4c cf ff ff    	mov    -0x30b4(%rbp),%eax
   11b63:	48 98                	cltq   
   11b65:	48 8d 15 cc a5 00 00 	lea    0xa5cc(%rip),%rdx        # 1c138 <g_148>
   11b6c:	48 89 94 c5 30 dc ff 	mov    %rdx,-0x23d0(%rbp,%rax,8)
   11b73:	ff 
   11b74:	83 85 4c cf ff ff 01 	addl   $0x1,-0x30b4(%rbp)
   11b7b:	83 bd 4c cf ff ff 02 	cmpl   $0x2,-0x30b4(%rbp)
   11b82:	7e d9                	jle    11b5d <func_57+0x2839>
   11b84:	c7 05 a2 a5 00 00 00 	movl   $0x0,0xa5a2(%rip)        # 1c130 <g_126>
   11b8b:	00 00 00 
   11b8e:	90                   	nop
   11b8f:	8b 05 9b a5 00 00    	mov    0xa59b(%rip),%eax        # 1c130 <g_126>
   11b95:	83 f8 01             	cmp    $0x1,%eax
   11b98:	0f 8f 83 00 00 00    	jg     11c21 <func_57+0x28fd>
   11b9e:	48 8d 05 ff a4 00 00 	lea    0xa4ff(%rip),%rax        # 1c0a4 <g_99>
   11ba5:	48 89 85 00 df ff ff 	mov    %rax,-0x2100(%rbp)
   11bac:	48 8d 05 f1 a4 00 00 	lea    0xa4f1(%rip),%rax        # 1c0a4 <g_99>
   11bb3:	48 89 85 08 df ff ff 	mov    %rax,-0x20f8(%rbp)
   11bba:	48 8d 05 e3 a4 00 00 	lea    0xa4e3(%rip),%rax        # 1c0a4 <g_99>
   11bc1:	48 89 85 10 df ff ff 	mov    %rax,-0x20f0(%rbp)
   11bc8:	48 8d 05 d5 a4 00 00 	lea    0xa4d5(%rip),%rax        # 1c0a4 <g_99>
   11bcf:	48 89 85 18 df ff ff 	mov    %rax,-0x20e8(%rbp)
   11bd6:	48 8d 05 c7 a4 00 00 	lea    0xa4c7(%rip),%rax        # 1c0a4 <g_99>
   11bdd:	48 89 85 20 df ff ff 	mov    %rax,-0x20e0(%rbp)
   11be4:	48 8d 05 b9 a4 00 00 	lea    0xa4b9(%rip),%rax        # 1c0a4 <g_99>
   11beb:	48 89 85 28 df ff ff 	mov    %rax,-0x20d8(%rbp)
   11bf2:	48 8d 85 00 df ff ff 	lea    -0x2100(%rbp),%rax
   11bf9:	48 83 c0 10          	add    $0x10,%rax
   11bfd:	48 89 85 28 d3 ff ff 	mov    %rax,-0x2cd8(%rbp)
   11c04:	48 8b 95 10 df ff ff 	mov    -0x20f0(%rbp),%rdx
   11c0b:	48 8b 85 28 d3 ff ff 	mov    -0x2cd8(%rbp),%rax
   11c12:	48 89 10             	mov    %rdx,(%rax)
   11c15:	0f b6 85 f4 ce ff ff 	movzbl -0x310c(%rbp),%eax
   11c1c:	e9 eb 40 00 00       	jmpq   15d0c <func_57+0x69e8>
   11c21:	48 8b 85 f8 ce ff ff 	mov    -0x3108(%rbp),%rax
   11c28:	0f b6 00             	movzbl (%rax),%eax
   11c2b:	0f be d8             	movsbl %al,%ebx
   11c2e:	44 0f b6 a5 f4 ce ff 	movzbl -0x310c(%rbp),%r12d
   11c35:	ff 
   11c36:	66 83 bd 0c cf ff ff 	cmpw   $0x0,-0x30f4(%rbp)
   11c3d:	00 
   11c3e:	0f 9f c0             	setg   %al
   11c41:	0f b6 d0             	movzbl %al,%edx
   11c44:	48 8b 85 f0 d2 ff ff 	mov    -0x2d10(%rbp),%rax
   11c4b:	0f b6 00             	movzbl (%rax),%eax
   11c4e:	8d 48 01             	lea    0x1(%rax),%ecx
   11c51:	48 8b 85 f0 d2 ff ff 	mov    -0x2d10(%rbp),%rax
   11c58:	88 08                	mov    %cl,(%rax)
   11c5a:	8b 85 dc e2 ff ff    	mov    -0x1d24(%rbp),%eax
   11c60:	48 98                	cltq   
   11c62:	48 89 05 cf a4 00 00 	mov    %rax,0xa4cf(%rip)        # 1c138 <g_148>
   11c69:	48 8b 05 c8 a4 00 00 	mov    0xa4c8(%rip),%rax        # 1c138 <g_148>
   11c70:	48 83 f8 01          	cmp    $0x1,%rax
   11c74:	0f 95 c0             	setne  %al
   11c77:	0f b6 c0             	movzbl %al,%eax
   11c7a:	89 d6                	mov    %edx,%esi
   11c7c:	89 c7                	mov    %eax,%edi
   11c7e:	e8 a7 78 ff ff       	callq  952a <safe_rshift_func_int16_t_s_s>
   11c83:	80 bd f4 ce ff ff 00 	cmpb   $0x0,-0x310c(%rbp)
   11c8a:	48 c7 85 68 d8 ff ff 	movq   $0x0,-0x2798(%rbp)
   11c91:	00 00 00 00 
   11c95:	48 0f bf 85 0c cf ff 	movswq -0x30f4(%rbp),%rax
   11c9c:	ff 
   11c9d:	48 89 85 30 d2 ff ff 	mov    %rax,-0x2dd0(%rbp)
   11ca4:	48 81 bd 30 d2 ff ff 	cmpq   $0x6728,-0x2dd0(%rbp)
   11cab:	28 67 00 00 
   11caf:	0f 95 c0             	setne  %al
   11cb2:	0f b6 d0             	movzbl %al,%edx
   11cb5:	8b 05 8d a4 00 00    	mov    0xa48d(%rip),%eax        # 1c148 <g_154>
   11cbb:	39 c2                	cmp    %eax,%edx
   11cbd:	0f 9f c0             	setg   %al
   11cc0:	0f b6 c0             	movzbl %al,%eax
   11cc3:	44 89 e6             	mov    %r12d,%esi
   11cc6:	89 c7                	mov    %eax,%edi
   11cc8:	e8 21 76 ff ff       	callq  92ee <safe_lshift_func_int8_t_s_u>
   11ccd:	0f be c0             	movsbl %al,%eax
   11cd0:	89 de                	mov    %ebx,%esi
   11cd2:	89 c7                	mov    %eax,%edi
   11cd4:	e8 c8 75 ff ff       	callq  92a1 <safe_lshift_func_int8_t_s_s>
   11cd9:	84 c0                	test   %al,%al
   11cdb:	0f 84 12 01 00 00    	je     11df3 <func_57+0x2acf>
   11ce1:	48 c7 85 00 d3 ff ff 	movq   $0x0,-0x2d00(%rbp)
   11ce8:	00 00 00 00 
   11cec:	48 c7 85 08 d3 ff ff 	movq   $0x0,-0x2cf8(%rbp)
   11cf3:	00 00 00 00 
   11cf7:	48 8d 05 a2 a3 00 00 	lea    0xa3a2(%rip),%rax        # 1c0a0 <g_89>
   11cfe:	48 89 85 10 d3 ff ff 	mov    %rax,-0x2cf0(%rbp)
   11d05:	48 8d 85 40 f4 ff ff 	lea    -0xbc0(%rbp),%rax
   11d0c:	48 05 f0 06 00 00    	add    $0x6f0,%rax
   11d12:	48 89 85 18 d3 ff ff 	mov    %rax,-0x2ce8(%rbp)
   11d19:	c7 85 50 cf ff ff 00 	movl   $0x0,-0x30b0(%rbp)
   11d20:	00 00 00 
   11d23:	eb 72                	jmp    11d97 <func_57+0x2a73>
   11d25:	c7 85 54 cf ff ff 00 	movl   $0x0,-0x30ac(%rbp)
   11d2c:	00 00 00 
   11d2f:	eb 56                	jmp    11d87 <func_57+0x2a63>
   11d31:	c7 85 58 cf ff ff 00 	movl   $0x0,-0x30a8(%rbp)
   11d38:	00 00 00 
   11d3b:	eb 3a                	jmp    11d77 <func_57+0x2a53>
   11d3d:	8b 85 58 cf ff ff    	mov    -0x30a8(%rbp),%eax
   11d43:	48 63 d0             	movslq %eax,%rdx
   11d46:	8b 85 54 cf ff ff    	mov    -0x30ac(%rbp),%eax
   11d4c:	48 98                	cltq   
   11d4e:	8b 8d 50 cf ff ff    	mov    -0x30b0(%rbp),%ecx
   11d54:	48 63 c9             	movslq %ecx,%rcx
   11d57:	48 c1 e1 02          	shl    $0x2,%rcx
   11d5b:	48 01 ca             	add    %rcx,%rdx
   11d5e:	48 01 c2             	add    %rax,%rdx
   11d61:	48 8d 85 a0 d0 ff ff 	lea    -0x2f60(%rbp),%rax
   11d68:	48 89 84 d5 00 df ff 	mov    %rax,-0x2100(%rbp,%rdx,8)
   11d6f:	ff 
   11d70:	83 85 58 cf ff ff 01 	addl   $0x1,-0x30a8(%rbp)
   11d77:	83 bd 58 cf ff ff 00 	cmpl   $0x0,-0x30a8(%rbp)
   11d7e:	7e bd                	jle    11d3d <func_57+0x2a19>
   11d80:	83 85 54 cf ff ff 01 	addl   $0x1,-0x30ac(%rbp)
   11d87:	83 bd 54 cf ff ff 03 	cmpl   $0x3,-0x30ac(%rbp)
   11d8e:	7e a1                	jle    11d31 <func_57+0x2a0d>
   11d90:	83 85 50 cf ff ff 01 	addl   $0x1,-0x30b0(%rbp)
   11d97:	83 bd 50 cf ff ff 01 	cmpl   $0x1,-0x30b0(%rbp)
   11d9e:	7e 85                	jle    11d25 <func_57+0x2a01>
   11da0:	48 8b 85 a0 d0 ff ff 	mov    -0x2f60(%rbp),%rax
   11da7:	48 89 05 7a e3 00 00 	mov    %rax,0xe37a(%rip)        # 20128 <g_159>
   11dae:	48 8b 05 73 e3 00 00 	mov    0xe373(%rip),%rax        # 20128 <g_159>
   11db5:	48 85 c0             	test   %rax,%rax
   11db8:	0f 95 c0             	setne  %al
   11dbb:	0f b6 d0             	movzbl %al,%edx
   11dbe:	48 8b 85 10 d3 ff ff 	mov    -0x2cf0(%rbp),%rax
   11dc5:	89 10                	mov    %edx,(%rax)
   11dc7:	83 bd 80 cf ff ff 00 	cmpl   $0x0,-0x3080(%rbp)
   11dce:	0f 85 37 0d 00 00    	jne    12b0b <func_57+0x37e7>
   11dd4:	48 8b 95 40 f8 ff ff 	mov    -0x7c0(%rbp),%rdx
   11ddb:	48 8b 85 18 d3 ff ff 	mov    -0x2ce8(%rbp),%rax
   11de2:	48 89 10             	mov    %rdx,(%rax)
   11de5:	80 bd f4 ce ff ff 00 	cmpb   $0x0,-0x310c(%rbp)
   11dec:	74 1a                	je     11e08 <func_57+0x2ae4>
   11dee:	e9 19 0d 00 00       	jmpq   12b0c <func_57+0x37e8>
   11df3:	c7 85 28 d0 ff ff 07 	movl   $0x7,-0x2fd8(%rbp)
   11dfa:	00 00 00 
   11dfd:	8b 85 28 d0 ff ff    	mov    -0x2fd8(%rbp),%eax
   11e03:	e9 04 3f 00 00       	jmpq   15d0c <func_57+0x69e8>
   11e08:	48 c7 05 25 a3 00 00 	movq   $0x1,0xa325(%rip)        # 1c138 <g_148>
   11e0f:	01 00 00 00 
   11e13:	e9 9a 00 00 00       	jmpq   11eb2 <func_57+0x2b8e>
   11e18:	48 c7 85 20 d3 ff ff 	movq   $0x0,-0x2ce0(%rbp)
   11e1f:	00 00 00 00 
   11e23:	48 8d 85 d0 e2 ff ff 	lea    -0x1d30(%rbp),%rax
   11e2a:	48 83 c0 0c          	add    $0xc,%rax
   11e2e:	48 89 85 00 df ff ff 	mov    %rax,-0x2100(%rbp)
   11e35:	48 8d 85 d0 e2 ff ff 	lea    -0x1d30(%rbp),%rax
   11e3c:	48 83 c0 0c          	add    $0xc,%rax
   11e40:	48 89 85 08 df ff ff 	mov    %rax,-0x20f8(%rbp)
   11e47:	48 8d 85 d0 e2 ff ff 	lea    -0x1d30(%rbp),%rax
   11e4e:	48 83 c0 0c          	add    $0xc,%rax
   11e52:	48 89 85 10 df ff ff 	mov    %rax,-0x20f0(%rbp)
   11e59:	48 8d 85 d0 e2 ff ff 	lea    -0x1d30(%rbp),%rax
   11e60:	48 83 c0 0c          	add    $0xc,%rax
   11e64:	48 89 85 18 df ff ff 	mov    %rax,-0x20e8(%rbp)
   11e6b:	48 8d 85 d0 e2 ff ff 	lea    -0x1d30(%rbp),%rax
   11e72:	48 83 c0 0c          	add    $0xc,%rax
   11e76:	48 89 85 20 df ff ff 	mov    %rax,-0x20e0(%rbp)
   11e7d:	48 8d 85 d0 e2 ff ff 	lea    -0x1d30(%rbp),%rax
   11e84:	48 83 c0 0c          	add    $0xc,%rax
   11e88:	48 89 85 28 df ff ff 	mov    %rax,-0x20d8(%rbp)
   11e8f:	66 c7 85 18 cf ff ff 	movw   $0xffff,-0x30e8(%rbp)
   11e96:	ff ff 
   11e98:	66 83 85 18 cf ff ff 	addw   $0x1,-0x30e8(%rbp)
   11e9f:	01 
   11ea0:	48 8b 05 91 a2 00 00 	mov    0xa291(%rip),%rax        # 1c138 <g_148>
   11ea7:	48 83 c0 01          	add    $0x1,%rax
   11eab:	48 89 05 86 a2 00 00 	mov    %rax,0xa286(%rip)        # 1c138 <g_148>
   11eb2:	48 8b 05 7f a2 00 00 	mov    0xa27f(%rip),%rax        # 1c138 <g_148>
   11eb9:	48 83 f8 05          	cmp    $0x5,%rax
   11ebd:	0f 86 55 ff ff ff    	jbe    11e18 <func_57+0x2af4>
   11ec3:	e9 0a 0c 00 00       	jmpq   12ad2 <func_57+0x37ae>
   11ec8:	48 c7 85 a8 d0 ff ff 	movq   $0x0,-0x2f58(%rbp)
   11ecf:	00 00 00 00 
   11ed3:	48 8d 05 c6 a1 00 00 	lea    0xa1c6(%rip),%rax        # 1c0a0 <g_89>
   11eda:	48 89 85 b0 d0 ff ff 	mov    %rax,-0x2f50(%rbp)
   11ee1:	48 c7 85 b8 d0 ff ff 	movq   $0x0,-0x2f48(%rbp)
   11ee8:	00 00 00 00 
   11eec:	48 8d 85 b8 d0 ff ff 	lea    -0x2f48(%rbp),%rax
   11ef3:	48 89 85 60 d3 ff ff 	mov    %rax,-0x2ca0(%rbp)
   11efa:	48 8d 85 60 d3 ff ff 	lea    -0x2ca0(%rbp),%rax
   11f01:	48 89 85 88 d2 ff ff 	mov    %rax,-0x2d78(%rbp)
   11f08:	48 8d 05 61 a2 00 00 	lea    0xa261(%rip),%rax        # 1c170 <g_207>
   11f0f:	48 89 85 90 d2 ff ff 	mov    %rax,-0x2d70(%rbp)
   11f16:	48 c7 85 98 d2 ff ff 	movq   $0x0,-0x2d68(%rbp)
   11f1d:	00 00 00 00 
   11f21:	48 8d 05 08 e2 00 00 	lea    0xe208(%rip),%rax        # 20130 <g_210>
   11f28:	48 89 85 a0 d2 ff ff 	mov    %rax,-0x2d60(%rbp)
   11f2f:	48 8d 05 00 a2 00 00 	lea    0xa200(%rip),%rax        # 1c136 <g_143>
   11f36:	48 89 85 a8 d2 ff ff 	mov    %rax,-0x2d58(%rbp)
   11f3d:	48 8d 05 0c a2 00 00 	lea    0xa20c(%rip),%rax        # 1c150 <g_163>
   11f44:	48 89 85 b0 d2 ff ff 	mov    %rax,-0x2d50(%rbp)
   11f4b:	c7 85 24 d0 ff ff 01 	movl   $0x1,-0x2fdc(%rbp)
   11f52:	00 00 00 
   11f55:	c7 85 30 dc ff ff 35 	movl   $0x4edb8e35,-0x23d0(%rbp)
   11f5c:	8e db 4e 
   11f5f:	c7 85 34 dc ff ff 55 	movl   $0xc2147255,-0x23cc(%rbp)
   11f66:	72 14 c2 
   11f69:	c7 85 38 dc ff ff 35 	movl   $0x4edb8e35,-0x23c8(%rbp)
   11f70:	8e db 4e 
   11f73:	c7 85 3c dc ff ff 55 	movl   $0xc2147255,-0x23c4(%rbp)
   11f7a:	72 14 c2 
   11f7d:	c7 85 f8 cf ff ff 02 	movl   $0x2,-0x3008(%rbp)
   11f84:	00 00 00 
   11f87:	83 bd f8 cf ff ff 00 	cmpl   $0x0,-0x3008(%rbp)
   11f8e:	78 10                	js     11fa0 <func_57+0x2c7c>
   11f90:	0f b7 85 f0 ce ff ff 	movzwl -0x3110(%rbp),%eax
   11f97:	48 0f bf c0          	movswq %ax,%rax
   11f9b:	e9 6c 3d 00 00       	jmpq   15d0c <func_57+0x69e8>
   11fa0:	0f b7 05 3d a1 00 00 	movzwl 0xa13d(%rip),%eax        # 1c0e4 <g_107+0x24>
   11fa7:	ba 01 00 00 00       	mov    $0x1,%edx
   11fac:	0f b7 85 f0 ce ff ff 	movzwl -0x3110(%rbp),%eax
   11fb3:	98                   	cwtl   
   11fb4:	f7 d0                	not    %eax
   11fb6:	21 d0                	and    %edx,%eax
   11fb8:	85 c0                	test   %eax,%eax
   11fba:	0f 84 b2 00 00 00    	je     12072 <func_57+0x2d4e>
   11fc0:	48 8d 85 38 cf ff ff 	lea    -0x30c8(%rbp),%rax
   11fc7:	48 89 85 80 d3 ff ff 	mov    %rax,-0x2c80(%rbp)
   11fce:	48 8d 85 80 d3 ff ff 	lea    -0x2c80(%rbp),%rax
   11fd5:	48 89 85 e8 d2 ff ff 	mov    %rax,-0x2d18(%rbp)
   11fdc:	48 8b 85 e8 d2 ff ff 	mov    -0x2d18(%rbp),%rax
   11fe3:	48 c7 00 00 00 00 00 	movq   $0x0,(%rax)
   11fea:	8b 05 b4 a0 00 00    	mov    0xa0b4(%rip),%eax        # 1c0a4 <g_99>
   11ff0:	8b 15 ae a0 00 00    	mov    0xa0ae(%rip),%edx        # 1c0a4 <g_99>
   11ff6:	8d 4a 01             	lea    0x1(%rdx),%ecx
   11ff9:	8b 15 a5 a0 00 00    	mov    0xa0a5(%rip),%edx        # 1c0a4 <g_99>
   11fff:	83 c2 02             	add    $0x2,%edx
   12002:	48 63 f2             	movslq %edx,%rsi
   12005:	48 63 d0             	movslq %eax,%rdx
   12008:	48 63 c9             	movslq %ecx,%rcx
   1200b:	48 89 d0             	mov    %rdx,%rax
   1200e:	48 01 c0             	add    %rax,%rax
   12011:	48 01 d0             	add    %rdx,%rax
   12014:	48 8d 14 c5 00 00 00 	lea    0x0(,%rax,8),%rdx
   1201b:	00 
   1201c:	48 01 d0             	add    %rdx,%rax
   1201f:	48 89 ca             	mov    %rcx,%rdx
   12022:	48 c1 e2 03          	shl    $0x3,%rdx
   12026:	48 01 ca             	add    %rcx,%rdx
   12029:	48 01 d0             	add    %rdx,%rax
   1202c:	48 01 f0             	add    %rsi,%rax
   1202f:	48 8d 14 00          	lea    (%rax,%rax,1),%rdx
   12033:	48 8d 05 86 a0 00 00 	lea    0xa086(%rip),%rax        # 1c0c0 <g_107>
   1203a:	0f b7 04 02          	movzwl (%rdx,%rax,1),%eax
   1203e:	66 85 c0             	test   %ax,%ax
   12041:	0f 85 9e 0a 00 00    	jne    12ae5 <func_57+0x37c1>
   12047:	0f b7 05 96 a0 00 00 	movzwl 0xa096(%rip),%eax        # 1c0e4 <g_107+0x24>
   1204e:	66 85 c0             	test   %ax,%ax
   12051:	48 8b 85 e8 d2 ff ff 	mov    -0x2d18(%rbp),%rax
   12058:	48 8d 95 38 cf ff ff 	lea    -0x30c8(%rbp),%rdx
   1205f:	48 89 10             	mov    %rdx,(%rax)
   12062:	0f b7 85 f0 ce ff ff 	movzwl -0x3110(%rbp),%eax
   12069:	48 0f bf c0          	movswq %ax,%rax
   1206d:	e9 9a 3c 00 00       	jmpq   15d0c <func_57+0x69e8>
   12072:	48 b8 99 6e 99 99 6e 	movabs $0x6e99996e99996e99,%rax
   12079:	99 99 6e 
   1207c:	48 89 45 cf          	mov    %rax,-0x31(%rbp)
   12080:	c6 45 d7 99          	movb   $0x99,-0x29(%rbp)
   12084:	0f b6 45 d6          	movzbl -0x2a(%rbp),%eax
   12088:	84 c0                	test   %al,%al
   1208a:	0f 85 7c 0a 00 00    	jne    12b0c <func_57+0x37e8>
   12090:	0f b7 85 f0 ce ff ff 	movzwl -0x3110(%rbp),%eax
   12097:	98                   	cwtl   
   12098:	89 85 34 cf ff ff    	mov    %eax,-0x30cc(%rbp)
   1209e:	8b 8d 34 cf ff ff    	mov    -0x30cc(%rbp),%ecx
   120a4:	48 8b 85 b0 d0 ff ff 	mov    -0x2f50(%rbp),%rax
   120ab:	8b 10                	mov    (%rax),%edx
   120ad:	48 8b 85 b0 d0 ff ff 	mov    -0x2f50(%rbp),%rax
   120b4:	09 ca                	or     %ecx,%edx
   120b6:	89 10                	mov    %edx,(%rax)
   120b8:	48 8b 85 a0 d0 ff ff 	mov    -0x2f60(%rbp),%rax
   120bf:	0f b7 10             	movzwl (%rax),%edx
   120c2:	8d 4a 01             	lea    0x1(%rdx),%ecx
   120c5:	66 89 08             	mov    %cx,(%rax)
   120c8:	41 89 d5             	mov    %edx,%r13d
   120cb:	0f b6 9d f4 ce ff ff 	movzbl -0x310c(%rbp),%ebx
   120d2:	48 8b 15 0f c5 00 00 	mov    0xc50f(%rip),%rdx        # 1e5e8 <g_194+0x88>
   120d9:	48 8b 85 88 d2 ff ff 	mov    -0x2d78(%rbp),%rax
   120e0:	48 8d 8d f0 d7 ff ff 	lea    -0x2810(%rbp),%rcx
   120e7:	48 83 c1 78          	add    $0x78,%rcx
   120eb:	48 89 08             	mov    %rcx,(%rax)
   120ee:	48 8b 85 88 d2 ff ff 	mov    -0x2d78(%rbp),%rax
   120f5:	48 8b 00             	mov    (%rax),%rax
   120f8:	48 39 c2             	cmp    %rax,%rdx
   120fb:	0f 95 c0             	setne  %al
   120fe:	44 0f b6 e0          	movzbl %al,%r12d
   12102:	0f b6 05 58 a0 00 00 	movzbl 0xa058(%rip),%eax        # 1c161 <g_163+0x11>
   12109:	d0 e8                	shr    %al
   1210b:	83 e0 07             	and    $0x7,%eax
   1210e:	0f b6 f0             	movzbl %al,%esi
   12111:	8b 05 8d 9f 00 00    	mov    0x9f8d(%rip),%eax        # 1c0a4 <g_99>
   12117:	8b 15 87 9f 00 00    	mov    0x9f87(%rip),%edx        # 1c0a4 <g_99>
   1211d:	8d 4a 01             	lea    0x1(%rdx),%ecx
   12120:	8b 15 7e 9f 00 00    	mov    0x9f7e(%rip),%edx        # 1c0a4 <g_99>
   12126:	83 c2 02             	add    $0x2,%edx
   12129:	48 63 fa             	movslq %edx,%rdi
   1212c:	48 63 d0             	movslq %eax,%rdx
   1212f:	48 63 c9             	movslq %ecx,%rcx
   12132:	48 89 d0             	mov    %rdx,%rax
   12135:	48 01 c0             	add    %rax,%rax
   12138:	48 01 d0             	add    %rdx,%rax
   1213b:	48 8d 14 c5 00 00 00 	lea    0x0(,%rax,8),%rdx
   12142:	00 
   12143:	48 01 d0             	add    %rdx,%rax
   12146:	48 89 ca             	mov    %rcx,%rdx
   12149:	48 c1 e2 03          	shl    $0x3,%rdx
   1214d:	48 01 ca             	add    %rcx,%rdx
   12150:	48 01 d0             	add    %rdx,%rax
   12153:	48 01 f8             	add    %rdi,%rax
   12156:	48 8d 14 00          	lea    (%rax,%rax,1),%rdx
   1215a:	48 8d 05 5f 9f 00 00 	lea    0x9f5f(%rip),%rax        # 1c0c0 <g_107>
   12161:	0f b7 04 02          	movzwl (%rdx,%rax,1),%eax
   12165:	0f be c0             	movsbl %al,%eax
   12168:	89 c7                	mov    %eax,%edi
   1216a:	e8 fb 70 ff ff       	callq  926a <safe_div_func_int8_t_s_s>
   1216f:	0f be d0             	movsbl %al,%edx
   12172:	8b 05 d0 9f 00 00    	mov    0x9fd0(%rip),%eax        # 1c148 <g_154>
   12178:	39 c2                	cmp    %eax,%edx
   1217a:	8b 05 f0 9e 00 00    	mov    0x9ef0(%rip),%eax        # 1c070 <g_14+0x30>
   12180:	83 f8 01             	cmp    $0x1,%eax
   12183:	0f 97 c0             	seta   %al
   12186:	0f b6 c0             	movzbl %al,%eax
   12189:	89 c6                	mov    %eax,%esi
   1218b:	bf e3 ff ff ff       	mov    $0xffffffe3,%edi
   12190:	e8 3f 70 ff ff       	callq  91d4 <safe_add_func_int8_t_s_s>
   12195:	0f be c0             	movsbl %al,%eax
   12198:	41 39 c4             	cmp    %eax,%r12d
   1219b:	0f 9f c0             	setg   %al
   1219e:	0f b6 d0             	movzbl %al,%edx
   121a1:	48 8b 85 90 d2 ff ff 	mov    -0x2d70(%rbp),%rax
   121a8:	0f b7 00             	movzwl (%rax),%eax
   121ab:	89 c1                	mov    %eax,%ecx
   121ad:	89 d0                	mov    %edx,%eax
   121af:	21 c8                	and    %ecx,%eax
   121b1:	89 c2                	mov    %eax,%edx
   121b3:	48 8b 85 90 d2 ff ff 	mov    -0x2d70(%rbp),%rax
   121ba:	66 89 10             	mov    %dx,(%rax)
   121bd:	48 8b 85 90 d2 ff ff 	mov    -0x2d70(%rbp),%rax
   121c4:	0f b7 00             	movzwl (%rax),%eax
   121c7:	0f b7 c0             	movzwl %ax,%eax
   121ca:	89 de                	mov    %ebx,%esi
   121cc:	89 c7                	mov    %eax,%edi
   121ce:	e8 75 7c ff ff       	callq  9e48 <safe_rshift_func_uint16_t_u_s>
   121d3:	83 c8 01             	or     $0x1,%eax
   121d6:	89 c2                	mov    %eax,%edx
   121d8:	48 8b 85 a0 d2 ff ff 	mov    -0x2d60(%rbp),%rax
   121df:	66 89 10             	mov    %dx,(%rax)
   121e2:	48 8b 85 a0 d2 ff ff 	mov    -0x2d60(%rbp),%rax
   121e9:	0f b7 00             	movzwl (%rax),%eax
   121ec:	0f b7 d0             	movzwl %ax,%edx
   121ef:	0f b7 85 0c cf ff ff 	movzwl -0x30f4(%rbp),%eax
   121f6:	0f b7 c0             	movzwl %ax,%eax
   121f9:	89 d6                	mov    %edx,%esi
   121fb:	89 c7                	mov    %eax,%edi
   121fd:	e8 3b 7b ff ff       	callq  9d3d <safe_mul_func_uint16_t_u_u>
   12202:	0f b7 c0             	movzwl %ax,%eax
   12205:	39 85 80 cf ff ff    	cmp    %eax,-0x3080(%rbp)
   1220b:	0f 95 c0             	setne  %al
   1220e:	44 31 e8             	xor    %r13d,%eax
   12211:	89 c2                	mov    %eax,%edx
   12213:	48 8b 85 a8 d2 ff ff 	mov    -0x2d58(%rbp),%rax
   1221a:	88 10                	mov    %dl,(%rax)
   1221c:	48 8b 85 a8 d2 ff ff 	mov    -0x2d58(%rbp),%rax
   12223:	0f b6 00             	movzbl (%rax),%eax
   12226:	0f b6 c0             	movzbl %al,%eax
   12229:	31 85 f8 cf ff ff    	xor    %eax,-0x3008(%rbp)
   1222f:	83 bd f8 cf ff ff 00 	cmpl   $0x0,-0x3008(%rbp)
   12236:	0f 84 74 05 00 00    	je     127b0 <func_57+0x348c>
   1223c:	48 c7 85 00 df ff ff 	movq   $0x0,-0x2100(%rbp)
   12243:	00 00 00 00 
   12247:	48 8d 85 38 cf ff ff 	lea    -0x30c8(%rbp),%rax
   1224e:	48 89 85 08 df ff ff 	mov    %rax,-0x20f8(%rbp)
   12255:	48 c7 85 10 df ff ff 	movq   $0x0,-0x20f0(%rbp)
   1225c:	00 00 00 00 
   12260:	48 8d 85 38 cf ff ff 	lea    -0x30c8(%rbp),%rax
   12267:	48 89 85 18 df ff ff 	mov    %rax,-0x20e8(%rbp)
   1226e:	48 c7 85 20 df ff ff 	movq   $0x0,-0x20e0(%rbp)
   12275:	00 00 00 00 
   12279:	48 8d 85 38 cf ff ff 	lea    -0x30c8(%rbp),%rax
   12280:	48 89 85 28 df ff ff 	mov    %rax,-0x20d8(%rbp)
   12287:	48 c7 85 30 df ff ff 	movq   $0x0,-0x20d0(%rbp)
   1228e:	00 00 00 00 
   12292:	48 8d 85 38 cf ff ff 	lea    -0x30c8(%rbp),%rax
   12299:	48 89 85 38 df ff ff 	mov    %rax,-0x20c8(%rbp)
   122a0:	48 c7 85 40 df ff ff 	movq   $0x0,-0x20c0(%rbp)
   122a7:	00 00 00 00 
   122ab:	48 8d 85 38 cf ff ff 	lea    -0x30c8(%rbp),%rax
   122b2:	48 89 85 48 df ff ff 	mov    %rax,-0x20b8(%rbp)
   122b9:	48 c7 85 50 df ff ff 	movq   $0x0,-0x20b0(%rbp)
   122c0:	00 00 00 00 
   122c4:	48 8d 85 38 cf ff ff 	lea    -0x30c8(%rbp),%rax
   122cb:	48 89 85 58 df ff ff 	mov    %rax,-0x20a8(%rbp)
   122d2:	48 c7 85 60 df ff ff 	movq   $0x0,-0x20a0(%rbp)
   122d9:	00 00 00 00 
   122dd:	48 8d 85 38 cf ff ff 	lea    -0x30c8(%rbp),%rax
   122e4:	48 89 85 68 df ff ff 	mov    %rax,-0x2098(%rbp)
   122eb:	48 c7 85 70 df ff ff 	movq   $0x0,-0x2090(%rbp)
   122f2:	00 00 00 00 
   122f6:	48 8d 85 38 cf ff ff 	lea    -0x30c8(%rbp),%rax
   122fd:	48 89 85 78 df ff ff 	mov    %rax,-0x2088(%rbp)
   12304:	48 c7 85 80 df ff ff 	movq   $0x0,-0x2080(%rbp)
   1230b:	00 00 00 00 
   1230f:	48 8d 85 38 cf ff ff 	lea    -0x30c8(%rbp),%rax
   12316:	48 89 85 88 df ff ff 	mov    %rax,-0x2078(%rbp)
   1231d:	48 c7 85 90 df ff ff 	movq   $0x0,-0x2070(%rbp)
   12324:	00 00 00 00 
   12328:	48 8d 85 38 cf ff ff 	lea    -0x30c8(%rbp),%rax
   1232f:	48 89 85 98 df ff ff 	mov    %rax,-0x2068(%rbp)
   12336:	48 c7 85 a0 df ff ff 	movq   $0x0,-0x2060(%rbp)
   1233d:	00 00 00 00 
   12341:	48 8d 85 38 cf ff ff 	lea    -0x30c8(%rbp),%rax
   12348:	48 89 85 a8 df ff ff 	mov    %rax,-0x2058(%rbp)
   1234f:	48 c7 85 b0 df ff ff 	movq   $0x0,-0x2050(%rbp)
   12356:	00 00 00 00 
   1235a:	48 8d 85 38 cf ff ff 	lea    -0x30c8(%rbp),%rax
   12361:	48 89 85 b8 df ff ff 	mov    %rax,-0x2048(%rbp)
   12368:	48 c7 85 c0 df ff ff 	movq   $0x0,-0x2040(%rbp)
   1236f:	00 00 00 00 
   12373:	48 8d 85 38 cf ff ff 	lea    -0x30c8(%rbp),%rax
   1237a:	48 89 85 c8 df ff ff 	mov    %rax,-0x2038(%rbp)
   12381:	48 c7 85 d0 df ff ff 	movq   $0x0,-0x2030(%rbp)
   12388:	00 00 00 00 
   1238c:	48 8d 85 38 cf ff ff 	lea    -0x30c8(%rbp),%rax
   12393:	48 89 85 d8 df ff ff 	mov    %rax,-0x2028(%rbp)
   1239a:	48 8d 05 37 c0 00 00 	lea    0xc037(%rip),%rax        # 1e3d8 <g_98+0x38>
   123a1:	48 89 85 d0 e2 ff ff 	mov    %rax,-0x1d30(%rbp)
   123a8:	48 8d 05 29 c0 00 00 	lea    0xc029(%rip),%rax        # 1e3d8 <g_98+0x38>
   123af:	48 89 85 d8 e2 ff ff 	mov    %rax,-0x1d28(%rbp)
   123b6:	48 8d 85 a8 d0 ff ff 	lea    -0x2f58(%rbp),%rax
   123bd:	48 89 85 e0 e2 ff ff 	mov    %rax,-0x1d20(%rbp)
   123c4:	48 8d 85 b0 d0 ff ff 	lea    -0x2f50(%rbp),%rax
   123cb:	48 89 85 e8 e2 ff ff 	mov    %rax,-0x1d18(%rbp)
   123d2:	48 8d 05 ff bf 00 00 	lea    0xbfff(%rip),%rax        # 1e3d8 <g_98+0x38>
   123d9:	48 89 85 f0 e2 ff ff 	mov    %rax,-0x1d10(%rbp)
   123e0:	48 8d 85 a8 d0 ff ff 	lea    -0x2f58(%rbp),%rax
   123e7:	48 89 85 f8 e2 ff ff 	mov    %rax,-0x1d08(%rbp)
   123ee:	48 8d 05 e3 bf 00 00 	lea    0xbfe3(%rip),%rax        # 1e3d8 <g_98+0x38>
   123f5:	48 89 85 00 e3 ff ff 	mov    %rax,-0x1d00(%rbp)
   123fc:	48 8d 85 b0 d0 ff ff 	lea    -0x2f50(%rbp),%rax
   12403:	48 89 85 08 e3 ff ff 	mov    %rax,-0x1cf8(%rbp)
   1240a:	48 8d 85 a8 d0 ff ff 	lea    -0x2f58(%rbp),%rax
   12411:	48 89 85 10 e3 ff ff 	mov    %rax,-0x1cf0(%rbp)
   12418:	48 8d 05 b9 bf 00 00 	lea    0xbfb9(%rip),%rax        # 1e3d8 <g_98+0x38>
   1241f:	48 89 85 18 e3 ff ff 	mov    %rax,-0x1ce8(%rbp)
   12426:	48 8d 05 ab bf 00 00 	lea    0xbfab(%rip),%rax        # 1e3d8 <g_98+0x38>
   1242d:	48 89 85 20 e3 ff ff 	mov    %rax,-0x1ce0(%rbp)
   12434:	48 8d 85 00 df ff ff 	lea    -0x2100(%rbp),%rax
   1243b:	48 83 c0 10          	add    $0x10,%rax
   1243f:	48 89 85 28 e3 ff ff 	mov    %rax,-0x1cd8(%rbp)
   12446:	48 8d 05 8b bf 00 00 	lea    0xbf8b(%rip),%rax        # 1e3d8 <g_98+0x38>
   1244d:	48 89 85 30 e3 ff ff 	mov    %rax,-0x1cd0(%rbp)
   12454:	48 8d 05 7d bf 00 00 	lea    0xbf7d(%rip),%rax        # 1e3d8 <g_98+0x38>
   1245b:	48 89 85 38 e3 ff ff 	mov    %rax,-0x1cc8(%rbp)
   12462:	48 8d 85 a8 d0 ff ff 	lea    -0x2f58(%rbp),%rax
   12469:	48 89 85 40 e3 ff ff 	mov    %rax,-0x1cc0(%rbp)
   12470:	48 8d 85 b0 d0 ff ff 	lea    -0x2f50(%rbp),%rax
   12477:	48 89 85 48 e3 ff ff 	mov    %rax,-0x1cb8(%rbp)
   1247e:	48 8d 05 53 bf 00 00 	lea    0xbf53(%rip),%rax        # 1e3d8 <g_98+0x38>
   12485:	48 89 85 50 e3 ff ff 	mov    %rax,-0x1cb0(%rbp)
   1248c:	48 8d 85 a8 d0 ff ff 	lea    -0x2f58(%rbp),%rax
   12493:	48 89 85 58 e3 ff ff 	mov    %rax,-0x1ca8(%rbp)
   1249a:	48 8d 05 37 bf 00 00 	lea    0xbf37(%rip),%rax        # 1e3d8 <g_98+0x38>
   124a1:	48 89 85 60 e3 ff ff 	mov    %rax,-0x1ca0(%rbp)
   124a8:	48 8d 85 b0 d0 ff ff 	lea    -0x2f50(%rbp),%rax
   124af:	48 89 85 68 e3 ff ff 	mov    %rax,-0x1c98(%rbp)
   124b6:	48 8d 85 a8 d0 ff ff 	lea    -0x2f58(%rbp),%rax
   124bd:	48 89 85 70 e3 ff ff 	mov    %rax,-0x1c90(%rbp)
   124c4:	48 8d 05 0d bf 00 00 	lea    0xbf0d(%rip),%rax        # 1e3d8 <g_98+0x38>
   124cb:	48 89 85 78 e3 ff ff 	mov    %rax,-0x1c88(%rbp)
   124d2:	48 8d 05 ff be 00 00 	lea    0xbeff(%rip),%rax        # 1e3d8 <g_98+0x38>
   124d9:	48 89 85 80 e3 ff ff 	mov    %rax,-0x1c80(%rbp)
   124e0:	48 8d 85 00 df ff ff 	lea    -0x2100(%rbp),%rax
   124e7:	48 83 c0 10          	add    $0x10,%rax
   124eb:	48 89 85 88 e3 ff ff 	mov    %rax,-0x1c78(%rbp)
   124f2:	48 8d 05 df be 00 00 	lea    0xbedf(%rip),%rax        # 1e3d8 <g_98+0x38>
   124f9:	48 89 85 90 e3 ff ff 	mov    %rax,-0x1c70(%rbp)
   12500:	48 8d 05 d1 be 00 00 	lea    0xbed1(%rip),%rax        # 1e3d8 <g_98+0x38>
   12507:	48 89 85 98 e3 ff ff 	mov    %rax,-0x1c68(%rbp)
   1250e:	48 8d 85 a8 d0 ff ff 	lea    -0x2f58(%rbp),%rax
   12515:	48 89 85 a0 e3 ff ff 	mov    %rax,-0x1c60(%rbp)
   1251c:	48 8d 85 b0 d0 ff ff 	lea    -0x2f50(%rbp),%rax
   12523:	48 89 85 a8 e3 ff ff 	mov    %rax,-0x1c58(%rbp)
   1252a:	48 8d 05 a7 be 00 00 	lea    0xbea7(%rip),%rax        # 1e3d8 <g_98+0x38>
   12531:	48 89 85 b0 e3 ff ff 	mov    %rax,-0x1c50(%rbp)
   12538:	48 8d 85 a8 d0 ff ff 	lea    -0x2f58(%rbp),%rax
   1253f:	48 89 85 b8 e3 ff ff 	mov    %rax,-0x1c48(%rbp)
   12546:	48 8d 05 8b be 00 00 	lea    0xbe8b(%rip),%rax        # 1e3d8 <g_98+0x38>
   1254d:	48 89 85 c0 e3 ff ff 	mov    %rax,-0x1c40(%rbp)
   12554:	48 8d 85 b0 d0 ff ff 	lea    -0x2f50(%rbp),%rax
   1255b:	48 89 85 c8 e3 ff ff 	mov    %rax,-0x1c38(%rbp)
   12562:	48 8d 85 a8 d0 ff ff 	lea    -0x2f58(%rbp),%rax
   12569:	48 89 85 d0 e3 ff ff 	mov    %rax,-0x1c30(%rbp)
   12570:	48 8d 05 61 be 00 00 	lea    0xbe61(%rip),%rax        # 1e3d8 <g_98+0x38>
   12577:	48 89 85 d8 e3 ff ff 	mov    %rax,-0x1c28(%rbp)
   1257e:	48 8d 05 53 be 00 00 	lea    0xbe53(%rip),%rax        # 1e3d8 <g_98+0x38>
   12585:	48 89 85 e0 e3 ff ff 	mov    %rax,-0x1c20(%rbp)
   1258c:	48 8d 85 00 df ff ff 	lea    -0x2100(%rbp),%rax
   12593:	48 83 c0 10          	add    $0x10,%rax
   12597:	48 89 85 e8 e3 ff ff 	mov    %rax,-0x1c18(%rbp)
   1259e:	48 8d 05 33 be 00 00 	lea    0xbe33(%rip),%rax        # 1e3d8 <g_98+0x38>
   125a5:	48 89 85 f0 e3 ff ff 	mov    %rax,-0x1c10(%rbp)
   125ac:	48 8d 05 25 be 00 00 	lea    0xbe25(%rip),%rax        # 1e3d8 <g_98+0x38>
   125b3:	48 89 85 f8 e3 ff ff 	mov    %rax,-0x1c08(%rbp)
   125ba:	48 8d 85 a8 d0 ff ff 	lea    -0x2f58(%rbp),%rax
   125c1:	48 89 85 00 e4 ff ff 	mov    %rax,-0x1c00(%rbp)
   125c8:	48 8d 85 b0 d0 ff ff 	lea    -0x2f50(%rbp),%rax
   125cf:	48 89 85 08 e4 ff ff 	mov    %rax,-0x1bf8(%rbp)
   125d6:	48 8d 05 fb bd 00 00 	lea    0xbdfb(%rip),%rax        # 1e3d8 <g_98+0x38>
   125dd:	48 89 85 10 e4 ff ff 	mov    %rax,-0x1bf0(%rbp)
   125e4:	48 8d 85 a8 d0 ff ff 	lea    -0x2f58(%rbp),%rax
   125eb:	48 89 85 18 e4 ff ff 	mov    %rax,-0x1be8(%rbp)
   125f2:	48 8d 05 df bd 00 00 	lea    0xbddf(%rip),%rax        # 1e3d8 <g_98+0x38>
   125f9:	48 89 85 20 e4 ff ff 	mov    %rax,-0x1be0(%rbp)
   12600:	48 8d 85 b0 d0 ff ff 	lea    -0x2f50(%rbp),%rax
   12607:	48 89 85 28 e4 ff ff 	mov    %rax,-0x1bd8(%rbp)
   1260e:	48 8d 85 a8 d0 ff ff 	lea    -0x2f58(%rbp),%rax
   12615:	48 89 85 30 e4 ff ff 	mov    %rax,-0x1bd0(%rbp)
   1261c:	48 8d 05 b5 bd 00 00 	lea    0xbdb5(%rip),%rax        # 1e3d8 <g_98+0x38>
   12623:	48 89 85 38 e4 ff ff 	mov    %rax,-0x1bc8(%rbp)
   1262a:	48 8d 05 a7 bd 00 00 	lea    0xbda7(%rip),%rax        # 1e3d8 <g_98+0x38>
   12631:	48 89 85 40 e4 ff ff 	mov    %rax,-0x1bc0(%rbp)
   12638:	48 8d 85 00 df ff ff 	lea    -0x2100(%rbp),%rax
   1263f:	48 83 c0 10          	add    $0x10,%rax
   12643:	48 89 85 48 e4 ff ff 	mov    %rax,-0x1bb8(%rbp)
   1264a:	48 8d 05 87 bd 00 00 	lea    0xbd87(%rip),%rax        # 1e3d8 <g_98+0x38>
   12651:	48 89 85 50 e4 ff ff 	mov    %rax,-0x1bb0(%rbp)
   12658:	48 8d 05 79 bd 00 00 	lea    0xbd79(%rip),%rax        # 1e3d8 <g_98+0x38>
   1265f:	48 89 85 58 e4 ff ff 	mov    %rax,-0x1ba8(%rbp)
   12666:	48 8d 85 a8 d0 ff ff 	lea    -0x2f58(%rbp),%rax
   1266d:	48 89 85 60 e4 ff ff 	mov    %rax,-0x1ba0(%rbp)
   12674:	48 8d 85 b0 d0 ff ff 	lea    -0x2f50(%rbp),%rax
   1267b:	48 89 85 68 e4 ff ff 	mov    %rax,-0x1b98(%rbp)
   12682:	48 8d 05 4f bd 00 00 	lea    0xbd4f(%rip),%rax        # 1e3d8 <g_98+0x38>
   12689:	48 89 85 70 e4 ff ff 	mov    %rax,-0x1b90(%rbp)
   12690:	48 8d 85 a8 d0 ff ff 	lea    -0x2f58(%rbp),%rax
   12697:	48 89 85 78 e4 ff ff 	mov    %rax,-0x1b88(%rbp)
   1269e:	48 8d 05 33 bd 00 00 	lea    0xbd33(%rip),%rax        # 1e3d8 <g_98+0x38>
   126a5:	48 89 85 80 e4 ff ff 	mov    %rax,-0x1b80(%rbp)
   126ac:	48 8d 85 b0 d0 ff ff 	lea    -0x2f50(%rbp),%rax
   126b3:	48 89 85 88 e4 ff ff 	mov    %rax,-0x1b78(%rbp)
   126ba:	48 8d 85 a8 d0 ff ff 	lea    -0x2f58(%rbp),%rax
   126c1:	48 89 85 90 e4 ff ff 	mov    %rax,-0x1b70(%rbp)
   126c8:	48 8d 05 09 bd 00 00 	lea    0xbd09(%rip),%rax        # 1e3d8 <g_98+0x38>
   126cf:	48 89 85 98 e4 ff ff 	mov    %rax,-0x1b68(%rbp)
   126d6:	48 8d 05 fb bc 00 00 	lea    0xbcfb(%rip),%rax        # 1e3d8 <g_98+0x38>
   126dd:	48 89 85 a0 e4 ff ff 	mov    %rax,-0x1b60(%rbp)
   126e4:	48 8d 85 00 df ff ff 	lea    -0x2100(%rbp),%rax
   126eb:	48 83 c0 10          	add    $0x10,%rax
   126ef:	48 89 85 a8 e4 ff ff 	mov    %rax,-0x1b58(%rbp)
   126f6:	48 8d 05 db bc 00 00 	lea    0xbcdb(%rip),%rax        # 1e3d8 <g_98+0x38>
   126fd:	48 89 85 b0 e4 ff ff 	mov    %rax,-0x1b50(%rbp)
   12704:	48 8d 05 cd bc 00 00 	lea    0xbccd(%rip),%rax        # 1e3d8 <g_98+0x38>
   1270b:	48 89 85 b8 e4 ff ff 	mov    %rax,-0x1b48(%rbp)
   12712:	48 8d 85 a8 d0 ff ff 	lea    -0x2f58(%rbp),%rax
   12719:	48 89 85 c0 e4 ff ff 	mov    %rax,-0x1b40(%rbp)
   12720:	48 8d 85 b0 d0 ff ff 	lea    -0x2f50(%rbp),%rax
   12727:	48 89 85 c8 e4 ff ff 	mov    %rax,-0x1b38(%rbp)
   1272e:	48 8d 05 a3 bc 00 00 	lea    0xbca3(%rip),%rax        # 1e3d8 <g_98+0x38>
   12735:	48 89 85 d0 e4 ff ff 	mov    %rax,-0x1b30(%rbp)
   1273c:	48 8d 85 a8 d0 ff ff 	lea    -0x2f58(%rbp),%rax
   12743:	48 89 85 d8 e4 ff ff 	mov    %rax,-0x1b28(%rbp)
   1274a:	48 8d 05 87 bc 00 00 	lea    0xbc87(%rip),%rax        # 1e3d8 <g_98+0x38>
   12751:	48 89 85 e0 e4 ff ff 	mov    %rax,-0x1b20(%rbp)
   12758:	48 8d 85 b0 d0 ff ff 	lea    -0x2f50(%rbp),%rax
   1275f:	48 89 85 e8 e4 ff ff 	mov    %rax,-0x1b18(%rbp)
   12766:	48 8d 85 a8 d0 ff ff 	lea    -0x2f58(%rbp),%rax
   1276d:	48 89 85 f0 e4 ff ff 	mov    %rax,-0x1b10(%rbp)
   12774:	48 8d 05 5d bc 00 00 	lea    0xbc5d(%rip),%rax        # 1e3d8 <g_98+0x38>
   1277b:	48 89 85 f8 e4 ff ff 	mov    %rax,-0x1b08(%rbp)
   12782:	48 8b 85 10 df ff ff 	mov    -0x20f0(%rbp),%rax
   12789:	48 89 05 40 bd 00 00 	mov    %rax,0xbd40(%rip)        # 1e4d0 <g_98+0x130>
   12790:	48 8b 85 b0 d0 ff ff 	mov    -0x2f50(%rbp),%rax
   12797:	c7 00 a7 cf 87 69    	movl   $0x6987cfa7,(%rax)
   1279d:	8b 85 34 cf ff ff    	mov    -0x30cc(%rbp),%eax
   127a3:	85 c0                	test   %eax,%eax
   127a5:	0f 84 26 03 00 00    	je     12ad1 <func_57+0x37ad>
   127ab:	e9 36 03 00 00       	jmpq   12ae6 <func_57+0x37c2>
   127b0:	48 c7 85 b8 d2 ff ff 	movq   $0x1,-0x2d48(%rbp)
   127b7:	01 00 00 00 
   127bb:	48 8d 05 b2 99 00 00 	lea    0x99b2(%rip),%rax        # 1c174 <g_231>
   127c2:	48 89 85 c0 d2 ff ff 	mov    %rax,-0x2d40(%rbp)
   127c9:	48 8d 05 ad 99 00 00 	lea    0x99ad(%rip),%rax        # 1c17d <g_233+0x5>
   127d0:	48 89 85 c8 d2 ff ff 	mov    %rax,-0x2d38(%rbp)
   127d7:	48 8d 85 38 cf ff ff 	lea    -0x30c8(%rbp),%rax
   127de:	48 89 85 d0 d2 ff ff 	mov    %rax,-0x2d30(%rbp)
   127e5:	48 8d 05 94 99 00 00 	lea    0x9994(%rip),%rax        # 1c180 <g_238>
   127ec:	48 89 85 d8 d2 ff ff 	mov    %rax,-0x2d28(%rbp)
   127f3:	48 8d 05 86 99 00 00 	lea    0x9986(%rip),%rax        # 1c180 <g_238>
   127fa:	48 89 85 80 d3 ff ff 	mov    %rax,-0x2c80(%rbp)
   12801:	48 8d 05 98 98 00 00 	lea    0x9898(%rip),%rax        # 1c0a0 <g_89>
   12808:	48 89 85 d0 e2 ff ff 	mov    %rax,-0x1d30(%rbp)
   1280f:	48 c7 85 d8 e2 ff ff 	movq   $0x0,-0x1d28(%rbp)
   12816:	00 00 00 00 
   1281a:	48 c7 85 e0 e2 ff ff 	movq   $0x0,-0x1d20(%rbp)
   12821:	00 00 00 00 
   12825:	48 8d 05 74 98 00 00 	lea    0x9874(%rip),%rax        # 1c0a0 <g_89>
   1282c:	48 89 85 e8 e2 ff ff 	mov    %rax,-0x1d18(%rbp)
   12833:	48 c7 85 f0 e2 ff ff 	movq   $0x0,-0x1d10(%rbp)
   1283a:	00 00 00 00 
   1283e:	48 c7 85 f8 e2 ff ff 	movq   $0x0,-0x1d08(%rbp)
   12845:	00 00 00 00 
   12849:	48 8d 05 50 98 00 00 	lea    0x9850(%rip),%rax        # 1c0a0 <g_89>
   12850:	48 89 85 00 e3 ff ff 	mov    %rax,-0x1d00(%rbp)
   12857:	48 c7 85 08 e3 ff ff 	movq   $0x0,-0x1cf8(%rbp)
   1285e:	00 00 00 00 
   12862:	48 c7 85 10 e3 ff ff 	movq   $0x0,-0x1cf0(%rbp)
   12869:	00 00 00 00 
   1286d:	48 c7 85 18 e3 ff ff 	movq   $0x0,-0x1ce8(%rbp)
   12874:	00 00 00 00 
   12878:	48 8d 85 34 cf ff ff 	lea    -0x30cc(%rbp),%rax
   1287f:	48 89 85 20 e3 ff ff 	mov    %rax,-0x1ce0(%rbp)
   12886:	48 8d 85 34 cf ff ff 	lea    -0x30cc(%rbp),%rax
   1288d:	48 89 85 28 e3 ff ff 	mov    %rax,-0x1cd8(%rbp)
   12894:	48 8d 85 34 cf ff ff 	lea    -0x30cc(%rbp),%rax
   1289b:	48 89 85 30 e3 ff ff 	mov    %rax,-0x1cd0(%rbp)
   128a2:	48 8d 05 fb 97 00 00 	lea    0x97fb(%rip),%rax        # 1c0a4 <g_99>
   128a9:	48 89 85 38 e3 ff ff 	mov    %rax,-0x1cc8(%rbp)
   128b0:	48 8d 05 ed 97 00 00 	lea    0x97ed(%rip),%rax        # 1c0a4 <g_99>
   128b7:	48 89 85 40 e3 ff ff 	mov    %rax,-0x1cc0(%rbp)
   128be:	48 8d 85 34 cf ff ff 	lea    -0x30cc(%rbp),%rax
   128c5:	48 89 85 48 e3 ff ff 	mov    %rax,-0x1cb8(%rbp)
   128cc:	48 8d 05 d1 97 00 00 	lea    0x97d1(%rip),%rax        # 1c0a4 <g_99>
   128d3:	48 89 85 50 e3 ff ff 	mov    %rax,-0x1cb0(%rbp)
   128da:	48 8d 05 c3 97 00 00 	lea    0x97c3(%rip),%rax        # 1c0a4 <g_99>
   128e1:	48 89 85 58 e3 ff ff 	mov    %rax,-0x1ca8(%rbp)
   128e8:	48 c7 85 60 e3 ff ff 	movq   $0x0,-0x1ca0(%rbp)
   128ef:	00 00 00 00 
   128f3:	48 8d 85 34 cf ff ff 	lea    -0x30cc(%rbp),%rax
   128fa:	48 89 85 68 e3 ff ff 	mov    %rax,-0x1c98(%rbp)
   12901:	48 8d 85 34 cf ff ff 	lea    -0x30cc(%rbp),%rax
   12908:	48 89 85 70 e3 ff ff 	mov    %rax,-0x1c90(%rbp)
   1290f:	48 c7 85 78 e3 ff ff 	movq   $0x0,-0x1c88(%rbp)
   12916:	00 00 00 00 
   1291a:	48 8d 85 34 cf ff ff 	lea    -0x30cc(%rbp),%rax
   12921:	48 89 85 80 e3 ff ff 	mov    %rax,-0x1c80(%rbp)
   12928:	48 8d 85 34 cf ff ff 	lea    -0x30cc(%rbp),%rax
   1292f:	48 89 85 88 e3 ff ff 	mov    %rax,-0x1c78(%rbp)
   12936:	48 c7 85 90 e3 ff ff 	movq   $0x0,-0x1c70(%rbp)
   1293d:	00 00 00 00 
   12941:	48 8d 85 34 cf ff ff 	lea    -0x30cc(%rbp),%rax
   12948:	48 89 85 98 e3 ff ff 	mov    %rax,-0x1c68(%rbp)
   1294f:	48 8d 85 34 cf ff ff 	lea    -0x30cc(%rbp),%rax
   12956:	48 89 85 a0 e3 ff ff 	mov    %rax,-0x1c60(%rbp)
   1295d:	48 8d 85 34 cf ff ff 	lea    -0x30cc(%rbp),%rax
   12964:	48 89 85 a8 e3 ff ff 	mov    %rax,-0x1c58(%rbp)
   1296b:	48 8d 05 32 97 00 00 	lea    0x9732(%rip),%rax        # 1c0a4 <g_99>
   12972:	48 89 85 b0 e3 ff ff 	mov    %rax,-0x1c50(%rbp)
   12979:	48 8d 05 24 97 00 00 	lea    0x9724(%rip),%rax        # 1c0a4 <g_99>
   12980:	48 89 85 b8 e3 ff ff 	mov    %rax,-0x1c48(%rbp)
   12987:	48 8d 85 34 cf ff ff 	lea    -0x30cc(%rbp),%rax
   1298e:	48 89 85 c0 e3 ff ff 	mov    %rax,-0x1c40(%rbp)
   12995:	48 8d 05 08 97 00 00 	lea    0x9708(%rip),%rax        # 1c0a4 <g_99>
   1299c:	48 89 85 c8 e3 ff ff 	mov    %rax,-0x1c38(%rbp)
   129a3:	48 8d 05 fa 96 00 00 	lea    0x96fa(%rip),%rax        # 1c0a4 <g_99>
   129aa:	48 89 85 d0 e3 ff ff 	mov    %rax,-0x1c30(%rbp)
   129b1:	48 8d 85 34 cf ff ff 	lea    -0x30cc(%rbp),%rax
   129b8:	48 89 85 d8 e3 ff ff 	mov    %rax,-0x1c28(%rbp)
   129bf:	48 8d 05 de 96 00 00 	lea    0x96de(%rip),%rax        # 1c0a4 <g_99>
   129c6:	48 89 85 e0 e3 ff ff 	mov    %rax,-0x1c20(%rbp)
   129cd:	48 8d 05 d0 96 00 00 	lea    0x96d0(%rip),%rax        # 1c0a4 <g_99>
   129d4:	48 89 85 e8 e3 ff ff 	mov    %rax,-0x1c18(%rbp)
   129db:	48 8d 85 80 d3 ff ff 	lea    -0x2c80(%rbp),%rax
   129e2:	48 89 85 e0 d2 ff ff 	mov    %rax,-0x2d20(%rbp)
   129e9:	48 8b 85 b0 d0 ff ff 	mov    -0x2f50(%rbp),%rax
   129f0:	0f b6 95 f4 ce ff ff 	movzbl -0x310c(%rbp),%edx
   129f7:	89 10                	mov    %edx,(%rax)
   129f9:	0f b6 9d f4 ce ff ff 	movzbl -0x310c(%rbp),%ebx
   12a00:	48 8b 85 c8 d2 ff ff 	mov    -0x2d38(%rbp),%rax
   12a07:	c6 00 01             	movb   $0x1,(%rax)
   12a0a:	48 8b 85 68 da ff ff 	mov    -0x2598(%rbp),%rax
   12a11:	48 39 85 b0 d2 ff ff 	cmp    %rax,-0x2d50(%rbp)
   12a18:	0f 95 c0             	setne  %al
   12a1b:	0f b6 d0             	movzbl %al,%edx
   12a1e:	8b 85 34 cf ff ff    	mov    -0x30cc(%rbp),%eax
   12a24:	39 c2                	cmp    %eax,%edx
   12a26:	0f 95 c0             	setne  %al
   12a29:	0f b6 c0             	movzbl %al,%eax
   12a2c:	89 c7                	mov    %eax,%edi
   12a2e:	e8 6a 69 ff ff       	callq  939d <safe_unary_minus_func_int16_t_s>
   12a33:	66 83 f8 07          	cmp    $0x7,%ax
   12a37:	48 8b 05 1a bb 00 00 	mov    0xbb1a(%rip),%rax        # 1e558 <g_195>
   12a3e:	48 8b 00             	mov    (%rax),%rax
   12a41:	be 01 00 00 00       	mov    $0x1,%esi
   12a46:	bf 00 00 00 00       	mov    $0x0,%edi
   12a4b:	e8 af 6c ff ff       	callq  96ff <safe_div_func_int32_t_s_s>
   12a50:	48 8d 85 f0 ce ff ff 	lea    -0x3110(%rbp),%rax
   12a57:	48 39 85 38 d1 ff ff 	cmp    %rax,-0x2ec8(%rbp)
   12a5e:	0f 95 c0             	setne  %al
   12a61:	0f b6 d0             	movzbl %al,%edx
   12a64:	0f b7 85 c2 d4 ff ff 	movzwl -0x2b3e(%rbp),%eax
   12a6b:	48 0f bf c0          	movswq %ax,%rax
   12a6f:	48 09 85 b8 d2 ff ff 	or     %rax,-0x2d48(%rbp)
   12a76:	48 8b 85 b8 d2 ff ff 	mov    -0x2d48(%rbp),%rax
   12a7d:	48 89 d6             	mov    %rdx,%rsi
   12a80:	48 89 c7             	mov    %rax,%rdi
   12a83:	e8 c3 75 ff ff       	callq  a04b <safe_sub_func_uint64_t_u_u>
   12a88:	48 0f bf 95 0c cf ff 	movswq -0x30f4(%rbp),%rdx
   12a8f:	ff 
   12a90:	48 39 d0             	cmp    %rdx,%rax
   12a93:	0f 93 c0             	setae  %al
   12a96:	0f b6 c0             	movzbl %al,%eax
   12a99:	89 de                	mov    %ebx,%esi
   12a9b:	89 c7                	mov    %eax,%edi
   12a9d:	e8 5d 72 ff ff       	callq  9cff <safe_add_func_uint16_t_u_u>
   12aa2:	48 8b 05 47 bb 00 00 	mov    0xbb47(%rip),%rax        # 1e5f0 <g_237>
   12aa9:	8b 95 80 cf ff ff    	mov    -0x3080(%rbp),%edx
   12aaf:	89 10                	mov    %edx,(%rax)
   12ab1:	0f b6 85 11 d4 ff ff 	movzbl -0x2bef(%rbp),%eax
   12ab8:	83 e8 01             	sub    $0x1,%eax
   12abb:	88 85 11 d4 ff ff    	mov    %al,-0x2bef(%rbp)
   12ac1:	48 8b 85 e0 d2 ff ff 	mov    -0x2d20(%rbp),%rax
   12ac8:	48 c7 00 00 00 00 00 	movq   $0x0,(%rax)
   12acf:	eb 01                	jmp    12ad2 <func_57+0x37ae>
   12ad1:	90                   	nop
   12ad2:	48 8b 85 80 d2 ff ff 	mov    -0x2d80(%rbp),%rax
   12ad9:	48 8d 95 38 cf ff ff 	lea    -0x30c8(%rbp),%rdx
   12ae0:	48 89 10             	mov    %rdx,(%rax)
   12ae3:	eb 01                	jmp    12ae6 <func_57+0x37c2>
   12ae5:	90                   	nop
   12ae6:	48 8b 05 a3 95 00 00 	mov    0x95a3(%rip),%rax        # 1c090 <g_78>
   12aed:	48 83 c0 01          	add    $0x1,%rax
   12af1:	48 89 05 98 95 00 00 	mov    %rax,0x9598(%rip)        # 1c090 <g_78>
   12af8:	48 8b 05 91 95 00 00 	mov    0x9591(%rip),%rax        # 1c090 <g_78>
   12aff:	48 83 f8 01          	cmp    $0x1,%rax
   12b03:	0f 8e 1b ed ff ff    	jle    11824 <func_57+0x2500>
   12b09:	eb 01                	jmp    12b0c <func_57+0x37e8>
   12b0b:	90                   	nop
   12b0c:	48 c7 05 21 96 00 00 	movq   $0x0,0x9621(%rip)        # 1c138 <g_148>
   12b13:	00 00 00 00 
   12b17:	e9 64 04 00 00       	jmpq   12f80 <func_57+0x3c5c>
   12b1c:	48 8d 05 11 96 00 00 	lea    0x9611(%rip),%rax        # 1c134 <g_131>
   12b23:	48 89 85 30 d3 ff ff 	mov    %rax,-0x2cd0(%rbp)
   12b2a:	48 8d 85 48 d0 ff ff 	lea    -0x2fb8(%rbp),%rax
   12b31:	48 89 85 40 f4 ff ff 	mov    %rax,-0xbc0(%rbp)
   12b38:	48 8d 85 48 d0 ff ff 	lea    -0x2fb8(%rbp),%rax
   12b3f:	48 89 85 48 f4 ff ff 	mov    %rax,-0xbb8(%rbp)
   12b46:	48 8d 85 48 d0 ff ff 	lea    -0x2fb8(%rbp),%rax
   12b4d:	48 89 85 50 f4 ff ff 	mov    %rax,-0xbb0(%rbp)
   12b54:	48 8d 85 48 d0 ff ff 	lea    -0x2fb8(%rbp),%rax
   12b5b:	48 89 85 58 f4 ff ff 	mov    %rax,-0xba8(%rbp)
   12b62:	48 8d 85 48 d0 ff ff 	lea    -0x2fb8(%rbp),%rax
   12b69:	48 89 85 60 f4 ff ff 	mov    %rax,-0xba0(%rbp)
   12b70:	48 c7 85 68 f4 ff ff 	movq   $0x0,-0xb98(%rbp)
   12b77:	00 00 00 00 
   12b7b:	48 c7 85 70 f4 ff ff 	movq   $0x0,-0xb90(%rbp)
   12b82:	00 00 00 00 
   12b86:	48 c7 85 78 f4 ff ff 	movq   $0x0,-0xb88(%rbp)
   12b8d:	00 00 00 00 
   12b91:	48 c7 85 80 f4 ff ff 	movq   $0x0,-0xb80(%rbp)
   12b98:	00 00 00 00 
   12b9c:	48 c7 85 88 f4 ff ff 	movq   $0x0,-0xb78(%rbp)
   12ba3:	00 00 00 00 
   12ba7:	48 8d 85 48 d0 ff ff 	lea    -0x2fb8(%rbp),%rax
   12bae:	48 89 85 90 f4 ff ff 	mov    %rax,-0xb70(%rbp)
   12bb5:	48 8d 85 48 d0 ff ff 	lea    -0x2fb8(%rbp),%rax
   12bbc:	48 89 85 98 f4 ff ff 	mov    %rax,-0xb68(%rbp)
   12bc3:	48 8d 85 48 d0 ff ff 	lea    -0x2fb8(%rbp),%rax
   12bca:	48 89 85 a0 f4 ff ff 	mov    %rax,-0xb60(%rbp)
   12bd1:	48 8d 85 48 d0 ff ff 	lea    -0x2fb8(%rbp),%rax
   12bd8:	48 89 85 a8 f4 ff ff 	mov    %rax,-0xb58(%rbp)
   12bdf:	48 8d 85 48 d0 ff ff 	lea    -0x2fb8(%rbp),%rax
   12be6:	48 89 85 b0 f4 ff ff 	mov    %rax,-0xb50(%rbp)
   12bed:	48 c7 85 b8 f4 ff ff 	movq   $0x0,-0xb48(%rbp)
   12bf4:	00 00 00 00 
   12bf8:	48 8d 85 48 d0 ff ff 	lea    -0x2fb8(%rbp),%rax
   12bff:	48 89 85 c0 f4 ff ff 	mov    %rax,-0xb40(%rbp)
   12c06:	48 8d 85 48 d0 ff ff 	lea    -0x2fb8(%rbp),%rax
   12c0d:	48 89 85 c8 f4 ff ff 	mov    %rax,-0xb38(%rbp)
   12c14:	48 c7 85 d0 f4 ff ff 	movq   $0x0,-0xb30(%rbp)
   12c1b:	00 00 00 00 
   12c1f:	48 8d 85 48 d0 ff ff 	lea    -0x2fb8(%rbp),%rax
   12c26:	48 89 85 d8 f4 ff ff 	mov    %rax,-0xb28(%rbp)
   12c2d:	48 8d 85 48 d0 ff ff 	lea    -0x2fb8(%rbp),%rax
   12c34:	48 89 85 e0 f4 ff ff 	mov    %rax,-0xb20(%rbp)
   12c3b:	48 8d 85 48 d0 ff ff 	lea    -0x2fb8(%rbp),%rax
   12c42:	48 89 85 e8 f4 ff ff 	mov    %rax,-0xb18(%rbp)
   12c49:	48 c7 85 f0 f4 ff ff 	movq   $0x0,-0xb10(%rbp)
   12c50:	00 00 00 00 
   12c54:	48 8d 85 48 d0 ff ff 	lea    -0x2fb8(%rbp),%rax
   12c5b:	48 89 85 f8 f4 ff ff 	mov    %rax,-0xb08(%rbp)
   12c62:	48 8d 85 48 d0 ff ff 	lea    -0x2fb8(%rbp),%rax
   12c69:	48 89 85 00 f5 ff ff 	mov    %rax,-0xb00(%rbp)
   12c70:	48 8d 85 48 d0 ff ff 	lea    -0x2fb8(%rbp),%rax
   12c77:	48 89 85 08 f5 ff ff 	mov    %rax,-0xaf8(%rbp)
   12c7e:	48 c7 85 10 f5 ff ff 	movq   $0x0,-0xaf0(%rbp)
   12c85:	00 00 00 00 
   12c89:	48 8d 85 48 d0 ff ff 	lea    -0x2fb8(%rbp),%rax
   12c90:	48 89 85 18 f5 ff ff 	mov    %rax,-0xae8(%rbp)
   12c97:	48 8d 85 48 d0 ff ff 	lea    -0x2fb8(%rbp),%rax
   12c9e:	48 89 85 20 f5 ff ff 	mov    %rax,-0xae0(%rbp)
   12ca5:	48 c7 85 28 f5 ff ff 	movq   $0x0,-0xad8(%rbp)
   12cac:	00 00 00 00 
   12cb0:	48 8d 85 48 d0 ff ff 	lea    -0x2fb8(%rbp),%rax
   12cb7:	48 89 85 30 f5 ff ff 	mov    %rax,-0xad0(%rbp)
   12cbe:	48 8d 85 48 d0 ff ff 	lea    -0x2fb8(%rbp),%rax
   12cc5:	48 89 85 38 f5 ff ff 	mov    %rax,-0xac8(%rbp)
   12ccc:	48 8d 85 48 d0 ff ff 	lea    -0x2fb8(%rbp),%rax
   12cd3:	48 89 85 40 f5 ff ff 	mov    %rax,-0xac0(%rbp)
   12cda:	48 8d 85 48 d0 ff ff 	lea    -0x2fb8(%rbp),%rax
   12ce1:	48 89 85 48 f5 ff ff 	mov    %rax,-0xab8(%rbp)
   12ce8:	48 8d 85 48 d0 ff ff 	lea    -0x2fb8(%rbp),%rax
   12cef:	48 89 85 50 f5 ff ff 	mov    %rax,-0xab0(%rbp)
   12cf6:	48 c7 85 58 f5 ff ff 	movq   $0x0,-0xaa8(%rbp)
   12cfd:	00 00 00 00 
   12d01:	48 c7 85 60 f5 ff ff 	movq   $0x0,-0xaa0(%rbp)
   12d08:	00 00 00 00 
   12d0c:	48 c7 85 68 f5 ff ff 	movq   $0x0,-0xa98(%rbp)
   12d13:	00 00 00 00 
   12d17:	48 c7 85 70 f5 ff ff 	movq   $0x0,-0xa90(%rbp)
   12d1e:	00 00 00 00 
   12d22:	48 c7 85 78 f5 ff ff 	movq   $0x0,-0xa88(%rbp)
   12d29:	00 00 00 00 
   12d2d:	48 8d 05 cc b8 00 00 	lea    0xb8cc(%rip),%rax        # 1e600 <g_261>
   12d34:	48 89 85 38 d3 ff ff 	mov    %rax,-0x2cc8(%rbp)
   12d3b:	c6 85 0a cf ff ff ff 	movb   $0xff,-0x30f6(%rbp)
   12d42:	c7 85 2c d0 ff ff fc 	movl   $0xfffffffc,-0x2fd4(%rbp)
   12d49:	ff ff ff 
   12d4c:	c7 85 30 d0 ff ff 05 	movl   $0x5,-0x2fd0(%rbp)
   12d53:	00 00 00 
   12d56:	c7 85 34 d0 ff ff fc 	movl   $0xfffffffc,-0x2fcc(%rbp)
   12d5d:	ff ff ff 
   12d60:	c7 85 38 d0 ff ff 3d 	movl   $0xaad0ff3d,-0x2fc8(%rbp)
   12d67:	ff d0 aa 
   12d6a:	c7 85 3c d0 ff ff 8d 	movl   $0x393e918d,-0x2fc4(%rbp)
   12d71:	91 3e 39 
   12d74:	c7 85 d0 e2 ff ff f9 	movl   $0xfffffff9,-0x1d30(%rbp)
   12d7b:	ff ff ff 
   12d7e:	c7 85 d4 e2 ff ff 1a 	movl   $0xc790f11a,-0x1d2c(%rbp)
   12d85:	f1 90 c7 
   12d88:	c7 85 d8 e2 ff ff eb 	movl   $0x284ba3eb,-0x1d28(%rbp)
   12d8f:	a3 4b 28 
   12d92:	c7 85 dc e2 ff ff ff 	movl   $0xffffffff,-0x1d24(%rbp)
   12d99:	ff ff ff 
   12d9c:	c7 85 e0 e2 ff ff 05 	movl   $0x5,-0x1d20(%rbp)
   12da3:	00 00 00 
   12da6:	c7 85 e4 e2 ff ff 05 	movl   $0x5,-0x1d1c(%rbp)
   12dad:	00 00 00 
   12db0:	c7 85 e8 e2 ff ff ff 	movl   $0xffffffff,-0x1d18(%rbp)
   12db7:	ff ff ff 
   12dba:	c7 85 ec e2 ff ff b7 	movl   $0x8dfe0fb7,-0x1d14(%rbp)
   12dc1:	0f fe 8d 
   12dc4:	c7 85 f0 e2 ff ff 00 	movl   $0x0,-0x1d10(%rbp)
   12dcb:	00 00 00 
   12dce:	c7 85 f4 e2 ff ff b7 	movl   $0x8dfe0fb7,-0x1d0c(%rbp)
   12dd5:	0f fe 8d 
   12dd8:	c7 85 f8 e2 ff ff fa 	movl   $0xfffffffa,-0x1d08(%rbp)
   12ddf:	ff ff ff 
   12de2:	c7 85 fc e2 ff ff ff 	movl   $0xffffffff,-0x1d04(%rbp)
   12de9:	ff ff ff 
   12dec:	c7 85 00 e3 ff ff f9 	movl   $0xfffffff9,-0x1d00(%rbp)
   12df3:	ff ff ff 
   12df6:	c7 85 04 e3 ff ff ff 	movl   $0xffffffff,-0x1cfc(%rbp)
   12dfd:	ff ff ff 
   12e00:	c7 85 08 e3 ff ff eb 	movl   $0x284ba3eb,-0x1cf8(%rbp)
   12e07:	a3 4b 28 
   12e0a:	c7 85 0c e3 ff ff 1a 	movl   $0xc790f11a,-0x1cf4(%rbp)
   12e11:	f1 90 c7 
   12e14:	c7 85 10 e3 ff ff f9 	movl   $0xfffffff9,-0x1cf0(%rbp)
   12e1b:	ff ff ff 
   12e1e:	c7 85 14 e3 ff ff fa 	movl   $0xfffffffa,-0x1cec(%rbp)
   12e25:	ff ff ff 
   12e28:	c7 85 18 e3 ff ff f9 	movl   $0xfffffff9,-0x1ce8(%rbp)
   12e2f:	ff ff ff 
   12e32:	c7 85 1c e3 ff ff 1a 	movl   $0xc790f11a,-0x1ce4(%rbp)
   12e39:	f1 90 c7 
   12e3c:	c7 85 20 e3 ff ff eb 	movl   $0x284ba3eb,-0x1ce0(%rbp)
   12e43:	a3 4b 28 
   12e46:	c7 85 24 e3 ff ff 1a 	movl   $0xc790f11a,-0x1cdc(%rbp)
   12e4d:	f1 90 c7 
   12e50:	c7 85 28 e3 ff ff ff 	movl   $0xffffffff,-0x1cd8(%rbp)
   12e57:	ff ff ff 
   12e5a:	c7 85 2c e3 ff ff ff 	movl   $0xffffffff,-0x1cd4(%rbp)
   12e61:	ff ff ff 
   12e64:	c7 85 30 e3 ff ff ff 	movl   $0xffffffff,-0x1cd0(%rbp)
   12e6b:	ff ff ff 
   12e6e:	c7 85 34 e3 ff ff 7b 	movl   $0xe1aaf17b,-0x1ccc(%rbp)
   12e75:	f1 aa e1 
   12e78:	c7 85 38 e3 ff ff f9 	movl   $0xfffffff9,-0x1cc8(%rbp)
   12e7f:	ff ff ff 
   12e82:	c7 85 3c e3 ff ff 7b 	movl   $0xe1aaf17b,-0x1cc4(%rbp)
   12e89:	f1 aa e1 
   12e8c:	c7 85 40 e3 ff ff 1a 	movl   $0xc790f11a,-0x1cc0(%rbp)
   12e93:	f1 90 c7 
   12e96:	c7 85 44 e3 ff ff 7b 	movl   $0xe1aaf17b,-0x1cbc(%rbp)
   12e9d:	f1 aa e1 
   12ea0:	c7 85 48 e3 ff ff 7b 	movl   $0xe1aaf17b,-0x1cb8(%rbp)
   12ea7:	f1 aa e1 
   12eaa:	c7 85 4c e3 ff ff 1a 	movl   $0xc790f11a,-0x1cb4(%rbp)
   12eb1:	f1 90 c7 
   12eb4:	c7 85 50 e3 ff ff b7 	movl   $0x8dfe0fb7,-0x1cb0(%rbp)
   12ebb:	0f fe 8d 
   12ebe:	c7 85 54 e3 ff ff 05 	movl   $0x5,-0x1cac(%rbp)
   12ec5:	00 00 00 
   12ec8:	c7 85 58 e3 ff ff fa 	movl   $0xfffffffa,-0x1ca8(%rbp)
   12ecf:	ff ff ff 
   12ed2:	c7 85 5c e3 ff ff eb 	movl   $0x284ba3eb,-0x1ca4(%rbp)
   12ed9:	a3 4b 28 
   12edc:	c7 85 60 e3 ff ff 05 	movl   $0x5,-0x1ca0(%rbp)
   12ee3:	00 00 00 
   12ee6:	c7 85 64 e3 ff ff ff 	movl   $0xffffffff,-0x1c9c(%rbp)
   12eed:	ff ff ff 
   12ef0:	c7 85 68 e3 ff ff b7 	movl   $0x8dfe0fb7,-0x1c98(%rbp)
   12ef7:	0f fe 8d 
   12efa:	c7 85 6c e3 ff ff b7 	movl   $0x8dfe0fb7,-0x1c94(%rbp)
   12f01:	0f fe 8d 
   12f04:	c7 85 70 e3 ff ff ff 	movl   $0xffffffff,-0x1c90(%rbp)
   12f0b:	ff ff ff 
   12f0e:	c7 85 74 e3 ff ff 05 	movl   $0x5,-0x1c8c(%rbp)
   12f15:	00 00 00 
   12f18:	c7 85 78 e3 ff ff b7 	movl   $0x8dfe0fb7,-0x1c88(%rbp)
   12f1f:	0f fe 8d 
   12f22:	c7 85 7c e3 ff ff eb 	movl   $0x284ba3eb,-0x1c84(%rbp)
   12f29:	a3 4b 28 
   12f2c:	c7 85 80 e3 ff ff f9 	movl   $0xfffffff9,-0x1c80(%rbp)
   12f33:	ff ff ff 
   12f36:	c7 85 84 e3 ff ff ff 	movl   $0xffffffff,-0x1c7c(%rbp)
   12f3d:	ff ff ff 
   12f40:	c7 85 88 e3 ff ff 7b 	movl   $0xe1aaf17b,-0x1c78(%rbp)
   12f47:	f1 aa e1 
   12f4a:	c7 85 8c e3 ff ff fa 	movl   $0xfffffffa,-0x1c74(%rbp)
   12f51:	ff ff ff 
   12f54:	c7 85 90 e3 ff ff fa 	movl   $0xfffffffa,-0x1c70(%rbp)
   12f5b:	ff ff ff 
   12f5e:	c6 85 0b cf ff ff f7 	movb   $0xf7,-0x30f5(%rbp)
   12f65:	66 c7 85 1a cf ff ff 	movw   $0xfffc,-0x30e6(%rbp)
   12f6c:	fc ff 
   12f6e:	48 8b 05 c3 91 00 00 	mov    0x91c3(%rip),%rax        # 1c138 <g_148>
   12f75:	48 83 c0 01          	add    $0x1,%rax
   12f79:	48 89 05 b8 91 00 00 	mov    %rax,0x91b8(%rip)        # 1c138 <g_148>
   12f80:	48 8b 05 b1 91 00 00 	mov    0x91b1(%rip),%rax        # 1c138 <g_148>
   12f87:	48 83 f8 01          	cmp    $0x1,%rax
   12f8b:	0f 86 8b fb ff ff    	jbe    12b1c <func_57+0x37f8>
   12f91:	8b 05 0d 91 00 00    	mov    0x910d(%rip),%eax        # 1c0a4 <g_99>
   12f97:	83 e8 01             	sub    $0x1,%eax
   12f9a:	89 05 04 91 00 00    	mov    %eax,0x9104(%rip)        # 1c0a4 <g_99>
   12fa0:	8b 05 fe 90 00 00    	mov    0x90fe(%rip),%eax        # 1c0a4 <g_99>
   12fa6:	85 c0                	test   %eax,%eax
   12fa8:	0f 89 1e e7 ff ff    	jns    116cc <func_57+0x23a8>
   12fae:	48 c7 85 c0 d0 ff ff 	movq   $0x0,-0x2f40(%rbp)
   12fb5:	00 00 00 00 
   12fb9:	e9 8b 18 00 00       	jmpq   14849 <func_57+0x5525>
   12fbe:	c7 85 a8 cf ff ff fa 	movl   $0xfffffffa,-0x3058(%rbp)
   12fc5:	ff ff ff 
   12fc8:	48 8d 85 00 df ff ff 	lea    -0x2100(%rbp),%rax
   12fcf:	48 8d 15 ca 4b 00 00 	lea    0x4bca(%rip),%rdx        # 17ba0 <g_2409+0xb30>
   12fd6:	b9 79 00 00 00       	mov    $0x79,%ecx
   12fdb:	48 89 c7             	mov    %rax,%rdi
   12fde:	48 89 d6             	mov    %rdx,%rsi
   12fe1:	f3 48 a5             	rep movsq %ds:(%rsi),%es:(%rdi)
   12fe4:	48 89 f2             	mov    %rsi,%rdx
   12fe7:	48 89 f8             	mov    %rdi,%rax
   12fea:	8b 0a                	mov    (%rdx),%ecx
   12fec:	89 08                	mov    %ecx,(%rax)
   12fee:	48 8d 40 04          	lea    0x4(%rax),%rax
   12ff2:	48 8d 52 04          	lea    0x4(%rdx),%rdx
   12ff6:	48 8d 05 3b 91 00 00 	lea    0x913b(%rip),%rax        # 1c138 <g_148>
   12ffd:	48 89 85 a8 d0 ff ff 	mov    %rax,-0x2f58(%rbp)
   13004:	48 8d 85 a8 d0 ff ff 	lea    -0x2f58(%rbp),%rax
   1300b:	48 89 85 d8 d1 ff ff 	mov    %rax,-0x2e28(%rbp)
   13012:	48 8d 85 60 d0 ff ff 	lea    -0x2fa0(%rbp),%rax
   13019:	48 89 85 30 dc ff ff 	mov    %rax,-0x23d0(%rbp)
   13020:	48 8d 85 60 d0 ff ff 	lea    -0x2fa0(%rbp),%rax
   13027:	48 89 85 38 dc ff ff 	mov    %rax,-0x23c8(%rbp)
   1302e:	48 8d 85 60 d0 ff ff 	lea    -0x2fa0(%rbp),%rax
   13035:	48 89 85 40 dc ff ff 	mov    %rax,-0x23c0(%rbp)
   1303c:	48 8d 05 25 bb 00 00 	lea    0xbb25(%rip),%rax        # 1eb68 <g_587>
   13043:	48 89 85 48 dc ff ff 	mov    %rax,-0x23b8(%rbp)
   1304a:	48 8d 85 60 d0 ff ff 	lea    -0x2fa0(%rbp),%rax
   13051:	48 89 85 50 dc ff ff 	mov    %rax,-0x23b0(%rbp)
   13058:	48 8d 85 60 d0 ff ff 	lea    -0x2fa0(%rbp),%rax
   1305f:	48 89 85 58 dc ff ff 	mov    %rax,-0x23a8(%rbp)
   13066:	48 8d 85 60 d0 ff ff 	lea    -0x2fa0(%rbp),%rax
   1306d:	48 89 85 60 dc ff ff 	mov    %rax,-0x23a0(%rbp)
   13074:	48 8d 05 ed ba 00 00 	lea    0xbaed(%rip),%rax        # 1eb68 <g_587>
   1307b:	48 89 85 68 dc ff ff 	mov    %rax,-0x2398(%rbp)
   13082:	48 c7 85 70 dc ff ff 	movq   $0x0,-0x2390(%rbp)
   13089:	00 00 00 00 
   1308d:	48 8d 85 60 d0 ff ff 	lea    -0x2fa0(%rbp),%rax
   13094:	48 89 85 78 dc ff ff 	mov    %rax,-0x2388(%rbp)
   1309b:	48 8d 05 c6 ba 00 00 	lea    0xbac6(%rip),%rax        # 1eb68 <g_587>
   130a2:	48 89 85 80 dc ff ff 	mov    %rax,-0x2380(%rbp)
   130a9:	48 8d 85 60 d0 ff ff 	lea    -0x2fa0(%rbp),%rax
   130b0:	48 89 85 88 dc ff ff 	mov    %rax,-0x2378(%rbp)
   130b7:	48 8d 85 60 d0 ff ff 	lea    -0x2fa0(%rbp),%rax
   130be:	48 89 85 90 dc ff ff 	mov    %rax,-0x2370(%rbp)
   130c5:	48 8d 85 60 d0 ff ff 	lea    -0x2fa0(%rbp),%rax
   130cc:	48 89 85 98 dc ff ff 	mov    %rax,-0x2368(%rbp)
   130d3:	48 8d 85 60 d0 ff ff 	lea    -0x2fa0(%rbp),%rax
   130da:	48 89 85 a0 dc ff ff 	mov    %rax,-0x2360(%rbp)
   130e1:	48 8d 05 80 ba 00 00 	lea    0xba80(%rip),%rax        # 1eb68 <g_587>
   130e8:	48 89 85 a8 dc ff ff 	mov    %rax,-0x2358(%rbp)
   130ef:	48 8d 85 60 d0 ff ff 	lea    -0x2fa0(%rbp),%rax
   130f6:	48 89 85 b0 dc ff ff 	mov    %rax,-0x2350(%rbp)
   130fd:	48 8d 05 64 ba 00 00 	lea    0xba64(%rip),%rax        # 1eb68 <g_587>
   13104:	48 89 85 b8 dc ff ff 	mov    %rax,-0x2348(%rbp)
   1310b:	48 8d 05 56 ba 00 00 	lea    0xba56(%rip),%rax        # 1eb68 <g_587>
   13112:	48 89 85 c0 dc ff ff 	mov    %rax,-0x2340(%rbp)
   13119:	48 8d 85 60 d0 ff ff 	lea    -0x2fa0(%rbp),%rax
   13120:	48 89 85 c8 dc ff ff 	mov    %rax,-0x2338(%rbp)
   13127:	48 8d 85 60 d0 ff ff 	lea    -0x2fa0(%rbp),%rax
   1312e:	48 89 85 d0 dc ff ff 	mov    %rax,-0x2330(%rbp)
   13135:	48 8d 85 60 d0 ff ff 	lea    -0x2fa0(%rbp),%rax
   1313c:	48 89 85 d8 dc ff ff 	mov    %rax,-0x2328(%rbp)
   13143:	48 8d 05 1e ba 00 00 	lea    0xba1e(%rip),%rax        # 1eb68 <g_587>
   1314a:	48 89 85 e0 dc ff ff 	mov    %rax,-0x2320(%rbp)
   13151:	48 8d 85 60 d0 ff ff 	lea    -0x2fa0(%rbp),%rax
   13158:	48 89 85 e8 dc ff ff 	mov    %rax,-0x2318(%rbp)
   1315f:	48 8d 85 60 d0 ff ff 	lea    -0x2fa0(%rbp),%rax
   13166:	48 89 85 f0 dc ff ff 	mov    %rax,-0x2310(%rbp)
   1316d:	48 8d 85 60 d0 ff ff 	lea    -0x2fa0(%rbp),%rax
   13174:	48 89 85 f8 dc ff ff 	mov    %rax,-0x2308(%rbp)
   1317b:	48 8d 85 60 d0 ff ff 	lea    -0x2fa0(%rbp),%rax
   13182:	48 89 85 00 dd ff ff 	mov    %rax,-0x2300(%rbp)
   13189:	48 8d 85 60 d0 ff ff 	lea    -0x2fa0(%rbp),%rax
   13190:	48 89 85 08 dd ff ff 	mov    %rax,-0x22f8(%rbp)
   13197:	48 8d 05 ca b9 00 00 	lea    0xb9ca(%rip),%rax        # 1eb68 <g_587>
   1319e:	48 89 85 10 dd ff ff 	mov    %rax,-0x22f0(%rbp)
   131a5:	48 8d 85 60 d0 ff ff 	lea    -0x2fa0(%rbp),%rax
   131ac:	48 89 85 18 dd ff ff 	mov    %rax,-0x22e8(%rbp)
   131b3:	48 8d 05 ae b9 00 00 	lea    0xb9ae(%rip),%rax        # 1eb68 <g_587>
   131ba:	48 89 85 20 dd ff ff 	mov    %rax,-0x22e0(%rbp)
   131c1:	48 8d 85 60 d0 ff ff 	lea    -0x2fa0(%rbp),%rax
   131c8:	48 89 85 28 dd ff ff 	mov    %rax,-0x22d8(%rbp)
   131cf:	48 8d 85 60 d0 ff ff 	lea    -0x2fa0(%rbp),%rax
   131d6:	48 89 85 30 dd ff ff 	mov    %rax,-0x22d0(%rbp)
   131dd:	48 8d 85 60 d0 ff ff 	lea    -0x2fa0(%rbp),%rax
   131e4:	48 89 85 38 dd ff ff 	mov    %rax,-0x22c8(%rbp)
   131eb:	48 8d 05 76 b9 00 00 	lea    0xb976(%rip),%rax        # 1eb68 <g_587>
   131f2:	48 89 85 40 dd ff ff 	mov    %rax,-0x22c0(%rbp)
   131f9:	48 8d 85 60 d0 ff ff 	lea    -0x2fa0(%rbp),%rax
   13200:	48 89 85 48 dd ff ff 	mov    %rax,-0x22b8(%rbp)
   13207:	48 8d 05 5a b9 00 00 	lea    0xb95a(%rip),%rax        # 1eb68 <g_587>
   1320e:	48 89 85 50 dd ff ff 	mov    %rax,-0x22b0(%rbp)
   13215:	48 8d 85 60 d0 ff ff 	lea    -0x2fa0(%rbp),%rax
   1321c:	48 89 85 58 dd ff ff 	mov    %rax,-0x22a8(%rbp)
   13223:	48 8d 85 60 d0 ff ff 	lea    -0x2fa0(%rbp),%rax
   1322a:	48 89 85 60 dd ff ff 	mov    %rax,-0x22a0(%rbp)
   13231:	48 8d 05 30 b9 00 00 	lea    0xb930(%rip),%rax        # 1eb68 <g_587>
   13238:	48 89 85 68 dd ff ff 	mov    %rax,-0x2298(%rbp)
   1323f:	48 8d 85 60 d0 ff ff 	lea    -0x2fa0(%rbp),%rax
   13246:	48 89 85 70 dd ff ff 	mov    %rax,-0x2290(%rbp)
   1324d:	48 8d 05 14 b9 00 00 	lea    0xb914(%rip),%rax        # 1eb68 <g_587>
   13254:	48 89 85 78 dd ff ff 	mov    %rax,-0x2288(%rbp)
   1325b:	48 8d 05 06 b9 00 00 	lea    0xb906(%rip),%rax        # 1eb68 <g_587>
   13262:	48 89 85 80 dd ff ff 	mov    %rax,-0x2280(%rbp)
   13269:	48 8d 85 60 d0 ff ff 	lea    -0x2fa0(%rbp),%rax
   13270:	48 89 85 88 dd ff ff 	mov    %rax,-0x2278(%rbp)
   13277:	48 8d 85 60 d0 ff ff 	lea    -0x2fa0(%rbp),%rax
   1327e:	48 89 85 90 dd ff ff 	mov    %rax,-0x2270(%rbp)
   13285:	48 8d 85 60 d0 ff ff 	lea    -0x2fa0(%rbp),%rax
   1328c:	48 89 85 98 dd ff ff 	mov    %rax,-0x2268(%rbp)
   13293:	48 8d 05 ce b8 00 00 	lea    0xb8ce(%rip),%rax        # 1eb68 <g_587>
   1329a:	48 89 85 a0 dd ff ff 	mov    %rax,-0x2260(%rbp)
   132a1:	48 c7 85 a8 dd ff ff 	movq   $0x0,-0x2258(%rbp)
   132a8:	00 00 00 00 
   132ac:	48 8d 05 b5 b8 00 00 	lea    0xb8b5(%rip),%rax        # 1eb68 <g_587>
   132b3:	48 89 85 b0 dd ff ff 	mov    %rax,-0x2250(%rbp)
   132ba:	48 8d 05 a7 b8 00 00 	lea    0xb8a7(%rip),%rax        # 1eb68 <g_587>
   132c1:	48 89 85 b8 dd ff ff 	mov    %rax,-0x2248(%rbp)
   132c8:	48 c7 85 c0 dd ff ff 	movq   $0x0,-0x2240(%rbp)
   132cf:	00 00 00 00 
   132d3:	48 8d 85 60 d0 ff ff 	lea    -0x2fa0(%rbp),%rax
   132da:	48 89 85 c8 dd ff ff 	mov    %rax,-0x2238(%rbp)
   132e1:	48 8d 05 80 b8 00 00 	lea    0xb880(%rip),%rax        # 1eb68 <g_587>
   132e8:	48 89 85 d0 dd ff ff 	mov    %rax,-0x2230(%rbp)
   132ef:	48 8d 85 60 d0 ff ff 	lea    -0x2fa0(%rbp),%rax
   132f6:	48 89 85 d8 dd ff ff 	mov    %rax,-0x2228(%rbp)
   132fd:	48 8d 85 60 d0 ff ff 	lea    -0x2fa0(%rbp),%rax
   13304:	48 89 85 e0 dd ff ff 	mov    %rax,-0x2220(%rbp)
   1330b:	48 8d 05 56 b8 00 00 	lea    0xb856(%rip),%rax        # 1eb68 <g_587>
   13312:	48 89 85 e8 dd ff ff 	mov    %rax,-0x2218(%rbp)
   13319:	48 8d 85 60 d0 ff ff 	lea    -0x2fa0(%rbp),%rax
   13320:	48 89 85 f0 dd ff ff 	mov    %rax,-0x2210(%rbp)
   13327:	48 c7 85 f8 dd ff ff 	movq   $0x0,-0x2208(%rbp)
   1332e:	00 00 00 00 
   13332:	48 8d 05 2f b8 00 00 	lea    0xb82f(%rip),%rax        # 1eb68 <g_587>
   13339:	48 89 85 00 de ff ff 	mov    %rax,-0x2200(%rbp)
   13340:	48 8d 05 21 b8 00 00 	lea    0xb821(%rip),%rax        # 1eb68 <g_587>
   13347:	48 89 85 08 de ff ff 	mov    %rax,-0x21f8(%rbp)
   1334e:	48 8d 85 60 d0 ff ff 	lea    -0x2fa0(%rbp),%rax
   13355:	48 89 85 10 de ff ff 	mov    %rax,-0x21f0(%rbp)
   1335c:	48 c7 85 18 de ff ff 	movq   $0x0,-0x21e8(%rbp)
   13363:	00 00 00 00 
   13367:	48 8d 85 60 d0 ff ff 	lea    -0x2fa0(%rbp),%rax
   1336e:	48 89 85 20 de ff ff 	mov    %rax,-0x21e0(%rbp)
   13375:	48 8d 85 60 d0 ff ff 	lea    -0x2fa0(%rbp),%rax
   1337c:	48 89 85 28 de ff ff 	mov    %rax,-0x21d8(%rbp)
   13383:	48 8d 85 60 d0 ff ff 	lea    -0x2fa0(%rbp),%rax
   1338a:	48 89 85 30 de ff ff 	mov    %rax,-0x21d0(%rbp)
   13391:	48 8d 05 d0 b7 00 00 	lea    0xb7d0(%rip),%rax        # 1eb68 <g_587>
   13398:	48 89 85 38 de ff ff 	mov    %rax,-0x21c8(%rbp)
   1339f:	48 8d 85 60 d0 ff ff 	lea    -0x2fa0(%rbp),%rax
   133a6:	48 89 85 40 de ff ff 	mov    %rax,-0x21c0(%rbp)
   133ad:	48 8d 05 b4 b7 00 00 	lea    0xb7b4(%rip),%rax        # 1eb68 <g_587>
   133b4:	48 89 85 48 de ff ff 	mov    %rax,-0x21b8(%rbp)
   133bb:	48 8d 85 60 d0 ff ff 	lea    -0x2fa0(%rbp),%rax
   133c2:	48 89 85 50 de ff ff 	mov    %rax,-0x21b0(%rbp)
   133c9:	48 8d 85 60 d0 ff ff 	lea    -0x2fa0(%rbp),%rax
   133d0:	48 89 85 58 de ff ff 	mov    %rax,-0x21a8(%rbp)
   133d7:	48 c7 85 60 de ff ff 	movq   $0x0,-0x21a0(%rbp)
   133de:	00 00 00 00 
   133e2:	48 8d 05 7f b7 00 00 	lea    0xb77f(%rip),%rax        # 1eb68 <g_587>
   133e9:	48 89 85 68 de ff ff 	mov    %rax,-0x2198(%rbp)
   133f0:	48 8d 85 60 d0 ff ff 	lea    -0x2fa0(%rbp),%rax
   133f7:	48 89 85 70 de ff ff 	mov    %rax,-0x2190(%rbp)
   133fe:	48 8d 85 60 d0 ff ff 	lea    -0x2fa0(%rbp),%rax
   13405:	48 89 85 78 de ff ff 	mov    %rax,-0x2188(%rbp)
   1340c:	48 8d 85 60 d0 ff ff 	lea    -0x2fa0(%rbp),%rax
   13413:	48 89 85 80 de ff ff 	mov    %rax,-0x2180(%rbp)
   1341a:	48 8d 05 47 b7 00 00 	lea    0xb747(%rip),%rax        # 1eb68 <g_587>
   13421:	48 89 85 88 de ff ff 	mov    %rax,-0x2178(%rbp)
   13428:	48 8d 05 39 b7 00 00 	lea    0xb739(%rip),%rax        # 1eb68 <g_587>
   1342f:	48 89 85 90 de ff ff 	mov    %rax,-0x2170(%rbp)
   13436:	48 c7 85 98 de ff ff 	movq   $0x0,-0x2168(%rbp)
   1343d:	00 00 00 00 
   13441:	48 8d 05 20 b7 00 00 	lea    0xb720(%rip),%rax        # 1eb68 <g_587>
   13448:	48 89 85 a0 de ff ff 	mov    %rax,-0x2160(%rbp)
   1344f:	48 c7 85 a8 de ff ff 	movq   $0x0,-0x2158(%rbp)
   13456:	00 00 00 00 
   1345a:	48 8d 05 07 b7 00 00 	lea    0xb707(%rip),%rax        # 1eb68 <g_587>
   13461:	48 89 85 b0 de ff ff 	mov    %rax,-0x2150(%rbp)
   13468:	48 8d 85 60 d0 ff ff 	lea    -0x2fa0(%rbp),%rax
   1346f:	48 89 85 b8 de ff ff 	mov    %rax,-0x2148(%rbp)
   13476:	48 8d 05 eb b6 00 00 	lea    0xb6eb(%rip),%rax        # 1eb68 <g_587>
   1347d:	48 89 85 c0 de ff ff 	mov    %rax,-0x2140(%rbp)
   13484:	48 8d 05 dd b6 00 00 	lea    0xb6dd(%rip),%rax        # 1eb68 <g_587>
   1348b:	48 89 85 c8 de ff ff 	mov    %rax,-0x2138(%rbp)
   13492:	48 8d 05 cf b6 00 00 	lea    0xb6cf(%rip),%rax        # 1eb68 <g_587>
   13499:	48 89 85 d0 de ff ff 	mov    %rax,-0x2130(%rbp)
   134a0:	48 8d 85 60 d0 ff ff 	lea    -0x2fa0(%rbp),%rax
   134a7:	48 89 85 d8 de ff ff 	mov    %rax,-0x2128(%rbp)
   134ae:	48 8d 05 b3 b6 00 00 	lea    0xb6b3(%rip),%rax        # 1eb68 <g_587>
   134b5:	48 89 85 e0 de ff ff 	mov    %rax,-0x2120(%rbp)
   134bc:	48 c7 85 e8 de ff ff 	movq   $0x0,-0x2118(%rbp)
   134c3:	00 00 00 00 
   134c7:	48 8d 85 60 d0 ff ff 	lea    -0x2fa0(%rbp),%rax
   134ce:	48 89 85 f0 de ff ff 	mov    %rax,-0x2110(%rbp)
   134d5:	48 8d 85 60 d0 ff ff 	lea    -0x2fa0(%rbp),%rax
   134dc:	48 89 85 f8 de ff ff 	mov    %rax,-0x2108(%rbp)
   134e3:	8b 85 60 d3 ff ff    	mov    -0x2ca0(%rbp),%eax
   134e9:	25 00 00 f0 ff       	and    $0xfff00000,%eax
   134ee:	83 c8 3e             	or     $0x3e,%eax
   134f1:	89 85 60 d3 ff ff    	mov    %eax,-0x2ca0(%rbp)
   134f7:	8b 85 64 d3 ff ff    	mov    -0x2c9c(%rbp),%eax
   134fd:	25 00 00 00 fe       	and    $0xfe000000,%eax
   13502:	0d 3e 0c 00 00       	or     $0xc3e,%eax
   13507:	89 85 64 d3 ff ff    	mov    %eax,-0x2c9c(%rbp)
   1350d:	8b 85 68 d3 ff ff    	mov    -0x2c98(%rbp),%eax
   13513:	25 00 00 80 ff       	and    $0xff800000,%eax
   13518:	0d 83 0a 00 00       	or     $0xa83,%eax
   1351d:	89 85 68 d3 ff ff    	mov    %eax,-0x2c98(%rbp)
   13523:	0f b7 85 6a d3 ff ff 	movzwl -0x2c96(%rbp),%eax
   1352a:	66 25 7f c0          	and    $0xc07f,%ax
   1352e:	80 cc 05             	or     $0x5,%ah
   13531:	66 89 85 6a d3 ff ff 	mov    %ax,-0x2c96(%rbp)
   13538:	8b 85 6c d3 ff ff    	mov    -0x2c94(%rbp),%eax
   1353e:	25 00 00 00 fc       	and    $0xfc000000,%eax
   13543:	0d aa 10 00 00       	or     $0x10aa,%eax
   13548:	89 85 6c d3 ff ff    	mov    %eax,-0x2c94(%rbp)
   1354e:	0f b7 85 70 d3 ff ff 	movzwl -0x2c90(%rbp),%eax
   13555:	66 25 00 fe          	and    $0xfe00,%ax
   13559:	66 0d eb 01          	or     $0x1eb,%ax
   1355d:	66 89 85 70 d3 ff ff 	mov    %ax,-0x2c90(%rbp)
   13564:	0f b6 85 71 d3 ff ff 	movzbl -0x2c8f(%rbp),%eax
   1356b:	83 e0 f1             	and    $0xfffffff1,%eax
   1356e:	83 c8 02             	or     $0x2,%eax
   13571:	88 85 71 d3 ff ff    	mov    %al,-0x2c8f(%rbp)
   13577:	48 c7 85 b0 d0 ff ff 	movq   $0x0,-0x2f50(%rbp)
   1357e:	00 00 00 00 
   13582:	48 b8 c8 62 63 a9 92 	movabs $0x2680f592a96362c8,%rax
   13589:	f5 80 26 
   1358c:	48 89 85 e0 d1 ff ff 	mov    %rax,-0x2e20(%rbp)
   13593:	48 8d 85 50 d0 ff ff 	lea    -0x2fb0(%rbp),%rax
   1359a:	48 89 85 40 f4 ff ff 	mov    %rax,-0xbc0(%rbp)
   135a1:	48 8d 85 50 d0 ff ff 	lea    -0x2fb0(%rbp),%rax
   135a8:	48 89 85 48 f4 ff ff 	mov    %rax,-0xbb8(%rbp)
   135af:	48 8d 85 50 d0 ff ff 	lea    -0x2fb0(%rbp),%rax
   135b6:	48 89 85 50 f4 ff ff 	mov    %rax,-0xbb0(%rbp)
   135bd:	48 c7 85 58 f4 ff ff 	movq   $0x0,-0xba8(%rbp)
   135c4:	00 00 00 00 
   135c8:	48 8d 05 59 cb 00 00 	lea    0xcb59(%rip),%rax        # 20128 <g_159>
   135cf:	48 89 85 60 f4 ff ff 	mov    %rax,-0xba0(%rbp)
   135d6:	48 8d 85 50 d0 ff ff 	lea    -0x2fb0(%rbp),%rax
   135dd:	48 89 85 68 f4 ff ff 	mov    %rax,-0xb98(%rbp)
   135e4:	48 c7 85 70 f4 ff ff 	movq   $0x0,-0xb90(%rbp)
   135eb:	00 00 00 00 
   135ef:	48 8d 85 50 d0 ff ff 	lea    -0x2fb0(%rbp),%rax
   135f6:	48 89 85 78 f4 ff ff 	mov    %rax,-0xb88(%rbp)
   135fd:	48 c7 85 80 f4 ff ff 	movq   $0x0,-0xb80(%rbp)
   13604:	00 00 00 00 
   13608:	48 8d 85 50 d0 ff ff 	lea    -0x2fb0(%rbp),%rax
   1360f:	48 89 85 88 f4 ff ff 	mov    %rax,-0xb78(%rbp)
   13616:	48 8d 85 50 d0 ff ff 	lea    -0x2fb0(%rbp),%rax
   1361d:	48 89 85 90 f4 ff ff 	mov    %rax,-0xb70(%rbp)
   13624:	48 8d 05 fd ca 00 00 	lea    0xcafd(%rip),%rax        # 20128 <g_159>
   1362b:	48 89 85 98 f4 ff ff 	mov    %rax,-0xb68(%rbp)
   13632:	48 8d 85 50 d0 ff ff 	lea    -0x2fb0(%rbp),%rax
   13639:	48 89 85 a0 f4 ff ff 	mov    %rax,-0xb60(%rbp)
   13640:	48 c7 85 a8 f4 ff ff 	movq   $0x0,-0xb58(%rbp)
   13647:	00 00 00 00 
   1364b:	48 8d 05 d6 ca 00 00 	lea    0xcad6(%rip),%rax        # 20128 <g_159>
   13652:	48 89 85 b0 f4 ff ff 	mov    %rax,-0xb50(%rbp)
   13659:	48 c7 85 b8 f4 ff ff 	movq   $0x0,-0xb48(%rbp)
   13660:	00 00 00 00 
   13664:	48 8d 85 50 d0 ff ff 	lea    -0x2fb0(%rbp),%rax
   1366b:	48 89 85 c0 f4 ff ff 	mov    %rax,-0xb40(%rbp)
   13672:	48 8d 05 af ca 00 00 	lea    0xcaaf(%rip),%rax        # 20128 <g_159>
   13679:	48 89 85 c8 f4 ff ff 	mov    %rax,-0xb38(%rbp)
   13680:	48 8d 05 a1 ca 00 00 	lea    0xcaa1(%rip),%rax        # 20128 <g_159>
   13687:	48 89 85 d0 f4 ff ff 	mov    %rax,-0xb30(%rbp)
   1368e:	48 8d 85 50 d0 ff ff 	lea    -0x2fb0(%rbp),%rax
   13695:	48 89 85 d8 f4 ff ff 	mov    %rax,-0xb28(%rbp)
   1369c:	48 8d 85 50 d0 ff ff 	lea    -0x2fb0(%rbp),%rax
   136a3:	48 89 85 e0 f4 ff ff 	mov    %rax,-0xb20(%rbp)
   136aa:	48 8d 05 77 ca 00 00 	lea    0xca77(%rip),%rax        # 20128 <g_159>
   136b1:	48 89 85 e8 f4 ff ff 	mov    %rax,-0xb18(%rbp)
   136b8:	48 8d 05 69 ca 00 00 	lea    0xca69(%rip),%rax        # 20128 <g_159>
   136bf:	48 89 85 f0 f4 ff ff 	mov    %rax,-0xb10(%rbp)
   136c6:	48 c7 85 f8 f4 ff ff 	movq   $0x0,-0xb08(%rbp)
   136cd:	00 00 00 00 
   136d1:	48 8d 85 50 d0 ff ff 	lea    -0x2fb0(%rbp),%rax
   136d8:	48 89 85 00 f5 ff ff 	mov    %rax,-0xb00(%rbp)
   136df:	48 8d 85 50 d0 ff ff 	lea    -0x2fb0(%rbp),%rax
   136e6:	48 89 85 08 f5 ff ff 	mov    %rax,-0xaf8(%rbp)
   136ed:	48 8d 05 34 ca 00 00 	lea    0xca34(%rip),%rax        # 20128 <g_159>
   136f4:	48 89 85 10 f5 ff ff 	mov    %rax,-0xaf0(%rbp)
   136fb:	48 8d 85 50 d0 ff ff 	lea    -0x2fb0(%rbp),%rax
   13702:	48 89 85 18 f5 ff ff 	mov    %rax,-0xae8(%rbp)
   13709:	48 8d 05 18 ca 00 00 	lea    0xca18(%rip),%rax        # 20128 <g_159>
   13710:	48 89 85 20 f5 ff ff 	mov    %rax,-0xae0(%rbp)
   13717:	48 c7 85 28 f5 ff ff 	movq   $0x0,-0xad8(%rbp)
   1371e:	00 00 00 00 
   13722:	48 8d 85 50 d0 ff ff 	lea    -0x2fb0(%rbp),%rax
   13729:	48 89 85 30 f5 ff ff 	mov    %rax,-0xad0(%rbp)
   13730:	48 8d 85 50 d0 ff ff 	lea    -0x2fb0(%rbp),%rax
   13737:	48 89 85 38 f5 ff ff 	mov    %rax,-0xac8(%rbp)
   1373e:	48 8d 85 50 d0 ff ff 	lea    -0x2fb0(%rbp),%rax
   13745:	48 89 85 40 f5 ff ff 	mov    %rax,-0xac0(%rbp)
   1374c:	48 8d 85 50 d0 ff ff 	lea    -0x2fb0(%rbp),%rax
   13753:	48 89 85 48 f5 ff ff 	mov    %rax,-0xab8(%rbp)
   1375a:	48 8d 85 50 d0 ff ff 	lea    -0x2fb0(%rbp),%rax
   13761:	48 89 85 50 f5 ff ff 	mov    %rax,-0xab0(%rbp)
   13768:	48 8d 05 b9 c9 00 00 	lea    0xc9b9(%rip),%rax        # 20128 <g_159>
   1376f:	48 89 85 58 f5 ff ff 	mov    %rax,-0xaa8(%rbp)
   13776:	48 8d 05 ab c9 00 00 	lea    0xc9ab(%rip),%rax        # 20128 <g_159>
   1377d:	48 89 85 60 f5 ff ff 	mov    %rax,-0xaa0(%rbp)
   13784:	48 c7 85 68 f5 ff ff 	movq   $0x0,-0xa98(%rbp)
   1378b:	00 00 00 00 
   1378f:	48 8d 05 92 c9 00 00 	lea    0xc992(%rip),%rax        # 20128 <g_159>
   13796:	48 89 85 70 f5 ff ff 	mov    %rax,-0xa90(%rbp)
   1379d:	48 8d 85 50 d0 ff ff 	lea    -0x2fb0(%rbp),%rax
   137a4:	48 89 85 78 f5 ff ff 	mov    %rax,-0xa88(%rbp)
   137ab:	48 8d 05 76 c9 00 00 	lea    0xc976(%rip),%rax        # 20128 <g_159>
   137b2:	48 89 85 80 f5 ff ff 	mov    %rax,-0xa80(%rbp)
   137b9:	48 8d 05 68 c9 00 00 	lea    0xc968(%rip),%rax        # 20128 <g_159>
   137c0:	48 89 85 88 f5 ff ff 	mov    %rax,-0xa78(%rbp)
   137c7:	48 8d 05 5a c9 00 00 	lea    0xc95a(%rip),%rax        # 20128 <g_159>
   137ce:	48 89 85 90 f5 ff ff 	mov    %rax,-0xa70(%rbp)
   137d5:	48 8d 85 50 d0 ff ff 	lea    -0x2fb0(%rbp),%rax
   137dc:	48 89 85 98 f5 ff ff 	mov    %rax,-0xa68(%rbp)
   137e3:	48 c7 85 a0 f5 ff ff 	movq   $0x0,-0xa60(%rbp)
   137ea:	00 00 00 00 
   137ee:	48 c7 85 a8 f5 ff ff 	movq   $0x0,-0xa58(%rbp)
   137f5:	00 00 00 00 
   137f9:	48 8d 05 28 c9 00 00 	lea    0xc928(%rip),%rax        # 20128 <g_159>
   13800:	48 89 85 b0 f5 ff ff 	mov    %rax,-0xa50(%rbp)
   13807:	48 8d 85 50 d0 ff ff 	lea    -0x2fb0(%rbp),%rax
   1380e:	48 89 85 b8 f5 ff ff 	mov    %rax,-0xa48(%rbp)
   13815:	48 8d 85 50 d0 ff ff 	lea    -0x2fb0(%rbp),%rax
   1381c:	48 89 85 c0 f5 ff ff 	mov    %rax,-0xa40(%rbp)
   13823:	48 8d 05 fe c8 00 00 	lea    0xc8fe(%rip),%rax        # 20128 <g_159>
   1382a:	48 89 85 c8 f5 ff ff 	mov    %rax,-0xa38(%rbp)
   13831:	48 8d 85 50 d0 ff ff 	lea    -0x2fb0(%rbp),%rax
   13838:	48 89 85 d0 f5 ff ff 	mov    %rax,-0xa30(%rbp)
   1383f:	48 8d 05 e2 c8 00 00 	lea    0xc8e2(%rip),%rax        # 20128 <g_159>
   13846:	48 89 85 d8 f5 ff ff 	mov    %rax,-0xa28(%rbp)
   1384d:	48 8d 05 d4 c8 00 00 	lea    0xc8d4(%rip),%rax        # 20128 <g_159>
   13854:	48 89 85 e0 f5 ff ff 	mov    %rax,-0xa20(%rbp)
   1385b:	48 8d 05 c6 c8 00 00 	lea    0xc8c6(%rip),%rax        # 20128 <g_159>
   13862:	48 89 85 e8 f5 ff ff 	mov    %rax,-0xa18(%rbp)
   13869:	48 8d 85 50 d0 ff ff 	lea    -0x2fb0(%rbp),%rax
   13870:	48 89 85 f0 f5 ff ff 	mov    %rax,-0xa10(%rbp)
   13877:	48 8d 05 aa c8 00 00 	lea    0xc8aa(%rip),%rax        # 20128 <g_159>
   1387e:	48 89 85 f8 f5 ff ff 	mov    %rax,-0xa08(%rbp)
   13885:	48 8d 05 9c c8 00 00 	lea    0xc89c(%rip),%rax        # 20128 <g_159>
   1388c:	48 89 85 00 f6 ff ff 	mov    %rax,-0xa00(%rbp)
   13893:	48 8d 05 8e c8 00 00 	lea    0xc88e(%rip),%rax        # 20128 <g_159>
   1389a:	48 89 85 08 f6 ff ff 	mov    %rax,-0x9f8(%rbp)
   138a1:	48 c7 85 10 f6 ff ff 	movq   $0x0,-0x9f0(%rbp)
   138a8:	00 00 00 00 
   138ac:	48 8d 05 75 c8 00 00 	lea    0xc875(%rip),%rax        # 20128 <g_159>
   138b3:	48 89 85 18 f6 ff ff 	mov    %rax,-0x9e8(%rbp)
   138ba:	48 8d 85 50 d0 ff ff 	lea    -0x2fb0(%rbp),%rax
   138c1:	48 89 85 20 f6 ff ff 	mov    %rax,-0x9e0(%rbp)
   138c8:	48 8d 05 59 c8 00 00 	lea    0xc859(%rip),%rax        # 20128 <g_159>
   138cf:	48 89 85 28 f6 ff ff 	mov    %rax,-0x9d8(%rbp)
   138d6:	48 c7 85 30 f6 ff ff 	movq   $0x0,-0x9d0(%rbp)
   138dd:	00 00 00 00 
   138e1:	48 8d 85 50 d0 ff ff 	lea    -0x2fb0(%rbp),%rax
   138e8:	48 89 85 38 f6 ff ff 	mov    %rax,-0x9c8(%rbp)
   138ef:	48 8d 05 32 c8 00 00 	lea    0xc832(%rip),%rax        # 20128 <g_159>
   138f6:	48 89 85 40 f6 ff ff 	mov    %rax,-0x9c0(%rbp)
   138fd:	48 8d 05 24 c8 00 00 	lea    0xc824(%rip),%rax        # 20128 <g_159>
   13904:	48 89 85 48 f6 ff ff 	mov    %rax,-0x9b8(%rbp)
   1390b:	48 8d 05 16 c8 00 00 	lea    0xc816(%rip),%rax        # 20128 <g_159>
   13912:	48 89 85 50 f6 ff ff 	mov    %rax,-0x9b0(%rbp)
   13919:	48 8d 85 50 d0 ff ff 	lea    -0x2fb0(%rbp),%rax
   13920:	48 89 85 58 f6 ff ff 	mov    %rax,-0x9a8(%rbp)
   13927:	48 c7 85 60 f6 ff ff 	movq   $0x0,-0x9a0(%rbp)
   1392e:	00 00 00 00 
   13932:	48 8d 85 50 d0 ff ff 	lea    -0x2fb0(%rbp),%rax
   13939:	48 89 85 68 f6 ff ff 	mov    %rax,-0x998(%rbp)
   13940:	48 8d 05 e1 c7 00 00 	lea    0xc7e1(%rip),%rax        # 20128 <g_159>
   13947:	48 89 85 70 f6 ff ff 	mov    %rax,-0x990(%rbp)
   1394e:	48 8d 85 50 d0 ff ff 	lea    -0x2fb0(%rbp),%rax
   13955:	48 89 85 78 f6 ff ff 	mov    %rax,-0x988(%rbp)
   1395c:	48 8d 05 c5 c7 00 00 	lea    0xc7c5(%rip),%rax        # 20128 <g_159>
   13963:	48 89 85 80 f6 ff ff 	mov    %rax,-0x980(%rbp)
   1396a:	48 8d 85 50 d0 ff ff 	lea    -0x2fb0(%rbp),%rax
   13971:	48 89 85 88 f6 ff ff 	mov    %rax,-0x978(%rbp)
   13978:	48 8d 05 a9 c7 00 00 	lea    0xc7a9(%rip),%rax        # 20128 <g_159>
   1397f:	48 89 85 90 f6 ff ff 	mov    %rax,-0x970(%rbp)
   13986:	48 8d 85 50 d0 ff ff 	lea    -0x2fb0(%rbp),%rax
   1398d:	48 89 85 98 f6 ff ff 	mov    %rax,-0x968(%rbp)
   13994:	48 8d 05 8d c7 00 00 	lea    0xc78d(%rip),%rax        # 20128 <g_159>
   1399b:	48 89 85 a0 f6 ff ff 	mov    %rax,-0x960(%rbp)
   139a2:	48 c7 85 a8 f6 ff ff 	movq   $0x0,-0x958(%rbp)
   139a9:	00 00 00 00 
   139ad:	48 8d 85 50 d0 ff ff 	lea    -0x2fb0(%rbp),%rax
   139b4:	48 89 85 b0 f6 ff ff 	mov    %rax,-0x950(%rbp)
   139bb:	48 8d 05 66 c7 00 00 	lea    0xc766(%rip),%rax        # 20128 <g_159>
   139c2:	48 89 85 b8 f6 ff ff 	mov    %rax,-0x948(%rbp)
   139c9:	48 8d 05 58 c7 00 00 	lea    0xc758(%rip),%rax        # 20128 <g_159>
   139d0:	48 89 85 c0 f6 ff ff 	mov    %rax,-0x940(%rbp)
   139d7:	48 8d 85 50 d0 ff ff 	lea    -0x2fb0(%rbp),%rax
   139de:	48 89 85 c8 f6 ff ff 	mov    %rax,-0x938(%rbp)
   139e5:	48 8d 85 50 d0 ff ff 	lea    -0x2fb0(%rbp),%rax
   139ec:	48 89 85 d0 f6 ff ff 	mov    %rax,-0x930(%rbp)
   139f3:	48 c7 85 d8 f6 ff ff 	movq   $0x0,-0x928(%rbp)
   139fa:	00 00 00 00 
   139fe:	48 8d 05 23 c7 00 00 	lea    0xc723(%rip),%rax        # 20128 <g_159>
   13a05:	48 89 85 e0 f6 ff ff 	mov    %rax,-0x920(%rbp)
   13a0c:	48 8d 85 50 d0 ff ff 	lea    -0x2fb0(%rbp),%rax
   13a13:	48 89 85 e8 f6 ff ff 	mov    %rax,-0x918(%rbp)
   13a1a:	48 8d 05 07 c7 00 00 	lea    0xc707(%rip),%rax        # 20128 <g_159>
   13a21:	48 89 85 f0 f6 ff ff 	mov    %rax,-0x910(%rbp)
   13a28:	48 8d 85 50 d0 ff ff 	lea    -0x2fb0(%rbp),%rax
   13a2f:	48 89 85 f8 f6 ff ff 	mov    %rax,-0x908(%rbp)
   13a36:	48 8d 85 50 d0 ff ff 	lea    -0x2fb0(%rbp),%rax
   13a3d:	48 89 85 00 f7 ff ff 	mov    %rax,-0x900(%rbp)
   13a44:	48 c7 85 08 f7 ff ff 	movq   $0x0,-0x8f8(%rbp)
   13a4b:	00 00 00 00 
   13a4f:	48 8d 85 50 d0 ff ff 	lea    -0x2fb0(%rbp),%rax
   13a56:	48 89 85 10 f7 ff ff 	mov    %rax,-0x8f0(%rbp)
   13a5d:	48 8d 85 50 d0 ff ff 	lea    -0x2fb0(%rbp),%rax
   13a64:	48 89 85 18 f7 ff ff 	mov    %rax,-0x8e8(%rbp)
   13a6b:	48 8d 85 50 d0 ff ff 	lea    -0x2fb0(%rbp),%rax
   13a72:	48 89 85 20 f7 ff ff 	mov    %rax,-0x8e0(%rbp)
   13a79:	48 8d 85 50 d0 ff ff 	lea    -0x2fb0(%rbp),%rax
   13a80:	48 89 85 28 f7 ff ff 	mov    %rax,-0x8d8(%rbp)
   13a87:	48 8d 85 50 d0 ff ff 	lea    -0x2fb0(%rbp),%rax
   13a8e:	48 89 85 30 f7 ff ff 	mov    %rax,-0x8d0(%rbp)
   13a95:	48 8d 05 8c c6 00 00 	lea    0xc68c(%rip),%rax        # 20128 <g_159>
   13a9c:	48 89 85 38 f7 ff ff 	mov    %rax,-0x8c8(%rbp)
   13aa3:	48 8d 05 7e c6 00 00 	lea    0xc67e(%rip),%rax        # 20128 <g_159>
   13aaa:	48 89 85 40 f7 ff ff 	mov    %rax,-0x8c0(%rbp)
   13ab1:	48 8d 05 70 c6 00 00 	lea    0xc670(%rip),%rax        # 20128 <g_159>
   13ab8:	48 89 85 48 f7 ff ff 	mov    %rax,-0x8b8(%rbp)
   13abf:	48 8d 05 62 c6 00 00 	lea    0xc662(%rip),%rax        # 20128 <g_159>
   13ac6:	48 89 85 50 f7 ff ff 	mov    %rax,-0x8b0(%rbp)
   13acd:	48 c7 85 58 f7 ff ff 	movq   $0x0,-0x8a8(%rbp)
   13ad4:	00 00 00 00 
   13ad8:	48 c7 85 60 f7 ff ff 	movq   $0x0,-0x8a0(%rbp)
   13adf:	00 00 00 00 
   13ae3:	48 8d 05 3e c6 00 00 	lea    0xc63e(%rip),%rax        # 20128 <g_159>
   13aea:	48 89 85 68 f7 ff ff 	mov    %rax,-0x898(%rbp)
   13af1:	48 8d 05 30 c6 00 00 	lea    0xc630(%rip),%rax        # 20128 <g_159>
   13af8:	48 89 85 70 f7 ff ff 	mov    %rax,-0x890(%rbp)
   13aff:	48 8d 85 50 d0 ff ff 	lea    -0x2fb0(%rbp),%rax
   13b06:	48 89 85 78 f7 ff ff 	mov    %rax,-0x888(%rbp)
   13b0d:	48 8d 05 14 c6 00 00 	lea    0xc614(%rip),%rax        # 20128 <g_159>
   13b14:	48 89 85 80 f7 ff ff 	mov    %rax,-0x880(%rbp)
   13b1b:	48 c7 85 88 f7 ff ff 	movq   $0x0,-0x878(%rbp)
   13b22:	00 00 00 00 
   13b26:	48 8d 85 50 d0 ff ff 	lea    -0x2fb0(%rbp),%rax
   13b2d:	48 89 85 90 f7 ff ff 	mov    %rax,-0x870(%rbp)
   13b34:	48 8d 85 50 d0 ff ff 	lea    -0x2fb0(%rbp),%rax
   13b3b:	48 89 85 98 f7 ff ff 	mov    %rax,-0x868(%rbp)
   13b42:	48 8d 85 50 d0 ff ff 	lea    -0x2fb0(%rbp),%rax
   13b49:	48 89 85 a0 f7 ff ff 	mov    %rax,-0x860(%rbp)
   13b50:	48 8d 85 50 d0 ff ff 	lea    -0x2fb0(%rbp),%rax
   13b57:	48 89 85 a8 f7 ff ff 	mov    %rax,-0x858(%rbp)
   13b5e:	48 8d 85 50 d0 ff ff 	lea    -0x2fb0(%rbp),%rax
   13b65:	48 89 85 b0 f7 ff ff 	mov    %rax,-0x850(%rbp)
   13b6c:	48 8d 05 b5 c5 00 00 	lea    0xc5b5(%rip),%rax        # 20128 <g_159>
   13b73:	48 89 85 b8 f7 ff ff 	mov    %rax,-0x848(%rbp)
   13b7a:	48 8d 85 50 d0 ff ff 	lea    -0x2fb0(%rbp),%rax
   13b81:	48 89 85 c0 f7 ff ff 	mov    %rax,-0x840(%rbp)
   13b88:	48 8d 05 99 c5 00 00 	lea    0xc599(%rip),%rax        # 20128 <g_159>
   13b8f:	48 89 85 c8 f7 ff ff 	mov    %rax,-0x838(%rbp)
   13b96:	48 8d 05 8b c5 00 00 	lea    0xc58b(%rip),%rax        # 20128 <g_159>
   13b9d:	48 89 85 d0 f7 ff ff 	mov    %rax,-0x830(%rbp)
   13ba4:	48 8d 85 50 d0 ff ff 	lea    -0x2fb0(%rbp),%rax
   13bab:	48 89 85 d8 f7 ff ff 	mov    %rax,-0x828(%rbp)
   13bb2:	48 8d 85 50 d0 ff ff 	lea    -0x2fb0(%rbp),%rax
   13bb9:	48 89 85 e0 f7 ff ff 	mov    %rax,-0x820(%rbp)
   13bc0:	48 8d 05 61 c5 00 00 	lea    0xc561(%rip),%rax        # 20128 <g_159>
   13bc7:	48 89 85 e8 f7 ff ff 	mov    %rax,-0x818(%rbp)
   13bce:	48 8d 05 53 c5 00 00 	lea    0xc553(%rip),%rax        # 20128 <g_159>
   13bd5:	48 89 85 f0 f7 ff ff 	mov    %rax,-0x810(%rbp)
   13bdc:	48 8d 05 45 c5 00 00 	lea    0xc545(%rip),%rax        # 20128 <g_159>
   13be3:	48 89 85 f8 f7 ff ff 	mov    %rax,-0x808(%rbp)
   13bea:	48 8d 85 50 d0 ff ff 	lea    -0x2fb0(%rbp),%rax
   13bf1:	48 89 85 00 f8 ff ff 	mov    %rax,-0x800(%rbp)
   13bf8:	48 8d 85 50 d0 ff ff 	lea    -0x2fb0(%rbp),%rax
   13bff:	48 89 85 08 f8 ff ff 	mov    %rax,-0x7f8(%rbp)
   13c06:	48 8d 05 1b c5 00 00 	lea    0xc51b(%rip),%rax        # 20128 <g_159>
   13c0d:	48 89 85 10 f8 ff ff 	mov    %rax,-0x7f0(%rbp)
   13c14:	48 8d 85 50 d0 ff ff 	lea    -0x2fb0(%rbp),%rax
   13c1b:	48 89 85 18 f8 ff ff 	mov    %rax,-0x7e8(%rbp)
   13c22:	48 8d 85 50 d0 ff ff 	lea    -0x2fb0(%rbp),%rax
   13c29:	48 89 85 20 f8 ff ff 	mov    %rax,-0x7e0(%rbp)
   13c30:	48 c7 85 28 f8 ff ff 	movq   $0x0,-0x7d8(%rbp)
   13c37:	00 00 00 00 
   13c3b:	48 8d 05 e6 c4 00 00 	lea    0xc4e6(%rip),%rax        # 20128 <g_159>
   13c42:	48 89 85 30 f8 ff ff 	mov    %rax,-0x7d0(%rbp)
   13c49:	48 8d 05 d8 c4 00 00 	lea    0xc4d8(%rip),%rax        # 20128 <g_159>
   13c50:	48 89 85 38 f8 ff ff 	mov    %rax,-0x7c8(%rbp)
   13c57:	48 8d 85 50 d0 ff ff 	lea    -0x2fb0(%rbp),%rax
   13c5e:	48 89 85 40 f8 ff ff 	mov    %rax,-0x7c0(%rbp)
   13c65:	48 8d 05 bc c4 00 00 	lea    0xc4bc(%rip),%rax        # 20128 <g_159>
   13c6c:	48 89 85 48 f8 ff ff 	mov    %rax,-0x7b8(%rbp)
   13c73:	48 8d 05 ae c4 00 00 	lea    0xc4ae(%rip),%rax        # 20128 <g_159>
   13c7a:	48 89 85 50 f8 ff ff 	mov    %rax,-0x7b0(%rbp)
   13c81:	48 8d 05 a0 c4 00 00 	lea    0xc4a0(%rip),%rax        # 20128 <g_159>
   13c88:	48 89 85 58 f8 ff ff 	mov    %rax,-0x7a8(%rbp)
   13c8f:	48 8d 05 92 c4 00 00 	lea    0xc492(%rip),%rax        # 20128 <g_159>
   13c96:	48 89 85 60 f8 ff ff 	mov    %rax,-0x7a0(%rbp)
   13c9d:	48 8d 05 84 c4 00 00 	lea    0xc484(%rip),%rax        # 20128 <g_159>
   13ca4:	48 89 85 68 f8 ff ff 	mov    %rax,-0x798(%rbp)
   13cab:	48 8d 05 76 c4 00 00 	lea    0xc476(%rip),%rax        # 20128 <g_159>
   13cb2:	48 89 85 70 f8 ff ff 	mov    %rax,-0x790(%rbp)
   13cb9:	48 8d 05 68 c4 00 00 	lea    0xc468(%rip),%rax        # 20128 <g_159>
   13cc0:	48 89 85 78 f8 ff ff 	mov    %rax,-0x788(%rbp)
   13cc7:	48 c7 85 80 f8 ff ff 	movq   $0x0,-0x780(%rbp)
   13cce:	00 00 00 00 
   13cd2:	48 8d 85 50 d0 ff ff 	lea    -0x2fb0(%rbp),%rax
   13cd9:	48 89 85 88 f8 ff ff 	mov    %rax,-0x778(%rbp)
   13ce0:	48 c7 85 90 f8 ff ff 	movq   $0x0,-0x770(%rbp)
   13ce7:	00 00 00 00 
   13ceb:	48 8d 05 36 c4 00 00 	lea    0xc436(%rip),%rax        # 20128 <g_159>
   13cf2:	48 89 85 98 f8 ff ff 	mov    %rax,-0x768(%rbp)
   13cf9:	48 8d 85 50 d0 ff ff 	lea    -0x2fb0(%rbp),%rax
   13d00:	48 89 85 a0 f8 ff ff 	mov    %rax,-0x760(%rbp)
   13d07:	48 8d 05 1a c4 00 00 	lea    0xc41a(%rip),%rax        # 20128 <g_159>
   13d0e:	48 89 85 a8 f8 ff ff 	mov    %rax,-0x758(%rbp)
   13d15:	48 8d 05 0c c4 00 00 	lea    0xc40c(%rip),%rax        # 20128 <g_159>
   13d1c:	48 89 85 b0 f8 ff ff 	mov    %rax,-0x750(%rbp)
   13d23:	48 8d 05 fe c3 00 00 	lea    0xc3fe(%rip),%rax        # 20128 <g_159>
   13d2a:	48 89 85 b8 f8 ff ff 	mov    %rax,-0x748(%rbp)
   13d31:	48 c7 85 c0 f8 ff ff 	movq   $0x0,-0x740(%rbp)
   13d38:	00 00 00 00 
   13d3c:	48 c7 85 c8 f8 ff ff 	movq   $0x0,-0x738(%rbp)
   13d43:	00 00 00 00 
   13d47:	48 8d 05 da c3 00 00 	lea    0xc3da(%rip),%rax        # 20128 <g_159>
   13d4e:	48 89 85 d0 f8 ff ff 	mov    %rax,-0x730(%rbp)
   13d55:	48 c7 85 d8 f8 ff ff 	movq   $0x0,-0x728(%rbp)
   13d5c:	00 00 00 00 
   13d60:	48 8d 05 c1 c3 00 00 	lea    0xc3c1(%rip),%rax        # 20128 <g_159>
   13d67:	48 89 85 e0 f8 ff ff 	mov    %rax,-0x720(%rbp)
   13d6e:	48 8d 85 50 d0 ff ff 	lea    -0x2fb0(%rbp),%rax
   13d75:	48 89 85 e8 f8 ff ff 	mov    %rax,-0x718(%rbp)
   13d7c:	48 8d 05 a5 c3 00 00 	lea    0xc3a5(%rip),%rax        # 20128 <g_159>
   13d83:	48 89 85 f0 f8 ff ff 	mov    %rax,-0x710(%rbp)
   13d8a:	48 8d 05 97 c3 00 00 	lea    0xc397(%rip),%rax        # 20128 <g_159>
   13d91:	48 89 85 f8 f8 ff ff 	mov    %rax,-0x708(%rbp)
   13d98:	48 c7 85 00 f9 ff ff 	movq   $0x0,-0x700(%rbp)
   13d9f:	00 00 00 00 
   13da3:	48 8d 85 50 d0 ff ff 	lea    -0x2fb0(%rbp),%rax
   13daa:	48 89 85 08 f9 ff ff 	mov    %rax,-0x6f8(%rbp)
   13db1:	48 c7 85 10 f9 ff ff 	movq   $0x0,-0x6f0(%rbp)
   13db8:	00 00 00 00 
   13dbc:	48 8d 85 50 d0 ff ff 	lea    -0x2fb0(%rbp),%rax
   13dc3:	48 89 85 18 f9 ff ff 	mov    %rax,-0x6e8(%rbp)
   13dca:	48 8d 85 50 d0 ff ff 	lea    -0x2fb0(%rbp),%rax
   13dd1:	48 89 85 20 f9 ff ff 	mov    %rax,-0x6e0(%rbp)
   13dd8:	48 8d 05 49 c3 00 00 	lea    0xc349(%rip),%rax        # 20128 <g_159>
   13ddf:	48 89 85 28 f9 ff ff 	mov    %rax,-0x6d8(%rbp)
   13de6:	48 8d 85 50 d0 ff ff 	lea    -0x2fb0(%rbp),%rax
   13ded:	48 89 85 30 f9 ff ff 	mov    %rax,-0x6d0(%rbp)
   13df4:	48 8d 05 2d c3 00 00 	lea    0xc32d(%rip),%rax        # 20128 <g_159>
   13dfb:	48 89 85 38 f9 ff ff 	mov    %rax,-0x6c8(%rbp)
   13e02:	48 8d 05 1f c3 00 00 	lea    0xc31f(%rip),%rax        # 20128 <g_159>
   13e09:	48 89 85 40 f9 ff ff 	mov    %rax,-0x6c0(%rbp)
   13e10:	48 c7 85 48 f9 ff ff 	movq   $0x0,-0x6b8(%rbp)
   13e17:	00 00 00 00 
   13e1b:	48 c7 85 50 f9 ff ff 	movq   $0x0,-0x6b0(%rbp)
   13e22:	00 00 00 00 
   13e26:	48 8d 05 fb c2 00 00 	lea    0xc2fb(%rip),%rax        # 20128 <g_159>
   13e2d:	48 89 85 58 f9 ff ff 	mov    %rax,-0x6a8(%rbp)
   13e34:	48 8d 85 50 d0 ff ff 	lea    -0x2fb0(%rbp),%rax
   13e3b:	48 89 85 60 f9 ff ff 	mov    %rax,-0x6a0(%rbp)
   13e42:	48 8d 05 df c2 00 00 	lea    0xc2df(%rip),%rax        # 20128 <g_159>
   13e49:	48 89 85 68 f9 ff ff 	mov    %rax,-0x698(%rbp)
   13e50:	48 c7 85 70 f9 ff ff 	movq   $0x0,-0x690(%rbp)
   13e57:	00 00 00 00 
   13e5b:	48 8d 85 50 d0 ff ff 	lea    -0x2fb0(%rbp),%rax
   13e62:	48 89 85 78 f9 ff ff 	mov    %rax,-0x688(%rbp)
   13e69:	48 8d 05 b8 c2 00 00 	lea    0xc2b8(%rip),%rax        # 20128 <g_159>
   13e70:	48 89 85 80 f9 ff ff 	mov    %rax,-0x680(%rbp)
   13e77:	48 8d 85 50 d0 ff ff 	lea    -0x2fb0(%rbp),%rax
   13e7e:	48 89 85 88 f9 ff ff 	mov    %rax,-0x678(%rbp)
   13e85:	48 8d 05 9c c2 00 00 	lea    0xc29c(%rip),%rax        # 20128 <g_159>
   13e8c:	48 89 85 90 f9 ff ff 	mov    %rax,-0x670(%rbp)
   13e93:	48 8d 85 50 d0 ff ff 	lea    -0x2fb0(%rbp),%rax
   13e9a:	48 89 85 98 f9 ff ff 	mov    %rax,-0x668(%rbp)
   13ea1:	48 8d 05 80 c2 00 00 	lea    0xc280(%rip),%rax        # 20128 <g_159>
   13ea8:	48 89 85 a0 f9 ff ff 	mov    %rax,-0x660(%rbp)
   13eaf:	48 8d 05 72 c2 00 00 	lea    0xc272(%rip),%rax        # 20128 <g_159>
   13eb6:	48 89 85 a8 f9 ff ff 	mov    %rax,-0x658(%rbp)
   13ebd:	48 8d 05 64 c2 00 00 	lea    0xc264(%rip),%rax        # 20128 <g_159>
   13ec4:	48 89 85 b0 f9 ff ff 	mov    %rax,-0x650(%rbp)
   13ecb:	48 8d 85 50 d0 ff ff 	lea    -0x2fb0(%rbp),%rax
   13ed2:	48 89 85 b8 f9 ff ff 	mov    %rax,-0x648(%rbp)
   13ed9:	48 8d 05 48 c2 00 00 	lea    0xc248(%rip),%rax        # 20128 <g_159>
   13ee0:	48 89 85 c0 f9 ff ff 	mov    %rax,-0x640(%rbp)
   13ee7:	48 8d 85 50 d0 ff ff 	lea    -0x2fb0(%rbp),%rax
   13eee:	48 89 85 c8 f9 ff ff 	mov    %rax,-0x638(%rbp)
   13ef5:	48 8d 85 50 d0 ff ff 	lea    -0x2fb0(%rbp),%rax
   13efc:	48 89 85 d0 f9 ff ff 	mov    %rax,-0x630(%rbp)
   13f03:	48 c7 85 d8 f9 ff ff 	movq   $0x0,-0x628(%rbp)
   13f0a:	00 00 00 00 
   13f0e:	48 8d 85 50 d0 ff ff 	lea    -0x2fb0(%rbp),%rax
   13f15:	48 89 85 e0 f9 ff ff 	mov    %rax,-0x620(%rbp)
   13f1c:	48 8d 05 05 c2 00 00 	lea    0xc205(%rip),%rax        # 20128 <g_159>
   13f23:	48 89 85 e8 f9 ff ff 	mov    %rax,-0x618(%rbp)
   13f2a:	48 8d 85 50 d0 ff ff 	lea    -0x2fb0(%rbp),%rax
   13f31:	48 89 85 f0 f9 ff ff 	mov    %rax,-0x610(%rbp)
   13f38:	48 8d 05 e9 c1 00 00 	lea    0xc1e9(%rip),%rax        # 20128 <g_159>
   13f3f:	48 89 85 f8 f9 ff ff 	mov    %rax,-0x608(%rbp)
   13f46:	48 8d 85 50 d0 ff ff 	lea    -0x2fb0(%rbp),%rax
   13f4d:	48 89 85 00 fa ff ff 	mov    %rax,-0x600(%rbp)
   13f54:	48 8d 85 50 d0 ff ff 	lea    -0x2fb0(%rbp),%rax
   13f5b:	48 89 85 08 fa ff ff 	mov    %rax,-0x5f8(%rbp)
   13f62:	48 8d 85 50 d0 ff ff 	lea    -0x2fb0(%rbp),%rax
   13f69:	48 89 85 10 fa ff ff 	mov    %rax,-0x5f0(%rbp)
   13f70:	48 8d 85 50 d0 ff ff 	lea    -0x2fb0(%rbp),%rax
   13f77:	48 89 85 18 fa ff ff 	mov    %rax,-0x5e8(%rbp)
   13f7e:	48 8d 85 50 d0 ff ff 	lea    -0x2fb0(%rbp),%rax
   13f85:	48 89 85 20 fa ff ff 	mov    %rax,-0x5e0(%rbp)
   13f8c:	48 8d 85 50 d0 ff ff 	lea    -0x2fb0(%rbp),%rax
   13f93:	48 89 85 28 fa ff ff 	mov    %rax,-0x5d8(%rbp)
   13f9a:	48 8d 85 50 d0 ff ff 	lea    -0x2fb0(%rbp),%rax
   13fa1:	48 89 85 30 fa ff ff 	mov    %rax,-0x5d0(%rbp)
   13fa8:	48 8d 85 50 d0 ff ff 	lea    -0x2fb0(%rbp),%rax
   13faf:	48 89 85 38 fa ff ff 	mov    %rax,-0x5c8(%rbp)
   13fb6:	48 c7 85 40 fa ff ff 	movq   $0x0,-0x5c0(%rbp)
   13fbd:	00 00 00 00 
   13fc1:	48 8d 85 50 d0 ff ff 	lea    -0x2fb0(%rbp),%rax
   13fc8:	48 89 85 48 fa ff ff 	mov    %rax,-0x5b8(%rbp)
   13fcf:	48 8d 05 52 c1 00 00 	lea    0xc152(%rip),%rax        # 20128 <g_159>
   13fd6:	48 89 85 50 fa ff ff 	mov    %rax,-0x5b0(%rbp)
   13fdd:	48 8d 85 50 d0 ff ff 	lea    -0x2fb0(%rbp),%rax
   13fe4:	48 89 85 58 fa ff ff 	mov    %rax,-0x5a8(%rbp)
   13feb:	48 8d 85 50 d0 ff ff 	lea    -0x2fb0(%rbp),%rax
   13ff2:	48 89 85 60 fa ff ff 	mov    %rax,-0x5a0(%rbp)
   13ff9:	48 8d 05 28 c1 00 00 	lea    0xc128(%rip),%rax        # 20128 <g_159>
   14000:	48 89 85 68 fa ff ff 	mov    %rax,-0x598(%rbp)
   14007:	48 8d 05 1a c1 00 00 	lea    0xc11a(%rip),%rax        # 20128 <g_159>
   1400e:	48 89 85 70 fa ff ff 	mov    %rax,-0x590(%rbp)
   14015:	48 c7 85 78 fa ff ff 	movq   $0x0,-0x588(%rbp)
   1401c:	00 00 00 00 
   14020:	48 8d 85 50 d0 ff ff 	lea    -0x2fb0(%rbp),%rax
   14027:	48 89 85 80 fa ff ff 	mov    %rax,-0x580(%rbp)
   1402e:	48 8d 05 f3 c0 00 00 	lea    0xc0f3(%rip),%rax        # 20128 <g_159>
   14035:	48 89 85 88 fa ff ff 	mov    %rax,-0x578(%rbp)
   1403c:	48 8d 85 50 d0 ff ff 	lea    -0x2fb0(%rbp),%rax
   14043:	48 89 85 90 fa ff ff 	mov    %rax,-0x570(%rbp)
   1404a:	48 8d 05 d7 c0 00 00 	lea    0xc0d7(%rip),%rax        # 20128 <g_159>
   14051:	48 89 85 98 fa ff ff 	mov    %rax,-0x568(%rbp)
   14058:	48 c7 85 a0 fa ff ff 	movq   $0x0,-0x560(%rbp)
   1405f:	00 00 00 00 
   14063:	48 c7 85 a8 fa ff ff 	movq   $0x0,-0x558(%rbp)
   1406a:	00 00 00 00 
   1406e:	48 8d 05 b3 c0 00 00 	lea    0xc0b3(%rip),%rax        # 20128 <g_159>
   14075:	48 89 85 b0 fa ff ff 	mov    %rax,-0x550(%rbp)
   1407c:	48 8d 05 a5 c0 00 00 	lea    0xc0a5(%rip),%rax        # 20128 <g_159>
   14083:	48 89 85 b8 fa ff ff 	mov    %rax,-0x548(%rbp)
   1408a:	48 8d 85 50 d0 ff ff 	lea    -0x2fb0(%rbp),%rax
   14091:	48 89 85 c0 fa ff ff 	mov    %rax,-0x540(%rbp)
   14098:	48 8d 05 89 c0 00 00 	lea    0xc089(%rip),%rax        # 20128 <g_159>
   1409f:	48 89 85 c8 fa ff ff 	mov    %rax,-0x538(%rbp)
   140a6:	48 c7 85 d0 fa ff ff 	movq   $0x0,-0x530(%rbp)
   140ad:	00 00 00 00 
   140b1:	48 c7 85 d8 fa ff ff 	movq   $0x0,-0x528(%rbp)
   140b8:	00 00 00 00 
   140bc:	48 8d 05 65 c0 00 00 	lea    0xc065(%rip),%rax        # 20128 <g_159>
   140c3:	48 89 85 e0 fa ff ff 	mov    %rax,-0x520(%rbp)
   140ca:	48 c7 85 e8 fa ff ff 	movq   $0x0,-0x518(%rbp)
   140d1:	00 00 00 00 
   140d5:	48 8d 85 50 d0 ff ff 	lea    -0x2fb0(%rbp),%rax
   140dc:	48 89 85 f0 fa ff ff 	mov    %rax,-0x510(%rbp)
   140e3:	48 8d 05 3e c0 00 00 	lea    0xc03e(%rip),%rax        # 20128 <g_159>
   140ea:	48 89 85 f8 fa ff ff 	mov    %rax,-0x508(%rbp)
   140f1:	48 8d 85 50 d0 ff ff 	lea    -0x2fb0(%rbp),%rax
   140f8:	48 89 85 00 fb ff ff 	mov    %rax,-0x500(%rbp)
   140ff:	48 8d 85 50 d0 ff ff 	lea    -0x2fb0(%rbp),%rax
   14106:	48 89 85 08 fb ff ff 	mov    %rax,-0x4f8(%rbp)
   1410d:	48 8d 85 50 d0 ff ff 	lea    -0x2fb0(%rbp),%rax
   14114:	48 89 85 10 fb ff ff 	mov    %rax,-0x4f0(%rbp)
   1411b:	48 8d 05 06 c0 00 00 	lea    0xc006(%rip),%rax        # 20128 <g_159>
   14122:	48 89 85 18 fb ff ff 	mov    %rax,-0x4e8(%rbp)
   14129:	48 8d 05 f8 bf 00 00 	lea    0xbff8(%rip),%rax        # 20128 <g_159>
   14130:	48 89 85 20 fb ff ff 	mov    %rax,-0x4e0(%rbp)
   14137:	48 8d 85 50 d0 ff ff 	lea    -0x2fb0(%rbp),%rax
   1413e:	48 89 85 28 fb ff ff 	mov    %rax,-0x4d8(%rbp)
   14145:	48 8d 85 50 d0 ff ff 	lea    -0x2fb0(%rbp),%rax
   1414c:	48 89 85 30 fb ff ff 	mov    %rax,-0x4d0(%rbp)
   14153:	48 8d 05 ce bf 00 00 	lea    0xbfce(%rip),%rax        # 20128 <g_159>
   1415a:	48 89 85 38 fb ff ff 	mov    %rax,-0x4c8(%rbp)
   14161:	48 8d 85 50 d0 ff ff 	lea    -0x2fb0(%rbp),%rax
   14168:	48 89 85 40 fb ff ff 	mov    %rax,-0x4c0(%rbp)
   1416f:	48 8d 85 50 d0 ff ff 	lea    -0x2fb0(%rbp),%rax
   14176:	48 89 85 48 fb ff ff 	mov    %rax,-0x4b8(%rbp)
   1417d:	48 8d 05 a4 bf 00 00 	lea    0xbfa4(%rip),%rax        # 20128 <g_159>
   14184:	48 89 85 50 fb ff ff 	mov    %rax,-0x4b0(%rbp)
   1418b:	48 c7 85 58 fb ff ff 	movq   $0x0,-0x4a8(%rbp)
   14192:	00 00 00 00 
   14196:	48 8d 85 50 d0 ff ff 	lea    -0x2fb0(%rbp),%rax
   1419d:	48 89 85 60 fb ff ff 	mov    %rax,-0x4a0(%rbp)
   141a4:	48 8d 05 7d bf 00 00 	lea    0xbf7d(%rip),%rax        # 20128 <g_159>
   141ab:	48 89 85 68 fb ff ff 	mov    %rax,-0x498(%rbp)
   141b2:	48 8d 05 6f bf 00 00 	lea    0xbf6f(%rip),%rax        # 20128 <g_159>
   141b9:	48 89 85 70 fb ff ff 	mov    %rax,-0x490(%rbp)
   141c0:	48 8d 05 61 bf 00 00 	lea    0xbf61(%rip),%rax        # 20128 <g_159>
   141c7:	48 89 85 78 fb ff ff 	mov    %rax,-0x488(%rbp)
   141ce:	48 c7 85 80 fb ff ff 	movq   $0x0,-0x480(%rbp)
   141d5:	00 00 00 00 
   141d9:	48 8d 85 50 d0 ff ff 	lea    -0x2fb0(%rbp),%rax
   141e0:	48 89 85 88 fb ff ff 	mov    %rax,-0x478(%rbp)
   141e7:	48 c7 85 90 fb ff ff 	movq   $0x0,-0x470(%rbp)
   141ee:	00 00 00 00 
   141f2:	48 c7 85 98 fb ff ff 	movq   $0x0,-0x468(%rbp)
   141f9:	00 00 00 00 
   141fd:	48 8d 85 50 d0 ff ff 	lea    -0x2fb0(%rbp),%rax
   14204:	48 89 85 a0 fb ff ff 	mov    %rax,-0x460(%rbp)
   1420b:	48 8d 85 50 d0 ff ff 	lea    -0x2fb0(%rbp),%rax
   14212:	48 89 85 a8 fb ff ff 	mov    %rax,-0x458(%rbp)
   14219:	48 c7 85 b0 fb ff ff 	movq   $0x0,-0x450(%rbp)
   14220:	00 00 00 00 
   14224:	48 8d 05 fd be 00 00 	lea    0xbefd(%rip),%rax        # 20128 <g_159>
   1422b:	48 89 85 b8 fb ff ff 	mov    %rax,-0x448(%rbp)
   14232:	c7 85 ac cf ff ff e3 	movl   $0x620092e3,-0x3054(%rbp)
   14239:	92 00 62 
   1423c:	48 b8 36 6c 8f 8a 33 	movabs $0xee4ba338a8f6c36,%rax
   14243:	ba e4 0e 
   14246:	48 89 85 e8 d1 ff ff 	mov    %rax,-0x2e18(%rbp)
   1424d:	48 8d 85 02 cf ff ff 	lea    -0x30fe(%rbp),%rax
   14254:	48 89 85 f0 d1 ff ff 	mov    %rax,-0x2e10(%rbp)
   1425b:	48 8d 05 9e a3 00 00 	lea    0xa39e(%rip),%rax        # 1e600 <g_261>
   14262:	48 89 85 f8 d1 ff ff 	mov    %rax,-0x2e08(%rbp)
   14269:	48 c7 85 00 d2 ff ff 	movq   $0xfffffffffffffffc,-0x2e00(%rbp)
   14270:	fc ff ff ff 
   14274:	66 c7 05 f3 7e 00 00 	movw   $0x0,0x7ef3(%rip)        # 1c170 <g_207>
   1427b:	00 00 
   1427d:	e9 e6 02 00 00       	jmpq   14568 <func_57+0x5244>
   14282:	48 8d 05 f7 7e 00 00 	lea    0x7ef7(%rip),%rax        # 1c180 <g_238>
   14289:	48 89 85 08 d2 ff ff 	mov    %rax,-0x2df8(%rbp)
   14290:	c7 85 b0 cf ff ff 83 	movl   $0x4f4d9183,-0x3050(%rbp)
   14297:	91 4d 4f 
   1429a:	c7 85 b4 cf ff ff 73 	movl   $0xe051df73,-0x304c(%rbp)
   142a1:	df 51 e0 
   142a4:	c7 85 b8 cf ff ff ff 	movl   $0xffffffff,-0x3048(%rbp)
   142ab:	ff ff ff 
   142ae:	c7 85 bc cf ff ff fe 	movl   $0xfffffffe,-0x3044(%rbp)
   142b5:	ff ff ff 
   142b8:	c7 85 c0 cf ff ff 09 	movl   $0x9,-0x3040(%rbp)
   142bf:	00 00 00 
   142c2:	c7 85 c4 cf ff ff 00 	movl   $0x0,-0x303c(%rbp)
   142c9:	00 00 00 
   142cc:	c7 85 c8 cf ff ff 00 	movl   $0x0,-0x3038(%rbp)
   142d3:	00 00 00 
   142d6:	c7 85 cc cf ff ff 00 	movl   $0x0,-0x3034(%rbp)
   142dd:	00 00 00 
   142e0:	c7 85 d0 cf ff ff 00 	movl   $0x0,-0x3030(%rbp)
   142e7:	00 00 00 
   142ea:	c7 85 d4 cf ff ff f8 	movl   $0xfffffff8,-0x302c(%rbp)
   142f1:	ff ff ff 
   142f4:	0f b7 85 f0 ce ff ff 	movzwl -0x3110(%rbp),%eax
   142fb:	66 85 c0             	test   %ax,%ax
   142fe:	0f 85 76 02 00 00    	jne    1457a <func_57+0x5256>
   14304:	0f b7 85 f0 ce ff ff 	movzwl -0x3110(%rbp),%eax
   1430b:	66 85 c0             	test   %ax,%ax
   1430e:	0f 85 42 02 00 00    	jne    14556 <func_57+0x5232>
   14314:	66 c7 05 7f 7d 00 00 	movw   $0x0,0x7d7f(%rip)        # 1c09c <g_87>
   1431b:	00 00 
   1431d:	e9 14 02 00 00       	jmpq   14536 <func_57+0x5212>
   14322:	66 c7 85 16 cf ff ff 	movw   $0xca3d,-0x30ea(%rbp)
   14329:	3d ca 
   1432b:	c7 85 d8 cf ff ff 00 	movl   $0x0,-0x3028(%rbp)
   14332:	00 00 00 
   14335:	48 8d 85 d0 e2 ff ff 	lea    -0x1d30(%rbp),%rax
   1433c:	48 8d 15 3d 3c 00 00 	lea    0x3c3d(%rip),%rdx        # 17f80 <g_2409+0xf10>
   14343:	b9 7e 00 00 00       	mov    $0x7e,%ecx
   14348:	48 89 c7             	mov    %rax,%rdi
   1434b:	48 89 d6             	mov    %rdx,%rsi
   1434e:	f3 48 a5             	rep movsq %ds:(%rsi),%es:(%rdi)
   14351:	48 8d 85 40 d0 ff ff 	lea    -0x2fc0(%rbp),%rax
   14358:	48 89 85 10 d2 ff ff 	mov    %rax,-0x2df0(%rbp)
   1435f:	8b 9d 30 cf ff ff    	mov    -0x30d0(%rbp),%ebx
   14365:	48 8b 85 08 d2 ff ff 	mov    -0x2df8(%rbp),%rax
   1436c:	8b 00                	mov    (%rax),%eax
   1436e:	be 93 ee c1 d1       	mov    $0xd1c1ee93,%esi
   14373:	89 c7                	mov    %eax,%edi
   14375:	e8 52 53 ff ff       	callq  96cc <safe_mod_func_int32_t_s_s>
   1437a:	48 63 d0             	movslq %eax,%rdx
   1437d:	0f b7 85 f0 ce ff ff 	movzwl -0x3110(%rbp),%eax
   14384:	48 0f bf c0          	movswq %ax,%rax
   14388:	48 89 d6             	mov    %rdx,%rsi
   1438b:	48 89 c7             	mov    %rax,%rdi
   1438e:	e8 ed 5c ff ff       	callq  a080 <safe_mod_func_uint64_t_u_u>
   14393:	49 89 c4             	mov    %rax,%r12
   14396:	0f b7 85 f0 ce ff ff 	movzwl -0x3110(%rbp),%eax
   1439d:	89 c2                	mov    %eax,%edx
   1439f:	0f b7 85 16 cf ff ff 	movzwl -0x30ea(%rbp),%eax
   143a6:	09 c2                	or     %eax,%edx
   143a8:	0f b6 85 f4 ce ff ff 	movzbl -0x310c(%rbp),%eax
   143af:	09 c2                	or     %eax,%edx
   143b1:	0f b7 85 f0 ce ff ff 	movzwl -0x3110(%rbp),%eax
   143b8:	09 d0                	or     %edx,%eax
   143ba:	0f b6 c0             	movzbl %al,%eax
   143bd:	be 04 00 00 00       	mov    $0x4,%esi
   143c2:	89 c7                	mov    %eax,%edi
   143c4:	e8 83 58 ff ff       	callq  9c4c <safe_lshift_func_uint8_t_u_u>
   143c9:	0f b6 c0             	movzbl %al,%eax
   143cc:	33 85 a8 cf ff ff    	xor    -0x3058(%rbp),%eax
   143d2:	48 98                	cltq   
   143d4:	49 39 c4             	cmp    %rax,%r12
   143d7:	75 0b                	jne    143e4 <func_57+0x50c0>
   143d9:	0f b6 05 9d 7d 00 00 	movzbl 0x7d9d(%rip),%eax        # 1c17d <g_233+0x5>
   143e0:	84 c0                	test   %al,%al
   143e2:	74 07                	je     143eb <func_57+0x50c7>
   143e4:	ba 01 00 00 00       	mov    $0x1,%edx
   143e9:	eb 05                	jmp    143f0 <func_57+0x50cc>
   143eb:	ba 00 00 00 00       	mov    $0x0,%edx
   143f0:	0f b7 85 16 cf ff ff 	movzwl -0x30ea(%rbp),%eax
   143f7:	39 c2                	cmp    %eax,%edx
   143f9:	0f 9e c0             	setle  %al
   143fc:	0f b6 c0             	movzbl %al,%eax
   143ff:	89 de                	mov    %ebx,%esi
   14401:	89 c7                	mov    %eax,%edi
   14403:	e8 b0 5a ff ff       	callq  9eb8 <safe_add_func_uint32_t_u_u>
   14408:	89 c2                	mov    %eax,%edx
   1440a:	48 83 bd 08 d2 ff ff 	cmpq   $0x0,-0x2df8(%rbp)
   14411:	00 
   14412:	0f 95 c0             	setne  %al
   14415:	0f b6 c0             	movzbl %al,%eax
   14418:	89 d6                	mov    %edx,%esi
   1441a:	89 c7                	mov    %eax,%edi
   1441c:	e8 ab 52 ff ff       	callq  96cc <safe_mod_func_int32_t_s_s>
   14421:	0f b6 95 f4 ce ff ff 	movzbl -0x310c(%rbp),%edx
   14428:	31 d0                	xor    %edx,%eax
   1442a:	89 c2                	mov    %eax,%edx
   1442c:	0f b7 05 27 7d 00 00 	movzwl 0x7d27(%rip),%eax        # 1c15a <g_163+0xa>
   14433:	66 c1 e8 07          	shr    $0x7,%ax
   14437:	83 e0 7f             	and    $0x7f,%eax
   1443a:	0f b6 c0             	movzbl %al,%eax
   1443d:	89 d6                	mov    %edx,%esi
   1443f:	89 c7                	mov    %eax,%edi
   14441:	e8 df 5a ff ff       	callq  9f25 <safe_div_func_uint32_t_u_u>
   14446:	0f b7 05 23 7d 00 00 	movzwl 0x7d23(%rip),%eax        # 1c170 <g_207>
   1444d:	0f b7 c0             	movzwl %ax,%eax
   14450:	83 c0 03             	add    $0x3,%eax
   14453:	48 63 d0             	movslq %eax,%rdx
   14456:	48 89 d0             	mov    %rdx,%rax
   14459:	48 01 c0             	add    %rax,%rax
   1445c:	48 01 d0             	add    %rdx,%rax
   1445f:	48 01 c0             	add    %rax,%rax
   14462:	48 8b 95 c0 d0 ff ff 	mov    -0x2f40(%rbp),%rdx
   14469:	48 01 d0             	add    %rdx,%rax
   1446c:	48 8d 14 c5 00 00 00 	lea    0x0(,%rax,8),%rdx
   14473:	00 
   14474:	48 8d 05 25 9f 00 00 	lea    0x9f25(%rip),%rax        # 1e3a0 <g_98>
   1447b:	48 8d 0d fe 7c 00 00 	lea    0x7cfe(%rip),%rcx        # 1c180 <g_238>
   14482:	48 89 0c 02          	mov    %rcx,(%rdx,%rax,1)
   14486:	48 8b 85 10 d2 ff ff 	mov    -0x2df0(%rbp),%rax
   1448d:	48 8d 95 1c cf ff ff 	lea    -0x30e4(%rbp),%rdx
   14494:	48 89 10             	mov    %rdx,(%rax)
   14497:	48 c7 85 58 d0 ff ff 	movq   $0x0,-0x2fa8(%rbp)
   1449e:	00 00 00 00 
   144a2:	eb 6a                	jmp    1450e <func_57+0x51ea>
   144a4:	c7 85 5c cf ff ff 00 	movl   $0x0,-0x30a4(%rbp)
   144ab:	00 00 00 
   144ae:	eb 1e                	jmp    144ce <func_57+0x51aa>
   144b0:	8b 85 5c cf ff ff    	mov    -0x30a4(%rbp),%eax
   144b6:	48 98                	cltq   
   144b8:	48 8d 15 81 a5 00 00 	lea    0xa581(%rip),%rdx        # 1ea40 <g_537>
   144bf:	48 89 94 c5 50 d5 ff 	mov    %rdx,-0x2ab0(%rbp,%rax,8)
   144c6:	ff 
   144c7:	83 85 5c cf ff ff 01 	addl   $0x1,-0x30a4(%rbp)
   144ce:	83 bd 5c cf ff ff 01 	cmpl   $0x1,-0x30a4(%rbp)
   144d5:	7e d9                	jle    144b0 <func_57+0x518c>
   144d7:	48 8b 05 6a a5 00 00 	mov    0xa56a(%rip),%rax        # 1ea48 <g_536>
   144de:	48 8b 95 c8 d0 ff ff 	mov    -0x2f38(%rbp),%rdx
   144e5:	48 89 10             	mov    %rdx,(%rax)
   144e8:	48 8b 85 10 d2 ff ff 	mov    -0x2df0(%rbp),%rax
   144ef:	48 8b 10             	mov    (%rax),%rdx
   144f2:	48 8b 85 10 d2 ff ff 	mov    -0x2df0(%rbp),%rax
   144f9:	48 89 10             	mov    %rdx,(%rax)
   144fc:	48 8b 85 58 d0 ff ff 	mov    -0x2fa8(%rbp),%rax
   14503:	48 83 c0 01          	add    $0x1,%rax
   14507:	48 89 85 58 d0 ff ff 	mov    %rax,-0x2fa8(%rbp)
   1450e:	48 8b 85 58 d0 ff ff 	mov    -0x2fa8(%rbp),%rax
   14515:	48 85 c0             	test   %rax,%rax
   14518:	7e 8a                	jle    144a4 <func_57+0x5180>
   1451a:	48 8b 85 08 d2 ff ff 	mov    -0x2df8(%rbp),%rax
   14521:	8b 00                	mov    (%rax),%eax
   14523:	85 c0                	test   %eax,%eax
   14525:	0f b7 05 70 7b 00 00 	movzwl 0x7b70(%rip),%eax        # 1c09c <g_87>
   1452c:	83 c0 01             	add    $0x1,%eax
   1452f:	66 89 05 66 7b 00 00 	mov    %ax,0x7b66(%rip)        # 1c09c <g_87>
   14536:	0f b7 05 5f 7b 00 00 	movzwl 0x7b5f(%rip),%eax        # 1c09c <g_87>
   1453d:	66 83 f8 05          	cmp    $0x5,%ax
   14541:	0f 86 db fd ff ff    	jbe    14322 <func_57+0x4ffe>
   14547:	48 8b 85 40 d0 ff ff 	mov    -0x2fc0(%rbp),%rax
   1454e:	8b 00                	mov    (%rax),%eax
   14550:	85 c0                	test   %eax,%eax
   14552:	75 29                	jne    1457d <func_57+0x5259>
   14554:	eb 01                	jmp    14557 <func_57+0x5233>
   14556:	90                   	nop
   14557:	0f b7 05 12 7c 00 00 	movzwl 0x7c12(%rip),%eax        # 1c170 <g_207>
   1455e:	83 c0 01             	add    $0x1,%eax
   14561:	66 89 05 08 7c 00 00 	mov    %ax,0x7c08(%rip)        # 1c170 <g_207>
   14568:	0f b7 05 01 7c 00 00 	movzwl 0x7c01(%rip),%eax        # 1c170 <g_207>
   1456f:	66 85 c0             	test   %ax,%ax
   14572:	0f 84 0a fd ff ff    	je     14282 <func_57+0x4f5e>
   14578:	eb 04                	jmp    1457e <func_57+0x525a>
   1457a:	90                   	nop
   1457b:	eb 01                	jmp    1457e <func_57+0x525a>
   1457d:	90                   	nop
   1457e:	c7 05 c0 7b 00 00 00 	movl   $0x0,0x7bc0(%rip)        # 1c148 <g_154>
   14585:	00 00 00 
   14588:	e9 a5 02 00 00       	jmpq   14832 <func_57+0x550e>
   1458d:	48 c7 85 18 d2 ff ff 	movq   $0x0,-0x2de8(%rbp)
   14594:	00 00 00 00 
   14598:	c7 85 dc cf ff ff 01 	movl   $0x1,-0x3024(%rbp)
   1459f:	00 00 00 
   145a2:	8b 85 80 d3 ff ff    	mov    -0x2c80(%rbp),%eax
   145a8:	25 00 00 f0 ff       	and    $0xfff00000,%eax
   145ad:	0d 06 03 00 00       	or     $0x306,%eax
   145b2:	89 85 80 d3 ff ff    	mov    %eax,-0x2c80(%rbp)
   145b8:	8b 85 84 d3 ff ff    	mov    -0x2c7c(%rbp),%eax
   145be:	25 00 00 00 fe       	and    $0xfe000000,%eax
   145c3:	0d 22 16 00 00       	or     $0x1622,%eax
   145c8:	89 85 84 d3 ff ff    	mov    %eax,-0x2c7c(%rbp)
   145ce:	8b 85 88 d3 ff ff    	mov    -0x2c78(%rbp),%eax
   145d4:	25 00 00 80 ff       	and    $0xff800000,%eax
   145d9:	0d 57 05 00 00       	or     $0x557,%eax
   145de:	89 85 88 d3 ff ff    	mov    %eax,-0x2c78(%rbp)
   145e4:	0f b7 85 8a d3 ff ff 	movzwl -0x2c76(%rbp),%eax
   145eb:	66 25 7f c0          	and    $0xc07f,%ax
   145ef:	66 0d 80 03          	or     $0x380,%ax
   145f3:	66 89 85 8a d3 ff ff 	mov    %ax,-0x2c76(%rbp)
   145fa:	8b 85 8c d3 ff ff    	mov    -0x2c74(%rbp),%eax
   14600:	25 00 00 00 fc       	and    $0xfc000000,%eax
   14605:	0d 83 0c 00 00       	or     $0xc83,%eax
   1460a:	89 85 8c d3 ff ff    	mov    %eax,-0x2c74(%rbp)
   14610:	0f b7 85 90 d3 ff ff 	movzwl -0x2c70(%rbp),%eax
   14617:	66 25 00 fe          	and    $0xfe00,%ax
   1461b:	66 0d fa 01          	or     $0x1fa,%ax
   1461f:	66 89 85 90 d3 ff ff 	mov    %ax,-0x2c70(%rbp)
   14626:	0f b6 85 91 d3 ff ff 	movzbl -0x2c6f(%rbp),%eax
   1462d:	83 e0 f1             	and    $0xfffffff1,%eax
   14630:	83 c8 02             	or     $0x2,%eax
   14633:	88 85 91 d3 ff ff    	mov    %al,-0x2c6f(%rbp)
   14639:	c7 85 e0 cf ff ff 01 	movl   $0x1,-0x3020(%rbp)
   14640:	00 00 00 
   14643:	48 8d 85 b0 d0 ff ff 	lea    -0x2f50(%rbp),%rax
   1464a:	48 89 85 20 d2 ff ff 	mov    %rax,-0x2de0(%rbp)
   14651:	48 8d 05 d0 ba 00 00 	lea    0xbad0(%rip),%rax        # 20128 <g_159>
   14658:	48 89 85 b8 d0 ff ff 	mov    %rax,-0x2f48(%rbp)
   1465f:	48 8d 85 b8 d0 ff ff 	lea    -0x2f48(%rbp),%rax
   14666:	48 89 85 28 d2 ff ff 	mov    %rax,-0x2dd8(%rbp)
   1466d:	c7 85 e4 cf ff ff 01 	movl   $0x1,-0x301c(%rbp)
   14674:	00 00 00 
   14677:	c7 85 e8 cf ff ff e6 	movl   $0x171cd1e6,-0x3018(%rbp)
   1467e:	d1 1c 17 
   14681:	c7 85 ec cf ff ff bb 	movl   $0x8b362ebb,-0x3014(%rbp)
   14688:	2e 36 8b 
   1468b:	c7 85 f0 cf ff ff 63 	movl   $0x36672763,-0x3010(%rbp)
   14692:	27 67 36 
   14695:	c7 85 f4 cf ff ff ff 	movl   $0xffffffff,-0x300c(%rbp)
   1469c:	ff ff ff 
   1469f:	c7 85 50 d5 ff ff f0 	movl   $0x860626f0,-0x2ab0(%rbp)
   146a6:	26 06 86 
   146a9:	c7 85 54 d5 ff ff 09 	movl   $0x9,-0x2aac(%rbp)
   146b0:	00 00 00 
   146b3:	c7 85 58 d5 ff ff 00 	movl   $0x0,-0x2aa8(%rbp)
   146ba:	00 00 00 
   146bd:	c7 85 5c d5 ff ff ff 	movl   $0xffffffff,-0x2aa4(%rbp)
   146c4:	ff ff ff 
   146c7:	c7 85 60 d5 ff ff ff 	movl   $0xffffffff,-0x2aa0(%rbp)
   146ce:	ff ff ff 
   146d1:	c7 85 64 d5 ff ff 00 	movl   $0x0,-0x2a9c(%rbp)
   146d8:	00 00 00 
   146db:	c7 85 68 d5 ff ff 09 	movl   $0x9,-0x2a98(%rbp)
   146e2:	00 00 00 
   146e5:	c7 85 6c d5 ff ff f0 	movl   $0x860626f0,-0x2a94(%rbp)
   146ec:	26 06 86 
   146ef:	c7 85 70 d5 ff ff 09 	movl   $0x9,-0x2a90(%rbp)
   146f6:	00 00 00 
   146f9:	c7 85 74 d5 ff ff 00 	movl   $0x0,-0x2a8c(%rbp)
   14700:	00 00 00 
   14703:	c7 85 78 d5 ff ff ff 	movl   $0xffffffff,-0x2a88(%rbp)
   1470a:	ff ff ff 
   1470d:	c7 85 7c d5 ff ff ff 	movl   $0xffffffff,-0x2a84(%rbp)
   14714:	ff ff ff 
   14717:	c7 85 80 d5 ff ff 00 	movl   $0x0,-0x2a80(%rbp)
   1471e:	00 00 00 
   14721:	c7 85 84 d5 ff ff 09 	movl   $0x9,-0x2a7c(%rbp)
   14728:	00 00 00 
   1472b:	c7 85 10 d4 ff ff 02 	movl   $0x2,-0x2bf0(%rbp)
   14732:	00 00 00 
   14735:	c7 85 14 d4 ff ff 02 	movl   $0x2,-0x2bec(%rbp)
   1473c:	00 00 00 
   1473f:	c7 85 18 d4 ff ff ff 	movl   $0xffffffff,-0x2be8(%rbp)
   14746:	ff ff ff 
   14749:	c7 85 1c d4 ff ff ff 	movl   $0xffffffff,-0x2be4(%rbp)
   14750:	ff ff ff 
   14753:	c7 85 20 d4 ff ff 02 	movl   $0x2,-0x2be0(%rbp)
   1475a:	00 00 00 
   1475d:	c7 85 24 d4 ff ff ff 	movl   $0xffffffff,-0x2bdc(%rbp)
   14764:	ff ff ff 
   14767:	c7 85 28 d4 ff ff ff 	movl   $0xffffffff,-0x2bd8(%rbp)
   1476e:	ff ff ff 
   14771:	c7 85 2c d4 ff ff 02 	movl   $0x2,-0x2bd4(%rbp)
   14778:	00 00 00 
   1477b:	48 8d 85 2c cf ff ff 	lea    -0x30d4(%rbp),%rax
   14782:	48 89 85 d0 e2 ff ff 	mov    %rax,-0x1d30(%rbp)
   14789:	48 8d 85 2c cf ff ff 	lea    -0x30d4(%rbp),%rax
   14790:	48 89 85 d8 e2 ff ff 	mov    %rax,-0x1d28(%rbp)
   14797:	48 8d 85 2c cf ff ff 	lea    -0x30d4(%rbp),%rax
   1479e:	48 89 85 e0 e2 ff ff 	mov    %rax,-0x1d20(%rbp)
   147a5:	48 8d 85 2c cf ff ff 	lea    -0x30d4(%rbp),%rax
   147ac:	48 89 85 e8 e2 ff ff 	mov    %rax,-0x1d18(%rbp)
   147b3:	48 8d 85 2c cf ff ff 	lea    -0x30d4(%rbp),%rax
   147ba:	48 89 85 f0 e2 ff ff 	mov    %rax,-0x1d10(%rbp)
   147c1:	48 8d 85 2c cf ff ff 	lea    -0x30d4(%rbp),%rax
   147c8:	48 89 85 f8 e2 ff ff 	mov    %rax,-0x1d08(%rbp)
   147cf:	48 8d 85 2c cf ff ff 	lea    -0x30d4(%rbp),%rax
   147d6:	48 89 85 00 e3 ff ff 	mov    %rax,-0x1d00(%rbp)
   147dd:	48 8d 05 ac 79 00 00 	lea    0x79ac(%rip),%rax        # 1c190 <g_321>
   147e4:	48 89 85 c0 d4 ff ff 	mov    %rax,-0x2b40(%rbp)
   147eb:	48 8d 05 9e 79 00 00 	lea    0x799e(%rip),%rax        # 1c190 <g_321>
   147f2:	48 89 85 c8 d4 ff ff 	mov    %rax,-0x2b38(%rbp)
   147f9:	48 8d 05 90 79 00 00 	lea    0x7990(%rip),%rax        # 1c190 <g_321>
   14800:	48 89 85 d0 d4 ff ff 	mov    %rax,-0x2b30(%rbp)
   14807:	48 8d 05 82 79 00 00 	lea    0x7982(%rip),%rax        # 1c190 <g_321>
   1480e:	48 89 85 d8 d4 ff ff 	mov    %rax,-0x2b28(%rbp)
   14815:	48 8d 05 74 79 00 00 	lea    0x7974(%rip),%rax        # 1c190 <g_321>
   1481c:	48 89 85 e0 d4 ff ff 	mov    %rax,-0x2b20(%rbp)
   14823:	8b 05 1f 79 00 00    	mov    0x791f(%rip),%eax        # 1c148 <g_154>
   14829:	83 c0 01             	add    $0x1,%eax
   1482c:	89 05 16 79 00 00    	mov    %eax,0x7916(%rip)        # 1c148 <g_154>
   14832:	8b 05 10 79 00 00    	mov    0x7910(%rip),%eax        # 1c148 <g_154>
   14838:	83 f8 05             	cmp    $0x5,%eax
   1483b:	0f 8e 4c fd ff ff    	jle    1458d <func_57+0x5269>
   14841:	48 83 85 c0 d0 ff ff 	addq   $0x1,-0x2f40(%rbp)
   14848:	01 
   14849:	48 83 bd c0 d0 ff ff 	cmpq   $0x5,-0x2f40(%rbp)
   14850:	05 
   14851:	0f 86 67 e7 ff ff    	jbe    12fbe <func_57+0x3c9a>
   14857:	48 c7 05 26 79 00 00 	movq   $0x0,0x7926(%rip)        # 1c188 <g_296>
   1485e:	00 00 00 00 
   14862:	e9 fa 03 00 00       	jmpq   14c61 <func_57+0x593d>
   14867:	66 c7 85 d0 e2 ff ff 	movw   $0x4e86,-0x1d30(%rbp)
   1486e:	86 4e 
   14870:	66 c7 85 d2 e2 ff ff 	movw   $0x4e86,-0x1d2e(%rbp)
   14877:	86 4e 
   14879:	66 c7 85 d4 e2 ff ff 	movw   $0x4e86,-0x1d2c(%rbp)
   14880:	86 4e 
   14882:	66 c7 85 d6 e2 ff ff 	movw   $0x4e86,-0x1d2a(%rbp)
   14889:	86 4e 
   1488b:	66 c7 85 d8 e2 ff ff 	movw   $0x4e86,-0x1d28(%rbp)
   14892:	86 4e 
   14894:	66 c7 85 da e2 ff ff 	movw   $0x4e86,-0x1d26(%rbp)
   1489b:	86 4e 
   1489d:	66 c7 85 dc e2 ff ff 	movw   $0x4e86,-0x1d24(%rbp)
   148a4:	86 4e 
   148a6:	48 8d 85 f0 d3 ff ff 	lea    -0x2c10(%rbp),%rax
   148ad:	48 83 c0 14          	add    $0x14,%rax
   148b1:	48 89 85 40 f4 ff ff 	mov    %rax,-0xbc0(%rbp)
   148b8:	48 8d 85 f0 d3 ff ff 	lea    -0x2c10(%rbp),%rax
   148bf:	48 83 c0 14          	add    $0x14,%rax
   148c3:	48 89 85 48 f4 ff ff 	mov    %rax,-0xbb8(%rbp)
   148ca:	48 8d 85 f0 d3 ff ff 	lea    -0x2c10(%rbp),%rax
   148d1:	48 83 c0 14          	add    $0x14,%rax
   148d5:	48 89 85 50 f4 ff ff 	mov    %rax,-0xbb0(%rbp)
   148dc:	48 8d 85 f0 d3 ff ff 	lea    -0x2c10(%rbp),%rax
   148e3:	48 83 c0 14          	add    $0x14,%rax
   148e7:	48 89 85 58 f4 ff ff 	mov    %rax,-0xba8(%rbp)
   148ee:	48 8d 85 f0 d3 ff ff 	lea    -0x2c10(%rbp),%rax
   148f5:	48 83 c0 14          	add    $0x14,%rax
   148f9:	48 89 85 60 f4 ff ff 	mov    %rax,-0xba0(%rbp)
   14900:	48 8d 85 f0 d3 ff ff 	lea    -0x2c10(%rbp),%rax
   14907:	48 83 c0 14          	add    $0x14,%rax
   1490b:	48 89 85 68 f4 ff ff 	mov    %rax,-0xb98(%rbp)
   14912:	48 8d 85 f0 d3 ff ff 	lea    -0x2c10(%rbp),%rax
   14919:	48 83 c0 14          	add    $0x14,%rax
   1491d:	48 89 85 70 f4 ff ff 	mov    %rax,-0xb90(%rbp)
   14924:	48 8d 85 f0 d3 ff ff 	lea    -0x2c10(%rbp),%rax
   1492b:	48 83 c0 14          	add    $0x14,%rax
   1492f:	48 89 85 78 f4 ff ff 	mov    %rax,-0xb88(%rbp)
   14936:	48 8d 85 f0 d3 ff ff 	lea    -0x2c10(%rbp),%rax
   1493d:	48 83 c0 14          	add    $0x14,%rax
   14941:	48 89 85 80 f4 ff ff 	mov    %rax,-0xb80(%rbp)
   14948:	48 8d 85 f0 d3 ff ff 	lea    -0x2c10(%rbp),%rax
   1494f:	48 83 c0 14          	add    $0x14,%rax
   14953:	48 89 85 88 f4 ff ff 	mov    %rax,-0xb78(%rbp)
   1495a:	48 8d 85 f0 d3 ff ff 	lea    -0x2c10(%rbp),%rax
   14961:	48 83 c0 14          	add    $0x14,%rax
   14965:	48 89 85 90 f4 ff ff 	mov    %rax,-0xb70(%rbp)
   1496c:	48 8d 85 f0 d3 ff ff 	lea    -0x2c10(%rbp),%rax
   14973:	48 83 c0 14          	add    $0x14,%rax
   14977:	48 89 85 98 f4 ff ff 	mov    %rax,-0xb68(%rbp)
   1497e:	48 8d 85 f0 d3 ff ff 	lea    -0x2c10(%rbp),%rax
   14985:	48 83 c0 14          	add    $0x14,%rax
   14989:	48 89 85 a0 f4 ff ff 	mov    %rax,-0xb60(%rbp)
   14990:	48 8d 85 f0 d3 ff ff 	lea    -0x2c10(%rbp),%rax
   14997:	48 83 c0 14          	add    $0x14,%rax
   1499b:	48 89 85 a8 f4 ff ff 	mov    %rax,-0xb58(%rbp)
   149a2:	48 8d 85 f0 d3 ff ff 	lea    -0x2c10(%rbp),%rax
   149a9:	48 83 c0 14          	add    $0x14,%rax
   149ad:	48 89 85 b0 f4 ff ff 	mov    %rax,-0xb50(%rbp)
   149b4:	48 8d 85 f0 d3 ff ff 	lea    -0x2c10(%rbp),%rax
   149bb:	48 83 c0 14          	add    $0x14,%rax
   149bf:	48 89 85 b8 f4 ff ff 	mov    %rax,-0xb48(%rbp)
   149c6:	8b 85 80 d3 ff ff    	mov    -0x2c80(%rbp),%eax
   149cc:	25 00 00 f0 ff       	and    $0xfff00000,%eax
   149d1:	0d c0 03 00 00       	or     $0x3c0,%eax
   149d6:	89 85 80 d3 ff ff    	mov    %eax,-0x2c80(%rbp)
   149dc:	8b 85 84 d3 ff ff    	mov    -0x2c7c(%rbp),%eax
   149e2:	25 00 00 00 fe       	and    $0xfe000000,%eax
   149e7:	0d 62 0d 00 00       	or     $0xd62,%eax
   149ec:	89 85 84 d3 ff ff    	mov    %eax,-0x2c7c(%rbp)
   149f2:	8b 85 88 d3 ff ff    	mov    -0x2c78(%rbp),%eax
   149f8:	25 00 00 80 ff       	and    $0xff800000,%eax
   149fd:	0d 42 01 00 00       	or     $0x142,%eax
   14a02:	89 85 88 d3 ff ff    	mov    %eax,-0x2c78(%rbp)
   14a08:	0f b7 85 8a d3 ff ff 	movzwl -0x2c76(%rbp),%eax
   14a0f:	66 25 7f c0          	and    $0xc07f,%ax
   14a13:	66 0d 80 04          	or     $0x480,%ax
   14a17:	66 89 85 8a d3 ff ff 	mov    %ax,-0x2c76(%rbp)
   14a1e:	8b 85 8c d3 ff ff    	mov    -0x2c74(%rbp),%eax
   14a24:	25 00 00 00 fc       	and    $0xfc000000,%eax
   14a29:	0d f8 ef ff 03       	or     $0x3ffeff8,%eax
   14a2e:	89 85 8c d3 ff ff    	mov    %eax,-0x2c74(%rbp)
   14a34:	0f b7 85 90 d3 ff ff 	movzwl -0x2c70(%rbp),%eax
   14a3b:	66 25 00 fe          	and    $0xfe00,%ax
   14a3f:	83 c8 02             	or     $0x2,%eax
   14a42:	66 89 85 90 d3 ff ff 	mov    %ax,-0x2c70(%rbp)
   14a49:	0f b6 85 91 d3 ff ff 	movzbl -0x2c6f(%rbp),%eax
   14a50:	83 e0 f1             	and    $0xfffffff1,%eax
   14a53:	83 c8 02             	or     $0x2,%eax
   14a56:	88 85 91 d3 ff ff    	mov    %al,-0x2c6f(%rbp)
   14a5c:	48 8d 05 05 a8 00 00 	lea    0xa805(%rip),%rax        # 1f268 <g_733+0x28>
   14a63:	48 89 85 90 d1 ff ff 	mov    %rax,-0x2e70(%rbp)
   14a6a:	66 c7 85 14 cf ff ff 	movw   $0x9,-0x30ec(%rbp)
   14a71:	09 00 
   14a73:	c6 85 09 cf ff ff d4 	movb   $0xd4,-0x30f7(%rbp)
   14a7a:	48 c7 85 20 d5 ff ff 	movq   $0x0,-0x2ae0(%rbp)
   14a81:	00 00 00 00 
   14a85:	48 c7 85 28 d5 ff ff 	movq   $0x0,-0x2ad8(%rbp)
   14a8c:	00 00 00 00 
   14a90:	48 c7 85 30 d5 ff ff 	movq   $0x0,-0x2ad0(%rbp)
   14a97:	00 00 00 00 
   14a9b:	48 c7 85 38 d5 ff ff 	movq   $0x0,-0x2ac8(%rbp)
   14aa2:	00 00 00 00 
   14aa6:	48 c7 85 40 d5 ff ff 	movq   $0x0,-0x2ac0(%rbp)
   14aad:	00 00 00 00 
   14ab1:	48 8b 85 20 d5 ff ff 	mov    -0x2ae0(%rbp),%rax
   14ab8:	48 8b 95 28 d5 ff ff 	mov    -0x2ad8(%rbp),%rdx
   14abf:	48 89 85 f0 d4 ff ff 	mov    %rax,-0x2b10(%rbp)
   14ac6:	48 89 95 f8 d4 ff ff 	mov    %rdx,-0x2b08(%rbp)
   14acd:	48 8b 85 30 d5 ff ff 	mov    -0x2ad0(%rbp),%rax
   14ad4:	48 8b 95 38 d5 ff ff 	mov    -0x2ac8(%rbp),%rdx
   14adb:	48 89 85 00 d5 ff ff 	mov    %rax,-0x2b00(%rbp)
   14ae2:	48 89 95 08 d5 ff ff 	mov    %rdx,-0x2af8(%rbp)
   14ae9:	48 8b 85 40 d5 ff ff 	mov    -0x2ac0(%rbp),%rax
   14af0:	48 89 85 10 d5 ff ff 	mov    %rax,-0x2af0(%rbp)
   14af7:	48 c7 85 98 d1 ff ff 	movq   $0xffffffffffffffff,-0x2e68(%rbp)
   14afe:	ff ff ff ff 
   14b02:	48 8d 85 00 df ff ff 	lea    -0x2100(%rbp),%rax
   14b09:	48 89 85 a0 d1 ff ff 	mov    %rax,-0x2e60(%rbp)
   14b10:	c7 85 a0 cf ff ff 00 	movl   $0x0,-0x3060(%rbp)
   14b17:	00 00 00 
   14b1a:	c7 85 a4 cf ff ff fd 	movl   $0xfffffffd,-0x305c(%rbp)
   14b21:	ff ff ff 
   14b24:	48 c7 85 b8 d0 ff ff 	movq   $0x0,-0x2f48(%rbp)
   14b2b:	00 00 00 00 
   14b2f:	48 8d 85 b8 d0 ff ff 	lea    -0x2f48(%rbp),%rax
   14b36:	48 89 85 60 d3 ff ff 	mov    %rax,-0x2ca0(%rbp)
   14b3d:	48 8d 85 60 d3 ff ff 	lea    -0x2ca0(%rbp),%rax
   14b44:	48 89 85 a8 d1 ff ff 	mov    %rax,-0x2e58(%rbp)
   14b4b:	48 b8 aa 28 91 8c dd 	movabs $0x80e286dd8c9128aa,%rax
   14b52:	86 e2 80 
   14b55:	48 89 85 b0 d1 ff ff 	mov    %rax,-0x2e50(%rbp)
   14b5c:	48 b8 0b df 00 d3 ce 	movabs $0x71850ced300df0b,%rax
   14b63:	50 18 07 
   14b66:	48 89 85 b8 d1 ff ff 	mov    %rax,-0x2e48(%rbp)
   14b6d:	48 c7 85 c0 d1 ff ff 	movq   $0x0,-0x2e40(%rbp)
   14b74:	00 00 00 00 
   14b78:	48 c7 85 c8 d1 ff ff 	movq   $0x0,-0x2e38(%rbp)
   14b7f:	00 00 00 00 
   14b83:	c7 85 60 cf ff ff 00 	movl   $0x0,-0x30a0(%rbp)
   14b8a:	00 00 00 
   14b8d:	eb 1e                	jmp    14bad <func_57+0x5889>
   14b8f:	8b 85 60 cf ff ff    	mov    -0x30a0(%rbp),%eax
   14b95:	48 98                	cltq   
   14b97:	48 8d 95 28 cf ff ff 	lea    -0x30d8(%rbp),%rdx
   14b9e:	48 89 94 c5 00 df ff 	mov    %rdx,-0x2100(%rbp,%rax,8)
   14ba5:	ff 
   14ba6:	83 85 60 cf ff ff 01 	addl   $0x1,-0x30a0(%rbp)
   14bad:	83 bd 60 cf ff ff 00 	cmpl   $0x0,-0x30a0(%rbp)
   14bb4:	7e d9                	jle    14b8f <func_57+0x586b>
   14bb6:	c6 85 04 cf ff ff 00 	movb   $0x0,-0x30fc(%rbp)
   14bbd:	eb 75                	jmp    14c34 <func_57+0x5910>
   14bbf:	48 c7 85 d0 d1 ff ff 	movq   $0x0,-0x2e30(%rbp)
   14bc6:	00 00 00 00 
   14bca:	48 8b 85 40 d0 ff ff 	mov    -0x2fc0(%rbp),%rax
   14bd1:	8b 00                	mov    (%rax),%eax
   14bd3:	85 c0                	test   %eax,%eax
   14bd5:	75 68                	jne    14c3f <func_57+0x591b>
   14bd7:	0f b7 95 d0 e2 ff ff 	movzwl -0x1d30(%rbp),%edx
   14bde:	48 8b 85 40 d0 ff ff 	mov    -0x2fc0(%rbp),%rax
   14be5:	0f b7 d2             	movzwl %dx,%edx
   14be8:	89 10                	mov    %edx,(%rax)
   14bea:	48 c7 05 53 b5 00 00 	movq   $0x0,0xb553(%rip)        # 20148 <g_449>
   14bf1:	00 00 00 00 
   14bf5:	eb 20                	jmp    14c17 <func_57+0x58f3>
   14bf7:	48 8b 85 d0 d1 ff ff 	mov    -0x2e30(%rbp),%rax
   14bfe:	48 89 85 48 d1 ff ff 	mov    %rax,-0x2eb8(%rbp)
   14c05:	48 8b 05 3c b5 00 00 	mov    0xb53c(%rip),%rax        # 20148 <g_449>
   14c0c:	48 83 c0 01          	add    $0x1,%rax
   14c10:	48 89 05 31 b5 00 00 	mov    %rax,0xb531(%rip)        # 20148 <g_449>
   14c17:	48 8b 05 2a b5 00 00 	mov    0xb52a(%rip),%rax        # 20148 <g_449>
   14c1e:	48 83 f8 01          	cmp    $0x1,%rax
   14c22:	7e d3                	jle    14bf7 <func_57+0x58d3>
   14c24:	0f b6 85 04 cf ff ff 	movzbl -0x30fc(%rbp),%eax
   14c2b:	83 c0 01             	add    $0x1,%eax
   14c2e:	88 85 04 cf ff ff    	mov    %al,-0x30fc(%rbp)
   14c34:	80 bd 04 cf ff ff 01 	cmpb   $0x1,-0x30fc(%rbp)
   14c3b:	7e 82                	jle    14bbf <func_57+0x589b>
   14c3d:	eb 01                	jmp    14c40 <func_57+0x591c>
   14c3f:	90                   	nop
   14c40:	8b 85 28 cf ff ff    	mov    -0x30d8(%rbp),%eax
   14c46:	83 c0 01             	add    $0x1,%eax
   14c49:	89 85 28 cf ff ff    	mov    %eax,-0x30d8(%rbp)
   14c4f:	48 8b 05 32 75 00 00 	mov    0x7532(%rip),%rax        # 1c188 <g_296>
   14c56:	48 83 c0 01          	add    $0x1,%rax
   14c5a:	48 89 05 27 75 00 00 	mov    %rax,0x7527(%rip)        # 1c188 <g_296>
   14c61:	48 8b 05 20 75 00 00 	mov    0x7520(%rip),%rax        # 1c188 <g_296>
   14c68:	48 83 f8 01          	cmp    $0x1,%rax
   14c6c:	0f 86 f5 fb ff ff    	jbe    14867 <func_57+0x5543>
   14c72:	0f b6 05 b3 74 00 00 	movzbl 0x74b3(%rip),%eax        # 1c12c <g_109>
   14c79:	83 c0 01             	add    $0x1,%eax
   14c7c:	88 05 aa 74 00 00    	mov    %al,0x74aa(%rip)        # 1c12c <g_109>
   14c82:	0f b6 05 a3 74 00 00 	movzbl 0x74a3(%rip),%eax        # 1c12c <g_109>
   14c89:	3c 01                	cmp    $0x1,%al
   14c8b:	0f 86 bb ac ff ff    	jbe    f94c <func_57+0x628>
   14c91:	0f b7 95 f0 ce ff ff 	movzwl -0x3110(%rbp),%edx
   14c98:	48 8b 85 40 d0 ff ff 	mov    -0x2fc0(%rbp),%rax
   14c9f:	0f bf d2             	movswl %dx,%edx
   14ca2:	89 10                	mov    %edx,(%rax)
   14ca4:	c6 85 03 cf ff ff 03 	movb   $0x3,-0x30fd(%rbp)
   14cab:	e9 42 10 00 00       	jmpq   15cf2 <func_57+0x69ce>
   14cb0:	48 8d 05 19 a6 00 00 	lea    0xa619(%rip),%rax        # 1f2d0 <g_1024>
   14cb7:	48 89 85 00 d1 ff ff 	mov    %rax,-0x2f00(%rbp)
   14cbe:	c7 85 a0 d0 ff ff fe 	movl   $0xfffffffe,-0x2f60(%rbp)
   14cc5:	ff ff ff 
   14cc8:	8b 85 60 d3 ff ff    	mov    -0x2ca0(%rbp),%eax
   14cce:	25 00 00 f0 ff       	and    $0xfff00000,%eax
   14cd3:	0d 75 03 00 00       	or     $0x375,%eax
   14cd8:	89 85 60 d3 ff ff    	mov    %eax,-0x2ca0(%rbp)
   14cde:	8b 85 64 d3 ff ff    	mov    -0x2c9c(%rbp),%eax
   14ce4:	25 00 00 00 fe       	and    $0xfe000000,%eax
   14ce9:	83 c8 4d             	or     $0x4d,%eax
   14cec:	89 85 64 d3 ff ff    	mov    %eax,-0x2c9c(%rbp)
   14cf2:	8b 85 68 d3 ff ff    	mov    -0x2c98(%rbp),%eax
   14cf8:	25 00 00 80 ff       	and    $0xff800000,%eax
   14cfd:	0d 3c 09 00 00       	or     $0x93c,%eax
   14d02:	89 85 68 d3 ff ff    	mov    %eax,-0x2c98(%rbp)
   14d08:	0f b7 85 6a d3 ff ff 	movzwl -0x2c96(%rbp),%eax
   14d0f:	66 25 7f c0          	and    $0xc07f,%ax
   14d13:	66 89 85 6a d3 ff ff 	mov    %ax,-0x2c96(%rbp)
   14d1a:	8b 85 6c d3 ff ff    	mov    -0x2c94(%rbp),%eax
   14d20:	25 00 00 00 fc       	and    $0xfc000000,%eax
   14d25:	0d ec 06 00 00       	or     $0x6ec,%eax
   14d2a:	89 85 6c d3 ff ff    	mov    %eax,-0x2c94(%rbp)
   14d30:	0f b7 85 70 d3 ff ff 	movzwl -0x2c90(%rbp),%eax
   14d37:	66 25 00 fe          	and    $0xfe00,%ax
   14d3b:	66 0d eb 01          	or     $0x1eb,%ax
   14d3f:	66 89 85 70 d3 ff ff 	mov    %ax,-0x2c90(%rbp)
   14d46:	0f b6 85 71 d3 ff ff 	movzbl -0x2c8f(%rbp),%eax
   14d4d:	83 e0 f1             	and    $0xfffffff1,%eax
   14d50:	88 85 71 d3 ff ff    	mov    %al,-0x2c8f(%rbp)
   14d56:	c7 85 78 cf ff ff 6e 	movl   $0xf4676f6e,-0x3088(%rbp)
   14d5d:	6f 67 f4 
   14d60:	c7 85 7c cf ff ff 85 	movl   $0x8cec3085,-0x3084(%rbp)
   14d67:	30 ec 8c 
   14d6a:	c7 85 a8 d0 ff ff ff 	movl   $0xffffffff,-0x2f58(%rbp)
   14d71:	ff ff ff 
   14d74:	c7 85 d0 e2 ff ff 9b 	movl   $0xa3c4d89b,-0x1d30(%rbp)
   14d7b:	d8 c4 a3 
   14d7e:	c7 85 d4 e2 ff ff 9b 	movl   $0xa3c4d89b,-0x1d2c(%rbp)
   14d85:	d8 c4 a3 
   14d88:	c7 85 d8 e2 ff ff 9b 	movl   $0xa3c4d89b,-0x1d28(%rbp)
   14d8f:	d8 c4 a3 
   14d92:	c7 85 dc e2 ff ff 9b 	movl   $0xa3c4d89b,-0x1d24(%rbp)
   14d99:	d8 c4 a3 
   14d9c:	c7 85 e0 e2 ff ff 9b 	movl   $0xa3c4d89b,-0x1d20(%rbp)
   14da3:	d8 c4 a3 
   14da6:	c7 85 e4 e2 ff ff 9b 	movl   $0xa3c4d89b,-0x1d1c(%rbp)
   14dad:	d8 c4 a3 
   14db0:	c7 85 e8 e2 ff ff 9b 	movl   $0xa3c4d89b,-0x1d18(%rbp)
   14db7:	d8 c4 a3 
   14dba:	c7 85 ec e2 ff ff 9b 	movl   $0xa3c4d89b,-0x1d14(%rbp)
   14dc1:	d8 c4 a3 
   14dc4:	c7 85 f0 e2 ff ff 9b 	movl   $0xa3c4d89b,-0x1d10(%rbp)
   14dcb:	d8 c4 a3 
   14dce:	c6 85 06 cf ff ff 02 	movb   $0x2,-0x30fa(%rbp)
   14dd5:	48 8d 85 a8 d0 ff ff 	lea    -0x2f58(%rbp),%rax
   14ddc:	48 89 85 08 d1 ff ff 	mov    %rax,-0x2ef8(%rbp)
   14de3:	48 c7 85 b0 d0 ff ff 	movq   $0x0,-0x2f50(%rbp)
   14dea:	00 00 00 00 
   14dee:	48 8d 85 b0 d0 ff ff 	lea    -0x2f50(%rbp),%rax
   14df5:	48 89 85 10 d1 ff ff 	mov    %rax,-0x2ef0(%rbp)
   14dfc:	48 8d 05 8d 73 00 00 	lea    0x738d(%rip),%rax        # 1c190 <g_321>
   14e03:	48 89 85 c0 ec ff ff 	mov    %rax,-0x1340(%rbp)
   14e0a:	48 8d 85 d0 d5 ff ff 	lea    -0x2a30(%rbp),%rax
   14e11:	48 83 c0 08          	add    $0x8,%rax
   14e15:	48 89 85 c8 ec ff ff 	mov    %rax,-0x1338(%rbp)
   14e1c:	48 8d 85 68 d0 ff ff 	lea    -0x2f98(%rbp),%rax
   14e23:	48 89 85 d0 ec ff ff 	mov    %rax,-0x1330(%rbp)
   14e2a:	48 8d 05 5f 73 00 00 	lea    0x735f(%rip),%rax        # 1c190 <g_321>
   14e31:	48 89 85 d8 ec ff ff 	mov    %rax,-0x1328(%rbp)
   14e38:	48 8d 05 49 73 00 00 	lea    0x7349(%rip),%rax        # 1c188 <g_296>
   14e3f:	48 89 85 e0 ec ff ff 	mov    %rax,-0x1320(%rbp)
   14e46:	48 8d 85 d0 d5 ff ff 	lea    -0x2a30(%rbp),%rax
   14e4d:	48 83 c0 08          	add    $0x8,%rax
   14e51:	48 89 85 e8 ec ff ff 	mov    %rax,-0x1318(%rbp)
   14e58:	48 8d 05 29 73 00 00 	lea    0x7329(%rip),%rax        # 1c188 <g_296>
   14e5f:	48 89 85 f0 ec ff ff 	mov    %rax,-0x1310(%rbp)
   14e66:	48 8d 05 cb 72 00 00 	lea    0x72cb(%rip),%rax        # 1c138 <g_148>
   14e6d:	48 89 85 f8 ec ff ff 	mov    %rax,-0x1308(%rbp)
   14e74:	48 8d 85 68 d0 ff ff 	lea    -0x2f98(%rbp),%rax
   14e7b:	48 89 85 00 ed ff ff 	mov    %rax,-0x1300(%rbp)
   14e82:	48 8d 85 68 d0 ff ff 	lea    -0x2f98(%rbp),%rax
   14e89:	48 89 85 08 ed ff ff 	mov    %rax,-0x12f8(%rbp)
   14e90:	48 8d 85 d0 d5 ff ff 	lea    -0x2a30(%rbp),%rax
   14e97:	48 83 c0 08          	add    $0x8,%rax
   14e9b:	48 89 85 10 ed ff ff 	mov    %rax,-0x12f0(%rbp)
   14ea2:	48 c7 85 18 ed ff ff 	movq   $0x0,-0x12e8(%rbp)
   14ea9:	00 00 00 00 
   14ead:	48 8d 85 d0 d5 ff ff 	lea    -0x2a30(%rbp),%rax
   14eb4:	48 83 c0 28          	add    $0x28,%rax
   14eb8:	48 89 85 20 ed ff ff 	mov    %rax,-0x12e0(%rbp)
   14ebf:	48 8d 85 d0 d5 ff ff 	lea    -0x2a30(%rbp),%rax
   14ec6:	48 83 c0 08          	add    $0x8,%rax
   14eca:	48 89 85 28 ed ff ff 	mov    %rax,-0x12d8(%rbp)
   14ed1:	48 8d 05 b0 72 00 00 	lea    0x72b0(%rip),%rax        # 1c188 <g_296>
   14ed8:	48 89 85 30 ed ff ff 	mov    %rax,-0x12d0(%rbp)
   14edf:	48 c7 85 38 ed ff ff 	movq   $0x0,-0x12c8(%rbp)
   14ee6:	00 00 00 00 
   14eea:	48 8d 85 68 d0 ff ff 	lea    -0x2f98(%rbp),%rax
   14ef1:	48 89 85 40 ed ff ff 	mov    %rax,-0x12c0(%rbp)
   14ef8:	48 8d 85 68 d0 ff ff 	lea    -0x2f98(%rbp),%rax
   14eff:	48 89 85 48 ed ff ff 	mov    %rax,-0x12b8(%rbp)
   14f06:	48 8d 85 68 d0 ff ff 	lea    -0x2f98(%rbp),%rax
   14f0d:	48 89 85 50 ed ff ff 	mov    %rax,-0x12b0(%rbp)
   14f14:	48 8d 85 68 d0 ff ff 	lea    -0x2f98(%rbp),%rax
   14f1b:	48 89 85 58 ed ff ff 	mov    %rax,-0x12a8(%rbp)
   14f22:	48 8d 05 5f 72 00 00 	lea    0x725f(%rip),%rax        # 1c188 <g_296>
   14f29:	48 89 85 60 ed ff ff 	mov    %rax,-0x12a0(%rbp)
   14f30:	48 8d 05 59 72 00 00 	lea    0x7259(%rip),%rax        # 1c190 <g_321>
   14f37:	48 89 85 68 ed ff ff 	mov    %rax,-0x1298(%rbp)
   14f3e:	48 c7 85 70 ed ff ff 	movq   $0x0,-0x1290(%rbp)
   14f45:	00 00 00 00 
   14f49:	48 8d 05 40 72 00 00 	lea    0x7240(%rip),%rax        # 1c190 <g_321>
   14f50:	48 89 85 78 ed ff ff 	mov    %rax,-0x1288(%rbp)
   14f57:	48 8d 05 32 72 00 00 	lea    0x7232(%rip),%rax        # 1c190 <g_321>
   14f5e:	48 89 85 80 ed ff ff 	mov    %rax,-0x1280(%rbp)
   14f65:	48 8d 05 1c 72 00 00 	lea    0x721c(%rip),%rax        # 1c188 <g_296>
   14f6c:	48 89 85 88 ed ff ff 	mov    %rax,-0x1278(%rbp)
   14f73:	48 8d 85 d0 d5 ff ff 	lea    -0x2a30(%rbp),%rax
   14f7a:	48 83 c0 08          	add    $0x8,%rax
   14f7e:	48 89 85 90 ed ff ff 	mov    %rax,-0x1270(%rbp)
   14f85:	48 c7 85 98 ed ff ff 	movq   $0x0,-0x1268(%rbp)
   14f8c:	00 00 00 00 
   14f90:	48 8d 85 d0 d5 ff ff 	lea    -0x2a30(%rbp),%rax
   14f97:	48 83 c0 48          	add    $0x48,%rax
   14f9b:	48 89 85 a0 ed ff ff 	mov    %rax,-0x1260(%rbp)
   14fa2:	48 8d 85 d0 d5 ff ff 	lea    -0x2a30(%rbp),%rax
   14fa9:	48 83 c0 18          	add    $0x18,%rax
   14fad:	48 89 85 a8 ed ff ff 	mov    %rax,-0x1258(%rbp)
   14fb4:	48 8d 05 d5 71 00 00 	lea    0x71d5(%rip),%rax        # 1c190 <g_321>
   14fbb:	48 89 85 b0 ed ff ff 	mov    %rax,-0x1250(%rbp)
   14fc2:	48 8d 85 d0 d5 ff ff 	lea    -0x2a30(%rbp),%rax
   14fc9:	48 83 c0 08          	add    $0x8,%rax
   14fcd:	48 89 85 b8 ed ff ff 	mov    %rax,-0x1248(%rbp)
   14fd4:	48 8d 05 b5 71 00 00 	lea    0x71b5(%rip),%rax        # 1c190 <g_321>
   14fdb:	48 89 85 c0 ed ff ff 	mov    %rax,-0x1240(%rbp)
   14fe2:	48 8d 05 4f 71 00 00 	lea    0x714f(%rip),%rax        # 1c138 <g_148>
   14fe9:	48 89 85 c8 ed ff ff 	mov    %rax,-0x1238(%rbp)
   14ff0:	48 8d 05 41 71 00 00 	lea    0x7141(%rip),%rax        # 1c138 <g_148>
   14ff7:	48 89 85 d0 ed ff ff 	mov    %rax,-0x1230(%rbp)
   14ffe:	48 8d 05 83 71 00 00 	lea    0x7183(%rip),%rax        # 1c188 <g_296>
   15005:	48 89 85 d8 ed ff ff 	mov    %rax,-0x1228(%rbp)
   1500c:	48 c7 85 e0 ed ff ff 	movq   $0x0,-0x1220(%rbp)
   15013:	00 00 00 00 
   15017:	48 8d 05 6a 71 00 00 	lea    0x716a(%rip),%rax        # 1c188 <g_296>
   1501e:	48 89 85 e8 ed ff ff 	mov    %rax,-0x1218(%rbp)
   15025:	48 8d 85 68 d0 ff ff 	lea    -0x2f98(%rbp),%rax
   1502c:	48 89 85 f0 ed ff ff 	mov    %rax,-0x1210(%rbp)
   15033:	48 8d 05 4e 71 00 00 	lea    0x714e(%rip),%rax        # 1c188 <g_296>
   1503a:	48 89 85 f8 ed ff ff 	mov    %rax,-0x1208(%rbp)
   15041:	48 8d 05 40 71 00 00 	lea    0x7140(%rip),%rax        # 1c188 <g_296>
   15048:	48 89 85 00 ee ff ff 	mov    %rax,-0x1200(%rbp)
   1504f:	48 8d 05 32 71 00 00 	lea    0x7132(%rip),%rax        # 1c188 <g_296>
   15056:	48 89 85 08 ee ff ff 	mov    %rax,-0x11f8(%rbp)
   1505d:	48 8d 05 24 71 00 00 	lea    0x7124(%rip),%rax        # 1c188 <g_296>
   15064:	48 89 85 10 ee ff ff 	mov    %rax,-0x11f0(%rbp)
   1506b:	48 8d 05 c6 70 00 00 	lea    0x70c6(%rip),%rax        # 1c138 <g_148>
   15072:	48 89 85 18 ee ff ff 	mov    %rax,-0x11e8(%rbp)
   15079:	48 c7 85 20 ee ff ff 	movq   $0x0,-0x11e0(%rbp)
   15080:	00 00 00 00 
   15084:	48 c7 85 28 ee ff ff 	movq   $0x0,-0x11d8(%rbp)
   1508b:	00 00 00 00 
   1508f:	48 8d 05 f2 70 00 00 	lea    0x70f2(%rip),%rax        # 1c188 <g_296>
   15096:	48 89 85 30 ee ff ff 	mov    %rax,-0x11d0(%rbp)
   1509d:	48 8d 85 68 d0 ff ff 	lea    -0x2f98(%rbp),%rax
   150a4:	48 89 85 38 ee ff ff 	mov    %rax,-0x11c8(%rbp)
   150ab:	48 c7 85 40 ee ff ff 	movq   $0x0,-0x11c0(%rbp)
   150b2:	00 00 00 00 
   150b6:	48 8d 85 d0 d5 ff ff 	lea    -0x2a30(%rbp),%rax
   150bd:	48 83 c0 08          	add    $0x8,%rax
   150c1:	48 89 85 48 ee ff ff 	mov    %rax,-0x11b8(%rbp)
   150c8:	48 8d 85 d0 d5 ff ff 	lea    -0x2a30(%rbp),%rax
   150cf:	48 83 c0 08          	add    $0x8,%rax
   150d3:	48 89 85 50 ee ff ff 	mov    %rax,-0x11b0(%rbp)
   150da:	48 8d 05 af 70 00 00 	lea    0x70af(%rip),%rax        # 1c190 <g_321>
   150e1:	48 89 85 58 ee ff ff 	mov    %rax,-0x11a8(%rbp)
   150e8:	48 c7 85 60 ee ff ff 	movq   $0x0,-0x11a0(%rbp)
   150ef:	00 00 00 00 
   150f3:	48 8d 05 96 70 00 00 	lea    0x7096(%rip),%rax        # 1c190 <g_321>
   150fa:	48 89 85 68 ee ff ff 	mov    %rax,-0x1198(%rbp)
   15101:	48 8d 05 88 70 00 00 	lea    0x7088(%rip),%rax        # 1c190 <g_321>
   15108:	48 89 85 70 ee ff ff 	mov    %rax,-0x1190(%rbp)
   1510f:	48 8d 85 d0 d5 ff ff 	lea    -0x2a30(%rbp),%rax
   15116:	48 83 c0 08          	add    $0x8,%rax
   1511a:	48 89 85 78 ee ff ff 	mov    %rax,-0x1188(%rbp)
   15121:	48 8d 05 60 70 00 00 	lea    0x7060(%rip),%rax        # 1c188 <g_296>
   15128:	48 89 85 80 ee ff ff 	mov    %rax,-0x1180(%rbp)
   1512f:	48 8d 05 5a 70 00 00 	lea    0x705a(%rip),%rax        # 1c190 <g_321>
   15136:	48 89 85 88 ee ff ff 	mov    %rax,-0x1178(%rbp)
   1513d:	48 8d 85 d0 d5 ff ff 	lea    -0x2a30(%rbp),%rax
   15144:	48 83 c0 18          	add    $0x18,%rax
   15148:	48 89 85 90 ee ff ff 	mov    %rax,-0x1170(%rbp)
   1514f:	48 8d 85 d0 d5 ff ff 	lea    -0x2a30(%rbp),%rax
   15156:	48 83 c0 18          	add    $0x18,%rax
   1515a:	48 89 85 98 ee ff ff 	mov    %rax,-0x1168(%rbp)
   15161:	48 8d 05 28 70 00 00 	lea    0x7028(%rip),%rax        # 1c190 <g_321>
   15168:	48 89 85 a0 ee ff ff 	mov    %rax,-0x1160(%rbp)
   1516f:	48 8d 05 12 70 00 00 	lea    0x7012(%rip),%rax        # 1c188 <g_296>
   15176:	48 89 85 a8 ee ff ff 	mov    %rax,-0x1158(%rbp)
   1517d:	48 8d 05 0c 70 00 00 	lea    0x700c(%rip),%rax        # 1c190 <g_321>
   15184:	48 89 85 b0 ee ff ff 	mov    %rax,-0x1150(%rbp)
   1518b:	48 c7 85 b8 ee ff ff 	movq   $0x0,-0x1148(%rbp)
   15192:	00 00 00 00 
   15196:	48 8d 05 f3 6f 00 00 	lea    0x6ff3(%rip),%rax        # 1c190 <g_321>
   1519d:	48 89 85 c0 ee ff ff 	mov    %rax,-0x1140(%rbp)
   151a4:	48 8d 85 68 d0 ff ff 	lea    -0x2f98(%rbp),%rax
   151ab:	48 89 85 c8 ee ff ff 	mov    %rax,-0x1138(%rbp)
   151b2:	48 c7 85 d0 ee ff ff 	movq   $0x0,-0x1130(%rbp)
   151b9:	00 00 00 00 
   151bd:	48 8d 05 74 6f 00 00 	lea    0x6f74(%rip),%rax        # 1c138 <g_148>
   151c4:	48 89 85 d8 ee ff ff 	mov    %rax,-0x1128(%rbp)
   151cb:	48 8d 85 d0 d5 ff ff 	lea    -0x2a30(%rbp),%rax
   151d2:	48 83 c0 30          	add    $0x30,%rax
   151d6:	48 89 85 e0 ee ff ff 	mov    %rax,-0x1120(%rbp)
   151dd:	48 c7 85 e8 ee ff ff 	movq   $0x0,-0x1118(%rbp)
   151e4:	00 00 00 00 
   151e8:	48 c7 85 f0 ee ff ff 	movq   $0x0,-0x1110(%rbp)
   151ef:	00 00 00 00 
   151f3:	48 8d 85 d0 d5 ff ff 	lea    -0x2a30(%rbp),%rax
   151fa:	48 83 c0 08          	add    $0x8,%rax
   151fe:	48 89 85 f8 ee ff ff 	mov    %rax,-0x1108(%rbp)
   15205:	48 8d 85 d0 d5 ff ff 	lea    -0x2a30(%rbp),%rax
   1520c:	48 83 c0 10          	add    $0x10,%rax
   15210:	48 89 85 00 ef ff ff 	mov    %rax,-0x1100(%rbp)
   15217:	48 8d 05 1a 6f 00 00 	lea    0x6f1a(%rip),%rax        # 1c138 <g_148>
   1521e:	48 89 85 08 ef ff ff 	mov    %rax,-0x10f8(%rbp)
   15225:	48 8d 05 5c 6f 00 00 	lea    0x6f5c(%rip),%rax        # 1c188 <g_296>
   1522c:	48 89 85 10 ef ff ff 	mov    %rax,-0x10f0(%rbp)
   15233:	48 8d 05 4e 6f 00 00 	lea    0x6f4e(%rip),%rax        # 1c188 <g_296>
   1523a:	48 89 85 18 ef ff ff 	mov    %rax,-0x10e8(%rbp)
   15241:	48 8d 85 d0 d5 ff ff 	lea    -0x2a30(%rbp),%rax
   15248:	48 83 c0 08          	add    $0x8,%rax
   1524c:	48 89 85 20 ef ff ff 	mov    %rax,-0x10e0(%rbp)
   15253:	48 8d 05 de 6e 00 00 	lea    0x6ede(%rip),%rax        # 1c138 <g_148>
   1525a:	48 89 85 28 ef ff ff 	mov    %rax,-0x10d8(%rbp)
   15261:	48 c7 85 30 ef ff ff 	movq   $0x0,-0x10d0(%rbp)
   15268:	00 00 00 00 
   1526c:	48 8d 85 68 d0 ff ff 	lea    -0x2f98(%rbp),%rax
   15273:	48 89 85 38 ef ff ff 	mov    %rax,-0x10c8(%rbp)
   1527a:	48 8d 85 d0 d5 ff ff 	lea    -0x2a30(%rbp),%rax
   15281:	48 83 c0 08          	add    $0x8,%rax
   15285:	48 89 85 40 ef ff ff 	mov    %rax,-0x10c0(%rbp)
   1528c:	48 8d 05 fd 6e 00 00 	lea    0x6efd(%rip),%rax        # 1c190 <g_321>
   15293:	48 89 85 48 ef ff ff 	mov    %rax,-0x10b8(%rbp)
   1529a:	48 8d 05 ef 6e 00 00 	lea    0x6eef(%rip),%rax        # 1c190 <g_321>
   152a1:	48 89 85 50 ef ff ff 	mov    %rax,-0x10b0(%rbp)
   152a8:	48 8d 85 d0 d5 ff ff 	lea    -0x2a30(%rbp),%rax
   152af:	48 83 c0 08          	add    $0x8,%rax
   152b3:	48 89 85 58 ef ff ff 	mov    %rax,-0x10a8(%rbp)
   152ba:	48 8d 85 68 d0 ff ff 	lea    -0x2f98(%rbp),%rax
   152c1:	48 89 85 60 ef ff ff 	mov    %rax,-0x10a0(%rbp)
   152c8:	48 8d 85 d0 d5 ff ff 	lea    -0x2a30(%rbp),%rax
   152cf:	48 83 c0 30          	add    $0x30,%rax
   152d3:	48 89 85 68 ef ff ff 	mov    %rax,-0x1098(%rbp)
   152da:	48 8d 85 68 d0 ff ff 	lea    -0x2f98(%rbp),%rax
   152e1:	48 89 85 70 ef ff ff 	mov    %rax,-0x1090(%rbp)
   152e8:	48 8d 05 a1 6e 00 00 	lea    0x6ea1(%rip),%rax        # 1c190 <g_321>
   152ef:	48 89 85 78 ef ff ff 	mov    %rax,-0x1088(%rbp)
   152f6:	48 8d 85 d0 d5 ff ff 	lea    -0x2a30(%rbp),%rax
   152fd:	48 83 c0 48          	add    $0x48,%rax
   15301:	48 89 85 80 ef ff ff 	mov    %rax,-0x1080(%rbp)
   15308:	48 8d 85 68 d0 ff ff 	lea    -0x2f98(%rbp),%rax
   1530f:	48 89 85 88 ef ff ff 	mov    %rax,-0x1078(%rbp)
   15316:	48 8d 85 68 d0 ff ff 	lea    -0x2f98(%rbp),%rax
   1531d:	48 89 85 90 ef ff ff 	mov    %rax,-0x1070(%rbp)
   15324:	48 c7 85 98 ef ff ff 	movq   $0x0,-0x1068(%rbp)
   1532b:	00 00 00 00 
   1532f:	48 c7 85 a0 ef ff ff 	movq   $0x0,-0x1060(%rbp)
   15336:	00 00 00 00 
   1533a:	48 8d 05 4f 6e 00 00 	lea    0x6e4f(%rip),%rax        # 1c190 <g_321>
   15341:	48 89 85 a8 ef ff ff 	mov    %rax,-0x1058(%rbp)
   15348:	48 8d 05 41 6e 00 00 	lea    0x6e41(%rip),%rax        # 1c190 <g_321>
   1534f:	48 89 85 b0 ef ff ff 	mov    %rax,-0x1050(%rbp)
   15356:	48 8d 05 2b 6e 00 00 	lea    0x6e2b(%rip),%rax        # 1c188 <g_296>
   1535d:	48 89 85 b8 ef ff ff 	mov    %rax,-0x1048(%rbp)
   15364:	48 8d 05 1d 6e 00 00 	lea    0x6e1d(%rip),%rax        # 1c188 <g_296>
   1536b:	48 89 85 c0 ef ff ff 	mov    %rax,-0x1040(%rbp)
   15372:	48 8d 85 68 d0 ff ff 	lea    -0x2f98(%rbp),%rax
   15379:	48 89 85 c8 ef ff ff 	mov    %rax,-0x1038(%rbp)
   15380:	48 8d 85 d0 d5 ff ff 	lea    -0x2a30(%rbp),%rax
   15387:	48 83 c0 48          	add    $0x48,%rax
   1538b:	48 89 85 d0 ef ff ff 	mov    %rax,-0x1030(%rbp)
   15392:	48 8d 05 9f 6d 00 00 	lea    0x6d9f(%rip),%rax        # 1c138 <g_148>
   15399:	48 89 85 d8 ef ff ff 	mov    %rax,-0x1028(%rbp)
   153a0:	48 8d 05 91 6d 00 00 	lea    0x6d91(%rip),%rax        # 1c138 <g_148>
   153a7:	48 89 85 e0 ef ff ff 	mov    %rax,-0x1020(%rbp)
   153ae:	48 8d 85 d0 d5 ff ff 	lea    -0x2a30(%rbp),%rax
   153b5:	48 83 c0 08          	add    $0x8,%rax
   153b9:	48 89 85 e8 ef ff ff 	mov    %rax,-0x1018(%rbp)
   153c0:	48 8d 05 c1 6d 00 00 	lea    0x6dc1(%rip),%rax        # 1c188 <g_296>
   153c7:	48 89 85 f0 ef ff ff 	mov    %rax,-0x1010(%rbp)
   153ce:	48 8d 85 d0 d5 ff ff 	lea    -0x2a30(%rbp),%rax
   153d5:	48 83 c0 08          	add    $0x8,%rax
   153d9:	48 89 85 f8 ef ff ff 	mov    %rax,-0x1008(%rbp)
   153e0:	48 8d 05 51 6d 00 00 	lea    0x6d51(%rip),%rax        # 1c138 <g_148>
   153e7:	48 89 85 00 f0 ff ff 	mov    %rax,-0x1000(%rbp)
   153ee:	48 8d 85 68 d0 ff ff 	lea    -0x2f98(%rbp),%rax
   153f5:	48 89 85 08 f0 ff ff 	mov    %rax,-0xff8(%rbp)
   153fc:	48 8d 85 d0 d5 ff ff 	lea    -0x2a30(%rbp),%rax
   15403:	48 83 c0 30          	add    $0x30,%rax
   15407:	48 89 85 10 f0 ff ff 	mov    %rax,-0xff0(%rbp)
   1540e:	48 8d 05 73 6d 00 00 	lea    0x6d73(%rip),%rax        # 1c188 <g_296>
   15415:	48 89 85 18 f0 ff ff 	mov    %rax,-0xfe8(%rbp)
   1541c:	48 c7 85 20 f0 ff ff 	movq   $0x0,-0xfe0(%rbp)
   15423:	00 00 00 00 
   15427:	48 8d 85 d0 d5 ff ff 	lea    -0x2a30(%rbp),%rax
   1542e:	48 83 c0 08          	add    $0x8,%rax
   15432:	48 89 85 28 f0 ff ff 	mov    %rax,-0xfd8(%rbp)
   15439:	48 8d 05 48 6d 00 00 	lea    0x6d48(%rip),%rax        # 1c188 <g_296>
   15440:	48 89 85 30 f0 ff ff 	mov    %rax,-0xfd0(%rbp)
   15447:	48 8d 85 68 d0 ff ff 	lea    -0x2f98(%rbp),%rax
   1544e:	48 89 85 38 f0 ff ff 	mov    %rax,-0xfc8(%rbp)
   15455:	48 8d 05 34 6d 00 00 	lea    0x6d34(%rip),%rax        # 1c190 <g_321>
   1545c:	48 89 85 40 f0 ff ff 	mov    %rax,-0xfc0(%rbp)
   15463:	48 8d 05 ce 6c 00 00 	lea    0x6cce(%rip),%rax        # 1c138 <g_148>
   1546a:	48 89 85 48 f0 ff ff 	mov    %rax,-0xfb8(%rbp)
   15471:	48 c7 85 50 f0 ff ff 	movq   $0x0,-0xfb0(%rbp)
   15478:	00 00 00 00 
   1547c:	48 8d 85 d0 d5 ff ff 	lea    -0x2a30(%rbp),%rax
   15483:	48 83 c0 30          	add    $0x30,%rax
   15487:	48 89 85 58 f0 ff ff 	mov    %rax,-0xfa8(%rbp)
   1548e:	48 8d 05 f3 6c 00 00 	lea    0x6cf3(%rip),%rax        # 1c188 <g_296>
   15495:	48 89 85 60 f0 ff ff 	mov    %rax,-0xfa0(%rbp)
   1549c:	48 c7 85 68 f0 ff ff 	movq   $0x0,-0xf98(%rbp)
   154a3:	00 00 00 00 
   154a7:	48 8d 85 d0 d5 ff ff 	lea    -0x2a30(%rbp),%rax
   154ae:	48 83 c0 30          	add    $0x30,%rax
   154b2:	48 89 85 70 f0 ff ff 	mov    %rax,-0xf90(%rbp)
   154b9:	48 8d 85 d0 d5 ff ff 	lea    -0x2a30(%rbp),%rax
   154c0:	48 83 c0 08          	add    $0x8,%rax
   154c4:	48 89 85 78 f0 ff ff 	mov    %rax,-0xf88(%rbp)
   154cb:	48 8d 05 66 6c 00 00 	lea    0x6c66(%rip),%rax        # 1c138 <g_148>
   154d2:	48 89 85 80 f0 ff ff 	mov    %rax,-0xf80(%rbp)
   154d9:	48 8d 05 58 6c 00 00 	lea    0x6c58(%rip),%rax        # 1c138 <g_148>
   154e0:	48 89 85 88 f0 ff ff 	mov    %rax,-0xf78(%rbp)
   154e7:	48 c7 85 90 f0 ff ff 	movq   $0x0,-0xf70(%rbp)
   154ee:	00 00 00 00 
   154f2:	48 c7 85 98 f0 ff ff 	movq   $0x0,-0xf68(%rbp)
   154f9:	00 00 00 00 
   154fd:	48 8d 05 34 6c 00 00 	lea    0x6c34(%rip),%rax        # 1c138 <g_148>
   15504:	48 89 85 a0 f0 ff ff 	mov    %rax,-0xf60(%rbp)
   1550b:	48 8d 85 d0 d5 ff ff 	lea    -0x2a30(%rbp),%rax
   15512:	48 83 c0 08          	add    $0x8,%rax
   15516:	48 89 85 a8 f0 ff ff 	mov    %rax,-0xf58(%rbp)
   1551d:	48 8d 85 68 d0 ff ff 	lea    -0x2f98(%rbp),%rax
   15524:	48 89 85 b0 f0 ff ff 	mov    %rax,-0xf50(%rbp)
   1552b:	48 8d 85 68 d0 ff ff 	lea    -0x2f98(%rbp),%rax
   15532:	48 89 85 b8 f0 ff ff 	mov    %rax,-0xf48(%rbp)
   15539:	48 8d 85 d0 d5 ff ff 	lea    -0x2a30(%rbp),%rax
   15540:	48 83 c0 18          	add    $0x18,%rax
   15544:	48 89 85 c0 f0 ff ff 	mov    %rax,-0xf40(%rbp)
   1554b:	48 8d 05 e6 6b 00 00 	lea    0x6be6(%rip),%rax        # 1c138 <g_148>
   15552:	48 89 85 c8 f0 ff ff 	mov    %rax,-0xf38(%rbp)
   15559:	48 c7 85 d0 f0 ff ff 	movq   $0x0,-0xf30(%rbp)
   15560:	00 00 00 00 
   15564:	48 8d 05 1d 6c 00 00 	lea    0x6c1d(%rip),%rax        # 1c188 <g_296>
   1556b:	48 89 85 d8 f0 ff ff 	mov    %rax,-0xf28(%rbp)
   15572:	48 8d 85 d0 d5 ff ff 	lea    -0x2a30(%rbp),%rax
   15579:	48 83 c0 28          	add    $0x28,%rax
   1557d:	48 89 85 e0 f0 ff ff 	mov    %rax,-0xf20(%rbp)
   15584:	48 8d 05 05 6c 00 00 	lea    0x6c05(%rip),%rax        # 1c190 <g_321>
   1558b:	48 89 85 e8 f0 ff ff 	mov    %rax,-0xf18(%rbp)
   15592:	48 8d 05 f7 6b 00 00 	lea    0x6bf7(%rip),%rax        # 1c190 <g_321>
   15599:	48 89 85 f0 f0 ff ff 	mov    %rax,-0xf10(%rbp)
   155a0:	48 8d 05 e9 6b 00 00 	lea    0x6be9(%rip),%rax        # 1c190 <g_321>
   155a7:	48 89 85 f8 f0 ff ff 	mov    %rax,-0xf08(%rbp)
   155ae:	48 8d 85 68 d0 ff ff 	lea    -0x2f98(%rbp),%rax
   155b5:	48 89 85 00 f1 ff ff 	mov    %rax,-0xf00(%rbp)
   155bc:	48 8d 85 d0 d5 ff ff 	lea    -0x2a30(%rbp),%rax
   155c3:	48 83 c0 10          	add    $0x10,%rax
   155c7:	48 89 85 08 f1 ff ff 	mov    %rax,-0xef8(%rbp)
   155ce:	48 c7 85 10 f1 ff ff 	movq   $0x0,-0xef0(%rbp)
   155d5:	00 00 00 00 
   155d9:	48 8d 85 68 d0 ff ff 	lea    -0x2f98(%rbp),%rax
   155e0:	48 89 85 18 f1 ff ff 	mov    %rax,-0xee8(%rbp)
   155e7:	48 8d 05 a2 6b 00 00 	lea    0x6ba2(%rip),%rax        # 1c190 <g_321>
   155ee:	48 89 85 20 f1 ff ff 	mov    %rax,-0xee0(%rbp)
   155f5:	48 8d 85 d0 d5 ff ff 	lea    -0x2a30(%rbp),%rax
   155fc:	48 83 c0 28          	add    $0x28,%rax
   15600:	48 89 85 28 f1 ff ff 	mov    %rax,-0xed8(%rbp)
   15607:	48 8d 05 7a 6b 00 00 	lea    0x6b7a(%rip),%rax        # 1c188 <g_296>
   1560e:	48 89 85 30 f1 ff ff 	mov    %rax,-0xed0(%rbp)
   15615:	48 c7 85 38 f1 ff ff 	movq   $0x0,-0xec8(%rbp)
   1561c:	00 00 00 00 
   15620:	48 8d 05 61 6b 00 00 	lea    0x6b61(%rip),%rax        # 1c188 <g_296>
   15627:	48 89 85 40 f1 ff ff 	mov    %rax,-0xec0(%rbp)
   1562e:	48 8d 85 68 d0 ff ff 	lea    -0x2f98(%rbp),%rax
   15635:	48 89 85 48 f1 ff ff 	mov    %rax,-0xeb8(%rbp)
   1563c:	48 8d 85 68 d0 ff ff 	lea    -0x2f98(%rbp),%rax
   15643:	48 89 85 50 f1 ff ff 	mov    %rax,-0xeb0(%rbp)
   1564a:	48 8d 85 d0 d5 ff ff 	lea    -0x2a30(%rbp),%rax
   15651:	48 83 c0 08          	add    $0x8,%rax
   15655:	48 89 85 58 f1 ff ff 	mov    %rax,-0xea8(%rbp)
   1565c:	48 8d 85 68 d0 ff ff 	lea    -0x2f98(%rbp),%rax
   15663:	48 89 85 60 f1 ff ff 	mov    %rax,-0xea0(%rbp)
   1566a:	48 c7 85 68 f1 ff ff 	movq   $0x0,-0xe98(%rbp)
   15671:	00 00 00 00 
   15675:	48 8d 85 d0 d5 ff ff 	lea    -0x2a30(%rbp),%rax
   1567c:	48 83 c0 28          	add    $0x28,%rax
   15680:	48 89 85 70 f1 ff ff 	mov    %rax,-0xe90(%rbp)
   15687:	48 8d 05 02 6b 00 00 	lea    0x6b02(%rip),%rax        # 1c190 <g_321>
   1568e:	48 89 85 78 f1 ff ff 	mov    %rax,-0xe88(%rbp)
   15695:	48 8d 85 68 d0 ff ff 	lea    -0x2f98(%rbp),%rax
   1569c:	48 89 85 80 f1 ff ff 	mov    %rax,-0xe80(%rbp)
   156a3:	48 8d 85 d0 d5 ff ff 	lea    -0x2a30(%rbp),%rax
   156aa:	48 83 c0 28          	add    $0x28,%rax
   156ae:	48 89 85 88 f1 ff ff 	mov    %rax,-0xe78(%rbp)
   156b5:	48 c7 85 90 f1 ff ff 	movq   $0x0,-0xe70(%rbp)
   156bc:	00 00 00 00 
   156c0:	48 8d 85 68 d0 ff ff 	lea    -0x2f98(%rbp),%rax
   156c7:	48 89 85 98 f1 ff ff 	mov    %rax,-0xe68(%rbp)
   156ce:	48 8d 05 bb 6a 00 00 	lea    0x6abb(%rip),%rax        # 1c190 <g_321>
   156d5:	48 89 85 a0 f1 ff ff 	mov    %rax,-0xe60(%rbp)
   156dc:	48 8d 85 d0 d5 ff ff 	lea    -0x2a30(%rbp),%rax
   156e3:	48 83 c0 38          	add    $0x38,%rax
   156e7:	48 89 85 a8 f1 ff ff 	mov    %rax,-0xe58(%rbp)
   156ee:	48 8d 05 43 6a 00 00 	lea    0x6a43(%rip),%rax        # 1c138 <g_148>
   156f5:	48 89 85 b0 f1 ff ff 	mov    %rax,-0xe50(%rbp)
   156fc:	48 8d 05 8d 6a 00 00 	lea    0x6a8d(%rip),%rax        # 1c190 <g_321>
   15703:	48 89 85 b8 f1 ff ff 	mov    %rax,-0xe48(%rbp)
   1570a:	48 c7 85 c0 f1 ff ff 	movq   $0x0,-0xe40(%rbp)
   15711:	00 00 00 00 
   15715:	48 8d 05 74 6a 00 00 	lea    0x6a74(%rip),%rax        # 1c190 <g_321>
   1571c:	48 89 85 c8 f1 ff ff 	mov    %rax,-0xe38(%rbp)
   15723:	48 8d 05 66 6a 00 00 	lea    0x6a66(%rip),%rax        # 1c190 <g_321>
   1572a:	48 89 85 d0 f1 ff ff 	mov    %rax,-0xe30(%rbp)
   15731:	48 8d 85 68 d0 ff ff 	lea    -0x2f98(%rbp),%rax
   15738:	48 89 85 d8 f1 ff ff 	mov    %rax,-0xe28(%rbp)
   1573f:	48 8d 85 68 d0 ff ff 	lea    -0x2f98(%rbp),%rax
   15746:	48 89 85 e0 f1 ff ff 	mov    %rax,-0xe20(%rbp)
   1574d:	48 8d 05 34 6a 00 00 	lea    0x6a34(%rip),%rax        # 1c188 <g_296>
   15754:	48 89 85 e8 f1 ff ff 	mov    %rax,-0xe18(%rbp)
   1575b:	48 8d 85 68 d0 ff ff 	lea    -0x2f98(%rbp),%rax
   15762:	48 89 85 f0 f1 ff ff 	mov    %rax,-0xe10(%rbp)
   15769:	48 8d 05 18 6a 00 00 	lea    0x6a18(%rip),%rax        # 1c188 <g_296>
   15770:	48 89 85 f8 f1 ff ff 	mov    %rax,-0xe08(%rbp)
   15777:	48 8d 85 d0 d5 ff ff 	lea    -0x2a30(%rbp),%rax
   1577e:	48 83 c0 38          	add    $0x38,%rax
   15782:	48 89 85 00 f2 ff ff 	mov    %rax,-0xe00(%rbp)
   15789:	48 8d 05 f8 69 00 00 	lea    0x69f8(%rip),%rax        # 1c188 <g_296>
   15790:	48 89 85 08 f2 ff ff 	mov    %rax,-0xdf8(%rbp)
   15797:	48 c7 85 10 f2 ff ff 	movq   $0x0,-0xdf0(%rbp)
   1579e:	00 00 00 00 
   157a2:	48 8d 85 d0 d5 ff ff 	lea    -0x2a30(%rbp),%rax
   157a9:	48 83 c0 28          	add    $0x28,%rax
   157ad:	48 89 85 18 f2 ff ff 	mov    %rax,-0xde8(%rbp)
   157b4:	48 8d 85 d0 d5 ff ff 	lea    -0x2a30(%rbp),%rax
   157bb:	48 83 c0 10          	add    $0x10,%rax
   157bf:	48 89 85 20 f2 ff ff 	mov    %rax,-0xde0(%rbp)
   157c6:	48 8d 05 c3 69 00 00 	lea    0x69c3(%rip),%rax        # 1c190 <g_321>
   157cd:	48 89 85 28 f2 ff ff 	mov    %rax,-0xdd8(%rbp)
   157d4:	48 8d 05 ad 69 00 00 	lea    0x69ad(%rip),%rax        # 1c188 <g_296>
   157db:	48 89 85 30 f2 ff ff 	mov    %rax,-0xdd0(%rbp)
   157e2:	48 c7 85 38 f2 ff ff 	movq   $0x0,-0xdc8(%rbp)
   157e9:	00 00 00 00 
   157ed:	48 8d 85 68 d0 ff ff 	lea    -0x2f98(%rbp),%rax
   157f4:	48 89 85 40 f2 ff ff 	mov    %rax,-0xdc0(%rbp)
   157fb:	48 8d 85 68 d0 ff ff 	lea    -0x2f98(%rbp),%rax
   15802:	48 89 85 48 f2 ff ff 	mov    %rax,-0xdb8(%rbp)
   15809:	48 8d 85 68 d0 ff ff 	lea    -0x2f98(%rbp),%rax
   15810:	48 89 85 50 f2 ff ff 	mov    %rax,-0xdb0(%rbp)
   15817:	48 8d 85 68 d0 ff ff 	lea    -0x2f98(%rbp),%rax
   1581e:	48 89 85 58 f2 ff ff 	mov    %rax,-0xda8(%rbp)
   15825:	48 8d 05 5c 69 00 00 	lea    0x695c(%rip),%rax        # 1c188 <g_296>
   1582c:	48 89 85 60 f2 ff ff 	mov    %rax,-0xda0(%rbp)
   15833:	48 c7 85 68 f2 ff ff 	movq   $0x0,-0xd98(%rbp)
   1583a:	00 00 00 00 
   1583e:	48 8d 85 d0 d5 ff ff 	lea    -0x2a30(%rbp),%rax
   15845:	48 83 c0 10          	add    $0x10,%rax
   15849:	48 89 85 70 f2 ff ff 	mov    %rax,-0xd90(%rbp)
   15850:	48 8d 05 31 69 00 00 	lea    0x6931(%rip),%rax        # 1c188 <g_296>
   15857:	48 89 85 78 f2 ff ff 	mov    %rax,-0xd88(%rbp)
   1585e:	48 8d 05 d3 68 00 00 	lea    0x68d3(%rip),%rax        # 1c138 <g_148>
   15865:	48 89 85 80 f2 ff ff 	mov    %rax,-0xd80(%rbp)
   1586c:	48 8d 85 68 d0 ff ff 	lea    -0x2f98(%rbp),%rax
   15873:	48 89 85 88 f2 ff ff 	mov    %rax,-0xd78(%rbp)
   1587a:	48 8d 05 07 69 00 00 	lea    0x6907(%rip),%rax        # 1c188 <g_296>
   15881:	48 89 85 90 f2 ff ff 	mov    %rax,-0xd70(%rbp)
   15888:	48 8d 05 f9 68 00 00 	lea    0x68f9(%rip),%rax        # 1c188 <g_296>
   1588f:	48 89 85 98 f2 ff ff 	mov    %rax,-0xd68(%rbp)
   15896:	48 8d 85 68 d0 ff ff 	lea    -0x2f98(%rbp),%rax
   1589d:	48 89 85 a0 f2 ff ff 	mov    %rax,-0xd60(%rbp)
   158a4:	48 8d 85 d0 d5 ff ff 	lea    -0x2a30(%rbp),%rax
   158ab:	48 83 c0 30          	add    $0x30,%rax
   158af:	48 89 85 a8 f2 ff ff 	mov    %rax,-0xd58(%rbp)
   158b6:	48 8d 05 d3 68 00 00 	lea    0x68d3(%rip),%rax        # 1c190 <g_321>
   158bd:	48 89 85 b0 f2 ff ff 	mov    %rax,-0xd50(%rbp)
   158c4:	48 c7 85 b8 f2 ff ff 	movq   $0x0,-0xd48(%rbp)
   158cb:	00 00 00 00 
   158cf:	48 8d 05 ba 68 00 00 	lea    0x68ba(%rip),%rax        # 1c190 <g_321>
   158d6:	48 89 85 c0 f2 ff ff 	mov    %rax,-0xd40(%rbp)
   158dd:	48 8d 05 ac 68 00 00 	lea    0x68ac(%rip),%rax        # 1c190 <g_321>
   158e4:	48 89 85 c8 f2 ff ff 	mov    %rax,-0xd38(%rbp)
   158eb:	48 c7 85 d0 f2 ff ff 	movq   $0x0,-0xd30(%rbp)
   158f2:	00 00 00 00 
   158f6:	48 8d 85 d0 d5 ff ff 	lea    -0x2a30(%rbp),%rax
   158fd:	48 83 c0 30          	add    $0x30,%rax
   15901:	48 89 85 d8 f2 ff ff 	mov    %rax,-0xd28(%rbp)
   15908:	48 c7 85 e0 f2 ff ff 	movq   $0x0,-0xd20(%rbp)
   1590f:	00 00 00 00 
   15913:	48 8d 85 d0 d5 ff ff 	lea    -0x2a30(%rbp),%rax
   1591a:	48 83 c0 38          	add    $0x38,%rax
   1591e:	48 89 85 e8 f2 ff ff 	mov    %rax,-0xd18(%rbp)
   15925:	48 8d 85 d0 d5 ff ff 	lea    -0x2a30(%rbp),%rax
   1592c:	48 83 c0 10          	add    $0x10,%rax
   15930:	48 89 85 f0 f2 ff ff 	mov    %rax,-0xd10(%rbp)
   15937:	48 8d 05 4a 68 00 00 	lea    0x684a(%rip),%rax        # 1c188 <g_296>
   1593e:	48 89 85 f8 f2 ff ff 	mov    %rax,-0xd08(%rbp)
   15945:	48 8d 05 44 68 00 00 	lea    0x6844(%rip),%rax        # 1c190 <g_321>
   1594c:	48 89 85 00 f3 ff ff 	mov    %rax,-0xd00(%rbp)
   15953:	48 8d 05 2e 68 00 00 	lea    0x682e(%rip),%rax        # 1c188 <g_296>
   1595a:	48 89 85 08 f3 ff ff 	mov    %rax,-0xcf8(%rbp)
   15961:	48 8d 85 68 d0 ff ff 	lea    -0x2f98(%rbp),%rax
   15968:	48 89 85 10 f3 ff ff 	mov    %rax,-0xcf0(%rbp)
   1596f:	48 8d 05 1a 68 00 00 	lea    0x681a(%rip),%rax        # 1c190 <g_321>
   15976:	48 89 85 18 f3 ff ff 	mov    %rax,-0xce8(%rbp)
   1597d:	48 8d 85 d0 d5 ff ff 	lea    -0x2a30(%rbp),%rax
   15984:	48 83 c0 10          	add    $0x10,%rax
   15988:	48 89 85 20 f3 ff ff 	mov    %rax,-0xce0(%rbp)
   1598f:	48 8d 85 68 d0 ff ff 	lea    -0x2f98(%rbp),%rax
   15996:	48 89 85 28 f3 ff ff 	mov    %rax,-0xcd8(%rbp)
   1599d:	48 8d 85 68 d0 ff ff 	lea    -0x2f98(%rbp),%rax
   159a4:	48 89 85 30 f3 ff ff 	mov    %rax,-0xcd0(%rbp)
   159ab:	48 8d 85 d0 d5 ff ff 	lea    -0x2a30(%rbp),%rax
   159b2:	48 83 c0 08          	add    $0x8,%rax
   159b6:	48 89 85 38 f3 ff ff 	mov    %rax,-0xcc8(%rbp)
   159bd:	48 8d 85 68 d0 ff ff 	lea    -0x2f98(%rbp),%rax
   159c4:	48 89 85 40 f3 ff ff 	mov    %rax,-0xcc0(%rbp)
   159cb:	48 8d 85 68 d0 ff ff 	lea    -0x2f98(%rbp),%rax
   159d2:	48 89 85 48 f3 ff ff 	mov    %rax,-0xcb8(%rbp)
   159d9:	48 8d 85 68 d0 ff ff 	lea    -0x2f98(%rbp),%rax
   159e0:	48 89 85 50 f3 ff ff 	mov    %rax,-0xcb0(%rbp)
   159e7:	48 8d 05 a2 67 00 00 	lea    0x67a2(%rip),%rax        # 1c190 <g_321>
   159ee:	48 89 85 58 f3 ff ff 	mov    %rax,-0xca8(%rbp)
   159f5:	48 8d 05 8c 67 00 00 	lea    0x678c(%rip),%rax        # 1c188 <g_296>
   159fc:	48 89 85 60 f3 ff ff 	mov    %rax,-0xca0(%rbp)
   15a03:	48 8d 05 7e 67 00 00 	lea    0x677e(%rip),%rax        # 1c188 <g_296>
   15a0a:	48 89 85 68 f3 ff ff 	mov    %rax,-0xc98(%rbp)
   15a11:	48 c7 85 70 f3 ff ff 	movq   $0x0,-0xc90(%rbp)
   15a18:	00 00 00 00 
   15a1c:	48 8d 85 68 d0 ff ff 	lea    -0x2f98(%rbp),%rax
   15a23:	48 89 85 78 f3 ff ff 	mov    %rax,-0xc88(%rbp)
   15a2a:	48 8d 85 d0 d5 ff ff 	lea    -0x2a30(%rbp),%rax
   15a31:	48 83 c0 30          	add    $0x30,%rax
   15a35:	48 89 85 80 f3 ff ff 	mov    %rax,-0xc80(%rbp)
   15a3c:	48 8d 85 d0 d5 ff ff 	lea    -0x2a30(%rbp),%rax
   15a43:	48 83 c0 10          	add    $0x10,%rax
   15a47:	48 89 85 88 f3 ff ff 	mov    %rax,-0xc78(%rbp)
   15a4e:	48 8d 85 68 d0 ff ff 	lea    -0x2f98(%rbp),%rax
   15a55:	48 89 85 90 f3 ff ff 	mov    %rax,-0xc70(%rbp)
   15a5c:	48 c7 85 98 f3 ff ff 	movq   $0x0,-0xc68(%rbp)
   15a63:	00 00 00 00 
   15a67:	48 8d 05 22 67 00 00 	lea    0x6722(%rip),%rax        # 1c190 <g_321>
   15a6e:	48 89 85 a0 f3 ff ff 	mov    %rax,-0xc60(%rbp)
   15a75:	48 8d 05 14 67 00 00 	lea    0x6714(%rip),%rax        # 1c190 <g_321>
   15a7c:	48 89 85 a8 f3 ff ff 	mov    %rax,-0xc58(%rbp)
   15a83:	48 8d 05 ae 66 00 00 	lea    0x66ae(%rip),%rax        # 1c138 <g_148>
   15a8a:	48 89 85 b0 f3 ff ff 	mov    %rax,-0xc50(%rbp)
   15a91:	48 8d 05 f8 66 00 00 	lea    0x66f8(%rip),%rax        # 1c190 <g_321>
   15a98:	48 89 85 b8 f3 ff ff 	mov    %rax,-0xc48(%rbp)
   15a9f:	48 c7 85 c0 f3 ff ff 	movq   $0x0,-0xc40(%rbp)
   15aa6:	00 00 00 00 
   15aaa:	48 c7 85 c8 f3 ff ff 	movq   $0x0,-0xc38(%rbp)
   15ab1:	00 00 00 00 
   15ab5:	48 8d 85 68 d0 ff ff 	lea    -0x2f98(%rbp),%rax
   15abc:	48 89 85 d0 f3 ff ff 	mov    %rax,-0xc30(%rbp)
   15ac3:	48 8d 85 d0 d5 ff ff 	lea    -0x2a30(%rbp),%rax
   15aca:	48 83 c0 38          	add    $0x38,%rax
   15ace:	48 89 85 d8 f3 ff ff 	mov    %rax,-0xc28(%rbp)
   15ad5:	48 8d 85 d0 d5 ff ff 	lea    -0x2a30(%rbp),%rax
   15adc:	48 83 c0 38          	add    $0x38,%rax
   15ae0:	48 89 85 e0 f3 ff ff 	mov    %rax,-0xc20(%rbp)
   15ae7:	48 8d 85 68 d0 ff ff 	lea    -0x2f98(%rbp),%rax
   15aee:	48 89 85 e8 f3 ff ff 	mov    %rax,-0xc18(%rbp)
   15af5:	48 c7 85 f0 f3 ff ff 	movq   $0x0,-0xc10(%rbp)
   15afc:	00 00 00 00 
   15b00:	48 8d 85 68 d0 ff ff 	lea    -0x2f98(%rbp),%rax
   15b07:	48 89 85 f8 f3 ff ff 	mov    %rax,-0xc08(%rbp)
   15b0e:	48 8d 05 73 66 00 00 	lea    0x6673(%rip),%rax        # 1c188 <g_296>
   15b15:	48 89 85 00 f4 ff ff 	mov    %rax,-0xc00(%rbp)
   15b1c:	48 8d 85 68 d0 ff ff 	lea    -0x2f98(%rbp),%rax
   15b23:	48 89 85 08 f4 ff ff 	mov    %rax,-0xbf8(%rbp)
   15b2a:	48 8d 85 d0 d5 ff ff 	lea    -0x2a30(%rbp),%rax
   15b31:	48 83 c0 10          	add    $0x10,%rax
   15b35:	48 89 85 10 f4 ff ff 	mov    %rax,-0xbf0(%rbp)
   15b3c:	48 c7 85 18 f4 ff ff 	movq   $0x0,-0xbe8(%rbp)
   15b43:	00 00 00 00 
   15b47:	48 8d 85 68 d0 ff ff 	lea    -0x2f98(%rbp),%rax
   15b4e:	48 89 85 20 f4 ff ff 	mov    %rax,-0xbe0(%rbp)
   15b55:	48 8d 85 68 d0 ff ff 	lea    -0x2f98(%rbp),%rax
   15b5c:	48 89 85 28 f4 ff ff 	mov    %rax,-0xbd8(%rbp)
   15b63:	48 8d 05 ce 65 00 00 	lea    0x65ce(%rip),%rax        # 1c138 <g_148>
   15b6a:	48 89 85 30 f4 ff ff 	mov    %rax,-0xbd0(%rbp)
   15b71:	48 8d 05 10 66 00 00 	lea    0x6610(%rip),%rax        # 1c188 <g_296>
   15b78:	48 89 85 38 f4 ff ff 	mov    %rax,-0xbc8(%rbp)
   15b7f:	48 c7 85 b8 d0 ff ff 	movq   $0x0,-0x2f48(%rbp)
   15b86:	00 00 00 00 
   15b8a:	48 8d 85 b8 d0 ff ff 	lea    -0x2f48(%rbp),%rax
   15b91:	48 89 85 18 d1 ff ff 	mov    %rax,-0x2ee8(%rbp)
   15b98:	48 8d 85 a0 d0 ff ff 	lea    -0x2f60(%rbp),%rax
   15b9f:	48 89 85 20 d1 ff ff 	mov    %rax,-0x2ee0(%rbp)
   15ba6:	8b 85 80 d3 ff ff    	mov    -0x2c80(%rbp),%eax
   15bac:	25 00 00 f0 ff       	and    $0xfff00000,%eax
   15bb1:	0c 89                	or     $0x89,%al
   15bb3:	89 85 80 d3 ff ff    	mov    %eax,-0x2c80(%rbp)
   15bb9:	8b 85 84 d3 ff ff    	mov    -0x2c7c(%rbp),%eax
   15bbf:	25 00 00 00 fe       	and    $0xfe000000,%eax
   15bc4:	0d 77 10 00 00       	or     $0x1077,%eax
   15bc9:	89 85 84 d3 ff ff    	mov    %eax,-0x2c7c(%rbp)
   15bcf:	8b 85 88 d3 ff ff    	mov    -0x2c78(%rbp),%eax
   15bd5:	25 00 00 80 ff       	and    $0xff800000,%eax
   15bda:	0d ff 01 00 00       	or     $0x1ff,%eax
   15bdf:	89 85 88 d3 ff ff    	mov    %eax,-0x2c78(%rbp)
   15be5:	0f b7 85 8a d3 ff ff 	movzwl -0x2c76(%rbp),%eax
   15bec:	66 25 7f c0          	and    $0xc07f,%ax
   15bf0:	66 0d 80 01          	or     $0x180,%ax
   15bf4:	66 89 85 8a d3 ff ff 	mov    %ax,-0x2c76(%rbp)
   15bfb:	8b 85 8c d3 ff ff    	mov    -0x2c74(%rbp),%eax
   15c01:	25 00 00 00 fc       	and    $0xfc000000,%eax
   15c06:	0d f6 17 00 00       	or     $0x17f6,%eax
   15c0b:	89 85 8c d3 ff ff    	mov    %eax,-0x2c74(%rbp)
   15c11:	0f b7 85 90 d3 ff ff 	movzwl -0x2c70(%rbp),%eax
   15c18:	66 25 00 fe          	and    $0xfe00,%ax
   15c1c:	83 c8 15             	or     $0x15,%eax
   15c1f:	66 89 85 90 d3 ff ff 	mov    %ax,-0x2c70(%rbp)
   15c26:	0f b6 85 91 d3 ff ff 	movzbl -0x2c6f(%rbp),%eax
   15c2d:	83 e0 f1             	and    $0xfffffff1,%eax
   15c30:	83 c8 02             	or     $0x2,%eax
   15c33:	88 85 91 d3 ff ff    	mov    %al,-0x2c6f(%rbp)
   15c39:	48 c7 85 28 d1 ff ff 	movq   $0x0,-0x2ed8(%rbp)
   15c40:	00 00 00 00 
   15c44:	48 c7 85 30 d1 ff ff 	movq   $0x0,-0x2ed0(%rbp)
   15c4b:	00 00 00 00 
   15c4f:	48 8d 85 40 f4 ff ff 	lea    -0xbc0(%rbp),%rax
   15c56:	48 8d 15 23 27 00 00 	lea    0x2723(%rip),%rdx        # 18380 <g_2409+0x1310>
   15c5d:	b9 6f 01 00 00       	mov    $0x16f,%ecx
   15c62:	48 89 c7             	mov    %rax,%rdi
   15c65:	48 89 d6             	mov    %rdx,%rsi
   15c68:	f3 48 a5             	rep movsq %ds:(%rsi),%es:(%rdi)
   15c6b:	48 89 f2             	mov    %rsi,%rdx
   15c6e:	48 89 f8             	mov    %rdi,%rax
   15c71:	8b 0a                	mov    (%rdx),%ecx
   15c73:	89 08                	mov    %ecx,(%rax)
   15c75:	48 8d 40 04          	lea    0x4(%rax),%rax
   15c79:	48 8d 52 04          	lea    0x4(%rdx),%rdx
   15c7d:	66 c7 85 00 df ff ff 	movw   $0x22d9,-0x2100(%rbp)
   15c84:	d9 22 
   15c86:	66 c7 85 02 df ff ff 	movw   $0x22d9,-0x20fe(%rbp)
   15c8d:	d9 22 
   15c8f:	66 c7 85 04 df ff ff 	movw   $0x22d9,-0x20fc(%rbp)
   15c96:	d9 22 
   15c98:	66 c7 85 06 df ff ff 	movw   $0x22d9,-0x20fa(%rbp)
   15c9f:	d9 22 
   15ca1:	66 c7 85 08 df ff ff 	movw   $0x22d9,-0x20f8(%rbp)
   15ca8:	d9 22 
   15caa:	66 c7 85 0a df ff ff 	movw   $0x22d9,-0x20f6(%rbp)
   15cb1:	d9 22 
   15cb3:	c7 85 64 cf ff ff 00 	movl   $0x0,-0x309c(%rbp)
   15cba:	00 00 00 
   15cbd:	eb 1a                	jmp    15cd9 <func_57+0x69b5>
   15cbf:	8b 85 64 cf ff ff    	mov    -0x309c(%rbp),%eax
   15cc5:	48 98                	cltq   
   15cc7:	c7 84 85 c0 e6 ff ff 	movl   $0x9f46fffb,-0x1940(%rbp,%rax,4)
   15cce:	fb ff 46 9f 
   15cd2:	83 85 64 cf ff ff 01 	addl   $0x1,-0x309c(%rbp)
   15cd9:	83 bd 64 cf ff ff 09 	cmpl   $0x9,-0x309c(%rbp)
   15ce0:	7e dd                	jle    15cbf <func_57+0x699b>
   15ce2:	0f b6 85 03 cf ff ff 	movzbl -0x30fd(%rbp),%eax
   15ce9:	83 e8 01             	sub    $0x1,%eax
   15cec:	88 85 03 cf ff ff    	mov    %al,-0x30fd(%rbp)
   15cf2:	80 bd 03 cf ff ff 00 	cmpb   $0x0,-0x30fd(%rbp)
   15cf9:	0f 89 b1 ef ff ff    	jns    14cb0 <func_57+0x598c>
   15cff:	48 8b 05 d2 97 00 00 	mov    0x97d2(%rip),%rax        # 1f4d8 <g_1172>
   15d06:	48 8b 00             	mov    (%rax),%rax
   15d09:	48 8b 00             	mov    (%rax),%rax
   15d0c:	48 8b 5d d8          	mov    -0x28(%rbp),%rbx
   15d10:	64 48 33 1c 25 28 00 	xor    %fs:0x28,%rbx
   15d17:	00 00 
   15d19:	74 05                	je     15d20 <func_57+0x69fc>
   15d1b:	e8 50 33 ff ff       	callq  9070 <__stack_chk_fail@plt>
   15d20:	48 81 c4 f8 30 00 00 	add    $0x30f8,%rsp
   15d27:	5b                   	pop    %rbx
   15d28:	41 5c                	pop    %r12
   15d2a:	41 5d                	pop    %r13
   15d2c:	5d                   	pop    %rbp
   15d2d:	c3                   	retq   

0000000000015d2e <func_61>:
   15d2e:	f3 0f 1e fa          	endbr64 
   15d32:	55                   	push   %rbp
   15d33:	48 89 e5             	mov    %rsp,%rbp
   15d36:	41 54                	push   %r12
   15d38:	53                   	push   %rbx
   15d39:	48 81 ec 10 02 00 00 	sub    $0x210,%rsp
   15d40:	48 89 bd f8 fd ff ff 	mov    %rdi,-0x208(%rbp)
   15d47:	89 b5 f4 fd ff ff    	mov    %esi,-0x20c(%rbp)
   15d4d:	48 89 95 e8 fd ff ff 	mov    %rdx,-0x218(%rbp)
   15d54:	89 c8                	mov    %ecx,%eax
   15d56:	66 89 85 f0 fd ff ff 	mov    %ax,-0x210(%rbp)
   15d5d:	64 48 8b 04 25 28 00 	mov    %fs:0x28,%rax
   15d64:	00 00 
   15d66:	48 89 45 e8          	mov    %rax,-0x18(%rbp)
   15d6a:	31 c0                	xor    %eax,%eax
   15d6c:	48 8d 85 60 fe ff ff 	lea    -0x1a0(%rbp),%rax
   15d73:	48 8d 15 86 83 00 00 	lea    0x8386(%rip),%rdx        # 1e100 <g_2805+0x17e0>
   15d7a:	b9 30 00 00 00       	mov    $0x30,%ecx
   15d7f:	48 89 c7             	mov    %rax,%rdi
   15d82:	48 89 d6             	mov    %rdx,%rsi
   15d85:	f3 48 a5             	rep movsq %ds:(%rsi),%es:(%rdi)
   15d88:	c7 85 0c fe ff ff 27 	movl   $0x9e808e27,-0x1f4(%rbp)
   15d8f:	8e 80 9e 
   15d92:	48 8d 05 03 63 00 00 	lea    0x6303(%rip),%rax        # 1c09c <g_87>
   15d99:	48 89 85 20 fe ff ff 	mov    %rax,-0x1e0(%rbp)
   15da0:	48 8d 05 f9 62 00 00 	lea    0x62f9(%rip),%rax        # 1c0a0 <g_89>
   15da7:	48 89 85 28 fe ff ff 	mov    %rax,-0x1d8(%rbp)
   15dae:	48 8d 85 0c fe ff ff 	lea    -0x1f4(%rbp),%rax
   15db5:	48 89 85 10 fe ff ff 	mov    %rax,-0x1f0(%rbp)
   15dbc:	48 8d 85 10 fe ff ff 	lea    -0x1f0(%rbp),%rax
   15dc3:	48 89 85 30 fe ff ff 	mov    %rax,-0x1d0(%rbp)
   15dca:	48 c7 85 38 fe ff ff 	movq   $0x0,-0x1c8(%rbp)
   15dd1:	00 00 00 00 
   15dd5:	48 8d 85 60 fe ff ff 	lea    -0x1a0(%rbp),%rax
   15ddc:	48 05 a8 00 00 00    	add    $0xa8,%rax
   15de2:	48 89 85 40 fe ff ff 	mov    %rax,-0x1c0(%rbp)
   15de9:	48 8d 05 80 62 00 00 	lea    0x6280(%rip),%rax        # 1c070 <g_14+0x30>
   15df0:	48 89 85 18 fe ff ff 	mov    %rax,-0x1e8(%rbp)
   15df7:	48 8d 85 18 fe ff ff 	lea    -0x1e8(%rbp),%rax
   15dfe:	48 89 85 48 fe ff ff 	mov    %rax,-0x1b8(%rbp)
   15e05:	48 8d 05 20 63 00 00 	lea    0x6320(%rip),%rax        # 1c12c <g_109>
   15e0c:	48 89 85 50 fe ff ff 	mov    %rax,-0x1b0(%rbp)
   15e13:	48 8d 05 8a 62 00 00 	lea    0x628a(%rip),%rax        # 1c0a4 <g_99>
   15e1a:	48 89 85 58 fe ff ff 	mov    %rax,-0x1a8(%rbp)
   15e21:	8b 45 14             	mov    0x14(%rbp),%eax
   15e24:	25 ff ff ff 01       	and    $0x1ffffff,%eax
   15e29:	89 c2                	mov    %eax,%edx
   15e2b:	48 83 bd f8 fd ff ff 	cmpq   $0x0,-0x208(%rbp)
   15e32:	00 
   15e33:	0f 95 c0             	setne  %al
   15e36:	0f b6 c0             	movzbl %al,%eax
   15e39:	21 d0                	and    %edx,%eax
   15e3b:	25 ff ff ff 01       	and    $0x1ffffff,%eax
   15e40:	25 ff ff ff 01       	and    $0x1ffffff,%eax
   15e45:	89 c2                	mov    %eax,%edx
   15e47:	8b 45 14             	mov    0x14(%rbp),%eax
   15e4a:	25 00 00 00 fe       	and    $0xfe000000,%eax
   15e4f:	09 d0                	or     %edx,%eax
   15e51:	89 45 14             	mov    %eax,0x14(%rbp)
   15e54:	8b 45 14             	mov    0x14(%rbp),%eax
   15e57:	25 ff ff ff 01       	and    $0x1ffffff,%eax
   15e5c:	89 85 0c fe ff ff    	mov    %eax,-0x1f4(%rbp)
   15e62:	8b 85 0c fe ff ff    	mov    -0x1f4(%rbp),%eax
   15e68:	85 c0                	test   %eax,%eax
   15e6a:	75 4e                	jne    15eba <func_61+0x18c>
   15e6c:	48 8b 85 20 fe ff ff 	mov    -0x1e0(%rbp),%rax
   15e73:	66 c7 00 47 b8       	movw   $0xb847,(%rax)
   15e78:	be 00 00 00 00       	mov    $0x0,%esi
   15e7d:	bf 01 00 00 00       	mov    $0x1,%edi
   15e82:	e8 0c 3d ff ff       	callq  9b93 <safe_mul_func_uint8_t_u_u>
   15e87:	8b 55 10             	mov    0x10(%rbp),%edx
   15e8a:	81 e2 ff ff 0f 00    	and    $0xfffff,%edx
   15e90:	0f b6 c0             	movzbl %al,%eax
   15e93:	31 d0                	xor    %edx,%eax
   15e95:	25 ff ff 0f 00       	and    $0xfffff,%eax
   15e9a:	25 ff ff 0f 00       	and    $0xfffff,%eax
   15e9f:	89 c2                	mov    %eax,%edx
   15ea1:	8b 45 10             	mov    0x10(%rbp),%eax
   15ea4:	25 00 00 f0 ff       	and    $0xfff00000,%eax
   15ea9:	09 d0                	or     %edx,%eax
   15eab:	89 45 10             	mov    %eax,0x10(%rbp)
   15eae:	8b 45 10             	mov    0x10(%rbp),%eax
   15eb1:	25 ff ff 0f 00       	and    $0xfffff,%eax
   15eb6:	85 c0                	test   %eax,%eax
   15eb8:	74 07                	je     15ec1 <func_61+0x193>
   15eba:	ba 01 00 00 00       	mov    $0x1,%edx
   15ebf:	eb 05                	jmp    15ec6 <func_61+0x198>
   15ec1:	ba 00 00 00 00       	mov    $0x0,%edx
   15ec6:	48 8b 85 28 fe ff ff 	mov    -0x1d8(%rbp),%rax
   15ecd:	89 10                	mov    %edx,(%rax)
   15ecf:	8b 45 1c             	mov    0x1c(%rbp),%eax
   15ed2:	c1 e0 06             	shl    $0x6,%eax
   15ed5:	c1 f8 06             	sar    $0x6,%eax
   15ed8:	41 89 c4             	mov    %eax,%r12d
   15edb:	48 8b 05 6e 86 00 00 	mov    0x866e(%rip),%rax        # 1e550 <g_106>
   15ee2:	48 8b 85 40 fe ff ff 	mov    -0x1c0(%rbp),%rax
   15ee9:	48 8b 95 28 fe ff ff 	mov    -0x1d8(%rbp),%rdx
   15ef0:	48 89 10             	mov    %rdx,(%rax)
   15ef3:	48 8b 85 40 fe ff ff 	mov    -0x1c0(%rbp),%rax
   15efa:	48 8b 10             	mov    (%rax),%rdx
   15efd:	48 8b 85 48 fe ff ff 	mov    -0x1b8(%rbp),%rax
   15f04:	48 89 10             	mov    %rdx,(%rax)
   15f07:	48 8b 85 48 fe ff ff 	mov    -0x1b8(%rbp),%rax
   15f0e:	48 8b 00             	mov    (%rax),%rax
   15f11:	48 8d 15 80 61 00 00 	lea    0x6180(%rip),%rdx        # 1c098 <g_81>
   15f18:	48 39 d0             	cmp    %rdx,%rax
   15f1b:	0f 95 c0             	setne  %al
   15f1e:	0f b6 d8             	movzbl %al,%ebx
   15f21:	48 8d 85 0c fe ff ff 	lea    -0x1f4(%rbp),%rax
   15f28:	48 89 05 a9 85 00 00 	mov    %rax,0x85a9(%rip)        # 1e4d8 <g_98+0x138>
   15f2f:	48 8b 15 a2 85 00 00 	mov    0x85a2(%rip),%rdx        # 1e4d8 <g_98+0x138>
   15f36:	48 8b 85 30 fe ff ff 	mov    -0x1d0(%rbp),%rax
   15f3d:	48 89 10             	mov    %rdx,(%rax)
   15f40:	48 8b 85 30 fe ff ff 	mov    -0x1d0(%rbp),%rax
   15f47:	48 8b 10             	mov    (%rax),%rdx
   15f4a:	48 8d 85 0c fe ff ff 	lea    -0x1f4(%rbp),%rax
   15f51:	48 39 c2             	cmp    %rax,%rdx
   15f54:	0f 95 c0             	setne  %al
   15f57:	0f b6 d0             	movzbl %al,%edx
   15f5a:	48 8b 85 28 fe ff ff 	mov    -0x1d8(%rbp),%rax
   15f61:	8b 00                	mov    (%rax),%eax
   15f63:	0f b7 c0             	movzwl %ax,%eax
   15f66:	89 d6                	mov    %edx,%esi
   15f68:	89 c7                	mov    %eax,%edi
   15f6a:	e8 4f 3e ff ff       	callq  9dbe <safe_lshift_func_uint16_t_u_s>
   15f6f:	0f b7 d0             	movzwl %ax,%edx
   15f72:	48 8b 85 28 fe ff ff 	mov    -0x1d8(%rbp),%rax
   15f79:	89 10                	mov    %edx,(%rax)
   15f7b:	48 8b 85 28 fe ff ff 	mov    -0x1d8(%rbp),%rax
   15f82:	8b 00                	mov    (%rax),%eax
   15f84:	85 c0                	test   %eax,%eax
   15f86:	74 17                	je     15f9f <func_61+0x271>
   15f88:	48 8b 85 30 fe ff ff 	mov    -0x1d0(%rbp),%rax
   15f8f:	48 8b 00             	mov    (%rax),%rax
   15f92:	8b 00                	mov    (%rax),%eax
   15f94:	85 c0                	test   %eax,%eax
   15f96:	74 07                	je     15f9f <func_61+0x271>
   15f98:	b8 01 00 00 00       	mov    $0x1,%eax
   15f9d:	eb 05                	jmp    15fa4 <func_61+0x276>
   15f9f:	b8 00 00 00 00       	mov    $0x0,%eax
   15fa4:	0f b6 c0             	movzbl %al,%eax
   15fa7:	89 de                	mov    %ebx,%esi
   15fa9:	89 c7                	mov    %eax,%edi
   15fab:	e8 e3 3b ff ff       	callq  9b93 <safe_mul_func_uint8_t_u_u>
   15fb0:	48 8b 85 50 fe ff ff 	mov    -0x1b0(%rbp),%rax
   15fb7:	c6 00 00             	movb   $0x0,(%rax)
   15fba:	48 8b 85 50 fe ff ff 	mov    -0x1b0(%rbp),%rax
   15fc1:	0f b6 00             	movzbl (%rax),%eax
   15fc4:	0f b6 c0             	movzbl %al,%eax
   15fc7:	44 89 e6             	mov    %r12d,%esi
   15fca:	89 c7                	mov    %eax,%edi
   15fcc:	e8 bc 3c ff ff       	callq  9c8d <safe_rshift_func_uint8_t_u_s>
   15fd1:	0f b6 c0             	movzbl %al,%eax
   15fd4:	be 36 74 00 00       	mov    $0x7436,%esi
   15fd9:	89 c7                	mov    %eax,%edi
   15fdb:	e8 36 34 ff ff       	callq  9416 <safe_mod_func_int16_t_s_s>
   15fe0:	48 8b 85 58 fe ff ff 	mov    -0x1a8(%rbp),%rax
   15fe7:	c7 00 cd 27 8b b8    	movl   $0xb88b27cd,(%rax)
   15fed:	48 8d 05 95 60 00 00 	lea    0x6095(%rip),%rax        # 1c089 <g_68>
   15ff4:	48 8b 5d e8          	mov    -0x18(%rbp),%rbx
   15ff8:	64 48 33 1c 25 28 00 	xor    %fs:0x28,%rbx
   15fff:	00 00 
   16001:	74 05                	je     16008 <func_61+0x2da>
   16003:	e8 68 30 ff ff       	callq  9070 <__stack_chk_fail@plt>
   16008:	48 81 c4 10 02 00 00 	add    $0x210,%rsp
   1600f:	5b                   	pop    %rbx
   16010:	41 5c                	pop    %r12
   16012:	5d                   	pop    %rbp
   16013:	c3                   	retq   

0000000000016014 <main>:
   16014:	f3 0f 1e fa          	endbr64 
   16018:	55                   	push   %rbp
   16019:	48 89 e5             	mov    %rsp,%rbp
   1601c:	48 83 ec 20          	sub    $0x20,%rsp
   16020:	89 7d ec             	mov    %edi,-0x14(%rbp)
   16023:	48 89 75 e0          	mov    %rsi,-0x20(%rbp)
   16027:	c7 45 fc 00 00 00 00 	movl   $0x0,-0x4(%rbp)
   1602e:	83 7d ec 02          	cmpl   $0x2,-0x14(%rbp)
   16032:	74 25                	je     16059 <main+0x45>
   16034:	48 8b 45 e0          	mov    -0x20(%rbp),%rax
   16038:	48 83 c0 08          	add    $0x8,%rax
   1603c:	48 8b 00             	mov    (%rax),%rax
   1603f:	48 8d 35 b6 2e 00 00 	lea    0x2eb6(%rip),%rsi        # 18efc <g_2409+0x1e8c>
   16046:	48 89 c7             	mov    %rax,%rdi
   16049:	e8 42 30 ff ff       	callq  9090 <strcmp@plt>
   1604e:	85 c0                	test   %eax,%eax
   16050:	74 07                	je     16059 <main+0x45>
   16052:	c7 45 fc 01 00 00 00 	movl   $0x1,-0x4(%rbp)
   16059:	e8 2b 31 ff ff       	callq  9189 <platform_main_begin>
   1605e:	e8 35 45 ff ff       	callq  a598 <crc32_gentab>
   16063:	e8 4d 47 ff ff       	callq  a7b5 <func_1>
   16068:	c7 45 f0 00 00 00 00 	movl   $0x0,-0x10(%rbp)
   1606f:	eb 79                	jmp    160ea <main+0xd6>
   16071:	c7 45 f4 00 00 00 00 	movl   $0x0,-0xc(%rbp)
   16078:	eb 66                	jmp    160e0 <main+0xcc>
   1607a:	8b 45 f4             	mov    -0xc(%rbp),%eax
   1607d:	48 63 c8             	movslq %eax,%rcx
   16080:	8b 45 f0             	mov    -0x10(%rbp),%eax
   16083:	48 63 d0             	movslq %eax,%rdx
   16086:	48 89 d0             	mov    %rdx,%rax
   16089:	48 01 c0             	add    %rax,%rax
   1608c:	48 01 d0             	add    %rdx,%rax
   1608f:	48 01 c0             	add    %rax,%rax
   16092:	48 01 c8             	add    %rcx,%rax
   16095:	48 8d 14 85 00 00 00 	lea    0x0(,%rax,4),%rdx
   1609c:	00 
   1609d:	48 8d 05 9c 5f 00 00 	lea    0x5f9c(%rip),%rax        # 1c040 <g_14>
   160a4:	8b 04 02             	mov    (%rdx,%rax,1),%eax
   160a7:	89 c1                	mov    %eax,%ecx
   160a9:	8b 45 fc             	mov    -0x4(%rbp),%eax
   160ac:	89 c2                	mov    %eax,%edx
   160ae:	48 8d 35 49 2e 00 00 	lea    0x2e49(%rip),%rsi        # 18efe <g_2409+0x1e8e>
   160b5:	48 89 cf             	mov    %rcx,%rdi
   160b8:	e8 36 46 ff ff       	callq  a6f3 <transparent_crc>
   160bd:	83 7d fc 00          	cmpl   $0x0,-0x4(%rbp)
   160c1:	74 19                	je     160dc <main+0xc8>
   160c3:	8b 55 f4             	mov    -0xc(%rbp),%edx
   160c6:	8b 45 f0             	mov    -0x10(%rbp),%eax
   160c9:	89 c6                	mov    %eax,%esi
   160cb:	48 8d 3d 37 2e 00 00 	lea    0x2e37(%rip),%rdi        # 18f09 <g_2409+0x1e99>
   160d2:	b8 00 00 00 00       	mov    $0x0,%eax
   160d7:	e8 a4 2f ff ff       	callq  9080 <printf@plt>
   160dc:	83 45 f4 01          	addl   $0x1,-0xc(%rbp)
   160e0:	83 7d f4 05          	cmpl   $0x5,-0xc(%rbp)
   160e4:	7e 94                	jle    1607a <main+0x66>
   160e6:	83 45 f0 01          	addl   $0x1,-0x10(%rbp)
   160ea:	83 7d f0 02          	cmpl   $0x2,-0x10(%rbp)
   160ee:	7e 81                	jle    16071 <main+0x5d>
   160f0:	0f b6 05 91 5f 00 00 	movzbl 0x5f91(%rip),%eax        # 1c088 <g_52>
   160f7:	48 0f be c0          	movsbq %al,%rax
   160fb:	8b 55 fc             	mov    -0x4(%rbp),%edx
   160fe:	48 8d 35 16 2e 00 00 	lea    0x2e16(%rip),%rsi        # 18f1b <g_2409+0x1eab>
   16105:	48 89 c7             	mov    %rax,%rdi
   16108:	e8 e6 45 ff ff       	callq  a6f3 <transparent_crc>
   1610d:	0f b6 05 75 5f 00 00 	movzbl 0x5f75(%rip),%eax        # 1c089 <g_68>
   16114:	48 0f be c0          	movsbq %al,%rax
   16118:	8b 55 fc             	mov    -0x4(%rbp),%edx
   1611b:	48 8d 35 fe 2d 00 00 	lea    0x2dfe(%rip),%rsi        # 18f20 <g_2409+0x1eb0>
   16122:	48 89 c7             	mov    %rax,%rdi
   16125:	e8 c9 45 ff ff       	callq  a6f3 <transparent_crc>
   1612a:	48 8b 05 5f 5f 00 00 	mov    0x5f5f(%rip),%rax        # 1c090 <g_78>
   16131:	48 89 c1             	mov    %rax,%rcx
   16134:	8b 45 fc             	mov    -0x4(%rbp),%eax
   16137:	89 c2                	mov    %eax,%edx
   16139:	48 8d 35 e5 2d 00 00 	lea    0x2de5(%rip),%rsi        # 18f25 <g_2409+0x1eb5>
   16140:	48 89 cf             	mov    %rcx,%rdi
   16143:	e8 ab 45 ff ff       	callq  a6f3 <transparent_crc>
   16148:	8b 05 4a 5f 00 00    	mov    0x5f4a(%rip),%eax        # 1c098 <g_81>
   1614e:	89 c1                	mov    %eax,%ecx
   16150:	8b 45 fc             	mov    -0x4(%rbp),%eax
   16153:	89 c2                	mov    %eax,%edx
   16155:	48 8d 35 ce 2d 00 00 	lea    0x2dce(%rip),%rsi        # 18f2a <g_2409+0x1eba>
   1615c:	48 89 cf             	mov    %rcx,%rdi
   1615f:	e8 8f 45 ff ff       	callq  a6f3 <transparent_crc>
   16164:	0f b7 05 31 5f 00 00 	movzwl 0x5f31(%rip),%eax        # 1c09c <g_87>
   1616b:	0f b7 c0             	movzwl %ax,%eax
   1616e:	8b 55 fc             	mov    -0x4(%rbp),%edx
   16171:	48 8d 35 b7 2d 00 00 	lea    0x2db7(%rip),%rsi        # 18f2f <g_2409+0x1ebf>
   16178:	48 89 c7             	mov    %rax,%rdi
   1617b:	e8 73 45 ff ff       	callq  a6f3 <transparent_crc>
   16180:	8b 05 1a 5f 00 00    	mov    0x5f1a(%rip),%eax        # 1c0a0 <g_89>
   16186:	48 98                	cltq   
   16188:	8b 55 fc             	mov    -0x4(%rbp),%edx
   1618b:	48 8d 35 a2 2d 00 00 	lea    0x2da2(%rip),%rsi        # 18f34 <g_2409+0x1ec4>
   16192:	48 89 c7             	mov    %rax,%rdi
   16195:	e8 59 45 ff ff       	callq  a6f3 <transparent_crc>
   1619a:	8b 05 04 5f 00 00    	mov    0x5f04(%rip),%eax        # 1c0a4 <g_99>
   161a0:	48 98                	cltq   
   161a2:	8b 55 fc             	mov    -0x4(%rbp),%edx
   161a5:	48 8d 35 8d 2d 00 00 	lea    0x2d8d(%rip),%rsi        # 18f39 <g_2409+0x1ec9>
   161ac:	48 89 c7             	mov    %rax,%rdi
   161af:	e8 3f 45 ff ff       	callq  a6f3 <transparent_crc>
   161b4:	c7 45 f0 00 00 00 00 	movl   $0x0,-0x10(%rbp)
   161bb:	e9 b5 00 00 00       	jmpq   16275 <main+0x261>
   161c0:	c7 45 f4 00 00 00 00 	movl   $0x0,-0xc(%rbp)
   161c7:	e9 9b 00 00 00       	jmpq   16267 <main+0x253>
   161cc:	c7 45 f8 00 00 00 00 	movl   $0x0,-0x8(%rbp)
   161d3:	e9 81 00 00 00       	jmpq   16259 <main+0x245>
   161d8:	8b 45 f8             	mov    -0x8(%rbp),%eax
   161db:	48 63 f0             	movslq %eax,%rsi
   161de:	8b 45 f0             	mov    -0x10(%rbp),%eax
   161e1:	48 63 d0             	movslq %eax,%rdx
   161e4:	8b 45 f4             	mov    -0xc(%rbp),%eax
   161e7:	48 63 c8             	movslq %eax,%rcx
   161ea:	48 89 d0             	mov    %rdx,%rax
   161ed:	48 01 c0             	add    %rax,%rax
   161f0:	48 01 d0             	add    %rdx,%rax
   161f3:	48 8d 14 c5 00 00 00 	lea    0x0(,%rax,8),%rdx
   161fa:	00 
   161fb:	48 01 d0             	add    %rdx,%rax
   161fe:	48 89 ca             	mov    %rcx,%rdx
   16201:	48 c1 e2 03          	shl    $0x3,%rdx
   16205:	48 01 ca             	add    %rcx,%rdx
   16208:	48 01 d0             	add    %rdx,%rax
   1620b:	48 01 f0             	add    %rsi,%rax
   1620e:	48 8d 14 00          	lea    (%rax,%rax,1),%rdx
   16212:	48 8d 05 a7 5e 00 00 	lea    0x5ea7(%rip),%rax        # 1c0c0 <g_107>
   16219:	0f b7 04 02          	movzwl (%rdx,%rax,1),%eax
   1621d:	48 0f bf c0          	movswq %ax,%rax
   16221:	8b 55 fc             	mov    -0x4(%rbp),%edx
   16224:	48 8d 35 13 2d 00 00 	lea    0x2d13(%rip),%rsi        # 18f3e <g_2409+0x1ece>
   1622b:	48 89 c7             	mov    %rax,%rdi
   1622e:	e8 c0 44 ff ff       	callq  a6f3 <transparent_crc>
   16233:	83 7d fc 00          	cmpl   $0x0,-0x4(%rbp)
   16237:	74 1c                	je     16255 <main+0x241>
   16239:	8b 4d f8             	mov    -0x8(%rbp),%ecx
   1623c:	8b 55 f4             	mov    -0xc(%rbp),%edx
   1623f:	8b 45 f0             	mov    -0x10(%rbp),%eax
   16242:	89 c6                	mov    %eax,%esi
   16244:	48 8d 3d 02 2d 00 00 	lea    0x2d02(%rip),%rdi        # 18f4d <g_2409+0x1edd>
   1624b:	b8 00 00 00 00       	mov    $0x0,%eax
   16250:	e8 2b 2e ff ff       	callq  9080 <printf@plt>
   16255:	83 45 f8 01          	addl   $0x1,-0x8(%rbp)
   16259:	83 7d f8 08          	cmpl   $0x8,-0x8(%rbp)
   1625d:	0f 8e 75 ff ff ff    	jle    161d8 <main+0x1c4>
   16263:	83 45 f4 01          	addl   $0x1,-0xc(%rbp)
   16267:	83 7d f4 02          	cmpl   $0x2,-0xc(%rbp)
   1626b:	0f 8e 5b ff ff ff    	jle    161cc <main+0x1b8>
   16271:	83 45 f0 01          	addl   $0x1,-0x10(%rbp)
   16275:	83 7d f0 01          	cmpl   $0x1,-0x10(%rbp)
   16279:	0f 8e 41 ff ff ff    	jle    161c0 <main+0x1ac>
   1627f:	0f b6 05 a6 5e 00 00 	movzbl 0x5ea6(%rip),%eax        # 1c12c <g_109>
   16286:	0f b6 c0             	movzbl %al,%eax
   16289:	8b 55 fc             	mov    -0x4(%rbp),%edx
   1628c:	48 8d 35 d0 2c 00 00 	lea    0x2cd0(%rip),%rsi        # 18f63 <g_2409+0x1ef3>
   16293:	48 89 c7             	mov    %rax,%rdi
   16296:	e8 58 44 ff ff       	callq  a6f3 <transparent_crc>
   1629b:	8b 05 8f 5e 00 00    	mov    0x5e8f(%rip),%eax        # 1c130 <g_126>
   162a1:	48 98                	cltq   
   162a3:	8b 55 fc             	mov    -0x4(%rbp),%edx
   162a6:	48 8d 35 bc 2c 00 00 	lea    0x2cbc(%rip),%rsi        # 18f69 <g_2409+0x1ef9>
   162ad:	48 89 c7             	mov    %rax,%rdi
   162b0:	e8 3e 44 ff ff       	callq  a6f3 <transparent_crc>
   162b5:	0f b7 05 78 5e 00 00 	movzwl 0x5e78(%rip),%eax        # 1c134 <g_131>
   162bc:	48 0f bf c0          	movswq %ax,%rax
   162c0:	8b 55 fc             	mov    -0x4(%rbp),%edx
   162c3:	48 8d 35 a5 2c 00 00 	lea    0x2ca5(%rip),%rsi        # 18f6f <g_2409+0x1eff>
   162ca:	48 89 c7             	mov    %rax,%rdi
   162cd:	e8 21 44 ff ff       	callq  a6f3 <transparent_crc>
   162d2:	0f b6 05 5d 5e 00 00 	movzbl 0x5e5d(%rip),%eax        # 1c136 <g_143>
   162d9:	0f b6 c0             	movzbl %al,%eax
   162dc:	8b 55 fc             	mov    -0x4(%rbp),%edx
   162df:	48 8d 35 8f 2c 00 00 	lea    0x2c8f(%rip),%rsi        # 18f75 <g_2409+0x1f05>
   162e6:	48 89 c7             	mov    %rax,%rdi
   162e9:	e8 05 44 ff ff       	callq  a6f3 <transparent_crc>
   162ee:	48 8b 05 43 5e 00 00 	mov    0x5e43(%rip),%rax        # 1c138 <g_148>
   162f5:	8b 55 fc             	mov    -0x4(%rbp),%edx
   162f8:	48 8d 35 7c 2c 00 00 	lea    0x2c7c(%rip),%rsi        # 18f7b <g_2409+0x1f0b>
   162ff:	48 89 c7             	mov    %rax,%rdi
   16302:	e8 ec 43 ff ff       	callq  a6f3 <transparent_crc>
   16307:	48 8b 05 32 5e 00 00 	mov    0x5e32(%rip),%rax        # 1c140 <g_152>
   1630e:	48 89 c1             	mov    %rax,%rcx
   16311:	8b 45 fc             	mov    -0x4(%rbp),%eax
   16314:	89 c2                	mov    %eax,%edx
   16316:	48 8d 35 64 2c 00 00 	lea    0x2c64(%rip),%rsi        # 18f81 <g_2409+0x1f11>
   1631d:	48 89 cf             	mov    %rcx,%rdi
   16320:	e8 ce 43 ff ff       	callq  a6f3 <transparent_crc>
   16325:	8b 05 1d 5e 00 00    	mov    0x5e1d(%rip),%eax        # 1c148 <g_154>
   1632b:	48 98                	cltq   
   1632d:	8b 55 fc             	mov    -0x4(%rbp),%edx
   16330:	48 8d 35 50 2c 00 00 	lea    0x2c50(%rip),%rsi        # 18f87 <g_2409+0x1f17>
   16337:	48 89 c7             	mov    %rax,%rdi
   1633a:	e8 b4 43 ff ff       	callq  a6f3 <transparent_crc>
   1633f:	8b 05 0b 5e 00 00    	mov    0x5e0b(%rip),%eax        # 1c150 <g_163>
   16345:	25 ff ff 0f 00       	and    $0xfffff,%eax
   1634a:	89 c1                	mov    %eax,%ecx
   1634c:	8b 45 fc             	mov    -0x4(%rbp),%eax
   1634f:	89 c2                	mov    %eax,%edx
   16351:	48 8d 35 35 2c 00 00 	lea    0x2c35(%rip),%rsi        # 18f8d <g_2409+0x1f1d>
   16358:	48 89 cf             	mov    %rcx,%rdi
   1635b:	e8 93 43 ff ff       	callq  a6f3 <transparent_crc>
   16360:	8b 05 ee 5d 00 00    	mov    0x5dee(%rip),%eax        # 1c154 <g_163+0x4>
   16366:	25 ff ff ff 01       	and    $0x1ffffff,%eax
   1636b:	89 c1                	mov    %eax,%ecx
   1636d:	8b 45 fc             	mov    -0x4(%rbp),%eax
   16370:	89 c2                	mov    %eax,%edx
   16372:	48 8d 35 1d 2c 00 00 	lea    0x2c1d(%rip),%rsi        # 18f96 <g_2409+0x1f26>
   16379:	48 89 cf             	mov    %rcx,%rdi
   1637c:	e8 72 43 ff ff       	callq  a6f3 <transparent_crc>
   16381:	8b 05 d1 5d 00 00    	mov    0x5dd1(%rip),%eax        # 1c158 <g_163+0x8>
   16387:	25 ff ff 7f 00       	and    $0x7fffff,%eax
   1638c:	89 c1                	mov    %eax,%ecx
   1638e:	8b 45 fc             	mov    -0x4(%rbp),%eax
   16391:	89 c2                	mov    %eax,%edx
   16393:	48 8d 35 05 2c 00 00 	lea    0x2c05(%rip),%rsi        # 18f9f <g_2409+0x1f2f>
   1639a:	48 89 cf             	mov    %rcx,%rdi
   1639d:	e8 51 43 ff ff       	callq  a6f3 <transparent_crc>
   163a2:	0f b7 05 b1 5d 00 00 	movzwl 0x5db1(%rip),%eax        # 1c15a <g_163+0xa>
   163a9:	66 c1 e8 07          	shr    $0x7,%ax
   163ad:	83 e0 7f             	and    $0x7f,%eax
   163b0:	0f b6 c0             	movzbl %al,%eax
   163b3:	8b 55 fc             	mov    -0x4(%rbp),%edx
   163b6:	48 8d 35 eb 2b 00 00 	lea    0x2beb(%rip),%rsi        # 18fa8 <g_2409+0x1f38>
   163bd:	48 89 c7             	mov    %rax,%rdi
   163c0:	e8 2e 43 ff ff       	callq  a6f3 <transparent_crc>
   163c5:	8b 05 91 5d 00 00    	mov    0x5d91(%rip),%eax        # 1c15c <g_163+0xc>
   163cb:	c1 e0 06             	shl    $0x6,%eax
   163ce:	c1 f8 06             	sar    $0x6,%eax
   163d1:	48 98                	cltq   
   163d3:	8b 55 fc             	mov    -0x4(%rbp),%edx
   163d6:	48 8d 35 d4 2b 00 00 	lea    0x2bd4(%rip),%rsi        # 18fb1 <g_2409+0x1f41>
   163dd:	48 89 c7             	mov    %rax,%rdi
   163e0:	e8 0e 43 ff ff       	callq  a6f3 <transparent_crc>
   163e5:	0f b7 05 74 5d 00 00 	movzwl 0x5d74(%rip),%eax        # 1c160 <g_163+0x10>
   163ec:	c1 e0 07             	shl    $0x7,%eax
   163ef:	66 c1 f8 07          	sar    $0x7,%ax
   163f3:	48 0f bf c0          	movswq %ax,%rax
   163f7:	8b 55 fc             	mov    -0x4(%rbp),%edx
   163fa:	48 8d 35 b9 2b 00 00 	lea    0x2bb9(%rip),%rsi        # 18fba <g_2409+0x1f4a>
   16401:	48 89 c7             	mov    %rax,%rdi
   16404:	e8 ea 42 ff ff       	callq  a6f3 <transparent_crc>
   16409:	0f b6 05 51 5d 00 00 	movzbl 0x5d51(%rip),%eax        # 1c161 <g_163+0x11>
   16410:	d0 e8                	shr    %al
   16412:	83 e0 07             	and    $0x7,%eax
   16415:	0f b6 c0             	movzbl %al,%eax
   16418:	8b 55 fc             	mov    -0x4(%rbp),%edx
   1641b:	48 8d 35 a1 2b 00 00 	lea    0x2ba1(%rip),%rsi        # 18fc3 <g_2409+0x1f53>
   16422:	48 89 c7             	mov    %rax,%rdi
   16425:	e8 c9 42 ff ff       	callq  a6f3 <transparent_crc>
   1642a:	48 8b 05 37 5d 00 00 	mov    0x5d37(%rip),%rax        # 1c168 <g_196>
   16431:	48 89 c1             	mov    %rax,%rcx
   16434:	8b 45 fc             	mov    -0x4(%rbp),%eax
   16437:	89 c2                	mov    %eax,%edx
   16439:	48 8d 35 8c 2b 00 00 	lea    0x2b8c(%rip),%rsi        # 18fcc <g_2409+0x1f5c>
   16440:	48 89 cf             	mov    %rcx,%rdi
   16443:	e8 ab 42 ff ff       	callq  a6f3 <transparent_crc>
   16448:	0f b7 05 21 5d 00 00 	movzwl 0x5d21(%rip),%eax        # 1c170 <g_207>
   1644f:	0f b7 c0             	movzwl %ax,%eax
   16452:	8b 55 fc             	mov    -0x4(%rbp),%edx
   16455:	48 8d 35 76 2b 00 00 	lea    0x2b76(%rip),%rsi        # 18fd2 <g_2409+0x1f62>
   1645c:	48 89 c7             	mov    %rax,%rdi
   1645f:	e8 8f 42 ff ff       	callq  a6f3 <transparent_crc>
   16464:	0f b7 05 c5 9c 00 00 	movzwl 0x9cc5(%rip),%eax        # 20130 <g_210>
   1646b:	0f b7 c0             	movzwl %ax,%eax
   1646e:	8b 55 fc             	mov    -0x4(%rbp),%edx
   16471:	48 8d 35 60 2b 00 00 	lea    0x2b60(%rip),%rsi        # 18fd8 <g_2409+0x1f68>
   16478:	48 89 c7             	mov    %rax,%rdi
   1647b:	e8 73 42 ff ff       	callq  a6f3 <transparent_crc>
   16480:	8b 05 ee 5c 00 00    	mov    0x5cee(%rip),%eax        # 1c174 <g_231>
   16486:	89 c1                	mov    %eax,%ecx
   16488:	8b 45 fc             	mov    -0x4(%rbp),%eax
   1648b:	89 c2                	mov    %eax,%edx
   1648d:	48 8d 35 4a 2b 00 00 	lea    0x2b4a(%rip),%rsi        # 18fde <g_2409+0x1f6e>
   16494:	48 89 cf             	mov    %rcx,%rdi
   16497:	e8 57 42 ff ff       	callq  a6f3 <transparent_crc>
   1649c:	c7 45 f0 00 00 00 00 	movl   $0x0,-0x10(%rbp)
   164a3:	eb 46                	jmp    164eb <main+0x4d7>
   164a5:	8b 45 f0             	mov    -0x10(%rbp),%eax
   164a8:	48 98                	cltq   
   164aa:	48 8d 15 c7 5c 00 00 	lea    0x5cc7(%rip),%rdx        # 1c178 <g_233>
   164b1:	0f b6 04 10          	movzbl (%rax,%rdx,1),%eax
   164b5:	48 0f be c0          	movsbq %al,%rax
   164b9:	8b 55 fc             	mov    -0x4(%rbp),%edx
   164bc:	48 8d 35 21 2b 00 00 	lea    0x2b21(%rip),%rsi        # 18fe4 <g_2409+0x1f74>
   164c3:	48 89 c7             	mov    %rax,%rdi
   164c6:	e8 28 42 ff ff       	callq  a6f3 <transparent_crc>
   164cb:	83 7d fc 00          	cmpl   $0x0,-0x4(%rbp)
   164cf:	74 16                	je     164e7 <main+0x4d3>
   164d1:	8b 45 f0             	mov    -0x10(%rbp),%eax
   164d4:	89 c6                	mov    %eax,%esi
   164d6:	48 8d 3d 10 2b 00 00 	lea    0x2b10(%rip),%rdi        # 18fed <g_2409+0x1f7d>
   164dd:	b8 00 00 00 00       	mov    $0x0,%eax
   164e2:	e8 99 2b ff ff       	callq  9080 <printf@plt>
   164e7:	83 45 f0 01          	addl   $0x1,-0x10(%rbp)
   164eb:	83 7d f0 06          	cmpl   $0x6,-0x10(%rbp)
   164ef:	7e b4                	jle    164a5 <main+0x491>
   164f1:	8b 05 89 5c 00 00    	mov    0x5c89(%rip),%eax        # 1c180 <g_238>
   164f7:	48 98                	cltq   
   164f9:	8b 55 fc             	mov    -0x4(%rbp),%edx
   164fc:	48 8d 35 f8 2a 00 00 	lea    0x2af8(%rip),%rsi        # 18ffb <g_2409+0x1f8b>
   16503:	48 89 c7             	mov    %rax,%rdi
   16506:	e8 e8 41 ff ff       	callq  a6f3 <transparent_crc>
   1650b:	48 8b 05 76 5c 00 00 	mov    0x5c76(%rip),%rax        # 1c188 <g_296>
   16512:	8b 55 fc             	mov    -0x4(%rbp),%edx
   16515:	48 8d 35 e5 2a 00 00 	lea    0x2ae5(%rip),%rsi        # 19001 <g_2409+0x1f91>
   1651c:	48 89 c7             	mov    %rax,%rdi
   1651f:	e8 cf 41 ff ff       	callq  a6f3 <transparent_crc>
   16524:	48 8b 05 65 5c 00 00 	mov    0x5c65(%rip),%rax        # 1c190 <g_321>
   1652b:	8b 55 fc             	mov    -0x4(%rbp),%edx
   1652e:	48 8d 35 d2 2a 00 00 	lea    0x2ad2(%rip),%rsi        # 19007 <g_2409+0x1f97>
   16535:	48 89 c7             	mov    %rax,%rdi
   16538:	e8 b6 41 ff ff       	callq  a6f3 <transparent_crc>
   1653d:	48 8b 05 04 9c 00 00 	mov    0x9c04(%rip),%rax        # 20148 <g_449>
   16544:	48 89 c1             	mov    %rax,%rcx
   16547:	8b 45 fc             	mov    -0x4(%rbp),%eax
   1654a:	89 c2                	mov    %eax,%edx
   1654c:	48 8d 35 ba 2a 00 00 	lea    0x2aba(%rip),%rsi        # 1900d <g_2409+0x1f9d>
   16553:	48 89 cf             	mov    %rcx,%rdi
   16556:	e8 98 41 ff ff       	callq  a6f3 <transparent_crc>
   1655b:	c7 45 f0 00 00 00 00 	movl   $0x0,-0x10(%rbp)
   16562:	eb 74                	jmp    165d8 <main+0x5c4>
   16564:	c7 45 f4 00 00 00 00 	movl   $0x0,-0xc(%rbp)
   1656b:	eb 61                	jmp    165ce <main+0x5ba>
   1656d:	8b 45 f4             	mov    -0xc(%rbp),%eax
   16570:	48 63 c8             	movslq %eax,%rcx
   16573:	8b 45 f0             	mov    -0x10(%rbp),%eax
   16576:	48 63 d0             	movslq %eax,%rdx
   16579:	48 89 d0             	mov    %rdx,%rax
   1657c:	48 c1 e0 03          	shl    $0x3,%rax
   16580:	48 29 d0             	sub    %rdx,%rax
   16583:	48 01 c8             	add    %rcx,%rax
   16586:	48 8d 14 00          	lea    (%rax,%rax,1),%rdx
   1658a:	48 8d 05 0f 5c 00 00 	lea    0x5c0f(%rip),%rax        # 1c1a0 <g_516>
   16591:	0f b7 04 02          	movzwl (%rdx,%rax,1),%eax
   16595:	48 0f bf c0          	movswq %ax,%rax
   16599:	8b 55 fc             	mov    -0x4(%rbp),%edx
   1659c:	48 8d 35 70 2a 00 00 	lea    0x2a70(%rip),%rsi        # 19013 <g_2409+0x1fa3>
   165a3:	48 89 c7             	mov    %rax,%rdi
   165a6:	e8 48 41 ff ff       	callq  a6f3 <transparent_crc>
   165ab:	83 7d fc 00          	cmpl   $0x0,-0x4(%rbp)
   165af:	74 19                	je     165ca <main+0x5b6>
   165b1:	8b 55 f4             	mov    -0xc(%rbp),%edx
   165b4:	8b 45 f0             	mov    -0x10(%rbp),%eax
   165b7:	89 c6                	mov    %eax,%esi
   165b9:	48 8d 3d 49 29 00 00 	lea    0x2949(%rip),%rdi        # 18f09 <g_2409+0x1e99>
   165c0:	b8 00 00 00 00       	mov    $0x0,%eax
   165c5:	e8 b6 2a ff ff       	callq  9080 <printf@plt>
   165ca:	83 45 f4 01          	addl   $0x1,-0xc(%rbp)
   165ce:	83 7d f4 06          	cmpl   $0x6,-0xc(%rbp)
   165d2:	7e 99                	jle    1656d <main+0x559>
   165d4:	83 45 f0 01          	addl   $0x1,-0x10(%rbp)
   165d8:	83 7d f0 07          	cmpl   $0x7,-0x10(%rbp)
   165dc:	7e 86                	jle    16564 <main+0x550>
   165de:	8b 05 2c 5c 00 00    	mov    0x5c2c(%rip),%eax        # 1c210 <g_629>
   165e4:	48 98                	cltq   
   165e6:	8b 55 fc             	mov    -0x4(%rbp),%edx
   165e9:	48 8d 35 2f 2a 00 00 	lea    0x2a2f(%rip),%rsi        # 1901f <g_2409+0x1faf>
   165f0:	48 89 c7             	mov    %rax,%rdi
   165f3:	e8 fb 40 ff ff       	callq  a6f3 <transparent_crc>
   165f8:	c7 45 f0 00 00 00 00 	movl   $0x0,-0x10(%rbp)
   165ff:	eb 4b                	jmp    1664c <main+0x638>
   16601:	8b 45 f0             	mov    -0x10(%rbp),%eax
   16604:	48 98                	cltq   
   16606:	48 8d 14 85 00 00 00 	lea    0x0(,%rax,4),%rdx
   1660d:	00 
   1660e:	48 8d 05 43 0a 00 00 	lea    0xa43(%rip),%rax        # 17058 <g_637>
   16615:	8b 04 02             	mov    (%rdx,%rax,1),%eax
   16618:	48 98                	cltq   
   1661a:	8b 55 fc             	mov    -0x4(%rbp),%edx
   1661d:	48 8d 35 01 2a 00 00 	lea    0x2a01(%rip),%rsi        # 19025 <g_2409+0x1fb5>
   16624:	48 89 c7             	mov    %rax,%rdi
   16627:	e8 c7 40 ff ff       	callq  a6f3 <transparent_crc>
   1662c:	83 7d fc 00          	cmpl   $0x0,-0x4(%rbp)
   16630:	74 16                	je     16648 <main+0x634>
   16632:	8b 45 f0             	mov    -0x10(%rbp),%eax
   16635:	89 c6                	mov    %eax,%esi
   16637:	48 8d 3d af 29 00 00 	lea    0x29af(%rip),%rdi        # 18fed <g_2409+0x1f7d>
   1663e:	b8 00 00 00 00       	mov    $0x0,%eax
   16643:	e8 38 2a ff ff       	callq  9080 <printf@plt>
   16648:	83 45 f0 01          	addl   $0x1,-0x10(%rbp)
   1664c:	83 7d f0 02          	cmpl   $0x2,-0x10(%rbp)
   16650:	7e af                	jle    16601 <main+0x5ed>
   16652:	0f b7 05 bb 5b 00 00 	movzwl 0x5bbb(%rip),%eax        # 1c214 <g_648>
   16659:	48 0f bf c0          	movswq %ax,%rax
   1665d:	8b 55 fc             	mov    -0x4(%rbp),%edx
   16660:	48 8d 35 c7 29 00 00 	lea    0x29c7(%rip),%rsi        # 1902e <g_2409+0x1fbe>
   16667:	48 89 c7             	mov    %rax,%rdi
   1666a:	e8 84 40 ff ff       	callq  a6f3 <transparent_crc>
   1666f:	0f b7 05 a0 5b 00 00 	movzwl 0x5ba0(%rip),%eax        # 1c216 <g_714>
   16676:	48 0f bf c0          	movswq %ax,%rax
   1667a:	8b 55 fc             	mov    -0x4(%rbp),%edx
   1667d:	48 8d 35 b0 29 00 00 	lea    0x29b0(%rip),%rsi        # 19034 <g_2409+0x1fc4>
   16684:	48 89 c7             	mov    %rax,%rdi
   16687:	e8 67 40 ff ff       	callq  a6f3 <transparent_crc>
   1668c:	0f b6 05 85 5b 00 00 	movzbl 0x5b85(%rip),%eax        # 1c218 <g_715>
   16693:	48 0f be c0          	movsbq %al,%rax
   16697:	8b 55 fc             	mov    -0x4(%rbp),%edx
   1669a:	48 8d 35 99 29 00 00 	lea    0x2999(%rip),%rsi        # 1903a <g_2409+0x1fca>
   166a1:	48 89 c7             	mov    %rax,%rdi
   166a4:	e8 4a 40 ff ff       	callq  a6f3 <transparent_crc>
   166a9:	b8 03 00 00 00       	mov    $0x3,%eax
   166ae:	48 98                	cltq   
   166b0:	8b 55 fc             	mov    -0x4(%rbp),%edx
   166b3:	48 8d 35 86 29 00 00 	lea    0x2986(%rip),%rsi        # 19040 <g_2409+0x1fd0>
   166ba:	48 89 c7             	mov    %rax,%rdi
   166bd:	e8 31 40 ff ff       	callq  a6f3 <transparent_crc>
   166c2:	b8 b3 50 e8 c0       	mov    $0xc0e850b3,%eax
   166c7:	48 98                	cltq   
   166c9:	8b 55 fc             	mov    -0x4(%rbp),%edx
   166cc:	48 8d 35 73 29 00 00 	lea    0x2973(%rip),%rsi        # 19046 <g_2409+0x1fd6>
   166d3:	48 89 c7             	mov    %rax,%rdi
   166d6:	e8 18 40 ff ff       	callq  a6f3 <transparent_crc>
   166db:	8b 05 87 9a 00 00    	mov    0x9a87(%rip),%eax        # 20168 <g_838>
   166e1:	89 c1                	mov    %eax,%ecx
   166e3:	8b 45 fc             	mov    -0x4(%rbp),%eax
   166e6:	89 c2                	mov    %eax,%edx
   166e8:	48 8d 35 5d 29 00 00 	lea    0x295d(%rip),%rsi        # 1904c <g_2409+0x1fdc>
   166ef:	48 89 cf             	mov    %rcx,%rdi
   166f2:	e8 fc 3f ff ff       	callq  a6f3 <transparent_crc>
   166f7:	c7 45 f0 00 00 00 00 	movl   $0x0,-0x10(%rbp)
   166fe:	eb 6b                	jmp    1676b <main+0x757>
   16700:	c7 45 f4 00 00 00 00 	movl   $0x0,-0xc(%rbp)
   16707:	eb 58                	jmp    16761 <main+0x74d>
   16709:	8b 45 f4             	mov    -0xc(%rbp),%eax
   1670c:	48 98                	cltq   
   1670e:	8b 55 f0             	mov    -0x10(%rbp),%edx
   16711:	48 63 d2             	movslq %edx,%rdx
   16714:	48 01 d2             	add    %rdx,%rdx
   16717:	48 01 d0             	add    %rdx,%rax
   1671a:	48 8d 14 00          	lea    (%rax,%rax,1),%rdx
   1671e:	48 8d 05 fb 5a 00 00 	lea    0x5afb(%rip),%rax        # 1c220 <g_1375>
   16725:	0f b7 04 02          	movzwl (%rdx,%rax,1),%eax
   16729:	0f b7 c0             	movzwl %ax,%eax
   1672c:	8b 55 fc             	mov    -0x4(%rbp),%edx
   1672f:	48 8d 35 1c 29 00 00 	lea    0x291c(%rip),%rsi        # 19052 <g_2409+0x1fe2>
   16736:	48 89 c7             	mov    %rax,%rdi
   16739:	e8 b5 3f ff ff       	callq  a6f3 <transparent_crc>
   1673e:	83 7d fc 00          	cmpl   $0x0,-0x4(%rbp)
   16742:	74 19                	je     1675d <main+0x749>
   16744:	8b 55 f4             	mov    -0xc(%rbp),%edx
   16747:	8b 45 f0             	mov    -0x10(%rbp),%eax
   1674a:	89 c6                	mov    %eax,%esi
   1674c:	48 8d 3d b6 27 00 00 	lea    0x27b6(%rip),%rdi        # 18f09 <g_2409+0x1e99>
   16753:	b8 00 00 00 00       	mov    $0x0,%eax
   16758:	e8 23 29 ff ff       	callq  9080 <printf@plt>
   1675d:	83 45 f4 01          	addl   $0x1,-0xc(%rbp)
   16761:	83 7d f4 01          	cmpl   $0x1,-0xc(%rbp)
   16765:	7e a2                	jle    16709 <main+0x6f5>
   16767:	83 45 f0 01          	addl   $0x1,-0x10(%rbp)
   1676b:	83 7d f0 05          	cmpl   $0x5,-0x10(%rbp)
   1676f:	7e 8f                	jle    16700 <main+0x6ec>
   16771:	48 8b 05 c0 5a 00 00 	mov    0x5ac0(%rip),%rax        # 1c238 <g_1666>
   16778:	48 89 c1             	mov    %rax,%rcx
   1677b:	8b 45 fc             	mov    -0x4(%rbp),%eax
   1677e:	89 c2                	mov    %eax,%edx
   16780:	48 8d 35 d8 28 00 00 	lea    0x28d8(%rip),%rsi        # 1905f <g_2409+0x1fef>
   16787:	48 89 cf             	mov    %rcx,%rdi
   1678a:	e8 64 3f ff ff       	callq  a6f3 <transparent_crc>
   1678f:	8b 05 1b 9a 00 00    	mov    0x9a1b(%rip),%eax        # 201b0 <g_1984>
   16795:	89 c1                	mov    %eax,%ecx
   16797:	8b 45 fc             	mov    -0x4(%rbp),%eax
   1679a:	89 c2                	mov    %eax,%edx
   1679c:	48 8d 35 c3 28 00 00 	lea    0x28c3(%rip),%rsi        # 19066 <g_2409+0x1ff6>
   167a3:	48 89 cf             	mov    %rcx,%rdi
   167a6:	e8 48 3f ff ff       	callq  a6f3 <transparent_crc>
   167ab:	0f b6 05 8e 5a 00 00 	movzbl 0x5a8e(%rip),%eax        # 1c240 <g_2012>
   167b2:	48 0f be c0          	movsbq %al,%rax
   167b6:	8b 55 fc             	mov    -0x4(%rbp),%edx
   167b9:	48 8d 35 ad 28 00 00 	lea    0x28ad(%rip),%rsi        # 1906d <g_2409+0x1ffd>
   167c0:	48 89 c7             	mov    %rax,%rdi
   167c3:	e8 2b 3f ff ff       	callq  a6f3 <transparent_crc>
   167c8:	0f b7 05 73 5a 00 00 	movzwl 0x5a73(%rip),%eax        # 1c242 <g_2137>
   167cf:	0f b7 c0             	movzwl %ax,%eax
   167d2:	8b 55 fc             	mov    -0x4(%rbp),%edx
   167d5:	48 8d 35 98 28 00 00 	lea    0x2898(%rip),%rsi        # 19074 <g_2409+0x2004>
   167dc:	48 89 c7             	mov    %rax,%rdi
   167df:	e8 0f 3f ff ff       	callq  a6f3 <transparent_crc>
   167e4:	0f b6 05 59 5a 00 00 	movzbl 0x5a59(%rip),%eax        # 1c244 <g_2241>
   167eb:	0f b6 c0             	movzbl %al,%eax
   167ee:	8b 55 fc             	mov    -0x4(%rbp),%edx
   167f1:	48 8d 35 83 28 00 00 	lea    0x2883(%rip),%rsi        # 1907b <g_2409+0x200b>
   167f8:	48 89 c7             	mov    %rax,%rdi
   167fb:	e8 f3 3e ff ff       	callq  a6f3 <transparent_crc>
   16800:	8b 05 42 5a 00 00    	mov    0x5a42(%rip),%eax        # 1c248 <g_2248>
   16806:	89 c1                	mov    %eax,%ecx
   16808:	8b 45 fc             	mov    -0x4(%rbp),%eax
   1680b:	89 c2                	mov    %eax,%edx
   1680d:	48 8d 35 6e 28 00 00 	lea    0x286e(%rip),%rsi        # 19082 <g_2409+0x2012>
   16814:	48 89 cf             	mov    %rcx,%rdi
   16817:	e8 d7 3e ff ff       	callq  a6f3 <transparent_crc>
   1681c:	b8 00 00 00 00       	mov    $0x0,%eax
   16821:	89 c1                	mov    %eax,%ecx
   16823:	8b 45 fc             	mov    -0x4(%rbp),%eax
   16826:	89 c2                	mov    %eax,%edx
   16828:	48 8d 35 5a 28 00 00 	lea    0x285a(%rip),%rsi        # 19089 <g_2409+0x2019>
   1682f:	48 89 cf             	mov    %rcx,%rdi
   16832:	e8 bc 3e ff ff       	callq  a6f3 <transparent_crc>
   16837:	c7 45 f0 00 00 00 00 	movl   $0x0,-0x10(%rbp)
   1683e:	eb 6a                	jmp    168aa <main+0x896>
   16840:	c7 45 f4 00 00 00 00 	movl   $0x0,-0xc(%rbp)
   16847:	eb 57                	jmp    168a0 <main+0x88c>
   16849:	8b 45 f4             	mov    -0xc(%rbp),%eax
   1684c:	48 63 d0             	movslq %eax,%rdx
   1684f:	8b 45 f0             	mov    -0x10(%rbp),%eax
   16852:	48 98                	cltq   
   16854:	48 01 d0             	add    %rdx,%rax
   16857:	48 8d 14 85 00 00 00 	lea    0x0(,%rax,4),%rdx
   1685e:	00 
   1685f:	48 8d 05 ea 59 00 00 	lea    0x59ea(%rip),%rax        # 1c250 <g_2277>
   16866:	8b 04 02             	mov    (%rdx,%rax,1),%eax
   16869:	48 98                	cltq   
   1686b:	8b 55 fc             	mov    -0x4(%rbp),%edx
   1686e:	48 8d 35 1b 28 00 00 	lea    0x281b(%rip),%rsi        # 19090 <g_2409+0x2020>
   16875:	48 89 c7             	mov    %rax,%rdi
   16878:	e8 76 3e ff ff       	callq  a6f3 <transparent_crc>
   1687d:	83 7d fc 00          	cmpl   $0x0,-0x4(%rbp)
   16881:	74 19                	je     1689c <main+0x888>
   16883:	8b 55 f4             	mov    -0xc(%rbp),%edx
   16886:	8b 45 f0             	mov    -0x10(%rbp),%eax
   16889:	89 c6                	mov    %eax,%esi
   1688b:	48 8d 3d 77 26 00 00 	lea    0x2677(%rip),%rdi        # 18f09 <g_2409+0x1e99>
   16892:	b8 00 00 00 00       	mov    $0x0,%eax
   16897:	e8 e4 27 ff ff       	callq  9080 <printf@plt>
   1689c:	83 45 f4 01          	addl   $0x1,-0xc(%rbp)
   168a0:	83 7d f4 00          	cmpl   $0x0,-0xc(%rbp)
   168a4:	7e a3                	jle    16849 <main+0x835>
   168a6:	83 45 f0 01          	addl   $0x1,-0x10(%rbp)
   168aa:	83 7d f0 02          	cmpl   $0x2,-0x10(%rbp)
   168ae:	7e 90                	jle    16840 <main+0x82c>
   168b0:	48 c7 c0 f8 ff ff ff 	mov    $0xfffffffffffffff8,%rax
   168b7:	48 89 c1             	mov    %rax,%rcx
   168ba:	8b 45 fc             	mov    -0x4(%rbp),%eax
   168bd:	89 c2                	mov    %eax,%edx
   168bf:	48 8d 35 d7 27 00 00 	lea    0x27d7(%rip),%rsi        # 1909d <g_2409+0x202d>
   168c6:	48 89 cf             	mov    %rcx,%rdi
   168c9:	e8 25 3e ff ff       	callq  a6f3 <transparent_crc>
   168ce:	c7 45 f0 00 00 00 00 	movl   $0x0,-0x10(%rbp)
   168d5:	e9 b4 00 00 00       	jmpq   1698e <main+0x97a>
   168da:	c7 45 f4 00 00 00 00 	movl   $0x0,-0xc(%rbp)
   168e1:	e9 9a 00 00 00       	jmpq   16980 <main+0x96c>
   168e6:	c7 45 f8 00 00 00 00 	movl   $0x0,-0x8(%rbp)
   168ed:	e9 80 00 00 00       	jmpq   16972 <main+0x95e>
   168f2:	8b 45 f8             	mov    -0x8(%rbp),%eax
   168f5:	48 63 f0             	movslq %eax,%rsi
   168f8:	8b 45 f0             	mov    -0x10(%rbp),%eax
   168fb:	48 63 d0             	movslq %eax,%rdx
   168fe:	8b 45 f4             	mov    -0xc(%rbp),%eax
   16901:	48 63 c8             	movslq %eax,%rcx
   16904:	48 89 d0             	mov    %rdx,%rax
   16907:	48 c1 e0 03          	shl    $0x3,%rax
   1690b:	48 29 d0             	sub    %rdx,%rax
   1690e:	48 c1 e0 02          	shl    $0x2,%rax
   16912:	48 89 ca             	mov    %rcx,%rdx
   16915:	48 c1 e2 03          	shl    $0x3,%rdx
   16919:	48 29 ca             	sub    %rcx,%rdx
   1691c:	48 01 d0             	add    %rdx,%rax
   1691f:	48 01 f0             	add    %rsi,%rax
   16922:	48 8d 14 c5 00 00 00 	lea    0x0(,%rax,8),%rdx
   16929:	00 
   1692a:	48 8d 05 2f 59 00 00 	lea    0x592f(%rip),%rax        # 1c260 <g_2595>
   16931:	48 8b 04 02          	mov    (%rdx,%rax,1),%rax
   16935:	48 89 c1             	mov    %rax,%rcx
   16938:	8b 45 fc             	mov    -0x4(%rbp),%eax
   1693b:	89 c2                	mov    %eax,%edx
   1693d:	48 8d 35 60 27 00 00 	lea    0x2760(%rip),%rsi        # 190a4 <g_2409+0x2034>
   16944:	48 89 cf             	mov    %rcx,%rdi
   16947:	e8 a7 3d ff ff       	callq  a6f3 <transparent_crc>
   1694c:	83 7d fc 00          	cmpl   $0x0,-0x4(%rbp)
   16950:	74 1c                	je     1696e <main+0x95a>
   16952:	8b 4d f8             	mov    -0x8(%rbp),%ecx
   16955:	8b 55 f4             	mov    -0xc(%rbp),%edx
   16958:	8b 45 f0             	mov    -0x10(%rbp),%eax
   1695b:	89 c6                	mov    %eax,%esi
   1695d:	48 8d 3d e9 25 00 00 	lea    0x25e9(%rip),%rdi        # 18f4d <g_2409+0x1edd>
   16964:	b8 00 00 00 00       	mov    $0x0,%eax
   16969:	e8 12 27 ff ff       	callq  9080 <printf@plt>
   1696e:	83 45 f8 01          	addl   $0x1,-0x8(%rbp)
   16972:	83 7d f8 06          	cmpl   $0x6,-0x8(%rbp)
   16976:	0f 8e 76 ff ff ff    	jle    168f2 <main+0x8de>
   1697c:	83 45 f4 01          	addl   $0x1,-0xc(%rbp)
   16980:	83 7d f4 03          	cmpl   $0x3,-0xc(%rbp)
   16984:	0f 8e 5c ff ff ff    	jle    168e6 <main+0x8d2>
   1698a:	83 45 f0 01          	addl   $0x1,-0x10(%rbp)
   1698e:	83 7d f0 05          	cmpl   $0x5,-0x10(%rbp)
   16992:	0f 8e 42 ff ff ff    	jle    168da <main+0x8c6>
   16998:	8b 05 02 5e 00 00    	mov    0x5e02(%rip),%eax        # 1c7a0 <g_2649>
   1699e:	25 ff ff 0f 00       	and    $0xfffff,%eax
   169a3:	89 c1                	mov    %eax,%ecx
   169a5:	8b 45 fc             	mov    -0x4(%rbp),%eax
   169a8:	89 c2                	mov    %eax,%edx
   169aa:	48 8d 35 03 27 00 00 	lea    0x2703(%rip),%rsi        # 190b4 <g_2409+0x2044>
   169b1:	48 89 cf             	mov    %rcx,%rdi
   169b4:	e8 3a 3d ff ff       	callq  a6f3 <transparent_crc>
   169b9:	8b 05 e5 5d 00 00    	mov    0x5de5(%rip),%eax        # 1c7a4 <g_2649+0x4>
   169bf:	25 ff ff ff 01       	and    $0x1ffffff,%eax
   169c4:	89 c1                	mov    %eax,%ecx
   169c6:	8b 45 fc             	mov    -0x4(%rbp),%eax
   169c9:	89 c2                	mov    %eax,%edx
   169cb:	48 8d 35 ec 26 00 00 	lea    0x26ec(%rip),%rsi        # 190be <g_2409+0x204e>
   169d2:	48 89 cf             	mov    %rcx,%rdi
   169d5:	e8 19 3d ff ff       	callq  a6f3 <transparent_crc>
   169da:	8b 05 c8 5d 00 00    	mov    0x5dc8(%rip),%eax        # 1c7a8 <g_2649+0x8>
   169e0:	25 ff ff 7f 00       	and    $0x7fffff,%eax
   169e5:	89 c1                	mov    %eax,%ecx
   169e7:	8b 45 fc             	mov    -0x4(%rbp),%eax
   169ea:	89 c2                	mov    %eax,%edx
   169ec:	48 8d 35 d5 26 00 00 	lea    0x26d5(%rip),%rsi        # 190c8 <g_2409+0x2058>
   169f3:	48 89 cf             	mov    %rcx,%rdi
   169f6:	e8 f8 3c ff ff       	callq  a6f3 <transparent_crc>
   169fb:	0f b7 05 a8 5d 00 00 	movzwl 0x5da8(%rip),%eax        # 1c7aa <g_2649+0xa>
   16a02:	66 c1 e8 07          	shr    $0x7,%ax
   16a06:	83 e0 7f             	and    $0x7f,%eax
   16a09:	0f b6 c0             	movzbl %al,%eax
   16a0c:	8b 55 fc             	mov    -0x4(%rbp),%edx
   16a0f:	48 8d 35 bc 26 00 00 	lea    0x26bc(%rip),%rsi        # 190d2 <g_2409+0x2062>
   16a16:	48 89 c7             	mov    %rax,%rdi
   16a19:	e8 d5 3c ff ff       	callq  a6f3 <transparent_crc>
   16a1e:	8b 05 88 5d 00 00    	mov    0x5d88(%rip),%eax        # 1c7ac <g_2649+0xc>
   16a24:	c1 e0 06             	shl    $0x6,%eax
   16a27:	c1 f8 06             	sar    $0x6,%eax
   16a2a:	48 98                	cltq   
   16a2c:	8b 55 fc             	mov    -0x4(%rbp),%edx
   16a2f:	48 8d 35 a6 26 00 00 	lea    0x26a6(%rip),%rsi        # 190dc <g_2409+0x206c>
   16a36:	48 89 c7             	mov    %rax,%rdi
   16a39:	e8 b5 3c ff ff       	callq  a6f3 <transparent_crc>
   16a3e:	0f b7 05 6b 5d 00 00 	movzwl 0x5d6b(%rip),%eax        # 1c7b0 <g_2649+0x10>
   16a45:	c1 e0 07             	shl    $0x7,%eax
   16a48:	66 c1 f8 07          	sar    $0x7,%ax
   16a4c:	48 0f bf c0          	movswq %ax,%rax
   16a50:	8b 55 fc             	mov    -0x4(%rbp),%edx
   16a53:	48 8d 35 8c 26 00 00 	lea    0x268c(%rip),%rsi        # 190e6 <g_2409+0x2076>
   16a5a:	48 89 c7             	mov    %rax,%rdi
   16a5d:	e8 91 3c ff ff       	callq  a6f3 <transparent_crc>
   16a62:	0f b6 05 48 5d 00 00 	movzbl 0x5d48(%rip),%eax        # 1c7b1 <g_2649+0x11>
   16a69:	d0 e8                	shr    %al
   16a6b:	83 e0 07             	and    $0x7,%eax
   16a6e:	0f b6 c0             	movzbl %al,%eax
   16a71:	8b 55 fc             	mov    -0x4(%rbp),%edx
   16a74:	48 8d 35 75 26 00 00 	lea    0x2675(%rip),%rsi        # 190f0 <g_2409+0x2080>
   16a7b:	48 89 c7             	mov    %rax,%rdi
   16a7e:	e8 70 3c ff ff       	callq  a6f3 <transparent_crc>
   16a83:	8b 05 37 5d 00 00    	mov    0x5d37(%rip),%eax        # 1c7c0 <g_2687>
   16a89:	25 ff ff 0f 00       	and    $0xfffff,%eax
   16a8e:	89 c1                	mov    %eax,%ecx
   16a90:	8b 45 fc             	mov    -0x4(%rbp),%eax
   16a93:	89 c2                	mov    %eax,%edx
   16a95:	48 8d 35 5e 26 00 00 	lea    0x265e(%rip),%rsi        # 190fa <g_2409+0x208a>
   16a9c:	48 89 cf             	mov    %rcx,%rdi
   16a9f:	e8 4f 3c ff ff       	callq  a6f3 <transparent_crc>
   16aa4:	8b 05 1a 5d 00 00    	mov    0x5d1a(%rip),%eax        # 1c7c4 <g_2687+0x4>
   16aaa:	25 ff ff ff 01       	and    $0x1ffffff,%eax
   16aaf:	89 c1                	mov    %eax,%ecx
   16ab1:	8b 45 fc             	mov    -0x4(%rbp),%eax
   16ab4:	89 c2                	mov    %eax,%edx
   16ab6:	48 8d 35 47 26 00 00 	lea    0x2647(%rip),%rsi        # 19104 <g_2409+0x2094>
   16abd:	48 89 cf             	mov    %rcx,%rdi
   16ac0:	e8 2e 3c ff ff       	callq  a6f3 <transparent_crc>
   16ac5:	8b 05 fd 5c 00 00    	mov    0x5cfd(%rip),%eax        # 1c7c8 <g_2687+0x8>
   16acb:	25 ff ff 7f 00       	and    $0x7fffff,%eax
   16ad0:	89 c1                	mov    %eax,%ecx
   16ad2:	8b 45 fc             	mov    -0x4(%rbp),%eax
   16ad5:	89 c2                	mov    %eax,%edx
   16ad7:	48 8d 35 30 26 00 00 	lea    0x2630(%rip),%rsi        # 1910e <g_2409+0x209e>
   16ade:	48 89 cf             	mov    %rcx,%rdi
   16ae1:	e8 0d 3c ff ff       	callq  a6f3 <transparent_crc>
   16ae6:	0f b7 05 dd 5c 00 00 	movzwl 0x5cdd(%rip),%eax        # 1c7ca <g_2687+0xa>
   16aed:	66 c1 e8 07          	shr    $0x7,%ax
   16af1:	83 e0 7f             	and    $0x7f,%eax
   16af4:	0f b6 c0             	movzbl %al,%eax
   16af7:	8b 55 fc             	mov    -0x4(%rbp),%edx
   16afa:	48 8d 35 17 26 00 00 	lea    0x2617(%rip),%rsi        # 19118 <g_2409+0x20a8>
   16b01:	48 89 c7             	mov    %rax,%rdi
   16b04:	e8 ea 3b ff ff       	callq  a6f3 <transparent_crc>
   16b09:	8b 05 bd 5c 00 00    	mov    0x5cbd(%rip),%eax        # 1c7cc <g_2687+0xc>
   16b0f:	c1 e0 06             	shl    $0x6,%eax
   16b12:	c1 f8 06             	sar    $0x6,%eax
   16b15:	48 98                	cltq   
   16b17:	8b 55 fc             	mov    -0x4(%rbp),%edx
   16b1a:	48 8d 35 01 26 00 00 	lea    0x2601(%rip),%rsi        # 19122 <g_2409+0x20b2>
   16b21:	48 89 c7             	mov    %rax,%rdi
   16b24:	e8 ca 3b ff ff       	callq  a6f3 <transparent_crc>
   16b29:	0f b7 05 a0 5c 00 00 	movzwl 0x5ca0(%rip),%eax        # 1c7d0 <g_2687+0x10>
   16b30:	c1 e0 07             	shl    $0x7,%eax
   16b33:	66 c1 f8 07          	sar    $0x7,%ax
   16b37:	48 0f bf c0          	movswq %ax,%rax
   16b3b:	8b 55 fc             	mov    -0x4(%rbp),%edx
   16b3e:	48 8d 35 e7 25 00 00 	lea    0x25e7(%rip),%rsi        # 1912c <g_2409+0x20bc>
   16b45:	48 89 c7             	mov    %rax,%rdi
   16b48:	e8 a6 3b ff ff       	callq  a6f3 <transparent_crc>
   16b4d:	0f b6 05 7d 5c 00 00 	movzbl 0x5c7d(%rip),%eax        # 1c7d1 <g_2687+0x11>
   16b54:	d0 e8                	shr    %al
   16b56:	83 e0 07             	and    $0x7,%eax
   16b59:	0f b6 c0             	movzbl %al,%eax
   16b5c:	8b 55 fc             	mov    -0x4(%rbp),%edx
   16b5f:	48 8d 35 d0 25 00 00 	lea    0x25d0(%rip),%rsi        # 19136 <g_2409+0x20c6>
   16b66:	48 89 c7             	mov    %rax,%rdi
   16b69:	e8 85 3b ff ff       	callq  a6f3 <transparent_crc>
   16b6e:	0f b6 05 5f 5c 00 00 	movzbl 0x5c5f(%rip),%eax        # 1c7d4 <g_2793>
   16b75:	0f b6 c0             	movzbl %al,%eax
   16b78:	8b 55 fc             	mov    -0x4(%rbp),%edx
   16b7b:	48 8d 35 be 25 00 00 	lea    0x25be(%rip),%rsi        # 19140 <g_2409+0x20d0>
   16b82:	48 89 c7             	mov    %rax,%rdi
   16b85:	e8 69 3b ff ff       	callq  a6f3 <transparent_crc>
   16b8a:	c7 45 f0 00 00 00 00 	movl   $0x0,-0x10(%rbp)
   16b91:	e9 ae 02 00 00       	jmpq   16e44 <main+0xe30>
   16b96:	c7 45 f4 00 00 00 00 	movl   $0x0,-0xc(%rbp)
   16b9d:	e9 94 02 00 00       	jmpq   16e36 <main+0xe22>
   16ba2:	8b 45 f4             	mov    -0xc(%rbp),%eax
   16ba5:	48 98                	cltq   
   16ba7:	8b 55 f0             	mov    -0x10(%rbp),%edx
   16baa:	48 63 ca             	movslq %edx,%rcx
   16bad:	48 89 c2             	mov    %rax,%rdx
   16bb0:	48 c1 e2 02          	shl    $0x2,%rdx
   16bb4:	48 01 c2             	add    %rax,%rdx
   16bb7:	48 8d 04 95 00 00 00 	lea    0x0(,%rdx,4),%rax
   16bbe:	00 
   16bbf:	48 89 c2             	mov    %rax,%rdx
   16bc2:	48 89 c8             	mov    %rcx,%rax
   16bc5:	48 c1 e0 02          	shl    $0x2,%rax
   16bc9:	48 01 c8             	add    %rcx,%rax
   16bcc:	48 c1 e0 04          	shl    $0x4,%rax
   16bd0:	48 01 c2             	add    %rax,%rdx
   16bd3:	48 8d 05 06 5c 00 00 	lea    0x5c06(%rip),%rax        # 1c7e0 <g_2801>
   16bda:	48 01 d0             	add    %rdx,%rax
   16bdd:	8b 00                	mov    (%rax),%eax
   16bdf:	25 ff ff 0f 00       	and    $0xfffff,%eax
   16be4:	89 c1                	mov    %eax,%ecx
   16be6:	8b 45 fc             	mov    -0x4(%rbp),%eax
   16be9:	89 c2                	mov    %eax,%edx
   16beb:	48 8d 35 55 25 00 00 	lea    0x2555(%rip),%rsi        # 19147 <g_2409+0x20d7>
   16bf2:	48 89 cf             	mov    %rcx,%rdi
   16bf5:	e8 f9 3a ff ff       	callq  a6f3 <transparent_crc>
   16bfa:	8b 45 f4             	mov    -0xc(%rbp),%eax
   16bfd:	48 98                	cltq   
   16bff:	8b 55 f0             	mov    -0x10(%rbp),%edx
   16c02:	48 63 ca             	movslq %edx,%rcx
   16c05:	48 89 c2             	mov    %rax,%rdx
   16c08:	48 c1 e2 02          	shl    $0x2,%rdx
   16c0c:	48 01 c2             	add    %rax,%rdx
   16c0f:	48 8d 04 95 00 00 00 	lea    0x0(,%rdx,4),%rax
   16c16:	00 
   16c17:	48 89 c2             	mov    %rax,%rdx
   16c1a:	48 89 c8             	mov    %rcx,%rax
   16c1d:	48 c1 e0 02          	shl    $0x2,%rax
   16c21:	48 01 c8             	add    %rcx,%rax
   16c24:	48 c1 e0 04          	shl    $0x4,%rax
   16c28:	48 01 c2             	add    %rax,%rdx
   16c2b:	48 8d 05 ae 5b 00 00 	lea    0x5bae(%rip),%rax        # 1c7e0 <g_2801>
   16c32:	48 01 d0             	add    %rdx,%rax
   16c35:	8b 40 04             	mov    0x4(%rax),%eax
   16c38:	25 ff ff ff 01       	and    $0x1ffffff,%eax
   16c3d:	89 c1                	mov    %eax,%ecx
   16c3f:	8b 45 fc             	mov    -0x4(%rbp),%eax
   16c42:	89 c2                	mov    %eax,%edx
   16c44:	48 8d 35 0c 25 00 00 	lea    0x250c(%rip),%rsi        # 19157 <g_2409+0x20e7>
   16c4b:	48 89 cf             	mov    %rcx,%rdi
   16c4e:	e8 a0 3a ff ff       	callq  a6f3 <transparent_crc>
   16c53:	8b 45 f4             	mov    -0xc(%rbp),%eax
   16c56:	48 98                	cltq   
   16c58:	8b 55 f0             	mov    -0x10(%rbp),%edx
   16c5b:	48 63 ca             	movslq %edx,%rcx
   16c5e:	48 89 c2             	mov    %rax,%rdx
   16c61:	48 c1 e2 02          	shl    $0x2,%rdx
   16c65:	48 01 c2             	add    %rax,%rdx
   16c68:	48 8d 04 95 00 00 00 	lea    0x0(,%rdx,4),%rax
   16c6f:	00 
   16c70:	48 89 c2             	mov    %rax,%rdx
   16c73:	48 89 c8             	mov    %rcx,%rax
   16c76:	48 c1 e0 02          	shl    $0x2,%rax
   16c7a:	48 01 c8             	add    %rcx,%rax
   16c7d:	48 c1 e0 04          	shl    $0x4,%rax
   16c81:	48 01 c2             	add    %rax,%rdx
   16c84:	48 8d 05 55 5b 00 00 	lea    0x5b55(%rip),%rax        # 1c7e0 <g_2801>
   16c8b:	48 01 d0             	add    %rdx,%rax
   16c8e:	8b 40 08             	mov    0x8(%rax),%eax
   16c91:	25 ff ff 7f 00       	and    $0x7fffff,%eax
   16c96:	89 c1                	mov    %eax,%ecx
   16c98:	8b 45 fc             	mov    -0x4(%rbp),%eax
   16c9b:	89 c2                	mov    %eax,%edx
   16c9d:	48 8d 35 c3 24 00 00 	lea    0x24c3(%rip),%rsi        # 19167 <g_2409+0x20f7>
   16ca4:	48 89 cf             	mov    %rcx,%rdi
   16ca7:	e8 47 3a ff ff       	callq  a6f3 <transparent_crc>
   16cac:	8b 45 f4             	mov    -0xc(%rbp),%eax
   16caf:	48 98                	cltq   
   16cb1:	8b 55 f0             	mov    -0x10(%rbp),%edx
   16cb4:	48 63 ca             	movslq %edx,%rcx
   16cb7:	48 89 c2             	mov    %rax,%rdx
   16cba:	48 c1 e2 02          	shl    $0x2,%rdx
   16cbe:	48 01 c2             	add    %rax,%rdx
   16cc1:	48 8d 04 95 00 00 00 	lea    0x0(,%rdx,4),%rax
   16cc8:	00 
   16cc9:	48 89 c2             	mov    %rax,%rdx
   16ccc:	48 89 c8             	mov    %rcx,%rax
   16ccf:	48 c1 e0 02          	shl    $0x2,%rax
   16cd3:	48 01 c8             	add    %rcx,%rax
   16cd6:	48 c1 e0 04          	shl    $0x4,%rax
   16cda:	48 01 c2             	add    %rax,%rdx
   16cdd:	48 8d 05 fc 5a 00 00 	lea    0x5afc(%rip),%rax        # 1c7e0 <g_2801>
   16ce4:	48 01 d0             	add    %rdx,%rax
   16ce7:	0f b7 40 0a          	movzwl 0xa(%rax),%eax
   16ceb:	66 c1 e8 07          	shr    $0x7,%ax
   16cef:	83 e0 7f             	and    $0x7f,%eax
   16cf2:	0f b6 c0             	movzbl %al,%eax
   16cf5:	8b 55 fc             	mov    -0x4(%rbp),%edx
   16cf8:	48 8d 35 78 24 00 00 	lea    0x2478(%rip),%rsi        # 19177 <g_2409+0x2107>
   16cff:	48 89 c7             	mov    %rax,%rdi
   16d02:	e8 ec 39 ff ff       	callq  a6f3 <transparent_crc>
   16d07:	8b 45 f4             	mov    -0xc(%rbp),%eax
   16d0a:	48 98                	cltq   
   16d0c:	8b 55 f0             	mov    -0x10(%rbp),%edx
   16d0f:	48 63 ca             	movslq %edx,%rcx
   16d12:	48 89 c2             	mov    %rax,%rdx
   16d15:	48 c1 e2 02          	shl    $0x2,%rdx
   16d19:	48 01 c2             	add    %rax,%rdx
   16d1c:	48 8d 04 95 00 00 00 	lea    0x0(,%rdx,4),%rax
   16d23:	00 
   16d24:	48 89 c2             	mov    %rax,%rdx
   16d27:	48 89 c8             	mov    %rcx,%rax
   16d2a:	48 c1 e0 02          	shl    $0x2,%rax
   16d2e:	48 01 c8             	add    %rcx,%rax
   16d31:	48 c1 e0 04          	shl    $0x4,%rax
   16d35:	48 01 c2             	add    %rax,%rdx
   16d38:	48 8d 05 a1 5a 00 00 	lea    0x5aa1(%rip),%rax        # 1c7e0 <g_2801>
   16d3f:	48 01 d0             	add    %rdx,%rax
   16d42:	8b 40 0c             	mov    0xc(%rax),%eax
   16d45:	c1 e0 06             	shl    $0x6,%eax
   16d48:	c1 f8 06             	sar    $0x6,%eax
   16d4b:	48 98                	cltq   
   16d4d:	8b 55 fc             	mov    -0x4(%rbp),%edx
   16d50:	48 8d 35 30 24 00 00 	lea    0x2430(%rip),%rsi        # 19187 <g_2409+0x2117>
   16d57:	48 89 c7             	mov    %rax,%rdi
   16d5a:	e8 94 39 ff ff       	callq  a6f3 <transparent_crc>
   16d5f:	8b 45 f4             	mov    -0xc(%rbp),%eax
   16d62:	48 98                	cltq   
   16d64:	8b 55 f0             	mov    -0x10(%rbp),%edx
   16d67:	48 63 ca             	movslq %edx,%rcx
   16d6a:	48 89 c2             	mov    %rax,%rdx
   16d6d:	48 c1 e2 02          	shl    $0x2,%rdx
   16d71:	48 01 c2             	add    %rax,%rdx
   16d74:	48 8d 04 95 00 00 00 	lea    0x0(,%rdx,4),%rax
   16d7b:	00 
   16d7c:	48 89 c2             	mov    %rax,%rdx
   16d7f:	48 89 c8             	mov    %rcx,%rax
   16d82:	48 c1 e0 02          	shl    $0x2,%rax
   16d86:	48 01 c8             	add    %rcx,%rax
   16d89:	48 c1 e0 04          	shl    $0x4,%rax
   16d8d:	48 01 c2             	add    %rax,%rdx
   16d90:	48 8d 05 59 5a 00 00 	lea    0x5a59(%rip),%rax        # 1c7f0 <g_2801+0x10>
   16d97:	48 01 d0             	add    %rdx,%rax
   16d9a:	0f b7 00             	movzwl (%rax),%eax
   16d9d:	c1 e0 07             	shl    $0x7,%eax
   16da0:	66 c1 f8 07          	sar    $0x7,%ax
   16da4:	48 0f bf c0          	movswq %ax,%rax
   16da8:	8b 55 fc             	mov    -0x4(%rbp),%edx
   16dab:	48 8d 35 e5 23 00 00 	lea    0x23e5(%rip),%rsi        # 19197 <g_2409+0x2127>
   16db2:	48 89 c7             	mov    %rax,%rdi
   16db5:	e8 39 39 ff ff       	callq  a6f3 <transparent_crc>
   16dba:	8b 45 f4             	mov    -0xc(%rbp),%eax
   16dbd:	48 98                	cltq   
   16dbf:	8b 55 f0             	mov    -0x10(%rbp),%edx
   16dc2:	48 63 ca             	movslq %edx,%rcx
   16dc5:	48 89 c2             	mov    %rax,%rdx
   16dc8:	48 c1 e2 02          	shl    $0x2,%rdx
   16dcc:	48 01 c2             	add    %rax,%rdx
   16dcf:	48 8d 04 95 00 00 00 	lea    0x0(,%rdx,4),%rax
   16dd6:	00 
   16dd7:	48 89 c2             	mov    %rax,%rdx
   16dda:	48 89 c8             	mov    %rcx,%rax
   16ddd:	48 c1 e0 02          	shl    $0x2,%rax
   16de1:	48 01 c8             	add    %rcx,%rax
   16de4:	48 c1 e0 04          	shl    $0x4,%rax
   16de8:	48 01 c2             	add    %rax,%rdx
   16deb:	48 8d 05 fe 59 00 00 	lea    0x59fe(%rip),%rax        # 1c7f0 <g_2801+0x10>
   16df2:	48 01 d0             	add    %rdx,%rax
   16df5:	0f b6 40 01          	movzbl 0x1(%rax),%eax
   16df9:	d0 e8                	shr    %al
   16dfb:	83 e0 07             	and    $0x7,%eax
   16dfe:	0f b6 c0             	movzbl %al,%eax
   16e01:	8b 55 fc             	mov    -0x4(%rbp),%edx
   16e04:	48 8d 35 9c 23 00 00 	lea    0x239c(%rip),%rsi        # 191a7 <g_2409+0x2137>
   16e0b:	48 89 c7             	mov    %rax,%rdi
   16e0e:	e8 e0 38 ff ff       	callq  a6f3 <transparent_crc>
   16e13:	83 7d fc 00          	cmpl   $0x0,-0x4(%rbp)
   16e17:	74 19                	je     16e32 <main+0xe1e>
   16e19:	8b 55 f4             	mov    -0xc(%rbp),%edx
   16e1c:	8b 45 f0             	mov    -0x10(%rbp),%eax
   16e1f:	89 c6                	mov    %eax,%esi
   16e21:	48 8d 3d e1 20 00 00 	lea    0x20e1(%rip),%rdi        # 18f09 <g_2409+0x1e99>
   16e28:	b8 00 00 00 00       	mov    $0x0,%eax
   16e2d:	e8 4e 22 ff ff       	callq  9080 <printf@plt>
   16e32:	83 45 f4 01          	addl   $0x1,-0xc(%rbp)
   16e36:	83 7d f4 03          	cmpl   $0x3,-0xc(%rbp)
   16e3a:	0f 8e 62 fd ff ff    	jle    16ba2 <main+0xb8e>
   16e40:	83 45 f0 01          	addl   $0x1,-0x10(%rbp)
   16e44:	83 7d f0 03          	cmpl   $0x3,-0x10(%rbp)
   16e48:	0f 8e 48 fd ff ff    	jle    16b96 <main+0xb82>
   16e4e:	8b 05 cc 5a 00 00    	mov    0x5acc(%rip),%eax        # 1c920 <g_2805>
   16e54:	48 98                	cltq   
   16e56:	8b 55 fc             	mov    -0x4(%rbp),%edx
   16e59:	48 8d 35 57 23 00 00 	lea    0x2357(%rip),%rsi        # 191b7 <g_2409+0x2147>
   16e60:	48 89 c7             	mov    %rax,%rdi
   16e63:	e8 8b 38 ff ff       	callq  a6f3 <transparent_crc>
   16e68:	8b 05 b2 51 00 00    	mov    0x51b2(%rip),%eax        # 1c020 <crc32_context>
   16e6e:	f7 d0                	not    %eax
   16e70:	89 c2                	mov    %eax,%edx
   16e72:	8b 45 fc             	mov    -0x4(%rbp),%eax
   16e75:	89 c6                	mov    %eax,%esi
   16e77:	89 d7                	mov    %edx,%edi
   16e79:	e8 16 23 ff ff       	callq  9194 <platform_main_end>
   16e7e:	b8 00 00 00 00       	mov    $0x0,%eax
   16e83:	c9                   	leaveq 
   16e84:	c3                   	retq   
   16e85:	66 2e 0f 1f 84 00 00 	nopw   %cs:0x0(%rax,%rax,1)
   16e8c:	00 00 00 
   16e8f:	90                   	nop

0000000000016e90 <__libc_csu_init>:
   16e90:	f3 0f 1e fa          	endbr64 
   16e94:	41 57                	push   %r15
   16e96:	4c 8d 3d 03 4f 00 00 	lea    0x4f03(%rip),%r15        # 1bda0 <__frame_dummy_init_array_entry>
   16e9d:	41 56                	push   %r14
   16e9f:	49 89 d6             	mov    %rdx,%r14
   16ea2:	41 55                	push   %r13
   16ea4:	49 89 f5             	mov    %rsi,%r13
   16ea7:	41 54                	push   %r12
   16ea9:	41 89 fc             	mov    %edi,%r12d
   16eac:	55                   	push   %rbp
   16ead:	48 8d 2d f4 4e 00 00 	lea    0x4ef4(%rip),%rbp        # 1bda8 <__do_global_dtors_aux_fini_array_entry>
   16eb4:	53                   	push   %rbx
   16eb5:	4c 29 fd             	sub    %r15,%rbp
   16eb8:	48 83 ec 08          	sub    $0x8,%rsp
   16ebc:	e8 3f 21 ff ff       	callq  9000 <_init>
   16ec1:	48 c1 fd 03          	sar    $0x3,%rbp
   16ec5:	74 1f                	je     16ee6 <__libc_csu_init+0x56>
   16ec7:	31 db                	xor    %ebx,%ebx
   16ec9:	0f 1f 80 00 00 00 00 	nopl   0x0(%rax)
   16ed0:	4c 89 f2             	mov    %r14,%rdx
   16ed3:	4c 89 ee             	mov    %r13,%rsi
   16ed6:	44 89 e7             	mov    %r12d,%edi
   16ed9:	41 ff 14 df          	callq  *(%r15,%rbx,8)
   16edd:	48 83 c3 01          	add    $0x1,%rbx
   16ee1:	48 39 dd             	cmp    %rbx,%rbp
   16ee4:	75 ea                	jne    16ed0 <__libc_csu_init+0x40>
   16ee6:	48 83 c4 08          	add    $0x8,%rsp
   16eea:	5b                   	pop    %rbx
   16eeb:	5d                   	pop    %rbp
   16eec:	41 5c                	pop    %r12
   16eee:	41 5d                	pop    %r13
   16ef0:	41 5e                	pop    %r14
   16ef2:	41 5f                	pop    %r15
   16ef4:	c3                   	retq   
   16ef5:	66 66 2e 0f 1f 84 00 	data16 nopw %cs:0x0(%rax,%rax,1)
   16efc:	00 00 00 00 

0000000000016f00 <__libc_csu_fini>:
   16f00:	f3 0f 1e fa          	endbr64 
   16f04:	c3                   	retq   
