


Disassembly of section .text:

00000000000060a0 <_start>:
    60a0:	f3 0f 1e fa          	endbr64 
    60a4:	31 ed                	xor    %ebp,%ebp
    60a6:	49 89 d1             	mov    %rdx,%r9
    60a9:	5e                   	pop    %rsi
    60aa:	48 89 e2             	mov    %rsp,%rdx
    60ad:	48 83 e4 f0          	and    $0xfffffffffffffff0,%rsp
    60b1:	50                   	push   %rax
    60b2:	54                   	push   %rsp
    60b3:	4c 8d 05 f6 a9 00 00 	lea    0xa9f6(%rip),%r8        # 10ab0 <__libc_csu_fini>
    60ba:	48 8d 0d 7f a9 00 00 	lea    0xa97f(%rip),%rcx        # 10a40 <__libc_csu_init>
    60c1:	48 8d 3d 0a a0 00 00 	lea    0xa00a(%rip),%rdi        # 100d2 <main>
    60c8:	ff 15 0a ff 00 00    	callq  *0xff0a(%rip)        # 15fd8 <__libc_start_main@GLIBC_2.2.5>
    60ce:	f4                   	hlt    
    60cf:	90                   	nop

00000000000060d0 <deregister_tm_clones>:
    60d0:	48 8d 3d 59 20 01 00 	lea    0x12059(%rip),%rdi        # 18130 <__TMC_END__>
    60d7:	48 8d 05 52 20 01 00 	lea    0x12052(%rip),%rax        # 18130 <__TMC_END__>
    60de:	48 39 f8             	cmp    %rdi,%rax
    60e1:	74 15                	je     60f8 <deregister_tm_clones+0x28>
    60e3:	48 8b 05 e6 fe 00 00 	mov    0xfee6(%rip),%rax        # 15fd0 <_ITM_deregisterTMCloneTable>
    60ea:	48 85 c0             	test   %rax,%rax
    60ed:	74 09                	je     60f8 <deregister_tm_clones+0x28>
    60ef:	ff e0                	jmpq   *%rax
    60f1:	0f 1f 80 00 00 00 00 	nopl   0x0(%rax)
    60f8:	c3                   	retq   
    60f9:	0f 1f 80 00 00 00 00 	nopl   0x0(%rax)

0000000000006100 <register_tm_clones>:
    6100:	48 8d 3d 29 20 01 00 	lea    0x12029(%rip),%rdi        # 18130 <__TMC_END__>
    6107:	48 8d 35 22 20 01 00 	lea    0x12022(%rip),%rsi        # 18130 <__TMC_END__>
    610e:	48 29 fe             	sub    %rdi,%rsi
    6111:	48 89 f0             	mov    %rsi,%rax
    6114:	48 c1 ee 3f          	shr    $0x3f,%rsi
    6118:	48 c1 f8 03          	sar    $0x3,%rax
    611c:	48 01 c6             	add    %rax,%rsi
    611f:	48 d1 fe             	sar    %rsi
    6122:	74 14                	je     6138 <register_tm_clones+0x38>
    6124:	48 8b 05 bd fe 00 00 	mov    0xfebd(%rip),%rax        # 15fe8 <_ITM_registerTMCloneTable>
    612b:	48 85 c0             	test   %rax,%rax
    612e:	74 08                	je     6138 <register_tm_clones+0x38>
    6130:	ff e0                	jmpq   *%rax
    6132:	66 0f 1f 44 00 00    	nopw   0x0(%rax,%rax,1)
    6138:	c3                   	retq   
    6139:	0f 1f 80 00 00 00 00 	nopl   0x0(%rax)

0000000000006140 <__do_global_dtors_aux>:
    6140:	f3 0f 1e fa          	endbr64 
    6144:	80 3d f5 1f 01 00 00 	cmpb   $0x0,0x11ff5(%rip)        # 18140 <completed.8061>
    614b:	75 2b                	jne    6178 <__do_global_dtors_aux+0x38>
    614d:	55                   	push   %rbp
    614e:	48 83 3d 9a fe 00 00 	cmpq   $0x0,0xfe9a(%rip)        # 15ff0 <__cxa_finalize@GLIBC_2.2.5>
    6155:	00 
    6156:	48 89 e5             	mov    %rsp,%rbp
    6159:	74 0c                	je     6167 <__do_global_dtors_aux+0x27>
    615b:	48 8b 3d a6 fe 00 00 	mov    0xfea6(%rip),%rdi        # 16008 <__dso_handle>
    6162:	e8 f9 fe ff ff       	callq  6060 <__cxa_finalize@plt>
    6167:	e8 64 ff ff ff       	callq  60d0 <deregister_tm_clones>
    616c:	c6 05 cd 1f 01 00 01 	movb   $0x1,0x11fcd(%rip)        # 18140 <completed.8061>
    6173:	5d                   	pop    %rbp
    6174:	c3                   	retq   
    6175:	0f 1f 00             	nopl   (%rax)
    6178:	c3                   	retq   
    6179:	0f 1f 80 00 00 00 00 	nopl   0x0(%rax)

0000000000006180 <frame_dummy>:
    6180:	f3 0f 1e fa          	endbr64 
    6184:	e9 77 ff ff ff       	jmpq   6100 <register_tm_clones>

0000000000006189 <platform_main_begin>:
    6189:	f3 0f 1e fa          	endbr64 
    618d:	55                   	push   %rbp
    618e:	48 89 e5             	mov    %rsp,%rbp
    6191:	90                   	nop
    6192:	5d                   	pop    %rbp
    6193:	c3                   	retq   

0000000000006194 <platform_main_end>:
    6194:	f3 0f 1e fa          	endbr64 
    6198:	55                   	push   %rbp
    6199:	48 89 e5             	mov    %rsp,%rbp
    619c:	48 83 ec 10          	sub    $0x10,%rsp
    61a0:	89 7d fc             	mov    %edi,-0x4(%rbp)
    61a3:	89 75 f8             	mov    %esi,-0x8(%rbp)
    61a6:	8b 45 fc             	mov    -0x4(%rbp),%eax
    61a9:	89 c6                	mov    %eax,%esi
    61ab:	48 8d 3d 6e ae 00 00 	lea    0xae6e(%rip),%rdi        # 11020 <_IO_stdin_used+0x20>
    61b2:	b8 00 00 00 00       	mov    $0x0,%eax
    61b7:	e8 c4 fe ff ff       	callq  6080 <printf@plt>
    61bc:	90                   	nop
    61bd:	c9                   	leaveq 
    61be:	c3                   	retq   

00000000000061bf <safe_unary_minus_func_int8_t_s>:
    61bf:	f3 0f 1e fa          	endbr64 
    61c3:	55                   	push   %rbp
    61c4:	48 89 e5             	mov    %rsp,%rbp
    61c7:	89 f8                	mov    %edi,%eax
    61c9:	88 45 fc             	mov    %al,-0x4(%rbp)
    61cc:	0f b6 45 fc          	movzbl -0x4(%rbp),%eax
    61d0:	f7 d8                	neg    %eax
    61d2:	5d                   	pop    %rbp
    61d3:	c3                   	retq   

00000000000061d4 <safe_add_func_int8_t_s_s>:
    61d4:	f3 0f 1e fa          	endbr64 
    61d8:	55                   	push   %rbp
    61d9:	48 89 e5             	mov    %rsp,%rbp
    61dc:	89 fa                	mov    %edi,%edx
    61de:	89 f0                	mov    %esi,%eax
    61e0:	88 55 fc             	mov    %dl,-0x4(%rbp)
    61e3:	88 45 f8             	mov    %al,-0x8(%rbp)
    61e6:	0f b6 55 fc          	movzbl -0x4(%rbp),%edx
    61ea:	0f b6 45 f8          	movzbl -0x8(%rbp),%eax
    61ee:	01 d0                	add    %edx,%eax
    61f0:	5d                   	pop    %rbp
    61f1:	c3                   	retq   

00000000000061f2 <safe_sub_func_int8_t_s_s>:
    61f2:	f3 0f 1e fa          	endbr64 
    61f6:	55                   	push   %rbp
    61f7:	48 89 e5             	mov    %rsp,%rbp
    61fa:	89 fa                	mov    %edi,%edx
    61fc:	89 f0                	mov    %esi,%eax
    61fe:	88 55 fc             	mov    %dl,-0x4(%rbp)
    6201:	88 45 f8             	mov    %al,-0x8(%rbp)
    6204:	0f b6 55 fc          	movzbl -0x4(%rbp),%edx
    6208:	0f b6 45 f8          	movzbl -0x8(%rbp),%eax
    620c:	29 c2                	sub    %eax,%edx
    620e:	89 d0                	mov    %edx,%eax
    6210:	5d                   	pop    %rbp
    6211:	c3                   	retq   

0000000000006212 <safe_mul_func_int8_t_s_s>:
    6212:	f3 0f 1e fa          	endbr64 
    6216:	55                   	push   %rbp
    6217:	48 89 e5             	mov    %rsp,%rbp
    621a:	89 fa                	mov    %edi,%edx
    621c:	89 f0                	mov    %esi,%eax
    621e:	88 55 fc             	mov    %dl,-0x4(%rbp)
    6221:	88 45 f8             	mov    %al,-0x8(%rbp)
    6224:	0f b6 45 fc          	movzbl -0x4(%rbp),%eax
    6228:	0f b6 55 f8          	movzbl -0x8(%rbp),%edx
    622c:	0f af c2             	imul   %edx,%eax
    622f:	5d                   	pop    %rbp
    6230:	c3                   	retq   

0000000000006231 <safe_mod_func_int8_t_s_s>:
    6231:	f3 0f 1e fa          	endbr64 
    6235:	55                   	push   %rbp
    6236:	48 89 e5             	mov    %rsp,%rbp
    6239:	89 fa                	mov    %edi,%edx
    623b:	89 f0                	mov    %esi,%eax
    623d:	88 55 fc             	mov    %dl,-0x4(%rbp)
    6240:	88 45 f8             	mov    %al,-0x8(%rbp)
    6243:	80 7d f8 00          	cmpb   $0x0,-0x8(%rbp)
    6247:	74 1b                	je     6264 <safe_mod_func_int8_t_s_s+0x33>
    6249:	80 7d fc 80          	cmpb   $0x80,-0x4(%rbp)
    624d:	75 06                	jne    6255 <safe_mod_func_int8_t_s_s+0x24>
    624f:	80 7d f8 ff          	cmpb   $0xff,-0x8(%rbp)
    6253:	74 0f                	je     6264 <safe_mod_func_int8_t_s_s+0x33>
    6255:	0f be 45 fc          	movsbl -0x4(%rbp),%eax
    6259:	0f be 4d f8          	movsbl -0x8(%rbp),%ecx
    625d:	99                   	cltd   
    625e:	f7 f9                	idiv   %ecx
    6260:	89 d0                	mov    %edx,%eax
    6262:	eb 04                	jmp    6268 <safe_mod_func_int8_t_s_s+0x37>
    6264:	0f b6 45 fc          	movzbl -0x4(%rbp),%eax
    6268:	5d                   	pop    %rbp
    6269:	c3                   	retq   

000000000000626a <safe_div_func_int8_t_s_s>:
    626a:	f3 0f 1e fa          	endbr64 
    626e:	55                   	push   %rbp
    626f:	48 89 e5             	mov    %rsp,%rbp
    6272:	89 fa                	mov    %edi,%edx
    6274:	89 f0                	mov    %esi,%eax
    6276:	88 55 fc             	mov    %dl,-0x4(%rbp)
    6279:	88 45 f8             	mov    %al,-0x8(%rbp)
    627c:	80 7d f8 00          	cmpb   $0x0,-0x8(%rbp)
    6280:	74 19                	je     629b <safe_div_func_int8_t_s_s+0x31>
    6282:	80 7d fc 80          	cmpb   $0x80,-0x4(%rbp)
    6286:	75 06                	jne    628e <safe_div_func_int8_t_s_s+0x24>
    6288:	80 7d f8 ff          	cmpb   $0xff,-0x8(%rbp)
    628c:	74 0d                	je     629b <safe_div_func_int8_t_s_s+0x31>
    628e:	0f be 45 fc          	movsbl -0x4(%rbp),%eax
    6292:	0f be 4d f8          	movsbl -0x8(%rbp),%ecx
    6296:	99                   	cltd   
    6297:	f7 f9                	idiv   %ecx
    6299:	eb 04                	jmp    629f <safe_div_func_int8_t_s_s+0x35>
    629b:	0f b6 45 fc          	movzbl -0x4(%rbp),%eax
    629f:	5d                   	pop    %rbp
    62a0:	c3                   	retq   

00000000000062a1 <safe_lshift_func_int8_t_s_s>:
    62a1:	f3 0f 1e fa          	endbr64 
    62a5:	55                   	push   %rbp
    62a6:	48 89 e5             	mov    %rsp,%rbp
    62a9:	89 f8                	mov    %edi,%eax
    62ab:	89 75 f8             	mov    %esi,-0x8(%rbp)
    62ae:	88 45 fc             	mov    %al,-0x4(%rbp)
    62b1:	80 7d fc 00          	cmpb   $0x0,-0x4(%rbp)
    62b5:	78 31                	js     62e8 <safe_lshift_func_int8_t_s_s+0x47>
    62b7:	83 7d f8 00          	cmpl   $0x0,-0x8(%rbp)
    62bb:	78 2b                	js     62e8 <safe_lshift_func_int8_t_s_s+0x47>
    62bd:	83 7d f8 1f          	cmpl   $0x1f,-0x8(%rbp)
    62c1:	7f 25                	jg     62e8 <safe_lshift_func_int8_t_s_s+0x47>
    62c3:	0f be 55 fc          	movsbl -0x4(%rbp),%edx
    62c7:	8b 45 f8             	mov    -0x8(%rbp),%eax
    62ca:	be 7f 00 00 00       	mov    $0x7f,%esi
    62cf:	89 c1                	mov    %eax,%ecx
    62d1:	d3 fe                	sar    %cl,%esi
    62d3:	89 f0                	mov    %esi,%eax
    62d5:	39 c2                	cmp    %eax,%edx
    62d7:	7f 0f                	jg     62e8 <safe_lshift_func_int8_t_s_s+0x47>
    62d9:	0f be 55 fc          	movsbl -0x4(%rbp),%edx
    62dd:	8b 45 f8             	mov    -0x8(%rbp),%eax
    62e0:	89 c1                	mov    %eax,%ecx
    62e2:	d3 e2                	shl    %cl,%edx
    62e4:	89 d0                	mov    %edx,%eax
    62e6:	eb 04                	jmp    62ec <safe_lshift_func_int8_t_s_s+0x4b>
    62e8:	0f b6 45 fc          	movzbl -0x4(%rbp),%eax
    62ec:	5d                   	pop    %rbp
    62ed:	c3                   	retq   

00000000000062ee <safe_lshift_func_int8_t_s_u>:
    62ee:	f3 0f 1e fa          	endbr64 
    62f2:	55                   	push   %rbp
    62f3:	48 89 e5             	mov    %rsp,%rbp
    62f6:	89 f8                	mov    %edi,%eax
    62f8:	89 75 f8             	mov    %esi,-0x8(%rbp)
    62fb:	88 45 fc             	mov    %al,-0x4(%rbp)
    62fe:	80 7d fc 00          	cmpb   $0x0,-0x4(%rbp)
    6302:	78 2b                	js     632f <safe_lshift_func_int8_t_s_u+0x41>
    6304:	83 7d f8 1f          	cmpl   $0x1f,-0x8(%rbp)
    6308:	77 25                	ja     632f <safe_lshift_func_int8_t_s_u+0x41>
    630a:	0f be 55 fc          	movsbl -0x4(%rbp),%edx
    630e:	8b 45 f8             	mov    -0x8(%rbp),%eax
    6311:	be 7f 00 00 00       	mov    $0x7f,%esi
    6316:	89 c1                	mov    %eax,%ecx
    6318:	d3 fe                	sar    %cl,%esi
    631a:	89 f0                	mov    %esi,%eax
    631c:	39 c2                	cmp    %eax,%edx
    631e:	7f 0f                	jg     632f <safe_lshift_func_int8_t_s_u+0x41>
    6320:	0f be 55 fc          	movsbl -0x4(%rbp),%edx
    6324:	8b 45 f8             	mov    -0x8(%rbp),%eax
    6327:	89 c1                	mov    %eax,%ecx
    6329:	d3 e2                	shl    %cl,%edx
    632b:	89 d0                	mov    %edx,%eax
    632d:	eb 04                	jmp    6333 <safe_lshift_func_int8_t_s_u+0x45>
    632f:	0f b6 45 fc          	movzbl -0x4(%rbp),%eax
    6333:	5d                   	pop    %rbp
    6334:	c3                   	retq   

0000000000006335 <safe_rshift_func_int8_t_s_s>:
    6335:	f3 0f 1e fa          	endbr64 
    6339:	55                   	push   %rbp
    633a:	48 89 e5             	mov    %rsp,%rbp
    633d:	89 f8                	mov    %edi,%eax
    633f:	89 75 f8             	mov    %esi,-0x8(%rbp)
    6342:	88 45 fc             	mov    %al,-0x4(%rbp)
    6345:	80 7d fc 00          	cmpb   $0x0,-0x4(%rbp)
    6349:	78 1b                	js     6366 <safe_rshift_func_int8_t_s_s+0x31>
    634b:	83 7d f8 00          	cmpl   $0x0,-0x8(%rbp)
    634f:	78 15                	js     6366 <safe_rshift_func_int8_t_s_s+0x31>
    6351:	83 7d f8 1f          	cmpl   $0x1f,-0x8(%rbp)
    6355:	7f 0f                	jg     6366 <safe_rshift_func_int8_t_s_s+0x31>
    6357:	0f be 55 fc          	movsbl -0x4(%rbp),%edx
    635b:	8b 45 f8             	mov    -0x8(%rbp),%eax
    635e:	89 c1                	mov    %eax,%ecx
    6360:	d3 fa                	sar    %cl,%edx
    6362:	89 d0                	mov    %edx,%eax
    6364:	eb 04                	jmp    636a <safe_rshift_func_int8_t_s_s+0x35>
    6366:	0f b6 45 fc          	movzbl -0x4(%rbp),%eax
    636a:	5d                   	pop    %rbp
    636b:	c3                   	retq   

000000000000636c <safe_rshift_func_int8_t_s_u>:
    636c:	f3 0f 1e fa          	endbr64 
    6370:	55                   	push   %rbp
    6371:	48 89 e5             	mov    %rsp,%rbp
    6374:	89 f8                	mov    %edi,%eax
    6376:	89 75 f8             	mov    %esi,-0x8(%rbp)
    6379:	88 45 fc             	mov    %al,-0x4(%rbp)
    637c:	80 7d fc 00          	cmpb   $0x0,-0x4(%rbp)
    6380:	78 15                	js     6397 <safe_rshift_func_int8_t_s_u+0x2b>
    6382:	83 7d f8 1f          	cmpl   $0x1f,-0x8(%rbp)
    6386:	77 0f                	ja     6397 <safe_rshift_func_int8_t_s_u+0x2b>
    6388:	0f be 55 fc          	movsbl -0x4(%rbp),%edx
    638c:	8b 45 f8             	mov    -0x8(%rbp),%eax
    638f:	89 c1                	mov    %eax,%ecx
    6391:	d3 fa                	sar    %cl,%edx
    6393:	89 d0                	mov    %edx,%eax
    6395:	eb 04                	jmp    639b <safe_rshift_func_int8_t_s_u+0x2f>
    6397:	0f b6 45 fc          	movzbl -0x4(%rbp),%eax
    639b:	5d                   	pop    %rbp
    639c:	c3                   	retq   

000000000000639d <safe_unary_minus_func_int16_t_s>:
    639d:	f3 0f 1e fa          	endbr64 
    63a1:	55                   	push   %rbp
    63a2:	48 89 e5             	mov    %rsp,%rbp
    63a5:	89 f8                	mov    %edi,%eax
    63a7:	66 89 45 fc          	mov    %ax,-0x4(%rbp)
    63ab:	0f b7 45 fc          	movzwl -0x4(%rbp),%eax
    63af:	f7 d8                	neg    %eax
    63b1:	5d                   	pop    %rbp
    63b2:	c3                   	retq   

00000000000063b3 <safe_add_func_int16_t_s_s>:
    63b3:	f3 0f 1e fa          	endbr64 
    63b7:	55                   	push   %rbp
    63b8:	48 89 e5             	mov    %rsp,%rbp
    63bb:	89 fa                	mov    %edi,%edx
    63bd:	89 f0                	mov    %esi,%eax
    63bf:	66 89 55 fc          	mov    %dx,-0x4(%rbp)
    63c3:	66 89 45 f8          	mov    %ax,-0x8(%rbp)
    63c7:	0f b7 55 fc          	movzwl -0x4(%rbp),%edx
    63cb:	0f b7 45 f8          	movzwl -0x8(%rbp),%eax
    63cf:	01 d0                	add    %edx,%eax
    63d1:	5d                   	pop    %rbp
    63d2:	c3                   	retq   

00000000000063d3 <safe_sub_func_int16_t_s_s>:
    63d3:	f3 0f 1e fa          	endbr64 
    63d7:	55                   	push   %rbp
    63d8:	48 89 e5             	mov    %rsp,%rbp
    63db:	89 fa                	mov    %edi,%edx
    63dd:	89 f0                	mov    %esi,%eax
    63df:	66 89 55 fc          	mov    %dx,-0x4(%rbp)
    63e3:	66 89 45 f8          	mov    %ax,-0x8(%rbp)
    63e7:	0f b7 55 fc          	movzwl -0x4(%rbp),%edx
    63eb:	0f b7 45 f8          	movzwl -0x8(%rbp),%eax
    63ef:	29 c2                	sub    %eax,%edx
    63f1:	89 d0                	mov    %edx,%eax
    63f3:	5d                   	pop    %rbp
    63f4:	c3                   	retq   

00000000000063f5 <safe_mul_func_int16_t_s_s>:
    63f5:	f3 0f 1e fa          	endbr64 
    63f9:	55                   	push   %rbp
    63fa:	48 89 e5             	mov    %rsp,%rbp
    63fd:	89 fa                	mov    %edi,%edx
    63ff:	89 f0                	mov    %esi,%eax
    6401:	66 89 55 fc          	mov    %dx,-0x4(%rbp)
    6405:	66 89 45 f8          	mov    %ax,-0x8(%rbp)
    6409:	0f b7 55 fc          	movzwl -0x4(%rbp),%edx
    640d:	0f b7 45 f8          	movzwl -0x8(%rbp),%eax
    6411:	0f af c2             	imul   %edx,%eax
    6414:	5d                   	pop    %rbp
    6415:	c3                   	retq   

0000000000006416 <safe_mod_func_int16_t_s_s>:
    6416:	f3 0f 1e fa          	endbr64 
    641a:	55                   	push   %rbp
    641b:	48 89 e5             	mov    %rsp,%rbp
    641e:	89 fa                	mov    %edi,%edx
    6420:	89 f0                	mov    %esi,%eax
    6422:	66 89 55 fc          	mov    %dx,-0x4(%rbp)
    6426:	66 89 45 f8          	mov    %ax,-0x8(%rbp)
    642a:	66 83 7d f8 00       	cmpw   $0x0,-0x8(%rbp)
    642f:	74 1e                	je     644f <safe_mod_func_int16_t_s_s+0x39>
    6431:	66 81 7d fc 00 80    	cmpw   $0x8000,-0x4(%rbp)
    6437:	75 07                	jne    6440 <safe_mod_func_int16_t_s_s+0x2a>
    6439:	66 83 7d f8 ff       	cmpw   $0xffff,-0x8(%rbp)
    643e:	74 0f                	je     644f <safe_mod_func_int16_t_s_s+0x39>
    6440:	0f bf 45 fc          	movswl -0x4(%rbp),%eax
    6444:	0f bf 4d f8          	movswl -0x8(%rbp),%ecx
    6448:	99                   	cltd   
    6449:	f7 f9                	idiv   %ecx
    644b:	89 d0                	mov    %edx,%eax
    644d:	eb 04                	jmp    6453 <safe_mod_func_int16_t_s_s+0x3d>
    644f:	0f b7 45 fc          	movzwl -0x4(%rbp),%eax
    6453:	5d                   	pop    %rbp
    6454:	c3                   	retq   

0000000000006455 <safe_div_func_int16_t_s_s>:
    6455:	f3 0f 1e fa          	endbr64 
    6459:	55                   	push   %rbp
    645a:	48 89 e5             	mov    %rsp,%rbp
    645d:	89 fa                	mov    %edi,%edx
    645f:	89 f0                	mov    %esi,%eax
    6461:	66 89 55 fc          	mov    %dx,-0x4(%rbp)
    6465:	66 89 45 f8          	mov    %ax,-0x8(%rbp)
    6469:	66 83 7d f8 00       	cmpw   $0x0,-0x8(%rbp)
    646e:	74 1c                	je     648c <safe_div_func_int16_t_s_s+0x37>
    6470:	66 81 7d fc 00 80    	cmpw   $0x8000,-0x4(%rbp)
    6476:	75 07                	jne    647f <safe_div_func_int16_t_s_s+0x2a>
    6478:	66 83 7d f8 ff       	cmpw   $0xffff,-0x8(%rbp)
    647d:	74 0d                	je     648c <safe_div_func_int16_t_s_s+0x37>
    647f:	0f bf 45 fc          	movswl -0x4(%rbp),%eax
    6483:	0f bf 4d f8          	movswl -0x8(%rbp),%ecx
    6487:	99                   	cltd   
    6488:	f7 f9                	idiv   %ecx
    648a:	eb 04                	jmp    6490 <safe_div_func_int16_t_s_s+0x3b>
    648c:	0f b7 45 fc          	movzwl -0x4(%rbp),%eax
    6490:	5d                   	pop    %rbp
    6491:	c3                   	retq   

0000000000006492 <safe_lshift_func_int16_t_s_s>:
    6492:	f3 0f 1e fa          	endbr64 
    6496:	55                   	push   %rbp
    6497:	48 89 e5             	mov    %rsp,%rbp
    649a:	89 f8                	mov    %edi,%eax
    649c:	89 75 f8             	mov    %esi,-0x8(%rbp)
    649f:	66 89 45 fc          	mov    %ax,-0x4(%rbp)
    64a3:	66 83 7d fc 00       	cmpw   $0x0,-0x4(%rbp)
    64a8:	78 31                	js     64db <safe_lshift_func_int16_t_s_s+0x49>
    64aa:	83 7d f8 00          	cmpl   $0x0,-0x8(%rbp)
    64ae:	78 2b                	js     64db <safe_lshift_func_int16_t_s_s+0x49>
    64b0:	83 7d f8 1f          	cmpl   $0x1f,-0x8(%rbp)
    64b4:	7f 25                	jg     64db <safe_lshift_func_int16_t_s_s+0x49>
    64b6:	0f bf 55 fc          	movswl -0x4(%rbp),%edx
    64ba:	8b 45 f8             	mov    -0x8(%rbp),%eax
    64bd:	be ff 7f 00 00       	mov    $0x7fff,%esi
    64c2:	89 c1                	mov    %eax,%ecx
    64c4:	d3 fe                	sar    %cl,%esi
    64c6:	89 f0                	mov    %esi,%eax
    64c8:	39 c2                	cmp    %eax,%edx
    64ca:	7f 0f                	jg     64db <safe_lshift_func_int16_t_s_s+0x49>
    64cc:	0f bf 55 fc          	movswl -0x4(%rbp),%edx
    64d0:	8b 45 f8             	mov    -0x8(%rbp),%eax
    64d3:	89 c1                	mov    %eax,%ecx
    64d5:	d3 e2                	shl    %cl,%edx
    64d7:	89 d0                	mov    %edx,%eax
    64d9:	eb 04                	jmp    64df <safe_lshift_func_int16_t_s_s+0x4d>
    64db:	0f b7 45 fc          	movzwl -0x4(%rbp),%eax
    64df:	5d                   	pop    %rbp
    64e0:	c3                   	retq   

00000000000064e1 <safe_lshift_func_int16_t_s_u>:
    64e1:	f3 0f 1e fa          	endbr64 
    64e5:	55                   	push   %rbp
    64e6:	48 89 e5             	mov    %rsp,%rbp
    64e9:	89 f8                	mov    %edi,%eax
    64eb:	89 75 f8             	mov    %esi,-0x8(%rbp)
    64ee:	66 89 45 fc          	mov    %ax,-0x4(%rbp)
    64f2:	66 83 7d fc 00       	cmpw   $0x0,-0x4(%rbp)
    64f7:	78 2b                	js     6524 <safe_lshift_func_int16_t_s_u+0x43>
    64f9:	83 7d f8 1f          	cmpl   $0x1f,-0x8(%rbp)
    64fd:	77 25                	ja     6524 <safe_lshift_func_int16_t_s_u+0x43>
    64ff:	0f bf 55 fc          	movswl -0x4(%rbp),%edx
    6503:	8b 45 f8             	mov    -0x8(%rbp),%eax
    6506:	be ff 7f 00 00       	mov    $0x7fff,%esi
    650b:	89 c1                	mov    %eax,%ecx
    650d:	d3 fe                	sar    %cl,%esi
    650f:	89 f0                	mov    %esi,%eax
    6511:	39 c2                	cmp    %eax,%edx
    6513:	7f 0f                	jg     6524 <safe_lshift_func_int16_t_s_u+0x43>
    6515:	0f bf 55 fc          	movswl -0x4(%rbp),%edx
    6519:	8b 45 f8             	mov    -0x8(%rbp),%eax
    651c:	89 c1                	mov    %eax,%ecx
    651e:	d3 e2                	shl    %cl,%edx
    6520:	89 d0                	mov    %edx,%eax
    6522:	eb 04                	jmp    6528 <safe_lshift_func_int16_t_s_u+0x47>
    6524:	0f b7 45 fc          	movzwl -0x4(%rbp),%eax
    6528:	5d                   	pop    %rbp
    6529:	c3                   	retq   

000000000000652a <safe_rshift_func_int16_t_s_s>:
    652a:	f3 0f 1e fa          	endbr64 
    652e:	55                   	push   %rbp
    652f:	48 89 e5             	mov    %rsp,%rbp
    6532:	89 f8                	mov    %edi,%eax
    6534:	89 75 f8             	mov    %esi,-0x8(%rbp)
    6537:	66 89 45 fc          	mov    %ax,-0x4(%rbp)
    653b:	66 83 7d fc 00       	cmpw   $0x0,-0x4(%rbp)
    6540:	78 1b                	js     655d <safe_rshift_func_int16_t_s_s+0x33>
    6542:	83 7d f8 00          	cmpl   $0x0,-0x8(%rbp)
    6546:	78 15                	js     655d <safe_rshift_func_int16_t_s_s+0x33>
    6548:	83 7d f8 1f          	cmpl   $0x1f,-0x8(%rbp)
    654c:	7f 0f                	jg     655d <safe_rshift_func_int16_t_s_s+0x33>
    654e:	0f bf 55 fc          	movswl -0x4(%rbp),%edx
    6552:	8b 45 f8             	mov    -0x8(%rbp),%eax
    6555:	89 c1                	mov    %eax,%ecx
    6557:	d3 fa                	sar    %cl,%edx
    6559:	89 d0                	mov    %edx,%eax
    655b:	eb 04                	jmp    6561 <safe_rshift_func_int16_t_s_s+0x37>
    655d:	0f b7 45 fc          	movzwl -0x4(%rbp),%eax
    6561:	5d                   	pop    %rbp
    6562:	c3                   	retq   

0000000000006563 <safe_rshift_func_int16_t_s_u>:
    6563:	f3 0f 1e fa          	endbr64 
    6567:	55                   	push   %rbp
    6568:	48 89 e5             	mov    %rsp,%rbp
    656b:	89 f8                	mov    %edi,%eax
    656d:	89 75 f8             	mov    %esi,-0x8(%rbp)
    6570:	66 89 45 fc          	mov    %ax,-0x4(%rbp)
    6574:	66 83 7d fc 00       	cmpw   $0x0,-0x4(%rbp)
    6579:	78 15                	js     6590 <safe_rshift_func_int16_t_s_u+0x2d>
    657b:	83 7d f8 1f          	cmpl   $0x1f,-0x8(%rbp)
    657f:	77 0f                	ja     6590 <safe_rshift_func_int16_t_s_u+0x2d>
    6581:	0f bf 55 fc          	movswl -0x4(%rbp),%edx
    6585:	8b 45 f8             	mov    -0x8(%rbp),%eax
    6588:	89 c1                	mov    %eax,%ecx
    658a:	d3 fa                	sar    %cl,%edx
    658c:	89 d0                	mov    %edx,%eax
    658e:	eb 04                	jmp    6594 <safe_rshift_func_int16_t_s_u+0x31>
    6590:	0f b7 45 fc          	movzwl -0x4(%rbp),%eax
    6594:	5d                   	pop    %rbp
    6595:	c3                   	retq   

0000000000006596 <safe_unary_minus_func_int32_t_s>:
    6596:	f3 0f 1e fa          	endbr64 
    659a:	55                   	push   %rbp
    659b:	48 89 e5             	mov    %rsp,%rbp
    659e:	89 7d fc             	mov    %edi,-0x4(%rbp)
    65a1:	81 7d fc 00 00 00 80 	cmpl   $0x80000000,-0x4(%rbp)
    65a8:	74 07                	je     65b1 <safe_unary_minus_func_int32_t_s+0x1b>
    65aa:	8b 45 fc             	mov    -0x4(%rbp),%eax
    65ad:	f7 d8                	neg    %eax
    65af:	eb 03                	jmp    65b4 <safe_unary_minus_func_int32_t_s+0x1e>
    65b1:	8b 45 fc             	mov    -0x4(%rbp),%eax
    65b4:	5d                   	pop    %rbp
    65b5:	c3                   	retq   

00000000000065b6 <safe_add_func_int32_t_s_s>:
    65b6:	f3 0f 1e fa          	endbr64 
    65ba:	55                   	push   %rbp
    65bb:	48 89 e5             	mov    %rsp,%rbp
    65be:	89 7d fc             	mov    %edi,-0x4(%rbp)
    65c1:	89 75 f8             	mov    %esi,-0x8(%rbp)
    65c4:	83 7d fc 00          	cmpl   $0x0,-0x4(%rbp)
    65c8:	7e 13                	jle    65dd <safe_add_func_int32_t_s_s+0x27>
    65ca:	83 7d f8 00          	cmpl   $0x0,-0x8(%rbp)
    65ce:	7e 0d                	jle    65dd <safe_add_func_int32_t_s_s+0x27>
    65d0:	b8 ff ff ff 7f       	mov    $0x7fffffff,%eax
    65d5:	2b 45 f8             	sub    -0x8(%rbp),%eax
    65d8:	39 45 fc             	cmp    %eax,-0x4(%rbp)
    65db:	7f 23                	jg     6600 <safe_add_func_int32_t_s_s+0x4a>
    65dd:	83 7d fc 00          	cmpl   $0x0,-0x4(%rbp)
    65e1:	79 13                	jns    65f6 <safe_add_func_int32_t_s_s+0x40>
    65e3:	83 7d f8 00          	cmpl   $0x0,-0x8(%rbp)
    65e7:	79 0d                	jns    65f6 <safe_add_func_int32_t_s_s+0x40>
    65e9:	b8 00 00 00 80       	mov    $0x80000000,%eax
    65ee:	2b 45 f8             	sub    -0x8(%rbp),%eax
    65f1:	39 45 fc             	cmp    %eax,-0x4(%rbp)
    65f4:	7c 0a                	jl     6600 <safe_add_func_int32_t_s_s+0x4a>
    65f6:	8b 55 fc             	mov    -0x4(%rbp),%edx
    65f9:	8b 45 f8             	mov    -0x8(%rbp),%eax
    65fc:	01 d0                	add    %edx,%eax
    65fe:	eb 03                	jmp    6603 <safe_add_func_int32_t_s_s+0x4d>
    6600:	8b 45 fc             	mov    -0x4(%rbp),%eax
    6603:	5d                   	pop    %rbp
    6604:	c3                   	retq   

0000000000006605 <safe_sub_func_int32_t_s_s>:
    6605:	f3 0f 1e fa          	endbr64 
    6609:	55                   	push   %rbp
    660a:	48 89 e5             	mov    %rsp,%rbp
    660d:	89 7d fc             	mov    %edi,-0x4(%rbp)
    6610:	89 75 f8             	mov    %esi,-0x8(%rbp)
    6613:	8b 45 fc             	mov    -0x4(%rbp),%eax
    6616:	33 45 f8             	xor    -0x8(%rbp),%eax
    6619:	89 c2                	mov    %eax,%edx
    661b:	8b 45 fc             	mov    -0x4(%rbp),%eax
    661e:	33 45 f8             	xor    -0x8(%rbp),%eax
    6621:	25 00 00 00 80       	and    $0x80000000,%eax
    6626:	33 45 fc             	xor    -0x4(%rbp),%eax
    6629:	2b 45 f8             	sub    -0x8(%rbp),%eax
    662c:	33 45 f8             	xor    -0x8(%rbp),%eax
    662f:	21 d0                	and    %edx,%eax
    6631:	85 c0                	test   %eax,%eax
    6633:	78 08                	js     663d <safe_sub_func_int32_t_s_s+0x38>
    6635:	8b 45 fc             	mov    -0x4(%rbp),%eax
    6638:	2b 45 f8             	sub    -0x8(%rbp),%eax
    663b:	eb 03                	jmp    6640 <safe_sub_func_int32_t_s_s+0x3b>
    663d:	8b 45 fc             	mov    -0x4(%rbp),%eax
    6640:	5d                   	pop    %rbp
    6641:	c3                   	retq   

0000000000006642 <safe_mul_func_int32_t_s_s>:
    6642:	f3 0f 1e fa          	endbr64 
    6646:	55                   	push   %rbp
    6647:	48 89 e5             	mov    %rsp,%rbp
    664a:	89 7d fc             	mov    %edi,-0x4(%rbp)
    664d:	89 75 f8             	mov    %esi,-0x8(%rbp)
    6650:	83 7d fc 00          	cmpl   $0x0,-0x4(%rbp)
    6654:	7e 14                	jle    666a <safe_mul_func_int32_t_s_s+0x28>
    6656:	83 7d f8 00          	cmpl   $0x0,-0x8(%rbp)
    665a:	7e 0e                	jle    666a <safe_mul_func_int32_t_s_s+0x28>
    665c:	b8 ff ff ff 7f       	mov    $0x7fffffff,%eax
    6661:	99                   	cltd   
    6662:	f7 7d f8             	idivl  -0x8(%rbp)
    6665:	39 45 fc             	cmp    %eax,-0x4(%rbp)
    6668:	7f 5d                	jg     66c7 <safe_mul_func_int32_t_s_s+0x85>
    666a:	83 7d fc 00          	cmpl   $0x0,-0x4(%rbp)
    666e:	7e 14                	jle    6684 <safe_mul_func_int32_t_s_s+0x42>
    6670:	83 7d f8 00          	cmpl   $0x0,-0x8(%rbp)
    6674:	7f 0e                	jg     6684 <safe_mul_func_int32_t_s_s+0x42>
    6676:	b8 00 00 00 80       	mov    $0x80000000,%eax
    667b:	99                   	cltd   
    667c:	f7 7d fc             	idivl  -0x4(%rbp)
    667f:	39 45 f8             	cmp    %eax,-0x8(%rbp)
    6682:	7c 43                	jl     66c7 <safe_mul_func_int32_t_s_s+0x85>
    6684:	83 7d fc 00          	cmpl   $0x0,-0x4(%rbp)
    6688:	7f 14                	jg     669e <safe_mul_func_int32_t_s_s+0x5c>
    668a:	83 7d f8 00          	cmpl   $0x0,-0x8(%rbp)
    668e:	7e 0e                	jle    669e <safe_mul_func_int32_t_s_s+0x5c>
    6690:	b8 00 00 00 80       	mov    $0x80000000,%eax
    6695:	99                   	cltd   
    6696:	f7 7d f8             	idivl  -0x8(%rbp)
    6699:	39 45 fc             	cmp    %eax,-0x4(%rbp)
    669c:	7c 29                	jl     66c7 <safe_mul_func_int32_t_s_s+0x85>
    669e:	83 7d fc 00          	cmpl   $0x0,-0x4(%rbp)
    66a2:	7f 1a                	jg     66be <safe_mul_func_int32_t_s_s+0x7c>
    66a4:	83 7d f8 00          	cmpl   $0x0,-0x8(%rbp)
    66a8:	7f 14                	jg     66be <safe_mul_func_int32_t_s_s+0x7c>
    66aa:	83 7d fc 00          	cmpl   $0x0,-0x4(%rbp)
    66ae:	74 0e                	je     66be <safe_mul_func_int32_t_s_s+0x7c>
    66b0:	b8 ff ff ff 7f       	mov    $0x7fffffff,%eax
    66b5:	99                   	cltd   
    66b6:	f7 7d fc             	idivl  -0x4(%rbp)
    66b9:	39 45 f8             	cmp    %eax,-0x8(%rbp)
    66bc:	7c 09                	jl     66c7 <safe_mul_func_int32_t_s_s+0x85>
    66be:	8b 45 fc             	mov    -0x4(%rbp),%eax
    66c1:	0f af 45 f8          	imul   -0x8(%rbp),%eax
    66c5:	eb 03                	jmp    66ca <safe_mul_func_int32_t_s_s+0x88>
    66c7:	8b 45 fc             	mov    -0x4(%rbp),%eax
    66ca:	5d                   	pop    %rbp
    66cb:	c3                   	retq   

00000000000066cc <safe_mod_func_int32_t_s_s>:
    66cc:	f3 0f 1e fa          	endbr64 
    66d0:	55                   	push   %rbp
    66d1:	48 89 e5             	mov    %rsp,%rbp
    66d4:	89 7d fc             	mov    %edi,-0x4(%rbp)
    66d7:	89 75 f8             	mov    %esi,-0x8(%rbp)
    66da:	83 7d f8 00          	cmpl   $0x0,-0x8(%rbp)
    66de:	74 1a                	je     66fa <safe_mod_func_int32_t_s_s+0x2e>
    66e0:	81 7d fc 00 00 00 80 	cmpl   $0x80000000,-0x4(%rbp)
    66e7:	75 06                	jne    66ef <safe_mod_func_int32_t_s_s+0x23>
    66e9:	83 7d f8 ff          	cmpl   $0xffffffff,-0x8(%rbp)
    66ed:	74 0b                	je     66fa <safe_mod_func_int32_t_s_s+0x2e>
    66ef:	8b 45 fc             	mov    -0x4(%rbp),%eax
    66f2:	99                   	cltd   
    66f3:	f7 7d f8             	idivl  -0x8(%rbp)
    66f6:	89 d0                	mov    %edx,%eax
    66f8:	eb 03                	jmp    66fd <safe_mod_func_int32_t_s_s+0x31>
    66fa:	8b 45 fc             	mov    -0x4(%rbp),%eax
    66fd:	5d                   	pop    %rbp
    66fe:	c3                   	retq   

00000000000066ff <safe_div_func_int32_t_s_s>:
    66ff:	f3 0f 1e fa          	endbr64 
    6703:	55                   	push   %rbp
    6704:	48 89 e5             	mov    %rsp,%rbp
    6707:	89 7d fc             	mov    %edi,-0x4(%rbp)
    670a:	89 75 f8             	mov    %esi,-0x8(%rbp)
    670d:	83 7d f8 00          	cmpl   $0x0,-0x8(%rbp)
    6711:	74 18                	je     672b <safe_div_func_int32_t_s_s+0x2c>
    6713:	81 7d fc 00 00 00 80 	cmpl   $0x80000000,-0x4(%rbp)
    671a:	75 06                	jne    6722 <safe_div_func_int32_t_s_s+0x23>
    671c:	83 7d f8 ff          	cmpl   $0xffffffff,-0x8(%rbp)
    6720:	74 09                	je     672b <safe_div_func_int32_t_s_s+0x2c>
    6722:	8b 45 fc             	mov    -0x4(%rbp),%eax
    6725:	99                   	cltd   
    6726:	f7 7d f8             	idivl  -0x8(%rbp)
    6729:	eb 03                	jmp    672e <safe_div_func_int32_t_s_s+0x2f>
    672b:	8b 45 fc             	mov    -0x4(%rbp),%eax
    672e:	5d                   	pop    %rbp
    672f:	c3                   	retq   

0000000000006730 <safe_lshift_func_int32_t_s_s>:
    6730:	f3 0f 1e fa          	endbr64 
    6734:	55                   	push   %rbp
    6735:	48 89 e5             	mov    %rsp,%rbp
    6738:	89 7d fc             	mov    %edi,-0x4(%rbp)
    673b:	89 75 f8             	mov    %esi,-0x8(%rbp)
    673e:	83 7d fc 00          	cmpl   $0x0,-0x4(%rbp)
    6742:	78 2d                	js     6771 <safe_lshift_func_int32_t_s_s+0x41>
    6744:	83 7d f8 00          	cmpl   $0x0,-0x8(%rbp)
    6748:	78 27                	js     6771 <safe_lshift_func_int32_t_s_s+0x41>
    674a:	83 7d f8 1f          	cmpl   $0x1f,-0x8(%rbp)
    674e:	7f 21                	jg     6771 <safe_lshift_func_int32_t_s_s+0x41>
    6750:	8b 45 f8             	mov    -0x8(%rbp),%eax
    6753:	ba ff ff ff 7f       	mov    $0x7fffffff,%edx
    6758:	89 c1                	mov    %eax,%ecx
    675a:	d3 fa                	sar    %cl,%edx
    675c:	89 d0                	mov    %edx,%eax
    675e:	39 45 fc             	cmp    %eax,-0x4(%rbp)
    6761:	7f 0e                	jg     6771 <safe_lshift_func_int32_t_s_s+0x41>
    6763:	8b 45 f8             	mov    -0x8(%rbp),%eax
    6766:	8b 55 fc             	mov    -0x4(%rbp),%edx
    6769:	89 c1                	mov    %eax,%ecx
    676b:	d3 e2                	shl    %cl,%edx
    676d:	89 d0                	mov    %edx,%eax
    676f:	eb 03                	jmp    6774 <safe_lshift_func_int32_t_s_s+0x44>
    6771:	8b 45 fc             	mov    -0x4(%rbp),%eax
    6774:	5d                   	pop    %rbp
    6775:	c3                   	retq   

0000000000006776 <safe_lshift_func_int32_t_s_u>:
    6776:	f3 0f 1e fa          	endbr64 
    677a:	55                   	push   %rbp
    677b:	48 89 e5             	mov    %rsp,%rbp
    677e:	89 7d fc             	mov    %edi,-0x4(%rbp)
    6781:	89 75 f8             	mov    %esi,-0x8(%rbp)
    6784:	83 7d fc 00          	cmpl   $0x0,-0x4(%rbp)
    6788:	78 27                	js     67b1 <safe_lshift_func_int32_t_s_u+0x3b>
    678a:	83 7d f8 1f          	cmpl   $0x1f,-0x8(%rbp)
    678e:	77 21                	ja     67b1 <safe_lshift_func_int32_t_s_u+0x3b>
    6790:	8b 45 f8             	mov    -0x8(%rbp),%eax
    6793:	ba ff ff ff 7f       	mov    $0x7fffffff,%edx
    6798:	89 c1                	mov    %eax,%ecx
    679a:	d3 fa                	sar    %cl,%edx
    679c:	89 d0                	mov    %edx,%eax
    679e:	39 45 fc             	cmp    %eax,-0x4(%rbp)
    67a1:	7f 0e                	jg     67b1 <safe_lshift_func_int32_t_s_u+0x3b>
    67a3:	8b 45 f8             	mov    -0x8(%rbp),%eax
    67a6:	8b 55 fc             	mov    -0x4(%rbp),%edx
    67a9:	89 c1                	mov    %eax,%ecx
    67ab:	d3 e2                	shl    %cl,%edx
    67ad:	89 d0                	mov    %edx,%eax
    67af:	eb 03                	jmp    67b4 <safe_lshift_func_int32_t_s_u+0x3e>
    67b1:	8b 45 fc             	mov    -0x4(%rbp),%eax
    67b4:	5d                   	pop    %rbp
    67b5:	c3                   	retq   

00000000000067b6 <safe_rshift_func_int32_t_s_s>:
    67b6:	f3 0f 1e fa          	endbr64 
    67ba:	55                   	push   %rbp
    67bb:	48 89 e5             	mov    %rsp,%rbp
    67be:	89 7d fc             	mov    %edi,-0x4(%rbp)
    67c1:	89 75 f8             	mov    %esi,-0x8(%rbp)
    67c4:	83 7d fc 00          	cmpl   $0x0,-0x4(%rbp)
    67c8:	78 1a                	js     67e4 <safe_rshift_func_int32_t_s_s+0x2e>
    67ca:	83 7d f8 00          	cmpl   $0x0,-0x8(%rbp)
    67ce:	78 14                	js     67e4 <safe_rshift_func_int32_t_s_s+0x2e>
    67d0:	83 7d f8 1f          	cmpl   $0x1f,-0x8(%rbp)
    67d4:	7f 0e                	jg     67e4 <safe_rshift_func_int32_t_s_s+0x2e>
    67d6:	8b 45 f8             	mov    -0x8(%rbp),%eax
    67d9:	8b 55 fc             	mov    -0x4(%rbp),%edx
    67dc:	89 c1                	mov    %eax,%ecx
    67de:	d3 fa                	sar    %cl,%edx
    67e0:	89 d0                	mov    %edx,%eax
    67e2:	eb 03                	jmp    67e7 <safe_rshift_func_int32_t_s_s+0x31>
    67e4:	8b 45 fc             	mov    -0x4(%rbp),%eax
    67e7:	5d                   	pop    %rbp
    67e8:	c3                   	retq   

00000000000067e9 <safe_rshift_func_int32_t_s_u>:
    67e9:	f3 0f 1e fa          	endbr64 
    67ed:	55                   	push   %rbp
    67ee:	48 89 e5             	mov    %rsp,%rbp
    67f1:	89 7d fc             	mov    %edi,-0x4(%rbp)
    67f4:	89 75 f8             	mov    %esi,-0x8(%rbp)
    67f7:	83 7d fc 00          	cmpl   $0x0,-0x4(%rbp)
    67fb:	78 14                	js     6811 <safe_rshift_func_int32_t_s_u+0x28>
    67fd:	83 7d f8 1f          	cmpl   $0x1f,-0x8(%rbp)
    6801:	77 0e                	ja     6811 <safe_rshift_func_int32_t_s_u+0x28>
    6803:	8b 45 f8             	mov    -0x8(%rbp),%eax
    6806:	8b 55 fc             	mov    -0x4(%rbp),%edx
    6809:	89 c1                	mov    %eax,%ecx
    680b:	d3 fa                	sar    %cl,%edx
    680d:	89 d0                	mov    %edx,%eax
    680f:	eb 03                	jmp    6814 <safe_rshift_func_int32_t_s_u+0x2b>
    6811:	8b 45 fc             	mov    -0x4(%rbp),%eax
    6814:	5d                   	pop    %rbp
    6815:	c3                   	retq   

0000000000006816 <safe_unary_minus_func_int64_t_s>:
    6816:	f3 0f 1e fa          	endbr64 
    681a:	55                   	push   %rbp
    681b:	48 89 e5             	mov    %rsp,%rbp
    681e:	48 89 7d f8          	mov    %rdi,-0x8(%rbp)
    6822:	48 b8 00 00 00 00 00 	movabs $0x8000000000000000,%rax
    6829:	00 00 80 
    682c:	48 39 45 f8          	cmp    %rax,-0x8(%rbp)
    6830:	74 09                	je     683b <safe_unary_minus_func_int64_t_s+0x25>
    6832:	48 8b 45 f8          	mov    -0x8(%rbp),%rax
    6836:	48 f7 d8             	neg    %rax
    6839:	eb 04                	jmp    683f <safe_unary_minus_func_int64_t_s+0x29>
    683b:	48 8b 45 f8          	mov    -0x8(%rbp),%rax
    683f:	5d                   	pop    %rbp
    6840:	c3                   	retq   

0000000000006841 <safe_add_func_int64_t_s_s>:
    6841:	f3 0f 1e fa          	endbr64 
    6845:	55                   	push   %rbp
    6846:	48 89 e5             	mov    %rsp,%rbp
    6849:	48 89 7d f8          	mov    %rdi,-0x8(%rbp)
    684d:	48 89 75 f0          	mov    %rsi,-0x10(%rbp)
    6851:	48 83 7d f8 00       	cmpq   $0x0,-0x8(%rbp)
    6856:	7e 1b                	jle    6873 <safe_add_func_int64_t_s_s+0x32>
    6858:	48 83 7d f0 00       	cmpq   $0x0,-0x10(%rbp)
    685d:	7e 14                	jle    6873 <safe_add_func_int64_t_s_s+0x32>
    685f:	48 b8 ff ff ff ff ff 	movabs $0x7fffffffffffffff,%rax
    6866:	ff ff 7f 
    6869:	48 2b 45 f0          	sub    -0x10(%rbp),%rax
    686d:	48 39 45 f8          	cmp    %rax,-0x8(%rbp)
    6871:	7f 2f                	jg     68a2 <safe_add_func_int64_t_s_s+0x61>
    6873:	48 83 7d f8 00       	cmpq   $0x0,-0x8(%rbp)
    6878:	79 1b                	jns    6895 <safe_add_func_int64_t_s_s+0x54>
    687a:	48 83 7d f0 00       	cmpq   $0x0,-0x10(%rbp)
    687f:	79 14                	jns    6895 <safe_add_func_int64_t_s_s+0x54>
    6881:	48 b8 00 00 00 00 00 	movabs $0x8000000000000000,%rax
    6888:	00 00 80 
    688b:	48 2b 45 f0          	sub    -0x10(%rbp),%rax
    688f:	48 39 45 f8          	cmp    %rax,-0x8(%rbp)
    6893:	7c 0d                	jl     68a2 <safe_add_func_int64_t_s_s+0x61>
    6895:	48 8b 55 f8          	mov    -0x8(%rbp),%rdx
    6899:	48 8b 45 f0          	mov    -0x10(%rbp),%rax
    689d:	48 01 d0             	add    %rdx,%rax
    68a0:	eb 04                	jmp    68a6 <safe_add_func_int64_t_s_s+0x65>
    68a2:	48 8b 45 f8          	mov    -0x8(%rbp),%rax
    68a6:	5d                   	pop    %rbp
    68a7:	c3                   	retq   

00000000000068a8 <safe_sub_func_int64_t_s_s>:
    68a8:	f3 0f 1e fa          	endbr64 
    68ac:	55                   	push   %rbp
    68ad:	48 89 e5             	mov    %rsp,%rbp
    68b0:	48 89 7d f8          	mov    %rdi,-0x8(%rbp)
    68b4:	48 89 75 f0          	mov    %rsi,-0x10(%rbp)
    68b8:	48 8b 45 f8          	mov    -0x8(%rbp),%rax
    68bc:	48 33 45 f0          	xor    -0x10(%rbp),%rax
    68c0:	48 89 c2             	mov    %rax,%rdx
    68c3:	48 8b 45 f8          	mov    -0x8(%rbp),%rax
    68c7:	48 33 45 f0          	xor    -0x10(%rbp),%rax
    68cb:	48 b9 00 00 00 00 00 	movabs $0x8000000000000000,%rcx
    68d2:	00 00 80 
    68d5:	48 21 c8             	and    %rcx,%rax
    68d8:	48 33 45 f8          	xor    -0x8(%rbp),%rax
    68dc:	48 2b 45 f0          	sub    -0x10(%rbp),%rax
    68e0:	48 33 45 f0          	xor    -0x10(%rbp),%rax
    68e4:	48 21 d0             	and    %rdx,%rax
    68e7:	48 85 c0             	test   %rax,%rax
    68ea:	78 0a                	js     68f6 <safe_sub_func_int64_t_s_s+0x4e>
    68ec:	48 8b 45 f8          	mov    -0x8(%rbp),%rax
    68f0:	48 2b 45 f0          	sub    -0x10(%rbp),%rax
    68f4:	eb 04                	jmp    68fa <safe_sub_func_int64_t_s_s+0x52>
    68f6:	48 8b 45 f8          	mov    -0x8(%rbp),%rax
    68fa:	5d                   	pop    %rbp
    68fb:	c3                   	retq   

00000000000068fc <safe_mul_func_int64_t_s_s>:
    68fc:	f3 0f 1e fa          	endbr64 
    6900:	55                   	push   %rbp
    6901:	48 89 e5             	mov    %rsp,%rbp
    6904:	48 89 7d f8          	mov    %rdi,-0x8(%rbp)
    6908:	48 89 75 f0          	mov    %rsi,-0x10(%rbp)
    690c:	48 83 7d f8 00       	cmpq   $0x0,-0x8(%rbp)
    6911:	7e 1d                	jle    6930 <safe_mul_func_int64_t_s_s+0x34>
    6913:	48 83 7d f0 00       	cmpq   $0x0,-0x10(%rbp)
    6918:	7e 16                	jle    6930 <safe_mul_func_int64_t_s_s+0x34>
    691a:	48 b8 ff ff ff ff ff 	movabs $0x7fffffffffffffff,%rax
    6921:	ff ff 7f 
    6924:	48 99                	cqto   
    6926:	48 f7 7d f0          	idivq  -0x10(%rbp)
    692a:	48 39 45 f8          	cmp    %rax,-0x8(%rbp)
    692e:	7f 7e                	jg     69ae <safe_mul_func_int64_t_s_s+0xb2>
    6930:	48 83 7d f8 00       	cmpq   $0x0,-0x8(%rbp)
    6935:	7e 1d                	jle    6954 <safe_mul_func_int64_t_s_s+0x58>
    6937:	48 83 7d f0 00       	cmpq   $0x0,-0x10(%rbp)
    693c:	7f 16                	jg     6954 <safe_mul_func_int64_t_s_s+0x58>
    693e:	48 b8 00 00 00 00 00 	movabs $0x8000000000000000,%rax
    6945:	00 00 80 
    6948:	48 99                	cqto   
    694a:	48 f7 7d f8          	idivq  -0x8(%rbp)
    694e:	48 39 45 f0          	cmp    %rax,-0x10(%rbp)
    6952:	7c 5a                	jl     69ae <safe_mul_func_int64_t_s_s+0xb2>
    6954:	48 83 7d f8 00       	cmpq   $0x0,-0x8(%rbp)
    6959:	7f 1d                	jg     6978 <safe_mul_func_int64_t_s_s+0x7c>
    695b:	48 83 7d f0 00       	cmpq   $0x0,-0x10(%rbp)
    6960:	7e 16                	jle    6978 <safe_mul_func_int64_t_s_s+0x7c>
    6962:	48 b8 00 00 00 00 00 	movabs $0x8000000000000000,%rax
    6969:	00 00 80 
    696c:	48 99                	cqto   
    696e:	48 f7 7d f0          	idivq  -0x10(%rbp)
    6972:	48 39 45 f8          	cmp    %rax,-0x8(%rbp)
    6976:	7c 36                	jl     69ae <safe_mul_func_int64_t_s_s+0xb2>
    6978:	48 83 7d f8 00       	cmpq   $0x0,-0x8(%rbp)
    697d:	7f 24                	jg     69a3 <safe_mul_func_int64_t_s_s+0xa7>
    697f:	48 83 7d f0 00       	cmpq   $0x0,-0x10(%rbp)
    6984:	7f 1d                	jg     69a3 <safe_mul_func_int64_t_s_s+0xa7>
    6986:	48 83 7d f8 00       	cmpq   $0x0,-0x8(%rbp)
    698b:	74 16                	je     69a3 <safe_mul_func_int64_t_s_s+0xa7>
    698d:	48 b8 ff ff ff ff ff 	movabs $0x7fffffffffffffff,%rax
    6994:	ff ff 7f 
    6997:	48 99                	cqto   
    6999:	48 f7 7d f8          	idivq  -0x8(%rbp)
    699d:	48 39 45 f0          	cmp    %rax,-0x10(%rbp)
    69a1:	7c 0b                	jl     69ae <safe_mul_func_int64_t_s_s+0xb2>
    69a3:	48 8b 45 f8          	mov    -0x8(%rbp),%rax
    69a7:	48 0f af 45 f0       	imul   -0x10(%rbp),%rax
    69ac:	eb 04                	jmp    69b2 <safe_mul_func_int64_t_s_s+0xb6>
    69ae:	48 8b 45 f8          	mov    -0x8(%rbp),%rax
    69b2:	5d                   	pop    %rbp
    69b3:	c3                   	retq   

00000000000069b4 <safe_mod_func_int64_t_s_s>:
    69b4:	f3 0f 1e fa          	endbr64 
    69b8:	55                   	push   %rbp
    69b9:	48 89 e5             	mov    %rsp,%rbp
    69bc:	48 89 7d f8          	mov    %rdi,-0x8(%rbp)
    69c0:	48 89 75 f0          	mov    %rsi,-0x10(%rbp)
    69c4:	48 83 7d f0 00       	cmpq   $0x0,-0x10(%rbp)
    69c9:	74 26                	je     69f1 <safe_mod_func_int64_t_s_s+0x3d>
    69cb:	48 b8 00 00 00 00 00 	movabs $0x8000000000000000,%rax
    69d2:	00 00 80 
    69d5:	48 39 45 f8          	cmp    %rax,-0x8(%rbp)
    69d9:	75 07                	jne    69e2 <safe_mod_func_int64_t_s_s+0x2e>
    69db:	48 83 7d f0 ff       	cmpq   $0xffffffffffffffff,-0x10(%rbp)
    69e0:	74 0f                	je     69f1 <safe_mod_func_int64_t_s_s+0x3d>
    69e2:	48 8b 45 f8          	mov    -0x8(%rbp),%rax
    69e6:	48 99                	cqto   
    69e8:	48 f7 7d f0          	idivq  -0x10(%rbp)
    69ec:	48 89 d0             	mov    %rdx,%rax
    69ef:	eb 04                	jmp    69f5 <safe_mod_func_int64_t_s_s+0x41>
    69f1:	48 8b 45 f8          	mov    -0x8(%rbp),%rax
    69f5:	5d                   	pop    %rbp
    69f6:	c3                   	retq   

00000000000069f7 <safe_div_func_int64_t_s_s>:
    69f7:	f3 0f 1e fa          	endbr64 
    69fb:	55                   	push   %rbp
    69fc:	48 89 e5             	mov    %rsp,%rbp
    69ff:	48 89 7d f8          	mov    %rdi,-0x8(%rbp)
    6a03:	48 89 75 f0          	mov    %rsi,-0x10(%rbp)
    6a07:	48 83 7d f0 00       	cmpq   $0x0,-0x10(%rbp)
    6a0c:	74 23                	je     6a31 <safe_div_func_int64_t_s_s+0x3a>
    6a0e:	48 b8 00 00 00 00 00 	movabs $0x8000000000000000,%rax
    6a15:	00 00 80 
    6a18:	48 39 45 f8          	cmp    %rax,-0x8(%rbp)
    6a1c:	75 07                	jne    6a25 <safe_div_func_int64_t_s_s+0x2e>
    6a1e:	48 83 7d f0 ff       	cmpq   $0xffffffffffffffff,-0x10(%rbp)
    6a23:	74 0c                	je     6a31 <safe_div_func_int64_t_s_s+0x3a>
    6a25:	48 8b 45 f8          	mov    -0x8(%rbp),%rax
    6a29:	48 99                	cqto   
    6a2b:	48 f7 7d f0          	idivq  -0x10(%rbp)
    6a2f:	eb 04                	jmp    6a35 <safe_div_func_int64_t_s_s+0x3e>
    6a31:	48 8b 45 f8          	mov    -0x8(%rbp),%rax
    6a35:	5d                   	pop    %rbp
    6a36:	c3                   	retq   

0000000000006a37 <safe_lshift_func_int64_t_s_s>:
    6a37:	f3 0f 1e fa          	endbr64 
    6a3b:	55                   	push   %rbp
    6a3c:	48 89 e5             	mov    %rsp,%rbp
    6a3f:	48 89 7d f8          	mov    %rdi,-0x8(%rbp)
    6a43:	89 75 f4             	mov    %esi,-0xc(%rbp)
    6a46:	48 83 7d f8 00       	cmpq   $0x0,-0x8(%rbp)
    6a4b:	78 38                	js     6a85 <safe_lshift_func_int64_t_s_s+0x4e>
    6a4d:	83 7d f4 00          	cmpl   $0x0,-0xc(%rbp)
    6a51:	78 32                	js     6a85 <safe_lshift_func_int64_t_s_s+0x4e>
    6a53:	83 7d f4 1f          	cmpl   $0x1f,-0xc(%rbp)
    6a57:	7f 2c                	jg     6a85 <safe_lshift_func_int64_t_s_s+0x4e>
    6a59:	8b 45 f4             	mov    -0xc(%rbp),%eax
    6a5c:	48 ba ff ff ff ff ff 	movabs $0x7fffffffffffffff,%rdx
    6a63:	ff ff 7f 
    6a66:	89 c1                	mov    %eax,%ecx
    6a68:	48 d3 fa             	sar    %cl,%rdx
    6a6b:	48 89 d0             	mov    %rdx,%rax
    6a6e:	48 39 45 f8          	cmp    %rax,-0x8(%rbp)
    6a72:	7f 11                	jg     6a85 <safe_lshift_func_int64_t_s_s+0x4e>
    6a74:	8b 45 f4             	mov    -0xc(%rbp),%eax
    6a77:	48 8b 55 f8          	mov    -0x8(%rbp),%rdx
    6a7b:	89 c1                	mov    %eax,%ecx
    6a7d:	48 d3 e2             	shl    %cl,%rdx
    6a80:	48 89 d0             	mov    %rdx,%rax
    6a83:	eb 04                	jmp    6a89 <safe_lshift_func_int64_t_s_s+0x52>
    6a85:	48 8b 45 f8          	mov    -0x8(%rbp),%rax
    6a89:	5d                   	pop    %rbp
    6a8a:	c3                   	retq   

0000000000006a8b <safe_lshift_func_int64_t_s_u>:
    6a8b:	f3 0f 1e fa          	endbr64 
    6a8f:	55                   	push   %rbp
    6a90:	48 89 e5             	mov    %rsp,%rbp
    6a93:	48 89 7d f8          	mov    %rdi,-0x8(%rbp)
    6a97:	89 75 f4             	mov    %esi,-0xc(%rbp)
    6a9a:	48 83 7d f8 00       	cmpq   $0x0,-0x8(%rbp)
    6a9f:	78 32                	js     6ad3 <safe_lshift_func_int64_t_s_u+0x48>
    6aa1:	83 7d f4 1f          	cmpl   $0x1f,-0xc(%rbp)
    6aa5:	77 2c                	ja     6ad3 <safe_lshift_func_int64_t_s_u+0x48>
    6aa7:	8b 45 f4             	mov    -0xc(%rbp),%eax
    6aaa:	48 ba ff ff ff ff ff 	movabs $0x7fffffffffffffff,%rdx
    6ab1:	ff ff 7f 
    6ab4:	89 c1                	mov    %eax,%ecx
    6ab6:	48 d3 fa             	sar    %cl,%rdx
    6ab9:	48 89 d0             	mov    %rdx,%rax
    6abc:	48 39 45 f8          	cmp    %rax,-0x8(%rbp)
    6ac0:	7f 11                	jg     6ad3 <safe_lshift_func_int64_t_s_u+0x48>
    6ac2:	8b 45 f4             	mov    -0xc(%rbp),%eax
    6ac5:	48 8b 55 f8          	mov    -0x8(%rbp),%rdx
    6ac9:	89 c1                	mov    %eax,%ecx
    6acb:	48 d3 e2             	shl    %cl,%rdx
    6ace:	48 89 d0             	mov    %rdx,%rax
    6ad1:	eb 04                	jmp    6ad7 <safe_lshift_func_int64_t_s_u+0x4c>
    6ad3:	48 8b 45 f8          	mov    -0x8(%rbp),%rax
    6ad7:	5d                   	pop    %rbp
    6ad8:	c3                   	retq   

0000000000006ad9 <safe_rshift_func_int64_t_s_s>:
    6ad9:	f3 0f 1e fa          	endbr64 
    6add:	55                   	push   %rbp
    6ade:	48 89 e5             	mov    %rsp,%rbp
    6ae1:	48 89 7d f8          	mov    %rdi,-0x8(%rbp)
    6ae5:	89 75 f4             	mov    %esi,-0xc(%rbp)
    6ae8:	48 83 7d f8 00       	cmpq   $0x0,-0x8(%rbp)
    6aed:	78 1d                	js     6b0c <safe_rshift_func_int64_t_s_s+0x33>
    6aef:	83 7d f4 00          	cmpl   $0x0,-0xc(%rbp)
    6af3:	78 17                	js     6b0c <safe_rshift_func_int64_t_s_s+0x33>
    6af5:	83 7d f4 1f          	cmpl   $0x1f,-0xc(%rbp)
    6af9:	7f 11                	jg     6b0c <safe_rshift_func_int64_t_s_s+0x33>
    6afb:	8b 45 f4             	mov    -0xc(%rbp),%eax
    6afe:	48 8b 55 f8          	mov    -0x8(%rbp),%rdx
    6b02:	89 c1                	mov    %eax,%ecx
    6b04:	48 d3 fa             	sar    %cl,%rdx
    6b07:	48 89 d0             	mov    %rdx,%rax
    6b0a:	eb 04                	jmp    6b10 <safe_rshift_func_int64_t_s_s+0x37>
    6b0c:	48 8b 45 f8          	mov    -0x8(%rbp),%rax
    6b10:	5d                   	pop    %rbp
    6b11:	c3                   	retq   

0000000000006b12 <safe_rshift_func_int64_t_s_u>:
    6b12:	f3 0f 1e fa          	endbr64 
    6b16:	55                   	push   %rbp
    6b17:	48 89 e5             	mov    %rsp,%rbp
    6b1a:	48 89 7d f8          	mov    %rdi,-0x8(%rbp)
    6b1e:	89 75 f4             	mov    %esi,-0xc(%rbp)
    6b21:	48 83 7d f8 00       	cmpq   $0x0,-0x8(%rbp)
    6b26:	78 17                	js     6b3f <safe_rshift_func_int64_t_s_u+0x2d>
    6b28:	83 7d f4 1f          	cmpl   $0x1f,-0xc(%rbp)
    6b2c:	77 11                	ja     6b3f <safe_rshift_func_int64_t_s_u+0x2d>
    6b2e:	8b 45 f4             	mov    -0xc(%rbp),%eax
    6b31:	48 8b 55 f8          	mov    -0x8(%rbp),%rdx
    6b35:	89 c1                	mov    %eax,%ecx
    6b37:	48 d3 fa             	sar    %cl,%rdx
    6b3a:	48 89 d0             	mov    %rdx,%rax
    6b3d:	eb 04                	jmp    6b43 <safe_rshift_func_int64_t_s_u+0x31>
    6b3f:	48 8b 45 f8          	mov    -0x8(%rbp),%rax
    6b43:	5d                   	pop    %rbp
    6b44:	c3                   	retq   

0000000000006b45 <safe_unary_minus_func_uint8_t_u>:
    6b45:	f3 0f 1e fa          	endbr64 
    6b49:	55                   	push   %rbp
    6b4a:	48 89 e5             	mov    %rsp,%rbp
    6b4d:	89 f8                	mov    %edi,%eax
    6b4f:	88 45 fc             	mov    %al,-0x4(%rbp)
    6b52:	0f b6 45 fc          	movzbl -0x4(%rbp),%eax
    6b56:	f7 d8                	neg    %eax
    6b58:	5d                   	pop    %rbp
    6b59:	c3                   	retq   

0000000000006b5a <safe_add_func_uint8_t_u_u>:
    6b5a:	f3 0f 1e fa          	endbr64 
    6b5e:	55                   	push   %rbp
    6b5f:	48 89 e5             	mov    %rsp,%rbp
    6b62:	89 fa                	mov    %edi,%edx
    6b64:	89 f0                	mov    %esi,%eax
    6b66:	88 55 fc             	mov    %dl,-0x4(%rbp)
    6b69:	88 45 f8             	mov    %al,-0x8(%rbp)
    6b6c:	0f b6 55 fc          	movzbl -0x4(%rbp),%edx
    6b70:	0f b6 45 f8          	movzbl -0x8(%rbp),%eax
    6b74:	01 d0                	add    %edx,%eax
    6b76:	5d                   	pop    %rbp
    6b77:	c3                   	retq   

0000000000006b78 <safe_sub_func_uint8_t_u_u>:
    6b78:	f3 0f 1e fa          	endbr64 
    6b7c:	55                   	push   %rbp
    6b7d:	48 89 e5             	mov    %rsp,%rbp
    6b80:	89 fa                	mov    %edi,%edx
    6b82:	89 f0                	mov    %esi,%eax
    6b84:	88 55 fc             	mov    %dl,-0x4(%rbp)
    6b87:	88 45 f8             	mov    %al,-0x8(%rbp)
    6b8a:	0f b6 45 fc          	movzbl -0x4(%rbp),%eax
    6b8e:	2a 45 f8             	sub    -0x8(%rbp),%al
    6b91:	5d                   	pop    %rbp
    6b92:	c3                   	retq   

0000000000006b93 <safe_mul_func_uint8_t_u_u>:
    6b93:	f3 0f 1e fa          	endbr64 
    6b97:	55                   	push   %rbp
    6b98:	48 89 e5             	mov    %rsp,%rbp
    6b9b:	89 fa                	mov    %edi,%edx
    6b9d:	89 f0                	mov    %esi,%eax
    6b9f:	88 55 fc             	mov    %dl,-0x4(%rbp)
    6ba2:	88 45 f8             	mov    %al,-0x8(%rbp)
    6ba5:	0f b6 45 fc          	movzbl -0x4(%rbp),%eax
    6ba9:	f6 65 f8             	mulb   -0x8(%rbp)
    6bac:	5d                   	pop    %rbp
    6bad:	c3                   	retq   

0000000000006bae <safe_mod_func_uint8_t_u_u>:
    6bae:	f3 0f 1e fa          	endbr64 
    6bb2:	55                   	push   %rbp
    6bb3:	48 89 e5             	mov    %rsp,%rbp
    6bb6:	89 fa                	mov    %edi,%edx
    6bb8:	89 f0                	mov    %esi,%eax
    6bba:	88 55 fc             	mov    %dl,-0x4(%rbp)
    6bbd:	88 45 f8             	mov    %al,-0x8(%rbp)
    6bc0:	80 7d f8 00          	cmpb   $0x0,-0x8(%rbp)
    6bc4:	74 0f                	je     6bd5 <safe_mod_func_uint8_t_u_u+0x27>
    6bc6:	0f b6 45 fc          	movzbl -0x4(%rbp),%eax
    6bca:	0f b6 c0             	movzbl %al,%eax
    6bcd:	f6 75 f8             	divb   -0x8(%rbp)
    6bd0:	0f b6 c4             	movzbl %ah,%eax
    6bd3:	eb 04                	jmp    6bd9 <safe_mod_func_uint8_t_u_u+0x2b>
    6bd5:	0f b6 45 fc          	movzbl -0x4(%rbp),%eax
    6bd9:	5d                   	pop    %rbp
    6bda:	c3                   	retq   

0000000000006bdb <safe_div_func_uint8_t_u_u>:
    6bdb:	f3 0f 1e fa          	endbr64 
    6bdf:	55                   	push   %rbp
    6be0:	48 89 e5             	mov    %rsp,%rbp
    6be3:	89 fa                	mov    %edi,%edx
    6be5:	89 f0                	mov    %esi,%eax
    6be7:	88 55 fc             	mov    %dl,-0x4(%rbp)
    6bea:	88 45 f8             	mov    %al,-0x8(%rbp)
    6bed:	80 7d f8 00          	cmpb   $0x0,-0x8(%rbp)
    6bf1:	74 0c                	je     6bff <safe_div_func_uint8_t_u_u+0x24>
    6bf3:	0f b6 45 fc          	movzbl -0x4(%rbp),%eax
    6bf7:	0f b6 c0             	movzbl %al,%eax
    6bfa:	f6 75 f8             	divb   -0x8(%rbp)
    6bfd:	eb 04                	jmp    6c03 <safe_div_func_uint8_t_u_u+0x28>
    6bff:	0f b6 45 fc          	movzbl -0x4(%rbp),%eax
    6c03:	5d                   	pop    %rbp
    6c04:	c3                   	retq   

0000000000006c05 <safe_lshift_func_uint8_t_u_s>:
    6c05:	f3 0f 1e fa          	endbr64 
    6c09:	55                   	push   %rbp
    6c0a:	48 89 e5             	mov    %rsp,%rbp
    6c0d:	89 f8                	mov    %edi,%eax
    6c0f:	89 75 f8             	mov    %esi,-0x8(%rbp)
    6c12:	88 45 fc             	mov    %al,-0x4(%rbp)
    6c15:	83 7d f8 00          	cmpl   $0x0,-0x8(%rbp)
    6c19:	78 2b                	js     6c46 <safe_lshift_func_uint8_t_u_s+0x41>
    6c1b:	83 7d f8 1f          	cmpl   $0x1f,-0x8(%rbp)
    6c1f:	7f 25                	jg     6c46 <safe_lshift_func_uint8_t_u_s+0x41>
    6c21:	0f b6 55 fc          	movzbl -0x4(%rbp),%edx
    6c25:	8b 45 f8             	mov    -0x8(%rbp),%eax
    6c28:	be ff 00 00 00       	mov    $0xff,%esi
    6c2d:	89 c1                	mov    %eax,%ecx
    6c2f:	d3 fe                	sar    %cl,%esi
    6c31:	89 f0                	mov    %esi,%eax
    6c33:	39 c2                	cmp    %eax,%edx
    6c35:	7f 0f                	jg     6c46 <safe_lshift_func_uint8_t_u_s+0x41>
    6c37:	0f b6 55 fc          	movzbl -0x4(%rbp),%edx
    6c3b:	8b 45 f8             	mov    -0x8(%rbp),%eax
    6c3e:	89 c1                	mov    %eax,%ecx
    6c40:	d3 e2                	shl    %cl,%edx
    6c42:	89 d0                	mov    %edx,%eax
    6c44:	eb 04                	jmp    6c4a <safe_lshift_func_uint8_t_u_s+0x45>
    6c46:	0f b6 45 fc          	movzbl -0x4(%rbp),%eax
    6c4a:	5d                   	pop    %rbp
    6c4b:	c3                   	retq   

0000000000006c4c <safe_lshift_func_uint8_t_u_u>:
    6c4c:	f3 0f 1e fa          	endbr64 
    6c50:	55                   	push   %rbp
    6c51:	48 89 e5             	mov    %rsp,%rbp
    6c54:	89 f8                	mov    %edi,%eax
    6c56:	89 75 f8             	mov    %esi,-0x8(%rbp)
    6c59:	88 45 fc             	mov    %al,-0x4(%rbp)
    6c5c:	83 7d f8 1f          	cmpl   $0x1f,-0x8(%rbp)
    6c60:	77 25                	ja     6c87 <safe_lshift_func_uint8_t_u_u+0x3b>
    6c62:	0f b6 55 fc          	movzbl -0x4(%rbp),%edx
    6c66:	8b 45 f8             	mov    -0x8(%rbp),%eax
    6c69:	be ff 00 00 00       	mov    $0xff,%esi
    6c6e:	89 c1                	mov    %eax,%ecx
    6c70:	d3 fe                	sar    %cl,%esi
    6c72:	89 f0                	mov    %esi,%eax
    6c74:	39 c2                	cmp    %eax,%edx
    6c76:	7f 0f                	jg     6c87 <safe_lshift_func_uint8_t_u_u+0x3b>
    6c78:	0f b6 55 fc          	movzbl -0x4(%rbp),%edx
    6c7c:	8b 45 f8             	mov    -0x8(%rbp),%eax
    6c7f:	89 c1                	mov    %eax,%ecx
    6c81:	d3 e2                	shl    %cl,%edx
    6c83:	89 d0                	mov    %edx,%eax
    6c85:	eb 04                	jmp    6c8b <safe_lshift_func_uint8_t_u_u+0x3f>
    6c87:	0f b6 45 fc          	movzbl -0x4(%rbp),%eax
    6c8b:	5d                   	pop    %rbp
    6c8c:	c3                   	retq   

0000000000006c8d <safe_rshift_func_uint8_t_u_s>:
    6c8d:	f3 0f 1e fa          	endbr64 
    6c91:	55                   	push   %rbp
    6c92:	48 89 e5             	mov    %rsp,%rbp
    6c95:	89 f8                	mov    %edi,%eax
    6c97:	89 75 f8             	mov    %esi,-0x8(%rbp)
    6c9a:	88 45 fc             	mov    %al,-0x4(%rbp)
    6c9d:	83 7d f8 00          	cmpl   $0x0,-0x8(%rbp)
    6ca1:	78 15                	js     6cb8 <safe_rshift_func_uint8_t_u_s+0x2b>
    6ca3:	83 7d f8 1f          	cmpl   $0x1f,-0x8(%rbp)
    6ca7:	7f 0f                	jg     6cb8 <safe_rshift_func_uint8_t_u_s+0x2b>
    6ca9:	0f b6 55 fc          	movzbl -0x4(%rbp),%edx
    6cad:	8b 45 f8             	mov    -0x8(%rbp),%eax
    6cb0:	89 c1                	mov    %eax,%ecx
    6cb2:	d3 fa                	sar    %cl,%edx
    6cb4:	89 d0                	mov    %edx,%eax
    6cb6:	eb 04                	jmp    6cbc <safe_rshift_func_uint8_t_u_s+0x2f>
    6cb8:	0f b6 45 fc          	movzbl -0x4(%rbp),%eax
    6cbc:	5d                   	pop    %rbp
    6cbd:	c3                   	retq   

0000000000006cbe <safe_rshift_func_uint8_t_u_u>:
    6cbe:	f3 0f 1e fa          	endbr64 
    6cc2:	55                   	push   %rbp
    6cc3:	48 89 e5             	mov    %rsp,%rbp
    6cc6:	89 f8                	mov    %edi,%eax
    6cc8:	89 75 f8             	mov    %esi,-0x8(%rbp)
    6ccb:	88 45 fc             	mov    %al,-0x4(%rbp)
    6cce:	83 7d f8 1f          	cmpl   $0x1f,-0x8(%rbp)
    6cd2:	77 0f                	ja     6ce3 <safe_rshift_func_uint8_t_u_u+0x25>
    6cd4:	0f b6 55 fc          	movzbl -0x4(%rbp),%edx
    6cd8:	8b 45 f8             	mov    -0x8(%rbp),%eax
    6cdb:	89 c1                	mov    %eax,%ecx
    6cdd:	d3 fa                	sar    %cl,%edx
    6cdf:	89 d0                	mov    %edx,%eax
    6ce1:	eb 04                	jmp    6ce7 <safe_rshift_func_uint8_t_u_u+0x29>
    6ce3:	0f b6 45 fc          	movzbl -0x4(%rbp),%eax
    6ce7:	5d                   	pop    %rbp
    6ce8:	c3                   	retq   

0000000000006ce9 <safe_unary_minus_func_uint16_t_u>:
    6ce9:	f3 0f 1e fa          	endbr64 
    6ced:	55                   	push   %rbp
    6cee:	48 89 e5             	mov    %rsp,%rbp
    6cf1:	89 f8                	mov    %edi,%eax
    6cf3:	66 89 45 fc          	mov    %ax,-0x4(%rbp)
    6cf7:	0f b7 45 fc          	movzwl -0x4(%rbp),%eax
    6cfb:	f7 d8                	neg    %eax
    6cfd:	5d                   	pop    %rbp
    6cfe:	c3                   	retq   

0000000000006cff <safe_add_func_uint16_t_u_u>:
    6cff:	f3 0f 1e fa          	endbr64 
    6d03:	55                   	push   %rbp
    6d04:	48 89 e5             	mov    %rsp,%rbp
    6d07:	89 fa                	mov    %edi,%edx
    6d09:	89 f0                	mov    %esi,%eax
    6d0b:	66 89 55 fc          	mov    %dx,-0x4(%rbp)
    6d0f:	66 89 45 f8          	mov    %ax,-0x8(%rbp)
    6d13:	0f b7 55 fc          	movzwl -0x4(%rbp),%edx
    6d17:	0f b7 45 f8          	movzwl -0x8(%rbp),%eax
    6d1b:	01 d0                	add    %edx,%eax
    6d1d:	5d                   	pop    %rbp
    6d1e:	c3                   	retq   

0000000000006d1f <safe_sub_func_uint16_t_u_u>:
    6d1f:	f3 0f 1e fa          	endbr64 
    6d23:	55                   	push   %rbp
    6d24:	48 89 e5             	mov    %rsp,%rbp
    6d27:	89 fa                	mov    %edi,%edx
    6d29:	89 f0                	mov    %esi,%eax
    6d2b:	66 89 55 fc          	mov    %dx,-0x4(%rbp)
    6d2f:	66 89 45 f8          	mov    %ax,-0x8(%rbp)
    6d33:	0f b7 45 fc          	movzwl -0x4(%rbp),%eax
    6d37:	66 2b 45 f8          	sub    -0x8(%rbp),%ax
    6d3b:	5d                   	pop    %rbp
    6d3c:	c3                   	retq   

0000000000006d3d <safe_mul_func_uint16_t_u_u>:
    6d3d:	f3 0f 1e fa          	endbr64 
    6d41:	55                   	push   %rbp
    6d42:	48 89 e5             	mov    %rsp,%rbp
    6d45:	89 fa                	mov    %edi,%edx
    6d47:	89 f0                	mov    %esi,%eax
    6d49:	66 89 55 fc          	mov    %dx,-0x4(%rbp)
    6d4d:	66 89 45 f8          	mov    %ax,-0x8(%rbp)
    6d51:	0f b7 45 fc          	movzwl -0x4(%rbp),%eax
    6d55:	66 0f af 45 f8       	imul   -0x8(%rbp),%ax
    6d5a:	5d                   	pop    %rbp
    6d5b:	c3                   	retq   

0000000000006d5c <safe_mod_func_uint16_t_u_u>:
    6d5c:	f3 0f 1e fa          	endbr64 
    6d60:	55                   	push   %rbp
    6d61:	48 89 e5             	mov    %rsp,%rbp
    6d64:	89 fa                	mov    %edi,%edx
    6d66:	89 f0                	mov    %esi,%eax
    6d68:	66 89 55 fc          	mov    %dx,-0x4(%rbp)
    6d6c:	66 89 45 f8          	mov    %ax,-0x8(%rbp)
    6d70:	66 83 7d f8 00       	cmpw   $0x0,-0x8(%rbp)
    6d75:	74 11                	je     6d88 <safe_mod_func_uint16_t_u_u+0x2c>
    6d77:	0f b7 45 fc          	movzwl -0x4(%rbp),%eax
    6d7b:	ba 00 00 00 00       	mov    $0x0,%edx
    6d80:	66 f7 75 f8          	divw   -0x8(%rbp)
    6d84:	89 d0                	mov    %edx,%eax
    6d86:	eb 04                	jmp    6d8c <safe_mod_func_uint16_t_u_u+0x30>
    6d88:	0f b7 45 fc          	movzwl -0x4(%rbp),%eax
    6d8c:	5d                   	pop    %rbp
    6d8d:	c3                   	retq   

0000000000006d8e <safe_div_func_uint16_t_u_u>:
    6d8e:	f3 0f 1e fa          	endbr64 
    6d92:	55                   	push   %rbp
    6d93:	48 89 e5             	mov    %rsp,%rbp
    6d96:	89 fa                	mov    %edi,%edx
    6d98:	89 f0                	mov    %esi,%eax
    6d9a:	66 89 55 fc          	mov    %dx,-0x4(%rbp)
    6d9e:	66 89 45 f8          	mov    %ax,-0x8(%rbp)
    6da2:	66 83 7d f8 00       	cmpw   $0x0,-0x8(%rbp)
    6da7:	74 0f                	je     6db8 <safe_div_func_uint16_t_u_u+0x2a>
    6da9:	0f b7 45 fc          	movzwl -0x4(%rbp),%eax
    6dad:	ba 00 00 00 00       	mov    $0x0,%edx
    6db2:	66 f7 75 f8          	divw   -0x8(%rbp)
    6db6:	eb 04                	jmp    6dbc <safe_div_func_uint16_t_u_u+0x2e>
    6db8:	0f b7 45 fc          	movzwl -0x4(%rbp),%eax
    6dbc:	5d                   	pop    %rbp
    6dbd:	c3                   	retq   

0000000000006dbe <safe_lshift_func_uint16_t_u_s>:
    6dbe:	f3 0f 1e fa          	endbr64 
    6dc2:	55                   	push   %rbp
    6dc3:	48 89 e5             	mov    %rsp,%rbp
    6dc6:	89 f8                	mov    %edi,%eax
    6dc8:	89 75 f8             	mov    %esi,-0x8(%rbp)
    6dcb:	66 89 45 fc          	mov    %ax,-0x4(%rbp)
    6dcf:	83 7d f8 00          	cmpl   $0x0,-0x8(%rbp)
    6dd3:	78 2b                	js     6e00 <safe_lshift_func_uint16_t_u_s+0x42>
    6dd5:	83 7d f8 1f          	cmpl   $0x1f,-0x8(%rbp)
    6dd9:	7f 25                	jg     6e00 <safe_lshift_func_uint16_t_u_s+0x42>
    6ddb:	0f b7 55 fc          	movzwl -0x4(%rbp),%edx
    6ddf:	8b 45 f8             	mov    -0x8(%rbp),%eax
    6de2:	be ff ff 00 00       	mov    $0xffff,%esi
    6de7:	89 c1                	mov    %eax,%ecx
    6de9:	d3 fe                	sar    %cl,%esi
    6deb:	89 f0                	mov    %esi,%eax
    6ded:	39 c2                	cmp    %eax,%edx
    6def:	7f 0f                	jg     6e00 <safe_lshift_func_uint16_t_u_s+0x42>
    6df1:	0f b7 55 fc          	movzwl -0x4(%rbp),%edx
    6df5:	8b 45 f8             	mov    -0x8(%rbp),%eax
    6df8:	89 c1                	mov    %eax,%ecx
    6dfa:	d3 e2                	shl    %cl,%edx
    6dfc:	89 d0                	mov    %edx,%eax
    6dfe:	eb 04                	jmp    6e04 <safe_lshift_func_uint16_t_u_s+0x46>
    6e00:	0f b7 45 fc          	movzwl -0x4(%rbp),%eax
    6e04:	5d                   	pop    %rbp
    6e05:	c3                   	retq   

0000000000006e06 <safe_lshift_func_uint16_t_u_u>:
    6e06:	f3 0f 1e fa          	endbr64 
    6e0a:	55                   	push   %rbp
    6e0b:	48 89 e5             	mov    %rsp,%rbp
    6e0e:	89 f8                	mov    %edi,%eax
    6e10:	89 75 f8             	mov    %esi,-0x8(%rbp)
    6e13:	66 89 45 fc          	mov    %ax,-0x4(%rbp)
    6e17:	83 7d f8 1f          	cmpl   $0x1f,-0x8(%rbp)
    6e1b:	77 25                	ja     6e42 <safe_lshift_func_uint16_t_u_u+0x3c>
    6e1d:	0f b7 55 fc          	movzwl -0x4(%rbp),%edx
    6e21:	8b 45 f8             	mov    -0x8(%rbp),%eax
    6e24:	be ff ff 00 00       	mov    $0xffff,%esi
    6e29:	89 c1                	mov    %eax,%ecx
    6e2b:	d3 fe                	sar    %cl,%esi
    6e2d:	89 f0                	mov    %esi,%eax
    6e2f:	39 c2                	cmp    %eax,%edx
    6e31:	7f 0f                	jg     6e42 <safe_lshift_func_uint16_t_u_u+0x3c>
    6e33:	0f b7 55 fc          	movzwl -0x4(%rbp),%edx
    6e37:	8b 45 f8             	mov    -0x8(%rbp),%eax
    6e3a:	89 c1                	mov    %eax,%ecx
    6e3c:	d3 e2                	shl    %cl,%edx
    6e3e:	89 d0                	mov    %edx,%eax
    6e40:	eb 04                	jmp    6e46 <safe_lshift_func_uint16_t_u_u+0x40>
    6e42:	0f b7 45 fc          	movzwl -0x4(%rbp),%eax
    6e46:	5d                   	pop    %rbp
    6e47:	c3                   	retq   

0000000000006e48 <safe_rshift_func_uint16_t_u_s>:
    6e48:	f3 0f 1e fa          	endbr64 
    6e4c:	55                   	push   %rbp
    6e4d:	48 89 e5             	mov    %rsp,%rbp
    6e50:	89 f8                	mov    %edi,%eax
    6e52:	89 75 f8             	mov    %esi,-0x8(%rbp)
    6e55:	66 89 45 fc          	mov    %ax,-0x4(%rbp)
    6e59:	83 7d f8 00          	cmpl   $0x0,-0x8(%rbp)
    6e5d:	78 15                	js     6e74 <safe_rshift_func_uint16_t_u_s+0x2c>
    6e5f:	83 7d f8 1f          	cmpl   $0x1f,-0x8(%rbp)
    6e63:	7f 0f                	jg     6e74 <safe_rshift_func_uint16_t_u_s+0x2c>
    6e65:	0f b7 55 fc          	movzwl -0x4(%rbp),%edx
    6e69:	8b 45 f8             	mov    -0x8(%rbp),%eax
    6e6c:	89 c1                	mov    %eax,%ecx
    6e6e:	d3 fa                	sar    %cl,%edx
    6e70:	89 d0                	mov    %edx,%eax
    6e72:	eb 04                	jmp    6e78 <safe_rshift_func_uint16_t_u_s+0x30>
    6e74:	0f b7 45 fc          	movzwl -0x4(%rbp),%eax
    6e78:	5d                   	pop    %rbp
    6e79:	c3                   	retq   

0000000000006e7a <safe_rshift_func_uint16_t_u_u>:
    6e7a:	f3 0f 1e fa          	endbr64 
    6e7e:	55                   	push   %rbp
    6e7f:	48 89 e5             	mov    %rsp,%rbp
    6e82:	89 f8                	mov    %edi,%eax
    6e84:	89 75 f8             	mov    %esi,-0x8(%rbp)
    6e87:	66 89 45 fc          	mov    %ax,-0x4(%rbp)
    6e8b:	83 7d f8 1f          	cmpl   $0x1f,-0x8(%rbp)
    6e8f:	77 0f                	ja     6ea0 <safe_rshift_func_uint16_t_u_u+0x26>
    6e91:	0f b7 55 fc          	movzwl -0x4(%rbp),%edx
    6e95:	8b 45 f8             	mov    -0x8(%rbp),%eax
    6e98:	89 c1                	mov    %eax,%ecx
    6e9a:	d3 fa                	sar    %cl,%edx
    6e9c:	89 d0                	mov    %edx,%eax
    6e9e:	eb 04                	jmp    6ea4 <safe_rshift_func_uint16_t_u_u+0x2a>
    6ea0:	0f b7 45 fc          	movzwl -0x4(%rbp),%eax
    6ea4:	5d                   	pop    %rbp
    6ea5:	c3                   	retq   

0000000000006ea6 <safe_unary_minus_func_uint32_t_u>:
    6ea6:	f3 0f 1e fa          	endbr64 
    6eaa:	55                   	push   %rbp
    6eab:	48 89 e5             	mov    %rsp,%rbp
    6eae:	89 7d fc             	mov    %edi,-0x4(%rbp)
    6eb1:	8b 45 fc             	mov    -0x4(%rbp),%eax
    6eb4:	f7 d8                	neg    %eax
    6eb6:	5d                   	pop    %rbp
    6eb7:	c3                   	retq   

0000000000006eb8 <safe_add_func_uint32_t_u_u>:
    6eb8:	f3 0f 1e fa          	endbr64 
    6ebc:	55                   	push   %rbp
    6ebd:	48 89 e5             	mov    %rsp,%rbp
    6ec0:	89 7d fc             	mov    %edi,-0x4(%rbp)
    6ec3:	89 75 f8             	mov    %esi,-0x8(%rbp)
    6ec6:	8b 55 fc             	mov    -0x4(%rbp),%edx
    6ec9:	8b 45 f8             	mov    -0x8(%rbp),%eax
    6ecc:	01 d0                	add    %edx,%eax
    6ece:	5d                   	pop    %rbp
    6ecf:	c3                   	retq   

0000000000006ed0 <safe_sub_func_uint32_t_u_u>:
    6ed0:	f3 0f 1e fa          	endbr64 
    6ed4:	55                   	push   %rbp
    6ed5:	48 89 e5             	mov    %rsp,%rbp
    6ed8:	89 7d fc             	mov    %edi,-0x4(%rbp)
    6edb:	89 75 f8             	mov    %esi,-0x8(%rbp)
    6ede:	8b 45 fc             	mov    -0x4(%rbp),%eax
    6ee1:	2b 45 f8             	sub    -0x8(%rbp),%eax
    6ee4:	5d                   	pop    %rbp
    6ee5:	c3                   	retq   

0000000000006ee6 <safe_mul_func_uint32_t_u_u>:
    6ee6:	f3 0f 1e fa          	endbr64 
    6eea:	55                   	push   %rbp
    6eeb:	48 89 e5             	mov    %rsp,%rbp
    6eee:	89 7d fc             	mov    %edi,-0x4(%rbp)
    6ef1:	89 75 f8             	mov    %esi,-0x8(%rbp)
    6ef4:	8b 45 fc             	mov    -0x4(%rbp),%eax
    6ef7:	0f af 45 f8          	imul   -0x8(%rbp),%eax
    6efb:	5d                   	pop    %rbp
    6efc:	c3                   	retq   

0000000000006efd <safe_mod_func_uint32_t_u_u>:
    6efd:	f3 0f 1e fa          	endbr64 
    6f01:	55                   	push   %rbp
    6f02:	48 89 e5             	mov    %rsp,%rbp
    6f05:	89 7d fc             	mov    %edi,-0x4(%rbp)
    6f08:	89 75 f8             	mov    %esi,-0x8(%rbp)
    6f0b:	83 7d f8 00          	cmpl   $0x0,-0x8(%rbp)
    6f0f:	74 0f                	je     6f20 <safe_mod_func_uint32_t_u_u+0x23>
    6f11:	8b 45 fc             	mov    -0x4(%rbp),%eax
    6f14:	ba 00 00 00 00       	mov    $0x0,%edx
    6f19:	f7 75 f8             	divl   -0x8(%rbp)
    6f1c:	89 d0                	mov    %edx,%eax
    6f1e:	eb 03                	jmp    6f23 <safe_mod_func_uint32_t_u_u+0x26>
    6f20:	8b 45 fc             	mov    -0x4(%rbp),%eax
    6f23:	5d                   	pop    %rbp
    6f24:	c3                   	retq   

0000000000006f25 <safe_div_func_uint32_t_u_u>:
    6f25:	f3 0f 1e fa          	endbr64 
    6f29:	55                   	push   %rbp
    6f2a:	48 89 e5             	mov    %rsp,%rbp
    6f2d:	89 7d fc             	mov    %edi,-0x4(%rbp)
    6f30:	89 75 f8             	mov    %esi,-0x8(%rbp)
    6f33:	83 7d f8 00          	cmpl   $0x0,-0x8(%rbp)
    6f37:	74 0d                	je     6f46 <safe_div_func_uint32_t_u_u+0x21>
    6f39:	8b 45 fc             	mov    -0x4(%rbp),%eax
    6f3c:	ba 00 00 00 00       	mov    $0x0,%edx
    6f41:	f7 75 f8             	divl   -0x8(%rbp)
    6f44:	eb 03                	jmp    6f49 <safe_div_func_uint32_t_u_u+0x24>
    6f46:	8b 45 fc             	mov    -0x4(%rbp),%eax
    6f49:	5d                   	pop    %rbp
    6f4a:	c3                   	retq   

0000000000006f4b <safe_lshift_func_uint32_t_u_s>:
    6f4b:	f3 0f 1e fa          	endbr64 
    6f4f:	55                   	push   %rbp
    6f50:	48 89 e5             	mov    %rsp,%rbp
    6f53:	89 7d fc             	mov    %edi,-0x4(%rbp)
    6f56:	89 75 f8             	mov    %esi,-0x8(%rbp)
    6f59:	83 7d f8 00          	cmpl   $0x0,-0x8(%rbp)
    6f5d:	78 27                	js     6f86 <safe_lshift_func_uint32_t_u_s+0x3b>
    6f5f:	83 7d f8 1f          	cmpl   $0x1f,-0x8(%rbp)
    6f63:	7f 21                	jg     6f86 <safe_lshift_func_uint32_t_u_s+0x3b>
    6f65:	8b 45 f8             	mov    -0x8(%rbp),%eax
    6f68:	ba ff ff ff ff       	mov    $0xffffffff,%edx
    6f6d:	89 c1                	mov    %eax,%ecx
    6f6f:	d3 ea                	shr    %cl,%edx
    6f71:	89 d0                	mov    %edx,%eax
    6f73:	39 45 fc             	cmp    %eax,-0x4(%rbp)
    6f76:	77 0e                	ja     6f86 <safe_lshift_func_uint32_t_u_s+0x3b>
    6f78:	8b 45 f8             	mov    -0x8(%rbp),%eax
    6f7b:	8b 55 fc             	mov    -0x4(%rbp),%edx
    6f7e:	89 c1                	mov    %eax,%ecx
    6f80:	d3 e2                	shl    %cl,%edx
    6f82:	89 d0                	mov    %edx,%eax
    6f84:	eb 03                	jmp    6f89 <safe_lshift_func_uint32_t_u_s+0x3e>
    6f86:	8b 45 fc             	mov    -0x4(%rbp),%eax
    6f89:	5d                   	pop    %rbp
    6f8a:	c3                   	retq   

0000000000006f8b <safe_lshift_func_uint32_t_u_u>:
    6f8b:	f3 0f 1e fa          	endbr64 
    6f8f:	55                   	push   %rbp
    6f90:	48 89 e5             	mov    %rsp,%rbp
    6f93:	89 7d fc             	mov    %edi,-0x4(%rbp)
    6f96:	89 75 f8             	mov    %esi,-0x8(%rbp)
    6f99:	83 7d f8 1f          	cmpl   $0x1f,-0x8(%rbp)
    6f9d:	77 21                	ja     6fc0 <safe_lshift_func_uint32_t_u_u+0x35>
    6f9f:	8b 45 f8             	mov    -0x8(%rbp),%eax
    6fa2:	ba ff ff ff ff       	mov    $0xffffffff,%edx
    6fa7:	89 c1                	mov    %eax,%ecx
    6fa9:	d3 ea                	shr    %cl,%edx
    6fab:	89 d0                	mov    %edx,%eax
    6fad:	39 45 fc             	cmp    %eax,-0x4(%rbp)
    6fb0:	77 0e                	ja     6fc0 <safe_lshift_func_uint32_t_u_u+0x35>
    6fb2:	8b 45 f8             	mov    -0x8(%rbp),%eax
    6fb5:	8b 55 fc             	mov    -0x4(%rbp),%edx
    6fb8:	89 c1                	mov    %eax,%ecx
    6fba:	d3 e2                	shl    %cl,%edx
    6fbc:	89 d0                	mov    %edx,%eax
    6fbe:	eb 03                	jmp    6fc3 <safe_lshift_func_uint32_t_u_u+0x38>
    6fc0:	8b 45 fc             	mov    -0x4(%rbp),%eax
    6fc3:	5d                   	pop    %rbp
    6fc4:	c3                   	retq   

0000000000006fc5 <safe_rshift_func_uint32_t_u_s>:
    6fc5:	f3 0f 1e fa          	endbr64 
    6fc9:	55                   	push   %rbp
    6fca:	48 89 e5             	mov    %rsp,%rbp
    6fcd:	89 7d fc             	mov    %edi,-0x4(%rbp)
    6fd0:	89 75 f8             	mov    %esi,-0x8(%rbp)
    6fd3:	83 7d f8 00          	cmpl   $0x0,-0x8(%rbp)
    6fd7:	78 14                	js     6fed <safe_rshift_func_uint32_t_u_s+0x28>
    6fd9:	83 7d f8 1f          	cmpl   $0x1f,-0x8(%rbp)
    6fdd:	7f 0e                	jg     6fed <safe_rshift_func_uint32_t_u_s+0x28>
    6fdf:	8b 45 f8             	mov    -0x8(%rbp),%eax
    6fe2:	8b 55 fc             	mov    -0x4(%rbp),%edx
    6fe5:	89 c1                	mov    %eax,%ecx
    6fe7:	d3 ea                	shr    %cl,%edx
    6fe9:	89 d0                	mov    %edx,%eax
    6feb:	eb 03                	jmp    6ff0 <safe_rshift_func_uint32_t_u_s+0x2b>
    6fed:	8b 45 fc             	mov    -0x4(%rbp),%eax
    6ff0:	5d                   	pop    %rbp
    6ff1:	c3                   	retq   

0000000000006ff2 <safe_rshift_func_uint32_t_u_u>:
    6ff2:	f3 0f 1e fa          	endbr64 
    6ff6:	55                   	push   %rbp
    6ff7:	48 89 e5             	mov    %rsp,%rbp
    6ffa:	89 7d fc             	mov    %edi,-0x4(%rbp)
    6ffd:	89 75 f8             	mov    %esi,-0x8(%rbp)
    7000:	83 7d f8 1f          	cmpl   $0x1f,-0x8(%rbp)
    7004:	77 0e                	ja     7014 <safe_rshift_func_uint32_t_u_u+0x22>
    7006:	8b 45 f8             	mov    -0x8(%rbp),%eax
    7009:	8b 55 fc             	mov    -0x4(%rbp),%edx
    700c:	89 c1                	mov    %eax,%ecx
    700e:	d3 ea                	shr    %cl,%edx
    7010:	89 d0                	mov    %edx,%eax
    7012:	eb 03                	jmp    7017 <safe_rshift_func_uint32_t_u_u+0x25>
    7014:	8b 45 fc             	mov    -0x4(%rbp),%eax
    7017:	5d                   	pop    %rbp
    7018:	c3                   	retq   

0000000000007019 <safe_unary_minus_func_uint64_t_u>:
    7019:	f3 0f 1e fa          	endbr64 
    701d:	55                   	push   %rbp
    701e:	48 89 e5             	mov    %rsp,%rbp
    7021:	48 89 7d f8          	mov    %rdi,-0x8(%rbp)
    7025:	48 8b 45 f8          	mov    -0x8(%rbp),%rax
    7029:	48 f7 d8             	neg    %rax
    702c:	5d                   	pop    %rbp
    702d:	c3                   	retq   

000000000000702e <safe_add_func_uint64_t_u_u>:
    702e:	f3 0f 1e fa          	endbr64 
    7032:	55                   	push   %rbp
    7033:	48 89 e5             	mov    %rsp,%rbp
    7036:	48 89 7d f8          	mov    %rdi,-0x8(%rbp)
    703a:	48 89 75 f0          	mov    %rsi,-0x10(%rbp)
    703e:	48 8b 55 f8          	mov    -0x8(%rbp),%rdx
    7042:	48 8b 45 f0          	mov    -0x10(%rbp),%rax
    7046:	48 01 d0             	add    %rdx,%rax
    7049:	5d                   	pop    %rbp
    704a:	c3                   	retq   

000000000000704b <safe_sub_func_uint64_t_u_u>:
    704b:	f3 0f 1e fa          	endbr64 
    704f:	55                   	push   %rbp
    7050:	48 89 e5             	mov    %rsp,%rbp
    7053:	48 89 7d f8          	mov    %rdi,-0x8(%rbp)
    7057:	48 89 75 f0          	mov    %rsi,-0x10(%rbp)
    705b:	48 8b 45 f8          	mov    -0x8(%rbp),%rax
    705f:	48 2b 45 f0          	sub    -0x10(%rbp),%rax
    7063:	5d                   	pop    %rbp
    7064:	c3                   	retq   

0000000000007065 <safe_mul_func_uint64_t_u_u>:
    7065:	f3 0f 1e fa          	endbr64 
    7069:	55                   	push   %rbp
    706a:	48 89 e5             	mov    %rsp,%rbp
    706d:	48 89 7d f8          	mov    %rdi,-0x8(%rbp)
    7071:	48 89 75 f0          	mov    %rsi,-0x10(%rbp)
    7075:	48 8b 45 f8          	mov    -0x8(%rbp),%rax
    7079:	48 0f af 45 f0       	imul   -0x10(%rbp),%rax
    707e:	5d                   	pop    %rbp
    707f:	c3                   	retq   

0000000000007080 <safe_mod_func_uint64_t_u_u>:
    7080:	f3 0f 1e fa          	endbr64 
    7084:	55                   	push   %rbp
    7085:	48 89 e5             	mov    %rsp,%rbp
    7088:	48 89 7d f8          	mov    %rdi,-0x8(%rbp)
    708c:	48 89 75 f0          	mov    %rsi,-0x10(%rbp)
    7090:	48 83 7d f0 00       	cmpq   $0x0,-0x10(%rbp)
    7095:	74 12                	je     70a9 <safe_mod_func_uint64_t_u_u+0x29>
    7097:	48 8b 45 f8          	mov    -0x8(%rbp),%rax
    709b:	ba 00 00 00 00       	mov    $0x0,%edx
    70a0:	48 f7 75 f0          	divq   -0x10(%rbp)
    70a4:	48 89 d0             	mov    %rdx,%rax
    70a7:	eb 04                	jmp    70ad <safe_mod_func_uint64_t_u_u+0x2d>
    70a9:	48 8b 45 f8          	mov    -0x8(%rbp),%rax
    70ad:	5d                   	pop    %rbp
    70ae:	c3                   	retq   

00000000000070af <safe_div_func_uint64_t_u_u>:
    70af:	f3 0f 1e fa          	endbr64 
    70b3:	55                   	push   %rbp
    70b4:	48 89 e5             	mov    %rsp,%rbp
    70b7:	48 89 7d f8          	mov    %rdi,-0x8(%rbp)
    70bb:	48 89 75 f0          	mov    %rsi,-0x10(%rbp)
    70bf:	48 83 7d f0 00       	cmpq   $0x0,-0x10(%rbp)
    70c4:	74 0f                	je     70d5 <safe_div_func_uint64_t_u_u+0x26>
    70c6:	48 8b 45 f8          	mov    -0x8(%rbp),%rax
    70ca:	ba 00 00 00 00       	mov    $0x0,%edx
    70cf:	48 f7 75 f0          	divq   -0x10(%rbp)
    70d3:	eb 04                	jmp    70d9 <safe_div_func_uint64_t_u_u+0x2a>
    70d5:	48 8b 45 f8          	mov    -0x8(%rbp),%rax
    70d9:	5d                   	pop    %rbp
    70da:	c3                   	retq   

00000000000070db <safe_lshift_func_uint64_t_u_s>:
    70db:	f3 0f 1e fa          	endbr64 
    70df:	55                   	push   %rbp
    70e0:	48 89 e5             	mov    %rsp,%rbp
    70e3:	48 89 7d f8          	mov    %rdi,-0x8(%rbp)
    70e7:	89 75 f4             	mov    %esi,-0xc(%rbp)
    70ea:	83 7d f4 00          	cmpl   $0x0,-0xc(%rbp)
    70ee:	78 2f                	js     711f <safe_lshift_func_uint64_t_u_s+0x44>
    70f0:	83 7d f4 1f          	cmpl   $0x1f,-0xc(%rbp)
    70f4:	7f 29                	jg     711f <safe_lshift_func_uint64_t_u_s+0x44>
    70f6:	8b 45 f4             	mov    -0xc(%rbp),%eax
    70f9:	48 c7 c2 ff ff ff ff 	mov    $0xffffffffffffffff,%rdx
    7100:	89 c1                	mov    %eax,%ecx
    7102:	48 d3 ea             	shr    %cl,%rdx
    7105:	48 89 d0             	mov    %rdx,%rax
    7108:	48 39 45 f8          	cmp    %rax,-0x8(%rbp)
    710c:	77 11                	ja     711f <safe_lshift_func_uint64_t_u_s+0x44>
    710e:	8b 45 f4             	mov    -0xc(%rbp),%eax
    7111:	48 8b 55 f8          	mov    -0x8(%rbp),%rdx
    7115:	89 c1                	mov    %eax,%ecx
    7117:	48 d3 e2             	shl    %cl,%rdx
    711a:	48 89 d0             	mov    %rdx,%rax
    711d:	eb 04                	jmp    7123 <safe_lshift_func_uint64_t_u_s+0x48>
    711f:	48 8b 45 f8          	mov    -0x8(%rbp),%rax
    7123:	5d                   	pop    %rbp
    7124:	c3                   	retq   

0000000000007125 <safe_lshift_func_uint64_t_u_u>:
    7125:	f3 0f 1e fa          	endbr64 
    7129:	55                   	push   %rbp
    712a:	48 89 e5             	mov    %rsp,%rbp
    712d:	48 89 7d f8          	mov    %rdi,-0x8(%rbp)
    7131:	89 75 f4             	mov    %esi,-0xc(%rbp)
    7134:	83 7d f4 1f          	cmpl   $0x1f,-0xc(%rbp)
    7138:	77 29                	ja     7163 <safe_lshift_func_uint64_t_u_u+0x3e>
    713a:	8b 45 f4             	mov    -0xc(%rbp),%eax
    713d:	48 c7 c2 ff ff ff ff 	mov    $0xffffffffffffffff,%rdx
    7144:	89 c1                	mov    %eax,%ecx
    7146:	48 d3 ea             	shr    %cl,%rdx
    7149:	48 89 d0             	mov    %rdx,%rax
    714c:	48 39 45 f8          	cmp    %rax,-0x8(%rbp)
    7150:	77 11                	ja     7163 <safe_lshift_func_uint64_t_u_u+0x3e>
    7152:	8b 45 f4             	mov    -0xc(%rbp),%eax
    7155:	48 8b 55 f8          	mov    -0x8(%rbp),%rdx
    7159:	89 c1                	mov    %eax,%ecx
    715b:	48 d3 e2             	shl    %cl,%rdx
    715e:	48 89 d0             	mov    %rdx,%rax
    7161:	eb 04                	jmp    7167 <safe_lshift_func_uint64_t_u_u+0x42>
    7163:	48 8b 45 f8          	mov    -0x8(%rbp),%rax
    7167:	5d                   	pop    %rbp
    7168:	c3                   	retq   

0000000000007169 <safe_rshift_func_uint64_t_u_s>:
    7169:	f3 0f 1e fa          	endbr64 
    716d:	55                   	push   %rbp
    716e:	48 89 e5             	mov    %rsp,%rbp
    7171:	48 89 7d f8          	mov    %rdi,-0x8(%rbp)
    7175:	89 75 f4             	mov    %esi,-0xc(%rbp)
    7178:	83 7d f4 00          	cmpl   $0x0,-0xc(%rbp)
    717c:	78 17                	js     7195 <safe_rshift_func_uint64_t_u_s+0x2c>
    717e:	83 7d f4 1f          	cmpl   $0x1f,-0xc(%rbp)
    7182:	7f 11                	jg     7195 <safe_rshift_func_uint64_t_u_s+0x2c>
    7184:	8b 45 f4             	mov    -0xc(%rbp),%eax
    7187:	48 8b 55 f8          	mov    -0x8(%rbp),%rdx
    718b:	89 c1                	mov    %eax,%ecx
    718d:	48 d3 ea             	shr    %cl,%rdx
    7190:	48 89 d0             	mov    %rdx,%rax
    7193:	eb 04                	jmp    7199 <safe_rshift_func_uint64_t_u_s+0x30>
    7195:	48 8b 45 f8          	mov    -0x8(%rbp),%rax
    7199:	5d                   	pop    %rbp
    719a:	c3                   	retq   

000000000000719b <safe_rshift_func_uint64_t_u_u>:
    719b:	f3 0f 1e fa          	endbr64 
    719f:	55                   	push   %rbp
    71a0:	48 89 e5             	mov    %rsp,%rbp
    71a3:	48 89 7d f8          	mov    %rdi,-0x8(%rbp)
    71a7:	89 75 f4             	mov    %esi,-0xc(%rbp)
    71aa:	83 7d f4 1f          	cmpl   $0x1f,-0xc(%rbp)
    71ae:	77 11                	ja     71c1 <safe_rshift_func_uint64_t_u_u+0x26>
    71b0:	8b 45 f4             	mov    -0xc(%rbp),%eax
    71b3:	48 8b 55 f8          	mov    -0x8(%rbp),%rdx
    71b7:	89 c1                	mov    %eax,%ecx
    71b9:	48 d3 ea             	shr    %cl,%rdx
    71bc:	48 89 d0             	mov    %rdx,%rax
    71bf:	eb 04                	jmp    71c5 <safe_rshift_func_uint64_t_u_u+0x2a>
    71c1:	48 8b 45 f8          	mov    -0x8(%rbp),%rax
    71c5:	5d                   	pop    %rbp
    71c6:	c3                   	retq   

00000000000071c7 <safe_add_func_float_f_f>:
    71c7:	f3 0f 1e fa          	endbr64 
    71cb:	55                   	push   %rbp
    71cc:	48 89 e5             	mov    %rsp,%rbp
    71cf:	f3 0f 11 45 fc       	movss  %xmm0,-0x4(%rbp)
    71d4:	f3 0f 11 4d f8       	movss  %xmm1,-0x8(%rbp)
    71d9:	f3 0f 10 4d fc       	movss  -0x4(%rbp),%xmm1
    71de:	f3 0f 10 05 2a bf 00 	movss  0xbf2a(%rip),%xmm0        # 13110 <l_1864.4606+0x150>
    71e5:	00 
    71e6:	f3 0f 59 c8          	mulss  %xmm0,%xmm1
    71ea:	f3 0f 10 55 f8       	movss  -0x8(%rbp),%xmm2
    71ef:	f3 0f 10 05 19 bf 00 	movss  0xbf19(%rip),%xmm0        # 13110 <l_1864.4606+0x150>
    71f6:	00 
    71f7:	f3 0f 59 c2          	mulss  %xmm2,%xmm0
    71fb:	f3 0f 58 c1          	addss  %xmm1,%xmm0
    71ff:	f3 0f 10 0d 19 bf 00 	movss  0xbf19(%rip),%xmm1        # 13120 <l_1864.4606+0x160>
    7206:	00 
    7207:	0f 54 c1             	andps  %xmm1,%xmm0
    720a:	0f 2f 05 1f bf 00 00 	comiss 0xbf1f(%rip),%xmm0        # 13130 <l_1864.4606+0x170>
    7211:	76 07                	jbe    721a <safe_add_func_float_f_f+0x53>
    7213:	f3 0f 10 45 fc       	movss  -0x4(%rbp),%xmm0
    7218:	eb 0a                	jmp    7224 <safe_add_func_float_f_f+0x5d>
    721a:	f3 0f 10 45 fc       	movss  -0x4(%rbp),%xmm0
    721f:	f3 0f 58 45 f8       	addss  -0x8(%rbp),%xmm0
    7224:	5d                   	pop    %rbp
    7225:	c3                   	retq   

0000000000007226 <safe_sub_func_float_f_f>:
    7226:	f3 0f 1e fa          	endbr64 
    722a:	55                   	push   %rbp
    722b:	48 89 e5             	mov    %rsp,%rbp
    722e:	f3 0f 11 45 fc       	movss  %xmm0,-0x4(%rbp)
    7233:	f3 0f 11 4d f8       	movss  %xmm1,-0x8(%rbp)
    7238:	f3 0f 10 4d fc       	movss  -0x4(%rbp),%xmm1
    723d:	f3 0f 10 05 cb be 00 	movss  0xbecb(%rip),%xmm0        # 13110 <l_1864.4606+0x150>
    7244:	00 
    7245:	f3 0f 59 c1          	mulss  %xmm1,%xmm0
    7249:	f3 0f 10 55 f8       	movss  -0x8(%rbp),%xmm2
    724e:	f3 0f 10 0d ba be 00 	movss  0xbeba(%rip),%xmm1        # 13110 <l_1864.4606+0x150>
    7255:	00 
    7256:	f3 0f 59 ca          	mulss  %xmm2,%xmm1
    725a:	f3 0f 5c c1          	subss  %xmm1,%xmm0
    725e:	f3 0f 10 0d ba be 00 	movss  0xbeba(%rip),%xmm1        # 13120 <l_1864.4606+0x160>
    7265:	00 
    7266:	0f 54 c1             	andps  %xmm1,%xmm0
    7269:	0f 2f 05 c0 be 00 00 	comiss 0xbec0(%rip),%xmm0        # 13130 <l_1864.4606+0x170>
    7270:	76 07                	jbe    7279 <safe_sub_func_float_f_f+0x53>
    7272:	f3 0f 10 45 fc       	movss  -0x4(%rbp),%xmm0
    7277:	eb 0a                	jmp    7283 <safe_sub_func_float_f_f+0x5d>
    7279:	f3 0f 10 45 fc       	movss  -0x4(%rbp),%xmm0
    727e:	f3 0f 5c 45 f8       	subss  -0x8(%rbp),%xmm0
    7283:	5d                   	pop    %rbp
    7284:	c3                   	retq   

0000000000007285 <safe_mul_func_float_f_f>:
    7285:	f3 0f 1e fa          	endbr64 
    7289:	55                   	push   %rbp
    728a:	48 89 e5             	mov    %rsp,%rbp
    728d:	f3 0f 11 45 fc       	movss  %xmm0,-0x4(%rbp)
    7292:	f3 0f 11 4d f8       	movss  %xmm1,-0x8(%rbp)
    7297:	f3 0f 10 4d fc       	movss  -0x4(%rbp),%xmm1
    729c:	f3 0f 10 05 90 be 00 	movss  0xbe90(%rip),%xmm0        # 13134 <l_1864.4606+0x174>
    72a3:	00 
    72a4:	f3 0f 59 c8          	mulss  %xmm0,%xmm1
    72a8:	f3 0f 10 55 f8       	movss  -0x8(%rbp),%xmm2
    72ad:	f3 0f 10 05 83 be 00 	movss  0xbe83(%rip),%xmm0        # 13138 <l_1864.4606+0x178>
    72b4:	00 
    72b5:	f3 0f 59 c2          	mulss  %xmm2,%xmm0
    72b9:	f3 0f 59 c1          	mulss  %xmm1,%xmm0
    72bd:	f3 0f 10 0d 5b be 00 	movss  0xbe5b(%rip),%xmm1        # 13120 <l_1864.4606+0x160>
    72c4:	00 
    72c5:	0f 54 c1             	andps  %xmm1,%xmm0
    72c8:	0f 2f 05 6d be 00 00 	comiss 0xbe6d(%rip),%xmm0        # 1313c <l_1864.4606+0x17c>
    72cf:	76 07                	jbe    72d8 <safe_mul_func_float_f_f+0x53>
    72d1:	f3 0f 10 45 fc       	movss  -0x4(%rbp),%xmm0
    72d6:	eb 0a                	jmp    72e2 <safe_mul_func_float_f_f+0x5d>
    72d8:	f3 0f 10 45 fc       	movss  -0x4(%rbp),%xmm0
    72dd:	f3 0f 59 45 f8       	mulss  -0x8(%rbp),%xmm0
    72e2:	5d                   	pop    %rbp
    72e3:	c3                   	retq   

00000000000072e4 <safe_div_func_float_f_f>:
    72e4:	f3 0f 1e fa          	endbr64 
    72e8:	55                   	push   %rbp
    72e9:	48 89 e5             	mov    %rsp,%rbp
    72ec:	f3 0f 11 45 fc       	movss  %xmm0,-0x4(%rbp)
    72f1:	f3 0f 11 4d f8       	movss  %xmm1,-0x8(%rbp)
    72f6:	f3 0f 10 45 f8       	movss  -0x8(%rbp),%xmm0
    72fb:	f3 0f 10 0d 1d be 00 	movss  0xbe1d(%rip),%xmm1        # 13120 <l_1864.4606+0x160>
    7302:	00 
    7303:	0f 54 c8             	andps  %xmm0,%xmm1
    7306:	f3 0f 10 05 32 be 00 	movss  0xbe32(%rip),%xmm0        # 13140 <l_1864.4606+0x180>
    730d:	00 
    730e:	0f 2f c1             	comiss %xmm1,%xmm0
    7311:	0f 97 c0             	seta   %al
    7314:	83 f0 01             	xor    $0x1,%eax
    7317:	84 c0                	test   %al,%al
    7319:	75 56                	jne    7371 <safe_div_func_float_f_f+0x8d>
    731b:	66 0f ef c0          	pxor   %xmm0,%xmm0
    731f:	0f 2e 45 f8          	ucomiss -0x8(%rbp),%xmm0
    7323:	7a 0a                	jp     732f <safe_div_func_float_f_f+0x4b>
    7325:	66 0f ef c0          	pxor   %xmm0,%xmm0
    7329:	0f 2e 45 f8          	ucomiss -0x8(%rbp),%xmm0
    732d:	74 4e                	je     737d <safe_div_func_float_f_f+0x99>
    732f:	f3 0f 10 4d fc       	movss  -0x4(%rbp),%xmm1
    7334:	f3 0f 10 05 08 be 00 	movss  0xbe08(%rip),%xmm0        # 13144 <l_1864.4606+0x184>
    733b:	00 
    733c:	f3 0f 59 c1          	mulss  %xmm1,%xmm0
    7340:	f3 0f 10 55 f8       	movss  -0x8(%rbp),%xmm2
    7345:	f3 0f 10 0d fb bd 00 	movss  0xbdfb(%rip),%xmm1        # 13148 <l_1864.4606+0x188>
    734c:	00 
    734d:	f3 0f 59 ca          	mulss  %xmm2,%xmm1
    7351:	f3 0f 5e c1          	divss  %xmm1,%xmm0
    7355:	f3 0f 10 0d c3 bd 00 	movss  0xbdc3(%rip),%xmm1        # 13120 <l_1864.4606+0x160>
    735c:	00 
    735d:	0f 54 c1             	andps  %xmm1,%xmm0
    7360:	0f 2f 05 e5 bd 00 00 	comiss 0xbde5(%rip),%xmm0        # 1314c <l_1864.4606+0x18c>
    7367:	0f 97 c0             	seta   %al
    736a:	83 f0 01             	xor    $0x1,%eax
    736d:	84 c0                	test   %al,%al
    736f:	74 0c                	je     737d <safe_div_func_float_f_f+0x99>
    7371:	f3 0f 10 45 fc       	movss  -0x4(%rbp),%xmm0
    7376:	f3 0f 5e 45 f8       	divss  -0x8(%rbp),%xmm0
    737b:	eb 05                	jmp    7382 <safe_div_func_float_f_f+0x9e>
    737d:	f3 0f 10 45 fc       	movss  -0x4(%rbp),%xmm0
    7382:	5d                   	pop    %rbp
    7383:	c3                   	retq   

0000000000007384 <safe_add_func_double_f_f>:
    7384:	f3 0f 1e fa          	endbr64 
    7388:	55                   	push   %rbp
    7389:	48 89 e5             	mov    %rsp,%rbp
    738c:	f2 0f 11 45 f8       	movsd  %xmm0,-0x8(%rbp)
    7391:	f2 0f 11 4d f0       	movsd  %xmm1,-0x10(%rbp)
    7396:	f2 0f 10 4d f8       	movsd  -0x8(%rbp),%xmm1
    739b:	f2 0f 10 05 ad bd 00 	movsd  0xbdad(%rip),%xmm0        # 13150 <l_1864.4606+0x190>
    73a2:	00 
    73a3:	f2 0f 59 c8          	mulsd  %xmm0,%xmm1
    73a7:	f2 0f 10 55 f0       	movsd  -0x10(%rbp),%xmm2
    73ac:	f2 0f 10 05 9c bd 00 	movsd  0xbd9c(%rip),%xmm0        # 13150 <l_1864.4606+0x190>
    73b3:	00 
    73b4:	f2 0f 59 c2          	mulsd  %xmm2,%xmm0
    73b8:	f2 0f 58 c1          	addsd  %xmm1,%xmm0
    73bc:	f3 0f 7e 0d 9c bd 00 	movq   0xbd9c(%rip),%xmm1        # 13160 <l_1864.4606+0x1a0>
    73c3:	00 
    73c4:	66 0f 54 c1          	andpd  %xmm1,%xmm0
    73c8:	66 0f 2f 05 a0 bd 00 	comisd 0xbda0(%rip),%xmm0        # 13170 <l_1864.4606+0x1b0>
    73cf:	00 
    73d0:	76 07                	jbe    73d9 <safe_add_func_double_f_f+0x55>
    73d2:	f2 0f 10 45 f8       	movsd  -0x8(%rbp),%xmm0
    73d7:	eb 0a                	jmp    73e3 <safe_add_func_double_f_f+0x5f>
    73d9:	f2 0f 10 45 f8       	movsd  -0x8(%rbp),%xmm0
    73de:	f2 0f 58 45 f0       	addsd  -0x10(%rbp),%xmm0
    73e3:	5d                   	pop    %rbp
    73e4:	c3                   	retq   

00000000000073e5 <safe_sub_func_double_f_f>:
    73e5:	f3 0f 1e fa          	endbr64 
    73e9:	55                   	push   %rbp
    73ea:	48 89 e5             	mov    %rsp,%rbp
    73ed:	f2 0f 11 45 f8       	movsd  %xmm0,-0x8(%rbp)
    73f2:	f2 0f 11 4d f0       	movsd  %xmm1,-0x10(%rbp)
    73f7:	f2 0f 10 4d f8       	movsd  -0x8(%rbp),%xmm1
    73fc:	f2 0f 10 05 4c bd 00 	movsd  0xbd4c(%rip),%xmm0        # 13150 <l_1864.4606+0x190>
    7403:	00 
    7404:	f2 0f 59 c1          	mulsd  %xmm1,%xmm0
    7408:	f2 0f 10 55 f0       	movsd  -0x10(%rbp),%xmm2
    740d:	f2 0f 10 0d 3b bd 00 	movsd  0xbd3b(%rip),%xmm1        # 13150 <l_1864.4606+0x190>
    7414:	00 
    7415:	f2 0f 59 ca          	mulsd  %xmm2,%xmm1
    7419:	f2 0f 5c c1          	subsd  %xmm1,%xmm0
    741d:	f3 0f 7e 0d 3b bd 00 	movq   0xbd3b(%rip),%xmm1        # 13160 <l_1864.4606+0x1a0>
    7424:	00 
    7425:	66 0f 54 c1          	andpd  %xmm1,%xmm0
    7429:	66 0f 2f 05 3f bd 00 	comisd 0xbd3f(%rip),%xmm0        # 13170 <l_1864.4606+0x1b0>
    7430:	00 
    7431:	76 07                	jbe    743a <safe_sub_func_double_f_f+0x55>
    7433:	f2 0f 10 45 f8       	movsd  -0x8(%rbp),%xmm0
    7438:	eb 0a                	jmp    7444 <safe_sub_func_double_f_f+0x5f>
    743a:	f2 0f 10 45 f8       	movsd  -0x8(%rbp),%xmm0
    743f:	f2 0f 5c 45 f0       	subsd  -0x10(%rbp),%xmm0
    7444:	5d                   	pop    %rbp
    7445:	c3                   	retq   

0000000000007446 <safe_mul_func_double_f_f>:
    7446:	f3 0f 1e fa          	endbr64 
    744a:	55                   	push   %rbp
    744b:	48 89 e5             	mov    %rsp,%rbp
    744e:	f2 0f 11 45 f8       	movsd  %xmm0,-0x8(%rbp)
    7453:	f2 0f 11 4d f0       	movsd  %xmm1,-0x10(%rbp)
    7458:	f2 0f 10 4d f8       	movsd  -0x8(%rbp),%xmm1
    745d:	f2 0f 10 05 13 bd 00 	movsd  0xbd13(%rip),%xmm0        # 13178 <l_1864.4606+0x1b8>
    7464:	00 
    7465:	f2 0f 59 c8          	mulsd  %xmm0,%xmm1
    7469:	f2 0f 10 55 f0       	movsd  -0x10(%rbp),%xmm2
    746e:	f2 0f 10 05 0a bd 00 	movsd  0xbd0a(%rip),%xmm0        # 13180 <l_1864.4606+0x1c0>
    7475:	00 
    7476:	f2 0f 59 c2          	mulsd  %xmm2,%xmm0
    747a:	f2 0f 59 c1          	mulsd  %xmm1,%xmm0
    747e:	f3 0f 7e 0d da bc 00 	movq   0xbcda(%rip),%xmm1        # 13160 <l_1864.4606+0x1a0>
    7485:	00 
    7486:	66 0f 54 c1          	andpd  %xmm1,%xmm0
    748a:	66 0f 2f 05 f6 bc 00 	comisd 0xbcf6(%rip),%xmm0        # 13188 <l_1864.4606+0x1c8>
    7491:	00 
    7492:	76 07                	jbe    749b <safe_mul_func_double_f_f+0x55>
    7494:	f2 0f 10 45 f8       	movsd  -0x8(%rbp),%xmm0
    7499:	eb 0a                	jmp    74a5 <safe_mul_func_double_f_f+0x5f>
    749b:	f2 0f 10 45 f8       	movsd  -0x8(%rbp),%xmm0
    74a0:	f2 0f 59 45 f0       	mulsd  -0x10(%rbp),%xmm0
    74a5:	5d                   	pop    %rbp
    74a6:	c3                   	retq   

00000000000074a7 <safe_div_func_double_f_f>:
    74a7:	f3 0f 1e fa          	endbr64 
    74ab:	55                   	push   %rbp
    74ac:	48 89 e5             	mov    %rsp,%rbp
    74af:	f2 0f 11 45 f8       	movsd  %xmm0,-0x8(%rbp)
    74b4:	f2 0f 11 4d f0       	movsd  %xmm1,-0x10(%rbp)
    74b9:	f2 0f 10 45 f0       	movsd  -0x10(%rbp),%xmm0
    74be:	f3 0f 7e 0d 9a bc 00 	movq   0xbc9a(%rip),%xmm1        # 13160 <l_1864.4606+0x1a0>
    74c5:	00 
    74c6:	66 0f 54 c8          	andpd  %xmm0,%xmm1
    74ca:	f2 0f 10 05 be bc 00 	movsd  0xbcbe(%rip),%xmm0        # 13190 <l_1864.4606+0x1d0>
    74d1:	00 
    74d2:	66 0f 2f c1          	comisd %xmm1,%xmm0
    74d6:	0f 97 c0             	seta   %al
    74d9:	83 f0 01             	xor    $0x1,%eax
    74dc:	84 c0                	test   %al,%al
    74de:	75 5a                	jne    753a <safe_div_func_double_f_f+0x93>
    74e0:	66 0f ef c0          	pxor   %xmm0,%xmm0
    74e4:	66 0f 2e 45 f0       	ucomisd -0x10(%rbp),%xmm0
    74e9:	7a 0b                	jp     74f6 <safe_div_func_double_f_f+0x4f>
    74eb:	66 0f ef c0          	pxor   %xmm0,%xmm0
    74ef:	66 0f 2e 45 f0       	ucomisd -0x10(%rbp),%xmm0
    74f4:	74 50                	je     7546 <safe_div_func_double_f_f+0x9f>
    74f6:	f2 0f 10 4d f8       	movsd  -0x8(%rbp),%xmm1
    74fb:	f2 0f 10 05 95 bc 00 	movsd  0xbc95(%rip),%xmm0        # 13198 <l_1864.4606+0x1d8>
    7502:	00 
    7503:	f2 0f 59 c1          	mulsd  %xmm1,%xmm0
    7507:	f2 0f 10 55 f0       	movsd  -0x10(%rbp),%xmm2
    750c:	f2 0f 10 0d 8c bc 00 	movsd  0xbc8c(%rip),%xmm1        # 131a0 <l_1864.4606+0x1e0>
    7513:	00 
    7514:	f2 0f 59 ca          	mulsd  %xmm2,%xmm1
    7518:	f2 0f 5e c1          	divsd  %xmm1,%xmm0
    751c:	f3 0f 7e 0d 3c bc 00 	movq   0xbc3c(%rip),%xmm1        # 13160 <l_1864.4606+0x1a0>
    7523:	00 
    7524:	66 0f 54 c1          	andpd  %xmm1,%xmm0
    7528:	66 0f 2f 05 78 bc 00 	comisd 0xbc78(%rip),%xmm0        # 131a8 <l_1864.4606+0x1e8>
    752f:	00 
    7530:	0f 97 c0             	seta   %al
    7533:	83 f0 01             	xor    $0x1,%eax
    7536:	84 c0                	test   %al,%al
    7538:	74 0c                	je     7546 <safe_div_func_double_f_f+0x9f>
    753a:	f2 0f 10 45 f8       	movsd  -0x8(%rbp),%xmm0
    753f:	f2 0f 5e 45 f0       	divsd  -0x10(%rbp),%xmm0
    7544:	eb 05                	jmp    754b <safe_div_func_double_f_f+0xa4>
    7546:	f2 0f 10 45 f8       	movsd  -0x8(%rbp),%xmm0
    754b:	5d                   	pop    %rbp
    754c:	c3                   	retq   

000000000000754d <safe_convert_func_float_to_int32_t>:
    754d:	f3 0f 1e fa          	endbr64 
    7551:	55                   	push   %rbp
    7552:	48 89 e5             	mov    %rsp,%rbp
    7555:	f3 0f 11 45 fc       	movss  %xmm0,-0x4(%rbp)
    755a:	f3 0f 10 05 4e bc 00 	movss  0xbc4e(%rip),%xmm0        # 131b0 <l_1864.4606+0x1f0>
    7561:	00 
    7562:	0f 2f 45 fc          	comiss -0x4(%rbp),%xmm0
    7566:	0f 93 c0             	setae  %al
    7569:	83 f0 01             	xor    $0x1,%eax
    756c:	84 c0                	test   %al,%al
    756e:	74 21                	je     7591 <safe_convert_func_float_to_int32_t+0x44>
    7570:	f3 0f 10 45 fc       	movss  -0x4(%rbp),%xmm0
    7575:	0f 2f 05 38 bc 00 00 	comiss 0xbc38(%rip),%xmm0        # 131b4 <l_1864.4606+0x1f4>
    757c:	0f 93 c0             	setae  %al
    757f:	83 f0 01             	xor    $0x1,%eax
    7582:	84 c0                	test   %al,%al
    7584:	74 0b                	je     7591 <safe_convert_func_float_to_int32_t+0x44>
    7586:	f3 0f 10 45 fc       	movss  -0x4(%rbp),%xmm0
    758b:	f3 0f 2c c0          	cvttss2si %xmm0,%eax
    758f:	eb 05                	jmp    7596 <safe_convert_func_float_to_int32_t+0x49>
    7591:	b8 ff ff ff 7f       	mov    $0x7fffffff,%eax
    7596:	5d                   	pop    %rbp
    7597:	c3                   	retq   

0000000000007598 <crc32_gentab>:
    7598:	f3 0f 1e fa          	endbr64 
    759c:	55                   	push   %rbp
    759d:	48 89 e5             	mov    %rsp,%rbp
    75a0:	c7 45 fc 20 83 b8 ed 	movl   $0xedb88320,-0x4(%rbp)
    75a7:	c7 45 f4 00 00 00 00 	movl   $0x0,-0xc(%rbp)
    75ae:	eb 51                	jmp    7601 <crc32_gentab+0x69>
    75b0:	8b 45 f4             	mov    -0xc(%rbp),%eax
    75b3:	89 45 f0             	mov    %eax,-0x10(%rbp)
    75b6:	c7 45 f8 08 00 00 00 	movl   $0x8,-0x8(%rbp)
    75bd:	eb 1e                	jmp    75dd <crc32_gentab+0x45>
    75bf:	8b 45 f0             	mov    -0x10(%rbp),%eax
    75c2:	83 e0 01             	and    $0x1,%eax
    75c5:	85 c0                	test   %eax,%eax
    75c7:	74 0d                	je     75d6 <crc32_gentab+0x3e>
    75c9:	8b 45 f0             	mov    -0x10(%rbp),%eax
    75cc:	d1 e8                	shr    %eax
    75ce:	33 45 fc             	xor    -0x4(%rbp),%eax
    75d1:	89 45 f0             	mov    %eax,-0x10(%rbp)
    75d4:	eb 03                	jmp    75d9 <crc32_gentab+0x41>
    75d6:	d1 6d f0             	shrl   -0x10(%rbp)
    75d9:	83 6d f8 01          	subl   $0x1,-0x8(%rbp)
    75dd:	83 7d f8 00          	cmpl   $0x0,-0x8(%rbp)
    75e1:	7f dc                	jg     75bf <crc32_gentab+0x27>
    75e3:	8b 45 f4             	mov    -0xc(%rbp),%eax
    75e6:	48 98                	cltq   
    75e8:	48 8d 0c 85 00 00 00 	lea    0x0(,%rax,4),%rcx
    75ef:	00 
    75f0:	48 8d 15 69 0b 01 00 	lea    0x10b69(%rip),%rdx        # 18160 <crc32_tab>
    75f7:	8b 45 f0             	mov    -0x10(%rbp),%eax
    75fa:	89 04 11             	mov    %eax,(%rcx,%rdx,1)
    75fd:	83 45 f4 01          	addl   $0x1,-0xc(%rbp)
    7601:	81 7d f4 ff 00 00 00 	cmpl   $0xff,-0xc(%rbp)
    7608:	7e a6                	jle    75b0 <crc32_gentab+0x18>
    760a:	90                   	nop
    760b:	90                   	nop
    760c:	5d                   	pop    %rbp
    760d:	c3                   	retq   

000000000000760e <crc32_byte>:
    760e:	f3 0f 1e fa          	endbr64 
    7612:	55                   	push   %rbp
    7613:	48 89 e5             	mov    %rsp,%rbp
    7616:	89 f8                	mov    %edi,%eax
    7618:	88 45 fc             	mov    %al,-0x4(%rbp)
    761b:	8b 05 ff e9 00 00    	mov    0xe9ff(%rip),%eax        # 16020 <crc32_context>
    7621:	c1 e8 08             	shr    $0x8,%eax
    7624:	89 c1                	mov    %eax,%ecx
    7626:	0f b6 55 fc          	movzbl -0x4(%rbp),%edx
    762a:	8b 05 f0 e9 00 00    	mov    0xe9f0(%rip),%eax        # 16020 <crc32_context>
    7630:	31 d0                	xor    %edx,%eax
    7632:	0f b6 c0             	movzbl %al,%eax
    7635:	89 c0                	mov    %eax,%eax
    7637:	48 8d 14 85 00 00 00 	lea    0x0(,%rax,4),%rdx
    763e:	00 
    763f:	48 8d 05 1a 0b 01 00 	lea    0x10b1a(%rip),%rax        # 18160 <crc32_tab>
    7646:	8b 04 02             	mov    (%rdx,%rax,1),%eax
    7649:	31 c8                	xor    %ecx,%eax
    764b:	89 05 cf e9 00 00    	mov    %eax,0xe9cf(%rip)        # 16020 <crc32_context>
    7651:	90                   	nop
    7652:	5d                   	pop    %rbp
    7653:	c3                   	retq   

0000000000007654 <crc32_8bytes>:
    7654:	f3 0f 1e fa          	endbr64 
    7658:	55                   	push   %rbp
    7659:	48 89 e5             	mov    %rsp,%rbp
    765c:	48 83 ec 08          	sub    $0x8,%rsp
    7660:	48 89 7d f8          	mov    %rdi,-0x8(%rbp)
    7664:	48 8b 45 f8          	mov    -0x8(%rbp),%rax
    7668:	0f b6 c0             	movzbl %al,%eax
    766b:	89 c7                	mov    %eax,%edi
    766d:	e8 9c ff ff ff       	callq  760e <crc32_byte>
    7672:	48 8b 45 f8          	mov    -0x8(%rbp),%rax
    7676:	48 c1 e8 08          	shr    $0x8,%rax
    767a:	0f b6 c0             	movzbl %al,%eax
    767d:	89 c7                	mov    %eax,%edi
    767f:	e8 8a ff ff ff       	callq  760e <crc32_byte>
    7684:	48 8b 45 f8          	mov    -0x8(%rbp),%rax
    7688:	48 c1 e8 10          	shr    $0x10,%rax
    768c:	0f b6 c0             	movzbl %al,%eax
    768f:	89 c7                	mov    %eax,%edi
    7691:	e8 78 ff ff ff       	callq  760e <crc32_byte>
    7696:	48 8b 45 f8          	mov    -0x8(%rbp),%rax
    769a:	48 c1 e8 18          	shr    $0x18,%rax
    769e:	0f b6 c0             	movzbl %al,%eax
    76a1:	89 c7                	mov    %eax,%edi
    76a3:	e8 66 ff ff ff       	callq  760e <crc32_byte>
    76a8:	48 8b 45 f8          	mov    -0x8(%rbp),%rax
    76ac:	48 c1 e8 20          	shr    $0x20,%rax
    76b0:	0f b6 c0             	movzbl %al,%eax
    76b3:	89 c7                	mov    %eax,%edi
    76b5:	e8 54 ff ff ff       	callq  760e <crc32_byte>
    76ba:	48 8b 45 f8          	mov    -0x8(%rbp),%rax
    76be:	48 c1 e8 28          	shr    $0x28,%rax
    76c2:	0f b6 c0             	movzbl %al,%eax
    76c5:	89 c7                	mov    %eax,%edi
    76c7:	e8 42 ff ff ff       	callq  760e <crc32_byte>
    76cc:	48 8b 45 f8          	mov    -0x8(%rbp),%rax
    76d0:	48 c1 e8 30          	shr    $0x30,%rax
    76d4:	0f b6 c0             	movzbl %al,%eax
    76d7:	89 c7                	mov    %eax,%edi
    76d9:	e8 30 ff ff ff       	callq  760e <crc32_byte>
    76de:	48 8b 45 f8          	mov    -0x8(%rbp),%rax
    76e2:	48 c1 e8 38          	shr    $0x38,%rax
    76e6:	0f b6 c0             	movzbl %al,%eax
    76e9:	89 c7                	mov    %eax,%edi
    76eb:	e8 1e ff ff ff       	callq  760e <crc32_byte>
    76f0:	90                   	nop
    76f1:	c9                   	leaveq 
    76f2:	c3                   	retq   

00000000000076f3 <transparent_crc>:
    76f3:	f3 0f 1e fa          	endbr64 
    76f7:	55                   	push   %rbp
    76f8:	48 89 e5             	mov    %rsp,%rbp
    76fb:	48 83 ec 20          	sub    $0x20,%rsp
    76ff:	48 89 7d f8          	mov    %rdi,-0x8(%rbp)
    7703:	48 89 75 f0          	mov    %rsi,-0x10(%rbp)
    7707:	89 55 ec             	mov    %edx,-0x14(%rbp)
    770a:	48 8b 45 f8          	mov    -0x8(%rbp),%rax
    770e:	48 89 c7             	mov    %rax,%rdi
    7711:	e8 3e ff ff ff       	callq  7654 <crc32_8bytes>
    7716:	83 7d ec 00          	cmpl   $0x0,-0x14(%rbp)
    771a:	74 22                	je     773e <transparent_crc+0x4b>
    771c:	8b 05 fe e8 00 00    	mov    0xe8fe(%rip),%eax        # 16020 <crc32_context>
    7722:	f7 d0                	not    %eax
    7724:	89 c2                	mov    %eax,%edx
    7726:	48 8b 45 f0          	mov    -0x10(%rbp),%rax
    772a:	48 89 c6             	mov    %rax,%rsi
    772d:	48 8d 3d fc 98 00 00 	lea    0x98fc(%rip),%rdi        # 11030 <_IO_stdin_used+0x30>
    7734:	b8 00 00 00 00       	mov    $0x0,%eax
    7739:	e8 42 e9 ff ff       	callq  6080 <printf@plt>
    773e:	90                   	nop
    773f:	c9                   	leaveq 
    7740:	c3                   	retq   

0000000000007741 <transparent_crc_bytes>:
    7741:	f3 0f 1e fa          	endbr64 
    7745:	55                   	push   %rbp
    7746:	48 89 e5             	mov    %rsp,%rbp
    7749:	48 83 ec 30          	sub    $0x30,%rsp
    774d:	48 89 7d e8          	mov    %rdi,-0x18(%rbp)
    7751:	89 75 e4             	mov    %esi,-0x1c(%rbp)
    7754:	48 89 55 d8          	mov    %rdx,-0x28(%rbp)
    7758:	89 4d e0             	mov    %ecx,-0x20(%rbp)
    775b:	c7 45 fc 00 00 00 00 	movl   $0x0,-0x4(%rbp)
    7762:	eb 1e                	jmp    7782 <transparent_crc_bytes+0x41>
    7764:	8b 45 fc             	mov    -0x4(%rbp),%eax
    7767:	48 63 d0             	movslq %eax,%rdx
    776a:	48 8b 45 e8          	mov    -0x18(%rbp),%rax
    776e:	48 01 d0             	add    %rdx,%rax
    7771:	0f b6 00             	movzbl (%rax),%eax
    7774:	0f b6 c0             	movzbl %al,%eax
    7777:	89 c7                	mov    %eax,%edi
    7779:	e8 90 fe ff ff       	callq  760e <crc32_byte>
    777e:	83 45 fc 01          	addl   $0x1,-0x4(%rbp)
    7782:	8b 45 fc             	mov    -0x4(%rbp),%eax
    7785:	3b 45 e4             	cmp    -0x1c(%rbp),%eax
    7788:	7c da                	jl     7764 <transparent_crc_bytes+0x23>
    778a:	83 7d e0 00          	cmpl   $0x0,-0x20(%rbp)
    778e:	74 22                	je     77b2 <transparent_crc_bytes+0x71>
    7790:	8b 05 8a e8 00 00    	mov    0xe88a(%rip),%eax        # 16020 <crc32_context>
    7796:	f7 d0                	not    %eax
    7798:	89 c2                	mov    %eax,%edx
    779a:	48 8b 45 d8          	mov    -0x28(%rbp),%rax
    779e:	48 89 c6             	mov    %rax,%rsi
    77a1:	48 8d 3d 88 98 00 00 	lea    0x9888(%rip),%rdi        # 11030 <_IO_stdin_used+0x30>
    77a8:	b8 00 00 00 00       	mov    $0x0,%eax
    77ad:	e8 ce e8 ff ff       	callq  6080 <printf@plt>
    77b2:	90                   	nop
    77b3:	c9                   	leaveq 
    77b4:	c3                   	retq   

00000000000077b5 <func_1>:
    77b5:	f3 0f 1e fa          	endbr64 
    77b9:	55                   	push   %rbp
    77ba:	48 89 e5             	mov    %rsp,%rbp
    77bd:	41 57                	push   %r15
    77bf:	41 56                	push   %r14
    77c1:	41 55                	push   %r13
    77c3:	41 54                	push   %r12
    77c5:	53                   	push   %rbx
    77c6:	48 81 ec 08 0f 00 00 	sub    $0xf08,%rsp
    77cd:	64 48 8b 04 25 28 00 	mov    %fs:0x28,%rax
    77d4:	00 00 
    77d6:	48 89 45 c8          	mov    %rax,-0x38(%rbp)
    77da:	31 c0                	xor    %eax,%eax
    77dc:	c7 85 f0 f0 ff ff ff 	movl   $0xffffffff,-0xf10(%rbp)
    77e3:	ff ff ff 
    77e6:	c7 85 08 f1 ff ff ff 	movl   $0xffffffff,-0xef8(%rbp)
    77ed:	ff ff ff 
    77f0:	48 8d 85 40 f8 ff ff 	lea    -0x7c0(%rbp),%rax
    77f7:	48 8d 15 c2 98 00 00 	lea    0x98c2(%rip),%rdx        # 110c0 <g_2687+0x10>
    77fe:	b9 f0 00 00 00       	mov    $0xf0,%ecx
    7803:	48 89 c7             	mov    %rax,%rdi
    7806:	48 89 d6             	mov    %rdx,%rsi
    7809:	f3 48 a5             	rep movsq %ds:(%rsi),%es:(%rdi)
    780c:	c7 85 0c f1 ff ff 06 	movl   $0x6,-0xef4(%rbp)
    7813:	00 00 00 
    7816:	48 c7 85 18 f1 ff ff 	movq   $0x0,-0xee8(%rbp)
    781d:	00 00 00 00 
    7821:	48 8d 05 f0 08 01 00 	lea    0x108f0(%rip),%rax        # 18118 <g_2727>
    7828:	48 89 85 20 f1 ff ff 	mov    %rax,-0xee0(%rbp)
    782f:	48 c7 85 28 f1 ff ff 	movq   $0x1,-0xed8(%rbp)
    7836:	01 00 00 00 
    783a:	c6 85 db f0 ff ff 05 	movb   $0x5,-0xf25(%rbp)
    7841:	c7 85 10 f1 ff ff ff 	movl   $0xffffffff,-0xef0(%rbp)
    7848:	ff ff ff 
    784b:	48 8d 85 20 f1 ff ff 	lea    -0xee0(%rbp),%rax
    7852:	48 89 85 d0 f1 ff ff 	mov    %rax,-0xe30(%rbp)
    7859:	c6 85 df f0 ff ff 00 	movb   $0x0,-0xf21(%rbp)
    7860:	c7 85 14 f1 ff ff 01 	movl   $0x1,-0xeec(%rbp)
    7867:	00 00 00 
    786a:	66 c7 85 e2 f0 ff ff 	movw   $0x3069,-0xf1e(%rbp)
    7871:	69 30 
    7873:	48 c7 85 d8 f1 ff ff 	movq   $0x0,-0xe28(%rbp)
    787a:	00 00 00 00 
    787e:	48 8d 05 33 ea 00 00 	lea    0xea33(%rip),%rax        # 162b8 <g_2225>
    7885:	48 89 85 20 f3 ff ff 	mov    %rax,-0xce0(%rbp)
    788c:	48 8d 05 a1 e9 00 00 	lea    0xe9a1(%rip),%rax        # 16234 <g_1502>
    7893:	48 89 85 28 f3 ff ff 	mov    %rax,-0xcd8(%rbp)
    789a:	48 8d 05 93 e9 00 00 	lea    0xe993(%rip),%rax        # 16234 <g_1502>
    78a1:	48 89 85 30 f3 ff ff 	mov    %rax,-0xcd0(%rbp)
    78a8:	48 8d 05 09 ea 00 00 	lea    0xea09(%rip),%rax        # 162b8 <g_2225>
    78af:	48 89 85 38 f3 ff ff 	mov    %rax,-0xcc8(%rbp)
    78b6:	48 8d 85 ec f1 ff ff 	lea    -0xe14(%rbp),%rax
    78bd:	48 89 85 40 f3 ff ff 	mov    %rax,-0xcc0(%rbp)
    78c4:	48 8d 05 ed e9 00 00 	lea    0xe9ed(%rip),%rax        # 162b8 <g_2225>
    78cb:	48 89 85 48 f3 ff ff 	mov    %rax,-0xcb8(%rbp)
    78d2:	48 8d 05 df e9 00 00 	lea    0xe9df(%rip),%rax        # 162b8 <g_2225>
    78d9:	48 89 85 50 f3 ff ff 	mov    %rax,-0xcb0(%rbp)
    78e0:	48 8d 85 ec f1 ff ff 	lea    -0xe14(%rbp),%rax
    78e7:	48 89 85 58 f3 ff ff 	mov    %rax,-0xca8(%rbp)
    78ee:	48 8d 05 c3 e9 00 00 	lea    0xe9c3(%rip),%rax        # 162b8 <g_2225>
    78f5:	48 89 85 60 f3 ff ff 	mov    %rax,-0xca0(%rbp)
    78fc:	48 8d 05 31 e9 00 00 	lea    0xe931(%rip),%rax        # 16234 <g_1502>
    7903:	48 89 85 68 f3 ff ff 	mov    %rax,-0xc98(%rbp)
    790a:	48 8d 05 23 e9 00 00 	lea    0xe923(%rip),%rax        # 16234 <g_1502>
    7911:	48 89 85 70 f3 ff ff 	mov    %rax,-0xc90(%rbp)
    7918:	48 8d 05 99 e9 00 00 	lea    0xe999(%rip),%rax        # 162b8 <g_2225>
    791f:	48 89 85 78 f3 ff ff 	mov    %rax,-0xc88(%rbp)
    7926:	48 8d 85 ec f1 ff ff 	lea    -0xe14(%rbp),%rax
    792d:	48 89 85 80 f3 ff ff 	mov    %rax,-0xc80(%rbp)
    7934:	48 8d 05 7d e9 00 00 	lea    0xe97d(%rip),%rax        # 162b8 <g_2225>
    793b:	48 89 85 88 f3 ff ff 	mov    %rax,-0xc78(%rbp)
    7942:	48 8d 05 6f e9 00 00 	lea    0xe96f(%rip),%rax        # 162b8 <g_2225>
    7949:	48 89 85 90 f3 ff ff 	mov    %rax,-0xc70(%rbp)
    7950:	48 8d 85 ec f1 ff ff 	lea    -0xe14(%rbp),%rax
    7957:	48 89 85 98 f3 ff ff 	mov    %rax,-0xc68(%rbp)
    795e:	48 8d 05 53 e9 00 00 	lea    0xe953(%rip),%rax        # 162b8 <g_2225>
    7965:	48 89 85 a0 f3 ff ff 	mov    %rax,-0xc60(%rbp)
    796c:	48 8d 05 c1 e8 00 00 	lea    0xe8c1(%rip),%rax        # 16234 <g_1502>
    7973:	48 89 85 a8 f3 ff ff 	mov    %rax,-0xc58(%rbp)
    797a:	48 8d 05 b3 e8 00 00 	lea    0xe8b3(%rip),%rax        # 16234 <g_1502>
    7981:	48 89 85 b0 f3 ff ff 	mov    %rax,-0xc50(%rbp)
    7988:	48 8d 05 29 e9 00 00 	lea    0xe929(%rip),%rax        # 162b8 <g_2225>
    798f:	48 89 85 b8 f3 ff ff 	mov    %rax,-0xc48(%rbp)
    7996:	48 8d 85 ec f1 ff ff 	lea    -0xe14(%rbp),%rax
    799d:	48 89 85 c0 f3 ff ff 	mov    %rax,-0xc40(%rbp)
    79a4:	48 8d 05 0d e9 00 00 	lea    0xe90d(%rip),%rax        # 162b8 <g_2225>
    79ab:	48 89 85 c8 f3 ff ff 	mov    %rax,-0xc38(%rbp)
    79b2:	48 8d 05 ff e8 00 00 	lea    0xe8ff(%rip),%rax        # 162b8 <g_2225>
    79b9:	48 89 85 d0 f3 ff ff 	mov    %rax,-0xc30(%rbp)
    79c0:	48 8d 85 ec f1 ff ff 	lea    -0xe14(%rbp),%rax
    79c7:	48 89 85 d8 f3 ff ff 	mov    %rax,-0xc28(%rbp)
    79ce:	48 8d 05 e3 e8 00 00 	lea    0xe8e3(%rip),%rax        # 162b8 <g_2225>
    79d5:	48 89 85 e0 f3 ff ff 	mov    %rax,-0xc20(%rbp)
    79dc:	48 8d 05 51 e8 00 00 	lea    0xe851(%rip),%rax        # 16234 <g_1502>
    79e3:	48 89 85 e8 f3 ff ff 	mov    %rax,-0xc18(%rbp)
    79ea:	48 8d 05 43 e8 00 00 	lea    0xe843(%rip),%rax        # 16234 <g_1502>
    79f1:	48 89 85 f0 f3 ff ff 	mov    %rax,-0xc10(%rbp)
    79f8:	48 8d 05 b9 e8 00 00 	lea    0xe8b9(%rip),%rax        # 162b8 <g_2225>
    79ff:	48 89 85 f8 f3 ff ff 	mov    %rax,-0xc08(%rbp)
    7a06:	48 8d 85 ec f1 ff ff 	lea    -0xe14(%rbp),%rax
    7a0d:	48 89 85 00 f4 ff ff 	mov    %rax,-0xc00(%rbp)
    7a14:	48 8d 05 9d e8 00 00 	lea    0xe89d(%rip),%rax        # 162b8 <g_2225>
    7a1b:	48 89 85 08 f4 ff ff 	mov    %rax,-0xbf8(%rbp)
    7a22:	48 8d 05 8f e8 00 00 	lea    0xe88f(%rip),%rax        # 162b8 <g_2225>
    7a29:	48 89 85 10 f4 ff ff 	mov    %rax,-0xbf0(%rbp)
    7a30:	48 8d 85 ec f1 ff ff 	lea    -0xe14(%rbp),%rax
    7a37:	48 89 85 18 f4 ff ff 	mov    %rax,-0xbe8(%rbp)
    7a3e:	48 b8 88 b4 30 6e e3 	movabs $0xec969ee36e30b488,%rax
    7a45:	9e 96 ec 
    7a48:	48 89 85 b8 f1 ff ff 	mov    %rax,-0xe48(%rbp)
    7a4f:	c7 85 00 f1 ff ff 10 	movl   $0x6e1aa610,-0xf00(%rbp)
    7a56:	a6 1a 6e 
    7a59:	48 c7 85 e0 f1 ff ff 	movq   $0x0,-0xe20(%rbp)
    7a60:	00 00 00 00 
    7a64:	48 c7 85 60 f2 ff ff 	movq   $0xffffffffffffffff,-0xda0(%rbp)
    7a6b:	ff ff ff ff 
    7a6f:	48 b8 8e 04 be 27 a6 	movabs $0x6d1a10a627be048e,%rax
    7a76:	10 1a 6d 
    7a79:	48 89 85 68 f2 ff ff 	mov    %rax,-0xd98(%rbp)
    7a80:	48 89 85 70 f2 ff ff 	mov    %rax,-0xd90(%rbp)
    7a87:	48 c7 85 78 f2 ff ff 	movq   $0xffffffffffffffff,-0xd88(%rbp)
    7a8e:	ff ff ff ff 
    7a92:	48 89 85 80 f2 ff ff 	mov    %rax,-0xd80(%rbp)
    7a99:	48 89 85 88 f2 ff ff 	mov    %rax,-0xd78(%rbp)
    7aa0:	48 c7 85 90 f2 ff ff 	movq   $0xffffffffffffffff,-0xd70(%rbp)
    7aa7:	ff ff ff ff 
    7aab:	48 89 85 98 f2 ff ff 	mov    %rax,-0xd68(%rbp)
    7ab2:	48 c7 85 30 f1 ff ff 	movq   $0x0,-0xed0(%rbp)
    7ab9:	00 00 00 00 
    7abd:	48 8d 85 30 f1 ff ff 	lea    -0xed0(%rbp),%rax
    7ac4:	48 89 85 38 f1 ff ff 	mov    %rax,-0xec8(%rbp)
    7acb:	48 8d 85 38 f1 ff ff 	lea    -0xec8(%rbp),%rax
    7ad2:	48 89 85 30 f2 ff ff 	mov    %rax,-0xdd0(%rbp)
    7ad9:	48 8d 85 38 f1 ff ff 	lea    -0xec8(%rbp),%rax
    7ae0:	48 89 85 38 f2 ff ff 	mov    %rax,-0xdc8(%rbp)
    7ae7:	48 8d 85 38 f1 ff ff 	lea    -0xec8(%rbp),%rax
    7aee:	48 89 85 40 f2 ff ff 	mov    %rax,-0xdc0(%rbp)
    7af5:	48 8d 85 38 f1 ff ff 	lea    -0xec8(%rbp),%rax
    7afc:	48 89 85 48 f2 ff ff 	mov    %rax,-0xdb8(%rbp)
    7b03:	48 8d 85 38 f1 ff ff 	lea    -0xec8(%rbp),%rax
    7b0a:	48 89 85 50 f2 ff ff 	mov    %rax,-0xdb0(%rbp)
    7b11:	48 8d 85 38 f1 ff ff 	lea    -0xec8(%rbp),%rax
    7b18:	48 89 85 58 f2 ff ff 	mov    %rax,-0xda8(%rbp)
    7b1f:	c6 85 de f0 ff ff 86 	movb   $0x86,-0xf22(%rbp)
    7b26:	66 c7 85 e0 f0 ff ff 	movw   $0x0,-0xf20(%rbp)
    7b2d:	00 00 
    7b2f:	c6 85 dc f0 ff ff 02 	movb   $0x2,-0xf24(%rbp)
    7b36:	48 8d 85 40 f5 ff ff 	lea    -0xac0(%rbp),%rax
    7b3d:	48 8d 15 fc 9c 00 00 	lea    0x9cfc(%rip),%rdx        # 11840 <g_2687+0x790>
    7b44:	b9 60 00 00 00       	mov    $0x60,%ecx
    7b49:	48 89 c7             	mov    %rax,%rdi
    7b4c:	48 89 d6             	mov    %rdx,%rsi
    7b4f:	f3 48 a5             	rep movsq %ds:(%rsi),%es:(%rdi)
    7b52:	48 8d 85 dc f0 ff ff 	lea    -0xf24(%rbp),%rax
    7b59:	48 89 85 c0 f1 ff ff 	mov    %rax,-0xe40(%rbp)
    7b60:	48 8d 85 db f0 ff ff 	lea    -0xf25(%rbp),%rax
    7b67:	48 89 85 c8 f1 ff ff 	mov    %rax,-0xe38(%rbp)
    7b6e:	c7 85 ec f0 ff ff 00 	movl   $0x0,-0xf14(%rbp)
    7b75:	00 00 00 
    7b78:	eb 1a                	jmp    7b94 <func_1+0x3df>
    7b7a:	8b 85 ec f0 ff ff    	mov    -0xf14(%rbp),%eax
    7b80:	48 98                	cltq   
    7b82:	c7 84 85 ec f1 ff ff 	movl   $0x0,-0xe14(%rbp,%rax,4)
    7b89:	00 00 00 00 
    7b8d:	83 85 ec f0 ff ff 01 	addl   $0x1,-0xf14(%rbp)
    7b94:	83 bd ec f0 ff ff 00 	cmpl   $0x0,-0xf14(%rbp)
    7b9b:	7e dd                	jle    7b7a <func_1+0x3c5>
    7b9d:	8b 85 08 f1 ff ff    	mov    -0xef8(%rbp),%eax
    7ba3:	44 0f b6 e0          	movzbl %al,%r12d
    7ba7:	8b 9d f0 f0 ff ff    	mov    -0xf10(%rbp),%ebx
    7bad:	0f b6 05 70 e4 00 00 	movzbl 0xe470(%rip),%eax        # 16024 <g_2>
    7bb4:	0f b6 c8             	movzbl %al,%ecx
    7bb7:	0f b6 05 66 e4 00 00 	movzbl 0xe466(%rip),%eax        # 16024 <g_2>
    7bbe:	0f b6 d0             	movzbl %al,%edx
    7bc1:	0f b6 05 5c e4 00 00 	movzbl 0xe45c(%rip),%eax        # 16024 <g_2>
    7bc8:	0f b6 f0             	movzbl %al,%esi
    7bcb:	0f b6 05 52 e4 00 00 	movzbl 0xe452(%rip),%eax        # 16024 <g_2>
    7bd2:	0f b6 c0             	movzbl %al,%eax
    7bd5:	89 c7                	mov    %eax,%edi
    7bd7:	e8 69 1e 00 00       	callq  9a45 <func_11>
    7bdc:	48 8b 05 95 ff 00 00 	mov    0xff95(%rip),%rax        # 17b78 <g_2294>
    7be3:	8b 85 f0 f0 ff ff    	mov    -0xf10(%rbp),%eax
    7be9:	89 c6                	mov    %eax,%esi
    7beb:	bf 01 00 00 00       	mov    $0x1,%edi
    7bf0:	e8 9d e8 ff ff       	callq  6492 <safe_lshift_func_int16_t_s_s>
    7bf5:	8b 85 f0 f0 ff ff    	mov    -0xf10(%rbp),%eax
    7bfb:	98                   	cwtl   
    7bfc:	be 24 47 00 00       	mov    $0x4724,%esi
    7c01:	89 c7                	mov    %eax,%edi
    7c03:	e8 ed e7 ff ff       	callq  63f5 <safe_mul_func_int16_t_s_s>
    7c08:	89 c2                	mov    %eax,%edx
    7c0a:	48 8b 05 ff fe 00 00 	mov    0xfeff(%rip),%rax        # 17b10 <g_1499>
    7c11:	48 8b 00             	mov    (%rax),%rax
    7c14:	88 10                	mov    %dl,(%rax)
    7c16:	8b 85 f0 f0 ff ff    	mov    -0xf10(%rbp),%eax
    7c1c:	44 89 e1             	mov    %r12d,%ecx
    7c1f:	89 da                	mov    %ebx,%edx
    7c21:	be 09 00 00 00       	mov    $0x9,%esi
    7c26:	89 c7                	mov    %eax,%edi
    7c28:	e8 f5 0b 00 00       	callq  8822 <func_3>
    7c2d:	8b 95 f0 f0 ff ff    	mov    -0xf10(%rbp),%edx
    7c33:	48 63 d2             	movslq %edx,%rdx
    7c36:	48 31 c2             	xor    %rax,%rdx
    7c39:	8b 85 08 f1 ff ff    	mov    -0xef8(%rbp),%eax
    7c3f:	48 39 c2             	cmp    %rax,%rdx
    7c42:	c7 85 e4 f0 ff ff f6 	movl   $0xfffffff6,-0xf1c(%rbp)
    7c49:	ff ff ff 
    7c4c:	c7 85 04 f1 ff ff 07 	movl   $0x7,-0xefc(%rbp)
    7c53:	00 00 00 
    7c56:	c7 85 10 f2 ff ff 55 	movl   $0x8cd1b255,-0xdf0(%rbp)
    7c5d:	b2 d1 8c 
    7c60:	c7 85 14 f2 ff ff 55 	movl   $0x8cd1b255,-0xdec(%rbp)
    7c67:	b2 d1 8c 
    7c6a:	c7 85 18 f2 ff ff 33 	movl   $0x5a79e33,-0xde8(%rbp)
    7c71:	9e a7 05 
    7c74:	c7 85 1c f2 ff ff 55 	movl   $0x8cd1b255,-0xde4(%rbp)
    7c7b:	b2 d1 8c 
    7c7e:	c7 85 20 f2 ff ff 55 	movl   $0x8cd1b255,-0xde0(%rbp)
    7c85:	b2 d1 8c 
    7c88:	c7 85 24 f2 ff ff 33 	movl   $0x5a79e33,-0xddc(%rbp)
    7c8f:	9e a7 05 
    7c92:	c7 85 28 f2 ff ff 55 	movl   $0x8cd1b255,-0xdd8(%rbp)
    7c99:	b2 d1 8c 
    7c9c:	c7 85 2c f2 ff ff 55 	movl   $0x8cd1b255,-0xdd4(%rbp)
    7ca3:	b2 d1 8c 
    7ca6:	48 c7 05 0f e6 00 00 	movq   $0x0,0xe60f(%rip)        # 162c0 <g_2432>
    7cad:	00 00 00 00 
    7cb1:	90                   	nop
    7cb2:	48 8b 05 07 e6 00 00 	mov    0xe607(%rip),%rax        # 162c0 <g_2432>
    7cb9:	48 83 f8 03          	cmp    $0x3,%rax
    7cbd:	0f 87 d7 09 00 00    	ja     869a <func_1+0xee5>
    7cc3:	48 8d 05 6a e5 00 00 	lea    0xe56a(%rip),%rax        # 16234 <g_1502>
    7cca:	48 89 85 80 f1 ff ff 	mov    %rax,-0xe80(%rbp)
    7cd1:	48 c7 85 88 f1 ff ff 	movq   $0xfffffffffffffff6,-0xe78(%rbp)
    7cd8:	f6 ff ff ff 
    7cdc:	48 8d 05 b5 fc 00 00 	lea    0xfcb5(%rip),%rax        # 17998 <g_634>
    7ce3:	48 89 85 90 f1 ff ff 	mov    %rax,-0xe70(%rbp)
    7cea:	48 8d 05 51 e5 00 00 	lea    0xe551(%rip),%rax        # 16242 <g_1832+0x2>
    7cf1:	48 89 85 98 f1 ff ff 	mov    %rax,-0xe68(%rbp)
    7cf8:	48 8d 05 31 fc 00 00 	lea    0xfc31(%rip),%rax        # 17930 <g_492>
    7cff:	48 89 85 a0 f1 ff ff 	mov    %rax,-0xe60(%rbp)
    7d06:	48 c7 85 a8 f1 ff ff 	movq   $0x5,-0xe58(%rbp)
    7d0d:	05 00 00 00 
    7d11:	c7 85 e8 f0 ff ff 00 	movl   $0x0,-0xf18(%rbp)
    7d18:	00 00 00 
    7d1b:	eb 1a                	jmp    7d37 <func_1+0x582>
    7d1d:	8b 85 e8 f0 ff ff    	mov    -0xf18(%rbp),%eax
    7d23:	48 98                	cltq   
    7d25:	c7 84 85 f0 f1 ff ff 	movl   $0x1,-0xe10(%rbp,%rax,4)
    7d2c:	01 00 00 00 
    7d30:	83 85 e8 f0 ff ff 01 	addl   $0x1,-0xf18(%rbp)
    7d37:	83 bd e8 f0 ff ff 05 	cmpl   $0x5,-0xf18(%rbp)
    7d3e:	7e dd                	jle    7d1d <func_1+0x568>
    7d40:	48 8b 05 c9 03 01 00 	mov    0x103c9(%rip),%rax        # 18110 <g_2718>
    7d47:	8b 10                	mov    (%rax),%edx
    7d49:	0b 95 08 f1 ff ff    	or     -0xef8(%rbp),%edx
    7d4f:	89 10                	mov    %edx,(%rax)
    7d51:	48 8b 85 80 f1 ff ff 	mov    -0xe80(%rbp),%rax
    7d58:	8b 00                	mov    (%rax),%eax
    7d5a:	33 85 08 f1 ff ff    	xor    -0xef8(%rbp),%eax
    7d60:	89 c2                	mov    %eax,%edx
    7d62:	48 8b 85 80 f1 ff ff 	mov    -0xe80(%rbp),%rax
    7d69:	89 10                	mov    %edx,(%rax)
    7d6b:	48 8b 85 80 f1 ff ff 	mov    -0xe80(%rbp),%rax
    7d72:	8b 00                	mov    (%rax),%eax
    7d74:	85 c0                	test   %eax,%eax
    7d76:	0f 84 9b 00 00 00    	je     7e17 <func_1+0x662>
    7d7c:	48 c7 85 40 f1 ff ff 	movq   $0x0,-0xec0(%rbp)
    7d83:	00 00 00 00 
    7d87:	48 8d 05 1a e3 00 00 	lea    0xe31a(%rip),%rax        # 160a8 <g_152>
    7d8e:	48 89 85 48 f1 ff ff 	mov    %rax,-0xeb8(%rbp)
    7d95:	48 8b 05 84 03 01 00 	mov    0x10384(%rip),%rax        # 18120 <g_2726>
    7d9c:	48 85 c0             	test   %rax,%rax
    7d9f:	0f 94 c0             	sete   %al
    7da2:	0f b6 d8             	movzbl %al,%ebx
    7da5:	48 8b 85 80 f1 ff ff 	mov    -0xe80(%rbp),%rax
    7dac:	8b 00                	mov    (%rax),%eax
    7dae:	48 63 d0             	movslq %eax,%rdx
    7db1:	48 8b 85 48 f1 ff ff 	mov    -0xeb8(%rbp),%rax
    7db8:	48 89 10             	mov    %rdx,(%rax)
    7dbb:	48 8b 85 48 f1 ff ff 	mov    -0xeb8(%rbp),%rax
    7dc2:	48 8b 00             	mov    (%rax),%rax
    7dc5:	48 89 c6             	mov    %rax,%rsi
    7dc8:	bf 01 00 00 00       	mov    $0x1,%edi
    7dcd:	e8 6f ea ff ff       	callq  6841 <safe_add_func_int64_t_s_s>
    7dd2:	48 85 c0             	test   %rax,%rax
    7dd5:	74 14                	je     7deb <func_1+0x636>
    7dd7:	48 8b 05 82 fd 00 00 	mov    0xfd82(%rip),%rax        # 17b60 <g_2019>
    7dde:	8b 00                	mov    (%rax),%eax
    7de0:	85 c0                	test   %eax,%eax
    7de2:	74 07                	je     7deb <func_1+0x636>
    7de4:	b8 01 00 00 00       	mov    $0x1,%eax
    7de9:	eb 05                	jmp    7df0 <func_1+0x63b>
    7deb:	b8 00 00 00 00       	mov    $0x0,%eax
    7df0:	48 98                	cltq   
    7df2:	48 89 de             	mov    %rbx,%rsi
    7df5:	48 89 c7             	mov    %rax,%rdi
    7df8:	e8 44 ea ff ff       	callq  6841 <safe_add_func_int64_t_s_s>
    7dfd:	21 85 e4 f0 ff ff    	and    %eax,-0xf1c(%rbp)
    7e03:	48 8b 05 06 03 01 00 	mov    0x10306(%rip),%rax        # 18110 <g_2718>
    7e0a:	8b 95 e4 f0 ff ff    	mov    -0xf1c(%rbp),%edx
    7e10:	89 10                	mov    %edx,(%rax)
    7e12:	e9 9a 06 00 00       	jmpq   84b1 <func_1+0xcfc>
    7e17:	48 c7 85 b0 f1 ff ff 	movq   $0x9,-0xe50(%rbp)
    7e1e:	09 00 00 00 
    7e22:	c7 85 a0 f2 ff ff 4f 	movl   $0x9c4a044f,-0xd60(%rbp)
    7e29:	04 4a 9c 
    7e2c:	c7 85 a4 f2 ff ff 00 	movl   $0x0,-0xd5c(%rbp)
    7e33:	00 00 00 
    7e36:	c7 85 a8 f2 ff ff 4f 	movl   $0x9c4a044f,-0xd58(%rbp)
    7e3d:	04 4a 9c 
    7e40:	c7 85 ac f2 ff ff fa 	movl   $0xfffffffa,-0xd54(%rbp)
    7e47:	ff ff ff 
    7e4a:	c7 85 b0 f2 ff ff fa 	movl   $0xfffffffa,-0xd50(%rbp)
    7e51:	ff ff ff 
    7e54:	c7 85 b4 f2 ff ff fd 	movl   $0xfffffffd,-0xd4c(%rbp)
    7e5b:	ff ff ff 
    7e5e:	c7 85 b8 f2 ff ff fa 	movl   $0xfffffffa,-0xd48(%rbp)
    7e65:	ff ff ff 
    7e68:	c7 85 bc f2 ff ff ff 	movl   $0xffffffff,-0xd44(%rbp)
    7e6f:	ff ff ff 
    7e72:	c7 85 c0 f2 ff ff 63 	movl   $0x96c0763,-0xd40(%rbp)
    7e79:	07 6c 09 
    7e7c:	c7 85 c4 f2 ff ff 4f 	movl   $0x9c4a044f,-0xd3c(%rbp)
    7e83:	04 4a 9c 
    7e86:	c7 85 c8 f2 ff ff fa 	movl   $0xfffffffa,-0xd38(%rbp)
    7e8d:	ff ff ff 
    7e90:	c7 85 cc f2 ff ff 63 	movl   $0x96c0763,-0xd34(%rbp)
    7e97:	07 6c 09 
    7e9a:	c7 85 d0 f2 ff ff 63 	movl   $0x96c0763,-0xd30(%rbp)
    7ea1:	07 6c 09 
    7ea4:	c7 85 d4 f2 ff ff 00 	movl   $0x0,-0xd2c(%rbp)
    7eab:	00 00 00 
    7eae:	c7 85 d8 f2 ff ff fd 	movl   $0xfffffffd,-0xd28(%rbp)
    7eb5:	ff ff ff 
    7eb8:	c7 85 dc f2 ff ff 4f 	movl   $0x9c4a044f,-0xd24(%rbp)
    7ebf:	04 4a 9c 
    7ec2:	c7 85 e0 f2 ff ff 00 	movl   $0x0,-0xd20(%rbp)
    7ec9:	00 00 00 
    7ecc:	c7 85 e4 f2 ff ff 4f 	movl   $0x9c4a044f,-0xd1c(%rbp)
    7ed3:	04 4a 9c 
    7ed6:	c7 85 e8 f2 ff ff fa 	movl   $0xfffffffa,-0xd18(%rbp)
    7edd:	ff ff ff 
    7ee0:	c7 85 ec f2 ff ff fa 	movl   $0xfffffffa,-0xd14(%rbp)
    7ee7:	ff ff ff 
    7eea:	c7 85 f0 f2 ff ff fd 	movl   $0xfffffffd,-0xd10(%rbp)
    7ef1:	ff ff ff 
    7ef4:	c7 85 f4 f2 ff ff fa 	movl   $0xfffffffa,-0xd0c(%rbp)
    7efb:	ff ff ff 
    7efe:	c7 85 f8 f2 ff ff ff 	movl   $0xffffffff,-0xd08(%rbp)
    7f05:	ff ff ff 
    7f08:	c7 85 fc f2 ff ff 63 	movl   $0x96c0763,-0xd04(%rbp)
    7f0f:	07 6c 09 
    7f12:	c7 85 00 f3 ff ff 4f 	movl   $0x9c4a044f,-0xd00(%rbp)
    7f19:	04 4a 9c 
    7f1c:	c7 85 04 f3 ff ff fa 	movl   $0xfffffffa,-0xcfc(%rbp)
    7f23:	ff ff ff 
    7f26:	c7 85 08 f3 ff ff 63 	movl   $0x96c0763,-0xcf8(%rbp)
    7f2d:	07 6c 09 
    7f30:	c7 85 0c f3 ff ff 63 	movl   $0x96c0763,-0xcf4(%rbp)
    7f37:	07 6c 09 
    7f3a:	c7 85 10 f3 ff ff 00 	movl   $0x0,-0xcf0(%rbp)
    7f41:	00 00 00 
    7f44:	c7 85 14 f3 ff ff fd 	movl   $0xfffffffd,-0xcec(%rbp)
    7f4b:	ff ff ff 
    7f4e:	48 8b 85 80 f1 ff ff 	mov    -0xe80(%rbp),%rax
    7f55:	8b 00                	mov    (%rax),%eax
    7f57:	33 85 08 f1 ff ff    	xor    -0xef8(%rbp),%eax
    7f5d:	89 c2                	mov    %eax,%edx
    7f5f:	48 8b 85 80 f1 ff ff 	mov    -0xe80(%rbp),%rax
    7f66:	89 10                	mov    %edx,(%rax)
    7f68:	48 8b 85 80 f1 ff ff 	mov    -0xe80(%rbp),%rax
    7f6f:	c7 00 01 00 00 00    	movl   $0x1,(%rax)
    7f75:	c7 85 f0 f0 ff ff 00 	movl   $0x0,-0xf10(%rbp)
    7f7c:	00 00 00 
    7f7f:	e9 fa 03 00 00       	jmpq   837e <func_1+0xbc9>
    7f84:	c6 85 dd f0 ff ff c0 	movb   $0xc0,-0xf23(%rbp)
    7f8b:	48 8d 05 4a e1 00 00 	lea    0xe14a(%rip),%rax        # 160dc <g_272>
    7f92:	48 89 85 78 f1 ff ff 	mov    %rax,-0xe88(%rbp)
    7f99:	c7 85 f8 f0 ff ff 00 	movl   $0x0,-0xf08(%rbp)
    7fa0:	00 00 00 
    7fa3:	48 8d 05 96 e2 00 00 	lea    0xe296(%rip),%rax        # 16240 <g_1832>
    7faa:	48 89 85 58 f1 ff ff 	mov    %rax,-0xea8(%rbp)
    7fb1:	c7 85 f4 f0 ff ff 01 	movl   $0x1,-0xf0c(%rbp)
    7fb8:	00 00 00 
    7fbb:	48 c7 85 60 f1 ff ff 	movq   $0x0,-0xea0(%rbp)
    7fc2:	00 00 00 00 
    7fc6:	48 8b 05 4b 01 01 00 	mov    0x1014b(%rip),%rax        # 18118 <g_2727>
    7fcd:	48 8b 00             	mov    (%rax),%rax
    7fd0:	48 89 c2             	mov    %rax,%rdx
    7fd3:	48 8b 05 9e fb 00 00 	mov    0xfb9e(%rip),%rax        # 17b78 <g_2294>
    7fda:	48 8b 00             	mov    (%rax),%rax
    7fdd:	48 39 c2             	cmp    %rax,%rdx
    7fe0:	0f 96 c0             	setbe  %al
    7fe3:	0f b6 d0             	movzbl %al,%edx
    7fe6:	48 8b 85 80 f1 ff ff 	mov    -0xe80(%rbp),%rax
    7fed:	8b 00                	mov    (%rax),%eax
    7fef:	31 c2                	xor    %eax,%edx
    7ff1:	48 8b 85 80 f1 ff ff 	mov    -0xe80(%rbp),%rax
    7ff8:	89 10                	mov    %edx,(%rax)
    7ffa:	0f b6 9d dd f0 ff ff 	movzbl -0xf23(%rbp),%ebx
    8001:	48 8b 85 80 f1 ff ff 	mov    -0xe80(%rbp),%rax
    8008:	8b 00                	mov    (%rax),%eax
    800a:	85 c0                	test   %eax,%eax
    800c:	0f 85 f2 00 00 00    	jne    8104 <func_1+0x94f>
    8012:	8b 85 f0 f0 ff ff    	mov    -0xf10(%rbp),%eax
    8018:	4c 63 e0             	movslq %eax,%r12
    801b:	44 8b ad 04 f1 ff ff 	mov    -0xefc(%rbp),%r13d
    8022:	48 8b 05 47 fb 00 00 	mov    0xfb47(%rip),%rax        # 17b70 <g_2021>
    8029:	48 8b 00             	mov    (%rax),%rax
    802c:	8b 00                	mov    (%rax),%eax
    802e:	41 89 c7             	mov    %eax,%r15d
    8031:	48 8b 05 e8 00 01 00 	mov    0x100e8(%rip),%rax        # 18120 <g_2726>
    8038:	48 8b 00             	mov    (%rax),%rax
    803b:	4c 8b 30             	mov    (%rax),%r14
    803e:	8b 85 e4 f0 ff ff    	mov    -0xf1c(%rbp),%eax
    8044:	39 85 08 f1 ff ff    	cmp    %eax,-0xef8(%rbp)
    804a:	0f 96 c0             	setbe  %al
    804d:	0f b6 c0             	movzbl %al,%eax
    8050:	be 07 00 00 00       	mov    $0x7,%esi
    8055:	89 c7                	mov    %eax,%edi
    8057:	e8 ec ed ff ff       	callq  6e48 <safe_rshift_func_uint16_t_u_s>
    805c:	48 83 bd 78 f1 ff ff 	cmpq   $0x0,-0xe88(%rbp)
    8063:	00 
    8064:	0f 95 c0             	setne  %al
    8067:	0f b6 c0             	movzbl %al,%eax
    806a:	4c 89 f6             	mov    %r14,%rsi
    806d:	48 89 c7             	mov    %rax,%rdi
    8070:	e8 cc e7 ff ff       	callq  6841 <safe_add_func_int64_t_s_s>
    8075:	89 85 f8 f0 ff ff    	mov    %eax,-0xf08(%rbp)
    807b:	8b 85 f8 f0 ff ff    	mov    -0xf08(%rbp),%eax
    8081:	44 89 fe             	mov    %r15d,%esi
    8084:	89 c7                	mov    %eax,%edi
    8086:	e8 41 e6 ff ff       	callq  66cc <safe_mod_func_int32_t_s_s>
    808b:	0f be c0             	movsbl %al,%eax
    808e:	be 00 00 00 00       	mov    $0x0,%esi
    8093:	89 c7                	mov    %eax,%edi
    8095:	e8 3a e1 ff ff       	callq  61d4 <safe_add_func_int8_t_s_s>
    809a:	0f be c0             	movsbl %al,%eax
    809d:	44 89 ee             	mov    %r13d,%esi
    80a0:	89 c7                	mov    %eax,%edi
    80a2:	e8 fa e1 ff ff       	callq  62a1 <safe_lshift_func_int8_t_s_s>
    80a7:	48 8b 15 82 f8 00 00 	mov    0xf882(%rip),%rdx        # 17930 <g_492>
    80ae:	48 8b 05 7b f8 00 00 	mov    0xf87b(%rip),%rax        # 17930 <g_492>
    80b5:	0f b7 12             	movzwl (%rdx),%edx
    80b8:	66 89 10             	mov    %dx,(%rax)
    80bb:	0f b7 00             	movzwl (%rax),%eax
    80be:	98                   	cwtl   
    80bf:	39 85 f0 f0 ff ff    	cmp    %eax,-0xf10(%rbp)
    80c5:	0f 94 c0             	sete   %al
    80c8:	0f b6 c0             	movzbl %al,%eax
    80cb:	4c 89 e6             	mov    %r12,%rsi
    80ce:	48 89 c7             	mov    %rax,%rdi
    80d1:	e8 75 ef ff ff       	callq  704b <safe_sub_func_uint64_t_u_u>
    80d6:	be fb ff ff ff       	mov    $0xfffffffb,%esi
    80db:	89 c7                	mov    %eax,%edi
    80dd:	e8 1d e6 ff ff       	callq  66ff <safe_div_func_int32_t_s_s>
    80e2:	48 8b 05 4f f8 00 00 	mov    0xf84f(%rip),%rax        # 17938 <g_556>
    80e9:	0f b6 00             	movzbl (%rax),%eax
    80ec:	3c aa                	cmp    $0xaa,%al
    80ee:	0f 97 c2             	seta   %dl
    80f1:	48 8b 05 a0 f8 00 00 	mov    0xf8a0(%rip),%rax        # 17998 <g_634>
    80f8:	48 8b 00             	mov    (%rax),%rax
    80fb:	88 10                	mov    %dl,(%rax)
    80fd:	0f b6 00             	movzbl (%rax),%eax
    8100:	84 c0                	test   %al,%al
    8102:	74 07                	je     810b <func_1+0x956>
    8104:	b8 01 00 00 00       	mov    $0x1,%eax
    8109:	eb 05                	jmp    8110 <func_1+0x95b>
    810b:	b8 00 00 00 00       	mov    $0x0,%eax
    8110:	0f b7 c0             	movzwl %ax,%eax
    8113:	89 de                	mov    %ebx,%esi
    8115:	89 c7                	mov    %eax,%edi
    8117:	e8 03 ec ff ff       	callq  6d1f <safe_sub_func_uint16_t_u_u>
    811c:	0f b7 d0             	movzwl %ax,%edx
    811f:	48 8d 05 86 e1 00 00 	lea    0xe186(%rip),%rax        # 162ac <g_2023+0x4c>
    8126:	8b 00                	mov    (%rax),%eax
    8128:	39 c2                	cmp    %eax,%edx
    812a:	0f 94 c2             	sete   %dl
    812d:	48 8b 05 04 f8 00 00 	mov    0xf804(%rip),%rax        # 17938 <g_556>
    8134:	88 10                	mov    %dl,(%rax)
    8136:	0f b6 00             	movzbl (%rax),%eax
    8139:	0f b6 c0             	movzbl %al,%eax
    813c:	48 0b 85 88 f1 ff ff 	or     -0xe78(%rbp),%rax
    8143:	48 89 c2             	mov    %rax,%rdx
    8146:	48 8b 05 3b f9 00 00 	mov    0xf93b(%rip),%rax        # 17a88 <g_1216>
    814d:	48 8b 00             	mov    (%rax),%rax
    8150:	48 8b 00             	mov    (%rax),%rax
    8153:	0f b7 00             	movzwl (%rax),%eax
    8156:	0f b7 c0             	movzwl %ax,%eax
    8159:	48 39 c2             	cmp    %rax,%rdx
    815c:	0f 92 c0             	setb   %al
    815f:	0f b6 d0             	movzbl %al,%edx
    8162:	48 8b 05 0f fa 00 00 	mov    0xfa0f(%rip),%rax        # 17b78 <g_2294>
    8169:	48 8b 08             	mov    (%rax),%rcx
    816c:	48 8b 05 ad ff 00 00 	mov    0xffad(%rip),%rax        # 18120 <g_2726>
    8173:	48 8b 00             	mov    (%rax),%rax
    8176:	48 8b 00             	mov    (%rax),%rax
    8179:	48 39 c1             	cmp    %rax,%rcx
    817c:	0f 93 c0             	setae  %al
    817f:	0f b6 c0             	movzbl %al,%eax
    8182:	89 d6                	mov    %edx,%esi
    8184:	89 c7                	mov    %eax,%edi
    8186:	e8 b2 eb ff ff       	callq  6d3d <safe_mul_func_uint16_t_u_u>
    818b:	f7 d0                	not    %eax
    818d:	0f be c0             	movsbl %al,%eax
    8190:	be d5 ff ff ff       	mov    $0xffffffd5,%esi
    8195:	89 c7                	mov    %eax,%edi
    8197:	e8 56 e0 ff ff       	callq  61f2 <safe_sub_func_int8_t_s_s>
    819c:	0f b6 85 dd f0 ff ff 	movzbl -0xf23(%rbp),%eax
    81a3:	48 8b 95 b0 f1 ff ff 	mov    -0xe50(%rbp),%rdx
    81aa:	09 d0                	or     %edx,%eax
    81ac:	89 c2                	mov    %eax,%edx
    81ae:	48 8b 85 58 f1 ff ff 	mov    -0xea8(%rbp),%rax
    81b5:	66 89 10             	mov    %dx,(%rax)
    81b8:	48 8b 85 58 f1 ff ff 	mov    -0xea8(%rbp),%rax
    81bf:	0f b7 00             	movzwl (%rax),%eax
    81c2:	98                   	cwtl   
    81c3:	23 85 04 f1 ff ff    	and    -0xefc(%rbp),%eax
    81c9:	89 c2                	mov    %eax,%edx
    81cb:	48 8b 05 3e ff 00 00 	mov    0xff3e(%rip),%rax        # 18110 <g_2718>
    81d2:	89 10                	mov    %edx,(%rax)
    81d4:	48 c7 05 f1 de 00 00 	movq   $0x0,0xdef1(%rip)        # 160d0 <g_202>
    81db:	00 00 00 00 
    81df:	e9 82 01 00 00       	jmpq   8366 <func_1+0xbb1>
    81e4:	48 c7 85 50 f1 ff ff 	movq   $0xfffffffffffffffe,-0xeb0(%rbp)
    81eb:	fe ff ff ff 
    81ef:	8b 95 08 f1 ff ff    	mov    -0xef8(%rbp),%edx
    81f5:	48 8b 85 80 f1 ff ff 	mov    -0xe80(%rbp),%rax
    81fc:	89 10                	mov    %edx,(%rax)
    81fe:	83 bd f4 f0 ff ff 00 	cmpl   $0x0,-0xf0c(%rbp)
    8205:	0f 85 48 01 00 00    	jne    8353 <func_1+0xb9e>
    820b:	48 8b 85 80 f1 ff ff 	mov    -0xe80(%rbp),%rax
    8212:	8b 00                	mov    (%rax),%eax
    8214:	48 98                	cltq   
    8216:	48 89 85 50 f1 ff ff 	mov    %rax,-0xeb0(%rbp)
    821d:	8b 85 08 f1 ff ff    	mov    -0xef8(%rbp),%eax
    8223:	0f bf d8             	movswl %ax,%ebx
    8226:	48 8b 05 63 f9 00 00 	mov    0xf963(%rip),%rax        # 17b90 <g_2435>
    822d:	48 c7 c6 ff ff ff ff 	mov    $0xffffffffffffffff,%rsi
    8234:	48 bf 95 4d 11 30 c8 	movabs $0x31865fc830114d95,%rdi
    823b:	5f 86 31 
    823e:	e8 6c ee ff ff       	callq  70af <safe_div_func_uint64_t_u_u>
    8243:	48 8b 05 16 f9 00 00 	mov    0xf916(%rip),%rax        # 17b60 <g_2019>
    824a:	8b 00                	mov    (%rax),%eax
    824c:	89 c0                	mov    %eax,%eax
    824e:	48 39 85 50 f1 ff ff 	cmp    %rax,-0xeb0(%rbp)
    8255:	48 8b 05 bc fe 00 00 	mov    0xfebc(%rip),%rax        # 18118 <g_2727>
    825c:	48 8b 00             	mov    (%rax),%rax
    825f:	48 83 f8 01          	cmp    $0x1,%rax
    8263:	48 8b 85 60 f1 ff ff 	mov    -0xea0(%rbp),%rax
    826a:	48 3b 85 90 f1 ff ff 	cmp    -0xe70(%rbp),%rax
    8271:	0f 94 c0             	sete   %al
    8274:	89 c1                	mov    %eax,%ecx
    8276:	8b 85 f8 f0 ff ff    	mov    -0xf08(%rbp),%eax
    827c:	89 c2                	mov    %eax,%edx
    827e:	48 8b 05 13 f7 00 00 	mov    0xf713(%rip),%rax        # 17998 <g_634>
    8285:	48 8b 00             	mov    (%rax),%rax
    8288:	31 ca                	xor    %ecx,%edx
    828a:	88 10                	mov    %dl,(%rax)
    828c:	0f b6 00             	movzbl (%rax),%eax
    828f:	0f be d0             	movsbl %al,%edx
    8292:	48 8d 05 97 df 00 00 	lea    0xdf97(%rip),%rax        # 16230 <g_1501>
    8299:	0f b6 00             	movzbl (%rax),%eax
    829c:	0f b6 c0             	movzbl %al,%eax
    829f:	39 c2                	cmp    %eax,%edx
    82a1:	0f 9c c0             	setl   %al
    82a4:	0f b6 d0             	movzbl %al,%edx
    82a7:	0f b6 85 dd f0 ff ff 	movzbl -0xf23(%rbp),%eax
    82ae:	39 c2                	cmp    %eax,%edx
    82b0:	0f 94 c0             	sete   %al
    82b3:	0f b6 d0             	movzbl %al,%edx
    82b6:	48 8b 05 7b f6 00 00 	mov    0xf67b(%rip),%rax        # 17938 <g_556>
    82bd:	0f b6 00             	movzbl (%rax),%eax
    82c0:	0f b6 c0             	movzbl %al,%eax
    82c3:	39 c2                	cmp    %eax,%edx
    82c5:	0f 9e c0             	setle  %al
    82c8:	0f b6 c0             	movzbl %al,%eax
    82cb:	48 39 85 b0 f1 ff ff 	cmp    %rax,-0xe50(%rbp)
    82d2:	0f 92 c0             	setb   %al
    82d5:	0f b6 c0             	movzbl %al,%eax
    82d8:	be ff 00 00 00       	mov    $0xff,%esi
    82dd:	89 c7                	mov    %eax,%edi
    82df:	e8 ca e8 ff ff       	callq  6bae <safe_mod_func_uint8_t_u_u>
    82e4:	ba 00 00 00 00       	mov    $0x0,%edx
    82e9:	48 8b 85 58 f1 ff ff 	mov    -0xea8(%rbp),%rax
    82f0:	0f b7 00             	movzwl (%rax),%eax
    82f3:	31 c2                	xor    %eax,%edx
    82f5:	48 8b 85 58 f1 ff ff 	mov    -0xea8(%rbp),%rax
    82fc:	66 89 10             	mov    %dx,(%rax)
    82ff:	48 8b 85 58 f1 ff ff 	mov    -0xea8(%rbp),%rax
    8306:	0f b7 00             	movzwl (%rax),%eax
    8309:	0f bf d0             	movswl %ax,%edx
    830c:	48 8b 05 6d f7 00 00 	mov    0xf76d(%rip),%rax        # 17a80 <g_1217>
    8313:	48 8b 00             	mov    (%rax),%rax
    8316:	0f b7 00             	movzwl (%rax),%eax
    8319:	0f b7 c0             	movzwl %ax,%eax
    831c:	39 c2                	cmp    %eax,%edx
    831e:	0f 95 c0             	setne  %al
    8321:	0f b6 c0             	movzbl %al,%eax
    8324:	89 de                	mov    %ebx,%esi
    8326:	89 c7                	mov    %eax,%edi
    8328:	e8 28 e1 ff ff       	callq  6455 <safe_div_func_int16_t_s_s>
    832d:	98                   	cwtl   
    832e:	23 85 f8 f0 ff ff    	and    -0xf08(%rbp),%eax
    8334:	83 f8 08             	cmp    $0x8,%eax
    8337:	0f 9e c0             	setle  %al
    833a:	0f b6 d0             	movzbl %al,%edx
    833d:	48 8b 85 80 f1 ff ff 	mov    -0xe80(%rbp),%rax
    8344:	8b 00                	mov    (%rax),%eax
    8346:	21 c2                	and    %eax,%edx
    8348:	48 8b 85 80 f1 ff ff 	mov    -0xe80(%rbp),%rax
    834f:	89 10                	mov    %edx,(%rax)
    8351:	eb 01                	jmp    8354 <func_1+0xb9f>
    8353:	90                   	nop
    8354:	48 8b 05 75 dd 00 00 	mov    0xdd75(%rip),%rax        # 160d0 <g_202>
    835b:	48 83 c0 01          	add    $0x1,%rax
    835f:	48 89 05 6a dd 00 00 	mov    %rax,0xdd6a(%rip)        # 160d0 <g_202>
    8366:	48 8b 05 63 dd 00 00 	mov    0xdd63(%rip),%rax        # 160d0 <g_202>
    836d:	48 83 f8 03          	cmp    $0x3,%rax
    8371:	0f 8e 6d fe ff ff    	jle    81e4 <func_1+0xa2f>
    8377:	83 85 f0 f0 ff ff 01 	addl   $0x1,-0xf10(%rbp)
    837e:	83 bd f0 f0 ff ff 03 	cmpl   $0x3,-0xf10(%rbp)
    8385:	0f 8e f9 fb ff ff    	jle    7f84 <func_1+0x7cf>
    838b:	c6 05 92 dc 00 00 00 	movb   $0x0,0xdc92(%rip)        # 16024 <g_2>
    8392:	90                   	nop
    8393:	0f b6 05 8a dc 00 00 	movzbl 0xdc8a(%rip),%eax        # 16024 <g_2>
    839a:	3c 09                	cmp    $0x9,%al
    839c:	0f 87 0f 01 00 00    	ja     84b1 <func_1+0xcfc>
    83a2:	c7 85 fc f0 ff ff 00 	movl   $0x0,-0xf04(%rbp)
    83a9:	00 00 00 
    83ac:	c6 05 27 dd 00 00 01 	movb   $0x1,0xdd27(%rip)        # 160da <g_217>
    83b3:	90                   	nop
    83b4:	0f b6 05 1f dd 00 00 	movzbl 0xdd1f(%rip),%eax        # 160da <g_217>
    83bb:	84 c0                	test   %al,%al
    83bd:	78 22                	js     83e1 <func_1+0xc2c>
    83bf:	48 8b 05 fa de 00 00 	mov    0xdefa(%rip),%rax        # 162c0 <g_2432>
    83c6:	48 83 c0 03          	add    $0x3,%rax
    83ca:	48 8d 14 85 00 00 00 	lea    0x0(,%rax,4),%rdx
    83d1:	00 
    83d2:	48 8d 05 67 dc 00 00 	lea    0xdc67(%rip),%rax        # 16040 <g_41>
    83d9:	8b 04 02             	mov    (%rdx,%rax,1),%eax
    83dc:	e9 1b 04 00 00       	jmpq   87fc <func_1+0x1047>
    83e1:	c7 05 cd de 00 00 07 	movl   $0x7,0xdecd(%rip)        # 162b8 <g_2225>
    83e8:	00 00 00 
    83eb:	e9 91 00 00 00       	jmpq   8481 <func_1+0xccc>
    83f0:	48 8d 05 d1 de 00 00 	lea    0xded1(%rip),%rax        # 162c8 <g_2460>
    83f7:	48 89 85 68 f1 ff ff 	mov    %rax,-0xe98(%rbp)
    83fe:	48 8d 05 3f dd 00 00 	lea    0xdd3f(%rip),%rax        # 16144 <g_780>
    8405:	48 89 85 70 f1 ff ff 	mov    %rax,-0xe90(%rbp)
    840c:	48 8d 85 20 f4 ff ff 	lea    -0xbe0(%rbp),%rax
    8413:	48 8d 15 06 df 00 00 	lea    0xdf06(%rip),%rdx        # 16320 <g_3059+0x8>
    841a:	b9 23 00 00 00       	mov    $0x23,%ecx
    841f:	48 89 c7             	mov    %rax,%rdi
    8422:	48 89 d6             	mov    %rdx,%rsi
    8425:	f3 48 a5             	rep movsq %ds:(%rsi),%es:(%rdi)
    8428:	48 8b 05 c9 f5 00 00 	mov    0xf5c9(%rip),%rax        # 179f8 <g_793>
    842f:	48 8b 00             	mov    (%rax),%rax
    8432:	48 c7 00 00 00 00 00 	movq   $0x0,(%rax)
    8439:	8b 15 79 de 00 00    	mov    0xde79(%rip),%edx        # 162b8 <g_2225>
    843f:	48 8b 05 e2 fc 00 00 	mov    0xfce2(%rip),%rax        # 18128 <g_2767>
    8446:	48 63 d2             	movslq %edx,%rdx
    8449:	48 8d 0c 95 00 00 00 	lea    0x0(,%rdx,4),%rcx
    8450:	00 
    8451:	48 8d 15 e8 db 00 00 	lea    0xdbe8(%rip),%rdx        # 16040 <g_41>
    8458:	48 01 ca             	add    %rcx,%rdx
    845b:	48 89 10             	mov    %rdx,(%rax)
    845e:	83 85 fc f0 ff ff 01 	addl   $0x1,-0xf04(%rbp)
    8465:	48 8b 85 68 f1 ff ff 	mov    -0xe98(%rbp),%rax
    846c:	c7 00 34 07 25 c0    	movl   $0xc0250734,(%rax)
    8472:	8b 05 40 de 00 00    	mov    0xde40(%rip),%eax        # 162b8 <g_2225>
    8478:	83 e8 01             	sub    $0x1,%eax
    847b:	89 05 37 de 00 00    	mov    %eax,0xde37(%rip)        # 162b8 <g_2225>
    8481:	8b 05 31 de 00 00    	mov    0xde31(%rip),%eax        # 162b8 <g_2225>
    8487:	85 c0                	test   %eax,%eax
    8489:	0f 8f 61 ff ff ff    	jg     83f0 <func_1+0xc3b>
    848f:	48 8b 05 2a de 00 00 	mov    0xde2a(%rip),%rax        # 162c0 <g_2432>
    8496:	48 83 c0 02          	add    $0x2,%rax
    849a:	48 8d 14 85 00 00 00 	lea    0x0(,%rax,4),%rdx
    84a1:	00 
    84a2:	48 8d 05 97 db 00 00 	lea    0xdb97(%rip),%rax        # 16040 <g_41>
    84a9:	8b 04 02             	mov    (%rdx,%rax,1),%eax
    84ac:	e9 4b 03 00 00       	jmpq   87fc <func_1+0x1047>
    84b1:	8b 85 e4 f0 ff ff    	mov    -0xf1c(%rbp),%eax
    84b7:	0f b7 d8             	movzwl %ax,%ebx
    84ba:	48 8b 05 bf f5 00 00 	mov    0xf5bf(%rip),%rax        # 17a80 <g_1217>
    84c1:	48 8b 00             	mov    (%rax),%rax
    84c4:	0f b7 00             	movzwl (%rax),%eax
    84c7:	44 0f b7 e0          	movzwl %ax,%r12d
    84cb:	48 8b 05 3e f6 00 00 	mov    0xf63e(%rip),%rax        # 17b10 <g_1499>
    84d2:	48 8b 00             	mov    (%rax),%rax
    84d5:	0f b6 00             	movzbl (%rax),%eax
    84d8:	44 0f b6 e8          	movzbl %al,%r13d
    84dc:	48 8b 85 88 fa ff ff 	mov    -0x578(%rbp),%rax
    84e3:	89 c2                	mov    %eax,%edx
    84e5:	48 8b 85 a8 f1 ff ff 	mov    -0xe58(%rbp),%rax
    84ec:	89 c1                	mov    %eax,%ecx
    84ee:	48 8b 85 98 f1 ff ff 	mov    -0xe68(%rbp),%rax
    84f5:	66 89 08             	mov    %cx,(%rax)
    84f8:	89 d6                	mov    %edx,%esi
    84fa:	bf 01 00 00 00       	mov    $0x1,%edi
    84ff:	e8 76 e9 ff ff       	callq  6e7a <safe_rshift_func_uint16_t_u_u>
    8504:	0f b7 d0             	movzwl %ax,%edx
    8507:	0f b6 05 2e dc 00 00 	movzbl 0xdc2e(%rip),%eax        # 1613c <g_608>
    850e:	0f be c0             	movsbl %al,%eax
    8511:	39 c2                	cmp    %eax,%edx
    8513:	0f 9d c0             	setge  %al
    8516:	89 c2                	mov    %eax,%edx
    8518:	8b 85 e4 f0 ff ff    	mov    -0xf1c(%rbp),%eax
    851e:	31 d0                	xor    %edx,%eax
    8520:	0f b6 c0             	movzbl %al,%eax
    8523:	44 89 ee             	mov    %r13d,%esi
    8526:	89 c7                	mov    %eax,%edi
    8528:	e8 91 e7 ff ff       	callq  6cbe <safe_rshift_func_uint8_t_u_u>
    852d:	84 c0                	test   %al,%al
    852f:	74 11                	je     8542 <func_1+0xd8d>
    8531:	83 bd f0 f0 ff ff 00 	cmpl   $0x0,-0xf10(%rbp)
    8538:	74 08                	je     8542 <func_1+0xd8d>
    853a:	41 bd 01 00 00 00    	mov    $0x1,%r13d
    8540:	eb 06                	jmp    8548 <func_1+0xd93>
    8542:	41 bd 00 00 00 00    	mov    $0x0,%r13d
    8548:	48 8b 85 88 fa ff ff 	mov    -0x578(%rbp),%rax
    854f:	49 89 c6             	mov    %rax,%r14
    8552:	48 8b 85 80 f1 ff ff 	mov    -0xe80(%rbp),%rax
    8559:	8b 00                	mov    (%rax),%eax
    855b:	0f b7 c0             	movzwl %ax,%eax
    855e:	89 c6                	mov    %eax,%esi
    8560:	bf c6 1f 00 00       	mov    $0x1fc6,%edi
    8565:	e8 f2 e7 ff ff       	callq  6d5c <safe_mod_func_uint16_t_u_u>
    856a:	0f b7 c0             	movzwl %ax,%eax
    856d:	89 c6                	mov    %eax,%esi
    856f:	bf 66 00 00 00       	mov    $0x66,%edi
    8574:	e8 8c e6 ff ff       	callq  6c05 <safe_lshift_func_uint8_t_u_s>
    8579:	0f b6 c0             	movzbl %al,%eax
    857c:	4c 89 f6             	mov    %r14,%rsi
    857f:	48 89 c7             	mov    %rax,%rdi
    8582:	e8 2d e4 ff ff       	callq  69b4 <safe_mod_func_int64_t_s_s>
    8587:	8b 95 28 f2 ff ff    	mov    -0xdd8(%rbp),%edx
    858d:	31 d0                	xor    %edx,%eax
    858f:	89 85 28 f2 ff ff    	mov    %eax,-0xdd8(%rbp)
    8595:	48 8b 85 a0 f1 ff ff 	mov    -0xe60(%rbp),%rax
    859c:	48 c7 00 00 00 00 00 	movq   $0x0,(%rax)
    85a3:	48 8b 85 a0 f1 ff ff 	mov    -0xe60(%rbp),%rax
    85aa:	48 8b 00             	mov    (%rax),%rax
    85ad:	48 39 85 98 f1 ff ff 	cmp    %rax,-0xe68(%rbp)
    85b4:	0f 94 c0             	sete   %al
    85b7:	0f b6 c0             	movzbl %al,%eax
    85ba:	89 85 ec f1 ff ff    	mov    %eax,-0xe14(%rbp)
    85c0:	8b 85 ec f1 ff ff    	mov    -0xe14(%rbp),%eax
    85c6:	0f be c0             	movsbl %al,%eax
    85c9:	be 00 00 00 00       	mov    $0x0,%esi
    85ce:	89 c7                	mov    %eax,%edi
    85d0:	e8 cc dc ff ff       	callq  62a1 <safe_lshift_func_int8_t_s_s>
    85d5:	0f be c0             	movsbl %al,%eax
    85d8:	44 89 ee             	mov    %r13d,%esi
    85db:	89 c7                	mov    %eax,%edi
    85dd:	e8 d4 df ff ff       	callq  65b6 <safe_add_func_int32_t_s_s>
    85e2:	0f b7 c0             	movzwl %ax,%eax
    85e5:	44 89 e6             	mov    %r12d,%esi
    85e8:	89 c7                	mov    %eax,%edi
    85ea:	e8 17 e8 ff ff       	callq  6e06 <safe_lshift_func_uint16_t_u_u>
    85ef:	0f b7 d0             	movzwl %ax,%edx
    85f2:	48 8b 85 80 f1 ff ff 	mov    -0xe80(%rbp),%rax
    85f9:	8b 00                	mov    (%rax),%eax
    85fb:	39 c2                	cmp    %eax,%edx
    85fd:	0f 9d c0             	setge  %al
    8600:	0f b6 c0             	movzbl %al,%eax
    8603:	23 85 08 f1 ff ff    	and    -0xef8(%rbp),%eax
    8609:	85 c0                	test   %eax,%eax
    860b:	74 1d                	je     862a <func_1+0xe75>
    860d:	83 bd e4 f0 ff ff 00 	cmpl   $0x0,-0xf1c(%rbp)
    8614:	74 14                	je     862a <func_1+0xe75>
    8616:	48 8b 85 80 f1 ff ff 	mov    -0xe80(%rbp),%rax
    861d:	8b 00                	mov    (%rax),%eax
    861f:	85 c0                	test   %eax,%eax
    8621:	74 07                	je     862a <func_1+0xe75>
    8623:	b8 01 00 00 00       	mov    $0x1,%eax
    8628:	eb 05                	jmp    862f <func_1+0xe7a>
    862a:	b8 00 00 00 00       	mov    $0x0,%eax
    862f:	0f b7 c0             	movzwl %ax,%eax
    8632:	89 de                	mov    %ebx,%esi
    8634:	89 c7                	mov    %eax,%edi
    8636:	e8 21 e7 ff ff       	callq  6d5c <safe_mod_func_uint16_t_u_u>
    863b:	0f b7 d0             	movzwl %ax,%edx
    863e:	48 8b 85 80 f1 ff ff 	mov    -0xe80(%rbp),%rax
    8645:	8b 00                	mov    (%rax),%eax
    8647:	39 c2                	cmp    %eax,%edx
    8649:	0f 9e c0             	setle  %al
    864c:	0f b6 c0             	movzbl %al,%eax
    864f:	89 c7                	mov    %eax,%edi
    8651:	e8 50 e8 ff ff       	callq  6ea6 <safe_unary_minus_func_uint32_t_u>
    8656:	48 8b 15 23 f4 00 00 	mov    0xf423(%rip),%rdx        # 17a80 <g_1217>
    865d:	48 8b 12             	mov    (%rdx),%rdx
    8660:	0f b7 12             	movzwl (%rdx),%edx
    8663:	0f b7 d2             	movzwl %dx,%edx
    8666:	21 d0                	and    %edx,%eax
    8668:	85 c0                	test   %eax,%eax
    866a:	74 11                	je     867d <func_1+0xec8>
    866c:	8b 85 ec f1 ff ff    	mov    -0xe14(%rbp),%eax
    8672:	85 c0                	test   %eax,%eax
    8674:	74 07                	je     867d <func_1+0xec8>
    8676:	ba 01 00 00 00       	mov    $0x1,%edx
    867b:	eb 05                	jmp    8682 <func_1+0xecd>
    867d:	ba 00 00 00 00       	mov    $0x0,%edx
    8682:	48 8b 85 80 f1 ff ff 	mov    -0xe80(%rbp),%rax
    8689:	89 10                	mov    %edx,(%rax)
    868b:	48 8d 05 9e db 00 00 	lea    0xdb9e(%rip),%rax        # 16230 <g_1501>
    8692:	0f b6 00             	movzbl (%rax),%eax
    8695:	e9 62 01 00 00       	jmpq   87fc <func_1+0x1047>
    869a:	48 81 a5 b8 f1 ff ff 	andq   $0x65881497,-0xe48(%rbp)
    86a1:	97 14 88 65 
    86a5:	48 8b 05 64 fa 00 00 	mov    0xfa64(%rip),%rax        # 18110 <g_2718>
    86ac:	8b 00                	mov    (%rax),%eax
    86ae:	09 85 00 f1 ff ff    	or     %eax,-0xf00(%rbp)
    86b4:	48 8b 85 90 f2 ff ff 	mov    -0xd70(%rbp),%rax
    86bb:	48 83 e8 01          	sub    $0x1,%rax
    86bf:	48 89 85 90 f2 ff ff 	mov    %rax,-0xd70(%rbp)
    86c6:	48 8b 05 43 f4 00 00 	mov    0xf443(%rip),%rax        # 17b10 <g_1499>
    86cd:	48 8b 00             	mov    (%rax),%rax
    86d0:	0f b6 00             	movzbl (%rax),%eax
    86d3:	0f b6 d8             	movzbl %al,%ebx
    86d6:	48 8b 85 50 f2 ff ff 	mov    -0xdb0(%rbp),%rax
    86dd:	48 85 c0             	test   %rax,%rax
    86e0:	48 8b 05 31 fa 00 00 	mov    0xfa31(%rip),%rax        # 18118 <g_2727>
    86e7:	48 8b 00             	mov    (%rax),%rax
    86ea:	48 85 c0             	test   %rax,%rax
    86ed:	0f 95 c2             	setne  %dl
    86f0:	48 8b 05 a1 f2 00 00 	mov    0xf2a1(%rip),%rax        # 17998 <g_634>
    86f7:	48 8b 00             	mov    (%rax),%rax
    86fa:	88 10                	mov    %dl,(%rax)
    86fc:	0f b6 10             	movzbl (%rax),%edx
    86ff:	0f b6 85 dc f0 ff ff 	movzbl -0xf24(%rbp),%eax
    8706:	09 d0                	or     %edx,%eax
    8708:	48 0f be d0          	movsbq %al,%rdx
    870c:	48 8b 05 05 fa 00 00 	mov    0xfa05(%rip),%rax        # 18118 <g_2727>
    8713:	48 8b 00             	mov    (%rax),%rax
    8716:	48 21 d0             	and    %rdx,%rax
    8719:	48 89 85 78 f5 ff ff 	mov    %rax,-0xa88(%rbp)
    8720:	48 8b 85 78 f5 ff ff 	mov    -0xa88(%rbp),%rax
    8727:	48 85 c0             	test   %rax,%rax
    872a:	74 07                	je     8733 <func_1+0xf7e>
    872c:	b8 01 00 00 00       	mov    $0x1,%eax
    8731:	eb 05                	jmp    8738 <func_1+0xf83>
    8733:	b8 00 00 00 00       	mov    $0x0,%eax
    8738:	0f b6 c0             	movzbl %al,%eax
    873b:	be 02 00 00 00       	mov    $0x2,%esi
    8740:	89 c7                	mov    %eax,%edi
    8742:	e8 46 e5 ff ff       	callq  6c8d <safe_rshift_func_uint8_t_u_s>
    8747:	89 c2                	mov    %eax,%edx
    8749:	48 8b 85 c0 f1 ff ff 	mov    -0xe40(%rbp),%rax
    8750:	88 10                	mov    %dl,(%rax)
    8752:	48 8b 85 c0 f1 ff ff 	mov    -0xe40(%rbp),%rax
    8759:	0f b6 00             	movzbl (%rax),%eax
    875c:	0f be c0             	movsbl %al,%eax
    875f:	be 00 00 00 00       	mov    $0x0,%esi
    8764:	89 c7                	mov    %eax,%edi
    8766:	e8 ca db ff ff       	callq  6335 <safe_rshift_func_int8_t_s_s>
    876b:	48 8b 95 c8 f1 ff ff 	mov    -0xe38(%rbp),%rdx
    8772:	88 02                	mov    %al,(%rdx)
    8774:	48 ba 23 8b 18 f5 05 	movabs $0xdbf02605f5188b23,%rdx
    877b:	26 f0 db 
    877e:	48 8b 05 43 d9 00 00 	mov    0xd943(%rip),%rax        # 160c8 <g_189+0x8>
    8785:	48 21 d0             	and    %rdx,%rax
    8788:	48 89 05 39 d9 00 00 	mov    %rax,0xd939(%rip)        # 160c8 <g_189+0x8>
    878f:	48 8d 05 9a da 00 00 	lea    0xda9a(%rip),%rax        # 16230 <g_1501>
    8796:	0f b6 00             	movzbl (%rax),%eax
    8799:	0f b6 c0             	movzbl %al,%eax
    879c:	89 de                	mov    %ebx,%esi
    879e:	89 c7                	mov    %eax,%edi
    87a0:	e8 09 e4 ff ff       	callq  6bae <safe_mod_func_uint8_t_u_u>
    87a5:	48 8d 15 84 da 00 00 	lea    0xda84(%rip),%rdx        # 16230 <g_1501>
    87ac:	0f b6 12             	movzbl (%rdx),%edx
    87af:	38 d0                	cmp    %dl,%al
    87b1:	0f 93 c0             	setae  %al
    87b4:	0f b6 d8             	movzbl %al,%ebx
    87b7:	be 07 00 00 00       	mov    $0x7,%esi
    87bc:	bf 01 00 00 00       	mov    $0x1,%edi
    87c1:	e8 28 db ff ff       	callq  62ee <safe_lshift_func_int8_t_s_u>
    87c6:	0f be c0             	movsbl %al,%eax
    87c9:	f7 d0                	not    %eax
    87cb:	89 c6                	mov    %eax,%esi
    87cd:	48 8b 05 3c f9 00 00 	mov    0xf93c(%rip),%rax        # 18110 <g_2718>
    87d4:	8b 00                	mov    (%rax),%eax
    87d6:	4c 8b 25 13 f2 00 00 	mov    0xf213(%rip),%r12        # 179f0 <g_794>
    87dd:	48 8d 95 ec f1 ff ff 	lea    -0xe14(%rbp),%rdx
    87e4:	48 89 d9             	mov    %rbx,%rcx
    87e7:	89 c7                	mov    %eax,%edi
    87e9:	e8 26 18 00 00       	callq  a014 <func_16>
    87ee:	49 89 04 24          	mov    %rax,(%r12)
    87f2:	48 8d 05 37 da 00 00 	lea    0xda37(%rip),%rax        # 16230 <g_1501>
    87f9:	0f b6 00             	movzbl (%rax),%eax
    87fc:	48 8b 5d c8          	mov    -0x38(%rbp),%rbx
    8800:	64 48 33 1c 25 28 00 	xor    %fs:0x28,%rbx
    8807:	00 00 
    8809:	74 05                	je     8810 <func_1+0x105b>
    880b:	e8 60 d8 ff ff       	callq  6070 <__stack_chk_fail@plt>
    8810:	48 81 c4 08 0f 00 00 	add    $0xf08,%rsp
    8817:	5b                   	pop    %rbx
    8818:	41 5c                	pop    %r12
    881a:	41 5d                	pop    %r13
    881c:	41 5e                	pop    %r14
    881e:	41 5f                	pop    %r15
    8820:	5d                   	pop    %rbp
    8821:	c3                   	retq   

0000000000008822 <func_3>:
    8822:	f3 0f 1e fa          	endbr64 
    8826:	55                   	push   %rbp
    8827:	48 89 e5             	mov    %rsp,%rbp
    882a:	48 81 ec 90 0a 00 00 	sub    $0xa90,%rsp
    8831:	89 bd 7c f5 ff ff    	mov    %edi,-0xa84(%rbp)
    8837:	89 f0                	mov    %esi,%eax
    8839:	89 95 74 f5 ff ff    	mov    %edx,-0xa8c(%rbp)
    883f:	89 ca                	mov    %ecx,%edx
    8841:	66 89 85 78 f5 ff ff 	mov    %ax,-0xa88(%rbp)
    8848:	89 d0                	mov    %edx,%eax
    884a:	88 85 70 f5 ff ff    	mov    %al,-0xa90(%rbp)
    8850:	64 48 8b 04 25 28 00 	mov    %fs:0x28,%rax
    8857:	00 00 
    8859:	48 89 45 f8          	mov    %rax,-0x8(%rbp)
    885d:	31 c0                	xor    %eax,%eax
    885f:	c7 85 94 f5 ff ff 00 	movl   $0x0,-0xa6c(%rbp)
    8866:	00 00 00 
    8869:	48 8d 05 78 f1 00 00 	lea    0xf178(%rip),%rax        # 179e8 <g_758>
    8870:	48 89 85 d8 f5 ff ff 	mov    %rax,-0xa28(%rbp)
    8877:	c7 85 98 f5 ff ff 3c 	movl   $0xd785583c,-0xa68(%rbp)
    887e:	58 85 d7 
    8881:	48 8d 05 48 d8 00 00 	lea    0xd848(%rip),%rax        # 160d0 <g_202>
    8888:	48 89 85 e0 f5 ff ff 	mov    %rax,-0xa20(%rbp)
    888f:	48 8d 05 f2 87 00 00 	lea    0x87f2(%rip),%rax        # 11088 <g_821+0x28>
    8896:	48 89 85 e8 f5 ff ff 	mov    %rax,-0xa18(%rbp)
    889d:	48 8d 05 f4 f1 00 00 	lea    0xf1f4(%rip),%rax        # 17a98 <g_1465>
    88a4:	48 89 85 f0 f5 ff ff 	mov    %rax,-0xa10(%rbp)
    88ab:	c7 85 9c f5 ff ff 00 	movl   $0x0,-0xa64(%rbp)
    88b2:	00 00 00 
    88b5:	c7 85 a0 f5 ff ff 76 	movl   $0x4fb7d476,-0xa60(%rbp)
    88bc:	d4 b7 4f 
    88bf:	c7 85 a4 f5 ff ff d4 	movl   $0x872a60d4,-0xa5c(%rbp)
    88c6:	60 2a 87 
    88c9:	c7 85 a8 f5 ff ff ff 	movl   $0xffffffff,-0xa58(%rbp)
    88d0:	ff ff ff 
    88d3:	48 8d 05 8e fc 00 00 	lea    0xfc8e(%rip),%rax        # 18568 <g_42>
    88da:	48 89 85 f8 f5 ff ff 	mov    %rax,-0xa08(%rbp)
    88e1:	48 8d 05 18 f1 00 00 	lea    0xf118(%rip),%rax        # 17a00 <g_855>
    88e8:	48 89 85 00 f6 ff ff 	mov    %rax,-0xa00(%rbp)
    88ef:	48 c7 85 08 f6 ff ff 	movq   $0x0,-0x9f8(%rbp)
    88f6:	00 00 00 00 
    88fa:	48 c7 85 10 f6 ff ff 	movq   $0xfffffffffffffffd,-0x9f0(%rbp)
    8901:	fd ff ff ff 
    8905:	c7 85 ac f5 ff ff 00 	movl   $0x0,-0xa54(%rbp)
    890c:	00 00 00 
    890f:	48 8d 05 82 f0 00 00 	lea    0xf082(%rip),%rax        # 17998 <g_634>
    8916:	48 89 85 18 f6 ff ff 	mov    %rax,-0x9e8(%rbp)
    891d:	c6 85 84 f5 ff ff 4c 	movb   $0x4c,-0xa7c(%rbp)
    8924:	c7 85 8c f5 ff ff 00 	movl   $0x0,-0xa74(%rbp)
    892b:	00 00 00 
    892e:	eb 1e                	jmp    894e <func_3+0x12c>
    8930:	8b 85 8c f5 ff ff    	mov    -0xa74(%rbp),%eax
    8936:	48 98                	cltq   
    8938:	48 8d 15 79 d9 00 00 	lea    0xd979(%rip),%rdx        # 162b8 <g_2225>
    893f:	48 89 94 c5 68 f6 ff 	mov    %rdx,-0x998(%rbp,%rax,8)
    8946:	ff 
    8947:	83 85 8c f5 ff ff 01 	addl   $0x1,-0xa74(%rbp)
    894e:	83 bd 8c f5 ff ff 00 	cmpl   $0x0,-0xa74(%rbp)
    8955:	7e d9                	jle    8930 <func_3+0x10e>
    8957:	66 c7 05 da d7 00 00 	movw   $0x0,0xd7da(%rip)        # 1613a <g_493>
    895e:	00 00 
    8960:	e9 b3 10 00 00       	jmpq   9a18 <func_3+0x11f6>
    8965:	66 c7 85 86 f5 ff ff 	movw   $0x594e,-0xa7a(%rbp)
    896c:	4e 59 
    896e:	c7 85 b0 f5 ff ff 09 	movl   $0x9,-0xa50(%rbp)
    8975:	00 00 00 
    8978:	48 8d 85 f0 f7 ff ff 	lea    -0x810(%rbp),%rax
    897f:	48 8d 15 ba da 00 00 	lea    0xdaba(%rip),%rdx        # 16440 <g_3059+0x128>
    8986:	b9 28 00 00 00       	mov    $0x28,%ecx
    898b:	48 89 c7             	mov    %rax,%rdi
    898e:	48 89 d6             	mov    %rdx,%rsi
    8991:	f3 48 a5             	rep movsq %ds:(%rsi),%es:(%rdi)
    8994:	48 c7 85 20 f6 ff ff 	movq   $0x0,-0x9e0(%rbp)
    899b:	00 00 00 00 
    899f:	48 c7 85 28 f6 ff ff 	movq   $0x0,-0x9d8(%rbp)
    89a6:	00 00 00 00 
    89aa:	48 8d 05 f7 d6 00 00 	lea    0xd6f7(%rip),%rax        # 160a8 <g_152>
    89b1:	48 89 85 30 f6 ff ff 	mov    %rax,-0x9d0(%rbp)
    89b8:	48 c7 85 38 f6 ff ff 	movq   $0x0,-0x9c8(%rbp)
    89bf:	00 00 00 00 
    89c3:	48 c7 85 40 f6 ff ff 	movq   $0x0,-0x9c0(%rbp)
    89ca:	00 00 00 00 
    89ce:	48 8d 85 86 f5 ff ff 	lea    -0xa7a(%rbp),%rax
    89d5:	48 89 85 48 f6 ff ff 	mov    %rax,-0x9b8(%rbp)
    89dc:	c7 85 b4 f5 ff ff f5 	movl   $0x72d4c0f5,-0xa4c(%rbp)
    89e3:	c0 d4 72 
    89e6:	66 c7 85 88 f5 ff ff 	movw   $0xa666,-0xa78(%rbp)
    89ed:	66 a6 
    89ef:	c6 85 85 f5 ff ff dd 	movb   $0xdd,-0xa7b(%rbp)
    89f6:	c7 85 b8 f5 ff ff 35 	movl   $0x8951bb35,-0xa48(%rbp)
    89fd:	bb 51 89 
    8a00:	c7 85 bc f5 ff ff 97 	movl   $0xb1857497,-0xa44(%rbp)
    8a07:	74 85 b1 
    8a0a:	c7 85 c0 f5 ff ff d4 	movl   $0x1e07ad4,-0xa40(%rbp)
    8a11:	7a e0 01 
    8a14:	48 8d 05 d6 d6 00 00 	lea    0xd6d6(%rip),%rax        # 160f1 <g_383+0x11>
    8a1b:	48 89 85 c8 f5 ff ff 	mov    %rax,-0xa38(%rbp)
    8a22:	48 8d 85 c8 f5 ff ff 	lea    -0xa38(%rbp),%rax
    8a29:	48 89 85 30 f9 ff ff 	mov    %rax,-0x6d0(%rbp)
    8a30:	48 8d 85 c8 f5 ff ff 	lea    -0xa38(%rbp),%rax
    8a37:	48 89 85 38 f9 ff ff 	mov    %rax,-0x6c8(%rbp)
    8a3e:	48 8d 85 c8 f5 ff ff 	lea    -0xa38(%rbp),%rax
    8a45:	48 89 85 40 f9 ff ff 	mov    %rax,-0x6c0(%rbp)
    8a4c:	48 8d 85 c8 f5 ff ff 	lea    -0xa38(%rbp),%rax
    8a53:	48 89 85 48 f9 ff ff 	mov    %rax,-0x6b8(%rbp)
    8a5a:	48 8d 85 c8 f5 ff ff 	lea    -0xa38(%rbp),%rax
    8a61:	48 89 85 50 f9 ff ff 	mov    %rax,-0x6b0(%rbp)
    8a68:	48 c7 85 58 f9 ff ff 	movq   $0x0,-0x6a8(%rbp)
    8a6f:	00 00 00 00 
    8a73:	48 c7 85 60 f9 ff ff 	movq   $0x0,-0x6a0(%rbp)
    8a7a:	00 00 00 00 
    8a7e:	48 8d 85 c8 f5 ff ff 	lea    -0xa38(%rbp),%rax
    8a85:	48 89 85 68 f9 ff ff 	mov    %rax,-0x698(%rbp)
    8a8c:	48 c7 85 70 f9 ff ff 	movq   $0x0,-0x690(%rbp)
    8a93:	00 00 00 00 
    8a97:	48 8d 85 c8 f5 ff ff 	lea    -0xa38(%rbp),%rax
    8a9e:	48 89 85 78 f9 ff ff 	mov    %rax,-0x688(%rbp)
    8aa5:	48 c7 85 80 f9 ff ff 	movq   $0x0,-0x680(%rbp)
    8aac:	00 00 00 00 
    8ab0:	48 c7 85 88 f9 ff ff 	movq   $0x0,-0x678(%rbp)
    8ab7:	00 00 00 00 
    8abb:	48 8d 85 c8 f5 ff ff 	lea    -0xa38(%rbp),%rax
    8ac2:	48 89 85 90 f9 ff ff 	mov    %rax,-0x670(%rbp)
    8ac9:	48 8d 85 c8 f5 ff ff 	lea    -0xa38(%rbp),%rax
    8ad0:	48 89 85 98 f9 ff ff 	mov    %rax,-0x668(%rbp)
    8ad7:	48 8d 85 c8 f5 ff ff 	lea    -0xa38(%rbp),%rax
    8ade:	48 89 85 a0 f9 ff ff 	mov    %rax,-0x660(%rbp)
    8ae5:	48 8d 85 c8 f5 ff ff 	lea    -0xa38(%rbp),%rax
    8aec:	48 89 85 a8 f9 ff ff 	mov    %rax,-0x658(%rbp)
    8af3:	48 8d 85 c8 f5 ff ff 	lea    -0xa38(%rbp),%rax
    8afa:	48 89 85 b0 f9 ff ff 	mov    %rax,-0x650(%rbp)
    8b01:	48 c7 85 b8 f9 ff ff 	movq   $0x0,-0x648(%rbp)
    8b08:	00 00 00 00 
    8b0c:	48 c7 85 c0 f9 ff ff 	movq   $0x0,-0x640(%rbp)
    8b13:	00 00 00 00 
    8b17:	48 8d 85 c8 f5 ff ff 	lea    -0xa38(%rbp),%rax
    8b1e:	48 89 85 c8 f9 ff ff 	mov    %rax,-0x638(%rbp)
    8b25:	48 c7 85 d0 f9 ff ff 	movq   $0x0,-0x630(%rbp)
    8b2c:	00 00 00 00 
    8b30:	48 8d 85 c8 f5 ff ff 	lea    -0xa38(%rbp),%rax
    8b37:	48 89 85 d8 f9 ff ff 	mov    %rax,-0x628(%rbp)
    8b3e:	48 c7 85 e0 f9 ff ff 	movq   $0x0,-0x620(%rbp)
    8b45:	00 00 00 00 
    8b49:	48 c7 85 e8 f9 ff ff 	movq   $0x0,-0x618(%rbp)
    8b50:	00 00 00 00 
    8b54:	48 c7 85 f0 f9 ff ff 	movq   $0x0,-0x610(%rbp)
    8b5b:	00 00 00 00 
    8b5f:	48 c7 85 f8 f9 ff ff 	movq   $0x0,-0x608(%rbp)
    8b66:	00 00 00 00 
    8b6a:	48 8d 85 c8 f5 ff ff 	lea    -0xa38(%rbp),%rax
    8b71:	48 89 85 00 fa ff ff 	mov    %rax,-0x600(%rbp)
    8b78:	48 c7 85 08 fa ff ff 	movq   $0x0,-0x5f8(%rbp)
    8b7f:	00 00 00 00 
    8b83:	48 c7 85 10 fa ff ff 	movq   $0x0,-0x5f0(%rbp)
    8b8a:	00 00 00 00 
    8b8e:	48 8d 85 c8 f5 ff ff 	lea    -0xa38(%rbp),%rax
    8b95:	48 89 85 18 fa ff ff 	mov    %rax,-0x5e8(%rbp)
    8b9c:	48 8d 85 c8 f5 ff ff 	lea    -0xa38(%rbp),%rax
    8ba3:	48 89 85 20 fa ff ff 	mov    %rax,-0x5e0(%rbp)
    8baa:	48 c7 85 28 fa ff ff 	movq   $0x0,-0x5d8(%rbp)
    8bb1:	00 00 00 00 
    8bb5:	48 8d 85 c8 f5 ff ff 	lea    -0xa38(%rbp),%rax
    8bbc:	48 89 85 30 fa ff ff 	mov    %rax,-0x5d0(%rbp)
    8bc3:	48 c7 85 38 fa ff ff 	movq   $0x0,-0x5c8(%rbp)
    8bca:	00 00 00 00 
    8bce:	48 8d 85 c8 f5 ff ff 	lea    -0xa38(%rbp),%rax
    8bd5:	48 89 85 40 fa ff ff 	mov    %rax,-0x5c0(%rbp)
    8bdc:	48 8d 85 c8 f5 ff ff 	lea    -0xa38(%rbp),%rax
    8be3:	48 89 85 48 fa ff ff 	mov    %rax,-0x5b8(%rbp)
    8bea:	48 c7 85 50 fa ff ff 	movq   $0x0,-0x5b0(%rbp)
    8bf1:	00 00 00 00 
    8bf5:	48 c7 85 58 fa ff ff 	movq   $0x0,-0x5a8(%rbp)
    8bfc:	00 00 00 00 
    8c00:	48 8d 85 c8 f5 ff ff 	lea    -0xa38(%rbp),%rax
    8c07:	48 89 85 60 fa ff ff 	mov    %rax,-0x5a0(%rbp)
    8c0e:	48 c7 85 68 fa ff ff 	movq   $0x0,-0x598(%rbp)
    8c15:	00 00 00 00 
    8c19:	48 c7 85 70 fa ff ff 	movq   $0x0,-0x590(%rbp)
    8c20:	00 00 00 00 
    8c24:	48 8d 85 c8 f5 ff ff 	lea    -0xa38(%rbp),%rax
    8c2b:	48 89 85 78 fa ff ff 	mov    %rax,-0x588(%rbp)
    8c32:	48 8d 85 c8 f5 ff ff 	lea    -0xa38(%rbp),%rax
    8c39:	48 89 85 80 fa ff ff 	mov    %rax,-0x580(%rbp)
    8c40:	48 c7 85 88 fa ff ff 	movq   $0x0,-0x578(%rbp)
    8c47:	00 00 00 00 
    8c4b:	48 8d 85 c8 f5 ff ff 	lea    -0xa38(%rbp),%rax
    8c52:	48 89 85 90 fa ff ff 	mov    %rax,-0x570(%rbp)
    8c59:	48 c7 85 98 fa ff ff 	movq   $0x0,-0x568(%rbp)
    8c60:	00 00 00 00 
    8c64:	48 8d 85 c8 f5 ff ff 	lea    -0xa38(%rbp),%rax
    8c6b:	48 89 85 a0 fa ff ff 	mov    %rax,-0x560(%rbp)
    8c72:	48 8d 85 c8 f5 ff ff 	lea    -0xa38(%rbp),%rax
    8c79:	48 89 85 a8 fa ff ff 	mov    %rax,-0x558(%rbp)
    8c80:	48 c7 85 b0 fa ff ff 	movq   $0x0,-0x550(%rbp)
    8c87:	00 00 00 00 
    8c8b:	48 c7 85 b8 fa ff ff 	movq   $0x0,-0x548(%rbp)
    8c92:	00 00 00 00 
    8c96:	48 8d 85 c8 f5 ff ff 	lea    -0xa38(%rbp),%rax
    8c9d:	48 89 85 c0 fa ff ff 	mov    %rax,-0x540(%rbp)
    8ca4:	48 c7 85 c8 fa ff ff 	movq   $0x0,-0x538(%rbp)
    8cab:	00 00 00 00 
    8caf:	48 c7 85 d0 fa ff ff 	movq   $0x0,-0x530(%rbp)
    8cb6:	00 00 00 00 
    8cba:	48 8d 85 c8 f5 ff ff 	lea    -0xa38(%rbp),%rax
    8cc1:	48 89 85 d8 fa ff ff 	mov    %rax,-0x528(%rbp)
    8cc8:	48 8d 85 c8 f5 ff ff 	lea    -0xa38(%rbp),%rax
    8ccf:	48 89 85 e0 fa ff ff 	mov    %rax,-0x520(%rbp)
    8cd6:	48 c7 85 e8 fa ff ff 	movq   $0x0,-0x518(%rbp)
    8cdd:	00 00 00 00 
    8ce1:	48 8d 85 c8 f5 ff ff 	lea    -0xa38(%rbp),%rax
    8ce8:	48 89 85 f0 fa ff ff 	mov    %rax,-0x510(%rbp)
    8cef:	48 c7 85 f8 fa ff ff 	movq   $0x0,-0x508(%rbp)
    8cf6:	00 00 00 00 
    8cfa:	48 8d 85 c8 f5 ff ff 	lea    -0xa38(%rbp),%rax
    8d01:	48 89 85 00 fb ff ff 	mov    %rax,-0x500(%rbp)
    8d08:	48 8d 85 c8 f5 ff ff 	lea    -0xa38(%rbp),%rax
    8d0f:	48 89 85 08 fb ff ff 	mov    %rax,-0x4f8(%rbp)
    8d16:	48 c7 85 10 fb ff ff 	movq   $0x0,-0x4f0(%rbp)
    8d1d:	00 00 00 00 
    8d21:	48 c7 85 18 fb ff ff 	movq   $0x0,-0x4e8(%rbp)
    8d28:	00 00 00 00 
    8d2c:	48 8d 85 c8 f5 ff ff 	lea    -0xa38(%rbp),%rax
    8d33:	48 89 85 20 fb ff ff 	mov    %rax,-0x4e0(%rbp)
    8d3a:	48 c7 85 28 fb ff ff 	movq   $0x0,-0x4d8(%rbp)
    8d41:	00 00 00 00 
    8d45:	48 c7 85 30 fb ff ff 	movq   $0x0,-0x4d0(%rbp)
    8d4c:	00 00 00 00 
    8d50:	48 8d 85 c8 f5 ff ff 	lea    -0xa38(%rbp),%rax
    8d57:	48 89 85 38 fb ff ff 	mov    %rax,-0x4c8(%rbp)
    8d5e:	48 8d 85 c8 f5 ff ff 	lea    -0xa38(%rbp),%rax
    8d65:	48 89 85 40 fb ff ff 	mov    %rax,-0x4c0(%rbp)
    8d6c:	48 c7 85 48 fb ff ff 	movq   $0x0,-0x4b8(%rbp)
    8d73:	00 00 00 00 
    8d77:	48 8d 85 c8 f5 ff ff 	lea    -0xa38(%rbp),%rax
    8d7e:	48 89 85 50 fb ff ff 	mov    %rax,-0x4b0(%rbp)
    8d85:	48 c7 85 58 fb ff ff 	movq   $0x0,-0x4a8(%rbp)
    8d8c:	00 00 00 00 
    8d90:	48 8d 85 c8 f5 ff ff 	lea    -0xa38(%rbp),%rax
    8d97:	48 89 85 60 fb ff ff 	mov    %rax,-0x4a0(%rbp)
    8d9e:	48 8d 85 c8 f5 ff ff 	lea    -0xa38(%rbp),%rax
    8da5:	48 89 85 68 fb ff ff 	mov    %rax,-0x498(%rbp)
    8dac:	48 c7 85 70 fb ff ff 	movq   $0x0,-0x490(%rbp)
    8db3:	00 00 00 00 
    8db7:	48 c7 85 78 fb ff ff 	movq   $0x0,-0x488(%rbp)
    8dbe:	00 00 00 00 
    8dc2:	48 8d 85 c8 f5 ff ff 	lea    -0xa38(%rbp),%rax
    8dc9:	48 89 85 80 fb ff ff 	mov    %rax,-0x480(%rbp)
    8dd0:	48 c7 85 88 fb ff ff 	movq   $0x0,-0x478(%rbp)
    8dd7:	00 00 00 00 
    8ddb:	48 c7 85 90 fb ff ff 	movq   $0x0,-0x470(%rbp)
    8de2:	00 00 00 00 
    8de6:	48 8d 85 c8 f5 ff ff 	lea    -0xa38(%rbp),%rax
    8ded:	48 89 85 98 fb ff ff 	mov    %rax,-0x468(%rbp)
    8df4:	48 8d 85 c8 f5 ff ff 	lea    -0xa38(%rbp),%rax
    8dfb:	48 89 85 a0 fb ff ff 	mov    %rax,-0x460(%rbp)
    8e02:	48 c7 85 a8 fb ff ff 	movq   $0x0,-0x458(%rbp)
    8e09:	00 00 00 00 
    8e0d:	48 8d 85 c8 f5 ff ff 	lea    -0xa38(%rbp),%rax
    8e14:	48 89 85 b0 fb ff ff 	mov    %rax,-0x450(%rbp)
    8e1b:	48 c7 85 b8 fb ff ff 	movq   $0x0,-0x448(%rbp)
    8e22:	00 00 00 00 
    8e26:	48 8d 85 c8 f5 ff ff 	lea    -0xa38(%rbp),%rax
    8e2d:	48 89 85 c0 fb ff ff 	mov    %rax,-0x440(%rbp)
    8e34:	48 8d 85 c8 f5 ff ff 	lea    -0xa38(%rbp),%rax
    8e3b:	48 89 85 c8 fb ff ff 	mov    %rax,-0x438(%rbp)
    8e42:	48 c7 85 d0 fb ff ff 	movq   $0x0,-0x430(%rbp)
    8e49:	00 00 00 00 
    8e4d:	48 c7 85 d8 fb ff ff 	movq   $0x0,-0x428(%rbp)
    8e54:	00 00 00 00 
    8e58:	48 8d 85 c8 f5 ff ff 	lea    -0xa38(%rbp),%rax
    8e5f:	48 89 85 e0 fb ff ff 	mov    %rax,-0x420(%rbp)
    8e66:	48 c7 85 e8 fb ff ff 	movq   $0x0,-0x418(%rbp)
    8e6d:	00 00 00 00 
    8e71:	48 c7 85 f0 fb ff ff 	movq   $0x0,-0x410(%rbp)
    8e78:	00 00 00 00 
    8e7c:	48 8d 85 c8 f5 ff ff 	lea    -0xa38(%rbp),%rax
    8e83:	48 89 85 f8 fb ff ff 	mov    %rax,-0x408(%rbp)
    8e8a:	48 8d 85 c8 f5 ff ff 	lea    -0xa38(%rbp),%rax
    8e91:	48 89 85 00 fc ff ff 	mov    %rax,-0x400(%rbp)
    8e98:	48 c7 85 08 fc ff ff 	movq   $0x0,-0x3f8(%rbp)
    8e9f:	00 00 00 00 
    8ea3:	48 8d 85 c8 f5 ff ff 	lea    -0xa38(%rbp),%rax
    8eaa:	48 89 85 10 fc ff ff 	mov    %rax,-0x3f0(%rbp)
    8eb1:	48 c7 85 18 fc ff ff 	movq   $0x0,-0x3e8(%rbp)
    8eb8:	00 00 00 00 
    8ebc:	48 8d 85 c8 f5 ff ff 	lea    -0xa38(%rbp),%rax
    8ec3:	48 89 85 20 fc ff ff 	mov    %rax,-0x3e0(%rbp)
    8eca:	48 8d 85 c8 f5 ff ff 	lea    -0xa38(%rbp),%rax
    8ed1:	48 89 85 28 fc ff ff 	mov    %rax,-0x3d8(%rbp)
    8ed8:	48 c7 85 30 fc ff ff 	movq   $0x0,-0x3d0(%rbp)
    8edf:	00 00 00 00 
    8ee3:	48 c7 85 38 fc ff ff 	movq   $0x0,-0x3c8(%rbp)
    8eea:	00 00 00 00 
    8eee:	48 8d 85 c8 f5 ff ff 	lea    -0xa38(%rbp),%rax
    8ef5:	48 89 85 40 fc ff ff 	mov    %rax,-0x3c0(%rbp)
    8efc:	48 c7 85 48 fc ff ff 	movq   $0x0,-0x3b8(%rbp)
    8f03:	00 00 00 00 
    8f07:	48 c7 85 50 fc ff ff 	movq   $0x0,-0x3b0(%rbp)
    8f0e:	00 00 00 00 
    8f12:	48 8d 85 c8 f5 ff ff 	lea    -0xa38(%rbp),%rax
    8f19:	48 89 85 58 fc ff ff 	mov    %rax,-0x3a8(%rbp)
    8f20:	48 8d 85 c8 f5 ff ff 	lea    -0xa38(%rbp),%rax
    8f27:	48 89 85 60 fc ff ff 	mov    %rax,-0x3a0(%rbp)
    8f2e:	48 c7 85 68 fc ff ff 	movq   $0x0,-0x398(%rbp)
    8f35:	00 00 00 00 
    8f39:	48 8d 85 c8 f5 ff ff 	lea    -0xa38(%rbp),%rax
    8f40:	48 89 85 70 fc ff ff 	mov    %rax,-0x390(%rbp)
    8f47:	48 c7 85 78 fc ff ff 	movq   $0x0,-0x388(%rbp)
    8f4e:	00 00 00 00 
    8f52:	48 8d 85 c8 f5 ff ff 	lea    -0xa38(%rbp),%rax
    8f59:	48 89 85 80 fc ff ff 	mov    %rax,-0x380(%rbp)
    8f60:	48 8d 85 c8 f5 ff ff 	lea    -0xa38(%rbp),%rax
    8f67:	48 89 85 88 fc ff ff 	mov    %rax,-0x378(%rbp)
    8f6e:	48 c7 85 90 fc ff ff 	movq   $0x0,-0x370(%rbp)
    8f75:	00 00 00 00 
    8f79:	48 c7 85 98 fc ff ff 	movq   $0x0,-0x368(%rbp)
    8f80:	00 00 00 00 
    8f84:	48 8d 85 c8 f5 ff ff 	lea    -0xa38(%rbp),%rax
    8f8b:	48 89 85 a0 fc ff ff 	mov    %rax,-0x360(%rbp)
    8f92:	48 c7 85 a8 fc ff ff 	movq   $0x0,-0x358(%rbp)
    8f99:	00 00 00 00 
    8f9d:	48 c7 85 b0 fc ff ff 	movq   $0x0,-0x350(%rbp)
    8fa4:	00 00 00 00 
    8fa8:	48 8d 85 c8 f5 ff ff 	lea    -0xa38(%rbp),%rax
    8faf:	48 89 85 b8 fc ff ff 	mov    %rax,-0x348(%rbp)
    8fb6:	48 8d 85 c8 f5 ff ff 	lea    -0xa38(%rbp),%rax
    8fbd:	48 89 85 c0 fc ff ff 	mov    %rax,-0x340(%rbp)
    8fc4:	48 c7 85 c8 fc ff ff 	movq   $0x0,-0x338(%rbp)
    8fcb:	00 00 00 00 
    8fcf:	48 8d 85 c8 f5 ff ff 	lea    -0xa38(%rbp),%rax
    8fd6:	48 89 85 d0 fc ff ff 	mov    %rax,-0x330(%rbp)
    8fdd:	48 c7 85 d8 fc ff ff 	movq   $0x0,-0x328(%rbp)
    8fe4:	00 00 00 00 
    8fe8:	48 8d 85 c8 f5 ff ff 	lea    -0xa38(%rbp),%rax
    8fef:	48 89 85 e0 fc ff ff 	mov    %rax,-0x320(%rbp)
    8ff6:	48 8d 85 c8 f5 ff ff 	lea    -0xa38(%rbp),%rax
    8ffd:	48 89 85 e8 fc ff ff 	mov    %rax,-0x318(%rbp)
    9004:	48 c7 85 f0 fc ff ff 	movq   $0x0,-0x310(%rbp)
    900b:	00 00 00 00 
    900f:	48 c7 85 f8 fc ff ff 	movq   $0x0,-0x308(%rbp)
    9016:	00 00 00 00 
    901a:	48 8d 85 c8 f5 ff ff 	lea    -0xa38(%rbp),%rax
    9021:	48 89 85 00 fd ff ff 	mov    %rax,-0x300(%rbp)
    9028:	48 c7 85 08 fd ff ff 	movq   $0x0,-0x2f8(%rbp)
    902f:	00 00 00 00 
    9033:	48 c7 85 10 fd ff ff 	movq   $0x0,-0x2f0(%rbp)
    903a:	00 00 00 00 
    903e:	48 8d 85 c8 f5 ff ff 	lea    -0xa38(%rbp),%rax
    9045:	48 89 85 18 fd ff ff 	mov    %rax,-0x2e8(%rbp)
    904c:	48 8d 85 c8 f5 ff ff 	lea    -0xa38(%rbp),%rax
    9053:	48 89 85 20 fd ff ff 	mov    %rax,-0x2e0(%rbp)
    905a:	48 c7 85 28 fd ff ff 	movq   $0x0,-0x2d8(%rbp)
    9061:	00 00 00 00 
    9065:	48 8d 85 c8 f5 ff ff 	lea    -0xa38(%rbp),%rax
    906c:	48 89 85 30 fd ff ff 	mov    %rax,-0x2d0(%rbp)
    9073:	48 c7 85 38 fd ff ff 	movq   $0x0,-0x2c8(%rbp)
    907a:	00 00 00 00 
    907e:	48 8d 85 c8 f5 ff ff 	lea    -0xa38(%rbp),%rax
    9085:	48 89 85 40 fd ff ff 	mov    %rax,-0x2c0(%rbp)
    908c:	48 8d 85 c8 f5 ff ff 	lea    -0xa38(%rbp),%rax
    9093:	48 89 85 48 fd ff ff 	mov    %rax,-0x2b8(%rbp)
    909a:	48 c7 85 50 fd ff ff 	movq   $0x0,-0x2b0(%rbp)
    90a1:	00 00 00 00 
    90a5:	48 c7 85 58 fd ff ff 	movq   $0x0,-0x2a8(%rbp)
    90ac:	00 00 00 00 
    90b0:	48 8d 85 c8 f5 ff ff 	lea    -0xa38(%rbp),%rax
    90b7:	48 89 85 60 fd ff ff 	mov    %rax,-0x2a0(%rbp)
    90be:	48 c7 85 68 fd ff ff 	movq   $0x0,-0x298(%rbp)
    90c5:	00 00 00 00 
    90c9:	48 c7 85 70 fd ff ff 	movq   $0x0,-0x290(%rbp)
    90d0:	00 00 00 00 
    90d4:	48 8d 85 c8 f5 ff ff 	lea    -0xa38(%rbp),%rax
    90db:	48 89 85 78 fd ff ff 	mov    %rax,-0x288(%rbp)
    90e2:	48 8d 85 c8 f5 ff ff 	lea    -0xa38(%rbp),%rax
    90e9:	48 89 85 80 fd ff ff 	mov    %rax,-0x280(%rbp)
    90f0:	48 c7 85 88 fd ff ff 	movq   $0x0,-0x278(%rbp)
    90f7:	00 00 00 00 
    90fb:	48 8d 85 c8 f5 ff ff 	lea    -0xa38(%rbp),%rax
    9102:	48 89 85 90 fd ff ff 	mov    %rax,-0x270(%rbp)
    9109:	48 c7 85 98 fd ff ff 	movq   $0x0,-0x268(%rbp)
    9110:	00 00 00 00 
    9114:	48 8d 85 c8 f5 ff ff 	lea    -0xa38(%rbp),%rax
    911b:	48 89 85 a0 fd ff ff 	mov    %rax,-0x260(%rbp)
    9122:	48 8d 85 c8 f5 ff ff 	lea    -0xa38(%rbp),%rax
    9129:	48 89 85 a8 fd ff ff 	mov    %rax,-0x258(%rbp)
    9130:	48 c7 85 b0 fd ff ff 	movq   $0x0,-0x250(%rbp)
    9137:	00 00 00 00 
    913b:	48 c7 85 b8 fd ff ff 	movq   $0x0,-0x248(%rbp)
    9142:	00 00 00 00 
    9146:	48 8d 85 c8 f5 ff ff 	lea    -0xa38(%rbp),%rax
    914d:	48 89 85 c0 fd ff ff 	mov    %rax,-0x240(%rbp)
    9154:	48 c7 85 c8 fd ff ff 	movq   $0x0,-0x238(%rbp)
    915b:	00 00 00 00 
    915f:	48 c7 85 d0 fd ff ff 	movq   $0x0,-0x230(%rbp)
    9166:	00 00 00 00 
    916a:	48 8d 85 c8 f5 ff ff 	lea    -0xa38(%rbp),%rax
    9171:	48 89 85 d8 fd ff ff 	mov    %rax,-0x228(%rbp)
    9178:	48 8d 85 c8 f5 ff ff 	lea    -0xa38(%rbp),%rax
    917f:	48 89 85 e0 fd ff ff 	mov    %rax,-0x220(%rbp)
    9186:	48 c7 85 e8 fd ff ff 	movq   $0x0,-0x218(%rbp)
    918d:	00 00 00 00 
    9191:	48 8d 85 c8 f5 ff ff 	lea    -0xa38(%rbp),%rax
    9198:	48 89 85 f0 fd ff ff 	mov    %rax,-0x210(%rbp)
    919f:	48 c7 85 f8 fd ff ff 	movq   $0x0,-0x208(%rbp)
    91a6:	00 00 00 00 
    91aa:	48 8d 85 c8 f5 ff ff 	lea    -0xa38(%rbp),%rax
    91b1:	48 89 85 00 fe ff ff 	mov    %rax,-0x200(%rbp)
    91b8:	48 8d 85 c8 f5 ff ff 	lea    -0xa38(%rbp),%rax
    91bf:	48 89 85 08 fe ff ff 	mov    %rax,-0x1f8(%rbp)
    91c6:	48 c7 85 10 fe ff ff 	movq   $0x0,-0x1f0(%rbp)
    91cd:	00 00 00 00 
    91d1:	48 c7 85 18 fe ff ff 	movq   $0x0,-0x1e8(%rbp)
    91d8:	00 00 00 00 
    91dc:	48 8d 85 c8 f5 ff ff 	lea    -0xa38(%rbp),%rax
    91e3:	48 89 85 20 fe ff ff 	mov    %rax,-0x1e0(%rbp)
    91ea:	48 c7 85 28 fe ff ff 	movq   $0x0,-0x1d8(%rbp)
    91f1:	00 00 00 00 
    91f5:	48 c7 85 30 fe ff ff 	movq   $0x0,-0x1d0(%rbp)
    91fc:	00 00 00 00 
    9200:	48 8d 85 c8 f5 ff ff 	lea    -0xa38(%rbp),%rax
    9207:	48 89 85 38 fe ff ff 	mov    %rax,-0x1c8(%rbp)
    920e:	48 8d 85 c8 f5 ff ff 	lea    -0xa38(%rbp),%rax
    9215:	48 89 85 40 fe ff ff 	mov    %rax,-0x1c0(%rbp)
    921c:	48 c7 85 48 fe ff ff 	movq   $0x0,-0x1b8(%rbp)
    9223:	00 00 00 00 
    9227:	48 8d 85 c8 f5 ff ff 	lea    -0xa38(%rbp),%rax
    922e:	48 89 85 50 fe ff ff 	mov    %rax,-0x1b0(%rbp)
    9235:	48 c7 85 58 fe ff ff 	movq   $0x0,-0x1a8(%rbp)
    923c:	00 00 00 00 
    9240:	48 8d 85 c8 f5 ff ff 	lea    -0xa38(%rbp),%rax
    9247:	48 89 85 60 fe ff ff 	mov    %rax,-0x1a0(%rbp)
    924e:	48 8d 85 c8 f5 ff ff 	lea    -0xa38(%rbp),%rax
    9255:	48 89 85 68 fe ff ff 	mov    %rax,-0x198(%rbp)
    925c:	48 c7 85 70 fe ff ff 	movq   $0x0,-0x190(%rbp)
    9263:	00 00 00 00 
    9267:	48 c7 85 78 fe ff ff 	movq   $0x0,-0x188(%rbp)
    926e:	00 00 00 00 
    9272:	48 8d 85 c8 f5 ff ff 	lea    -0xa38(%rbp),%rax
    9279:	48 89 85 80 fe ff ff 	mov    %rax,-0x180(%rbp)
    9280:	48 c7 85 88 fe ff ff 	movq   $0x0,-0x178(%rbp)
    9287:	00 00 00 00 
    928b:	48 c7 85 90 fe ff ff 	movq   $0x0,-0x170(%rbp)
    9292:	00 00 00 00 
    9296:	48 8d 85 c8 f5 ff ff 	lea    -0xa38(%rbp),%rax
    929d:	48 89 85 98 fe ff ff 	mov    %rax,-0x168(%rbp)
    92a4:	48 8d 85 c8 f5 ff ff 	lea    -0xa38(%rbp),%rax
    92ab:	48 89 85 a0 fe ff ff 	mov    %rax,-0x160(%rbp)
    92b2:	48 c7 85 a8 fe ff ff 	movq   $0x0,-0x158(%rbp)
    92b9:	00 00 00 00 
    92bd:	48 8d 85 c8 f5 ff ff 	lea    -0xa38(%rbp),%rax
    92c4:	48 89 85 b0 fe ff ff 	mov    %rax,-0x150(%rbp)
    92cb:	48 c7 85 b8 fe ff ff 	movq   $0x0,-0x148(%rbp)
    92d2:	00 00 00 00 
    92d6:	48 8d 85 c8 f5 ff ff 	lea    -0xa38(%rbp),%rax
    92dd:	48 89 85 c0 fe ff ff 	mov    %rax,-0x140(%rbp)
    92e4:	48 8d 85 c8 f5 ff ff 	lea    -0xa38(%rbp),%rax
    92eb:	48 89 85 c8 fe ff ff 	mov    %rax,-0x138(%rbp)
    92f2:	48 c7 85 d0 fe ff ff 	movq   $0x0,-0x130(%rbp)
    92f9:	00 00 00 00 
    92fd:	48 c7 85 d8 fe ff ff 	movq   $0x0,-0x128(%rbp)
    9304:	00 00 00 00 
    9308:	48 8d 85 c8 f5 ff ff 	lea    -0xa38(%rbp),%rax
    930f:	48 89 85 e0 fe ff ff 	mov    %rax,-0x120(%rbp)
    9316:	48 c7 85 e8 fe ff ff 	movq   $0x0,-0x118(%rbp)
    931d:	00 00 00 00 
    9321:	48 c7 85 f0 fe ff ff 	movq   $0x0,-0x110(%rbp)
    9328:	00 00 00 00 
    932c:	48 8d 85 c8 f5 ff ff 	lea    -0xa38(%rbp),%rax
    9333:	48 89 85 f8 fe ff ff 	mov    %rax,-0x108(%rbp)
    933a:	48 8d 85 c8 f5 ff ff 	lea    -0xa38(%rbp),%rax
    9341:	48 89 85 00 ff ff ff 	mov    %rax,-0x100(%rbp)
    9348:	48 c7 85 08 ff ff ff 	movq   $0x0,-0xf8(%rbp)
    934f:	00 00 00 00 
    9353:	48 8d 85 c8 f5 ff ff 	lea    -0xa38(%rbp),%rax
    935a:	48 89 85 10 ff ff ff 	mov    %rax,-0xf0(%rbp)
    9361:	48 c7 85 18 ff ff ff 	movq   $0x0,-0xe8(%rbp)
    9368:	00 00 00 00 
    936c:	48 8d 85 c8 f5 ff ff 	lea    -0xa38(%rbp),%rax
    9373:	48 89 85 20 ff ff ff 	mov    %rax,-0xe0(%rbp)
    937a:	48 8d 85 c8 f5 ff ff 	lea    -0xa38(%rbp),%rax
    9381:	48 89 85 28 ff ff ff 	mov    %rax,-0xd8(%rbp)
    9388:	48 c7 85 30 ff ff ff 	movq   $0x0,-0xd0(%rbp)
    938f:	00 00 00 00 
    9393:	48 c7 85 38 ff ff ff 	movq   $0x0,-0xc8(%rbp)
    939a:	00 00 00 00 
    939e:	48 8d 85 c8 f5 ff ff 	lea    -0xa38(%rbp),%rax
    93a5:	48 89 85 40 ff ff ff 	mov    %rax,-0xc0(%rbp)
    93ac:	48 c7 85 48 ff ff ff 	movq   $0x0,-0xb8(%rbp)
    93b3:	00 00 00 00 
    93b7:	48 c7 85 50 ff ff ff 	movq   $0x0,-0xb0(%rbp)
    93be:	00 00 00 00 
    93c2:	48 8d 85 c8 f5 ff ff 	lea    -0xa38(%rbp),%rax
    93c9:	48 89 85 58 ff ff ff 	mov    %rax,-0xa8(%rbp)
    93d0:	48 8d 85 c8 f5 ff ff 	lea    -0xa38(%rbp),%rax
    93d7:	48 89 85 60 ff ff ff 	mov    %rax,-0xa0(%rbp)
    93de:	48 c7 85 68 ff ff ff 	movq   $0x0,-0x98(%rbp)
    93e5:	00 00 00 00 
    93e9:	48 8d 85 c8 f5 ff ff 	lea    -0xa38(%rbp),%rax
    93f0:	48 89 85 70 ff ff ff 	mov    %rax,-0x90(%rbp)
    93f7:	48 c7 85 78 ff ff ff 	movq   $0x0,-0x88(%rbp)
    93fe:	00 00 00 00 
    9402:	48 8d 85 c8 f5 ff ff 	lea    -0xa38(%rbp),%rax
    9409:	48 89 45 80          	mov    %rax,-0x80(%rbp)
    940d:	48 8d 85 c8 f5 ff ff 	lea    -0xa38(%rbp),%rax
    9414:	48 89 45 88          	mov    %rax,-0x78(%rbp)
    9418:	48 c7 45 90 00 00 00 	movq   $0x0,-0x70(%rbp)
    941f:	00 
    9420:	48 c7 45 98 00 00 00 	movq   $0x0,-0x68(%rbp)
    9427:	00 
    9428:	48 8d 85 c8 f5 ff ff 	lea    -0xa38(%rbp),%rax
    942f:	48 89 45 a0          	mov    %rax,-0x60(%rbp)
    9433:	48 c7 45 a8 00 00 00 	movq   $0x0,-0x58(%rbp)
    943a:	00 
    943b:	48 c7 45 b0 00 00 00 	movq   $0x0,-0x50(%rbp)
    9442:	00 
    9443:	48 8d 85 c8 f5 ff ff 	lea    -0xa38(%rbp),%rax
    944a:	48 89 45 b8          	mov    %rax,-0x48(%rbp)
    944e:	48 8d 85 c8 f5 ff ff 	lea    -0xa38(%rbp),%rax
    9455:	48 89 45 c0          	mov    %rax,-0x40(%rbp)
    9459:	48 c7 45 c8 00 00 00 	movq   $0x0,-0x38(%rbp)
    9460:	00 
    9461:	48 8d 85 c8 f5 ff ff 	lea    -0xa38(%rbp),%rax
    9468:	48 89 45 d0          	mov    %rax,-0x30(%rbp)
    946c:	48 c7 45 d8 00 00 00 	movq   $0x0,-0x28(%rbp)
    9473:	00 
    9474:	48 8d 85 c8 f5 ff ff 	lea    -0xa38(%rbp),%rax
    947b:	48 89 45 e0          	mov    %rax,-0x20(%rbp)
    947f:	48 8d 85 c8 f5 ff ff 	lea    -0xa38(%rbp),%rax
    9486:	48 89 45 e8          	mov    %rax,-0x18(%rbp)
    948a:	48 8d 85 30 f9 ff ff 	lea    -0x6d0(%rbp),%rax
    9491:	48 05 98 04 00 00    	add    $0x498,%rax
    9497:	48 89 85 d0 f5 ff ff 	mov    %rax,-0xa30(%rbp)
    949e:	c7 85 c4 f5 ff ff ff 	movl   $0xffffffff,-0xa3c(%rbp)
    94a5:	ff ff ff 
    94a8:	48 c7 85 50 f6 ff ff 	movq   $0x1,-0x9b0(%rbp)
    94af:	01 00 00 00 
    94b3:	48 8d 05 0e ce 00 00 	lea    0xce0e(%rip),%rax        # 162c8 <g_2460>
    94ba:	48 89 85 58 f6 ff ff 	mov    %rax,-0x9a8(%rbp)
    94c1:	48 8d 05 10 e4 00 00 	lea    0xe410(%rip),%rax        # 178d8 <g_156>
    94c8:	48 89 85 60 f6 ff ff 	mov    %rax,-0x9a0(%rbp)
    94cf:	66 c7 85 e0 f6 ff ff 	movw   $0xfffb,-0x920(%rbp)
    94d6:	fb ff 
    94d8:	66 c7 85 e2 f6 ff ff 	movw   $0xffff,-0x91e(%rbp)
    94df:	ff ff 
    94e1:	66 c7 85 e4 f6 ff ff 	movw   $0xfffb,-0x91c(%rbp)
    94e8:	fb ff 
    94ea:	66 c7 85 e6 f6 ff ff 	movw   $0x78bd,-0x91a(%rbp)
    94f1:	bd 78 
    94f3:	66 c7 85 e8 f6 ff ff 	movw   $0xfdc,-0x918(%rbp)
    94fa:	dc 0f 
    94fc:	66 c7 85 ea f6 ff ff 	movw   $0xfdc,-0x916(%rbp)
    9503:	dc 0f 
    9505:	66 c7 85 ec f6 ff ff 	movw   $0x78bd,-0x914(%rbp)
    950c:	bd 78 
    950e:	66 c7 85 ee f6 ff ff 	movw   $0xfffb,-0x912(%rbp)
    9515:	fb ff 
    9517:	66 c7 85 f0 f6 ff ff 	movw   $0xffff,-0x910(%rbp)
    951e:	ff ff 
    9520:	66 c7 85 f2 f6 ff ff 	movw   $0xffff,-0x90e(%rbp)
    9527:	ff ff 
    9529:	66 c7 85 f4 f6 ff ff 	movw   $0xfffb,-0x90c(%rbp)
    9530:	fb ff 
    9532:	66 c7 85 f6 f6 ff ff 	movw   $0x78bd,-0x90a(%rbp)
    9539:	bd 78 
    953b:	66 c7 85 f8 f6 ff ff 	movw   $0xfdc,-0x908(%rbp)
    9542:	dc 0f 
    9544:	66 c7 85 fa f6 ff ff 	movw   $0xfdc,-0x906(%rbp)
    954b:	dc 0f 
    954d:	66 c7 85 fc f6 ff ff 	movw   $0x78bd,-0x904(%rbp)
    9554:	bd 78 
    9556:	66 c7 85 fe f6 ff ff 	movw   $0xfffb,-0x902(%rbp)
    955d:	fb ff 
    955f:	66 c7 85 00 f7 ff ff 	movw   $0xffff,-0x900(%rbp)
    9566:	ff ff 
    9568:	66 c7 85 02 f7 ff ff 	movw   $0xfffb,-0x8fe(%rbp)
    956f:	fb ff 
    9571:	66 c7 85 04 f7 ff ff 	movw   $0xfffc,-0x8fc(%rbp)
    9578:	fc ff 
    957a:	66 c7 85 06 f7 ff ff 	movw   $0x5056,-0x8fa(%rbp)
    9581:	56 50 
    9583:	66 c7 85 08 f7 ff ff 	movw   $0x78bd,-0x8f8(%rbp)
    958a:	bd 78 
    958c:	66 c7 85 0a f7 ff ff 	movw   $0x78bd,-0x8f6(%rbp)
    9593:	bd 78 
    9595:	66 c7 85 0c f7 ff ff 	movw   $0x5056,-0x8f4(%rbp)
    959c:	56 50 
    959e:	66 c7 85 0e f7 ff ff 	movw   $0xfffc,-0x8f2(%rbp)
    95a5:	fc ff 
    95a7:	66 c7 85 10 f7 ff ff 	movw   $0xfdc,-0x8f0(%rbp)
    95ae:	dc 0f 
    95b0:	66 c7 85 12 f7 ff ff 	movw   $0xfffc,-0x8ee(%rbp)
    95b7:	fc ff 
    95b9:	66 c7 85 14 f7 ff ff 	movw   $0x5056,-0x8ec(%rbp)
    95c0:	56 50 
    95c2:	66 c7 85 16 f7 ff ff 	movw   $0xfffc,-0x8ea(%rbp)
    95c9:	fc ff 
    95cb:	66 c7 85 18 f7 ff ff 	movw   $0xfffb,-0x8e8(%rbp)
    95d2:	fb ff 
    95d4:	66 c7 85 1a f7 ff ff 	movw   $0xfffb,-0x8e6(%rbp)
    95db:	fb ff 
    95dd:	66 c7 85 1c f7 ff ff 	movw   $0xfffc,-0x8e4(%rbp)
    95e4:	fc ff 
    95e6:	66 c7 85 1e f7 ff ff 	movw   $0xffff,-0x8e2(%rbp)
    95ed:	ff ff 
    95ef:	66 c7 85 20 f7 ff ff 	movw   $0x5056,-0x8e0(%rbp)
    95f6:	56 50 
    95f8:	66 c7 85 22 f7 ff ff 	movw   $0xffff,-0x8de(%rbp)
    95ff:	ff ff 
    9601:	66 c7 85 24 f7 ff ff 	movw   $0xfffc,-0x8dc(%rbp)
    9608:	fc ff 
    960a:	66 c7 85 26 f7 ff ff 	movw   $0xfffb,-0x8da(%rbp)
    9611:	fb ff 
    9613:	66 c7 85 28 f7 ff ff 	movw   $0xffff,-0x8d8(%rbp)
    961a:	ff ff 
    961c:	66 c7 85 2a f7 ff ff 	movw   $0xffff,-0x8d6(%rbp)
    9623:	ff ff 
    9625:	66 c7 85 2c f7 ff ff 	movw   $0xfdc,-0x8d4(%rbp)
    962c:	dc 0f 
    962e:	66 c7 85 2e f7 ff ff 	movw   $0x5056,-0x8d2(%rbp)
    9635:	56 50 
    9637:	66 c7 85 30 f7 ff ff 	movw   $0x34cb,-0x8d0(%rbp)
    963e:	cb 34 
    9640:	66 c7 85 32 f7 ff ff 	movw   $0x5056,-0x8ce(%rbp)
    9647:	56 50 
    9649:	66 c7 85 34 f7 ff ff 	movw   $0xfdc,-0x8cc(%rbp)
    9650:	dc 0f 
    9652:	66 c7 85 36 f7 ff ff 	movw   $0xffff,-0x8ca(%rbp)
    9659:	ff ff 
    965b:	66 c7 85 38 f7 ff ff 	movw   $0xffff,-0x8c8(%rbp)
    9662:	ff ff 
    9664:	66 c7 85 3a f7 ff ff 	movw   $0xfffb,-0x8c6(%rbp)
    966b:	fb ff 
    966d:	66 c7 85 3c f7 ff ff 	movw   $0xfffc,-0x8c4(%rbp)
    9674:	fc ff 
    9676:	66 c7 85 3e f7 ff ff 	movw   $0xffff,-0x8c2(%rbp)
    967d:	ff ff 
    967f:	66 c7 85 40 f7 ff ff 	movw   $0x5056,-0x8c0(%rbp)
    9686:	56 50 
    9688:	66 c7 85 42 f7 ff ff 	movw   $0xffff,-0x8be(%rbp)
    968f:	ff ff 
    9691:	66 c7 85 44 f7 ff ff 	movw   $0xfffc,-0x8bc(%rbp)
    9698:	fc ff 
    969a:	66 c7 85 46 f7 ff ff 	movw   $0xfffb,-0x8ba(%rbp)
    96a1:	fb ff 
    96a3:	66 c7 85 48 f7 ff ff 	movw   $0xfffb,-0x8b8(%rbp)
    96aa:	fb ff 
    96ac:	66 c7 85 4a f7 ff ff 	movw   $0xfffc,-0x8b6(%rbp)
    96b3:	fc ff 
    96b5:	66 c7 85 4c f7 ff ff 	movw   $0x5056,-0x8b4(%rbp)
    96bc:	56 50 
    96be:	66 c7 85 4e f7 ff ff 	movw   $0xfffc,-0x8b2(%rbp)
    96c5:	fc ff 
    96c7:	66 c7 85 50 f7 ff ff 	movw   $0xfdc,-0x8b0(%rbp)
    96ce:	dc 0f 
    96d0:	66 c7 85 52 f7 ff ff 	movw   $0xfffc,-0x8ae(%rbp)
    96d7:	fc ff 
    96d9:	66 c7 85 54 f7 ff ff 	movw   $0x5056,-0x8ac(%rbp)
    96e0:	56 50 
    96e2:	66 c7 85 56 f7 ff ff 	movw   $0x78bd,-0x8aa(%rbp)
    96e9:	bd 78 
    96eb:	66 c7 85 58 f7 ff ff 	movw   $0x78bd,-0x8a8(%rbp)
    96f2:	bd 78 
    96f4:	66 c7 85 5a f7 ff ff 	movw   $0x5056,-0x8a6(%rbp)
    96fb:	56 50 
    96fd:	66 c7 85 5c f7 ff ff 	movw   $0xfffc,-0x8a4(%rbp)
    9704:	fc ff 
    9706:	66 c7 85 8a f5 ff ff 	movw   $0x409a,-0xa76(%rbp)
    970d:	9a 40 
    970f:	66 c7 85 60 f7 ff ff 	movw   $0x52cb,-0x8a0(%rbp)
    9716:	cb 52 
    9718:	66 c7 85 62 f7 ff ff 	movw   $0x54ea,-0x89e(%rbp)
    971f:	ea 54 
    9721:	66 c7 85 64 f7 ff ff 	movw   $0x52cb,-0x89c(%rbp)
    9728:	cb 52 
    972a:	66 c7 85 66 f7 ff ff 	movw   $0xab35,-0x89a(%rbp)
    9731:	35 ab 
    9733:	66 c7 85 68 f7 ff ff 	movw   $0x7,-0x898(%rbp)
    973a:	07 00 
    973c:	66 c7 85 6a f7 ff ff 	movw   $0x0,-0x896(%rbp)
    9743:	00 00 
    9745:	66 c7 85 6c f7 ff ff 	movw   $0x6bee,-0x894(%rbp)
    974c:	ee 6b 
    974e:	66 c7 85 6e f7 ff ff 	movw   $0xab35,-0x892(%rbp)
    9755:	35 ab 
    9757:	66 c7 85 70 f7 ff ff 	movw   $0x5,-0x890(%rbp)
    975e:	05 00 
    9760:	66 c7 85 72 f7 ff ff 	movw   $0x54ea,-0x88e(%rbp)
    9767:	ea 54 
    9769:	66 c7 85 74 f7 ff ff 	movw   $0xffd7,-0x88c(%rbp)
    9770:	d7 ff 
    9772:	66 c7 85 76 f7 ff ff 	movw   $0x0,-0x88a(%rbp)
    9779:	00 00 
    977b:	66 c7 85 78 f7 ff ff 	movw   $0x6abd,-0x888(%rbp)
    9782:	bd 6a 
    9784:	66 c7 85 7a f7 ff ff 	movw   $0xbf3a,-0x886(%rbp)
    978b:	3a bf 
    978d:	66 c7 85 7c f7 ff ff 	movw   $0xffd7,-0x884(%rbp)
    9794:	d7 ff 
    9796:	66 c7 85 7e f7 ff ff 	movw   $0xbf3a,-0x882(%rbp)
    979d:	3a bf 
    979f:	66 c7 85 80 f7 ff ff 	movw   $0x5,-0x880(%rbp)
    97a6:	05 00 
    97a8:	66 c7 85 82 f7 ff ff 	movw   $0x1891,-0x87e(%rbp)
    97af:	91 18 
    97b1:	66 c7 85 84 f7 ff ff 	movw   $0x6bee,-0x87c(%rbp)
    97b8:	ee 6b 
    97ba:	66 c7 85 86 f7 ff ff 	movw   $0xfffa,-0x87a(%rbp)
    97c1:	fa ff 
    97c3:	66 c7 85 88 f7 ff ff 	movw   $0x7,-0x878(%rbp)
    97ca:	07 00 
    97cc:	66 c7 85 8a f7 ff ff 	movw   $0x1891,-0x876(%rbp)
    97d3:	91 18 
    97d5:	66 c7 85 8c f7 ff ff 	movw   $0x52cb,-0x874(%rbp)
    97dc:	cb 52 
    97de:	66 c7 85 8e f7 ff ff 	movw   $0xbf3a,-0x872(%rbp)
    97e5:	3a bf 
    97e7:	66 c7 85 90 f7 ff ff 	movw   $0x52cb,-0x870(%rbp)
    97ee:	cb 52 
    97f0:	66 c7 85 92 f7 ff ff 	movw   $0xbf3a,-0x86e(%rbp)
    97f7:	3a bf 
    97f9:	66 c7 85 94 f7 ff ff 	movw   $0x5,-0x86c(%rbp)
    9800:	05 00 
    9802:	66 c7 85 96 f7 ff ff 	movw   $0x0,-0x86a(%rbp)
    9809:	00 00 
    980b:	66 c7 85 98 f7 ff ff 	movw   $0x52cb,-0x868(%rbp)
    9812:	cb 52 
    9814:	66 c7 85 9a f7 ff ff 	movw   $0x54ea,-0x866(%rbp)
    981b:	ea 54 
    981d:	66 c7 85 9c f7 ff ff 	movw   $0x52cb,-0x864(%rbp)
    9824:	cb 52 
    9826:	66 c7 85 9e f7 ff ff 	movw   $0xab35,-0x862(%rbp)
    982d:	35 ab 
    982f:	66 c7 85 a0 f7 ff ff 	movw   $0x7,-0x860(%rbp)
    9836:	07 00 
    9838:	66 c7 85 a2 f7 ff ff 	movw   $0x0,-0x85e(%rbp)
    983f:	00 00 
    9841:	66 c7 85 a4 f7 ff ff 	movw   $0x6bee,-0x85c(%rbp)
    9848:	ee 6b 
    984a:	66 c7 85 a6 f7 ff ff 	movw   $0xab35,-0x85a(%rbp)
    9851:	35 ab 
    9853:	66 c7 85 a8 f7 ff ff 	movw   $0x5,-0x858(%rbp)
    985a:	05 00 
    985c:	66 c7 85 aa f7 ff ff 	movw   $0x54ea,-0x856(%rbp)
    9863:	ea 54 
    9865:	66 c7 85 ac f7 ff ff 	movw   $0xffd7,-0x854(%rbp)
    986c:	d7 ff 
    986e:	66 c7 85 ae f7 ff ff 	movw   $0x0,-0x852(%rbp)
    9875:	00 00 
    9877:	66 c7 85 b0 f7 ff ff 	movw   $0x6abd,-0x850(%rbp)
    987e:	bd 6a 
    9880:	66 c7 85 b2 f7 ff ff 	movw   $0xbf3a,-0x84e(%rbp)
    9887:	3a bf 
    9889:	66 c7 85 b4 f7 ff ff 	movw   $0xffd7,-0x84c(%rbp)
    9890:	d7 ff 
    9892:	66 c7 85 b6 f7 ff ff 	movw   $0xbf3a,-0x84a(%rbp)
    9899:	3a bf 
    989b:	66 c7 85 b8 f7 ff ff 	movw   $0x5,-0x848(%rbp)
    98a2:	05 00 
    98a4:	66 c7 85 ba f7 ff ff 	movw   $0x1891,-0x846(%rbp)
    98ab:	91 18 
    98ad:	66 c7 85 bc f7 ff ff 	movw   $0x6bee,-0x844(%rbp)
    98b4:	ee 6b 
    98b6:	66 c7 85 be f7 ff ff 	movw   $0xfffa,-0x842(%rbp)
    98bd:	fa ff 
    98bf:	66 c7 85 c0 f7 ff ff 	movw   $0x7,-0x840(%rbp)
    98c6:	07 00 
    98c8:	66 c7 85 c2 f7 ff ff 	movw   $0x1891,-0x83e(%rbp)
    98cf:	91 18 
    98d1:	66 c7 85 c4 f7 ff ff 	movw   $0x52cb,-0x83c(%rbp)
    98d8:	cb 52 
    98da:	66 c7 85 c6 f7 ff ff 	movw   $0xbf3a,-0x83a(%rbp)
    98e1:	3a bf 
    98e3:	66 c7 85 c8 f7 ff ff 	movw   $0x52cb,-0x838(%rbp)
    98ea:	cb 52 
    98ec:	66 c7 85 ca f7 ff ff 	movw   $0xbf3a,-0x836(%rbp)
    98f3:	3a bf 
    98f5:	66 c7 85 cc f7 ff ff 	movw   $0x5,-0x834(%rbp)
    98fc:	05 00 
    98fe:	66 c7 85 ce f7 ff ff 	movw   $0x0,-0x832(%rbp)
    9905:	00 00 
    9907:	66 c7 85 d0 f7 ff ff 	movw   $0x52cb,-0x830(%rbp)
    990e:	cb 52 
    9910:	66 c7 85 d2 f7 ff ff 	movw   $0x54ea,-0x82e(%rbp)
    9917:	ea 54 
    9919:	66 c7 85 d4 f7 ff ff 	movw   $0x52cb,-0x82c(%rbp)
    9920:	cb 52 
    9922:	66 c7 85 d6 f7 ff ff 	movw   $0xab35,-0x82a(%rbp)
    9929:	35 ab 
    992b:	66 c7 85 d8 f7 ff ff 	movw   $0x7,-0x828(%rbp)
    9932:	07 00 
    9934:	66 c7 85 da f7 ff ff 	movw   $0x0,-0x826(%rbp)
    993b:	00 00 
    993d:	66 c7 85 dc f7 ff ff 	movw   $0x6bee,-0x824(%rbp)
    9944:	ee 6b 
    9946:	66 c7 85 de f7 ff ff 	movw   $0xab35,-0x822(%rbp)
    994d:	35 ab 
    994f:	66 c7 85 e0 f7 ff ff 	movw   $0x5,-0x820(%rbp)
    9956:	05 00 
    9958:	66 c7 85 e2 f7 ff ff 	movw   $0x54ea,-0x81e(%rbp)
    995f:	ea 54 
    9961:	66 c7 85 e4 f7 ff ff 	movw   $0xffd7,-0x81c(%rbp)
    9968:	d7 ff 
    996a:	66 c7 85 e6 f7 ff ff 	movw   $0x0,-0x81a(%rbp)
    9971:	00 00 
    9973:	66 c7 85 e8 f7 ff ff 	movw   $0x6abd,-0x818(%rbp)
    997a:	bd 6a 
    997c:	66 c7 85 ea f7 ff ff 	movw   $0xbf3a,-0x816(%rbp)
    9983:	3a bf 
    9985:	66 c7 85 ec f7 ff ff 	movw   $0xffd7,-0x814(%rbp)
    998c:	d7 ff 
    998e:	66 c7 85 ee f7 ff ff 	movw   $0xbf3a,-0x812(%rbp)
    9995:	3a bf 
    9997:	c7 85 90 f5 ff ff 00 	movl   $0x0,-0xa70(%rbp)
    999e:	00 00 00 
    99a1:	eb 1e                	jmp    99c1 <func_3+0x119f>
    99a3:	8b 85 90 f5 ff ff    	mov    -0xa70(%rbp),%eax
    99a9:	48 98                	cltq   
    99ab:	48 8d 15 96 c7 00 00 	lea    0xc796(%rip),%rdx        # 16148 <g_967>
    99b2:	48 89 94 c5 a0 f6 ff 	mov    %rdx,-0x960(%rbp,%rax,8)
    99b9:	ff 
    99ba:	83 85 90 f5 ff ff 01 	addl   $0x1,-0xa70(%rbp)
    99c1:	83 bd 90 f5 ff ff 06 	cmpl   $0x6,-0xa70(%rbp)
    99c8:	7e d9                	jle    99a3 <func_3+0x1181>
    99ca:	c7 85 90 f5 ff ff 00 	movl   $0x0,-0xa70(%rbp)
    99d1:	00 00 00 
    99d4:	eb 1e                	jmp    99f4 <func_3+0x11d2>
    99d6:	8b 85 90 f5 ff ff    	mov    -0xa70(%rbp),%eax
    99dc:	48 98                	cltq   
    99de:	48 8d 95 d0 f5 ff ff 	lea    -0xa30(%rbp),%rdx
    99e5:	48 89 94 c5 70 f6 ff 	mov    %rdx,-0x990(%rbp,%rax,8)
    99ec:	ff 
    99ed:	83 85 90 f5 ff ff 01 	addl   $0x1,-0xa70(%rbp)
    99f4:	83 bd 90 f5 ff ff 04 	cmpl   $0x4,-0xa70(%rbp)
    99fb:	7e d9                	jle    99d6 <func_3+0x11b4>
    99fd:	0f b7 05 36 c7 00 00 	movzwl 0xc736(%rip),%eax        # 1613a <g_493>
    9a04:	98                   	cwtl   
    9a05:	be 01 00 00 00       	mov    $0x1,%esi
    9a0a:	89 c7                	mov    %eax,%edi
    9a0c:	e8 a7 d4 ff ff       	callq  6eb8 <safe_add_func_uint32_t_u_u>
    9a11:	66 89 05 22 c7 00 00 	mov    %ax,0xc722(%rip)        # 1613a <g_493>
    9a18:	0f b7 05 1b c7 00 00 	movzwl 0xc71b(%rip),%eax        # 1613a <g_493>
    9a1f:	66 85 c0             	test   %ax,%ax
    9a22:	0f 8e 3d ef ff ff    	jle    8965 <func_3+0x143>
    9a28:	0f b6 85 70 f5 ff ff 	movzbl -0xa90(%rbp),%eax
    9a2f:	48 8b 4d f8          	mov    -0x8(%rbp),%rcx
    9a33:	64 48 33 0c 25 28 00 	xor    %fs:0x28,%rcx
    9a3a:	00 00 
    9a3c:	74 05                	je     9a43 <func_3+0x1221>
    9a3e:	e8 2d c6 ff ff       	callq  6070 <__stack_chk_fail@plt>
    9a43:	c9                   	leaveq 
    9a44:	c3                   	retq   

0000000000009a45 <func_11>:
    9a45:	f3 0f 1e fa          	endbr64 
    9a49:	55                   	push   %rbp
    9a4a:	48 89 e5             	mov    %rsp,%rbp
    9a4d:	41 57                	push   %r15
    9a4f:	41 56                	push   %r14
    9a51:	41 55                	push   %r13
    9a53:	41 54                	push   %r12
    9a55:	53                   	push   %rbx
    9a56:	48 81 ec 78 01 00 00 	sub    $0x178,%rsp
    9a5d:	89 f8                	mov    %edi,%eax
    9a5f:	89 b5 78 fe ff ff    	mov    %esi,-0x188(%rbp)
    9a65:	48 89 95 70 fe ff ff 	mov    %rdx,-0x190(%rbp)
    9a6c:	89 8d 6c fe ff ff    	mov    %ecx,-0x194(%rbp)
    9a72:	66 89 85 7c fe ff ff 	mov    %ax,-0x184(%rbp)
    9a79:	64 48 8b 04 25 28 00 	mov    %fs:0x28,%rax
    9a80:	00 00 
    9a82:	48 89 45 c8          	mov    %rax,-0x38(%rbp)
    9a86:	31 c0                	xor    %eax,%eax
    9a88:	c7 85 90 fe ff ff 01 	movl   $0x1,-0x170(%rbp)
    9a8f:	00 00 00 
    9a92:	c7 85 00 ff ff ff f8 	movl   $0xfffffff8,-0x100(%rbp)
    9a99:	ff ff ff 
    9a9c:	c7 85 04 ff ff ff f8 	movl   $0xfffffff8,-0xfc(%rbp)
    9aa3:	ff ff ff 
    9aa6:	c7 85 08 ff ff ff ff 	movl   $0xffffffff,-0xf8(%rbp)
    9aad:	ff ff ff 
    9ab0:	c7 85 0c ff ff ff f8 	movl   $0xfffffff8,-0xf4(%rbp)
    9ab7:	ff ff ff 
    9aba:	c7 85 10 ff ff ff f8 	movl   $0xfffffff8,-0xf0(%rbp)
    9ac1:	ff ff ff 
    9ac4:	c7 85 14 ff ff ff ff 	movl   $0xffffffff,-0xec(%rbp)
    9acb:	ff ff ff 
    9ace:	c7 85 18 ff ff ff f8 	movl   $0xfffffff8,-0xe8(%rbp)
    9ad5:	ff ff ff 
    9ad8:	c7 85 1c ff ff ff f8 	movl   $0xfffffff8,-0xe4(%rbp)
    9adf:	ff ff ff 
    9ae2:	c7 85 20 ff ff ff 00 	movl   $0x0,-0xe0(%rbp)
    9ae9:	00 00 00 
    9aec:	c7 85 24 ff ff ff f8 	movl   $0xfffffff8,-0xdc(%rbp)
    9af3:	ff ff ff 
    9af6:	c7 85 28 ff ff ff 00 	movl   $0x0,-0xd8(%rbp)
    9afd:	00 00 00 
    9b00:	c7 85 2c ff ff ff 00 	movl   $0x0,-0xd4(%rbp)
    9b07:	00 00 00 
    9b0a:	c7 85 30 ff ff ff f8 	movl   $0xfffffff8,-0xd0(%rbp)
    9b11:	ff ff ff 
    9b14:	c7 85 34 ff ff ff 00 	movl   $0x0,-0xcc(%rbp)
    9b1b:	00 00 00 
    9b1e:	c7 85 38 ff ff ff 00 	movl   $0x0,-0xc8(%rbp)
    9b25:	00 00 00 
    9b28:	c7 85 3c ff ff ff f8 	movl   $0xfffffff8,-0xc4(%rbp)
    9b2f:	ff ff ff 
    9b32:	c7 85 40 ff ff ff f8 	movl   $0xfffffff8,-0xc0(%rbp)
    9b39:	ff ff ff 
    9b3c:	c7 85 44 ff ff ff 00 	movl   $0x0,-0xbc(%rbp)
    9b43:	00 00 00 
    9b46:	c7 85 48 ff ff ff 00 	movl   $0x0,-0xb8(%rbp)
    9b4d:	00 00 00 
    9b50:	c7 85 4c ff ff ff f8 	movl   $0xfffffff8,-0xb4(%rbp)
    9b57:	ff ff ff 
    9b5a:	c7 85 50 ff ff ff 00 	movl   $0x0,-0xb0(%rbp)
    9b61:	00 00 00 
    9b64:	c7 85 54 ff ff ff 00 	movl   $0x0,-0xac(%rbp)
    9b6b:	00 00 00 
    9b6e:	c7 85 58 ff ff ff f8 	movl   $0xfffffff8,-0xa8(%rbp)
    9b75:	ff ff ff 
    9b78:	c7 85 5c ff ff ff 00 	movl   $0x0,-0xa4(%rbp)
    9b7f:	00 00 00 
    9b82:	c7 85 60 ff ff ff f8 	movl   $0xfffffff8,-0xa0(%rbp)
    9b89:	ff ff ff 
    9b8c:	c7 85 64 ff ff ff f8 	movl   $0xfffffff8,-0x9c(%rbp)
    9b93:	ff ff ff 
    9b96:	c7 85 68 ff ff ff ff 	movl   $0xffffffff,-0x98(%rbp)
    9b9d:	ff ff ff 
    9ba0:	c7 85 6c ff ff ff f8 	movl   $0xfffffff8,-0x94(%rbp)
    9ba7:	ff ff ff 
    9baa:	c7 85 70 ff ff ff f8 	movl   $0xfffffff8,-0x90(%rbp)
    9bb1:	ff ff ff 
    9bb4:	c7 85 74 ff ff ff ff 	movl   $0xffffffff,-0x8c(%rbp)
    9bbb:	ff ff ff 
    9bbe:	c7 85 78 ff ff ff f8 	movl   $0xfffffff8,-0x88(%rbp)
    9bc5:	ff ff ff 
    9bc8:	c7 85 7c ff ff ff f8 	movl   $0xfffffff8,-0x84(%rbp)
    9bcf:	ff ff ff 
    9bd2:	c7 45 80 00 00 00 00 	movl   $0x0,-0x80(%rbp)
    9bd9:	c7 45 84 f8 ff ff ff 	movl   $0xfffffff8,-0x7c(%rbp)
    9be0:	c7 45 88 00 00 00 00 	movl   $0x0,-0x78(%rbp)
    9be7:	c7 45 8c 00 00 00 00 	movl   $0x0,-0x74(%rbp)
    9bee:	c7 45 90 f8 ff ff ff 	movl   $0xfffffff8,-0x70(%rbp)
    9bf5:	c7 45 94 00 00 00 00 	movl   $0x0,-0x6c(%rbp)
    9bfc:	c7 45 98 00 00 00 00 	movl   $0x0,-0x68(%rbp)
    9c03:	c7 45 9c f8 ff ff ff 	movl   $0xfffffff8,-0x64(%rbp)
    9c0a:	c7 45 a0 f8 ff ff ff 	movl   $0xfffffff8,-0x60(%rbp)
    9c11:	c7 45 a4 00 00 00 00 	movl   $0x0,-0x5c(%rbp)
    9c18:	c7 45 a8 00 00 00 00 	movl   $0x0,-0x58(%rbp)
    9c1f:	c7 45 ac f8 ff ff ff 	movl   $0xfffffff8,-0x54(%rbp)
    9c26:	c7 45 b0 00 00 00 00 	movl   $0x0,-0x50(%rbp)
    9c2d:	c7 45 b4 00 00 00 00 	movl   $0x0,-0x4c(%rbp)
    9c34:	c7 45 b8 f8 ff ff ff 	movl   $0xfffffff8,-0x48(%rbp)
    9c3b:	c7 45 bc 00 00 00 00 	movl   $0x0,-0x44(%rbp)
    9c42:	48 8d 05 eb c5 00 00 	lea    0xc5eb(%rip),%rax        # 16234 <g_1502>
    9c49:	48 89 85 a0 fe ff ff 	mov    %rax,-0x160(%rbp)
    9c50:	48 8d 05 e3 c4 00 00 	lea    0xc4e3(%rip),%rax        # 1613a <g_493>
    9c57:	48 89 85 a8 fe ff ff 	mov    %rax,-0x158(%rbp)
    9c5e:	48 8d 05 43 c4 00 00 	lea    0xc443(%rip),%rax        # 160a8 <g_152>
    9c65:	48 89 85 b0 fe ff ff 	mov    %rax,-0x150(%rbp)
    9c6c:	c7 85 88 fe ff ff 00 	movl   $0x0,-0x178(%rbp)
    9c73:	00 00 00 
    9c76:	eb 1a                	jmp    9c92 <func_11+0x24d>
    9c78:	8b 85 88 fe ff ff    	mov    -0x178(%rbp),%eax
    9c7e:	48 98                	cltq   
    9c80:	c7 84 85 c0 fe ff ff 	movl   $0xeb8533d9,-0x140(%rbp,%rax,4)
    9c87:	d9 33 85 eb 
    9c8b:	83 85 88 fe ff ff 01 	addl   $0x1,-0x178(%rbp)
    9c92:	83 bd 88 fe ff ff 04 	cmpl   $0x4,-0x178(%rbp)
    9c99:	7e dd                	jle    9c78 <func_11+0x233>
    9c9b:	48 0f bf 9d 7c fe ff 	movswq -0x184(%rbp),%rbx
    9ca2:	ff 
    9ca3:	48 8b 85 70 fe ff ff 	mov    -0x190(%rbp),%rax
    9caa:	89 45 a8             	mov    %eax,-0x58(%rbp)
    9cad:	8b 85 78 fe ff ff    	mov    -0x188(%rbp),%eax
    9cb3:	44 0f be f8          	movsbl %al,%r15d
    9cb7:	48 8b 05 7a dc 00 00 	mov    0xdc7a(%rip),%rax        # 17938 <g_556>
    9cbe:	0f b6 00             	movzbl (%rax),%eax
    9cc1:	44 0f b6 f0          	movzbl %al,%r14d
    9cc5:	48 8b 05 bc dd 00 00 	mov    0xddbc(%rip),%rax        # 17a88 <g_1216>
    9ccc:	48 8b 00             	mov    (%rax),%rax
    9ccf:	48 8b 00             	mov    (%rax),%rax
    9cd2:	0f b7 00             	movzwl (%rax),%eax
    9cd5:	44 0f b7 e8          	movzwl %ax,%r13d
    9cd9:	8b 85 90 fe ff ff    	mov    -0x170(%rbp),%eax
    9cdf:	44 0f be e0          	movsbl %al,%r12d
    9ce3:	8b 85 7c ff ff ff    	mov    -0x84(%rbp),%eax
    9ce9:	48 63 c8             	movslq %eax,%rcx
    9cec:	48 8b 15 75 e8 00 00 	mov    0xe875(%rip),%rdx        # 18568 <g_42>
    9cf3:	0f b6 05 2a c3 00 00 	movzbl 0xc32a(%rip),%eax        # 16024 <g_2>
    9cfa:	0f be f0             	movsbl %al,%esi
    9cfd:	48 8b 05 bc db 00 00 	mov    0xdbbc(%rip),%rax        # 178c0 <g_40>
    9d04:	48 8d bd 00 ff ff ff 	lea    -0x100(%rbp),%rdi
    9d0b:	48 81 c7 a8 00 00 00 	add    $0xa8,%rdi
    9d12:	48 39 f8             	cmp    %rdi,%rax
    9d15:	0f 94 c0             	sete   %al
    9d18:	0f b6 c0             	movzbl %al,%eax
    9d1b:	89 c7                	mov    %eax,%edi
    9d1d:	e8 de 49 00 00       	callq  e700 <func_35>
    9d22:	45 89 f8             	mov    %r15d,%r8d
    9d25:	44 89 f1             	mov    %r14d,%ecx
    9d28:	44 89 ea             	mov    %r13d,%edx
    9d2b:	44 89 e6             	mov    %r12d,%esi
    9d2e:	48 89 c7             	mov    %rax,%rdi
    9d31:	e8 0c 48 00 00       	callq  e542 <func_29>
    9d36:	0f be d0             	movsbl %al,%edx
    9d39:	48 8b 05 f8 db 00 00 	mov    0xdbf8(%rip),%rax        # 17938 <g_556>
    9d40:	0f b6 00             	movzbl (%rax),%eax
    9d43:	0f b6 c0             	movzbl %al,%eax
    9d46:	39 c2                	cmp    %eax,%edx
    9d48:	0f 9e c0             	setle  %al
    9d4b:	0f b6 c8             	movzbl %al,%ecx
    9d4e:	8b 95 90 fe ff ff    	mov    -0x170(%rbp),%edx
    9d54:	0f bf b5 7c fe ff ff 	movswl -0x184(%rbp),%esi
    9d5b:	0f b6 05 c2 c2 00 00 	movzbl 0xc2c2(%rip),%eax        # 16024 <g_2>
    9d62:	0f b6 c0             	movzbl %al,%eax
    9d65:	48 8b bd 70 fe ff ff 	mov    -0x190(%rbp),%rdi
    9d6c:	49 89 f8             	mov    %rdi,%r8
    9d6f:	89 c7                	mov    %eax,%edi
    9d71:	e8 da 04 00 00       	callq  a250 <func_22>
    9d76:	0f be c0             	movsbl %al,%eax
    9d79:	39 85 90 fe ff ff    	cmp    %eax,-0x170(%rbp)
    9d7f:	0f 97 c2             	seta   %dl
    9d82:	48 8b 05 87 dd 00 00 	mov    0xdd87(%rip),%rax        # 17b10 <g_1499>
    9d89:	48 8b 00             	mov    (%rax),%rax
    9d8c:	88 10                	mov    %dl,(%rax)
    9d8e:	8b 85 90 fe ff ff    	mov    -0x170(%rbp),%eax
    9d94:	4c 8b 25 55 dc 00 00 	mov    0xdc55(%rip),%r12        # 179f0 <g_794>
    9d9b:	48 8b 95 a0 fe ff ff 	mov    -0x160(%rbp),%rdx
    9da2:	48 89 d9             	mov    %rbx,%rcx
    9da5:	be 00 00 00 00       	mov    $0x0,%esi
    9daa:	89 c7                	mov    %eax,%edi
    9dac:	e8 63 02 00 00       	callq  a014 <func_16>
    9db1:	49 89 04 24          	mov    %rax,(%r12)
    9db5:	c7 05 81 c3 00 00 00 	movl   $0x0,0xc381(%rip)        # 16140 <g_748>
    9dbc:	00 00 00 
    9dbf:	e9 15 02 00 00       	jmpq   9fd9 <func_11+0x594>
    9dc4:	c7 85 94 fe ff ff d0 	movl   $0x69eb43d0,-0x16c(%rbp)
    9dcb:	43 eb 69 
    9dce:	c6 85 87 fe ff ff 1e 	movb   $0x1e,-0x179(%rbp)
    9dd5:	c7 85 98 fe ff ff 7e 	movl   $0x6eed717e,-0x168(%rbp)
    9ddc:	71 ed 6e 
    9ddf:	48 8d 05 42 c4 00 00 	lea    0xc442(%rip),%rax        # 16228 <g_1409>
    9de6:	48 89 85 b8 fe ff ff 	mov    %rax,-0x148(%rbp)
    9ded:	c7 85 9c fe ff ff ff 	movl   $0xffffffff,-0x164(%rbp)
    9df4:	ff ff ff 
    9df7:	c7 85 8c fe ff ff 00 	movl   $0x0,-0x174(%rbp)
    9dfe:	00 00 00 
    9e01:	eb 1e                	jmp    9e21 <func_11+0x3dc>
    9e03:	8b 85 8c fe ff ff    	mov    -0x174(%rbp),%eax
    9e09:	48 98                	cltq   
    9e0b:	48 8d 15 d6 db 00 00 	lea    0xdbd6(%rip),%rdx        # 179e8 <g_758>
    9e12:	48 89 94 c5 e0 fe ff 	mov    %rdx,-0x120(%rbp,%rax,8)
    9e19:	ff 
    9e1a:	83 85 8c fe ff ff 01 	addl   $0x1,-0x174(%rbp)
    9e21:	83 bd 8c fe ff ff 03 	cmpl   $0x3,-0x174(%rbp)
    9e28:	7e d9                	jle    9e03 <func_11+0x3be>
    9e2a:	8b 85 c0 fe ff ff    	mov    -0x140(%rbp),%eax
    9e30:	41 89 c6             	mov    %eax,%r14d
    9e33:	48 8b 85 a0 fe ff ff 	mov    -0x160(%rbp),%rax
    9e3a:	8b 00                	mov    (%rax),%eax
    9e3c:	0f b6 d8             	movzbl %al,%ebx
    9e3f:	44 0f be a5 87 fe ff 	movsbl -0x179(%rbp),%r12d
    9e46:	ff 
    9e47:	48 8b 05 e2 da 00 00 	mov    0xdae2(%rip),%rax        # 17930 <g_492>
    9e4e:	0f b7 00             	movzwl (%rax),%eax
    9e51:	44 0f bf e8          	movswl %ax,%r13d
    9e55:	48 8b 15 84 da 00 00 	mov    0xda84(%rip),%rdx        # 178e0 <g_192>
    9e5c:	8b 02                	mov    (%rdx),%eax
    9e5e:	8d 48 ff             	lea    -0x1(%rax),%ecx
    9e61:	89 0a                	mov    %ecx,(%rdx)
    9e63:	48 8d 15 42 c4 00 00 	lea    0xc442(%rip),%rdx        # 162ac <g_2023+0x4c>
    9e6a:	89 02                	mov    %eax,(%rdx)
    9e6c:	48 8b 85 a8 fe ff ff 	mov    -0x158(%rbp),%rax
    9e73:	48 89 05 6e db 00 00 	mov    %rax,0xdb6e(%rip)        # 179e8 <g_758>
    9e7a:	48 8b 05 67 db 00 00 	mov    0xdb67(%rip),%rax        # 179e8 <g_758>
    9e81:	48 39 85 b8 fe ff ff 	cmp    %rax,-0x148(%rbp)
    9e88:	0f 95 c0             	setne  %al
    9e8b:	0f b6 d0             	movzbl %al,%edx
    9e8e:	48 8b 85 b0 fe ff ff 	mov    -0x150(%rbp),%rax
    9e95:	48 89 10             	mov    %rdx,(%rax)
    9e98:	48 8b 85 b0 fe ff ff 	mov    -0x150(%rbp),%rax
    9e9f:	48 8b 10             	mov    (%rax),%rdx
    9ea2:	48 8b 05 cf dc 00 00 	mov    0xdccf(%rip),%rax        # 17b78 <g_2294>
    9ea9:	0f b6 85 87 fe ff ff 	movzbl -0x179(%rbp),%eax
    9eb0:	0f be c0             	movsbl %al,%eax
    9eb3:	31 85 98 fe ff ff    	xor    %eax,-0x168(%rbp)
    9eb9:	8b 85 98 fe ff ff    	mov    -0x168(%rbp),%eax
    9ebf:	48 98                	cltq   
    9ec1:	48 89 d6             	mov    %rdx,%rsi
    9ec4:	48 89 c7             	mov    %rax,%rdi
    9ec7:	e8 7f d1 ff ff       	callq  704b <safe_sub_func_uint64_t_u_u>
    9ecc:	48 0d 58 b5 00 00    	or     $0xb558,%rax
    9ed2:	48 89 c2             	mov    %rax,%rdx
    9ed5:	48 8d 05 54 c3 00 00 	lea    0xc354(%rip),%rax        # 16230 <g_1501>
    9edc:	0f b6 00             	movzbl (%rax),%eax
    9edf:	0f b6 c0             	movzbl %al,%eax
    9ee2:	48 21 c2             	and    %rax,%rdx
    9ee5:	8b 85 78 fe ff ff    	mov    -0x188(%rbp),%eax
    9eeb:	48 39 c2             	cmp    %rax,%rdx
    9eee:	0f 93 c0             	setae  %al
    9ef1:	0f b6 c0             	movzbl %al,%eax
    9ef4:	44 89 ee             	mov    %r13d,%esi
    9ef7:	89 c7                	mov    %eax,%edi
    9ef9:	e8 d5 c4 ff ff       	callq  63d3 <safe_sub_func_int16_t_s_s>
    9efe:	98                   	cwtl   
    9eff:	44 89 e6             	mov    %r12d,%esi
    9f02:	89 c7                	mov    %eax,%edi
    9f04:	e8 c3 c7 ff ff       	callq  66cc <safe_mod_func_int32_t_s_s>
    9f09:	0f bf 95 7c fe ff ff 	movswl -0x184(%rbp),%edx
    9f10:	39 d0                	cmp    %edx,%eax
    9f12:	0f 9d c0             	setge  %al
    9f15:	0f b6 d0             	movzbl %al,%edx
    9f18:	48 8b 05 11 da 00 00 	mov    0xda11(%rip),%rax        # 17930 <g_492>
    9f1f:	0f b7 00             	movzwl (%rax),%eax
    9f22:	98                   	cwtl   
    9f23:	39 c2                	cmp    %eax,%edx
    9f25:	0f 9e c0             	setle  %al
    9f28:	0f b6 c0             	movzbl %al,%eax
    9f2b:	89 de                	mov    %ebx,%esi
    9f2d:	89 c7                	mov    %eax,%edi
    9f2f:	e8 5f cc ff ff       	callq  6b93 <safe_mul_func_uint8_t_u_u>
    9f34:	84 c0                	test   %al,%al
    9f36:	75 0b                	jne    9f43 <func_11+0x4fe>
    9f38:	48 8b 85 a0 fe ff ff 	mov    -0x160(%rbp),%rax
    9f3f:	8b 00                	mov    (%rax),%eax
    9f41:	85 c0                	test   %eax,%eax
    9f43:	48 8b 05 ee d9 00 00 	mov    0xd9ee(%rip),%rax        # 17938 <g_556>
    9f4a:	c6 00 01             	movb   $0x1,(%rax)
    9f4d:	0f b6 00             	movzbl (%rax),%eax
    9f50:	0f b6 c0             	movzbl %al,%eax
    9f53:	be 07 00 00 00       	mov    $0x7,%esi
    9f58:	89 c7                	mov    %eax,%edi
    9f5a:	e8 a6 cc ff ff       	callq  6c05 <safe_lshift_func_uint8_t_u_s>
    9f5f:	48 8b 05 12 dc 00 00 	mov    0xdc12(%rip),%rax        # 17b78 <g_2294>
    9f66:	48 8b 00             	mov    (%rax),%rax
    9f69:	48 83 f8 ff          	cmp    $0xffffffffffffffff,%rax
    9f6d:	0f 95 c0             	setne  %al
    9f70:	0f b6 c0             	movzbl %al,%eax
    9f73:	4c 89 f6             	mov    %r14,%rsi
    9f76:	48 89 c7             	mov    %rax,%rdi
    9f79:	e8 b0 d0 ff ff       	callq  702e <safe_add_func_uint64_t_u_u>
    9f7e:	8b 95 94 fe ff ff    	mov    -0x16c(%rbp),%edx
    9f84:	48 63 d2             	movslq %edx,%rdx
    9f87:	48 39 d0             	cmp    %rdx,%rax
    9f8a:	0f 97 c0             	seta   %al
    9f8d:	0f b6 d0             	movzbl %al,%edx
    9f90:	48 8b 05 99 d9 00 00 	mov    0xd999(%rip),%rax        # 17930 <g_492>
    9f97:	0f b7 00             	movzwl (%rax),%eax
    9f9a:	98                   	cwtl   
    9f9b:	39 c2                	cmp    %eax,%edx
    9f9d:	0f 94 c0             	sete   %al
    9fa0:	0f b6 c0             	movzbl %al,%eax
    9fa3:	09 85 9c fe ff ff    	or     %eax,-0x164(%rbp)
    9fa9:	48 8b 85 70 fe ff ff 	mov    -0x190(%rbp),%rax
    9fb0:	89 c2                	mov    %eax,%edx
    9fb2:	48 8b 85 a0 fe ff ff 	mov    -0x160(%rbp),%rax
    9fb9:	89 10                	mov    %edx,(%rax)
    9fbb:	8b 05 7f c1 00 00    	mov    0xc17f(%rip),%eax        # 16140 <g_748>
    9fc1:	0f b6 c0             	movzbl %al,%eax
    9fc4:	be 08 00 00 00       	mov    $0x8,%esi
    9fc9:	89 c7                	mov    %eax,%edi
    9fcb:	e8 a8 cb ff ff       	callq  6b78 <safe_sub_func_uint8_t_u_u>
    9fd0:	0f b6 c0             	movzbl %al,%eax
    9fd3:	89 05 67 c1 00 00    	mov    %eax,0xc167(%rip)        # 16140 <g_748>
    9fd9:	8b 05 61 c1 00 00    	mov    0xc161(%rip),%eax        # 16140 <g_748>
    9fdf:	83 f8 eb             	cmp    $0xffffffeb,%eax
    9fe2:	0f 8d dc fd ff ff    	jge    9dc4 <func_11+0x37f>
    9fe8:	8b 85 78 fe ff ff    	mov    -0x188(%rbp),%eax
    9fee:	48 8b 5d c8          	mov    -0x38(%rbp),%rbx
    9ff2:	64 48 33 1c 25 28 00 	xor    %fs:0x28,%rbx
    9ff9:	00 00 
    9ffb:	74 05                	je     a002 <func_11+0x5bd>
    9ffd:	e8 6e c0 ff ff       	callq  6070 <__stack_chk_fail@plt>
    a002:	48 81 c4 78 01 00 00 	add    $0x178,%rsp
    a009:	5b                   	pop    %rbx
    a00a:	41 5c                	pop    %r12
    a00c:	41 5d                	pop    %r13
    a00e:	41 5e                	pop    %r14
    a010:	41 5f                	pop    %r15
    a012:	5d                   	pop    %rbp
    a013:	c3                   	retq   

000000000000a014 <func_16>:
    a014:	f3 0f 1e fa          	endbr64 
    a018:	55                   	push   %rbp
    a019:	48 89 e5             	mov    %rsp,%rbp
    a01c:	48 81 ec 00 01 00 00 	sub    $0x100,%rsp
    a023:	89 bd 1c ff ff ff    	mov    %edi,-0xe4(%rbp)
    a029:	89 b5 18 ff ff ff    	mov    %esi,-0xe8(%rbp)
    a02f:	48 89 95 10 ff ff ff 	mov    %rdx,-0xf0(%rbp)
    a036:	48 89 8d 08 ff ff ff 	mov    %rcx,-0xf8(%rbp)
    a03d:	64 48 8b 04 25 28 00 	mov    %fs:0x28,%rax
    a044:	00 00 
    a046:	48 89 45 f8          	mov    %rax,-0x8(%rbp)
    a04a:	31 c0                	xor    %eax,%eax
    a04c:	c6 85 27 ff ff ff fd 	movb   $0xfd,-0xd9(%rbp)
    a053:	c7 85 2c ff ff ff 00 	movl   $0x0,-0xd4(%rbp)
    a05a:	00 00 00 
    a05d:	66 c7 45 90 01 00    	movw   $0x1,-0x70(%rbp)
    a063:	66 c7 45 92 01 00    	movw   $0x1,-0x6e(%rbp)
    a069:	66 c7 45 94 01 00    	movw   $0x1,-0x6c(%rbp)
    a06f:	66 c7 45 96 00 2a    	movw   $0x2a00,-0x6a(%rbp)
    a075:	66 c7 45 98 45 2b    	movw   $0x2b45,-0x68(%rbp)
    a07b:	66 c7 45 9a 00 00    	movw   $0x0,-0x66(%rbp)
    a081:	66 c7 45 9c 01 00    	movw   $0x1,-0x64(%rbp)
    a087:	66 c7 45 9e ff ff    	movw   $0xffff,-0x62(%rbp)
    a08d:	66 c7 45 a0 aa 9b    	movw   $0x9baa,-0x60(%rbp)
    a093:	66 c7 45 a2 ff ff    	movw   $0xffff,-0x5e(%rbp)
    a099:	66 c7 45 a4 b5 64    	movw   $0x64b5,-0x5c(%rbp)
    a09f:	66 c7 45 a6 ae 6a    	movw   $0x6aae,-0x5a(%rbp)
    a0a5:	66 c7 45 a8 ff ff    	movw   $0xffff,-0x58(%rbp)
    a0ab:	66 c7 45 aa 00 00    	movw   $0x0,-0x56(%rbp)
    a0b1:	66 c7 45 ac f8 ff    	movw   $0xfff8,-0x54(%rbp)
    a0b7:	66 c7 45 ae b5 64    	movw   $0x64b5,-0x52(%rbp)
    a0bd:	66 c7 45 b0 b5 64    	movw   $0x64b5,-0x50(%rbp)
    a0c3:	66 c7 45 b2 f8 ff    	movw   $0xfff8,-0x4e(%rbp)
    a0c9:	66 c7 45 b4 00 00    	movw   $0x0,-0x4c(%rbp)
    a0cf:	66 c7 45 b6 ff ff    	movw   $0xffff,-0x4a(%rbp)
    a0d5:	66 c7 45 b8 ae 6a    	movw   $0x6aae,-0x48(%rbp)
    a0db:	66 c7 45 ba b5 64    	movw   $0x64b5,-0x46(%rbp)
    a0e1:	66 c7 45 bc ff ff    	movw   $0xffff,-0x44(%rbp)
    a0e7:	66 c7 45 be aa 9b    	movw   $0x9baa,-0x42(%rbp)
    a0ed:	66 c7 45 c0 ff ff    	movw   $0xffff,-0x40(%rbp)
    a0f3:	66 c7 45 c2 b5 64    	movw   $0x64b5,-0x3e(%rbp)
    a0f9:	66 c7 45 c4 ae 6a    	movw   $0x6aae,-0x3c(%rbp)
    a0ff:	66 c7 45 c6 ff ff    	movw   $0xffff,-0x3a(%rbp)
    a105:	66 c7 45 c8 00 00    	movw   $0x0,-0x38(%rbp)
    a10b:	66 c7 45 ca f8 ff    	movw   $0xfff8,-0x36(%rbp)
    a111:	66 c7 45 cc b5 64    	movw   $0x64b5,-0x34(%rbp)
    a117:	66 c7 45 ce b5 64    	movw   $0x64b5,-0x32(%rbp)
    a11d:	66 c7 45 d0 f8 ff    	movw   $0xfff8,-0x30(%rbp)
    a123:	66 c7 45 d2 00 00    	movw   $0x0,-0x2e(%rbp)
    a129:	66 c7 45 d4 ff ff    	movw   $0xffff,-0x2c(%rbp)
    a12f:	66 c7 45 d6 ae 6a    	movw   $0x6aae,-0x2a(%rbp)
    a135:	66 c7 45 d8 b5 64    	movw   $0x64b5,-0x28(%rbp)
    a13b:	66 c7 45 da ff ff    	movw   $0xffff,-0x26(%rbp)
    a141:	66 c7 45 dc aa 9b    	movw   $0x9baa,-0x24(%rbp)
    a147:	66 c7 45 de ff ff    	movw   $0xffff,-0x22(%rbp)
    a14d:	66 c7 45 e0 b5 64    	movw   $0x64b5,-0x20(%rbp)
    a153:	66 c7 45 e2 ae 6a    	movw   $0x6aae,-0x1e(%rbp)
    a159:	66 c7 45 e4 ff ff    	movw   $0xffff,-0x1c(%rbp)
    a15f:	66 c7 45 e6 00 00    	movw   $0x0,-0x1a(%rbp)
    a165:	66 c7 45 e8 f8 ff    	movw   $0xfff8,-0x18(%rbp)
    a16b:	66 c7 45 ea b5 64    	movw   $0x64b5,-0x16(%rbp)
    a171:	66 c7 45 ec b5 64    	movw   $0x64b5,-0x14(%rbp)
    a177:	66 c7 45 ee f8 ff    	movw   $0xfff8,-0x12(%rbp)
    a17d:	66 c7 45 f0 00 00    	movw   $0x0,-0x10(%rbp)
    a183:	c7 85 28 ff ff ff 00 	movl   $0x0,-0xd8(%rbp)
    a18a:	00 00 00 
    a18d:	eb 1b                	jmp    a1aa <func_16+0x196>
    a18f:	8b 85 28 ff ff ff    	mov    -0xd8(%rbp),%eax
    a195:	48 98                	cltq   
    a197:	48 c7 84 c5 50 ff ff 	movq   $0x0,-0xb0(%rbp,%rax,8)
    a19e:	ff 00 00 00 00 
    a1a3:	83 85 28 ff ff ff 01 	addl   $0x1,-0xd8(%rbp)
    a1aa:	83 bd 28 ff ff ff 07 	cmpl   $0x7,-0xd8(%rbp)
    a1b1:	7e dc                	jle    a18f <func_16+0x17b>
    a1b3:	90                   	nop
    a1b4:	0f b6 85 27 ff ff ff 	movzbl -0xd9(%rbp),%eax
    a1bb:	83 c0 01             	add    $0x1,%eax
    a1be:	88 85 27 ff ff ff    	mov    %al,-0xd9(%rbp)
    a1c4:	66 c7 05 5b c0 00 00 	movw   $0xfffb,0xc05b(%rip)        # 16228 <g_1409>
    a1cb:	fb ff 
    a1cd:	eb 57                	jmp    a226 <func_16+0x212>
    a1cf:	c7 85 30 ff ff ff a5 	movl   $0xd9ca58a5,-0xd0(%rbp)
    a1d6:	58 ca d9 
    a1d9:	48 c7 85 38 ff ff ff 	movq   $0x0,-0xc8(%rbp)
    a1e0:	00 00 00 00 
    a1e4:	c7 85 34 ff ff ff a9 	movl   $0x877ca7a9,-0xcc(%rbp)
    a1eb:	a7 7c 87 
    a1ee:	48 c7 85 40 ff ff ff 	movq   $0x0,-0xc0(%rbp)
    a1f5:	00 00 00 00 
    a1f9:	48 8d 05 d0 d6 00 00 	lea    0xd6d0(%rip),%rax        # 178d0 <g_117>
    a200:	48 89 85 48 ff ff ff 	mov    %rax,-0xb8(%rbp)
    a207:	0f b7 05 1a c0 00 00 	movzwl 0xc01a(%rip),%eax        # 16228 <g_1409>
    a20e:	66 85 c0             	test   %ax,%ax
    a211:	74 02                	je     a215 <func_16+0x201>
    a213:	eb 9f                	jmp    a1b4 <func_16+0x1a0>
    a215:	0f b7 05 0c c0 00 00 	movzwl 0xc00c(%rip),%eax        # 16228 <g_1409>
    a21c:	83 c0 01             	add    $0x1,%eax
    a21f:	66 89 05 02 c0 00 00 	mov    %ax,0xc002(%rip)        # 16228 <g_1409>
    a226:	0f b7 05 fb bf 00 00 	movzwl 0xbffb(%rip),%eax        # 16228 <g_1409>
    a22d:	66 83 f8 03          	cmp    $0x3,%ax
    a231:	76 9c                	jbe    a1cf <func_16+0x1bb>
    a233:	48 8b 85 58 ff ff ff 	mov    -0xa8(%rbp),%rax
    a23a:	48 8b 55 f8          	mov    -0x8(%rbp),%rdx
    a23e:	64 48 33 14 25 28 00 	xor    %fs:0x28,%rdx
    a245:	00 00 
    a247:	74 05                	je     a24e <func_16+0x23a>
    a249:	e8 22 be ff ff       	callq  6070 <__stack_chk_fail@plt>
    a24e:	c9                   	leaveq 
    a24f:	c3                   	retq   

000000000000a250 <func_22>:
    a250:	f3 0f 1e fa          	endbr64 
    a254:	55                   	push   %rbp
    a255:	48 89 e5             	mov    %rsp,%rbp
    a258:	41 57                	push   %r15
    a25a:	41 56                	push   %r14
    a25c:	41 55                	push   %r13
    a25e:	41 54                	push   %r12
    a260:	53                   	push   %rbx
    a261:	48 81 ec 00 10 00 00 	sub    $0x1000,%rsp
    a268:	48 83 0c 24 00       	orq    $0x0,(%rsp)
    a26d:	48 81 ec 28 08 00 00 	sub    $0x828,%rsp
    a274:	89 bd cc e7 ff ff    	mov    %edi,-0x1834(%rbp)
    a27a:	89 f0                	mov    %esi,%eax
    a27c:	89 95 c4 e7 ff ff    	mov    %edx,-0x183c(%rbp)
    a282:	89 ca                	mov    %ecx,%edx
    a284:	4c 89 85 b8 e7 ff ff 	mov    %r8,-0x1848(%rbp)
    a28b:	66 89 85 c8 e7 ff ff 	mov    %ax,-0x1838(%rbp)
    a292:	89 d0                	mov    %edx,%eax
    a294:	88 85 c0 e7 ff ff    	mov    %al,-0x1840(%rbp)
    a29a:	64 48 8b 04 25 28 00 	mov    %fs:0x28,%rax
    a2a1:	00 00 
    a2a3:	48 89 45 c8          	mov    %rax,-0x38(%rbp)
    a2a7:	31 c0                	xor    %eax,%eax
    a2a9:	48 8d 85 40 f1 ff ff 	lea    -0xec0(%rbp),%rax
    a2b0:	48 8d 15 89 78 00 00 	lea    0x7889(%rip),%rdx        # 11b40 <g_2687+0xa90>
    a2b7:	b9 40 00 00 00       	mov    $0x40,%ecx
    a2bc:	48 89 c7             	mov    %rax,%rdi
    a2bf:	48 89 d6             	mov    %rdx,%rsi
    a2c2:	f3 48 a5             	rep movsq %ds:(%rsi),%es:(%rdi)
    a2c5:	48 8d 05 7c be 00 00 	lea    0xbe7c(%rip),%rax        # 16148 <g_967>
    a2cc:	48 89 85 20 e9 ff ff 	mov    %rax,-0x16e0(%rbp)
    a2d3:	48 8d 85 20 e9 ff ff 	lea    -0x16e0(%rbp),%rax
    a2da:	48 89 85 28 e9 ff ff 	mov    %rax,-0x16d8(%rbp)
    a2e1:	48 8d 85 28 e9 ff ff 	lea    -0x16d8(%rbp),%rax
    a2e8:	48 89 85 80 ef ff ff 	mov    %rax,-0x1080(%rbp)
    a2ef:	48 8d 85 28 e9 ff ff 	lea    -0x16d8(%rbp),%rax
    a2f6:	48 89 85 88 ef ff ff 	mov    %rax,-0x1078(%rbp)
    a2fd:	48 8d 85 28 e9 ff ff 	lea    -0x16d8(%rbp),%rax
    a304:	48 89 85 90 ef ff ff 	mov    %rax,-0x1070(%rbp)
    a30b:	48 8d 85 28 e9 ff ff 	lea    -0x16d8(%rbp),%rax
    a312:	48 89 85 98 ef ff ff 	mov    %rax,-0x1068(%rbp)
    a319:	48 8d 85 28 e9 ff ff 	lea    -0x16d8(%rbp),%rax
    a320:	48 89 85 a0 ef ff ff 	mov    %rax,-0x1060(%rbp)
    a327:	48 8d 85 28 e9 ff ff 	lea    -0x16d8(%rbp),%rax
    a32e:	48 89 85 a8 ef ff ff 	mov    %rax,-0x1058(%rbp)
    a335:	48 8d 85 28 e9 ff ff 	lea    -0x16d8(%rbp),%rax
    a33c:	48 89 85 b0 ef ff ff 	mov    %rax,-0x1050(%rbp)
    a343:	48 8d 85 28 e9 ff ff 	lea    -0x16d8(%rbp),%rax
    a34a:	48 89 85 b8 ef ff ff 	mov    %rax,-0x1048(%rbp)
    a351:	48 8d 85 28 e9 ff ff 	lea    -0x16d8(%rbp),%rax
    a358:	48 89 85 c0 ef ff ff 	mov    %rax,-0x1040(%rbp)
    a35f:	48 8d 85 28 e9 ff ff 	lea    -0x16d8(%rbp),%rax
    a366:	48 89 85 c8 ef ff ff 	mov    %rax,-0x1038(%rbp)
    a36d:	48 8d 85 28 e9 ff ff 	lea    -0x16d8(%rbp),%rax
    a374:	48 89 85 d0 ef ff ff 	mov    %rax,-0x1030(%rbp)
    a37b:	48 8d 85 28 e9 ff ff 	lea    -0x16d8(%rbp),%rax
    a382:	48 89 85 d8 ef ff ff 	mov    %rax,-0x1028(%rbp)
    a389:	48 8d 85 28 e9 ff ff 	lea    -0x16d8(%rbp),%rax
    a390:	48 89 85 e0 ef ff ff 	mov    %rax,-0x1020(%rbp)
    a397:	48 8d 85 28 e9 ff ff 	lea    -0x16d8(%rbp),%rax
    a39e:	48 89 85 e8 ef ff ff 	mov    %rax,-0x1018(%rbp)
    a3a5:	48 8d 85 28 e9 ff ff 	lea    -0x16d8(%rbp),%rax
    a3ac:	48 89 85 f0 ef ff ff 	mov    %rax,-0x1010(%rbp)
    a3b3:	48 8d 85 28 e9 ff ff 	lea    -0x16d8(%rbp),%rax
    a3ba:	48 89 85 f8 ef ff ff 	mov    %rax,-0x1008(%rbp)
    a3c1:	48 8d 85 28 e9 ff ff 	lea    -0x16d8(%rbp),%rax
    a3c8:	48 89 85 00 f0 ff ff 	mov    %rax,-0x1000(%rbp)
    a3cf:	48 8d 85 28 e9 ff ff 	lea    -0x16d8(%rbp),%rax
    a3d6:	48 89 85 08 f0 ff ff 	mov    %rax,-0xff8(%rbp)
    a3dd:	48 8d 85 28 e9 ff ff 	lea    -0x16d8(%rbp),%rax
    a3e4:	48 89 85 10 f0 ff ff 	mov    %rax,-0xff0(%rbp)
    a3eb:	48 8d 85 28 e9 ff ff 	lea    -0x16d8(%rbp),%rax
    a3f2:	48 89 85 18 f0 ff ff 	mov    %rax,-0xfe8(%rbp)
    a3f9:	48 8d 85 28 e9 ff ff 	lea    -0x16d8(%rbp),%rax
    a400:	48 89 85 20 f0 ff ff 	mov    %rax,-0xfe0(%rbp)
    a407:	48 8d 85 28 e9 ff ff 	lea    -0x16d8(%rbp),%rax
    a40e:	48 89 85 28 f0 ff ff 	mov    %rax,-0xfd8(%rbp)
    a415:	48 8d 85 28 e9 ff ff 	lea    -0x16d8(%rbp),%rax
    a41c:	48 89 85 30 f0 ff ff 	mov    %rax,-0xfd0(%rbp)
    a423:	48 8d 85 28 e9 ff ff 	lea    -0x16d8(%rbp),%rax
    a42a:	48 89 85 38 f0 ff ff 	mov    %rax,-0xfc8(%rbp)
    a431:	48 8d 85 28 e9 ff ff 	lea    -0x16d8(%rbp),%rax
    a438:	48 89 85 40 f0 ff ff 	mov    %rax,-0xfc0(%rbp)
    a43f:	48 8d 85 28 e9 ff ff 	lea    -0x16d8(%rbp),%rax
    a446:	48 89 85 48 f0 ff ff 	mov    %rax,-0xfb8(%rbp)
    a44d:	48 8d 85 28 e9 ff ff 	lea    -0x16d8(%rbp),%rax
    a454:	48 89 85 50 f0 ff ff 	mov    %rax,-0xfb0(%rbp)
    a45b:	48 8d 85 28 e9 ff ff 	lea    -0x16d8(%rbp),%rax
    a462:	48 89 85 58 f0 ff ff 	mov    %rax,-0xfa8(%rbp)
    a469:	48 8d 85 28 e9 ff ff 	lea    -0x16d8(%rbp),%rax
    a470:	48 89 85 60 f0 ff ff 	mov    %rax,-0xfa0(%rbp)
    a477:	48 8d 85 28 e9 ff ff 	lea    -0x16d8(%rbp),%rax
    a47e:	48 89 85 68 f0 ff ff 	mov    %rax,-0xf98(%rbp)
    a485:	48 8d 85 28 e9 ff ff 	lea    -0x16d8(%rbp),%rax
    a48c:	48 89 85 70 f0 ff ff 	mov    %rax,-0xf90(%rbp)
    a493:	48 8d 85 28 e9 ff ff 	lea    -0x16d8(%rbp),%rax
    a49a:	48 89 85 78 f0 ff ff 	mov    %rax,-0xf88(%rbp)
    a4a1:	48 8d 85 28 e9 ff ff 	lea    -0x16d8(%rbp),%rax
    a4a8:	48 89 85 80 f0 ff ff 	mov    %rax,-0xf80(%rbp)
    a4af:	48 8d 85 28 e9 ff ff 	lea    -0x16d8(%rbp),%rax
    a4b6:	48 89 85 88 f0 ff ff 	mov    %rax,-0xf78(%rbp)
    a4bd:	48 8d 85 28 e9 ff ff 	lea    -0x16d8(%rbp),%rax
    a4c4:	48 89 85 90 f0 ff ff 	mov    %rax,-0xf70(%rbp)
    a4cb:	48 8d 85 28 e9 ff ff 	lea    -0x16d8(%rbp),%rax
    a4d2:	48 89 85 98 f0 ff ff 	mov    %rax,-0xf68(%rbp)
    a4d9:	48 8d 85 28 e9 ff ff 	lea    -0x16d8(%rbp),%rax
    a4e0:	48 89 85 a0 f0 ff ff 	mov    %rax,-0xf60(%rbp)
    a4e7:	48 8d 85 28 e9 ff ff 	lea    -0x16d8(%rbp),%rax
    a4ee:	48 89 85 a8 f0 ff ff 	mov    %rax,-0xf58(%rbp)
    a4f5:	48 8d 85 28 e9 ff ff 	lea    -0x16d8(%rbp),%rax
    a4fc:	48 89 85 b0 f0 ff ff 	mov    %rax,-0xf50(%rbp)
    a503:	48 8d 85 28 e9 ff ff 	lea    -0x16d8(%rbp),%rax
    a50a:	48 89 85 b8 f0 ff ff 	mov    %rax,-0xf48(%rbp)
    a511:	48 8d 85 28 e9 ff ff 	lea    -0x16d8(%rbp),%rax
    a518:	48 89 85 c0 f0 ff ff 	mov    %rax,-0xf40(%rbp)
    a51f:	48 8d 85 28 e9 ff ff 	lea    -0x16d8(%rbp),%rax
    a526:	48 89 85 c8 f0 ff ff 	mov    %rax,-0xf38(%rbp)
    a52d:	48 8d 85 28 e9 ff ff 	lea    -0x16d8(%rbp),%rax
    a534:	48 89 85 d0 f0 ff ff 	mov    %rax,-0xf30(%rbp)
    a53b:	48 8d 85 28 e9 ff ff 	lea    -0x16d8(%rbp),%rax
    a542:	48 89 85 d8 f0 ff ff 	mov    %rax,-0xf28(%rbp)
    a549:	48 8d 85 28 e9 ff ff 	lea    -0x16d8(%rbp),%rax
    a550:	48 89 85 e0 f0 ff ff 	mov    %rax,-0xf20(%rbp)
    a557:	48 8d 85 28 e9 ff ff 	lea    -0x16d8(%rbp),%rax
    a55e:	48 89 85 e8 f0 ff ff 	mov    %rax,-0xf18(%rbp)
    a565:	48 8d 85 28 e9 ff ff 	lea    -0x16d8(%rbp),%rax
    a56c:	48 89 85 f0 f0 ff ff 	mov    %rax,-0xf10(%rbp)
    a573:	48 8d 85 28 e9 ff ff 	lea    -0x16d8(%rbp),%rax
    a57a:	48 89 85 f8 f0 ff ff 	mov    %rax,-0xf08(%rbp)
    a581:	48 8d 85 28 e9 ff ff 	lea    -0x16d8(%rbp),%rax
    a588:	48 89 85 00 f1 ff ff 	mov    %rax,-0xf00(%rbp)
    a58f:	48 8d 85 28 e9 ff ff 	lea    -0x16d8(%rbp),%rax
    a596:	48 89 85 08 f1 ff ff 	mov    %rax,-0xef8(%rbp)
    a59d:	48 8d 85 28 e9 ff ff 	lea    -0x16d8(%rbp),%rax
    a5a4:	48 89 85 10 f1 ff ff 	mov    %rax,-0xef0(%rbp)
    a5ab:	48 8d 85 28 e9 ff ff 	lea    -0x16d8(%rbp),%rax
    a5b2:	48 89 85 18 f1 ff ff 	mov    %rax,-0xee8(%rbp)
    a5b9:	48 8d 85 28 e9 ff ff 	lea    -0x16d8(%rbp),%rax
    a5c0:	48 89 85 20 f1 ff ff 	mov    %rax,-0xee0(%rbp)
    a5c7:	48 8d 85 28 e9 ff ff 	lea    -0x16d8(%rbp),%rax
    a5ce:	48 89 85 28 f1 ff ff 	mov    %rax,-0xed8(%rbp)
    a5d5:	48 8d 85 28 e9 ff ff 	lea    -0x16d8(%rbp),%rax
    a5dc:	48 89 85 30 f1 ff ff 	mov    %rax,-0xed0(%rbp)
    a5e3:	48 8d 85 28 e9 ff ff 	lea    -0x16d8(%rbp),%rax
    a5ea:	48 89 85 38 f1 ff ff 	mov    %rax,-0xec8(%rbp)
    a5f1:	48 8d 05 a8 d3 00 00 	lea    0xd3a8(%rip),%rax        # 179a0 <g_694>
    a5f8:	48 89 85 c0 e9 ff ff 	mov    %rax,-0x1640(%rbp)
    a5ff:	48 8d 05 62 df 00 00 	lea    0xdf62(%rip),%rax        # 18568 <g_42>
    a606:	48 89 85 c8 e9 ff ff 	mov    %rax,-0x1638(%rbp)
    a60d:	48 c7 85 d0 e9 ff ff 	movq   $0xffffffffffffffff,-0x1630(%rbp)
    a614:	ff ff ff ff 
    a618:	66 c7 85 e6 e7 ff ff 	movw   $0x305d,-0x181a(%rbp)
    a61f:	5d 30 
    a621:	c6 85 d9 e7 ff ff de 	movb   $0xde,-0x1827(%rbp)
    a628:	c7 85 40 e8 ff ff 91 	movl   $0xa4adf991,-0x17c0(%rbp)
    a62f:	f9 ad a4 
    a632:	48 c7 85 30 e9 ff ff 	movq   $0x0,-0x16d0(%rbp)
    a639:	00 00 00 00 
    a63d:	c7 85 44 e8 ff ff 1b 	movl   $0x95e10c1b,-0x17bc(%rbp)
    a644:	0c e1 95 
    a647:	c6 85 d7 e7 ff ff 01 	movb   $0x1,-0x1829(%rbp)
    a64e:	48 c7 85 38 e9 ff ff 	movq   $0x0,-0x16c8(%rbp)
    a655:	00 00 00 00 
    a659:	c7 85 48 e8 ff ff fb 	movl   $0xfffffffb,-0x17b8(%rbp)
    a660:	ff ff ff 
    a663:	c7 85 28 e8 ff ff 79 	movl   $0x81dce279,-0x17d8(%rbp)
    a66a:	e2 dc 81 
    a66d:	c7 85 4c e8 ff ff 02 	movl   $0x2,-0x17b4(%rbp)
    a674:	00 00 00 
    a677:	c6 85 d8 e7 ff ff 0d 	movb   $0xd,-0x1828(%rbp)
    a67e:	c7 85 50 e8 ff ff b7 	movl   $0x6e24d7b7,-0x17b0(%rbp)
    a685:	d7 24 6e 
    a688:	c7 85 00 e8 ff ff 9e 	movl   $0x968d9b9e,-0x1800(%rbp)
    a68f:	9b 8d 96 
    a692:	c7 85 54 e8 ff ff 5d 	movl   $0x48c45d5d,-0x17ac(%rbp)
    a699:	5d c4 48 
    a69c:	c7 85 58 e8 ff ff 7c 	movl   $0x7953a67c,-0x17a8(%rbp)
    a6a3:	a6 53 79 
    a6a6:	c7 85 2c e8 ff ff ff 	movl   $0xffffffff,-0x17d4(%rbp)
    a6ad:	ff ff ff 
    a6b0:	48 c7 85 b0 ec ff ff 	movq   $0xffffffffffffffff,-0x1350(%rbp)
    a6b7:	ff ff ff ff 
    a6bb:	48 c7 85 b8 ec ff ff 	movq   $0xffffffffffffffff,-0x1348(%rbp)
    a6c2:	ff ff ff ff 
    a6c6:	48 c7 85 c0 ec ff ff 	movq   $0xffffffffffffffff,-0x1340(%rbp)
    a6cd:	ff ff ff ff 
    a6d1:	48 c7 85 c8 ec ff ff 	movq   $0xffffffffffffffff,-0x1338(%rbp)
    a6d8:	ff ff ff ff 
    a6dc:	48 c7 85 d0 ec ff ff 	movq   $0xffffffffffffffff,-0x1330(%rbp)
    a6e3:	ff ff ff ff 
    a6e7:	48 c7 85 d8 ec ff ff 	movq   $0xffffffffffffffff,-0x1328(%rbp)
    a6ee:	ff ff ff ff 
    a6f2:	48 c7 85 e0 ec ff ff 	movq   $0xffffffffffffffff,-0x1320(%rbp)
    a6f9:	ff ff ff ff 
    a6fd:	48 c7 85 d8 e9 ff ff 	movq   $0x8,-0x1628(%rbp)
    a704:	08 00 00 00 
    a708:	c6 85 da e7 ff ff ff 	movb   $0xff,-0x1826(%rbp)
    a70f:	48 c7 85 e0 e9 ff ff 	movq   $0x0,-0x1620(%rbp)
    a716:	00 00 00 00 
    a71a:	48 8d 05 7f d3 00 00 	lea    0xd37f(%rip),%rax        # 17aa0 <g_1464>
    a721:	48 89 85 e8 e9 ff ff 	mov    %rax,-0x1618(%rbp)
    a728:	c7 85 04 e8 ff ff d3 	movl   $0xe8c1f1d3,-0x17fc(%rbp)
    a72f:	f1 c1 e8 
    a732:	48 8d 05 67 de 00 00 	lea    0xde67(%rip),%rax        # 185a0 <g_1388>
    a739:	48 89 85 f0 e9 ff ff 	mov    %rax,-0x1610(%rbp)
    a740:	c7 85 30 e8 ff ff 00 	movl   $0x0,-0x17d0(%rbp)
    a747:	00 00 00 
    a74a:	eb 1a                	jmp    a766 <func_22+0x516>
    a74c:	8b 85 30 e8 ff ff    	mov    -0x17d0(%rbp),%eax
    a752:	48 98                	cltq   
    a754:	c7 84 85 50 ec ff ff 	movl   $0x1,-0x13b0(%rbp,%rax,4)
    a75b:	01 00 00 00 
    a75f:	83 85 30 e8 ff ff 01 	addl   $0x1,-0x17d0(%rbp)
    a766:	83 bd 30 e8 ff ff 08 	cmpl   $0x8,-0x17d0(%rbp)
    a76d:	7e dd                	jle    a74c <func_22+0x4fc>
    a76f:	c7 85 30 e8 ff ff 00 	movl   $0x0,-0x17d0(%rbp)
    a776:	00 00 00 
    a779:	eb 1a                	jmp    a795 <func_22+0x545>
    a77b:	8b 85 30 e8 ff ff    	mov    -0x17d0(%rbp),%eax
    a781:	48 98                	cltq   
    a783:	c7 84 85 24 ec ff ff 	movl   $0xbf81c524,-0x13dc(%rbp,%rax,4)
    a78a:	24 c5 81 bf 
    a78e:	83 85 30 e8 ff ff 01 	addl   $0x1,-0x17d0(%rbp)
    a795:	83 bd 30 e8 ff ff 02 	cmpl   $0x2,-0x17d0(%rbp)
    a79c:	7e dd                	jle    a77b <func_22+0x52b>
    a79e:	8b 85 c4 e7 ff ff    	mov    -0x183c(%rbp),%eax
    a7a4:	83 f8 01             	cmp    $0x1,%eax
    a7a7:	0f 94 c2             	sete   %dl
    a7aa:	48 8b 05 7f d1 00 00 	mov    0xd17f(%rip),%rax        # 17930 <g_492>
    a7b1:	0f b6 d2             	movzbl %dl,%edx
    a7b4:	66 89 10             	mov    %dx,(%rax)
    a7b7:	bf 00 00 00 00       	mov    $0x0,%edi
    a7bc:	e8 84 c3 ff ff       	callq  6b45 <safe_unary_minus_func_uint8_t_u>
    a7c1:	0f b6 c0             	movzbl %al,%eax
    a7c4:	be 0d 00 00 00       	mov    $0xd,%esi
    a7c9:	89 c7                	mov    %eax,%edi
    a7cb:	e8 aa c6 ff ff       	callq  6e7a <safe_rshift_func_uint16_t_u_u>
    a7d0:	88 85 c0 e7 ff ff    	mov    %al,-0x1840(%rbp)
    a7d6:	0f b6 85 c0 e7 ff ff 	movzbl -0x1840(%rbp),%eax
    a7dd:	84 c0                	test   %al,%al
    a7df:	75 0e                	jne    a7ef <func_22+0x59f>
    a7e1:	48 8b 05 50 d1 00 00 	mov    0xd150(%rip),%rax        # 17938 <g_556>
    a7e8:	0f b6 00             	movzbl (%rax),%eax
    a7eb:	84 c0                	test   %al,%al
    a7ed:	74 07                	je     a7f6 <func_22+0x5a6>
    a7ef:	b8 01 00 00 00       	mov    $0x1,%eax
    a7f4:	eb 05                	jmp    a7fb <func_22+0x5ab>
    a7f6:	b8 00 00 00 00       	mov    $0x0,%eax
    a7fb:	89 c2                	mov    %eax,%edx
    a7fd:	8b 85 cc e7 ff ff    	mov    -0x1834(%rbp),%eax
    a803:	39 c2                	cmp    %eax,%edx
    a805:	0f 87 ad 26 00 00    	ja     ceb8 <func_22+0x2c68>
    a80b:	48 c7 85 40 e9 ff ff 	movq   $0x0,-0x16c0(%rbp)
    a812:	00 00 00 00 
    a816:	c7 85 08 e8 ff ff b9 	movl   $0xbd139bb9,-0x17f8(%rbp)
    a81d:	9b 13 bd 
    a820:	48 8d 05 17 b9 00 00 	lea    0xb917(%rip),%rax        # 1613e <g_678>
    a827:	48 89 85 80 ea ff ff 	mov    %rax,-0x1580(%rbp)
    a82e:	48 8d 85 08 e8 ff ff 	lea    -0x17f8(%rbp),%rax
    a835:	48 89 85 88 ea ff ff 	mov    %rax,-0x1578(%rbp)
    a83c:	48 b8 ac 1c 90 10 a8 	movabs $0x1c04ffa810901cac,%rax
    a843:	ff 04 1c 
    a846:	48 89 85 10 ee ff ff 	mov    %rax,-0x11f0(%rbp)
    a84d:	c6 85 18 ee ff ff 01 	movb   $0x1,-0x11e8(%rbp)
    a854:	48 bb ac ff 23 10 1c 	movabs $0xff04f71c1023ffac,%rbx
    a85b:	f7 04 ff 
    a85e:	48 89 9d 19 ee ff ff 	mov    %rbx,-0x11e7(%rbp)
    a865:	c6 85 21 ee ff ff 11 	movb   $0x11,-0x11df(%rbp)
    a86c:	48 b9 ac a8 04 10 ff 	movabs $0xa80410ff1004a8ac,%rcx
    a873:	10 04 a8 
    a876:	48 89 8d 22 ee ff ff 	mov    %rcx,-0x11de(%rbp)
    a87d:	c6 85 2a ee ff ff ac 	movb   $0xac,-0x11d6(%rbp)
    a884:	48 89 85 2b ee ff ff 	mov    %rax,-0x11d5(%rbp)
    a88b:	c6 85 33 ee ff ff 01 	movb   $0x1,-0x11cd(%rbp)
    a892:	48 89 9d 34 ee ff ff 	mov    %rbx,-0x11cc(%rbp)
    a899:	c6 85 3c ee ff ff 11 	movb   $0x11,-0x11c4(%rbp)
    a8a0:	48 89 8d 3d ee ff ff 	mov    %rcx,-0x11c3(%rbp)
    a8a7:	c6 85 45 ee ff ff ac 	movb   $0xac,-0x11bb(%rbp)
    a8ae:	48 89 85 46 ee ff ff 	mov    %rax,-0x11ba(%rbp)
    a8b5:	c6 85 4e ee ff ff 01 	movb   $0x1,-0x11b2(%rbp)
    a8bc:	48 89 9d 4f ee ff ff 	mov    %rbx,-0x11b1(%rbp)
    a8c3:	c6 85 57 ee ff ff 11 	movb   $0x11,-0x11a9(%rbp)
    a8ca:	48 89 8d 58 ee ff ff 	mov    %rcx,-0x11a8(%rbp)
    a8d1:	c6 85 60 ee ff ff ac 	movb   $0xac,-0x11a0(%rbp)
    a8d8:	48 89 85 61 ee ff ff 	mov    %rax,-0x119f(%rbp)
    a8df:	c6 85 69 ee ff ff 01 	movb   $0x1,-0x1197(%rbp)
    a8e6:	c7 85 0c e8 ff ff a3 	movl   $0x9fc289a3,-0x17f4(%rbp)
    a8ed:	89 c2 9f 
    a8f0:	48 8d 05 a1 d1 00 00 	lea    0xd1a1(%rip),%rax        # 17a98 <g_1465>
    a8f7:	48 89 85 48 e9 ff ff 	mov    %rax,-0x16b8(%rbp)
    a8fe:	48 c7 85 50 e9 ff ff 	movq   $0xffffffffffffffff,-0x16b0(%rbp)
    a905:	ff ff ff ff 
    a909:	48 b8 97 89 66 3c 3a 	movabs $0x75a3a63a3c668997,%rax
    a910:	a6 a3 75 
    a913:	48 89 85 90 ea ff ff 	mov    %rax,-0x1570(%rbp)
    a91a:	48 c7 85 58 e9 ff ff 	movq   $0x0,-0x16a8(%rbp)
    a921:	00 00 00 00 
    a925:	48 8d 85 58 e9 ff ff 	lea    -0x16a8(%rbp),%rax
    a92c:	48 89 85 98 ea ff ff 	mov    %rax,-0x1568(%rbp)
    a933:	66 c7 85 ec e7 ff ff 	movw   $0xcea3,-0x1814(%rbp)
    a93a:	a3 ce 
    a93c:	48 8d 05 2a b7 00 00 	lea    0xb72a(%rip),%rax        # 1606d <g_112>
    a943:	48 89 85 60 e9 ff ff 	mov    %rax,-0x16a0(%rbp)
    a94a:	c6 85 dc e7 ff ff 02 	movb   $0x2,-0x1824(%rbp)
    a951:	c7 85 8c e8 ff ff f9 	movl   $0xfffffff9,-0x1774(%rbp)
    a958:	ff ff ff 
    a95b:	c7 85 90 e8 ff ff 01 	movl   $0x1,-0x1770(%rbp)
    a962:	00 00 00 
    a965:	48 c7 85 68 e9 ff ff 	movq   $0x0,-0x1698(%rbp)
    a96c:	00 00 00 00 
    a970:	48 8d 85 68 e9 ff ff 	lea    -0x1698(%rbp),%rax
    a977:	48 89 85 a0 ea ff ff 	mov    %rax,-0x1560(%rbp)
    a97e:	48 8d 05 43 cf 00 00 	lea    0xcf43(%rip),%rax        # 178c8 <g_105>
    a985:	48 89 85 a8 ea ff ff 	mov    %rax,-0x1558(%rbp)
    a98c:	c6 85 dd e7 ff ff 00 	movb   $0x0,-0x1823(%rbp)
    a993:	c7 85 34 e8 ff ff 00 	movl   $0x0,-0x17cc(%rbp)
    a99a:	00 00 00 
    a99d:	eb 1e                	jmp    a9bd <func_22+0x76d>
    a99f:	8b 85 34 e8 ff ff    	mov    -0x17cc(%rbp),%eax
    a9a5:	48 98                	cltq   
    a9a7:	48 8d 15 86 b8 00 00 	lea    0xb886(%rip),%rdx        # 16234 <g_1502>
    a9ae:	48 89 94 c5 70 ed ff 	mov    %rdx,-0x1290(%rbp,%rax,8)
    a9b5:	ff 
    a9b6:	83 85 34 e8 ff ff 01 	addl   $0x1,-0x17cc(%rbp)
    a9bd:	83 bd 34 e8 ff ff 08 	cmpl   $0x8,-0x17cc(%rbp)
    a9c4:	7e d9                	jle    a99f <func_22+0x74f>
    a9c6:	c7 85 34 e8 ff ff 00 	movl   $0x0,-0x17cc(%rbp)
    a9cd:	00 00 00 
    a9d0:	eb 1b                	jmp    a9ed <func_22+0x79d>
    a9d2:	8b 85 34 e8 ff ff    	mov    -0x17cc(%rbp),%eax
    a9d8:	48 98                	cltq   
    a9da:	48 c7 84 c5 f0 ec ff 	movq   $0xfffffffffffffffe,-0x1310(%rbp,%rax,8)
    a9e1:	ff fe ff ff ff 
    a9e6:	83 85 34 e8 ff ff 01 	addl   $0x1,-0x17cc(%rbp)
    a9ed:	83 bd 34 e8 ff ff 06 	cmpl   $0x6,-0x17cc(%rbp)
    a9f4:	7e dc                	jle    a9d2 <func_22+0x782>
    a9f6:	90                   	nop
    a9f7:	f3 0f 1e fa          	endbr64 
    a9fb:	48 8b 15 3e cf 00 00 	mov    0xcf3e(%rip),%rdx        # 17940 <g_589>
    aa02:	48 8b 05 07 d0 00 00 	mov    0xd007(%rip),%rax        # 17a10 <g_1097>
    aa09:	48 8b 00             	mov    (%rax),%rax
    aa0c:	48 8b 00             	mov    (%rax),%rax
    aa0f:	48 8b 12             	mov    (%rdx),%rdx
    aa12:	48 89 10             	mov    %rdx,(%rax)
    aa15:	48 8b 15 dc cf 00 00 	mov    0xcfdc(%rip),%rdx        # 179f8 <g_793>
    aa1c:	48 8b 12             	mov    (%rdx),%rdx
    aa1f:	48 8b 00             	mov    (%rax),%rax
    aa22:	48 89 02             	mov    %rax,(%rdx)
    aa25:	48 8b 85 30 f2 ff ff 	mov    -0xdd0(%rbp),%rax
    aa2c:	41 89 c4             	mov    %eax,%r12d
    aa2f:	48 8b 85 b8 f1 ff ff 	mov    -0xe48(%rbp),%rax
    aa36:	0f b6 d8             	movzbl %al,%ebx
    aa39:	48 8b 85 48 f1 ff ff 	mov    -0xeb8(%rbp),%rax
    aa40:	41 89 c5             	mov    %eax,%r13d
    aa43:	48 8b 85 f8 f1 ff ff 	mov    -0xe08(%rbp),%rax
    aa4a:	89 c2                	mov    %eax,%edx
    aa4c:	48 8b 05 45 cf 00 00 	mov    0xcf45(%rip),%rax        # 17998 <g_634>
    aa53:	48 8b 00             	mov    (%rax),%rax
    aa56:	0f b6 00             	movzbl (%rax),%eax
    aa59:	0f be c0             	movsbl %al,%eax
    aa5c:	89 d6                	mov    %edx,%esi
    aa5e:	89 c7                	mov    %eax,%edi
    aa60:	e8 07 b9 ff ff       	callq  636c <safe_rshift_func_int8_t_s_u>
    aa65:	0f be c0             	movsbl %al,%eax
    aa68:	44 89 ee             	mov    %r13d,%esi
    aa6b:	89 c7                	mov    %eax,%edi
    aa6d:	e8 20 ba ff ff       	callq  6492 <safe_lshift_func_int16_t_s_s>
    aa72:	ba 01 00 00 00       	mov    $0x1,%edx
    aa77:	48 8b 85 80 ea ff ff 	mov    -0x1580(%rbp),%rax
    aa7e:	0f b7 00             	movzwl (%rax),%eax
    aa81:	21 c2                	and    %eax,%edx
    aa83:	48 8b 85 80 ea ff ff 	mov    -0x1580(%rbp),%rax
    aa8a:	66 89 10             	mov    %dx,(%rax)
    aa8d:	48 8b 85 80 ea ff ff 	mov    -0x1580(%rbp),%rax
    aa94:	0f b7 00             	movzwl (%rax),%eax
    aa97:	98                   	cwtl   
    aa98:	89 c6                	mov    %eax,%esi
    aa9a:	bf 00 00 00 00       	mov    $0x0,%edi
    aa9f:	e8 51 b9 ff ff       	callq  63f5 <safe_mul_func_int16_t_s_s>
    aaa4:	0f b6 95 c0 e7 ff ff 	movzbl -0x1840(%rbp),%edx
    aaab:	0f b6 d2             	movzbl %dl,%edx
    aaae:	09 d0                	or     %edx,%eax
    aab0:	98                   	cwtl   
    aab1:	be 1c 04 00 00       	mov    $0x41c,%esi
    aab6:	89 c7                	mov    %eax,%edi
    aab8:	e8 38 b9 ff ff       	callq  63f5 <safe_mul_func_int16_t_s_s>
    aabd:	0f bf d0             	movswl %ax,%edx
    aac0:	8b 85 08 e8 ff ff    	mov    -0x17f8(%rbp),%eax
    aac6:	39 c2                	cmp    %eax,%edx
    aac8:	0f 9d c0             	setge  %al
    aacb:	0f b6 c0             	movzbl %al,%eax
    aace:	48 39 85 b8 e7 ff ff 	cmp    %rax,-0x1848(%rbp)
    aad5:	0f 94 c0             	sete   %al
    aad8:	0f b6 c0             	movzbl %al,%eax
    aadb:	be 06 00 00 00       	mov    $0x6,%esi
    aae0:	48 89 c7             	mov    %rax,%rdi
    aae3:	e8 c7 c5 ff ff       	callq  70af <safe_div_func_uint64_t_u_u>
    aae8:	8b 85 08 e8 ff ff    	mov    -0x17f8(%rbp),%eax
    aaee:	48 63 d0             	movslq %eax,%rdx
    aaf1:	48 8b 85 30 f2 ff ff 	mov    -0xdd0(%rbp),%rax
    aaf8:	48 39 c2             	cmp    %rax,%rdx
    aafb:	0f 93 c0             	setae  %al
    aafe:	0f b6 c0             	movzbl %al,%eax
    ab01:	89 c7                	mov    %eax,%edi
    ab03:	e8 8e ba ff ff       	callq  6596 <safe_unary_minus_func_int32_t_s>
    ab08:	48 8b 85 b8 e7 ff ff 	mov    -0x1848(%rbp),%rax
    ab0f:	0f bf d0             	movswl %ax,%edx
    ab12:	48 8b 05 17 ce 00 00 	mov    0xce17(%rip),%rax        # 17930 <g_492>
    ab19:	0f b7 00             	movzwl (%rax),%eax
    ab1c:	98                   	cwtl   
    ab1d:	89 d6                	mov    %edx,%esi
    ab1f:	89 c7                	mov    %eax,%edi
    ab21:	e8 cf b8 ff ff       	callq  63f5 <safe_mul_func_int16_t_s_s>
    ab26:	0f b6 c0             	movzbl %al,%eax
    ab29:	89 de                	mov    %ebx,%esi
    ab2b:	89 c7                	mov    %eax,%edi
    ab2d:	e8 7c c0 ff ff       	callq  6bae <safe_mod_func_uint8_t_u_u>
    ab32:	0f b6 d0             	movzbl %al,%edx
    ab35:	8b 85 cc e7 ff ff    	mov    -0x1834(%rbp),%eax
    ab3b:	21 d0                	and    %edx,%eax
    ab3d:	89 c2                	mov    %eax,%edx
    ab3f:	48 8b 85 88 ea ff ff 	mov    -0x1578(%rbp),%rax
    ab46:	89 10                	mov    %edx,(%rax)
    ab48:	48 8b 85 88 ea ff ff 	mov    -0x1578(%rbp),%rax
    ab4f:	8b 00                	mov    (%rax),%eax
    ab51:	48 63 d0             	movslq %eax,%rdx
    ab54:	48 8b 85 30 f2 ff ff 	mov    -0xdd0(%rbp),%rax
    ab5b:	48 39 c2             	cmp    %rax,%rdx
    ab5e:	0f 92 c0             	setb   %al
    ab61:	0f b6 c0             	movzbl %al,%eax
    ab64:	44 89 e6             	mov    %r12d,%esi
    ab67:	89 c7                	mov    %eax,%edi
    ab69:	e8 50 c1 ff ff       	callq  6cbe <safe_rshift_func_uint8_t_u_u>
    ab6e:	83 c8 1a             	or     $0x1a,%eax
    ab71:	0f b6 d0             	movzbl %al,%edx
    ab74:	48 8b 05 b5 cd 00 00 	mov    0xcdb5(%rip),%rax        # 17930 <g_492>
    ab7b:	0f b7 00             	movzwl (%rax),%eax
    ab7e:	48 0f bf c0          	movswq %ax,%rax
    ab82:	48 09 d0             	or     %rdx,%rax
    ab85:	8b 15 05 b5 00 00    	mov    0xb505(%rip),%edx        # 16090 <g_127+0x10>
    ab8b:	89 d2                	mov    %edx,%edx
    ab8d:	48 39 d0             	cmp    %rdx,%rax
    ab90:	74 15                	je     aba7 <func_22+0x957>
    ab92:	66 c7 85 fe e7 ff ff 	movw   $0xc295,-0x1802(%rbp)
    ab99:	95 c2 
    ab9b:	0f b7 85 fe e7 ff ff 	movzwl -0x1802(%rbp),%eax
    aba2:	e9 75 39 00 00       	jmpq   e51c <func_22+0x42cc>
    aba7:	66 c7 85 e4 e7 ff ff 	movw   $0x9,-0x181c(%rbp)
    abae:	09 00 
    abb0:	48 8d 05 11 b5 00 00 	lea    0xb511(%rip),%rax        # 160c8 <g_189+0x8>
    abb7:	48 89 85 70 e9 ff ff 	mov    %rax,-0x1690(%rbp)
    abbe:	48 8d 05 7f b5 00 00 	lea    0xb57f(%rip),%rax        # 16144 <g_780>
    abc5:	48 89 85 78 e9 ff ff 	mov    %rax,-0x1688(%rbp)
    abcc:	48 c7 85 80 e9 ff ff 	movq   $0x0,-0x1680(%rbp)
    abd3:	00 00 00 00 
    abd7:	48 8d 85 f0 f7 ff ff 	lea    -0x810(%rbp),%rax
    abde:	48 8d 15 5b 71 00 00 	lea    0x715b(%rip),%rdx        # 11d40 <g_2687+0xc90>
    abe5:	b9 fa 00 00 00       	mov    $0xfa,%ecx
    abea:	48 89 c7             	mov    %rax,%rdi
    abed:	48 89 d6             	mov    %rdx,%rsi
    abf0:	f3 48 a5             	rep movsq %ds:(%rsi),%es:(%rdi)
    abf3:	c7 85 94 e8 ff ff a5 	movl   $0xe2b556a5,-0x176c(%rbp)
    abfa:	56 b5 e2 
    abfd:	48 8d 85 30 ec ff ff 	lea    -0x13d0(%rbp),%rax
    ac04:	48 83 c0 08          	add    $0x8,%rax
    ac08:	48 89 85 88 e9 ff ff 	mov    %rax,-0x1678(%rbp)
    ac0f:	48 8d 85 88 e9 ff ff 	lea    -0x1678(%rbp),%rax
    ac16:	48 89 85 b0 ea ff ff 	mov    %rax,-0x1550(%rbp)
    ac1d:	48 8d 05 6c d9 00 00 	lea    0xd96c(%rip),%rax        # 18590 <g_856>
    ac24:	48 89 85 b8 ea ff ff 	mov    %rax,-0x1548(%rbp)
    ac2b:	48 8d 85 80 e9 ff ff 	lea    -0x1680(%rbp),%rax
    ac32:	48 89 85 90 e9 ff ff 	mov    %rax,-0x1670(%rbp)
    ac39:	48 8d 85 90 e9 ff ff 	lea    -0x1670(%rbp),%rax
    ac40:	48 89 85 c0 ea ff ff 	mov    %rax,-0x1540(%rbp)
    ac47:	48 8d 85 90 e9 ff ff 	lea    -0x1670(%rbp),%rax
    ac4e:	48 89 85 c8 ea ff ff 	mov    %rax,-0x1538(%rbp)
    ac55:	48 b8 c9 29 76 c0 24 	movabs $0xb28ff324c07629c9,%rax
    ac5c:	f3 8f b2 
    ac5f:	48 89 85 98 e9 ff ff 	mov    %rax,-0x1668(%rbp)
    ac66:	48 8d 85 60 e9 ff ff 	lea    -0x16a0(%rbp),%rax
    ac6d:	48 89 85 d0 ea ff ff 	mov    %rax,-0x1530(%rbp)
    ac74:	48 8d 05 55 cc 00 00 	lea    0xcc55(%rip),%rax        # 178d0 <g_117>
    ac7b:	48 89 85 d8 ea ff ff 	mov    %rax,-0x1528(%rbp)
    ac82:	c6 85 de e7 ff ff 58 	movb   $0x58,-0x1822(%rbp)
    ac89:	48 8d 05 f8 cc 00 00 	lea    0xccf8(%rip),%rax        # 17988 <g_635+0x28>
    ac90:	48 89 85 a0 e9 ff ff 	mov    %rax,-0x1660(%rbp)
    ac97:	48 8d 85 a0 e9 ff ff 	lea    -0x1660(%rbp),%rax
    ac9e:	48 89 85 a8 e9 ff ff 	mov    %rax,-0x1658(%rbp)
    aca5:	48 8d 85 a8 e9 ff ff 	lea    -0x1658(%rbp),%rax
    acac:	48 89 85 e0 ea ff ff 	mov    %rax,-0x1520(%rbp)
    acb3:	c6 85 df e7 ff ff 28 	movb   $0x28,-0x1821(%rbp)
    acba:	66 c7 85 ee e7 ff ff 	movw   $0x0,-0x1812(%rbp)
    acc1:	00 00 
    acc3:	66 c7 85 f0 e7 ff ff 	movw   $0x9ebf,-0x1810(%rbp)
    acca:	bf 9e 
    accc:	c7 85 38 e8 ff ff 00 	movl   $0x0,-0x17c8(%rbp)
    acd3:	00 00 00 
    acd6:	eb 43                	jmp    ad1b <func_22+0xacb>
    acd8:	c7 85 3c e8 ff ff 00 	movl   $0x0,-0x17c4(%rbp)
    acdf:	00 00 00 
    ace2:	eb 27                	jmp    ad0b <func_22+0xabb>
    ace4:	8b 85 3c e8 ff ff    	mov    -0x17c4(%rbp),%eax
    acea:	48 63 d0             	movslq %eax,%rdx
    aced:	8b 85 38 e8 ff ff    	mov    -0x17c8(%rbp),%eax
    acf3:	48 98                	cltq   
    acf5:	48 01 d0             	add    %rdx,%rax
    acf8:	48 c7 84 c5 18 ec ff 	movq   $0x0,-0x13e8(%rbp,%rax,8)
    acff:	ff 00 00 00 00 
    ad04:	83 85 3c e8 ff ff 01 	addl   $0x1,-0x17c4(%rbp)
    ad0b:	83 bd 3c e8 ff ff 00 	cmpl   $0x0,-0x17c4(%rbp)
    ad12:	7e d0                	jle    ace4 <func_22+0xa94>
    ad14:	83 85 38 e8 ff ff 01 	addl   $0x1,-0x17c8(%rbp)
    ad1b:	83 bd 38 e8 ff ff 00 	cmpl   $0x0,-0x17c8(%rbp)
    ad22:	7e b4                	jle    acd8 <func_22+0xa88>
    ad24:	c7 85 38 e8 ff ff 00 	movl   $0x0,-0x17c8(%rbp)
    ad2b:	00 00 00 
    ad2e:	eb 1b                	jmp    ad4b <func_22+0xafb>
    ad30:	8b 85 38 e8 ff ff    	mov    -0x17c8(%rbp),%eax
    ad36:	48 98                	cltq   
    ad38:	48 c7 84 c5 30 ec ff 	movq   $0x0,-0x13d0(%rbp,%rax,8)
    ad3f:	ff 00 00 00 00 
    ad44:	83 85 38 e8 ff ff 01 	addl   $0x1,-0x17c8(%rbp)
    ad4b:	83 bd 38 e8 ff ff 03 	cmpl   $0x3,-0x17c8(%rbp)
    ad52:	7e dc                	jle    ad30 <func_22+0xae0>
    ad54:	c7 85 38 e8 ff ff 00 	movl   $0x0,-0x17c8(%rbp)
    ad5b:	00 00 00 
    ad5e:	eb 14                	jmp    ad74 <func_22+0xb24>
    ad60:	8b 85 38 e8 ff ff    	mov    -0x17c8(%rbp),%eax
    ad66:	48 98                	cltq   
    ad68:	c6 44 05 c4 ff       	movb   $0xff,-0x3c(%rbp,%rax,1)
    ad6d:	83 85 38 e8 ff ff 01 	addl   $0x1,-0x17c8(%rbp)
    ad74:	83 bd 38 e8 ff ff 03 	cmpl   $0x3,-0x17c8(%rbp)
    ad7b:	7e e3                	jle    ad60 <func_22+0xb10>
    ad7d:	48 8b 05 5c cb 00 00 	mov    0xcb5c(%rip),%rax        # 178e0 <g_192>
    ad84:	48 8b 95 b8 e7 ff ff 	mov    -0x1848(%rbp),%rdx
    ad8b:	89 10                	mov    %edx,(%rax)
    ad8d:	48 8b 85 70 f1 ff ff 	mov    -0xe90(%rbp),%rax
    ad94:	49 89 c4             	mov    %rax,%r12
    ad97:	8b 9d c4 e7 ff ff    	mov    -0x183c(%rbp),%ebx
    ad9d:	48 8b 05 8c cb 00 00 	mov    0xcb8c(%rip),%rax        # 17930 <g_492>
    ada4:	0f b7 00             	movzwl (%rax),%eax
    ada7:	66 85 c0             	test   %ax,%ax
    adaa:	74 5c                	je     ae08 <func_22+0xbb8>
    adac:	48 8b 05 55 cc 00 00 	mov    0xcc55(%rip),%rax        # 17a08 <g_1098>
    adb3:	48 8b 10             	mov    (%rax),%rdx
    adb6:	48 8b 05 53 cc 00 00 	mov    0xcc53(%rip),%rax        # 17a10 <g_1097>
    adbd:	48 8b 00             	mov    (%rax),%rax
    adc0:	48 8b 00             	mov    (%rax),%rax
    adc3:	48 8b 12             	mov    (%rdx),%rdx
    adc6:	48 89 10             	mov    %rdx,(%rax)
    adc9:	0f b6 05 50 b4 00 00 	movzbl 0xb450(%rip),%eax        # 16220 <g_1343>
    add0:	66 98                	cbtw   
    add2:	66 89 85 e4 e7 ff ff 	mov    %ax,-0x181c(%rbp)
    add9:	48 8b 15 50 cb 00 00 	mov    0xcb50(%rip),%rdx        # 17930 <g_492>
    ade0:	48 8b 05 49 cb 00 00 	mov    0xcb49(%rip),%rax        # 17930 <g_492>
    ade7:	0f b7 12             	movzwl (%rdx),%edx
    adea:	66 89 10             	mov    %dx,(%rax)
    aded:	0f b7 85 c8 e7 ff ff 	movzwl -0x1838(%rbp),%eax
    adf4:	0f bf d0             	movswl %ax,%edx
    adf7:	8b 05 27 b4 00 00    	mov    0xb427(%rip),%eax        # 16224 <g_1345>
    adfd:	39 c2                	cmp    %eax,%edx
    adff:	74 07                	je     ae08 <func_22+0xbb8>
    ae01:	b8 01 00 00 00       	mov    $0x1,%eax
    ae06:	eb 05                	jmp    ae0d <func_22+0xbbd>
    ae08:	b8 00 00 00 00       	mov    $0x0,%eax
    ae0d:	0f b6 c0             	movzbl %al,%eax
    ae10:	be 01 00 00 00       	mov    $0x1,%esi
    ae15:	89 c7                	mov    %eax,%edi
    ae17:	e8 bf bd ff ff       	callq  6bdb <safe_div_func_uint8_t_u_u>
    ae1c:	0f b6 d0             	movzbl %al,%edx
    ae1f:	48 8b 85 88 ea ff ff 	mov    -0x1578(%rbp),%rax
    ae26:	89 10                	mov    %edx,(%rax)
    ae28:	48 8b 85 88 ea ff ff 	mov    -0x1578(%rbp),%rax
    ae2f:	8b 10                	mov    (%rax),%edx
    ae31:	48 8b 05 50 cc 00 00 	mov    0xcc50(%rip),%rax        # 17a88 <g_1216>
    ae38:	48 8b 00             	mov    (%rax),%rax
    ae3b:	48 8b 00             	mov    (%rax),%rax
    ae3e:	48 39 85 80 ea ff ff 	cmp    %rax,-0x1580(%rbp)
    ae45:	0f 94 c0             	sete   %al
    ae48:	0f b6 c0             	movzbl %al,%eax
    ae4b:	89 d6                	mov    %edx,%esi
    ae4d:	89 c7                	mov    %eax,%edi
    ae4f:	e8 78 b8 ff ff       	callq  66cc <safe_mod_func_int32_t_s_s>
    ae54:	89 c2                	mov    %eax,%edx
    ae56:	0f b6 85 c0 e7 ff ff 	movzbl -0x1840(%rbp),%eax
    ae5d:	31 d0                	xor    %edx,%eax
    ae5f:	88 85 c0 e7 ff ff    	mov    %al,-0x1840(%rbp)
    ae65:	0f b6 85 c0 e7 ff ff 	movzbl -0x1840(%rbp),%eax
    ae6c:	0f b6 c0             	movzbl %al,%eax
    ae6f:	be 05 00 00 00       	mov    $0x5,%esi
    ae74:	89 c7                	mov    %eax,%edi
    ae76:	e8 d1 bd ff ff       	callq  6c4c <safe_lshift_func_uint8_t_u_u>
    ae7b:	89 c2                	mov    %eax,%edx
    ae7d:	48 8b 85 b8 e7 ff ff 	mov    -0x1848(%rbp),%rax
    ae84:	21 d0                	and    %edx,%eax
    ae86:	0f b6 c0             	movzbl %al,%eax
    ae89:	89 de                	mov    %ebx,%esi
    ae8b:	89 c7                	mov    %eax,%edi
    ae8d:	e8 73 bd ff ff       	callq  6c05 <safe_lshift_func_uint8_t_u_s>
    ae92:	0f b6 c0             	movzbl %al,%eax
    ae95:	4c 89 e6             	mov    %r12,%rsi
    ae98:	48 89 c7             	mov    %rax,%rdi
    ae9b:	e8 14 bb ff ff       	callq  69b4 <safe_mod_func_int64_t_s_s>
    aea0:	48 85 c0             	test   %rax,%rax
    aea3:	74 14                	je     aeb9 <func_22+0xc69>
    aea5:	48 8b 85 88 ea ff ff 	mov    -0x1578(%rbp),%rax
    aeac:	8b 00                	mov    (%rax),%eax
    aeae:	85 c0                	test   %eax,%eax
    aeb0:	74 07                	je     aeb9 <func_22+0xc69>
    aeb2:	b8 01 00 00 00       	mov    $0x1,%eax
    aeb7:	eb 05                	jmp    aebe <func_22+0xc6e>
    aeb9:	b8 00 00 00 00       	mov    $0x0,%eax
    aebe:	48 98                	cltq   
    aec0:	48 89 c7             	mov    %rax,%rdi
    aec3:	e8 4e b9 ff ff       	callq  6816 <safe_unary_minus_func_int64_t_s>
    aec8:	48 85 c0             	test   %rax,%rax
    aecb:	0f 94 c2             	sete   %dl
    aece:	48 8b 85 70 e9 ff ff 	mov    -0x1690(%rbp),%rax
    aed5:	0f b6 d2             	movzbl %dl,%edx
    aed8:	48 89 10             	mov    %rdx,(%rax)
    aedb:	48 8b 00             	mov    (%rax),%rax
    aede:	48 85 c0             	test   %rax,%rax
    aee1:	48 8b 05 b0 ca 00 00 	mov    0xcab0(%rip),%rax        # 17998 <g_634>
    aee8:	48 8b 00             	mov    (%rax),%rax
    aeeb:	0f b6 00             	movzbl (%rax),%eax
    aeee:	0f be d0             	movsbl %al,%edx
    aef1:	48 8b 05 a0 ca 00 00 	mov    0xcaa0(%rip),%rax        # 17998 <g_634>
    aef8:	48 8b 00             	mov    (%rax),%rax
    aefb:	0f b6 00             	movzbl (%rax),%eax
    aefe:	0f be c0             	movsbl %al,%eax
    af01:	89 d6                	mov    %edx,%esi
    af03:	89 c7                	mov    %eax,%edi
    af05:	e8 e8 b2 ff ff       	callq  61f2 <safe_sub_func_int8_t_s_s>
    af0a:	48 83 bd c0 e9 ff ff 	cmpq   $0x0,-0x1640(%rbp)
    af11:	00 
    af12:	0f 94 c0             	sete   %al
    af15:	0f b6 d0             	movzbl %al,%edx
    af18:	8b 85 c4 e7 ff ff    	mov    -0x183c(%rbp),%eax
    af1e:	31 d0                	xor    %edx,%eax
    af20:	89 85 c4 e7 ff ff    	mov    %eax,-0x183c(%rbp)
    af26:	48 8b 05 cb ca 00 00 	mov    0xcacb(%rip),%rax        # 179f8 <g_793>
    af2d:	48 8b 00             	mov    (%rax),%rax
    af30:	48 8b 00             	mov    (%rax),%rax
    af33:	48 89 85 78 e9 ff ff 	mov    %rax,-0x1688(%rbp)
    af3a:	48 8b 05 7f c9 00 00 	mov    0xc97f(%rip),%rax        # 178c0 <g_40>
    af41:	8b 95 c4 e7 ff ff    	mov    -0x183c(%rbp),%edx
    af47:	89 10                	mov    %edx,(%rax)
    af49:	c7 05 15 b1 00 00 00 	movl   $0x0,0xb115(%rip)        # 16068 <g_102>
    af50:	00 00 00 
    af53:	e9 a9 02 00 00       	jmpq   b201 <func_22+0xfb1>
    af58:	48 8d 05 a1 ca 00 00 	lea    0xcaa1(%rip),%rax        # 17a00 <g_855>
    af5f:	48 89 85 f0 eb ff ff 	mov    %rax,-0x1410(%rbp)
    af66:	48 8d 85 40 f3 ff ff 	lea    -0xcc0(%rbp),%rax
    af6d:	48 8d 15 0c b6 00 00 	lea    0xb60c(%rip),%rdx        # 16580 <g_3059+0x268>
    af74:	b9 32 00 00 00       	mov    $0x32,%ecx
    af79:	48 89 c7             	mov    %rax,%rdi
    af7c:	48 89 d6             	mov    %rdx,%rsi
    af7f:	f3 48 a5             	rep movsq %ds:(%rsi),%es:(%rdi)
    af82:	48 8d 85 40 f3 ff ff 	lea    -0xcc0(%rbp),%rax
    af89:	48 05 28 01 00 00    	add    $0x128,%rax
    af8f:	48 89 85 b8 e9 ff ff 	mov    %rax,-0x1648(%rbp)
    af96:	48 8d 85 b8 e9 ff ff 	lea    -0x1648(%rbp),%rax
    af9d:	48 89 85 30 ed ff ff 	mov    %rax,-0x12d0(%rbp)
    afa4:	48 8d 85 b8 e9 ff ff 	lea    -0x1648(%rbp),%rax
    afab:	48 89 85 38 ed ff ff 	mov    %rax,-0x12c8(%rbp)
    afb2:	48 8d 85 b8 e9 ff ff 	lea    -0x1648(%rbp),%rax
    afb9:	48 89 85 40 ed ff ff 	mov    %rax,-0x12c0(%rbp)
    afc0:	48 8d 85 b8 e9 ff ff 	lea    -0x1648(%rbp),%rax
    afc7:	48 89 85 48 ed ff ff 	mov    %rax,-0x12b8(%rbp)
    afce:	48 8d 85 b8 e9 ff ff 	lea    -0x1648(%rbp),%rax
    afd5:	48 89 85 50 ed ff ff 	mov    %rax,-0x12b0(%rbp)
    afdc:	c7 85 fc e8 ff ff ff 	movl   $0xffffffff,-0x1704(%rbp)
    afe3:	ff ff ff 
    afe6:	48 8d 85 18 ec ff ff 	lea    -0x13e8(%rbp),%rax
    afed:	48 89 85 f8 eb ff ff 	mov    %rax,-0x1408(%rbp)
    aff4:	48 8d 05 2d b2 00 00 	lea    0xb22d(%rip),%rax        # 16228 <g_1409>
    affb:	48 89 85 00 ec ff ff 	mov    %rax,-0x1400(%rbp)
    b002:	c7 85 00 e9 ff ff 38 	movl   $0x1f6c7338,-0x1700(%rbp)
    b009:	73 6c 1f 
    b00c:	c7 85 04 e9 ff ff 03 	movl   $0x3,-0x16fc(%rbp)
    b013:	00 00 00 
    b016:	c7 85 08 e9 ff ff 2c 	movl   $0xbdf6df2c,-0x16f8(%rbp)
    b01d:	df f6 bd 
    b020:	66 c7 85 fc e7 ff ff 	movw   $0x3,-0x1804(%rbp)
    b027:	03 00 
    b029:	c7 85 0c e9 ff ff 01 	movl   $0x1,-0x16f4(%rbp)
    b030:	00 00 00 
    b033:	c7 85 10 e9 ff ff 00 	movl   $0x0,-0x16f0(%rbp)
    b03a:	00 00 00 
    b03d:	c7 85 14 e9 ff ff 0d 	movl   $0x1e7da20d,-0x16ec(%rbp)
    b044:	a2 7d 1e 
    b047:	c7 85 18 e9 ff ff 02 	movl   $0x2,-0x16e8(%rbp)
    b04e:	00 00 00 
    b051:	c7 85 1c e9 ff ff fa 	movl   $0xfffffffa,-0x16e4(%rbp)
    b058:	ff ff ff 
    b05b:	c7 85 90 ee ff ff 56 	movl   $0x487c6656,-0x1170(%rbp)
    b062:	66 7c 48 
    b065:	c7 85 94 ee ff ff bf 	movl   $0x84d9bf,-0x116c(%rbp)
    b06c:	d9 84 00 
    b06f:	c7 85 98 ee ff ff 56 	movl   $0x487c6656,-0x1168(%rbp)
    b076:	66 7c 48 
    b079:	c7 85 9c ee ff ff 56 	movl   $0x487c6656,-0x1164(%rbp)
    b080:	66 7c 48 
    b083:	c7 85 a0 ee ff ff bf 	movl   $0x84d9bf,-0x1160(%rbp)
    b08a:	d9 84 00 
    b08d:	c7 85 a4 ee ff ff 56 	movl   $0x487c6656,-0x115c(%rbp)
    b094:	66 7c 48 
    b097:	c7 85 a8 ee ff ff 56 	movl   $0x487c6656,-0x1158(%rbp)
    b09e:	66 7c 48 
    b0a1:	c7 85 ac ee ff ff bf 	movl   $0x84d9bf,-0x1154(%rbp)
    b0a8:	d9 84 00 
    b0ab:	c7 85 b0 ee ff ff 56 	movl   $0x487c6656,-0x1150(%rbp)
    b0b2:	66 7c 48 
    b0b5:	c7 85 b4 ee ff ff 56 	movl   $0x487c6656,-0x114c(%rbp)
    b0bc:	66 7c 48 
    b0bf:	c7 85 b8 ee ff ff bf 	movl   $0x84d9bf,-0x1148(%rbp)
    b0c6:	d9 84 00 
    b0c9:	c7 85 bc ee ff ff 56 	movl   $0x487c6656,-0x1144(%rbp)
    b0d0:	66 7c 48 
    b0d3:	c7 85 c0 ee ff ff 56 	movl   $0x487c6656,-0x1140(%rbp)
    b0da:	66 7c 48 
    b0dd:	c7 85 c4 ee ff ff bf 	movl   $0x84d9bf,-0x113c(%rbp)
    b0e4:	d9 84 00 
    b0e7:	c7 85 c8 ee ff ff 56 	movl   $0x487c6656,-0x1138(%rbp)
    b0ee:	66 7c 48 
    b0f1:	c7 85 cc ee ff ff 56 	movl   $0x487c6656,-0x1134(%rbp)
    b0f8:	66 7c 48 
    b0fb:	c7 85 d0 ee ff ff bf 	movl   $0x84d9bf,-0x1130(%rbp)
    b102:	d9 84 00 
    b105:	c7 85 d4 ee ff ff 56 	movl   $0x487c6656,-0x112c(%rbp)
    b10c:	66 7c 48 
    b10f:	c7 85 d8 ee ff ff 56 	movl   $0x487c6656,-0x1128(%rbp)
    b116:	66 7c 48 
    b119:	c7 85 dc ee ff ff bf 	movl   $0x84d9bf,-0x1124(%rbp)
    b120:	d9 84 00 
    b123:	c7 85 e0 ee ff ff 56 	movl   $0x487c6656,-0x1120(%rbp)
    b12a:	66 7c 48 
    b12d:	c7 85 e4 ee ff ff 56 	movl   $0x487c6656,-0x111c(%rbp)
    b134:	66 7c 48 
    b137:	c7 85 e8 ee ff ff bf 	movl   $0x84d9bf,-0x1118(%rbp)
    b13e:	d9 84 00 
    b141:	c7 85 ec ee ff ff 56 	movl   $0x487c6656,-0x1114(%rbp)
    b148:	66 7c 48 
    b14b:	66 c7 85 80 ec ff ff 	movw   $0x0,-0x1380(%rbp)
    b152:	00 00 
    b154:	66 c7 85 82 ec ff ff 	movw   $0x4d25,-0x137e(%rbp)
    b15b:	25 4d 
    b15d:	66 c7 85 84 ec ff ff 	movw   $0x0,-0x137c(%rbp)
    b164:	00 00 
    b166:	66 c7 85 86 ec ff ff 	movw   $0x0,-0x137a(%rbp)
    b16d:	00 00 
    b16f:	66 c7 85 88 ec ff ff 	movw   $0x4d25,-0x1378(%rbp)
    b176:	25 4d 
    b178:	66 c7 85 8a ec ff ff 	movw   $0x0,-0x1376(%rbp)
    b17f:	00 00 
    b181:	66 c7 85 8c ec ff ff 	movw   $0x0,-0x1374(%rbp)
    b188:	00 00 
    b18a:	66 c7 85 8e ec ff ff 	movw   $0x4d25,-0x1372(%rbp)
    b191:	25 4d 
    b193:	66 c7 85 90 ec ff ff 	movw   $0x0,-0x1370(%rbp)
    b19a:	00 00 
    b19c:	48 b8 86 72 12 92 59 	movabs $0x929a225992127286,%rax
    b1a3:	22 9a 92 
    b1a6:	48 89 85 08 ec ff ff 	mov    %rax,-0x13f8(%rbp)
    b1ad:	48 8d 85 0c e8 ff ff 	lea    -0x17f4(%rbp),%rax
    b1b4:	48 89 85 10 ec ff ff 	mov    %rax,-0x13f0(%rbp)
    b1bb:	c7 85 24 e8 ff ff 00 	movl   $0x0,-0x17dc(%rbp)
    b1c2:	00 00 00 
    b1c5:	eb 22                	jmp    b1e9 <func_22+0xf99>
    b1c7:	8b 85 24 e8 ff ff    	mov    -0x17dc(%rbp),%eax
    b1cd:	48 98                	cltq   
    b1cf:	48 8d 95 10 ee ff ff 	lea    -0x11f0(%rbp),%rdx
    b1d6:	48 83 c2 02          	add    $0x2,%rdx
    b1da:	48 89 94 c5 c0 ed ff 	mov    %rdx,-0x1240(%rbp,%rax,8)
    b1e1:	ff 
    b1e2:	83 85 24 e8 ff ff 01 	addl   $0x1,-0x17dc(%rbp)
    b1e9:	83 bd 24 e8 ff ff 07 	cmpl   $0x7,-0x17dc(%rbp)
    b1f0:	7e d5                	jle    b1c7 <func_22+0xf77>
    b1f2:	8b 05 70 ae 00 00    	mov    0xae70(%rip),%eax        # 16068 <g_102>
    b1f8:	83 c0 01             	add    $0x1,%eax
    b1fb:	89 05 67 ae 00 00    	mov    %eax,0xae67(%rip)        # 16068 <g_102>
    b201:	8b 05 61 ae 00 00    	mov    0xae61(%rip),%eax        # 16068 <g_102>
    b207:	85 c0                	test   %eax,%eax
    b209:	0f 84 49 fd ff ff    	je     af58 <func_22+0xd08>
    b20f:	8b 85 cc e7 ff ff    	mov    -0x1834(%rbp),%eax
    b215:	85 c0                	test   %eax,%eax
    b217:	0f 84 66 07 00 00    	je     b983 <func_22+0x1733>
    b21d:	48 c7 85 30 eb ff ff 	movq   $0x0,-0x14d0(%rbp)
    b224:	00 00 00 00 
    b228:	c7 85 d8 e8 ff ff 2f 	movl   $0x5a00fd2f,-0x1728(%rbp)
    b22f:	fd 00 5a 
    b232:	48 8d 05 9f ae 00 00 	lea    0xae9f(%rip),%rax        # 160d8 <g_216>
    b239:	48 89 85 38 eb ff ff 	mov    %rax,-0x14c8(%rbp)
    b240:	48 8b 05 79 c6 00 00 	mov    0xc679(%rip),%rax        # 178c0 <g_40>
    b247:	8b 10                	mov    (%rax),%edx
    b249:	89 d1                	mov    %edx,%ecx
    b24b:	8b 95 cc e7 ff ff    	mov    -0x1834(%rbp),%edx
    b251:	21 ca                	and    %ecx,%edx
    b253:	89 10                	mov    %edx,(%rax)
    b255:	8b 85 cc e7 ff ff    	mov    -0x1834(%rbp),%eax
    b25b:	89 c3                	mov    %eax,%ebx
    b25d:	48 83 bd 98 ea ff ff 	cmpq   $0x0,-0x1568(%rbp)
    b264:	00 
    b265:	0f 95 c0             	setne  %al
    b268:	0f b6 d0             	movzbl %al,%edx
    b26b:	0f b6 05 3e ae 00 00 	movzbl 0xae3e(%rip),%eax        # 160b0 <g_177>
    b272:	48 0f be c0          	movsbq %al,%rax
    b276:	48 89 d6             	mov    %rdx,%rsi
    b279:	48 89 c7             	mov    %rax,%rdi
    b27c:	e8 27 b6 ff ff       	callq  68a8 <safe_sub_func_int64_t_s_s>
    b281:	48 8b 05 a8 c8 00 00 	mov    0xc8a8(%rip),%rax        # 17b30 <g_1628+0x10>
    b288:	48 89 85 c8 ea ff ff 	mov    %rax,-0x1538(%rbp)
    b28f:	48 8b 85 c8 ea ff ff 	mov    -0x1538(%rbp),%rax
    b296:	48 3b 85 c0 ea ff ff 	cmp    -0x1540(%rbp),%rax
    b29d:	8b 85 cc e7 ff ff    	mov    -0x1834(%rbp),%eax
    b2a3:	89 c0                	mov    %eax,%eax
    b2a5:	48 89 c6             	mov    %rax,%rsi
    b2a8:	bf 00 00 00 00       	mov    $0x0,%edi
    b2ad:	e8 8f b5 ff ff       	callq  6841 <safe_add_func_int64_t_s_s>
    b2b2:	8b 95 cc e7 ff ff    	mov    -0x1834(%rbp),%edx
    b2b8:	89 d2                	mov    %edx,%edx
    b2ba:	48 39 d0             	cmp    %rdx,%rax
    b2bd:	0f 94 c2             	sete   %dl
    b2c0:	48 8b 05 49 c8 00 00 	mov    0xc849(%rip),%rax        # 17b10 <g_1499>
    b2c7:	48 8b 00             	mov    (%rax),%rax
    b2ca:	88 10                	mov    %dl,(%rax)
    b2cc:	89 de                	mov    %ebx,%esi
    b2ce:	bf 08 00 00 00       	mov    $0x8,%edi
    b2d3:	e8 2d b9 ff ff       	callq  6c05 <safe_lshift_func_uint8_t_u_s>
    b2d8:	0f b6 c0             	movzbl %al,%eax
    b2db:	39 85 d8 e8 ff ff    	cmp    %eax,-0x1728(%rbp)
    b2e1:	7c 07                	jl     b2ea <func_22+0x109a>
    b2e3:	b8 01 00 00 00       	mov    $0x1,%eax
    b2e8:	eb 05                	jmp    b2ef <func_22+0x109f>
    b2ea:	b8 00 00 00 00       	mov    $0x0,%eax
    b2ef:	84 c0                	test   %al,%al
    b2f1:	0f 84 81 06 00 00    	je     b978 <func_22+0x1728>
    b2f7:	48 8d 05 9a c7 00 00 	lea    0xc79a(%rip),%rax        # 17a98 <g_1465>
    b2fe:	48 89 85 40 f3 ff ff 	mov    %rax,-0xcc0(%rbp)
    b305:	48 8d 05 8c c7 00 00 	lea    0xc78c(%rip),%rax        # 17a98 <g_1465>
    b30c:	48 89 85 48 f3 ff ff 	mov    %rax,-0xcb8(%rbp)
    b313:	48 8d 05 7e c7 00 00 	lea    0xc77e(%rip),%rax        # 17a98 <g_1465>
    b31a:	48 89 85 50 f3 ff ff 	mov    %rax,-0xcb0(%rbp)
    b321:	48 8d 05 70 c7 00 00 	lea    0xc770(%rip),%rax        # 17a98 <g_1465>
    b328:	48 89 85 58 f3 ff ff 	mov    %rax,-0xca8(%rbp)
    b32f:	48 8d 05 62 c7 00 00 	lea    0xc762(%rip),%rax        # 17a98 <g_1465>
    b336:	48 89 85 60 f3 ff ff 	mov    %rax,-0xca0(%rbp)
    b33d:	48 8d 05 54 c7 00 00 	lea    0xc754(%rip),%rax        # 17a98 <g_1465>
    b344:	48 89 85 68 f3 ff ff 	mov    %rax,-0xc98(%rbp)
    b34b:	48 8d 85 00 e8 ff ff 	lea    -0x1800(%rbp),%rax
    b352:	48 89 85 40 eb ff ff 	mov    %rax,-0x14c0(%rbp)
    b359:	48 8b 85 c8 e9 ff ff 	mov    -0x1638(%rbp),%rax
    b360:	48 8b 10             	mov    (%rax),%rdx
    b363:	48 8b 85 c8 e9 ff ff 	mov    -0x1638(%rbp),%rax
    b36a:	48 89 10             	mov    %rdx,(%rax)
    b36d:	48 8b 05 94 c6 00 00 	mov    0xc694(%rip),%rax        # 17a08 <g_1098>
    b374:	48 8b 00             	mov    (%rax),%rax
    b377:	48 8d 95 c4 e7 ff ff 	lea    -0x183c(%rbp),%rdx
    b37e:	48 89 10             	mov    %rdx,(%rax)
    b381:	c7 85 28 e8 ff ff 04 	movl   $0x4,-0x17d8(%rbp)
    b388:	00 00 00 
    b38b:	e9 c3 02 00 00       	jmpq   b653 <func_22+0x1403>
    b390:	48 c7 85 b0 e9 ff ff 	movq   $0x0,-0x1650(%rbp)
    b397:	00 00 00 00 
    b39b:	48 8d 85 b0 e9 ff ff 	lea    -0x1650(%rbp),%rax
    b3a2:	48 89 85 e0 eb ff ff 	mov    %rax,-0x1420(%rbp)
    b3a9:	48 c7 85 b8 e9 ff ff 	movq   $0x0,-0x1648(%rbp)
    b3b0:	00 00 00 00 
    b3b4:	48 8d 85 b8 e9 ff ff 	lea    -0x1648(%rbp),%rax
    b3bb:	48 89 85 e8 eb ff ff 	mov    %rax,-0x1418(%rbp)
    b3c2:	c7 85 f8 e8 ff ff 01 	movl   $0x1,-0x1708(%rbp)
    b3c9:	00 00 00 
    b3cc:	66 c7 85 f8 e7 ff ff 	movw   $0xffff,-0x1808(%rbp)
    b3d3:	ff ff 
    b3d5:	66 c7 85 fa e7 ff ff 	movw   $0x1928,-0x1806(%rbp)
    b3dc:	28 19 
    b3de:	48 0f bf 9d ec e7 ff 	movswq -0x1814(%rbp),%rbx
    b3e5:	ff 
    b3e6:	48 8d 05 43 ae 00 00 	lea    0xae43(%rip),%rax        # 16230 <g_1501>
    b3ed:	0f b6 10             	movzbl (%rax),%edx
    b3f0:	83 c2 01             	add    $0x1,%edx
    b3f3:	88 10                	mov    %dl,(%rax)
    b3f5:	0f b6 00             	movzbl (%rax),%eax
    b3f8:	0f b6 d0             	movzbl %al,%edx
    b3fb:	48 81 bd b8 e7 ff ff 	cmpq   $0x7ae9,-0x1848(%rbp)
    b402:	e9 7a 00 00 
    b406:	0f 9e c0             	setle  %al
    b409:	0f b6 c0             	movzbl %al,%eax
    b40c:	89 d6                	mov    %edx,%esi
    b40e:	89 c7                	mov    %eax,%edi
    b410:	e8 99 b7 ff ff       	callq  6bae <safe_mod_func_uint8_t_u_u>
    b415:	84 c0                	test   %al,%al
    b417:	0f 84 8a 00 00 00    	je     b4a7 <func_22+0x1257>
    b41d:	8b 05 21 ad 00 00    	mov    0xad21(%rip),%eax        # 16144 <g_780>
    b423:	48 63 c8             	movslq %eax,%rcx
    b426:	0f b6 85 c0 e7 ff ff 	movzbl -0x1840(%rbp),%eax
    b42d:	0f be f0             	movsbl %al,%esi
    b430:	48 8b 05 d1 c5 00 00 	mov    0xc5d1(%rip),%rax        # 17a08 <g_1098>
    b437:	48 8d 95 30 e9 ff ff 	lea    -0x16d0(%rbp),%rdx
    b43e:	48 89 10             	mov    %rdx,(%rax)
    b441:	48 8b 00             	mov    (%rax),%rax
    b444:	48 8d 95 70 ed ff ff 	lea    -0x1290(%rbp),%rdx
    b44b:	48 83 c2 08          	add    $0x8,%rdx
    b44f:	48 39 d0             	cmp    %rdx,%rax
    b452:	0f 94 c0             	sete   %al
    b455:	0f b6 c0             	movzbl %al,%eax
    b458:	48 8b 95 40 eb ff ff 	mov    -0x14c0(%rbp),%rdx
    b45f:	89 c7                	mov    %eax,%edi
    b461:	e8 9a 32 00 00       	callq  e700 <func_35>
    b466:	48 8b 95 e0 eb ff ff 	mov    -0x1420(%rbp),%rdx
    b46d:	48 89 02             	mov    %rax,(%rdx)
    b470:	48 8b 85 e0 eb ff ff 	mov    -0x1420(%rbp),%rax
    b477:	48 8b 00             	mov    (%rax),%rax
    b47a:	48 8d 15 5b ac 00 00 	lea    0xac5b(%rip),%rdx        # 160dc <g_272>
    b481:	48 39 d0             	cmp    %rdx,%rax
    b484:	0f 95 c0             	setne  %al
    b487:	0f b6 c0             	movzbl %al,%eax
    b48a:	be 70 56 ea cf       	mov    $0xcfea5670,%esi
    b48f:	89 c7                	mov    %eax,%edi
    b491:	e8 8f ba ff ff       	callq  6f25 <safe_div_func_uint32_t_u_u>
    b496:	48 83 bd 38 eb ff ff 	cmpq   $0x0,-0x14c8(%rbp)
    b49d:	00 
    b49e:	74 07                	je     b4a7 <func_22+0x1257>
    b4a0:	b8 01 00 00 00       	mov    $0x1,%eax
    b4a5:	eb 05                	jmp    b4ac <func_22+0x125c>
    b4a7:	b8 00 00 00 00       	mov    $0x0,%eax
    b4ac:	3b 85 d8 e8 ff ff    	cmp    -0x1728(%rbp),%eax
    b4b2:	0f 9d c0             	setge  %al
    b4b5:	0f b6 c0             	movzbl %al,%eax
    b4b8:	48 89 de             	mov    %rbx,%rsi
    b4bb:	48 89 c7             	mov    %rax,%rdi
    b4be:	e8 bd bb ff ff       	callq  7080 <safe_mod_func_uint64_t_u_u>
    b4c3:	0f b7 85 c8 e7 ff ff 	movzwl -0x1838(%rbp),%eax
    b4ca:	0f bf d0             	movswl %ax,%edx
    b4cd:	48 8b 85 40 eb ff ff 	mov    -0x14c0(%rbp),%rax
    b4d4:	89 10                	mov    %edx,(%rax)
    b4d6:	48 8b 05 f3 c3 00 00 	mov    0xc3f3(%rip),%rax        # 178d0 <g_117>
    b4dd:	48 8d 95 c4 e7 ff ff 	lea    -0x183c(%rbp),%rdx
    b4e4:	48 89 10             	mov    %rdx,(%rax)
    b4e7:	0f b6 85 c0 e7 ff ff 	movzbl -0x1840(%rbp),%eax
    b4ee:	0f b6 d8             	movzbl %al,%ebx
    b4f1:	48 8b 85 d8 e9 ff ff 	mov    -0x1628(%rbp),%rax
    b4f8:	41 89 c6             	mov    %eax,%r14d
    b4fb:	8b 05 2b ad 00 00    	mov    0xad2b(%rip),%eax        # 1622c <g_1494>
    b501:	4c 63 e0             	movslq %eax,%r12
    b504:	8b 85 cc e7 ff ff    	mov    -0x1834(%rbp),%eax
    b50a:	85 c0                	test   %eax,%eax
    b50c:	75 76                	jne    b584 <func_22+0x1334>
    b50e:	83 bd d8 e8 ff ff 00 	cmpl   $0x0,-0x1728(%rbp)
    b515:	75 6d                	jne    b584 <func_22+0x1334>
    b517:	44 0f b7 ad f8 e7 ff 	movzwl -0x1808(%rbp),%r13d
    b51e:	ff 
    b51f:	8b 85 f8 e8 ff ff    	mov    -0x1708(%rbp),%eax
    b525:	0f b6 c0             	movzbl %al,%eax
    b528:	be 03 00 00 00       	mov    $0x3,%esi
    b52d:	89 c7                	mov    %eax,%edi
    b52f:	e8 8a b7 ff ff       	callq  6cbe <safe_rshift_func_uint8_t_u_u>
    b534:	0f b6 95 c0 e7 ff ff 	movzbl -0x1840(%rbp),%edx
    b53b:	31 d0                	xor    %edx,%eax
    b53d:	0f b6 c0             	movzbl %al,%eax
    b540:	4c 89 ee             	mov    %r13,%rsi
    b543:	48 89 c7             	mov    %rax,%rdi
    b546:	e8 35 bb ff ff       	callq  7080 <safe_mod_func_uint64_t_u_u>
    b54b:	98                   	cwtl   
    b54c:	89 c7                	mov    %eax,%edi
    b54e:	e8 4a ae ff ff       	callq  639d <safe_unary_minus_func_int16_t_s>
    b553:	48 0f bf c0          	movswq %ax,%rax
    b557:	25 cc 00 00 00       	and    $0xcc,%eax
    b55c:	48 89 c2             	mov    %rax,%rdx
    b55f:	48 8b 85 88 ea ff ff 	mov    -0x1578(%rbp),%rax
    b566:	8b 00                	mov    (%rax),%eax
    b568:	48 98                	cltq   
    b56a:	48 09 d0             	or     %rdx,%rax
    b56d:	48 be f3 5b 0c 30 9b 	movabs $0x74d0cf9b300c5bf3,%rsi
    b574:	cf d0 74 
    b577:	48 89 c7             	mov    %rax,%rdi
    b57a:	e8 30 bb ff ff       	callq  70af <safe_div_func_uint64_t_u_u>
    b57f:	48 85 c0             	test   %rax,%rax
    b582:	74 13                	je     b597 <func_22+0x1347>
    b584:	0f b7 05 b3 ab 00 00 	movzwl 0xabb3(%rip),%eax        # 1613e <g_678>
    b58b:	66 85 c0             	test   %ax,%ax
    b58e:	74 07                	je     b597 <func_22+0x1347>
    b590:	b8 01 00 00 00       	mov    $0x1,%eax
    b595:	eb 05                	jmp    b59c <func_22+0x134c>
    b597:	b8 00 00 00 00       	mov    $0x0,%eax
    b59c:	48 98                	cltq   
    b59e:	4c 89 e6             	mov    %r12,%rsi
    b5a1:	48 89 c7             	mov    %rax,%rdi
    b5a4:	e8 98 b2 ff ff       	callq  6841 <safe_add_func_int64_t_s_s>
    b5a9:	48 39 85 b8 e7 ff ff 	cmp    %rax,-0x1848(%rbp)
    b5b0:	0f 9f c0             	setg   %al
    b5b3:	0f b6 c0             	movzbl %al,%eax
    b5b6:	44 89 f6             	mov    %r14d,%esi
    b5b9:	89 c7                	mov    %eax,%edi
    b5bb:	e8 10 b9 ff ff       	callq  6ed0 <safe_sub_func_uint32_t_u_u>
    b5c0:	89 c2                	mov    %eax,%edx
    b5c2:	48 8b 05 1f c3 00 00 	mov    0xc31f(%rip),%rax        # 178e8 <g_191>
    b5c9:	48 8b 00             	mov    (%rax),%rax
    b5cc:	8b 08                	mov    (%rax),%ecx
    b5ce:	31 ca                	xor    %ecx,%edx
    b5d0:	89 10                	mov    %edx,(%rax)
    b5d2:	8b 00                	mov    (%rax),%eax
    b5d4:	89 85 cc e7 ff ff    	mov    %eax,-0x1834(%rbp)
    b5da:	8b 95 cc e7 ff ff    	mov    -0x1834(%rbp),%edx
    b5e0:	48 8b 85 40 eb ff ff 	mov    -0x14c0(%rbp),%rax
    b5e7:	8b 00                	mov    (%rax),%eax
    b5e9:	31 d0                	xor    %edx,%eax
    b5eb:	89 c2                	mov    %eax,%edx
    b5ed:	48 83 bd e8 eb ff ff 	cmpq   $0x0,-0x1418(%rbp)
    b5f4:	00 
    b5f5:	0f 95 c0             	setne  %al
    b5f8:	0f b6 c0             	movzbl %al,%eax
    b5fb:	89 d6                	mov    %edx,%esi
    b5fd:	89 c7                	mov    %eax,%edi
    b5ff:	e8 44 b8 ff ff       	callq  6e48 <safe_rshift_func_uint16_t_u_s>
    b604:	48 c7 85 60 e9 ff ff 	movq   $0x0,-0x16a0(%rbp)
    b60b:	00 00 00 00 
    b60f:	48 8b 95 60 e9 ff ff 	mov    -0x16a0(%rbp),%rdx
    b616:	48 8b 05 f3 c4 00 00 	mov    0xc4f3(%rip),%rax        # 17b10 <g_1499>
    b61d:	48 8b 00             	mov    (%rax),%rax
    b620:	48 39 c2             	cmp    %rax,%rdx
    b623:	0f 95 c0             	setne  %al
    b626:	0f b6 c0             	movzbl %al,%eax
    b629:	89 de                	mov    %ebx,%esi
    b62b:	89 c7                	mov    %eax,%edi
    b62d:	e8 8c b6 ff ff       	callq  6cbe <safe_rshift_func_uint8_t_u_u>
    b632:	66 83 bd fa e7 ff ff 	cmpw   $0x0,-0x1806(%rbp)
    b639:	00 
    b63a:	0f 9e c2             	setle  %dl
    b63d:	48 8b 05 8c c2 00 00 	mov    0xc28c(%rip),%rax        # 178d0 <g_117>
    b644:	48 8b 00             	mov    (%rax),%rax
    b647:	0f b6 d2             	movzbl %dl,%edx
    b64a:	89 10                	mov    %edx,(%rax)
    b64c:	83 85 28 e8 ff ff 01 	addl   $0x1,-0x17d8(%rbp)
    b653:	83 bd 28 e8 ff ff 13 	cmpl   $0x13,-0x17d8(%rbp)
    b65a:	0f 8e 30 fd ff ff    	jle    b390 <func_22+0x1140>
    b660:	c7 05 fa a9 00 00 00 	movl   $0x0,0xa9fa(%rip)        # 16064 <g_97>
    b667:	00 00 00 
    b66a:	90                   	nop
    b66b:	8b 05 f3 a9 00 00    	mov    0xa9f3(%rip),%eax        # 16064 <g_97>
    b671:	83 f8 02             	cmp    $0x2,%eax
    b674:	0f 87 ed 0e 00 00    	ja     c567 <func_22+0x2317>
    b67a:	48 8d 85 50 e9 ff ff 	lea    -0x16b0(%rbp),%rax
    b681:	48 89 85 d0 eb ff ff 	mov    %rax,-0x1430(%rbp)
    b688:	48 8d 05 71 c3 00 00 	lea    0xc371(%rip),%rax        # 17a00 <g_855>
    b68f:	48 89 85 d8 eb ff ff 	mov    %rax,-0x1428(%rbp)
    b696:	48 8d 05 fb c2 00 00 	lea    0xc2fb(%rip),%rax        # 17998 <g_634>
    b69d:	48 89 85 90 ee ff ff 	mov    %rax,-0x1170(%rbp)
    b6a4:	48 8d 05 ed c2 00 00 	lea    0xc2ed(%rip),%rax        # 17998 <g_634>
    b6ab:	48 89 85 98 ee ff ff 	mov    %rax,-0x1168(%rbp)
    b6b2:	48 8d 05 df c2 00 00 	lea    0xc2df(%rip),%rax        # 17998 <g_634>
    b6b9:	48 89 85 a0 ee ff ff 	mov    %rax,-0x1160(%rbp)
    b6c0:	48 8d 05 d1 c2 00 00 	lea    0xc2d1(%rip),%rax        # 17998 <g_634>
    b6c7:	48 89 85 a8 ee ff ff 	mov    %rax,-0x1158(%rbp)
    b6ce:	48 8d 05 c3 c2 00 00 	lea    0xc2c3(%rip),%rax        # 17998 <g_634>
    b6d5:	48 89 85 b0 ee ff ff 	mov    %rax,-0x1150(%rbp)
    b6dc:	c7 85 f4 e8 ff ff ff 	movl   $0xffffffff,-0x170c(%rbp)
    b6e3:	ff ff ff 
    b6e6:	48 8b 85 40 eb ff ff 	mov    -0x14c0(%rbp),%rax
    b6ed:	8b 18                	mov    (%rax),%ebx
    b6ef:	66 c7 85 c8 e7 ff ff 	movw   $0x1,-0x1838(%rbp)
    b6f6:	01 00 
    b6f8:	48 8b 85 40 eb ff ff 	mov    -0x14c0(%rbp),%rax
    b6ff:	8b 00                	mov    (%rax),%eax
    b701:	f7 d0                	not    %eax
    b703:	48 98                	cltq   
    b705:	48 89 c7             	mov    %rax,%rdi
    b708:	e8 09 b1 ff ff       	callq  6816 <safe_unary_minus_func_int64_t_s>
    b70d:	0f b7 95 c8 e7 ff ff 	movzwl -0x1838(%rbp),%edx
    b714:	48 8b 05 7d c2 00 00 	mov    0xc27d(%rip),%rax        # 17998 <g_634>
    b71b:	48 8b 00             	mov    (%rax),%rax
    b71e:	88 10                	mov    %dl,(%rax)
    b720:	0f b7 85 c8 e7 ff ff 	movzwl -0x1838(%rbp),%eax
    b727:	0f b6 c0             	movzbl %al,%eax
    b72a:	89 c6                	mov    %eax,%esi
    b72c:	bf 42 00 00 00       	mov    $0x42,%edi
    b731:	e8 24 b4 ff ff       	callq  6b5a <safe_add_func_uint8_t_u_u>
    b736:	0f b6 85 c0 e7 ff ff 	movzbl -0x1840(%rbp),%eax
    b73d:	8d 50 ff             	lea    -0x1(%rax),%edx
    b740:	88 95 c0 e7 ff ff    	mov    %dl,-0x1840(%rbp)
    b746:	3c 01                	cmp    $0x1,%al
    b748:	48 8b 85 d0 eb ff ff 	mov    -0x1430(%rbp),%rax
    b74f:	48 8b 00             	mov    (%rax),%rax
    b752:	48 8d 48 01          	lea    0x1(%rax),%rcx
    b756:	48 8b 95 d0 eb ff ff 	mov    -0x1430(%rbp),%rdx
    b75d:	48 89 0a             	mov    %rcx,(%rdx)
    b760:	48 89 c7             	mov    %rax,%rdi
    b763:	e8 b1 b8 ff ff       	callq  7019 <safe_unary_minus_func_uint64_t_u>
    b768:	89 c2                	mov    %eax,%edx
    b76a:	48 8d 05 bf aa 00 00 	lea    0xaabf(%rip),%rax        # 16230 <g_1501>
    b771:	f7 d2                	not    %edx
    b773:	88 10                	mov    %dl,(%rax)
    b775:	0f b6 00             	movzbl (%rax),%eax
    b778:	89 c2                	mov    %eax,%edx
    b77a:	48 8b 85 c8 e9 ff ff 	mov    -0x1638(%rbp),%rax
    b781:	48 8b 00             	mov    (%rax),%rax
    b784:	8b 00                	mov    (%rax),%eax
    b786:	09 d0                	or     %edx,%eax
    b788:	83 f0 d9             	xor    $0xffffffd9,%eax
    b78b:	0f be c0             	movsbl %al,%eax
    b78e:	be 05 00 00 00       	mov    $0x5,%esi
    b793:	89 c7                	mov    %eax,%edi
    b795:	e8 d2 ab ff ff       	callq  636c <safe_rshift_func_int8_t_s_u>
    b79a:	0f b6 c0             	movzbl %al,%eax
    b79d:	be 04 00 00 00       	mov    $0x4,%esi
    b7a2:	89 c7                	mov    %eax,%edi
    b7a4:	e8 5c b4 ff ff       	callq  6c05 <safe_lshift_func_uint8_t_u_s>
    b7a9:	48 8b 85 b8 e7 ff ff 	mov    -0x1848(%rbp),%rax
    b7b0:	48 83 f0 01          	xor    $0x1,%rax
    b7b4:	48 89 c2             	mov    %rax,%rdx
    b7b7:	48 8b 05 72 c1 00 00 	mov    0xc172(%rip),%rax        # 17930 <g_492>
    b7be:	0f b7 00             	movzwl (%rax),%eax
    b7c1:	48 0f bf c0          	movswq %ax,%rax
    b7c5:	48 39 c2             	cmp    %rax,%rdx
    b7c8:	0f 9f c0             	setg   %al
    b7cb:	0f b6 c0             	movzbl %al,%eax
    b7ce:	be 0d 00 00 00       	mov    $0xd,%esi
    b7d3:	89 c7                	mov    %eax,%edi
    b7d5:	e8 6e b6 ff ff       	callq  6e48 <safe_rshift_func_uint16_t_u_s>
    b7da:	0f b7 c0             	movzwl %ax,%eax
    b7dd:	be ff ff ff ff       	mov    $0xffffffff,%esi
    b7e2:	89 c7                	mov    %eax,%edi
    b7e4:	e8 e3 ae ff ff       	callq  66cc <safe_mod_func_int32_t_s_s>
    b7e9:	39 c3                	cmp    %eax,%ebx
    b7eb:	8b 85 d8 e8 ff ff    	mov    -0x1728(%rbp),%eax
    b7f1:	48 98                	cltq   
    b7f3:	48 ba 2a c2 1a 4b 44 	movabs $0x894dcc444b1ac22a,%rdx
    b7fa:	cc 4d 89 
    b7fd:	48 39 d0             	cmp    %rdx,%rax
    b800:	48 8b 05 01 c2 00 00 	mov    0xc201(%rip),%rax        # 17a08 <g_1098>
    b807:	48 8b 10             	mov    (%rax),%rdx
    b80a:	48 8b 05 ff c1 00 00 	mov    0xc1ff(%rip),%rax        # 17a10 <g_1097>
    b811:	48 8b 00             	mov    (%rax),%rax
    b814:	48 8b 00             	mov    (%rax),%rax
    b817:	48 8b 12             	mov    (%rdx),%rdx
    b81a:	48 89 10             	mov    %rdx,(%rax)
    b81d:	8b 85 d8 e8 ff ff    	mov    -0x1728(%rbp),%eax
    b823:	0f b7 d8             	movzwl %ax,%ebx
    b826:	0f b7 85 c8 e7 ff ff 	movzwl -0x1838(%rbp),%eax
    b82d:	44 0f bf e8          	movswl %ax,%r13d
    b831:	48 8b 05 a8 c0 00 00 	mov    0xc0a8(%rip),%rax        # 178e0 <g_192>
    b838:	8b 00                	mov    (%rax),%eax
    b83a:	85 c0                	test   %eax,%eax
    b83c:	0f 84 94 00 00 00    	je     b8d6 <func_22+0x1686>
    b842:	48 8b 85 d8 eb ff ff 	mov    -0x1428(%rbp),%rax
    b849:	48 8d 15 40 cd 00 00 	lea    0xcd40(%rip),%rdx        # 18590 <g_856>
    b850:	48 89 10             	mov    %rdx,(%rax)
    b853:	44 8b a5 c4 e7 ff ff 	mov    -0x183c(%rbp),%r12d
    b85a:	8b 85 cc e7 ff ff    	mov    -0x1834(%rbp),%eax
    b860:	0f be d0             	movsbl %al,%edx
    b863:	48 8b 05 c6 c0 00 00 	mov    0xc0c6(%rip),%rax        # 17930 <g_492>
    b86a:	0f b7 00             	movzwl (%rax),%eax
    b86d:	66 85 c0             	test   %ax,%ax
    b870:	0f 95 c0             	setne  %al
    b873:	0f b6 c0             	movzbl %al,%eax
    b876:	89 d6                	mov    %edx,%esi
    b878:	89 c7                	mov    %eax,%edi
    b87a:	e8 eb a9 ff ff       	callq  626a <safe_div_func_int8_t_s_s>
    b87f:	0f be c0             	movsbl %al,%eax
    b882:	44 89 e6             	mov    %r12d,%esi
    b885:	89 c7                	mov    %eax,%edi
    b887:	e8 79 ad ff ff       	callq  6605 <safe_sub_func_int32_t_s_s>
    b88c:	89 85 f4 e8 ff ff    	mov    %eax,-0x170c(%rbp)
    b892:	8b 05 18 77 00 00    	mov    0x7718(%rip),%eax        # 12fb0 <l_1708.4666>
    b898:	39 85 f4 e8 ff ff    	cmp    %eax,-0x170c(%rbp)
    b89e:	0f 9c c0             	setl   %al
    b8a1:	0f b6 d0             	movzbl %al,%edx
    b8a4:	48 8b 8d 98 ee ff ff 	mov    -0x1168(%rbp),%rcx
    b8ab:	48 8b 85 c0 ea ff ff 	mov    -0x1540(%rbp),%rax
    b8b2:	48 8b 00             	mov    (%rax),%rax
    b8b5:	48 8b 00             	mov    (%rax),%rax
    b8b8:	48 39 c1             	cmp    %rax,%rcx
    b8bb:	0f 94 c0             	sete   %al
    b8be:	0f b6 c0             	movzbl %al,%eax
    b8c1:	89 d6                	mov    %edx,%esi
    b8c3:	89 c7                	mov    %eax,%edi
    b8c5:	e8 7e b5 ff ff       	callq  6e48 <safe_rshift_func_uint16_t_u_s>
    b8ca:	66 85 c0             	test   %ax,%ax
    b8cd:	74 07                	je     b8d6 <func_22+0x1686>
    b8cf:	b8 01 00 00 00       	mov    $0x1,%eax
    b8d4:	eb 05                	jmp    b8db <func_22+0x168b>
    b8d6:	b8 00 00 00 00       	mov    $0x0,%eax
    b8db:	44 21 e8             	and    %r13d,%eax
    b8de:	89 c2                	mov    %eax,%edx
    b8e0:	8b 05 aa a7 00 00    	mov    0xa7aa(%rip),%eax        # 16090 <g_127+0x10>
    b8e6:	39 c2                	cmp    %eax,%edx
    b8e8:	0f 93 c0             	setae  %al
    b8eb:	0f b6 c0             	movzbl %al,%eax
    b8ee:	48 8b 95 b8 e7 ff ff 	mov    -0x1848(%rbp),%rdx
    b8f5:	48 89 d6             	mov    %rdx,%rsi
    b8f8:	48 89 c7             	mov    %rax,%rdi
    b8fb:	e8 f7 b0 ff ff       	callq  69f7 <safe_div_func_int64_t_s_s>
    b900:	48 89 c2             	mov    %rax,%rdx
    b903:	48 8b 05 de c0 00 00 	mov    0xc0de(%rip),%rax        # 179e8 <g_758>
    b90a:	66 89 10             	mov    %dx,(%rax)
    b90d:	0f b7 00             	movzwl (%rax),%eax
    b910:	0f b7 c0             	movzwl %ax,%eax
    b913:	89 de                	mov    %ebx,%esi
    b915:	89 c7                	mov    %eax,%edi
    b917:	e8 72 b4 ff ff       	callq  6d8e <safe_div_func_uint16_t_u_u>
    b91c:	66 85 c0             	test   %ax,%ax
    b91f:	74 11                	je     b932 <func_22+0x16e2>
    b921:	48 83 bd b8 e7 ff ff 	cmpq   $0x0,-0x1848(%rbp)
    b928:	00 
    b929:	74 07                	je     b932 <func_22+0x16e2>
    b92b:	b8 01 00 00 00       	mov    $0x1,%eax
    b930:	eb 05                	jmp    b937 <func_22+0x16e7>
    b932:	b8 00 00 00 00       	mov    $0x0,%eax
    b937:	0f b7 d0             	movzwl %ax,%edx
    b93a:	8b 85 cc e7 ff ff    	mov    -0x1834(%rbp),%eax
    b940:	0f b7 c0             	movzwl %ax,%eax
    b943:	89 d6                	mov    %edx,%esi
    b945:	89 c7                	mov    %eax,%edi
    b947:	e8 42 b4 ff ff       	callq  6d8e <safe_div_func_uint16_t_u_u>
    b94c:	ba 01 00 00 00       	mov    $0x1,%edx
    b951:	48 8b 85 88 ea ff ff 	mov    -0x1578(%rbp),%rax
    b958:	8b 00                	mov    (%rax),%eax
    b95a:	31 c2                	xor    %eax,%edx
    b95c:	48 8b 85 88 ea ff ff 	mov    -0x1578(%rbp),%rax
    b963:	89 10                	mov    %edx,(%rax)
    b965:	80 ad dc e7 ff ff 01 	subb   $0x1,-0x1824(%rbp)
    b96c:	0f b6 85 c0 e7 ff ff 	movzbl -0x1840(%rbp),%eax
    b973:	e9 a4 2b 00 00       	jmpq   e51c <func_22+0x42cc>
    b978:	8b 85 d8 e8 ff ff    	mov    -0x1728(%rbp),%eax
    b97e:	e9 99 2b 00 00       	jmpq   e51c <func_22+0x42cc>
    b983:	66 c7 85 f2 e7 ff ff 	movw   $0xffff,-0x180e(%rbp)
    b98a:	ff ff 
    b98c:	48 c7 85 e8 ea ff ff 	movq   $0x6,-0x1518(%rbp)
    b993:	06 00 00 00 
    b997:	c7 85 98 e8 ff ff 01 	movl   $0x1,-0x1768(%rbp)
    b99e:	00 00 00 
    b9a1:	48 c7 85 f0 ea ff ff 	movq   $0x0,-0x1510(%rbp)
    b9a8:	00 00 00 00 
    b9ac:	48 8d 85 18 ec ff ff 	lea    -0x13e8(%rbp),%rax
    b9b3:	48 89 85 f8 ea ff ff 	mov    %rax,-0x1508(%rbp)
    b9ba:	c7 85 9c e8 ff ff f9 	movl   $0xfffffff9,-0x1764(%rbp)
    b9c1:	ff ff ff 
    b9c4:	c7 85 a0 e8 ff ff 05 	movl   $0x5,-0x1760(%rbp)
    b9cb:	00 00 00 
    b9ce:	c7 85 a4 e8 ff ff 01 	movl   $0x1,-0x175c(%rbp)
    b9d5:	00 00 00 
    b9d8:	c7 85 a8 e8 ff ff 00 	movl   $0x0,-0x1758(%rbp)
    b9df:	00 00 00 
    b9e2:	c7 85 ac e8 ff ff ff 	movl   $0xffffffff,-0x1754(%rbp)
    b9e9:	ff ff ff 
    b9ec:	c7 85 b0 e8 ff ff ba 	movl   $0x873b69ba,-0x1750(%rbp)
    b9f3:	69 3b 87 
    b9f6:	c7 85 b4 e8 ff ff ff 	movl   $0xffffffff,-0x174c(%rbp)
    b9fd:	ff ff ff 
    ba00:	c7 85 b8 e8 ff ff ee 	movl   $0x870eb6ee,-0x1748(%rbp)
    ba07:	b6 0e 87 
    ba0a:	c7 85 bc e8 ff ff ff 	movl   $0xffffffff,-0x1744(%rbp)
    ba11:	ff ff ff 
    ba14:	c7 85 c0 e8 ff ff fd 	movl   $0xfffffffd,-0x1740(%rbp)
    ba1b:	ff ff ff 
    ba1e:	66 c7 85 f4 e7 ff ff 	movw   $0x1,-0x180c(%rbp)
    ba25:	01 00 
    ba27:	48 8d 85 68 e9 ff ff 	lea    -0x1698(%rbp),%rax
    ba2e:	48 89 85 00 eb ff ff 	mov    %rax,-0x1500(%rbp)
    ba35:	48 c7 85 b0 e9 ff ff 	movq   $0x0,-0x1650(%rbp)
    ba3c:	00 00 00 00 
    ba40:	48 8d 85 b0 e9 ff ff 	lea    -0x1650(%rbp),%rax
    ba47:	48 89 85 c0 ed ff ff 	mov    %rax,-0x1240(%rbp)
    ba4e:	48 8d 85 b0 e9 ff ff 	lea    -0x1650(%rbp),%rax
    ba55:	48 89 85 c8 ed ff ff 	mov    %rax,-0x1238(%rbp)
    ba5c:	48 8d 85 b0 e9 ff ff 	lea    -0x1650(%rbp),%rax
    ba63:	48 89 85 d0 ed ff ff 	mov    %rax,-0x1230(%rbp)
    ba6a:	48 8d 85 b0 e9 ff ff 	lea    -0x1650(%rbp),%rax
    ba71:	48 89 85 d8 ed ff ff 	mov    %rax,-0x1228(%rbp)
    ba78:	48 8d 85 b0 e9 ff ff 	lea    -0x1650(%rbp),%rax
    ba7f:	48 89 85 e0 ed ff ff 	mov    %rax,-0x1220(%rbp)
    ba86:	48 8d 85 b0 e9 ff ff 	lea    -0x1650(%rbp),%rax
    ba8d:	48 89 85 e8 ed ff ff 	mov    %rax,-0x1218(%rbp)
    ba94:	48 8d 85 b0 e9 ff ff 	lea    -0x1650(%rbp),%rax
    ba9b:	48 89 85 f0 ed ff ff 	mov    %rax,-0x1210(%rbp)
    baa2:	48 8d 85 b0 e9 ff ff 	lea    -0x1650(%rbp),%rax
    baa9:	48 89 85 f8 ed ff ff 	mov    %rax,-0x1208(%rbp)
    bab0:	48 8d 85 b0 e9 ff ff 	lea    -0x1650(%rbp),%rax
    bab7:	48 89 85 00 ee ff ff 	mov    %rax,-0x1200(%rbp)
    babe:	48 8d 85 b0 e9 ff ff 	lea    -0x1650(%rbp),%rax
    bac5:	48 89 85 08 ee ff ff 	mov    %rax,-0x11f8(%rbp)
    bacc:	48 8d 85 c0 ed ff ff 	lea    -0x1240(%rbp),%rax
    bad3:	48 83 c0 18          	add    $0x18,%rax
    bad7:	48 89 85 b8 e9 ff ff 	mov    %rax,-0x1648(%rbp)
    bade:	48 8d 85 b8 e9 ff ff 	lea    -0x1648(%rbp),%rax
    bae5:	48 89 85 08 eb ff ff 	mov    %rax,-0x14f8(%rbp)
    baec:	0f b7 85 f2 e7 ff ff 	movzwl -0x180e(%rbp),%eax
    baf3:	83 e8 01             	sub    $0x1,%eax
    baf6:	66 89 85 f2 e7 ff ff 	mov    %ax,-0x180e(%rbp)
    bafd:	48 8b 05 0c c0 00 00 	mov    0xc00c(%rip),%rax        # 17b10 <g_1499>
    bb04:	48 8b 00             	mov    (%rax),%rax
    bb07:	0f b6 00             	movzbl (%rax),%eax
    bb0a:	88 85 c0 e7 ff ff    	mov    %al,-0x1840(%rbp)
    bb10:	0f b6 85 c0 e7 ff ff 	movzbl -0x1840(%rbp),%eax
    bb17:	0f b6 c0             	movzbl %al,%eax
    bb1a:	f7 d0                	not    %eax
    bb1c:	89 85 c4 e7 ff ff    	mov    %eax,-0x183c(%rbp)
    bb22:	8b 85 c4 e7 ff ff    	mov    -0x183c(%rbp),%eax
    bb28:	85 c0                	test   %eax,%eax
    bb2a:	0f 84 f9 07 00 00    	je     c329 <func_22+0x20d9>
    bb30:	c6 85 e0 e7 ff ff 07 	movb   $0x7,-0x1820(%rbp)
    bb37:	48 c7 85 80 ec ff ff 	movq   $0x0,-0x1380(%rbp)
    bb3e:	00 00 00 00 
    bb42:	48 8d 85 40 f1 ff ff 	lea    -0xec0(%rbp),%rax
    bb49:	48 05 f0 00 00 00    	add    $0xf0,%rax
    bb4f:	48 89 85 88 ec ff ff 	mov    %rax,-0x1378(%rbp)
    bb56:	48 8d 85 40 f1 ff ff 	lea    -0xec0(%rbp),%rax
    bb5d:	48 05 f0 00 00 00    	add    $0xf0,%rax
    bb63:	48 89 85 90 ec ff ff 	mov    %rax,-0x1370(%rbp)
    bb6a:	48 c7 85 98 ec ff ff 	movq   $0x0,-0x1368(%rbp)
    bb71:	00 00 00 00 
    bb75:	48 8d 85 40 f1 ff ff 	lea    -0xec0(%rbp),%rax
    bb7c:	48 05 f0 00 00 00    	add    $0xf0,%rax
    bb82:	48 89 85 a0 ec ff ff 	mov    %rax,-0x1360(%rbp)
    bb89:	48 8d 85 40 f1 ff ff 	lea    -0xec0(%rbp),%rax
    bb90:	48 05 f0 00 00 00    	add    $0xf0,%rax
    bb96:	48 89 85 a8 ec ff ff 	mov    %rax,-0x1358(%rbp)
    bb9d:	c7 85 c4 e8 ff ff 01 	movl   $0x1,-0x173c(%rbp)
    bba4:	00 00 00 
    bba7:	c6 85 e1 e7 ff ff 7e 	movb   $0x7e,-0x181f(%rbp)
    bbae:	48 8d 85 40 e9 ff ff 	lea    -0x16c0(%rbp),%rax
    bbb5:	48 89 85 90 ee ff ff 	mov    %rax,-0x1170(%rbp)
    bbbc:	48 8d 85 40 e9 ff ff 	lea    -0x16c0(%rbp),%rax
    bbc3:	48 89 85 98 ee ff ff 	mov    %rax,-0x1168(%rbp)
    bbca:	48 8d 85 40 e9 ff ff 	lea    -0x16c0(%rbp),%rax
    bbd1:	48 89 85 a0 ee ff ff 	mov    %rax,-0x1160(%rbp)
    bbd8:	48 8d 85 40 e9 ff ff 	lea    -0x16c0(%rbp),%rax
    bbdf:	48 89 85 a8 ee ff ff 	mov    %rax,-0x1158(%rbp)
    bbe6:	48 8d 85 40 e9 ff ff 	lea    -0x16c0(%rbp),%rax
    bbed:	48 89 85 b0 ee ff ff 	mov    %rax,-0x1150(%rbp)
    bbf4:	48 8d 85 40 e9 ff ff 	lea    -0x16c0(%rbp),%rax
    bbfb:	48 89 85 b8 ee ff ff 	mov    %rax,-0x1148(%rbp)
    bc02:	48 8d 85 40 e9 ff ff 	lea    -0x16c0(%rbp),%rax
    bc09:	48 89 85 c0 ee ff ff 	mov    %rax,-0x1140(%rbp)
    bc10:	48 8d 85 40 e9 ff ff 	lea    -0x16c0(%rbp),%rax
    bc17:	48 89 85 c8 ee ff ff 	mov    %rax,-0x1138(%rbp)
    bc1e:	48 8d 85 40 e9 ff ff 	lea    -0x16c0(%rbp),%rax
    bc25:	48 89 85 d0 ee ff ff 	mov    %rax,-0x1130(%rbp)
    bc2c:	48 8d 85 40 e9 ff ff 	lea    -0x16c0(%rbp),%rax
    bc33:	48 89 85 d8 ee ff ff 	mov    %rax,-0x1128(%rbp)
    bc3a:	48 8b 05 3f be 00 00 	mov    0xbe3f(%rip),%rax        # 17a80 <g_1217>
    bc41:	48 8b 00             	mov    (%rax),%rax
    bc44:	0f b7 00             	movzwl (%rax),%eax
    bc47:	0f b7 d8             	movzwl %ax,%ebx
    bc4a:	48 8b 85 b8 e7 ff ff 	mov    -0x1848(%rbp),%rax
    bc51:	41 89 c4             	mov    %eax,%r12d
    bc54:	48 8b 05 25 be 00 00 	mov    0xbe25(%rip),%rax        # 17a80 <g_1217>
    bc5b:	48 8b 00             	mov    (%rax),%rax
    bc5e:	0f b7 00             	movzwl (%rax),%eax
    bc61:	66 85 c0             	test   %ax,%ax
    bc64:	74 6b                	je     bcd1 <func_22+0x1a81>
    bc66:	66 0f be 95 e0 e7 ff 	movsbw -0x1820(%rbp),%dx
    bc6d:	ff 
    bc6e:	0f b7 85 c8 e7 ff ff 	movzwl -0x1838(%rbp),%eax
    bc75:	66 39 c2             	cmp    %ax,%dx
    bc78:	75 57                	jne    bcd1 <func_22+0x1a81>
    bc7a:	0f b7 85 c8 e7 ff ff 	movzwl -0x1838(%rbp),%eax
    bc81:	0f bf d0             	movswl %ax,%edx
    bc84:	48 8b 05 15 be 00 00 	mov    0xbe15(%rip),%rax        # 17aa0 <g_1464>
    bc8b:	48 8b 00             	mov    (%rax),%rax
    bc8e:	48 85 c0             	test   %rax,%rax
    bc91:	75 0a                	jne    bc9d <func_22+0x1a4d>
    bc93:	48 83 bd e8 ea ff ff 	cmpq   $0x0,-0x1518(%rbp)
    bc9a:	00 
    bc9b:	74 11                	je     bcae <func_22+0x1a5e>
    bc9d:	8b 85 cc e7 ff ff    	mov    -0x1834(%rbp),%eax
    bca3:	85 c0                	test   %eax,%eax
    bca5:	74 07                	je     bcae <func_22+0x1a5e>
    bca7:	b9 01 00 00 00       	mov    $0x1,%ecx
    bcac:	eb 05                	jmp    bcb3 <func_22+0x1a63>
    bcae:	b9 00 00 00 00       	mov    $0x0,%ecx
    bcb3:	0f b6 05 b3 a3 00 00 	movzbl 0xa3b3(%rip),%eax        # 1606d <g_112>
    bcba:	0f b6 c0             	movzbl %al,%eax
    bcbd:	39 c1                	cmp    %eax,%ecx
    bcbf:	0f 9d c0             	setge  %al
    bcc2:	0f b6 c0             	movzbl %al,%eax
    bcc5:	89 d6                	mov    %edx,%esi
    bcc7:	89 c7                	mov    %eax,%edi
    bcc9:	e8 48 a7 ff ff       	callq  6416 <safe_mod_func_int16_t_s_s>
    bcce:	66 85 c0             	test   %ax,%ax
    bcd1:	83 bd 98 e8 ff ff 10 	cmpl   $0x10,-0x1768(%rbp)
    bcd8:	0f 96 c0             	setbe  %al
    bcdb:	0f b6 c0             	movzbl %al,%eax
    bcde:	21 85 c4 e8 ff ff    	and    %eax,-0x173c(%rbp)
    bce4:	ba ff ff ff ff       	mov    $0xffffffff,%edx
    bce9:	8b 85 c4 e7 ff ff    	mov    -0x183c(%rbp),%eax
    bcef:	09 d0                	or     %edx,%eax
    bcf1:	89 85 c4 e7 ff ff    	mov    %eax,-0x183c(%rbp)
    bcf7:	8b 85 c4 e7 ff ff    	mov    -0x183c(%rbp),%eax
    bcfd:	0b 85 8c e8 ff ff    	or     -0x1774(%rbp),%eax
    bd03:	44 89 e6             	mov    %r12d,%esi
    bd06:	89 c7                	mov    %eax,%edi
    bd08:	e8 bf a9 ff ff       	callq  66cc <safe_mod_func_int32_t_s_s>
    bd0d:	3d 42 77 79 02       	cmp    $0x2797742,%eax
    bd12:	0f 9f c0             	setg   %al
    bd15:	0f b6 c0             	movzbl %al,%eax
    bd18:	39 c3                	cmp    %eax,%ebx
    bd1a:	0f 9c c0             	setl   %al
    bd1d:	0f b6 c0             	movzbl %al,%eax
    bd20:	be 09 00 00 00       	mov    $0x9,%esi
    bd25:	89 c7                	mov    %eax,%edi
    bd27:	e8 8c b1 ff ff       	callq  6eb8 <safe_add_func_uint32_t_u_u>
    bd2c:	85 c0                	test   %eax,%eax
    bd2e:	0f 84 41 02 00 00    	je     bf75 <func_22+0x1d25>
    bd34:	48 c7 85 18 eb ff ff 	movq   $0x0,-0x14e8(%rbp)
    bd3b:	00 00 00 00 
    bd3f:	48 8d 85 40 f3 ff ff 	lea    -0xcc0(%rbp),%rax
    bd46:	48 8d 15 d3 a9 00 00 	lea    0xa9d3(%rip),%rdx        # 16720 <g_3059+0x408>
    bd4d:	b9 3f 00 00 00       	mov    $0x3f,%ecx
    bd52:	48 89 c7             	mov    %rax,%rdi
    bd55:	48 89 d6             	mov    %rdx,%rsi
    bd58:	f3 48 a5             	rep movsq %ds:(%rsi),%es:(%rdi)
    bd5b:	c7 85 d0 e8 ff ff 08 	movl   $0x8,-0x1730(%rbp)
    bd62:	00 00 00 
    bd65:	48 8d 85 78 e9 ff ff 	lea    -0x1688(%rbp),%rax
    bd6c:	48 89 85 20 eb ff ff 	mov    %rax,-0x14e0(%rbp)
    bd73:	c7 85 d4 e8 ff ff 58 	movl   $0x6af43458,-0x172c(%rbp)
    bd7a:	34 f4 6a 
    bd7d:	c7 85 10 e8 ff ff 00 	movl   $0x0,-0x17f0(%rbp)
    bd84:	00 00 00 
    bd87:	eb 1a                	jmp    bda3 <func_22+0x1b53>
    bd89:	8b 85 10 e8 ff ff    	mov    -0x17f0(%rbp),%eax
    bd8f:	48 98                	cltq   
    bd91:	c7 84 85 30 ed ff ff 	movl   $0x4,-0x12d0(%rbp,%rax,4)
    bd98:	04 00 00 00 
    bd9c:	83 85 10 e8 ff ff 01 	addl   $0x1,-0x17f0(%rbp)
    bda3:	83 bd 10 e8 ff ff 04 	cmpl   $0x4,-0x17f0(%rbp)
    bdaa:	7e dd                	jle    bd89 <func_22+0x1b39>
    bdac:	48 8b 85 88 ea ff ff 	mov    -0x1578(%rbp),%rax
    bdb3:	c7 00 9f cb fb da    	movl   $0xdafbcb9f,(%rax)
    bdb9:	8b 85 c4 e7 ff ff    	mov    -0x183c(%rbp),%eax
    bdbf:	89 85 c4 e7 ff ff    	mov    %eax,-0x183c(%rbp)
    bdc5:	8b 85 c4 e7 ff ff    	mov    -0x183c(%rbp),%eax
    bdcb:	4c 63 e8             	movslq %eax,%r13
    bdce:	48 8b 05 33 bc 00 00 	mov    0xbc33(%rip),%rax        # 17a08 <g_1098>
    bdd5:	48 8b 00             	mov    (%rax),%rax
    bdd8:	4c 8b 20             	mov    (%rax),%r12
    bddb:	48 83 bd f8 ea ff ff 	cmpq   $0x0,-0x1508(%rbp)
    bde2:	00 
    bde3:	0f 94 c0             	sete   %al
    bde6:	0f b6 d8             	movzbl %al,%ebx
    bde9:	48 8d 85 38 e9 ff ff 	lea    -0x16c8(%rbp),%rax
    bdf0:	48 39 85 d0 ea ff ff 	cmp    %rax,-0x1530(%rbp)
    bdf7:	0f 94 c0             	sete   %al
    bdfa:	44 0f b6 f0          	movzbl %al,%r14d
    bdfe:	48 8b 85 b8 e7 ff ff 	mov    -0x1848(%rbp),%rax
    be05:	41 89 c7             	mov    %eax,%r15d
    be08:	66 0f be 85 e0 e7 ff 	movsbw -0x1820(%rbp),%ax
    be0f:	ff 
    be10:	0f b7 c0             	movzwl %ax,%eax
    be13:	89 c6                	mov    %eax,%esi
    be15:	bf 00 00 00 00       	mov    $0x0,%edi
    be1a:	e8 3d af ff ff       	callq  6d5c <safe_mod_func_uint16_t_u_u>
    be1f:	0f b7 c0             	movzwl %ax,%eax
    be22:	8b 95 d0 e8 ff ff    	mov    -0x1730(%rbp),%edx
    be28:	89 d6                	mov    %edx,%esi
    be2a:	89 c7                	mov    %eax,%edi
    be2c:	e8 8d af ff ff       	callq  6dbe <safe_lshift_func_uint16_t_u_s>
    be31:	89 c2                	mov    %eax,%edx
    be33:	48 8b 05 f6 ba 00 00 	mov    0xbaf6(%rip),%rax        # 17930 <g_492>
    be3a:	66 89 10             	mov    %dx,(%rax)
    be3d:	0f b7 00             	movzwl (%rax),%eax
    be40:	0f bf d0             	movswl %ax,%edx
    be43:	0f b6 85 e1 e7 ff ff 	movzbl -0x181f(%rbp),%eax
    be4a:	39 c2                	cmp    %eax,%edx
    be4c:	0f 94 c0             	sete   %al
    be4f:	0f b6 c0             	movzbl %al,%eax
    be52:	44 89 fe             	mov    %r15d,%esi
    be55:	89 c7                	mov    %eax,%edi
    be57:	e8 1e b0 ff ff       	callq  6e7a <safe_rshift_func_uint16_t_u_u>
    be5c:	66 85 c0             	test   %ax,%ax
    be5f:	74 08                	je     be69 <func_22+0x1c19>
    be61:	48 83 bd b8 e7 ff ff 	cmpq   $0x0,-0x1848(%rbp)
    be68:	00 
    be69:	8b 85 cc e7 ff ff    	mov    -0x1834(%rbp),%eax
    be6f:	88 85 c0 e7 ff ff    	mov    %al,-0x1840(%rbp)
    be75:	0f b6 85 c0 e7 ff ff 	movzbl -0x1840(%rbp),%eax
    be7c:	0f b6 c0             	movzbl %al,%eax
    be7f:	be 01 00 00 00       	mov    $0x1,%esi
    be84:	89 c7                	mov    %eax,%edi
    be86:	e8 08 ad ff ff       	callq  6b93 <safe_mul_func_uint8_t_u_u>
    be8b:	0f b6 c0             	movzbl %al,%eax
    be8e:	44 21 f0             	and    %r14d,%eax
    be91:	89 c2                	mov    %eax,%edx
    be93:	8b 85 cc e7 ff ff    	mov    -0x1834(%rbp),%eax
    be99:	39 c2                	cmp    %eax,%edx
    be9b:	0f 97 c2             	seta   %dl
    be9e:	48 8b 05 3b ba 00 00 	mov    0xba3b(%rip),%rax        # 178e0 <g_192>
    bea5:	0f b6 d2             	movzbl %dl,%edx
    bea8:	89 10                	mov    %edx,(%rax)
    beaa:	8b 00                	mov    (%rax),%eax
    beac:	31 d8                	xor    %ebx,%eax
    beae:	89 c2                	mov    %eax,%edx
    beb0:	8b 05 7e a3 00 00    	mov    0xa37e(%rip),%eax        # 16234 <g_1502>
    beb6:	48 98                	cltq   
    beb8:	48 89 d6             	mov    %rdx,%rsi
    bebb:	48 89 c7             	mov    %rax,%rdi
    bebe:	e8 e5 a9 ff ff       	callq  68a8 <safe_sub_func_int64_t_s_s>
    bec3:	8b 95 c4 e7 ff ff    	mov    -0x183c(%rbp),%edx
    bec9:	48 63 d2             	movslq %edx,%rdx
    becc:	48 09 c2             	or     %rax,%rdx
    becf:	48 8b 85 80 ea ff ff 	mov    -0x1580(%rbp),%rax
    bed6:	0f b7 00             	movzwl (%rax),%eax
    bed9:	31 c2                	xor    %eax,%edx
    bedb:	48 8b 85 80 ea ff ff 	mov    -0x1580(%rbp),%rax
    bee2:	66 89 10             	mov    %dx,(%rax)
    bee5:	0f b6 85 c0 e7 ff ff 	movzbl -0x1840(%rbp),%eax
    beec:	0f be c0             	movsbl %al,%eax
    beef:	48 8b 95 e8 ea ff ff 	mov    -0x1518(%rbp),%rdx
    bef6:	89 95 30 ed ff ff    	mov    %edx,-0x12d0(%rbp)
    befc:	8b 95 30 ed ff ff    	mov    -0x12d0(%rbp),%edx
    bf02:	89 d7                	mov    %edx,%edi
    bf04:	48 8b 1d e5 ba 00 00 	mov    0xbae5(%rip),%rbx        # 179f0 <g_794>
    bf0b:	4c 89 e9             	mov    %r13,%rcx
    bf0e:	4c 89 e2             	mov    %r12,%rdx
    bf11:	89 c6                	mov    %eax,%esi
    bf13:	e8 e8 27 00 00       	callq  e700 <func_35>
    bf18:	48 89 03             	mov    %rax,(%rbx)
    bf1b:	48 8b 13             	mov    (%rbx),%rdx
    bf1e:	48 8b 85 20 eb ff ff 	mov    -0x14e0(%rbp),%rax
    bf25:	48 89 10             	mov    %rdx,(%rax)
    bf28:	48 8b 05 59 bb 00 00 	mov    0xbb59(%rip),%rax        # 17a88 <g_1216>
    bf2f:	48 8b 00             	mov    (%rax),%rax
    bf32:	48 8b 00             	mov    (%rax),%rax
    bf35:	0f b7 00             	movzwl (%rax),%eax
    bf38:	0f b7 d0             	movzwl %ax,%edx
    bf3b:	48 8b 1d c6 ba 00 00 	mov    0xbac6(%rip),%rbx        # 17a08 <g_1098>
    bf42:	8b 85 d4 e8 ff ff    	mov    -0x172c(%rbp),%eax
    bf48:	89 d6                	mov    %edx,%esi
    bf4a:	89 c7                	mov    %eax,%edi
    bf4c:	e8 3e 41 00 00       	callq  1008f <func_65>
    bf51:	48 89 03             	mov    %rax,(%rbx)
    bf54:	48 8b 85 10 ed ff ff 	mov    -0x12f0(%rbp),%rax
    bf5b:	48 83 e8 01          	sub    $0x1,%rax
    bf5f:	48 89 85 10 ed ff ff 	mov    %rax,-0x12f0(%rbp)
    bf66:	c7 85 cc e7 ff ff 00 	movl   $0x0,-0x1834(%rbp)
    bf6d:	00 00 00 
    bf70:	e9 a0 03 00 00       	jmpq   c315 <func_22+0x20c5>
    bf75:	48 8d 85 40 f3 ff ff 	lea    -0xcc0(%rbp),%rax
    bf7c:	48 8d 15 9d 65 00 00 	lea    0x659d(%rip),%rdx        # 12520 <g_2687+0x1470>
    bf83:	b9 1e 00 00 00       	mov    $0x1e,%ecx
    bf88:	48 89 c7             	mov    %rax,%rdi
    bf8b:	48 89 d6             	mov    %rdx,%rsi
    bf8e:	f3 48 a5             	rep movsq %ds:(%rsi),%es:(%rdi)
    bf91:	48 89 f2             	mov    %rsi,%rdx
    bf94:	48 89 f8             	mov    %rdi,%rax
    bf97:	8b 0a                	mov    (%rdx),%ecx
    bf99:	89 08                	mov    %ecx,(%rax)
    bf9b:	48 8d 40 04          	lea    0x4(%rax),%rax
    bf9f:	48 8d 52 04          	lea    0x4(%rdx),%rdx
    bfa3:	0f b6 0a             	movzbl (%rdx),%ecx
    bfa6:	88 08                	mov    %cl,(%rax)
    bfa8:	48 8d 40 01          	lea    0x1(%rax),%rax
    bfac:	48 8d 52 01          	lea    0x1(%rdx),%rdx
    bfb0:	c7 85 c8 e8 ff ff 15 	movl   $0x3a74f415,-0x1738(%rbp)
    bfb7:	f4 74 3a 
    bfba:	c7 85 cc e8 ff ff 04 	movl   $0x4,-0x1734(%rbp)
    bfc1:	00 00 00 
    bfc4:	48 c7 85 10 eb ff ff 	movq   $0x0,-0x14f0(%rbp)
    bfcb:	00 00 00 00 
    bfcf:	c7 85 30 ed ff ff 01 	movl   $0x1,-0x12d0(%rbp)
    bfd6:	00 00 00 
    bfd9:	c7 85 34 ed ff ff 01 	movl   $0x1,-0x12cc(%rbp)
    bfe0:	00 00 00 
    bfe3:	c7 85 38 ed ff ff 01 	movl   $0x1,-0x12c8(%rbp)
    bfea:	00 00 00 
    bfed:	c7 85 3c ed ff ff 01 	movl   $0x1,-0x12c4(%rbp)
    bff4:	00 00 00 
    bff7:	c7 85 40 ed ff ff 01 	movl   $0x1,-0x12c0(%rbp)
    bffe:	00 00 00 
    c001:	c7 85 44 ed ff ff 01 	movl   $0x1,-0x12bc(%rbp)
    c008:	00 00 00 
    c00b:	c7 85 48 ed ff ff 01 	movl   $0x1,-0x12b8(%rbp)
    c012:	00 00 00 
    c015:	c7 85 4c ed ff ff 01 	movl   $0x1,-0x12b4(%rbp)
    c01c:	00 00 00 
    c01f:	c7 85 50 ed ff ff 01 	movl   $0x1,-0x12b0(%rbp)
    c026:	00 00 00 
    c029:	c7 85 54 ed ff ff 01 	movl   $0x1,-0x12ac(%rbp)
    c030:	00 00 00 
    c033:	c7 85 58 ed ff ff 01 	movl   $0x1,-0x12a8(%rbp)
    c03a:	00 00 00 
    c03d:	c7 85 5c ed ff ff 01 	movl   $0x1,-0x12a4(%rbp)
    c044:	00 00 00 
    c047:	c7 85 60 ed ff ff 01 	movl   $0x1,-0x12a0(%rbp)
    c04e:	00 00 00 
    c051:	c7 85 64 ed ff ff 01 	movl   $0x1,-0x129c(%rbp)
    c058:	00 00 00 
    c05b:	c7 85 68 ed ff ff 01 	movl   $0x1,-0x1298(%rbp)
    c062:	00 00 00 
    c065:	c7 85 6c ed ff ff 01 	movl   $0x1,-0x1294(%rbp)
    c06c:	00 00 00 
    c06f:	8b 05 67 a0 00 00    	mov    0xa067(%rip),%eax        # 160dc <g_272>
    c075:	41 89 c5             	mov    %eax,%r13d
    c078:	c6 85 48 f3 ff ff 00 	movb   $0x0,-0xcb8(%rbp)
    c07f:	0f b6 05 9e 9f 00 00 	movzbl 0x9f9e(%rip),%eax        # 16024 <g_2>
    c086:	0f b6 d8             	movzbl %al,%ebx
    c089:	48 8b 85 b8 e7 ff ff 	mov    -0x1848(%rbp),%rax
    c090:	be 03 00 00 00       	mov    $0x3,%esi
    c095:	48 89 c7             	mov    %rax,%rdi
    c098:	e8 e3 af ff ff       	callq  7080 <safe_mod_func_uint64_t_u_u>
    c09d:	49 89 c4             	mov    %rax,%r12
    c0a0:	48 8b 05 f1 b8 00 00 	mov    0xb8f1(%rip),%rax        # 17998 <g_634>
    c0a7:	48 8b 00             	mov    (%rax),%rax
    c0aa:	0f b6 00             	movzbl (%rax),%eax
    c0ad:	0f be c0             	movsbl %al,%eax
    c0b0:	be 00 00 00 00       	mov    $0x0,%esi
    c0b5:	89 c7                	mov    %eax,%edi
    c0b7:	e8 36 a1 ff ff       	callq  61f2 <safe_sub_func_int8_t_s_s>
    c0bc:	48 0f be c0          	movsbq %al,%rax
    c0c0:	49 39 c4             	cmp    %rax,%r12
    c0c3:	0f 96 c0             	setbe  %al
    c0c6:	0f b6 c0             	movzbl %al,%eax
    c0c9:	48 23 85 b8 e7 ff ff 	and    -0x1848(%rbp),%rax
    c0d0:	49 89 c4             	mov    %rax,%r12
    c0d3:	48 8b 05 56 b8 00 00 	mov    0xb856(%rip),%rax        # 17930 <g_492>
    c0da:	0f b7 00             	movzwl (%rax),%eax
    c0dd:	98                   	cwtl   
    c0de:	0f b6 15 3b a1 00 00 	movzbl 0xa13b(%rip),%edx        # 16220 <g_1343>
    c0e5:	0f be ca             	movsbl %dl,%ecx
    c0e8:	48 8b 95 d8 ee ff ff 	mov    -0x1128(%rbp),%rdx
    c0ef:	48 85 d2             	test   %rdx,%rdx
    c0f2:	0f 95 c2             	setne  %dl
    c0f5:	0f b6 d2             	movzbl %dl,%edx
    c0f8:	39 d1                	cmp    %edx,%ecx
    c0fa:	0f 9f c2             	setg   %dl
    c0fd:	0f b6 d2             	movzbl %dl,%edx
    c100:	89 95 c8 e8 ff ff    	mov    %edx,-0x1738(%rbp)
    c106:	89 c6                	mov    %eax,%esi
    c108:	bf 03 00 00 00       	mov    $0x3,%edi
    c10d:	e8 ac ac ff ff       	callq  6dbe <safe_lshift_func_uint16_t_u_s>
    c112:	48 8b 85 70 e9 ff ff 	mov    -0x1690(%rbp),%rax
    c119:	48 8b 10             	mov    (%rax),%rdx
    c11c:	48 8b 85 70 e9 ff ff 	mov    -0x1690(%rbp),%rax
    c123:	4c 21 e2             	and    %r12,%rdx
    c126:	48 89 10             	mov    %rdx,(%rax)
    c129:	8b 05 fd a0 00 00    	mov    0xa0fd(%rip),%eax        # 1622c <g_1494>
    c12f:	8b 85 c4 e7 ff ff    	mov    -0x183c(%rbp),%eax
    c135:	39 85 c8 e8 ff ff    	cmp    %eax,-0x1738(%rbp)
    c13b:	0f 9c c0             	setl   %al
    c13e:	0f b6 c0             	movzbl %al,%eax
    c141:	23 85 cc e8 ff ff    	and    -0x1734(%rbp),%eax
    c147:	48 98                	cltq   
    c149:	48 89 de             	mov    %rbx,%rsi
    c14c:	48 89 c7             	mov    %rax,%rdi
    c14f:	e8 54 a7 ff ff       	callq  68a8 <safe_sub_func_int64_t_s_s>
    c154:	48 f7 d0             	not    %rax
    c157:	8b 95 cc e7 ff ff    	mov    -0x1834(%rbp),%edx
    c15d:	89 d2                	mov    %edx,%edx
    c15f:	48 39 d0             	cmp    %rdx,%rax
    c162:	0f 9d c0             	setge  %al
    c165:	0f b6 c0             	movzbl %al,%eax
    c168:	be c0 ea ff ff       	mov    $0xffffeac0,%esi
    c16d:	89 c7                	mov    %eax,%edi
    c16f:	e8 81 a2 ff ff       	callq  63f5 <safe_mul_func_int16_t_s_s>
    c174:	98                   	cwtl   
    c175:	39 85 9c e8 ff ff    	cmp    %eax,-0x1764(%rbp)
    c17b:	0f 92 c0             	setb   %al
    c17e:	0f b6 c0             	movzbl %al,%eax
    c181:	89 85 c4 e7 ff ff    	mov    %eax,-0x183c(%rbp)
    c187:	48 8b 85 10 eb ff ff 	mov    -0x14f0(%rbp),%rax
    c18e:	48 3b 85 d8 ea ff ff 	cmp    -0x1528(%rbp),%rax
    c195:	0f 94 c0             	sete   %al
    c198:	0f b6 d0             	movzbl %al,%edx
    c19b:	48 8b 85 88 ea ff ff 	mov    -0x1578(%rbp),%rax
    c1a2:	89 10                	mov    %edx,(%rax)
    c1a4:	48 8b 85 88 ea ff ff 	mov    -0x1578(%rbp),%rax
    c1ab:	8b 00                	mov    (%rax),%eax
    c1ad:	85 c0                	test   %eax,%eax
    c1af:	0f 9e c0             	setle  %al
    c1b2:	0f b6 c0             	movzbl %al,%eax
    c1b5:	4c 89 ee             	mov    %r13,%rsi
    c1b8:	48 89 c7             	mov    %rax,%rdi
    c1bb:	e8 8b ae ff ff       	callq  704b <safe_sub_func_uint64_t_u_u>
    c1c0:	89 c7                	mov    %eax,%edi
    c1c2:	e8 df ac ff ff       	callq  6ea6 <safe_unary_minus_func_uint32_t_u>
    c1c7:	89 85 44 ed ff ff    	mov    %eax,-0x12bc(%rbp)
    c1cd:	8b 85 a0 e8 ff ff    	mov    -0x1760(%rbp),%eax
    c1d3:	e9 44 23 00 00       	jmpq   e51c <func_22+0x42cc>
    c1d8:	48 b8 22 04 54 bb bd 	movabs $0x517f64bdbb540422,%rax
    c1df:	64 7f 51 
    c1e2:	48 89 85 28 eb ff ff 	mov    %rax,-0x14d8(%rbp)
    c1e9:	8b 85 cc e7 ff ff    	mov    -0x1834(%rbp),%eax
    c1ef:	89 c3                	mov    %eax,%ebx
    c1f1:	48 8b 85 70 e9 ff ff 	mov    -0x1690(%rbp),%rax
    c1f8:	48 8b 08             	mov    (%rax),%rcx
    c1fb:	8b 05 43 9f 00 00    	mov    0x9f43(%rip),%eax        # 16144 <g_780>
    c201:	48 63 d0             	movslq %eax,%rdx
    c204:	48 8b 85 70 e9 ff ff 	mov    -0x1690(%rbp),%rax
    c20b:	48 21 ca             	and    %rcx,%rdx
    c20e:	48 89 10             	mov    %rdx,(%rax)
    c211:	8b 05 99 9f 00 00    	mov    0x9f99(%rip),%eax        # 161b0 <g_1067+0x50>
    c217:	41 89 c4             	mov    %eax,%r12d
    c21a:	48 8b 85 c0 e9 ff ff 	mov    -0x1640(%rbp),%rax
    c221:	48 8b 00             	mov    (%rax),%rax
    c224:	48 8b 10             	mov    (%rax),%rdx
    c227:	8b 02                	mov    (%rdx),%eax
    c229:	8d 48 01             	lea    0x1(%rax),%ecx
    c22c:	89 0a                	mov    %ecx,(%rdx)
    c22e:	85 c0                	test   %eax,%eax
    c230:	75 08                	jne    c23a <func_22+0x1fea>
    c232:	48 83 bd b8 e7 ff ff 	cmpq   $0x0,-0x1848(%rbp)
    c239:	00 
    c23a:	0f b7 85 c8 e7 ff ff 	movzwl -0x1838(%rbp),%eax
    c241:	0f b7 c0             	movzwl %ax,%eax
    c244:	89 c7                	mov    %eax,%edi
    c246:	e8 9e aa ff ff       	callq  6ce9 <safe_unary_minus_func_uint16_t_u>
    c24b:	66 85 c0             	test   %ax,%ax
    c24e:	0f 94 c0             	sete   %al
    c251:	0f b6 d0             	movzbl %al,%edx
    c254:	8b 85 cc e7 ff ff    	mov    -0x1834(%rbp),%eax
    c25a:	39 c2                	cmp    %eax,%edx
    c25c:	0f 92 c0             	setb   %al
    c25f:	0f b6 c0             	movzbl %al,%eax
    c262:	49 39 c4             	cmp    %rax,%r12
    c265:	0f 94 c2             	sete   %dl
    c268:	48 8b 05 a1 b8 00 00 	mov    0xb8a1(%rip),%rax        # 17b10 <g_1499>
    c26f:	48 8b 00             	mov    (%rax),%rax
    c272:	88 10                	mov    %dl,(%rax)
    c274:	48 8b 85 b8 e7 ff ff 	mov    -0x1848(%rbp),%rax
    c27b:	48 89 de             	mov    %rbx,%rsi
    c27e:	48 89 c7             	mov    %rax,%rdi
    c281:	e8 22 a6 ff ff       	callq  68a8 <safe_sub_func_int64_t_s_s>
    c286:	89 c2                	mov    %eax,%edx
    c288:	8b 85 cc e7 ff ff    	mov    -0x1834(%rbp),%eax
    c28e:	89 d6                	mov    %edx,%esi
    c290:	89 c7                	mov    %eax,%edi
    c292:	e8 66 ac ff ff       	callq  6efd <safe_mod_func_uint32_t_u_u>
    c297:	83 f8 02             	cmp    $0x2,%eax
    c29a:	0f 97 c0             	seta   %al
    c29d:	0f b6 d0             	movzbl %al,%edx
    c2a0:	66 0f be 85 da e7 ff 	movsbw -0x1826(%rbp),%ax
    c2a7:	ff 
    c2a8:	09 d0                	or     %edx,%eax
    c2aa:	0f b7 c0             	movzwl %ax,%eax
    c2ad:	89 c6                	mov    %eax,%esi
    c2af:	bf cc f1 00 00       	mov    $0xf1cc,%edi
    c2b4:	e8 84 aa ff ff       	callq  6d3d <safe_mul_func_uint16_t_u_u>
    c2b9:	0f b7 d0             	movzwl %ax,%edx
    c2bc:	8b 85 cc e7 ff ff    	mov    -0x1834(%rbp),%eax
    c2c2:	39 c2                	cmp    %eax,%edx
    c2c4:	0f 94 c0             	sete   %al
    c2c7:	0f b6 d0             	movzbl %al,%edx
    c2ca:	48 8b 05 5f b6 00 00 	mov    0xb65f(%rip),%rax        # 17930 <g_492>
    c2d1:	0f b7 00             	movzwl (%rax),%eax
    c2d4:	98                   	cwtl   
    c2d5:	39 c2                	cmp    %eax,%edx
    c2d7:	0f 9e c0             	setle  %al
    c2da:	0f b6 d0             	movzbl %al,%edx
    c2dd:	8b 85 c4 e7 ff ff    	mov    -0x183c(%rbp),%eax
    c2e3:	21 d0                	and    %edx,%eax
    c2e5:	89 85 c4 e7 ff ff    	mov    %eax,-0x183c(%rbp)
    c2eb:	0f b6 85 c0 e7 ff ff 	movzbl -0x1840(%rbp),%eax
    c2f2:	84 c0                	test   %al,%al
    c2f4:	0f 85 c6 00 00 00    	jne    c3c0 <func_22+0x2170>
    c2fa:	8b 85 cc e7 ff ff    	mov    -0x1834(%rbp),%eax
    c300:	89 c0                	mov    %eax,%eax
    c302:	be 02 00 00 00       	mov    $0x2,%esi
    c307:	48 89 c7             	mov    %rax,%rdi
    c30a:	e8 32 a5 ff ff       	callq  6841 <safe_add_func_int64_t_s_s>
    c30f:	89 85 cc e7 ff ff    	mov    %eax,-0x1834(%rbp)
    c315:	8b 85 cc e7 ff ff    	mov    -0x1834(%rbp),%eax
    c31b:	83 f8 1c             	cmp    $0x1c,%eax
    c31e:	0f 87 b4 fe ff ff    	ja     c1d8 <func_22+0x1f88>
    c324:	e9 9b 00 00 00       	jmpq   c3c4 <func_22+0x2174>
    c329:	48 c7 05 74 9d 00 00 	movq   $0x0,0x9d74(%rip)        # 160a8 <g_152>
    c330:	00 00 00 00 
    c334:	eb 77                	jmp    c3ad <func_22+0x215d>
    c336:	48 8b 05 83 b5 00 00 	mov    0xb583(%rip),%rax        # 178c0 <g_40>
    c33d:	8b 08                	mov    (%rax),%ecx
    c33f:	48 8b 95 88 ea ff ff 	mov    -0x1578(%rbp),%rdx
    c346:	8b 12                	mov    (%rdx),%edx
    c348:	31 ca                	xor    %ecx,%edx
    c34a:	89 10                	mov    %edx,(%rax)
    c34c:	48 8b 85 88 ea ff ff 	mov    -0x1578(%rbp),%rax
    c353:	8b 00                	mov    (%rax),%eax
    c355:	89 c2                	mov    %eax,%edx
    c357:	8b 85 cc e7 ff ff    	mov    -0x1834(%rbp),%eax
    c35d:	31 d0                	xor    %edx,%eax
    c35f:	89 c2                	mov    %eax,%edx
    c361:	48 8b 85 88 ea ff ff 	mov    -0x1578(%rbp),%rax
    c368:	89 10                	mov    %edx,(%rax)
    c36a:	48 8b 05 a7 b6 00 00 	mov    0xb6a7(%rip),%rax        # 17a18 <g_1096>
    c371:	48 8b 00             	mov    (%rax),%rax
    c374:	48 8b 00             	mov    (%rax),%rax
    c377:	48 8b 00             	mov    (%rax),%rax
    c37a:	48 c7 00 00 00 00 00 	movq   $0x0,(%rax)
    c381:	0f b7 85 c8 e7 ff ff 	movzwl -0x1838(%rbp),%eax
    c388:	66 85 c0             	test   %ax,%ax
    c38b:	75 36                	jne    c3c3 <func_22+0x2173>
    c38d:	48 8b 05 14 9d 00 00 	mov    0x9d14(%rip),%rax        # 160a8 <g_152>
    c394:	0f b7 c0             	movzwl %ax,%eax
    c397:	be 04 00 00 00       	mov    $0x4,%esi
    c39c:	89 c7                	mov    %eax,%edi
    c39e:	e8 5c a9 ff ff       	callq  6cff <safe_add_func_uint16_t_u_u>
    c3a3:	0f b7 c0             	movzwl %ax,%eax
    c3a6:	48 89 05 fb 9c 00 00 	mov    %rax,0x9cfb(%rip)        # 160a8 <g_152>
    c3ad:	48 8b 05 f4 9c 00 00 	mov    0x9cf4(%rip),%rax        # 160a8 <g_152>
    c3b4:	48 83 f8 1c          	cmp    $0x1c,%rax
    c3b8:	0f 85 78 ff ff ff    	jne    c336 <func_22+0x20e6>
    c3be:	eb 04                	jmp    c3c4 <func_22+0x2174>
    c3c0:	90                   	nop
    c3c1:	eb 01                	jmp    c3c4 <func_22+0x2174>
    c3c3:	90                   	nop
    c3c4:	48 83 ad e0 e9 ff ff 	subq   $0x1,-0x1620(%rbp)
    c3cb:	01 
    c3cc:	8b 85 cc e7 ff ff    	mov    -0x1834(%rbp),%eax
    c3d2:	85 c0                	test   %eax,%eax
    c3d4:	0f 84 5a 01 00 00    	je     c534 <func_22+0x22e4>
    c3da:	48 8d 05 4f 9e 00 00 	lea    0x9e4f(%rip),%rax        # 16230 <g_1501>
    c3e1:	0f b6 00             	movzbl (%rax),%eax
    c3e4:	0f be d8             	movsbl %al,%ebx
    c3e7:	4c 8b a5 b8 e7 ff ff 	mov    -0x1848(%rbp),%r12
    c3ee:	48 8b 85 b8 e7 ff ff 	mov    -0x1848(%rbp),%rax
    c3f5:	44 0f bf e8          	movswl %ax,%r13d
    c3f9:	0f b6 85 c0 e7 ff ff 	movzbl -0x1840(%rbp),%eax
    c400:	44 0f b6 f0          	movzbl %al,%r14d
    c404:	48 8b 05 dd b5 00 00 	mov    0xb5dd(%rip),%rax        # 179e8 <g_758>
    c40b:	66 c7 00 01 00       	movw   $0x1,(%rax)
    c410:	48 8b 85 88 ea ff ff 	mov    -0x1578(%rbp),%rax
    c417:	c7 00 01 00 00 00    	movl   $0x1,(%rax)
    c41d:	48 8b 85 88 ea ff ff 	mov    -0x1578(%rbp),%rax
    c424:	44 8b 38             	mov    (%rax),%r15d
    c427:	8b 85 cc e7 ff ff    	mov    -0x1834(%rbp),%eax
    c42d:	0f b7 c0             	movzwl %ax,%eax
    c430:	be 07 00 00 00       	mov    $0x7,%esi
    c435:	89 c7                	mov    %eax,%edi
    c437:	e8 3e aa ff ff       	callq  6e7a <safe_rshift_func_uint16_t_u_u>
    c43c:	0f be c0             	movsbl %al,%eax
    c43f:	89 c6                	mov    %eax,%esi
    c441:	bf 60 00 00 00       	mov    $0x60,%edi
    c446:	e8 e6 9d ff ff       	callq  6231 <safe_mod_func_int8_t_s_s>
    c44b:	89 c1                	mov    %eax,%ecx
    c44d:	48 8b 85 d0 ea ff ff 	mov    -0x1530(%rbp),%rax
    c454:	48 8b 00             	mov    (%rax),%rax
    c457:	48 8d 95 10 ee ff ff 	lea    -0x11f0(%rbp),%rdx
    c45e:	48 83 c2 21          	add    $0x21,%rdx
    c462:	48 39 d0             	cmp    %rdx,%rax
    c465:	0f 94 c0             	sete   %al
    c468:	09 c8                	or     %ecx,%eax
    c46a:	0f b6 c0             	movzbl %al,%eax
    c46d:	be 02 00 00 00       	mov    $0x2,%esi
    c472:	89 c7                	mov    %eax,%edi
    c474:	e8 8c a7 ff ff       	callq  6c05 <safe_lshift_func_uint8_t_u_s>
    c479:	0f b6 c0             	movzbl %al,%eax
    c47c:	41 39 c7             	cmp    %eax,%r15d
    c47f:	0f 9f c0             	setg   %al
    c482:	0f b6 c0             	movzbl %al,%eax
    c485:	8b 95 c4 e7 ff ff    	mov    -0x183c(%rbp),%edx
    c48b:	21 d0                	and    %edx,%eax
    c48d:	98                   	cwtl   
    c48e:	44 89 f6             	mov    %r14d,%esi
    c491:	89 c7                	mov    %eax,%edi
    c493:	e8 5d 9f ff ff       	callq  63f5 <safe_mul_func_int16_t_s_s>
    c498:	48 8b 85 c8 ea ff ff 	mov    -0x1538(%rbp),%rax
    c49f:	48 8b 00             	mov    (%rax),%rax
    c4a2:	48 39 85 e0 ea ff ff 	cmp    %rax,-0x1520(%rbp)
    c4a9:	0f 94 c0             	sete   %al
    c4ac:	0f b6 d0             	movzbl %al,%edx
    c4af:	48 8b 05 5a b6 00 00 	mov    0xb65a(%rip),%rax        # 17b10 <g_1499>
    c4b6:	48 8b 00             	mov    (%rax),%rax
    c4b9:	0f b6 00             	movzbl (%rax),%eax
    c4bc:	0f b6 c0             	movzbl %al,%eax
    c4bf:	39 c2                	cmp    %eax,%edx
    c4c1:	0f 9e c0             	setle  %al
    c4c4:	0f b6 d0             	movzbl %al,%edx
    c4c7:	48 8b 85 80 ea ff ff 	mov    -0x1580(%rbp),%rax
    c4ce:	0f b7 00             	movzwl (%rax),%eax
    c4d1:	09 c2                	or     %eax,%edx
    c4d3:	48 8b 85 80 ea ff ff 	mov    -0x1580(%rbp),%rax
    c4da:	66 89 10             	mov    %dx,(%rax)
    c4dd:	48 8b 85 80 ea ff ff 	mov    -0x1580(%rbp),%rax
    c4e4:	0f b7 00             	movzwl (%rax),%eax
    c4e7:	98                   	cwtl   
    c4e8:	44 89 ee             	mov    %r13d,%esi
    c4eb:	89 c7                	mov    %eax,%edi
    c4ed:	e8 03 9f ff ff       	callq  63f5 <safe_mul_func_int16_t_s_s>
    c4f2:	66 c7 05 45 9d 00 00 	movw   $0x1,0x9d45(%rip)        # 16240 <g_1832>
    c4f9:	01 00 
    c4fb:	b8 01 00 00 00       	mov    $0x1,%eax
    c500:	48 98                	cltq   
    c502:	4c 89 e6             	mov    %r12,%rsi
    c505:	48 89 c7             	mov    %rax,%rdi
    c508:	e8 21 ab ff ff       	callq  702e <safe_add_func_uint64_t_u_u>
    c50d:	0f be c0             	movsbl %al,%eax
    c510:	89 de                	mov    %ebx,%esi
    c512:	89 c7                	mov    %eax,%edi
    c514:	e8 f9 9c ff ff       	callq  6212 <safe_mul_func_int8_t_s_s>
    c519:	0f be c0             	movsbl %al,%eax
    c51c:	89 c6                	mov    %eax,%esi
    c51e:	bf 14 e8 ff ff       	mov    $0xffffe814,%edi
    c523:	e8 3b a0 ff ff       	callq  6563 <safe_rshift_func_int16_t_s_u>
    c528:	66 85 c0             	test   %ax,%ax
    c52b:	74 07                	je     c534 <func_22+0x22e4>
    c52d:	b8 01 00 00 00       	mov    $0x1,%eax
    c532:	eb 05                	jmp    c539 <func_22+0x22e9>
    c534:	b8 00 00 00 00       	mov    $0x0,%eax
    c539:	0f b6 c0             	movzbl %al,%eax
    c53c:	be 01 00 00 00       	mov    $0x1,%esi
    c541:	89 c7                	mov    %eax,%edi
    c543:	e8 bd a6 ff ff       	callq  6c05 <safe_lshift_func_uint8_t_u_s>
    c548:	0f b6 85 c0 e7 ff ff 	movzbl -0x1840(%rbp),%eax
    c54f:	0f b6 d0             	movzbl %al,%edx
    c552:	48 8b 85 88 ea ff ff 	mov    -0x1578(%rbp),%rax
    c559:	89 10                	mov    %edx,(%rax)
    c55b:	48 8b 85 b8 e7 ff ff 	mov    -0x1848(%rbp),%rax
    c562:	e9 b5 1f 00 00       	jmpq   e51c <func_22+0x42cc>
    c567:	8b 85 c4 e7 ff ff    	mov    -0x183c(%rbp),%eax
    c56d:	85 c0                	test   %eax,%eax
    c56f:	74 2c                	je     c59d <func_22+0x234d>
    c571:	48 8d 85 40 f3 ff ff 	lea    -0xcc0(%rbp),%rax
    c578:	48 8d 15 a1 60 00 00 	lea    0x60a1(%rip),%rdx        # 12620 <g_2687+0x1570>
    c57f:	b9 96 00 00 00       	mov    $0x96,%ecx
    c584:	48 89 c7             	mov    %rax,%rdi
    c587:	48 89 d6             	mov    %rdx,%rsi
    c58a:	f3 48 a5             	rep movsq %ds:(%rsi),%es:(%rdi)
    c58d:	48 c7 85 e0 f5 ff ff 	movq   $0x0,-0xa20(%rbp)
    c594:	00 00 00 00 
    c598:	e9 10 09 00 00       	jmpq   cead <func_22+0x2c5d>
    c59d:	66 c7 85 40 f3 ff ff 	movw   $0x1,-0xcc0(%rbp)
    c5a4:	01 00 
    c5a6:	66 c7 85 42 f3 ff ff 	movw   $0x1,-0xcbe(%rbp)
    c5ad:	01 00 
    c5af:	66 c7 85 44 f3 ff ff 	movw   $0x1,-0xcbc(%rbp)
    c5b6:	01 00 
    c5b8:	66 c7 85 46 f3 ff ff 	movw   $0x1,-0xcba(%rbp)
    c5bf:	01 00 
    c5c1:	c7 85 dc e8 ff ff fc 	movl   $0xfffffffc,-0x1724(%rbp)
    c5c8:	ff ff ff 
    c5cb:	c7 85 e0 e8 ff ff 00 	movl   $0x0,-0x1720(%rbp)
    c5d2:	00 00 00 
    c5d5:	48 8d 05 8c b4 00 00 	lea    0xb48c(%rip),%rax        # 17a68 <g_1218+0x8>
    c5dc:	48 89 85 48 eb ff ff 	mov    %rax,-0x14b8(%rbp)
    c5e3:	48 c7 85 50 eb ff ff 	movq   $0x0,-0x14b0(%rbp)
    c5ea:	00 00 00 00 
    c5ee:	48 c7 85 58 eb ff ff 	movq   $0x0,-0x14a8(%rbp)
    c5f5:	00 00 00 00 
    c5f9:	c7 85 e4 e8 ff ff 36 	movl   $0xb1443536,-0x171c(%rbp)
    c600:	35 44 b1 
    c603:	0f b7 85 c8 e7 ff ff 	movzwl -0x1838(%rbp),%eax
    c60a:	48 0f bf c0          	movswq %ax,%rax
    c60e:	48 8b 95 b8 e7 ff ff 	mov    -0x1848(%rbp),%rdx
    c615:	48 89 d6             	mov    %rdx,%rsi
    c618:	48 89 c7             	mov    %rax,%rdi
    c61b:	e8 88 a2 ff ff       	callq  68a8 <safe_sub_func_int64_t_s_s>
    c620:	89 c2                	mov    %eax,%edx
    c622:	48 8b 85 88 ea ff ff 	mov    -0x1578(%rbp),%rax
    c629:	89 10                	mov    %edx,(%rax)
    c62b:	c7 85 28 e8 ff ff 00 	movl   $0x0,-0x17d8(%rbp)
    c632:	00 00 00 
    c635:	e9 1f 04 00 00       	jmpq   ca59 <func_22+0x2809>
    c63a:	48 8d 05 57 b4 00 00 	lea    0xb457(%rip),%rax        # 17a98 <g_1465>
    c641:	48 89 85 60 eb ff ff 	mov    %rax,-0x14a0(%rbp)
    c648:	c7 85 e8 e8 ff ff f7 	movl   $0xfffffff7,-0x1718(%rbp)
    c64f:	ff ff ff 
    c652:	48 8d 05 3f b3 00 00 	lea    0xb33f(%rip),%rax        # 17998 <g_634>
    c659:	48 89 85 68 eb ff ff 	mov    %rax,-0x1498(%rbp)
    c660:	48 8d 85 e4 e7 ff ff 	lea    -0x181c(%rbp),%rax
    c667:	48 89 85 70 eb ff ff 	mov    %rax,-0x1490(%rbp)
    c66e:	c7 85 ec e8 ff ff c0 	movl   $0x28896dc0,-0x1714(%rbp)
    c675:	6d 89 28 
    c678:	c7 85 f0 e8 ff ff 06 	movl   $0x6,-0x1710(%rbp)
    c67f:	00 00 00 
    c682:	66 c7 85 f6 e7 ff ff 	movw   $0x90e8,-0x180a(%rbp)
    c689:	e8 90 
    c68b:	48 c7 85 78 eb ff ff 	movq   $0x0,-0x1488(%rbp)
    c692:	00 00 00 00 
    c696:	48 8d 85 f0 ec ff ff 	lea    -0x1310(%rbp),%rax
    c69d:	48 83 c0 20          	add    $0x20,%rax
    c6a1:	48 89 85 80 eb ff ff 	mov    %rax,-0x1480(%rbp)
    c6a8:	48 8b 05 81 b2 00 00 	mov    0xb281(%rip),%rax        # 17930 <g_492>
    c6af:	0f b7 00             	movzwl (%rax),%eax
    c6b2:	98                   	cwtl   
    c6b3:	be 04 00 00 00       	mov    $0x4,%esi
    c6b8:	89 c7                	mov    %eax,%edi
    c6ba:	e8 22 9e ff ff       	callq  64e1 <safe_lshift_func_int16_t_s_u>
    c6bf:	48 8b 95 88 ea ff ff 	mov    -0x1578(%rbp),%rdx
    c6c6:	8b 12                	mov    (%rdx),%edx
    c6c8:	98                   	cwtl   
    c6c9:	09 c2                	or     %eax,%edx
    c6cb:	48 8b 85 88 ea ff ff 	mov    -0x1578(%rbp),%rax
    c6d2:	89 10                	mov    %edx,(%rax)
    c6d4:	48 83 bd 60 eb ff ff 	cmpq   $0x0,-0x14a0(%rbp)
    c6db:	00 
    c6dc:	48 8b 85 b8 e7 ff ff 	mov    -0x1848(%rbp),%rax
    c6e3:	0f b6 d8             	movzbl %al,%ebx
    c6e6:	48 8b 05 43 b2 00 00 	mov    0xb243(%rip),%rax        # 17930 <g_492>
    c6ed:	0f b7 00             	movzwl (%rax),%eax
    c6f0:	44 0f b7 e0          	movzwl %ax,%r12d
    c6f4:	0f b7 85 c8 e7 ff ff 	movzwl -0x1838(%rbp),%eax
    c6fb:	4c 0f bf e8          	movswq %ax,%r13
    c6ff:	0f b7 05 38 9a 00 00 	movzwl 0x9a38(%rip),%eax        # 1613e <g_678>
    c706:	66 85 c0             	test   %ax,%ax
    c709:	0f 95 c0             	setne  %al
    c70c:	0f b6 d0             	movzbl %al,%edx
    c70f:	48 83 bd 68 eb ff ff 	cmpq   $0x0,-0x1498(%rbp)
    c716:	00 
    c717:	0f 94 c0             	sete   %al
    c71a:	0f b6 c0             	movzbl %al,%eax
    c71d:	39 85 e8 e8 ff ff    	cmp    %eax,-0x1718(%rbp)
    c723:	0f 96 c0             	setbe  %al
    c726:	0f b6 c0             	movzbl %al,%eax
    c729:	89 d6                	mov    %edx,%esi
    c72b:	89 c7                	mov    %eax,%edi
    c72d:	e8 23 9d ff ff       	callq  6455 <safe_div_func_int16_t_s_s>
    c732:	48 8b 85 80 ea ff ff 	mov    -0x1580(%rbp),%rax
    c739:	66 c7 00 00 00       	movw   $0x0,(%rax)
    c73e:	48 8b 85 80 ea ff ff 	mov    -0x1580(%rbp),%rax
    c745:	0f b7 10             	movzwl (%rax),%edx
    c748:	48 8b 85 70 eb ff ff 	mov    -0x1490(%rbp),%rax
    c74f:	66 89 10             	mov    %dx,(%rax)
    c752:	48 8b 85 70 eb ff ff 	mov    -0x1490(%rbp),%rax
    c759:	0f b7 00             	movzwl (%rax),%eax
    c75c:	0f bf d0             	movswl %ax,%edx
    c75f:	0f b7 05 e8 9a 00 00 	movzwl 0x9ae8(%rip),%eax        # 1624e <g_1952>
    c766:	0f b7 c0             	movzwl %ax,%eax
    c769:	31 c2                	xor    %eax,%edx
    c76b:	48 8b 05 9e b3 00 00 	mov    0xb39e(%rip),%rax        # 17b10 <g_1499>
    c772:	48 8b 00             	mov    (%rax),%rax
    c775:	0f b6 00             	movzbl (%rax),%eax
    c778:	0f b6 c0             	movzbl %al,%eax
    c77b:	39 c2                	cmp    %eax,%edx
    c77d:	0f 94 c0             	sete   %al
    c780:	0f b6 c0             	movzbl %al,%eax
    c783:	66 c7 85 44 f3 ff ff 	movw   $0x1,-0xcbc(%rbp)
    c78a:	01 00 
    c78c:	89 c6                	mov    %eax,%esi
    c78e:	bf 01 00 00 00       	mov    $0x1,%edi
    c793:	e8 6d 9e ff ff       	callq  6605 <safe_sub_func_int32_t_s_s>
    c798:	0f b7 95 c8 e7 ff ff 	movzwl -0x1838(%rbp),%edx
    c79f:	0f bf d2             	movswl %dx,%edx
    c7a2:	39 d0                	cmp    %edx,%eax
    c7a4:	0f 9c c0             	setl   %al
    c7a7:	0f b6 c0             	movzbl %al,%eax
    c7aa:	4c 89 ee             	mov    %r13,%rsi
    c7ad:	48 89 c7             	mov    %rax,%rdi
    c7b0:	e8 79 a8 ff ff       	callq  702e <safe_add_func_uint64_t_u_u>
    c7b5:	0f b7 c0             	movzwl %ax,%eax
    c7b8:	44 89 e6             	mov    %r12d,%esi
    c7bb:	89 c7                	mov    %eax,%edi
    c7bd:	e8 5d a5 ff ff       	callq  6d1f <safe_sub_func_uint16_t_u_u>
    c7c2:	0f b6 c0             	movzbl %al,%eax
    c7c5:	89 de                	mov    %ebx,%esi
    c7c7:	89 c7                	mov    %eax,%edi
    c7c9:	e8 e0 a3 ff ff       	callq  6bae <safe_mod_func_uint8_t_u_u>
    c7ce:	0f b6 d0             	movzbl %al,%edx
    c7d1:	8b 85 e8 e8 ff ff    	mov    -0x1718(%rbp),%eax
    c7d7:	89 d6                	mov    %edx,%esi
    c7d9:	89 c7                	mov    %eax,%edi
    c7db:	e8 d6 9d ff ff       	callq  65b6 <safe_add_func_int32_t_s_s>
    c7e0:	48 8b 05 a1 b2 00 00 	mov    0xb2a1(%rip),%rax        # 17a88 <g_1216>
    c7e7:	48 8b 00             	mov    (%rax),%rax
    c7ea:	48 8b 00             	mov    (%rax),%rax
    c7ed:	0f b7 00             	movzwl (%rax),%eax
    c7f0:	0f b7 c0             	movzwl %ax,%eax
    c7f3:	be 0f 00 00 00       	mov    $0xf,%esi
    c7f8:	89 c7                	mov    %eax,%edi
    c7fa:	e8 49 a6 ff ff       	callq  6e48 <safe_rshift_func_uint16_t_u_s>
    c7ff:	66 85 c0             	test   %ax,%ax
    c802:	74 22                	je     c826 <func_22+0x25d6>
    c804:	c6 85 e2 e7 ff ff 01 	movb   $0x1,-0x181e(%rbp)
    c80b:	66 83 ad f6 e7 ff ff 	subw   $0x1,-0x180a(%rbp)
    c812:	01 
    c813:	80 ad e2 e7 ff ff 01 	subb   $0x1,-0x181e(%rbp)
    c81a:	0f b7 85 c8 e7 ff ff 	movzwl -0x1838(%rbp),%eax
    c821:	e9 f6 1c 00 00       	jmpq   e51c <func_22+0x42cc>
    c826:	48 8d 85 24 ec ff ff 	lea    -0x13dc(%rbp),%rax
    c82d:	48 83 c0 08          	add    $0x8,%rax
    c831:	48 89 85 88 eb ff ff 	mov    %rax,-0x1478(%rbp)
    c838:	48 8b 05 b1 b1 00 00 	mov    0xb1b1(%rip),%rax        # 179f0 <g_794>
    c83f:	48 8b 95 88 eb ff ff 	mov    -0x1478(%rbp),%rdx
    c846:	48 89 10             	mov    %rdx,(%rax)
    c849:	48 83 bd 80 eb ff ff 	cmpq   $0x0,-0x1480(%rbp)
    c850:	00 
    c851:	0f 94 c0             	sete   %al
    c854:	0f b6 d0             	movzbl %al,%edx
    c857:	48 8b 85 88 eb ff ff 	mov    -0x1478(%rbp),%rax
    c85e:	8b 00                	mov    (%rax),%eax
    c860:	89 c1                	mov    %eax,%ecx
    c862:	8b 85 c4 e7 ff ff    	mov    -0x183c(%rbp),%eax
    c868:	21 c8                	and    %ecx,%eax
    c86a:	0f be c0             	movsbl %al,%eax
    c86d:	89 d6                	mov    %edx,%esi
    c86f:	89 c7                	mov    %eax,%edi
    c871:	e8 5e 99 ff ff       	callq  61d4 <safe_add_func_int8_t_s_s>
    c876:	0f b6 c0             	movzbl %al,%eax
    c879:	be 05 00 00 00       	mov    $0x5,%esi
    c87e:	89 c7                	mov    %eax,%edi
    c880:	e8 80 a3 ff ff       	callq  6c05 <safe_lshift_func_uint8_t_u_s>
    c885:	0f b6 c0             	movzbl %al,%eax
    c888:	be 07 00 00 00       	mov    $0x7,%esi
    c88d:	89 c7                	mov    %eax,%edi
    c88f:	e8 b8 a3 ff ff       	callq  6c4c <safe_lshift_func_uint8_t_u_u>
    c894:	0f b7 85 40 f3 ff ff 	movzwl -0xcc0(%rbp),%eax
    c89b:	0f b6 d8             	movzbl %al,%ebx
    c89e:	0f b7 85 44 f3 ff ff 	movzwl -0xcbc(%rbp),%eax
    c8a5:	0f b6 d0             	movzbl %al,%edx
    c8a8:	48 8b 85 b8 e7 ff ff 	mov    -0x1848(%rbp),%rax
    c8af:	0f b6 c0             	movzbl %al,%eax
    c8b2:	89 d6                	mov    %edx,%esi
    c8b4:	89 c7                	mov    %eax,%edi
    c8b6:	e8 f3 a2 ff ff       	callq  6bae <safe_mod_func_uint8_t_u_u>
    c8bb:	0f b6 d0             	movzbl %al,%edx
    c8be:	48 8b 85 b8 e7 ff ff 	mov    -0x1848(%rbp),%rax
    c8c5:	0f b7 c0             	movzwl %ax,%eax
    c8c8:	89 d6                	mov    %edx,%esi
    c8ca:	89 c7                	mov    %eax,%edi
    c8cc:	e8 6c a4 ff ff       	callq  6d3d <safe_mul_func_uint16_t_u_u>
    c8d1:	48 8b 85 c0 e9 ff ff 	mov    -0x1640(%rbp),%rax
    c8d8:	48 8b 00             	mov    (%rax),%rax
    c8db:	48 39 85 78 eb ff ff 	cmp    %rax,-0x1488(%rbp)
    c8e2:	0f 94 c0             	sete   %al
    c8e5:	0f b6 c0             	movzbl %al,%eax
    c8e8:	89 de                	mov    %ebx,%esi
    c8ea:	89 c7                	mov    %eax,%edi
    c8ec:	e8 87 a2 ff ff       	callq  6b78 <safe_sub_func_uint8_t_u_u>
    c8f1:	0f b6 d0             	movzbl %al,%edx
    c8f4:	48 8b 85 88 eb ff ff 	mov    -0x1478(%rbp),%rax
    c8fb:	89 10                	mov    %edx,(%rax)
    c8fd:	48 8b 05 2c b0 00 00 	mov    0xb02c(%rip),%rax        # 17930 <g_492>
    c904:	0f b7 00             	movzwl (%rax),%eax
    c907:	98                   	cwtl   
    c908:	be 0c 00 00 00       	mov    $0xc,%esi
    c90d:	89 c7                	mov    %eax,%edi
    c90f:	e8 cd 9b ff ff       	callq  64e1 <safe_lshift_func_int16_t_s_u>
    c914:	48 8b 95 88 ea ff ff 	mov    -0x1578(%rbp),%rdx
    c91b:	8b 12                	mov    (%rdx),%edx
    c91d:	98                   	cwtl   
    c91e:	09 c2                	or     %eax,%edx
    c920:	48 8b 85 88 ea ff ff 	mov    -0x1578(%rbp),%rax
    c927:	89 10                	mov    %edx,(%rax)
    c929:	8b 05 29 97 00 00    	mov    0x9729(%rip),%eax        # 16058 <g_41+0x18>
    c92f:	0f b7 d8             	movzwl %ax,%ebx
    c932:	83 bd dc e8 ff ff 00 	cmpl   $0x0,-0x1724(%rbp)
    c939:	0f 94 c0             	sete   %al
    c93c:	0f b6 c0             	movzbl %al,%eax
    c93f:	89 c7                	mov    %eax,%edi
    c941:	e8 50 9c ff ff       	callq  6596 <safe_unary_minus_func_int32_t_s>
    c946:	48 8b 05 53 b1 00 00 	mov    0xb153(%rip),%rax        # 17aa0 <g_1464>
    c94d:	48 8b 00             	mov    (%rax),%rax
    c950:	48 8b 95 50 eb ff ff 	mov    -0x14b0(%rbp),%rdx
    c957:	48 89 10             	mov    %rdx,(%rax)
    c95a:	48 8b 00             	mov    (%rax),%rax
    c95d:	48 39 85 48 eb ff ff 	cmp    %rax,-0x14b8(%rbp)
    c964:	0f b6 05 b9 96 00 00 	movzbl 0x96b9(%rip),%eax        # 16024 <g_2>
    c96b:	44 0f b6 e0          	movzbl %al,%r12d
    c96f:	8b 85 cc e7 ff ff    	mov    -0x1834(%rbp),%eax
    c975:	8b 95 c4 e7 ff ff    	mov    -0x183c(%rbp),%edx
    c97b:	39 d0                	cmp    %edx,%eax
    c97d:	0f 96 c0             	setbe  %al
    c980:	44 0f b6 f0          	movzbl %al,%r14d
    c984:	48 8d 05 a5 98 00 00 	lea    0x98a5(%rip),%rax        # 16230 <g_1501>
    c98b:	0f b6 00             	movzbl (%rax),%eax
    c98e:	44 0f b6 f8          	movzbl %al,%r15d
    c992:	0f b6 85 c0 e7 ff ff 	movzbl -0x1840(%rbp),%eax
    c999:	44 0f b6 e8          	movzbl %al,%r13d
    c99d:	48 8b 85 88 ea ff ff 	mov    -0x1578(%rbp),%rax
    c9a4:	8b 00                	mov    (%rax),%eax
    c9a6:	85 c0                	test   %eax,%eax
    c9a8:	0f 95 c0             	setne  %al
    c9ab:	0f b6 c0             	movzbl %al,%eax
    c9ae:	be 03 00 00 00       	mov    $0x3,%esi
    c9b3:	89 c7                	mov    %eax,%edi
    c9b5:	e8 e7 98 ff ff       	callq  62a1 <safe_lshift_func_int8_t_s_s>
    c9ba:	89 c2                	mov    %eax,%edx
    c9bc:	48 8b 05 6d af 00 00 	mov    0xaf6d(%rip),%rax        # 17930 <g_492>
    c9c3:	66 0f be d2          	movsbw %dl,%dx
    c9c7:	66 89 10             	mov    %dx,(%rax)
    c9ca:	0f b7 00             	movzwl (%rax),%eax
    c9cd:	98                   	cwtl   
    c9ce:	44 89 ee             	mov    %r13d,%esi
    c9d1:	89 c7                	mov    %eax,%edi
    c9d3:	e8 ba 9a ff ff       	callq  6492 <safe_lshift_func_int16_t_s_s>
    c9d8:	0f bf d0             	movswl %ax,%edx
    c9db:	8b 05 83 96 00 00    	mov    0x9683(%rip),%eax        # 16064 <g_97>
    c9e1:	39 c2                	cmp    %eax,%edx
    c9e3:	0f 92 c0             	setb   %al
    c9e6:	0f b6 c0             	movzbl %al,%eax
    c9e9:	41 39 c7             	cmp    %eax,%r15d
    c9ec:	0f 9d c0             	setge  %al
    c9ef:	0f b6 c0             	movzbl %al,%eax
    c9f2:	41 39 c6             	cmp    %eax,%r14d
    c9f5:	0f 9c c0             	setl   %al
    c9f8:	0f b6 d0             	movzbl %al,%edx
    c9fb:	48 8b 85 80 eb ff ff 	mov    -0x1480(%rbp),%rax
    ca02:	48 89 10             	mov    %rdx,(%rax)
    ca05:	48 8b 85 80 eb ff ff 	mov    -0x1480(%rbp),%rax
    ca0c:	48 8b 00             	mov    (%rax),%rax
    ca0f:	4c 89 e6             	mov    %r12,%rsi
    ca12:	48 89 c7             	mov    %rax,%rdi
    ca15:	e8 66 a6 ff ff       	callq  7080 <safe_mod_func_uint64_t_u_u>
    ca1a:	b8 00 00 00 00       	mov    $0x0,%eax
    ca1f:	0f b7 c0             	movzwl %ax,%eax
    ca22:	89 de                	mov    %ebx,%esi
    ca24:	89 c7                	mov    %eax,%edi
    ca26:	e8 d4 a2 ff ff       	callq  6cff <safe_add_func_uint16_t_u_u>
    ca2b:	c7 85 c4 e7 ff ff 4f 	movl   $0xd75cc94f,-0x183c(%rbp)
    ca32:	c9 5c d7 
    ca35:	0f b7 85 c8 e7 ff ff 	movzwl -0x1838(%rbp),%eax
    ca3c:	66 85 c0             	test   %ax,%ax
    ca3f:	75 27                	jne    ca68 <func_22+0x2818>
    ca41:	8b 85 28 e8 ff ff    	mov    -0x17d8(%rbp),%eax
    ca47:	be 04 00 00 00       	mov    $0x4,%esi
    ca4c:	89 c7                	mov    %eax,%edi
    ca4e:	e8 65 a4 ff ff       	callq  6eb8 <safe_add_func_uint32_t_u_u>
    ca53:	89 85 28 e8 ff ff    	mov    %eax,-0x17d8(%rbp)
    ca59:	83 bd 28 e8 ff ff 11 	cmpl   $0x11,-0x17d8(%rbp)
    ca60:	0f 8e d4 fb ff ff    	jle    c63a <func_22+0x23ea>
    ca66:	eb 01                	jmp    ca69 <func_22+0x2819>
    ca68:	90                   	nop
    ca69:	c7 85 08 e8 ff ff 00 	movl   $0x0,-0x17f8(%rbp)
    ca70:	00 00 00 
    ca73:	e9 23 04 00 00       	jmpq   ce9b <func_22+0x2c4b>
    ca78:	c6 85 e3 e7 ff ff 04 	movb   $0x4,-0x181d(%rbp)
    ca7f:	48 8d 05 5a ae 00 00 	lea    0xae5a(%rip),%rax        # 178e0 <g_192>
    ca86:	48 89 85 90 eb ff ff 	mov    %rax,-0x1470(%rbp)
    ca8d:	48 8d 05 04 b0 00 00 	lea    0xb004(%rip),%rax        # 17a98 <g_1465>
    ca94:	48 89 85 98 eb ff ff 	mov    %rax,-0x1468(%rbp)
    ca9b:	48 8d 85 68 e9 ff ff 	lea    -0x1698(%rbp),%rax
    caa2:	48 89 85 a0 eb ff ff 	mov    %rax,-0x1460(%rbp)
    caa9:	48 8d 85 98 e9 ff ff 	lea    -0x1668(%rbp),%rax
    cab0:	48 89 85 a8 eb ff ff 	mov    %rax,-0x1458(%rbp)
    cab7:	80 bd e3 e7 ff ff 00 	cmpb   $0x0,-0x181d(%rbp)
    cabe:	0f 84 bf 02 00 00    	je     cd83 <func_22+0x2b33>
    cac4:	48 c7 85 c8 eb ff ff 	movq   $0x4,-0x1438(%rbp)
    cacb:	04 00 00 00 
    cacf:	c7 85 14 e8 ff ff 00 	movl   $0x0,-0x17ec(%rbp)
    cad6:	00 00 00 
    cad9:	eb 1a                	jmp    caf5 <func_22+0x28a5>
    cadb:	8b 85 14 e8 ff ff    	mov    -0x17ec(%rbp),%eax
    cae1:	48 98                	cltq   
    cae3:	c7 84 85 90 ee ff ff 	movl   $0x0,-0x1170(%rbp,%rax,4)
    caea:	00 00 00 00 
    caee:	83 85 14 e8 ff ff 01 	addl   $0x1,-0x17ec(%rbp)
    caf5:	83 bd 14 e8 ff ff 00 	cmpl   $0x0,-0x17ec(%rbp)
    cafc:	7e dd                	jle    cadb <func_22+0x288b>
    cafe:	48 8b 85 c8 eb ff ff 	mov    -0x1438(%rbp),%rax
    cb05:	66 89 85 c8 e7 ff ff 	mov    %ax,-0x1838(%rbp)
    cb0c:	0f b7 85 c8 e7 ff ff 	movzwl -0x1838(%rbp),%eax
    cb13:	98                   	cwtl   
    cb14:	be 04 00 00 00       	mov    $0x4,%esi
    cb19:	89 c7                	mov    %eax,%edi
    cb1b:	e8 72 99 ff ff       	callq  6492 <safe_lshift_func_int16_t_s_s>
    cb20:	8b 85 cc e7 ff ff    	mov    -0x1834(%rbp),%eax
    cb26:	0f b6 d8             	movzbl %al,%ebx
    cb29:	48 8d 05 00 97 00 00 	lea    0x9700(%rip),%rax        # 16230 <g_1501>
    cb30:	0f b6 00             	movzbl (%rax),%eax
    cb33:	44 0f b6 e0          	movzbl %al,%r12d
    cb37:	8b 85 e4 e8 ff ff    	mov    -0x171c(%rbp),%eax
    cb3d:	44 0f bf e8          	movswl %ax,%r13d
    cb41:	be 0c 00 00 00       	mov    $0xc,%esi
    cb46:	bf 9b 22 00 00       	mov    $0x229b,%edi
    cb4b:	e8 b6 a2 ff ff       	callq  6e06 <safe_lshift_func_uint16_t_u_u>
    cb50:	48 8b 85 90 eb ff ff 	mov    -0x1470(%rbp),%rax
    cb57:	48 89 05 12 b0 00 00 	mov    %rax,0xb012(%rip)        # 17b70 <g_2021>
    cb5e:	48 8b 15 0b b0 00 00 	mov    0xb00b(%rip),%rdx        # 17b70 <g_2021>
    cb65:	48 8b 05 fc af 00 00 	mov    0xaffc(%rip),%rax        # 17b68 <g_2018>
    cb6c:	48 39 c2             	cmp    %rax,%rdx
    cb6f:	0f 95 c0             	setne  %al
    cb72:	0f b6 c0             	movzbl %al,%eax
    cb75:	48 8b 95 c8 eb ff ff 	mov    -0x1438(%rbp),%rdx
    cb7c:	48 89 d6             	mov    %rdx,%rsi
    cb7f:	48 89 c7             	mov    %rax,%rdi
    cb82:	e8 c4 a4 ff ff       	callq  704b <safe_sub_func_uint64_t_u_u>
    cb87:	48 85 c0             	test   %rax,%rax
    cb8a:	0f 94 c0             	sete   %al
    cb8d:	44 0f b6 f0          	movzbl %al,%r14d
    cb91:	48 8b 05 f0 ae 00 00 	mov    0xaef0(%rip),%rax        # 17a88 <g_1216>
    cb98:	48 8b 00             	mov    (%rax),%rax
    cb9b:	48 8b 00             	mov    (%rax),%rax
    cb9e:	0f b7 00             	movzwl (%rax),%eax
    cba1:	0f b7 c0             	movzwl %ax,%eax
    cba4:	89 85 90 ee ff ff    	mov    %eax,-0x1170(%rbp)
    cbaa:	8b 85 90 ee ff ff    	mov    -0x1170(%rbp),%eax
    cbb0:	0f b7 c0             	movzwl %ax,%eax
    cbb3:	be 28 12 00 00       	mov    $0x1228,%esi
    cbb8:	89 c7                	mov    %eax,%edi
    cbba:	e8 7e a1 ff ff       	callq  6d3d <safe_mul_func_uint16_t_u_u>
    cbbf:	0f b7 c0             	movzwl %ax,%eax
    cbc2:	44 89 f6             	mov    %r14d,%esi
    cbc5:	89 c7                	mov    %eax,%edi
    cbc7:	e8 ea 99 ff ff       	callq  65b6 <safe_add_func_int32_t_s_s>
    cbcc:	98                   	cwtl   
    cbcd:	44 89 ee             	mov    %r13d,%esi
    cbd0:	89 c7                	mov    %eax,%edi
    cbd2:	e8 3f 98 ff ff       	callq  6416 <safe_mod_func_int16_t_s_s>
    cbd7:	0f be c0             	movsbl %al,%eax
    cbda:	44 89 e6             	mov    %r12d,%esi
    cbdd:	89 c7                	mov    %eax,%edi
    cbdf:	e8 0a 97 ff ff       	callq  62ee <safe_lshift_func_int8_t_s_u>
    cbe4:	48 8d 05 b5 ae 00 00 	lea    0xaeb5(%rip),%rax        # 17aa0 <g_1464>
    cbeb:	48 89 05 66 af 00 00 	mov    %rax,0xaf66(%rip)        # 17b58 <g_2002>
    cbf2:	48 8b 05 5f af 00 00 	mov    0xaf5f(%rip),%rax        # 17b58 <g_2002>
    cbf9:	48 89 85 58 eb ff ff 	mov    %rax,-0x14a8(%rbp)
    cc00:	48 8d 05 99 ae 00 00 	lea    0xae99(%rip),%rax        # 17aa0 <g_1464>
    cc07:	48 39 85 58 eb ff ff 	cmp    %rax,-0x14a8(%rbp)
    cc0e:	0f 94 c0             	sete   %al
    cc11:	0f b6 c0             	movzbl %al,%eax
    cc14:	89 de                	mov    %ebx,%esi
    cc16:	89 c7                	mov    %eax,%edi
    cc18:	e8 91 9f ff ff       	callq  6bae <safe_mod_func_uint8_t_u_u>
    cc1d:	b9 01 00 00 00       	mov    $0x1,%ecx
    cc22:	48 8b 05 07 ad 00 00 	mov    0xad07(%rip),%rax        # 17930 <g_492>
    cc29:	0f b7 10             	movzwl (%rax),%edx
    cc2c:	48 8b 05 fd ac 00 00 	mov    0xacfd(%rip),%rax        # 17930 <g_492>
    cc33:	21 ca                	and    %ecx,%edx
    cc35:	66 89 10             	mov    %dx,(%rax)
    cc38:	c7 85 c4 e7 ff ff 00 	movl   $0x0,-0x183c(%rbp)
    cc3f:	00 00 00 
    cc42:	0f b7 85 44 f3 ff ff 	movzwl -0xcbc(%rbp),%eax
    cc49:	0f bf d8             	movswl %ax,%ebx
    cc4c:	8b 05 e2 95 00 00    	mov    0x95e2(%rip),%eax        # 16234 <g_1502>
    cc52:	85 c0                	test   %eax,%eax
    cc54:	0f 85 b5 00 00 00    	jne    cd0f <func_22+0x2abf>
    cc5a:	48 8b 85 b8 e7 ff ff 	mov    -0x1848(%rbp),%rax
    cc61:	41 89 c6             	mov    %eax,%r14d
    cc64:	44 8b a5 c4 e7 ff ff 	mov    -0x183c(%rbp),%r12d
    cc6b:	48 8b 05 be ac 00 00 	mov    0xacbe(%rip),%rax        # 17930 <g_492>
    cc72:	0f b7 00             	movzwl (%rax),%eax
    cc75:	44 0f b7 e8          	movzwl %ax,%r13d
    cc79:	48 8b 05 d8 ae 00 00 	mov    0xaed8(%rip),%rax        # 17b58 <g_2002>
    cc80:	48 8b 10             	mov    (%rax),%rdx
    cc83:	48 8b 85 e8 e9 ff ff 	mov    -0x1618(%rbp),%rax
    cc8a:	48 89 10             	mov    %rdx,(%rax)
    cc8d:	8b 85 90 ee ff ff    	mov    -0x1170(%rbp),%eax
    cc93:	89 c2                	mov    %eax,%edx
    cc95:	8b 85 c4 e7 ff ff    	mov    -0x183c(%rbp),%eax
    cc9b:	89 d6                	mov    %edx,%esi
    cc9d:	89 c7                	mov    %eax,%edi
    cc9f:	e8 81 a2 ff ff       	callq  6f25 <safe_div_func_uint32_t_u_u>
    cca4:	8b 85 c4 e7 ff ff    	mov    -0x183c(%rbp),%eax
    ccaa:	89 85 e0 e8 ff ff    	mov    %eax,-0x1720(%rbp)
    ccb0:	0f b7 85 44 f3 ff ff 	movzwl -0xcbc(%rbp),%eax
    ccb7:	0f b7 c0             	movzwl %ax,%eax
    ccba:	0b 85 e0 e8 ff ff    	or     -0x1720(%rbp),%eax
    ccc0:	85 c0                	test   %eax,%eax
    ccc2:	75 09                	jne    cccd <func_22+0x2a7d>
    ccc4:	0f b6 85 c0 e7 ff ff 	movzbl -0x1840(%rbp),%eax
    cccb:	84 c0                	test   %al,%al
    cccd:	44 89 ee             	mov    %r13d,%esi
    ccd0:	bf 26 97 00 00       	mov    $0x9726,%edi
    ccd5:	e8 63 a0 ff ff       	callq  6d3d <safe_mul_func_uint16_t_u_u>
    ccda:	66 85 c0             	test   %ax,%ax
    ccdd:	74 07                	je     cce6 <func_22+0x2a96>
    ccdf:	b8 01 00 00 00       	mov    $0x1,%eax
    cce4:	eb 05                	jmp    cceb <func_22+0x2a9b>
    cce6:	b8 00 00 00 00       	mov    $0x0,%eax
    cceb:	83 c8 02             	or     $0x2,%eax
    ccee:	98                   	cwtl   
    ccef:	25 c8 5d 00 00       	and    $0x5dc8,%eax
    ccf4:	44 89 e6             	mov    %r12d,%esi
    ccf7:	89 c7                	mov    %eax,%edi
    ccf9:	e8 94 97 ff ff       	callq  6492 <safe_lshift_func_int16_t_s_s>
    ccfe:	0f b6 c0             	movzbl %al,%eax
    cd01:	44 89 f6             	mov    %r14d,%esi
    cd04:	89 c7                	mov    %eax,%edi
    cd06:	e8 82 9f ff ff       	callq  6c8d <safe_rshift_func_uint8_t_u_s>
    cd0b:	84 c0                	test   %al,%al
    cd0d:	74 07                	je     cd16 <func_22+0x2ac6>
    cd0f:	ba 01 00 00 00       	mov    $0x1,%edx
    cd14:	eb 05                	jmp    cd1b <func_22+0x2acb>
    cd16:	ba 00 00 00 00       	mov    $0x0,%edx
    cd1b:	48 8d 05 0e 95 00 00 	lea    0x950e(%rip),%rax        # 16230 <g_1501>
    cd22:	0f b6 00             	movzbl (%rax),%eax
    cd25:	0f b6 c0             	movzbl %al,%eax
    cd28:	39 c2                	cmp    %eax,%edx
    cd2a:	0f 94 c0             	sete   %al
    cd2d:	0f b6 d0             	movzbl %al,%edx
    cd30:	48 8b 05 f9 ab 00 00 	mov    0xabf9(%rip),%rax        # 17930 <g_492>
    cd37:	0f b7 00             	movzwl (%rax),%eax
    cd3a:	98                   	cwtl   
    cd3b:	39 c2                	cmp    %eax,%edx
    cd3d:	0f 94 c0             	sete   %al
    cd40:	0f b6 c0             	movzbl %al,%eax
    cd43:	89 de                	mov    %ebx,%esi
    cd45:	89 c7                	mov    %eax,%edi
    cd47:	e8 a9 96 ff ff       	callq  63f5 <safe_mul_func_int16_t_s_s>
    cd4c:	48 8b 05 9d ac 00 00 	mov    0xac9d(%rip),%rax        # 179f0 <g_794>
    cd53:	48 8d 95 c4 e7 ff ff 	lea    -0x183c(%rbp),%rdx
    cd5a:	48 89 10             	mov    %rdx,(%rax)
    cd5d:	48 8b 05 2c ad 00 00 	mov    0xad2c(%rip),%rax        # 17a90 <g_1386>
    cd64:	48 8b 00             	mov    (%rax),%rax
    cd67:	48 85 c0             	test   %rax,%rax
    cd6a:	0f 95 c0             	setne  %al
    cd6d:	0f b6 d0             	movzbl %al,%edx
    cd70:	8b 85 c4 e7 ff ff    	mov    -0x183c(%rbp),%eax
    cd76:	09 d0                	or     %edx,%eax
    cd78:	89 85 c4 e7 ff ff    	mov    %eax,-0x183c(%rbp)
    cd7e:	e9 09 01 00 00       	jmpq   ce8c <func_22+0x2c3c>
    cd83:	48 8d 85 70 e9 ff ff 	lea    -0x1690(%rbp),%rax
    cd8a:	48 89 85 b0 eb ff ff 	mov    %rax,-0x1450(%rbp)
    cd91:	48 8d 05 10 93 00 00 	lea    0x9310(%rip),%rax        # 160a8 <g_152>
    cd98:	48 89 85 b8 eb ff ff 	mov    %rax,-0x1448(%rbp)
    cd9f:	48 8d 85 24 ec ff ff 	lea    -0x13dc(%rbp),%rax
    cda6:	48 83 c0 04          	add    $0x4,%rax
    cdaa:	48 89 85 c0 eb ff ff 	mov    %rax,-0x1440(%rbp)
    cdb1:	48 8b 85 b0 eb ff ff 	mov    -0x1450(%rbp),%rax
    cdb8:	48 8d 15 11 93 00 00 	lea    0x9311(%rip),%rdx        # 160d0 <g_202>
    cdbf:	48 89 10             	mov    %rdx,(%rax)
    cdc2:	48 8d 05 27 b8 00 00 	lea    0xb827(%rip),%rax        # 185f0 <g_1873>
    cdc9:	48 39 85 a0 eb ff ff 	cmp    %rax,-0x1460(%rbp)
    cdd0:	0f 95 c0             	setne  %al
    cdd3:	0f b6 d0             	movzbl %al,%edx
    cdd6:	48 8d 05 53 94 00 00 	lea    0x9453(%rip),%rax        # 16230 <g_1501>
    cddd:	0f b6 00             	movzbl (%rax),%eax
    cde0:	0f b6 c0             	movzbl %al,%eax
    cde3:	89 d6                	mov    %edx,%esi
    cde5:	89 c7                	mov    %eax,%edi
    cde7:	e8 a7 9d ff ff       	callq  6b93 <safe_mul_func_uint8_t_u_u>
    cdec:	48 8b 05 3d ab 00 00 	mov    0xab3d(%rip),%rax        # 17930 <g_492>
    cdf3:	0f b7 00             	movzwl (%rax),%eax
    cdf6:	98                   	cwtl   
    cdf7:	be f9 ff ff ff       	mov    $0xfffffff9,%esi
    cdfc:	89 c7                	mov    %eax,%edi
    cdfe:	e8 f2 95 ff ff       	callq  63f5 <safe_mul_func_int16_t_s_s>
    ce03:	0f b6 d0             	movzbl %al,%edx
    ce06:	48 8b 05 2b ab 00 00 	mov    0xab2b(%rip),%rax        # 17938 <g_556>
    ce0d:	0f b6 00             	movzbl (%rax),%eax
    ce10:	0f b6 c0             	movzbl %al,%eax
    ce13:	89 d6                	mov    %edx,%esi
    ce15:	89 c7                	mov    %eax,%edi
    ce17:	e8 77 9d ff ff       	callq  6b93 <safe_mul_func_uint8_t_u_u>
    ce1c:	48 8d 05 ad 92 00 00 	lea    0x92ad(%rip),%rax        # 160d0 <g_202>
    ce23:	48 39 85 a8 eb ff ff 	cmp    %rax,-0x1458(%rbp)
    ce2a:	0f 95 c0             	setne  %al
    ce2d:	0f b6 d0             	movzbl %al,%edx
    ce30:	48 83 bd 90 eb ff ff 	cmpq   $0x0,-0x1470(%rbp)
    ce37:	00 
    ce38:	0f 95 c0             	setne  %al
    ce3b:	0f b6 c8             	movzbl %al,%ecx
    ce3e:	0f b6 05 53 b7 00 00 	movzbl 0xb753(%rip),%eax        # 18598 <g_1368>
    ce45:	0f b6 c0             	movzbl %al,%eax
    ce48:	39 c1                	cmp    %eax,%ecx
    ce4a:	0f 9f c0             	setg   %al
    ce4d:	0f b6 c0             	movzbl %al,%eax
    ce50:	31 d0                	xor    %edx,%eax
    ce52:	0f b7 d0             	movzwl %ax,%edx
    ce55:	8b 85 c4 e7 ff ff    	mov    -0x183c(%rbp),%eax
    ce5b:	0f b7 c0             	movzwl %ax,%eax
    ce5e:	89 d6                	mov    %edx,%esi
    ce60:	89 c7                	mov    %eax,%edi
    ce62:	e8 d6 9e ff ff       	callq  6d3d <safe_mul_func_uint16_t_u_u>
    ce67:	c7 85 c4 e7 ff ff f5 	movl   $0xd49f6bf5,-0x183c(%rbp)
    ce6e:	6b 9f d4 
    ce71:	8b 85 cc e7 ff ff    	mov    -0x1834(%rbp),%eax
    ce77:	85 c0                	test   %eax,%eax
    ce79:	75 31                	jne    ceac <func_22+0x2c5c>
    ce7b:	48 8b 05 4e aa 00 00 	mov    0xaa4e(%rip),%rax        # 178d0 <g_117>
    ce82:	48 8b 95 c0 eb ff ff 	mov    -0x1440(%rbp),%rdx
    ce89:	48 89 10             	mov    %rdx,(%rax)
    ce8c:	8b 85 08 e8 ff ff    	mov    -0x17f8(%rbp),%eax
    ce92:	83 e8 01             	sub    $0x1,%eax
    ce95:	89 85 08 e8 ff ff    	mov    %eax,-0x17f8(%rbp)
    ce9b:	8b 85 08 e8 ff ff    	mov    -0x17f8(%rbp),%eax
    cea1:	83 f8 fd             	cmp    $0xfffffffd,%eax
    cea4:	0f 84 ce fb ff ff    	je     ca78 <func_22+0x2828>
    ceaa:	eb 01                	jmp    cead <func_22+0x2c5d>
    ceac:	90                   	nop
    cead:	8b 05 05 94 00 00    	mov    0x9405(%rip),%eax        # 162b8 <g_2225>
    ceb3:	e9 64 16 00 00       	jmpq   e51c <func_22+0x42cc>
    ceb8:	66 c7 85 a8 e9 ff ff 	movw   $0xb7ad,-0x1658(%rbp)
    cebf:	ad b7 
    cec1:	48 8d 85 24 ec ff ff 	lea    -0x13dc(%rbp),%rax
    cec8:	48 83 c0 08          	add    $0x8,%rax
    cecc:	48 89 85 f8 e9 ff ff 	mov    %rax,-0x1608(%rbp)
    ced3:	c7 85 5c e8 ff ff aa 	movl   $0x91f016aa,-0x17a4(%rbp)
    ceda:	16 f0 91 
    cedd:	48 c7 85 00 ea ff ff 	movq   $0x0,-0x1600(%rbp)
    cee4:	00 00 00 00 
    cee8:	48 8d 05 b1 ab 00 00 	lea    0xabb1(%rip),%rax        # 17aa0 <g_1464>
    ceef:	48 89 85 08 ea ff ff 	mov    %rax,-0x15f8(%rbp)
    cef6:	48 8d 05 e3 a9 00 00 	lea    0xa9e3(%rip),%rax        # 178e0 <g_192>
    cefd:	48 89 85 10 ea ff ff 	mov    %rax,-0x15f0(%rbp)
    cf04:	c7 85 60 e8 ff ff f7 	movl   $0x351fdff7,-0x17a0(%rbp)
    cf0b:	df 1f 35 
    cf0e:	48 8d 05 cb a9 00 00 	lea    0xa9cb(%rip),%rax        # 178e0 <g_192>
    cf15:	48 89 85 18 ea ff ff 	mov    %rax,-0x15e8(%rbp)
    cf1c:	8b 85 cc e7 ff ff    	mov    -0x1834(%rbp),%eax
    cf22:	66 89 85 a8 e9 ff ff 	mov    %ax,-0x1658(%rbp)
    cf29:	0f b7 85 a8 e9 ff ff 	movzwl -0x1658(%rbp),%eax
    cf30:	66 85 c0             	test   %ax,%ax
    cf33:	0f 84 7a 03 00 00    	je     d2b3 <func_22+0x3063>
    cf39:	48 8d 05 c0 aa 00 00 	lea    0xaac0(%rip),%rax        # 17a00 <g_855>
    cf40:	48 89 85 48 ea ff ff 	mov    %rax,-0x15b8(%rbp)
    cf47:	48 8d 05 8e 91 00 00 	lea    0x918e(%rip),%rax        # 160dc <g_272>
    cf4e:	48 89 85 50 ea ff ff 	mov    %rax,-0x15b0(%rbp)
    cf55:	c7 85 78 e8 ff ff 93 	movl   $0x64bd0693,-0x1788(%rbp)
    cf5c:	06 bd 64 
    cf5f:	48 8d 85 30 e9 ff ff 	lea    -0x16d0(%rbp),%rax
    cf66:	48 89 85 b8 e9 ff ff 	mov    %rax,-0x1648(%rbp)
    cf6d:	c7 85 18 e8 ff ff 00 	movl   $0x0,-0x17e8(%rbp)
    cf74:	00 00 00 
    cf77:	eb 1e                	jmp    cf97 <func_22+0x2d47>
    cf79:	8b 85 18 e8 ff ff    	mov    -0x17e8(%rbp),%eax
    cf7f:	48 98                	cltq   
    cf81:	48 8d 95 b8 e9 ff ff 	lea    -0x1648(%rbp),%rdx
    cf88:	48 89 94 c5 f0 f7 ff 	mov    %rdx,-0x810(%rbp,%rax,8)
    cf8f:	ff 
    cf90:	83 85 18 e8 ff ff 01 	addl   $0x1,-0x17e8(%rbp)
    cf97:	83 bd 18 e8 ff ff 04 	cmpl   $0x4,-0x17e8(%rbp)
    cf9e:	7e d9                	jle    cf79 <func_22+0x2d29>
    cfa0:	48 c7 85 b8 e7 ff ff 	movq   $0x0,-0x1848(%rbp)
    cfa7:	00 00 00 00 
    cfab:	e9 f0 02 00 00       	jmpq   d2a0 <func_22+0x3050>
    cfb0:	c7 85 b0 e9 ff ff 5a 	movl   $0xb574f15a,-0x1650(%rbp)
    cfb7:	f1 74 b5 
    cfba:	48 8d 05 27 b6 00 00 	lea    0xb627(%rip),%rax        # 185e8 <g_1466>
    cfc1:	48 89 85 58 ea ff ff 	mov    %rax,-0x15a8(%rbp)
    cfc8:	48 8d 05 f9 b5 00 00 	lea    0xb5f9(%rip),%rax        # 185c8 <g_1387+0x8>
    cfcf:	48 89 85 60 ea ff ff 	mov    %rax,-0x15a0(%rbp)
    cfd6:	c7 85 7c e8 ff ff a9 	movl   $0xb187daa9,-0x1784(%rbp)
    cfdd:	da 87 b1 
    cfe0:	48 8d 05 19 aa 00 00 	lea    0xaa19(%rip),%rax        # 17a00 <g_855>
    cfe7:	48 89 85 48 ea ff ff 	mov    %rax,-0x15b8(%rbp)
    cfee:	c6 85 40 f3 ff ff 03 	movb   $0x3,-0xcc0(%rbp)
    cff5:	c6 85 41 f3 ff ff 00 	movb   $0x0,-0xcbf(%rbp)
    cffc:	c6 85 42 f3 ff ff 03 	movb   $0x3,-0xcbe(%rbp)
    d003:	c6 85 43 f3 ff ff 00 	movb   $0x0,-0xcbd(%rbp)
    d00a:	c6 85 44 f3 ff ff 03 	movb   $0x3,-0xcbc(%rbp)
    d011:	c6 85 45 f3 ff ff 00 	movb   $0x0,-0xcbb(%rbp)
    d018:	c6 85 46 f3 ff ff 03 	movb   $0x3,-0xcba(%rbp)
    d01f:	c6 85 47 f3 ff ff 00 	movb   $0x0,-0xcb9(%rbp)
    d026:	c6 85 48 f3 ff ff 03 	movb   $0x3,-0xcb8(%rbp)
    d02d:	0f b6 85 47 f3 ff ff 	movzbl -0xcb9(%rbp),%eax
    d034:	0f b6 d8             	movzbl %al,%ebx
    d037:	48 8d 85 b0 e9 ff ff 	lea    -0x1650(%rbp),%rax
    d03e:	48 39 85 50 ea ff ff 	cmp    %rax,-0x15b0(%rbp)
    d045:	0f 95 c0             	setne  %al
    d048:	0f b6 c0             	movzbl %al,%eax
    d04b:	f7 d0                	not    %eax
    d04d:	0f b7 c0             	movzwl %ax,%eax
    d050:	be 0e 00 00 00       	mov    $0xe,%esi
    d055:	89 c7                	mov    %eax,%edi
    d057:	e8 aa 9d ff ff       	callq  6e06 <safe_lshift_func_uint16_t_u_u>
    d05c:	48 8b 15 cd a8 00 00 	mov    0xa8cd(%rip),%rdx        # 17930 <g_492>
    d063:	0f b7 12             	movzwl (%rdx),%edx
    d066:	89 c1                	mov    %eax,%ecx
    d068:	48 8b 05 c1 a8 00 00 	mov    0xa8c1(%rip),%rax        # 17930 <g_492>
    d06f:	21 ca                	and    %ecx,%edx
    d071:	66 89 10             	mov    %dx,(%rax)
    d074:	0f b7 00             	movzwl (%rax),%eax
    d077:	66 83 f8 ff          	cmp    $0xffff,%ax
    d07b:	7d 0b                	jge    d088 <func_22+0x2e38>
    d07d:	0f b6 85 40 f3 ff ff 	movzbl -0xcc0(%rbp),%eax
    d084:	84 c0                	test   %al,%al
    d086:	74 07                	je     d08f <func_22+0x2e3f>
    d088:	b8 01 00 00 00       	mov    $0x1,%eax
    d08d:	eb 05                	jmp    d094 <func_22+0x2e44>
    d08f:	b8 00 00 00 00       	mov    $0x0,%eax
    d094:	85 c0                	test   %eax,%eax
    d096:	0f 94 c0             	sete   %al
    d099:	0f b6 c0             	movzbl %al,%eax
    d09c:	48 89 de             	mov    %rbx,%rsi
    d09f:	48 89 c7             	mov    %rax,%rdi
    d0a2:	e8 a4 9f ff ff       	callq  704b <safe_sub_func_uint64_t_u_u>
    d0a7:	f7 d0                	not    %eax
    d0a9:	89 c6                	mov    %eax,%esi
    d0ab:	bf ce d3 2f 97       	mov    $0x972fd3ce,%edi
    d0b0:	e8 1b 9e ff ff       	callq  6ed0 <safe_sub_func_uint32_t_u_u>
    d0b5:	0f b7 95 c8 e7 ff ff 	movzwl -0x1838(%rbp),%edx
    d0bc:	0f bf d2             	movswl %dx,%edx
    d0bf:	39 d0                	cmp    %edx,%eax
    d0c1:	0f 92 c0             	setb   %al
    d0c4:	0f b6 d0             	movzbl %al,%edx
    d0c7:	48 8b 05 f2 8f 00 00 	mov    0x8ff2(%rip),%rax        # 160c0 <g_189>
    d0ce:	48 39 c2             	cmp    %rax,%rdx
    d0d1:	74 07                	je     d0da <func_22+0x2e8a>
    d0d3:	83 bd 78 e8 ff ff 00 	cmpl   $0x0,-0x1788(%rbp)
    d0da:	48 8d 05 4f 91 00 00 	lea    0x914f(%rip),%rax        # 16230 <g_1501>
    d0e1:	c6 00 01             	movb   $0x1,(%rax)
    d0e4:	0f b6 00             	movzbl (%rax),%eax
    d0e7:	0f b6 c0             	movzbl %al,%eax
    d0ea:	be 01 00 00 00       	mov    $0x1,%esi
    d0ef:	89 c7                	mov    %eax,%edi
    d0f1:	e8 e5 9a ff ff       	callq  6bdb <safe_div_func_uint8_t_u_u>
    d0f6:	0f b7 85 c8 e7 ff ff 	movzwl -0x1838(%rbp),%eax
    d0fd:	0f bf d0             	movswl %ax,%edx
    d100:	48 8b 05 31 a8 00 00 	mov    0xa831(%rip),%rax        # 17938 <g_556>
    d107:	0f b6 00             	movzbl (%rax),%eax
    d10a:	0f b6 c0             	movzbl %al,%eax
    d10d:	09 d0                	or     %edx,%eax
    d10f:	85 c0                	test   %eax,%eax
    d111:	75 0a                	jne    d11d <func_22+0x2ecd>
    d113:	8b 85 cc e7 ff ff    	mov    -0x1834(%rbp),%eax
    d119:	85 c0                	test   %eax,%eax
    d11b:	74 21                	je     d13e <func_22+0x2eee>
    d11d:	48 8d 85 04 e8 ff ff 	lea    -0x17fc(%rbp),%rax
    d124:	48 89 85 68 ea ff ff 	mov    %rax,-0x1598(%rbp)
    d12b:	48 8b 05 be a8 00 00 	mov    0xa8be(%rip),%rax        # 179f0 <g_794>
    d132:	48 8b 95 68 ea ff ff 	mov    -0x1598(%rbp),%rdx
    d139:	48 89 10             	mov    %rdx,(%rax)
    d13c:	eb 31                	jmp    d16f <func_22+0x2f1f>
    d13e:	c7 85 80 e8 ff ff ff 	movl   $0xffffffff,-0x1780(%rbp)
    d145:	ff ff ff 
    d148:	48 8b 05 c9 a8 00 00 	mov    0xa8c9(%rip),%rax        # 17a18 <g_1096>
    d14f:	48 8b 00             	mov    (%rax),%rax
    d152:	48 8b 00             	mov    (%rax),%rax
    d155:	48 8b 00             	mov    (%rax),%rax
    d158:	48 8b 95 c8 e9 ff ff 	mov    -0x1638(%rbp),%rdx
    d15f:	48 8b 12             	mov    (%rdx),%rdx
    d162:	48 89 10             	mov    %rdx,(%rax)
    d165:	81 b5 80 e8 ff ff 72 	xorl   $0x81946272,-0x1780(%rbp)
    d16c:	62 94 81 
    d16f:	48 8b 85 f8 e9 ff ff 	mov    -0x1608(%rbp),%rax
    d176:	8b 00                	mov    (%rax),%eax
    d178:	0d 08 3c 39 10       	or     $0x10393c08,%eax
    d17d:	89 c2                	mov    %eax,%edx
    d17f:	48 8b 85 f8 e9 ff ff 	mov    -0x1608(%rbp),%rax
    d186:	89 10                	mov    %edx,(%rax)
    d188:	48 8b 85 f8 e9 ff ff 	mov    -0x1608(%rbp),%rax
    d18f:	8b 00                	mov    (%rax),%eax
    d191:	85 c0                	test   %eax,%eax
    d193:	0f 85 ea 00 00 00    	jne    d283 <func_22+0x3033>
    d199:	c7 85 c4 e7 ff ff 00 	movl   $0x0,-0x183c(%rbp)
    d1a0:	00 00 00 
    d1a3:	e9 ca 00 00 00       	jmpq   d272 <func_22+0x3022>
    d1a8:	48 8d 05 d1 a8 00 00 	lea    0xa8d1(%rip),%rax        # 17a80 <g_1217>
    d1af:	48 89 85 70 ea ff ff 	mov    %rax,-0x1590(%rbp)
    d1b6:	c7 85 84 e8 ff ff 00 	movl   $0x0,-0x177c(%rbp)
    d1bd:	00 00 00 
    d1c0:	48 8d 05 01 8f 00 00 	lea    0x8f01(%rip),%rax        # 160c8 <g_189+0x8>
    d1c7:	48 89 85 78 ea ff ff 	mov    %rax,-0x1588(%rbp)
    d1ce:	48 c7 85 f8 f7 ff ff 	movq   $0x0,-0x808(%rbp)
    d1d5:	00 00 00 00 
    d1d9:	8b 9d 84 e8 ff ff    	mov    -0x177c(%rbp),%ebx
    d1df:	48 8b 85 70 ea ff ff 	mov    -0x1590(%rbp),%rax
    d1e6:	48 3b 85 58 ea ff ff 	cmp    -0x15a8(%rbp),%rax
    d1ed:	0f 94 c0             	sete   %al
    d1f0:	0f b6 d0             	movzbl %al,%edx
    d1f3:	8b 85 b0 e9 ff ff    	mov    -0x1650(%rbp),%eax
    d1f9:	39 c2                	cmp    %eax,%edx
    d1fb:	0f 93 c0             	setae  %al
    d1fe:	0f b6 d0             	movzbl %al,%edx
    d201:	8b 05 25 90 00 00    	mov    0x9025(%rip),%eax        # 1622c <g_1494>
    d207:	39 c2                	cmp    %eax,%edx
    d209:	0f 9e c0             	setle  %al
    d20c:	0f b6 c0             	movzbl %al,%eax
    d20f:	33 85 84 e8 ff ff    	xor    -0x177c(%rbp),%eax
    d215:	be a6 8a 3b 60       	mov    $0x603b8aa6,%esi
    d21a:	89 c7                	mov    %eax,%edi
    d21c:	e8 04 9d ff ff       	callq  6f25 <safe_div_func_uint32_t_u_u>
    d221:	89 de                	mov    %ebx,%esi
    d223:	89 c7                	mov    %eax,%edi
    d225:	e8 d3 9c ff ff       	callq  6efd <safe_mod_func_uint32_t_u_u>
    d22a:	48 8b 85 78 ea ff ff 	mov    -0x1588(%rbp),%rax
    d231:	48 c7 00 00 00 00 00 	movq   $0x0,(%rax)
    d238:	c7 85 88 e8 ff ff 1f 	movl   $0xaa60c11f,-0x1778(%rbp)
    d23f:	c1 60 aa 
    d242:	83 85 88 e8 ff ff 01 	addl   $0x1,-0x1778(%rbp)
    d249:	48 8b 85 f8 e9 ff ff 	mov    -0x1608(%rbp),%rax
    d250:	8b 00                	mov    (%rax),%eax
    d252:	85 c0                	test   %eax,%eax
    d254:	8b 85 c4 e7 ff ff    	mov    -0x183c(%rbp),%eax
    d25a:	0f be c0             	movsbl %al,%eax
    d25d:	be 01 00 00 00       	mov    $0x1,%esi
    d262:	89 c7                	mov    %eax,%edi
    d264:	e8 6b 8f ff ff       	callq  61d4 <safe_add_func_int8_t_s_s>
    d269:	0f be c0             	movsbl %al,%eax
    d26c:	89 85 c4 e7 ff ff    	mov    %eax,-0x183c(%rbp)
    d272:	8b 85 c4 e7 ff ff    	mov    -0x183c(%rbp),%eax
    d278:	83 f8 0b             	cmp    $0xb,%eax
    d27b:	0f 8f 27 ff ff ff    	jg     d1a8 <func_22+0x2f58>
    d281:	eb 01                	jmp    d284 <func_22+0x3034>
    d283:	90                   	nop
    d284:	48 8b 85 b8 e7 ff ff 	mov    -0x1848(%rbp),%rax
    d28b:	be 06 00 00 00       	mov    $0x6,%esi
    d290:	89 c7                	mov    %eax,%edi
    d292:	e8 6e 93 ff ff       	callq  6605 <safe_sub_func_int32_t_s_s>
    d297:	48 98                	cltq   
    d299:	48 89 85 b8 e7 ff ff 	mov    %rax,-0x1848(%rbp)
    d2a0:	48 83 bd b8 e7 ff ff 	cmpq   $0xffffffffffffffe3,-0x1848(%rbp)
    d2a7:	e3 
    d2a8:	0f 84 02 fd ff ff    	je     cfb0 <func_22+0x2d60>
    d2ae:	e9 e8 10 00 00       	jmpq   e39b <func_22+0x414b>
    d2b3:	48 8d 85 40 f3 ff ff 	lea    -0xcc0(%rbp),%rax
    d2ba:	48 8d 15 5f 96 00 00 	lea    0x965f(%rip),%rdx        # 16920 <g_3059+0x608>
    d2c1:	b9 3c 00 00 00       	mov    $0x3c,%ecx
    d2c6:	48 89 c7             	mov    %rax,%rdi
    d2c9:	48 89 d6             	mov    %rdx,%rsi
    d2cc:	f3 48 a5             	rep movsq %ds:(%rsi),%es:(%rdi)
    d2cf:	c7 85 64 e8 ff ff f8 	movl   $0x4d411ff8,-0x179c(%rbp)
    d2d6:	1f 41 4d 
    d2d9:	66 c7 85 e8 e7 ff ff 	movw   $0x9110,-0x1818(%rbp)
    d2e0:	10 91 
    d2e2:	c7 85 b8 e9 ff ff e9 	movl   $0x1d2823e9,-0x1648(%rbp)
    d2e9:	23 28 1d 
    d2ec:	c7 85 68 e8 ff ff fa 	movl   $0xfffffffa,-0x1798(%rbp)
    d2f3:	ff ff ff 
    d2f6:	c7 85 1c e8 ff ff 00 	movl   $0x0,-0x17e4(%rbp)
    d2fd:	00 00 00 
    d300:	eb 1a                	jmp    d31c <func_22+0x30cc>
    d302:	8b 85 1c e8 ff ff    	mov    -0x17e4(%rbp),%eax
    d308:	48 98                	cltq   
    d30a:	c7 84 85 70 ed ff ff 	movl   $0x5587a245,-0x1290(%rbp,%rax,4)
    d311:	45 a2 87 55 
    d315:	83 85 1c e8 ff ff 01 	addl   $0x1,-0x17e4(%rbp)
    d31c:	83 bd 1c e8 ff ff 02 	cmpl   $0x2,-0x17e4(%rbp)
    d323:	7e dd                	jle    d302 <func_22+0x30b2>
    d325:	48 8b 05 0c a6 00 00 	mov    0xa60c(%rip),%rax        # 17938 <g_556>
    d32c:	0f b6 00             	movzbl (%rax),%eax
    d32f:	0f be d8             	movsbl %al,%ebx
    d332:	48 8b 05 f7 a5 00 00 	mov    0xa5f7(%rip),%rax        # 17930 <g_492>
    d339:	0f b7 00             	movzwl (%rax),%eax
    d33c:	44 0f bf e0          	movswl %ax,%r12d
    d340:	8b 95 78 ed ff ff    	mov    -0x1288(%rbp),%edx
    d346:	48 8b 05 9b a6 00 00 	mov    0xa69b(%rip),%rax        # 179e8 <g_758>
    d34d:	66 89 10             	mov    %dx,(%rax)
    d350:	0f b7 00             	movzwl (%rax),%eax
    d353:	66 85 c0             	test   %ax,%ax
    d356:	0f 85 a2 00 00 00    	jne    d3fe <func_22+0x31ae>
    d35c:	48 8b 85 88 f4 ff ff 	mov    -0xb78(%rbp),%rax
    d363:	48 85 c0             	test   %rax,%rax
    d366:	0f 94 c0             	sete   %al
    d369:	44 0f b6 f0          	movzbl %al,%r14d
    d36d:	48 8b 05 24 a6 00 00 	mov    0xa624(%rip),%rax        # 17998 <g_634>
    d374:	48 8b 00             	mov    (%rax),%rax
    d377:	0f b6 00             	movzbl (%rax),%eax
    d37a:	44 0f be e8          	movsbl %al,%r13d
    d37e:	0f b7 85 c8 e7 ff ff 	movzwl -0x1838(%rbp),%eax
    d385:	0f be c0             	movsbl %al,%eax
    d388:	be 03 00 00 00       	mov    $0x3,%esi
    d38d:	89 c7                	mov    %eax,%edi
    d38f:	e8 d8 8f ff ff       	callq  636c <safe_rshift_func_int8_t_s_u>
    d394:	84 c0                	test   %al,%al
    d396:	74 40                	je     d3d8 <func_22+0x3188>
    d398:	0f b6 05 f9 b1 00 00 	movzbl 0xb1f9(%rip),%eax        # 18598 <g_1368>
    d39f:	8b 85 78 ed ff ff    	mov    -0x1288(%rbp),%eax
    d3a5:	48 98                	cltq   
    d3a7:	48 39 85 b8 e7 ff ff 	cmp    %rax,-0x1848(%rbp)
    d3ae:	bf d3 02 7c d8       	mov    $0xd87c02d3,%edi
    d3b3:	e8 de 91 ff ff       	callq  6596 <safe_unary_minus_func_int32_t_s>
    d3b8:	48 98                	cltq   
    d3ba:	48 be bc f1 17 0d 32 	movabs $0x3bb3a9320d17f1bc,%rsi
    d3c1:	a9 b3 3b 
    d3c4:	48 89 c7             	mov    %rax,%rdi
    d3c7:	e8 7f 9c ff ff       	callq  704b <safe_sub_func_uint64_t_u_u>
    d3cc:	48 85 c0             	test   %rax,%rax
    d3cf:	74 07                	je     d3d8 <func_22+0x3188>
    d3d1:	b8 01 00 00 00       	mov    $0x1,%eax
    d3d6:	eb 05                	jmp    d3dd <func_22+0x318d>
    d3d8:	b8 00 00 00 00       	mov    $0x0,%eax
    d3dd:	89 c6                	mov    %eax,%esi
    d3df:	bf 00 00 00 00       	mov    $0x0,%edi
    d3e4:	e8 e7 9a ff ff       	callq  6ed0 <safe_sub_func_uint32_t_u_u>
    d3e9:	0f b6 c0             	movzbl %al,%eax
    d3ec:	44 89 ee             	mov    %r13d,%esi
    d3ef:	89 c7                	mov    %eax,%edi
    d3f1:	e8 97 98 ff ff       	callq  6c8d <safe_rshift_func_uint8_t_u_s>
    d3f6:	0f b6 c0             	movzbl %al,%eax
    d3f9:	44 21 f0             	and    %r14d,%eax
    d3fc:	85 c0                	test   %eax,%eax
    d3fe:	90                   	nop
    d3ff:	44 89 e6             	mov    %r12d,%esi
    d402:	bf d3 ce 00 00       	mov    $0xced3,%edi
    d407:	e8 3c 9a ff ff       	callq  6e48 <safe_rshift_func_uint16_t_u_s>
    d40c:	66 85 c0             	test   %ax,%ax
    d40f:	0f 94 c0             	sete   %al
    d412:	0f b6 d0             	movzbl %al,%edx
    d415:	0f b7 85 c8 e7 ff ff 	movzwl -0x1838(%rbp),%eax
    d41c:	98                   	cwtl   
    d41d:	39 c2                	cmp    %eax,%edx
    d41f:	0f 9e c0             	setle  %al
    d422:	0f b6 c0             	movzbl %al,%eax
    d425:	89 c6                	mov    %eax,%esi
    d427:	bf 01 00 00 00       	mov    $0x1,%edi
    d42c:	e8 5c 98 ff ff       	callq  6c8d <safe_rshift_func_uint8_t_u_s>
    d431:	0f b6 d0             	movzbl %al,%edx
    d434:	48 8b 85 f8 e9 ff ff 	mov    -0x1608(%rbp),%rax
    d43b:	89 10                	mov    %edx,(%rax)
    d43d:	48 8b 85 f8 e9 ff ff 	mov    -0x1608(%rbp),%rax
    d444:	8b 00                	mov    (%rax),%eax
    d446:	0f be c0             	movsbl %al,%eax
    d449:	89 de                	mov    %ebx,%esi
    d44b:	89 c7                	mov    %eax,%edi
    d44d:	e8 a0 8d ff ff       	callq  61f2 <safe_sub_func_int8_t_s_s>
    d452:	0f b6 85 c0 e7 ff ff 	movzbl -0x1840(%rbp),%eax
    d459:	0f b6 c0             	movzbl %al,%eax
    d45c:	89 85 c4 e7 ff ff    	mov    %eax,-0x183c(%rbp)
    d462:	c7 85 44 e8 ff ff 03 	movl   $0x3,-0x17bc(%rbp)
    d469:	00 00 00 
    d46c:	83 bd 44 e8 ff ff 00 	cmpl   $0x0,-0x17bc(%rbp)
    d473:	78 26                	js     d49b <func_22+0x324b>
    d475:	c7 85 74 e8 ff ff f9 	movl   $0x91eb1df9,-0x178c(%rbp)
    d47c:	1d eb 91 
    d47f:	0f b6 85 c0 e7 ff ff 	movzbl -0x1840(%rbp),%eax
    d486:	0f b6 c0             	movzbl %al,%eax
    d489:	66 31 85 e8 e7 ff ff 	xor    %ax,-0x1818(%rbp)
    d490:	8b 85 74 e8 ff ff    	mov    -0x178c(%rbp),%eax
    d496:	e9 81 10 00 00       	jmpq   e51c <func_22+0x42cc>
    d49b:	c7 85 2c e8 ff ff 0e 	movl   $0xe,-0x17d4(%rbp)
    d4a2:	00 00 00 
    d4a5:	eb 1b                	jmp    d4c2 <func_22+0x3272>
    d4a7:	48 8b 05 4a a5 00 00 	mov    0xa54a(%rip),%rax        # 179f8 <g_793>
    d4ae:	48 8b 00             	mov    (%rax),%rax
    d4b1:	48 8d 95 c4 e7 ff ff 	lea    -0x183c(%rbp),%rdx
    d4b8:	48 89 10             	mov    %rdx,(%rax)
    d4bb:	83 85 2c e8 ff ff 01 	addl   $0x1,-0x17d4(%rbp)
    d4c2:	83 bd 2c e8 ff ff 1c 	cmpl   $0x1c,-0x17d4(%rbp)
    d4c9:	75 dc                	jne    d4a7 <func_22+0x3257>
    d4cb:	c7 85 2c e8 ff ff 04 	movl   $0x4,-0x17d4(%rbp)
    d4d2:	00 00 00 
    d4d5:	e9 b1 0e 00 00       	jmpq   e38b <func_22+0x413b>
    d4da:	c6 85 db e7 ff ff 01 	movb   $0x1,-0x1825(%rbp)
    d4e1:	48 8d 85 b8 e9 ff ff 	lea    -0x1648(%rbp),%rax
    d4e8:	48 89 85 20 ea ff ff 	mov    %rax,-0x15e0(%rbp)
    d4ef:	48 8d 05 02 a5 00 00 	lea    0xa502(%rip),%rax        # 179f8 <g_793>
    d4f6:	48 89 85 28 ea ff ff 	mov    %rax,-0x15d8(%rbp)
    d4fd:	44 8b a5 70 ed ff ff 	mov    -0x1290(%rbp),%r12d
    d504:	48 8b 85 f8 e9 ff ff 	mov    -0x1608(%rbp),%rax
    d50b:	8b 00                	mov    (%rax),%eax
    d50d:	0f b7 d8             	movzwl %ax,%ebx
    d510:	48 8b 05 c9 a3 00 00 	mov    0xa3c9(%rip),%rax        # 178e0 <g_192>
    d517:	44 8b 28             	mov    (%rax),%r13d
    d51a:	48 8d 15 0f 8d 00 00 	lea    0x8d0f(%rip),%rdx        # 16230 <g_1501>
    d521:	0f b6 02             	movzbl (%rdx),%eax
    d524:	8d 48 01             	lea    0x1(%rax),%ecx
    d527:	88 0a                	mov    %cl,(%rdx)
    d529:	0f b6 d0             	movzbl %al,%edx
    d52c:	48 8b 05 65 a4 00 00 	mov    0xa465(%rip),%rax        # 17998 <g_634>
    d533:	48 8b 00             	mov    (%rax),%rax
    d536:	0f b6 08             	movzbl (%rax),%ecx
    d539:	48 8b 05 a8 a4 00 00 	mov    0xa4a8(%rip),%rax        # 179e8 <g_758>
    d540:	0f b7 00             	movzwl (%rax),%eax
    d543:	f7 d0                	not    %eax
    d545:	8b b5 c4 e7 ff ff    	mov    -0x183c(%rbp),%esi
    d54b:	21 c6                	and    %eax,%esi
    d54d:	48 8b 05 44 a4 00 00 	mov    0xa444(%rip),%rax        # 17998 <g_634>
    d554:	48 8b 00             	mov    (%rax),%rax
    d557:	09 f1                	or     %esi,%ecx
    d559:	88 08                	mov    %cl,(%rax)
    d55b:	0f b6 00             	movzbl (%rax),%eax
    d55e:	0f be c0             	movsbl %al,%eax
    d561:	39 c2                	cmp    %eax,%edx
    d563:	0f 9c c0             	setl   %al
    d566:	44 0f b6 f0          	movzbl %al,%r14d
    d56a:	8b 95 c4 e7 ff ff    	mov    -0x183c(%rbp),%edx
    d570:	48 8b 85 08 ea ff ff 	mov    -0x15f8(%rbp),%rax
    d577:	48 3b 85 e8 e9 ff ff 	cmp    -0x1618(%rbp),%rax
    d57e:	0f 95 c0             	setne  %al
    d581:	0f b6 c0             	movzbl %al,%eax
    d584:	89 d6                	mov    %edx,%esi
    d586:	89 c7                	mov    %eax,%edi
    d588:	e8 05 8f ff ff       	callq  6492 <safe_lshift_func_int16_t_s_s>
    d58d:	0f be d0             	movsbl %al,%edx
    d590:	0f b7 85 e8 e7 ff ff 	movzwl -0x1818(%rbp),%eax
    d597:	0f be c0             	movsbl %al,%eax
    d59a:	89 d6                	mov    %edx,%esi
    d59c:	89 c7                	mov    %eax,%edi
    d59e:	e8 6f 8c ff ff       	callq  6212 <safe_mul_func_int8_t_s_s>
    d5a3:	66 98                	cbtw   
    d5a5:	0f b7 c0             	movzwl %ax,%eax
    d5a8:	be 0b 00 00 00       	mov    $0xb,%esi
    d5ad:	89 c7                	mov    %eax,%edi
    d5af:	e8 52 98 ff ff       	callq  6e06 <safe_lshift_func_uint16_t_u_u>
    d5b4:	0f b7 c0             	movzwl %ax,%eax
    d5b7:	41 39 c6             	cmp    %eax,%r14d
    d5ba:	0f 9e c0             	setle  %al
    d5bd:	0f b6 c0             	movzbl %al,%eax
    d5c0:	f7 d0                	not    %eax
    d5c2:	41 39 c5             	cmp    %eax,%r13d
    d5c5:	8b 85 78 ed ff ff    	mov    -0x1288(%rbp),%eax
    d5cb:	0f be d0             	movsbl %al,%edx
    d5ce:	0f b6 85 c0 e7 ff ff 	movzbl -0x1840(%rbp),%eax
    d5d5:	0f be c0             	movsbl %al,%eax
    d5d8:	89 d6                	mov    %edx,%esi
    d5da:	89 c7                	mov    %eax,%edi
    d5dc:	e8 31 8c ff ff       	callq  6212 <safe_mul_func_int8_t_s_s>
    d5e1:	66 0f be d0          	movsbw %al,%dx
    d5e5:	48 8b 05 44 a3 00 00 	mov    0xa344(%rip),%rax        # 17930 <g_492>
    d5ec:	0f b7 00             	movzwl (%rax),%eax
    d5ef:	66 39 c2             	cmp    %ax,%dx
    d5f2:	0f 9c c0             	setl   %al
    d5f5:	0f b6 c0             	movzbl %al,%eax
    d5f8:	89 de                	mov    %ebx,%esi
    d5fa:	89 c7                	mov    %eax,%edi
    d5fc:	e8 3c 97 ff ff       	callq  6d3d <safe_mul_func_uint16_t_u_u>
    d601:	66 3d 07 81          	cmp    $0x8107,%ax
    d605:	0f 97 c0             	seta   %al
    d608:	0f b6 c0             	movzbl %al,%eax
    d60b:	41 39 c4             	cmp    %eax,%r12d
    d60e:	7c 10                	jl     d620 <func_22+0x33d0>
    d610:	80 bd db e7 ff ff 00 	cmpb   $0x0,-0x1825(%rbp)
    d617:	74 07                	je     d620 <func_22+0x33d0>
    d619:	ba 01 00 00 00       	mov    $0x1,%edx
    d61e:	eb 05                	jmp    d625 <func_22+0x33d5>
    d620:	ba 00 00 00 00       	mov    $0x0,%edx
    d625:	0f b7 85 c8 e7 ff ff 	movzwl -0x1838(%rbp),%eax
    d62c:	98                   	cwtl   
    d62d:	39 c2                	cmp    %eax,%edx
    d62f:	0f 94 c0             	sete   %al
    d632:	0f b6 d0             	movzbl %al,%edx
    d635:	8b 85 78 ed ff ff    	mov    -0x1288(%rbp),%eax
    d63b:	39 c2                	cmp    %eax,%edx
    d63d:	0f 8f 37 0d 00 00    	jg     e37a <func_22+0x412a>
    d643:	48 8d 05 be a3 00 00 	lea    0xa3be(%rip),%rax        # 17a08 <g_1098>
    d64a:	48 89 85 90 ee ff ff 	mov    %rax,-0x1170(%rbp)
    d651:	48 8d 05 b0 a3 00 00 	lea    0xa3b0(%rip),%rax        # 17a08 <g_1098>
    d658:	48 89 85 98 ee ff ff 	mov    %rax,-0x1168(%rbp)
    d65f:	48 8d 05 a2 a3 00 00 	lea    0xa3a2(%rip),%rax        # 17a08 <g_1098>
    d666:	48 89 85 a0 ee ff ff 	mov    %rax,-0x1160(%rbp)
    d66d:	48 8d 05 94 a3 00 00 	lea    0xa394(%rip),%rax        # 17a08 <g_1098>
    d674:	48 89 85 a8 ee ff ff 	mov    %rax,-0x1158(%rbp)
    d67b:	48 c7 85 b0 ee ff ff 	movq   $0x0,-0x1150(%rbp)
    d682:	00 00 00 00 
    d686:	48 c7 85 b8 ee ff ff 	movq   $0x0,-0x1148(%rbp)
    d68d:	00 00 00 00 
    d691:	48 8d 05 70 a3 00 00 	lea    0xa370(%rip),%rax        # 17a08 <g_1098>
    d698:	48 89 85 c0 ee ff ff 	mov    %rax,-0x1140(%rbp)
    d69f:	48 8d 05 62 a3 00 00 	lea    0xa362(%rip),%rax        # 17a08 <g_1098>
    d6a6:	48 89 85 c8 ee ff ff 	mov    %rax,-0x1138(%rbp)
    d6ad:	48 8d 05 54 a3 00 00 	lea    0xa354(%rip),%rax        # 17a08 <g_1098>
    d6b4:	48 89 85 d0 ee ff ff 	mov    %rax,-0x1130(%rbp)
    d6bb:	48 8d 05 46 a3 00 00 	lea    0xa346(%rip),%rax        # 17a08 <g_1098>
    d6c2:	48 89 85 d8 ee ff ff 	mov    %rax,-0x1128(%rbp)
    d6c9:	48 8d 05 38 a3 00 00 	lea    0xa338(%rip),%rax        # 17a08 <g_1098>
    d6d0:	48 89 85 e0 ee ff ff 	mov    %rax,-0x1120(%rbp)
    d6d7:	48 8d 05 2a a3 00 00 	lea    0xa32a(%rip),%rax        # 17a08 <g_1098>
    d6de:	48 89 85 e8 ee ff ff 	mov    %rax,-0x1118(%rbp)
    d6e5:	48 8d 05 1c a3 00 00 	lea    0xa31c(%rip),%rax        # 17a08 <g_1098>
    d6ec:	48 89 85 f0 ee ff ff 	mov    %rax,-0x1110(%rbp)
    d6f3:	48 8d 05 0e a3 00 00 	lea    0xa30e(%rip),%rax        # 17a08 <g_1098>
    d6fa:	48 89 85 f8 ee ff ff 	mov    %rax,-0x1108(%rbp)
    d701:	48 8d 05 00 a3 00 00 	lea    0xa300(%rip),%rax        # 17a08 <g_1098>
    d708:	48 89 85 00 ef ff ff 	mov    %rax,-0x1100(%rbp)
    d70f:	48 8d 05 f2 a2 00 00 	lea    0xa2f2(%rip),%rax        # 17a08 <g_1098>
    d716:	48 89 85 08 ef ff ff 	mov    %rax,-0x10f8(%rbp)
    d71d:	48 c7 85 10 ef ff ff 	movq   $0x0,-0x10f0(%rbp)
    d724:	00 00 00 00 
    d728:	48 8d 05 d9 a2 00 00 	lea    0xa2d9(%rip),%rax        # 17a08 <g_1098>
    d72f:	48 89 85 18 ef ff ff 	mov    %rax,-0x10e8(%rbp)
    d736:	48 c7 85 20 ef ff ff 	movq   $0x0,-0x10e0(%rbp)
    d73d:	00 00 00 00 
    d741:	48 8d 05 c0 a2 00 00 	lea    0xa2c0(%rip),%rax        # 17a08 <g_1098>
    d748:	48 89 85 28 ef ff ff 	mov    %rax,-0x10d8(%rbp)
    d74f:	48 8d 05 b2 a2 00 00 	lea    0xa2b2(%rip),%rax        # 17a08 <g_1098>
    d756:	48 89 85 30 ef ff ff 	mov    %rax,-0x10d0(%rbp)
    d75d:	48 8d 05 a4 a2 00 00 	lea    0xa2a4(%rip),%rax        # 17a08 <g_1098>
    d764:	48 89 85 38 ef ff ff 	mov    %rax,-0x10c8(%rbp)
    d76b:	48 8d 05 96 a2 00 00 	lea    0xa296(%rip),%rax        # 17a08 <g_1098>
    d772:	48 89 85 40 ef ff ff 	mov    %rax,-0x10c0(%rbp)
    d779:	48 c7 85 48 ef ff ff 	movq   $0x0,-0x10b8(%rbp)
    d780:	00 00 00 00 
    d784:	48 8d 05 7d a2 00 00 	lea    0xa27d(%rip),%rax        # 17a08 <g_1098>
    d78b:	48 89 85 50 ef ff ff 	mov    %rax,-0x10b0(%rbp)
    d792:	48 c7 85 58 ef ff ff 	movq   $0x0,-0x10a8(%rbp)
    d799:	00 00 00 00 
    d79d:	48 c7 85 60 ef ff ff 	movq   $0x0,-0x10a0(%rbp)
    d7a4:	00 00 00 00 
    d7a8:	48 8d 05 59 a2 00 00 	lea    0xa259(%rip),%rax        # 17a08 <g_1098>
    d7af:	48 89 85 68 ef ff ff 	mov    %rax,-0x1098(%rbp)
    d7b6:	48 8d 05 4b a2 00 00 	lea    0xa24b(%rip),%rax        # 17a08 <g_1098>
    d7bd:	48 89 85 70 ef ff ff 	mov    %rax,-0x1090(%rbp)
    d7c4:	48 8d 05 3d a2 00 00 	lea    0xa23d(%rip),%rax        # 17a08 <g_1098>
    d7cb:	48 89 85 78 ef ff ff 	mov    %rax,-0x1088(%rbp)
    d7d2:	48 8d 05 ef 88 00 00 	lea    0x88ef(%rip),%rax        # 160c8 <g_189+0x8>
    d7d9:	48 89 85 30 ea ff ff 	mov    %rax,-0x15d0(%rbp)
    d7e0:	48 8d 05 21 a2 00 00 	lea    0xa221(%rip),%rax        # 17a08 <g_1098>
    d7e7:	48 89 85 10 ee ff ff 	mov    %rax,-0x11f0(%rbp)
    d7ee:	48 8d 05 13 a2 00 00 	lea    0xa213(%rip),%rax        # 17a08 <g_1098>
    d7f5:	48 89 85 18 ee ff ff 	mov    %rax,-0x11e8(%rbp)
    d7fc:	48 8d 05 05 a2 00 00 	lea    0xa205(%rip),%rax        # 17a08 <g_1098>
    d803:	48 89 85 20 ee ff ff 	mov    %rax,-0x11e0(%rbp)
    d80a:	48 8d 05 f7 a1 00 00 	lea    0xa1f7(%rip),%rax        # 17a08 <g_1098>
    d811:	48 89 85 28 ee ff ff 	mov    %rax,-0x11d8(%rbp)
    d818:	48 8d 05 e9 a1 00 00 	lea    0xa1e9(%rip),%rax        # 17a08 <g_1098>
    d81f:	48 89 85 30 ee ff ff 	mov    %rax,-0x11d0(%rbp)
    d826:	48 8d 05 db a1 00 00 	lea    0xa1db(%rip),%rax        # 17a08 <g_1098>
    d82d:	48 89 85 38 ee ff ff 	mov    %rax,-0x11c8(%rbp)
    d834:	48 8d 05 cd a1 00 00 	lea    0xa1cd(%rip),%rax        # 17a08 <g_1098>
    d83b:	48 89 85 40 ee ff ff 	mov    %rax,-0x11c0(%rbp)
    d842:	48 8d 05 bf a1 00 00 	lea    0xa1bf(%rip),%rax        # 17a08 <g_1098>
    d849:	48 89 85 48 ee ff ff 	mov    %rax,-0x11b8(%rbp)
    d850:	48 8d 05 b1 a1 00 00 	lea    0xa1b1(%rip),%rax        # 17a08 <g_1098>
    d857:	48 89 85 50 ee ff ff 	mov    %rax,-0x11b0(%rbp)
    d85e:	48 8d 05 a3 a1 00 00 	lea    0xa1a3(%rip),%rax        # 17a08 <g_1098>
    d865:	48 89 85 58 ee ff ff 	mov    %rax,-0x11a8(%rbp)
    d86c:	48 8d 05 95 a1 00 00 	lea    0xa195(%rip),%rax        # 17a08 <g_1098>
    d873:	48 89 85 60 ee ff ff 	mov    %rax,-0x11a0(%rbp)
    d87a:	48 8d 05 87 a1 00 00 	lea    0xa187(%rip),%rax        # 17a08 <g_1098>
    d881:	48 89 85 68 ee ff ff 	mov    %rax,-0x1198(%rbp)
    d888:	48 8d 05 79 a1 00 00 	lea    0xa179(%rip),%rax        # 17a08 <g_1098>
    d88f:	48 89 85 70 ee ff ff 	mov    %rax,-0x1190(%rbp)
    d896:	48 8d 05 6b a1 00 00 	lea    0xa16b(%rip),%rax        # 17a08 <g_1098>
    d89d:	48 89 85 78 ee ff ff 	mov    %rax,-0x1188(%rbp)
    d8a4:	48 8d 05 5d a1 00 00 	lea    0xa15d(%rip),%rax        # 17a08 <g_1098>
    d8ab:	48 89 85 80 ee ff ff 	mov    %rax,-0x1180(%rbp)
    d8b2:	48 8d 05 4f a1 00 00 	lea    0xa14f(%rip),%rax        # 17a08 <g_1098>
    d8b9:	48 89 85 88 ee ff ff 	mov    %rax,-0x1178(%rbp)
    d8c0:	48 c7 85 38 ea ff ff 	movq   $0x0,-0x15c8(%rbp)
    d8c7:	00 00 00 00 
    d8cb:	c7 85 6c e8 ff ff f6 	movl   $0xfffffff6,-0x1794(%rbp)
    d8d2:	ff ff ff 
    d8d5:	c7 85 20 e8 ff ff 00 	movl   $0x0,-0x17e0(%rbp)
    d8dc:	00 00 00 
    d8df:	eb 1e                	jmp    d8ff <func_22+0x36af>
    d8e1:	8b 85 20 e8 ff ff    	mov    -0x17e0(%rbp),%eax
    d8e7:	48 98                	cltq   
    d8e9:	48 8d 95 38 e9 ff ff 	lea    -0x16c8(%rbp),%rdx
    d8f0:	48 89 94 c5 c0 ed ff 	mov    %rdx,-0x1240(%rbp,%rax,8)
    d8f7:	ff 
    d8f8:	83 85 20 e8 ff ff 01 	addl   $0x1,-0x17e0(%rbp)
    d8ff:	83 bd 20 e8 ff ff 01 	cmpl   $0x1,-0x17e0(%rbp)
    d906:	7e d9                	jle    d8e1 <func_22+0x3691>
    d908:	48 8b 05 d9 9f 00 00 	mov    0x9fd9(%rip),%rax        # 178e8 <g_191>
    d90f:	48 8b 00             	mov    (%rax),%rax
    d912:	c7 00 1c a2 03 26    	movl   $0x2603a21c,(%rax)
    d918:	48 8b 95 e8 ee ff ff 	mov    -0x1118(%rbp),%rdx
    d91f:	48 8b 05 6a a1 00 00 	mov    0xa16a(%rip),%rax        # 17a90 <g_1386>
    d926:	48 8b 00             	mov    (%rax),%rax
    d929:	48 39 c2             	cmp    %rax,%rdx
    d92c:	0f 94 c0             	sete   %al
    d92f:	0f b6 d0             	movzbl %al,%edx
    d932:	48 8b 85 30 ea ff ff 	mov    -0x15d0(%rbp),%rax
    d939:	48 89 10             	mov    %rdx,(%rax)
    d93c:	48 8b 85 30 ea ff ff 	mov    -0x15d0(%rbp),%rax
    d943:	48 8b 18             	mov    (%rax),%rbx
    d946:	48 8d 05 1f 87 00 00 	lea    0x871f(%rip),%rax        # 1606c <g_107>
    d94d:	48 89 05 e4 9f 00 00 	mov    %rax,0x9fe4(%rip)        # 17938 <g_556>
    d954:	48 8b 15 dd 9f 00 00 	mov    0x9fdd(%rip),%rdx        # 17938 <g_556>
    d95b:	48 8d 85 c0 e7 ff ff 	lea    -0x1840(%rbp),%rax
    d962:	48 39 c2             	cmp    %rax,%rdx
    d965:	0f 95 c0             	setne  %al
    d968:	0f b6 d0             	movzbl %al,%edx
    d96b:	48 8b 85 f8 e9 ff ff 	mov    -0x1608(%rbp),%rax
    d972:	8b 00                	mov    (%rax),%eax
    d974:	0f b7 c0             	movzwl %ax,%eax
    d977:	89 d6                	mov    %edx,%esi
    d979:	89 c7                	mov    %eax,%edi
    d97b:	e8 9f 93 ff ff       	callq  6d1f <safe_sub_func_uint16_t_u_u>
    d980:	0f b7 c0             	movzwl %ax,%eax
    d983:	48 39 c3             	cmp    %rax,%rbx
    d986:	7f 46                	jg     d9ce <func_22+0x377e>
    d988:	c7 85 70 e8 ff ff ff 	movl   $0xffffffff,-0x1790(%rbp)
    d98f:	ff ff ff 
    d992:	be 02 00 00 00       	mov    $0x2,%esi
    d997:	bf 06 00 00 00       	mov    $0x6,%edi
    d99c:	e8 94 89 ff ff       	callq  6335 <safe_rshift_func_int8_t_s_s>
    d9a1:	84 c0                	test   %al,%al
    d9a3:	74 1c                	je     d9c1 <func_22+0x3771>
    d9a5:	48 8b 15 3c a0 00 00 	mov    0xa03c(%rip),%rdx        # 179e8 <g_758>
    d9ac:	0f b7 02             	movzwl (%rdx),%eax
    d9af:	8d 48 ff             	lea    -0x1(%rax),%ecx
    d9b2:	66 89 0a             	mov    %cx,(%rdx)
    d9b5:	66 85 c0             	test   %ax,%ax
    d9b8:	74 07                	je     d9c1 <func_22+0x3771>
    d9ba:	b8 01 00 00 00       	mov    $0x1,%eax
    d9bf:	eb 05                	jmp    d9c6 <func_22+0x3776>
    d9c1:	b8 00 00 00 00       	mov    $0x0,%eax
    d9c6:	89 85 70 e8 ff ff    	mov    %eax,-0x1790(%rbp)
    d9cc:	eb 2b                	jmp    d9f9 <func_22+0x37a9>
    d9ce:	48 8d 85 f0 f7 ff ff 	lea    -0x810(%rbp),%rax
    d9d5:	48 8d 15 04 51 00 00 	lea    0x5104(%rip),%rdx        # 12ae0 <g_2687+0x1a30>
    d9dc:	b9 28 00 00 00       	mov    $0x28,%ecx
    d9e1:	48 89 c7             	mov    %rax,%rdi
    d9e4:	48 89 d6             	mov    %rdx,%rsi
    d9e7:	f3 48 a5             	rep movsq %ds:(%rsi),%es:(%rdi)
    d9ea:	8b 85 4c f8 ff ff    	mov    -0x7b4(%rbp),%eax
    d9f0:	83 e8 01             	sub    $0x1,%eax
    d9f3:	89 85 4c f8 ff ff    	mov    %eax,-0x7b4(%rbp)
    d9f9:	48 8b 05 c0 9e 00 00 	mov    0x9ec0(%rip),%rax        # 178c0 <g_40>
    da00:	c7 00 de 78 67 41    	movl   $0x416778de,(%rax)
    da06:	66 c7 85 c8 e7 ff ff 	movw   $0xfff3,-0x1838(%rbp)
    da0d:	f3 ff 
    da0f:	eb 2c                	jmp    da3d <func_22+0x37ed>
    da11:	48 8b 85 c8 e9 ff ff 	mov    -0x1638(%rbp),%rax
    da18:	48 8b 00             	mov    (%rax),%rax
    da1b:	48 89 85 20 ea ff ff 	mov    %rax,-0x15e0(%rbp)
    da22:	0f b7 85 c8 e7 ff ff 	movzwl -0x1838(%rbp),%eax
    da29:	98                   	cwtl   
    da2a:	be 02 00 00 00       	mov    $0x2,%esi
    da2f:	89 c7                	mov    %eax,%edi
    da31:	e8 7d 89 ff ff       	callq  63b3 <safe_add_func_int16_t_s_s>
    da36:	66 89 85 c8 e7 ff ff 	mov    %ax,-0x1838(%rbp)
    da3d:	0f b7 85 c8 e7 ff ff 	movzwl -0x1838(%rbp),%eax
    da44:	66 83 f8 09          	cmp    $0x9,%ax
    da48:	7f c7                	jg     da11 <func_22+0x37c1>
    da4a:	c6 05 e8 87 00 00 00 	movb   $0x0,0x87e8(%rip)        # 16239 <g_1730>
    da51:	e9 13 09 00 00       	jmpq   e369 <func_22+0x4119>
    da56:	66 c7 85 ea e7 ff ff 	movw   $0xffff,-0x1816(%rbp)
    da5d:	ff ff 
    da5f:	48 8d 05 8a ab 00 00 	lea    0xab8a(%rip),%rax        # 185f0 <g_1873>
    da66:	48 89 85 40 ea ff ff 	mov    %rax,-0x15c0(%rbp)
    da6d:	48 8d 05 cc 87 00 00 	lea    0x87cc(%rip),%rax        # 16240 <g_1832>
    da74:	48 89 85 f0 f7 ff ff 	mov    %rax,-0x810(%rbp)
    da7b:	48 8d 05 c6 87 00 00 	lea    0x87c6(%rip),%rax        # 16248 <g_1832+0x8>
    da82:	48 89 85 f8 f7 ff ff 	mov    %rax,-0x808(%rbp)
    da89:	48 8d 85 a8 e9 ff ff 	lea    -0x1658(%rbp),%rax
    da90:	48 89 85 00 f8 ff ff 	mov    %rax,-0x800(%rbp)
    da97:	48 8d 05 aa 87 00 00 	lea    0x87aa(%rip),%rax        # 16248 <g_1832+0x8>
    da9e:	48 89 85 08 f8 ff ff 	mov    %rax,-0x7f8(%rbp)
    daa5:	48 8d 05 94 87 00 00 	lea    0x8794(%rip),%rax        # 16240 <g_1832>
    daac:	48 89 85 10 f8 ff ff 	mov    %rax,-0x7f0(%rbp)
    dab3:	48 8d 85 a8 e9 ff ff 	lea    -0x1658(%rbp),%rax
    daba:	48 89 85 18 f8 ff ff 	mov    %rax,-0x7e8(%rbp)
    dac1:	48 8d 05 78 87 00 00 	lea    0x8778(%rip),%rax        # 16240 <g_1832>
    dac8:	48 89 85 20 f8 ff ff 	mov    %rax,-0x7e0(%rbp)
    dacf:	48 8d 05 6a 87 00 00 	lea    0x876a(%rip),%rax        # 16240 <g_1832>
    dad6:	48 89 85 28 f8 ff ff 	mov    %rax,-0x7d8(%rbp)
    dadd:	48 8d 85 a8 e9 ff ff 	lea    -0x1658(%rbp),%rax
    dae4:	48 89 85 30 f8 ff ff 	mov    %rax,-0x7d0(%rbp)
    daeb:	48 c7 85 38 f8 ff ff 	movq   $0x0,-0x7c8(%rbp)
    daf2:	00 00 00 00 
    daf6:	48 8d 05 43 87 00 00 	lea    0x8743(%rip),%rax        # 16240 <g_1832>
    dafd:	48 89 85 40 f8 ff ff 	mov    %rax,-0x7c0(%rbp)
    db04:	48 c7 85 48 f8 ff ff 	movq   $0x0,-0x7b8(%rbp)
    db0b:	00 00 00 00 
    db0f:	48 8d 05 28 86 00 00 	lea    0x8628(%rip),%rax        # 1613e <g_678>
    db16:	48 89 85 50 f8 ff ff 	mov    %rax,-0x7b0(%rbp)
    db1d:	48 c7 85 58 f8 ff ff 	movq   $0x0,-0x7a8(%rbp)
    db24:	00 00 00 00 
    db28:	48 8d 05 0f 86 00 00 	lea    0x860f(%rip),%rax        # 1613e <g_678>
    db2f:	48 89 85 60 f8 ff ff 	mov    %rax,-0x7a0(%rbp)
    db36:	48 c7 85 68 f8 ff ff 	movq   $0x0,-0x798(%rbp)
    db3d:	00 00 00 00 
    db41:	48 8d 05 f8 86 00 00 	lea    0x86f8(%rip),%rax        # 16240 <g_1832>
    db48:	48 89 85 70 f8 ff ff 	mov    %rax,-0x790(%rbp)
    db4f:	48 c7 85 78 f8 ff ff 	movq   $0x0,-0x788(%rbp)
    db56:	00 00 00 00 
    db5a:	48 8d 05 eb 86 00 00 	lea    0x86eb(%rip),%rax        # 1624c <g_1832+0xc>
    db61:	48 89 85 80 f8 ff ff 	mov    %rax,-0x780(%rbp)
    db68:	48 8d 05 cf 85 00 00 	lea    0x85cf(%rip),%rax        # 1613e <g_678>
    db6f:	48 89 85 88 f8 ff ff 	mov    %rax,-0x778(%rbp)
    db76:	48 8d 05 cf 86 00 00 	lea    0x86cf(%rip),%rax        # 1624c <g_1832+0xc>
    db7d:	48 89 85 90 f8 ff ff 	mov    %rax,-0x770(%rbp)
    db84:	48 8d 05 b5 86 00 00 	lea    0x86b5(%rip),%rax        # 16240 <g_1832>
    db8b:	48 89 85 98 f8 ff ff 	mov    %rax,-0x768(%rbp)
    db92:	48 8d 05 af 86 00 00 	lea    0x86af(%rip),%rax        # 16248 <g_1832+0x8>
    db99:	48 89 85 a0 f8 ff ff 	mov    %rax,-0x760(%rbp)
    dba0:	48 8d 85 a8 e9 ff ff 	lea    -0x1658(%rbp),%rax
    dba7:	48 89 85 a8 f8 ff ff 	mov    %rax,-0x758(%rbp)
    dbae:	48 8d 05 8b 86 00 00 	lea    0x868b(%rip),%rax        # 16240 <g_1832>
    dbb5:	48 89 85 b0 f8 ff ff 	mov    %rax,-0x750(%rbp)
    dbbc:	48 8d 85 a8 e9 ff ff 	lea    -0x1658(%rbp),%rax
    dbc3:	48 89 85 b8 f8 ff ff 	mov    %rax,-0x748(%rbp)
    dbca:	48 8d 05 77 86 00 00 	lea    0x8677(%rip),%rax        # 16248 <g_1832+0x8>
    dbd1:	48 89 85 c0 f8 ff ff 	mov    %rax,-0x740(%rbp)
    dbd8:	48 8d 05 6b 86 00 00 	lea    0x866b(%rip),%rax        # 1624a <g_1832+0xa>
    dbdf:	48 89 85 c8 f8 ff ff 	mov    %rax,-0x738(%rbp)
    dbe6:	48 8d 05 53 86 00 00 	lea    0x8653(%rip),%rax        # 16240 <g_1832>
    dbed:	48 89 85 d0 f8 ff ff 	mov    %rax,-0x730(%rbp)
    dbf4:	48 8d 05 45 86 00 00 	lea    0x8645(%rip),%rax        # 16240 <g_1832>
    dbfb:	48 89 85 d8 f8 ff ff 	mov    %rax,-0x728(%rbp)
    dc02:	48 8d 05 41 86 00 00 	lea    0x8641(%rip),%rax        # 1624a <g_1832+0xa>
    dc09:	48 89 85 e0 f8 ff ff 	mov    %rax,-0x720(%rbp)
    dc10:	48 8d 05 27 85 00 00 	lea    0x8527(%rip),%rax        # 1613e <g_678>
    dc17:	48 89 85 e8 f8 ff ff 	mov    %rax,-0x718(%rbp)
    dc1e:	48 8d 05 1b 86 00 00 	lea    0x861b(%rip),%rax        # 16240 <g_1832>
    dc25:	48 89 85 f0 f8 ff ff 	mov    %rax,-0x710(%rbp)
    dc2c:	48 8d 85 a8 e9 ff ff 	lea    -0x1658(%rbp),%rax
    dc33:	48 89 85 f8 f8 ff ff 	mov    %rax,-0x708(%rbp)
    dc3a:	48 8d 85 a8 e9 ff ff 	lea    -0x1658(%rbp),%rax
    dc41:	48 89 85 00 f9 ff ff 	mov    %rax,-0x700(%rbp)
    dc48:	48 8d 05 f1 85 00 00 	lea    0x85f1(%rip),%rax        # 16240 <g_1832>
    dc4f:	48 89 85 08 f9 ff ff 	mov    %rax,-0x6f8(%rbp)
    dc56:	48 8d 05 ef 85 00 00 	lea    0x85ef(%rip),%rax        # 1624c <g_1832+0xc>
    dc5d:	48 89 85 10 f9 ff ff 	mov    %rax,-0x6f0(%rbp)
    dc64:	48 8d 05 d5 85 00 00 	lea    0x85d5(%rip),%rax        # 16240 <g_1832>
    dc6b:	48 89 85 18 f9 ff ff 	mov    %rax,-0x6e8(%rbp)
    dc72:	48 8d 05 c7 85 00 00 	lea    0x85c7(%rip),%rax        # 16240 <g_1832>
    dc79:	48 89 85 20 f9 ff ff 	mov    %rax,-0x6e0(%rbp)
    dc80:	48 c7 85 28 f9 ff ff 	movq   $0x0,-0x6d8(%rbp)
    dc87:	00 00 00 00 
    dc8b:	48 8d 05 ac 84 00 00 	lea    0x84ac(%rip),%rax        # 1613e <g_678>
    dc92:	48 89 85 30 f9 ff ff 	mov    %rax,-0x6d0(%rbp)
    dc99:	48 8d 05 9e 84 00 00 	lea    0x849e(%rip),%rax        # 1613e <g_678>
    dca0:	48 89 85 38 f9 ff ff 	mov    %rax,-0x6c8(%rbp)
    dca7:	48 8d 05 9a 85 00 00 	lea    0x859a(%rip),%rax        # 16248 <g_1832+0x8>
    dcae:	48 89 85 40 f9 ff ff 	mov    %rax,-0x6c0(%rbp)
    dcb5:	48 8d 05 82 84 00 00 	lea    0x8482(%rip),%rax        # 1613e <g_678>
    dcbc:	48 89 85 48 f9 ff ff 	mov    %rax,-0x6b8(%rbp)
    dcc3:	48 8d 85 a8 e9 ff ff 	lea    -0x1658(%rbp),%rax
    dcca:	48 89 85 50 f9 ff ff 	mov    %rax,-0x6b0(%rbp)
    dcd1:	48 c7 85 58 f9 ff ff 	movq   $0x0,-0x6a8(%rbp)
    dcd8:	00 00 00 00 
    dcdc:	48 8d 05 5b 84 00 00 	lea    0x845b(%rip),%rax        # 1613e <g_678>
    dce3:	48 89 85 60 f9 ff ff 	mov    %rax,-0x6a0(%rbp)
    dcea:	48 8d 05 4f 85 00 00 	lea    0x854f(%rip),%rax        # 16240 <g_1832>
    dcf1:	48 89 85 68 f9 ff ff 	mov    %rax,-0x698(%rbp)
    dcf8:	48 8d 05 47 85 00 00 	lea    0x8547(%rip),%rax        # 16246 <g_1832+0x6>
    dcff:	48 89 85 70 f9 ff ff 	mov    %rax,-0x690(%rbp)
    dd06:	48 8d 05 31 84 00 00 	lea    0x8431(%rip),%rax        # 1613e <g_678>
    dd0d:	48 89 85 78 f9 ff ff 	mov    %rax,-0x688(%rbp)
    dd14:	48 8d 85 a8 e9 ff ff 	lea    -0x1658(%rbp),%rax
    dd1b:	48 89 85 80 f9 ff ff 	mov    %rax,-0x680(%rbp)
    dd22:	48 8d 85 a8 e9 ff ff 	lea    -0x1658(%rbp),%rax
    dd29:	48 89 85 88 f9 ff ff 	mov    %rax,-0x678(%rbp)
    dd30:	48 8d 05 07 84 00 00 	lea    0x8407(%rip),%rax        # 1613e <g_678>
    dd37:	48 89 85 90 f9 ff ff 	mov    %rax,-0x670(%rbp)
    dd3e:	48 8d 05 01 85 00 00 	lea    0x8501(%rip),%rax        # 16246 <g_1832+0x6>
    dd45:	48 89 85 98 f9 ff ff 	mov    %rax,-0x668(%rbp)
    dd4c:	48 8d 05 ed 84 00 00 	lea    0x84ed(%rip),%rax        # 16240 <g_1832>
    dd53:	48 89 85 a0 f9 ff ff 	mov    %rax,-0x660(%rbp)
    dd5a:	48 8d 05 e1 84 00 00 	lea    0x84e1(%rip),%rax        # 16242 <g_1832+0x2>
    dd61:	48 89 85 a8 f9 ff ff 	mov    %rax,-0x658(%rbp)
    dd68:	48 8d 05 d1 84 00 00 	lea    0x84d1(%rip),%rax        # 16240 <g_1832>
    dd6f:	48 89 85 b0 f9 ff ff 	mov    %rax,-0x650(%rbp)
    dd76:	48 8d 05 c1 83 00 00 	lea    0x83c1(%rip),%rax        # 1613e <g_678>
    dd7d:	48 89 85 b8 f9 ff ff 	mov    %rax,-0x648(%rbp)
    dd84:	48 8d 05 bd 84 00 00 	lea    0x84bd(%rip),%rax        # 16248 <g_1832+0x8>
    dd8b:	48 89 85 c0 f9 ff ff 	mov    %rax,-0x640(%rbp)
    dd92:	48 c7 85 c8 f9 ff ff 	movq   $0x0,-0x638(%rbp)
    dd99:	00 00 00 00 
    dd9d:	48 8d 05 a4 84 00 00 	lea    0x84a4(%rip),%rax        # 16248 <g_1832+0x8>
    dda4:	48 89 85 d0 f9 ff ff 	mov    %rax,-0x630(%rbp)
    ddab:	48 8d 85 a8 e9 ff ff 	lea    -0x1658(%rbp),%rax
    ddb2:	48 89 85 d8 f9 ff ff 	mov    %rax,-0x628(%rbp)
    ddb9:	48 8d 85 a8 e9 ff ff 	lea    -0x1658(%rbp),%rax
    ddc0:	48 89 85 e0 f9 ff ff 	mov    %rax,-0x620(%rbp)
    ddc7:	48 8d 05 72 84 00 00 	lea    0x8472(%rip),%rax        # 16240 <g_1832>
    ddce:	48 89 85 e8 f9 ff ff 	mov    %rax,-0x618(%rbp)
    ddd5:	48 c7 85 f0 f9 ff ff 	movq   $0x0,-0x610(%rbp)
    dddc:	00 00 00 00 
    dde0:	48 c7 85 f8 f9 ff ff 	movq   $0x0,-0x608(%rbp)
    dde7:	00 00 00 00 
    ddeb:	48 8d 05 4c 83 00 00 	lea    0x834c(%rip),%rax        # 1613e <g_678>
    ddf2:	48 89 85 00 fa ff ff 	mov    %rax,-0x600(%rbp)
    ddf9:	48 8d 85 a8 e9 ff ff 	lea    -0x1658(%rbp),%rax
    de00:	48 89 85 08 fa ff ff 	mov    %rax,-0x5f8(%rbp)
    de07:	48 8d 05 38 84 00 00 	lea    0x8438(%rip),%rax        # 16246 <g_1832+0x6>
    de0e:	48 89 85 10 fa ff ff 	mov    %rax,-0x5f0(%rbp)
    de15:	48 8d 05 2e 84 00 00 	lea    0x842e(%rip),%rax        # 1624a <g_1832+0xa>
    de1c:	48 89 85 18 fa ff ff 	mov    %rax,-0x5e8(%rbp)
    de23:	48 c7 85 20 fa ff ff 	movq   $0x0,-0x5e0(%rbp)
    de2a:	00 00 00 00 
    de2e:	48 c7 85 28 fa ff ff 	movq   $0x0,-0x5d8(%rbp)
    de35:	00 00 00 00 
    de39:	48 8d 05 00 84 00 00 	lea    0x8400(%rip),%rax        # 16240 <g_1832>
    de40:	48 89 85 30 fa ff ff 	mov    %rax,-0x5d0(%rbp)
    de47:	48 8d 05 f0 82 00 00 	lea    0x82f0(%rip),%rax        # 1613e <g_678>
    de4e:	48 89 85 38 fa ff ff 	mov    %rax,-0x5c8(%rbp)
    de55:	48 8d 05 e4 83 00 00 	lea    0x83e4(%rip),%rax        # 16240 <g_1832>
    de5c:	48 89 85 40 fa ff ff 	mov    %rax,-0x5c0(%rbp)
    de63:	48 8d 85 a8 e9 ff ff 	lea    -0x1658(%rbp),%rax
    de6a:	48 89 85 48 fa ff ff 	mov    %rax,-0x5b8(%rbp)
    de71:	48 8d 05 c6 82 00 00 	lea    0x82c6(%rip),%rax        # 1613e <g_678>
    de78:	48 89 85 50 fa ff ff 	mov    %rax,-0x5b0(%rbp)
    de7f:	48 8d 05 b8 82 00 00 	lea    0x82b8(%rip),%rax        # 1613e <g_678>
    de86:	48 89 85 58 fa ff ff 	mov    %rax,-0x5a8(%rbp)
    de8d:	48 8d 05 aa 82 00 00 	lea    0x82aa(%rip),%rax        # 1613e <g_678>
    de94:	48 89 85 60 fa ff ff 	mov    %rax,-0x5a0(%rbp)
    de9b:	48 8d 85 a8 e9 ff ff 	lea    -0x1658(%rbp),%rax
    dea2:	48 89 85 68 fa ff ff 	mov    %rax,-0x598(%rbp)
    dea9:	48 8d 05 90 83 00 00 	lea    0x8390(%rip),%rax        # 16240 <g_1832>
    deb0:	48 89 85 70 fa ff ff 	mov    %rax,-0x590(%rbp)
    deb7:	48 8d 05 80 82 00 00 	lea    0x8280(%rip),%rax        # 1613e <g_678>
    debe:	48 89 85 78 fa ff ff 	mov    %rax,-0x588(%rbp)
    dec5:	48 8d 05 72 82 00 00 	lea    0x8272(%rip),%rax        # 1613e <g_678>
    decc:	48 89 85 80 fa ff ff 	mov    %rax,-0x580(%rbp)
    ded3:	48 c7 85 88 fa ff ff 	movq   $0x0,-0x578(%rbp)
    deda:	00 00 00 00 
    dede:	48 8d 05 5b 83 00 00 	lea    0x835b(%rip),%rax        # 16240 <g_1832>
    dee5:	48 89 85 90 fa ff ff 	mov    %rax,-0x570(%rbp)
    deec:	48 c7 85 98 fa ff ff 	movq   $0x0,-0x568(%rbp)
    def3:	00 00 00 00 
    def7:	48 8d 05 42 83 00 00 	lea    0x8342(%rip),%rax        # 16240 <g_1832>
    defe:	48 89 85 a0 fa ff ff 	mov    %rax,-0x560(%rbp)
    df05:	48 8d 05 3a 83 00 00 	lea    0x833a(%rip),%rax        # 16246 <g_1832+0x6>
    df0c:	48 89 85 a8 fa ff ff 	mov    %rax,-0x558(%rbp)
    df13:	48 c7 85 b0 fa ff ff 	movq   $0x0,-0x550(%rbp)
    df1a:	00 00 00 00 
    df1e:	48 8d 05 21 83 00 00 	lea    0x8321(%rip),%rax        # 16246 <g_1832+0x6>
    df25:	48 89 85 b8 fa ff ff 	mov    %rax,-0x548(%rbp)
    df2c:	48 8d 05 0d 83 00 00 	lea    0x830d(%rip),%rax        # 16240 <g_1832>
    df33:	48 89 85 c0 fa ff ff 	mov    %rax,-0x540(%rbp)
    df3a:	48 8d 05 fd 81 00 00 	lea    0x81fd(%rip),%rax        # 1613e <g_678>
    df41:	48 89 85 c8 fa ff ff 	mov    %rax,-0x538(%rbp)
    df48:	48 8d 05 f1 82 00 00 	lea    0x82f1(%rip),%rax        # 16240 <g_1832>
    df4f:	48 89 85 d0 fa ff ff 	mov    %rax,-0x530(%rbp)
    df56:	48 8d 05 e1 81 00 00 	lea    0x81e1(%rip),%rax        # 1613e <g_678>
    df5d:	48 89 85 d8 fa ff ff 	mov    %rax,-0x528(%rbp)
    df64:	48 8d 85 a8 e9 ff ff 	lea    -0x1658(%rbp),%rax
    df6b:	48 89 85 e0 fa ff ff 	mov    %rax,-0x520(%rbp)
    df72:	48 8d 05 cf 82 00 00 	lea    0x82cf(%rip),%rax        # 16248 <g_1832+0x8>
    df79:	48 89 85 e8 fa ff ff 	mov    %rax,-0x518(%rbp)
    df80:	48 8d 05 b9 82 00 00 	lea    0x82b9(%rip),%rax        # 16240 <g_1832>
    df87:	48 89 85 f0 fa ff ff 	mov    %rax,-0x510(%rbp)
    df8e:	48 8d 85 a8 e9 ff ff 	lea    -0x1658(%rbp),%rax
    df95:	48 89 85 f8 fa ff ff 	mov    %rax,-0x508(%rbp)
    df9c:	48 8d 05 a5 82 00 00 	lea    0x82a5(%rip),%rax        # 16248 <g_1832+0x8>
    dfa3:	48 89 85 00 fb ff ff 	mov    %rax,-0x500(%rbp)
    dfaa:	48 c7 85 08 fb ff ff 	movq   $0x0,-0x4f8(%rbp)
    dfb1:	00 00 00 00 
    dfb5:	48 8d 05 84 82 00 00 	lea    0x8284(%rip),%rax        # 16240 <g_1832>
    dfbc:	48 89 85 10 fb ff ff 	mov    %rax,-0x4f0(%rbp)
    dfc3:	48 c7 85 18 fb ff ff 	movq   $0x0,-0x4e8(%rbp)
    dfca:	00 00 00 00 
    dfce:	48 8d 85 a8 e9 ff ff 	lea    -0x1658(%rbp),%rax
    dfd5:	48 89 85 20 fb ff ff 	mov    %rax,-0x4e0(%rbp)
    dfdc:	48 8d 05 67 82 00 00 	lea    0x8267(%rip),%rax        # 1624a <g_1832+0xa>
    dfe3:	48 89 85 28 fb ff ff 	mov    %rax,-0x4d8(%rbp)
    dfea:	48 8d 05 59 82 00 00 	lea    0x8259(%rip),%rax        # 1624a <g_1832+0xa>
    dff1:	48 89 85 30 fb ff ff 	mov    %rax,-0x4d0(%rbp)
    dff8:	48 8d 85 a8 e9 ff ff 	lea    -0x1658(%rbp),%rax
    dfff:	48 89 85 38 fb ff ff 	mov    %rax,-0x4c8(%rbp)
    e006:	48 c7 85 40 fb ff ff 	movq   $0x0,-0x4c0(%rbp)
    e00d:	00 00 00 00 
    e011:	48 8d 05 28 82 00 00 	lea    0x8228(%rip),%rax        # 16240 <g_1832>
    e018:	48 89 85 48 fb ff ff 	mov    %rax,-0x4b8(%rbp)
    e01f:	48 8d 85 a8 e9 ff ff 	lea    -0x1658(%rbp),%rax
    e026:	48 89 85 50 fb ff ff 	mov    %rax,-0x4b0(%rbp)
    e02d:	48 8d 85 a8 e9 ff ff 	lea    -0x1658(%rbp),%rax
    e034:	48 89 85 58 fb ff ff 	mov    %rax,-0x4a8(%rbp)
    e03b:	48 8d 05 fe 81 00 00 	lea    0x81fe(%rip),%rax        # 16240 <g_1832>
    e042:	48 89 85 60 fb ff ff 	mov    %rax,-0x4a0(%rbp)
    e049:	48 c7 85 68 fb ff ff 	movq   $0x0,-0x498(%rbp)
    e050:	00 00 00 00 
    e054:	48 8d 85 a8 e9 ff ff 	lea    -0x1658(%rbp),%rax
    e05b:	48 89 85 70 fb ff ff 	mov    %rax,-0x490(%rbp)
    e062:	48 8d 85 a8 e9 ff ff 	lea    -0x1658(%rbp),%rax
    e069:	48 89 85 78 fb ff ff 	mov    %rax,-0x488(%rbp)
    e070:	48 8d 05 c9 81 00 00 	lea    0x81c9(%rip),%rax        # 16240 <g_1832>
    e077:	48 89 85 80 fb ff ff 	mov    %rax,-0x480(%rbp)
    e07e:	48 8d 05 b9 80 00 00 	lea    0x80b9(%rip),%rax        # 1613e <g_678>
    e085:	48 89 85 88 fb ff ff 	mov    %rax,-0x478(%rbp)
    e08c:	48 c7 85 90 fb ff ff 	movq   $0x0,-0x470(%rbp)
    e093:	00 00 00 00 
    e097:	48 8d 05 a0 80 00 00 	lea    0x80a0(%rip),%rax        # 1613e <g_678>
    e09e:	48 89 85 98 fb ff ff 	mov    %rax,-0x468(%rbp)
    e0a5:	48 c7 85 a0 fb ff ff 	movq   $0x0,-0x460(%rbp)
    e0ac:	00 00 00 00 
    e0b0:	48 8d 85 a8 e9 ff ff 	lea    -0x1658(%rbp),%rax
    e0b7:	48 89 85 a8 fb ff ff 	mov    %rax,-0x458(%rbp)
    e0be:	48 c7 85 b0 fb ff ff 	movq   $0x0,-0x450(%rbp)
    e0c5:	00 00 00 00 
    e0c9:	48 8d 05 6e 80 00 00 	lea    0x806e(%rip),%rax        # 1613e <g_678>
    e0d0:	48 89 85 b8 fb ff ff 	mov    %rax,-0x448(%rbp)
    e0d7:	48 8d 05 62 81 00 00 	lea    0x8162(%rip),%rax        # 16240 <g_1832>
    e0de:	48 89 85 c0 fb ff ff 	mov    %rax,-0x440(%rbp)
    e0e5:	48 8d 05 5a 81 00 00 	lea    0x815a(%rip),%rax        # 16246 <g_1832+0x6>
    e0ec:	48 89 85 c8 fb ff ff 	mov    %rax,-0x438(%rbp)
    e0f3:	48 8d 05 44 80 00 00 	lea    0x8044(%rip),%rax        # 1613e <g_678>
    e0fa:	48 89 85 d0 fb ff ff 	mov    %rax,-0x430(%rbp)
    e101:	48 8d 85 a8 e9 ff ff 	lea    -0x1658(%rbp),%rax
    e108:	48 89 85 d8 fb ff ff 	mov    %rax,-0x428(%rbp)
    e10f:	0f b7 05 12 81 00 00 	movzwl 0x8112(%rip),%eax        # 16228 <g_1409>
    e116:	0f b7 c0             	movzwl %ax,%eax
    e119:	48 89 c6             	mov    %rax,%rsi
    e11c:	48 c7 c7 fe ff ff ff 	mov    $0xfffffffffffffffe,%rdi
    e123:	e8 19 87 ff ff       	callq  6841 <safe_add_func_int64_t_s_s>
    e128:	48 85 c0             	test   %rax,%rax
    e12b:	75 45                	jne    e172 <func_22+0x3f22>
    e12d:	48 8b 05 ac 98 00 00 	mov    0x98ac(%rip),%rax        # 179e0 <g_735>
    e134:	48 8b 95 58 ee ff ff 	mov    -0x11a8(%rbp),%rdx
    e13b:	48 89 10             	mov    %rdx,(%rax)
    e13e:	48 8b 00             	mov    (%rax),%rax
    e141:	48 39 85 f0 e9 ff ff 	cmp    %rax,-0x1610(%rbp)
    e148:	0f 95 c0             	setne  %al
    e14b:	0f b6 c0             	movzbl %al,%eax
    e14e:	8b 95 cc e7 ff ff    	mov    -0x1834(%rbp),%edx
    e154:	89 d2                	mov    %edx,%edx
    e156:	48 89 c6             	mov    %rax,%rsi
    e159:	48 89 d7             	mov    %rdx,%rdi
    e15c:	e8 cd 8e ff ff       	callq  702e <safe_add_func_uint64_t_u_u>
    e161:	48 89 05 60 7f 00 00 	mov    %rax,0x7f60(%rip)        # 160c8 <g_189+0x8>
    e168:	48 8b 05 59 7f 00 00 	mov    0x7f59(%rip),%rax        # 160c8 <g_189+0x8>
    e16f:	48 85 c0             	test   %rax,%rax
    e172:	48 8d 85 cc e7 ff ff 	lea    -0x1834(%rbp),%rax
    e179:	48 39 85 f8 e9 ff ff 	cmp    %rax,-0x1608(%rbp)
    e180:	0f 94 c0             	sete   %al
    e183:	0f b6 c0             	movzbl %al,%eax
    e186:	89 85 c4 e7 ff ff    	mov    %eax,-0x183c(%rbp)
    e18c:	8b 95 c4 e7 ff ff    	mov    -0x183c(%rbp),%edx
    e192:	48 8b 85 f8 e9 ff ff 	mov    -0x1608(%rbp),%rax
    e199:	8b 00                	mov    (%rax),%eax
    e19b:	21 c2                	and    %eax,%edx
    e19d:	48 8b 85 f8 e9 ff ff 	mov    -0x1608(%rbp),%rax
    e1a4:	89 10                	mov    %edx,(%rax)
    e1a6:	0f b7 85 c8 e7 ff ff 	movzwl -0x1838(%rbp),%eax
    e1ad:	0f b7 c0             	movzwl %ax,%eax
    e1b0:	be 02 00 00 00       	mov    $0x2,%esi
    e1b5:	89 c7                	mov    %eax,%edi
    e1b7:	e8 4a 8c ff ff       	callq  6e06 <safe_lshift_func_uint16_t_u_u>
    e1bc:	0f b7 85 ea e7 ff ff 	movzwl -0x1816(%rbp),%eax
    e1c3:	0f be d8             	movsbl %al,%ebx
    e1c6:	8b 05 d0 80 00 00    	mov    0x80d0(%rip),%eax        # 1629c <g_2023+0x3c>
    e1cc:	41 89 c7             	mov    %eax,%r15d
    e1cf:	48 8b 05 72 97 00 00 	mov    0x9772(%rip),%rax        # 17948 <g_591>
    e1d6:	4c 8b 28             	mov    (%rax),%r13
    e1d9:	8b 85 cc e7 ff ff    	mov    -0x1834(%rbp),%eax
    e1df:	44 0f be e0          	movsbl %al,%r12d
    e1e3:	0f b6 05 40 7f 00 00 	movzbl 0x7f40(%rip),%eax        # 1612a <g_383+0x4a>
    e1ea:	4c 0f be f0          	movsbq %al,%r14
    e1ee:	c7 85 b8 e9 ff ff f8 	movl   $0xfffffff8,-0x1648(%rbp)
    e1f5:	ff ff ff 
    e1f8:	8b 95 b8 e9 ff ff    	mov    -0x1648(%rbp),%edx
    e1fe:	48 8b 85 f8 e9 ff ff 	mov    -0x1608(%rbp),%rax
    e205:	89 10                	mov    %edx,(%rax)
    e207:	48 8b 85 08 ea ff ff 	mov    -0x15f8(%rbp),%rax
    e20e:	48 8b 00             	mov    (%rax),%rax
    e211:	48 8b 00             	mov    (%rax),%rax
    e214:	48 8b 10             	mov    (%rax),%rdx
    e217:	48 8b 05 3a 99 00 00 	mov    0x993a(%rip),%rax        # 17b58 <g_2002>
    e21e:	48 8b 00             	mov    (%rax),%rax
    e221:	48 8b 00             	mov    (%rax),%rax
    e224:	48 8b 00             	mov    (%rax),%rax
    e227:	48 39 c2             	cmp    %rax,%rdx
    e22a:	0f 95 c0             	setne  %al
    e22d:	0f b6 d0             	movzbl %al,%edx
    e230:	0f b6 05 36 7e 00 00 	movzbl 0x7e36(%rip),%eax        # 1606d <g_112>
    e237:	0f b6 c0             	movzbl %al,%eax
    e23a:	48 89 d6             	mov    %rdx,%rsi
    e23d:	48 89 c7             	mov    %rax,%rdi
    e240:	e8 63 86 ff ff       	callq  68a8 <safe_sub_func_int64_t_s_s>
    e245:	48 85 c0             	test   %rax,%rax
    e248:	0f 94 c0             	sete   %al
    e24b:	0f b6 d0             	movzbl %al,%edx
    e24e:	8b 85 c4 e7 ff ff    	mov    -0x183c(%rbp),%eax
    e254:	0f b7 c0             	movzwl %ax,%eax
    e257:	89 d6                	mov    %edx,%esi
    e259:	89 c7                	mov    %eax,%edi
    e25b:	e8 9f 8a ff ff       	callq  6cff <safe_add_func_uint16_t_u_u>
    e260:	0f b7 85 ea e7 ff ff 	movzwl -0x1816(%rbp),%eax
    e267:	4c 89 f6             	mov    %r14,%rsi
    e26a:	48 89 c7             	mov    %rax,%rdi
    e26d:	e8 42 87 ff ff       	callq  69b4 <safe_mod_func_int64_t_s_s>
    e272:	4c 89 f9             	mov    %r15,%rcx
    e275:	4c 89 ea             	mov    %r13,%rdx
    e278:	44 89 e6             	mov    %r12d,%esi
    e27b:	89 c7                	mov    %eax,%edi
    e27d:	e8 7e 04 00 00       	callq  e700 <func_35>
    e282:	48 8b 95 40 ea ff ff 	mov    -0x15c0(%rbp),%rdx
    e289:	48 89 02             	mov    %rax,(%rdx)
    e28c:	89 de                	mov    %ebx,%esi
    e28e:	bf 00 00 00 00       	mov    $0x0,%edi
    e293:	e8 d2 7f ff ff       	callq  626a <safe_div_func_int8_t_s_s>
    e298:	84 c0                	test   %al,%al
    e29a:	0f 9e c2             	setle  %dl
    e29d:	48 8b 05 7c 97 00 00 	mov    0x977c(%rip),%rax        # 17a20 <g_1119>
    e2a4:	0f b6 d2             	movzbl %dl,%edx
    e2a7:	89 10                	mov    %edx,(%rax)
    e2a9:	48 8d 05 80 7f 00 00 	lea    0x7f80(%rip),%rax        # 16230 <g_1501>
    e2b0:	0f b6 00             	movzbl (%rax),%eax
    e2b3:	0f b6 c0             	movzbl %al,%eax
    e2b6:	39 85 68 e8 ff ff    	cmp    %eax,-0x1798(%rbp)
    e2bc:	74 12                	je     e2d0 <func_22+0x4080>
    e2be:	0f b6 05 5b 7f 00 00 	movzbl 0x7f5b(%rip),%eax        # 16220 <g_1343>
    e2c5:	84 c0                	test   %al,%al
    e2c7:	74 07                	je     e2d0 <func_22+0x4080>
    e2c9:	b8 01 00 00 00       	mov    $0x1,%eax
    e2ce:	eb 05                	jmp    e2d5 <func_22+0x4085>
    e2d0:	b8 00 00 00 00       	mov    $0x0,%eax
    e2d5:	89 85 6c e8 ff ff    	mov    %eax,-0x1794(%rbp)
    e2db:	48 8d 05 4e 7f 00 00 	lea    0x7f4e(%rip),%rax        # 16230 <g_1501>
    e2e2:	0f b6 00             	movzbl (%rax),%eax
    e2e5:	0f b6 d8             	movzbl %al,%ebx
    e2e8:	0f b6 85 c0 e7 ff ff 	movzbl -0x1840(%rbp),%eax
    e2ef:	0f b6 d0             	movzbl %al,%edx
    e2f2:	48 8b 85 f8 e9 ff ff 	mov    -0x1608(%rbp),%rax
    e2f9:	8b 08                	mov    (%rax),%ecx
    e2fb:	48 8b 05 2e 96 00 00 	mov    0x962e(%rip),%rax        # 17930 <g_492>
    e302:	66 89 08             	mov    %cx,(%rax)
    e305:	0f b7 00             	movzwl (%rax),%eax
    e308:	0f bf c8             	movswl %ax,%ecx
    e30b:	8b 85 b8 e9 ff ff    	mov    -0x1648(%rbp),%eax
    e311:	31 c8                	xor    %ecx,%eax
    e313:	89 85 b8 e9 ff ff    	mov    %eax,-0x1648(%rbp)
    e319:	8b 85 b8 e9 ff ff    	mov    -0x1648(%rbp),%eax
    e31f:	98                   	cwtl   
    e320:	89 d6                	mov    %edx,%esi
    e322:	89 c7                	mov    %eax,%edi
    e324:	e8 2c 81 ff ff       	callq  6455 <safe_div_func_int16_t_s_s>
    e329:	be 05 00 00 00       	mov    $0x5,%esi
    e32e:	bf 01 00 00 00       	mov    $0x1,%edi
    e333:	e8 7c 86 ff ff       	callq  69b4 <safe_mod_func_int64_t_s_s>
    e338:	0f b6 c0             	movzbl %al,%eax
    e33b:	89 de                	mov    %ebx,%esi
    e33d:	89 c7                	mov    %eax,%edi
    e33f:	e8 7a 89 ff ff       	callq  6cbe <safe_rshift_func_uint8_t_u_u>
    e344:	0f b6 c0             	movzbl %al,%eax
    e347:	89 85 c4 e7 ff ff    	mov    %eax,-0x183c(%rbp)
    e34d:	0f b6 05 e5 7e 00 00 	movzbl 0x7ee5(%rip),%eax        # 16239 <g_1730>
    e354:	0f b6 c0             	movzbl %al,%eax
    e357:	be 06 00 00 00       	mov    $0x6,%esi
    e35c:	89 c7                	mov    %eax,%edi
    e35e:	e8 53 82 ff ff       	callq  65b6 <safe_add_func_int32_t_s_s>
    e363:	88 05 d0 7e 00 00    	mov    %al,0x7ed0(%rip)        # 16239 <g_1730>
    e369:	0f b6 05 c9 7e 00 00 	movzbl 0x7ec9(%rip),%eax        # 16239 <g_1730>
    e370:	3c 32                	cmp    $0x32,%al
    e372:	0f 84 de f6 ff ff    	je     da56 <func_22+0x3806>
    e378:	eb 0a                	jmp    e384 <func_22+0x4134>
    e37a:	48 83 bd b8 e7 ff ff 	cmpq   $0x0,-0x1848(%rbp)
    e381:	00 
    e382:	75 16                	jne    e39a <func_22+0x414a>
    e384:	83 85 2c e8 ff ff 01 	addl   $0x1,-0x17d4(%rbp)
    e38b:	83 bd 2c e8 ff ff 06 	cmpl   $0x6,-0x17d4(%rbp)
    e392:	0f 8f 42 f1 ff ff    	jg     d4da <func_22+0x328a>
    e398:	eb 01                	jmp    e39b <func_22+0x414b>
    e39a:	90                   	nop
    e39b:	c6 85 d8 e7 ff ff ff 	movb   $0xff,-0x1828(%rbp)
    e3a2:	e9 62 01 00 00       	jmpq   e509 <func_22+0x42b9>
    e3a7:	48 8d 05 1a 96 00 00 	lea    0x961a(%rip),%rax        # 179c8 <g_694+0x28>
    e3ae:	48 89 85 f0 f7 ff ff 	mov    %rax,-0x810(%rbp)
    e3b5:	48 8d 05 0c 96 00 00 	lea    0x960c(%rip),%rax        # 179c8 <g_694+0x28>
    e3bc:	48 89 85 f8 f7 ff ff 	mov    %rax,-0x808(%rbp)
    e3c3:	48 8d 05 fe 95 00 00 	lea    0x95fe(%rip),%rax        # 179c8 <g_694+0x28>
    e3ca:	48 89 85 00 f8 ff ff 	mov    %rax,-0x800(%rbp)
    e3d1:	48 8d 05 f0 95 00 00 	lea    0x95f0(%rip),%rax        # 179c8 <g_694+0x28>
    e3d8:	48 89 85 08 f8 ff ff 	mov    %rax,-0x7f8(%rbp)
    e3df:	48 8d 05 e2 95 00 00 	lea    0x95e2(%rip),%rax        # 179c8 <g_694+0x28>
    e3e6:	48 89 85 10 f8 ff ff 	mov    %rax,-0x7f0(%rbp)
    e3ed:	48 8d 05 d4 95 00 00 	lea    0x95d4(%rip),%rax        # 179c8 <g_694+0x28>
    e3f4:	48 89 85 18 f8 ff ff 	mov    %rax,-0x7e8(%rbp)
    e3fb:	0f b6 05 1e 7e 00 00 	movzbl 0x7e1e(%rip),%eax        # 16220 <g_1343>
    e402:	66 44 0f be e8       	movsbw %al,%r13w
    e407:	48 8b 05 22 95 00 00 	mov    0x9522(%rip),%rax        # 17930 <g_492>
    e40e:	0f b7 00             	movzwl (%rax),%eax
    e411:	0f bf d8             	movswl %ax,%ebx
    e414:	48 8b 85 f8 e9 ff ff 	mov    -0x1608(%rbp),%rax
    e41b:	44 8b 30             	mov    (%rax),%r14d
    e41e:	48 8b 85 f8 e9 ff ff 	mov    -0x1608(%rbp),%rax
    e425:	8b 00                	mov    (%rax),%eax
    e427:	44 0f bf e0          	movswl %ax,%r12d
    e42b:	48 8b 85 c0 e9 ff ff 	mov    -0x1640(%rbp),%rax
    e432:	48 8b 00             	mov    (%rax),%rax
    e435:	48 8b 10             	mov    (%rax),%rdx
    e438:	8b 02                	mov    (%rdx),%eax
    e43a:	8d 48 ff             	lea    -0x1(%rax),%ecx
    e43d:	89 0a                	mov    %ecx,(%rdx)
    e43f:	85 c0                	test   %eax,%eax
    e441:	48 8d 05 98 94 00 00 	lea    0x9498(%rip),%rax        # 178e0 <g_192>
    e448:	48 89 85 10 ea ff ff 	mov    %rax,-0x15f0(%rbp)
    e44f:	48 8b 85 10 ea ff ff 	mov    -0x15f0(%rbp),%rax
    e456:	48 3b 85 18 ea ff ff 	cmp    -0x15e8(%rbp),%rax
    e45d:	0f 94 c0             	sete   %al
    e460:	0f b6 c0             	movzbl %al,%eax
    e463:	be 0e 00 00 00       	mov    $0xe,%esi
    e468:	89 c7                	mov    %eax,%edi
    e46a:	e8 4f 89 ff ff       	callq  6dbe <safe_lshift_func_uint16_t_u_s>
    e46f:	98                   	cwtl   
    e470:	44 89 e6             	mov    %r12d,%esi
    e473:	89 c7                	mov    %eax,%edi
    e475:	e8 7b 7f ff ff       	callq  63f5 <safe_mul_func_int16_t_s_s>
    e47a:	66 85 c0             	test   %ax,%ax
    e47d:	74 11                	je     e490 <func_22+0x4240>
    e47f:	8b 05 c3 7b 00 00    	mov    0x7bc3(%rip),%eax        # 16048 <g_41+0x8>
    e485:	85 c0                	test   %eax,%eax
    e487:	74 07                	je     e490 <func_22+0x4240>
    e489:	b8 01 00 00 00       	mov    $0x1,%eax
    e48e:	eb 05                	jmp    e495 <func_22+0x4245>
    e490:	b8 00 00 00 00       	mov    $0x0,%eax
    e495:	44 39 f0             	cmp    %r14d,%eax
    e498:	0f 94 c0             	sete   %al
    e49b:	0f b6 c0             	movzbl %al,%eax
    e49e:	48 c7 c6 fa ff ff ff 	mov    $0xfffffffffffffffa,%rsi
    e4a5:	48 89 c7             	mov    %rax,%rdi
    e4a8:	e8 9e 8b ff ff       	callq  704b <safe_sub_func_uint64_t_u_u>
    e4ad:	44 0f bf e0          	movswl %ax,%r12d
    e4b1:	8b 05 8d 7c 00 00    	mov    0x7c8d(%rip),%eax        # 16144 <g_780>
    e4b7:	48 98                	cltq   
    e4b9:	48 89 c7             	mov    %rax,%rdi
    e4bc:	e8 58 8b ff ff       	callq  7019 <safe_unary_minus_func_uint64_t_u>
    e4c1:	98                   	cwtl   
    e4c2:	44 89 e6             	mov    %r12d,%esi
    e4c5:	89 c7                	mov    %eax,%edi
    e4c7:	e8 89 7f ff ff       	callq  6455 <safe_div_func_int16_t_s_s>
    e4cc:	98                   	cwtl   
    e4cd:	89 de                	mov    %ebx,%esi
    e4cf:	89 c7                	mov    %eax,%edi
    e4d1:	e8 54 80 ff ff       	callq  652a <safe_rshift_func_int16_t_s_s>
    e4d6:	66 41 39 c5          	cmp    %ax,%r13w
    e4da:	0f 9d c0             	setge  %al
    e4dd:	0f b6 d0             	movzbl %al,%edx
    e4e0:	0f b7 85 c8 e7 ff ff 	movzwl -0x1838(%rbp),%eax
    e4e7:	98                   	cwtl   
    e4e8:	39 c2                	cmp    %eax,%edx
    e4ea:	0f 9d c0             	setge  %al
    e4ed:	0f b6 d0             	movzbl %al,%edx
    e4f0:	48 8b 85 f8 e9 ff ff 	mov    -0x1608(%rbp),%rax
    e4f7:	89 10                	mov    %edx,(%rax)
    e4f9:	0f b6 85 d8 e7 ff ff 	movzbl -0x1828(%rbp),%eax
    e500:	83 c0 01             	add    $0x1,%eax
    e503:	88 85 d8 e7 ff ff    	mov    %al,-0x1828(%rbp)
    e509:	80 bd d8 e7 ff ff 08 	cmpb   $0x8,-0x1828(%rbp)
    e510:	0f 8f 91 fe ff ff    	jg     e3a7 <func_22+0x4157>
    e516:	8b 85 cc e7 ff ff    	mov    -0x1834(%rbp),%eax
    e51c:	48 8b 5d c8          	mov    -0x38(%rbp),%rbx
    e520:	64 48 33 1c 25 28 00 	xor    %fs:0x28,%rbx
    e527:	00 00 
    e529:	74 05                	je     e530 <func_22+0x42e0>
    e52b:	e8 40 7b ff ff       	callq  6070 <__stack_chk_fail@plt>
    e530:	48 81 c4 28 18 00 00 	add    $0x1828,%rsp
    e537:	5b                   	pop    %rbx
    e538:	41 5c                	pop    %r12
    e53a:	41 5d                	pop    %r13
    e53c:	41 5e                	pop    %r14
    e53e:	41 5f                	pop    %r15
    e540:	5d                   	pop    %rbp
    e541:	c3                   	retq   

000000000000e542 <func_29>:
    e542:	f3 0f 1e fa          	endbr64 
    e546:	55                   	push   %rbp
    e547:	48 89 e5             	mov    %rsp,%rbp
    e54a:	41 55                	push   %r13
    e54c:	41 54                	push   %r12
    e54e:	53                   	push   %rbx
    e54f:	48 81 ec 98 00 00 00 	sub    $0x98,%rsp
    e556:	48 89 bd 68 ff ff ff 	mov    %rdi,-0x98(%rbp)
    e55d:	89 d0                	mov    %edx,%eax
    e55f:	89 ca                	mov    %ecx,%edx
    e561:	44 89 c7             	mov    %r8d,%edi
    e564:	89 f1                	mov    %esi,%ecx
    e566:	88 8d 64 ff ff ff    	mov    %cl,-0x9c(%rbp)
    e56c:	66 89 85 60 ff ff ff 	mov    %ax,-0xa0(%rbp)
    e573:	89 d0                	mov    %edx,%eax
    e575:	88 85 5c ff ff ff    	mov    %al,-0xa4(%rbp)
    e57b:	89 f8                	mov    %edi,%eax
    e57d:	88 85 58 ff ff ff    	mov    %al,-0xa8(%rbp)
    e583:	64 48 8b 04 25 28 00 	mov    %fs:0x28,%rax
    e58a:	00 00 
    e58c:	48 89 45 d8          	mov    %rax,-0x28(%rbp)
    e590:	31 c0                	xor    %eax,%eax
    e592:	48 c7 45 90 f6 ff ff 	movq   $0xfffffffffffffff6,-0x70(%rbp)
    e599:	ff 
    e59a:	48 c7 45 98 f8 ff ff 	movq   $0xfffffffffffffff8,-0x68(%rbp)
    e5a1:	ff 
    e5a2:	48 c7 45 a0 f6 ff ff 	movq   $0xfffffffffffffff6,-0x60(%rbp)
    e5a9:	ff 
    e5aa:	48 c7 45 a8 f8 ff ff 	movq   $0xfffffffffffffff8,-0x58(%rbp)
    e5b1:	ff 
    e5b2:	48 c7 45 b0 f6 ff ff 	movq   $0xfffffffffffffff6,-0x50(%rbp)
    e5b9:	ff 
    e5ba:	48 c7 45 b8 f8 ff ff 	movq   $0xfffffffffffffff8,-0x48(%rbp)
    e5c1:	ff 
    e5c2:	48 c7 45 c0 f6 ff ff 	movq   $0xfffffffffffffff6,-0x40(%rbp)
    e5c9:	ff 
    e5ca:	48 c7 45 c8 f8 ff ff 	movq   $0xfffffffffffffff8,-0x38(%rbp)
    e5d1:	ff 
    e5d2:	48 c7 85 70 ff ff ff 	movq   $0x0,-0x90(%rbp)
    e5d9:	00 00 00 00 
    e5dd:	48 8d 85 70 ff ff ff 	lea    -0x90(%rbp),%rax
    e5e4:	48 89 85 78 ff ff ff 	mov    %rax,-0x88(%rbp)
    e5eb:	48 8d 85 78 ff ff ff 	lea    -0x88(%rbp),%rax
    e5f2:	48 89 45 88          	mov    %rax,-0x78(%rbp)
    e5f6:	48 c7 45 80 00 00 00 	movq   $0x0,-0x80(%rbp)
    e5fd:	00 
    e5fe:	b8 83 22 42 29       	mov    $0x29422283,%eax
    e603:	48 63 d8             	movslq %eax,%rbx
    e606:	48 83 7d 88 00       	cmpq   $0x0,-0x78(%rbp)
    e60b:	0f 94 c2             	sete   %dl
    e60e:	48 8b 05 1b 93 00 00 	mov    0x931b(%rip),%rax        # 17930 <g_492>
    e615:	0f b6 d2             	movzbl %dl,%edx
    e618:	66 89 10             	mov    %dx,(%rax)
    e61b:	0f b7 00             	movzwl (%rax),%eax
    e61e:	0f b7 d0             	movzwl %ax,%edx
    e621:	0f b7 85 60 ff ff ff 	movzwl -0xa0(%rbp),%eax
    e628:	89 d6                	mov    %edx,%esi
    e62a:	89 c7                	mov    %eax,%edi
    e62c:	e8 0c 87 ff ff       	callq  6d3d <safe_mul_func_uint16_t_u_u>
    e631:	41 89 c5             	mov    %eax,%r13d
    e634:	48 8b 45 98          	mov    -0x68(%rbp),%rax
    e638:	44 0f be e0          	movsbl %al,%r12d
    e63c:	0f be 85 58 ff ff ff 	movsbl -0xa8(%rbp),%eax
    e643:	be 07 00 00 00       	mov    $0x7,%esi
    e648:	89 c7                	mov    %eax,%edi
    e64a:	e8 db 7e ff ff       	callq  652a <safe_rshift_func_int16_t_s_s>
    e64f:	0f bf d0             	movswl %ax,%edx
    e652:	66 0f be 85 58 ff ff 	movsbw -0xa8(%rbp),%ax
    e659:	ff 
    e65a:	0f b7 c0             	movzwl %ax,%eax
    e65d:	89 d6                	mov    %edx,%esi
    e65f:	89 c7                	mov    %eax,%edi
    e661:	e8 a0 87 ff ff       	callq  6e06 <safe_lshift_func_uint16_t_u_u>
    e666:	48 8b 05 2b 93 00 00 	mov    0x932b(%rip),%rax        # 17998 <g_634>
    e66d:	48 8b 10             	mov    (%rax),%rdx
    e670:	48 8b 05 21 93 00 00 	mov    0x9321(%rip),%rax        # 17998 <g_634>
    e677:	48 8b 00             	mov    (%rax),%rax
    e67a:	0f b6 12             	movzbl (%rdx),%edx
    e67d:	88 10                	mov    %dl,(%rax)
    e67f:	0f b6 00             	movzbl (%rax),%eax
    e682:	0f be c0             	movsbl %al,%eax
    e685:	44 89 e6             	mov    %r12d,%esi
    e688:	89 c7                	mov    %eax,%edi
    e68a:	e8 a2 7b ff ff       	callq  6231 <safe_mod_func_int8_t_s_s>
    e68f:	44 31 e8             	xor    %r13d,%eax
    e692:	0f be c0             	movsbl %al,%eax
    e695:	48 8b 55 98          	mov    -0x68(%rbp),%rdx
    e699:	89 d7                	mov    %edx,%edi
    e69b:	48 8b 95 68 ff ff ff 	mov    -0x98(%rbp),%rdx
    e6a2:	48 89 d9             	mov    %rbx,%rcx
    e6a5:	89 c6                	mov    %eax,%esi
    e6a7:	e8 54 00 00 00       	callq  e700 <func_35>
    e6ac:	48 89 45 80          	mov    %rax,-0x80(%rbp)
    e6b0:	48 8b 05 09 92 00 00 	mov    0x9209(%rip),%rax        # 178c0 <g_40>
    e6b7:	8b 08                	mov    (%rax),%ecx
    e6b9:	48 8b 15 58 93 00 00 	mov    0x9358(%rip),%rdx        # 17a18 <g_1096>
    e6c0:	48 8b 12             	mov    (%rdx),%rdx
    e6c3:	48 8b 12             	mov    (%rdx),%rdx
    e6c6:	48 8b 32             	mov    (%rdx),%rsi
    e6c9:	48 8d 55 80          	lea    -0x80(%rbp),%rdx
    e6cd:	48 39 d6             	cmp    %rdx,%rsi
    e6d0:	0f 94 c2             	sete   %dl
    e6d3:	0f b6 d2             	movzbl %dl,%edx
    e6d6:	21 ca                	and    %ecx,%edx
    e6d8:	89 10                	mov    %edx,(%rax)
    e6da:	48 8b 45 90          	mov    -0x70(%rbp),%rax
    e6de:	48 8b 5d d8          	mov    -0x28(%rbp),%rbx
    e6e2:	64 48 33 1c 25 28 00 	xor    %fs:0x28,%rbx
    e6e9:	00 00 
    e6eb:	74 05                	je     e6f2 <func_29+0x1b0>
    e6ed:	e8 7e 79 ff ff       	callq  6070 <__stack_chk_fail@plt>
    e6f2:	48 81 c4 98 00 00 00 	add    $0x98,%rsp
    e6f9:	5b                   	pop    %rbx
    e6fa:	41 5c                	pop    %r12
    e6fc:	41 5d                	pop    %r13
    e6fe:	5d                   	pop    %rbp
    e6ff:	c3                   	retq   

000000000000e700 <func_35>:
    e700:	f3 0f 1e fa          	endbr64 
    e704:	55                   	push   %rbp
    e705:	48 89 e5             	mov    %rsp,%rbp
    e708:	48 81 ec 00 10 00 00 	sub    $0x1000,%rsp
    e70f:	48 83 0c 24 00       	orq    $0x0,(%rsp)
    e714:	48 81 ec b0 02 00 00 	sub    $0x2b0,%rsp
    e71b:	89 bd 6c ed ff ff    	mov    %edi,-0x1294(%rbp)
    e721:	89 f0                	mov    %esi,%eax
    e723:	48 89 95 60 ed ff ff 	mov    %rdx,-0x12a0(%rbp)
    e72a:	48 89 8d 58 ed ff ff 	mov    %rcx,-0x12a8(%rbp)
    e731:	88 85 68 ed ff ff    	mov    %al,-0x1298(%rbp)
    e737:	64 48 8b 04 25 28 00 	mov    %fs:0x28,%rax
    e73e:	00 00 
    e740:	48 89 45 f8          	mov    %rax,-0x8(%rbp)
    e744:	31 c0                	xor    %eax,%eax
    e746:	c7 85 88 ed ff ff ff 	movl   $0xffffffff,-0x1278(%rbp)
    e74d:	ff ff ff 
    e750:	48 c7 85 b8 ed ff ff 	movq   $0x0,-0x1248(%rbp)
    e757:	00 00 00 00 
    e75b:	48 c7 85 c0 ed ff ff 	movq   $0x0,-0x1240(%rbp)
    e762:	00 00 00 00 
    e766:	c7 85 8c ed ff ff 07 	movl   $0x7,-0x1274(%rbp)
    e76d:	00 00 00 
    e770:	c7 85 78 ed ff ff 5e 	movl   $0x8cbec45e,-0x1288(%rbp)
    e777:	c4 be 8c 
    e77a:	66 c7 85 74 ed ff ff 	movw   $0x0,-0x128c(%rbp)
    e781:	00 00 
    e783:	48 8d 05 3e 91 00 00 	lea    0x913e(%rip),%rax        # 178c8 <g_105>
    e78a:	48 89 85 98 ed ff ff 	mov    %rax,-0x1268(%rbp)
    e791:	48 8d 85 98 ed ff ff 	lea    -0x1268(%rbp),%rax
    e798:	48 89 85 c8 ed ff ff 	mov    %rax,-0x1238(%rbp)
    e79f:	48 8d 85 24 ee ff ff 	lea    -0x11dc(%rbp),%rax
    e7a6:	48 83 c0 08          	add    $0x8,%rax
    e7aa:	48 89 85 d0 ed ff ff 	mov    %rax,-0x1230(%rbp)
    e7b1:	48 8d 05 e8 91 00 00 	lea    0x91e8(%rip),%rax        # 179a0 <g_694>
    e7b8:	48 89 85 a0 ed ff ff 	mov    %rax,-0x1260(%rbp)
    e7bf:	48 8d 85 a0 ed ff ff 	lea    -0x1260(%rbp),%rax
    e7c6:	48 89 85 d8 ed ff ff 	mov    %rax,-0x1228(%rbp)
    e7cd:	48 8d 85 78 ed ff ff 	lea    -0x1288(%rbp),%rax
    e7d4:	48 89 85 e0 ed ff ff 	mov    %rax,-0x1220(%rbp)
    e7db:	48 8d 85 50 ee ff ff 	lea    -0x11b0(%rbp),%rax
    e7e2:	48 89 85 a8 ed ff ff 	mov    %rax,-0x1258(%rbp)
    e7e9:	48 c7 85 30 f2 ff ff 	movq   $0x0,-0xdd0(%rbp)
    e7f0:	00 00 00 00 
    e7f4:	48 8d 85 a8 ed ff ff 	lea    -0x1258(%rbp),%rax
    e7fb:	48 89 85 38 f2 ff ff 	mov    %rax,-0xdc8(%rbp)
    e802:	48 c7 85 40 f2 ff ff 	movq   $0x0,-0xdc0(%rbp)
    e809:	00 00 00 00 
    e80d:	48 8d 85 a8 ed ff ff 	lea    -0x1258(%rbp),%rax
    e814:	48 89 85 48 f2 ff ff 	mov    %rax,-0xdb8(%rbp)
    e81b:	48 c7 85 50 f2 ff ff 	movq   $0x0,-0xdb0(%rbp)
    e822:	00 00 00 00 
    e826:	48 8d 85 a8 ed ff ff 	lea    -0x1258(%rbp),%rax
    e82d:	48 89 85 58 f2 ff ff 	mov    %rax,-0xda8(%rbp)
    e834:	48 8d 85 a8 ed ff ff 	lea    -0x1258(%rbp),%rax
    e83b:	48 89 85 60 f2 ff ff 	mov    %rax,-0xda0(%rbp)
    e842:	48 c7 85 68 f2 ff ff 	movq   $0x0,-0xd98(%rbp)
    e849:	00 00 00 00 
    e84d:	48 c7 85 70 f2 ff ff 	movq   $0x0,-0xd90(%rbp)
    e854:	00 00 00 00 
    e858:	48 8d 85 a8 ed ff ff 	lea    -0x1258(%rbp),%rax
    e85f:	48 89 85 78 f2 ff ff 	mov    %rax,-0xd88(%rbp)
    e866:	48 8d 85 a8 ed ff ff 	lea    -0x1258(%rbp),%rax
    e86d:	48 89 85 80 f2 ff ff 	mov    %rax,-0xd80(%rbp)
    e874:	48 8d 85 a8 ed ff ff 	lea    -0x1258(%rbp),%rax
    e87b:	48 89 85 88 f2 ff ff 	mov    %rax,-0xd78(%rbp)
    e882:	48 8d 85 a8 ed ff ff 	lea    -0x1258(%rbp),%rax
    e889:	48 89 85 90 f2 ff ff 	mov    %rax,-0xd70(%rbp)
    e890:	48 8d 85 a8 ed ff ff 	lea    -0x1258(%rbp),%rax
    e897:	48 89 85 98 f2 ff ff 	mov    %rax,-0xd68(%rbp)
    e89e:	48 8d 85 a8 ed ff ff 	lea    -0x1258(%rbp),%rax
    e8a5:	48 89 85 a0 f2 ff ff 	mov    %rax,-0xd60(%rbp)
    e8ac:	48 8d 85 a8 ed ff ff 	lea    -0x1258(%rbp),%rax
    e8b3:	48 89 85 a8 f2 ff ff 	mov    %rax,-0xd58(%rbp)
    e8ba:	48 c7 85 b0 f2 ff ff 	movq   $0x0,-0xd50(%rbp)
    e8c1:	00 00 00 00 
    e8c5:	48 c7 85 b8 f2 ff ff 	movq   $0x0,-0xd48(%rbp)
    e8cc:	00 00 00 00 
    e8d0:	48 8d 85 a8 ed ff ff 	lea    -0x1258(%rbp),%rax
    e8d7:	48 89 85 c0 f2 ff ff 	mov    %rax,-0xd40(%rbp)
    e8de:	48 8d 85 a8 ed ff ff 	lea    -0x1258(%rbp),%rax
    e8e5:	48 89 85 c8 f2 ff ff 	mov    %rax,-0xd38(%rbp)
    e8ec:	48 c7 85 d0 f2 ff ff 	movq   $0x0,-0xd30(%rbp)
    e8f3:	00 00 00 00 
    e8f7:	48 8d 85 a8 ed ff ff 	lea    -0x1258(%rbp),%rax
    e8fe:	48 89 85 d8 f2 ff ff 	mov    %rax,-0xd28(%rbp)
    e905:	48 c7 85 e0 f2 ff ff 	movq   $0x0,-0xd20(%rbp)
    e90c:	00 00 00 00 
    e910:	48 8d 85 a8 ed ff ff 	lea    -0x1258(%rbp),%rax
    e917:	48 89 85 e8 f2 ff ff 	mov    %rax,-0xd18(%rbp)
    e91e:	48 c7 85 f0 f2 ff ff 	movq   $0x0,-0xd10(%rbp)
    e925:	00 00 00 00 
    e929:	48 8d 85 a8 ed ff ff 	lea    -0x1258(%rbp),%rax
    e930:	48 89 85 f8 f2 ff ff 	mov    %rax,-0xd08(%rbp)
    e937:	48 8d 85 a8 ed ff ff 	lea    -0x1258(%rbp),%rax
    e93e:	48 89 85 00 f3 ff ff 	mov    %rax,-0xd00(%rbp)
    e945:	48 c7 85 08 f3 ff ff 	movq   $0x0,-0xcf8(%rbp)
    e94c:	00 00 00 00 
    e950:	48 c7 85 10 f3 ff ff 	movq   $0x0,-0xcf0(%rbp)
    e957:	00 00 00 00 
    e95b:	48 8d 85 a8 ed ff ff 	lea    -0x1258(%rbp),%rax
    e962:	48 89 85 18 f3 ff ff 	mov    %rax,-0xce8(%rbp)
    e969:	48 8d 85 a8 ed ff ff 	lea    -0x1258(%rbp),%rax
    e970:	48 89 85 20 f3 ff ff 	mov    %rax,-0xce0(%rbp)
    e977:	48 8d 85 a8 ed ff ff 	lea    -0x1258(%rbp),%rax
    e97e:	48 89 85 28 f3 ff ff 	mov    %rax,-0xcd8(%rbp)
    e985:	48 8d 85 a8 ed ff ff 	lea    -0x1258(%rbp),%rax
    e98c:	48 89 85 30 f3 ff ff 	mov    %rax,-0xcd0(%rbp)
    e993:	48 8d 85 a8 ed ff ff 	lea    -0x1258(%rbp),%rax
    e99a:	48 89 85 38 f3 ff ff 	mov    %rax,-0xcc8(%rbp)
    e9a1:	48 8d 85 a8 ed ff ff 	lea    -0x1258(%rbp),%rax
    e9a8:	48 89 85 40 f3 ff ff 	mov    %rax,-0xcc0(%rbp)
    e9af:	48 8d 85 a8 ed ff ff 	lea    -0x1258(%rbp),%rax
    e9b6:	48 89 85 48 f3 ff ff 	mov    %rax,-0xcb8(%rbp)
    e9bd:	48 c7 85 50 f3 ff ff 	movq   $0x0,-0xcb0(%rbp)
    e9c4:	00 00 00 00 
    e9c8:	48 c7 85 58 f3 ff ff 	movq   $0x0,-0xca8(%rbp)
    e9cf:	00 00 00 00 
    e9d3:	48 8d 85 a8 ed ff ff 	lea    -0x1258(%rbp),%rax
    e9da:	48 89 85 60 f3 ff ff 	mov    %rax,-0xca0(%rbp)
    e9e1:	48 8d 85 a8 ed ff ff 	lea    -0x1258(%rbp),%rax
    e9e8:	48 89 85 68 f3 ff ff 	mov    %rax,-0xc98(%rbp)
    e9ef:	48 c7 85 70 f3 ff ff 	movq   $0x0,-0xc90(%rbp)
    e9f6:	00 00 00 00 
    e9fa:	48 8d 85 a8 ed ff ff 	lea    -0x1258(%rbp),%rax
    ea01:	48 89 85 78 f3 ff ff 	mov    %rax,-0xc88(%rbp)
    ea08:	48 c7 85 80 f3 ff ff 	movq   $0x0,-0xc80(%rbp)
    ea0f:	00 00 00 00 
    ea13:	48 8d 85 a8 ed ff ff 	lea    -0x1258(%rbp),%rax
    ea1a:	48 89 85 88 f3 ff ff 	mov    %rax,-0xc78(%rbp)
    ea21:	48 c7 85 90 f3 ff ff 	movq   $0x0,-0xc70(%rbp)
    ea28:	00 00 00 00 
    ea2c:	48 8d 85 a8 ed ff ff 	lea    -0x1258(%rbp),%rax
    ea33:	48 89 85 98 f3 ff ff 	mov    %rax,-0xc68(%rbp)
    ea3a:	48 8d 85 a8 ed ff ff 	lea    -0x1258(%rbp),%rax
    ea41:	48 89 85 a0 f3 ff ff 	mov    %rax,-0xc60(%rbp)
    ea48:	48 c7 85 a8 f3 ff ff 	movq   $0x0,-0xc58(%rbp)
    ea4f:	00 00 00 00 
    ea53:	48 c7 85 b0 f3 ff ff 	movq   $0x0,-0xc50(%rbp)
    ea5a:	00 00 00 00 
    ea5e:	48 8d 85 a8 ed ff ff 	lea    -0x1258(%rbp),%rax
    ea65:	48 89 85 b8 f3 ff ff 	mov    %rax,-0xc48(%rbp)
    ea6c:	48 8d 85 a8 ed ff ff 	lea    -0x1258(%rbp),%rax
    ea73:	48 89 85 c0 f3 ff ff 	mov    %rax,-0xc40(%rbp)
    ea7a:	48 8d 85 a8 ed ff ff 	lea    -0x1258(%rbp),%rax
    ea81:	48 89 85 c8 f3 ff ff 	mov    %rax,-0xc38(%rbp)
    ea88:	48 8d 85 a8 ed ff ff 	lea    -0x1258(%rbp),%rax
    ea8f:	48 89 85 d0 f3 ff ff 	mov    %rax,-0xc30(%rbp)
    ea96:	48 8d 85 a8 ed ff ff 	lea    -0x1258(%rbp),%rax
    ea9d:	48 89 85 d8 f3 ff ff 	mov    %rax,-0xc28(%rbp)
    eaa4:	48 8d 85 a8 ed ff ff 	lea    -0x1258(%rbp),%rax
    eaab:	48 89 85 e0 f3 ff ff 	mov    %rax,-0xc20(%rbp)
    eab2:	48 8d 85 a8 ed ff ff 	lea    -0x1258(%rbp),%rax
    eab9:	48 89 85 e8 f3 ff ff 	mov    %rax,-0xc18(%rbp)
    eac0:	48 c7 85 f0 f3 ff ff 	movq   $0x0,-0xc10(%rbp)
    eac7:	00 00 00 00 
    eacb:	48 c7 85 f8 f3 ff ff 	movq   $0x0,-0xc08(%rbp)
    ead2:	00 00 00 00 
    ead6:	48 8d 85 a8 ed ff ff 	lea    -0x1258(%rbp),%rax
    eadd:	48 89 85 00 f4 ff ff 	mov    %rax,-0xc00(%rbp)
    eae4:	48 8d 85 a8 ed ff ff 	lea    -0x1258(%rbp),%rax
    eaeb:	48 89 85 08 f4 ff ff 	mov    %rax,-0xbf8(%rbp)
    eaf2:	48 c7 85 10 f4 ff ff 	movq   $0x0,-0xbf0(%rbp)
    eaf9:	00 00 00 00 
    eafd:	48 8d 85 a8 ed ff ff 	lea    -0x1258(%rbp),%rax
    eb04:	48 89 85 18 f4 ff ff 	mov    %rax,-0xbe8(%rbp)
    eb0b:	48 c7 85 20 f4 ff ff 	movq   $0x0,-0xbe0(%rbp)
    eb12:	00 00 00 00 
    eb16:	48 8d 85 a8 ed ff ff 	lea    -0x1258(%rbp),%rax
    eb1d:	48 89 85 28 f4 ff ff 	mov    %rax,-0xbd8(%rbp)
    eb24:	48 c7 85 30 f4 ff ff 	movq   $0x0,-0xbd0(%rbp)
    eb2b:	00 00 00 00 
    eb2f:	48 8d 85 a8 ed ff ff 	lea    -0x1258(%rbp),%rax
    eb36:	48 89 85 38 f4 ff ff 	mov    %rax,-0xbc8(%rbp)
    eb3d:	48 8d 85 a8 ed ff ff 	lea    -0x1258(%rbp),%rax
    eb44:	48 89 85 40 f4 ff ff 	mov    %rax,-0xbc0(%rbp)
    eb4b:	48 c7 85 48 f4 ff ff 	movq   $0x0,-0xbb8(%rbp)
    eb52:	00 00 00 00 
    eb56:	48 c7 85 50 f4 ff ff 	movq   $0x0,-0xbb0(%rbp)
    eb5d:	00 00 00 00 
    eb61:	48 8d 85 a8 ed ff ff 	lea    -0x1258(%rbp),%rax
    eb68:	48 89 85 58 f4 ff ff 	mov    %rax,-0xba8(%rbp)
    eb6f:	48 8d 85 a8 ed ff ff 	lea    -0x1258(%rbp),%rax
    eb76:	48 89 85 60 f4 ff ff 	mov    %rax,-0xba0(%rbp)
    eb7d:	48 8d 85 a8 ed ff ff 	lea    -0x1258(%rbp),%rax
    eb84:	48 89 85 68 f4 ff ff 	mov    %rax,-0xb98(%rbp)
    eb8b:	48 8d 85 a8 ed ff ff 	lea    -0x1258(%rbp),%rax
    eb92:	48 89 85 70 f4 ff ff 	mov    %rax,-0xb90(%rbp)
    eb99:	48 8d 85 a8 ed ff ff 	lea    -0x1258(%rbp),%rax
    eba0:	48 89 85 78 f4 ff ff 	mov    %rax,-0xb88(%rbp)
    eba7:	48 8d 85 a8 ed ff ff 	lea    -0x1258(%rbp),%rax
    ebae:	48 89 85 80 f4 ff ff 	mov    %rax,-0xb80(%rbp)
    ebb5:	48 8d 85 a8 ed ff ff 	lea    -0x1258(%rbp),%rax
    ebbc:	48 89 85 88 f4 ff ff 	mov    %rax,-0xb78(%rbp)
    ebc3:	48 c7 85 90 f4 ff ff 	movq   $0x0,-0xb70(%rbp)
    ebca:	00 00 00 00 
    ebce:	48 c7 85 98 f4 ff ff 	movq   $0x0,-0xb68(%rbp)
    ebd5:	00 00 00 00 
    ebd9:	48 8d 85 a8 ed ff ff 	lea    -0x1258(%rbp),%rax
    ebe0:	48 89 85 a0 f4 ff ff 	mov    %rax,-0xb60(%rbp)
    ebe7:	48 8d 85 a8 ed ff ff 	lea    -0x1258(%rbp),%rax
    ebee:	48 89 85 a8 f4 ff ff 	mov    %rax,-0xb58(%rbp)
    ebf5:	48 c7 85 b0 f4 ff ff 	movq   $0x0,-0xb50(%rbp)
    ebfc:	00 00 00 00 
    ec00:	48 8d 85 a8 ed ff ff 	lea    -0x1258(%rbp),%rax
    ec07:	48 89 85 b8 f4 ff ff 	mov    %rax,-0xb48(%rbp)
    ec0e:	48 c7 85 c0 f4 ff ff 	movq   $0x0,-0xb40(%rbp)
    ec15:	00 00 00 00 
    ec19:	48 8d 85 a8 ed ff ff 	lea    -0x1258(%rbp),%rax
    ec20:	48 89 85 c8 f4 ff ff 	mov    %rax,-0xb38(%rbp)
    ec27:	48 c7 85 d0 f4 ff ff 	movq   $0x0,-0xb30(%rbp)
    ec2e:	00 00 00 00 
    ec32:	48 8d 85 a8 ed ff ff 	lea    -0x1258(%rbp),%rax
    ec39:	48 89 85 d8 f4 ff ff 	mov    %rax,-0xb28(%rbp)
    ec40:	48 8d 85 a8 ed ff ff 	lea    -0x1258(%rbp),%rax
    ec47:	48 89 85 e0 f4 ff ff 	mov    %rax,-0xb20(%rbp)
    ec4e:	48 c7 85 e8 f4 ff ff 	movq   $0x0,-0xb18(%rbp)
    ec55:	00 00 00 00 
    ec59:	48 c7 85 f0 f4 ff ff 	movq   $0x0,-0xb10(%rbp)
    ec60:	00 00 00 00 
    ec64:	48 8d 85 a8 ed ff ff 	lea    -0x1258(%rbp),%rax
    ec6b:	48 89 85 f8 f4 ff ff 	mov    %rax,-0xb08(%rbp)
    ec72:	48 8d 85 a8 ed ff ff 	lea    -0x1258(%rbp),%rax
    ec79:	48 89 85 00 f5 ff ff 	mov    %rax,-0xb00(%rbp)
    ec80:	48 8d 85 a8 ed ff ff 	lea    -0x1258(%rbp),%rax
    ec87:	48 89 85 08 f5 ff ff 	mov    %rax,-0xaf8(%rbp)
    ec8e:	48 8d 85 a8 ed ff ff 	lea    -0x1258(%rbp),%rax
    ec95:	48 89 85 10 f5 ff ff 	mov    %rax,-0xaf0(%rbp)
    ec9c:	48 8d 85 a8 ed ff ff 	lea    -0x1258(%rbp),%rax
    eca3:	48 89 85 18 f5 ff ff 	mov    %rax,-0xae8(%rbp)
    ecaa:	48 8d 85 a8 ed ff ff 	lea    -0x1258(%rbp),%rax
    ecb1:	48 89 85 20 f5 ff ff 	mov    %rax,-0xae0(%rbp)
    ecb8:	48 8d 85 a8 ed ff ff 	lea    -0x1258(%rbp),%rax
    ecbf:	48 89 85 28 f5 ff ff 	mov    %rax,-0xad8(%rbp)
    ecc6:	48 c7 85 30 f5 ff ff 	movq   $0x0,-0xad0(%rbp)
    eccd:	00 00 00 00 
    ecd1:	48 c7 85 38 f5 ff ff 	movq   $0x0,-0xac8(%rbp)
    ecd8:	00 00 00 00 
    ecdc:	48 8d 85 a8 ed ff ff 	lea    -0x1258(%rbp),%rax
    ece3:	48 89 85 40 f5 ff ff 	mov    %rax,-0xac0(%rbp)
    ecea:	48 8d 85 a8 ed ff ff 	lea    -0x1258(%rbp),%rax
    ecf1:	48 89 85 48 f5 ff ff 	mov    %rax,-0xab8(%rbp)
    ecf8:	48 c7 85 50 f5 ff ff 	movq   $0x0,-0xab0(%rbp)
    ecff:	00 00 00 00 
    ed03:	48 8d 85 a8 ed ff ff 	lea    -0x1258(%rbp),%rax
    ed0a:	48 89 85 58 f5 ff ff 	mov    %rax,-0xaa8(%rbp)
    ed11:	48 c7 85 60 f5 ff ff 	movq   $0x0,-0xaa0(%rbp)
    ed18:	00 00 00 00 
    ed1c:	48 8d 85 a8 ed ff ff 	lea    -0x1258(%rbp),%rax
    ed23:	48 89 85 68 f5 ff ff 	mov    %rax,-0xa98(%rbp)
    ed2a:	48 c7 85 70 f5 ff ff 	movq   $0x0,-0xa90(%rbp)
    ed31:	00 00 00 00 
    ed35:	48 8d 85 a8 ed ff ff 	lea    -0x1258(%rbp),%rax
    ed3c:	48 89 85 78 f5 ff ff 	mov    %rax,-0xa88(%rbp)
    ed43:	48 8d 85 a8 ed ff ff 	lea    -0x1258(%rbp),%rax
    ed4a:	48 89 85 80 f5 ff ff 	mov    %rax,-0xa80(%rbp)
    ed51:	48 c7 85 88 f5 ff ff 	movq   $0x0,-0xa78(%rbp)
    ed58:	00 00 00 00 
    ed5c:	48 c7 85 90 f5 ff ff 	movq   $0x0,-0xa70(%rbp)
    ed63:	00 00 00 00 
    ed67:	48 8d 85 a8 ed ff ff 	lea    -0x1258(%rbp),%rax
    ed6e:	48 89 85 98 f5 ff ff 	mov    %rax,-0xa68(%rbp)
    ed75:	48 8d 85 a8 ed ff ff 	lea    -0x1258(%rbp),%rax
    ed7c:	48 89 85 a0 f5 ff ff 	mov    %rax,-0xa60(%rbp)
    ed83:	48 8d 85 a8 ed ff ff 	lea    -0x1258(%rbp),%rax
    ed8a:	48 89 85 a8 f5 ff ff 	mov    %rax,-0xa58(%rbp)
    ed91:	48 8d 85 a8 ed ff ff 	lea    -0x1258(%rbp),%rax
    ed98:	48 89 85 b0 f5 ff ff 	mov    %rax,-0xa50(%rbp)
    ed9f:	48 8d 85 a8 ed ff ff 	lea    -0x1258(%rbp),%rax
    eda6:	48 89 85 b8 f5 ff ff 	mov    %rax,-0xa48(%rbp)
    edad:	48 8d 85 a8 ed ff ff 	lea    -0x1258(%rbp),%rax
    edb4:	48 89 85 c0 f5 ff ff 	mov    %rax,-0xa40(%rbp)
    edbb:	48 8d 85 a8 ed ff ff 	lea    -0x1258(%rbp),%rax
    edc2:	48 89 85 c8 f5 ff ff 	mov    %rax,-0xa38(%rbp)
    edc9:	48 c7 85 d0 f5 ff ff 	movq   $0x0,-0xa30(%rbp)
    edd0:	00 00 00 00 
    edd4:	48 8d 85 a8 ed ff ff 	lea    -0x1258(%rbp),%rax
    eddb:	48 89 85 d8 f5 ff ff 	mov    %rax,-0xa28(%rbp)
    ede2:	48 c7 85 e0 f5 ff ff 	movq   $0x0,-0xa20(%rbp)
    ede9:	00 00 00 00 
    eded:	48 8d 85 a8 ed ff ff 	lea    -0x1258(%rbp),%rax
    edf4:	48 89 85 e8 f5 ff ff 	mov    %rax,-0xa18(%rbp)
    edfb:	48 8d 85 a8 ed ff ff 	lea    -0x1258(%rbp),%rax
    ee02:	48 89 85 f0 f5 ff ff 	mov    %rax,-0xa10(%rbp)
    ee09:	48 c7 85 f8 f5 ff ff 	movq   $0x0,-0xa08(%rbp)
    ee10:	00 00 00 00 
    ee14:	48 8d 85 a8 ed ff ff 	lea    -0x1258(%rbp),%rax
    ee1b:	48 89 85 00 f6 ff ff 	mov    %rax,-0xa00(%rbp)
    ee22:	48 c7 85 08 f6 ff ff 	movq   $0x0,-0x9f8(%rbp)
    ee29:	00 00 00 00 
    ee2d:	48 8d 85 a8 ed ff ff 	lea    -0x1258(%rbp),%rax
    ee34:	48 89 85 10 f6 ff ff 	mov    %rax,-0x9f0(%rbp)
    ee3b:	48 c7 85 18 f6 ff ff 	movq   $0x0,-0x9e8(%rbp)
    ee42:	00 00 00 00 
    ee46:	48 c7 85 20 f6 ff ff 	movq   $0x0,-0x9e0(%rbp)
    ee4d:	00 00 00 00 
    ee51:	48 8d 85 a8 ed ff ff 	lea    -0x1258(%rbp),%rax
    ee58:	48 89 85 28 f6 ff ff 	mov    %rax,-0x9d8(%rbp)
    ee5f:	48 8d 85 a8 ed ff ff 	lea    -0x1258(%rbp),%rax
    ee66:	48 89 85 30 f6 ff ff 	mov    %rax,-0x9d0(%rbp)
    ee6d:	48 c7 85 38 f6 ff ff 	movq   $0x0,-0x9c8(%rbp)
    ee74:	00 00 00 00 
    ee78:	48 8d 85 a8 ed ff ff 	lea    -0x1258(%rbp),%rax
    ee7f:	48 89 85 40 f6 ff ff 	mov    %rax,-0x9c0(%rbp)
    ee86:	48 c7 85 48 f6 ff ff 	movq   $0x0,-0x9b8(%rbp)
    ee8d:	00 00 00 00 
    ee91:	48 c7 85 50 f6 ff ff 	movq   $0x0,-0x9b0(%rbp)
    ee98:	00 00 00 00 
    ee9c:	48 c7 85 58 f6 ff ff 	movq   $0x0,-0x9a8(%rbp)
    eea3:	00 00 00 00 
    eea7:	48 8d 85 a8 ed ff ff 	lea    -0x1258(%rbp),%rax
    eeae:	48 89 85 60 f6 ff ff 	mov    %rax,-0x9a0(%rbp)
    eeb5:	48 8d 85 a8 ed ff ff 	lea    -0x1258(%rbp),%rax
    eebc:	48 89 85 68 f6 ff ff 	mov    %rax,-0x998(%rbp)
    eec3:	48 8d 85 a8 ed ff ff 	lea    -0x1258(%rbp),%rax
    eeca:	48 89 85 70 f6 ff ff 	mov    %rax,-0x990(%rbp)
    eed1:	48 8d 85 a8 ed ff ff 	lea    -0x1258(%rbp),%rax
    eed8:	48 89 85 78 f6 ff ff 	mov    %rax,-0x988(%rbp)
    eedf:	48 c7 85 80 f6 ff ff 	movq   $0x0,-0x980(%rbp)
    eee6:	00 00 00 00 
    eeea:	48 8d 85 a8 ed ff ff 	lea    -0x1258(%rbp),%rax
    eef1:	48 89 85 88 f6 ff ff 	mov    %rax,-0x978(%rbp)
    eef8:	48 8d 85 a8 ed ff ff 	lea    -0x1258(%rbp),%rax
    eeff:	48 89 85 90 f6 ff ff 	mov    %rax,-0x970(%rbp)
    ef06:	48 c7 85 98 f6 ff ff 	movq   $0x0,-0x968(%rbp)
    ef0d:	00 00 00 00 
    ef11:	48 8d 85 a8 ed ff ff 	lea    -0x1258(%rbp),%rax
    ef18:	48 89 85 a0 f6 ff ff 	mov    %rax,-0x960(%rbp)
    ef1f:	48 c7 85 a8 f6 ff ff 	movq   $0x0,-0x958(%rbp)
    ef26:	00 00 00 00 
    ef2a:	48 8d 85 a8 ed ff ff 	lea    -0x1258(%rbp),%rax
    ef31:	48 89 85 b0 f6 ff ff 	mov    %rax,-0x950(%rbp)
    ef38:	48 c7 85 b8 f6 ff ff 	movq   $0x0,-0x948(%rbp)
    ef3f:	00 00 00 00 
    ef43:	48 c7 85 c0 f6 ff ff 	movq   $0x0,-0x940(%rbp)
    ef4a:	00 00 00 00 
    ef4e:	48 8d 85 a8 ed ff ff 	lea    -0x1258(%rbp),%rax
    ef55:	48 89 85 c8 f6 ff ff 	mov    %rax,-0x938(%rbp)
    ef5c:	48 8d 85 a8 ed ff ff 	lea    -0x1258(%rbp),%rax
    ef63:	48 89 85 d0 f6 ff ff 	mov    %rax,-0x930(%rbp)
    ef6a:	48 c7 85 d8 f6 ff ff 	movq   $0x0,-0x928(%rbp)
    ef71:	00 00 00 00 
    ef75:	48 8d 85 a8 ed ff ff 	lea    -0x1258(%rbp),%rax
    ef7c:	48 89 85 e0 f6 ff ff 	mov    %rax,-0x920(%rbp)
    ef83:	48 c7 85 e8 f6 ff ff 	movq   $0x0,-0x918(%rbp)
    ef8a:	00 00 00 00 
    ef8e:	48 c7 85 f0 f6 ff ff 	movq   $0x0,-0x910(%rbp)
    ef95:	00 00 00 00 
    ef99:	48 c7 85 f8 f6 ff ff 	movq   $0x0,-0x908(%rbp)
    efa0:	00 00 00 00 
    efa4:	48 8d 85 a8 ed ff ff 	lea    -0x1258(%rbp),%rax
    efab:	48 89 85 00 f7 ff ff 	mov    %rax,-0x900(%rbp)
    efb2:	48 8d 85 a8 ed ff ff 	lea    -0x1258(%rbp),%rax
    efb9:	48 89 85 08 f7 ff ff 	mov    %rax,-0x8f8(%rbp)
    efc0:	48 8d 85 a8 ed ff ff 	lea    -0x1258(%rbp),%rax
    efc7:	48 89 85 10 f7 ff ff 	mov    %rax,-0x8f0(%rbp)
    efce:	48 8d 85 a8 ed ff ff 	lea    -0x1258(%rbp),%rax
    efd5:	48 89 85 18 f7 ff ff 	mov    %rax,-0x8e8(%rbp)
    efdc:	48 c7 85 20 f7 ff ff 	movq   $0x0,-0x8e0(%rbp)
    efe3:	00 00 00 00 
    efe7:	48 8d 85 a8 ed ff ff 	lea    -0x1258(%rbp),%rax
    efee:	48 89 85 28 f7 ff ff 	mov    %rax,-0x8d8(%rbp)
    eff5:	48 8d 85 a8 ed ff ff 	lea    -0x1258(%rbp),%rax
    effc:	48 89 85 30 f7 ff ff 	mov    %rax,-0x8d0(%rbp)
    f003:	48 c7 85 38 f7 ff ff 	movq   $0x0,-0x8c8(%rbp)
    f00a:	00 00 00 00 
    f00e:	48 8d 85 a8 ed ff ff 	lea    -0x1258(%rbp),%rax
    f015:	48 89 85 40 f7 ff ff 	mov    %rax,-0x8c0(%rbp)
    f01c:	48 c7 85 48 f7 ff ff 	movq   $0x0,-0x8b8(%rbp)
    f023:	00 00 00 00 
    f027:	48 8d 85 a8 ed ff ff 	lea    -0x1258(%rbp),%rax
    f02e:	48 89 85 50 f7 ff ff 	mov    %rax,-0x8b0(%rbp)
    f035:	48 c7 85 58 f7 ff ff 	movq   $0x0,-0x8a8(%rbp)
    f03c:	00 00 00 00 
    f040:	48 c7 85 60 f7 ff ff 	movq   $0x0,-0x8a0(%rbp)
    f047:	00 00 00 00 
    f04b:	48 8d 85 a8 ed ff ff 	lea    -0x1258(%rbp),%rax
    f052:	48 89 85 68 f7 ff ff 	mov    %rax,-0x898(%rbp)
    f059:	48 8d 85 a8 ed ff ff 	lea    -0x1258(%rbp),%rax
    f060:	48 89 85 70 f7 ff ff 	mov    %rax,-0x890(%rbp)
    f067:	48 c7 85 78 f7 ff ff 	movq   $0x0,-0x888(%rbp)
    f06e:	00 00 00 00 
    f072:	48 8d 85 a8 ed ff ff 	lea    -0x1258(%rbp),%rax
    f079:	48 89 85 80 f7 ff ff 	mov    %rax,-0x880(%rbp)
    f080:	48 c7 85 88 f7 ff ff 	movq   $0x0,-0x878(%rbp)
    f087:	00 00 00 00 
    f08b:	48 c7 85 90 f7 ff ff 	movq   $0x0,-0x870(%rbp)
    f092:	00 00 00 00 
    f096:	48 c7 85 98 f7 ff ff 	movq   $0x0,-0x868(%rbp)
    f09d:	00 00 00 00 
    f0a1:	48 8d 85 a8 ed ff ff 	lea    -0x1258(%rbp),%rax
    f0a8:	48 89 85 a0 f7 ff ff 	mov    %rax,-0x860(%rbp)
    f0af:	48 8d 85 a8 ed ff ff 	lea    -0x1258(%rbp),%rax
    f0b6:	48 89 85 a8 f7 ff ff 	mov    %rax,-0x858(%rbp)
    f0bd:	48 8d 85 a8 ed ff ff 	lea    -0x1258(%rbp),%rax
    f0c4:	48 89 85 b0 f7 ff ff 	mov    %rax,-0x850(%rbp)
    f0cb:	48 8d 85 a8 ed ff ff 	lea    -0x1258(%rbp),%rax
    f0d2:	48 89 85 b8 f7 ff ff 	mov    %rax,-0x848(%rbp)
    f0d9:	48 c7 85 c0 f7 ff ff 	movq   $0x0,-0x840(%rbp)
    f0e0:	00 00 00 00 
    f0e4:	48 8d 85 a8 ed ff ff 	lea    -0x1258(%rbp),%rax
    f0eb:	48 89 85 c8 f7 ff ff 	mov    %rax,-0x838(%rbp)
    f0f2:	48 8d 85 a8 ed ff ff 	lea    -0x1258(%rbp),%rax
    f0f9:	48 89 85 d0 f7 ff ff 	mov    %rax,-0x830(%rbp)
    f100:	48 c7 85 d8 f7 ff ff 	movq   $0x0,-0x828(%rbp)
    f107:	00 00 00 00 
    f10b:	48 8d 85 a8 ed ff ff 	lea    -0x1258(%rbp),%rax
    f112:	48 89 85 e0 f7 ff ff 	mov    %rax,-0x820(%rbp)
    f119:	48 c7 85 e8 f7 ff ff 	movq   $0x0,-0x818(%rbp)
    f120:	00 00 00 00 
    f124:	48 8d 85 a8 ed ff ff 	lea    -0x1258(%rbp),%rax
    f12b:	48 89 85 f0 f7 ff ff 	mov    %rax,-0x810(%rbp)
    f132:	48 c7 85 f8 f7 ff ff 	movq   $0x0,-0x808(%rbp)
    f139:	00 00 00 00 
    f13d:	48 c7 85 00 f8 ff ff 	movq   $0x0,-0x800(%rbp)
    f144:	00 00 00 00 
    f148:	48 8d 85 a8 ed ff ff 	lea    -0x1258(%rbp),%rax
    f14f:	48 89 85 08 f8 ff ff 	mov    %rax,-0x7f8(%rbp)
    f156:	48 8d 85 a8 ed ff ff 	lea    -0x1258(%rbp),%rax
    f15d:	48 89 85 10 f8 ff ff 	mov    %rax,-0x7f0(%rbp)
    f164:	48 c7 85 18 f8 ff ff 	movq   $0x0,-0x7e8(%rbp)
    f16b:	00 00 00 00 
    f16f:	48 8d 85 a8 ed ff ff 	lea    -0x1258(%rbp),%rax
    f176:	48 89 85 20 f8 ff ff 	mov    %rax,-0x7e0(%rbp)
    f17d:	48 c7 85 28 f8 ff ff 	movq   $0x0,-0x7d8(%rbp)
    f184:	00 00 00 00 
    f188:	48 c7 85 30 f8 ff ff 	movq   $0x0,-0x7d0(%rbp)
    f18f:	00 00 00 00 
    f193:	48 c7 85 38 f8 ff ff 	movq   $0x0,-0x7c8(%rbp)
    f19a:	00 00 00 00 
    f19e:	48 8d 85 a8 ed ff ff 	lea    -0x1258(%rbp),%rax
    f1a5:	48 89 85 40 f8 ff ff 	mov    %rax,-0x7c0(%rbp)
    f1ac:	48 8d 85 a8 ed ff ff 	lea    -0x1258(%rbp),%rax
    f1b3:	48 89 85 48 f8 ff ff 	mov    %rax,-0x7b8(%rbp)
    f1ba:	48 8d 85 a8 ed ff ff 	lea    -0x1258(%rbp),%rax
    f1c1:	48 89 85 50 f8 ff ff 	mov    %rax,-0x7b0(%rbp)
    f1c8:	48 8d 85 a8 ed ff ff 	lea    -0x1258(%rbp),%rax
    f1cf:	48 89 85 58 f8 ff ff 	mov    %rax,-0x7a8(%rbp)
    f1d6:	48 c7 85 60 f8 ff ff 	movq   $0x0,-0x7a0(%rbp)
    f1dd:	00 00 00 00 
    f1e1:	48 8d 85 a8 ed ff ff 	lea    -0x1258(%rbp),%rax
    f1e8:	48 89 85 68 f8 ff ff 	mov    %rax,-0x798(%rbp)
    f1ef:	48 8d 85 a8 ed ff ff 	lea    -0x1258(%rbp),%rax
    f1f6:	48 89 85 70 f8 ff ff 	mov    %rax,-0x790(%rbp)
    f1fd:	48 c7 85 78 f8 ff ff 	movq   $0x0,-0x788(%rbp)
    f204:	00 00 00 00 
    f208:	48 8d 85 a8 ed ff ff 	lea    -0x1258(%rbp),%rax
    f20f:	48 89 85 80 f8 ff ff 	mov    %rax,-0x780(%rbp)
    f216:	48 c7 85 88 f8 ff ff 	movq   $0x0,-0x778(%rbp)
    f21d:	00 00 00 00 
    f221:	48 8d 85 a8 ed ff ff 	lea    -0x1258(%rbp),%rax
    f228:	48 89 85 90 f8 ff ff 	mov    %rax,-0x770(%rbp)
    f22f:	48 c7 85 98 f8 ff ff 	movq   $0x0,-0x768(%rbp)
    f236:	00 00 00 00 
    f23a:	48 c7 85 a0 f8 ff ff 	movq   $0x0,-0x760(%rbp)
    f241:	00 00 00 00 
    f245:	48 8d 85 a8 ed ff ff 	lea    -0x1258(%rbp),%rax
    f24c:	48 89 85 a8 f8 ff ff 	mov    %rax,-0x758(%rbp)
    f253:	48 8d 85 a8 ed ff ff 	lea    -0x1258(%rbp),%rax
    f25a:	48 89 85 b0 f8 ff ff 	mov    %rax,-0x750(%rbp)
    f261:	48 c7 85 b8 f8 ff ff 	movq   $0x0,-0x748(%rbp)
    f268:	00 00 00 00 
    f26c:	48 8d 85 a8 ed ff ff 	lea    -0x1258(%rbp),%rax
    f273:	48 89 85 c0 f8 ff ff 	mov    %rax,-0x740(%rbp)
    f27a:	48 c7 85 c8 f8 ff ff 	movq   $0x0,-0x738(%rbp)
    f281:	00 00 00 00 
    f285:	48 c7 85 d0 f8 ff ff 	movq   $0x0,-0x730(%rbp)
    f28c:	00 00 00 00 
    f290:	48 c7 85 d8 f8 ff ff 	movq   $0x0,-0x728(%rbp)
    f297:	00 00 00 00 
    f29b:	48 8d 85 a8 ed ff ff 	lea    -0x1258(%rbp),%rax
    f2a2:	48 89 85 e0 f8 ff ff 	mov    %rax,-0x720(%rbp)
    f2a9:	48 8d 85 a8 ed ff ff 	lea    -0x1258(%rbp),%rax
    f2b0:	48 89 85 e8 f8 ff ff 	mov    %rax,-0x718(%rbp)
    f2b7:	48 c7 85 e8 ed ff ff 	movq   $0x0,-0x1218(%rbp)
    f2be:	00 00 00 00 
    f2c2:	c6 85 70 ed ff ff 27 	movb   $0x27,-0x1290(%rbp)
    f2c9:	48 8d 05 74 6e 00 00 	lea    0x6e74(%rip),%rax        # 16144 <g_780>
    f2d0:	48 89 85 f0 ed ff ff 	mov    %rax,-0x1210(%rbp)
    f2d7:	66 c7 85 72 ed ff ff 	movw   $0xfffa,-0x128e(%rbp)
    f2de:	fa ff 
    f2e0:	48 c7 85 b0 ed ff ff 	movq   $0xfffffffffffffffe,-0x1250(%rbp)
    f2e7:	fe ff ff ff 
    f2eb:	48 8d 05 e8 6d 00 00 	lea    0x6de8(%rip),%rax        # 160da <g_217>
    f2f2:	48 89 85 f8 ed ff ff 	mov    %rax,-0x1208(%rbp)
    f2f9:	48 8d 05 e8 86 00 00 	lea    0x86e8(%rip),%rax        # 179e8 <g_758>
    f300:	48 89 85 00 ee ff ff 	mov    %rax,-0x1200(%rbp)
    f307:	48 8d 85 f0 f8 ff ff 	lea    -0x710(%rbp),%rax
    f30e:	48 8d 15 eb 77 00 00 	lea    0x77eb(%rip),%rdx        # 16b00 <g_3059+0x7e8>
    f315:	b9 e0 00 00 00       	mov    $0xe0,%ecx
    f31a:	48 89 c7             	mov    %rax,%rdi
    f31d:	48 89 d6             	mov    %rdx,%rsi
    f320:	f3 48 a5             	rep movsq %ds:(%rsi),%es:(%rdi)
    f323:	48 8d 85 b0 ed ff ff 	lea    -0x1250(%rbp),%rax
    f32a:	48 89 85 08 ee ff ff 	mov    %rax,-0x11f8(%rbp)
    f331:	c7 85 90 ed ff ff 1a 	movl   $0x5817621a,-0x1270(%rbp)
    f338:	62 17 58 
    f33b:	48 c7 85 10 ee ff ff 	movq   $0x0,-0x11f0(%rbp)
    f342:	00 00 00 00 
    f346:	48 8d 85 72 ed ff ff 	lea    -0x128e(%rbp),%rax
    f34d:	48 89 85 70 ee ff ff 	mov    %rax,-0x1190(%rbp)
    f354:	48 c7 85 78 ee ff ff 	movq   $0x0,-0x1188(%rbp)
    f35b:	00 00 00 00 
    f35f:	48 8d 05 d4 6d 00 00 	lea    0x6dd4(%rip),%rax        # 1613a <g_493>
    f366:	48 89 85 80 ee ff ff 	mov    %rax,-0x1180(%rbp)
    f36d:	48 c7 85 88 ee ff ff 	movq   $0x0,-0x1178(%rbp)
    f374:	00 00 00 00 
    f378:	48 8d 05 bb 6d 00 00 	lea    0x6dbb(%rip),%rax        # 1613a <g_493>
    f37f:	48 89 85 90 ee ff ff 	mov    %rax,-0x1170(%rbp)
    f386:	48 c7 85 98 ee ff ff 	movq   $0x0,-0x1168(%rbp)
    f38d:	00 00 00 00 
    f391:	48 8d 05 a2 6d 00 00 	lea    0x6da2(%rip),%rax        # 1613a <g_493>
    f398:	48 89 85 a0 ee ff ff 	mov    %rax,-0x1160(%rbp)
    f39f:	48 8d 05 98 6d 00 00 	lea    0x6d98(%rip),%rax        # 1613e <g_678>
    f3a6:	48 89 85 a8 ee ff ff 	mov    %rax,-0x1158(%rbp)
    f3ad:	48 c7 85 b0 ee ff ff 	movq   $0x0,-0x1150(%rbp)
    f3b4:	00 00 00 00 
    f3b8:	48 8d 05 7f 6d 00 00 	lea    0x6d7f(%rip),%rax        # 1613e <g_678>
    f3bf:	48 89 85 b8 ee ff ff 	mov    %rax,-0x1148(%rbp)
    f3c6:	48 8d 85 72 ed ff ff 	lea    -0x128e(%rbp),%rax
    f3cd:	48 89 85 c0 ee ff ff 	mov    %rax,-0x1140(%rbp)
    f3d4:	48 8d 05 63 6d 00 00 	lea    0x6d63(%rip),%rax        # 1613e <g_678>
    f3db:	48 89 85 c8 ee ff ff 	mov    %rax,-0x1138(%rbp)
    f3e2:	48 8d 05 51 6d 00 00 	lea    0x6d51(%rip),%rax        # 1613a <g_493>
    f3e9:	48 89 85 d0 ee ff ff 	mov    %rax,-0x1130(%rbp)
    f3f0:	48 8d 05 43 6d 00 00 	lea    0x6d43(%rip),%rax        # 1613a <g_493>
    f3f7:	48 89 85 d8 ee ff ff 	mov    %rax,-0x1128(%rbp)
    f3fe:	48 8d 85 72 ed ff ff 	lea    -0x128e(%rbp),%rax
    f405:	48 89 85 e0 ee ff ff 	mov    %rax,-0x1120(%rbp)
    f40c:	48 c7 85 e8 ee ff ff 	movq   $0x0,-0x1118(%rbp)
    f413:	00 00 00 00 
    f417:	48 8d 05 1c 6d 00 00 	lea    0x6d1c(%rip),%rax        # 1613a <g_493>
    f41e:	48 89 85 f0 ee ff ff 	mov    %rax,-0x1110(%rbp)
    f425:	48 c7 85 f8 ee ff ff 	movq   $0x0,-0x1108(%rbp)
    f42c:	00 00 00 00 
    f430:	48 8d 85 72 ed ff ff 	lea    -0x128e(%rbp),%rax
    f437:	48 89 85 00 ef ff ff 	mov    %rax,-0x1100(%rbp)
    f43e:	48 8d 05 f5 6c 00 00 	lea    0x6cf5(%rip),%rax        # 1613a <g_493>
    f445:	48 89 85 08 ef ff ff 	mov    %rax,-0x10f8(%rbp)
    f44c:	48 8d 85 72 ed ff ff 	lea    -0x128e(%rbp),%rax
    f453:	48 89 85 10 ef ff ff 	mov    %rax,-0x10f0(%rbp)
    f45a:	48 8d 05 dd 6c 00 00 	lea    0x6cdd(%rip),%rax        # 1613e <g_678>
    f461:	48 89 85 18 ef ff ff 	mov    %rax,-0x10e8(%rbp)
    f468:	48 8d 85 72 ed ff ff 	lea    -0x128e(%rbp),%rax
    f46f:	48 89 85 20 ef ff ff 	mov    %rax,-0x10e0(%rbp)
    f476:	48 8d 05 c1 6c 00 00 	lea    0x6cc1(%rip),%rax        # 1613e <g_678>
    f47d:	48 89 85 28 ef ff ff 	mov    %rax,-0x10d8(%rbp)
    f484:	48 8d 05 b3 6c 00 00 	lea    0x6cb3(%rip),%rax        # 1613e <g_678>
    f48b:	48 89 85 30 ef ff ff 	mov    %rax,-0x10d0(%rbp)
    f492:	48 8d 05 a5 6c 00 00 	lea    0x6ca5(%rip),%rax        # 1613e <g_678>
    f499:	48 89 85 38 ef ff ff 	mov    %rax,-0x10c8(%rbp)
    f4a0:	48 8d 85 72 ed ff ff 	lea    -0x128e(%rbp),%rax
    f4a7:	48 89 85 40 ef ff ff 	mov    %rax,-0x10c0(%rbp)
    f4ae:	48 c7 85 48 ef ff ff 	movq   $0x0,-0x10b8(%rbp)
    f4b5:	00 00 00 00 
    f4b9:	48 8d 05 7a 6c 00 00 	lea    0x6c7a(%rip),%rax        # 1613a <g_493>
    f4c0:	48 89 85 50 ef ff ff 	mov    %rax,-0x10b0(%rbp)
    f4c7:	48 c7 85 58 ef ff ff 	movq   $0x0,-0x10a8(%rbp)
    f4ce:	00 00 00 00 
    f4d2:	48 8d 85 72 ed ff ff 	lea    -0x128e(%rbp),%rax
    f4d9:	48 89 85 60 ef ff ff 	mov    %rax,-0x10a0(%rbp)
    f4e0:	48 c7 85 68 ef ff ff 	movq   $0x0,-0x1098(%rbp)
    f4e7:	00 00 00 00 
    f4eb:	48 8d 85 72 ed ff ff 	lea    -0x128e(%rbp),%rax
    f4f2:	48 89 85 70 ef ff ff 	mov    %rax,-0x1090(%rbp)
    f4f9:	48 c7 85 78 ef ff ff 	movq   $0x0,-0x1088(%rbp)
    f500:	00 00 00 00 
    f504:	48 8d 85 72 ed ff ff 	lea    -0x128e(%rbp),%rax
    f50b:	48 89 85 80 ef ff ff 	mov    %rax,-0x1080(%rbp)
    f512:	48 8d 05 25 6c 00 00 	lea    0x6c25(%rip),%rax        # 1613e <g_678>
    f519:	48 89 85 88 ef ff ff 	mov    %rax,-0x1078(%rbp)
    f520:	48 8d 05 17 6c 00 00 	lea    0x6c17(%rip),%rax        # 1613e <g_678>
    f527:	48 89 85 90 ef ff ff 	mov    %rax,-0x1070(%rbp)
    f52e:	48 c7 85 98 ef ff ff 	movq   $0x0,-0x1068(%rbp)
    f535:	00 00 00 00 
    f539:	48 c7 85 a0 ef ff ff 	movq   $0x0,-0x1060(%rbp)
    f540:	00 00 00 00 
    f544:	48 8d 05 f3 6b 00 00 	lea    0x6bf3(%rip),%rax        # 1613e <g_678>
    f54b:	48 89 85 a8 ef ff ff 	mov    %rax,-0x1058(%rbp)
    f552:	48 8d 85 72 ed ff ff 	lea    -0x128e(%rbp),%rax
    f559:	48 89 85 b0 ef ff ff 	mov    %rax,-0x1050(%rbp)
    f560:	48 c7 85 b8 ef ff ff 	movq   $0x0,-0x1048(%rbp)
    f567:	00 00 00 00 
    f56b:	48 8d 85 72 ed ff ff 	lea    -0x128e(%rbp),%rax
    f572:	48 89 85 c0 ef ff ff 	mov    %rax,-0x1040(%rbp)
    f579:	48 c7 85 c8 ef ff ff 	movq   $0x0,-0x1038(%rbp)
    f580:	00 00 00 00 
    f584:	48 8d 05 af 6b 00 00 	lea    0x6baf(%rip),%rax        # 1613a <g_493>
    f58b:	48 89 85 d0 ef ff ff 	mov    %rax,-0x1030(%rbp)
    f592:	48 c7 85 d8 ef ff ff 	movq   $0x0,-0x1028(%rbp)
    f599:	00 00 00 00 
    f59d:	48 8d 05 96 6b 00 00 	lea    0x6b96(%rip),%rax        # 1613a <g_493>
    f5a4:	48 89 85 e0 ef ff ff 	mov    %rax,-0x1020(%rbp)
    f5ab:	48 c7 85 e8 ef ff ff 	movq   $0x0,-0x1018(%rbp)
    f5b2:	00 00 00 00 
    f5b6:	48 8d 05 7d 6b 00 00 	lea    0x6b7d(%rip),%rax        # 1613a <g_493>
    f5bd:	48 89 85 f0 ef ff ff 	mov    %rax,-0x1010(%rbp)
    f5c4:	48 8d 05 73 6b 00 00 	lea    0x6b73(%rip),%rax        # 1613e <g_678>
    f5cb:	48 89 85 f8 ef ff ff 	mov    %rax,-0x1008(%rbp)
    f5d2:	48 c7 85 00 f0 ff ff 	movq   $0x0,-0x1000(%rbp)
    f5d9:	00 00 00 00 
    f5dd:	48 8d 05 5a 6b 00 00 	lea    0x6b5a(%rip),%rax        # 1613e <g_678>
    f5e4:	48 89 85 08 f0 ff ff 	mov    %rax,-0xff8(%rbp)
    f5eb:	48 8d 85 72 ed ff ff 	lea    -0x128e(%rbp),%rax
    f5f2:	48 89 85 10 f0 ff ff 	mov    %rax,-0xff0(%rbp)
    f5f9:	48 8d 05 3e 6b 00 00 	lea    0x6b3e(%rip),%rax        # 1613e <g_678>
    f600:	48 89 85 18 f0 ff ff 	mov    %rax,-0xfe8(%rbp)
    f607:	48 8d 05 2c 6b 00 00 	lea    0x6b2c(%rip),%rax        # 1613a <g_493>
    f60e:	48 89 85 20 f0 ff ff 	mov    %rax,-0xfe0(%rbp)
    f615:	48 8d 05 1e 6b 00 00 	lea    0x6b1e(%rip),%rax        # 1613a <g_493>
    f61c:	48 89 85 28 f0 ff ff 	mov    %rax,-0xfd8(%rbp)
    f623:	48 8d 85 72 ed ff ff 	lea    -0x128e(%rbp),%rax
    f62a:	48 89 85 30 f0 ff ff 	mov    %rax,-0xfd0(%rbp)
    f631:	48 c7 85 38 f0 ff ff 	movq   $0x0,-0xfc8(%rbp)
    f638:	00 00 00 00 
    f63c:	48 8d 05 fb 6a 00 00 	lea    0x6afb(%rip),%rax        # 1613e <g_678>
    f643:	48 89 85 40 f0 ff ff 	mov    %rax,-0xfc0(%rbp)
    f64a:	48 8d 05 ed 6a 00 00 	lea    0x6aed(%rip),%rax        # 1613e <g_678>
    f651:	48 89 85 48 f0 ff ff 	mov    %rax,-0xfb8(%rbp)
    f658:	66 c7 85 76 ed ff ff 	movw   $0xfd9f,-0x128a(%rbp)
    f65f:	9f fd 
    f661:	c6 85 71 ed ff ff 94 	movb   $0x94,-0x128f(%rbp)
    f668:	c7 85 94 ed ff ff f8 	movl   $0x83fec8f8,-0x126c(%rbp)
    f66f:	c8 fe 83 
    f672:	48 8d 85 50 f0 ff ff 	lea    -0xfb0(%rbp),%rax
    f679:	48 8d 15 a0 35 00 00 	lea    0x35a0(%rip),%rdx        # 12c20 <g_2687+0x1b70>
    f680:	b9 3c 00 00 00       	mov    $0x3c,%ecx
    f685:	48 89 c7             	mov    %rax,%rdi
    f688:	48 89 d6             	mov    %rdx,%rsi
    f68b:	f3 48 a5             	rep movsq %ds:(%rsi),%es:(%rdi)
    f68e:	48 c7 85 18 ee ff ff 	movq   $0x0,-0x11e8(%rbp)
    f695:	00 00 00 00 
    f699:	c7 85 7c ed ff ff 00 	movl   $0x0,-0x1284(%rbp)
    f6a0:	00 00 00 
    f6a3:	eb 73                	jmp    f718 <func_35+0x1018>
    f6a5:	c7 85 80 ed ff ff 00 	movl   $0x0,-0x1280(%rbp)
    f6ac:	00 00 00 
    f6af:	eb 57                	jmp    f708 <func_35+0x1008>
    f6b1:	c7 85 84 ed ff ff 00 	movl   $0x0,-0x127c(%rbp)
    f6b8:	00 00 00 
    f6bb:	eb 3b                	jmp    f6f8 <func_35+0xff8>
    f6bd:	8b 85 84 ed ff ff    	mov    -0x127c(%rbp),%eax
    f6c3:	48 63 c8             	movslq %eax,%rcx
    f6c6:	8b 85 7c ed ff ff    	mov    -0x1284(%rbp),%eax
    f6cc:	48 63 d0             	movslq %eax,%rdx
    f6cf:	8b 85 80 ed ff ff    	mov    -0x1280(%rbp),%eax
    f6d5:	48 98                	cltq   
    f6d7:	48 01 c2             	add    %rax,%rdx
    f6da:	48 89 d0             	mov    %rdx,%rax
    f6dd:	48 01 c0             	add    %rax,%rax
    f6e0:	48 01 d0             	add    %rdx,%rax
    f6e3:	48 01 c8             	add    %rcx,%rax
    f6e6:	c7 84 85 24 ee ff ff 	movl   $0x78985ed5,-0x11dc(%rbp,%rax,4)
    f6ed:	d5 5e 98 78 
    f6f1:	83 85 84 ed ff ff 01 	addl   $0x1,-0x127c(%rbp)
    f6f8:	83 bd 84 ed ff ff 02 	cmpl   $0x2,-0x127c(%rbp)
    f6ff:	7e bc                	jle    f6bd <func_35+0xfbd>
    f701:	83 85 80 ed ff ff 01 	addl   $0x1,-0x1280(%rbp)
    f708:	83 bd 80 ed ff ff 00 	cmpl   $0x0,-0x1280(%rbp)
    f70f:	7e a0                	jle    f6b1 <func_35+0xfb1>
    f711:	83 85 7c ed ff ff 01 	addl   $0x1,-0x1284(%rbp)
    f718:	83 bd 7c ed ff ff 00 	cmpl   $0x0,-0x1284(%rbp)
    f71f:	7e 84                	jle    f6a5 <func_35+0xfa5>
    f721:	c7 85 7c ed ff ff 00 	movl   $0x0,-0x1284(%rbp)
    f728:	00 00 00 
    f72b:	eb 1b                	jmp    f748 <func_35+0x1048>
    f72d:	8b 85 7c ed ff ff    	mov    -0x1284(%rbp),%eax
    f733:	48 98                	cltq   
    f735:	48 c7 84 c5 30 ee ff 	movq   $0x0,-0x11d0(%rbp,%rax,8)
    f73c:	ff 00 00 00 00 
    f741:	83 85 7c ed ff ff 01 	addl   $0x1,-0x1284(%rbp)
    f748:	83 bd 7c ed ff ff 02 	cmpl   $0x2,-0x1284(%rbp)
    f74f:	7e dc                	jle    f72d <func_35+0x102d>
    f751:	c7 85 7c ed ff ff 00 	movl   $0x0,-0x1284(%rbp)
    f758:	00 00 00 
    f75b:	eb 71                	jmp    f7ce <func_35+0x10ce>
    f75d:	c7 85 80 ed ff ff 00 	movl   $0x0,-0x1280(%rbp)
    f764:	00 00 00 
    f767:	eb 55                	jmp    f7be <func_35+0x10be>
    f769:	c7 85 84 ed ff ff 00 	movl   $0x0,-0x127c(%rbp)
    f770:	00 00 00 
    f773:	eb 39                	jmp    f7ae <func_35+0x10ae>
    f775:	8b 85 84 ed ff ff    	mov    -0x127c(%rbp),%eax
    f77b:	48 63 d0             	movslq %eax,%rdx
    f77e:	8b 85 80 ed ff ff    	mov    -0x1280(%rbp),%eax
    f784:	48 98                	cltq   
    f786:	8b 8d 7c ed ff ff    	mov    -0x1284(%rbp),%ecx
    f78c:	48 63 c9             	movslq %ecx,%rcx
    f78f:	48 01 c9             	add    %rcx,%rcx
    f792:	48 01 ca             	add    %rcx,%rdx
    f795:	48 01 c2             	add    %rax,%rdx
    f798:	48 8d 85 30 ee ff ff 	lea    -0x11d0(%rbp),%rax
    f79f:	48 89 84 d5 50 ee ff 	mov    %rax,-0x11b0(%rbp,%rdx,8)
    f7a6:	ff 
    f7a7:	83 85 84 ed ff ff 01 	addl   $0x1,-0x127c(%rbp)
    f7ae:	83 bd 84 ed ff ff 00 	cmpl   $0x0,-0x127c(%rbp)
    f7b5:	7e be                	jle    f775 <func_35+0x1075>
    f7b7:	83 85 80 ed ff ff 01 	addl   $0x1,-0x1280(%rbp)
    f7be:	83 bd 80 ed ff ff 01 	cmpl   $0x1,-0x1280(%rbp)
    f7c5:	7e a2                	jle    f769 <func_35+0x1069>
    f7c7:	83 85 7c ed ff ff 01 	addl   $0x1,-0x1284(%rbp)
    f7ce:	83 bd 7c ed ff ff 01 	cmpl   $0x1,-0x1284(%rbp)
    f7d5:	7e 86                	jle    f75d <func_35+0x105d>
    f7d7:	48 8b 05 3a 82 00 00 	mov    0x823a(%rip),%rax        # 17a18 <g_1096>
    f7de:	48 8b 00             	mov    (%rax),%rax
    f7e1:	48 8b 00             	mov    (%rax),%rax
    f7e4:	48 8b 00             	mov    (%rax),%rax
    f7e7:	48 8b 00             	mov    (%rax),%rax
    f7ea:	48 8b 75 f8          	mov    -0x8(%rbp),%rsi
    f7ee:	64 48 33 34 25 28 00 	xor    %fs:0x28,%rsi
    f7f5:	00 00 
    f7f7:	74 05                	je     f7fe <func_35+0x10fe>
    f7f9:	e8 72 68 ff ff       	callq  6070 <__stack_chk_fail@plt>
    f7fe:	c9                   	leaveq 
    f7ff:	c3                   	retq   

000000000000f800 <func_45>:
    f800:	f3 0f 1e fa          	endbr64 
    f804:	55                   	push   %rbp
    f805:	48 89 e5             	mov    %rsp,%rbp
    f808:	53                   	push   %rbx
    f809:	48 81 ec 98 08 00 00 	sub    $0x898,%rsp
    f810:	48 89 bd 78 f7 ff ff 	mov    %rdi,-0x888(%rbp)
    f817:	89 f0                	mov    %esi,%eax
    f819:	89 95 70 f7 ff ff    	mov    %edx,-0x890(%rbp)
    f81f:	48 89 8d 68 f7 ff ff 	mov    %rcx,-0x898(%rbp)
    f826:	4c 89 85 60 f7 ff ff 	mov    %r8,-0x8a0(%rbp)
    f82d:	66 89 85 74 f7 ff ff 	mov    %ax,-0x88c(%rbp)
    f834:	64 48 8b 04 25 28 00 	mov    %fs:0x28,%rax
    f83b:	00 00 
    f83d:	48 89 45 e8          	mov    %rax,-0x18(%rbp)
    f841:	31 c0                	xor    %eax,%eax
    f843:	48 8d 85 20 f9 ff ff 	lea    -0x6e0(%rbp),%rax
    f84a:	48 8d 15 af 79 00 00 	lea    0x79af(%rip),%rdx        # 17200 <g_3059+0xee8>
    f851:	b9 d8 00 00 00       	mov    $0xd8,%ecx
    f856:	48 89 c7             	mov    %rax,%rdi
    f859:	48 89 d6             	mov    %rdx,%rsi
    f85c:	f3 48 a5             	rep movsq %ds:(%rsi),%es:(%rdi)
    f85f:	48 c7 85 60 f8 ff ff 	movq   $0x9,-0x7a0(%rbp)
    f866:	09 00 00 00 
    f86a:	48 c7 85 68 f8 ff ff 	movq   $0x9,-0x798(%rbp)
    f871:	09 00 00 00 
    f875:	48 c7 85 70 f8 ff ff 	movq   $0x9,-0x790(%rbp)
    f87c:	09 00 00 00 
    f880:	48 c7 85 78 f8 ff ff 	movq   $0x1,-0x788(%rbp)
    f887:	01 00 00 00 
    f88b:	48 b8 36 59 70 f1 e8 	movabs $0xd6f46ce8f1705936,%rax
    f892:	6c f4 d6 
    f895:	48 89 85 80 f8 ff ff 	mov    %rax,-0x780(%rbp)
    f89c:	48 c7 85 88 f8 ff ff 	movq   $0x0,-0x778(%rbp)
    f8a3:	00 00 00 00 
    f8a7:	48 c7 85 90 f8 ff ff 	movq   $0x1,-0x770(%rbp)
    f8ae:	01 00 00 00 
    f8b2:	48 c7 85 98 f8 ff ff 	movq   $0x0,-0x768(%rbp)
    f8b9:	00 00 00 00 
    f8bd:	48 89 85 a0 f8 ff ff 	mov    %rax,-0x760(%rbp)
    f8c4:	48 c7 85 a8 f8 ff ff 	movq   $0x1,-0x758(%rbp)
    f8cb:	01 00 00 00 
    f8cf:	48 c7 85 b0 f8 ff ff 	movq   $0x9,-0x750(%rbp)
    f8d6:	09 00 00 00 
    f8da:	48 c7 85 b8 f8 ff ff 	movq   $0x9,-0x748(%rbp)
    f8e1:	09 00 00 00 
    f8e5:	48 c7 85 c0 f8 ff ff 	movq   $0x9,-0x740(%rbp)
    f8ec:	09 00 00 00 
    f8f0:	48 c7 85 c8 f8 ff ff 	movq   $0x1,-0x738(%rbp)
    f8f7:	01 00 00 00 
    f8fb:	48 89 85 d0 f8 ff ff 	mov    %rax,-0x730(%rbp)
    f902:	48 c7 85 d8 f8 ff ff 	movq   $0x0,-0x728(%rbp)
    f909:	00 00 00 00 
    f90d:	48 c7 85 e0 f8 ff ff 	movq   $0x1,-0x720(%rbp)
    f914:	01 00 00 00 
    f918:	48 c7 85 e8 f8 ff ff 	movq   $0x0,-0x718(%rbp)
    f91f:	00 00 00 00 
    f923:	48 89 85 f0 f8 ff ff 	mov    %rax,-0x710(%rbp)
    f92a:	48 c7 85 f8 f8 ff ff 	movq   $0x1,-0x708(%rbp)
    f931:	01 00 00 00 
    f935:	48 c7 85 00 f9 ff ff 	movq   $0x9,-0x700(%rbp)
    f93c:	09 00 00 00 
    f940:	48 c7 85 08 f9 ff ff 	movq   $0x9,-0x6f8(%rbp)
    f947:	09 00 00 00 
    f94b:	48 c7 85 10 f9 ff ff 	movq   $0x9,-0x6f0(%rbp)
    f952:	09 00 00 00 
    f956:	48 c7 85 18 f9 ff ff 	movq   $0x1,-0x6e8(%rbp)
    f95d:	01 00 00 00 
    f961:	48 c7 85 a0 f7 ff ff 	movq   $0xfffffffffffffffc,-0x860(%rbp)
    f968:	fc ff ff ff 
    f96c:	48 8d 05 55 7f 00 00 	lea    0x7f55(%rip),%rax        # 178c8 <g_105>
    f973:	48 89 85 a8 f7 ff ff 	mov    %rax,-0x858(%rbp)
    f97a:	66 c7 85 82 f7 ff ff 	movw   $0xb77f,-0x87e(%rbp)
    f981:	7f b7 
    f983:	c7 45 e2 00 00 00 00 	movl   $0x0,-0x1e(%rbp)
    f98a:	66 c7 45 e6 00 00    	movw   $0x0,-0x1a(%rbp)
    f990:	66 c7 85 84 f7 ff ff 	movw   $0x0,-0x87c(%rbp)
    f997:	00 00 
    f999:	48 8d 05 38 7f 00 00 	lea    0x7f38(%rip),%rax        # 178d8 <g_156>
    f9a0:	48 89 85 20 f8 ff ff 	mov    %rax,-0x7e0(%rbp)
    f9a7:	48 8d 05 2a 7f 00 00 	lea    0x7f2a(%rip),%rax        # 178d8 <g_156>
    f9ae:	48 89 85 28 f8 ff ff 	mov    %rax,-0x7d8(%rbp)
    f9b5:	48 8d 05 1c 7f 00 00 	lea    0x7f1c(%rip),%rax        # 178d8 <g_156>
    f9bc:	48 89 85 30 f8 ff ff 	mov    %rax,-0x7d0(%rbp)
    f9c3:	48 8d 05 0e 7f 00 00 	lea    0x7f0e(%rip),%rax        # 178d8 <g_156>
    f9ca:	48 89 85 38 f8 ff ff 	mov    %rax,-0x7c8(%rbp)
    f9d1:	48 8d 05 00 7f 00 00 	lea    0x7f00(%rip),%rax        # 178d8 <g_156>
    f9d8:	48 89 85 40 f8 ff ff 	mov    %rax,-0x7c0(%rbp)
    f9df:	48 8d 05 f2 7e 00 00 	lea    0x7ef2(%rip),%rax        # 178d8 <g_156>
    f9e6:	48 89 85 48 f8 ff ff 	mov    %rax,-0x7b8(%rbp)
    f9ed:	48 8d 05 e4 7e 00 00 	lea    0x7ee4(%rip),%rax        # 178d8 <g_156>
    f9f4:	48 89 85 50 f8 ff ff 	mov    %rax,-0x7b0(%rbp)
    f9fb:	48 8d 05 d6 7e 00 00 	lea    0x7ed6(%rip),%rax        # 178d8 <g_156>
    fa02:	48 89 85 58 f8 ff ff 	mov    %rax,-0x7a8(%rbp)
    fa09:	c6 85 80 f7 ff ff c2 	movb   $0xc2,-0x880(%rbp)
    fa10:	48 8d 05 79 66 00 00 	lea    0x6679(%rip),%rax        # 16090 <g_127+0x10>
    fa17:	48 89 85 b0 f7 ff ff 	mov    %rax,-0x850(%rbp)
    fa1e:	c6 85 81 f7 ff ff 6e 	movb   $0x6e,-0x87f(%rbp)
    fa25:	48 8d 05 c5 66 00 00 	lea    0x66c5(%rip),%rax        # 160f1 <g_383+0x11>
    fa2c:	48 89 85 98 f7 ff ff 	mov    %rax,-0x868(%rbp)
    fa33:	48 8d 85 98 f7 ff ff 	lea    -0x868(%rbp),%rax
    fa3a:	48 89 85 b8 f7 ff ff 	mov    %rax,-0x848(%rbp)
    fa41:	c7 85 8c f7 ff ff 00 	movl   $0x0,-0x874(%rbp)
    fa48:	00 00 00 
    fa4b:	eb 21                	jmp    fa6e <func_45+0x26e>
    fa4d:	8b 85 8c f7 ff ff    	mov    -0x874(%rbp),%eax
    fa53:	48 98                	cltq   
    fa55:	48 bb 4d 9c 75 02 ca 	movabs $0xea0178ca02759c4d,%rbx
    fa5c:	78 01 ea 
    fa5f:	48 89 9c c5 10 f8 ff 	mov    %rbx,-0x7f0(%rbp,%rax,8)
    fa66:	ff 
    fa67:	83 85 8c f7 ff ff 01 	addl   $0x1,-0x874(%rbp)
    fa6e:	83 bd 8c f7 ff ff 01 	cmpl   $0x1,-0x874(%rbp)
    fa75:	7e d6                	jle    fa4d <func_45+0x24d>
    fa77:	c7 05 df 65 00 00 00 	movl   $0x0,0x65df(%rip)        # 16060 <g_91>
    fa7e:	00 00 00 
    fa81:	e9 12 02 00 00       	jmpq   fc98 <func_45+0x498>
    fa86:	66 c7 85 86 f7 ff ff 	movw   $0xfffa,-0x87a(%rbp)
    fa8d:	fa ff 
    fa8f:	48 c7 85 c0 f7 ff ff 	movq   $0x0,-0x840(%rbp)
    fa96:	00 00 00 00 
    fa9a:	66 c7 85 88 f7 ff ff 	movw   $0xf212,-0x878(%rbp)
    faa1:	12 f2 
    faa3:	66 c7 85 8a f7 ff ff 	movw   $0xffff,-0x876(%rbp)
    faaa:	ff ff 
    faac:	48 8d 85 60 f8 ff ff 	lea    -0x7a0(%rbp),%rax
    fab3:	48 05 a8 00 00 00    	add    $0xa8,%rax
    fab9:	48 89 85 c8 f7 ff ff 	mov    %rax,-0x838(%rbp)
    fac0:	48 c7 85 d0 f7 ff ff 	movq   $0x0,-0x830(%rbp)
    fac7:	00 00 00 00 
    facb:	c7 85 94 f7 ff ff fd 	movl   $0xfffffffd,-0x86c(%rbp)
    fad2:	ff ff ff 
    fad5:	48 c7 85 d8 f7 ff ff 	movq   $0x0,-0x828(%rbp)
    fadc:	00 00 00 00 
    fae0:	48 8d 05 81 65 00 00 	lea    0x6581(%rip),%rax        # 16068 <g_102>
    fae7:	48 89 85 e0 f7 ff ff 	mov    %rax,-0x820(%rbp)
    faee:	48 b8 07 01 0d 2d 89 	movabs $0x4760b1892d0d0107,%rax
    faf5:	b1 60 47 
    faf8:	48 89 85 e8 f7 ff ff 	mov    %rax,-0x818(%rbp)
    faff:	48 8d 85 0c f8 ff ff 	lea    -0x7f4(%rbp),%rax
    fb06:	48 89 85 f0 f7 ff ff 	mov    %rax,-0x810(%rbp)
    fb0d:	48 b8 d4 0a b8 98 9e 	movabs $0x599ed79e98b80ad4,%rax
    fb14:	d7 9e 59 
    fb17:	48 89 85 f8 f7 ff ff 	mov    %rax,-0x808(%rbp)
    fb1e:	48 b8 72 99 38 f1 68 	movabs $0x9a7ab968f1389972,%rax
    fb25:	b9 7a 9a 
    fb28:	48 89 85 00 f8 ff ff 	mov    %rax,-0x800(%rbp)
    fb2f:	c7 85 90 f7 ff ff 00 	movl   $0x0,-0x870(%rbp)
    fb36:	00 00 00 
    fb39:	eb 1a                	jmp    fb55 <func_45+0x355>
    fb3b:	8b 85 90 f7 ff ff    	mov    -0x870(%rbp),%eax
    fb41:	48 98                	cltq   
    fb43:	c7 84 85 0c f8 ff ff 	movl   $0x3,-0x7f4(%rbp,%rax,4)
    fb4a:	03 00 00 00 
    fb4e:	83 85 90 f7 ff ff 01 	addl   $0x1,-0x870(%rbp)
    fb55:	83 bd 90 f7 ff ff 00 	cmpl   $0x0,-0x870(%rbp)
    fb5c:	7e dd                	jle    fb3b <func_45+0x33b>
    fb5e:	48 0f bf 95 86 f7 ff 	movswq -0x87a(%rbp),%rdx
    fb65:	ff 
    fb66:	8b 05 e8 64 00 00    	mov    0x64e8(%rip),%eax        # 16054 <g_41+0x14>
    fb6c:	48 98                	cltq   
    fb6e:	48 89 d6             	mov    %rdx,%rsi
    fb71:	48 89 c7             	mov    %rax,%rdi
    fb74:	e8 07 75 ff ff       	callq  7080 <safe_mod_func_uint64_t_u_u>
    fb79:	8b 95 70 f7 ff ff    	mov    -0x890(%rbp),%edx
    fb7f:	48 39 d0             	cmp    %rdx,%rax
    fb82:	0f b6 05 9b 64 00 00 	movzbl 0x649b(%rip),%eax        # 16024 <g_2>
    fb89:	0f b6 d8             	movzbl %al,%ebx
    fb8c:	48 8b 85 60 f7 ff ff 	mov    -0x8a0(%rbp),%rax
    fb93:	0f b7 d0             	movzwl %ax,%edx
    fb96:	8b 05 cc 64 00 00    	mov    0x64cc(%rip),%eax        # 16068 <g_102>
    fb9c:	89 c1                	mov    %eax,%ecx
    fb9e:	48 8b 85 60 f7 ff ff 	mov    -0x8a0(%rbp),%rax
    fba5:	09 c8                	or     %ecx,%eax
    fba7:	0f b7 c0             	movzwl %ax,%eax
    fbaa:	89 d6                	mov    %edx,%esi
    fbac:	89 c7                	mov    %eax,%edi
    fbae:	e8 a9 71 ff ff       	callq  6d5c <safe_mod_func_uint16_t_u_u>
    fbb3:	0f b7 c0             	movzwl %ax,%eax
    fbb6:	48 83 c8 f6          	or     $0xfffffffffffffff6,%rax
    fbba:	48 39 c3             	cmp    %rax,%rbx
    fbbd:	0f 97 c0             	seta   %al
    fbc0:	0f b6 c0             	movzbl %al,%eax
    fbc3:	39 85 70 f7 ff ff    	cmp    %eax,-0x890(%rbp)
    fbc9:	48 8b 95 d0 fd ff ff 	mov    -0x230(%rbp),%rdx
    fbd0:	48 8b 85 60 ff ff ff 	mov    -0xa0(%rbp),%rax
    fbd7:	48 39 c2             	cmp    %rax,%rdx
    fbda:	0f 95 c0             	setne  %al
    fbdd:	0f b6 d0             	movzbl %al,%edx
    fbe0:	66 83 bd 74 f7 ff ff 	cmpw   $0x0,-0x88c(%rbp)
    fbe7:	00 
    fbe8:	0f 9f c0             	setg   %al
    fbeb:	0f b6 c0             	movzbl %al,%eax
    fbee:	39 c2                	cmp    %eax,%edx
    fbf0:	7c 11                	jl     fc03 <func_45+0x403>
    fbf2:	48 83 bd 60 f7 ff ff 	cmpq   $0x0,-0x8a0(%rbp)
    fbf9:	00 
    fbfa:	74 07                	je     fc03 <func_45+0x403>
    fbfc:	ba 01 00 00 00       	mov    $0x1,%edx
    fc01:	eb 05                	jmp    fc08 <func_45+0x408>
    fc03:	ba 00 00 00 00       	mov    $0x0,%edx
    fc08:	8b 05 82 64 00 00    	mov    0x6482(%rip),%eax        # 16090 <g_127+0x10>
    fc0e:	31 d0                	xor    %edx,%eax
    fc10:	89 05 7a 64 00 00    	mov    %eax,0x647a(%rip)        # 16090 <g_127+0x10>
    fc16:	0f b6 05 4f 64 00 00 	movzbl 0x644f(%rip),%eax        # 1606c <g_107>
    fc1d:	0f b6 d0             	movzbl %al,%edx
    fc20:	48 83 bd c0 f7 ff ff 	cmpq   $0x0,-0x840(%rbp)
    fc27:	00 
    fc28:	0f 94 c0             	sete   %al
    fc2b:	0f b6 c0             	movzbl %al,%eax
    fc2e:	39 c2                	cmp    %eax,%edx
    fc30:	74 24                	je     fc56 <func_45+0x456>
    fc32:	8b 85 70 f7 ff ff    	mov    -0x890(%rbp),%eax
    fc38:	48 89 c6             	mov    %rax,%rsi
    fc3b:	bf 01 00 00 00       	mov    $0x1,%edi
    fc40:	e8 06 74 ff ff       	callq  704b <safe_sub_func_uint64_t_u_u>
    fc45:	48 8b 95 08 f9 ff ff 	mov    -0x6f8(%rbp),%rdx
    fc4c:	48 39 d0             	cmp    %rdx,%rax
    fc4f:	b8 01 00 00 00       	mov    $0x1,%eax
    fc54:	eb 05                	jmp    fc5b <func_45+0x45b>
    fc56:	b8 00 00 00 00       	mov    $0x0,%eax
    fc5b:	23 85 70 f7 ff ff    	and    -0x890(%rbp),%eax
    fc61:	89 c2                	mov    %eax,%edx
    fc63:	0f b6 05 ba 63 00 00 	movzbl 0x63ba(%rip),%eax        # 16024 <g_2>
    fc6a:	0f b6 c0             	movzbl %al,%eax
    fc6d:	39 c2                	cmp    %eax,%edx
    fc6f:	0f 96 c0             	setbe  %al
    fc72:	0f b6 d0             	movzbl %al,%edx
    fc75:	8b 05 e9 63 00 00    	mov    0x63e9(%rip),%eax        # 16064 <g_97>
    fc7b:	39 c2                	cmp    %eax,%edx
    fc7d:	0f 94 c0             	sete   %al
    fc80:	0f b6 c0             	movzbl %al,%eax
    fc83:	89 85 0c f8 ff ff    	mov    %eax,-0x7f4(%rbp)
    fc89:	8b 05 d1 63 00 00    	mov    0x63d1(%rip),%eax        # 16060 <g_91>
    fc8f:	83 c0 01             	add    $0x1,%eax
    fc92:	89 05 c8 63 00 00    	mov    %eax,0x63c8(%rip)        # 16060 <g_91>
    fc98:	8b 05 c2 63 00 00    	mov    0x63c2(%rip),%eax        # 16060 <g_91>
    fc9e:	83 f8 06             	cmp    $0x6,%eax
    fca1:	0f 87 df fd ff ff    	ja     fa86 <func_45+0x286>
    fca7:	48 8b 85 68 f7 ff ff 	mov    -0x898(%rbp),%rax
    fcae:	48 89 85 78 f7 ff ff 	mov    %rax,-0x888(%rbp)
    fcb5:	8b 05 95 63 00 00    	mov    0x6395(%rip),%eax        # 16050 <g_41+0x10>
    fcbb:	48 8b 5d e8          	mov    -0x18(%rbp),%rbx
    fcbf:	64 48 33 1c 25 28 00 	xor    %fs:0x28,%rbx
    fcc6:	00 00 
    fcc8:	74 05                	je     fccf <func_45+0x4cf>
    fcca:	e8 a1 63 ff ff       	callq  6070 <__stack_chk_fail@plt>
    fccf:	48 81 c4 98 08 00 00 	add    $0x898,%rsp
    fcd6:	5b                   	pop    %rbx
    fcd7:	5d                   	pop    %rbp
    fcd8:	c3                   	retq   

000000000000fcd9 <func_56>:
    fcd9:	f3 0f 1e fa          	endbr64 
    fcdd:	55                   	push   %rbp
    fcde:	48 89 e5             	mov    %rsp,%rbp
    fce1:	41 56                	push   %r14
    fce3:	41 55                	push   %r13
    fce5:	41 54                	push   %r12
    fce7:	53                   	push   %rbx
    fce8:	48 81 ec d0 00 00 00 	sub    $0xd0,%rsp
    fcef:	89 b5 18 ff ff ff    	mov    %esi,-0xe8(%rbp)
    fcf5:	89 95 14 ff ff ff    	mov    %edx,-0xec(%rbp)
    fcfb:	89 c8                	mov    %ecx,%eax
    fcfd:	89 fa                	mov    %edi,%edx
    fcff:	88 95 1c ff ff ff    	mov    %dl,-0xe4(%rbp)
    fd05:	66 89 85 10 ff ff ff 	mov    %ax,-0xf0(%rbp)
    fd0c:	64 48 8b 04 25 28 00 	mov    %fs:0x28,%rax
    fd13:	00 00 
    fd15:	48 89 45 d8          	mov    %rax,-0x28(%rbp)
    fd19:	31 c0                	xor    %eax,%eax
    fd1b:	c6 85 25 ff ff ff 46 	movb   $0x46,-0xdb(%rbp)
    fd22:	48 8d 05 37 63 00 00 	lea    0x6337(%rip),%rax        # 16060 <g_91>
    fd29:	48 89 85 38 ff ff ff 	mov    %rax,-0xc8(%rbp)
    fd30:	48 c7 85 40 ff ff ff 	movq   $0x0,-0xc0(%rbp)
    fd37:	00 00 00 00 
    fd3b:	48 8d 05 22 63 00 00 	lea    0x6322(%rip),%rax        # 16064 <g_97>
    fd42:	48 89 85 48 ff ff ff 	mov    %rax,-0xb8(%rbp)
    fd49:	48 8d 05 18 88 00 00 	lea    0x8818(%rip),%rax        # 18568 <g_42>
    fd50:	48 89 85 30 ff ff ff 	mov    %rax,-0xd0(%rbp)
    fd57:	c6 85 26 ff ff ff 4e 	movb   $0x4e,-0xda(%rbp)
    fd5e:	c7 85 2c ff ff ff 55 	movl   $0xfbd05855,-0xd4(%rbp)
    fd65:	58 d0 fb 
    fd68:	48 8d 05 f9 62 00 00 	lea    0x62f9(%rip),%rax        # 16068 <g_102>
    fd6f:	48 89 85 50 ff ff ff 	mov    %rax,-0xb0(%rbp)
    fd76:	48 c7 85 58 ff ff ff 	movq   $0x0,-0xa8(%rbp)
    fd7d:	00 00 00 00 
    fd81:	48 c7 45 80 00 00 00 	movq   $0x0,-0x80(%rbp)
    fd88:	00 
    fd89:	48 8d 85 30 ff ff ff 	lea    -0xd0(%rbp),%rax
    fd90:	48 89 45 88          	mov    %rax,-0x78(%rbp)
    fd94:	48 c7 45 90 00 00 00 	movq   $0x0,-0x70(%rbp)
    fd9b:	00 
    fd9c:	48 c7 45 98 00 00 00 	movq   $0x0,-0x68(%rbp)
    fda3:	00 
    fda4:	48 8d 85 30 ff ff ff 	lea    -0xd0(%rbp),%rax
    fdab:	48 89 45 a0          	mov    %rax,-0x60(%rbp)
    fdaf:	48 c7 45 a8 00 00 00 	movq   $0x0,-0x58(%rbp)
    fdb6:	00 
    fdb7:	48 8d 85 30 ff ff ff 	lea    -0xd0(%rbp),%rax
    fdbe:	48 89 45 b0          	mov    %rax,-0x50(%rbp)
    fdc2:	48 c7 45 b8 00 00 00 	movq   $0x0,-0x48(%rbp)
    fdc9:	00 
    fdca:	48 8d 85 30 ff ff ff 	lea    -0xd0(%rbp),%rax
    fdd1:	48 89 45 c0          	mov    %rax,-0x40(%rbp)
    fdd5:	48 8d 85 30 ff ff ff 	lea    -0xd0(%rbp),%rax
    fddc:	48 89 45 c8          	mov    %rax,-0x38(%rbp)
    fde0:	48 8d 05 85 62 00 00 	lea    0x6285(%rip),%rax        # 1606c <g_107>
    fde7:	48 89 85 60 ff ff ff 	mov    %rax,-0xa0(%rbp)
    fdee:	c6 85 27 ff ff ff 01 	movb   $0x1,-0xd9(%rbp)
    fdf5:	48 c7 85 68 ff ff ff 	movq   $0x0,-0x98(%rbp)
    fdfc:	00 00 00 00 
    fe00:	48 8d 05 66 62 00 00 	lea    0x6266(%rip),%rax        # 1606d <g_112>
    fe07:	48 89 85 70 ff ff ff 	mov    %rax,-0x90(%rbp)
    fe0e:	c7 85 28 ff ff ff 00 	movl   $0x0,-0xd8(%rbp)
    fe15:	00 00 00 
    fe18:	eb 19                	jmp    fe33 <func_56+0x15a>
    fe1a:	8b 85 28 ff ff ff    	mov    -0xd8(%rbp),%eax
    fe20:	48 98                	cltq   
    fe22:	66 c7 84 45 7e ff ff 	movw   $0x0,-0x82(%rbp,%rax,2)
    fe29:	ff 00 00 
    fe2c:	83 85 28 ff ff ff 01 	addl   $0x1,-0xd8(%rbp)
    fe33:	83 bd 28 ff ff ff 00 	cmpl   $0x0,-0xd8(%rbp)
    fe3a:	7e de                	jle    fe1a <func_56+0x141>
    fe3c:	8b 85 14 ff ff ff    	mov    -0xec(%rbp),%eax
    fe42:	48 63 d8             	movslq %eax,%rbx
    fe45:	0f b6 05 d8 61 00 00 	movzbl 0x61d8(%rip),%eax        # 16024 <g_2>
    fe4c:	44 0f b6 e0          	movzbl %al,%r12d
    fe50:	8b 85 18 ff ff ff    	mov    -0xe8(%rbp),%eax
    fe56:	44 0f bf e8          	movswl %ax,%r13d
    fe5a:	66 0f be 85 25 ff ff 	movsbw -0xdb(%rbp),%ax
    fe61:	ff 
    fe62:	0f b7 c0             	movzwl %ax,%eax
    fe65:	be 0d 00 00 00       	mov    $0xd,%esi
    fe6a:	89 c7                	mov    %eax,%edi
    fe6c:	e8 4d 6f ff ff       	callq  6dbe <safe_lshift_func_uint16_t_u_s>
    fe71:	0f b6 05 ac 61 00 00 	movzbl 0x61ac(%rip),%eax        # 16024 <g_2>
    fe78:	44 0f b6 f0          	movzbl %al,%r14d
    fe7c:	0f b6 05 a1 61 00 00 	movzbl 0x61a1(%rip),%eax        # 16024 <g_2>
    fe83:	0f b6 d0             	movzbl %al,%edx
    fe86:	48 8b 85 38 ff ff ff 	mov    -0xc8(%rbp),%rax
    fe8d:	89 10                	mov    %edx,(%rax)
    fe8f:	0f be 85 25 ff ff ff 	movsbl -0xdb(%rbp),%eax
    fe96:	39 85 18 ff ff ff    	cmp    %eax,-0xe8(%rbp)
    fe9c:	0f 95 c0             	setne  %al
    fe9f:	0f b6 c0             	movzbl %al,%eax
    fea2:	f7 d0                	not    %eax
    fea4:	0f b7 c0             	movzwl %ax,%eax
    fea7:	be 95 57 00 00       	mov    $0x5795,%esi
    feac:	89 c7                	mov    %eax,%edi
    feae:	e8 8a 6e ff ff       	callq  6d3d <safe_mul_func_uint16_t_u_u>
    feb3:	8b 85 14 ff ff ff    	mov    -0xec(%rbp),%eax
    feb9:	c1 e8 1f             	shr    $0x1f,%eax
    febc:	0f b6 d0             	movzbl %al,%edx
    febf:	48 8b 85 48 ff ff ff 	mov    -0xb8(%rbp),%rax
    fec6:	89 10                	mov    %edx,(%rax)
    fec8:	48 8b 85 48 ff ff ff 	mov    -0xb8(%rbp),%rax
    fecf:	8b 00                	mov    (%rax),%eax
    fed1:	89 c7                	mov    %eax,%edi
    fed3:	e8 ce 6f ff ff       	callq  6ea6 <safe_unary_minus_func_uint32_t_u>
    fed8:	85 c0                	test   %eax,%eax
    feda:	75 09                	jne    fee5 <func_56+0x20c>
    fedc:	83 bd 14 ff ff ff 00 	cmpl   $0x0,-0xec(%rbp)
    fee3:	74 07                	je     feec <func_56+0x213>
    fee5:	b8 01 00 00 00       	mov    $0x1,%eax
    feea:	eb 05                	jmp    fef1 <func_56+0x218>
    feec:	b8 00 00 00 00       	mov    $0x0,%eax
    fef1:	be ff ff ff ff       	mov    $0xffffffff,%esi
    fef6:	89 c7                	mov    %eax,%edi
    fef8:	e8 cf 67 ff ff       	callq  66cc <safe_mod_func_int32_t_s_s>
    fefd:	48 63 d0             	movslq %eax,%rdx
    ff00:	0f b6 05 1d 61 00 00 	movzbl 0x611d(%rip),%eax        # 16024 <g_2>
    ff07:	0f b6 c0             	movzbl %al,%eax
    ff0a:	48 89 d6             	mov    %rdx,%rsi
    ff0d:	48 89 c7             	mov    %rax,%rdi
    ff10:	e8 e2 6a ff ff       	callq  69f7 <safe_div_func_int64_t_s_s>
    ff15:	80 bd 25 ff ff ff 00 	cmpb   $0x0,-0xdb(%rbp)
    ff1c:	0f 95 c0             	setne  %al
    ff1f:	0f b6 c0             	movzbl %al,%eax
    ff22:	be 01 00 00 00       	mov    $0x1,%esi
    ff27:	89 c7                	mov    %eax,%edi
    ff29:	e8 88 66 ff ff       	callq  65b6 <safe_add_func_int32_t_s_s>
    ff2e:	41 39 c6             	cmp    %eax,%r14d
    ff31:	0f 9c c0             	setl   %al
    ff34:	0f b6 d0             	movzbl %al,%edx
    ff37:	0f b6 05 e6 60 00 00 	movzbl 0x60e6(%rip),%eax        # 16024 <g_2>
    ff3e:	0f b6 c0             	movzbl %al,%eax
    ff41:	21 d0                	and    %edx,%eax
    ff43:	98                   	cwtl   
    ff44:	44 89 ee             	mov    %r13d,%esi
    ff47:	89 c7                	mov    %eax,%edi
    ff49:	e8 85 64 ff ff       	callq  63d3 <safe_sub_func_int16_t_s_s>
    ff4e:	66 85 c0             	test   %ax,%ax
    ff51:	75 07                	jne    ff5a <func_56+0x281>
    ff53:	83 bd 18 ff ff ff 00 	cmpl   $0x0,-0xe8(%rbp)
    ff5a:	8b 95 2c ff ff ff    	mov    -0xd4(%rbp),%edx
    ff60:	48 8b 85 50 ff ff ff 	mov    -0xb0(%rbp),%rax
    ff67:	8b 00                	mov    (%rax),%eax
    ff69:	21 c2                	and    %eax,%edx
    ff6b:	48 8b 85 50 ff ff ff 	mov    -0xb0(%rbp),%rax
    ff72:	89 10                	mov    %edx,(%rax)
    ff74:	48 8b 85 50 ff ff ff 	mov    -0xb0(%rbp),%rax
    ff7b:	8b 10                	mov    (%rax),%edx
    ff7d:	0f be 85 1c ff ff ff 	movsbl -0xe4(%rbp),%eax
    ff84:	21 d0                	and    %edx,%eax
    ff86:	89 c0                	mov    %eax,%eax
    ff88:	48 be 75 0e 7d 4c 38 	movabs $0xa58de384c7d0e75,%rsi
    ff8f:	de 58 0a 
    ff92:	48 89 c7             	mov    %rax,%rdi
    ff95:	e8 0e 69 ff ff       	callq  68a8 <safe_sub_func_int64_t_s_s>
    ff9a:	44 89 e6             	mov    %r12d,%esi
    ff9d:	bf 01 00 00 00       	mov    $0x1,%edi
    ffa2:	e8 96 6d ff ff       	callq  6d3d <safe_mul_func_uint16_t_u_u>
    ffa7:	0f be c0             	movsbl %al,%eax
    ffaa:	be 00 00 00 00       	mov    $0x0,%esi
    ffaf:	89 c7                	mov    %eax,%edi
    ffb1:	e8 3c 62 ff ff       	callq  61f2 <safe_sub_func_int8_t_s_s>
    ffb6:	48 c7 05 07 79 00 00 	movq   $0x0,0x7907(%rip)        # 178c8 <g_105>
    ffbd:	00 00 00 00 
    ffc1:	48 8b 05 00 79 00 00 	mov    0x7900(%rip),%rax        # 178c8 <g_105>
    ffc8:	48 8d 15 99 85 00 00 	lea    0x8599(%rip),%rdx        # 18568 <g_42>
    ffcf:	48 39 d0             	cmp    %rdx,%rax
    ffd2:	0f 95 c0             	setne  %al
    ffd5:	0f b6 d0             	movzbl %al,%edx
    ffd8:	48 8b 85 60 ff ff ff 	mov    -0xa0(%rbp),%rax
    ffdf:	0f b6 00             	movzbl (%rax),%eax
    ffe2:	89 c1                	mov    %eax,%ecx
    ffe4:	89 d0                	mov    %edx,%eax
    ffe6:	09 c8                	or     %ecx,%eax
    ffe8:	89 c2                	mov    %eax,%edx
    ffea:	48 8b 85 60 ff ff ff 	mov    -0xa0(%rbp),%rax
    fff1:	88 10                	mov    %dl,(%rax)
    fff3:	48 8b 85 60 ff ff ff 	mov    -0xa0(%rbp),%rax
    fffa:	0f b6 00             	movzbl (%rax),%eax
    fffd:	84 c0                	test   %al,%al
    ffff:	74 0c                	je     1000d <func_56+0x334>
   10001:	0f b7 85 7e ff ff ff 	movzwl -0x82(%rbp),%eax
   10008:	66 85 c0             	test   %ax,%ax
   1000b:	75 09                	jne    10016 <func_56+0x33d>
   1000d:	80 bd 27 ff ff ff 00 	cmpb   $0x0,-0xd9(%rbp)
   10014:	74 07                	je     1001d <func_56+0x344>
   10016:	b8 01 00 00 00       	mov    $0x1,%eax
   1001b:	eb 05                	jmp    10022 <func_56+0x349>
   1001d:	b8 00 00 00 00       	mov    $0x0,%eax
   10022:	48 98                	cltq   
   10024:	48 89 de             	mov    %rbx,%rsi
   10027:	48 89 c7             	mov    %rax,%rdi
   1002a:	e8 1c 70 ff ff       	callq  704b <safe_sub_func_uint64_t_u_u>
   1002f:	0f b6 05 36 60 00 00 	movzbl 0x6036(%rip),%eax        # 1606c <g_107>
   10036:	84 c0                	test   %al,%al
   10038:	0f 94 c0             	sete   %al
   1003b:	89 c2                	mov    %eax,%edx
   1003d:	48 8b 85 70 ff ff ff 	mov    -0x90(%rbp),%rax
   10044:	88 10                	mov    %dl,(%rax)
   10046:	8b 85 18 ff ff ff    	mov    -0xe8(%rbp),%eax
   1004c:	0f b7 c0             	movzwl %ax,%eax
   1004f:	8b 15 f7 5f 00 00    	mov    0x5ff7(%rip),%edx        # 1604c <g_41+0xc>
   10055:	89 c6                	mov    %eax,%esi
   10057:	89 d7                	mov    %edx,%edi
   10059:	e8 31 00 00 00       	callq  1008f <func_65>
   1005e:	48 89 05 6b 78 00 00 	mov    %rax,0x786b(%rip)        # 178d0 <g_117>
   10065:	8b 05 f5 5f 00 00    	mov    0x5ff5(%rip),%eax        # 16060 <g_91>
   1006b:	48 8b 5d d8          	mov    -0x28(%rbp),%rbx
   1006f:	64 48 33 1c 25 28 00 	xor    %fs:0x28,%rbx
   10076:	00 00 
   10078:	74 05                	je     1007f <func_56+0x3a6>
   1007a:	e8 f1 5f ff ff       	callq  6070 <__stack_chk_fail@plt>
   1007f:	48 81 c4 d0 00 00 00 	add    $0xd0,%rsp
   10086:	5b                   	pop    %rbx
   10087:	41 5c                	pop    %r12
   10089:	41 5d                	pop    %r13
   1008b:	41 5e                	pop    %r14
   1008d:	5d                   	pop    %rbp
   1008e:	c3                   	retq   

000000000001008f <func_65>:
   1008f:	f3 0f 1e fa          	endbr64 
   10093:	55                   	push   %rbp
   10094:	48 89 e5             	mov    %rsp,%rbp
   10097:	89 7d ec             	mov    %edi,-0x14(%rbp)
   1009a:	89 f0                	mov    %esi,%eax
   1009c:	66 89 45 e8          	mov    %ax,-0x18(%rbp)
   100a0:	48 c7 45 f0 00 00 00 	movq   $0x0,-0x10(%rbp)
   100a7:	00 
   100a8:	c6 05 bd 5f 00 00 fd 	movb   $0xfd,0x5fbd(%rip)        # 1606c <g_107>
   100af:	90                   	nop
   100b0:	0f b6 05 b5 5f 00 00 	movzbl 0x5fb5(%rip),%eax        # 1606c <g_107>
   100b7:	3c 29                	cmp    $0x29,%al
   100b9:	77 11                	ja     100cc <func_65+0x3d>
   100bb:	48 8d 05 a6 84 00 00 	lea    0x84a6(%rip),%rax        # 18568 <g_42>
   100c2:	48 89 45 f8          	mov    %rax,-0x8(%rbp)
   100c6:	48 8b 45 f8          	mov    -0x8(%rbp),%rax
   100ca:	eb 04                	jmp    100d0 <func_65+0x41>
   100cc:	48 8b 45 f0          	mov    -0x10(%rbp),%rax
   100d0:	5d                   	pop    %rbp
   100d1:	c3                   	retq   

00000000000100d2 <main>:
   100d2:	f3 0f 1e fa          	endbr64 
   100d6:	55                   	push   %rbp
   100d7:	48 89 e5             	mov    %rsp,%rbp
   100da:	48 83 ec 20          	sub    $0x20,%rsp
   100de:	89 7d ec             	mov    %edi,-0x14(%rbp)
   100e1:	48 89 75 e0          	mov    %rsi,-0x20(%rbp)
   100e5:	c7 45 fc 00 00 00 00 	movl   $0x0,-0x4(%rbp)
   100ec:	83 7d ec 02          	cmpl   $0x2,-0x14(%rbp)
   100f0:	75 25                	jne    10117 <main+0x45>
   100f2:	48 8b 45 e0          	mov    -0x20(%rbp),%rax
   100f6:	48 83 c0 08          	add    $0x8,%rax
   100fa:	48 8b 00             	mov    (%rax),%rax
   100fd:	48 8d 35 fc 2c 00 00 	lea    0x2cfc(%rip),%rsi        # 12e00 <g_2687+0x1d50>
   10104:	48 89 c7             	mov    %rax,%rdi
   10107:	e8 84 5f ff ff       	callq  6090 <strcmp@plt>
   1010c:	85 c0                	test   %eax,%eax
   1010e:	75 07                	jne    10117 <main+0x45>
   10110:	c7 45 fc 01 00 00 00 	movl   $0x1,-0x4(%rbp)
   10117:	e8 6d 60 ff ff       	callq  6189 <platform_main_begin>
   1011c:	e8 77 74 ff ff       	callq  7598 <crc32_gentab>
   10121:	e8 8f 76 ff ff       	callq  77b5 <func_1>
   10126:	0f b6 05 f7 5e 00 00 	movzbl 0x5ef7(%rip),%eax        # 16024 <g_2>
   1012d:	0f b6 c0             	movzbl %al,%eax
   10130:	8b 55 fc             	mov    -0x4(%rbp),%edx
   10133:	48 8d 35 c8 2c 00 00 	lea    0x2cc8(%rip),%rsi        # 12e02 <g_2687+0x1d52>
   1013a:	48 89 c7             	mov    %rax,%rdi
   1013d:	e8 b1 75 ff ff       	callq  76f3 <transparent_crc>
   10142:	c7 45 f0 00 00 00 00 	movl   $0x0,-0x10(%rbp)
   10149:	eb 4b                	jmp    10196 <main+0xc4>
   1014b:	8b 45 f0             	mov    -0x10(%rbp),%eax
   1014e:	48 98                	cltq   
   10150:	48 8d 14 85 00 00 00 	lea    0x0(,%rax,4),%rdx
   10157:	00 
   10158:	48 8d 05 e1 5e 00 00 	lea    0x5ee1(%rip),%rax        # 16040 <g_41>
   1015f:	8b 04 02             	mov    (%rdx,%rax,1),%eax
   10162:	48 98                	cltq   
   10164:	8b 55 fc             	mov    -0x4(%rbp),%edx
   10167:	48 8d 35 98 2c 00 00 	lea    0x2c98(%rip),%rsi        # 12e06 <g_2687+0x1d56>
   1016e:	48 89 c7             	mov    %rax,%rdi
   10171:	e8 7d 75 ff ff       	callq  76f3 <transparent_crc>
   10176:	83 7d fc 00          	cmpl   $0x0,-0x4(%rbp)
   1017a:	74 16                	je     10192 <main+0xc0>
   1017c:	8b 45 f0             	mov    -0x10(%rbp),%eax
   1017f:	89 c6                	mov    %eax,%esi
   10181:	48 8d 3d 86 2c 00 00 	lea    0x2c86(%rip),%rdi        # 12e0e <g_2687+0x1d5e>
   10188:	b8 00 00 00 00       	mov    $0x0,%eax
   1018d:	e8 ee 5e ff ff       	callq  6080 <printf@plt>
   10192:	83 45 f0 01          	addl   $0x1,-0x10(%rbp)
   10196:	83 7d f0 07          	cmpl   $0x7,-0x10(%rbp)
   1019a:	7e af                	jle    1014b <main+0x79>
   1019c:	8b 05 be 5e 00 00    	mov    0x5ebe(%rip),%eax        # 16060 <g_91>
   101a2:	89 c1                	mov    %eax,%ecx
   101a4:	8b 45 fc             	mov    -0x4(%rbp),%eax
   101a7:	89 c2                	mov    %eax,%edx
   101a9:	48 8d 35 6c 2c 00 00 	lea    0x2c6c(%rip),%rsi        # 12e1c <g_2687+0x1d6c>
   101b0:	48 89 cf             	mov    %rcx,%rdi
   101b3:	e8 3b 75 ff ff       	callq  76f3 <transparent_crc>
   101b8:	8b 05 a6 5e 00 00    	mov    0x5ea6(%rip),%eax        # 16064 <g_97>
   101be:	89 c1                	mov    %eax,%ecx
   101c0:	8b 45 fc             	mov    -0x4(%rbp),%eax
   101c3:	89 c2                	mov    %eax,%edx
   101c5:	48 8d 35 55 2c 00 00 	lea    0x2c55(%rip),%rsi        # 12e21 <g_2687+0x1d71>
   101cc:	48 89 cf             	mov    %rcx,%rdi
   101cf:	e8 1f 75 ff ff       	callq  76f3 <transparent_crc>
   101d4:	8b 05 8e 5e 00 00    	mov    0x5e8e(%rip),%eax        # 16068 <g_102>
   101da:	89 c1                	mov    %eax,%ecx
   101dc:	8b 45 fc             	mov    -0x4(%rbp),%eax
   101df:	89 c2                	mov    %eax,%edx
   101e1:	48 8d 35 3e 2c 00 00 	lea    0x2c3e(%rip),%rsi        # 12e26 <g_2687+0x1d76>
   101e8:	48 89 cf             	mov    %rcx,%rdi
   101eb:	e8 03 75 ff ff       	callq  76f3 <transparent_crc>
   101f0:	0f b6 05 75 5e 00 00 	movzbl 0x5e75(%rip),%eax        # 1606c <g_107>
   101f7:	0f b6 c0             	movzbl %al,%eax
   101fa:	8b 55 fc             	mov    -0x4(%rbp),%edx
   101fd:	48 8d 35 28 2c 00 00 	lea    0x2c28(%rip),%rsi        # 12e2c <g_2687+0x1d7c>
   10204:	48 89 c7             	mov    %rax,%rdi
   10207:	e8 e7 74 ff ff       	callq  76f3 <transparent_crc>
   1020c:	0f b6 05 5a 5e 00 00 	movzbl 0x5e5a(%rip),%eax        # 1606d <g_112>
   10213:	0f b6 c0             	movzbl %al,%eax
   10216:	8b 55 fc             	mov    -0x4(%rbp),%edx
   10219:	48 8d 35 12 2c 00 00 	lea    0x2c12(%rip),%rsi        # 12e32 <g_2687+0x1d82>
   10220:	48 89 c7             	mov    %rax,%rdi
   10223:	e8 cb 74 ff ff       	callq  76f3 <transparent_crc>
   10228:	c7 45 f0 00 00 00 00 	movl   $0x0,-0x10(%rbp)
   1022f:	eb 4d                	jmp    1027e <main+0x1ac>
   10231:	8b 45 f0             	mov    -0x10(%rbp),%eax
   10234:	48 98                	cltq   
   10236:	48 8d 14 85 00 00 00 	lea    0x0(,%rax,4),%rdx
   1023d:	00 
   1023e:	48 8d 05 3b 5e 00 00 	lea    0x5e3b(%rip),%rax        # 16080 <g_127>
   10245:	8b 04 02             	mov    (%rdx,%rax,1),%eax
   10248:	89 c1                	mov    %eax,%ecx
   1024a:	8b 45 fc             	mov    -0x4(%rbp),%eax
   1024d:	89 c2                	mov    %eax,%edx
   1024f:	48 8d 35 e2 2b 00 00 	lea    0x2be2(%rip),%rsi        # 12e38 <g_2687+0x1d88>
   10256:	48 89 cf             	mov    %rcx,%rdi
   10259:	e8 95 74 ff ff       	callq  76f3 <transparent_crc>
   1025e:	83 7d fc 00          	cmpl   $0x0,-0x4(%rbp)
   10262:	74 16                	je     1027a <main+0x1a8>
   10264:	8b 45 f0             	mov    -0x10(%rbp),%eax
   10267:	89 c6                	mov    %eax,%esi
   10269:	48 8d 3d 9e 2b 00 00 	lea    0x2b9e(%rip),%rdi        # 12e0e <g_2687+0x1d5e>
   10270:	b8 00 00 00 00       	mov    $0x0,%eax
   10275:	e8 06 5e ff ff       	callq  6080 <printf@plt>
   1027a:	83 45 f0 01          	addl   $0x1,-0x10(%rbp)
   1027e:	83 7d f0 09          	cmpl   $0x9,-0x10(%rbp)
   10282:	7e ad                	jle    10231 <main+0x15f>
   10284:	48 8b 05 1d 5e 00 00 	mov    0x5e1d(%rip),%rax        # 160a8 <g_152>
   1028b:	8b 55 fc             	mov    -0x4(%rbp),%edx
   1028e:	48 8d 35 ac 2b 00 00 	lea    0x2bac(%rip),%rsi        # 12e41 <g_2687+0x1d91>
   10295:	48 89 c7             	mov    %rax,%rdi
   10298:	e8 56 74 ff ff       	callq  76f3 <transparent_crc>
   1029d:	b8 83 22 42 29       	mov    $0x29422283,%eax
   102a2:	48 98                	cltq   
   102a4:	8b 55 fc             	mov    -0x4(%rbp),%edx
   102a7:	48 8d 35 99 2b 00 00 	lea    0x2b99(%rip),%rsi        # 12e47 <g_2687+0x1d97>
   102ae:	48 89 c7             	mov    %rax,%rdi
   102b1:	e8 3d 74 ff ff       	callq  76f3 <transparent_crc>
   102b6:	0f b6 05 f3 5d 00 00 	movzbl 0x5df3(%rip),%eax        # 160b0 <g_177>
   102bd:	48 0f be c0          	movsbq %al,%rax
   102c1:	8b 55 fc             	mov    -0x4(%rbp),%edx
   102c4:	48 8d 35 82 2b 00 00 	lea    0x2b82(%rip),%rsi        # 12e4d <g_2687+0x1d9d>
   102cb:	48 89 c7             	mov    %rax,%rdi
   102ce:	e8 20 74 ff ff       	callq  76f3 <transparent_crc>
   102d3:	c7 45 f0 00 00 00 00 	movl   $0x0,-0x10(%rbp)
   102da:	eb 4f                	jmp    1032b <main+0x259>
   102dc:	8b 45 f0             	mov    -0x10(%rbp),%eax
   102df:	48 98                	cltq   
   102e1:	48 8d 14 c5 00 00 00 	lea    0x0(,%rax,8),%rdx
   102e8:	00 
   102e9:	48 8d 05 d0 5d 00 00 	lea    0x5dd0(%rip),%rax        # 160c0 <g_189>
   102f0:	48 8b 04 02          	mov    (%rdx,%rax,1),%rax
   102f4:	48 89 c1             	mov    %rax,%rcx
   102f7:	8b 45 fc             	mov    -0x4(%rbp),%eax
   102fa:	89 c2                	mov    %eax,%edx
   102fc:	48 8d 35 50 2b 00 00 	lea    0x2b50(%rip),%rsi        # 12e53 <g_2687+0x1da3>
   10303:	48 89 cf             	mov    %rcx,%rdi
   10306:	e8 e8 73 ff ff       	callq  76f3 <transparent_crc>
   1030b:	83 7d fc 00          	cmpl   $0x0,-0x4(%rbp)
   1030f:	74 16                	je     10327 <main+0x255>
   10311:	8b 45 f0             	mov    -0x10(%rbp),%eax
   10314:	89 c6                	mov    %eax,%esi
   10316:	48 8d 3d f1 2a 00 00 	lea    0x2af1(%rip),%rdi        # 12e0e <g_2687+0x1d5e>
   1031d:	b8 00 00 00 00       	mov    $0x0,%eax
   10322:	e8 59 5d ff ff       	callq  6080 <printf@plt>
   10327:	83 45 f0 01          	addl   $0x1,-0x10(%rbp)
   1032b:	83 7d f0 01          	cmpl   $0x1,-0x10(%rbp)
   1032f:	7e ab                	jle    102dc <main+0x20a>
   10331:	48 8b 05 98 5d 00 00 	mov    0x5d98(%rip),%rax        # 160d0 <g_202>
   10338:	48 89 c1             	mov    %rax,%rcx
   1033b:	8b 45 fc             	mov    -0x4(%rbp),%eax
   1033e:	89 c2                	mov    %eax,%edx
   10340:	48 8d 35 15 2b 00 00 	lea    0x2b15(%rip),%rsi        # 12e5c <g_2687+0x1dac>
   10347:	48 89 cf             	mov    %rcx,%rdi
   1034a:	e8 a4 73 ff ff       	callq  76f3 <transparent_crc>
   1034f:	0f b7 05 82 5d 00 00 	movzwl 0x5d82(%rip),%eax        # 160d8 <g_216>
   10356:	0f b7 c0             	movzwl %ax,%eax
   10359:	8b 55 fc             	mov    -0x4(%rbp),%edx
   1035c:	48 8d 35 ff 2a 00 00 	lea    0x2aff(%rip),%rsi        # 12e62 <g_2687+0x1db2>
   10363:	48 89 c7             	mov    %rax,%rdi
   10366:	e8 88 73 ff ff       	callq  76f3 <transparent_crc>
   1036b:	0f b6 05 68 5d 00 00 	movzbl 0x5d68(%rip),%eax        # 160da <g_217>
   10372:	48 0f be c0          	movsbq %al,%rax
   10376:	8b 55 fc             	mov    -0x4(%rbp),%edx
   10379:	48 8d 35 e8 2a 00 00 	lea    0x2ae8(%rip),%rsi        # 12e68 <g_2687+0x1db8>
   10380:	48 89 c7             	mov    %rax,%rdi
   10383:	e8 6b 73 ff ff       	callq  76f3 <transparent_crc>
   10388:	8b 05 4e 5d 00 00    	mov    0x5d4e(%rip),%eax        # 160dc <g_272>
   1038e:	89 c1                	mov    %eax,%ecx
   10390:	8b 45 fc             	mov    -0x4(%rbp),%eax
   10393:	89 c2                	mov    %eax,%edx
   10395:	48 8d 35 d2 2a 00 00 	lea    0x2ad2(%rip),%rsi        # 12e6e <g_2687+0x1dbe>
   1039c:	48 89 cf             	mov    %rcx,%rdi
   1039f:	e8 4f 73 ff ff       	callq  76f3 <transparent_crc>
   103a4:	c7 45 f0 00 00 00 00 	movl   $0x0,-0x10(%rbp)
   103ab:	e9 9f 00 00 00       	jmpq   1044f <main+0x37d>
   103b0:	c7 45 f4 00 00 00 00 	movl   $0x0,-0xc(%rbp)
   103b7:	e9 85 00 00 00       	jmpq   10441 <main+0x36f>
   103bc:	c7 45 f8 00 00 00 00 	movl   $0x0,-0x8(%rbp)
   103c3:	eb 72                	jmp    10437 <main+0x365>
   103c5:	8b 45 f8             	mov    -0x8(%rbp),%eax
   103c8:	48 63 c8             	movslq %eax,%rcx
   103cb:	8b 45 f0             	mov    -0x10(%rbp),%eax
   103ce:	48 98                	cltq   
   103d0:	8b 55 f4             	mov    -0xc(%rbp),%edx
   103d3:	48 63 d2             	movslq %edx,%rdx
   103d6:	48 6b f0 5a          	imul   $0x5a,%rax,%rsi
   103da:	48 89 d0             	mov    %rdx,%rax
   103dd:	48 c1 e0 02          	shl    $0x2,%rax
   103e1:	48 01 d0             	add    %rdx,%rax
   103e4:	48 01 c0             	add    %rax,%rax
   103e7:	48 01 f0             	add    %rsi,%rax
   103ea:	48 8d 14 08          	lea    (%rax,%rcx,1),%rdx
   103ee:	48 8d 05 eb 5c 00 00 	lea    0x5ceb(%rip),%rax        # 160e0 <g_383>
   103f5:	48 01 d0             	add    %rdx,%rax
   103f8:	0f b6 00             	movzbl (%rax),%eax
   103fb:	48 0f be c0          	movsbq %al,%rax
   103ff:	8b 55 fc             	mov    -0x4(%rbp),%edx
   10402:	48 8d 35 6b 2a 00 00 	lea    0x2a6b(%rip),%rsi        # 12e74 <g_2687+0x1dc4>
   10409:	48 89 c7             	mov    %rax,%rdi
   1040c:	e8 e2 72 ff ff       	callq  76f3 <transparent_crc>
   10411:	83 7d fc 00          	cmpl   $0x0,-0x4(%rbp)
   10415:	74 1c                	je     10433 <main+0x361>
   10417:	8b 4d f8             	mov    -0x8(%rbp),%ecx
   1041a:	8b 55 f4             	mov    -0xc(%rbp),%edx
   1041d:	8b 45 f0             	mov    -0x10(%rbp),%eax
   10420:	89 c6                	mov    %eax,%esi
   10422:	48 8d 3d 5a 2a 00 00 	lea    0x2a5a(%rip),%rdi        # 12e83 <g_2687+0x1dd3>
   10429:	b8 00 00 00 00       	mov    $0x0,%eax
   1042e:	e8 4d 5c ff ff       	callq  6080 <printf@plt>
   10433:	83 45 f8 01          	addl   $0x1,-0x8(%rbp)
   10437:	83 7d f8 09          	cmpl   $0x9,-0x8(%rbp)
   1043b:	7e 88                	jle    103c5 <main+0x2f3>
   1043d:	83 45 f4 01          	addl   $0x1,-0xc(%rbp)
   10441:	83 7d f4 08          	cmpl   $0x8,-0xc(%rbp)
   10445:	0f 8e 71 ff ff ff    	jle    103bc <main+0x2ea>
   1044b:	83 45 f0 01          	addl   $0x1,-0x10(%rbp)
   1044f:	83 7d f0 00          	cmpl   $0x0,-0x10(%rbp)
   10453:	0f 8e 57 ff ff ff    	jle    103b0 <main+0x2de>
   10459:	0f b7 05 da 5c 00 00 	movzwl 0x5cda(%rip),%eax        # 1613a <g_493>
   10460:	48 0f bf c0          	movswq %ax,%rax
   10464:	8b 55 fc             	mov    -0x4(%rbp),%edx
   10467:	48 8d 35 2b 2a 00 00 	lea    0x2a2b(%rip),%rsi        # 12e99 <g_2687+0x1de9>
   1046e:	48 89 c7             	mov    %rax,%rdi
   10471:	e8 7d 72 ff ff       	callq  76f3 <transparent_crc>
   10476:	0f b6 05 bf 5c 00 00 	movzbl 0x5cbf(%rip),%eax        # 1613c <g_608>
   1047d:	48 0f be c0          	movsbq %al,%rax
   10481:	8b 55 fc             	mov    -0x4(%rbp),%edx
   10484:	48 8d 35 14 2a 00 00 	lea    0x2a14(%rip),%rsi        # 12e9f <g_2687+0x1def>
   1048b:	48 89 c7             	mov    %rax,%rdi
   1048e:	e8 60 72 ff ff       	callq  76f3 <transparent_crc>
   10493:	0f b7 05 a4 5c 00 00 	movzwl 0x5ca4(%rip),%eax        # 1613e <g_678>
   1049a:	48 0f bf c0          	movswq %ax,%rax
   1049e:	8b 55 fc             	mov    -0x4(%rbp),%edx
   104a1:	48 8d 35 fd 29 00 00 	lea    0x29fd(%rip),%rsi        # 12ea5 <g_2687+0x1df5>
   104a8:	48 89 c7             	mov    %rax,%rdi
   104ab:	e8 43 72 ff ff       	callq  76f3 <transparent_crc>
   104b0:	8b 05 8a 5c 00 00    	mov    0x5c8a(%rip),%eax        # 16140 <g_748>
   104b6:	48 98                	cltq   
   104b8:	8b 55 fc             	mov    -0x4(%rbp),%edx
   104bb:	48 8d 35 e9 29 00 00 	lea    0x29e9(%rip),%rsi        # 12eab <g_2687+0x1dfb>
   104c2:	48 89 c7             	mov    %rax,%rdi
   104c5:	e8 29 72 ff ff       	callq  76f3 <transparent_crc>
   104ca:	8b 05 74 5c 00 00    	mov    0x5c74(%rip),%eax        # 16144 <g_780>
   104d0:	48 98                	cltq   
   104d2:	8b 55 fc             	mov    -0x4(%rbp),%edx
   104d5:	48 8d 35 d5 29 00 00 	lea    0x29d5(%rip),%rsi        # 12eb1 <g_2687+0x1e01>
   104dc:	48 89 c7             	mov    %rax,%rdi
   104df:	e8 0f 72 ff ff       	callq  76f3 <transparent_crc>
   104e4:	c7 45 f0 00 00 00 00 	movl   $0x0,-0x10(%rbp)
   104eb:	eb 4f                	jmp    1053c <main+0x46a>
   104ed:	8b 45 f0             	mov    -0x10(%rbp),%eax
   104f0:	48 98                	cltq   
   104f2:	48 8d 14 c5 00 00 00 	lea    0x0(,%rax,8),%rdx
   104f9:	00 
   104fa:	48 8d 05 5f 0b 00 00 	lea    0xb5f(%rip),%rax        # 11060 <g_821>
   10501:	48 8b 04 02          	mov    (%rdx,%rax,1),%rax
   10505:	48 89 c1             	mov    %rax,%rcx
   10508:	8b 45 fc             	mov    -0x4(%rbp),%eax
   1050b:	89 c2                	mov    %eax,%edx
   1050d:	48 8d 35 a3 29 00 00 	lea    0x29a3(%rip),%rsi        # 12eb7 <g_2687+0x1e07>
   10514:	48 89 cf             	mov    %rcx,%rdi
   10517:	e8 d7 71 ff ff       	callq  76f3 <transparent_crc>
   1051c:	83 7d fc 00          	cmpl   $0x0,-0x4(%rbp)
   10520:	74 16                	je     10538 <main+0x466>
   10522:	8b 45 f0             	mov    -0x10(%rbp),%eax
   10525:	89 c6                	mov    %eax,%esi
   10527:	48 8d 3d e0 28 00 00 	lea    0x28e0(%rip),%rdi        # 12e0e <g_2687+0x1d5e>
   1052e:	b8 00 00 00 00       	mov    $0x0,%eax
   10533:	e8 48 5b ff ff       	callq  6080 <printf@plt>
   10538:	83 45 f0 01          	addl   $0x1,-0x10(%rbp)
   1053c:	83 7d f0 09          	cmpl   $0x9,-0x10(%rbp)
   10540:	7e ab                	jle    104ed <main+0x41b>
   10542:	8b 05 00 5c 00 00    	mov    0x5c00(%rip),%eax        # 16148 <g_967>
   10548:	48 98                	cltq   
   1054a:	8b 55 fc             	mov    -0x4(%rbp),%edx
   1054d:	48 8d 35 6c 29 00 00 	lea    0x296c(%rip),%rsi        # 12ec0 <g_2687+0x1e10>
   10554:	48 89 c7             	mov    %rax,%rdi
   10557:	e8 97 71 ff ff       	callq  76f3 <transparent_crc>
   1055c:	c7 45 f0 00 00 00 00 	movl   $0x0,-0x10(%rbp)
   10563:	e9 9e 00 00 00       	jmpq   10606 <main+0x534>
   10568:	c7 45 f4 00 00 00 00 	movl   $0x0,-0xc(%rbp)
   1056f:	e9 84 00 00 00       	jmpq   105f8 <main+0x526>
   10574:	c7 45 f8 00 00 00 00 	movl   $0x0,-0x8(%rbp)
   1057b:	eb 71                	jmp    105ee <main+0x51c>
   1057d:	8b 45 f8             	mov    -0x8(%rbp),%eax
   10580:	48 63 c8             	movslq %eax,%rcx
   10583:	8b 45 f0             	mov    -0x10(%rbp),%eax
   10586:	48 63 d0             	movslq %eax,%rdx
   10589:	8b 45 f4             	mov    -0xc(%rbp),%eax
   1058c:	48 98                	cltq   
   1058e:	48 01 c2             	add    %rax,%rdx
   10591:	48 89 d0             	mov    %rdx,%rax
   10594:	48 01 c0             	add    %rax,%rax
   10597:	48 01 d0             	add    %rdx,%rax
   1059a:	48 01 c0             	add    %rax,%rax
   1059d:	48 01 c8             	add    %rcx,%rax
   105a0:	48 8d 14 85 00 00 00 	lea    0x0(,%rax,4),%rdx
   105a7:	00 
   105a8:	48 8d 05 b1 5b 00 00 	lea    0x5bb1(%rip),%rax        # 16160 <g_1067>
   105af:	8b 04 02             	mov    (%rdx,%rax,1),%eax
   105b2:	89 c1                	mov    %eax,%ecx
   105b4:	8b 45 fc             	mov    -0x4(%rbp),%eax
   105b7:	89 c2                	mov    %eax,%edx
   105b9:	48 8d 35 06 29 00 00 	lea    0x2906(%rip),%rsi        # 12ec6 <g_2687+0x1e16>
   105c0:	48 89 cf             	mov    %rcx,%rdi
   105c3:	e8 2b 71 ff ff       	callq  76f3 <transparent_crc>
   105c8:	83 7d fc 00          	cmpl   $0x0,-0x4(%rbp)
   105cc:	74 1c                	je     105ea <main+0x518>
   105ce:	8b 4d f8             	mov    -0x8(%rbp),%ecx
   105d1:	8b 55 f4             	mov    -0xc(%rbp),%edx
   105d4:	8b 45 f0             	mov    -0x10(%rbp),%eax
   105d7:	89 c6                	mov    %eax,%esi
   105d9:	48 8d 3d a3 28 00 00 	lea    0x28a3(%rip),%rdi        # 12e83 <g_2687+0x1dd3>
   105e0:	b8 00 00 00 00       	mov    $0x0,%eax
   105e5:	e8 96 5a ff ff       	callq  6080 <printf@plt>
   105ea:	83 45 f8 01          	addl   $0x1,-0x8(%rbp)
   105ee:	83 7d f8 05          	cmpl   $0x5,-0x8(%rbp)
   105f2:	7e 89                	jle    1057d <main+0x4ab>
   105f4:	83 45 f4 01          	addl   $0x1,-0xc(%rbp)
   105f8:	83 7d f4 00          	cmpl   $0x0,-0xc(%rbp)
   105fc:	0f 8e 72 ff ff ff    	jle    10574 <main+0x4a2>
   10602:	83 45 f0 01          	addl   $0x1,-0x10(%rbp)
   10606:	83 7d f0 07          	cmpl   $0x7,-0x10(%rbp)
   1060a:	0f 8e 58 ff ff ff    	jle    10568 <main+0x496>
   10610:	0f b6 05 09 5c 00 00 	movzbl 0x5c09(%rip),%eax        # 16220 <g_1343>
   10617:	48 0f be c0          	movsbq %al,%rax
   1061b:	8b 55 fc             	mov    -0x4(%rbp),%edx
   1061e:	48 8d 35 b1 28 00 00 	lea    0x28b1(%rip),%rsi        # 12ed6 <g_2687+0x1e26>
   10625:	48 89 c7             	mov    %rax,%rdi
   10628:	e8 c6 70 ff ff       	callq  76f3 <transparent_crc>
   1062d:	8b 05 f1 5b 00 00    	mov    0x5bf1(%rip),%eax        # 16224 <g_1345>
   10633:	48 98                	cltq   
   10635:	8b 55 fc             	mov    -0x4(%rbp),%edx
   10638:	48 8d 35 9e 28 00 00 	lea    0x289e(%rip),%rsi        # 12edd <g_2687+0x1e2d>
   1063f:	48 89 c7             	mov    %rax,%rdi
   10642:	e8 ac 70 ff ff       	callq  76f3 <transparent_crc>
   10647:	0f b6 05 4a 7f 00 00 	movzbl 0x7f4a(%rip),%eax        # 18598 <g_1368>
   1064e:	0f b6 c0             	movzbl %al,%eax
   10651:	8b 55 fc             	mov    -0x4(%rbp),%edx
   10654:	48 8d 35 89 28 00 00 	lea    0x2889(%rip),%rsi        # 12ee4 <g_2687+0x1e34>
   1065b:	48 89 c7             	mov    %rax,%rdi
   1065e:	e8 90 70 ff ff       	callq  76f3 <transparent_crc>
   10663:	0f b7 05 be 5b 00 00 	movzwl 0x5bbe(%rip),%eax        # 16228 <g_1409>
   1066a:	0f b7 c0             	movzwl %ax,%eax
   1066d:	8b 55 fc             	mov    -0x4(%rbp),%edx
   10670:	48 8d 35 74 28 00 00 	lea    0x2874(%rip),%rsi        # 12eeb <g_2687+0x1e3b>
   10677:	48 89 c7             	mov    %rax,%rdi
   1067a:	e8 74 70 ff ff       	callq  76f3 <transparent_crc>
   1067f:	8b 05 a7 5b 00 00    	mov    0x5ba7(%rip),%eax        # 1622c <g_1494>
   10685:	48 98                	cltq   
   10687:	8b 55 fc             	mov    -0x4(%rbp),%edx
   1068a:	48 8d 35 61 28 00 00 	lea    0x2861(%rip),%rsi        # 12ef2 <g_2687+0x1e42>
   10691:	48 89 c7             	mov    %rax,%rdi
   10694:	e8 5a 70 ff ff       	callq  76f3 <transparent_crc>
   10699:	0f b6 05 90 5b 00 00 	movzbl 0x5b90(%rip),%eax        # 16230 <g_1501>
   106a0:	0f b6 c0             	movzbl %al,%eax
   106a3:	8b 55 fc             	mov    -0x4(%rbp),%edx
   106a6:	48 8d 35 4c 28 00 00 	lea    0x284c(%rip),%rsi        # 12ef9 <g_2687+0x1e49>
   106ad:	48 89 c7             	mov    %rax,%rdi
   106b0:	e8 3e 70 ff ff       	callq  76f3 <transparent_crc>
   106b5:	8b 05 79 5b 00 00    	mov    0x5b79(%rip),%eax        # 16234 <g_1502>
   106bb:	48 98                	cltq   
   106bd:	8b 55 fc             	mov    -0x4(%rbp),%edx
   106c0:	48 8d 35 39 28 00 00 	lea    0x2839(%rip),%rsi        # 12f00 <g_2687+0x1e50>
   106c7:	48 89 c7             	mov    %rax,%rdi
   106ca:	e8 24 70 ff ff       	callq  76f3 <transparent_crc>
   106cf:	0f b6 05 62 5b 00 00 	movzbl 0x5b62(%rip),%eax        # 16238 <g_1503>
   106d6:	48 0f be c0          	movsbq %al,%rax
   106da:	8b 55 fc             	mov    -0x4(%rbp),%edx
   106dd:	48 8d 35 23 28 00 00 	lea    0x2823(%rip),%rsi        # 12f07 <g_2687+0x1e57>
   106e4:	48 89 c7             	mov    %rax,%rdi
   106e7:	e8 07 70 ff ff       	callq  76f3 <transparent_crc>
   106ec:	0f b6 05 46 5b 00 00 	movzbl 0x5b46(%rip),%eax        # 16239 <g_1730>
   106f3:	0f b6 c0             	movzbl %al,%eax
   106f6:	8b 55 fc             	mov    -0x4(%rbp),%edx
   106f9:	48 8d 35 0e 28 00 00 	lea    0x280e(%rip),%rsi        # 12f0e <g_2687+0x1e5e>
   10700:	48 89 c7             	mov    %rax,%rdi
   10703:	e8 eb 6f ff ff       	callq  76f3 <transparent_crc>
   10708:	c7 45 f0 00 00 00 00 	movl   $0x0,-0x10(%rbp)
   1070f:	eb 4a                	jmp    1075b <main+0x689>
   10711:	8b 45 f0             	mov    -0x10(%rbp),%eax
   10714:	48 98                	cltq   
   10716:	48 8d 14 00          	lea    (%rax,%rax,1),%rdx
   1071a:	48 8d 05 1f 5b 00 00 	lea    0x5b1f(%rip),%rax        # 16240 <g_1832>
   10721:	0f b7 04 02          	movzwl (%rdx,%rax,1),%eax
   10725:	48 0f bf c0          	movswq %ax,%rax
   10729:	8b 55 fc             	mov    -0x4(%rbp),%edx
   1072c:	48 8d 35 e2 27 00 00 	lea    0x27e2(%rip),%rsi        # 12f15 <g_2687+0x1e65>
   10733:	48 89 c7             	mov    %rax,%rdi
   10736:	e8 b8 6f ff ff       	callq  76f3 <transparent_crc>
   1073b:	83 7d fc 00          	cmpl   $0x0,-0x4(%rbp)
   1073f:	74 16                	je     10757 <main+0x685>
   10741:	8b 45 f0             	mov    -0x10(%rbp),%eax
   10744:	89 c6                	mov    %eax,%esi
   10746:	48 8d 3d c1 26 00 00 	lea    0x26c1(%rip),%rdi        # 12e0e <g_2687+0x1d5e>
   1074d:	b8 00 00 00 00       	mov    $0x0,%eax
   10752:	e8 29 59 ff ff       	callq  6080 <printf@plt>
   10757:	83 45 f0 01          	addl   $0x1,-0x10(%rbp)
   1075b:	83 7d f0 06          	cmpl   $0x6,-0x10(%rbp)
   1075f:	7e b0                	jle    10711 <main+0x63f>
   10761:	0f b7 05 e6 5a 00 00 	movzwl 0x5ae6(%rip),%eax        # 1624e <g_1952>
   10768:	0f b7 c0             	movzwl %ax,%eax
   1076b:	8b 55 fc             	mov    -0x4(%rbp),%edx
   1076e:	48 8d 35 aa 27 00 00 	lea    0x27aa(%rip),%rsi        # 12f1f <g_2687+0x1e6f>
   10775:	48 89 c7             	mov    %rax,%rdi
   10778:	e8 76 6f ff ff       	callq  76f3 <transparent_crc>
   1077d:	c7 45 f0 00 00 00 00 	movl   $0x0,-0x10(%rbp)
   10784:	eb 77                	jmp    107fd <main+0x72b>
   10786:	c7 45 f4 00 00 00 00 	movl   $0x0,-0xc(%rbp)
   1078d:	eb 64                	jmp    107f3 <main+0x721>
   1078f:	8b 45 f4             	mov    -0xc(%rbp),%eax
   10792:	48 63 c8             	movslq %eax,%rcx
   10795:	8b 45 f0             	mov    -0x10(%rbp),%eax
   10798:	48 63 d0             	movslq %eax,%rdx
   1079b:	48 89 d0             	mov    %rdx,%rax
   1079e:	48 c1 e0 03          	shl    $0x3,%rax
   107a2:	48 29 d0             	sub    %rdx,%rax
   107a5:	48 01 c8             	add    %rcx,%rax
   107a8:	48 8d 14 85 00 00 00 	lea    0x0(,%rax,4),%rdx
   107af:	00 
   107b0:	48 8d 05 a9 5a 00 00 	lea    0x5aa9(%rip),%rax        # 16260 <g_2023>
   107b7:	8b 04 02             	mov    (%rdx,%rax,1),%eax
   107ba:	89 c1                	mov    %eax,%ecx
   107bc:	8b 45 fc             	mov    -0x4(%rbp),%eax
   107bf:	89 c2                	mov    %eax,%edx
   107c1:	48 8d 35 5e 27 00 00 	lea    0x275e(%rip),%rsi        # 12f26 <g_2687+0x1e76>
   107c8:	48 89 cf             	mov    %rcx,%rdi
   107cb:	e8 23 6f ff ff       	callq  76f3 <transparent_crc>
   107d0:	83 7d fc 00          	cmpl   $0x0,-0x4(%rbp)
   107d4:	74 19                	je     107ef <main+0x71d>
   107d6:	8b 55 f4             	mov    -0xc(%rbp),%edx
   107d9:	8b 45 f0             	mov    -0x10(%rbp),%eax
   107dc:	89 c6                	mov    %eax,%esi
   107de:	48 8d 3d 4e 27 00 00 	lea    0x274e(%rip),%rdi        # 12f33 <g_2687+0x1e83>
   107e5:	b8 00 00 00 00       	mov    $0x0,%eax
   107ea:	e8 91 58 ff ff       	callq  6080 <printf@plt>
   107ef:	83 45 f4 01          	addl   $0x1,-0xc(%rbp)
   107f3:	83 7d f4 06          	cmpl   $0x6,-0xc(%rbp)
   107f7:	7e 96                	jle    1078f <main+0x6bd>
   107f9:	83 45 f0 01          	addl   $0x1,-0x10(%rbp)
   107fd:	83 7d f0 02          	cmpl   $0x2,-0x10(%rbp)
   10801:	7e 83                	jle    10786 <main+0x6b4>
   10803:	8b 05 ab 5a 00 00    	mov    0x5aab(%rip),%eax        # 162b4 <g_2203>
   10809:	89 c1                	mov    %eax,%ecx
   1080b:	8b 45 fc             	mov    -0x4(%rbp),%eax
   1080e:	89 c2                	mov    %eax,%edx
   10810:	48 8d 35 2e 27 00 00 	lea    0x272e(%rip),%rsi        # 12f45 <g_2687+0x1e95>
   10817:	48 89 cf             	mov    %rcx,%rdi
   1081a:	e8 d4 6e ff ff       	callq  76f3 <transparent_crc>
   1081f:	8b 05 93 5a 00 00    	mov    0x5a93(%rip),%eax        # 162b8 <g_2225>
   10825:	48 98                	cltq   
   10827:	8b 55 fc             	mov    -0x4(%rbp),%edx
   1082a:	48 8d 35 1b 27 00 00 	lea    0x271b(%rip),%rsi        # 12f4c <g_2687+0x1e9c>
   10831:	48 89 c7             	mov    %rax,%rdi
   10834:	e8 ba 6e ff ff       	callq  76f3 <transparent_crc>
   10839:	48 8b 05 80 5a 00 00 	mov    0x5a80(%rip),%rax        # 162c0 <g_2432>
   10840:	8b 55 fc             	mov    -0x4(%rbp),%edx
   10843:	48 8d 35 09 27 00 00 	lea    0x2709(%rip),%rsi        # 12f53 <g_2687+0x1ea3>
   1084a:	48 89 c7             	mov    %rax,%rdi
   1084d:	e8 a1 6e ff ff       	callq  76f3 <transparent_crc>
   10852:	8b 05 70 5a 00 00    	mov    0x5a70(%rip),%eax        # 162c8 <g_2460>
   10858:	48 98                	cltq   
   1085a:	8b 55 fc             	mov    -0x4(%rbp),%edx
   1085d:	48 8d 35 f6 26 00 00 	lea    0x26f6(%rip),%rsi        # 12f5a <g_2687+0x1eaa>
   10864:	48 89 c7             	mov    %rax,%rdi
   10867:	e8 87 6e ff ff       	callq  76f3 <transparent_crc>
   1086c:	8b 05 5a 5a 00 00    	mov    0x5a5a(%rip),%eax        # 162cc <g_2461>
   10872:	48 98                	cltq   
   10874:	8b 55 fc             	mov    -0x4(%rbp),%edx
   10877:	48 8d 35 e3 26 00 00 	lea    0x26e3(%rip),%rsi        # 12f61 <g_2687+0x1eb1>
   1087e:	48 89 c7             	mov    %rax,%rdi
   10881:	e8 6d 6e ff ff       	callq  76f3 <transparent_crc>
   10886:	c7 45 f0 00 00 00 00 	movl   $0x0,-0x10(%rbp)
   1088d:	eb 45                	jmp    108d4 <main+0x802>
   1088f:	8b 45 f0             	mov    -0x10(%rbp),%eax
   10892:	48 98                	cltq   
   10894:	48 8d 15 35 5a 00 00 	lea    0x5a35(%rip),%rdx        # 162d0 <g_2631>
   1089b:	0f b6 04 10          	movzbl (%rax,%rdx,1),%eax
   1089f:	0f b6 c0             	movzbl %al,%eax
   108a2:	8b 55 fc             	mov    -0x4(%rbp),%edx
   108a5:	48 8d 35 bc 26 00 00 	lea    0x26bc(%rip),%rsi        # 12f68 <g_2687+0x1eb8>
   108ac:	48 89 c7             	mov    %rax,%rdi
   108af:	e8 3f 6e ff ff       	callq  76f3 <transparent_crc>
   108b4:	83 7d fc 00          	cmpl   $0x0,-0x4(%rbp)
   108b8:	74 16                	je     108d0 <main+0x7fe>
   108ba:	8b 45 f0             	mov    -0x10(%rbp),%eax
   108bd:	89 c6                	mov    %eax,%esi
   108bf:	48 8d 3d 48 25 00 00 	lea    0x2548(%rip),%rdi        # 12e0e <g_2687+0x1d5e>
   108c6:	b8 00 00 00 00       	mov    $0x0,%eax
   108cb:	e8 b0 57 ff ff       	callq  6080 <printf@plt>
   108d0:	83 45 f0 01          	addl   $0x1,-0x10(%rbp)
   108d4:	83 7d f0 02          	cmpl   $0x2,-0x10(%rbp)
   108d8:	7e b5                	jle    1088f <main+0x7bd>
   108da:	48 8b 05 f7 59 00 00 	mov    0x59f7(%rip),%rax        # 162d8 <g_2676>
   108e1:	48 89 c1             	mov    %rax,%rcx
   108e4:	8b 45 fc             	mov    -0x4(%rbp),%eax
   108e7:	89 c2                	mov    %eax,%edx
   108e9:	48 8d 35 82 26 00 00 	lea    0x2682(%rip),%rsi        # 12f72 <g_2687+0x1ec2>
   108f0:	48 89 cf             	mov    %rcx,%rdi
   108f3:	e8 fb 6d ff ff       	callq  76f3 <transparent_crc>
   108f8:	b8 13 95 03 7a       	mov    $0x7a039513,%eax
   108fd:	48 98                	cltq   
   108ff:	8b 55 fc             	mov    -0x4(%rbp),%edx
   10902:	48 8d 35 70 26 00 00 	lea    0x2670(%rip),%rsi        # 12f79 <g_2687+0x1ec9>
   10909:	48 89 c7             	mov    %rax,%rdi
   1090c:	e8 e2 6d ff ff       	callq  76f3 <transparent_crc>
   10911:	c7 45 f0 00 00 00 00 	movl   $0x0,-0x10(%rbp)
   10918:	eb 73                	jmp    1098d <main+0x8bb>
   1091a:	c7 45 f4 00 00 00 00 	movl   $0x0,-0xc(%rbp)
   10921:	eb 60                	jmp    10983 <main+0x8b1>
   10923:	8b 45 f4             	mov    -0xc(%rbp),%eax
   10926:	48 63 c8             	movslq %eax,%rcx
   10929:	8b 45 f0             	mov    -0x10(%rbp),%eax
   1092c:	48 63 d0             	movslq %eax,%rdx
   1092f:	48 89 d0             	mov    %rdx,%rax
   10932:	48 c1 e0 03          	shl    $0x3,%rax
   10936:	48 29 d0             	sub    %rdx,%rax
   10939:	48 8d 14 08          	lea    (%rax,%rcx,1),%rdx
   1093d:	48 8d 05 9c 59 00 00 	lea    0x599c(%rip),%rax        # 162e0 <g_2774>
   10944:	48 01 d0             	add    %rdx,%rax
   10947:	0f b6 00             	movzbl (%rax),%eax
   1094a:	48 0f be c0          	movsbq %al,%rax
   1094e:	8b 55 fc             	mov    -0x4(%rbp),%edx
   10951:	48 8d 35 28 26 00 00 	lea    0x2628(%rip),%rsi        # 12f80 <g_2687+0x1ed0>
   10958:	48 89 c7             	mov    %rax,%rdi
   1095b:	e8 93 6d ff ff       	callq  76f3 <transparent_crc>
   10960:	83 7d fc 00          	cmpl   $0x0,-0x4(%rbp)
   10964:	74 19                	je     1097f <main+0x8ad>
   10966:	8b 55 f4             	mov    -0xc(%rbp),%edx
   10969:	8b 45 f0             	mov    -0x10(%rbp),%eax
   1096c:	89 c6                	mov    %eax,%esi
   1096e:	48 8d 3d be 25 00 00 	lea    0x25be(%rip),%rdi        # 12f33 <g_2687+0x1e83>
   10975:	b8 00 00 00 00       	mov    $0x0,%eax
   1097a:	e8 01 57 ff ff       	callq  6080 <printf@plt>
   1097f:	83 45 f4 01          	addl   $0x1,-0xc(%rbp)
   10983:	83 7d f4 06          	cmpl   $0x6,-0xc(%rbp)
   10987:	7e 9a                	jle    10923 <main+0x851>
   10989:	83 45 f0 01          	addl   $0x1,-0x10(%rbp)
   1098d:	83 7d f0 05          	cmpl   $0x5,-0x10(%rbp)
   10991:	7e 87                	jle    1091a <main+0x848>
   10993:	8b 05 77 7c 00 00    	mov    0x7c77(%rip),%eax        # 18610 <g_2828>
   10999:	48 98                	cltq   
   1099b:	8b 55 fc             	mov    -0x4(%rbp),%edx
   1099e:	48 8d 35 e8 25 00 00 	lea    0x25e8(%rip),%rsi        # 12f8d <g_2687+0x1edd>
   109a5:	48 89 c7             	mov    %rax,%rdi
   109a8:	e8 46 6d ff ff       	callq  76f3 <transparent_crc>
   109ad:	8b 05 59 59 00 00    	mov    0x5959(%rip),%eax        # 1630c <g_2910>
   109b3:	89 c1                	mov    %eax,%ecx
   109b5:	8b 45 fc             	mov    -0x4(%rbp),%eax
   109b8:	89 c2                	mov    %eax,%edx
   109ba:	48 8d 35 d3 25 00 00 	lea    0x25d3(%rip),%rsi        # 12f94 <g_2687+0x1ee4>
   109c1:	48 89 cf             	mov    %rcx,%rdi
   109c4:	e8 2a 6d ff ff       	callq  76f3 <transparent_crc>
   109c9:	8b 05 41 59 00 00    	mov    0x5941(%rip),%eax        # 16310 <g_2953>
   109cf:	89 c1                	mov    %eax,%ecx
   109d1:	8b 45 fc             	mov    -0x4(%rbp),%eax
   109d4:	89 c2                	mov    %eax,%edx
   109d6:	48 8d 35 be 25 00 00 	lea    0x25be(%rip),%rsi        # 12f9b <g_2687+0x1eeb>
   109dd:	48 89 cf             	mov    %rcx,%rdi
   109e0:	e8 0e 6d ff ff       	callq  76f3 <transparent_crc>
   109e5:	8b 05 29 59 00 00    	mov    0x5929(%rip),%eax        # 16314 <g_2998>
   109eb:	48 98                	cltq   
   109ed:	8b 55 fc             	mov    -0x4(%rbp),%edx
   109f0:	48 8d 35 ab 25 00 00 	lea    0x25ab(%rip),%rsi        # 12fa2 <g_2687+0x1ef2>
   109f7:	48 89 c7             	mov    %rax,%rdi
   109fa:	e8 f4 6c ff ff       	callq  76f3 <transparent_crc>
   109ff:	8b 05 13 59 00 00    	mov    0x5913(%rip),%eax        # 16318 <g_3059>
   10a05:	48 98                	cltq   
   10a07:	8b 55 fc             	mov    -0x4(%rbp),%edx
   10a0a:	48 8d 35 98 25 00 00 	lea    0x2598(%rip),%rsi        # 12fa9 <g_2687+0x1ef9>
   10a11:	48 89 c7             	mov    %rax,%rdi
   10a14:	e8 da 6c ff ff       	callq  76f3 <transparent_crc>
   10a19:	8b 05 01 56 00 00    	mov    0x5601(%rip),%eax        # 16020 <crc32_context>
   10a1f:	f7 d0                	not    %eax
   10a21:	89 c2                	mov    %eax,%edx
   10a23:	8b 45 fc             	mov    -0x4(%rbp),%eax
   10a26:	89 c6                	mov    %eax,%esi
   10a28:	89 d7                	mov    %edx,%edi
   10a2a:	e8 65 57 ff ff       	callq  6194 <platform_main_end>
   10a2f:	b8 00 00 00 00       	mov    $0x0,%eax
   10a34:	c9                   	leaveq 
   10a35:	c3                   	retq   
   10a36:	66 2e 0f 1f 84 00 00 	nopw   %cs:0x0(%rax,%rax,1)
   10a3d:	00 00 00 

0000000000010a40 <__libc_csu_init>:
   10a40:	f3 0f 1e fa          	endbr64 
   10a44:	41 57                	push   %r15
   10a46:	4c 8d 3d 03 53 00 00 	lea    0x5303(%rip),%r15        # 15d50 <__frame_dummy_init_array_entry>
   10a4d:	41 56                	push   %r14
   10a4f:	49 89 d6             	mov    %rdx,%r14
   10a52:	41 55                	push   %r13
   10a54:	49 89 f5             	mov    %rsi,%r13
   10a57:	41 54                	push   %r12
   10a59:	41 89 fc             	mov    %edi,%r12d
   10a5c:	55                   	push   %rbp
   10a5d:	48 8d 2d f4 52 00 00 	lea    0x52f4(%rip),%rbp        # 15d58 <__do_global_dtors_aux_fini_array_entry>
   10a64:	53                   	push   %rbx
   10a65:	4c 29 fd             	sub    %r15,%rbp
   10a68:	48 83 ec 08          	sub    $0x8,%rsp
   10a6c:	e8 8f 55 ff ff       	callq  6000 <_init>
   10a71:	48 c1 fd 03          	sar    $0x3,%rbp
   10a75:	74 1f                	je     10a96 <__libc_csu_init+0x56>
   10a77:	31 db                	xor    %ebx,%ebx
   10a79:	0f 1f 80 00 00 00 00 	nopl   0x0(%rax)
   10a80:	4c 89 f2             	mov    %r14,%rdx
   10a83:	4c 89 ee             	mov    %r13,%rsi
   10a86:	44 89 e7             	mov    %r12d,%edi
   10a89:	41 ff 14 df          	callq  *(%r15,%rbx,8)
   10a8d:	48 83 c3 01          	add    $0x1,%rbx
   10a91:	48 39 dd             	cmp    %rbx,%rbp
   10a94:	75 ea                	jne    10a80 <__libc_csu_init+0x40>
   10a96:	48 83 c4 08          	add    $0x8,%rsp
   10a9a:	5b                   	pop    %rbx
   10a9b:	5d                   	pop    %rbp
   10a9c:	41 5c                	pop    %r12
   10a9e:	41 5d                	pop    %r13
   10aa0:	41 5e                	pop    %r14
   10aa2:	41 5f                	pop    %r15
   10aa4:	c3                   	retq   
   10aa5:	66 66 2e 0f 1f 84 00 	data16 nopw %cs:0x0(%rax,%rax,1)
   10aac:	00 00 00 00 

0000000000010ab0 <__libc_csu_fini>:
   10ab0:	f3 0f 1e fa          	endbr64 
   10ab4:	c3                   	retq   
