


Disassembly of section .text:

00000000000080a0 <_start>:
    80a0:	f3 0f 1e fa          	endbr64 
    80a4:	31 ed                	xor    %ebp,%ebp
    80a6:	49 89 d1             	mov    %rdx,%r9
    80a9:	5e                   	pop    %rsi
    80aa:	48 89 e2             	mov    %rsp,%rdx
    80ad:	48 83 e4 f0          	and    $0xfffffffffffffff0,%rsp
    80b1:	50                   	push   %rax
    80b2:	54                   	push   %rsp
    80b3:	4c 8d 05 c6 79 00 00 	lea    0x79c6(%rip),%r8        # fa80 <__libc_csu_fini>
    80ba:	48 8d 0d 4f 79 00 00 	lea    0x794f(%rip),%rcx        # fa10 <__libc_csu_init>
    80c1:	48 8d 3d e7 4e 00 00 	lea    0x4ee7(%rip),%rdi        # cfaf <main>
    80c8:	ff 15 fa be 00 00    	callq  *0xbefa(%rip)        # 13fc8 <__libc_start_main@GLIBC_2.2.5>
    80ce:	f4                   	hlt    
    80cf:	90                   	nop

00000000000080d0 <deregister_tm_clones>:
    80d0:	48 8d 3d c1 f7 00 00 	lea    0xf7c1(%rip),%rdi        # 17898 <__TMC_END__>
    80d7:	48 8d 05 ba f7 00 00 	lea    0xf7ba(%rip),%rax        # 17898 <__TMC_END__>
    80de:	48 39 f8             	cmp    %rdi,%rax
    80e1:	74 15                	je     80f8 <deregister_tm_clones+0x28>
    80e3:	48 8b 05 d6 be 00 00 	mov    0xbed6(%rip),%rax        # 13fc0 <_ITM_deregisterTMCloneTable>
    80ea:	48 85 c0             	test   %rax,%rax
    80ed:	74 09                	je     80f8 <deregister_tm_clones+0x28>
    80ef:	ff e0                	jmpq   *%rax
    80f1:	0f 1f 80 00 00 00 00 	nopl   0x0(%rax)
    80f8:	c3                   	retq   
    80f9:	0f 1f 80 00 00 00 00 	nopl   0x0(%rax)

0000000000008100 <register_tm_clones>:
    8100:	48 8d 3d 91 f7 00 00 	lea    0xf791(%rip),%rdi        # 17898 <__TMC_END__>
    8107:	48 8d 35 8a f7 00 00 	lea    0xf78a(%rip),%rsi        # 17898 <__TMC_END__>
    810e:	48 29 fe             	sub    %rdi,%rsi
    8111:	48 89 f0             	mov    %rsi,%rax
    8114:	48 c1 ee 3f          	shr    $0x3f,%rsi
    8118:	48 c1 f8 03          	sar    $0x3,%rax
    811c:	48 01 c6             	add    %rax,%rsi
    811f:	48 d1 fe             	sar    %rsi
    8122:	74 14                	je     8138 <register_tm_clones+0x38>
    8124:	48 8b 05 ad be 00 00 	mov    0xbead(%rip),%rax        # 13fd8 <_ITM_registerTMCloneTable>
    812b:	48 85 c0             	test   %rax,%rax
    812e:	74 08                	je     8138 <register_tm_clones+0x38>
    8130:	ff e0                	jmpq   *%rax
    8132:	66 0f 1f 44 00 00    	nopw   0x0(%rax,%rax,1)
    8138:	c3                   	retq   
    8139:	0f 1f 80 00 00 00 00 	nopl   0x0(%rax)

0000000000008140 <__do_global_dtors_aux>:
    8140:	f3 0f 1e fa          	endbr64 
    8144:	80 3d 55 f7 00 00 00 	cmpb   $0x0,0xf755(%rip)        # 178a0 <completed.8061>
    814b:	75 2b                	jne    8178 <__do_global_dtors_aux+0x38>
    814d:	55                   	push   %rbp
    814e:	48 83 3d 8a be 00 00 	cmpq   $0x0,0xbe8a(%rip)        # 13fe0 <__cxa_finalize@GLIBC_2.2.5>
    8155:	00 
    8156:	48 89 e5             	mov    %rsp,%rbp
    8159:	74 0c                	je     8167 <__do_global_dtors_aux+0x27>
    815b:	48 8b 3d a6 be 00 00 	mov    0xbea6(%rip),%rdi        # 14008 <__dso_handle>
    8162:	e8 f9 fe ff ff       	callq  8060 <__cxa_finalize@plt>
    8167:	e8 64 ff ff ff       	callq  80d0 <deregister_tm_clones>
    816c:	c6 05 2d f7 00 00 01 	movb   $0x1,0xf72d(%rip)        # 178a0 <completed.8061>
    8173:	5d                   	pop    %rbp
    8174:	c3                   	retq   
    8175:	0f 1f 00             	nopl   (%rax)
    8178:	c3                   	retq   
    8179:	0f 1f 80 00 00 00 00 	nopl   0x0(%rax)

0000000000008180 <frame_dummy>:
    8180:	f3 0f 1e fa          	endbr64 
    8184:	e9 77 ff ff ff       	jmpq   8100 <register_tm_clones>

0000000000008189 <platform_main_begin>:
    8189:	f3 0f 1e fa          	endbr64 
    818d:	55                   	push   %rbp
    818e:	48 89 e5             	mov    %rsp,%rbp
    8191:	90                   	nop
    8192:	5d                   	pop    %rbp
    8193:	c3                   	retq   

0000000000008194 <platform_main_end>:
    8194:	f3 0f 1e fa          	endbr64 
    8198:	55                   	push   %rbp
    8199:	48 89 e5             	mov    %rsp,%rbp
    819c:	48 83 ec 10          	sub    $0x10,%rsp
    81a0:	89 7d fc             	mov    %edi,-0x4(%rbp)
    81a3:	89 75 f8             	mov    %esi,-0x8(%rbp)
    81a6:	8b 45 fc             	mov    -0x4(%rbp),%eax
    81a9:	89 c6                	mov    %eax,%esi
    81ab:	48 8d 3d 6e 7e 00 00 	lea    0x7e6e(%rip),%rdi        # 10020 <_IO_stdin_used+0x20>
    81b2:	b8 00 00 00 00       	mov    $0x0,%eax
    81b7:	e8 c4 fe ff ff       	callq  8080 <printf@plt>
    81bc:	90                   	nop
    81bd:	c9                   	leaveq 
    81be:	c3                   	retq   

00000000000081bf <safe_unary_minus_func_int8_t_s>:
    81bf:	f3 0f 1e fa          	endbr64 
    81c3:	55                   	push   %rbp
    81c4:	48 89 e5             	mov    %rsp,%rbp
    81c7:	89 f8                	mov    %edi,%eax
    81c9:	88 45 fc             	mov    %al,-0x4(%rbp)
    81cc:	0f b6 45 fc          	movzbl -0x4(%rbp),%eax
    81d0:	f7 d8                	neg    %eax
    81d2:	5d                   	pop    %rbp
    81d3:	c3                   	retq   

00000000000081d4 <safe_add_func_int8_t_s_s>:
    81d4:	f3 0f 1e fa          	endbr64 
    81d8:	55                   	push   %rbp
    81d9:	48 89 e5             	mov    %rsp,%rbp
    81dc:	89 fa                	mov    %edi,%edx
    81de:	89 f0                	mov    %esi,%eax
    81e0:	88 55 fc             	mov    %dl,-0x4(%rbp)
    81e3:	88 45 f8             	mov    %al,-0x8(%rbp)
    81e6:	0f b6 55 fc          	movzbl -0x4(%rbp),%edx
    81ea:	0f b6 45 f8          	movzbl -0x8(%rbp),%eax
    81ee:	01 d0                	add    %edx,%eax
    81f0:	5d                   	pop    %rbp
    81f1:	c3                   	retq   

00000000000081f2 <safe_sub_func_int8_t_s_s>:
    81f2:	f3 0f 1e fa          	endbr64 
    81f6:	55                   	push   %rbp
    81f7:	48 89 e5             	mov    %rsp,%rbp
    81fa:	89 fa                	mov    %edi,%edx
    81fc:	89 f0                	mov    %esi,%eax
    81fe:	88 55 fc             	mov    %dl,-0x4(%rbp)
    8201:	88 45 f8             	mov    %al,-0x8(%rbp)
    8204:	0f b6 55 fc          	movzbl -0x4(%rbp),%edx
    8208:	0f b6 45 f8          	movzbl -0x8(%rbp),%eax
    820c:	29 c2                	sub    %eax,%edx
    820e:	89 d0                	mov    %edx,%eax
    8210:	5d                   	pop    %rbp
    8211:	c3                   	retq   

0000000000008212 <safe_mul_func_int8_t_s_s>:
    8212:	f3 0f 1e fa          	endbr64 
    8216:	55                   	push   %rbp
    8217:	48 89 e5             	mov    %rsp,%rbp
    821a:	89 fa                	mov    %edi,%edx
    821c:	89 f0                	mov    %esi,%eax
    821e:	88 55 fc             	mov    %dl,-0x4(%rbp)
    8221:	88 45 f8             	mov    %al,-0x8(%rbp)
    8224:	0f b6 45 fc          	movzbl -0x4(%rbp),%eax
    8228:	0f b6 55 f8          	movzbl -0x8(%rbp),%edx
    822c:	0f af c2             	imul   %edx,%eax
    822f:	5d                   	pop    %rbp
    8230:	c3                   	retq   

0000000000008231 <safe_mod_func_int8_t_s_s>:
    8231:	f3 0f 1e fa          	endbr64 
    8235:	55                   	push   %rbp
    8236:	48 89 e5             	mov    %rsp,%rbp
    8239:	89 fa                	mov    %edi,%edx
    823b:	89 f0                	mov    %esi,%eax
    823d:	88 55 fc             	mov    %dl,-0x4(%rbp)
    8240:	88 45 f8             	mov    %al,-0x8(%rbp)
    8243:	80 7d f8 00          	cmpb   $0x0,-0x8(%rbp)
    8247:	74 1b                	je     8264 <safe_mod_func_int8_t_s_s+0x33>
    8249:	80 7d fc 80          	cmpb   $0x80,-0x4(%rbp)
    824d:	75 06                	jne    8255 <safe_mod_func_int8_t_s_s+0x24>
    824f:	80 7d f8 ff          	cmpb   $0xff,-0x8(%rbp)
    8253:	74 0f                	je     8264 <safe_mod_func_int8_t_s_s+0x33>
    8255:	0f be 45 fc          	movsbl -0x4(%rbp),%eax
    8259:	0f be 4d f8          	movsbl -0x8(%rbp),%ecx
    825d:	99                   	cltd   
    825e:	f7 f9                	idiv   %ecx
    8260:	89 d0                	mov    %edx,%eax
    8262:	eb 04                	jmp    8268 <safe_mod_func_int8_t_s_s+0x37>
    8264:	0f b6 45 fc          	movzbl -0x4(%rbp),%eax
    8268:	5d                   	pop    %rbp
    8269:	c3                   	retq   

000000000000826a <safe_div_func_int8_t_s_s>:
    826a:	f3 0f 1e fa          	endbr64 
    826e:	55                   	push   %rbp
    826f:	48 89 e5             	mov    %rsp,%rbp
    8272:	89 fa                	mov    %edi,%edx
    8274:	89 f0                	mov    %esi,%eax
    8276:	88 55 fc             	mov    %dl,-0x4(%rbp)
    8279:	88 45 f8             	mov    %al,-0x8(%rbp)
    827c:	80 7d f8 00          	cmpb   $0x0,-0x8(%rbp)
    8280:	74 19                	je     829b <safe_div_func_int8_t_s_s+0x31>
    8282:	80 7d fc 80          	cmpb   $0x80,-0x4(%rbp)
    8286:	75 06                	jne    828e <safe_div_func_int8_t_s_s+0x24>
    8288:	80 7d f8 ff          	cmpb   $0xff,-0x8(%rbp)
    828c:	74 0d                	je     829b <safe_div_func_int8_t_s_s+0x31>
    828e:	0f be 45 fc          	movsbl -0x4(%rbp),%eax
    8292:	0f be 4d f8          	movsbl -0x8(%rbp),%ecx
    8296:	99                   	cltd   
    8297:	f7 f9                	idiv   %ecx
    8299:	eb 04                	jmp    829f <safe_div_func_int8_t_s_s+0x35>
    829b:	0f b6 45 fc          	movzbl -0x4(%rbp),%eax
    829f:	5d                   	pop    %rbp
    82a0:	c3                   	retq   

00000000000082a1 <safe_lshift_func_int8_t_s_s>:
    82a1:	f3 0f 1e fa          	endbr64 
    82a5:	55                   	push   %rbp
    82a6:	48 89 e5             	mov    %rsp,%rbp
    82a9:	89 f8                	mov    %edi,%eax
    82ab:	89 75 f8             	mov    %esi,-0x8(%rbp)
    82ae:	88 45 fc             	mov    %al,-0x4(%rbp)
    82b1:	80 7d fc 00          	cmpb   $0x0,-0x4(%rbp)
    82b5:	78 31                	js     82e8 <safe_lshift_func_int8_t_s_s+0x47>
    82b7:	83 7d f8 00          	cmpl   $0x0,-0x8(%rbp)
    82bb:	78 2b                	js     82e8 <safe_lshift_func_int8_t_s_s+0x47>
    82bd:	83 7d f8 1f          	cmpl   $0x1f,-0x8(%rbp)
    82c1:	7f 25                	jg     82e8 <safe_lshift_func_int8_t_s_s+0x47>
    82c3:	0f be 55 fc          	movsbl -0x4(%rbp),%edx
    82c7:	8b 45 f8             	mov    -0x8(%rbp),%eax
    82ca:	be 7f 00 00 00       	mov    $0x7f,%esi
    82cf:	89 c1                	mov    %eax,%ecx
    82d1:	d3 fe                	sar    %cl,%esi
    82d3:	89 f0                	mov    %esi,%eax
    82d5:	39 c2                	cmp    %eax,%edx
    82d7:	7f 0f                	jg     82e8 <safe_lshift_func_int8_t_s_s+0x47>
    82d9:	0f be 55 fc          	movsbl -0x4(%rbp),%edx
    82dd:	8b 45 f8             	mov    -0x8(%rbp),%eax
    82e0:	89 c1                	mov    %eax,%ecx
    82e2:	d3 e2                	shl    %cl,%edx
    82e4:	89 d0                	mov    %edx,%eax
    82e6:	eb 04                	jmp    82ec <safe_lshift_func_int8_t_s_s+0x4b>
    82e8:	0f b6 45 fc          	movzbl -0x4(%rbp),%eax
    82ec:	5d                   	pop    %rbp
    82ed:	c3                   	retq   

00000000000082ee <safe_lshift_func_int8_t_s_u>:
    82ee:	f3 0f 1e fa          	endbr64 
    82f2:	55                   	push   %rbp
    82f3:	48 89 e5             	mov    %rsp,%rbp
    82f6:	89 f8                	mov    %edi,%eax
    82f8:	89 75 f8             	mov    %esi,-0x8(%rbp)
    82fb:	88 45 fc             	mov    %al,-0x4(%rbp)
    82fe:	80 7d fc 00          	cmpb   $0x0,-0x4(%rbp)
    8302:	78 2b                	js     832f <safe_lshift_func_int8_t_s_u+0x41>
    8304:	83 7d f8 1f          	cmpl   $0x1f,-0x8(%rbp)
    8308:	77 25                	ja     832f <safe_lshift_func_int8_t_s_u+0x41>
    830a:	0f be 55 fc          	movsbl -0x4(%rbp),%edx
    830e:	8b 45 f8             	mov    -0x8(%rbp),%eax
    8311:	be 7f 00 00 00       	mov    $0x7f,%esi
    8316:	89 c1                	mov    %eax,%ecx
    8318:	d3 fe                	sar    %cl,%esi
    831a:	89 f0                	mov    %esi,%eax
    831c:	39 c2                	cmp    %eax,%edx
    831e:	7f 0f                	jg     832f <safe_lshift_func_int8_t_s_u+0x41>
    8320:	0f be 55 fc          	movsbl -0x4(%rbp),%edx
    8324:	8b 45 f8             	mov    -0x8(%rbp),%eax
    8327:	89 c1                	mov    %eax,%ecx
    8329:	d3 e2                	shl    %cl,%edx
    832b:	89 d0                	mov    %edx,%eax
    832d:	eb 04                	jmp    8333 <safe_lshift_func_int8_t_s_u+0x45>
    832f:	0f b6 45 fc          	movzbl -0x4(%rbp),%eax
    8333:	5d                   	pop    %rbp
    8334:	c3                   	retq   

0000000000008335 <safe_rshift_func_int8_t_s_s>:
    8335:	f3 0f 1e fa          	endbr64 
    8339:	55                   	push   %rbp
    833a:	48 89 e5             	mov    %rsp,%rbp
    833d:	89 f8                	mov    %edi,%eax
    833f:	89 75 f8             	mov    %esi,-0x8(%rbp)
    8342:	88 45 fc             	mov    %al,-0x4(%rbp)
    8345:	80 7d fc 00          	cmpb   $0x0,-0x4(%rbp)
    8349:	78 1b                	js     8366 <safe_rshift_func_int8_t_s_s+0x31>
    834b:	83 7d f8 00          	cmpl   $0x0,-0x8(%rbp)
    834f:	78 15                	js     8366 <safe_rshift_func_int8_t_s_s+0x31>
    8351:	83 7d f8 1f          	cmpl   $0x1f,-0x8(%rbp)
    8355:	7f 0f                	jg     8366 <safe_rshift_func_int8_t_s_s+0x31>
    8357:	0f be 55 fc          	movsbl -0x4(%rbp),%edx
    835b:	8b 45 f8             	mov    -0x8(%rbp),%eax
    835e:	89 c1                	mov    %eax,%ecx
    8360:	d3 fa                	sar    %cl,%edx
    8362:	89 d0                	mov    %edx,%eax
    8364:	eb 04                	jmp    836a <safe_rshift_func_int8_t_s_s+0x35>
    8366:	0f b6 45 fc          	movzbl -0x4(%rbp),%eax
    836a:	5d                   	pop    %rbp
    836b:	c3                   	retq   

000000000000836c <safe_rshift_func_int8_t_s_u>:
    836c:	f3 0f 1e fa          	endbr64 
    8370:	55                   	push   %rbp
    8371:	48 89 e5             	mov    %rsp,%rbp
    8374:	89 f8                	mov    %edi,%eax
    8376:	89 75 f8             	mov    %esi,-0x8(%rbp)
    8379:	88 45 fc             	mov    %al,-0x4(%rbp)
    837c:	80 7d fc 00          	cmpb   $0x0,-0x4(%rbp)
    8380:	78 15                	js     8397 <safe_rshift_func_int8_t_s_u+0x2b>
    8382:	83 7d f8 1f          	cmpl   $0x1f,-0x8(%rbp)
    8386:	77 0f                	ja     8397 <safe_rshift_func_int8_t_s_u+0x2b>
    8388:	0f be 55 fc          	movsbl -0x4(%rbp),%edx
    838c:	8b 45 f8             	mov    -0x8(%rbp),%eax
    838f:	89 c1                	mov    %eax,%ecx
    8391:	d3 fa                	sar    %cl,%edx
    8393:	89 d0                	mov    %edx,%eax
    8395:	eb 04                	jmp    839b <safe_rshift_func_int8_t_s_u+0x2f>
    8397:	0f b6 45 fc          	movzbl -0x4(%rbp),%eax
    839b:	5d                   	pop    %rbp
    839c:	c3                   	retq   

000000000000839d <safe_unary_minus_func_int16_t_s>:
    839d:	f3 0f 1e fa          	endbr64 
    83a1:	55                   	push   %rbp
    83a2:	48 89 e5             	mov    %rsp,%rbp
    83a5:	89 f8                	mov    %edi,%eax
    83a7:	66 89 45 fc          	mov    %ax,-0x4(%rbp)
    83ab:	0f b7 45 fc          	movzwl -0x4(%rbp),%eax
    83af:	f7 d8                	neg    %eax
    83b1:	5d                   	pop    %rbp
    83b2:	c3                   	retq   

00000000000083b3 <safe_add_func_int16_t_s_s>:
    83b3:	f3 0f 1e fa          	endbr64 
    83b7:	55                   	push   %rbp
    83b8:	48 89 e5             	mov    %rsp,%rbp
    83bb:	89 fa                	mov    %edi,%edx
    83bd:	89 f0                	mov    %esi,%eax
    83bf:	66 89 55 fc          	mov    %dx,-0x4(%rbp)
    83c3:	66 89 45 f8          	mov    %ax,-0x8(%rbp)
    83c7:	0f b7 55 fc          	movzwl -0x4(%rbp),%edx
    83cb:	0f b7 45 f8          	movzwl -0x8(%rbp),%eax
    83cf:	01 d0                	add    %edx,%eax
    83d1:	5d                   	pop    %rbp
    83d2:	c3                   	retq   

00000000000083d3 <safe_sub_func_int16_t_s_s>:
    83d3:	f3 0f 1e fa          	endbr64 
    83d7:	55                   	push   %rbp
    83d8:	48 89 e5             	mov    %rsp,%rbp
    83db:	89 fa                	mov    %edi,%edx
    83dd:	89 f0                	mov    %esi,%eax
    83df:	66 89 55 fc          	mov    %dx,-0x4(%rbp)
    83e3:	66 89 45 f8          	mov    %ax,-0x8(%rbp)
    83e7:	0f b7 55 fc          	movzwl -0x4(%rbp),%edx
    83eb:	0f b7 45 f8          	movzwl -0x8(%rbp),%eax
    83ef:	29 c2                	sub    %eax,%edx
    83f1:	89 d0                	mov    %edx,%eax
    83f3:	5d                   	pop    %rbp
    83f4:	c3                   	retq   

00000000000083f5 <safe_mul_func_int16_t_s_s>:
    83f5:	f3 0f 1e fa          	endbr64 
    83f9:	55                   	push   %rbp
    83fa:	48 89 e5             	mov    %rsp,%rbp
    83fd:	89 fa                	mov    %edi,%edx
    83ff:	89 f0                	mov    %esi,%eax
    8401:	66 89 55 fc          	mov    %dx,-0x4(%rbp)
    8405:	66 89 45 f8          	mov    %ax,-0x8(%rbp)
    8409:	0f b7 55 fc          	movzwl -0x4(%rbp),%edx
    840d:	0f b7 45 f8          	movzwl -0x8(%rbp),%eax
    8411:	0f af c2             	imul   %edx,%eax
    8414:	5d                   	pop    %rbp
    8415:	c3                   	retq   

0000000000008416 <safe_mod_func_int16_t_s_s>:
    8416:	f3 0f 1e fa          	endbr64 
    841a:	55                   	push   %rbp
    841b:	48 89 e5             	mov    %rsp,%rbp
    841e:	89 fa                	mov    %edi,%edx
    8420:	89 f0                	mov    %esi,%eax
    8422:	66 89 55 fc          	mov    %dx,-0x4(%rbp)
    8426:	66 89 45 f8          	mov    %ax,-0x8(%rbp)
    842a:	66 83 7d f8 00       	cmpw   $0x0,-0x8(%rbp)
    842f:	74 1e                	je     844f <safe_mod_func_int16_t_s_s+0x39>
    8431:	66 81 7d fc 00 80    	cmpw   $0x8000,-0x4(%rbp)
    8437:	75 07                	jne    8440 <safe_mod_func_int16_t_s_s+0x2a>
    8439:	66 83 7d f8 ff       	cmpw   $0xffff,-0x8(%rbp)
    843e:	74 0f                	je     844f <safe_mod_func_int16_t_s_s+0x39>
    8440:	0f bf 45 fc          	movswl -0x4(%rbp),%eax
    8444:	0f bf 4d f8          	movswl -0x8(%rbp),%ecx
    8448:	99                   	cltd   
    8449:	f7 f9                	idiv   %ecx
    844b:	89 d0                	mov    %edx,%eax
    844d:	eb 04                	jmp    8453 <safe_mod_func_int16_t_s_s+0x3d>
    844f:	0f b7 45 fc          	movzwl -0x4(%rbp),%eax
    8453:	5d                   	pop    %rbp
    8454:	c3                   	retq   

0000000000008455 <safe_div_func_int16_t_s_s>:
    8455:	f3 0f 1e fa          	endbr64 
    8459:	55                   	push   %rbp
    845a:	48 89 e5             	mov    %rsp,%rbp
    845d:	89 fa                	mov    %edi,%edx
    845f:	89 f0                	mov    %esi,%eax
    8461:	66 89 55 fc          	mov    %dx,-0x4(%rbp)
    8465:	66 89 45 f8          	mov    %ax,-0x8(%rbp)
    8469:	66 83 7d f8 00       	cmpw   $0x0,-0x8(%rbp)
    846e:	74 1c                	je     848c <safe_div_func_int16_t_s_s+0x37>
    8470:	66 81 7d fc 00 80    	cmpw   $0x8000,-0x4(%rbp)
    8476:	75 07                	jne    847f <safe_div_func_int16_t_s_s+0x2a>
    8478:	66 83 7d f8 ff       	cmpw   $0xffff,-0x8(%rbp)
    847d:	74 0d                	je     848c <safe_div_func_int16_t_s_s+0x37>
    847f:	0f bf 45 fc          	movswl -0x4(%rbp),%eax
    8483:	0f bf 4d f8          	movswl -0x8(%rbp),%ecx
    8487:	99                   	cltd   
    8488:	f7 f9                	idiv   %ecx
    848a:	eb 04                	jmp    8490 <safe_div_func_int16_t_s_s+0x3b>
    848c:	0f b7 45 fc          	movzwl -0x4(%rbp),%eax
    8490:	5d                   	pop    %rbp
    8491:	c3                   	retq   

0000000000008492 <safe_lshift_func_int16_t_s_s>:
    8492:	f3 0f 1e fa          	endbr64 
    8496:	55                   	push   %rbp
    8497:	48 89 e5             	mov    %rsp,%rbp
    849a:	89 f8                	mov    %edi,%eax
    849c:	89 75 f8             	mov    %esi,-0x8(%rbp)
    849f:	66 89 45 fc          	mov    %ax,-0x4(%rbp)
    84a3:	66 83 7d fc 00       	cmpw   $0x0,-0x4(%rbp)
    84a8:	78 31                	js     84db <safe_lshift_func_int16_t_s_s+0x49>
    84aa:	83 7d f8 00          	cmpl   $0x0,-0x8(%rbp)
    84ae:	78 2b                	js     84db <safe_lshift_func_int16_t_s_s+0x49>
    84b0:	83 7d f8 1f          	cmpl   $0x1f,-0x8(%rbp)
    84b4:	7f 25                	jg     84db <safe_lshift_func_int16_t_s_s+0x49>
    84b6:	0f bf 55 fc          	movswl -0x4(%rbp),%edx
    84ba:	8b 45 f8             	mov    -0x8(%rbp),%eax
    84bd:	be ff 7f 00 00       	mov    $0x7fff,%esi
    84c2:	89 c1                	mov    %eax,%ecx
    84c4:	d3 fe                	sar    %cl,%esi
    84c6:	89 f0                	mov    %esi,%eax
    84c8:	39 c2                	cmp    %eax,%edx
    84ca:	7f 0f                	jg     84db <safe_lshift_func_int16_t_s_s+0x49>
    84cc:	0f bf 55 fc          	movswl -0x4(%rbp),%edx
    84d0:	8b 45 f8             	mov    -0x8(%rbp),%eax
    84d3:	89 c1                	mov    %eax,%ecx
    84d5:	d3 e2                	shl    %cl,%edx
    84d7:	89 d0                	mov    %edx,%eax
    84d9:	eb 04                	jmp    84df <safe_lshift_func_int16_t_s_s+0x4d>
    84db:	0f b7 45 fc          	movzwl -0x4(%rbp),%eax
    84df:	5d                   	pop    %rbp
    84e0:	c3                   	retq   

00000000000084e1 <safe_lshift_func_int16_t_s_u>:
    84e1:	f3 0f 1e fa          	endbr64 
    84e5:	55                   	push   %rbp
    84e6:	48 89 e5             	mov    %rsp,%rbp
    84e9:	89 f8                	mov    %edi,%eax
    84eb:	89 75 f8             	mov    %esi,-0x8(%rbp)
    84ee:	66 89 45 fc          	mov    %ax,-0x4(%rbp)
    84f2:	66 83 7d fc 00       	cmpw   $0x0,-0x4(%rbp)
    84f7:	78 2b                	js     8524 <safe_lshift_func_int16_t_s_u+0x43>
    84f9:	83 7d f8 1f          	cmpl   $0x1f,-0x8(%rbp)
    84fd:	77 25                	ja     8524 <safe_lshift_func_int16_t_s_u+0x43>
    84ff:	0f bf 55 fc          	movswl -0x4(%rbp),%edx
    8503:	8b 45 f8             	mov    -0x8(%rbp),%eax
    8506:	be ff 7f 00 00       	mov    $0x7fff,%esi
    850b:	89 c1                	mov    %eax,%ecx
    850d:	d3 fe                	sar    %cl,%esi
    850f:	89 f0                	mov    %esi,%eax
    8511:	39 c2                	cmp    %eax,%edx
    8513:	7f 0f                	jg     8524 <safe_lshift_func_int16_t_s_u+0x43>
    8515:	0f bf 55 fc          	movswl -0x4(%rbp),%edx
    8519:	8b 45 f8             	mov    -0x8(%rbp),%eax
    851c:	89 c1                	mov    %eax,%ecx
    851e:	d3 e2                	shl    %cl,%edx
    8520:	89 d0                	mov    %edx,%eax
    8522:	eb 04                	jmp    8528 <safe_lshift_func_int16_t_s_u+0x47>
    8524:	0f b7 45 fc          	movzwl -0x4(%rbp),%eax
    8528:	5d                   	pop    %rbp
    8529:	c3                   	retq   

000000000000852a <safe_rshift_func_int16_t_s_s>:
    852a:	f3 0f 1e fa          	endbr64 
    852e:	55                   	push   %rbp
    852f:	48 89 e5             	mov    %rsp,%rbp
    8532:	89 f8                	mov    %edi,%eax
    8534:	89 75 f8             	mov    %esi,-0x8(%rbp)
    8537:	66 89 45 fc          	mov    %ax,-0x4(%rbp)
    853b:	66 83 7d fc 00       	cmpw   $0x0,-0x4(%rbp)
    8540:	78 1b                	js     855d <safe_rshift_func_int16_t_s_s+0x33>
    8542:	83 7d f8 00          	cmpl   $0x0,-0x8(%rbp)
    8546:	78 15                	js     855d <safe_rshift_func_int16_t_s_s+0x33>
    8548:	83 7d f8 1f          	cmpl   $0x1f,-0x8(%rbp)
    854c:	7f 0f                	jg     855d <safe_rshift_func_int16_t_s_s+0x33>
    854e:	0f bf 55 fc          	movswl -0x4(%rbp),%edx
    8552:	8b 45 f8             	mov    -0x8(%rbp),%eax
    8555:	89 c1                	mov    %eax,%ecx
    8557:	d3 fa                	sar    %cl,%edx
    8559:	89 d0                	mov    %edx,%eax
    855b:	eb 04                	jmp    8561 <safe_rshift_func_int16_t_s_s+0x37>
    855d:	0f b7 45 fc          	movzwl -0x4(%rbp),%eax
    8561:	5d                   	pop    %rbp
    8562:	c3                   	retq   

0000000000008563 <safe_rshift_func_int16_t_s_u>:
    8563:	f3 0f 1e fa          	endbr64 
    8567:	55                   	push   %rbp
    8568:	48 89 e5             	mov    %rsp,%rbp
    856b:	89 f8                	mov    %edi,%eax
    856d:	89 75 f8             	mov    %esi,-0x8(%rbp)
    8570:	66 89 45 fc          	mov    %ax,-0x4(%rbp)
    8574:	66 83 7d fc 00       	cmpw   $0x0,-0x4(%rbp)
    8579:	78 15                	js     8590 <safe_rshift_func_int16_t_s_u+0x2d>
    857b:	83 7d f8 1f          	cmpl   $0x1f,-0x8(%rbp)
    857f:	77 0f                	ja     8590 <safe_rshift_func_int16_t_s_u+0x2d>
    8581:	0f bf 55 fc          	movswl -0x4(%rbp),%edx
    8585:	8b 45 f8             	mov    -0x8(%rbp),%eax
    8588:	89 c1                	mov    %eax,%ecx
    858a:	d3 fa                	sar    %cl,%edx
    858c:	89 d0                	mov    %edx,%eax
    858e:	eb 04                	jmp    8594 <safe_rshift_func_int16_t_s_u+0x31>
    8590:	0f b7 45 fc          	movzwl -0x4(%rbp),%eax
    8594:	5d                   	pop    %rbp
    8595:	c3                   	retq   

0000000000008596 <safe_unary_minus_func_int32_t_s>:
    8596:	f3 0f 1e fa          	endbr64 
    859a:	55                   	push   %rbp
    859b:	48 89 e5             	mov    %rsp,%rbp
    859e:	89 7d fc             	mov    %edi,-0x4(%rbp)
    85a1:	81 7d fc 00 00 00 80 	cmpl   $0x80000000,-0x4(%rbp)
    85a8:	74 07                	je     85b1 <safe_unary_minus_func_int32_t_s+0x1b>
    85aa:	8b 45 fc             	mov    -0x4(%rbp),%eax
    85ad:	f7 d8                	neg    %eax
    85af:	eb 03                	jmp    85b4 <safe_unary_minus_func_int32_t_s+0x1e>
    85b1:	8b 45 fc             	mov    -0x4(%rbp),%eax
    85b4:	5d                   	pop    %rbp
    85b5:	c3                   	retq   

00000000000085b6 <safe_add_func_int32_t_s_s>:
    85b6:	f3 0f 1e fa          	endbr64 
    85ba:	55                   	push   %rbp
    85bb:	48 89 e5             	mov    %rsp,%rbp
    85be:	89 7d fc             	mov    %edi,-0x4(%rbp)
    85c1:	89 75 f8             	mov    %esi,-0x8(%rbp)
    85c4:	83 7d fc 00          	cmpl   $0x0,-0x4(%rbp)
    85c8:	7e 13                	jle    85dd <safe_add_func_int32_t_s_s+0x27>
    85ca:	83 7d f8 00          	cmpl   $0x0,-0x8(%rbp)
    85ce:	7e 0d                	jle    85dd <safe_add_func_int32_t_s_s+0x27>
    85d0:	b8 ff ff ff 7f       	mov    $0x7fffffff,%eax
    85d5:	2b 45 f8             	sub    -0x8(%rbp),%eax
    85d8:	39 45 fc             	cmp    %eax,-0x4(%rbp)
    85db:	7f 23                	jg     8600 <safe_add_func_int32_t_s_s+0x4a>
    85dd:	83 7d fc 00          	cmpl   $0x0,-0x4(%rbp)
    85e1:	79 13                	jns    85f6 <safe_add_func_int32_t_s_s+0x40>
    85e3:	83 7d f8 00          	cmpl   $0x0,-0x8(%rbp)
    85e7:	79 0d                	jns    85f6 <safe_add_func_int32_t_s_s+0x40>
    85e9:	b8 00 00 00 80       	mov    $0x80000000,%eax
    85ee:	2b 45 f8             	sub    -0x8(%rbp),%eax
    85f1:	39 45 fc             	cmp    %eax,-0x4(%rbp)
    85f4:	7c 0a                	jl     8600 <safe_add_func_int32_t_s_s+0x4a>
    85f6:	8b 55 fc             	mov    -0x4(%rbp),%edx
    85f9:	8b 45 f8             	mov    -0x8(%rbp),%eax
    85fc:	01 d0                	add    %edx,%eax
    85fe:	eb 03                	jmp    8603 <safe_add_func_int32_t_s_s+0x4d>
    8600:	8b 45 fc             	mov    -0x4(%rbp),%eax
    8603:	5d                   	pop    %rbp
    8604:	c3                   	retq   

0000000000008605 <safe_sub_func_int32_t_s_s>:
    8605:	f3 0f 1e fa          	endbr64 
    8609:	55                   	push   %rbp
    860a:	48 89 e5             	mov    %rsp,%rbp
    860d:	89 7d fc             	mov    %edi,-0x4(%rbp)
    8610:	89 75 f8             	mov    %esi,-0x8(%rbp)
    8613:	8b 45 fc             	mov    -0x4(%rbp),%eax
    8616:	33 45 f8             	xor    -0x8(%rbp),%eax
    8619:	89 c2                	mov    %eax,%edx
    861b:	8b 45 fc             	mov    -0x4(%rbp),%eax
    861e:	33 45 f8             	xor    -0x8(%rbp),%eax
    8621:	25 00 00 00 80       	and    $0x80000000,%eax
    8626:	33 45 fc             	xor    -0x4(%rbp),%eax
    8629:	2b 45 f8             	sub    -0x8(%rbp),%eax
    862c:	33 45 f8             	xor    -0x8(%rbp),%eax
    862f:	21 d0                	and    %edx,%eax
    8631:	85 c0                	test   %eax,%eax
    8633:	78 08                	js     863d <safe_sub_func_int32_t_s_s+0x38>
    8635:	8b 45 fc             	mov    -0x4(%rbp),%eax
    8638:	2b 45 f8             	sub    -0x8(%rbp),%eax
    863b:	eb 03                	jmp    8640 <safe_sub_func_int32_t_s_s+0x3b>
    863d:	8b 45 fc             	mov    -0x4(%rbp),%eax
    8640:	5d                   	pop    %rbp
    8641:	c3                   	retq   

0000000000008642 <safe_mul_func_int32_t_s_s>:
    8642:	f3 0f 1e fa          	endbr64 
    8646:	55                   	push   %rbp
    8647:	48 89 e5             	mov    %rsp,%rbp
    864a:	89 7d fc             	mov    %edi,-0x4(%rbp)
    864d:	89 75 f8             	mov    %esi,-0x8(%rbp)
    8650:	83 7d fc 00          	cmpl   $0x0,-0x4(%rbp)
    8654:	7e 14                	jle    866a <safe_mul_func_int32_t_s_s+0x28>
    8656:	83 7d f8 00          	cmpl   $0x0,-0x8(%rbp)
    865a:	7e 0e                	jle    866a <safe_mul_func_int32_t_s_s+0x28>
    865c:	b8 ff ff ff 7f       	mov    $0x7fffffff,%eax
    8661:	99                   	cltd   
    8662:	f7 7d f8             	idivl  -0x8(%rbp)
    8665:	39 45 fc             	cmp    %eax,-0x4(%rbp)
    8668:	7f 5d                	jg     86c7 <safe_mul_func_int32_t_s_s+0x85>
    866a:	83 7d fc 00          	cmpl   $0x0,-0x4(%rbp)
    866e:	7e 14                	jle    8684 <safe_mul_func_int32_t_s_s+0x42>
    8670:	83 7d f8 00          	cmpl   $0x0,-0x8(%rbp)
    8674:	7f 0e                	jg     8684 <safe_mul_func_int32_t_s_s+0x42>
    8676:	b8 00 00 00 80       	mov    $0x80000000,%eax
    867b:	99                   	cltd   
    867c:	f7 7d fc             	idivl  -0x4(%rbp)
    867f:	39 45 f8             	cmp    %eax,-0x8(%rbp)
    8682:	7c 43                	jl     86c7 <safe_mul_func_int32_t_s_s+0x85>
    8684:	83 7d fc 00          	cmpl   $0x0,-0x4(%rbp)
    8688:	7f 14                	jg     869e <safe_mul_func_int32_t_s_s+0x5c>
    868a:	83 7d f8 00          	cmpl   $0x0,-0x8(%rbp)
    868e:	7e 0e                	jle    869e <safe_mul_func_int32_t_s_s+0x5c>
    8690:	b8 00 00 00 80       	mov    $0x80000000,%eax
    8695:	99                   	cltd   
    8696:	f7 7d f8             	idivl  -0x8(%rbp)
    8699:	39 45 fc             	cmp    %eax,-0x4(%rbp)
    869c:	7c 29                	jl     86c7 <safe_mul_func_int32_t_s_s+0x85>
    869e:	83 7d fc 00          	cmpl   $0x0,-0x4(%rbp)
    86a2:	7f 1a                	jg     86be <safe_mul_func_int32_t_s_s+0x7c>
    86a4:	83 7d f8 00          	cmpl   $0x0,-0x8(%rbp)
    86a8:	7f 14                	jg     86be <safe_mul_func_int32_t_s_s+0x7c>
    86aa:	83 7d fc 00          	cmpl   $0x0,-0x4(%rbp)
    86ae:	74 0e                	je     86be <safe_mul_func_int32_t_s_s+0x7c>
    86b0:	b8 ff ff ff 7f       	mov    $0x7fffffff,%eax
    86b5:	99                   	cltd   
    86b6:	f7 7d fc             	idivl  -0x4(%rbp)
    86b9:	39 45 f8             	cmp    %eax,-0x8(%rbp)
    86bc:	7c 09                	jl     86c7 <safe_mul_func_int32_t_s_s+0x85>
    86be:	8b 45 fc             	mov    -0x4(%rbp),%eax
    86c1:	0f af 45 f8          	imul   -0x8(%rbp),%eax
    86c5:	eb 03                	jmp    86ca <safe_mul_func_int32_t_s_s+0x88>
    86c7:	8b 45 fc             	mov    -0x4(%rbp),%eax
    86ca:	5d                   	pop    %rbp
    86cb:	c3                   	retq   

00000000000086cc <safe_mod_func_int32_t_s_s>:
    86cc:	f3 0f 1e fa          	endbr64 
    86d0:	55                   	push   %rbp
    86d1:	48 89 e5             	mov    %rsp,%rbp
    86d4:	89 7d fc             	mov    %edi,-0x4(%rbp)
    86d7:	89 75 f8             	mov    %esi,-0x8(%rbp)
    86da:	83 7d f8 00          	cmpl   $0x0,-0x8(%rbp)
    86de:	74 1a                	je     86fa <safe_mod_func_int32_t_s_s+0x2e>
    86e0:	81 7d fc 00 00 00 80 	cmpl   $0x80000000,-0x4(%rbp)
    86e7:	75 06                	jne    86ef <safe_mod_func_int32_t_s_s+0x23>
    86e9:	83 7d f8 ff          	cmpl   $0xffffffff,-0x8(%rbp)
    86ed:	74 0b                	je     86fa <safe_mod_func_int32_t_s_s+0x2e>
    86ef:	8b 45 fc             	mov    -0x4(%rbp),%eax
    86f2:	99                   	cltd   
    86f3:	f7 7d f8             	idivl  -0x8(%rbp)
    86f6:	89 d0                	mov    %edx,%eax
    86f8:	eb 03                	jmp    86fd <safe_mod_func_int32_t_s_s+0x31>
    86fa:	8b 45 fc             	mov    -0x4(%rbp),%eax
    86fd:	5d                   	pop    %rbp
    86fe:	c3                   	retq   

00000000000086ff <safe_div_func_int32_t_s_s>:
    86ff:	f3 0f 1e fa          	endbr64 
    8703:	55                   	push   %rbp
    8704:	48 89 e5             	mov    %rsp,%rbp
    8707:	89 7d fc             	mov    %edi,-0x4(%rbp)
    870a:	89 75 f8             	mov    %esi,-0x8(%rbp)
    870d:	83 7d f8 00          	cmpl   $0x0,-0x8(%rbp)
    8711:	74 18                	je     872b <safe_div_func_int32_t_s_s+0x2c>
    8713:	81 7d fc 00 00 00 80 	cmpl   $0x80000000,-0x4(%rbp)
    871a:	75 06                	jne    8722 <safe_div_func_int32_t_s_s+0x23>
    871c:	83 7d f8 ff          	cmpl   $0xffffffff,-0x8(%rbp)
    8720:	74 09                	je     872b <safe_div_func_int32_t_s_s+0x2c>
    8722:	8b 45 fc             	mov    -0x4(%rbp),%eax
    8725:	99                   	cltd   
    8726:	f7 7d f8             	idivl  -0x8(%rbp)
    8729:	eb 03                	jmp    872e <safe_div_func_int32_t_s_s+0x2f>
    872b:	8b 45 fc             	mov    -0x4(%rbp),%eax
    872e:	5d                   	pop    %rbp
    872f:	c3                   	retq   

0000000000008730 <safe_lshift_func_int32_t_s_s>:
    8730:	f3 0f 1e fa          	endbr64 
    8734:	55                   	push   %rbp
    8735:	48 89 e5             	mov    %rsp,%rbp
    8738:	89 7d fc             	mov    %edi,-0x4(%rbp)
    873b:	89 75 f8             	mov    %esi,-0x8(%rbp)
    873e:	83 7d fc 00          	cmpl   $0x0,-0x4(%rbp)
    8742:	78 2d                	js     8771 <safe_lshift_func_int32_t_s_s+0x41>
    8744:	83 7d f8 00          	cmpl   $0x0,-0x8(%rbp)
    8748:	78 27                	js     8771 <safe_lshift_func_int32_t_s_s+0x41>
    874a:	83 7d f8 1f          	cmpl   $0x1f,-0x8(%rbp)
    874e:	7f 21                	jg     8771 <safe_lshift_func_int32_t_s_s+0x41>
    8750:	8b 45 f8             	mov    -0x8(%rbp),%eax
    8753:	ba ff ff ff 7f       	mov    $0x7fffffff,%edx
    8758:	89 c1                	mov    %eax,%ecx
    875a:	d3 fa                	sar    %cl,%edx
    875c:	89 d0                	mov    %edx,%eax
    875e:	39 45 fc             	cmp    %eax,-0x4(%rbp)
    8761:	7f 0e                	jg     8771 <safe_lshift_func_int32_t_s_s+0x41>
    8763:	8b 45 f8             	mov    -0x8(%rbp),%eax
    8766:	8b 55 fc             	mov    -0x4(%rbp),%edx
    8769:	89 c1                	mov    %eax,%ecx
    876b:	d3 e2                	shl    %cl,%edx
    876d:	89 d0                	mov    %edx,%eax
    876f:	eb 03                	jmp    8774 <safe_lshift_func_int32_t_s_s+0x44>
    8771:	8b 45 fc             	mov    -0x4(%rbp),%eax
    8774:	5d                   	pop    %rbp
    8775:	c3                   	retq   

0000000000008776 <safe_lshift_func_int32_t_s_u>:
    8776:	f3 0f 1e fa          	endbr64 
    877a:	55                   	push   %rbp
    877b:	48 89 e5             	mov    %rsp,%rbp
    877e:	89 7d fc             	mov    %edi,-0x4(%rbp)
    8781:	89 75 f8             	mov    %esi,-0x8(%rbp)
    8784:	83 7d fc 00          	cmpl   $0x0,-0x4(%rbp)
    8788:	78 27                	js     87b1 <safe_lshift_func_int32_t_s_u+0x3b>
    878a:	83 7d f8 1f          	cmpl   $0x1f,-0x8(%rbp)
    878e:	77 21                	ja     87b1 <safe_lshift_func_int32_t_s_u+0x3b>
    8790:	8b 45 f8             	mov    -0x8(%rbp),%eax
    8793:	ba ff ff ff 7f       	mov    $0x7fffffff,%edx
    8798:	89 c1                	mov    %eax,%ecx
    879a:	d3 fa                	sar    %cl,%edx
    879c:	89 d0                	mov    %edx,%eax
    879e:	39 45 fc             	cmp    %eax,-0x4(%rbp)
    87a1:	7f 0e                	jg     87b1 <safe_lshift_func_int32_t_s_u+0x3b>
    87a3:	8b 45 f8             	mov    -0x8(%rbp),%eax
    87a6:	8b 55 fc             	mov    -0x4(%rbp),%edx
    87a9:	89 c1                	mov    %eax,%ecx
    87ab:	d3 e2                	shl    %cl,%edx
    87ad:	89 d0                	mov    %edx,%eax
    87af:	eb 03                	jmp    87b4 <safe_lshift_func_int32_t_s_u+0x3e>
    87b1:	8b 45 fc             	mov    -0x4(%rbp),%eax
    87b4:	5d                   	pop    %rbp
    87b5:	c3                   	retq   

00000000000087b6 <safe_rshift_func_int32_t_s_s>:
    87b6:	f3 0f 1e fa          	endbr64 
    87ba:	55                   	push   %rbp
    87bb:	48 89 e5             	mov    %rsp,%rbp
    87be:	89 7d fc             	mov    %edi,-0x4(%rbp)
    87c1:	89 75 f8             	mov    %esi,-0x8(%rbp)
    87c4:	83 7d fc 00          	cmpl   $0x0,-0x4(%rbp)
    87c8:	78 1a                	js     87e4 <safe_rshift_func_int32_t_s_s+0x2e>
    87ca:	83 7d f8 00          	cmpl   $0x0,-0x8(%rbp)
    87ce:	78 14                	js     87e4 <safe_rshift_func_int32_t_s_s+0x2e>
    87d0:	83 7d f8 1f          	cmpl   $0x1f,-0x8(%rbp)
    87d4:	7f 0e                	jg     87e4 <safe_rshift_func_int32_t_s_s+0x2e>
    87d6:	8b 45 f8             	mov    -0x8(%rbp),%eax
    87d9:	8b 55 fc             	mov    -0x4(%rbp),%edx
    87dc:	89 c1                	mov    %eax,%ecx
    87de:	d3 fa                	sar    %cl,%edx
    87e0:	89 d0                	mov    %edx,%eax
    87e2:	eb 03                	jmp    87e7 <safe_rshift_func_int32_t_s_s+0x31>
    87e4:	8b 45 fc             	mov    -0x4(%rbp),%eax
    87e7:	5d                   	pop    %rbp
    87e8:	c3                   	retq   

00000000000087e9 <safe_rshift_func_int32_t_s_u>:
    87e9:	f3 0f 1e fa          	endbr64 
    87ed:	55                   	push   %rbp
    87ee:	48 89 e5             	mov    %rsp,%rbp
    87f1:	89 7d fc             	mov    %edi,-0x4(%rbp)
    87f4:	89 75 f8             	mov    %esi,-0x8(%rbp)
    87f7:	83 7d fc 00          	cmpl   $0x0,-0x4(%rbp)
    87fb:	78 14                	js     8811 <safe_rshift_func_int32_t_s_u+0x28>
    87fd:	83 7d f8 1f          	cmpl   $0x1f,-0x8(%rbp)
    8801:	77 0e                	ja     8811 <safe_rshift_func_int32_t_s_u+0x28>
    8803:	8b 45 f8             	mov    -0x8(%rbp),%eax
    8806:	8b 55 fc             	mov    -0x4(%rbp),%edx
    8809:	89 c1                	mov    %eax,%ecx
    880b:	d3 fa                	sar    %cl,%edx
    880d:	89 d0                	mov    %edx,%eax
    880f:	eb 03                	jmp    8814 <safe_rshift_func_int32_t_s_u+0x2b>
    8811:	8b 45 fc             	mov    -0x4(%rbp),%eax
    8814:	5d                   	pop    %rbp
    8815:	c3                   	retq   

0000000000008816 <safe_unary_minus_func_int64_t_s>:
    8816:	f3 0f 1e fa          	endbr64 
    881a:	55                   	push   %rbp
    881b:	48 89 e5             	mov    %rsp,%rbp
    881e:	48 89 7d f8          	mov    %rdi,-0x8(%rbp)
    8822:	48 b8 00 00 00 00 00 	movabs $0x8000000000000000,%rax
    8829:	00 00 80 
    882c:	48 39 45 f8          	cmp    %rax,-0x8(%rbp)
    8830:	74 09                	je     883b <safe_unary_minus_func_int64_t_s+0x25>
    8832:	48 8b 45 f8          	mov    -0x8(%rbp),%rax
    8836:	48 f7 d8             	neg    %rax
    8839:	eb 04                	jmp    883f <safe_unary_minus_func_int64_t_s+0x29>
    883b:	48 8b 45 f8          	mov    -0x8(%rbp),%rax
    883f:	5d                   	pop    %rbp
    8840:	c3                   	retq   

0000000000008841 <safe_add_func_int64_t_s_s>:
    8841:	f3 0f 1e fa          	endbr64 
    8845:	55                   	push   %rbp
    8846:	48 89 e5             	mov    %rsp,%rbp
    8849:	48 89 7d f8          	mov    %rdi,-0x8(%rbp)
    884d:	48 89 75 f0          	mov    %rsi,-0x10(%rbp)
    8851:	48 83 7d f8 00       	cmpq   $0x0,-0x8(%rbp)
    8856:	7e 1b                	jle    8873 <safe_add_func_int64_t_s_s+0x32>
    8858:	48 83 7d f0 00       	cmpq   $0x0,-0x10(%rbp)
    885d:	7e 14                	jle    8873 <safe_add_func_int64_t_s_s+0x32>
    885f:	48 b8 ff ff ff ff ff 	movabs $0x7fffffffffffffff,%rax
    8866:	ff ff 7f 
    8869:	48 2b 45 f0          	sub    -0x10(%rbp),%rax
    886d:	48 39 45 f8          	cmp    %rax,-0x8(%rbp)
    8871:	7f 2f                	jg     88a2 <safe_add_func_int64_t_s_s+0x61>
    8873:	48 83 7d f8 00       	cmpq   $0x0,-0x8(%rbp)
    8878:	79 1b                	jns    8895 <safe_add_func_int64_t_s_s+0x54>
    887a:	48 83 7d f0 00       	cmpq   $0x0,-0x10(%rbp)
    887f:	79 14                	jns    8895 <safe_add_func_int64_t_s_s+0x54>
    8881:	48 b8 00 00 00 00 00 	movabs $0x8000000000000000,%rax
    8888:	00 00 80 
    888b:	48 2b 45 f0          	sub    -0x10(%rbp),%rax
    888f:	48 39 45 f8          	cmp    %rax,-0x8(%rbp)
    8893:	7c 0d                	jl     88a2 <safe_add_func_int64_t_s_s+0x61>
    8895:	48 8b 55 f8          	mov    -0x8(%rbp),%rdx
    8899:	48 8b 45 f0          	mov    -0x10(%rbp),%rax
    889d:	48 01 d0             	add    %rdx,%rax
    88a0:	eb 04                	jmp    88a6 <safe_add_func_int64_t_s_s+0x65>
    88a2:	48 8b 45 f8          	mov    -0x8(%rbp),%rax
    88a6:	5d                   	pop    %rbp
    88a7:	c3                   	retq   

00000000000088a8 <safe_sub_func_int64_t_s_s>:
    88a8:	f3 0f 1e fa          	endbr64 
    88ac:	55                   	push   %rbp
    88ad:	48 89 e5             	mov    %rsp,%rbp
    88b0:	48 89 7d f8          	mov    %rdi,-0x8(%rbp)
    88b4:	48 89 75 f0          	mov    %rsi,-0x10(%rbp)
    88b8:	48 8b 45 f8          	mov    -0x8(%rbp),%rax
    88bc:	48 33 45 f0          	xor    -0x10(%rbp),%rax
    88c0:	48 89 c2             	mov    %rax,%rdx
    88c3:	48 8b 45 f8          	mov    -0x8(%rbp),%rax
    88c7:	48 33 45 f0          	xor    -0x10(%rbp),%rax
    88cb:	48 b9 00 00 00 00 00 	movabs $0x8000000000000000,%rcx
    88d2:	00 00 80 
    88d5:	48 21 c8             	and    %rcx,%rax
    88d8:	48 33 45 f8          	xor    -0x8(%rbp),%rax
    88dc:	48 2b 45 f0          	sub    -0x10(%rbp),%rax
    88e0:	48 33 45 f0          	xor    -0x10(%rbp),%rax
    88e4:	48 21 d0             	and    %rdx,%rax
    88e7:	48 85 c0             	test   %rax,%rax
    88ea:	78 0a                	js     88f6 <safe_sub_func_int64_t_s_s+0x4e>
    88ec:	48 8b 45 f8          	mov    -0x8(%rbp),%rax
    88f0:	48 2b 45 f0          	sub    -0x10(%rbp),%rax
    88f4:	eb 04                	jmp    88fa <safe_sub_func_int64_t_s_s+0x52>
    88f6:	48 8b 45 f8          	mov    -0x8(%rbp),%rax
    88fa:	5d                   	pop    %rbp
    88fb:	c3                   	retq   

00000000000088fc <safe_mul_func_int64_t_s_s>:
    88fc:	f3 0f 1e fa          	endbr64 
    8900:	55                   	push   %rbp
    8901:	48 89 e5             	mov    %rsp,%rbp
    8904:	48 89 7d f8          	mov    %rdi,-0x8(%rbp)
    8908:	48 89 75 f0          	mov    %rsi,-0x10(%rbp)
    890c:	48 83 7d f8 00       	cmpq   $0x0,-0x8(%rbp)
    8911:	7e 1d                	jle    8930 <safe_mul_func_int64_t_s_s+0x34>
    8913:	48 83 7d f0 00       	cmpq   $0x0,-0x10(%rbp)
    8918:	7e 16                	jle    8930 <safe_mul_func_int64_t_s_s+0x34>
    891a:	48 b8 ff ff ff ff ff 	movabs $0x7fffffffffffffff,%rax
    8921:	ff ff 7f 
    8924:	48 99                	cqto   
    8926:	48 f7 7d f0          	idivq  -0x10(%rbp)
    892a:	48 39 45 f8          	cmp    %rax,-0x8(%rbp)
    892e:	7f 7e                	jg     89ae <safe_mul_func_int64_t_s_s+0xb2>
    8930:	48 83 7d f8 00       	cmpq   $0x0,-0x8(%rbp)
    8935:	7e 1d                	jle    8954 <safe_mul_func_int64_t_s_s+0x58>
    8937:	48 83 7d f0 00       	cmpq   $0x0,-0x10(%rbp)
    893c:	7f 16                	jg     8954 <safe_mul_func_int64_t_s_s+0x58>
    893e:	48 b8 00 00 00 00 00 	movabs $0x8000000000000000,%rax
    8945:	00 00 80 
    8948:	48 99                	cqto   
    894a:	48 f7 7d f8          	idivq  -0x8(%rbp)
    894e:	48 39 45 f0          	cmp    %rax,-0x10(%rbp)
    8952:	7c 5a                	jl     89ae <safe_mul_func_int64_t_s_s+0xb2>
    8954:	48 83 7d f8 00       	cmpq   $0x0,-0x8(%rbp)
    8959:	7f 1d                	jg     8978 <safe_mul_func_int64_t_s_s+0x7c>
    895b:	48 83 7d f0 00       	cmpq   $0x0,-0x10(%rbp)
    8960:	7e 16                	jle    8978 <safe_mul_func_int64_t_s_s+0x7c>
    8962:	48 b8 00 00 00 00 00 	movabs $0x8000000000000000,%rax
    8969:	00 00 80 
    896c:	48 99                	cqto   
    896e:	48 f7 7d f0          	idivq  -0x10(%rbp)
    8972:	48 39 45 f8          	cmp    %rax,-0x8(%rbp)
    8976:	7c 36                	jl     89ae <safe_mul_func_int64_t_s_s+0xb2>
    8978:	48 83 7d f8 00       	cmpq   $0x0,-0x8(%rbp)
    897d:	7f 24                	jg     89a3 <safe_mul_func_int64_t_s_s+0xa7>
    897f:	48 83 7d f0 00       	cmpq   $0x0,-0x10(%rbp)
    8984:	7f 1d                	jg     89a3 <safe_mul_func_int64_t_s_s+0xa7>
    8986:	48 83 7d f8 00       	cmpq   $0x0,-0x8(%rbp)
    898b:	74 16                	je     89a3 <safe_mul_func_int64_t_s_s+0xa7>
    898d:	48 b8 ff ff ff ff ff 	movabs $0x7fffffffffffffff,%rax
    8994:	ff ff 7f 
    8997:	48 99                	cqto   
    8999:	48 f7 7d f8          	idivq  -0x8(%rbp)
    899d:	48 39 45 f0          	cmp    %rax,-0x10(%rbp)
    89a1:	7c 0b                	jl     89ae <safe_mul_func_int64_t_s_s+0xb2>
    89a3:	48 8b 45 f8          	mov    -0x8(%rbp),%rax
    89a7:	48 0f af 45 f0       	imul   -0x10(%rbp),%rax
    89ac:	eb 04                	jmp    89b2 <safe_mul_func_int64_t_s_s+0xb6>
    89ae:	48 8b 45 f8          	mov    -0x8(%rbp),%rax
    89b2:	5d                   	pop    %rbp
    89b3:	c3                   	retq   

00000000000089b4 <safe_mod_func_int64_t_s_s>:
    89b4:	f3 0f 1e fa          	endbr64 
    89b8:	55                   	push   %rbp
    89b9:	48 89 e5             	mov    %rsp,%rbp
    89bc:	48 89 7d f8          	mov    %rdi,-0x8(%rbp)
    89c0:	48 89 75 f0          	mov    %rsi,-0x10(%rbp)
    89c4:	48 83 7d f0 00       	cmpq   $0x0,-0x10(%rbp)
    89c9:	74 26                	je     89f1 <safe_mod_func_int64_t_s_s+0x3d>
    89cb:	48 b8 00 00 00 00 00 	movabs $0x8000000000000000,%rax
    89d2:	00 00 80 
    89d5:	48 39 45 f8          	cmp    %rax,-0x8(%rbp)
    89d9:	75 07                	jne    89e2 <safe_mod_func_int64_t_s_s+0x2e>
    89db:	48 83 7d f0 ff       	cmpq   $0xffffffffffffffff,-0x10(%rbp)
    89e0:	74 0f                	je     89f1 <safe_mod_func_int64_t_s_s+0x3d>
    89e2:	48 8b 45 f8          	mov    -0x8(%rbp),%rax
    89e6:	48 99                	cqto   
    89e8:	48 f7 7d f0          	idivq  -0x10(%rbp)
    89ec:	48 89 d0             	mov    %rdx,%rax
    89ef:	eb 04                	jmp    89f5 <safe_mod_func_int64_t_s_s+0x41>
    89f1:	48 8b 45 f8          	mov    -0x8(%rbp),%rax
    89f5:	5d                   	pop    %rbp
    89f6:	c3                   	retq   

00000000000089f7 <safe_div_func_int64_t_s_s>:
    89f7:	f3 0f 1e fa          	endbr64 
    89fb:	55                   	push   %rbp
    89fc:	48 89 e5             	mov    %rsp,%rbp
    89ff:	48 89 7d f8          	mov    %rdi,-0x8(%rbp)
    8a03:	48 89 75 f0          	mov    %rsi,-0x10(%rbp)
    8a07:	48 83 7d f0 00       	cmpq   $0x0,-0x10(%rbp)
    8a0c:	74 23                	je     8a31 <safe_div_func_int64_t_s_s+0x3a>
    8a0e:	48 b8 00 00 00 00 00 	movabs $0x8000000000000000,%rax
    8a15:	00 00 80 
    8a18:	48 39 45 f8          	cmp    %rax,-0x8(%rbp)
    8a1c:	75 07                	jne    8a25 <safe_div_func_int64_t_s_s+0x2e>
    8a1e:	48 83 7d f0 ff       	cmpq   $0xffffffffffffffff,-0x10(%rbp)
    8a23:	74 0c                	je     8a31 <safe_div_func_int64_t_s_s+0x3a>
    8a25:	48 8b 45 f8          	mov    -0x8(%rbp),%rax
    8a29:	48 99                	cqto   
    8a2b:	48 f7 7d f0          	idivq  -0x10(%rbp)
    8a2f:	eb 04                	jmp    8a35 <safe_div_func_int64_t_s_s+0x3e>
    8a31:	48 8b 45 f8          	mov    -0x8(%rbp),%rax
    8a35:	5d                   	pop    %rbp
    8a36:	c3                   	retq   

0000000000008a37 <safe_lshift_func_int64_t_s_s>:
    8a37:	f3 0f 1e fa          	endbr64 
    8a3b:	55                   	push   %rbp
    8a3c:	48 89 e5             	mov    %rsp,%rbp
    8a3f:	48 89 7d f8          	mov    %rdi,-0x8(%rbp)
    8a43:	89 75 f4             	mov    %esi,-0xc(%rbp)
    8a46:	48 83 7d f8 00       	cmpq   $0x0,-0x8(%rbp)
    8a4b:	78 38                	js     8a85 <safe_lshift_func_int64_t_s_s+0x4e>
    8a4d:	83 7d f4 00          	cmpl   $0x0,-0xc(%rbp)
    8a51:	78 32                	js     8a85 <safe_lshift_func_int64_t_s_s+0x4e>
    8a53:	83 7d f4 1f          	cmpl   $0x1f,-0xc(%rbp)
    8a57:	7f 2c                	jg     8a85 <safe_lshift_func_int64_t_s_s+0x4e>
    8a59:	8b 45 f4             	mov    -0xc(%rbp),%eax
    8a5c:	48 ba ff ff ff ff ff 	movabs $0x7fffffffffffffff,%rdx
    8a63:	ff ff 7f 
    8a66:	89 c1                	mov    %eax,%ecx
    8a68:	48 d3 fa             	sar    %cl,%rdx
    8a6b:	48 89 d0             	mov    %rdx,%rax
    8a6e:	48 39 45 f8          	cmp    %rax,-0x8(%rbp)
    8a72:	7f 11                	jg     8a85 <safe_lshift_func_int64_t_s_s+0x4e>
    8a74:	8b 45 f4             	mov    -0xc(%rbp),%eax
    8a77:	48 8b 55 f8          	mov    -0x8(%rbp),%rdx
    8a7b:	89 c1                	mov    %eax,%ecx
    8a7d:	48 d3 e2             	shl    %cl,%rdx
    8a80:	48 89 d0             	mov    %rdx,%rax
    8a83:	eb 04                	jmp    8a89 <safe_lshift_func_int64_t_s_s+0x52>
    8a85:	48 8b 45 f8          	mov    -0x8(%rbp),%rax
    8a89:	5d                   	pop    %rbp
    8a8a:	c3                   	retq   

0000000000008a8b <safe_lshift_func_int64_t_s_u>:
    8a8b:	f3 0f 1e fa          	endbr64 
    8a8f:	55                   	push   %rbp
    8a90:	48 89 e5             	mov    %rsp,%rbp
    8a93:	48 89 7d f8          	mov    %rdi,-0x8(%rbp)
    8a97:	89 75 f4             	mov    %esi,-0xc(%rbp)
    8a9a:	48 83 7d f8 00       	cmpq   $0x0,-0x8(%rbp)
    8a9f:	78 32                	js     8ad3 <safe_lshift_func_int64_t_s_u+0x48>
    8aa1:	83 7d f4 1f          	cmpl   $0x1f,-0xc(%rbp)
    8aa5:	77 2c                	ja     8ad3 <safe_lshift_func_int64_t_s_u+0x48>
    8aa7:	8b 45 f4             	mov    -0xc(%rbp),%eax
    8aaa:	48 ba ff ff ff ff ff 	movabs $0x7fffffffffffffff,%rdx
    8ab1:	ff ff 7f 
    8ab4:	89 c1                	mov    %eax,%ecx
    8ab6:	48 d3 fa             	sar    %cl,%rdx
    8ab9:	48 89 d0             	mov    %rdx,%rax
    8abc:	48 39 45 f8          	cmp    %rax,-0x8(%rbp)
    8ac0:	7f 11                	jg     8ad3 <safe_lshift_func_int64_t_s_u+0x48>
    8ac2:	8b 45 f4             	mov    -0xc(%rbp),%eax
    8ac5:	48 8b 55 f8          	mov    -0x8(%rbp),%rdx
    8ac9:	89 c1                	mov    %eax,%ecx
    8acb:	48 d3 e2             	shl    %cl,%rdx
    8ace:	48 89 d0             	mov    %rdx,%rax
    8ad1:	eb 04                	jmp    8ad7 <safe_lshift_func_int64_t_s_u+0x4c>
    8ad3:	48 8b 45 f8          	mov    -0x8(%rbp),%rax
    8ad7:	5d                   	pop    %rbp
    8ad8:	c3                   	retq   

0000000000008ad9 <safe_rshift_func_int64_t_s_s>:
    8ad9:	f3 0f 1e fa          	endbr64 
    8add:	55                   	push   %rbp
    8ade:	48 89 e5             	mov    %rsp,%rbp
    8ae1:	48 89 7d f8          	mov    %rdi,-0x8(%rbp)
    8ae5:	89 75 f4             	mov    %esi,-0xc(%rbp)
    8ae8:	48 83 7d f8 00       	cmpq   $0x0,-0x8(%rbp)
    8aed:	78 1d                	js     8b0c <safe_rshift_func_int64_t_s_s+0x33>
    8aef:	83 7d f4 00          	cmpl   $0x0,-0xc(%rbp)
    8af3:	78 17                	js     8b0c <safe_rshift_func_int64_t_s_s+0x33>
    8af5:	83 7d f4 1f          	cmpl   $0x1f,-0xc(%rbp)
    8af9:	7f 11                	jg     8b0c <safe_rshift_func_int64_t_s_s+0x33>
    8afb:	8b 45 f4             	mov    -0xc(%rbp),%eax
    8afe:	48 8b 55 f8          	mov    -0x8(%rbp),%rdx
    8b02:	89 c1                	mov    %eax,%ecx
    8b04:	48 d3 fa             	sar    %cl,%rdx
    8b07:	48 89 d0             	mov    %rdx,%rax
    8b0a:	eb 04                	jmp    8b10 <safe_rshift_func_int64_t_s_s+0x37>
    8b0c:	48 8b 45 f8          	mov    -0x8(%rbp),%rax
    8b10:	5d                   	pop    %rbp
    8b11:	c3                   	retq   

0000000000008b12 <safe_rshift_func_int64_t_s_u>:
    8b12:	f3 0f 1e fa          	endbr64 
    8b16:	55                   	push   %rbp
    8b17:	48 89 e5             	mov    %rsp,%rbp
    8b1a:	48 89 7d f8          	mov    %rdi,-0x8(%rbp)
    8b1e:	89 75 f4             	mov    %esi,-0xc(%rbp)
    8b21:	48 83 7d f8 00       	cmpq   $0x0,-0x8(%rbp)
    8b26:	78 17                	js     8b3f <safe_rshift_func_int64_t_s_u+0x2d>
    8b28:	83 7d f4 1f          	cmpl   $0x1f,-0xc(%rbp)
    8b2c:	77 11                	ja     8b3f <safe_rshift_func_int64_t_s_u+0x2d>
    8b2e:	8b 45 f4             	mov    -0xc(%rbp),%eax
    8b31:	48 8b 55 f8          	mov    -0x8(%rbp),%rdx
    8b35:	89 c1                	mov    %eax,%ecx
    8b37:	48 d3 fa             	sar    %cl,%rdx
    8b3a:	48 89 d0             	mov    %rdx,%rax
    8b3d:	eb 04                	jmp    8b43 <safe_rshift_func_int64_t_s_u+0x31>
    8b3f:	48 8b 45 f8          	mov    -0x8(%rbp),%rax
    8b43:	5d                   	pop    %rbp
    8b44:	c3                   	retq   

0000000000008b45 <safe_unary_minus_func_uint8_t_u>:
    8b45:	f3 0f 1e fa          	endbr64 
    8b49:	55                   	push   %rbp
    8b4a:	48 89 e5             	mov    %rsp,%rbp
    8b4d:	89 f8                	mov    %edi,%eax
    8b4f:	88 45 fc             	mov    %al,-0x4(%rbp)
    8b52:	0f b6 45 fc          	movzbl -0x4(%rbp),%eax
    8b56:	f7 d8                	neg    %eax
    8b58:	5d                   	pop    %rbp
    8b59:	c3                   	retq   

0000000000008b5a <safe_add_func_uint8_t_u_u>:
    8b5a:	f3 0f 1e fa          	endbr64 
    8b5e:	55                   	push   %rbp
    8b5f:	48 89 e5             	mov    %rsp,%rbp
    8b62:	89 fa                	mov    %edi,%edx
    8b64:	89 f0                	mov    %esi,%eax
    8b66:	88 55 fc             	mov    %dl,-0x4(%rbp)
    8b69:	88 45 f8             	mov    %al,-0x8(%rbp)
    8b6c:	0f b6 55 fc          	movzbl -0x4(%rbp),%edx
    8b70:	0f b6 45 f8          	movzbl -0x8(%rbp),%eax
    8b74:	01 d0                	add    %edx,%eax
    8b76:	5d                   	pop    %rbp
    8b77:	c3                   	retq   

0000000000008b78 <safe_sub_func_uint8_t_u_u>:
    8b78:	f3 0f 1e fa          	endbr64 
    8b7c:	55                   	push   %rbp
    8b7d:	48 89 e5             	mov    %rsp,%rbp
    8b80:	89 fa                	mov    %edi,%edx
    8b82:	89 f0                	mov    %esi,%eax
    8b84:	88 55 fc             	mov    %dl,-0x4(%rbp)
    8b87:	88 45 f8             	mov    %al,-0x8(%rbp)
    8b8a:	0f b6 45 fc          	movzbl -0x4(%rbp),%eax
    8b8e:	2a 45 f8             	sub    -0x8(%rbp),%al
    8b91:	5d                   	pop    %rbp
    8b92:	c3                   	retq   

0000000000008b93 <safe_mul_func_uint8_t_u_u>:
    8b93:	f3 0f 1e fa          	endbr64 
    8b97:	55                   	push   %rbp
    8b98:	48 89 e5             	mov    %rsp,%rbp
    8b9b:	89 fa                	mov    %edi,%edx
    8b9d:	89 f0                	mov    %esi,%eax
    8b9f:	88 55 fc             	mov    %dl,-0x4(%rbp)
    8ba2:	88 45 f8             	mov    %al,-0x8(%rbp)
    8ba5:	0f b6 45 fc          	movzbl -0x4(%rbp),%eax
    8ba9:	f6 65 f8             	mulb   -0x8(%rbp)
    8bac:	5d                   	pop    %rbp
    8bad:	c3                   	retq   

0000000000008bae <safe_mod_func_uint8_t_u_u>:
    8bae:	f3 0f 1e fa          	endbr64 
    8bb2:	55                   	push   %rbp
    8bb3:	48 89 e5             	mov    %rsp,%rbp
    8bb6:	89 fa                	mov    %edi,%edx
    8bb8:	89 f0                	mov    %esi,%eax
    8bba:	88 55 fc             	mov    %dl,-0x4(%rbp)
    8bbd:	88 45 f8             	mov    %al,-0x8(%rbp)
    8bc0:	80 7d f8 00          	cmpb   $0x0,-0x8(%rbp)
    8bc4:	74 0f                	je     8bd5 <safe_mod_func_uint8_t_u_u+0x27>
    8bc6:	0f b6 45 fc          	movzbl -0x4(%rbp),%eax
    8bca:	0f b6 c0             	movzbl %al,%eax
    8bcd:	f6 75 f8             	divb   -0x8(%rbp)
    8bd0:	0f b6 c4             	movzbl %ah,%eax
    8bd3:	eb 04                	jmp    8bd9 <safe_mod_func_uint8_t_u_u+0x2b>
    8bd5:	0f b6 45 fc          	movzbl -0x4(%rbp),%eax
    8bd9:	5d                   	pop    %rbp
    8bda:	c3                   	retq   

0000000000008bdb <safe_div_func_uint8_t_u_u>:
    8bdb:	f3 0f 1e fa          	endbr64 
    8bdf:	55                   	push   %rbp
    8be0:	48 89 e5             	mov    %rsp,%rbp
    8be3:	89 fa                	mov    %edi,%edx
    8be5:	89 f0                	mov    %esi,%eax
    8be7:	88 55 fc             	mov    %dl,-0x4(%rbp)
    8bea:	88 45 f8             	mov    %al,-0x8(%rbp)
    8bed:	80 7d f8 00          	cmpb   $0x0,-0x8(%rbp)
    8bf1:	74 0c                	je     8bff <safe_div_func_uint8_t_u_u+0x24>
    8bf3:	0f b6 45 fc          	movzbl -0x4(%rbp),%eax
    8bf7:	0f b6 c0             	movzbl %al,%eax
    8bfa:	f6 75 f8             	divb   -0x8(%rbp)
    8bfd:	eb 04                	jmp    8c03 <safe_div_func_uint8_t_u_u+0x28>
    8bff:	0f b6 45 fc          	movzbl -0x4(%rbp),%eax
    8c03:	5d                   	pop    %rbp
    8c04:	c3                   	retq   

0000000000008c05 <safe_lshift_func_uint8_t_u_s>:
    8c05:	f3 0f 1e fa          	endbr64 
    8c09:	55                   	push   %rbp
    8c0a:	48 89 e5             	mov    %rsp,%rbp
    8c0d:	89 f8                	mov    %edi,%eax
    8c0f:	89 75 f8             	mov    %esi,-0x8(%rbp)
    8c12:	88 45 fc             	mov    %al,-0x4(%rbp)
    8c15:	83 7d f8 00          	cmpl   $0x0,-0x8(%rbp)
    8c19:	78 2b                	js     8c46 <safe_lshift_func_uint8_t_u_s+0x41>
    8c1b:	83 7d f8 1f          	cmpl   $0x1f,-0x8(%rbp)
    8c1f:	7f 25                	jg     8c46 <safe_lshift_func_uint8_t_u_s+0x41>
    8c21:	0f b6 55 fc          	movzbl -0x4(%rbp),%edx
    8c25:	8b 45 f8             	mov    -0x8(%rbp),%eax
    8c28:	be ff 00 00 00       	mov    $0xff,%esi
    8c2d:	89 c1                	mov    %eax,%ecx
    8c2f:	d3 fe                	sar    %cl,%esi
    8c31:	89 f0                	mov    %esi,%eax
    8c33:	39 c2                	cmp    %eax,%edx
    8c35:	7f 0f                	jg     8c46 <safe_lshift_func_uint8_t_u_s+0x41>
    8c37:	0f b6 55 fc          	movzbl -0x4(%rbp),%edx
    8c3b:	8b 45 f8             	mov    -0x8(%rbp),%eax
    8c3e:	89 c1                	mov    %eax,%ecx
    8c40:	d3 e2                	shl    %cl,%edx
    8c42:	89 d0                	mov    %edx,%eax
    8c44:	eb 04                	jmp    8c4a <safe_lshift_func_uint8_t_u_s+0x45>
    8c46:	0f b6 45 fc          	movzbl -0x4(%rbp),%eax
    8c4a:	5d                   	pop    %rbp
    8c4b:	c3                   	retq   

0000000000008c4c <safe_lshift_func_uint8_t_u_u>:
    8c4c:	f3 0f 1e fa          	endbr64 
    8c50:	55                   	push   %rbp
    8c51:	48 89 e5             	mov    %rsp,%rbp
    8c54:	89 f8                	mov    %edi,%eax
    8c56:	89 75 f8             	mov    %esi,-0x8(%rbp)
    8c59:	88 45 fc             	mov    %al,-0x4(%rbp)
    8c5c:	83 7d f8 1f          	cmpl   $0x1f,-0x8(%rbp)
    8c60:	77 25                	ja     8c87 <safe_lshift_func_uint8_t_u_u+0x3b>
    8c62:	0f b6 55 fc          	movzbl -0x4(%rbp),%edx
    8c66:	8b 45 f8             	mov    -0x8(%rbp),%eax
    8c69:	be ff 00 00 00       	mov    $0xff,%esi
    8c6e:	89 c1                	mov    %eax,%ecx
    8c70:	d3 fe                	sar    %cl,%esi
    8c72:	89 f0                	mov    %esi,%eax
    8c74:	39 c2                	cmp    %eax,%edx
    8c76:	7f 0f                	jg     8c87 <safe_lshift_func_uint8_t_u_u+0x3b>
    8c78:	0f b6 55 fc          	movzbl -0x4(%rbp),%edx
    8c7c:	8b 45 f8             	mov    -0x8(%rbp),%eax
    8c7f:	89 c1                	mov    %eax,%ecx
    8c81:	d3 e2                	shl    %cl,%edx
    8c83:	89 d0                	mov    %edx,%eax
    8c85:	eb 04                	jmp    8c8b <safe_lshift_func_uint8_t_u_u+0x3f>
    8c87:	0f b6 45 fc          	movzbl -0x4(%rbp),%eax
    8c8b:	5d                   	pop    %rbp
    8c8c:	c3                   	retq   

0000000000008c8d <safe_rshift_func_uint8_t_u_s>:
    8c8d:	f3 0f 1e fa          	endbr64 
    8c91:	55                   	push   %rbp
    8c92:	48 89 e5             	mov    %rsp,%rbp
    8c95:	89 f8                	mov    %edi,%eax
    8c97:	89 75 f8             	mov    %esi,-0x8(%rbp)
    8c9a:	88 45 fc             	mov    %al,-0x4(%rbp)
    8c9d:	83 7d f8 00          	cmpl   $0x0,-0x8(%rbp)
    8ca1:	78 15                	js     8cb8 <safe_rshift_func_uint8_t_u_s+0x2b>
    8ca3:	83 7d f8 1f          	cmpl   $0x1f,-0x8(%rbp)
    8ca7:	7f 0f                	jg     8cb8 <safe_rshift_func_uint8_t_u_s+0x2b>
    8ca9:	0f b6 55 fc          	movzbl -0x4(%rbp),%edx
    8cad:	8b 45 f8             	mov    -0x8(%rbp),%eax
    8cb0:	89 c1                	mov    %eax,%ecx
    8cb2:	d3 fa                	sar    %cl,%edx
    8cb4:	89 d0                	mov    %edx,%eax
    8cb6:	eb 04                	jmp    8cbc <safe_rshift_func_uint8_t_u_s+0x2f>
    8cb8:	0f b6 45 fc          	movzbl -0x4(%rbp),%eax
    8cbc:	5d                   	pop    %rbp
    8cbd:	c3                   	retq   

0000000000008cbe <safe_rshift_func_uint8_t_u_u>:
    8cbe:	f3 0f 1e fa          	endbr64 
    8cc2:	55                   	push   %rbp
    8cc3:	48 89 e5             	mov    %rsp,%rbp
    8cc6:	89 f8                	mov    %edi,%eax
    8cc8:	89 75 f8             	mov    %esi,-0x8(%rbp)
    8ccb:	88 45 fc             	mov    %al,-0x4(%rbp)
    8cce:	83 7d f8 1f          	cmpl   $0x1f,-0x8(%rbp)
    8cd2:	77 0f                	ja     8ce3 <safe_rshift_func_uint8_t_u_u+0x25>
    8cd4:	0f b6 55 fc          	movzbl -0x4(%rbp),%edx
    8cd8:	8b 45 f8             	mov    -0x8(%rbp),%eax
    8cdb:	89 c1                	mov    %eax,%ecx
    8cdd:	d3 fa                	sar    %cl,%edx
    8cdf:	89 d0                	mov    %edx,%eax
    8ce1:	eb 04                	jmp    8ce7 <safe_rshift_func_uint8_t_u_u+0x29>
    8ce3:	0f b6 45 fc          	movzbl -0x4(%rbp),%eax
    8ce7:	5d                   	pop    %rbp
    8ce8:	c3                   	retq   

0000000000008ce9 <safe_unary_minus_func_uint16_t_u>:
    8ce9:	f3 0f 1e fa          	endbr64 
    8ced:	55                   	push   %rbp
    8cee:	48 89 e5             	mov    %rsp,%rbp
    8cf1:	89 f8                	mov    %edi,%eax
    8cf3:	66 89 45 fc          	mov    %ax,-0x4(%rbp)
    8cf7:	0f b7 45 fc          	movzwl -0x4(%rbp),%eax
    8cfb:	f7 d8                	neg    %eax
    8cfd:	5d                   	pop    %rbp
    8cfe:	c3                   	retq   

0000000000008cff <safe_add_func_uint16_t_u_u>:
    8cff:	f3 0f 1e fa          	endbr64 
    8d03:	55                   	push   %rbp
    8d04:	48 89 e5             	mov    %rsp,%rbp
    8d07:	89 fa                	mov    %edi,%edx
    8d09:	89 f0                	mov    %esi,%eax
    8d0b:	66 89 55 fc          	mov    %dx,-0x4(%rbp)
    8d0f:	66 89 45 f8          	mov    %ax,-0x8(%rbp)
    8d13:	0f b7 55 fc          	movzwl -0x4(%rbp),%edx
    8d17:	0f b7 45 f8          	movzwl -0x8(%rbp),%eax
    8d1b:	01 d0                	add    %edx,%eax
    8d1d:	5d                   	pop    %rbp
    8d1e:	c3                   	retq   

0000000000008d1f <safe_sub_func_uint16_t_u_u>:
    8d1f:	f3 0f 1e fa          	endbr64 
    8d23:	55                   	push   %rbp
    8d24:	48 89 e5             	mov    %rsp,%rbp
    8d27:	89 fa                	mov    %edi,%edx
    8d29:	89 f0                	mov    %esi,%eax
    8d2b:	66 89 55 fc          	mov    %dx,-0x4(%rbp)
    8d2f:	66 89 45 f8          	mov    %ax,-0x8(%rbp)
    8d33:	0f b7 45 fc          	movzwl -0x4(%rbp),%eax
    8d37:	66 2b 45 f8          	sub    -0x8(%rbp),%ax
    8d3b:	5d                   	pop    %rbp
    8d3c:	c3                   	retq   

0000000000008d3d <safe_mul_func_uint16_t_u_u>:
    8d3d:	f3 0f 1e fa          	endbr64 
    8d41:	55                   	push   %rbp
    8d42:	48 89 e5             	mov    %rsp,%rbp
    8d45:	89 fa                	mov    %edi,%edx
    8d47:	89 f0                	mov    %esi,%eax
    8d49:	66 89 55 fc          	mov    %dx,-0x4(%rbp)
    8d4d:	66 89 45 f8          	mov    %ax,-0x8(%rbp)
    8d51:	0f b7 45 fc          	movzwl -0x4(%rbp),%eax
    8d55:	66 0f af 45 f8       	imul   -0x8(%rbp),%ax
    8d5a:	5d                   	pop    %rbp
    8d5b:	c3                   	retq   

0000000000008d5c <safe_mod_func_uint16_t_u_u>:
    8d5c:	f3 0f 1e fa          	endbr64 
    8d60:	55                   	push   %rbp
    8d61:	48 89 e5             	mov    %rsp,%rbp
    8d64:	89 fa                	mov    %edi,%edx
    8d66:	89 f0                	mov    %esi,%eax
    8d68:	66 89 55 fc          	mov    %dx,-0x4(%rbp)
    8d6c:	66 89 45 f8          	mov    %ax,-0x8(%rbp)
    8d70:	66 83 7d f8 00       	cmpw   $0x0,-0x8(%rbp)
    8d75:	74 11                	je     8d88 <safe_mod_func_uint16_t_u_u+0x2c>
    8d77:	0f b7 45 fc          	movzwl -0x4(%rbp),%eax
    8d7b:	ba 00 00 00 00       	mov    $0x0,%edx
    8d80:	66 f7 75 f8          	divw   -0x8(%rbp)
    8d84:	89 d0                	mov    %edx,%eax
    8d86:	eb 04                	jmp    8d8c <safe_mod_func_uint16_t_u_u+0x30>
    8d88:	0f b7 45 fc          	movzwl -0x4(%rbp),%eax
    8d8c:	5d                   	pop    %rbp
    8d8d:	c3                   	retq   

0000000000008d8e <safe_div_func_uint16_t_u_u>:
    8d8e:	f3 0f 1e fa          	endbr64 
    8d92:	55                   	push   %rbp
    8d93:	48 89 e5             	mov    %rsp,%rbp
    8d96:	89 fa                	mov    %edi,%edx
    8d98:	89 f0                	mov    %esi,%eax
    8d9a:	66 89 55 fc          	mov    %dx,-0x4(%rbp)
    8d9e:	66 89 45 f8          	mov    %ax,-0x8(%rbp)
    8da2:	66 83 7d f8 00       	cmpw   $0x0,-0x8(%rbp)
    8da7:	74 0f                	je     8db8 <safe_div_func_uint16_t_u_u+0x2a>
    8da9:	0f b7 45 fc          	movzwl -0x4(%rbp),%eax
    8dad:	ba 00 00 00 00       	mov    $0x0,%edx
    8db2:	66 f7 75 f8          	divw   -0x8(%rbp)
    8db6:	eb 04                	jmp    8dbc <safe_div_func_uint16_t_u_u+0x2e>
    8db8:	0f b7 45 fc          	movzwl -0x4(%rbp),%eax
    8dbc:	5d                   	pop    %rbp
    8dbd:	c3                   	retq   

0000000000008dbe <safe_lshift_func_uint16_t_u_s>:
    8dbe:	f3 0f 1e fa          	endbr64 
    8dc2:	55                   	push   %rbp
    8dc3:	48 89 e5             	mov    %rsp,%rbp
    8dc6:	89 f8                	mov    %edi,%eax
    8dc8:	89 75 f8             	mov    %esi,-0x8(%rbp)
    8dcb:	66 89 45 fc          	mov    %ax,-0x4(%rbp)
    8dcf:	83 7d f8 00          	cmpl   $0x0,-0x8(%rbp)
    8dd3:	78 2b                	js     8e00 <safe_lshift_func_uint16_t_u_s+0x42>
    8dd5:	83 7d f8 1f          	cmpl   $0x1f,-0x8(%rbp)
    8dd9:	7f 25                	jg     8e00 <safe_lshift_func_uint16_t_u_s+0x42>
    8ddb:	0f b7 55 fc          	movzwl -0x4(%rbp),%edx
    8ddf:	8b 45 f8             	mov    -0x8(%rbp),%eax
    8de2:	be ff ff 00 00       	mov    $0xffff,%esi
    8de7:	89 c1                	mov    %eax,%ecx
    8de9:	d3 fe                	sar    %cl,%esi
    8deb:	89 f0                	mov    %esi,%eax
    8ded:	39 c2                	cmp    %eax,%edx
    8def:	7f 0f                	jg     8e00 <safe_lshift_func_uint16_t_u_s+0x42>
    8df1:	0f b7 55 fc          	movzwl -0x4(%rbp),%edx
    8df5:	8b 45 f8             	mov    -0x8(%rbp),%eax
    8df8:	89 c1                	mov    %eax,%ecx
    8dfa:	d3 e2                	shl    %cl,%edx
    8dfc:	89 d0                	mov    %edx,%eax
    8dfe:	eb 04                	jmp    8e04 <safe_lshift_func_uint16_t_u_s+0x46>
    8e00:	0f b7 45 fc          	movzwl -0x4(%rbp),%eax
    8e04:	5d                   	pop    %rbp
    8e05:	c3                   	retq   

0000000000008e06 <safe_lshift_func_uint16_t_u_u>:
    8e06:	f3 0f 1e fa          	endbr64 
    8e0a:	55                   	push   %rbp
    8e0b:	48 89 e5             	mov    %rsp,%rbp
    8e0e:	89 f8                	mov    %edi,%eax
    8e10:	89 75 f8             	mov    %esi,-0x8(%rbp)
    8e13:	66 89 45 fc          	mov    %ax,-0x4(%rbp)
    8e17:	83 7d f8 1f          	cmpl   $0x1f,-0x8(%rbp)
    8e1b:	77 25                	ja     8e42 <safe_lshift_func_uint16_t_u_u+0x3c>
    8e1d:	0f b7 55 fc          	movzwl -0x4(%rbp),%edx
    8e21:	8b 45 f8             	mov    -0x8(%rbp),%eax
    8e24:	be ff ff 00 00       	mov    $0xffff,%esi
    8e29:	89 c1                	mov    %eax,%ecx
    8e2b:	d3 fe                	sar    %cl,%esi
    8e2d:	89 f0                	mov    %esi,%eax
    8e2f:	39 c2                	cmp    %eax,%edx
    8e31:	7f 0f                	jg     8e42 <safe_lshift_func_uint16_t_u_u+0x3c>
    8e33:	0f b7 55 fc          	movzwl -0x4(%rbp),%edx
    8e37:	8b 45 f8             	mov    -0x8(%rbp),%eax
    8e3a:	89 c1                	mov    %eax,%ecx
    8e3c:	d3 e2                	shl    %cl,%edx
    8e3e:	89 d0                	mov    %edx,%eax
    8e40:	eb 04                	jmp    8e46 <safe_lshift_func_uint16_t_u_u+0x40>
    8e42:	0f b7 45 fc          	movzwl -0x4(%rbp),%eax
    8e46:	5d                   	pop    %rbp
    8e47:	c3                   	retq   

0000000000008e48 <safe_rshift_func_uint16_t_u_s>:
    8e48:	f3 0f 1e fa          	endbr64 
    8e4c:	55                   	push   %rbp
    8e4d:	48 89 e5             	mov    %rsp,%rbp
    8e50:	89 f8                	mov    %edi,%eax
    8e52:	89 75 f8             	mov    %esi,-0x8(%rbp)
    8e55:	66 89 45 fc          	mov    %ax,-0x4(%rbp)
    8e59:	83 7d f8 00          	cmpl   $0x0,-0x8(%rbp)
    8e5d:	78 15                	js     8e74 <safe_rshift_func_uint16_t_u_s+0x2c>
    8e5f:	83 7d f8 1f          	cmpl   $0x1f,-0x8(%rbp)
    8e63:	7f 0f                	jg     8e74 <safe_rshift_func_uint16_t_u_s+0x2c>
    8e65:	0f b7 55 fc          	movzwl -0x4(%rbp),%edx
    8e69:	8b 45 f8             	mov    -0x8(%rbp),%eax
    8e6c:	89 c1                	mov    %eax,%ecx
    8e6e:	d3 fa                	sar    %cl,%edx
    8e70:	89 d0                	mov    %edx,%eax
    8e72:	eb 04                	jmp    8e78 <safe_rshift_func_uint16_t_u_s+0x30>
    8e74:	0f b7 45 fc          	movzwl -0x4(%rbp),%eax
    8e78:	5d                   	pop    %rbp
    8e79:	c3                   	retq   

0000000000008e7a <safe_rshift_func_uint16_t_u_u>:
    8e7a:	f3 0f 1e fa          	endbr64 
    8e7e:	55                   	push   %rbp
    8e7f:	48 89 e5             	mov    %rsp,%rbp
    8e82:	89 f8                	mov    %edi,%eax
    8e84:	89 75 f8             	mov    %esi,-0x8(%rbp)
    8e87:	66 89 45 fc          	mov    %ax,-0x4(%rbp)
    8e8b:	83 7d f8 1f          	cmpl   $0x1f,-0x8(%rbp)
    8e8f:	77 0f                	ja     8ea0 <safe_rshift_func_uint16_t_u_u+0x26>
    8e91:	0f b7 55 fc          	movzwl -0x4(%rbp),%edx
    8e95:	8b 45 f8             	mov    -0x8(%rbp),%eax
    8e98:	89 c1                	mov    %eax,%ecx
    8e9a:	d3 fa                	sar    %cl,%edx
    8e9c:	89 d0                	mov    %edx,%eax
    8e9e:	eb 04                	jmp    8ea4 <safe_rshift_func_uint16_t_u_u+0x2a>
    8ea0:	0f b7 45 fc          	movzwl -0x4(%rbp),%eax
    8ea4:	5d                   	pop    %rbp
    8ea5:	c3                   	retq   

0000000000008ea6 <safe_unary_minus_func_uint32_t_u>:
    8ea6:	f3 0f 1e fa          	endbr64 
    8eaa:	55                   	push   %rbp
    8eab:	48 89 e5             	mov    %rsp,%rbp
    8eae:	89 7d fc             	mov    %edi,-0x4(%rbp)
    8eb1:	8b 45 fc             	mov    -0x4(%rbp),%eax
    8eb4:	f7 d8                	neg    %eax
    8eb6:	5d                   	pop    %rbp
    8eb7:	c3                   	retq   

0000000000008eb8 <safe_add_func_uint32_t_u_u>:
    8eb8:	f3 0f 1e fa          	endbr64 
    8ebc:	55                   	push   %rbp
    8ebd:	48 89 e5             	mov    %rsp,%rbp
    8ec0:	89 7d fc             	mov    %edi,-0x4(%rbp)
    8ec3:	89 75 f8             	mov    %esi,-0x8(%rbp)
    8ec6:	8b 55 fc             	mov    -0x4(%rbp),%edx
    8ec9:	8b 45 f8             	mov    -0x8(%rbp),%eax
    8ecc:	01 d0                	add    %edx,%eax
    8ece:	5d                   	pop    %rbp
    8ecf:	c3                   	retq   

0000000000008ed0 <safe_sub_func_uint32_t_u_u>:
    8ed0:	f3 0f 1e fa          	endbr64 
    8ed4:	55                   	push   %rbp
    8ed5:	48 89 e5             	mov    %rsp,%rbp
    8ed8:	89 7d fc             	mov    %edi,-0x4(%rbp)
    8edb:	89 75 f8             	mov    %esi,-0x8(%rbp)
    8ede:	8b 45 fc             	mov    -0x4(%rbp),%eax
    8ee1:	2b 45 f8             	sub    -0x8(%rbp),%eax
    8ee4:	5d                   	pop    %rbp
    8ee5:	c3                   	retq   

0000000000008ee6 <safe_mul_func_uint32_t_u_u>:
    8ee6:	f3 0f 1e fa          	endbr64 
    8eea:	55                   	push   %rbp
    8eeb:	48 89 e5             	mov    %rsp,%rbp
    8eee:	89 7d fc             	mov    %edi,-0x4(%rbp)
    8ef1:	89 75 f8             	mov    %esi,-0x8(%rbp)
    8ef4:	8b 45 fc             	mov    -0x4(%rbp),%eax
    8ef7:	0f af 45 f8          	imul   -0x8(%rbp),%eax
    8efb:	5d                   	pop    %rbp
    8efc:	c3                   	retq   

0000000000008efd <safe_mod_func_uint32_t_u_u>:
    8efd:	f3 0f 1e fa          	endbr64 
    8f01:	55                   	push   %rbp
    8f02:	48 89 e5             	mov    %rsp,%rbp
    8f05:	89 7d fc             	mov    %edi,-0x4(%rbp)
    8f08:	89 75 f8             	mov    %esi,-0x8(%rbp)
    8f0b:	83 7d f8 00          	cmpl   $0x0,-0x8(%rbp)
    8f0f:	74 0f                	je     8f20 <safe_mod_func_uint32_t_u_u+0x23>
    8f11:	8b 45 fc             	mov    -0x4(%rbp),%eax
    8f14:	ba 00 00 00 00       	mov    $0x0,%edx
    8f19:	f7 75 f8             	divl   -0x8(%rbp)
    8f1c:	89 d0                	mov    %edx,%eax
    8f1e:	eb 03                	jmp    8f23 <safe_mod_func_uint32_t_u_u+0x26>
    8f20:	8b 45 fc             	mov    -0x4(%rbp),%eax
    8f23:	5d                   	pop    %rbp
    8f24:	c3                   	retq   

0000000000008f25 <safe_div_func_uint32_t_u_u>:
    8f25:	f3 0f 1e fa          	endbr64 
    8f29:	55                   	push   %rbp
    8f2a:	48 89 e5             	mov    %rsp,%rbp
    8f2d:	89 7d fc             	mov    %edi,-0x4(%rbp)
    8f30:	89 75 f8             	mov    %esi,-0x8(%rbp)
    8f33:	83 7d f8 00          	cmpl   $0x0,-0x8(%rbp)
    8f37:	74 0d                	je     8f46 <safe_div_func_uint32_t_u_u+0x21>
    8f39:	8b 45 fc             	mov    -0x4(%rbp),%eax
    8f3c:	ba 00 00 00 00       	mov    $0x0,%edx
    8f41:	f7 75 f8             	divl   -0x8(%rbp)
    8f44:	eb 03                	jmp    8f49 <safe_div_func_uint32_t_u_u+0x24>
    8f46:	8b 45 fc             	mov    -0x4(%rbp),%eax
    8f49:	5d                   	pop    %rbp
    8f4a:	c3                   	retq   

0000000000008f4b <safe_lshift_func_uint32_t_u_s>:
    8f4b:	f3 0f 1e fa          	endbr64 
    8f4f:	55                   	push   %rbp
    8f50:	48 89 e5             	mov    %rsp,%rbp
    8f53:	89 7d fc             	mov    %edi,-0x4(%rbp)
    8f56:	89 75 f8             	mov    %esi,-0x8(%rbp)
    8f59:	83 7d f8 00          	cmpl   $0x0,-0x8(%rbp)
    8f5d:	78 27                	js     8f86 <safe_lshift_func_uint32_t_u_s+0x3b>
    8f5f:	83 7d f8 1f          	cmpl   $0x1f,-0x8(%rbp)
    8f63:	7f 21                	jg     8f86 <safe_lshift_func_uint32_t_u_s+0x3b>
    8f65:	8b 45 f8             	mov    -0x8(%rbp),%eax
    8f68:	ba ff ff ff ff       	mov    $0xffffffff,%edx
    8f6d:	89 c1                	mov    %eax,%ecx
    8f6f:	d3 ea                	shr    %cl,%edx
    8f71:	89 d0                	mov    %edx,%eax
    8f73:	39 45 fc             	cmp    %eax,-0x4(%rbp)
    8f76:	77 0e                	ja     8f86 <safe_lshift_func_uint32_t_u_s+0x3b>
    8f78:	8b 45 f8             	mov    -0x8(%rbp),%eax
    8f7b:	8b 55 fc             	mov    -0x4(%rbp),%edx
    8f7e:	89 c1                	mov    %eax,%ecx
    8f80:	d3 e2                	shl    %cl,%edx
    8f82:	89 d0                	mov    %edx,%eax
    8f84:	eb 03                	jmp    8f89 <safe_lshift_func_uint32_t_u_s+0x3e>
    8f86:	8b 45 fc             	mov    -0x4(%rbp),%eax
    8f89:	5d                   	pop    %rbp
    8f8a:	c3                   	retq   

0000000000008f8b <safe_lshift_func_uint32_t_u_u>:
    8f8b:	f3 0f 1e fa          	endbr64 
    8f8f:	55                   	push   %rbp
    8f90:	48 89 e5             	mov    %rsp,%rbp
    8f93:	89 7d fc             	mov    %edi,-0x4(%rbp)
    8f96:	89 75 f8             	mov    %esi,-0x8(%rbp)
    8f99:	83 7d f8 1f          	cmpl   $0x1f,-0x8(%rbp)
    8f9d:	77 21                	ja     8fc0 <safe_lshift_func_uint32_t_u_u+0x35>
    8f9f:	8b 45 f8             	mov    -0x8(%rbp),%eax
    8fa2:	ba ff ff ff ff       	mov    $0xffffffff,%edx
    8fa7:	89 c1                	mov    %eax,%ecx
    8fa9:	d3 ea                	shr    %cl,%edx
    8fab:	89 d0                	mov    %edx,%eax
    8fad:	39 45 fc             	cmp    %eax,-0x4(%rbp)
    8fb0:	77 0e                	ja     8fc0 <safe_lshift_func_uint32_t_u_u+0x35>
    8fb2:	8b 45 f8             	mov    -0x8(%rbp),%eax
    8fb5:	8b 55 fc             	mov    -0x4(%rbp),%edx
    8fb8:	89 c1                	mov    %eax,%ecx
    8fba:	d3 e2                	shl    %cl,%edx
    8fbc:	89 d0                	mov    %edx,%eax
    8fbe:	eb 03                	jmp    8fc3 <safe_lshift_func_uint32_t_u_u+0x38>
    8fc0:	8b 45 fc             	mov    -0x4(%rbp),%eax
    8fc3:	5d                   	pop    %rbp
    8fc4:	c3                   	retq   

0000000000008fc5 <safe_rshift_func_uint32_t_u_s>:
    8fc5:	f3 0f 1e fa          	endbr64 
    8fc9:	55                   	push   %rbp
    8fca:	48 89 e5             	mov    %rsp,%rbp
    8fcd:	89 7d fc             	mov    %edi,-0x4(%rbp)
    8fd0:	89 75 f8             	mov    %esi,-0x8(%rbp)
    8fd3:	83 7d f8 00          	cmpl   $0x0,-0x8(%rbp)
    8fd7:	78 14                	js     8fed <safe_rshift_func_uint32_t_u_s+0x28>
    8fd9:	83 7d f8 1f          	cmpl   $0x1f,-0x8(%rbp)
    8fdd:	7f 0e                	jg     8fed <safe_rshift_func_uint32_t_u_s+0x28>
    8fdf:	8b 45 f8             	mov    -0x8(%rbp),%eax
    8fe2:	8b 55 fc             	mov    -0x4(%rbp),%edx
    8fe5:	89 c1                	mov    %eax,%ecx
    8fe7:	d3 ea                	shr    %cl,%edx
    8fe9:	89 d0                	mov    %edx,%eax
    8feb:	eb 03                	jmp    8ff0 <safe_rshift_func_uint32_t_u_s+0x2b>
    8fed:	8b 45 fc             	mov    -0x4(%rbp),%eax
    8ff0:	5d                   	pop    %rbp
    8ff1:	c3                   	retq   

0000000000008ff2 <safe_rshift_func_uint32_t_u_u>:
    8ff2:	f3 0f 1e fa          	endbr64 
    8ff6:	55                   	push   %rbp
    8ff7:	48 89 e5             	mov    %rsp,%rbp
    8ffa:	89 7d fc             	mov    %edi,-0x4(%rbp)
    8ffd:	89 75 f8             	mov    %esi,-0x8(%rbp)
    9000:	83 7d f8 1f          	cmpl   $0x1f,-0x8(%rbp)
    9004:	77 0e                	ja     9014 <safe_rshift_func_uint32_t_u_u+0x22>
    9006:	8b 45 f8             	mov    -0x8(%rbp),%eax
    9009:	8b 55 fc             	mov    -0x4(%rbp),%edx
    900c:	89 c1                	mov    %eax,%ecx
    900e:	d3 ea                	shr    %cl,%edx
    9010:	89 d0                	mov    %edx,%eax
    9012:	eb 03                	jmp    9017 <safe_rshift_func_uint32_t_u_u+0x25>
    9014:	8b 45 fc             	mov    -0x4(%rbp),%eax
    9017:	5d                   	pop    %rbp
    9018:	c3                   	retq   

0000000000009019 <safe_unary_minus_func_uint64_t_u>:
    9019:	f3 0f 1e fa          	endbr64 
    901d:	55                   	push   %rbp
    901e:	48 89 e5             	mov    %rsp,%rbp
    9021:	48 89 7d f8          	mov    %rdi,-0x8(%rbp)
    9025:	48 8b 45 f8          	mov    -0x8(%rbp),%rax
    9029:	48 f7 d8             	neg    %rax
    902c:	5d                   	pop    %rbp
    902d:	c3                   	retq   

000000000000902e <safe_add_func_uint64_t_u_u>:
    902e:	f3 0f 1e fa          	endbr64 
    9032:	55                   	push   %rbp
    9033:	48 89 e5             	mov    %rsp,%rbp
    9036:	48 89 7d f8          	mov    %rdi,-0x8(%rbp)
    903a:	48 89 75 f0          	mov    %rsi,-0x10(%rbp)
    903e:	48 8b 55 f8          	mov    -0x8(%rbp),%rdx
    9042:	48 8b 45 f0          	mov    -0x10(%rbp),%rax
    9046:	48 01 d0             	add    %rdx,%rax
    9049:	5d                   	pop    %rbp
    904a:	c3                   	retq   

000000000000904b <safe_sub_func_uint64_t_u_u>:
    904b:	f3 0f 1e fa          	endbr64 
    904f:	55                   	push   %rbp
    9050:	48 89 e5             	mov    %rsp,%rbp
    9053:	48 89 7d f8          	mov    %rdi,-0x8(%rbp)
    9057:	48 89 75 f0          	mov    %rsi,-0x10(%rbp)
    905b:	48 8b 45 f8          	mov    -0x8(%rbp),%rax
    905f:	48 2b 45 f0          	sub    -0x10(%rbp),%rax
    9063:	5d                   	pop    %rbp
    9064:	c3                   	retq   

0000000000009065 <safe_mul_func_uint64_t_u_u>:
    9065:	f3 0f 1e fa          	endbr64 
    9069:	55                   	push   %rbp
    906a:	48 89 e5             	mov    %rsp,%rbp
    906d:	48 89 7d f8          	mov    %rdi,-0x8(%rbp)
    9071:	48 89 75 f0          	mov    %rsi,-0x10(%rbp)
    9075:	48 8b 45 f8          	mov    -0x8(%rbp),%rax
    9079:	48 0f af 45 f0       	imul   -0x10(%rbp),%rax
    907e:	5d                   	pop    %rbp
    907f:	c3                   	retq   

0000000000009080 <safe_mod_func_uint64_t_u_u>:
    9080:	f3 0f 1e fa          	endbr64 
    9084:	55                   	push   %rbp
    9085:	48 89 e5             	mov    %rsp,%rbp
    9088:	48 89 7d f8          	mov    %rdi,-0x8(%rbp)
    908c:	48 89 75 f0          	mov    %rsi,-0x10(%rbp)
    9090:	48 83 7d f0 00       	cmpq   $0x0,-0x10(%rbp)
    9095:	74 12                	je     90a9 <safe_mod_func_uint64_t_u_u+0x29>
    9097:	48 8b 45 f8          	mov    -0x8(%rbp),%rax
    909b:	ba 00 00 00 00       	mov    $0x0,%edx
    90a0:	48 f7 75 f0          	divq   -0x10(%rbp)
    90a4:	48 89 d0             	mov    %rdx,%rax
    90a7:	eb 04                	jmp    90ad <safe_mod_func_uint64_t_u_u+0x2d>
    90a9:	48 8b 45 f8          	mov    -0x8(%rbp),%rax
    90ad:	5d                   	pop    %rbp
    90ae:	c3                   	retq   

00000000000090af <safe_div_func_uint64_t_u_u>:
    90af:	f3 0f 1e fa          	endbr64 
    90b3:	55                   	push   %rbp
    90b4:	48 89 e5             	mov    %rsp,%rbp
    90b7:	48 89 7d f8          	mov    %rdi,-0x8(%rbp)
    90bb:	48 89 75 f0          	mov    %rsi,-0x10(%rbp)
    90bf:	48 83 7d f0 00       	cmpq   $0x0,-0x10(%rbp)
    90c4:	74 0f                	je     90d5 <safe_div_func_uint64_t_u_u+0x26>
    90c6:	48 8b 45 f8          	mov    -0x8(%rbp),%rax
    90ca:	ba 00 00 00 00       	mov    $0x0,%edx
    90cf:	48 f7 75 f0          	divq   -0x10(%rbp)
    90d3:	eb 04                	jmp    90d9 <safe_div_func_uint64_t_u_u+0x2a>
    90d5:	48 8b 45 f8          	mov    -0x8(%rbp),%rax
    90d9:	5d                   	pop    %rbp
    90da:	c3                   	retq   

00000000000090db <safe_lshift_func_uint64_t_u_s>:
    90db:	f3 0f 1e fa          	endbr64 
    90df:	55                   	push   %rbp
    90e0:	48 89 e5             	mov    %rsp,%rbp
    90e3:	48 89 7d f8          	mov    %rdi,-0x8(%rbp)
    90e7:	89 75 f4             	mov    %esi,-0xc(%rbp)
    90ea:	83 7d f4 00          	cmpl   $0x0,-0xc(%rbp)
    90ee:	78 2f                	js     911f <safe_lshift_func_uint64_t_u_s+0x44>
    90f0:	83 7d f4 1f          	cmpl   $0x1f,-0xc(%rbp)
    90f4:	7f 29                	jg     911f <safe_lshift_func_uint64_t_u_s+0x44>
    90f6:	8b 45 f4             	mov    -0xc(%rbp),%eax
    90f9:	48 c7 c2 ff ff ff ff 	mov    $0xffffffffffffffff,%rdx
    9100:	89 c1                	mov    %eax,%ecx
    9102:	48 d3 ea             	shr    %cl,%rdx
    9105:	48 89 d0             	mov    %rdx,%rax
    9108:	48 39 45 f8          	cmp    %rax,-0x8(%rbp)
    910c:	77 11                	ja     911f <safe_lshift_func_uint64_t_u_s+0x44>
    910e:	8b 45 f4             	mov    -0xc(%rbp),%eax
    9111:	48 8b 55 f8          	mov    -0x8(%rbp),%rdx
    9115:	89 c1                	mov    %eax,%ecx
    9117:	48 d3 e2             	shl    %cl,%rdx
    911a:	48 89 d0             	mov    %rdx,%rax
    911d:	eb 04                	jmp    9123 <safe_lshift_func_uint64_t_u_s+0x48>
    911f:	48 8b 45 f8          	mov    -0x8(%rbp),%rax
    9123:	5d                   	pop    %rbp
    9124:	c3                   	retq   

0000000000009125 <safe_lshift_func_uint64_t_u_u>:
    9125:	f3 0f 1e fa          	endbr64 
    9129:	55                   	push   %rbp
    912a:	48 89 e5             	mov    %rsp,%rbp
    912d:	48 89 7d f8          	mov    %rdi,-0x8(%rbp)
    9131:	89 75 f4             	mov    %esi,-0xc(%rbp)
    9134:	83 7d f4 1f          	cmpl   $0x1f,-0xc(%rbp)
    9138:	77 29                	ja     9163 <safe_lshift_func_uint64_t_u_u+0x3e>
    913a:	8b 45 f4             	mov    -0xc(%rbp),%eax
    913d:	48 c7 c2 ff ff ff ff 	mov    $0xffffffffffffffff,%rdx
    9144:	89 c1                	mov    %eax,%ecx
    9146:	48 d3 ea             	shr    %cl,%rdx
    9149:	48 89 d0             	mov    %rdx,%rax
    914c:	48 39 45 f8          	cmp    %rax,-0x8(%rbp)
    9150:	77 11                	ja     9163 <safe_lshift_func_uint64_t_u_u+0x3e>
    9152:	8b 45 f4             	mov    -0xc(%rbp),%eax
    9155:	48 8b 55 f8          	mov    -0x8(%rbp),%rdx
    9159:	89 c1                	mov    %eax,%ecx
    915b:	48 d3 e2             	shl    %cl,%rdx
    915e:	48 89 d0             	mov    %rdx,%rax
    9161:	eb 04                	jmp    9167 <safe_lshift_func_uint64_t_u_u+0x42>
    9163:	48 8b 45 f8          	mov    -0x8(%rbp),%rax
    9167:	5d                   	pop    %rbp
    9168:	c3                   	retq   

0000000000009169 <safe_rshift_func_uint64_t_u_s>:
    9169:	f3 0f 1e fa          	endbr64 
    916d:	55                   	push   %rbp
    916e:	48 89 e5             	mov    %rsp,%rbp
    9171:	48 89 7d f8          	mov    %rdi,-0x8(%rbp)
    9175:	89 75 f4             	mov    %esi,-0xc(%rbp)
    9178:	83 7d f4 00          	cmpl   $0x0,-0xc(%rbp)
    917c:	78 17                	js     9195 <safe_rshift_func_uint64_t_u_s+0x2c>
    917e:	83 7d f4 1f          	cmpl   $0x1f,-0xc(%rbp)
    9182:	7f 11                	jg     9195 <safe_rshift_func_uint64_t_u_s+0x2c>
    9184:	8b 45 f4             	mov    -0xc(%rbp),%eax
    9187:	48 8b 55 f8          	mov    -0x8(%rbp),%rdx
    918b:	89 c1                	mov    %eax,%ecx
    918d:	48 d3 ea             	shr    %cl,%rdx
    9190:	48 89 d0             	mov    %rdx,%rax
    9193:	eb 04                	jmp    9199 <safe_rshift_func_uint64_t_u_s+0x30>
    9195:	48 8b 45 f8          	mov    -0x8(%rbp),%rax
    9199:	5d                   	pop    %rbp
    919a:	c3                   	retq   

000000000000919b <safe_rshift_func_uint64_t_u_u>:
    919b:	f3 0f 1e fa          	endbr64 
    919f:	55                   	push   %rbp
    91a0:	48 89 e5             	mov    %rsp,%rbp
    91a3:	48 89 7d f8          	mov    %rdi,-0x8(%rbp)
    91a7:	89 75 f4             	mov    %esi,-0xc(%rbp)
    91aa:	83 7d f4 1f          	cmpl   $0x1f,-0xc(%rbp)
    91ae:	77 11                	ja     91c1 <safe_rshift_func_uint64_t_u_u+0x26>
    91b0:	8b 45 f4             	mov    -0xc(%rbp),%eax
    91b3:	48 8b 55 f8          	mov    -0x8(%rbp),%rdx
    91b7:	89 c1                	mov    %eax,%ecx
    91b9:	48 d3 ea             	shr    %cl,%rdx
    91bc:	48 89 d0             	mov    %rdx,%rax
    91bf:	eb 04                	jmp    91c5 <safe_rshift_func_uint64_t_u_u+0x2a>
    91c1:	48 8b 45 f8          	mov    -0x8(%rbp),%rax
    91c5:	5d                   	pop    %rbp
    91c6:	c3                   	retq   

00000000000091c7 <safe_add_func_float_f_f>:
    91c7:	f3 0f 1e fa          	endbr64 
    91cb:	55                   	push   %rbp
    91cc:	48 89 e5             	mov    %rsp,%rbp
    91cf:	f3 0f 11 45 fc       	movss  %xmm0,-0x4(%rbp)
    91d4:	f3 0f 11 4d f8       	movss  %xmm1,-0x8(%rbp)
    91d9:	f3 0f 10 4d fc       	movss  -0x4(%rbp),%xmm1
    91de:	f3 0f 10 05 0e 82 00 	movss  0x820e(%rip),%xmm0        # 113f4 <l_1962.4289+0xf4>
    91e5:	00 
    91e6:	f3 0f 59 c8          	mulss  %xmm0,%xmm1
    91ea:	f3 0f 10 55 f8       	movss  -0x8(%rbp),%xmm2
    91ef:	f3 0f 10 05 fd 81 00 	movss  0x81fd(%rip),%xmm0        # 113f4 <l_1962.4289+0xf4>
    91f6:	00 
    91f7:	f3 0f 59 c2          	mulss  %xmm2,%xmm0
    91fb:	f3 0f 58 c1          	addss  %xmm1,%xmm0
    91ff:	f3 0f 10 0d f9 81 00 	movss  0x81f9(%rip),%xmm1        # 11400 <l_1962.4289+0x100>
    9206:	00 
    9207:	0f 54 c1             	andps  %xmm1,%xmm0
    920a:	0f 2f 05 ff 81 00 00 	comiss 0x81ff(%rip),%xmm0        # 11410 <l_1962.4289+0x110>
    9211:	76 07                	jbe    921a <safe_add_func_float_f_f+0x53>
    9213:	f3 0f 10 45 fc       	movss  -0x4(%rbp),%xmm0
    9218:	eb 0a                	jmp    9224 <safe_add_func_float_f_f+0x5d>
    921a:	f3 0f 10 45 fc       	movss  -0x4(%rbp),%xmm0
    921f:	f3 0f 58 45 f8       	addss  -0x8(%rbp),%xmm0
    9224:	5d                   	pop    %rbp
    9225:	c3                   	retq   

0000000000009226 <safe_sub_func_float_f_f>:
    9226:	f3 0f 1e fa          	endbr64 
    922a:	55                   	push   %rbp
    922b:	48 89 e5             	mov    %rsp,%rbp
    922e:	f3 0f 11 45 fc       	movss  %xmm0,-0x4(%rbp)
    9233:	f3 0f 11 4d f8       	movss  %xmm1,-0x8(%rbp)
    9238:	f3 0f 10 4d fc       	movss  -0x4(%rbp),%xmm1
    923d:	f3 0f 10 05 af 81 00 	movss  0x81af(%rip),%xmm0        # 113f4 <l_1962.4289+0xf4>
    9244:	00 
    9245:	f3 0f 59 c1          	mulss  %xmm1,%xmm0
    9249:	f3 0f 10 55 f8       	movss  -0x8(%rbp),%xmm2
    924e:	f3 0f 10 0d 9e 81 00 	movss  0x819e(%rip),%xmm1        # 113f4 <l_1962.4289+0xf4>
    9255:	00 
    9256:	f3 0f 59 ca          	mulss  %xmm2,%xmm1
    925a:	f3 0f 5c c1          	subss  %xmm1,%xmm0
    925e:	f3 0f 10 0d 9a 81 00 	movss  0x819a(%rip),%xmm1        # 11400 <l_1962.4289+0x100>
    9265:	00 
    9266:	0f 54 c1             	andps  %xmm1,%xmm0
    9269:	0f 2f 05 a0 81 00 00 	comiss 0x81a0(%rip),%xmm0        # 11410 <l_1962.4289+0x110>
    9270:	76 07                	jbe    9279 <safe_sub_func_float_f_f+0x53>
    9272:	f3 0f 10 45 fc       	movss  -0x4(%rbp),%xmm0
    9277:	eb 0a                	jmp    9283 <safe_sub_func_float_f_f+0x5d>
    9279:	f3 0f 10 45 fc       	movss  -0x4(%rbp),%xmm0
    927e:	f3 0f 5c 45 f8       	subss  -0x8(%rbp),%xmm0
    9283:	5d                   	pop    %rbp
    9284:	c3                   	retq   

0000000000009285 <safe_mul_func_float_f_f>:
    9285:	f3 0f 1e fa          	endbr64 
    9289:	55                   	push   %rbp
    928a:	48 89 e5             	mov    %rsp,%rbp
    928d:	f3 0f 11 45 fc       	movss  %xmm0,-0x4(%rbp)
    9292:	f3 0f 11 4d f8       	movss  %xmm1,-0x8(%rbp)
    9297:	f3 0f 10 4d fc       	movss  -0x4(%rbp),%xmm1
    929c:	f3 0f 10 05 70 81 00 	movss  0x8170(%rip),%xmm0        # 11414 <l_1962.4289+0x114>
    92a3:	00 
    92a4:	f3 0f 59 c8          	mulss  %xmm0,%xmm1
    92a8:	f3 0f 10 55 f8       	movss  -0x8(%rbp),%xmm2
    92ad:	f3 0f 10 05 63 81 00 	movss  0x8163(%rip),%xmm0        # 11418 <l_1962.4289+0x118>
    92b4:	00 
    92b5:	f3 0f 59 c2          	mulss  %xmm2,%xmm0
    92b9:	f3 0f 59 c1          	mulss  %xmm1,%xmm0
    92bd:	f3 0f 10 0d 3b 81 00 	movss  0x813b(%rip),%xmm1        # 11400 <l_1962.4289+0x100>
    92c4:	00 
    92c5:	0f 54 c1             	andps  %xmm1,%xmm0
    92c8:	0f 2f 05 4d 81 00 00 	comiss 0x814d(%rip),%xmm0        # 1141c <l_1962.4289+0x11c>
    92cf:	76 07                	jbe    92d8 <safe_mul_func_float_f_f+0x53>
    92d1:	f3 0f 10 45 fc       	movss  -0x4(%rbp),%xmm0
    92d6:	eb 0a                	jmp    92e2 <safe_mul_func_float_f_f+0x5d>
    92d8:	f3 0f 10 45 fc       	movss  -0x4(%rbp),%xmm0
    92dd:	f3 0f 59 45 f8       	mulss  -0x8(%rbp),%xmm0
    92e2:	5d                   	pop    %rbp
    92e3:	c3                   	retq   

00000000000092e4 <safe_div_func_float_f_f>:
    92e4:	f3 0f 1e fa          	endbr64 
    92e8:	55                   	push   %rbp
    92e9:	48 89 e5             	mov    %rsp,%rbp
    92ec:	f3 0f 11 45 fc       	movss  %xmm0,-0x4(%rbp)
    92f1:	f3 0f 11 4d f8       	movss  %xmm1,-0x8(%rbp)
    92f6:	f3 0f 10 45 f8       	movss  -0x8(%rbp),%xmm0
    92fb:	f3 0f 10 0d fd 80 00 	movss  0x80fd(%rip),%xmm1        # 11400 <l_1962.4289+0x100>
    9302:	00 
    9303:	0f 54 c8             	andps  %xmm0,%xmm1
    9306:	f3 0f 10 05 12 81 00 	movss  0x8112(%rip),%xmm0        # 11420 <l_1962.4289+0x120>
    930d:	00 
    930e:	0f 2f c1             	comiss %xmm1,%xmm0
    9311:	0f 97 c0             	seta   %al
    9314:	83 f0 01             	xor    $0x1,%eax
    9317:	84 c0                	test   %al,%al
    9319:	75 56                	jne    9371 <safe_div_func_float_f_f+0x8d>
    931b:	66 0f ef c0          	pxor   %xmm0,%xmm0
    931f:	0f 2e 45 f8          	ucomiss -0x8(%rbp),%xmm0
    9323:	7a 0a                	jp     932f <safe_div_func_float_f_f+0x4b>
    9325:	66 0f ef c0          	pxor   %xmm0,%xmm0
    9329:	0f 2e 45 f8          	ucomiss -0x8(%rbp),%xmm0
    932d:	74 4e                	je     937d <safe_div_func_float_f_f+0x99>
    932f:	f3 0f 10 4d fc       	movss  -0x4(%rbp),%xmm1
    9334:	f3 0f 10 05 e8 80 00 	movss  0x80e8(%rip),%xmm0        # 11424 <l_1962.4289+0x124>
    933b:	00 
    933c:	f3 0f 59 c1          	mulss  %xmm1,%xmm0
    9340:	f3 0f 10 55 f8       	movss  -0x8(%rbp),%xmm2
    9345:	f3 0f 10 0d db 80 00 	movss  0x80db(%rip),%xmm1        # 11428 <l_1962.4289+0x128>
    934c:	00 
    934d:	f3 0f 59 ca          	mulss  %xmm2,%xmm1
    9351:	f3 0f 5e c1          	divss  %xmm1,%xmm0
    9355:	f3 0f 10 0d a3 80 00 	movss  0x80a3(%rip),%xmm1        # 11400 <l_1962.4289+0x100>
    935c:	00 
    935d:	0f 54 c1             	andps  %xmm1,%xmm0
    9360:	0f 2f 05 c5 80 00 00 	comiss 0x80c5(%rip),%xmm0        # 1142c <l_1962.4289+0x12c>
    9367:	0f 97 c0             	seta   %al
    936a:	83 f0 01             	xor    $0x1,%eax
    936d:	84 c0                	test   %al,%al
    936f:	74 0c                	je     937d <safe_div_func_float_f_f+0x99>
    9371:	f3 0f 10 45 fc       	movss  -0x4(%rbp),%xmm0
    9376:	f3 0f 5e 45 f8       	divss  -0x8(%rbp),%xmm0
    937b:	eb 05                	jmp    9382 <safe_div_func_float_f_f+0x9e>
    937d:	f3 0f 10 45 fc       	movss  -0x4(%rbp),%xmm0
    9382:	5d                   	pop    %rbp
    9383:	c3                   	retq   

0000000000009384 <safe_add_func_double_f_f>:
    9384:	f3 0f 1e fa          	endbr64 
    9388:	55                   	push   %rbp
    9389:	48 89 e5             	mov    %rsp,%rbp
    938c:	f2 0f 11 45 f8       	movsd  %xmm0,-0x8(%rbp)
    9391:	f2 0f 11 4d f0       	movsd  %xmm1,-0x10(%rbp)
    9396:	f2 0f 10 4d f8       	movsd  -0x8(%rbp),%xmm1
    939b:	f2 0f 10 05 8d 80 00 	movsd  0x808d(%rip),%xmm0        # 11430 <l_1962.4289+0x130>
    93a2:	00 
    93a3:	f2 0f 59 c8          	mulsd  %xmm0,%xmm1
    93a7:	f2 0f 10 55 f0       	movsd  -0x10(%rbp),%xmm2
    93ac:	f2 0f 10 05 7c 80 00 	movsd  0x807c(%rip),%xmm0        # 11430 <l_1962.4289+0x130>
    93b3:	00 
    93b4:	f2 0f 59 c2          	mulsd  %xmm2,%xmm0
    93b8:	f2 0f 58 c1          	addsd  %xmm1,%xmm0
    93bc:	f3 0f 7e 0d 7c 80 00 	movq   0x807c(%rip),%xmm1        # 11440 <l_1962.4289+0x140>
    93c3:	00 
    93c4:	66 0f 54 c1          	andpd  %xmm1,%xmm0
    93c8:	66 0f 2f 05 80 80 00 	comisd 0x8080(%rip),%xmm0        # 11450 <l_1962.4289+0x150>
    93cf:	00 
    93d0:	76 07                	jbe    93d9 <safe_add_func_double_f_f+0x55>
    93d2:	f2 0f 10 45 f8       	movsd  -0x8(%rbp),%xmm0
    93d7:	eb 0a                	jmp    93e3 <safe_add_func_double_f_f+0x5f>
    93d9:	f2 0f 10 45 f8       	movsd  -0x8(%rbp),%xmm0
    93de:	f2 0f 58 45 f0       	addsd  -0x10(%rbp),%xmm0
    93e3:	5d                   	pop    %rbp
    93e4:	c3                   	retq   

00000000000093e5 <safe_sub_func_double_f_f>:
    93e5:	f3 0f 1e fa          	endbr64 
    93e9:	55                   	push   %rbp
    93ea:	48 89 e5             	mov    %rsp,%rbp
    93ed:	f2 0f 11 45 f8       	movsd  %xmm0,-0x8(%rbp)
    93f2:	f2 0f 11 4d f0       	movsd  %xmm1,-0x10(%rbp)
    93f7:	f2 0f 10 4d f8       	movsd  -0x8(%rbp),%xmm1
    93fc:	f2 0f 10 05 2c 80 00 	movsd  0x802c(%rip),%xmm0        # 11430 <l_1962.4289+0x130>
    9403:	00 
    9404:	f2 0f 59 c1          	mulsd  %xmm1,%xmm0
    9408:	f2 0f 10 55 f0       	movsd  -0x10(%rbp),%xmm2
    940d:	f2 0f 10 0d 1b 80 00 	movsd  0x801b(%rip),%xmm1        # 11430 <l_1962.4289+0x130>
    9414:	00 
    9415:	f2 0f 59 ca          	mulsd  %xmm2,%xmm1
    9419:	f2 0f 5c c1          	subsd  %xmm1,%xmm0
    941d:	f3 0f 7e 0d 1b 80 00 	movq   0x801b(%rip),%xmm1        # 11440 <l_1962.4289+0x140>
    9424:	00 
    9425:	66 0f 54 c1          	andpd  %xmm1,%xmm0
    9429:	66 0f 2f 05 1f 80 00 	comisd 0x801f(%rip),%xmm0        # 11450 <l_1962.4289+0x150>
    9430:	00 
    9431:	76 07                	jbe    943a <safe_sub_func_double_f_f+0x55>
    9433:	f2 0f 10 45 f8       	movsd  -0x8(%rbp),%xmm0
    9438:	eb 0a                	jmp    9444 <safe_sub_func_double_f_f+0x5f>
    943a:	f2 0f 10 45 f8       	movsd  -0x8(%rbp),%xmm0
    943f:	f2 0f 5c 45 f0       	subsd  -0x10(%rbp),%xmm0
    9444:	5d                   	pop    %rbp
    9445:	c3                   	retq   

0000000000009446 <safe_mul_func_double_f_f>:
    9446:	f3 0f 1e fa          	endbr64 
    944a:	55                   	push   %rbp
    944b:	48 89 e5             	mov    %rsp,%rbp
    944e:	f2 0f 11 45 f8       	movsd  %xmm0,-0x8(%rbp)
    9453:	f2 0f 11 4d f0       	movsd  %xmm1,-0x10(%rbp)
    9458:	f2 0f 10 4d f8       	movsd  -0x8(%rbp),%xmm1
    945d:	f2 0f 10 05 f3 7f 00 	movsd  0x7ff3(%rip),%xmm0        # 11458 <l_1962.4289+0x158>
    9464:	00 
    9465:	f2 0f 59 c8          	mulsd  %xmm0,%xmm1
    9469:	f2 0f 10 55 f0       	movsd  -0x10(%rbp),%xmm2
    946e:	f2 0f 10 05 ea 7f 00 	movsd  0x7fea(%rip),%xmm0        # 11460 <l_1962.4289+0x160>
    9475:	00 
    9476:	f2 0f 59 c2          	mulsd  %xmm2,%xmm0
    947a:	f2 0f 59 c1          	mulsd  %xmm1,%xmm0
    947e:	f3 0f 7e 0d ba 7f 00 	movq   0x7fba(%rip),%xmm1        # 11440 <l_1962.4289+0x140>
    9485:	00 
    9486:	66 0f 54 c1          	andpd  %xmm1,%xmm0
    948a:	66 0f 2f 05 d6 7f 00 	comisd 0x7fd6(%rip),%xmm0        # 11468 <l_1962.4289+0x168>
    9491:	00 
    9492:	76 07                	jbe    949b <safe_mul_func_double_f_f+0x55>
    9494:	f2 0f 10 45 f8       	movsd  -0x8(%rbp),%xmm0
    9499:	eb 0a                	jmp    94a5 <safe_mul_func_double_f_f+0x5f>
    949b:	f2 0f 10 45 f8       	movsd  -0x8(%rbp),%xmm0
    94a0:	f2 0f 59 45 f0       	mulsd  -0x10(%rbp),%xmm0
    94a5:	5d                   	pop    %rbp
    94a6:	c3                   	retq   

00000000000094a7 <safe_div_func_double_f_f>:
    94a7:	f3 0f 1e fa          	endbr64 
    94ab:	55                   	push   %rbp
    94ac:	48 89 e5             	mov    %rsp,%rbp
    94af:	f2 0f 11 45 f8       	movsd  %xmm0,-0x8(%rbp)
    94b4:	f2 0f 11 4d f0       	movsd  %xmm1,-0x10(%rbp)
    94b9:	f2 0f 10 45 f0       	movsd  -0x10(%rbp),%xmm0
    94be:	f3 0f 7e 0d 7a 7f 00 	movq   0x7f7a(%rip),%xmm1        # 11440 <l_1962.4289+0x140>
    94c5:	00 
    94c6:	66 0f 54 c8          	andpd  %xmm0,%xmm1
    94ca:	f2 0f 10 05 9e 7f 00 	movsd  0x7f9e(%rip),%xmm0        # 11470 <l_1962.4289+0x170>
    94d1:	00 
    94d2:	66 0f 2f c1          	comisd %xmm1,%xmm0
    94d6:	0f 97 c0             	seta   %al
    94d9:	83 f0 01             	xor    $0x1,%eax
    94dc:	84 c0                	test   %al,%al
    94de:	75 5a                	jne    953a <safe_div_func_double_f_f+0x93>
    94e0:	66 0f ef c0          	pxor   %xmm0,%xmm0
    94e4:	66 0f 2e 45 f0       	ucomisd -0x10(%rbp),%xmm0
    94e9:	7a 0b                	jp     94f6 <safe_div_func_double_f_f+0x4f>
    94eb:	66 0f ef c0          	pxor   %xmm0,%xmm0
    94ef:	66 0f 2e 45 f0       	ucomisd -0x10(%rbp),%xmm0
    94f4:	74 50                	je     9546 <safe_div_func_double_f_f+0x9f>
    94f6:	f2 0f 10 4d f8       	movsd  -0x8(%rbp),%xmm1
    94fb:	f2 0f 10 05 75 7f 00 	movsd  0x7f75(%rip),%xmm0        # 11478 <l_1962.4289+0x178>
    9502:	00 
    9503:	f2 0f 59 c1          	mulsd  %xmm1,%xmm0
    9507:	f2 0f 10 55 f0       	movsd  -0x10(%rbp),%xmm2
    950c:	f2 0f 10 0d 6c 7f 00 	movsd  0x7f6c(%rip),%xmm1        # 11480 <l_1962.4289+0x180>
    9513:	00 
    9514:	f2 0f 59 ca          	mulsd  %xmm2,%xmm1
    9518:	f2 0f 5e c1          	divsd  %xmm1,%xmm0
    951c:	f3 0f 7e 0d 1c 7f 00 	movq   0x7f1c(%rip),%xmm1        # 11440 <l_1962.4289+0x140>
    9523:	00 
    9524:	66 0f 54 c1          	andpd  %xmm1,%xmm0
    9528:	66 0f 2f 05 58 7f 00 	comisd 0x7f58(%rip),%xmm0        # 11488 <l_1962.4289+0x188>
    952f:	00 
    9530:	0f 97 c0             	seta   %al
    9533:	83 f0 01             	xor    $0x1,%eax
    9536:	84 c0                	test   %al,%al
    9538:	74 0c                	je     9546 <safe_div_func_double_f_f+0x9f>
    953a:	f2 0f 10 45 f8       	movsd  -0x8(%rbp),%xmm0
    953f:	f2 0f 5e 45 f0       	divsd  -0x10(%rbp),%xmm0
    9544:	eb 05                	jmp    954b <safe_div_func_double_f_f+0xa4>
    9546:	f2 0f 10 45 f8       	movsd  -0x8(%rbp),%xmm0
    954b:	5d                   	pop    %rbp
    954c:	c3                   	retq   

000000000000954d <safe_convert_func_float_to_int32_t>:
    954d:	f3 0f 1e fa          	endbr64 
    9551:	55                   	push   %rbp
    9552:	48 89 e5             	mov    %rsp,%rbp
    9555:	f3 0f 11 45 fc       	movss  %xmm0,-0x4(%rbp)
    955a:	f3 0f 10 05 2e 7f 00 	movss  0x7f2e(%rip),%xmm0        # 11490 <l_1962.4289+0x190>
    9561:	00 
    9562:	0f 2f 45 fc          	comiss -0x4(%rbp),%xmm0
    9566:	0f 93 c0             	setae  %al
    9569:	83 f0 01             	xor    $0x1,%eax
    956c:	84 c0                	test   %al,%al
    956e:	74 21                	je     9591 <safe_convert_func_float_to_int32_t+0x44>
    9570:	f3 0f 10 45 fc       	movss  -0x4(%rbp),%xmm0
    9575:	0f 2f 05 18 7f 00 00 	comiss 0x7f18(%rip),%xmm0        # 11494 <l_1962.4289+0x194>
    957c:	0f 93 c0             	setae  %al
    957f:	83 f0 01             	xor    $0x1,%eax
    9582:	84 c0                	test   %al,%al
    9584:	74 0b                	je     9591 <safe_convert_func_float_to_int32_t+0x44>
    9586:	f3 0f 10 45 fc       	movss  -0x4(%rbp),%xmm0
    958b:	f3 0f 2c c0          	cvttss2si %xmm0,%eax
    958f:	eb 05                	jmp    9596 <safe_convert_func_float_to_int32_t+0x49>
    9591:	b8 ff ff ff 7f       	mov    $0x7fffffff,%eax
    9596:	5d                   	pop    %rbp
    9597:	c3                   	retq   

0000000000009598 <crc32_gentab>:
    9598:	f3 0f 1e fa          	endbr64 
    959c:	55                   	push   %rbp
    959d:	48 89 e5             	mov    %rsp,%rbp
    95a0:	c7 45 fc 20 83 b8 ed 	movl   $0xedb88320,-0x4(%rbp)
    95a7:	c7 45 f4 00 00 00 00 	movl   $0x0,-0xc(%rbp)
    95ae:	eb 51                	jmp    9601 <crc32_gentab+0x69>
    95b0:	8b 45 f4             	mov    -0xc(%rbp),%eax
    95b3:	89 45 f0             	mov    %eax,-0x10(%rbp)
    95b6:	c7 45 f8 08 00 00 00 	movl   $0x8,-0x8(%rbp)
    95bd:	eb 1e                	jmp    95dd <crc32_gentab+0x45>
    95bf:	8b 45 f0             	mov    -0x10(%rbp),%eax
    95c2:	83 e0 01             	and    $0x1,%eax
    95c5:	85 c0                	test   %eax,%eax
    95c7:	74 0d                	je     95d6 <crc32_gentab+0x3e>
    95c9:	8b 45 f0             	mov    -0x10(%rbp),%eax
    95cc:	d1 e8                	shr    %eax
    95ce:	33 45 fc             	xor    -0x4(%rbp),%eax
    95d1:	89 45 f0             	mov    %eax,-0x10(%rbp)
    95d4:	eb 03                	jmp    95d9 <crc32_gentab+0x41>
    95d6:	d1 6d f0             	shrl   -0x10(%rbp)
    95d9:	83 6d f8 01          	subl   $0x1,-0x8(%rbp)
    95dd:	83 7d f8 00          	cmpl   $0x0,-0x8(%rbp)
    95e1:	7f dc                	jg     95bf <crc32_gentab+0x27>
    95e3:	8b 45 f4             	mov    -0xc(%rbp),%eax
    95e6:	48 98                	cltq   
    95e8:	48 8d 0c 85 00 00 00 	lea    0x0(,%rax,4),%rcx
    95ef:	00 
    95f0:	48 8d 15 c9 e2 00 00 	lea    0xe2c9(%rip),%rdx        # 178c0 <crc32_tab>
    95f7:	8b 45 f0             	mov    -0x10(%rbp),%eax
    95fa:	89 04 11             	mov    %eax,(%rcx,%rdx,1)
    95fd:	83 45 f4 01          	addl   $0x1,-0xc(%rbp)
    9601:	81 7d f4 ff 00 00 00 	cmpl   $0xff,-0xc(%rbp)
    9608:	7e a6                	jle    95b0 <crc32_gentab+0x18>
    960a:	90                   	nop
    960b:	90                   	nop
    960c:	5d                   	pop    %rbp
    960d:	c3                   	retq   

000000000000960e <crc32_byte>:
    960e:	f3 0f 1e fa          	endbr64 
    9612:	55                   	push   %rbp
    9613:	48 89 e5             	mov    %rsp,%rbp
    9616:	89 f8                	mov    %edi,%eax
    9618:	88 45 fc             	mov    %al,-0x4(%rbp)
    961b:	8b 05 ff a9 00 00    	mov    0xa9ff(%rip),%eax        # 14020 <crc32_context>
    9621:	c1 e8 08             	shr    $0x8,%eax
    9624:	89 c1                	mov    %eax,%ecx
    9626:	0f b6 55 fc          	movzbl -0x4(%rbp),%edx
    962a:	8b 05 f0 a9 00 00    	mov    0xa9f0(%rip),%eax        # 14020 <crc32_context>
    9630:	31 d0                	xor    %edx,%eax
    9632:	0f b6 c0             	movzbl %al,%eax
    9635:	89 c0                	mov    %eax,%eax
    9637:	48 8d 14 85 00 00 00 	lea    0x0(,%rax,4),%rdx
    963e:	00 
    963f:	48 8d 05 7a e2 00 00 	lea    0xe27a(%rip),%rax        # 178c0 <crc32_tab>
    9646:	8b 04 02             	mov    (%rdx,%rax,1),%eax
    9649:	31 c8                	xor    %ecx,%eax
    964b:	89 05 cf a9 00 00    	mov    %eax,0xa9cf(%rip)        # 14020 <crc32_context>
    9651:	90                   	nop
    9652:	5d                   	pop    %rbp
    9653:	c3                   	retq   

0000000000009654 <crc32_8bytes>:
    9654:	f3 0f 1e fa          	endbr64 
    9658:	55                   	push   %rbp
    9659:	48 89 e5             	mov    %rsp,%rbp
    965c:	48 83 ec 08          	sub    $0x8,%rsp
    9660:	48 89 7d f8          	mov    %rdi,-0x8(%rbp)
    9664:	48 8b 45 f8          	mov    -0x8(%rbp),%rax
    9668:	0f b6 c0             	movzbl %al,%eax
    966b:	89 c7                	mov    %eax,%edi
    966d:	e8 9c ff ff ff       	callq  960e <crc32_byte>
    9672:	48 8b 45 f8          	mov    -0x8(%rbp),%rax
    9676:	48 c1 e8 08          	shr    $0x8,%rax
    967a:	0f b6 c0             	movzbl %al,%eax
    967d:	89 c7                	mov    %eax,%edi
    967f:	e8 8a ff ff ff       	callq  960e <crc32_byte>
    9684:	48 8b 45 f8          	mov    -0x8(%rbp),%rax
    9688:	48 c1 e8 10          	shr    $0x10,%rax
    968c:	0f b6 c0             	movzbl %al,%eax
    968f:	89 c7                	mov    %eax,%edi
    9691:	e8 78 ff ff ff       	callq  960e <crc32_byte>
    9696:	48 8b 45 f8          	mov    -0x8(%rbp),%rax
    969a:	48 c1 e8 18          	shr    $0x18,%rax
    969e:	0f b6 c0             	movzbl %al,%eax
    96a1:	89 c7                	mov    %eax,%edi
    96a3:	e8 66 ff ff ff       	callq  960e <crc32_byte>
    96a8:	48 8b 45 f8          	mov    -0x8(%rbp),%rax
    96ac:	48 c1 e8 20          	shr    $0x20,%rax
    96b0:	0f b6 c0             	movzbl %al,%eax
    96b3:	89 c7                	mov    %eax,%edi
    96b5:	e8 54 ff ff ff       	callq  960e <crc32_byte>
    96ba:	48 8b 45 f8          	mov    -0x8(%rbp),%rax
    96be:	48 c1 e8 28          	shr    $0x28,%rax
    96c2:	0f b6 c0             	movzbl %al,%eax
    96c5:	89 c7                	mov    %eax,%edi
    96c7:	e8 42 ff ff ff       	callq  960e <crc32_byte>
    96cc:	48 8b 45 f8          	mov    -0x8(%rbp),%rax
    96d0:	48 c1 e8 30          	shr    $0x30,%rax
    96d4:	0f b6 c0             	movzbl %al,%eax
    96d7:	89 c7                	mov    %eax,%edi
    96d9:	e8 30 ff ff ff       	callq  960e <crc32_byte>
    96de:	48 8b 45 f8          	mov    -0x8(%rbp),%rax
    96e2:	48 c1 e8 38          	shr    $0x38,%rax
    96e6:	0f b6 c0             	movzbl %al,%eax
    96e9:	89 c7                	mov    %eax,%edi
    96eb:	e8 1e ff ff ff       	callq  960e <crc32_byte>
    96f0:	90                   	nop
    96f1:	c9                   	leaveq 
    96f2:	c3                   	retq   

00000000000096f3 <transparent_crc>:
    96f3:	f3 0f 1e fa          	endbr64 
    96f7:	55                   	push   %rbp
    96f8:	48 89 e5             	mov    %rsp,%rbp
    96fb:	48 83 ec 20          	sub    $0x20,%rsp
    96ff:	48 89 7d f8          	mov    %rdi,-0x8(%rbp)
    9703:	48 89 75 f0          	mov    %rsi,-0x10(%rbp)
    9707:	89 55 ec             	mov    %edx,-0x14(%rbp)
    970a:	48 8b 45 f8          	mov    -0x8(%rbp),%rax
    970e:	48 89 c7             	mov    %rax,%rdi
    9711:	e8 3e ff ff ff       	callq  9654 <crc32_8bytes>
    9716:	83 7d ec 00          	cmpl   $0x0,-0x14(%rbp)
    971a:	74 22                	je     973e <transparent_crc+0x4b>
    971c:	8b 05 fe a8 00 00    	mov    0xa8fe(%rip),%eax        # 14020 <crc32_context>
    9722:	f7 d0                	not    %eax
    9724:	89 c2                	mov    %eax,%edx
    9726:	48 8b 45 f0          	mov    -0x10(%rbp),%rax
    972a:	48 89 c6             	mov    %rax,%rsi
    972d:	48 8d 3d fc 68 00 00 	lea    0x68fc(%rip),%rdi        # 10030 <_IO_stdin_used+0x30>
    9734:	b8 00 00 00 00       	mov    $0x0,%eax
    9739:	e8 42 e9 ff ff       	callq  8080 <printf@plt>
    973e:	90                   	nop
    973f:	c9                   	leaveq 
    9740:	c3                   	retq   

0000000000009741 <transparent_crc_bytes>:
    9741:	f3 0f 1e fa          	endbr64 
    9745:	55                   	push   %rbp
    9746:	48 89 e5             	mov    %rsp,%rbp
    9749:	48 83 ec 30          	sub    $0x30,%rsp
    974d:	48 89 7d e8          	mov    %rdi,-0x18(%rbp)
    9751:	89 75 e4             	mov    %esi,-0x1c(%rbp)
    9754:	48 89 55 d8          	mov    %rdx,-0x28(%rbp)
    9758:	89 4d e0             	mov    %ecx,-0x20(%rbp)
    975b:	c7 45 fc 00 00 00 00 	movl   $0x0,-0x4(%rbp)
    9762:	eb 1e                	jmp    9782 <transparent_crc_bytes+0x41>
    9764:	8b 45 fc             	mov    -0x4(%rbp),%eax
    9767:	48 63 d0             	movslq %eax,%rdx
    976a:	48 8b 45 e8          	mov    -0x18(%rbp),%rax
    976e:	48 01 d0             	add    %rdx,%rax
    9771:	0f b6 00             	movzbl (%rax),%eax
    9774:	0f b6 c0             	movzbl %al,%eax
    9777:	89 c7                	mov    %eax,%edi
    9779:	e8 90 fe ff ff       	callq  960e <crc32_byte>
    977e:	83 45 fc 01          	addl   $0x1,-0x4(%rbp)
    9782:	8b 45 fc             	mov    -0x4(%rbp),%eax
    9785:	3b 45 e4             	cmp    -0x1c(%rbp),%eax
    9788:	7c da                	jl     9764 <transparent_crc_bytes+0x23>
    978a:	83 7d e0 00          	cmpl   $0x0,-0x20(%rbp)
    978e:	74 22                	je     97b2 <transparent_crc_bytes+0x71>
    9790:	8b 05 8a a8 00 00    	mov    0xa88a(%rip),%eax        # 14020 <crc32_context>
    9796:	f7 d0                	not    %eax
    9798:	89 c2                	mov    %eax,%edx
    979a:	48 8b 45 d8          	mov    -0x28(%rbp),%rax
    979e:	48 89 c6             	mov    %rax,%rsi
    97a1:	48 8d 3d 88 68 00 00 	lea    0x6888(%rip),%rdi        # 10030 <_IO_stdin_used+0x30>
    97a8:	b8 00 00 00 00       	mov    $0x0,%eax
    97ad:	e8 ce e8 ff ff       	callq  8080 <printf@plt>
    97b2:	90                   	nop
    97b3:	c9                   	leaveq 
    97b4:	c3                   	retq   

00000000000097b5 <func_1>:
    97b5:	f3 0f 1e fa          	endbr64 
    97b9:	55                   	push   %rbp
    97ba:	48 89 e5             	mov    %rsp,%rbp
    97bd:	48 81 ec 00 10 00 00 	sub    $0x1000,%rsp
    97c4:	48 83 0c 24 00       	orq    $0x0,(%rsp)
    97c9:	48 81 ec 40 05 00 00 	sub    $0x540,%rsp
    97d0:	64 48 8b 04 25 28 00 	mov    %fs:0x28,%rax
    97d7:	00 00 
    97d9:	48 89 45 f8          	mov    %rax,-0x8(%rbp)
    97dd:	31 c0                	xor    %eax,%eax
    97df:	c7 85 d0 ea ff ff ff 	movl   $0xffffffff,-0x1530(%rbp)
    97e6:	ff ff ff 
    97e9:	c6 85 c6 ea ff ff f9 	movb   $0xf9,-0x153a(%rbp)
    97f0:	48 c7 85 00 eb ff ff 	movq   $0x0,-0x1500(%rbp)
    97f7:	00 00 00 00 
    97fb:	48 c7 85 08 eb ff ff 	movq   $0x0,-0x14f8(%rbp)
    9802:	00 00 00 00 
    9806:	48 8d 85 08 eb ff ff 	lea    -0x14f8(%rbp),%rax
    980d:	48 89 85 30 eb ff ff 	mov    %rax,-0x14d0(%rbp)
    9814:	48 8d 05 0d a8 00 00 	lea    0xa80d(%rip),%rax        # 14028 <g_50>
    981b:	48 89 85 10 eb ff ff 	mov    %rax,-0x14f0(%rbp)
    9822:	48 8d 85 10 eb ff ff 	lea    -0x14f0(%rbp),%rax
    9829:	48 89 85 38 eb ff ff 	mov    %rax,-0x14c8(%rbp)
    9830:	c7 85 d4 ea ff ff fb 	movl   $0xfffffffb,-0x152c(%rbp)
    9837:	ff ff ff 
    983a:	c7 85 d8 ea ff ff 00 	movl   $0x0,-0x1528(%rbp)
    9841:	00 00 00 
    9844:	c7 85 f0 ec ff ff 00 	movl   $0x0,-0x1310(%rbp)
    984b:	00 00 00 
    984e:	c7 85 f4 ec ff ff 00 	movl   $0x0,-0x130c(%rbp)
    9855:	00 00 00 
    9858:	c7 85 f8 ec ff ff 00 	movl   $0x0,-0x1308(%rbp)
    985f:	00 00 00 
    9862:	c7 85 fc ec ff ff 05 	movl   $0x5,-0x1304(%rbp)
    9869:	00 00 00 
    986c:	c7 85 00 ed ff ff 05 	movl   $0x5,-0x1300(%rbp)
    9873:	00 00 00 
    9876:	c7 85 04 ed ff ff 00 	movl   $0x0,-0x12fc(%rbp)
    987d:	00 00 00 
    9880:	c7 85 08 ed ff ff 00 	movl   $0x0,-0x12f8(%rbp)
    9887:	00 00 00 
    988a:	c7 85 0c ed ff ff d3 	movl   $0x7f097fd3,-0x12f4(%rbp)
    9891:	7f 09 7f 
    9894:	c7 85 10 ed ff ff 04 	movl   $0x4,-0x12f0(%rbp)
    989b:	00 00 00 
    989e:	c7 85 14 ed ff ff b7 	movl   $0xc933b7b7,-0x12ec(%rbp)
    98a5:	b7 33 c9 
    98a8:	c7 85 18 ed ff ff ff 	movl   $0xffffffff,-0x12e8(%rbp)
    98af:	ff ff ff 
    98b2:	c7 85 1c ed ff ff 95 	movl   $0xe2a10395,-0x12e4(%rbp)
    98b9:	03 a1 e2 
    98bc:	c7 85 20 ed ff ff 1a 	movl   $0x800b171a,-0x12e0(%rbp)
    98c3:	17 0b 80 
    98c6:	c7 85 24 ed ff ff 95 	movl   $0xe2a10395,-0x12dc(%rbp)
    98cd:	03 a1 e2 
    98d0:	c7 85 28 ed ff ff 00 	movl   $0x0,-0x12d8(%rbp)
    98d7:	00 00 00 
    98da:	c7 85 2c ed ff ff 05 	movl   $0x5,-0x12d4(%rbp)
    98e1:	00 00 00 
    98e4:	c7 85 30 ed ff ff 05 	movl   $0x5,-0x12d0(%rbp)
    98eb:	00 00 00 
    98ee:	c7 85 34 ed ff ff 00 	movl   $0x0,-0x12cc(%rbp)
    98f5:	00 00 00 
    98f8:	c7 85 38 ed ff ff 00 	movl   $0x0,-0x12c8(%rbp)
    98ff:	00 00 00 
    9902:	c7 85 3c ed ff ff 00 	movl   $0x0,-0x12c4(%rbp)
    9909:	00 00 00 
    990c:	c7 85 40 ed ff ff 05 	movl   $0x5,-0x12c0(%rbp)
    9913:	00 00 00 
    9916:	c7 85 44 ed ff ff 01 	movl   $0x1,-0x12bc(%rbp)
    991d:	00 00 00 
    9920:	c7 85 48 ed ff ff f6 	movl   $0xfffffff6,-0x12b8(%rbp)
    9927:	ff ff ff 
    992a:	c7 85 4c ed ff ff d3 	movl   $0x7f097fd3,-0x12b4(%rbp)
    9931:	7f 09 7f 
    9934:	c7 85 50 ed ff ff ff 	movl   $0xffffffff,-0x12b0(%rbp)
    993b:	ff ff ff 
    993e:	c7 85 54 ed ff ff d3 	movl   $0x7f097fd3,-0x12ac(%rbp)
    9945:	7f 09 7f 
    9948:	c7 85 58 ed ff ff f6 	movl   $0xfffffff6,-0x12a8(%rbp)
    994f:	ff ff ff 
    9952:	c7 85 5c ed ff ff 01 	movl   $0x1,-0x12a4(%rbp)
    9959:	00 00 00 
    995c:	c7 85 60 ed ff ff fc 	movl   $0xfffffffc,-0x12a0(%rbp)
    9963:	ff ff ff 
    9966:	c7 85 64 ed ff ff 05 	movl   $0x5,-0x129c(%rbp)
    996d:	00 00 00 
    9970:	c7 85 68 ed ff ff 01 	movl   $0x1,-0x1298(%rbp)
    9977:	00 00 00 
    997a:	c7 85 6c ed ff ff 05 	movl   $0x5,-0x1294(%rbp)
    9981:	00 00 00 
    9984:	c7 85 70 ed ff ff fc 	movl   $0xfffffffc,-0x1290(%rbp)
    998b:	ff ff ff 
    998e:	c7 85 74 ed ff ff fc 	movl   $0xfffffffc,-0x128c(%rbp)
    9995:	ff ff ff 
    9998:	c7 85 78 ed ff ff 05 	movl   $0x5,-0x1288(%rbp)
    999f:	00 00 00 
    99a2:	c7 85 7c ed ff ff ff 	movl   $0xffffffff,-0x1284(%rbp)
    99a9:	ff ff ff 
    99ac:	c7 85 80 ed ff ff 04 	movl   $0x4,-0x1280(%rbp)
    99b3:	00 00 00 
    99b6:	c7 85 84 ed ff ff ff 	movl   $0xffffffff,-0x127c(%rbp)
    99bd:	ff ff ff 
    99c0:	c7 85 88 ed ff ff 1a 	movl   $0x800b171a,-0x1278(%rbp)
    99c7:	17 0b 80 
    99ca:	c7 85 8c ed ff ff d3 	movl   $0x7f097fd3,-0x1274(%rbp)
    99d1:	7f 09 7f 
    99d4:	c7 85 90 ed ff ff bd 	movl   $0xee6218bd,-0x1270(%rbp)
    99db:	18 62 ee 
    99de:	c7 85 94 ed ff ff 95 	movl   $0xe2a10395,-0x126c(%rbp)
    99e5:	03 a1 e2 
    99e8:	48 8d 05 41 a6 00 00 	lea    0xa641(%rip),%rax        # 14030 <g_92>
    99ef:	48 89 85 18 eb ff ff 	mov    %rax,-0x14e8(%rbp)
    99f6:	48 8d 85 18 eb ff ff 	lea    -0x14e8(%rbp),%rax
    99fd:	48 89 85 70 ee ff ff 	mov    %rax,-0x1190(%rbp)
    9a04:	48 c7 85 78 ee ff ff 	movq   $0x0,-0x1188(%rbp)
    9a0b:	00 00 00 00 
    9a0f:	48 c7 85 80 ee ff ff 	movq   $0x0,-0x1180(%rbp)
    9a16:	00 00 00 00 
    9a1a:	48 8d 85 18 eb ff ff 	lea    -0x14e8(%rbp),%rax
    9a21:	48 89 85 88 ee ff ff 	mov    %rax,-0x1178(%rbp)
    9a28:	48 c7 85 90 ee ff ff 	movq   $0x0,-0x1170(%rbp)
    9a2f:	00 00 00 00 
    9a33:	48 c7 85 98 ee ff ff 	movq   $0x0,-0x1168(%rbp)
    9a3a:	00 00 00 00 
    9a3e:	48 8d 85 18 eb ff ff 	lea    -0x14e8(%rbp),%rax
    9a45:	48 89 85 a0 ee ff ff 	mov    %rax,-0x1160(%rbp)
    9a4c:	48 c7 85 a8 ee ff ff 	movq   $0x0,-0x1158(%rbp)
    9a53:	00 00 00 00 
    9a57:	48 8d 85 18 eb ff ff 	lea    -0x14e8(%rbp),%rax
    9a5e:	48 89 85 b0 ee ff ff 	mov    %rax,-0x1150(%rbp)
    9a65:	48 c7 85 b8 ee ff ff 	movq   $0x0,-0x1148(%rbp)
    9a6c:	00 00 00 00 
    9a70:	48 c7 85 c0 ee ff ff 	movq   $0x0,-0x1140(%rbp)
    9a77:	00 00 00 00 
    9a7b:	48 8d 85 18 eb ff ff 	lea    -0x14e8(%rbp),%rax
    9a82:	48 89 85 c8 ee ff ff 	mov    %rax,-0x1138(%rbp)
    9a89:	48 c7 85 d0 ee ff ff 	movq   $0x0,-0x1130(%rbp)
    9a90:	00 00 00 00 
    9a94:	48 c7 85 d8 ee ff ff 	movq   $0x0,-0x1128(%rbp)
    9a9b:	00 00 00 00 
    9a9f:	48 8d 85 18 eb ff ff 	lea    -0x14e8(%rbp),%rax
    9aa6:	48 89 85 e0 ee ff ff 	mov    %rax,-0x1120(%rbp)
    9aad:	48 8d 85 18 eb ff ff 	lea    -0x14e8(%rbp),%rax
    9ab4:	48 89 85 e8 ee ff ff 	mov    %rax,-0x1118(%rbp)
    9abb:	48 c7 85 f0 ee ff ff 	movq   $0x0,-0x1110(%rbp)
    9ac2:	00 00 00 00 
    9ac6:	48 8d 85 18 eb ff ff 	lea    -0x14e8(%rbp),%rax
    9acd:	48 89 85 f8 ee ff ff 	mov    %rax,-0x1108(%rbp)
    9ad4:	48 8d 85 18 eb ff ff 	lea    -0x14e8(%rbp),%rax
    9adb:	48 89 85 00 ef ff ff 	mov    %rax,-0x1100(%rbp)
    9ae2:	48 c7 85 08 ef ff ff 	movq   $0x0,-0x10f8(%rbp)
    9ae9:	00 00 00 00 
    9aed:	48 8d 85 18 eb ff ff 	lea    -0x14e8(%rbp),%rax
    9af4:	48 89 85 10 ef ff ff 	mov    %rax,-0x10f0(%rbp)
    9afb:	48 8d 85 18 eb ff ff 	lea    -0x14e8(%rbp),%rax
    9b02:	48 89 85 18 ef ff ff 	mov    %rax,-0x10e8(%rbp)
    9b09:	48 c7 85 20 ef ff ff 	movq   $0x0,-0x10e0(%rbp)
    9b10:	00 00 00 00 
    9b14:	48 c7 85 28 ef ff ff 	movq   $0x0,-0x10d8(%rbp)
    9b1b:	00 00 00 00 
    9b1f:	48 8d 85 18 eb ff ff 	lea    -0x14e8(%rbp),%rax
    9b26:	48 89 85 30 ef ff ff 	mov    %rax,-0x10d0(%rbp)
    9b2d:	48 c7 85 38 ef ff ff 	movq   $0x0,-0x10c8(%rbp)
    9b34:	00 00 00 00 
    9b38:	48 c7 85 40 ef ff ff 	movq   $0x0,-0x10c0(%rbp)
    9b3f:	00 00 00 00 
    9b43:	48 8d 85 18 eb ff ff 	lea    -0x14e8(%rbp),%rax
    9b4a:	48 89 85 48 ef ff ff 	mov    %rax,-0x10b8(%rbp)
    9b51:	48 c7 85 50 ef ff ff 	movq   $0x0,-0x10b0(%rbp)
    9b58:	00 00 00 00 
    9b5c:	48 8d 85 18 eb ff ff 	lea    -0x14e8(%rbp),%rax
    9b63:	48 89 85 58 ef ff ff 	mov    %rax,-0x10a8(%rbp)
    9b6a:	48 c7 85 60 ef ff ff 	movq   $0x0,-0x10a0(%rbp)
    9b71:	00 00 00 00 
    9b75:	48 c7 85 68 ef ff ff 	movq   $0x0,-0x1098(%rbp)
    9b7c:	00 00 00 00 
    9b80:	48 8d 85 18 eb ff ff 	lea    -0x14e8(%rbp),%rax
    9b87:	48 89 85 70 ef ff ff 	mov    %rax,-0x1090(%rbp)
    9b8e:	48 c7 85 78 ef ff ff 	movq   $0x0,-0x1088(%rbp)
    9b95:	00 00 00 00 
    9b99:	48 c7 85 80 ef ff ff 	movq   $0x0,-0x1080(%rbp)
    9ba0:	00 00 00 00 
    9ba4:	48 8d 85 18 eb ff ff 	lea    -0x14e8(%rbp),%rax
    9bab:	48 89 85 88 ef ff ff 	mov    %rax,-0x1078(%rbp)
    9bb2:	48 8d 85 18 eb ff ff 	lea    -0x14e8(%rbp),%rax
    9bb9:	48 89 85 90 ef ff ff 	mov    %rax,-0x1070(%rbp)
    9bc0:	48 c7 85 98 ef ff ff 	movq   $0x0,-0x1068(%rbp)
    9bc7:	00 00 00 00 
    9bcb:	48 8d 85 18 eb ff ff 	lea    -0x14e8(%rbp),%rax
    9bd2:	48 89 85 a0 ef ff ff 	mov    %rax,-0x1060(%rbp)
    9bd9:	48 8d 85 18 eb ff ff 	lea    -0x14e8(%rbp),%rax
    9be0:	48 89 85 a8 ef ff ff 	mov    %rax,-0x1058(%rbp)
    9be7:	48 c7 85 b0 ef ff ff 	movq   $0x0,-0x1050(%rbp)
    9bee:	00 00 00 00 
    9bf2:	48 8d 85 18 eb ff ff 	lea    -0x14e8(%rbp),%rax
    9bf9:	48 89 85 b8 ef ff ff 	mov    %rax,-0x1048(%rbp)
    9c00:	48 8d 85 18 eb ff ff 	lea    -0x14e8(%rbp),%rax
    9c07:	48 89 85 c0 ef ff ff 	mov    %rax,-0x1040(%rbp)
    9c0e:	48 c7 85 c8 ef ff ff 	movq   $0x0,-0x1038(%rbp)
    9c15:	00 00 00 00 
    9c19:	48 c7 85 d0 ef ff ff 	movq   $0x0,-0x1030(%rbp)
    9c20:	00 00 00 00 
    9c24:	48 8d 85 18 eb ff ff 	lea    -0x14e8(%rbp),%rax
    9c2b:	48 89 85 d8 ef ff ff 	mov    %rax,-0x1028(%rbp)
    9c32:	48 c7 85 e0 ef ff ff 	movq   $0x0,-0x1020(%rbp)
    9c39:	00 00 00 00 
    9c3d:	48 c7 85 e8 ef ff ff 	movq   $0x0,-0x1018(%rbp)
    9c44:	00 00 00 00 
    9c48:	48 8d 85 18 eb ff ff 	lea    -0x14e8(%rbp),%rax
    9c4f:	48 89 85 f0 ef ff ff 	mov    %rax,-0x1010(%rbp)
    9c56:	48 c7 85 f8 ef ff ff 	movq   $0x0,-0x1008(%rbp)
    9c5d:	00 00 00 00 
    9c61:	48 8d 85 18 eb ff ff 	lea    -0x14e8(%rbp),%rax
    9c68:	48 89 85 00 f0 ff ff 	mov    %rax,-0x1000(%rbp)
    9c6f:	48 c7 85 08 f0 ff ff 	movq   $0x0,-0xff8(%rbp)
    9c76:	00 00 00 00 
    9c7a:	48 c7 85 10 f0 ff ff 	movq   $0x0,-0xff0(%rbp)
    9c81:	00 00 00 00 
    9c85:	48 8d 85 18 eb ff ff 	lea    -0x14e8(%rbp),%rax
    9c8c:	48 89 85 18 f0 ff ff 	mov    %rax,-0xfe8(%rbp)
    9c93:	48 c7 85 20 f0 ff ff 	movq   $0x0,-0xfe0(%rbp)
    9c9a:	00 00 00 00 
    9c9e:	48 c7 85 28 f0 ff ff 	movq   $0x0,-0xfd8(%rbp)
    9ca5:	00 00 00 00 
    9ca9:	48 8d 85 18 eb ff ff 	lea    -0x14e8(%rbp),%rax
    9cb0:	48 89 85 30 f0 ff ff 	mov    %rax,-0xfd0(%rbp)
    9cb7:	48 8d 85 18 eb ff ff 	lea    -0x14e8(%rbp),%rax
    9cbe:	48 89 85 38 f0 ff ff 	mov    %rax,-0xfc8(%rbp)
    9cc5:	48 c7 85 40 f0 ff ff 	movq   $0x0,-0xfc0(%rbp)
    9ccc:	00 00 00 00 
    9cd0:	48 8d 85 18 eb ff ff 	lea    -0x14e8(%rbp),%rax
    9cd7:	48 89 85 48 f0 ff ff 	mov    %rax,-0xfb8(%rbp)
    9cde:	48 8d 85 18 eb ff ff 	lea    -0x14e8(%rbp),%rax
    9ce5:	48 89 85 50 f0 ff ff 	mov    %rax,-0xfb0(%rbp)
    9cec:	48 c7 85 58 f0 ff ff 	movq   $0x0,-0xfa8(%rbp)
    9cf3:	00 00 00 00 
    9cf7:	48 8d 85 18 eb ff ff 	lea    -0x14e8(%rbp),%rax
    9cfe:	48 89 85 60 f0 ff ff 	mov    %rax,-0xfa0(%rbp)
    9d05:	48 8d 85 18 eb ff ff 	lea    -0x14e8(%rbp),%rax
    9d0c:	48 89 85 40 eb ff ff 	mov    %rax,-0x14c0(%rbp)
    9d13:	48 8d 85 10 f8 ff ff 	lea    -0x7f0(%rbp),%rax
    9d1a:	48 8d 15 9f af 00 00 	lea    0xaf9f(%rip),%rdx        # 14cc0 <g_2114+0x24>
    9d21:	b9 fc 00 00 00       	mov    $0xfc,%ecx
    9d26:	48 89 c7             	mov    %rax,%rdi
    9d29:	48 89 d6             	mov    %rdx,%rsi
    9d2c:	f3 48 a5             	rep movsq %ds:(%rsi),%es:(%rdi)
    9d2f:	48 8d 85 10 f8 ff ff 	lea    -0x7f0(%rbp),%rax
    9d36:	48 05 00 02 00 00    	add    $0x200,%rax
    9d3c:	48 89 85 48 eb ff ff 	mov    %rax,-0x14b8(%rbp)
    9d43:	c6 85 c7 ea ff ff f6 	movb   $0xf6,-0x1539(%rbp)
    9d4a:	48 b8 1e 38 8b 03 e4 	movabs $0x62c11fe4038b381e,%rax
    9d51:	1f c1 62 
    9d54:	48 89 85 50 eb ff ff 	mov    %rax,-0x14b0(%rbp)
    9d5b:	48 8d 05 e2 a2 00 00 	lea    0xa2e2(%rip),%rax        # 14044 <g_161>
    9d62:	48 89 85 58 eb ff ff 	mov    %rax,-0x14a8(%rbp)
    9d69:	66 c7 85 60 ec ff ff 	movw   $0x8,-0x13a0(%rbp)
    9d70:	08 00 
    9d72:	66 c7 85 62 ec ff ff 	movw   $0xfffb,-0x139e(%rbp)
    9d79:	fb ff 
    9d7b:	66 c7 85 64 ec ff ff 	movw   $0xf9c4,-0x139c(%rbp)
    9d82:	c4 f9 
    9d84:	66 c7 85 66 ec ff ff 	movw   $0x264c,-0x139a(%rbp)
    9d8b:	4c 26 
    9d8d:	66 c7 85 68 ec ff ff 	movw   $0x7910,-0x1398(%rbp)
    9d94:	10 79 
    9d96:	66 c7 85 6a ec ff ff 	movw   $0xd1fd,-0x1396(%rbp)
    9d9d:	fd d1 
    9d9f:	66 c7 85 6c ec ff ff 	movw   $0xf9c4,-0x1394(%rbp)
    9da6:	c4 f9 
    9da8:	66 c7 85 6e ec ff ff 	movw   $0x8,-0x1392(%rbp)
    9daf:	08 00 
    9db1:	66 c7 85 70 ec ff ff 	movw   $0xf9c4,-0x1390(%rbp)
    9db8:	c4 f9 
    9dba:	66 c7 85 72 ec ff ff 	movw   $0x1,-0x138e(%rbp)
    9dc1:	01 00 
    9dc3:	66 c7 85 74 ec ff ff 	movw   $0xfffa,-0x138c(%rbp)
    9dca:	fa ff 
    9dcc:	66 c7 85 76 ec ff ff 	movw   $0x0,-0x138a(%rbp)
    9dd3:	00 00 
    9dd5:	66 c7 85 78 ec ff ff 	movw   $0xffff,-0x1388(%rbp)
    9ddc:	ff ff 
    9dde:	66 c7 85 7a ec ff ff 	movw   $0xfffa,-0x1386(%rbp)
    9de5:	fa ff 
    9de7:	66 c7 85 7c ec ff ff 	movw   $0x2812,-0x1384(%rbp)
    9dee:	12 28 
    9df0:	66 c7 85 7e ec ff ff 	movw   $0x7910,-0x1382(%rbp)
    9df7:	10 79 
    9df9:	66 c7 85 80 ec ff ff 	movw   $0x8,-0x1380(%rbp)
    9e00:	08 00 
    9e02:	66 c7 85 82 ec ff ff 	movw   $0x27d8,-0x137e(%rbp)
    9e09:	d8 27 
    9e0b:	66 c7 85 84 ec ff ff 	movw   $0xfff9,-0x137c(%rbp)
    9e12:	f9 ff 
    9e14:	66 c7 85 86 ec ff ff 	movw   $0x7910,-0x137a(%rbp)
    9e1b:	10 79 
    9e1d:	66 c7 85 88 ec ff ff 	movw   $0x7910,-0x1378(%rbp)
    9e24:	10 79 
    9e26:	66 c7 85 8a ec ff ff 	movw   $0x7910,-0x1376(%rbp)
    9e2d:	10 79 
    9e2f:	66 c7 85 8c ec ff ff 	movw   $0xfffb,-0x1374(%rbp)
    9e36:	fb ff 
    9e38:	66 c7 85 8e ec ff ff 	movw   $0x264c,-0x1372(%rbp)
    9e3f:	4c 26 
    9e41:	66 c7 85 90 ec ff ff 	movw   $0xffff,-0x1370(%rbp)
    9e48:	ff ff 
    9e4a:	66 c7 85 92 ec ff ff 	movw   $0xd1fd,-0x136e(%rbp)
    9e51:	fd d1 
    9e53:	66 c7 85 94 ec ff ff 	movw   $0x264c,-0x136c(%rbp)
    9e5a:	4c 26 
    9e5c:	c6 85 c8 ea ff ff 00 	movb   $0x0,-0x1538(%rbp)
    9e63:	48 b8 a0 a1 c3 40 af 	movabs $0xc3989daf40c3a1a0,%rax
    9e6a:	9d 98 c3 
    9e6d:	48 89 85 60 eb ff ff 	mov    %rax,-0x14a0(%rbp)
    9e74:	48 8d 05 6d de 00 00 	lea    0xde6d(%rip),%rax        # 17ce8 <g_228>
    9e7b:	48 89 85 68 eb ff ff 	mov    %rax,-0x1498(%rbp)
    9e82:	48 8d 05 73 a4 00 00 	lea    0xa473(%rip),%rax        # 142fc <g_587+0xc>
    9e89:	48 89 85 40 ec ff ff 	mov    %rax,-0x13c0(%rbp)
    9e90:	48 8d 05 65 a4 00 00 	lea    0xa465(%rip),%rax        # 142fc <g_587+0xc>
    9e97:	48 89 85 48 ec ff ff 	mov    %rax,-0x13b8(%rbp)
    9e9e:	48 8d 05 57 a4 00 00 	lea    0xa457(%rip),%rax        # 142fc <g_587+0xc>
    9ea5:	48 89 85 50 ec ff ff 	mov    %rax,-0x13b0(%rbp)
    9eac:	48 8d 05 49 a4 00 00 	lea    0xa449(%rip),%rax        # 142fc <g_587+0xc>
    9eb3:	48 89 85 58 ec ff ff 	mov    %rax,-0x13a8(%rbp)
    9eba:	48 8d 85 40 ec ff ff 	lea    -0x13c0(%rbp),%rax
    9ec1:	48 83 c0 08          	add    $0x8,%rax
    9ec5:	48 89 85 70 eb ff ff 	mov    %rax,-0x1490(%rbp)
    9ecc:	c7 85 dc ea ff ff c4 	movl   $0x6e944ac4,-0x1524(%rbp)
    9ed3:	4a 94 6e 
    9ed6:	c6 85 c9 ea ff ff 2d 	movb   $0x2d,-0x1537(%rbp)
    9edd:	c7 85 12 ec ff ff 00 	movl   $0x0,-0x13ee(%rbp)
    9ee4:	00 00 00 
    9ee7:	66 c7 85 16 ec ff ff 	movw   $0x0,-0x13ea(%rbp)
    9eee:	00 00 
    9ef0:	c6 85 18 ec ff ff 00 	movb   $0x0,-0x13e8(%rbp)
    9ef7:	c7 85 19 ec ff ff 64 	movl   $0x52645264,-0x13e7(%rbp)
    9efe:	52 64 52 
    9f01:	66 c7 85 1d ec ff ff 	movw   $0x5264,-0x13e3(%rbp)
    9f08:	64 52 
    9f0a:	c6 85 1f ec ff ff 64 	movb   $0x64,-0x13e1(%rbp)
    9f11:	48 b8 fb bf ef ed 43 	movabs $0x21148243edefbffb,%rax
    9f18:	82 14 21 
    9f1b:	48 89 85 78 eb ff ff 	mov    %rax,-0x1488(%rbp)
    9f22:	48 b8 89 53 e1 af 24 	movabs $0x2cb77924afe15389,%rax
    9f29:	79 b7 2c 
    9f2c:	48 89 85 80 eb ff ff 	mov    %rax,-0x1480(%rbp)
    9f33:	c7 45 f2 01 01 01 01 	movl   $0x1010101,-0xe(%rbp)
    9f3a:	66 c7 45 f6 01 01    	movw   $0x101,-0xa(%rbp)
    9f40:	66 c7 85 ca ea ff ff 	movw   $0x0,-0x1536(%rbp)
    9f47:	00 00 
    9f49:	48 b8 48 c2 f9 56 f2 	movabs $0x72ad6f256f9c248,%rax
    9f50:	d6 2a 07 
    9f53:	48 89 85 88 eb ff ff 	mov    %rax,-0x1478(%rbp)
    9f5a:	48 8d 85 40 ec ff ff 	lea    -0x13c0(%rbp),%rax
    9f61:	48 83 c0 08          	add    $0x8,%rax
    9f65:	48 89 85 90 eb ff ff 	mov    %rax,-0x1470(%rbp)
    9f6c:	c7 85 e0 ea ff ff 00 	movl   $0x0,-0x1520(%rbp)
    9f73:	00 00 00 
    9f76:	48 8d 05 0f a4 00 00 	lea    0xa40f(%rip),%rax        # 1438c <g_680>
    9f7d:	48 89 85 98 eb ff ff 	mov    %rax,-0x1468(%rbp)
    9f84:	48 c7 85 a0 eb ff ff 	movq   $0x0,-0x1460(%rbp)
    9f8b:	00 00 00 00 
    9f8f:	48 8d 05 8e a0 00 00 	lea    0xa08e(%rip),%rax        # 14024 <g_22>
    9f96:	48 89 85 a8 eb ff ff 	mov    %rax,-0x1458(%rbp)
    9f9d:	48 b8 34 32 eb 6a 87 	movabs $0x2c9c3e876aeb3234,%rax
    9fa4:	3e 9c 2c 
    9fa7:	48 89 85 b0 eb ff ff 	mov    %rax,-0x1450(%rbp)
    9fae:	c7 85 e4 ea ff ff 09 	movl   $0x9,-0x151c(%rbp)
    9fb5:	00 00 00 
    9fb8:	48 8d 05 d1 60 00 00 	lea    0x60d1(%rip),%rax        # 10090 <g_1611+0x8>
    9fbf:	48 89 85 b8 eb ff ff 	mov    %rax,-0x1448(%rbp)
    9fc6:	48 c7 85 c0 eb ff ff 	movq   $0x0,-0x1440(%rbp)
    9fcd:	00 00 00 00 
    9fd1:	48 b8 f0 f4 bd 37 0a 	movabs $0xa79fe10a37bdf4f0,%rax
    9fd8:	e1 9f a7 
    9fdb:	48 89 85 c8 eb ff ff 	mov    %rax,-0x1438(%rbp)
    9fe2:	c7 85 e8 ea ff ff ff 	movl   $0xffffffff,-0x1518(%rbp)
    9fe9:	ff ff ff 
    9fec:	c7 85 ec ea ff ff 01 	movl   $0x1,-0x1514(%rbp)
    9ff3:	00 00 00 
    9ff6:	48 8d 05 20 a4 00 00 	lea    0xa420(%rip),%rax        # 1441d <g_952>
    9ffd:	48 89 85 d0 eb ff ff 	mov    %rax,-0x1430(%rbp)
    a004:	48 c7 85 a0 ec ff ff 	movq   $0x1,-0x1360(%rbp)
    a00b:	01 00 00 00 
    a00f:	48 c7 85 a8 ec ff ff 	movq   $0x1,-0x1358(%rbp)
    a016:	01 00 00 00 
    a01a:	48 c7 85 b0 ec ff ff 	movq   $0x1,-0x1350(%rbp)
    a021:	01 00 00 00 
    a025:	48 c7 85 b8 ec ff ff 	movq   $0x1,-0x1348(%rbp)
    a02c:	01 00 00 00 
    a030:	48 c7 85 c0 ec ff ff 	movq   $0x1,-0x1340(%rbp)
    a037:	01 00 00 00 
    a03b:	48 c7 85 c8 ec ff ff 	movq   $0x1,-0x1338(%rbp)
    a042:	01 00 00 00 
    a046:	48 c7 85 d0 ec ff ff 	movq   $0x1,-0x1330(%rbp)
    a04d:	01 00 00 00 
    a051:	48 c7 85 d8 ec ff ff 	movq   $0x1,-0x1328(%rbp)
    a058:	01 00 00 00 
    a05c:	48 c7 85 e0 ec ff ff 	movq   $0x1,-0x1320(%rbp)
    a063:	01 00 00 00 
    a067:	48 c7 85 e8 ec ff ff 	movq   $0x1,-0x1318(%rbp)
    a06e:	01 00 00 00 
    a072:	48 b8 49 6e 7b 7e 6b 	movabs $0x119e356b7e7b6e49,%rax
    a079:	35 9e 11 
    a07c:	48 89 85 d8 eb ff ff 	mov    %rax,-0x1428(%rbp)
    a083:	48 8d 05 de b7 00 00 	lea    0xb7de(%rip),%rax        # 15868 <g_809>
    a08a:	48 89 85 e0 eb ff ff 	mov    %rax,-0x1420(%rbp)
    a091:	c7 85 a0 ed ff ff 39 	movl   $0x7c1a4339,-0x1260(%rbp)
    a098:	43 1a 7c 
    a09b:	c7 85 a4 ed ff ff 39 	movl   $0x7c1a4339,-0x125c(%rbp)
    a0a2:	43 1a 7c 
    a0a5:	c7 85 a8 ed ff ff 4c 	movl   $0xdd82164c,-0x1258(%rbp)
    a0ac:	16 82 dd 
    a0af:	c7 85 ac ed ff ff 01 	movl   $0x1,-0x1254(%rbp)
    a0b6:	00 00 00 
    a0b9:	c7 85 b0 ed ff ff 0b 	movl   $0x3676140b,-0x1250(%rbp)
    a0c0:	14 76 36 
    a0c3:	c7 85 b4 ed ff ff 0c 	movl   $0xf8a5ab0c,-0x124c(%rbp)
    a0ca:	ab a5 f8 
    a0cd:	c7 85 b8 ed ff ff f6 	movl   $0xfffffff6,-0x1248(%rbp)
    a0d4:	ff ff ff 
    a0d7:	c7 85 bc ed ff ff f6 	movl   $0xfffffff6,-0x1244(%rbp)
    a0de:	ff ff ff 
    a0e1:	c7 85 c0 ed ff ff 0c 	movl   $0xf8a5ab0c,-0x1240(%rbp)
    a0e8:	ab a5 f8 
    a0eb:	c7 85 c4 ed ff ff 39 	movl   $0x7c1a4339,-0x123c(%rbp)
    a0f2:	43 1a 7c 
    a0f5:	c7 85 c8 ed ff ff 0c 	movl   $0xf8a5ab0c,-0x1238(%rbp)
    a0fc:	ab a5 f8 
    a0ff:	c7 85 cc ed ff ff 01 	movl   $0x1,-0x1234(%rbp)
    a106:	00 00 00 
    a109:	c7 85 d0 ed ff ff ba 	movl   $0x944b27ba,-0x1230(%rbp)
    a110:	27 4b 94 
    a113:	c7 85 d4 ed ff ff ba 	movl   $0x944b27ba,-0x122c(%rbp)
    a11a:	27 4b 94 
    a11d:	c7 85 d8 ed ff ff 01 	movl   $0x1,-0x1228(%rbp)
    a124:	00 00 00 
    a127:	c7 85 dc ed ff ff 39 	movl   $0x7c1a4339,-0x1224(%rbp)
    a12e:	43 1a 7c 
    a131:	c7 85 e0 ed ff ff f6 	movl   $0xfffffff6,-0x1220(%rbp)
    a138:	ff ff ff 
    a13b:	c7 85 e4 ed ff ff ba 	movl   $0x944b27ba,-0x121c(%rbp)
    a142:	27 4b 94 
    a145:	c7 85 e8 ed ff ff 4c 	movl   $0xdd82164c,-0x1218(%rbp)
    a14c:	16 82 dd 
    a14f:	c7 85 ec ed ff ff 4c 	movl   $0xdd82164c,-0x1214(%rbp)
    a156:	16 82 dd 
    a159:	c7 85 f0 ed ff ff f6 	movl   $0xfffffff6,-0x1210(%rbp)
    a160:	ff ff ff 
    a163:	c7 85 f4 ed ff ff 39 	movl   $0x7c1a4339,-0x120c(%rbp)
    a16a:	43 1a 7c 
    a16d:	c7 85 f8 ed ff ff f6 	movl   $0xfffffff6,-0x1208(%rbp)
    a174:	ff ff ff 
    a177:	c7 85 fc ed ff ff ba 	movl   $0x944b27ba,-0x1204(%rbp)
    a17e:	27 4b 94 
    a181:	c7 85 00 ee ff ff 4c 	movl   $0xdd82164c,-0x1200(%rbp)
    a188:	16 82 dd 
    a18b:	c7 85 04 ee ff ff 01 	movl   $0x1,-0x11fc(%rbp)
    a192:	00 00 00 
    a195:	c7 85 08 ee ff ff 0c 	movl   $0xf8a5ab0c,-0x11f8(%rbp)
    a19c:	ab a5 f8 
    a19f:	c7 85 0c ee ff ff 4c 	movl   $0xdd82164c,-0x11f4(%rbp)
    a1a6:	16 82 dd 
    a1a9:	c7 85 10 ee ff ff 0c 	movl   $0xf8a5ab0c,-0x11f0(%rbp)
    a1b0:	ab a5 f8 
    a1b3:	c7 85 14 ee ff ff 01 	movl   $0x1,-0x11ec(%rbp)
    a1ba:	00 00 00 
    a1bd:	c7 85 18 ee ff ff f6 	movl   $0xfffffff6,-0x11e8(%rbp)
    a1c4:	ff ff ff 
    a1c7:	c7 85 1c ee ff ff 0c 	movl   $0xf8a5ab0c,-0x11e4(%rbp)
    a1ce:	ab a5 f8 
    a1d1:	c7 85 20 ee ff ff 39 	movl   $0x7c1a4339,-0x11e0(%rbp)
    a1d8:	43 1a 7c 
    a1db:	c7 85 24 ee ff ff 01 	movl   $0x1,-0x11dc(%rbp)
    a1e2:	00 00 00 
    a1e5:	c7 85 28 ee ff ff 39 	movl   $0x7c1a4339,-0x11d8(%rbp)
    a1ec:	43 1a 7c 
    a1ef:	c7 85 2c ee ff ff 39 	movl   $0x7c1a4339,-0x11d4(%rbp)
    a1f6:	43 1a 7c 
    a1f9:	c7 85 30 ee ff ff 39 	movl   $0x7c1a4339,-0x11d0(%rbp)
    a200:	43 1a 7c 
    a203:	c7 85 34 ee ff ff 4c 	movl   $0xdd82164c,-0x11cc(%rbp)
    a20a:	16 82 dd 
    a20d:	c7 85 38 ee ff ff 01 	movl   $0x1,-0x11c8(%rbp)
    a214:	00 00 00 
    a217:	c7 85 3c ee ff ff 0b 	movl   $0x3676140b,-0x11c4(%rbp)
    a21e:	14 76 36 
    a221:	c7 85 40 ee ff ff 0c 	movl   $0xf8a5ab0c,-0x11c0(%rbp)
    a228:	ab a5 f8 
    a22b:	c7 85 44 ee ff ff f6 	movl   $0xfffffff6,-0x11bc(%rbp)
    a232:	ff ff ff 
    a235:	c7 85 48 ee ff ff f6 	movl   $0xfffffff6,-0x11b8(%rbp)
    a23c:	ff ff ff 
    a23f:	c7 85 4c ee ff ff 0c 	movl   $0xf8a5ab0c,-0x11b4(%rbp)
    a246:	ab a5 f8 
    a249:	c7 85 50 ee ff ff 39 	movl   $0x7c1a4339,-0x11b0(%rbp)
    a250:	43 1a 7c 
    a253:	c7 85 54 ee ff ff 0c 	movl   $0xf8a5ab0c,-0x11ac(%rbp)
    a25a:	ab a5 f8 
    a25d:	c7 85 58 ee ff ff 01 	movl   $0x1,-0x11a8(%rbp)
    a264:	00 00 00 
    a267:	c7 85 5c ee ff ff ba 	movl   $0x944b27ba,-0x11a4(%rbp)
    a26e:	27 4b 94 
    a271:	c7 85 60 ee ff ff ba 	movl   $0x944b27ba,-0x11a0(%rbp)
    a278:	27 4b 94 
    a27b:	c7 85 64 ee ff ff 01 	movl   $0x1,-0x119c(%rbp)
    a282:	00 00 00 
    a285:	48 8d 85 00 eb ff ff 	lea    -0x1500(%rbp),%rax
    a28c:	48 89 85 20 eb ff ff 	mov    %rax,-0x14e0(%rbp)
    a293:	48 8d 85 20 eb ff ff 	lea    -0x14e0(%rbp),%rax
    a29a:	48 89 85 e8 eb ff ff 	mov    %rax,-0x1418(%rbp)
    a2a1:	48 b8 d2 26 8e ac f3 	movabs $0x9153a4f3ac8e26d2,%rax
    a2a8:	a4 53 91 
    a2ab:	48 89 85 f0 eb ff ff 	mov    %rax,-0x1410(%rbp)
    a2b2:	48 8d 05 a9 a2 00 00 	lea    0xa2a9(%rip),%rax        # 14562 <g_1351>
    a2b9:	48 89 85 f8 eb ff ff 	mov    %rax,-0x1408(%rbp)
    a2c0:	c7 85 f0 ea ff ff ff 	movl   $0xffffffff,-0x1510(%rbp)
    a2c7:	ff ff ff 
    a2ca:	c7 85 f4 ea ff ff ff 	movl   $0xffffffff,-0x150c(%rbp)
    a2d1:	ff ff ff 
    a2d4:	48 8d 05 45 da 00 00 	lea    0xda45(%rip),%rax        # 17d20 <g_284+0x10>
    a2db:	48 89 85 00 ec ff ff 	mov    %rax,-0x1400(%rbp)
    a2e2:	c7 85 f8 ea ff ff c9 	movl   $0xd2d29cc9,-0x1508(%rbp)
    a2e9:	9c d2 d2 
    a2ec:	c7 85 fc ea ff ff 00 	movl   $0x0,-0x1504(%rbp)
    a2f3:	00 00 00 
    a2f6:	48 8d 05 5b 9f 00 00 	lea    0x9f5b(%rip),%rax        # 14258 <g_279>
    a2fd:	48 89 85 28 eb ff ff 	mov    %rax,-0x14d8(%rbp)
    a304:	48 8d 85 28 eb ff ff 	lea    -0x14d8(%rbp),%rax
    a30b:	48 89 85 70 f0 ff ff 	mov    %rax,-0xf90(%rbp)
    a312:	48 c7 85 78 f0 ff ff 	movq   $0x0,-0xf88(%rbp)
    a319:	00 00 00 00 
    a31d:	48 8d 85 28 eb ff ff 	lea    -0x14d8(%rbp),%rax
    a324:	48 89 85 80 f0 ff ff 	mov    %rax,-0xf80(%rbp)
    a32b:	48 c7 85 88 f0 ff ff 	movq   $0x0,-0xf78(%rbp)
    a332:	00 00 00 00 
    a336:	48 c7 85 90 f0 ff ff 	movq   $0x0,-0xf70(%rbp)
    a33d:	00 00 00 00 
    a341:	48 8d 85 28 eb ff ff 	lea    -0x14d8(%rbp),%rax
    a348:	48 89 85 98 f0 ff ff 	mov    %rax,-0xf68(%rbp)
    a34f:	48 8d 85 28 eb ff ff 	lea    -0x14d8(%rbp),%rax
    a356:	48 89 85 a0 f0 ff ff 	mov    %rax,-0xf60(%rbp)
    a35d:	48 8d 85 28 eb ff ff 	lea    -0x14d8(%rbp),%rax
    a364:	48 89 85 a8 f0 ff ff 	mov    %rax,-0xf58(%rbp)
    a36b:	48 8d 85 28 eb ff ff 	lea    -0x14d8(%rbp),%rax
    a372:	48 89 85 b0 f0 ff ff 	mov    %rax,-0xf50(%rbp)
    a379:	48 c7 85 b8 f0 ff ff 	movq   $0x0,-0xf48(%rbp)
    a380:	00 00 00 00 
    a384:	48 c7 85 c0 f0 ff ff 	movq   $0x0,-0xf40(%rbp)
    a38b:	00 00 00 00 
    a38f:	48 8d 85 28 eb ff ff 	lea    -0x14d8(%rbp),%rax
    a396:	48 89 85 c8 f0 ff ff 	mov    %rax,-0xf38(%rbp)
    a39d:	48 8d 85 28 eb ff ff 	lea    -0x14d8(%rbp),%rax
    a3a4:	48 89 85 d0 f0 ff ff 	mov    %rax,-0xf30(%rbp)
    a3ab:	48 8d 85 28 eb ff ff 	lea    -0x14d8(%rbp),%rax
    a3b2:	48 89 85 d8 f0 ff ff 	mov    %rax,-0xf28(%rbp)
    a3b9:	48 8d 85 28 eb ff ff 	lea    -0x14d8(%rbp),%rax
    a3c0:	48 89 85 e0 f0 ff ff 	mov    %rax,-0xf20(%rbp)
    a3c7:	48 8d 85 28 eb ff ff 	lea    -0x14d8(%rbp),%rax
    a3ce:	48 89 85 e8 f0 ff ff 	mov    %rax,-0xf18(%rbp)
    a3d5:	48 8d 85 28 eb ff ff 	lea    -0x14d8(%rbp),%rax
    a3dc:	48 89 85 f0 f0 ff ff 	mov    %rax,-0xf10(%rbp)
    a3e3:	48 c7 85 f8 f0 ff ff 	movq   $0x0,-0xf08(%rbp)
    a3ea:	00 00 00 00 
    a3ee:	48 c7 85 00 f1 ff ff 	movq   $0x0,-0xf00(%rbp)
    a3f5:	00 00 00 00 
    a3f9:	48 8d 85 28 eb ff ff 	lea    -0x14d8(%rbp),%rax
    a400:	48 89 85 08 f1 ff ff 	mov    %rax,-0xef8(%rbp)
    a407:	48 c7 85 10 f1 ff ff 	movq   $0x0,-0xef0(%rbp)
    a40e:	00 00 00 00 
    a412:	48 c7 85 18 f1 ff ff 	movq   $0x0,-0xee8(%rbp)
    a419:	00 00 00 00 
    a41d:	48 8d 85 28 eb ff ff 	lea    -0x14d8(%rbp),%rax
    a424:	48 89 85 20 f1 ff ff 	mov    %rax,-0xee0(%rbp)
    a42b:	48 8d 85 28 eb ff ff 	lea    -0x14d8(%rbp),%rax
    a432:	48 89 85 28 f1 ff ff 	mov    %rax,-0xed8(%rbp)
    a439:	48 8d 85 28 eb ff ff 	lea    -0x14d8(%rbp),%rax
    a440:	48 89 85 30 f1 ff ff 	mov    %rax,-0xed0(%rbp)
    a447:	48 8d 85 28 eb ff ff 	lea    -0x14d8(%rbp),%rax
    a44e:	48 89 85 38 f1 ff ff 	mov    %rax,-0xec8(%rbp)
    a455:	48 8d 85 28 eb ff ff 	lea    -0x14d8(%rbp),%rax
    a45c:	48 89 85 40 f1 ff ff 	mov    %rax,-0xec0(%rbp)
    a463:	48 8d 85 28 eb ff ff 	lea    -0x14d8(%rbp),%rax
    a46a:	48 89 85 48 f1 ff ff 	mov    %rax,-0xeb8(%rbp)
    a471:	48 c7 85 50 f1 ff ff 	movq   $0x0,-0xeb0(%rbp)
    a478:	00 00 00 00 
    a47c:	48 c7 85 58 f1 ff ff 	movq   $0x0,-0xea8(%rbp)
    a483:	00 00 00 00 
    a487:	48 8d 85 28 eb ff ff 	lea    -0x14d8(%rbp),%rax
    a48e:	48 89 85 60 f1 ff ff 	mov    %rax,-0xea0(%rbp)
    a495:	48 8d 85 28 eb ff ff 	lea    -0x14d8(%rbp),%rax
    a49c:	48 89 85 68 f1 ff ff 	mov    %rax,-0xe98(%rbp)
    a4a3:	48 8d 85 28 eb ff ff 	lea    -0x14d8(%rbp),%rax
    a4aa:	48 89 85 70 f1 ff ff 	mov    %rax,-0xe90(%rbp)
    a4b1:	48 8d 85 28 eb ff ff 	lea    -0x14d8(%rbp),%rax
    a4b8:	48 89 85 78 f1 ff ff 	mov    %rax,-0xe88(%rbp)
    a4bf:	48 c7 85 80 f1 ff ff 	movq   $0x0,-0xe80(%rbp)
    a4c6:	00 00 00 00 
    a4ca:	48 c7 85 88 f1 ff ff 	movq   $0x0,-0xe78(%rbp)
    a4d1:	00 00 00 00 
    a4d5:	48 8d 85 28 eb ff ff 	lea    -0x14d8(%rbp),%rax
    a4dc:	48 89 85 90 f1 ff ff 	mov    %rax,-0xe70(%rbp)
    a4e3:	48 c7 85 98 f1 ff ff 	movq   $0x0,-0xe68(%rbp)
    a4ea:	00 00 00 00 
    a4ee:	48 8d 85 28 eb ff ff 	lea    -0x14d8(%rbp),%rax
    a4f5:	48 89 85 a0 f1 ff ff 	mov    %rax,-0xe60(%rbp)
    a4fc:	48 c7 85 a8 f1 ff ff 	movq   $0x0,-0xe58(%rbp)
    a503:	00 00 00 00 
    a507:	48 c7 85 b0 f1 ff ff 	movq   $0x0,-0xe50(%rbp)
    a50e:	00 00 00 00 
    a512:	48 c7 85 b8 f1 ff ff 	movq   $0x0,-0xe48(%rbp)
    a519:	00 00 00 00 
    a51d:	48 c7 85 c0 f1 ff ff 	movq   $0x0,-0xe40(%rbp)
    a524:	00 00 00 00 
    a528:	48 8d 85 28 eb ff ff 	lea    -0x14d8(%rbp),%rax
    a52f:	48 89 85 c8 f1 ff ff 	mov    %rax,-0xe38(%rbp)
    a536:	48 8d 85 28 eb ff ff 	lea    -0x14d8(%rbp),%rax
    a53d:	48 89 85 d0 f1 ff ff 	mov    %rax,-0xe30(%rbp)
    a544:	48 8d 85 28 eb ff ff 	lea    -0x14d8(%rbp),%rax
    a54b:	48 89 85 d8 f1 ff ff 	mov    %rax,-0xe28(%rbp)
    a552:	48 8d 85 28 eb ff ff 	lea    -0x14d8(%rbp),%rax
    a559:	48 89 85 e0 f1 ff ff 	mov    %rax,-0xe20(%rbp)
    a560:	48 c7 85 e8 f1 ff ff 	movq   $0x0,-0xe18(%rbp)
    a567:	00 00 00 00 
    a56b:	48 8d 85 28 eb ff ff 	lea    -0x14d8(%rbp),%rax
    a572:	48 89 85 f0 f1 ff ff 	mov    %rax,-0xe10(%rbp)
    a579:	48 c7 85 f8 f1 ff ff 	movq   $0x0,-0xe08(%rbp)
    a580:	00 00 00 00 
    a584:	48 8d 85 28 eb ff ff 	lea    -0x14d8(%rbp),%rax
    a58b:	48 89 85 00 f2 ff ff 	mov    %rax,-0xe00(%rbp)
    a592:	48 c7 85 08 f2 ff ff 	movq   $0x0,-0xdf8(%rbp)
    a599:	00 00 00 00 
    a59d:	48 8d 85 28 eb ff ff 	lea    -0x14d8(%rbp),%rax
    a5a4:	48 89 85 10 f2 ff ff 	mov    %rax,-0xdf0(%rbp)
    a5ab:	48 c7 85 18 f2 ff ff 	movq   $0x0,-0xde8(%rbp)
    a5b2:	00 00 00 00 
    a5b6:	48 8d 85 28 eb ff ff 	lea    -0x14d8(%rbp),%rax
    a5bd:	48 89 85 20 f2 ff ff 	mov    %rax,-0xde0(%rbp)
    a5c4:	48 c7 85 28 f2 ff ff 	movq   $0x0,-0xdd8(%rbp)
    a5cb:	00 00 00 00 
    a5cf:	48 8d 85 28 eb ff ff 	lea    -0x14d8(%rbp),%rax
    a5d6:	48 89 85 30 f2 ff ff 	mov    %rax,-0xdd0(%rbp)
    a5dd:	48 c7 85 38 f2 ff ff 	movq   $0x0,-0xdc8(%rbp)
    a5e4:	00 00 00 00 
    a5e8:	48 8d 85 28 eb ff ff 	lea    -0x14d8(%rbp),%rax
    a5ef:	48 89 85 40 f2 ff ff 	mov    %rax,-0xdc0(%rbp)
    a5f6:	48 8d 85 28 eb ff ff 	lea    -0x14d8(%rbp),%rax
    a5fd:	48 89 85 48 f2 ff ff 	mov    %rax,-0xdb8(%rbp)
    a604:	48 8d 85 28 eb ff ff 	lea    -0x14d8(%rbp),%rax
    a60b:	48 89 85 50 f2 ff ff 	mov    %rax,-0xdb0(%rbp)
    a612:	48 8d 85 28 eb ff ff 	lea    -0x14d8(%rbp),%rax
    a619:	48 89 85 58 f2 ff ff 	mov    %rax,-0xda8(%rbp)
    a620:	48 c7 85 60 f2 ff ff 	movq   $0x0,-0xda0(%rbp)
    a627:	00 00 00 00 
    a62b:	48 c7 85 68 f2 ff ff 	movq   $0x0,-0xd98(%rbp)
    a632:	00 00 00 00 
    a636:	48 c7 85 70 f2 ff ff 	movq   $0x0,-0xd90(%rbp)
    a63d:	00 00 00 00 
    a641:	48 c7 85 78 f2 ff ff 	movq   $0x0,-0xd88(%rbp)
    a648:	00 00 00 00 
    a64c:	48 8d 85 28 eb ff ff 	lea    -0x14d8(%rbp),%rax
    a653:	48 89 85 80 f2 ff ff 	mov    %rax,-0xd80(%rbp)
    a65a:	48 c7 85 88 f2 ff ff 	movq   $0x0,-0xd78(%rbp)
    a661:	00 00 00 00 
    a665:	48 8d 85 28 eb ff ff 	lea    -0x14d8(%rbp),%rax
    a66c:	48 89 85 90 f2 ff ff 	mov    %rax,-0xd70(%rbp)
    a673:	48 c7 85 98 f2 ff ff 	movq   $0x0,-0xd68(%rbp)
    a67a:	00 00 00 00 
    a67e:	48 c7 85 a0 f2 ff ff 	movq   $0x0,-0xd60(%rbp)
    a685:	00 00 00 00 
    a689:	48 8d 85 28 eb ff ff 	lea    -0x14d8(%rbp),%rax
    a690:	48 89 85 a8 f2 ff ff 	mov    %rax,-0xd58(%rbp)
    a697:	48 8d 85 28 eb ff ff 	lea    -0x14d8(%rbp),%rax
    a69e:	48 89 85 b0 f2 ff ff 	mov    %rax,-0xd50(%rbp)
    a6a5:	48 8d 85 28 eb ff ff 	lea    -0x14d8(%rbp),%rax
    a6ac:	48 89 85 b8 f2 ff ff 	mov    %rax,-0xd48(%rbp)
    a6b3:	48 8d 85 28 eb ff ff 	lea    -0x14d8(%rbp),%rax
    a6ba:	48 89 85 c0 f2 ff ff 	mov    %rax,-0xd40(%rbp)
    a6c1:	48 c7 85 c8 f2 ff ff 	movq   $0x0,-0xd38(%rbp)
    a6c8:	00 00 00 00 
    a6cc:	48 c7 85 d0 f2 ff ff 	movq   $0x0,-0xd30(%rbp)
    a6d3:	00 00 00 00 
    a6d7:	48 8d 85 28 eb ff ff 	lea    -0x14d8(%rbp),%rax
    a6de:	48 89 85 d8 f2 ff ff 	mov    %rax,-0xd28(%rbp)
    a6e5:	48 8d 85 28 eb ff ff 	lea    -0x14d8(%rbp),%rax
    a6ec:	48 89 85 e0 f2 ff ff 	mov    %rax,-0xd20(%rbp)
    a6f3:	48 8d 85 28 eb ff ff 	lea    -0x14d8(%rbp),%rax
    a6fa:	48 89 85 e8 f2 ff ff 	mov    %rax,-0xd18(%rbp)
    a701:	48 8d 85 28 eb ff ff 	lea    -0x14d8(%rbp),%rax
    a708:	48 89 85 f0 f2 ff ff 	mov    %rax,-0xd10(%rbp)
    a70f:	48 8d 85 28 eb ff ff 	lea    -0x14d8(%rbp),%rax
    a716:	48 89 85 f8 f2 ff ff 	mov    %rax,-0xd08(%rbp)
    a71d:	48 8d 85 28 eb ff ff 	lea    -0x14d8(%rbp),%rax
    a724:	48 89 85 00 f3 ff ff 	mov    %rax,-0xd00(%rbp)
    a72b:	48 c7 85 08 f3 ff ff 	movq   $0x0,-0xcf8(%rbp)
    a732:	00 00 00 00 
    a736:	48 c7 85 10 f3 ff ff 	movq   $0x0,-0xcf0(%rbp)
    a73d:	00 00 00 00 
    a741:	48 8d 85 28 eb ff ff 	lea    -0x14d8(%rbp),%rax
    a748:	48 89 85 18 f3 ff ff 	mov    %rax,-0xce8(%rbp)
    a74f:	48 c7 85 20 f3 ff ff 	movq   $0x0,-0xce0(%rbp)
    a756:	00 00 00 00 
    a75a:	48 c7 85 28 f3 ff ff 	movq   $0x0,-0xcd8(%rbp)
    a761:	00 00 00 00 
    a765:	48 8d 85 28 eb ff ff 	lea    -0x14d8(%rbp),%rax
    a76c:	48 89 85 30 f3 ff ff 	mov    %rax,-0xcd0(%rbp)
    a773:	48 8d 85 28 eb ff ff 	lea    -0x14d8(%rbp),%rax
    a77a:	48 89 85 38 f3 ff ff 	mov    %rax,-0xcc8(%rbp)
    a781:	48 8d 85 28 eb ff ff 	lea    -0x14d8(%rbp),%rax
    a788:	48 89 85 40 f3 ff ff 	mov    %rax,-0xcc0(%rbp)
    a78f:	48 8d 85 28 eb ff ff 	lea    -0x14d8(%rbp),%rax
    a796:	48 89 85 48 f3 ff ff 	mov    %rax,-0xcb8(%rbp)
    a79d:	48 8d 85 28 eb ff ff 	lea    -0x14d8(%rbp),%rax
    a7a4:	48 89 85 50 f3 ff ff 	mov    %rax,-0xcb0(%rbp)
    a7ab:	48 8d 85 28 eb ff ff 	lea    -0x14d8(%rbp),%rax
    a7b2:	48 89 85 58 f3 ff ff 	mov    %rax,-0xca8(%rbp)
    a7b9:	48 c7 85 60 f3 ff ff 	movq   $0x0,-0xca0(%rbp)
    a7c0:	00 00 00 00 
    a7c4:	48 c7 85 68 f3 ff ff 	movq   $0x0,-0xc98(%rbp)
    a7cb:	00 00 00 00 
    a7cf:	48 8d 85 28 eb ff ff 	lea    -0x14d8(%rbp),%rax
    a7d6:	48 89 85 70 f3 ff ff 	mov    %rax,-0xc90(%rbp)
    a7dd:	48 8d 85 28 eb ff ff 	lea    -0x14d8(%rbp),%rax
    a7e4:	48 89 85 78 f3 ff ff 	mov    %rax,-0xc88(%rbp)
    a7eb:	48 8d 85 28 eb ff ff 	lea    -0x14d8(%rbp),%rax
    a7f2:	48 89 85 80 f3 ff ff 	mov    %rax,-0xc80(%rbp)
    a7f9:	48 8d 85 28 eb ff ff 	lea    -0x14d8(%rbp),%rax
    a800:	48 89 85 88 f3 ff ff 	mov    %rax,-0xc78(%rbp)
    a807:	48 c7 85 90 f3 ff ff 	movq   $0x0,-0xc70(%rbp)
    a80e:	00 00 00 00 
    a812:	48 c7 85 98 f3 ff ff 	movq   $0x0,-0xc68(%rbp)
    a819:	00 00 00 00 
    a81d:	48 8d 85 28 eb ff ff 	lea    -0x14d8(%rbp),%rax
    a824:	48 89 85 a0 f3 ff ff 	mov    %rax,-0xc60(%rbp)
    a82b:	48 c7 85 a8 f3 ff ff 	movq   $0x0,-0xc58(%rbp)
    a832:	00 00 00 00 
    a836:	48 8d 85 28 eb ff ff 	lea    -0x14d8(%rbp),%rax
    a83d:	48 89 85 b0 f3 ff ff 	mov    %rax,-0xc50(%rbp)
    a844:	48 c7 85 b8 f3 ff ff 	movq   $0x0,-0xc48(%rbp)
    a84b:	00 00 00 00 
    a84f:	48 c7 85 c0 f3 ff ff 	movq   $0x0,-0xc40(%rbp)
    a856:	00 00 00 00 
    a85a:	48 c7 85 c8 f3 ff ff 	movq   $0x0,-0xc38(%rbp)
    a861:	00 00 00 00 
    a865:	48 c7 85 d0 f3 ff ff 	movq   $0x0,-0xc30(%rbp)
    a86c:	00 00 00 00 
    a870:	48 8d 85 28 eb ff ff 	lea    -0x14d8(%rbp),%rax
    a877:	48 89 85 d8 f3 ff ff 	mov    %rax,-0xc28(%rbp)
    a87e:	48 8d 85 28 eb ff ff 	lea    -0x14d8(%rbp),%rax
    a885:	48 89 85 e0 f3 ff ff 	mov    %rax,-0xc20(%rbp)
    a88c:	48 8d 85 28 eb ff ff 	lea    -0x14d8(%rbp),%rax
    a893:	48 89 85 e8 f3 ff ff 	mov    %rax,-0xc18(%rbp)
    a89a:	48 8d 85 28 eb ff ff 	lea    -0x14d8(%rbp),%rax
    a8a1:	48 89 85 f0 f3 ff ff 	mov    %rax,-0xc10(%rbp)
    a8a8:	48 c7 85 f8 f3 ff ff 	movq   $0x0,-0xc08(%rbp)
    a8af:	00 00 00 00 
    a8b3:	48 8d 85 28 eb ff ff 	lea    -0x14d8(%rbp),%rax
    a8ba:	48 89 85 00 f4 ff ff 	mov    %rax,-0xc00(%rbp)
    a8c1:	48 c7 85 08 f4 ff ff 	movq   $0x0,-0xbf8(%rbp)
    a8c8:	00 00 00 00 
    a8cc:	48 8d 85 28 eb ff ff 	lea    -0x14d8(%rbp),%rax
    a8d3:	48 89 85 10 f4 ff ff 	mov    %rax,-0xbf0(%rbp)
    a8da:	48 c7 85 18 f4 ff ff 	movq   $0x0,-0xbe8(%rbp)
    a8e1:	00 00 00 00 
    a8e5:	48 8d 85 28 eb ff ff 	lea    -0x14d8(%rbp),%rax
    a8ec:	48 89 85 20 f4 ff ff 	mov    %rax,-0xbe0(%rbp)
    a8f3:	48 c7 85 28 f4 ff ff 	movq   $0x0,-0xbd8(%rbp)
    a8fa:	00 00 00 00 
    a8fe:	48 8d 85 28 eb ff ff 	lea    -0x14d8(%rbp),%rax
    a905:	48 89 85 30 f4 ff ff 	mov    %rax,-0xbd0(%rbp)
    a90c:	48 c7 85 38 f4 ff ff 	movq   $0x0,-0xbc8(%rbp)
    a913:	00 00 00 00 
    a917:	48 8d 85 28 eb ff ff 	lea    -0x14d8(%rbp),%rax
    a91e:	48 89 85 40 f4 ff ff 	mov    %rax,-0xbc0(%rbp)
    a925:	48 c7 85 48 f4 ff ff 	movq   $0x0,-0xbb8(%rbp)
    a92c:	00 00 00 00 
    a930:	48 8d 85 28 eb ff ff 	lea    -0x14d8(%rbp),%rax
    a937:	48 89 85 50 f4 ff ff 	mov    %rax,-0xbb0(%rbp)
    a93e:	48 8d 85 28 eb ff ff 	lea    -0x14d8(%rbp),%rax
    a945:	48 89 85 58 f4 ff ff 	mov    %rax,-0xba8(%rbp)
    a94c:	48 8d 85 28 eb ff ff 	lea    -0x14d8(%rbp),%rax
    a953:	48 89 85 60 f4 ff ff 	mov    %rax,-0xba0(%rbp)
    a95a:	48 8d 85 28 eb ff ff 	lea    -0x14d8(%rbp),%rax
    a961:	48 89 85 68 f4 ff ff 	mov    %rax,-0xb98(%rbp)
    a968:	48 c7 85 70 f4 ff ff 	movq   $0x0,-0xb90(%rbp)
    a96f:	00 00 00 00 
    a973:	48 c7 85 78 f4 ff ff 	movq   $0x0,-0xb88(%rbp)
    a97a:	00 00 00 00 
    a97e:	48 c7 85 80 f4 ff ff 	movq   $0x0,-0xb80(%rbp)
    a985:	00 00 00 00 
    a989:	48 c7 85 88 f4 ff ff 	movq   $0x0,-0xb78(%rbp)
    a990:	00 00 00 00 
    a994:	48 8d 85 28 eb ff ff 	lea    -0x14d8(%rbp),%rax
    a99b:	48 89 85 90 f4 ff ff 	mov    %rax,-0xb70(%rbp)
    a9a2:	48 c7 85 98 f4 ff ff 	movq   $0x0,-0xb68(%rbp)
    a9a9:	00 00 00 00 
    a9ad:	48 8d 85 28 eb ff ff 	lea    -0x14d8(%rbp),%rax
    a9b4:	48 89 85 a0 f4 ff ff 	mov    %rax,-0xb60(%rbp)
    a9bb:	48 c7 85 a8 f4 ff ff 	movq   $0x0,-0xb58(%rbp)
    a9c2:	00 00 00 00 
    a9c6:	48 c7 85 b0 f4 ff ff 	movq   $0x0,-0xb50(%rbp)
    a9cd:	00 00 00 00 
    a9d1:	48 8d 85 28 eb ff ff 	lea    -0x14d8(%rbp),%rax
    a9d8:	48 89 85 b8 f4 ff ff 	mov    %rax,-0xb48(%rbp)
    a9df:	48 8d 85 28 eb ff ff 	lea    -0x14d8(%rbp),%rax
    a9e6:	48 89 85 c0 f4 ff ff 	mov    %rax,-0xb40(%rbp)
    a9ed:	48 8d 85 28 eb ff ff 	lea    -0x14d8(%rbp),%rax
    a9f4:	48 89 85 c8 f4 ff ff 	mov    %rax,-0xb38(%rbp)
    a9fb:	48 8d 85 28 eb ff ff 	lea    -0x14d8(%rbp),%rax
    aa02:	48 89 85 d0 f4 ff ff 	mov    %rax,-0xb30(%rbp)
    aa09:	48 c7 85 d8 f4 ff ff 	movq   $0x0,-0xb28(%rbp)
    aa10:	00 00 00 00 
    aa14:	48 c7 85 e0 f4 ff ff 	movq   $0x0,-0xb20(%rbp)
    aa1b:	00 00 00 00 
    aa1f:	48 8d 85 28 eb ff ff 	lea    -0x14d8(%rbp),%rax
    aa26:	48 89 85 e8 f4 ff ff 	mov    %rax,-0xb18(%rbp)
    aa2d:	48 8d 85 28 eb ff ff 	lea    -0x14d8(%rbp),%rax
    aa34:	48 89 85 f0 f4 ff ff 	mov    %rax,-0xb10(%rbp)
    aa3b:	48 8d 85 28 eb ff ff 	lea    -0x14d8(%rbp),%rax
    aa42:	48 89 85 f8 f4 ff ff 	mov    %rax,-0xb08(%rbp)
    aa49:	48 8d 85 28 eb ff ff 	lea    -0x14d8(%rbp),%rax
    aa50:	48 89 85 00 f5 ff ff 	mov    %rax,-0xb00(%rbp)
    aa57:	48 8d 85 28 eb ff ff 	lea    -0x14d8(%rbp),%rax
    aa5e:	48 89 85 08 f5 ff ff 	mov    %rax,-0xaf8(%rbp)
    aa65:	48 8d 85 28 eb ff ff 	lea    -0x14d8(%rbp),%rax
    aa6c:	48 89 85 10 f5 ff ff 	mov    %rax,-0xaf0(%rbp)
    aa73:	48 c7 85 18 f5 ff ff 	movq   $0x0,-0xae8(%rbp)
    aa7a:	00 00 00 00 
    aa7e:	48 c7 85 20 f5 ff ff 	movq   $0x0,-0xae0(%rbp)
    aa85:	00 00 00 00 
    aa89:	48 8d 85 28 eb ff ff 	lea    -0x14d8(%rbp),%rax
    aa90:	48 89 85 28 f5 ff ff 	mov    %rax,-0xad8(%rbp)
    aa97:	48 c7 85 30 f5 ff ff 	movq   $0x0,-0xad0(%rbp)
    aa9e:	00 00 00 00 
    aaa2:	48 c7 85 38 f5 ff ff 	movq   $0x0,-0xac8(%rbp)
    aaa9:	00 00 00 00 
    aaad:	48 8d 85 28 eb ff ff 	lea    -0x14d8(%rbp),%rax
    aab4:	48 89 85 40 f5 ff ff 	mov    %rax,-0xac0(%rbp)
    aabb:	48 8d 85 28 eb ff ff 	lea    -0x14d8(%rbp),%rax
    aac2:	48 89 85 48 f5 ff ff 	mov    %rax,-0xab8(%rbp)
    aac9:	48 8d 85 28 eb ff ff 	lea    -0x14d8(%rbp),%rax
    aad0:	48 89 85 50 f5 ff ff 	mov    %rax,-0xab0(%rbp)
    aad7:	48 8d 85 28 eb ff ff 	lea    -0x14d8(%rbp),%rax
    aade:	48 89 85 58 f5 ff ff 	mov    %rax,-0xaa8(%rbp)
    aae5:	48 8d 85 28 eb ff ff 	lea    -0x14d8(%rbp),%rax
    aaec:	48 89 85 60 f5 ff ff 	mov    %rax,-0xaa0(%rbp)
    aaf3:	48 8d 85 28 eb ff ff 	lea    -0x14d8(%rbp),%rax
    aafa:	48 89 85 68 f5 ff ff 	mov    %rax,-0xa98(%rbp)
    ab01:	48 c7 85 70 f5 ff ff 	movq   $0x0,-0xa90(%rbp)
    ab08:	00 00 00 00 
    ab0c:	48 c7 85 78 f5 ff ff 	movq   $0x0,-0xa88(%rbp)
    ab13:	00 00 00 00 
    ab17:	48 8d 85 28 eb ff ff 	lea    -0x14d8(%rbp),%rax
    ab1e:	48 89 85 80 f5 ff ff 	mov    %rax,-0xa80(%rbp)
    ab25:	48 8d 85 28 eb ff ff 	lea    -0x14d8(%rbp),%rax
    ab2c:	48 89 85 88 f5 ff ff 	mov    %rax,-0xa78(%rbp)
    ab33:	48 8d 85 28 eb ff ff 	lea    -0x14d8(%rbp),%rax
    ab3a:	48 89 85 90 f5 ff ff 	mov    %rax,-0xa70(%rbp)
    ab41:	48 8d 85 28 eb ff ff 	lea    -0x14d8(%rbp),%rax
    ab48:	48 89 85 98 f5 ff ff 	mov    %rax,-0xa68(%rbp)
    ab4f:	48 c7 85 a0 f5 ff ff 	movq   $0x0,-0xa60(%rbp)
    ab56:	00 00 00 00 
    ab5a:	48 8d 85 28 eb ff ff 	lea    -0x14d8(%rbp),%rax
    ab61:	48 89 85 a8 f5 ff ff 	mov    %rax,-0xa58(%rbp)
    ab68:	48 8d 85 28 eb ff ff 	lea    -0x14d8(%rbp),%rax
    ab6f:	48 89 85 b0 f5 ff ff 	mov    %rax,-0xa50(%rbp)
    ab76:	48 8d 85 28 eb ff ff 	lea    -0x14d8(%rbp),%rax
    ab7d:	48 89 85 b8 f5 ff ff 	mov    %rax,-0xa48(%rbp)
    ab84:	48 8d 85 28 eb ff ff 	lea    -0x14d8(%rbp),%rax
    ab8b:	48 89 85 c0 f5 ff ff 	mov    %rax,-0xa40(%rbp)
    ab92:	48 c7 85 c8 f5 ff ff 	movq   $0x0,-0xa38(%rbp)
    ab99:	00 00 00 00 
    ab9d:	48 8d 85 28 eb ff ff 	lea    -0x14d8(%rbp),%rax
    aba4:	48 89 85 d0 f5 ff ff 	mov    %rax,-0xa30(%rbp)
    abab:	48 8d 85 28 eb ff ff 	lea    -0x14d8(%rbp),%rax
    abb2:	48 89 85 d8 f5 ff ff 	mov    %rax,-0xa28(%rbp)
    abb9:	48 c7 85 e0 f5 ff ff 	movq   $0x0,-0xa20(%rbp)
    abc0:	00 00 00 00 
    abc4:	48 8d 85 28 eb ff ff 	lea    -0x14d8(%rbp),%rax
    abcb:	48 89 85 e8 f5 ff ff 	mov    %rax,-0xa18(%rbp)
    abd2:	48 8d 85 28 eb ff ff 	lea    -0x14d8(%rbp),%rax
    abd9:	48 89 85 f0 f5 ff ff 	mov    %rax,-0xa10(%rbp)
    abe0:	48 c7 85 f8 f5 ff ff 	movq   $0x0,-0xa08(%rbp)
    abe7:	00 00 00 00 
    abeb:	48 8d 85 28 eb ff ff 	lea    -0x14d8(%rbp),%rax
    abf2:	48 89 85 00 f6 ff ff 	mov    %rax,-0xa00(%rbp)
    abf9:	48 8d 85 28 eb ff ff 	lea    -0x14d8(%rbp),%rax
    ac00:	48 89 85 08 f6 ff ff 	mov    %rax,-0x9f8(%rbp)
    ac07:	48 c7 85 10 f6 ff ff 	movq   $0x0,-0x9f0(%rbp)
    ac0e:	00 00 00 00 
    ac12:	48 c7 85 18 f6 ff ff 	movq   $0x0,-0x9e8(%rbp)
    ac19:	00 00 00 00 
    ac1d:	48 8d 85 28 eb ff ff 	lea    -0x14d8(%rbp),%rax
    ac24:	48 89 85 20 f6 ff ff 	mov    %rax,-0x9e0(%rbp)
    ac2b:	48 8d 85 28 eb ff ff 	lea    -0x14d8(%rbp),%rax
    ac32:	48 89 85 28 f6 ff ff 	mov    %rax,-0x9d8(%rbp)
    ac39:	48 8d 85 28 eb ff ff 	lea    -0x14d8(%rbp),%rax
    ac40:	48 89 85 30 f6 ff ff 	mov    %rax,-0x9d0(%rbp)
    ac47:	48 8d 85 28 eb ff ff 	lea    -0x14d8(%rbp),%rax
    ac4e:	48 89 85 38 f6 ff ff 	mov    %rax,-0x9c8(%rbp)
    ac55:	48 8d 85 28 eb ff ff 	lea    -0x14d8(%rbp),%rax
    ac5c:	48 89 85 40 f6 ff ff 	mov    %rax,-0x9c0(%rbp)
    ac63:	48 c7 85 48 f6 ff ff 	movq   $0x0,-0x9b8(%rbp)
    ac6a:	00 00 00 00 
    ac6e:	48 c7 85 50 f6 ff ff 	movq   $0x0,-0x9b0(%rbp)
    ac75:	00 00 00 00 
    ac79:	48 8d 85 28 eb ff ff 	lea    -0x14d8(%rbp),%rax
    ac80:	48 89 85 58 f6 ff ff 	mov    %rax,-0x9a8(%rbp)
    ac87:	48 8d 85 28 eb ff ff 	lea    -0x14d8(%rbp),%rax
    ac8e:	48 89 85 60 f6 ff ff 	mov    %rax,-0x9a0(%rbp)
    ac95:	48 c7 85 68 f6 ff ff 	movq   $0x0,-0x998(%rbp)
    ac9c:	00 00 00 00 
    aca0:	48 8d 85 28 eb ff ff 	lea    -0x14d8(%rbp),%rax
    aca7:	48 89 85 70 f6 ff ff 	mov    %rax,-0x990(%rbp)
    acae:	48 8d 85 28 eb ff ff 	lea    -0x14d8(%rbp),%rax
    acb5:	48 89 85 78 f6 ff ff 	mov    %rax,-0x988(%rbp)
    acbc:	48 c7 85 80 f6 ff ff 	movq   $0x0,-0x980(%rbp)
    acc3:	00 00 00 00 
    acc7:	48 8d 85 28 eb ff ff 	lea    -0x14d8(%rbp),%rax
    acce:	48 89 85 88 f6 ff ff 	mov    %rax,-0x978(%rbp)
    acd5:	48 8d 85 28 eb ff ff 	lea    -0x14d8(%rbp),%rax
    acdc:	48 89 85 90 f6 ff ff 	mov    %rax,-0x970(%rbp)
    ace3:	48 c7 85 98 f6 ff ff 	movq   $0x0,-0x968(%rbp)
    acea:	00 00 00 00 
    acee:	48 8d 85 28 eb ff ff 	lea    -0x14d8(%rbp),%rax
    acf5:	48 89 85 a0 f6 ff ff 	mov    %rax,-0x960(%rbp)
    acfc:	48 8d 85 28 eb ff ff 	lea    -0x14d8(%rbp),%rax
    ad03:	48 89 85 a8 f6 ff ff 	mov    %rax,-0x958(%rbp)
    ad0a:	48 8d 85 28 eb ff ff 	lea    -0x14d8(%rbp),%rax
    ad11:	48 89 85 b0 f6 ff ff 	mov    %rax,-0x950(%rbp)
    ad18:	48 8d 85 28 eb ff ff 	lea    -0x14d8(%rbp),%rax
    ad1f:	48 89 85 b8 f6 ff ff 	mov    %rax,-0x948(%rbp)
    ad26:	48 c7 85 c0 f6 ff ff 	movq   $0x0,-0x940(%rbp)
    ad2d:	00 00 00 00 
    ad31:	48 8d 85 28 eb ff ff 	lea    -0x14d8(%rbp),%rax
    ad38:	48 89 85 c8 f6 ff ff 	mov    %rax,-0x938(%rbp)
    ad3f:	48 8d 85 28 eb ff ff 	lea    -0x14d8(%rbp),%rax
    ad46:	48 89 85 d0 f6 ff ff 	mov    %rax,-0x930(%rbp)
    ad4d:	48 8d 85 28 eb ff ff 	lea    -0x14d8(%rbp),%rax
    ad54:	48 89 85 d8 f6 ff ff 	mov    %rax,-0x928(%rbp)
    ad5b:	48 8d 85 28 eb ff ff 	lea    -0x14d8(%rbp),%rax
    ad62:	48 89 85 e0 f6 ff ff 	mov    %rax,-0x920(%rbp)
    ad69:	48 8d 85 28 eb ff ff 	lea    -0x14d8(%rbp),%rax
    ad70:	48 89 85 e8 f6 ff ff 	mov    %rax,-0x918(%rbp)
    ad77:	48 8d 85 28 eb ff ff 	lea    -0x14d8(%rbp),%rax
    ad7e:	48 89 85 f0 f6 ff ff 	mov    %rax,-0x910(%rbp)
    ad85:	48 8d 85 28 eb ff ff 	lea    -0x14d8(%rbp),%rax
    ad8c:	48 89 85 f8 f6 ff ff 	mov    %rax,-0x908(%rbp)
    ad93:	48 c7 85 00 f7 ff ff 	movq   $0x0,-0x900(%rbp)
    ad9a:	00 00 00 00 
    ad9e:	48 c7 85 08 f7 ff ff 	movq   $0x0,-0x8f8(%rbp)
    ada5:	00 00 00 00 
    ada9:	48 8d 85 28 eb ff ff 	lea    -0x14d8(%rbp),%rax
    adb0:	48 89 85 10 f7 ff ff 	mov    %rax,-0x8f0(%rbp)
    adb7:	48 c7 85 18 f7 ff ff 	movq   $0x0,-0x8e8(%rbp)
    adbe:	00 00 00 00 
    adc2:	48 c7 85 20 f7 ff ff 	movq   $0x0,-0x8e0(%rbp)
    adc9:	00 00 00 00 
    adcd:	48 c7 85 28 f7 ff ff 	movq   $0x0,-0x8d8(%rbp)
    add4:	00 00 00 00 
    add8:	48 c7 85 30 f7 ff ff 	movq   $0x0,-0x8d0(%rbp)
    addf:	00 00 00 00 
    ade3:	48 c7 85 38 f7 ff ff 	movq   $0x0,-0x8c8(%rbp)
    adea:	00 00 00 00 
    adee:	48 c7 85 40 f7 ff ff 	movq   $0x0,-0x8c0(%rbp)
    adf5:	00 00 00 00 
    adf9:	48 c7 85 48 f7 ff ff 	movq   $0x0,-0x8b8(%rbp)
    ae00:	00 00 00 00 
    ae04:	48 c7 85 50 f7 ff ff 	movq   $0x0,-0x8b0(%rbp)
    ae0b:	00 00 00 00 
    ae0f:	48 c7 85 58 f7 ff ff 	movq   $0x0,-0x8a8(%rbp)
    ae16:	00 00 00 00 
    ae1a:	48 8d 85 28 eb ff ff 	lea    -0x14d8(%rbp),%rax
    ae21:	48 89 85 60 f7 ff ff 	mov    %rax,-0x8a0(%rbp)
    ae28:	48 c7 85 68 f7 ff ff 	movq   $0x0,-0x898(%rbp)
    ae2f:	00 00 00 00 
    ae33:	48 c7 85 70 f7 ff ff 	movq   $0x0,-0x890(%rbp)
    ae3a:	00 00 00 00 
    ae3e:	48 8d 85 28 eb ff ff 	lea    -0x14d8(%rbp),%rax
    ae45:	48 89 85 78 f7 ff ff 	mov    %rax,-0x888(%rbp)
    ae4c:	48 8d 85 28 eb ff ff 	lea    -0x14d8(%rbp),%rax
    ae53:	48 89 85 80 f7 ff ff 	mov    %rax,-0x880(%rbp)
    ae5a:	48 8d 85 28 eb ff ff 	lea    -0x14d8(%rbp),%rax
    ae61:	48 89 85 88 f7 ff ff 	mov    %rax,-0x878(%rbp)
    ae68:	48 8d 85 28 eb ff ff 	lea    -0x14d8(%rbp),%rax
    ae6f:	48 89 85 90 f7 ff ff 	mov    %rax,-0x870(%rbp)
    ae76:	48 8d 85 28 eb ff ff 	lea    -0x14d8(%rbp),%rax
    ae7d:	48 89 85 98 f7 ff ff 	mov    %rax,-0x868(%rbp)
    ae84:	48 8d 85 28 eb ff ff 	lea    -0x14d8(%rbp),%rax
    ae8b:	48 89 85 a0 f7 ff ff 	mov    %rax,-0x860(%rbp)
    ae92:	48 8d 85 28 eb ff ff 	lea    -0x14d8(%rbp),%rax
    ae99:	48 89 85 a8 f7 ff ff 	mov    %rax,-0x858(%rbp)
    aea0:	48 c7 85 b0 f7 ff ff 	movq   $0x0,-0x850(%rbp)
    aea7:	00 00 00 00 
    aeab:	48 8d 85 28 eb ff ff 	lea    -0x14d8(%rbp),%rax
    aeb2:	48 89 85 b8 f7 ff ff 	mov    %rax,-0x848(%rbp)
    aeb9:	48 8d 85 28 eb ff ff 	lea    -0x14d8(%rbp),%rax
    aec0:	48 89 85 c0 f7 ff ff 	mov    %rax,-0x840(%rbp)
    aec7:	48 8d 85 28 eb ff ff 	lea    -0x14d8(%rbp),%rax
    aece:	48 89 85 c8 f7 ff ff 	mov    %rax,-0x838(%rbp)
    aed5:	48 8d 85 28 eb ff ff 	lea    -0x14d8(%rbp),%rax
    aedc:	48 89 85 d0 f7 ff ff 	mov    %rax,-0x830(%rbp)
    aee3:	48 c7 85 d8 f7 ff ff 	movq   $0x0,-0x828(%rbp)
    aeea:	00 00 00 00 
    aeee:	48 8d 85 28 eb ff ff 	lea    -0x14d8(%rbp),%rax
    aef5:	48 89 85 e0 f7 ff ff 	mov    %rax,-0x820(%rbp)
    aefc:	48 8d 85 28 eb ff ff 	lea    -0x14d8(%rbp),%rax
    af03:	48 89 85 e8 f7 ff ff 	mov    %rax,-0x818(%rbp)
    af0a:	48 c7 85 f0 f7 ff ff 	movq   $0x0,-0x810(%rbp)
    af11:	00 00 00 00 
    af15:	48 8d 85 28 eb ff ff 	lea    -0x14d8(%rbp),%rax
    af1c:	48 89 85 f8 f7 ff ff 	mov    %rax,-0x808(%rbp)
    af23:	48 8d 85 28 eb ff ff 	lea    -0x14d8(%rbp),%rax
    af2a:	48 89 85 00 f8 ff ff 	mov    %rax,-0x800(%rbp)
    af31:	c7 85 cc ea ff ff 00 	movl   $0x0,-0x1534(%rbp)
    af38:	00 00 00 
    af3b:	eb 1a                	jmp    af57 <func_1+0x17a2>
    af3d:	8b 85 cc ea ff ff    	mov    -0x1534(%rbp),%eax
    af43:	48 98                	cltq   
    af45:	c7 84 85 20 ec ff ff 	movl   $0x29c073a4,-0x13e0(%rbp,%rax,4)
    af4c:	a4 73 c0 29 
    af50:	83 85 cc ea ff ff 01 	addl   $0x1,-0x1534(%rbp)
    af57:	83 bd cc ea ff ff 04 	cmpl   $0x4,-0x1534(%rbp)
    af5e:	7e dd                	jle    af3d <func_1+0x1788>
    af60:	c7 85 cc ea ff ff 00 	movl   $0x0,-0x1534(%rbp)
    af67:	00 00 00 
    af6a:	eb 19                	jmp    af85 <func_1+0x17d0>
    af6c:	8b 85 cc ea ff ff    	mov    -0x1534(%rbp),%eax
    af72:	48 98                	cltq   
    af74:	66 c7 84 45 08 ec ff 	movw   $0x1,-0x13f8(%rbp,%rax,2)
    af7b:	ff 01 00 
    af7e:	83 85 cc ea ff ff 01 	addl   $0x1,-0x1534(%rbp)
    af85:	83 bd cc ea ff ff 04 	cmpl   $0x4,-0x1534(%rbp)
    af8c:	7e de                	jle    af6c <func_1+0x17b7>
    af8e:	48 8b 85 58 eb ff ff 	mov    -0x14a8(%rbp),%rax
    af95:	8b 00                	mov    (%rax),%eax
    af97:	48 98                	cltq   
    af99:	48 8b 55 f8          	mov    -0x8(%rbp),%rdx
    af9d:	64 48 33 14 25 28 00 	xor    %fs:0x28,%rdx
    afa4:	00 00 
    afa6:	74 05                	je     afad <func_1+0x17f8>
    afa8:	e8 c3 d0 ff ff       	callq  8070 <__stack_chk_fail@plt>
    afad:	c9                   	leaveq 
    afae:	c3                   	retq   

000000000000afaf <func_4>:
    afaf:	f3 0f 1e fa          	endbr64 
    afb3:	55                   	push   %rbp
    afb4:	48 89 e5             	mov    %rsp,%rbp
    afb7:	48 81 ec 70 01 00 00 	sub    $0x170,%rsp
    afbe:	89 b5 98 fe ff ff    	mov    %esi,-0x168(%rbp)
    afc4:	89 d0                	mov    %edx,%eax
    afc6:	89 8d 90 fe ff ff    	mov    %ecx,-0x170(%rbp)
    afcc:	89 fa                	mov    %edi,%edx
    afce:	66 89 95 9c fe ff ff 	mov    %dx,-0x164(%rbp)
    afd5:	66 89 85 94 fe ff ff 	mov    %ax,-0x16c(%rbp)
    afdc:	64 48 8b 04 25 28 00 	mov    %fs:0x28,%rax
    afe3:	00 00 
    afe5:	48 89 45 f8          	mov    %rax,-0x8(%rbp)
    afe9:	31 c0                	xor    %eax,%eax
    afeb:	48 8d 05 f6 a4 00 00 	lea    0xa4f6(%rip),%rax        # 154e8 <g_140+0x48>
    aff2:	48 89 85 e0 fe ff ff 	mov    %rax,-0x120(%rbp)
    aff9:	48 8d 85 e0 fe ff ff 	lea    -0x120(%rbp),%rax
    b000:	48 89 85 00 ff ff ff 	mov    %rax,-0x100(%rbp)
    b007:	48 8d 05 b2 a4 00 00 	lea    0xa4b2(%rip),%rax        # 154c0 <g_140+0x20>
    b00e:	48 89 45 a0          	mov    %rax,-0x60(%rbp)
    b012:	48 8d 05 8f a4 00 00 	lea    0xa48f(%rip),%rax        # 154a8 <g_140+0x8>
    b019:	48 89 45 a8          	mov    %rax,-0x58(%rbp)
    b01d:	48 8d 05 84 a4 00 00 	lea    0xa484(%rip),%rax        # 154a8 <g_140+0x8>
    b024:	48 89 45 b0          	mov    %rax,-0x50(%rbp)
    b028:	48 8d 05 91 a4 00 00 	lea    0xa491(%rip),%rax        # 154c0 <g_140+0x20>
    b02f:	48 89 45 b8          	mov    %rax,-0x48(%rbp)
    b033:	48 8d 05 6e a4 00 00 	lea    0xa46e(%rip),%rax        # 154a8 <g_140+0x8>
    b03a:	48 89 45 c0          	mov    %rax,-0x40(%rbp)
    b03e:	48 8d 05 7b a4 00 00 	lea    0xa47b(%rip),%rax        # 154c0 <g_140+0x20>
    b045:	48 89 45 c8          	mov    %rax,-0x38(%rbp)
    b049:	48 8d 05 58 a4 00 00 	lea    0xa458(%rip),%rax        # 154a8 <g_140+0x8>
    b050:	48 89 45 d0          	mov    %rax,-0x30(%rbp)
    b054:	48 8d 05 4d a4 00 00 	lea    0xa44d(%rip),%rax        # 154a8 <g_140+0x8>
    b05b:	48 89 45 d8          	mov    %rax,-0x28(%rbp)
    b05f:	48 8d 05 5a a4 00 00 	lea    0xa45a(%rip),%rax        # 154c0 <g_140+0x20>
    b066:	48 89 45 e0          	mov    %rax,-0x20(%rbp)
    b06a:	48 8d 05 37 a4 00 00 	lea    0xa437(%rip),%rax        # 154a8 <g_140+0x8>
    b071:	48 89 45 e8          	mov    %rax,-0x18(%rbp)
    b075:	48 8d 45 a0          	lea    -0x60(%rbp),%rax
    b079:	48 83 c0 38          	add    $0x38,%rax
    b07d:	48 89 85 08 ff ff ff 	mov    %rax,-0xf8(%rbp)
    b084:	48 c7 85 e8 fe ff ff 	movq   $0x0,-0x118(%rbp)
    b08b:	00 00 00 00 
    b08f:	48 8d 85 e8 fe ff ff 	lea    -0x118(%rbp),%rax
    b096:	48 89 85 10 ff ff ff 	mov    %rax,-0xf0(%rbp)
    b09d:	c7 85 bc fe ff ff 08 	movl   $0x8,-0x144(%rbp)
    b0a4:	00 00 00 
    b0a7:	c7 85 c0 fe ff ff 00 	movl   $0x0,-0x140(%rbp)
    b0ae:	00 00 00 
    b0b1:	c7 85 c4 fe ff ff 03 	movl   $0x3,-0x13c(%rbp)
    b0b8:	00 00 00 
    b0bb:	c7 85 c8 fe ff ff ff 	movl   $0xffffffff,-0x138(%rbp)
    b0c2:	ff ff ff 
    b0c5:	c7 85 cc fe ff ff cb 	movl   $0x46af94cb,-0x134(%rbp)
    b0cc:	94 af 46 
    b0cf:	c7 85 d0 fe ff ff 52 	movl   $0xf0f05f52,-0x130(%rbp)
    b0d6:	5f f0 f0 
    b0d9:	48 8d 05 78 91 00 00 	lea    0x9178(%rip),%rax        # 14258 <g_279>
    b0e0:	48 89 85 f0 fe ff ff 	mov    %rax,-0x110(%rbp)
    b0e7:	48 8d 05 78 91 00 00 	lea    0x9178(%rip),%rax        # 14266 <g_317>
    b0ee:	48 89 85 18 ff ff ff 	mov    %rax,-0xe8(%rbp)
    b0f5:	66 c7 85 ae fe ff ff 	movw   $0x2,-0x152(%rbp)
    b0fc:	02 00 
    b0fe:	c7 85 d4 fe ff ff 2c 	movl   $0x2f67ed2c,-0x12c(%rbp)
    b105:	ed 67 2f 
    b108:	c7 85 d8 fe ff ff 01 	movl   $0x1,-0x128(%rbp)
    b10f:	00 00 00 
    b112:	c7 85 dc fe ff ff f9 	movl   $0xfffffff9,-0x124(%rbp)
    b119:	ff ff ff 
    b11c:	66 c7 85 b0 fe ff ff 	movw   $0x9,-0x150(%rbp)
    b123:	09 00 
    b125:	66 c7 85 b2 fe ff ff 	movw   $0xffff,-0x14e(%rbp)
    b12c:	ff ff 
    b12e:	48 c7 85 f8 fe ff ff 	movq   $0x0,-0x108(%rbp)
    b135:	00 00 00 00 
    b139:	48 8d 85 f8 fe ff ff 	lea    -0x108(%rbp),%rax
    b140:	48 89 85 20 ff ff ff 	mov    %rax,-0xe0(%rbp)
    b147:	66 c7 85 b4 fe ff ff 	movw   $0x0,-0x14c(%rbp)
    b14e:	00 00 
    b150:	c7 85 40 ff ff ff ec 	movl   $0x6892feec,-0xc0(%rbp)
    b157:	fe 92 68 
    b15a:	c7 85 44 ff ff ff ec 	movl   $0x6892feec,-0xbc(%rbp)
    b161:	fe 92 68 
    b164:	c7 85 48 ff ff ff ec 	movl   $0x6892feec,-0xb8(%rbp)
    b16b:	fe 92 68 
    b16e:	c7 85 4c ff ff ff ec 	movl   $0x6892feec,-0xb4(%rbp)
    b175:	fe 92 68 
    b178:	c7 85 50 ff ff ff ec 	movl   $0x6892feec,-0xb0(%rbp)
    b17f:	fe 92 68 
    b182:	66 c7 85 b6 fe ff ff 	movw   $0x93dc,-0x14a(%rbp)
    b189:	dc 93 
    b18b:	48 8d 05 d6 a6 00 00 	lea    0xa6d6(%rip),%rax        # 15868 <g_809>
    b192:	48 89 85 28 ff ff ff 	mov    %rax,-0xd8(%rbp)
    b199:	48 c7 85 60 ff ff ff 	movq   $0x0,-0xa0(%rbp)
    b1a0:	00 00 00 00 
    b1a4:	48 c7 85 68 ff ff ff 	movq   $0x0,-0x98(%rbp)
    b1ab:	00 00 00 00 
    b1af:	48 c7 85 70 ff ff ff 	movq   $0x0,-0x90(%rbp)
    b1b6:	00 00 00 00 
    b1ba:	48 c7 85 78 ff ff ff 	movq   $0x0,-0x88(%rbp)
    b1c1:	00 00 00 00 
    b1c5:	48 c7 45 80 00 00 00 	movq   $0x0,-0x80(%rbp)
    b1cc:	00 
    b1cd:	48 c7 45 88 00 00 00 	movq   $0x0,-0x78(%rbp)
    b1d4:	00 
    b1d5:	48 c7 45 90 00 00 00 	movq   $0x0,-0x70(%rbp)
    b1dc:	00 
    b1dd:	c7 85 b8 fe ff ff 00 	movl   $0x0,-0x148(%rbp)
    b1e4:	00 00 00 
    b1e7:	eb 1e                	jmp    b207 <func_4+0x258>
    b1e9:	8b 85 b8 fe ff ff    	mov    -0x148(%rbp),%eax
    b1ef:	48 98                	cltq   
    b1f1:	48 8d 95 f0 fe ff ff 	lea    -0x110(%rbp),%rdx
    b1f8:	48 89 94 c5 30 ff ff 	mov    %rdx,-0xd0(%rbp,%rax,8)
    b1ff:	ff 
    b200:	83 85 b8 fe ff ff 01 	addl   $0x1,-0x148(%rbp)
    b207:	83 bd b8 fe ff ff 01 	cmpl   $0x1,-0x148(%rbp)
    b20e:	7e d9                	jle    b1e9 <func_4+0x23a>
    b210:	8b 85 d0 fe ff ff    	mov    -0x130(%rbp),%eax
    b216:	48 8b 4d f8          	mov    -0x8(%rbp),%rcx
    b21a:	64 48 33 0c 25 28 00 	xor    %fs:0x28,%rcx
    b221:	00 00 
    b223:	74 05                	je     b22a <func_4+0x27b>
    b225:	e8 46 ce ff ff       	callq  8070 <__stack_chk_fail@plt>
    b22a:	c9                   	leaveq 
    b22b:	c3                   	retq   

000000000000b22c <func_17>:
    b22c:	f3 0f 1e fa          	endbr64 
    b230:	55                   	push   %rbp
    b231:	48 89 e5             	mov    %rsp,%rbp
    b234:	89 7d fc             	mov    %edi,-0x4(%rbp)
    b237:	89 f0                	mov    %esi,%eax
    b239:	66 89 45 f8          	mov    %ax,-0x8(%rbp)
    b23d:	0f b7 05 f0 8d 00 00 	movzwl 0x8df0(%rip),%eax        # 14034 <g_98>
    b244:	0f b7 c0             	movzwl %ax,%eax
    b247:	5d                   	pop    %rbp
    b248:	c3                   	retq   

000000000000b249 <func_23>:
    b249:	f3 0f 1e fa          	endbr64 
    b24d:	55                   	push   %rbp
    b24e:	48 89 e5             	mov    %rsp,%rbp
    b251:	48 81 ec a0 00 00 00 	sub    $0xa0,%rsp
    b258:	89 f8                	mov    %edi,%eax
    b25a:	48 89 8d 68 ff ff ff 	mov    %rcx,-0x98(%rbp)
    b261:	66 89 85 7c ff ff ff 	mov    %ax,-0x84(%rbp)
    b268:	89 f0                	mov    %esi,%eax
    b26a:	88 85 78 ff ff ff    	mov    %al,-0x88(%rbp)
    b270:	89 d0                	mov    %edx,%eax
    b272:	88 85 74 ff ff ff    	mov    %al,-0x8c(%rbp)
    b278:	64 48 8b 04 25 28 00 	mov    %fs:0x28,%rax
    b27f:	00 00 
    b281:	48 89 45 f8          	mov    %rax,-0x8(%rbp)
    b285:	31 c0                	xor    %eax,%eax
    b287:	48 8d 05 d2 8f 00 00 	lea    0x8fd2(%rip),%rax        # 14260 <g_291>
    b28e:	48 89 45 98          	mov    %rax,-0x68(%rbp)
    b292:	48 8d 05 c7 8f 00 00 	lea    0x8fc7(%rip),%rax        # 14260 <g_291>
    b299:	48 89 45 a0          	mov    %rax,-0x60(%rbp)
    b29d:	48 8d 45 a0          	lea    -0x60(%rbp),%rax
    b2a1:	48 89 45 b0          	mov    %rax,-0x50(%rbp)
    b2a5:	c7 45 88 fe ff ff ff 	movl   $0xfffffffe,-0x78(%rbp)
    b2ac:	c7 45 8c b4 33 4c 25 	movl   $0x254c33b4,-0x74(%rbp)
    b2b3:	c7 45 90 8e 9a 9b d6 	movl   $0xd69b9a8e,-0x70(%rbp)
    b2ba:	c7 45 84 00 00 00 00 	movl   $0x0,-0x7c(%rbp)
    b2c1:	eb 11                	jmp    b2d4 <func_23+0x8b>
    b2c3:	8b 45 84             	mov    -0x7c(%rbp),%eax
    b2c6:	48 98                	cltq   
    b2c8:	c7 44 85 d4 47 13 88 	movl   $0x10881347,-0x2c(%rbp,%rax,4)
    b2cf:	10 
    b2d0:	83 45 84 01          	addl   $0x1,-0x7c(%rbp)
    b2d4:	83 7d 84 02          	cmpl   $0x2,-0x7c(%rbp)
    b2d8:	7e e9                	jle    b2c3 <func_23+0x7a>
    b2da:	c7 45 84 00 00 00 00 	movl   $0x0,-0x7c(%rbp)
    b2e1:	eb 11                	jmp    b2f4 <func_23+0xab>
    b2e3:	8b 45 84             	mov    -0x7c(%rbp),%eax
    b2e6:	48 98                	cltq   
    b2e8:	c7 44 85 e0 d5 18 2d 	movl   $0x9f2d18d5,-0x20(%rbp,%rax,4)
    b2ef:	9f 
    b2f0:	83 45 84 01          	addl   $0x1,-0x7c(%rbp)
    b2f4:	83 7d 84 04          	cmpl   $0x4,-0x7c(%rbp)
    b2f8:	7e e9                	jle    b2e3 <func_23+0x9a>
    b2fa:	8b 45 88             	mov    -0x78(%rbp),%eax
    b2fd:	83 e0 fc             	and    $0xfffffffc,%eax
    b300:	89 c2                	mov    %eax,%edx
    b302:	48 8b 45 b0          	mov    -0x50(%rbp),%rax
    b306:	48 c7 00 00 00 00 00 	movq   $0x0,(%rax)
    b30d:	48 8b 45 b0          	mov    -0x50(%rbp),%rax
    b311:	48 8b 08             	mov    (%rax),%rcx
    b314:	48 8b 45 98          	mov    -0x68(%rbp),%rax
    b318:	48 39 c1             	cmp    %rax,%rcx
    b31b:	0f 94 c0             	sete   %al
    b31e:	0f b6 c0             	movzbl %al,%eax
    b321:	89 d6                	mov    %edx,%esi
    b323:	89 c7                	mov    %eax,%edi
    b325:	e8 db d8 ff ff       	callq  8c05 <safe_lshift_func_uint8_t_u_s>
    b32a:	0f b6 c0             	movzbl %al,%eax
    b32d:	89 45 88             	mov    %eax,-0x78(%rbp)
    b330:	8b 15 22 8d 00 00    	mov    0x8d22(%rip),%edx        # 14058 <g_210>
    b336:	8b 45 8c             	mov    -0x74(%rbp),%eax
    b339:	39 c2                	cmp    %eax,%edx
    b33b:	0f 95 c0             	setne  %al
    b33e:	0f b6 c0             	movzbl %al,%eax
    b341:	39 45 88             	cmp    %eax,-0x78(%rbp)
    b344:	0f 95 c0             	setne  %al
    b347:	0f b6 c0             	movzbl %al,%eax
    b34a:	89 45 8c             	mov    %eax,-0x74(%rbp)
    b34d:	8b 45 8c             	mov    -0x74(%rbp),%eax
    b350:	89 45 90             	mov    %eax,-0x70(%rbp)
    b353:	83 7d 90 00          	cmpl   $0x0,-0x70(%rbp)
    b357:	74 33                	je     b38c <func_23+0x143>
    b359:	48 8b 05 68 8d 00 00 	mov    0x8d68(%rip),%rax        # 140c8 <g_266+0x68>
    b360:	48 c1 e0 17          	shl    $0x17,%rax
    b364:	48 c1 f8 3a          	sar    $0x3a,%rax
    b368:	0f be d0             	movsbl %al,%edx
    b36b:	8b 45 8c             	mov    -0x74(%rbp),%eax
    b36e:	89 d6                	mov    %edx,%esi
    b370:	89 c7                	mov    %eax,%edi
    b372:	e8 88 d3 ff ff       	callq  86ff <safe_div_func_int32_t_s_s>
    b377:	83 f8 07             	cmp    $0x7,%eax
    b37a:	0f 94 c0             	sete   %al
    b37d:	0f b6 c0             	movzbl %al,%eax
    b380:	39 45 88             	cmp    %eax,-0x78(%rbp)
    b383:	74 07                	je     b38c <func_23+0x143>
    b385:	b8 01 00 00 00       	mov    $0x1,%eax
    b38a:	eb 05                	jmp    b391 <func_23+0x148>
    b38c:	b8 00 00 00 00       	mov    $0x0,%eax
    b391:	89 c7                	mov    %eax,%edi
    b393:	e8 fe d1 ff ff       	callq  8596 <safe_unary_minus_func_int32_t_s>
    b398:	ba c4 0c 40 72       	mov    $0x72400cc4,%edx
    b39d:	8b 45 d8             	mov    -0x28(%rbp),%eax
    b3a0:	21 d0                	and    %edx,%eax
    b3a2:	89 45 d8             	mov    %eax,-0x28(%rbp)
    b3a5:	48 c7 85 68 ff ff ff 	movq   $0xfffffffffffffff7,-0x98(%rbp)
    b3ac:	f7 ff ff ff 
    b3b0:	e9 f6 01 00 00       	jmpq   b5ab <func_23+0x362>
    b3b5:	c7 45 94 ff ff ff ff 	movl   $0xffffffff,-0x6c(%rbp)
    b3bc:	c7 45 80 20 c0 59 af 	movl   $0xaf59c020,-0x80(%rbp)
    b3c3:	48 8d 45 98          	lea    -0x68(%rbp),%rax
    b3c7:	48 89 45 b8          	mov    %rax,-0x48(%rbp)
    b3cb:	48 8d 05 46 c9 00 00 	lea    0xc946(%rip),%rax        # 17d18 <g_284+0x8>
    b3d2:	48 89 45 c0          	mov    %rax,-0x40(%rbp)
    b3d6:	83 7d 88 00          	cmpl   $0x0,-0x78(%rbp)
    b3da:	74 3a                	je     b416 <func_23+0x1cd>
    b3dc:	8b 45 80             	mov    -0x80(%rbp),%eax
    b3df:	23 45 94             	and    -0x6c(%rbp),%eax
    b3e2:	89 45 80             	mov    %eax,-0x80(%rbp)
    b3e5:	48 83 7d b8 00       	cmpq   $0x0,-0x48(%rbp)
    b3ea:	0f 95 c0             	setne  %al
    b3ed:	0f b6 d0             	movzbl %al,%edx
    b3f0:	8b 05 2e 8c 00 00    	mov    0x8c2e(%rip),%eax        # 14024 <g_22>
    b3f6:	0f b6 c0             	movzbl %al,%eax
    b3f9:	89 d6                	mov    %edx,%esi
    b3fb:	89 c7                	mov    %eax,%edi
    b3fd:	e8 76 d7 ff ff       	callq  8b78 <safe_sub_func_uint8_t_u_u>
    b402:	3c 06                	cmp    $0x6,%al
    b404:	0f 95 c0             	setne  %al
    b407:	0f b6 d0             	movzbl %al,%edx
    b40a:	8b 05 14 8c 00 00    	mov    0x8c14(%rip),%eax        # 14024 <g_22>
    b410:	39 c2                	cmp    %eax,%edx
    b412:	7d 19                	jge    b42d <func_23+0x1e4>
    b414:	eb 08                	jmp    b41e <func_23+0x1d5>
    b416:	8b 45 e0             	mov    -0x20(%rbp),%eax
    b419:	e9 a2 01 00 00       	jmpq   b5c0 <func_23+0x377>
    b41e:	83 7d 8c 00          	cmpl   $0x0,-0x74(%rbp)
    b422:	0f 84 58 01 00 00    	je     b580 <func_23+0x337>
    b428:	e9 8c 01 00 00       	jmpq   b5b9 <func_23+0x370>
    b42d:	48 c7 45 c8 00 00 00 	movq   $0x0,-0x38(%rbp)
    b434:	00 
    b435:	c6 85 74 ff ff ff 00 	movb   $0x0,-0x8c(%rbp)
    b43c:	e9 04 01 00 00       	jmpq   b545 <func_23+0x2fc>
    b441:	48 8d 05 dc 8b 00 00 	lea    0x8bdc(%rip),%rax        # 14024 <g_22>
    b448:	48 89 45 a8          	mov    %rax,-0x58(%rbp)
    b44c:	48 8b 45 98          	mov    -0x68(%rbp),%rax
    b450:	8b 15 16 8e 00 00    	mov    0x8e16(%rip),%edx        # 1426c <g_364>
    b456:	89 10                	mov    %edx,(%rax)
    b458:	0f b6 15 11 8e 00 00 	movzbl 0x8e11(%rip),%edx        # 14270 <g_364+0x4>
    b45f:	88 50 04             	mov    %dl,0x4(%rax)
    b462:	66 c7 05 c9 8b 00 00 	movw   $0x0,0x8bc9(%rip)        # 14034 <g_98>
    b469:	00 00 
    b46b:	e9 b5 00 00 00       	jmpq   b525 <func_23+0x2dc>
    b470:	48 c7 05 dd 8d 00 00 	movq   $0x0,0x8ddd(%rip)        # 14258 <g_279>
    b477:	00 00 00 00 
    b47b:	90                   	nop
    b47c:	48 8b 05 d5 8d 00 00 	mov    0x8dd5(%rip),%rax        # 14258 <g_279>
    b483:	48 85 c0             	test   %rax,%rax
    b486:	7f 3b                	jg     b4c3 <func_23+0x27a>
    b488:	0f b7 05 a5 8b 00 00 	movzwl 0x8ba5(%rip),%eax        # 14034 <g_98>
    b48f:	0f b7 c0             	movzwl %ax,%eax
    b492:	0f b7 15 9b 8b 00 00 	movzwl 0x8b9b(%rip),%edx        # 14034 <g_98>
    b499:	0f b7 d2             	movzwl %dx,%edx
    b49c:	48 63 d2             	movslq %edx,%rdx
    b49f:	48 98                	cltq   
    b4a1:	48 01 d0             	add    %rdx,%rax
    b4a4:	48 8d 14 c5 00 00 00 	lea    0x0(,%rax,8),%rdx
    b4ab:	00 
    b4ac:	48 8d 05 5d c8 00 00 	lea    0xc85d(%rip),%rax        # 17d10 <g_284>
    b4b3:	48 c7 04 02 00 00 00 	movq   $0x0,(%rdx,%rax,1)
    b4ba:	00 
    b4bb:	8b 45 80             	mov    -0x80(%rbp),%eax
    b4be:	e9 fd 00 00 00       	jmpq   b5c0 <func_23+0x377>
    b4c3:	83 7d 94 00          	cmpl   $0x0,-0x6c(%rbp)
    b4c7:	75 4a                	jne    b513 <func_23+0x2ca>
    b4c9:	66 c7 85 7c ff ff ff 	movw   $0x0,-0x84(%rbp)
    b4d0:	00 00 
    b4d2:	eb 1b                	jmp    b4ef <func_23+0x2a6>
    b4d4:	66 83 bd 7c ff ff ff 	cmpw   $0x0,-0x84(%rbp)
    b4db:	00 
    b4dc:	75 1d                	jne    b4fb <func_23+0x2b2>
    b4de:	0f b7 85 7c ff ff ff 	movzwl -0x84(%rbp),%eax
    b4e5:	83 c0 01             	add    $0x1,%eax
    b4e8:	66 89 85 7c ff ff ff 	mov    %ax,-0x84(%rbp)
    b4ef:	66 83 bd 7c ff ff ff 	cmpw   $0x2,-0x84(%rbp)
    b4f6:	02 
    b4f7:	7e db                	jle    b4d4 <func_23+0x28b>
    b4f9:	eb 01                	jmp    b4fc <func_23+0x2b3>
    b4fb:	90                   	nop
    b4fc:	48 8b 45 a8          	mov    -0x58(%rbp),%rax
    b500:	8b 00                	mov    (%rax),%eax
    b502:	48 8b 95 68 ff ff ff 	mov    -0x98(%rbp),%rdx
    b509:	31 c2                	xor    %eax,%edx
    b50b:	48 8b 45 a8          	mov    -0x58(%rbp),%rax
    b50f:	89 10                	mov    %edx,(%rax)
    b511:	eb 01                	jmp    b514 <func_23+0x2cb>
    b513:	90                   	nop
    b514:	0f b7 05 19 8b 00 00 	movzwl 0x8b19(%rip),%eax        # 14034 <g_98>
    b51b:	83 c0 01             	add    $0x1,%eax
    b51e:	66 89 05 0f 8b 00 00 	mov    %ax,0x8b0f(%rip)        # 14034 <g_98>
    b525:	0f b7 05 08 8b 00 00 	movzwl 0x8b08(%rip),%eax        # 14034 <g_98>
    b52c:	66 85 c0             	test   %ax,%ax
    b52f:	0f 84 3b ff ff ff    	je     b470 <func_23+0x227>
    b535:	0f b6 85 74 ff ff ff 	movzbl -0x8c(%rbp),%eax
    b53c:	83 e8 01             	sub    $0x1,%eax
    b53f:	88 85 74 ff ff ff    	mov    %al,-0x8c(%rbp)
    b545:	80 bd 74 ff ff ff 00 	cmpb   $0x0,-0x8c(%rbp)
    b54c:	0f 89 ef fe ff ff    	jns    b441 <func_23+0x1f8>
    b552:	48 8b 05 bf a2 00 00 	mov    0xa2bf(%rip),%rax        # 15818 <g_368>
    b559:	8b 08                	mov    (%rax),%ecx
    b55b:	48 83 7d c8 00       	cmpq   $0x0,-0x38(%rbp)
    b560:	0f 94 c2             	sete   %dl
    b563:	0f b6 d2             	movzbl %dl,%edx
    b566:	31 ca                	xor    %ecx,%edx
    b568:	89 10                	mov    %edx,(%rax)
    b56a:	48 8b 45 b8          	mov    -0x48(%rbp),%rax
    b56e:	48 8b 10             	mov    (%rax),%rdx
    b571:	48 8b 45 98          	mov    -0x68(%rbp),%rax
    b575:	8b 0a                	mov    (%rdx),%ecx
    b577:	89 08                	mov    %ecx,(%rax)
    b579:	0f b6 52 04          	movzbl 0x4(%rdx),%edx
    b57d:	88 50 04             	mov    %dl,0x4(%rax)
    b580:	48 8b 45 c0          	mov    -0x40(%rbp),%rax
    b584:	48 8d 55 80          	lea    -0x80(%rbp),%rdx
    b588:	48 89 10             	mov    %rdx,(%rax)
    b58b:	48 8b 85 68 ff ff ff 	mov    -0x98(%rbp),%rax
    b592:	0f b6 c0             	movzbl %al,%eax
    b595:	be 03 00 00 00       	mov    $0x3,%esi
    b59a:	89 c7                	mov    %eax,%edi
    b59c:	e8 b9 d5 ff ff       	callq  8b5a <safe_add_func_uint8_t_u_u>
    b5a1:	0f b6 c0             	movzbl %al,%eax
    b5a4:	48 89 85 68 ff ff ff 	mov    %rax,-0x98(%rbp)
    b5ab:	48 83 bd 68 ff ff ff 	cmpq   $0x8,-0x98(%rbp)
    b5b2:	08 
    b5b3:	0f 84 fc fd ff ff    	je     b3b5 <func_23+0x16c>
    b5b9:	0f b6 85 78 ff ff ff 	movzbl -0x88(%rbp),%eax
    b5c0:	48 8b 7d f8          	mov    -0x8(%rbp),%rdi
    b5c4:	64 48 33 3c 25 28 00 	xor    %fs:0x28,%rdi
    b5cb:	00 00 
    b5cd:	74 05                	je     b5d4 <func_23+0x38b>
    b5cf:	e8 9c ca ff ff       	callq  8070 <__stack_chk_fail@plt>
    b5d4:	c9                   	leaveq 
    b5d5:	c3                   	retq   

000000000000b5d6 <func_30>:
    b5d6:	f3 0f 1e fa          	endbr64 
    b5da:	55                   	push   %rbp
    b5db:	48 89 e5             	mov    %rsp,%rbp
    b5de:	53                   	push   %rbx
    b5df:	48 81 ec 88 00 00 00 	sub    $0x88,%rsp
    b5e6:	89 f8                	mov    %edi,%eax
    b5e8:	48 89 75 80          	mov    %rsi,-0x80(%rbp)
    b5ec:	89 55 88             	mov    %edx,-0x78(%rbp)
    b5ef:	48 89 8d 78 ff ff ff 	mov    %rcx,-0x88(%rbp)
    b5f6:	88 45 8c             	mov    %al,-0x74(%rbp)
    b5f9:	64 48 8b 04 25 28 00 	mov    %fs:0x28,%rax
    b600:	00 00 
    b602:	48 89 45 e8          	mov    %rax,-0x18(%rbp)
    b606:	31 c0                	xor    %eax,%eax
    b608:	48 8d 05 59 8c 00 00 	lea    0x8c59(%rip),%rax        # 14268 <g_333>
    b60f:	48 89 45 98          	mov    %rax,-0x68(%rbp)
    b613:	c7 45 90 00 00 00 00 	movl   $0x0,-0x70(%rbp)
    b61a:	48 c7 45 a0 00 00 00 	movq   $0x0,-0x60(%rbp)
    b621:	00 
    b622:	48 8d 05 3d 8c 00 00 	lea    0x8c3d(%rip),%rax        # 14266 <g_317>
    b629:	48 89 45 a8          	mov    %rax,-0x58(%rbp)
    b62d:	48 8d 05 36 8c 00 00 	lea    0x8c36(%rip),%rax        # 1426a <g_339>
    b634:	48 89 45 c0          	mov    %rax,-0x40(%rbp)
    b638:	48 8d 05 2b 8c 00 00 	lea    0x8c2b(%rip),%rax        # 1426a <g_339>
    b63f:	48 89 45 c8          	mov    %rax,-0x38(%rbp)
    b643:	48 8d 05 20 8c 00 00 	lea    0x8c20(%rip),%rax        # 1426a <g_339>
    b64a:	48 89 45 d0          	mov    %rax,-0x30(%rbp)
    b64e:	48 8d 05 15 8c 00 00 	lea    0x8c15(%rip),%rax        # 1426a <g_339>
    b655:	48 89 45 d8          	mov    %rax,-0x28(%rbp)
    b659:	48 8d 05 0a 8c 00 00 	lea    0x8c0a(%rip),%rax        # 1426a <g_339>
    b660:	48 89 45 e0          	mov    %rax,-0x20(%rbp)
    b664:	c7 45 94 00 00 00 00 	movl   $0x0,-0x6c(%rbp)
    b66b:	eb 18                	jmp    b685 <func_30+0xaf>
    b66d:	8b 45 94             	mov    -0x6c(%rbp),%eax
    b670:	48 98                	cltq   
    b672:	48 bb 05 1d ee 86 71 	movabs $0xcfe9697186ee1d05,%rbx
    b679:	69 e9 cf 
    b67c:	48 89 5c c5 b0       	mov    %rbx,-0x50(%rbp,%rax,8)
    b681:	83 45 94 01          	addl   $0x1,-0x6c(%rbp)
    b685:	83 7d 94 01          	cmpl   $0x1,-0x6c(%rbp)
    b689:	7e e2                	jle    b66d <func_30+0x97>
    b68b:	48 8b 45 80          	mov    -0x80(%rbp),%rax
    b68f:	89 c3                	mov    %eax,%ebx
    b691:	48 8b 45 98          	mov    -0x68(%rbp),%rax
    b695:	0f b6 00             	movzbl (%rax),%eax
    b698:	89 c2                	mov    %eax,%edx
    b69a:	48 8b 85 78 ff ff ff 	mov    -0x88(%rbp),%rax
    b6a1:	31 d0                	xor    %edx,%eax
    b6a3:	89 c2                	mov    %eax,%edx
    b6a5:	48 8b 45 98          	mov    -0x68(%rbp),%rax
    b6a9:	88 10                	mov    %dl,(%rax)
    b6ab:	be 06 00 00 00       	mov    $0x6,%esi
    b6b0:	bf 01 00 00 00       	mov    $0x1,%edi
    b6b5:	e8 4b d5 ff ff       	callq  8c05 <safe_lshift_func_uint8_t_u_s>
    b6ba:	0f b6 d0             	movzbl %al,%edx
    b6bd:	0f b6 4d 8c          	movzbl -0x74(%rbp),%ecx
    b6c1:	8b 45 90             	mov    -0x70(%rbp),%eax
    b6c4:	39 c1                	cmp    %eax,%ecx
    b6c6:	0f 94 c0             	sete   %al
    b6c9:	0f b6 c0             	movzbl %al,%eax
    b6cc:	39 c2                	cmp    %eax,%edx
    b6ce:	0f 9d c0             	setge  %al
    b6d1:	0f b6 d0             	movzbl %al,%edx
    b6d4:	48 c7 05 79 8b 00 00 	movq   $0xffffffffffffffff,0x8b79(%rip)        # 14258 <g_279>
    b6db:	ff ff ff ff 
    b6df:	48 8b 05 72 8b 00 00 	mov    0x8b72(%rip),%rax        # 14258 <g_279>
    b6e6:	48 89 d6             	mov    %rdx,%rsi
    b6e9:	48 89 c7             	mov    %rax,%rdi
    b6ec:	e8 50 d1 ff ff       	callq  8841 <safe_add_func_int64_t_s_s>
    b6f1:	89 c2                	mov    %eax,%edx
    b6f3:	48 8b 45 a8          	mov    -0x58(%rbp),%rax
    b6f7:	66 89 10             	mov    %dx,(%rax)
    b6fa:	48 8b 05 2f 9e 00 00 	mov    0x9e2f(%rip),%rax        # 15530 <g_188>
    b701:	c7 45 90 01 00 00 00 	movl   $0x1,-0x70(%rbp)
    b708:	8b 45 90             	mov    -0x70(%rbp),%eax
    b70b:	98                   	cwtl   
    b70c:	89 de                	mov    %ebx,%esi
    b70e:	89 c7                	mov    %eax,%edi
    b710:	e8 7d cd ff ff       	callq  8492 <safe_lshift_func_int16_t_s_s>
    b715:	66 85 c0             	test   %ax,%ax
    b718:	75 0a                	jne    b724 <func_30+0x14e>
    b71a:	8b 05 20 89 00 00    	mov    0x8920(%rip),%eax        # 14040 <g_154>
    b720:	85 c0                	test   %eax,%eax
    b722:	74 07                	je     b72b <func_30+0x155>
    b724:	ba 01 00 00 00       	mov    $0x1,%edx
    b729:	eb 05                	jmp    b730 <func_30+0x15a>
    b72b:	ba 00 00 00 00       	mov    $0x0,%edx
    b730:	0f b6 45 8c          	movzbl -0x74(%rbp),%eax
    b734:	31 d0                	xor    %edx,%eax
    b736:	48 63 d0             	movslq %eax,%rdx
    b739:	48 8b 45 80          	mov    -0x80(%rbp),%rax
    b73d:	48 39 c2             	cmp    %rax,%rdx
    b740:	48 8b 05 39 a0 00 00 	mov    0xa039(%rip),%rax        # 15780 <g_341>
    b747:	48 8d 55 90          	lea    -0x70(%rbp),%rdx
    b74b:	48 89 10             	mov    %rdx,(%rax)
    b74e:	0f b7 05 15 8b 00 00 	movzwl 0x8b15(%rip),%eax        # 1426a <g_339>
    b755:	48 8b 4d e8          	mov    -0x18(%rbp),%rcx
    b759:	64 48 33 0c 25 28 00 	xor    %fs:0x28,%rcx
    b760:	00 00 
    b762:	74 05                	je     b769 <func_30+0x193>
    b764:	e8 07 c9 ff ff       	callq  8070 <__stack_chk_fail@plt>
    b769:	48 81 c4 88 00 00 00 	add    $0x88,%rsp
    b770:	5b                   	pop    %rbx
    b771:	5d                   	pop    %rbp
    b772:	c3                   	retq   

000000000000b773 <func_40>:
    b773:	f3 0f 1e fa          	endbr64 
    b777:	55                   	push   %rbp
    b778:	48 89 e5             	mov    %rsp,%rbp
    b77b:	41 55                	push   %r13
    b77d:	41 54                	push   %r12
    b77f:	53                   	push   %rbx
    b780:	48 81 ec d8 01 00 00 	sub    $0x1d8,%rsp
    b787:	89 bd 2c fe ff ff    	mov    %edi,-0x1d4(%rbp)
    b78d:	89 f0                	mov    %esi,%eax
    b78f:	48 89 95 20 fe ff ff 	mov    %rdx,-0x1e0(%rbp)
    b796:	89 8d 1c fe ff ff    	mov    %ecx,-0x1e4(%rbp)
    b79c:	66 89 85 28 fe ff ff 	mov    %ax,-0x1d8(%rbp)
    b7a3:	64 48 8b 04 25 28 00 	mov    %fs:0x28,%rax
    b7aa:	00 00 
    b7ac:	48 89 45 d8          	mov    %rax,-0x28(%rbp)
    b7b0:	31 c0                	xor    %eax,%eax
    b7b2:	48 8d 05 6f 88 00 00 	lea    0x886f(%rip),%rax        # 14028 <g_50>
    b7b9:	48 89 85 70 fe ff ff 	mov    %rax,-0x190(%rbp)
    b7c0:	48 8d 05 91 8a 00 00 	lea    0x8a91(%rip),%rax        # 14258 <g_279>
    b7c7:	48 89 85 58 fe ff ff 	mov    %rax,-0x1a8(%rbp)
    b7ce:	c7 85 40 fe ff ff 51 	movl   $0xea9d6c51,-0x1c0(%rbp)
    b7d5:	6c 9d ea 
    b7d8:	c7 85 3c fe ff ff 00 	movl   $0x0,-0x1c4(%rbp)
    b7df:	00 00 00 
    b7e2:	48 8d 05 60 88 00 00 	lea    0x8860(%rip),%rax        # 14049 <g_174>
    b7e9:	48 89 85 78 fe ff ff 	mov    %rax,-0x188(%rbp)
    b7f0:	48 8d 85 a0 fe ff ff 	lea    -0x160(%rbp),%rax
    b7f7:	48 89 85 80 fe ff ff 	mov    %rax,-0x180(%rbp)
    b7fe:	c7 85 50 fe ff ff 24 	movl   $0xfa9e0024,-0x1b0(%rbp)
    b805:	00 9e fa 
    b808:	66 c7 85 38 fe ff ff 	movw   $0x0,-0x1c8(%rbp)
    b80f:	00 00 
    b811:	c7 85 e0 fe ff ff f2 	movl   $0x77458cf2,-0x120(%rbp)
    b818:	8c 45 77 
    b81b:	c7 85 e4 fe ff ff 02 	movl   $0x2,-0x11c(%rbp)
    b822:	00 00 00 
    b825:	c7 85 e8 fe ff ff 67 	movl   $0x56557367,-0x118(%rbp)
    b82c:	73 55 56 
    b82f:	c7 85 ec fe ff ff 00 	movl   $0x0,-0x114(%rbp)
    b836:	00 00 00 
    b839:	c7 85 f0 fe ff ff 0f 	movl   $0xd6e8670f,-0x110(%rbp)
    b840:	67 e8 d6 
    b843:	c7 85 f4 fe ff ff 0f 	movl   $0xd6e8670f,-0x10c(%rbp)
    b84a:	67 e8 d6 
    b84d:	c7 85 f8 fe ff ff f2 	movl   $0x77458cf2,-0x108(%rbp)
    b854:	8c 45 77 
    b857:	c7 85 fc fe ff ff 02 	movl   $0x2,-0x104(%rbp)
    b85e:	00 00 00 
    b861:	c7 85 00 ff ff ff 67 	movl   $0x56557367,-0x100(%rbp)
    b868:	73 55 56 
    b86b:	c7 85 04 ff ff ff 00 	movl   $0x0,-0xfc(%rbp)
    b872:	00 00 00 
    b875:	c7 85 08 ff ff ff 0f 	movl   $0xd6e8670f,-0xf8(%rbp)
    b87c:	67 e8 d6 
    b87f:	c7 85 0c ff ff ff 0f 	movl   $0xd6e8670f,-0xf4(%rbp)
    b886:	67 e8 d6 
    b889:	c7 85 10 ff ff ff f2 	movl   $0x77458cf2,-0xf0(%rbp)
    b890:	8c 45 77 
    b893:	c7 85 14 ff ff ff 02 	movl   $0x2,-0xec(%rbp)
    b89a:	00 00 00 
    b89d:	c7 85 18 ff ff ff 67 	movl   $0x56557367,-0xe8(%rbp)
    b8a4:	73 55 56 
    b8a7:	c7 85 1c ff ff ff 00 	movl   $0x0,-0xe4(%rbp)
    b8ae:	00 00 00 
    b8b1:	c7 85 20 ff ff ff 0f 	movl   $0xd6e8670f,-0xe0(%rbp)
    b8b8:	67 e8 d6 
    b8bb:	c7 85 24 ff ff ff 0f 	movl   $0xd6e8670f,-0xdc(%rbp)
    b8c2:	67 e8 d6 
    b8c5:	c7 85 28 ff ff ff f2 	movl   $0x77458cf2,-0xd8(%rbp)
    b8cc:	8c 45 77 
    b8cf:	c7 85 2c ff ff ff 02 	movl   $0x2,-0xd4(%rbp)
    b8d6:	00 00 00 
    b8d9:	c7 85 30 ff ff ff 67 	movl   $0x56557367,-0xd0(%rbp)
    b8e0:	73 55 56 
    b8e3:	c7 85 34 ff ff ff 00 	movl   $0x0,-0xcc(%rbp)
    b8ea:	00 00 00 
    b8ed:	c7 85 38 ff ff ff 0f 	movl   $0xd6e8670f,-0xc8(%rbp)
    b8f4:	67 e8 d6 
    b8f7:	c7 85 3c ff ff ff 0f 	movl   $0xd6e8670f,-0xc4(%rbp)
    b8fe:	67 e8 d6 
    b901:	c7 85 40 ff ff ff f2 	movl   $0x77458cf2,-0xc0(%rbp)
    b908:	8c 45 77 
    b90b:	c7 85 44 ff ff ff 02 	movl   $0x2,-0xbc(%rbp)
    b912:	00 00 00 
    b915:	c7 85 48 ff ff ff 67 	movl   $0x56557367,-0xb8(%rbp)
    b91c:	73 55 56 
    b91f:	c7 85 4c ff ff ff 00 	movl   $0x0,-0xb4(%rbp)
    b926:	00 00 00 
    b929:	c7 85 50 ff ff ff 0f 	movl   $0xd6e8670f,-0xb0(%rbp)
    b930:	67 e8 d6 
    b933:	c7 85 54 ff ff ff 0f 	movl   $0xd6e8670f,-0xac(%rbp)
    b93a:	67 e8 d6 
    b93d:	c7 85 58 ff ff ff f2 	movl   $0x77458cf2,-0xa8(%rbp)
    b944:	8c 45 77 
    b947:	c7 85 5c ff ff ff 02 	movl   $0x2,-0xa4(%rbp)
    b94e:	00 00 00 
    b951:	c7 85 60 ff ff ff 67 	movl   $0x56557367,-0xa0(%rbp)
    b958:	73 55 56 
    b95b:	c7 85 64 ff ff ff 00 	movl   $0x0,-0x9c(%rbp)
    b962:	00 00 00 
    b965:	c7 85 68 ff ff ff 0f 	movl   $0xd6e8670f,-0x98(%rbp)
    b96c:	67 e8 d6 
    b96f:	c7 85 6c ff ff ff 0f 	movl   $0xd6e8670f,-0x94(%rbp)
    b976:	67 e8 d6 
    b979:	c7 85 70 ff ff ff f2 	movl   $0x77458cf2,-0x90(%rbp)
    b980:	8c 45 77 
    b983:	c7 85 74 ff ff ff 02 	movl   $0x2,-0x8c(%rbp)
    b98a:	00 00 00 
    b98d:	c7 85 78 ff ff ff 67 	movl   $0x56557367,-0x88(%rbp)
    b994:	73 55 56 
    b997:	c7 85 7c ff ff ff 00 	movl   $0x0,-0x84(%rbp)
    b99e:	00 00 00 
    b9a1:	c7 45 80 0f 67 e8 d6 	movl   $0xd6e8670f,-0x80(%rbp)
    b9a8:	c7 45 84 0f 67 e8 d6 	movl   $0xd6e8670f,-0x7c(%rbp)
    b9af:	c7 45 88 f2 8c 45 77 	movl   $0x77458cf2,-0x78(%rbp)
    b9b6:	c7 45 8c 02 00 00 00 	movl   $0x2,-0x74(%rbp)
    b9bd:	c7 45 90 67 73 55 56 	movl   $0x56557367,-0x70(%rbp)
    b9c4:	c7 45 94 00 00 00 00 	movl   $0x0,-0x6c(%rbp)
    b9cb:	c7 45 98 0f 67 e8 d6 	movl   $0xd6e8670f,-0x68(%rbp)
    b9d2:	c7 45 9c 0f 67 e8 d6 	movl   $0xd6e8670f,-0x64(%rbp)
    b9d9:	c7 45 a0 f2 8c 45 77 	movl   $0x77458cf2,-0x60(%rbp)
    b9e0:	c7 45 a4 02 00 00 00 	movl   $0x2,-0x5c(%rbp)
    b9e7:	c7 45 a8 67 73 55 56 	movl   $0x56557367,-0x58(%rbp)
    b9ee:	c7 45 ac 00 00 00 00 	movl   $0x0,-0x54(%rbp)
    b9f5:	c7 45 b0 0f 67 e8 d6 	movl   $0xd6e8670f,-0x50(%rbp)
    b9fc:	c7 45 b4 0f 67 e8 d6 	movl   $0xd6e8670f,-0x4c(%rbp)
    ba03:	c7 45 b8 f2 8c 45 77 	movl   $0x77458cf2,-0x48(%rbp)
    ba0a:	c7 45 bc 02 00 00 00 	movl   $0x2,-0x44(%rbp)
    ba11:	c7 45 c0 67 73 55 56 	movl   $0x56557367,-0x40(%rbp)
    ba18:	c7 45 c4 00 00 00 00 	movl   $0x0,-0x3c(%rbp)
    ba1f:	c7 45 c8 0f 67 e8 d6 	movl   $0xd6e8670f,-0x38(%rbp)
    ba26:	c7 45 cc 0f 67 e8 d6 	movl   $0xd6e8670f,-0x34(%rbp)
    ba2d:	c7 85 44 fe ff ff 00 	movl   $0x0,-0x1bc(%rbp)
    ba34:	00 00 00 
    ba37:	eb 1e                	jmp    ba57 <func_40+0x2e4>
    ba39:	8b 85 44 fe ff ff    	mov    -0x1bc(%rbp),%eax
    ba3f:	48 98                	cltq   
    ba41:	48 8d 15 18 88 00 00 	lea    0x8818(%rip),%rdx        # 14260 <g_291>
    ba48:	48 89 94 c5 a0 fe ff 	mov    %rdx,-0x160(%rbp,%rax,8)
    ba4f:	ff 
    ba50:	83 85 44 fe ff ff 01 	addl   $0x1,-0x1bc(%rbp)
    ba57:	83 bd 44 fe ff ff 00 	cmpl   $0x0,-0x1bc(%rbp)
    ba5e:	7e d9                	jle    ba39 <func_40+0x2c6>
    ba60:	c7 85 44 fe ff ff 00 	movl   $0x0,-0x1bc(%rbp)
    ba67:	00 00 00 
    ba6a:	eb 1e                	jmp    ba8a <func_40+0x317>
    ba6c:	8b 85 44 fe ff ff    	mov    -0x1bc(%rbp),%eax
    ba72:	48 98                	cltq   
    ba74:	48 8d 15 eb 87 00 00 	lea    0x87eb(%rip),%rdx        # 14266 <g_317>
    ba7b:	48 89 94 c5 a8 fe ff 	mov    %rdx,-0x158(%rbp,%rax,8)
    ba82:	ff 
    ba83:	83 85 44 fe ff ff 01 	addl   $0x1,-0x1bc(%rbp)
    ba8a:	83 bd 44 fe ff ff 00 	cmpl   $0x0,-0x1bc(%rbp)
    ba91:	7e d9                	jle    ba6c <func_40+0x2f9>
    ba93:	48 c7 85 20 fe ff ff 	movq   $0x18,-0x1e0(%rbp)
    ba9a:	18 00 00 00 
    ba9e:	e9 a8 01 00 00       	jmpq   bc4b <func_40+0x4d8>
    baa3:	66 c7 85 3a fe ff ff 	movw   $0x7,-0x1c6(%rbp)
    baaa:	07 00 
    baac:	48 8d 85 58 fe ff ff 	lea    -0x1a8(%rbp),%rax
    bab3:	48 89 85 90 fe ff ff 	mov    %rax,-0x170(%rbp)
    baba:	48 8d 05 9f 87 00 00 	lea    0x879f(%rip),%rax        # 14260 <g_291>
    bac1:	48 89 85 98 fe ff ff 	mov    %rax,-0x168(%rbp)
    bac8:	c7 85 48 fe ff ff 00 	movl   $0x0,-0x1b8(%rbp)
    bacf:	00 00 00 
    bad2:	eb 42                	jmp    bb16 <func_40+0x3a3>
    bad4:	c7 85 4c fe ff ff 00 	movl   $0x0,-0x1b4(%rbp)
    badb:	00 00 00 
    bade:	eb 26                	jmp    bb06 <func_40+0x393>
    bae0:	8b 85 4c fe ff ff    	mov    -0x1b4(%rbp),%eax
    bae6:	48 63 d0             	movslq %eax,%rdx
    bae9:	8b 85 48 fe ff ff    	mov    -0x1b8(%rbp),%eax
    baef:	48 98                	cltq   
    baf1:	48 01 d0             	add    %rdx,%rax
    baf4:	c7 84 85 b0 fe ff ff 	movl   $0xfffffffe,-0x150(%rbp,%rax,4)
    bafb:	fe ff ff ff 
    baff:	83 85 4c fe ff ff 01 	addl   $0x1,-0x1b4(%rbp)
    bb06:	83 bd 4c fe ff ff 00 	cmpl   $0x0,-0x1b4(%rbp)
    bb0d:	7e d1                	jle    bae0 <func_40+0x36d>
    bb0f:	83 85 48 fe ff ff 01 	addl   $0x1,-0x1b8(%rbp)
    bb16:	83 bd 48 fe ff ff 08 	cmpl   $0x8,-0x1b8(%rbp)
    bb1d:	7e b5                	jle    bad4 <func_40+0x361>
    bb1f:	48 8b 85 20 fe ff ff 	mov    -0x1e0(%rbp),%rax
    bb26:	41 89 c4             	mov    %eax,%r12d
    bb29:	48 8b 85 20 fe ff ff 	mov    -0x1e0(%rbp),%rax
    bb30:	41 89 c5             	mov    %eax,%r13d
    bb33:	8b 05 eb 84 00 00    	mov    0x84eb(%rip),%eax        # 14024 <g_22>
    bb39:	98                   	cwtl   
    bb3a:	89 c7                	mov    %eax,%edi
    bb3c:	e8 49 04 00 00       	callq  bf8a <func_69>
    bb41:	89 c1                	mov    %eax,%ecx
    bb43:	8b 85 2c fe ff ff    	mov    -0x1d4(%rbp),%eax
    bb49:	0f b7 d0             	movzwl %ax,%edx
    bb4c:	0f b7 85 3a fe ff ff 	movzwl -0x1c6(%rbp),%eax
    bb53:	0f b7 c0             	movzwl %ax,%eax
    bb56:	48 8b b5 70 fe ff ff 	mov    -0x190(%rbp),%rsi
    bb5d:	89 c7                	mov    %eax,%edi
    bb5f:	e8 9b 03 00 00       	callq  beff <func_62>
    bb64:	48 89 c3             	mov    %rax,%rbx
    bb67:	b8 00 00 00 00       	mov    $0x0,%eax
    bb6c:	89 c1                	mov    %eax,%ecx
    bb6e:	8b 85 1c fe ff ff    	mov    -0x1e4(%rbp),%eax
    bb74:	0f b7 d0             	movzwl %ax,%edx
    bb77:	48 8b b5 58 fe ff ff 	mov    -0x1a8(%rbp),%rsi
    bb7e:	0f b7 85 28 fe ff ff 	movzwl -0x1d8(%rbp),%eax
    bb85:	0f b7 c0             	movzwl %ax,%eax
    bb88:	89 c7                	mov    %eax,%edi
    bb8a:	e8 70 03 00 00       	callq  beff <func_62>
    bb8f:	48 8b 95 90 fe ff ff 	mov    -0x170(%rbp),%rdx
    bb96:	48 89 02             	mov    %rax,(%rdx)
    bb99:	48 8b 85 90 fe ff ff 	mov    -0x170(%rbp),%rax
    bba0:	48 8b 00             	mov    (%rax),%rax
    bba3:	48 39 c3             	cmp    %rax,%rbx
    bba6:	0f 94 c0             	sete   %al
    bba9:	0f b6 c0             	movzbl %al,%eax
    bbac:	39 85 40 fe ff ff    	cmp    %eax,-0x1c0(%rbp)
    bbb2:	0f 9e c0             	setle  %al
    bbb5:	0f b6 c0             	movzbl %al,%eax
    bbb8:	be 90 ff ff ff       	mov    $0xffffff90,%esi
    bbbd:	89 c7                	mov    %eax,%edi
    bbbf:	e8 10 c6 ff ff       	callq  81d4 <safe_add_func_int8_t_s_s>
    bbc4:	0f be c0             	movsbl %al,%eax
    bbc7:	44 89 ee             	mov    %r13d,%esi
    bbca:	89 c7                	mov    %eax,%edi
    bbcc:	e8 96 02 00 00       	callq  be67 <func_57>
    bbd1:	8b 15 69 84 00 00    	mov    0x8469(%rip),%edx        # 14040 <g_154>
    bbd7:	89 d2                	mov    %edx,%edx
    bbd9:	48 39 d0             	cmp    %rdx,%rax
    bbdc:	0f 9e c0             	setle  %al
    bbdf:	0f b6 c0             	movzbl %al,%eax
    bbe2:	89 85 40 fe ff ff    	mov    %eax,-0x1c0(%rbp)
    bbe8:	8b 85 40 fe ff ff    	mov    -0x1c0(%rbp),%eax
    bbee:	89 85 3c fe ff ff    	mov    %eax,-0x1c4(%rbp)
    bbf4:	8b 85 3c fe ff ff    	mov    -0x1c4(%rbp),%eax
    bbfa:	35 9c d8 09 af       	xor    $0xaf09d89c,%eax
    bbff:	44 89 e6             	mov    %r12d,%esi
    bc02:	89 c7                	mov    %eax,%edi
    bc04:	e8 1c d3 ff ff       	callq  8f25 <safe_div_func_uint32_t_u_u>
    bc09:	8b 95 d0 fe ff ff    	mov    -0x130(%rbp),%edx
    bc0f:	31 d0                	xor    %edx,%eax
    bc11:	89 85 d0 fe ff ff    	mov    %eax,-0x130(%rbp)
    bc17:	48 8b 85 98 fe ff ff 	mov    -0x168(%rbp),%rax
    bc1e:	8b 15 3c 86 00 00    	mov    0x863c(%rip),%edx        # 14260 <g_291>
    bc24:	89 10                	mov    %edx,(%rax)
    bc26:	0f b6 15 37 86 00 00 	movzbl 0x8637(%rip),%edx        # 14264 <g_291+0x4>
    bc2d:	88 50 04             	mov    %dl,0x4(%rax)
    bc30:	48 8b 85 20 fe ff ff 	mov    -0x1e0(%rbp),%rax
    bc37:	be 07 00 00 00       	mov    $0x7,%esi
    bc3c:	48 89 c7             	mov    %rax,%rdi
    bc3f:	e8 07 d4 ff ff       	callq  904b <safe_sub_func_uint64_t_u_u>
    bc44:	48 89 85 20 fe ff ff 	mov    %rax,-0x1e0(%rbp)
    bc4b:	48 83 bd 20 fe ff ff 	cmpq   $0xa,-0x1e0(%rbp)
    bc52:	0a 
    bc53:	0f 85 4a fe ff ff    	jne    baa3 <func_40+0x330>
    bc59:	0f b7 85 28 fe ff ff 	movzwl -0x1d8(%rbp),%eax
    bc60:	0f be d8             	movsbl %al,%ebx
    bc63:	48 8b 05 be 83 00 00 	mov    0x83be(%rip),%rax        # 14028 <g_50>
    bc6a:	0f be c0             	movsbl %al,%eax
    bc6d:	89 c7                	mov    %eax,%edi
    bc6f:	e8 4b c5 ff ff       	callq  81bf <safe_unary_minus_func_int8_t_s>
    bc74:	44 0f b7 a5 38 fe ff 	movzwl -0x1c8(%rbp),%r12d
    bc7b:	ff 
    bc7c:	8b 85 50 fe ff ff    	mov    -0x1b0(%rbp),%eax
    bc82:	4c 63 e8             	movslq %eax,%r13
    bc85:	48 8b 95 a0 fe ff ff 	mov    -0x160(%rbp),%rdx
    bc8c:	48 8b 85 80 fe ff ff 	mov    -0x180(%rbp),%rax
    bc93:	48 89 10             	mov    %rdx,(%rax)
    bc96:	48 8b 85 80 fe ff ff 	mov    -0x180(%rbp),%rax
    bc9d:	48 8b 00             	mov    (%rax),%rax
    bca0:	48 85 c0             	test   %rax,%rax
    bca3:	0f 95 c0             	setne  %al
    bca6:	0f b6 c0             	movzbl %al,%eax
    bca9:	89 c6                	mov    %eax,%esi
    bcab:	bf 00 00 00 00       	mov    $0x0,%edi
    bcb0:	e8 1f c5 ff ff       	callq  81d4 <safe_add_func_int8_t_s_s>
    bcb5:	0f bf 85 28 fe ff ff 	movswl -0x1d8(%rbp),%eax
    bcbc:	23 85 40 fe ff ff    	and    -0x1c0(%rbp),%eax
    bcc2:	48 98                	cltq   
    bcc4:	4c 89 ee             	mov    %r13,%rsi
    bcc7:	48 89 c7             	mov    %rax,%rdi
    bcca:	e8 28 cd ff ff       	callq  89f7 <safe_div_func_int64_t_s_s>
    bccf:	be f9 ff ff ff       	mov    $0xfffffff9,%esi
    bcd4:	bf 01 00 00 00       	mov    $0x1,%edi
    bcd9:	e8 d5 c6 ff ff       	callq  83b3 <safe_add_func_int16_t_s_s>
    bcde:	98                   	cwtl   
    bcdf:	39 85 40 fe ff ff    	cmp    %eax,-0x1c0(%rbp)
    bce5:	7d 08                	jge    bcef <func_40+0x57c>
    bce7:	66 83 bd 28 fe ff ff 	cmpw   $0x0,-0x1d8(%rbp)
    bcee:	00 
    bcef:	8b 85 2c fe ff ff    	mov    -0x1d4(%rbp),%eax
    bcf5:	89 c2                	mov    %eax,%edx
    bcf7:	0f b7 85 28 fe ff ff 	movzwl -0x1d8(%rbp),%eax
    bcfe:	31 d0                	xor    %edx,%eax
    bd00:	0f b7 c0             	movzwl %ax,%eax
    bd03:	8b 95 50 fe ff ff    	mov    -0x1b0(%rbp),%edx
    bd09:	48 8b b5 70 fe ff ff 	mov    -0x190(%rbp),%rsi
    bd10:	89 d1                	mov    %edx,%ecx
    bd12:	44 89 e2             	mov    %r12d,%edx
    bd15:	89 c7                	mov    %eax,%edi
    bd17:	e8 e3 01 00 00       	callq  beff <func_62>
    bd1c:	48 8b 95 58 fe ff ff 	mov    -0x1a8(%rbp),%rdx
    bd23:	48 39 d0             	cmp    %rdx,%rax
    bd26:	0f 94 c0             	sete   %al
    bd29:	0f b6 c0             	movzbl %al,%eax
    bd2c:	89 de                	mov    %ebx,%esi
    bd2e:	89 c7                	mov    %eax,%edi
    bd30:	e8 bd c4 ff ff       	callq  81f2 <safe_sub_func_int8_t_s_s>
    bd35:	0f be c0             	movsbl %al,%eax
    bd38:	89 85 40 fe ff ff    	mov    %eax,-0x1c0(%rbp)
    bd3e:	8b 85 40 fe ff ff    	mov    -0x1c0(%rbp),%eax
    bd44:	98                   	cwtl   
    bd45:	be 61 2a 00 00       	mov    $0x2a61,%esi
    bd4a:	89 c7                	mov    %eax,%edi
    bd4c:	e8 a4 c6 ff ff       	callq  83f5 <safe_mul_func_int16_t_s_s>
    bd51:	66 85 c0             	test   %ax,%ax
    bd54:	75 08                	jne    bd5e <func_40+0x5eb>
    bd56:	8b 05 d4 82 00 00    	mov    0x82d4(%rip),%eax        # 14030 <g_92>
    bd5c:	85 c0                	test   %eax,%eax
    bd5e:	8b 85 40 fe ff ff    	mov    -0x1c0(%rbp),%eax
    bd64:	3b 85 50 fe ff ff    	cmp    -0x1b0(%rbp),%eax
    bd6a:	0f 94 c0             	sete   %al
    bd6d:	0f b6 d0             	movzbl %al,%edx
    bd70:	8b 85 3c fe ff ff    	mov    -0x1c4(%rbp),%eax
    bd76:	39 c2                	cmp    %eax,%edx
    bd78:	0f 9c c0             	setl   %al
    bd7b:	0f b6 c0             	movzbl %al,%eax
    bd7e:	89 85 3c fe ff ff    	mov    %eax,-0x1c4(%rbp)
    bd84:	8b 85 3c fe ff ff    	mov    -0x1c4(%rbp),%eax
    bd8a:	0b 85 1c fe ff ff    	or     -0x1e4(%rbp),%eax
    bd90:	48 98                	cltq   
    bd92:	48 89 c6             	mov    %rax,%rsi
    bd95:	bf 00 00 00 00       	mov    $0x0,%edi
    bd9a:	e8 15 cc ff ff       	callq  89b4 <safe_mod_func_int64_t_s_s>
    bd9f:	0f b6 d0             	movzbl %al,%edx
    bda2:	48 8b 85 78 fe ff ff 	mov    -0x188(%rbp),%rax
    bda9:	0f b6 00             	movzbl (%rax),%eax
    bdac:	8d 48 ff             	lea    -0x1(%rax),%ecx
    bdaf:	48 8b 85 78 fe ff ff 	mov    -0x188(%rbp),%rax
    bdb6:	88 08                	mov    %cl,(%rax)
    bdb8:	48 8b 85 78 fe ff ff 	mov    -0x188(%rbp),%rax
    bdbf:	0f b6 00             	movzbl (%rax),%eax
    bdc2:	0f b6 c0             	movzbl %al,%eax
    bdc5:	89 d6                	mov    %edx,%esi
    bdc7:	89 c7                	mov    %eax,%edi
    bdc9:	e8 0d ce ff ff       	callq  8bdb <safe_div_func_uint8_t_u_u>
    bdce:	8b 55 c4             	mov    -0x3c(%rbp),%edx
    bdd1:	0f b6 c0             	movzbl %al,%eax
    bdd4:	09 d0                	or     %edx,%eax
    bdd6:	89 45 c4             	mov    %eax,-0x3c(%rbp)
    bdd9:	48 c7 05 54 82 00 00 	movq   $0x0,0x8254(%rip)        # 14038 <g_112>
    bde0:	00 00 00 00 
    bde4:	90                   	nop
    bde5:	48 8b 05 4c 82 00 00 	mov    0x824c(%rip),%rax        # 14038 <g_112>
    bdec:	48 83 f8 2d          	cmp    $0x2d,%rax
    bdf0:	76 4d                	jbe    be3f <func_40+0x6cc>
    bdf2:	48 8d 05 f7 be 00 00 	lea    0xbef7(%rip),%rax        # 17cf0 <g_233>
    bdf9:	48 89 85 60 fe ff ff 	mov    %rax,-0x1a0(%rbp)
    be00:	48 8d 85 60 fe ff ff 	lea    -0x1a0(%rbp),%rax
    be07:	48 89 85 68 fe ff ff 	mov    %rax,-0x198(%rbp)
    be0e:	48 8d 85 68 fe ff ff 	lea    -0x198(%rbp),%rax
    be15:	48 89 85 88 fe ff ff 	mov    %rax,-0x178(%rbp)
    be1c:	c7 85 54 fe ff ff fa 	movl   $0xfffffffa,-0x1ac(%rbp)
    be23:	ff ff ff 
    be26:	48 8b 95 68 fe ff ff 	mov    -0x198(%rbp),%rdx
    be2d:	48 8b 85 88 fe ff ff 	mov    -0x178(%rbp),%rax
    be34:	48 89 10             	mov    %rdx,(%rax)
    be37:	8b 85 54 fe ff ff    	mov    -0x1ac(%rbp),%eax
    be3d:	eb 06                	jmp    be45 <func_40+0x6d2>
    be3f:	8b 05 df 81 00 00    	mov    0x81df(%rip),%eax        # 14024 <g_22>
    be45:	48 8b 5d d8          	mov    -0x28(%rbp),%rbx
    be49:	64 48 33 1c 25 28 00 	xor    %fs:0x28,%rbx
    be50:	00 00 
    be52:	74 05                	je     be59 <func_40+0x6e6>
    be54:	e8 17 c2 ff ff       	callq  8070 <__stack_chk_fail@plt>
    be59:	48 81 c4 d8 01 00 00 	add    $0x1d8,%rsp
    be60:	5b                   	pop    %rbx
    be61:	41 5c                	pop    %r12
    be63:	41 5d                	pop    %r13
    be65:	5d                   	pop    %rbp
    be66:	c3                   	retq   

000000000000be67 <func_57>:
    be67:	f3 0f 1e fa          	endbr64 
    be6b:	55                   	push   %rbp
    be6c:	48 89 e5             	mov    %rsp,%rbp
    be6f:	48 83 ec 18          	sub    $0x18,%rsp
    be73:	89 7d ec             	mov    %edi,-0x14(%rbp)
    be76:	89 75 e8             	mov    %esi,-0x18(%rbp)
    be79:	48 8b 05 10 97 00 00 	mov    0x9710(%rip),%rax        # 15590 <g_283>
    be80:	48 8d 55 ec          	lea    -0x14(%rbp),%rdx
    be84:	48 89 10             	mov    %rdx,(%rax)
    be87:	48 c7 05 96 81 00 00 	movq   $0x1c,0x8196(%rip)        # 14028 <g_50>
    be8e:	1c 00 00 00 
    be92:	eb 59                	jmp    beed <func_57+0x86>
    be94:	c7 45 f4 00 00 00 00 	movl   $0x0,-0xc(%rbp)
    be9b:	48 c7 45 f8 00 00 00 	movq   $0x0,-0x8(%rbp)
    bea2:	00 
    bea3:	48 8b 05 1e 82 00 00 	mov    0x821e(%rip),%rax        # 140c8 <g_266+0x68>
    beaa:	48 c1 e0 17          	shl    $0x17,%rax
    beae:	48 c1 f8 3a          	sar    $0x3a,%rax
    beb2:	0f be d0             	movsbl %al,%edx
    beb5:	8b 45 ec             	mov    -0x14(%rbp),%eax
    beb8:	09 d0                	or     %edx,%eax
    beba:	83 f0 01             	xor    $0x1,%eax
    bebd:	48 98                	cltq   
    bebf:	89 c2                	mov    %eax,%edx
    bec1:	8b 45 f4             	mov    -0xc(%rbp),%eax
    bec4:	31 d0                	xor    %edx,%eax
    bec6:	89 45 f4             	mov    %eax,-0xc(%rbp)
    bec9:	48 8d 45 ec          	lea    -0x14(%rbp),%rax
    becd:	48 89 45 f8          	mov    %rax,-0x8(%rbp)
    bed1:	48 8b 05 50 81 00 00 	mov    0x8150(%rip),%rax        # 14028 <g_50>
    bed8:	be 03 00 00 00       	mov    $0x3,%esi
    bedd:	89 c7                	mov    %eax,%edi
    bedf:	e8 ec cf ff ff       	callq  8ed0 <safe_sub_func_uint32_t_u_u>
    bee4:	89 c0                	mov    %eax,%eax
    bee6:	48 89 05 3b 81 00 00 	mov    %rax,0x813b(%rip)        # 14028 <g_50>
    beed:	48 8b 05 34 81 00 00 	mov    0x8134(%rip),%rax        # 14028 <g_50>
    bef4:	48 83 f8 05          	cmp    $0x5,%rax
    bef8:	7e 9a                	jle    be94 <func_57+0x2d>
    befa:	8b 45 e8             	mov    -0x18(%rbp),%eax
    befd:	c9                   	leaveq 
    befe:	c3                   	retq   

000000000000beff <func_62>:
    beff:	f3 0f 1e fa          	endbr64 
    bf03:	55                   	push   %rbp
    bf04:	48 89 e5             	mov    %rsp,%rbp
    bf07:	48 83 ec 70          	sub    $0x70,%rsp
    bf0b:	48 89 75 a0          	mov    %rsi,-0x60(%rbp)
    bf0f:	89 d0                	mov    %edx,%eax
    bf11:	89 4d 9c             	mov    %ecx,-0x64(%rbp)
    bf14:	89 fa                	mov    %edi,%edx
    bf16:	66 89 55 ac          	mov    %dx,-0x54(%rbp)
    bf1a:	66 89 45 a8          	mov    %ax,-0x58(%rbp)
    bf1e:	64 48 8b 04 25 28 00 	mov    %fs:0x28,%rax
    bf25:	00 00 
    bf27:	48 89 45 f8          	mov    %rax,-0x8(%rbp)
    bf2b:	31 c0                	xor    %eax,%eax
    bf2d:	c7 45 b8 00 00 00 00 	movl   $0x0,-0x48(%rbp)
    bf34:	eb 34                	jmp    bf6a <func_62+0x6b>
    bf36:	c7 45 bc 00 00 00 00 	movl   $0x0,-0x44(%rbp)
    bf3d:	eb 21                	jmp    bf60 <func_62+0x61>
    bf3f:	8b 45 bc             	mov    -0x44(%rbp),%eax
    bf42:	48 98                	cltq   
    bf44:	8b 55 b8             	mov    -0x48(%rbp),%edx
    bf47:	48 63 d2             	movslq %edx,%rdx
    bf4a:	48 01 d2             	add    %rdx,%rdx
    bf4d:	48 01 d0             	add    %rdx,%rax
    bf50:	48 8d 15 d1 80 00 00 	lea    0x80d1(%rip),%rdx        # 14028 <g_50>
    bf57:	48 89 54 c5 c0       	mov    %rdx,-0x40(%rbp,%rax,8)
    bf5c:	83 45 bc 01          	addl   $0x1,-0x44(%rbp)
    bf60:	83 7d bc 01          	cmpl   $0x1,-0x44(%rbp)
    bf64:	7e d9                	jle    bf3f <func_62+0x40>
    bf66:	83 45 b8 01          	addl   $0x1,-0x48(%rbp)
    bf6a:	83 7d b8 02          	cmpl   $0x2,-0x48(%rbp)
    bf6e:	7e c6                	jle    bf36 <func_62+0x37>
    bf70:	48 8b 45 d0          	mov    -0x30(%rbp),%rax
    bf74:	48 8b 4d f8          	mov    -0x8(%rbp),%rcx
    bf78:	64 48 33 0c 25 28 00 	xor    %fs:0x28,%rcx
    bf7f:	00 00 
    bf81:	74 05                	je     bf88 <func_62+0x89>
    bf83:	e8 e8 c0 ff ff       	callq  8070 <__stack_chk_fail@plt>
    bf88:	c9                   	leaveq 
    bf89:	c3                   	retq   

000000000000bf8a <func_69>:
    bf8a:	f3 0f 1e fa          	endbr64 
    bf8e:	55                   	push   %rbp
    bf8f:	48 89 e5             	mov    %rsp,%rbp
    bf92:	41 55                	push   %r13
    bf94:	41 54                	push   %r12
    bf96:	53                   	push   %rbx
    bf97:	48 81 ec 28 0e 00 00 	sub    $0xe28,%rsp
    bf9e:	89 f8                	mov    %edi,%eax
    bfa0:	66 89 85 cc f1 ff ff 	mov    %ax,-0xe34(%rbp)
    bfa7:	64 48 8b 04 25 28 00 	mov    %fs:0x28,%rax
    bfae:	00 00 
    bfb0:	48 89 45 d8          	mov    %rax,-0x28(%rbp)
    bfb4:	31 c0                	xor    %eax,%eax
    bfb6:	c6 85 d8 f1 ff ff d8 	movb   $0xd8,-0xe28(%rbp)
    bfbd:	c7 85 e0 f1 ff ff c6 	movl   $0x95fb43c6,-0xe20(%rbp)
    bfc4:	43 fb 95 
    bfc7:	48 8d 05 66 80 00 00 	lea    0x8066(%rip),%rax        # 14034 <g_98>
    bfce:	48 89 85 48 f2 ff ff 	mov    %rax,-0xdb8(%rbp)
    bfd5:	48 8d 85 b0 f4 ff ff 	lea    -0xb50(%rbp),%rax
    bfdc:	48 8d 15 bd 40 00 00 	lea    0x40bd(%rip),%rdx        # 100a0 <g_1837+0xc>
    bfe3:	b9 2a 00 00 00       	mov    $0x2a,%ecx
    bfe8:	48 89 c7             	mov    %rax,%rdi
    bfeb:	48 89 d6             	mov    %rdx,%rsi
    bfee:	f3 48 a5             	rep movsq %ds:(%rsi),%es:(%rdi)
    bff1:	48 8d 05 40 80 00 00 	lea    0x8040(%rip),%rax        # 14038 <g_112>
    bff8:	48 89 85 50 f2 ff ff 	mov    %rax,-0xdb0(%rbp)
    bfff:	48 c7 85 18 f2 ff ff 	movq   $0x0,-0xde8(%rbp)
    c006:	00 00 00 00 
    c00a:	48 8d 85 18 f2 ff ff 	lea    -0xde8(%rbp),%rax
    c011:	48 89 85 58 f2 ff ff 	mov    %rax,-0xda8(%rbp)
    c018:	48 8d 85 e0 f1 ff ff 	lea    -0xe20(%rbp),%rax
    c01f:	48 89 85 20 f2 ff ff 	mov    %rax,-0xde0(%rbp)
    c026:	48 8d 85 20 f2 ff ff 	lea    -0xde0(%rbp),%rax
    c02d:	48 89 85 28 f2 ff ff 	mov    %rax,-0xdd8(%rbp)
    c034:	48 8d 85 28 f2 ff ff 	lea    -0xdd8(%rbp),%rax
    c03b:	48 89 85 60 f2 ff ff 	mov    %rax,-0xda0(%rbp)
    c042:	48 8d 05 db 7f 00 00 	lea    0x7fdb(%rip),%rax        # 14024 <g_22>
    c049:	48 89 85 68 f2 ff ff 	mov    %rax,-0xd98(%rbp)
    c050:	48 c7 85 70 f2 ff ff 	movq   $0xffffffffffffffff,-0xd90(%rbp)
    c057:	ff ff ff ff 
    c05b:	48 c7 05 c2 7f 00 00 	movq   $0x0,0x7fc2(%rip)        # 14028 <g_50>
    c062:	00 00 00 00 
    c066:	e9 20 0e 00 00       	jmpq   ce8b <func_69+0xf01>
    c06b:	48 8d 05 b6 7f 00 00 	lea    0x7fb6(%rip),%rax        # 14028 <g_50>
    c072:	48 89 85 88 f2 ff ff 	mov    %rax,-0xd78(%rbp)
    c079:	48 8d 85 00 f6 ff ff 	lea    -0xa00(%rbp),%rax
    c080:	48 8d 15 79 41 00 00 	lea    0x4179(%rip),%rdx        # 10200 <g_1837+0x16c>
    c087:	b9 50 00 00 00       	mov    $0x50,%ecx
    c08c:	48 89 c7             	mov    %rax,%rdi
    c08f:	48 89 d6             	mov    %rdx,%rsi
    c092:	f3 48 a5             	rep movsq %ds:(%rsi),%es:(%rdi)
    c095:	c7 85 f4 f1 ff ff 00 	movl   $0x0,-0xe0c(%rbp)
    c09c:	00 00 00 
    c09f:	c7 85 fc f1 ff ff 01 	movl   $0x1,-0xe04(%rbp)
    c0a6:	00 00 00 
    c0a9:	48 8d 05 9a 7f 00 00 	lea    0x7f9a(%rip),%rax        # 1404a <g_185>
    c0b0:	48 89 85 90 f2 ff ff 	mov    %rax,-0xd70(%rbp)
    c0b7:	48 8d 05 e2 93 00 00 	lea    0x93e2(%rip),%rax        # 154a0 <g_140>
    c0be:	48 89 85 98 f2 ff ff 	mov    %rax,-0xd68(%rbp)
    c0c5:	48 c7 85 a0 f2 ff ff 	movq   $0x0,-0xd60(%rbp)
    c0cc:	00 00 00 00 
    c0d0:	48 8d 85 28 f2 ff ff 	lea    -0xdd8(%rbp),%rax
    c0d7:	48 89 85 a8 f2 ff ff 	mov    %rax,-0xd58(%rbp)
    c0de:	c7 05 3c 7f 00 00 00 	movl   $0x0,0x7f3c(%rip)        # 14024 <g_22>
    c0e5:	00 00 00 
    c0e8:	e9 e6 0c 00 00       	jmpq   cdd3 <func_69+0xe49>
    c0ed:	c7 85 00 f2 ff ff 01 	movl   $0x1,-0xe00(%rbp)
    c0f4:	00 00 00 
    c0f7:	48 8d 05 36 7f 00 00 	lea    0x7f36(%rip),%rax        # 14034 <g_98>
    c0fe:	48 89 85 b0 f2 ff ff 	mov    %rax,-0xd50(%rbp)
    c105:	48 8d 85 10 fc ff ff 	lea    -0x3f0(%rbp),%rax
    c10c:	48 8d 15 6d 43 00 00 	lea    0x436d(%rip),%rdx        # 10480 <g_1837+0x3ec>
    c113:	b9 78 00 00 00       	mov    $0x78,%ecx
    c118:	48 89 c7             	mov    %rax,%rdi
    c11b:	48 89 d6             	mov    %rdx,%rsi
    c11e:	f3 48 a5             	rep movsq %ds:(%rsi),%es:(%rdi)
    c121:	48 8d 05 22 7f 00 00 	lea    0x7f22(%rip),%rax        # 1404a <g_185>
    c128:	48 89 85 b8 f2 ff ff 	mov    %rax,-0xd48(%rbp)
    c12f:	c7 85 04 f2 ff ff fe 	movl   $0xfffffffe,-0xdfc(%rbp)
    c136:	ff ff ff 
    c139:	8b 05 89 bb 00 00    	mov    0xbb89(%rip),%eax        # 17cc8 <g_75>
    c13f:	0d 68 fd ed b2       	or     $0xb2edfd68,%eax
    c144:	89 05 7e bb 00 00    	mov    %eax,0xbb7e(%rip)        # 17cc8 <g_75>
    c14a:	0f b6 85 d8 f1 ff ff 	movzbl -0xe28(%rbp),%eax
    c151:	48 0f be c0          	movsbq %al,%rax
    c155:	48 89 c7             	mov    %rax,%rdi
    c158:	e8 b9 c6 ff ff       	callq  8816 <safe_unary_minus_func_int64_t_s>
    c15d:	48 3d ff 00 00 00    	cmp    $0xff,%rax
    c163:	8b 05 5f bb 00 00    	mov    0xbb5f(%rip),%eax        # 17cc8 <g_75>
    c169:	89 c7                	mov    %eax,%edi
    c16b:	e8 12 0e 00 00       	callq  cf82 <func_82>
    c170:	0f bf d0             	movswl %ax,%edx
    c173:	8b 05 4f bb 00 00    	mov    0xbb4f(%rip),%eax        # 17cc8 <g_75>
    c179:	98                   	cwtl   
    c17a:	89 d6                	mov    %edx,%esi
    c17c:	89 c7                	mov    %eax,%edi
    c17e:	e8 30 c2 ff ff       	callq  83b3 <safe_add_func_int16_t_s_s>
    c183:	0f b6 c0             	movzbl %al,%eax
    c186:	be 07 00 00 00       	mov    $0x7,%esi
    c18b:	89 c7                	mov    %eax,%edi
    c18d:	e8 73 ca ff ff       	callq  8c05 <safe_lshift_func_uint8_t_u_s>
    c192:	8b 05 8c 7e 00 00    	mov    0x7e8c(%rip),%eax        # 14024 <g_22>
    c198:	89 85 e0 f1 ff ff    	mov    %eax,-0xe20(%rbp)
    c19e:	8b 85 00 f2 ff ff    	mov    -0xe00(%rbp),%eax
    c1a4:	89 05 86 7e 00 00    	mov    %eax,0x7e86(%rip)        # 14030 <g_92>
    c1aa:	8b 85 a8 f6 ff ff    	mov    -0x958(%rbp),%eax
    c1b0:	0f b6 d0             	movzbl %al,%edx
    c1b3:	48 8d 05 6e 7e 00 00 	lea    0x7e6e(%rip),%rax        # 14028 <g_50>
    c1ba:	48 39 85 88 f2 ff ff 	cmp    %rax,-0xd78(%rbp)
    c1c1:	0f 94 c0             	sete   %al
    c1c4:	0f b6 c0             	movzbl %al,%eax
    c1c7:	89 d6                	mov    %edx,%esi
    c1c9:	89 c7                	mov    %eax,%edi
    c1cb:	e8 c3 c9 ff ff       	callq  8b93 <safe_mul_func_uint8_t_u_u>
    c1d0:	83 bd 00 f2 ff ff 00 	cmpl   $0x0,-0xe00(%rbp)
    c1d7:	0f 94 c0             	sete   %al
    c1da:	0f b6 d0             	movzbl %al,%edx
    c1dd:	48 8b 85 b0 f2 ff ff 	mov    -0xd50(%rbp),%rax
    c1e4:	0f b7 00             	movzwl (%rax),%eax
    c1e7:	89 c1                	mov    %eax,%ecx
    c1e9:	89 d0                	mov    %edx,%eax
    c1eb:	31 c8                	xor    %ecx,%eax
    c1ed:	89 c2                	mov    %eax,%edx
    c1ef:	48 8b 85 b0 f2 ff ff 	mov    -0xd50(%rbp),%rax
    c1f6:	66 89 10             	mov    %dx,(%rax)
    c1f9:	48 8b 85 b0 f2 ff ff 	mov    -0xd50(%rbp),%rax
    c200:	0f b7 00             	movzwl (%rax),%eax
    c203:	0f b7 c0             	movzwl %ax,%eax
    c206:	be 0a 00 00 00       	mov    $0xa,%esi
    c20b:	89 c7                	mov    %eax,%edi
    c20d:	e8 68 cc ff ff       	callq  8e7a <safe_rshift_func_uint16_t_u_u>
    c212:	48 8b 05 0f 7e 00 00 	mov    0x7e0f(%rip),%rax        # 14028 <g_50>
    c219:	48 85 c0             	test   %rax,%rax
    c21c:	74 10                	je     c22e <func_69+0x2a4>
    c21e:	b8 00 00 00 00       	mov    $0x0,%eax
    c223:	85 c0                	test   %eax,%eax
    c225:	74 07                	je     c22e <func_69+0x2a4>
    c227:	ba 01 00 00 00       	mov    $0x1,%edx
    c22c:	eb 05                	jmp    c233 <func_69+0x2a9>
    c22e:	ba 00 00 00 00       	mov    $0x0,%edx
    c233:	0f b6 85 d8 f1 ff ff 	movzbl -0xe28(%rbp),%eax
    c23a:	0f be c0             	movsbl %al,%eax
    c23d:	39 c2                	cmp    %eax,%edx
    c23f:	66 c7 85 da f1 ff ff 	movw   $0x1,-0xe26(%rbp)
    c246:	01 00 
    c248:	c7 85 08 f2 ff ff fe 	movl   $0xfffffffe,-0xdf8(%rbp)
    c24f:	ff ff ff 
    c252:	48 8d 85 40 f3 ff ff 	lea    -0xcc0(%rbp),%rax
    c259:	48 83 c0 08          	add    $0x8,%rax
    c25d:	48 89 85 c0 f2 ff ff 	mov    %rax,-0xd40(%rbp)
    c264:	48 8d 05 dd 7d 00 00 	lea    0x7ddd(%rip),%rax        # 14048 <g_170>
    c26b:	48 89 85 c8 f2 ff ff 	mov    %rax,-0xd38(%rbp)
    c272:	48 8d 05 d0 7d 00 00 	lea    0x7dd0(%rip),%rax        # 14049 <g_174>
    c279:	48 89 85 d0 f2 ff ff 	mov    %rax,-0xd30(%rbp)
    c280:	48 8d 05 b1 7d 00 00 	lea    0x7db1(%rip),%rax        # 14038 <g_112>
    c287:	48 89 85 30 f2 ff ff 	mov    %rax,-0xdd0(%rbp)
    c28e:	c7 85 e4 f1 ff ff 00 	movl   $0x0,-0xe1c(%rbp)
    c295:	00 00 00 
    c298:	eb 1e                	jmp    c2b8 <func_69+0x32e>
    c29a:	8b 85 e4 f1 ff ff    	mov    -0xe1c(%rbp),%eax
    c2a0:	48 98                	cltq   
    c2a2:	48 8d 15 7b 7d 00 00 	lea    0x7d7b(%rip),%rdx        # 14024 <g_22>
    c2a9:	48 89 94 c5 40 f3 ff 	mov    %rdx,-0xcc0(%rbp,%rax,8)
    c2b0:	ff 
    c2b1:	83 85 e4 f1 ff ff 01 	addl   $0x1,-0xe1c(%rbp)
    c2b8:	83 bd e4 f1 ff ff 01 	cmpl   $0x1,-0xe1c(%rbp)
    c2bf:	7e d9                	jle    c29a <func_69+0x310>
    c2c1:	c7 85 e4 f1 ff ff 00 	movl   $0x0,-0xe1c(%rbp)
    c2c8:	00 00 00 
    c2cb:	eb 1e                	jmp    c2eb <func_69+0x361>
    c2cd:	8b 85 e4 f1 ff ff    	mov    -0xe1c(%rbp),%eax
    c2d3:	48 98                	cltq   
    c2d5:	48 8d 95 30 f2 ff ff 	lea    -0xdd0(%rbp),%rdx
    c2dc:	48 89 94 c5 70 f3 ff 	mov    %rdx,-0xc90(%rbp,%rax,8)
    c2e3:	ff 
    c2e4:	83 85 e4 f1 ff ff 01 	addl   $0x1,-0xe1c(%rbp)
    c2eb:	83 bd e4 f1 ff ff 07 	cmpl   $0x7,-0xe1c(%rbp)
    c2f2:	7e d9                	jle    c2cd <func_69+0x343>
    c2f4:	48 83 bd 48 f2 ff ff 	cmpq   $0x0,-0xdb8(%rbp)
    c2fb:	00 
    c2fc:	75 3c                	jne    c33a <func_69+0x3b0>
    c2fe:	48 8d 85 e0 f1 ff ff 	lea    -0xe20(%rbp),%rax
    c305:	48 89 85 08 f3 ff ff 	mov    %rax,-0xcf8(%rbp)
    c30c:	48 c7 85 10 f3 ff ff 	movq   $0x0,-0xcf0(%rbp)
    c313:	00 00 00 00 
    c317:	0f b6 05 18 7d 00 00 	movzbl 0x7d18(%rip),%eax        # 14036 <g_103>
    c31e:	83 e8 01             	sub    $0x1,%eax
    c321:	88 05 0f 7d 00 00    	mov    %al,0x7d0f(%rip)        # 14036 <g_103>
    c327:	66 83 bd cc f1 ff ff 	cmpw   $0x0,-0xe34(%rbp)
    c32e:	00 
    c32f:	0f 84 60 09 00 00    	je     cc95 <func_69+0xd0b>
    c335:	e9 81 0a 00 00       	jmpq   cdbb <func_69+0xe31>
    c33a:	48 8d 05 17 3d 00 00 	lea    0x3d17(%rip),%rax        # 10058 <g_110>
    c341:	48 89 85 38 f2 ff ff 	mov    %rax,-0xdc8(%rbp)
    c348:	48 8d 85 38 f2 ff ff 	lea    -0xdc8(%rbp),%rax
    c34f:	48 89 85 d8 f2 ff ff 	mov    %rax,-0xd28(%rbp)
    c356:	48 8d 05 db 7c 00 00 	lea    0x7cdb(%rip),%rax        # 14038 <g_112>
    c35d:	48 89 85 e0 f2 ff ff 	mov    %rax,-0xd20(%rbp)
    c364:	c7 85 0c f2 ff ff 01 	movl   $0x1,-0xdf4(%rbp)
    c36b:	00 00 00 
    c36e:	66 c7 85 de f1 ff ff 	movw   $0x1,-0xe22(%rbp)
    c375:	01 00 
    c377:	c7 85 b0 f3 ff ff 25 	movl   $0xf446b025,-0xc50(%rbp)
    c37e:	b0 46 f4 
    c381:	c7 85 b4 f3 ff ff 1b 	movl   $0x9cabac1b,-0xc4c(%rbp)
    c388:	ac ab 9c 
    c38b:	c7 85 b8 f3 ff ff d7 	movl   $0x3b356d7,-0xc48(%rbp)
    c392:	56 b3 03 
    c395:	c7 85 bc f3 ff ff 1b 	movl   $0x9cabac1b,-0xc44(%rbp)
    c39c:	ac ab 9c 
    c39f:	c7 85 c0 f3 ff ff 25 	movl   $0xf446b025,-0xc40(%rbp)
    c3a6:	b0 46 f4 
    c3a9:	c7 85 c4 f3 ff ff 1b 	movl   $0x9cabac1b,-0xc3c(%rbp)
    c3b0:	ac ab 9c 
    c3b3:	c7 85 c8 f3 ff ff d7 	movl   $0x3b356d7,-0xc38(%rbp)
    c3ba:	56 b3 03 
    c3bd:	c7 85 cc f3 ff ff 1b 	movl   $0x9cabac1b,-0xc34(%rbp)
    c3c4:	ac ab 9c 
    c3c7:	c7 85 d0 f3 ff ff 25 	movl   $0xf446b025,-0xc30(%rbp)
    c3ce:	b0 46 f4 
    c3d1:	c7 85 d4 f3 ff ff 1b 	movl   $0x9cabac1b,-0xc2c(%rbp)
    c3d8:	ac ab 9c 
    c3db:	c7 85 d8 f3 ff ff d7 	movl   $0x3b356d7,-0xc28(%rbp)
    c3e2:	56 b3 03 
    c3e5:	c7 85 dc f3 ff ff 1b 	movl   $0x9cabac1b,-0xc24(%rbp)
    c3ec:	ac ab 9c 
    c3ef:	c7 85 e0 f3 ff ff 25 	movl   $0xf446b025,-0xc20(%rbp)
    c3f6:	b0 46 f4 
    c3f9:	c7 85 e4 f3 ff ff 1b 	movl   $0x9cabac1b,-0xc1c(%rbp)
    c400:	ac ab 9c 
    c403:	c7 85 e8 f3 ff ff d7 	movl   $0x3b356d7,-0xc18(%rbp)
    c40a:	56 b3 03 
    c40d:	c7 85 ec f3 ff ff 1b 	movl   $0x9cabac1b,-0xc14(%rbp)
    c414:	ac ab 9c 
    c417:	c7 85 f0 f3 ff ff 25 	movl   $0xf446b025,-0xc10(%rbp)
    c41e:	b0 46 f4 
    c421:	c7 85 f4 f3 ff ff 1b 	movl   $0x9cabac1b,-0xc0c(%rbp)
    c428:	ac ab 9c 
    c42b:	c7 85 f8 f3 ff ff d7 	movl   $0x3b356d7,-0xc08(%rbp)
    c432:	56 b3 03 
    c435:	c7 85 fc f3 ff ff 1b 	movl   $0x9cabac1b,-0xc04(%rbp)
    c43c:	ac ab 9c 
    c43f:	c7 85 00 f4 ff ff 25 	movl   $0xf446b025,-0xc00(%rbp)
    c446:	b0 46 f4 
    c449:	c7 85 04 f4 ff ff 1b 	movl   $0x9cabac1b,-0xbfc(%rbp)
    c450:	ac ab 9c 
    c453:	c7 85 08 f4 ff ff d7 	movl   $0x3b356d7,-0xbf8(%rbp)
    c45a:	56 b3 03 
    c45d:	c7 85 0c f4 ff ff 1b 	movl   $0x9cabac1b,-0xbf4(%rbp)
    c464:	ac ab 9c 
    c467:	c7 85 10 f4 ff ff 25 	movl   $0xf446b025,-0xbf0(%rbp)
    c46e:	b0 46 f4 
    c471:	c7 85 14 f4 ff ff 1b 	movl   $0x9cabac1b,-0xbec(%rbp)
    c478:	ac ab 9c 
    c47b:	c7 85 18 f4 ff ff d7 	movl   $0x3b356d7,-0xbe8(%rbp)
    c482:	56 b3 03 
    c485:	c7 85 1c f4 ff ff 1b 	movl   $0x9cabac1b,-0xbe4(%rbp)
    c48c:	ac ab 9c 
    c48f:	c7 85 20 f4 ff ff 25 	movl   $0xf446b025,-0xbe0(%rbp)
    c496:	b0 46 f4 
    c499:	c7 85 24 f4 ff ff 1b 	movl   $0x9cabac1b,-0xbdc(%rbp)
    c4a0:	ac ab 9c 
    c4a3:	c7 85 28 f4 ff ff d7 	movl   $0x3b356d7,-0xbd8(%rbp)
    c4aa:	56 b3 03 
    c4ad:	c7 85 2c f4 ff ff 1b 	movl   $0x9cabac1b,-0xbd4(%rbp)
    c4b4:	ac ab 9c 
    c4b7:	c7 85 30 f4 ff ff 25 	movl   $0xf446b025,-0xbd0(%rbp)
    c4be:	b0 46 f4 
    c4c1:	c7 85 34 f4 ff ff 1b 	movl   $0x9cabac1b,-0xbcc(%rbp)
    c4c8:	ac ab 9c 
    c4cb:	c7 85 38 f4 ff ff d7 	movl   $0x3b356d7,-0xbc8(%rbp)
    c4d2:	56 b3 03 
    c4d5:	c7 85 3c f4 ff ff 1b 	movl   $0x9cabac1b,-0xbc4(%rbp)
    c4dc:	ac ab 9c 
    c4df:	c7 85 40 f4 ff ff 25 	movl   $0xf446b025,-0xbc0(%rbp)
    c4e6:	b0 46 f4 
    c4e9:	c7 85 44 f4 ff ff 1b 	movl   $0x9cabac1b,-0xbbc(%rbp)
    c4f0:	ac ab 9c 
    c4f3:	c7 85 48 f4 ff ff d7 	movl   $0x3b356d7,-0xbb8(%rbp)
    c4fa:	56 b3 03 
    c4fd:	c7 85 4c f4 ff ff 1b 	movl   $0x9cabac1b,-0xbb4(%rbp)
    c504:	ac ab 9c 
    c507:	c7 85 50 f4 ff ff 25 	movl   $0xf446b025,-0xbb0(%rbp)
    c50e:	b0 46 f4 
    c511:	c7 85 54 f4 ff ff 1b 	movl   $0x9cabac1b,-0xbac(%rbp)
    c518:	ac ab 9c 
    c51b:	c7 85 58 f4 ff ff d7 	movl   $0x3b356d7,-0xba8(%rbp)
    c522:	56 b3 03 
    c525:	c7 85 5c f4 ff ff 1b 	movl   $0x9cabac1b,-0xba4(%rbp)
    c52c:	ac ab 9c 
    c52f:	c7 85 60 f4 ff ff 25 	movl   $0xf446b025,-0xba0(%rbp)
    c536:	b0 46 f4 
    c539:	c7 85 64 f4 ff ff 1b 	movl   $0x9cabac1b,-0xb9c(%rbp)
    c540:	ac ab 9c 
    c543:	c7 85 68 f4 ff ff d7 	movl   $0x3b356d7,-0xb98(%rbp)
    c54a:	56 b3 03 
    c54d:	c7 85 6c f4 ff ff 1b 	movl   $0x9cabac1b,-0xb94(%rbp)
    c554:	ac ab 9c 
    c557:	c7 85 70 f4 ff ff 25 	movl   $0xf446b025,-0xb90(%rbp)
    c55e:	b0 46 f4 
    c561:	c7 85 74 f4 ff ff 1b 	movl   $0x9cabac1b,-0xb8c(%rbp)
    c568:	ac ab 9c 
    c56b:	c7 85 78 f4 ff ff d7 	movl   $0x3b356d7,-0xb88(%rbp)
    c572:	56 b3 03 
    c575:	c7 85 7c f4 ff ff 1b 	movl   $0x9cabac1b,-0xb84(%rbp)
    c57c:	ac ab 9c 
    c57f:	c7 85 80 f4 ff ff 25 	movl   $0xf446b025,-0xb80(%rbp)
    c586:	b0 46 f4 
    c589:	c7 85 84 f4 ff ff 1b 	movl   $0x9cabac1b,-0xb7c(%rbp)
    c590:	ac ab 9c 
    c593:	c7 85 88 f4 ff ff d7 	movl   $0x3b356d7,-0xb78(%rbp)
    c59a:	56 b3 03 
    c59d:	c7 85 8c f4 ff ff 1b 	movl   $0x9cabac1b,-0xb74(%rbp)
    c5a4:	ac ab 9c 
    c5a7:	c7 85 90 f4 ff ff 25 	movl   $0xf446b025,-0xb70(%rbp)
    c5ae:	b0 46 f4 
    c5b1:	c7 85 94 f4 ff ff 1b 	movl   $0x9cabac1b,-0xb6c(%rbp)
    c5b8:	ac ab 9c 
    c5bb:	c7 85 98 f4 ff ff d7 	movl   $0x3b356d7,-0xb68(%rbp)
    c5c2:	56 b3 03 
    c5c5:	c7 85 9c f4 ff ff 1b 	movl   $0x9cabac1b,-0xb64(%rbp)
    c5cc:	ac ab 9c 
    c5cf:	c7 85 a0 f4 ff ff 25 	movl   $0xf446b025,-0xb60(%rbp)
    c5d6:	b0 46 f4 
    c5d9:	c7 85 a4 f4 ff ff 1b 	movl   $0x9cabac1b,-0xb5c(%rbp)
    c5e0:	ac ab 9c 
    c5e3:	c7 85 a8 f4 ff ff d7 	movl   $0x3b356d7,-0xb58(%rbp)
    c5ea:	56 b3 03 
    c5ed:	c7 85 ac f4 ff ff 1b 	movl   $0x9cabac1b,-0xb54(%rbp)
    c5f4:	ac ab 9c 
    c5f7:	0f bf 9d cc f1 ff ff 	movswl -0xe34(%rbp),%ebx
    c5fe:	8b 05 c4 b6 00 00    	mov    0xb6c4(%rip),%eax        # 17cc8 <g_75>
    c604:	41 89 c5             	mov    %eax,%r13d
    c607:	48 8b 85 d8 f2 ff ff 	mov    -0xd28(%rbp),%rax
    c60e:	48 8d 95 da f1 ff ff 	lea    -0xe26(%rbp),%rdx
    c615:	48 89 10             	mov    %rdx,(%rax)
    c618:	48 0f bf 95 cc f1 ff 	movswq -0xe34(%rbp),%rdx
    c61f:	ff 
    c620:	48 8b 85 e0 f2 ff ff 	mov    -0xd20(%rbp),%rax
    c627:	48 89 10             	mov    %rdx,(%rax)
    c62a:	48 8b 85 e0 f2 ff ff 	mov    -0xd20(%rbp),%rax
    c631:	48 8b 00             	mov    (%rax),%rax
    c634:	8b 15 8e b6 00 00    	mov    0xb68e(%rip),%edx        # 17cc8 <g_75>
    c63a:	89 d2                	mov    %edx,%edx
    c63c:	48 31 d0             	xor    %rdx,%rax
    c63f:	49 89 c4             	mov    %rax,%r12
    c642:	8b 05 dc 79 00 00    	mov    0x79dc(%rip),%eax        # 14024 <g_22>
    c648:	98                   	cwtl   
    c649:	89 c6                	mov    %eax,%esi
    c64b:	bf ce 89 ff ff       	mov    $0xffff89ce,%edi
    c650:	e8 7e bd ff ff       	callq  83d3 <safe_sub_func_int16_t_s_s>
    c655:	48 0f bf c0          	movswq %ax,%rax
    c659:	49 39 c4             	cmp    %rax,%r12
    c65c:	73 07                	jae    c665 <func_69+0x6db>
    c65e:	b8 b1 00 00 00       	mov    $0xb1,%eax
    c663:	eb 05                	jmp    c66a <func_69+0x6e0>
    c665:	b8 b0 00 00 00       	mov    $0xb0,%eax
    c66a:	44 89 ee             	mov    %r13d,%esi
    c66d:	89 c7                	mov    %eax,%edi
    c66f:	e8 91 bf ff ff       	callq  8605 <safe_sub_func_int32_t_s_s>
    c674:	09 d8                	or     %ebx,%eax
    c676:	85 c0                	test   %eax,%eax
    c678:	0f 84 ed 01 00 00    	je     c86b <func_69+0x8e1>
    c67e:	48 8d 85 80 f8 ff ff 	lea    -0x780(%rbp),%rax
    c685:	48 83 c0 48          	add    $0x48,%rax
    c689:	48 89 85 f0 f2 ff ff 	mov    %rax,-0xd10(%rbp)
    c690:	48 c7 85 f8 f2 ff ff 	movq   $0x0,-0xd08(%rbp)
    c697:	00 00 00 00 
    c69b:	48 8d 85 40 f3 ff ff 	lea    -0xcc0(%rbp),%rax
    c6a2:	48 89 85 00 f3 ff ff 	mov    %rax,-0xd00(%rbp)
    c6a9:	c7 85 14 f2 ff ff fa 	movl   $0xfffffffa,-0xdec(%rbp)
    c6b0:	ff ff ff 
    c6b3:	c7 85 e8 f1 ff ff 00 	movl   $0x0,-0xe18(%rbp)
    c6ba:	00 00 00 
    c6bd:	eb 25                	jmp    c6e4 <func_69+0x75a>
    c6bf:	8b 85 e8 f1 ff ff    	mov    -0xe18(%rbp),%eax
    c6c5:	48 98                	cltq   
    c6c7:	48 8d 95 00 f6 ff ff 	lea    -0xa00(%rbp),%rdx
    c6ce:	48 81 c2 a8 00 00 00 	add    $0xa8,%rdx
    c6d5:	48 89 94 c5 80 f8 ff 	mov    %rdx,-0x780(%rbp,%rax,8)
    c6dc:	ff 
    c6dd:	83 85 e8 f1 ff ff 01 	addl   $0x1,-0xe18(%rbp)
    c6e4:	83 bd e8 f1 ff ff 09 	cmpl   $0x9,-0xe18(%rbp)
    c6eb:	7e d2                	jle    c6bf <func_69+0x735>
    c6ed:	83 bd 0c f2 ff ff 00 	cmpl   $0x0,-0xdf4(%rbp)
    c6f4:	0f 85 1d 01 00 00    	jne    c817 <func_69+0x88d>
    c6fa:	8b 1d c8 b5 00 00    	mov    0xb5c8(%rip),%ebx        # 17cc8 <g_75>
    c700:	44 0f bf a5 cc f1 ff 	movswl -0xe34(%rbp),%r12d
    c707:	ff 
    c708:	48 8b 85 f0 f2 ff ff 	mov    -0xd10(%rbp),%rax
    c70f:	48 8d 15 0e 79 00 00 	lea    0x790e(%rip),%rdx        # 14024 <g_22>
    c716:	48 89 10             	mov    %rdx,(%rax)
    c719:	48 8b 85 f0 f2 ff ff 	mov    -0xd10(%rbp),%rax
    c720:	48 8b 08             	mov    (%rax),%rcx
    c723:	48 8b 95 48 f3 ff ff 	mov    -0xcb8(%rbp),%rdx
    c72a:	48 8b 85 00 f3 ff ff 	mov    -0xd00(%rbp),%rax
    c731:	48 89 10             	mov    %rdx,(%rax)
    c734:	48 8b 85 00 f3 ff ff 	mov    -0xd00(%rbp),%rax
    c73b:	48 8b 00             	mov    (%rax),%rax
    c73e:	48 39 c1             	cmp    %rax,%rcx
    c741:	0f 95 c0             	setne  %al
    c744:	89 c2                	mov    %eax,%edx
    c746:	b8 00 00 00 00       	mov    $0x0,%eax
    c74b:	09 d0                	or     %edx,%eax
    c74d:	0f b6 c0             	movzbl %al,%eax
    c750:	be 01 00 00 00       	mov    $0x1,%esi
    c755:	89 c7                	mov    %eax,%edi
    c757:	e8 7f c4 ff ff       	callq  8bdb <safe_div_func_uint8_t_u_u>
    c75c:	0f b6 c0             	movzbl %al,%eax
    c75f:	41 39 c4             	cmp    %eax,%r12d
    c762:	0f 94 c0             	sete   %al
    c765:	0f b6 d0             	movzbl %al,%edx
    c768:	48 8b 05 b9 78 00 00 	mov    0x78b9(%rip),%rax        # 14028 <g_50>
    c76f:	48 21 d0             	and    %rdx,%rax
    c772:	48 83 f8 02          	cmp    $0x2,%rax
    c776:	0f 97 c0             	seta   %al
    c779:	0f b6 d0             	movzbl %al,%edx
    c77c:	0f b7 85 da f1 ff ff 	movzwl -0xe26(%rbp),%eax
    c783:	0f b7 c0             	movzwl %ax,%eax
    c786:	39 c2                	cmp    %eax,%edx
    c788:	74 0a                	je     c794 <func_69+0x80a>
    c78a:	66 83 bd cc f1 ff ff 	cmpw   $0x0,-0xe34(%rbp)
    c791:	00 
    c792:	74 07                	je     c79b <func_69+0x811>
    c794:	b8 01 00 00 00       	mov    $0x1,%eax
    c799:	eb 05                	jmp    c7a0 <func_69+0x816>
    c79b:	b8 00 00 00 00       	mov    $0x0,%eax
    c7a0:	f7 d0                	not    %eax
    c7a2:	0c c0                	or     $0xc0,%al
    c7a4:	3d 4b 0f 40 66       	cmp    $0x66400f4b,%eax
    c7a9:	0f 9f c0             	setg   %al
    c7ac:	0f b6 d0             	movzbl %al,%edx
    c7af:	0f b7 85 cc f1 ff ff 	movzwl -0xe34(%rbp),%eax
    c7b6:	0f be c0             	movsbl %al,%eax
    c7b9:	89 d6                	mov    %edx,%esi
    c7bb:	89 c7                	mov    %eax,%edi
    c7bd:	e8 30 ba ff ff       	callq  81f2 <safe_sub_func_int8_t_s_s>
    c7c2:	0f be c0             	movsbl %al,%eax
    c7c5:	89 de                	mov    %ebx,%esi
    c7c7:	89 c7                	mov    %eax,%edi
    c7c9:	e8 2f c7 ff ff       	callq  8efd <safe_mod_func_uint32_t_u_u>
    c7ce:	be 0d 00 00 00       	mov    $0xd,%esi
    c7d3:	bf 01 00 00 00       	mov    $0x1,%edi
    c7d8:	e8 b5 bc ff ff       	callq  8492 <safe_lshift_func_int16_t_s_s>
    c7dd:	48 0f bf c0          	movswq %ax,%rax
    c7e1:	be 05 00 00 00       	mov    $0x5,%esi
    c7e6:	48 89 c7             	mov    %rax,%rdi
    c7e9:	e8 ba c0 ff ff       	callq  88a8 <safe_sub_func_int64_t_s_s>
    c7ee:	48 3d aa 40 00 00    	cmp    $0x40aa,%rax
    c7f4:	0f b6 05 3b 78 00 00 	movzbl 0x783b(%rip),%eax        # 14036 <g_103>
    c7fb:	b8 01 00 00 00       	mov    $0x1,%eax
    c800:	66 31 85 de f1 ff ff 	xor    %ax,-0xe22(%rbp)
    c807:	48 0f bf 85 de f1 ff 	movswq -0xe22(%rbp),%rax
    c80e:	ff 
    c80f:	83 e0 07             	and    $0x7,%eax
    c812:	48 85 c0             	test   %rax,%rax
    c815:	74 07                	je     c81e <func_69+0x894>
    c817:	b8 01 00 00 00       	mov    $0x1,%eax
    c81c:	eb 05                	jmp    c823 <func_69+0x899>
    c81e:	b8 00 00 00 00       	mov    $0x0,%eax
    c823:	89 85 14 f2 ff ff    	mov    %eax,-0xdec(%rbp)
    c829:	83 bd 08 f2 ff ff 00 	cmpl   $0x0,-0xdf8(%rbp)
    c830:	0f 85 ac 05 00 00    	jne    cde2 <func_69+0xe58>
    c836:	48 8d 05 63 8c 00 00 	lea    0x8c63(%rip),%rax        # 154a0 <g_140>
    c83d:	48 85 c0             	test   %rax,%rax
    c840:	0f 95 c0             	setne  %al
    c843:	0f b6 c0             	movzbl %al,%eax
    c846:	89 85 e0 f1 ff ff    	mov    %eax,-0xe20(%rbp)
    c84c:	8b 85 e0 f1 ff ff    	mov    -0xe20(%rbp),%eax
    c852:	89 85 64 f5 ff ff    	mov    %eax,-0xa9c(%rbp)
    c858:	66 83 bd cc f1 ff ff 	cmpw   $0x0,-0xe34(%rbp)
    c85f:	00 
    c860:	0f 84 86 00 00 00    	je     c8ec <func_69+0x962>
    c866:	e9 50 05 00 00       	jmpq   cdbb <func_69+0xe31>
    c86b:	48 8d 85 40 f3 ff ff 	lea    -0xcc0(%rbp),%rax
    c872:	48 89 85 40 f2 ff ff 	mov    %rax,-0xdc0(%rbp)
    c879:	48 8d 85 40 f2 ff ff 	lea    -0xdc0(%rbp),%rax
    c880:	48 89 85 e8 f2 ff ff 	mov    %rax,-0xd18(%rbp)
    c887:	c7 85 10 f2 ff ff 00 	movl   $0x0,-0xdf0(%rbp)
    c88e:	00 00 00 
    c891:	48 8d 85 80 f8 ff ff 	lea    -0x780(%rbp),%rax
    c898:	48 8d 15 a1 3f 00 00 	lea    0x3fa1(%rip),%rdx        # 10840 <g_1837+0x7ac>
    c89f:	b9 70 00 00 00       	mov    $0x70,%ecx
    c8a4:	48 89 c7             	mov    %rax,%rdi
    c8a7:	48 89 d6             	mov    %rdx,%rsi
    c8aa:	f3 48 a5             	rep movsq %ds:(%rsi),%es:(%rdi)
    c8ad:	48 89 f2             	mov    %rsi,%rdx
    c8b0:	48 89 f8             	mov    %rdi,%rax
    c8b3:	8b 0a                	mov    (%rdx),%ecx
    c8b5:	89 08                	mov    %ecx,(%rax)
    c8b7:	48 8d 40 04          	lea    0x4(%rax),%rax
    c8bb:	48 8d 52 04          	lea    0x4(%rdx),%rdx
    c8bf:	48 8b 95 40 f2 ff ff 	mov    -0xdc0(%rbp),%rdx
    c8c6:	48 8b 85 e8 f2 ff ff 	mov    -0xd18(%rbp),%rax
    c8cd:	48 89 10             	mov    %rdx,(%rax)
    c8d0:	83 85 f4 f1 ff ff 01 	addl   $0x1,-0xe0c(%rbp)
    c8d7:	8b 95 dc fe ff ff    	mov    -0x124(%rbp),%edx
    c8dd:	0f bf 85 cc f1 ff ff 	movswl -0xe34(%rbp),%eax
    c8e4:	31 d0                	xor    %edx,%eax
    c8e6:	89 85 dc fe ff ff    	mov    %eax,-0x124(%rbp)
    c8ec:	66 c7 85 cc f1 ff ff 	movw   $0x0,-0xe34(%rbp)
    c8f3:	00 00 
    c8f5:	e9 8d 03 00 00       	jmpq   cc87 <func_69+0xcfd>
    c8fa:	48 8d 85 d8 f1 ff ff 	lea    -0xe28(%rbp),%rax
    c901:	48 89 85 80 f8 ff ff 	mov    %rax,-0x780(%rbp)
    c908:	48 8d 85 d8 f1 ff ff 	lea    -0xe28(%rbp),%rax
    c90f:	48 89 85 88 f8 ff ff 	mov    %rax,-0x778(%rbp)
    c916:	48 c7 85 90 f8 ff ff 	movq   $0x0,-0x770(%rbp)
    c91d:	00 00 00 00 
    c921:	48 8d 85 d8 f1 ff ff 	lea    -0xe28(%rbp),%rax
    c928:	48 89 85 98 f8 ff ff 	mov    %rax,-0x768(%rbp)
    c92f:	48 c7 85 a0 f8 ff ff 	movq   $0x0,-0x760(%rbp)
    c936:	00 00 00 00 
    c93a:	48 8d 85 d8 f1 ff ff 	lea    -0xe28(%rbp),%rax
    c941:	48 89 85 a8 f8 ff ff 	mov    %rax,-0x758(%rbp)
    c948:	48 8d 85 d8 f1 ff ff 	lea    -0xe28(%rbp),%rax
    c94f:	48 89 85 b0 f8 ff ff 	mov    %rax,-0x750(%rbp)
    c956:	48 c7 85 b8 f8 ff ff 	movq   $0x0,-0x748(%rbp)
    c95d:	00 00 00 00 
    c961:	48 8d 85 d8 f1 ff ff 	lea    -0xe28(%rbp),%rax
    c968:	48 89 85 c0 f8 ff ff 	mov    %rax,-0x740(%rbp)
    c96f:	48 8d 85 d8 f1 ff ff 	lea    -0xe28(%rbp),%rax
    c976:	48 89 85 c8 f8 ff ff 	mov    %rax,-0x738(%rbp)
    c97d:	48 8d 85 d8 f1 ff ff 	lea    -0xe28(%rbp),%rax
    c984:	48 89 85 d0 f8 ff ff 	mov    %rax,-0x730(%rbp)
    c98b:	48 c7 85 d8 f8 ff ff 	movq   $0x0,-0x728(%rbp)
    c992:	00 00 00 00 
    c996:	48 8d 85 d8 f1 ff ff 	lea    -0xe28(%rbp),%rax
    c99d:	48 89 85 e0 f8 ff ff 	mov    %rax,-0x720(%rbp)
    c9a4:	48 8d 85 d8 f1 ff ff 	lea    -0xe28(%rbp),%rax
    c9ab:	48 89 85 e8 f8 ff ff 	mov    %rax,-0x718(%rbp)
    c9b2:	48 8d 85 d8 f1 ff ff 	lea    -0xe28(%rbp),%rax
    c9b9:	48 89 85 f0 f8 ff ff 	mov    %rax,-0x710(%rbp)
    c9c0:	48 c7 85 f8 f8 ff ff 	movq   $0x0,-0x708(%rbp)
    c9c7:	00 00 00 00 
    c9cb:	48 8d 85 d8 f1 ff ff 	lea    -0xe28(%rbp),%rax
    c9d2:	48 89 85 00 f9 ff ff 	mov    %rax,-0x700(%rbp)
    c9d9:	48 c7 85 08 f9 ff ff 	movq   $0x0,-0x6f8(%rbp)
    c9e0:	00 00 00 00 
    c9e4:	48 8d 85 d8 f1 ff ff 	lea    -0xe28(%rbp),%rax
    c9eb:	48 89 85 10 f9 ff ff 	mov    %rax,-0x6f0(%rbp)
    c9f2:	48 8d 85 d8 f1 ff ff 	lea    -0xe28(%rbp),%rax
    c9f9:	48 89 85 18 f9 ff ff 	mov    %rax,-0x6e8(%rbp)
    ca00:	48 8d 85 d8 f1 ff ff 	lea    -0xe28(%rbp),%rax
    ca07:	48 89 85 20 f9 ff ff 	mov    %rax,-0x6e0(%rbp)
    ca0e:	48 8d 85 d8 f1 ff ff 	lea    -0xe28(%rbp),%rax
    ca15:	48 89 85 28 f9 ff ff 	mov    %rax,-0x6d8(%rbp)
    ca1c:	48 8d 85 d8 f1 ff ff 	lea    -0xe28(%rbp),%rax
    ca23:	48 89 85 30 f9 ff ff 	mov    %rax,-0x6d0(%rbp)
    ca2a:	48 8d 85 d8 f1 ff ff 	lea    -0xe28(%rbp),%rax
    ca31:	48 89 85 38 f9 ff ff 	mov    %rax,-0x6c8(%rbp)
    ca38:	48 8d 85 d8 f1 ff ff 	lea    -0xe28(%rbp),%rax
    ca3f:	48 89 85 40 f9 ff ff 	mov    %rax,-0x6c0(%rbp)
    ca46:	48 8d 85 d8 f1 ff ff 	lea    -0xe28(%rbp),%rax
    ca4d:	48 89 85 48 f9 ff ff 	mov    %rax,-0x6b8(%rbp)
    ca54:	48 8d 85 d8 f1 ff ff 	lea    -0xe28(%rbp),%rax
    ca5b:	48 89 85 50 f9 ff ff 	mov    %rax,-0x6b0(%rbp)
    ca62:	48 8d 85 d8 f1 ff ff 	lea    -0xe28(%rbp),%rax
    ca69:	48 89 85 58 f9 ff ff 	mov    %rax,-0x6a8(%rbp)
    ca70:	48 8d 85 d8 f1 ff ff 	lea    -0xe28(%rbp),%rax
    ca77:	48 89 85 60 f9 ff ff 	mov    %rax,-0x6a0(%rbp)
    ca7e:	48 8d 85 d8 f1 ff ff 	lea    -0xe28(%rbp),%rax
    ca85:	48 89 85 68 f9 ff ff 	mov    %rax,-0x698(%rbp)
    ca8c:	48 8d 85 d8 f1 ff ff 	lea    -0xe28(%rbp),%rax
    ca93:	48 89 85 70 f9 ff ff 	mov    %rax,-0x690(%rbp)
    ca9a:	48 c7 85 78 f9 ff ff 	movq   $0x0,-0x688(%rbp)
    caa1:	00 00 00 00 
    caa5:	48 c7 85 80 f9 ff ff 	movq   $0x0,-0x680(%rbp)
    caac:	00 00 00 00 
    cab0:	48 c7 85 88 f9 ff ff 	movq   $0x0,-0x678(%rbp)
    cab7:	00 00 00 00 
    cabb:	48 c7 85 90 f9 ff ff 	movq   $0x0,-0x670(%rbp)
    cac2:	00 00 00 00 
    cac6:	48 c7 85 98 f9 ff ff 	movq   $0x0,-0x668(%rbp)
    cacd:	00 00 00 00 
    cad1:	48 8d 85 d8 f1 ff ff 	lea    -0xe28(%rbp),%rax
    cad8:	48 89 85 a0 f9 ff ff 	mov    %rax,-0x660(%rbp)
    cadf:	48 8d 85 d8 f1 ff ff 	lea    -0xe28(%rbp),%rax
    cae6:	48 89 85 a8 f9 ff ff 	mov    %rax,-0x658(%rbp)
    caed:	48 8d 85 d8 f1 ff ff 	lea    -0xe28(%rbp),%rax
    caf4:	48 89 85 b0 f9 ff ff 	mov    %rax,-0x650(%rbp)
    cafb:	48 8d 85 d8 f1 ff ff 	lea    -0xe28(%rbp),%rax
    cb02:	48 89 85 b8 f9 ff ff 	mov    %rax,-0x648(%rbp)
    cb09:	48 8d 85 d8 f1 ff ff 	lea    -0xe28(%rbp),%rax
    cb10:	48 89 85 c0 f9 ff ff 	mov    %rax,-0x640(%rbp)
    cb17:	48 c7 85 c8 f9 ff ff 	movq   $0x0,-0x638(%rbp)
    cb1e:	00 00 00 00 
    cb22:	48 8d 85 d8 f1 ff ff 	lea    -0xe28(%rbp),%rax
    cb29:	48 89 85 d0 f9 ff ff 	mov    %rax,-0x630(%rbp)
    cb30:	48 8d 85 d8 f1 ff ff 	lea    -0xe28(%rbp),%rax
    cb37:	48 89 85 d8 f9 ff ff 	mov    %rax,-0x628(%rbp)
    cb3e:	48 8d 85 d8 f1 ff ff 	lea    -0xe28(%rbp),%rax
    cb45:	48 89 85 e0 f9 ff ff 	mov    %rax,-0x620(%rbp)
    cb4c:	c7 85 ec f1 ff ff 00 	movl   $0x0,-0xe14(%rbp)
    cb53:	00 00 00 
    cb56:	eb 1b                	jmp    cb73 <func_69+0xbe9>
    cb58:	8b 85 ec f1 ff ff    	mov    -0xe14(%rbp),%eax
    cb5e:	48 98                	cltq   
    cb60:	48 c7 84 c5 50 f3 ff 	movq   $0x0,-0xcb0(%rbp,%rax,8)
    cb67:	ff 00 00 00 00 
    cb6c:	83 85 ec f1 ff ff 01 	addl   $0x1,-0xe14(%rbp)
    cb73:	83 bd ec f1 ff ff 03 	cmpl   $0x3,-0xe14(%rbp)
    cb7a:	7e dc                	jle    cb58 <func_69+0xbce>
    cb7c:	0f bf b5 cc f1 ff ff 	movswl -0xe34(%rbp),%esi
    cb83:	0f bf 85 cc f1 ff ff 	movswl -0xe34(%rbp),%eax
    cb8a:	8d 48 01             	lea    0x1(%rax),%ecx
    cb8d:	0f bf 85 cc f1 ff ff 	movswl -0xe34(%rbp),%eax
    cb94:	0f bf 95 cc f1 ff ff 	movswl -0xe34(%rbp),%edx
    cb9b:	48 63 fa             	movslq %edx,%rdi
    cb9e:	48 63 d1             	movslq %ecx,%rdx
    cba1:	48 63 c8             	movslq %eax,%rcx
    cba4:	48 89 d0             	mov    %rdx,%rax
    cba7:	48 01 c0             	add    %rax,%rax
    cbaa:	48 01 d0             	add    %rdx,%rax
    cbad:	48 c1 e0 03          	shl    $0x3,%rax
    cbb1:	48 89 ca             	mov    %rcx,%rdx
    cbb4:	48 01 d2             	add    %rdx,%rdx
    cbb7:	48 01 ca             	add    %rcx,%rdx
    cbba:	48 01 d0             	add    %rdx,%rax
    cbbd:	48 01 f8             	add    %rdi,%rax
    cbc0:	8b 94 85 10 fc ff ff 	mov    -0x3f0(%rbp,%rax,4),%edx
    cbc7:	8b 85 0c f2 ff ff    	mov    -0xdf4(%rbp),%eax
    cbcd:	39 85 00 f2 ff ff    	cmp    %eax,-0xe00(%rbp)
    cbd3:	73 11                	jae    cbe6 <func_69+0xc5c>
    cbd5:	66 83 bd cc f1 ff ff 	cmpw   $0x0,-0xe34(%rbp)
    cbdc:	00 
    cbdd:	74 07                	je     cbe6 <func_69+0xc5c>
    cbdf:	b8 01 00 00 00       	mov    $0x1,%eax
    cbe4:	eb 05                	jmp    cbeb <func_69+0xc61>
    cbe6:	b8 00 00 00 00       	mov    $0x0,%eax
    cbeb:	89 c1                	mov    %eax,%ecx
    cbed:	48 8b 85 48 f2 ff ff 	mov    -0xdb8(%rbp),%rax
    cbf4:	66 89 08             	mov    %cx,(%rax)
    cbf7:	48 8b 85 48 f2 ff ff 	mov    -0xdb8(%rbp),%rax
    cbfe:	0f b7 00             	movzwl (%rax),%eax
    cc01:	0f b7 c0             	movzwl %ax,%eax
    cc04:	09 d0                	or     %edx,%eax
    cc06:	89 c7                	mov    %eax,%edi
    cc08:	e8 18 c3 ff ff       	callq  8f25 <safe_div_func_uint32_t_u_u>
    cc0d:	89 c3                	mov    %eax,%ebx
    cc0f:	0f bf 85 cc f1 ff ff 	movswl -0xe34(%rbp),%eax
    cc16:	89 c6                	mov    %eax,%esi
    cc18:	bf 01 00 00 00       	mov    $0x1,%edi
    cc1d:	e8 70 b8 ff ff       	callq  8492 <safe_lshift_func_int16_t_s_s>
    cc22:	98                   	cwtl   
    cc23:	21 d8                	and    %ebx,%eax
    cc25:	83 c8 01             	or     $0x1,%eax
    cc28:	89 85 28 f4 ff ff    	mov    %eax,-0xbd8(%rbp)
    cc2e:	48 c7 85 40 f3 ff ff 	movq   $0x0,-0xcc0(%rbp)
    cc35:	00 00 00 00 
    cc39:	0f b7 85 cc f1 ff ff 	movzwl -0xe34(%rbp),%eax
    cc40:	0f be d0             	movsbl %al,%edx
    cc43:	8b 85 28 f4 ff ff    	mov    -0xbd8(%rbp),%eax
    cc49:	89 05 f5 73 00 00    	mov    %eax,0x73f5(%rip)        # 14044 <g_161>
    cc4f:	8b 05 ef 73 00 00    	mov    0x73ef(%rip),%eax        # 14044 <g_161>
    cc55:	0f be c0             	movsbl %al,%eax
    cc58:	89 d6                	mov    %edx,%esi
    cc5a:	89 c7                	mov    %eax,%edi
    cc5c:	e8 73 b5 ff ff       	callq  81d4 <safe_add_func_int8_t_s_s>
    cc61:	0f be c0             	movsbl %al,%eax
    cc64:	89 85 2c f8 ff ff    	mov    %eax,-0x7d4(%rbp)
    cc6a:	8b 85 2c f8 ff ff    	mov    -0x7d4(%rbp),%eax
    cc70:	89 85 fc f1 ff ff    	mov    %eax,-0xe04(%rbp)
    cc76:	0f b7 85 cc f1 ff ff 	movzwl -0xe34(%rbp),%eax
    cc7d:	83 c0 01             	add    $0x1,%eax
    cc80:	66 89 85 cc f1 ff ff 	mov    %ax,-0xe34(%rbp)
    cc87:	66 83 bd cc f1 ff ff 	cmpw   $0x1,-0xe34(%rbp)
    cc8e:	01 
    cc8f:	0f 8e 65 fc ff ff    	jle    c8fa <func_69+0x970>
    cc95:	48 8b 85 c0 f2 ff ff 	mov    -0xd40(%rbp),%rax
    cc9c:	48 c7 00 00 00 00 00 	movq   $0x0,(%rax)
    cca3:	48 8b 85 b8 f2 ff ff 	mov    -0xd48(%rbp),%rax
    ccaa:	48 3b 85 90 f2 ff ff 	cmp    -0xd70(%rbp),%rax
    ccb1:	0f 94 c0             	sete   %al
    ccb4:	0f b6 c0             	movzbl %al,%eax
    ccb7:	be 01 00 00 00       	mov    $0x1,%esi
    ccbc:	48 89 c7             	mov    %rax,%rdi
    ccbf:	e8 bc c3 ff ff       	callq  9080 <safe_mod_func_uint64_t_u_u>
    ccc4:	be 51 4e 0c 69       	mov    $0x690c4e51,%esi
    ccc9:	89 c7                	mov    %eax,%edi
    cccb:	e8 2f ba ff ff       	callq  86ff <safe_div_func_int32_t_s_s>
    ccd0:	8b 9d dc fe ff ff    	mov    -0x124(%rbp),%ebx
    ccd6:	48 8b 85 88 f2 ff ff 	mov    -0xd78(%rbp),%rax
    ccdd:	48 3b 85 50 f2 ff ff 	cmp    -0xdb0(%rbp),%rax
    cce4:	74 56                	je     cd3c <func_69+0xdb2>
    cce6:	0f bf 95 cc f1 ff ff 	movswl -0xe34(%rbp),%edx
    cced:	48 8b 85 c8 f2 ff ff 	mov    -0xd38(%rbp),%rax
    ccf4:	0f b6 00             	movzbl (%rax),%eax
    ccf7:	8d 48 01             	lea    0x1(%rax),%ecx
    ccfa:	48 8b 85 c8 f2 ff ff 	mov    -0xd38(%rbp),%rax
    cd01:	88 08                	mov    %cl,(%rax)
    cd03:	48 8b 85 c8 f2 ff ff 	mov    -0xd38(%rbp),%rax
    cd0a:	0f b6 08             	movzbl (%rax),%ecx
    cd0d:	48 8b 85 d0 f2 ff ff 	mov    -0xd30(%rbp),%rax
    cd14:	0f b6 00             	movzbl (%rax),%eax
    cd17:	21 c1                	and    %eax,%ecx
    cd19:	48 8b 85 d0 f2 ff ff 	mov    -0xd30(%rbp),%rax
    cd20:	88 08                	mov    %cl,(%rax)
    cd22:	48 8b 85 d0 f2 ff ff 	mov    -0xd30(%rbp),%rax
    cd29:	0f b6 00             	movzbl (%rax),%eax
    cd2c:	0f b6 c0             	movzbl %al,%eax
    cd2f:	89 d6                	mov    %edx,%esi
    cd31:	89 c7                	mov    %eax,%edi
    cd33:	e8 cd be ff ff       	callq  8c05 <safe_lshift_func_uint8_t_u_s>
    cd38:	84 c0                	test   %al,%al
    cd3a:	74 07                	je     cd43 <func_69+0xdb9>
    cd3c:	b8 01 00 00 00       	mov    $0x1,%eax
    cd41:	eb 05                	jmp    cd48 <func_69+0xdbe>
    cd43:	b8 00 00 00 00       	mov    $0x0,%eax
    cd48:	0f be c0             	movsbl %al,%eax
    cd4b:	be 01 00 00 00       	mov    $0x1,%esi
    cd50:	89 c7                	mov    %eax,%edi
    cd52:	e8 15 b6 ff ff       	callq  836c <safe_rshift_func_int8_t_s_u>
    cd57:	44 0f be e0          	movsbl %al,%r12d
    cd5b:	48 c7 c7 f9 ff ff ff 	mov    $0xfffffffffffffff9,%rdi
    cd62:	e8 af ba ff ff       	callq  8816 <safe_unary_minus_func_int64_t_s>
    cd67:	48 8b 85 30 f2 ff ff 	mov    -0xdd0(%rbp),%rax
    cd6e:	48 89 05 6b af 00 00 	mov    %rax,0xaf6b(%rip)        # 17ce0 <g_179>
    cd75:	48 8b 05 64 af 00 00 	mov    0xaf64(%rip),%rax        # 17ce0 <g_179>
    cd7c:	48 39 85 50 f2 ff ff 	cmp    %rax,-0xdb0(%rbp)
    cd83:	0f 95 c0             	setne  %al
    cd86:	0f b6 c0             	movzbl %al,%eax
    cd89:	89 85 64 f5 ff ff    	mov    %eax,-0xa9c(%rbp)
    cd8f:	8b 85 64 f5 ff ff    	mov    -0xa9c(%rbp),%eax
    cd95:	41 39 c4             	cmp    %eax,%r12d
    cd98:	0f 9c c2             	setl   %dl
    cd9b:	0f b6 85 d8 f1 ff ff 	movzbl -0xe28(%rbp),%eax
    cda2:	0f be c0             	movsbl %al,%eax
    cda5:	39 85 00 f2 ff ff    	cmp    %eax,-0xe00(%rbp)
    cdab:	0f 93 c0             	setae  %al
    cdae:	31 d0                	xor    %edx,%eax
    cdb0:	0f b6 c0             	movzbl %al,%eax
    cdb3:	21 d8                	and    %ebx,%eax
    cdb5:	89 85 e0 f1 ff ff    	mov    %eax,-0xe20(%rbp)
    cdbb:	8b 05 63 72 00 00    	mov    0x7263(%rip),%eax        # 14024 <g_22>
    cdc1:	be 03 00 00 00       	mov    $0x3,%esi
    cdc6:	89 c7                	mov    %eax,%edi
    cdc8:	e8 03 c1 ff ff       	callq  8ed0 <safe_sub_func_uint32_t_u_u>
    cdcd:	89 05 51 72 00 00    	mov    %eax,0x7251(%rip)        # 14024 <g_22>
    cdd3:	8b 05 4b 72 00 00    	mov    0x724b(%rip),%eax        # 14024 <g_22>
    cdd9:	83 f8 f4             	cmp    $0xfffffff4,%eax
    cddc:	0f 84 0b f3 ff ff    	je     c0ed <func_69+0x163>
    cde2:	c7 85 e0 f1 ff ff fb 	movl   $0xfffffffb,-0xe20(%rbp)
    cde9:	ff ff ff 
    cdec:	eb 7c                	jmp    ce6a <func_69+0xee0>
    cdee:	48 8d 05 f3 ae 00 00 	lea    0xaef3(%rip),%rax        # 17ce8 <g_228>
    cdf5:	48 89 85 18 f3 ff ff 	mov    %rax,-0xce8(%rbp)
    cdfc:	48 8d 05 35 87 00 00 	lea    0x8735(%rip),%rax        # 15538 <g_232>
    ce03:	48 89 85 20 f3 ff ff 	mov    %rax,-0xce0(%rbp)
    ce0a:	48 8d 85 d8 f1 ff ff 	lea    -0xe28(%rbp),%rax
    ce11:	48 89 85 28 f3 ff ff 	mov    %rax,-0xcd8(%rbp)
    ce18:	48 8d 05 25 72 00 00 	lea    0x7225(%rip),%rax        # 14044 <g_161>
    ce1f:	48 89 85 30 f3 ff ff 	mov    %rax,-0xcd0(%rbp)
    ce26:	48 8d 85 00 f6 ff ff 	lea    -0xa00(%rbp),%rax
    ce2d:	48 05 a8 00 00 00    	add    $0xa8,%rax
    ce33:	48 89 85 40 f2 ff ff 	mov    %rax,-0xdc0(%rbp)
    ce3a:	48 8d 85 40 f2 ff ff 	lea    -0xdc0(%rbp),%rax
    ce41:	48 89 85 38 f3 ff ff 	mov    %rax,-0xcc8(%rbp)
    ce48:	c6 85 d9 f1 ff ff 82 	movb   $0x82,-0xe27(%rbp)
    ce4f:	8b 85 e0 f1 ff ff    	mov    -0xe20(%rbp),%eax
    ce55:	48 98                	cltq   
    ce57:	be 01 00 00 00       	mov    $0x1,%esi
    ce5c:	48 89 c7             	mov    %rax,%rdi
    ce5f:	e8 e7 c1 ff ff       	callq  904b <safe_sub_func_uint64_t_u_u>
    ce64:	89 85 e0 f1 ff ff    	mov    %eax,-0xe20(%rbp)
    ce6a:	8b 85 e0 f1 ff ff    	mov    -0xe20(%rbp),%eax
    ce70:	83 f8 f2             	cmp    $0xfffffff2,%eax
    ce73:	0f 84 75 ff ff ff    	je     cdee <func_69+0xe64>
    ce79:	48 8b 05 a8 71 00 00 	mov    0x71a8(%rip),%rax        # 14028 <g_50>
    ce80:	48 83 e8 01          	sub    $0x1,%rax
    ce84:	48 89 05 9d 71 00 00 	mov    %rax,0x719d(%rip)        # 14028 <g_50>
    ce8b:	48 8b 05 96 71 00 00 	mov    0x7196(%rip),%rax        # 14028 <g_50>
    ce92:	48 83 f8 ef          	cmp    $0xffffffffffffffef,%rax
    ce96:	0f 85 cf f1 ff ff    	jne    c06b <func_69+0xe1>
    ce9c:	48 8b 85 68 f2 ff ff 	mov    -0xd98(%rbp),%rax
    cea3:	8b 10                	mov    (%rax),%edx
    cea5:	48 8b 85 28 f2 ff ff 	mov    -0xdd8(%rbp),%rax
    ceac:	48 8b 00             	mov    (%rax),%rax
    ceaf:	8b 00                	mov    (%rax),%eax
    ceb1:	31 c2                	xor    %eax,%edx
    ceb3:	48 8b 85 68 f2 ff ff 	mov    -0xd98(%rbp),%rax
    ceba:	89 10                	mov    %edx,(%rax)
    cebc:	c6 05 85 71 00 00 00 	movb   $0x0,0x7185(%rip)        # 14048 <g_170>
    cec3:	90                   	nop
    cec4:	0f b6 05 7d 71 00 00 	movzbl 0x717d(%rip),%eax        # 14048 <g_170>
    cecb:	84 c0                	test   %al,%al
    cecd:	0f 85 86 00 00 00    	jne    cf59 <func_69+0xfcf>
    ced3:	48 c7 85 78 f2 ff ff 	movq   $0x0,-0xd88(%rbp)
    ceda:	00 00 00 00 
    cede:	c7 85 f8 f1 ff ff 08 	movl   $0x8,-0xe08(%rbp)
    cee5:	00 00 00 
    cee8:	48 c7 85 80 f2 ff ff 	movq   $0x0,-0xd80(%rbp)
    ceef:	00 00 00 00 
    cef3:	66 c7 85 dc f1 ff ff 	movw   $0xfff7,-0xe24(%rbp)
    cefa:	f7 ff 
    cefc:	c7 85 f0 f1 ff ff 00 	movl   $0x0,-0xe10(%rbp)
    cf03:	00 00 00 
    cf06:	eb 1b                	jmp    cf23 <func_69+0xf99>
    cf08:	8b 85 f0 f1 ff ff    	mov    -0xe10(%rbp),%eax
    cf0e:	48 98                	cltq   
    cf10:	48 c7 84 c5 10 fc ff 	movq   $0x0,-0x3f0(%rbp,%rax,8)
    cf17:	ff 00 00 00 00 
    cf1c:	83 85 f0 f1 ff ff 01 	addl   $0x1,-0xe10(%rbp)
    cf23:	83 bd f0 f1 ff ff 05 	cmpl   $0x5,-0xe10(%rbp)
    cf2a:	7e dc                	jle    cf08 <func_69+0xf7e>
    cf2c:	48 8b 05 55 86 00 00 	mov    0x8655(%rip),%rax        # 15588 <g_269>
    cf33:	8b 15 90 71 00 00    	mov    0x7190(%rip),%edx        # 140c9 <g_266+0x69>
    cf39:	89 10                	mov    %edx,(%rax)
    cf3b:	0f b6 15 8b 71 00 00 	movzbl 0x718b(%rip),%edx        # 140cd <g_266+0x6d>
    cf42:	88 50 04             	mov    %dl,0x4(%rax)
    cf45:	48 83 ad 70 f2 ff ff 	subq   $0x1,-0xd90(%rbp)
    cf4c:	01 
    cf4d:	0f b7 05 ec 70 00 00 	movzwl 0x70ec(%rip),%eax        # 14040 <g_154>
    cf54:	0f b7 c0             	movzwl %ax,%eax
    cf57:	eb 07                	jmp    cf60 <func_69+0xfd6>
    cf59:	0f bf 85 cc f1 ff ff 	movswl -0xe34(%rbp),%eax
    cf60:	48 8b 5d d8          	mov    -0x28(%rbp),%rbx
    cf64:	64 48 33 1c 25 28 00 	xor    %fs:0x28,%rbx
    cf6b:	00 00 
    cf6d:	74 05                	je     cf74 <func_69+0xfea>
    cf6f:	e8 fc b0 ff ff       	callq  8070 <__stack_chk_fail@plt>
    cf74:	48 81 c4 28 0e 00 00 	add    $0xe28,%rsp
    cf7b:	5b                   	pop    %rbx
    cf7c:	41 5c                	pop    %r12
    cf7e:	41 5d                	pop    %r13
    cf80:	5d                   	pop    %rbp
    cf81:	c3                   	retq   

000000000000cf82 <func_82>:
    cf82:	f3 0f 1e fa          	endbr64 
    cf86:	55                   	push   %rbp
    cf87:	48 89 e5             	mov    %rsp,%rbp
    cf8a:	89 7d ec             	mov    %edi,-0x14(%rbp)
    cf8d:	c7 45 ec 00 00 00 00 	movl   $0x0,-0x14(%rbp)
    cf94:	83 7d ec 03          	cmpl   $0x3,-0x14(%rbp)
    cf98:	75 0c                	jne    cfa6 <func_82+0x24>
    cf9a:	66 c7 45 fe 07 00    	movw   $0x7,-0x2(%rbp)
    cfa0:	0f b7 45 fe          	movzwl -0x2(%rbp),%eax
    cfa4:	eb 07                	jmp    cfad <func_82+0x2b>
    cfa6:	48 8b 05 7b 70 00 00 	mov    0x707b(%rip),%rax        # 14028 <g_50>
    cfad:	5d                   	pop    %rbp
    cfae:	c3                   	retq   

000000000000cfaf <main>:
    cfaf:	f3 0f 1e fa          	endbr64 
    cfb3:	55                   	push   %rbp
    cfb4:	48 89 e5             	mov    %rsp,%rbp
    cfb7:	48 83 ec 20          	sub    $0x20,%rsp
    cfbb:	89 7d ec             	mov    %edi,-0x14(%rbp)
    cfbe:	48 89 75 e0          	mov    %rsi,-0x20(%rbp)
    cfc2:	c7 45 fc 00 00 00 00 	movl   $0x0,-0x4(%rbp)
    cfc9:	83 7d ec 02          	cmpl   $0x2,-0x14(%rbp)
    cfcd:	75 25                	jne    cff4 <main+0x45>
    cfcf:	48 8b 45 e0          	mov    -0x20(%rbp),%rax
    cfd3:	48 83 c0 08          	add    $0x8,%rax
    cfd7:	48 8b 00             	mov    (%rax),%rax
    cfda:	48 8d 35 e3 3b 00 00 	lea    0x3be3(%rip),%rsi        # 10bc4 <g_1837+0xb30>
    cfe1:	48 89 c7             	mov    %rax,%rdi
    cfe4:	e8 a7 b0 ff ff       	callq  8090 <strcmp@plt>
    cfe9:	85 c0                	test   %eax,%eax
    cfeb:	75 07                	jne    cff4 <main+0x45>
    cfed:	c7 45 fc 01 00 00 00 	movl   $0x1,-0x4(%rbp)
    cff4:	e8 90 b1 ff ff       	callq  8189 <platform_main_begin>
    cff9:	e8 9a c5 ff ff       	callq  9598 <crc32_gentab>
    cffe:	e8 b2 c7 ff ff       	callq  97b5 <func_1>
    d003:	b8 00 00 00 00       	mov    $0x0,%eax
    d008:	89 c1                	mov    %eax,%ecx
    d00a:	8b 45 fc             	mov    -0x4(%rbp),%eax
    d00d:	89 c2                	mov    %eax,%edx
    d00f:	48 8d 35 b0 3b 00 00 	lea    0x3bb0(%rip),%rsi        # 10bc6 <g_1837+0xb32>
    d016:	48 89 cf             	mov    %rcx,%rdi
    d019:	e8 d5 c6 ff ff       	callq  96f3 <transparent_crc>
    d01e:	8b 05 00 70 00 00    	mov    0x7000(%rip),%eax        # 14024 <g_22>
    d024:	48 98                	cltq   
    d026:	8b 55 fc             	mov    -0x4(%rbp),%edx
    d029:	48 8d 35 9a 3b 00 00 	lea    0x3b9a(%rip),%rsi        # 10bca <g_1837+0xb36>
    d030:	48 89 c7             	mov    %rax,%rdi
    d033:	e8 bb c6 ff ff       	callq  96f3 <transparent_crc>
    d038:	48 8b 05 e9 6f 00 00 	mov    0x6fe9(%rip),%rax        # 14028 <g_50>
    d03f:	48 89 c1             	mov    %rax,%rcx
    d042:	8b 45 fc             	mov    -0x4(%rbp),%eax
    d045:	89 c2                	mov    %eax,%edx
    d047:	48 8d 35 81 3b 00 00 	lea    0x3b81(%rip),%rsi        # 10bcf <g_1837+0xb3b>
    d04e:	48 89 cf             	mov    %rcx,%rdi
    d051:	e8 9d c6 ff ff       	callq  96f3 <transparent_crc>
    d056:	8b 05 6c ac 00 00    	mov    0xac6c(%rip),%eax        # 17cc8 <g_75>
    d05c:	89 c1                	mov    %eax,%ecx
    d05e:	8b 45 fc             	mov    -0x4(%rbp),%eax
    d061:	89 c2                	mov    %eax,%edx
    d063:	48 8d 35 6a 3b 00 00 	lea    0x3b6a(%rip),%rsi        # 10bd4 <g_1837+0xb40>
    d06a:	48 89 cf             	mov    %rcx,%rdi
    d06d:	e8 81 c6 ff ff       	callq  96f3 <transparent_crc>
    d072:	8b 05 b8 6f 00 00    	mov    0x6fb8(%rip),%eax        # 14030 <g_92>
    d078:	89 c1                	mov    %eax,%ecx
    d07a:	8b 45 fc             	mov    -0x4(%rbp),%eax
    d07d:	89 c2                	mov    %eax,%edx
    d07f:	48 8d 35 53 3b 00 00 	lea    0x3b53(%rip),%rsi        # 10bd9 <g_1837+0xb45>
    d086:	48 89 cf             	mov    %rcx,%rdi
    d089:	e8 65 c6 ff ff       	callq  96f3 <transparent_crc>
    d08e:	0f b7 05 9f 6f 00 00 	movzwl 0x6f9f(%rip),%eax        # 14034 <g_98>
    d095:	0f b7 c0             	movzwl %ax,%eax
    d098:	8b 55 fc             	mov    -0x4(%rbp),%edx
    d09b:	48 8d 35 3c 3b 00 00 	lea    0x3b3c(%rip),%rsi        # 10bde <g_1837+0xb4a>
    d0a2:	48 89 c7             	mov    %rax,%rdi
    d0a5:	e8 49 c6 ff ff       	callq  96f3 <transparent_crc>
    d0aa:	0f b6 05 85 6f 00 00 	movzbl 0x6f85(%rip),%eax        # 14036 <g_103>
    d0b1:	0f b6 c0             	movzbl %al,%eax
    d0b4:	8b 55 fc             	mov    -0x4(%rbp),%edx
    d0b7:	48 8d 35 25 3b 00 00 	lea    0x3b25(%rip),%rsi        # 10be3 <g_1837+0xb4f>
    d0be:	48 89 c7             	mov    %rax,%rdi
    d0c1:	e8 2d c6 ff ff       	callq  96f3 <transparent_crc>
    d0c6:	b8 00 00 00 00       	mov    $0x0,%eax
    d0cb:	0f b7 c0             	movzwl %ax,%eax
    d0ce:	8b 55 fc             	mov    -0x4(%rbp),%edx
    d0d1:	48 8d 35 11 3b 00 00 	lea    0x3b11(%rip),%rsi        # 10be9 <g_1837+0xb55>
    d0d8:	48 89 c7             	mov    %rax,%rdi
    d0db:	e8 13 c6 ff ff       	callq  96f3 <transparent_crc>
    d0e0:	48 8b 05 51 6f 00 00 	mov    0x6f51(%rip),%rax        # 14038 <g_112>
    d0e7:	8b 55 fc             	mov    -0x4(%rbp),%edx
    d0ea:	48 8d 35 fe 3a 00 00 	lea    0x3afe(%rip),%rsi        # 10bef <g_1837+0xb5b>
    d0f1:	48 89 c7             	mov    %rax,%rdi
    d0f4:	e8 fa c5 ff ff       	callq  96f3 <transparent_crc>
    d0f9:	8b 05 41 6f 00 00    	mov    0x6f41(%rip),%eax        # 14040 <g_154>
    d0ff:	48 98                	cltq   
    d101:	8b 55 fc             	mov    -0x4(%rbp),%edx
    d104:	48 8d 35 ea 3a 00 00 	lea    0x3aea(%rip),%rsi        # 10bf5 <g_1837+0xb61>
    d10b:	48 89 c7             	mov    %rax,%rdi
    d10e:	e8 e0 c5 ff ff       	callq  96f3 <transparent_crc>
    d113:	8b 05 27 6f 00 00    	mov    0x6f27(%rip),%eax        # 14040 <g_154>
    d119:	c1 e0 03             	shl    $0x3,%eax
    d11c:	c1 f8 03             	sar    $0x3,%eax
    d11f:	48 98                	cltq   
    d121:	8b 55 fc             	mov    -0x4(%rbp),%edx
    d124:	48 8d 35 d3 3a 00 00 	lea    0x3ad3(%rip),%rsi        # 10bfe <g_1837+0xb6a>
    d12b:	48 89 c7             	mov    %rax,%rdi
    d12e:	e8 c0 c5 ff ff       	callq  96f3 <transparent_crc>
    d133:	8b 05 07 6f 00 00    	mov    0x6f07(%rip),%eax        # 14040 <g_154>
    d139:	89 c1                	mov    %eax,%ecx
    d13b:	8b 45 fc             	mov    -0x4(%rbp),%eax
    d13e:	89 c2                	mov    %eax,%edx
    d140:	48 8d 35 c0 3a 00 00 	lea    0x3ac0(%rip),%rsi        # 10c07 <g_1837+0xb73>
    d147:	48 89 cf             	mov    %rcx,%rdi
    d14a:	e8 a4 c5 ff ff       	callq  96f3 <transparent_crc>
    d14f:	0f b7 05 ea 6e 00 00 	movzwl 0x6eea(%rip),%eax        # 14040 <g_154>
    d156:	0f b7 c0             	movzwl %ax,%eax
    d159:	8b 55 fc             	mov    -0x4(%rbp),%edx
    d15c:	48 8d 35 ad 3a 00 00 	lea    0x3aad(%rip),%rsi        # 10c10 <g_1837+0xb7c>
    d163:	48 89 c7             	mov    %rax,%rdi
    d166:	e8 88 c5 ff ff       	callq  96f3 <transparent_crc>
    d16b:	8b 05 d3 6e 00 00    	mov    0x6ed3(%rip),%eax        # 14044 <g_161>
    d171:	48 98                	cltq   
    d173:	8b 55 fc             	mov    -0x4(%rbp),%edx
    d176:	48 8d 35 9c 3a 00 00 	lea    0x3a9c(%rip),%rsi        # 10c19 <g_1837+0xb85>
    d17d:	48 89 c7             	mov    %rax,%rdi
    d180:	e8 6e c5 ff ff       	callq  96f3 <transparent_crc>
    d185:	0f b6 05 bc 6e 00 00 	movzbl 0x6ebc(%rip),%eax        # 14048 <g_170>
    d18c:	0f b6 c0             	movzbl %al,%eax
    d18f:	8b 55 fc             	mov    -0x4(%rbp),%edx
    d192:	48 8d 35 86 3a 00 00 	lea    0x3a86(%rip),%rsi        # 10c1f <g_1837+0xb8b>
    d199:	48 89 c7             	mov    %rax,%rdi
    d19c:	e8 52 c5 ff ff       	callq  96f3 <transparent_crc>
    d1a1:	0f b6 05 a1 6e 00 00 	movzbl 0x6ea1(%rip),%eax        # 14049 <g_174>
    d1a8:	0f b6 c0             	movzbl %al,%eax
    d1ab:	8b 55 fc             	mov    -0x4(%rbp),%edx
    d1ae:	48 8d 35 70 3a 00 00 	lea    0x3a70(%rip),%rsi        # 10c25 <g_1837+0xb91>
    d1b5:	48 89 c7             	mov    %rax,%rdi
    d1b8:	e8 36 c5 ff ff       	callq  96f3 <transparent_crc>
    d1bd:	0f b6 05 86 6e 00 00 	movzbl 0x6e86(%rip),%eax        # 1404a <g_185>
    d1c4:	0f b6 c0             	movzbl %al,%eax
    d1c7:	8b 55 fc             	mov    -0x4(%rbp),%edx
    d1ca:	48 8d 35 5a 3a 00 00 	lea    0x3a5a(%rip),%rsi        # 10c2b <g_1837+0xb97>
    d1d1:	48 89 c7             	mov    %rax,%rdi
    d1d4:	e8 1a c5 ff ff       	callq  96f3 <transparent_crc>
    d1d9:	48 8b 05 70 6e 00 00 	mov    0x6e70(%rip),%rax        # 14050 <g_197>
    d1e0:	48 89 c1             	mov    %rax,%rcx
    d1e3:	8b 45 fc             	mov    -0x4(%rbp),%eax
    d1e6:	89 c2                	mov    %eax,%edx
    d1e8:	48 8d 35 42 3a 00 00 	lea    0x3a42(%rip),%rsi        # 10c31 <g_1837+0xb9d>
    d1ef:	48 89 cf             	mov    %rcx,%rdi
    d1f2:	e8 fc c4 ff ff       	callq  96f3 <transparent_crc>
    d1f7:	8b 05 5b 6e 00 00    	mov    0x6e5b(%rip),%eax        # 14058 <g_210>
    d1fd:	48 98                	cltq   
    d1ff:	8b 55 fc             	mov    -0x4(%rbp),%edx
    d202:	48 8d 35 2e 3a 00 00 	lea    0x3a2e(%rip),%rsi        # 10c37 <g_1837+0xba3>
    d209:	48 89 c7             	mov    %rax,%rdi
    d20c:	e8 e2 c4 ff ff       	callq  96f3 <transparent_crc>
    d211:	8b 05 41 6e 00 00    	mov    0x6e41(%rip),%eax        # 14058 <g_210>
    d217:	c1 e0 03             	shl    $0x3,%eax
    d21a:	c1 f8 03             	sar    $0x3,%eax
    d21d:	48 98                	cltq   
    d21f:	8b 55 fc             	mov    -0x4(%rbp),%edx
    d222:	48 8d 35 17 3a 00 00 	lea    0x3a17(%rip),%rsi        # 10c40 <g_1837+0xbac>
    d229:	48 89 c7             	mov    %rax,%rdi
    d22c:	e8 c2 c4 ff ff       	callq  96f3 <transparent_crc>
    d231:	8b 05 21 6e 00 00    	mov    0x6e21(%rip),%eax        # 14058 <g_210>
    d237:	89 c1                	mov    %eax,%ecx
    d239:	8b 45 fc             	mov    -0x4(%rbp),%eax
    d23c:	89 c2                	mov    %eax,%edx
    d23e:	48 8d 35 04 3a 00 00 	lea    0x3a04(%rip),%rsi        # 10c49 <g_1837+0xbb5>
    d245:	48 89 cf             	mov    %rcx,%rdi
    d248:	e8 a6 c4 ff ff       	callq  96f3 <transparent_crc>
    d24d:	0f b7 05 04 6e 00 00 	movzwl 0x6e04(%rip),%eax        # 14058 <g_210>
    d254:	0f b7 c0             	movzwl %ax,%eax
    d257:	8b 55 fc             	mov    -0x4(%rbp),%edx
    d25a:	48 8d 35 f1 39 00 00 	lea    0x39f1(%rip),%rsi        # 10c52 <g_1837+0xbbe>
    d261:	48 89 c7             	mov    %rax,%rdi
    d264:	e8 8a c4 ff ff       	callq  96f3 <transparent_crc>
    d269:	8b 05 89 aa 00 00    	mov    0xaa89(%rip),%eax        # 17cf8 <g_240>
    d26f:	89 c1                	mov    %eax,%ecx
    d271:	8b 45 fc             	mov    -0x4(%rbp),%eax
    d274:	89 c2                	mov    %eax,%edx
    d276:	48 8d 35 de 39 00 00 	lea    0x39de(%rip),%rsi        # 10c5b <g_1837+0xbc7>
    d27d:	48 89 cf             	mov    %rcx,%rdi
    d280:	e8 6e c4 ff ff       	callq  96f3 <transparent_crc>
    d285:	c7 45 f0 00 00 00 00 	movl   $0x0,-0x10(%rbp)
    d28c:	e9 33 01 00 00       	jmpq   d3c4 <main+0x415>
    d291:	c7 45 f4 00 00 00 00 	movl   $0x0,-0xc(%rbp)
    d298:	e9 19 01 00 00       	jmpq   d3b6 <main+0x407>
    d29d:	8b 45 f4             	mov    -0xc(%rbp),%eax
    d2a0:	48 98                	cltq   
    d2a2:	8b 55 f0             	mov    -0x10(%rbp),%edx
    d2a5:	48 63 ca             	movslq %edx,%rcx
    d2a8:	48 89 c2             	mov    %rax,%rdx
    d2ab:	48 c1 e2 02          	shl    $0x2,%rdx
    d2af:	48 01 c2             	add    %rax,%rdx
    d2b2:	48 89 c8             	mov    %rcx,%rax
    d2b5:	48 c1 e0 02          	shl    $0x2,%rax
    d2b9:	48 01 c8             	add    %rcx,%rax
    d2bc:	48 8d 0c 85 00 00 00 	lea    0x0(,%rax,4),%rcx
    d2c3:	00 
    d2c4:	48 01 c8             	add    %rcx,%rax
    d2c7:	48 01 c0             	add    %rax,%rax
    d2ca:	48 01 c2             	add    %rax,%rdx
    d2cd:	48 8d 05 8c 6d 00 00 	lea    0x6d8c(%rip),%rax        # 14060 <g_266>
    d2d4:	48 01 d0             	add    %rdx,%rax
    d2d7:	0f b6 10             	movzbl (%rax),%edx
    d2da:	0f b6 d2             	movzbl %dl,%edx
    d2dd:	0f b6 48 01          	movzbl 0x1(%rax),%ecx
    d2e1:	0f b6 c9             	movzbl %cl,%ecx
    d2e4:	48 c1 e1 08          	shl    $0x8,%rcx
    d2e8:	48 09 d1             	or     %rdx,%rcx
    d2eb:	0f b6 50 02          	movzbl 0x2(%rax),%edx
    d2ef:	0f b6 d2             	movzbl %dl,%edx
    d2f2:	48 c1 e2 10          	shl    $0x10,%rdx
    d2f6:	48 09 ca             	or     %rcx,%rdx
    d2f9:	0f b6 40 03          	movzbl 0x3(%rax),%eax
    d2fd:	0f b6 c0             	movzbl %al,%eax
    d300:	83 e0 07             	and    $0x7,%eax
    d303:	48 c1 e0 18          	shl    $0x18,%rax
    d307:	48 09 d0             	or     %rdx,%rax
    d30a:	89 c1                	mov    %eax,%ecx
    d30c:	8b 45 fc             	mov    -0x4(%rbp),%eax
    d30f:	89 c2                	mov    %eax,%edx
    d311:	48 8d 35 49 39 00 00 	lea    0x3949(%rip),%rsi        # 10c61 <g_1837+0xbcd>
    d318:	48 89 cf             	mov    %rcx,%rdi
    d31b:	e8 d3 c3 ff ff       	callq  96f3 <transparent_crc>
    d320:	8b 45 f4             	mov    -0xc(%rbp),%eax
    d323:	48 98                	cltq   
    d325:	8b 55 f0             	mov    -0x10(%rbp),%edx
    d328:	48 63 ca             	movslq %edx,%rcx
    d32b:	48 89 c2             	mov    %rax,%rdx
    d32e:	48 c1 e2 02          	shl    $0x2,%rdx
    d332:	48 01 c2             	add    %rax,%rdx
    d335:	48 89 c8             	mov    %rcx,%rax
    d338:	48 c1 e0 02          	shl    $0x2,%rax
    d33c:	48 01 c8             	add    %rcx,%rax
    d33f:	48 8d 0c 85 00 00 00 	lea    0x0(,%rax,4),%rcx
    d346:	00 
    d347:	48 01 c8             	add    %rcx,%rax
    d34a:	48 01 c0             	add    %rax,%rax
    d34d:	48 01 c2             	add    %rax,%rdx
    d350:	48 8d 05 09 6d 00 00 	lea    0x6d09(%rip),%rax        # 14060 <g_266>
    d357:	48 01 d0             	add    %rdx,%rax
    d35a:	0f b6 50 03          	movzbl 0x3(%rax),%edx
    d35e:	c0 ea 03             	shr    $0x3,%dl
    d361:	0f b6 d2             	movzbl %dl,%edx
    d364:	0f b6 40 04          	movzbl 0x4(%rax),%eax
    d368:	0f b6 c0             	movzbl %al,%eax
    d36b:	83 e0 01             	and    $0x1,%eax
    d36e:	48 c1 e0 05          	shl    $0x5,%rax
    d372:	48 09 d0             	or     %rdx,%rax
    d375:	48 c1 e0 3a          	shl    $0x3a,%rax
    d379:	48 c1 f8 3a          	sar    $0x3a,%rax
    d37d:	48 0f be c0          	movsbq %al,%rax
    d381:	8b 55 fc             	mov    -0x4(%rbp),%edx
    d384:	48 8d 35 e5 38 00 00 	lea    0x38e5(%rip),%rsi        # 10c70 <g_1837+0xbdc>
    d38b:	48 89 c7             	mov    %rax,%rdi
    d38e:	e8 60 c3 ff ff       	callq  96f3 <transparent_crc>
    d393:	83 7d fc 00          	cmpl   $0x0,-0x4(%rbp)
    d397:	74 19                	je     d3b2 <main+0x403>
    d399:	8b 55 f4             	mov    -0xc(%rbp),%edx
    d39c:	8b 45 f0             	mov    -0x10(%rbp),%eax
    d39f:	89 c6                	mov    %eax,%esi
    d3a1:	48 8d 3d d7 38 00 00 	lea    0x38d7(%rip),%rdi        # 10c7f <g_1837+0xbeb>
    d3a8:	b8 00 00 00 00       	mov    $0x0,%eax
    d3ad:	e8 ce ac ff ff       	callq  8080 <printf@plt>
    d3b2:	83 45 f4 01          	addl   $0x1,-0xc(%rbp)
    d3b6:	83 7d f4 09          	cmpl   $0x9,-0xc(%rbp)
    d3ba:	0f 8e dd fe ff ff    	jle    d29d <main+0x2ee>
    d3c0:	83 45 f0 01          	addl   $0x1,-0x10(%rbp)
    d3c4:	83 7d f0 09          	cmpl   $0x9,-0x10(%rbp)
    d3c8:	0f 8e c3 fe ff ff    	jle    d291 <main+0x2e2>
    d3ce:	48 8b 05 83 6e 00 00 	mov    0x6e83(%rip),%rax        # 14258 <g_279>
    d3d5:	48 89 c1             	mov    %rax,%rcx
    d3d8:	8b 45 fc             	mov    -0x4(%rbp),%eax
    d3db:	89 c2                	mov    %eax,%edx
    d3dd:	48 8d 35 ad 38 00 00 	lea    0x38ad(%rip),%rsi        # 10c91 <g_1837+0xbfd>
    d3e4:	48 89 cf             	mov    %rcx,%rdi
    d3e7:	e8 07 c3 ff ff       	callq  96f3 <transparent_crc>
    d3ec:	0f b6 05 6d 6e 00 00 	movzbl 0x6e6d(%rip),%eax        # 14260 <g_291>
    d3f3:	0f b6 c0             	movzbl %al,%eax
    d3f6:	0f b6 15 64 6e 00 00 	movzbl 0x6e64(%rip),%edx        # 14261 <g_291+0x1>
    d3fd:	0f b6 d2             	movzbl %dl,%edx
    d400:	48 c1 e2 08          	shl    $0x8,%rdx
    d404:	48 09 c2             	or     %rax,%rdx
    d407:	0f b6 05 54 6e 00 00 	movzbl 0x6e54(%rip),%eax        # 14262 <g_291+0x2>
    d40e:	0f b6 c0             	movzbl %al,%eax
    d411:	48 c1 e0 10          	shl    $0x10,%rax
    d415:	48 09 c2             	or     %rax,%rdx
    d418:	0f b6 05 44 6e 00 00 	movzbl 0x6e44(%rip),%eax        # 14263 <g_291+0x3>
    d41f:	0f b6 c0             	movzbl %al,%eax
    d422:	83 e0 07             	and    $0x7,%eax
    d425:	48 c1 e0 18          	shl    $0x18,%rax
    d429:	48 09 d0             	or     %rdx,%rax
    d42c:	89 c1                	mov    %eax,%ecx
    d42e:	8b 45 fc             	mov    -0x4(%rbp),%eax
    d431:	89 c2                	mov    %eax,%edx
    d433:	48 8d 35 5d 38 00 00 	lea    0x385d(%rip),%rsi        # 10c97 <g_1837+0xc03>
    d43a:	48 89 cf             	mov    %rcx,%rdi
    d43d:	e8 b1 c2 ff ff       	callq  96f3 <transparent_crc>
    d442:	0f b6 05 1a 6e 00 00 	movzbl 0x6e1a(%rip),%eax        # 14263 <g_291+0x3>
    d449:	c0 e8 03             	shr    $0x3,%al
    d44c:	0f b6 c0             	movzbl %al,%eax
    d44f:	0f b6 15 0e 6e 00 00 	movzbl 0x6e0e(%rip),%edx        # 14264 <g_291+0x4>
    d456:	0f b6 d2             	movzbl %dl,%edx
    d459:	83 e2 01             	and    $0x1,%edx
    d45c:	48 c1 e2 05          	shl    $0x5,%rdx
    d460:	48 09 d0             	or     %rdx,%rax
    d463:	48 c1 e0 3a          	shl    $0x3a,%rax
    d467:	48 c1 f8 3a          	sar    $0x3a,%rax
    d46b:	48 0f be c0          	movsbq %al,%rax
    d46f:	8b 55 fc             	mov    -0x4(%rbp),%edx
    d472:	48 8d 35 27 38 00 00 	lea    0x3827(%rip),%rsi        # 10ca0 <g_1837+0xc0c>
    d479:	48 89 c7             	mov    %rax,%rdi
    d47c:	e8 72 c2 ff ff       	callq  96f3 <transparent_crc>
    d481:	0f b7 05 de 6d 00 00 	movzwl 0x6dde(%rip),%eax        # 14266 <g_317>
    d488:	48 0f bf c0          	movswq %ax,%rax
    d48c:	8b 55 fc             	mov    -0x4(%rbp),%edx
    d48f:	48 8d 35 13 38 00 00 	lea    0x3813(%rip),%rsi        # 10ca9 <g_1837+0xc15>
    d496:	48 89 c7             	mov    %rax,%rdi
    d499:	e8 55 c2 ff ff       	callq  96f3 <transparent_crc>
    d49e:	0f b6 05 c3 6d 00 00 	movzbl 0x6dc3(%rip),%eax        # 14268 <g_333>
    d4a5:	48 0f be c0          	movsbq %al,%rax
    d4a9:	8b 55 fc             	mov    -0x4(%rbp),%edx
    d4ac:	48 8d 35 fc 37 00 00 	lea    0x37fc(%rip),%rsi        # 10caf <g_1837+0xc1b>
    d4b3:	48 89 c7             	mov    %rax,%rdi
    d4b6:	e8 38 c2 ff ff       	callq  96f3 <transparent_crc>
    d4bb:	0f b7 05 a8 6d 00 00 	movzwl 0x6da8(%rip),%eax        # 1426a <g_339>
    d4c2:	48 0f bf c0          	movswq %ax,%rax
    d4c6:	8b 55 fc             	mov    -0x4(%rbp),%edx
    d4c9:	48 8d 35 e5 37 00 00 	lea    0x37e5(%rip),%rsi        # 10cb5 <g_1837+0xc21>
    d4d0:	48 89 c7             	mov    %rax,%rdi
    d4d3:	e8 1b c2 ff ff       	callq  96f3 <transparent_crc>
    d4d8:	0f b6 05 8d 6d 00 00 	movzbl 0x6d8d(%rip),%eax        # 1426c <g_364>
    d4df:	0f b6 c0             	movzbl %al,%eax
    d4e2:	0f b6 15 84 6d 00 00 	movzbl 0x6d84(%rip),%edx        # 1426d <g_364+0x1>
    d4e9:	0f b6 d2             	movzbl %dl,%edx
    d4ec:	48 c1 e2 08          	shl    $0x8,%rdx
    d4f0:	48 09 c2             	or     %rax,%rdx
    d4f3:	0f b6 05 74 6d 00 00 	movzbl 0x6d74(%rip),%eax        # 1426e <g_364+0x2>
    d4fa:	0f b6 c0             	movzbl %al,%eax
    d4fd:	48 c1 e0 10          	shl    $0x10,%rax
    d501:	48 09 c2             	or     %rax,%rdx
    d504:	0f b6 05 64 6d 00 00 	movzbl 0x6d64(%rip),%eax        # 1426f <g_364+0x3>
    d50b:	0f b6 c0             	movzbl %al,%eax
    d50e:	83 e0 07             	and    $0x7,%eax
    d511:	48 c1 e0 18          	shl    $0x18,%rax
    d515:	48 09 d0             	or     %rdx,%rax
    d518:	89 c1                	mov    %eax,%ecx
    d51a:	8b 45 fc             	mov    -0x4(%rbp),%eax
    d51d:	89 c2                	mov    %eax,%edx
    d51f:	48 8d 35 95 37 00 00 	lea    0x3795(%rip),%rsi        # 10cbb <g_1837+0xc27>
    d526:	48 89 cf             	mov    %rcx,%rdi
    d529:	e8 c5 c1 ff ff       	callq  96f3 <transparent_crc>
    d52e:	0f b6 05 3a 6d 00 00 	movzbl 0x6d3a(%rip),%eax        # 1426f <g_364+0x3>
    d535:	c0 e8 03             	shr    $0x3,%al
    d538:	0f b6 c0             	movzbl %al,%eax
    d53b:	0f b6 15 2e 6d 00 00 	movzbl 0x6d2e(%rip),%edx        # 14270 <g_364+0x4>
    d542:	0f b6 d2             	movzbl %dl,%edx
    d545:	83 e2 01             	and    $0x1,%edx
    d548:	48 c1 e2 05          	shl    $0x5,%rdx
    d54c:	48 09 d0             	or     %rdx,%rax
    d54f:	48 c1 e0 3a          	shl    $0x3a,%rax
    d553:	48 c1 f8 3a          	sar    $0x3a,%rax
    d557:	48 0f be c0          	movsbq %al,%rax
    d55b:	8b 55 fc             	mov    -0x4(%rbp),%edx
    d55e:	48 8d 35 5f 37 00 00 	lea    0x375f(%rip),%rsi        # 10cc4 <g_1837+0xc30>
    d565:	48 89 c7             	mov    %rax,%rdi
    d568:	e8 86 c1 ff ff       	callq  96f3 <transparent_crc>
    d56d:	0f b7 05 fe 6c 00 00 	movzwl 0x6cfe(%rip),%eax        # 14272 <g_371>
    d574:	48 0f bf c0          	movswq %ax,%rax
    d578:	8b 55 fc             	mov    -0x4(%rbp),%edx
    d57b:	48 8d 35 4b 37 00 00 	lea    0x374b(%rip),%rsi        # 10ccd <g_1837+0xc39>
    d582:	48 89 c7             	mov    %rax,%rdi
    d585:	e8 69 c1 ff ff       	callq  96f3 <transparent_crc>
    d58a:	0f b7 05 e3 6c 00 00 	movzwl 0x6ce3(%rip),%eax        # 14274 <g_376>
    d591:	48 0f bf c0          	movswq %ax,%rax
    d595:	8b 55 fc             	mov    -0x4(%rbp),%edx
    d598:	48 8d 35 34 37 00 00 	lea    0x3734(%rip),%rsi        # 10cd3 <g_1837+0xc3f>
    d59f:	48 89 c7             	mov    %rax,%rdi
    d5a2:	e8 4c c1 ff ff       	callq  96f3 <transparent_crc>
    d5a7:	0f b6 05 c8 6c 00 00 	movzbl 0x6cc8(%rip),%eax        # 14276 <g_560>
    d5ae:	0f b6 c0             	movzbl %al,%eax
    d5b1:	0f b6 15 bf 6c 00 00 	movzbl 0x6cbf(%rip),%edx        # 14277 <g_560+0x1>
    d5b8:	0f b6 d2             	movzbl %dl,%edx
    d5bb:	48 c1 e2 08          	shl    $0x8,%rdx
    d5bf:	48 09 c2             	or     %rax,%rdx
    d5c2:	0f b6 05 af 6c 00 00 	movzbl 0x6caf(%rip),%eax        # 14278 <g_560+0x2>
    d5c9:	0f b6 c0             	movzbl %al,%eax
    d5cc:	48 c1 e0 10          	shl    $0x10,%rax
    d5d0:	48 09 c2             	or     %rax,%rdx
    d5d3:	0f b6 05 9f 6c 00 00 	movzbl 0x6c9f(%rip),%eax        # 14279 <g_560+0x3>
    d5da:	0f b6 c0             	movzbl %al,%eax
    d5dd:	83 e0 07             	and    $0x7,%eax
    d5e0:	48 c1 e0 18          	shl    $0x18,%rax
    d5e4:	48 09 d0             	or     %rdx,%rax
    d5e7:	89 c1                	mov    %eax,%ecx
    d5e9:	8b 45 fc             	mov    -0x4(%rbp),%eax
    d5ec:	89 c2                	mov    %eax,%edx
    d5ee:	48 8d 35 e4 36 00 00 	lea    0x36e4(%rip),%rsi        # 10cd9 <g_1837+0xc45>
    d5f5:	48 89 cf             	mov    %rcx,%rdi
    d5f8:	e8 f6 c0 ff ff       	callq  96f3 <transparent_crc>
    d5fd:	0f b6 05 75 6c 00 00 	movzbl 0x6c75(%rip),%eax        # 14279 <g_560+0x3>
    d604:	c0 e8 03             	shr    $0x3,%al
    d607:	0f b6 c0             	movzbl %al,%eax
    d60a:	0f b6 15 69 6c 00 00 	movzbl 0x6c69(%rip),%edx        # 1427a <g_560+0x4>
    d611:	0f b6 d2             	movzbl %dl,%edx
    d614:	83 e2 01             	and    $0x1,%edx
    d617:	48 c1 e2 05          	shl    $0x5,%rdx
    d61b:	48 09 d0             	or     %rdx,%rax
    d61e:	48 c1 e0 3a          	shl    $0x3a,%rax
    d622:	48 c1 f8 3a          	sar    $0x3a,%rax
    d626:	48 0f be c0          	movsbq %al,%rax
    d62a:	8b 55 fc             	mov    -0x4(%rbp),%edx
    d62d:	48 8d 35 ae 36 00 00 	lea    0x36ae(%rip),%rsi        # 10ce2 <g_1837+0xc4e>
    d634:	48 89 c7             	mov    %rax,%rdi
    d637:	e8 b7 c0 ff ff       	callq  96f3 <transparent_crc>
    d63c:	0f b7 05 4d a7 00 00 	movzwl 0xa74d(%rip),%eax        # 17d90 <g_578>
    d643:	48 0f bf c0          	movswq %ax,%rax
    d647:	8b 55 fc             	mov    -0x4(%rbp),%edx
    d64a:	48 8d 35 9a 36 00 00 	lea    0x369a(%rip),%rsi        # 10ceb <g_1837+0xc57>
    d651:	48 89 c7             	mov    %rax,%rdi
    d654:	e8 9a c0 ff ff       	callq  96f3 <transparent_crc>
    d659:	0f b7 05 1c 6c 00 00 	movzwl 0x6c1c(%rip),%eax        # 1427c <g_579>
    d660:	48 0f bf c0          	movswq %ax,%rax
    d664:	8b 55 fc             	mov    -0x4(%rbp),%edx
    d667:	48 8d 35 83 36 00 00 	lea    0x3683(%rip),%rsi        # 10cf1 <g_1837+0xc5d>
    d66e:	48 89 c7             	mov    %rax,%rdi
    d671:	e8 7d c0 ff ff       	callq  96f3 <transparent_crc>
    d676:	0f b7 05 01 6c 00 00 	movzwl 0x6c01(%rip),%eax        # 1427e <g_580>
    d67d:	48 0f bf c0          	movswq %ax,%rax
    d681:	8b 55 fc             	mov    -0x4(%rbp),%edx
    d684:	48 8d 35 6c 36 00 00 	lea    0x366c(%rip),%rsi        # 10cf7 <g_1837+0xc63>
    d68b:	48 89 c7             	mov    %rax,%rdi
    d68e:	e8 60 c0 ff ff       	callq  96f3 <transparent_crc>
    d693:	c7 45 f0 00 00 00 00 	movl   $0x0,-0x10(%rbp)
    d69a:	eb 4a                	jmp    d6e6 <main+0x737>
    d69c:	8b 45 f0             	mov    -0x10(%rbp),%eax
    d69f:	48 98                	cltq   
    d6a1:	48 8d 14 00          	lea    (%rax,%rax,1),%rdx
    d6a5:	48 8d 05 d4 6b 00 00 	lea    0x6bd4(%rip),%rax        # 14280 <g_581>
    d6ac:	0f b7 04 02          	movzwl (%rdx,%rax,1),%eax
    d6b0:	48 0f bf c0          	movswq %ax,%rax
    d6b4:	8b 55 fc             	mov    -0x4(%rbp),%edx
    d6b7:	48 8d 35 3f 36 00 00 	lea    0x363f(%rip),%rsi        # 10cfd <g_1837+0xc69>
    d6be:	48 89 c7             	mov    %rax,%rdi
    d6c1:	e8 2d c0 ff ff       	callq  96f3 <transparent_crc>
    d6c6:	83 7d fc 00          	cmpl   $0x0,-0x4(%rbp)
    d6ca:	74 16                	je     d6e2 <main+0x733>
    d6cc:	8b 45 f0             	mov    -0x10(%rbp),%eax
    d6cf:	89 c6                	mov    %eax,%esi
    d6d1:	48 8d 3d 2e 36 00 00 	lea    0x362e(%rip),%rdi        # 10d06 <g_1837+0xc72>
    d6d8:	b8 00 00 00 00       	mov    $0x0,%eax
    d6dd:	e8 9e a9 ff ff       	callq  8080 <printf@plt>
    d6e2:	83 45 f0 01          	addl   $0x1,-0x10(%rbp)
    d6e6:	83 7d f0 04          	cmpl   $0x4,-0x10(%rbp)
    d6ea:	7e b0                	jle    d69c <main+0x6ed>
    d6ec:	0f b7 05 97 6b 00 00 	movzwl 0x6b97(%rip),%eax        # 1428a <g_582>
    d6f3:	48 0f bf c0          	movswq %ax,%rax
    d6f7:	8b 55 fc             	mov    -0x4(%rbp),%edx
    d6fa:	48 8d 35 13 36 00 00 	lea    0x3613(%rip),%rsi        # 10d14 <g_1837+0xc80>
    d701:	48 89 c7             	mov    %rax,%rdi
    d704:	e8 ea bf ff ff       	callq  96f3 <transparent_crc>
    d709:	c7 45 f0 00 00 00 00 	movl   $0x0,-0x10(%rbp)
    d710:	eb 4a                	jmp    d75c <main+0x7ad>
    d712:	8b 45 f0             	mov    -0x10(%rbp),%eax
    d715:	48 98                	cltq   
    d717:	48 8d 14 00          	lea    (%rax,%rax,1),%rdx
    d71b:	48 8d 05 6e 6b 00 00 	lea    0x6b6e(%rip),%rax        # 14290 <g_583>
    d722:	0f b7 04 02          	movzwl (%rdx,%rax,1),%eax
    d726:	48 0f bf c0          	movswq %ax,%rax
    d72a:	8b 55 fc             	mov    -0x4(%rbp),%edx
    d72d:	48 8d 35 e6 35 00 00 	lea    0x35e6(%rip),%rsi        # 10d1a <g_1837+0xc86>
    d734:	48 89 c7             	mov    %rax,%rdi
    d737:	e8 b7 bf ff ff       	callq  96f3 <transparent_crc>
    d73c:	83 7d fc 00          	cmpl   $0x0,-0x4(%rbp)
    d740:	74 16                	je     d758 <main+0x7a9>
    d742:	8b 45 f0             	mov    -0x10(%rbp),%eax
    d745:	89 c6                	mov    %eax,%esi
    d747:	48 8d 3d b8 35 00 00 	lea    0x35b8(%rip),%rdi        # 10d06 <g_1837+0xc72>
    d74e:	b8 00 00 00 00       	mov    $0x0,%eax
    d753:	e8 28 a9 ff ff       	callq  8080 <printf@plt>
    d758:	83 45 f0 01          	addl   $0x1,-0x10(%rbp)
    d75c:	83 7d f0 08          	cmpl   $0x8,-0x10(%rbp)
    d760:	7e b0                	jle    d712 <main+0x763>
    d762:	0f b7 05 39 6b 00 00 	movzwl 0x6b39(%rip),%eax        # 142a2 <g_584>
    d769:	48 0f bf c0          	movswq %ax,%rax
    d76d:	8b 55 fc             	mov    -0x4(%rbp),%edx
    d770:	48 8d 35 ac 35 00 00 	lea    0x35ac(%rip),%rsi        # 10d23 <g_1837+0xc8f>
    d777:	48 89 c7             	mov    %rax,%rdi
    d77a:	e8 74 bf ff ff       	callq  96f3 <transparent_crc>
    d77f:	0f b7 05 1e 6b 00 00 	movzwl 0x6b1e(%rip),%eax        # 142a4 <g_585>
    d786:	48 0f bf c0          	movswq %ax,%rax
    d78a:	8b 55 fc             	mov    -0x4(%rbp),%edx
    d78d:	48 8d 35 95 35 00 00 	lea    0x3595(%rip),%rsi        # 10d29 <g_1837+0xc95>
    d794:	48 89 c7             	mov    %rax,%rdi
    d797:	e8 57 bf ff ff       	callq  96f3 <transparent_crc>
    d79c:	c7 45 f0 00 00 00 00 	movl   $0x0,-0x10(%rbp)
    d7a3:	e9 9b 00 00 00       	jmpq   d843 <main+0x894>
    d7a8:	c7 45 f4 00 00 00 00 	movl   $0x0,-0xc(%rbp)
    d7af:	e9 81 00 00 00       	jmpq   d835 <main+0x886>
    d7b4:	c7 45 f8 00 00 00 00 	movl   $0x0,-0x8(%rbp)
    d7bb:	eb 6e                	jmp    d82b <main+0x87c>
    d7bd:	8b 45 f8             	mov    -0x8(%rbp),%eax
    d7c0:	48 63 c8             	movslq %eax,%rcx
    d7c3:	8b 45 f0             	mov    -0x10(%rbp),%eax
    d7c6:	48 63 d0             	movslq %eax,%rdx
    d7c9:	8b 45 f4             	mov    -0xc(%rbp),%eax
    d7cc:	48 98                	cltq   
    d7ce:	48 01 c2             	add    %rax,%rdx
    d7d1:	48 89 d0             	mov    %rdx,%rax
    d7d4:	48 01 c0             	add    %rax,%rax
    d7d7:	48 01 d0             	add    %rdx,%rax
    d7da:	48 01 c0             	add    %rax,%rax
    d7dd:	48 01 c8             	add    %rcx,%rax
    d7e0:	48 8d 14 00          	lea    (%rax,%rax,1),%rdx
    d7e4:	48 8d 05 d5 6a 00 00 	lea    0x6ad5(%rip),%rax        # 142c0 <g_586>
    d7eb:	0f b7 04 02          	movzwl (%rdx,%rax,1),%eax
    d7ef:	48 0f bf c0          	movswq %ax,%rax
    d7f3:	8b 55 fc             	mov    -0x4(%rbp),%edx
    d7f6:	48 8d 35 32 35 00 00 	lea    0x3532(%rip),%rsi        # 10d2f <g_1837+0xc9b>
    d7fd:	48 89 c7             	mov    %rax,%rdi
    d800:	e8 ee be ff ff       	callq  96f3 <transparent_crc>
    d805:	83 7d fc 00          	cmpl   $0x0,-0x4(%rbp)
    d809:	74 1c                	je     d827 <main+0x878>
    d80b:	8b 4d f8             	mov    -0x8(%rbp),%ecx
    d80e:	8b 55 f4             	mov    -0xc(%rbp),%edx
    d811:	8b 45 f0             	mov    -0x10(%rbp),%eax
    d814:	89 c6                	mov    %eax,%esi
    d816:	48 8d 3d 21 35 00 00 	lea    0x3521(%rip),%rdi        # 10d3e <g_1837+0xcaa>
    d81d:	b8 00 00 00 00       	mov    $0x0,%eax
    d822:	e8 59 a8 ff ff       	callq  8080 <printf@plt>
    d827:	83 45 f8 01          	addl   $0x1,-0x8(%rbp)
    d82b:	83 7d f8 05          	cmpl   $0x5,-0x8(%rbp)
    d82f:	7e 8c                	jle    d7bd <main+0x80e>
    d831:	83 45 f4 01          	addl   $0x1,-0xc(%rbp)
    d835:	83 7d f4 00          	cmpl   $0x0,-0xc(%rbp)
    d839:	0f 8e 75 ff ff ff    	jle    d7b4 <main+0x805>
    d83f:	83 45 f0 01          	addl   $0x1,-0x10(%rbp)
    d843:	83 7d f0 03          	cmpl   $0x3,-0x10(%rbp)
    d847:	0f 8e 5b ff ff ff    	jle    d7a8 <main+0x7f9>
    d84d:	c7 45 f0 00 00 00 00 	movl   $0x0,-0x10(%rbp)
    d854:	eb 4a                	jmp    d8a0 <main+0x8f1>
    d856:	8b 45 f0             	mov    -0x10(%rbp),%eax
    d859:	48 98                	cltq   
    d85b:	48 8d 14 00          	lea    (%rax,%rax,1),%rdx
    d85f:	48 8d 05 8a 6a 00 00 	lea    0x6a8a(%rip),%rax        # 142f0 <g_587>
    d866:	0f b7 04 02          	movzwl (%rdx,%rax,1),%eax
    d86a:	48 0f bf c0          	movswq %ax,%rax
    d86e:	8b 55 fc             	mov    -0x4(%rbp),%edx
    d871:	48 8d 35 dc 34 00 00 	lea    0x34dc(%rip),%rsi        # 10d54 <g_1837+0xcc0>
    d878:	48 89 c7             	mov    %rax,%rdi
    d87b:	e8 73 be ff ff       	callq  96f3 <transparent_crc>
    d880:	83 7d fc 00          	cmpl   $0x0,-0x4(%rbp)
    d884:	74 16                	je     d89c <main+0x8ed>
    d886:	8b 45 f0             	mov    -0x10(%rbp),%eax
    d889:	89 c6                	mov    %eax,%esi
    d88b:	48 8d 3d 74 34 00 00 	lea    0x3474(%rip),%rdi        # 10d06 <g_1837+0xc72>
    d892:	b8 00 00 00 00       	mov    $0x0,%eax
    d897:	e8 e4 a7 ff ff       	callq  8080 <printf@plt>
    d89c:	83 45 f0 01          	addl   $0x1,-0x10(%rbp)
    d8a0:	83 7d f0 06          	cmpl   $0x6,-0x10(%rbp)
    d8a4:	7e b0                	jle    d856 <main+0x8a7>
    d8a6:	0f b7 05 51 6a 00 00 	movzwl 0x6a51(%rip),%eax        # 142fe <g_588>
    d8ad:	48 0f bf c0          	movswq %ax,%rax
    d8b1:	8b 55 fc             	mov    -0x4(%rbp),%edx
    d8b4:	48 8d 35 a2 34 00 00 	lea    0x34a2(%rip),%rsi        # 10d5d <g_1837+0xcc9>
    d8bb:	48 89 c7             	mov    %rax,%rdi
    d8be:	e8 30 be ff ff       	callq  96f3 <transparent_crc>
    d8c3:	0f b7 05 36 6a 00 00 	movzwl 0x6a36(%rip),%eax        # 14300 <g_589>
    d8ca:	48 0f bf c0          	movswq %ax,%rax
    d8ce:	8b 55 fc             	mov    -0x4(%rbp),%edx
    d8d1:	48 8d 35 8b 34 00 00 	lea    0x348b(%rip),%rsi        # 10d63 <g_1837+0xccf>
    d8d8:	48 89 c7             	mov    %rax,%rdi
    d8db:	e8 13 be ff ff       	callq  96f3 <transparent_crc>
    d8e0:	0f b7 05 1b 6a 00 00 	movzwl 0x6a1b(%rip),%eax        # 14302 <g_590>
    d8e7:	48 0f bf c0          	movswq %ax,%rax
    d8eb:	8b 55 fc             	mov    -0x4(%rbp),%edx
    d8ee:	48 8d 35 74 34 00 00 	lea    0x3474(%rip),%rsi        # 10d69 <g_1837+0xcd5>
    d8f5:	48 89 c7             	mov    %rax,%rdi
    d8f8:	e8 f6 bd ff ff       	callq  96f3 <transparent_crc>
    d8fd:	0f b7 05 00 6a 00 00 	movzwl 0x6a00(%rip),%eax        # 14304 <g_591>
    d904:	48 0f bf c0          	movswq %ax,%rax
    d908:	8b 55 fc             	mov    -0x4(%rbp),%edx
    d90b:	48 8d 35 5d 34 00 00 	lea    0x345d(%rip),%rsi        # 10d6f <g_1837+0xcdb>
    d912:	48 89 c7             	mov    %rax,%rdi
    d915:	e8 d9 bd ff ff       	callq  96f3 <transparent_crc>
    d91a:	0f b7 05 e5 69 00 00 	movzwl 0x69e5(%rip),%eax        # 14306 <g_592>
    d921:	48 0f bf c0          	movswq %ax,%rax
    d925:	8b 55 fc             	mov    -0x4(%rbp),%edx
    d928:	48 8d 35 46 34 00 00 	lea    0x3446(%rip),%rsi        # 10d75 <g_1837+0xce1>
    d92f:	48 89 c7             	mov    %rax,%rdi
    d932:	e8 bc bd ff ff       	callq  96f3 <transparent_crc>
    d937:	0f b7 05 54 a4 00 00 	movzwl 0xa454(%rip),%eax        # 17d92 <g_593>
    d93e:	48 0f bf c0          	movswq %ax,%rax
    d942:	8b 55 fc             	mov    -0x4(%rbp),%edx
    d945:	48 8d 35 2f 34 00 00 	lea    0x342f(%rip),%rsi        # 10d7b <g_1837+0xce7>
    d94c:	48 89 c7             	mov    %rax,%rdi
    d94f:	e8 9f bd ff ff       	callq  96f3 <transparent_crc>
    d954:	0f b7 05 ad 69 00 00 	movzwl 0x69ad(%rip),%eax        # 14308 <g_594>
    d95b:	48 0f bf c0          	movswq %ax,%rax
    d95f:	8b 55 fc             	mov    -0x4(%rbp),%edx
    d962:	48 8d 35 18 34 00 00 	lea    0x3418(%rip),%rsi        # 10d81 <g_1837+0xced>
    d969:	48 89 c7             	mov    %rax,%rdi
    d96c:	e8 82 bd ff ff       	callq  96f3 <transparent_crc>
    d971:	0f b7 05 92 69 00 00 	movzwl 0x6992(%rip),%eax        # 1430a <g_595>
    d978:	48 0f bf c0          	movswq %ax,%rax
    d97c:	8b 55 fc             	mov    -0x4(%rbp),%edx
    d97f:	48 8d 35 01 34 00 00 	lea    0x3401(%rip),%rsi        # 10d87 <g_1837+0xcf3>
    d986:	48 89 c7             	mov    %rax,%rdi
    d989:	e8 65 bd ff ff       	callq  96f3 <transparent_crc>
    d98e:	0f b7 05 77 69 00 00 	movzwl 0x6977(%rip),%eax        # 1430c <g_596>
    d995:	48 0f bf c0          	movswq %ax,%rax
    d999:	8b 55 fc             	mov    -0x4(%rbp),%edx
    d99c:	48 8d 35 ea 33 00 00 	lea    0x33ea(%rip),%rsi        # 10d8d <g_1837+0xcf9>
    d9a3:	48 89 c7             	mov    %rax,%rdi
    d9a6:	e8 48 bd ff ff       	callq  96f3 <transparent_crc>
    d9ab:	c7 45 f0 00 00 00 00 	movl   $0x0,-0x10(%rbp)
    d9b2:	eb 4a                	jmp    d9fe <main+0xa4f>
    d9b4:	8b 45 f0             	mov    -0x10(%rbp),%eax
    d9b7:	48 98                	cltq   
    d9b9:	48 8d 14 00          	lea    (%rax,%rax,1),%rdx
    d9bd:	48 8d 05 4c 69 00 00 	lea    0x694c(%rip),%rax        # 14310 <g_597>
    d9c4:	0f b7 04 02          	movzwl (%rdx,%rax,1),%eax
    d9c8:	48 0f bf c0          	movswq %ax,%rax
    d9cc:	8b 55 fc             	mov    -0x4(%rbp),%edx
    d9cf:	48 8d 35 bd 33 00 00 	lea    0x33bd(%rip),%rsi        # 10d93 <g_1837+0xcff>
    d9d6:	48 89 c7             	mov    %rax,%rdi
    d9d9:	e8 15 bd ff ff       	callq  96f3 <transparent_crc>
    d9de:	83 7d fc 00          	cmpl   $0x0,-0x4(%rbp)
    d9e2:	74 16                	je     d9fa <main+0xa4b>
    d9e4:	8b 45 f0             	mov    -0x10(%rbp),%eax
    d9e7:	89 c6                	mov    %eax,%esi
    d9e9:	48 8d 3d 16 33 00 00 	lea    0x3316(%rip),%rdi        # 10d06 <g_1837+0xc72>
    d9f0:	b8 00 00 00 00       	mov    $0x0,%eax
    d9f5:	e8 86 a6 ff ff       	callq  8080 <printf@plt>
    d9fa:	83 45 f0 01          	addl   $0x1,-0x10(%rbp)
    d9fe:	83 7d f0 08          	cmpl   $0x8,-0x10(%rbp)
    da02:	7e b0                	jle    d9b4 <main+0xa05>
    da04:	0f b7 05 17 69 00 00 	movzwl 0x6917(%rip),%eax        # 14322 <g_598>
    da0b:	48 0f bf c0          	movswq %ax,%rax
    da0f:	8b 55 fc             	mov    -0x4(%rbp),%edx
    da12:	48 8d 35 83 33 00 00 	lea    0x3383(%rip),%rsi        # 10d9c <g_1837+0xd08>
    da19:	48 89 c7             	mov    %rax,%rdi
    da1c:	e8 d2 bc ff ff       	callq  96f3 <transparent_crc>
    da21:	c7 45 f0 00 00 00 00 	movl   $0x0,-0x10(%rbp)
    da28:	eb 6d                	jmp    da97 <main+0xae8>
    da2a:	c7 45 f4 00 00 00 00 	movl   $0x0,-0xc(%rbp)
    da31:	eb 5a                	jmp    da8d <main+0xade>
    da33:	8b 45 f4             	mov    -0xc(%rbp),%eax
    da36:	48 98                	cltq   
    da38:	8b 55 f0             	mov    -0x10(%rbp),%edx
    da3b:	48 63 d2             	movslq %edx,%rdx
    da3e:	48 c1 e2 02          	shl    $0x2,%rdx
    da42:	48 01 d0             	add    %rdx,%rax
    da45:	48 8d 14 00          	lea    (%rax,%rax,1),%rdx
    da49:	48 8d 05 f0 68 00 00 	lea    0x68f0(%rip),%rax        # 14340 <g_599>
    da50:	0f b7 04 02          	movzwl (%rdx,%rax,1),%eax
    da54:	48 0f bf c0          	movswq %ax,%rax
    da58:	8b 55 fc             	mov    -0x4(%rbp),%edx
    da5b:	48 8d 35 40 33 00 00 	lea    0x3340(%rip),%rsi        # 10da2 <g_1837+0xd0e>
    da62:	48 89 c7             	mov    %rax,%rdi
    da65:	e8 89 bc ff ff       	callq  96f3 <transparent_crc>
    da6a:	83 7d fc 00          	cmpl   $0x0,-0x4(%rbp)
    da6e:	74 19                	je     da89 <main+0xada>
    da70:	8b 55 f4             	mov    -0xc(%rbp),%edx
    da73:	8b 45 f0             	mov    -0x10(%rbp),%eax
    da76:	89 c6                	mov    %eax,%esi
    da78:	48 8d 3d 00 32 00 00 	lea    0x3200(%rip),%rdi        # 10c7f <g_1837+0xbeb>
    da7f:	b8 00 00 00 00       	mov    $0x0,%eax
    da84:	e8 f7 a5 ff ff       	callq  8080 <printf@plt>
    da89:	83 45 f4 01          	addl   $0x1,-0xc(%rbp)
    da8d:	83 7d f4 03          	cmpl   $0x3,-0xc(%rbp)
    da91:	7e a0                	jle    da33 <main+0xa84>
    da93:	83 45 f0 01          	addl   $0x1,-0x10(%rbp)
    da97:	83 7d f0 05          	cmpl   $0x5,-0x10(%rbp)
    da9b:	7e 8d                	jle    da2a <main+0xa7b>
    da9d:	c7 45 f0 00 00 00 00 	movl   $0x0,-0x10(%rbp)
    daa4:	eb 4a                	jmp    daf0 <main+0xb41>
    daa6:	8b 45 f0             	mov    -0x10(%rbp),%eax
    daa9:	48 98                	cltq   
    daab:	48 8d 14 00          	lea    (%rax,%rax,1),%rdx
    daaf:	48 8d 05 ba 68 00 00 	lea    0x68ba(%rip),%rax        # 14370 <g_600>
    dab6:	0f b7 04 02          	movzwl (%rdx,%rax,1),%eax
    daba:	48 0f bf c0          	movswq %ax,%rax
    dabe:	8b 55 fc             	mov    -0x4(%rbp),%edx
    dac1:	48 8d 35 e6 32 00 00 	lea    0x32e6(%rip),%rsi        # 10dae <g_1837+0xd1a>
    dac8:	48 89 c7             	mov    %rax,%rdi
    dacb:	e8 23 bc ff ff       	callq  96f3 <transparent_crc>
    dad0:	83 7d fc 00          	cmpl   $0x0,-0x4(%rbp)
    dad4:	74 16                	je     daec <main+0xb3d>
    dad6:	8b 45 f0             	mov    -0x10(%rbp),%eax
    dad9:	89 c6                	mov    %eax,%esi
    dadb:	48 8d 3d 24 32 00 00 	lea    0x3224(%rip),%rdi        # 10d06 <g_1837+0xc72>
    dae2:	b8 00 00 00 00       	mov    $0x0,%eax
    dae7:	e8 94 a5 ff ff       	callq  8080 <printf@plt>
    daec:	83 45 f0 01          	addl   $0x1,-0x10(%rbp)
    daf0:	83 7d f0 02          	cmpl   $0x2,-0x10(%rbp)
    daf4:	7e b0                	jle    daa6 <main+0xaf7>
    daf6:	0f b7 05 79 68 00 00 	movzwl 0x6879(%rip),%eax        # 14376 <g_601>
    dafd:	48 0f bf c0          	movswq %ax,%rax
    db01:	8b 55 fc             	mov    -0x4(%rbp),%edx
    db04:	48 8d 35 ac 32 00 00 	lea    0x32ac(%rip),%rsi        # 10db7 <g_1837+0xd23>
    db0b:	48 89 c7             	mov    %rax,%rdi
    db0e:	e8 e0 bb ff ff       	callq  96f3 <transparent_crc>
    db13:	0f b6 05 5e 68 00 00 	movzbl 0x685e(%rip),%eax        # 14378 <g_612>
    db1a:	0f b6 c0             	movzbl %al,%eax
    db1d:	0f b6 15 55 68 00 00 	movzbl 0x6855(%rip),%edx        # 14379 <g_612+0x1>
    db24:	0f b6 d2             	movzbl %dl,%edx
    db27:	48 c1 e2 08          	shl    $0x8,%rdx
    db2b:	48 09 c2             	or     %rax,%rdx
    db2e:	0f b6 05 45 68 00 00 	movzbl 0x6845(%rip),%eax        # 1437a <g_612+0x2>
    db35:	0f b6 c0             	movzbl %al,%eax
    db38:	48 c1 e0 10          	shl    $0x10,%rax
    db3c:	48 09 c2             	or     %rax,%rdx
    db3f:	0f b6 05 35 68 00 00 	movzbl 0x6835(%rip),%eax        # 1437b <g_612+0x3>
    db46:	0f b6 c0             	movzbl %al,%eax
    db49:	83 e0 07             	and    $0x7,%eax
    db4c:	48 c1 e0 18          	shl    $0x18,%rax
    db50:	48 09 d0             	or     %rdx,%rax
    db53:	89 c1                	mov    %eax,%ecx
    db55:	8b 45 fc             	mov    -0x4(%rbp),%eax
    db58:	89 c2                	mov    %eax,%edx
    db5a:	48 8d 35 5c 32 00 00 	lea    0x325c(%rip),%rsi        # 10dbd <g_1837+0xd29>
    db61:	48 89 cf             	mov    %rcx,%rdi
    db64:	e8 8a bb ff ff       	callq  96f3 <transparent_crc>
    db69:	0f b6 05 0b 68 00 00 	movzbl 0x680b(%rip),%eax        # 1437b <g_612+0x3>
    db70:	c0 e8 03             	shr    $0x3,%al
    db73:	0f b6 c0             	movzbl %al,%eax
    db76:	0f b6 15 ff 67 00 00 	movzbl 0x67ff(%rip),%edx        # 1437c <g_612+0x4>
    db7d:	0f b6 d2             	movzbl %dl,%edx
    db80:	83 e2 01             	and    $0x1,%edx
    db83:	48 c1 e2 05          	shl    $0x5,%rdx
    db87:	48 09 d0             	or     %rdx,%rax
    db8a:	48 c1 e0 3a          	shl    $0x3a,%rax
    db8e:	48 c1 f8 3a          	sar    $0x3a,%rax
    db92:	48 0f be c0          	movsbq %al,%rax
    db96:	8b 55 fc             	mov    -0x4(%rbp),%edx
    db99:	48 8d 35 26 32 00 00 	lea    0x3226(%rip),%rsi        # 10dc6 <g_1837+0xd32>
    dba0:	48 89 c7             	mov    %rax,%rdi
    dba3:	e8 4b bb ff ff       	callq  96f3 <transparent_crc>
    dba8:	c7 45 f0 00 00 00 00 	movl   $0x0,-0x10(%rbp)
    dbaf:	eb 49                	jmp    dbfa <main+0xc4b>
    dbb1:	8b 45 f0             	mov    -0x10(%rbp),%eax
    dbb4:	48 98                	cltq   
    dbb6:	48 8d 14 00          	lea    (%rax,%rax,1),%rdx
    dbba:	48 8d 05 bf 67 00 00 	lea    0x67bf(%rip),%rax        # 14380 <g_622>
    dbc1:	0f b7 04 02          	movzwl (%rdx,%rax,1),%eax
    dbc5:	0f b7 c0             	movzwl %ax,%eax
    dbc8:	8b 55 fc             	mov    -0x4(%rbp),%edx
    dbcb:	48 8d 35 fd 31 00 00 	lea    0x31fd(%rip),%rsi        # 10dcf <g_1837+0xd3b>
    dbd2:	48 89 c7             	mov    %rax,%rdi
    dbd5:	e8 19 bb ff ff       	callq  96f3 <transparent_crc>
    dbda:	83 7d fc 00          	cmpl   $0x0,-0x4(%rbp)
    dbde:	74 16                	je     dbf6 <main+0xc47>
    dbe0:	8b 45 f0             	mov    -0x10(%rbp),%eax
    dbe3:	89 c6                	mov    %eax,%esi
    dbe5:	48 8d 3d 1a 31 00 00 	lea    0x311a(%rip),%rdi        # 10d06 <g_1837+0xc72>
    dbec:	b8 00 00 00 00       	mov    $0x0,%eax
    dbf1:	e8 8a a4 ff ff       	callq  8080 <printf@plt>
    dbf6:	83 45 f0 01          	addl   $0x1,-0x10(%rbp)
    dbfa:	83 7d f0 04          	cmpl   $0x4,-0x10(%rbp)
    dbfe:	7e b1                	jle    dbb1 <main+0xc02>
    dc00:	8b 05 86 67 00 00    	mov    0x6786(%rip),%eax        # 1438c <g_680>
    dc06:	89 c1                	mov    %eax,%ecx
    dc08:	8b 45 fc             	mov    -0x4(%rbp),%eax
    dc0b:	89 c2                	mov    %eax,%edx
    dc0d:	48 8d 35 c4 31 00 00 	lea    0x31c4(%rip),%rsi        # 10dd8 <g_1837+0xd44>
    dc14:	48 89 cf             	mov    %rcx,%rdi
    dc17:	e8 d7 ba ff ff       	callq  96f3 <transparent_crc>
    dc1c:	0f b6 05 6d 67 00 00 	movzbl 0x676d(%rip),%eax        # 14390 <g_685>
    dc23:	0f b6 c0             	movzbl %al,%eax
    dc26:	0f b6 15 64 67 00 00 	movzbl 0x6764(%rip),%edx        # 14391 <g_685+0x1>
    dc2d:	0f b6 d2             	movzbl %dl,%edx
    dc30:	48 c1 e2 08          	shl    $0x8,%rdx
    dc34:	48 09 c2             	or     %rax,%rdx
    dc37:	0f b6 05 54 67 00 00 	movzbl 0x6754(%rip),%eax        # 14392 <g_685+0x2>
    dc3e:	0f b6 c0             	movzbl %al,%eax
    dc41:	48 c1 e0 10          	shl    $0x10,%rax
    dc45:	48 09 c2             	or     %rax,%rdx
    dc48:	0f b6 05 44 67 00 00 	movzbl 0x6744(%rip),%eax        # 14393 <g_685+0x3>
    dc4f:	0f b6 c0             	movzbl %al,%eax
    dc52:	83 e0 07             	and    $0x7,%eax
    dc55:	48 c1 e0 18          	shl    $0x18,%rax
    dc59:	48 09 d0             	or     %rdx,%rax
    dc5c:	89 c1                	mov    %eax,%ecx
    dc5e:	8b 45 fc             	mov    -0x4(%rbp),%eax
    dc61:	89 c2                	mov    %eax,%edx
    dc63:	48 8d 35 74 31 00 00 	lea    0x3174(%rip),%rsi        # 10dde <g_1837+0xd4a>
    dc6a:	48 89 cf             	mov    %rcx,%rdi
    dc6d:	e8 81 ba ff ff       	callq  96f3 <transparent_crc>
    dc72:	0f b6 05 1a 67 00 00 	movzbl 0x671a(%rip),%eax        # 14393 <g_685+0x3>
    dc79:	c0 e8 03             	shr    $0x3,%al
    dc7c:	0f b6 c0             	movzbl %al,%eax
    dc7f:	0f b6 15 0e 67 00 00 	movzbl 0x670e(%rip),%edx        # 14394 <g_685+0x4>
    dc86:	0f b6 d2             	movzbl %dl,%edx
    dc89:	83 e2 01             	and    $0x1,%edx
    dc8c:	48 c1 e2 05          	shl    $0x5,%rdx
    dc90:	48 09 d0             	or     %rdx,%rax
    dc93:	48 c1 e0 3a          	shl    $0x3a,%rax
    dc97:	48 c1 f8 3a          	sar    $0x3a,%rax
    dc9b:	48 0f be c0          	movsbq %al,%rax
    dc9f:	8b 55 fc             	mov    -0x4(%rbp),%edx
    dca2:	48 8d 35 3e 31 00 00 	lea    0x313e(%rip),%rsi        # 10de7 <g_1837+0xd53>
    dca9:	48 89 c7             	mov    %rax,%rdi
    dcac:	e8 42 ba ff ff       	callq  96f3 <transparent_crc>
    dcb1:	48 8b 05 e0 a0 00 00 	mov    0xa0e0(%rip),%rax        # 17d98 <g_726>
    dcb8:	8b 55 fc             	mov    -0x4(%rbp),%edx
    dcbb:	48 8d 35 2e 31 00 00 	lea    0x312e(%rip),%rsi        # 10df0 <g_1837+0xd5c>
    dcc2:	48 89 c7             	mov    %rax,%rdi
    dcc5:	e8 29 ba ff ff       	callq  96f3 <transparent_crc>
    dcca:	c7 45 f0 00 00 00 00 	movl   $0x0,-0x10(%rbp)
    dcd1:	e9 b0 01 00 00       	jmpq   de86 <main+0xed7>
    dcd6:	c7 45 f4 00 00 00 00 	movl   $0x0,-0xc(%rbp)
    dcdd:	e9 96 01 00 00       	jmpq   de78 <main+0xec9>
    dce2:	c7 45 f8 00 00 00 00 	movl   $0x0,-0x8(%rbp)
    dce9:	e9 7c 01 00 00       	jmpq   de6a <main+0xebb>
    dcee:	8b 45 f8             	mov    -0x8(%rbp),%eax
    dcf1:	48 63 f0             	movslq %eax,%rsi
    dcf4:	8b 45 f0             	mov    -0x10(%rbp),%eax
    dcf7:	48 63 d0             	movslq %eax,%rdx
    dcfa:	8b 45 f4             	mov    -0xc(%rbp),%eax
    dcfd:	48 63 c8             	movslq %eax,%rcx
    dd00:	48 89 d0             	mov    %rdx,%rax
    dd03:	48 01 c0             	add    %rax,%rax
    dd06:	48 01 d0             	add    %rdx,%rax
    dd09:	48 01 c0             	add    %rax,%rax
    dd0c:	48 89 ca             	mov    %rcx,%rdx
    dd0f:	48 01 d2             	add    %rdx,%rdx
    dd12:	48 01 ca             	add    %rcx,%rdx
    dd15:	48 01 d0             	add    %rdx,%rax
    dd18:	48 01 f0             	add    %rsi,%rax
    dd1b:	48 8d 14 85 00 00 00 	lea    0x0(,%rax,4),%rdx
    dd22:	00 
    dd23:	48 8d 05 76 66 00 00 	lea    0x6676(%rip),%rax        # 143a0 <g_741>
    dd2a:	8b 04 02             	mov    (%rdx,%rax,1),%eax
    dd2d:	48 98                	cltq   
    dd2f:	8b 55 fc             	mov    -0x4(%rbp),%edx
    dd32:	48 8d 35 bd 30 00 00 	lea    0x30bd(%rip),%rsi        # 10df6 <g_1837+0xd62>
    dd39:	48 89 c7             	mov    %rax,%rdi
    dd3c:	e8 b2 b9 ff ff       	callq  96f3 <transparent_crc>
    dd41:	8b 45 f8             	mov    -0x8(%rbp),%eax
    dd44:	48 63 f0             	movslq %eax,%rsi
    dd47:	8b 45 f0             	mov    -0x10(%rbp),%eax
    dd4a:	48 63 d0             	movslq %eax,%rdx
    dd4d:	8b 45 f4             	mov    -0xc(%rbp),%eax
    dd50:	48 63 c8             	movslq %eax,%rcx
    dd53:	48 89 d0             	mov    %rdx,%rax
    dd56:	48 01 c0             	add    %rax,%rax
    dd59:	48 01 d0             	add    %rdx,%rax
    dd5c:	48 01 c0             	add    %rax,%rax
    dd5f:	48 89 ca             	mov    %rcx,%rdx
    dd62:	48 01 d2             	add    %rdx,%rdx
    dd65:	48 01 ca             	add    %rcx,%rdx
    dd68:	48 01 d0             	add    %rdx,%rax
    dd6b:	48 01 f0             	add    %rsi,%rax
    dd6e:	48 8d 14 85 00 00 00 	lea    0x0(,%rax,4),%rdx
    dd75:	00 
    dd76:	48 8d 05 23 66 00 00 	lea    0x6623(%rip),%rax        # 143a0 <g_741>
    dd7d:	8b 04 02             	mov    (%rdx,%rax,1),%eax
    dd80:	c1 e0 03             	shl    $0x3,%eax
    dd83:	c1 f8 03             	sar    $0x3,%eax
    dd86:	48 98                	cltq   
    dd88:	8b 55 fc             	mov    -0x4(%rbp),%edx
    dd8b:	48 8d 35 76 30 00 00 	lea    0x3076(%rip),%rsi        # 10e08 <g_1837+0xd74>
    dd92:	48 89 c7             	mov    %rax,%rdi
    dd95:	e8 59 b9 ff ff       	callq  96f3 <transparent_crc>
    dd9a:	8b 45 f8             	mov    -0x8(%rbp),%eax
    dd9d:	48 63 f0             	movslq %eax,%rsi
    dda0:	8b 45 f0             	mov    -0x10(%rbp),%eax
    dda3:	48 63 d0             	movslq %eax,%rdx
    dda6:	8b 45 f4             	mov    -0xc(%rbp),%eax
    dda9:	48 63 c8             	movslq %eax,%rcx
    ddac:	48 89 d0             	mov    %rdx,%rax
    ddaf:	48 01 c0             	add    %rax,%rax
    ddb2:	48 01 d0             	add    %rdx,%rax
    ddb5:	48 01 c0             	add    %rax,%rax
    ddb8:	48 89 ca             	mov    %rcx,%rdx
    ddbb:	48 01 d2             	add    %rdx,%rdx
    ddbe:	48 01 ca             	add    %rcx,%rdx
    ddc1:	48 01 d0             	add    %rdx,%rax
    ddc4:	48 01 f0             	add    %rsi,%rax
    ddc7:	48 8d 14 85 00 00 00 	lea    0x0(,%rax,4),%rdx
    ddce:	00 
    ddcf:	48 8d 05 ca 65 00 00 	lea    0x65ca(%rip),%rax        # 143a0 <g_741>
    ddd6:	8b 04 02             	mov    (%rdx,%rax,1),%eax
    ddd9:	89 c1                	mov    %eax,%ecx
    dddb:	8b 45 fc             	mov    -0x4(%rbp),%eax
    ddde:	89 c2                	mov    %eax,%edx
    dde0:	48 8d 35 33 30 00 00 	lea    0x3033(%rip),%rsi        # 10e1a <g_1837+0xd86>
    dde7:	48 89 cf             	mov    %rcx,%rdi
    ddea:	e8 04 b9 ff ff       	callq  96f3 <transparent_crc>
    ddef:	8b 45 f8             	mov    -0x8(%rbp),%eax
    ddf2:	48 63 f0             	movslq %eax,%rsi
    ddf5:	8b 45 f0             	mov    -0x10(%rbp),%eax
    ddf8:	48 63 d0             	movslq %eax,%rdx
    ddfb:	8b 45 f4             	mov    -0xc(%rbp),%eax
    ddfe:	48 63 c8             	movslq %eax,%rcx
    de01:	48 89 d0             	mov    %rdx,%rax
    de04:	48 01 c0             	add    %rax,%rax
    de07:	48 01 d0             	add    %rdx,%rax
    de0a:	48 01 c0             	add    %rax,%rax
    de0d:	48 89 ca             	mov    %rcx,%rdx
    de10:	48 01 d2             	add    %rdx,%rdx
    de13:	48 01 ca             	add    %rcx,%rdx
    de16:	48 01 d0             	add    %rdx,%rax
    de19:	48 01 f0             	add    %rsi,%rax
    de1c:	48 8d 14 85 00 00 00 	lea    0x0(,%rax,4),%rdx
    de23:	00 
    de24:	48 8d 05 75 65 00 00 	lea    0x6575(%rip),%rax        # 143a0 <g_741>
    de2b:	0f b7 04 02          	movzwl (%rdx,%rax,1),%eax
    de2f:	0f b7 c0             	movzwl %ax,%eax
    de32:	8b 55 fc             	mov    -0x4(%rbp),%edx
    de35:	48 8d 35 f0 2f 00 00 	lea    0x2ff0(%rip),%rsi        # 10e2c <g_1837+0xd98>
    de3c:	48 89 c7             	mov    %rax,%rdi
    de3f:	e8 af b8 ff ff       	callq  96f3 <transparent_crc>
    de44:	83 7d fc 00          	cmpl   $0x0,-0x4(%rbp)
    de48:	74 1c                	je     de66 <main+0xeb7>
    de4a:	8b 4d f8             	mov    -0x8(%rbp),%ecx
    de4d:	8b 55 f4             	mov    -0xc(%rbp),%edx
    de50:	8b 45 f0             	mov    -0x10(%rbp),%eax
    de53:	89 c6                	mov    %eax,%esi
    de55:	48 8d 3d e2 2e 00 00 	lea    0x2ee2(%rip),%rdi        # 10d3e <g_1837+0xcaa>
    de5c:	b8 00 00 00 00       	mov    $0x0,%eax
    de61:	e8 1a a2 ff ff       	callq  8080 <printf@plt>
    de66:	83 45 f8 01          	addl   $0x1,-0x8(%rbp)
    de6a:	83 7d f8 02          	cmpl   $0x2,-0x8(%rbp)
    de6e:	0f 8e 7a fe ff ff    	jle    dcee <main+0xd3f>
    de74:	83 45 f4 01          	addl   $0x1,-0xc(%rbp)
    de78:	83 7d f4 01          	cmpl   $0x1,-0xc(%rbp)
    de7c:	0f 8e 60 fe ff ff    	jle    dce2 <main+0xd33>
    de82:	83 45 f0 01          	addl   $0x1,-0x10(%rbp)
    de86:	83 7d f0 02          	cmpl   $0x2,-0x10(%rbp)
    de8a:	0f 8e 46 fe ff ff    	jle    dcd6 <main+0xd27>
    de90:	8b 05 52 65 00 00    	mov    0x6552(%rip),%eax        # 143e8 <g_747>
    de96:	48 98                	cltq   
    de98:	8b 55 fc             	mov    -0x4(%rbp),%edx
    de9b:	48 8d 35 9c 2f 00 00 	lea    0x2f9c(%rip),%rsi        # 10e3e <g_1837+0xdaa>
    dea2:	48 89 c7             	mov    %rax,%rdi
    dea5:	e8 49 b8 ff ff       	callq  96f3 <transparent_crc>
    deaa:	8b 05 38 65 00 00    	mov    0x6538(%rip),%eax        # 143e8 <g_747>
    deb0:	c1 e0 03             	shl    $0x3,%eax
    deb3:	c1 f8 03             	sar    $0x3,%eax
    deb6:	48 98                	cltq   
    deb8:	8b 55 fc             	mov    -0x4(%rbp),%edx
    debb:	48 8d 35 85 2f 00 00 	lea    0x2f85(%rip),%rsi        # 10e47 <g_1837+0xdb3>
    dec2:	48 89 c7             	mov    %rax,%rdi
    dec5:	e8 29 b8 ff ff       	callq  96f3 <transparent_crc>
    deca:	8b 05 18 65 00 00    	mov    0x6518(%rip),%eax        # 143e8 <g_747>
    ded0:	89 c1                	mov    %eax,%ecx
    ded2:	8b 45 fc             	mov    -0x4(%rbp),%eax
    ded5:	89 c2                	mov    %eax,%edx
    ded7:	48 8d 35 72 2f 00 00 	lea    0x2f72(%rip),%rsi        # 10e50 <g_1837+0xdbc>
    dede:	48 89 cf             	mov    %rcx,%rdi
    dee1:	e8 0d b8 ff ff       	callq  96f3 <transparent_crc>
    dee6:	0f b7 05 fb 64 00 00 	movzwl 0x64fb(%rip),%eax        # 143e8 <g_747>
    deed:	0f b7 c0             	movzwl %ax,%eax
    def0:	8b 55 fc             	mov    -0x4(%rbp),%edx
    def3:	48 8d 35 5f 2f 00 00 	lea    0x2f5f(%rip),%rsi        # 10e59 <g_1837+0xdc5>
    defa:	48 89 c7             	mov    %rax,%rdi
    defd:	e8 f1 b7 ff ff       	callq  96f3 <transparent_crc>
    df02:	0f b6 05 e3 64 00 00 	movzbl 0x64e3(%rip),%eax        # 143ec <g_765>
    df09:	0f b6 c0             	movzbl %al,%eax
    df0c:	0f b6 15 da 64 00 00 	movzbl 0x64da(%rip),%edx        # 143ed <g_765+0x1>
    df13:	0f b6 d2             	movzbl %dl,%edx
    df16:	48 c1 e2 08          	shl    $0x8,%rdx
    df1a:	48 09 c2             	or     %rax,%rdx
    df1d:	0f b6 05 ca 64 00 00 	movzbl 0x64ca(%rip),%eax        # 143ee <g_765+0x2>
    df24:	0f b6 c0             	movzbl %al,%eax
    df27:	48 c1 e0 10          	shl    $0x10,%rax
    df2b:	48 09 c2             	or     %rax,%rdx
    df2e:	0f b6 05 ba 64 00 00 	movzbl 0x64ba(%rip),%eax        # 143ef <g_765+0x3>
    df35:	0f b6 c0             	movzbl %al,%eax
    df38:	83 e0 07             	and    $0x7,%eax
    df3b:	48 c1 e0 18          	shl    $0x18,%rax
    df3f:	48 09 d0             	or     %rdx,%rax
    df42:	89 c1                	mov    %eax,%ecx
    df44:	8b 45 fc             	mov    -0x4(%rbp),%eax
    df47:	89 c2                	mov    %eax,%edx
    df49:	48 8d 35 12 2f 00 00 	lea    0x2f12(%rip),%rsi        # 10e62 <g_1837+0xdce>
    df50:	48 89 cf             	mov    %rcx,%rdi
    df53:	e8 9b b7 ff ff       	callq  96f3 <transparent_crc>
    df58:	0f b6 05 90 64 00 00 	movzbl 0x6490(%rip),%eax        # 143ef <g_765+0x3>
    df5f:	c0 e8 03             	shr    $0x3,%al
    df62:	0f b6 c0             	movzbl %al,%eax
    df65:	0f b6 15 84 64 00 00 	movzbl 0x6484(%rip),%edx        # 143f0 <g_765+0x4>
    df6c:	0f b6 d2             	movzbl %dl,%edx
    df6f:	83 e2 01             	and    $0x1,%edx
    df72:	48 c1 e2 05          	shl    $0x5,%rdx
    df76:	48 09 d0             	or     %rdx,%rax
    df79:	48 c1 e0 3a          	shl    $0x3a,%rax
    df7d:	48 c1 f8 3a          	sar    $0x3a,%rax
    df81:	48 0f be c0          	movsbq %al,%rax
    df85:	8b 55 fc             	mov    -0x4(%rbp),%edx
    df88:	48 8d 35 dc 2e 00 00 	lea    0x2edc(%rip),%rsi        # 10e6b <g_1837+0xdd7>
    df8f:	48 89 c7             	mov    %rax,%rdi
    df92:	e8 5c b7 ff ff       	callq  96f3 <transparent_crc>
    df97:	0f b6 05 53 64 00 00 	movzbl 0x6453(%rip),%eax        # 143f1 <g_766>
    df9e:	0f b6 c0             	movzbl %al,%eax
    dfa1:	0f b6 15 4a 64 00 00 	movzbl 0x644a(%rip),%edx        # 143f2 <g_766+0x1>
    dfa8:	0f b6 d2             	movzbl %dl,%edx
    dfab:	48 c1 e2 08          	shl    $0x8,%rdx
    dfaf:	48 09 c2             	or     %rax,%rdx
    dfb2:	0f b6 05 3a 64 00 00 	movzbl 0x643a(%rip),%eax        # 143f3 <g_766+0x2>
    dfb9:	0f b6 c0             	movzbl %al,%eax
    dfbc:	48 c1 e0 10          	shl    $0x10,%rax
    dfc0:	48 09 c2             	or     %rax,%rdx
    dfc3:	0f b6 05 2a 64 00 00 	movzbl 0x642a(%rip),%eax        # 143f4 <g_766+0x3>
    dfca:	0f b6 c0             	movzbl %al,%eax
    dfcd:	83 e0 07             	and    $0x7,%eax
    dfd0:	48 c1 e0 18          	shl    $0x18,%rax
    dfd4:	48 09 d0             	or     %rdx,%rax
    dfd7:	89 c1                	mov    %eax,%ecx
    dfd9:	8b 45 fc             	mov    -0x4(%rbp),%eax
    dfdc:	89 c2                	mov    %eax,%edx
    dfde:	48 8d 35 8f 2e 00 00 	lea    0x2e8f(%rip),%rsi        # 10e74 <g_1837+0xde0>
    dfe5:	48 89 cf             	mov    %rcx,%rdi
    dfe8:	e8 06 b7 ff ff       	callq  96f3 <transparent_crc>
    dfed:	0f b6 05 00 64 00 00 	movzbl 0x6400(%rip),%eax        # 143f4 <g_766+0x3>
    dff4:	c0 e8 03             	shr    $0x3,%al
    dff7:	0f b6 c0             	movzbl %al,%eax
    dffa:	0f b6 15 f4 63 00 00 	movzbl 0x63f4(%rip),%edx        # 143f5 <g_766+0x4>
    e001:	0f b6 d2             	movzbl %dl,%edx
    e004:	83 e2 01             	and    $0x1,%edx
    e007:	48 c1 e2 05          	shl    $0x5,%rdx
    e00b:	48 09 d0             	or     %rdx,%rax
    e00e:	48 c1 e0 3a          	shl    $0x3a,%rax
    e012:	48 c1 f8 3a          	sar    $0x3a,%rax
    e016:	48 0f be c0          	movsbq %al,%rax
    e01a:	8b 55 fc             	mov    -0x4(%rbp),%edx
    e01d:	48 8d 35 59 2e 00 00 	lea    0x2e59(%rip),%rsi        # 10e7d <g_1837+0xde9>
    e024:	48 89 c7             	mov    %rax,%rdi
    e027:	e8 c7 b6 ff ff       	callq  96f3 <transparent_crc>
    e02c:	c7 45 f0 00 00 00 00 	movl   $0x0,-0x10(%rbp)
    e033:	eb 46                	jmp    e07b <main+0x10cc>
    e035:	8b 45 f0             	mov    -0x10(%rbp),%eax
    e038:	48 98                	cltq   
    e03a:	48 8d 15 b5 63 00 00 	lea    0x63b5(%rip),%rdx        # 143f6 <g_801>
    e041:	0f b6 04 10          	movzbl (%rax,%rdx,1),%eax
    e045:	48 0f be c0          	movsbq %al,%rax
    e049:	8b 55 fc             	mov    -0x4(%rbp),%edx
    e04c:	48 8d 35 33 2e 00 00 	lea    0x2e33(%rip),%rsi        # 10e86 <g_1837+0xdf2>
    e053:	48 89 c7             	mov    %rax,%rdi
    e056:	e8 98 b6 ff ff       	callq  96f3 <transparent_crc>
    e05b:	83 7d fc 00          	cmpl   $0x0,-0x4(%rbp)
    e05f:	74 16                	je     e077 <main+0x10c8>
    e061:	8b 45 f0             	mov    -0x10(%rbp),%eax
    e064:	89 c6                	mov    %eax,%esi
    e066:	48 8d 3d 99 2c 00 00 	lea    0x2c99(%rip),%rdi        # 10d06 <g_1837+0xc72>
    e06d:	b8 00 00 00 00       	mov    $0x0,%eax
    e072:	e8 09 a0 ff ff       	callq  8080 <printf@plt>
    e077:	83 45 f0 01          	addl   $0x1,-0x10(%rbp)
    e07b:	83 7d f0 05          	cmpl   $0x5,-0x10(%rbp)
    e07f:	7e b4                	jle    e035 <main+0x1086>
    e081:	48 8b 05 78 63 00 00 	mov    0x6378(%rip),%rax        # 14400 <g_857>
    e088:	48 89 c1             	mov    %rax,%rcx
    e08b:	8b 45 fc             	mov    -0x4(%rbp),%eax
    e08e:	89 c2                	mov    %eax,%edx
    e090:	48 8d 35 f8 2d 00 00 	lea    0x2df8(%rip),%rsi        # 10e8f <g_1837+0xdfb>
    e097:	48 89 cf             	mov    %rcx,%rdi
    e09a:	e8 54 b6 ff ff       	callq  96f3 <transparent_crc>
    e09f:	48 8b 05 62 63 00 00 	mov    0x6362(%rip),%rax        # 14408 <g_883>
    e0a6:	8b 55 fc             	mov    -0x4(%rbp),%edx
    e0a9:	48 8d 35 e5 2d 00 00 	lea    0x2de5(%rip),%rsi        # 10e95 <g_1837+0xe01>
    e0b0:	48 89 c7             	mov    %rax,%rdi
    e0b3:	e8 3b b6 ff ff       	callq  96f3 <transparent_crc>
    e0b8:	c7 45 f0 00 00 00 00 	movl   $0x0,-0x10(%rbp)
    e0bf:	e9 d7 00 00 00       	jmpq   e19b <main+0x11ec>
    e0c4:	8b 45 f0             	mov    -0x10(%rbp),%eax
    e0c7:	48 63 d0             	movslq %eax,%rdx
    e0ca:	48 89 d0             	mov    %rdx,%rax
    e0cd:	48 c1 e0 02          	shl    $0x2,%rax
    e0d1:	48 01 c2             	add    %rax,%rdx
    e0d4:	48 8d 05 85 1f 00 00 	lea    0x1f85(%rip),%rax        # 10060 <g_887>
    e0db:	0f b6 0c 02          	movzbl (%rdx,%rax,1),%ecx
    e0df:	0f b6 c9             	movzbl %cl,%ecx
    e0e2:	0f b6 74 02 01       	movzbl 0x1(%rdx,%rax,1),%esi
    e0e7:	40 0f b6 f6          	movzbl %sil,%esi
    e0eb:	48 c1 e6 08          	shl    $0x8,%rsi
    e0ef:	48 09 ce             	or     %rcx,%rsi
    e0f2:	0f b6 4c 02 02       	movzbl 0x2(%rdx,%rax,1),%ecx
    e0f7:	0f b6 c9             	movzbl %cl,%ecx
    e0fa:	48 c1 e1 10          	shl    $0x10,%rcx
    e0fe:	48 09 f1             	or     %rsi,%rcx
    e101:	0f b6 44 02 03       	movzbl 0x3(%rdx,%rax,1),%eax
    e106:	0f b6 c0             	movzbl %al,%eax
    e109:	83 e0 07             	and    $0x7,%eax
    e10c:	48 c1 e0 18          	shl    $0x18,%rax
    e110:	48 09 c8             	or     %rcx,%rax
    e113:	89 c1                	mov    %eax,%ecx
    e115:	8b 45 fc             	mov    -0x4(%rbp),%eax
    e118:	89 c2                	mov    %eax,%edx
    e11a:	48 8d 35 7a 2d 00 00 	lea    0x2d7a(%rip),%rsi        # 10e9b <g_1837+0xe07>
    e121:	48 89 cf             	mov    %rcx,%rdi
    e124:	e8 ca b5 ff ff       	callq  96f3 <transparent_crc>
    e129:	8b 45 f0             	mov    -0x10(%rbp),%eax
    e12c:	48 63 d0             	movslq %eax,%rdx
    e12f:	48 89 d0             	mov    %rdx,%rax
    e132:	48 c1 e0 02          	shl    $0x2,%rax
    e136:	48 01 c2             	add    %rax,%rdx
    e139:	48 8d 05 20 1f 00 00 	lea    0x1f20(%rip),%rax        # 10060 <g_887>
    e140:	0f b6 4c 02 03       	movzbl 0x3(%rdx,%rax,1),%ecx
    e145:	c0 e9 03             	shr    $0x3,%cl
    e148:	0f b6 c9             	movzbl %cl,%ecx
    e14b:	0f b6 44 02 04       	movzbl 0x4(%rdx,%rax,1),%eax
    e150:	0f b6 c0             	movzbl %al,%eax
    e153:	83 e0 01             	and    $0x1,%eax
    e156:	48 c1 e0 05          	shl    $0x5,%rax
    e15a:	48 09 c8             	or     %rcx,%rax
    e15d:	48 c1 e0 3a          	shl    $0x3a,%rax
    e161:	48 c1 f8 3a          	sar    $0x3a,%rax
    e165:	48 0f be c0          	movsbq %al,%rax
    e169:	8b 55 fc             	mov    -0x4(%rbp),%edx
    e16c:	48 8d 35 34 2d 00 00 	lea    0x2d34(%rip),%rsi        # 10ea7 <g_1837+0xe13>
    e173:	48 89 c7             	mov    %rax,%rdi
    e176:	e8 78 b5 ff ff       	callq  96f3 <transparent_crc>
    e17b:	83 7d fc 00          	cmpl   $0x0,-0x4(%rbp)
    e17f:	74 16                	je     e197 <main+0x11e8>
    e181:	8b 45 f0             	mov    -0x10(%rbp),%eax
    e184:	89 c6                	mov    %eax,%esi
    e186:	48 8d 3d 79 2b 00 00 	lea    0x2b79(%rip),%rdi        # 10d06 <g_1837+0xc72>
    e18d:	b8 00 00 00 00       	mov    $0x0,%eax
    e192:	e8 e9 9e ff ff       	callq  8080 <printf@plt>
    e197:	83 45 f0 01          	addl   $0x1,-0x10(%rbp)
    e19b:	83 7d f0 05          	cmpl   $0x5,-0x10(%rbp)
    e19f:	0f 8e 1f ff ff ff    	jle    e0c4 <main+0x1115>
    e1a5:	48 8b 05 64 62 00 00 	mov    0x6264(%rip),%rax        # 14410 <g_925>
    e1ac:	48 89 c1             	mov    %rax,%rcx
    e1af:	8b 45 fc             	mov    -0x4(%rbp),%eax
    e1b2:	89 c2                	mov    %eax,%edx
    e1b4:	48 8d 35 f8 2c 00 00 	lea    0x2cf8(%rip),%rsi        # 10eb3 <g_1837+0xe1f>
    e1bb:	48 89 cf             	mov    %rcx,%rdi
    e1be:	e8 30 b5 ff ff       	callq  96f3 <transparent_crc>
    e1c3:	0f b6 05 4e 62 00 00 	movzbl 0x624e(%rip),%eax        # 14418 <g_951>
    e1ca:	0f b6 c0             	movzbl %al,%eax
    e1cd:	0f b6 15 45 62 00 00 	movzbl 0x6245(%rip),%edx        # 14419 <g_951+0x1>
    e1d4:	0f b6 d2             	movzbl %dl,%edx
    e1d7:	48 c1 e2 08          	shl    $0x8,%rdx
    e1db:	48 09 c2             	or     %rax,%rdx
    e1de:	0f b6 05 35 62 00 00 	movzbl 0x6235(%rip),%eax        # 1441a <g_951+0x2>
    e1e5:	0f b6 c0             	movzbl %al,%eax
    e1e8:	48 c1 e0 10          	shl    $0x10,%rax
    e1ec:	48 09 c2             	or     %rax,%rdx
    e1ef:	0f b6 05 25 62 00 00 	movzbl 0x6225(%rip),%eax        # 1441b <g_951+0x3>
    e1f6:	0f b6 c0             	movzbl %al,%eax
    e1f9:	83 e0 07             	and    $0x7,%eax
    e1fc:	48 c1 e0 18          	shl    $0x18,%rax
    e200:	48 09 d0             	or     %rdx,%rax
    e203:	89 c1                	mov    %eax,%ecx
    e205:	8b 45 fc             	mov    -0x4(%rbp),%eax
    e208:	89 c2                	mov    %eax,%edx
    e20a:	48 8d 35 a8 2c 00 00 	lea    0x2ca8(%rip),%rsi        # 10eb9 <g_1837+0xe25>
    e211:	48 89 cf             	mov    %rcx,%rdi
    e214:	e8 da b4 ff ff       	callq  96f3 <transparent_crc>
    e219:	0f b6 05 fb 61 00 00 	movzbl 0x61fb(%rip),%eax        # 1441b <g_951+0x3>
    e220:	c0 e8 03             	shr    $0x3,%al
    e223:	0f b6 c0             	movzbl %al,%eax
    e226:	0f b6 15 ef 61 00 00 	movzbl 0x61ef(%rip),%edx        # 1441c <g_951+0x4>
    e22d:	0f b6 d2             	movzbl %dl,%edx
    e230:	83 e2 01             	and    $0x1,%edx
    e233:	48 c1 e2 05          	shl    $0x5,%rdx
    e237:	48 09 d0             	or     %rdx,%rax
    e23a:	48 c1 e0 3a          	shl    $0x3a,%rax
    e23e:	48 c1 f8 3a          	sar    $0x3a,%rax
    e242:	48 0f be c0          	movsbq %al,%rax
    e246:	8b 55 fc             	mov    -0x4(%rbp),%edx
    e249:	48 8d 35 72 2c 00 00 	lea    0x2c72(%rip),%rsi        # 10ec2 <g_1837+0xe2e>
    e250:	48 89 c7             	mov    %rax,%rdi
    e253:	e8 9b b4 ff ff       	callq  96f3 <transparent_crc>
    e258:	0f b6 05 be 61 00 00 	movzbl 0x61be(%rip),%eax        # 1441d <g_952>
    e25f:	0f b6 c0             	movzbl %al,%eax
    e262:	0f b6 15 b5 61 00 00 	movzbl 0x61b5(%rip),%edx        # 1441e <g_952+0x1>
    e269:	0f b6 d2             	movzbl %dl,%edx
    e26c:	48 c1 e2 08          	shl    $0x8,%rdx
    e270:	48 09 c2             	or     %rax,%rdx
    e273:	0f b6 05 a5 61 00 00 	movzbl 0x61a5(%rip),%eax        # 1441f <g_952+0x2>
    e27a:	0f b6 c0             	movzbl %al,%eax
    e27d:	48 c1 e0 10          	shl    $0x10,%rax
    e281:	48 09 c2             	or     %rax,%rdx
    e284:	0f b6 05 95 61 00 00 	movzbl 0x6195(%rip),%eax        # 14420 <g_952+0x3>
    e28b:	0f b6 c0             	movzbl %al,%eax
    e28e:	83 e0 07             	and    $0x7,%eax
    e291:	48 c1 e0 18          	shl    $0x18,%rax
    e295:	48 09 d0             	or     %rdx,%rax
    e298:	89 c1                	mov    %eax,%ecx
    e29a:	8b 45 fc             	mov    -0x4(%rbp),%eax
    e29d:	89 c2                	mov    %eax,%edx
    e29f:	48 8d 35 25 2c 00 00 	lea    0x2c25(%rip),%rsi        # 10ecb <g_1837+0xe37>
    e2a6:	48 89 cf             	mov    %rcx,%rdi
    e2a9:	e8 45 b4 ff ff       	callq  96f3 <transparent_crc>
    e2ae:	0f b6 05 6b 61 00 00 	movzbl 0x616b(%rip),%eax        # 14420 <g_952+0x3>
    e2b5:	c0 e8 03             	shr    $0x3,%al
    e2b8:	0f b6 c0             	movzbl %al,%eax
    e2bb:	0f b6 15 5f 61 00 00 	movzbl 0x615f(%rip),%edx        # 14421 <g_952+0x4>
    e2c2:	0f b6 d2             	movzbl %dl,%edx
    e2c5:	83 e2 01             	and    $0x1,%edx
    e2c8:	48 c1 e2 05          	shl    $0x5,%rdx
    e2cc:	48 09 d0             	or     %rdx,%rax
    e2cf:	48 c1 e0 3a          	shl    $0x3a,%rax
    e2d3:	48 c1 f8 3a          	sar    $0x3a,%rax
    e2d7:	48 0f be c0          	movsbq %al,%rax
    e2db:	8b 55 fc             	mov    -0x4(%rbp),%edx
    e2de:	48 8d 35 ef 2b 00 00 	lea    0x2bef(%rip),%rsi        # 10ed4 <g_1837+0xe40>
    e2e5:	48 89 c7             	mov    %rax,%rdi
    e2e8:	e8 06 b4 ff ff       	callq  96f3 <transparent_crc>
    e2ed:	8b 05 31 61 00 00    	mov    0x6131(%rip),%eax        # 14424 <g_956>
    e2f3:	48 98                	cltq   
    e2f5:	8b 55 fc             	mov    -0x4(%rbp),%edx
    e2f8:	48 8d 35 de 2b 00 00 	lea    0x2bde(%rip),%rsi        # 10edd <g_1837+0xe49>
    e2ff:	48 89 c7             	mov    %rax,%rdi
    e302:	e8 ec b3 ff ff       	callq  96f3 <transparent_crc>
    e307:	8b 05 17 61 00 00    	mov    0x6117(%rip),%eax        # 14424 <g_956>
    e30d:	c1 e0 03             	shl    $0x3,%eax
    e310:	c1 f8 03             	sar    $0x3,%eax
    e313:	48 98                	cltq   
    e315:	8b 55 fc             	mov    -0x4(%rbp),%edx
    e318:	48 8d 35 c7 2b 00 00 	lea    0x2bc7(%rip),%rsi        # 10ee6 <g_1837+0xe52>
    e31f:	48 89 c7             	mov    %rax,%rdi
    e322:	e8 cc b3 ff ff       	callq  96f3 <transparent_crc>
    e327:	8b 05 f7 60 00 00    	mov    0x60f7(%rip),%eax        # 14424 <g_956>
    e32d:	89 c1                	mov    %eax,%ecx
    e32f:	8b 45 fc             	mov    -0x4(%rbp),%eax
    e332:	89 c2                	mov    %eax,%edx
    e334:	48 8d 35 b4 2b 00 00 	lea    0x2bb4(%rip),%rsi        # 10eef <g_1837+0xe5b>
    e33b:	48 89 cf             	mov    %rcx,%rdi
    e33e:	e8 b0 b3 ff ff       	callq  96f3 <transparent_crc>
    e343:	0f b7 05 da 60 00 00 	movzwl 0x60da(%rip),%eax        # 14424 <g_956>
    e34a:	0f b7 c0             	movzwl %ax,%eax
    e34d:	8b 55 fc             	mov    -0x4(%rbp),%edx
    e350:	48 8d 35 a1 2b 00 00 	lea    0x2ba1(%rip),%rsi        # 10ef8 <g_1837+0xe64>
    e357:	48 89 c7             	mov    %rax,%rdi
    e35a:	e8 94 b3 ff ff       	callq  96f3 <transparent_crc>
    e35f:	8b 05 c3 60 00 00    	mov    0x60c3(%rip),%eax        # 14428 <g_1018>
    e365:	48 98                	cltq   
    e367:	8b 55 fc             	mov    -0x4(%rbp),%edx
    e36a:	48 8d 35 90 2b 00 00 	lea    0x2b90(%rip),%rsi        # 10f01 <g_1837+0xe6d>
    e371:	48 89 c7             	mov    %rax,%rdi
    e374:	e8 7a b3 ff ff       	callq  96f3 <transparent_crc>
    e379:	8b 05 a9 60 00 00    	mov    0x60a9(%rip),%eax        # 14428 <g_1018>
    e37f:	c1 e0 03             	shl    $0x3,%eax
    e382:	c1 f8 03             	sar    $0x3,%eax
    e385:	48 98                	cltq   
    e387:	8b 55 fc             	mov    -0x4(%rbp),%edx
    e38a:	48 8d 35 7a 2b 00 00 	lea    0x2b7a(%rip),%rsi        # 10f0b <g_1837+0xe77>
    e391:	48 89 c7             	mov    %rax,%rdi
    e394:	e8 5a b3 ff ff       	callq  96f3 <transparent_crc>
    e399:	8b 05 89 60 00 00    	mov    0x6089(%rip),%eax        # 14428 <g_1018>
    e39f:	89 c1                	mov    %eax,%ecx
    e3a1:	8b 45 fc             	mov    -0x4(%rbp),%eax
    e3a4:	89 c2                	mov    %eax,%edx
    e3a6:	48 8d 35 68 2b 00 00 	lea    0x2b68(%rip),%rsi        # 10f15 <g_1837+0xe81>
    e3ad:	48 89 cf             	mov    %rcx,%rdi
    e3b0:	e8 3e b3 ff ff       	callq  96f3 <transparent_crc>
    e3b5:	0f b7 05 6c 60 00 00 	movzwl 0x606c(%rip),%eax        # 14428 <g_1018>
    e3bc:	0f b7 c0             	movzwl %ax,%eax
    e3bf:	8b 55 fc             	mov    -0x4(%rbp),%edx
    e3c2:	48 8d 35 56 2b 00 00 	lea    0x2b56(%rip),%rsi        # 10f1f <g_1837+0xe8b>
    e3c9:	48 89 c7             	mov    %rax,%rdi
    e3cc:	e8 22 b3 ff ff       	callq  96f3 <transparent_crc>
    e3d1:	8b 05 55 60 00 00    	mov    0x6055(%rip),%eax        # 1442c <g_1028>
    e3d7:	48 98                	cltq   
    e3d9:	8b 55 fc             	mov    -0x4(%rbp),%edx
    e3dc:	48 8d 35 46 2b 00 00 	lea    0x2b46(%rip),%rsi        # 10f29 <g_1837+0xe95>
    e3e3:	48 89 c7             	mov    %rax,%rdi
    e3e6:	e8 08 b3 ff ff       	callq  96f3 <transparent_crc>
    e3eb:	8b 05 3b 60 00 00    	mov    0x603b(%rip),%eax        # 1442c <g_1028>
    e3f1:	c1 e0 03             	shl    $0x3,%eax
    e3f4:	c1 f8 03             	sar    $0x3,%eax
    e3f7:	48 98                	cltq   
    e3f9:	8b 55 fc             	mov    -0x4(%rbp),%edx
    e3fc:	48 8d 35 30 2b 00 00 	lea    0x2b30(%rip),%rsi        # 10f33 <g_1837+0xe9f>
    e403:	48 89 c7             	mov    %rax,%rdi
    e406:	e8 e8 b2 ff ff       	callq  96f3 <transparent_crc>
    e40b:	8b 05 1b 60 00 00    	mov    0x601b(%rip),%eax        # 1442c <g_1028>
    e411:	89 c1                	mov    %eax,%ecx
    e413:	8b 45 fc             	mov    -0x4(%rbp),%eax
    e416:	89 c2                	mov    %eax,%edx
    e418:	48 8d 35 1e 2b 00 00 	lea    0x2b1e(%rip),%rsi        # 10f3d <g_1837+0xea9>
    e41f:	48 89 cf             	mov    %rcx,%rdi
    e422:	e8 cc b2 ff ff       	callq  96f3 <transparent_crc>
    e427:	0f b7 05 fe 5f 00 00 	movzwl 0x5ffe(%rip),%eax        # 1442c <g_1028>
    e42e:	0f b7 c0             	movzwl %ax,%eax
    e431:	8b 55 fc             	mov    -0x4(%rbp),%edx
    e434:	48 8d 35 0c 2b 00 00 	lea    0x2b0c(%rip),%rsi        # 10f47 <g_1837+0xeb3>
    e43b:	48 89 c7             	mov    %rax,%rdi
    e43e:	e8 b0 b2 ff ff       	callq  96f3 <transparent_crc>
    e443:	0f b6 05 e6 5f 00 00 	movzbl 0x5fe6(%rip),%eax        # 14430 <g_1090>
    e44a:	0f b6 c0             	movzbl %al,%eax
    e44d:	0f b6 15 dd 5f 00 00 	movzbl 0x5fdd(%rip),%edx        # 14431 <g_1090+0x1>
    e454:	0f b6 d2             	movzbl %dl,%edx
    e457:	48 c1 e2 08          	shl    $0x8,%rdx
    e45b:	48 09 c2             	or     %rax,%rdx
    e45e:	0f b6 05 cd 5f 00 00 	movzbl 0x5fcd(%rip),%eax        # 14432 <g_1090+0x2>
    e465:	0f b6 c0             	movzbl %al,%eax
    e468:	48 c1 e0 10          	shl    $0x10,%rax
    e46c:	48 09 c2             	or     %rax,%rdx
    e46f:	0f b6 05 bd 5f 00 00 	movzbl 0x5fbd(%rip),%eax        # 14433 <g_1090+0x3>
    e476:	0f b6 c0             	movzbl %al,%eax
    e479:	83 e0 07             	and    $0x7,%eax
    e47c:	48 c1 e0 18          	shl    $0x18,%rax
    e480:	48 09 d0             	or     %rdx,%rax
    e483:	89 c1                	mov    %eax,%ecx
    e485:	8b 45 fc             	mov    -0x4(%rbp),%eax
    e488:	89 c2                	mov    %eax,%edx
    e48a:	48 8d 35 c0 2a 00 00 	lea    0x2ac0(%rip),%rsi        # 10f51 <g_1837+0xebd>
    e491:	48 89 cf             	mov    %rcx,%rdi
    e494:	e8 5a b2 ff ff       	callq  96f3 <transparent_crc>
    e499:	0f b6 05 93 5f 00 00 	movzbl 0x5f93(%rip),%eax        # 14433 <g_1090+0x3>
    e4a0:	c0 e8 03             	shr    $0x3,%al
    e4a3:	0f b6 c0             	movzbl %al,%eax
    e4a6:	0f b6 15 87 5f 00 00 	movzbl 0x5f87(%rip),%edx        # 14434 <g_1090+0x4>
    e4ad:	0f b6 d2             	movzbl %dl,%edx
    e4b0:	83 e2 01             	and    $0x1,%edx
    e4b3:	48 c1 e2 05          	shl    $0x5,%rdx
    e4b7:	48 09 d0             	or     %rdx,%rax
    e4ba:	48 c1 e0 3a          	shl    $0x3a,%rax
    e4be:	48 c1 f8 3a          	sar    $0x3a,%rax
    e4c2:	48 0f be c0          	movsbq %al,%rax
    e4c6:	8b 55 fc             	mov    -0x4(%rbp),%edx
    e4c9:	48 8d 35 8b 2a 00 00 	lea    0x2a8b(%rip),%rsi        # 10f5b <g_1837+0xec7>
    e4d0:	48 89 c7             	mov    %rax,%rdi
    e4d3:	e8 1b b2 ff ff       	callq  96f3 <transparent_crc>
    e4d8:	0f b7 05 57 5f 00 00 	movzwl 0x5f57(%rip),%eax        # 14436 <g_1136>
    e4df:	48 0f bf c0          	movswq %ax,%rax
    e4e3:	8b 55 fc             	mov    -0x4(%rbp),%edx
    e4e6:	48 8d 35 78 2a 00 00 	lea    0x2a78(%rip),%rsi        # 10f65 <g_1837+0xed1>
    e4ed:	48 89 c7             	mov    %rax,%rdi
    e4f0:	e8 fe b1 ff ff       	callq  96f3 <transparent_crc>
    e4f5:	0f b6 05 3c 5f 00 00 	movzbl 0x5f3c(%rip),%eax        # 14438 <g_1139>
    e4fc:	0f b6 c0             	movzbl %al,%eax
    e4ff:	0f b6 15 33 5f 00 00 	movzbl 0x5f33(%rip),%edx        # 14439 <g_1139+0x1>
    e506:	0f b6 d2             	movzbl %dl,%edx
    e509:	48 c1 e2 08          	shl    $0x8,%rdx
    e50d:	48 09 c2             	or     %rax,%rdx
    e510:	0f b6 05 23 5f 00 00 	movzbl 0x5f23(%rip),%eax        # 1443a <g_1139+0x2>
    e517:	0f b6 c0             	movzbl %al,%eax
    e51a:	48 c1 e0 10          	shl    $0x10,%rax
    e51e:	48 09 c2             	or     %rax,%rdx
    e521:	0f b6 05 13 5f 00 00 	movzbl 0x5f13(%rip),%eax        # 1443b <g_1139+0x3>
    e528:	0f b6 c0             	movzbl %al,%eax
    e52b:	83 e0 07             	and    $0x7,%eax
    e52e:	48 c1 e0 18          	shl    $0x18,%rax
    e532:	48 09 d0             	or     %rdx,%rax
    e535:	89 c1                	mov    %eax,%ecx
    e537:	8b 45 fc             	mov    -0x4(%rbp),%eax
    e53a:	89 c2                	mov    %eax,%edx
    e53c:	48 8d 35 29 2a 00 00 	lea    0x2a29(%rip),%rsi        # 10f6c <g_1837+0xed8>
    e543:	48 89 cf             	mov    %rcx,%rdi
    e546:	e8 a8 b1 ff ff       	callq  96f3 <transparent_crc>
    e54b:	0f b6 05 e9 5e 00 00 	movzbl 0x5ee9(%rip),%eax        # 1443b <g_1139+0x3>
    e552:	c0 e8 03             	shr    $0x3,%al
    e555:	0f b6 c0             	movzbl %al,%eax
    e558:	0f b6 15 dd 5e 00 00 	movzbl 0x5edd(%rip),%edx        # 1443c <g_1139+0x4>
    e55f:	0f b6 d2             	movzbl %dl,%edx
    e562:	83 e2 01             	and    $0x1,%edx
    e565:	48 c1 e2 05          	shl    $0x5,%rdx
    e569:	48 09 d0             	or     %rdx,%rax
    e56c:	48 c1 e0 3a          	shl    $0x3a,%rax
    e570:	48 c1 f8 3a          	sar    $0x3a,%rax
    e574:	48 0f be c0          	movsbq %al,%rax
    e578:	8b 55 fc             	mov    -0x4(%rbp),%edx
    e57b:	48 8d 35 f4 29 00 00 	lea    0x29f4(%rip),%rsi        # 10f76 <g_1837+0xee2>
    e582:	48 89 c7             	mov    %rax,%rdi
    e585:	e8 69 b1 ff ff       	callq  96f3 <transparent_crc>
    e58a:	b8 00 00 00 00       	mov    $0x0,%eax
    e58f:	48 98                	cltq   
    e591:	8b 55 fc             	mov    -0x4(%rbp),%edx
    e594:	48 8d 35 e5 29 00 00 	lea    0x29e5(%rip),%rsi        # 10f80 <g_1837+0xeec>
    e59b:	48 89 c7             	mov    %rax,%rdi
    e59e:	e8 50 b1 ff ff       	callq  96f3 <transparent_crc>
    e5a3:	c7 45 f0 00 00 00 00 	movl   $0x0,-0x10(%rbp)
    e5aa:	e9 27 01 00 00       	jmpq   e6d6 <main+0x1727>
    e5af:	c7 45 f4 00 00 00 00 	movl   $0x0,-0xc(%rbp)
    e5b6:	e9 0d 01 00 00       	jmpq   e6c8 <main+0x1719>
    e5bb:	8b 45 f4             	mov    -0xc(%rbp),%eax
    e5be:	48 98                	cltq   
    e5c0:	8b 55 f0             	mov    -0x10(%rbp),%edx
    e5c3:	48 63 d2             	movslq %edx,%rdx
    e5c6:	48 c1 e2 02          	shl    $0x2,%rdx
    e5ca:	48 01 d0             	add    %rdx,%rax
    e5cd:	48 8d 14 85 00 00 00 	lea    0x0(,%rax,4),%rdx
    e5d4:	00 
    e5d5:	48 8d 05 64 5e 00 00 	lea    0x5e64(%rip),%rax        # 14440 <g_1166>
    e5dc:	8b 04 02             	mov    (%rdx,%rax,1),%eax
    e5df:	48 98                	cltq   
    e5e1:	8b 55 fc             	mov    -0x4(%rbp),%edx
    e5e4:	48 8d 35 9c 29 00 00 	lea    0x299c(%rip),%rsi        # 10f87 <g_1837+0xef3>
    e5eb:	48 89 c7             	mov    %rax,%rdi
    e5ee:	e8 00 b1 ff ff       	callq  96f3 <transparent_crc>
    e5f3:	8b 45 f4             	mov    -0xc(%rbp),%eax
    e5f6:	48 98                	cltq   
    e5f8:	8b 55 f0             	mov    -0x10(%rbp),%edx
    e5fb:	48 63 d2             	movslq %edx,%rdx
    e5fe:	48 c1 e2 02          	shl    $0x2,%rdx
    e602:	48 01 d0             	add    %rdx,%rax
    e605:	48 8d 14 85 00 00 00 	lea    0x0(,%rax,4),%rdx
    e60c:	00 
    e60d:	48 8d 05 2c 5e 00 00 	lea    0x5e2c(%rip),%rax        # 14440 <g_1166>
    e614:	8b 04 02             	mov    (%rdx,%rax,1),%eax
    e617:	c1 e0 03             	shl    $0x3,%eax
    e61a:	c1 f8 03             	sar    $0x3,%eax
    e61d:	48 98                	cltq   
    e61f:	8b 55 fc             	mov    -0x4(%rbp),%edx
    e622:	48 8d 35 6e 29 00 00 	lea    0x296e(%rip),%rsi        # 10f97 <g_1837+0xf03>
    e629:	48 89 c7             	mov    %rax,%rdi
    e62c:	e8 c2 b0 ff ff       	callq  96f3 <transparent_crc>
    e631:	8b 45 f4             	mov    -0xc(%rbp),%eax
    e634:	48 98                	cltq   
    e636:	8b 55 f0             	mov    -0x10(%rbp),%edx
    e639:	48 63 d2             	movslq %edx,%rdx
    e63c:	48 c1 e2 02          	shl    $0x2,%rdx
    e640:	48 01 d0             	add    %rdx,%rax
    e643:	48 8d 14 85 00 00 00 	lea    0x0(,%rax,4),%rdx
    e64a:	00 
    e64b:	48 8d 05 ee 5d 00 00 	lea    0x5dee(%rip),%rax        # 14440 <g_1166>
    e652:	8b 04 02             	mov    (%rdx,%rax,1),%eax
    e655:	89 c1                	mov    %eax,%ecx
    e657:	8b 45 fc             	mov    -0x4(%rbp),%eax
    e65a:	89 c2                	mov    %eax,%edx
    e65c:	48 8d 35 44 29 00 00 	lea    0x2944(%rip),%rsi        # 10fa7 <g_1837+0xf13>
    e663:	48 89 cf             	mov    %rcx,%rdi
    e666:	e8 88 b0 ff ff       	callq  96f3 <transparent_crc>
    e66b:	8b 45 f4             	mov    -0xc(%rbp),%eax
    e66e:	48 98                	cltq   
    e670:	8b 55 f0             	mov    -0x10(%rbp),%edx
    e673:	48 63 d2             	movslq %edx,%rdx
    e676:	48 c1 e2 02          	shl    $0x2,%rdx
    e67a:	48 01 d0             	add    %rdx,%rax
    e67d:	48 8d 14 85 00 00 00 	lea    0x0(,%rax,4),%rdx
    e684:	00 
    e685:	48 8d 05 b4 5d 00 00 	lea    0x5db4(%rip),%rax        # 14440 <g_1166>
    e68c:	0f b7 04 02          	movzwl (%rdx,%rax,1),%eax
    e690:	0f b7 c0             	movzwl %ax,%eax
    e693:	8b 55 fc             	mov    -0x4(%rbp),%edx
    e696:	48 8d 35 1a 29 00 00 	lea    0x291a(%rip),%rsi        # 10fb7 <g_1837+0xf23>
    e69d:	48 89 c7             	mov    %rax,%rdi
    e6a0:	e8 4e b0 ff ff       	callq  96f3 <transparent_crc>
    e6a5:	83 7d fc 00          	cmpl   $0x0,-0x4(%rbp)
    e6a9:	74 19                	je     e6c4 <main+0x1715>
    e6ab:	8b 55 f4             	mov    -0xc(%rbp),%edx
    e6ae:	8b 45 f0             	mov    -0x10(%rbp),%eax
    e6b1:	89 c6                	mov    %eax,%esi
    e6b3:	48 8d 3d c5 25 00 00 	lea    0x25c5(%rip),%rdi        # 10c7f <g_1837+0xbeb>
    e6ba:	b8 00 00 00 00       	mov    $0x0,%eax
    e6bf:	e8 bc 99 ff ff       	callq  8080 <printf@plt>
    e6c4:	83 45 f4 01          	addl   $0x1,-0xc(%rbp)
    e6c8:	83 7d f4 03          	cmpl   $0x3,-0xc(%rbp)
    e6cc:	0f 8e e9 fe ff ff    	jle    e5bb <main+0x160c>
    e6d2:	83 45 f0 01          	addl   $0x1,-0x10(%rbp)
    e6d6:	83 7d f0 02          	cmpl   $0x2,-0x10(%rbp)
    e6da:	0f 8e cf fe ff ff    	jle    e5af <main+0x1600>
    e6e0:	c7 45 f0 00 00 00 00 	movl   $0x0,-0x10(%rbp)
    e6e7:	e9 d7 00 00 00       	jmpq   e7c3 <main+0x1814>
    e6ec:	8b 45 f0             	mov    -0x10(%rbp),%eax
    e6ef:	48 63 d0             	movslq %eax,%rdx
    e6f2:	48 89 d0             	mov    %rdx,%rax
    e6f5:	48 c1 e0 02          	shl    $0x2,%rax
    e6f9:	48 01 c2             	add    %rax,%rdx
    e6fc:	48 8d 05 6d 5d 00 00 	lea    0x5d6d(%rip),%rax        # 14470 <g_1173>
    e703:	0f b6 0c 02          	movzbl (%rdx,%rax,1),%ecx
    e707:	0f b6 c9             	movzbl %cl,%ecx
    e70a:	0f b6 74 02 01       	movzbl 0x1(%rdx,%rax,1),%esi
    e70f:	40 0f b6 f6          	movzbl %sil,%esi
    e713:	48 c1 e6 08          	shl    $0x8,%rsi
    e717:	48 09 ce             	or     %rcx,%rsi
    e71a:	0f b6 4c 02 02       	movzbl 0x2(%rdx,%rax,1),%ecx
    e71f:	0f b6 c9             	movzbl %cl,%ecx
    e722:	48 c1 e1 10          	shl    $0x10,%rcx
    e726:	48 09 f1             	or     %rsi,%rcx
    e729:	0f b6 44 02 03       	movzbl 0x3(%rdx,%rax,1),%eax
    e72e:	0f b6 c0             	movzbl %al,%eax
    e731:	83 e0 07             	and    $0x7,%eax
    e734:	48 c1 e0 18          	shl    $0x18,%rax
    e738:	48 09 c8             	or     %rcx,%rax
    e73b:	89 c1                	mov    %eax,%ecx
    e73d:	8b 45 fc             	mov    -0x4(%rbp),%eax
    e740:	89 c2                	mov    %eax,%edx
    e742:	48 8d 35 7e 28 00 00 	lea    0x287e(%rip),%rsi        # 10fc7 <g_1837+0xf33>
    e749:	48 89 cf             	mov    %rcx,%rdi
    e74c:	e8 a2 af ff ff       	callq  96f3 <transparent_crc>
    e751:	8b 45 f0             	mov    -0x10(%rbp),%eax
    e754:	48 63 d0             	movslq %eax,%rdx
    e757:	48 89 d0             	mov    %rdx,%rax
    e75a:	48 c1 e0 02          	shl    $0x2,%rax
    e75e:	48 01 c2             	add    %rax,%rdx
    e761:	48 8d 05 08 5d 00 00 	lea    0x5d08(%rip),%rax        # 14470 <g_1173>
    e768:	0f b6 4c 02 03       	movzbl 0x3(%rdx,%rax,1),%ecx
    e76d:	c0 e9 03             	shr    $0x3,%cl
    e770:	0f b6 c9             	movzbl %cl,%ecx
    e773:	0f b6 44 02 04       	movzbl 0x4(%rdx,%rax,1),%eax
    e778:	0f b6 c0             	movzbl %al,%eax
    e77b:	83 e0 01             	and    $0x1,%eax
    e77e:	48 c1 e0 05          	shl    $0x5,%rax
    e782:	48 09 c8             	or     %rcx,%rax
    e785:	48 c1 e0 3a          	shl    $0x3a,%rax
    e789:	48 c1 f8 3a          	sar    $0x3a,%rax
    e78d:	48 0f be c0          	movsbq %al,%rax
    e791:	8b 55 fc             	mov    -0x4(%rbp),%edx
    e794:	48 8d 35 39 28 00 00 	lea    0x2839(%rip),%rsi        # 10fd4 <g_1837+0xf40>
    e79b:	48 89 c7             	mov    %rax,%rdi
    e79e:	e8 50 af ff ff       	callq  96f3 <transparent_crc>
    e7a3:	83 7d fc 00          	cmpl   $0x0,-0x4(%rbp)
    e7a7:	74 16                	je     e7bf <main+0x1810>
    e7a9:	8b 45 f0             	mov    -0x10(%rbp),%eax
    e7ac:	89 c6                	mov    %eax,%esi
    e7ae:	48 8d 3d 51 25 00 00 	lea    0x2551(%rip),%rdi        # 10d06 <g_1837+0xc72>
    e7b5:	b8 00 00 00 00       	mov    $0x0,%eax
    e7ba:	e8 c1 98 ff ff       	callq  8080 <printf@plt>
    e7bf:	83 45 f0 01          	addl   $0x1,-0x10(%rbp)
    e7c3:	83 7d f0 01          	cmpl   $0x1,-0x10(%rbp)
    e7c7:	0f 8e 1f ff ff ff    	jle    e6ec <main+0x173d>
    e7cd:	c7 45 f0 00 00 00 00 	movl   $0x0,-0x10(%rbp)
    e7d4:	e9 d7 00 00 00       	jmpq   e8b0 <main+0x1901>
    e7d9:	8b 45 f0             	mov    -0x10(%rbp),%eax
    e7dc:	48 63 d0             	movslq %eax,%rdx
    e7df:	48 89 d0             	mov    %rdx,%rax
    e7e2:	48 c1 e0 02          	shl    $0x2,%rax
    e7e6:	48 01 c2             	add    %rax,%rdx
    e7e9:	48 8d 05 90 5c 00 00 	lea    0x5c90(%rip),%rax        # 14480 <g_1197>
    e7f0:	0f b6 0c 02          	movzbl (%rdx,%rax,1),%ecx
    e7f4:	0f b6 c9             	movzbl %cl,%ecx
    e7f7:	0f b6 74 02 01       	movzbl 0x1(%rdx,%rax,1),%esi
    e7fc:	40 0f b6 f6          	movzbl %sil,%esi
    e800:	48 c1 e6 08          	shl    $0x8,%rsi
    e804:	48 09 ce             	or     %rcx,%rsi
    e807:	0f b6 4c 02 02       	movzbl 0x2(%rdx,%rax,1),%ecx
    e80c:	0f b6 c9             	movzbl %cl,%ecx
    e80f:	48 c1 e1 10          	shl    $0x10,%rcx
    e813:	48 09 f1             	or     %rsi,%rcx
    e816:	0f b6 44 02 03       	movzbl 0x3(%rdx,%rax,1),%eax
    e81b:	0f b6 c0             	movzbl %al,%eax
    e81e:	83 e0 07             	and    $0x7,%eax
    e821:	48 c1 e0 18          	shl    $0x18,%rax
    e825:	48 09 c8             	or     %rcx,%rax
    e828:	89 c1                	mov    %eax,%ecx
    e82a:	8b 45 fc             	mov    -0x4(%rbp),%eax
    e82d:	89 c2                	mov    %eax,%edx
    e82f:	48 8d 35 ab 27 00 00 	lea    0x27ab(%rip),%rsi        # 10fe1 <g_1837+0xf4d>
    e836:	48 89 cf             	mov    %rcx,%rdi
    e839:	e8 b5 ae ff ff       	callq  96f3 <transparent_crc>
    e83e:	8b 45 f0             	mov    -0x10(%rbp),%eax
    e841:	48 63 d0             	movslq %eax,%rdx
    e844:	48 89 d0             	mov    %rdx,%rax
    e847:	48 c1 e0 02          	shl    $0x2,%rax
    e84b:	48 01 c2             	add    %rax,%rdx
    e84e:	48 8d 05 2b 5c 00 00 	lea    0x5c2b(%rip),%rax        # 14480 <g_1197>
    e855:	0f b6 4c 02 03       	movzbl 0x3(%rdx,%rax,1),%ecx
    e85a:	c0 e9 03             	shr    $0x3,%cl
    e85d:	0f b6 c9             	movzbl %cl,%ecx
    e860:	0f b6 44 02 04       	movzbl 0x4(%rdx,%rax,1),%eax
    e865:	0f b6 c0             	movzbl %al,%eax
    e868:	83 e0 01             	and    $0x1,%eax
    e86b:	48 c1 e0 05          	shl    $0x5,%rax
    e86f:	48 09 c8             	or     %rcx,%rax
    e872:	48 c1 e0 3a          	shl    $0x3a,%rax
    e876:	48 c1 f8 3a          	sar    $0x3a,%rax
    e87a:	48 0f be c0          	movsbq %al,%rax
    e87e:	8b 55 fc             	mov    -0x4(%rbp),%edx
    e881:	48 8d 35 66 27 00 00 	lea    0x2766(%rip),%rsi        # 10fee <g_1837+0xf5a>
    e888:	48 89 c7             	mov    %rax,%rdi
    e88b:	e8 63 ae ff ff       	callq  96f3 <transparent_crc>
    e890:	83 7d fc 00          	cmpl   $0x0,-0x4(%rbp)
    e894:	74 16                	je     e8ac <main+0x18fd>
    e896:	8b 45 f0             	mov    -0x10(%rbp),%eax
    e899:	89 c6                	mov    %eax,%esi
    e89b:	48 8d 3d 64 24 00 00 	lea    0x2464(%rip),%rdi        # 10d06 <g_1837+0xc72>
    e8a2:	b8 00 00 00 00       	mov    $0x0,%eax
    e8a7:	e8 d4 97 ff ff       	callq  8080 <printf@plt>
    e8ac:	83 45 f0 01          	addl   $0x1,-0x10(%rbp)
    e8b0:	83 7d f0 02          	cmpl   $0x2,-0x10(%rbp)
    e8b4:	0f 8e 1f ff ff ff    	jle    e7d9 <main+0x182a>
    e8ba:	c7 45 f0 00 00 00 00 	movl   $0x0,-0x10(%rbp)
    e8c1:	e9 43 01 00 00       	jmpq   ea09 <main+0x1a5a>
    e8c6:	c7 45 f4 00 00 00 00 	movl   $0x0,-0xc(%rbp)
    e8cd:	e9 29 01 00 00       	jmpq   e9fb <main+0x1a4c>
    e8d2:	8b 45 f4             	mov    -0xc(%rbp),%eax
    e8d5:	48 63 c8             	movslq %eax,%rcx
    e8d8:	8b 45 f0             	mov    -0x10(%rbp),%eax
    e8db:	48 63 d0             	movslq %eax,%rdx
    e8de:	48 89 d0             	mov    %rdx,%rax
    e8e1:	48 c1 e0 02          	shl    $0x2,%rax
    e8e5:	48 01 d0             	add    %rdx,%rax
    e8e8:	48 01 c8             	add    %rcx,%rax
    e8eb:	48 8d 14 85 00 00 00 	lea    0x0(,%rax,4),%rdx
    e8f2:	00 
    e8f3:	48 8d 05 a6 5b 00 00 	lea    0x5ba6(%rip),%rax        # 144a0 <g_1234>
    e8fa:	8b 04 02             	mov    (%rdx,%rax,1),%eax
    e8fd:	48 98                	cltq   
    e8ff:	8b 55 fc             	mov    -0x4(%rbp),%edx
    e902:	48 8d 35 f2 26 00 00 	lea    0x26f2(%rip),%rsi        # 10ffb <g_1837+0xf67>
    e909:	48 89 c7             	mov    %rax,%rdi
    e90c:	e8 e2 ad ff ff       	callq  96f3 <transparent_crc>
    e911:	8b 45 f4             	mov    -0xc(%rbp),%eax
    e914:	48 63 c8             	movslq %eax,%rcx
    e917:	8b 45 f0             	mov    -0x10(%rbp),%eax
    e91a:	48 63 d0             	movslq %eax,%rdx
    e91d:	48 89 d0             	mov    %rdx,%rax
    e920:	48 c1 e0 02          	shl    $0x2,%rax
    e924:	48 01 d0             	add    %rdx,%rax
    e927:	48 01 c8             	add    %rcx,%rax
    e92a:	48 8d 14 85 00 00 00 	lea    0x0(,%rax,4),%rdx
    e931:	00 
    e932:	48 8d 05 67 5b 00 00 	lea    0x5b67(%rip),%rax        # 144a0 <g_1234>
    e939:	8b 04 02             	mov    (%rdx,%rax,1),%eax
    e93c:	c1 e0 03             	shl    $0x3,%eax
    e93f:	c1 f8 03             	sar    $0x3,%eax
    e942:	48 98                	cltq   
    e944:	8b 55 fc             	mov    -0x4(%rbp),%edx
    e947:	48 8d 35 bd 26 00 00 	lea    0x26bd(%rip),%rsi        # 1100b <g_1837+0xf77>
    e94e:	48 89 c7             	mov    %rax,%rdi
    e951:	e8 9d ad ff ff       	callq  96f3 <transparent_crc>
    e956:	8b 45 f4             	mov    -0xc(%rbp),%eax
    e959:	48 63 c8             	movslq %eax,%rcx
    e95c:	8b 45 f0             	mov    -0x10(%rbp),%eax
    e95f:	48 63 d0             	movslq %eax,%rdx
    e962:	48 89 d0             	mov    %rdx,%rax
    e965:	48 c1 e0 02          	shl    $0x2,%rax
    e969:	48 01 d0             	add    %rdx,%rax
    e96c:	48 01 c8             	add    %rcx,%rax
    e96f:	48 8d 14 85 00 00 00 	lea    0x0(,%rax,4),%rdx
    e976:	00 
    e977:	48 8d 05 22 5b 00 00 	lea    0x5b22(%rip),%rax        # 144a0 <g_1234>
    e97e:	8b 04 02             	mov    (%rdx,%rax,1),%eax
    e981:	89 c1                	mov    %eax,%ecx
    e983:	8b 45 fc             	mov    -0x4(%rbp),%eax
    e986:	89 c2                	mov    %eax,%edx
    e988:	48 8d 35 8c 26 00 00 	lea    0x268c(%rip),%rsi        # 1101b <g_1837+0xf87>
    e98f:	48 89 cf             	mov    %rcx,%rdi
    e992:	e8 5c ad ff ff       	callq  96f3 <transparent_crc>
    e997:	8b 45 f4             	mov    -0xc(%rbp),%eax
    e99a:	48 63 c8             	movslq %eax,%rcx
    e99d:	8b 45 f0             	mov    -0x10(%rbp),%eax
    e9a0:	48 63 d0             	movslq %eax,%rdx
    e9a3:	48 89 d0             	mov    %rdx,%rax
    e9a6:	48 c1 e0 02          	shl    $0x2,%rax
    e9aa:	48 01 d0             	add    %rdx,%rax
    e9ad:	48 01 c8             	add    %rcx,%rax
    e9b0:	48 8d 14 85 00 00 00 	lea    0x0(,%rax,4),%rdx
    e9b7:	00 
    e9b8:	48 8d 05 e1 5a 00 00 	lea    0x5ae1(%rip),%rax        # 144a0 <g_1234>
    e9bf:	0f b7 04 02          	movzwl (%rdx,%rax,1),%eax
    e9c3:	0f b7 c0             	movzwl %ax,%eax
    e9c6:	8b 55 fc             	mov    -0x4(%rbp),%edx
    e9c9:	48 8d 35 5b 26 00 00 	lea    0x265b(%rip),%rsi        # 1102b <g_1837+0xf97>
    e9d0:	48 89 c7             	mov    %rax,%rdi
    e9d3:	e8 1b ad ff ff       	callq  96f3 <transparent_crc>
    e9d8:	83 7d fc 00          	cmpl   $0x0,-0x4(%rbp)
    e9dc:	74 19                	je     e9f7 <main+0x1a48>
    e9de:	8b 55 f4             	mov    -0xc(%rbp),%edx
    e9e1:	8b 45 f0             	mov    -0x10(%rbp),%eax
    e9e4:	89 c6                	mov    %eax,%esi
    e9e6:	48 8d 3d 92 22 00 00 	lea    0x2292(%rip),%rdi        # 10c7f <g_1837+0xbeb>
    e9ed:	b8 00 00 00 00       	mov    $0x0,%eax
    e9f2:	e8 89 96 ff ff       	callq  8080 <printf@plt>
    e9f7:	83 45 f4 01          	addl   $0x1,-0xc(%rbp)
    e9fb:	83 7d f4 04          	cmpl   $0x4,-0xc(%rbp)
    e9ff:	0f 8e cd fe ff ff    	jle    e8d2 <main+0x1923>
    ea05:	83 45 f0 01          	addl   $0x1,-0x10(%rbp)
    ea09:	83 7d f0 08          	cmpl   $0x8,-0x10(%rbp)
    ea0d:	0f 8e b3 fe ff ff    	jle    e8c6 <main+0x1917>
    ea13:	0f b6 05 3a 5b 00 00 	movzbl 0x5b3a(%rip),%eax        # 14554 <g_1236>
    ea1a:	0f b6 c0             	movzbl %al,%eax
    ea1d:	0f b6 15 31 5b 00 00 	movzbl 0x5b31(%rip),%edx        # 14555 <g_1236+0x1>
    ea24:	0f b6 d2             	movzbl %dl,%edx
    ea27:	48 c1 e2 08          	shl    $0x8,%rdx
    ea2b:	48 09 c2             	or     %rax,%rdx
    ea2e:	0f b6 05 21 5b 00 00 	movzbl 0x5b21(%rip),%eax        # 14556 <g_1236+0x2>
    ea35:	0f b6 c0             	movzbl %al,%eax
    ea38:	48 c1 e0 10          	shl    $0x10,%rax
    ea3c:	48 09 c2             	or     %rax,%rdx
    ea3f:	0f b6 05 11 5b 00 00 	movzbl 0x5b11(%rip),%eax        # 14557 <g_1236+0x3>
    ea46:	0f b6 c0             	movzbl %al,%eax
    ea49:	83 e0 07             	and    $0x7,%eax
    ea4c:	48 c1 e0 18          	shl    $0x18,%rax
    ea50:	48 09 d0             	or     %rdx,%rax
    ea53:	89 c1                	mov    %eax,%ecx
    ea55:	8b 45 fc             	mov    -0x4(%rbp),%eax
    ea58:	89 c2                	mov    %eax,%edx
    ea5a:	48 8d 35 da 25 00 00 	lea    0x25da(%rip),%rsi        # 1103b <g_1837+0xfa7>
    ea61:	48 89 cf             	mov    %rcx,%rdi
    ea64:	e8 8a ac ff ff       	callq  96f3 <transparent_crc>
    ea69:	0f b6 05 e7 5a 00 00 	movzbl 0x5ae7(%rip),%eax        # 14557 <g_1236+0x3>
    ea70:	c0 e8 03             	shr    $0x3,%al
    ea73:	0f b6 c0             	movzbl %al,%eax
    ea76:	0f b6 15 db 5a 00 00 	movzbl 0x5adb(%rip),%edx        # 14558 <g_1236+0x4>
    ea7d:	0f b6 d2             	movzbl %dl,%edx
    ea80:	83 e2 01             	and    $0x1,%edx
    ea83:	48 c1 e2 05          	shl    $0x5,%rdx
    ea87:	48 09 d0             	or     %rdx,%rax
    ea8a:	48 c1 e0 3a          	shl    $0x3a,%rax
    ea8e:	48 c1 f8 3a          	sar    $0x3a,%rax
    ea92:	48 0f be c0          	movsbq %al,%rax
    ea96:	8b 55 fc             	mov    -0x4(%rbp),%edx
    ea99:	48 8d 35 a5 25 00 00 	lea    0x25a5(%rip),%rsi        # 11045 <g_1837+0xfb1>
    eaa0:	48 89 c7             	mov    %rax,%rdi
    eaa3:	e8 4b ac ff ff       	callq  96f3 <transparent_crc>
    eaa8:	8b 05 ae 5a 00 00    	mov    0x5aae(%rip),%eax        # 1455c <g_1271>
    eaae:	48 98                	cltq   
    eab0:	8b 55 fc             	mov    -0x4(%rbp),%edx
    eab3:	48 8d 35 95 25 00 00 	lea    0x2595(%rip),%rsi        # 1104f <g_1837+0xfbb>
    eaba:	48 89 c7             	mov    %rax,%rdi
    eabd:	e8 31 ac ff ff       	callq  96f3 <transparent_crc>
    eac2:	0f b7 05 97 5a 00 00 	movzwl 0x5a97(%rip),%eax        # 14560 <g_1316>
    eac9:	0f b7 c0             	movzwl %ax,%eax
    eacc:	8b 55 fc             	mov    -0x4(%rbp),%edx
    eacf:	48 8d 35 80 25 00 00 	lea    0x2580(%rip),%rsi        # 11056 <g_1837+0xfc2>
    ead6:	48 89 c7             	mov    %rax,%rdi
    ead9:	e8 15 ac ff ff       	callq  96f3 <transparent_crc>
    eade:	b8 06 00 00 00       	mov    $0x6,%eax
    eae3:	89 c1                	mov    %eax,%ecx
    eae5:	8b 45 fc             	mov    -0x4(%rbp),%eax
    eae8:	89 c2                	mov    %eax,%edx
    eaea:	48 8d 35 6c 25 00 00 	lea    0x256c(%rip),%rsi        # 1105d <g_1837+0xfc9>
    eaf1:	48 89 cf             	mov    %rcx,%rdi
    eaf4:	e8 fa ab ff ff       	callq  96f3 <transparent_crc>
    eaf9:	0f b6 05 62 5a 00 00 	movzbl 0x5a62(%rip),%eax        # 14562 <g_1351>
    eb00:	0f b6 c0             	movzbl %al,%eax
    eb03:	0f b6 15 59 5a 00 00 	movzbl 0x5a59(%rip),%edx        # 14563 <g_1351+0x1>
    eb0a:	0f b6 d2             	movzbl %dl,%edx
    eb0d:	48 c1 e2 08          	shl    $0x8,%rdx
    eb11:	48 09 c2             	or     %rax,%rdx
    eb14:	0f b6 05 49 5a 00 00 	movzbl 0x5a49(%rip),%eax        # 14564 <g_1351+0x2>
    eb1b:	0f b6 c0             	movzbl %al,%eax
    eb1e:	48 c1 e0 10          	shl    $0x10,%rax
    eb22:	48 09 c2             	or     %rax,%rdx
    eb25:	0f b6 05 39 5a 00 00 	movzbl 0x5a39(%rip),%eax        # 14565 <g_1351+0x3>
    eb2c:	0f b6 c0             	movzbl %al,%eax
    eb2f:	83 e0 07             	and    $0x7,%eax
    eb32:	48 c1 e0 18          	shl    $0x18,%rax
    eb36:	48 09 d0             	or     %rdx,%rax
    eb39:	89 c1                	mov    %eax,%ecx
    eb3b:	8b 45 fc             	mov    -0x4(%rbp),%eax
    eb3e:	89 c2                	mov    %eax,%edx
    eb40:	48 8d 35 1d 25 00 00 	lea    0x251d(%rip),%rsi        # 11064 <g_1837+0xfd0>
    eb47:	48 89 cf             	mov    %rcx,%rdi
    eb4a:	e8 a4 ab ff ff       	callq  96f3 <transparent_crc>
    eb4f:	0f b6 05 0f 5a 00 00 	movzbl 0x5a0f(%rip),%eax        # 14565 <g_1351+0x3>
    eb56:	c0 e8 03             	shr    $0x3,%al
    eb59:	0f b6 c0             	movzbl %al,%eax
    eb5c:	0f b6 15 03 5a 00 00 	movzbl 0x5a03(%rip),%edx        # 14566 <g_1351+0x4>
    eb63:	0f b6 d2             	movzbl %dl,%edx
    eb66:	83 e2 01             	and    $0x1,%edx
    eb69:	48 c1 e2 05          	shl    $0x5,%rdx
    eb6d:	48 09 d0             	or     %rdx,%rax
    eb70:	48 c1 e0 3a          	shl    $0x3a,%rax
    eb74:	48 c1 f8 3a          	sar    $0x3a,%rax
    eb78:	48 0f be c0          	movsbq %al,%rax
    eb7c:	8b 55 fc             	mov    -0x4(%rbp),%edx
    eb7f:	48 8d 35 e8 24 00 00 	lea    0x24e8(%rip),%rsi        # 1106e <g_1837+0xfda>
    eb86:	48 89 c7             	mov    %rax,%rdi
    eb89:	e8 65 ab ff ff       	callq  96f3 <transparent_crc>
    eb8e:	0f b6 05 d2 59 00 00 	movzbl 0x59d2(%rip),%eax        # 14567 <g_1371>
    eb95:	48 0f be c0          	movsbq %al,%rax
    eb99:	8b 55 fc             	mov    -0x4(%rbp),%edx
    eb9c:	48 8d 35 d5 24 00 00 	lea    0x24d5(%rip),%rsi        # 11078 <g_1837+0xfe4>
    eba3:	48 89 c7             	mov    %rax,%rdi
    eba6:	e8 48 ab ff ff       	callq  96f3 <transparent_crc>
    ebab:	0f b6 05 b6 59 00 00 	movzbl 0x59b6(%rip),%eax        # 14568 <g_1457>
    ebb2:	0f b6 c0             	movzbl %al,%eax
    ebb5:	0f b6 15 ad 59 00 00 	movzbl 0x59ad(%rip),%edx        # 14569 <g_1457+0x1>
    ebbc:	0f b6 d2             	movzbl %dl,%edx
    ebbf:	48 c1 e2 08          	shl    $0x8,%rdx
    ebc3:	48 09 c2             	or     %rax,%rdx
    ebc6:	0f b6 05 9d 59 00 00 	movzbl 0x599d(%rip),%eax        # 1456a <g_1457+0x2>
    ebcd:	0f b6 c0             	movzbl %al,%eax
    ebd0:	48 c1 e0 10          	shl    $0x10,%rax
    ebd4:	48 09 c2             	or     %rax,%rdx
    ebd7:	0f b6 05 8d 59 00 00 	movzbl 0x598d(%rip),%eax        # 1456b <g_1457+0x3>
    ebde:	0f b6 c0             	movzbl %al,%eax
    ebe1:	83 e0 07             	and    $0x7,%eax
    ebe4:	48 c1 e0 18          	shl    $0x18,%rax
    ebe8:	48 09 d0             	or     %rdx,%rax
    ebeb:	89 c1                	mov    %eax,%ecx
    ebed:	8b 45 fc             	mov    -0x4(%rbp),%eax
    ebf0:	89 c2                	mov    %eax,%edx
    ebf2:	48 8d 35 86 24 00 00 	lea    0x2486(%rip),%rsi        # 1107f <g_1837+0xfeb>
    ebf9:	48 89 cf             	mov    %rcx,%rdi
    ebfc:	e8 f2 aa ff ff       	callq  96f3 <transparent_crc>
    ec01:	0f b6 05 63 59 00 00 	movzbl 0x5963(%rip),%eax        # 1456b <g_1457+0x3>
    ec08:	c0 e8 03             	shr    $0x3,%al
    ec0b:	0f b6 c0             	movzbl %al,%eax
    ec0e:	0f b6 15 57 59 00 00 	movzbl 0x5957(%rip),%edx        # 1456c <g_1457+0x4>
    ec15:	0f b6 d2             	movzbl %dl,%edx
    ec18:	83 e2 01             	and    $0x1,%edx
    ec1b:	48 c1 e2 05          	shl    $0x5,%rdx
    ec1f:	48 09 d0             	or     %rdx,%rax
    ec22:	48 c1 e0 3a          	shl    $0x3a,%rax
    ec26:	48 c1 f8 3a          	sar    $0x3a,%rax
    ec2a:	48 0f be c0          	movsbq %al,%rax
    ec2e:	8b 55 fc             	mov    -0x4(%rbp),%edx
    ec31:	48 8d 35 51 24 00 00 	lea    0x2451(%rip),%rsi        # 11089 <g_1837+0xff5>
    ec38:	48 89 c7             	mov    %rax,%rdi
    ec3b:	e8 b3 aa ff ff       	callq  96f3 <transparent_crc>
    ec40:	48 8b 05 29 59 00 00 	mov    0x5929(%rip),%rax        # 14570 <g_1483>
    ec47:	8b 55 fc             	mov    -0x4(%rbp),%edx
    ec4a:	48 8d 35 42 24 00 00 	lea    0x2442(%rip),%rsi        # 11093 <g_1837+0xfff>
    ec51:	48 89 c7             	mov    %rax,%rdi
    ec54:	e8 9a aa ff ff       	callq  96f3 <transparent_crc>
    ec59:	8b 05 19 59 00 00    	mov    0x5919(%rip),%eax        # 14578 <g_1506>
    ec5f:	48 98                	cltq   
    ec61:	8b 55 fc             	mov    -0x4(%rbp),%edx
    ec64:	48 8d 35 2f 24 00 00 	lea    0x242f(%rip),%rsi        # 1109a <g_1837+0x1006>
    ec6b:	48 89 c7             	mov    %rax,%rdi
    ec6e:	e8 80 aa ff ff       	callq  96f3 <transparent_crc>
    ec73:	8b 05 03 59 00 00    	mov    0x5903(%rip),%eax        # 1457c <g_1599>
    ec79:	48 98                	cltq   
    ec7b:	8b 55 fc             	mov    -0x4(%rbp),%edx
    ec7e:	48 8d 35 1c 24 00 00 	lea    0x241c(%rip),%rsi        # 110a1 <g_1837+0x100d>
    ec85:	48 89 c7             	mov    %rax,%rdi
    ec88:	e8 66 aa ff ff       	callq  96f3 <transparent_crc>
    ec8d:	8b 05 e9 58 00 00    	mov    0x58e9(%rip),%eax        # 1457c <g_1599>
    ec93:	c1 e0 03             	shl    $0x3,%eax
    ec96:	c1 f8 03             	sar    $0x3,%eax
    ec99:	48 98                	cltq   
    ec9b:	8b 55 fc             	mov    -0x4(%rbp),%edx
    ec9e:	48 8d 35 06 24 00 00 	lea    0x2406(%rip),%rsi        # 110ab <g_1837+0x1017>
    eca5:	48 89 c7             	mov    %rax,%rdi
    eca8:	e8 46 aa ff ff       	callq  96f3 <transparent_crc>
    ecad:	8b 05 c9 58 00 00    	mov    0x58c9(%rip),%eax        # 1457c <g_1599>
    ecb3:	89 c1                	mov    %eax,%ecx
    ecb5:	8b 45 fc             	mov    -0x4(%rbp),%eax
    ecb8:	89 c2                	mov    %eax,%edx
    ecba:	48 8d 35 f4 23 00 00 	lea    0x23f4(%rip),%rsi        # 110b5 <g_1837+0x1021>
    ecc1:	48 89 cf             	mov    %rcx,%rdi
    ecc4:	e8 2a aa ff ff       	callq  96f3 <transparent_crc>
    ecc9:	0f b7 05 ac 58 00 00 	movzwl 0x58ac(%rip),%eax        # 1457c <g_1599>
    ecd0:	0f b7 c0             	movzwl %ax,%eax
    ecd3:	8b 55 fc             	mov    -0x4(%rbp),%edx
    ecd6:	48 8d 35 e2 23 00 00 	lea    0x23e2(%rip),%rsi        # 110bf <g_1837+0x102b>
    ecdd:	48 89 c7             	mov    %rax,%rdi
    ece0:	e8 0e aa ff ff       	callq  96f3 <transparent_crc>
    ece5:	c7 45 f0 00 00 00 00 	movl   $0x0,-0x10(%rbp)
    ecec:	eb 4d                	jmp    ed3b <main+0x1d8c>
    ecee:	8b 45 f0             	mov    -0x10(%rbp),%eax
    ecf1:	48 98                	cltq   
    ecf3:	48 8d 14 85 00 00 00 	lea    0x0(,%rax,4),%rdx
    ecfa:	00 
    ecfb:	48 8d 05 86 13 00 00 	lea    0x1386(%rip),%rax        # 10088 <g_1611>
    ed02:	8b 04 02             	mov    (%rdx,%rax,1),%eax
    ed05:	89 c1                	mov    %eax,%ecx
    ed07:	8b 45 fc             	mov    -0x4(%rbp),%eax
    ed0a:	89 c2                	mov    %eax,%edx
    ed0c:	48 8d 35 b6 23 00 00 	lea    0x23b6(%rip),%rsi        # 110c9 <g_1837+0x1035>
    ed13:	48 89 cf             	mov    %rcx,%rdi
    ed16:	e8 d8 a9 ff ff       	callq  96f3 <transparent_crc>
    ed1b:	83 7d fc 00          	cmpl   $0x0,-0x4(%rbp)
    ed1f:	74 16                	je     ed37 <main+0x1d88>
    ed21:	8b 45 f0             	mov    -0x10(%rbp),%eax
    ed24:	89 c6                	mov    %eax,%esi
    ed26:	48 8d 3d d9 1f 00 00 	lea    0x1fd9(%rip),%rdi        # 10d06 <g_1837+0xc72>
    ed2d:	b8 00 00 00 00       	mov    $0x0,%eax
    ed32:	e8 49 93 ff ff       	callq  8080 <printf@plt>
    ed37:	83 45 f0 01          	addl   $0x1,-0x10(%rbp)
    ed3b:	83 7d f0 02          	cmpl   $0x2,-0x10(%rbp)
    ed3f:	7e ad                	jle    ecee <main+0x1d3f>
    ed41:	0f b7 05 38 58 00 00 	movzwl 0x5838(%rip),%eax        # 14580 <g_1647>
    ed48:	48 0f bf c0          	movswq %ax,%rax
    ed4c:	8b 55 fc             	mov    -0x4(%rbp),%edx
    ed4f:	48 8d 35 7d 23 00 00 	lea    0x237d(%rip),%rsi        # 110d3 <g_1837+0x103f>
    ed56:	48 89 c7             	mov    %rax,%rdi
    ed59:	e8 95 a9 ff ff       	callq  96f3 <transparent_crc>
    ed5e:	8b 05 20 58 00 00    	mov    0x5820(%rip),%eax        # 14584 <g_1668>
    ed64:	48 98                	cltq   
    ed66:	8b 55 fc             	mov    -0x4(%rbp),%edx
    ed69:	48 8d 35 6a 23 00 00 	lea    0x236a(%rip),%rsi        # 110da <g_1837+0x1046>
    ed70:	48 89 c7             	mov    %rax,%rdi
    ed73:	e8 7b a9 ff ff       	callq  96f3 <transparent_crc>
    ed78:	8b 05 06 58 00 00    	mov    0x5806(%rip),%eax        # 14584 <g_1668>
    ed7e:	c1 e0 03             	shl    $0x3,%eax
    ed81:	c1 f8 03             	sar    $0x3,%eax
    ed84:	48 98                	cltq   
    ed86:	8b 55 fc             	mov    -0x4(%rbp),%edx
    ed89:	48 8d 35 54 23 00 00 	lea    0x2354(%rip),%rsi        # 110e4 <g_1837+0x1050>
    ed90:	48 89 c7             	mov    %rax,%rdi
    ed93:	e8 5b a9 ff ff       	callq  96f3 <transparent_crc>
    ed98:	8b 05 e6 57 00 00    	mov    0x57e6(%rip),%eax        # 14584 <g_1668>
    ed9e:	89 c1                	mov    %eax,%ecx
    eda0:	8b 45 fc             	mov    -0x4(%rbp),%eax
    eda3:	89 c2                	mov    %eax,%edx
    eda5:	48 8d 35 42 23 00 00 	lea    0x2342(%rip),%rsi        # 110ee <g_1837+0x105a>
    edac:	48 89 cf             	mov    %rcx,%rdi
    edaf:	e8 3f a9 ff ff       	callq  96f3 <transparent_crc>
    edb4:	0f b7 05 c9 57 00 00 	movzwl 0x57c9(%rip),%eax        # 14584 <g_1668>
    edbb:	0f b7 c0             	movzwl %ax,%eax
    edbe:	8b 55 fc             	mov    -0x4(%rbp),%edx
    edc1:	48 8d 35 30 23 00 00 	lea    0x2330(%rip),%rsi        # 110f8 <g_1837+0x1064>
    edc8:	48 89 c7             	mov    %rax,%rdi
    edcb:	e8 23 a9 ff ff       	callq  96f3 <transparent_crc>
    edd0:	0f b6 05 b1 57 00 00 	movzbl 0x57b1(%rip),%eax        # 14588 <g_1718>
    edd7:	48 0f be c0          	movsbq %al,%rax
    eddb:	8b 55 fc             	mov    -0x4(%rbp),%edx
    edde:	48 8d 35 1d 23 00 00 	lea    0x231d(%rip),%rsi        # 11102 <g_1837+0x106e>
    ede5:	48 89 c7             	mov    %rax,%rdi
    ede8:	e8 06 a9 ff ff       	callq  96f3 <transparent_crc>
    eded:	48 8b 05 9c 57 00 00 	mov    0x579c(%rip),%rax        # 14590 <g_1720>
    edf4:	8b 55 fc             	mov    -0x4(%rbp),%edx
    edf7:	48 8d 35 0b 23 00 00 	lea    0x230b(%rip),%rsi        # 11109 <g_1837+0x1075>
    edfe:	48 89 c7             	mov    %rax,%rdi
    ee01:	e8 ed a8 ff ff       	callq  96f3 <transparent_crc>
    ee06:	0f b6 05 8b 57 00 00 	movzbl 0x578b(%rip),%eax        # 14598 <g_1751>
    ee0d:	0f b6 c0             	movzbl %al,%eax
    ee10:	0f b6 15 82 57 00 00 	movzbl 0x5782(%rip),%edx        # 14599 <g_1751+0x1>
    ee17:	0f b6 d2             	movzbl %dl,%edx
    ee1a:	48 c1 e2 08          	shl    $0x8,%rdx
    ee1e:	48 09 c2             	or     %rax,%rdx
    ee21:	0f b6 05 72 57 00 00 	movzbl 0x5772(%rip),%eax        # 1459a <g_1751+0x2>
    ee28:	0f b6 c0             	movzbl %al,%eax
    ee2b:	48 c1 e0 10          	shl    $0x10,%rax
    ee2f:	48 09 c2             	or     %rax,%rdx
    ee32:	0f b6 05 62 57 00 00 	movzbl 0x5762(%rip),%eax        # 1459b <g_1751+0x3>
    ee39:	0f b6 c0             	movzbl %al,%eax
    ee3c:	83 e0 07             	and    $0x7,%eax
    ee3f:	48 c1 e0 18          	shl    $0x18,%rax
    ee43:	48 09 d0             	or     %rdx,%rax
    ee46:	89 c1                	mov    %eax,%ecx
    ee48:	8b 45 fc             	mov    -0x4(%rbp),%eax
    ee4b:	89 c2                	mov    %eax,%edx
    ee4d:	48 8d 35 bc 22 00 00 	lea    0x22bc(%rip),%rsi        # 11110 <g_1837+0x107c>
    ee54:	48 89 cf             	mov    %rcx,%rdi
    ee57:	e8 97 a8 ff ff       	callq  96f3 <transparent_crc>
    ee5c:	0f b6 05 38 57 00 00 	movzbl 0x5738(%rip),%eax        # 1459b <g_1751+0x3>
    ee63:	c0 e8 03             	shr    $0x3,%al
    ee66:	0f b6 c0             	movzbl %al,%eax
    ee69:	0f b6 15 2c 57 00 00 	movzbl 0x572c(%rip),%edx        # 1459c <g_1751+0x4>
    ee70:	0f b6 d2             	movzbl %dl,%edx
    ee73:	83 e2 01             	and    $0x1,%edx
    ee76:	48 c1 e2 05          	shl    $0x5,%rdx
    ee7a:	48 09 d0             	or     %rdx,%rax
    ee7d:	48 c1 e0 3a          	shl    $0x3a,%rax
    ee81:	48 c1 f8 3a          	sar    $0x3a,%rax
    ee85:	48 0f be c0          	movsbq %al,%rax
    ee89:	8b 55 fc             	mov    -0x4(%rbp),%edx
    ee8c:	48 8d 35 87 22 00 00 	lea    0x2287(%rip),%rsi        # 1111a <g_1837+0x1086>
    ee93:	48 89 c7             	mov    %rax,%rdi
    ee96:	e8 58 a8 ff ff       	callq  96f3 <transparent_crc>
    ee9b:	0f b6 05 fb 56 00 00 	movzbl 0x56fb(%rip),%eax        # 1459d <g_1811>
    eea2:	0f b6 c0             	movzbl %al,%eax
    eea5:	8b 55 fc             	mov    -0x4(%rbp),%edx
    eea8:	48 8d 35 75 22 00 00 	lea    0x2275(%rip),%rsi        # 11124 <g_1837+0x1090>
    eeaf:	48 89 c7             	mov    %rax,%rdi
    eeb2:	e8 3c a8 ff ff       	callq  96f3 <transparent_crc>
    eeb7:	c7 45 f0 00 00 00 00 	movl   $0x0,-0x10(%rbp)
    eebe:	e9 d7 00 00 00       	jmpq   ef9a <main+0x1feb>
    eec3:	8b 45 f0             	mov    -0x10(%rbp),%eax
    eec6:	48 63 d0             	movslq %eax,%rdx
    eec9:	48 89 d0             	mov    %rdx,%rax
    eecc:	48 c1 e0 02          	shl    $0x2,%rax
    eed0:	48 01 c2             	add    %rax,%rdx
    eed3:	48 8d 05 c6 56 00 00 	lea    0x56c6(%rip),%rax        # 145a0 <g_1828>
    eeda:	0f b6 0c 02          	movzbl (%rdx,%rax,1),%ecx
    eede:	0f b6 c9             	movzbl %cl,%ecx
    eee1:	0f b6 74 02 01       	movzbl 0x1(%rdx,%rax,1),%esi
    eee6:	40 0f b6 f6          	movzbl %sil,%esi
    eeea:	48 c1 e6 08          	shl    $0x8,%rsi
    eeee:	48 09 ce             	or     %rcx,%rsi
    eef1:	0f b6 4c 02 02       	movzbl 0x2(%rdx,%rax,1),%ecx
    eef6:	0f b6 c9             	movzbl %cl,%ecx
    eef9:	48 c1 e1 10          	shl    $0x10,%rcx
    eefd:	48 09 f1             	or     %rsi,%rcx
    ef00:	0f b6 44 02 03       	movzbl 0x3(%rdx,%rax,1),%eax
    ef05:	0f b6 c0             	movzbl %al,%eax
    ef08:	83 e0 07             	and    $0x7,%eax
    ef0b:	48 c1 e0 18          	shl    $0x18,%rax
    ef0f:	48 09 c8             	or     %rcx,%rax
    ef12:	89 c1                	mov    %eax,%ecx
    ef14:	8b 45 fc             	mov    -0x4(%rbp),%eax
    ef17:	89 c2                	mov    %eax,%edx
    ef19:	48 8d 35 0b 22 00 00 	lea    0x220b(%rip),%rsi        # 1112b <g_1837+0x1097>
    ef20:	48 89 cf             	mov    %rcx,%rdi
    ef23:	e8 cb a7 ff ff       	callq  96f3 <transparent_crc>
    ef28:	8b 45 f0             	mov    -0x10(%rbp),%eax
    ef2b:	48 63 d0             	movslq %eax,%rdx
    ef2e:	48 89 d0             	mov    %rdx,%rax
    ef31:	48 c1 e0 02          	shl    $0x2,%rax
    ef35:	48 01 c2             	add    %rax,%rdx
    ef38:	48 8d 05 61 56 00 00 	lea    0x5661(%rip),%rax        # 145a0 <g_1828>
    ef3f:	0f b6 4c 02 03       	movzbl 0x3(%rdx,%rax,1),%ecx
    ef44:	c0 e9 03             	shr    $0x3,%cl
    ef47:	0f b6 c9             	movzbl %cl,%ecx
    ef4a:	0f b6 44 02 04       	movzbl 0x4(%rdx,%rax,1),%eax
    ef4f:	0f b6 c0             	movzbl %al,%eax
    ef52:	83 e0 01             	and    $0x1,%eax
    ef55:	48 c1 e0 05          	shl    $0x5,%rax
    ef59:	48 09 c8             	or     %rcx,%rax
    ef5c:	48 c1 e0 3a          	shl    $0x3a,%rax
    ef60:	48 c1 f8 3a          	sar    $0x3a,%rax
    ef64:	48 0f be c0          	movsbq %al,%rax
    ef68:	8b 55 fc             	mov    -0x4(%rbp),%edx
    ef6b:	48 8d 35 c6 21 00 00 	lea    0x21c6(%rip),%rsi        # 11138 <g_1837+0x10a4>
    ef72:	48 89 c7             	mov    %rax,%rdi
    ef75:	e8 79 a7 ff ff       	callq  96f3 <transparent_crc>
    ef7a:	83 7d fc 00          	cmpl   $0x0,-0x4(%rbp)
    ef7e:	74 16                	je     ef96 <main+0x1fe7>
    ef80:	8b 45 f0             	mov    -0x10(%rbp),%eax
    ef83:	89 c6                	mov    %eax,%esi
    ef85:	48 8d 3d 7a 1d 00 00 	lea    0x1d7a(%rip),%rdi        # 10d06 <g_1837+0xc72>
    ef8c:	b8 00 00 00 00       	mov    $0x0,%eax
    ef91:	e8 ea 90 ff ff       	callq  8080 <printf@plt>
    ef96:	83 45 f0 01          	addl   $0x1,-0x10(%rbp)
    ef9a:	83 7d f0 02          	cmpl   $0x2,-0x10(%rbp)
    ef9e:	0f 8e 1f ff ff ff    	jle    eec3 <main+0x1f14>
    efa4:	0f b6 05 e9 10 00 00 	movzbl 0x10e9(%rip),%eax        # 10094 <g_1837>
    efab:	0f b6 c0             	movzbl %al,%eax
    efae:	0f b6 15 e0 10 00 00 	movzbl 0x10e0(%rip),%edx        # 10095 <g_1837+0x1>
    efb5:	0f b6 d2             	movzbl %dl,%edx
    efb8:	48 c1 e2 08          	shl    $0x8,%rdx
    efbc:	48 09 c2             	or     %rax,%rdx
    efbf:	0f b6 05 d0 10 00 00 	movzbl 0x10d0(%rip),%eax        # 10096 <g_1837+0x2>
    efc6:	0f b6 c0             	movzbl %al,%eax
    efc9:	48 c1 e0 10          	shl    $0x10,%rax
    efcd:	48 09 c2             	or     %rax,%rdx
    efd0:	0f b6 05 c0 10 00 00 	movzbl 0x10c0(%rip),%eax        # 10097 <g_1837+0x3>
    efd7:	0f b6 c0             	movzbl %al,%eax
    efda:	83 e0 07             	and    $0x7,%eax
    efdd:	48 c1 e0 18          	shl    $0x18,%rax
    efe1:	48 09 d0             	or     %rdx,%rax
    efe4:	89 c1                	mov    %eax,%ecx
    efe6:	8b 45 fc             	mov    -0x4(%rbp),%eax
    efe9:	89 c2                	mov    %eax,%edx
    efeb:	48 8d 35 53 21 00 00 	lea    0x2153(%rip),%rsi        # 11145 <g_1837+0x10b1>
    eff2:	48 89 cf             	mov    %rcx,%rdi
    eff5:	e8 f9 a6 ff ff       	callq  96f3 <transparent_crc>
    effa:	0f b6 05 96 10 00 00 	movzbl 0x1096(%rip),%eax        # 10097 <g_1837+0x3>
    f001:	c0 e8 03             	shr    $0x3,%al
    f004:	0f b6 c0             	movzbl %al,%eax
    f007:	0f b6 15 8a 10 00 00 	movzbl 0x108a(%rip),%edx        # 10098 <g_1837+0x4>
    f00e:	0f b6 d2             	movzbl %dl,%edx
    f011:	83 e2 01             	and    $0x1,%edx
    f014:	48 c1 e2 05          	shl    $0x5,%rdx
    f018:	48 09 d0             	or     %rdx,%rax
    f01b:	48 c1 e0 3a          	shl    $0x3a,%rax
    f01f:	48 c1 f8 3a          	sar    $0x3a,%rax
    f023:	48 0f be c0          	movsbq %al,%rax
    f027:	8b 55 fc             	mov    -0x4(%rbp),%edx
    f02a:	48 8d 35 1e 21 00 00 	lea    0x211e(%rip),%rsi        # 1114f <g_1837+0x10bb>
    f031:	48 89 c7             	mov    %rax,%rdi
    f034:	e8 ba a6 ff ff       	callq  96f3 <transparent_crc>
    f039:	8b 05 71 55 00 00    	mov    0x5571(%rip),%eax        # 145b0 <g_1852>
    f03f:	48 98                	cltq   
    f041:	8b 55 fc             	mov    -0x4(%rbp),%edx
    f044:	48 8d 35 0e 21 00 00 	lea    0x210e(%rip),%rsi        # 11159 <g_1837+0x10c5>
    f04b:	48 89 c7             	mov    %rax,%rdi
    f04e:	e8 a0 a6 ff ff       	callq  96f3 <transparent_crc>
    f053:	8b 05 57 55 00 00    	mov    0x5557(%rip),%eax        # 145b0 <g_1852>
    f059:	c1 e0 03             	shl    $0x3,%eax
    f05c:	c1 f8 03             	sar    $0x3,%eax
    f05f:	48 98                	cltq   
    f061:	8b 55 fc             	mov    -0x4(%rbp),%edx
    f064:	48 8d 35 f8 20 00 00 	lea    0x20f8(%rip),%rsi        # 11163 <g_1837+0x10cf>
    f06b:	48 89 c7             	mov    %rax,%rdi
    f06e:	e8 80 a6 ff ff       	callq  96f3 <transparent_crc>
    f073:	8b 05 37 55 00 00    	mov    0x5537(%rip),%eax        # 145b0 <g_1852>
    f079:	89 c1                	mov    %eax,%ecx
    f07b:	8b 45 fc             	mov    -0x4(%rbp),%eax
    f07e:	89 c2                	mov    %eax,%edx
    f080:	48 8d 35 e6 20 00 00 	lea    0x20e6(%rip),%rsi        # 1116d <g_1837+0x10d9>
    f087:	48 89 cf             	mov    %rcx,%rdi
    f08a:	e8 64 a6 ff ff       	callq  96f3 <transparent_crc>
    f08f:	0f b7 05 1a 55 00 00 	movzwl 0x551a(%rip),%eax        # 145b0 <g_1852>
    f096:	0f b7 c0             	movzwl %ax,%eax
    f099:	8b 55 fc             	mov    -0x4(%rbp),%edx
    f09c:	48 8d 35 d4 20 00 00 	lea    0x20d4(%rip),%rsi        # 11177 <g_1837+0x10e3>
    f0a3:	48 89 c7             	mov    %rax,%rdi
    f0a6:	e8 48 a6 ff ff       	callq  96f3 <transparent_crc>
    f0ab:	c7 45 f0 00 00 00 00 	movl   $0x0,-0x10(%rbp)
    f0b2:	eb 6c                	jmp    f120 <main+0x2171>
    f0b4:	c7 45 f4 00 00 00 00 	movl   $0x0,-0xc(%rbp)
    f0bb:	eb 59                	jmp    f116 <main+0x2167>
    f0bd:	8b 45 f4             	mov    -0xc(%rbp),%eax
    f0c0:	48 98                	cltq   
    f0c2:	8b 55 f0             	mov    -0x10(%rbp),%edx
    f0c5:	48 63 d2             	movslq %edx,%rdx
    f0c8:	48 c1 e2 03          	shl    $0x3,%rdx
    f0cc:	48 01 d0             	add    %rdx,%rax
    f0cf:	48 8d 14 00          	lea    (%rax,%rax,1),%rdx
    f0d3:	48 8d 05 e6 54 00 00 	lea    0x54e6(%rip),%rax        # 145c0 <g_1900>
    f0da:	0f b7 04 02          	movzwl (%rdx,%rax,1),%eax
    f0de:	0f b7 c0             	movzwl %ax,%eax
    f0e1:	8b 55 fc             	mov    -0x4(%rbp),%edx
    f0e4:	48 8d 35 96 20 00 00 	lea    0x2096(%rip),%rsi        # 11181 <g_1837+0x10ed>
    f0eb:	48 89 c7             	mov    %rax,%rdi
    f0ee:	e8 00 a6 ff ff       	callq  96f3 <transparent_crc>
    f0f3:	83 7d fc 00          	cmpl   $0x0,-0x4(%rbp)
    f0f7:	74 19                	je     f112 <main+0x2163>
    f0f9:	8b 55 f4             	mov    -0xc(%rbp),%edx
    f0fc:	8b 45 f0             	mov    -0x10(%rbp),%eax
    f0ff:	89 c6                	mov    %eax,%esi
    f101:	48 8d 3d 77 1b 00 00 	lea    0x1b77(%rip),%rdi        # 10c7f <g_1837+0xbeb>
    f108:	b8 00 00 00 00       	mov    $0x0,%eax
    f10d:	e8 6e 8f ff ff       	callq  8080 <printf@plt>
    f112:	83 45 f4 01          	addl   $0x1,-0xc(%rbp)
    f116:	83 7d f4 07          	cmpl   $0x7,-0xc(%rbp)
    f11a:	7e a1                	jle    f0bd <main+0x210e>
    f11c:	83 45 f0 01          	addl   $0x1,-0x10(%rbp)
    f120:	83 7d f0 04          	cmpl   $0x4,-0x10(%rbp)
    f124:	7e 8e                	jle    f0b4 <main+0x2105>
    f126:	c7 45 f0 00 00 00 00 	movl   $0x0,-0x10(%rbp)
    f12d:	e9 6a 01 00 00       	jmpq   f29c <main+0x22ed>
    f132:	c7 45 f4 00 00 00 00 	movl   $0x0,-0xc(%rbp)
    f139:	e9 50 01 00 00       	jmpq   f28e <main+0x22df>
    f13e:	c7 45 f8 00 00 00 00 	movl   $0x0,-0x8(%rbp)
    f145:	e9 36 01 00 00       	jmpq   f280 <main+0x22d1>
    f14a:	8b 45 f8             	mov    -0x8(%rbp),%eax
    f14d:	48 98                	cltq   
    f14f:	8b 55 f4             	mov    -0xc(%rbp),%edx
    f152:	48 63 ca             	movslq %edx,%rcx
    f155:	8b 55 f0             	mov    -0x10(%rbp),%edx
    f158:	48 63 f2             	movslq %edx,%rsi
    f15b:	48 89 c2             	mov    %rax,%rdx
    f15e:	48 c1 e2 02          	shl    $0x2,%rdx
    f162:	48 01 c2             	add    %rax,%rdx
    f165:	48 89 c8             	mov    %rcx,%rax
    f168:	48 c1 e0 02          	shl    $0x2,%rax
    f16c:	48 01 c8             	add    %rcx,%rax
    f16f:	48 8d 0c 85 00 00 00 	lea    0x0(,%rax,4),%rcx
    f176:	00 
    f177:	48 01 c8             	add    %rcx,%rax
    f17a:	48 01 c2             	add    %rax,%rdx
    f17d:	48 69 c6 e1 00 00 00 	imul   $0xe1,%rsi,%rax
    f184:	48 01 c2             	add    %rax,%rdx
    f187:	48 8d 05 92 54 00 00 	lea    0x5492(%rip),%rax        # 14620 <g_1906>
    f18e:	48 01 d0             	add    %rdx,%rax
    f191:	0f b6 10             	movzbl (%rax),%edx
    f194:	0f b6 d2             	movzbl %dl,%edx
    f197:	0f b6 48 01          	movzbl 0x1(%rax),%ecx
    f19b:	0f b6 c9             	movzbl %cl,%ecx
    f19e:	48 c1 e1 08          	shl    $0x8,%rcx
    f1a2:	48 09 d1             	or     %rdx,%rcx
    f1a5:	0f b6 50 02          	movzbl 0x2(%rax),%edx
    f1a9:	0f b6 d2             	movzbl %dl,%edx
    f1ac:	48 c1 e2 10          	shl    $0x10,%rdx
    f1b0:	48 09 ca             	or     %rcx,%rdx
    f1b3:	0f b6 40 03          	movzbl 0x3(%rax),%eax
    f1b7:	0f b6 c0             	movzbl %al,%eax
    f1ba:	83 e0 07             	and    $0x7,%eax
    f1bd:	48 c1 e0 18          	shl    $0x18,%rax
    f1c1:	48 09 d0             	or     %rdx,%rax
    f1c4:	89 c1                	mov    %eax,%ecx
    f1c6:	8b 45 fc             	mov    -0x4(%rbp),%eax
    f1c9:	89 c2                	mov    %eax,%edx
    f1cb:	48 8d 35 bc 1f 00 00 	lea    0x1fbc(%rip),%rsi        # 1118e <g_1837+0x10fa>
    f1d2:	48 89 cf             	mov    %rcx,%rdi
    f1d5:	e8 19 a5 ff ff       	callq  96f3 <transparent_crc>
    f1da:	8b 45 f8             	mov    -0x8(%rbp),%eax
    f1dd:	48 98                	cltq   
    f1df:	8b 55 f4             	mov    -0xc(%rbp),%edx
    f1e2:	48 63 ca             	movslq %edx,%rcx
    f1e5:	8b 55 f0             	mov    -0x10(%rbp),%edx
    f1e8:	48 63 f2             	movslq %edx,%rsi
    f1eb:	48 89 c2             	mov    %rax,%rdx
    f1ee:	48 c1 e2 02          	shl    $0x2,%rdx
    f1f2:	48 01 c2             	add    %rax,%rdx
    f1f5:	48 89 c8             	mov    %rcx,%rax
    f1f8:	48 c1 e0 02          	shl    $0x2,%rax
    f1fc:	48 01 c8             	add    %rcx,%rax
    f1ff:	48 8d 0c 85 00 00 00 	lea    0x0(,%rax,4),%rcx
    f206:	00 
    f207:	48 01 c8             	add    %rcx,%rax
    f20a:	48 01 c2             	add    %rax,%rdx
    f20d:	48 69 c6 e1 00 00 00 	imul   $0xe1,%rsi,%rax
    f214:	48 01 c2             	add    %rax,%rdx
    f217:	48 8d 05 02 54 00 00 	lea    0x5402(%rip),%rax        # 14620 <g_1906>
    f21e:	48 01 d0             	add    %rdx,%rax
    f221:	0f b6 50 03          	movzbl 0x3(%rax),%edx
    f225:	c0 ea 03             	shr    $0x3,%dl
    f228:	0f b6 d2             	movzbl %dl,%edx
    f22b:	0f b6 40 04          	movzbl 0x4(%rax),%eax
    f22f:	0f b6 c0             	movzbl %al,%eax
    f232:	83 e0 01             	and    $0x1,%eax
    f235:	48 c1 e0 05          	shl    $0x5,%rax
    f239:	48 09 d0             	or     %rdx,%rax
    f23c:	48 c1 e0 3a          	shl    $0x3a,%rax
    f240:	48 c1 f8 3a          	sar    $0x3a,%rax
    f244:	48 0f be c0          	movsbq %al,%rax
    f248:	8b 55 fc             	mov    -0x4(%rbp),%edx
    f24b:	48 8d 35 4f 1f 00 00 	lea    0x1f4f(%rip),%rsi        # 111a1 <g_1837+0x110d>
    f252:	48 89 c7             	mov    %rax,%rdi
    f255:	e8 99 a4 ff ff       	callq  96f3 <transparent_crc>
    f25a:	83 7d fc 00          	cmpl   $0x0,-0x4(%rbp)
    f25e:	74 1c                	je     f27c <main+0x22cd>
    f260:	8b 4d f8             	mov    -0x8(%rbp),%ecx
    f263:	8b 55 f4             	mov    -0xc(%rbp),%edx
    f266:	8b 45 f0             	mov    -0x10(%rbp),%eax
    f269:	89 c6                	mov    %eax,%esi
    f26b:	48 8d 3d cc 1a 00 00 	lea    0x1acc(%rip),%rdi        # 10d3e <g_1837+0xcaa>
    f272:	b8 00 00 00 00       	mov    $0x0,%eax
    f277:	e8 04 8e ff ff       	callq  8080 <printf@plt>
    f27c:	83 45 f8 01          	addl   $0x1,-0x8(%rbp)
    f280:	83 7d f8 04          	cmpl   $0x4,-0x8(%rbp)
    f284:	0f 8e c0 fe ff ff    	jle    f14a <main+0x219b>
    f28a:	83 45 f4 01          	addl   $0x1,-0xc(%rbp)
    f28e:	83 7d f4 08          	cmpl   $0x8,-0xc(%rbp)
    f292:	0f 8e a6 fe ff ff    	jle    f13e <main+0x218f>
    f298:	83 45 f0 01          	addl   $0x1,-0x10(%rbp)
    f29c:	83 7d f0 01          	cmpl   $0x1,-0x10(%rbp)
    f2a0:	0f 8e 8c fe ff ff    	jle    f132 <main+0x2183>
    f2a6:	8b 05 38 55 00 00    	mov    0x5538(%rip),%eax        # 147e4 <g_1918>
    f2ac:	48 98                	cltq   
    f2ae:	8b 55 fc             	mov    -0x4(%rbp),%edx
    f2b1:	48 8d 35 fc 1e 00 00 	lea    0x1efc(%rip),%rsi        # 111b4 <g_1837+0x1120>
    f2b8:	48 89 c7             	mov    %rax,%rdi
    f2bb:	e8 33 a4 ff ff       	callq  96f3 <transparent_crc>
    f2c0:	8b 05 1e 55 00 00    	mov    0x551e(%rip),%eax        # 147e4 <g_1918>
    f2c6:	c1 e0 03             	shl    $0x3,%eax
    f2c9:	c1 f8 03             	sar    $0x3,%eax
    f2cc:	48 98                	cltq   
    f2ce:	8b 55 fc             	mov    -0x4(%rbp),%edx
    f2d1:	48 8d 35 e6 1e 00 00 	lea    0x1ee6(%rip),%rsi        # 111be <g_1837+0x112a>
    f2d8:	48 89 c7             	mov    %rax,%rdi
    f2db:	e8 13 a4 ff ff       	callq  96f3 <transparent_crc>
    f2e0:	8b 05 fe 54 00 00    	mov    0x54fe(%rip),%eax        # 147e4 <g_1918>
    f2e6:	89 c1                	mov    %eax,%ecx
    f2e8:	8b 45 fc             	mov    -0x4(%rbp),%eax
    f2eb:	89 c2                	mov    %eax,%edx
    f2ed:	48 8d 35 d4 1e 00 00 	lea    0x1ed4(%rip),%rsi        # 111c8 <g_1837+0x1134>
    f2f4:	48 89 cf             	mov    %rcx,%rdi
    f2f7:	e8 f7 a3 ff ff       	callq  96f3 <transparent_crc>
    f2fc:	0f b7 05 e1 54 00 00 	movzwl 0x54e1(%rip),%eax        # 147e4 <g_1918>
    f303:	0f b7 c0             	movzwl %ax,%eax
    f306:	8b 55 fc             	mov    -0x4(%rbp),%edx
    f309:	48 8d 35 c2 1e 00 00 	lea    0x1ec2(%rip),%rsi        # 111d2 <g_1837+0x113e>
    f310:	48 89 c7             	mov    %rax,%rdi
    f313:	e8 db a3 ff ff       	callq  96f3 <transparent_crc>
    f318:	0f b6 05 c9 54 00 00 	movzbl 0x54c9(%rip),%eax        # 147e8 <g_1920>
    f31f:	0f b6 c0             	movzbl %al,%eax
    f322:	0f b6 15 c0 54 00 00 	movzbl 0x54c0(%rip),%edx        # 147e9 <g_1920+0x1>
    f329:	0f b6 d2             	movzbl %dl,%edx
    f32c:	48 c1 e2 08          	shl    $0x8,%rdx
    f330:	48 09 c2             	or     %rax,%rdx
    f333:	0f b6 05 b0 54 00 00 	movzbl 0x54b0(%rip),%eax        # 147ea <g_1920+0x2>
    f33a:	0f b6 c0             	movzbl %al,%eax
    f33d:	48 c1 e0 10          	shl    $0x10,%rax
    f341:	48 09 c2             	or     %rax,%rdx
    f344:	0f b6 05 a0 54 00 00 	movzbl 0x54a0(%rip),%eax        # 147eb <g_1920+0x3>
    f34b:	0f b6 c0             	movzbl %al,%eax
    f34e:	83 e0 07             	and    $0x7,%eax
    f351:	48 c1 e0 18          	shl    $0x18,%rax
    f355:	48 09 d0             	or     %rdx,%rax
    f358:	89 c1                	mov    %eax,%ecx
    f35a:	8b 45 fc             	mov    -0x4(%rbp),%eax
    f35d:	89 c2                	mov    %eax,%edx
    f35f:	48 8d 35 76 1e 00 00 	lea    0x1e76(%rip),%rsi        # 111dc <g_1837+0x1148>
    f366:	48 89 cf             	mov    %rcx,%rdi
    f369:	e8 85 a3 ff ff       	callq  96f3 <transparent_crc>
    f36e:	0f b6 05 76 54 00 00 	movzbl 0x5476(%rip),%eax        # 147eb <g_1920+0x3>
    f375:	c0 e8 03             	shr    $0x3,%al
    f378:	0f b6 c0             	movzbl %al,%eax
    f37b:	0f b6 15 6a 54 00 00 	movzbl 0x546a(%rip),%edx        # 147ec <g_1920+0x4>
    f382:	0f b6 d2             	movzbl %dl,%edx
    f385:	83 e2 01             	and    $0x1,%edx
    f388:	48 c1 e2 05          	shl    $0x5,%rdx
    f38c:	48 09 d0             	or     %rdx,%rax
    f38f:	48 c1 e0 3a          	shl    $0x3a,%rax
    f393:	48 c1 f8 3a          	sar    $0x3a,%rax
    f397:	48 0f be c0          	movsbq %al,%rax
    f39b:	8b 55 fc             	mov    -0x4(%rbp),%edx
    f39e:	48 8d 35 41 1e 00 00 	lea    0x1e41(%rip),%rsi        # 111e6 <g_1837+0x1152>
    f3a5:	48 89 c7             	mov    %rax,%rdi
    f3a8:	e8 46 a3 ff ff       	callq  96f3 <transparent_crc>
    f3ad:	0f b6 05 39 54 00 00 	movzbl 0x5439(%rip),%eax        # 147ed <g_1961>
    f3b4:	0f b6 c0             	movzbl %al,%eax
    f3b7:	0f b6 15 30 54 00 00 	movzbl 0x5430(%rip),%edx        # 147ee <g_1961+0x1>
    f3be:	0f b6 d2             	movzbl %dl,%edx
    f3c1:	48 c1 e2 08          	shl    $0x8,%rdx
    f3c5:	48 09 c2             	or     %rax,%rdx
    f3c8:	0f b6 05 20 54 00 00 	movzbl 0x5420(%rip),%eax        # 147ef <g_1961+0x2>
    f3cf:	0f b6 c0             	movzbl %al,%eax
    f3d2:	48 c1 e0 10          	shl    $0x10,%rax
    f3d6:	48 09 c2             	or     %rax,%rdx
    f3d9:	0f b6 05 10 54 00 00 	movzbl 0x5410(%rip),%eax        # 147f0 <g_1961+0x3>
    f3e0:	0f b6 c0             	movzbl %al,%eax
    f3e3:	83 e0 07             	and    $0x7,%eax
    f3e6:	48 c1 e0 18          	shl    $0x18,%rax
    f3ea:	48 09 d0             	or     %rdx,%rax
    f3ed:	89 c1                	mov    %eax,%ecx
    f3ef:	8b 45 fc             	mov    -0x4(%rbp),%eax
    f3f2:	89 c2                	mov    %eax,%edx
    f3f4:	48 8d 35 f5 1d 00 00 	lea    0x1df5(%rip),%rsi        # 111f0 <g_1837+0x115c>
    f3fb:	48 89 cf             	mov    %rcx,%rdi
    f3fe:	e8 f0 a2 ff ff       	callq  96f3 <transparent_crc>
    f403:	0f b6 05 e6 53 00 00 	movzbl 0x53e6(%rip),%eax        # 147f0 <g_1961+0x3>
    f40a:	c0 e8 03             	shr    $0x3,%al
    f40d:	0f b6 c0             	movzbl %al,%eax
    f410:	0f b6 15 da 53 00 00 	movzbl 0x53da(%rip),%edx        # 147f1 <g_1961+0x4>
    f417:	0f b6 d2             	movzbl %dl,%edx
    f41a:	83 e2 01             	and    $0x1,%edx
    f41d:	48 c1 e2 05          	shl    $0x5,%rdx
    f421:	48 09 d0             	or     %rdx,%rax
    f424:	48 c1 e0 3a          	shl    $0x3a,%rax
    f428:	48 c1 f8 3a          	sar    $0x3a,%rax
    f42c:	48 0f be c0          	movsbq %al,%rax
    f430:	8b 55 fc             	mov    -0x4(%rbp),%edx
    f433:	48 8d 35 c0 1d 00 00 	lea    0x1dc0(%rip),%rsi        # 111fa <g_1837+0x1166>
    f43a:	48 89 c7             	mov    %rax,%rdi
    f43d:	e8 b1 a2 ff ff       	callq  96f3 <transparent_crc>
    f442:	8b 05 ac 53 00 00    	mov    0x53ac(%rip),%eax        # 147f4 <g_1979>
    f448:	48 98                	cltq   
    f44a:	8b 55 fc             	mov    -0x4(%rbp),%edx
    f44d:	48 8d 35 b0 1d 00 00 	lea    0x1db0(%rip),%rsi        # 11204 <g_1837+0x1170>
    f454:	48 89 c7             	mov    %rax,%rdi
    f457:	e8 97 a2 ff ff       	callq  96f3 <transparent_crc>
    f45c:	8b 05 92 53 00 00    	mov    0x5392(%rip),%eax        # 147f4 <g_1979>
    f462:	c1 e0 03             	shl    $0x3,%eax
    f465:	c1 f8 03             	sar    $0x3,%eax
    f468:	48 98                	cltq   
    f46a:	8b 55 fc             	mov    -0x4(%rbp),%edx
    f46d:	48 8d 35 9a 1d 00 00 	lea    0x1d9a(%rip),%rsi        # 1120e <g_1837+0x117a>
    f474:	48 89 c7             	mov    %rax,%rdi
    f477:	e8 77 a2 ff ff       	callq  96f3 <transparent_crc>
    f47c:	8b 05 72 53 00 00    	mov    0x5372(%rip),%eax        # 147f4 <g_1979>
    f482:	89 c1                	mov    %eax,%ecx
    f484:	8b 45 fc             	mov    -0x4(%rbp),%eax
    f487:	89 c2                	mov    %eax,%edx
    f489:	48 8d 35 88 1d 00 00 	lea    0x1d88(%rip),%rsi        # 11218 <g_1837+0x1184>
    f490:	48 89 cf             	mov    %rcx,%rdi
    f493:	e8 5b a2 ff ff       	callq  96f3 <transparent_crc>
    f498:	0f b7 05 55 53 00 00 	movzwl 0x5355(%rip),%eax        # 147f4 <g_1979>
    f49f:	0f b7 c0             	movzwl %ax,%eax
    f4a2:	8b 55 fc             	mov    -0x4(%rbp),%edx
    f4a5:	48 8d 35 76 1d 00 00 	lea    0x1d76(%rip),%rsi        # 11222 <g_1837+0x118e>
    f4ac:	48 89 c7             	mov    %rax,%rdi
    f4af:	e8 3f a2 ff ff       	callq  96f3 <transparent_crc>
    f4b4:	8b 05 3e 53 00 00    	mov    0x533e(%rip),%eax        # 147f8 <g_2049>
    f4ba:	48 98                	cltq   
    f4bc:	8b 55 fc             	mov    -0x4(%rbp),%edx
    f4bf:	48 8d 35 66 1d 00 00 	lea    0x1d66(%rip),%rsi        # 1122c <g_1837+0x1198>
    f4c6:	48 89 c7             	mov    %rax,%rdi
    f4c9:	e8 25 a2 ff ff       	callq  96f3 <transparent_crc>
    f4ce:	8b 05 24 53 00 00    	mov    0x5324(%rip),%eax        # 147f8 <g_2049>
    f4d4:	c1 e0 03             	shl    $0x3,%eax
    f4d7:	c1 f8 03             	sar    $0x3,%eax
    f4da:	48 98                	cltq   
    f4dc:	8b 55 fc             	mov    -0x4(%rbp),%edx
    f4df:	48 8d 35 50 1d 00 00 	lea    0x1d50(%rip),%rsi        # 11236 <g_1837+0x11a2>
    f4e6:	48 89 c7             	mov    %rax,%rdi
    f4e9:	e8 05 a2 ff ff       	callq  96f3 <transparent_crc>
    f4ee:	8b 05 04 53 00 00    	mov    0x5304(%rip),%eax        # 147f8 <g_2049>
    f4f4:	89 c1                	mov    %eax,%ecx
    f4f6:	8b 45 fc             	mov    -0x4(%rbp),%eax
    f4f9:	89 c2                	mov    %eax,%edx
    f4fb:	48 8d 35 3e 1d 00 00 	lea    0x1d3e(%rip),%rsi        # 11240 <g_1837+0x11ac>
    f502:	48 89 cf             	mov    %rcx,%rdi
    f505:	e8 e9 a1 ff ff       	callq  96f3 <transparent_crc>
    f50a:	0f b7 05 e7 52 00 00 	movzwl 0x52e7(%rip),%eax        # 147f8 <g_2049>
    f511:	0f b7 c0             	movzwl %ax,%eax
    f514:	8b 55 fc             	mov    -0x4(%rbp),%edx
    f517:	48 8d 35 2c 1d 00 00 	lea    0x1d2c(%rip),%rsi        # 1124a <g_1837+0x11b6>
    f51e:	48 89 c7             	mov    %rax,%rdi
    f521:	e8 cd a1 ff ff       	callq  96f3 <transparent_crc>
    f526:	8b 05 d0 52 00 00    	mov    0x52d0(%rip),%eax        # 147fc <g_2050>
    f52c:	89 c1                	mov    %eax,%ecx
    f52e:	8b 45 fc             	mov    -0x4(%rbp),%eax
    f531:	89 c2                	mov    %eax,%edx
    f533:	48 8d 35 1a 1d 00 00 	lea    0x1d1a(%rip),%rsi        # 11254 <g_1837+0x11c0>
    f53a:	48 89 cf             	mov    %rcx,%rdi
    f53d:	e8 b1 a1 ff ff       	callq  96f3 <transparent_crc>
    f542:	8b 05 b8 52 00 00    	mov    0x52b8(%rip),%eax        # 14800 <g_2051>
    f548:	89 c1                	mov    %eax,%ecx
    f54a:	8b 45 fc             	mov    -0x4(%rbp),%eax
    f54d:	89 c2                	mov    %eax,%edx
    f54f:	48 8d 35 05 1d 00 00 	lea    0x1d05(%rip),%rsi        # 1125b <g_1837+0x11c7>
    f556:	48 89 cf             	mov    %rcx,%rdi
    f559:	e8 95 a1 ff ff       	callq  96f3 <transparent_crc>
    f55e:	0f b6 05 9f 52 00 00 	movzbl 0x529f(%rip),%eax        # 14804 <g_2052>
    f565:	0f b6 c0             	movzbl %al,%eax
    f568:	0f b6 15 96 52 00 00 	movzbl 0x5296(%rip),%edx        # 14805 <g_2052+0x1>
    f56f:	0f b6 d2             	movzbl %dl,%edx
    f572:	48 c1 e2 08          	shl    $0x8,%rdx
    f576:	48 09 c2             	or     %rax,%rdx
    f579:	0f b6 05 86 52 00 00 	movzbl 0x5286(%rip),%eax        # 14806 <g_2052+0x2>
    f580:	0f b6 c0             	movzbl %al,%eax
    f583:	48 c1 e0 10          	shl    $0x10,%rax
    f587:	48 09 c2             	or     %rax,%rdx
    f58a:	0f b6 05 76 52 00 00 	movzbl 0x5276(%rip),%eax        # 14807 <g_2052+0x3>
    f591:	0f b6 c0             	movzbl %al,%eax
    f594:	83 e0 07             	and    $0x7,%eax
    f597:	48 c1 e0 18          	shl    $0x18,%rax
    f59b:	48 09 d0             	or     %rdx,%rax
    f59e:	89 c1                	mov    %eax,%ecx
    f5a0:	8b 45 fc             	mov    -0x4(%rbp),%eax
    f5a3:	89 c2                	mov    %eax,%edx
    f5a5:	48 8d 35 b6 1c 00 00 	lea    0x1cb6(%rip),%rsi        # 11262 <g_1837+0x11ce>
    f5ac:	48 89 cf             	mov    %rcx,%rdi
    f5af:	e8 3f a1 ff ff       	callq  96f3 <transparent_crc>
    f5b4:	0f b6 05 4c 52 00 00 	movzbl 0x524c(%rip),%eax        # 14807 <g_2052+0x3>
    f5bb:	c0 e8 03             	shr    $0x3,%al
    f5be:	0f b6 c0             	movzbl %al,%eax
    f5c1:	0f b6 15 40 52 00 00 	movzbl 0x5240(%rip),%edx        # 14808 <g_2052+0x4>
    f5c8:	0f b6 d2             	movzbl %dl,%edx
    f5cb:	83 e2 01             	and    $0x1,%edx
    f5ce:	48 c1 e2 05          	shl    $0x5,%rdx
    f5d2:	48 09 d0             	or     %rdx,%rax
    f5d5:	48 c1 e0 3a          	shl    $0x3a,%rax
    f5d9:	48 c1 f8 3a          	sar    $0x3a,%rax
    f5dd:	48 0f be c0          	movsbq %al,%rax
    f5e1:	8b 55 fc             	mov    -0x4(%rbp),%edx
    f5e4:	48 8d 35 81 1c 00 00 	lea    0x1c81(%rip),%rsi        # 1126c <g_1837+0x11d8>
    f5eb:	48 89 c7             	mov    %rax,%rdi
    f5ee:	e8 00 a1 ff ff       	callq  96f3 <transparent_crc>
    f5f3:	c7 45 f0 00 00 00 00 	movl   $0x0,-0x10(%rbp)
    f5fa:	e9 66 01 00 00       	jmpq   f765 <main+0x27b6>
    f5ff:	c7 45 f4 00 00 00 00 	movl   $0x0,-0xc(%rbp)
    f606:	e9 4c 01 00 00       	jmpq   f757 <main+0x27a8>
    f60b:	c7 45 f8 00 00 00 00 	movl   $0x0,-0x8(%rbp)
    f612:	e9 32 01 00 00       	jmpq   f749 <main+0x279a>
    f617:	8b 45 f8             	mov    -0x8(%rbp),%eax
    f61a:	48 98                	cltq   
    f61c:	8b 55 f4             	mov    -0xc(%rbp),%edx
    f61f:	48 63 f2             	movslq %edx,%rsi
    f622:	8b 55 f0             	mov    -0x10(%rbp),%edx
    f625:	48 63 ca             	movslq %edx,%rcx
    f628:	48 89 c2             	mov    %rax,%rdx
    f62b:	48 c1 e2 02          	shl    $0x2,%rdx
    f62f:	48 01 c2             	add    %rax,%rdx
    f632:	48 89 f0             	mov    %rsi,%rax
    f635:	48 c1 e0 02          	shl    $0x2,%rax
    f639:	48 01 f0             	add    %rsi,%rax
    f63c:	48 01 c0             	add    %rax,%rax
    f63f:	48 01 c2             	add    %rax,%rdx
    f642:	48 89 c8             	mov    %rcx,%rax
    f645:	48 c1 e0 02          	shl    $0x2,%rax
    f649:	48 01 c8             	add    %rcx,%rax
    f64c:	48 01 c0             	add    %rax,%rax
    f64f:	48 01 c2             	add    %rax,%rdx
    f652:	48 8d 05 c7 51 00 00 	lea    0x51c7(%rip),%rax        # 14820 <g_2053>
    f659:	48 01 d0             	add    %rdx,%rax
    f65c:	0f b6 10             	movzbl (%rax),%edx
    f65f:	0f b6 d2             	movzbl %dl,%edx
    f662:	0f b6 48 01          	movzbl 0x1(%rax),%ecx
    f666:	0f b6 c9             	movzbl %cl,%ecx
    f669:	48 c1 e1 08          	shl    $0x8,%rcx
    f66d:	48 09 d1             	or     %rdx,%rcx
    f670:	0f b6 50 02          	movzbl 0x2(%rax),%edx
    f674:	0f b6 d2             	movzbl %dl,%edx
    f677:	48 c1 e2 10          	shl    $0x10,%rdx
    f67b:	48 09 ca             	or     %rcx,%rdx
    f67e:	0f b6 40 03          	movzbl 0x3(%rax),%eax
    f682:	0f b6 c0             	movzbl %al,%eax
    f685:	83 e0 07             	and    $0x7,%eax
    f688:	48 c1 e0 18          	shl    $0x18,%rax
    f68c:	48 09 d0             	or     %rdx,%rax
    f68f:	89 c1                	mov    %eax,%ecx
    f691:	8b 45 fc             	mov    -0x4(%rbp),%eax
    f694:	89 c2                	mov    %eax,%edx
    f696:	48 8d 35 d9 1b 00 00 	lea    0x1bd9(%rip),%rsi        # 11276 <g_1837+0x11e2>
    f69d:	48 89 cf             	mov    %rcx,%rdi
    f6a0:	e8 4e a0 ff ff       	callq  96f3 <transparent_crc>
    f6a5:	8b 45 f8             	mov    -0x8(%rbp),%eax
    f6a8:	48 98                	cltq   
    f6aa:	8b 55 f4             	mov    -0xc(%rbp),%edx
    f6ad:	48 63 f2             	movslq %edx,%rsi
    f6b0:	8b 55 f0             	mov    -0x10(%rbp),%edx
    f6b3:	48 63 ca             	movslq %edx,%rcx
    f6b6:	48 89 c2             	mov    %rax,%rdx
    f6b9:	48 c1 e2 02          	shl    $0x2,%rdx
    f6bd:	48 01 c2             	add    %rax,%rdx
    f6c0:	48 89 f0             	mov    %rsi,%rax
    f6c3:	48 c1 e0 02          	shl    $0x2,%rax
    f6c7:	48 01 f0             	add    %rsi,%rax
    f6ca:	48 01 c0             	add    %rax,%rax
    f6cd:	48 01 c2             	add    %rax,%rdx
    f6d0:	48 89 c8             	mov    %rcx,%rax
    f6d3:	48 c1 e0 02          	shl    $0x2,%rax
    f6d7:	48 01 c8             	add    %rcx,%rax
    f6da:	48 01 c0             	add    %rax,%rax
    f6dd:	48 01 c2             	add    %rax,%rdx
    f6e0:	48 8d 05 39 51 00 00 	lea    0x5139(%rip),%rax        # 14820 <g_2053>
    f6e7:	48 01 d0             	add    %rdx,%rax
    f6ea:	0f b6 50 03          	movzbl 0x3(%rax),%edx
    f6ee:	c0 ea 03             	shr    $0x3,%dl
    f6f1:	0f b6 d2             	movzbl %dl,%edx
    f6f4:	0f b6 40 04          	movzbl 0x4(%rax),%eax
    f6f8:	0f b6 c0             	movzbl %al,%eax
    f6fb:	83 e0 01             	and    $0x1,%eax
    f6fe:	48 c1 e0 05          	shl    $0x5,%rax
    f702:	48 09 d0             	or     %rdx,%rax
    f705:	48 c1 e0 3a          	shl    $0x3a,%rax
    f709:	48 c1 f8 3a          	sar    $0x3a,%rax
    f70d:	48 0f be c0          	movsbq %al,%rax
    f711:	8b 55 fc             	mov    -0x4(%rbp),%edx
    f714:	48 8d 35 6e 1b 00 00 	lea    0x1b6e(%rip),%rsi        # 11289 <g_1837+0x11f5>
    f71b:	48 89 c7             	mov    %rax,%rdi
    f71e:	e8 d0 9f ff ff       	callq  96f3 <transparent_crc>
    f723:	83 7d fc 00          	cmpl   $0x0,-0x4(%rbp)
    f727:	74 1c                	je     f745 <main+0x2796>
    f729:	8b 4d f8             	mov    -0x8(%rbp),%ecx
    f72c:	8b 55 f4             	mov    -0xc(%rbp),%edx
    f72f:	8b 45 f0             	mov    -0x10(%rbp),%eax
    f732:	89 c6                	mov    %eax,%esi
    f734:	48 8d 3d 03 16 00 00 	lea    0x1603(%rip),%rdi        # 10d3e <g_1837+0xcaa>
    f73b:	b8 00 00 00 00       	mov    $0x0,%eax
    f740:	e8 3b 89 ff ff       	callq  8080 <printf@plt>
    f745:	83 45 f8 01          	addl   $0x1,-0x8(%rbp)
    f749:	83 7d f8 01          	cmpl   $0x1,-0x8(%rbp)
    f74d:	0f 8e c4 fe ff ff    	jle    f617 <main+0x2668>
    f753:	83 45 f4 01          	addl   $0x1,-0xc(%rbp)
    f757:	83 7d f4 00          	cmpl   $0x0,-0xc(%rbp)
    f75b:	0f 8e aa fe ff ff    	jle    f60b <main+0x265c>
    f761:	83 45 f0 01          	addl   $0x1,-0x10(%rbp)
    f765:	83 7d f0 04          	cmpl   $0x4,-0x10(%rbp)
    f769:	0f 8e 90 fe ff ff    	jle    f5ff <main+0x2650>
    f76f:	c7 45 f0 00 00 00 00 	movl   $0x0,-0x10(%rbp)
    f776:	e9 5a 01 00 00       	jmpq   f8d5 <main+0x2926>
    f77b:	c7 45 f4 00 00 00 00 	movl   $0x0,-0xc(%rbp)
    f782:	e9 40 01 00 00       	jmpq   f8c7 <main+0x2918>
    f787:	c7 45 f8 00 00 00 00 	movl   $0x0,-0x8(%rbp)
    f78e:	e9 26 01 00 00       	jmpq   f8b9 <main+0x290a>
    f793:	8b 45 f8             	mov    -0x8(%rbp),%eax
    f796:	48 98                	cltq   
    f798:	8b 55 f4             	mov    -0xc(%rbp),%edx
    f79b:	48 63 ca             	movslq %edx,%rcx
    f79e:	8b 55 f0             	mov    -0x10(%rbp),%edx
    f7a1:	48 63 f2             	movslq %edx,%rsi
    f7a4:	48 89 c2             	mov    %rax,%rdx
    f7a7:	48 c1 e2 02          	shl    $0x2,%rdx
    f7ab:	48 01 c2             	add    %rax,%rdx
    f7ae:	48 89 c8             	mov    %rcx,%rax
    f7b1:	48 c1 e0 04          	shl    $0x4,%rax
    f7b5:	48 29 c8             	sub    %rcx,%rax
    f7b8:	48 01 c0             	add    %rax,%rax
    f7bb:	48 01 c2             	add    %rax,%rdx
    f7be:	48 69 c6 0e 01 00 00 	imul   $0x10e,%rsi,%rax
    f7c5:	48 01 c2             	add    %rax,%rdx
    f7c8:	48 8d 05 91 50 00 00 	lea    0x5091(%rip),%rax        # 14860 <g_2062>
    f7cf:	48 01 d0             	add    %rdx,%rax
    f7d2:	0f b6 10             	movzbl (%rax),%edx
    f7d5:	0f b6 d2             	movzbl %dl,%edx
    f7d8:	0f b6 48 01          	movzbl 0x1(%rax),%ecx
    f7dc:	0f b6 c9             	movzbl %cl,%ecx
    f7df:	48 c1 e1 08          	shl    $0x8,%rcx
    f7e3:	48 09 d1             	or     %rdx,%rcx
    f7e6:	0f b6 50 02          	movzbl 0x2(%rax),%edx
    f7ea:	0f b6 d2             	movzbl %dl,%edx
    f7ed:	48 c1 e2 10          	shl    $0x10,%rdx
    f7f1:	48 09 ca             	or     %rcx,%rdx
    f7f4:	0f b6 40 03          	movzbl 0x3(%rax),%eax
    f7f8:	0f b6 c0             	movzbl %al,%eax
    f7fb:	83 e0 07             	and    $0x7,%eax
    f7fe:	48 c1 e0 18          	shl    $0x18,%rax
    f802:	48 09 d0             	or     %rdx,%rax
    f805:	89 c1                	mov    %eax,%ecx
    f807:	8b 45 fc             	mov    -0x4(%rbp),%eax
    f80a:	89 c2                	mov    %eax,%edx
    f80c:	48 8d 35 89 1a 00 00 	lea    0x1a89(%rip),%rsi        # 1129c <g_1837+0x1208>
    f813:	48 89 cf             	mov    %rcx,%rdi
    f816:	e8 d8 9e ff ff       	callq  96f3 <transparent_crc>
    f81b:	8b 45 f8             	mov    -0x8(%rbp),%eax
    f81e:	48 98                	cltq   
    f820:	8b 55 f4             	mov    -0xc(%rbp),%edx
    f823:	48 63 ca             	movslq %edx,%rcx
    f826:	8b 55 f0             	mov    -0x10(%rbp),%edx
    f829:	48 63 f2             	movslq %edx,%rsi
    f82c:	48 89 c2             	mov    %rax,%rdx
    f82f:	48 c1 e2 02          	shl    $0x2,%rdx
    f833:	48 01 c2             	add    %rax,%rdx
    f836:	48 89 c8             	mov    %rcx,%rax
    f839:	48 c1 e0 04          	shl    $0x4,%rax
    f83d:	48 29 c8             	sub    %rcx,%rax
    f840:	48 01 c0             	add    %rax,%rax
    f843:	48 01 c2             	add    %rax,%rdx
    f846:	48 69 c6 0e 01 00 00 	imul   $0x10e,%rsi,%rax
    f84d:	48 01 c2             	add    %rax,%rdx
    f850:	48 8d 05 09 50 00 00 	lea    0x5009(%rip),%rax        # 14860 <g_2062>
    f857:	48 01 d0             	add    %rdx,%rax
    f85a:	0f b6 50 03          	movzbl 0x3(%rax),%edx
    f85e:	c0 ea 03             	shr    $0x3,%dl
    f861:	0f b6 d2             	movzbl %dl,%edx
    f864:	0f b6 40 04          	movzbl 0x4(%rax),%eax
    f868:	0f b6 c0             	movzbl %al,%eax
    f86b:	83 e0 01             	and    $0x1,%eax
    f86e:	48 c1 e0 05          	shl    $0x5,%rax
    f872:	48 09 d0             	or     %rdx,%rax
    f875:	48 c1 e0 3a          	shl    $0x3a,%rax
    f879:	48 c1 f8 3a          	sar    $0x3a,%rax
    f87d:	48 0f be c0          	movsbq %al,%rax
    f881:	8b 55 fc             	mov    -0x4(%rbp),%edx
    f884:	48 8d 35 24 1a 00 00 	lea    0x1a24(%rip),%rsi        # 112af <g_1837+0x121b>
    f88b:	48 89 c7             	mov    %rax,%rdi
    f88e:	e8 60 9e ff ff       	callq  96f3 <transparent_crc>
    f893:	83 7d fc 00          	cmpl   $0x0,-0x4(%rbp)
    f897:	74 1c                	je     f8b5 <main+0x2906>
    f899:	8b 4d f8             	mov    -0x8(%rbp),%ecx
    f89c:	8b 55 f4             	mov    -0xc(%rbp),%edx
    f89f:	8b 45 f0             	mov    -0x10(%rbp),%eax
    f8a2:	89 c6                	mov    %eax,%esi
    f8a4:	48 8d 3d 93 14 00 00 	lea    0x1493(%rip),%rdi        # 10d3e <g_1837+0xcaa>
    f8ab:	b8 00 00 00 00       	mov    $0x0,%eax
    f8b0:	e8 cb 87 ff ff       	callq  8080 <printf@plt>
    f8b5:	83 45 f8 01          	addl   $0x1,-0x8(%rbp)
    f8b9:	83 7d f8 05          	cmpl   $0x5,-0x8(%rbp)
    f8bd:	0f 8e d0 fe ff ff    	jle    f793 <main+0x27e4>
    f8c3:	83 45 f4 01          	addl   $0x1,-0xc(%rbp)
    f8c7:	83 7d f4 08          	cmpl   $0x8,-0xc(%rbp)
    f8cb:	0f 8e b6 fe ff ff    	jle    f787 <main+0x27d8>
    f8d1:	83 45 f0 01          	addl   $0x1,-0x10(%rbp)
    f8d5:	83 7d f0 03          	cmpl   $0x3,-0x10(%rbp)
    f8d9:	0f 8e 9c fe ff ff    	jle    f77b <main+0x27cc>
    f8df:	8b 05 b3 53 00 00    	mov    0x53b3(%rip),%eax        # 14c98 <g_2100>
    f8e5:	48 98                	cltq   
    f8e7:	8b 55 fc             	mov    -0x4(%rbp),%edx
    f8ea:	48 8d 35 d1 19 00 00 	lea    0x19d1(%rip),%rsi        # 112c2 <g_1837+0x122e>
    f8f1:	48 89 c7             	mov    %rax,%rdi
    f8f4:	e8 fa 9d ff ff       	callq  96f3 <transparent_crc>
    f8f9:	8b 05 99 53 00 00    	mov    0x5399(%rip),%eax        # 14c98 <g_2100>
    f8ff:	c1 e0 03             	shl    $0x3,%eax
    f902:	c1 f8 03             	sar    $0x3,%eax
    f905:	48 98                	cltq   
    f907:	8b 55 fc             	mov    -0x4(%rbp),%edx
    f90a:	48 8d 35 bb 19 00 00 	lea    0x19bb(%rip),%rsi        # 112cc <g_1837+0x1238>
    f911:	48 89 c7             	mov    %rax,%rdi
    f914:	e8 da 9d ff ff       	callq  96f3 <transparent_crc>
    f919:	8b 05 79 53 00 00    	mov    0x5379(%rip),%eax        # 14c98 <g_2100>
    f91f:	89 c1                	mov    %eax,%ecx
    f921:	8b 45 fc             	mov    -0x4(%rbp),%eax
    f924:	89 c2                	mov    %eax,%edx
    f926:	48 8d 35 a9 19 00 00 	lea    0x19a9(%rip),%rsi        # 112d6 <g_1837+0x1242>
    f92d:	48 89 cf             	mov    %rcx,%rdi
    f930:	e8 be 9d ff ff       	callq  96f3 <transparent_crc>
    f935:	0f b7 05 5c 53 00 00 	movzwl 0x535c(%rip),%eax        # 14c98 <g_2100>
    f93c:	0f b7 c0             	movzwl %ax,%eax
    f93f:	8b 55 fc             	mov    -0x4(%rbp),%edx
    f942:	48 8d 35 97 19 00 00 	lea    0x1997(%rip),%rsi        # 112e0 <g_1837+0x124c>
    f949:	48 89 c7             	mov    %rax,%rdi
    f94c:	e8 a2 9d ff ff       	callq  96f3 <transparent_crc>
    f951:	0f b6 05 44 53 00 00 	movzbl 0x5344(%rip),%eax        # 14c9c <g_2114>
    f958:	0f b6 c0             	movzbl %al,%eax
    f95b:	0f b6 15 3b 53 00 00 	movzbl 0x533b(%rip),%edx        # 14c9d <g_2114+0x1>
    f962:	0f b6 d2             	movzbl %dl,%edx
    f965:	48 c1 e2 08          	shl    $0x8,%rdx
    f969:	48 09 c2             	or     %rax,%rdx
    f96c:	0f b6 05 2b 53 00 00 	movzbl 0x532b(%rip),%eax        # 14c9e <g_2114+0x2>
    f973:	0f b6 c0             	movzbl %al,%eax
    f976:	48 c1 e0 10          	shl    $0x10,%rax
    f97a:	48 09 c2             	or     %rax,%rdx
    f97d:	0f b6 05 1b 53 00 00 	movzbl 0x531b(%rip),%eax        # 14c9f <g_2114+0x3>
    f984:	0f b6 c0             	movzbl %al,%eax
    f987:	83 e0 07             	and    $0x7,%eax
    f98a:	48 c1 e0 18          	shl    $0x18,%rax
    f98e:	48 09 d0             	or     %rdx,%rax
    f991:	89 c1                	mov    %eax,%ecx
    f993:	8b 45 fc             	mov    -0x4(%rbp),%eax
    f996:	89 c2                	mov    %eax,%edx
    f998:	48 8d 35 4b 19 00 00 	lea    0x194b(%rip),%rsi        # 112ea <g_1837+0x1256>
    f99f:	48 89 cf             	mov    %rcx,%rdi
    f9a2:	e8 4c 9d ff ff       	callq  96f3 <transparent_crc>
    f9a7:	0f b6 05 f1 52 00 00 	movzbl 0x52f1(%rip),%eax        # 14c9f <g_2114+0x3>
    f9ae:	c0 e8 03             	shr    $0x3,%al
    f9b1:	0f b6 c0             	movzbl %al,%eax
    f9b4:	0f b6 15 e5 52 00 00 	movzbl 0x52e5(%rip),%edx        # 14ca0 <g_2114+0x4>
    f9bb:	0f b6 d2             	movzbl %dl,%edx
    f9be:	83 e2 01             	and    $0x1,%edx
    f9c1:	48 c1 e2 05          	shl    $0x5,%rdx
    f9c5:	48 09 d0             	or     %rdx,%rax
    f9c8:	48 c1 e0 3a          	shl    $0x3a,%rax
    f9cc:	48 c1 f8 3a          	sar    $0x3a,%rax
    f9d0:	48 0f be c0          	movsbq %al,%rax
    f9d4:	8b 55 fc             	mov    -0x4(%rbp),%edx
    f9d7:	48 8d 35 16 19 00 00 	lea    0x1916(%rip),%rsi        # 112f4 <g_1837+0x1260>
    f9de:	48 89 c7             	mov    %rax,%rdi
    f9e1:	e8 0d 9d ff ff       	callq  96f3 <transparent_crc>
    f9e6:	8b 05 34 46 00 00    	mov    0x4634(%rip),%eax        # 14020 <crc32_context>
    f9ec:	f7 d0                	not    %eax
    f9ee:	89 c2                	mov    %eax,%edx
    f9f0:	8b 45 fc             	mov    -0x4(%rbp),%eax
    f9f3:	89 c6                	mov    %eax,%esi
    f9f5:	89 d7                	mov    %edx,%edi
    f9f7:	e8 98 87 ff ff       	callq  8194 <platform_main_end>
    f9fc:	b8 00 00 00 00       	mov    $0x0,%eax
    fa01:	c9                   	leaveq 
    fa02:	c3                   	retq   
    fa03:	66 2e 0f 1f 84 00 00 	nopw   %cs:0x0(%rax,%rax,1)
    fa0a:	00 00 00 
    fa0d:	0f 1f 00             	nopl   (%rax)

000000000000fa10 <__libc_csu_init>:
    fa10:	f3 0f 1e fa          	endbr64 
    fa14:	41 57                	push   %r15
    fa16:	4c 8d 3d 73 40 00 00 	lea    0x4073(%rip),%r15        # 13a90 <__frame_dummy_init_array_entry>
    fa1d:	41 56                	push   %r14
    fa1f:	49 89 d6             	mov    %rdx,%r14
    fa22:	41 55                	push   %r13
    fa24:	49 89 f5             	mov    %rsi,%r13
    fa27:	41 54                	push   %r12
    fa29:	41 89 fc             	mov    %edi,%r12d
    fa2c:	55                   	push   %rbp
    fa2d:	48 8d 2d 64 40 00 00 	lea    0x4064(%rip),%rbp        # 13a98 <__do_global_dtors_aux_fini_array_entry>
    fa34:	53                   	push   %rbx
    fa35:	4c 29 fd             	sub    %r15,%rbp
    fa38:	48 83 ec 08          	sub    $0x8,%rsp
    fa3c:	e8 bf 85 ff ff       	callq  8000 <_init>
    fa41:	48 c1 fd 03          	sar    $0x3,%rbp
    fa45:	74 1f                	je     fa66 <__libc_csu_init+0x56>
    fa47:	31 db                	xor    %ebx,%ebx
    fa49:	0f 1f 80 00 00 00 00 	nopl   0x0(%rax)
    fa50:	4c 89 f2             	mov    %r14,%rdx
    fa53:	4c 89 ee             	mov    %r13,%rsi
    fa56:	44 89 e7             	mov    %r12d,%edi
    fa59:	41 ff 14 df          	callq  *(%r15,%rbx,8)
    fa5d:	48 83 c3 01          	add    $0x1,%rbx
    fa61:	48 39 dd             	cmp    %rbx,%rbp
    fa64:	75 ea                	jne    fa50 <__libc_csu_init+0x40>
    fa66:	48 83 c4 08          	add    $0x8,%rsp
    fa6a:	5b                   	pop    %rbx
    fa6b:	5d                   	pop    %rbp
    fa6c:	41 5c                	pop    %r12
    fa6e:	41 5d                	pop    %r13
    fa70:	41 5e                	pop    %r14
    fa72:	41 5f                	pop    %r15
    fa74:	c3                   	retq   
    fa75:	66 66 2e 0f 1f 84 00 	data16 nopw %cs:0x0(%rax,%rax,1)
    fa7c:	00 00 00 00 

000000000000fa80 <__libc_csu_fini>:
    fa80:	f3 0f 1e fa          	endbr64 
    fa84:	c3                   	retq   
