


Disassembly of section .text:

00000000000080a0 <_start>:
    80a0:	f3 0f 1e fa          	endbr64 
    80a4:	31 ed                	xor    %ebp,%ebp
    80a6:	49 89 d1             	mov    %rdx,%r9
    80a9:	5e                   	pop    %rsi
    80aa:	48 89 e2             	mov    %rsp,%rdx
    80ad:	48 83 e4 f0          	and    $0xfffffffffffffff0,%rsp
    80b1:	50                   	push   %rax
    80b2:	54                   	push   %rsp
    80b3:	4c 8d 05 66 32 01 00 	lea    0x13266(%rip),%r8        # 1b320 <__libc_csu_fini>
    80ba:	48 8d 0d ef 31 01 00 	lea    0x131ef(%rip),%rcx        # 1b2b0 <__libc_csu_init>
    80c1:	48 8d 3d 17 20 01 00 	lea    0x12017(%rip),%rdi        # 1a0df <main>
    80c8:	ff 15 0a 9f 01 00    	callq  *0x19f0a(%rip)        # 21fd8 <__libc_start_main@GLIBC_2.2.5>
    80ce:	f4                   	hlt    
    80cf:	90                   	nop

00000000000080d0 <deregister_tm_clones>:
    80d0:	48 8d 3d a9 e0 01 00 	lea    0x1e0a9(%rip),%rdi        # 26180 <__TMC_END__>
    80d7:	48 8d 05 a2 e0 01 00 	lea    0x1e0a2(%rip),%rax        # 26180 <__TMC_END__>
    80de:	48 39 f8             	cmp    %rdi,%rax
    80e1:	74 15                	je     80f8 <deregister_tm_clones+0x28>
    80e3:	48 8b 05 e6 9e 01 00 	mov    0x19ee6(%rip),%rax        # 21fd0 <_ITM_deregisterTMCloneTable>
    80ea:	48 85 c0             	test   %rax,%rax
    80ed:	74 09                	je     80f8 <deregister_tm_clones+0x28>
    80ef:	ff e0                	jmpq   *%rax
    80f1:	0f 1f 80 00 00 00 00 	nopl   0x0(%rax)
    80f8:	c3                   	retq   
    80f9:	0f 1f 80 00 00 00 00 	nopl   0x0(%rax)

0000000000008100 <register_tm_clones>:
    8100:	48 8d 3d 79 e0 01 00 	lea    0x1e079(%rip),%rdi        # 26180 <__TMC_END__>
    8107:	48 8d 35 72 e0 01 00 	lea    0x1e072(%rip),%rsi        # 26180 <__TMC_END__>
    810e:	48 29 fe             	sub    %rdi,%rsi
    8111:	48 89 f0             	mov    %rsi,%rax
    8114:	48 c1 ee 3f          	shr    $0x3f,%rsi
    8118:	48 c1 f8 03          	sar    $0x3,%rax
    811c:	48 01 c6             	add    %rax,%rsi
    811f:	48 d1 fe             	sar    %rsi
    8122:	74 14                	je     8138 <register_tm_clones+0x38>
    8124:	48 8b 05 bd 9e 01 00 	mov    0x19ebd(%rip),%rax        # 21fe8 <_ITM_registerTMCloneTable>
    812b:	48 85 c0             	test   %rax,%rax
    812e:	74 08                	je     8138 <register_tm_clones+0x38>
    8130:	ff e0                	jmpq   *%rax
    8132:	66 0f 1f 44 00 00    	nopw   0x0(%rax,%rax,1)
    8138:	c3                   	retq   
    8139:	0f 1f 80 00 00 00 00 	nopl   0x0(%rax)

0000000000008140 <__do_global_dtors_aux>:
    8140:	f3 0f 1e fa          	endbr64 
    8144:	80 3d 35 e0 01 00 00 	cmpb   $0x0,0x1e035(%rip)        # 26180 <__TMC_END__>
    814b:	75 2b                	jne    8178 <__do_global_dtors_aux+0x38>
    814d:	55                   	push   %rbp
    814e:	48 83 3d 9a 9e 01 00 	cmpq   $0x0,0x19e9a(%rip)        # 21ff0 <__cxa_finalize@GLIBC_2.2.5>
    8155:	00 
    8156:	48 89 e5             	mov    %rsp,%rbp
    8159:	74 0c                	je     8167 <__do_global_dtors_aux+0x27>
    815b:	48 8b 3d a6 9e 01 00 	mov    0x19ea6(%rip),%rdi        # 22008 <__dso_handle>
    8162:	e8 f9 fe ff ff       	callq  8060 <__cxa_finalize@plt>
    8167:	e8 64 ff ff ff       	callq  80d0 <deregister_tm_clones>
    816c:	c6 05 0d e0 01 00 01 	movb   $0x1,0x1e00d(%rip)        # 26180 <__TMC_END__>
    8173:	5d                   	pop    %rbp
    8174:	c3                   	retq   
    8175:	0f 1f 00             	nopl   (%rax)
    8178:	c3                   	retq   
    8179:	0f 1f 80 00 00 00 00 	nopl   0x0(%rax)

0000000000008180 <frame_dummy>:
    8180:	f3 0f 1e fa          	endbr64 
    8184:	e9 77 ff ff ff       	jmpq   8100 <register_tm_clones>

0000000000008189 <platform_main_begin>:
    8189:	f3 0f 1e fa          	endbr64 
    818d:	55                   	push   %rbp
    818e:	48 89 e5             	mov    %rsp,%rbp
    8191:	90                   	nop
    8192:	5d                   	pop    %rbp
    8193:	c3                   	retq   

0000000000008194 <platform_main_end>:
    8194:	f3 0f 1e fa          	endbr64 
    8198:	55                   	push   %rbp
    8199:	48 89 e5             	mov    %rsp,%rbp
    819c:	48 83 ec 10          	sub    $0x10,%rsp
    81a0:	89 7d fc             	mov    %edi,-0x4(%rbp)
    81a3:	89 75 f8             	mov    %esi,-0x8(%rbp)
    81a6:	8b 45 fc             	mov    -0x4(%rbp),%eax
    81a9:	89 c6                	mov    %eax,%esi
    81ab:	48 8d 3d 6e 3e 01 00 	lea    0x13e6e(%rip),%rdi        # 1c020 <_IO_stdin_used+0x20>
    81b2:	b8 00 00 00 00       	mov    $0x0,%eax
    81b7:	e8 c4 fe ff ff       	callq  8080 <printf@plt>
    81bc:	90                   	nop
    81bd:	c9                   	leaveq 
    81be:	c3                   	retq   

00000000000081bf <safe_unary_minus_func_int8_t_s>:
    81bf:	f3 0f 1e fa          	endbr64 
    81c3:	55                   	push   %rbp
    81c4:	48 89 e5             	mov    %rsp,%rbp
    81c7:	89 f8                	mov    %edi,%eax
    81c9:	88 45 fc             	mov    %al,-0x4(%rbp)
    81cc:	0f b6 45 fc          	movzbl -0x4(%rbp),%eax
    81d0:	f7 d8                	neg    %eax
    81d2:	5d                   	pop    %rbp
    81d3:	c3                   	retq   

00000000000081d4 <safe_add_func_int8_t_s_s>:
    81d4:	f3 0f 1e fa          	endbr64 
    81d8:	55                   	push   %rbp
    81d9:	48 89 e5             	mov    %rsp,%rbp
    81dc:	89 fa                	mov    %edi,%edx
    81de:	89 f0                	mov    %esi,%eax
    81e0:	88 55 fc             	mov    %dl,-0x4(%rbp)
    81e3:	88 45 f8             	mov    %al,-0x8(%rbp)
    81e6:	0f b6 55 fc          	movzbl -0x4(%rbp),%edx
    81ea:	0f b6 45 f8          	movzbl -0x8(%rbp),%eax
    81ee:	01 d0                	add    %edx,%eax
    81f0:	5d                   	pop    %rbp
    81f1:	c3                   	retq   

00000000000081f2 <safe_sub_func_int8_t_s_s>:
    81f2:	f3 0f 1e fa          	endbr64 
    81f6:	55                   	push   %rbp
    81f7:	48 89 e5             	mov    %rsp,%rbp
    81fa:	89 fa                	mov    %edi,%edx
    81fc:	89 f0                	mov    %esi,%eax
    81fe:	88 55 fc             	mov    %dl,-0x4(%rbp)
    8201:	88 45 f8             	mov    %al,-0x8(%rbp)
    8204:	0f b6 55 fc          	movzbl -0x4(%rbp),%edx
    8208:	0f b6 45 f8          	movzbl -0x8(%rbp),%eax
    820c:	29 c2                	sub    %eax,%edx
    820e:	89 d0                	mov    %edx,%eax
    8210:	5d                   	pop    %rbp
    8211:	c3                   	retq   

0000000000008212 <safe_mul_func_int8_t_s_s>:
    8212:	f3 0f 1e fa          	endbr64 
    8216:	55                   	push   %rbp
    8217:	48 89 e5             	mov    %rsp,%rbp
    821a:	89 fa                	mov    %edi,%edx
    821c:	89 f0                	mov    %esi,%eax
    821e:	88 55 fc             	mov    %dl,-0x4(%rbp)
    8221:	88 45 f8             	mov    %al,-0x8(%rbp)
    8224:	0f b6 45 fc          	movzbl -0x4(%rbp),%eax
    8228:	0f b6 55 f8          	movzbl -0x8(%rbp),%edx
    822c:	0f af c2             	imul   %edx,%eax
    822f:	5d                   	pop    %rbp
    8230:	c3                   	retq   

0000000000008231 <safe_mod_func_int8_t_s_s>:
    8231:	f3 0f 1e fa          	endbr64 
    8235:	55                   	push   %rbp
    8236:	48 89 e5             	mov    %rsp,%rbp
    8239:	89 fa                	mov    %edi,%edx
    823b:	89 f0                	mov    %esi,%eax
    823d:	88 55 fc             	mov    %dl,-0x4(%rbp)
    8240:	88 45 f8             	mov    %al,-0x8(%rbp)
    8243:	80 7d f8 00          	cmpb   $0x0,-0x8(%rbp)
    8247:	74 1b                	je     8264 <safe_mod_func_int8_t_s_s+0x33>
    8249:	80 7d fc 80          	cmpb   $0x80,-0x4(%rbp)
    824d:	75 06                	jne    8255 <safe_mod_func_int8_t_s_s+0x24>
    824f:	80 7d f8 ff          	cmpb   $0xff,-0x8(%rbp)
    8253:	74 0f                	je     8264 <safe_mod_func_int8_t_s_s+0x33>
    8255:	0f be 45 fc          	movsbl -0x4(%rbp),%eax
    8259:	0f be 4d f8          	movsbl -0x8(%rbp),%ecx
    825d:	99                   	cltd   
    825e:	f7 f9                	idiv   %ecx
    8260:	89 d0                	mov    %edx,%eax
    8262:	eb 04                	jmp    8268 <safe_mod_func_int8_t_s_s+0x37>
    8264:	0f b6 45 fc          	movzbl -0x4(%rbp),%eax
    8268:	5d                   	pop    %rbp
    8269:	c3                   	retq   

000000000000826a <safe_div_func_int8_t_s_s>:
    826a:	f3 0f 1e fa          	endbr64 
    826e:	55                   	push   %rbp
    826f:	48 89 e5             	mov    %rsp,%rbp
    8272:	89 fa                	mov    %edi,%edx
    8274:	89 f0                	mov    %esi,%eax
    8276:	88 55 fc             	mov    %dl,-0x4(%rbp)
    8279:	88 45 f8             	mov    %al,-0x8(%rbp)
    827c:	80 7d f8 00          	cmpb   $0x0,-0x8(%rbp)
    8280:	74 19                	je     829b <safe_div_func_int8_t_s_s+0x31>
    8282:	80 7d fc 80          	cmpb   $0x80,-0x4(%rbp)
    8286:	75 06                	jne    828e <safe_div_func_int8_t_s_s+0x24>
    8288:	80 7d f8 ff          	cmpb   $0xff,-0x8(%rbp)
    828c:	74 0d                	je     829b <safe_div_func_int8_t_s_s+0x31>
    828e:	0f be 45 fc          	movsbl -0x4(%rbp),%eax
    8292:	0f be 4d f8          	movsbl -0x8(%rbp),%ecx
    8296:	99                   	cltd   
    8297:	f7 f9                	idiv   %ecx
    8299:	eb 04                	jmp    829f <safe_div_func_int8_t_s_s+0x35>
    829b:	0f b6 45 fc          	movzbl -0x4(%rbp),%eax
    829f:	5d                   	pop    %rbp
    82a0:	c3                   	retq   

00000000000082a1 <safe_lshift_func_int8_t_s_s>:
    82a1:	f3 0f 1e fa          	endbr64 
    82a5:	55                   	push   %rbp
    82a6:	48 89 e5             	mov    %rsp,%rbp
    82a9:	89 f8                	mov    %edi,%eax
    82ab:	89 75 f8             	mov    %esi,-0x8(%rbp)
    82ae:	88 45 fc             	mov    %al,-0x4(%rbp)
    82b1:	80 7d fc 00          	cmpb   $0x0,-0x4(%rbp)
    82b5:	78 31                	js     82e8 <safe_lshift_func_int8_t_s_s+0x47>
    82b7:	83 7d f8 00          	cmpl   $0x0,-0x8(%rbp)
    82bb:	78 2b                	js     82e8 <safe_lshift_func_int8_t_s_s+0x47>
    82bd:	83 7d f8 1f          	cmpl   $0x1f,-0x8(%rbp)
    82c1:	7f 25                	jg     82e8 <safe_lshift_func_int8_t_s_s+0x47>
    82c3:	0f be 55 fc          	movsbl -0x4(%rbp),%edx
    82c7:	8b 45 f8             	mov    -0x8(%rbp),%eax
    82ca:	be 7f 00 00 00       	mov    $0x7f,%esi
    82cf:	89 c1                	mov    %eax,%ecx
    82d1:	d3 fe                	sar    %cl,%esi
    82d3:	89 f0                	mov    %esi,%eax
    82d5:	39 c2                	cmp    %eax,%edx
    82d7:	7f 0f                	jg     82e8 <safe_lshift_func_int8_t_s_s+0x47>
    82d9:	0f be 55 fc          	movsbl -0x4(%rbp),%edx
    82dd:	8b 45 f8             	mov    -0x8(%rbp),%eax
    82e0:	89 c1                	mov    %eax,%ecx
    82e2:	d3 e2                	shl    %cl,%edx
    82e4:	89 d0                	mov    %edx,%eax
    82e6:	eb 04                	jmp    82ec <safe_lshift_func_int8_t_s_s+0x4b>
    82e8:	0f b6 45 fc          	movzbl -0x4(%rbp),%eax
    82ec:	5d                   	pop    %rbp
    82ed:	c3                   	retq   

00000000000082ee <safe_lshift_func_int8_t_s_u>:
    82ee:	f3 0f 1e fa          	endbr64 
    82f2:	55                   	push   %rbp
    82f3:	48 89 e5             	mov    %rsp,%rbp
    82f6:	89 f8                	mov    %edi,%eax
    82f8:	89 75 f8             	mov    %esi,-0x8(%rbp)
    82fb:	88 45 fc             	mov    %al,-0x4(%rbp)
    82fe:	80 7d fc 00          	cmpb   $0x0,-0x4(%rbp)
    8302:	78 2b                	js     832f <safe_lshift_func_int8_t_s_u+0x41>
    8304:	83 7d f8 1f          	cmpl   $0x1f,-0x8(%rbp)
    8308:	77 25                	ja     832f <safe_lshift_func_int8_t_s_u+0x41>
    830a:	0f be 55 fc          	movsbl -0x4(%rbp),%edx
    830e:	8b 45 f8             	mov    -0x8(%rbp),%eax
    8311:	be 7f 00 00 00       	mov    $0x7f,%esi
    8316:	89 c1                	mov    %eax,%ecx
    8318:	d3 fe                	sar    %cl,%esi
    831a:	89 f0                	mov    %esi,%eax
    831c:	39 c2                	cmp    %eax,%edx
    831e:	7f 0f                	jg     832f <safe_lshift_func_int8_t_s_u+0x41>
    8320:	0f be 55 fc          	movsbl -0x4(%rbp),%edx
    8324:	8b 45 f8             	mov    -0x8(%rbp),%eax
    8327:	89 c1                	mov    %eax,%ecx
    8329:	d3 e2                	shl    %cl,%edx
    832b:	89 d0                	mov    %edx,%eax
    832d:	eb 04                	jmp    8333 <safe_lshift_func_int8_t_s_u+0x45>
    832f:	0f b6 45 fc          	movzbl -0x4(%rbp),%eax
    8333:	5d                   	pop    %rbp
    8334:	c3                   	retq   

0000000000008335 <safe_rshift_func_int8_t_s_s>:
    8335:	f3 0f 1e fa          	endbr64 
    8339:	55                   	push   %rbp
    833a:	48 89 e5             	mov    %rsp,%rbp
    833d:	89 f8                	mov    %edi,%eax
    833f:	89 75 f8             	mov    %esi,-0x8(%rbp)
    8342:	88 45 fc             	mov    %al,-0x4(%rbp)
    8345:	80 7d fc 00          	cmpb   $0x0,-0x4(%rbp)
    8349:	78 1b                	js     8366 <safe_rshift_func_int8_t_s_s+0x31>
    834b:	83 7d f8 00          	cmpl   $0x0,-0x8(%rbp)
    834f:	78 15                	js     8366 <safe_rshift_func_int8_t_s_s+0x31>
    8351:	83 7d f8 1f          	cmpl   $0x1f,-0x8(%rbp)
    8355:	7f 0f                	jg     8366 <safe_rshift_func_int8_t_s_s+0x31>
    8357:	0f be 55 fc          	movsbl -0x4(%rbp),%edx
    835b:	8b 45 f8             	mov    -0x8(%rbp),%eax
    835e:	89 c1                	mov    %eax,%ecx
    8360:	d3 fa                	sar    %cl,%edx
    8362:	89 d0                	mov    %edx,%eax
    8364:	eb 04                	jmp    836a <safe_rshift_func_int8_t_s_s+0x35>
    8366:	0f b6 45 fc          	movzbl -0x4(%rbp),%eax
    836a:	5d                   	pop    %rbp
    836b:	c3                   	retq   

000000000000836c <safe_rshift_func_int8_t_s_u>:
    836c:	f3 0f 1e fa          	endbr64 
    8370:	55                   	push   %rbp
    8371:	48 89 e5             	mov    %rsp,%rbp
    8374:	89 f8                	mov    %edi,%eax
    8376:	89 75 f8             	mov    %esi,-0x8(%rbp)
    8379:	88 45 fc             	mov    %al,-0x4(%rbp)
    837c:	80 7d fc 00          	cmpb   $0x0,-0x4(%rbp)
    8380:	78 15                	js     8397 <safe_rshift_func_int8_t_s_u+0x2b>
    8382:	83 7d f8 1f          	cmpl   $0x1f,-0x8(%rbp)
    8386:	77 0f                	ja     8397 <safe_rshift_func_int8_t_s_u+0x2b>
    8388:	0f be 55 fc          	movsbl -0x4(%rbp),%edx
    838c:	8b 45 f8             	mov    -0x8(%rbp),%eax
    838f:	89 c1                	mov    %eax,%ecx
    8391:	d3 fa                	sar    %cl,%edx
    8393:	89 d0                	mov    %edx,%eax
    8395:	eb 04                	jmp    839b <safe_rshift_func_int8_t_s_u+0x2f>
    8397:	0f b6 45 fc          	movzbl -0x4(%rbp),%eax
    839b:	5d                   	pop    %rbp
    839c:	c3                   	retq   

000000000000839d <safe_unary_minus_func_int16_t_s>:
    839d:	f3 0f 1e fa          	endbr64 
    83a1:	55                   	push   %rbp
    83a2:	48 89 e5             	mov    %rsp,%rbp
    83a5:	89 f8                	mov    %edi,%eax
    83a7:	66 89 45 fc          	mov    %ax,-0x4(%rbp)
    83ab:	0f b7 45 fc          	movzwl -0x4(%rbp),%eax
    83af:	f7 d8                	neg    %eax
    83b1:	5d                   	pop    %rbp
    83b2:	c3                   	retq   

00000000000083b3 <safe_add_func_int16_t_s_s>:
    83b3:	f3 0f 1e fa          	endbr64 
    83b7:	55                   	push   %rbp
    83b8:	48 89 e5             	mov    %rsp,%rbp
    83bb:	89 fa                	mov    %edi,%edx
    83bd:	89 f0                	mov    %esi,%eax
    83bf:	66 89 55 fc          	mov    %dx,-0x4(%rbp)
    83c3:	66 89 45 f8          	mov    %ax,-0x8(%rbp)
    83c7:	0f b7 55 fc          	movzwl -0x4(%rbp),%edx
    83cb:	0f b7 45 f8          	movzwl -0x8(%rbp),%eax
    83cf:	01 d0                	add    %edx,%eax
    83d1:	5d                   	pop    %rbp
    83d2:	c3                   	retq   

00000000000083d3 <safe_sub_func_int16_t_s_s>:
    83d3:	f3 0f 1e fa          	endbr64 
    83d7:	55                   	push   %rbp
    83d8:	48 89 e5             	mov    %rsp,%rbp
    83db:	89 fa                	mov    %edi,%edx
    83dd:	89 f0                	mov    %esi,%eax
    83df:	66 89 55 fc          	mov    %dx,-0x4(%rbp)
    83e3:	66 89 45 f8          	mov    %ax,-0x8(%rbp)
    83e7:	0f b7 55 fc          	movzwl -0x4(%rbp),%edx
    83eb:	0f b7 45 f8          	movzwl -0x8(%rbp),%eax
    83ef:	29 c2                	sub    %eax,%edx
    83f1:	89 d0                	mov    %edx,%eax
    83f3:	5d                   	pop    %rbp
    83f4:	c3                   	retq   

00000000000083f5 <safe_mul_func_int16_t_s_s>:
    83f5:	f3 0f 1e fa          	endbr64 
    83f9:	55                   	push   %rbp
    83fa:	48 89 e5             	mov    %rsp,%rbp
    83fd:	89 fa                	mov    %edi,%edx
    83ff:	89 f0                	mov    %esi,%eax
    8401:	66 89 55 fc          	mov    %dx,-0x4(%rbp)
    8405:	66 89 45 f8          	mov    %ax,-0x8(%rbp)
    8409:	0f b7 55 fc          	movzwl -0x4(%rbp),%edx
    840d:	0f b7 45 f8          	movzwl -0x8(%rbp),%eax
    8411:	0f af c2             	imul   %edx,%eax
    8414:	5d                   	pop    %rbp
    8415:	c3                   	retq   

0000000000008416 <safe_mod_func_int16_t_s_s>:
    8416:	f3 0f 1e fa          	endbr64 
    841a:	55                   	push   %rbp
    841b:	48 89 e5             	mov    %rsp,%rbp
    841e:	89 fa                	mov    %edi,%edx
    8420:	89 f0                	mov    %esi,%eax
    8422:	66 89 55 fc          	mov    %dx,-0x4(%rbp)
    8426:	66 89 45 f8          	mov    %ax,-0x8(%rbp)
    842a:	66 83 7d f8 00       	cmpw   $0x0,-0x8(%rbp)
    842f:	74 1e                	je     844f <safe_mod_func_int16_t_s_s+0x39>
    8431:	66 81 7d fc 00 80    	cmpw   $0x8000,-0x4(%rbp)
    8437:	75 07                	jne    8440 <safe_mod_func_int16_t_s_s+0x2a>
    8439:	66 83 7d f8 ff       	cmpw   $0xffff,-0x8(%rbp)
    843e:	74 0f                	je     844f <safe_mod_func_int16_t_s_s+0x39>
    8440:	0f bf 45 fc          	movswl -0x4(%rbp),%eax
    8444:	0f bf 4d f8          	movswl -0x8(%rbp),%ecx
    8448:	99                   	cltd   
    8449:	f7 f9                	idiv   %ecx
    844b:	89 d0                	mov    %edx,%eax
    844d:	eb 04                	jmp    8453 <safe_mod_func_int16_t_s_s+0x3d>
    844f:	0f b7 45 fc          	movzwl -0x4(%rbp),%eax
    8453:	5d                   	pop    %rbp
    8454:	c3                   	retq   

0000000000008455 <safe_div_func_int16_t_s_s>:
    8455:	f3 0f 1e fa          	endbr64 
    8459:	55                   	push   %rbp
    845a:	48 89 e5             	mov    %rsp,%rbp
    845d:	89 fa                	mov    %edi,%edx
    845f:	89 f0                	mov    %esi,%eax
    8461:	66 89 55 fc          	mov    %dx,-0x4(%rbp)
    8465:	66 89 45 f8          	mov    %ax,-0x8(%rbp)
    8469:	66 83 7d f8 00       	cmpw   $0x0,-0x8(%rbp)
    846e:	74 1c                	je     848c <safe_div_func_int16_t_s_s+0x37>
    8470:	66 81 7d fc 00 80    	cmpw   $0x8000,-0x4(%rbp)
    8476:	75 07                	jne    847f <safe_div_func_int16_t_s_s+0x2a>
    8478:	66 83 7d f8 ff       	cmpw   $0xffff,-0x8(%rbp)
    847d:	74 0d                	je     848c <safe_div_func_int16_t_s_s+0x37>
    847f:	0f bf 45 fc          	movswl -0x4(%rbp),%eax
    8483:	0f bf 4d f8          	movswl -0x8(%rbp),%ecx
    8487:	99                   	cltd   
    8488:	f7 f9                	idiv   %ecx
    848a:	eb 04                	jmp    8490 <safe_div_func_int16_t_s_s+0x3b>
    848c:	0f b7 45 fc          	movzwl -0x4(%rbp),%eax
    8490:	5d                   	pop    %rbp
    8491:	c3                   	retq   

0000000000008492 <safe_lshift_func_int16_t_s_s>:
    8492:	f3 0f 1e fa          	endbr64 
    8496:	55                   	push   %rbp
    8497:	48 89 e5             	mov    %rsp,%rbp
    849a:	89 f8                	mov    %edi,%eax
    849c:	89 75 f8             	mov    %esi,-0x8(%rbp)
    849f:	66 89 45 fc          	mov    %ax,-0x4(%rbp)
    84a3:	66 83 7d fc 00       	cmpw   $0x0,-0x4(%rbp)
    84a8:	78 31                	js     84db <safe_lshift_func_int16_t_s_s+0x49>
    84aa:	83 7d f8 00          	cmpl   $0x0,-0x8(%rbp)
    84ae:	78 2b                	js     84db <safe_lshift_func_int16_t_s_s+0x49>
    84b0:	83 7d f8 1f          	cmpl   $0x1f,-0x8(%rbp)
    84b4:	7f 25                	jg     84db <safe_lshift_func_int16_t_s_s+0x49>
    84b6:	0f bf 55 fc          	movswl -0x4(%rbp),%edx
    84ba:	8b 45 f8             	mov    -0x8(%rbp),%eax
    84bd:	be ff 7f 00 00       	mov    $0x7fff,%esi
    84c2:	89 c1                	mov    %eax,%ecx
    84c4:	d3 fe                	sar    %cl,%esi
    84c6:	89 f0                	mov    %esi,%eax
    84c8:	39 c2                	cmp    %eax,%edx
    84ca:	7f 0f                	jg     84db <safe_lshift_func_int16_t_s_s+0x49>
    84cc:	0f bf 55 fc          	movswl -0x4(%rbp),%edx
    84d0:	8b 45 f8             	mov    -0x8(%rbp),%eax
    84d3:	89 c1                	mov    %eax,%ecx
    84d5:	d3 e2                	shl    %cl,%edx
    84d7:	89 d0                	mov    %edx,%eax
    84d9:	eb 04                	jmp    84df <safe_lshift_func_int16_t_s_s+0x4d>
    84db:	0f b7 45 fc          	movzwl -0x4(%rbp),%eax
    84df:	5d                   	pop    %rbp
    84e0:	c3                   	retq   

00000000000084e1 <safe_lshift_func_int16_t_s_u>:
    84e1:	f3 0f 1e fa          	endbr64 
    84e5:	55                   	push   %rbp
    84e6:	48 89 e5             	mov    %rsp,%rbp
    84e9:	89 f8                	mov    %edi,%eax
    84eb:	89 75 f8             	mov    %esi,-0x8(%rbp)
    84ee:	66 89 45 fc          	mov    %ax,-0x4(%rbp)
    84f2:	66 83 7d fc 00       	cmpw   $0x0,-0x4(%rbp)
    84f7:	78 2b                	js     8524 <safe_lshift_func_int16_t_s_u+0x43>
    84f9:	83 7d f8 1f          	cmpl   $0x1f,-0x8(%rbp)
    84fd:	77 25                	ja     8524 <safe_lshift_func_int16_t_s_u+0x43>
    84ff:	0f bf 55 fc          	movswl -0x4(%rbp),%edx
    8503:	8b 45 f8             	mov    -0x8(%rbp),%eax
    8506:	be ff 7f 00 00       	mov    $0x7fff,%esi
    850b:	89 c1                	mov    %eax,%ecx
    850d:	d3 fe                	sar    %cl,%esi
    850f:	89 f0                	mov    %esi,%eax
    8511:	39 c2                	cmp    %eax,%edx
    8513:	7f 0f                	jg     8524 <safe_lshift_func_int16_t_s_u+0x43>
    8515:	0f bf 55 fc          	movswl -0x4(%rbp),%edx
    8519:	8b 45 f8             	mov    -0x8(%rbp),%eax
    851c:	89 c1                	mov    %eax,%ecx
    851e:	d3 e2                	shl    %cl,%edx
    8520:	89 d0                	mov    %edx,%eax
    8522:	eb 04                	jmp    8528 <safe_lshift_func_int16_t_s_u+0x47>
    8524:	0f b7 45 fc          	movzwl -0x4(%rbp),%eax
    8528:	5d                   	pop    %rbp
    8529:	c3                   	retq   

000000000000852a <safe_rshift_func_int16_t_s_s>:
    852a:	f3 0f 1e fa          	endbr64 
    852e:	55                   	push   %rbp
    852f:	48 89 e5             	mov    %rsp,%rbp
    8532:	89 f8                	mov    %edi,%eax
    8534:	89 75 f8             	mov    %esi,-0x8(%rbp)
    8537:	66 89 45 fc          	mov    %ax,-0x4(%rbp)
    853b:	66 83 7d fc 00       	cmpw   $0x0,-0x4(%rbp)
    8540:	78 1b                	js     855d <safe_rshift_func_int16_t_s_s+0x33>
    8542:	83 7d f8 00          	cmpl   $0x0,-0x8(%rbp)
    8546:	78 15                	js     855d <safe_rshift_func_int16_t_s_s+0x33>
    8548:	83 7d f8 1f          	cmpl   $0x1f,-0x8(%rbp)
    854c:	7f 0f                	jg     855d <safe_rshift_func_int16_t_s_s+0x33>
    854e:	0f bf 55 fc          	movswl -0x4(%rbp),%edx
    8552:	8b 45 f8             	mov    -0x8(%rbp),%eax
    8555:	89 c1                	mov    %eax,%ecx
    8557:	d3 fa                	sar    %cl,%edx
    8559:	89 d0                	mov    %edx,%eax
    855b:	eb 04                	jmp    8561 <safe_rshift_func_int16_t_s_s+0x37>
    855d:	0f b7 45 fc          	movzwl -0x4(%rbp),%eax
    8561:	5d                   	pop    %rbp
    8562:	c3                   	retq   

0000000000008563 <safe_rshift_func_int16_t_s_u>:
    8563:	f3 0f 1e fa          	endbr64 
    8567:	55                   	push   %rbp
    8568:	48 89 e5             	mov    %rsp,%rbp
    856b:	89 f8                	mov    %edi,%eax
    856d:	89 75 f8             	mov    %esi,-0x8(%rbp)
    8570:	66 89 45 fc          	mov    %ax,-0x4(%rbp)
    8574:	66 83 7d fc 00       	cmpw   $0x0,-0x4(%rbp)
    8579:	78 15                	js     8590 <safe_rshift_func_int16_t_s_u+0x2d>
    857b:	83 7d f8 1f          	cmpl   $0x1f,-0x8(%rbp)
    857f:	77 0f                	ja     8590 <safe_rshift_func_int16_t_s_u+0x2d>
    8581:	0f bf 55 fc          	movswl -0x4(%rbp),%edx
    8585:	8b 45 f8             	mov    -0x8(%rbp),%eax
    8588:	89 c1                	mov    %eax,%ecx
    858a:	d3 fa                	sar    %cl,%edx
    858c:	89 d0                	mov    %edx,%eax
    858e:	eb 04                	jmp    8594 <safe_rshift_func_int16_t_s_u+0x31>
    8590:	0f b7 45 fc          	movzwl -0x4(%rbp),%eax
    8594:	5d                   	pop    %rbp
    8595:	c3                   	retq   

0000000000008596 <safe_unary_minus_func_int32_t_s>:
    8596:	f3 0f 1e fa          	endbr64 
    859a:	55                   	push   %rbp
    859b:	48 89 e5             	mov    %rsp,%rbp
    859e:	89 7d fc             	mov    %edi,-0x4(%rbp)
    85a1:	81 7d fc 00 00 00 80 	cmpl   $0x80000000,-0x4(%rbp)
    85a8:	74 07                	je     85b1 <safe_unary_minus_func_int32_t_s+0x1b>
    85aa:	8b 45 fc             	mov    -0x4(%rbp),%eax
    85ad:	f7 d8                	neg    %eax
    85af:	eb 03                	jmp    85b4 <safe_unary_minus_func_int32_t_s+0x1e>
    85b1:	8b 45 fc             	mov    -0x4(%rbp),%eax
    85b4:	5d                   	pop    %rbp
    85b5:	c3                   	retq   

00000000000085b6 <safe_add_func_int32_t_s_s>:
    85b6:	f3 0f 1e fa          	endbr64 
    85ba:	55                   	push   %rbp
    85bb:	48 89 e5             	mov    %rsp,%rbp
    85be:	89 7d fc             	mov    %edi,-0x4(%rbp)
    85c1:	89 75 f8             	mov    %esi,-0x8(%rbp)
    85c4:	83 7d fc 00          	cmpl   $0x0,-0x4(%rbp)
    85c8:	7e 13                	jle    85dd <safe_add_func_int32_t_s_s+0x27>
    85ca:	83 7d f8 00          	cmpl   $0x0,-0x8(%rbp)
    85ce:	7e 0d                	jle    85dd <safe_add_func_int32_t_s_s+0x27>
    85d0:	b8 ff ff ff 7f       	mov    $0x7fffffff,%eax
    85d5:	2b 45 f8             	sub    -0x8(%rbp),%eax
    85d8:	39 45 fc             	cmp    %eax,-0x4(%rbp)
    85db:	7f 23                	jg     8600 <safe_add_func_int32_t_s_s+0x4a>
    85dd:	83 7d fc 00          	cmpl   $0x0,-0x4(%rbp)
    85e1:	79 13                	jns    85f6 <safe_add_func_int32_t_s_s+0x40>
    85e3:	83 7d f8 00          	cmpl   $0x0,-0x8(%rbp)
    85e7:	79 0d                	jns    85f6 <safe_add_func_int32_t_s_s+0x40>
    85e9:	b8 00 00 00 80       	mov    $0x80000000,%eax
    85ee:	2b 45 f8             	sub    -0x8(%rbp),%eax
    85f1:	39 45 fc             	cmp    %eax,-0x4(%rbp)
    85f4:	7c 0a                	jl     8600 <safe_add_func_int32_t_s_s+0x4a>
    85f6:	8b 55 fc             	mov    -0x4(%rbp),%edx
    85f9:	8b 45 f8             	mov    -0x8(%rbp),%eax
    85fc:	01 d0                	add    %edx,%eax
    85fe:	eb 03                	jmp    8603 <safe_add_func_int32_t_s_s+0x4d>
    8600:	8b 45 fc             	mov    -0x4(%rbp),%eax
    8603:	5d                   	pop    %rbp
    8604:	c3                   	retq   

0000000000008605 <safe_sub_func_int32_t_s_s>:
    8605:	f3 0f 1e fa          	endbr64 
    8609:	55                   	push   %rbp
    860a:	48 89 e5             	mov    %rsp,%rbp
    860d:	89 7d fc             	mov    %edi,-0x4(%rbp)
    8610:	89 75 f8             	mov    %esi,-0x8(%rbp)
    8613:	8b 45 fc             	mov    -0x4(%rbp),%eax
    8616:	33 45 f8             	xor    -0x8(%rbp),%eax
    8619:	89 c2                	mov    %eax,%edx
    861b:	8b 45 fc             	mov    -0x4(%rbp),%eax
    861e:	33 45 f8             	xor    -0x8(%rbp),%eax
    8621:	25 00 00 00 80       	and    $0x80000000,%eax
    8626:	33 45 fc             	xor    -0x4(%rbp),%eax
    8629:	2b 45 f8             	sub    -0x8(%rbp),%eax
    862c:	33 45 f8             	xor    -0x8(%rbp),%eax
    862f:	21 d0                	and    %edx,%eax
    8631:	85 c0                	test   %eax,%eax
    8633:	78 08                	js     863d <safe_sub_func_int32_t_s_s+0x38>
    8635:	8b 45 fc             	mov    -0x4(%rbp),%eax
    8638:	2b 45 f8             	sub    -0x8(%rbp),%eax
    863b:	eb 03                	jmp    8640 <safe_sub_func_int32_t_s_s+0x3b>
    863d:	8b 45 fc             	mov    -0x4(%rbp),%eax
    8640:	5d                   	pop    %rbp
    8641:	c3                   	retq   

0000000000008642 <safe_mul_func_int32_t_s_s>:
    8642:	f3 0f 1e fa          	endbr64 
    8646:	55                   	push   %rbp
    8647:	48 89 e5             	mov    %rsp,%rbp
    864a:	89 7d fc             	mov    %edi,-0x4(%rbp)
    864d:	89 75 f8             	mov    %esi,-0x8(%rbp)
    8650:	83 7d fc 00          	cmpl   $0x0,-0x4(%rbp)
    8654:	7e 14                	jle    866a <safe_mul_func_int32_t_s_s+0x28>
    8656:	83 7d f8 00          	cmpl   $0x0,-0x8(%rbp)
    865a:	7e 0e                	jle    866a <safe_mul_func_int32_t_s_s+0x28>
    865c:	b8 ff ff ff 7f       	mov    $0x7fffffff,%eax
    8661:	99                   	cltd   
    8662:	f7 7d f8             	idivl  -0x8(%rbp)
    8665:	39 45 fc             	cmp    %eax,-0x4(%rbp)
    8668:	7f 5d                	jg     86c7 <safe_mul_func_int32_t_s_s+0x85>
    866a:	83 7d fc 00          	cmpl   $0x0,-0x4(%rbp)
    866e:	7e 14                	jle    8684 <safe_mul_func_int32_t_s_s+0x42>
    8670:	83 7d f8 00          	cmpl   $0x0,-0x8(%rbp)
    8674:	7f 0e                	jg     8684 <safe_mul_func_int32_t_s_s+0x42>
    8676:	b8 00 00 00 80       	mov    $0x80000000,%eax
    867b:	99                   	cltd   
    867c:	f7 7d fc             	idivl  -0x4(%rbp)
    867f:	39 45 f8             	cmp    %eax,-0x8(%rbp)
    8682:	7c 43                	jl     86c7 <safe_mul_func_int32_t_s_s+0x85>
    8684:	83 7d fc 00          	cmpl   $0x0,-0x4(%rbp)
    8688:	7f 14                	jg     869e <safe_mul_func_int32_t_s_s+0x5c>
    868a:	83 7d f8 00          	cmpl   $0x0,-0x8(%rbp)
    868e:	7e 0e                	jle    869e <safe_mul_func_int32_t_s_s+0x5c>
    8690:	b8 00 00 00 80       	mov    $0x80000000,%eax
    8695:	99                   	cltd   
    8696:	f7 7d f8             	idivl  -0x8(%rbp)
    8699:	39 45 fc             	cmp    %eax,-0x4(%rbp)
    869c:	7c 29                	jl     86c7 <safe_mul_func_int32_t_s_s+0x85>
    869e:	83 7d fc 00          	cmpl   $0x0,-0x4(%rbp)
    86a2:	7f 1a                	jg     86be <safe_mul_func_int32_t_s_s+0x7c>
    86a4:	83 7d f8 00          	cmpl   $0x0,-0x8(%rbp)
    86a8:	7f 14                	jg     86be <safe_mul_func_int32_t_s_s+0x7c>
    86aa:	83 7d fc 00          	cmpl   $0x0,-0x4(%rbp)
    86ae:	74 0e                	je     86be <safe_mul_func_int32_t_s_s+0x7c>
    86b0:	b8 ff ff ff 7f       	mov    $0x7fffffff,%eax
    86b5:	99                   	cltd   
    86b6:	f7 7d fc             	idivl  -0x4(%rbp)
    86b9:	39 45 f8             	cmp    %eax,-0x8(%rbp)
    86bc:	7c 09                	jl     86c7 <safe_mul_func_int32_t_s_s+0x85>
    86be:	8b 45 fc             	mov    -0x4(%rbp),%eax
    86c1:	0f af 45 f8          	imul   -0x8(%rbp),%eax
    86c5:	eb 03                	jmp    86ca <safe_mul_func_int32_t_s_s+0x88>
    86c7:	8b 45 fc             	mov    -0x4(%rbp),%eax
    86ca:	5d                   	pop    %rbp
    86cb:	c3                   	retq   

00000000000086cc <safe_mod_func_int32_t_s_s>:
    86cc:	f3 0f 1e fa          	endbr64 
    86d0:	55                   	push   %rbp
    86d1:	48 89 e5             	mov    %rsp,%rbp
    86d4:	89 7d fc             	mov    %edi,-0x4(%rbp)
    86d7:	89 75 f8             	mov    %esi,-0x8(%rbp)
    86da:	83 7d f8 00          	cmpl   $0x0,-0x8(%rbp)
    86de:	74 1a                	je     86fa <safe_mod_func_int32_t_s_s+0x2e>
    86e0:	81 7d fc 00 00 00 80 	cmpl   $0x80000000,-0x4(%rbp)
    86e7:	75 06                	jne    86ef <safe_mod_func_int32_t_s_s+0x23>
    86e9:	83 7d f8 ff          	cmpl   $0xffffffff,-0x8(%rbp)
    86ed:	74 0b                	je     86fa <safe_mod_func_int32_t_s_s+0x2e>
    86ef:	8b 45 fc             	mov    -0x4(%rbp),%eax
    86f2:	99                   	cltd   
    86f3:	f7 7d f8             	idivl  -0x8(%rbp)
    86f6:	89 d0                	mov    %edx,%eax
    86f8:	eb 03                	jmp    86fd <safe_mod_func_int32_t_s_s+0x31>
    86fa:	8b 45 fc             	mov    -0x4(%rbp),%eax
    86fd:	5d                   	pop    %rbp
    86fe:	c3                   	retq   

00000000000086ff <safe_div_func_int32_t_s_s>:
    86ff:	f3 0f 1e fa          	endbr64 
    8703:	55                   	push   %rbp
    8704:	48 89 e5             	mov    %rsp,%rbp
    8707:	89 7d fc             	mov    %edi,-0x4(%rbp)
    870a:	89 75 f8             	mov    %esi,-0x8(%rbp)
    870d:	83 7d f8 00          	cmpl   $0x0,-0x8(%rbp)
    8711:	74 18                	je     872b <safe_div_func_int32_t_s_s+0x2c>
    8713:	81 7d fc 00 00 00 80 	cmpl   $0x80000000,-0x4(%rbp)
    871a:	75 06                	jne    8722 <safe_div_func_int32_t_s_s+0x23>
    871c:	83 7d f8 ff          	cmpl   $0xffffffff,-0x8(%rbp)
    8720:	74 09                	je     872b <safe_div_func_int32_t_s_s+0x2c>
    8722:	8b 45 fc             	mov    -0x4(%rbp),%eax
    8725:	99                   	cltd   
    8726:	f7 7d f8             	idivl  -0x8(%rbp)
    8729:	eb 03                	jmp    872e <safe_div_func_int32_t_s_s+0x2f>
    872b:	8b 45 fc             	mov    -0x4(%rbp),%eax
    872e:	5d                   	pop    %rbp
    872f:	c3                   	retq   

0000000000008730 <safe_lshift_func_int32_t_s_s>:
    8730:	f3 0f 1e fa          	endbr64 
    8734:	55                   	push   %rbp
    8735:	48 89 e5             	mov    %rsp,%rbp
    8738:	89 7d fc             	mov    %edi,-0x4(%rbp)
    873b:	89 75 f8             	mov    %esi,-0x8(%rbp)
    873e:	83 7d fc 00          	cmpl   $0x0,-0x4(%rbp)
    8742:	78 2d                	js     8771 <safe_lshift_func_int32_t_s_s+0x41>
    8744:	83 7d f8 00          	cmpl   $0x0,-0x8(%rbp)
    8748:	78 27                	js     8771 <safe_lshift_func_int32_t_s_s+0x41>
    874a:	83 7d f8 1f          	cmpl   $0x1f,-0x8(%rbp)
    874e:	7f 21                	jg     8771 <safe_lshift_func_int32_t_s_s+0x41>
    8750:	8b 45 f8             	mov    -0x8(%rbp),%eax
    8753:	ba ff ff ff 7f       	mov    $0x7fffffff,%edx
    8758:	89 c1                	mov    %eax,%ecx
    875a:	d3 fa                	sar    %cl,%edx
    875c:	89 d0                	mov    %edx,%eax
    875e:	39 45 fc             	cmp    %eax,-0x4(%rbp)
    8761:	7f 0e                	jg     8771 <safe_lshift_func_int32_t_s_s+0x41>
    8763:	8b 45 f8             	mov    -0x8(%rbp),%eax
    8766:	8b 55 fc             	mov    -0x4(%rbp),%edx
    8769:	89 c1                	mov    %eax,%ecx
    876b:	d3 e2                	shl    %cl,%edx
    876d:	89 d0                	mov    %edx,%eax
    876f:	eb 03                	jmp    8774 <safe_lshift_func_int32_t_s_s+0x44>
    8771:	8b 45 fc             	mov    -0x4(%rbp),%eax
    8774:	5d                   	pop    %rbp
    8775:	c3                   	retq   

0000000000008776 <safe_lshift_func_int32_t_s_u>:
    8776:	f3 0f 1e fa          	endbr64 
    877a:	55                   	push   %rbp
    877b:	48 89 e5             	mov    %rsp,%rbp
    877e:	89 7d fc             	mov    %edi,-0x4(%rbp)
    8781:	89 75 f8             	mov    %esi,-0x8(%rbp)
    8784:	83 7d fc 00          	cmpl   $0x0,-0x4(%rbp)
    8788:	78 27                	js     87b1 <safe_lshift_func_int32_t_s_u+0x3b>
    878a:	83 7d f8 1f          	cmpl   $0x1f,-0x8(%rbp)
    878e:	77 21                	ja     87b1 <safe_lshift_func_int32_t_s_u+0x3b>
    8790:	8b 45 f8             	mov    -0x8(%rbp),%eax
    8793:	ba ff ff ff 7f       	mov    $0x7fffffff,%edx
    8798:	89 c1                	mov    %eax,%ecx
    879a:	d3 fa                	sar    %cl,%edx
    879c:	89 d0                	mov    %edx,%eax
    879e:	39 45 fc             	cmp    %eax,-0x4(%rbp)
    87a1:	7f 0e                	jg     87b1 <safe_lshift_func_int32_t_s_u+0x3b>
    87a3:	8b 45 f8             	mov    -0x8(%rbp),%eax
    87a6:	8b 55 fc             	mov    -0x4(%rbp),%edx
    87a9:	89 c1                	mov    %eax,%ecx
    87ab:	d3 e2                	shl    %cl,%edx
    87ad:	89 d0                	mov    %edx,%eax
    87af:	eb 03                	jmp    87b4 <safe_lshift_func_int32_t_s_u+0x3e>
    87b1:	8b 45 fc             	mov    -0x4(%rbp),%eax
    87b4:	5d                   	pop    %rbp
    87b5:	c3                   	retq   

00000000000087b6 <safe_rshift_func_int32_t_s_s>:
    87b6:	f3 0f 1e fa          	endbr64 
    87ba:	55                   	push   %rbp
    87bb:	48 89 e5             	mov    %rsp,%rbp
    87be:	89 7d fc             	mov    %edi,-0x4(%rbp)
    87c1:	89 75 f8             	mov    %esi,-0x8(%rbp)
    87c4:	83 7d fc 00          	cmpl   $0x0,-0x4(%rbp)
    87c8:	78 1a                	js     87e4 <safe_rshift_func_int32_t_s_s+0x2e>
    87ca:	83 7d f8 00          	cmpl   $0x0,-0x8(%rbp)
    87ce:	78 14                	js     87e4 <safe_rshift_func_int32_t_s_s+0x2e>
    87d0:	83 7d f8 1f          	cmpl   $0x1f,-0x8(%rbp)
    87d4:	7f 0e                	jg     87e4 <safe_rshift_func_int32_t_s_s+0x2e>
    87d6:	8b 45 f8             	mov    -0x8(%rbp),%eax
    87d9:	8b 55 fc             	mov    -0x4(%rbp),%edx
    87dc:	89 c1                	mov    %eax,%ecx
    87de:	d3 fa                	sar    %cl,%edx
    87e0:	89 d0                	mov    %edx,%eax
    87e2:	eb 03                	jmp    87e7 <safe_rshift_func_int32_t_s_s+0x31>
    87e4:	8b 45 fc             	mov    -0x4(%rbp),%eax
    87e7:	5d                   	pop    %rbp
    87e8:	c3                   	retq   

00000000000087e9 <safe_rshift_func_int32_t_s_u>:
    87e9:	f3 0f 1e fa          	endbr64 
    87ed:	55                   	push   %rbp
    87ee:	48 89 e5             	mov    %rsp,%rbp
    87f1:	89 7d fc             	mov    %edi,-0x4(%rbp)
    87f4:	89 75 f8             	mov    %esi,-0x8(%rbp)
    87f7:	83 7d fc 00          	cmpl   $0x0,-0x4(%rbp)
    87fb:	78 14                	js     8811 <safe_rshift_func_int32_t_s_u+0x28>
    87fd:	83 7d f8 1f          	cmpl   $0x1f,-0x8(%rbp)
    8801:	77 0e                	ja     8811 <safe_rshift_func_int32_t_s_u+0x28>
    8803:	8b 45 f8             	mov    -0x8(%rbp),%eax
    8806:	8b 55 fc             	mov    -0x4(%rbp),%edx
    8809:	89 c1                	mov    %eax,%ecx
    880b:	d3 fa                	sar    %cl,%edx
    880d:	89 d0                	mov    %edx,%eax
    880f:	eb 03                	jmp    8814 <safe_rshift_func_int32_t_s_u+0x2b>
    8811:	8b 45 fc             	mov    -0x4(%rbp),%eax
    8814:	5d                   	pop    %rbp
    8815:	c3                   	retq   

0000000000008816 <safe_unary_minus_func_int64_t_s>:
    8816:	f3 0f 1e fa          	endbr64 
    881a:	55                   	push   %rbp
    881b:	48 89 e5             	mov    %rsp,%rbp
    881e:	48 89 7d f8          	mov    %rdi,-0x8(%rbp)
    8822:	48 b8 00 00 00 00 00 	movabs $0x8000000000000000,%rax
    8829:	00 00 80 
    882c:	48 39 45 f8          	cmp    %rax,-0x8(%rbp)
    8830:	74 09                	je     883b <safe_unary_minus_func_int64_t_s+0x25>
    8832:	48 8b 45 f8          	mov    -0x8(%rbp),%rax
    8836:	48 f7 d8             	neg    %rax
    8839:	eb 04                	jmp    883f <safe_unary_minus_func_int64_t_s+0x29>
    883b:	48 8b 45 f8          	mov    -0x8(%rbp),%rax
    883f:	5d                   	pop    %rbp
    8840:	c3                   	retq   

0000000000008841 <safe_add_func_int64_t_s_s>:
    8841:	f3 0f 1e fa          	endbr64 
    8845:	55                   	push   %rbp
    8846:	48 89 e5             	mov    %rsp,%rbp
    8849:	48 89 7d f8          	mov    %rdi,-0x8(%rbp)
    884d:	48 89 75 f0          	mov    %rsi,-0x10(%rbp)
    8851:	48 83 7d f8 00       	cmpq   $0x0,-0x8(%rbp)
    8856:	7e 1b                	jle    8873 <safe_add_func_int64_t_s_s+0x32>
    8858:	48 83 7d f0 00       	cmpq   $0x0,-0x10(%rbp)
    885d:	7e 14                	jle    8873 <safe_add_func_int64_t_s_s+0x32>
    885f:	48 b8 ff ff ff ff ff 	movabs $0x7fffffffffffffff,%rax
    8866:	ff ff 7f 
    8869:	48 2b 45 f0          	sub    -0x10(%rbp),%rax
    886d:	48 39 45 f8          	cmp    %rax,-0x8(%rbp)
    8871:	7f 2f                	jg     88a2 <safe_add_func_int64_t_s_s+0x61>
    8873:	48 83 7d f8 00       	cmpq   $0x0,-0x8(%rbp)
    8878:	79 1b                	jns    8895 <safe_add_func_int64_t_s_s+0x54>
    887a:	48 83 7d f0 00       	cmpq   $0x0,-0x10(%rbp)
    887f:	79 14                	jns    8895 <safe_add_func_int64_t_s_s+0x54>
    8881:	48 b8 00 00 00 00 00 	movabs $0x8000000000000000,%rax
    8888:	00 00 80 
    888b:	48 2b 45 f0          	sub    -0x10(%rbp),%rax
    888f:	48 39 45 f8          	cmp    %rax,-0x8(%rbp)
    8893:	7c 0d                	jl     88a2 <safe_add_func_int64_t_s_s+0x61>
    8895:	48 8b 55 f8          	mov    -0x8(%rbp),%rdx
    8899:	48 8b 45 f0          	mov    -0x10(%rbp),%rax
    889d:	48 01 d0             	add    %rdx,%rax
    88a0:	eb 04                	jmp    88a6 <safe_add_func_int64_t_s_s+0x65>
    88a2:	48 8b 45 f8          	mov    -0x8(%rbp),%rax
    88a6:	5d                   	pop    %rbp
    88a7:	c3                   	retq   

00000000000088a8 <safe_sub_func_int64_t_s_s>:
    88a8:	f3 0f 1e fa          	endbr64 
    88ac:	55                   	push   %rbp
    88ad:	48 89 e5             	mov    %rsp,%rbp
    88b0:	48 89 7d f8          	mov    %rdi,-0x8(%rbp)
    88b4:	48 89 75 f0          	mov    %rsi,-0x10(%rbp)
    88b8:	48 8b 45 f8          	mov    -0x8(%rbp),%rax
    88bc:	48 33 45 f0          	xor    -0x10(%rbp),%rax
    88c0:	48 89 c2             	mov    %rax,%rdx
    88c3:	48 8b 45 f8          	mov    -0x8(%rbp),%rax
    88c7:	48 33 45 f0          	xor    -0x10(%rbp),%rax
    88cb:	48 b9 00 00 00 00 00 	movabs $0x8000000000000000,%rcx
    88d2:	00 00 80 
    88d5:	48 21 c8             	and    %rcx,%rax
    88d8:	48 33 45 f8          	xor    -0x8(%rbp),%rax
    88dc:	48 2b 45 f0          	sub    -0x10(%rbp),%rax
    88e0:	48 33 45 f0          	xor    -0x10(%rbp),%rax
    88e4:	48 21 d0             	and    %rdx,%rax
    88e7:	48 85 c0             	test   %rax,%rax
    88ea:	78 0a                	js     88f6 <safe_sub_func_int64_t_s_s+0x4e>
    88ec:	48 8b 45 f8          	mov    -0x8(%rbp),%rax
    88f0:	48 2b 45 f0          	sub    -0x10(%rbp),%rax
    88f4:	eb 04                	jmp    88fa <safe_sub_func_int64_t_s_s+0x52>
    88f6:	48 8b 45 f8          	mov    -0x8(%rbp),%rax
    88fa:	5d                   	pop    %rbp
    88fb:	c3                   	retq   

00000000000088fc <safe_mul_func_int64_t_s_s>:
    88fc:	f3 0f 1e fa          	endbr64 
    8900:	55                   	push   %rbp
    8901:	48 89 e5             	mov    %rsp,%rbp
    8904:	48 89 7d f8          	mov    %rdi,-0x8(%rbp)
    8908:	48 89 75 f0          	mov    %rsi,-0x10(%rbp)
    890c:	48 83 7d f8 00       	cmpq   $0x0,-0x8(%rbp)
    8911:	7e 1d                	jle    8930 <safe_mul_func_int64_t_s_s+0x34>
    8913:	48 83 7d f0 00       	cmpq   $0x0,-0x10(%rbp)
    8918:	7e 16                	jle    8930 <safe_mul_func_int64_t_s_s+0x34>
    891a:	48 b8 ff ff ff ff ff 	movabs $0x7fffffffffffffff,%rax
    8921:	ff ff 7f 
    8924:	48 99                	cqto   
    8926:	48 f7 7d f0          	idivq  -0x10(%rbp)
    892a:	48 39 45 f8          	cmp    %rax,-0x8(%rbp)
    892e:	7f 7e                	jg     89ae <safe_mul_func_int64_t_s_s+0xb2>
    8930:	48 83 7d f8 00       	cmpq   $0x0,-0x8(%rbp)
    8935:	7e 1d                	jle    8954 <safe_mul_func_int64_t_s_s+0x58>
    8937:	48 83 7d f0 00       	cmpq   $0x0,-0x10(%rbp)
    893c:	7f 16                	jg     8954 <safe_mul_func_int64_t_s_s+0x58>
    893e:	48 b8 00 00 00 00 00 	movabs $0x8000000000000000,%rax
    8945:	00 00 80 
    8948:	48 99                	cqto   
    894a:	48 f7 7d f8          	idivq  -0x8(%rbp)
    894e:	48 39 45 f0          	cmp    %rax,-0x10(%rbp)
    8952:	7c 5a                	jl     89ae <safe_mul_func_int64_t_s_s+0xb2>
    8954:	48 83 7d f8 00       	cmpq   $0x0,-0x8(%rbp)
    8959:	7f 1d                	jg     8978 <safe_mul_func_int64_t_s_s+0x7c>
    895b:	48 83 7d f0 00       	cmpq   $0x0,-0x10(%rbp)
    8960:	7e 16                	jle    8978 <safe_mul_func_int64_t_s_s+0x7c>
    8962:	48 b8 00 00 00 00 00 	movabs $0x8000000000000000,%rax
    8969:	00 00 80 
    896c:	48 99                	cqto   
    896e:	48 f7 7d f0          	idivq  -0x10(%rbp)
    8972:	48 39 45 f8          	cmp    %rax,-0x8(%rbp)
    8976:	7c 36                	jl     89ae <safe_mul_func_int64_t_s_s+0xb2>
    8978:	48 83 7d f8 00       	cmpq   $0x0,-0x8(%rbp)
    897d:	7f 24                	jg     89a3 <safe_mul_func_int64_t_s_s+0xa7>
    897f:	48 83 7d f0 00       	cmpq   $0x0,-0x10(%rbp)
    8984:	7f 1d                	jg     89a3 <safe_mul_func_int64_t_s_s+0xa7>
    8986:	48 83 7d f8 00       	cmpq   $0x0,-0x8(%rbp)
    898b:	74 16                	je     89a3 <safe_mul_func_int64_t_s_s+0xa7>
    898d:	48 b8 ff ff ff ff ff 	movabs $0x7fffffffffffffff,%rax
    8994:	ff ff 7f 
    8997:	48 99                	cqto   
    8999:	48 f7 7d f8          	idivq  -0x8(%rbp)
    899d:	48 39 45 f0          	cmp    %rax,-0x10(%rbp)
    89a1:	7c 0b                	jl     89ae <safe_mul_func_int64_t_s_s+0xb2>
    89a3:	48 8b 45 f8          	mov    -0x8(%rbp),%rax
    89a7:	48 0f af 45 f0       	imul   -0x10(%rbp),%rax
    89ac:	eb 04                	jmp    89b2 <safe_mul_func_int64_t_s_s+0xb6>
    89ae:	48 8b 45 f8          	mov    -0x8(%rbp),%rax
    89b2:	5d                   	pop    %rbp
    89b3:	c3                   	retq   

00000000000089b4 <safe_mod_func_int64_t_s_s>:
    89b4:	f3 0f 1e fa          	endbr64 
    89b8:	55                   	push   %rbp
    89b9:	48 89 e5             	mov    %rsp,%rbp
    89bc:	48 89 7d f8          	mov    %rdi,-0x8(%rbp)
    89c0:	48 89 75 f0          	mov    %rsi,-0x10(%rbp)
    89c4:	48 83 7d f0 00       	cmpq   $0x0,-0x10(%rbp)
    89c9:	74 26                	je     89f1 <safe_mod_func_int64_t_s_s+0x3d>
    89cb:	48 b8 00 00 00 00 00 	movabs $0x8000000000000000,%rax
    89d2:	00 00 80 
    89d5:	48 39 45 f8          	cmp    %rax,-0x8(%rbp)
    89d9:	75 07                	jne    89e2 <safe_mod_func_int64_t_s_s+0x2e>
    89db:	48 83 7d f0 ff       	cmpq   $0xffffffffffffffff,-0x10(%rbp)
    89e0:	74 0f                	je     89f1 <safe_mod_func_int64_t_s_s+0x3d>
    89e2:	48 8b 45 f8          	mov    -0x8(%rbp),%rax
    89e6:	48 99                	cqto   
    89e8:	48 f7 7d f0          	idivq  -0x10(%rbp)
    89ec:	48 89 d0             	mov    %rdx,%rax
    89ef:	eb 04                	jmp    89f5 <safe_mod_func_int64_t_s_s+0x41>
    89f1:	48 8b 45 f8          	mov    -0x8(%rbp),%rax
    89f5:	5d                   	pop    %rbp
    89f6:	c3                   	retq   

00000000000089f7 <safe_div_func_int64_t_s_s>:
    89f7:	f3 0f 1e fa          	endbr64 
    89fb:	55                   	push   %rbp
    89fc:	48 89 e5             	mov    %rsp,%rbp
    89ff:	48 89 7d f8          	mov    %rdi,-0x8(%rbp)
    8a03:	48 89 75 f0          	mov    %rsi,-0x10(%rbp)
    8a07:	48 83 7d f0 00       	cmpq   $0x0,-0x10(%rbp)
    8a0c:	74 23                	je     8a31 <safe_div_func_int64_t_s_s+0x3a>
    8a0e:	48 b8 00 00 00 00 00 	movabs $0x8000000000000000,%rax
    8a15:	00 00 80 
    8a18:	48 39 45 f8          	cmp    %rax,-0x8(%rbp)
    8a1c:	75 07                	jne    8a25 <safe_div_func_int64_t_s_s+0x2e>
    8a1e:	48 83 7d f0 ff       	cmpq   $0xffffffffffffffff,-0x10(%rbp)
    8a23:	74 0c                	je     8a31 <safe_div_func_int64_t_s_s+0x3a>
    8a25:	48 8b 45 f8          	mov    -0x8(%rbp),%rax
    8a29:	48 99                	cqto   
    8a2b:	48 f7 7d f0          	idivq  -0x10(%rbp)
    8a2f:	eb 04                	jmp    8a35 <safe_div_func_int64_t_s_s+0x3e>
    8a31:	48 8b 45 f8          	mov    -0x8(%rbp),%rax
    8a35:	5d                   	pop    %rbp
    8a36:	c3                   	retq   

0000000000008a37 <safe_lshift_func_int64_t_s_s>:
    8a37:	f3 0f 1e fa          	endbr64 
    8a3b:	55                   	push   %rbp
    8a3c:	48 89 e5             	mov    %rsp,%rbp
    8a3f:	48 89 7d f8          	mov    %rdi,-0x8(%rbp)
    8a43:	89 75 f4             	mov    %esi,-0xc(%rbp)
    8a46:	48 83 7d f8 00       	cmpq   $0x0,-0x8(%rbp)
    8a4b:	78 38                	js     8a85 <safe_lshift_func_int64_t_s_s+0x4e>
    8a4d:	83 7d f4 00          	cmpl   $0x0,-0xc(%rbp)
    8a51:	78 32                	js     8a85 <safe_lshift_func_int64_t_s_s+0x4e>
    8a53:	83 7d f4 1f          	cmpl   $0x1f,-0xc(%rbp)
    8a57:	7f 2c                	jg     8a85 <safe_lshift_func_int64_t_s_s+0x4e>
    8a59:	8b 45 f4             	mov    -0xc(%rbp),%eax
    8a5c:	48 ba ff ff ff ff ff 	movabs $0x7fffffffffffffff,%rdx
    8a63:	ff ff 7f 
    8a66:	89 c1                	mov    %eax,%ecx
    8a68:	48 d3 fa             	sar    %cl,%rdx
    8a6b:	48 89 d0             	mov    %rdx,%rax
    8a6e:	48 39 45 f8          	cmp    %rax,-0x8(%rbp)
    8a72:	7f 11                	jg     8a85 <safe_lshift_func_int64_t_s_s+0x4e>
    8a74:	8b 45 f4             	mov    -0xc(%rbp),%eax
    8a77:	48 8b 55 f8          	mov    -0x8(%rbp),%rdx
    8a7b:	89 c1                	mov    %eax,%ecx
    8a7d:	48 d3 e2             	shl    %cl,%rdx
    8a80:	48 89 d0             	mov    %rdx,%rax
    8a83:	eb 04                	jmp    8a89 <safe_lshift_func_int64_t_s_s+0x52>
    8a85:	48 8b 45 f8          	mov    -0x8(%rbp),%rax
    8a89:	5d                   	pop    %rbp
    8a8a:	c3                   	retq   

0000000000008a8b <safe_lshift_func_int64_t_s_u>:
    8a8b:	f3 0f 1e fa          	endbr64 
    8a8f:	55                   	push   %rbp
    8a90:	48 89 e5             	mov    %rsp,%rbp
    8a93:	48 89 7d f8          	mov    %rdi,-0x8(%rbp)
    8a97:	89 75 f4             	mov    %esi,-0xc(%rbp)
    8a9a:	48 83 7d f8 00       	cmpq   $0x0,-0x8(%rbp)
    8a9f:	78 32                	js     8ad3 <safe_lshift_func_int64_t_s_u+0x48>
    8aa1:	83 7d f4 1f          	cmpl   $0x1f,-0xc(%rbp)
    8aa5:	77 2c                	ja     8ad3 <safe_lshift_func_int64_t_s_u+0x48>
    8aa7:	8b 45 f4             	mov    -0xc(%rbp),%eax
    8aaa:	48 ba ff ff ff ff ff 	movabs $0x7fffffffffffffff,%rdx
    8ab1:	ff ff 7f 
    8ab4:	89 c1                	mov    %eax,%ecx
    8ab6:	48 d3 fa             	sar    %cl,%rdx
    8ab9:	48 89 d0             	mov    %rdx,%rax
    8abc:	48 39 45 f8          	cmp    %rax,-0x8(%rbp)
    8ac0:	7f 11                	jg     8ad3 <safe_lshift_func_int64_t_s_u+0x48>
    8ac2:	8b 45 f4             	mov    -0xc(%rbp),%eax
    8ac5:	48 8b 55 f8          	mov    -0x8(%rbp),%rdx
    8ac9:	89 c1                	mov    %eax,%ecx
    8acb:	48 d3 e2             	shl    %cl,%rdx
    8ace:	48 89 d0             	mov    %rdx,%rax
    8ad1:	eb 04                	jmp    8ad7 <safe_lshift_func_int64_t_s_u+0x4c>
    8ad3:	48 8b 45 f8          	mov    -0x8(%rbp),%rax
    8ad7:	5d                   	pop    %rbp
    8ad8:	c3                   	retq   

0000000000008ad9 <safe_rshift_func_int64_t_s_s>:
    8ad9:	f3 0f 1e fa          	endbr64 
    8add:	55                   	push   %rbp
    8ade:	48 89 e5             	mov    %rsp,%rbp
    8ae1:	48 89 7d f8          	mov    %rdi,-0x8(%rbp)
    8ae5:	89 75 f4             	mov    %esi,-0xc(%rbp)
    8ae8:	48 83 7d f8 00       	cmpq   $0x0,-0x8(%rbp)
    8aed:	78 1d                	js     8b0c <safe_rshift_func_int64_t_s_s+0x33>
    8aef:	83 7d f4 00          	cmpl   $0x0,-0xc(%rbp)
    8af3:	78 17                	js     8b0c <safe_rshift_func_int64_t_s_s+0x33>
    8af5:	83 7d f4 1f          	cmpl   $0x1f,-0xc(%rbp)
    8af9:	7f 11                	jg     8b0c <safe_rshift_func_int64_t_s_s+0x33>
    8afb:	8b 45 f4             	mov    -0xc(%rbp),%eax
    8afe:	48 8b 55 f8          	mov    -0x8(%rbp),%rdx
    8b02:	89 c1                	mov    %eax,%ecx
    8b04:	48 d3 fa             	sar    %cl,%rdx
    8b07:	48 89 d0             	mov    %rdx,%rax
    8b0a:	eb 04                	jmp    8b10 <safe_rshift_func_int64_t_s_s+0x37>
    8b0c:	48 8b 45 f8          	mov    -0x8(%rbp),%rax
    8b10:	5d                   	pop    %rbp
    8b11:	c3                   	retq   

0000000000008b12 <safe_rshift_func_int64_t_s_u>:
    8b12:	f3 0f 1e fa          	endbr64 
    8b16:	55                   	push   %rbp
    8b17:	48 89 e5             	mov    %rsp,%rbp
    8b1a:	48 89 7d f8          	mov    %rdi,-0x8(%rbp)
    8b1e:	89 75 f4             	mov    %esi,-0xc(%rbp)
    8b21:	48 83 7d f8 00       	cmpq   $0x0,-0x8(%rbp)
    8b26:	78 17                	js     8b3f <safe_rshift_func_int64_t_s_u+0x2d>
    8b28:	83 7d f4 1f          	cmpl   $0x1f,-0xc(%rbp)
    8b2c:	77 11                	ja     8b3f <safe_rshift_func_int64_t_s_u+0x2d>
    8b2e:	8b 45 f4             	mov    -0xc(%rbp),%eax
    8b31:	48 8b 55 f8          	mov    -0x8(%rbp),%rdx
    8b35:	89 c1                	mov    %eax,%ecx
    8b37:	48 d3 fa             	sar    %cl,%rdx
    8b3a:	48 89 d0             	mov    %rdx,%rax
    8b3d:	eb 04                	jmp    8b43 <safe_rshift_func_int64_t_s_u+0x31>
    8b3f:	48 8b 45 f8          	mov    -0x8(%rbp),%rax
    8b43:	5d                   	pop    %rbp
    8b44:	c3                   	retq   

0000000000008b45 <safe_unary_minus_func_uint8_t_u>:
    8b45:	f3 0f 1e fa          	endbr64 
    8b49:	55                   	push   %rbp
    8b4a:	48 89 e5             	mov    %rsp,%rbp
    8b4d:	89 f8                	mov    %edi,%eax
    8b4f:	88 45 fc             	mov    %al,-0x4(%rbp)
    8b52:	0f b6 45 fc          	movzbl -0x4(%rbp),%eax
    8b56:	f7 d8                	neg    %eax
    8b58:	5d                   	pop    %rbp
    8b59:	c3                   	retq   

0000000000008b5a <safe_add_func_uint8_t_u_u>:
    8b5a:	f3 0f 1e fa          	endbr64 
    8b5e:	55                   	push   %rbp
    8b5f:	48 89 e5             	mov    %rsp,%rbp
    8b62:	89 fa                	mov    %edi,%edx
    8b64:	89 f0                	mov    %esi,%eax
    8b66:	88 55 fc             	mov    %dl,-0x4(%rbp)
    8b69:	88 45 f8             	mov    %al,-0x8(%rbp)
    8b6c:	0f b6 55 fc          	movzbl -0x4(%rbp),%edx
    8b70:	0f b6 45 f8          	movzbl -0x8(%rbp),%eax
    8b74:	01 d0                	add    %edx,%eax
    8b76:	5d                   	pop    %rbp
    8b77:	c3                   	retq   

0000000000008b78 <safe_sub_func_uint8_t_u_u>:
    8b78:	f3 0f 1e fa          	endbr64 
    8b7c:	55                   	push   %rbp
    8b7d:	48 89 e5             	mov    %rsp,%rbp
    8b80:	89 fa                	mov    %edi,%edx
    8b82:	89 f0                	mov    %esi,%eax
    8b84:	88 55 fc             	mov    %dl,-0x4(%rbp)
    8b87:	88 45 f8             	mov    %al,-0x8(%rbp)
    8b8a:	0f b6 45 fc          	movzbl -0x4(%rbp),%eax
    8b8e:	2a 45 f8             	sub    -0x8(%rbp),%al
    8b91:	5d                   	pop    %rbp
    8b92:	c3                   	retq   

0000000000008b93 <safe_mul_func_uint8_t_u_u>:
    8b93:	f3 0f 1e fa          	endbr64 
    8b97:	55                   	push   %rbp
    8b98:	48 89 e5             	mov    %rsp,%rbp
    8b9b:	89 fa                	mov    %edi,%edx
    8b9d:	89 f0                	mov    %esi,%eax
    8b9f:	88 55 fc             	mov    %dl,-0x4(%rbp)
    8ba2:	88 45 f8             	mov    %al,-0x8(%rbp)
    8ba5:	0f b6 45 fc          	movzbl -0x4(%rbp),%eax
    8ba9:	f6 65 f8             	mulb   -0x8(%rbp)
    8bac:	5d                   	pop    %rbp
    8bad:	c3                   	retq   

0000000000008bae <safe_mod_func_uint8_t_u_u>:
    8bae:	f3 0f 1e fa          	endbr64 
    8bb2:	55                   	push   %rbp
    8bb3:	48 89 e5             	mov    %rsp,%rbp
    8bb6:	89 fa                	mov    %edi,%edx
    8bb8:	89 f0                	mov    %esi,%eax
    8bba:	88 55 fc             	mov    %dl,-0x4(%rbp)
    8bbd:	88 45 f8             	mov    %al,-0x8(%rbp)
    8bc0:	80 7d f8 00          	cmpb   $0x0,-0x8(%rbp)
    8bc4:	74 0f                	je     8bd5 <safe_mod_func_uint8_t_u_u+0x27>
    8bc6:	0f b6 45 fc          	movzbl -0x4(%rbp),%eax
    8bca:	0f b6 c0             	movzbl %al,%eax
    8bcd:	f6 75 f8             	divb   -0x8(%rbp)
    8bd0:	0f b6 c4             	movzbl %ah,%eax
    8bd3:	eb 04                	jmp    8bd9 <safe_mod_func_uint8_t_u_u+0x2b>
    8bd5:	0f b6 45 fc          	movzbl -0x4(%rbp),%eax
    8bd9:	5d                   	pop    %rbp
    8bda:	c3                   	retq   

0000000000008bdb <safe_div_func_uint8_t_u_u>:
    8bdb:	f3 0f 1e fa          	endbr64 
    8bdf:	55                   	push   %rbp
    8be0:	48 89 e5             	mov    %rsp,%rbp
    8be3:	89 fa                	mov    %edi,%edx
    8be5:	89 f0                	mov    %esi,%eax
    8be7:	88 55 fc             	mov    %dl,-0x4(%rbp)
    8bea:	88 45 f8             	mov    %al,-0x8(%rbp)
    8bed:	80 7d f8 00          	cmpb   $0x0,-0x8(%rbp)
    8bf1:	74 0c                	je     8bff <safe_div_func_uint8_t_u_u+0x24>
    8bf3:	0f b6 45 fc          	movzbl -0x4(%rbp),%eax
    8bf7:	0f b6 c0             	movzbl %al,%eax
    8bfa:	f6 75 f8             	divb   -0x8(%rbp)
    8bfd:	eb 04                	jmp    8c03 <safe_div_func_uint8_t_u_u+0x28>
    8bff:	0f b6 45 fc          	movzbl -0x4(%rbp),%eax
    8c03:	5d                   	pop    %rbp
    8c04:	c3                   	retq   

0000000000008c05 <safe_lshift_func_uint8_t_u_s>:
    8c05:	f3 0f 1e fa          	endbr64 
    8c09:	55                   	push   %rbp
    8c0a:	48 89 e5             	mov    %rsp,%rbp
    8c0d:	89 f8                	mov    %edi,%eax
    8c0f:	89 75 f8             	mov    %esi,-0x8(%rbp)
    8c12:	88 45 fc             	mov    %al,-0x4(%rbp)
    8c15:	83 7d f8 00          	cmpl   $0x0,-0x8(%rbp)
    8c19:	78 2b                	js     8c46 <safe_lshift_func_uint8_t_u_s+0x41>
    8c1b:	83 7d f8 1f          	cmpl   $0x1f,-0x8(%rbp)
    8c1f:	7f 25                	jg     8c46 <safe_lshift_func_uint8_t_u_s+0x41>
    8c21:	0f b6 55 fc          	movzbl -0x4(%rbp),%edx
    8c25:	8b 45 f8             	mov    -0x8(%rbp),%eax
    8c28:	be ff 00 00 00       	mov    $0xff,%esi
    8c2d:	89 c1                	mov    %eax,%ecx
    8c2f:	d3 fe                	sar    %cl,%esi
    8c31:	89 f0                	mov    %esi,%eax
    8c33:	39 c2                	cmp    %eax,%edx
    8c35:	7f 0f                	jg     8c46 <safe_lshift_func_uint8_t_u_s+0x41>
    8c37:	0f b6 55 fc          	movzbl -0x4(%rbp),%edx
    8c3b:	8b 45 f8             	mov    -0x8(%rbp),%eax
    8c3e:	89 c1                	mov    %eax,%ecx
    8c40:	d3 e2                	shl    %cl,%edx
    8c42:	89 d0                	mov    %edx,%eax
    8c44:	eb 04                	jmp    8c4a <safe_lshift_func_uint8_t_u_s+0x45>
    8c46:	0f b6 45 fc          	movzbl -0x4(%rbp),%eax
    8c4a:	5d                   	pop    %rbp
    8c4b:	c3                   	retq   

0000000000008c4c <safe_lshift_func_uint8_t_u_u>:
    8c4c:	f3 0f 1e fa          	endbr64 
    8c50:	55                   	push   %rbp
    8c51:	48 89 e5             	mov    %rsp,%rbp
    8c54:	89 f8                	mov    %edi,%eax
    8c56:	89 75 f8             	mov    %esi,-0x8(%rbp)
    8c59:	88 45 fc             	mov    %al,-0x4(%rbp)
    8c5c:	83 7d f8 1f          	cmpl   $0x1f,-0x8(%rbp)
    8c60:	77 25                	ja     8c87 <safe_lshift_func_uint8_t_u_u+0x3b>
    8c62:	0f b6 55 fc          	movzbl -0x4(%rbp),%edx
    8c66:	8b 45 f8             	mov    -0x8(%rbp),%eax
    8c69:	be ff 00 00 00       	mov    $0xff,%esi
    8c6e:	89 c1                	mov    %eax,%ecx
    8c70:	d3 fe                	sar    %cl,%esi
    8c72:	89 f0                	mov    %esi,%eax
    8c74:	39 c2                	cmp    %eax,%edx
    8c76:	7f 0f                	jg     8c87 <safe_lshift_func_uint8_t_u_u+0x3b>
    8c78:	0f b6 55 fc          	movzbl -0x4(%rbp),%edx
    8c7c:	8b 45 f8             	mov    -0x8(%rbp),%eax
    8c7f:	89 c1                	mov    %eax,%ecx
    8c81:	d3 e2                	shl    %cl,%edx
    8c83:	89 d0                	mov    %edx,%eax
    8c85:	eb 04                	jmp    8c8b <safe_lshift_func_uint8_t_u_u+0x3f>
    8c87:	0f b6 45 fc          	movzbl -0x4(%rbp),%eax
    8c8b:	5d                   	pop    %rbp
    8c8c:	c3                   	retq   

0000000000008c8d <safe_rshift_func_uint8_t_u_s>:
    8c8d:	f3 0f 1e fa          	endbr64 
    8c91:	55                   	push   %rbp
    8c92:	48 89 e5             	mov    %rsp,%rbp
    8c95:	89 f8                	mov    %edi,%eax
    8c97:	89 75 f8             	mov    %esi,-0x8(%rbp)
    8c9a:	88 45 fc             	mov    %al,-0x4(%rbp)
    8c9d:	83 7d f8 00          	cmpl   $0x0,-0x8(%rbp)
    8ca1:	78 15                	js     8cb8 <safe_rshift_func_uint8_t_u_s+0x2b>
    8ca3:	83 7d f8 1f          	cmpl   $0x1f,-0x8(%rbp)
    8ca7:	7f 0f                	jg     8cb8 <safe_rshift_func_uint8_t_u_s+0x2b>
    8ca9:	0f b6 55 fc          	movzbl -0x4(%rbp),%edx
    8cad:	8b 45 f8             	mov    -0x8(%rbp),%eax
    8cb0:	89 c1                	mov    %eax,%ecx
    8cb2:	d3 fa                	sar    %cl,%edx
    8cb4:	89 d0                	mov    %edx,%eax
    8cb6:	eb 04                	jmp    8cbc <safe_rshift_func_uint8_t_u_s+0x2f>
    8cb8:	0f b6 45 fc          	movzbl -0x4(%rbp),%eax
    8cbc:	5d                   	pop    %rbp
    8cbd:	c3                   	retq   

0000000000008cbe <safe_rshift_func_uint8_t_u_u>:
    8cbe:	f3 0f 1e fa          	endbr64 
    8cc2:	55                   	push   %rbp
    8cc3:	48 89 e5             	mov    %rsp,%rbp
    8cc6:	89 f8                	mov    %edi,%eax
    8cc8:	89 75 f8             	mov    %esi,-0x8(%rbp)
    8ccb:	88 45 fc             	mov    %al,-0x4(%rbp)
    8cce:	83 7d f8 1f          	cmpl   $0x1f,-0x8(%rbp)
    8cd2:	77 0f                	ja     8ce3 <safe_rshift_func_uint8_t_u_u+0x25>
    8cd4:	0f b6 55 fc          	movzbl -0x4(%rbp),%edx
    8cd8:	8b 45 f8             	mov    -0x8(%rbp),%eax
    8cdb:	89 c1                	mov    %eax,%ecx
    8cdd:	d3 fa                	sar    %cl,%edx
    8cdf:	89 d0                	mov    %edx,%eax
    8ce1:	eb 04                	jmp    8ce7 <safe_rshift_func_uint8_t_u_u+0x29>
    8ce3:	0f b6 45 fc          	movzbl -0x4(%rbp),%eax
    8ce7:	5d                   	pop    %rbp
    8ce8:	c3                   	retq   

0000000000008ce9 <safe_unary_minus_func_uint16_t_u>:
    8ce9:	f3 0f 1e fa          	endbr64 
    8ced:	55                   	push   %rbp
    8cee:	48 89 e5             	mov    %rsp,%rbp
    8cf1:	89 f8                	mov    %edi,%eax
    8cf3:	66 89 45 fc          	mov    %ax,-0x4(%rbp)
    8cf7:	0f b7 45 fc          	movzwl -0x4(%rbp),%eax
    8cfb:	f7 d8                	neg    %eax
    8cfd:	5d                   	pop    %rbp
    8cfe:	c3                   	retq   

0000000000008cff <safe_add_func_uint16_t_u_u>:
    8cff:	f3 0f 1e fa          	endbr64 
    8d03:	55                   	push   %rbp
    8d04:	48 89 e5             	mov    %rsp,%rbp
    8d07:	89 fa                	mov    %edi,%edx
    8d09:	89 f0                	mov    %esi,%eax
    8d0b:	66 89 55 fc          	mov    %dx,-0x4(%rbp)
    8d0f:	66 89 45 f8          	mov    %ax,-0x8(%rbp)
    8d13:	0f b7 55 fc          	movzwl -0x4(%rbp),%edx
    8d17:	0f b7 45 f8          	movzwl -0x8(%rbp),%eax
    8d1b:	01 d0                	add    %edx,%eax
    8d1d:	5d                   	pop    %rbp
    8d1e:	c3                   	retq   

0000000000008d1f <safe_sub_func_uint16_t_u_u>:
    8d1f:	f3 0f 1e fa          	endbr64 
    8d23:	55                   	push   %rbp
    8d24:	48 89 e5             	mov    %rsp,%rbp
    8d27:	89 fa                	mov    %edi,%edx
    8d29:	89 f0                	mov    %esi,%eax
    8d2b:	66 89 55 fc          	mov    %dx,-0x4(%rbp)
    8d2f:	66 89 45 f8          	mov    %ax,-0x8(%rbp)
    8d33:	0f b7 45 fc          	movzwl -0x4(%rbp),%eax
    8d37:	66 2b 45 f8          	sub    -0x8(%rbp),%ax
    8d3b:	5d                   	pop    %rbp
    8d3c:	c3                   	retq   

0000000000008d3d <safe_mul_func_uint16_t_u_u>:
    8d3d:	f3 0f 1e fa          	endbr64 
    8d41:	55                   	push   %rbp
    8d42:	48 89 e5             	mov    %rsp,%rbp
    8d45:	89 fa                	mov    %edi,%edx
    8d47:	89 f0                	mov    %esi,%eax
    8d49:	66 89 55 fc          	mov    %dx,-0x4(%rbp)
    8d4d:	66 89 45 f8          	mov    %ax,-0x8(%rbp)
    8d51:	0f b7 45 fc          	movzwl -0x4(%rbp),%eax
    8d55:	66 0f af 45 f8       	imul   -0x8(%rbp),%ax
    8d5a:	5d                   	pop    %rbp
    8d5b:	c3                   	retq   

0000000000008d5c <safe_mod_func_uint16_t_u_u>:
    8d5c:	f3 0f 1e fa          	endbr64 
    8d60:	55                   	push   %rbp
    8d61:	48 89 e5             	mov    %rsp,%rbp
    8d64:	89 fa                	mov    %edi,%edx
    8d66:	89 f0                	mov    %esi,%eax
    8d68:	66 89 55 fc          	mov    %dx,-0x4(%rbp)
    8d6c:	66 89 45 f8          	mov    %ax,-0x8(%rbp)
    8d70:	66 83 7d f8 00       	cmpw   $0x0,-0x8(%rbp)
    8d75:	74 11                	je     8d88 <safe_mod_func_uint16_t_u_u+0x2c>
    8d77:	0f b7 45 fc          	movzwl -0x4(%rbp),%eax
    8d7b:	ba 00 00 00 00       	mov    $0x0,%edx
    8d80:	66 f7 75 f8          	divw   -0x8(%rbp)
    8d84:	89 d0                	mov    %edx,%eax
    8d86:	eb 04                	jmp    8d8c <safe_mod_func_uint16_t_u_u+0x30>
    8d88:	0f b7 45 fc          	movzwl -0x4(%rbp),%eax
    8d8c:	5d                   	pop    %rbp
    8d8d:	c3                   	retq   

0000000000008d8e <safe_div_func_uint16_t_u_u>:
    8d8e:	f3 0f 1e fa          	endbr64 
    8d92:	55                   	push   %rbp
    8d93:	48 89 e5             	mov    %rsp,%rbp
    8d96:	89 fa                	mov    %edi,%edx
    8d98:	89 f0                	mov    %esi,%eax
    8d9a:	66 89 55 fc          	mov    %dx,-0x4(%rbp)
    8d9e:	66 89 45 f8          	mov    %ax,-0x8(%rbp)
    8da2:	66 83 7d f8 00       	cmpw   $0x0,-0x8(%rbp)
    8da7:	74 0f                	je     8db8 <safe_div_func_uint16_t_u_u+0x2a>
    8da9:	0f b7 45 fc          	movzwl -0x4(%rbp),%eax
    8dad:	ba 00 00 00 00       	mov    $0x0,%edx
    8db2:	66 f7 75 f8          	divw   -0x8(%rbp)
    8db6:	eb 04                	jmp    8dbc <safe_div_func_uint16_t_u_u+0x2e>
    8db8:	0f b7 45 fc          	movzwl -0x4(%rbp),%eax
    8dbc:	5d                   	pop    %rbp
    8dbd:	c3                   	retq   

0000000000008dbe <safe_lshift_func_uint16_t_u_s>:
    8dbe:	f3 0f 1e fa          	endbr64 
    8dc2:	55                   	push   %rbp
    8dc3:	48 89 e5             	mov    %rsp,%rbp
    8dc6:	89 f8                	mov    %edi,%eax
    8dc8:	89 75 f8             	mov    %esi,-0x8(%rbp)
    8dcb:	66 89 45 fc          	mov    %ax,-0x4(%rbp)
    8dcf:	83 7d f8 00          	cmpl   $0x0,-0x8(%rbp)
    8dd3:	78 2b                	js     8e00 <safe_lshift_func_uint16_t_u_s+0x42>
    8dd5:	83 7d f8 1f          	cmpl   $0x1f,-0x8(%rbp)
    8dd9:	7f 25                	jg     8e00 <safe_lshift_func_uint16_t_u_s+0x42>
    8ddb:	0f b7 55 fc          	movzwl -0x4(%rbp),%edx
    8ddf:	8b 45 f8             	mov    -0x8(%rbp),%eax
    8de2:	be ff ff 00 00       	mov    $0xffff,%esi
    8de7:	89 c1                	mov    %eax,%ecx
    8de9:	d3 fe                	sar    %cl,%esi
    8deb:	89 f0                	mov    %esi,%eax
    8ded:	39 c2                	cmp    %eax,%edx
    8def:	7f 0f                	jg     8e00 <safe_lshift_func_uint16_t_u_s+0x42>
    8df1:	0f b7 55 fc          	movzwl -0x4(%rbp),%edx
    8df5:	8b 45 f8             	mov    -0x8(%rbp),%eax
    8df8:	89 c1                	mov    %eax,%ecx
    8dfa:	d3 e2                	shl    %cl,%edx
    8dfc:	89 d0                	mov    %edx,%eax
    8dfe:	eb 04                	jmp    8e04 <safe_lshift_func_uint16_t_u_s+0x46>
    8e00:	0f b7 45 fc          	movzwl -0x4(%rbp),%eax
    8e04:	5d                   	pop    %rbp
    8e05:	c3                   	retq   

0000000000008e06 <safe_lshift_func_uint16_t_u_u>:
    8e06:	f3 0f 1e fa          	endbr64 
    8e0a:	55                   	push   %rbp
    8e0b:	48 89 e5             	mov    %rsp,%rbp
    8e0e:	89 f8                	mov    %edi,%eax
    8e10:	89 75 f8             	mov    %esi,-0x8(%rbp)
    8e13:	66 89 45 fc          	mov    %ax,-0x4(%rbp)
    8e17:	83 7d f8 1f          	cmpl   $0x1f,-0x8(%rbp)
    8e1b:	77 25                	ja     8e42 <safe_lshift_func_uint16_t_u_u+0x3c>
    8e1d:	0f b7 55 fc          	movzwl -0x4(%rbp),%edx
    8e21:	8b 45 f8             	mov    -0x8(%rbp),%eax
    8e24:	be ff ff 00 00       	mov    $0xffff,%esi
    8e29:	89 c1                	mov    %eax,%ecx
    8e2b:	d3 fe                	sar    %cl,%esi
    8e2d:	89 f0                	mov    %esi,%eax
    8e2f:	39 c2                	cmp    %eax,%edx
    8e31:	7f 0f                	jg     8e42 <safe_lshift_func_uint16_t_u_u+0x3c>
    8e33:	0f b7 55 fc          	movzwl -0x4(%rbp),%edx
    8e37:	8b 45 f8             	mov    -0x8(%rbp),%eax
    8e3a:	89 c1                	mov    %eax,%ecx
    8e3c:	d3 e2                	shl    %cl,%edx
    8e3e:	89 d0                	mov    %edx,%eax
    8e40:	eb 04                	jmp    8e46 <safe_lshift_func_uint16_t_u_u+0x40>
    8e42:	0f b7 45 fc          	movzwl -0x4(%rbp),%eax
    8e46:	5d                   	pop    %rbp
    8e47:	c3                   	retq   

0000000000008e48 <safe_rshift_func_uint16_t_u_s>:
    8e48:	f3 0f 1e fa          	endbr64 
    8e4c:	55                   	push   %rbp
    8e4d:	48 89 e5             	mov    %rsp,%rbp
    8e50:	89 f8                	mov    %edi,%eax
    8e52:	89 75 f8             	mov    %esi,-0x8(%rbp)
    8e55:	66 89 45 fc          	mov    %ax,-0x4(%rbp)
    8e59:	83 7d f8 00          	cmpl   $0x0,-0x8(%rbp)
    8e5d:	78 15                	js     8e74 <safe_rshift_func_uint16_t_u_s+0x2c>
    8e5f:	83 7d f8 1f          	cmpl   $0x1f,-0x8(%rbp)
    8e63:	7f 0f                	jg     8e74 <safe_rshift_func_uint16_t_u_s+0x2c>
    8e65:	0f b7 55 fc          	movzwl -0x4(%rbp),%edx
    8e69:	8b 45 f8             	mov    -0x8(%rbp),%eax
    8e6c:	89 c1                	mov    %eax,%ecx
    8e6e:	d3 fa                	sar    %cl,%edx
    8e70:	89 d0                	mov    %edx,%eax
    8e72:	eb 04                	jmp    8e78 <safe_rshift_func_uint16_t_u_s+0x30>
    8e74:	0f b7 45 fc          	movzwl -0x4(%rbp),%eax
    8e78:	5d                   	pop    %rbp
    8e79:	c3                   	retq   

0000000000008e7a <safe_rshift_func_uint16_t_u_u>:
    8e7a:	f3 0f 1e fa          	endbr64 
    8e7e:	55                   	push   %rbp
    8e7f:	48 89 e5             	mov    %rsp,%rbp
    8e82:	89 f8                	mov    %edi,%eax
    8e84:	89 75 f8             	mov    %esi,-0x8(%rbp)
    8e87:	66 89 45 fc          	mov    %ax,-0x4(%rbp)
    8e8b:	83 7d f8 1f          	cmpl   $0x1f,-0x8(%rbp)
    8e8f:	77 0f                	ja     8ea0 <safe_rshift_func_uint16_t_u_u+0x26>
    8e91:	0f b7 55 fc          	movzwl -0x4(%rbp),%edx
    8e95:	8b 45 f8             	mov    -0x8(%rbp),%eax
    8e98:	89 c1                	mov    %eax,%ecx
    8e9a:	d3 fa                	sar    %cl,%edx
    8e9c:	89 d0                	mov    %edx,%eax
    8e9e:	eb 04                	jmp    8ea4 <safe_rshift_func_uint16_t_u_u+0x2a>
    8ea0:	0f b7 45 fc          	movzwl -0x4(%rbp),%eax
    8ea4:	5d                   	pop    %rbp
    8ea5:	c3                   	retq   

0000000000008ea6 <safe_unary_minus_func_uint32_t_u>:
    8ea6:	f3 0f 1e fa          	endbr64 
    8eaa:	55                   	push   %rbp
    8eab:	48 89 e5             	mov    %rsp,%rbp
    8eae:	89 7d fc             	mov    %edi,-0x4(%rbp)
    8eb1:	8b 45 fc             	mov    -0x4(%rbp),%eax
    8eb4:	f7 d8                	neg    %eax
    8eb6:	5d                   	pop    %rbp
    8eb7:	c3                   	retq   

0000000000008eb8 <safe_add_func_uint32_t_u_u>:
    8eb8:	f3 0f 1e fa          	endbr64 
    8ebc:	55                   	push   %rbp
    8ebd:	48 89 e5             	mov    %rsp,%rbp
    8ec0:	89 7d fc             	mov    %edi,-0x4(%rbp)
    8ec3:	89 75 f8             	mov    %esi,-0x8(%rbp)
    8ec6:	8b 55 fc             	mov    -0x4(%rbp),%edx
    8ec9:	8b 45 f8             	mov    -0x8(%rbp),%eax
    8ecc:	01 d0                	add    %edx,%eax
    8ece:	5d                   	pop    %rbp
    8ecf:	c3                   	retq   

0000000000008ed0 <safe_sub_func_uint32_t_u_u>:
    8ed0:	f3 0f 1e fa          	endbr64 
    8ed4:	55                   	push   %rbp
    8ed5:	48 89 e5             	mov    %rsp,%rbp
    8ed8:	89 7d fc             	mov    %edi,-0x4(%rbp)
    8edb:	89 75 f8             	mov    %esi,-0x8(%rbp)
    8ede:	8b 45 fc             	mov    -0x4(%rbp),%eax
    8ee1:	2b 45 f8             	sub    -0x8(%rbp),%eax
    8ee4:	5d                   	pop    %rbp
    8ee5:	c3                   	retq   

0000000000008ee6 <safe_mul_func_uint32_t_u_u>:
    8ee6:	f3 0f 1e fa          	endbr64 
    8eea:	55                   	push   %rbp
    8eeb:	48 89 e5             	mov    %rsp,%rbp
    8eee:	89 7d fc             	mov    %edi,-0x4(%rbp)
    8ef1:	89 75 f8             	mov    %esi,-0x8(%rbp)
    8ef4:	8b 45 fc             	mov    -0x4(%rbp),%eax
    8ef7:	0f af 45 f8          	imul   -0x8(%rbp),%eax
    8efb:	5d                   	pop    %rbp
    8efc:	c3                   	retq   

0000000000008efd <safe_mod_func_uint32_t_u_u>:
    8efd:	f3 0f 1e fa          	endbr64 
    8f01:	55                   	push   %rbp
    8f02:	48 89 e5             	mov    %rsp,%rbp
    8f05:	89 7d fc             	mov    %edi,-0x4(%rbp)
    8f08:	89 75 f8             	mov    %esi,-0x8(%rbp)
    8f0b:	83 7d f8 00          	cmpl   $0x0,-0x8(%rbp)
    8f0f:	74 0f                	je     8f20 <safe_mod_func_uint32_t_u_u+0x23>
    8f11:	8b 45 fc             	mov    -0x4(%rbp),%eax
    8f14:	ba 00 00 00 00       	mov    $0x0,%edx
    8f19:	f7 75 f8             	divl   -0x8(%rbp)
    8f1c:	89 d0                	mov    %edx,%eax
    8f1e:	eb 03                	jmp    8f23 <safe_mod_func_uint32_t_u_u+0x26>
    8f20:	8b 45 fc             	mov    -0x4(%rbp),%eax
    8f23:	5d                   	pop    %rbp
    8f24:	c3                   	retq   

0000000000008f25 <safe_div_func_uint32_t_u_u>:
    8f25:	f3 0f 1e fa          	endbr64 
    8f29:	55                   	push   %rbp
    8f2a:	48 89 e5             	mov    %rsp,%rbp
    8f2d:	89 7d fc             	mov    %edi,-0x4(%rbp)
    8f30:	89 75 f8             	mov    %esi,-0x8(%rbp)
    8f33:	83 7d f8 00          	cmpl   $0x0,-0x8(%rbp)
    8f37:	74 0d                	je     8f46 <safe_div_func_uint32_t_u_u+0x21>
    8f39:	8b 45 fc             	mov    -0x4(%rbp),%eax
    8f3c:	ba 00 00 00 00       	mov    $0x0,%edx
    8f41:	f7 75 f8             	divl   -0x8(%rbp)
    8f44:	eb 03                	jmp    8f49 <safe_div_func_uint32_t_u_u+0x24>
    8f46:	8b 45 fc             	mov    -0x4(%rbp),%eax
    8f49:	5d                   	pop    %rbp
    8f4a:	c3                   	retq   

0000000000008f4b <safe_lshift_func_uint32_t_u_s>:
    8f4b:	f3 0f 1e fa          	endbr64 
    8f4f:	55                   	push   %rbp
    8f50:	48 89 e5             	mov    %rsp,%rbp
    8f53:	89 7d fc             	mov    %edi,-0x4(%rbp)
    8f56:	89 75 f8             	mov    %esi,-0x8(%rbp)
    8f59:	83 7d f8 00          	cmpl   $0x0,-0x8(%rbp)
    8f5d:	78 27                	js     8f86 <safe_lshift_func_uint32_t_u_s+0x3b>
    8f5f:	83 7d f8 1f          	cmpl   $0x1f,-0x8(%rbp)
    8f63:	7f 21                	jg     8f86 <safe_lshift_func_uint32_t_u_s+0x3b>
    8f65:	8b 45 f8             	mov    -0x8(%rbp),%eax
    8f68:	ba ff ff ff ff       	mov    $0xffffffff,%edx
    8f6d:	89 c1                	mov    %eax,%ecx
    8f6f:	d3 ea                	shr    %cl,%edx
    8f71:	89 d0                	mov    %edx,%eax
    8f73:	39 45 fc             	cmp    %eax,-0x4(%rbp)
    8f76:	77 0e                	ja     8f86 <safe_lshift_func_uint32_t_u_s+0x3b>
    8f78:	8b 45 f8             	mov    -0x8(%rbp),%eax
    8f7b:	8b 55 fc             	mov    -0x4(%rbp),%edx
    8f7e:	89 c1                	mov    %eax,%ecx
    8f80:	d3 e2                	shl    %cl,%edx
    8f82:	89 d0                	mov    %edx,%eax
    8f84:	eb 03                	jmp    8f89 <safe_lshift_func_uint32_t_u_s+0x3e>
    8f86:	8b 45 fc             	mov    -0x4(%rbp),%eax
    8f89:	5d                   	pop    %rbp
    8f8a:	c3                   	retq   

0000000000008f8b <safe_lshift_func_uint32_t_u_u>:
    8f8b:	f3 0f 1e fa          	endbr64 
    8f8f:	55                   	push   %rbp
    8f90:	48 89 e5             	mov    %rsp,%rbp
    8f93:	89 7d fc             	mov    %edi,-0x4(%rbp)
    8f96:	89 75 f8             	mov    %esi,-0x8(%rbp)
    8f99:	83 7d f8 1f          	cmpl   $0x1f,-0x8(%rbp)
    8f9d:	77 21                	ja     8fc0 <safe_lshift_func_uint32_t_u_u+0x35>
    8f9f:	8b 45 f8             	mov    -0x8(%rbp),%eax
    8fa2:	ba ff ff ff ff       	mov    $0xffffffff,%edx
    8fa7:	89 c1                	mov    %eax,%ecx
    8fa9:	d3 ea                	shr    %cl,%edx
    8fab:	89 d0                	mov    %edx,%eax
    8fad:	39 45 fc             	cmp    %eax,-0x4(%rbp)
    8fb0:	77 0e                	ja     8fc0 <safe_lshift_func_uint32_t_u_u+0x35>
    8fb2:	8b 45 f8             	mov    -0x8(%rbp),%eax
    8fb5:	8b 55 fc             	mov    -0x4(%rbp),%edx
    8fb8:	89 c1                	mov    %eax,%ecx
    8fba:	d3 e2                	shl    %cl,%edx
    8fbc:	89 d0                	mov    %edx,%eax
    8fbe:	eb 03                	jmp    8fc3 <safe_lshift_func_uint32_t_u_u+0x38>
    8fc0:	8b 45 fc             	mov    -0x4(%rbp),%eax
    8fc3:	5d                   	pop    %rbp
    8fc4:	c3                   	retq   

0000000000008fc5 <safe_rshift_func_uint32_t_u_s>:
    8fc5:	f3 0f 1e fa          	endbr64 
    8fc9:	55                   	push   %rbp
    8fca:	48 89 e5             	mov    %rsp,%rbp
    8fcd:	89 7d fc             	mov    %edi,-0x4(%rbp)
    8fd0:	89 75 f8             	mov    %esi,-0x8(%rbp)
    8fd3:	83 7d f8 00          	cmpl   $0x0,-0x8(%rbp)
    8fd7:	78 14                	js     8fed <safe_rshift_func_uint32_t_u_s+0x28>
    8fd9:	83 7d f8 1f          	cmpl   $0x1f,-0x8(%rbp)
    8fdd:	7f 0e                	jg     8fed <safe_rshift_func_uint32_t_u_s+0x28>
    8fdf:	8b 45 f8             	mov    -0x8(%rbp),%eax
    8fe2:	8b 55 fc             	mov    -0x4(%rbp),%edx
    8fe5:	89 c1                	mov    %eax,%ecx
    8fe7:	d3 ea                	shr    %cl,%edx
    8fe9:	89 d0                	mov    %edx,%eax
    8feb:	eb 03                	jmp    8ff0 <safe_rshift_func_uint32_t_u_s+0x2b>
    8fed:	8b 45 fc             	mov    -0x4(%rbp),%eax
    8ff0:	5d                   	pop    %rbp
    8ff1:	c3                   	retq   

0000000000008ff2 <safe_rshift_func_uint32_t_u_u>:
    8ff2:	f3 0f 1e fa          	endbr64 
    8ff6:	55                   	push   %rbp
    8ff7:	48 89 e5             	mov    %rsp,%rbp
    8ffa:	89 7d fc             	mov    %edi,-0x4(%rbp)
    8ffd:	89 75 f8             	mov    %esi,-0x8(%rbp)
    9000:	83 7d f8 1f          	cmpl   $0x1f,-0x8(%rbp)
    9004:	77 0e                	ja     9014 <safe_rshift_func_uint32_t_u_u+0x22>
    9006:	8b 45 f8             	mov    -0x8(%rbp),%eax
    9009:	8b 55 fc             	mov    -0x4(%rbp),%edx
    900c:	89 c1                	mov    %eax,%ecx
    900e:	d3 ea                	shr    %cl,%edx
    9010:	89 d0                	mov    %edx,%eax
    9012:	eb 03                	jmp    9017 <safe_rshift_func_uint32_t_u_u+0x25>
    9014:	8b 45 fc             	mov    -0x4(%rbp),%eax
    9017:	5d                   	pop    %rbp
    9018:	c3                   	retq   

0000000000009019 <safe_unary_minus_func_uint64_t_u>:
    9019:	f3 0f 1e fa          	endbr64 
    901d:	55                   	push   %rbp
    901e:	48 89 e5             	mov    %rsp,%rbp
    9021:	48 89 7d f8          	mov    %rdi,-0x8(%rbp)
    9025:	48 8b 45 f8          	mov    -0x8(%rbp),%rax
    9029:	48 f7 d8             	neg    %rax
    902c:	5d                   	pop    %rbp
    902d:	c3                   	retq   

000000000000902e <safe_add_func_uint64_t_u_u>:
    902e:	f3 0f 1e fa          	endbr64 
    9032:	55                   	push   %rbp
    9033:	48 89 e5             	mov    %rsp,%rbp
    9036:	48 89 7d f8          	mov    %rdi,-0x8(%rbp)
    903a:	48 89 75 f0          	mov    %rsi,-0x10(%rbp)
    903e:	48 8b 55 f8          	mov    -0x8(%rbp),%rdx
    9042:	48 8b 45 f0          	mov    -0x10(%rbp),%rax
    9046:	48 01 d0             	add    %rdx,%rax
    9049:	5d                   	pop    %rbp
    904a:	c3                   	retq   

000000000000904b <safe_sub_func_uint64_t_u_u>:
    904b:	f3 0f 1e fa          	endbr64 
    904f:	55                   	push   %rbp
    9050:	48 89 e5             	mov    %rsp,%rbp
    9053:	48 89 7d f8          	mov    %rdi,-0x8(%rbp)
    9057:	48 89 75 f0          	mov    %rsi,-0x10(%rbp)
    905b:	48 8b 45 f8          	mov    -0x8(%rbp),%rax
    905f:	48 2b 45 f0          	sub    -0x10(%rbp),%rax
    9063:	5d                   	pop    %rbp
    9064:	c3                   	retq   

0000000000009065 <safe_mul_func_uint64_t_u_u>:
    9065:	f3 0f 1e fa          	endbr64 
    9069:	55                   	push   %rbp
    906a:	48 89 e5             	mov    %rsp,%rbp
    906d:	48 89 7d f8          	mov    %rdi,-0x8(%rbp)
    9071:	48 89 75 f0          	mov    %rsi,-0x10(%rbp)
    9075:	48 8b 45 f8          	mov    -0x8(%rbp),%rax
    9079:	48 0f af 45 f0       	imul   -0x10(%rbp),%rax
    907e:	5d                   	pop    %rbp
    907f:	c3                   	retq   

0000000000009080 <safe_mod_func_uint64_t_u_u>:
    9080:	f3 0f 1e fa          	endbr64 
    9084:	55                   	push   %rbp
    9085:	48 89 e5             	mov    %rsp,%rbp
    9088:	48 89 7d f8          	mov    %rdi,-0x8(%rbp)
    908c:	48 89 75 f0          	mov    %rsi,-0x10(%rbp)
    9090:	48 83 7d f0 00       	cmpq   $0x0,-0x10(%rbp)
    9095:	74 12                	je     90a9 <safe_mod_func_uint64_t_u_u+0x29>
    9097:	48 8b 45 f8          	mov    -0x8(%rbp),%rax
    909b:	ba 00 00 00 00       	mov    $0x0,%edx
    90a0:	48 f7 75 f0          	divq   -0x10(%rbp)
    90a4:	48 89 d0             	mov    %rdx,%rax
    90a7:	eb 04                	jmp    90ad <safe_mod_func_uint64_t_u_u+0x2d>
    90a9:	48 8b 45 f8          	mov    -0x8(%rbp),%rax
    90ad:	5d                   	pop    %rbp
    90ae:	c3                   	retq   

00000000000090af <safe_div_func_uint64_t_u_u>:
    90af:	f3 0f 1e fa          	endbr64 
    90b3:	55                   	push   %rbp
    90b4:	48 89 e5             	mov    %rsp,%rbp
    90b7:	48 89 7d f8          	mov    %rdi,-0x8(%rbp)
    90bb:	48 89 75 f0          	mov    %rsi,-0x10(%rbp)
    90bf:	48 83 7d f0 00       	cmpq   $0x0,-0x10(%rbp)
    90c4:	74 0f                	je     90d5 <safe_div_func_uint64_t_u_u+0x26>
    90c6:	48 8b 45 f8          	mov    -0x8(%rbp),%rax
    90ca:	ba 00 00 00 00       	mov    $0x0,%edx
    90cf:	48 f7 75 f0          	divq   -0x10(%rbp)
    90d3:	eb 04                	jmp    90d9 <safe_div_func_uint64_t_u_u+0x2a>
    90d5:	48 8b 45 f8          	mov    -0x8(%rbp),%rax
    90d9:	5d                   	pop    %rbp
    90da:	c3                   	retq   

00000000000090db <safe_lshift_func_uint64_t_u_s>:
    90db:	f3 0f 1e fa          	endbr64 
    90df:	55                   	push   %rbp
    90e0:	48 89 e5             	mov    %rsp,%rbp
    90e3:	48 89 7d f8          	mov    %rdi,-0x8(%rbp)
    90e7:	89 75 f4             	mov    %esi,-0xc(%rbp)
    90ea:	83 7d f4 00          	cmpl   $0x0,-0xc(%rbp)
    90ee:	78 2f                	js     911f <safe_lshift_func_uint64_t_u_s+0x44>
    90f0:	83 7d f4 1f          	cmpl   $0x1f,-0xc(%rbp)
    90f4:	7f 29                	jg     911f <safe_lshift_func_uint64_t_u_s+0x44>
    90f6:	8b 45 f4             	mov    -0xc(%rbp),%eax
    90f9:	48 c7 c2 ff ff ff ff 	mov    $0xffffffffffffffff,%rdx
    9100:	89 c1                	mov    %eax,%ecx
    9102:	48 d3 ea             	shr    %cl,%rdx
    9105:	48 89 d0             	mov    %rdx,%rax
    9108:	48 39 45 f8          	cmp    %rax,-0x8(%rbp)
    910c:	77 11                	ja     911f <safe_lshift_func_uint64_t_u_s+0x44>
    910e:	8b 45 f4             	mov    -0xc(%rbp),%eax
    9111:	48 8b 55 f8          	mov    -0x8(%rbp),%rdx
    9115:	89 c1                	mov    %eax,%ecx
    9117:	48 d3 e2             	shl    %cl,%rdx
    911a:	48 89 d0             	mov    %rdx,%rax
    911d:	eb 04                	jmp    9123 <safe_lshift_func_uint64_t_u_s+0x48>
    911f:	48 8b 45 f8          	mov    -0x8(%rbp),%rax
    9123:	5d                   	pop    %rbp
    9124:	c3                   	retq   

0000000000009125 <safe_lshift_func_uint64_t_u_u>:
    9125:	f3 0f 1e fa          	endbr64 
    9129:	55                   	push   %rbp
    912a:	48 89 e5             	mov    %rsp,%rbp
    912d:	48 89 7d f8          	mov    %rdi,-0x8(%rbp)
    9131:	89 75 f4             	mov    %esi,-0xc(%rbp)
    9134:	83 7d f4 1f          	cmpl   $0x1f,-0xc(%rbp)
    9138:	77 29                	ja     9163 <safe_lshift_func_uint64_t_u_u+0x3e>
    913a:	8b 45 f4             	mov    -0xc(%rbp),%eax
    913d:	48 c7 c2 ff ff ff ff 	mov    $0xffffffffffffffff,%rdx
    9144:	89 c1                	mov    %eax,%ecx
    9146:	48 d3 ea             	shr    %cl,%rdx
    9149:	48 89 d0             	mov    %rdx,%rax
    914c:	48 39 45 f8          	cmp    %rax,-0x8(%rbp)
    9150:	77 11                	ja     9163 <safe_lshift_func_uint64_t_u_u+0x3e>
    9152:	8b 45 f4             	mov    -0xc(%rbp),%eax
    9155:	48 8b 55 f8          	mov    -0x8(%rbp),%rdx
    9159:	89 c1                	mov    %eax,%ecx
    915b:	48 d3 e2             	shl    %cl,%rdx
    915e:	48 89 d0             	mov    %rdx,%rax
    9161:	eb 04                	jmp    9167 <safe_lshift_func_uint64_t_u_u+0x42>
    9163:	48 8b 45 f8          	mov    -0x8(%rbp),%rax
    9167:	5d                   	pop    %rbp
    9168:	c3                   	retq   

0000000000009169 <safe_rshift_func_uint64_t_u_s>:
    9169:	f3 0f 1e fa          	endbr64 
    916d:	55                   	push   %rbp
    916e:	48 89 e5             	mov    %rsp,%rbp
    9171:	48 89 7d f8          	mov    %rdi,-0x8(%rbp)
    9175:	89 75 f4             	mov    %esi,-0xc(%rbp)
    9178:	83 7d f4 00          	cmpl   $0x0,-0xc(%rbp)
    917c:	78 17                	js     9195 <safe_rshift_func_uint64_t_u_s+0x2c>
    917e:	83 7d f4 1f          	cmpl   $0x1f,-0xc(%rbp)
    9182:	7f 11                	jg     9195 <safe_rshift_func_uint64_t_u_s+0x2c>
    9184:	8b 45 f4             	mov    -0xc(%rbp),%eax
    9187:	48 8b 55 f8          	mov    -0x8(%rbp),%rdx
    918b:	89 c1                	mov    %eax,%ecx
    918d:	48 d3 ea             	shr    %cl,%rdx
    9190:	48 89 d0             	mov    %rdx,%rax
    9193:	eb 04                	jmp    9199 <safe_rshift_func_uint64_t_u_s+0x30>
    9195:	48 8b 45 f8          	mov    -0x8(%rbp),%rax
    9199:	5d                   	pop    %rbp
    919a:	c3                   	retq   

000000000000919b <safe_rshift_func_uint64_t_u_u>:
    919b:	f3 0f 1e fa          	endbr64 
    919f:	55                   	push   %rbp
    91a0:	48 89 e5             	mov    %rsp,%rbp
    91a3:	48 89 7d f8          	mov    %rdi,-0x8(%rbp)
    91a7:	89 75 f4             	mov    %esi,-0xc(%rbp)
    91aa:	83 7d f4 1f          	cmpl   $0x1f,-0xc(%rbp)
    91ae:	77 11                	ja     91c1 <safe_rshift_func_uint64_t_u_u+0x26>
    91b0:	8b 45 f4             	mov    -0xc(%rbp),%eax
    91b3:	48 8b 55 f8          	mov    -0x8(%rbp),%rdx
    91b7:	89 c1                	mov    %eax,%ecx
    91b9:	48 d3 ea             	shr    %cl,%rdx
    91bc:	48 89 d0             	mov    %rdx,%rax
    91bf:	eb 04                	jmp    91c5 <safe_rshift_func_uint64_t_u_u+0x2a>
    91c1:	48 8b 45 f8          	mov    -0x8(%rbp),%rax
    91c5:	5d                   	pop    %rbp
    91c6:	c3                   	retq   

00000000000091c7 <safe_add_func_float_f_f>:
    91c7:	f3 0f 1e fa          	endbr64 
    91cb:	55                   	push   %rbp
    91cc:	48 89 e5             	mov    %rsp,%rbp
    91cf:	f3 0f 11 45 fc       	movss  %xmm0,-0x4(%rbp)
    91d4:	f3 0f 11 4d f8       	movss  %xmm1,-0x8(%rbp)
    91d9:	f3 0f 10 4d fc       	movss  -0x4(%rbp),%xmm1
    91de:	f3 0f 10 05 c2 61 01 	movss  0x161c2(%rip),%xmm0        # 1f3a8 <l_1929.5822+0x168>
    91e5:	00 
    91e6:	f3 0f 59 c8          	mulss  %xmm0,%xmm1
    91ea:	f3 0f 10 55 f8       	movss  -0x8(%rbp),%xmm2
    91ef:	f3 0f 10 05 b1 61 01 	movss  0x161b1(%rip),%xmm0        # 1f3a8 <l_1929.5822+0x168>
    91f6:	00 
    91f7:	f3 0f 59 c2          	mulss  %xmm2,%xmm0
    91fb:	f3 0f 58 c1          	addss  %xmm1,%xmm0
    91ff:	f3 0f 10 0d a9 61 01 	movss  0x161a9(%rip),%xmm1        # 1f3b0 <l_1929.5822+0x170>
    9206:	00 
    9207:	0f 54 c1             	andps  %xmm1,%xmm0
    920a:	0f 2f 05 af 61 01 00 	comiss 0x161af(%rip),%xmm0        # 1f3c0 <l_1929.5822+0x180>
    9211:	76 07                	jbe    921a <safe_add_func_float_f_f+0x53>
    9213:	f3 0f 10 45 fc       	movss  -0x4(%rbp),%xmm0
    9218:	eb 0a                	jmp    9224 <safe_add_func_float_f_f+0x5d>
    921a:	f3 0f 10 45 fc       	movss  -0x4(%rbp),%xmm0
    921f:	f3 0f 58 45 f8       	addss  -0x8(%rbp),%xmm0
    9224:	5d                   	pop    %rbp
    9225:	c3                   	retq   

0000000000009226 <safe_sub_func_float_f_f>:
    9226:	f3 0f 1e fa          	endbr64 
    922a:	55                   	push   %rbp
    922b:	48 89 e5             	mov    %rsp,%rbp
    922e:	f3 0f 11 45 fc       	movss  %xmm0,-0x4(%rbp)
    9233:	f3 0f 11 4d f8       	movss  %xmm1,-0x8(%rbp)
    9238:	f3 0f 10 4d fc       	movss  -0x4(%rbp),%xmm1
    923d:	f3 0f 10 05 63 61 01 	movss  0x16163(%rip),%xmm0        # 1f3a8 <l_1929.5822+0x168>
    9244:	00 
    9245:	f3 0f 59 c1          	mulss  %xmm1,%xmm0
    9249:	f3 0f 10 55 f8       	movss  -0x8(%rbp),%xmm2
    924e:	f3 0f 10 0d 52 61 01 	movss  0x16152(%rip),%xmm1        # 1f3a8 <l_1929.5822+0x168>
    9255:	00 
    9256:	f3 0f 59 ca          	mulss  %xmm2,%xmm1
    925a:	f3 0f 5c c1          	subss  %xmm1,%xmm0
    925e:	f3 0f 10 0d 4a 61 01 	movss  0x1614a(%rip),%xmm1        # 1f3b0 <l_1929.5822+0x170>
    9265:	00 
    9266:	0f 54 c1             	andps  %xmm1,%xmm0
    9269:	0f 2f 05 50 61 01 00 	comiss 0x16150(%rip),%xmm0        # 1f3c0 <l_1929.5822+0x180>
    9270:	76 07                	jbe    9279 <safe_sub_func_float_f_f+0x53>
    9272:	f3 0f 10 45 fc       	movss  -0x4(%rbp),%xmm0
    9277:	eb 0a                	jmp    9283 <safe_sub_func_float_f_f+0x5d>
    9279:	f3 0f 10 45 fc       	movss  -0x4(%rbp),%xmm0
    927e:	f3 0f 5c 45 f8       	subss  -0x8(%rbp),%xmm0
    9283:	5d                   	pop    %rbp
    9284:	c3                   	retq   

0000000000009285 <safe_mul_func_float_f_f>:
    9285:	f3 0f 1e fa          	endbr64 
    9289:	55                   	push   %rbp
    928a:	48 89 e5             	mov    %rsp,%rbp
    928d:	f3 0f 11 45 fc       	movss  %xmm0,-0x4(%rbp)
    9292:	f3 0f 11 4d f8       	movss  %xmm1,-0x8(%rbp)
    9297:	f3 0f 10 4d fc       	movss  -0x4(%rbp),%xmm1
    929c:	f3 0f 10 05 20 61 01 	movss  0x16120(%rip),%xmm0        # 1f3c4 <l_1929.5822+0x184>
    92a3:	00 
    92a4:	f3 0f 59 c8          	mulss  %xmm0,%xmm1
    92a8:	f3 0f 10 55 f8       	movss  -0x8(%rbp),%xmm2
    92ad:	f3 0f 10 05 13 61 01 	movss  0x16113(%rip),%xmm0        # 1f3c8 <l_1929.5822+0x188>
    92b4:	00 
    92b5:	f3 0f 59 c2          	mulss  %xmm2,%xmm0
    92b9:	f3 0f 59 c1          	mulss  %xmm1,%xmm0
    92bd:	f3 0f 10 0d eb 60 01 	movss  0x160eb(%rip),%xmm1        # 1f3b0 <l_1929.5822+0x170>
    92c4:	00 
    92c5:	0f 54 c1             	andps  %xmm1,%xmm0
    92c8:	0f 2f 05 fd 60 01 00 	comiss 0x160fd(%rip),%xmm0        # 1f3cc <l_1929.5822+0x18c>
    92cf:	76 07                	jbe    92d8 <safe_mul_func_float_f_f+0x53>
    92d1:	f3 0f 10 45 fc       	movss  -0x4(%rbp),%xmm0
    92d6:	eb 0a                	jmp    92e2 <safe_mul_func_float_f_f+0x5d>
    92d8:	f3 0f 10 45 fc       	movss  -0x4(%rbp),%xmm0
    92dd:	f3 0f 59 45 f8       	mulss  -0x8(%rbp),%xmm0
    92e2:	5d                   	pop    %rbp
    92e3:	c3                   	retq   

00000000000092e4 <safe_div_func_float_f_f>:
    92e4:	f3 0f 1e fa          	endbr64 
    92e8:	55                   	push   %rbp
    92e9:	48 89 e5             	mov    %rsp,%rbp
    92ec:	f3 0f 11 45 fc       	movss  %xmm0,-0x4(%rbp)
    92f1:	f3 0f 11 4d f8       	movss  %xmm1,-0x8(%rbp)
    92f6:	f3 0f 10 45 f8       	movss  -0x8(%rbp),%xmm0
    92fb:	f3 0f 10 0d ad 60 01 	movss  0x160ad(%rip),%xmm1        # 1f3b0 <l_1929.5822+0x170>
    9302:	00 
    9303:	0f 54 c8             	andps  %xmm0,%xmm1
    9306:	f3 0f 10 05 c2 60 01 	movss  0x160c2(%rip),%xmm0        # 1f3d0 <l_1929.5822+0x190>
    930d:	00 
    930e:	0f 2f c1             	comiss %xmm1,%xmm0
    9311:	0f 97 c0             	seta   %al
    9314:	83 f0 01             	xor    $0x1,%eax
    9317:	84 c0                	test   %al,%al
    9319:	75 56                	jne    9371 <safe_div_func_float_f_f+0x8d>
    931b:	66 0f ef c0          	pxor   %xmm0,%xmm0
    931f:	0f 2e 45 f8          	ucomiss -0x8(%rbp),%xmm0
    9323:	7a 0a                	jp     932f <safe_div_func_float_f_f+0x4b>
    9325:	66 0f ef c0          	pxor   %xmm0,%xmm0
    9329:	0f 2e 45 f8          	ucomiss -0x8(%rbp),%xmm0
    932d:	74 4e                	je     937d <safe_div_func_float_f_f+0x99>
    932f:	f3 0f 10 4d fc       	movss  -0x4(%rbp),%xmm1
    9334:	f3 0f 10 05 98 60 01 	movss  0x16098(%rip),%xmm0        # 1f3d4 <l_1929.5822+0x194>
    933b:	00 
    933c:	f3 0f 59 c1          	mulss  %xmm1,%xmm0
    9340:	f3 0f 10 55 f8       	movss  -0x8(%rbp),%xmm2
    9345:	f3 0f 10 0d 8b 60 01 	movss  0x1608b(%rip),%xmm1        # 1f3d8 <l_1929.5822+0x198>
    934c:	00 
    934d:	f3 0f 59 ca          	mulss  %xmm2,%xmm1
    9351:	f3 0f 5e c1          	divss  %xmm1,%xmm0
    9355:	f3 0f 10 0d 53 60 01 	movss  0x16053(%rip),%xmm1        # 1f3b0 <l_1929.5822+0x170>
    935c:	00 
    935d:	0f 54 c1             	andps  %xmm1,%xmm0
    9360:	0f 2f 05 75 60 01 00 	comiss 0x16075(%rip),%xmm0        # 1f3dc <l_1929.5822+0x19c>
    9367:	0f 97 c0             	seta   %al
    936a:	83 f0 01             	xor    $0x1,%eax
    936d:	84 c0                	test   %al,%al
    936f:	74 0c                	je     937d <safe_div_func_float_f_f+0x99>
    9371:	f3 0f 10 45 fc       	movss  -0x4(%rbp),%xmm0
    9376:	f3 0f 5e 45 f8       	divss  -0x8(%rbp),%xmm0
    937b:	eb 05                	jmp    9382 <safe_div_func_float_f_f+0x9e>
    937d:	f3 0f 10 45 fc       	movss  -0x4(%rbp),%xmm0
    9382:	5d                   	pop    %rbp
    9383:	c3                   	retq   

0000000000009384 <safe_add_func_double_f_f>:
    9384:	f3 0f 1e fa          	endbr64 
    9388:	55                   	push   %rbp
    9389:	48 89 e5             	mov    %rsp,%rbp
    938c:	f2 0f 11 45 f8       	movsd  %xmm0,-0x8(%rbp)
    9391:	f2 0f 11 4d f0       	movsd  %xmm1,-0x10(%rbp)
    9396:	f2 0f 10 4d f8       	movsd  -0x8(%rbp),%xmm1
    939b:	f2 0f 10 05 3d 60 01 	movsd  0x1603d(%rip),%xmm0        # 1f3e0 <l_1929.5822+0x1a0>
    93a2:	00 
    93a3:	f2 0f 59 c8          	mulsd  %xmm0,%xmm1
    93a7:	f2 0f 10 55 f0       	movsd  -0x10(%rbp),%xmm2
    93ac:	f2 0f 10 05 2c 60 01 	movsd  0x1602c(%rip),%xmm0        # 1f3e0 <l_1929.5822+0x1a0>
    93b3:	00 
    93b4:	f2 0f 59 c2          	mulsd  %xmm2,%xmm0
    93b8:	f2 0f 58 c1          	addsd  %xmm1,%xmm0
    93bc:	f3 0f 7e 0d 2c 60 01 	movq   0x1602c(%rip),%xmm1        # 1f3f0 <l_1929.5822+0x1b0>
    93c3:	00 
    93c4:	66 0f 54 c1          	andpd  %xmm1,%xmm0
    93c8:	66 0f 2f 05 30 60 01 	comisd 0x16030(%rip),%xmm0        # 1f400 <l_1929.5822+0x1c0>
    93cf:	00 
    93d0:	76 07                	jbe    93d9 <safe_add_func_double_f_f+0x55>
    93d2:	f2 0f 10 45 f8       	movsd  -0x8(%rbp),%xmm0
    93d7:	eb 0a                	jmp    93e3 <safe_add_func_double_f_f+0x5f>
    93d9:	f2 0f 10 45 f8       	movsd  -0x8(%rbp),%xmm0
    93de:	f2 0f 58 45 f0       	addsd  -0x10(%rbp),%xmm0
    93e3:	5d                   	pop    %rbp
    93e4:	c3                   	retq   

00000000000093e5 <safe_sub_func_double_f_f>:
    93e5:	f3 0f 1e fa          	endbr64 
    93e9:	55                   	push   %rbp
    93ea:	48 89 e5             	mov    %rsp,%rbp
    93ed:	f2 0f 11 45 f8       	movsd  %xmm0,-0x8(%rbp)
    93f2:	f2 0f 11 4d f0       	movsd  %xmm1,-0x10(%rbp)
    93f7:	f2 0f 10 4d f8       	movsd  -0x8(%rbp),%xmm1
    93fc:	f2 0f 10 05 dc 5f 01 	movsd  0x15fdc(%rip),%xmm0        # 1f3e0 <l_1929.5822+0x1a0>
    9403:	00 
    9404:	f2 0f 59 c1          	mulsd  %xmm1,%xmm0
    9408:	f2 0f 10 55 f0       	movsd  -0x10(%rbp),%xmm2
    940d:	f2 0f 10 0d cb 5f 01 	movsd  0x15fcb(%rip),%xmm1        # 1f3e0 <l_1929.5822+0x1a0>
    9414:	00 
    9415:	f2 0f 59 ca          	mulsd  %xmm2,%xmm1
    9419:	f2 0f 5c c1          	subsd  %xmm1,%xmm0
    941d:	f3 0f 7e 0d cb 5f 01 	movq   0x15fcb(%rip),%xmm1        # 1f3f0 <l_1929.5822+0x1b0>
    9424:	00 
    9425:	66 0f 54 c1          	andpd  %xmm1,%xmm0
    9429:	66 0f 2f 05 cf 5f 01 	comisd 0x15fcf(%rip),%xmm0        # 1f400 <l_1929.5822+0x1c0>
    9430:	00 
    9431:	76 07                	jbe    943a <safe_sub_func_double_f_f+0x55>
    9433:	f2 0f 10 45 f8       	movsd  -0x8(%rbp),%xmm0
    9438:	eb 0a                	jmp    9444 <safe_sub_func_double_f_f+0x5f>
    943a:	f2 0f 10 45 f8       	movsd  -0x8(%rbp),%xmm0
    943f:	f2 0f 5c 45 f0       	subsd  -0x10(%rbp),%xmm0
    9444:	5d                   	pop    %rbp
    9445:	c3                   	retq   

0000000000009446 <safe_mul_func_double_f_f>:
    9446:	f3 0f 1e fa          	endbr64 
    944a:	55                   	push   %rbp
    944b:	48 89 e5             	mov    %rsp,%rbp
    944e:	f2 0f 11 45 f8       	movsd  %xmm0,-0x8(%rbp)
    9453:	f2 0f 11 4d f0       	movsd  %xmm1,-0x10(%rbp)
    9458:	f2 0f 10 4d f8       	movsd  -0x8(%rbp),%xmm1
    945d:	f2 0f 10 05 a3 5f 01 	movsd  0x15fa3(%rip),%xmm0        # 1f408 <l_1929.5822+0x1c8>
    9464:	00 
    9465:	f2 0f 59 c8          	mulsd  %xmm0,%xmm1
    9469:	f2 0f 10 55 f0       	movsd  -0x10(%rbp),%xmm2
    946e:	f2 0f 10 05 9a 5f 01 	movsd  0x15f9a(%rip),%xmm0        # 1f410 <l_1929.5822+0x1d0>
    9475:	00 
    9476:	f2 0f 59 c2          	mulsd  %xmm2,%xmm0
    947a:	f2 0f 59 c1          	mulsd  %xmm1,%xmm0
    947e:	f3 0f 7e 0d 6a 5f 01 	movq   0x15f6a(%rip),%xmm1        # 1f3f0 <l_1929.5822+0x1b0>
    9485:	00 
    9486:	66 0f 54 c1          	andpd  %xmm1,%xmm0
    948a:	66 0f 2f 05 86 5f 01 	comisd 0x15f86(%rip),%xmm0        # 1f418 <l_1929.5822+0x1d8>
    9491:	00 
    9492:	76 07                	jbe    949b <safe_mul_func_double_f_f+0x55>
    9494:	f2 0f 10 45 f8       	movsd  -0x8(%rbp),%xmm0
    9499:	eb 0a                	jmp    94a5 <safe_mul_func_double_f_f+0x5f>
    949b:	f2 0f 10 45 f8       	movsd  -0x8(%rbp),%xmm0
    94a0:	f2 0f 59 45 f0       	mulsd  -0x10(%rbp),%xmm0
    94a5:	5d                   	pop    %rbp
    94a6:	c3                   	retq   

00000000000094a7 <safe_div_func_double_f_f>:
    94a7:	f3 0f 1e fa          	endbr64 
    94ab:	55                   	push   %rbp
    94ac:	48 89 e5             	mov    %rsp,%rbp
    94af:	f2 0f 11 45 f8       	movsd  %xmm0,-0x8(%rbp)
    94b4:	f2 0f 11 4d f0       	movsd  %xmm1,-0x10(%rbp)
    94b9:	f2 0f 10 45 f0       	movsd  -0x10(%rbp),%xmm0
    94be:	f3 0f 7e 0d 2a 5f 01 	movq   0x15f2a(%rip),%xmm1        # 1f3f0 <l_1929.5822+0x1b0>
    94c5:	00 
    94c6:	66 0f 54 c8          	andpd  %xmm0,%xmm1
    94ca:	f2 0f 10 05 4e 5f 01 	movsd  0x15f4e(%rip),%xmm0        # 1f420 <l_1929.5822+0x1e0>
    94d1:	00 
    94d2:	66 0f 2f c1          	comisd %xmm1,%xmm0
    94d6:	0f 97 c0             	seta   %al
    94d9:	83 f0 01             	xor    $0x1,%eax
    94dc:	84 c0                	test   %al,%al
    94de:	75 5a                	jne    953a <safe_div_func_double_f_f+0x93>
    94e0:	66 0f ef c0          	pxor   %xmm0,%xmm0
    94e4:	66 0f 2e 45 f0       	ucomisd -0x10(%rbp),%xmm0
    94e9:	7a 0b                	jp     94f6 <safe_div_func_double_f_f+0x4f>
    94eb:	66 0f ef c0          	pxor   %xmm0,%xmm0
    94ef:	66 0f 2e 45 f0       	ucomisd -0x10(%rbp),%xmm0
    94f4:	74 50                	je     9546 <safe_div_func_double_f_f+0x9f>
    94f6:	f2 0f 10 4d f8       	movsd  -0x8(%rbp),%xmm1
    94fb:	f2 0f 10 05 25 5f 01 	movsd  0x15f25(%rip),%xmm0        # 1f428 <l_1929.5822+0x1e8>
    9502:	00 
    9503:	f2 0f 59 c1          	mulsd  %xmm1,%xmm0
    9507:	f2 0f 10 55 f0       	movsd  -0x10(%rbp),%xmm2
    950c:	f2 0f 10 0d 1c 5f 01 	movsd  0x15f1c(%rip),%xmm1        # 1f430 <l_1929.5822+0x1f0>
    9513:	00 
    9514:	f2 0f 59 ca          	mulsd  %xmm2,%xmm1
    9518:	f2 0f 5e c1          	divsd  %xmm1,%xmm0
    951c:	f3 0f 7e 0d cc 5e 01 	movq   0x15ecc(%rip),%xmm1        # 1f3f0 <l_1929.5822+0x1b0>
    9523:	00 
    9524:	66 0f 54 c1          	andpd  %xmm1,%xmm0
    9528:	66 0f 2f 05 08 5f 01 	comisd 0x15f08(%rip),%xmm0        # 1f438 <l_1929.5822+0x1f8>
    952f:	00 
    9530:	0f 97 c0             	seta   %al
    9533:	83 f0 01             	xor    $0x1,%eax
    9536:	84 c0                	test   %al,%al
    9538:	74 0c                	je     9546 <safe_div_func_double_f_f+0x9f>
    953a:	f2 0f 10 45 f8       	movsd  -0x8(%rbp),%xmm0
    953f:	f2 0f 5e 45 f0       	divsd  -0x10(%rbp),%xmm0
    9544:	eb 05                	jmp    954b <safe_div_func_double_f_f+0xa4>
    9546:	f2 0f 10 45 f8       	movsd  -0x8(%rbp),%xmm0
    954b:	5d                   	pop    %rbp
    954c:	c3                   	retq   

000000000000954d <safe_convert_func_float_to_int32_t>:
    954d:	f3 0f 1e fa          	endbr64 
    9551:	55                   	push   %rbp
    9552:	48 89 e5             	mov    %rsp,%rbp
    9555:	f3 0f 11 45 fc       	movss  %xmm0,-0x4(%rbp)
    955a:	f3 0f 10 05 de 5e 01 	movss  0x15ede(%rip),%xmm0        # 1f440 <l_1929.5822+0x200>
    9561:	00 
    9562:	0f 2f 45 fc          	comiss -0x4(%rbp),%xmm0
    9566:	0f 93 c0             	setae  %al
    9569:	83 f0 01             	xor    $0x1,%eax
    956c:	84 c0                	test   %al,%al
    956e:	74 21                	je     9591 <safe_convert_func_float_to_int32_t+0x44>
    9570:	f3 0f 10 45 fc       	movss  -0x4(%rbp),%xmm0
    9575:	0f 2f 05 c8 5e 01 00 	comiss 0x15ec8(%rip),%xmm0        # 1f444 <l_1929.5822+0x204>
    957c:	0f 93 c0             	setae  %al
    957f:	83 f0 01             	xor    $0x1,%eax
    9582:	84 c0                	test   %al,%al
    9584:	74 0b                	je     9591 <safe_convert_func_float_to_int32_t+0x44>
    9586:	f3 0f 10 45 fc       	movss  -0x4(%rbp),%xmm0
    958b:	f3 0f 2c c0          	cvttss2si %xmm0,%eax
    958f:	eb 05                	jmp    9596 <safe_convert_func_float_to_int32_t+0x49>
    9591:	b8 ff ff ff 7f       	mov    $0x7fffffff,%eax
    9596:	5d                   	pop    %rbp
    9597:	c3                   	retq   

0000000000009598 <crc32_gentab>:
    9598:	f3 0f 1e fa          	endbr64 
    959c:	55                   	push   %rbp
    959d:	48 89 e5             	mov    %rsp,%rbp
    95a0:	c7 45 fc 20 83 b8 ed 	movl   $0xedb88320,-0x4(%rbp)
    95a7:	c7 45 f4 00 00 00 00 	movl   $0x0,-0xc(%rbp)
    95ae:	eb 51                	jmp    9601 <crc32_gentab+0x69>
    95b0:	8b 45 f4             	mov    -0xc(%rbp),%eax
    95b3:	89 45 f0             	mov    %eax,-0x10(%rbp)
    95b6:	c7 45 f8 08 00 00 00 	movl   $0x8,-0x8(%rbp)
    95bd:	eb 1e                	jmp    95dd <crc32_gentab+0x45>
    95bf:	8b 45 f0             	mov    -0x10(%rbp),%eax
    95c2:	83 e0 01             	and    $0x1,%eax
    95c5:	85 c0                	test   %eax,%eax
    95c7:	74 0d                	je     95d6 <crc32_gentab+0x3e>
    95c9:	8b 45 f0             	mov    -0x10(%rbp),%eax
    95cc:	d1 e8                	shr    %eax
    95ce:	33 45 fc             	xor    -0x4(%rbp),%eax
    95d1:	89 45 f0             	mov    %eax,-0x10(%rbp)
    95d4:	eb 03                	jmp    95d9 <crc32_gentab+0x41>
    95d6:	d1 6d f0             	shrl   -0x10(%rbp)
    95d9:	83 6d f8 01          	subl   $0x1,-0x8(%rbp)
    95dd:	83 7d f8 00          	cmpl   $0x0,-0x8(%rbp)
    95e1:	7f dc                	jg     95bf <crc32_gentab+0x27>
    95e3:	8b 45 f4             	mov    -0xc(%rbp),%eax
    95e6:	48 98                	cltq   
    95e8:	48 8d 0c 85 00 00 00 	lea    0x0(,%rax,4),%rcx
    95ef:	00 
    95f0:	48 8d 15 a9 cb 01 00 	lea    0x1cba9(%rip),%rdx        # 261a0 <crc32_tab>
    95f7:	8b 45 f0             	mov    -0x10(%rbp),%eax
    95fa:	89 04 11             	mov    %eax,(%rcx,%rdx,1)
    95fd:	83 45 f4 01          	addl   $0x1,-0xc(%rbp)
    9601:	81 7d f4 ff 00 00 00 	cmpl   $0xff,-0xc(%rbp)
    9608:	7e a6                	jle    95b0 <crc32_gentab+0x18>
    960a:	90                   	nop
    960b:	90                   	nop
    960c:	5d                   	pop    %rbp
    960d:	c3                   	retq   

000000000000960e <crc32_byte>:
    960e:	f3 0f 1e fa          	endbr64 
    9612:	55                   	push   %rbp
    9613:	48 89 e5             	mov    %rsp,%rbp
    9616:	89 f8                	mov    %edi,%eax
    9618:	88 45 fc             	mov    %al,-0x4(%rbp)
    961b:	8b 05 ff 89 01 00    	mov    0x189ff(%rip),%eax        # 22020 <crc32_context>
    9621:	c1 e8 08             	shr    $0x8,%eax
    9624:	89 c1                	mov    %eax,%ecx
    9626:	0f b6 55 fc          	movzbl -0x4(%rbp),%edx
    962a:	8b 05 f0 89 01 00    	mov    0x189f0(%rip),%eax        # 22020 <crc32_context>
    9630:	31 d0                	xor    %edx,%eax
    9632:	0f b6 c0             	movzbl %al,%eax
    9635:	89 c0                	mov    %eax,%eax
    9637:	48 8d 14 85 00 00 00 	lea    0x0(,%rax,4),%rdx
    963e:	00 
    963f:	48 8d 05 5a cb 01 00 	lea    0x1cb5a(%rip),%rax        # 261a0 <crc32_tab>
    9646:	8b 04 02             	mov    (%rdx,%rax,1),%eax
    9649:	31 c8                	xor    %ecx,%eax
    964b:	89 05 cf 89 01 00    	mov    %eax,0x189cf(%rip)        # 22020 <crc32_context>
    9651:	90                   	nop
    9652:	5d                   	pop    %rbp
    9653:	c3                   	retq   

0000000000009654 <crc32_8bytes>:
    9654:	f3 0f 1e fa          	endbr64 
    9658:	55                   	push   %rbp
    9659:	48 89 e5             	mov    %rsp,%rbp
    965c:	48 83 ec 08          	sub    $0x8,%rsp
    9660:	48 89 7d f8          	mov    %rdi,-0x8(%rbp)
    9664:	48 8b 45 f8          	mov    -0x8(%rbp),%rax
    9668:	0f b6 c0             	movzbl %al,%eax
    966b:	89 c7                	mov    %eax,%edi
    966d:	e8 9c ff ff ff       	callq  960e <crc32_byte>
    9672:	48 8b 45 f8          	mov    -0x8(%rbp),%rax
    9676:	48 c1 e8 08          	shr    $0x8,%rax
    967a:	0f b6 c0             	movzbl %al,%eax
    967d:	89 c7                	mov    %eax,%edi
    967f:	e8 8a ff ff ff       	callq  960e <crc32_byte>
    9684:	48 8b 45 f8          	mov    -0x8(%rbp),%rax
    9688:	48 c1 e8 10          	shr    $0x10,%rax
    968c:	0f b6 c0             	movzbl %al,%eax
    968f:	89 c7                	mov    %eax,%edi
    9691:	e8 78 ff ff ff       	callq  960e <crc32_byte>
    9696:	48 8b 45 f8          	mov    -0x8(%rbp),%rax
    969a:	48 c1 e8 18          	shr    $0x18,%rax
    969e:	0f b6 c0             	movzbl %al,%eax
    96a1:	89 c7                	mov    %eax,%edi
    96a3:	e8 66 ff ff ff       	callq  960e <crc32_byte>
    96a8:	48 8b 45 f8          	mov    -0x8(%rbp),%rax
    96ac:	48 c1 e8 20          	shr    $0x20,%rax
    96b0:	0f b6 c0             	movzbl %al,%eax
    96b3:	89 c7                	mov    %eax,%edi
    96b5:	e8 54 ff ff ff       	callq  960e <crc32_byte>
    96ba:	48 8b 45 f8          	mov    -0x8(%rbp),%rax
    96be:	48 c1 e8 28          	shr    $0x28,%rax
    96c2:	0f b6 c0             	movzbl %al,%eax
    96c5:	89 c7                	mov    %eax,%edi
    96c7:	e8 42 ff ff ff       	callq  960e <crc32_byte>
    96cc:	48 8b 45 f8          	mov    -0x8(%rbp),%rax
    96d0:	48 c1 e8 30          	shr    $0x30,%rax
    96d4:	0f b6 c0             	movzbl %al,%eax
    96d7:	89 c7                	mov    %eax,%edi
    96d9:	e8 30 ff ff ff       	callq  960e <crc32_byte>
    96de:	48 8b 45 f8          	mov    -0x8(%rbp),%rax
    96e2:	48 c1 e8 38          	shr    $0x38,%rax
    96e6:	0f b6 c0             	movzbl %al,%eax
    96e9:	89 c7                	mov    %eax,%edi
    96eb:	e8 1e ff ff ff       	callq  960e <crc32_byte>
    96f0:	90                   	nop
    96f1:	c9                   	leaveq 
    96f2:	c3                   	retq   

00000000000096f3 <transparent_crc>:
    96f3:	f3 0f 1e fa          	endbr64 
    96f7:	55                   	push   %rbp
    96f8:	48 89 e5             	mov    %rsp,%rbp
    96fb:	48 83 ec 20          	sub    $0x20,%rsp
    96ff:	48 89 7d f8          	mov    %rdi,-0x8(%rbp)
    9703:	48 89 75 f0          	mov    %rsi,-0x10(%rbp)
    9707:	89 55 ec             	mov    %edx,-0x14(%rbp)
    970a:	48 8b 45 f8          	mov    -0x8(%rbp),%rax
    970e:	48 89 c7             	mov    %rax,%rdi
    9711:	e8 3e ff ff ff       	callq  9654 <crc32_8bytes>
    9716:	83 7d ec 00          	cmpl   $0x0,-0x14(%rbp)
    971a:	74 22                	je     973e <transparent_crc+0x4b>
    971c:	8b 05 fe 88 01 00    	mov    0x188fe(%rip),%eax        # 22020 <crc32_context>
    9722:	f7 d0                	not    %eax
    9724:	89 c2                	mov    %eax,%edx
    9726:	48 8b 45 f0          	mov    -0x10(%rbp),%rax
    972a:	48 89 c6             	mov    %rax,%rsi
    972d:	48 8d 3d fc 28 01 00 	lea    0x128fc(%rip),%rdi        # 1c030 <_IO_stdin_used+0x30>
    9734:	b8 00 00 00 00       	mov    $0x0,%eax
    9739:	e8 42 e9 ff ff       	callq  8080 <printf@plt>
    973e:	90                   	nop
    973f:	c9                   	leaveq 
    9740:	c3                   	retq   

0000000000009741 <transparent_crc_bytes>:
    9741:	f3 0f 1e fa          	endbr64 
    9745:	55                   	push   %rbp
    9746:	48 89 e5             	mov    %rsp,%rbp
    9749:	48 83 ec 30          	sub    $0x30,%rsp
    974d:	48 89 7d e8          	mov    %rdi,-0x18(%rbp)
    9751:	89 75 e4             	mov    %esi,-0x1c(%rbp)
    9754:	48 89 55 d8          	mov    %rdx,-0x28(%rbp)
    9758:	89 4d e0             	mov    %ecx,-0x20(%rbp)
    975b:	c7 45 fc 00 00 00 00 	movl   $0x0,-0x4(%rbp)
    9762:	eb 1e                	jmp    9782 <transparent_crc_bytes+0x41>
    9764:	8b 45 fc             	mov    -0x4(%rbp),%eax
    9767:	48 63 d0             	movslq %eax,%rdx
    976a:	48 8b 45 e8          	mov    -0x18(%rbp),%rax
    976e:	48 01 d0             	add    %rdx,%rax
    9771:	0f b6 00             	movzbl (%rax),%eax
    9774:	0f b6 c0             	movzbl %al,%eax
    9777:	89 c7                	mov    %eax,%edi
    9779:	e8 90 fe ff ff       	callq  960e <crc32_byte>
    977e:	83 45 fc 01          	addl   $0x1,-0x4(%rbp)
    9782:	8b 45 fc             	mov    -0x4(%rbp),%eax
    9785:	3b 45 e4             	cmp    -0x1c(%rbp),%eax
    9788:	7c da                	jl     9764 <transparent_crc_bytes+0x23>
    978a:	83 7d e0 00          	cmpl   $0x0,-0x20(%rbp)
    978e:	74 22                	je     97b2 <transparent_crc_bytes+0x71>
    9790:	8b 05 8a 88 01 00    	mov    0x1888a(%rip),%eax        # 22020 <crc32_context>
    9796:	f7 d0                	not    %eax
    9798:	89 c2                	mov    %eax,%edx
    979a:	48 8b 45 d8          	mov    -0x28(%rbp),%rax
    979e:	48 89 c6             	mov    %rax,%rsi
    97a1:	48 8d 3d 88 28 01 00 	lea    0x12888(%rip),%rdi        # 1c030 <_IO_stdin_used+0x30>
    97a8:	b8 00 00 00 00       	mov    $0x0,%eax
    97ad:	e8 ce e8 ff ff       	callq  8080 <printf@plt>
    97b2:	90                   	nop
    97b3:	c9                   	leaveq 
    97b4:	c3                   	retq   

00000000000097b5 <func_1>:
    97b5:	f3 0f 1e fa          	endbr64 
    97b9:	55                   	push   %rbp
    97ba:	48 89 e5             	mov    %rsp,%rbp
    97bd:	41 57                	push   %r15
    97bf:	41 56                	push   %r14
    97c1:	41 55                	push   %r13
    97c3:	41 54                	push   %r12
    97c5:	53                   	push   %rbx
    97c6:	48 81 ec 68 0f 00 00 	sub    $0xf68,%rsp
    97cd:	64 48 8b 04 25 28 00 	mov    %fs:0x28,%rax
    97d4:	00 00 
    97d6:	48 89 45 c8          	mov    %rax,-0x38(%rbp)
    97da:	31 c0                	xor    %eax,%eax
    97dc:	48 8d 05 fd 91 01 00 	lea    0x191fd(%rip),%rax        # 229e0 <g_13>
    97e3:	48 89 85 30 f1 ff ff 	mov    %rax,-0xed0(%rbp)
    97ea:	48 8d 05 f0 91 01 00 	lea    0x191f0(%rip),%rax        # 229e1 <g_15>
    97f1:	48 89 85 b0 f3 ff ff 	mov    %rax,-0xc50(%rbp)
    97f8:	48 8d 05 e2 91 01 00 	lea    0x191e2(%rip),%rax        # 229e1 <g_15>
    97ff:	48 89 85 b8 f3 ff ff 	mov    %rax,-0xc48(%rbp)
    9806:	48 8d 05 d4 91 01 00 	lea    0x191d4(%rip),%rax        # 229e1 <g_15>
    980d:	48 89 85 c0 f3 ff ff 	mov    %rax,-0xc40(%rbp)
    9814:	48 8d 05 c6 91 01 00 	lea    0x191c6(%rip),%rax        # 229e1 <g_15>
    981b:	48 89 85 c8 f3 ff ff 	mov    %rax,-0xc38(%rbp)
    9822:	48 8d 05 b8 91 01 00 	lea    0x191b8(%rip),%rax        # 229e1 <g_15>
    9829:	48 89 85 d0 f3 ff ff 	mov    %rax,-0xc30(%rbp)
    9830:	48 8d 05 aa 91 01 00 	lea    0x191aa(%rip),%rax        # 229e1 <g_15>
    9837:	48 89 85 d8 f3 ff ff 	mov    %rax,-0xc28(%rbp)
    983e:	48 8d 05 9c 91 01 00 	lea    0x1919c(%rip),%rax        # 229e1 <g_15>
    9845:	48 89 85 e0 f3 ff ff 	mov    %rax,-0xc20(%rbp)
    984c:	48 8d 05 8e 91 01 00 	lea    0x1918e(%rip),%rax        # 229e1 <g_15>
    9853:	48 89 85 e8 f3 ff ff 	mov    %rax,-0xc18(%rbp)
    985a:	c7 85 84 f0 ff ff b2 	movl   $0x219839b2,-0xf7c(%rbp)
    9861:	39 98 21 
    9864:	c7 85 c0 f0 ff ff ff 	movl   $0xffffffff,-0xf40(%rbp)
    986b:	ff ff ff 
    986e:	c7 85 c4 f0 ff ff ff 	movl   $0xffffffff,-0xf3c(%rbp)
    9875:	ff ff ff 
    9878:	c6 85 76 f0 ff ff d1 	movb   $0xd1,-0xf8a(%rbp)
    987f:	48 c7 85 38 f1 ff ff 	movq   $0x0,-0xec8(%rbp)
    9886:	00 00 00 00 
    988a:	48 8d 05 5f bd 01 00 	lea    0x1bd5f(%rip),%rax        # 255f0 <g_4305>
    9891:	48 89 85 40 f1 ff ff 	mov    %rax,-0xec0(%rbp)
    9898:	48 8d 05 19 bd 01 00 	lea    0x1bd19(%rip),%rax        # 255b8 <g_4015+0x18>
    989f:	48 89 85 48 f1 ff ff 	mov    %rax,-0xeb8(%rbp)
    98a6:	66 c7 85 0e f3 ff ff 	movw   $0xffff,-0xcf2(%rbp)
    98ad:	ff ff 
    98af:	66 c7 85 10 f3 ff ff 	movw   $0xffff,-0xcf0(%rbp)
    98b6:	ff ff 
    98b8:	66 c7 85 12 f3 ff ff 	movw   $0xffff,-0xcee(%rbp)
    98bf:	ff ff 
    98c1:	66 c7 85 14 f3 ff ff 	movw   $0xffff,-0xcec(%rbp)
    98c8:	ff ff 
    98ca:	c7 85 c8 f0 ff ff 01 	movl   $0x1,-0xf38(%rbp)
    98d1:	00 00 00 
    98d4:	48 8d 85 80 f7 ff ff 	lea    -0x880(%rbp),%rax
    98db:	48 8d 15 1e 28 01 00 	lea    0x1281e(%rip),%rdx        # 1c100 <g_4277+0x40>
    98e2:	b9 54 00 00 00       	mov    $0x54,%ecx
    98e7:	48 89 c7             	mov    %rax,%rdi
    98ea:	48 89 d6             	mov    %rdx,%rsi
    98ed:	f3 48 a5             	rep movsq %ds:(%rsi),%es:(%rdi)
    98f0:	66 c7 85 7e f0 ff ff 	movw   $0xaa2f,-0xf82(%rbp)
    98f7:	2f aa 
    98f9:	48 8d 05 80 9a 01 00 	lea    0x19a80(%rip),%rax        # 23380 <g_2519>
    9900:	48 89 85 f8 f0 ff ff 	mov    %rax,-0xf08(%rbp)
    9907:	48 8d 85 f8 f0 ff ff 	lea    -0xf08(%rbp),%rax
    990e:	48 89 85 50 f1 ff ff 	mov    %rax,-0xeb0(%rbp)
    9915:	c7 85 08 f3 ff ff 00 	movl   $0x0,-0xcf8(%rbp)
    991c:	00 00 00 
    991f:	48 8d 05 12 cd 01 00 	lea    0x1cd12(%rip),%rax        # 26638 <g_2955>
    9926:	48 89 85 58 f1 ff ff 	mov    %rax,-0xea8(%rbp)
    992d:	48 8d 05 8c cc 01 00 	lea    0x1cc8c(%rip),%rax        # 265c0 <g_1145>
    9934:	48 89 85 60 f3 ff ff 	mov    %rax,-0xca0(%rbp)
    993b:	48 8d 05 7e cc 01 00 	lea    0x1cc7e(%rip),%rax        # 265c0 <g_1145>
    9942:	48 89 85 68 f3 ff ff 	mov    %rax,-0xc98(%rbp)
    9949:	48 8d 05 70 cc 01 00 	lea    0x1cc70(%rip),%rax        # 265c0 <g_1145>
    9950:	48 89 85 70 f3 ff ff 	mov    %rax,-0xc90(%rbp)
    9957:	48 8d 05 62 cc 01 00 	lea    0x1cc62(%rip),%rax        # 265c0 <g_1145>
    995e:	48 89 85 78 f3 ff ff 	mov    %rax,-0xc88(%rbp)
    9965:	48 c7 85 60 f1 ff ff 	movq   $0x1,-0xea0(%rbp)
    996c:	01 00 00 00 
    9970:	c7 85 cc f0 ff ff b9 	movl   $0x7da65eb9,-0xf34(%rbp)
    9977:	5e a6 7d 
    997a:	48 8d 05 ec 99 01 00 	lea    0x199ec(%rip),%rax        # 2336d <g_2134+0x5>
    9981:	48 89 85 00 f1 ff ff 	mov    %rax,-0xf00(%rbp)
    9988:	48 8d 85 00 f1 ff ff 	lea    -0xf00(%rbp),%rax
    998f:	48 89 85 68 f1 ff ff 	mov    %rax,-0xe98(%rbp)
    9996:	48 8d 05 73 cc 01 00 	lea    0x1cc73(%rip),%rax        # 26610 <g_1618>
    999d:	48 89 85 70 f1 ff ff 	mov    %rax,-0xe90(%rbp)
    99a4:	c7 85 d0 f0 ff ff 0b 	movl   $0xee257c0b,-0xf30(%rbp)
    99ab:	7c 25 ee 
    99ae:	c7 85 90 f0 ff ff 00 	movl   $0x0,-0xf70(%rbp)
    99b5:	00 00 00 
    99b8:	eb 1b                	jmp    99d5 <func_1+0x220>
    99ba:	8b 85 90 f0 ff ff    	mov    -0xf70(%rbp),%eax
    99c0:	48 98                	cltq   
    99c2:	48 c7 84 c5 70 f4 ff 	movq   $0x0,-0xb90(%rbp,%rax,8)
    99c9:	ff 00 00 00 00 
    99ce:	83 85 90 f0 ff ff 01 	addl   $0x1,-0xf70(%rbp)
    99d5:	83 bd 90 f0 ff ff 08 	cmpl   $0x8,-0xf70(%rbp)
    99dc:	7e dc                	jle    99ba <func_1+0x205>
    99de:	c7 85 90 f0 ff ff 00 	movl   $0x0,-0xf70(%rbp)
    99e5:	00 00 00 
    99e8:	eb 46                	jmp    9a30 <func_1+0x27b>
    99ea:	c7 85 94 f0 ff ff 00 	movl   $0x0,-0xf6c(%rbp)
    99f1:	00 00 00 
    99f4:	eb 2a                	jmp    9a20 <func_1+0x26b>
    99f6:	8b 85 94 f0 ff ff    	mov    -0xf6c(%rbp),%eax
    99fc:	48 63 d0             	movslq %eax,%rdx
    99ff:	8b 85 90 f0 ff ff    	mov    -0xf70(%rbp),%eax
    9a05:	48 98                	cltq   
    9a07:	48 01 d0             	add    %rdx,%rax
    9a0a:	48 8d 15 17 cc 01 00 	lea    0x1cc17(%rip),%rdx        # 26628 <g_2142>
    9a11:	48 89 94 c5 c0 f4 ff 	mov    %rdx,-0xb40(%rbp,%rax,8)
    9a18:	ff 
    9a19:	83 85 94 f0 ff ff 01 	addl   $0x1,-0xf6c(%rbp)
    9a20:	83 bd 94 f0 ff ff 00 	cmpl   $0x0,-0xf6c(%rbp)
    9a27:	7e cd                	jle    99f6 <func_1+0x241>
    9a29:	83 85 90 f0 ff ff 01 	addl   $0x1,-0xf70(%rbp)
    9a30:	83 bd 90 f0 ff ff 08 	cmpl   $0x8,-0xf70(%rbp)
    9a37:	7e b1                	jle    99ea <func_1+0x235>
    9a39:	c7 85 90 f0 ff ff 00 	movl   $0x0,-0xf70(%rbp)
    9a40:	00 00 00 
    9a43:	eb 19                	jmp    9a5e <func_1+0x2a9>
    9a45:	8b 85 90 f0 ff ff    	mov    -0xf70(%rbp),%eax
    9a4b:	48 98                	cltq   
    9a4d:	66 c7 84 45 20 f3 ff 	movw   $0xffff,-0xce0(%rbp,%rax,2)
    9a54:	ff ff ff 
    9a57:	83 85 90 f0 ff ff 01 	addl   $0x1,-0xf70(%rbp)
    9a5e:	83 bd 90 f0 ff ff 08 	cmpl   $0x8,-0xf70(%rbp)
    9a65:	7e de                	jle    9a45 <func_1+0x290>
    9a67:	48 8b 05 e2 8a 01 00 	mov    0x18ae2(%rip),%rax        # 22550 <g_3+0x350>
    9a6e:	44 0f bf e0          	movswl %ax,%r12d
    9a72:	48 8b 05 d7 8a 01 00 	mov    0x18ad7(%rip),%rax        # 22550 <g_3+0x350>
    9a79:	0f b6 d8             	movzbl %al,%ebx
    9a7c:	48 8b 05 cd 8a 01 00 	mov    0x18acd(%rip),%rax        # 22550 <g_3+0x350>
    9a83:	48 be 14 69 2c ce a6 	movabs $0xe7469ba6ce2c6914,%rsi
    9a8a:	9b 46 e7 
    9a8d:	48 89 c7             	mov    %rax,%rdi
    9a90:	e8 62 ef ff ff       	callq  89f7 <safe_div_func_int64_t_s_s>
    9a95:	89 c2                	mov    %eax,%edx
    9a97:	48 8b 85 30 f1 ff ff 	mov    -0xed0(%rbp),%rax
    9a9e:	88 10                	mov    %dl,(%rax)
    9aa0:	48 8b 85 30 f1 ff ff 	mov    -0xed0(%rbp),%rax
    9aa7:	0f b6 00             	movzbl (%rax),%eax
    9aaa:	88 05 31 8f 01 00    	mov    %al,0x18f31(%rip)        # 229e1 <g_15>
    9ab0:	0f b6 05 2a 8f 01 00 	movzbl 0x18f2a(%rip),%eax        # 229e1 <g_15>
    9ab7:	0f b6 c0             	movzbl %al,%eax
    9aba:	89 c6                	mov    %eax,%esi
    9abc:	bf 01 00 00 00       	mov    $0x1,%edi
    9ac1:	e8 cd f0 ff ff       	callq  8b93 <safe_mul_func_uint8_t_u_u>
    9ac6:	0f b6 c0             	movzbl %al,%eax
    9ac9:	48 ba df d1 48 10 ba 	movabs $0x5efcbaba1048d1df,%rdx
    9ad0:	ba fc 5e 
    9ad3:	48 09 c2             	or     %rax,%rdx
    9ad6:	8b 85 84 f0 ff ff    	mov    -0xf7c(%rbp),%eax
    9adc:	48 98                	cltq   
    9ade:	48 39 c2             	cmp    %rax,%rdx
    9ae1:	0f 95 c0             	setne  %al
    9ae4:	0f b6 d0             	movzbl %al,%edx
    9ae7:	8b 85 84 f0 ff ff    	mov    -0xf7c(%rbp),%eax
    9aed:	39 c2                	cmp    %eax,%edx
    9aef:	0f 9d c0             	setge  %al
    9af2:	0f b6 c0             	movzbl %al,%eax
    9af5:	44 89 e2             	mov    %r12d,%edx
    9af8:	89 de                	mov    %ebx,%esi
    9afa:	89 c7                	mov    %eax,%edi
    9afc:	e8 55 19 00 00       	callq  b456 <func_4>
    9b01:	8b 05 29 86 01 00    	mov    0x18629(%rip),%eax        # 22130 <g_2+0xf0>
    9b07:	89 c2                	mov    %eax,%edx
    9b09:	48 8b 05 40 8a 01 00 	mov    0x18a40(%rip),%rax        # 22550 <g_3+0x350>
    9b10:	48 39 c2             	cmp    %rax,%rdx
    9b13:	0f 95 c0             	setne  %al
    9b16:	0f b6 d0             	movzbl %al,%edx
    9b19:	8b 85 84 f0 ff ff    	mov    -0xf7c(%rbp),%eax
    9b1f:	39 c2                	cmp    %eax,%edx
    9b21:	0f 8e a3 0e 00 00    	jle    a9ca <func_1+0x1215>
    9b27:	48 b8 8c ed d5 2e e1 	movabs $0xf61453e12ed5ed8c,%rax
    9b2e:	53 14 f6 
    9b31:	48 89 85 e0 f1 ff ff 	mov    %rax,-0xe20(%rbp)
    9b38:	c7 85 98 f0 ff ff 40 	movl   $0x62a07e40,-0xf68(%rbp)
    9b3f:	7e a0 62 
    9b42:	c7 85 e0 f0 ff ff 09 	movl   $0x9,-0xf20(%rbp)
    9b49:	00 00 00 
    9b4c:	c7 85 88 f0 ff ff 01 	movl   $0x1,-0xf78(%rbp)
    9b53:	00 00 00 
    9b56:	48 c7 85 e8 f1 ff ff 	movq   $0x0,-0xe18(%rbp)
    9b5d:	00 00 00 00 
    9b61:	48 8d 05 10 cb 01 00 	lea    0x1cb10(%rip),%rax        # 26678 <g_3791>
    9b68:	48 89 85 08 f1 ff ff 	mov    %rax,-0xef8(%rbp)
    9b6f:	48 8d 85 08 f1 ff ff 	lea    -0xef8(%rbp),%rax
    9b76:	48 89 85 10 f1 ff ff 	mov    %rax,-0xef0(%rbp)
    9b7d:	48 8d 85 10 f1 ff ff 	lea    -0xef0(%rbp),%rax
    9b84:	48 89 85 18 f1 ff ff 	mov    %rax,-0xee8(%rbp)
    9b8b:	48 8d 85 18 f1 ff ff 	lea    -0xee8(%rbp),%rax
    9b92:	48 89 85 f0 f1 ff ff 	mov    %rax,-0xe10(%rbp)
    9b99:	c7 85 9c f0 ff ff 00 	movl   $0x0,-0xf64(%rbp)
    9ba0:	00 00 00 
    9ba3:	eb 19                	jmp    9bbe <func_1+0x409>
    9ba5:	8b 85 9c f0 ff ff    	mov    -0xf64(%rbp),%eax
    9bab:	48 98                	cltq   
    9bad:	66 c7 84 45 06 f3 ff 	movw   $0x20b7,-0xcfa(%rbp,%rax,2)
    9bb4:	ff b7 20 
    9bb7:	83 85 9c f0 ff ff 01 	addl   $0x1,-0xf64(%rbp)
    9bbe:	83 bd 9c f0 ff ff 00 	cmpl   $0x0,-0xf64(%rbp)
    9bc5:	7e de                	jle    9ba5 <func_1+0x3f0>
    9bc7:	c7 85 9c f0 ff ff 00 	movl   $0x0,-0xf64(%rbp)
    9bce:	00 00 00 
    9bd1:	eb 19                	jmp    9bec <func_1+0x437>
    9bd3:	8b 85 9c f0 ff ff    	mov    -0xf64(%rbp),%eax
    9bd9:	48 98                	cltq   
    9bdb:	66 c7 84 45 16 f3 ff 	movw   $0xd611,-0xcea(%rbp,%rax,2)
    9be2:	ff 11 d6 
    9be5:	83 85 9c f0 ff ff 01 	addl   $0x1,-0xf64(%rbp)
    9bec:	83 bd 9c f0 ff ff 04 	cmpl   $0x4,-0xf64(%rbp)
    9bf3:	7e de                	jle    9bd3 <func_1+0x41e>
    9bf5:	c7 85 9c f0 ff ff 00 	movl   $0x0,-0xf64(%rbp)
    9bfc:	00 00 00 
    9bff:	eb 4d                	jmp    9c4e <func_1+0x499>
    9c01:	c7 85 a0 f0 ff ff 00 	movl   $0x0,-0xf60(%rbp)
    9c08:	00 00 00 
    9c0b:	eb 31                	jmp    9c3e <func_1+0x489>
    9c0d:	8b 85 a0 f0 ff ff    	mov    -0xf60(%rbp),%eax
    9c13:	48 63 c8             	movslq %eax,%rcx
    9c16:	8b 85 9c f0 ff ff    	mov    -0xf64(%rbp),%eax
    9c1c:	48 63 d0             	movslq %eax,%rdx
    9c1f:	48 89 d0             	mov    %rdx,%rax
    9c22:	48 c1 e0 02          	shl    $0x2,%rax
    9c26:	48 01 d0             	add    %rdx,%rax
    9c29:	48 01 c8             	add    %rcx,%rax
    9c2c:	c7 84 85 60 f5 ff ff 	movl   $0xf051cd8b,-0xaa0(%rbp,%rax,4)
    9c33:	8b cd 51 f0 
    9c37:	83 85 a0 f0 ff ff 01 	addl   $0x1,-0xf60(%rbp)
    9c3e:	83 bd a0 f0 ff ff 04 	cmpl   $0x4,-0xf60(%rbp)
    9c45:	7e c6                	jle    9c0d <func_1+0x458>
    9c47:	83 85 9c f0 ff ff 01 	addl   $0x1,-0xf64(%rbp)
    9c4e:	83 bd 9c f0 ff ff 09 	cmpl   $0x9,-0xf64(%rbp)
    9c55:	7e aa                	jle    9c01 <func_1+0x44c>
    9c57:	c7 85 9c f0 ff ff 00 	movl   $0x0,-0xf64(%rbp)
    9c5e:	00 00 00 
    9c61:	eb 45                	jmp    9ca8 <func_1+0x4f3>
    9c63:	c7 85 a0 f0 ff ff 00 	movl   $0x0,-0xf60(%rbp)
    9c6a:	00 00 00 
    9c6d:	eb 29                	jmp    9c98 <func_1+0x4e3>
    9c6f:	8b 85 a0 f0 ff ff    	mov    -0xf60(%rbp),%eax
    9c75:	48 98                	cltq   
    9c77:	8b 95 9c f0 ff ff    	mov    -0xf64(%rbp),%edx
    9c7d:	48 63 d2             	movslq %edx,%rdx
    9c80:	48 01 d2             	add    %rdx,%rdx
    9c83:	48 01 d0             	add    %rdx,%rax
    9c86:	c7 84 85 10 f5 ff ff 	movl   $0x3,-0xaf0(%rbp,%rax,4)
    9c8d:	03 00 00 00 
    9c91:	83 85 a0 f0 ff ff 01 	addl   $0x1,-0xf60(%rbp)
    9c98:	83 bd a0 f0 ff ff 01 	cmpl   $0x1,-0xf60(%rbp)
    9c9f:	7e ce                	jle    9c6f <func_1+0x4ba>
    9ca1:	83 85 9c f0 ff ff 01 	addl   $0x1,-0xf64(%rbp)
    9ca8:	83 bd 9c f0 ff ff 08 	cmpl   $0x8,-0xf64(%rbp)
    9caf:	7e b2                	jle    9c63 <func_1+0x4ae>
    9cb1:	66 c7 05 5e c9 01 00 	movw   $0x6,0x1c95e(%rip)        # 26618 <g_1702>
    9cb8:	06 00 
    9cba:	e9 69 06 00 00       	jmpq   a328 <func_1+0xb73>
    9cbf:	c7 85 f0 f0 ff ff fe 	movl   $0xfffffffe,-0xf10(%rbp)
    9cc6:	ff ff ff 
    9cc9:	c7 85 80 f3 ff ff 09 	movl   $0x9,-0xc80(%rbp)
    9cd0:	00 00 00 
    9cd3:	c7 85 84 f3 ff ff 00 	movl   $0x0,-0xc7c(%rbp)
    9cda:	00 00 00 
    9cdd:	c7 85 88 f3 ff ff 09 	movl   $0x9,-0xc78(%rbp)
    9ce4:	00 00 00 
    9ce7:	c7 85 8c f3 ff ff 09 	movl   $0x9,-0xc74(%rbp)
    9cee:	00 00 00 
    9cf1:	c7 85 90 f3 ff ff 00 	movl   $0x0,-0xc70(%rbp)
    9cf8:	00 00 00 
    9cfb:	c7 85 94 f3 ff ff 09 	movl   $0x9,-0xc6c(%rbp)
    9d02:	00 00 00 
    9d05:	c7 85 98 f3 ff ff 09 	movl   $0x9,-0xc68(%rbp)
    9d0c:	00 00 00 
    9d0f:	c7 85 9c f3 ff ff 00 	movl   $0x0,-0xc64(%rbp)
    9d16:	00 00 00 
    9d19:	c7 85 a0 f3 ff ff 09 	movl   $0x9,-0xc60(%rbp)
    9d20:	00 00 00 
    9d23:	c7 85 a4 f3 ff ff 09 	movl   $0x9,-0xc5c(%rbp)
    9d2a:	00 00 00 
    9d2d:	c6 85 77 f0 ff ff ff 	movb   $0xff,-0xf89(%rbp)
    9d34:	48 8d 85 80 f3 ff ff 	lea    -0xc80(%rbp),%rax
    9d3b:	48 83 c0 14          	add    $0x14,%rax
    9d3f:	48 89 85 90 f2 ff ff 	mov    %rax,-0xd70(%rbp)
    9d46:	48 b8 f3 af b6 4e fb 	movabs $0x23fe81fb4eb6aff3,%rax
    9d4d:	81 fe 23 
    9d50:	48 89 85 98 f2 ff ff 	mov    %rax,-0xd68(%rbp)
    9d57:	48 8d 05 6a bf 01 00 	lea    0x1bf6a(%rip),%rax        # 25cc8 <g_4494+0x8>
    9d5e:	48 89 85 a0 f2 ff ff 	mov    %rax,-0xd60(%rbp)
    9d65:	48 c7 85 a8 f2 ff ff 	movq   $0x5,-0xd58(%rbp)
    9d6c:	05 00 00 00 
    9d70:	48 c7 85 b0 f2 ff ff 	movq   $0xffffffffffffffff,-0xd50(%rbp)
    9d77:	ff ff ff ff 
    9d7b:	c7 85 a4 f0 ff ff 00 	movl   $0x0,-0xf5c(%rbp)
    9d82:	00 00 00 
    9d85:	eb 1e                	jmp    9da5 <func_1+0x5f0>
    9d87:	8b 85 a4 f0 ff ff    	mov    -0xf5c(%rbp),%eax
    9d8d:	48 98                	cltq   
    9d8f:	48 8d 15 a2 97 01 00 	lea    0x197a2(%rip),%rdx        # 23538 <g_3407+0x18>
    9d96:	48 89 94 c5 30 f4 ff 	mov    %rdx,-0xbd0(%rbp,%rax,8)
    9d9d:	ff 
    9d9e:	83 85 a4 f0 ff ff 01 	addl   $0x1,-0xf5c(%rbp)
    9da5:	83 bd a4 f0 ff ff 05 	cmpl   $0x5,-0xf5c(%rbp)
    9dac:	7e d9                	jle    9d87 <func_1+0x5d2>
    9dae:	c7 85 a4 f0 ff ff 00 	movl   $0x0,-0xf5c(%rbp)
    9db5:	00 00 00 
    9db8:	eb 1e                	jmp    9dd8 <func_1+0x623>
    9dba:	8b 85 a4 f0 ff ff    	mov    -0xf5c(%rbp),%eax
    9dc0:	48 98                	cltq   
    9dc2:	48 8d 15 39 8c 01 00 	lea    0x18c39(%rip),%rdx        # 22a02 <g_88>
    9dc9:	48 89 94 c5 f0 f3 ff 	mov    %rdx,-0xc10(%rbp,%rax,8)
    9dd0:	ff 
    9dd1:	83 85 a4 f0 ff ff 01 	addl   $0x1,-0xf5c(%rbp)
    9dd8:	83 bd a4 f0 ff ff 04 	cmpl   $0x4,-0xf5c(%rbp)
    9ddf:	7e d9                	jle    9dba <func_1+0x605>
    9de1:	66 c7 05 66 95 01 00 	movw   $0x0,0x19566(%rip)        # 23350 <g_1985>
    9de8:	00 00 
    9dea:	e9 65 04 00 00       	jmpq   a254 <func_1+0xa9f>
    9def:	c6 85 7b f0 ff ff 00 	movb   $0x0,-0xf85(%rbp)
    9df6:	48 8d 05 70 95 01 00 	lea    0x19570(%rip),%rax        # 2336d <g_2134+0x5>
    9dfd:	48 89 85 b8 f2 ff ff 	mov    %rax,-0xd48(%rbp)
    9e04:	48 8d 05 2d b0 01 00 	lea    0x1b02d(%rip),%rax        # 24e38 <g_2823>
    9e0b:	48 89 85 20 f1 ff ff 	mov    %rax,-0xee0(%rbp)
    9e12:	48 8d 85 20 f1 ff ff 	lea    -0xee0(%rbp),%rax
    9e19:	48 89 85 c0 f2 ff ff 	mov    %rax,-0xd40(%rbp)
    9e20:	c7 85 40 f3 ff ff cf 	movl   $0x74b316cf,-0xcc0(%rbp)
    9e27:	16 b3 74 
    9e2a:	c7 85 44 f3 ff ff cf 	movl   $0x74b316cf,-0xcbc(%rbp)
    9e31:	16 b3 74 
    9e34:	c7 85 48 f3 ff ff cf 	movl   $0x74b316cf,-0xcb8(%rbp)
    9e3b:	16 b3 74 
    9e3e:	c7 85 4c f3 ff ff cf 	movl   $0x74b316cf,-0xcb4(%rbp)
    9e45:	16 b3 74 
    9e48:	c7 85 50 f3 ff ff cf 	movl   $0x74b316cf,-0xcb0(%rbp)
    9e4f:	16 b3 74 
    9e52:	48 c7 85 c8 f2 ff ff 	movq   $0x2,-0xd38(%rbp)
    9e59:	02 00 00 00 
    9e5d:	48 8d 85 80 f3 ff ff 	lea    -0xc80(%rbp),%rax
    9e64:	48 83 c0 0c          	add    $0xc,%rax
    9e68:	48 89 85 d0 f2 ff ff 	mov    %rax,-0xd30(%rbp)
    9e6f:	48 83 bd e0 f1 ff ff 	cmpq   $0x0,-0xe20(%rbp)
    9e76:	00 
    9e77:	8b 05 d7 96 01 00    	mov    0x196d7(%rip),%eax        # 23554 <g_4416>
    9e7d:	c7 85 94 f3 ff ff 00 	movl   $0x0,-0xc6c(%rbp)
    9e84:	00 00 00 
    9e87:	c7 05 cf 94 01 00 00 	movl   $0x0,0x194cf(%rip)        # 23360 <g_2085>
    9e8e:	00 00 00 
    9e91:	e9 9e 03 00 00       	jmpq   a234 <func_1+0xa7f>
    9e96:	48 8d 05 17 95 01 00 	lea    0x19517(%rip),%rax        # 233b4 <g_2852>
    9e9d:	48 89 85 d8 f2 ff ff 	mov    %rax,-0xd28(%rbp)
    9ea4:	c7 85 8c f0 ff ff 06 	movl   $0x122506,-0xf74(%rbp)
    9eab:	25 12 00 
    9eae:	48 8d 05 cf 8d 01 00 	lea    0x18dcf(%rip),%rax        # 22c84 <g_1128+0x44>
    9eb5:	48 89 85 e0 f2 ff ff 	mov    %rax,-0xd20(%rbp)
    9ebc:	66 c7 85 82 f0 ff ff 	movw   $0xd6,-0xf7e(%rbp)
    9ec3:	d6 00 
    9ec5:	48 8d 05 ac c7 01 00 	lea    0x1c7ac(%rip),%rax        # 26678 <g_3791>
    9ecc:	48 89 85 28 f1 ff ff 	mov    %rax,-0xed8(%rbp)
    9ed3:	c7 85 f4 f0 ff ff 00 	movl   $0x0,-0xf0c(%rbp)
    9eda:	00 00 00 
    9edd:	48 8d 05 a0 8d 01 00 	lea    0x18da0(%rip),%rax        # 22c84 <g_1128+0x44>
    9ee4:	48 89 85 e8 f2 ff ff 	mov    %rax,-0xd18(%rbp)
    9eeb:	48 8b 05 36 af 01 00 	mov    0x1af36(%rip),%rax        # 24e28 <g_2550>
    9ef2:	8b 10                	mov    (%rax),%edx
    9ef4:	8b 05 66 8b 01 00    	mov    0x18b66(%rip),%eax        # 22a60 <g_341>
    9efa:	31 d0                	xor    %edx,%eax
    9efc:	89 05 5e 8b 01 00    	mov    %eax,0x18b5e(%rip)        # 22a60 <g_341>
    9f02:	0f b7 95 06 f3 ff ff 	movzwl -0xcfa(%rbp),%edx
    9f09:	48 8b 05 98 ab 01 00 	mov    0x1ab98(%rip),%rax        # 24aa8 <g_725>
    9f10:	48 8b 00             	mov    (%rax),%rax
    9f13:	48 0f bf d2          	movswq %dx,%rdx
    9f17:	48 89 10             	mov    %rdx,(%rax)
    9f1a:	48 8b 00             	mov    (%rax),%rax
    9f1d:	48 85 c0             	test   %rax,%rax
    9f20:	74 33                	je     9f55 <func_1+0x7a0>
    9f22:	48 8b 85 d8 f2 ff ff 	mov    -0xd28(%rbp),%rax
    9f29:	8b 00                	mov    (%rax),%eax
    9f2b:	8d 50 01             	lea    0x1(%rax),%edx
    9f2e:	48 8b 85 d8 f2 ff ff 	mov    -0xd28(%rbp),%rax
    9f35:	89 10                	mov    %edx,(%rax)
    9f37:	48 8b 85 d8 f2 ff ff 	mov    -0xd28(%rbp),%rax
    9f3e:	8b 00                	mov    (%rax),%eax
    9f40:	85 c0                	test   %eax,%eax
    9f42:	75 0a                	jne    9f4e <func_1+0x799>
    9f44:	8b 85 8c f0 ff ff    	mov    -0xf74(%rbp),%eax
    9f4a:	85 c0                	test   %eax,%eax
    9f4c:	74 07                	je     9f55 <func_1+0x7a0>
    9f4e:	b9 01 00 00 00       	mov    $0x1,%ecx
    9f53:	eb 05                	jmp    9f5a <func_1+0x7a5>
    9f55:	b9 00 00 00 00       	mov    $0x0,%ecx
    9f5a:	48 8b 05 e7 ae 01 00 	mov    0x1aee7(%rip),%rax        # 24e48 <g_2832>
    9f61:	48 8b 00             	mov    (%rax),%rax
    9f64:	0f b6 10             	movzbl (%rax),%edx
    9f67:	48 8b 05 da ae 01 00 	mov    0x1aeda(%rip),%rax        # 24e48 <g_2832>
    9f6e:	48 8b 00             	mov    (%rax),%rax
    9f71:	21 ca                	and    %ecx,%edx
    9f73:	88 10                	mov    %dl,(%rax)
    9f75:	8b 05 45 52 01 00    	mov    0x15245(%rip),%eax        # 1f1c0 <l_4431.4197+0x10>
    9f7b:	0f be c0             	movsbl %al,%eax
    9f7e:	be 01 00 00 00       	mov    $0x1,%esi
    9f83:	89 c7                	mov    %eax,%edi
    9f85:	e8 88 e2 ff ff       	callq  8212 <safe_mul_func_int8_t_s_s>
    9f8a:	8b 85 94 f3 ff ff    	mov    -0xc6c(%rbp),%eax
    9f90:	0f be d8             	movsbl %al,%ebx
    9f93:	44 8b a5 84 f3 ff ff 	mov    -0xc7c(%rbp),%r12d
    9f9a:	4c 0f be ad 7b f0 ff 	movsbq -0xf85(%rbp),%r13
    9fa1:	ff 
    9fa2:	8b 85 f0 f0 ff ff    	mov    -0xf10(%rbp),%eax
    9fa8:	35 4a cd 5b 40       	xor    $0x405bcd4a,%eax
    9fad:	89 c2                	mov    %eax,%edx
    9faf:	0f b7 85 1a f3 ff ff 	movzwl -0xce6(%rbp),%eax
    9fb6:	0f b7 c0             	movzwl %ax,%eax
    9fb9:	39 c2                	cmp    %eax,%edx
    9fbb:	73 07                	jae    9fc4 <func_1+0x80f>
    9fbd:	b8 77 00 00 00       	mov    $0x77,%eax
    9fc2:	eb 05                	jmp    9fc9 <func_1+0x814>
    9fc4:	b8 76 00 00 00       	mov    $0x76,%eax
    9fc9:	be 07 00 00 00       	mov    $0x7,%esi
    9fce:	89 c7                	mov    %eax,%edi
    9fd0:	e8 b8 ec ff ff       	callq  8c8d <safe_rshift_func_uint8_t_u_s>
    9fd5:	0f b6 c0             	movzbl %al,%eax
    9fd8:	be 09 00 00 00       	mov    $0x9,%esi
    9fdd:	89 c7                	mov    %eax,%edi
    9fdf:	e8 d4 ee ff ff       	callq  8eb8 <safe_add_func_uint32_t_u_u>
    9fe4:	0f b7 c0             	movzwl %ax,%eax
    9fe7:	be 01 00 00 00       	mov    $0x1,%esi
    9fec:	89 c7                	mov    %eax,%edi
    9fee:	e8 55 ee ff ff       	callq  8e48 <safe_rshift_func_uint16_t_u_s>
    9ff3:	0f b7 c0             	movzwl %ax,%eax
    9ff6:	4c 89 ee             	mov    %r13,%rsi
    9ff9:	48 89 c7             	mov    %rax,%rdi
    9ffc:	e8 a7 e8 ff ff       	callq  88a8 <safe_sub_func_int64_t_s_s>
    a001:	98                   	cwtl   
    a002:	44 89 e6             	mov    %r12d,%esi
    a005:	89 c7                	mov    %eax,%edi
    a007:	e8 86 e4 ff ff       	callq  8492 <safe_lshift_func_int16_t_s_s>
    a00c:	98                   	cwtl   
    a00d:	39 85 c4 f0 ff ff    	cmp    %eax,-0xf3c(%rbp)
    a013:	0f 97 c0             	seta   %al
    a016:	0f b6 c0             	movzbl %al,%eax
    a019:	89 de                	mov    %ebx,%esi
    a01b:	89 c7                	mov    %eax,%edi
    a01d:	e8 f0 e1 ff ff       	callq  8212 <safe_mul_func_int8_t_s_s>
    a022:	8b 85 c0 f0 ff ff    	mov    -0xf40(%rbp),%eax
    a028:	0f b7 d0             	movzwl %ax,%edx
    a02b:	8b 85 c4 f0 ff ff    	mov    -0xf3c(%rbp),%eax
    a031:	0f b7 c0             	movzwl %ax,%eax
    a034:	89 d6                	mov    %edx,%esi
    a036:	89 c7                	mov    %eax,%edi
    a038:	e8 51 ed ff ff       	callq  8d8e <safe_div_func_uint16_t_u_u>
    a03d:	66 85 c0             	test   %ax,%ax
    a040:	75 0b                	jne    a04d <func_1+0x898>
    a042:	0f b6 85 76 f0 ff ff 	movzbl -0xf8a(%rbp),%eax
    a049:	84 c0                	test   %al,%al
    a04b:	74 07                	je     a054 <func_1+0x89f>
    a04d:	b8 01 00 00 00       	mov    $0x1,%eax
    a052:	eb 05                	jmp    a059 <func_1+0x8a4>
    a054:	b8 00 00 00 00       	mov    $0x0,%eax
    a059:	48 98                	cltq   
    a05b:	48 89 c7             	mov    %rax,%rdi
    a05e:	e8 b3 e7 ff ff       	callq  8816 <safe_unary_minus_func_int64_t_s>
    a063:	8b 15 57 51 01 00    	mov    0x15157(%rip),%edx        # 1f1c0 <l_4431.4197+0x10>
    a069:	48 63 d2             	movslq %edx,%rdx
    a06c:	48 39 d0             	cmp    %rdx,%rax
    a06f:	0f 9e c0             	setle  %al
    a072:	0f b6 d0             	movzbl %al,%edx
    a075:	8b 85 8c f3 ff ff    	mov    -0xc74(%rbp),%eax
    a07b:	39 c2                	cmp    %eax,%edx
    a07d:	48 8b 05 dc ad 01 00 	mov    0x1addc(%rip),%rax        # 24e60 <g_2926>
    a084:	48 8b 00             	mov    (%rax),%rax
    a087:	48 8b 00             	mov    (%rax),%rax
    a08a:	c7 00 ff ff ff ff    	movl   $0xffffffff,(%rax)
    a090:	8b 10                	mov    (%rax),%edx
    a092:	48 8b 85 e0 f2 ff ff 	mov    -0xd20(%rbp),%rax
    a099:	8b 00                	mov    (%rax),%eax
    a09b:	21 c2                	and    %eax,%edx
    a09d:	48 8b 85 e0 f2 ff ff 	mov    -0xd20(%rbp),%rax
    a0a4:	89 10                	mov    %edx,(%rax)
    a0a6:	80 bd 7b f0 ff ff 00 	cmpb   $0x0,-0xf85(%rbp)
    a0ad:	0f 84 13 01 00 00    	je     a1c6 <func_1+0xa11>
    a0b3:	48 8d 85 30 f6 ff ff 	lea    -0x9d0(%rbp),%rax
    a0ba:	48 83 c0 30          	add    $0x30,%rax
    a0be:	48 89 85 f0 f2 ff ff 	mov    %rax,-0xd10(%rbp)
    a0c5:	48 8d 85 20 fa ff ff 	lea    -0x5e0(%rbp),%rax
    a0cc:	48 8d 15 cd 22 01 00 	lea    0x122cd(%rip),%rdx        # 1c3a0 <g_4277+0x2e0>
    a0d3:	b9 7e 00 00 00       	mov    $0x7e,%ecx
    a0d8:	48 89 c7             	mov    %rax,%rdi
    a0db:	48 89 d6             	mov    %rdx,%rsi
    a0de:	f3 48 a5             	rep movsq %ds:(%rsi),%es:(%rdi)
    a0e1:	48 8d 85 28 f1 ff ff 	lea    -0xed8(%rbp),%rax
    a0e8:	48 89 85 f8 f2 ff ff 	mov    %rax,-0xd08(%rbp)
    a0ef:	c7 85 a8 f0 ff ff 00 	movl   $0x0,-0xf58(%rbp)
    a0f6:	00 00 00 
    a0f9:	eb 51                	jmp    a14c <func_1+0x997>
    a0fb:	c7 85 ac f0 ff ff 00 	movl   $0x0,-0xf54(%rbp)
    a102:	00 00 00 
    a105:	eb 35                	jmp    a13c <func_1+0x987>
    a107:	8b 85 ac f0 ff ff    	mov    -0xf54(%rbp),%eax
    a10d:	48 63 c8             	movslq %eax,%rcx
    a110:	8b 85 a8 f0 ff ff    	mov    -0xf58(%rbp),%eax
    a116:	48 63 d0             	movslq %eax,%rdx
    a119:	48 89 d0             	mov    %rdx,%rax
    a11c:	48 c1 e0 03          	shl    $0x3,%rax
    a120:	48 29 d0             	sub    %rdx,%rax
    a123:	48 01 c8             	add    %rcx,%rax
    a126:	48 8d 15 7b a9 01 00 	lea    0x1a97b(%rip),%rdx        # 24aa8 <g_725>
    a12d:	48 89 94 c5 30 f6 ff 	mov    %rdx,-0x9d0(%rbp,%rax,8)
    a134:	ff 
    a135:	83 85 ac f0 ff ff 01 	addl   $0x1,-0xf54(%rbp)
    a13c:	83 bd ac f0 ff ff 06 	cmpl   $0x6,-0xf54(%rbp)
    a143:	7e c2                	jle    a107 <func_1+0x952>
    a145:	83 85 a8 f0 ff ff 01 	addl   $0x1,-0xf58(%rbp)
    a14c:	83 bd a8 f0 ff ff 00 	cmpl   $0x0,-0xf58(%rbp)
    a153:	7e a6                	jle    a0fb <func_1+0x946>
    a155:	8b 85 f4 f0 ff ff    	mov    -0xf0c(%rbp),%eax
    a15b:	0f bf d8             	movswl %ax,%ebx
    a15e:	0f b7 85 06 f3 ff ff 	movzwl -0xcfa(%rbp),%eax
    a165:	48 0f bf d0          	movswq %ax,%rdx
    a169:	0f b6 8d 77 f0 ff ff 	movzbl -0xf89(%rbp),%ecx
    a170:	48 8d 05 11 7c 01 00 	lea    0x17c11(%rip),%rax        # 21d88 <g_2928+0xe8>
    a177:	48 8b 00             	mov    (%rax),%rax
    a17a:	0f be c9             	movsbl %cl,%ecx
    a17d:	89 08                	mov    %ecx,(%rax)
    a17f:	c7 85 84 f0 ff ff 89 	movl   $0xd05aa689,-0xf7c(%rbp)
    a186:	a6 5a d0 
    a189:	8b 85 40 f3 ff ff    	mov    -0xcc0(%rbp),%eax
    a18f:	48 98                	cltq   
    a191:	48 89 d6             	mov    %rdx,%rsi
    a194:	48 89 c7             	mov    %rax,%rdi
    a197:	e8 18 e8 ff ff       	callq  89b4 <safe_mod_func_int64_t_s_s>
    a19c:	98                   	cwtl   
    a19d:	89 de                	mov    %ebx,%esi
    a19f:	89 c7                	mov    %eax,%edi
    a1a1:	e8 70 e2 ff ff       	callq  8416 <safe_mod_func_int16_t_s_s>
    a1a6:	66 85 c0             	test   %ax,%ax
    a1a9:	0f 9f c0             	setg   %al
    a1ac:	0f b6 c0             	movzbl %al,%eax
    a1af:	be b0 bf 8d ec       	mov    $0xec8dbfb0,%esi
    a1b4:	89 c7                	mov    %eax,%edi
    a1b6:	e8 fd ec ff ff       	callq  8eb8 <safe_add_func_uint32_t_u_u>
    a1bb:	89 c0                	mov    %eax,%eax
    a1bd:	48 89 85 c8 f2 ff ff 	mov    %rax,-0xd38(%rbp)
    a1c4:	eb 0e                	jmp    a1d4 <func_1+0xa1f>
    a1c6:	48 8b 85 e8 f2 ff ff 	mov    -0xd18(%rbp),%rax
    a1cd:	48 89 85 d0 f2 ff ff 	mov    %rax,-0xd30(%rbp)
    a1d4:	0f b7 85 06 f3 ff ff 	movzwl -0xcfa(%rbp),%eax
    a1db:	0f b6 d0             	movzbl %al,%edx
    a1de:	48 8b 85 90 f2 ff ff 	mov    -0xd70(%rbp),%rax
    a1e5:	8b 00                	mov    (%rax),%eax
    a1e7:	89 c7                	mov    %eax,%edi
    a1e9:	48 8b 05 00 b4 01 00 	mov    0x1b400(%rip),%rax        # 255f0 <g_4305>
    a1f0:	48 8b 18             	mov    (%rax),%rbx
    a1f3:	48 8d 8d 8c f0 ff ff 	lea    -0xf74(%rbp),%rcx
    a1fa:	48 8d b5 8c f0 ff ff 	lea    -0xf74(%rbp),%rsi
    a201:	48 8d 85 84 f0 ff ff 	lea    -0xf7c(%rbp),%rax
    a208:	49 89 c8             	mov    %rcx,%r8
    a20b:	89 d1                	mov    %edx,%ecx
    a20d:	89 fa                	mov    %edi,%edx
    a20f:	48 89 c7             	mov    %rax,%rdi
    a212:	e8 b4 30 00 00       	callq  d2cb <func_20>
    a217:	48 89 03             	mov    %rax,(%rbx)
    a21a:	8b 05 40 91 01 00    	mov    0x19140(%rip),%eax        # 23360 <g_2085>
    a220:	98                   	cwtl   
    a221:	be 08 00 00 00       	mov    $0x8,%esi
    a226:	89 c7                	mov    %eax,%edi
    a228:	e8 86 e1 ff ff       	callq  83b3 <safe_add_func_int16_t_s_s>
    a22d:	98                   	cwtl   
    a22e:	89 05 2c 91 01 00    	mov    %eax,0x1912c(%rip)        # 23360 <g_2085>
    a234:	8b 05 26 91 01 00    	mov    0x19126(%rip),%eax        # 23360 <g_2085>
    a23a:	83 f8 24             	cmp    $0x24,%eax
    a23d:	0f 86 53 fc ff ff    	jbe    9e96 <func_1+0x6e1>
    a243:	0f b7 05 06 91 01 00 	movzwl 0x19106(%rip),%eax        # 23350 <g_1985>
    a24a:	83 e8 01             	sub    $0x1,%eax
    a24d:	66 89 05 fc 90 01 00 	mov    %ax,0x190fc(%rip)        # 23350 <g_1985>
    a254:	0f b7 05 f5 90 01 00 	movzwl 0x190f5(%rip),%eax        # 23350 <g_1985>
    a25b:	66 83 f8 fd          	cmp    $0xfffd,%ax
    a25f:	0f 8c 8a fb ff ff    	jl     9def <func_1+0x63a>
    a265:	48 8b 05 7c b3 01 00 	mov    0x1b37c(%rip),%rax        # 255e8 <g_4201>
    a26c:	48 8b 00             	mov    (%rax),%rax
    a26f:	48 8b 10             	mov    (%rax),%rdx
    a272:	48 8b 0d 57 ba 01 00 	mov    0x1ba57(%rip),%rcx        # 25cd0 <g_4494+0x10>
    a279:	48 8b 85 a0 f2 ff ff 	mov    -0xd60(%rbp),%rax
    a280:	48 89 08             	mov    %rcx,(%rax)
    a283:	48 8b 85 a0 f2 ff ff 	mov    -0xd60(%rbp),%rax
    a28a:	48 8b 00             	mov    (%rax),%rax
    a28d:	48 85 c0             	test   %rax,%rax
    a290:	75 37                	jne    a2c9 <func_1+0xb14>
    a292:	48 8b 85 40 f1 ff ff 	mov    -0xec0(%rbp),%rax
    a299:	48 3b 85 48 f1 ff ff 	cmp    -0xeb8(%rbp),%rax
    a2a0:	0f 95 c0             	setne  %al
    a2a3:	0f b6 f0             	movzbl %al,%esi
    a2a6:	48 8b 85 b0 f2 ff ff 	mov    -0xd50(%rbp),%rax
    a2ad:	48 8d 48 01          	lea    0x1(%rax),%rcx
    a2b1:	48 89 8d b0 f2 ff ff 	mov    %rcx,-0xd50(%rbp)
    a2b8:	8b 8d 88 f5 ff ff    	mov    -0xa78(%rbp),%ecx
    a2be:	48 63 c9             	movslq %ecx,%rcx
    a2c1:	48 09 c8             	or     %rcx,%rax
    a2c4:	48 39 c6             	cmp    %rax,%rsi
    a2c7:	77 07                	ja     a2d0 <func_1+0xb1b>
    a2c9:	b9 01 00 00 00       	mov    $0x1,%ecx
    a2ce:	eb 05                	jmp    a2d5 <func_1+0xb20>
    a2d0:	b9 00 00 00 00       	mov    $0x0,%ecx
    a2d5:	8b 85 84 f0 ff ff    	mov    -0xf7c(%rbp),%eax
    a2db:	39 c1                	cmp    %eax,%ecx
    a2dd:	48 8b 05 54 ab 01 00 	mov    0x1ab54(%rip),%rax        # 24e38 <g_2823>
    a2e4:	48 8b 00             	mov    (%rax),%rax
    a2e7:	48 8b 1d e2 b2 01 00 	mov    0x1b2e2(%rip),%rbx        # 255d0 <g_4102>
    a2ee:	be 01 00 00 00       	mov    $0x1,%esi
    a2f3:	48 89 c7             	mov    %rax,%rdi
    a2f6:	e8 f1 f9 00 00       	callq  19cec <func_55>
    a2fb:	48 89 03             	mov    %rax,(%rbx)
    a2fe:	48 8b 13             	mov    (%rbx),%rdx
    a301:	48 8d 85 77 f0 ff ff 	lea    -0xf89(%rbp),%rax
    a308:	48 39 c2             	cmp    %rax,%rdx
    a30b:	0f 95 c0             	setne  %al
    a30e:	0f b6 c0             	movzbl %al,%eax
    a311:	89 85 7c f5 ff ff    	mov    %eax,-0xa84(%rbp)
    a317:	0f b7 05 fa c2 01 00 	movzwl 0x1c2fa(%rip),%eax        # 26618 <g_1702>
    a31e:	83 c0 01             	add    $0x1,%eax
    a321:	66 89 05 f0 c2 01 00 	mov    %ax,0x1c2f0(%rip)        # 26618 <g_1702>
    a328:	0f b7 05 e9 c2 01 00 	movzwl 0x1c2e9(%rip),%eax        # 26618 <g_1702>
    a32f:	66 83 f8 32          	cmp    $0x32,%ax
    a333:	0f 85 86 f9 ff ff    	jne    9cbf <func_1+0x50a>
    a339:	0f b7 85 10 f3 ff ff 	movzwl -0xcf0(%rbp),%eax
    a340:	0f bf d8             	movswl %ax,%ebx
    a343:	8b 85 c0 f5 ff ff    	mov    -0xa40(%rbp),%eax
    a349:	48 63 d0             	movslq %eax,%rdx
    a34c:	48 8b 05 4d a7 01 00 	mov    0x1a74d(%rip),%rax        # 24aa0 <g_726>
    a353:	48 8b 00             	mov    (%rax),%rax
    a356:	48 89 d6             	mov    %rdx,%rsi
    a359:	48 89 c7             	mov    %rax,%rdi
    a35c:	e8 4e ed ff ff       	callq  90af <safe_div_func_uint64_t_u_u>
    a361:	48 83 f0 fd          	xor    $0xfffffffffffffffd,%rax
    a365:	48 89 c2             	mov    %rax,%rdx
    a368:	48 83 bd e0 f1 ff ff 	cmpq   $0x0,-0xe20(%rbp)
    a36f:	00 
    a370:	0f 95 c0             	setne  %al
    a373:	0f b6 c0             	movzbl %al,%eax
    a376:	48 98                	cltq   
    a378:	48 39 c2             	cmp    %rax,%rdx
    a37b:	0f 95 c0             	setne  %al
    a37e:	0f b6 c0             	movzbl %al,%eax
    a381:	89 de                	mov    %ebx,%esi
    a383:	89 c7                	mov    %eax,%edi
    a385:	e8 7b e2 ff ff       	callq  8605 <safe_sub_func_int32_t_s_s>
    a38a:	89 c2                	mov    %eax,%edx
    a38c:	48 8b 05 d5 aa 01 00 	mov    0x1aad5(%rip),%rax        # 24e68 <g_2925>
    a393:	48 8b 00             	mov    (%rax),%rax
    a396:	48 8b 00             	mov    (%rax),%rax
    a399:	48 8b 00             	mov    (%rax),%rax
    a39c:	8b 08                	mov    (%rax),%ecx
    a39e:	48 8b 05 c3 aa 01 00 	mov    0x1aac3(%rip),%rax        # 24e68 <g_2925>
    a3a5:	48 8b 00             	mov    (%rax),%rax
    a3a8:	48 8b 00             	mov    (%rax),%rax
    a3ab:	48 8b 00             	mov    (%rax),%rax
    a3ae:	09 ca                	or     %ecx,%edx
    a3b0:	89 10                	mov    %edx,(%rax)
    a3b2:	c7 85 98 f0 ff ff 00 	movl   $0x0,-0xf68(%rbp)
    a3b9:	00 00 00 
    a3bc:	e9 eb 05 00 00       	jmpq   a9ac <func_1+0x11f7>
    a3c1:	48 8d 05 68 c2 01 00 	lea    0x1c268(%rip),%rax        # 26630 <g_2185>
    a3c8:	48 89 85 f8 f1 ff ff 	mov    %rax,-0xe08(%rbp)
    a3cf:	c7 85 e4 f0 ff ff 02 	movl   $0x2,-0xf1c(%rbp)
    a3d6:	00 00 00 
    a3d9:	48 8d 85 30 f6 ff ff 	lea    -0x9d0(%rbp),%rax
    a3e0:	48 8d 15 b9 23 01 00 	lea    0x123b9(%rip),%rdx        # 1c7a0 <g_4277+0x6e0>
    a3e7:	b9 2a 00 00 00       	mov    $0x2a,%ecx
    a3ec:	48 89 c7             	mov    %rax,%rdi
    a3ef:	48 89 d6             	mov    %rdx,%rsi
    a3f2:	f3 48 a5             	rep movsq %ds:(%rsi),%es:(%rdi)
    a3f5:	48 8d 05 f8 88 01 00 	lea    0x188f8(%rip),%rax        # 22cf4 <g_1239>
    a3fc:	48 89 85 00 f2 ff ff 	mov    %rax,-0xe00(%rbp)
    a403:	48 8d 05 b6 c1 01 00 	lea    0x1c1b6(%rip),%rax        # 265c0 <g_1145>
    a40a:	48 89 85 08 f2 ff ff 	mov    %rax,-0xdf8(%rbp)
    a411:	c7 85 b0 f0 ff ff 00 	movl   $0x0,-0xf50(%rbp)
    a418:	00 00 00 
    a41b:	eb 14                	jmp    a431 <func_1+0xc7c>
    a41d:	8b 85 b0 f0 ff ff    	mov    -0xf50(%rbp),%eax
    a423:	48 98                	cltq   
    a425:	c6 44 05 c6 ff       	movb   $0xff,-0x3a(%rbp,%rax,1)
    a42a:	83 85 b0 f0 ff ff 01 	addl   $0x1,-0xf50(%rbp)
    a431:	83 bd b0 f0 ff ff 01 	cmpl   $0x1,-0xf50(%rbp)
    a438:	7e e3                	jle    a41d <func_1+0xc68>
    a43a:	c7 85 b0 f0 ff ff 00 	movl   $0x0,-0xf50(%rbp)
    a441:	00 00 00 
    a444:	eb 1e                	jmp    a464 <func_1+0xcaf>
    a446:	8b 85 b0 f0 ff ff    	mov    -0xf50(%rbp),%eax
    a44c:	48 98                	cltq   
    a44e:	48 8d 15 5b a6 01 00 	lea    0x1a65b(%rip),%rdx        # 24ab0 <g_1144>
    a455:	48 89 94 c5 f0 f3 ff 	mov    %rdx,-0xc10(%rbp,%rax,8)
    a45c:	ff 
    a45d:	83 85 b0 f0 ff ff 01 	addl   $0x1,-0xf50(%rbp)
    a464:	83 bd b0 f0 ff ff 07 	cmpl   $0x7,-0xf50(%rbp)
    a46b:	7e d9                	jle    a446 <func_1+0xc91>
    a46d:	c6 05 9c 85 01 00 f4 	movb   $0xf4,0x1859c(%rip)        # 22a10 <g_144>
    a474:	e9 03 05 00 00       	jmpq   a97c <func_1+0x11c7>
    a479:	c7 85 e8 f0 ff ff c3 	movl   $0xf61cb9c3,-0xf18(%rbp)
    a480:	b9 1c f6 
    a483:	48 8d 05 7e 85 01 00 	lea    0x1857e(%rip),%rax        # 22a08 <g_126>
    a48a:	48 89 85 10 f2 ff ff 	mov    %rax,-0xdf0(%rbp)
    a491:	48 8d 05 50 90 01 00 	lea    0x19050(%rip),%rax        # 234e8 <g_2933+0xa8>
    a498:	48 89 85 18 f2 ff ff 	mov    %rax,-0xde8(%rbp)
    a49f:	48 8d 05 42 8f 01 00 	lea    0x18f42(%rip),%rax        # 233e8 <g_2931+0x8>
    a4a6:	48 89 85 20 f2 ff ff 	mov    %rax,-0xde0(%rbp)
    a4ad:	48 8d 85 88 f0 ff ff 	lea    -0xf78(%rbp),%rax
    a4b4:	48 89 85 28 f2 ff ff 	mov    %rax,-0xdd8(%rbp)
    a4bb:	48 8d 05 7e 8f 01 00 	lea    0x18f7e(%rip),%rax        # 23440 <g_2933>
    a4c2:	48 89 85 30 f2 ff ff 	mov    %rax,-0xdd0(%rbp)
    a4c9:	48 c7 85 38 f2 ff ff 	movq   $0x0,-0xdc8(%rbp)
    a4d0:	00 00 00 00 
    a4d4:	48 8d 05 4d c1 01 00 	lea    0x1c14d(%rip),%rax        # 26628 <g_2142>
    a4db:	48 89 85 40 f2 ff ff 	mov    %rax,-0xdc0(%rbp)
    a4e2:	48 8d 05 bf c0 01 00 	lea    0x1c0bf(%rip),%rax        # 265a8 <g_342>
    a4e9:	48 89 85 48 f2 ff ff 	mov    %rax,-0xdb8(%rbp)
    a4f0:	48 8d 05 49 8f 01 00 	lea    0x18f49(%rip),%rax        # 23440 <g_2933>
    a4f7:	48 89 85 50 f2 ff ff 	mov    %rax,-0xdb0(%rbp)
    a4fe:	48 c7 85 30 f4 ff ff 	movq   $0x9,-0xbd0(%rbp)
    a505:	09 00 00 00 
    a509:	48 c7 85 38 f4 ff ff 	movq   $0x6,-0xbc8(%rbp)
    a510:	06 00 00 00 
    a514:	48 c7 85 40 f4 ff ff 	movq   $0x9,-0xbc0(%rbp)
    a51b:	09 00 00 00 
    a51f:	48 c7 85 48 f4 ff ff 	movq   $0x9,-0xbb8(%rbp)
    a526:	09 00 00 00 
    a52a:	48 c7 85 50 f4 ff ff 	movq   $0x6,-0xbb0(%rbp)
    a531:	06 00 00 00 
    a535:	48 c7 85 58 f4 ff ff 	movq   $0x9,-0xba8(%rbp)
    a53c:	09 00 00 00 
    a540:	48 c7 85 60 f4 ff ff 	movq   $0x9,-0xba0(%rbp)
    a547:	09 00 00 00 
    a54b:	48 c7 85 68 f4 ff ff 	movq   $0x6,-0xb98(%rbp)
    a552:	06 00 00 00 
    a556:	66 c7 85 7c f0 ff ff 	movw   $0x3545,-0xf84(%rbp)
    a55d:	45 35 
    a55f:	48 8d 05 ca c0 01 00 	lea    0x1c0ca(%rip),%rax        # 26630 <g_2185>
    a566:	48 89 85 58 f2 ff ff 	mov    %rax,-0xda8(%rbp)
    a56d:	48 8d 05 5c b0 01 00 	lea    0x1b05c(%rip),%rax        # 255d0 <g_4102>
    a574:	48 89 85 60 f2 ff ff 	mov    %rax,-0xda0(%rbp)
    a57b:	c7 85 b4 f0 ff ff 00 	movl   $0x0,-0xf4c(%rbp)
    a582:	00 00 00 
    a585:	eb 1e                	jmp    a5a5 <func_1+0xdf0>
    a587:	8b 85 b4 f0 ff ff    	mov    -0xf4c(%rbp),%eax
    a58d:	48 98                	cltq   
    a58f:	48 8d 15 4e 84 01 00 	lea    0x1844e(%rip),%rdx        # 229e4 <g_27>
    a596:	48 89 94 c5 80 f3 ff 	mov    %rdx,-0xc80(%rbp,%rax,8)
    a59d:	ff 
    a59e:	83 85 b4 f0 ff ff 01 	addl   $0x1,-0xf4c(%rbp)
    a5a5:	83 bd b4 f0 ff ff 03 	cmpl   $0x3,-0xf4c(%rbp)
    a5ac:	7e d9                	jle    a587 <func_1+0xdd2>
    a5ae:	48 8b 05 3b ba 01 00 	mov    0x1ba3b(%rip),%rax        # 25ff0 <g_4522>
    a5b5:	48 8b 95 f0 f1 ff ff 	mov    -0xe10(%rbp),%rdx
    a5bc:	48 89 10             	mov    %rdx,(%rax)
    a5bf:	48 8b 05 0a bb 01 00 	mov    0x1bb0a(%rip),%rax        # 260d0 <g_4527+0x70>
    a5c6:	48 89 85 90 f4 ff ff 	mov    %rax,-0xb70(%rbp)
    a5cd:	48 8b 05 fc a3 01 00 	mov    0x1a3fc(%rip),%rax        # 249d0 <g_682>
    a5d4:	48 8b 10             	mov    (%rax),%rdx
    a5d7:	48 8b 05 ea a3 01 00 	mov    0x1a3ea(%rip),%rax        # 249c8 <g_683>
    a5de:	48 8b 12             	mov    (%rdx),%rdx
    a5e1:	48 89 10             	mov    %rdx,(%rax)
    a5e4:	0f b6 45 c6          	movzbl -0x3a(%rbp),%eax
    a5e8:	83 c0 01             	add    $0x1,%eax
    a5eb:	88 45 c6             	mov    %al,-0x3a(%rbp)
    a5ee:	48 8d 05 83 c0 01 00 	lea    0x1c083(%rip),%rax        # 26678 <g_3791>
    a5f5:	48 89 85 68 f2 ff ff 	mov    %rax,-0xd98(%rbp)
    a5fc:	48 8d 85 20 fa ff ff 	lea    -0x5e0(%rbp),%rax
    a603:	48 8d 15 f6 22 01 00 	lea    0x122f6(%rip),%rdx        # 1c900 <g_4277+0x840>
    a60a:	b9 30 00 00 00       	mov    $0x30,%ecx
    a60f:	48 89 c7             	mov    %rax,%rdi
    a612:	48 89 d6             	mov    %rdx,%rsi
    a615:	f3 48 a5             	rep movsq %ds:(%rsi),%es:(%rdi)
    a618:	48 c7 85 70 f2 ff ff 	movq   $0x0,-0xd90(%rbp)
    a61f:	00 00 00 00 
    a623:	48 c7 85 78 f2 ff ff 	movq   $0x0,-0xd88(%rbp)
    a62a:	00 00 00 00 
    a62e:	8b 85 bc f6 ff ff    	mov    -0x944(%rbp),%eax
    a634:	98                   	cwtl   
    a635:	be 00 00 00 00       	mov    $0x0,%esi
    a63a:	89 c7                	mov    %eax,%edi
    a63c:	e8 72 dd ff ff       	callq  83b3 <safe_add_func_int16_t_s_s>
    a641:	0f bf d8             	movswl %ax,%ebx
    a644:	8b 85 7c f5 ff ff    	mov    -0xa84(%rbp),%eax
    a64a:	0f b6 d0             	movzbl %al,%edx
    a64d:	48 8b 85 e0 f1 ff ff 	mov    -0xe20(%rbp),%rax
    a654:	89 c1                	mov    %eax,%ecx
    a656:	48 8b 85 68 f2 ff ff 	mov    -0xd98(%rbp),%rax
    a65d:	88 08                	mov    %cl,(%rax)
    a65f:	48 8b 85 68 f2 ff ff 	mov    -0xd98(%rbp),%rax
    a666:	0f b6 00             	movzbl (%rax),%eax
    a669:	0f b6 c0             	movzbl %al,%eax
    a66c:	89 d6                	mov    %edx,%esi
    a66e:	89 c7                	mov    %eax,%edi
    a670:	e8 03 e5 ff ff       	callq  8b78 <safe_sub_func_uint8_t_u_u>
    a675:	0f b6 c0             	movzbl %al,%eax
    a678:	89 de                	mov    %ebx,%esi
    a67a:	89 c7                	mov    %eax,%edi
    a67c:	e8 d4 dd ff ff       	callq  8455 <safe_div_func_int16_t_s_s>
    a681:	0f bf d0             	movswl %ax,%edx
    a684:	48 8b 85 50 f2 ff ff 	mov    -0xdb0(%rbp),%rax
    a68b:	89 10                	mov    %edx,(%rax)
    a68d:	48 8b 85 50 f2 ff ff 	mov    -0xdb0(%rbp),%rax
    a694:	8b 10                	mov    (%rax),%edx
    a696:	48 8b 85 48 f2 ff ff 	mov    -0xdb8(%rbp),%rax
    a69d:	8b 00                	mov    (%rax),%eax
    a69f:	21 c2                	and    %eax,%edx
    a6a1:	48 8b 85 48 f2 ff ff 	mov    -0xdb8(%rbp),%rax
    a6a8:	89 10                	mov    %edx,(%rax)
    a6aa:	c7 05 04 8d 01 00 00 	movl   $0x0,0x18d04(%rip)        # 233b8 <g_2892>
    a6b1:	00 00 00 
    a6b4:	e9 81 02 00 00       	jmpq   a93a <func_1+0x1185>
    a6b9:	48 8d 05 70 bf 01 00 	lea    0x1bf70(%rip),%rax        # 26630 <g_2185>
    a6c0:	48 89 85 80 f2 ff ff 	mov    %rax,-0xd80(%rbp)
    a6c7:	48 8d 05 12 87 01 00 	lea    0x18712(%rip),%rax        # 22de0 <g_1492+0xe0>
    a6ce:	48 89 85 28 f1 ff ff 	mov    %rax,-0xed8(%rbp)
    a6d5:	48 8d 85 28 f1 ff ff 	lea    -0xed8(%rbp),%rax
    a6dc:	48 89 85 88 f2 ff ff 	mov    %rax,-0xd78(%rbp)
    a6e3:	c7 85 20 f1 ff ff 96 	movl   $0x21a596,-0xee0(%rbp)
    a6ea:	a5 21 00 
    a6ed:	c7 85 ec f0 ff ff f8 	movl   $0xfffffff8,-0xf14(%rbp)
    a6f4:	ff ff ff 
    a6f7:	66 83 ad 7c f0 ff ff 	subw   $0x1,-0xf84(%rbp)
    a6fe:	01 
    a6ff:	48 8b 85 80 f2 ff ff 	mov    -0xd80(%rbp),%rax
    a706:	48 89 85 58 f2 ff ff 	mov    %rax,-0xda8(%rbp)
    a70d:	48 8b 85 58 f2 ff ff 	mov    -0xda8(%rbp),%rax
    a714:	48 3b 85 f8 f1 ff ff 	cmp    -0xe08(%rbp),%rax
    a71b:	0f 95 c0             	setne  %al
    a71e:	0f b6 c0             	movzbl %al,%eax
    a721:	be 04 00 00 00       	mov    $0x4,%esi
    a726:	89 c7                	mov    %eax,%edi
    a728:	e8 b4 dd ff ff       	callq  84e1 <safe_lshift_func_int16_t_s_u>
    a72d:	66 85 c0             	test   %ax,%ax
    a730:	74 55                	je     a787 <func_1+0xfd2>
    a732:	48 8b 05 67 a3 01 00 	mov    0x1a367(%rip),%rax        # 24aa0 <g_726>
    a739:	48 8b 00             	mov    (%rax),%rax
    a73c:	48 89 c6             	mov    %rax,%rsi
    a73f:	bf 00 00 00 00       	mov    $0x0,%edi
    a744:	e8 f8 e0 ff ff       	callq  8841 <safe_add_func_int64_t_s_s>
    a749:	0f b6 45 c6          	movzbl -0x3a(%rbp),%eax
    a74d:	0f b6 d8             	movzbl %al,%ebx
    a750:	8b 85 3c fa ff ff    	mov    -0x5c4(%rbp),%eax
    a756:	0f b7 d0             	movzwl %ax,%edx
    a759:	8b 85 98 f0 ff ff    	mov    -0xf68(%rbp),%eax
    a75f:	0f b7 c0             	movzwl %ax,%eax
    a762:	89 d6                	mov    %edx,%esi
    a764:	89 c7                	mov    %eax,%edi
    a766:	e8 94 e5 ff ff       	callq  8cff <safe_add_func_uint16_t_u_u>
    a76b:	89 c2                	mov    %eax,%edx
    a76d:	8b 85 3c fa ff ff    	mov    -0x5c4(%rbp),%eax
    a773:	09 d0                	or     %edx,%eax
    a775:	98                   	cwtl   
    a776:	89 de                	mov    %ebx,%esi
    a778:	89 c7                	mov    %eax,%edi
    a77a:	e8 54 dc ff ff       	callq  83d3 <safe_sub_func_int16_t_s_s>
    a77f:	48 83 bd 00 f2 ff ff 	cmpq   $0x0,-0xe00(%rbp)
    a786:	00 
    a787:	48 8b 85 18 f2 ff ff 	mov    -0xde8(%rbp),%rax
    a78e:	8b 10                	mov    (%rax),%edx
    a790:	48 8b 85 20 f2 ff ff 	mov    -0xde0(%rbp),%rax
    a797:	89 10                	mov    %edx,(%rax)
    a799:	44 8b b5 80 f6 ff ff 	mov    -0x980(%rbp),%r14d
    a7a0:	48 8b 85 88 f2 ff ff 	mov    -0xd78(%rbp),%rax
    a7a7:	48 3b 85 50 f1 ff ff 	cmp    -0xeb0(%rbp),%rax
    a7ae:	0f 95 c0             	setne  %al
    a7b1:	0f b6 d0             	movzbl %al,%edx
    a7b4:	48 8b 05 15 ae 01 00 	mov    0x1ae15(%rip),%rax        # 255d0 <g_4102>
    a7bb:	48 8b 00             	mov    (%rax),%rax
    a7be:	0f b6 00             	movzbl (%rax),%eax
    a7c1:	0f be c0             	movsbl %al,%eax
    a7c4:	89 d6                	mov    %edx,%esi
    a7c6:	89 c7                	mov    %eax,%edi
    a7c8:	e8 45 da ff ff       	callq  8212 <safe_mul_func_int8_t_s_s>
    a7cd:	41 89 c5             	mov    %eax,%r13d
    a7d0:	0f b7 85 1a f3 ff ff 	movzwl -0xce6(%rbp),%eax
    a7d7:	0f be d8             	movsbl %al,%ebx
    a7da:	8b 85 54 f5 ff ff    	mov    -0xaac(%rbp),%eax
    a7e0:	4c 63 f8             	movslq %eax,%r15
    a7e3:	0f b6 45 c6          	movzbl -0x3a(%rbp),%eax
    a7e7:	44 0f b6 e0          	movzbl %al,%r12d
    a7eb:	48 8b 05 e6 ad 01 00 	mov    0x1ade6(%rip),%rax        # 255d8 <g_4124>
    a7f2:	0f b7 00             	movzwl (%rax),%eax
    a7f5:	66 85 c0             	test   %ax,%ax
    a7f8:	74 11                	je     a80b <func_1+0x1056>
    a7fa:	8b 85 3c fa ff ff    	mov    -0x5c4(%rbp),%eax
    a800:	85 c0                	test   %eax,%eax
    a802:	74 07                	je     a80b <func_1+0x1056>
    a804:	b8 01 00 00 00       	mov    $0x1,%eax
    a809:	eb 05                	jmp    a810 <func_1+0x105b>
    a80b:	b8 00 00 00 00       	mov    $0x0,%eax
    a810:	0f b6 c0             	movzbl %al,%eax
    a813:	be 05 00 00 00       	mov    $0x5,%esi
    a818:	89 c7                	mov    %eax,%edi
    a81a:	e8 8f e3 ff ff       	callq  8bae <safe_mod_func_uint8_t_u_u>
    a81f:	84 c0                	test   %al,%al
    a821:	74 15                	je     a838 <func_1+0x1083>
    a823:	48 8b 05 ce b4 01 00 	mov    0x1b4ce(%rip),%rax        # 25cf8 <g_4526>
    a82a:	0f b6 00             	movzbl (%rax),%eax
    a82d:	84 c0                	test   %al,%al
    a82f:	74 07                	je     a838 <func_1+0x1083>
    a831:	b8 01 00 00 00       	mov    $0x1,%eax
    a836:	eb 05                	jmp    a83d <func_1+0x1088>
    a838:	b8 00 00 00 00       	mov    $0x0,%eax
    a83d:	44 89 e6             	mov    %r12d,%esi
    a840:	89 c7                	mov    %eax,%edi
    a842:	e8 de e6 ff ff       	callq  8f25 <safe_div_func_uint32_t_u_u>
    a847:	85 c0                	test   %eax,%eax
    a849:	0f 94 c0             	sete   %al
    a84c:	0f b6 d0             	movzbl %al,%edx
    a84f:	0f b7 05 06 8d 01 00 	movzwl 0x18d06(%rip),%eax        # 2355c <g_4599>
    a856:	98                   	cwtl   
    a857:	89 d6                	mov    %edx,%esi
    a859:	89 c7                	mov    %eax,%edi
    a85b:	e8 70 e6 ff ff       	callq  8ed0 <safe_sub_func_uint32_t_u_u>
    a860:	85 c0                	test   %eax,%eax
    a862:	75 09                	jne    a86d <func_1+0x10b8>
    a864:	83 bd e0 f0 ff ff 00 	cmpl   $0x0,-0xf20(%rbp)
    a86b:	74 07                	je     a874 <func_1+0x10bf>
    a86d:	b8 01 00 00 00       	mov    $0x1,%eax
    a872:	eb 05                	jmp    a879 <func_1+0x10c4>
    a874:	b8 00 00 00 00       	mov    $0x0,%eax
    a879:	85 c0                	test   %eax,%eax
    a87b:	0f 95 c2             	setne  %dl
    a87e:	48 8b 05 23 a2 01 00 	mov    0x1a223(%rip),%rax        # 24aa8 <g_725>
    a885:	48 8b 00             	mov    (%rax),%rax
    a888:	0f b6 d2             	movzbl %dl,%edx
    a88b:	48 89 10             	mov    %rdx,(%rax)
    a88e:	48 8b 00             	mov    (%rax),%rax
    a891:	49 39 c7             	cmp    %rax,%r15
    a894:	0f 96 c0             	setbe  %al
    a897:	0f b6 c0             	movzbl %al,%eax
    a89a:	89 85 ec f0 ff ff    	mov    %eax,-0xf14(%rbp)
    a8a0:	8b 85 ec f0 ff ff    	mov    -0xf14(%rbp),%eax
    a8a6:	98                   	cwtl   
    a8a7:	be 7d 92 ff ff       	mov    $0xffff927d,%esi
    a8ac:	89 c7                	mov    %eax,%edi
    a8ae:	e8 63 db ff ff       	callq  8416 <safe_mod_func_int16_t_s_s>
    a8b3:	0f bf d0             	movswl %ax,%edx
    a8b6:	8b 85 20 f1 ff ff    	mov    -0xee0(%rbp),%eax
    a8bc:	89 d6                	mov    %edx,%esi
    a8be:	89 c7                	mov    %eax,%edi
    a8c0:	e8 07 de ff ff       	callq  86cc <safe_mod_func_int32_t_s_s>
    a8c5:	0f be c0             	movsbl %al,%eax
    a8c8:	89 de                	mov    %ebx,%esi
    a8ca:	89 c7                	mov    %eax,%edi
    a8cc:	e8 99 d9 ff ff       	callq  826a <safe_div_func_int8_t_s_s>
    a8d1:	41 38 c5             	cmp    %al,%r13b
    a8d4:	0f 95 c0             	setne  %al
    a8d7:	0f b6 c0             	movzbl %al,%eax
    a8da:	be 09 00 00 00       	mov    $0x9,%esi
    a8df:	89 c7                	mov    %eax,%edi
    a8e1:	e8 d8 e4 ff ff       	callq  8dbe <safe_lshift_func_uint16_t_u_s>
    a8e6:	0f b7 c0             	movzwl %ax,%eax
    a8e9:	41 39 c6             	cmp    %eax,%r14d
    a8ec:	7f 07                	jg     a8f5 <func_1+0x1140>
    a8ee:	ba bb 00 00 00       	mov    $0xbb,%edx
    a8f3:	eb 05                	jmp    a8fa <func_1+0x1145>
    a8f5:	ba ba 00 00 00       	mov    $0xba,%edx
    a8fa:	48 8b 85 28 f2 ff ff 	mov    -0xdd8(%rbp),%rax
    a901:	8b 00                	mov    (%rax),%eax
    a903:	21 c2                	and    %eax,%edx
    a905:	48 8b 85 28 f2 ff ff 	mov    -0xdd8(%rbp),%rax
    a90c:	89 10                	mov    %edx,(%rax)
    a90e:	48 8d 15 7b ac 01 00 	lea    0x1ac7b(%rip),%rdx        # 25590 <g_4017>
    a915:	48 8d 85 20 f1 ff ff 	lea    -0xee0(%rbp),%rax
    a91c:	48 89 02             	mov    %rax,(%rdx)
    a91f:	8b 05 93 8a 01 00    	mov    0x18a93(%rip),%eax        # 233b8 <g_2892>
    a925:	89 c0                	mov    %eax,%eax
    a927:	be 04 00 00 00       	mov    $0x4,%esi
    a92c:	48 89 c7             	mov    %rax,%rdi
    a92f:	e8 0d df ff ff       	callq  8841 <safe_add_func_int64_t_s_s>
    a934:	89 05 7e 8a 01 00    	mov    %eax,0x18a7e(%rip)        # 233b8 <g_2892>
    a93a:	8b 05 78 8a 01 00    	mov    0x18a78(%rip),%eax        # 233b8 <g_2892>
    a940:	83 f8 15             	cmp    $0x15,%eax
    a943:	0f 87 70 fd ff ff    	ja     a6b9 <func_1+0xf04>
    a949:	48 8b 05 10 a5 01 00 	mov    0x1a510(%rip),%rax        # 24e60 <g_2926>
    a950:	48 8b 10             	mov    (%rax),%rdx
    a953:	48 8b 05 16 b8 01 00 	mov    0x1b816(%rip),%rax        # 26170 <g_4610>
    a95a:	48 8b 12             	mov    (%rdx),%rdx
    a95d:	48 89 10             	mov    %rdx,(%rax)
    a960:	0f b6 05 a9 80 01 00 	movzbl 0x180a9(%rip),%eax        # 22a10 <g_144>
    a967:	0f b6 c0             	movzbl %al,%eax
    a96a:	be 01 00 00 00       	mov    $0x1,%esi
    a96f:	89 c7                	mov    %eax,%edi
    a971:	e8 42 e5 ff ff       	callq  8eb8 <safe_add_func_uint32_t_u_u>
    a976:	88 05 94 80 01 00    	mov    %al,0x18094(%rip)        # 22a10 <g_144>
    a97c:	0f b6 05 8d 80 01 00 	movzbl 0x1808d(%rip),%eax        # 22a10 <g_144>
    a983:	3c 38                	cmp    $0x38,%al
    a985:	0f 85 ee fa ff ff    	jne    a479 <func_1+0xcc4>
    a98b:	48 c7 85 08 f2 ff ff 	movq   $0x0,-0xdf8(%rbp)
    a992:	00 00 00 00 
    a996:	48 83 bd e0 f1 ff ff 	cmpq   $0x0,-0xe20(%rbp)
    a99d:	00 
    a99e:	74 05                	je     a9a5 <func_1+0x11f0>
    a9a0:	e9 0d fa ff ff       	jmpq   a3b2 <func_1+0xbfd>
    a9a5:	83 85 98 f0 ff ff 01 	addl   $0x1,-0xf68(%rbp)
    a9ac:	83 bd 98 f0 ff ff 14 	cmpl   $0x14,-0xf68(%rbp)
    a9b3:	0f 87 08 fa ff ff    	ja     a3c1 <func_1+0xc0c>
    a9b9:	8b 85 e0 f0 ff ff    	mov    -0xf20(%rbp),%eax
    a9bf:	89 85 50 f5 ff ff    	mov    %eax,-0xab0(%rbp)
    a9c5:	e9 5c 0a 00 00       	jmpq   b426 <func_1+0x1c71>
    a9ca:	48 8d 05 37 80 01 00 	lea    0x18037(%rip),%rax        # 22a08 <g_126>
    a9d1:	48 89 85 78 f1 ff ff 	mov    %rax,-0xe88(%rbp)
    a9d8:	48 c7 85 80 f1 ff ff 	movq   $0x0,-0xe80(%rbp)
    a9df:	00 00 00 00 
    a9e3:	48 8d 05 e2 89 01 00 	lea    0x189e2(%rip),%rax        # 233cc <g_2929+0xc>
    a9ea:	48 89 85 88 f1 ff ff 	mov    %rax,-0xe78(%rbp)
    a9f1:	48 8d 05 f0 8a 01 00 	lea    0x18af0(%rip),%rax        # 234e8 <g_2933+0xa8>
    a9f8:	48 89 85 20 f1 ff ff 	mov    %rax,-0xee0(%rbp)
    a9ff:	48 c7 85 90 f1 ff ff 	movq   $0x0,-0xe70(%rbp)
    aa06:	00 00 00 00 
    aa0a:	48 c7 85 28 f1 ff ff 	movq   $0x0,-0xed8(%rbp)
    aa11:	00 00 00 00 
    aa15:	48 8d 85 28 f1 ff ff 	lea    -0xed8(%rbp),%rax
    aa1c:	48 89 85 98 f1 ff ff 	mov    %rax,-0xe68(%rbp)
    aa23:	48 8d 05 0e a4 01 00 	lea    0x1a40e(%rip),%rax        # 24e38 <g_2823>
    aa2a:	48 89 85 a0 f1 ff ff 	mov    %rax,-0xe60(%rbp)
    aa31:	c7 85 b8 f0 ff ff 00 	movl   $0x0,-0xf48(%rbp)
    aa38:	00 00 00 
    aa3b:	eb 1e                	jmp    aa5b <func_1+0x12a6>
    aa3d:	8b 85 b8 f0 ff ff    	mov    -0xf48(%rbp),%eax
    aa43:	48 98                	cltq   
    aa45:	48 8d 15 54 82 01 00 	lea    0x18254(%rip),%rdx        # 22ca0 <g_1128+0x60>
    aa4c:	48 89 94 c5 30 f4 ff 	mov    %rdx,-0xbd0(%rbp,%rax,8)
    aa53:	ff 
    aa54:	83 85 b8 f0 ff ff 01 	addl   $0x1,-0xf48(%rbp)
    aa5b:	83 bd b8 f0 ff ff 02 	cmpl   $0x2,-0xf48(%rbp)
    aa62:	7e d9                	jle    aa3d <func_1+0x1288>
    aa64:	0f b7 05 f3 8a 01 00 	movzwl 0x18af3(%rip),%eax        # 2355e <g_4621>
    aa6b:	83 e8 01             	sub    $0x1,%eax
    aa6e:	66 89 05 e9 8a 01 00 	mov    %ax,0x18ae9(%rip)        # 2355e <g_4621>
    aa75:	c7 05 65 7f 01 00 00 	movl   $0x0,0x17f65(%rip)        # 229e4 <g_27>
    aa7c:	00 00 00 
    aa7f:	e9 b1 08 00 00       	jmpq   b335 <func_1+0x1b80>
    aa84:	48 8d 85 20 f1 ff ff 	lea    -0xee0(%rbp),%rax
    aa8b:	48 89 85 10 f5 ff ff 	mov    %rax,-0xaf0(%rbp)
    aa92:	48 8d 05 ef bb 01 00 	lea    0x1bbef(%rip),%rax        # 26688 <g_4392>
    aa99:	48 89 85 18 f5 ff ff 	mov    %rax,-0xae8(%rbp)
    aaa0:	48 8d 05 e1 bb 01 00 	lea    0x1bbe1(%rip),%rax        # 26688 <g_4392>
    aaa7:	48 89 85 20 f5 ff ff 	mov    %rax,-0xae0(%rbp)
    aaae:	48 8d 85 20 f1 ff ff 	lea    -0xee0(%rbp),%rax
    aab5:	48 89 85 28 f5 ff ff 	mov    %rax,-0xad8(%rbp)
    aabc:	48 8d 05 c5 bb 01 00 	lea    0x1bbc5(%rip),%rax        # 26688 <g_4392>
    aac3:	48 89 85 30 f5 ff ff 	mov    %rax,-0xad0(%rbp)
    aaca:	48 8d 05 b7 bb 01 00 	lea    0x1bbb7(%rip),%rax        # 26688 <g_4392>
    aad1:	48 89 85 38 f5 ff ff 	mov    %rax,-0xac8(%rbp)
    aad8:	48 8d 85 20 f1 ff ff 	lea    -0xee0(%rbp),%rax
    aadf:	48 89 85 40 f5 ff ff 	mov    %rax,-0xac0(%rbp)
    aae6:	48 8d 05 9b bb 01 00 	lea    0x1bb9b(%rip),%rax        # 26688 <g_4392>
    aaed:	48 89 85 48 f5 ff ff 	mov    %rax,-0xab8(%rbp)
    aaf4:	48 8d 05 8d bb 01 00 	lea    0x1bb8d(%rip),%rax        # 26688 <g_4392>
    aafb:	48 89 85 50 f5 ff ff 	mov    %rax,-0xab0(%rbp)
    ab02:	48 8d 85 20 f1 ff ff 	lea    -0xee0(%rbp),%rax
    ab09:	48 89 85 58 f5 ff ff 	mov    %rax,-0xaa8(%rbp)
    ab10:	66 c7 85 80 f0 ff ff 	movw   $0xd8bc,-0xf80(%rbp)
    ab17:	bc d8 
    ab19:	c6 85 79 f0 ff ff 08 	movb   $0x8,-0xf87(%rbp)
    ab20:	c7 85 60 f5 ff ff ff 	movl   $0xffffffff,-0xaa0(%rbp)
    ab27:	ff ff ff 
    ab2a:	c7 85 64 f5 ff ff 01 	movl   $0x1,-0xa9c(%rbp)
    ab31:	00 00 00 
    ab34:	c7 85 68 f5 ff ff ff 	movl   $0xffffffff,-0xa98(%rbp)
    ab3b:	ff ff ff 
    ab3e:	c7 85 6c f5 ff ff ff 	movl   $0xffffffff,-0xa94(%rbp)
    ab45:	ff ff ff 
    ab48:	c7 85 70 f5 ff ff 01 	movl   $0x1,-0xa90(%rbp)
    ab4f:	00 00 00 
    ab52:	c7 85 74 f5 ff ff ff 	movl   $0xffffffff,-0xa8c(%rbp)
    ab59:	ff ff ff 
    ab5c:	c7 85 78 f5 ff ff ff 	movl   $0xffffffff,-0xa88(%rbp)
    ab63:	ff ff ff 
    ab66:	c7 85 7c f5 ff ff 01 	movl   $0x1,-0xa84(%rbp)
    ab6d:	00 00 00 
    ab70:	c7 85 80 f5 ff ff ff 	movl   $0xffffffff,-0xa80(%rbp)
    ab77:	ff ff ff 
    ab7a:	c7 85 84 f5 ff ff ff 	movl   $0xffffffff,-0xa7c(%rbp)
    ab81:	ff ff ff 
    ab84:	c7 85 88 f5 ff ff 01 	movl   $0x1,-0xa78(%rbp)
    ab8b:	00 00 00 
    ab8e:	c7 85 8c f5 ff ff 01 	movl   $0x1,-0xa74(%rbp)
    ab95:	00 00 00 
    ab98:	c7 85 90 f5 ff ff b7 	movl   $0x9d6e5cb7,-0xa70(%rbp)
    ab9f:	5c 6e 9d 
    aba2:	c7 85 94 f5 ff ff 01 	movl   $0x1,-0xa6c(%rbp)
    aba9:	00 00 00 
    abac:	c7 85 98 f5 ff ff 01 	movl   $0x1,-0xa68(%rbp)
    abb3:	00 00 00 
    abb6:	c7 85 9c f5 ff ff b7 	movl   $0x9d6e5cb7,-0xa64(%rbp)
    abbd:	5c 6e 9d 
    abc0:	c7 85 a0 f5 ff ff 01 	movl   $0x1,-0xa60(%rbp)
    abc7:	00 00 00 
    abca:	c7 85 a4 f5 ff ff 01 	movl   $0x1,-0xa5c(%rbp)
    abd1:	00 00 00 
    abd4:	c7 85 a8 f5 ff ff b7 	movl   $0x9d6e5cb7,-0xa58(%rbp)
    abdb:	5c 6e 9d 
    abde:	c7 85 ac f5 ff ff 01 	movl   $0x1,-0xa54(%rbp)
    abe5:	00 00 00 
    abe8:	c7 85 b0 f5 ff ff 01 	movl   $0x1,-0xa50(%rbp)
    abef:	00 00 00 
    abf2:	c7 85 b4 f5 ff ff ff 	movl   $0xffffffff,-0xa4c(%rbp)
    abf9:	ff ff ff 
    abfc:	c7 85 b8 f5 ff ff ff 	movl   $0xffffffff,-0xa48(%rbp)
    ac03:	ff ff ff 
    ac06:	c7 85 bc f5 ff ff 01 	movl   $0x1,-0xa44(%rbp)
    ac0d:	00 00 00 
    ac10:	c7 85 c0 f5 ff ff ff 	movl   $0xffffffff,-0xa40(%rbp)
    ac17:	ff ff ff 
    ac1a:	c7 85 c4 f5 ff ff ff 	movl   $0xffffffff,-0xa3c(%rbp)
    ac21:	ff ff ff 
    ac24:	c7 85 c8 f5 ff ff 01 	movl   $0x1,-0xa38(%rbp)
    ac2b:	00 00 00 
    ac2e:	c7 85 cc f5 ff ff ff 	movl   $0xffffffff,-0xa34(%rbp)
    ac35:	ff ff ff 
    ac38:	c7 85 d0 f5 ff ff ff 	movl   $0xffffffff,-0xa30(%rbp)
    ac3f:	ff ff ff 
    ac42:	c7 85 d4 f5 ff ff 01 	movl   $0x1,-0xa2c(%rbp)
    ac49:	00 00 00 
    ac4c:	48 8d 05 e5 a1 01 00 	lea    0x1a1e5(%rip),%rax        # 24e38 <g_2823>
    ac53:	48 89 85 a8 f1 ff ff 	mov    %rax,-0xe58(%rbp)
    ac5a:	c6 85 78 f0 ff ff 00 	movb   $0x0,-0xf88(%rbp)
    ac61:	c7 05 9d 88 01 00 00 	movl   $0x0,0x1889d(%rip)        # 23508 <g_3086>
    ac68:	00 00 00 
    ac6b:	e9 9b 00 00 00       	jmpq   ad0b <func_1+0x1556>
    ac70:	48 c7 05 fd 86 01 00 	movq   $0x0,0x186fd(%rip)        # 23378 <g_2474>
    ac77:	00 00 00 00 
    ac7b:	eb 67                	jmp    ace4 <func_1+0x152f>
    ac7d:	c6 05 8c 7d 01 00 00 	movb   $0x0,0x17d8c(%rip)        # 22a10 <g_144>
    ac84:	eb 23                	jmp    aca9 <func_1+0x14f4>
    ac86:	48 8b 05 eb 86 01 00 	mov    0x186eb(%rip),%rax        # 23378 <g_2474>
    ac8d:	48 c7 84 c5 30 f4 ff 	movq   $0x0,-0xbd0(%rbp,%rax,8)
    ac94:	ff 00 00 00 00 
    ac99:	0f b6 05 70 7d 01 00 	movzbl 0x17d70(%rip),%eax        # 22a10 <g_144>
    aca0:	83 c0 01             	add    $0x1,%eax
    aca3:	88 05 67 7d 01 00    	mov    %al,0x17d67(%rip)        # 22a10 <g_144>
    aca9:	0f b6 05 60 7d 01 00 	movzbl 0x17d60(%rip),%eax        # 22a10 <g_144>
    acb0:	3c 06                	cmp    $0x6,%al
    acb2:	76 d2                	jbe    ac86 <func_1+0x14d1>
    acb4:	48 8b 15 bd 86 01 00 	mov    0x186bd(%rip),%rdx        # 23378 <g_2474>
    acbb:	48 8b 05 b6 86 01 00 	mov    0x186b6(%rip),%rax        # 23378 <g_2474>
    acc2:	48 8b 94 d5 30 f4 ff 	mov    -0xbd0(%rbp,%rdx,8),%rdx
    acc9:	ff 
    acca:	48 89 94 c5 30 f4 ff 	mov    %rdx,-0xbd0(%rbp,%rax,8)
    acd1:	ff 
    acd2:	48 8b 05 9f 86 01 00 	mov    0x1869f(%rip),%rax        # 23378 <g_2474>
    acd9:	48 83 c0 01          	add    $0x1,%rax
    acdd:	48 89 05 94 86 01 00 	mov    %rax,0x18694(%rip)        # 23378 <g_2474>
    ace4:	48 8b 05 8d 86 01 00 	mov    0x1868d(%rip),%rax        # 23378 <g_2474>
    aceb:	48 83 f8 02          	cmp    $0x2,%rax
    acef:	76 8c                	jbe    ac7d <func_1+0x14c8>
    acf1:	8b 05 11 88 01 00    	mov    0x18811(%rip),%eax        # 23508 <g_3086>
    acf7:	98                   	cwtl   
    acf8:	be 05 00 00 00       	mov    $0x5,%esi
    acfd:	89 c7                	mov    %eax,%edi
    acff:	e8 af d6 ff ff       	callq  83b3 <safe_add_func_int16_t_s_s>
    ad04:	98                   	cwtl   
    ad05:	89 05 fd 87 01 00    	mov    %eax,0x187fd(%rip)        # 23508 <g_3086>
    ad0b:	8b 05 f7 87 01 00    	mov    0x187f7(%rip),%eax        # 23508 <g_3086>
    ad11:	83 f8 22             	cmp    $0x22,%eax
    ad14:	0f 86 56 ff ff ff    	jbe    ac70 <func_1+0x14bb>
    ad1a:	48 8b 85 48 f1 ff ff 	mov    -0xeb8(%rbp),%rax
    ad21:	48 8b 00             	mov    (%rax),%rax
    ad24:	48 8b 00             	mov    (%rax),%rax
    ad27:	48 8b 95 88 f1 ff ff 	mov    -0xe78(%rbp),%rdx
    ad2e:	48 89 10             	mov    %rdx,(%rax)
    ad31:	48 8b 00             	mov    (%rax),%rax
    ad34:	48 89 85 00 f5 ff ff 	mov    %rax,-0xb00(%rbp)
    ad3b:	c6 85 76 f0 ff ff 09 	movb   $0x9,-0xf8a(%rbp)
    ad42:	e9 d0 05 00 00       	jmpq   b317 <func_1+0x1b62>
    ad47:	c7 85 d4 f0 ff ff 47 	movl   $0x6cdb3747,-0xf2c(%rbp)
    ad4e:	37 db 6c 
    ad51:	c6 85 7a f0 ff ff 3d 	movb   $0x3d,-0xf86(%rbp)
    ad58:	c7 85 30 f6 ff ff 59 	movl   $0x39bc6d59,-0x9d0(%rbp)
    ad5f:	6d bc 39 
    ad62:	c7 85 34 f6 ff ff 00 	movl   $0x0,-0x9cc(%rbp)
    ad69:	00 00 00 
    ad6c:	c7 85 38 f6 ff ff 59 	movl   $0x39bc6d59,-0x9c8(%rbp)
    ad73:	6d bc 39 
    ad76:	c7 85 3c f6 ff ff 2e 	movl   $0x711f722e,-0x9c4(%rbp)
    ad7d:	72 1f 71 
    ad80:	c7 85 40 f6 ff ff bf 	movl   $0x83ef6dbf,-0x9c0(%rbp)
    ad87:	6d ef 83 
    ad8a:	c7 85 44 f6 ff ff bf 	movl   $0x83ef6dbf,-0x9bc(%rbp)
    ad91:	6d ef 83 
    ad94:	c7 85 48 f6 ff ff 10 	movl   $0x5e10ff10,-0x9b8(%rbp)
    ad9b:	ff 10 5e 
    ad9e:	c7 85 4c f6 ff ff 59 	movl   $0x39bc6d59,-0x9b4(%rbp)
    ada5:	6d bc 39 
    ada8:	c7 85 50 f6 ff ff 59 	movl   $0x39bc6d59,-0x9b0(%rbp)
    adaf:	6d bc 39 
    adb2:	c7 85 54 f6 ff ff 10 	movl   $0x5e10ff10,-0x9ac(%rbp)
    adb9:	ff 10 5e 
    adbc:	c7 85 58 f6 ff ff 00 	movl   $0x0,-0x9a8(%rbp)
    adc3:	00 00 00 
    adc6:	c7 85 5c f6 ff ff ce 	movl   $0x7c101dce,-0x9a4(%rbp)
    adcd:	1d 10 7c 
    add0:	c7 85 60 f6 ff ff ce 	movl   $0x7c101dce,-0x9a0(%rbp)
    add7:	1d 10 7c 
    adda:	c7 85 64 f6 ff ff 10 	movl   $0x5e10ff10,-0x99c(%rbp)
    ade1:	ff 10 5e 
    ade4:	c7 85 68 f6 ff ff bf 	movl   $0x83ef6dbf,-0x998(%rbp)
    adeb:	6d ef 83 
    adee:	c7 85 6c f6 ff ff 10 	movl   $0x5e10ff10,-0x994(%rbp)
    adf5:	ff 10 5e 
    adf8:	c7 85 70 f6 ff ff ce 	movl   $0x7c101dce,-0x990(%rbp)
    adff:	1d 10 7c 
    ae02:	c7 85 74 f6 ff ff 2e 	movl   $0x711f722e,-0x98c(%rbp)
    ae09:	72 1f 71 
    ae0c:	c7 85 78 f6 ff ff 10 	movl   $0x5e10ff10,-0x988(%rbp)
    ae13:	ff 10 5e 
    ae16:	c7 85 7c f6 ff ff ce 	movl   $0x7c101dce,-0x984(%rbp)
    ae1d:	1d 10 7c 
    ae20:	c7 85 80 f6 ff ff 2e 	movl   $0x711f722e,-0x980(%rbp)
    ae27:	72 1f 71 
    ae2a:	c7 85 84 f6 ff ff 2e 	movl   $0x711f722e,-0x97c(%rbp)
    ae31:	72 1f 71 
    ae34:	c7 85 88 f6 ff ff ce 	movl   $0x7c101dce,-0x978(%rbp)
    ae3b:	1d 10 7c 
    ae3e:	c7 85 8c f6 ff ff 10 	movl   $0x5e10ff10,-0x974(%rbp)
    ae45:	ff 10 5e 
    ae48:	c7 85 90 f6 ff ff 59 	movl   $0x39bc6d59,-0x970(%rbp)
    ae4f:	6d bc 39 
    ae52:	c7 85 94 f6 ff ff 10 	movl   $0x5e10ff10,-0x96c(%rbp)
    ae59:	ff 10 5e 
    ae5c:	c7 85 98 f6 ff ff 00 	movl   $0x0,-0x968(%rbp)
    ae63:	00 00 00 
    ae66:	c7 85 9c f6 ff ff ce 	movl   $0x7c101dce,-0x964(%rbp)
    ae6d:	1d 10 7c 
    ae70:	c7 85 a0 f6 ff ff 00 	movl   $0x0,-0x960(%rbp)
    ae77:	00 00 00 
    ae7a:	c7 85 a4 f6 ff ff 10 	movl   $0x5e10ff10,-0x95c(%rbp)
    ae81:	ff 10 5e 
    ae84:	48 8d 05 71 86 01 00 	lea    0x18671(%rip),%rax        # 234fc <g_2943>
    ae8b:	48 89 85 b0 f1 ff ff 	mov    %rax,-0xe50(%rbp)
    ae92:	c7 85 d8 f0 ff ff ff 	movl   $0xffffffff,-0xf28(%rbp)
    ae99:	ff ff ff 
    ae9c:	48 c7 85 b8 f1 ff ff 	movq   $0x0,-0xe48(%rbp)
    aea3:	00 00 00 00 
    aea7:	48 8d 85 20 fa ff ff 	lea    -0x5e0(%rbp),%rax
    aeae:	48 8d 15 ab 86 01 00 	lea    0x186ab(%rip),%rdx        # 23560 <g_4621+0x2>
    aeb5:	b9 b4 00 00 00       	mov    $0xb4,%ecx
    aeba:	48 89 c7             	mov    %rax,%rdi
    aebd:	48 89 d6             	mov    %rdx,%rsi
    aec0:	f3 48 a5             	rep movsq %ds:(%rsi),%es:(%rdi)
    aec3:	c7 85 dc f0 ff ff 97 	movl   $0xcf024097,-0xf24(%rbp)
    aeca:	40 02 cf 
    aecd:	48 c7 85 c0 f1 ff ff 	movq   $0xffffffffffffffff,-0xe40(%rbp)
    aed4:	ff ff ff ff 
    aed8:	48 8d 05 d1 9b 01 00 	lea    0x19bd1(%rip),%rax        # 24ab0 <g_1144>
    aedf:	48 89 85 c8 f1 ff ff 	mov    %rax,-0xe38(%rbp)
    aee6:	48 8d 85 60 f3 ff ff 	lea    -0xca0(%rbp),%rax
    aeed:	48 83 c0 08          	add    $0x8,%rax
    aef1:	48 89 85 d0 f1 ff ff 	mov    %rax,-0xe30(%rbp)
    aef8:	48 0f be 9d 79 f0 ff 	movsbq -0xf87(%rbp),%rbx
    aeff:	ff 
    af00:	83 bd d4 f0 ff ff 00 	cmpl   $0x0,-0xf2c(%rbp)
    af07:	75 09                	jne    af12 <func_1+0x175d>
    af09:	80 bd 7a f0 ff ff 00 	cmpb   $0x0,-0xf86(%rbp)
    af10:	75 07                	jne    af19 <func_1+0x1764>
    af12:	ba 01 00 00 00       	mov    $0x1,%edx
    af17:	eb 05                	jmp    af1e <func_1+0x1769>
    af19:	ba 00 00 00 00       	mov    $0x0,%edx
    af1e:	48 8b 05 b3 a6 01 00 	mov    0x1a6b3(%rip),%rax        # 255d8 <g_4124>
    af25:	66 89 10             	mov    %dx,(%rax)
    af28:	0f b7 00             	movzwl (%rax),%eax
    af2b:	0f b7 c0             	movzwl %ax,%eax
    af2e:	33 85 d4 f0 ff ff    	xor    -0xf2c(%rbp),%eax
    af34:	41 89 c5             	mov    %eax,%r13d
    af37:	44 0f b7 a5 80 f0 ff 	movzwl -0xf80(%rbp),%r12d
    af3e:	ff 
    af3f:	0f b6 85 7a f0 ff ff 	movzbl -0xf86(%rbp),%eax
    af46:	f7 d0                	not    %eax
    af48:	41 89 c6             	mov    %eax,%r14d
    af4b:	be 07 00 00 00       	mov    $0x7,%esi
    af50:	bf 01 00 00 00       	mov    $0x1,%edi
    af55:	e8 ee de ff ff       	callq  8e48 <safe_rshift_func_uint16_t_u_s>
    af5a:	0f b7 d0             	movzwl %ax,%edx
    af5d:	8b 85 48 f6 ff ff    	mov    -0x9b8(%rbp),%eax
    af63:	39 c2                	cmp    %eax,%edx
    af65:	0f 9c c0             	setl   %al
    af68:	44 21 f0             	and    %r14d,%eax
    af6b:	0f be c0             	movsbl %al,%eax
    af6e:	44 89 e6             	mov    %r12d,%esi
    af71:	89 c7                	mov    %eax,%edi
    af73:	e8 bd d3 ff ff       	callq  8335 <safe_rshift_func_int8_t_s_s>
    af78:	48 8d 05 c9 7a 01 00 	lea    0x17ac9(%rip),%rax        # 22a48 <g_228>
    af7f:	0f b6 00             	movzbl (%rax),%eax
    af82:	44 0f be e0          	movsbl %al,%r12d
    af86:	48 8b 85 b0 f1 ff ff 	mov    -0xe50(%rbp),%rax
    af8d:	0f b7 00             	movzwl (%rax),%eax
    af90:	8d 48 ff             	lea    -0x1(%rax),%ecx
    af93:	48 8b 95 b0 f1 ff ff 	mov    -0xe50(%rbp),%rdx
    af9a:	66 89 0a             	mov    %cx,(%rdx)
    af9d:	0f b7 c0             	movzwl %ax,%eax
    afa0:	be 99 ae 00 00       	mov    $0xae99,%esi
    afa5:	89 c7                	mov    %eax,%edi
    afa7:	e8 53 dd ff ff       	callq  8cff <safe_add_func_uint16_t_u_u>
    afac:	0f be c0             	movsbl %al,%eax
    afaf:	44 89 e6             	mov    %r12d,%esi
    afb2:	89 c7                	mov    %eax,%edi
    afb4:	e8 e8 d2 ff ff       	callq  82a1 <safe_lshift_func_int8_t_s_s>
    afb9:	0f be c0             	movsbl %al,%eax
    afbc:	41 39 c5             	cmp    %eax,%r13d
    afbf:	0f 9c c0             	setl   %al
    afc2:	0f b6 d0             	movzbl %al,%edx
    afc5:	48 8b 85 88 f1 ff ff 	mov    -0xe78(%rbp),%rax
    afcc:	8b 00                	mov    (%rax),%eax
    afce:	21 d0                	and    %edx,%eax
    afd0:	48 98                	cltq   
    afd2:	48 89 de             	mov    %rbx,%rsi
    afd5:	48 89 c7             	mov    %rax,%rdi
    afd8:	e8 51 e0 ff ff       	callq  902e <safe_add_func_uint64_t_u_u>
    afdd:	89 85 d4 f0 ff ff    	mov    %eax,-0xf2c(%rbp)
    afe3:	48 8b 85 20 f1 ff ff 	mov    -0xee0(%rbp),%rax
    afea:	0f b6 95 76 f0 ff ff 	movzbl -0xf8a(%rbp),%edx
    aff1:	0f be d2             	movsbl %dl,%edx
    aff4:	8b 00                	mov    (%rax),%eax
    aff6:	48 63 d2             	movslq %edx,%rdx
    aff9:	48 8d 0c 95 00 00 00 	lea    0x0(,%rdx,4),%rcx
    b000:	00 
    b001:	48 8d 15 f8 83 01 00 	lea    0x183f8(%rip),%rdx        # 23400 <g_2932>
    b008:	89 04 11             	mov    %eax,(%rcx,%rdx,1)
    b00b:	48 c7 05 3a 7a 01 00 	movq   $0x0,0x17a3a(%rip)        # 22a50 <g_232>
    b012:	00 00 00 00 
    b016:	eb 2c                	jmp    b044 <func_1+0x188f>
    b018:	48 8b 05 49 9e 01 00 	mov    0x19e49(%rip),%rax        # 24e68 <g_2925>
    b01f:	48 8b 00             	mov    (%rax),%rax
    b022:	48 8b 10             	mov    (%rax),%rdx
    b025:	48 8b 05 4c b1 01 00 	mov    0x1b14c(%rip),%rax        # 26178 <g_4655>
    b02c:	48 8b 12             	mov    (%rdx),%rdx
    b02f:	48 89 10             	mov    %rdx,(%rax)
    b032:	48 8b 05 17 7a 01 00 	mov    0x17a17(%rip),%rax        # 22a50 <g_232>
    b039:	48 83 c0 01          	add    $0x1,%rax
    b03d:	48 89 05 0c 7a 01 00 	mov    %rax,0x17a0c(%rip)        # 22a50 <g_232>
    b044:	48 8b 05 05 7a 01 00 	mov    0x17a05(%rip),%rax        # 22a50 <g_232>
    b04b:	48 83 f8 02          	cmp    $0x2,%rax
    b04f:	76 c7                	jbe    b018 <func_1+0x1863>
    b051:	c7 85 70 f6 ff ff cf 	movl   $0xcf,-0x990(%rbp)
    b058:	00 00 00 
    b05b:	48 8b 05 e6 af 01 00 	mov    0x1afe6(%rip),%rax        # 26048 <g_4529>
    b062:	48 8b 00             	mov    (%rax),%rax
    b065:	48 8b 00             	mov    (%rax),%rax
    b068:	48 8b 00             	mov    (%rax),%rax
    b06b:	48 89 c2             	mov    %rax,%rdx
    b06e:	8b 85 08 f3 ff ff    	mov    -0xcf8(%rbp),%eax
    b074:	89 c0                	mov    %eax,%eax
    b076:	48 89 d6             	mov    %rdx,%rsi
    b079:	48 89 c7             	mov    %rax,%rdi
    b07c:	e8 76 d9 ff ff       	callq  89f7 <safe_div_func_int64_t_s_s>
    b081:	48 8d 05 b0 b5 01 00 	lea    0x1b5b0(%rip),%rax        # 26638 <g_2955>
    b088:	48 39 85 58 f1 ff ff 	cmp    %rax,-0xea8(%rbp)
    b08f:	0f 95 c0             	setne  %al
    b092:	0f b6 c0             	movzbl %al,%eax
    b095:	39 85 dc f0 ff ff    	cmp    %eax,-0xf24(%rbp)
    b09b:	0f 9d c0             	setge  %al
    b09e:	0f b6 d0             	movzbl %al,%edx
    b0a1:	48 8b 05 20 a5 01 00 	mov    0x1a520(%rip),%rax        # 255c8 <g_4103>
    b0a8:	c6 00 fa             	movb   $0xfa,(%rax)
    b0ab:	0f b6 08             	movzbl (%rax),%ecx
    b0ae:	48 8b 85 30 f1 ff ff 	mov    -0xed0(%rbp),%rax
    b0b5:	0f b6 00             	movzbl (%rax),%eax
    b0b8:	21 c1                	and    %eax,%ecx
    b0ba:	48 8b 85 30 f1 ff ff 	mov    -0xed0(%rbp),%rax
    b0c1:	88 08                	mov    %cl,(%rax)
    b0c3:	48 8b 85 30 f1 ff ff 	mov    -0xed0(%rbp),%rax
    b0ca:	0f b6 00             	movzbl (%rax),%eax
    b0cd:	0f be c0             	movsbl %al,%eax
    b0d0:	89 d6                	mov    %edx,%esi
    b0d2:	89 c7                	mov    %eax,%edi
    b0d4:	e8 15 d2 ff ff       	callq  82ee <safe_lshift_func_int8_t_s_u>
    b0d9:	48 0f be c0          	movsbq %al,%rax
    b0dd:	48 21 85 c0 f1 ff ff 	and    %rax,-0xe40(%rbp)
    b0e4:	48 8b 85 c0 f1 ff ff 	mov    -0xe40(%rbp),%rax
    b0eb:	89 c2                	mov    %eax,%edx
    b0ed:	8b 85 d4 f0 ff ff    	mov    -0xf2c(%rbp),%eax
    b0f3:	09 d0                	or     %edx,%eax
    b0f5:	89 85 d4 f0 ff ff    	mov    %eax,-0xf2c(%rbp)
    b0fb:	83 bd d4 f0 ff ff 00 	cmpl   $0x0,-0xf2c(%rbp)
    b102:	0f 94 c0             	sete   %al
    b105:	0f b6 d0             	movzbl %al,%edx
    b108:	8b 85 c8 f5 ff ff    	mov    -0xa38(%rbp),%eax
    b10e:	09 d0                	or     %edx,%eax
    b110:	89 85 c8 f5 ff ff    	mov    %eax,-0xa38(%rbp)
    b116:	48 8b 05 2b af 01 00 	mov    0x1af2b(%rip),%rax        # 26048 <g_4529>
    b11d:	48 8b 00             	mov    (%rax),%rax
    b120:	48 8b 00             	mov    (%rax),%rax
    b123:	48 8b 18             	mov    (%rax),%rbx
    b126:	48 83 bd c8 f1 ff ff 	cmpq   $0x0,-0xe38(%rbp)
    b12d:	00 
    b12e:	0f 95 c2             	setne  %dl
    b131:	48 8d 05 10 79 01 00 	lea    0x17910(%rip),%rax        # 22a48 <g_228>
    b138:	88 10                	mov    %dl,(%rax)
    b13a:	0f b6 00             	movzbl (%rax),%eax
    b13d:	84 c0                	test   %al,%al
    b13f:	0f 85 cd 00 00 00    	jne    b212 <func_1+0x1a5d>
    b145:	48 8d 05 84 ab 01 00 	lea    0x1ab84(%rip),%rax        # 25cd0 <g_4494+0x10>
    b14c:	48 39 85 98 f1 ff ff 	cmp    %rax,-0xe68(%rbp)
    b153:	0f 95 c0             	setne  %al
    b156:	0f b6 c0             	movzbl %al,%eax
    b159:	48 39 85 60 f1 ff ff 	cmp    %rax,-0xea0(%rbp)
    b160:	75 43                	jne    b1a5 <func_1+0x19f0>
    b162:	48 8b 05 6f a4 01 00 	mov    0x1a46f(%rip),%rax        # 255d8 <g_4124>
    b169:	0f b7 00             	movzwl (%rax),%eax
    b16c:	0f bf d0             	movswl %ax,%edx
    b16f:	8b 85 d8 f0 ff ff    	mov    -0xf28(%rbp),%eax
    b175:	98                   	cwtl   
    b176:	89 d6                	mov    %edx,%esi
    b178:	89 c7                	mov    %eax,%edi
    b17a:	e8 54 d2 ff ff       	callq  83d3 <safe_sub_func_int16_t_s_s>
    b17f:	48 8b 85 a0 f1 ff ff 	mov    -0xe60(%rbp),%rax
    b186:	48 3b 85 a8 f1 ff ff 	cmp    -0xe58(%rbp),%rax
    b18d:	0f 95 c0             	setne  %al
    b190:	0f b6 d0             	movzbl %al,%edx
    b193:	48 8b 05 66 ab 01 00 	mov    0x1ab66(%rip),%rax        # 25d00 <g_4525>
    b19a:	48 8b 00             	mov    (%rax),%rax
    b19d:	0f b6 00             	movzbl (%rax),%eax
    b1a0:	0f b6 c0             	movzbl %al,%eax
    b1a3:	39 c2                	cmp    %eax,%edx
    b1a5:	48 8b 95 68 f3 ff ff 	mov    -0xc98(%rbp),%rdx
    b1ac:	48 8b 85 c8 f1 ff ff 	mov    -0xe38(%rbp),%rax
    b1b3:	48 89 10             	mov    %rdx,(%rax)
    b1b6:	48 8b 85 c8 f1 ff ff 	mov    -0xe38(%rbp),%rax
    b1bd:	48 8b 10             	mov    (%rax),%rdx
    b1c0:	48 8b 85 d0 f1 ff ff 	mov    -0xe30(%rbp),%rax
    b1c7:	48 89 10             	mov    %rdx,(%rax)
    b1ca:	48 8b 85 d0 f1 ff ff 	mov    -0xe30(%rbp),%rax
    b1d1:	48 8b 00             	mov    (%rax),%rax
    b1d4:	48 85 c0             	test   %rax,%rax
    b1d7:	0f 95 c0             	setne  %al
    b1da:	0f b6 d0             	movzbl %al,%edx
    b1dd:	48 8b 85 30 f1 ff ff 	mov    -0xed0(%rbp),%rax
    b1e4:	0f b6 00             	movzbl (%rax),%eax
    b1e7:	09 c2                	or     %eax,%edx
    b1e9:	48 8b 85 30 f1 ff ff 	mov    -0xed0(%rbp),%rax
    b1f0:	88 10                	mov    %dl,(%rax)
    b1f2:	48 8b 05 ef a3 01 00 	mov    0x1a3ef(%rip),%rax        # 255e8 <g_4201>
    b1f9:	48 8b 00             	mov    (%rax),%rax
    b1fc:	48 8b 00             	mov    (%rax),%rax
    b1ff:	48 8b 95 30 f1 ff ff 	mov    -0xed0(%rbp),%rdx
    b206:	0f b6 12             	movzbl (%rdx),%edx
    b209:	88 10                	mov    %dl,(%rax)
    b20b:	0f b6 00             	movzbl (%rax),%eax
    b20e:	84 c0                	test   %al,%al
    b210:	74 07                	je     b219 <func_1+0x1a64>
    b212:	ba 01 00 00 00       	mov    $0x1,%edx
    b217:	eb 05                	jmp    b21e <func_1+0x1a69>
    b219:	ba 00 00 00 00       	mov    $0x0,%edx
    b21e:	48 8b 05 13 9c 01 00 	mov    0x19c13(%rip),%rax        # 24e38 <g_2823>
    b225:	48 63 d2             	movslq %edx,%rdx
    b228:	48 89 10             	mov    %rdx,(%rax)
    b22b:	48 8b 10             	mov    (%rax),%rdx
    b22e:	48 8b 05 0b ae 01 00 	mov    0x1ae0b(%rip),%rax        # 26040 <g_4530>
    b235:	48 8b 00             	mov    (%rax),%rax
    b238:	48 8b 00             	mov    (%rax),%rax
    b23b:	48 39 c2             	cmp    %rax,%rdx
    b23e:	74 07                	je     b247 <func_1+0x1a92>
    b240:	b8 01 00 00 00       	mov    $0x1,%eax
    b245:	eb 05                	jmp    b24c <func_1+0x1a97>
    b247:	b8 00 00 00 00       	mov    $0x0,%eax
    b24c:	48 39 d8             	cmp    %rbx,%rax
    b24f:	0f 97 c0             	seta   %al
    b252:	0f b6 c8             	movzbl %al,%ecx
    b255:	48 8b 05 04 9c 01 00 	mov    0x19c04(%rip),%rax        # 24e60 <g_2926>
    b25c:	48 8b 00             	mov    (%rax),%rax
    b25f:	48 8b 00             	mov    (%rax),%rax
    b262:	8b 10                	mov    (%rax),%edx
    b264:	48 8b 05 f5 9b 01 00 	mov    0x19bf5(%rip),%rax        # 24e60 <g_2926>
    b26b:	48 8b 00             	mov    (%rax),%rax
    b26e:	48 8b 00             	mov    (%rax),%rax
    b271:	21 ca                	and    %ecx,%edx
    b273:	89 10                	mov    %edx,(%rax)
    b275:	c7 05 39 81 01 00 00 	movl   $0x0,0x18139(%rip)        # 233b8 <g_2892>
    b27c:	00 00 00 
    b27f:	eb 77                	jmp    b2f8 <func_1+0x1b43>
    b281:	48 c7 85 d8 f1 ff ff 	movq   $0x0,-0xe28(%rbp)
    b288:	00 00 00 00 
    b28c:	c7 85 bc f0 ff ff 00 	movl   $0x0,-0xf44(%rbp)
    b293:	00 00 00 
    b296:	eb 1a                	jmp    b2b2 <func_1+0x1afd>
    b298:	8b 85 bc f0 ff ff    	mov    -0xf44(%rbp),%eax
    b29e:	48 98                	cltq   
    b2a0:	c7 84 85 f0 f3 ff ff 	movl   $0x292e34fe,-0xc10(%rbp,%rax,4)
    b2a7:	fe 34 2e 29 
    b2ab:	83 85 bc f0 ff ff 01 	addl   $0x1,-0xf44(%rbp)
    b2b2:	83 bd bc f0 ff ff 01 	cmpl   $0x1,-0xf44(%rbp)
    b2b9:	7e dd                	jle    b298 <func_1+0x1ae3>
    b2bb:	48 8b 15 b6 ae 01 00 	mov    0x1aeb6(%rip),%rdx        # 26178 <g_4655>
    b2c2:	48 8b 05 2f a3 01 00 	mov    0x1a32f(%rip),%rax        # 255f8 <g_4304>
    b2c9:	48 8b 00             	mov    (%rax),%rax
    b2cc:	48 8b 00             	mov    (%rax),%rax
    b2cf:	48 8b 12             	mov    (%rdx),%rdx
    b2d2:	48 89 10             	mov    %rdx,(%rax)
    b2d5:	48 8d 15 b4 a2 01 00 	lea    0x1a2b4(%rip),%rdx        # 25590 <g_4017>
    b2dc:	48 8b 00             	mov    (%rax),%rax
    b2df:	48 89 02             	mov    %rax,(%rdx)
    b2e2:	80 ad 78 f0 ff ff 01 	subb   $0x1,-0xf88(%rbp)
    b2e9:	8b 05 c9 80 01 00    	mov    0x180c9(%rip),%eax        # 233b8 <g_2892>
    b2ef:	83 c0 01             	add    $0x1,%eax
    b2f2:	89 05 c0 80 01 00    	mov    %eax,0x180c0(%rip)        # 233b8 <g_2892>
    b2f8:	8b 05 ba 80 01 00    	mov    0x180ba(%rip),%eax        # 233b8 <g_2892>
    b2fe:	83 f8 02             	cmp    $0x2,%eax
    b301:	0f 86 7a ff ff ff    	jbe    b281 <func_1+0x1acc>
    b307:	0f b6 85 76 f0 ff ff 	movzbl -0xf8a(%rbp),%eax
    b30e:	83 e8 01             	sub    $0x1,%eax
    b311:	88 85 76 f0 ff ff    	mov    %al,-0xf8a(%rbp)
    b317:	0f b6 85 76 f0 ff ff 	movzbl -0xf8a(%rbp),%eax
    b31e:	84 c0                	test   %al,%al
    b320:	0f 89 21 fa ff ff    	jns    ad47 <func_1+0x1592>
    b326:	8b 05 b8 76 01 00    	mov    0x176b8(%rip),%eax        # 229e4 <g_27>
    b32c:	83 e8 01             	sub    $0x1,%eax
    b32f:	89 05 af 76 01 00    	mov    %eax,0x176af(%rip)        # 229e4 <g_27>
    b335:	8b 05 a9 76 01 00    	mov    0x176a9(%rip),%eax        # 229e4 <g_27>
    b33b:	83 f8 e8             	cmp    $0xffffffe8,%eax
    b33e:	0f 85 40 f7 ff ff    	jne    aa84 <func_1+0x12cf>
    b344:	48 8b 05 fd 9a 01 00 	mov    0x19afd(%rip),%rax        # 24e48 <g_2832>
    b34b:	48 8b 00             	mov    (%rax),%rax
    b34e:	0f b6 00             	movzbl (%rax),%eax
    b351:	0f be d8             	movsbl %al,%ebx
    b354:	48 8b 85 88 f1 ff ff 	mov    -0xe78(%rbp),%rax
    b35b:	44 8b 20             	mov    (%rax),%r12d
    b35e:	48 8b 85 78 f1 ff ff 	mov    -0xe88(%rbp),%rax
    b365:	8b 00                	mov    (%rax),%eax
    b367:	44 0f b6 e8          	movzbl %al,%r13d
    b36b:	48 8b 85 78 f1 ff ff 	mov    -0xe88(%rbp),%rax
    b372:	8b 00                	mov    (%rax),%eax
    b374:	0f bf d0             	movswl %ax,%edx
    b377:	48 8b 85 20 f1 ff ff 	mov    -0xee0(%rbp),%rax
    b37e:	8b 00                	mov    (%rax),%eax
    b380:	83 f8 0b             	cmp    $0xb,%eax
    b383:	7f 14                	jg     b399 <func_1+0x1be4>
    b385:	48 8b 85 78 f1 ff ff 	mov    -0xe88(%rbp),%rax
    b38c:	8b 00                	mov    (%rax),%eax
    b38e:	85 c0                	test   %eax,%eax
    b390:	74 07                	je     b399 <func_1+0x1be4>
    b392:	b8 01 00 00 00       	mov    $0x1,%eax
    b397:	eb 05                	jmp    b39e <func_1+0x1be9>
    b399:	b8 00 00 00 00       	mov    $0x0,%eax
    b39e:	98                   	cwtl   
    b39f:	89 d6                	mov    %edx,%esi
    b3a1:	89 c7                	mov    %eax,%edi
    b3a3:	e8 ad d0 ff ff       	callq  8455 <safe_div_func_int16_t_s_s>
    b3a8:	0f b6 c0             	movzbl %al,%eax
    b3ab:	44 89 ee             	mov    %r13d,%esi
    b3ae:	89 c7                	mov    %eax,%edi
    b3b0:	e8 c3 d7 ff ff       	callq  8b78 <safe_sub_func_uint8_t_u_u>
    b3b5:	48 8d 05 6c a1 01 00 	lea    0x1a16c(%rip),%rax        # 25528 <g_3607+0x8>
    b3bc:	48 39 85 70 f1 ff ff 	cmp    %rax,-0xe90(%rbp)
    b3c3:	0f 95 c0             	setne  %al
    b3c6:	0f b6 c0             	movzbl %al,%eax
    b3c9:	44 89 e6             	mov    %r12d,%esi
    b3cc:	89 c7                	mov    %eax,%edi
    b3ce:	e8 75 da ff ff       	callq  8e48 <safe_rshift_func_uint16_t_u_s>
    b3d3:	66 83 f8 01          	cmp    $0x1,%ax
    b3d7:	0f 97 c0             	seta   %al
    b3da:	0f b6 d0             	movzbl %al,%edx
    b3dd:	48 8b 85 20 f1 ff ff 	mov    -0xee0(%rbp),%rax
    b3e4:	8b 00                	mov    (%rax),%eax
    b3e6:	98                   	cwtl   
    b3e7:	89 d6                	mov    %edx,%esi
    b3e9:	89 c7                	mov    %eax,%edi
    b3eb:	e8 05 d0 ff ff       	callq  83f5 <safe_mul_func_int16_t_s_s>
    b3f0:	0f bf d0             	movswl %ax,%edx
    b3f3:	48 8b 05 66 9a 01 00 	mov    0x19a66(%rip),%rax        # 24e60 <g_2926>
    b3fa:	48 8b 00             	mov    (%rax),%rax
    b3fd:	48 8b 00             	mov    (%rax),%rax
    b400:	8b 00                	mov    (%rax),%eax
    b402:	39 c2                	cmp    %eax,%edx
    b404:	0f 95 c0             	setne  %al
    b407:	0f b6 c0             	movzbl %al,%eax
    b40a:	89 c7                	mov    %eax,%edi
    b40c:	e8 ae cd ff ff       	callq  81bf <safe_unary_minus_func_int8_t_s>
    b411:	0f be c0             	movsbl %al,%eax
    b414:	89 de                	mov    %ebx,%esi
    b416:	89 c7                	mov    %eax,%edi
    b418:	e8 4d ce ff ff       	callq  826a <safe_div_func_int8_t_s_s>
    b41d:	0f be c0             	movsbl %al,%eax
    b420:	89 85 d0 f0 ff ff    	mov    %eax,-0xf30(%rbp)
    b426:	0f b7 85 2c f3 ff ff 	movzwl -0xcd4(%rbp),%eax
    b42d:	0f b7 c0             	movzwl %ax,%eax
    b430:	48 8b 5d c8          	mov    -0x38(%rbp),%rbx
    b434:	64 48 33 1c 25 28 00 	xor    %fs:0x28,%rbx
    b43b:	00 00 
    b43d:	74 05                	je     b444 <func_1+0x1c8f>
    b43f:	e8 2c cc ff ff       	callq  8070 <__stack_chk_fail@plt>
    b444:	48 81 c4 68 0f 00 00 	add    $0xf68,%rsp
    b44b:	5b                   	pop    %rbx
    b44c:	41 5c                	pop    %r12
    b44e:	41 5d                	pop    %r13
    b450:	41 5e                	pop    %r14
    b452:	41 5f                	pop    %r15
    b454:	5d                   	pop    %rbp
    b455:	c3                   	retq   

000000000000b456 <func_4>:
    b456:	f3 0f 1e fa          	endbr64 
    b45a:	55                   	push   %rbp
    b45b:	48 89 e5             	mov    %rsp,%rbp
    b45e:	41 55                	push   %r13
    b460:	41 54                	push   %r12
    b462:	53                   	push   %rbx
    b463:	48 81 ec e8 00 00 00 	sub    $0xe8,%rsp
    b46a:	89 bd 0c ff ff ff    	mov    %edi,-0xf4(%rbp)
    b470:	89 f1                	mov    %esi,%ecx
    b472:	89 d0                	mov    %edx,%eax
    b474:	89 ca                	mov    %ecx,%edx
    b476:	88 95 08 ff ff ff    	mov    %dl,-0xf8(%rbp)
    b47c:	66 89 85 04 ff ff ff 	mov    %ax,-0xfc(%rbp)
    b483:	64 48 8b 04 25 28 00 	mov    %fs:0x28,%rax
    b48a:	00 00 
    b48c:	48 89 45 d8          	mov    %rax,-0x28(%rbp)
    b490:	31 c0                	xor    %eax,%eax
    b492:	48 8d 05 4b 75 01 00 	lea    0x1754b(%rip),%rax        # 229e4 <g_27>
    b499:	48 89 85 20 ff ff ff 	mov    %rax,-0xe0(%rbp)
    b4a0:	48 8d 05 39 75 01 00 	lea    0x17539(%rip),%rax        # 229e0 <g_13>
    b4a7:	48 89 85 50 ff ff ff 	mov    %rax,-0xb0(%rbp)
    b4ae:	48 8d 05 2b 75 01 00 	lea    0x1752b(%rip),%rax        # 229e0 <g_13>
    b4b5:	48 89 85 58 ff ff ff 	mov    %rax,-0xa8(%rbp)
    b4bc:	48 8d 05 1d 75 01 00 	lea    0x1751d(%rip),%rax        # 229e0 <g_13>
    b4c3:	48 89 85 60 ff ff ff 	mov    %rax,-0xa0(%rbp)
    b4ca:	48 8d 05 0f 75 01 00 	lea    0x1750f(%rip),%rax        # 229e0 <g_13>
    b4d1:	48 89 85 68 ff ff ff 	mov    %rax,-0x98(%rbp)
    b4d8:	48 8d 05 01 75 01 00 	lea    0x17501(%rip),%rax        # 229e0 <g_13>
    b4df:	48 89 85 70 ff ff ff 	mov    %rax,-0x90(%rbp)
    b4e6:	48 8d 05 f3 74 01 00 	lea    0x174f3(%rip),%rax        # 229e0 <g_13>
    b4ed:	48 89 85 78 ff ff ff 	mov    %rax,-0x88(%rbp)
    b4f4:	48 8d 05 e5 74 01 00 	lea    0x174e5(%rip),%rax        # 229e0 <g_13>
    b4fb:	48 89 45 80          	mov    %rax,-0x80(%rbp)
    b4ff:	48 8d 05 da 74 01 00 	lea    0x174da(%rip),%rax        # 229e0 <g_13>
    b506:	48 89 45 88          	mov    %rax,-0x78(%rbp)
    b50a:	66 c7 85 30 ff ff ff 	movw   $0x378b,-0xd0(%rbp)
    b511:	8b 37 
    b513:	66 c7 85 32 ff ff ff 	movw   $0x0,-0xce(%rbp)
    b51a:	00 00 
    b51c:	66 c7 85 34 ff ff ff 	movw   $0x0,-0xcc(%rbp)
    b523:	00 00 
    b525:	66 c7 85 36 ff ff ff 	movw   $0x378b,-0xca(%rbp)
    b52c:	8b 37 
    b52e:	66 c7 85 38 ff ff ff 	movw   $0x0,-0xc8(%rbp)
    b535:	00 00 
    b537:	66 c7 85 3a ff ff ff 	movw   $0x0,-0xc6(%rbp)
    b53e:	00 00 
    b540:	66 c7 85 3c ff ff ff 	movw   $0x378b,-0xc4(%rbp)
    b547:	8b 37 
    b549:	66 c7 85 3e ff ff ff 	movw   $0x0,-0xc2(%rbp)
    b550:	00 00 
    b552:	66 c7 85 40 ff ff ff 	movw   $0x0,-0xc0(%rbp)
    b559:	00 00 
    b55b:	48 8d 85 20 ff ff ff 	lea    -0xe0(%rbp),%rax
    b562:	48 89 85 28 ff ff ff 	mov    %rax,-0xd8(%rbp)
    b569:	c7 85 1c ff ff ff 00 	movl   $0x0,-0xe4(%rbp)
    b570:	00 00 00 
    b573:	eb 18                	jmp    b58d <func_4+0x137>
    b575:	8b 85 1c ff ff ff    	mov    -0xe4(%rbp),%eax
    b57b:	48 98                	cltq   
    b57d:	48 c7 44 c5 90 ff ff 	movq   $0xffffffffffffffff,-0x70(%rbp,%rax,8)
    b584:	ff ff 
    b586:	83 85 1c ff ff ff 01 	addl   $0x1,-0xe4(%rbp)
    b58d:	83 bd 1c ff ff ff 08 	cmpl   $0x8,-0xe4(%rbp)
    b594:	7e df                	jle    b575 <func_4+0x11f>
    b596:	4c 8b 2d 8b 98 01 00 	mov    0x1988b(%rip),%r13        # 24e28 <g_2550>
    b59d:	0f b7 85 30 ff ff ff 	movzwl -0xd0(%rbp),%eax
    b5a4:	0f b6 d8             	movzbl %al,%ebx
    b5a7:	48 8b 45 b8          	mov    -0x48(%rbp),%rax
    b5ab:	44 0f bf e0          	movswl %ax,%r12d
    b5af:	0f b6 95 08 ff ff ff 	movzbl -0xf8(%rbp),%edx
    b5b6:	0f bf 85 04 ff ff ff 	movswl -0xfc(%rbp),%eax
    b5bd:	89 d6                	mov    %edx,%esi
    b5bf:	89 c7                	mov    %eax,%edi
    b5c1:	e8 f2 d8 ff ff       	callq  8eb8 <safe_add_func_uint32_t_u_u>
    b5c6:	98                   	cwtl   
    b5c7:	44 89 e6             	mov    %r12d,%esi
    b5ca:	89 c7                	mov    %eax,%edi
    b5cc:	e8 24 ce ff ff       	callq  83f5 <safe_mul_func_int16_t_s_s>
    b5d1:	66 85 c0             	test   %ax,%ax
    b5d4:	74 07                	je     b5dd <func_4+0x187>
    b5d6:	48 8b 45 c8          	mov    -0x38(%rbp),%rax
    b5da:	48 85 c0             	test   %rax,%rax
    b5dd:	be 0a b2 ff ff       	mov    $0xffffb20a,%esi
    b5e2:	bf 01 00 00 00       	mov    $0x1,%edi
    b5e7:	e8 09 ce ff ff       	callq  83f5 <safe_mul_func_int16_t_s_s>
    b5ec:	8b 15 f2 73 01 00    	mov    0x173f2(%rip),%edx        # 229e4 <g_27>
    b5f2:	48 8b 85 68 ff ff ff 	mov    -0x98(%rbp),%rax
    b5f9:	89 d6                	mov    %edx,%esi
    b5fb:	48 89 c7             	mov    %rax,%rdi
    b5fe:	e8 4b 2a 00 00       	callq  e04e <func_28>
    b603:	48 89 c6             	mov    %rax,%rsi
    b606:	48 8b 85 20 ff ff ff 	mov    -0xe0(%rbp),%rax
    b60d:	4d 89 e8             	mov    %r13,%r8
    b610:	89 d9                	mov    %ebx,%ecx
    b612:	ba 80 d5 cd 34       	mov    $0x34cdd580,%edx
    b617:	48 89 c7             	mov    %rax,%rdi
    b61a:	e8 ac 1c 00 00       	callq  d2cb <func_20>
    b61f:	48 8b 95 28 ff ff ff 	mov    -0xd8(%rbp),%rdx
    b626:	48 89 02             	mov    %rax,(%rdx)
    b629:	48 8b 85 28 ff ff ff 	mov    -0xd8(%rbp),%rax
    b630:	48 8b 10             	mov    (%rax),%rdx
    b633:	0f bf 85 04 ff ff ff 	movswl -0xfc(%rbp),%eax
    b63a:	48 89 d6             	mov    %rdx,%rsi
    b63d:	89 c7                	mov    %eax,%edi
    b63f:	e8 4d 00 00 00       	callq  b691 <func_17>
    b644:	48 8b 95 28 ff ff ff 	mov    -0xd8(%rbp),%rdx
    b64b:	48 89 02             	mov    %rax,(%rdx)
    b64e:	66 c7 85 04 ff ff ff 	movw   $0x0,-0xfc(%rbp)
    b655:	00 00 
    b657:	66 83 bd 04 ff ff ff 	cmpw   $0x11,-0xfc(%rbp)
    b65e:	11 
    b65f:	7e 08                	jle    b669 <func_4+0x213>
    b661:	8b 85 0c ff ff ff    	mov    -0xf4(%rbp),%eax
    b667:	eb 06                	jmp    b66f <func_4+0x219>
    b669:	8b 85 0c ff ff ff    	mov    -0xf4(%rbp),%eax
    b66f:	48 8b 5d d8          	mov    -0x28(%rbp),%rbx
    b673:	64 48 33 1c 25 28 00 	xor    %fs:0x28,%rbx
    b67a:	00 00 
    b67c:	74 05                	je     b683 <func_4+0x22d>
    b67e:	e8 ed c9 ff ff       	callq  8070 <__stack_chk_fail@plt>
    b683:	48 81 c4 e8 00 00 00 	add    $0xe8,%rsp
    b68a:	5b                   	pop    %rbx
    b68b:	41 5c                	pop    %r12
    b68d:	41 5d                	pop    %r13
    b68f:	5d                   	pop    %rbp
    b690:	c3                   	retq   

000000000000b691 <func_17>:
    b691:	f3 0f 1e fa          	endbr64 
    b695:	55                   	push   %rbp
    b696:	48 89 e5             	mov    %rsp,%rbp
    b699:	41 57                	push   %r15
    b69b:	41 56                	push   %r14
    b69d:	41 55                	push   %r13
    b69f:	41 54                	push   %r12
    b6a1:	53                   	push   %rbx
    b6a2:	48 81 ec 00 10 00 00 	sub    $0x1000,%rsp
    b6a9:	48 83 0c 24 00       	orq    $0x0,(%rsp)
    b6ae:	48 81 ec d8 03 00 00 	sub    $0x3d8,%rsp
    b6b5:	89 bd 1c ec ff ff    	mov    %edi,-0x13e4(%rbp)
    b6bb:	48 89 b5 10 ec ff ff 	mov    %rsi,-0x13f0(%rbp)
    b6c2:	64 48 8b 04 25 28 00 	mov    %fs:0x28,%rax
    b6c9:	00 00 
    b6cb:	48 89 45 c8          	mov    %rax,-0x38(%rbp)
    b6cf:	31 c0                	xor    %eax,%eax
    b6d1:	66 c7 85 00 f1 ff ff 	movw   $0x790,-0xf00(%rbp)
    b6d8:	90 07 
    b6da:	c6 85 02 f1 ff ff 00 	movb   $0x0,-0xefe(%rbp)
    b6e1:	66 c7 85 03 f1 ff ff 	movw   $0xff,-0xefd(%rbp)
    b6e8:	ff 00 
    b6ea:	c6 85 05 f1 ff ff 00 	movb   $0x0,-0xefb(%rbp)
    b6f1:	66 c7 85 06 f1 ff ff 	movw   $0xf107,-0xefa(%rbp)
    b6f8:	07 f1 
    b6fa:	c6 85 08 f1 ff ff e1 	movb   $0xe1,-0xef8(%rbp)
    b701:	66 c7 85 09 f1 ff ff 	movw   $0xf1ff,-0xef7(%rbp)
    b708:	ff f1 
    b70a:	c6 85 0b f1 ff ff dd 	movb   $0xdd,-0xef5(%rbp)
    b711:	66 c7 85 0c f1 ff ff 	movw   $0x62,-0xef4(%rbp)
    b718:	62 00 
    b71a:	c6 85 0e f1 ff ff e8 	movb   $0xe8,-0xef2(%rbp)
    b721:	66 c7 85 0f f1 ff ff 	movw   $0x755,-0xef1(%rbp)
    b728:	55 07 
    b72a:	c6 85 11 f1 ff ff ff 	movb   $0xff,-0xeef(%rbp)
    b731:	66 c7 85 12 f1 ff ff 	movw   $0xff,-0xeee(%rbp)
    b738:	ff 00 
    b73a:	c6 85 14 f1 ff ff 00 	movb   $0x0,-0xeec(%rbp)
    b741:	66 c7 85 15 f1 ff ff 	movw   $0xf13b,-0xeeb(%rbp)
    b748:	3b f1 
    b74a:	c6 85 17 f1 ff ff e8 	movb   $0xe8,-0xee9(%rbp)
    b751:	66 c7 85 18 f1 ff ff 	movw   $0xf1f7,-0xee8(%rbp)
    b758:	f7 f1 
    b75a:	c6 85 1a f1 ff ff 04 	movb   $0x4,-0xee6(%rbp)
    b761:	66 c7 85 1b f1 ff ff 	movw   $0x90,-0xee5(%rbp)
    b768:	90 00 
    b76a:	c6 85 1d f1 ff ff 50 	movb   $0x50,-0xee3(%rbp)
    b771:	66 c7 85 1e f1 ff ff 	movw   $0x762,-0xee2(%rbp)
    b778:	62 07 
    b77a:	c6 85 20 f1 ff ff 00 	movb   $0x0,-0xee0(%rbp)
    b781:	66 c7 85 21 f1 ff ff 	movw   $0xf7,-0xedf(%rbp)
    b788:	f7 00 
    b78a:	c6 85 23 f1 ff ff ff 	movb   $0xff,-0xedd(%rbp)
    b791:	66 c7 85 24 f1 ff ff 	movw   $0xfd04,-0xedc(%rbp)
    b798:	04 fd 
    b79a:	c6 85 26 f1 ff ff 48 	movb   $0x48,-0xeda(%rbp)
    b7a1:	66 c7 85 27 f1 ff ff 	movw   $0xfde8,-0xed9(%rbp)
    b7a8:	e8 fd 
    b7aa:	c6 85 29 f1 ff ff 01 	movb   $0x1,-0xed7(%rbp)
    b7b1:	66 c7 85 2a f1 ff ff 	movw   $0x100,-0xed6(%rbp)
    b7b8:	00 01 
    b7ba:	c6 85 2c f1 ff ff a1 	movb   $0xa1,-0xed4(%rbp)
    b7c1:	66 c7 85 2d f1 ff ff 	movw   $0xfaff,-0xed3(%rbp)
    b7c8:	ff fa 
    b7ca:	c6 85 2f f1 ff ff 00 	movb   $0x0,-0xed1(%rbp)
    b7d1:	66 c7 85 30 f1 ff ff 	movw   $0x1e8,-0xed0(%rbp)
    b7d8:	e8 01 
    b7da:	c6 85 32 f1 ff ff 01 	movb   $0x1,-0xece(%rbp)
    b7e1:	66 c7 85 33 f1 ff ff 	movw   $0xfddd,-0xecd(%rbp)
    b7e8:	dd fd 
    b7ea:	c6 85 35 f1 ff ff a1 	movb   $0xa1,-0xecb(%rbp)
    b7f1:	66 c7 85 36 f1 ff ff 	movw   $0xfde1,-0xeca(%rbp)
    b7f8:	e1 fd 
    b7fa:	c6 85 38 f1 ff ff 07 	movb   $0x7,-0xec8(%rbp)
    b801:	66 c7 85 39 f1 ff ff 	movw   $0x100,-0xec7(%rbp)
    b808:	00 01 
    b80a:	c6 85 3b f1 ff ff a5 	movb   $0xa5,-0xec5(%rbp)
    b811:	66 c7 85 3c f1 ff ff 	movw   $0xfa00,-0xec4(%rbp)
    b818:	00 fa 
    b81a:	c6 85 3e f1 ff ff 31 	movb   $0x31,-0xec2(%rbp)
    b821:	66 c7 85 3f f1 ff ff 	movw   $0x1e1,-0xec1(%rbp)
    b828:	e1 01 
    b82a:	c6 85 41 f1 ff ff 00 	movb   $0x0,-0xebf(%rbp)
    b831:	66 c7 85 42 f1 ff ff 	movw   $0xfdfc,-0xebe(%rbp)
    b838:	fc fd 
    b83a:	c6 85 44 f1 ff ff a5 	movb   $0xa5,-0xebc(%rbp)
    b841:	66 c7 85 45 f1 ff ff 	movw   $0xfd50,-0xebb(%rbp)
    b848:	50 fd 
    b84a:	c6 85 47 f1 ff ff 05 	movb   $0x5,-0xeb9(%rbp)
    b851:	66 c7 85 48 f1 ff ff 	movw   $0x1ff,-0xeb8(%rbp)
    b858:	ff 01 
    b85a:	c6 85 4a f1 ff ff 48 	movb   $0x48,-0xeb6(%rbp)
    b861:	66 c7 85 4b f1 ff ff 	movw   $0xfa00,-0xeb5(%rbp)
    b868:	00 fa 
    b86a:	c6 85 4d f1 ff ff 01 	movb   $0x1,-0xeb3(%rbp)
    b871:	66 c7 85 4e f1 ff ff 	movw   $0x150,-0xeb2(%rbp)
    b878:	50 01 
    b87a:	c6 85 50 f1 ff ff 31 	movb   $0x31,-0xeb0(%rbp)
    b881:	66 c7 85 51 f1 ff ff 	movw   $0xfd04,-0xeaf(%rbp)
    b888:	04 fd 
    b88a:	c6 85 53 f1 ff ff 48 	movb   $0x48,-0xead(%rbp)
    b891:	66 c7 85 54 f1 ff ff 	movw   $0xfde8,-0xeac(%rbp)
    b898:	e8 fd 
    b89a:	c6 85 56 f1 ff ff 01 	movb   $0x1,-0xeaa(%rbp)
    b8a1:	66 c7 85 57 f1 ff ff 	movw   $0x100,-0xea9(%rbp)
    b8a8:	00 01 
    b8aa:	c6 85 59 f1 ff ff a1 	movb   $0xa1,-0xea7(%rbp)
    b8b1:	66 c7 85 5a f1 ff ff 	movw   $0xfaff,-0xea6(%rbp)
    b8b8:	ff fa 
    b8ba:	c6 85 5c f1 ff ff 00 	movb   $0x0,-0xea4(%rbp)
    b8c1:	66 c7 85 5d f1 ff ff 	movw   $0x1e8,-0xea3(%rbp)
    b8c8:	e8 01 
    b8ca:	c6 85 5f f1 ff ff 01 	movb   $0x1,-0xea1(%rbp)
    b8d1:	66 c7 85 60 f1 ff ff 	movw   $0xfddd,-0xea0(%rbp)
    b8d8:	dd fd 
    b8da:	c6 85 62 f1 ff ff a1 	movb   $0xa1,-0xe9e(%rbp)
    b8e1:	66 c7 85 63 f1 ff ff 	movw   $0xfde1,-0xe9d(%rbp)
    b8e8:	e1 fd 
    b8ea:	c6 85 65 f1 ff ff 07 	movb   $0x7,-0xe9b(%rbp)
    b8f1:	66 c7 85 66 f1 ff ff 	movw   $0x100,-0xe9a(%rbp)
    b8f8:	00 01 
    b8fa:	c6 85 68 f1 ff ff a5 	movb   $0xa5,-0xe98(%rbp)
    b901:	66 c7 85 69 f1 ff ff 	movw   $0xfa00,-0xe97(%rbp)
    b908:	00 fa 
    b90a:	c6 85 6b f1 ff ff 31 	movb   $0x31,-0xe95(%rbp)
    b911:	66 c7 85 6c f1 ff ff 	movw   $0x1e1,-0xe94(%rbp)
    b918:	e1 01 
    b91a:	c6 85 6e f1 ff ff 00 	movb   $0x0,-0xe92(%rbp)
    b921:	66 c7 85 6f f1 ff ff 	movw   $0xfdfc,-0xe91(%rbp)
    b928:	fc fd 
    b92a:	c6 85 71 f1 ff ff a5 	movb   $0xa5,-0xe8f(%rbp)
    b931:	66 c7 85 72 f1 ff ff 	movw   $0xfd50,-0xe8e(%rbp)
    b938:	50 fd 
    b93a:	c6 85 74 f1 ff ff 05 	movb   $0x5,-0xe8c(%rbp)
    b941:	66 c7 85 75 f1 ff ff 	movw   $0x1ff,-0xe8b(%rbp)
    b948:	ff 01 
    b94a:	c6 85 77 f1 ff ff 48 	movb   $0x48,-0xe89(%rbp)
    b951:	66 c7 85 78 f1 ff ff 	movw   $0xfa00,-0xe88(%rbp)
    b958:	00 fa 
    b95a:	c6 85 7a f1 ff ff 01 	movb   $0x1,-0xe86(%rbp)
    b961:	66 c7 85 7b f1 ff ff 	movw   $0x150,-0xe85(%rbp)
    b968:	50 01 
    b96a:	c6 85 7d f1 ff ff 31 	movb   $0x31,-0xe83(%rbp)
    b971:	66 c7 85 7e f1 ff ff 	movw   $0xfd04,-0xe82(%rbp)
    b978:	04 fd 
    b97a:	c6 85 80 f1 ff ff 48 	movb   $0x48,-0xe80(%rbp)
    b981:	66 c7 85 81 f1 ff ff 	movw   $0xfde8,-0xe7f(%rbp)
    b988:	e8 fd 
    b98a:	c6 85 83 f1 ff ff 01 	movb   $0x1,-0xe7d(%rbp)
    b991:	66 c7 85 84 f1 ff ff 	movw   $0x100,-0xe7c(%rbp)
    b998:	00 01 
    b99a:	c6 85 86 f1 ff ff a1 	movb   $0xa1,-0xe7a(%rbp)
    b9a1:	66 c7 85 87 f1 ff ff 	movw   $0xfaff,-0xe79(%rbp)
    b9a8:	ff fa 
    b9aa:	c6 85 89 f1 ff ff 00 	movb   $0x0,-0xe77(%rbp)
    b9b1:	66 c7 85 8a f1 ff ff 	movw   $0x1e8,-0xe76(%rbp)
    b9b8:	e8 01 
    b9ba:	c6 85 8c f1 ff ff 01 	movb   $0x1,-0xe74(%rbp)
    b9c1:	66 c7 85 8d f1 ff ff 	movw   $0xfddd,-0xe73(%rbp)
    b9c8:	dd fd 
    b9ca:	c6 85 8f f1 ff ff a1 	movb   $0xa1,-0xe71(%rbp)
    b9d1:	66 c7 85 90 f1 ff ff 	movw   $0xfde1,-0xe70(%rbp)
    b9d8:	e1 fd 
    b9da:	c6 85 92 f1 ff ff 07 	movb   $0x7,-0xe6e(%rbp)
    b9e1:	66 c7 85 93 f1 ff ff 	movw   $0x100,-0xe6d(%rbp)
    b9e8:	00 01 
    b9ea:	c6 85 95 f1 ff ff a5 	movb   $0xa5,-0xe6b(%rbp)
    b9f1:	66 c7 85 96 f1 ff ff 	movw   $0xfa00,-0xe6a(%rbp)
    b9f8:	00 fa 
    b9fa:	c6 85 98 f1 ff ff 31 	movb   $0x31,-0xe68(%rbp)
    ba01:	66 c7 85 99 f1 ff ff 	movw   $0x1e1,-0xe67(%rbp)
    ba08:	e1 01 
    ba0a:	c6 85 9b f1 ff ff 00 	movb   $0x0,-0xe65(%rbp)
    ba11:	66 c7 85 9c f1 ff ff 	movw   $0xfdfc,-0xe64(%rbp)
    ba18:	fc fd 
    ba1a:	c6 85 9e f1 ff ff a5 	movb   $0xa5,-0xe62(%rbp)
    ba21:	66 c7 85 9f f1 ff ff 	movw   $0xfd50,-0xe61(%rbp)
    ba28:	50 fd 
    ba2a:	c6 85 a1 f1 ff ff 05 	movb   $0x5,-0xe5f(%rbp)
    ba31:	66 c7 85 a2 f1 ff ff 	movw   $0x1ff,-0xe5e(%rbp)
    ba38:	ff 01 
    ba3a:	c6 85 a4 f1 ff ff 48 	movb   $0x48,-0xe5c(%rbp)
    ba41:	66 c7 85 a5 f1 ff ff 	movw   $0xfa00,-0xe5b(%rbp)
    ba48:	00 fa 
    ba4a:	c6 85 a7 f1 ff ff 01 	movb   $0x1,-0xe59(%rbp)
    ba51:	66 c7 85 a8 f1 ff ff 	movw   $0x150,-0xe58(%rbp)
    ba58:	50 01 
    ba5a:	c6 85 aa f1 ff ff 31 	movb   $0x31,-0xe56(%rbp)
    ba61:	66 c7 85 ab f1 ff ff 	movw   $0xfd04,-0xe55(%rbp)
    ba68:	04 fd 
    ba6a:	c6 85 ad f1 ff ff 48 	movb   $0x48,-0xe53(%rbp)
    ba71:	66 c7 85 ae f1 ff ff 	movw   $0xfde8,-0xe52(%rbp)
    ba78:	e8 fd 
    ba7a:	c6 85 b0 f1 ff ff 01 	movb   $0x1,-0xe50(%rbp)
    ba81:	66 c7 85 b1 f1 ff ff 	movw   $0x100,-0xe4f(%rbp)
    ba88:	00 01 
    ba8a:	c6 85 b3 f1 ff ff a1 	movb   $0xa1,-0xe4d(%rbp)
    ba91:	66 c7 85 b4 f1 ff ff 	movw   $0xfaff,-0xe4c(%rbp)
    ba98:	ff fa 
    ba9a:	c6 85 b6 f1 ff ff 00 	movb   $0x0,-0xe4a(%rbp)
    baa1:	66 c7 85 b7 f1 ff ff 	movw   $0x1e8,-0xe49(%rbp)
    baa8:	e8 01 
    baaa:	c6 85 b9 f1 ff ff 01 	movb   $0x1,-0xe47(%rbp)
    bab1:	66 c7 85 ba f1 ff ff 	movw   $0xfddd,-0xe46(%rbp)
    bab8:	dd fd 
    baba:	c6 85 bc f1 ff ff a1 	movb   $0xa1,-0xe44(%rbp)
    bac1:	66 c7 85 bd f1 ff ff 	movw   $0xfde1,-0xe43(%rbp)
    bac8:	e1 fd 
    baca:	c6 85 bf f1 ff ff 07 	movb   $0x7,-0xe41(%rbp)
    bad1:	66 c7 85 c0 f1 ff ff 	movw   $0x100,-0xe40(%rbp)
    bad8:	00 01 
    bada:	c6 85 c2 f1 ff ff a5 	movb   $0xa5,-0xe3e(%rbp)
    bae1:	66 c7 85 c3 f1 ff ff 	movw   $0xfa00,-0xe3d(%rbp)
    bae8:	00 fa 
    baea:	c6 85 c5 f1 ff ff 31 	movb   $0x31,-0xe3b(%rbp)
    baf1:	66 c7 85 c6 f1 ff ff 	movw   $0x1e1,-0xe3a(%rbp)
    baf8:	e1 01 
    bafa:	c6 85 c8 f1 ff ff 00 	movb   $0x0,-0xe38(%rbp)
    bb01:	66 c7 85 c9 f1 ff ff 	movw   $0xfdfc,-0xe37(%rbp)
    bb08:	fc fd 
    bb0a:	c6 85 cb f1 ff ff a5 	movb   $0xa5,-0xe35(%rbp)
    bb11:	66 c7 85 cc f1 ff ff 	movw   $0xfd50,-0xe34(%rbp)
    bb18:	50 fd 
    bb1a:	c6 85 ce f1 ff ff 05 	movb   $0x5,-0xe32(%rbp)
    bb21:	66 c7 85 cf f1 ff ff 	movw   $0x1ff,-0xe31(%rbp)
    bb28:	ff 01 
    bb2a:	c6 85 d1 f1 ff ff 48 	movb   $0x48,-0xe2f(%rbp)
    bb31:	48 8d 05 88 aa 01 00 	lea    0x1aa88(%rip),%rax        # 265c0 <g_1145>
    bb38:	48 89 85 d8 ed ff ff 	mov    %rax,-0x1228(%rbp)
    bb3f:	c7 85 84 ec ff ff 00 	movl   $0x0,-0x137c(%rbp)
    bb46:	00 00 00 
    bb49:	48 8d 05 20 05 01 00 	lea    0x10520(%rip),%rax        # 1c070 <g_1701+0x10>
    bb50:	48 89 85 90 ed ff ff 	mov    %rax,-0x1270(%rbp)
    bb57:	48 8d 05 da aa 01 00 	lea    0x1aada(%rip),%rax        # 26638 <g_2955>
    bb5e:	48 89 85 90 ec ff ff 	mov    %rax,-0x1370(%rbp)
    bb65:	48 8d 05 cc aa 01 00 	lea    0x1aacc(%rip),%rax        # 26638 <g_2955>
    bb6c:	48 89 85 98 ec ff ff 	mov    %rax,-0x1368(%rbp)
    bb73:	48 8d 85 00 f4 ff ff 	lea    -0xc00(%rbp),%rax
    bb7a:	48 8d 15 7f 7f 01 00 	lea    0x17f7f(%rip),%rdx        # 23b00 <g_4621+0x5a2>
    bb81:	b9 2a 00 00 00       	mov    $0x2a,%ecx
    bb86:	48 89 c7             	mov    %rax,%rdi
    bb89:	48 89 d6             	mov    %rdx,%rsi
    bb8c:	f3 48 a5             	rep movsq %ds:(%rsi),%es:(%rdi)
    bb8f:	48 8d 05 ea 77 01 00 	lea    0x177ea(%rip),%rax        # 23380 <g_2519>
    bb96:	48 89 85 a0 ec ff ff 	mov    %rax,-0x1360(%rbp)
    bb9d:	48 8d 85 40 ef ff ff 	lea    -0x10c0(%rbp),%rax
    bba4:	48 89 85 a8 ec ff ff 	mov    %rax,-0x1358(%rbp)
    bbab:	48 8d 85 a8 ec ff ff 	lea    -0x1358(%rbp),%rax
    bbb2:	48 89 85 80 ee ff ff 	mov    %rax,-0x1180(%rbp)
    bbb9:	48 8d 85 a8 ec ff ff 	lea    -0x1358(%rbp),%rax
    bbc0:	48 89 85 88 ee ff ff 	mov    %rax,-0x1178(%rbp)
    bbc7:	48 8d 85 a8 ec ff ff 	lea    -0x1358(%rbp),%rax
    bbce:	48 89 85 90 ee ff ff 	mov    %rax,-0x1170(%rbp)
    bbd5:	48 8d 85 a8 ec ff ff 	lea    -0x1358(%rbp),%rax
    bbdc:	48 89 85 98 ee ff ff 	mov    %rax,-0x1168(%rbp)
    bbe3:	48 8d 85 a8 ec ff ff 	lea    -0x1358(%rbp),%rax
    bbea:	48 89 85 a0 ee ff ff 	mov    %rax,-0x1160(%rbp)
    bbf1:	48 8d 85 a8 ec ff ff 	lea    -0x1358(%rbp),%rax
    bbf8:	48 89 85 a8 ee ff ff 	mov    %rax,-0x1158(%rbp)
    bbff:	48 8d 85 a8 ec ff ff 	lea    -0x1358(%rbp),%rax
    bc06:	48 89 85 b0 ee ff ff 	mov    %rax,-0x1150(%rbp)
    bc0d:	48 8d 85 a8 ec ff ff 	lea    -0x1358(%rbp),%rax
    bc14:	48 89 85 b8 ee ff ff 	mov    %rax,-0x1148(%rbp)
    bc1b:	48 8d 85 80 ee ff ff 	lea    -0x1180(%rbp),%rax
    bc22:	48 83 c0 10          	add    $0x10,%rax
    bc26:	48 89 85 98 ed ff ff 	mov    %rax,-0x1268(%rbp)
    bc2d:	48 8d 05 36 77 01 00 	lea    0x17736(%rip),%rax        # 2336a <g_2134+0x2>
    bc34:	48 89 85 a0 ed ff ff 	mov    %rax,-0x1260(%rbp)
    bc3b:	48 8d 05 e6 a9 01 00 	lea    0x1a9e6(%rip),%rax        # 26628 <g_2142>
    bc42:	48 89 85 a8 ed ff ff 	mov    %rax,-0x1258(%rbp)
    bc49:	66 c7 85 24 ec ff ff 	movw   $0x940c,-0x13dc(%rbp)
    bc50:	0c 94 
    bc52:	48 8d 85 f0 ed ff ff 	lea    -0x1210(%rbp),%rax
    bc59:	48 83 c0 08          	add    $0x8,%rax
    bc5d:	48 89 85 b0 ed ff ff 	mov    %rax,-0x1250(%rbp)
    bc64:	48 8d 85 50 f5 ff ff 	lea    -0xab0(%rbp),%rax
    bc6b:	48 8d 15 0e 0e 01 00 	lea    0x10e0e(%rip),%rdx        # 1ca80 <g_4277+0x9c0>
    bc72:	b9 5a 00 00 00       	mov    $0x5a,%ecx
    bc77:	48 89 c7             	mov    %rax,%rdi
    bc7a:	48 89 d6             	mov    %rdx,%rsi
    bc7d:	f3 48 a5             	rep movsq %ds:(%rsi),%es:(%rdi)
    bc80:	48 c7 85 88 ed ff ff 	movq   $0x0,-0x1278(%rbp)
    bc87:	00 00 00 00 
    bc8b:	c7 85 88 ec ff ff 05 	movl   $0x5,-0x1378(%rbp)
    bc92:	00 00 00 
    bc95:	c7 85 50 ee ff ff 5c 	movl   $0xd67d815c,-0x11b0(%rbp)
    bc9c:	81 7d d6 
    bc9f:	c7 85 54 ee ff ff 5c 	movl   $0xd67d815c,-0x11ac(%rbp)
    bca6:	81 7d d6 
    bca9:	c7 85 58 ee ff ff 5c 	movl   $0xd67d815c,-0x11a8(%rbp)
    bcb0:	81 7d d6 
    bcb3:	c7 85 5c ee ff ff 5c 	movl   $0xd67d815c,-0x11a4(%rbp)
    bcba:	81 7d d6 
    bcbd:	c7 85 60 ee ff ff 5c 	movl   $0xd67d815c,-0x11a0(%rbp)
    bcc4:	81 7d d6 
    bcc7:	c7 85 64 ee ff ff 5c 	movl   $0xd67d815c,-0x119c(%rbp)
    bcce:	81 7d d6 
    bcd1:	c7 85 68 ee ff ff 5c 	movl   $0xd67d815c,-0x1198(%rbp)
    bcd8:	81 7d d6 
    bcdb:	c7 85 6c ee ff ff 5c 	movl   $0xd67d815c,-0x1194(%rbp)
    bce2:	81 7d d6 
    bce5:	c7 85 70 ee ff ff 5c 	movl   $0xd67d815c,-0x1190(%rbp)
    bcec:	81 7d d6 
    bcef:	c7 85 74 ee ff ff 5c 	movl   $0xd67d815c,-0x118c(%rbp)
    bcf6:	81 7d d6 
    bcf9:	c7 85 8c ec ff ff 98 	movl   $0xf670b298,-0x1374(%rbp)
    bd00:	b2 70 f6 
    bd03:	66 c7 85 32 ec ff ff 	movw   $0xeff3,-0x13ce(%rbp)
    bd0a:	f3 ef 
    bd0c:	48 c7 85 b8 ed ff ff 	movq   $0x0,-0x1248(%rbp)
    bd13:	00 00 00 00 
    bd17:	c6 85 22 ec ff ff cd 	movb   $0xcd,-0x13de(%rbp)
    bd1e:	c6 85 23 ec ff ff fd 	movb   $0xfd,-0x13dd(%rbp)
    bd25:	48 8d 05 7c 8d 01 00 	lea    0x18d7c(%rip),%rax        # 24aa8 <g_725>
    bd2c:	48 89 85 c0 ed ff ff 	mov    %rax,-0x1240(%rbp)
    bd33:	c7 85 34 ec ff ff e0 	movl   $0xc36155e0,-0x13cc(%rbp)
    bd3a:	55 61 c3 
    bd3d:	48 8d 85 00 f1 ff ff 	lea    -0xf00(%rbp),%rax
    bd44:	48 05 90 00 00 00    	add    $0x90,%rax
    bd4a:	48 89 85 b0 ec ff ff 	mov    %rax,-0x1350(%rbp)
    bd51:	48 c7 85 b8 ec ff ff 	movq   $0x0,-0x1348(%rbp)
    bd58:	00 00 00 00 
    bd5c:	48 c7 85 c0 ec ff ff 	movq   $0x0,-0x1340(%rbp)
    bd63:	00 00 00 00 
    bd67:	48 8d 85 c0 ec ff ff 	lea    -0x1340(%rbp),%rax
    bd6e:	48 89 85 c8 ed ff ff 	mov    %rax,-0x1238(%rbp)
    bd75:	48 b8 24 62 79 ee 44 	movabs $0x5e352544ee796224,%rax
    bd7c:	25 35 5e 
    bd7f:	48 89 85 d0 ed ff ff 	mov    %rax,-0x1230(%rbp)
    bd86:	66 c7 85 26 ec ff ff 	movw   $0x451e,-0x13da(%rbp)
    bd8d:	1e 45 
    bd8f:	48 8d 05 4a 03 01 00 	lea    0x1034a(%rip),%rax        # 1c0e0 <g_4277+0x20>
    bd96:	48 89 85 f0 ef ff ff 	mov    %rax,-0x1010(%rbp)
    bd9d:	48 c7 85 f8 ef ff ff 	movq   $0x0,-0x1008(%rbp)
    bda4:	00 00 00 00 
    bda8:	48 c7 85 00 f0 ff ff 	movq   $0x0,-0x1000(%rbp)
    bdaf:	00 00 00 00 
    bdb3:	48 8d 05 26 03 01 00 	lea    0x10326(%rip),%rax        # 1c0e0 <g_4277+0x20>
    bdba:	48 89 85 08 f0 ff ff 	mov    %rax,-0xff8(%rbp)
    bdc1:	48 c7 85 10 f0 ff ff 	movq   $0x0,-0xff0(%rbp)
    bdc8:	00 00 00 00 
    bdcc:	48 c7 85 18 f0 ff ff 	movq   $0x0,-0xfe8(%rbp)
    bdd3:	00 00 00 00 
    bdd7:	48 8d 05 02 03 01 00 	lea    0x10302(%rip),%rax        # 1c0e0 <g_4277+0x20>
    bdde:	48 89 85 20 f0 ff ff 	mov    %rax,-0xfe0(%rbp)
    bde5:	48 8d 05 f4 02 01 00 	lea    0x102f4(%rip),%rax        # 1c0e0 <g_4277+0x20>
    bdec:	48 89 85 28 f0 ff ff 	mov    %rax,-0xfd8(%rbp)
    bdf3:	48 8d 05 d6 02 01 00 	lea    0x102d6(%rip),%rax        # 1c0d0 <g_4277+0x10>
    bdfa:	48 89 85 30 f0 ff ff 	mov    %rax,-0xfd0(%rbp)
    be01:	48 8d 05 d8 02 01 00 	lea    0x102d8(%rip),%rax        # 1c0e0 <g_4277+0x20>
    be08:	48 89 85 38 f0 ff ff 	mov    %rax,-0xfc8(%rbp)
    be0f:	48 8d 05 ca 02 01 00 	lea    0x102ca(%rip),%rax        # 1c0e0 <g_4277+0x20>
    be16:	48 89 85 40 f0 ff ff 	mov    %rax,-0xfc0(%rbp)
    be1d:	48 8d 05 ac 02 01 00 	lea    0x102ac(%rip),%rax        # 1c0d0 <g_4277+0x10>
    be24:	48 89 85 48 f0 ff ff 	mov    %rax,-0xfb8(%rbp)
    be2b:	48 8d 05 ae 02 01 00 	lea    0x102ae(%rip),%rax        # 1c0e0 <g_4277+0x20>
    be32:	48 89 85 50 f0 ff ff 	mov    %rax,-0xfb0(%rbp)
    be39:	48 8d 05 a0 02 01 00 	lea    0x102a0(%rip),%rax        # 1c0e0 <g_4277+0x20>
    be40:	48 89 85 58 f0 ff ff 	mov    %rax,-0xfa8(%rbp)
    be47:	48 8d 85 f0 ef ff ff 	lea    -0x1010(%rbp),%rax
    be4e:	48 83 c0 20          	add    $0x20,%rax
    be52:	48 89 85 c0 f2 ff ff 	mov    %rax,-0xd40(%rbp)
    be59:	48 8d 85 f0 ef ff ff 	lea    -0x1010(%rbp),%rax
    be60:	48 83 c0 20          	add    $0x20,%rax
    be64:	48 89 85 c8 f2 ff ff 	mov    %rax,-0xd38(%rbp)
    be6b:	48 8d 85 f0 ef ff ff 	lea    -0x1010(%rbp),%rax
    be72:	48 83 c0 20          	add    $0x20,%rax
    be76:	48 89 85 d0 f2 ff ff 	mov    %rax,-0xd30(%rbp)
    be7d:	48 8d 85 f0 ef ff ff 	lea    -0x1010(%rbp),%rax
    be84:	48 83 c0 20          	add    $0x20,%rax
    be88:	48 89 85 d8 f2 ff ff 	mov    %rax,-0xd28(%rbp)
    be8f:	48 8d 85 f0 ef ff ff 	lea    -0x1010(%rbp),%rax
    be96:	48 83 c0 68          	add    $0x68,%rax
    be9a:	48 89 85 e0 f2 ff ff 	mov    %rax,-0xd20(%rbp)
    bea1:	48 8d 85 f0 ef ff ff 	lea    -0x1010(%rbp),%rax
    bea8:	48 83 c0 20          	add    $0x20,%rax
    beac:	48 89 85 e8 f2 ff ff 	mov    %rax,-0xd18(%rbp)
    beb3:	48 8d 85 f0 ef ff ff 	lea    -0x1010(%rbp),%rax
    beba:	48 83 c0 40          	add    $0x40,%rax
    bebe:	48 89 85 f0 f2 ff ff 	mov    %rax,-0xd10(%rbp)
    bec5:	48 8d 85 f0 ef ff ff 	lea    -0x1010(%rbp),%rax
    becc:	48 83 c0 20          	add    $0x20,%rax
    bed0:	48 89 85 f8 f2 ff ff 	mov    %rax,-0xd08(%rbp)
    bed7:	48 8d 85 f0 ef ff ff 	lea    -0x1010(%rbp),%rax
    bede:	48 83 c0 20          	add    $0x20,%rax
    bee2:	48 89 85 00 f3 ff ff 	mov    %rax,-0xd00(%rbp)
    bee9:	48 8d 85 f0 ef ff ff 	lea    -0x1010(%rbp),%rax
    bef0:	48 83 c0 20          	add    $0x20,%rax
    bef4:	48 89 85 08 f3 ff ff 	mov    %rax,-0xcf8(%rbp)
    befb:	48 8d 85 f0 ef ff ff 	lea    -0x1010(%rbp),%rax
    bf02:	48 83 c0 20          	add    $0x20,%rax
    bf06:	48 89 85 10 f3 ff ff 	mov    %rax,-0xcf0(%rbp)
    bf0d:	48 8d 85 f0 ef ff ff 	lea    -0x1010(%rbp),%rax
    bf14:	48 83 c0 20          	add    $0x20,%rax
    bf18:	48 89 85 18 f3 ff ff 	mov    %rax,-0xce8(%rbp)
    bf1f:	48 8d 85 f0 ef ff ff 	lea    -0x1010(%rbp),%rax
    bf26:	48 83 c0 20          	add    $0x20,%rax
    bf2a:	48 89 85 20 f3 ff ff 	mov    %rax,-0xce0(%rbp)
    bf31:	48 8d 85 f0 ef ff ff 	lea    -0x1010(%rbp),%rax
    bf38:	48 83 c0 20          	add    $0x20,%rax
    bf3c:	48 89 85 28 f3 ff ff 	mov    %rax,-0xcd8(%rbp)
    bf43:	48 8d 85 f0 ef ff ff 	lea    -0x1010(%rbp),%rax
    bf4a:	48 83 c0 68          	add    $0x68,%rax
    bf4e:	48 89 85 30 f3 ff ff 	mov    %rax,-0xcd0(%rbp)
    bf55:	48 8d 85 f0 ef ff ff 	lea    -0x1010(%rbp),%rax
    bf5c:	48 83 c0 20          	add    $0x20,%rax
    bf60:	48 89 85 38 f3 ff ff 	mov    %rax,-0xcc8(%rbp)
    bf67:	48 8d 85 f0 ef ff ff 	lea    -0x1010(%rbp),%rax
    bf6e:	48 83 c0 40          	add    $0x40,%rax
    bf72:	48 89 85 40 f3 ff ff 	mov    %rax,-0xcc0(%rbp)
    bf79:	48 8d 85 f0 ef ff ff 	lea    -0x1010(%rbp),%rax
    bf80:	48 83 c0 20          	add    $0x20,%rax
    bf84:	48 89 85 48 f3 ff ff 	mov    %rax,-0xcb8(%rbp)
    bf8b:	48 8d 85 f0 ef ff ff 	lea    -0x1010(%rbp),%rax
    bf92:	48 83 c0 20          	add    $0x20,%rax
    bf96:	48 89 85 50 f3 ff ff 	mov    %rax,-0xcb0(%rbp)
    bf9d:	48 8d 85 f0 ef ff ff 	lea    -0x1010(%rbp),%rax
    bfa4:	48 83 c0 20          	add    $0x20,%rax
    bfa8:	48 89 85 58 f3 ff ff 	mov    %rax,-0xca8(%rbp)
    bfaf:	48 8d 85 f0 ef ff ff 	lea    -0x1010(%rbp),%rax
    bfb6:	48 83 c0 20          	add    $0x20,%rax
    bfba:	48 89 85 60 f3 ff ff 	mov    %rax,-0xca0(%rbp)
    bfc1:	48 8d 85 f0 ef ff ff 	lea    -0x1010(%rbp),%rax
    bfc8:	48 83 c0 20          	add    $0x20,%rax
    bfcc:	48 89 85 68 f3 ff ff 	mov    %rax,-0xc98(%rbp)
    bfd3:	48 8d 85 f0 ef ff ff 	lea    -0x1010(%rbp),%rax
    bfda:	48 83 c0 20          	add    $0x20,%rax
    bfde:	48 89 85 70 f3 ff ff 	mov    %rax,-0xc90(%rbp)
    bfe5:	48 8d 85 f0 ef ff ff 	lea    -0x1010(%rbp),%rax
    bfec:	48 83 c0 20          	add    $0x20,%rax
    bff0:	48 89 85 78 f3 ff ff 	mov    %rax,-0xc88(%rbp)
    bff7:	48 8d 85 f0 ef ff ff 	lea    -0x1010(%rbp),%rax
    bffe:	48 83 c0 68          	add    $0x68,%rax
    c002:	48 89 85 80 f3 ff ff 	mov    %rax,-0xc80(%rbp)
    c009:	48 8d 85 f0 ef ff ff 	lea    -0x1010(%rbp),%rax
    c010:	48 83 c0 20          	add    $0x20,%rax
    c014:	48 89 85 88 f3 ff ff 	mov    %rax,-0xc78(%rbp)
    c01b:	48 8d 85 f0 ef ff ff 	lea    -0x1010(%rbp),%rax
    c022:	48 83 c0 40          	add    $0x40,%rax
    c026:	48 89 85 90 f3 ff ff 	mov    %rax,-0xc70(%rbp)
    c02d:	48 8d 85 f0 ef ff ff 	lea    -0x1010(%rbp),%rax
    c034:	48 83 c0 20          	add    $0x20,%rax
    c038:	48 89 85 98 f3 ff ff 	mov    %rax,-0xc68(%rbp)
    c03f:	48 8d 85 f0 ef ff ff 	lea    -0x1010(%rbp),%rax
    c046:	48 83 c0 20          	add    $0x20,%rax
    c04a:	48 89 85 a0 f3 ff ff 	mov    %rax,-0xc60(%rbp)
    c051:	48 8d 85 f0 ef ff ff 	lea    -0x1010(%rbp),%rax
    c058:	48 83 c0 20          	add    $0x20,%rax
    c05c:	48 89 85 a8 f3 ff ff 	mov    %rax,-0xc58(%rbp)
    c063:	48 8d 85 f0 ef ff ff 	lea    -0x1010(%rbp),%rax
    c06a:	48 83 c0 20          	add    $0x20,%rax
    c06e:	48 89 85 b0 f3 ff ff 	mov    %rax,-0xc50(%rbp)
    c075:	48 8d 85 f0 ef ff ff 	lea    -0x1010(%rbp),%rax
    c07c:	48 83 c0 20          	add    $0x20,%rax
    c080:	48 89 85 b8 f3 ff ff 	mov    %rax,-0xc48(%rbp)
    c087:	48 8d 85 f0 ef ff ff 	lea    -0x1010(%rbp),%rax
    c08e:	48 83 c0 20          	add    $0x20,%rax
    c092:	48 89 85 c0 f3 ff ff 	mov    %rax,-0xc40(%rbp)
    c099:	48 8d 85 f0 ef ff ff 	lea    -0x1010(%rbp),%rax
    c0a0:	48 83 c0 20          	add    $0x20,%rax
    c0a4:	48 89 85 c8 f3 ff ff 	mov    %rax,-0xc38(%rbp)
    c0ab:	48 8d 85 f0 ef ff ff 	lea    -0x1010(%rbp),%rax
    c0b2:	48 83 c0 68          	add    $0x68,%rax
    c0b6:	48 89 85 d0 f3 ff ff 	mov    %rax,-0xc30(%rbp)
    c0bd:	48 8d 85 f0 ef ff ff 	lea    -0x1010(%rbp),%rax
    c0c4:	48 83 c0 20          	add    $0x20,%rax
    c0c8:	48 89 85 d8 f3 ff ff 	mov    %rax,-0xc28(%rbp)
    c0cf:	48 8d 85 f0 ef ff ff 	lea    -0x1010(%rbp),%rax
    c0d6:	48 83 c0 40          	add    $0x40,%rax
    c0da:	48 89 85 e0 f3 ff ff 	mov    %rax,-0xc20(%rbp)
    c0e1:	48 8d 85 f0 ef ff ff 	lea    -0x1010(%rbp),%rax
    c0e8:	48 83 c0 20          	add    $0x20,%rax
    c0ec:	48 89 85 e8 f3 ff ff 	mov    %rax,-0xc18(%rbp)
    c0f3:	48 8d 85 f0 ef ff ff 	lea    -0x1010(%rbp),%rax
    c0fa:	48 83 c0 20          	add    $0x20,%rax
    c0fe:	48 89 85 f0 f3 ff ff 	mov    %rax,-0xc10(%rbp)
    c105:	48 8d 85 f0 ef ff ff 	lea    -0x1010(%rbp),%rax
    c10c:	48 83 c0 20          	add    $0x20,%rax
    c110:	48 89 85 f8 f3 ff ff 	mov    %rax,-0xc08(%rbp)
    c117:	66 c7 85 2e ec ff ff 	movw   $0xf7ba,-0x13d2(%rbp)
    c11e:	ba f7 
    c120:	66 c7 85 30 ec ff ff 	movw   $0x76d9,-0x13d0(%rbp)
    c127:	d9 76 
    c129:	c7 85 80 ec ff ff f6 	movl   $0xa50dd6f6,-0x1380(%rbp)
    c130:	d6 0d a5 
    c133:	c7 85 40 ec ff ff 00 	movl   $0x0,-0x13c0(%rbp)
    c13a:	00 00 00 
    c13d:	eb 1e                	jmp    c15d <func_17+0xacc>
    c13f:	8b 85 40 ec ff ff    	mov    -0x13c0(%rbp),%eax
    c145:	48 98                	cltq   
    c147:	48 8d 15 16 69 01 00 	lea    0x16916(%rip),%rdx        # 22a64 <g_343>
    c14e:	48 89 94 c5 40 ef ff 	mov    %rdx,-0x10c0(%rbp,%rax,8)
    c155:	ff 
    c156:	83 85 40 ec ff ff 01 	addl   $0x1,-0x13c0(%rbp)
    c15d:	83 bd 40 ec ff ff 08 	cmpl   $0x8,-0x13c0(%rbp)
    c164:	7e d9                	jle    c13f <func_17+0xaae>
    c166:	c7 85 40 ec ff ff 00 	movl   $0x0,-0x13c0(%rbp)
    c16d:	00 00 00 
    c170:	eb 1e                	jmp    c190 <func_17+0xaff>
    c172:	8b 85 40 ec ff ff    	mov    -0x13c0(%rbp),%eax
    c178:	48 98                	cltq   
    c17a:	48 8d 15 3f a4 01 00 	lea    0x1a43f(%rip),%rdx        # 265c0 <g_1145>
    c181:	48 89 94 c5 f0 ed ff 	mov    %rdx,-0x1210(%rbp,%rax,8)
    c188:	ff 
    c189:	83 85 40 ec ff ff 01 	addl   $0x1,-0x13c0(%rbp)
    c190:	83 bd 40 ec ff ff 01 	cmpl   $0x1,-0x13c0(%rbp)
    c197:	7e d9                	jle    c172 <func_17+0xae1>
    c199:	c7 85 40 ec ff ff 00 	movl   $0x0,-0x13c0(%rbp)
    c1a0:	00 00 00 
    c1a3:	eb 1a                	jmp    c1bf <func_17+0xb2e>
    c1a5:	8b 85 40 ec ff ff    	mov    -0x13c0(%rbp),%eax
    c1ab:	48 98                	cltq   
    c1ad:	c7 84 85 e4 ed ff ff 	movl   $0xd14b6879,-0x121c(%rbp,%rax,4)
    c1b4:	79 68 4b d1 
    c1b8:	83 85 40 ec ff ff 01 	addl   $0x1,-0x13c0(%rbp)
    c1bf:	83 bd 40 ec ff ff 02 	cmpl   $0x2,-0x13c0(%rbp)
    c1c6:	7e dd                	jle    c1a5 <func_17+0xb14>
    c1c8:	c7 85 40 ec ff ff 00 	movl   $0x0,-0x13c0(%rbp)
    c1cf:	00 00 00 
    c1d2:	eb 1e                	jmp    c1f2 <func_17+0xb61>
    c1d4:	8b 85 40 ec ff ff    	mov    -0x13c0(%rbp),%eax
    c1da:	48 98                	cltq   
    c1dc:	48 8d 95 b0 ec ff ff 	lea    -0x1350(%rbp),%rdx
    c1e3:	48 89 94 c5 c0 ee ff 	mov    %rdx,-0x1140(%rbp,%rax,8)
    c1ea:	ff 
    c1eb:	83 85 40 ec ff ff 01 	addl   $0x1,-0x13c0(%rbp)
    c1f2:	83 bd 40 ec ff ff 07 	cmpl   $0x7,-0x13c0(%rbp)
    c1f9:	7e d9                	jle    c1d4 <func_17+0xb43>
    c1fb:	c7 85 40 ec ff ff 00 	movl   $0x0,-0x13c0(%rbp)
    c202:	00 00 00 
    c205:	eb 22                	jmp    c229 <func_17+0xb98>
    c207:	8b 85 40 ec ff ff    	mov    -0x13c0(%rbp),%eax
    c20d:	48 98                	cltq   
    c20f:	48 8d 95 c0 ee ff ff 	lea    -0x1140(%rbp),%rdx
    c216:	48 83 c2 18          	add    $0x18,%rdx
    c21a:	48 89 94 c5 00 ee ff 	mov    %rdx,-0x1200(%rbp,%rax,8)
    c221:	ff 
    c222:	83 85 40 ec ff ff 01 	addl   $0x1,-0x13c0(%rbp)
    c229:	83 bd 40 ec ff ff 01 	cmpl   $0x1,-0x13c0(%rbp)
    c230:	7e d5                	jle    c207 <func_17+0xb76>
    c232:	c7 05 6c a3 01 00 00 	movl   $0x0,0x1a36c(%rip)        # 265a8 <g_342>
    c239:	00 00 00 
    c23c:	e9 80 0e 00 00       	jmpq   d0c1 <func_17+0x1a30>
    c241:	48 8d 05 f0 a3 01 00 	lea    0x1a3f0(%rip),%rax        # 26638 <g_2955>
    c248:	48 89 85 80 ed ff ff 	mov    %rax,-0x1280(%rbp)
    c24f:	c7 85 38 ec ff ff 01 	movl   $0x1,-0x13c8(%rbp)
    c256:	00 00 00 
    c259:	48 8d 05 48 71 01 00 	lea    0x17148(%rip),%rax        # 233a8 <g_2591>
    c260:	48 89 85 c8 ec ff ff 	mov    %rax,-0x1338(%rbp)
    c267:	c7 85 60 f0 ff ff 9b 	movl   $0xb0e8149b,-0xfa0(%rbp)
    c26e:	14 e8 b0 
    c271:	c7 85 64 f0 ff ff 8c 	movl   $0x436cbb8c,-0xf9c(%rbp)
    c278:	bb 6c 43 
    c27b:	c7 85 68 f0 ff ff 9b 	movl   $0xb0e8149b,-0xf98(%rbp)
    c282:	14 e8 b0 
    c285:	c7 85 6c f0 ff ff 4d 	movl   $0x9c42ad4d,-0xf94(%rbp)
    c28c:	ad 42 9c 
    c28f:	c7 85 70 f0 ff ff b0 	movl   $0x2e7798b0,-0xf90(%rbp)
    c296:	98 77 2e 
    c299:	c7 85 74 f0 ff ff f6 	movl   $0xfffffff6,-0xf8c(%rbp)
    c2a0:	ff ff ff 
    c2a3:	c7 85 78 f0 ff ff 01 	movl   $0x1,-0xf88(%rbp)
    c2aa:	00 00 00 
    c2ad:	c7 85 7c f0 ff ff f6 	movl   $0xfffffff6,-0xf84(%rbp)
    c2b4:	ff ff ff 
    c2b7:	c7 85 80 f0 ff ff 6a 	movl   $0xd29f6c6a,-0xf80(%rbp)
    c2be:	6c 9f d2 
    c2c1:	c7 85 84 f0 ff ff 4d 	movl   $0x9c42ad4d,-0xf7c(%rbp)
    c2c8:	ad 42 9c 
    c2cb:	c7 85 88 f0 ff ff f8 	movl   $0xfffffff8,-0xf78(%rbp)
    c2d2:	ff ff ff 
    c2d5:	c7 85 8c f0 ff ff 4d 	movl   $0x9c42ad4d,-0xf74(%rbp)
    c2dc:	ad 42 9c 
    c2df:	c7 85 90 f0 ff ff 6a 	movl   $0xd29f6c6a,-0xf70(%rbp)
    c2e6:	6c 9f d2 
    c2e9:	c7 85 94 f0 ff ff f7 	movl   $0x181315f7,-0xf6c(%rbp)
    c2f0:	15 13 18 
    c2f3:	c7 85 98 f0 ff ff b0 	movl   $0x2e7798b0,-0xf68(%rbp)
    c2fa:	98 77 2e 
    c2fd:	c7 85 9c f0 ff ff fa 	movl   $0xbd46bfa,-0xf64(%rbp)
    c304:	6b d4 0b 
    c307:	c7 85 a0 f0 ff ff 6a 	movl   $0xd29f6c6a,-0xf60(%rbp)
    c30e:	6c 9f d2 
    c311:	c7 85 a4 f0 ff ff f7 	movl   $0x181315f7,-0xf5c(%rbp)
    c318:	15 13 18 
    c31b:	c7 85 a8 f0 ff ff b0 	movl   $0x2e7798b0,-0xf58(%rbp)
    c322:	98 77 2e 
    c325:	c7 85 ac f0 ff ff fa 	movl   $0xbd46bfa,-0xf54(%rbp)
    c32c:	6b d4 0b 
    c32f:	c7 85 b0 f0 ff ff b0 	movl   $0x2e7798b0,-0xf50(%rbp)
    c336:	98 77 2e 
    c339:	c7 85 b4 f0 ff ff f7 	movl   $0x181315f7,-0xf4c(%rbp)
    c340:	15 13 18 
    c343:	c7 85 b8 f0 ff ff 6a 	movl   $0xd29f6c6a,-0xf48(%rbp)
    c34a:	6c 9f d2 
    c34d:	c7 85 bc f0 ff ff 4d 	movl   $0x9c42ad4d,-0xf44(%rbp)
    c354:	ad 42 9c 
    c357:	c7 85 c0 f0 ff ff 9b 	movl   $0xb0e8149b,-0xf40(%rbp)
    c35e:	14 e8 b0 
    c361:	c7 85 c4 f0 ff ff 4d 	movl   $0x9c42ad4d,-0xf3c(%rbp)
    c368:	ad 42 9c 
    c36b:	c7 85 c8 f0 ff ff b0 	movl   $0x2e7798b0,-0xf38(%rbp)
    c372:	98 77 2e 
    c375:	c7 85 cc f0 ff ff f6 	movl   $0xfffffff6,-0xf34(%rbp)
    c37c:	ff ff ff 
    c37f:	c7 85 d0 f0 ff ff 01 	movl   $0x1,-0xf30(%rbp)
    c386:	00 00 00 
    c389:	c7 85 d4 f0 ff ff f6 	movl   $0xfffffff6,-0xf2c(%rbp)
    c390:	ff ff ff 
    c393:	c7 85 d8 f0 ff ff b0 	movl   $0x2e7798b0,-0xf28(%rbp)
    c39a:	98 77 2e 
    c39d:	c7 85 dc f0 ff ff 4d 	movl   $0x9c42ad4d,-0xf24(%rbp)
    c3a4:	ad 42 9c 
    c3a7:	c7 85 e0 f0 ff ff b0 	movl   $0x2e7798b0,-0xf20(%rbp)
    c3ae:	98 77 2e 
    c3b1:	c7 85 e4 f0 ff ff 8c 	movl   $0x436cbb8c,-0xf1c(%rbp)
    c3b8:	bb 6c 43 
    c3bb:	c7 85 e8 f0 ff ff f8 	movl   $0xfffffff8,-0xf18(%rbp)
    c3c2:	ff ff ff 
    c3c5:	c7 85 ec f0 ff ff fa 	movl   $0xbd46bfa,-0xf14(%rbp)
    c3cc:	6b d4 0b 
    c3cf:	c7 85 f0 f0 ff ff 01 	movl   $0x1,-0xf10(%rbp)
    c3d6:	00 00 00 
    c3d9:	c7 85 f4 f0 ff ff 4d 	movl   $0x9c42ad4d,-0xf0c(%rbp)
    c3e0:	ad 42 9c 
    c3e3:	c7 85 f8 f0 ff ff 01 	movl   $0x1,-0xf08(%rbp)
    c3ea:	00 00 00 
    c3ed:	c7 85 fc f0 ff ff fa 	movl   $0xbd46bfa,-0xf04(%rbp)
    c3f4:	6b d4 0b 
    c3f7:	66 c7 85 10 ee ff ff 	movw   $0xf83c,-0x11f0(%rbp)
    c3fe:	3c f8 
    c400:	66 c7 85 12 ee ff ff 	movw   $0x1,-0x11ee(%rbp)
    c407:	01 00 
    c409:	66 c7 85 14 ee ff ff 	movw   $0xf83c,-0x11ec(%rbp)
    c410:	3c f8 
    c412:	66 c7 85 16 ee ff ff 	movw   $0xf83c,-0x11ea(%rbp)
    c419:	3c f8 
    c41b:	66 c7 85 18 ee ff ff 	movw   $0x1,-0x11e8(%rbp)
    c422:	01 00 
    c424:	66 c7 85 1a ee ff ff 	movw   $0xf83c,-0x11e6(%rbp)
    c42b:	3c f8 
    c42d:	66 c7 85 1c ee ff ff 	movw   $0xf83c,-0x11e4(%rbp)
    c434:	3c f8 
    c436:	66 c7 85 1e ee ff ff 	movw   $0x1,-0x11e2(%rbp)
    c43d:	01 00 
    c43f:	66 c7 85 20 ee ff ff 	movw   $0xf83c,-0x11e0(%rbp)
    c446:	3c f8 
    c448:	c7 85 7c ec ff ff 01 	movl   $0x1,-0x1384(%rbp)
    c44f:	00 00 00 
    c452:	48 8d 05 e7 a1 01 00 	lea    0x1a1e7(%rip),%rax        # 26640 <g_3146>
    c459:	48 89 85 58 ed ff ff 	mov    %rax,-0x12a8(%rbp)
    c460:	48 c7 05 e5 65 01 00 	movq   $0x2,0x165e5(%rip)        # 22a50 <g_232>
    c467:	02 00 00 00 
    c46b:	e9 30 0b 00 00       	jmpq   cfa0 <func_17+0x190f>
    c470:	48 8d 05 49 a1 01 00 	lea    0x1a149(%rip),%rax        # 265c0 <g_1145>
    c477:	48 89 85 70 ed ff ff 	mov    %rax,-0x1290(%rbp)
    c47e:	48 c7 85 78 ed ff ff 	movq   $0x0,-0x1288(%rbp)
    c485:	00 00 00 00 
    c489:	48 c7 85 e0 f1 ff ff 	movq   $0x0,-0xe20(%rbp)
    c490:	00 00 00 00 
    c494:	48 8d 05 ad 6e 01 00 	lea    0x16ead(%rip),%rax        # 23348 <g_1641>
    c49b:	48 89 85 e8 f1 ff ff 	mov    %rax,-0xe18(%rbp)
    c4a2:	48 8d 05 67 65 01 00 	lea    0x16567(%rip),%rax        # 22a10 <g_144>
    c4a9:	48 89 85 f0 f1 ff ff 	mov    %rax,-0xe10(%rbp)
    c4b0:	48 8d 05 4b 65 01 00 	lea    0x1654b(%rip),%rax        # 22a02 <g_88>
    c4b7:	48 89 85 f8 f1 ff ff 	mov    %rax,-0xe08(%rbp)
    c4be:	48 8d 05 4b 65 01 00 	lea    0x1654b(%rip),%rax        # 22a10 <g_144>
    c4c5:	48 89 85 00 f2 ff ff 	mov    %rax,-0xe00(%rbp)
    c4cc:	48 8d 05 75 6e 01 00 	lea    0x16e75(%rip),%rax        # 23348 <g_1641>
    c4d3:	48 89 85 08 f2 ff ff 	mov    %rax,-0xdf8(%rbp)
    c4da:	48 c7 85 10 f2 ff ff 	movq   $0x0,-0xdf0(%rbp)
    c4e1:	00 00 00 00 
    c4e5:	48 8d 05 24 65 01 00 	lea    0x16524(%rip),%rax        # 22a10 <g_144>
    c4ec:	48 89 85 18 f2 ff ff 	mov    %rax,-0xde8(%rbp)
    c4f3:	48 8d 05 08 65 01 00 	lea    0x16508(%rip),%rax        # 22a02 <g_88>
    c4fa:	48 89 85 20 f2 ff ff 	mov    %rax,-0xde0(%rbp)
    c501:	48 8d 05 08 65 01 00 	lea    0x16508(%rip),%rax        # 22a10 <g_144>
    c508:	48 89 85 28 f2 ff ff 	mov    %rax,-0xdd8(%rbp)
    c50f:	48 8d 05 fa 64 01 00 	lea    0x164fa(%rip),%rax        # 22a10 <g_144>
    c516:	48 89 85 30 f2 ff ff 	mov    %rax,-0xdd0(%rbp)
    c51d:	48 8d 05 de 64 01 00 	lea    0x164de(%rip),%rax        # 22a02 <g_88>
    c524:	48 89 85 38 f2 ff ff 	mov    %rax,-0xdc8(%rbp)
    c52b:	48 8d 05 3f 6e 01 00 	lea    0x16e3f(%rip),%rax        # 23371 <g_2134+0x9>
    c532:	48 89 85 40 f2 ff ff 	mov    %rax,-0xdc0(%rbp)
    c539:	48 8d 05 2d 6e 01 00 	lea    0x16e2d(%rip),%rax        # 2336d <g_2134+0x5>
    c540:	48 89 85 48 f2 ff ff 	mov    %rax,-0xdb8(%rbp)
    c547:	48 8d 05 fa 6d 01 00 	lea    0x16dfa(%rip),%rax        # 23348 <g_1641>
    c54e:	48 89 85 50 f2 ff ff 	mov    %rax,-0xdb0(%rbp)
    c555:	48 8d 05 11 6e 01 00 	lea    0x16e11(%rip),%rax        # 2336d <g_2134+0x5>
    c55c:	48 89 85 58 f2 ff ff 	mov    %rax,-0xda8(%rbp)
    c563:	48 8d 05 07 6e 01 00 	lea    0x16e07(%rip),%rax        # 23371 <g_2134+0x9>
    c56a:	48 89 85 60 f2 ff ff 	mov    %rax,-0xda0(%rbp)
    c571:	48 8d 05 8a 64 01 00 	lea    0x1648a(%rip),%rax        # 22a02 <g_88>
    c578:	48 89 85 68 f2 ff ff 	mov    %rax,-0xd98(%rbp)
    c57f:	48 8d 05 7c 64 01 00 	lea    0x1647c(%rip),%rax        # 22a02 <g_88>
    c586:	48 89 85 70 f2 ff ff 	mov    %rax,-0xd90(%rbp)
    c58d:	48 8d 05 6e 64 01 00 	lea    0x1646e(%rip),%rax        # 22a02 <g_88>
    c594:	48 89 85 78 f2 ff ff 	mov    %rax,-0xd88(%rbp)
    c59b:	48 8d 05 c6 6d 01 00 	lea    0x16dc6(%rip),%rax        # 23368 <g_2134>
    c5a2:	48 89 85 80 f2 ff ff 	mov    %rax,-0xd80(%rbp)
    c5a9:	48 8d 05 60 64 01 00 	lea    0x16460(%rip),%rax        # 22a10 <g_144>
    c5b0:	48 89 85 88 f2 ff ff 	mov    %rax,-0xd78(%rbp)
    c5b7:	48 8d 05 44 64 01 00 	lea    0x16444(%rip),%rax        # 22a02 <g_88>
    c5be:	48 89 85 90 f2 ff ff 	mov    %rax,-0xd70(%rbp)
    c5c5:	48 8d 05 44 64 01 00 	lea    0x16444(%rip),%rax        # 22a10 <g_144>
    c5cc:	48 89 85 98 f2 ff ff 	mov    %rax,-0xd68(%rbp)
    c5d3:	48 8d 05 6e 6d 01 00 	lea    0x16d6e(%rip),%rax        # 23348 <g_1641>
    c5da:	48 89 85 a0 f2 ff ff 	mov    %rax,-0xd60(%rbp)
    c5e1:	48 8d 05 28 64 01 00 	lea    0x16428(%rip),%rax        # 22a10 <g_144>
    c5e8:	48 89 85 a8 f2 ff ff 	mov    %rax,-0xd58(%rbp)
    c5ef:	48 8d 05 52 6d 01 00 	lea    0x16d52(%rip),%rax        # 23348 <g_1641>
    c5f6:	48 89 85 b0 f2 ff ff 	mov    %rax,-0xd50(%rbp)
    c5fd:	48 8d 05 2c a0 01 00 	lea    0x1a02c(%rip),%rax        # 26630 <g_2185>
    c604:	48 89 85 00 ed ff ff 	mov    %rax,-0x1300(%rbp)
    c60b:	48 c7 85 30 ed ff ff 	movq   $0x0,-0x12d0(%rbp)
    c612:	00 00 00 00 
    c616:	c7 85 60 ec ff ff 3f 	movl   $0xc6e3c03f,-0x13a0(%rbp)
    c61d:	c0 e3 c6 
    c620:	66 c7 85 2c ec ff ff 	movw   $0x277e,-0x13d4(%rbp)
    c627:	7e 27 
    c629:	c7 85 64 ec ff ff ba 	movl   $0x31746cba,-0x139c(%rbp)
    c630:	6c 74 31 
    c633:	c7 85 68 ec ff ff f9 	movl   $0xfffffff9,-0x1398(%rbp)
    c63a:	ff ff ff 
    c63d:	c7 85 6c ec ff ff ff 	movl   $0xffffffff,-0x1394(%rbp)
    c644:	ff ff ff 
    c647:	c7 85 70 ec ff ff fc 	movl   $0xfffffffc,-0x1390(%rbp)
    c64e:	ff ff ff 
    c651:	c7 85 74 ec ff ff c2 	movl   $0x9908cdc2,-0x138c(%rbp)
    c658:	cd 08 99 
    c65b:	c7 85 78 ec ff ff 01 	movl   $0x1,-0x1388(%rbp)
    c662:	00 00 00 
    c665:	66 c7 85 30 ee ff ff 	movw   $0xfff9,-0x11d0(%rbp)
    c66c:	f9 ff 
    c66e:	66 c7 85 32 ee ff ff 	movw   $0xd3f4,-0x11ce(%rbp)
    c675:	f4 d3 
    c677:	66 c7 85 34 ee ff ff 	movw   $0xfff9,-0x11cc(%rbp)
    c67e:	f9 ff 
    c680:	66 c7 85 36 ee ff ff 	movw   $0xd3f4,-0x11ca(%rbp)
    c687:	f4 d3 
    c689:	66 c7 85 38 ee ff ff 	movw   $0xfff9,-0x11c8(%rbp)
    c690:	f9 ff 
    c692:	66 c7 85 3a ee ff ff 	movw   $0xd3f4,-0x11c6(%rbp)
    c699:	f4 d3 
    c69b:	66 c7 85 3c ee ff ff 	movw   $0xfff9,-0x11c4(%rbp)
    c6a2:	f9 ff 
    c6a4:	66 c7 85 3e ee ff ff 	movw   $0xd3f4,-0x11c2(%rbp)
    c6ab:	f4 d3 
    c6ad:	66 c7 85 40 ee ff ff 	movw   $0xfff9,-0x11c0(%rbp)
    c6b4:	f9 ff 
    c6b6:	66 c7 85 42 ee ff ff 	movw   $0xd3f4,-0x11be(%rbp)
    c6bd:	f4 d3 
    c6bf:	48 8b 05 02 83 01 00 	mov    0x18302(%rip),%rax        # 249c8 <g_683>
    c6c6:	48 c7 00 00 00 00 00 	movq   $0x0,(%rax)
    c6cd:	c7 05 0d 63 01 00 00 	movl   $0x0,0x1630d(%rip)        # 229e4 <g_27>
    c6d4:	00 00 00 
    c6d7:	eb 1c                	jmp    c6f5 <func_17+0x1064>
    c6d9:	48 8b 85 10 ec ff ff 	mov    -0x13f0(%rbp),%rax
    c6e0:	8b 00                	mov    (%rax),%eax
    c6e2:	85 c0                	test   %eax,%eax
    c6e4:	75 1c                	jne    c702 <func_17+0x1071>
    c6e6:	8b 05 f8 62 01 00    	mov    0x162f8(%rip),%eax        # 229e4 <g_27>
    c6ec:	83 c0 01             	add    $0x1,%eax
    c6ef:	89 05 ef 62 01 00    	mov    %eax,0x162ef(%rip)        # 229e4 <g_27>
    c6f5:	8b 05 e9 62 01 00    	mov    0x162e9(%rip),%eax        # 229e4 <g_27>
    c6fb:	83 f8 09             	cmp    $0x9,%eax
    c6fe:	7e d9                	jle    c6d9 <func_17+0x1048>
    c700:	eb 01                	jmp    c703 <func_17+0x1072>
    c702:	90                   	nop
    c703:	48 c7 05 4a 6c 01 00 	movq   $0x2,0x16c4a(%rip)        # 23358 <g_2025>
    c70a:	02 00 00 00 
    c70e:	e9 6a 08 00 00       	jmpq   cf7d <func_17+0x18ec>
    c713:	48 8d 05 96 83 01 00 	lea    0x18396(%rip),%rax        # 24ab0 <g_1144>
    c71a:	48 89 85 38 ed ff ff 	mov    %rax,-0x12c8(%rbp)
    c721:	48 8d 05 28 6c 01 00 	lea    0x16c28(%rip),%rax        # 23350 <g_1985>
    c728:	48 89 85 40 ed ff ff 	mov    %rax,-0x12c0(%rbp)
    c72f:	48 8d 85 90 ec ff ff 	lea    -0x1370(%rbp),%rax
    c736:	48 89 85 48 ed ff ff 	mov    %rax,-0x12b8(%rbp)
    c73d:	48 c7 85 50 ed ff ff 	movq   $0x0,-0x12b0(%rbp)
    c744:	00 00 00 00 
    c748:	48 8d 05 e9 9e 01 00 	lea    0x19ee9(%rip),%rax        # 26638 <g_2955>
    c74f:	48 89 85 d0 ec ff ff 	mov    %rax,-0x1330(%rbp)
    c756:	48 8d 85 d0 ec ff ff 	lea    -0x1330(%rbp),%rax
    c75d:	48 89 85 00 ef ff ff 	mov    %rax,-0x1100(%rbp)
    c764:	48 8d 85 d0 ec ff ff 	lea    -0x1330(%rbp),%rax
    c76b:	48 89 85 08 ef ff ff 	mov    %rax,-0x10f8(%rbp)
    c772:	48 8d 85 d0 ec ff ff 	lea    -0x1330(%rbp),%rax
    c779:	48 89 85 10 ef ff ff 	mov    %rax,-0x10f0(%rbp)
    c780:	48 8d 85 d0 ec ff ff 	lea    -0x1330(%rbp),%rax
    c787:	48 89 85 18 ef ff ff 	mov    %rax,-0x10e8(%rbp)
    c78e:	48 8d 85 d0 ec ff ff 	lea    -0x1330(%rbp),%rax
    c795:	48 89 85 20 ef ff ff 	mov    %rax,-0x10e0(%rbp)
    c79c:	48 8d 85 d0 ec ff ff 	lea    -0x1330(%rbp),%rax
    c7a3:	48 89 85 28 ef ff ff 	mov    %rax,-0x10d8(%rbp)
    c7aa:	48 8d 85 d0 ec ff ff 	lea    -0x1330(%rbp),%rax
    c7b1:	48 89 85 30 ef ff ff 	mov    %rax,-0x10d0(%rbp)
    c7b8:	48 8d 85 d0 ec ff ff 	lea    -0x1330(%rbp),%rax
    c7bf:	48 89 85 38 ef ff ff 	mov    %rax,-0x10c8(%rbp)
    c7c6:	c7 85 3c ec ff ff 01 	movl   $0x1,-0x13c4(%rbp)
    c7cd:	00 00 00 
    c7d0:	48 8d 05 3d 6c 01 00 	lea    0x16c3d(%rip),%rax        # 23414 <g_2932+0x14>
    c7d7:	48 89 85 20 ed ff ff 	mov    %rax,-0x12e0(%rbp)
    c7de:	66 c7 85 2a ec ff ff 	movw   $0x13a9,-0x13d6(%rbp)
    c7e5:	a9 13 
    c7e7:	c7 85 54 ec ff ff 00 	movl   $0x0,-0x13ac(%rbp)
    c7ee:	00 00 00 
    c7f1:	c7 85 58 ec ff ff 97 	movl   $0x8a3a9397,-0x13a8(%rbp)
    c7f8:	93 3a 8a 
    c7fb:	c7 85 5c ec ff ff 8c 	movl   $0x27ad068c,-0x13a4(%rbp)
    c802:	06 ad 27 
    c805:	48 8b 85 38 ed ff ff 	mov    -0x12c8(%rbp),%rax
    c80c:	48 8b 95 70 ed ff ff 	mov    -0x1290(%rbp),%rdx
    c813:	48 89 10             	mov    %rdx,(%rax)
    c816:	0f b6 85 24 f1 ff ff 	movzbl -0xedc(%rbp),%eax
    c81d:	44 0f be e0          	movsbl %al,%r12d
    c821:	48 8b 85 40 ed ff ff 	mov    -0x12c0(%rbp),%rax
    c828:	0f b7 00             	movzwl (%rax),%eax
    c82b:	8b 95 84 ec ff ff    	mov    -0x137c(%rbp),%edx
    c831:	21 c2                	and    %eax,%edx
    c833:	48 8b 85 40 ed ff ff 	mov    -0x12c0(%rbp),%rax
    c83a:	66 89 10             	mov    %dx,(%rax)
    c83d:	48 8b 85 40 ed ff ff 	mov    -0x12c0(%rbp),%rax
    c844:	0f b7 00             	movzwl (%rax),%eax
    c847:	44 0f bf e8          	movswl %ax,%r13d
    c84b:	48 83 bd 90 ed ff ff 	cmpq   $0x0,-0x1270(%rbp)
    c852:	00 
    c853:	0f 95 c0             	setne  %al
    c856:	44 0f b6 f0          	movzbl %al,%r14d
    c85a:	8b 85 1c ec ff ff    	mov    -0x13e4(%rbp),%eax
    c860:	0f be d8             	movsbl %al,%ebx
    c863:	83 bd 84 ec ff ff 00 	cmpl   $0x0,-0x137c(%rbp)
    c86a:	75 4c                	jne    c8b8 <func_17+0x1227>
    c86c:	8b 85 3c ec ff ff    	mov    -0x13c4(%rbp),%eax
    c872:	89 c1                	mov    %eax,%ecx
    c874:	48 8b 95 90 ec ff ff 	mov    -0x1370(%rbp),%rdx
    c87b:	48 8b 85 48 ed ff ff 	mov    -0x12b8(%rbp),%rax
    c882:	48 89 10             	mov    %rdx,(%rax)
    c885:	48 8b 85 48 ed ff ff 	mov    -0x12b8(%rbp),%rax
    c88c:	48 8b 00             	mov    (%rax),%rax
    c88f:	48 89 85 98 ec ff ff 	mov    %rax,-0x1368(%rbp)
    c896:	89 ce                	mov    %ecx,%esi
    c898:	bf 00 00 00 00       	mov    $0x0,%edi
    c89d:	e8 83 c6 ff ff       	callq  8f25 <safe_div_func_uint32_t_u_u>
    c8a2:	89 c2                	mov    %eax,%edx
    c8a4:	48 8b 05 8d 85 01 00 	mov    0x1858d(%rip),%rax        # 24e38 <g_2823>
    c8ab:	89 d2                	mov    %edx,%edx
    c8ad:	48 89 10             	mov    %rdx,(%rax)
    c8b0:	48 8b 00             	mov    (%rax),%rax
    c8b3:	48 85 c0             	test   %rax,%rax
    c8b6:	74 07                	je     c8bf <func_17+0x122e>
    c8b8:	b8 01 00 00 00       	mov    $0x1,%eax
    c8bd:	eb 05                	jmp    c8c4 <func_17+0x1233>
    c8bf:	b8 00 00 00 00       	mov    $0x0,%eax
    c8c4:	0f be c0             	movsbl %al,%eax
    c8c7:	89 de                	mov    %ebx,%esi
    c8c9:	89 c7                	mov    %eax,%edi
    c8cb:	e8 42 b9 ff ff       	callq  8212 <safe_mul_func_int8_t_s_s>
    c8d0:	0f be c0             	movsbl %al,%eax
    c8d3:	44 31 f0             	xor    %r14d,%eax
    c8d6:	44 09 e8             	or     %r13d,%eax
    c8d9:	39 85 84 ec ff ff    	cmp    %eax,-0x137c(%rbp)
    c8df:	0f 9f c0             	setg   %al
    c8e2:	0f b6 c0             	movzbl %al,%eax
    c8e5:	41 39 c4             	cmp    %eax,%r12d
    c8e8:	74 35                	je     c91f <func_17+0x128e>
    c8ea:	48 8d 05 ef 9c 01 00 	lea    0x19cef(%rip),%rax        # 265e0 <g_1254>
    c8f1:	48 89 85 e0 ec ff ff 	mov    %rax,-0x1320(%rbp)
    c8f8:	48 8b 85 e0 ec ff ff 	mov    -0x1320(%rbp),%rax
    c8ff:	48 8d 95 3c ec ff ff 	lea    -0x13c4(%rbp),%rdx
    c906:	48 89 10             	mov    %rdx,(%rax)
    c909:	48 8b 95 10 ec ff ff 	mov    -0x13f0(%rbp),%rdx
    c910:	48 8b 85 e0 ec ff ff 	mov    -0x1320(%rbp),%rax
    c917:	48 89 10             	mov    %rdx,(%rax)
    c91a:	e9 b7 05 00 00       	jmpq   ced6 <func_17+0x1845>
    c91f:	48 c7 85 28 ed ff ff 	movq   $0xfffffffffffffffe,-0x12d8(%rbp)
    c926:	fe ff ff ff 
    c92a:	48 8d 05 3c 6a 01 00 	lea    0x16a3c(%rip),%rax        # 2336d <g_2134+0x5>
    c931:	48 89 85 08 ed ff ff 	mov    %rax,-0x12f8(%rbp)
    c938:	48 8d 05 2e 6a 01 00 	lea    0x16a2e(%rip),%rax        # 2336d <g_2134+0x5>
    c93f:	48 89 85 d8 ec ff ff 	mov    %rax,-0x1328(%rbp)
    c946:	48 8d 85 d8 ec ff ff 	lea    -0x1328(%rbp),%rax
    c94d:	48 89 85 18 ed ff ff 	mov    %rax,-0x12e8(%rbp)
    c954:	48 8d 05 8d 7f 01 00 	lea    0x17f8d(%rip),%rax        # 248e8 <g_451>
    c95b:	48 89 85 f8 ec ff ff 	mov    %rax,-0x1308(%rbp)
    c962:	c6 85 21 ec ff ff 04 	movb   $0x4,-0x13df(%rbp)
    c969:	48 8d 85 20 f8 ff ff 	lea    -0x7e0(%rbp),%rax
    c970:	48 8d 15 e9 03 01 00 	lea    0x103e9(%rip),%rdx        # 1cd60 <g_4277+0xca0>
    c977:	b9 5a 00 00 00       	mov    $0x5a,%ecx
    c97c:	48 89 c7             	mov    %rax,%rdi
    c97f:	48 89 d6             	mov    %rdx,%rsi
    c982:	f3 48 a5             	rep movsq %ds:(%rsi),%es:(%rdi)
    c985:	48 8b 85 28 ed ff ff 	mov    -0x12d8(%rbp),%rax
    c98c:	0f b7 d8             	movzwl %ax,%ebx
    c98f:	48 8b 85 20 ed ff ff 	mov    -0x12e0(%rbp),%rax
    c996:	8b 00                	mov    (%rax),%eax
    c998:	4c 63 e0             	movslq %eax,%r12
    c99b:	48 8b 85 30 ed ff ff 	mov    -0x12d0(%rbp),%rax
    c9a2:	48 3b 85 98 ed ff ff 	cmp    -0x1268(%rbp),%rax
    c9a9:	0f 95 c0             	setne  %al
    c9ac:	0f b6 d0             	movzbl %al,%edx
    c9af:	48 c7 85 00 ed ff ff 	movq   $0x0,-0x1300(%rbp)
    c9b6:	00 00 00 00 
    c9ba:	48 8d 05 6f 9c 01 00 	lea    0x19c6f(%rip),%rax        # 26630 <g_2185>
    c9c1:	48 39 85 00 ed ff ff 	cmp    %rax,-0x1300(%rbp)
    c9c8:	0f 95 c0             	setne  %al
    c9cb:	0f b6 c0             	movzbl %al,%eax
    c9ce:	89 d6                	mov    %edx,%esi
    c9d0:	89 c7                	mov    %eax,%edi
    c9d2:	e8 83 c1 ff ff       	callq  8b5a <safe_add_func_uint8_t_u_u>
    c9d7:	8b 85 1c ec ff ff    	mov    -0x13e4(%rbp),%eax
    c9dd:	0f b6 c0             	movzbl %al,%eax
    c9e0:	be 06 00 00 00       	mov    $0x6,%esi
    c9e5:	89 c7                	mov    %eax,%edi
    c9e7:	e8 a1 c2 ff ff       	callq  8c8d <safe_rshift_func_uint8_t_u_s>
    c9ec:	4c 89 e6             	mov    %r12,%rsi
    c9ef:	48 bf ec 58 9c f3 14 	movabs $0x2bf33114f39c58ec,%rdi
    c9f6:	31 f3 2b 
    c9f9:	e8 b1 c6 ff ff       	callq  90af <safe_div_func_uint64_t_u_u>
    c9fe:	48 0f bf 95 2a ec ff 	movswq -0x13d6(%rbp),%rdx
    ca05:	ff 
    ca06:	48 39 d0             	cmp    %rdx,%rax
    ca09:	0f 95 c2             	setne  %dl
    ca0c:	48 8b 05 25 84 01 00 	mov    0x18425(%rip),%rax        # 24e38 <g_2823>
    ca13:	0f b6 d2             	movzbl %dl,%edx
    ca16:	48 89 10             	mov    %rdx,(%rax)
    ca19:	48 8b 00             	mov    (%rax),%rax
    ca1c:	48 8d 95 00 f1 ff ff 	lea    -0xf00(%rbp),%rdx
    ca23:	48 83 c2 45          	add    $0x45,%rdx
    ca27:	89 de                	mov    %ebx,%esi
    ca29:	48 89 c7             	mov    %rax,%rdi
    ca2c:	e8 bb d2 00 00       	callq  19cec <func_55>
    ca31:	48 89 85 08 ed ff ff 	mov    %rax,-0x12f8(%rbp)
    ca38:	48 8b 85 18 ed ff ff 	mov    -0x12e8(%rbp),%rax
    ca3f:	48 8b 95 08 ed ff ff 	mov    -0x12f8(%rbp),%rdx
    ca46:	48 89 10             	mov    %rdx,(%rax)
    ca49:	48 8b 85 f8 ec ff ff 	mov    -0x1308(%rbp),%rax
    ca50:	48 8d 95 38 ec ff ff 	lea    -0x13c8(%rbp),%rdx
    ca57:	48 89 10             	mov    %rdx,(%rax)
    ca5a:	48 8b 85 10 ec ff ff 	mov    -0x13f0(%rbp),%rax
    ca61:	8b 00                	mov    (%rax),%eax
    ca63:	85 c0                	test   %eax,%eax
    ca65:	0f 85 23 05 00 00    	jne    cf8e <func_17+0x18fd>
    ca6b:	66 c7 05 a4 9b 01 00 	movw   $0x0,0x19ba4(%rip)        # 26618 <g_1702>
    ca72:	00 00 
    ca74:	e9 f1 02 00 00       	jmpq   cd6a <func_17+0x16d9>
    ca79:	48 c7 85 e8 ec ff ff 	movq   $0x0,-0x1318(%rbp)
    ca80:	00 00 00 00 
    ca84:	48 8d 85 c8 ec ff ff 	lea    -0x1338(%rbp),%rax
    ca8b:	48 89 85 f0 ec ff ff 	mov    %rax,-0x1310(%rbp)
    ca92:	66 c7 85 28 ec ff ff 	movw   $0xd61a,-0x13d8(%rbp)
    ca99:	1a d6 
    ca9b:	c7 85 44 ec ff ff f8 	movl   $0xfffffff8,-0x13bc(%rbp)
    caa2:	ff ff ff 
    caa5:	c7 85 90 ef ff ff d9 	movl   $0x287b8ad9,-0x1070(%rbp)
    caac:	8a 7b 28 
    caaf:	c7 85 94 ef ff ff d9 	movl   $0x287b8ad9,-0x106c(%rbp)
    cab6:	8a 7b 28 
    cab9:	c7 85 98 ef ff ff d9 	movl   $0x287b8ad9,-0x1068(%rbp)
    cac0:	8a 7b 28 
    cac3:	c7 85 9c ef ff ff d9 	movl   $0x287b8ad9,-0x1064(%rbp)
    caca:	8a 7b 28 
    cacd:	48 8b 85 f8 ec ff ff 	mov    -0x1308(%rbp),%rax
    cad4:	48 8b 00             	mov    (%rax),%rax
    cad7:	44 8b 20             	mov    (%rax),%r12d
    cada:	8b 85 1c ec ff ff    	mov    -0x13e4(%rbp),%eax
    cae0:	0f be d8             	movsbl %al,%ebx
    cae3:	be 04 00 00 00       	mov    $0x4,%esi
    cae8:	bf 58 00 00 00       	mov    $0x58,%edi
    caed:	e8 43 b8 ff ff       	callq  8335 <safe_rshift_func_int8_t_s_s>
    caf2:	88 85 0f ec ff ff    	mov    %al,-0x13f1(%rbp)
    caf8:	48 8b 85 10 ec ff ff 	mov    -0x13f0(%rbp),%rax
    caff:	8b 00                	mov    (%rax),%eax
    cb01:	89 85 18 ec ff ff    	mov    %eax,-0x13e8(%rbp)
    cb07:	48 8b 95 c8 ec ff ff 	mov    -0x1338(%rbp),%rdx
    cb0e:	48 8b 85 f0 ec ff ff 	mov    -0x1310(%rbp),%rax
    cb15:	48 89 10             	mov    %rdx,(%rax)
    cb18:	48 8d 05 29 5f 01 00 	lea    0x15f29(%rip),%rax        # 22a48 <g_228>
    cb1f:	0f b6 00             	movzbl (%rax),%eax
    cb22:	44 0f b6 e8          	movzbl %al,%r13d
    cb26:	44 8b b5 1c ec ff ff 	mov    -0x13e4(%rbp),%r14d
    cb2d:	48 8b 85 f8 ec ff ff 	mov    -0x1308(%rbp),%rax
    cb34:	48 8b 00             	mov    (%rax),%rax
    cb37:	8b 00                	mov    (%rax),%eax
    cb39:	4c 63 f8             	movslq %eax,%r15
    cb3c:	48 0f be 95 21 ec ff 	movsbq -0x13df(%rbp),%rdx
    cb43:	ff 
    cb44:	48 8b 85 f8 ec ff ff 	mov    -0x1308(%rbp),%rax
    cb4b:	48 8b 00             	mov    (%rax),%rax
    cb4e:	8b 00                	mov    (%rax),%eax
    cb50:	3d a0 b1 c7 74       	cmp    $0x74c7b1a0,%eax
    cb55:	0f 9f c0             	setg   %al
    cb58:	0f b6 c0             	movzbl %al,%eax
    cb5b:	48 89 d6             	mov    %rdx,%rsi
    cb5e:	48 89 c7             	mov    %rax,%rdi
    cb61:	e8 49 c5 ff ff       	callq  90af <safe_div_func_uint64_t_u_u>
    cb66:	4c 89 fe             	mov    %r15,%rsi
    cb69:	48 89 c7             	mov    %rax,%rdi
    cb6c:	e8 43 be ff ff       	callq  89b4 <safe_mod_func_int64_t_s_s>
    cb71:	48 c7 c6 fa ff ff ff 	mov    $0xfffffffffffffffa,%rsi
    cb78:	48 89 c7             	mov    %rax,%rdi
    cb7b:	e8 c1 bc ff ff       	callq  8841 <safe_add_func_int64_t_s_s>
    cb80:	44 89 f6             	mov    %r14d,%esi
    cb83:	89 c7                	mov    %eax,%edi
    cb85:	e8 2e c3 ff ff       	callq  8eb8 <safe_add_func_uint32_t_u_u>
    cb8a:	b9 01 00 00 00       	mov    $0x1,%ecx
    cb8f:	48 8b 85 08 ed ff ff 	mov    -0x12f8(%rbp),%rax
    cb96:	0f b6 00             	movzbl (%rax),%eax
    cb99:	89 c2                	mov    %eax,%edx
    cb9b:	89 c8                	mov    %ecx,%eax
    cb9d:	09 d0                	or     %edx,%eax
    cb9f:	89 c2                	mov    %eax,%edx
    cba1:	48 8b 85 08 ed ff ff 	mov    -0x12f8(%rbp),%rax
    cba8:	88 10                	mov    %dl,(%rax)
    cbaa:	48 8b 85 f8 ec ff ff 	mov    -0x1308(%rbp),%rax
    cbb1:	48 8b 00             	mov    (%rax),%rax
    cbb4:	8b 00                	mov    (%rax),%eax
    cbb6:	89 85 d8 f0 ff ff    	mov    %eax,-0xf28(%rbp)
    cbbc:	8b 85 d8 f0 ff ff    	mov    -0xf28(%rbp),%eax
    cbc2:	0f b7 c0             	movzwl %ax,%eax
    cbc5:	be 63 ec 00 00       	mov    $0xec63,%esi
    cbca:	89 c7                	mov    %eax,%edi
    cbcc:	e8 6c c1 ff ff       	callq  8d3d <safe_mul_func_uint16_t_u_u>
    cbd1:	0f b7 d0             	movzwl %ax,%edx
    cbd4:	8b 05 ce 99 01 00    	mov    0x199ce(%rip),%eax        # 265a8 <g_342>
    cbda:	83 c0 01             	add    $0x1,%eax
    cbdd:	48 98                	cltq   
    cbdf:	48 8d 0c 85 00 00 00 	lea    0x0(,%rax,4),%rcx
    cbe6:	00 
    cbe7:	48 8d 05 12 68 01 00 	lea    0x16812(%rip),%rax        # 23400 <g_2932>
    cbee:	8b 04 01             	mov    (%rcx,%rax,1),%eax
    cbf1:	39 c2                	cmp    %eax,%edx
    cbf3:	0f 95 c0             	setne  %al
    cbf6:	0f b6 d0             	movzbl %al,%edx
    cbf9:	48 8b 85 f8 ec ff ff 	mov    -0x1308(%rbp),%rax
    cc00:	48 8b 00             	mov    (%rax),%rax
    cc03:	8b 00                	mov    (%rax),%eax
    cc05:	98                   	cwtl   
    cc06:	89 d6                	mov    %edx,%esi
    cc08:	89 c7                	mov    %eax,%edi
    cc0a:	e8 c4 b7 ff ff       	callq  83d3 <safe_sub_func_int16_t_s_s>
    cc0f:	66 85 c0             	test   %ax,%ax
    cc12:	74 0b                	je     cc1f <func_17+0x158e>
    cc14:	48 8b 85 20 ed ff ff 	mov    -0x12e0(%rbp),%rax
    cc1b:	8b 00                	mov    (%rax),%eax
    cc1d:	85 c0                	test   %eax,%eax
    cc1f:	8b 95 d8 f0 ff ff    	mov    -0xf28(%rbp),%edx
    cc25:	48 8b 85 a0 ec ff ff 	mov    -0x1360(%rbp),%rax
    cc2c:	48 63 d2             	movslq %edx,%rdx
    cc2f:	48 89 10             	mov    %rdx,(%rax)
    cc32:	48 8b 00             	mov    (%rax),%rax
    cc35:	48 83 f8 01          	cmp    $0x1,%rax
    cc39:	0f 9e c0             	setle  %al
    cc3c:	0f b6 c0             	movzbl %al,%eax
    cc3f:	44 89 ee             	mov    %r13d,%esi
    cc42:	89 c7                	mov    %eax,%edi
    cc44:	e8 92 bf ff ff       	callq  8bdb <safe_div_func_uint8_t_u_u>
    cc49:	48 8b 05 e8 81 01 00 	mov    0x181e8(%rip),%rax        # 24e38 <g_2823>
    cc50:	48 8b 00             	mov    (%rax),%rax
    cc53:	8b b5 18 ec ff ff    	mov    -0x13e8(%rbp),%esi
    cc59:	89 c7                	mov    %eax,%edi
    cc5b:	e8 9d c2 ff ff       	callq  8efd <safe_mod_func_uint32_t_u_u>
    cc60:	85 c0                	test   %eax,%eax
    cc62:	74 08                	je     cc6c <func_17+0x15db>
    cc64:	8b 85 d8 f0 ff ff    	mov    -0xf28(%rbp),%eax
    cc6a:	85 c0                	test   %eax,%eax
    cc6c:	48 8b 85 40 ed ff ff 	mov    -0x12c0(%rbp),%rax
    cc73:	0f b7 10             	movzwl (%rax),%edx
    cc76:	66 0f be 85 0f ec ff 	movsbw -0x13f1(%rbp),%ax
    cc7d:	ff 
    cc7e:	09 c2                	or     %eax,%edx
    cc80:	48 8b 85 40 ed ff ff 	mov    -0x12c0(%rbp),%rax
    cc87:	66 89 10             	mov    %dx,(%rax)
    cc8a:	48 8b 85 40 ed ff ff 	mov    -0x12c0(%rbp),%rax
    cc91:	0f b7 00             	movzwl (%rax),%eax
    cc94:	0f bf d0             	movswl %ax,%edx
    cc97:	48 8b 85 f8 ec ff ff 	mov    -0x1308(%rbp),%rax
    cc9e:	48 8b 00             	mov    (%rax),%rax
    cca1:	8b 00                	mov    (%rax),%eax
    cca3:	09 d0                	or     %edx,%eax
    cca5:	85 c0                	test   %eax,%eax
    cca7:	75 1a                	jne    ccc3 <func_17+0x1632>
    cca9:	66 83 bd 28 ec ff ff 	cmpw   $0x0,-0x13d8(%rbp)
    ccb0:	00 
    ccb1:	75 10                	jne    ccc3 <func_17+0x1632>
    ccb3:	48 8b 85 f8 ec ff ff 	mov    -0x1308(%rbp),%rax
    ccba:	48 8b 00             	mov    (%rax),%rax
    ccbd:	8b 00                	mov    (%rax),%eax
    ccbf:	85 c0                	test   %eax,%eax
    ccc1:	74 07                	je     ccca <func_17+0x1639>
    ccc3:	b8 01 00 00 00       	mov    $0x1,%eax
    ccc8:	eb 05                	jmp    cccf <func_17+0x163e>
    ccca:	b8 00 00 00 00       	mov    $0x0,%eax
    cccf:	0f be c0             	movsbl %al,%eax
    ccd2:	89 de                	mov    %ebx,%esi
    ccd4:	89 c7                	mov    %eax,%edi
    ccd6:	e8 37 b5 ff ff       	callq  8212 <safe_mul_func_int8_t_s_s>
    ccdb:	0f be c0             	movsbl %al,%eax
    ccde:	48 8b 1d 6b 5d 01 00 	mov    0x15d6b(%rip),%rbx        # 22a50 <g_232>
    cce5:	44 89 e6             	mov    %r12d,%esi
    cce8:	89 c7                	mov    %eax,%edi
    ccea:	e8 c7 b8 ff ff       	callq  85b6 <safe_add_func_int32_t_s_s>
    ccef:	48 8d 14 9d 00 00 00 	lea    0x0(,%rbx,4),%rdx
    ccf6:	00 
    ccf7:	48 8d 0d 02 67 01 00 	lea    0x16702(%rip),%rcx        # 23400 <g_2932>
    ccfe:	89 04 0a             	mov    %eax,(%rdx,%rcx,1)
    cd01:	48 8d 14 9d 00 00 00 	lea    0x0(,%rbx,4),%rdx
    cd08:	00 
    cd09:	48 8d 05 f0 66 01 00 	lea    0x166f0(%rip),%rax        # 23400 <g_2932>
    cd10:	8b 14 02             	mov    (%rdx,%rax,1),%edx
    cd13:	8b 85 6c f9 ff ff    	mov    -0x694(%rbp),%eax
    cd19:	09 d0                	or     %edx,%eax
    cd1b:	89 85 6c f9 ff ff    	mov    %eax,-0x694(%rbp)
    cd21:	0f b7 85 18 ee ff ff 	movzwl -0x11e8(%rbp),%eax
    cd28:	83 c0 01             	add    $0x1,%eax
    cd2b:	66 89 85 18 ee ff ff 	mov    %ax,-0x11e8(%rbp)
    cd32:	48 8b 05 27 81 01 00 	mov    0x18127(%rip),%rax        # 24e60 <g_2926>
    cd39:	48 8b 00             	mov    (%rax),%rax
    cd3c:	48 8b 00             	mov    (%rax),%rax
    cd3f:	8b 08                	mov    (%rax),%ecx
    cd41:	0f bf 95 2c ec ff ff 	movswl -0x13d4(%rbp),%edx
    cd48:	48 8b 05 11 81 01 00 	mov    0x18111(%rip),%rax        # 24e60 <g_2926>
    cd4f:	48 8b 00             	mov    (%rax),%rax
    cd52:	48 8b 00             	mov    (%rax),%rax
    cd55:	21 ca                	and    %ecx,%edx
    cd57:	89 10                	mov    %edx,(%rax)
    cd59:	0f b7 05 b8 98 01 00 	movzwl 0x198b8(%rip),%eax        # 26618 <g_1702>
    cd60:	83 c0 01             	add    $0x1,%eax
    cd63:	66 89 05 ae 98 01 00 	mov    %ax,0x198ae(%rip)        # 26618 <g_1702>
    cd6a:	0f b7 05 a7 98 01 00 	movzwl 0x198a7(%rip),%eax        # 26618 <g_1702>
    cd71:	66 83 f8 08          	cmp    $0x8,%ax
    cd75:	0f 86 fe fc ff ff    	jbe    ca79 <func_17+0x13e8>
    cd7b:	c6 05 c6 5c 01 00 01 	movb   $0x1,0x15cc6(%rip)        # 22a48 <g_228>
    cd82:	e9 40 01 00 00       	jmpq   cec7 <func_17+0x1836>
    cd87:	c7 85 48 ec ff ff b7 	movl   $0x1473eab7,-0x13b8(%rbp)
    cd8e:	ea 73 14 
    cd91:	c7 85 4c ec ff ff 98 	movl   $0xb6d82d98,-0x13b4(%rbp)
    cd98:	2d d8 b6 
    cd9b:	c7 85 50 ec ff ff 71 	movl   $0x4238a071,-0x13b0(%rbp)
    cda2:	a0 38 42 
    cda5:	48 b8 f5 fe 75 bf ee 	movabs $0x209e24eebf75fef5,%rax
    cdac:	24 9e 20 
    cdaf:	48 89 85 10 ed ff ff 	mov    %rax,-0x12f0(%rbp)
    cdb6:	c7 85 90 ef ff ff bd 	movl   $0x9502d3bd,-0x1070(%rbp)
    cdbd:	d3 02 95 
    cdc0:	c7 85 94 ef ff ff eb 	movl   $0x71e75beb,-0x106c(%rbp)
    cdc7:	5b e7 71 
    cdca:	c7 85 98 ef ff ff bd 	movl   $0x9502d3bd,-0x1068(%rbp)
    cdd1:	d3 02 95 
    cdd4:	c7 85 9c ef ff ff eb 	movl   $0x71e75beb,-0x1064(%rbp)
    cddb:	5b e7 71 
    cdde:	c7 85 a0 ef ff ff bd 	movl   $0x9502d3bd,-0x1060(%rbp)
    cde5:	d3 02 95 
    cde8:	c7 85 a4 ef ff ff eb 	movl   $0x71e75beb,-0x105c(%rbp)
    cdef:	5b e7 71 
    cdf2:	c7 85 a8 ef ff ff ae 	movl   $0x880f0dae,-0x1058(%rbp)
    cdf9:	0d 0f 88 
    cdfc:	c7 85 ac ef ff ff eb 	movl   $0x71e75beb,-0x1054(%rbp)
    ce03:	5b e7 71 
    ce06:	c7 85 b0 ef ff ff ae 	movl   $0x880f0dae,-0x1050(%rbp)
    ce0d:	0d 0f 88 
    ce10:	c7 85 b4 ef ff ff eb 	movl   $0x71e75beb,-0x104c(%rbp)
    ce17:	5b e7 71 
    ce1a:	c7 85 b8 ef ff ff ae 	movl   $0x880f0dae,-0x1048(%rbp)
    ce21:	0d 0f 88 
    ce24:	c7 85 bc ef ff ff eb 	movl   $0x71e75beb,-0x1044(%rbp)
    ce2b:	5b e7 71 
    ce2e:	c7 85 c0 ef ff ff bd 	movl   $0x9502d3bd,-0x1040(%rbp)
    ce35:	d3 02 95 
    ce38:	c7 85 c4 ef ff ff eb 	movl   $0x71e75beb,-0x103c(%rbp)
    ce3f:	5b e7 71 
    ce42:	c7 85 c8 ef ff ff bd 	movl   $0x9502d3bd,-0x1038(%rbp)
    ce49:	d3 02 95 
    ce4c:	c7 85 cc ef ff ff eb 	movl   $0x71e75beb,-0x1034(%rbp)
    ce53:	5b e7 71 
    ce56:	c7 85 d0 ef ff ff bd 	movl   $0x9502d3bd,-0x1030(%rbp)
    ce5d:	d3 02 95 
    ce60:	c7 85 d4 ef ff ff eb 	movl   $0x71e75beb,-0x102c(%rbp)
    ce67:	5b e7 71 
    ce6a:	c7 85 d8 ef ff ff ae 	movl   $0x880f0dae,-0x1028(%rbp)
    ce71:	0d 0f 88 
    ce74:	c7 85 dc ef ff ff eb 	movl   $0x71e75beb,-0x1024(%rbp)
    ce7b:	5b e7 71 
    ce7e:	c7 85 e0 ef ff ff ae 	movl   $0x880f0dae,-0x1020(%rbp)
    ce85:	0d 0f 88 
    ce88:	c7 85 e4 ef ff ff eb 	movl   $0x71e75beb,-0x101c(%rbp)
    ce8f:	5b e7 71 
    ce92:	c7 85 e8 ef ff ff ae 	movl   $0x880f0dae,-0x1018(%rbp)
    ce99:	0d 0f 88 
    ce9c:	c7 85 ec ef ff ff eb 	movl   $0x71e75beb,-0x1014(%rbp)
    cea3:	5b e7 71 
    cea6:	0f b7 85 3a ee ff ff 	movzwl -0x11c6(%rbp),%eax
    cead:	83 c0 01             	add    $0x1,%eax
    ceb0:	66 89 85 3a ee ff ff 	mov    %ax,-0x11c6(%rbp)
    ceb7:	0f b6 05 8a 5b 01 00 	movzbl 0x15b8a(%rip),%eax        # 22a48 <g_228>
    cebe:	83 c0 01             	add    $0x1,%eax
    cec1:	88 05 81 5b 01 00    	mov    %al,0x15b81(%rip)        # 22a48 <g_228>
    cec7:	0f b6 05 7a 5b 01 00 	movzbl 0x15b7a(%rip),%eax        # 22a48 <g_228>
    cece:	3c 09                	cmp    $0x9,%al
    ced0:	0f 8e b1 fe ff ff    	jle    cd87 <func_17+0x16f6>
    ced6:	48 8b 05 f3 7a 01 00 	mov    0x17af3(%rip),%rax        # 249d0 <g_682>
    cedd:	48 8b 00             	mov    (%rax),%rax
    cee0:	48 c7 00 00 00 00 00 	movq   $0x0,(%rax)
    cee7:	8b 85 1c ec ff ff    	mov    -0x13e4(%rbp),%eax
    ceed:	0f b6 d8             	movzbl %al,%ebx
    cef0:	48 8b 85 20 ed ff ff 	mov    -0x12e0(%rbp),%rax
    cef7:	8b 00                	mov    (%rax),%eax
    cef9:	89 c2                	mov    %eax,%edx
    cefb:	48 83 bd a0 ed ff ff 	cmpq   $0x0,-0x1260(%rbp)
    cf02:	00 
    cf03:	0f 95 c0             	setne  %al
    cf06:	0f b6 c0             	movzbl %al,%eax
    cf09:	89 d6                	mov    %edx,%esi
    cf0b:	89 c7                	mov    %eax,%edi
    cf0d:	e8 5a b4 ff ff       	callq  836c <safe_rshift_func_int8_t_s_u>
    cf12:	0f be d0             	movsbl %al,%edx
    cf15:	48 8b 05 b4 7a 01 00 	mov    0x17ab4(%rip),%rax        # 249d0 <g_682>
    cf1c:	48 8b 00             	mov    (%rax),%rax
    cf1f:	48 8b 00             	mov    (%rax),%rax
    cf22:	48 85 c0             	test   %rax,%rax
    cf25:	0f 95 c0             	setne  %al
    cf28:	0f b6 c0             	movzbl %al,%eax
    cf2b:	39 c2                	cmp    %eax,%edx
    cf2d:	0f 95 c0             	setne  %al
    cf30:	0f b6 c0             	movzbl %al,%eax
    cf33:	89 de                	mov    %ebx,%esi
    cf35:	89 c7                	mov    %eax,%edi
    cf37:	e8 57 bc ff ff       	callq  8b93 <safe_mul_func_uint8_t_u_u>
    cf3c:	8b 85 1c ec ff ff    	mov    -0x13e4(%rbp),%eax
    cf42:	34 ab                	xor    $0xab,%al
    cf44:	89 c2                	mov    %eax,%edx
    cf46:	48 8b 85 40 ed ff ff 	mov    -0x12c0(%rbp),%rax
    cf4d:	0f b7 00             	movzwl (%rax),%eax
    cf50:	21 c2                	and    %eax,%edx
    cf52:	48 8b 85 40 ed ff ff 	mov    -0x12c0(%rbp),%rax
    cf59:	66 89 10             	mov    %dx,(%rax)
    cf5c:	48 8b 85 10 ec ff ff 	mov    -0x13f0(%rbp),%rax
    cf63:	8b 95 7c ec ff ff    	mov    -0x1384(%rbp),%edx
    cf69:	89 10                	mov    %edx,(%rax)
    cf6b:	48 8b 05 e6 63 01 00 	mov    0x163e6(%rip),%rax        # 23358 <g_2025>
    cf72:	48 83 c0 01          	add    $0x1,%rax
    cf76:	48 89 05 db 63 01 00 	mov    %rax,0x163db(%rip)        # 23358 <g_2025>
    cf7d:	48 8b 05 d4 63 01 00 	mov    0x163d4(%rip),%rax        # 23358 <g_2025>
    cf84:	48 83 f8 06          	cmp    $0x6,%rax
    cf88:	0f 86 85 f7 ff ff    	jbe    c713 <func_17+0x1082>
    cf8e:	48 8b 05 bb 5a 01 00 	mov    0x15abb(%rip),%rax        # 22a50 <g_232>
    cf95:	48 83 c0 01          	add    $0x1,%rax
    cf99:	48 89 05 b0 5a 01 00 	mov    %rax,0x15ab0(%rip)        # 22a50 <g_232>
    cfa0:	48 8b 05 a9 5a 01 00 	mov    0x15aa9(%rip),%rax        # 22a50 <g_232>
    cfa7:	48 83 f8 06          	cmp    $0x6,%rax
    cfab:	0f 86 bf f4 ff ff    	jbe    c470 <func_17+0xddf>
    cfb1:	66 c7 05 86 5a 01 00 	movw   $0x0,0x15a86(%rip)        # 22a40 <g_195>
    cfb8:	00 00 
    cfba:	e9 e2 00 00 00       	jmpq   d0a1 <func_17+0x1a10>
    cfbf:	48 8d 85 00 f4 ff ff 	lea    -0xc00(%rbp),%rax
    cfc6:	48 89 85 60 ed ff ff 	mov    %rax,-0x12a0(%rbp)
    cfcd:	48 8d 05 d4 95 01 00 	lea    0x195d4(%rip),%rax        # 265a8 <g_342>
    cfd4:	48 89 85 68 ed ff ff 	mov    %rax,-0x1298(%rbp)
    cfdb:	4c 8b bd 10 ec ff ff 	mov    -0x13f0(%rbp),%r15
    cfe2:	48 8b 85 68 ed ff ff 	mov    -0x1298(%rbp),%rax
    cfe9:	8b 00                	mov    (%rax),%eax
    cfeb:	44 0f b6 e0          	movzbl %al,%r12d
    cfef:	8b 9d 1c ec ff ff    	mov    -0x13e4(%rbp),%ebx
    cff5:	8b 85 1c ec ff ff    	mov    -0x13e4(%rbp),%eax
    cffb:	44 0f b6 f0          	movzbl %al,%r14d
    cfff:	44 8b ad 84 ec ff ff 	mov    -0x137c(%rbp),%r13d
    d006:	8b 85 1c ec ff ff    	mov    -0x13e4(%rbp),%eax
    d00c:	0f b6 c8             	movzbl %al,%ecx
    d00f:	8b 95 1c ec ff ff    	mov    -0x13e4(%rbp),%edx
    d015:	48 8b b5 10 ec ff ff 	mov    -0x13f0(%rbp),%rsi
    d01c:	48 8d 85 60 f0 ff ff 	lea    -0xfa0(%rbp),%rax
    d023:	48 8d 78 78          	lea    0x78(%rax),%rdi
    d027:	48 8d 85 38 ec ff ff 	lea    -0x13c8(%rbp),%rax
    d02e:	49 89 f8             	mov    %rdi,%r8
    d031:	48 89 c7             	mov    %rax,%rdi
    d034:	e8 92 02 00 00       	callq  d2cb <func_20>
    d039:	48 8b 95 60 ed ff ff 	mov    -0x12a0(%rbp),%rdx
    d040:	48 89 02             	mov    %rax,(%rdx)
    d043:	48 8b 85 60 ed ff ff 	mov    -0x12a0(%rbp),%rax
    d04a:	48 8b 30             	mov    (%rax),%rsi
    d04d:	48 8b 85 10 ec ff ff 	mov    -0x13f0(%rbp),%rax
    d054:	48 8b 95 a8 ed ff ff 	mov    -0x1258(%rbp),%rdx
    d05b:	49 89 d0             	mov    %rdx,%r8
    d05e:	44 89 f1             	mov    %r14d,%ecx
    d061:	44 89 ea             	mov    %r13d,%edx
    d064:	48 89 c7             	mov    %rax,%rdi
    d067:	e8 5f 02 00 00       	callq  d2cb <func_20>
    d06c:	48 89 c7             	mov    %rax,%rdi
    d06f:	48 8b 85 68 ed ff ff 	mov    -0x1298(%rbp),%rax
    d076:	4d 89 f8             	mov    %r15,%r8
    d079:	44 89 e1             	mov    %r12d,%ecx
    d07c:	89 da                	mov    %ebx,%edx
    d07e:	48 89 c6             	mov    %rax,%rsi
    d081:	e8 45 02 00 00       	callq  d2cb <func_20>
    d086:	48 8b 95 60 ed ff ff 	mov    -0x12a0(%rbp),%rdx
    d08d:	48 89 02             	mov    %rax,(%rdx)
    d090:	0f b7 05 a9 59 01 00 	movzwl 0x159a9(%rip),%eax        # 22a40 <g_195>
    d097:	83 c0 01             	add    $0x1,%eax
    d09a:	66 89 05 9f 59 01 00 	mov    %ax,0x1599f(%rip)        # 22a40 <g_195>
    d0a1:	0f b7 05 98 59 01 00 	movzwl 0x15998(%rip),%eax        # 22a40 <g_195>
    d0a8:	66 83 f8 04          	cmp    $0x4,%ax
    d0ac:	0f 8e 0d ff ff ff    	jle    cfbf <func_17+0x192e>
    d0b2:	8b 05 f0 94 01 00    	mov    0x194f0(%rip),%eax        # 265a8 <g_342>
    d0b8:	83 c0 01             	add    $0x1,%eax
    d0bb:	89 05 e7 94 01 00    	mov    %eax,0x194e7(%rip)        # 265a8 <g_342>
    d0c1:	8b 05 e1 94 01 00    	mov    0x194e1(%rip),%eax        # 265a8 <g_342>
    d0c7:	83 f8 06             	cmp    $0x6,%eax
    d0ca:	0f 8e 71 f1 ff ff    	jle    c241 <func_17+0xbb0>
    d0d0:	48 8b 05 71 64 01 00 	mov    0x16471(%rip),%rax        # 23548 <g_3796>
    d0d7:	48 83 c0 01          	add    $0x1,%rax
    d0db:	48 89 05 66 64 01 00 	mov    %rax,0x16466(%rip)        # 23548 <g_3796>
    d0e2:	48 8b 85 a8 ed ff ff 	mov    -0x1258(%rbp),%rax
    d0e9:	8b 10                	mov    (%rax),%edx
    d0eb:	48 8b 85 10 ec ff ff 	mov    -0x13f0(%rbp),%rax
    d0f2:	8b 00                	mov    (%rax),%eax
    d0f4:	09 c2                	or     %eax,%edx
    d0f6:	48 8b 85 a8 ed ff ff 	mov    -0x1258(%rbp),%rax
    d0fd:	89 10                	mov    %edx,(%rax)
    d0ff:	48 8b 85 a8 ed ff ff 	mov    -0x1258(%rbp),%rax
    d106:	8b 00                	mov    (%rax),%eax
    d108:	85 c0                	test   %eax,%eax
    d10a:	0f 84 53 01 00 00    	je     d263 <func_17+0x1bd2>
    d110:	8b 85 1c ec ff ff    	mov    -0x13e4(%rbp),%eax
    d116:	41 89 c7             	mov    %eax,%r15d
    d119:	8b 85 1c ec ff ff    	mov    -0x13e4(%rbp),%eax
    d11f:	0f be d8             	movsbl %al,%ebx
    d122:	8b 85 1c ec ff ff    	mov    -0x13e4(%rbp),%eax
    d128:	44 0f b7 e0          	movzwl %ax,%r12d
    d12c:	8b 85 1c ec ff ff    	mov    -0x13e4(%rbp),%eax
    d132:	0f be d0             	movsbl %al,%edx
    d135:	48 8d 05 0c 59 01 00 	lea    0x1590c(%rip),%rax        # 22a48 <g_228>
    d13c:	0f b6 00             	movzbl (%rax),%eax
    d13f:	0f be c0             	movsbl %al,%eax
    d142:	89 d6                	mov    %edx,%esi
    d144:	89 c7                	mov    %eax,%edi
    d146:	e8 c7 b0 ff ff       	callq  8212 <safe_mul_func_int8_t_s_s>
    d14b:	41 89 c6             	mov    %eax,%r14d
    d14e:	44 8b ad 1c ec ff ff 	mov    -0x13e4(%rbp),%r13d
    d155:	48 8b 85 a0 ed ff ff 	mov    -0x1260(%rbp),%rax
    d15c:	0f b6 00             	movzbl (%rax),%eax
    d15f:	8d 50 ff             	lea    -0x1(%rax),%edx
    d162:	48 8b 85 a0 ed ff ff 	mov    -0x1260(%rbp),%rax
    d169:	88 10                	mov    %dl,(%rax)
    d16b:	48 8b 05 f6 7c 01 00 	mov    0x17cf6(%rip),%rax        # 24e68 <g_2925>
    d172:	48 8b 00             	mov    (%rax),%rax
    d175:	48 8b 00             	mov    (%rax),%rax
    d178:	48 8b 00             	mov    (%rax),%rax
    d17b:	8b 00                	mov    (%rax),%eax
    d17d:	be 0d 7b 1c f9       	mov    $0xf91c7b0d,%esi
    d182:	89 c7                	mov    %eax,%edi
    d184:	e8 7c b4 ff ff       	callq  8605 <safe_sub_func_int32_t_s_s>
    d189:	0d db 19 00 00       	or     $0x19db,%eax
    d18e:	89 c2                	mov    %eax,%edx
    d190:	48 8b 85 a8 ed ff ff 	mov    -0x1258(%rbp),%rax
    d197:	89 10                	mov    %edx,(%rax)
    d199:	48 8b 85 a8 ed ff ff 	mov    -0x1258(%rbp),%rax
    d1a0:	8b 00                	mov    (%rax),%eax
    d1a2:	89 c2                	mov    %eax,%edx
    d1a4:	8b 85 1c ec ff ff    	mov    -0x13e4(%rbp),%eax
    d1aa:	39 c2                	cmp    %eax,%edx
    d1ac:	0f 95 c0             	setne  %al
    d1af:	0f b6 c0             	movzbl %al,%eax
    d1b2:	44 89 ee             	mov    %r13d,%esi
    d1b5:	89 c7                	mov    %eax,%edi
    d1b7:	e8 32 b1 ff ff       	callq  82ee <safe_lshift_func_int8_t_s_u>
    d1bc:	41 38 c6             	cmp    %al,%r14b
    d1bf:	0f 9c c0             	setl   %al
    d1c2:	0f b6 c0             	movzbl %al,%eax
    d1c5:	44 89 e6             	mov    %r12d,%esi
    d1c8:	89 c7                	mov    %eax,%edi
    d1ca:	e8 50 bb ff ff       	callq  8d1f <safe_sub_func_uint16_t_u_u>
    d1cf:	48 8b 05 d2 78 01 00 	mov    0x178d2(%rip),%rax        # 24aa8 <g_725>
    d1d6:	48 8b 00             	mov    (%rax),%rax
    d1d9:	48 8b 10             	mov    (%rax),%rdx
    d1dc:	48 83 ea 01          	sub    $0x1,%rdx
    d1e0:	48 89 10             	mov    %rdx,(%rax)
    d1e3:	48 8b 10             	mov    (%rax),%rdx
    d1e6:	8b 85 1c f8 ff ff    	mov    -0x7e4(%rbp),%eax
    d1ec:	83 f8 fc             	cmp    $0xfffffffc,%eax
    d1ef:	0f 97 c0             	seta   %al
    d1f2:	0f b6 c8             	movzbl %al,%ecx
    d1f5:	8b 85 1c ec ff ff    	mov    -0x13e4(%rbp),%eax
    d1fb:	39 c1                	cmp    %eax,%ecx
    d1fd:	0f 95 c0             	setne  %al
    d200:	0f b6 c0             	movzbl %al,%eax
    d203:	48 39 c2             	cmp    %rax,%rdx
    d206:	0f 95 c0             	setne  %al
    d209:	0f b6 c0             	movzbl %al,%eax
    d20c:	89 de                	mov    %ebx,%esi
    d20e:	89 c7                	mov    %eax,%edi
    d210:	e8 fd af ff ff       	callq  8212 <safe_mul_func_int8_t_s_s>
    d215:	8b 85 1c ec ff ff    	mov    -0x13e4(%rbp),%eax
    d21b:	0f b6 d0             	movzbl %al,%edx
    d21e:	48 8b 8d f8 ed ff ff 	mov    -0x1208(%rbp),%rcx
    d225:	48 8b 85 b0 ed ff ff 	mov    -0x1250(%rbp),%rax
    d22c:	48 89 08             	mov    %rcx,(%rax)
    d22f:	48 8b 85 b0 ed ff ff 	mov    -0x1250(%rbp),%rax
    d236:	48 8b 00             	mov    (%rax),%rax
    d239:	48 85 c0             	test   %rax,%rax
    d23c:	0f 95 c0             	setne  %al
    d23f:	0f b6 c0             	movzbl %al,%eax
    d242:	89 d6                	mov    %edx,%esi
    d244:	89 c7                	mov    %eax,%edi
    d246:	e8 48 b9 ff ff       	callq  8b93 <safe_mul_func_uint8_t_u_u>
    d24b:	0f be c0             	movsbl %al,%eax
    d24e:	44 89 fe             	mov    %r15d,%esi
    d251:	89 c7                	mov    %eax,%edi
    d253:	e8 49 b0 ff ff       	callq  82a1 <safe_lshift_func_int8_t_s_s>
    d258:	84 c0                	test   %al,%al
    d25a:	74 07                	je     d263 <func_17+0x1bd2>
    d25c:	b8 01 00 00 00       	mov    $0x1,%eax
    d261:	eb 05                	jmp    d268 <func_17+0x1bd7>
    d263:	b8 00 00 00 00       	mov    $0x0,%eax
    d268:	89 c2                	mov    %eax,%edx
    d26a:	8b 85 1c ec ff ff    	mov    -0x13e4(%rbp),%eax
    d270:	39 c2                	cmp    %eax,%edx
    d272:	0f 92 c0             	setb   %al
    d275:	0f b6 c0             	movzbl %al,%eax
    d278:	be 01 00 00 00       	mov    $0x1,%esi
    d27d:	89 c7                	mov    %eax,%edi
    d27f:	e8 09 ba ff ff       	callq  8c8d <safe_rshift_func_uint8_t_u_s>
    d284:	8b 85 1c ec ff ff    	mov    -0x13e4(%rbp),%eax
    d28a:	3d 4a 69 2d ae       	cmp    $0xae2d694a,%eax
    d28f:	0f 97 c0             	seta   %al
    d292:	0f b6 c0             	movzbl %al,%eax
    d295:	48 98                	cltq   
    d297:	48 31 85 88 ed ff ff 	xor    %rax,-0x1278(%rbp)
    d29e:	48 8b 85 10 ec ff ff 	mov    -0x13f0(%rbp),%rax
    d2a5:	48 8b 5d c8          	mov    -0x38(%rbp),%rbx
    d2a9:	64 48 33 1c 25 28 00 	xor    %fs:0x28,%rbx
    d2b0:	00 00 
    d2b2:	74 05                	je     d2b9 <func_17+0x1c28>
    d2b4:	e8 b7 ad ff ff       	callq  8070 <__stack_chk_fail@plt>
    d2b9:	48 81 c4 d8 13 00 00 	add    $0x13d8,%rsp
    d2c0:	5b                   	pop    %rbx
    d2c1:	41 5c                	pop    %r12
    d2c3:	41 5d                	pop    %r13
    d2c5:	41 5e                	pop    %r14
    d2c7:	41 5f                	pop    %r15
    d2c9:	5d                   	pop    %rbp
    d2ca:	c3                   	retq   

000000000000d2cb <func_20>:
    d2cb:	f3 0f 1e fa          	endbr64 
    d2cf:	55                   	push   %rbp
    d2d0:	48 89 e5             	mov    %rsp,%rbp
    d2d3:	41 57                	push   %r15
    d2d5:	41 56                	push   %r14
    d2d7:	41 55                	push   %r13
    d2d9:	41 54                	push   %r12
    d2db:	53                   	push   %rbx
    d2dc:	48 81 ec 78 05 00 00 	sub    $0x578,%rsp
    d2e3:	48 89 bd 88 fa ff ff 	mov    %rdi,-0x578(%rbp)
    d2ea:	48 89 b5 80 fa ff ff 	mov    %rsi,-0x580(%rbp)
    d2f1:	89 95 7c fa ff ff    	mov    %edx,-0x584(%rbp)
    d2f7:	89 c8                	mov    %ecx,%eax
    d2f9:	4c 89 85 70 fa ff ff 	mov    %r8,-0x590(%rbp)
    d300:	88 85 78 fa ff ff    	mov    %al,-0x588(%rbp)
    d306:	64 48 8b 04 25 28 00 	mov    %fs:0x28,%rax
    d30d:	00 00 
    d30f:	48 89 45 c8          	mov    %rax,-0x38(%rbp)
    d313:	31 c0                	xor    %eax,%eax
    d315:	48 c7 85 f0 fa ff ff 	movq   $0x7,-0x510(%rbp)
    d31c:	07 00 00 00 
    d320:	48 8d 05 81 7a 01 00 	lea    0x17a81(%rip),%rax        # 24da8 <g_1322+0x28>
    d327:	48 89 85 f8 fa ff ff 	mov    %rax,-0x508(%rbp)
    d32e:	c7 85 94 fa ff ff 00 	movl   $0x0,-0x56c(%rbp)
    d335:	00 00 00 
    d338:	c7 85 a4 fa ff ff 0d 	movl   $0x6ad1ca0d,-0x55c(%rbp)
    d33f:	ca d1 6a 
    d342:	48 8d 05 ff 56 01 00 	lea    0x156ff(%rip),%rax        # 22a48 <g_228>
    d349:	48 89 85 b0 fa ff ff 	mov    %rax,-0x550(%rbp)
    d350:	48 8d 85 b0 fa ff ff 	lea    -0x550(%rbp),%rax
    d357:	48 89 85 b8 fa ff ff 	mov    %rax,-0x548(%rbp)
    d35e:	48 c7 85 c0 fa ff ff 	movq   $0x0,-0x540(%rbp)
    d365:	00 00 00 00 
    d369:	48 8d 85 c0 fa ff ff 	lea    -0x540(%rbp),%rax
    d370:	48 89 85 00 fb ff ff 	mov    %rax,-0x500(%rbp)
    d377:	48 8d 05 6a 75 01 00 	lea    0x1756a(%rip),%rax        # 248e8 <g_451>
    d37e:	48 89 85 08 fb ff ff 	mov    %rax,-0x4f8(%rbp)
    d385:	48 8b 85 70 fa ff ff 	mov    -0x590(%rbp),%rax
    d38c:	8b 10                	mov    (%rax),%edx
    d38e:	48 8b 05 13 77 01 00 	mov    0x17713(%rip),%rax        # 24aa8 <g_725>
    d395:	48 8b 00             	mov    (%rax),%rax
    d398:	48 85 c0             	test   %rax,%rax
    d39b:	0f 95 c0             	setne  %al
    d39e:	0f b6 c0             	movzbl %al,%eax
    d3a1:	21 c2                	and    %eax,%edx
    d3a3:	48 8b 85 70 fa ff ff 	mov    -0x590(%rbp),%rax
    d3aa:	89 10                	mov    %edx,(%rax)
    d3ac:	c6 05 95 56 01 00 19 	movb   $0x19,0x15695(%rip)        # 22a48 <g_228>
    d3b3:	e9 43 0c 00 00       	jmpq   dffb <func_20+0xd30>
    d3b8:	c6 85 91 fa ff ff 01 	movb   $0x1,-0x56f(%rbp)
    d3bf:	48 8d 05 ea 79 01 00 	lea    0x179ea(%rip),%rax        # 24db0 <g_1322+0x30>
    d3c6:	48 89 85 10 fb ff ff 	mov    %rax,-0x4f0(%rbp)
    d3cd:	c7 85 90 fb ff ff 2b 	movl   $0xea8e032b,-0x470(%rbp)
    d3d4:	03 8e ea 
    d3d7:	c7 85 94 fb ff ff 2b 	movl   $0xea8e032b,-0x46c(%rbp)
    d3de:	03 8e ea 
    d3e1:	c7 85 98 fb ff ff 2b 	movl   $0xea8e032b,-0x468(%rbp)
    d3e8:	03 8e ea 
    d3eb:	c7 85 9c fb ff ff 2b 	movl   $0xea8e032b,-0x464(%rbp)
    d3f2:	03 8e ea 
    d3f5:	c7 85 a0 fb ff ff 2b 	movl   $0xea8e032b,-0x460(%rbp)
    d3fc:	03 8e ea 
    d3ff:	c7 85 a4 fb ff ff 2b 	movl   $0xea8e032b,-0x45c(%rbp)
    d406:	03 8e ea 
    d409:	c7 85 a8 fb ff ff 2b 	movl   $0xea8e032b,-0x458(%rbp)
    d410:	03 8e ea 
    d413:	c7 85 98 fa ff ff 14 	movl   $0x7d385214,-0x568(%rbp)
    d41a:	52 38 7d 
    d41d:	48 8d 85 30 fd ff ff 	lea    -0x2d0(%rbp),%rax
    d424:	48 8d 15 35 68 01 00 	lea    0x16835(%rip),%rdx        # 23c60 <g_4621+0x702>
    d42b:	b9 50 00 00 00       	mov    $0x50,%ecx
    d430:	48 89 c7             	mov    %rax,%rdi
    d433:	48 89 d6             	mov    %rdx,%rsi
    d436:	f3 48 a5             	rep movsq %ds:(%rsi),%es:(%rdi)
    d439:	66 c7 85 92 fa ff ff 	movw   $0xffff,-0x56e(%rbp)
    d440:	ff ff 
    d442:	48 8d 05 9f 58 01 00 	lea    0x1589f(%rip),%rax        # 22ce8 <g_1182+0x8>
    d449:	48 89 85 c8 fa ff ff 	mov    %rax,-0x538(%rbp)
    d450:	48 8d 85 c8 fa ff ff 	lea    -0x538(%rbp),%rax
    d457:	48 89 85 d0 fa ff ff 	mov    %rax,-0x530(%rbp)
    d45e:	48 8d 85 d0 fa ff ff 	lea    -0x530(%rbp),%rax
    d465:	48 89 85 18 fb ff ff 	mov    %rax,-0x4e8(%rbp)
    d46c:	48 8b 05 5d 75 01 00 	mov    0x1755d(%rip),%rax        # 249d0 <g_682>
    d473:	48 8b 10             	mov    (%rax),%rdx
    d476:	48 8b 05 53 75 01 00 	mov    0x17553(%rip),%rax        # 249d0 <g_682>
    d47d:	48 8b 00             	mov    (%rax),%rax
    d480:	48 8b 12             	mov    (%rdx),%rdx
    d483:	48 89 10             	mov    %rdx,(%rax)
    d486:	80 bd 91 fa ff ff 00 	cmpb   $0x0,-0x56f(%rbp)
    d48d:	0f 85 79 0b 00 00    	jne    e00c <func_20+0xd41>
    d493:	48 8d 05 ee 48 01 00 	lea    0x148ee(%rip),%rax        # 21d88 <g_2928+0xe8>
    d49a:	48 8b 00             	mov    (%rax),%rax
    d49d:	8b 00                	mov    (%rax),%eax
    d49f:	89 85 94 fa ff ff    	mov    %eax,-0x56c(%rbp)
    d4a5:	48 8b 85 88 fa ff ff 	mov    -0x578(%rbp),%rax
    d4ac:	8b 00                	mov    (%rax),%eax
    d4ae:	89 c6                	mov    %eax,%esi
    d4b0:	0f b6 95 78 fa ff ff 	movzbl -0x588(%rbp),%edx
    d4b7:	48 8b 05 a2 79 01 00 	mov    0x179a2(%rip),%rax        # 24e60 <g_2926>
    d4be:	48 8b 00             	mov    (%rax),%rax
    d4c1:	48 8b 00             	mov    (%rax),%rax
    d4c4:	8b 08                	mov    (%rax),%ecx
    d4c6:	8b 85 94 fa ff ff    	mov    -0x56c(%rbp),%eax
    d4cc:	48 98                	cltq   
    d4ce:	48 39 85 f0 fa ff ff 	cmp    %rax,-0x510(%rbp)
    d4d5:	0f 9e c0             	setle  %al
    d4d8:	0f b6 c0             	movzbl %al,%eax
    d4db:	48 39 85 f0 fa ff ff 	cmp    %rax,-0x510(%rbp)
    d4e2:	0f 9f c0             	setg   %al
    d4e5:	0f b6 c0             	movzbl %al,%eax
    d4e8:	39 c1                	cmp    %eax,%ecx
    d4ea:	0f 9d c0             	setge  %al
    d4ed:	0f b6 c0             	movzbl %al,%eax
    d4f0:	39 85 a4 fa ff ff    	cmp    %eax,-0x55c(%rbp)
    d4f6:	0f 97 c0             	seta   %al
    d4f9:	0f b6 c0             	movzbl %al,%eax
    d4fc:	39 c2                	cmp    %eax,%edx
    d4fe:	0f 95 c0             	setne  %al
    d501:	0f b6 c0             	movzbl %al,%eax
    d504:	09 f0                	or     %esi,%eax
    d506:	0f b7 d8             	movzwl %ax,%ebx
    d509:	0f b6 95 91 fa ff ff 	movzbl -0x56f(%rbp),%edx
    d510:	83 ad 7c fa ff ff 01 	subl   $0x1,-0x584(%rbp)
    d517:	8b 85 7c fa ff ff    	mov    -0x584(%rbp),%eax
    d51d:	89 d6                	mov    %edx,%esi
    d51f:	89 c7                	mov    %eax,%edi
    d521:	e8 aa b9 ff ff       	callq  8ed0 <safe_sub_func_uint32_t_u_u>
    d526:	48 8b 85 10 fb ff ff 	mov    -0x4f0(%rbp),%rax
    d52d:	48 3b 85 f8 fa ff ff 	cmp    -0x508(%rbp),%rax
    d534:	0f 95 c0             	setne  %al
    d537:	0f b6 c0             	movzbl %al,%eax
    d53a:	89 de                	mov    %ebx,%esi
    d53c:	89 c7                	mov    %eax,%edi
    d53e:	e8 bc b7 ff ff       	callq  8cff <safe_add_func_uint16_t_u_u>
    d543:	0f b6 95 91 fa ff ff 	movzbl -0x56f(%rbp),%edx
    d54a:	66 39 d0             	cmp    %dx,%ax
    d54d:	0f 93 c0             	setae  %al
    d550:	0f b6 c0             	movzbl %al,%eax
    d553:	89 c7                	mov    %eax,%edi
    d555:	e8 8f b7 ff ff       	callq  8ce9 <safe_unary_minus_func_uint16_t_u>
    d55a:	0f be c0             	movsbl %al,%eax
    d55d:	be 06 00 00 00       	mov    $0x6,%esi
    d562:	89 c7                	mov    %eax,%edi
    d564:	e8 03 ae ff ff       	callq  836c <safe_rshift_func_int8_t_s_u>
    d569:	0f be c0             	movsbl %al,%eax
    d56c:	89 c6                	mov    %eax,%esi
    d56e:	bf 01 00 00 00       	mov    $0x1,%edi
    d573:	e8 ad b9 ff ff       	callq  8f25 <safe_div_func_uint32_t_u_u>
    d578:	89 c0                	mov    %eax,%eax
    d57a:	48 89 c7             	mov    %rax,%rdi
    d57d:	e8 97 ba ff ff       	callq  9019 <safe_unary_minus_func_uint64_t_u>
    d582:	be 01 00 00 00       	mov    $0x1,%esi
    d587:	bf 00 00 00 00       	mov    $0x0,%edi
    d58c:	e8 1e bb ff ff       	callq  90af <safe_div_func_uint64_t_u_u>
    d591:	48 85 c0             	test   %rax,%rax
    d594:	75 08                	jne    d59e <func_20+0x2d3>
    d596:	48 83 bd f0 fa ff ff 	cmpq   $0x0,-0x510(%rbp)
    d59d:	00 
    d59e:	83 bd 94 fa ff ff 00 	cmpl   $0x0,-0x56c(%rbp)
    d5a5:	74 10                	je     d5b7 <func_20+0x2ec>
    d5a7:	48 c7 85 80 fb ff ff 	movq   $0x0,-0x480(%rbp)
    d5ae:	00 00 00 00 
    d5b2:	e9 34 0a 00 00       	jmpq   dfeb <func_20+0xd20>
    d5b7:	c7 85 f0 fb ff ff 78 	movl   $0x98603b78,-0x410(%rbp)
    d5be:	3b 60 98 
    d5c1:	c7 85 f4 fb ff ff ff 	movl   $0xffffffff,-0x40c(%rbp)
    d5c8:	ff ff ff 
    d5cb:	c7 85 f8 fb ff ff fa 	movl   $0xfffffffa,-0x408(%rbp)
    d5d2:	ff ff ff 
    d5d5:	c7 85 fc fb ff ff ff 	movl   $0xffffffff,-0x404(%rbp)
    d5dc:	ff ff ff 
    d5df:	c7 85 00 fc ff ff 78 	movl   $0x98603b78,-0x400(%rbp)
    d5e6:	3b 60 98 
    d5e9:	c7 85 04 fc ff ff 78 	movl   $0x98603b78,-0x3fc(%rbp)
    d5f0:	3b 60 98 
    d5f3:	c7 85 08 fc ff ff ff 	movl   $0xffffffff,-0x3f8(%rbp)
    d5fa:	ff ff ff 
    d5fd:	c7 85 0c fc ff ff fa 	movl   $0xfffffffa,-0x3f4(%rbp)
    d604:	ff ff ff 
    d607:	c7 85 10 fc ff ff ff 	movl   $0xffffffff,-0x3f0(%rbp)
    d60e:	ff ff ff 
    d611:	c7 85 14 fc ff ff 78 	movl   $0x98603b78,-0x3ec(%rbp)
    d618:	3b 60 98 
    d61b:	48 8d 05 8e 8f 01 00 	lea    0x18f8e(%rip),%rax        # 265b0 <g_783>
    d622:	48 89 85 20 fb ff ff 	mov    %rax,-0x4e0(%rbp)
    d629:	c7 85 9c fa ff ff 00 	movl   $0x0,-0x564(%rbp)
    d630:	00 00 00 
    d633:	eb 1e                	jmp    d653 <func_20+0x388>
    d635:	8b 85 9c fa ff ff    	mov    -0x564(%rbp),%eax
    d63b:	48 98                	cltq   
    d63d:	48 8d 15 64 75 01 00 	lea    0x17564(%rip),%rdx        # 24ba8 <g_1143+0xe8>
    d644:	48 89 94 c5 88 fb ff 	mov    %rdx,-0x478(%rbp,%rax,8)
    d64b:	ff 
    d64c:	83 85 9c fa ff ff 01 	addl   $0x1,-0x564(%rbp)
    d653:	83 bd 9c fa ff ff 00 	cmpl   $0x0,-0x564(%rbp)
    d65a:	7e d9                	jle    d635 <func_20+0x36a>
    d65c:	48 8b 85 88 fb ff ff 	mov    -0x478(%rbp),%rax
    d663:	48 8d 15 3e 75 01 00 	lea    0x1753e(%rip),%rdx        # 24ba8 <g_1143+0xe8>
    d66a:	48 39 d0             	cmp    %rdx,%rax
    d66d:	0f 95 c0             	setne  %al
    d670:	0f b6 c0             	movzbl %al,%eax
    d673:	39 85 94 fa ff ff    	cmp    %eax,-0x56c(%rbp)
    d679:	0f 9d c0             	setge  %al
    d67c:	0f b6 c0             	movzbl %al,%eax
    d67f:	89 c6                	mov    %eax,%esi
    d681:	bf f7 c2 00 00       	mov    $0xc2f7,%edi
    d686:	e8 33 b7 ff ff       	callq  8dbe <safe_lshift_func_uint16_t_u_s>
    d68b:	48 8b 95 88 fa ff ff 	mov    -0x578(%rbp),%rdx
    d692:	8b 12                	mov    (%rdx),%edx
    d694:	0f b7 c0             	movzwl %ax,%eax
    d697:	21 c2                	and    %eax,%edx
    d699:	48 8b 85 88 fa ff ff 	mov    -0x578(%rbp),%rax
    d6a0:	89 10                	mov    %edx,(%rax)
    d6a2:	48 c7 05 ab 53 01 00 	movq   $0x11,0x153ab(%rip)        # 22a58 <g_286>
    d6a9:	11 00 00 00 
    d6ad:	90                   	nop
    d6ae:	48 8b 05 a3 53 01 00 	mov    0x153a3(%rip),%rax        # 22a58 <g_286>
    d6b5:	48 83 f8 ff          	cmp    $0xffffffffffffffff,%rax
    d6b9:	0f 8c 1b 09 00 00    	jl     dfda <func_20+0xd0f>
    d6bf:	48 c7 85 70 fc ff ff 	movq   $0x0,-0x390(%rbp)
    d6c6:	00 00 00 00 
    d6ca:	48 8d 05 17 72 01 00 	lea    0x17217(%rip),%rax        # 248e8 <g_451>
    d6d1:	48 89 85 78 fc ff ff 	mov    %rax,-0x388(%rbp)
    d6d8:	48 8d 05 09 72 01 00 	lea    0x17209(%rip),%rax        # 248e8 <g_451>
    d6df:	48 89 85 80 fc ff ff 	mov    %rax,-0x380(%rbp)
    d6e6:	48 8d 05 fb 71 01 00 	lea    0x171fb(%rip),%rax        # 248e8 <g_451>
    d6ed:	48 89 85 88 fc ff ff 	mov    %rax,-0x378(%rbp)
    d6f4:	48 8d 05 ed 71 01 00 	lea    0x171ed(%rip),%rax        # 248e8 <g_451>
    d6fb:	48 89 85 90 fc ff ff 	mov    %rax,-0x370(%rbp)
    d702:	48 8d 05 df 71 01 00 	lea    0x171df(%rip),%rax        # 248e8 <g_451>
    d709:	48 89 85 98 fc ff ff 	mov    %rax,-0x368(%rbp)
    d710:	48 c7 85 a0 fc ff ff 	movq   $0x0,-0x360(%rbp)
    d717:	00 00 00 00 
    d71b:	48 8d 05 c6 71 01 00 	lea    0x171c6(%rip),%rax        # 248e8 <g_451>
    d722:	48 89 85 a8 fc ff ff 	mov    %rax,-0x358(%rbp)
    d729:	48 c7 85 b0 fc ff ff 	movq   $0x0,-0x350(%rbp)
    d730:	00 00 00 00 
    d734:	48 8d 05 ad 71 01 00 	lea    0x171ad(%rip),%rax        # 248e8 <g_451>
    d73b:	48 89 85 b8 fc ff ff 	mov    %rax,-0x348(%rbp)
    d742:	48 8d 05 9f 71 01 00 	lea    0x1719f(%rip),%rax        # 248e8 <g_451>
    d749:	48 89 85 c0 fc ff ff 	mov    %rax,-0x340(%rbp)
    d750:	48 8d 05 91 71 01 00 	lea    0x17191(%rip),%rax        # 248e8 <g_451>
    d757:	48 89 85 c8 fc ff ff 	mov    %rax,-0x338(%rbp)
    d75e:	48 c7 85 d0 fc ff ff 	movq   $0x0,-0x330(%rbp)
    d765:	00 00 00 00 
    d769:	48 8d 05 78 71 01 00 	lea    0x17178(%rip),%rax        # 248e8 <g_451>
    d770:	48 89 85 d8 fc ff ff 	mov    %rax,-0x328(%rbp)
    d777:	48 c7 85 e0 fc ff ff 	movq   $0x0,-0x320(%rbp)
    d77e:	00 00 00 00 
    d782:	48 8d 05 5f 71 01 00 	lea    0x1715f(%rip),%rax        # 248e8 <g_451>
    d789:	48 89 85 e8 fc ff ff 	mov    %rax,-0x318(%rbp)
    d790:	48 8d 05 51 71 01 00 	lea    0x17151(%rip),%rax        # 248e8 <g_451>
    d797:	48 89 85 f0 fc ff ff 	mov    %rax,-0x310(%rbp)
    d79e:	48 8d 05 43 71 01 00 	lea    0x17143(%rip),%rax        # 248e8 <g_451>
    d7a5:	48 89 85 f8 fc ff ff 	mov    %rax,-0x308(%rbp)
    d7ac:	48 8d 05 35 71 01 00 	lea    0x17135(%rip),%rax        # 248e8 <g_451>
    d7b3:	48 89 85 00 fd ff ff 	mov    %rax,-0x300(%rbp)
    d7ba:	48 8d 05 27 71 01 00 	lea    0x17127(%rip),%rax        # 248e8 <g_451>
    d7c1:	48 89 85 08 fd ff ff 	mov    %rax,-0x2f8(%rbp)
    d7c8:	48 c7 85 10 fd ff ff 	movq   $0x0,-0x2f0(%rbp)
    d7cf:	00 00 00 00 
    d7d3:	48 8d 05 0e 71 01 00 	lea    0x1710e(%rip),%rax        # 248e8 <g_451>
    d7da:	48 89 85 18 fd ff ff 	mov    %rax,-0x2e8(%rbp)
    d7e1:	48 8d 05 00 71 01 00 	lea    0x17100(%rip),%rax        # 248e8 <g_451>
    d7e8:	48 89 85 20 fd ff ff 	mov    %rax,-0x2e0(%rbp)
    d7ef:	48 8d 05 f2 70 01 00 	lea    0x170f2(%rip),%rax        # 248e8 <g_451>
    d7f6:	48 89 85 28 fd ff ff 	mov    %rax,-0x2d8(%rbp)
    d7fd:	48 8d 05 cc 54 01 00 	lea    0x154cc(%rip),%rax        # 22cd0 <g_1177+0x10>
    d804:	48 89 85 28 fb ff ff 	mov    %rax,-0x4d8(%rbp)
    d80b:	48 8d 05 3e 52 01 00 	lea    0x1523e(%rip),%rax        # 22a50 <g_232>
    d812:	48 89 85 30 fb ff ff 	mov    %rax,-0x4d0(%rbp)
    d819:	48 8d 05 80 75 01 00 	lea    0x17580(%rip),%rax        # 24da0 <g_1322+0x20>
    d820:	48 89 85 38 fb ff ff 	mov    %rax,-0x4c8(%rbp)
    d827:	8b 85 f0 fb ff ff    	mov    -0x410(%rbp),%eax
    d82d:	0f b7 d8             	movzwl %ax,%ebx
    d830:	8b 85 00 fc ff ff    	mov    -0x400(%rbp),%eax
    d836:	4c 63 e0             	movslq %eax,%r12
    d839:	44 0f b6 ad 78 fa ff 	movzbl -0x588(%rbp),%r13d
    d840:	ff 
    d841:	48 8b 85 18 fd ff ff 	mov    -0x2e8(%rbp),%rax
    d848:	48 85 c0             	test   %rax,%rax
    d84b:	0f 95 c0             	setne  %al
    d84e:	0f b6 c0             	movzbl %al,%eax
    d851:	66 89 85 6c fa ff ff 	mov    %ax,-0x594(%rbp)
    d858:	8b 85 7c fa ff ff    	mov    -0x584(%rbp),%eax
    d85e:	44 0f be f0          	movsbl %al,%r14d
    d862:	44 8b bd 98 fa ff ff 	mov    -0x568(%rbp),%r15d
    d869:	48 8b 05 c0 75 01 00 	mov    0x175c0(%rip),%rax        # 24e30 <g_2653>
    d870:	48 8b 00             	mov    (%rax),%rax
    d873:	48 39 85 88 fa ff ff 	cmp    %rax,-0x578(%rbp)
    d87a:	0f 95 c0             	setne  %al
    d87d:	0f b6 c0             	movzbl %al,%eax
    d880:	89 c6                	mov    %eax,%esi
    d882:	bf fd ff ff ff       	mov    $0xfffffffd,%edi
    d887:	e8 47 ab ff ff       	callq  83d3 <safe_sub_func_int16_t_s_s>
    d88c:	44 89 fe             	mov    %r15d,%esi
    d88f:	bf 01 00 00 00       	mov    $0x1,%edi
    d894:	e8 e1 b5 ff ff       	callq  8e7a <safe_rshift_func_uint16_t_u_u>
    d899:	48 8b 05 98 75 01 00 	mov    0x17598(%rip),%rax        # 24e38 <g_2823>
    d8a0:	48 8b 00             	mov    (%rax),%rax
    d8a3:	48 be 21 8d 01 c4 43 	movabs $0x1dcdaf43c4018d21,%rsi
    d8aa:	af cd 1d 
    d8ad:	48 89 c7             	mov    %rax,%rdi
    d8b0:	e8 8c af ff ff       	callq  8841 <safe_add_func_int64_t_s_s>
    d8b5:	83 f0 01             	xor    $0x1,%eax
    d8b8:	0f b7 d0             	movzwl %ax,%edx
    d8bb:	0f b6 8d 78 fa ff ff 	movzbl -0x588(%rbp),%ecx
    d8c2:	48 8b 85 28 fb ff ff 	mov    -0x4d8(%rbp),%rax
    d8c9:	66 89 08             	mov    %cx,(%rax)
    d8cc:	48 8b 85 28 fb ff ff 	mov    -0x4d8(%rbp),%rax
    d8d3:	0f b7 00             	movzwl (%rax),%eax
    d8d6:	0f b7 c0             	movzwl %ax,%eax
    d8d9:	89 d6                	mov    %edx,%esi
    d8db:	89 c7                	mov    %eax,%edi
    d8dd:	e8 7a b4 ff ff       	callq  8d5c <safe_mod_func_uint16_t_u_u>
    d8e2:	0f b7 c0             	movzwl %ax,%eax
    d8e5:	39 85 7c fa ff ff    	cmp    %eax,-0x584(%rbp)
    d8eb:	0f 97 c0             	seta   %al
    d8ee:	0f b6 c0             	movzbl %al,%eax
    d8f1:	44 89 f6             	mov    %r14d,%esi
    d8f4:	89 c7                	mov    %eax,%edi
    d8f6:	e8 f7 a8 ff ff       	callq  81f2 <safe_sub_func_int8_t_s_s>
    d8fb:	66 98                	cbtw   
    d8fd:	66 23 85 6c fa ff ff 	and    -0x594(%rbp),%ax
    d904:	98                   	cwtl   
    d905:	44 89 ee             	mov    %r13d,%esi
    d908:	89 c7                	mov    %eax,%edi
    d90a:	e8 83 ab ff ff       	callq  8492 <safe_lshift_func_int16_t_s_s>
    d90f:	89 c2                	mov    %eax,%edx
    d911:	8b 85 9c fb ff ff    	mov    -0x464(%rbp),%eax
    d917:	21 d0                	and    %edx,%eax
    d919:	0f b6 c0             	movzbl %al,%eax
    d91c:	be 04 00 00 00       	mov    $0x4,%esi
    d921:	89 c7                	mov    %eax,%edi
    d923:	e8 96 b3 ff ff       	callq  8cbe <safe_rshift_func_uint8_t_u_u>
    d928:	0f b6 d0             	movzbl %al,%edx
    d92b:	8b 85 00 fc ff ff    	mov    -0x400(%rbp),%eax
    d931:	39 c2                	cmp    %eax,%edx
    d933:	7d 07                	jge    d93c <func_20+0x671>
    d935:	ba 8d 00 00 00       	mov    $0x8d,%edx
    d93a:	eb 05                	jmp    d941 <func_20+0x676>
    d93c:	ba 8c 00 00 00       	mov    $0x8c,%edx
    d941:	8b 85 7c fa ff ff    	mov    -0x584(%rbp),%eax
    d947:	48 39 c2             	cmp    %rax,%rdx
    d94a:	0f 95 c0             	setne  %al
    d94d:	0f b6 c0             	movzbl %al,%eax
    d950:	be 06 00 00 00       	mov    $0x6,%esi
    d955:	89 c7                	mov    %eax,%edi
    d957:	e8 d9 a9 ff ff       	callq  8335 <safe_rshift_func_int8_t_s_s>
    d95c:	0f be c0             	movsbl %al,%eax
    d95f:	39 85 7c fa ff ff    	cmp    %eax,-0x584(%rbp)
    d965:	74 07                	je     d96e <func_20+0x6a3>
    d967:	b8 01 00 00 00       	mov    $0x1,%eax
    d96c:	eb 05                	jmp    d973 <func_20+0x6a8>
    d96e:	b8 00 00 00 00       	mov    $0x0,%eax
    d973:	48 98                	cltq   
    d975:	4c 89 e6             	mov    %r12,%rsi
    d978:	48 89 c7             	mov    %rax,%rdi
    d97b:	e8 2f b7 ff ff       	callq  90af <safe_div_func_uint64_t_u_u>
    d980:	89 c6                	mov    %eax,%esi
    d982:	bf 2e 00 00 00       	mov    $0x2e,%edi
    d987:	e8 01 b3 ff ff       	callq  8c8d <safe_rshift_func_uint8_t_u_s>
    d98c:	0f b6 85 91 fa ff ff 	movzbl -0x56f(%rbp),%eax
    d993:	89 de                	mov    %ebx,%esi
    d995:	89 c7                	mov    %eax,%edi
    d997:	e8 63 b3 ff ff       	callq  8cff <safe_add_func_uint16_t_u_u>
    d99c:	0f b7 d0             	movzwl %ax,%edx
    d99f:	48 8b 85 88 fa ff ff 	mov    -0x578(%rbp),%rax
    d9a6:	89 10                	mov    %edx,(%rax)
    d9a8:	48 8d 05 d9 43 01 00 	lea    0x143d9(%rip),%rax        # 21d88 <g_2928+0xe8>
    d9af:	48 8b 00             	mov    (%rax),%rax
    d9b2:	48 8b 95 88 fa ff ff 	mov    -0x578(%rbp),%rdx
    d9b9:	8b 12                	mov    (%rdx),%edx
    d9bb:	89 10                	mov    %edx,(%rax)
    d9bd:	c7 05 ed 59 01 00 11 	movl   $0x11,0x159ed(%rip)        # 233b4 <g_2852>
    d9c4:	00 00 00 
    d9c7:	e9 f6 05 00 00       	jmpq   dfc2 <func_20+0xcf7>
    d9cc:	c7 85 a8 fa ff ff f7 	movl   $0xfffffff7,-0x558(%rbp)
    d9d3:	ff ff ff 
    d9d6:	48 8d 05 04 50 01 00 	lea    0x15004(%rip),%rax        # 229e1 <g_15>
    d9dd:	48 89 85 d8 fa ff ff 	mov    %rax,-0x528(%rbp)
    d9e4:	48 c7 85 40 fb ff ff 	movq   $0x0,-0x4c0(%rbp)
    d9eb:	00 00 00 00 
    d9ef:	48 c7 85 48 fb ff ff 	movq   $0x0,-0x4b8(%rbp)
    d9f6:	00 00 00 00 
    d9fa:	48 8d 05 a7 70 01 00 	lea    0x170a7(%rip),%rax        # 24aa8 <g_725>
    da01:	48 89 85 e0 fa ff ff 	mov    %rax,-0x520(%rbp)
    da08:	48 c7 85 20 fc ff ff 	movq   $0x0,-0x3e0(%rbp)
    da0f:	00 00 00 00 
    da13:	48 8d 85 e0 fa ff ff 	lea    -0x520(%rbp),%rax
    da1a:	48 89 85 28 fc ff ff 	mov    %rax,-0x3d8(%rbp)
    da21:	48 8d 85 e0 fa ff ff 	lea    -0x520(%rbp),%rax
    da28:	48 89 85 30 fc ff ff 	mov    %rax,-0x3d0(%rbp)
    da2f:	48 8d 85 e0 fa ff ff 	lea    -0x520(%rbp),%rax
    da36:	48 89 85 38 fc ff ff 	mov    %rax,-0x3c8(%rbp)
    da3d:	48 8d 85 e0 fa ff ff 	lea    -0x520(%rbp),%rax
    da44:	48 89 85 40 fc ff ff 	mov    %rax,-0x3c0(%rbp)
    da4b:	48 c7 85 48 fc ff ff 	movq   $0x0,-0x3b8(%rbp)
    da52:	00 00 00 00 
    da56:	48 8d 85 e0 fa ff ff 	lea    -0x520(%rbp),%rax
    da5d:	48 89 85 50 fc ff ff 	mov    %rax,-0x3b0(%rbp)
    da64:	48 8d 85 e0 fa ff ff 	lea    -0x520(%rbp),%rax
    da6b:	48 89 85 58 fc ff ff 	mov    %rax,-0x3a8(%rbp)
    da72:	48 8d 85 e0 fa ff ff 	lea    -0x520(%rbp),%rax
    da79:	48 89 85 60 fc ff ff 	mov    %rax,-0x3a0(%rbp)
    da80:	48 8d 85 e0 fa ff ff 	lea    -0x520(%rbp),%rax
    da87:	48 89 85 68 fc ff ff 	mov    %rax,-0x398(%rbp)
    da8e:	48 b8 79 f4 10 40 db 	movabs $0xc7b0badb4010f479,%rax
    da95:	ba b0 c7 
    da98:	48 89 85 50 fb ff ff 	mov    %rax,-0x4b0(%rbp)
    da9f:	8b 85 a8 fa ff ff    	mov    -0x558(%rbp),%eax
    daa5:	83 f0 01             	xor    $0x1,%eax
    daa8:	39 85 a4 fa ff ff    	cmp    %eax,-0x55c(%rbp)
    daae:	0f 97 c2             	seta   %dl
    dab1:	48 8b 85 d8 fa ff ff 	mov    -0x528(%rbp),%rax
    dab8:	88 10                	mov    %dl,(%rax)
    daba:	0f b6 00             	movzbl (%rax),%eax
    dabd:	0f be c0             	movsbl %al,%eax
    dac0:	be 01 00 00 00       	mov    $0x1,%esi
    dac5:	89 c7                	mov    %eax,%edi
    dac7:	e8 46 a7 ff ff       	callq  8212 <safe_mul_func_int8_t_s_s>
    dacc:	0f be c0             	movsbl %al,%eax
    dacf:	39 85 7c fa ff ff    	cmp    %eax,-0x584(%rbp)
    dad5:	72 07                	jb     dade <func_20+0x813>
    dad7:	83 bd a4 fa ff ff 00 	cmpl   $0x0,-0x55c(%rbp)
    dade:	48 8d 05 bb 72 01 00 	lea    0x172bb(%rip),%rax        # 24da0 <g_1322+0x20>
    dae5:	48 39 85 38 fb ff ff 	cmp    %rax,-0x4c8(%rbp)
    daec:	0f 84 28 02 00 00    	je     dd1a <func_20+0xa4f>
    daf2:	48 8d 05 f7 6d 01 00 	lea    0x16df7(%rip),%rax        # 248f0 <g_450>
    daf9:	48 89 85 e8 fa ff ff 	mov    %rax,-0x518(%rbp)
    db00:	48 8d 85 e8 fa ff ff 	lea    -0x518(%rbp),%rax
    db07:	48 89 85 58 fb ff ff 	mov    %rax,-0x4a8(%rbp)
    db0e:	48 8d 05 13 7a 01 00 	lea    0x17a13(%rip),%rax        # 25528 <g_3607+0x8>
    db15:	48 89 85 60 fb ff ff 	mov    %rax,-0x4a0(%rbp)
    db1c:	48 8d 85 b0 fb ff ff 	lea    -0x450(%rbp),%rax
    db23:	48 83 c0 08          	add    $0x8,%rax
    db27:	48 89 85 68 fb ff ff 	mov    %rax,-0x498(%rbp)
    db2e:	48 c7 85 70 fb ff ff 	movq   $0x0,-0x490(%rbp)
    db35:	00 00 00 00 
    db39:	48 8d 85 b8 fa ff ff 	lea    -0x548(%rbp),%rax
    db40:	48 89 85 78 fb ff ff 	mov    %rax,-0x488(%rbp)
    db47:	48 8d 05 62 8a 01 00 	lea    0x18a62(%rip),%rax        # 265b0 <g_783>
    db4e:	48 89 85 d0 fb ff ff 	mov    %rax,-0x430(%rbp)
    db55:	48 8d 05 54 8a 01 00 	lea    0x18a54(%rip),%rax        # 265b0 <g_783>
    db5c:	48 89 85 d8 fb ff ff 	mov    %rax,-0x428(%rbp)
    db63:	48 8d 05 46 8a 01 00 	lea    0x18a46(%rip),%rax        # 265b0 <g_783>
    db6a:	48 89 85 e0 fb ff ff 	mov    %rax,-0x420(%rbp)
    db71:	48 8d 05 38 8a 01 00 	lea    0x18a38(%rip),%rax        # 265b0 <g_783>
    db78:	48 89 85 e8 fb ff ff 	mov    %rax,-0x418(%rbp)
    db7f:	c7 85 a0 fa ff ff 00 	movl   $0x0,-0x560(%rbp)
    db86:	00 00 00 
    db89:	eb 1e                	jmp    dba9 <func_20+0x8de>
    db8b:	8b 85 a0 fa ff ff    	mov    -0x560(%rbp),%eax
    db91:	48 98                	cltq   
    db93:	48 8d 95 d8 fa ff ff 	lea    -0x528(%rbp),%rdx
    db9a:	48 89 94 c5 b0 fb ff 	mov    %rdx,-0x450(%rbp,%rax,8)
    dba1:	ff 
    dba2:	83 85 a0 fa ff ff 01 	addl   $0x1,-0x560(%rbp)
    dba9:	83 bd a0 fa ff ff 03 	cmpl   $0x3,-0x560(%rbp)
    dbb0:	7e d9                	jle    db8b <func_20+0x8c0>
    dbb2:	48 8b 85 58 fb ff ff 	mov    -0x4a8(%rbp),%rax
    dbb9:	48 8d 95 70 fc ff ff 	lea    -0x390(%rbp),%rdx
    dbc0:	48 83 c2 08          	add    $0x8,%rdx
    dbc4:	48 89 10             	mov    %rdx,(%rax)
    dbc7:	8b 85 a8 fa ff ff    	mov    -0x558(%rbp),%eax
    dbcd:	0f be d8             	movsbl %al,%ebx
    dbd0:	48 8b 05 71 72 01 00 	mov    0x17271(%rip),%rax        # 24e48 <g_2832>
    dbd7:	48 8b 00             	mov    (%rax),%rax
    dbda:	48 85 c0             	test   %rax,%rax
    dbdd:	0f 95 c2             	setne  %dl
    dbe0:	48 8b 85 e0 fb ff ff 	mov    -0x420(%rbp),%rax
    dbe7:	48 89 85 20 fb ff ff 	mov    %rax,-0x4e0(%rbp)
    dbee:	48 83 bd 20 fb ff ff 	cmpq   $0x0,-0x4e0(%rbp)
    dbf5:	00 
    dbf6:	0f 95 c0             	setne  %al
    dbf9:	09 d0                	or     %edx,%eax
    dbfb:	44 0f b6 e0          	movzbl %al,%r12d
    dbff:	48 8b 95 b0 fb ff ff 	mov    -0x450(%rbp),%rdx
    dc06:	48 8b 85 68 fb ff ff 	mov    -0x498(%rbp),%rax
    dc0d:	48 89 10             	mov    %rdx,(%rax)
    dc10:	48 8b 85 68 fb ff ff 	mov    -0x498(%rbp),%rax
    dc17:	48 8b 08             	mov    (%rax),%rcx
    dc1a:	48 8b 95 b8 fa ff ff 	mov    -0x548(%rbp),%rdx
    dc21:	48 8b 85 78 fb ff ff 	mov    -0x488(%rbp),%rax
    dc28:	48 89 10             	mov    %rdx,(%rax)
    dc2b:	48 8b 85 78 fb ff ff 	mov    -0x488(%rbp),%rax
    dc32:	48 8b 00             	mov    (%rax),%rax
    dc35:	48 39 c1             	cmp    %rax,%rcx
    dc38:	0f 95 c0             	setne  %al
    dc3b:	0f b6 c0             	movzbl %al,%eax
    dc3e:	89 c6                	mov    %eax,%esi
    dc40:	bf 4f 00 00 00       	mov    $0x4f,%edi
    dc45:	e8 eb a6 ff ff       	callq  8335 <safe_rshift_func_int8_t_s_s>
    dc4a:	66 98                	cbtw   
    dc4c:	f7 d0                	not    %eax
    dc4e:	0f b7 c0             	movzwl %ax,%eax
    dc51:	44 89 e6             	mov    %r12d,%esi
    dc54:	89 c7                	mov    %eax,%edi
    dc56:	e8 a4 b0 ff ff       	callq  8cff <safe_add_func_uint16_t_u_u>
    dc5b:	66 85 c0             	test   %ax,%ax
    dc5e:	75 09                	jne    dc69 <func_20+0x99e>
    dc60:	80 bd 78 fa ff ff 00 	cmpb   $0x0,-0x588(%rbp)
    dc67:	74 07                	je     dc70 <func_20+0x9a5>
    dc69:	b8 01 00 00 00       	mov    $0x1,%eax
    dc6e:	eb 05                	jmp    dc75 <func_20+0x9aa>
    dc70:	b8 00 00 00 00       	mov    $0x0,%eax
    dc75:	48 98                	cltq   
    dc77:	48 8b 15 ba 71 01 00 	mov    0x171ba(%rip),%rdx        # 24e38 <g_2823>
    dc7e:	48 8b 32             	mov    (%rdx),%rsi
    dc81:	48 8b 0d a0 78 01 00 	mov    0x178a0(%rip),%rcx        # 25528 <g_3607+0x8>
    dc88:	48 8b 95 60 fb ff ff 	mov    -0x4a0(%rbp),%rdx
    dc8f:	48 89 0a             	mov    %rcx,(%rdx)
    dc92:	48 8b 95 60 fb ff ff 	mov    -0x4a0(%rbp),%rdx
    dc99:	48 8b 12             	mov    (%rdx),%rdx
    dc9c:	48 39 95 40 fb ff ff 	cmp    %rdx,-0x4c0(%rbp)
    dca3:	0f 95 c2             	setne  %dl
    dca6:	0f b6 d2             	movzbl %dl,%edx
    dca9:	48 31 f2             	xor    %rsi,%rdx
    dcac:	48 89 c6             	mov    %rax,%rsi
    dcaf:	48 89 d7             	mov    %rdx,%rdi
    dcb2:	e8 c9 b3 ff ff       	callq  9080 <safe_mod_func_uint64_t_u_u>
    dcb7:	b9 00 00 00 00       	mov    $0x0,%ecx
    dcbc:	48 8b 85 d8 fa ff ff 	mov    -0x528(%rbp),%rax
    dcc3:	0f b6 10             	movzbl (%rax),%edx
    dcc6:	48 8b 85 d8 fa ff ff 	mov    -0x528(%rbp),%rax
    dccd:	21 ca                	and    %ecx,%edx
    dccf:	88 10                	mov    %dl,(%rax)
    dcd1:	0f b6 00             	movzbl (%rax),%eax
    dcd4:	0f be c0             	movsbl %al,%eax
    dcd7:	89 de                	mov    %ebx,%esi
    dcd9:	89 c7                	mov    %eax,%edi
    dcdb:	e8 51 a5 ff ff       	callq  8231 <safe_mod_func_int8_t_s_s>
    dce0:	48 8b 15 79 71 01 00 	mov    0x17179(%rip),%rdx        # 24e60 <g_2926>
    dce7:	48 8b 12             	mov    (%rdx),%rdx
    dcea:	48 8b 12             	mov    (%rdx),%rdx
    dced:	8b 0a                	mov    (%rdx),%ecx
    dcef:	0f be d0             	movsbl %al,%edx
    dcf2:	48 8b 05 67 71 01 00 	mov    0x17167(%rip),%rax        # 24e60 <g_2926>
    dcf9:	48 8b 00             	mov    (%rax),%rax
    dcfc:	48 8b 00             	mov    (%rax),%rax
    dcff:	09 ca                	or     %ecx,%edx
    dd01:	89 10                	mov    %edx,(%rax)
    dd03:	48 8b 85 70 fa ff ff 	mov    -0x590(%rbp),%rax
    dd0a:	8b 10                	mov    (%rax),%edx
    dd0c:	48 8b 85 70 fa ff ff 	mov    -0x590(%rbp),%rax
    dd13:	89 10                	mov    %edx,(%rax)
    dd15:	e9 8a 02 00 00       	jmpq   dfa4 <func_20+0xcd9>
    dd1a:	48 b8 b8 b8 6a b8 b8 	movabs $0xb8b86ab8b86ab8b8,%rax
    dd21:	6a b8 b8 
    dd24:	48 89 45 bf          	mov    %rax,-0x41(%rbp)
    dd28:	c6 45 c7 6a          	movb   $0x6a,-0x39(%rbp)
    dd2c:	c7 85 ac fa ff ff 99 	movl   $0xef93fd99,-0x554(%rbp)
    dd33:	fd 93 ef 
    dd36:	0f b6 45 c2          	movzbl -0x3e(%rbp),%eax
    dd3a:	0f b6 c0             	movzbl %al,%eax
    dd3d:	89 85 94 fa ff ff    	mov    %eax,-0x56c(%rbp)
    dd43:	0f b6 9d 78 fa ff ff 	movzbl -0x588(%rbp),%ebx
    dd4a:	44 0f b6 a5 78 fa ff 	movzbl -0x588(%rbp),%r12d
    dd51:	ff 
    dd52:	48 8b 15 df 70 01 00 	mov    0x170df(%rip),%rdx        # 24e38 <g_2823>
    dd59:	48 8b 05 d8 70 01 00 	mov    0x170d8(%rip),%rax        # 24e38 <g_2823>
    dd60:	48 8b 12             	mov    (%rdx),%rdx
    dd63:	48 89 10             	mov    %rdx,(%rax)
    dd66:	48 8b 00             	mov    (%rax),%rax
    dd69:	48 85 c0             	test   %rax,%rax
    dd6c:	0f 84 20 01 00 00    	je     de92 <func_20+0xbc7>
    dd72:	0f b6 45 c2          	movzbl -0x3e(%rbp),%eax
    dd76:	44 0f be e8          	movsbl %al,%r13d
    dd7a:	0f b7 85 92 fa ff ff 	movzwl -0x56e(%rbp),%eax
    dd81:	44 0f b6 f0          	movzbl %al,%r14d
    dd85:	48 8b 85 f0 fa ff ff 	mov    -0x510(%rbp),%rax
    dd8c:	89 85 6c fa ff ff    	mov    %eax,-0x594(%rbp)
    dd92:	8b 85 9c fb ff ff    	mov    -0x464(%rbp),%eax
    dd98:	44 0f b6 f8          	movzbl %al,%r15d
    dd9c:	8b 05 aa 55 01 00    	mov    0x155aa(%rip),%eax        # 2334c <g_1920>
    dda2:	89 85 68 fa ff ff    	mov    %eax,-0x598(%rbp)
    dda8:	83 ad 7c fa ff ff 01 	subl   $0x1,-0x584(%rbp)
    ddaf:	be 00 00 00 00       	mov    $0x0,%esi
    ddb4:	bf 01 00 00 00       	mov    $0x1,%edi
    ddb9:	e8 41 af ff ff       	callq  8cff <safe_add_func_uint16_t_u_u>
    ddbe:	f7 d0                	not    %eax
    ddc0:	0f be c0             	movsbl %al,%eax
    ddc3:	be 00 00 00 00       	mov    $0x0,%esi
    ddc8:	89 c7                	mov    %eax,%edi
    ddca:	e8 1f a5 ff ff       	callq  82ee <safe_lshift_func_int8_t_s_u>
    ddcf:	0f be c0             	movsbl %al,%eax
    ddd2:	8b b5 68 fa ff ff    	mov    -0x598(%rbp),%esi
    ddd8:	89 c7                	mov    %eax,%edi
    ddda:	e8 b3 a6 ff ff       	callq  8492 <safe_lshift_func_int16_t_s_s>
    dddf:	0f bf d0             	movswl %ax,%edx
    dde2:	8b 85 00 fc ff ff    	mov    -0x400(%rbp),%eax
    dde8:	39 c2                	cmp    %eax,%edx
    ddea:	0f 9d c0             	setge  %al
    dded:	0f b6 c0             	movzbl %al,%eax
    ddf0:	be 00 00 00 00       	mov    $0x0,%esi
    ddf5:	89 c7                	mov    %eax,%edi
    ddf7:	e8 7e b0 ff ff       	callq  8e7a <safe_rshift_func_uint16_t_u_u>
    ddfc:	48 8b 05 9d 6c 01 00 	mov    0x16c9d(%rip),%rax        # 24aa0 <g_726>
    de03:	48 8b 00             	mov    (%rax),%rax
    de06:	48 ba 04 4c 8e 3a a1 	movabs $0xcbe81ea13a8e4c04,%rdx
    de0d:	1e e8 cb 
    de10:	48 39 d0             	cmp    %rdx,%rax
    de13:	0f 97 c0             	seta   %al
    de16:	0f b6 c0             	movzbl %al,%eax
    de19:	89 85 94 fa ff ff    	mov    %eax,-0x56c(%rbp)
    de1f:	8b 85 94 fa ff ff    	mov    -0x56c(%rbp),%eax
    de25:	0f b6 c0             	movzbl %al,%eax
    de28:	44 89 fe             	mov    %r15d,%esi
    de2b:	89 c7                	mov    %eax,%edi
    de2d:	e8 61 ad ff ff       	callq  8b93 <safe_mul_func_uint8_t_u_u>
    de32:	0f b6 c0             	movzbl %al,%eax
    de35:	48 8b 95 f0 fa ff ff 	mov    -0x510(%rbp),%rdx
    de3c:	31 d0                	xor    %edx,%eax
    de3e:	98                   	cwtl   
    de3f:	8b b5 6c fa ff ff    	mov    -0x594(%rbp),%esi
    de45:	89 c7                	mov    %eax,%edi
    de47:	e8 17 a7 ff ff       	callq  8563 <safe_rshift_func_int16_t_s_u>
    de4c:	8b 85 ac fa ff ff    	mov    -0x554(%rbp),%eax
    de52:	0f b6 c0             	movzbl %al,%eax
    de55:	44 89 f6             	mov    %r14d,%esi
    de58:	89 c7                	mov    %eax,%edi
    de5a:	e8 7c ad ff ff       	callq  8bdb <safe_div_func_uint8_t_u_u>
    de5f:	0f b6 c0             	movzbl %al,%eax
    de62:	be 08 00 00 00       	mov    $0x8,%esi
    de67:	89 c7                	mov    %eax,%edi
    de69:	e8 6d ad ff ff       	callq  8bdb <safe_div_func_uint8_t_u_u>
    de6e:	0f b6 c0             	movzbl %al,%eax
    de71:	39 85 a8 fa ff ff    	cmp    %eax,-0x558(%rbp)
    de77:	0f 9e c0             	setle  %al
    de7a:	0f b6 c0             	movzbl %al,%eax
    de7d:	44 89 ee             	mov    %r13d,%esi
    de80:	89 c7                	mov    %eax,%edi
    de82:	e8 aa a3 ff ff       	callq  8231 <safe_mod_func_int8_t_s_s>
    de87:	84 c0                	test   %al,%al
    de89:	74 07                	je     de92 <func_20+0xbc7>
    de8b:	b8 01 00 00 00       	mov    $0x1,%eax
    de90:	eb 05                	jmp    de97 <func_20+0xbcc>
    de92:	b8 00 00 00 00       	mov    $0x0,%eax
    de97:	89 c2                	mov    %eax,%edx
    de99:	0f b6 45 c2          	movzbl -0x3e(%rbp),%eax
    de9d:	0f b6 c0             	movzbl %al,%eax
    dea0:	31 d0                	xor    %edx,%eax
    dea2:	98                   	cwtl   
    dea3:	44 89 e6             	mov    %r12d,%esi
    dea6:	89 c7                	mov    %eax,%edi
    dea8:	e8 06 a5 ff ff       	callq  83b3 <safe_add_func_int16_t_s_s>
    dead:	b8 01 00 00 00       	mov    $0x1,%eax
    deb2:	89 de                	mov    %ebx,%esi
    deb4:	89 c7                	mov    %eax,%edi
    deb6:	e8 6a b0 ff ff       	callq  8f25 <safe_div_func_uint32_t_u_u>
    debb:	83 f8 01             	cmp    $0x1,%eax
    debe:	0f 97 c0             	seta   %al
    dec1:	0f b6 d0             	movzbl %al,%edx
    dec4:	0f b6 85 78 fa ff ff 	movzbl -0x588(%rbp),%eax
    decb:	09 d0                	or     %edx,%eax
    decd:	be 90 63 6c 83       	mov    $0x836c6390,%esi
    ded2:	89 c7                	mov    %eax,%edi
    ded4:	e8 24 b0 ff ff       	callq  8efd <safe_mod_func_uint32_t_u_u>
    ded9:	0f b6 85 78 fa ff ff 	movzbl -0x588(%rbp),%eax
    dee0:	be 4b 83 00 00       	mov    $0x834b,%esi
    dee5:	89 c7                	mov    %eax,%edi
    dee7:	e8 51 ae ff ff       	callq  8d3d <safe_mul_func_uint16_t_u_u>
    deec:	0a 85 78 fa ff ff    	or     -0x588(%rbp),%al
    def2:	0f be c0             	movsbl %al,%eax
    def5:	be 94 ff ff ff       	mov    $0xffffff94,%esi
    defa:	89 c7                	mov    %eax,%edi
    defc:	e8 f1 a2 ff ff       	callq  81f2 <safe_sub_func_int8_t_s_s>
    df01:	0f be d0             	movsbl %al,%edx
    df04:	0f b6 85 78 fa ff ff 	movzbl -0x588(%rbp),%eax
    df0b:	31 d0                	xor    %edx,%eax
    df0d:	21 85 98 fa ff ff    	and    %eax,-0x568(%rbp)
    df13:	0f b6 95 78 fa ff ff 	movzbl -0x588(%rbp),%edx
    df1a:	48 8b 85 18 fb ff ff 	mov    -0x4e8(%rbp),%rax
    df21:	48 89 85 00 fb ff ff 	mov    %rax,-0x500(%rbp)
    df28:	48 83 bd 00 fb ff ff 	cmpq   $0x0,-0x500(%rbp)
    df2f:	00 
    df30:	0f 95 c0             	setne  %al
    df33:	0f b6 c0             	movzbl %al,%eax
    df36:	21 c2                	and    %eax,%edx
    df38:	48 8b 85 d0 fa ff ff 	mov    -0x530(%rbp),%rax
    df3f:	48 8b 00             	mov    (%rax),%rax
    df42:	0f b7 00             	movzwl (%rax),%eax
    df45:	89 c1                	mov    %eax,%ecx
    df47:	89 d0                	mov    %edx,%eax
    df49:	09 c1                	or     %eax,%ecx
    df4b:	89 ca                	mov    %ecx,%edx
    df4d:	48 8b 85 d0 fa ff ff 	mov    -0x530(%rbp),%rax
    df54:	48 8b 00             	mov    (%rax),%rax
    df57:	66 89 10             	mov    %dx,(%rax)
    df5a:	0f b7 05 69 4d 01 00 	movzwl 0x14d69(%rip),%eax        # 22cca <g_1177+0xa>
    df61:	98                   	cwtl   
    df62:	8b 95 94 fa ff ff    	mov    -0x56c(%rbp),%edx
    df68:	89 d6                	mov    %edx,%esi
    df6a:	89 c7                	mov    %eax,%edi
    df6c:	e8 21 a5 ff ff       	callq  8492 <safe_lshift_func_int16_t_s_s>
    df71:	ba 00 00 00 00       	mov    $0x0,%edx
    df76:	8b 85 9c fb ff ff    	mov    -0x464(%rbp),%eax
    df7c:	21 d0                	and    %edx,%eax
    df7e:	89 85 9c fb ff ff    	mov    %eax,-0x464(%rbp)
    df84:	8b 85 94 fa ff ff    	mov    -0x56c(%rbp),%eax
    df8a:	83 c8 05             	or     $0x5,%eax
    df8d:	48 63 d0             	movslq %eax,%rdx
    df90:	48 8b 85 88 fa ff ff 	mov    -0x578(%rbp),%rax
    df97:	8b 00                	mov    (%rax),%eax
    df99:	31 c2                	xor    %eax,%edx
    df9b:	48 8b 85 88 fa ff ff 	mov    -0x578(%rbp),%rax
    dfa2:	89 10                	mov    %edx,(%rax)
    dfa4:	8b 05 0a 54 01 00    	mov    0x1540a(%rip),%eax        # 233b4 <g_2852>
    dfaa:	0f be c0             	movsbl %al,%eax
    dfad:	be 09 00 00 00       	mov    $0x9,%esi
    dfb2:	89 c7                	mov    %eax,%edi
    dfb4:	e8 39 a2 ff ff       	callq  81f2 <safe_sub_func_int8_t_s_s>
    dfb9:	0f be c0             	movsbl %al,%eax
    dfbc:	89 05 f2 53 01 00    	mov    %eax,0x153f2(%rip)        # 233b4 <g_2852>
    dfc2:	8b 05 ec 53 01 00    	mov    0x153ec(%rip),%eax        # 233b4 <g_2852>
    dfc8:	83 f8 08             	cmp    $0x8,%eax
    dfcb:	0f 86 fb f9 ff ff    	jbe    d9cc <func_20+0x701>
    dfd1:	48 8b 85 70 fa ff ff 	mov    -0x590(%rbp),%rax
    dfd8:	eb 4e                	jmp    e028 <func_20+0xd5d>
    dfda:	48 8b 05 77 4a 01 00 	mov    0x14a77(%rip),%rax        # 22a58 <g_286>
    dfe1:	48 85 c0             	test   %rax,%rax
    dfe4:	74 05                	je     dfeb <func_20+0xd20>
    dfe6:	e9 9a f3 ff ff       	jmpq   d385 <func_20+0xba>
    dfeb:	0f b6 05 56 4a 01 00 	movzbl 0x14a56(%rip),%eax        # 22a48 <g_228>
    dff2:	83 e8 01             	sub    $0x1,%eax
    dff5:	88 05 4d 4a 01 00    	mov    %al,0x14a4d(%rip)        # 22a48 <g_228>
    dffb:	0f b6 05 46 4a 01 00 	movzbl 0x14a46(%rip),%eax        # 22a48 <g_228>
    e002:	3c 18                	cmp    $0x18,%al
    e004:	0f 8e ae f3 ff ff    	jle    d3b8 <func_20+0xed>
    e00a:	eb 01                	jmp    e00d <func_20+0xd42>
    e00c:	90                   	nop
    e00d:	48 8b 85 08 fb ff ff 	mov    -0x4f8(%rbp),%rax
    e014:	48 8b 95 70 fa ff ff 	mov    -0x590(%rbp),%rdx
    e01b:	48 89 10             	mov    %rdx,(%rax)
    e01e:	48 8b 85 08 fb ff ff 	mov    -0x4f8(%rbp),%rax
    e025:	48 8b 00             	mov    (%rax),%rax
    e028:	48 8b 5d c8          	mov    -0x38(%rbp),%rbx
    e02c:	64 48 33 1c 25 28 00 	xor    %fs:0x28,%rbx
    e033:	00 00 
    e035:	74 05                	je     e03c <func_20+0xd71>
    e037:	e8 34 a0 ff ff       	callq  8070 <__stack_chk_fail@plt>
    e03c:	48 81 c4 78 05 00 00 	add    $0x578,%rsp
    e043:	5b                   	pop    %rbx
    e044:	41 5c                	pop    %r12
    e046:	41 5d                	pop    %r13
    e048:	41 5e                	pop    %r14
    e04a:	41 5f                	pop    %r15
    e04c:	5d                   	pop    %rbp
    e04d:	c3                   	retq   

000000000000e04e <func_28>:
    e04e:	f3 0f 1e fa          	endbr64 
    e052:	55                   	push   %rbp
    e053:	48 89 e5             	mov    %rsp,%rbp
    e056:	41 57                	push   %r15
    e058:	41 56                	push   %r14
    e05a:	41 55                	push   %r13
    e05c:	41 54                	push   %r12
    e05e:	53                   	push   %rbx
    e05f:	48 81 ec 00 10 00 00 	sub    $0x1000,%rsp
    e066:	48 83 0c 24 00       	orq    $0x0,(%rsp)
    e06b:	48 81 ec a8 04 00 00 	sub    $0x4a8,%rsp
    e072:	48 89 bd 38 eb ff ff 	mov    %rdi,-0x14c8(%rbp)
    e079:	89 b5 34 eb ff ff    	mov    %esi,-0x14cc(%rbp)
    e07f:	64 48 8b 04 25 28 00 	mov    %fs:0x28,%rax
    e086:	00 00 
    e088:	48 89 45 c8          	mov    %rax,-0x38(%rbp)
    e08c:	31 c0                	xor    %eax,%eax
    e08e:	c7 85 5c eb ff ff 38 	movl   $0x6f3d1338,-0x14a4(%rbp)
    e095:	13 3d 6f 
    e098:	c7 85 8c eb ff ff f9 	movl   $0xfffffff9,-0x1474(%rbp)
    e09f:	ff ff ff 
    e0a2:	c7 85 90 eb ff ff 86 	movl   $0x97d25486,-0x1470(%rbp)
    e0a9:	54 d2 97 
    e0ac:	48 8d 05 ed 6c 01 00 	lea    0x16ced(%rip),%rax        # 24da0 <g_1322+0x20>
    e0b3:	48 89 85 60 ed ff ff 	mov    %rax,-0x12a0(%rbp)
    e0ba:	48 8d 05 bf 52 01 00 	lea    0x152bf(%rip),%rax        # 23380 <g_2519>
    e0c1:	48 89 85 68 ed ff ff 	mov    %rax,-0x1298(%rbp)
    e0c8:	48 8d 05 59 6d 01 00 	lea    0x16d59(%rip),%rax        # 24e28 <g_2550>
    e0cf:	48 89 85 70 ed ff ff 	mov    %rax,-0x1290(%rbp)
    e0d6:	66 c7 85 d0 ee ff ff 	movw   $0xb423,-0x1130(%rbp)
    e0dd:	23 b4 
    e0df:	66 c7 85 d2 ee ff ff 	movw   $0xb423,-0x112e(%rbp)
    e0e6:	23 b4 
    e0e8:	66 c7 85 d4 ee ff ff 	movw   $0xb423,-0x112c(%rbp)
    e0ef:	23 b4 
    e0f1:	66 c7 85 d6 ee ff ff 	movw   $0xb423,-0x112a(%rbp)
    e0f8:	23 b4 
    e0fa:	66 c7 85 d8 ee ff ff 	movw   $0xb423,-0x1128(%rbp)
    e101:	23 b4 
    e103:	66 c7 85 da ee ff ff 	movw   $0xb423,-0x1126(%rbp)
    e10a:	23 b4 
    e10c:	66 c7 85 dc ee ff ff 	movw   $0xb423,-0x1124(%rbp)
    e113:	23 b4 
    e115:	66 c7 85 de ee ff ff 	movw   $0xb423,-0x1122(%rbp)
    e11c:	23 b4 
    e11e:	66 c7 85 e0 ee ff ff 	movw   $0xb423,-0x1120(%rbp)
    e125:	23 b4 
    e127:	66 c7 85 e2 ee ff ff 	movw   $0xb423,-0x111e(%rbp)
    e12e:	23 b4 
    e130:	48 8d 05 79 69 01 00 	lea    0x16979(%rip),%rax        # 24ab0 <g_1144>
    e137:	48 89 85 28 ec ff ff 	mov    %rax,-0x13d8(%rbp)
    e13e:	48 8d 05 eb 84 01 00 	lea    0x184eb(%rip),%rax        # 26630 <g_2185>
    e145:	48 89 85 78 ed ff ff 	mov    %rax,-0x1288(%rbp)
    e14c:	48 8d 05 5d 4b 01 00 	lea    0x14b5d(%rip),%rax        # 22cb0 <g_1128+0x70>
    e153:	48 89 85 c0 ec ff ff 	mov    %rax,-0x1340(%rbp)
    e15a:	48 c7 85 80 ed ff ff 	movq   $0x6,-0x1280(%rbp)
    e161:	06 00 00 00 
    e165:	c6 85 4a eb ff ff 00 	movb   $0x0,-0x14b6(%rbp)
    e16c:	48 b8 95 84 37 7e 1b 	movabs $0x4c07311b7e378495,%rax
    e173:	31 07 4c 
    e176:	48 89 85 58 ed ff ff 	mov    %rax,-0x12a8(%rbp)
    e17d:	48 c7 85 10 ef ff ff 	movq   $0x0,-0x10f0(%rbp)
    e184:	00 00 00 00 
    e188:	48 8d 05 52 48 01 00 	lea    0x14852(%rip),%rax        # 229e1 <g_15>
    e18f:	48 89 85 18 ef ff ff 	mov    %rax,-0x10e8(%rbp)
    e196:	48 8d 05 44 48 01 00 	lea    0x14844(%rip),%rax        # 229e1 <g_15>
    e19d:	48 89 85 20 ef ff ff 	mov    %rax,-0x10e0(%rbp)
    e1a4:	48 c7 85 28 ef ff ff 	movq   $0x0,-0x10d8(%rbp)
    e1ab:	00 00 00 00 
    e1af:	48 8d 05 2b 48 01 00 	lea    0x1482b(%rip),%rax        # 229e1 <g_15>
    e1b6:	48 89 85 30 ef ff ff 	mov    %rax,-0x10d0(%rbp)
    e1bd:	48 8d 05 1d 48 01 00 	lea    0x1481d(%rip),%rax        # 229e1 <g_15>
    e1c4:	48 89 85 38 ef ff ff 	mov    %rax,-0x10c8(%rbp)
    e1cb:	48 c7 85 40 ef ff ff 	movq   $0x0,-0x10c0(%rbp)
    e1d2:	00 00 00 00 
    e1d6:	48 8d 85 10 ef ff ff 	lea    -0x10f0(%rbp),%rax
    e1dd:	48 83 c0 28          	add    $0x28,%rax
    e1e1:	48 89 85 30 ec ff ff 	mov    %rax,-0x13d0(%rbp)
    e1e8:	48 8d 85 30 ec ff ff 	lea    -0x13d0(%rbp),%rax
    e1ef:	48 89 85 10 f7 ff ff 	mov    %rax,-0x8f0(%rbp)
    e1f6:	48 8d 85 30 ec ff ff 	lea    -0x13d0(%rbp),%rax
    e1fd:	48 89 85 18 f7 ff ff 	mov    %rax,-0x8e8(%rbp)
    e204:	48 8d 85 30 ec ff ff 	lea    -0x13d0(%rbp),%rax
    e20b:	48 89 85 20 f7 ff ff 	mov    %rax,-0x8e0(%rbp)
    e212:	48 8d 85 30 ec ff ff 	lea    -0x13d0(%rbp),%rax
    e219:	48 89 85 28 f7 ff ff 	mov    %rax,-0x8d8(%rbp)
    e220:	48 8d 85 30 ec ff ff 	lea    -0x13d0(%rbp),%rax
    e227:	48 89 85 30 f7 ff ff 	mov    %rax,-0x8d0(%rbp)
    e22e:	48 8d 85 30 ec ff ff 	lea    -0x13d0(%rbp),%rax
    e235:	48 89 85 38 f7 ff ff 	mov    %rax,-0x8c8(%rbp)
    e23c:	48 8d 85 30 ec ff ff 	lea    -0x13d0(%rbp),%rax
    e243:	48 89 85 40 f7 ff ff 	mov    %rax,-0x8c0(%rbp)
    e24a:	48 8d 85 30 ec ff ff 	lea    -0x13d0(%rbp),%rax
    e251:	48 89 85 48 f7 ff ff 	mov    %rax,-0x8b8(%rbp)
    e258:	48 8d 85 30 ec ff ff 	lea    -0x13d0(%rbp),%rax
    e25f:	48 89 85 50 f7 ff ff 	mov    %rax,-0x8b0(%rbp)
    e266:	48 8d 85 30 ec ff ff 	lea    -0x13d0(%rbp),%rax
    e26d:	48 89 85 58 f7 ff ff 	mov    %rax,-0x8a8(%rbp)
    e274:	48 8d 85 30 ec ff ff 	lea    -0x13d0(%rbp),%rax
    e27b:	48 89 85 60 f7 ff ff 	mov    %rax,-0x8a0(%rbp)
    e282:	48 8d 85 30 ec ff ff 	lea    -0x13d0(%rbp),%rax
    e289:	48 89 85 68 f7 ff ff 	mov    %rax,-0x898(%rbp)
    e290:	48 8d 85 30 ec ff ff 	lea    -0x13d0(%rbp),%rax
    e297:	48 89 85 70 f7 ff ff 	mov    %rax,-0x890(%rbp)
    e29e:	48 8d 85 30 ec ff ff 	lea    -0x13d0(%rbp),%rax
    e2a5:	48 89 85 78 f7 ff ff 	mov    %rax,-0x888(%rbp)
    e2ac:	48 8d 85 30 ec ff ff 	lea    -0x13d0(%rbp),%rax
    e2b3:	48 89 85 80 f7 ff ff 	mov    %rax,-0x880(%rbp)
    e2ba:	48 8d 85 30 ec ff ff 	lea    -0x13d0(%rbp),%rax
    e2c1:	48 89 85 88 f7 ff ff 	mov    %rax,-0x878(%rbp)
    e2c8:	48 8d 85 30 ec ff ff 	lea    -0x13d0(%rbp),%rax
    e2cf:	48 89 85 90 f7 ff ff 	mov    %rax,-0x870(%rbp)
    e2d6:	48 8d 85 30 ec ff ff 	lea    -0x13d0(%rbp),%rax
    e2dd:	48 89 85 98 f7 ff ff 	mov    %rax,-0x868(%rbp)
    e2e4:	48 8d 85 30 ec ff ff 	lea    -0x13d0(%rbp),%rax
    e2eb:	48 89 85 a0 f7 ff ff 	mov    %rax,-0x860(%rbp)
    e2f2:	48 8d 85 30 ec ff ff 	lea    -0x13d0(%rbp),%rax
    e2f9:	48 89 85 a8 f7 ff ff 	mov    %rax,-0x858(%rbp)
    e300:	48 8d 85 30 ec ff ff 	lea    -0x13d0(%rbp),%rax
    e307:	48 89 85 b0 f7 ff ff 	mov    %rax,-0x850(%rbp)
    e30e:	48 8d 85 30 ec ff ff 	lea    -0x13d0(%rbp),%rax
    e315:	48 89 85 b8 f7 ff ff 	mov    %rax,-0x848(%rbp)
    e31c:	48 8d 85 30 ec ff ff 	lea    -0x13d0(%rbp),%rax
    e323:	48 89 85 c0 f7 ff ff 	mov    %rax,-0x840(%rbp)
    e32a:	48 8d 85 30 ec ff ff 	lea    -0x13d0(%rbp),%rax
    e331:	48 89 85 c8 f7 ff ff 	mov    %rax,-0x838(%rbp)
    e338:	48 8d 85 30 ec ff ff 	lea    -0x13d0(%rbp),%rax
    e33f:	48 89 85 d0 f7 ff ff 	mov    %rax,-0x830(%rbp)
    e346:	48 8d 85 30 ec ff ff 	lea    -0x13d0(%rbp),%rax
    e34d:	48 89 85 d8 f7 ff ff 	mov    %rax,-0x828(%rbp)
    e354:	48 8d 85 30 ec ff ff 	lea    -0x13d0(%rbp),%rax
    e35b:	48 89 85 e0 f7 ff ff 	mov    %rax,-0x820(%rbp)
    e362:	48 8d 85 30 ec ff ff 	lea    -0x13d0(%rbp),%rax
    e369:	48 89 85 e8 f7 ff ff 	mov    %rax,-0x818(%rbp)
    e370:	48 8d 85 30 ec ff ff 	lea    -0x13d0(%rbp),%rax
    e377:	48 89 85 f0 f7 ff ff 	mov    %rax,-0x810(%rbp)
    e37e:	48 8d 85 30 ec ff ff 	lea    -0x13d0(%rbp),%rax
    e385:	48 89 85 f8 f7 ff ff 	mov    %rax,-0x808(%rbp)
    e38c:	48 8d 85 30 ec ff ff 	lea    -0x13d0(%rbp),%rax
    e393:	48 89 85 00 f8 ff ff 	mov    %rax,-0x800(%rbp)
    e39a:	48 8d 85 30 ec ff ff 	lea    -0x13d0(%rbp),%rax
    e3a1:	48 89 85 08 f8 ff ff 	mov    %rax,-0x7f8(%rbp)
    e3a8:	48 8d 85 30 ec ff ff 	lea    -0x13d0(%rbp),%rax
    e3af:	48 89 85 10 f8 ff ff 	mov    %rax,-0x7f0(%rbp)
    e3b6:	48 8d 85 30 ec ff ff 	lea    -0x13d0(%rbp),%rax
    e3bd:	48 89 85 18 f8 ff ff 	mov    %rax,-0x7e8(%rbp)
    e3c4:	48 8d 85 30 ec ff ff 	lea    -0x13d0(%rbp),%rax
    e3cb:	48 89 85 20 f8 ff ff 	mov    %rax,-0x7e0(%rbp)
    e3d2:	48 8d 85 30 ec ff ff 	lea    -0x13d0(%rbp),%rax
    e3d9:	48 89 85 28 f8 ff ff 	mov    %rax,-0x7d8(%rbp)
    e3e0:	48 8d 85 30 ec ff ff 	lea    -0x13d0(%rbp),%rax
    e3e7:	48 89 85 30 f8 ff ff 	mov    %rax,-0x7d0(%rbp)
    e3ee:	48 8d 85 30 ec ff ff 	lea    -0x13d0(%rbp),%rax
    e3f5:	48 89 85 38 f8 ff ff 	mov    %rax,-0x7c8(%rbp)
    e3fc:	48 8d 85 30 ec ff ff 	lea    -0x13d0(%rbp),%rax
    e403:	48 89 85 40 f8 ff ff 	mov    %rax,-0x7c0(%rbp)
    e40a:	48 8d 85 30 ec ff ff 	lea    -0x13d0(%rbp),%rax
    e411:	48 89 85 48 f8 ff ff 	mov    %rax,-0x7b8(%rbp)
    e418:	48 8d 85 30 ec ff ff 	lea    -0x13d0(%rbp),%rax
    e41f:	48 89 85 50 f8 ff ff 	mov    %rax,-0x7b0(%rbp)
    e426:	48 8d 85 30 ec ff ff 	lea    -0x13d0(%rbp),%rax
    e42d:	48 89 85 58 f8 ff ff 	mov    %rax,-0x7a8(%rbp)
    e434:	48 8d 85 30 ec ff ff 	lea    -0x13d0(%rbp),%rax
    e43b:	48 89 85 60 f8 ff ff 	mov    %rax,-0x7a0(%rbp)
    e442:	48 8d 85 30 ec ff ff 	lea    -0x13d0(%rbp),%rax
    e449:	48 89 85 68 f8 ff ff 	mov    %rax,-0x798(%rbp)
    e450:	48 8d 85 30 ec ff ff 	lea    -0x13d0(%rbp),%rax
    e457:	48 89 85 70 f8 ff ff 	mov    %rax,-0x790(%rbp)
    e45e:	48 8d 85 30 ec ff ff 	lea    -0x13d0(%rbp),%rax
    e465:	48 89 85 78 f8 ff ff 	mov    %rax,-0x788(%rbp)
    e46c:	48 8d 85 30 ec ff ff 	lea    -0x13d0(%rbp),%rax
    e473:	48 89 85 80 f8 ff ff 	mov    %rax,-0x780(%rbp)
    e47a:	48 8d 85 30 ec ff ff 	lea    -0x13d0(%rbp),%rax
    e481:	48 89 85 88 f8 ff ff 	mov    %rax,-0x778(%rbp)
    e488:	48 8d 85 30 ec ff ff 	lea    -0x13d0(%rbp),%rax
    e48f:	48 89 85 90 f8 ff ff 	mov    %rax,-0x770(%rbp)
    e496:	48 8d 85 30 ec ff ff 	lea    -0x13d0(%rbp),%rax
    e49d:	48 89 85 98 f8 ff ff 	mov    %rax,-0x768(%rbp)
    e4a4:	48 8d 85 30 ec ff ff 	lea    -0x13d0(%rbp),%rax
    e4ab:	48 89 85 a0 f8 ff ff 	mov    %rax,-0x760(%rbp)
    e4b2:	48 8d 85 30 ec ff ff 	lea    -0x13d0(%rbp),%rax
    e4b9:	48 89 85 a8 f8 ff ff 	mov    %rax,-0x758(%rbp)
    e4c0:	48 8d 85 30 ec ff ff 	lea    -0x13d0(%rbp),%rax
    e4c7:	48 89 85 b0 f8 ff ff 	mov    %rax,-0x750(%rbp)
    e4ce:	48 8d 85 30 ec ff ff 	lea    -0x13d0(%rbp),%rax
    e4d5:	48 89 85 b8 f8 ff ff 	mov    %rax,-0x748(%rbp)
    e4dc:	48 8d 85 30 ec ff ff 	lea    -0x13d0(%rbp),%rax
    e4e3:	48 89 85 c0 f8 ff ff 	mov    %rax,-0x740(%rbp)
    e4ea:	48 8d 85 30 ec ff ff 	lea    -0x13d0(%rbp),%rax
    e4f1:	48 89 85 c8 f8 ff ff 	mov    %rax,-0x738(%rbp)
    e4f8:	48 8d 85 30 ec ff ff 	lea    -0x13d0(%rbp),%rax
    e4ff:	48 89 85 d0 f8 ff ff 	mov    %rax,-0x730(%rbp)
    e506:	48 8d 85 30 ec ff ff 	lea    -0x13d0(%rbp),%rax
    e50d:	48 89 85 d8 f8 ff ff 	mov    %rax,-0x728(%rbp)
    e514:	48 8d 85 30 ec ff ff 	lea    -0x13d0(%rbp),%rax
    e51b:	48 89 85 e0 f8 ff ff 	mov    %rax,-0x720(%rbp)
    e522:	48 8d 85 30 ec ff ff 	lea    -0x13d0(%rbp),%rax
    e529:	48 89 85 e8 f8 ff ff 	mov    %rax,-0x718(%rbp)
    e530:	48 8d 85 30 ec ff ff 	lea    -0x13d0(%rbp),%rax
    e537:	48 89 85 f0 f8 ff ff 	mov    %rax,-0x710(%rbp)
    e53e:	48 8d 85 30 ec ff ff 	lea    -0x13d0(%rbp),%rax
    e545:	48 89 85 f8 f8 ff ff 	mov    %rax,-0x708(%rbp)
    e54c:	48 8d 85 30 ec ff ff 	lea    -0x13d0(%rbp),%rax
    e553:	48 89 85 00 f9 ff ff 	mov    %rax,-0x700(%rbp)
    e55a:	48 8d 85 30 ec ff ff 	lea    -0x13d0(%rbp),%rax
    e561:	48 89 85 08 f9 ff ff 	mov    %rax,-0x6f8(%rbp)
    e568:	48 8d 85 30 ec ff ff 	lea    -0x13d0(%rbp),%rax
    e56f:	48 89 85 10 f9 ff ff 	mov    %rax,-0x6f0(%rbp)
    e576:	48 8d 85 30 ec ff ff 	lea    -0x13d0(%rbp),%rax
    e57d:	48 89 85 18 f9 ff ff 	mov    %rax,-0x6e8(%rbp)
    e584:	48 8d 85 30 ec ff ff 	lea    -0x13d0(%rbp),%rax
    e58b:	48 89 85 20 f9 ff ff 	mov    %rax,-0x6e0(%rbp)
    e592:	48 8d 85 30 ec ff ff 	lea    -0x13d0(%rbp),%rax
    e599:	48 89 85 28 f9 ff ff 	mov    %rax,-0x6d8(%rbp)
    e5a0:	48 8d 85 30 ec ff ff 	lea    -0x13d0(%rbp),%rax
    e5a7:	48 89 85 30 f9 ff ff 	mov    %rax,-0x6d0(%rbp)
    e5ae:	48 8d 85 30 ec ff ff 	lea    -0x13d0(%rbp),%rax
    e5b5:	48 89 85 38 f9 ff ff 	mov    %rax,-0x6c8(%rbp)
    e5bc:	48 8d 85 30 ec ff ff 	lea    -0x13d0(%rbp),%rax
    e5c3:	48 89 85 40 f9 ff ff 	mov    %rax,-0x6c0(%rbp)
    e5ca:	48 8d 85 30 ec ff ff 	lea    -0x13d0(%rbp),%rax
    e5d1:	48 89 85 48 f9 ff ff 	mov    %rax,-0x6b8(%rbp)
    e5d8:	48 8d 85 30 ec ff ff 	lea    -0x13d0(%rbp),%rax
    e5df:	48 89 85 50 f9 ff ff 	mov    %rax,-0x6b0(%rbp)
    e5e6:	48 8d 85 30 ec ff ff 	lea    -0x13d0(%rbp),%rax
    e5ed:	48 89 85 58 f9 ff ff 	mov    %rax,-0x6a8(%rbp)
    e5f4:	48 8d 85 30 ec ff ff 	lea    -0x13d0(%rbp),%rax
    e5fb:	48 89 85 60 f9 ff ff 	mov    %rax,-0x6a0(%rbp)
    e602:	48 8d 85 30 ec ff ff 	lea    -0x13d0(%rbp),%rax
    e609:	48 89 85 68 f9 ff ff 	mov    %rax,-0x698(%rbp)
    e610:	48 8d 85 30 ec ff ff 	lea    -0x13d0(%rbp),%rax
    e617:	48 89 85 70 f9 ff ff 	mov    %rax,-0x690(%rbp)
    e61e:	48 8d 85 30 ec ff ff 	lea    -0x13d0(%rbp),%rax
    e625:	48 89 85 78 f9 ff ff 	mov    %rax,-0x688(%rbp)
    e62c:	48 8d 85 30 ec ff ff 	lea    -0x13d0(%rbp),%rax
    e633:	48 89 85 80 f9 ff ff 	mov    %rax,-0x680(%rbp)
    e63a:	48 8d 85 30 ec ff ff 	lea    -0x13d0(%rbp),%rax
    e641:	48 89 85 88 f9 ff ff 	mov    %rax,-0x678(%rbp)
    e648:	48 8d 85 30 ec ff ff 	lea    -0x13d0(%rbp),%rax
    e64f:	48 89 85 90 f9 ff ff 	mov    %rax,-0x670(%rbp)
    e656:	48 8d 85 30 ec ff ff 	lea    -0x13d0(%rbp),%rax
    e65d:	48 89 85 98 f9 ff ff 	mov    %rax,-0x668(%rbp)
    e664:	48 8d 85 30 ec ff ff 	lea    -0x13d0(%rbp),%rax
    e66b:	48 89 85 a0 f9 ff ff 	mov    %rax,-0x660(%rbp)
    e672:	48 8d 85 30 ec ff ff 	lea    -0x13d0(%rbp),%rax
    e679:	48 89 85 a8 f9 ff ff 	mov    %rax,-0x658(%rbp)
    e680:	48 8d 85 30 ec ff ff 	lea    -0x13d0(%rbp),%rax
    e687:	48 89 85 b0 f9 ff ff 	mov    %rax,-0x650(%rbp)
    e68e:	48 8d 85 30 ec ff ff 	lea    -0x13d0(%rbp),%rax
    e695:	48 89 85 b8 f9 ff ff 	mov    %rax,-0x648(%rbp)
    e69c:	48 8d 85 30 ec ff ff 	lea    -0x13d0(%rbp),%rax
    e6a3:	48 89 85 c0 f9 ff ff 	mov    %rax,-0x640(%rbp)
    e6aa:	48 8d 85 30 ec ff ff 	lea    -0x13d0(%rbp),%rax
    e6b1:	48 89 85 c8 f9 ff ff 	mov    %rax,-0x638(%rbp)
    e6b8:	48 8d 85 30 ec ff ff 	lea    -0x13d0(%rbp),%rax
    e6bf:	48 89 85 d0 f9 ff ff 	mov    %rax,-0x630(%rbp)
    e6c6:	48 8d 85 30 ec ff ff 	lea    -0x13d0(%rbp),%rax
    e6cd:	48 89 85 d8 f9 ff ff 	mov    %rax,-0x628(%rbp)
    e6d4:	48 8d 85 10 f7 ff ff 	lea    -0x8f0(%rbp),%rax
    e6db:	48 83 c0 48          	add    $0x48,%rax
    e6df:	48 89 85 50 ed ff ff 	mov    %rax,-0x12b0(%rbp)
    e6e6:	48 8d 05 03 62 01 00 	lea    0x16203(%rip),%rax        # 248f0 <g_450>
    e6ed:	48 89 85 38 ec ff ff 	mov    %rax,-0x13c8(%rbp)
    e6f4:	48 c7 85 50 ef ff ff 	movq   $0x0,-0x10b0(%rbp)
    e6fb:	00 00 00 00 
    e6ff:	48 8d 85 38 ec ff ff 	lea    -0x13c8(%rbp),%rax
    e706:	48 89 85 58 ef ff ff 	mov    %rax,-0x10a8(%rbp)
    e70d:	48 c7 85 60 ef ff ff 	movq   $0x0,-0x10a0(%rbp)
    e714:	00 00 00 00 
    e718:	48 8d 85 38 ec ff ff 	lea    -0x13c8(%rbp),%rax
    e71f:	48 89 85 68 ef ff ff 	mov    %rax,-0x1098(%rbp)
    e726:	48 c7 85 70 ef ff ff 	movq   $0x0,-0x1090(%rbp)
    e72d:	00 00 00 00 
    e731:	48 8d 85 38 ec ff ff 	lea    -0x13c8(%rbp),%rax
    e738:	48 89 85 78 ef ff ff 	mov    %rax,-0x1088(%rbp)
    e73f:	48 c7 85 80 ef ff ff 	movq   $0x0,-0x1080(%rbp)
    e746:	00 00 00 00 
    e74a:	48 8d 85 38 ec ff ff 	lea    -0x13c8(%rbp),%rax
    e751:	48 89 85 88 ef ff ff 	mov    %rax,-0x1078(%rbp)
    e758:	48 c7 85 90 ef ff ff 	movq   $0x0,-0x1070(%rbp)
    e75f:	00 00 00 00 
    e763:	48 8d 85 50 ef ff ff 	lea    -0x10b0(%rbp),%rax
    e76a:	48 83 c0 30          	add    $0x30,%rax
    e76e:	48 89 85 28 ed ff ff 	mov    %rax,-0x12d8(%rbp)
    e775:	48 8d 05 24 66 01 00 	lea    0x16624(%rip),%rax        # 24da0 <g_1322+0x20>
    e77c:	48 89 85 40 ec ff ff 	mov    %rax,-0x13c0(%rbp)
    e783:	48 8d 85 40 ec ff ff 	lea    -0x13c0(%rbp),%rax
    e78a:	48 89 85 30 ed ff ff 	mov    %rax,-0x12d0(%rbp)
    e791:	48 c7 85 38 ed ff ff 	movq   $0x0,-0x12c8(%rbp)
    e798:	00 00 00 00 
    e79c:	48 c7 85 40 ed ff ff 	movq   $0x0,-0x12c0(%rbp)
    e7a3:	00 00 00 00 
    e7a7:	48 8d 05 46 4d 01 00 	lea    0x14d46(%rip),%rax        # 234f4 <g_2934>
    e7ae:	48 89 85 48 ed ff ff 	mov    %rax,-0x12b8(%rbp)
    e7b5:	48 8d 85 00 f1 ff ff 	lea    -0xf00(%rbp),%rax
    e7bc:	48 8d 15 7d e8 00 00 	lea    0xe87d(%rip),%rdx        # 1d040 <g_4277+0xf80>
    e7c3:	b9 2a 00 00 00       	mov    $0x2a,%ecx
    e7c8:	48 89 c7             	mov    %rax,%rdi
    e7cb:	48 89 d6             	mov    %rdx,%rsi
    e7ce:	f3 48 a5             	rep movsq %ds:(%rsi),%es:(%rdi)
    e7d1:	66 c7 85 50 eb ff ff 	movw   $0xa3b8,-0x14b0(%rbp)
    e7d8:	b8 a3 
    e7da:	66 c7 85 52 eb ff ff 	movw   $0x53fd,-0x14ae(%rbp)
    e7e1:	fd 53 
    e7e3:	c7 85 94 eb ff ff 06 	movl   $0x6,-0x146c(%rbp)
    e7ea:	00 00 00 
    e7ed:	c7 85 98 eb ff ff ff 	movl   $0xffffffff,-0x1468(%rbp)
    e7f4:	ff ff ff 
    e7f7:	c7 85 9c eb ff ff fb 	movl   $0xfffffffb,-0x1464(%rbp)
    e7fe:	ff ff ff 
    e801:	48 8d 05 98 4c 01 00 	lea    0x14c98(%rip),%rax        # 234a0 <g_2933+0x60>
    e808:	48 89 85 20 ed ff ff 	mov    %rax,-0x12e0(%rbp)
    e80f:	48 b8 c4 ae d4 5b 1a 	movabs $0x65856c1a5bd4aec4,%rax
    e816:	6c 85 65 
    e819:	48 89 85 18 ed ff ff 	mov    %rax,-0x12e8(%rbp)
    e820:	48 8d 05 41 44 01 00 	lea    0x14441(%rip),%rax        # 22c68 <g_1128+0x28>
    e827:	48 89 85 00 ed ff ff 	mov    %rax,-0x1300(%rbp)
    e82e:	c7 85 84 eb ff ff ff 	movl   $0xffffffff,-0x147c(%rbp)
    e835:	ff ff ff 
    e838:	48 8d 05 53 42 01 00 	lea    0x14253(%rip),%rax        # 22a92 <g_448+0x2>
    e83f:	48 89 85 08 ed ff ff 	mov    %rax,-0x12f8(%rbp)
    e846:	48 c7 85 10 ed ff ff 	movq   $0x0,-0x12f0(%rbp)
    e84d:	00 00 00 00 
    e851:	c7 85 88 eb ff ff 00 	movl   $0x0,-0x1478(%rbp)
    e858:	00 00 00 
    e85b:	eb 1a                	jmp    e877 <func_28+0x829>
    e85d:	8b 85 88 eb ff ff    	mov    -0x1478(%rbp),%eax
    e863:	48 98                	cltq   
    e865:	c7 84 85 bc ee ff ff 	movl   $0x0,-0x1144(%rbp,%rax,4)
    e86c:	00 00 00 00 
    e870:	83 85 88 eb ff ff 01 	addl   $0x1,-0x1478(%rbp)
    e877:	83 bd 88 eb ff ff 00 	cmpl   $0x0,-0x1478(%rbp)
    e87e:	7e dd                	jle    e85d <func_28+0x80f>
    e880:	8b 85 5c eb ff ff    	mov    -0x14a4(%rbp),%eax
    e886:	0f bf d8             	movswl %ax,%ebx
    e889:	8b 85 5c eb ff ff    	mov    -0x14a4(%rbp),%eax
    e88f:	0f b7 c0             	movzwl %ax,%eax
    e892:	be 08 de 00 00       	mov    $0xde08,%esi
    e897:	89 c7                	mov    %eax,%edi
    e899:	e8 81 a4 ff ff       	callq  8d1f <safe_sub_func_uint16_t_u_u>
    e89e:	8b 85 5c eb ff ff    	mov    -0x14a4(%rbp),%eax
    e8a4:	0f b7 d0             	movzwl %ax,%edx
    e8a7:	8b 85 5c eb ff ff    	mov    -0x14a4(%rbp),%eax
    e8ad:	0f b7 c0             	movzwl %ax,%eax
    e8b0:	89 d6                	mov    %edx,%esi
    e8b2:	89 c7                	mov    %eax,%edi
    e8b4:	e8 46 a4 ff ff       	callq  8cff <safe_add_func_uint16_t_u_u>
    e8b9:	0f b7 05 d8 4a 01 00 	movzwl 0x14ad8(%rip),%eax        # 23398 <g_2568+0x8>
    e8c0:	0f b7 c0             	movzwl %ax,%eax
    e8c3:	89 85 8c eb ff ff    	mov    %eax,-0x1474(%rbp)
    e8c9:	c7 85 90 eb ff ff 00 	movl   $0x0,-0x1470(%rbp)
    e8d0:	00 00 00 
    e8d3:	8b 85 90 eb ff ff    	mov    -0x1470(%rbp),%eax
    e8d9:	0f be c0             	movsbl %al,%eax
    e8dc:	be ff ff ff ff       	mov    $0xffffffff,%esi
    e8e1:	89 c7                	mov    %eax,%edi
    e8e3:	e8 2a 99 ff ff       	callq  8212 <safe_mul_func_int8_t_s_s>
    e8e8:	89 de                	mov    %ebx,%esi
    e8ea:	bf d2 7d 00 00       	mov    $0x7dd2,%edi
    e8ef:	e8 61 9b ff ff       	callq  8455 <safe_div_func_int16_t_s_s>
    e8f4:	8b 95 bc ee ff ff    	mov    -0x1144(%rbp),%edx
    e8fa:	98                   	cwtl   
    e8fb:	09 d0                	or     %edx,%eax
    e8fd:	89 85 bc ee ff ff    	mov    %eax,-0x1144(%rbp)
    e903:	48 8b 05 96 61 01 00 	mov    0x16196(%rip),%rax        # 24aa0 <g_726>
    e90a:	48 8b 00             	mov    (%rax),%rax
    e90d:	48 85 c0             	test   %rax,%rax
    e910:	0f 94 c0             	sete   %al
    e913:	0f b6 d8             	movzbl %al,%ebx
    e916:	8b 85 5c eb ff ff    	mov    -0x14a4(%rbp),%eax
    e91c:	89 c2                	mov    %eax,%edx
    e91e:	8b 85 34 eb ff ff    	mov    -0x14cc(%rbp),%eax
    e924:	48 98                	cltq   
    e926:	89 d6                	mov    %edx,%esi
    e928:	48 89 c7             	mov    %rax,%rdi
    e92b:	e8 84 34 00 00       	callq  11db4 <func_34>
    e930:	0f b6 c0             	movzbl %al,%eax
    e933:	89 de                	mov    %ebx,%esi
    e935:	89 c7                	mov    %eax,%edi
    e937:	e8 51 a3 ff ff       	callq  8c8d <safe_rshift_func_uint8_t_u_s>
    e93c:	84 c0                	test   %al,%al
    e93e:	75 08                	jne    e948 <func_28+0x8fa>
    e940:	8b 85 bc ee ff ff    	mov    -0x1144(%rbp),%eax
    e946:	85 c0                	test   %eax,%eax
    e948:	8b 85 34 eb ff ff    	mov    -0x14cc(%rbp),%eax
    e94e:	85 c0                	test   %eax,%eax
    e950:	0f 84 24 02 00 00    	je     eb7a <func_28+0xb2c>
    e956:	c6 85 49 eb ff ff ff 	movb   $0xff,-0x14b7(%rbp)
    e95d:	48 8d 05 90 40 01 00 	lea    0x14090(%rip),%rax        # 229f4 <g_68+0x4>
    e964:	48 89 85 88 ec ff ff 	mov    %rax,-0x1378(%rbp)
    e96b:	48 8d 85 88 ec ff ff 	lea    -0x1378(%rbp),%rax
    e972:	48 89 85 90 ec ff ff 	mov    %rax,-0x1370(%rbp)
    e979:	48 8d 85 90 f4 ff ff 	lea    -0xb70(%rbp),%rax
    e980:	48 83 c0 08          	add    $0x8,%rax
    e984:	48 89 85 50 f2 ff ff 	mov    %rax,-0xdb0(%rbp)
    e98b:	48 8d 85 90 f4 ff ff 	lea    -0xb70(%rbp),%rax
    e992:	48 83 c0 08          	add    $0x8,%rax
    e996:	48 89 85 58 f2 ff ff 	mov    %rax,-0xda8(%rbp)
    e99d:	48 c7 85 d8 ec ff ff 	movq   $0x0,-0x1328(%rbp)
    e9a4:	00 00 00 00 
    e9a8:	c7 85 78 eb ff ff 15 	movl   $0x99cdd215,-0x1488(%rbp)
    e9af:	d2 cd 99 
    e9b2:	c7 85 7c eb ff ff fc 	movl   $0x393170fc,-0x1484(%rbp)
    e9b9:	70 31 39 
    e9bc:	c7 85 e0 f9 ff ff f8 	movl   $0xfffffff8,-0x620(%rbp)
    e9c3:	ff ff ff 
    e9c6:	c7 85 e4 f9 ff ff 49 	movl   $0xd6966449,-0x61c(%rbp)
    e9cd:	64 96 d6 
    e9d0:	c7 85 e8 f9 ff ff 77 	movl   $0x34923877,-0x618(%rbp)
    e9d7:	38 92 34 
    e9da:	c7 85 ec f9 ff ff e2 	movl   $0x9f27b3e2,-0x614(%rbp)
    e9e1:	b3 27 9f 
    e9e4:	c7 85 f0 f9 ff ff f8 	movl   $0xfffffff8,-0x610(%rbp)
    e9eb:	ff ff ff 
    e9ee:	c7 85 f4 f9 ff ff 77 	movl   $0x34923877,-0x60c(%rbp)
    e9f5:	38 92 34 
    e9f8:	c7 85 f8 f9 ff ff f8 	movl   $0xfffffff8,-0x608(%rbp)
    e9ff:	ff ff ff 
    ea02:	c7 85 fc f9 ff ff 1d 	movl   $0x60e531d,-0x604(%rbp)
    ea09:	53 0e 06 
    ea0c:	c7 85 00 fa ff ff 49 	movl   $0xd6966449,-0x600(%rbp)
    ea13:	64 96 d6 
    ea16:	c7 85 04 fa ff ff e2 	movl   $0x9f27b3e2,-0x5fc(%rbp)
    ea1d:	b3 27 9f 
    ea20:	c7 85 08 fa ff ff 1d 	movl   $0x60e531d,-0x5f8(%rbp)
    ea27:	53 0e 06 
    ea2a:	c7 85 0c fa ff ff 1d 	movl   $0x60e531d,-0x5f4(%rbp)
    ea31:	53 0e 06 
    ea34:	c7 85 10 fa ff ff 77 	movl   $0x34923877,-0x5f0(%rbp)
    ea3b:	38 92 34 
    ea3e:	c7 85 14 fa ff ff 77 	movl   $0x34923877,-0x5ec(%rbp)
    ea45:	38 92 34 
    ea48:	c7 85 18 fa ff ff fa 	movl   $0xfffffffa,-0x5e8(%rbp)
    ea4f:	ff ff ff 
    ea52:	c7 85 1c fa ff ff e2 	movl   $0x9f27b3e2,-0x5e4(%rbp)
    ea59:	b3 27 9f 
    ea5c:	c7 85 20 fa ff ff e2 	movl   $0x9f27b3e2,-0x5e0(%rbp)
    ea63:	b3 27 9f 
    ea66:	c7 85 24 fa ff ff 49 	movl   $0xd6966449,-0x5dc(%rbp)
    ea6d:	64 96 d6 
    ea70:	c7 85 28 fa ff ff fa 	movl   $0xfffffffa,-0x5d8(%rbp)
    ea77:	ff ff ff 
    ea7a:	c7 85 2c fa ff ff 49 	movl   $0xd6966449,-0x5d4(%rbp)
    ea81:	64 96 d6 
    ea84:	c7 85 30 fa ff ff 77 	movl   $0x34923877,-0x5d0(%rbp)
    ea8b:	38 92 34 
    ea8e:	c7 85 34 fa ff ff f8 	movl   $0xfffffff8,-0x5cc(%rbp)
    ea95:	ff ff ff 
    ea98:	c7 85 38 fa ff ff 1d 	movl   $0x60e531d,-0x5c8(%rbp)
    ea9f:	53 0e 06 
    eaa2:	c7 85 3c fa ff ff fa 	movl   $0xfffffffa,-0x5c4(%rbp)
    eaa9:	ff ff ff 
    eaac:	48 8d 05 5d 63 01 00 	lea    0x1635d(%rip),%rax        # 24e10 <g_2506+0x10>
    eab3:	48 89 85 a8 ec ff ff 	mov    %rax,-0x1358(%rbp)
    eaba:	48 8d 85 90 ec ff ff 	lea    -0x1370(%rbp),%rax
    eac1:	48 89 85 98 ec ff ff 	mov    %rax,-0x1368(%rbp)
    eac8:	48 8d 85 98 ec ff ff 	lea    -0x1368(%rbp),%rax
    eacf:	48 89 85 a0 ec ff ff 	mov    %rax,-0x1360(%rbp)
    ead6:	48 8d 85 a0 ec ff ff 	lea    -0x1360(%rbp),%rax
    eadd:	48 89 85 b0 ec ff ff 	mov    %rax,-0x1350(%rbp)
    eae4:	48 8d 05 c5 7a 01 00 	lea    0x17ac5(%rip),%rax        # 265b0 <g_783>
    eaeb:	48 89 85 b8 ec ff ff 	mov    %rax,-0x1348(%rbp)
    eaf2:	66 c7 85 90 f0 ff ff 	movw   $0x5966,-0xf70(%rbp)
    eaf9:	66 59 
    eafb:	66 c7 85 92 f0 ff ff 	movw   $0x5966,-0xf6e(%rbp)
    eb02:	66 59 
    eb04:	66 c7 85 94 f0 ff ff 	movw   $0x5966,-0xf6c(%rbp)
    eb0b:	66 59 
    eb0d:	66 c7 85 96 f0 ff ff 	movw   $0x5966,-0xf6a(%rbp)
    eb14:	66 59 
    eb16:	c7 85 60 eb ff ff b0 	movl   $0x8fb492b0,-0x14a0(%rbp)
    eb1d:	92 b4 8f 
    eb20:	c7 85 64 eb ff ff 00 	movl   $0x0,-0x149c(%rbp)
    eb27:	00 00 00 
    eb2a:	c7 85 68 eb ff ff 00 	movl   $0x0,-0x1498(%rbp)
    eb31:	00 00 00 
    eb34:	c6 85 47 eb ff ff ff 	movb   $0xff,-0x14b9(%rbp)
    eb3b:	c6 85 48 eb ff ff 01 	movb   $0x1,-0x14b8(%rbp)
    eb42:	c7 85 6c eb ff ff 00 	movl   $0x0,-0x1494(%rbp)
    eb49:	00 00 00 
    eb4c:	eb 1e                	jmp    eb6c <func_28+0xb1e>
    eb4e:	8b 85 6c eb ff ff    	mov    -0x1494(%rbp),%eax
    eb54:	48 98                	cltq   
    eb56:	48 8d 95 90 ec ff ff 	lea    -0x1370(%rbp),%rdx
    eb5d:	48 89 94 c5 90 f4 ff 	mov    %rdx,-0xb70(%rbp,%rax,8)
    eb64:	ff 
    eb65:	83 85 6c eb ff ff 01 	addl   $0x1,-0x1494(%rbp)
    eb6c:	83 bd 6c eb ff ff 05 	cmpl   $0x5,-0x1494(%rbp)
    eb73:	7e d9                	jle    eb4e <func_28+0xb00>
    eb75:	e9 c5 02 00 00       	jmpq   ee3f <func_28+0xdf1>
    eb7a:	48 b8 46 0b ee 8e d0 	movabs $0x587198d08eee0b46,%rax
    eb81:	98 71 58 
    eb84:	48 89 85 f8 ec ff ff 	mov    %rax,-0x1308(%rbp)
    eb8b:	c7 05 b7 47 01 00 07 	movl   $0x7,0x147b7(%rip)        # 2334c <g_1920>
    eb92:	00 00 00 
    eb95:	e9 13 02 00 00       	jmpq   edad <func_28+0xd5f>
    eb9a:	48 c7 85 e0 ec ff ff 	movq   $0x0,-0x1320(%rbp)
    eba1:	00 00 00 00 
    eba5:	48 8d 85 90 f4 ff ff 	lea    -0xb70(%rbp),%rax
    ebac:	48 8d 15 2d 53 01 00 	lea    0x1532d(%rip),%rdx        # 23ee0 <g_4621+0x982>
    ebb3:	b9 38 00 00 00       	mov    $0x38,%ecx
    ebb8:	48 89 c7             	mov    %rax,%rdi
    ebbb:	48 89 d6             	mov    %rdx,%rsi
    ebbe:	f3 48 a5             	rep movsq %ds:(%rsi),%es:(%rdi)
    ebc1:	c7 85 80 eb ff ff 70 	movl   $0x90c5ac70,-0x1480(%rbp)
    ebc8:	ac c5 90 
    ebcb:	48 b8 fe b6 f1 bc 80 	movabs $0x77375d80bcf1b6fe,%rax
    ebd2:	5d 37 77 
    ebd5:	48 89 85 e8 ec ff ff 	mov    %rax,-0x1318(%rbp)
    ebdc:	48 8d 85 e0 f9 ff ff 	lea    -0x620(%rbp),%rax
    ebe3:	48 8d 15 b6 e5 00 00 	lea    0xe5b6(%rip),%rdx        # 1d1a0 <g_4277+0x10e0>
    ebea:	b9 7e 00 00 00       	mov    $0x7e,%ecx
    ebef:	48 89 c7             	mov    %rax,%rdi
    ebf2:	48 89 d6             	mov    %rdx,%rsi
    ebf5:	f3 48 a5             	rep movsq %ds:(%rsi),%es:(%rdi)
    ebf8:	48 8d 05 e9 5c 01 00 	lea    0x15ce9(%rip),%rax        # 248e8 <g_451>
    ebff:	48 89 85 f0 ec ff ff 	mov    %rax,-0x1310(%rbp)
    ec06:	48 8d 05 db 3e 01 00 	lea    0x13edb(%rip),%rax        # 22ae8 <g_519+0x28>
    ec0d:	48 89 85 98 ec ff ff 	mov    %rax,-0x1368(%rbp)
    ec14:	48 8d 85 98 ec ff ff 	lea    -0x1368(%rbp),%rax
    ec1b:	48 89 85 a0 ec ff ff 	mov    %rax,-0x1360(%rbp)
    ec22:	48 8d 85 a0 ec ff ff 	lea    -0x1360(%rbp),%rax
    ec29:	48 89 85 50 f2 ff ff 	mov    %rax,-0xdb0(%rbp)
    ec30:	48 8d 85 a0 ec ff ff 	lea    -0x1360(%rbp),%rax
    ec37:	48 89 85 58 f2 ff ff 	mov    %rax,-0xda8(%rbp)
    ec3e:	48 8d 85 a0 ec ff ff 	lea    -0x1360(%rbp),%rax
    ec45:	48 89 85 60 f2 ff ff 	mov    %rax,-0xda0(%rbp)
    ec4c:	48 8d 85 a0 ec ff ff 	lea    -0x1360(%rbp),%rax
    ec53:	48 89 85 68 f2 ff ff 	mov    %rax,-0xd98(%rbp)
    ec5a:	48 8d 85 a0 ec ff ff 	lea    -0x1360(%rbp),%rax
    ec61:	48 89 85 70 f2 ff ff 	mov    %rax,-0xd90(%rbp)
    ec68:	48 8d 85 a0 ec ff ff 	lea    -0x1360(%rbp),%rax
    ec6f:	48 89 85 78 f2 ff ff 	mov    %rax,-0xd88(%rbp)
    ec76:	8b 85 34 eb ff ff    	mov    -0x14cc(%rbp),%eax
    ec7c:	0f b7 d8             	movzwl %ax,%ebx
    ec7f:	48 8b 85 e8 ec ff ff 	mov    -0x1318(%rbp),%rax
    ec86:	41 89 c4             	mov    %eax,%r12d
    ec89:	8b 85 5c eb ff ff    	mov    -0x14a4(%rbp),%eax
    ec8f:	41 89 c5             	mov    %eax,%r13d
    ec92:	8b 85 34 eb ff ff    	mov    -0x14cc(%rbp),%eax
    ec98:	0f b7 c8             	movzwl %ax,%ecx
    ec9b:	8b 85 34 eb ff ff    	mov    -0x14cc(%rbp),%eax
    eca1:	48 98                	cltq   
    eca3:	48 8b 95 e0 ec ff ff 	mov    -0x1320(%rbp),%rdx
    ecaa:	89 ce                	mov    %ecx,%esi
    ecac:	48 89 c7             	mov    %rax,%rdi
    ecaf:	e8 38 b0 00 00       	callq  19cec <func_55>
    ecb4:	48 8d 15 6d 5c 01 00 	lea    0x15c6d(%rip),%rdx        # 24928 <g_670+0x28>
    ecbb:	48 8b 12             	mov    (%rdx),%rdx
    ecbe:	48 39 d0             	cmp    %rdx,%rax
    ecc1:	0f 95 c0             	setne  %al
    ecc4:	89 c2                	mov    %eax,%edx
    ecc6:	48 8b 85 38 eb ff ff 	mov    -0x14c8(%rbp),%rax
    eccd:	88 10                	mov    %dl,(%rax)
    eccf:	48 8b 85 38 eb ff ff 	mov    -0x14c8(%rbp),%rax
    ecd6:	0f b6 00             	movzbl (%rax),%eax
    ecd9:	0f be c0             	movsbl %al,%eax
    ecdc:	be 87 ff ff ff       	mov    $0xffffff87,%esi
    ece1:	89 c7                	mov    %eax,%edi
    ece3:	e8 2a 95 ff ff       	callq  8212 <safe_mul_func_int8_t_s_s>
    ece8:	0f be c0             	movsbl %al,%eax
    eceb:	89 85 80 eb ff ff    	mov    %eax,-0x1480(%rbp)
    ecf1:	8b 85 80 eb ff ff    	mov    -0x1480(%rbp),%eax
    ecf7:	0f b6 c0             	movzbl %al,%eax
    ecfa:	44 89 ee             	mov    %r13d,%esi
    ecfd:	89 c7                	mov    %eax,%edi
    ecff:	e8 ba 9f ff ff       	callq  8cbe <safe_rshift_func_uint8_t_u_u>
    ed04:	0f b6 c0             	movzbl %al,%eax
    ed07:	be 05 00 00 00       	mov    $0x5,%esi
    ed0c:	89 c7                	mov    %eax,%edi
    ed0e:	e8 9b 9e ff ff       	callq  8bae <safe_mod_func_uint8_t_u_u>
    ed13:	0f b6 d0             	movzbl %al,%edx
    ed16:	8b 85 34 eb ff ff    	mov    -0x14cc(%rbp),%eax
    ed1c:	09 d0                	or     %edx,%eax
    ed1e:	48 98                	cltq   
    ed20:	48 39 85 e8 ec ff ff 	cmp    %rax,-0x1318(%rbp)
    ed27:	0f 93 c0             	setae  %al
    ed2a:	0f b6 d0             	movzbl %al,%edx
    ed2d:	8b 85 90 eb ff ff    	mov    -0x1470(%rbp),%eax
    ed33:	0f b6 c0             	movzbl %al,%eax
    ed36:	89 d6                	mov    %edx,%esi
    ed38:	89 c7                	mov    %eax,%edi
    ed3a:	e8 0d 9f ff ff       	callq  8c4c <safe_lshift_func_uint8_t_u_u>
    ed3f:	0f be c0             	movsbl %al,%eax
    ed42:	44 89 e6             	mov    %r12d,%esi
    ed45:	89 c7                	mov    %eax,%edi
    ed47:	e8 55 95 ff ff       	callq  82a1 <safe_lshift_func_int8_t_s_s>
    ed4c:	66 98                	cbtw   
    ed4e:	0f b7 c0             	movzwl %ax,%eax
    ed51:	89 de                	mov    %ebx,%esi
    ed53:	89 c7                	mov    %eax,%edi
    ed55:	e8 e3 9f ff ff       	callq  8d3d <safe_mul_func_uint16_t_u_u>
    ed5a:	0f b7 d0             	movzwl %ax,%edx
    ed5d:	8b 85 34 eb ff ff    	mov    -0x14cc(%rbp),%eax
    ed63:	21 d0                	and    %edx,%eax
    ed65:	48 98                	cltq   
    ed67:	48 39 85 f8 ec ff ff 	cmp    %rax,-0x1308(%rbp)
    ed6e:	0f 95 c0             	setne  %al
    ed71:	0f b6 d0             	movzbl %al,%edx
    ed74:	8b 85 40 fa ff ff    	mov    -0x5c0(%rbp),%eax
    ed7a:	31 d0                	xor    %edx,%eax
    ed7c:	89 85 40 fa ff ff    	mov    %eax,-0x5c0(%rbp)
    ed82:	48 8b 85 f0 ec ff ff 	mov    -0x1310(%rbp),%rax
    ed89:	48 8d 95 34 eb ff ff 	lea    -0x14cc(%rbp),%rdx
    ed90:	48 89 10             	mov    %rdx,(%rax)
    ed93:	48 c7 05 a2 60 01 00 	movq   $0x0,0x160a2(%rip)        # 24e40 <g_2822>
    ed9a:	00 00 00 00 
    ed9e:	8b 05 a8 45 01 00    	mov    0x145a8(%rip),%eax        # 2334c <g_1920>
    eda4:	83 c0 01             	add    $0x1,%eax
    eda7:	89 05 9f 45 01 00    	mov    %eax,0x1459f(%rip)        # 2334c <g_1920>
    edad:	8b 05 99 45 01 00    	mov    0x14599(%rip),%eax        # 2334c <g_1920>
    edb3:	83 f8 0d             	cmp    $0xd,%eax
    edb6:	0f 85 de fd ff ff    	jne    eb9a <func_28+0xb4c>
    edbc:	c7 05 62 78 01 00 00 	movl   $0x0,0x17862(%rip)        # 26628 <g_2142>
    edc3:	00 00 00 
    edc6:	eb 6c                	jmp    ee34 <func_28+0xde6>
    edc8:	c7 05 de 45 01 00 00 	movl   $0x0,0x145de(%rip)        # 233b0 <g_2664>
    edcf:	00 00 00 
    edd2:	eb 46                	jmp    ee1a <func_28+0xdcc>
    edd4:	8b 05 4e 78 01 00    	mov    0x1784e(%rip),%eax        # 26628 <g_2142>
    edda:	8b 15 d0 45 01 00    	mov    0x145d0(%rip),%edx        # 233b0 <g_2664>
    ede0:	89 d1                	mov    %edx,%ecx
    ede2:	48 63 d0             	movslq %eax,%rdx
    ede5:	48 89 d0             	mov    %rdx,%rax
    ede8:	48 01 c0             	add    %rax,%rax
    edeb:	48 01 d0             	add    %rdx,%rax
    edee:	48 01 c8             	add    %rcx,%rax
    edf1:	48 8d 14 c5 00 00 00 	lea    0x0(,%rax,8),%rdx
    edf8:	00 
    edf9:	48 8d 05 e0 5b 01 00 	lea    0x15be0(%rip),%rax        # 249e0 <g_681>
    ee00:	48 8d 0d c9 5b 01 00 	lea    0x15bc9(%rip),%rcx        # 249d0 <g_682>
    ee07:	48 89 0c 02          	mov    %rcx,(%rdx,%rax,1)
    ee0b:	8b 05 9f 45 01 00    	mov    0x1459f(%rip),%eax        # 233b0 <g_2664>
    ee11:	83 c0 01             	add    $0x1,%eax
    ee14:	89 05 96 45 01 00    	mov    %eax,0x14596(%rip)        # 233b0 <g_2664>
    ee1a:	8b 05 90 45 01 00    	mov    0x14590(%rip),%eax        # 233b0 <g_2664>
    ee20:	83 f8 02             	cmp    $0x2,%eax
    ee23:	76 af                	jbe    edd4 <func_28+0xd86>
    ee25:	8b 05 fd 77 01 00    	mov    0x177fd(%rip),%eax        # 26628 <g_2142>
    ee2b:	83 c0 01             	add    $0x1,%eax
    ee2e:	89 05 f4 77 01 00    	mov    %eax,0x177f4(%rip)        # 26628 <g_2142>
    ee34:	8b 05 ee 77 01 00    	mov    0x177ee(%rip),%eax        # 26628 <g_2142>
    ee3a:	83 f8 07             	cmp    $0x7,%eax
    ee3d:	7e 89                	jle    edc8 <func_28+0xd7a>
    ee3f:	48 8d 85 bc ee ff ff 	lea    -0x1144(%rbp),%rax
    ee46:	48 89 85 c0 ec ff ff 	mov    %rax,-0x1340(%rbp)
    ee4d:	48 8b 05 e4 5f 01 00 	mov    0x15fe4(%rip),%rax        # 24e38 <g_2823>
    ee54:	48 8b 10             	mov    (%rax),%rdx
    ee57:	48 8b 85 c0 ec ff ff 	mov    -0x1340(%rbp),%rax
    ee5e:	8b 00                	mov    (%rax),%eax
    ee60:	48 98                	cltq   
    ee62:	48 39 c2             	cmp    %rax,%rdx
    ee65:	0f 8e a2 2c 00 00    	jle    11b0d <func_28+0x3abf>
    ee6b:	48 c7 85 f0 ef ff ff 	movq   $0xffffffffffffffff,-0x1010(%rbp)
    ee72:	ff ff ff ff 
    ee76:	48 b8 81 47 3b 6c c2 	movabs $0x18faf0c26c3b4781,%rax
    ee7d:	f0 fa 18 
    ee80:	48 89 85 f8 ef ff ff 	mov    %rax,-0x1008(%rbp)
    ee87:	48 89 85 00 f0 ff ff 	mov    %rax,-0x1000(%rbp)
    ee8e:	48 c7 85 08 f0 ff ff 	movq   $0xffffffffffffffff,-0xff8(%rbp)
    ee95:	ff ff ff ff 
    ee99:	48 89 85 10 f0 ff ff 	mov    %rax,-0xff0(%rbp)
    eea0:	48 89 85 18 f0 ff ff 	mov    %rax,-0xfe8(%rbp)
    eea7:	48 c7 85 20 f0 ff ff 	movq   $0xffffffffffffffff,-0xfe0(%rbp)
    eeae:	ff ff ff ff 
    eeb2:	48 89 85 28 f0 ff ff 	mov    %rax,-0xfd8(%rbp)
    eeb9:	48 89 85 30 f0 ff ff 	mov    %rax,-0xfd0(%rbp)
    eec0:	48 c7 85 38 f0 ff ff 	movq   $0xffffffffffffffff,-0xfc8(%rbp)
    eec7:	ff ff ff ff 
    eecb:	48 c7 85 88 ed ff ff 	movq   $0x0,-0x1278(%rbp)
    eed2:	00 00 00 00 
    eed6:	48 8d 05 90 44 01 00 	lea    0x14490(%rip),%rax        # 2336d <g_2134+0x5>
    eedd:	48 89 85 90 ed ff ff 	mov    %rax,-0x1270(%rbp)
    eee4:	48 8d 05 17 3b 01 00 	lea    0x13b17(%rip),%rax        # 22a02 <g_88>
    eeeb:	48 89 85 48 ec ff ff 	mov    %rax,-0x13b8(%rbp)
    eef2:	48 c7 85 98 ed ff ff 	movq   $0x0,-0x1268(%rbp)
    eef9:	00 00 00 00 
    eefd:	48 8d 05 9c 5b 01 00 	lea    0x15b9c(%rip),%rax        # 24aa0 <g_726>
    ef04:	48 89 85 a0 ed ff ff 	mov    %rax,-0x1260(%rbp)
    ef0b:	48 c7 85 50 ec ff ff 	movq   $0x0,-0x13b0(%rbp)
    ef12:	00 00 00 00 
    ef16:	48 c7 85 a0 ef ff ff 	movq   $0x1,-0x1060(%rbp)
    ef1d:	01 00 00 00 
    ef21:	48 b8 8a 44 33 23 21 	movabs $0x8f0dcb212333448a,%rax
    ef28:	cb 0d 8f 
    ef2b:	48 89 85 a8 ef ff ff 	mov    %rax,-0x1058(%rbp)
    ef32:	48 c7 85 b0 ef ff ff 	movq   $0x1,-0x1050(%rbp)
    ef39:	01 00 00 00 
    ef3d:	48 c7 85 b8 ef ff ff 	movq   $0x1,-0x1048(%rbp)
    ef44:	01 00 00 00 
    ef48:	48 89 85 c0 ef ff ff 	mov    %rax,-0x1040(%rbp)
    ef4f:	48 c7 85 c8 ef ff ff 	movq   $0x1,-0x1038(%rbp)
    ef56:	01 00 00 00 
    ef5a:	48 c7 85 d0 ef ff ff 	movq   $0x1,-0x1030(%rbp)
    ef61:	01 00 00 00 
    ef65:	48 89 85 d8 ef ff ff 	mov    %rax,-0x1028(%rbp)
    ef6c:	48 c7 85 e0 ef ff ff 	movq   $0x1,-0x1020(%rbp)
    ef73:	01 00 00 00 
    ef77:	c7 85 b0 eb ff ff f6 	movl   $0xfffffff6,-0x1450(%rbp)
    ef7e:	ff ff ff 
    ef81:	c7 85 b4 eb ff ff f7 	movl   $0xfffffff7,-0x144c(%rbp)
    ef88:	ff ff ff 
    ef8b:	48 8d 05 86 76 01 00 	lea    0x17686(%rip),%rax        # 26618 <g_1702>
    ef92:	48 89 85 58 ec ff ff 	mov    %rax,-0x13a8(%rbp)
    ef99:	48 8d 85 58 ec ff ff 	lea    -0x13a8(%rbp),%rax
    efa0:	48 89 85 60 ec ff ff 	mov    %rax,-0x13a0(%rbp)
    efa7:	66 c7 85 54 eb ff ff 	movw   $0x8,-0x14ac(%rbp)
    efae:	08 00 
    efb0:	48 c7 85 68 ec ff ff 	movq   $0x0,-0x1398(%rbp)
    efb7:	00 00 00 00 
    efbb:	48 8d 05 3e 76 01 00 	lea    0x1763e(%rip),%rax        # 26600 <g_1323>
    efc2:	48 89 85 40 f0 ff ff 	mov    %rax,-0xfc0(%rbp)
    efc9:	48 8d 05 30 76 01 00 	lea    0x17630(%rip),%rax        # 26600 <g_1323>
    efd0:	48 89 85 48 f0 ff ff 	mov    %rax,-0xfb8(%rbp)
    efd7:	48 8d 05 22 76 01 00 	lea    0x17622(%rip),%rax        # 26600 <g_1323>
    efde:	48 89 85 50 f0 ff ff 	mov    %rax,-0xfb0(%rbp)
    efe5:	48 8d 05 14 76 01 00 	lea    0x17614(%rip),%rax        # 26600 <g_1323>
    efec:	48 89 85 58 f0 ff ff 	mov    %rax,-0xfa8(%rbp)
    eff3:	48 8d 05 06 76 01 00 	lea    0x17606(%rip),%rax        # 26600 <g_1323>
    effa:	48 89 85 60 f0 ff ff 	mov    %rax,-0xfa0(%rbp)
    f001:	48 8d 05 f8 75 01 00 	lea    0x175f8(%rip),%rax        # 26600 <g_1323>
    f008:	48 89 85 68 f0 ff ff 	mov    %rax,-0xf98(%rbp)
    f00f:	48 8d 05 ea 75 01 00 	lea    0x175ea(%rip),%rax        # 26600 <g_1323>
    f016:	48 89 85 70 f0 ff ff 	mov    %rax,-0xf90(%rbp)
    f01d:	48 8d 05 dc 75 01 00 	lea    0x175dc(%rip),%rax        # 26600 <g_1323>
    f024:	48 89 85 78 f0 ff ff 	mov    %rax,-0xf88(%rbp)
    f02b:	48 8d 05 ce 75 01 00 	lea    0x175ce(%rip),%rax        # 26600 <g_1323>
    f032:	48 89 85 80 f0 ff ff 	mov    %rax,-0xf80(%rbp)
    f039:	48 8d 05 c0 75 01 00 	lea    0x175c0(%rip),%rax        # 26600 <g_1323>
    f040:	48 89 85 88 f0 ff ff 	mov    %rax,-0xf78(%rbp)
    f047:	48 8d 05 9a 75 01 00 	lea    0x1759a(%rip),%rax        # 265e8 <g_1254+0x8>
    f04e:	48 89 85 a8 ed ff ff 	mov    %rax,-0x1258(%rbp)
    f055:	c7 85 ac eb ff ff 00 	movl   $0x0,-0x1454(%rbp)
    f05c:	00 00 00 
    f05f:	eb 1e                	jmp    f07f <func_28+0x1031>
    f061:	8b 85 ac eb ff ff    	mov    -0x1454(%rbp),%eax
    f067:	48 98                	cltq   
    f069:	48 8d 15 38 75 01 00 	lea    0x17538(%rip),%rdx        # 265a8 <g_342>
    f070:	48 89 94 c5 c0 ee ff 	mov    %rdx,-0x1140(%rbp,%rax,8)
    f077:	ff 
    f078:	83 85 ac eb ff ff 01 	addl   $0x1,-0x1454(%rbp)
    f07f:	83 bd ac eb ff ff 01 	cmpl   $0x1,-0x1454(%rbp)
    f086:	7e d9                	jle    f061 <func_28+0x1013>
    f088:	48 8b 85 10 f0 ff ff 	mov    -0xff0(%rbp),%rax
    f08f:	48 83 e8 01          	sub    $0x1,%rax
    f093:	48 89 85 10 f0 ff ff 	mov    %rax,-0xff0(%rbp)
    f09a:	48 8b 05 af 5d 01 00 	mov    0x15daf(%rip),%rax        # 24e50 <g_2831>
    f0a1:	48 89 05 a8 5d 01 00 	mov    %rax,0x15da8(%rip)        # 24e50 <g_2831>
    f0a8:	48 8b 05 a1 5d 01 00 	mov    0x15da1(%rip),%rax        # 24e50 <g_2831>
    f0af:	48 8d 15 ca 2b 01 00 	lea    0x12bca(%rip),%rdx        # 21c80 <g_669>
    f0b6:	48 39 d0             	cmp    %rdx,%rax
    f0b9:	8b 9d 34 eb ff ff    	mov    -0x14cc(%rbp),%ebx
    f0bf:	48 8d 05 82 39 01 00 	lea    0x13982(%rip),%rax        # 22a48 <g_228>
    f0c6:	0f b6 00             	movzbl (%rax),%eax
    f0c9:	44 0f be e0          	movsbl %al,%r12d
    f0cd:	8b 85 34 eb ff ff    	mov    -0x14cc(%rbp),%eax
    f0d3:	48 98                	cltq   
    f0d5:	48 c7 c6 fb ff ff ff 	mov    $0xfffffffffffffffb,%rsi
    f0dc:	48 89 c7             	mov    %rax,%rdi
    f0df:	e8 cb 9f ff ff       	callq  90af <safe_div_func_uint64_t_u_u>
    f0e4:	0f b7 d0             	movzwl %ax,%edx
    f0e7:	48 8b 85 90 ed ff ff 	mov    -0x1270(%rbp),%rax
    f0ee:	0f b6 00             	movzbl (%rax),%eax
    f0f1:	8d 48 01             	lea    0x1(%rax),%ecx
    f0f4:	48 8b 85 90 ed ff ff 	mov    -0x1270(%rbp),%rax
    f0fb:	88 08                	mov    %cl,(%rax)
    f0fd:	48 8b 85 c0 ec ff ff 	mov    -0x1340(%rbp),%rax
    f104:	8b 08                	mov    (%rax),%ecx
    f106:	8b 85 34 eb ff ff    	mov    -0x14cc(%rbp),%eax
    f10c:	3d 20 83 00 00       	cmp    $0x8320,%eax
    f111:	0f 95 c0             	setne  %al
    f114:	0f b6 c0             	movzbl %al,%eax
    f117:	39 c1                	cmp    %eax,%ecx
    f119:	0f 9d c0             	setge  %al
    f11c:	0f b6 c0             	movzbl %al,%eax
    f11f:	89 d6                	mov    %edx,%esi
    f121:	89 c7                	mov    %eax,%edi
    f123:	e8 15 9c ff ff       	callq  8d3d <safe_mul_func_uint16_t_u_u>
    f128:	66 83 f8 06          	cmp    $0x6,%ax
    f12c:	76 0a                	jbe    f138 <func_28+0x10ea>
    f12e:	8b 85 34 eb ff ff    	mov    -0x14cc(%rbp),%eax
    f134:	85 c0                	test   %eax,%eax
    f136:	74 07                	je     f13f <func_28+0x10f1>
    f138:	b8 01 00 00 00       	mov    $0x1,%eax
    f13d:	eb 05                	jmp    f144 <func_28+0x10f6>
    f13f:	b8 00 00 00 00       	mov    $0x0,%eax
    f144:	89 c2                	mov    %eax,%edx
    f146:	48 8b 85 38 eb ff ff 	mov    -0x14c8(%rbp),%rax
    f14d:	88 10                	mov    %dl,(%rax)
    f14f:	48 8b 85 38 eb ff ff 	mov    -0x14c8(%rbp),%rax
    f156:	0f b6 00             	movzbl (%rax),%eax
    f159:	0f be c0             	movsbl %al,%eax
    f15c:	44 89 e6             	mov    %r12d,%esi
    f15f:	89 c7                	mov    %eax,%edi
    f161:	e8 6e 90 ff ff       	callq  81d4 <safe_add_func_int8_t_s_s>
    f166:	0f be d0             	movsbl %al,%edx
    f169:	8b 85 34 eb ff ff    	mov    -0x14cc(%rbp),%eax
    f16f:	39 c2                	cmp    %eax,%edx
    f171:	0f 9f c0             	setg   %al
    f174:	0f b6 c0             	movzbl %al,%eax
    f177:	09 85 90 eb ff ff    	or     %eax,-0x1470(%rbp)
    f17d:	8b 85 90 eb ff ff    	mov    -0x1470(%rbp),%eax
    f183:	89 de                	mov    %ebx,%esi
    f185:	89 c7                	mov    %eax,%edi
    f187:	e8 2a 94 ff ff       	callq  85b6 <safe_add_func_int32_t_s_s>
    f18c:	48 8d 15 b5 38 01 00 	lea    0x138b5(%rip),%rdx        # 22a48 <g_228>
    f193:	0f b6 12             	movzbl (%rdx),%edx
    f196:	0f be d2             	movsbl %dl,%edx
    f199:	39 d0                	cmp    %edx,%eax
    f19b:	0f 9c c0             	setl   %al
    f19e:	89 c2                	mov    %eax,%edx
    f1a0:	8b 85 34 eb ff ff    	mov    -0x14cc(%rbp),%eax
    f1a6:	31 d0                	xor    %edx,%eax
    f1a8:	0f be c0             	movsbl %al,%eax
    f1ab:	be 4e 00 00 00       	mov    $0x4e,%esi
    f1b0:	89 c7                	mov    %eax,%edi
    f1b2:	e8 3b 90 ff ff       	callq  81f2 <safe_sub_func_int8_t_s_s>
    f1b7:	84 c0                	test   %al,%al
    f1b9:	75 0a                	jne    f1c5 <func_28+0x1177>
    f1bb:	8b 85 34 eb ff ff    	mov    -0x14cc(%rbp),%eax
    f1c1:	85 c0                	test   %eax,%eax
    f1c3:	74 07                	je     f1cc <func_28+0x117e>
    f1c5:	b8 01 00 00 00       	mov    $0x1,%eax
    f1ca:	eb 05                	jmp    f1d1 <func_28+0x1183>
    f1cc:	b8 00 00 00 00       	mov    $0x0,%eax
    f1d1:	89 05 dd 41 01 00    	mov    %eax,0x141dd(%rip)        # 233b4 <g_2852>
    f1d7:	8b 15 d7 41 01 00    	mov    0x141d7(%rip),%edx        # 233b4 <g_2852>
    f1dd:	48 8b 85 c0 ec ff ff 	mov    -0x1340(%rbp),%rax
    f1e4:	8b 00                	mov    (%rax),%eax
    f1e6:	39 c2                	cmp    %eax,%edx
    f1e8:	72 11                	jb     f1fb <func_28+0x11ad>
    f1ea:	8b 85 34 eb ff ff    	mov    -0x14cc(%rbp),%eax
    f1f0:	85 c0                	test   %eax,%eax
    f1f2:	74 07                	je     f1fb <func_28+0x11ad>
    f1f4:	ba 01 00 00 00       	mov    $0x1,%edx
    f1f9:	eb 05                	jmp    f200 <func_28+0x11b2>
    f1fb:	ba 00 00 00 00       	mov    $0x0,%edx
    f200:	48 8b 05 41 5c 01 00 	mov    0x15c41(%rip),%rax        # 24e48 <g_2832>
    f207:	48 8b 00             	mov    (%rax),%rax
    f20a:	0f b6 00             	movzbl (%rax),%eax
    f20d:	0f be c0             	movsbl %al,%eax
    f210:	89 d6                	mov    %edx,%esi
    f212:	89 c7                	mov    %eax,%edi
    f214:	e8 1c 91 ff ff       	callq  8335 <safe_rshift_func_int8_t_s_s>
    f219:	48 8b 85 c0 ec ff ff 	mov    -0x1340(%rbp),%rax
    f220:	8b 10                	mov    (%rax),%edx
    f222:	8b 85 34 eb ff ff    	mov    -0x14cc(%rbp),%eax
    f228:	39 c2                	cmp    %eax,%edx
    f22a:	0f 95 c2             	setne  %dl
    f22d:	48 8b 85 48 ec ff ff 	mov    -0x13b8(%rbp),%rax
    f234:	88 10                	mov    %dl,(%rax)
    f236:	c7 85 b8 eb ff ff ab 	movl   $0x9c13acab,-0x1448(%rbp)
    f23d:	ac 13 9c 
    f240:	66 c7 85 56 eb ff ff 	movw   $0x56b8,-0x14aa(%rbp)
    f247:	b8 56 
    f249:	48 c7 85 98 ec ff ff 	movq   $0x0,-0x1368(%rbp)
    f250:	00 00 00 00 
    f254:	48 8d 85 98 ec ff ff 	lea    -0x1368(%rbp),%rax
    f25b:	48 89 85 b0 ed ff ff 	mov    %rax,-0x1250(%rbp)
    f262:	48 c7 85 a0 ec ff ff 	movq   $0x0,-0x1360(%rbp)
    f269:	00 00 00 00 
    f26d:	48 8d 85 a0 ec ff ff 	lea    -0x1360(%rbp),%rax
    f274:	48 89 85 b8 ed ff ff 	mov    %rax,-0x1248(%rbp)
    f27b:	48 8d 05 2e 73 01 00 	lea    0x1732e(%rip),%rax        # 265b0 <g_783>
    f282:	48 89 85 c0 ed ff ff 	mov    %rax,-0x1240(%rbp)
    f289:	66 c7 05 1a 41 01 00 	movw   $0x0,0x1411a(%rip)        # 233ac <g_2663>
    f290:	00 00 
    f292:	e9 88 00 00 00       	jmpq   f31f <func_28+0x12d1>
    f297:	48 8d 05 64 37 01 00 	lea    0x13764(%rip),%rax        # 22a02 <g_88>
    f29e:	48 89 85 98 ee ff ff 	mov    %rax,-0x1168(%rbp)
    f2a5:	c7 85 24 ec ff ff 7c 	movl   $0x1085db7c,-0x13dc(%rbp)
    f2ac:	db 85 10 
    f2af:	48 b8 d0 59 ce 94 1c 	movabs $0xd1ed1c1c94ce59d0,%rax
    f2b6:	1c ed d1 
    f2b9:	48 89 85 a0 ee ff ff 	mov    %rax,-0x1160(%rbp)
    f2c0:	66 c7 85 e0 f9 ff ff 	movw   $0xffff,-0x620(%rbp)
    f2c7:	ff ff 
    f2c9:	66 c7 85 e2 f9 ff ff 	movw   $0xffff,-0x61e(%rbp)
    f2d0:	ff ff 
    f2d2:	66 c7 85 e4 f9 ff ff 	movw   $0xffff,-0x61c(%rbp)
    f2d9:	ff ff 
    f2db:	66 c7 85 e6 f9 ff ff 	movw   $0xffff,-0x61a(%rbp)
    f2e2:	ff ff 
    f2e4:	48 8d 05 4d 5b 01 00 	lea    0x15b4d(%rip),%rax        # 24e38 <g_2823>
    f2eb:	48 89 85 a8 ee ff ff 	mov    %rax,-0x1158(%rbp)
    f2f2:	48 8d 05 07 73 01 00 	lea    0x17307(%rip),%rax        # 26600 <g_1323>
    f2f9:	48 89 85 b0 ee ff ff 	mov    %rax,-0x1150(%rbp)
    f300:	0f b7 05 a5 40 01 00 	movzwl 0x140a5(%rip),%eax        # 233ac <g_2663>
    f307:	0f be c0             	movsbl %al,%eax
    f30a:	be 04 00 00 00       	mov    $0x4,%esi
    f30f:	89 c7                	mov    %eax,%edi
    f311:	e8 dc 8e ff ff       	callq  81f2 <safe_sub_func_int8_t_s_s>
    f316:	66 98                	cbtw   
    f318:	66 89 05 8d 40 01 00 	mov    %ax,0x1408d(%rip)        # 233ac <g_2663>
    f31f:	0f b7 05 86 40 01 00 	movzwl 0x14086(%rip),%eax        # 233ac <g_2663>
    f326:	66 83 f8 e6          	cmp    $0xffe6,%ax
    f32a:	0f 85 67 ff ff ff    	jne    f297 <func_28+0x1249>
    f330:	c7 05 76 40 01 00 14 	movl   $0x14,0x14076(%rip)        # 233b0 <g_2664>
    f337:	00 00 00 
    f33a:	90                   	nop
    f33b:	8b 05 6f 40 01 00    	mov    0x1406f(%rip),%eax        # 233b0 <g_2664>
    f341:	83 f8 0e             	cmp    $0xe,%eax
    f344:	77 0c                	ja     f352 <func_28+0x1304>
    f346:	48 8b 85 50 ec ff ff 	mov    -0x13b0(%rbp),%rax
    f34d:	e9 3c 2a 00 00       	jmpq   11d8e <func_28+0x3d40>
    f352:	48 8b 85 38 eb ff ff 	mov    -0x14c8(%rbp),%rax
    f359:	0f b6 00             	movzbl (%rax),%eax
    f35c:	0f b6 d0             	movzbl %al,%edx
    f35f:	8b 85 34 eb ff ff    	mov    -0x14cc(%rbp),%eax
    f365:	0f b6 c0             	movzbl %al,%eax
    f368:	89 d6                	mov    %edx,%esi
    f36a:	89 c7                	mov    %eax,%edi
    f36c:	e8 22 98 ff ff       	callq  8b93 <safe_mul_func_uint8_t_u_u>
    f371:	0f b6 d0             	movzbl %al,%edx
    f374:	48 8b 85 38 ec ff ff 	mov    -0x13c8(%rbp),%rax
    f37b:	48 8b 00             	mov    (%rax),%rax
    f37e:	48 8b 00             	mov    (%rax),%rax
    f381:	8b 00                	mov    (%rax),%eax
    f383:	39 c2                	cmp    %eax,%edx
    f385:	0f 84 e6 18 00 00    	je     10c71 <func_28+0x2c23>
    f38b:	66 c7 85 58 eb ff ff 	movw   $0x516,-0x14a8(%rbp)
    f392:	16 05 
    f394:	48 c7 85 88 ec ff ff 	movq   $0x0,-0x1378(%rbp)
    f39b:	00 00 00 00 
    f39f:	48 8d 85 48 ec ff ff 	lea    -0x13b8(%rbp),%rax
    f3a6:	48 89 85 90 ec ff ff 	mov    %rax,-0x1370(%rbp)
    f3ad:	48 8d 05 84 5a 01 00 	lea    0x15a84(%rip),%rax        # 24e38 <g_2823>
    f3b4:	48 89 85 98 ec ff ff 	mov    %rax,-0x1368(%rbp)
    f3bb:	48 8d 85 98 ec ff ff 	lea    -0x1368(%rbp),%rax
    f3c2:	48 89 85 28 ee ff ff 	mov    %rax,-0x11d8(%rbp)
    f3c9:	48 8d 05 a0 36 01 00 	lea    0x136a0(%rip),%rax        # 22a70 <g_445>
    f3d0:	48 89 85 90 f0 ff ff 	mov    %rax,-0xf70(%rbp)
    f3d7:	48 8d 05 92 36 01 00 	lea    0x13692(%rip),%rax        # 22a70 <g_445>
    f3de:	48 89 85 98 f0 ff ff 	mov    %rax,-0xf68(%rbp)
    f3e5:	48 8d 05 84 36 01 00 	lea    0x13684(%rip),%rax        # 22a70 <g_445>
    f3ec:	48 89 85 a0 f0 ff ff 	mov    %rax,-0xf60(%rbp)
    f3f3:	48 8d 05 76 36 01 00 	lea    0x13676(%rip),%rax        # 22a70 <g_445>
    f3fa:	48 89 85 a8 f0 ff ff 	mov    %rax,-0xf58(%rbp)
    f401:	48 8d 05 68 36 01 00 	lea    0x13668(%rip),%rax        # 22a70 <g_445>
    f408:	48 89 85 b0 f0 ff ff 	mov    %rax,-0xf50(%rbp)
    f40f:	48 8d 05 5a 36 01 00 	lea    0x1365a(%rip),%rax        # 22a70 <g_445>
    f416:	48 89 85 b8 f0 ff ff 	mov    %rax,-0xf48(%rbp)
    f41d:	48 8d 05 4c 36 01 00 	lea    0x1364c(%rip),%rax        # 22a70 <g_445>
    f424:	48 89 85 c0 f0 ff ff 	mov    %rax,-0xf40(%rbp)
    f42b:	48 8d 05 82 3f 01 00 	lea    0x13f82(%rip),%rax        # 233b4 <g_2852>
    f432:	48 89 85 c8 f0 ff ff 	mov    %rax,-0xf38(%rbp)
    f439:	48 8d 05 30 36 01 00 	lea    0x13630(%rip),%rax        # 22a70 <g_445>
    f440:	48 89 85 d0 f0 ff ff 	mov    %rax,-0xf30(%rbp)
    f447:	48 8d 05 22 36 01 00 	lea    0x13622(%rip),%rax        # 22a70 <g_445>
    f44e:	48 89 85 d8 f0 ff ff 	mov    %rax,-0xf28(%rbp)
    f455:	48 8d 05 58 3f 01 00 	lea    0x13f58(%rip),%rax        # 233b4 <g_2852>
    f45c:	48 89 85 e0 f0 ff ff 	mov    %rax,-0xf20(%rbp)
    f463:	48 8d 05 06 36 01 00 	lea    0x13606(%rip),%rax        # 22a70 <g_445>
    f46a:	48 89 85 e8 f0 ff ff 	mov    %rax,-0xf18(%rbp)
    f471:	48 8d 05 f8 35 01 00 	lea    0x135f8(%rip),%rax        # 22a70 <g_445>
    f478:	48 89 85 f0 f0 ff ff 	mov    %rax,-0xf10(%rbp)
    f47f:	48 8d 05 2e 3f 01 00 	lea    0x13f2e(%rip),%rax        # 233b4 <g_2852>
    f486:	48 89 85 f8 f0 ff ff 	mov    %rax,-0xf08(%rbp)
    f48d:	48 8d 85 90 f0 ff ff 	lea    -0xf70(%rbp),%rax
    f494:	48 83 c0 08          	add    $0x8,%rax
    f498:	48 89 85 30 ee ff ff 	mov    %rax,-0x11d0(%rbp)
    f49f:	c7 85 0c ec ff ff ca 	movl   $0x913a00ca,-0x13f4(%rbp)
    f4a6:	00 3a 91 
    f4a9:	48 8d 05 10 71 01 00 	lea    0x17110(%rip),%rax        # 265c0 <g_1145>
    f4b0:	48 89 85 38 ee ff ff 	mov    %rax,-0x11c8(%rbp)
    f4b7:	48 8d 85 50 f2 ff ff 	lea    -0xdb0(%rbp),%rax
    f4be:	48 8d 15 db e0 00 00 	lea    0xe0db(%rip),%rdx        # 1d5a0 <g_4277+0x14e0>
    f4c5:	b9 48 00 00 00       	mov    $0x48,%ecx
    f4ca:	48 89 c7             	mov    %rax,%rdi
    f4cd:	48 89 d6             	mov    %rdx,%rsi
    f4d0:	f3 48 a5             	rep movsq %ds:(%rsi),%es:(%rdi)
    f4d3:	c7 85 10 ec ff ff 6b 	movl   $0xca6fcc6b,-0x13f0(%rbp)
    f4da:	cc 6f ca 
    f4dd:	c6 85 4e eb ff ff 14 	movb   $0x14,-0x14b2(%rbp)
    f4e4:	48 8d 85 30 ec ff ff 	lea    -0x13d0(%rbp),%rax
    f4eb:	48 89 85 40 ee ff ff 	mov    %rax,-0x11c0(%rbp)
    f4f2:	48 8d 05 0b 35 01 00 	lea    0x1350b(%rip),%rax        # 22a04 <g_98>
    f4f9:	48 89 85 a0 ec ff ff 	mov    %rax,-0x1360(%rbp)
    f500:	48 8d 85 a0 ec ff ff 	lea    -0x1360(%rbp),%rax
    f507:	48 89 85 48 ee ff ff 	mov    %rax,-0x11b8(%rbp)
    f50e:	48 8d 05 eb 70 01 00 	lea    0x170eb(%rip),%rax        # 26600 <g_1323>
    f515:	48 89 85 50 ee ff ff 	mov    %rax,-0x11b0(%rbp)
    f51c:	c7 85 14 ec ff ff 6e 	movl   $0x17f27a6e,-0x13ec(%rbp)
    f523:	7a f2 17 
    f526:	8b 85 34 eb ff ff    	mov    -0x14cc(%rbp),%eax
    f52c:	85 c0                	test   %eax,%eax
    f52e:	0f 95 c0             	setne  %al
    f531:	0f b6 c0             	movzbl %al,%eax
    f534:	f7 d0                	not    %eax
    f536:	89 c2                	mov    %eax,%edx
    f538:	0f bf 85 58 eb ff ff 	movswl -0x14a8(%rbp),%eax
    f53f:	39 c2                	cmp    %eax,%edx
    f541:	0f 9d c0             	setge  %al
    f544:	0f b6 c0             	movzbl %al,%eax
    f547:	48 c7 c6 ff ff ff ff 	mov    $0xffffffffffffffff,%rsi
    f54e:	48 89 c7             	mov    %rax,%rdi
    f551:	e8 eb 92 ff ff       	callq  8841 <safe_add_func_int64_t_s_s>
    f556:	48 85 c0             	test   %rax,%rax
    f559:	75 0a                	jne    f565 <func_28+0x1517>
    f55b:	8b 85 34 eb ff ff    	mov    -0x14cc(%rbp),%eax
    f561:	85 c0                	test   %eax,%eax
    f563:	74 07                	je     f56c <func_28+0x151e>
    f565:	b8 01 00 00 00       	mov    $0x1,%eax
    f56a:	eb 05                	jmp    f571 <func_28+0x1523>
    f56c:	b8 00 00 00 00       	mov    $0x0,%eax
    f571:	48 98                	cltq   
    f573:	48 be 37 52 98 dc a4 	movabs $0x6d52cda4dc985237,%rsi
    f57a:	cd 52 6d 
    f57d:	48 89 c7             	mov    %rax,%rdi
    f580:	e8 a9 9a ff ff       	callq  902e <safe_add_func_uint64_t_u_u>
    f585:	48 8b 85 90 ec ff ff 	mov    -0x1370(%rbp),%rax
    f58c:	48 8b 95 38 eb ff ff 	mov    -0x14c8(%rbp),%rdx
    f593:	48 89 10             	mov    %rdx,(%rax)
    f596:	8b 85 34 eb ff ff    	mov    -0x14cc(%rbp),%eax
    f59c:	98                   	cwtl   
    f59d:	be f8 ff ff ff       	mov    $0xfffffff8,%esi
    f5a2:	89 c7                	mov    %eax,%edi
    f5a4:	e8 0a 8e ff ff       	callq  83b3 <safe_add_func_int16_t_s_s>
    f5a9:	48 8b 95 c0 ec ff ff 	mov    -0x1340(%rbp),%rdx
    f5b0:	8b 12                	mov    (%rdx),%edx
    f5b2:	98                   	cwtl   
    f5b3:	09 c2                	or     %eax,%edx
    f5b5:	48 8b 85 c0 ec ff ff 	mov    -0x1340(%rbp),%rax
    f5bc:	89 10                	mov    %edx,(%rax)
    f5be:	8b 85 34 eb ff ff    	mov    -0x14cc(%rbp),%eax
    f5c4:	0f bf d8             	movswl %ax,%ebx
    f5c7:	48 8b 85 38 eb ff ff 	mov    -0x14c8(%rbp),%rax
    f5ce:	0f b6 00             	movzbl (%rax),%eax
    f5d1:	44 0f be e0          	movsbl %al,%r12d
    f5d5:	8b 85 34 eb ff ff    	mov    -0x14cc(%rbp),%eax
    f5db:	48 63 d0             	movslq %eax,%rdx
    f5de:	48 8b 05 53 58 01 00 	mov    0x15853(%rip),%rax        # 24e38 <g_2823>
    f5e5:	48 c7 00 00 00 00 00 	movq   $0x0,(%rax)
    f5ec:	48 8b 00             	mov    (%rax),%rax
    f5ef:	31 85 0c ec ff ff    	xor    %eax,-0x13f4(%rbp)
    f5f5:	8b 85 0c ec ff ff    	mov    -0x13f4(%rbp),%eax
    f5fb:	48 98                	cltq   
    f5fd:	48 89 d6             	mov    %rdx,%rsi
    f600:	48 89 c7             	mov    %rax,%rdi
    f603:	e8 ac 93 ff ff       	callq  89b4 <safe_mod_func_int64_t_s_s>
    f608:	0f be c0             	movsbl %al,%eax
    f60b:	be 41 00 00 00       	mov    $0x41,%esi
    f610:	89 c7                	mov    %eax,%edi
    f612:	e8 db 8b ff ff       	callq  81f2 <safe_sub_func_int8_t_s_s>
    f617:	44 0f b6 e8          	movzbl %al,%r13d
    f61b:	48 83 bd 30 ee ff ff 	cmpq   $0x0,-0x11d0(%rbp)
    f622:	00 
    f623:	0f 95 c0             	setne  %al
    f626:	0f b6 c0             	movzbl %al,%eax
    f629:	be 02 00 00 00       	mov    $0x2,%esi
    f62e:	89 c7                	mov    %eax,%edi
    f630:	e8 13 98 ff ff       	callq  8e48 <safe_rshift_func_uint16_t_u_s>
    f635:	0f b6 c0             	movzbl %al,%eax
    f638:	83 e0 01             	and    $0x1,%eax
    f63b:	44 89 ee             	mov    %r13d,%esi
    f63e:	89 c7                	mov    %eax,%edi
    f640:	e8 15 95 ff ff       	callq  8b5a <safe_add_func_uint8_t_u_u>
    f645:	0f b6 c0             	movzbl %al,%eax
    f648:	44 89 e6             	mov    %r12d,%esi
    f64b:	89 c7                	mov    %eax,%edi
    f64d:	e8 3b 96 ff ff       	callq  8c8d <safe_rshift_func_uint8_t_u_s>
    f652:	48 8b 95 b8 ef ff ff 	mov    -0x1048(%rbp),%rdx
    f659:	8b 85 34 eb ff ff    	mov    -0x14cc(%rbp),%eax
    f65f:	85 c0                	test   %eax,%eax
    f661:	0f 9e c0             	setle  %al
    f664:	0f b6 c0             	movzbl %al,%eax
    f667:	48 39 c2             	cmp    %rax,%rdx
    f66a:	0f 9e c0             	setle  %al
    f66d:	0f b6 d0             	movzbl %al,%edx
    f670:	8b 85 34 eb ff ff    	mov    -0x14cc(%rbp),%eax
    f676:	0f b6 c0             	movzbl %al,%eax
    f679:	89 d6                	mov    %edx,%esi
    f67b:	89 c7                	mov    %eax,%edi
    f67d:	e8 ca 95 ff ff       	callq  8c4c <safe_lshift_func_uint8_t_u_u>
    f682:	0f b6 c0             	movzbl %al,%eax
    f685:	89 de                	mov    %ebx,%esi
    f687:	89 c7                	mov    %eax,%edi
    f689:	e8 67 8d ff ff       	callq  83f5 <safe_mul_func_int16_t_s_s>
    f68e:	8b 85 34 eb ff ff    	mov    -0x14cc(%rbp),%eax
    f694:	85 c0                	test   %eax,%eax
    f696:	ba ff 00 00 00       	mov    $0xff,%edx
    f69b:	48 8b 85 90 ed ff ff 	mov    -0x1270(%rbp),%rax
    f6a2:	0f b6 00             	movzbl (%rax),%eax
    f6a5:	21 c2                	and    %eax,%edx
    f6a7:	48 8b 85 90 ed ff ff 	mov    -0x1270(%rbp),%rax
    f6ae:	88 10                	mov    %dl,(%rax)
    f6b0:	48 8b 85 90 ed ff ff 	mov    -0x1270(%rbp),%rax
    f6b7:	0f b6 10             	movzbl (%rax),%edx
    f6ba:	48 8b 85 38 ec ff ff 	mov    -0x13c8(%rbp),%rax
    f6c1:	48 8b 00             	mov    (%rax),%rax
    f6c4:	48 8b 00             	mov    (%rax),%rax
    f6c7:	0f b6 d2             	movzbl %dl,%edx
    f6ca:	89 10                	mov    %edx,(%rax)
    f6cc:	48 8b 85 38 ec ff ff 	mov    -0x13c8(%rbp),%rax
    f6d3:	48 8b 00             	mov    (%rax),%rax
    f6d6:	48 8b 95 48 ed ff ff 	mov    -0x12b8(%rbp),%rdx
    f6dd:	48 89 10             	mov    %rdx,(%rax)
    f6e0:	48 8d 05 a1 26 01 00 	lea    0x126a1(%rip),%rax        # 21d88 <g_2928+0xe8>
    f6e7:	48 8b 00             	mov    (%rax),%rax
    f6ea:	8b 10                	mov    (%rax),%edx
    f6ec:	48 8d 05 95 26 01 00 	lea    0x12695(%rip),%rax        # 21d88 <g_2928+0xe8>
    f6f3:	48 8b 00             	mov    (%rax),%rax
    f6f6:	33 95 0c ec ff ff    	xor    -0x13f4(%rbp),%edx
    f6fc:	89 10                	mov    %edx,(%rax)
    f6fe:	8b 00                	mov    (%rax),%eax
    f700:	85 c0                	test   %eax,%eax
    f702:	0f 84 f8 00 00 00    	je     f800 <func_28+0x17b2>
    f708:	66 c7 85 5a eb ff ff 	movw   $0x1,-0x14a6(%rbp)
    f70f:	01 00 
    f711:	c7 85 20 ec ff ff a4 	movl   $0x69d2cba4,-0x13e0(%rbp)
    f718:	cb d2 69 
    f71b:	c7 85 e0 f9 ff ff ff 	movl   $0xffffffff,-0x620(%rbp)
    f722:	ff ff ff 
    f725:	c7 85 e4 f9 ff ff 95 	movl   $0x335fd695,-0x61c(%rbp)
    f72c:	d6 5f 33 
    f72f:	c7 85 e8 f9 ff ff 95 	movl   $0x335fd695,-0x618(%rbp)
    f736:	d6 5f 33 
    f739:	c7 85 ec f9 ff ff ff 	movl   $0xffffffff,-0x614(%rbp)
    f740:	ff ff ff 
    f743:	c7 85 f0 f9 ff ff 95 	movl   $0x335fd695,-0x610(%rbp)
    f74a:	d6 5f 33 
    f74d:	c7 85 f4 f9 ff ff 95 	movl   $0x335fd695,-0x60c(%rbp)
    f754:	d6 5f 33 
    f757:	c7 85 f8 f9 ff ff ff 	movl   $0xffffffff,-0x608(%rbp)
    f75e:	ff ff ff 
    f761:	c7 85 fc f9 ff ff 95 	movl   $0x335fd695,-0x604(%rbp)
    f768:	d6 5f 33 
    f76b:	c7 85 00 fa ff ff 95 	movl   $0x335fd695,-0x600(%rbp)
    f772:	d6 5f 33 
    f775:	c7 85 04 fa ff ff ff 	movl   $0xffffffff,-0x5fc(%rbp)
    f77c:	ff ff ff 
    f77f:	c7 85 08 fa ff ff 95 	movl   $0x335fd695,-0x5f8(%rbp)
    f786:	d6 5f 33 
    f789:	c7 85 0c fa ff ff 95 	movl   $0x335fd695,-0x5f4(%rbp)
    f790:	d6 5f 33 
    f793:	c7 85 10 fa ff ff ff 	movl   $0xffffffff,-0x5f0(%rbp)
    f79a:	ff ff ff 
    f79d:	c7 85 14 fa ff ff 95 	movl   $0x335fd695,-0x5ec(%rbp)
    f7a4:	d6 5f 33 
    f7a7:	c7 85 18 fa ff ff 95 	movl   $0x335fd695,-0x5e8(%rbp)
    f7ae:	d6 5f 33 
    f7b1:	c7 85 1c fa ff ff ff 	movl   $0xffffffff,-0x5e4(%rbp)
    f7b8:	ff ff ff 
    f7bb:	c7 85 20 fa ff ff 95 	movl   $0x335fd695,-0x5e0(%rbp)
    f7c2:	d6 5f 33 
    f7c5:	c7 85 24 fa ff ff 95 	movl   $0x335fd695,-0x5dc(%rbp)
    f7cc:	d6 5f 33 
    f7cf:	48 c7 85 80 ee ff ff 	movq   $0xfffffffffffffff9,-0x1180(%rbp)
    f7d6:	f9 ff ff ff 
    f7da:	48 c7 85 88 ee ff ff 	movq   $0x4,-0x1178(%rbp)
    f7e1:	04 00 00 00 
    f7e5:	83 ad b0 eb ff ff 01 	subl   $0x1,-0x1450(%rbp)
    f7ec:	80 85 4e eb ff ff 01 	addb   $0x1,-0x14b2(%rbp)
    f7f3:	48 83 85 88 ee ff ff 	addq   $0x1,-0x1178(%rbp)
    f7fa:	01 
    f7fb:	e9 3e 14 00 00       	jmpq   10c3e <func_28+0x2bf0>
    f800:	c6 85 4f eb ff ff 01 	movb   $0x1,-0x14b1(%rbp)
    f807:	48 c7 85 58 ee ff ff 	movq   $0x0,-0x11a8(%rbp)
    f80e:	00 00 00 00 
    f812:	48 8d 05 7b 3b 01 00 	lea    0x13b7b(%rip),%rax        # 23394 <g_2568+0x4>
    f819:	48 89 85 60 ee ff ff 	mov    %rax,-0x11a0(%rbp)
    f820:	48 8d 85 00 f1 ff ff 	lea    -0xf00(%rbp),%rax
    f827:	48 05 d8 00 00 00    	add    $0xd8,%rax
    f82d:	48 89 85 90 f4 ff ff 	mov    %rax,-0xb70(%rbp)
    f834:	48 8d 05 51 3b 01 00 	lea    0x13b51(%rip),%rax        # 2338c <g_2556>
    f83b:	48 89 85 98 f4 ff ff 	mov    %rax,-0xb68(%rbp)
    f842:	48 8d 05 43 3b 01 00 	lea    0x13b43(%rip),%rax        # 2338c <g_2556>
    f849:	48 89 85 a0 f4 ff ff 	mov    %rax,-0xb60(%rbp)
    f850:	48 8d 85 00 f1 ff ff 	lea    -0xf00(%rbp),%rax
    f857:	48 05 d8 00 00 00    	add    $0xd8,%rax
    f85d:	48 89 85 a8 f4 ff ff 	mov    %rax,-0xb58(%rbp)
    f864:	48 8d 05 85 34 01 00 	lea    0x13485(%rip),%rax        # 22cf0 <g_1182+0x10>
    f86b:	48 89 85 b0 f4 ff ff 	mov    %rax,-0xb50(%rbp)
    f872:	48 8d 85 00 f1 ff ff 	lea    -0xf00(%rbp),%rax
    f879:	48 05 d8 00 00 00    	add    $0xd8,%rax
    f87f:	48 89 85 b8 f4 ff ff 	mov    %rax,-0xb48(%rbp)
    f886:	48 8d 05 ff 3a 01 00 	lea    0x13aff(%rip),%rax        # 2338c <g_2556>
    f88d:	48 89 85 c0 f4 ff ff 	mov    %rax,-0xb40(%rbp)
    f894:	48 8d 05 f1 3a 01 00 	lea    0x13af1(%rip),%rax        # 2338c <g_2556>
    f89b:	48 89 85 c8 f4 ff ff 	mov    %rax,-0xb38(%rbp)
    f8a2:	48 8d 85 00 f1 ff ff 	lea    -0xf00(%rbp),%rax
    f8a9:	48 05 d8 00 00 00    	add    $0xd8,%rax
    f8af:	48 89 85 d0 f4 ff ff 	mov    %rax,-0xb30(%rbp)
    f8b6:	48 8d 05 33 34 01 00 	lea    0x13433(%rip),%rax        # 22cf0 <g_1182+0x10>
    f8bd:	48 89 85 d8 f4 ff ff 	mov    %rax,-0xb28(%rbp)
    f8c4:	48 8d 85 00 f1 ff ff 	lea    -0xf00(%rbp),%rax
    f8cb:	48 05 d8 00 00 00    	add    $0xd8,%rax
    f8d1:	48 89 85 e0 f4 ff ff 	mov    %rax,-0xb20(%rbp)
    f8d8:	48 8d 05 ad 3a 01 00 	lea    0x13aad(%rip),%rax        # 2338c <g_2556>
    f8df:	48 89 85 e8 f4 ff ff 	mov    %rax,-0xb18(%rbp)
    f8e6:	48 8d 05 9f 3a 01 00 	lea    0x13a9f(%rip),%rax        # 2338c <g_2556>
    f8ed:	48 89 85 f0 f4 ff ff 	mov    %rax,-0xb10(%rbp)
    f8f4:	48 8d 85 00 f1 ff ff 	lea    -0xf00(%rbp),%rax
    f8fb:	48 05 d8 00 00 00    	add    $0xd8,%rax
    f901:	48 89 85 f8 f4 ff ff 	mov    %rax,-0xb08(%rbp)
    f908:	48 8d 05 ed 3b 01 00 	lea    0x13bed(%rip),%rax        # 234fc <g_2943>
    f90f:	48 89 85 00 f5 ff ff 	mov    %rax,-0xb00(%rbp)
    f916:	48 8d 05 df 3b 01 00 	lea    0x13bdf(%rip),%rax        # 234fc <g_2943>
    f91d:	48 89 85 08 f5 ff ff 	mov    %rax,-0xaf8(%rbp)
    f924:	48 8d 85 00 f1 ff ff 	lea    -0xf00(%rbp),%rax
    f92b:	48 05 d8 00 00 00    	add    $0xd8,%rax
    f931:	48 89 85 10 f5 ff ff 	mov    %rax,-0xaf0(%rbp)
    f938:	48 8d 85 00 f1 ff ff 	lea    -0xf00(%rbp),%rax
    f93f:	48 05 d8 00 00 00    	add    $0xd8,%rax
    f945:	48 89 85 18 f5 ff ff 	mov    %rax,-0xae8(%rbp)
    f94c:	48 8d 05 a9 3b 01 00 	lea    0x13ba9(%rip),%rax        # 234fc <g_2943>
    f953:	48 89 85 20 f5 ff ff 	mov    %rax,-0xae0(%rbp)
    f95a:	48 8d 05 9b 3b 01 00 	lea    0x13b9b(%rip),%rax        # 234fc <g_2943>
    f961:	48 89 85 28 f5 ff ff 	mov    %rax,-0xad8(%rbp)
    f968:	48 8d 05 8d 3b 01 00 	lea    0x13b8d(%rip),%rax        # 234fc <g_2943>
    f96f:	48 89 85 30 f5 ff ff 	mov    %rax,-0xad0(%rbp)
    f976:	48 8d 85 00 f1 ff ff 	lea    -0xf00(%rbp),%rax
    f97d:	48 05 d8 00 00 00    	add    $0xd8,%rax
    f983:	48 89 85 38 f5 ff ff 	mov    %rax,-0xac8(%rbp)
    f98a:	48 8d 85 00 f1 ff ff 	lea    -0xf00(%rbp),%rax
    f991:	48 05 d8 00 00 00    	add    $0xd8,%rax
    f997:	48 89 85 40 f5 ff ff 	mov    %rax,-0xac0(%rbp)
    f99e:	48 8d 05 57 3b 01 00 	lea    0x13b57(%rip),%rax        # 234fc <g_2943>
    f9a5:	48 89 85 48 f5 ff ff 	mov    %rax,-0xab8(%rbp)
    f9ac:	48 8d 05 49 3b 01 00 	lea    0x13b49(%rip),%rax        # 234fc <g_2943>
    f9b3:	48 89 85 50 f5 ff ff 	mov    %rax,-0xab0(%rbp)
    f9ba:	48 8d 05 3b 3b 01 00 	lea    0x13b3b(%rip),%rax        # 234fc <g_2943>
    f9c1:	48 89 85 58 f5 ff ff 	mov    %rax,-0xaa8(%rbp)
    f9c8:	48 8d 85 00 f1 ff ff 	lea    -0xf00(%rbp),%rax
    f9cf:	48 05 d8 00 00 00    	add    $0xd8,%rax
    f9d5:	48 89 85 60 f5 ff ff 	mov    %rax,-0xaa0(%rbp)
    f9dc:	48 8d 85 00 f1 ff ff 	lea    -0xf00(%rbp),%rax
    f9e3:	48 05 d8 00 00 00    	add    $0xd8,%rax
    f9e9:	48 89 85 68 f5 ff ff 	mov    %rax,-0xa98(%rbp)
    f9f0:	48 8d 05 05 3b 01 00 	lea    0x13b05(%rip),%rax        # 234fc <g_2943>
    f9f7:	48 89 85 70 f5 ff ff 	mov    %rax,-0xa90(%rbp)
    f9fe:	48 8d 05 f7 3a 01 00 	lea    0x13af7(%rip),%rax        # 234fc <g_2943>
    fa05:	48 89 85 78 f5 ff ff 	mov    %rax,-0xa88(%rbp)
    fa0c:	48 8d 05 e9 3a 01 00 	lea    0x13ae9(%rip),%rax        # 234fc <g_2943>
    fa13:	48 89 85 80 f5 ff ff 	mov    %rax,-0xa80(%rbp)
    fa1a:	48 8d 85 00 f1 ff ff 	lea    -0xf00(%rbp),%rax
    fa21:	48 05 d8 00 00 00    	add    $0xd8,%rax
    fa27:	48 89 85 88 f5 ff ff 	mov    %rax,-0xa78(%rbp)
    fa2e:	48 8d 85 00 f1 ff ff 	lea    -0xf00(%rbp),%rax
    fa35:	48 05 d8 00 00 00    	add    $0xd8,%rax
    fa3b:	48 89 85 90 f5 ff ff 	mov    %rax,-0xa70(%rbp)
    fa42:	48 8d 05 b3 3a 01 00 	lea    0x13ab3(%rip),%rax        # 234fc <g_2943>
    fa49:	48 89 85 98 f5 ff ff 	mov    %rax,-0xa68(%rbp)
    fa50:	48 8d 05 a5 3a 01 00 	lea    0x13aa5(%rip),%rax        # 234fc <g_2943>
    fa57:	48 89 85 a0 f5 ff ff 	mov    %rax,-0xa60(%rbp)
    fa5e:	48 8d 05 97 3a 01 00 	lea    0x13a97(%rip),%rax        # 234fc <g_2943>
    fa65:	48 89 85 a8 f5 ff ff 	mov    %rax,-0xa58(%rbp)
    fa6c:	48 8d 85 00 f1 ff ff 	lea    -0xf00(%rbp),%rax
    fa73:	48 05 d8 00 00 00    	add    $0xd8,%rax
    fa79:	48 89 85 b0 f5 ff ff 	mov    %rax,-0xa50(%rbp)
    fa80:	48 8d 85 00 f1 ff ff 	lea    -0xf00(%rbp),%rax
    fa87:	48 05 d8 00 00 00    	add    $0xd8,%rax
    fa8d:	48 89 85 b8 f5 ff ff 	mov    %rax,-0xa48(%rbp)
    fa94:	48 8d 05 61 3a 01 00 	lea    0x13a61(%rip),%rax        # 234fc <g_2943>
    fa9b:	48 89 85 c0 f5 ff ff 	mov    %rax,-0xa40(%rbp)
    faa2:	48 8d 05 53 3a 01 00 	lea    0x13a53(%rip),%rax        # 234fc <g_2943>
    faa9:	48 89 85 c8 f5 ff ff 	mov    %rax,-0xa38(%rbp)
    fab0:	48 8d 05 45 3a 01 00 	lea    0x13a45(%rip),%rax        # 234fc <g_2943>
    fab7:	48 89 85 d0 f5 ff ff 	mov    %rax,-0xa30(%rbp)
    fabe:	48 8d 85 00 f1 ff ff 	lea    -0xf00(%rbp),%rax
    fac5:	48 05 d8 00 00 00    	add    $0xd8,%rax
    facb:	48 89 85 d8 f5 ff ff 	mov    %rax,-0xa28(%rbp)
    fad2:	48 8d 85 00 f1 ff ff 	lea    -0xf00(%rbp),%rax
    fad9:	48 05 d8 00 00 00    	add    $0xd8,%rax
    fadf:	48 89 85 e0 f5 ff ff 	mov    %rax,-0xa20(%rbp)
    fae6:	48 8d 05 0f 3a 01 00 	lea    0x13a0f(%rip),%rax        # 234fc <g_2943>
    faed:	48 89 85 e8 f5 ff ff 	mov    %rax,-0xa18(%rbp)
    faf4:	48 8d 05 01 3a 01 00 	lea    0x13a01(%rip),%rax        # 234fc <g_2943>
    fafb:	48 89 85 f0 f5 ff ff 	mov    %rax,-0xa10(%rbp)
    fb02:	48 8d 05 f3 39 01 00 	lea    0x139f3(%rip),%rax        # 234fc <g_2943>
    fb09:	48 89 85 f8 f5 ff ff 	mov    %rax,-0xa08(%rbp)
    fb10:	48 8d 85 00 f1 ff ff 	lea    -0xf00(%rbp),%rax
    fb17:	48 05 d8 00 00 00    	add    $0xd8,%rax
    fb1d:	48 89 85 00 f6 ff ff 	mov    %rax,-0xa00(%rbp)
    fb24:	48 8d 85 00 f1 ff ff 	lea    -0xf00(%rbp),%rax
    fb2b:	48 05 d8 00 00 00    	add    $0xd8,%rax
    fb31:	48 89 85 08 f6 ff ff 	mov    %rax,-0x9f8(%rbp)
    fb38:	48 8d 05 bd 39 01 00 	lea    0x139bd(%rip),%rax        # 234fc <g_2943>
    fb3f:	48 89 85 10 f6 ff ff 	mov    %rax,-0x9f0(%rbp)
    fb46:	48 8d 05 af 39 01 00 	lea    0x139af(%rip),%rax        # 234fc <g_2943>
    fb4d:	48 89 85 18 f6 ff ff 	mov    %rax,-0x9e8(%rbp)
    fb54:	48 8d 05 a1 39 01 00 	lea    0x139a1(%rip),%rax        # 234fc <g_2943>
    fb5b:	48 89 85 20 f6 ff ff 	mov    %rax,-0x9e0(%rbp)
    fb62:	48 8d 85 00 f1 ff ff 	lea    -0xf00(%rbp),%rax
    fb69:	48 05 d8 00 00 00    	add    $0xd8,%rax
    fb6f:	48 89 85 28 f6 ff ff 	mov    %rax,-0x9d8(%rbp)
    fb76:	48 8d 85 00 f1 ff ff 	lea    -0xf00(%rbp),%rax
    fb7d:	48 05 d8 00 00 00    	add    $0xd8,%rax
    fb83:	48 89 85 30 f6 ff ff 	mov    %rax,-0x9d0(%rbp)
    fb8a:	48 8d 05 6b 39 01 00 	lea    0x1396b(%rip),%rax        # 234fc <g_2943>
    fb91:	48 89 85 38 f6 ff ff 	mov    %rax,-0x9c8(%rbp)
    fb98:	48 8d 05 5d 39 01 00 	lea    0x1395d(%rip),%rax        # 234fc <g_2943>
    fb9f:	48 89 85 40 f6 ff ff 	mov    %rax,-0x9c0(%rbp)
    fba6:	48 8d 05 4f 39 01 00 	lea    0x1394f(%rip),%rax        # 234fc <g_2943>
    fbad:	48 89 85 48 f6 ff ff 	mov    %rax,-0x9b8(%rbp)
    fbb4:	48 8d 85 00 f1 ff ff 	lea    -0xf00(%rbp),%rax
    fbbb:	48 05 d8 00 00 00    	add    $0xd8,%rax
    fbc1:	48 89 85 50 f6 ff ff 	mov    %rax,-0x9b0(%rbp)
    fbc8:	48 8d 85 00 f1 ff ff 	lea    -0xf00(%rbp),%rax
    fbcf:	48 05 d8 00 00 00    	add    $0xd8,%rax
    fbd5:	48 89 85 58 f6 ff ff 	mov    %rax,-0x9a8(%rbp)
    fbdc:	48 8d 05 19 39 01 00 	lea    0x13919(%rip),%rax        # 234fc <g_2943>
    fbe3:	48 89 85 60 f6 ff ff 	mov    %rax,-0x9a0(%rbp)
    fbea:	48 8d 05 0b 39 01 00 	lea    0x1390b(%rip),%rax        # 234fc <g_2943>
    fbf1:	48 89 85 68 f6 ff ff 	mov    %rax,-0x998(%rbp)
    fbf8:	48 8d 05 fd 38 01 00 	lea    0x138fd(%rip),%rax        # 234fc <g_2943>
    fbff:	48 89 85 70 f6 ff ff 	mov    %rax,-0x990(%rbp)
    fc06:	48 8d 85 00 f1 ff ff 	lea    -0xf00(%rbp),%rax
    fc0d:	48 05 d8 00 00 00    	add    $0xd8,%rax
    fc13:	48 89 85 78 f6 ff ff 	mov    %rax,-0x988(%rbp)
    fc1a:	48 8d 85 00 f1 ff ff 	lea    -0xf00(%rbp),%rax
    fc21:	48 05 d8 00 00 00    	add    $0xd8,%rax
    fc27:	48 89 85 80 f6 ff ff 	mov    %rax,-0x980(%rbp)
    fc2e:	48 8d 05 c7 38 01 00 	lea    0x138c7(%rip),%rax        # 234fc <g_2943>
    fc35:	48 89 85 88 f6 ff ff 	mov    %rax,-0x978(%rbp)
    fc3c:	48 8d 05 b9 38 01 00 	lea    0x138b9(%rip),%rax        # 234fc <g_2943>
    fc43:	48 89 85 90 f6 ff ff 	mov    %rax,-0x970(%rbp)
    fc4a:	48 8d 05 ab 38 01 00 	lea    0x138ab(%rip),%rax        # 234fc <g_2943>
    fc51:	48 89 85 98 f6 ff ff 	mov    %rax,-0x968(%rbp)
    fc58:	48 8d 85 00 f1 ff ff 	lea    -0xf00(%rbp),%rax
    fc5f:	48 05 d8 00 00 00    	add    $0xd8,%rax
    fc65:	48 89 85 a0 f6 ff ff 	mov    %rax,-0x960(%rbp)
    fc6c:	48 8d 85 00 f1 ff ff 	lea    -0xf00(%rbp),%rax
    fc73:	48 05 d8 00 00 00    	add    $0xd8,%rax
    fc79:	48 89 85 a8 f6 ff ff 	mov    %rax,-0x958(%rbp)
    fc80:	48 8d 05 75 38 01 00 	lea    0x13875(%rip),%rax        # 234fc <g_2943>
    fc87:	48 89 85 b0 f6 ff ff 	mov    %rax,-0x950(%rbp)
    fc8e:	48 8d 05 67 38 01 00 	lea    0x13867(%rip),%rax        # 234fc <g_2943>
    fc95:	48 89 85 b8 f6 ff ff 	mov    %rax,-0x948(%rbp)
    fc9c:	48 8d 05 59 38 01 00 	lea    0x13859(%rip),%rax        # 234fc <g_2943>
    fca3:	48 89 85 c0 f6 ff ff 	mov    %rax,-0x940(%rbp)
    fcaa:	48 8d 85 00 f1 ff ff 	lea    -0xf00(%rbp),%rax
    fcb1:	48 05 d8 00 00 00    	add    $0xd8,%rax
    fcb7:	48 89 85 c8 f6 ff ff 	mov    %rax,-0x938(%rbp)
    fcbe:	48 8d 85 00 f1 ff ff 	lea    -0xf00(%rbp),%rax
    fcc5:	48 05 d8 00 00 00    	add    $0xd8,%rax
    fccb:	48 89 85 d0 f6 ff ff 	mov    %rax,-0x930(%rbp)
    fcd2:	48 8d 05 23 38 01 00 	lea    0x13823(%rip),%rax        # 234fc <g_2943>
    fcd9:	48 89 85 d8 f6 ff ff 	mov    %rax,-0x928(%rbp)
    fce0:	48 8d 05 15 38 01 00 	lea    0x13815(%rip),%rax        # 234fc <g_2943>
    fce7:	48 89 85 e0 f6 ff ff 	mov    %rax,-0x920(%rbp)
    fcee:	48 8d 05 07 38 01 00 	lea    0x13807(%rip),%rax        # 234fc <g_2943>
    fcf5:	48 89 85 e8 f6 ff ff 	mov    %rax,-0x918(%rbp)
    fcfc:	48 8d 85 00 f1 ff ff 	lea    -0xf00(%rbp),%rax
    fd03:	48 05 d8 00 00 00    	add    $0xd8,%rax
    fd09:	48 89 85 f0 f6 ff ff 	mov    %rax,-0x910(%rbp)
    fd10:	48 8d 85 00 f1 ff ff 	lea    -0xf00(%rbp),%rax
    fd17:	48 05 d8 00 00 00    	add    $0xd8,%rax
    fd1d:	48 89 85 f8 f6 ff ff 	mov    %rax,-0x908(%rbp)
    fd24:	48 8d 05 d1 37 01 00 	lea    0x137d1(%rip),%rax        # 234fc <g_2943>
    fd2b:	48 89 85 00 f7 ff ff 	mov    %rax,-0x900(%rbp)
    fd32:	48 8d 05 c3 37 01 00 	lea    0x137c3(%rip),%rax        # 234fc <g_2943>
    fd39:	48 89 85 08 f7 ff ff 	mov    %rax,-0x8f8(%rbp)
    fd40:	c7 85 18 ec ff ff fc 	movl   $0xfffffffc,-0x13e8(%rbp)
    fd47:	ff ff ff 
    fd4a:	48 8d 85 88 ec ff ff 	lea    -0x1378(%rbp),%rax
    fd51:	48 89 85 e0 f9 ff ff 	mov    %rax,-0x620(%rbp)
    fd58:	48 8d 85 88 ec ff ff 	lea    -0x1378(%rbp),%rax
    fd5f:	48 89 85 e8 f9 ff ff 	mov    %rax,-0x618(%rbp)
    fd66:	48 8d 85 88 ec ff ff 	lea    -0x1378(%rbp),%rax
    fd6d:	48 89 85 f0 f9 ff ff 	mov    %rax,-0x610(%rbp)
    fd74:	48 8d 85 90 ec ff ff 	lea    -0x1370(%rbp),%rax
    fd7b:	48 89 85 f8 f9 ff ff 	mov    %rax,-0x608(%rbp)
    fd82:	48 8d 85 88 ec ff ff 	lea    -0x1378(%rbp),%rax
    fd89:	48 89 85 00 fa ff ff 	mov    %rax,-0x600(%rbp)
    fd90:	48 8d 85 88 ec ff ff 	lea    -0x1378(%rbp),%rax
    fd97:	48 89 85 08 fa ff ff 	mov    %rax,-0x5f8(%rbp)
    fd9e:	48 c7 85 10 fa ff ff 	movq   $0x0,-0x5f0(%rbp)
    fda5:	00 00 00 00 
    fda9:	48 8d 85 90 ec ff ff 	lea    -0x1370(%rbp),%rax
    fdb0:	48 89 85 18 fa ff ff 	mov    %rax,-0x5e8(%rbp)
    fdb7:	48 8d 85 88 ec ff ff 	lea    -0x1378(%rbp),%rax
    fdbe:	48 89 85 20 fa ff ff 	mov    %rax,-0x5e0(%rbp)
    fdc5:	48 c7 85 28 fa ff ff 	movq   $0x0,-0x5d8(%rbp)
    fdcc:	00 00 00 00 
    fdd0:	48 8d 85 90 ec ff ff 	lea    -0x1370(%rbp),%rax
    fdd7:	48 89 85 30 fa ff ff 	mov    %rax,-0x5d0(%rbp)
    fdde:	48 8d 85 90 ec ff ff 	lea    -0x1370(%rbp),%rax
    fde5:	48 89 85 38 fa ff ff 	mov    %rax,-0x5c8(%rbp)
    fdec:	48 8d 85 90 ec ff ff 	lea    -0x1370(%rbp),%rax
    fdf3:	48 89 85 40 fa ff ff 	mov    %rax,-0x5c0(%rbp)
    fdfa:	48 8d 85 88 ec ff ff 	lea    -0x1378(%rbp),%rax
    fe01:	48 89 85 48 fa ff ff 	mov    %rax,-0x5b8(%rbp)
    fe08:	48 8d 85 88 ec ff ff 	lea    -0x1378(%rbp),%rax
    fe0f:	48 89 85 50 fa ff ff 	mov    %rax,-0x5b0(%rbp)
    fe16:	48 8d 85 90 ec ff ff 	lea    -0x1370(%rbp),%rax
    fe1d:	48 89 85 58 fa ff ff 	mov    %rax,-0x5a8(%rbp)
    fe24:	48 8d 85 90 ec ff ff 	lea    -0x1370(%rbp),%rax
    fe2b:	48 89 85 60 fa ff ff 	mov    %rax,-0x5a0(%rbp)
    fe32:	48 8d 85 90 ec ff ff 	lea    -0x1370(%rbp),%rax
    fe39:	48 89 85 68 fa ff ff 	mov    %rax,-0x598(%rbp)
    fe40:	48 8d 85 90 ec ff ff 	lea    -0x1370(%rbp),%rax
    fe47:	48 89 85 70 fa ff ff 	mov    %rax,-0x590(%rbp)
    fe4e:	48 8d 85 90 ec ff ff 	lea    -0x1370(%rbp),%rax
    fe55:	48 89 85 78 fa ff ff 	mov    %rax,-0x588(%rbp)
    fe5c:	48 8d 85 90 ec ff ff 	lea    -0x1370(%rbp),%rax
    fe63:	48 89 85 80 fa ff ff 	mov    %rax,-0x580(%rbp)
    fe6a:	48 8d 85 88 ec ff ff 	lea    -0x1378(%rbp),%rax
    fe71:	48 89 85 88 fa ff ff 	mov    %rax,-0x578(%rbp)
    fe78:	48 8d 05 81 67 01 00 	lea    0x16781(%rip),%rax        # 26600 <g_1323>
    fe7f:	48 89 85 90 fa ff ff 	mov    %rax,-0x570(%rbp)
    fe86:	48 c7 85 98 fa ff ff 	movq   $0x0,-0x568(%rbp)
    fe8d:	00 00 00 00 
    fe91:	48 8d 85 90 ec ff ff 	lea    -0x1370(%rbp),%rax
    fe98:	48 89 85 a0 fa ff ff 	mov    %rax,-0x560(%rbp)
    fe9f:	48 8d 05 5a 67 01 00 	lea    0x1675a(%rip),%rax        # 26600 <g_1323>
    fea6:	48 89 85 a8 fa ff ff 	mov    %rax,-0x558(%rbp)
    fead:	48 8d 85 88 ec ff ff 	lea    -0x1378(%rbp),%rax
    feb4:	48 89 85 b0 fa ff ff 	mov    %rax,-0x550(%rbp)
    febb:	48 8d 85 90 ec ff ff 	lea    -0x1370(%rbp),%rax
    fec2:	48 89 85 b8 fa ff ff 	mov    %rax,-0x548(%rbp)
    fec9:	48 8d 85 88 ec ff ff 	lea    -0x1378(%rbp),%rax
    fed0:	48 89 85 c0 fa ff ff 	mov    %rax,-0x540(%rbp)
    fed7:	48 8d 85 88 ec ff ff 	lea    -0x1378(%rbp),%rax
    fede:	48 89 85 c8 fa ff ff 	mov    %rax,-0x538(%rbp)
    fee5:	48 8d 85 90 ec ff ff 	lea    -0x1370(%rbp),%rax
    feec:	48 89 85 d0 fa ff ff 	mov    %rax,-0x530(%rbp)
    fef3:	48 8d 85 88 ec ff ff 	lea    -0x1378(%rbp),%rax
    fefa:	48 89 85 d8 fa ff ff 	mov    %rax,-0x528(%rbp)
    ff01:	48 8d 85 90 ec ff ff 	lea    -0x1370(%rbp),%rax
    ff08:	48 89 85 e0 fa ff ff 	mov    %rax,-0x520(%rbp)
    ff0f:	48 8d 85 90 ec ff ff 	lea    -0x1370(%rbp),%rax
    ff16:	48 89 85 e8 fa ff ff 	mov    %rax,-0x518(%rbp)
    ff1d:	48 8d 85 88 ec ff ff 	lea    -0x1378(%rbp),%rax
    ff24:	48 89 85 f0 fa ff ff 	mov    %rax,-0x510(%rbp)
    ff2b:	48 8d 85 90 ec ff ff 	lea    -0x1370(%rbp),%rax
    ff32:	48 89 85 f8 fa ff ff 	mov    %rax,-0x508(%rbp)
    ff39:	48 c7 85 00 fb ff ff 	movq   $0x0,-0x500(%rbp)
    ff40:	00 00 00 00 
    ff44:	48 8d 85 90 ec ff ff 	lea    -0x1370(%rbp),%rax
    ff4b:	48 89 85 08 fb ff ff 	mov    %rax,-0x4f8(%rbp)
    ff52:	48 8d 85 88 ec ff ff 	lea    -0x1378(%rbp),%rax
    ff59:	48 89 85 10 fb ff ff 	mov    %rax,-0x4f0(%rbp)
    ff60:	48 8d 85 88 ec ff ff 	lea    -0x1378(%rbp),%rax
    ff67:	48 89 85 18 fb ff ff 	mov    %rax,-0x4e8(%rbp)
    ff6e:	48 8d 85 90 ec ff ff 	lea    -0x1370(%rbp),%rax
    ff75:	48 89 85 20 fb ff ff 	mov    %rax,-0x4e0(%rbp)
    ff7c:	48 8d 85 88 ec ff ff 	lea    -0x1378(%rbp),%rax
    ff83:	48 89 85 28 fb ff ff 	mov    %rax,-0x4d8(%rbp)
    ff8a:	48 c7 85 30 fb ff ff 	movq   $0x0,-0x4d0(%rbp)
    ff91:	00 00 00 00 
    ff95:	48 c7 85 38 fb ff ff 	movq   $0x0,-0x4c8(%rbp)
    ff9c:	00 00 00 00 
    ffa0:	48 c7 85 40 fb ff ff 	movq   $0x0,-0x4c0(%rbp)
    ffa7:	00 00 00 00 
    ffab:	48 8d 85 88 ec ff ff 	lea    -0x1378(%rbp),%rax
    ffb2:	48 89 85 48 fb ff ff 	mov    %rax,-0x4b8(%rbp)
    ffb9:	48 8d 85 90 ec ff ff 	lea    -0x1370(%rbp),%rax
    ffc0:	48 89 85 50 fb ff ff 	mov    %rax,-0x4b0(%rbp)
    ffc7:	48 8d 85 90 ec ff ff 	lea    -0x1370(%rbp),%rax
    ffce:	48 89 85 58 fb ff ff 	mov    %rax,-0x4a8(%rbp)
    ffd5:	48 8d 85 90 ec ff ff 	lea    -0x1370(%rbp),%rax
    ffdc:	48 89 85 60 fb ff ff 	mov    %rax,-0x4a0(%rbp)
    ffe3:	48 8d 85 90 ec ff ff 	lea    -0x1370(%rbp),%rax
    ffea:	48 89 85 68 fb ff ff 	mov    %rax,-0x498(%rbp)
    fff1:	48 8d 85 90 ec ff ff 	lea    -0x1370(%rbp),%rax
    fff8:	48 89 85 70 fb ff ff 	mov    %rax,-0x490(%rbp)
    ffff:	48 8d 85 88 ec ff ff 	lea    -0x1378(%rbp),%rax
   10006:	48 89 85 78 fb ff ff 	mov    %rax,-0x488(%rbp)
   1000d:	48 8d 85 88 ec ff ff 	lea    -0x1378(%rbp),%rax
   10014:	48 89 85 80 fb ff ff 	mov    %rax,-0x480(%rbp)
   1001b:	48 8d 85 88 ec ff ff 	lea    -0x1378(%rbp),%rax
   10022:	48 89 85 88 fb ff ff 	mov    %rax,-0x478(%rbp)
   10029:	48 8d 85 90 ec ff ff 	lea    -0x1370(%rbp),%rax
   10030:	48 89 85 90 fb ff ff 	mov    %rax,-0x470(%rbp)
   10037:	48 8d 85 88 ec ff ff 	lea    -0x1378(%rbp),%rax
   1003e:	48 89 85 98 fb ff ff 	mov    %rax,-0x468(%rbp)
   10045:	48 8d 85 90 ec ff ff 	lea    -0x1370(%rbp),%rax
   1004c:	48 89 85 a0 fb ff ff 	mov    %rax,-0x460(%rbp)
   10053:	48 8d 85 88 ec ff ff 	lea    -0x1378(%rbp),%rax
   1005a:	48 89 85 a8 fb ff ff 	mov    %rax,-0x458(%rbp)
   10061:	48 8d 85 88 ec ff ff 	lea    -0x1378(%rbp),%rax
   10068:	48 89 85 b0 fb ff ff 	mov    %rax,-0x450(%rbp)
   1006f:	48 8d 85 88 ec ff ff 	lea    -0x1378(%rbp),%rax
   10076:	48 89 85 b8 fb ff ff 	mov    %rax,-0x448(%rbp)
   1007d:	48 8d 85 88 ec ff ff 	lea    -0x1378(%rbp),%rax
   10084:	48 89 85 c0 fb ff ff 	mov    %rax,-0x440(%rbp)
   1008b:	48 8d 85 88 ec ff ff 	lea    -0x1378(%rbp),%rax
   10092:	48 89 85 c8 fb ff ff 	mov    %rax,-0x438(%rbp)
   10099:	48 8d 85 88 ec ff ff 	lea    -0x1378(%rbp),%rax
   100a0:	48 89 85 d0 fb ff ff 	mov    %rax,-0x430(%rbp)
   100a7:	48 8d 05 52 65 01 00 	lea    0x16552(%rip),%rax        # 26600 <g_1323>
   100ae:	48 89 85 d8 fb ff ff 	mov    %rax,-0x428(%rbp)
   100b5:	48 8d 85 88 ec ff ff 	lea    -0x1378(%rbp),%rax
   100bc:	48 89 85 e0 fb ff ff 	mov    %rax,-0x420(%rbp)
   100c3:	48 8d 85 88 ec ff ff 	lea    -0x1378(%rbp),%rax
   100ca:	48 89 85 e8 fb ff ff 	mov    %rax,-0x418(%rbp)
   100d1:	48 8d 85 90 ec ff ff 	lea    -0x1370(%rbp),%rax
   100d8:	48 89 85 f0 fb ff ff 	mov    %rax,-0x410(%rbp)
   100df:	48 8d 05 1a 65 01 00 	lea    0x1651a(%rip),%rax        # 26600 <g_1323>
   100e6:	48 89 85 f8 fb ff ff 	mov    %rax,-0x408(%rbp)
   100ed:	48 8d 85 90 ec ff ff 	lea    -0x1370(%rbp),%rax
   100f4:	48 89 85 00 fc ff ff 	mov    %rax,-0x400(%rbp)
   100fb:	48 c7 85 08 fc ff ff 	movq   $0x0,-0x3f8(%rbp)
   10102:	00 00 00 00 
   10106:	48 8d 85 88 ec ff ff 	lea    -0x1378(%rbp),%rax
   1010d:	48 89 85 10 fc ff ff 	mov    %rax,-0x3f0(%rbp)
   10114:	48 8d 85 88 ec ff ff 	lea    -0x1378(%rbp),%rax
   1011b:	48 89 85 18 fc ff ff 	mov    %rax,-0x3e8(%rbp)
   10122:	48 c7 85 20 fc ff ff 	movq   $0x0,-0x3e0(%rbp)
   10129:	00 00 00 00 
   1012d:	48 8d 05 cc 64 01 00 	lea    0x164cc(%rip),%rax        # 26600 <g_1323>
   10134:	48 89 85 28 fc ff ff 	mov    %rax,-0x3d8(%rbp)
   1013b:	48 8d 85 90 ec ff ff 	lea    -0x1370(%rbp),%rax
   10142:	48 89 85 30 fc ff ff 	mov    %rax,-0x3d0(%rbp)
   10149:	48 8d 85 90 ec ff ff 	lea    -0x1370(%rbp),%rax
   10150:	48 89 85 38 fc ff ff 	mov    %rax,-0x3c8(%rbp)
   10157:	48 8d 85 88 ec ff ff 	lea    -0x1378(%rbp),%rax
   1015e:	48 89 85 40 fc ff ff 	mov    %rax,-0x3c0(%rbp)
   10165:	48 c7 85 48 fc ff ff 	movq   $0x0,-0x3b8(%rbp)
   1016c:	00 00 00 00 
   10170:	48 8d 85 90 ec ff ff 	lea    -0x1370(%rbp),%rax
   10177:	48 89 85 50 fc ff ff 	mov    %rax,-0x3b0(%rbp)
   1017e:	48 c7 85 58 fc ff ff 	movq   $0x0,-0x3a8(%rbp)
   10185:	00 00 00 00 
   10189:	48 8d 85 88 ec ff ff 	lea    -0x1378(%rbp),%rax
   10190:	48 89 85 60 fc ff ff 	mov    %rax,-0x3a0(%rbp)
   10197:	48 8d 05 62 64 01 00 	lea    0x16462(%rip),%rax        # 26600 <g_1323>
   1019e:	48 89 85 68 fc ff ff 	mov    %rax,-0x398(%rbp)
   101a5:	48 8d 05 54 64 01 00 	lea    0x16454(%rip),%rax        # 26600 <g_1323>
   101ac:	48 89 85 70 fc ff ff 	mov    %rax,-0x390(%rbp)
   101b3:	48 8d 05 46 64 01 00 	lea    0x16446(%rip),%rax        # 26600 <g_1323>
   101ba:	48 89 85 78 fc ff ff 	mov    %rax,-0x388(%rbp)
   101c1:	48 8d 05 38 64 01 00 	lea    0x16438(%rip),%rax        # 26600 <g_1323>
   101c8:	48 89 85 80 fc ff ff 	mov    %rax,-0x380(%rbp)
   101cf:	48 8d 85 88 ec ff ff 	lea    -0x1378(%rbp),%rax
   101d6:	48 89 85 88 fc ff ff 	mov    %rax,-0x378(%rbp)
   101dd:	48 8d 85 88 ec ff ff 	lea    -0x1378(%rbp),%rax
   101e4:	48 89 85 90 fc ff ff 	mov    %rax,-0x370(%rbp)
   101eb:	48 8d 85 90 ec ff ff 	lea    -0x1370(%rbp),%rax
   101f2:	48 89 85 98 fc ff ff 	mov    %rax,-0x368(%rbp)
   101f9:	48 8d 85 88 ec ff ff 	lea    -0x1378(%rbp),%rax
   10200:	48 89 85 a0 fc ff ff 	mov    %rax,-0x360(%rbp)
   10207:	48 c7 85 a8 fc ff ff 	movq   $0x0,-0x358(%rbp)
   1020e:	00 00 00 00 
   10212:	48 8d 85 90 ec ff ff 	lea    -0x1370(%rbp),%rax
   10219:	48 89 85 b0 fc ff ff 	mov    %rax,-0x350(%rbp)
   10220:	48 8d 85 88 ec ff ff 	lea    -0x1378(%rbp),%rax
   10227:	48 89 85 b8 fc ff ff 	mov    %rax,-0x348(%rbp)
   1022e:	48 8d 85 90 ec ff ff 	lea    -0x1370(%rbp),%rax
   10235:	48 89 85 c0 fc ff ff 	mov    %rax,-0x340(%rbp)
   1023c:	48 8d 05 bd 63 01 00 	lea    0x163bd(%rip),%rax        # 26600 <g_1323>
   10243:	48 89 85 c8 fc ff ff 	mov    %rax,-0x338(%rbp)
   1024a:	48 8d 85 88 ec ff ff 	lea    -0x1378(%rbp),%rax
   10251:	48 89 85 d0 fc ff ff 	mov    %rax,-0x330(%rbp)
   10258:	48 8d 85 88 ec ff ff 	lea    -0x1378(%rbp),%rax
   1025f:	48 89 85 d8 fc ff ff 	mov    %rax,-0x328(%rbp)
   10266:	48 8d 85 90 ec ff ff 	lea    -0x1370(%rbp),%rax
   1026d:	48 89 85 e0 fc ff ff 	mov    %rax,-0x320(%rbp)
   10274:	48 8d 05 85 63 01 00 	lea    0x16385(%rip),%rax        # 26600 <g_1323>
   1027b:	48 89 85 e8 fc ff ff 	mov    %rax,-0x318(%rbp)
   10282:	48 8d 85 90 ec ff ff 	lea    -0x1370(%rbp),%rax
   10289:	48 89 85 f0 fc ff ff 	mov    %rax,-0x310(%rbp)
   10290:	48 8d 85 88 ec ff ff 	lea    -0x1378(%rbp),%rax
   10297:	48 89 85 f8 fc ff ff 	mov    %rax,-0x308(%rbp)
   1029e:	48 8d 85 88 ec ff ff 	lea    -0x1378(%rbp),%rax
   102a5:	48 89 85 00 fd ff ff 	mov    %rax,-0x300(%rbp)
   102ac:	48 8d 85 88 ec ff ff 	lea    -0x1378(%rbp),%rax
   102b3:	48 89 85 08 fd ff ff 	mov    %rax,-0x2f8(%rbp)
   102ba:	48 8d 85 90 ec ff ff 	lea    -0x1370(%rbp),%rax
   102c1:	48 89 85 10 fd ff ff 	mov    %rax,-0x2f0(%rbp)
   102c8:	48 8d 85 88 ec ff ff 	lea    -0x1378(%rbp),%rax
   102cf:	48 89 85 18 fd ff ff 	mov    %rax,-0x2e8(%rbp)
   102d6:	48 8d 85 88 ec ff ff 	lea    -0x1378(%rbp),%rax
   102dd:	48 89 85 20 fd ff ff 	mov    %rax,-0x2e0(%rbp)
   102e4:	48 c7 85 28 fd ff ff 	movq   $0x0,-0x2d8(%rbp)
   102eb:	00 00 00 00 
   102ef:	48 8d 85 90 ec ff ff 	lea    -0x1370(%rbp),%rax
   102f6:	48 89 85 30 fd ff ff 	mov    %rax,-0x2d0(%rbp)
   102fd:	48 8d 85 88 ec ff ff 	lea    -0x1378(%rbp),%rax
   10304:	48 89 85 38 fd ff ff 	mov    %rax,-0x2c8(%rbp)
   1030b:	48 c7 85 40 fd ff ff 	movq   $0x0,-0x2c0(%rbp)
   10312:	00 00 00 00 
   10316:	48 8d 85 90 ec ff ff 	lea    -0x1370(%rbp),%rax
   1031d:	48 89 85 48 fd ff ff 	mov    %rax,-0x2b8(%rbp)
   10324:	48 8d 85 90 ec ff ff 	lea    -0x1370(%rbp),%rax
   1032b:	48 89 85 50 fd ff ff 	mov    %rax,-0x2b0(%rbp)
   10332:	48 8d 85 90 ec ff ff 	lea    -0x1370(%rbp),%rax
   10339:	48 89 85 58 fd ff ff 	mov    %rax,-0x2a8(%rbp)
   10340:	48 8d 85 88 ec ff ff 	lea    -0x1378(%rbp),%rax
   10347:	48 89 85 60 fd ff ff 	mov    %rax,-0x2a0(%rbp)
   1034e:	48 8d 85 88 ec ff ff 	lea    -0x1378(%rbp),%rax
   10355:	48 89 85 68 fd ff ff 	mov    %rax,-0x298(%rbp)
   1035c:	48 8d 85 90 ec ff ff 	lea    -0x1370(%rbp),%rax
   10363:	48 89 85 70 fd ff ff 	mov    %rax,-0x290(%rbp)
   1036a:	48 8d 85 90 ec ff ff 	lea    -0x1370(%rbp),%rax
   10371:	48 89 85 78 fd ff ff 	mov    %rax,-0x288(%rbp)
   10378:	48 8d 85 90 ec ff ff 	lea    -0x1370(%rbp),%rax
   1037f:	48 89 85 80 fd ff ff 	mov    %rax,-0x280(%rbp)
   10386:	48 8d 85 90 ec ff ff 	lea    -0x1370(%rbp),%rax
   1038d:	48 89 85 88 fd ff ff 	mov    %rax,-0x278(%rbp)
   10394:	48 8d 85 90 ec ff ff 	lea    -0x1370(%rbp),%rax
   1039b:	48 89 85 90 fd ff ff 	mov    %rax,-0x270(%rbp)
   103a2:	48 8d 85 90 ec ff ff 	lea    -0x1370(%rbp),%rax
   103a9:	48 89 85 98 fd ff ff 	mov    %rax,-0x268(%rbp)
   103b0:	48 8d 85 88 ec ff ff 	lea    -0x1378(%rbp),%rax
   103b7:	48 89 85 a0 fd ff ff 	mov    %rax,-0x260(%rbp)
   103be:	48 8d 05 3b 62 01 00 	lea    0x1623b(%rip),%rax        # 26600 <g_1323>
   103c5:	48 89 85 a8 fd ff ff 	mov    %rax,-0x258(%rbp)
   103cc:	48 c7 85 b0 fd ff ff 	movq   $0x0,-0x250(%rbp)
   103d3:	00 00 00 00 
   103d7:	48 8d 85 90 ec ff ff 	lea    -0x1370(%rbp),%rax
   103de:	48 89 85 b8 fd ff ff 	mov    %rax,-0x248(%rbp)
   103e5:	48 8d 85 88 ec ff ff 	lea    -0x1378(%rbp),%rax
   103ec:	48 89 85 c0 fd ff ff 	mov    %rax,-0x240(%rbp)
   103f3:	48 8d 85 88 ec ff ff 	lea    -0x1378(%rbp),%rax
   103fa:	48 89 85 c8 fd ff ff 	mov    %rax,-0x238(%rbp)
   10401:	48 8d 85 88 ec ff ff 	lea    -0x1378(%rbp),%rax
   10408:	48 89 85 d0 fd ff ff 	mov    %rax,-0x230(%rbp)
   1040f:	48 c7 85 d8 fd ff ff 	movq   $0x0,-0x228(%rbp)
   10416:	00 00 00 00 
   1041a:	48 8d 05 df 61 01 00 	lea    0x161df(%rip),%rax        # 26600 <g_1323>
   10421:	48 89 85 e0 fd ff ff 	mov    %rax,-0x220(%rbp)
   10428:	48 8d 85 90 ec ff ff 	lea    -0x1370(%rbp),%rax
   1042f:	48 89 85 e8 fd ff ff 	mov    %rax,-0x218(%rbp)
   10436:	48 c7 85 f0 fd ff ff 	movq   $0x0,-0x210(%rbp)
   1043d:	00 00 00 00 
   10441:	48 8d 05 b8 61 01 00 	lea    0x161b8(%rip),%rax        # 26600 <g_1323>
   10448:	48 89 85 f8 fd ff ff 	mov    %rax,-0x208(%rbp)
   1044f:	48 8d 85 88 ec ff ff 	lea    -0x1378(%rbp),%rax
   10456:	48 89 85 00 fe ff ff 	mov    %rax,-0x200(%rbp)
   1045d:	48 8d 05 9c 61 01 00 	lea    0x1619c(%rip),%rax        # 26600 <g_1323>
   10464:	48 89 85 08 fe ff ff 	mov    %rax,-0x1f8(%rbp)
   1046b:	48 8d 05 8e 61 01 00 	lea    0x1618e(%rip),%rax        # 26600 <g_1323>
   10472:	48 89 85 10 fe ff ff 	mov    %rax,-0x1f0(%rbp)
   10479:	48 8d 85 88 ec ff ff 	lea    -0x1378(%rbp),%rax
   10480:	48 89 85 18 fe ff ff 	mov    %rax,-0x1e8(%rbp)
   10487:	48 8d 05 72 61 01 00 	lea    0x16172(%rip),%rax        # 26600 <g_1323>
   1048e:	48 89 85 20 fe ff ff 	mov    %rax,-0x1e0(%rbp)
   10495:	48 8d 05 64 61 01 00 	lea    0x16164(%rip),%rax        # 26600 <g_1323>
   1049c:	48 89 85 28 fe ff ff 	mov    %rax,-0x1d8(%rbp)
   104a3:	48 8d 85 88 ec ff ff 	lea    -0x1378(%rbp),%rax
   104aa:	48 89 85 30 fe ff ff 	mov    %rax,-0x1d0(%rbp)
   104b1:	48 8d 05 48 61 01 00 	lea    0x16148(%rip),%rax        # 26600 <g_1323>
   104b8:	48 89 85 38 fe ff ff 	mov    %rax,-0x1c8(%rbp)
   104bf:	48 8d 85 88 ec ff ff 	lea    -0x1378(%rbp),%rax
   104c6:	48 89 85 40 fe ff ff 	mov    %rax,-0x1c0(%rbp)
   104cd:	48 c7 85 48 fe ff ff 	movq   $0x0,-0x1b8(%rbp)
   104d4:	00 00 00 00 
   104d8:	48 c7 85 50 fe ff ff 	movq   $0x0,-0x1b0(%rbp)
   104df:	00 00 00 00 
   104e3:	48 c7 85 58 fe ff ff 	movq   $0x0,-0x1a8(%rbp)
   104ea:	00 00 00 00 
   104ee:	48 8d 85 88 ec ff ff 	lea    -0x1378(%rbp),%rax
   104f5:	48 89 85 60 fe ff ff 	mov    %rax,-0x1a0(%rbp)
   104fc:	48 c7 85 68 fe ff ff 	movq   $0x0,-0x198(%rbp)
   10503:	00 00 00 00 
   10507:	48 8d 05 f2 60 01 00 	lea    0x160f2(%rip),%rax        # 26600 <g_1323>
   1050e:	48 89 85 70 fe ff ff 	mov    %rax,-0x190(%rbp)
   10515:	48 8d 85 90 ec ff ff 	lea    -0x1370(%rbp),%rax
   1051c:	48 89 85 78 fe ff ff 	mov    %rax,-0x188(%rbp)
   10523:	48 8d 05 d6 60 01 00 	lea    0x160d6(%rip),%rax        # 26600 <g_1323>
   1052a:	48 89 85 80 fe ff ff 	mov    %rax,-0x180(%rbp)
   10531:	48 c7 85 88 fe ff ff 	movq   $0x0,-0x178(%rbp)
   10538:	00 00 00 00 
   1053c:	48 8d 85 88 ec ff ff 	lea    -0x1378(%rbp),%rax
   10543:	48 89 85 90 fe ff ff 	mov    %rax,-0x170(%rbp)
   1054a:	48 c7 85 98 fe ff ff 	movq   $0x0,-0x168(%rbp)
   10551:	00 00 00 00 
   10555:	48 8d 05 a4 60 01 00 	lea    0x160a4(%rip),%rax        # 26600 <g_1323>
   1055c:	48 89 85 a0 fe ff ff 	mov    %rax,-0x160(%rbp)
   10563:	48 8d 85 88 ec ff ff 	lea    -0x1378(%rbp),%rax
   1056a:	48 89 85 a8 fe ff ff 	mov    %rax,-0x158(%rbp)
   10571:	48 8d 05 88 60 01 00 	lea    0x16088(%rip),%rax        # 26600 <g_1323>
   10578:	48 89 85 b0 fe ff ff 	mov    %rax,-0x150(%rbp)
   1057f:	48 8d 05 7a 60 01 00 	lea    0x1607a(%rip),%rax        # 26600 <g_1323>
   10586:	48 89 85 b8 fe ff ff 	mov    %rax,-0x148(%rbp)
   1058d:	48 8d 85 90 ec ff ff 	lea    -0x1370(%rbp),%rax
   10594:	48 89 85 c0 fe ff ff 	mov    %rax,-0x140(%rbp)
   1059b:	48 c7 85 c8 fe ff ff 	movq   $0x0,-0x138(%rbp)
   105a2:	00 00 00 00 
   105a6:	48 8d 85 88 ec ff ff 	lea    -0x1378(%rbp),%rax
   105ad:	48 89 85 d0 fe ff ff 	mov    %rax,-0x130(%rbp)
   105b4:	48 8d 85 88 ec ff ff 	lea    -0x1378(%rbp),%rax
   105bb:	48 89 85 d8 fe ff ff 	mov    %rax,-0x128(%rbp)
   105c2:	48 8d 05 37 60 01 00 	lea    0x16037(%rip),%rax        # 26600 <g_1323>
   105c9:	48 89 85 e0 fe ff ff 	mov    %rax,-0x120(%rbp)
   105d0:	48 8d 05 29 60 01 00 	lea    0x16029(%rip),%rax        # 26600 <g_1323>
   105d7:	48 89 85 e8 fe ff ff 	mov    %rax,-0x118(%rbp)
   105de:	48 8d 05 1b 60 01 00 	lea    0x1601b(%rip),%rax        # 26600 <g_1323>
   105e5:	48 89 85 f0 fe ff ff 	mov    %rax,-0x110(%rbp)
   105ec:	48 8d 85 88 ec ff ff 	lea    -0x1378(%rbp),%rax
   105f3:	48 89 85 f8 fe ff ff 	mov    %rax,-0x108(%rbp)
   105fa:	48 8d 05 ff 5f 01 00 	lea    0x15fff(%rip),%rax        # 26600 <g_1323>
   10601:	48 89 85 00 ff ff ff 	mov    %rax,-0x100(%rbp)
   10608:	48 8d 85 88 ec ff ff 	lea    -0x1378(%rbp),%rax
   1060f:	48 89 85 08 ff ff ff 	mov    %rax,-0xf8(%rbp)
   10616:	48 8d 85 88 ec ff ff 	lea    -0x1378(%rbp),%rax
   1061d:	48 89 85 10 ff ff ff 	mov    %rax,-0xf0(%rbp)
   10624:	48 8d 05 d5 5f 01 00 	lea    0x15fd5(%rip),%rax        # 26600 <g_1323>
   1062b:	48 89 85 18 ff ff ff 	mov    %rax,-0xe8(%rbp)
   10632:	48 c7 85 20 ff ff ff 	movq   $0x0,-0xe0(%rbp)
   10639:	00 00 00 00 
   1063d:	48 c7 85 28 ff ff ff 	movq   $0x0,-0xd8(%rbp)
   10644:	00 00 00 00 
   10648:	48 8d 05 b1 5f 01 00 	lea    0x15fb1(%rip),%rax        # 26600 <g_1323>
   1064f:	48 89 85 30 ff ff ff 	mov    %rax,-0xd0(%rbp)
   10656:	48 c7 85 38 ff ff ff 	movq   $0x0,-0xc8(%rbp)
   1065d:	00 00 00 00 
   10661:	48 8d 85 88 ec ff ff 	lea    -0x1378(%rbp),%rax
   10668:	48 89 85 40 ff ff ff 	mov    %rax,-0xc0(%rbp)
   1066f:	48 c7 85 48 ff ff ff 	movq   $0x0,-0xb8(%rbp)
   10676:	00 00 00 00 
   1067a:	48 8d 85 88 ec ff ff 	lea    -0x1378(%rbp),%rax
   10681:	48 89 85 50 ff ff ff 	mov    %rax,-0xb0(%rbp)
   10688:	48 8d 05 71 5f 01 00 	lea    0x15f71(%rip),%rax        # 26600 <g_1323>
   1068f:	48 89 85 58 ff ff ff 	mov    %rax,-0xa8(%rbp)
   10696:	48 c7 85 60 ff ff ff 	movq   $0x0,-0xa0(%rbp)
   1069d:	00 00 00 00 
   106a1:	48 8d 85 88 ec ff ff 	lea    -0x1378(%rbp),%rax
   106a8:	48 89 85 68 ff ff ff 	mov    %rax,-0x98(%rbp)
   106af:	48 c7 85 70 ff ff ff 	movq   $0x0,-0x90(%rbp)
   106b6:	00 00 00 00 
   106ba:	48 8d 05 3f 5f 01 00 	lea    0x15f3f(%rip),%rax        # 26600 <g_1323>
   106c1:	48 89 85 78 ff ff ff 	mov    %rax,-0x88(%rbp)
   106c8:	48 8d 05 31 5f 01 00 	lea    0x15f31(%rip),%rax        # 26600 <g_1323>
   106cf:	48 89 45 80          	mov    %rax,-0x80(%rbp)
   106d3:	48 8d 85 88 ec ff ff 	lea    -0x1378(%rbp),%rax
   106da:	48 89 45 88          	mov    %rax,-0x78(%rbp)
   106de:	48 8d 85 88 ec ff ff 	lea    -0x1378(%rbp),%rax
   106e5:	48 89 45 90          	mov    %rax,-0x70(%rbp)
   106e9:	48 8d 05 10 5f 01 00 	lea    0x15f10(%rip),%rax        # 26600 <g_1323>
   106f0:	48 89 45 98          	mov    %rax,-0x68(%rbp)
   106f4:	48 8d 05 05 5f 01 00 	lea    0x15f05(%rip),%rax        # 26600 <g_1323>
   106fb:	48 89 45 a0          	mov    %rax,-0x60(%rbp)
   106ff:	48 8d 05 fa 5e 01 00 	lea    0x15efa(%rip),%rax        # 26600 <g_1323>
   10706:	48 89 45 a8          	mov    %rax,-0x58(%rbp)
   1070a:	48 8d 85 90 ec ff ff 	lea    -0x1370(%rbp),%rax
   10711:	48 89 45 b0          	mov    %rax,-0x50(%rbp)
   10715:	48 8d 05 e4 5e 01 00 	lea    0x15ee4(%rip),%rax        # 26600 <g_1323>
   1071c:	48 89 45 b8          	mov    %rax,-0x48(%rbp)
   10720:	48 c7 45 c0 00 00 00 	movq   $0x0,-0x40(%rbp)
   10727:	00 
   10728:	c7 85 34 eb ff ff ed 	movl   $0xffffffed,-0x14cc(%rbp)
   1072f:	ff ff ff 
   10732:	e9 ba 03 00 00       	jmpq   10af1 <func_28+0x2aa3>
   10737:	48 8d 85 d0 ee ff ff 	lea    -0x1130(%rbp),%rax
   1073e:	48 83 c0 0a          	add    $0xa,%rax
   10742:	48 89 85 68 ee ff ff 	mov    %rax,-0x1198(%rbp)
   10749:	48 c7 85 70 ee ff ff 	movq   $0x0,-0x1190(%rbp)
   10750:	00 00 00 00 
   10754:	48 8d 05 3d 2c 01 00 	lea    0x12c3d(%rip),%rax        # 23398 <g_2568+0x8>
   1075b:	48 89 85 78 ee ff ff 	mov    %rax,-0x1188(%rbp)
   10762:	c7 85 1c ec ff ff 00 	movl   $0x0,-0x13e4(%rbp)
   10769:	00 00 00 
   1076c:	c7 85 a8 eb ff ff 00 	movl   $0x0,-0x1458(%rbp)
   10773:	00 00 00 
   10776:	eb 1a                	jmp    10792 <func_28+0x2744>
   10778:	8b 85 a8 eb ff ff    	mov    -0x1458(%rbp),%eax
   1077e:	48 98                	cltq   
   10780:	c7 84 85 f0 ee ff ff 	movl   $0x5563310,-0x1110(%rbp,%rax,4)
   10787:	10 33 56 05 
   1078b:	83 85 a8 eb ff ff 01 	addl   $0x1,-0x1458(%rbp)
   10792:	83 bd a8 eb ff ff 04 	cmpl   $0x4,-0x1458(%rbp)
   10799:	7e dd                	jle    10778 <func_28+0x272a>
   1079b:	8b 95 b4 eb ff ff    	mov    -0x144c(%rbp),%edx
   107a1:	48 8b 85 48 ed ff ff 	mov    -0x12b8(%rbp),%rax
   107a8:	89 10                	mov    %edx,(%rax)
   107aa:	48 8b 05 47 25 01 00 	mov    0x12547(%rip),%rax        # 22cf8 <g_1352>
   107b1:	48 85 c0             	test   %rax,%rax
   107b4:	74 05                	je     107bb <func_28+0x276d>
   107b6:	e9 6d ff ff ff       	jmpq   10728 <func_28+0x26da>
   107bb:	48 8b 85 90 ed ff ff 	mov    -0x1270(%rbp),%rax
   107c2:	0f b6 00             	movzbl (%rax),%eax
   107c5:	8d 50 01             	lea    0x1(%rax),%edx
   107c8:	48 8b 85 90 ed ff ff 	mov    -0x1270(%rbp),%rax
   107cf:	88 10                	mov    %dl,(%rax)
   107d1:	8b 85 34 eb ff ff    	mov    -0x14cc(%rbp),%eax
   107d7:	41 89 c5             	mov    %eax,%r13d
   107da:	48 8b 85 68 ee ff ff 	mov    -0x1198(%rbp),%rax
   107e1:	0f b7 00             	movzwl (%rax),%eax
   107e4:	83 e0 01             	and    $0x1,%eax
   107e7:	89 c2                	mov    %eax,%edx
   107e9:	48 8b 85 68 ee ff ff 	mov    -0x1198(%rbp),%rax
   107f0:	66 89 10             	mov    %dx,(%rax)
   107f3:	48 8b 85 68 ee ff ff 	mov    -0x1198(%rbp),%rax
   107fa:	0f b7 00             	movzwl (%rax),%eax
   107fd:	0f bf d0             	movswl %ax,%edx
   10800:	8b 85 34 eb ff ff    	mov    -0x14cc(%rbp),%eax
   10806:	98                   	cwtl   
   10807:	89 d6                	mov    %edx,%esi
   10809:	89 c7                	mov    %eax,%edi
   1080b:	e8 82 7c ff ff       	callq  8492 <safe_lshift_func_int16_t_s_s>
   10810:	66 85 c0             	test   %ax,%ax
   10813:	0f 85 bf 00 00 00    	jne    108d8 <func_28+0x288a>
   10819:	48 8b 85 38 eb ff ff 	mov    -0x14c8(%rbp),%rax
   10820:	0f b6 00             	movzbl (%rax),%eax
   10823:	0f b6 d8             	movzbl %al,%ebx
   10826:	8b 85 34 eb ff ff    	mov    -0x14cc(%rbp),%eax
   1082c:	44 0f b7 e0          	movzwl %ax,%r12d
   10830:	48 8b 85 a0 ed ff ff 	mov    -0x1260(%rbp),%rax
   10837:	48 3b 85 70 ee ff ff 	cmp    -0x1190(%rbp),%rax
   1083e:	0f 95 c0             	setne  %al
   10841:	0f b6 c0             	movzbl %al,%eax
   10844:	89 c6                	mov    %eax,%esi
   10846:	bf ba eb ff ff       	mov    $0xffffebba,%edi
   1084b:	e8 83 7b ff ff       	callq  83d3 <safe_sub_func_int16_t_s_s>
   10850:	0f b7 c0             	movzwl %ax,%eax
   10853:	44 89 e6             	mov    %r12d,%esi
   10856:	89 c7                	mov    %eax,%edi
   10858:	e8 ff 84 ff ff       	callq  8d5c <safe_mod_func_uint16_t_u_u>
   1085d:	66 83 f8 01          	cmp    $0x1,%ax
   10861:	0f 95 c0             	setne  %al
   10864:	0f b6 d0             	movzbl %al,%edx
   10867:	8b 85 34 eb ff ff    	mov    -0x14cc(%rbp),%eax
   1086d:	39 c2                	cmp    %eax,%edx
   1086f:	0f 95 c0             	setne  %al
   10872:	0f b6 d0             	movzbl %al,%edx
   10875:	48 8b 85 28 ee ff ff 	mov    -0x11d8(%rbp),%rax
   1087c:	48 8b 00             	mov    (%rax),%rax
   1087f:	48 8b 00             	mov    (%rax),%rax
   10882:	48 8b 08             	mov    (%rax),%rcx
   10885:	48 63 d2             	movslq %edx,%rdx
   10888:	48 8b 85 28 ee ff ff 	mov    -0x11d8(%rbp),%rax
   1088f:	48 8b 00             	mov    (%rax),%rax
   10892:	48 8b 00             	mov    (%rax),%rax
   10895:	48 09 ca             	or     %rcx,%rdx
   10898:	48 89 10             	mov    %rdx,(%rax)
   1089b:	48 8b 10             	mov    (%rax),%rdx
   1089e:	8b 85 34 eb ff ff    	mov    -0x14cc(%rbp),%eax
   108a4:	48 98                	cltq   
   108a6:	48 39 c2             	cmp    %rax,%rdx
   108a9:	0f 9f c2             	setg   %dl
   108ac:	48 8b 05 f5 41 01 00 	mov    0x141f5(%rip),%rax        # 24aa8 <g_725>
   108b3:	48 8b 00             	mov    (%rax),%rax
   108b6:	0f b6 d2             	movzbl %dl,%edx
   108b9:	48 89 10             	mov    %rdx,(%rax)
   108bc:	8b 85 34 eb ff ff    	mov    -0x14cc(%rbp),%eax
   108c2:	83 f8 01             	cmp    $0x1,%eax
   108c5:	0f 95 c0             	setne  %al
   108c8:	0f b6 c0             	movzbl %al,%eax
   108cb:	89 de                	mov    %ebx,%esi
   108cd:	89 c7                	mov    %eax,%edi
   108cf:	e8 bf 82 ff ff       	callq  8b93 <safe_mul_func_uint8_t_u_u>
   108d4:	84 c0                	test   %al,%al
   108d6:	74 07                	je     108df <func_28+0x2891>
   108d8:	b8 01 00 00 00       	mov    $0x1,%eax
   108dd:	eb 05                	jmp    108e4 <func_28+0x2896>
   108df:	b8 00 00 00 00       	mov    $0x0,%eax
   108e4:	44 89 ee             	mov    %r13d,%esi
   108e7:	89 c7                	mov    %eax,%edi
   108e9:	e8 e2 85 ff ff       	callq  8ed0 <safe_sub_func_uint32_t_u_u>
   108ee:	85 c0                	test   %eax,%eax
   108f0:	0f 94 c0             	sete   %al
   108f3:	0f b6 d0             	movzbl %al,%edx
   108f6:	8b 85 34 eb ff ff    	mov    -0x14cc(%rbp),%eax
   108fc:	39 c2                	cmp    %eax,%edx
   108fe:	0f 9f c0             	setg   %al
   10901:	0f b6 c8             	movzbl %al,%ecx
   10904:	48 8d 05 7d 14 01 00 	lea    0x1147d(%rip),%rax        # 21d88 <g_2928+0xe8>
   1090b:	48 8b 00             	mov    (%rax),%rax
   1090e:	8b 10                	mov    (%rax),%edx
   10910:	48 8d 05 71 14 01 00 	lea    0x11471(%rip),%rax        # 21d88 <g_2928+0xe8>
   10917:	48 8b 00             	mov    (%rax),%rax
   1091a:	09 ca                	or     %ecx,%edx
   1091c:	89 10                	mov    %edx,(%rax)
   1091e:	48 8b 85 38 eb ff ff 	mov    -0x14c8(%rbp),%rax
   10925:	0f b6 00             	movzbl (%rax),%eax
   10928:	4c 0f be f0          	movsbq %al,%r14
   1092c:	48 8b 05 05 45 01 00 	mov    0x14505(%rip),%rax        # 24e38 <g_2823>
   10933:	48 8b 18             	mov    (%rax),%rbx
   10936:	48 8b 85 c0 ec ff ff 	mov    -0x1340(%rbp),%rax
   1093d:	8b 00                	mov    (%rax),%eax
   1093f:	98                   	cwtl   
   10940:	89 c6                	mov    %eax,%esi
   10942:	bf b5 11 00 00       	mov    $0x11b5,%edi
   10947:	e8 ca 7a ff ff       	callq  8416 <safe_mod_func_int16_t_s_s>
   1094c:	48 83 bd 40 ee ff ff 	cmpq   $0x0,-0x11c0(%rbp)
   10953:	00 
   10954:	0f 95 c0             	setne  %al
   10957:	44 0f b6 f8          	movzbl %al,%r15d
   1095b:	8b 85 34 eb ff ff    	mov    -0x14cc(%rbp),%eax
   10961:	4c 63 e0             	movslq %eax,%r12
   10964:	8b 85 f8 ee ff ff    	mov    -0x1108(%rbp),%eax
   1096a:	44 0f b7 e8          	movzwl %ax,%r13d
   1096e:	48 8b 85 38 ec ff ff 	mov    -0x13c8(%rbp),%rax
   10975:	48 8b 00             	mov    (%rax),%rax
   10978:	48 8b 00             	mov    (%rax),%rax
   1097b:	8b 00                	mov    (%rax),%eax
   1097d:	3d 3e 33 00 00       	cmp    $0x333e,%eax
   10982:	0f 95 c0             	setne  %al
   10985:	0f b6 c0             	movzbl %al,%eax
   10988:	48 89 c7             	mov    %rax,%rdi
   1098b:	e8 89 86 ff ff       	callq  9019 <safe_unary_minus_func_uint64_t_u>
   10990:	98                   	cwtl   
   10991:	be 0d 00 00 00       	mov    $0xd,%esi
   10996:	89 c7                	mov    %eax,%edi
   10998:	e8 44 7b ff ff       	callq  84e1 <safe_lshift_func_int16_t_s_u>
   1099d:	0f bf d0             	movswl %ax,%edx
   109a0:	8b 85 34 eb ff ff    	mov    -0x14cc(%rbp),%eax
   109a6:	39 c2                	cmp    %eax,%edx
   109a8:	7c 07                	jl     109b1 <func_28+0x2963>
   109aa:	80 bd 4f eb ff ff 00 	cmpb   $0x0,-0x14b1(%rbp)
   109b1:	44 89 ee             	mov    %r13d,%esi
   109b4:	bf 00 00 00 00       	mov    $0x0,%edi
   109b9:	e8 d0 83 ff ff       	callq  8d8e <safe_div_func_uint16_t_u_u>
   109be:	0f b7 d0             	movzwl %ax,%edx
   109c1:	8b 85 fc ee ff ff    	mov    -0x1104(%rbp),%eax
   109c7:	39 c2                	cmp    %eax,%edx
   109c9:	0f 95 c0             	setne  %al
   109cc:	0f b6 d0             	movzbl %al,%edx
   109cf:	0f b7 85 58 eb ff ff 	movzwl -0x14a8(%rbp),%eax
   109d6:	0f b6 c0             	movzbl %al,%eax
   109d9:	89 d6                	mov    %edx,%esi
   109db:	89 c7                	mov    %eax,%edi
   109dd:	e8 6a 82 ff ff       	callq  8c4c <safe_lshift_func_uint8_t_u_u>
   109e2:	0f b6 c0             	movzbl %al,%eax
   109e5:	4c 89 e6             	mov    %r12,%rsi
   109e8:	48 89 c7             	mov    %rax,%rdi
   109eb:	e8 c4 7f ff ff       	callq  89b4 <safe_mod_func_int64_t_s_s>
   109f0:	49 39 c7             	cmp    %rax,%r15
   109f3:	0f 9f c0             	setg   %al
   109f6:	0f b6 d0             	movzbl %al,%edx
   109f9:	8b 85 34 eb ff ff    	mov    -0x14cc(%rbp),%eax
   109ff:	39 c2                	cmp    %eax,%edx
   10a01:	0f 9c c0             	setl   %al
   10a04:	0f b6 d0             	movzbl %al,%edx
   10a07:	8b 85 34 eb ff ff    	mov    -0x14cc(%rbp),%eax
   10a0d:	31 d0                	xor    %edx,%eax
   10a0f:	89 c6                	mov    %eax,%esi
   10a11:	bf cc d0 ff ff       	mov    $0xffffd0cc,%edi
   10a16:	e8 0f 7b ff ff       	callq  852a <safe_rshift_func_int16_t_s_s>
   10a1b:	48 8b 85 c0 ec ff ff 	mov    -0x1340(%rbp),%rax
   10a22:	8b 10                	mov    (%rax),%edx
   10a24:	8b 85 34 eb ff ff    	mov    -0x14cc(%rbp),%eax
   10a2a:	39 c2                	cmp    %eax,%edx
   10a2c:	0f 9f c0             	setg   %al
   10a2f:	0f b6 c0             	movzbl %al,%eax
   10a32:	be 08 00 00 00       	mov    $0x8,%esi
   10a37:	48 89 c7             	mov    %rax,%rdi
   10a3a:	e8 70 86 ff ff       	callq  90af <safe_div_func_uint64_t_u_u>
   10a3f:	48 85 c0             	test   %rax,%rax
   10a42:	48 89 de             	mov    %rbx,%rsi
   10a45:	bf 00 00 00 00       	mov    $0x0,%edi
   10a4a:	e8 f2 7d ff ff       	callq  8841 <safe_add_func_int64_t_s_s>
   10a4f:	48 0f be 95 4f eb ff 	movsbq -0x14b1(%rbp),%rdx
   10a56:	ff 
   10a57:	48 09 d0             	or     %rdx,%rax
   10a5a:	49 39 c6             	cmp    %rax,%r14
   10a5d:	0f 95 c0             	setne  %al
   10a60:	0f b6 d0             	movzbl %al,%edx
   10a63:	48 8b 85 78 ee ff ff 	mov    -0x1188(%rbp),%rax
   10a6a:	0f b7 00             	movzwl (%rax),%eax
   10a6d:	8d 70 01             	lea    0x1(%rax),%esi
   10a70:	48 8b 8d 78 ee ff ff 	mov    -0x1188(%rbp),%rcx
   10a77:	66 89 31             	mov    %si,(%rcx)
   10a7a:	0f b7 c0             	movzwl %ax,%eax
   10a7d:	89 d6                	mov    %edx,%esi
   10a7f:	89 c7                	mov    %eax,%edi
   10a81:	e8 b7 82 ff ff       	callq  8d3d <safe_mul_func_uint16_t_u_u>
   10a86:	8b 95 f8 ee ff ff    	mov    -0x1108(%rbp),%edx
   10a8c:	48 8b 05 15 40 01 00 	mov    0x14015(%rip),%rax        # 24aa8 <g_725>
   10a93:	48 8b 00             	mov    (%rax),%rax
   10a96:	48 8b 08             	mov    (%rax),%rcx
   10a99:	48 63 d2             	movslq %edx,%rdx
   10a9c:	48 8b 05 05 40 01 00 	mov    0x14005(%rip),%rax        # 24aa8 <g_725>
   10aa3:	48 8b 00             	mov    (%rax),%rax
   10aa6:	48 21 ca             	and    %rcx,%rdx
   10aa9:	48 89 10             	mov    %rdx,(%rax)
   10aac:	48 8b 10             	mov    (%rax),%rdx
   10aaf:	8b 85 34 eb ff ff    	mov    -0x14cc(%rbp),%eax
   10ab5:	48 98                	cltq   
   10ab7:	48 39 c2             	cmp    %rax,%rdx
   10aba:	75 08                	jne    10ac4 <func_28+0x2a76>
   10abc:	8b 85 34 eb ff ff    	mov    -0x14cc(%rbp),%eax
   10ac2:	85 c0                	test   %eax,%eax
   10ac4:	48 8b 05 9d 43 01 00 	mov    0x1439d(%rip),%rax        # 24e68 <g_2925>
   10acb:	48 8b 00             	mov    (%rax),%rax
   10ace:	48 8b 00             	mov    (%rax),%rax
   10ad1:	48 8b 00             	mov    (%rax),%rax
   10ad4:	c7 00 01 00 00 00    	movl   $0x1,(%rax)
   10ada:	8b 00                	mov    (%rax),%eax
   10adc:	09 85 1c ec ff ff    	or     %eax,-0x13e4(%rbp)
   10ae2:	8b 85 34 eb ff ff    	mov    -0x14cc(%rbp),%eax
   10ae8:	83 c0 01             	add    $0x1,%eax
   10aeb:	89 85 34 eb ff ff    	mov    %eax,-0x14cc(%rbp)
   10af1:	8b 85 34 eb ff ff    	mov    -0x14cc(%rbp),%eax
   10af7:	83 f8 f1             	cmp    $0xfffffff1,%eax
   10afa:	0f 85 37 fc ff ff    	jne    10737 <func_28+0x26e9>
   10b00:	8b 85 34 eb ff ff    	mov    -0x14cc(%rbp),%eax
   10b06:	48 63 d8             	movslq %eax,%rbx
   10b09:	8b 85 34 eb ff ff    	mov    -0x14cc(%rbp),%eax
   10b0f:	48 63 d0             	movslq %eax,%rdx
   10b12:	48 8b 05 1f 43 01 00 	mov    0x1431f(%rip),%rax        # 24e38 <g_2823>
   10b19:	48 8b 38             	mov    (%rax),%rdi
   10b1c:	48 8b 05 45 43 01 00 	mov    0x14345(%rip),%rax        # 24e68 <g_2925>
   10b23:	48 8b 00             	mov    (%rax),%rax
   10b26:	48 8b 00             	mov    (%rax),%rax
   10b29:	48 8b 00             	mov    (%rax),%rax
   10b2c:	8b 00                	mov    (%rax),%eax
   10b2e:	85 c0                	test   %eax,%eax
   10b30:	74 77                	je     10ba9 <func_28+0x2b5b>
   10b32:	48 8b 85 60 ee ff ff 	mov    -0x11a0(%rbp),%rax
   10b39:	0f b7 00             	movzwl (%rax),%eax
   10b3c:	8d 70 ff             	lea    -0x1(%rax),%esi
   10b3f:	48 8b 8d 60 ee ff ff 	mov    -0x11a0(%rbp),%rcx
   10b46:	66 89 31             	mov    %si,(%rcx)
   10b49:	0f b7 c0             	movzwl %ax,%eax
   10b4c:	39 85 18 ec ff ff    	cmp    %eax,-0x13e8(%rbp)
   10b52:	0f 9f c0             	setg   %al
   10b55:	0f b6 c8             	movzbl %al,%ecx
   10b58:	8b 85 50 f2 ff ff    	mov    -0xdb0(%rbp),%eax
   10b5e:	21 c8                	and    %ecx,%eax
   10b60:	89 85 50 f2 ff ff    	mov    %eax,-0xdb0(%rbp)
   10b66:	8b 85 50 f2 ff ff    	mov    -0xdb0(%rbp),%eax
   10b6c:	89 85 0c ec ff ff    	mov    %eax,-0x13f4(%rbp)
   10b72:	83 bd 0c ec ff ff 00 	cmpl   $0x0,-0x13f4(%rbp)
   10b79:	75 0a                	jne    10b85 <func_28+0x2b37>
   10b7b:	8b 85 34 eb ff ff    	mov    -0x14cc(%rbp),%eax
   10b81:	85 c0                	test   %eax,%eax
   10b83:	74 07                	je     10b8c <func_28+0x2b3e>
   10b85:	b8 01 00 00 00       	mov    $0x1,%eax
   10b8a:	eb 05                	jmp    10b91 <func_28+0x2b43>
   10b8c:	b8 00 00 00 00       	mov    $0x0,%eax
   10b91:	83 f8 09             	cmp    $0x9,%eax
   10b94:	48 8b 85 60 ec ff ff 	mov    -0x13a0(%rbp),%rax
   10b9b:	48 39 85 48 ee ff ff 	cmp    %rax,-0x11b8(%rbp)
   10ba2:	b8 01 00 00 00       	mov    $0x1,%eax
   10ba7:	eb 05                	jmp    10bae <func_28+0x2b60>
   10ba9:	b8 00 00 00 00       	mov    $0x0,%eax
   10bae:	3b 85 10 ec ff ff    	cmp    -0x13f0(%rbp),%eax
   10bb4:	0f 9c c0             	setl   %al
   10bb7:	0f b6 c0             	movzbl %al,%eax
   10bba:	48 39 c7             	cmp    %rax,%rdi
   10bbd:	7f 07                	jg     10bc6 <func_28+0x2b78>
   10bbf:	b8 01 00 00 00       	mov    $0x1,%eax
   10bc4:	eb 05                	jmp    10bcb <func_28+0x2b7d>
   10bc6:	b8 00 00 00 00       	mov    $0x0,%eax
   10bcb:	48 98                	cltq   
   10bcd:	48 89 d6             	mov    %rdx,%rsi
   10bd0:	48 89 c7             	mov    %rax,%rdi
   10bd3:	e8 69 7c ff ff       	callq  8841 <safe_add_func_int64_t_s_s>
   10bd8:	0f be c0             	movsbl %al,%eax
   10bdb:	be f7 ff ff ff       	mov    $0xfffffff7,%esi
   10be0:	89 c7                	mov    %eax,%edi
   10be2:	e8 2b 76 ff ff       	callq  8212 <safe_mul_func_int8_t_s_s>
   10be7:	48 0f be c0          	movsbq %al,%rax
   10beb:	be 00 00 00 00       	mov    $0x0,%esi
   10bf0:	48 89 c7             	mov    %rax,%rdi
   10bf3:	e8 36 84 ff ff       	callq  902e <safe_add_func_uint64_t_u_u>
   10bf8:	48 8b 05 a9 3e 01 00 	mov    0x13ea9(%rip),%rax        # 24aa8 <g_725>
   10bff:	48 8b 00             	mov    (%rax),%rax
   10c02:	48 8b 00             	mov    (%rax),%rax
   10c05:	48 85 c0             	test   %rax,%rax
   10c08:	74 07                	je     10c11 <func_28+0x2bc3>
   10c0a:	b8 01 00 00 00       	mov    $0x1,%eax
   10c0f:	eb 05                	jmp    10c16 <func_28+0x2bc8>
   10c11:	b8 00 00 00 00       	mov    $0x0,%eax
   10c16:	48 98                	cltq   
   10c18:	25 9e d3 00 00       	and    $0xd39e,%eax
   10c1d:	48 09 c3             	or     %rax,%rbx
   10c20:	48 89 da             	mov    %rbx,%rdx
   10c23:	48 8b 85 c0 ec ff ff 	mov    -0x1340(%rbp),%rax
   10c2a:	8b 00                	mov    (%rax),%eax
   10c2c:	09 c2                	or     %eax,%edx
   10c2e:	48 8b 85 c0 ec ff ff 	mov    -0x1340(%rbp),%rax
   10c35:	89 10                	mov    %edx,(%rax)
   10c37:	83 ad 14 ec ff ff 01 	subl   $0x1,-0x13ec(%rbp)
   10c3e:	48 c7 85 80 ed ff ff 	movq   $0x0,-0x1280(%rbp)
   10c45:	00 00 00 00 
   10c49:	48 83 bd 80 ed ff ff 	cmpq   $0x0,-0x1280(%rbp)
   10c50:	00 
   10c51:	0f 84 84 10 00 00    	je     11cdb <func_28+0x3c8d>
   10c57:	48 8d 05 aa 1d 01 00 	lea    0x11daa(%rip),%rax        # 22a08 <g_126>
   10c5e:	48 89 85 90 ee ff ff 	mov    %rax,-0x1170(%rbp)
   10c65:	48 8b 85 90 ee ff ff 	mov    -0x1170(%rbp),%rax
   10c6c:	e9 1d 11 00 00       	jmpq   11d8e <func_28+0x3d40>
   10c71:	c7 85 bc eb ff ff 53 	movl   $0x185b8453,-0x1444(%rbp)
   10c78:	84 5b 18 
   10c7b:	c7 85 a4 eb ff ff 01 	movl   $0x1,-0x145c(%rbp)
   10c82:	00 00 00 
   10c85:	48 8d 05 64 3c 01 00 	lea    0x13c64(%rip),%rax        # 248f0 <g_450>
   10c8c:	48 89 85 e0 f9 ff ff 	mov    %rax,-0x620(%rbp)
   10c93:	48 8d 05 56 3c 01 00 	lea    0x13c56(%rip),%rax        # 248f0 <g_450>
   10c9a:	48 89 85 e8 f9 ff ff 	mov    %rax,-0x618(%rbp)
   10ca1:	48 8d 05 48 3c 01 00 	lea    0x13c48(%rip),%rax        # 248f0 <g_450>
   10ca8:	48 89 85 f0 f9 ff ff 	mov    %rax,-0x610(%rbp)
   10caf:	48 8d 05 3a 3c 01 00 	lea    0x13c3a(%rip),%rax        # 248f0 <g_450>
   10cb6:	48 89 85 f8 f9 ff ff 	mov    %rax,-0x608(%rbp)
   10cbd:	48 8d 05 2c 3c 01 00 	lea    0x13c2c(%rip),%rax        # 248f0 <g_450>
   10cc4:	48 89 85 00 fa ff ff 	mov    %rax,-0x600(%rbp)
   10ccb:	48 8d 05 1e 3c 01 00 	lea    0x13c1e(%rip),%rax        # 248f0 <g_450>
   10cd2:	48 89 85 08 fa ff ff 	mov    %rax,-0x5f8(%rbp)
   10cd9:	48 8d 05 10 3c 01 00 	lea    0x13c10(%rip),%rax        # 248f0 <g_450>
   10ce0:	48 89 85 10 fa ff ff 	mov    %rax,-0x5f0(%rbp)
   10ce7:	48 8d 05 02 3c 01 00 	lea    0x13c02(%rip),%rax        # 248f0 <g_450>
   10cee:	48 89 85 18 fa ff ff 	mov    %rax,-0x5e8(%rbp)
   10cf5:	48 8d 05 f4 3b 01 00 	lea    0x13bf4(%rip),%rax        # 248f0 <g_450>
   10cfc:	48 89 85 20 fa ff ff 	mov    %rax,-0x5e0(%rbp)
   10d03:	48 8d 05 3e 1d 01 00 	lea    0x11d3e(%rip),%rax        # 22a48 <g_228>
   10d0a:	48 89 85 70 ec ff ff 	mov    %rax,-0x1390(%rbp)
   10d11:	48 8d 85 70 ec ff ff 	lea    -0x1390(%rbp),%rax
   10d18:	48 89 85 78 ec ff ff 	mov    %rax,-0x1388(%rbp)
   10d1f:	48 8d 85 78 ec ff ff 	lea    -0x1388(%rbp),%rax
   10d26:	48 89 85 80 ec ff ff 	mov    %rax,-0x1380(%rbp)
   10d2d:	48 8d 85 80 ec ff ff 	lea    -0x1380(%rbp),%rax
   10d34:	48 89 85 c8 ed ff ff 	mov    %rax,-0x1238(%rbp)
   10d3b:	48 8d 05 f6 1c 01 00 	lea    0x11cf6(%rip),%rax        # 22a38 <g_191+0x18>
   10d42:	48 89 85 d0 ed ff ff 	mov    %rax,-0x1230(%rbp)
   10d49:	c7 85 c0 eb ff ff 6e 	movl   $0xf299d56e,-0x1440(%rbp)
   10d50:	d5 99 f2 
   10d53:	c7 85 c4 eb ff ff 09 	movl   $0x9,-0x143c(%rbp)
   10d5a:	00 00 00 
   10d5d:	8b 9d 34 eb ff ff    	mov    -0x14cc(%rbp),%ebx
   10d63:	48 8b 85 38 eb ff ff 	mov    -0x14c8(%rbp),%rax
   10d6a:	0f b6 00             	movzbl (%rax),%eax
   10d6d:	44 0f be f0          	movsbl %al,%r14d
   10d71:	8b 85 34 eb ff ff    	mov    -0x14cc(%rbp),%eax
   10d77:	89 85 30 eb ff ff    	mov    %eax,-0x14d0(%rbp)
   10d7d:	8b 85 34 eb ff ff    	mov    -0x14cc(%rbp),%eax
   10d83:	44 0f b7 e0          	movzwl %ax,%r12d
   10d87:	8b 85 34 eb ff ff    	mov    -0x14cc(%rbp),%eax
   10d8d:	85 c0                	test   %eax,%eax
   10d8f:	0f 85 b8 00 00 00    	jne    10e4d <func_28+0x2dff>
   10d95:	44 8b ad 34 eb ff ff 	mov    -0x14cc(%rbp),%r13d
   10d9c:	48 8b 05 a5 40 01 00 	mov    0x140a5(%rip),%rax        # 24e48 <g_2832>
   10da3:	48 8b 00             	mov    (%rax),%rax
   10da6:	0f b6 00             	movzbl (%rax),%eax
   10da9:	44 0f be f8          	movsbl %al,%r15d
   10dad:	8b 85 bc eb ff ff    	mov    -0x1444(%rbp),%eax
   10db3:	0f b6 c0             	movzbl %al,%eax
   10db6:	be 00 00 00 00       	mov    $0x0,%esi
   10dbb:	89 c7                	mov    %eax,%edi
   10dbd:	e8 8a 7e ff ff       	callq  8c4c <safe_lshift_func_uint8_t_u_u>
   10dc2:	48 8b 85 c0 ec ff ff 	mov    -0x1340(%rbp),%rax
   10dc9:	8b 00                	mov    (%rax),%eax
   10dcb:	98                   	cwtl   
   10dcc:	be 08 00 00 00       	mov    $0x8,%esi
   10dd1:	89 c7                	mov    %eax,%edi
   10dd3:	e8 09 77 ff ff       	callq  84e1 <safe_lshift_func_int16_t_s_u>
   10dd8:	0f be c0             	movsbl %al,%eax
   10ddb:	be b7 ff ff ff       	mov    $0xffffffb7,%esi
   10de0:	89 c7                	mov    %eax,%edi
   10de2:	e8 ed 73 ff ff       	callq  81d4 <safe_add_func_int8_t_s_s>
   10de7:	48 8b 05 ba 3c 01 00 	mov    0x13cba(%rip),%rax        # 24aa8 <g_725>
   10dee:	48 8b 00             	mov    (%rax),%rax
   10df1:	48 85 c0             	test   %rax,%rax
   10df4:	0f 95 c0             	setne  %al
   10df7:	0f b6 c0             	movzbl %al,%eax
   10dfa:	be 33 db 76 83       	mov    $0x8376db33,%esi
   10dff:	89 c7                	mov    %eax,%edi
   10e01:	e8 b2 80 ff ff       	callq  8eb8 <safe_add_func_uint32_t_u_u>
   10e06:	8b 95 bc eb ff ff    	mov    -0x1444(%rbp),%edx
   10e0c:	39 d0                	cmp    %edx,%eax
   10e0e:	0f 93 c0             	setae  %al
   10e11:	0f b6 c0             	movzbl %al,%eax
   10e14:	44 09 f8             	or     %r15d,%eax
   10e17:	85 c0                	test   %eax,%eax
   10e19:	75 0a                	jne    10e25 <func_28+0x2dd7>
   10e1b:	0f b7 85 50 eb ff ff 	movzwl -0x14b0(%rbp),%eax
   10e22:	66 85 c0             	test   %ax,%ax
   10e25:	be 59 d4 d9 44       	mov    $0x44d9d459,%esi
   10e2a:	bf f3 71 79 58       	mov    $0x587971f3,%edi
   10e2f:	e8 84 80 ff ff       	callq  8eb8 <safe_add_func_uint32_t_u_u>
   10e34:	0f b7 c0             	movzwl %ax,%eax
   10e37:	44 89 ee             	mov    %r13d,%esi
   10e3a:	89 c7                	mov    %eax,%edi
   10e3c:	e8 07 80 ff ff       	callq  8e48 <safe_rshift_func_uint16_t_u_s>
   10e41:	48 8b 85 38 eb ff ff 	mov    -0x14c8(%rbp),%rax
   10e48:	0f b6 00             	movzbl (%rax),%eax
   10e4b:	84 c0                	test   %al,%al
   10e4d:	83 bd bc eb ff ff 06 	cmpl   $0x6,-0x1444(%rbp)
   10e54:	0f 9e c0             	setle  %al
   10e57:	0f b6 d0             	movzbl %al,%edx
   10e5a:	8b 85 34 eb ff ff    	mov    -0x14cc(%rbp),%eax
   10e60:	39 c2                	cmp    %eax,%edx
   10e62:	7e 07                	jle    10e6b <func_28+0x2e1d>
   10e64:	b8 01 00 00 00       	mov    $0x1,%eax
   10e69:	eb 05                	jmp    10e70 <func_28+0x2e22>
   10e6b:	b8 00 00 00 00       	mov    $0x0,%eax
   10e70:	8b 95 34 eb ff ff    	mov    -0x14cc(%rbp),%edx
   10e76:	21 d0                	and    %edx,%eax
   10e78:	0f be c0             	movsbl %al,%eax
   10e7b:	be 01 00 00 00       	mov    $0x1,%esi
   10e80:	89 c7                	mov    %eax,%edi
   10e82:	e8 8b 73 ff ff       	callq  8212 <safe_mul_func_int8_t_s_s>
   10e87:	0f be c0             	movsbl %al,%eax
   10e8a:	be 07 00 00 00       	mov    $0x7,%esi
   10e8f:	89 c7                	mov    %eax,%edi
   10e91:	e8 cd 76 ff ff       	callq  8563 <safe_rshift_func_int16_t_s_u>
   10e96:	0f b7 85 54 eb ff ff 	movzwl -0x14ac(%rbp),%eax
   10e9d:	44 89 e6             	mov    %r12d,%esi
   10ea0:	89 c7                	mov    %eax,%edi
   10ea2:	e8 78 7e ff ff       	callq  8d1f <safe_sub_func_uint16_t_u_u>
   10ea7:	0f b6 c0             	movzbl %al,%eax
   10eaa:	8b b5 30 eb ff ff    	mov    -0x14d0(%rbp),%esi
   10eb0:	89 c7                	mov    %eax,%edi
   10eb2:	e8 95 7d ff ff       	callq  8c4c <safe_lshift_func_uint8_t_u_u>
   10eb7:	0f b6 c0             	movzbl %al,%eax
   10eba:	41 39 c6             	cmp    %eax,%r14d
   10ebd:	0f 95 c0             	setne  %al
   10ec0:	0f b6 c0             	movzbl %al,%eax
   10ec3:	89 de                	mov    %ebx,%esi
   10ec5:	89 c7                	mov    %eax,%edi
   10ec7:	e8 00 78 ff ff       	callq  86cc <safe_mod_func_int32_t_s_s>
   10ecc:	85 c0                	test   %eax,%eax
   10ece:	0f 84 31 09 00 00    	je     11805 <func_28+0x37b7>
   10ed4:	c6 85 4c eb ff ff 00 	movb   $0x0,-0x14b4(%rbp)
   10edb:	c7 85 d0 eb ff ff ff 	movl   $0xffffffff,-0x1430(%rbp)
   10ee2:	ff ff ff 
   10ee5:	c7 85 d4 eb ff ff ab 	movl   $0x8b2518ab,-0x142c(%rbp)
   10eec:	18 25 8b 
   10eef:	c7 85 d8 eb ff ff ea 	movl   $0xa7e242ea,-0x1428(%rbp)
   10ef6:	42 e2 a7 
   10ef9:	c7 85 dc eb ff ff 01 	movl   $0x1,-0x1424(%rbp)
   10f00:	00 00 00 
   10f03:	c7 85 e0 eb ff ff 86 	movl   $0xd69bc286,-0x1420(%rbp)
   10f0a:	c2 9b d6 
   10f0d:	48 8d 85 68 ec ff ff 	lea    -0x1398(%rbp),%rax
   10f14:	48 89 85 e8 ed ff ff 	mov    %rax,-0x1218(%rbp)
   10f1b:	48 c7 85 80 ed ff ff 	movq   $0x3,-0x1280(%rbp)
   10f22:	03 00 00 00 
   10f26:	e9 42 01 00 00       	jmpq   1106d <func_28+0x301f>
   10f2b:	c7 85 00 ec ff ff 66 	movl   $0x6638a966,-0x1400(%rbp)
   10f32:	a9 38 66 
   10f35:	c7 85 04 ec ff ff 20 	movl   $0xc8176220,-0x13fc(%rbp)
   10f3c:	62 17 c8 
   10f3f:	48 8b 85 38 ec ff ff 	mov    -0x13c8(%rbp),%rax
   10f46:	48 8b 00             	mov    (%rax),%rax
   10f49:	48 8d 95 34 eb ff ff 	lea    -0x14cc(%rbp),%rdx
   10f50:	48 89 10             	mov    %rdx,(%rax)
   10f53:	c7 05 5b 24 01 00 00 	movl   $0x0,0x1245b(%rip)        # 233b8 <g_2892>
   10f5a:	00 00 00 
   10f5d:	e9 f4 00 00 00       	jmpq   11056 <func_28+0x3008>
   10f62:	c6 85 4d eb ff ff e9 	movb   $0xe9,-0x14b3(%rbp)
   10f69:	c7 85 08 ec ff ff ff 	movl   $0xffffffff,-0x13f8(%rbp)
   10f70:	ff ff ff 
   10f73:	83 b5 a4 eb ff ff 01 	xorl   $0x1,-0x145c(%rbp)
   10f7a:	48 8b 85 60 ec ff ff 	mov    -0x13a0(%rbp),%rax
   10f81:	48 8b 00             	mov    (%rax),%rax
   10f84:	8b 95 a4 eb ff ff    	mov    -0x145c(%rbp),%edx
   10f8a:	66 89 10             	mov    %dx,(%rax)
   10f8d:	0f b7 00             	movzwl (%rax),%eax
   10f90:	0f b7 c0             	movzwl %ax,%eax
   10f93:	89 85 00 ec ff ff    	mov    %eax,-0x1400(%rbp)
   10f99:	8b 85 00 ec ff ff    	mov    -0x1400(%rbp),%eax
   10f9f:	0f b7 c0             	movzwl %ax,%eax
   10fa2:	be ff ff 00 00       	mov    $0xffff,%esi
   10fa7:	89 c7                	mov    %eax,%edi
   10fa9:	e8 8f 7d ff ff       	callq  8d3d <safe_mul_func_uint16_t_u_u>
   10fae:	66 85 c0             	test   %ax,%ax
   10fb1:	75 0c                	jne    10fbf <func_28+0x2f71>
   10fb3:	48 8d 05 8e 1a 01 00 	lea    0x11a8e(%rip),%rax        # 22a48 <g_228>
   10fba:	0f b6 00             	movzbl (%rax),%eax
   10fbd:	84 c0                	test   %al,%al
   10fbf:	8b 85 bc eb ff ff    	mov    -0x1444(%rbp),%eax
   10fc5:	48 98                	cltq   
   10fc7:	48 89 c6             	mov    %rax,%rsi
   10fca:	bf 01 00 00 00       	mov    $0x1,%edi
   10fcf:	e8 23 7a ff ff       	callq  89f7 <safe_div_func_int64_t_s_s>
   10fd4:	8b 95 34 eb ff ff    	mov    -0x14cc(%rbp),%edx
   10fda:	48 63 d2             	movslq %edx,%rdx
   10fdd:	48 39 d0             	cmp    %rdx,%rax
   10fe0:	0f 95 c0             	setne  %al
   10fe3:	0f b6 c0             	movzbl %al,%eax
   10fe6:	89 85 08 ec ff ff    	mov    %eax,-0x13f8(%rbp)
   10fec:	8b 85 08 ec ff ff    	mov    -0x13f8(%rbp),%eax
   10ff2:	98                   	cwtl   
   10ff3:	be 0b 00 00 00       	mov    $0xb,%esi
   10ff8:	89 c7                	mov    %eax,%edi
   10ffa:	e8 2b 75 ff ff       	callq  852a <safe_rshift_func_int16_t_s_s>
   10fff:	0f bf d0             	movswl %ax,%edx
   11002:	8b 85 34 eb ff ff    	mov    -0x14cc(%rbp),%eax
   11008:	98                   	cwtl   
   11009:	89 d6                	mov    %edx,%esi
   1100b:	89 c7                	mov    %eax,%edi
   1100d:	e8 51 75 ff ff       	callq  8563 <safe_rshift_func_int16_t_s_u>
   11012:	0f b7 d0             	movzwl %ax,%edx
   11015:	80 bd 4d eb ff ff 01 	cmpb   $0x1,-0x14b3(%rbp)
   1101c:	0f 95 c0             	setne  %al
   1101f:	0f b6 c0             	movzbl %al,%eax
   11022:	89 d6                	mov    %edx,%esi
   11024:	89 c7                	mov    %eax,%edi
   11026:	e8 63 7d ff ff       	callq  8d8e <safe_div_func_uint16_t_u_u>
   1102b:	89 c2                	mov    %eax,%edx
   1102d:	48 8d 05 54 0d 01 00 	lea    0x10d54(%rip),%rax        # 21d88 <g_2928+0xe8>
   11034:	48 8b 00             	mov    (%rax),%rax
   11037:	0f b7 d2             	movzwl %dx,%edx
   1103a:	89 10                	mov    %edx,(%rax)
   1103c:	8b 00                	mov    (%rax),%eax
   1103e:	48 98                	cltq   
   11040:	48 89 85 68 ec ff ff 	mov    %rax,-0x1398(%rbp)
   11047:	8b 05 6b 23 01 00    	mov    0x1236b(%rip),%eax        # 233b8 <g_2892>
   1104d:	83 c0 01             	add    $0x1,%eax
   11050:	89 05 62 23 01 00    	mov    %eax,0x12362(%rip)        # 233b8 <g_2892>
   11056:	8b 05 5c 23 01 00    	mov    0x1235c(%rip),%eax        # 233b8 <g_2892>
   1105c:	83 f8 04             	cmp    $0x4,%eax
   1105f:	0f 86 fd fe ff ff    	jbe    10f62 <func_28+0x2f14>
   11065:	48 83 ad 80 ed ff ff 	subq   $0x1,-0x1280(%rbp)
   1106c:	01 
   1106d:	48 83 bd 80 ed ff ff 	cmpq   $0x0,-0x1280(%rbp)
   11074:	00 
   11075:	0f 89 b0 fe ff ff    	jns    10f2b <func_28+0x2edd>
   1107b:	8b 85 34 eb ff ff    	mov    -0x14cc(%rbp),%eax
   11081:	85 c0                	test   %eax,%eax
   11083:	74 63                	je     110e8 <func_28+0x309a>
   11085:	48 b8 75 e7 c0 d2 4f 	movabs $0x7ef7d24fd2c0e775,%rax
   1108c:	d2 f7 7e 
   1108f:	48 89 85 20 ee ff ff 	mov    %rax,-0x11e0(%rbp)
   11096:	48 8b 85 20 ee ff ff 	mov    -0x11e0(%rbp),%rax
   1109d:	0f be c0             	movsbl %al,%eax
   110a0:	be 02 00 00 00       	mov    $0x2,%esi
   110a5:	89 c7                	mov    %eax,%edi
   110a7:	e8 f5 71 ff ff       	callq  82a1 <safe_lshift_func_int8_t_s_s>
   110ac:	48 8b 15 ad 3d 01 00 	mov    0x13dad(%rip),%rdx        # 24e60 <g_2926>
   110b3:	48 8b 12             	mov    (%rdx),%rdx
   110b6:	48 8b 12             	mov    (%rdx),%rdx
   110b9:	8b 0a                	mov    (%rdx),%ecx
   110bb:	0f be d0             	movsbl %al,%edx
   110be:	48 8b 05 9b 3d 01 00 	mov    0x13d9b(%rip),%rax        # 24e60 <g_2926>
   110c5:	48 8b 00             	mov    (%rax),%rax
   110c8:	48 8b 00             	mov    (%rax),%rax
   110cb:	31 ca                	xor    %ecx,%edx
   110cd:	89 10                	mov    %edx,(%rax)
   110cf:	48 8b 85 38 ec ff ff 	mov    -0x13c8(%rbp),%rax
   110d6:	48 8b 00             	mov    (%rax),%rax
   110d9:	48 8d 95 34 eb ff ff 	lea    -0x14cc(%rbp),%rdx
   110e0:	48 89 10             	mov    %rdx,(%rax)
   110e3:	e9 73 05 00 00       	jmpq   1165b <func_28+0x360d>
   110e8:	48 c7 85 f0 ed ff ff 	movq   $0x0,-0x1210(%rbp)
   110ef:	00 00 00 00 
   110f3:	c7 85 e4 eb ff ff 0c 	movl   $0x9185bb0c,-0x141c(%rbp)
   110fa:	bb 85 91 
   110fd:	c7 85 e8 eb ff ff 01 	movl   $0x1,-0x1418(%rbp)
   11104:	00 00 00 
   11107:	48 8d 85 30 ec ff ff 	lea    -0x13d0(%rbp),%rax
   1110e:	48 89 85 88 ec ff ff 	mov    %rax,-0x1378(%rbp)
   11115:	48 8d 85 88 ec ff ff 	lea    -0x1378(%rbp),%rax
   1111c:	48 89 85 90 ec ff ff 	mov    %rax,-0x1370(%rbp)
   11123:	48 8d 05 e6 54 01 00 	lea    0x154e6(%rip),%rax        # 26610 <g_1618>
   1112a:	48 89 85 f8 ed ff ff 	mov    %rax,-0x1208(%rbp)
   11131:	48 8d 85 50 eb ff ff 	lea    -0x14b0(%rbp),%rax
   11138:	48 89 85 98 ec ff ff 	mov    %rax,-0x1368(%rbp)
   1113f:	48 8d 85 98 ec ff ff 	lea    -0x1368(%rbp),%rax
   11146:	48 89 85 00 ee ff ff 	mov    %rax,-0x1200(%rbp)
   1114d:	8b 85 94 eb ff ff    	mov    -0x146c(%rbp),%eax
   11153:	0f be d8             	movsbl %al,%ebx
   11156:	8b 85 34 eb ff ff    	mov    -0x14cc(%rbp),%eax
   1115c:	0f be d0             	movsbl %al,%edx
   1115f:	48 8b 85 f0 f9 ff ff 	mov    -0x610(%rbp),%rax
   11166:	48 39 85 f0 ed ff ff 	cmp    %rax,-0x1210(%rbp)
   1116d:	0f 95 c0             	setne  %al
   11170:	0f b6 c0             	movzbl %al,%eax
   11173:	89 d6                	mov    %edx,%esi
   11175:	89 c7                	mov    %eax,%edi
   11177:	e8 76 70 ff ff       	callq  81f2 <safe_sub_func_int8_t_s_s>
   1117c:	0f be d0             	movsbl %al,%edx
   1117f:	8b 85 34 eb ff ff    	mov    -0x14cc(%rbp),%eax
   11185:	21 c2                	and    %eax,%edx
   11187:	41 89 d4             	mov    %edx,%r12d
   1118a:	8b 85 34 eb ff ff    	mov    -0x14cc(%rbp),%eax
   11190:	85 c0                	test   %eax,%eax
   11192:	0f 94 c0             	sete   %al
   11195:	0f b6 c0             	movzbl %al,%eax
   11198:	89 c7                	mov    %eax,%edi
   1119a:	e8 07 7d ff ff       	callq  8ea6 <safe_unary_minus_func_uint32_t_u>
   1119f:	89 c0                	mov    %eax,%eax
   111a1:	48 be c2 55 e0 b3 e1 	movabs $0x5b466ce1b3e055c2,%rsi
   111a8:	6c 46 5b 
   111ab:	48 89 c7             	mov    %rax,%rdi
   111ae:	e8 01 78 ff ff       	callq  89b4 <safe_mod_func_int64_t_s_s>
   111b3:	48 89 c2             	mov    %rax,%rdx
   111b6:	48 8b 85 58 ec ff ff 	mov    -0x13a8(%rbp),%rax
   111bd:	66 89 10             	mov    %dx,(%rax)
   111c0:	0f b7 00             	movzwl (%rax),%eax
   111c3:	0f b7 d0             	movzwl %ax,%edx
   111c6:	8b 85 34 eb ff ff    	mov    -0x14cc(%rbp),%eax
   111cc:	09 d0                	or     %edx,%eax
   111ce:	41 39 c4             	cmp    %eax,%r12d
   111d1:	0f 9f c0             	setg   %al
   111d4:	0f b6 d0             	movzbl %al,%edx
   111d7:	8b 05 8b 22 01 00    	mov    0x1228b(%rip),%eax        # 23468 <g_2933+0x28>
   111dd:	98                   	cwtl   
   111de:	89 d6                	mov    %edx,%esi
   111e0:	89 c7                	mov    %eax,%edi
   111e2:	e8 cc 71 ff ff       	callq  83b3 <safe_add_func_int16_t_s_s>
   111e7:	89 de                	mov    %ebx,%esi
   111e9:	bf 00 00 00 00       	mov    $0x0,%edi
   111ee:	e8 1f 70 ff ff       	callq  8212 <safe_mul_func_int8_t_s_s>
   111f3:	48 0f be c0          	movsbq %al,%rax
   111f7:	48 3d ff ff 00 00    	cmp    $0xffff,%rax
   111fd:	0f 94 c0             	sete   %al
   11200:	0f b6 d0             	movzbl %al,%edx
   11203:	8b 85 34 eb ff ff    	mov    -0x14cc(%rbp),%eax
   11209:	39 c2                	cmp    %eax,%edx
   1120b:	0f 9c c0             	setl   %al
   1120e:	0f b6 c0             	movzbl %al,%eax
   11211:	89 85 34 eb ff ff    	mov    %eax,-0x14cc(%rbp)
   11217:	48 8d 05 6a 0b 01 00 	lea    0x10b6a(%rip),%rax        # 21d88 <g_2928+0xe8>
   1121e:	48 8b 00             	mov    (%rax),%rax
   11221:	8b 08                	mov    (%rax),%ecx
   11223:	8b 95 34 eb ff ff    	mov    -0x14cc(%rbp),%edx
   11229:	48 8d 05 58 0b 01 00 	lea    0x10b58(%rip),%rax        # 21d88 <g_2928+0xe8>
   11230:	48 8b 00             	mov    (%rax),%rax
   11233:	31 ca                	xor    %ecx,%edx
   11235:	89 10                	mov    %edx,(%rax)
   11237:	8b 10                	mov    (%rax),%edx
   11239:	48 8b 85 c0 ec ff ff 	mov    -0x1340(%rbp),%rax
   11240:	8b 00                	mov    (%rax),%eax
   11242:	31 c2                	xor    %eax,%edx
   11244:	48 8b 85 c0 ec ff ff 	mov    -0x1340(%rbp),%rax
   1124b:	89 10                	mov    %edx,(%rax)
   1124d:	48 8d 05 34 39 01 00 	lea    0x13934(%rip),%rax        # 24b88 <g_1143+0xc8>
   11254:	48 89 05 05 3b 01 00 	mov    %rax,0x13b05(%rip)        # 24d60 <g_1142>
   1125b:	8b 85 34 eb ff ff    	mov    -0x14cc(%rbp),%eax
   11261:	85 c0                	test   %eax,%eax
   11263:	0f 84 ca 03 00 00    	je     11633 <func_28+0x35e5>
   11269:	48 b8 63 c4 e1 c2 79 	movabs $0x857c9a79c2e1c463,%rax
   11270:	9a 7c 85 
   11273:	48 89 85 10 ee ff ff 	mov    %rax,-0x11f0(%rbp)
   1127a:	c7 85 ec eb ff ff 64 	movl   $0x2d47d664,-0x1414(%rbp)
   11281:	d6 47 2d 
   11284:	c7 85 f0 eb ff ff f8 	movl   $0xfffffff8,-0x1410(%rbp)
   1128b:	ff ff ff 
   1128e:	c7 85 f4 eb ff ff ff 	movl   $0xffffffff,-0x140c(%rbp)
   11295:	ff ff ff 
   11298:	c7 85 f8 eb ff ff 1e 	movl   $0x98c4751e,-0x1408(%rbp)
   1129f:	75 c4 98 
   112a2:	c7 85 fc eb ff ff 04 	movl   $0x4,-0x1404(%rbp)
   112a9:	00 00 00 
   112ac:	48 8d 85 90 ec ff ff 	lea    -0x1370(%rbp),%rax
   112b3:	48 89 85 18 ee ff ff 	mov    %rax,-0x11e8(%rbp)
   112ba:	48 8d 05 af 17 01 00 	lea    0x117af(%rip),%rax        # 22a70 <g_445>
   112c1:	48 89 85 a0 ec ff ff 	mov    %rax,-0x1360(%rbp)
   112c8:	c7 85 a0 eb ff ff 00 	movl   $0x0,-0x1460(%rbp)
   112cf:	00 00 00 
   112d2:	eb 1b                	jmp    112ef <func_28+0x32a1>
   112d4:	8b 85 a0 eb ff ff    	mov    -0x1460(%rbp),%eax
   112da:	48 98                	cltq   
   112dc:	48 c7 84 c5 90 f4 ff 	movq   $0x0,-0xb70(%rbp,%rax,8)
   112e3:	ff 00 00 00 00 
   112e8:	83 85 a0 eb ff ff 01 	addl   $0x1,-0x1460(%rbp)
   112ef:	83 bd a0 eb ff ff 03 	cmpl   $0x3,-0x1460(%rbp)
   112f6:	7e dc                	jle    112d4 <func_28+0x3286>
   112f8:	66 44 0f be a5 4c eb 	movsbw -0x14b4(%rbp),%r12w
   112ff:	ff ff 
   11301:	0f be 9d 4c eb ff ff 	movsbl -0x14b4(%rbp),%ebx
   11308:	8b 95 34 eb ff ff    	mov    -0x14cc(%rbp),%edx
   1130e:	48 8d 05 73 0a 01 00 	lea    0x10a73(%rip),%rax        # 21d88 <g_2928+0xe8>
   11315:	48 8b 00             	mov    (%rax),%rax
   11318:	8b 00                	mov    (%rax),%eax
   1131a:	89 d6                	mov    %edx,%esi
   1131c:	89 c7                	mov    %eax,%edi
   1131e:	e8 93 72 ff ff       	callq  85b6 <safe_add_func_int32_t_s_s>
   11323:	98                   	cwtl   
   11324:	89 de                	mov    %ebx,%esi
   11326:	89 c7                	mov    %eax,%edi
   11328:	e8 a6 70 ff ff       	callq  83d3 <safe_sub_func_int16_t_s_s>
   1132d:	66 41 39 c4          	cmp    %ax,%r12w
   11331:	0f 9d c0             	setge  %al
   11334:	0f b6 d8             	movzbl %al,%ebx
   11337:	8b 85 34 eb ff ff    	mov    -0x14cc(%rbp),%eax
   1133d:	4c 63 e0             	movslq %eax,%r12
   11340:	8b 85 34 eb ff ff    	mov    -0x14cc(%rbp),%eax
   11346:	0f b7 d0             	movzwl %ax,%edx
   11349:	8b 85 34 eb ff ff    	mov    -0x14cc(%rbp),%eax
   1134f:	0f b7 c0             	movzwl %ax,%eax
   11352:	89 d6                	mov    %edx,%esi
   11354:	89 c7                	mov    %eax,%edi
   11356:	e8 a4 79 ff ff       	callq  8cff <safe_add_func_uint16_t_u_u>
   1135b:	0f b7 c0             	movzwl %ax,%eax
   1135e:	4c 89 e6             	mov    %r12,%rsi
   11361:	48 89 c7             	mov    %rax,%rdi
   11364:	e8 4b 76 ff ff       	callq  89b4 <safe_mod_func_int64_t_s_s>
   11369:	0f be c0             	movsbl %al,%eax
   1136c:	89 de                	mov    %ebx,%esi
   1136e:	89 c7                	mov    %eax,%edi
   11370:	e8 79 6f ff ff       	callq  82ee <safe_lshift_func_int8_t_s_u>
   11375:	0f be d0             	movsbl %al,%edx
   11378:	8b 05 e6 16 01 00    	mov    0x116e6(%rip),%eax        # 22a64 <g_343>
   1137e:	98                   	cwtl   
   1137f:	89 d6                	mov    %edx,%esi
   11381:	89 c7                	mov    %eax,%edi
   11383:	e8 0a 71 ff ff       	callq  8492 <safe_lshift_func_int16_t_s_s>
   11388:	48 8b 95 c0 ec ff ff 	mov    -0x1340(%rbp),%rdx
   1138f:	8b 12                	mov    (%rdx),%edx
   11391:	98                   	cwtl   
   11392:	31 c2                	xor    %eax,%edx
   11394:	48 8b 85 c0 ec ff ff 	mov    -0x1340(%rbp),%rax
   1139b:	89 10                	mov    %edx,(%rax)
   1139d:	48 8b 85 38 ec ff ff 	mov    -0x13c8(%rbp),%rax
   113a4:	48 8b 00             	mov    (%rax),%rax
   113a7:	48 8b 00             	mov    (%rax),%rax
   113aa:	48 8b 95 c0 ec ff ff 	mov    -0x1340(%rbp),%rdx
   113b1:	8b 12                	mov    (%rdx),%edx
   113b3:	89 10                	mov    %edx,(%rax)
   113b5:	8b 00                	mov    (%rax),%eax
   113b7:	21 85 e4 eb ff ff    	and    %eax,-0x141c(%rbp)
   113bd:	8b 85 e4 eb ff ff    	mov    -0x141c(%rbp),%eax
   113c3:	09 85 e8 eb ff ff    	or     %eax,-0x1418(%rbp)
   113c9:	83 85 98 eb ff ff 01 	addl   $0x1,-0x1468(%rbp)
   113d0:	8b 9d 34 eb ff ff    	mov    -0x14cc(%rbp),%ebx
   113d6:	48 8b 85 90 f4 ff ff 	mov    -0xb70(%rbp),%rax
   113dd:	48 39 85 f8 ed ff ff 	cmp    %rax,-0x1208(%rbp)
   113e4:	74 12                	je     113f8 <func_28+0x33aa>
   113e6:	0f b6 05 f3 15 01 00 	movzbl 0x115f3(%rip),%eax        # 229e0 <g_13>
   113ed:	84 c0                	test   %al,%al
   113ef:	74 07                	je     113f8 <func_28+0x33aa>
   113f1:	b8 01 00 00 00       	mov    $0x1,%eax
   113f6:	eb 05                	jmp    113fd <func_28+0x33af>
   113f8:	b8 00 00 00 00       	mov    $0x0,%eax
   113fd:	0f b6 d0             	movzbl %al,%edx
   11400:	8b 85 9c eb ff ff    	mov    -0x1464(%rbp),%eax
   11406:	0f b6 c0             	movzbl %al,%eax
   11409:	89 d6                	mov    %edx,%esi
   1140b:	89 c7                	mov    %eax,%edi
   1140d:	e8 9c 77 ff ff       	callq  8bae <safe_mod_func_uint8_t_u_u>
   11412:	0f be c0             	movsbl %al,%eax
   11415:	be f0 ff ff ff       	mov    $0xfffffff0,%esi
   1141a:	89 c7                	mov    %eax,%edi
   1141c:	e8 f1 6d ff ff       	callq  8212 <safe_mul_func_int8_t_s_s>
   11421:	80 bd 4c eb ff ff 01 	cmpb   $0x1,-0x14b4(%rbp)
   11428:	0f 95 c0             	setne  %al
   1142b:	0f b6 c0             	movzbl %al,%eax
   1142e:	be 0f 00 00 00       	mov    $0xf,%esi
   11433:	89 c7                	mov    %eax,%edi
   11435:	e8 40 7a ff ff       	callq  8e7a <safe_rshift_func_uint16_t_u_u>
   1143a:	48 8b 15 f7 20 01 00 	mov    0x120f7(%rip),%rdx        # 23538 <g_3407+0x18>
   11441:	21 d0                	and    %edx,%eax
   11443:	98                   	cwtl   
   11444:	be 0b 00 00 00       	mov    $0xb,%esi
   11449:	89 c7                	mov    %eax,%edi
   1144b:	e8 13 71 ff ff       	callq  8563 <safe_rshift_func_int16_t_s_u>
   11450:	8b 95 34 eb ff ff    	mov    -0x14cc(%rbp),%edx
   11456:	48 8b 85 c0 ec ff ff 	mov    -0x1340(%rbp),%rax
   1145d:	89 10                	mov    %edx,(%rax)
   1145f:	48 8b 85 c0 ec ff ff 	mov    -0x1340(%rbp),%rax
   11466:	8b 00                	mov    (%rax),%eax
   11468:	89 de                	mov    %ebx,%esi
   1146a:	89 c7                	mov    %eax,%edi
   1146c:	e8 45 71 ff ff       	callq  85b6 <safe_add_func_int32_t_s_s>
   11471:	85 c0                	test   %eax,%eax
   11473:	74 07                	je     1147c <func_28+0x342e>
   11475:	ba 01 00 00 00       	mov    $0x1,%edx
   1147a:	eb 05                	jmp    11481 <func_28+0x3433>
   1147c:	ba 00 00 00 00       	mov    $0x0,%edx
   11481:	48 8b 05 18 36 01 00 	mov    0x13618(%rip),%rax        # 24aa0 <g_726>
   11488:	48 63 d2             	movslq %edx,%rdx
   1148b:	48 89 10             	mov    %rdx,(%rax)
   1148e:	48 8b 00             	mov    (%rax),%rax
   11491:	48 ba 67 52 34 ae 78 	movabs $0x97017678ae345267,%rdx
   11498:	76 01 97 
   1149b:	48 39 d0             	cmp    %rdx,%rax
   1149e:	0f 95 c0             	setne  %al
   114a1:	0f b6 d0             	movzbl %al,%edx
   114a4:	8b 85 34 eb ff ff    	mov    -0x14cc(%rbp),%eax
   114aa:	39 c2                	cmp    %eax,%edx
   114ac:	7c 14                	jl     114c2 <func_28+0x3474>
   114ae:	48 8b 05 33 34 01 00 	mov    0x13433(%rip),%rax        # 248e8 <g_451>
   114b5:	8b 00                	mov    (%rax),%eax
   114b7:	85 c0                	test   %eax,%eax
   114b9:	74 07                	je     114c2 <func_28+0x3474>
   114bb:	b9 01 00 00 00       	mov    $0x1,%ecx
   114c0:	eb 05                	jmp    114c7 <func_28+0x3479>
   114c2:	b9 00 00 00 00       	mov    $0x0,%ecx
   114c7:	48 8b 85 90 ed ff ff 	mov    -0x1270(%rbp),%rax
   114ce:	c6 00 f6             	movb   $0xf6,(%rax)
   114d1:	48 8b 95 90 ec ff ff 	mov    -0x1370(%rbp),%rdx
   114d8:	48 8b 85 18 ee ff ff 	mov    -0x11e8(%rbp),%rax
   114df:	48 89 10             	mov    %rdx,(%rax)
   114e2:	89 ce                	mov    %ecx,%esi
   114e4:	bf 01 00 00 00       	mov    $0x1,%edi
   114e9:	e8 17 71 ff ff       	callq  8605 <safe_sub_func_int32_t_s_s>
   114ee:	ba 01 00 00 00       	mov    $0x1,%edx
   114f3:	48 8b 85 48 ed ff ff 	mov    -0x12b8(%rbp),%rax
   114fa:	8b 00                	mov    (%rax),%eax
   114fc:	31 c2                	xor    %eax,%edx
   114fe:	48 8b 85 48 ed ff ff 	mov    -0x12b8(%rbp),%rax
   11505:	89 10                	mov    %edx,(%rax)
   11507:	8b 85 34 eb ff ff    	mov    -0x14cc(%rbp),%eax
   1150d:	83 f8 ff             	cmp    $0xffffffff,%eax
   11510:	0f 84 e2 00 00 00    	je     115f8 <func_28+0x35aa>
   11516:	8b 85 34 eb ff ff    	mov    -0x14cc(%rbp),%eax
   1151c:	0f be d8             	movsbl %al,%ebx
   1151f:	8b 05 53 15 01 00    	mov    0x11553(%rip),%eax        # 22a78 <g_445+0x8>
   11525:	44 0f b7 e0          	movzwl %ax,%r12d
   11529:	8b 85 d4 eb ff ff    	mov    -0x142c(%rbp),%eax
   1152f:	44 0f be e8          	movsbl %al,%r13d
   11533:	48 8b 85 c0 ec ff ff 	mov    -0x1340(%rbp),%rax
   1153a:	8b 00                	mov    (%rax),%eax
   1153c:	48 98                	cltq   
   1153e:	48 89 c6             	mov    %rax,%rsi
   11541:	bf 01 00 00 00       	mov    $0x1,%edi
   11546:	e8 00 7b ff ff       	callq  904b <safe_sub_func_uint64_t_u_u>
   1154b:	89 85 dc eb ff ff    	mov    %eax,-0x1424(%rbp)
   11551:	8b 85 dc eb ff ff    	mov    -0x1424(%rbp),%eax
   11557:	be 2f 41 61 5d       	mov    $0x5d61412f,%esi
   1155c:	89 c7                	mov    %eax,%edi
   1155e:	e8 6d 79 ff ff       	callq  8ed0 <safe_sub_func_uint32_t_u_u>
   11563:	0f be c0             	movsbl %al,%eax
   11566:	44 89 ee             	mov    %r13d,%esi
   11569:	89 c7                	mov    %eax,%edi
   1156b:	e8 a2 6c ff ff       	callq  8212 <safe_mul_func_int8_t_s_s>
   11570:	0f be c0             	movsbl %al,%eax
   11573:	8b 95 34 eb ff ff    	mov    -0x14cc(%rbp),%edx
   11579:	89 c6                	mov    %eax,%esi
   1157b:	89 d7                	mov    %edx,%edi
   1157d:	e8 4e 79 ff ff       	callq  8ed0 <safe_sub_func_uint32_t_u_u>
   11582:	89 c1                	mov    %eax,%ecx
   11584:	48 8b 05 15 35 01 00 	mov    0x13515(%rip),%rax        # 24aa0 <g_726>
   1158b:	48 8b 10             	mov    (%rax),%rdx
   1158e:	89 c9                	mov    %ecx,%ecx
   11590:	48 8b 05 09 35 01 00 	mov    0x13509(%rip),%rax        # 24aa0 <g_726>
   11597:	48 31 ca             	xor    %rcx,%rdx
   1159a:	48 89 10             	mov    %rdx,(%rax)
   1159d:	83 bd e8 eb ff ff 00 	cmpl   $0x0,-0x1418(%rbp)
   115a4:	0f 9e c0             	setle  %al
   115a7:	0f b6 c0             	movzbl %al,%eax
   115aa:	8b 95 34 eb ff ff    	mov    -0x14cc(%rbp),%edx
   115b0:	31 d0                	xor    %edx,%eax
   115b2:	0f b7 c0             	movzwl %ax,%eax
   115b5:	44 89 e6             	mov    %r12d,%esi
   115b8:	89 c7                	mov    %eax,%edi
   115ba:	e8 9d 77 ff ff       	callq  8d5c <safe_mod_func_uint16_t_u_u>
   115bf:	98                   	cwtl   
   115c0:	be 08 00 00 00       	mov    $0x8,%esi
   115c5:	89 c7                	mov    %eax,%edi
   115c7:	e8 5e 6f ff ff       	callq  852a <safe_rshift_func_int16_t_s_s>
   115cc:	0f be c0             	movsbl %al,%eax
   115cf:	89 de                	mov    %ebx,%esi
   115d1:	89 c7                	mov    %eax,%edi
   115d3:	e8 92 6c ff ff       	callq  826a <safe_div_func_int8_t_s_s>
   115d8:	38 85 4c eb ff ff    	cmp    %al,-0x14b4(%rbp)
   115de:	0f 95 c0             	setne  %al
   115e1:	0f b6 d0             	movzbl %al,%edx
   115e4:	48 8b 05 5d 38 01 00 	mov    0x1385d(%rip),%rax        # 24e48 <g_2832>
   115eb:	48 8b 00             	mov    (%rax),%rax
   115ee:	0f b6 00             	movzbl (%rax),%eax
   115f1:	0f be c0             	movsbl %al,%eax
   115f4:	21 d0                	and    %edx,%eax
   115f6:	85 c0                	test   %eax,%eax
   115f8:	8b 85 34 eb ff ff    	mov    -0x14cc(%rbp),%eax
   115fe:	0f b7 c0             	movzwl %ax,%eax
   11601:	be ff 7a 00 00       	mov    $0x7aff,%esi
   11606:	89 c7                	mov    %eax,%edi
   11608:	e8 30 77 ff ff       	callq  8d3d <safe_mul_func_uint16_t_u_u>
   1160d:	83 bd e0 eb ff ff 00 	cmpl   $0x0,-0x1420(%rbp)
   11614:	79 10                	jns    11626 <func_28+0x35d8>
   11616:	83 bd f0 eb ff ff 00 	cmpl   $0x0,-0x1410(%rbp)
   1161d:	74 07                	je     11626 <func_28+0x35d8>
   1161f:	b8 01 00 00 00       	mov    $0x1,%eax
   11624:	eb 05                	jmp    1162b <func_28+0x35dd>
   11626:	b8 00 00 00 00       	mov    $0x0,%eax
   1162b:	89 85 34 eb ff ff    	mov    %eax,-0x14cc(%rbp)
   11631:	eb 28                	jmp    1165b <func_28+0x360d>
   11633:	48 8d 85 50 ec ff ff 	lea    -0x13b0(%rbp),%rax
   1163a:	48 89 85 08 ee ff ff 	mov    %rax,-0x11f8(%rbp)
   11641:	48 8b 05 20 38 01 00 	mov    0x13820(%rip),%rax        # 24e68 <g_2925>
   11648:	48 8b 00             	mov    (%rax),%rax
   1164b:	48 8b 00             	mov    (%rax),%rax
   1164e:	48 8b 10             	mov    (%rax),%rdx
   11651:	48 8b 85 08 ee ff ff 	mov    -0x11f8(%rbp),%rax
   11658:	48 89 10             	mov    %rdx,(%rax)
   1165b:	48 c7 85 58 ed ff ff 	movq   $0x1b,-0x12a8(%rbp)
   11662:	1b 00 00 00 
   11666:	e9 6c 01 00 00       	jmpq   117d7 <func_28+0x3789>
   1166b:	48 c7 85 90 f4 ff ff 	movq   $0x0,-0xb70(%rbp)
   11672:	00 00 00 00 
   11676:	48 c7 85 98 f4 ff ff 	movq   $0x0,-0xb68(%rbp)
   1167d:	00 00 00 00 
   11681:	48 c7 85 a0 f4 ff ff 	movq   $0x0,-0xb60(%rbp)
   11688:	00 00 00 00 
   1168c:	48 c7 85 a8 f4 ff ff 	movq   $0x0,-0xb58(%rbp)
   11693:	00 00 00 00 
   11697:	48 c7 85 b0 f4 ff ff 	movq   $0x0,-0xb50(%rbp)
   1169e:	00 00 00 00 
   116a2:	48 8b 05 bf 37 01 00 	mov    0x137bf(%rip),%rax        # 24e68 <g_2925>
   116a9:	48 8b 00             	mov    (%rax),%rax
   116ac:	48 8b 00             	mov    (%rax),%rax
   116af:	48 8b 00             	mov    (%rax),%rax
   116b2:	c7 00 00 00 00 00    	movl   $0x0,(%rax)
   116b8:	48 83 bd e8 ed ff ff 	cmpq   $0x0,-0x1218(%rbp)
   116bf:	00 
   116c0:	0f 95 c0             	setne  %al
   116c3:	0f b6 d0             	movzbl %al,%edx
   116c6:	48 8b 85 38 eb ff ff 	mov    -0x14c8(%rbp),%rax
   116cd:	0f b6 00             	movzbl (%rax),%eax
   116d0:	0f be c0             	movsbl %al,%eax
   116d3:	89 d6                	mov    %edx,%esi
   116d5:	89 c7                	mov    %eax,%edi
   116d7:	e8 c5 6b ff ff       	callq  82a1 <safe_lshift_func_int8_t_s_s>
   116dc:	66 98                	cbtw   
   116de:	0f b7 d0             	movzwl %ax,%edx
   116e1:	8b 85 34 eb ff ff    	mov    -0x14cc(%rbp),%eax
   116e7:	0f b7 c0             	movzwl %ax,%eax
   116ea:	89 d6                	mov    %edx,%esi
   116ec:	89 c7                	mov    %eax,%edi
   116ee:	e8 9b 76 ff ff       	callq  8d8e <safe_div_func_uint16_t_u_u>
   116f3:	66 85 c0             	test   %ax,%ax
   116f6:	0f 95 c0             	setne  %al
   116f9:	0f b6 d0             	movzbl %al,%edx
   116fc:	48 8b 85 c0 ec ff ff 	mov    -0x1340(%rbp),%rax
   11703:	8b 00                	mov    (%rax),%eax
   11705:	31 c2                	xor    %eax,%edx
   11707:	48 8b 85 c0 ec ff ff 	mov    -0x1340(%rbp),%rax
   1170e:	89 10                	mov    %edx,(%rax)
   11710:	48 8b 05 39 13 01 00 	mov    0x11339(%rip),%rax        # 22a50 <g_232>
   11717:	48 85 c0             	test   %rax,%rax
   1171a:	74 05                	je     11721 <func_28+0x36d3>
   1171c:	e9 2c d7 ff ff       	jmpq   ee4d <func_28+0xdff>
   11721:	48 8d 05 e8 3d 01 00 	lea    0x13de8(%rip),%rax        # 25510 <g_3441>
   11728:	48 85 c0             	test   %rax,%rax
   1172b:	0f 95 c0             	setne  %al
   1172e:	0f b6 c0             	movzbl %al,%eax
   11731:	66 89 05 08 13 01 00 	mov    %ax,0x11308(%rip)        # 22a40 <g_195>
   11738:	0f b7 05 01 13 01 00 	movzwl 0x11301(%rip),%eax        # 22a40 <g_195>
   1173f:	0f bf d0             	movswl %ax,%edx
   11742:	48 8d 85 c0 ee ff ff 	lea    -0x1140(%rbp),%rax
   11749:	48 83 c0 08          	add    $0x8,%rax
   1174d:	48 39 85 a8 ed ff ff 	cmp    %rax,-0x1258(%rbp)
   11754:	0f 95 c0             	setne  %al
   11757:	0f b6 c0             	movzbl %al,%eax
   1175a:	39 c2                	cmp    %eax,%edx
   1175c:	7d 11                	jge    1176f <func_28+0x3721>
   1175e:	8b 85 34 eb ff ff    	mov    -0x14cc(%rbp),%eax
   11764:	85 c0                	test   %eax,%eax
   11766:	74 07                	je     1176f <func_28+0x3721>
   11768:	b8 01 00 00 00       	mov    $0x1,%eax
   1176d:	eb 05                	jmp    11774 <func_28+0x3726>
   1176f:	b8 00 00 00 00       	mov    $0x0,%eax
   11774:	0b 85 d8 eb ff ff    	or     -0x1428(%rbp),%eax
   1177a:	89 c2                	mov    %eax,%edx
   1177c:	48 8b 85 c0 ec ff ff 	mov    -0x1340(%rbp),%rax
   11783:	8b 00                	mov    (%rax),%eax
   11785:	31 c2                	xor    %eax,%edx
   11787:	48 8b 85 c0 ec ff ff 	mov    -0x1340(%rbp),%rax
   1178e:	89 10                	mov    %edx,(%rax)
   11790:	48 8b 85 c0 ec ff ff 	mov    -0x1340(%rbp),%rax
   11797:	8b 08                	mov    (%rax),%ecx
   11799:	48 8d 05 e8 05 01 00 	lea    0x105e8(%rip),%rax        # 21d88 <g_2928+0xe8>
   117a0:	48 8b 00             	mov    (%rax),%rax
   117a3:	8b 10                	mov    (%rax),%edx
   117a5:	48 8d 05 dc 05 01 00 	lea    0x105dc(%rip),%rax        # 21d88 <g_2928+0xe8>
   117ac:	48 8b 00             	mov    (%rax),%rax
   117af:	09 ca                	or     %ecx,%edx
   117b1:	89 10                	mov    %edx,(%rax)
   117b3:	48 8d 85 34 eb ff ff 	lea    -0x14cc(%rbp),%rax
   117ba:	48 89 85 a8 f4 ff ff 	mov    %rax,-0xb58(%rbp)
   117c1:	48 8b 85 a8 ed ff ff 	mov    -0x1258(%rbp),%rax
   117c8:	48 c7 00 00 00 00 00 	movq   $0x0,(%rax)
   117cf:	48 83 85 58 ed ff ff 	addq   $0x1,-0x12a8(%rbp)
   117d6:	01 
   117d7:	48 83 bd 58 ed ff ff 	cmpq   $0x2f,-0x12a8(%rbp)
   117de:	2f 
   117df:	0f 86 86 fe ff ff    	jbe    1166b <func_28+0x361d>
   117e5:	48 8d 05 9c 05 01 00 	lea    0x1059c(%rip),%rax        # 21d88 <g_2928+0xe8>
   117ec:	48 8b 10             	mov    (%rax),%rdx
   117ef:	48 8b 85 38 ec ff ff 	mov    -0x13c8(%rbp),%rax
   117f6:	48 8b 00             	mov    (%rax),%rax
   117f9:	48 8b 00             	mov    (%rax),%rax
   117fc:	8b 12                	mov    (%rdx),%edx
   117fe:	89 10                	mov    %edx,(%rax)
   11800:	e9 d2 02 00 00       	jmpq   11ad7 <func_28+0x3a89>
   11805:	c6 85 4b eb ff ff 2f 	movb   $0x2f,-0x14b5(%rbp)
   1180c:	c7 85 c8 eb ff ff 2b 	movl   $0x692be12b,-0x1438(%rbp)
   11813:	e1 2b 69 
   11816:	48 8d 85 60 ec ff ff 	lea    -0x13a0(%rbp),%rax
   1181d:	48 89 85 a0 ec ff ff 	mov    %rax,-0x1360(%rbp)
   11824:	48 8d 85 a0 ec ff ff 	lea    -0x1360(%rbp),%rax
   1182b:	48 89 85 d8 ed ff ff 	mov    %rax,-0x1228(%rbp)
   11832:	48 8b 05 6f 32 01 00 	mov    0x1326f(%rip),%rax        # 24aa8 <g_725>
   11839:	48 8b 10             	mov    (%rax),%rdx
   1183c:	48 8b 02             	mov    (%rdx),%rax
   1183f:	48 8d 48 ff          	lea    -0x1(%rax),%rcx
   11843:	48 89 0a             	mov    %rcx,(%rdx)
   11846:	48 85 c0             	test   %rax,%rax
   11849:	0f 84 7c 02 00 00    	je     11acb <func_28+0x3a7d>
   1184f:	8b 85 34 eb ff ff    	mov    -0x14cc(%rbp),%eax
   11855:	89 c3                	mov    %eax,%ebx
   11857:	48 8b 05 da 35 01 00 	mov    0x135da(%rip),%rax        # 24e38 <g_2823>
   1185e:	48 8b 00             	mov    (%rax),%rax
   11861:	48 89 c7             	mov    %rax,%rdi
   11864:	e8 ad 6f ff ff       	callq  8816 <safe_unary_minus_func_int64_t_s>
   11869:	48 8b 95 80 f0 ff ff 	mov    -0xf80(%rbp),%rdx
   11870:	48 85 d2             	test   %rdx,%rdx
   11873:	0f 95 c2             	setne  %dl
   11876:	0f b6 d2             	movzbl %dl,%edx
   11879:	48 39 d0             	cmp    %rdx,%rax
   1187c:	7d 0e                	jge    1188c <func_28+0x383e>
   1187e:	8b 85 34 eb ff ff    	mov    -0x14cc(%rbp),%eax
   11884:	0b 85 c0 eb ff ff    	or     -0x1440(%rbp),%eax
   1188a:	85 c0                	test   %eax,%eax
   1188c:	89 de                	mov    %ebx,%esi
   1188e:	bf d0 cf 00 00       	mov    $0xcfd0,%edi
   11893:	e8 6e 75 ff ff       	callq  8e06 <safe_lshift_func_uint16_t_u_u>
   11898:	0f b7 d8             	movzwl %ax,%ebx
   1189b:	48 c7 c6 f9 ff ff ff 	mov    $0xfffffffffffffff9,%rsi
   118a2:	48 c7 c7 ff ff ff ff 	mov    $0xffffffffffffffff,%rdi
   118a9:	e8 80 77 ff ff       	callq  902e <safe_add_func_uint64_t_u_u>
   118ae:	89 de                	mov    %ebx,%esi
   118b0:	89 c7                	mov    %eax,%edi
   118b2:	e8 4e 6d ff ff       	callq  8605 <safe_sub_func_int32_t_s_s>
   118b7:	85 c0                	test   %eax,%eax
   118b9:	0f 84 0c 02 00 00    	je     11acb <func_28+0x3a7d>
   118bf:	48 c7 85 e0 ed ff ff 	movq   $0x0,-0x1220(%rbp)
   118c6:	00 00 00 00 
   118ca:	8b 85 34 eb ff ff    	mov    -0x14cc(%rbp),%eax
   118d0:	f7 d0                	not    %eax
   118d2:	98                   	cwtl   
   118d3:	be 09 00 00 00       	mov    $0x9,%esi
   118d8:	89 c7                	mov    %eax,%edi
   118da:	e8 b3 6b ff ff       	callq  8492 <safe_lshift_func_int16_t_s_s>
   118df:	89 c2                	mov    %eax,%edx
   118e1:	48 8b 05 80 35 01 00 	mov    0x13580(%rip),%rax        # 24e68 <g_2925>
   118e8:	48 8b 00             	mov    (%rax),%rax
   118eb:	48 8b 00             	mov    (%rax),%rax
   118ee:	48 8b 00             	mov    (%rax),%rax
   118f1:	0f bf d2             	movswl %dx,%edx
   118f4:	89 10                	mov    %edx,(%rax)
   118f6:	66 c7 85 50 eb ff ff 	movw   $0x0,-0x14b0(%rbp)
   118fd:	00 00 
   118ff:	e9 b4 01 00 00       	jmpq   11ab8 <func_28+0x3a6a>
   11904:	c7 85 cc eb ff ff 00 	movl   $0x0,-0x1434(%rbp)
   1190b:	00 00 00 
   1190e:	c7 85 90 f4 ff ff 07 	movl   $0x7,-0xb70(%rbp)
   11915:	00 00 00 
   11918:	c7 85 94 f4 ff ff 07 	movl   $0x7,-0xb6c(%rbp)
   1191f:	00 00 00 
   11922:	c7 85 98 f4 ff ff f7 	movl   $0xfffffff7,-0xb68(%rbp)
   11929:	ff ff ff 
   1192c:	c7 85 9c f4 ff ff 07 	movl   $0x7,-0xb64(%rbp)
   11933:	00 00 00 
   11936:	c7 85 a0 f4 ff ff 07 	movl   $0x7,-0xb60(%rbp)
   1193d:	00 00 00 
   11940:	c7 85 a4 f4 ff ff f7 	movl   $0xfffffff7,-0xb5c(%rbp)
   11947:	ff ff ff 
   1194a:	c7 85 a8 f4 ff ff 07 	movl   $0x7,-0xb58(%rbp)
   11951:	00 00 00 
   11954:	8b 9d c8 eb ff ff    	mov    -0x1438(%rbp),%ebx
   1195a:	8b 85 34 eb ff ff    	mov    -0x14cc(%rbp),%eax
   11960:	0f b7 d0             	movzwl %ax,%edx
   11963:	48 83 bd d8 ed ff ff 	cmpq   $0x0,-0x1228(%rbp)
   1196a:	00 
   1196b:	0f 95 c0             	setne  %al
   1196e:	0f b6 c0             	movzbl %al,%eax
   11971:	89 d6                	mov    %edx,%esi
   11973:	89 c7                	mov    %eax,%edi
   11975:	e8 c3 73 ff ff       	callq  8d3d <safe_mul_func_uint16_t_u_u>
   1197a:	0f b7 d0             	movzwl %ax,%edx
   1197d:	8b 85 34 eb ff ff    	mov    -0x14cc(%rbp),%eax
   11983:	39 c2                	cmp    %eax,%edx
   11985:	0f 9c c0             	setl   %al
   11988:	0f b6 c0             	movzbl %al,%eax
   1198b:	89 de                	mov    %ebx,%esi
   1198d:	89 c7                	mov    %eax,%edi
   1198f:	e8 5a 69 ff ff       	callq  82ee <safe_lshift_func_int8_t_s_u>
   11994:	89 c2                	mov    %eax,%edx
   11996:	48 8d 05 eb 03 01 00 	lea    0x103eb(%rip),%rax        # 21d88 <g_2928+0xe8>
   1199d:	48 8b 00             	mov    (%rax),%rax
   119a0:	0f be d2             	movsbl %dl,%edx
   119a3:	89 10                	mov    %edx,(%rax)
   119a5:	8b 00                	mov    (%rax),%eax
   119a7:	83 f8 01             	cmp    $0x1,%eax
   119aa:	74 16                	je     119c2 <func_28+0x3974>
   119ac:	48 8b 05 85 34 01 00 	mov    0x13485(%rip),%rax        # 24e38 <g_2823>
   119b3:	48 8b 00             	mov    (%rax),%rax
   119b6:	48 85 c0             	test   %rax,%rax
   119b9:	74 07                	je     119c2 <func_28+0x3974>
   119bb:	b8 01 00 00 00       	mov    $0x1,%eax
   119c0:	eb 05                	jmp    119c7 <func_28+0x3979>
   119c2:	b8 00 00 00 00       	mov    $0x0,%eax
   119c7:	89 c6                	mov    %eax,%esi
   119c9:	bf ff ff 00 00       	mov    $0xffff,%edi
   119ce:	e8 33 74 ff ff       	callq  8e06 <safe_lshift_func_uint16_t_u_u>
   119d3:	0f b7 c0             	movzwl %ax,%eax
   119d6:	89 c6                	mov    %eax,%esi
   119d8:	bf 01 00 00 00       	mov    $0x1,%edi
   119dd:	e8 23 6c ff ff       	callq  8605 <safe_sub_func_int32_t_s_s>
   119e2:	48 8b 95 38 eb ff ff 	mov    -0x14c8(%rbp),%rdx
   119e9:	0f b6 12             	movzbl (%rdx),%edx
   119ec:	0f be d2             	movsbl %dl,%edx
   119ef:	09 d0                	or     %edx,%eax
   119f1:	48 98                	cltq   
   119f3:	48 be 6a d7 d9 7c 9c 	movabs $0xfaba09c7cd9d76a,%rsi
   119fa:	a0 ab 0f 
   119fd:	48 89 c7             	mov    %rax,%rdi
   11a00:	e8 46 76 ff ff       	callq  904b <safe_sub_func_uint64_t_u_u>
   11a05:	48 8b 85 60 ed ff ff 	mov    -0x12a0(%rbp),%rax
   11a0c:	48 8b 10             	mov    (%rax),%rdx
   11a0f:	48 8b 85 60 ed ff ff 	mov    -0x12a0(%rbp),%rax
   11a16:	48 89 10             	mov    %rdx,(%rax)
   11a19:	48 8b 85 60 ed ff ff 	mov    -0x12a0(%rbp),%rax
   11a20:	48 8b 10             	mov    (%rax),%rdx
   11a23:	48 8b 85 50 f0 ff ff 	mov    -0xfb0(%rbp),%rax
   11a2a:	48 39 c2             	cmp    %rax,%rdx
   11a2d:	0f 95 c0             	setne  %al
   11a30:	0f b6 c0             	movzbl %al,%eax
   11a33:	89 85 cc eb ff ff    	mov    %eax,-0x1434(%rbp)
   11a39:	48 8b 05 98 33 01 00 	mov    0x13398(%rip),%rax        # 24dd8 <g_2016>
   11a40:	48 8b 00             	mov    (%rax),%rax
   11a43:	48 39 85 e0 ed ff ff 	cmp    %rax,-0x1220(%rbp)
   11a4a:	0f 95 c0             	setne  %al
   11a4d:	0f b6 d0             	movzbl %al,%edx
   11a50:	8b 85 34 eb ff ff    	mov    -0x14cc(%rbp),%eax
   11a56:	39 c2                	cmp    %eax,%edx
   11a58:	74 07                	je     11a61 <func_28+0x3a13>
   11a5a:	b8 01 00 00 00       	mov    $0x1,%eax
   11a5f:	eb 05                	jmp    11a66 <func_28+0x3a18>
   11a61:	b8 00 00 00 00       	mov    $0x0,%eax
   11a66:	98                   	cwtl   
   11a67:	be 09 00 00 00       	mov    $0x9,%esi
   11a6c:	89 c7                	mov    %eax,%edi
   11a6e:	e8 f0 6a ff ff       	callq  8563 <safe_rshift_func_int16_t_s_u>
   11a73:	8b 95 a8 f4 ff ff    	mov    -0xb58(%rbp),%edx
   11a79:	98                   	cwtl   
   11a7a:	09 d0                	or     %edx,%eax
   11a7c:	89 85 a8 f4 ff ff    	mov    %eax,-0xb58(%rbp)
   11a82:	48 8b 85 38 ec ff ff 	mov    -0x13c8(%rbp),%rax
   11a89:	48 8b 00             	mov    (%rax),%rax
   11a8c:	48 c7 00 00 00 00 00 	movq   $0x0,(%rax)
   11a93:	48 8b 85 38 ec ff ff 	mov    -0x13c8(%rbp),%rax
   11a9a:	48 8b 00             	mov    (%rax),%rax
   11a9d:	48 8d 95 34 eb ff ff 	lea    -0x14cc(%rbp),%rdx
   11aa4:	48 89 10             	mov    %rdx,(%rax)
   11aa7:	0f b7 85 50 eb ff ff 	movzwl -0x14b0(%rbp),%eax
   11aae:	83 e8 01             	sub    $0x1,%eax
   11ab1:	66 89 85 50 eb ff ff 	mov    %ax,-0x14b0(%rbp)
   11ab8:	0f b7 85 50 eb ff ff 	movzwl -0x14b0(%rbp),%eax
   11abf:	66 83 f8 fb          	cmp    $0xfffb,%ax
   11ac3:	0f 8c 3b fe ff ff    	jl     11904 <func_28+0x38b6>
   11ac9:	eb 0c                	jmp    11ad7 <func_28+0x3a89>
   11acb:	48 8b 85 20 ed ff ff 	mov    -0x12e0(%rbp),%rax
   11ad2:	e9 b7 02 00 00       	jmpq   11d8e <func_28+0x3d40>
   11ad7:	48 83 ad 18 ed ff ff 	subq   $0x1,-0x12e8(%rbp)
   11ade:	01 
   11adf:	c7 85 34 eb ff ff 00 	movl   $0x0,-0x14cc(%rbp)
   11ae6:	00 00 00 
   11ae9:	90                   	nop
   11aea:	8b 85 34 eb ff ff    	mov    -0x14cc(%rbp),%eax
   11af0:	83 f8 e7             	cmp    $0xffffffe7,%eax
   11af3:	7c 0c                	jl     11b01 <func_28+0x3ab3>
   11af5:	48 8b 85 00 ed ff ff 	mov    -0x1300(%rbp),%rax
   11afc:	e9 8d 02 00 00       	jmpq   11d8e <func_28+0x3d40>
   11b01:	83 85 84 eb ff ff 01 	addl   $0x1,-0x147c(%rbp)
   11b08:	e9 ce 01 00 00       	jmpq   11cdb <func_28+0x3c8d>
   11b0d:	48 8d 05 d4 18 01 00 	lea    0x118d4(%rip),%rax        # 233e8 <g_2931+0x8>
   11b14:	48 89 85 c8 ec ff ff 	mov    %rax,-0x1338(%rbp)
   11b1b:	c7 85 70 eb ff ff 00 	movl   $0x0,-0x1490(%rbp)
   11b22:	00 00 00 
   11b25:	48 8d 05 a4 32 01 00 	lea    0x132a4(%rip),%rax        # 24dd0 <g_1699>
   11b2c:	48 89 85 d0 ec ff ff 	mov    %rax,-0x1330(%rbp)
   11b33:	c7 85 74 eb ff ff 00 	movl   $0x0,-0x148c(%rbp)
   11b3a:	00 00 00 
   11b3d:	eb 1e                	jmp    11b5d <func_28+0x3b0f>
   11b3f:	8b 85 74 eb ff ff    	mov    -0x148c(%rbp),%eax
   11b45:	48 98                	cltq   
   11b47:	48 8d 15 82 32 01 00 	lea    0x13282(%rip),%rdx        # 24dd0 <g_1699>
   11b4e:	48 89 94 c5 e0 f9 ff 	mov    %rdx,-0x620(%rbp,%rax,8)
   11b55:	ff 
   11b56:	83 85 74 eb ff ff 01 	addl   $0x1,-0x148c(%rbp)
   11b5d:	83 bd 74 eb ff ff 05 	cmpl   $0x5,-0x148c(%rbp)
   11b64:	7e d9                	jle    11b3f <func_28+0x3af1>
   11b66:	c7 85 74 eb ff ff 00 	movl   $0x0,-0x148c(%rbp)
   11b6d:	00 00 00 
   11b70:	eb 1b                	jmp    11b8d <func_28+0x3b3f>
   11b72:	8b 85 74 eb ff ff    	mov    -0x148c(%rbp),%eax
   11b78:	48 98                	cltq   
   11b7a:	48 c7 84 c5 90 f4 ff 	movq   $0x0,-0xb70(%rbp,%rax,8)
   11b81:	ff 00 00 00 00 
   11b86:	83 85 74 eb ff ff 01 	addl   $0x1,-0x148c(%rbp)
   11b8d:	83 bd 74 eb ff ff 02 	cmpl   $0x2,-0x148c(%rbp)
   11b94:	7e dc                	jle    11b72 <func_28+0x3b24>
   11b96:	48 8b 85 38 ec ff ff 	mov    -0x13c8(%rbp),%rax
   11b9d:	48 8b 00             	mov    (%rax),%rax
   11ba0:	48 8b 95 c8 ec ff ff 	mov    -0x1338(%rbp),%rdx
   11ba7:	48 89 10             	mov    %rdx,(%rax)
   11baa:	48 8b 85 c0 ec ff ff 	mov    -0x1340(%rbp),%rax
   11bb1:	8b 10                	mov    (%rax),%edx
   11bb3:	8b 85 34 eb ff ff    	mov    -0x14cc(%rbp),%eax
   11bb9:	09 c2                	or     %eax,%edx
   11bbb:	48 8b 05 86 32 01 00 	mov    0x13286(%rip),%rax        # 24e48 <g_2832>
   11bc2:	48 8b 00             	mov    (%rax),%rax
   11bc5:	0f b6 00             	movzbl (%rax),%eax
   11bc8:	0f be c0             	movsbl %al,%eax
   11bcb:	39 c2                	cmp    %eax,%edx
   11bcd:	0f 8f ed 00 00 00    	jg     11cc0 <func_28+0x3c72>
   11bd3:	48 8b 85 c8 ec ff ff 	mov    -0x1338(%rbp),%rax
   11bda:	8b 00                	mov    (%rax),%eax
   11bdc:	0f bf d8             	movswl %ax,%ebx
   11bdf:	48 8b 85 00 fa ff ff 	mov    -0x600(%rbp),%rax
   11be6:	48 89 85 d0 ec ff ff 	mov    %rax,-0x1330(%rbp)
   11bed:	48 83 bd d0 ec ff ff 	cmpq   $0x0,-0x1330(%rbp)
   11bf4:	00 
   11bf5:	0f 95 c0             	setne  %al
   11bf8:	0f b6 c0             	movzbl %al,%eax
   11bfb:	be 01 00 00 00       	mov    $0x1,%esi
   11c00:	89 c7                	mov    %eax,%edi
   11c02:	e8 0f 68 ff ff       	callq  8416 <safe_mod_func_int16_t_s_s>
   11c07:	0f bf d0             	movswl %ax,%edx
   11c0a:	8b 85 34 eb ff ff    	mov    -0x14cc(%rbp),%eax
   11c10:	09 c2                	or     %eax,%edx
   11c12:	41 89 d4             	mov    %edx,%r12d
   11c15:	48 8b 85 00 ed ff ff 	mov    -0x1300(%rbp),%rax
   11c1c:	8b 95 70 eb ff ff    	mov    -0x1490(%rbp),%edx
   11c22:	89 10                	mov    %edx,(%rax)
   11c24:	48 8b 85 00 ed ff ff 	mov    -0x1300(%rbp),%rax
   11c2b:	8b 00                	mov    (%rax),%eax
   11c2d:	98                   	cwtl   
   11c2e:	be 02 00 00 00       	mov    $0x2,%esi
   11c33:	89 c7                	mov    %eax,%edi
   11c35:	e8 f0 68 ff ff       	callq  852a <safe_rshift_func_int16_t_s_s>
   11c3a:	48 0f bf d0          	movswq %ax,%rdx
   11c3e:	48 8b 85 c8 ec ff ff 	mov    -0x1338(%rbp),%rax
   11c45:	8b 00                	mov    (%rax),%eax
   11c47:	48 98                	cltq   
   11c49:	48 89 d6             	mov    %rdx,%rsi
   11c4c:	48 89 c7             	mov    %rax,%rdi
   11c4f:	e8 5b 74 ff ff       	callq  90af <safe_div_func_uint64_t_u_u>
   11c54:	98                   	cwtl   
   11c55:	44 89 e6             	mov    %r12d,%esi
   11c58:	89 c7                	mov    %eax,%edi
   11c5a:	e8 cb 68 ff ff       	callq  852a <safe_rshift_func_int16_t_s_s>
   11c5f:	0f b7 c0             	movzwl %ax,%eax
   11c62:	89 c6                	mov    %eax,%esi
   11c64:	bf fa ff 00 00       	mov    $0xfffa,%edi
   11c69:	e8 ee 70 ff ff       	callq  8d5c <safe_mod_func_uint16_t_u_u>
   11c6e:	0f b7 d0             	movzwl %ax,%edx
   11c71:	48 8b 85 c8 ec ff ff 	mov    -0x1338(%rbp),%rax
   11c78:	8b 00                	mov    (%rax),%eax
   11c7a:	39 c2                	cmp    %eax,%edx
   11c7c:	0f 95 c0             	setne  %al
   11c7f:	0f b6 c0             	movzbl %al,%eax
   11c82:	89 de                	mov    %ebx,%esi
   11c84:	89 c7                	mov    %eax,%edi
   11c86:	e8 8b 67 ff ff       	callq  8416 <safe_mod_func_int16_t_s_s>
   11c8b:	0f bf d8             	movswl %ax,%ebx
   11c8e:	48 8b 85 38 eb ff ff 	mov    -0x14c8(%rbp),%rax
   11c95:	0f b6 00             	movzbl (%rax),%eax
   11c98:	0f be c0             	movsbl %al,%eax
   11c9b:	be 07 00 00 00       	mov    $0x7,%esi
   11ca0:	89 c7                	mov    %eax,%edi
   11ca2:	e8 fa 65 ff ff       	callq  82a1 <safe_lshift_func_int8_t_s_s>
   11ca7:	0f be c0             	movsbl %al,%eax
   11caa:	89 de                	mov    %ebx,%esi
   11cac:	89 c7                	mov    %eax,%edi
   11cae:	e8 ee 65 ff ff       	callq  82a1 <safe_lshift_func_int8_t_s_s>
   11cb3:	0f be d0             	movsbl %al,%edx
   11cb6:	8b 85 34 eb ff ff    	mov    -0x14cc(%rbp),%eax
   11cbc:	39 c2                	cmp    %eax,%edx
   11cbe:	74 07                	je     11cc7 <func_28+0x3c79>
   11cc0:	ba 01 00 00 00       	mov    $0x1,%edx
   11cc5:	eb 05                	jmp    11ccc <func_28+0x3c7e>
   11cc7:	ba 00 00 00 00       	mov    $0x0,%edx
   11ccc:	48 8b 05 8d 31 01 00 	mov    0x1318d(%rip),%rax        # 24e60 <g_2926>
   11cd3:	48 8b 00             	mov    (%rax),%rax
   11cd6:	48 8b 00             	mov    (%rax),%rax
   11cd9:	89 10                	mov    %edx,(%rax)
   11cdb:	8b 85 34 eb ff ff    	mov    -0x14cc(%rbp),%eax
   11ce1:	89 c2                	mov    %eax,%edx
   11ce3:	8b 85 34 eb ff ff    	mov    -0x14cc(%rbp),%eax
   11ce9:	89 d6                	mov    %edx,%esi
   11ceb:	89 c7                	mov    %eax,%edi
   11ced:	e8 de 71 ff ff       	callq  8ed0 <safe_sub_func_uint32_t_u_u>
   11cf2:	48 8b 85 20 ed ff ff 	mov    -0x12e0(%rbp),%rax
   11cf9:	8b 18                	mov    (%rax),%ebx
   11cfb:	8b 85 34 eb ff ff    	mov    -0x14cc(%rbp),%eax
   11d01:	85 c0                	test   %eax,%eax
   11d03:	75 08                	jne    11d0d <func_28+0x3cbf>
   11d05:	8b 85 34 eb ff ff    	mov    -0x14cc(%rbp),%eax
   11d0b:	85 c0                	test   %eax,%eax
   11d0d:	8b 85 34 eb ff ff    	mov    -0x14cc(%rbp),%eax
   11d13:	85 c0                	test   %eax,%eax
   11d15:	74 07                	je     11d1e <func_28+0x3cd0>
   11d17:	b8 01 00 00 00       	mov    $0x1,%eax
   11d1c:	eb 05                	jmp    11d23 <func_28+0x3cd5>
   11d1e:	b8 00 00 00 00       	mov    $0x0,%eax
   11d23:	0f b6 c0             	movzbl %al,%eax
   11d26:	89 c7                	mov    %eax,%edi
   11d28:	e8 18 6e ff ff       	callq  8b45 <safe_unary_minus_func_uint8_t_u>
   11d2d:	48 8b 85 08 ed ff ff 	mov    -0x12f8(%rbp),%rax
   11d34:	66 c7 00 01 00       	movw   $0x1,(%rax)
   11d39:	48 8b 85 08 ed ff ff 	mov    -0x12f8(%rbp),%rax
   11d40:	0f b7 00             	movzwl (%rax),%eax
   11d43:	0f bf d0             	movswl %ax,%edx
   11d46:	8b 85 34 eb ff ff    	mov    -0x14cc(%rbp),%eax
   11d4c:	39 c2                	cmp    %eax,%edx
   11d4e:	0f 9d c0             	setge  %al
   11d51:	0f b6 c0             	movzbl %al,%eax
   11d54:	31 d8                	xor    %ebx,%eax
   11d56:	83 c8 f6             	or     $0xfffffff6,%eax
   11d59:	89 c2                	mov    %eax,%edx
   11d5b:	48 8b 85 00 ed ff ff 	mov    -0x1300(%rbp),%rax
   11d62:	8b 00                	mov    (%rax),%eax
   11d64:	0f b6 c0             	movzbl %al,%eax
   11d67:	89 d6                	mov    %edx,%esi
   11d69:	89 c7                	mov    %eax,%edi
   11d6b:	e8 4e 6f ff ff       	callq  8cbe <safe_rshift_func_uint8_t_u_u>
   11d70:	48 8b 95 48 ed ff ff 	mov    -0x12b8(%rbp),%rdx
   11d77:	8b 12                	mov    (%rdx),%edx
   11d79:	0f b6 c0             	movzbl %al,%eax
   11d7c:	31 c2                	xor    %eax,%edx
   11d7e:	48 8b 85 48 ed ff ff 	mov    -0x12b8(%rbp),%rax
   11d85:	89 10                	mov    %edx,(%rax)
   11d87:	48 8b 85 10 ed ff ff 	mov    -0x12f0(%rbp),%rax
   11d8e:	48 8b 5d c8          	mov    -0x38(%rbp),%rbx
   11d92:	64 48 33 1c 25 28 00 	xor    %fs:0x28,%rbx
   11d99:	00 00 
   11d9b:	74 05                	je     11da2 <func_28+0x3d54>
   11d9d:	e8 ce 62 ff ff       	callq  8070 <__stack_chk_fail@plt>
   11da2:	48 81 c4 a8 14 00 00 	add    $0x14a8,%rsp
   11da9:	5b                   	pop    %rbx
   11daa:	41 5c                	pop    %r12
   11dac:	41 5d                	pop    %r13
   11dae:	41 5e                	pop    %r14
   11db0:	41 5f                	pop    %r15
   11db2:	5d                   	pop    %rbp
   11db3:	c3                   	retq   

0000000000011db4 <func_34>:
   11db4:	f3 0f 1e fa          	endbr64 
   11db8:	55                   	push   %rbp
   11db9:	48 89 e5             	mov    %rsp,%rbp
   11dbc:	48 81 ec 30 02 00 00 	sub    $0x230,%rsp
   11dc3:	48 89 bd d8 fd ff ff 	mov    %rdi,-0x228(%rbp)
   11dca:	89 b5 d4 fd ff ff    	mov    %esi,-0x22c(%rbp)
   11dd0:	64 48 8b 04 25 28 00 	mov    %fs:0x28,%rax
   11dd7:	00 00 
   11dd9:	48 89 45 f8          	mov    %rax,-0x8(%rbp)
   11ddd:	31 c0                	xor    %eax,%eax
   11ddf:	c7 85 00 fe ff ff b8 	movl   $0xf9eef7b8,-0x200(%rbp)
   11de6:	f7 ee f9 
   11de9:	48 c7 85 60 fe ff ff 	movq   $0x0,-0x1a0(%rbp)
   11df0:	00 00 00 00 
   11df4:	48 c7 85 68 fe ff ff 	movq   $0x0,-0x198(%rbp)
   11dfb:	00 00 00 00 
   11dff:	c7 45 e9 59 59 59 59 	movl   $0x59595959,-0x17(%rbp)
   11e06:	c6 45 ed 59          	movb   $0x59,-0x13(%rbp)
   11e0a:	48 8d 05 8f 2f 01 00 	lea    0x12f8f(%rip),%rax        # 24da0 <g_1322+0x20>
   11e11:	48 89 85 70 fe ff ff 	mov    %rax,-0x190(%rbp)
   11e18:	48 8d 05 ab 0e 01 00 	lea    0x10eab(%rip),%rax        # 22cca <g_1177+0xa>
   11e1f:	48 89 85 40 fe ff ff 	mov    %rax,-0x1c0(%rbp)
   11e26:	48 8d 85 40 fe ff ff 	lea    -0x1c0(%rbp),%rax
   11e2d:	48 89 85 48 fe ff ff 	mov    %rax,-0x1b8(%rbp)
   11e34:	48 8d 85 48 fe ff ff 	lea    -0x1b8(%rbp),%rax
   11e3b:	48 89 85 78 fe ff ff 	mov    %rax,-0x188(%rbp)
   11e42:	c7 85 04 fe ff ff 08 	movl   $0x8,-0x1fc(%rbp)
   11e49:	00 00 00 
   11e4c:	c7 85 08 fe ff ff 02 	movl   $0x2,-0x1f8(%rbp)
   11e53:	00 00 00 
   11e56:	c7 85 0c fe ff ff 00 	movl   $0x0,-0x1f4(%rbp)
   11e5d:	00 00 00 
   11e60:	c7 85 10 fe ff ff 01 	movl   $0x1,-0x1f0(%rbp)
   11e67:	00 00 00 
   11e6a:	c7 85 14 fe ff ff f6 	movl   $0xfffffff6,-0x1ec(%rbp)
   11e71:	ff ff ff 
   11e74:	48 c7 85 80 fe ff ff 	movq   $0x0,-0x180(%rbp)
   11e7b:	00 00 00 00 
   11e7f:	c6 85 ec fd ff ff 01 	movb   $0x1,-0x214(%rbp)
   11e86:	c7 85 18 fe ff ff 96 	movl   $0x6804c796,-0x1e8(%rbp)
   11e8d:	c7 04 68 
   11e90:	c7 85 1c fe ff ff 01 	movl   $0x1,-0x1e4(%rbp)
   11e97:	00 00 00 
   11e9a:	c7 85 20 fe ff ff 07 	movl   $0x7,-0x1e0(%rbp)
   11ea1:	00 00 00 
   11ea4:	48 c7 85 88 fe ff ff 	movq   $0x0,-0x178(%rbp)
   11eab:	00 00 00 00 
   11eaf:	48 c7 85 90 fe ff ff 	movq   $0xfffffffffffffffc,-0x170(%rbp)
   11eb6:	fc ff ff ff 
   11eba:	48 c7 85 50 fe ff ff 	movq   $0x0,-0x1b0(%rbp)
   11ec1:	00 00 00 00 
   11ec5:	66 c7 85 f0 fd ff ff 	movw   $0x1de7,-0x210(%rbp)
   11ecc:	e7 1d 
   11ece:	48 c7 85 98 fe ff ff 	movq   $0x0,-0x168(%rbp)
   11ed5:	00 00 00 00 
   11ed9:	66 c7 85 f2 fd ff ff 	movw   $0x3df2,-0x20e(%rbp)
   11ee0:	f2 3d 
   11ee2:	c7 85 24 fe ff ff 97 	movl   $0xbcf91d97,-0x1dc(%rbp)
   11ee9:	1d f9 bc 
   11eec:	48 c7 85 58 fe ff ff 	movq   $0x0,-0x1a8(%rbp)
   11ef3:	00 00 00 00 
   11ef7:	48 8d 85 58 fe ff ff 	lea    -0x1a8(%rbp),%rax
   11efe:	48 89 85 a0 fe ff ff 	mov    %rax,-0x160(%rbp)
   11f05:	c7 85 f8 fd ff ff 00 	movl   $0x0,-0x208(%rbp)
   11f0c:	00 00 00 
   11f0f:	eb 42                	jmp    11f53 <func_34+0x19f>
   11f11:	c7 85 fc fd ff ff 00 	movl   $0x0,-0x204(%rbp)
   11f18:	00 00 00 
   11f1b:	eb 26                	jmp    11f43 <func_34+0x18f>
   11f1d:	8b 85 fc fd ff ff    	mov    -0x204(%rbp),%eax
   11f23:	48 63 d0             	movslq %eax,%rdx
   11f26:	8b 85 f8 fd ff ff    	mov    -0x208(%rbp),%eax
   11f2c:	48 98                	cltq   
   11f2e:	48 01 d0             	add    %rdx,%rax
   11f31:	c7 84 85 dc fe ff ff 	movl   $0xfffffff9,-0x124(%rbp,%rax,4)
   11f38:	f9 ff ff ff 
   11f3c:	83 85 fc fd ff ff 01 	addl   $0x1,-0x204(%rbp)
   11f43:	83 bd fc fd ff ff 00 	cmpl   $0x0,-0x204(%rbp)
   11f4a:	7e d1                	jle    11f1d <func_34+0x169>
   11f4c:	83 85 f8 fd ff ff 01 	addl   $0x1,-0x208(%rbp)
   11f53:	83 bd f8 fd ff ff 00 	cmpl   $0x0,-0x208(%rbp)
   11f5a:	7e b5                	jle    11f11 <func_34+0x15d>
   11f5c:	c6 05 7d 0a 01 00 ec 	movb   $0xec,0x10a7d(%rip)        # 229e0 <g_13>
   11f63:	e9 a5 02 00 00       	jmpq   1220d <func_34+0x459>
   11f68:	48 c7 85 a8 fe ff ff 	movq   $0x0,-0x158(%rbp)
   11f6f:	00 00 00 00 
   11f73:	48 8d 05 6a 0a 01 00 	lea    0x10a6a(%rip),%rax        # 229e4 <g_27>
   11f7a:	48 89 85 b0 fe ff ff 	mov    %rax,-0x150(%rbp)
   11f81:	48 8d 05 6c 0a 01 00 	lea    0x10a6c(%rip),%rax        # 229f4 <g_68+0x4>
   11f88:	48 89 85 b8 fe ff ff 	mov    %rax,-0x148(%rbp)
   11f8f:	48 8d 05 ca 0a 01 00 	lea    0x10aca(%rip),%rax        # 22a60 <g_341>
   11f96:	48 89 85 c0 fe ff ff 	mov    %rax,-0x140(%rbp)
   11f9d:	48 8d 05 84 46 01 00 	lea    0x14684(%rip),%rax        # 26628 <g_2142>
   11fa4:	48 89 85 c8 fe ff ff 	mov    %rax,-0x138(%rbp)
   11fab:	c7 85 28 fe ff ff 01 	movl   $0x1,-0x1d8(%rbp)
   11fb2:	00 00 00 
   11fb5:	c7 85 2c fe ff ff fe 	movl   $0xfffffffe,-0x1d4(%rbp)
   11fbc:	ff ff ff 
   11fbf:	c7 85 30 fe ff ff fe 	movl   $0xfffffffe,-0x1d0(%rbp)
   11fc6:	ff ff ff 
   11fc9:	c6 85 ed fd ff ff 08 	movb   $0x8,-0x213(%rbp)
   11fd0:	c6 85 ee fd ff ff 05 	movb   $0x5,-0x212(%rbp)
   11fd7:	c7 85 e0 fe ff ff 8e 	movl   $0xac37e68e,-0x120(%rbp)
   11fde:	e6 37 ac 
   11fe1:	c7 85 e4 fe ff ff 8e 	movl   $0xac37e68e,-0x11c(%rbp)
   11fe8:	e6 37 ac 
   11feb:	c7 85 e8 fe ff ff 05 	movl   $0x5,-0x118(%rbp)
   11ff2:	00 00 00 
   11ff5:	c7 85 ec fe ff ff 8e 	movl   $0xac37e68e,-0x114(%rbp)
   11ffc:	e6 37 ac 
   11fff:	c7 85 f0 fe ff ff 8e 	movl   $0xac37e68e,-0x110(%rbp)
   12006:	e6 37 ac 
   12009:	c7 85 f4 fe ff ff 05 	movl   $0x5,-0x10c(%rbp)
   12010:	00 00 00 
   12013:	c7 85 f8 fe ff ff 8e 	movl   $0xac37e68e,-0x108(%rbp)
   1201a:	e6 37 ac 
   1201d:	c7 85 34 fe ff ff 01 	movl   $0x1,-0x1cc(%rbp)
   12024:	00 00 00 
   12027:	c7 85 38 fe ff ff 88 	movl   $0xccd64288,-0x1c8(%rbp)
   1202e:	42 d6 cc 
   12031:	48 8d 05 88 45 01 00 	lea    0x14588(%rip),%rax        # 265c0 <g_1145>
   12038:	48 89 85 00 ff ff ff 	mov    %rax,-0x100(%rbp)
   1203f:	48 8d 05 7a 45 01 00 	lea    0x1457a(%rip),%rax        # 265c0 <g_1145>
   12046:	48 89 85 08 ff ff ff 	mov    %rax,-0xf8(%rbp)
   1204d:	48 8d 05 6c 45 01 00 	lea    0x1456c(%rip),%rax        # 265c0 <g_1145>
   12054:	48 89 85 10 ff ff ff 	mov    %rax,-0xf0(%rbp)
   1205b:	48 8d 05 5e 45 01 00 	lea    0x1455e(%rip),%rax        # 265c0 <g_1145>
   12062:	48 89 85 18 ff ff ff 	mov    %rax,-0xe8(%rbp)
   12069:	48 8d 05 50 45 01 00 	lea    0x14550(%rip),%rax        # 265c0 <g_1145>
   12070:	48 89 85 20 ff ff ff 	mov    %rax,-0xe0(%rbp)
   12077:	48 8d 05 42 45 01 00 	lea    0x14542(%rip),%rax        # 265c0 <g_1145>
   1207e:	48 89 85 28 ff ff ff 	mov    %rax,-0xd8(%rbp)
   12085:	48 8d 05 34 45 01 00 	lea    0x14534(%rip),%rax        # 265c0 <g_1145>
   1208c:	48 89 85 30 ff ff ff 	mov    %rax,-0xd0(%rbp)
   12093:	48 8d 05 26 45 01 00 	lea    0x14526(%rip),%rax        # 265c0 <g_1145>
   1209a:	48 89 85 38 ff ff ff 	mov    %rax,-0xc8(%rbp)
   120a1:	48 8d 05 18 45 01 00 	lea    0x14518(%rip),%rax        # 265c0 <g_1145>
   120a8:	48 89 85 40 ff ff ff 	mov    %rax,-0xc0(%rbp)
   120af:	48 8d 05 0a 45 01 00 	lea    0x1450a(%rip),%rax        # 265c0 <g_1145>
   120b6:	48 89 85 48 ff ff ff 	mov    %rax,-0xb8(%rbp)
   120bd:	48 8d 85 50 fe ff ff 	lea    -0x1b0(%rbp),%rax
   120c4:	48 89 85 50 ff ff ff 	mov    %rax,-0xb0(%rbp)
   120cb:	48 8d 85 50 fe ff ff 	lea    -0x1b0(%rbp),%rax
   120d2:	48 89 85 58 ff ff ff 	mov    %rax,-0xa8(%rbp)
   120d9:	48 c7 85 60 ff ff ff 	movq   $0x0,-0xa0(%rbp)
   120e0:	00 00 00 00 
   120e4:	48 8d 85 50 fe ff ff 	lea    -0x1b0(%rbp),%rax
   120eb:	48 89 85 68 ff ff ff 	mov    %rax,-0x98(%rbp)
   120f2:	48 c7 85 70 ff ff ff 	movq   $0x0,-0x90(%rbp)
   120f9:	00 00 00 00 
   120fd:	48 8d 85 50 fe ff ff 	lea    -0x1b0(%rbp),%rax
   12104:	48 89 85 78 ff ff ff 	mov    %rax,-0x88(%rbp)
   1210b:	48 8d 85 50 fe ff ff 	lea    -0x1b0(%rbp),%rax
   12112:	48 89 45 80          	mov    %rax,-0x80(%rbp)
   12116:	48 8d 85 50 fe ff ff 	lea    -0x1b0(%rbp),%rax
   1211d:	48 89 45 88          	mov    %rax,-0x78(%rbp)
   12121:	48 c7 45 90 00 00 00 	movq   $0x0,-0x70(%rbp)
   12128:	00 
   12129:	48 8d 85 50 fe ff ff 	lea    -0x1b0(%rbp),%rax
   12130:	48 89 45 98          	mov    %rax,-0x68(%rbp)
   12134:	48 c7 45 a0 00 00 00 	movq   $0x0,-0x60(%rbp)
   1213b:	00 
   1213c:	48 8d 85 50 fe ff ff 	lea    -0x1b0(%rbp),%rax
   12143:	48 89 45 a8          	mov    %rax,-0x58(%rbp)
   12147:	48 8d 85 50 fe ff ff 	lea    -0x1b0(%rbp),%rax
   1214e:	48 89 45 b0          	mov    %rax,-0x50(%rbp)
   12152:	48 8d 85 50 fe ff ff 	lea    -0x1b0(%rbp),%rax
   12159:	48 89 45 b8          	mov    %rax,-0x48(%rbp)
   1215d:	48 c7 45 c0 00 00 00 	movq   $0x0,-0x40(%rbp)
   12164:	00 
   12165:	48 8d 85 50 fe ff ff 	lea    -0x1b0(%rbp),%rax
   1216c:	48 89 45 c8          	mov    %rax,-0x38(%rbp)
   12170:	48 c7 45 d0 00 00 00 	movq   $0x0,-0x30(%rbp)
   12177:	00 
   12178:	48 8d 85 50 fe ff ff 	lea    -0x1b0(%rbp),%rax
   1217f:	48 89 45 d8          	mov    %rax,-0x28(%rbp)
   12183:	48 8d 05 6e 0b 01 00 	lea    0x10b6e(%rip),%rax        # 22cf8 <g_1352>
   1218a:	48 89 85 d0 fe ff ff 	mov    %rax,-0x130(%rbp)
   12191:	66 c7 85 f4 fd ff ff 	movw   $0x0,-0x20c(%rbp)
   12198:	00 00 
   1219a:	48 b8 01 01 01 01 01 	movabs $0x101010101010101,%rax
   121a1:	01 01 01 
   121a4:	48 89 45 ee          	mov    %rax,-0x12(%rbp)
   121a8:	66 c7 45 f6 01 01    	movw   $0x101,-0xa(%rbp)
   121ae:	66 c7 85 f6 fd ff ff 	movw   $0xfff9,-0x20a(%rbp)
   121b5:	f9 ff 
   121b7:	c6 85 ef fd ff ff 01 	movb   $0x1,-0x211(%rbp)
   121be:	c7 85 3c fe ff ff 01 	movl   $0x1,-0x1c4(%rbp)
   121c5:	00 00 00 
   121c8:	48 8b 05 81 03 01 00 	mov    0x10381(%rip),%rax        # 22550 <g_3+0x350>
   121cf:	0f be d0             	movsbl %al,%edx
   121d2:	48 8b 05 df 07 01 00 	mov    0x107df(%rip),%rax        # 229b8 <g_3+0x7b8>
   121d9:	0f be c0             	movsbl %al,%eax
   121dc:	89 d6                	mov    %edx,%esi
   121de:	89 c7                	mov    %eax,%edi
   121e0:	e8 4c 60 ff ff       	callq  8231 <safe_mod_func_int8_t_s_s>
   121e5:	0f be d0             	movsbl %al,%edx
   121e8:	48 8b 85 b0 fe ff ff 	mov    -0x150(%rbp),%rax
   121ef:	89 10                	mov    %edx,(%rax)
   121f1:	0f b6 05 e8 07 01 00 	movzbl 0x107e8(%rip),%eax        # 229e0 <g_13>
   121f8:	0f be c0             	movsbl %al,%eax
   121fb:	be 02 00 00 00       	mov    $0x2,%esi
   12200:	89 c7                	mov    %eax,%edi
   12202:	e8 ac 61 ff ff       	callq  83b3 <safe_add_func_int16_t_s_s>
   12207:	88 05 d3 07 01 00    	mov    %al,0x107d3(%rip)        # 229e0 <g_13>
   1220d:	0f b6 05 cc 07 01 00 	movzbl 0x107cc(%rip),%eax        # 229e0 <g_13>
   12214:	3c 1a                	cmp    $0x1a,%al
   12216:	0f 85 4c fd ff ff    	jne    11f68 <func_34+0x1b4>
   1221c:	48 8b 85 d8 fd ff ff 	mov    -0x228(%rbp),%rax
   12223:	0f bf d0             	movswl %ax,%edx
   12226:	48 8b 05 cb 0a 01 00 	mov    0x10acb(%rip),%rax        # 22cf8 <g_1352>
   1222d:	98                   	cwtl   
   1222e:	89 d6                	mov    %edx,%esi
   12230:	89 c7                	mov    %eax,%edi
   12232:	e8 df 61 ff ff       	callq  8416 <safe_mod_func_int16_t_s_s>
   12237:	48 8b 15 aa 26 01 00 	mov    0x126aa(%rip),%rdx        # 248e8 <g_451>
   1223e:	8b 0a                	mov    (%rdx),%ecx
   12240:	0f bf d0             	movswl %ax,%edx
   12243:	48 8b 05 9e 26 01 00 	mov    0x1269e(%rip),%rax        # 248e8 <g_451>
   1224a:	31 ca                	xor    %ecx,%edx
   1224c:	89 10                	mov    %edx,(%rax)
   1224e:	48 8b 85 d8 fd ff ff 	mov    -0x228(%rbp),%rax
   12255:	48 8b 4d f8          	mov    -0x8(%rbp),%rcx
   12259:	64 48 33 0c 25 28 00 	xor    %fs:0x28,%rcx
   12260:	00 00 
   12262:	74 05                	je     12269 <func_34+0x4b5>
   12264:	e8 07 5e ff ff       	callq  8070 <__stack_chk_fail@plt>
   12269:	c9                   	leaveq 
   1226a:	c3                   	retq   

000000000001226b <func_48>:
   1226b:	f3 0f 1e fa          	endbr64 
   1226f:	55                   	push   %rbp
   12270:	48 89 e5             	mov    %rsp,%rbp
   12273:	41 57                	push   %r15
   12275:	41 56                	push   %r14
   12277:	41 55                	push   %r13
   12279:	41 54                	push   %r12
   1227b:	53                   	push   %rbx
   1227c:	48 81 ec 00 10 00 00 	sub    $0x1000,%rsp
   12283:	48 83 0c 24 00       	orq    $0x0,(%rsp)
   12288:	48 81 ec 18 0a 00 00 	sub    $0xa18,%rsp
   1228f:	89 bd cc e5 ff ff    	mov    %edi,-0x1a34(%rbp)
   12295:	64 48 8b 04 25 28 00 	mov    %fs:0x28,%rax
   1229c:	00 00 
   1229e:	48 89 45 c8          	mov    %rax,-0x38(%rbp)
   122a2:	31 c0                	xor    %eax,%eax
   122a4:	c7 85 ac e6 ff ff ff 	movl   $0xffffffff,-0x1954(%rbp)
   122ab:	ff ff ff 
   122ae:	c7 85 08 e6 ff ff ff 	movl   $0xffffffff,-0x19f8(%rbp)
   122b5:	ff ff ff 
   122b8:	c7 85 0c e6 ff ff 01 	movl   $0x1,-0x19f4(%rbp)
   122bf:	00 00 00 
   122c2:	48 c7 85 50 e7 ff ff 	movq   $0x0,-0x18b0(%rbp)
   122c9:	00 00 00 00 
   122cd:	48 8d 85 50 e7 ff ff 	lea    -0x18b0(%rbp),%rax
   122d4:	48 89 85 58 e7 ff ff 	mov    %rax,-0x18a8(%rbp)
   122db:	48 8d 85 58 e7 ff ff 	lea    -0x18a8(%rbp),%rax
   122e2:	48 89 85 60 e7 ff ff 	mov    %rax,-0x18a0(%rbp)
   122e9:	48 8d 85 60 e7 ff ff 	lea    -0x18a0(%rbp),%rax
   122f0:	48 89 85 68 e7 ff ff 	mov    %rax,-0x1898(%rbp)
   122f7:	48 8d 05 1a 09 01 00 	lea    0x1091a(%rip),%rax        # 22c18 <g_688+0xf8>
   122fe:	48 89 85 30 e8 ff ff 	mov    %rax,-0x17d0(%rbp)
   12305:	c7 85 10 e6 ff ff ff 	movl   $0xffffffff,-0x19f0(%rbp)
   1230c:	ff ff ff 
   1230f:	c7 85 14 e6 ff ff 53 	movl   $0x6091c353,-0x19ec(%rbp)
   12316:	c3 91 60 
   12319:	c7 85 18 e6 ff ff 00 	movl   $0x0,-0x19e8(%rbp)
   12320:	00 00 00 
   12323:	c7 85 1c e6 ff ff 01 	movl   $0x1,-0x19e4(%rbp)
   1232a:	00 00 00 
   1232d:	48 8d 05 74 27 01 00 	lea    0x12774(%rip),%rax        # 24aa8 <g_725>
   12334:	48 89 85 70 e7 ff ff 	mov    %rax,-0x1890(%rbp)
   1233b:	48 8d 85 70 e7 ff ff 	lea    -0x1890(%rbp),%rax
   12342:	48 89 85 78 e7 ff ff 	mov    %rax,-0x1888(%rbp)
   12349:	c7 85 b0 e6 ff ff fb 	movl   $0xfffffffb,-0x1950(%rbp)
   12350:	ff ff ff 
   12353:	66 c7 85 f2 e5 ff ff 	movw   $0x0,-0x1a0e(%rbp)
   1235a:	00 00 
   1235c:	48 c7 85 80 e7 ff ff 	movq   $0x2,-0x1880(%rbp)
   12363:	02 00 00 00 
   12367:	48 8d 85 40 ec ff ff 	lea    -0x13c0(%rbp),%rax
   1236e:	48 83 c0 08          	add    $0x8,%rax
   12372:	48 89 85 38 e8 ff ff 	mov    %rax,-0x17c8(%rbp)
   12379:	48 8d 05 b8 07 01 00 	lea    0x107b8(%rip),%rax        # 22b38 <g_688+0x18>
   12380:	48 89 85 88 e7 ff ff 	mov    %rax,-0x1878(%rbp)
   12387:	48 8d 85 88 e7 ff ff 	lea    -0x1878(%rbp),%rax
   1238e:	48 89 85 40 e8 ff ff 	mov    %rax,-0x17c0(%rbp)
   12395:	48 c7 85 48 e8 ff ff 	movq   $0xffffffffffffffff,-0x17b8(%rbp)
   1239c:	ff ff ff ff 
   123a0:	48 8d 85 f0 eb ff ff 	lea    -0x1410(%rbp),%rax
   123a7:	48 83 c0 08          	add    $0x8,%rax
   123ab:	48 89 85 90 e7 ff ff 	mov    %rax,-0x1870(%rbp)
   123b2:	48 8d 85 80 ef ff ff 	lea    -0x1080(%rbp),%rax
   123b9:	48 8d 15 e0 1c 01 00 	lea    0x11ce0(%rip),%rdx        # 240a0 <g_4621+0xb42>
   123c0:	b9 23 00 00 00       	mov    $0x23,%ecx
   123c5:	48 89 c7             	mov    %rax,%rdi
   123c8:	48 89 d6             	mov    %rdx,%rsi
   123cb:	f3 48 a5             	rep movsq %ds:(%rsi),%es:(%rdi)
   123ce:	c7 85 20 e6 ff ff 49 	movl   $0x1934c49,-0x19e0(%rbp)
   123d5:	4c 93 01 
   123d8:	c7 85 b4 e6 ff ff ff 	movl   $0xffffffff,-0x194c(%rbp)
   123df:	ff ff ff 
   123e2:	48 8d 05 15 06 01 00 	lea    0x10615(%rip),%rax        # 229fe <g_68+0xe>
   123e9:	48 89 85 98 e7 ff ff 	mov    %rax,-0x1868(%rbp)
   123f0:	48 8d 85 98 e7 ff ff 	lea    -0x1868(%rbp),%rax
   123f7:	48 89 85 a0 e7 ff ff 	mov    %rax,-0x1860(%rbp)
   123fe:	c7 85 24 e6 ff ff ff 	movl   $0xffffffff,-0x19dc(%rbp)
   12405:	ff ff ff 
   12408:	c6 85 dc e5 ff ff d4 	movb   $0xd4,-0x1a24(%rbp)
   1240f:	c7 85 28 e6 ff ff 0a 	movl   $0xd69fe50a,-0x19d8(%rbp)
   12416:	e5 9f d6 
   12419:	c7 85 2c e6 ff ff ba 	movl   $0x967bcaba,-0x19d4(%rbp)
   12420:	ca 7b 96 
   12423:	c7 85 a0 ec ff ff 1a 	movl   $0x821a821a,-0x1360(%rbp)
   1242a:	82 1a 82 
   1242d:	c6 85 a4 ec ff ff 1a 	movb   $0x1a,-0x135c(%rbp)
   12434:	c7 85 a5 ec ff ff ff 	movl   $0xffffffff,-0x135b(%rbp)
   1243b:	ff ff ff 
   1243e:	c6 85 a9 ec ff ff ff 	movb   $0xff,-0x1357(%rbp)
   12445:	c7 85 aa ec ff ff d6 	movl   $0x82d682d6,-0x1356(%rbp)
   1244c:	82 d6 82 
   1244f:	c6 85 ae ec ff ff d6 	movb   $0xd6,-0x1352(%rbp)
   12456:	c7 85 af ec ff ff ff 	movl   $0xffffffff,-0x1351(%rbp)
   1245d:	ff ff ff 
   12460:	c6 85 b3 ec ff ff ff 	movb   $0xff,-0x134d(%rbp)
   12467:	c7 85 b4 ec ff ff 1a 	movl   $0x821a821a,-0x134c(%rbp)
   1246e:	82 1a 82 
   12471:	c6 85 b8 ec ff ff 1a 	movb   $0x1a,-0x1348(%rbp)
   12478:	c7 85 30 e6 ff ff 0c 	movl   $0x8e5d250c,-0x19d0(%rbp)
   1247f:	25 5d 8e 
   12482:	c7 85 60 ec ff ff 07 	movl   $0x7,-0x13a0(%rbp)
   12489:	00 00 00 
   1248c:	c7 85 64 ec ff ff 07 	movl   $0x7,-0x139c(%rbp)
   12493:	00 00 00 
   12496:	c7 85 68 ec ff ff 01 	movl   $0x1,-0x1398(%rbp)
   1249d:	00 00 00 
   124a0:	c7 85 6c ec ff ff 07 	movl   $0x7,-0x1394(%rbp)
   124a7:	00 00 00 
   124aa:	c7 85 70 ec ff ff 07 	movl   $0x7,-0x1390(%rbp)
   124b1:	00 00 00 
   124b4:	c7 85 74 ec ff ff 01 	movl   $0x1,-0x138c(%rbp)
   124bb:	00 00 00 
   124be:	c6 85 dd e5 ff ff f8 	movb   $0xf8,-0x1a23(%rbp)
   124c5:	48 8d 85 24 e6 ff ff 	lea    -0x19dc(%rbp),%rax
   124cc:	48 89 85 a8 e7 ff ff 	mov    %rax,-0x1858(%rbp)
   124d3:	48 c7 85 b0 e7 ff ff 	movq   $0x0,-0x1850(%rbp)
   124da:	00 00 00 00 
   124de:	c7 85 7c e6 ff ff ff 	movl   $0xffffffff,-0x1984(%rbp)
   124e5:	ff ff ff 
   124e8:	66 c7 85 f0 e5 ff ff 	movw   $0xfffe,-0x1a10(%rbp)
   124ef:	fe ff 
   124f1:	48 8d 85 70 e7 ff ff 	lea    -0x1890(%rbp),%rax
   124f8:	48 89 85 b8 e7 ff ff 	mov    %rax,-0x1848(%rbp)
   124ff:	48 8d 85 b8 e7 ff ff 	lea    -0x1848(%rbp),%rax
   12506:	48 89 85 50 e8 ff ff 	mov    %rax,-0x17b0(%rbp)
   1250d:	48 c7 85 58 e8 ff ff 	movq   $0x0,-0x17a8(%rbp)
   12514:	00 00 00 00 
   12518:	c7 85 b8 e6 ff ff 0e 	movl   $0xe9f9550e,-0x1948(%rbp)
   1251f:	55 f9 e9 
   12522:	48 b8 06 06 06 06 06 	movabs $0x606060606060606,%rax
   12529:	06 06 06 
   1252c:	48 89 45 be          	mov    %rax,-0x42(%rbp)
   12530:	66 c7 45 c6 06 06    	movw   $0x606,-0x3a(%rbp)
   12536:	c7 85 5c e6 ff ff 00 	movl   $0x0,-0x19a4(%rbp)
   1253d:	00 00 00 
   12540:	eb 1b                	jmp    1255d <func_48+0x2f2>
   12542:	8b 85 5c e6 ff ff    	mov    -0x19a4(%rbp),%eax
   12548:	48 98                	cltq   
   1254a:	48 c7 84 c5 80 ed ff 	movq   $0x0,-0x1280(%rbp,%rax,8)
   12551:	ff 00 00 00 00 
   12556:	83 85 5c e6 ff ff 01 	addl   $0x1,-0x19a4(%rbp)
   1255d:	83 bd 5c e6 ff ff 09 	cmpl   $0x9,-0x19a4(%rbp)
   12564:	7e dc                	jle    12542 <func_48+0x2d7>
   12566:	c7 85 5c e6 ff ff 00 	movl   $0x0,-0x19a4(%rbp)
   1256d:	00 00 00 
   12570:	eb 1e                	jmp    12590 <func_48+0x325>
   12572:	8b 85 5c e6 ff ff    	mov    -0x19a4(%rbp),%eax
   12578:	48 98                	cltq   
   1257a:	48 8d 15 7f 40 01 00 	lea    0x1407f(%rip),%rdx        # 26600 <g_1323>
   12581:	48 89 94 c5 40 ec ff 	mov    %rdx,-0x13c0(%rbp,%rax,8)
   12588:	ff 
   12589:	83 85 5c e6 ff ff 01 	addl   $0x1,-0x19a4(%rbp)
   12590:	83 bd 5c e6 ff ff 02 	cmpl   $0x2,-0x19a4(%rbp)
   12597:	7e d9                	jle    12572 <func_48+0x307>
   12599:	c7 85 5c e6 ff ff 00 	movl   $0x0,-0x19a4(%rbp)
   125a0:	00 00 00 
   125a3:	eb 1b                	jmp    125c0 <func_48+0x355>
   125a5:	8b 85 5c e6 ff ff    	mov    -0x19a4(%rbp),%eax
   125ab:	48 98                	cltq   
   125ad:	48 c7 84 c5 f0 eb ff 	movq   $0x0,-0x1410(%rbp,%rax,8)
   125b4:	ff 00 00 00 00 
   125b9:	83 85 5c e6 ff ff 01 	addl   $0x1,-0x19a4(%rbp)
   125c0:	83 bd 5c e6 ff ff 01 	cmpl   $0x1,-0x19a4(%rbp)
   125c7:	7e dc                	jle    125a5 <func_48+0x33a>
   125c9:	c7 85 5c e6 ff ff 00 	movl   $0x0,-0x19a4(%rbp)
   125d0:	00 00 00 
   125d3:	eb 41                	jmp    12616 <func_48+0x3ab>
   125d5:	c7 85 60 e6 ff ff 00 	movl   $0x0,-0x19a0(%rbp)
   125dc:	00 00 00 
   125df:	eb 25                	jmp    12606 <func_48+0x39b>
   125e1:	8b 85 60 e6 ff ff    	mov    -0x19a0(%rbp),%eax
   125e7:	48 63 d0             	movslq %eax,%rdx
   125ea:	8b 85 5c e6 ff ff    	mov    -0x19a4(%rbp),%eax
   125f0:	48 98                	cltq   
   125f2:	48 01 d0             	add    %rdx,%rax
   125f5:	66 c7 84 45 e6 eb ff 	movw   $0x4,-0x141a(%rbp,%rax,2)
   125fc:	ff 04 00 
   125ff:	83 85 60 e6 ff ff 01 	addl   $0x1,-0x19a0(%rbp)
   12606:	83 bd 60 e6 ff ff 00 	cmpl   $0x0,-0x19a0(%rbp)
   1260d:	7e d2                	jle    125e1 <func_48+0x376>
   1260f:	83 85 5c e6 ff ff 01 	addl   $0x1,-0x19a4(%rbp)
   12616:	83 bd 5c e6 ff ff 00 	cmpl   $0x0,-0x19a4(%rbp)
   1261d:	7e b6                	jle    125d5 <func_48+0x36a>
   1261f:	c7 85 5c e6 ff ff 00 	movl   $0x0,-0x19a4(%rbp)
   12626:	00 00 00 
   12629:	eb 4c                	jmp    12677 <func_48+0x40c>
   1262b:	c7 85 60 e6 ff ff 00 	movl   $0x0,-0x19a0(%rbp)
   12632:	00 00 00 
   12635:	eb 30                	jmp    12667 <func_48+0x3fc>
   12637:	8b 85 60 e6 ff ff    	mov    -0x19a0(%rbp),%eax
   1263d:	48 63 c8             	movslq %eax,%rcx
   12640:	8b 85 5c e6 ff ff    	mov    -0x19a4(%rbp),%eax
   12646:	48 63 d0             	movslq %eax,%rdx
   12649:	48 89 d0             	mov    %rdx,%rax
   1264c:	48 01 c0             	add    %rax,%rax
   1264f:	48 01 d0             	add    %rdx,%rax
   12652:	48 01 c8             	add    %rcx,%rax
   12655:	c7 84 85 20 ee ff ff 	movl   $0xffffffff,-0x11e0(%rbp,%rax,4)
   1265c:	ff ff ff ff 
   12660:	83 85 60 e6 ff ff 01 	addl   $0x1,-0x19a0(%rbp)
   12667:	83 bd 60 e6 ff ff 02 	cmpl   $0x2,-0x19a0(%rbp)
   1266e:	7e c7                	jle    12637 <func_48+0x3cc>
   12670:	83 85 5c e6 ff ff 01 	addl   $0x1,-0x19a4(%rbp)
   12677:	83 bd 5c e6 ff ff 07 	cmpl   $0x7,-0x19a4(%rbp)
   1267e:	7e ab                	jle    1262b <func_48+0x3c0>
   12680:	c7 85 5c e6 ff ff 00 	movl   $0x0,-0x19a4(%rbp)
   12687:	00 00 00 
   1268a:	eb 14                	jmp    126a0 <func_48+0x435>
   1268c:	8b 85 5c e6 ff ff    	mov    -0x19a4(%rbp),%eax
   12692:	48 98                	cltq   
   12694:	c6 44 05 b6 96       	movb   $0x96,-0x4a(%rbp,%rax,1)
   12699:	83 85 5c e6 ff ff 01 	addl   $0x1,-0x19a4(%rbp)
   126a0:	83 bd 5c e6 ff ff 07 	cmpl   $0x7,-0x19a4(%rbp)
   126a7:	7e e3                	jle    1268c <func_48+0x421>
   126a9:	c7 85 5c e6 ff ff 00 	movl   $0x0,-0x19a4(%rbp)
   126b0:	00 00 00 
   126b3:	eb 1a                	jmp    126cf <func_48+0x464>
   126b5:	8b 85 5c e6 ff ff    	mov    -0x19a4(%rbp),%eax
   126bb:	48 98                	cltq   
   126bd:	c7 84 85 00 ec ff ff 	movl   $0xfffffff7,-0x1400(%rbp,%rax,4)
   126c4:	f7 ff ff ff 
   126c8:	83 85 5c e6 ff ff 01 	addl   $0x1,-0x19a4(%rbp)
   126cf:	83 bd 5c e6 ff ff 04 	cmpl   $0x4,-0x19a4(%rbp)
   126d6:	7e dd                	jle    126b5 <func_48+0x44a>
   126d8:	c7 85 5c e6 ff ff 00 	movl   $0x0,-0x19a4(%rbp)
   126df:	00 00 00 
   126e2:	eb 1b                	jmp    126ff <func_48+0x494>
   126e4:	8b 85 5c e6 ff ff    	mov    -0x19a4(%rbp),%eax
   126ea:	48 98                	cltq   
   126ec:	48 c7 84 c5 f0 ec ff 	movq   $0x0,-0x1310(%rbp,%rax,8)
   126f3:	ff 00 00 00 00 
   126f8:	83 85 5c e6 ff ff 01 	addl   $0x1,-0x19a4(%rbp)
   126ff:	83 bd 5c e6 ff ff 07 	cmpl   $0x7,-0x19a4(%rbp)
   12706:	7e dc                	jle    126e4 <func_48+0x479>
   12708:	c6 05 f3 02 01 00 00 	movb   $0x0,0x102f3(%rip)        # 22a02 <g_88>
   1270f:	e9 3b 4b 00 00       	jmpq   1724f <func_48+0x4fe4>
   12714:	c7 85 64 e6 ff ff ff 	movl   $0xffffffff,-0x199c(%rbp)
   1271b:	ff ff ff 
   1271e:	48 b8 af 75 5c aa ee 	movabs $0xebd676eeaa5c75af,%rax
   12725:	76 d6 eb 
   12728:	48 89 85 28 e8 ff ff 	mov    %rax,-0x17d8(%rbp)
   1272f:	48 c7 85 c0 e7 ff ff 	movq   $0x0,-0x1840(%rbp)
   12736:	00 00 00 00 
   1273a:	48 8d 85 c0 e7 ff ff 	lea    -0x1840(%rbp),%rax
   12741:	48 89 85 c8 e7 ff ff 	mov    %rax,-0x1838(%rbp)
   12748:	48 8d 85 c8 e7 ff ff 	lea    -0x1838(%rbp),%rax
   1274f:	48 89 85 38 e9 ff ff 	mov    %rax,-0x16c8(%rbp)
   12756:	48 c7 85 d0 e7 ff ff 	movq   $0x0,-0x1830(%rbp)
   1275d:	00 00 00 00 
   12761:	c7 85 34 e6 ff ff fe 	movl   $0xfffffffe,-0x19cc(%rbp)
   12768:	ff ff ff 
   1276b:	48 c7 85 d8 e7 ff ff 	movq   $0x0,-0x1828(%rbp)
   12772:	00 00 00 00 
   12776:	c6 85 d9 e5 ff ff 00 	movb   $0x0,-0x1a27(%rbp)
   1277d:	48 8d 05 7c 3e 01 00 	lea    0x13e7c(%rip),%rax        # 26600 <g_1323>
   12784:	48 89 85 40 e9 ff ff 	mov    %rax,-0x16c0(%rbp)
   1278b:	66 c7 85 fc e5 ff ff 	movw   $0x7928,-0x1a04(%rbp)
   12792:	28 79 
   12794:	c7 85 f8 e6 ff ff 0f 	movl   $0xd89f740f,-0x1908(%rbp)
   1279b:	74 9f d8 
   1279e:	c7 85 80 ec ff ff e2 	movl   $0x9015afe2,-0x1380(%rbp)
   127a5:	af 15 90 
   127a8:	c7 85 84 ec ff ff bc 	movl   $0xac9ba9bc,-0x137c(%rbp)
   127af:	a9 9b ac 
   127b2:	c7 85 88 ec ff ff bc 	movl   $0xac9ba9bc,-0x1378(%rbp)
   127b9:	a9 9b ac 
   127bc:	c7 85 8c ec ff ff e2 	movl   $0x9015afe2,-0x1374(%rbp)
   127c3:	af 15 90 
   127c6:	c7 85 90 ec ff ff bc 	movl   $0xac9ba9bc,-0x1370(%rbp)
   127cd:	a9 9b ac 
   127d0:	c7 85 94 ec ff ff bc 	movl   $0xac9ba9bc,-0x136c(%rbp)
   127d7:	a9 9b ac 
   127da:	48 8d 85 80 e7 ff ff 	lea    -0x1880(%rbp),%rax
   127e1:	48 89 85 48 e9 ff ff 	mov    %rax,-0x16b8(%rbp)
   127e8:	48 8d 05 b9 22 01 00 	lea    0x122b9(%rip),%rax        # 24aa8 <g_725>
   127ef:	48 89 85 e0 e7 ff ff 	mov    %rax,-0x1820(%rbp)
   127f6:	48 8d 85 e0 e7 ff ff 	lea    -0x1820(%rbp),%rax
   127fd:	48 89 85 e8 e7 ff ff 	mov    %rax,-0x1818(%rbp)
   12804:	48 8d 85 e8 eb ff ff 	lea    -0x1418(%rbp),%rax
   1280b:	48 89 85 f0 e7 ff ff 	mov    %rax,-0x1810(%rbp)
   12812:	c6 85 e2 e5 ff ff fa 	movb   $0xfa,-0x1a1e(%rbp)
   12819:	48 8d 05 28 0b 01 00 	lea    0x10b28(%rip),%rax        # 23348 <g_1641>
   12820:	48 89 85 f8 e7 ff ff 	mov    %rax,-0x1808(%rbp)
   12827:	48 8d 85 f8 e7 ff ff 	lea    -0x1808(%rbp),%rax
   1282e:	48 89 85 50 e9 ff ff 	mov    %rax,-0x16b0(%rbp)
   12835:	48 8d 85 a0 f3 ff ff 	lea    -0xc60(%rbp),%rax
   1283c:	48 8d 15 9d af 00 00 	lea    0xaf9d(%rip),%rdx        # 1d7e0 <g_4277+0x1720>
   12843:	b9 46 00 00 00       	mov    $0x46,%ecx
   12848:	48 89 c7             	mov    %rax,%rdi
   1284b:	48 89 d6             	mov    %rdx,%rsi
   1284e:	f3 48 a5             	rep movsq %ds:(%rsi),%es:(%rdi)
   12851:	48 c7 85 58 e9 ff ff 	movq   $0x0,-0x16a8(%rbp)
   12858:	00 00 00 00 
   1285c:	48 8d 85 f0 e7 ff ff 	lea    -0x1810(%rbp),%rax
   12863:	48 89 85 00 e8 ff ff 	mov    %rax,-0x1800(%rbp)
   1286a:	48 8d 85 00 e8 ff ff 	lea    -0x1800(%rbp),%rax
   12871:	48 89 85 d0 ed ff ff 	mov    %rax,-0x1230(%rbp)
   12878:	48 8d 85 00 e8 ff ff 	lea    -0x1800(%rbp),%rax
   1287f:	48 89 85 d8 ed ff ff 	mov    %rax,-0x1228(%rbp)
   12886:	48 8d 85 00 e8 ff ff 	lea    -0x1800(%rbp),%rax
   1288d:	48 89 85 e0 ed ff ff 	mov    %rax,-0x1220(%rbp)
   12894:	48 8d 85 00 e8 ff ff 	lea    -0x1800(%rbp),%rax
   1289b:	48 89 85 e8 ed ff ff 	mov    %rax,-0x1218(%rbp)
   128a2:	48 8d 85 00 e8 ff ff 	lea    -0x1800(%rbp),%rax
   128a9:	48 89 85 f0 ed ff ff 	mov    %rax,-0x1210(%rbp)
   128b0:	48 8d 85 00 e8 ff ff 	lea    -0x1800(%rbp),%rax
   128b7:	48 89 85 f8 ed ff ff 	mov    %rax,-0x1208(%rbp)
   128be:	48 8d 85 00 e8 ff ff 	lea    -0x1800(%rbp),%rax
   128c5:	48 89 85 00 ee ff ff 	mov    %rax,-0x1200(%rbp)
   128cc:	48 8d 85 00 e8 ff ff 	lea    -0x1800(%rbp),%rax
   128d3:	48 89 85 08 ee ff ff 	mov    %rax,-0x11f8(%rbp)
   128da:	48 8d 85 00 e8 ff ff 	lea    -0x1800(%rbp),%rax
   128e1:	48 89 85 10 ee ff ff 	mov    %rax,-0x11f0(%rbp)
   128e8:	48 8d 85 00 e8 ff ff 	lea    -0x1800(%rbp),%rax
   128ef:	48 89 85 18 ee ff ff 	mov    %rax,-0x11e8(%rbp)
   128f6:	48 8d 05 0b 01 01 00 	lea    0x1010b(%rip),%rax        # 22a08 <g_126>
   128fd:	48 89 85 60 e9 ff ff 	mov    %rax,-0x16a0(%rbp)
   12904:	48 8d 85 80 ee ff ff 	lea    -0x1180(%rbp),%rax
   1290b:	48 8d 15 0e b1 00 00 	lea    0xb10e(%rip),%rdx        # 1da20 <g_4277+0x1960>
   12912:	b9 1f 00 00 00       	mov    $0x1f,%ecx
   12917:	48 89 c7             	mov    %rax,%rdi
   1291a:	48 89 d6             	mov    %rdx,%rsi
   1291d:	f3 48 a5             	rep movsq %ds:(%rsi),%es:(%rdi)
   12920:	48 89 f2             	mov    %rsi,%rdx
   12923:	48 89 f8             	mov    %rdi,%rax
   12926:	8b 0a                	mov    (%rdx),%ecx
   12928:	89 08                	mov    %ecx,(%rax)
   1292a:	48 8d 40 04          	lea    0x4(%rax),%rax
   1292e:	48 8d 52 04          	lea    0x4(%rdx),%rdx
   12932:	48 b8 a7 e0 ed 0c 9c 	movabs $0xc22579c0cede0a7,%rax
   12939:	57 22 0c 
   1293c:	48 89 85 68 e9 ff ff 	mov    %rax,-0x1698(%rbp)
   12943:	c7 85 68 e6 ff ff 00 	movl   $0x0,-0x1998(%rbp)
   1294a:	00 00 00 
   1294d:	e9 88 00 00 00       	jmpq   129da <func_48+0x76f>
   12952:	c7 85 6c e6 ff ff 00 	movl   $0x0,-0x1994(%rbp)
   12959:	00 00 00 
   1295c:	eb 6c                	jmp    129ca <func_48+0x75f>
   1295e:	c7 85 70 e6 ff ff 00 	movl   $0x0,-0x1990(%rbp)
   12965:	00 00 00 
   12968:	eb 50                	jmp    129ba <func_48+0x74f>
   1296a:	8b 85 70 e6 ff ff    	mov    -0x1990(%rbp),%eax
   12970:	48 63 f0             	movslq %eax,%rsi
   12973:	8b 85 68 e6 ff ff    	mov    -0x1998(%rbp),%eax
   12979:	48 63 d0             	movslq %eax,%rdx
   1297c:	8b 85 6c e6 ff ff    	mov    -0x1994(%rbp),%eax
   12982:	48 63 c8             	movslq %eax,%rcx
   12985:	48 89 d0             	mov    %rdx,%rax
   12988:	48 01 c0             	add    %rax,%rax
   1298b:	48 01 d0             	add    %rdx,%rax
   1298e:	48 8d 14 c5 00 00 00 	lea    0x0(,%rax,8),%rdx
   12995:	00 
   12996:	48 01 d0             	add    %rdx,%rax
   12999:	48 89 ca             	mov    %rcx,%rdx
   1299c:	48 01 d2             	add    %rdx,%rdx
   1299f:	48 01 ca             	add    %rcx,%rdx
   129a2:	48 01 d0             	add    %rdx,%rax
   129a5:	48 01 f0             	add    %rsi,%rax
   129a8:	c7 84 85 f0 f1 ff ff 	movl   $0x1,-0xe10(%rbp,%rax,4)
   129af:	01 00 00 00 
   129b3:	83 85 70 e6 ff ff 01 	addl   $0x1,-0x1990(%rbp)
   129ba:	83 bd 70 e6 ff ff 02 	cmpl   $0x2,-0x1990(%rbp)
   129c1:	7e a7                	jle    1296a <func_48+0x6ff>
   129c3:	83 85 6c e6 ff ff 01 	addl   $0x1,-0x1994(%rbp)
   129ca:	83 bd 6c e6 ff ff 08 	cmpl   $0x8,-0x1994(%rbp)
   129d1:	7e 8b                	jle    1295e <func_48+0x6f3>
   129d3:	83 85 68 e6 ff ff 01 	addl   $0x1,-0x1998(%rbp)
   129da:	83 bd 68 e6 ff ff 03 	cmpl   $0x3,-0x1998(%rbp)
   129e1:	0f 8e 6b ff ff ff    	jle    12952 <func_48+0x6e7>
   129e7:	c7 85 68 e6 ff ff 00 	movl   $0x0,-0x1998(%rbp)
   129ee:	00 00 00 
   129f1:	eb 1e                	jmp    12a11 <func_48+0x7a6>
   129f3:	8b 85 68 e6 ff ff    	mov    -0x1998(%rbp),%eax
   129f9:	48 98                	cltq   
   129fb:	48 8d 15 c8 02 01 00 	lea    0x102c8(%rip),%rdx        # 22cca <g_1177+0xa>
   12a02:	48 89 94 c5 e8 eb ff 	mov    %rdx,-0x1418(%rbp,%rax,8)
   12a09:	ff 
   12a0a:	83 85 68 e6 ff ff 01 	addl   $0x1,-0x1998(%rbp)
   12a11:	83 bd 68 e6 ff ff 00 	cmpl   $0x0,-0x1998(%rbp)
   12a18:	7e d9                	jle    129f3 <func_48+0x788>
   12a1a:	c7 05 e4 ff 00 00 01 	movl   $0x1,0xffe4(%rip)        # 22a08 <g_126>
   12a21:	00 00 00 
   12a24:	e9 7b 06 00 00       	jmpq   130a4 <func_48+0xe39>
   12a29:	c7 85 4c e7 ff ff 92 	movl   $0x1774a92,-0x18b4(%rbp)
   12a30:	4a 77 01 
   12a33:	48 8d 05 ca ff 00 00 	lea    0xffca(%rip),%rax        # 22a04 <g_98>
   12a3a:	48 89 85 30 ed ff ff 	mov    %rax,-0x12d0(%rbp)
   12a41:	48 8d 05 aa ff 00 00 	lea    0xffaa(%rip),%rax        # 229f2 <g_68+0x2>
   12a48:	48 89 85 38 ed ff ff 	mov    %rax,-0x12c8(%rbp)
   12a4f:	48 8d 05 9c ff 00 00 	lea    0xff9c(%rip),%rax        # 229f2 <g_68+0x2>
   12a56:	48 89 85 40 ed ff ff 	mov    %rax,-0x12c0(%rbp)
   12a5d:	48 8d 05 a0 ff 00 00 	lea    0xffa0(%rip),%rax        # 22a04 <g_98>
   12a64:	48 89 85 48 ed ff ff 	mov    %rax,-0x12b8(%rbp)
   12a6b:	48 8d 05 80 ff 00 00 	lea    0xff80(%rip),%rax        # 229f2 <g_68+0x2>
   12a72:	48 89 85 50 ed ff ff 	mov    %rax,-0x12b0(%rbp)
   12a79:	48 8d 05 72 ff 00 00 	lea    0xff72(%rip),%rax        # 229f2 <g_68+0x2>
   12a80:	48 89 85 58 ed ff ff 	mov    %rax,-0x12a8(%rbp)
   12a87:	48 8d 05 82 ff 00 00 	lea    0xff82(%rip),%rax        # 22a10 <g_144>
   12a8e:	48 89 85 80 eb ff ff 	mov    %rax,-0x1480(%rbp)
   12a95:	48 8d 05 48 ff 00 00 	lea    0xff48(%rip),%rax        # 229e4 <g_27>
   12a9c:	48 89 85 88 eb ff ff 	mov    %rax,-0x1478(%rbp)
   12aa3:	48 8d 85 d0 e7 ff ff 	lea    -0x1830(%rbp),%rax
   12aaa:	48 89 85 90 eb ff ff 	mov    %rax,-0x1470(%rbp)
   12ab1:	48 c7 85 98 eb ff ff 	movq   $0x0,-0x1468(%rbp)
   12ab8:	00 00 00 00 
   12abc:	48 c7 85 a0 eb ff ff 	movq   $0x0,-0x1460(%rbp)
   12ac3:	00 00 00 00 
   12ac7:	48 8d 85 68 e7 ff ff 	lea    -0x1898(%rbp),%rax
   12ace:	48 89 85 a8 eb ff ff 	mov    %rax,-0x1458(%rbp)
   12ad5:	48 c7 85 b0 eb ff ff 	movq   $0x0,-0x1450(%rbp)
   12adc:	00 00 00 00 
   12ae0:	c7 85 a0 f0 ff ff f8 	movl   $0xfffffff8,-0xf60(%rbp)
   12ae7:	ff ff ff 
   12aea:	c7 85 a4 f0 ff ff a0 	movl   $0x9aff57a0,-0xf5c(%rbp)
   12af1:	57 ff 9a 
   12af4:	c7 85 a8 f0 ff ff a0 	movl   $0x9aff57a0,-0xf58(%rbp)
   12afb:	57 ff 9a 
   12afe:	c7 85 ac f0 ff ff f8 	movl   $0xfffffff8,-0xf54(%rbp)
   12b05:	ff ff ff 
   12b08:	c7 85 b0 f0 ff ff 03 	movl   $0x3,-0xf50(%rbp)
   12b0f:	00 00 00 
   12b12:	c7 85 b4 f0 ff ff f8 	movl   $0xfffffff8,-0xf4c(%rbp)
   12b19:	ff ff ff 
   12b1c:	c7 85 b8 f0 ff ff a0 	movl   $0x9aff57a0,-0xf48(%rbp)
   12b23:	57 ff 9a 
   12b26:	c7 85 bc f0 ff ff a0 	movl   $0x9aff57a0,-0xf44(%rbp)
   12b2d:	57 ff 9a 
   12b30:	c7 85 c0 f0 ff ff f8 	movl   $0xfffffff8,-0xf40(%rbp)
   12b37:	ff ff ff 
   12b3a:	c7 85 c4 f0 ff ff c2 	movl   $0xf041a4c2,-0xf3c(%rbp)
   12b41:	a4 41 f0 
   12b44:	c7 85 c8 f0 ff ff a0 	movl   $0x9aff57a0,-0xf38(%rbp)
   12b4b:	57 ff 9a 
   12b4e:	c7 85 cc f0 ff ff fb 	movl   $0xfffffffb,-0xf34(%rbp)
   12b55:	ff ff ff 
   12b58:	c7 85 d0 f0 ff ff a0 	movl   $0x9aff57a0,-0xf30(%rbp)
   12b5f:	57 ff 9a 
   12b62:	c7 85 d4 f0 ff ff c2 	movl   $0xf041a4c2,-0xf2c(%rbp)
   12b69:	a4 41 f0 
   12b6c:	c7 85 d8 f0 ff ff c2 	movl   $0xf041a4c2,-0xf28(%rbp)
   12b73:	a4 41 f0 
   12b76:	c7 85 dc f0 ff ff a0 	movl   $0x9aff57a0,-0xf24(%rbp)
   12b7d:	57 ff 9a 
   12b80:	c7 85 e0 f0 ff ff fb 	movl   $0xfffffffb,-0xf20(%rbp)
   12b87:	ff ff ff 
   12b8a:	c7 85 e4 f0 ff ff a0 	movl   $0x9aff57a0,-0xf1c(%rbp)
   12b91:	57 ff 9a 
   12b94:	c7 85 e8 f0 ff ff a0 	movl   $0x9aff57a0,-0xf18(%rbp)
   12b9b:	57 ff 9a 
   12b9e:	c7 85 ec f0 ff ff 03 	movl   $0x3,-0xf14(%rbp)
   12ba5:	00 00 00 
   12ba8:	c7 85 f0 f0 ff ff fb 	movl   $0xfffffffb,-0xf10(%rbp)
   12baf:	ff ff ff 
   12bb2:	c7 85 f4 f0 ff ff fb 	movl   $0xfffffffb,-0xf0c(%rbp)
   12bb9:	ff ff ff 
   12bbc:	c7 85 f8 f0 ff ff 03 	movl   $0x3,-0xf08(%rbp)
   12bc3:	00 00 00 
   12bc6:	c7 85 fc f0 ff ff a0 	movl   $0x9aff57a0,-0xf04(%rbp)
   12bcd:	57 ff 9a 
   12bd0:	c7 85 00 f1 ff ff 03 	movl   $0x3,-0xf00(%rbp)
   12bd7:	00 00 00 
   12bda:	c7 85 04 f1 ff ff fb 	movl   $0xfffffffb,-0xefc(%rbp)
   12be1:	ff ff ff 
   12be4:	c7 85 08 f1 ff ff fb 	movl   $0xfffffffb,-0xef8(%rbp)
   12beb:	ff ff ff 
   12bee:	c7 85 0c f1 ff ff c2 	movl   $0xf041a4c2,-0xef4(%rbp)
   12bf5:	a4 41 f0 
   12bf8:	c7 85 10 f1 ff ff c2 	movl   $0xf041a4c2,-0xef0(%rbp)
   12bff:	a4 41 f0 
   12c02:	c7 85 14 f1 ff ff a0 	movl   $0x9aff57a0,-0xeec(%rbp)
   12c09:	57 ff 9a 
   12c0c:	c7 85 18 f1 ff ff fb 	movl   $0xfffffffb,-0xee8(%rbp)
   12c13:	ff ff ff 
   12c16:	c7 85 1c f1 ff ff a0 	movl   $0x9aff57a0,-0xee4(%rbp)
   12c1d:	57 ff 9a 
   12c20:	c7 85 20 f1 ff ff c2 	movl   $0xf041a4c2,-0xee0(%rbp)
   12c27:	a4 41 f0 
   12c2a:	c7 85 24 f1 ff ff c2 	movl   $0xf041a4c2,-0xedc(%rbp)
   12c31:	a4 41 f0 
   12c34:	c7 85 28 f1 ff ff a0 	movl   $0x9aff57a0,-0xed8(%rbp)
   12c3b:	57 ff 9a 
   12c3e:	c7 85 2c f1 ff ff fb 	movl   $0xfffffffb,-0xed4(%rbp)
   12c45:	ff ff ff 
   12c48:	c7 85 30 f1 ff ff f8 	movl   $0xfffffff8,-0xed0(%rbp)
   12c4f:	ff ff ff 
   12c52:	c7 85 34 f1 ff ff 03 	movl   $0x3,-0xecc(%rbp)
   12c59:	00 00 00 
   12c5c:	c7 85 38 f1 ff ff f8 	movl   $0xfffffff8,-0xec8(%rbp)
   12c63:	ff ff ff 
   12c66:	c7 85 3c f1 ff ff a0 	movl   $0x9aff57a0,-0xec4(%rbp)
   12c6d:	57 ff 9a 
   12c70:	c7 85 40 f1 ff ff a0 	movl   $0x9aff57a0,-0xec0(%rbp)
   12c77:	57 ff 9a 
   12c7a:	c7 85 44 f1 ff ff f8 	movl   $0xfffffff8,-0xebc(%rbp)
   12c81:	ff ff ff 
   12c84:	c7 85 48 f1 ff ff 03 	movl   $0x3,-0xeb8(%rbp)
   12c8b:	00 00 00 
   12c8e:	c7 85 4c f1 ff ff f8 	movl   $0xfffffff8,-0xeb4(%rbp)
   12c95:	ff ff ff 
   12c98:	c7 85 50 f1 ff ff a0 	movl   $0x9aff57a0,-0xeb0(%rbp)
   12c9f:	57 ff 9a 
   12ca2:	c6 85 ea e5 ff ff 46 	movb   $0x46,-0x1a16(%rbp)
   12ca9:	48 8d 85 a0 f8 ff ff 	lea    -0x760(%rbp),%rax
   12cb0:	48 8d 15 69 ae 00 00 	lea    0xae69(%rip),%rdx        # 1db20 <g_4277+0x1a60>
   12cb7:	b9 7d 00 00 00       	mov    $0x7d,%ecx
   12cbc:	48 89 c7             	mov    %rax,%rdi
   12cbf:	48 89 d6             	mov    %rdx,%rsi
   12cc2:	f3 48 a5             	rep movsq %ds:(%rsi),%es:(%rdi)
   12cc5:	66 c7 85 06 e6 ff ff 	movw   $0x0,-0x19fa(%rbp)
   12ccc:	00 00 
   12cce:	48 8d 05 2b 39 01 00 	lea    0x1392b(%rip),%rax        # 26600 <g_1323>
   12cd5:	48 89 85 b8 eb ff ff 	mov    %rax,-0x1448(%rbp)
   12cdc:	48 8d 05 bd 1d 01 00 	lea    0x11dbd(%rip),%rax        # 24aa0 <g_726>
   12ce3:	48 89 85 c0 eb ff ff 	mov    %rax,-0x1440(%rbp)
   12cea:	48 c7 85 c8 eb ff ff 	movq   $0x2,-0x1438(%rbp)
   12cf1:	02 00 00 00 
   12cf5:	48 8d 05 08 fd 00 00 	lea    0xfd08(%rip),%rax        # 22a04 <g_98>
   12cfc:	48 89 85 10 e8 ff ff 	mov    %rax,-0x17f0(%rbp)
   12d03:	48 8d 85 10 e8 ff ff 	lea    -0x17f0(%rbp),%rax
   12d0a:	48 89 85 d0 eb ff ff 	mov    %rax,-0x1430(%rbp)
   12d11:	66 c7 85 d0 f5 ff ff 	movw   $0x5c,-0xa30(%rbp)
   12d18:	5c 00 
   12d1a:	66 c7 85 d2 f5 ff ff 	movw   $0xfac3,-0xa2e(%rbp)
   12d21:	c3 fa 
   12d23:	66 c7 85 d4 f5 ff ff 	movw   $0x5401,-0xa2c(%rbp)
   12d2a:	01 54 
   12d2c:	66 c7 85 d6 f5 ff ff 	movw   $0x541a,-0xa2a(%rbp)
   12d33:	1a 54 
   12d35:	66 c7 85 d8 f5 ff ff 	movw   $0xfa01,-0xa28(%rbp)
   12d3c:	01 fa 
   12d3e:	66 c7 85 da f5 ff ff 	movw   $0xc3,-0xa26(%rbp)
   12d45:	c3 00 
   12d47:	66 c7 85 dc f5 ff ff 	movw   $0x15c,-0xa24(%rbp)
   12d4e:	5c 01 
   12d50:	66 c7 85 de f5 ff ff 	movw   $0x5c7a,-0xa22(%rbp)
   12d57:	7a 5c 
   12d59:	66 c7 85 e0 f5 ff ff 	movw   $0xa6fd,-0xa20(%rbp)
   12d60:	fd a6 
   12d62:	66 c7 85 e2 f5 ff ff 	movw   $0xfd,-0xa1e(%rbp)
   12d69:	fd 00 
   12d6b:	66 c7 85 e4 f5 ff ff 	movw   $0x7a,-0xa1c(%rbp)
   12d72:	7a 00 
   12d74:	66 c7 85 e6 f5 ff ff 	movw   $0x0,-0xa1a(%rbp)
   12d7b:	00 00 
   12d7d:	66 c7 85 e8 f5 ff ff 	movw   $0x7900,-0xa18(%rbp)
   12d84:	00 79 
   12d86:	66 c7 85 ea f5 ff ff 	movw   $0x1a01,-0xa16(%rbp)
   12d8d:	01 1a 
   12d8f:	66 c7 85 ec f5 ff ff 	movw   $0x5454,-0xa14(%rbp)
   12d96:	54 54 
   12d98:	66 c7 85 ee f5 ff ff 	movw   $0x7900,-0xa12(%rbp)
   12d9f:	00 79 
   12da1:	66 c7 85 f0 f5 ff ff 	movw   $0xdffd,-0xa10(%rbp)
   12da8:	fd df 
   12daa:	66 c7 85 f2 f5 ff ff 	movw   $0x1a00,-0xa0e(%rbp)
   12db1:	00 1a 
   12db3:	66 c7 85 f4 f5 ff ff 	movw   $0xe1,-0xa0c(%rbp)
   12dba:	e1 00 
   12dbc:	66 c7 85 f6 f5 ff ff 	movw   $0x57fa,-0xa0a(%rbp)
   12dc3:	fa 57 
   12dc5:	66 c7 85 f8 f5 ff ff 	movw   $0xfa,-0xa08(%rbp)
   12dcc:	fa 00 
   12dce:	66 c7 85 fa f5 ff ff 	movw   $0x1ae1,-0xa06(%rbp)
   12dd5:	e1 1a 
   12dd7:	66 c7 85 fc f5 ff ff 	movw   $0xdf00,-0xa04(%rbp)
   12dde:	00 df 
   12de0:	66 c7 85 fe f5 ff ff 	movw   $0xfd,-0xa02(%rbp)
   12de7:	fd 00 
   12de9:	66 c7 85 00 f6 ff ff 	movw   $0x9ff,-0xa00(%rbp)
   12df0:	ff 09 
   12df2:	66 c7 85 02 f6 ff ff 	movw   $0x9,-0x9fe(%rbp)
   12df9:	09 00 
   12dfb:	66 c7 85 04 f6 ff ff 	movw   $0x1a,-0x9fc(%rbp)
   12e02:	1a 00 
   12e04:	66 c7 85 06 f6 ff ff 	movw   $0xb491,-0x9fa(%rbp)
   12e0b:	91 b4 
   12e0d:	66 c7 85 08 f6 ff ff 	movw   $0xff00,-0x9f8(%rbp)
   12e14:	00 ff 
   12e16:	66 c7 85 0a f6 ff ff 	movw   $0x0,-0x9f6(%rbp)
   12e1d:	00 00 
   12e1f:	66 c7 85 0c f6 ff ff 	movw   $0xffff,-0x9f4(%rbp)
   12e26:	ff ff 
   12e28:	66 c7 85 0e f6 ff ff 	movw   $0x3afa,-0x9f2(%rbp)
   12e2f:	fa 3a 
   12e31:	66 c7 85 10 f6 ff ff 	movw   $0x1a00,-0x9f0(%rbp)
   12e38:	00 1a 
   12e3a:	66 c7 85 12 f6 ff ff 	movw   $0xb43a,-0x9ee(%rbp)
   12e41:	3a b4 
   12e43:	66 c7 85 14 f6 ff ff 	movw   $0x7dfd,-0x9ec(%rbp)
   12e4a:	fd 7d 
   12e4c:	66 c7 85 16 f6 ff ff 	movw   $0x91a,-0x9ea(%rbp)
   12e53:	1a 09 
   12e55:	66 c7 85 18 f6 ff ff 	movw   $0x900,-0x9e8(%rbp)
   12e5c:	00 09 
   12e5e:	66 c7 85 1a f6 ff ff 	movw   $0x7d1a,-0x9e6(%rbp)
   12e65:	1a 7d 
   12e67:	66 c7 85 1c f6 ff ff 	movw   $0xb4fd,-0x9e4(%rbp)
   12e6e:	fd b4 
   12e70:	66 c7 85 1e f6 ff ff 	movw   $0x1a3a,-0x9e2(%rbp)
   12e77:	3a 1a 
   12e79:	66 c7 85 20 f6 ff ff 	movw   $0x3a00,-0x9e0(%rbp)
   12e80:	00 3a 
   12e82:	66 c7 85 22 f6 ff ff 	movw   $0xfffa,-0x9de(%rbp)
   12e89:	fa ff 
   12e8b:	66 c7 85 24 f6 ff ff 	movw   $0xff,-0x9dc(%rbp)
   12e92:	ff 00 
   12e94:	66 c7 85 26 f6 ff ff 	movw   $0xff00,-0x9da(%rbp)
   12e9b:	00 ff 
   12e9d:	66 c7 85 28 f6 ff ff 	movw   $0xb400,-0x9d8(%rbp)
   12ea4:	00 b4 
   12ea6:	66 c7 85 2a f6 ff ff 	movw   $0x91,-0x9d6(%rbp)
   12ead:	91 00 
   12eaf:	66 c7 85 2c f6 ff ff 	movw   $0x1a,-0x9d4(%rbp)
   12eb6:	1a 00 
   12eb8:	66 c7 85 2e f6 ff ff 	movw   $0x909,-0x9d2(%rbp)
   12ebf:	09 09 
   12ec1:	66 c7 85 30 f6 ff ff 	movw   $0xff,-0x9d0(%rbp)
   12ec8:	ff 00 
   12eca:	66 c7 85 32 f6 ff ff 	movw   $0xdffd,-0x9ce(%rbp)
   12ed1:	fd df 
   12ed3:	66 c7 85 34 f6 ff ff 	movw   $0x1a00,-0x9cc(%rbp)
   12eda:	00 1a 
   12edc:	66 c7 85 36 f6 ff ff 	movw   $0xe1,-0x9ca(%rbp)
   12ee3:	e1 00 
   12ee5:	66 c7 85 38 f6 ff ff 	movw   $0x57fa,-0x9c8(%rbp)
   12eec:	fa 57 
   12eee:	66 c7 85 3a f6 ff ff 	movw   $0xfa,-0x9c6(%rbp)
   12ef5:	fa 00 
   12ef7:	66 c7 85 3c f6 ff ff 	movw   $0x1ae1,-0x9c4(%rbp)
   12efe:	e1 1a 
   12f00:	66 c7 85 3e f6 ff ff 	movw   $0xdf00,-0x9c2(%rbp)
   12f07:	00 df 
   12f09:	66 c7 85 40 f6 ff ff 	movw   $0xfd,-0x9c0(%rbp)
   12f10:	fd 00 
   12f12:	66 c7 85 42 f6 ff ff 	movw   $0x9ff,-0x9be(%rbp)
   12f19:	ff 09 
   12f1b:	66 c7 85 44 f6 ff ff 	movw   $0x9,-0x9bc(%rbp)
   12f22:	09 00 
   12f24:	66 c7 85 46 f6 ff ff 	movw   $0x1a,-0x9ba(%rbp)
   12f2b:	1a 00 
   12f2d:	66 c7 85 48 f6 ff ff 	movw   $0xb491,-0x9b8(%rbp)
   12f34:	91 b4 
   12f36:	66 c7 85 4a f6 ff ff 	movw   $0xff00,-0x9b6(%rbp)
   12f3d:	00 ff 
   12f3f:	66 c7 85 4c f6 ff ff 	movw   $0x0,-0x9b4(%rbp)
   12f46:	00 00 
   12f48:	66 c7 85 4e f6 ff ff 	movw   $0xffff,-0x9b2(%rbp)
   12f4f:	ff ff 
   12f51:	66 c7 85 50 f6 ff ff 	movw   $0x3afa,-0x9b0(%rbp)
   12f58:	fa 3a 
   12f5a:	66 c7 85 52 f6 ff ff 	movw   $0x1a00,-0x9ae(%rbp)
   12f61:	00 1a 
   12f63:	66 c7 85 54 f6 ff ff 	movw   $0xb43a,-0x9ac(%rbp)
   12f6a:	3a b4 
   12f6c:	66 c7 85 56 f6 ff ff 	movw   $0x7dfd,-0x9aa(%rbp)
   12f73:	fd 7d 
   12f75:	66 c7 85 58 f6 ff ff 	movw   $0x91a,-0x9a8(%rbp)
   12f7c:	1a 09 
   12f7e:	66 c7 85 5a f6 ff ff 	movw   $0x900,-0x9a6(%rbp)
   12f85:	00 09 
   12f87:	66 c7 85 5c f6 ff ff 	movw   $0x7d1a,-0x9a4(%rbp)
   12f8e:	1a 7d 
   12f90:	66 c7 85 5e f6 ff ff 	movw   $0xb4fd,-0x9a2(%rbp)
   12f97:	fd b4 
   12f99:	66 c7 85 60 f6 ff ff 	movw   $0x1a3a,-0x9a0(%rbp)
   12fa0:	3a 1a 
   12fa2:	66 c7 85 62 f6 ff ff 	movw   $0x3a00,-0x99e(%rbp)
   12fa9:	00 3a 
   12fab:	66 c7 85 64 f6 ff ff 	movw   $0xfffa,-0x99c(%rbp)
   12fb2:	fa ff 
   12fb4:	66 c7 85 66 f6 ff ff 	movw   $0xff,-0x99a(%rbp)
   12fbb:	ff 00 
   12fbd:	66 c7 85 68 f6 ff ff 	movw   $0xff00,-0x998(%rbp)
   12fc4:	00 ff 
   12fc6:	66 c7 85 6a f6 ff ff 	movw   $0xb400,-0x996(%rbp)
   12fcd:	00 b4 
   12fcf:	66 c7 85 6c f6 ff ff 	movw   $0x91,-0x994(%rbp)
   12fd6:	91 00 
   12fd8:	66 c7 85 6e f6 ff ff 	movw   $0x1a,-0x992(%rbp)
   12fdf:	1a 00 
   12fe1:	66 c7 85 70 f6 ff ff 	movw   $0x909,-0x990(%rbp)
   12fe8:	09 09 
   12fea:	66 c7 85 72 f6 ff ff 	movw   $0xff,-0x98e(%rbp)
   12ff1:	ff 00 
   12ff3:	66 c7 85 74 f6 ff ff 	movw   $0xdffd,-0x98c(%rbp)
   12ffa:	fd df 
   12ffc:	66 c7 85 76 f6 ff ff 	movw   $0x1a00,-0x98a(%rbp)
   13003:	00 1a 
   13005:	66 c7 85 78 f6 ff ff 	movw   $0xe1,-0x988(%rbp)
   1300c:	e1 00 
   1300e:	66 c7 85 7a f6 ff ff 	movw   $0x57fa,-0x986(%rbp)
   13015:	fa 57 
   13017:	66 c7 85 7c f6 ff ff 	movw   $0xfa,-0x984(%rbp)
   1301e:	fa 00 
   13020:	66 c7 85 7e f6 ff ff 	movw   $0x1ae1,-0x982(%rbp)
   13027:	e1 1a 
   13029:	66 c7 85 80 f6 ff ff 	movw   $0xdf00,-0x980(%rbp)
   13030:	00 df 
   13032:	66 c7 85 82 f6 ff ff 	movw   $0xfd,-0x97e(%rbp)
   13039:	fd 00 
   1303b:	48 8d 85 30 ed ff ff 	lea    -0x12d0(%rbp),%rax
   13042:	48 83 c0 08          	add    $0x8,%rax
   13046:	48 89 85 18 e8 ff ff 	mov    %rax,-0x17e8(%rbp)
   1304d:	48 8d 85 18 e8 ff ff 	lea    -0x17e8(%rbp),%rax
   13054:	48 89 85 d8 eb ff ff 	mov    %rax,-0x1428(%rbp)
   1305b:	c6 85 eb e5 ff ff 01 	movb   $0x1,-0x1a15(%rbp)
   13062:	c7 85 74 e6 ff ff 00 	movl   $0x0,-0x198c(%rbp)
   13069:	00 00 00 
   1306c:	eb 1e                	jmp    1308c <func_48+0xe21>
   1306e:	8b 85 74 e6 ff ff    	mov    -0x198c(%rbp),%eax
   13074:	48 98                	cltq   
   13076:	48 8d 15 15 fa 00 00 	lea    0xfa15(%rip),%rdx        # 22a92 <g_448+0x2>
   1307d:	48 89 94 c5 c0 ec ff 	mov    %rdx,-0x1340(%rbp,%rax,8)
   13084:	ff 
   13085:	83 85 74 e6 ff ff 01 	addl   $0x1,-0x198c(%rbp)
   1308c:	83 bd 74 e6 ff ff 00 	cmpl   $0x0,-0x198c(%rbp)
   13093:	7e d9                	jle    1306e <func_48+0xe03>
   13095:	8b 05 6d f9 00 00    	mov    0xf96d(%rip),%eax        # 22a08 <g_126>
   1309b:	83 e8 01             	sub    $0x1,%eax
   1309e:	89 05 64 f9 00 00    	mov    %eax,0xf964(%rip)        # 22a08 <g_126>
   130a4:	8b 05 5e f9 00 00    	mov    0xf95e(%rip),%eax        # 22a08 <g_126>
   130aa:	85 c0                	test   %eax,%eax
   130ac:	0f 89 77 f9 ff ff    	jns    12a29 <func_48+0x7be>
   130b2:	48 c7 05 fb 34 01 00 	movq   $0x0,0x134fb(%rip)        # 265b8 <g_887>
   130b9:	00 00 00 00 
   130bd:	e9 29 28 00 00       	jmpq   158eb <func_48+0x3680>
   130c2:	48 8d 05 63 f9 00 00 	lea    0xf963(%rip),%rax        # 22a2c <g_191+0xc>
   130c9:	48 89 85 e0 ea ff ff 	mov    %rax,-0x1520(%rbp)
   130d0:	c7 85 44 e6 ff ff fb 	movl   $0xfffffffb,-0x19bc(%rbp)
   130d7:	ff ff ff 
   130da:	48 8d 05 77 f9 00 00 	lea    0xf977(%rip),%rax        # 22a58 <g_286>
   130e1:	48 89 85 e8 ea ff ff 	mov    %rax,-0x1518(%rbp)
   130e8:	48 8d 85 f0 e7 ff ff 	lea    -0x1810(%rbp),%rax
   130ef:	48 89 85 08 e8 ff ff 	mov    %rax,-0x17f8(%rbp)
   130f6:	48 8d 05 e7 f8 00 00 	lea    0xf8e7(%rip),%rax        # 229e4 <g_27>
   130fd:	48 89 85 f0 ea ff ff 	mov    %rax,-0x1510(%rbp)
   13104:	48 8d 85 e8 e7 ff ff 	lea    -0x1818(%rbp),%rax
   1310b:	48 89 85 f8 ea ff ff 	mov    %rax,-0x1508(%rbp)
   13112:	48 8d 05 e9 f8 00 00 	lea    0xf8e9(%rip),%rax        # 22a02 <g_88>
   13119:	48 89 85 10 e8 ff ff 	mov    %rax,-0x17f0(%rbp)
   13120:	48 8d 85 10 e8 ff ff 	lea    -0x17f0(%rbp),%rax
   13127:	48 89 85 00 eb ff ff 	mov    %rax,-0x1500(%rbp)
   1312e:	c7 85 30 e7 ff ff ff 	movl   $0xffffffff,-0x18d0(%rbp)
   13135:	ff ff ff 
   13138:	c7 85 48 e6 ff ff 00 	movl   $0x0,-0x19b8(%rbp)
   1313f:	00 00 00 
   13142:	c7 85 34 e7 ff ff 34 	movl   $0x9267b534,-0x18cc(%rbp)
   13149:	b5 67 92 
   1314c:	c7 85 38 e7 ff ff e5 	movl   $0x3774e6e5,-0x18c8(%rbp)
   13153:	e6 74 37 
   13156:	c7 85 3c e7 ff ff ff 	movl   $0xffffffff,-0x18c4(%rbp)
   1315d:	ff ff ff 
   13160:	c7 85 40 e7 ff ff fd 	movl   $0xde28ffd,-0x18c0(%rbp)
   13167:	8f e2 0d 
   1316a:	c7 85 78 e6 ff ff 00 	movl   $0x0,-0x1988(%rbp)
   13171:	00 00 00 
   13174:	eb 14                	jmp    1318a <func_48+0xf1f>
   13176:	8b 85 78 e6 ff ff    	mov    -0x1988(%rbp),%eax
   1317c:	48 98                	cltq   
   1317e:	c6 44 05 b0 0b       	movb   $0xb,-0x50(%rbp,%rax,1)
   13183:	83 85 78 e6 ff ff 01 	addl   $0x1,-0x1988(%rbp)
   1318a:	83 bd 78 e6 ff ff 05 	cmpl   $0x5,-0x1988(%rbp)
   13191:	7e e3                	jle    13176 <func_48+0xf0b>
   13193:	83 bd cc e5 ff ff 00 	cmpl   $0x0,-0x1a34(%rbp)
   1319a:	74 20                	je     131bc <func_48+0xf51>
   1319c:	be 00 00 00 00       	mov    $0x0,%esi
   131a1:	48 bf 86 d0 f6 47 5d 	movabs $0x1941905d47f6d086,%rdi
   131a8:	90 41 19 
   131ab:	e8 91 56 ff ff       	callq  8841 <safe_add_func_int64_t_s_s>
   131b0:	48 85 c0             	test   %rax,%rax
   131b3:	74 07                	je     131bc <func_48+0xf51>
   131b5:	ba 01 00 00 00       	mov    $0x1,%edx
   131ba:	eb 05                	jmp    131c1 <func_48+0xf56>
   131bc:	ba 00 00 00 00       	mov    $0x0,%edx
   131c1:	48 8b 05 20 17 01 00 	mov    0x11720(%rip),%rax        # 248e8 <g_451>
   131c8:	89 10                	mov    %edx,(%rax)
   131ca:	83 bd cc e5 ff ff 00 	cmpl   $0x0,-0x1a34(%rbp)
   131d1:	0f 85 01 27 00 00    	jne    158d8 <func_48+0x366d>
   131d7:	c7 85 64 e6 ff ff 00 	movl   $0x0,-0x199c(%rbp)
   131de:	00 00 00 
   131e1:	e9 fa 02 00 00       	jmpq   134e0 <func_48+0x1275>
   131e6:	48 8d 05 a3 18 01 00 	lea    0x118a3(%rip),%rax        # 24a90 <g_681+0xb0>
   131ed:	48 89 85 a0 f8 ff ff 	mov    %rax,-0x760(%rbp)
   131f4:	48 8d 05 95 18 01 00 	lea    0x11895(%rip),%rax        # 24a90 <g_681+0xb0>
   131fb:	48 89 85 a8 f8 ff ff 	mov    %rax,-0x758(%rbp)
   13202:	48 8d 05 87 18 01 00 	lea    0x11887(%rip),%rax        # 24a90 <g_681+0xb0>
   13209:	48 89 85 b0 f8 ff ff 	mov    %rax,-0x750(%rbp)
   13210:	48 8d 05 79 18 01 00 	lea    0x11879(%rip),%rax        # 24a90 <g_681+0xb0>
   13217:	48 89 85 b8 f8 ff ff 	mov    %rax,-0x748(%rbp)
   1321e:	48 8d 05 6b 18 01 00 	lea    0x1186b(%rip),%rax        # 24a90 <g_681+0xb0>
   13225:	48 89 85 c0 f8 ff ff 	mov    %rax,-0x740(%rbp)
   1322c:	48 8d 05 5d 18 01 00 	lea    0x1185d(%rip),%rax        # 24a90 <g_681+0xb0>
   13233:	48 89 85 c8 f8 ff ff 	mov    %rax,-0x738(%rbp)
   1323a:	48 8d 05 4f 18 01 00 	lea    0x1184f(%rip),%rax        # 24a90 <g_681+0xb0>
   13241:	48 89 85 d0 f8 ff ff 	mov    %rax,-0x730(%rbp)
   13248:	48 8d 05 41 18 01 00 	lea    0x11841(%rip),%rax        # 24a90 <g_681+0xb0>
   1324f:	48 89 85 d8 f8 ff ff 	mov    %rax,-0x728(%rbp)
   13256:	48 8d 05 33 18 01 00 	lea    0x11833(%rip),%rax        # 24a90 <g_681+0xb0>
   1325d:	48 89 85 e0 f8 ff ff 	mov    %rax,-0x720(%rbp)
   13264:	48 8d 05 25 18 01 00 	lea    0x11825(%rip),%rax        # 24a90 <g_681+0xb0>
   1326b:	48 89 85 e8 f8 ff ff 	mov    %rax,-0x718(%rbp)
   13272:	48 8d 05 17 18 01 00 	lea    0x11817(%rip),%rax        # 24a90 <g_681+0xb0>
   13279:	48 89 85 f0 f8 ff ff 	mov    %rax,-0x710(%rbp)
   13280:	48 8d 05 09 18 01 00 	lea    0x11809(%rip),%rax        # 24a90 <g_681+0xb0>
   13287:	48 89 85 f8 f8 ff ff 	mov    %rax,-0x708(%rbp)
   1328e:	48 8d 05 fb 17 01 00 	lea    0x117fb(%rip),%rax        # 24a90 <g_681+0xb0>
   13295:	48 89 85 00 f9 ff ff 	mov    %rax,-0x700(%rbp)
   1329c:	48 8d 05 ed 17 01 00 	lea    0x117ed(%rip),%rax        # 24a90 <g_681+0xb0>
   132a3:	48 89 85 08 f9 ff ff 	mov    %rax,-0x6f8(%rbp)
   132aa:	48 8d 05 df 17 01 00 	lea    0x117df(%rip),%rax        # 24a90 <g_681+0xb0>
   132b1:	48 89 85 10 f9 ff ff 	mov    %rax,-0x6f0(%rbp)
   132b8:	48 8d 05 d1 17 01 00 	lea    0x117d1(%rip),%rax        # 24a90 <g_681+0xb0>
   132bf:	48 89 85 18 f9 ff ff 	mov    %rax,-0x6e8(%rbp)
   132c6:	48 8d 05 c3 17 01 00 	lea    0x117c3(%rip),%rax        # 24a90 <g_681+0xb0>
   132cd:	48 89 85 20 f9 ff ff 	mov    %rax,-0x6e0(%rbp)
   132d4:	48 8d 05 b5 17 01 00 	lea    0x117b5(%rip),%rax        # 24a90 <g_681+0xb0>
   132db:	48 89 85 28 f9 ff ff 	mov    %rax,-0x6d8(%rbp)
   132e2:	48 8d 05 a7 17 01 00 	lea    0x117a7(%rip),%rax        # 24a90 <g_681+0xb0>
   132e9:	48 89 85 30 f9 ff ff 	mov    %rax,-0x6d0(%rbp)
   132f0:	48 8d 05 99 17 01 00 	lea    0x11799(%rip),%rax        # 24a90 <g_681+0xb0>
   132f7:	48 89 85 38 f9 ff ff 	mov    %rax,-0x6c8(%rbp)
   132fe:	48 8d 05 8b 17 01 00 	lea    0x1178b(%rip),%rax        # 24a90 <g_681+0xb0>
   13305:	48 89 85 40 f9 ff ff 	mov    %rax,-0x6c0(%rbp)
   1330c:	48 8d 05 7d 17 01 00 	lea    0x1177d(%rip),%rax        # 24a90 <g_681+0xb0>
   13313:	48 89 85 48 f9 ff ff 	mov    %rax,-0x6b8(%rbp)
   1331a:	48 8d 05 6f 17 01 00 	lea    0x1176f(%rip),%rax        # 24a90 <g_681+0xb0>
   13321:	48 89 85 50 f9 ff ff 	mov    %rax,-0x6b0(%rbp)
   13328:	48 8d 05 61 17 01 00 	lea    0x11761(%rip),%rax        # 24a90 <g_681+0xb0>
   1332f:	48 89 85 58 f9 ff ff 	mov    %rax,-0x6a8(%rbp)
   13336:	48 8d 05 53 17 01 00 	lea    0x11753(%rip),%rax        # 24a90 <g_681+0xb0>
   1333d:	48 89 85 60 f9 ff ff 	mov    %rax,-0x6a0(%rbp)
   13344:	48 8d 05 45 17 01 00 	lea    0x11745(%rip),%rax        # 24a90 <g_681+0xb0>
   1334b:	48 89 85 68 f9 ff ff 	mov    %rax,-0x698(%rbp)
   13352:	48 8d 05 37 17 01 00 	lea    0x11737(%rip),%rax        # 24a90 <g_681+0xb0>
   13359:	48 89 85 70 f9 ff ff 	mov    %rax,-0x690(%rbp)
   13360:	48 8d 05 29 17 01 00 	lea    0x11729(%rip),%rax        # 24a90 <g_681+0xb0>
   13367:	48 89 85 78 f9 ff ff 	mov    %rax,-0x688(%rbp)
   1336e:	48 8d 05 1b 17 01 00 	lea    0x1171b(%rip),%rax        # 24a90 <g_681+0xb0>
   13375:	48 89 85 80 f9 ff ff 	mov    %rax,-0x680(%rbp)
   1337c:	48 8d 05 0d 17 01 00 	lea    0x1170d(%rip),%rax        # 24a90 <g_681+0xb0>
   13383:	48 89 85 88 f9 ff ff 	mov    %rax,-0x678(%rbp)
   1338a:	48 8d 05 ff 16 01 00 	lea    0x116ff(%rip),%rax        # 24a90 <g_681+0xb0>
   13391:	48 89 85 90 f9 ff ff 	mov    %rax,-0x670(%rbp)
   13398:	48 8d 05 f1 16 01 00 	lea    0x116f1(%rip),%rax        # 24a90 <g_681+0xb0>
   1339f:	48 89 85 98 f9 ff ff 	mov    %rax,-0x668(%rbp)
   133a6:	48 c7 85 68 eb ff ff 	movq   $0x0,-0x1498(%rbp)
   133ad:	00 00 00 00 
   133b1:	48 8d 05 38 f9 00 00 	lea    0xf938(%rip),%rax        # 22cf0 <g_1182+0x10>
   133b8:	48 89 85 70 eb ff ff 	mov    %rax,-0x1490(%rbp)
   133bf:	c7 85 d0 f5 ff ff f8 	movl   $0xfffffff8,-0xa30(%rbp)
   133c6:	ff ff ff 
   133c9:	c7 85 d4 f5 ff ff 85 	movl   $0x95a24f85,-0xa2c(%rbp)
   133d0:	4f a2 95 
   133d3:	c7 85 d8 f5 ff ff d6 	movl   $0x1ae992d6,-0xa28(%rbp)
   133da:	92 e9 1a 
   133dd:	c7 85 dc f5 ff ff 85 	movl   $0x95a24f85,-0xa24(%rbp)
   133e4:	4f a2 95 
   133e7:	c7 85 e0 f5 ff ff d6 	movl   $0x1ae992d6,-0xa20(%rbp)
   133ee:	92 e9 1a 
   133f1:	c7 85 e4 f5 ff ff d6 	movl   $0x1ae992d6,-0xa1c(%rbp)
   133f8:	92 e9 1a 
   133fb:	c7 85 e8 f5 ff ff 85 	movl   $0x95a24f85,-0xa18(%rbp)
   13402:	4f a2 95 
   13405:	48 8d 85 44 e6 ff ff 	lea    -0x19bc(%rbp),%rax
   1340c:	48 89 85 78 eb ff ff 	mov    %rax,-0x1488(%rbp)
   13413:	48 8d 05 b6 15 01 00 	lea    0x115b6(%rip),%rax        # 249d0 <g_682>
   1341a:	48 89 85 08 f0 ff ff 	mov    %rax,-0xff8(%rbp)
   13421:	48 8b 85 e0 ea ff ff 	mov    -0x1520(%rbp),%rax
   13428:	48 3b 85 68 eb ff ff 	cmp    -0x1498(%rbp),%rax
   1342f:	0f 95 c2             	setne  %dl
   13432:	48 8b 05 af 14 01 00 	mov    0x114af(%rip),%rax        # 248e8 <g_451>
   13439:	0f b6 d2             	movzbl %dl,%edx
   1343c:	89 10                	mov    %edx,(%rax)
   1343e:	83 bd cc e5 ff ff 00 	cmpl   $0x0,-0x1a34(%rbp)
   13445:	74 76                	je     134bd <func_48+0x1252>
   13447:	8b 85 cc e5 ff ff    	mov    -0x1a34(%rbp),%eax
   1344d:	0f b7 c0             	movzwl %ax,%eax
   13450:	be ff ff 00 00       	mov    $0xffff,%esi
   13455:	89 c7                	mov    %eax,%edi
   13457:	e8 00 59 ff ff       	callq  8d5c <safe_mod_func_uint16_t_u_u>
   1345c:	48 8b 85 70 eb ff ff 	mov    -0x1490(%rbp),%rax
   13463:	0f b7 00             	movzwl (%rax),%eax
   13466:	8d 50 01             	lea    0x1(%rax),%edx
   13469:	48 8b 85 70 eb ff ff 	mov    -0x1490(%rbp),%rax
   13470:	66 89 10             	mov    %dx,(%rax)
   13473:	be 04 00 00 00       	mov    $0x4,%esi
   13478:	bf e0 06 00 00       	mov    $0x6e0,%edi
   1347d:	e8 e1 50 ff ff       	callq  8563 <safe_rshift_func_int16_t_s_u>
   13482:	48 0f bf c0          	movswq %ax,%rax
   13486:	48 89 05 6b fe 00 00 	mov    %rax,0xfe6b(%rip)        # 232f8 <g_1492+0x5f8>
   1348d:	48 8b 05 9c f3 00 00 	mov    0xf39c(%rip),%rax        # 22830 <g_3+0x630>
   13494:	98                   	cwtl   
   13495:	be fe ff ff ff       	mov    $0xfffffffe,%esi
   1349a:	89 c7                	mov    %eax,%edi
   1349c:	e8 54 4f ff ff       	callq  83f5 <safe_mul_func_int16_t_s_s>
   134a1:	0f b7 d0             	movzwl %ax,%edx
   134a4:	8b 85 cc e5 ff ff    	mov    -0x1a34(%rbp),%eax
   134aa:	0f b7 c0             	movzwl %ax,%eax
   134ad:	89 d6                	mov    %edx,%esi
   134af:	89 c7                	mov    %eax,%edi
   134b1:	e8 69 58 ff ff       	callq  8d1f <safe_sub_func_uint16_t_u_u>
   134b6:	ba 01 00 00 00       	mov    $0x1,%edx
   134bb:	eb 05                	jmp    134c2 <func_48+0x1257>
   134bd:	ba 00 00 00 00       	mov    $0x0,%edx
   134c2:	48 8b 05 1f 14 01 00 	mov    0x1141f(%rip),%rax        # 248e8 <g_451>
   134c9:	89 10                	mov    %edx,(%rax)
   134cb:	48 8d 85 44 e6 ff ff 	lea    -0x19bc(%rbp),%rax
   134d2:	48 89 85 78 eb ff ff 	mov    %rax,-0x1488(%rbp)
   134d9:	83 85 64 e6 ff ff 01 	addl   $0x1,-0x199c(%rbp)
   134e0:	83 bd 64 e6 ff ff 01 	cmpl   $0x1,-0x199c(%rbp)
   134e7:	0f 8e f9 fc ff ff    	jle    131e6 <func_48+0xf7b>
   134ed:	8b 85 cc e5 ff ff    	mov    -0x1a34(%rbp),%eax
   134f3:	48 98                	cltq   
   134f5:	ba f1 82 d5 ba       	mov    $0xbad582f1,%edx
   134fa:	48 09 d0             	or     %rdx,%rax
   134fd:	49 89 c4             	mov    %rax,%r12
   13500:	8b 85 cc e5 ff ff    	mov    -0x1a34(%rbp),%eax
   13506:	0f bf d8             	movswl %ax,%ebx
   13509:	8b 85 20 e6 ff ff    	mov    -0x19e0(%rbp),%eax
   1350f:	0f b7 d0             	movzwl %ax,%edx
   13512:	48 8b 0d c7 f6 00 00 	mov    0xf6c7(%rip),%rcx        # 22be0 <g_688+0xc0>
   13519:	8b 85 cc e5 ff ff    	mov    -0x1a34(%rbp),%eax
   1351f:	48 98                	cltq   
   13521:	48 39 c1             	cmp    %rax,%rcx
   13524:	40 0f 95 c6          	setne  %sil
   13528:	48 8b 85 08 e8 ff ff 	mov    -0x17f8(%rbp),%rax
   1352f:	48 8b 8d f0 e7 ff ff 	mov    -0x1810(%rbp),%rcx
   13536:	48 89 08             	mov    %rcx,(%rax)
   13539:	48 8b 00             	mov    (%rax),%rax
   1353c:	48 85 c0             	test   %rax,%rax
   1353f:	0f 95 c0             	setne  %al
   13542:	31 f0                	xor    %esi,%eax
   13544:	0f b6 c8             	movzbl %al,%ecx
   13547:	0f be 85 e2 e5 ff ff 	movsbl -0x1a1e(%rbp),%eax
   1354e:	39 c1                	cmp    %eax,%ecx
   13550:	0f 9e c0             	setle  %al
   13553:	0f b6 c0             	movzbl %al,%eax
   13556:	f7 d0                	not    %eax
   13558:	89 c1                	mov    %eax,%ecx
   1355a:	8b 85 cc e5 ff ff    	mov    -0x1a34(%rbp),%eax
   13560:	21 c1                	and    %eax,%ecx
   13562:	8b 85 cc e5 ff ff    	mov    -0x1a34(%rbp),%eax
   13568:	21 c8                	and    %ecx,%eax
   1356a:	0f b7 c0             	movzwl %ax,%eax
   1356d:	89 d6                	mov    %edx,%esi
   1356f:	89 c7                	mov    %eax,%edi
   13571:	e8 c7 57 ff ff       	callq  8d3d <safe_mul_func_uint16_t_u_u>
   13576:	98                   	cwtl   
   13577:	89 de                	mov    %ebx,%esi
   13579:	89 c7                	mov    %eax,%edi
   1357b:	e8 d5 4e ff ff       	callq  8455 <safe_div_func_int16_t_s_s>
   13580:	98                   	cwtl   
   13581:	be c6 09 00 00       	mov    $0x9c6,%esi
   13586:	89 c7                	mov    %eax,%edi
   13588:	e8 46 4e ff ff       	callq  83d3 <safe_sub_func_int16_t_s_s>
   1358d:	48 8b 85 e8 ea ff ff 	mov    -0x1518(%rbp),%rax
   13594:	48 8b 10             	mov    (%rax),%rdx
   13597:	48 8b 05 1a 30 01 00 	mov    0x1301a(%rip),%rax        # 265b8 <g_887>
   1359e:	48 31 c2             	xor    %rax,%rdx
   135a1:	48 8b 85 e8 ea ff ff 	mov    -0x1518(%rbp),%rax
   135a8:	48 89 10             	mov    %rdx,(%rax)
   135ab:	48 8b 85 e8 ea ff ff 	mov    -0x1518(%rbp),%rax
   135b2:	48 8b 00             	mov    (%rax),%rax
   135b5:	48 83 f8 01          	cmp    $0x1,%rax
   135b9:	75 0a                	jne    135c5 <func_48+0x135a>
   135bb:	8b 85 44 e6 ff ff    	mov    -0x19bc(%rbp),%eax
   135c1:	85 c0                	test   %eax,%eax
   135c3:	74 07                	je     135cc <func_48+0x1361>
   135c5:	b8 01 00 00 00       	mov    $0x1,%eax
   135ca:	eb 05                	jmp    135d1 <func_48+0x1366>
   135cc:	b8 00 00 00 00       	mov    $0x0,%eax
   135d1:	89 85 18 e6 ff ff    	mov    %eax,-0x19e8(%rbp)
   135d7:	8b 85 18 e6 ff ff    	mov    -0x19e8(%rbp),%eax
   135dd:	85 c0                	test   %eax,%eax
   135df:	0f 94 c0             	sete   %al
   135e2:	0f b6 c0             	movzbl %al,%eax
   135e5:	be f6 ff ff ff       	mov    $0xfffffff6,%esi
   135ea:	89 c7                	mov    %eax,%edi
   135ec:	e8 79 4c ff ff       	callq  826a <safe_div_func_int8_t_s_s>
   135f1:	3c ff                	cmp    $0xff,%al
   135f3:	0f 9d c0             	setge  %al
   135f6:	0f b6 d0             	movzbl %al,%edx
   135f9:	0f b7 05 04 f4 00 00 	movzwl 0xf404(%rip),%eax        # 22a04 <g_98>
   13600:	0f b7 c0             	movzwl %ax,%eax
   13603:	39 c2                	cmp    %eax,%edx
   13605:	0f 9f c0             	setg   %al
   13608:	0f b6 d0             	movzbl %al,%edx
   1360b:	8b 05 fb f3 00 00    	mov    0xf3fb(%rip),%eax        # 22a0c <g_129>
   13611:	39 c2                	cmp    %eax,%edx
   13613:	0f 95 c0             	setne  %al
   13616:	0f b6 c0             	movzbl %al,%eax
   13619:	39 85 b4 e6 ff ff    	cmp    %eax,-0x194c(%rbp)
   1361f:	74 0a                	je     1362b <func_48+0x13c0>
   13621:	8b 05 5d f6 00 00    	mov    0xf65d(%rip),%eax        # 22c84 <g_1128+0x44>
   13627:	85 c0                	test   %eax,%eax
   13629:	74 07                	je     13632 <func_48+0x13c7>
   1362b:	b8 01 00 00 00       	mov    $0x1,%eax
   13630:	eb 05                	jmp    13637 <func_48+0x13cc>
   13632:	b8 00 00 00 00       	mov    $0x0,%eax
   13637:	48 98                	cltq   
   13639:	49 39 c4             	cmp    %rax,%r12
   1363c:	0f 9e c0             	setle  %al
   1363f:	0f b6 d0             	movzbl %al,%edx
   13642:	8b 85 cc e5 ff ff    	mov    -0x1a34(%rbp),%eax
   13648:	0f b6 c0             	movzbl %al,%eax
   1364b:	89 d6                	mov    %edx,%esi
   1364d:	89 c7                	mov    %eax,%edi
   1364f:	e8 3f 55 ff ff       	callq  8b93 <safe_mul_func_uint8_t_u_u>
   13654:	0f b6 c0             	movzbl %al,%eax
   13657:	39 85 cc e5 ff ff    	cmp    %eax,-0x1a34(%rbp)
   1365d:	0f 95 c0             	setne  %al
   13660:	0f b6 d0             	movzbl %al,%edx
   13663:	48 8b 05 7e 12 01 00 	mov    0x1127e(%rip),%rax        # 248e8 <g_451>
   1366a:	23 95 cc e5 ff ff    	and    -0x1a34(%rbp),%edx
   13670:	89 10                	mov    %edx,(%rax)
   13672:	c7 85 64 e6 ff ff 00 	movl   $0x0,-0x199c(%rbp)
   13679:	00 00 00 
   1367c:	e9 48 22 00 00       	jmpq   158c9 <func_48+0x365e>
   13681:	c6 85 db e5 ff ff 45 	movb   $0x45,-0x1a25(%rbp)
   13688:	48 8d 85 78 e7 ff ff 	lea    -0x1888(%rbp),%rax
   1368f:	48 89 85 20 e8 ff ff 	mov    %rax,-0x17e0(%rbp)
   13696:	c7 85 c0 ec ff ff d7 	movl   $0x23197ed7,-0x1340(%rbp)
   1369d:	7e 19 23 
   136a0:	c7 85 c4 ec ff ff 5d 	movl   $0xf542a65d,-0x133c(%rbp)
   136a7:	a6 42 f5 
   136aa:	c7 85 c8 ec ff ff d7 	movl   $0x23197ed7,-0x1338(%rbp)
   136b1:	7e 19 23 
   136b4:	c7 85 cc ec ff ff d7 	movl   $0x23197ed7,-0x1334(%rbp)
   136bb:	7e 19 23 
   136be:	c7 85 d0 ec ff ff 5d 	movl   $0xf542a65d,-0x1330(%rbp)
   136c5:	a6 42 f5 
   136c8:	c7 85 d4 ec ff ff d7 	movl   $0x23197ed7,-0x132c(%rbp)
   136cf:	7e 19 23 
   136d2:	c7 85 d8 ec ff ff d7 	movl   $0x23197ed7,-0x1328(%rbp)
   136d9:	7e 19 23 
   136dc:	c7 85 dc ec ff ff 5d 	movl   $0xf542a65d,-0x1324(%rbp)
   136e3:	a6 42 f5 
   136e6:	c7 85 e0 ec ff ff d7 	movl   $0x23197ed7,-0x1320(%rbp)
   136ed:	7e 19 23 
   136f0:	66 c7 85 04 e6 ff ff 	movw   $0xffff,-0x19fc(%rbp)
   136f7:	ff ff 
   136f9:	48 8d 05 30 f3 00 00 	lea    0xf330(%rip),%rax        # 22a30 <g_191+0x10>
   13700:	48 89 85 a0 f0 ff ff 	mov    %rax,-0xf60(%rbp)
   13707:	48 8d 05 22 f3 00 00 	lea    0xf322(%rip),%rax        # 22a30 <g_191+0x10>
   1370e:	48 89 85 a8 f0 ff ff 	mov    %rax,-0xf58(%rbp)
   13715:	48 8d 05 14 f3 00 00 	lea    0xf314(%rip),%rax        # 22a30 <g_191+0x10>
   1371c:	48 89 85 b0 f0 ff ff 	mov    %rax,-0xf50(%rbp)
   13723:	48 8d 05 06 f3 00 00 	lea    0xf306(%rip),%rax        # 22a30 <g_191+0x10>
   1372a:	48 89 85 b8 f0 ff ff 	mov    %rax,-0xf48(%rbp)
   13731:	48 8d 05 f8 f2 00 00 	lea    0xf2f8(%rip),%rax        # 22a30 <g_191+0x10>
   13738:	48 89 85 c0 f0 ff ff 	mov    %rax,-0xf40(%rbp)
   1373f:	48 8d 05 ea f2 00 00 	lea    0xf2ea(%rip),%rax        # 22a30 <g_191+0x10>
   13746:	48 89 85 c8 f0 ff ff 	mov    %rax,-0xf38(%rbp)
   1374d:	48 8d 05 dc f2 00 00 	lea    0xf2dc(%rip),%rax        # 22a30 <g_191+0x10>
   13754:	48 89 85 d0 f0 ff ff 	mov    %rax,-0xf30(%rbp)
   1375b:	48 8d 05 ce f2 00 00 	lea    0xf2ce(%rip),%rax        # 22a30 <g_191+0x10>
   13762:	48 89 85 d8 f0 ff ff 	mov    %rax,-0xf28(%rbp)
   13769:	c7 85 18 e6 ff ff 00 	movl   $0x0,-0x19e8(%rbp)
   13770:	00 00 00 
   13773:	e9 c6 01 00 00       	jmpq   1393e <func_48+0x16d3>
   13778:	48 8d 05 29 14 01 00 	lea    0x11429(%rip),%rax        # 24ba8 <g_1143+0xe8>
   1377f:	48 89 85 18 e8 ff ff 	mov    %rax,-0x17e8(%rbp)
   13786:	48 8d 85 18 e8 ff ff 	lea    -0x17e8(%rbp),%rax
   1378d:	48 89 85 60 eb ff ff 	mov    %rax,-0x14a0(%rbp)
   13794:	48 c7 05 59 f5 00 00 	movq   $0x0,0xf559(%rip)        # 22cf8 <g_1352>
   1379b:	00 00 00 00 
   1379f:	eb 26                	jmp    137c7 <func_48+0x155c>
   137a1:	48 8b 85 60 e7 ff ff 	mov    -0x18a0(%rbp),%rax
   137a8:	48 8b 00             	mov    (%rax),%rax
   137ab:	48 8b 95 f0 ea ff ff 	mov    -0x1510(%rbp),%rdx
   137b2:	48 89 10             	mov    %rdx,(%rax)
   137b5:	48 8b 05 3c f5 00 00 	mov    0xf53c(%rip),%rax        # 22cf8 <g_1352>
   137bc:	48 83 c0 01          	add    $0x1,%rax
   137c0:	48 89 05 31 f5 00 00 	mov    %rax,0xf531(%rip)        # 22cf8 <g_1352>
   137c7:	48 8b 05 2a f5 00 00 	mov    0xf52a(%rip),%rax        # 22cf8 <g_1352>
   137ce:	48 83 f8 01          	cmp    $0x1,%rax
   137d2:	76 cd                	jbe    137a1 <func_48+0x1536>
   137d4:	48 8b 05 c5 12 01 00 	mov    0x112c5(%rip),%rax        # 24aa0 <g_726>
   137db:	48 8b 18             	mov    (%rax),%rbx
   137de:	0f b6 05 2b f2 00 00 	movzbl 0xf22b(%rip),%eax        # 22a10 <g_144>
   137e5:	0f b6 d0             	movzbl %al,%edx
   137e8:	8b 85 cc e5 ff ff    	mov    -0x1a34(%rbp),%eax
   137ee:	3d ff ff 00 00       	cmp    $0xffff,%eax
   137f3:	0f 97 c0             	seta   %al
   137f6:	0f b6 c0             	movzbl %al,%eax
   137f9:	89 d6                	mov    %edx,%esi
   137fb:	89 c7                	mov    %eax,%edi
   137fd:	e8 33 4b ff ff       	callq  8335 <safe_rshift_func_int8_t_s_s>
   13802:	48 0f be d0          	movsbq %al,%rdx
   13806:	48 8b 05 93 12 01 00 	mov    0x11293(%rip),%rax        # 24aa0 <g_726>
   1380d:	48 8b 00             	mov    (%rax),%rax
   13810:	48 39 c2             	cmp    %rax,%rdx
   13813:	0f 97 c0             	seta   %al
   13816:	0f b6 c0             	movzbl %al,%eax
   13819:	48 8b 15 98 2d 01 00 	mov    0x12d98(%rip),%rdx        # 265b8 <g_887>
   13820:	48 83 c2 02          	add    $0x2,%rdx
   13824:	8b 8d 18 e6 ff ff    	mov    -0x19e8(%rbp),%ecx
   1382a:	83 c1 01             	add    $0x1,%ecx
   1382d:	33 85 cc e5 ff ff    	xor    -0x1a34(%rbp),%eax
   13833:	89 c6                	mov    %eax,%esi
   13835:	8b 85 64 e6 ff ff    	mov    -0x199c(%rbp),%eax
   1383b:	48 63 f8             	movslq %eax,%rdi
   1383e:	48 63 c9             	movslq %ecx,%rcx
   13841:	48 89 d0             	mov    %rdx,%rax
   13844:	48 01 c0             	add    %rax,%rax
   13847:	48 01 d0             	add    %rdx,%rax
   1384a:	48 8d 14 c5 00 00 00 	lea    0x0(,%rax,8),%rdx
   13851:	00 
   13852:	48 01 d0             	add    %rdx,%rax
   13855:	48 89 ca             	mov    %rcx,%rdx
   13858:	48 01 d2             	add    %rdx,%rdx
   1385b:	48 01 ca             	add    %rcx,%rdx
   1385e:	48 01 d0             	add    %rdx,%rax
   13861:	48 01 f8             	add    %rdi,%rax
   13864:	89 b4 85 f0 f1 ff ff 	mov    %esi,-0xe10(%rbp,%rax,4)
   1386b:	be 0d 00 00 00       	mov    $0xd,%esi
   13870:	bf fd d6 00 00       	mov    $0xd6fd,%edi
   13875:	e8 00 56 ff ff       	callq  8e7a <safe_rshift_func_uint16_t_u_u>
   1387a:	0f b7 c0             	movzwl %ax,%eax
   1387d:	23 85 cc e5 ff ff    	and    -0x1a34(%rbp),%eax
   13883:	89 c2                	mov    %eax,%edx
   13885:	83 bd cc e5 ff ff 00 	cmpl   $0x0,-0x1a34(%rbp)
   1388c:	0f 9f c0             	setg   %al
   1388f:	0f b6 c0             	movzbl %al,%eax
   13892:	39 c2                	cmp    %eax,%edx
   13894:	0f 95 c0             	setne  %al
   13897:	0f b6 c0             	movzbl %al,%eax
   1389a:	48 89 de             	mov    %rbx,%rsi
   1389d:	48 89 c7             	mov    %rax,%rdi
   138a0:	e8 89 57 ff ff       	callq  902e <safe_add_func_uint64_t_u_u>
   138a5:	48 85 c0             	test   %rax,%rax
   138a8:	75 1d                	jne    138c7 <func_48+0x165c>
   138aa:	48 8b 05 07 2d 01 00 	mov    0x12d07(%rip),%rax        # 265b8 <g_887>
   138b1:	48 83 c0 02          	add    $0x2,%rax
   138b5:	48 8d 14 00          	lea    (%rax,%rax,1),%rdx
   138b9:	48 8d 05 30 f1 00 00 	lea    0xf130(%rip),%rax        # 229f0 <g_68>
   138c0:	0f b7 04 02          	movzwl (%rdx,%rax,1),%eax
   138c4:	66 85 c0             	test   %ax,%ax
   138c7:	48 8b 05 d2 11 01 00 	mov    0x111d2(%rip),%rax        # 24aa0 <g_726>
   138ce:	48 8b 10             	mov    (%rax),%rdx
   138d1:	48 8b 85 f0 ea ff ff 	mov    -0x1510(%rbp),%rax
   138d8:	8b 00                	mov    (%rax),%eax
   138da:	48 98                	cltq   
   138dc:	48 39 c2             	cmp    %rax,%rdx
   138df:	0f 97 c0             	seta   %al
   138e2:	0f b6 d0             	movzbl %al,%edx
   138e5:	48 8b 05 cc 2c 01 00 	mov    0x12ccc(%rip),%rax        # 265b8 <g_887>
   138ec:	48 83 c0 02          	add    $0x2,%rax
   138f0:	48 8d 0c 00          	lea    (%rax,%rax,1),%rcx
   138f4:	48 8d 05 f5 f0 00 00 	lea    0xf0f5(%rip),%rax        # 229f0 <g_68>
   138fb:	0f b7 04 01          	movzwl (%rcx,%rax,1),%eax
   138ff:	0f b7 c0             	movzwl %ax,%eax
   13902:	0b 85 cc e5 ff ff    	or     -0x1a34(%rbp),%eax
   13908:	48 8b 1d d9 0f 01 00 	mov    0x10fd9(%rip),%rbx        # 248e8 <g_451>
   1390f:	89 d6                	mov    %edx,%esi
   13911:	89 c7                	mov    %eax,%edi
   13913:	e8 ed 4c ff ff       	callq  8605 <safe_sub_func_int32_t_s_s>
   13918:	89 03                	mov    %eax,(%rbx)
   1391a:	48 8b 85 60 eb ff ff 	mov    -0x14a0(%rbp),%rax
   13921:	48 8d 95 80 ed ff ff 	lea    -0x1280(%rbp),%rdx
   13928:	48 83 c2 20          	add    $0x20,%rdx
   1392c:	48 89 10             	mov    %rdx,(%rax)
   1392f:	8b 85 18 e6 ff ff    	mov    -0x19e8(%rbp),%eax
   13935:	83 c0 01             	add    $0x1,%eax
   13938:	89 85 18 e6 ff ff    	mov    %eax,-0x19e8(%rbp)
   1393e:	8b 85 18 e6 ff ff    	mov    -0x19e8(%rbp),%eax
   13944:	83 f8 07             	cmp    $0x7,%eax
   13947:	0f 8e 2b fe ff ff    	jle    13778 <func_48+0x150d>
   1394d:	48 c7 05 e8 f9 00 00 	movq   $0x7,0xf9e8(%rip)        # 23340 <g_1521>
   13954:	07 00 00 00 
   13958:	e9 e4 0a 00 00       	jmpq   14441 <func_48+0x21d6>
   1395d:	66 c7 85 d0 f5 ff ff 	movw   $0x12,-0xa30(%rbp)
   13964:	12 00 
   13966:	c6 85 d2 f5 ff ff 00 	movb   $0x0,-0xa2e(%rbp)
   1396d:	66 c7 85 d3 f5 ff ff 	movw   $0x1ce,-0xa2d(%rbp)
   13974:	ce 01 
   13976:	c6 85 d5 f5 ff ff bc 	movb   $0xbc,-0xa2b(%rbp)
   1397d:	66 c7 85 d6 f5 ff ff 	movw   $0x3f7,-0xa2a(%rbp)
   13984:	f7 03 
   13986:	c6 85 d8 f5 ff ff 00 	movb   $0x0,-0xa28(%rbp)
   1398d:	66 c7 85 d9 f5 ff ff 	movw   $0x3807,-0xa27(%rbp)
   13994:	07 38 
   13996:	c6 85 db f5 ff ff 03 	movb   $0x3,-0xa25(%rbp)
   1399d:	66 c7 85 dc f5 ff ff 	movw   $0xf7,-0xa24(%rbp)
   139a4:	f7 00 
   139a6:	c6 85 de f5 ff ff 1e 	movb   $0x1e,-0xa22(%rbp)
   139ad:	66 c7 85 df f5 ff ff 	movw   $0x38ce,-0xa21(%rbp)
   139b4:	ce 38 
   139b6:	c6 85 e1 f5 ff ff bc 	movb   $0xbc,-0xa1f(%rbp)
   139bd:	66 c7 85 e2 f5 ff ff 	movw   $0x312,-0xa1e(%rbp)
   139c4:	12 03 
   139c6:	c6 85 e4 f5 ff ff 1e 	movb   $0x1e,-0xa1c(%rbp)
   139cd:	66 c7 85 e5 f5 ff ff 	movw   $0x107,-0xa1b(%rbp)
   139d4:	07 01 
   139d6:	c6 85 e7 f5 ff ff 03 	movb   $0x3,-0xa19(%rbp)
   139dd:	66 c7 85 e8 f5 ff ff 	movw   $0x12,-0xa18(%rbp)
   139e4:	12 00 
   139e6:	c6 85 ea f5 ff ff 00 	movb   $0x0,-0xa16(%rbp)
   139ed:	66 c7 85 eb f5 ff ff 	movw   $0x1ce,-0xa15(%rbp)
   139f4:	ce 01 
   139f6:	c6 85 ed f5 ff ff bc 	movb   $0xbc,-0xa13(%rbp)
   139fd:	66 c7 85 ee f5 ff ff 	movw   $0x3f7,-0xa12(%rbp)
   13a04:	f7 03 
   13a06:	c6 85 f0 f5 ff ff 00 	movb   $0x0,-0xa10(%rbp)
   13a0d:	66 c7 85 f1 f5 ff ff 	movw   $0x3807,-0xa0f(%rbp)
   13a14:	07 38 
   13a16:	c6 85 f3 f5 ff ff 03 	movb   $0x3,-0xa0d(%rbp)
   13a1d:	66 c7 85 f4 f5 ff ff 	movw   $0xf7,-0xa0c(%rbp)
   13a24:	f7 00 
   13a26:	c6 85 f6 f5 ff ff 1e 	movb   $0x1e,-0xa0a(%rbp)
   13a2d:	66 c7 85 f7 f5 ff ff 	movw   $0x38ce,-0xa09(%rbp)
   13a34:	ce 38 
   13a36:	c6 85 f9 f5 ff ff bc 	movb   $0xbc,-0xa07(%rbp)
   13a3d:	66 c7 85 fa f5 ff ff 	movw   $0x312,-0xa06(%rbp)
   13a44:	12 03 
   13a46:	c6 85 fc f5 ff ff 1e 	movb   $0x1e,-0xa04(%rbp)
   13a4d:	66 c7 85 fd f5 ff ff 	movw   $0x107,-0xa03(%rbp)
   13a54:	07 01 
   13a56:	c6 85 ff f5 ff ff 03 	movb   $0x3,-0xa01(%rbp)
   13a5d:	66 c7 85 00 f6 ff ff 	movw   $0x12,-0xa00(%rbp)
   13a64:	12 00 
   13a66:	c6 85 02 f6 ff ff 00 	movb   $0x0,-0x9fe(%rbp)
   13a6d:	66 c7 85 03 f6 ff ff 	movw   $0x1ce,-0x9fd(%rbp)
   13a74:	ce 01 
   13a76:	c6 85 05 f6 ff ff bc 	movb   $0xbc,-0x9fb(%rbp)
   13a7d:	66 c7 85 06 f6 ff ff 	movw   $0x3f7,-0x9fa(%rbp)
   13a84:	f7 03 
   13a86:	c6 85 08 f6 ff ff 00 	movb   $0x0,-0x9f8(%rbp)
   13a8d:	66 c7 85 09 f6 ff ff 	movw   $0x3807,-0x9f7(%rbp)
   13a94:	07 38 
   13a96:	c6 85 0b f6 ff ff 03 	movb   $0x3,-0x9f5(%rbp)
   13a9d:	66 c7 85 0c f6 ff ff 	movw   $0xf7,-0x9f4(%rbp)
   13aa4:	f7 00 
   13aa6:	c6 85 0e f6 ff ff 1e 	movb   $0x1e,-0x9f2(%rbp)
   13aad:	66 c7 85 0f f6 ff ff 	movw   $0x38ce,-0x9f1(%rbp)
   13ab4:	ce 38 
   13ab6:	c6 85 11 f6 ff ff bc 	movb   $0xbc,-0x9ef(%rbp)
   13abd:	66 c7 85 12 f6 ff ff 	movw   $0x312,-0x9ee(%rbp)
   13ac4:	12 03 
   13ac6:	c6 85 14 f6 ff ff 1e 	movb   $0x1e,-0x9ec(%rbp)
   13acd:	66 c7 85 15 f6 ff ff 	movw   $0x107,-0x9eb(%rbp)
   13ad4:	07 01 
   13ad6:	c6 85 17 f6 ff ff 03 	movb   $0x3,-0x9e9(%rbp)
   13add:	66 c7 85 18 f6 ff ff 	movw   $0x12,-0x9e8(%rbp)
   13ae4:	12 00 
   13ae6:	c6 85 1a f6 ff ff 00 	movb   $0x0,-0x9e6(%rbp)
   13aed:	66 c7 85 1b f6 ff ff 	movw   $0x1ce,-0x9e5(%rbp)
   13af4:	ce 01 
   13af6:	c6 85 1d f6 ff ff bc 	movb   $0xbc,-0x9e3(%rbp)
   13afd:	66 c7 85 1e f6 ff ff 	movw   $0x3f7,-0x9e2(%rbp)
   13b04:	f7 03 
   13b06:	c6 85 20 f6 ff ff 00 	movb   $0x0,-0x9e0(%rbp)
   13b0d:	66 c7 85 21 f6 ff ff 	movw   $0x3807,-0x9df(%rbp)
   13b14:	07 38 
   13b16:	c6 85 23 f6 ff ff 03 	movb   $0x3,-0x9dd(%rbp)
   13b1d:	66 c7 85 24 f6 ff ff 	movw   $0xf7,-0x9dc(%rbp)
   13b24:	f7 00 
   13b26:	c6 85 26 f6 ff ff 1e 	movb   $0x1e,-0x9da(%rbp)
   13b2d:	66 c7 85 27 f6 ff ff 	movw   $0x38ce,-0x9d9(%rbp)
   13b34:	ce 38 
   13b36:	c6 85 29 f6 ff ff bc 	movb   $0xbc,-0x9d7(%rbp)
   13b3d:	66 c7 85 2a f6 ff ff 	movw   $0x312,-0x9d6(%rbp)
   13b44:	12 03 
   13b46:	c6 85 2c f6 ff ff 1e 	movb   $0x1e,-0x9d4(%rbp)
   13b4d:	66 c7 85 2d f6 ff ff 	movw   $0x107,-0x9d3(%rbp)
   13b54:	07 01 
   13b56:	c6 85 2f f6 ff ff 03 	movb   $0x3,-0x9d1(%rbp)
   13b5d:	66 c7 85 30 f6 ff ff 	movw   $0x12,-0x9d0(%rbp)
   13b64:	12 00 
   13b66:	c6 85 32 f6 ff ff 00 	movb   $0x0,-0x9ce(%rbp)
   13b6d:	66 c7 85 33 f6 ff ff 	movw   $0x1ce,-0x9cd(%rbp)
   13b74:	ce 01 
   13b76:	c6 85 35 f6 ff ff bc 	movb   $0xbc,-0x9cb(%rbp)
   13b7d:	66 c7 85 36 f6 ff ff 	movw   $0x3f7,-0x9ca(%rbp)
   13b84:	f7 03 
   13b86:	c6 85 38 f6 ff ff 00 	movb   $0x0,-0x9c8(%rbp)
   13b8d:	66 c7 85 39 f6 ff ff 	movw   $0x3807,-0x9c7(%rbp)
   13b94:	07 38 
   13b96:	c6 85 3b f6 ff ff 03 	movb   $0x3,-0x9c5(%rbp)
   13b9d:	66 c7 85 3c f6 ff ff 	movw   $0xf7,-0x9c4(%rbp)
   13ba4:	f7 00 
   13ba6:	c6 85 3e f6 ff ff 1e 	movb   $0x1e,-0x9c2(%rbp)
   13bad:	66 c7 85 3f f6 ff ff 	movw   $0x38ce,-0x9c1(%rbp)
   13bb4:	ce 38 
   13bb6:	c6 85 41 f6 ff ff bc 	movb   $0xbc,-0x9bf(%rbp)
   13bbd:	66 c7 85 42 f6 ff ff 	movw   $0x312,-0x9be(%rbp)
   13bc4:	12 03 
   13bc6:	c6 85 44 f6 ff ff 1e 	movb   $0x1e,-0x9bc(%rbp)
   13bcd:	66 c7 85 45 f6 ff ff 	movw   $0x107,-0x9bb(%rbp)
   13bd4:	07 01 
   13bd6:	c6 85 47 f6 ff ff 03 	movb   $0x3,-0x9b9(%rbp)
   13bdd:	66 c7 85 48 f6 ff ff 	movw   $0x12,-0x9b8(%rbp)
   13be4:	12 00 
   13be6:	c6 85 4a f6 ff ff 00 	movb   $0x0,-0x9b6(%rbp)
   13bed:	66 c7 85 4b f6 ff ff 	movw   $0x1ce,-0x9b5(%rbp)
   13bf4:	ce 01 
   13bf6:	c6 85 4d f6 ff ff bc 	movb   $0xbc,-0x9b3(%rbp)
   13bfd:	66 c7 85 4e f6 ff ff 	movw   $0x3f7,-0x9b2(%rbp)
   13c04:	f7 03 
   13c06:	c6 85 50 f6 ff ff 00 	movb   $0x0,-0x9b0(%rbp)
   13c0d:	66 c7 85 51 f6 ff ff 	movw   $0x3807,-0x9af(%rbp)
   13c14:	07 38 
   13c16:	c6 85 53 f6 ff ff 03 	movb   $0x3,-0x9ad(%rbp)
   13c1d:	66 c7 85 54 f6 ff ff 	movw   $0xf7,-0x9ac(%rbp)
   13c24:	f7 00 
   13c26:	c6 85 56 f6 ff ff 1e 	movb   $0x1e,-0x9aa(%rbp)
   13c2d:	66 c7 85 57 f6 ff ff 	movw   $0x38ce,-0x9a9(%rbp)
   13c34:	ce 38 
   13c36:	c6 85 59 f6 ff ff bc 	movb   $0xbc,-0x9a7(%rbp)
   13c3d:	66 c7 85 5a f6 ff ff 	movw   $0x312,-0x9a6(%rbp)
   13c44:	12 03 
   13c46:	c6 85 5c f6 ff ff 1e 	movb   $0x1e,-0x9a4(%rbp)
   13c4d:	66 c7 85 5d f6 ff ff 	movw   $0x107,-0x9a3(%rbp)
   13c54:	07 01 
   13c56:	c6 85 5f f6 ff ff 03 	movb   $0x3,-0x9a1(%rbp)
   13c5d:	66 c7 85 60 f6 ff ff 	movw   $0x12,-0x9a0(%rbp)
   13c64:	12 00 
   13c66:	c6 85 62 f6 ff ff 00 	movb   $0x0,-0x99e(%rbp)
   13c6d:	66 c7 85 63 f6 ff ff 	movw   $0x1ce,-0x99d(%rbp)
   13c74:	ce 01 
   13c76:	c6 85 65 f6 ff ff bc 	movb   $0xbc,-0x99b(%rbp)
   13c7d:	66 c7 85 66 f6 ff ff 	movw   $0x3f7,-0x99a(%rbp)
   13c84:	f7 03 
   13c86:	c6 85 68 f6 ff ff 00 	movb   $0x0,-0x998(%rbp)
   13c8d:	66 c7 85 69 f6 ff ff 	movw   $0x3807,-0x997(%rbp)
   13c94:	07 38 
   13c96:	c6 85 6b f6 ff ff 03 	movb   $0x3,-0x995(%rbp)
   13c9d:	66 c7 85 6c f6 ff ff 	movw   $0xf7,-0x994(%rbp)
   13ca4:	f7 00 
   13ca6:	c6 85 6e f6 ff ff 1e 	movb   $0x1e,-0x992(%rbp)
   13cad:	66 c7 85 6f f6 ff ff 	movw   $0x38ce,-0x991(%rbp)
   13cb4:	ce 38 
   13cb6:	c6 85 71 f6 ff ff bc 	movb   $0xbc,-0x98f(%rbp)
   13cbd:	66 c7 85 72 f6 ff ff 	movw   $0x312,-0x98e(%rbp)
   13cc4:	12 03 
   13cc6:	c6 85 74 f6 ff ff 1e 	movb   $0x1e,-0x98c(%rbp)
   13ccd:	66 c7 85 75 f6 ff ff 	movw   $0x107,-0x98b(%rbp)
   13cd4:	07 01 
   13cd6:	c6 85 77 f6 ff ff 03 	movb   $0x3,-0x989(%rbp)
   13cdd:	66 c7 85 78 f6 ff ff 	movw   $0x412,-0x988(%rbp)
   13ce4:	12 04 
   13ce6:	c6 85 7a f6 ff ff 04 	movb   $0x4,-0x986(%rbp)
   13ced:	66 c7 85 7b f6 ff ff 	movw   $0xe26b,-0x985(%rbp)
   13cf4:	6b e2 
   13cf6:	c6 85 7d f6 ff ff 00 	movb   $0x0,-0x983(%rbp)
   13cfd:	66 c7 85 7e f6 ff ff 	movw   $0xc5e8,-0x982(%rbp)
   13d04:	e8 c5 
   13d06:	c6 85 80 f6 ff ff 04 	movb   $0x4,-0x980(%rbp)
   13d0d:	66 c7 85 81 f6 ff ff 	movw   $0x403,-0x97f(%rbp)
   13d14:	03 04 
   13d16:	c6 85 83 f6 ff ff de 	movb   $0xde,-0x97d(%rbp)
   13d1d:	66 c7 85 84 f6 ff ff 	movw   $0x4e8,-0x97c(%rbp)
   13d24:	e8 04 
   13d26:	c6 85 86 f6 ff ff 34 	movb   $0x34,-0x97a(%rbp)
   13d2d:	66 c7 85 87 f6 ff ff 	movw   $0x46b,-0x979(%rbp)
   13d34:	6b 04 
   13d36:	c6 85 89 f6 ff ff 00 	movb   $0x0,-0x977(%rbp)
   13d3d:	66 c7 85 8a f6 ff ff 	movw   $0xc503,-0x976(%rbp)
   13d44:	03 c5 
   13d46:	c6 85 8c f6 ff ff 34 	movb   $0x34,-0x974(%rbp)
   13d4d:	66 c7 85 8d f6 ff ff 	movw   $0xe203,-0x973(%rbp)
   13d54:	03 e2 
   13d56:	c6 85 8f f6 ff ff de 	movb   $0xde,-0x971(%rbp)
   13d5d:	66 c7 85 90 f6 ff ff 	movw   $0x403,-0x970(%rbp)
   13d64:	03 04 
   13d66:	c6 85 92 f6 ff ff 04 	movb   $0x4,-0x96e(%rbp)
   13d6d:	66 c7 85 93 f6 ff ff 	movw   $0xe26b,-0x96d(%rbp)
   13d74:	6b e2 
   13d76:	c6 85 95 f6 ff ff 00 	movb   $0x0,-0x96b(%rbp)
   13d7d:	66 c7 85 96 f6 ff ff 	movw   $0xc5e8,-0x96a(%rbp)
   13d84:	e8 c5 
   13d86:	c6 85 98 f6 ff ff 04 	movb   $0x4,-0x968(%rbp)
   13d8d:	66 c7 85 99 f6 ff ff 	movw   $0x403,-0x967(%rbp)
   13d94:	03 04 
   13d96:	c6 85 9b f6 ff ff de 	movb   $0xde,-0x965(%rbp)
   13d9d:	66 c7 85 9c f6 ff ff 	movw   $0x4e8,-0x964(%rbp)
   13da4:	e8 04 
   13da6:	c6 85 9e f6 ff ff 34 	movb   $0x34,-0x962(%rbp)
   13dad:	66 c7 85 9f f6 ff ff 	movw   $0x46b,-0x961(%rbp)
   13db4:	6b 04 
   13db6:	c6 85 a1 f6 ff ff 00 	movb   $0x0,-0x95f(%rbp)
   13dbd:	66 c7 85 a2 f6 ff ff 	movw   $0xc503,-0x95e(%rbp)
   13dc4:	03 c5 
   13dc6:	c6 85 a4 f6 ff ff 34 	movb   $0x34,-0x95c(%rbp)
   13dcd:	66 c7 85 a5 f6 ff ff 	movw   $0xe203,-0x95b(%rbp)
   13dd4:	03 e2 
   13dd6:	c6 85 a7 f6 ff ff de 	movb   $0xde,-0x959(%rbp)
   13ddd:	48 c7 85 18 e8 ff ff 	movq   $0x0,-0x17e8(%rbp)
   13de4:	00 00 00 00 
   13de8:	48 8d 85 18 e8 ff ff 	lea    -0x17e8(%rbp),%rax
   13def:	48 89 85 08 eb ff ff 	mov    %rax,-0x14f8(%rbp)
   13df6:	48 8d 05 97 ec 00 00 	lea    0xec97(%rip),%rax        # 22a94 <g_448+0x4>
   13dfd:	48 89 85 10 eb ff ff 	mov    %rax,-0x14f0(%rbp)
   13e04:	48 8d 05 d6 eb 00 00 	lea    0xebd6(%rip),%rax        # 229e1 <g_15>
   13e0b:	48 89 85 18 eb ff ff 	mov    %rax,-0x14e8(%rbp)
   13e12:	c7 05 28 ec 00 00 00 	movl   $0x0,0xec28(%rip)        # 22a44 <g_196>
   13e19:	00 00 00 
   13e1c:	e9 ea 02 00 00       	jmpq   1410b <func_48+0x1ea0>
   13e21:	48 c7 85 30 eb ff ff 	movq   $0x0,-0x14d0(%rbp)
   13e28:	00 00 00 00 
   13e2c:	48 8d 05 ad eb 00 00 	lea    0xebad(%rip),%rax        # 229e0 <g_13>
   13e33:	48 89 85 a0 f8 ff ff 	mov    %rax,-0x760(%rbp)
   13e3a:	48 8d 05 a0 eb 00 00 	lea    0xeba0(%rip),%rax        # 229e1 <g_15>
   13e41:	48 89 85 a8 f8 ff ff 	mov    %rax,-0x758(%rbp)
   13e48:	48 8d 05 91 eb 00 00 	lea    0xeb91(%rip),%rax        # 229e0 <g_13>
   13e4f:	48 89 85 b0 f8 ff ff 	mov    %rax,-0x750(%rbp)
   13e56:	48 8d 85 d9 e5 ff ff 	lea    -0x1a27(%rbp),%rax
   13e5d:	48 89 85 b8 f8 ff ff 	mov    %rax,-0x748(%rbp)
   13e64:	48 8d 85 d9 e5 ff ff 	lea    -0x1a27(%rbp),%rax
   13e6b:	48 89 85 c0 f8 ff ff 	mov    %rax,-0x740(%rbp)
   13e72:	48 8d 05 67 eb 00 00 	lea    0xeb67(%rip),%rax        # 229e0 <g_13>
   13e79:	48 89 85 c8 f8 ff ff 	mov    %rax,-0x738(%rbp)
   13e80:	48 8d 05 5a eb 00 00 	lea    0xeb5a(%rip),%rax        # 229e1 <g_15>
   13e87:	48 89 85 d0 f8 ff ff 	mov    %rax,-0x730(%rbp)
   13e8e:	48 8d 05 4b eb 00 00 	lea    0xeb4b(%rip),%rax        # 229e0 <g_13>
   13e95:	48 89 85 d8 f8 ff ff 	mov    %rax,-0x728(%rbp)
   13e9c:	48 8d 85 d9 e5 ff ff 	lea    -0x1a27(%rbp),%rax
   13ea3:	48 89 85 e0 f8 ff ff 	mov    %rax,-0x720(%rbp)
   13eaa:	48 8d 05 2f eb 00 00 	lea    0xeb2f(%rip),%rax        # 229e0 <g_13>
   13eb1:	48 89 85 e8 f8 ff ff 	mov    %rax,-0x718(%rbp)
   13eb8:	48 8d 85 d9 e5 ff ff 	lea    -0x1a27(%rbp),%rax
   13ebf:	48 89 85 f0 f8 ff ff 	mov    %rax,-0x710(%rbp)
   13ec6:	48 8d 85 d9 e5 ff ff 	lea    -0x1a27(%rbp),%rax
   13ecd:	48 89 85 f8 f8 ff ff 	mov    %rax,-0x708(%rbp)
   13ed4:	48 8d 05 05 eb 00 00 	lea    0xeb05(%rip),%rax        # 229e0 <g_13>
   13edb:	48 89 85 00 f9 ff ff 	mov    %rax,-0x700(%rbp)
   13ee2:	48 8d 05 f8 ea 00 00 	lea    0xeaf8(%rip),%rax        # 229e1 <g_15>
   13ee9:	48 89 85 08 f9 ff ff 	mov    %rax,-0x6f8(%rbp)
   13ef0:	48 8d 05 e9 ea 00 00 	lea    0xeae9(%rip),%rax        # 229e0 <g_13>
   13ef7:	48 89 85 10 f9 ff ff 	mov    %rax,-0x6f0(%rbp)
   13efe:	48 8d 85 d9 e5 ff ff 	lea    -0x1a27(%rbp),%rax
   13f05:	48 89 85 18 f9 ff ff 	mov    %rax,-0x6e8(%rbp)
   13f0c:	48 8d 85 d9 e5 ff ff 	lea    -0x1a27(%rbp),%rax
   13f13:	48 89 85 20 f9 ff ff 	mov    %rax,-0x6e0(%rbp)
   13f1a:	48 8d 05 bf ea 00 00 	lea    0xeabf(%rip),%rax        # 229e0 <g_13>
   13f21:	48 89 85 28 f9 ff ff 	mov    %rax,-0x6d8(%rbp)
   13f28:	48 c7 85 30 f9 ff ff 	movq   $0x0,-0x6d0(%rbp)
   13f2f:	00 00 00 00 
   13f33:	48 8d 85 d9 e5 ff ff 	lea    -0x1a27(%rbp),%rax
   13f3a:	48 89 85 38 f9 ff ff 	mov    %rax,-0x6c8(%rbp)
   13f41:	48 8d 85 d9 e5 ff ff 	lea    -0x1a27(%rbp),%rax
   13f48:	48 89 85 40 f9 ff ff 	mov    %rax,-0x6c0(%rbp)
   13f4f:	48 8d 85 d9 e5 ff ff 	lea    -0x1a27(%rbp),%rax
   13f56:	48 89 85 48 f9 ff ff 	mov    %rax,-0x6b8(%rbp)
   13f5d:	48 c7 85 50 f9 ff ff 	movq   $0x0,-0x6b0(%rbp)
   13f64:	00 00 00 00 
   13f68:	48 c7 85 58 f9 ff ff 	movq   $0x0,-0x6a8(%rbp)
   13f6f:	00 00 00 00 
   13f73:	48 8d 85 d9 e5 ff ff 	lea    -0x1a27(%rbp),%rax
   13f7a:	48 89 85 60 f9 ff ff 	mov    %rax,-0x6a0(%rbp)
   13f81:	48 8d 85 d9 e5 ff ff 	lea    -0x1a27(%rbp),%rax
   13f88:	48 89 85 68 f9 ff ff 	mov    %rax,-0x698(%rbp)
   13f8f:	48 8d 85 d9 e5 ff ff 	lea    -0x1a27(%rbp),%rax
   13f96:	48 89 85 70 f9 ff ff 	mov    %rax,-0x690(%rbp)
   13f9d:	83 bd cc e5 ff ff 00 	cmpl   $0x0,-0x1a34(%rbp)
   13fa4:	0f 84 ef 00 00 00    	je     14099 <func_48+0x1e2e>
   13faa:	83 bd cc e5 ff ff 00 	cmpl   $0x0,-0x1a34(%rbp)
   13fb1:	74 42                	je     13ff5 <func_48+0x1d8a>
   13fb3:	bf a0 ff ff ff       	mov    $0xffffffa0,%edi
   13fb8:	e8 02 42 ff ff       	callq  81bf <safe_unary_minus_func_int8_t_s>
   13fbd:	48 0f be d0          	movsbq %al,%rdx
   13fc1:	48 8b 05 70 eb 00 00 	mov    0xeb70(%rip),%rax        # 22b38 <g_688+0x18>
   13fc8:	48 09 d0             	or     %rdx,%rax
   13fcb:	30 85 db e5 ff ff    	xor    %al,-0x1a25(%rbp)
   13fd1:	80 bd db e5 ff ff 00 	cmpb   $0x0,-0x1a25(%rbp)
   13fd8:	74 07                	je     13fe1 <func_48+0x1d76>
   13fda:	b8 01 00 00 00       	mov    $0x1,%eax
   13fdf:	eb 05                	jmp    13fe6 <func_48+0x1d7b>
   13fe1:	b8 00 00 00 00       	mov    $0x0,%eax
   13fe6:	88 05 5c ea 00 00    	mov    %al,0xea5c(%rip)        # 22a48 <g_228>
   13fec:	0f b6 05 55 ea 00 00 	movzbl 0xea55(%rip),%eax        # 22a48 <g_228>
   13ff3:	84 c0                	test   %al,%al
   13ff5:	48 8b 85 f0 ea ff ff 	mov    -0x1510(%rbp),%rax
   13ffc:	8b 10                	mov    (%rax),%edx
   13ffe:	48 8b 85 08 e8 ff ff 	mov    -0x17f8(%rbp),%rax
   14005:	48 8b 00             	mov    (%rax),%rax
   14008:	48 8b 00             	mov    (%rax),%rax
   1400b:	66 89 10             	mov    %dx,(%rax)
   1400e:	0f b7 00             	movzwl (%rax),%eax
   14011:	0f b7 d0             	movzwl %ax,%edx
   14014:	0f b6 85 db e5 ff ff 	movzbl -0x1a25(%rbp),%eax
   1401b:	83 f0 23             	xor    $0x23,%eax
   1401e:	89 c1                	mov    %eax,%ecx
   14020:	0f b6 85 07 f6 ff ff 	movzbl -0x9f9(%rbp),%eax
   14027:	38 c1                	cmp    %al,%cl
   14029:	0f 96 c0             	setbe  %al
   1402c:	0f b6 c0             	movzbl %al,%eax
   1402f:	39 c2                	cmp    %eax,%edx
   14031:	0f 9e c0             	setle  %al
   14034:	0f b6 c0             	movzbl %al,%eax
   14037:	23 85 cc e5 ff ff    	and    -0x1a34(%rbp),%eax
   1403d:	48 63 d0             	movslq %eax,%rdx
   14040:	48 8b 05 99 08 01 00 	mov    0x10899(%rip),%rax        # 248e0 <g_151>
   14047:	48 8b 00             	mov    (%rax),%rax
   1404a:	48 85 c0             	test   %rax,%rax
   1404d:	0f 95 c0             	setne  %al
   14050:	0f b6 c8             	movzbl %al,%ecx
   14053:	0f b6 85 07 f6 ff ff 	movzbl -0x9f9(%rbp),%eax
   1405a:	0f b6 c0             	movzbl %al,%eax
   1405d:	39 c1                	cmp    %eax,%ecx
   1405f:	0f 9f c0             	setg   %al
   14062:	0f b6 c0             	movzbl %al,%eax
   14065:	48 89 d6             	mov    %rdx,%rsi
   14068:	48 89 c7             	mov    %rax,%rdi
   1406b:	e8 db 4f ff ff       	callq  904b <safe_sub_func_uint64_t_u_u>
   14070:	48 85 c0             	test   %rax,%rax
   14073:	75 23                	jne    14098 <func_48+0x1e2d>
   14075:	0f b6 05 86 e9 00 00 	movzbl 0xe986(%rip),%eax        # 22a02 <g_88>
   1407c:	0f b6 c0             	movzbl %al,%eax
   1407f:	83 c0 04             	add    $0x4,%eax
   14082:	48 98                	cltq   
   14084:	48 8d 14 85 00 00 00 	lea    0x0(,%rax,4),%rdx
   1408b:	00 
   1408c:	48 8d 05 8d e9 00 00 	lea    0xe98d(%rip),%rax        # 22a20 <g_191>
   14093:	8b 04 02             	mov    (%rdx,%rax,1),%eax
   14096:	85 c0                	test   %eax,%eax
   14098:	90                   	nop
   14099:	83 bd cc e5 ff ff 6d 	cmpl   $0x6d,-0x1a34(%rbp)
   140a0:	0f 95 c0             	setne  %al
   140a3:	0f b6 c0             	movzbl %al,%eax
   140a6:	be 05 00 00 00       	mov    $0x5,%esi
   140ab:	89 c7                	mov    %eax,%edi
   140ad:	e8 e0 43 ff ff       	callq  8492 <safe_lshift_func_int16_t_s_s>
   140b2:	0f b6 d0             	movzbl %al,%edx
   140b5:	0f b6 05 46 e9 00 00 	movzbl 0xe946(%rip),%eax        # 22a02 <g_88>
   140bc:	0f b6 c0             	movzbl %al,%eax
   140bf:	83 c0 04             	add    $0x4,%eax
   140c2:	48 98                	cltq   
   140c4:	48 8d 0c 85 00 00 00 	lea    0x0(,%rax,4),%rcx
   140cb:	00 
   140cc:	48 8d 05 4d e9 00 00 	lea    0xe94d(%rip),%rax        # 22a20 <g_191>
   140d3:	8b 0c 01             	mov    (%rcx,%rax,1),%ecx
   140d6:	48 8b 85 f0 ea ff ff 	mov    -0x1510(%rbp),%rax
   140dd:	8b 00                	mov    (%rax),%eax
   140df:	39 c1                	cmp    %eax,%ecx
   140e1:	0f 95 c0             	setne  %al
   140e4:	0f b6 c0             	movzbl %al,%eax
   140e7:	89 d6                	mov    %edx,%esi
   140e9:	89 c7                	mov    %eax,%edi
   140eb:	e8 88 4a ff ff       	callq  8b78 <safe_sub_func_uint8_t_u_u>
   140f0:	0f b6 d0             	movzbl %al,%edx
   140f3:	48 8b 85 f0 ea ff ff 	mov    -0x1510(%rbp),%rax
   140fa:	89 10                	mov    %edx,(%rax)
   140fc:	8b 05 42 e9 00 00    	mov    0xe942(%rip),%eax        # 22a44 <g_196>
   14102:	83 c0 01             	add    $0x1,%eax
   14105:	89 05 39 e9 00 00    	mov    %eax,0xe939(%rip)        # 22a44 <g_196>
   1410b:	8b 05 33 e9 00 00    	mov    0xe933(%rip),%eax        # 22a44 <g_196>
   14111:	83 f8 07             	cmp    $0x7,%eax
   14114:	0f 86 07 fd ff ff    	jbe    13e21 <func_48+0x1bb6>
   1411a:	8b 85 cc e5 ff ff    	mov    -0x1a34(%rbp),%eax
   14120:	48 63 d8             	movslq %eax,%rbx
   14123:	8b 85 88 ec ff ff    	mov    -0x1378(%rbp),%eax
   14129:	44 0f be e0          	movsbl %al,%r12d
   1412d:	8b 85 cc e5 ff ff    	mov    -0x1a34(%rbp),%eax
   14133:	44 0f bf e8          	movswl %ax,%r13d
   14137:	8b 05 fb e8 00 00    	mov    0xe8fb(%rip),%eax        # 22a38 <g_191+0x18>
   1413d:	89 c1                	mov    %eax,%ecx
   1413f:	48 8b 95 18 e8 ff ff 	mov    -0x17e8(%rbp),%rdx
   14146:	48 8b 85 08 eb ff ff 	mov    -0x14f8(%rbp),%rax
   1414d:	48 89 10             	mov    %rdx,(%rax)
   14150:	48 8b 85 08 eb ff ff 	mov    -0x14f8(%rbp),%rax
   14157:	48 8b 00             	mov    (%rax),%rax
   1415a:	48 8d 15 6f 08 01 00 	lea    0x1086f(%rip),%rdx        # 249d0 <g_682>
   14161:	48 39 d0             	cmp    %rdx,%rax
   14164:	74 07                	je     1416d <func_48+0x1f02>
   14166:	ba 01 00 00 00       	mov    $0x1,%edx
   1416b:	eb 05                	jmp    14172 <func_48+0x1f07>
   1416d:	ba 00 00 00 00       	mov    $0x0,%edx
   14172:	48 8b 85 10 eb ff ff 	mov    -0x14f0(%rbp),%rax
   14179:	0f b7 00             	movzwl (%rax),%eax
   1417c:	31 c2                	xor    %eax,%edx
   1417e:	48 8b 85 10 eb ff ff 	mov    -0x14f0(%rbp),%rax
   14185:	66 89 10             	mov    %dx,(%rax)
   14188:	48 8b 85 10 eb ff ff 	mov    -0x14f0(%rbp),%rax
   1418f:	0f b7 00             	movzwl (%rax),%eax
   14192:	98                   	cwtl   
   14193:	89 ce                	mov    %ecx,%esi
   14195:	89 c7                	mov    %eax,%edi
   14197:	e8 8e 43 ff ff       	callq  852a <safe_rshift_func_int16_t_s_s>
   1419c:	48 0f bf d0          	movswq %ax,%rdx
   141a0:	48 8b 05 f9 08 01 00 	mov    0x108f9(%rip),%rax        # 24aa0 <g_726>
   141a7:	48 8b 00             	mov    (%rax),%rax
   141aa:	48 89 d6             	mov    %rdx,%rsi
   141ad:	48 89 c7             	mov    %rax,%rdi
   141b0:	e8 fa 4e ff ff       	callq  90af <safe_div_func_uint64_t_u_u>
   141b5:	0f b6 95 db e5 ff ff 	movzbl -0x1a25(%rbp),%edx
   141bc:	8b 85 cc e5 ff ff    	mov    -0x1a34(%rbp),%eax
   141c2:	0f b7 c0             	movzwl %ax,%eax
   141c5:	89 d6                	mov    %edx,%esi
   141c7:	89 c7                	mov    %eax,%edi
   141c9:	e8 7a 4c ff ff       	callq  8e48 <safe_rshift_func_uint16_t_u_s>
   141ce:	98                   	cwtl   
   141cf:	83 e0 01             	and    $0x1,%eax
   141d2:	44 89 ee             	mov    %r13d,%esi
   141d5:	89 c7                	mov    %eax,%edi
   141d7:	e8 19 42 ff ff       	callq  83f5 <safe_mul_func_int16_t_s_s>
   141dc:	0f b7 d0             	movzwl %ax,%edx
   141df:	0f b7 05 1a e8 00 00 	movzwl 0xe81a(%rip),%eax        # 22a00 <g_79>
   141e6:	0f b7 c0             	movzwl %ax,%eax
   141e9:	89 d6                	mov    %edx,%esi
   141eb:	89 c7                	mov    %eax,%edi
   141ed:	e8 2d 4b ff ff       	callq  8d1f <safe_sub_func_uint16_t_u_u>
   141f2:	80 bd db e5 ff ff 01 	cmpb   $0x1,-0x1a25(%rbp)
   141f9:	75 09                	jne    14204 <func_48+0x1f99>
   141fb:	83 bd cc e5 ff ff 00 	cmpl   $0x0,-0x1a34(%rbp)
   14202:	74 07                	je     1420b <func_48+0x1fa0>
   14204:	b8 01 00 00 00       	mov    $0x1,%eax
   14209:	eb 05                	jmp    14210 <func_48+0x1fa5>
   1420b:	b8 00 00 00 00       	mov    $0x0,%eax
   14210:	0f b6 d0             	movzbl %al,%edx
   14213:	8b 85 cc e5 ff ff    	mov    -0x1a34(%rbp),%eax
   14219:	0f b6 c0             	movzbl %al,%eax
   1421c:	89 d6                	mov    %edx,%esi
   1421e:	89 c7                	mov    %eax,%edi
   14220:	e8 89 49 ff ff       	callq  8bae <safe_mod_func_uint8_t_u_u>
   14225:	0f b7 05 c8 e7 00 00 	movzwl 0xe7c8(%rip),%eax        # 229f4 <g_68+0x4>
   1422c:	0f b7 c0             	movzwl %ax,%eax
   1422f:	89 85 10 e6 ff ff    	mov    %eax,-0x19f0(%rbp)
   14235:	8b 85 10 e6 ff ff    	mov    -0x19f0(%rbp),%eax
   1423b:	0f be c0             	movsbl %al,%eax
   1423e:	be f6 ff ff ff       	mov    $0xfffffff6,%esi
   14243:	89 c7                	mov    %eax,%edi
   14245:	e8 8a 3f ff ff       	callq  81d4 <safe_add_func_int8_t_s_s>
   1424a:	48 8b 95 18 eb ff ff 	mov    -0x14e8(%rbp),%rdx
   14251:	88 02                	mov    %al,(%rdx)
   14253:	48 8b 85 18 eb ff ff 	mov    -0x14e8(%rbp),%rax
   1425a:	0f b6 00             	movzbl (%rax),%eax
   1425d:	0f be c0             	movsbl %al,%eax
   14260:	44 89 e6             	mov    %r12d,%esi
   14263:	89 c7                	mov    %eax,%edi
   14265:	e8 a8 3f ff ff       	callq  8212 <safe_mul_func_int8_t_s_s>
   1426a:	48 0f be c0          	movsbq %al,%rax
   1426e:	48 89 de             	mov    %rbx,%rsi
   14271:	48 89 c7             	mov    %rax,%rdi
   14274:	e8 2f 46 ff ff       	callq  88a8 <safe_sub_func_int64_t_s_s>
   14279:	48 85 c0             	test   %rax,%rax
   1427c:	74 38                	je     142b6 <func_48+0x204b>
   1427e:	c7 85 44 e7 ff ff 00 	movl   $0x0,-0x18bc(%rbp)
   14285:	00 00 00 
   14288:	48 8b 85 f0 ea ff ff 	mov    -0x1510(%rbp),%rax
   1428f:	8b 00                	mov    (%rax),%eax
   14291:	85 c0                	test   %eax,%eax
   14293:	0f 85 ba 01 00 00    	jne    14453 <func_48+0x21e8>
   14299:	48 8b 05 48 06 01 00 	mov    0x10648(%rip),%rax        # 248e8 <g_451>
   142a0:	8b 95 44 e7 ff ff    	mov    -0x18bc(%rbp),%edx
   142a6:	89 10                	mov    %edx,(%rax)
   142a8:	83 bd 44 e7 ff ff 00 	cmpl   $0x0,-0x18bc(%rbp)
   142af:	74 38                	je     142e9 <func_48+0x207e>
   142b1:	e9 9e 01 00 00       	jmpq   14454 <func_48+0x21e9>
   142b6:	48 8d 05 cf e9 00 00 	lea    0xe9cf(%rip),%rax        # 22c8c <g_1128+0x4c>
   142bd:	48 89 85 20 eb ff ff 	mov    %rax,-0x14e0(%rbp)
   142c4:	48 8d 05 d5 0a 01 00 	lea    0x10ad5(%rip),%rax        # 24da0 <g_1322+0x20>
   142cb:	48 89 05 3e 23 01 00 	mov    %rax,0x1233e(%rip)        # 26610 <g_1618>
   142d2:	48 8b 85 68 e7 ff ff 	mov    -0x1898(%rbp),%rax
   142d9:	48 8b 00             	mov    (%rax),%rax
   142dc:	48 8b 00             	mov    (%rax),%rax
   142df:	48 8b 95 20 eb ff ff 	mov    -0x14e0(%rbp),%rdx
   142e6:	48 89 10             	mov    %rdx,(%rax)
   142e9:	c7 05 f1 e6 00 00 01 	movl   $0x1,0xe6f1(%rip)        # 229e4 <g_27>
   142f0:	00 00 00 
   142f3:	e9 29 01 00 00       	jmpq   14421 <func_48+0x21b6>
   142f8:	c7 85 48 e7 ff ff 01 	movl   $0x1,-0x18b8(%rbp)
   142ff:	00 00 00 
   14302:	48 8d 85 78 e7 ff ff 	lea    -0x1888(%rbp),%rax
   14309:	48 89 85 28 eb ff ff 	mov    %rax,-0x14d8(%rbp)
   14310:	8b 85 cc e5 ff ff    	mov    -0x1a34(%rbp),%eax
   14316:	0f b7 d8             	movzwl %ax,%ebx
   14319:	8b 85 cc e5 ff ff    	mov    -0x1a34(%rbp),%eax
   1431f:	89 c6                	mov    %eax,%esi
   14321:	bf 02 00 00 00       	mov    $0x2,%edi
   14326:	e8 8b 42 ff ff       	callq  85b6 <safe_add_func_int32_t_s_s>
   1432b:	0f b7 c0             	movzwl %ax,%eax
   1432e:	89 de                	mov    %ebx,%esi
   14330:	89 c7                	mov    %eax,%edi
   14332:	e8 e8 49 ff ff       	callq  8d1f <safe_sub_func_uint16_t_u_u>
   14337:	66 85 c0             	test   %ax,%ax
   1433a:	0f 85 bd 00 00 00    	jne    143fd <func_48+0x2192>
   14340:	83 bd cc e5 ff ff 00 	cmpl   $0x0,-0x1a34(%rbp)
   14347:	0f 85 b0 00 00 00    	jne    143fd <func_48+0x2192>
   1434d:	48 8b 85 08 e8 ff ff 	mov    -0x17f8(%rbp),%rax
   14354:	48 8b 95 a0 e7 ff ff 	mov    -0x1860(%rbp),%rdx
   1435b:	48 89 10             	mov    %rdx,(%rax)
   1435e:	48 8b 00             	mov    (%rax),%rax
   14361:	48 85 c0             	test   %rax,%rax
   14364:	0f 85 93 00 00 00    	jne    143fd <func_48+0x2192>
   1436a:	83 bd cc e5 ff ff 00 	cmpl   $0x0,-0x1a34(%rbp)
   14371:	75 6f                	jne    143e2 <func_48+0x2177>
   14373:	8b 85 cc e5 ff ff    	mov    -0x1a34(%rbp),%eax
   14379:	0f b6 d0             	movzbl %al,%edx
   1437c:	8b 85 cc e5 ff ff    	mov    -0x1a34(%rbp),%eax
   14382:	89 85 48 e7 ff ff    	mov    %eax,-0x18b8(%rbp)
   14388:	8b 85 48 e7 ff ff    	mov    -0x18b8(%rbp),%eax
   1438e:	88 45 b2             	mov    %al,-0x4e(%rbp)
   14391:	0f b6 45 b2          	movzbl -0x4e(%rbp),%eax
   14395:	0f b6 c0             	movzbl %al,%eax
   14398:	89 d6                	mov    %edx,%esi
   1439a:	89 c7                	mov    %eax,%edi
   1439c:	e8 0d 48 ff ff       	callq  8bae <safe_mod_func_uint8_t_u_u>
   143a1:	48 8b 85 28 eb ff ff 	mov    -0x14d8(%rbp),%rax
   143a8:	48 89 85 20 e8 ff ff 	mov    %rax,-0x17e0(%rbp)
   143af:	48 8b 85 20 e8 ff ff 	mov    -0x17e0(%rbp),%rax
   143b6:	48 3b 85 f8 ea ff ff 	cmp    -0x1508(%rbp),%rax
   143bd:	0f 95 c0             	setne  %al
   143c0:	0f b6 c0             	movzbl %al,%eax
   143c3:	be 04 00 00 00       	mov    $0x4,%esi
   143c8:	89 c7                	mov    %eax,%edi
   143ca:	e8 1f 3f ff ff       	callq  82ee <safe_lshift_func_int8_t_s_u>
   143cf:	48 0f be c0          	movsbq %al,%rax
   143d3:	83 e0 f8             	and    $0xfffffff8,%eax
   143d6:	48 85 c0             	test   %rax,%rax
   143d9:	75 07                	jne    143e2 <func_48+0x2177>
   143db:	83 bd 48 e7 ff ff 00 	cmpl   $0x0,-0x18b8(%rbp)
   143e2:	90                   	nop
   143e3:	8b 85 cc e5 ff ff    	mov    -0x1a34(%rbp),%eax
   143e9:	48 98                	cltq   
   143eb:	48 ba b2 2a 7f f6 eb 	movabs $0xa3cdbcebf67f2ab2,%rdx
   143f2:	bc cd a3 
   143f5:	48 21 d0             	and    %rdx,%rax
   143f8:	48 85 c0             	test   %rax,%rax
   143fb:	74 07                	je     14404 <func_48+0x2199>
   143fd:	ba 01 00 00 00       	mov    $0x1,%edx
   14402:	eb 05                	jmp    14409 <func_48+0x219e>
   14404:	ba 00 00 00 00       	mov    $0x0,%edx
   14409:	48 8b 05 d8 04 01 00 	mov    0x104d8(%rip),%rax        # 248e8 <g_451>
   14410:	89 10                	mov    %edx,(%rax)
   14412:	8b 05 cc e5 00 00    	mov    0xe5cc(%rip),%eax        # 229e4 <g_27>
   14418:	83 e8 01             	sub    $0x1,%eax
   1441b:	89 05 c3 e5 00 00    	mov    %eax,0xe5c3(%rip)        # 229e4 <g_27>
   14421:	8b 05 bd e5 00 00    	mov    0xe5bd(%rip),%eax        # 229e4 <g_27>
   14427:	85 c0                	test   %eax,%eax
   14429:	0f 89 c9 fe ff ff    	jns    142f8 <func_48+0x208d>
   1442f:	48 8b 05 0a ef 00 00 	mov    0xef0a(%rip),%rax        # 23340 <g_1521>
   14436:	48 83 e8 01          	sub    $0x1,%rax
   1443a:	48 89 05 ff ee 00 00 	mov    %rax,0xeeff(%rip)        # 23340 <g_1521>
   14441:	48 8b 05 f8 ee 00 00 	mov    0xeef8(%rip),%rax        # 23340 <g_1521>
   14448:	48 85 c0             	test   %rax,%rax
   1444b:	0f 89 0c f5 ff ff    	jns    1395d <func_48+0x16f2>
   14451:	eb 01                	jmp    14454 <func_48+0x21e9>
   14453:	90                   	nop
   14454:	0f b6 95 db e5 ff ff 	movzbl -0x1a25(%rbp),%edx
   1445b:	48 8b 85 f0 ea ff ff 	mov    -0x1510(%rbp),%rax
   14462:	89 10                	mov    %edx,(%rax)
   14464:	48 8b 85 f8 ea ff ff 	mov    -0x1508(%rbp),%rax
   1446b:	48 8b 00             	mov    (%rax),%rax
   1446e:	48 8b 00             	mov    (%rax),%rax
   14471:	48 8b 00             	mov    (%rax),%rax
   14474:	48 85 c0             	test   %rax,%rax
   14477:	0f 95 c3             	setne  %bl
   1447a:	48 8d 85 10 e8 ff ff 	lea    -0x17f0(%rbp),%rax
   14481:	48 89 85 50 e9 ff ff 	mov    %rax,-0x16b0(%rbp)
   14488:	48 8b 85 50 e9 ff ff 	mov    -0x16b0(%rbp),%rax
   1448f:	48 3b 85 00 eb ff ff 	cmp    -0x1500(%rbp),%rax
   14496:	0f 95 c0             	setne  %al
   14499:	0f b6 c0             	movzbl %al,%eax
   1449c:	be c1 c0 86 68       	mov    $0x6886c0c1,%esi
   144a1:	89 c7                	mov    %eax,%edi
   144a3:	e8 24 42 ff ff       	callq  86cc <safe_mod_func_int32_t_s_s>
   144a8:	41 89 c4             	mov    %eax,%r12d
   144ab:	be 56 33 00 00       	mov    $0x3356,%esi
   144b0:	bf 01 00 00 00       	mov    $0x1,%edi
   144b5:	e8 d4 48 ff ff       	callq  8d8e <safe_div_func_uint16_t_u_u>
   144ba:	0f b7 c0             	movzwl %ax,%eax
   144bd:	39 85 cc e5 ff ff    	cmp    %eax,-0x1a34(%rbp)
   144c3:	0f 9c c0             	setl   %al
   144c6:	0f b6 d0             	movzbl %al,%edx
   144c9:	0f b6 85 db e5 ff ff 	movzbl -0x1a25(%rbp),%eax
   144d0:	31 d0                	xor    %edx,%eax
   144d2:	23 85 cc e5 ff ff    	and    -0x1a34(%rbp),%eax
   144d8:	3d 48 23 00 00       	cmp    $0x2348,%eax
   144dd:	0f 9e c0             	setle  %al
   144e0:	0f b6 d0             	movzbl %al,%edx
   144e3:	48 8b 85 78 e7 ff ff 	mov    -0x1888(%rbp),%rax
   144ea:	48 8d 0d b7 05 01 00 	lea    0x105b7(%rip),%rcx        # 24aa8 <g_725>
   144f1:	48 89 08             	mov    %rcx,(%rax)
   144f4:	48 8b 00             	mov    (%rax),%rax
   144f7:	48 8d 0d aa 05 01 00 	lea    0x105aa(%rip),%rcx        # 24aa8 <g_725>
   144fe:	48 39 c8             	cmp    %rcx,%rax
   14501:	0f 95 c0             	setne  %al
   14504:	0f b6 c0             	movzbl %al,%eax
   14507:	89 d6                	mov    %edx,%esi
   14509:	89 c7                	mov    %eax,%edi
   1450b:	e8 a8 49 ff ff       	callq  8eb8 <safe_add_func_uint32_t_u_u>
   14510:	41 39 c4             	cmp    %eax,%r12d
   14513:	0f 97 c0             	seta   %al
   14516:	31 d8                	xor    %ebx,%eax
   14518:	84 c0                	test   %al,%al
   1451a:	0f 84 89 0c 00 00    	je     151a9 <func_48+0x2f3e>
   14520:	48 8d 85 20 e6 ff ff 	lea    -0x19e0(%rbp),%rax
   14527:	48 89 85 a0 f8 ff ff 	mov    %rax,-0x760(%rbp)
   1452e:	48 8d 85 20 e6 ff ff 	lea    -0x19e0(%rbp),%rax
   14535:	48 89 85 a8 f8 ff ff 	mov    %rax,-0x758(%rbp)
   1453c:	48 8d 85 10 e6 ff ff 	lea    -0x19f0(%rbp),%rax
   14543:	48 89 85 b0 f8 ff ff 	mov    %rax,-0x750(%rbp)
   1454a:	48 8d 05 b7 e4 00 00 	lea    0xe4b7(%rip),%rax        # 22a08 <g_126>
   14551:	48 89 85 b8 f8 ff ff 	mov    %rax,-0x748(%rbp)
   14558:	48 8d 85 08 e6 ff ff 	lea    -0x19f8(%rbp),%rax
   1455f:	48 89 85 c0 f8 ff ff 	mov    %rax,-0x740(%rbp)
   14566:	48 8d 85 34 e6 ff ff 	lea    -0x19cc(%rbp),%rax
   1456d:	48 89 85 c8 f8 ff ff 	mov    %rax,-0x738(%rbp)
   14574:	48 8d 85 08 e6 ff ff 	lea    -0x19f8(%rbp),%rax
   1457b:	48 89 85 d0 f8 ff ff 	mov    %rax,-0x730(%rbp)
   14582:	48 8d 85 f0 f1 ff ff 	lea    -0xe10(%rbp),%rax
   14589:	48 05 1c 01 00 00    	add    $0x11c,%rax
   1458f:	48 89 85 d8 f8 ff ff 	mov    %rax,-0x728(%rbp)
   14596:	48 8d 85 14 e6 ff ff 	lea    -0x19ec(%rbp),%rax
   1459d:	48 89 85 e0 f8 ff ff 	mov    %rax,-0x720(%rbp)
   145a4:	48 8d 85 10 e6 ff ff 	lea    -0x19f0(%rbp),%rax
   145ab:	48 89 85 e8 f8 ff ff 	mov    %rax,-0x718(%rbp)
   145b2:	48 8d 85 0c e6 ff ff 	lea    -0x19f4(%rbp),%rax
   145b9:	48 89 85 f0 f8 ff ff 	mov    %rax,-0x710(%rbp)
   145c0:	48 8d 85 08 e6 ff ff 	lea    -0x19f8(%rbp),%rax
   145c7:	48 89 85 f8 f8 ff ff 	mov    %rax,-0x708(%rbp)
   145ce:	48 8d 85 10 e6 ff ff 	lea    -0x19f0(%rbp),%rax
   145d5:	48 89 85 00 f9 ff ff 	mov    %rax,-0x700(%rbp)
   145dc:	48 8d 85 20 e6 ff ff 	lea    -0x19e0(%rbp),%rax
   145e3:	48 89 85 08 f9 ff ff 	mov    %rax,-0x6f8(%rbp)
   145ea:	48 8d 85 08 e6 ff ff 	lea    -0x19f8(%rbp),%rax
   145f1:	48 89 85 10 f9 ff ff 	mov    %rax,-0x6f0(%rbp)
   145f8:	48 8d 05 09 e4 00 00 	lea    0xe409(%rip),%rax        # 22a08 <g_126>
   145ff:	48 89 85 18 f9 ff ff 	mov    %rax,-0x6e8(%rbp)
   14606:	48 8d 85 14 e6 ff ff 	lea    -0x19ec(%rbp),%rax
   1460d:	48 89 85 20 f9 ff ff 	mov    %rax,-0x6e0(%rbp)
   14614:	48 c7 85 28 f9 ff ff 	movq   $0x0,-0x6d8(%rbp)
   1461b:	00 00 00 00 
   1461f:	48 8d 85 18 e6 ff ff 	lea    -0x19e8(%rbp),%rax
   14626:	48 89 85 30 f9 ff ff 	mov    %rax,-0x6d0(%rbp)
   1462d:	48 8d 85 f0 f1 ff ff 	lea    -0xe10(%rbp),%rax
   14634:	48 05 20 01 00 00    	add    $0x120,%rax
   1463a:	48 89 85 38 f9 ff ff 	mov    %rax,-0x6c8(%rbp)
   14641:	48 8d 85 08 e6 ff ff 	lea    -0x19f8(%rbp),%rax
   14648:	48 89 85 40 f9 ff ff 	mov    %rax,-0x6c0(%rbp)
   1464f:	48 8d 05 b2 e3 00 00 	lea    0xe3b2(%rip),%rax        # 22a08 <g_126>
   14656:	48 89 85 48 f9 ff ff 	mov    %rax,-0x6b8(%rbp)
   1465d:	48 8d 85 1c e6 ff ff 	lea    -0x19e4(%rbp),%rax
   14664:	48 89 85 50 f9 ff ff 	mov    %rax,-0x6b0(%rbp)
   1466b:	48 8d 85 10 e6 ff ff 	lea    -0x19f0(%rbp),%rax
   14672:	48 89 85 58 f9 ff ff 	mov    %rax,-0x6a8(%rbp)
   14679:	48 c7 85 60 f9 ff ff 	movq   $0x0,-0x6a0(%rbp)
   14680:	00 00 00 00 
   14684:	48 8d 85 1c e6 ff ff 	lea    -0x19e4(%rbp),%rax
   1468b:	48 89 85 68 f9 ff ff 	mov    %rax,-0x698(%rbp)
   14692:	48 c7 85 70 f9 ff ff 	movq   $0x0,-0x690(%rbp)
   14699:	00 00 00 00 
   1469d:	48 8d 85 f0 f1 ff ff 	lea    -0xe10(%rbp),%rax
   146a4:	48 05 20 01 00 00    	add    $0x120,%rax
   146aa:	48 89 85 78 f9 ff ff 	mov    %rax,-0x688(%rbp)
   146b1:	48 8d 85 1c e6 ff ff 	lea    -0x19e4(%rbp),%rax
   146b8:	48 89 85 80 f9 ff ff 	mov    %rax,-0x680(%rbp)
   146bf:	48 c7 85 88 f9 ff ff 	movq   $0x0,-0x678(%rbp)
   146c6:	00 00 00 00 
   146ca:	48 8d 85 0c e6 ff ff 	lea    -0x19f4(%rbp),%rax
   146d1:	48 89 85 90 f9 ff ff 	mov    %rax,-0x670(%rbp)
   146d8:	48 c7 85 98 f9 ff ff 	movq   $0x0,-0x668(%rbp)
   146df:	00 00 00 00 
   146e3:	48 8d 85 f0 f1 ff ff 	lea    -0xe10(%rbp),%rax
   146ea:	48 83 c0 1c          	add    $0x1c,%rax
   146ee:	48 89 85 a0 f9 ff ff 	mov    %rax,-0x660(%rbp)
   146f5:	48 8d 85 1c e6 ff ff 	lea    -0x19e4(%rbp),%rax
   146fc:	48 89 85 a8 f9 ff ff 	mov    %rax,-0x658(%rbp)
   14703:	48 8d 05 da e2 00 00 	lea    0xe2da(%rip),%rax        # 229e4 <g_27>
   1470a:	48 89 85 b0 f9 ff ff 	mov    %rax,-0x650(%rbp)
   14711:	48 8d 85 18 e6 ff ff 	lea    -0x19e8(%rbp),%rax
   14718:	48 89 85 b8 f9 ff ff 	mov    %rax,-0x648(%rbp)
   1471f:	48 8d 05 e2 e2 00 00 	lea    0xe2e2(%rip),%rax        # 22a08 <g_126>
   14726:	48 89 85 c0 f9 ff ff 	mov    %rax,-0x640(%rbp)
   1472d:	48 8d 85 0c e6 ff ff 	lea    -0x19f4(%rbp),%rax
   14734:	48 89 85 c8 f9 ff ff 	mov    %rax,-0x638(%rbp)
   1473b:	48 8d 85 10 e6 ff ff 	lea    -0x19f0(%rbp),%rax
   14742:	48 89 85 d0 f9 ff ff 	mov    %rax,-0x630(%rbp)
   14749:	48 8d 85 10 e6 ff ff 	lea    -0x19f0(%rbp),%rax
   14750:	48 89 85 d8 f9 ff ff 	mov    %rax,-0x628(%rbp)
   14757:	48 c7 85 e0 f9 ff ff 	movq   $0x0,-0x620(%rbp)
   1475e:	00 00 00 00 
   14762:	48 c7 85 e8 f9 ff ff 	movq   $0x0,-0x618(%rbp)
   14769:	00 00 00 00 
   1476d:	48 c7 85 f0 f9 ff ff 	movq   $0x0,-0x610(%rbp)
   14774:	00 00 00 00 
   14778:	48 8d 85 18 e6 ff ff 	lea    -0x19e8(%rbp),%rax
   1477f:	48 89 85 f8 f9 ff ff 	mov    %rax,-0x608(%rbp)
   14786:	48 8d 85 18 e6 ff ff 	lea    -0x19e8(%rbp),%rax
   1478d:	48 89 85 00 fa ff ff 	mov    %rax,-0x600(%rbp)
   14794:	48 c7 85 08 fa ff ff 	movq   $0x0,-0x5f8(%rbp)
   1479b:	00 00 00 00 
   1479f:	48 8d 85 f0 f1 ff ff 	lea    -0xe10(%rbp),%rax
   147a6:	48 83 c0 1c          	add    $0x1c,%rax
   147aa:	48 89 85 10 fa ff ff 	mov    %rax,-0x5f0(%rbp)
   147b1:	48 c7 85 18 fa ff ff 	movq   $0x0,-0x5e8(%rbp)
   147b8:	00 00 00 00 
   147bc:	48 8d 85 20 e6 ff ff 	lea    -0x19e0(%rbp),%rax
   147c3:	48 89 85 20 fa ff ff 	mov    %rax,-0x5e0(%rbp)
   147ca:	48 8d 05 37 e2 00 00 	lea    0xe237(%rip),%rax        # 22a08 <g_126>
   147d1:	48 89 85 28 fa ff ff 	mov    %rax,-0x5d8(%rbp)
   147d8:	48 8d 85 34 e6 ff ff 	lea    -0x19cc(%rbp),%rax
   147df:	48 89 85 30 fa ff ff 	mov    %rax,-0x5d0(%rbp)
   147e6:	48 c7 85 38 fa ff ff 	movq   $0x0,-0x5c8(%rbp)
   147ed:	00 00 00 00 
   147f1:	48 8d 85 0c e6 ff ff 	lea    -0x19f4(%rbp),%rax
   147f8:	48 89 85 40 fa ff ff 	mov    %rax,-0x5c0(%rbp)
   147ff:	48 8d 85 14 e6 ff ff 	lea    -0x19ec(%rbp),%rax
   14806:	48 89 85 48 fa ff ff 	mov    %rax,-0x5b8(%rbp)
   1480d:	48 8d 85 f0 f1 ff ff 	lea    -0xe10(%rbp),%rax
   14814:	48 83 c0 1c          	add    $0x1c,%rax
   14818:	48 89 85 50 fa ff ff 	mov    %rax,-0x5b0(%rbp)
   1481f:	48 c7 85 58 fa ff ff 	movq   $0x0,-0x5a8(%rbp)
   14826:	00 00 00 00 
   1482a:	48 8d 85 f0 f1 ff ff 	lea    -0xe10(%rbp),%rax
   14831:	48 83 c0 34          	add    $0x34,%rax
   14835:	48 89 85 60 fa ff ff 	mov    %rax,-0x5a0(%rbp)
   1483c:	48 c7 85 68 fa ff ff 	movq   $0x0,-0x598(%rbp)
   14843:	00 00 00 00 
   14847:	48 8d 05 ba e1 00 00 	lea    0xe1ba(%rip),%rax        # 22a08 <g_126>
   1484e:	48 89 85 70 fa ff ff 	mov    %rax,-0x590(%rbp)
   14855:	48 8d 85 34 e6 ff ff 	lea    -0x19cc(%rbp),%rax
   1485c:	48 89 85 78 fa ff ff 	mov    %rax,-0x588(%rbp)
   14863:	48 8d 85 18 e6 ff ff 	lea    -0x19e8(%rbp),%rax
   1486a:	48 89 85 80 fa ff ff 	mov    %rax,-0x580(%rbp)
   14871:	48 8d 85 34 e6 ff ff 	lea    -0x19cc(%rbp),%rax
   14878:	48 89 85 88 fa ff ff 	mov    %rax,-0x578(%rbp)
   1487f:	48 c7 85 90 fa ff ff 	movq   $0x0,-0x570(%rbp)
   14886:	00 00 00 00 
   1488a:	48 8d 85 18 e6 ff ff 	lea    -0x19e8(%rbp),%rax
   14891:	48 89 85 98 fa ff ff 	mov    %rax,-0x568(%rbp)
   14898:	48 8d 85 08 e6 ff ff 	lea    -0x19f8(%rbp),%rax
   1489f:	48 89 85 a0 fa ff ff 	mov    %rax,-0x560(%rbp)
   148a6:	48 8d 85 18 e6 ff ff 	lea    -0x19e8(%rbp),%rax
   148ad:	48 89 85 a8 fa ff ff 	mov    %rax,-0x558(%rbp)
   148b4:	48 8d 85 f0 f1 ff ff 	lea    -0xe10(%rbp),%rax
   148bb:	48 83 c0 04          	add    $0x4,%rax
   148bf:	48 89 85 b0 fa ff ff 	mov    %rax,-0x550(%rbp)
   148c6:	48 8d 85 0c e6 ff ff 	lea    -0x19f4(%rbp),%rax
   148cd:	48 89 85 b8 fa ff ff 	mov    %rax,-0x548(%rbp)
   148d4:	48 8d 85 f0 f1 ff ff 	lea    -0xe10(%rbp),%rax
   148db:	48 05 20 01 00 00    	add    $0x120,%rax
   148e1:	48 89 85 c0 fa ff ff 	mov    %rax,-0x540(%rbp)
   148e8:	48 8d 85 1c e6 ff ff 	lea    -0x19e4(%rbp),%rax
   148ef:	48 89 85 c8 fa ff ff 	mov    %rax,-0x538(%rbp)
   148f6:	48 c7 85 d0 fa ff ff 	movq   $0x0,-0x530(%rbp)
   148fd:	00 00 00 00 
   14901:	48 8d 85 20 e6 ff ff 	lea    -0x19e0(%rbp),%rax
   14908:	48 89 85 d8 fa ff ff 	mov    %rax,-0x528(%rbp)
   1490f:	48 8d 85 f0 f1 ff ff 	lea    -0xe10(%rbp),%rax
   14916:	48 83 c0 1c          	add    $0x1c,%rax
   1491a:	48 89 85 e0 fa ff ff 	mov    %rax,-0x520(%rbp)
   14921:	48 8d 85 f0 f1 ff ff 	lea    -0xe10(%rbp),%rax
   14928:	48 83 c0 34          	add    $0x34,%rax
   1492c:	48 89 85 e8 fa ff ff 	mov    %rax,-0x518(%rbp)
   14933:	48 8d 85 18 e6 ff ff 	lea    -0x19e8(%rbp),%rax
   1493a:	48 89 85 f0 fa ff ff 	mov    %rax,-0x510(%rbp)
   14941:	48 c7 85 f8 fa ff ff 	movq   $0x0,-0x508(%rbp)
   14948:	00 00 00 00 
   1494c:	48 8d 85 20 e6 ff ff 	lea    -0x19e0(%rbp),%rax
   14953:	48 89 85 00 fb ff ff 	mov    %rax,-0x500(%rbp)
   1495a:	48 8d 85 f0 f1 ff ff 	lea    -0xe10(%rbp),%rax
   14961:	48 05 20 01 00 00    	add    $0x120,%rax
   14967:	48 89 85 08 fb ff ff 	mov    %rax,-0x4f8(%rbp)
   1496e:	48 8d 85 f0 f1 ff ff 	lea    -0xe10(%rbp),%rax
   14975:	48 83 c0 1c          	add    $0x1c,%rax
   14979:	48 89 85 10 fb ff ff 	mov    %rax,-0x4f0(%rbp)
   14980:	48 8d 85 44 e6 ff ff 	lea    -0x19bc(%rbp),%rax
   14987:	48 89 85 18 fb ff ff 	mov    %rax,-0x4e8(%rbp)
   1498e:	48 8d 85 10 e6 ff ff 	lea    -0x19f0(%rbp),%rax
   14995:	48 89 85 20 fb ff ff 	mov    %rax,-0x4e0(%rbp)
   1499c:	48 8d 85 f0 f1 ff ff 	lea    -0xe10(%rbp),%rax
   149a3:	48 83 c0 04          	add    $0x4,%rax
   149a7:	48 89 85 28 fb ff ff 	mov    %rax,-0x4d8(%rbp)
   149ae:	48 8d 85 1c e6 ff ff 	lea    -0x19e4(%rbp),%rax
   149b5:	48 89 85 30 fb ff ff 	mov    %rax,-0x4d0(%rbp)
   149bc:	48 8d 85 1c e6 ff ff 	lea    -0x19e4(%rbp),%rax
   149c3:	48 89 85 38 fb ff ff 	mov    %rax,-0x4c8(%rbp)
   149ca:	48 8d 85 f0 f1 ff ff 	lea    -0xe10(%rbp),%rax
   149d1:	48 83 c0 04          	add    $0x4,%rax
   149d5:	48 89 85 40 fb ff ff 	mov    %rax,-0x4c0(%rbp)
   149dc:	48 8d 85 f0 f1 ff ff 	lea    -0xe10(%rbp),%rax
   149e3:	48 83 c0 1c          	add    $0x1c,%rax
   149e7:	48 89 85 48 fb ff ff 	mov    %rax,-0x4b8(%rbp)
   149ee:	48 8d 85 34 e6 ff ff 	lea    -0x19cc(%rbp),%rax
   149f5:	48 89 85 50 fb ff ff 	mov    %rax,-0x4b0(%rbp)
   149fc:	48 c7 85 58 fb ff ff 	movq   $0x0,-0x4a8(%rbp)
   14a03:	00 00 00 00 
   14a07:	48 c7 85 60 fb ff ff 	movq   $0x0,-0x4a0(%rbp)
   14a0e:	00 00 00 00 
   14a12:	48 8d 85 14 e6 ff ff 	lea    -0x19ec(%rbp),%rax
   14a19:	48 89 85 68 fb ff ff 	mov    %rax,-0x498(%rbp)
   14a20:	48 8d 85 08 e6 ff ff 	lea    -0x19f8(%rbp),%rax
   14a27:	48 89 85 70 fb ff ff 	mov    %rax,-0x490(%rbp)
   14a2e:	48 8d 85 f0 f1 ff ff 	lea    -0xe10(%rbp),%rax
   14a35:	48 83 c0 34          	add    $0x34,%rax
   14a39:	48 89 85 78 fb ff ff 	mov    %rax,-0x488(%rbp)
   14a40:	48 8d 85 10 e6 ff ff 	lea    -0x19f0(%rbp),%rax
   14a47:	48 89 85 80 fb ff ff 	mov    %rax,-0x480(%rbp)
   14a4e:	48 8d 85 08 e6 ff ff 	lea    -0x19f8(%rbp),%rax
   14a55:	48 89 85 88 fb ff ff 	mov    %rax,-0x478(%rbp)
   14a5c:	48 8d 85 0c e6 ff ff 	lea    -0x19f4(%rbp),%rax
   14a63:	48 89 85 90 fb ff ff 	mov    %rax,-0x470(%rbp)
   14a6a:	48 8d 85 1c e6 ff ff 	lea    -0x19e4(%rbp),%rax
   14a71:	48 89 85 98 fb ff ff 	mov    %rax,-0x468(%rbp)
   14a78:	48 c7 85 a0 fb ff ff 	movq   $0x0,-0x460(%rbp)
   14a7f:	00 00 00 00 
   14a83:	48 8d 85 f0 f1 ff ff 	lea    -0xe10(%rbp),%rax
   14a8a:	48 05 1c 01 00 00    	add    $0x11c,%rax
   14a90:	48 89 85 a8 fb ff ff 	mov    %rax,-0x458(%rbp)
   14a97:	48 8d 85 08 e6 ff ff 	lea    -0x19f8(%rbp),%rax
   14a9e:	48 89 85 b0 fb ff ff 	mov    %rax,-0x450(%rbp)
   14aa5:	48 c7 85 b8 fb ff ff 	movq   $0x0,-0x448(%rbp)
   14aac:	00 00 00 00 
   14ab0:	48 8d 85 08 e6 ff ff 	lea    -0x19f8(%rbp),%rax
   14ab7:	48 89 85 c0 fb ff ff 	mov    %rax,-0x440(%rbp)
   14abe:	48 8d 85 f0 f1 ff ff 	lea    -0xe10(%rbp),%rax
   14ac5:	48 83 c0 1c          	add    $0x1c,%rax
   14ac9:	48 89 85 c8 fb ff ff 	mov    %rax,-0x438(%rbp)
   14ad0:	48 8d 85 10 e6 ff ff 	lea    -0x19f0(%rbp),%rax
   14ad7:	48 89 85 d0 fb ff ff 	mov    %rax,-0x430(%rbp)
   14ade:	48 8d 85 34 e6 ff ff 	lea    -0x19cc(%rbp),%rax
   14ae5:	48 89 85 d8 fb ff ff 	mov    %rax,-0x428(%rbp)
   14aec:	48 8d 85 f0 f1 ff ff 	lea    -0xe10(%rbp),%rax
   14af3:	48 05 1c 01 00 00    	add    $0x11c,%rax
   14af9:	48 89 85 e0 fb ff ff 	mov    %rax,-0x420(%rbp)
   14b00:	48 8d 85 f0 f1 ff ff 	lea    -0xe10(%rbp),%rax
   14b07:	48 83 c0 1c          	add    $0x1c,%rax
   14b0b:	48 89 85 e8 fb ff ff 	mov    %rax,-0x418(%rbp)
   14b12:	48 c7 85 f0 fb ff ff 	movq   $0x0,-0x410(%rbp)
   14b19:	00 00 00 00 
   14b1d:	48 8d 85 34 e6 ff ff 	lea    -0x19cc(%rbp),%rax
   14b24:	48 89 85 f8 fb ff ff 	mov    %rax,-0x408(%rbp)
   14b2b:	48 c7 85 00 fc ff ff 	movq   $0x0,-0x400(%rbp)
   14b32:	00 00 00 00 
   14b36:	48 8d 05 a7 de 00 00 	lea    0xdea7(%rip),%rax        # 229e4 <g_27>
   14b3d:	48 89 85 08 fc ff ff 	mov    %rax,-0x3f8(%rbp)
   14b44:	48 8d 85 10 e6 ff ff 	lea    -0x19f0(%rbp),%rax
   14b4b:	48 89 85 10 fc ff ff 	mov    %rax,-0x3f0(%rbp)
   14b52:	48 8d 05 af de 00 00 	lea    0xdeaf(%rip),%rax        # 22a08 <g_126>
   14b59:	48 89 85 18 fc ff ff 	mov    %rax,-0x3e8(%rbp)
   14b60:	48 c7 85 20 fc ff ff 	movq   $0x0,-0x3e0(%rbp)
   14b67:	00 00 00 00 
   14b6b:	48 c7 85 28 fc ff ff 	movq   $0x0,-0x3d8(%rbp)
   14b72:	00 00 00 00 
   14b76:	48 8d 85 14 e6 ff ff 	lea    -0x19ec(%rbp),%rax
   14b7d:	48 89 85 30 fc ff ff 	mov    %rax,-0x3d0(%rbp)
   14b84:	48 c7 85 38 fc ff ff 	movq   $0x0,-0x3c8(%rbp)
   14b8b:	00 00 00 00 
   14b8f:	48 8d 85 34 e6 ff ff 	lea    -0x19cc(%rbp),%rax
   14b96:	48 89 85 40 fc ff ff 	mov    %rax,-0x3c0(%rbp)
   14b9d:	48 8d 05 04 1a 01 00 	lea    0x11a04(%rip),%rax        # 265a8 <g_342>
   14ba4:	48 89 85 48 fc ff ff 	mov    %rax,-0x3b8(%rbp)
   14bab:	48 c7 85 50 fc ff ff 	movq   $0x0,-0x3b0(%rbp)
   14bb2:	00 00 00 00 
   14bb6:	48 8d 85 0c e6 ff ff 	lea    -0x19f4(%rbp),%rax
   14bbd:	48 89 85 58 fc ff ff 	mov    %rax,-0x3a8(%rbp)
   14bc4:	48 8d 85 10 e6 ff ff 	lea    -0x19f0(%rbp),%rax
   14bcb:	48 89 85 60 fc ff ff 	mov    %rax,-0x3a0(%rbp)
   14bd2:	48 8d 05 2f de 00 00 	lea    0xde2f(%rip),%rax        # 22a08 <g_126>
   14bd9:	48 89 85 68 fc ff ff 	mov    %rax,-0x398(%rbp)
   14be0:	48 c7 85 70 fc ff ff 	movq   $0x0,-0x390(%rbp)
   14be7:	00 00 00 00 
   14beb:	48 c7 85 78 fc ff ff 	movq   $0x0,-0x388(%rbp)
   14bf2:	00 00 00 00 
   14bf6:	48 8d 85 18 e6 ff ff 	lea    -0x19e8(%rbp),%rax
   14bfd:	48 89 85 80 fc ff ff 	mov    %rax,-0x380(%rbp)
   14c04:	48 8d 85 f0 f1 ff ff 	lea    -0xe10(%rbp),%rax
   14c0b:	48 05 20 01 00 00    	add    $0x120,%rax
   14c11:	48 89 85 88 fc ff ff 	mov    %rax,-0x378(%rbp)
   14c18:	48 c7 85 90 fc ff ff 	movq   $0x0,-0x370(%rbp)
   14c1f:	00 00 00 00 
   14c23:	48 c7 85 98 fc ff ff 	movq   $0x0,-0x368(%rbp)
   14c2a:	00 00 00 00 
   14c2e:	48 8d 85 f0 f1 ff ff 	lea    -0xe10(%rbp),%rax
   14c35:	48 05 20 01 00 00    	add    $0x120,%rax
   14c3b:	48 89 85 a0 fc ff ff 	mov    %rax,-0x360(%rbp)
   14c42:	48 c7 85 a8 fc ff ff 	movq   $0x0,-0x358(%rbp)
   14c49:	00 00 00 00 
   14c4d:	48 8d 85 f0 f1 ff ff 	lea    -0xe10(%rbp),%rax
   14c54:	48 05 1c 01 00 00    	add    $0x11c,%rax
   14c5a:	48 89 85 b0 fc ff ff 	mov    %rax,-0x350(%rbp)
   14c61:	48 8d 85 0c e6 ff ff 	lea    -0x19f4(%rbp),%rax
   14c68:	48 89 85 b8 fc ff ff 	mov    %rax,-0x348(%rbp)
   14c6f:	48 8d 85 18 e6 ff ff 	lea    -0x19e8(%rbp),%rax
   14c76:	48 89 85 c0 fc ff ff 	mov    %rax,-0x340(%rbp)
   14c7d:	48 8d 85 08 e6 ff ff 	lea    -0x19f8(%rbp),%rax
   14c84:	48 89 85 c8 fc ff ff 	mov    %rax,-0x338(%rbp)
   14c8b:	48 8d 85 10 e6 ff ff 	lea    -0x19f0(%rbp),%rax
   14c92:	48 89 85 d0 fc ff ff 	mov    %rax,-0x330(%rbp)
   14c99:	48 8d 05 68 dd 00 00 	lea    0xdd68(%rip),%rax        # 22a08 <g_126>
   14ca0:	48 89 85 d8 fc ff ff 	mov    %rax,-0x328(%rbp)
   14ca7:	48 c7 85 e0 fc ff ff 	movq   $0x0,-0x320(%rbp)
   14cae:	00 00 00 00 
   14cb2:	48 8d 85 20 e6 ff ff 	lea    -0x19e0(%rbp),%rax
   14cb9:	48 89 85 e8 fc ff ff 	mov    %rax,-0x318(%rbp)
   14cc0:	48 8d 85 10 e6 ff ff 	lea    -0x19f0(%rbp),%rax
   14cc7:	48 89 85 f0 fc ff ff 	mov    %rax,-0x310(%rbp)
   14cce:	48 8d 85 20 e6 ff ff 	lea    -0x19e0(%rbp),%rax
   14cd5:	48 89 85 f8 fc ff ff 	mov    %rax,-0x308(%rbp)
   14cdc:	48 8d 85 18 e6 ff ff 	lea    -0x19e8(%rbp),%rax
   14ce3:	48 89 85 00 fd ff ff 	mov    %rax,-0x300(%rbp)
   14cea:	48 8d 85 f0 f1 ff ff 	lea    -0xe10(%rbp),%rax
   14cf1:	48 83 c0 1c          	add    $0x1c,%rax
   14cf5:	48 89 85 08 fd ff ff 	mov    %rax,-0x2f8(%rbp)
   14cfc:	48 8d 85 0c e6 ff ff 	lea    -0x19f4(%rbp),%rax
   14d03:	48 89 85 10 fd ff ff 	mov    %rax,-0x2f0(%rbp)
   14d0a:	48 8d 85 08 e6 ff ff 	lea    -0x19f8(%rbp),%rax
   14d11:	48 89 85 18 fd ff ff 	mov    %rax,-0x2e8(%rbp)
   14d18:	48 8d 85 08 e6 ff ff 	lea    -0x19f8(%rbp),%rax
   14d1f:	48 89 85 20 fd ff ff 	mov    %rax,-0x2e0(%rbp)
   14d26:	48 8d 05 b7 dc 00 00 	lea    0xdcb7(%rip),%rax        # 229e4 <g_27>
   14d2d:	48 89 85 28 fd ff ff 	mov    %rax,-0x2d8(%rbp)
   14d34:	48 c7 85 30 fd ff ff 	movq   $0x0,-0x2d0(%rbp)
   14d3b:	00 00 00 00 
   14d3f:	48 c7 85 38 fd ff ff 	movq   $0x0,-0x2c8(%rbp)
   14d46:	00 00 00 00 
   14d4a:	48 8d 85 f0 f1 ff ff 	lea    -0xe10(%rbp),%rax
   14d51:	48 05 20 01 00 00    	add    $0x120,%rax
   14d57:	48 89 85 40 fd ff ff 	mov    %rax,-0x2c0(%rbp)
   14d5e:	48 8d 85 20 e6 ff ff 	lea    -0x19e0(%rbp),%rax
   14d65:	48 89 85 48 fd ff ff 	mov    %rax,-0x2b8(%rbp)
   14d6c:	48 8d 85 20 e6 ff ff 	lea    -0x19e0(%rbp),%rax
   14d73:	48 89 85 50 fd ff ff 	mov    %rax,-0x2b0(%rbp)
   14d7a:	48 8d 85 f0 f1 ff ff 	lea    -0xe10(%rbp),%rax
   14d81:	48 83 c0 04          	add    $0x4,%rax
   14d85:	48 89 85 58 fd ff ff 	mov    %rax,-0x2a8(%rbp)
   14d8c:	48 c7 85 60 fd ff ff 	movq   $0x0,-0x2a0(%rbp)
   14d93:	00 00 00 00 
   14d97:	48 c7 85 68 fd ff ff 	movq   $0x0,-0x298(%rbp)
   14d9e:	00 00 00 00 
   14da2:	48 8d 85 08 e6 ff ff 	lea    -0x19f8(%rbp),%rax
   14da9:	48 89 85 70 fd ff ff 	mov    %rax,-0x290(%rbp)
   14db0:	48 c7 85 78 fd ff ff 	movq   $0x0,-0x288(%rbp)
   14db7:	00 00 00 00 
   14dbb:	48 8d 85 08 e6 ff ff 	lea    -0x19f8(%rbp),%rax
   14dc2:	48 89 85 80 fd ff ff 	mov    %rax,-0x280(%rbp)
   14dc9:	48 8d 85 f0 f1 ff ff 	lea    -0xe10(%rbp),%rax
   14dd0:	48 83 c0 04          	add    $0x4,%rax
   14dd4:	48 89 85 88 fd ff ff 	mov    %rax,-0x278(%rbp)
   14ddb:	48 c7 85 90 fd ff ff 	movq   $0x0,-0x270(%rbp)
   14de2:	00 00 00 00 
   14de6:	48 8d 85 f0 f1 ff ff 	lea    -0xe10(%rbp),%rax
   14ded:	48 05 1c 01 00 00    	add    $0x11c,%rax
   14df3:	48 89 85 98 fd ff ff 	mov    %rax,-0x268(%rbp)
   14dfa:	48 8d 85 20 e6 ff ff 	lea    -0x19e0(%rbp),%rax
   14e01:	48 89 85 a0 fd ff ff 	mov    %rax,-0x260(%rbp)
   14e08:	48 8d 85 18 e6 ff ff 	lea    -0x19e8(%rbp),%rax
   14e0f:	48 89 85 a8 fd ff ff 	mov    %rax,-0x258(%rbp)
   14e16:	48 8d 85 f0 f1 ff ff 	lea    -0xe10(%rbp),%rax
   14e1d:	48 83 c0 04          	add    $0x4,%rax
   14e21:	48 89 85 b0 fd ff ff 	mov    %rax,-0x250(%rbp)
   14e28:	48 8d 05 b5 db 00 00 	lea    0xdbb5(%rip),%rax        # 229e4 <g_27>
   14e2f:	48 89 85 b8 fd ff ff 	mov    %rax,-0x248(%rbp)
   14e36:	48 8d 85 08 e6 ff ff 	lea    -0x19f8(%rbp),%rax
   14e3d:	48 89 85 c0 fd ff ff 	mov    %rax,-0x240(%rbp)
   14e44:	48 8d 85 08 e6 ff ff 	lea    -0x19f8(%rbp),%rax
   14e4b:	48 89 85 c8 fd ff ff 	mov    %rax,-0x238(%rbp)
   14e52:	48 c7 85 d0 fd ff ff 	movq   $0x0,-0x230(%rbp)
   14e59:	00 00 00 00 
   14e5d:	48 c7 85 d8 fd ff ff 	movq   $0x0,-0x228(%rbp)
   14e64:	00 00 00 00 
   14e68:	48 8d 85 10 e6 ff ff 	lea    -0x19f0(%rbp),%rax
   14e6f:	48 89 85 e0 fd ff ff 	mov    %rax,-0x220(%rbp)
   14e76:	48 c7 85 e8 fd ff ff 	movq   $0x0,-0x218(%rbp)
   14e7d:	00 00 00 00 
   14e81:	48 8d 05 80 db 00 00 	lea    0xdb80(%rip),%rax        # 22a08 <g_126>
   14e88:	48 89 85 f0 fd ff ff 	mov    %rax,-0x210(%rbp)
   14e8f:	48 8d 05 72 db 00 00 	lea    0xdb72(%rip),%rax        # 22a08 <g_126>
   14e96:	48 89 85 f8 fd ff ff 	mov    %rax,-0x208(%rbp)
   14e9d:	48 c7 85 00 fe ff ff 	movq   $0x0,-0x200(%rbp)
   14ea4:	00 00 00 00 
   14ea8:	48 8d 85 18 e6 ff ff 	lea    -0x19e8(%rbp),%rax
   14eaf:	48 89 85 08 fe ff ff 	mov    %rax,-0x1f8(%rbp)
   14eb6:	48 8d 85 1c e6 ff ff 	lea    -0x19e4(%rbp),%rax
   14ebd:	48 89 85 10 fe ff ff 	mov    %rax,-0x1f0(%rbp)
   14ec4:	48 c7 85 18 fe ff ff 	movq   $0x0,-0x1e8(%rbp)
   14ecb:	00 00 00 00 
   14ecf:	48 8d 85 08 e6 ff ff 	lea    -0x19f8(%rbp),%rax
   14ed6:	48 89 85 20 fe ff ff 	mov    %rax,-0x1e0(%rbp)
   14edd:	48 8d 85 0c e6 ff ff 	lea    -0x19f4(%rbp),%rax
   14ee4:	48 89 85 28 fe ff ff 	mov    %rax,-0x1d8(%rbp)
   14eeb:	48 8d 05 16 db 00 00 	lea    0xdb16(%rip),%rax        # 22a08 <g_126>
   14ef2:	48 89 85 30 fe ff ff 	mov    %rax,-0x1d0(%rbp)
   14ef9:	48 8d 85 1c e6 ff ff 	lea    -0x19e4(%rbp),%rax
   14f00:	48 89 85 38 fe ff ff 	mov    %rax,-0x1c8(%rbp)
   14f07:	48 8d 85 08 e6 ff ff 	lea    -0x19f8(%rbp),%rax
   14f0e:	48 89 85 40 fe ff ff 	mov    %rax,-0x1c0(%rbp)
   14f15:	48 8d 85 f0 f1 ff ff 	lea    -0xe10(%rbp),%rax
   14f1c:	48 05 1c 01 00 00    	add    $0x11c,%rax
   14f22:	48 89 85 48 fe ff ff 	mov    %rax,-0x1b8(%rbp)
   14f29:	48 8d 85 20 e6 ff ff 	lea    -0x19e0(%rbp),%rax
   14f30:	48 89 85 50 fe ff ff 	mov    %rax,-0x1b0(%rbp)
   14f37:	48 8d 85 f0 f1 ff ff 	lea    -0xe10(%rbp),%rax
   14f3e:	48 83 c0 1c          	add    $0x1c,%rax
   14f42:	48 89 85 58 fe ff ff 	mov    %rax,-0x1a8(%rbp)
   14f49:	48 8d 85 14 e6 ff ff 	lea    -0x19ec(%rbp),%rax
   14f50:	48 89 85 60 fe ff ff 	mov    %rax,-0x1a0(%rbp)
   14f57:	48 8d 85 1c e6 ff ff 	lea    -0x19e4(%rbp),%rax
   14f5e:	48 89 85 68 fe ff ff 	mov    %rax,-0x198(%rbp)
   14f65:	48 8d 85 08 e6 ff ff 	lea    -0x19f8(%rbp),%rax
   14f6c:	48 89 85 70 fe ff ff 	mov    %rax,-0x190(%rbp)
   14f73:	48 8d 85 18 e6 ff ff 	lea    -0x19e8(%rbp),%rax
   14f7a:	48 89 85 78 fe ff ff 	mov    %rax,-0x188(%rbp)
   14f81:	48 8d 85 34 e6 ff ff 	lea    -0x19cc(%rbp),%rax
   14f88:	48 89 85 80 fe ff ff 	mov    %rax,-0x180(%rbp)
   14f8f:	48 c7 85 88 fe ff ff 	movq   $0x0,-0x178(%rbp)
   14f96:	00 00 00 00 
   14f9a:	48 c7 85 90 fe ff ff 	movq   $0x0,-0x170(%rbp)
   14fa1:	00 00 00 00 
   14fa5:	48 8d 05 5c da 00 00 	lea    0xda5c(%rip),%rax        # 22a08 <g_126>
   14fac:	48 89 85 98 fe ff ff 	mov    %rax,-0x168(%rbp)
   14fb3:	48 c7 85 a0 fe ff ff 	movq   $0x0,-0x160(%rbp)
   14fba:	00 00 00 00 
   14fbe:	48 8d 85 08 e6 ff ff 	lea    -0x19f8(%rbp),%rax
   14fc5:	48 89 85 a8 fe ff ff 	mov    %rax,-0x158(%rbp)
   14fcc:	48 8d 05 11 da 00 00 	lea    0xda11(%rip),%rax        # 229e4 <g_27>
   14fd3:	48 89 85 b0 fe ff ff 	mov    %rax,-0x150(%rbp)
   14fda:	48 8d 85 44 e6 ff ff 	lea    -0x19bc(%rbp),%rax
   14fe1:	48 89 85 b8 fe ff ff 	mov    %rax,-0x148(%rbp)
   14fe8:	48 c7 85 c0 fe ff ff 	movq   $0x0,-0x140(%rbp)
   14fef:	00 00 00 00 
   14ff3:	48 c7 85 c8 fe ff ff 	movq   $0x0,-0x138(%rbp)
   14ffa:	00 00 00 00 
   14ffe:	48 8d 85 1c e6 ff ff 	lea    -0x19e4(%rbp),%rax
   15005:	48 89 85 d0 fe ff ff 	mov    %rax,-0x130(%rbp)
   1500c:	48 8d 05 95 15 01 00 	lea    0x11595(%rip),%rax        # 265a8 <g_342>
   15013:	48 89 85 d8 fe ff ff 	mov    %rax,-0x128(%rbp)
   1501a:	48 8d 85 0c e6 ff ff 	lea    -0x19f4(%rbp),%rax
   15021:	48 89 85 e0 fe ff ff 	mov    %rax,-0x120(%rbp)
   15028:	48 8d 85 18 e6 ff ff 	lea    -0x19e8(%rbp),%rax
   1502f:	48 89 85 e8 fe ff ff 	mov    %rax,-0x118(%rbp)
   15036:	48 8d 05 6b 15 01 00 	lea    0x1156b(%rip),%rax        # 265a8 <g_342>
   1503d:	48 89 85 f0 fe ff ff 	mov    %rax,-0x110(%rbp)
   15044:	48 8d 85 18 e6 ff ff 	lea    -0x19e8(%rbp),%rax
   1504b:	48 89 85 f8 fe ff ff 	mov    %rax,-0x108(%rbp)
   15052:	48 8d 85 10 e6 ff ff 	lea    -0x19f0(%rbp),%rax
   15059:	48 89 85 00 ff ff ff 	mov    %rax,-0x100(%rbp)
   15060:	48 8d 85 0c e6 ff ff 	lea    -0x19f4(%rbp),%rax
   15067:	48 89 85 08 ff ff ff 	mov    %rax,-0xf8(%rbp)
   1506e:	48 8d 85 08 e6 ff ff 	lea    -0x19f8(%rbp),%rax
   15075:	48 89 85 10 ff ff ff 	mov    %rax,-0xf0(%rbp)
   1507c:	48 8d 85 34 e6 ff ff 	lea    -0x19cc(%rbp),%rax
   15083:	48 89 85 18 ff ff ff 	mov    %rax,-0xe8(%rbp)
   1508a:	48 8d 85 44 e6 ff ff 	lea    -0x19bc(%rbp),%rax
   15091:	48 89 85 20 ff ff ff 	mov    %rax,-0xe0(%rbp)
   15098:	48 8d 85 34 e6 ff ff 	lea    -0x19cc(%rbp),%rax
   1509f:	48 89 85 28 ff ff ff 	mov    %rax,-0xd8(%rbp)
   150a6:	48 8d 85 44 e6 ff ff 	lea    -0x19bc(%rbp),%rax
   150ad:	48 89 85 30 ff ff ff 	mov    %rax,-0xd0(%rbp)
   150b4:	48 8d 85 f0 f1 ff ff 	lea    -0xe10(%rbp),%rax
   150bb:	48 83 c0 04          	add    $0x4,%rax
   150bf:	48 89 85 38 ff ff ff 	mov    %rax,-0xc8(%rbp)
   150c6:	48 8d 85 1c e6 ff ff 	lea    -0x19e4(%rbp),%rax
   150cd:	48 89 85 40 ff ff ff 	mov    %rax,-0xc0(%rbp)
   150d4:	48 8d 85 f0 f1 ff ff 	lea    -0xe10(%rbp),%rax
   150db:	48 83 c0 04          	add    $0x4,%rax
   150df:	48 89 85 48 ff ff ff 	mov    %rax,-0xb8(%rbp)
   150e6:	48 8d 85 44 e6 ff ff 	lea    -0x19bc(%rbp),%rax
   150ed:	48 89 85 50 ff ff ff 	mov    %rax,-0xb0(%rbp)
   150f4:	48 c7 85 58 ff ff ff 	movq   $0x0,-0xa8(%rbp)
   150fb:	00 00 00 00 
   150ff:	48 c7 85 60 ff ff ff 	movq   $0x0,-0xa0(%rbp)
   15106:	00 00 00 00 
   1510a:	48 8d 05 d3 d8 00 00 	lea    0xd8d3(%rip),%rax        # 229e4 <g_27>
   15111:	48 89 85 68 ff ff ff 	mov    %rax,-0x98(%rbp)
   15118:	48 8d 85 14 e6 ff ff 	lea    -0x19ec(%rbp),%rax
   1511f:	48 89 85 70 ff ff ff 	mov    %rax,-0x90(%rbp)
   15126:	48 8d 05 db d8 00 00 	lea    0xd8db(%rip),%rax        # 22a08 <g_126>
   1512d:	48 89 85 78 ff ff ff 	mov    %rax,-0x88(%rbp)
   15134:	48 8d 85 1c e6 ff ff 	lea    -0x19e4(%rbp),%rax
   1513b:	48 89 45 80          	mov    %rax,-0x80(%rbp)
   1513f:	48 8d 85 f0 f1 ff ff 	lea    -0xe10(%rbp),%rax
   15146:	48 83 c0 1c          	add    $0x1c,%rax
   1514a:	48 89 45 88          	mov    %rax,-0x78(%rbp)
   1514e:	48 c7 45 90 00 00 00 	movq   $0x0,-0x70(%rbp)
   15155:	00 
   15156:	48 8d 85 0c e6 ff ff 	lea    -0x19f4(%rbp),%rax
   1515d:	48 89 45 98          	mov    %rax,-0x68(%rbp)
   15161:	48 8d 85 f0 f1 ff ff 	lea    -0xe10(%rbp),%rax
   15168:	48 83 c0 34          	add    $0x34,%rax
   1516c:	48 89 45 a0          	mov    %rax,-0x60(%rbp)
   15170:	83 85 34 e7 ff ff 01 	addl   $0x1,-0x18cc(%rbp)
   15177:	c7 85 44 e6 ff ff 00 	movl   $0x0,-0x19bc(%rbp)
   1517e:	00 00 00 
   15181:	90                   	nop
   15182:	8b 85 44 e6 ff ff    	mov    -0x19bc(%rbp),%eax
   15188:	83 f8 01             	cmp    $0x1,%eax
   1518b:	7f 0d                	jg     1519a <func_48+0x2f2f>
   1518d:	8b 85 cc e5 ff ff    	mov    -0x1a34(%rbp),%eax
   15193:	48 98                	cltq   
   15195:	e9 b5 36 00 00       	jmpq   1884f <func_48+0x65e4>
   1519a:	48 8b 05 ff f8 00 00 	mov    0xf8ff(%rip),%rax        # 24aa0 <g_726>
   151a1:	48 8b 00             	mov    (%rax),%rax
   151a4:	e9 a6 36 00 00       	jmpq   1884f <func_48+0x65e4>
   151a9:	48 8d 85 d8 e7 ff ff 	lea    -0x1828(%rbp),%rax
   151b0:	48 89 85 18 e8 ff ff 	mov    %rax,-0x17e8(%rbp)
   151b7:	48 8d 85 18 e8 ff ff 	lea    -0x17e8(%rbp),%rax
   151be:	48 89 85 a0 f8 ff ff 	mov    %rax,-0x760(%rbp)
   151c5:	48 8d 85 18 e8 ff ff 	lea    -0x17e8(%rbp),%rax
   151cc:	48 89 85 a8 f8 ff ff 	mov    %rax,-0x758(%rbp)
   151d3:	48 8d 85 18 e8 ff ff 	lea    -0x17e8(%rbp),%rax
   151da:	48 89 85 b0 f8 ff ff 	mov    %rax,-0x750(%rbp)
   151e1:	48 8d 85 18 e8 ff ff 	lea    -0x17e8(%rbp),%rax
   151e8:	48 89 85 b8 f8 ff ff 	mov    %rax,-0x748(%rbp)
   151ef:	48 8d 85 18 e8 ff ff 	lea    -0x17e8(%rbp),%rax
   151f6:	48 89 85 c0 f8 ff ff 	mov    %rax,-0x740(%rbp)
   151fd:	48 8d 85 18 e8 ff ff 	lea    -0x17e8(%rbp),%rax
   15204:	48 89 85 c8 f8 ff ff 	mov    %rax,-0x738(%rbp)
   1520b:	48 8d 85 18 e8 ff ff 	lea    -0x17e8(%rbp),%rax
   15212:	48 89 85 d0 f8 ff ff 	mov    %rax,-0x730(%rbp)
   15219:	48 8d 85 18 e8 ff ff 	lea    -0x17e8(%rbp),%rax
   15220:	48 89 85 d8 f8 ff ff 	mov    %rax,-0x728(%rbp)
   15227:	48 8d 85 18 e8 ff ff 	lea    -0x17e8(%rbp),%rax
   1522e:	48 89 85 e0 f8 ff ff 	mov    %rax,-0x720(%rbp)
   15235:	48 8d 85 18 e8 ff ff 	lea    -0x17e8(%rbp),%rax
   1523c:	48 89 85 e8 f8 ff ff 	mov    %rax,-0x718(%rbp)
   15243:	48 8d 85 18 e8 ff ff 	lea    -0x17e8(%rbp),%rax
   1524a:	48 89 85 f0 f8 ff ff 	mov    %rax,-0x710(%rbp)
   15251:	48 8d 85 18 e8 ff ff 	lea    -0x17e8(%rbp),%rax
   15258:	48 89 85 f8 f8 ff ff 	mov    %rax,-0x708(%rbp)
   1525f:	48 8d 85 18 e8 ff ff 	lea    -0x17e8(%rbp),%rax
   15266:	48 89 85 00 f9 ff ff 	mov    %rax,-0x700(%rbp)
   1526d:	48 8d 85 18 e8 ff ff 	lea    -0x17e8(%rbp),%rax
   15274:	48 89 85 08 f9 ff ff 	mov    %rax,-0x6f8(%rbp)
   1527b:	48 8d 85 18 e8 ff ff 	lea    -0x17e8(%rbp),%rax
   15282:	48 89 85 10 f9 ff ff 	mov    %rax,-0x6f0(%rbp)
   15289:	48 8d 85 18 e8 ff ff 	lea    -0x17e8(%rbp),%rax
   15290:	48 89 85 18 f9 ff ff 	mov    %rax,-0x6e8(%rbp)
   15297:	48 8d 85 18 e8 ff ff 	lea    -0x17e8(%rbp),%rax
   1529e:	48 89 85 20 f9 ff ff 	mov    %rax,-0x6e0(%rbp)
   152a5:	48 8d 85 18 e8 ff ff 	lea    -0x17e8(%rbp),%rax
   152ac:	48 89 85 28 f9 ff ff 	mov    %rax,-0x6d8(%rbp)
   152b3:	48 8d 85 18 e8 ff ff 	lea    -0x17e8(%rbp),%rax
   152ba:	48 89 85 30 f9 ff ff 	mov    %rax,-0x6d0(%rbp)
   152c1:	48 8d 85 18 e8 ff ff 	lea    -0x17e8(%rbp),%rax
   152c8:	48 89 85 38 f9 ff ff 	mov    %rax,-0x6c8(%rbp)
   152cf:	48 8d 85 18 e8 ff ff 	lea    -0x17e8(%rbp),%rax
   152d6:	48 89 85 40 f9 ff ff 	mov    %rax,-0x6c0(%rbp)
   152dd:	48 8d 85 18 e8 ff ff 	lea    -0x17e8(%rbp),%rax
   152e4:	48 89 85 48 f9 ff ff 	mov    %rax,-0x6b8(%rbp)
   152eb:	48 8d 85 18 e8 ff ff 	lea    -0x17e8(%rbp),%rax
   152f2:	48 89 85 50 f9 ff ff 	mov    %rax,-0x6b0(%rbp)
   152f9:	48 8d 85 18 e8 ff ff 	lea    -0x17e8(%rbp),%rax
   15300:	48 89 85 58 f9 ff ff 	mov    %rax,-0x6a8(%rbp)
   15307:	48 8d 85 18 e8 ff ff 	lea    -0x17e8(%rbp),%rax
   1530e:	48 89 85 60 f9 ff ff 	mov    %rax,-0x6a0(%rbp)
   15315:	48 8d 85 18 e8 ff ff 	lea    -0x17e8(%rbp),%rax
   1531c:	48 89 85 68 f9 ff ff 	mov    %rax,-0x698(%rbp)
   15323:	48 8d 85 18 e8 ff ff 	lea    -0x17e8(%rbp),%rax
   1532a:	48 89 85 70 f9 ff ff 	mov    %rax,-0x690(%rbp)
   15331:	48 8d 85 18 e8 ff ff 	lea    -0x17e8(%rbp),%rax
   15338:	48 89 85 78 f9 ff ff 	mov    %rax,-0x688(%rbp)
   1533f:	48 8d 85 18 e8 ff ff 	lea    -0x17e8(%rbp),%rax
   15346:	48 89 85 80 f9 ff ff 	mov    %rax,-0x680(%rbp)
   1534d:	48 8d 85 18 e8 ff ff 	lea    -0x17e8(%rbp),%rax
   15354:	48 89 85 88 f9 ff ff 	mov    %rax,-0x678(%rbp)
   1535b:	48 8d 85 18 e8 ff ff 	lea    -0x17e8(%rbp),%rax
   15362:	48 89 85 90 f9 ff ff 	mov    %rax,-0x670(%rbp)
   15369:	48 8d 85 18 e8 ff ff 	lea    -0x17e8(%rbp),%rax
   15370:	48 89 85 98 f9 ff ff 	mov    %rax,-0x668(%rbp)
   15377:	48 8d 85 18 e8 ff ff 	lea    -0x17e8(%rbp),%rax
   1537e:	48 89 85 a0 f9 ff ff 	mov    %rax,-0x660(%rbp)
   15385:	48 8d 85 18 e8 ff ff 	lea    -0x17e8(%rbp),%rax
   1538c:	48 89 85 a8 f9 ff ff 	mov    %rax,-0x658(%rbp)
   15393:	48 8d 85 18 e8 ff ff 	lea    -0x17e8(%rbp),%rax
   1539a:	48 89 85 b0 f9 ff ff 	mov    %rax,-0x650(%rbp)
   153a1:	48 8d 85 18 e8 ff ff 	lea    -0x17e8(%rbp),%rax
   153a8:	48 89 85 b8 f9 ff ff 	mov    %rax,-0x648(%rbp)
   153af:	48 8d 85 18 e8 ff ff 	lea    -0x17e8(%rbp),%rax
   153b6:	48 89 85 c0 f9 ff ff 	mov    %rax,-0x640(%rbp)
   153bd:	48 8d 85 18 e8 ff ff 	lea    -0x17e8(%rbp),%rax
   153c4:	48 89 85 c8 f9 ff ff 	mov    %rax,-0x638(%rbp)
   153cb:	48 8d 85 18 e8 ff ff 	lea    -0x17e8(%rbp),%rax
   153d2:	48 89 85 d0 f9 ff ff 	mov    %rax,-0x630(%rbp)
   153d9:	48 8d 85 18 e8 ff ff 	lea    -0x17e8(%rbp),%rax
   153e0:	48 89 85 d8 f9 ff ff 	mov    %rax,-0x628(%rbp)
   153e7:	c7 85 d0 f5 ff ff 09 	movl   $0x9,-0xa30(%rbp)
   153ee:	00 00 00 
   153f1:	c7 85 d4 f5 ff ff 02 	movl   $0x2,-0xa2c(%rbp)
   153f8:	00 00 00 
   153fb:	c7 85 d8 f5 ff ff fd 	movl   $0xfffffffd,-0xa28(%rbp)
   15402:	ff ff ff 
   15405:	c7 85 dc f5 ff ff 02 	movl   $0x2,-0xa24(%rbp)
   1540c:	00 00 00 
   1540f:	c7 85 e0 f5 ff ff 09 	movl   $0x9,-0xa20(%rbp)
   15416:	00 00 00 
   15419:	c7 85 e4 f5 ff ff ff 	movl   $0xffffffff,-0xa1c(%rbp)
   15420:	ff ff ff 
   15423:	c7 85 e8 f5 ff ff 02 	movl   $0x2,-0xa18(%rbp)
   1542a:	00 00 00 
   1542d:	c7 85 ec f5 ff ff 09 	movl   $0x9,-0xa14(%rbp)
   15434:	00 00 00 
   15437:	c7 85 f0 f5 ff ff ff 	movl   $0xffffffff,-0xa10(%rbp)
   1543e:	ff ff ff 
   15441:	c7 85 f4 f5 ff ff ff 	movl   $0xffffffff,-0xa0c(%rbp)
   15448:	ff ff ff 
   1544b:	c7 85 f8 f5 ff ff 09 	movl   $0x9,-0xa08(%rbp)
   15452:	00 00 00 
   15455:	c7 85 fc f5 ff ff 02 	movl   $0x2,-0xa04(%rbp)
   1545c:	00 00 00 
   1545f:	c7 85 00 f6 ff ff dd 	movl   $0x1832e5dd,-0xa00(%rbp)
   15466:	e5 32 18 
   15469:	c7 85 04 f6 ff ff 02 	movl   $0x2,-0x9fc(%rbp)
   15470:	00 00 00 
   15473:	c7 85 08 f6 ff ff 01 	movl   $0x1,-0x9f8(%rbp)
   1547a:	00 00 00 
   1547d:	c7 85 0c f6 ff ff 09 	movl   $0x9,-0x9f4(%rbp)
   15484:	00 00 00 
   15487:	c7 85 10 f6 ff ff 01 	movl   $0x1,-0x9f0(%rbp)
   1548e:	00 00 00 
   15491:	c7 85 14 f6 ff ff 02 	movl   $0x2,-0x9ec(%rbp)
   15498:	00 00 00 
   1549b:	c7 85 18 f6 ff ff 01 	movl   $0x1,-0x9e8(%rbp)
   154a2:	00 00 00 
   154a5:	c7 85 1c f6 ff ff dd 	movl   $0x1832e5dd,-0x9e4(%rbp)
   154ac:	e5 32 18 
   154af:	c7 85 20 f6 ff ff ff 	movl   $0xffffffff,-0x9e0(%rbp)
   154b6:	ff ff ff 
   154b9:	c7 85 24 f6 ff ff fd 	movl   $0xfffffffd,-0x9dc(%rbp)
   154c0:	ff ff ff 
   154c3:	c7 85 28 f6 ff ff fd 	movl   $0xfffffffd,-0x9d8(%rbp)
   154ca:	ff ff ff 
   154cd:	c7 85 2c f6 ff ff ff 	movl   $0xffffffff,-0x9d4(%rbp)
   154d4:	ff ff ff 
   154d7:	c7 85 30 f6 ff ff 01 	movl   $0x1,-0x9d0(%rbp)
   154de:	00 00 00 
   154e1:	c7 85 34 f6 ff ff 01 	movl   $0x1,-0x9cc(%rbp)
   154e8:	00 00 00 
   154eb:	c7 85 38 f6 ff ff fd 	movl   $0xfffffffd,-0x9c8(%rbp)
   154f2:	ff ff ff 
   154f5:	c7 85 3c f6 ff ff 09 	movl   $0x9,-0x9c4(%rbp)
   154fc:	00 00 00 
   154ff:	c7 85 40 f6 ff ff 01 	movl   $0x1,-0x9c0(%rbp)
   15506:	00 00 00 
   15509:	c7 85 44 f6 ff ff 09 	movl   $0x9,-0x9bc(%rbp)
   15510:	00 00 00 
   15513:	c7 85 48 f6 ff ff dd 	movl   $0x1832e5dd,-0x9b8(%rbp)
   1551a:	e5 32 18 
   1551d:	c7 85 4c f6 ff ff 01 	movl   $0x1,-0x9b4(%rbp)
   15524:	00 00 00 
   15527:	c7 85 50 f6 ff ff dd 	movl   $0x1832e5dd,-0x9b0(%rbp)
   1552e:	e5 32 18 
   15531:	c7 85 54 f6 ff ff ff 	movl   $0xffffffff,-0x9ac(%rbp)
   15538:	ff ff ff 
   1553b:	c7 85 58 f6 ff ff fd 	movl   $0xfffffffd,-0x9a8(%rbp)
   15542:	ff ff ff 
   15545:	c7 85 5c f6 ff ff fd 	movl   $0xfffffffd,-0x9a4(%rbp)
   1554c:	ff ff ff 
   1554f:	c7 85 60 f6 ff ff 02 	movl   $0x2,-0x9a0(%rbp)
   15556:	00 00 00 
   15559:	c7 85 64 f6 ff ff dd 	movl   $0x1832e5dd,-0x99c(%rbp)
   15560:	e5 32 18 
   15563:	c7 85 68 f6 ff ff dd 	movl   $0x1832e5dd,-0x998(%rbp)
   1556a:	e5 32 18 
   1556d:	c7 85 6c f6 ff ff 02 	movl   $0x2,-0x994(%rbp)
   15574:	00 00 00 
   15577:	c7 85 70 f6 ff ff 01 	movl   $0x1,-0x990(%rbp)
   1557e:	00 00 00 
   15581:	c7 85 74 f6 ff ff 09 	movl   $0x9,-0x98c(%rbp)
   15588:	00 00 00 
   1558b:	c7 85 78 f6 ff ff ff 	movl   $0xffffffff,-0x988(%rbp)
   15592:	ff ff ff 
   15595:	c7 85 7c f6 ff ff dd 	movl   $0x1832e5dd,-0x984(%rbp)
   1559c:	e5 32 18 
   1559f:	c7 85 80 f6 ff ff 01 	movl   $0x1,-0x980(%rbp)
   155a6:	00 00 00 
   155a9:	c7 85 84 f6 ff ff dd 	movl   $0x1832e5dd,-0x97c(%rbp)
   155b0:	e5 32 18 
   155b3:	c7 85 88 f6 ff ff ff 	movl   $0xffffffff,-0x978(%rbp)
   155ba:	ff ff ff 
   155bd:	c7 85 8c f6 ff ff fd 	movl   $0xfffffffd,-0x974(%rbp)
   155c4:	ff ff ff 
   155c7:	c7 85 90 f6 ff ff dd 	movl   $0x1832e5dd,-0x970(%rbp)
   155ce:	e5 32 18 
   155d1:	c7 85 94 f6 ff ff ff 	movl   $0xffffffff,-0x96c(%rbp)
   155d8:	ff ff ff 
   155db:	c7 85 98 f6 ff ff fd 	movl   $0xfffffffd,-0x968(%rbp)
   155e2:	ff ff ff 
   155e5:	c7 85 9c f6 ff ff fd 	movl   $0xfffffffd,-0x964(%rbp)
   155ec:	ff ff ff 
   155ef:	c7 85 a0 f6 ff ff ff 	movl   $0xffffffff,-0x960(%rbp)
   155f6:	ff ff ff 
   155f9:	c7 85 a4 f6 ff ff dd 	movl   $0x1832e5dd,-0x95c(%rbp)
   15600:	e5 32 18 
   15603:	c7 85 a8 f6 ff ff 09 	movl   $0x9,-0x958(%rbp)
   1560a:	00 00 00 
   1560d:	c7 85 ac f6 ff ff dd 	movl   $0x1832e5dd,-0x954(%rbp)
   15614:	e5 32 18 
   15617:	c7 85 b0 f6 ff ff 01 	movl   $0x1,-0x950(%rbp)
   1561e:	00 00 00 
   15621:	c7 85 b4 f6 ff ff ff 	movl   $0xffffffff,-0x94c(%rbp)
   15628:	ff ff ff 
   1562b:	c7 85 b8 f6 ff ff 01 	movl   $0x1,-0x948(%rbp)
   15632:	00 00 00 
   15635:	c7 85 bc f6 ff ff dd 	movl   $0x1832e5dd,-0x944(%rbp)
   1563c:	e5 32 18 
   1563f:	66 c7 85 ee e5 ff ff 	movw   $0x588b,-0x1a12(%rbp)
   15646:	8b 58 
   15648:	c7 05 ba d3 00 00 01 	movl   $0x1,0xd3ba(%rip)        # 22a0c <g_129>
   1564f:	00 00 00 
   15652:	e9 b3 01 00 00       	jmpq   1580a <func_48+0x359f>
   15657:	48 8d 85 80 ec ff ff 	lea    -0x1380(%rbp),%rax
   1565e:	48 83 c0 0c          	add    $0xc,%rax
   15662:	48 89 85 38 eb ff ff 	mov    %rax,-0x14c8(%rbp)
   15669:	48 8d 85 48 e6 ff ff 	lea    -0x19b8(%rbp),%rax
   15670:	48 89 85 40 eb ff ff 	mov    %rax,-0x14c0(%rbp)
   15677:	48 8d 85 0c e6 ff ff 	lea    -0x19f4(%rbp),%rax
   1567e:	48 89 85 48 eb ff ff 	mov    %rax,-0x14b8(%rbp)
   15685:	48 8d 85 c0 ec ff ff 	lea    -0x1340(%rbp),%rax
   1568c:	48 83 c0 04          	add    $0x4,%rax
   15690:	48 89 85 50 eb ff ff 	mov    %rax,-0x14b0(%rbp)
   15697:	48 c7 85 58 eb ff ff 	movq   $0x0,-0x14a8(%rbp)
   1569e:	00 00 00 00 
   156a2:	48 8d 85 0c e6 ff ff 	lea    -0x19f4(%rbp),%rax
   156a9:	48 89 85 30 ed ff ff 	mov    %rax,-0x12d0(%rbp)
   156b0:	48 8d 85 48 e6 ff ff 	lea    -0x19b8(%rbp),%rax
   156b7:	48 89 85 38 ed ff ff 	mov    %rax,-0x12c8(%rbp)
   156be:	48 8d 85 0c e6 ff ff 	lea    -0x19f4(%rbp),%rax
   156c5:	48 89 85 40 ed ff ff 	mov    %rax,-0x12c0(%rbp)
   156cc:	48 8d 85 0c e6 ff ff 	lea    -0x19f4(%rbp),%rax
   156d3:	48 89 85 48 ed ff ff 	mov    %rax,-0x12b8(%rbp)
   156da:	48 8d 85 48 e6 ff ff 	lea    -0x19b8(%rbp),%rax
   156e1:	48 89 85 50 ed ff ff 	mov    %rax,-0x12b0(%rbp)
   156e8:	48 8d 85 0c e6 ff ff 	lea    -0x19f4(%rbp),%rax
   156ef:	48 89 85 58 ed ff ff 	mov    %rax,-0x12a8(%rbp)
   156f6:	48 8d 85 0c e6 ff ff 	lea    -0x19f4(%rbp),%rax
   156fd:	48 89 85 60 ed ff ff 	mov    %rax,-0x12a0(%rbp)
   15704:	48 8b 85 e8 f8 ff ff 	mov    -0x718(%rbp),%rax
   1570b:	48 89 85 e8 f8 ff ff 	mov    %rax,-0x718(%rbp)
   15712:	48 8b 95 e8 f8 ff ff 	mov    -0x718(%rbp),%rdx
   15719:	48 8d 85 90 e7 ff ff 	lea    -0x1870(%rbp),%rax
   15720:	48 39 c2             	cmp    %rax,%rdx
   15723:	0f 95 c0             	setne  %al
   15726:	0f b6 d0             	movzbl %al,%edx
   15729:	8b 85 64 e6 ff ff    	mov    -0x199c(%rbp),%eax
   1572f:	83 c0 06             	add    $0x6,%eax
   15732:	48 98                	cltq   
   15734:	8b 84 85 c0 ec ff ff 	mov    -0x1340(%rbp,%rax,4),%eax
   1573b:	0f b7 c0             	movzwl %ax,%eax
   1573e:	89 d6                	mov    %edx,%esi
   15740:	89 c7                	mov    %eax,%edi
   15742:	e8 d8 35 ff ff       	callq  8d1f <safe_sub_func_uint16_t_u_u>
   15747:	8b 05 37 d3 00 00    	mov    0xd337(%rip),%eax        # 22a84 <g_445+0x14>
   1574d:	89 c2                	mov    %eax,%edx
   1574f:	48 8b 85 38 eb ff ff 	mov    -0x14c8(%rbp),%rax
   15756:	89 10                	mov    %edx,(%rax)
   15758:	48 8b 85 20 e8 ff ff 	mov    -0x17e0(%rbp),%rax
   1575f:	48 8b 00             	mov    (%rax),%rax
   15762:	48 8b 10             	mov    (%rax),%rdx
   15765:	48 8b 85 e8 e7 ff ff 	mov    -0x1818(%rbp),%rax
   1576c:	48 8b 00             	mov    (%rax),%rax
   1576f:	48 39 c2             	cmp    %rax,%rdx
   15772:	83 bd cc e5 ff ff 01 	cmpl   $0x1,-0x1a34(%rbp)
   15779:	0f 95 c0             	setne  %al
   1577c:	0f b6 c0             	movzbl %al,%eax
   1577f:	be fd ff ff ff       	mov    $0xfffffffd,%esi
   15784:	89 c7                	mov    %eax,%edi
   15786:	e8 41 2f ff ff       	callq  86cc <safe_mod_func_int32_t_s_s>
   1578b:	8b 95 00 f6 ff ff    	mov    -0xa00(%rbp),%edx
   15791:	31 d0                	xor    %edx,%eax
   15793:	89 85 00 f6 ff ff    	mov    %eax,-0xa00(%rbp)
   15799:	8b 85 00 f6 ff ff    	mov    -0xa00(%rbp),%eax
   1579f:	89 c6                	mov    %eax,%esi
   157a1:	bf a5 aa 7d 16       	mov    $0x167daaa5,%edi
   157a6:	e8 52 37 ff ff       	callq  8efd <safe_mod_func_uint32_t_u_u>
   157ab:	8b 05 5b d2 00 00    	mov    0xd25b(%rip),%eax        # 22a0c <g_129>
   157b1:	8d 48 01             	lea    0x1(%rax),%ecx
   157b4:	48 8b 85 58 e7 ff ff 	mov    -0x18a8(%rbp),%rax
   157bb:	48 8d 95 c0 ec ff ff 	lea    -0x1340(%rbp),%rdx
   157c2:	48 63 c9             	movslq %ecx,%rcx
   157c5:	48 c1 e1 02          	shl    $0x2,%rcx
   157c9:	48 01 ca             	add    %rcx,%rdx
   157cc:	48 89 10             	mov    %rdx,(%rax)
   157cf:	48 8b 85 68 e7 ff ff 	mov    -0x1898(%rbp),%rax
   157d6:	48 8b 00             	mov    (%rax),%rax
   157d9:	48 8b 00             	mov    (%rax),%rax
   157dc:	48 8d 95 c0 ec ff ff 	lea    -0x1340(%rbp),%rdx
   157e3:	48 83 c2 14          	add    $0x14,%rdx
   157e7:	48 89 10             	mov    %rdx,(%rax)
   157ea:	0f b7 85 ee e5 ff ff 	movzwl -0x1a12(%rbp),%eax
   157f1:	83 e8 01             	sub    $0x1,%eax
   157f4:	66 89 85 ee e5 ff ff 	mov    %ax,-0x1a12(%rbp)
   157fb:	8b 05 0b d2 00 00    	mov    0xd20b(%rip),%eax        # 22a0c <g_129>
   15801:	83 e8 01             	sub    $0x1,%eax
   15804:	89 05 02 d2 00 00    	mov    %eax,0xd202(%rip)        # 22a0c <g_129>
   1580a:	8b 05 fc d1 00 00    	mov    0xd1fc(%rip),%eax        # 22a0c <g_129>
   15810:	85 c0                	test   %eax,%eax
   15812:	0f 89 3f fe ff ff    	jns    15657 <func_48+0x33ec>
   15818:	8b 05 fe 99 00 00    	mov    0x99fe(%rip),%eax        # 1f21c <l_1677.5519+0x1c>
   1581e:	85 c0                	test   %eax,%eax
   15820:	0f 85 9c 00 00 00    	jne    158c2 <func_48+0x3657>
   15826:	48 8b 85 f8 e7 ff ff 	mov    -0x1808(%rbp),%rax
   1582d:	0f b6 10             	movzbl (%rax),%edx
   15830:	83 c2 01             	add    $0x1,%edx
   15833:	88 10                	mov    %dl,(%rax)
   15835:	48 8b 05 74 f2 00 00 	mov    0xf274(%rip),%rax        # 24ab0 <g_1144>
   1583c:	48 8b 95 c8 e7 ff ff 	mov    -0x1838(%rbp),%rdx
   15843:	48 8b 00             	mov    (%rax),%rax
   15846:	48 89 02             	mov    %rax,(%rdx)
   15849:	48 8b 05 60 f2 00 00 	mov    0xf260(%rip),%rax        # 24ab0 <g_1144>
   15850:	48 8b 12             	mov    (%rdx),%rdx
   15853:	48 89 10             	mov    %rdx,(%rax)
   15856:	48 8b 10             	mov    (%rax),%rdx
   15859:	48 8b 85 d0 f0 ff ff 	mov    -0xf30(%rbp),%rax
   15860:	48 39 c2             	cmp    %rax,%rdx
   15863:	0f 95 c0             	setne  %al
   15866:	0f b6 d0             	movzbl %al,%edx
   15869:	48 8b 85 f0 ea ff ff 	mov    -0x1510(%rbp),%rax
   15870:	89 10                	mov    %edx,(%rax)
   15872:	c6 85 d9 e5 ff ff 01 	movb   $0x1,-0x1a27(%rbp)
   15879:	eb 3c                	jmp    158b7 <func_48+0x364c>
   1587b:	48 8b 85 f0 ea ff ff 	mov    -0x1510(%rbp),%rax
   15882:	8b 95 cc e5 ff ff    	mov    -0x1a34(%rbp),%edx
   15888:	89 10                	mov    %edx,(%rax)
   1588a:	48 8b 85 f0 ea ff ff 	mov    -0x1510(%rbp),%rax
   15891:	8b 08                	mov    (%rax),%ecx
   15893:	48 8b 05 4e f0 00 00 	mov    0xf04e(%rip),%rax        # 248e8 <g_451>
   1589a:	8b 10                	mov    (%rax),%edx
   1589c:	48 8b 05 45 f0 00 00 	mov    0xf045(%rip),%rax        # 248e8 <g_451>
   158a3:	09 ca                	or     %ecx,%edx
   158a5:	89 10                	mov    %edx,(%rax)
   158a7:	0f b6 85 d9 e5 ff ff 	movzbl -0x1a27(%rbp),%eax
   158ae:	83 e8 01             	sub    $0x1,%eax
   158b1:	88 85 d9 e5 ff ff    	mov    %al,-0x1a27(%rbp)
   158b7:	0f b6 85 d9 e5 ff ff 	movzbl -0x1a27(%rbp),%eax
   158be:	84 c0                	test   %al,%al
   158c0:	79 b9                	jns    1587b <func_48+0x3610>
   158c2:	83 85 64 e6 ff ff 01 	addl   $0x1,-0x199c(%rbp)
   158c9:	83 bd 64 e6 ff ff 01 	cmpl   $0x1,-0x199c(%rbp)
   158d0:	0f 8e ab dd ff ff    	jle    13681 <func_48+0x1416>
   158d6:	eb 01                	jmp    158d9 <func_48+0x366e>
   158d8:	90                   	nop
   158d9:	48 8b 05 d8 0c 01 00 	mov    0x10cd8(%rip),%rax        # 265b8 <g_887>
   158e0:	48 83 c0 01          	add    $0x1,%rax
   158e4:	48 89 05 cd 0c 01 00 	mov    %rax,0x10ccd(%rip)        # 265b8 <g_887>
   158eb:	48 8b 05 c6 0c 01 00 	mov    0x10cc6(%rip),%rax        # 265b8 <g_887>
   158f2:	48 83 f8 01          	cmp    $0x1,%rax
   158f6:	0f 8e c6 d7 ff ff    	jle    130c2 <func_48+0xe57>
   158fc:	c7 85 34 e6 ff ff 00 	movl   $0x0,-0x19cc(%rbp)
   15903:	00 00 00 
   15906:	e9 73 16 00 00       	jmpq   16f7e <func_48+0x4d13>
   1590b:	48 8d 85 98 e7 ff ff 	lea    -0x1868(%rbp),%rax
   15912:	48 89 85 88 e9 ff ff 	mov    %rax,-0x1678(%rbp)
   15919:	48 c7 85 90 e9 ff ff 	movq   $0x0,-0x1670(%rbp)
   15920:	00 00 00 00 
   15924:	c7 85 38 e6 ff ff 05 	movl   $0x5,-0x19c8(%rbp)
   1592b:	00 00 00 
   1592e:	66 c7 85 ec e5 ff ff 	movw   $0x8,-0x1a14(%rbp)
   15935:	08 00 
   15937:	c6 85 e4 e5 ff ff ff 	movb   $0xff,-0x1a1c(%rbp)
   1593e:	66 c7 85 fe e5 ff ff 	movw   $0x0,-0x1a02(%rbp)
   15945:	00 00 
   15947:	c7 85 58 e6 ff ff 09 	movl   $0x9,-0x19a8(%rbp)
   1594e:	00 00 00 
   15951:	c7 85 50 e6 ff ff 00 	movl   $0x0,-0x19b0(%rbp)
   15958:	00 00 00 
   1595b:	eb 42                	jmp    1599f <func_48+0x3734>
   1595d:	c7 85 54 e6 ff ff 00 	movl   $0x0,-0x19ac(%rbp)
   15964:	00 00 00 
   15967:	eb 26                	jmp    1598f <func_48+0x3724>
   15969:	8b 85 54 e6 ff ff    	mov    -0x19ac(%rbp),%eax
   1596f:	48 63 d0             	movslq %eax,%rdx
   15972:	8b 85 50 e6 ff ff    	mov    -0x19b0(%rbp),%eax
   15978:	48 98                	cltq   
   1597a:	48 01 d0             	add    %rdx,%rax
   1597d:	c7 84 85 20 ec ff ff 	movl   $0x0,-0x13e0(%rbp,%rax,4)
   15984:	00 00 00 00 
   15988:	83 85 54 e6 ff ff 01 	addl   $0x1,-0x19ac(%rbp)
   1598f:	83 bd 54 e6 ff ff 00 	cmpl   $0x0,-0x19ac(%rbp)
   15996:	7e d1                	jle    15969 <func_48+0x36fe>
   15998:	83 85 50 e6 ff ff 01 	addl   $0x1,-0x19b0(%rbp)
   1599f:	83 bd 50 e6 ff ff 04 	cmpl   $0x4,-0x19b0(%rbp)
   159a6:	7e b5                	jle    1595d <func_48+0x36f2>
   159a8:	48 8b 85 88 e9 ff ff 	mov    -0x1678(%rbp),%rax
   159af:	48 89 85 a0 e7 ff ff 	mov    %rax,-0x1860(%rbp)
   159b6:	c7 85 10 e6 ff ff 00 	movl   $0x0,-0x19f0(%rbp)
   159bd:	00 00 00 
   159c0:	e9 f0 12 00 00       	jmpq   16cb5 <func_48+0x4a4a>
   159c5:	c6 85 e5 e5 ff ff 19 	movb   $0x19,-0x1a1b(%rbp)
   159cc:	c7 85 3c e6 ff ff 05 	movl   $0x5,-0x19c4(%rbp)
   159d3:	00 00 00 
   159d6:	c7 85 40 e6 ff ff e9 	movl   $0x4c0623e9,-0x19c0(%rbp)
   159dd:	23 06 4c 
   159e0:	c7 85 44 e6 ff ff 00 	movl   $0x0,-0x19bc(%rbp)
   159e7:	00 00 00 
   159ea:	c7 85 00 e7 ff ff 04 	movl   $0xb2ed2404,-0x1900(%rbp)
   159f1:	24 ed b2 
   159f4:	c7 85 48 e6 ff ff 03 	movl   $0x3,-0x19b8(%rbp)
   159fb:	00 00 00 
   159fe:	c7 85 04 e7 ff ff 07 	movl   $0x7,-0x18fc(%rbp)
   15a05:	00 00 00 
   15a08:	c7 85 08 e8 ff ff 42 	movl   $0x760b0642,-0x17f8(%rbp)
   15a0f:	06 0b 76 
   15a12:	48 8d 85 d0 f5 ff ff 	lea    -0xa30(%rbp),%rax
   15a19:	48 8d 15 00 85 00 00 	lea    0x8500(%rip),%rdx        # 1df20 <g_4277+0x1e60>
   15a20:	b9 5a 00 00 00       	mov    $0x5a,%ecx
   15a25:	48 89 c7             	mov    %rax,%rdi
   15a28:	48 89 d6             	mov    %rdx,%rsi
   15a2b:	f3 48 a5             	rep movsq %ds:(%rsi),%es:(%rdi)
   15a2e:	c7 85 08 e7 ff ff 04 	movl   $0x4,-0x18f8(%rbp)
   15a35:	00 00 00 
   15a38:	48 c7 85 d8 e9 ff ff 	movq   $0x0,-0x1628(%rbp)
   15a3f:	00 00 00 00 
   15a43:	48 c7 85 e0 e9 ff ff 	movq   $0x0,-0x1620(%rbp)
   15a4a:	00 00 00 00 
   15a4e:	48 8d 05 63 d2 00 00 	lea    0xd263(%rip),%rax        # 22cb8 <g_1128+0x78>
   15a55:	48 89 85 e8 e9 ff ff 	mov    %rax,-0x1618(%rbp)
   15a5c:	48 c7 85 f0 e9 ff ff 	movq   $0x0,-0x1610(%rbp)
   15a63:	00 00 00 00 
   15a67:	48 8d 85 24 e6 ff ff 	lea    -0x19dc(%rbp),%rax
   15a6e:	48 89 85 f8 e9 ff ff 	mov    %rax,-0x1608(%rbp)
   15a75:	48 8d 85 d0 f5 ff ff 	lea    -0xa30(%rbp),%rax
   15a7c:	48 05 88 00 00 00    	add    $0x88,%rax
   15a82:	48 89 85 00 ea ff ff 	mov    %rax,-0x1600(%rbp)
   15a89:	48 8d 85 d0 f5 ff ff 	lea    -0xa30(%rbp),%rax
   15a90:	48 05 68 01 00 00    	add    $0x168,%rax
   15a96:	48 89 85 08 ea ff ff 	mov    %rax,-0x15f8(%rbp)
   15a9d:	48 8d 85 44 e6 ff ff 	lea    -0x19bc(%rbp),%rax
   15aa4:	48 89 85 10 ea ff ff 	mov    %rax,-0x15f0(%rbp)
   15aab:	48 8d 85 08 e8 ff ff 	lea    -0x17f8(%rbp),%rax
   15ab2:	48 89 85 18 ea ff ff 	mov    %rax,-0x15e8(%rbp)
   15ab9:	48 8d 85 3c e6 ff ff 	lea    -0x19c4(%rbp),%rax
   15ac0:	48 89 85 20 ea ff ff 	mov    %rax,-0x15e0(%rbp)
   15ac7:	48 8d 85 20 ec ff ff 	lea    -0x13e0(%rbp),%rax
   15ace:	48 89 85 28 ea ff ff 	mov    %rax,-0x15d8(%rbp)
   15ad5:	48 8d 05 2c cf 00 00 	lea    0xcf2c(%rip),%rax        # 22a08 <g_126>
   15adc:	48 89 85 30 ea ff ff 	mov    %rax,-0x15d0(%rbp)
   15ae3:	48 8d 85 d0 f5 ff ff 	lea    -0xa30(%rbp),%rax
   15aea:	48 05 90 01 00 00    	add    $0x190,%rax
   15af0:	48 89 85 38 ea ff ff 	mov    %rax,-0x15c8(%rbp)
   15af7:	48 8d 05 86 d1 00 00 	lea    0xd186(%rip),%rax        # 22c84 <g_1128+0x44>
   15afe:	48 89 85 40 ea ff ff 	mov    %rax,-0x15c0(%rbp)
   15b05:	48 c7 85 48 ea ff ff 	movq   $0x0,-0x15b8(%rbp)
   15b0c:	00 00 00 00 
   15b10:	48 8d 85 48 e6 ff ff 	lea    -0x19b8(%rbp),%rax
   15b17:	48 89 85 a0 f0 ff ff 	mov    %rax,-0xf60(%rbp)
   15b1e:	48 8d 85 48 e6 ff ff 	lea    -0x19b8(%rbp),%rax
   15b25:	48 89 85 a8 f0 ff ff 	mov    %rax,-0xf58(%rbp)
   15b2c:	48 8d 85 48 e6 ff ff 	lea    -0x19b8(%rbp),%rax
   15b33:	48 89 85 b0 f0 ff ff 	mov    %rax,-0xf50(%rbp)
   15b3a:	48 8d 85 48 e6 ff ff 	lea    -0x19b8(%rbp),%rax
   15b41:	48 89 85 b8 f0 ff ff 	mov    %rax,-0xf48(%rbp)
   15b48:	48 8d 85 48 e6 ff ff 	lea    -0x19b8(%rbp),%rax
   15b4f:	48 89 85 c0 f0 ff ff 	mov    %rax,-0xf40(%rbp)
   15b56:	48 8d 85 48 e6 ff ff 	lea    -0x19b8(%rbp),%rax
   15b5d:	48 89 85 c8 f0 ff ff 	mov    %rax,-0xf38(%rbp)
   15b64:	48 8d 85 48 e6 ff ff 	lea    -0x19b8(%rbp),%rax
   15b6b:	48 89 85 d0 f0 ff ff 	mov    %rax,-0xf30(%rbp)
   15b72:	48 8d 85 48 e6 ff ff 	lea    -0x19b8(%rbp),%rax
   15b79:	48 89 85 d8 f0 ff ff 	mov    %rax,-0xf28(%rbp)
   15b80:	48 8d 85 48 e6 ff ff 	lea    -0x19b8(%rbp),%rax
   15b87:	48 89 85 e0 f0 ff ff 	mov    %rax,-0xf20(%rbp)
   15b8e:	48 8d 85 48 e6 ff ff 	lea    -0x19b8(%rbp),%rax
   15b95:	48 89 85 e8 f0 ff ff 	mov    %rax,-0xf18(%rbp)
   15b9c:	48 8d 85 48 e6 ff ff 	lea    -0x19b8(%rbp),%rax
   15ba3:	48 89 85 f0 f0 ff ff 	mov    %rax,-0xf10(%rbp)
   15baa:	48 8d 85 48 e6 ff ff 	lea    -0x19b8(%rbp),%rax
   15bb1:	48 89 85 f8 f0 ff ff 	mov    %rax,-0xf08(%rbp)
   15bb8:	48 8d 85 48 e6 ff ff 	lea    -0x19b8(%rbp),%rax
   15bbf:	48 89 85 00 f1 ff ff 	mov    %rax,-0xf00(%rbp)
   15bc6:	48 8d 85 48 e6 ff ff 	lea    -0x19b8(%rbp),%rax
   15bcd:	48 89 85 08 f1 ff ff 	mov    %rax,-0xef8(%rbp)
   15bd4:	48 8d 85 48 e6 ff ff 	lea    -0x19b8(%rbp),%rax
   15bdb:	48 89 85 10 f1 ff ff 	mov    %rax,-0xef0(%rbp)
   15be2:	48 8d 85 48 e6 ff ff 	lea    -0x19b8(%rbp),%rax
   15be9:	48 89 85 18 f1 ff ff 	mov    %rax,-0xee8(%rbp)
   15bf0:	48 8d 85 48 e6 ff ff 	lea    -0x19b8(%rbp),%rax
   15bf7:	48 89 85 20 f1 ff ff 	mov    %rax,-0xee0(%rbp)
   15bfe:	48 8d 85 48 e6 ff ff 	lea    -0x19b8(%rbp),%rax
   15c05:	48 89 85 28 f1 ff ff 	mov    %rax,-0xed8(%rbp)
   15c0c:	48 8d 85 48 e6 ff ff 	lea    -0x19b8(%rbp),%rax
   15c13:	48 89 85 30 f1 ff ff 	mov    %rax,-0xed0(%rbp)
   15c1a:	48 8d 85 48 e6 ff ff 	lea    -0x19b8(%rbp),%rax
   15c21:	48 89 85 38 f1 ff ff 	mov    %rax,-0xec8(%rbp)
   15c28:	48 8d 85 48 e6 ff ff 	lea    -0x19b8(%rbp),%rax
   15c2f:	48 89 85 40 f1 ff ff 	mov    %rax,-0xec0(%rbp)
   15c36:	48 8d 85 48 e6 ff ff 	lea    -0x19b8(%rbp),%rax
   15c3d:	48 89 85 48 f1 ff ff 	mov    %rax,-0xeb8(%rbp)
   15c44:	48 8d 85 48 e6 ff ff 	lea    -0x19b8(%rbp),%rax
   15c4b:	48 89 85 50 f1 ff ff 	mov    %rax,-0xeb0(%rbp)
   15c52:	48 8d 85 48 e6 ff ff 	lea    -0x19b8(%rbp),%rax
   15c59:	48 89 85 58 f1 ff ff 	mov    %rax,-0xea8(%rbp)
   15c60:	48 8d 85 48 e6 ff ff 	lea    -0x19b8(%rbp),%rax
   15c67:	48 89 85 60 f1 ff ff 	mov    %rax,-0xea0(%rbp)
   15c6e:	48 8d 85 48 e6 ff ff 	lea    -0x19b8(%rbp),%rax
   15c75:	48 89 85 68 f1 ff ff 	mov    %rax,-0xe98(%rbp)
   15c7c:	48 8d 85 48 e6 ff ff 	lea    -0x19b8(%rbp),%rax
   15c83:	48 89 85 70 f1 ff ff 	mov    %rax,-0xe90(%rbp)
   15c8a:	48 8d 85 48 e6 ff ff 	lea    -0x19b8(%rbp),%rax
   15c91:	48 89 85 78 f1 ff ff 	mov    %rax,-0xe88(%rbp)
   15c98:	48 8d 85 48 e6 ff ff 	lea    -0x19b8(%rbp),%rax
   15c9f:	48 89 85 80 f1 ff ff 	mov    %rax,-0xe80(%rbp)
   15ca6:	48 8d 85 48 e6 ff ff 	lea    -0x19b8(%rbp),%rax
   15cad:	48 89 85 88 f1 ff ff 	mov    %rax,-0xe78(%rbp)
   15cb4:	48 8d 85 48 e6 ff ff 	lea    -0x19b8(%rbp),%rax
   15cbb:	48 89 85 90 f1 ff ff 	mov    %rax,-0xe70(%rbp)
   15cc2:	48 8d 85 48 e6 ff ff 	lea    -0x19b8(%rbp),%rax
   15cc9:	48 89 85 98 f1 ff ff 	mov    %rax,-0xe68(%rbp)
   15cd0:	48 8d 85 48 e6 ff ff 	lea    -0x19b8(%rbp),%rax
   15cd7:	48 89 85 a0 f1 ff ff 	mov    %rax,-0xe60(%rbp)
   15cde:	48 8d 85 48 e6 ff ff 	lea    -0x19b8(%rbp),%rax
   15ce5:	48 89 85 a8 f1 ff ff 	mov    %rax,-0xe58(%rbp)
   15cec:	48 8d 85 48 e6 ff ff 	lea    -0x19b8(%rbp),%rax
   15cf3:	48 89 85 b0 f1 ff ff 	mov    %rax,-0xe50(%rbp)
   15cfa:	48 8d 85 48 e6 ff ff 	lea    -0x19b8(%rbp),%rax
   15d01:	48 89 85 b8 f1 ff ff 	mov    %rax,-0xe48(%rbp)
   15d08:	48 8d 85 48 e6 ff ff 	lea    -0x19b8(%rbp),%rax
   15d0f:	48 89 85 c0 f1 ff ff 	mov    %rax,-0xe40(%rbp)
   15d16:	48 8d 85 48 e6 ff ff 	lea    -0x19b8(%rbp),%rax
   15d1d:	48 89 85 c8 f1 ff ff 	mov    %rax,-0xe38(%rbp)
   15d24:	48 8d 85 48 e6 ff ff 	lea    -0x19b8(%rbp),%rax
   15d2b:	48 89 85 d0 f1 ff ff 	mov    %rax,-0xe30(%rbp)
   15d32:	48 8d 85 48 e6 ff ff 	lea    -0x19b8(%rbp),%rax
   15d39:	48 89 85 d8 f1 ff ff 	mov    %rax,-0xe28(%rbp)
   15d40:	48 8d 85 48 e6 ff ff 	lea    -0x19b8(%rbp),%rax
   15d47:	48 89 85 e0 f1 ff ff 	mov    %rax,-0xe20(%rbp)
   15d4e:	48 8d 85 48 e6 ff ff 	lea    -0x19b8(%rbp),%rax
   15d55:	48 89 85 e8 f1 ff ff 	mov    %rax,-0xe18(%rbp)
   15d5c:	c6 05 e5 d5 00 00 00 	movb   $0x0,0xd5e5(%rip)        # 23348 <g_1641>
   15d63:	90                   	nop
   15d64:	0f b6 05 dd d5 00 00 	movzbl 0xd5dd(%rip),%eax        # 23348 <g_1641>
   15d6b:	3c 02                	cmp    $0x2,%al
   15d6d:	0f 87 16 06 00 00    	ja     16389 <func_48+0x411e>
   15d73:	c7 85 0c e7 ff ff 00 	movl   $0x0,-0x18f4(%rbp)
   15d7a:	00 00 00 
   15d7d:	48 c7 85 28 e8 ff ff 	movq   $0x2,-0x17d8(%rbp)
   15d84:	02 00 00 00 
   15d88:	eb 5d                	jmp    15de7 <func_48+0x3b7c>
   15d8a:	0f be 95 e5 e5 ff ff 	movsbl -0x1a1b(%rbp),%edx
   15d91:	8b 85 38 e6 ff ff    	mov    -0x19c8(%rbp),%eax
   15d97:	09 d0                	or     %edx,%eax
   15d99:	89 85 38 e6 ff ff    	mov    %eax,-0x19c8(%rbp)
   15d9f:	8b 85 38 e6 ff ff    	mov    -0x19c8(%rbp),%eax
   15da5:	0f be d0             	movsbl %al,%edx
   15da8:	48 8b 85 28 e8 ff ff 	mov    -0x17d8(%rbp),%rax
   15daf:	48 83 c0 03          	add    $0x3,%rax
   15db3:	48 8d 0c 85 00 00 00 	lea    0x0(,%rax,4),%rcx
   15dba:	00 
   15dbb:	48 8d 05 ae cc 00 00 	lea    0xccae(%rip),%rax        # 22a70 <g_445>
   15dc2:	8b 04 01             	mov    (%rcx,%rax,1),%eax
   15dc5:	0f be c0             	movsbl %al,%eax
   15dc8:	89 d6                	mov    %edx,%esi
   15dca:	89 c7                	mov    %eax,%edi
   15dcc:	e8 21 24 ff ff       	callq  81f2 <safe_sub_func_int8_t_s_s>
   15dd1:	89 c2                	mov    %eax,%edx
   15dd3:	48 8b 05 0e eb 00 00 	mov    0xeb0e(%rip),%rax        # 248e8 <g_451>
   15dda:	0f be d2             	movsbl %dl,%edx
   15ddd:	89 10                	mov    %edx,(%rax)
   15ddf:	48 83 ad 28 e8 ff ff 	subq   $0x1,-0x17d8(%rbp)
   15de6:	01 
   15de7:	48 83 bd 28 e8 ff ff 	cmpq   $0x0,-0x17d8(%rbp)
   15dee:	00 
   15def:	79 99                	jns    15d8a <func_48+0x3b1f>
   15df1:	48 8b 85 78 e7 ff ff 	mov    -0x1888(%rbp),%rax
   15df8:	48 8b 00             	mov    (%rax),%rax
   15dfb:	48 8b 00             	mov    (%rax),%rax
   15dfe:	48 8b 00             	mov    (%rax),%rax
   15e01:	48 8b 10             	mov    (%rax),%rdx
   15e04:	48 83 ea 01          	sub    $0x1,%rdx
   15e08:	48 89 10             	mov    %rdx,(%rax)
   15e0b:	48 8b 00             	mov    (%rax),%rax
   15e0e:	48 89 c6             	mov    %rax,%rsi
   15e11:	48 c7 c7 ff ff ff ff 	mov    $0xffffffffffffffff,%rdi
   15e18:	e8 63 32 ff ff       	callq  9080 <safe_mod_func_uint64_t_u_u>
   15e1d:	48 85 c0             	test   %rax,%rax
   15e20:	0f 84 a8 02 00 00    	je     160ce <func_48+0x3e63>
   15e26:	48 8d 85 e8 eb ff ff 	lea    -0x1418(%rbp),%rax
   15e2d:	48 89 85 10 e8 ff ff 	mov    %rax,-0x17f0(%rbp)
   15e34:	48 8d 85 10 e8 ff ff 	lea    -0x17f0(%rbp),%rax
   15e3b:	48 89 85 18 e8 ff ff 	mov    %rax,-0x17e8(%rbp)
   15e42:	48 c7 85 a0 f8 ff ff 	movq   $0x0,-0x760(%rbp)
   15e49:	00 00 00 00 
   15e4d:	48 c7 85 a8 f8 ff ff 	movq   $0x0,-0x758(%rbp)
   15e54:	00 00 00 00 
   15e58:	48 c7 85 b0 f8 ff ff 	movq   $0x0,-0x750(%rbp)
   15e5f:	00 00 00 00 
   15e63:	48 c7 85 b8 f8 ff ff 	movq   $0x0,-0x748(%rbp)
   15e6a:	00 00 00 00 
   15e6e:	48 c7 85 c0 f8 ff ff 	movq   $0x0,-0x740(%rbp)
   15e75:	00 00 00 00 
   15e79:	48 8d 85 18 e8 ff ff 	lea    -0x17e8(%rbp),%rax
   15e80:	48 89 85 c8 f8 ff ff 	mov    %rax,-0x738(%rbp)
   15e87:	48 8d 85 18 e8 ff ff 	lea    -0x17e8(%rbp),%rax
   15e8e:	48 89 85 d0 f8 ff ff 	mov    %rax,-0x730(%rbp)
   15e95:	48 8d 85 18 e8 ff ff 	lea    -0x17e8(%rbp),%rax
   15e9c:	48 89 85 d8 f8 ff ff 	mov    %rax,-0x728(%rbp)
   15ea3:	48 8d 85 18 e8 ff ff 	lea    -0x17e8(%rbp),%rax
   15eaa:	48 89 85 e0 f8 ff ff 	mov    %rax,-0x720(%rbp)
   15eb1:	48 8d 85 18 e8 ff ff 	lea    -0x17e8(%rbp),%rax
   15eb8:	48 89 85 e8 f8 ff ff 	mov    %rax,-0x718(%rbp)
   15ebf:	48 c7 85 f0 f8 ff ff 	movq   $0x0,-0x710(%rbp)
   15ec6:	00 00 00 00 
   15eca:	48 c7 85 f8 f8 ff ff 	movq   $0x0,-0x708(%rbp)
   15ed1:	00 00 00 00 
   15ed5:	48 c7 85 00 f9 ff ff 	movq   $0x0,-0x700(%rbp)
   15edc:	00 00 00 00 
   15ee0:	48 c7 85 08 f9 ff ff 	movq   $0x0,-0x6f8(%rbp)
   15ee7:	00 00 00 00 
   15eeb:	48 c7 85 10 f9 ff ff 	movq   $0x0,-0x6f0(%rbp)
   15ef2:	00 00 00 00 
   15ef6:	48 8d 85 18 e8 ff ff 	lea    -0x17e8(%rbp),%rax
   15efd:	48 89 85 18 f9 ff ff 	mov    %rax,-0x6e8(%rbp)
   15f04:	48 8d 85 18 e8 ff ff 	lea    -0x17e8(%rbp),%rax
   15f0b:	48 89 85 20 f9 ff ff 	mov    %rax,-0x6e0(%rbp)
   15f12:	48 8d 85 18 e8 ff ff 	lea    -0x17e8(%rbp),%rax
   15f19:	48 89 85 28 f9 ff ff 	mov    %rax,-0x6d8(%rbp)
   15f20:	48 8d 85 18 e8 ff ff 	lea    -0x17e8(%rbp),%rax
   15f27:	48 89 85 30 f9 ff ff 	mov    %rax,-0x6d0(%rbp)
   15f2e:	48 8d 85 18 e8 ff ff 	lea    -0x17e8(%rbp),%rax
   15f35:	48 89 85 38 f9 ff ff 	mov    %rax,-0x6c8(%rbp)
   15f3c:	48 c7 85 40 f9 ff ff 	movq   $0x0,-0x6c0(%rbp)
   15f43:	00 00 00 00 
   15f47:	48 c7 85 48 f9 ff ff 	movq   $0x0,-0x6b8(%rbp)
   15f4e:	00 00 00 00 
   15f52:	48 c7 85 50 f9 ff ff 	movq   $0x0,-0x6b0(%rbp)
   15f59:	00 00 00 00 
   15f5d:	48 c7 85 58 f9 ff ff 	movq   $0x0,-0x6a8(%rbp)
   15f64:	00 00 00 00 
   15f68:	48 c7 85 60 f9 ff ff 	movq   $0x0,-0x6a0(%rbp)
   15f6f:	00 00 00 00 
   15f73:	48 8d 85 18 e8 ff ff 	lea    -0x17e8(%rbp),%rax
   15f7a:	48 89 85 68 f9 ff ff 	mov    %rax,-0x698(%rbp)
   15f81:	48 8d 85 18 e8 ff ff 	lea    -0x17e8(%rbp),%rax
   15f88:	48 89 85 70 f9 ff ff 	mov    %rax,-0x690(%rbp)
   15f8f:	48 8d 85 18 e8 ff ff 	lea    -0x17e8(%rbp),%rax
   15f96:	48 89 85 78 f9 ff ff 	mov    %rax,-0x688(%rbp)
   15f9d:	48 8d 85 18 e8 ff ff 	lea    -0x17e8(%rbp),%rax
   15fa4:	48 89 85 80 f9 ff ff 	mov    %rax,-0x680(%rbp)
   15fab:	48 8d 85 18 e8 ff ff 	lea    -0x17e8(%rbp),%rax
   15fb2:	48 89 85 88 f9 ff ff 	mov    %rax,-0x678(%rbp)
   15fb9:	48 8b 85 18 e8 ff ff 	mov    -0x17e8(%rbp),%rax
   15fc0:	48 89 05 09 ee 00 00 	mov    %rax,0xee09(%rip)        # 24dd0 <g_1699>
   15fc7:	48 8b 05 02 ee 00 00 	mov    0xee02(%rip),%rax        # 24dd0 <g_1699>
   15fce:	48 85 c0             	test   %rax,%rax
   15fd1:	0f 95 c0             	setne  %al
   15fd4:	0f b6 c8             	movzbl %al,%ecx
   15fd7:	8b 85 cc e5 ff ff    	mov    -0x1a34(%rbp),%eax
   15fdd:	48 63 d0             	movslq %eax,%rdx
   15fe0:	48 8b 05 c1 ea 00 00 	mov    0xeac1(%rip),%rax        # 24aa8 <g_725>
   15fe7:	48 8b 00             	mov    (%rax),%rax
   15fea:	48 8b 30             	mov    (%rax),%rsi
   15fed:	48 63 c9             	movslq %ecx,%rcx
   15ff0:	48 8b 05 b1 ea 00 00 	mov    0xeab1(%rip),%rax        # 24aa8 <g_725>
   15ff7:	48 8b 00             	mov    (%rax),%rax
   15ffa:	48 09 f1             	or     %rsi,%rcx
   15ffd:	48 89 08             	mov    %rcx,(%rax)
   16000:	48 8b 00             	mov    (%rax),%rax
   16003:	48 39 c2             	cmp    %rax,%rdx
   16006:	0f 96 c0             	setbe  %al
   16009:	0f b6 d8             	movzbl %al,%ebx
   1600c:	8b 85 cc e5 ff ff    	mov    -0x1a34(%rbp),%eax
   16012:	0f b7 c0             	movzwl %ax,%eax
   16015:	be 08 00 00 00       	mov    $0x8,%esi
   1601a:	89 c7                	mov    %eax,%edi
   1601c:	e8 e5 2d ff ff       	callq  8e06 <safe_lshift_func_uint16_t_u_u>
   16021:	0f b7 d0             	movzwl %ax,%edx
   16024:	83 bd 0c e7 ff ff 00 	cmpl   $0x0,-0x18f4(%rbp)
   1602b:	74 1d                	je     1604a <func_48+0x3ddf>
   1602d:	48 8b 85 78 e7 ff ff 	mov    -0x1888(%rbp),%rax
   16034:	48 8b 00             	mov    (%rax),%rax
   16037:	48 8d 0d 6a ea 00 00 	lea    0xea6a(%rip),%rcx        # 24aa8 <g_725>
   1603e:	48 39 c8             	cmp    %rcx,%rax
   16041:	74 07                	je     1604a <func_48+0x3ddf>
   16043:	b8 01 00 00 00       	mov    $0x1,%eax
   16048:	eb 05                	jmp    1604f <func_48+0x3de4>
   1604a:	b8 00 00 00 00       	mov    $0x0,%eax
   1604f:	21 d0                	and    %edx,%eax
   16051:	39 c3                	cmp    %eax,%ebx
   16053:	0f 9f c0             	setg   %al
   16056:	0f b6 d0             	movzbl %al,%edx
   16059:	8b 85 cc e5 ff ff    	mov    -0x1a34(%rbp),%eax
   1605f:	89 85 3c e6 ff ff    	mov    %eax,-0x19c4(%rbp)
   16065:	8b 85 3c e6 ff ff    	mov    -0x19c4(%rbp),%eax
   1606b:	89 85 40 e6 ff ff    	mov    %eax,-0x19c0(%rbp)
   16071:	8b 85 40 e6 ff ff    	mov    -0x19c0(%rbp),%eax
   16077:	0f b6 c0             	movzbl %al,%eax
   1607a:	89 d6                	mov    %edx,%esi
   1607c:	89 c7                	mov    %eax,%edi
   1607e:	e8 c9 2b ff ff       	callq  8c4c <safe_lshift_func_uint8_t_u_u>
   16083:	b9 01 00 00 00       	mov    $0x1,%ecx
   16088:	48 8b 05 59 e8 00 00 	mov    0xe859(%rip),%rax        # 248e8 <g_451>
   1608f:	8b 10                	mov    (%rax),%edx
   16091:	48 8b 05 50 e8 00 00 	mov    0xe850(%rip),%rax        # 248e8 <g_451>
   16098:	21 ca                	and    %ecx,%edx
   1609a:	89 10                	mov    %edx,(%rax)
   1609c:	48 8b 85 58 e7 ff ff 	mov    -0x18a8(%rbp),%rax
   160a3:	48 8d 95 3c e6 ff ff 	lea    -0x19c4(%rbp),%rdx
   160aa:	48 89 10             	mov    %rdx,(%rax)
   160ad:	48 8b 05 34 e8 00 00 	mov    0xe834(%rip),%rax        # 248e8 <g_451>
   160b4:	8b 95 0c e7 ff ff    	mov    -0x18f4(%rbp),%edx
   160ba:	89 10                	mov    %edx,(%rax)
   160bc:	83 bd 0c e7 ff ff 00 	cmpl   $0x0,-0x18f4(%rbp)
   160c3:	0f 84 b3 02 00 00    	je     1637c <func_48+0x4111>
   160c9:	e9 bb 02 00 00       	jmpq   16389 <func_48+0x411e>
   160ce:	66 c7 85 00 e6 ff ff 	movw   $0x1,-0x1a00(%rbp)
   160d5:	01 00 
   160d7:	c7 85 10 e7 ff ff f7 	movl   $0xfffffff7,-0x18f0(%rbp)
   160de:	ff ff ff 
   160e1:	c7 85 14 e7 ff ff f8 	movl   $0xfffffff8,-0x18ec(%rbp)
   160e8:	ff ff ff 
   160eb:	48 c7 85 a0 f8 ff ff 	movq   $0x0,-0x760(%rbp)
   160f2:	00 00 00 00 
   160f6:	48 c7 85 a8 f8 ff ff 	movq   $0x0,-0x758(%rbp)
   160fd:	00 00 00 00 
   16101:	48 c7 85 b0 f8 ff ff 	movq   $0x0,-0x750(%rbp)
   16108:	00 00 00 00 
   1610c:	48 c7 85 b8 f8 ff ff 	movq   $0x0,-0x748(%rbp)
   16113:	00 00 00 00 
   16117:	48 c7 85 c0 f8 ff ff 	movq   $0x0,-0x740(%rbp)
   1611e:	00 00 00 00 
   16122:	48 c7 85 c8 f8 ff ff 	movq   $0x0,-0x738(%rbp)
   16129:	00 00 00 00 
   1612d:	48 c7 85 d0 f8 ff ff 	movq   $0x0,-0x730(%rbp)
   16134:	00 00 00 00 
   16138:	48 8d 85 40 e6 ff ff 	lea    -0x19c0(%rbp),%rax
   1613f:	48 89 85 50 ea ff ff 	mov    %rax,-0x15b0(%rbp)
   16146:	c7 85 4c e6 ff ff 00 	movl   $0x0,-0x19b4(%rbp)
   1614d:	00 00 00 
   16150:	eb 1b                	jmp    1616d <func_48+0x3f02>
   16152:	8b 85 4c e6 ff ff    	mov    -0x19b4(%rbp),%eax
   16158:	48 98                	cltq   
   1615a:	48 c7 84 c5 30 ed ff 	movq   $0x0,-0x12d0(%rbp,%rax,8)
   16161:	ff 00 00 00 00 
   16166:	83 85 4c e6 ff ff 01 	addl   $0x1,-0x19b4(%rbp)
   1616d:	83 bd 4c e6 ff ff 00 	cmpl   $0x0,-0x19b4(%rbp)
   16174:	7e dc                	jle    16152 <func_48+0x3ee7>
   16176:	48 8b 05 2b e9 00 00 	mov    0xe92b(%rip),%rax        # 24aa8 <g_725>
   1617d:	48 8b 00             	mov    (%rax),%rax
   16180:	48 8b 00             	mov    (%rax),%rax
   16183:	49 89 c5             	mov    %rax,%r13
   16186:	48 8b 05 5b e7 00 00 	mov    0xe75b(%rip),%rax        # 248e8 <g_451>
   1618d:	8b 95 cc e5 ff ff    	mov    -0x1a34(%rbp),%edx
   16193:	89 10                	mov    %edx,(%rax)
   16195:	8b 00                	mov    (%rax),%eax
   16197:	85 c0                	test   %eax,%eax
   16199:	74 10                	je     161ab <func_48+0x3f40>
   1619b:	83 bd cc e5 ff ff 00 	cmpl   $0x0,-0x1a34(%rbp)
   161a2:	74 07                	je     161ab <func_48+0x3f40>
   161a4:	b8 01 00 00 00       	mov    $0x1,%eax
   161a9:	eb 05                	jmp    161b0 <func_48+0x3f45>
   161ab:	b8 00 00 00 00       	mov    $0x0,%eax
   161b0:	89 85 38 e6 ff ff    	mov    %eax,-0x19c8(%rbp)
   161b6:	8b 85 38 e6 ff ff    	mov    -0x19c8(%rbp),%eax
   161bc:	0f b7 d0             	movzwl %ax,%edx
   161bf:	0f b7 85 00 e6 ff ff 	movzwl -0x1a00(%rbp),%eax
   161c6:	0f b7 c0             	movzwl %ax,%eax
   161c9:	89 d6                	mov    %edx,%esi
   161cb:	89 c7                	mov    %eax,%edi
   161cd:	e8 2d 2b ff ff       	callq  8cff <safe_add_func_uint16_t_u_u>
   161d2:	44 0f b7 e0          	movzwl %ax,%r12d
   161d6:	48 8b 05 73 c8 00 00 	mov    0xc873(%rip),%rax        # 22a50 <g_232>
   161dd:	0f bf d8             	movswl %ax,%ebx
   161e0:	83 bd 0c e7 ff ff 00 	cmpl   $0x0,-0x18f4(%rbp)
   161e7:	0f 85 ec 00 00 00    	jne    162d9 <func_48+0x406e>
   161ed:	83 bd cc e5 ff ff 00 	cmpl   $0x0,-0x1a34(%rbp)
   161f4:	0f 85 df 00 00 00    	jne    162d9 <func_48+0x406e>
   161fa:	48 8b 05 9f e8 00 00 	mov    0xe89f(%rip),%rax        # 24aa0 <g_726>
   16201:	48 8b 00             	mov    (%rax),%rax
   16204:	49 89 c6             	mov    %rax,%r14
   16207:	8b 85 2c ec ff ff    	mov    -0x13d4(%rbp),%eax
   1620d:	83 c8 fe             	or     $0xfffffffe,%eax
   16210:	89 85 10 e7 ff ff    	mov    %eax,-0x18f0(%rbp)
   16216:	8b 85 10 e7 ff ff    	mov    -0x18f0(%rbp),%eax
   1621c:	0f be c0             	movsbl %al,%eax
   1621f:	be 05 00 00 00       	mov    $0x5,%esi
   16224:	89 c7                	mov    %eax,%edi
   16226:	e8 c3 20 ff ff       	callq  82ee <safe_lshift_func_int8_t_s_u>
   1622b:	0f be c0             	movsbl %al,%eax
   1622e:	89 85 14 e7 ff ff    	mov    %eax,-0x18ec(%rbp)
   16234:	48 8b 85 c8 f8 ff ff 	mov    -0x738(%rbp),%rax
   1623b:	48 85 c0             	test   %rax,%rax
   1623e:	0f 95 c0             	setne  %al
   16241:	0f b6 c0             	movzbl %al,%eax
   16244:	39 85 cc e5 ff ff    	cmp    %eax,-0x1a34(%rbp)
   1624a:	0f 9d c0             	setge  %al
   1624d:	0f b6 c0             	movzbl %al,%eax
   16250:	23 85 cc e5 ff ff    	and    -0x1a34(%rbp),%eax
   16256:	48 63 d0             	movslq %eax,%rdx
   16259:	8b 85 0c e7 ff ff    	mov    -0x18f4(%rbp),%eax
   1625f:	48 89 d6             	mov    %rdx,%rsi
   16262:	48 89 c7             	mov    %rax,%rdi
   16265:	e8 8d 27 ff ff       	callq  89f7 <safe_div_func_int64_t_s_s>
   1626a:	4c 89 f6             	mov    %r14,%rsi
   1626d:	48 bf 86 a2 3e e9 4c 	movabs $0x43efd64ce93ea286,%rdi
   16274:	d6 ef 43 
   16277:	e8 2c 26 ff ff       	callq  88a8 <safe_sub_func_int64_t_s_s>
   1627c:	48 0f be 95 e5 e5 ff 	movsbq -0x1a1b(%rbp),%rdx
   16283:	ff 
   16284:	48 39 d0             	cmp    %rdx,%rax
   16287:	7d 07                	jge    16290 <func_48+0x4025>
   16289:	b8 03 00 00 00       	mov    $0x3,%eax
   1628e:	eb 05                	jmp    16295 <func_48+0x402a>
   16290:	b8 02 00 00 00       	mov    $0x2,%eax
   16295:	be 00 00 00 00       	mov    $0x0,%esi
   1629a:	89 c7                	mov    %eax,%edi
   1629c:	e8 ec 29 ff ff       	callq  8c8d <safe_rshift_func_uint8_t_u_s>
   162a1:	0f b6 c0             	movzbl %al,%eax
   162a4:	f7 d0                	not    %eax
   162a6:	39 85 cc e5 ff ff    	cmp    %eax,-0x1a34(%rbp)
   162ac:	0f 9e c0             	setle  %al
   162af:	0f b6 c0             	movzbl %al,%eax
   162b2:	89 c6                	mov    %eax,%esi
   162b4:	bf ce af 14 d2       	mov    $0xd214afce,%edi
   162b9:	e8 12 2c ff ff       	callq  8ed0 <safe_sub_func_uint32_t_u_u>
   162be:	89 c2                	mov    %eax,%edx
   162c0:	48 8b 85 48 e9 ff ff 	mov    -0x16b8(%rbp),%rax
   162c7:	48 89 10             	mov    %rdx,(%rax)
   162ca:	48 8b 85 48 e9 ff ff 	mov    -0x16b8(%rbp),%rax
   162d1:	48 8b 00             	mov    (%rax),%rax
   162d4:	48 85 c0             	test   %rax,%rax
   162d7:	74 07                	je     162e0 <func_48+0x4075>
   162d9:	b8 01 00 00 00       	mov    $0x1,%eax
   162de:	eb 05                	jmp    162e5 <func_48+0x407a>
   162e0:	b8 00 00 00 00       	mov    $0x0,%eax
   162e5:	98                   	cwtl   
   162e6:	89 de                	mov    %ebx,%esi
   162e8:	89 c7                	mov    %eax,%edi
   162ea:	e8 66 21 ff ff       	callq  8455 <safe_div_func_int16_t_s_s>
   162ef:	98                   	cwtl   
   162f0:	44 31 e0             	xor    %r12d,%eax
   162f3:	48 98                	cltq   
   162f5:	25 76 c7 00 00       	and    $0xc776,%eax
   162fa:	48 89 c2             	mov    %rax,%rdx
   162fd:	8b 85 2c ec ff ff    	mov    -0x13d4(%rbp),%eax
   16303:	48 98                	cltq   
   16305:	48 39 c2             	cmp    %rax,%rdx
   16308:	0f 9e c0             	setle  %al
   1630b:	0f b6 c0             	movzbl %al,%eax
   1630e:	be 43 00 00 00       	mov    $0x43,%esi
   16313:	89 c7                	mov    %eax,%edi
   16315:	e8 79 28 ff ff       	callq  8b93 <safe_mul_func_uint8_t_u_u>
   1631a:	84 c0                	test   %al,%al
   1631c:	74 16                	je     16334 <func_48+0x40c9>
   1631e:	48 8b 05 7b e7 00 00 	mov    0xe77b(%rip),%rax        # 24aa0 <g_726>
   16325:	48 8b 00             	mov    (%rax),%rax
   16328:	48 85 c0             	test   %rax,%rax
   1632b:	74 07                	je     16334 <func_48+0x40c9>
   1632d:	b8 01 00 00 00       	mov    $0x1,%eax
   16332:	eb 05                	jmp    16339 <func_48+0x40ce>
   16334:	b8 00 00 00 00       	mov    $0x0,%eax
   16339:	48 98                	cltq   
   1633b:	4c 89 ee             	mov    %r13,%rsi
   1633e:	48 89 c7             	mov    %rax,%rdi
   16341:	e8 fb 24 ff ff       	callq  8841 <safe_add_func_int64_t_s_s>
   16346:	48 0f bf 95 00 e6 ff 	movswq -0x1a00(%rbp),%rdx
   1634d:	ff 
   1634e:	48 39 d0             	cmp    %rdx,%rax
   16351:	0f 95 c0             	setne  %al
   16354:	0f b6 d0             	movzbl %al,%edx
   16357:	48 8b 85 50 ea ff ff 	mov    -0x15b0(%rbp),%rax
   1635e:	89 10                	mov    %edx,(%rax)
   16360:	48 8b 85 50 ea ff ff 	mov    -0x15b0(%rbp),%rax
   16367:	8b 00                	mov    (%rax),%eax
   16369:	89 85 3c e6 ff ff    	mov    %eax,-0x19c4(%rbp)
   1636f:	8b 85 cc e5 ff ff    	mov    -0x1a34(%rbp),%eax
   16375:	48 98                	cltq   
   16377:	e9 d3 24 00 00       	jmpq   1884f <func_48+0x65e4>
   1637c:	8b 85 cc e5 ff ff    	mov    -0x1a34(%rbp),%eax
   16382:	48 98                	cltq   
   16384:	e9 c6 24 00 00       	jmpq   1884f <func_48+0x65e4>
   16389:	83 bd cc e5 ff ff 00 	cmpl   $0x0,-0x1a34(%rbp)
   16390:	74 23                	je     163b5 <func_48+0x414a>
   16392:	48 8b 05 2f e6 00 00 	mov    0xe62f(%rip),%rax        # 249c8 <g_683>
   16399:	48 8b 00             	mov    (%rax),%rax
   1639c:	48 89 85 58 e9 ff ff 	mov    %rax,-0x16a8(%rbp)
   163a3:	48 8b 05 fe e6 00 00 	mov    0xe6fe(%rip),%rax        # 24aa8 <g_725>
   163aa:	48 8b 00             	mov    (%rax),%rax
   163ad:	48 8b 00             	mov    (%rax),%rax
   163b0:	e9 9a 24 00 00       	jmpq   1884f <func_48+0x65e4>
   163b5:	c7 85 18 e7 ff ff ff 	movl   $0xffffffff,-0x18e8(%rbp)
   163bc:	ff ff ff 
   163bf:	c7 85 1c e7 ff ff cb 	movl   $0xbedae5cb,-0x18e4(%rbp)
   163c6:	e5 da be 
   163c9:	c7 85 20 e7 ff ff 3b 	movl   $0xcb335f3b,-0x18e0(%rbp)
   163d0:	5f 33 cb 
   163d3:	c7 85 24 e7 ff ff 06 	movl   $0x6,-0x18dc(%rbp)
   163da:	00 00 00 
   163dd:	c7 85 28 e7 ff ff 01 	movl   $0x1,-0x18d8(%rbp)
   163e4:	00 00 00 
   163e7:	c7 85 18 e8 ff ff 48 	movl   $0xb11d9348,-0x17e8(%rbp)
   163ee:	93 1d b1 
   163f1:	c6 85 da e5 ff ff b6 	movb   $0xb6,-0x1a26(%rbp)
   163f8:	48 8d 85 88 e7 ff ff 	lea    -0x1878(%rbp),%rax
   163ff:	48 89 85 58 ea ff ff 	mov    %rax,-0x15a8(%rbp)
   16406:	c6 85 e6 e5 ff ff ff 	movb   $0xff,-0x1a1a(%rbp)
   1640d:	c7 85 c0 ec ff ff fe 	movl   $0xf66a20fe,-0x1340(%rbp)
   16414:	20 6a f6 
   16417:	c7 85 c4 ec ff ff fe 	movl   $0xf66a20fe,-0x133c(%rbp)
   1641e:	20 6a f6 
   16421:	c7 85 c8 ec ff ff fe 	movl   $0xf66a20fe,-0x1338(%rbp)
   16428:	20 6a f6 
   1642b:	c7 85 cc ec ff ff fe 	movl   $0xf66a20fe,-0x1334(%rbp)
   16432:	20 6a f6 
   16435:	c7 85 d0 ec ff ff fe 	movl   $0xf66a20fe,-0x1330(%rbp)
   1643c:	20 6a f6 
   1643f:	c7 85 d4 ec ff ff fe 	movl   $0xf66a20fe,-0x132c(%rbp)
   16446:	20 6a f6 
   16449:	c7 85 d8 ec ff ff fe 	movl   $0xf66a20fe,-0x1328(%rbp)
   16450:	20 6a f6 
   16453:	c7 85 dc ec ff ff fe 	movl   $0xf66a20fe,-0x1324(%rbp)
   1645a:	20 6a f6 
   1645d:	c7 85 e0 ec ff ff fe 	movl   $0xf66a20fe,-0x1320(%rbp)
   16464:	20 6a f6 
   16467:	8b 85 28 ec ff ff    	mov    -0x13d8(%rbp),%eax
   1646d:	85 c0                	test   %eax,%eax
   1646f:	0f 84 46 01 00 00    	je     165bb <func_48+0x4350>
   16475:	48 8d 05 08 c8 00 00 	lea    0xc808(%rip),%rax        # 22c84 <g_1128+0x44>
   1647c:	48 89 85 60 ea ff ff 	mov    %rax,-0x15a0(%rbp)
   16483:	48 8d 85 20 ec ff ff 	lea    -0x13e0(%rbp),%rax
   1648a:	48 83 c0 10          	add    $0x10,%rax
   1648e:	48 89 85 68 ea ff ff 	mov    %rax,-0x1598(%rbp)
   16495:	48 c7 85 70 ea ff ff 	movq   $0x0,-0x1590(%rbp)
   1649c:	00 00 00 00 
   164a0:	48 c7 85 78 ea ff ff 	movq   $0x0,-0x1588(%rbp)
   164a7:	00 00 00 00 
   164ab:	48 c7 85 80 ea ff ff 	movq   $0x0,-0x1580(%rbp)
   164b2:	00 00 00 00 
   164b6:	48 8d 85 18 e6 ff ff 	lea    -0x19e8(%rbp),%rax
   164bd:	48 89 85 88 ea ff ff 	mov    %rax,-0x1578(%rbp)
   164c4:	48 c7 85 90 ea ff ff 	movq   $0x0,-0x1570(%rbp)
   164cb:	00 00 00 00 
   164cf:	48 c7 85 98 ea ff ff 	movq   $0x0,-0x1568(%rbp)
   164d6:	00 00 00 00 
   164da:	48 8d 85 38 e6 ff ff 	lea    -0x19c8(%rbp),%rax
   164e1:	48 89 85 a0 ea ff ff 	mov    %rax,-0x1560(%rbp)
   164e8:	66 c7 85 02 e6 ff ff 	movw   $0x9a6,-0x19fe(%rbp)
   164ef:	a6 09 
   164f1:	c7 85 80 e6 ff ff 00 	movl   $0x0,-0x1980(%rbp)
   164f8:	00 00 00 
   164fb:	eb 1b                	jmp    16518 <func_48+0x42ad>
   164fd:	8b 85 80 e6 ff ff    	mov    -0x1980(%rbp),%eax
   16503:	48 98                	cltq   
   16505:	48 c7 84 c5 a0 f8 ff 	movq   $0x0,-0x760(%rbp,%rax,8)
   1650c:	ff 00 00 00 00 
   16511:	83 85 80 e6 ff ff 01 	addl   $0x1,-0x1980(%rbp)
   16518:	83 bd 80 e6 ff ff 02 	cmpl   $0x2,-0x1980(%rbp)
   1651f:	7e dc                	jle    164fd <func_48+0x4292>
   16521:	c7 85 80 e6 ff ff 00 	movl   $0x0,-0x1980(%rbp)
   16528:	00 00 00 
   1652b:	eb 47                	jmp    16574 <func_48+0x4309>
   1652d:	c7 85 84 e6 ff ff 00 	movl   $0x0,-0x197c(%rbp)
   16534:	00 00 00 
   16537:	eb 2b                	jmp    16564 <func_48+0x42f9>
   16539:	8b 85 84 e6 ff ff    	mov    -0x197c(%rbp),%eax
   1653f:	48 63 d0             	movslq %eax,%rdx
   16542:	8b 85 80 e6 ff ff    	mov    -0x1980(%rbp),%eax
   16548:	48 98                	cltq   
   1654a:	48 8d 5d d0          	lea    -0x30(%rbp),%rbx
   1654e:	48 01 da             	add    %rbx,%rdx
   16551:	48 01 d0             	add    %rdx,%rax
   16554:	48 2d a0 12 00 00    	sub    $0x12a0,%rax
   1655a:	c6 00 2e             	movb   $0x2e,(%rax)
   1655d:	83 85 84 e6 ff ff 01 	addl   $0x1,-0x197c(%rbp)
   16564:	83 bd 84 e6 ff ff 00 	cmpl   $0x0,-0x197c(%rbp)
   1656b:	7e cc                	jle    16539 <func_48+0x42ce>
   1656d:	83 85 80 e6 ff ff 01 	addl   $0x1,-0x1980(%rbp)
   16574:	83 bd 80 e6 ff ff 01 	cmpl   $0x1,-0x1980(%rbp)
   1657b:	7e b0                	jle    1652d <func_48+0x42c2>
   1657d:	66 83 85 ec e5 ff ff 	addw   $0x1,-0x1a14(%rbp)
   16584:	01 
   16585:	48 8b 15 3c e4 00 00 	mov    0xe43c(%rip),%rdx        # 249c8 <g_683>
   1658c:	48 8b 05 35 e4 00 00 	mov    0xe435(%rip),%rax        # 249c8 <g_683>
   16593:	48 8b 12             	mov    (%rdx),%rdx
   16596:	48 89 10             	mov    %rdx,(%rax)
   16599:	8b 95 18 e7 ff ff    	mov    -0x18e8(%rbp),%edx
   1659f:	48 8b 85 a0 ea ff ff 	mov    -0x1560(%rbp),%rax
   165a6:	89 10                	mov    %edx,(%rax)
   165a8:	0f b7 85 02 e6 ff ff 	movzwl -0x19fe(%rbp),%eax
   165af:	83 c0 01             	add    $0x1,%eax
   165b2:	66 89 85 02 e6 ff ff 	mov    %ax,-0x19fe(%rbp)
   165b9:	eb 0f                	jmp    165ca <func_48+0x435f>
   165bb:	48 8b 05 26 e3 00 00 	mov    0xe326(%rip),%rax        # 248e8 <g_451>
   165c2:	8b 95 cc e5 ff ff    	mov    -0x1a34(%rbp),%edx
   165c8:	89 10                	mov    %edx,(%rax)
   165ca:	48 c7 85 80 e7 ff ff 	movq   $0x0,-0x1880(%rbp)
   165d1:	00 00 00 00 
   165d5:	90                   	nop
   165d6:	48 8b 85 80 e7 ff ff 	mov    -0x1880(%rbp),%rax
   165dd:	48 83 f8 01          	cmp    $0x1,%rax
   165e1:	0f 87 bf 02 00 00    	ja     168a6 <func_48+0x463b>
   165e7:	48 8d 85 a0 f8 ff ff 	lea    -0x760(%rbp),%rax
   165ee:	48 8d 15 0b 7c 00 00 	lea    0x7c0b(%rip),%rdx        # 1e200 <g_4277+0x2140>
   165f5:	b9 80 00 00 00       	mov    $0x80,%ecx
   165fa:	48 89 c7             	mov    %rax,%rdi
   165fd:	48 89 d6             	mov    %rdx,%rsi
   16600:	f3 48 a5             	rep movsq %ds:(%rsi),%es:(%rdi)
   16603:	48 8d 85 f0 f1 ff ff 	lea    -0xe10(%rbp),%rax
   1660a:	48 83 c0 34          	add    $0x34,%rax
   1660e:	48 89 85 b8 ea ff ff 	mov    %rax,-0x1548(%rbp)
   16615:	48 8d 85 a0 f8 ff ff 	lea    -0x760(%rbp),%rax
   1661c:	48 05 a8 03 00 00    	add    $0x3a8,%rax
   16622:	48 89 85 c0 ea ff ff 	mov    %rax,-0x1540(%rbp)
   16629:	48 8d 85 14 e6 ff ff 	lea    -0x19ec(%rbp),%rax
   16630:	48 89 85 c8 ea ff ff 	mov    %rax,-0x1538(%rbp)
   16637:	48 8d 85 38 e6 ff ff 	lea    -0x19c8(%rbp),%rax
   1663e:	48 89 85 d0 ea ff ff 	mov    %rax,-0x1530(%rbp)
   16645:	48 8d 85 f0 f1 ff ff 	lea    -0xe10(%rbp),%rax
   1664c:	48 05 f8 00 00 00    	add    $0xf8,%rax
   16652:	48 89 85 d8 ea ff ff 	mov    %rax,-0x1528(%rbp)
   16659:	48 8d 85 34 e6 ff ff 	lea    -0x19cc(%rbp),%rax
   16660:	48 89 85 30 ed ff ff 	mov    %rax,-0x12d0(%rbp)
   16667:	48 c7 85 38 ed ff ff 	movq   $0x0,-0x12c8(%rbp)
   1666e:	00 00 00 00 
   16672:	48 8d 85 34 e6 ff ff 	lea    -0x19cc(%rbp),%rax
   16679:	48 89 85 40 ed ff ff 	mov    %rax,-0x12c0(%rbp)
   16680:	48 8d 85 34 e6 ff ff 	lea    -0x19cc(%rbp),%rax
   16687:	48 89 85 48 ed ff ff 	mov    %rax,-0x12b8(%rbp)
   1668e:	48 c7 85 50 ed ff ff 	movq   $0x0,-0x12b0(%rbp)
   16695:	00 00 00 00 
   16699:	48 8d 85 34 e6 ff ff 	lea    -0x19cc(%rbp),%rax
   166a0:	48 89 85 58 ed ff ff 	mov    %rax,-0x12a8(%rbp)
   166a7:	48 8d 85 34 e6 ff ff 	lea    -0x19cc(%rbp),%rax
   166ae:	48 89 85 60 ed ff ff 	mov    %rax,-0x12a0(%rbp)
   166b5:	48 c7 85 68 ed ff ff 	movq   $0x0,-0x1298(%rbp)
   166bc:	00 00 00 00 
   166c0:	48 8d 85 34 e6 ff ff 	lea    -0x19cc(%rbp),%rax
   166c7:	48 89 85 70 ed ff ff 	mov    %rax,-0x1290(%rbp)
   166ce:	c6 85 e9 e5 ff ff 9c 	movb   $0x9c,-0x1a17(%rbp)
   166d5:	8b 05 5d c3 00 00    	mov    0xc35d(%rip),%eax        # 22a38 <g_191+0x18>
   166db:	98                   	cwtl   
   166dc:	89 c7                	mov    %eax,%edi
   166de:	e8 ba 1c ff ff       	callq  839d <safe_unary_minus_func_int16_t_s>
   166e3:	44 0f bf f0          	movswl %ax,%r14d
   166e7:	44 0f be bd e5 e5 ff 	movsbl -0x1a1b(%rbp),%r15d
   166ee:	ff 
   166ef:	8b 9d cc e5 ff ff    	mov    -0x1a34(%rbp),%ebx
   166f5:	0f b7 05 44 c3 00 00 	movzwl 0xc344(%rip),%eax        # 22a40 <g_195>
   166fc:	4c 0f bf e0          	movswq %ax,%r12
   16700:	8b 85 cc e5 ff ff    	mov    -0x1a34(%rbp),%eax
   16706:	4c 63 e8             	movslq %eax,%r13
   16709:	0f b6 85 e4 e5 ff ff 	movzbl -0x1a1c(%rbp),%eax
   16710:	48 89 c6             	mov    %rax,%rsi
   16713:	48 bf ed b8 04 98 25 	movabs $0x3f302f259804b8ed,%rdi
   1671a:	2f 30 3f 
   1671d:	e8 86 21 ff ff       	callq  88a8 <safe_sub_func_int64_t_s_s>
   16722:	4c 89 ee             	mov    %r13,%rsi
   16725:	48 89 c7             	mov    %rax,%rdi
   16728:	e8 53 29 ff ff       	callq  9080 <safe_mod_func_uint64_t_u_u>
   1672d:	83 bd 1c e7 ff ff 00 	cmpl   $0x0,-0x18e4(%rbp)
   16734:	74 07                	je     1673d <func_48+0x44d2>
   16736:	b8 01 00 00 00       	mov    $0x1,%eax
   1673b:	eb 05                	jmp    16742 <func_48+0x44d7>
   1673d:	b8 00 00 00 00       	mov    $0x0,%eax
   16742:	98                   	cwtl   
   16743:	be fe ff ff ff       	mov    $0xfffffffe,%esi
   16748:	89 c7                	mov    %eax,%edi
   1674a:	e8 a6 1c ff ff       	callq  83f5 <safe_mul_func_int16_t_s_s>
   1674f:	89 c2                	mov    %eax,%edx
   16751:	48 8b 05 90 e1 00 00 	mov    0xe190(%rip),%rax        # 248e8 <g_451>
   16758:	0f bf d2             	movswl %dx,%edx
   1675b:	89 10                	mov    %edx,(%rax)
   1675d:	8b 00                	mov    (%rax),%eax
   1675f:	89 c7                	mov    %eax,%edi
   16761:	e8 30 1e ff ff       	callq  8596 <safe_unary_minus_func_int32_t_s>
   16766:	48 63 d0             	movslq %eax,%rdx
   16769:	48 8b 05 38 e3 00 00 	mov    0xe338(%rip),%rax        # 24aa8 <g_725>
   16770:	48 8b 00             	mov    (%rax),%rax
   16773:	48 8b 00             	mov    (%rax),%rax
   16776:	48 39 c2             	cmp    %rax,%rdx
   16779:	0f 96 c2             	setbe  %dl
   1677c:	0f b6 05 7f c2 00 00 	movzbl 0xc27f(%rip),%eax        # 22a02 <g_88>
   16783:	0f b6 c0             	movzbl %al,%eax
   16786:	83 c0 02             	add    $0x2,%eax
   16789:	0f b6 d2             	movzbl %dl,%edx
   1678c:	48 63 c8             	movslq %eax,%rcx
   1678f:	48 8d 34 8d 00 00 00 	lea    0x0(,%rcx,4),%rsi
   16796:	00 
   16797:	48 8d 0d d2 c2 00 00 	lea    0xc2d2(%rip),%rcx        # 22a70 <g_445>
   1679e:	89 14 0e             	mov    %edx,(%rsi,%rcx,1)
   167a1:	48 98                	cltq   
   167a3:	48 8d 14 85 00 00 00 	lea    0x0(,%rax,4),%rdx
   167aa:	00 
   167ab:	48 8d 05 be c2 00 00 	lea    0xc2be(%rip),%rax        # 22a70 <g_445>
   167b2:	8b 04 02             	mov    (%rdx,%rax,1),%eax
   167b5:	8b 95 24 ec ff ff    	mov    -0x13dc(%rbp),%edx
   167bb:	39 d0                	cmp    %edx,%eax
   167bd:	4c 89 e6             	mov    %r12,%rsi
   167c0:	48 c7 c7 ff ff ff ff 	mov    $0xffffffffffffffff,%rdi
   167c7:	e8 e3 28 ff ff       	callq  90af <safe_div_func_uint64_t_u_u>
   167cc:	0f b7 c0             	movzwl %ax,%eax
   167cf:	be 09 00 00 00       	mov    $0x9,%esi
   167d4:	89 c7                	mov    %eax,%edi
   167d6:	e8 62 25 ff ff       	callq  8d3d <safe_mul_func_uint16_t_u_u>
   167db:	98                   	cwtl   
   167dc:	89 de                	mov    %ebx,%esi
   167de:	89 c7                	mov    %eax,%edi
   167e0:	e8 fc 1c ff ff       	callq  84e1 <safe_lshift_func_int16_t_s_u>
   167e5:	48 8b 85 b8 ea ff ff 	mov    -0x1548(%rbp),%rax
   167ec:	8b 95 cc e5 ff ff    	mov    -0x1a34(%rbp),%edx
   167f2:	89 10                	mov    %edx,(%rax)
   167f4:	48 8b 85 b8 ea ff ff 	mov    -0x1548(%rbp),%rax
   167fb:	8b 00                	mov    (%rax),%eax
   167fd:	39 85 1c e7 ff ff    	cmp    %eax,-0x18e4(%rbp)
   16803:	0f 9e c0             	setle  %al
   16806:	0f b6 c0             	movzbl %al,%eax
   16809:	be 00 00 00 00       	mov    $0x0,%esi
   1680e:	89 c7                	mov    %eax,%edi
   16810:	e8 ea 24 ff ff       	callq  8cff <safe_add_func_uint16_t_u_u>
   16815:	0f b7 c0             	movzwl %ax,%eax
   16818:	44 31 f8             	xor    %r15d,%eax
   1681b:	39 85 cc e5 ff ff    	cmp    %eax,-0x1a34(%rbp)
   16821:	0f 9e c0             	setle  %al
   16824:	0f b6 c0             	movzbl %al,%eax
   16827:	39 85 cc e5 ff ff    	cmp    %eax,-0x1a34(%rbp)
   1682d:	0f 95 c0             	setne  %al
   16830:	0f b6 c0             	movzbl %al,%eax
   16833:	41 39 c6             	cmp    %eax,%r14d
   16836:	0f 95 c0             	setne  %al
   16839:	0f b6 c0             	movzbl %al,%eax
   1683c:	be 4d 62 00 54       	mov    $0x5400624d,%esi
   16841:	89 c7                	mov    %eax,%edi
   16843:	e8 88 26 ff ff       	callq  8ed0 <safe_sub_func_uint32_t_u_u>
   16848:	8b 95 cc e5 ff ff    	mov    -0x1a34(%rbp),%edx
   1684e:	39 d0                	cmp    %edx,%eax
   16850:	0f 93 c0             	setae  %al
   16853:	0f b6 c0             	movzbl %al,%eax
   16856:	8b 95 cc e5 ff ff    	mov    -0x1a34(%rbp),%edx
   1685c:	89 d6                	mov    %edx,%esi
   1685e:	89 c7                	mov    %eax,%edi
   16860:	e8 a0 1d ff ff       	callq  8605 <safe_sub_func_int32_t_s_s>
   16865:	0f be c0             	movsbl %al,%eax
   16868:	be 01 00 00 00       	mov    $0x1,%esi
   1686d:	89 c7                	mov    %eax,%edi
   1686f:	e8 2d 1a ff ff       	callq  82a1 <safe_lshift_func_int8_t_s_s>
   16874:	c7 85 30 ec ff ff 2d 	movl   $0x8b002f2d,-0x13d0(%rbp)
   1687b:	2f 00 8b 
   1687e:	8b 85 cc e5 ff ff    	mov    -0x1a34(%rbp),%eax
   16884:	83 c8 01             	or     $0x1,%eax
   16887:	89 c2                	mov    %eax,%edx
   16889:	48 8b 85 c0 ea ff ff 	mov    -0x1540(%rbp),%rax
   16890:	89 10                	mov    %edx,(%rax)
   16892:	80 85 e9 e5 ff ff 01 	addb   $0x1,-0x1a17(%rbp)
   16899:	8b 85 28 e7 ff ff    	mov    -0x18d8(%rbp),%eax
   1689f:	48 98                	cltq   
   168a1:	e9 a9 1f 00 00       	jmpq   1884f <func_48+0x65e4>
   168a6:	c7 85 3c e6 ff ff 06 	movl   $0x6,-0x19c4(%rbp)
   168ad:	00 00 00 
   168b0:	e9 c4 03 00 00       	jmpq   16c79 <func_48+0x4a0e>
   168b5:	c6 85 e7 e5 ff ff ff 	movb   $0xff,-0x1a19(%rbp)
   168bc:	48 8d 85 18 e8 ff ff 	lea    -0x17e8(%rbp),%rax
   168c3:	48 89 85 a8 ea ff ff 	mov    %rax,-0x1558(%rbp)
   168ca:	c7 85 a0 f8 ff ff 00 	movl   $0x0,-0x760(%rbp)
   168d1:	00 00 00 
   168d4:	c7 85 a4 f8 ff ff 75 	movl   $0x7e199e75,-0x75c(%rbp)
   168db:	9e 19 7e 
   168de:	c7 85 a8 f8 ff ff 9f 	movl   $0x16c4c39f,-0x758(%rbp)
   168e5:	c3 c4 16 
   168e8:	c7 85 ac f8 ff ff 9f 	movl   $0x16c4c39f,-0x754(%rbp)
   168ef:	c3 c4 16 
   168f2:	c7 85 b0 f8 ff ff 75 	movl   $0x7e199e75,-0x750(%rbp)
   168f9:	9e 19 7e 
   168fc:	c7 85 b4 f8 ff ff 00 	movl   $0x0,-0x74c(%rbp)
   16903:	00 00 00 
   16906:	c7 85 b8 f8 ff ff 75 	movl   $0x7e199e75,-0x748(%rbp)
   1690d:	9e 19 7e 
   16910:	c7 85 bc f8 ff ff 9f 	movl   $0x16c4c39f,-0x744(%rbp)
   16917:	c3 c4 16 
   1691a:	c7 85 c0 f8 ff ff 9f 	movl   $0x16c4c39f,-0x740(%rbp)
   16921:	c3 c4 16 
   16924:	c7 85 c4 f8 ff ff fb 	movl   $0xfffffffb,-0x73c(%rbp)
   1692b:	ff ff ff 
   1692e:	c7 85 c8 f8 ff ff fb 	movl   $0xfffffffb,-0x738(%rbp)
   16935:	ff ff ff 
   16938:	c7 85 cc f8 ff ff 00 	movl   $0x0,-0x734(%rbp)
   1693f:	00 00 00 
   16942:	c7 85 d0 f8 ff ff 9f 	movl   $0x16c4c39f,-0x730(%rbp)
   16949:	c3 c4 16 
   1694c:	c7 85 d4 f8 ff ff 00 	movl   $0x0,-0x72c(%rbp)
   16953:	00 00 00 
   16956:	c7 85 d8 f8 ff ff 00 	movl   $0x0,-0x728(%rbp)
   1695d:	00 00 00 
   16960:	c7 85 dc f8 ff ff 00 	movl   $0x0,-0x724(%rbp)
   16967:	00 00 00 
   1696a:	c7 85 e0 f8 ff ff 61 	movl   $0x8876061,-0x720(%rbp)
   16971:	60 87 08 
   16974:	c7 85 e4 f8 ff ff 75 	movl   $0x7e199e75,-0x71c(%rbp)
   1697b:	9e 19 7e 
   1697e:	48 8d 05 7b c0 00 00 	lea    0xc07b(%rip),%rax        # 22a00 <g_79>
   16985:	48 89 85 b0 ea ff ff 	mov    %rax,-0x1550(%rbp)
   1698c:	48 8d 85 24 e6 ff ff 	lea    -0x19dc(%rbp),%rax
   16993:	48 89 85 30 ed ff ff 	mov    %rax,-0x12d0(%rbp)
   1699a:	48 8d 85 24 e6 ff ff 	lea    -0x19dc(%rbp),%rax
   169a1:	48 89 85 38 ed ff ff 	mov    %rax,-0x12c8(%rbp)
   169a8:	48 8d 85 24 e6 ff ff 	lea    -0x19dc(%rbp),%rax
   169af:	48 89 85 40 ed ff ff 	mov    %rax,-0x12c0(%rbp)
   169b6:	48 8d 85 24 e6 ff ff 	lea    -0x19dc(%rbp),%rax
   169bd:	48 89 85 48 ed ff ff 	mov    %rax,-0x12b8(%rbp)
   169c4:	48 8d 85 24 e6 ff ff 	lea    -0x19dc(%rbp),%rax
   169cb:	48 89 85 50 ed ff ff 	mov    %rax,-0x12b0(%rbp)
   169d2:	48 8d 85 24 e6 ff ff 	lea    -0x19dc(%rbp),%rax
   169d9:	48 89 85 58 ed ff ff 	mov    %rax,-0x12a8(%rbp)
   169e0:	c6 85 e8 e5 ff ff a1 	movb   $0xa1,-0x1a18(%rbp)
   169e7:	c7 85 2c e7 ff ff 64 	movl   $0xa33f4064,-0x18d4(%rbp)
   169ee:	40 3f a3 
   169f1:	8b 85 38 e6 ff ff    	mov    -0x19c8(%rbp),%eax
   169f7:	0f be d0             	movsbl %al,%edx
   169fa:	8b 85 cc e5 ff ff    	mov    -0x1a34(%rbp),%eax
   16a00:	0f be c0             	movsbl %al,%eax
   16a03:	89 d6                	mov    %edx,%esi
   16a05:	89 c7                	mov    %eax,%edi
   16a07:	e8 e6 17 ff ff       	callq  81f2 <safe_sub_func_int8_t_s_s>
   16a0c:	0f be f0             	movsbl %al,%esi
   16a0f:	48 8b 85 f0 e7 ff ff 	mov    -0x1810(%rbp),%rax
   16a16:	48 8b 00             	mov    (%rax),%rax
   16a19:	0f b7 10             	movzwl (%rax),%edx
   16a1c:	8d 4a 01             	lea    0x1(%rdx),%ecx
   16a1f:	66 89 08             	mov    %cx,(%rax)
   16a22:	0f b7 c2             	movzwl %dx,%eax
   16a25:	39 c6                	cmp    %eax,%esi
   16a27:	7c 73                	jl     16a9c <func_48+0x4831>
   16a29:	0f b6 05 18 c9 00 00 	movzbl 0xc918(%rip),%eax        # 23348 <g_1641>
   16a30:	0f b6 d8             	movzbl %al,%ebx
   16a33:	8b 95 cc e5 ff ff    	mov    -0x1a34(%rbp),%edx
   16a39:	8b 85 18 e8 ff ff    	mov    -0x17e8(%rbp),%eax
   16a3f:	0f b7 c0             	movzwl %ax,%eax
   16a42:	89 d6                	mov    %edx,%esi
   16a44:	89 c7                	mov    %eax,%edi
   16a46:	e8 2f 24 ff ff       	callq  8e7a <safe_rshift_func_uint16_t_u_u>
   16a4b:	98                   	cwtl   
   16a4c:	89 de                	mov    %ebx,%esi
   16a4e:	89 c7                	mov    %eax,%edi
   16a50:	e8 00 1a ff ff       	callq  8455 <safe_div_func_int16_t_s_s>
   16a55:	89 c3                	mov    %eax,%ebx
   16a57:	0f b7 05 e2 bf 00 00 	movzwl 0xbfe2(%rip),%eax        # 22a40 <g_195>
   16a5e:	48 0f bf d0          	movswq %ax,%rdx
   16a62:	83 bd cc e5 ff ff 00 	cmpl   $0x0,-0x1a34(%rbp)
   16a69:	0f 9e c0             	setle  %al
   16a6c:	0f b6 c0             	movzbl %al,%eax
   16a6f:	48 89 d6             	mov    %rdx,%rsi
   16a72:	48 89 c7             	mov    %rax,%rdi
   16a75:	e8 b4 25 ff ff       	callq  902e <safe_add_func_uint64_t_u_u>
   16a7a:	8b 95 cc e5 ff ff    	mov    -0x1a34(%rbp),%edx
   16a80:	48 63 d2             	movslq %edx,%rdx
   16a83:	48 39 d0             	cmp    %rdx,%rax
   16a86:	0f 96 c0             	setbe  %al
   16a89:	88 85 da e5 ff ff    	mov    %al,-0x1a26(%rbp)
   16a8f:	66 0f be 85 da e5 ff 	movsbw -0x1a26(%rbp),%ax
   16a96:	ff 
   16a97:	66 39 c3             	cmp    %ax,%bx
   16a9a:	74 07                	je     16aa3 <func_48+0x4838>
   16a9c:	ba 01 00 00 00       	mov    $0x1,%edx
   16aa1:	eb 05                	jmp    16aa8 <func_48+0x483d>
   16aa3:	ba 00 00 00 00       	mov    $0x0,%edx
   16aa8:	8b 85 3c e6 ff ff    	mov    -0x19c4(%rbp),%eax
   16aae:	39 c2                	cmp    %eax,%edx
   16ab0:	7d 09                	jge    16abb <func_48+0x4850>
   16ab2:	83 bd cc e5 ff ff 00 	cmpl   $0x0,-0x1a34(%rbp)
   16ab9:	74 07                	je     16ac2 <func_48+0x4857>
   16abb:	ba 01 00 00 00       	mov    $0x1,%edx
   16ac0:	eb 05                	jmp    16ac7 <func_48+0x485c>
   16ac2:	ba 00 00 00 00       	mov    $0x0,%edx
   16ac7:	48 8b 05 c2 c5 00 00 	mov    0xc5c2(%rip),%rax        # 23090 <g_1492+0x390>
   16ace:	48 85 c0             	test   %rax,%rax
   16ad1:	74 10                	je     16ae3 <func_48+0x4878>
   16ad3:	80 bd e7 e5 ff ff 00 	cmpb   $0x0,-0x1a19(%rbp)
   16ada:	74 07                	je     16ae3 <func_48+0x4878>
   16adc:	b8 01 00 00 00       	mov    $0x1,%eax
   16ae1:	eb 05                	jmp    16ae8 <func_48+0x487d>
   16ae3:	b8 00 00 00 00       	mov    $0x0,%eax
   16ae8:	89 d6                	mov    %edx,%esi
   16aea:	89 c7                	mov    %eax,%edi
   16aec:	e8 db 1b ff ff       	callq  86cc <safe_mod_func_int32_t_s_s>
   16af1:	be 07 00 00 00       	mov    $0x7,%esi
   16af6:	bf 01 00 00 00       	mov    $0x1,%edi
   16afb:	e8 7a 23 ff ff       	callq  8e7a <safe_rshift_func_uint16_t_u_u>
   16b00:	8b 85 cc e5 ff ff    	mov    -0x1a34(%rbp),%eax
   16b06:	0f b6 c0             	movzbl %al,%eax
   16b09:	be ff 00 00 00       	mov    $0xff,%esi
   16b0e:	89 c7                	mov    %eax,%edi
   16b10:	e8 45 20 ff ff       	callq  8b5a <safe_add_func_uint8_t_u_u>
   16b15:	89 c2                	mov    %eax,%edx
   16b17:	48 8b 05 ca dd 00 00 	mov    0xddca(%rip),%rax        # 248e8 <g_451>
   16b1e:	0f b6 d2             	movzbl %dl,%edx
   16b21:	89 10                	mov    %edx,(%rax)
   16b23:	8b 10                	mov    (%rax),%edx
   16b25:	48 8b 85 a8 ea ff ff 	mov    -0x1558(%rbp),%rax
   16b2c:	89 10                	mov    %edx,(%rax)
   16b2e:	48 8b 85 78 e7 ff ff 	mov    -0x1888(%rbp),%rax
   16b35:	48 8b 00             	mov    (%rax),%rax
   16b38:	48 8d 15 61 df 00 00 	lea    0xdf61(%rip),%rdx        # 24aa0 <g_726>
   16b3f:	48 89 10             	mov    %rdx,(%rax)
   16b42:	48 8d 05 57 df 00 00 	lea    0xdf57(%rip),%rax        # 24aa0 <g_726>
   16b49:	48 39 85 58 ea ff ff 	cmp    %rax,-0x15a8(%rbp)
   16b50:	0f 95 c0             	setne  %al
   16b53:	0f b6 d0             	movzbl %al,%edx
   16b56:	0f be 8d da e5 ff ff 	movsbl -0x1a26(%rbp),%ecx
   16b5d:	0f b7 85 fe e5 ff ff 	movzwl -0x1a02(%rbp),%eax
   16b64:	0b 85 cc e5 ff ff    	or     -0x1a34(%rbp),%eax
   16b6a:	85 c0                	test   %eax,%eax
   16b6c:	0f 95 c0             	setne  %al
   16b6f:	0f b6 c0             	movzbl %al,%eax
   16b72:	39 c1                	cmp    %eax,%ecx
   16b74:	0f 95 c0             	setne  %al
   16b77:	0f b6 c0             	movzbl %al,%eax
   16b7a:	89 d6                	mov    %edx,%esi
   16b7c:	89 c7                	mov    %eax,%edi
   16b7e:	e8 5e 19 ff ff       	callq  84e1 <safe_lshift_func_int16_t_s_u>
   16b83:	0f bf d0             	movswl %ax,%edx
   16b86:	80 bd e4 e5 ff ff 06 	cmpb   $0x6,-0x1a1c(%rbp)
   16b8d:	0f 95 c0             	setne  %al
   16b90:	0f b6 c0             	movzbl %al,%eax
   16b93:	89 d6                	mov    %edx,%esi
   16b95:	89 c7                	mov    %eax,%edi
   16b97:	e8 6a 22 ff ff       	callq  8e06 <safe_lshift_func_uint16_t_u_u>
   16b9c:	89 c2                	mov    %eax,%edx
   16b9e:	48 8b 05 43 dd 00 00 	mov    0xdd43(%rip),%rax        # 248e8 <g_451>
   16ba5:	0f b7 d2             	movzwl %dx,%edx
   16ba8:	89 10                	mov    %edx,(%rax)
   16baa:	8b 95 d0 f8 ff ff    	mov    -0x730(%rbp),%edx
   16bb0:	48 8b 05 f1 de 00 00 	mov    0xdef1(%rip),%rax        # 24aa8 <g_725>
   16bb7:	48 8b 00             	mov    (%rax),%rax
   16bba:	48 8b 00             	mov    (%rax),%rax
   16bbd:	48 b9 f6 25 18 5d 69 	movabs $0x2a3142695d1825f6,%rcx
   16bc4:	42 31 2a 
   16bc7:	48 39 c8             	cmp    %rcx,%rax
   16bca:	0f 97 c0             	seta   %al
   16bcd:	0f b6 c0             	movzbl %al,%eax
   16bd0:	39 c2                	cmp    %eax,%edx
   16bd2:	0f 9c c0             	setl   %al
   16bd5:	0f b6 d8             	movzbl %al,%ebx
   16bd8:	8b 85 00 e7 ff ff    	mov    -0x1900(%rbp),%eax
   16bde:	89 c6                	mov    %eax,%esi
   16be0:	bf 07 f8 a9 52       	mov    $0x52a9f807,%edi
   16be5:	e8 e2 1a ff ff       	callq  86cc <safe_mod_func_int32_t_s_s>
   16bea:	f7 d0                	not    %eax
   16bec:	0f b7 d0             	movzwl %ax,%edx
   16bef:	48 8b 85 00 ee ff ff 	mov    -0x1200(%rbp),%rax
   16bf6:	48 8d 0d d3 e1 00 00 	lea    0xe1d3(%rip),%rcx        # 24dd0 <g_1699>
   16bfd:	48 39 c8             	cmp    %rcx,%rax
   16c00:	0f 95 c0             	setne  %al
   16c03:	0f b6 c0             	movzbl %al,%eax
   16c06:	39 85 cc e5 ff ff    	cmp    %eax,-0x1a34(%rbp)
   16c0c:	0f 9c c0             	setl   %al
   16c0f:	0f b6 c0             	movzbl %al,%eax
   16c12:	39 85 cc e5 ff ff    	cmp    %eax,-0x1a34(%rbp)
   16c18:	0f 9d c0             	setge  %al
   16c1b:	0f b6 c0             	movzbl %al,%eax
   16c1e:	89 d6                	mov    %edx,%esi
   16c20:	89 c7                	mov    %eax,%edi
   16c22:	e8 16 21 ff ff       	callq  8d3d <safe_mul_func_uint16_t_u_u>
   16c27:	0f b7 15 c2 c0 00 00 	movzwl 0xc0c2(%rip),%edx        # 22cf0 <g_1182+0x10>
   16c2e:	66 39 d0             	cmp    %dx,%ax
   16c31:	0f 95 c0             	setne  %al
   16c34:	0f b6 d0             	movzbl %al,%edx
   16c37:	48 8b 85 b0 ea ff ff 	mov    -0x1550(%rbp),%rax
   16c3e:	66 89 10             	mov    %dx,(%rax)
   16c41:	48 8b 85 b0 ea ff ff 	mov    -0x1550(%rbp),%rax
   16c48:	0f b7 00             	movzwl (%rax),%eax
   16c4b:	98                   	cwtl   
   16c4c:	39 c3                	cmp    %eax,%ebx
   16c4e:	0f 95 c0             	setne  %al
   16c51:	0f b6 d0             	movzbl %al,%edx
   16c54:	48 8b 05 8d dc 00 00 	mov    0xdc8d(%rip),%rax        # 248e8 <g_451>
   16c5b:	33 95 24 e7 ff ff    	xor    -0x18dc(%rbp),%edx
   16c61:	89 10                	mov    %edx,(%rax)
   16c63:	83 ad 2c e7 ff ff 01 	subl   $0x1,-0x18d4(%rbp)
   16c6a:	8b 85 3c e6 ff ff    	mov    -0x19c4(%rbp),%eax
   16c70:	83 e8 01             	sub    $0x1,%eax
   16c73:	89 85 3c e6 ff ff    	mov    %eax,-0x19c4(%rbp)
   16c79:	8b 85 3c e6 ff ff    	mov    -0x19c4(%rbp),%eax
   16c7f:	85 c0                	test   %eax,%eax
   16c81:	0f 89 2e fc ff ff    	jns    168b5 <func_48+0x464a>
   16c87:	0f b6 85 b8 ec ff ff 	movzbl -0x1348(%rbp),%eax
   16c8e:	83 e8 01             	sub    $0x1,%eax
   16c91:	88 85 b8 ec ff ff    	mov    %al,-0x1348(%rbp)
   16c97:	48 8b 85 20 ea ff ff 	mov    -0x15e0(%rbp),%rax
   16c9e:	8b 95 cc e5 ff ff    	mov    -0x1a34(%rbp),%edx
   16ca4:	89 10                	mov    %edx,(%rax)
   16ca6:	8b 85 10 e6 ff ff    	mov    -0x19f0(%rbp),%eax
   16cac:	83 c0 01             	add    $0x1,%eax
   16caf:	89 85 10 e6 ff ff    	mov    %eax,-0x19f0(%rbp)
   16cb5:	8b 85 10 e6 ff ff    	mov    -0x19f0(%rbp),%eax
   16cbb:	83 f8 06             	cmp    $0x6,%eax
   16cbe:	0f 8e 01 ed ff ff    	jle    159c5 <func_48+0x375a>
   16cc4:	48 c7 05 29 c0 00 00 	movq   $0x0,0xc029(%rip)        # 22cf8 <g_1352>
   16ccb:	00 00 00 00 
   16ccf:	e9 8a 02 00 00       	jmpq   16f5e <func_48+0x4cf3>
   16cd4:	c7 85 18 e8 ff ff 34 	movl   $0xf8b20734,-0x17e8(%rbp)
   16cdb:	07 b2 f8 
   16cde:	48 8d 85 20 e6 ff ff 	lea    -0x19e0(%rbp),%rax
   16ce5:	48 89 85 98 e9 ff ff 	mov    %rax,-0x1668(%rbp)
   16cec:	48 8d 85 1c e6 ff ff 	lea    -0x19e4(%rbp),%rax
   16cf3:	48 89 85 a0 e9 ff ff 	mov    %rax,-0x1660(%rbp)
   16cfa:	48 8d 85 38 e6 ff ff 	lea    -0x19c8(%rbp),%rax
   16d01:	48 89 85 a8 e9 ff ff 	mov    %rax,-0x1658(%rbp)
   16d08:	48 8d 85 18 e8 ff ff 	lea    -0x17e8(%rbp),%rax
   16d0f:	48 89 85 b0 e9 ff ff 	mov    %rax,-0x1650(%rbp)
   16d16:	48 8d 05 eb bc 00 00 	lea    0xbceb(%rip),%rax        # 22a08 <g_126>
   16d1d:	48 89 85 b8 e9 ff ff 	mov    %rax,-0x1648(%rbp)
   16d24:	48 8d 05 dd bc 00 00 	lea    0xbcdd(%rip),%rax        # 22a08 <g_126>
   16d2b:	48 89 85 c0 e9 ff ff 	mov    %rax,-0x1640(%rbp)
   16d32:	48 c7 85 c8 e9 ff ff 	movq   $0x0,-0x1638(%rbp)
   16d39:	00 00 00 00 
   16d3d:	48 c7 85 d0 e9 ff ff 	movq   $0x0,-0x1630(%rbp)
   16d44:	00 00 00 00 
   16d48:	48 8d 85 20 ec ff ff 	lea    -0x13e0(%rbp),%rax
   16d4f:	48 83 c0 0c          	add    $0xc,%rax
   16d53:	48 89 85 a0 f8 ff ff 	mov    %rax,-0x760(%rbp)
   16d5a:	48 c7 85 a8 f8 ff ff 	movq   $0x0,-0x758(%rbp)
   16d61:	00 00 00 00 
   16d65:	48 8d 85 20 ec ff ff 	lea    -0x13e0(%rbp),%rax
   16d6c:	48 83 c0 0c          	add    $0xc,%rax
   16d70:	48 89 85 b0 f8 ff ff 	mov    %rax,-0x750(%rbp)
   16d77:	48 c7 85 b8 f8 ff ff 	movq   $0x0,-0x748(%rbp)
   16d7e:	00 00 00 00 
   16d82:	48 c7 85 c0 f8 ff ff 	movq   $0x0,-0x740(%rbp)
   16d89:	00 00 00 00 
   16d8d:	48 8d 85 20 ec ff ff 	lea    -0x13e0(%rbp),%rax
   16d94:	48 83 c0 0c          	add    $0xc,%rax
   16d98:	48 89 85 c8 f8 ff ff 	mov    %rax,-0x738(%rbp)
   16d9f:	48 c7 85 d0 f8 ff ff 	movq   $0x0,-0x730(%rbp)
   16da6:	00 00 00 00 
   16daa:	48 8d 85 20 ec ff ff 	lea    -0x13e0(%rbp),%rax
   16db1:	48 83 c0 0c          	add    $0xc,%rax
   16db5:	48 89 85 d8 f8 ff ff 	mov    %rax,-0x728(%rbp)
   16dbc:	48 c7 85 e0 f8 ff ff 	movq   $0x0,-0x720(%rbp)
   16dc3:	00 00 00 00 
   16dc7:	48 c7 85 e8 f8 ff ff 	movq   $0x0,-0x718(%rbp)
   16dce:	00 00 00 00 
   16dd2:	48 8d 85 20 ec ff ff 	lea    -0x13e0(%rbp),%rax
   16dd9:	48 83 c0 0c          	add    $0xc,%rax
   16ddd:	48 89 85 f0 f8 ff ff 	mov    %rax,-0x710(%rbp)
   16de4:	48 c7 85 f8 f8 ff ff 	movq   $0x0,-0x708(%rbp)
   16deb:	00 00 00 00 
   16def:	48 8d 85 20 ec ff ff 	lea    -0x13e0(%rbp),%rax
   16df6:	48 83 c0 0c          	add    $0xc,%rax
   16dfa:	48 89 85 00 f9 ff ff 	mov    %rax,-0x700(%rbp)
   16e01:	48 c7 85 08 f9 ff ff 	movq   $0x0,-0x6f8(%rbp)
   16e08:	00 00 00 00 
   16e0c:	48 c7 85 10 f9 ff ff 	movq   $0x0,-0x6f0(%rbp)
   16e13:	00 00 00 00 
   16e17:	c7 05 3f bc 00 00 06 	movl   $0x6,0xbc3f(%rip)        # 22a60 <g_341>
   16e1e:	00 00 00 
   16e21:	eb 30                	jmp    16e53 <func_48+0x4be8>
   16e23:	48 8b 05 be da 00 00 	mov    0xdabe(%rip),%rax        # 248e8 <g_451>
   16e2a:	c7 00 95 3b 65 b5    	movl   $0xb5653b95,(%rax)
   16e30:	48 8b 85 60 e7 ff ff 	mov    -0x18a0(%rbp),%rax
   16e37:	48 8b 00             	mov    (%rax),%rax
   16e3a:	48 8d 95 20 ec ff ff 	lea    -0x13e0(%rbp),%rdx
   16e41:	48 89 10             	mov    %rdx,(%rax)
   16e44:	8b 05 16 bc 00 00    	mov    0xbc16(%rip),%eax        # 22a60 <g_341>
   16e4a:	83 e8 01             	sub    $0x1,%eax
   16e4d:	89 05 0d bc 00 00    	mov    %eax,0xbc0d(%rip)        # 22a60 <g_341>
   16e53:	8b 05 07 bc 00 00    	mov    0xbc07(%rip),%eax        # 22a60 <g_341>
   16e59:	83 f8 01             	cmp    $0x1,%eax
   16e5c:	7f c5                	jg     16e23 <func_48+0x4bb8>
   16e5e:	8b 85 cc e5 ff ff    	mov    -0x1a34(%rbp),%eax
   16e64:	0f b7 d8             	movzwl %ax,%ebx
   16e67:	8b 85 18 e8 ff ff    	mov    -0x17e8(%rbp),%eax
   16e6d:	85 c0                	test   %eax,%eax
   16e6f:	0f 85 96 00 00 00    	jne    16f0b <func_48+0x4ca0>
   16e75:	8b 85 38 e6 ff ff    	mov    -0x19c8(%rbp),%eax
   16e7b:	83 c8 01             	or     $0x1,%eax
   16e7e:	89 85 38 e6 ff ff    	mov    %eax,-0x19c8(%rbp)
   16e84:	8b 85 cc e5 ff ff    	mov    -0x1a34(%rbp),%eax
   16e8a:	98                   	cwtl   
   16e8b:	be 01 00 00 00       	mov    $0x1,%esi
   16e90:	89 c7                	mov    %eax,%edi
   16e92:	e8 4a 16 ff ff       	callq  84e1 <safe_lshift_func_int16_t_s_u>
   16e97:	98                   	cwtl   
   16e98:	8b 95 2c ec ff ff    	mov    -0x13d4(%rbp),%edx
   16e9e:	89 c6                	mov    %eax,%esi
   16ea0:	89 d7                	mov    %edx,%edi
   16ea2:	e8 7e 20 ff ff       	callq  8f25 <safe_div_func_uint32_t_u_u>
   16ea7:	8b 95 cc e5 ff ff    	mov    -0x1a34(%rbp),%edx
   16ead:	09 c2                	or     %eax,%edx
   16eaf:	48 8b 85 48 e9 ff ff 	mov    -0x16b8(%rbp),%rax
   16eb6:	48 8b 00             	mov    (%rax),%rax
   16eb9:	89 d2                	mov    %edx,%edx
   16ebb:	48 21 c2             	and    %rax,%rdx
   16ebe:	48 8b 85 48 e9 ff ff 	mov    -0x16b8(%rbp),%rax
   16ec5:	48 89 10             	mov    %rdx,(%rax)
   16ec8:	48 8b 85 e0 e7 ff ff 	mov    -0x1820(%rbp),%rax
   16ecf:	48 8b 00             	mov    (%rax),%rax
   16ed2:	48 8b 00             	mov    (%rax),%rax
   16ed5:	48 8b 95 48 e9 ff ff 	mov    -0x16b8(%rbp),%rdx
   16edc:	48 8b 12             	mov    (%rdx),%rdx
   16edf:	48 89 10             	mov    %rdx,(%rax)
   16ee2:	48 8b 10             	mov    (%rax),%rdx
   16ee5:	48 8b 85 30 e8 ff ff 	mov    -0x17d0(%rbp),%rax
   16eec:	48 8b 00             	mov    (%rax),%rax
   16eef:	48 09 c2             	or     %rax,%rdx
   16ef2:	48 8b 85 30 e8 ff ff 	mov    -0x17d0(%rbp),%rax
   16ef9:	48 89 10             	mov    %rdx,(%rax)
   16efc:	48 8b 85 30 e8 ff ff 	mov    -0x17d0(%rbp),%rax
   16f03:	48 8b 00             	mov    (%rax),%rax
   16f06:	48 85 c0             	test   %rax,%rax
   16f09:	74 07                	je     16f12 <func_48+0x4ca7>
   16f0b:	b8 01 00 00 00       	mov    $0x1,%eax
   16f10:	eb 05                	jmp    16f17 <func_48+0x4cac>
   16f12:	b8 00 00 00 00       	mov    $0x0,%eax
   16f17:	0f b7 c0             	movzwl %ax,%eax
   16f1a:	89 de                	mov    %ebx,%esi
   16f1c:	89 c7                	mov    %eax,%edi
   16f1e:	e8 6b 1e ff ff       	callq  8d8e <safe_div_func_uint16_t_u_u>
   16f23:	0f b7 c8             	movzwl %ax,%ecx
   16f26:	8b 95 18 e8 ff ff    	mov    -0x17e8(%rbp),%edx
   16f2c:	48 8b 05 b5 d9 00 00 	mov    0xd9b5(%rip),%rax        # 248e8 <g_451>
   16f33:	09 ca                	or     %ecx,%edx
   16f35:	89 10                	mov    %edx,(%rax)
   16f37:	48 8d 85 18 e8 ff ff 	lea    -0x17e8(%rbp),%rax
   16f3e:	48 89 85 60 e9 ff ff 	mov    %rax,-0x16a0(%rbp)
   16f45:	83 ad 58 e6 ff ff 01 	subl   $0x1,-0x19a8(%rbp)
   16f4c:	48 8b 05 a5 bd 00 00 	mov    0xbda5(%rip),%rax        # 22cf8 <g_1352>
   16f53:	48 83 c0 01          	add    $0x1,%rax
   16f57:	48 89 05 9a bd 00 00 	mov    %rax,0xbd9a(%rip)        # 22cf8 <g_1352>
   16f5e:	48 8b 05 93 bd 00 00 	mov    0xbd93(%rip),%rax        # 22cf8 <g_1352>
   16f65:	48 83 f8 01          	cmp    $0x1,%rax
   16f69:	0f 86 65 fd ff ff    	jbe    16cd4 <func_48+0x4a69>
   16f6f:	8b 85 34 e6 ff ff    	mov    -0x19cc(%rbp),%eax
   16f75:	83 c0 01             	add    $0x1,%eax
   16f78:	89 85 34 e6 ff ff    	mov    %eax,-0x19cc(%rbp)
   16f7e:	8b 85 34 e6 ff ff    	mov    -0x19cc(%rbp),%eax
   16f84:	83 f8 09             	cmp    $0x9,%eax
   16f87:	0f 8e 7e e9 ff ff    	jle    1590b <func_48+0x36a0>
   16f8d:	c6 05 4d ba 00 00 00 	movb   $0x0,0xba4d(%rip)        # 229e1 <g_15>
   16f94:	e9 94 02 00 00       	jmpq   1722d <func_48+0x4fc2>
   16f99:	48 8d 85 d9 e5 ff ff 	lea    -0x1a27(%rbp),%rax
   16fa0:	48 89 85 a0 f8 ff ff 	mov    %rax,-0x760(%rbp)
   16fa7:	48 8d 85 d9 e5 ff ff 	lea    -0x1a27(%rbp),%rax
   16fae:	48 89 85 a8 f8 ff ff 	mov    %rax,-0x758(%rbp)
   16fb5:	48 8d 85 d9 e5 ff ff 	lea    -0x1a27(%rbp),%rax
   16fbc:	48 89 85 b0 f8 ff ff 	mov    %rax,-0x750(%rbp)
   16fc3:	48 8d 85 d9 e5 ff ff 	lea    -0x1a27(%rbp),%rax
   16fca:	48 89 85 b8 f8 ff ff 	mov    %rax,-0x748(%rbp)
   16fd1:	48 8d 85 d9 e5 ff ff 	lea    -0x1a27(%rbp),%rax
   16fd8:	48 89 85 c0 f8 ff ff 	mov    %rax,-0x740(%rbp)
   16fdf:	48 8d 85 d9 e5 ff ff 	lea    -0x1a27(%rbp),%rax
   16fe6:	48 89 85 c8 f8 ff ff 	mov    %rax,-0x738(%rbp)
   16fed:	48 8d 85 d9 e5 ff ff 	lea    -0x1a27(%rbp),%rax
   16ff4:	48 89 85 d0 f8 ff ff 	mov    %rax,-0x730(%rbp)
   16ffb:	c7 85 18 e8 ff ff f6 	movl   $0xfffffff6,-0x17e8(%rbp)
   17002:	ff ff ff 
   17005:	c6 85 e3 e5 ff ff db 	movb   $0xdb,-0x1a1d(%rbp)
   1700c:	48 8d 85 2c e6 ff ff 	lea    -0x19d4(%rbp),%rax
   17013:	48 89 85 70 e9 ff ff 	mov    %rax,-0x1690(%rbp)
   1701a:	c6 05 27 ba 00 00 01 	movb   $0x1,0xba27(%rip)        # 22a48 <g_228>
   17021:	8b 85 18 e8 ff ff    	mov    -0x17e8(%rbp),%eax
   17027:	85 c0                	test   %eax,%eax
   17029:	0f 85 95 00 00 00    	jne    170c4 <func_48+0x4e59>
   1702f:	0f b6 9d dd e5 ff ff 	movzbl -0x1a23(%rbp),%ebx
   17036:	83 bd cc e5 ff ff 00 	cmpl   $0x0,-0x1a34(%rbp)
   1703d:	75 5b                	jne    1709a <func_48+0x4e2f>
   1703f:	8b 05 1f ba 00 00    	mov    0xba1f(%rip),%eax        # 22a64 <g_343>
   17045:	89 c2                	mov    %eax,%edx
   17047:	8b 05 5b f5 00 00    	mov    0xf55b(%rip),%eax        # 265a8 <g_342>
   1704d:	0f be c0             	movsbl %al,%eax
   17050:	89 d6                	mov    %edx,%esi
   17052:	89 c7                	mov    %eax,%edi
   17054:	e8 dc 12 ff ff       	callq  8335 <safe_rshift_func_int8_t_s_s>
   17059:	0f be d0             	movsbl %al,%edx
   1705c:	48 8b 85 98 e7 ff ff 	mov    -0x1868(%rbp),%rax
   17063:	0f b7 00             	movzwl (%rax),%eax
   17066:	89 c6                	mov    %eax,%esi
   17068:	0f b6 05 d9 b9 00 00 	movzbl 0xb9d9(%rip),%eax        # 22a48 <g_228>
   1706f:	0f be c8             	movsbl %al,%ecx
   17072:	8b 85 18 e8 ff ff    	mov    -0x17e8(%rbp),%eax
   17078:	21 c8                	and    %ecx,%eax
   1707a:	85 c0                	test   %eax,%eax
   1707c:	0f 95 c0             	setne  %al
   1707f:	0f b6 c0             	movzbl %al,%eax
   17082:	89 f1                	mov    %esi,%ecx
   17084:	21 c1                	and    %eax,%ecx
   17086:	48 8b 85 98 e7 ff ff 	mov    -0x1868(%rbp),%rax
   1708d:	66 89 08             	mov    %cx,(%rax)
   17090:	0f b7 00             	movzwl (%rax),%eax
   17093:	0f b7 c0             	movzwl %ax,%eax
   17096:	39 c2                	cmp    %eax,%edx
   17098:	7e 07                	jle    170a1 <func_48+0x4e36>
   1709a:	ba 01 00 00 00       	mov    $0x1,%edx
   1709f:	eb 05                	jmp    170a6 <func_48+0x4e3b>
   170a1:	ba 00 00 00 00       	mov    $0x0,%edx
   170a6:	8b 85 18 e8 ff ff    	mov    -0x17e8(%rbp),%eax
   170ac:	39 c2                	cmp    %eax,%edx
   170ae:	0f 95 c0             	setne  %al
   170b1:	0f b6 c0             	movzbl %al,%eax
   170b4:	39 85 cc e5 ff ff    	cmp    %eax,-0x1a34(%rbp)
   170ba:	0f 9f c0             	setg   %al
   170bd:	0f b6 c0             	movzbl %al,%eax
   170c0:	39 c3                	cmp    %eax,%ebx
   170c2:	74 07                	je     170cb <func_48+0x4e60>
   170c4:	b8 01 00 00 00       	mov    $0x1,%eax
   170c9:	eb 05                	jmp    170d0 <func_48+0x4e65>
   170cb:	b8 00 00 00 00       	mov    $0x0,%eax
   170d0:	48 98                	cltq   
   170d2:	48 ba 01 9c 5a bb b7 	movabs $0x6a6d2ab7bb5a9c01,%rdx
   170d9:	2a 6d 6a 
   170dc:	48 21 c2             	and    %rax,%rdx
   170df:	48 8b 05 d2 f4 00 00 	mov    0xf4d2(%rip),%rax        # 265b8 <g_887>
   170e6:	48 39 c2             	cmp    %rax,%rdx
   170e9:	0f 9e c0             	setle  %al
   170ec:	0f b6 c0             	movzbl %al,%eax
   170ef:	39 85 cc e5 ff ff    	cmp    %eax,-0x1a34(%rbp)
   170f5:	7e 11                	jle    17108 <func_48+0x4e9d>
   170f7:	8b 85 18 e8 ff ff    	mov    -0x17e8(%rbp),%eax
   170fd:	85 c0                	test   %eax,%eax
   170ff:	74 07                	je     17108 <func_48+0x4e9d>
   17101:	b8 01 00 00 00       	mov    $0x1,%eax
   17106:	eb 05                	jmp    1710d <func_48+0x4ea2>
   17108:	b8 00 00 00 00       	mov    $0x0,%eax
   1710d:	0d 69 45 00 00       	or     $0x4569,%eax
   17112:	89 85 54 f4 ff ff    	mov    %eax,-0xbac(%rbp)
   17118:	80 bd e3 e5 ff ff 00 	cmpb   $0x0,-0x1a1d(%rbp)
   1711f:	0f 85 19 01 00 00    	jne    1723e <func_48+0x4fd3>
   17125:	c7 85 18 e6 ff ff 01 	movl   $0x1,-0x19e8(%rbp)
   1712c:	00 00 00 
   1712f:	e9 db 00 00 00       	jmpq   1720f <func_48+0x4fa4>
   17134:	c7 85 fc e6 ff ff 01 	movl   $0x1,-0x1904(%rbp)
   1713b:	00 00 00 
   1713e:	c7 85 30 e6 ff ff 00 	movl   $0x0,-0x19d0(%rbp)
   17145:	00 00 00 
   17148:	e9 a1 00 00 00       	jmpq   171ee <func_48+0x4f83>
   1714d:	48 c7 85 78 e9 ff ff 	movq   $0x0,-0x1688(%rbp)
   17154:	00 00 00 00 
   17158:	48 c7 85 80 e9 ff ff 	movq   $0x0,-0x1680(%rbp)
   1715f:	00 00 00 00 
   17163:	c7 85 88 e6 ff ff 00 	movl   $0x0,-0x1978(%rbp)
   1716a:	00 00 00 
   1716d:	eb 1b                	jmp    1718a <func_48+0x4f1f>
   1716f:	8b 85 88 e6 ff ff    	mov    -0x1978(%rbp),%eax
   17175:	48 98                	cltq   
   17177:	48 c7 84 c5 d0 f5 ff 	movq   $0x0,-0xa30(%rbp,%rax,8)
   1717e:	ff 00 00 00 00 
   17183:	83 85 88 e6 ff ff 01 	addl   $0x1,-0x1978(%rbp)
   1718a:	83 bd 88 e6 ff ff 04 	cmpl   $0x4,-0x1978(%rbp)
   17191:	7e dc                	jle    1716f <func_48+0x4f04>
   17193:	48 8d 85 18 e8 ff ff 	lea    -0x17e8(%rbp),%rax
   1719a:	48 89 85 a8 e7 ff ff 	mov    %rax,-0x1858(%rbp)
   171a1:	48 8b 85 a8 e7 ff ff 	mov    -0x1858(%rbp),%rax
   171a8:	48 89 85 70 e9 ff ff 	mov    %rax,-0x1690(%rbp)
   171af:	48 8b 85 68 e7 ff ff 	mov    -0x1898(%rbp),%rax
   171b6:	48 8b 00             	mov    (%rax),%rax
   171b9:	48 8b 00             	mov    (%rax),%rax
   171bc:	48 8b 95 70 e9 ff ff 	mov    -0x1690(%rbp),%rdx
   171c3:	48 89 10             	mov    %rdx,(%rax)
   171c6:	48 8b 05 1b d7 00 00 	mov    0xd71b(%rip),%rax        # 248e8 <g_451>
   171cd:	8b 00                	mov    (%rax),%eax
   171cf:	85 c0                	test   %eax,%eax
   171d1:	75 0b                	jne    171de <func_48+0x4f73>
   171d3:	83 bd fc e6 ff ff 00 	cmpl   $0x0,-0x1904(%rbp)
   171da:	75 23                	jne    171ff <func_48+0x4f94>
   171dc:	eb 01                	jmp    171df <func_48+0x4f74>
   171de:	90                   	nop
   171df:	8b 85 30 e6 ff ff    	mov    -0x19d0(%rbp),%eax
   171e5:	83 c0 01             	add    $0x1,%eax
   171e8:	89 85 30 e6 ff ff    	mov    %eax,-0x19d0(%rbp)
   171ee:	8b 85 30 e6 ff ff    	mov    -0x19d0(%rbp),%eax
   171f4:	83 f8 01             	cmp    $0x1,%eax
   171f7:	0f 8e 50 ff ff ff    	jle    1714d <func_48+0x4ee2>
   171fd:	eb 01                	jmp    17200 <func_48+0x4f95>
   171ff:	90                   	nop
   17200:	8b 85 18 e6 ff ff    	mov    -0x19e8(%rbp),%eax
   17206:	83 e8 01             	sub    $0x1,%eax
   17209:	89 85 18 e6 ff ff    	mov    %eax,-0x19e8(%rbp)
   1720f:	8b 85 18 e6 ff ff    	mov    -0x19e8(%rbp),%eax
   17215:	85 c0                	test   %eax,%eax
   17217:	0f 89 17 ff ff ff    	jns    17134 <func_48+0x4ec9>
   1721d:	0f b6 05 bd b7 00 00 	movzbl 0xb7bd(%rip),%eax        # 229e1 <g_15>
   17224:	83 c0 01             	add    $0x1,%eax
   17227:	88 05 b4 b7 00 00    	mov    %al,0xb7b4(%rip)        # 229e1 <g_15>
   1722d:	0f b6 05 ad b7 00 00 	movzbl 0xb7ad(%rip),%eax        # 229e1 <g_15>
   17234:	3c 01                	cmp    $0x1,%al
   17236:	0f 8e 5d fd ff ff    	jle    16f99 <func_48+0x4d2e>
   1723c:	eb 01                	jmp    1723f <func_48+0x4fd4>
   1723e:	90                   	nop
   1723f:	0f b6 05 bc b7 00 00 	movzbl 0xb7bc(%rip),%eax        # 22a02 <g_88>
   17246:	83 c0 01             	add    $0x1,%eax
   17249:	88 05 b3 b7 00 00    	mov    %al,0xb7b3(%rip)        # 22a02 <g_88>
   1724f:	0f b6 05 ac b7 00 00 	movzbl 0xb7ac(%rip),%eax        # 22a02 <g_88>
   17256:	3c 01                	cmp    $0x1,%al
   17258:	0f 86 b6 b4 ff ff    	jbe    12714 <func_48+0x4a9>
   1725e:	48 8b 05 43 d8 00 00 	mov    0xd843(%rip),%rax        # 24aa8 <g_725>
   17265:	48 8b 00             	mov    (%rax),%rax
   17268:	48 8b 00             	mov    (%rax),%rax
   1726b:	48 85 c0             	test   %rax,%rax
   1726e:	0f 84 c6 11 00 00    	je     1843a <func_48+0x61cf>
   17274:	48 c7 85 f0 e7 ff ff 	movq   $0x0,-0x1810(%rbp)
   1727b:	00 00 00 00 
   1727f:	48 8d 05 3a f3 00 00 	lea    0xf33a(%rip),%rax        # 265c0 <g_1145>
   17286:	48 89 85 a0 f3 ff ff 	mov    %rax,-0xc60(%rbp)
   1728d:	48 8d 05 2c f3 00 00 	lea    0xf32c(%rip),%rax        # 265c0 <g_1145>
   17294:	48 89 85 a8 f3 ff ff 	mov    %rax,-0xc58(%rbp)
   1729b:	48 8d 05 1e f3 00 00 	lea    0xf31e(%rip),%rax        # 265c0 <g_1145>
   172a2:	48 89 85 b0 f3 ff ff 	mov    %rax,-0xc50(%rbp)
   172a9:	48 8d 05 10 f3 00 00 	lea    0xf310(%rip),%rax        # 265c0 <g_1145>
   172b0:	48 89 85 b8 f3 ff ff 	mov    %rax,-0xc48(%rbp)
   172b7:	48 8d 05 02 f3 00 00 	lea    0xf302(%rip),%rax        # 265c0 <g_1145>
   172be:	48 89 85 c0 f3 ff ff 	mov    %rax,-0xc40(%rbp)
   172c5:	48 8d 05 f4 f2 00 00 	lea    0xf2f4(%rip),%rax        # 265c0 <g_1145>
   172cc:	48 89 85 c8 f3 ff ff 	mov    %rax,-0xc38(%rbp)
   172d3:	c6 85 e0 e5 ff ff ff 	movb   $0xff,-0x1a20(%rbp)
   172da:	48 8d 05 f7 ba 00 00 	lea    0xbaf7(%rip),%rax        # 22dd8 <g_1492+0xd8>
   172e1:	48 89 85 88 e8 ff ff 	mov    %rax,-0x1778(%rbp)
   172e8:	48 8d 85 a0 f8 ff ff 	lea    -0x760(%rbp),%rax
   172ef:	48 8d 15 0a 73 00 00 	lea    0x730a(%rip),%rdx        # 1e600 <g_4277+0x2540>
   172f6:	b9 38 00 00 00       	mov    $0x38,%ecx
   172fb:	48 89 c7             	mov    %rax,%rdi
   172fe:	48 89 d6             	mov    %rdx,%rsi
   17301:	f3 48 a5             	rep movsq %ds:(%rsi),%es:(%rdi)
   17304:	48 c7 85 90 e8 ff ff 	movq   $0x0,-0x1770(%rbp)
   1730b:	00 00 00 00 
   1730f:	48 8d 85 a0 e7 ff ff 	lea    -0x1860(%rbp),%rax
   17316:	48 89 85 f8 e7 ff ff 	mov    %rax,-0x1808(%rbp)
   1731d:	48 8d 85 f8 e7 ff ff 	lea    -0x1808(%rbp),%rax
   17324:	48 89 85 98 e8 ff ff 	mov    %rax,-0x1768(%rbp)
   1732b:	c7 85 d4 e6 ff ff 01 	movl   $0x1,-0x192c(%rbp)
   17332:	00 00 00 
   17335:	0f b7 05 04 b7 00 00 	movzwl 0xb704(%rip),%eax        # 22a40 <g_195>
   1733c:	44 0f bf e0          	movswl %ax,%r12d
   17340:	0f b7 05 ad b6 00 00 	movzwl 0xb6ad(%rip),%eax        # 229f4 <g_68+0x4>
   17347:	0f b7 c0             	movzwl %ax,%eax
   1734a:	89 c6                	mov    %eax,%esi
   1734c:	bf 00 00 00 00       	mov    $0x0,%edi
   17351:	e8 06 1a ff ff       	callq  8d5c <safe_mod_func_uint16_t_u_u>
   17356:	89 c3                	mov    %eax,%ebx
   17358:	be 00 00 00 00       	mov    $0x0,%esi
   1735d:	bf 01 00 00 00       	mov    $0x1,%edi
   17362:	e8 57 19 ff ff       	callq  8cbe <safe_rshift_func_uint8_t_u_u>
   17367:	0f b6 c0             	movzbl %al,%eax
   1736a:	66 39 c3             	cmp    %ax,%bx
   1736d:	0f 96 c0             	setbe  %al
   17370:	0f b6 c0             	movzbl %al,%eax
   17373:	41 39 c4             	cmp    %eax,%r12d
   17376:	0f 9f c0             	setg   %al
   17379:	88 05 62 b6 00 00    	mov    %al,0xb662(%rip)        # 229e1 <g_15>
   1737f:	0f b6 05 5b b6 00 00 	movzbl 0xb65b(%rip),%eax        # 229e1 <g_15>
   17386:	0f be d0             	movsbl %al,%edx
   17389:	48 8b 85 a8 f3 ff ff 	mov    -0xc58(%rbp),%rax
   17390:	48 85 c0             	test   %rax,%rax
   17393:	0f 95 c0             	setne  %al
   17396:	0f b6 c0             	movzbl %al,%eax
   17399:	39 c2                	cmp    %eax,%edx
   1739b:	0f 9e c0             	setle  %al
   1739e:	0f b6 d8             	movzbl %al,%ebx
   173a1:	8b 95 cc e5 ff ff    	mov    -0x1a34(%rbp),%edx
   173a7:	80 bd e0 e5 ff ff 00 	cmpb   $0x0,-0x1a20(%rbp)
   173ae:	75 09                	jne    173b9 <func_48+0x514e>
   173b0:	83 bd cc e5 ff ff 00 	cmpl   $0x0,-0x1a34(%rbp)
   173b7:	74 07                	je     173c0 <func_48+0x5155>
   173b9:	b8 01 00 00 00       	mov    $0x1,%eax
   173be:	eb 05                	jmp    173c5 <func_48+0x515a>
   173c0:	b8 00 00 00 00       	mov    $0x0,%eax
   173c5:	0f b7 c0             	movzwl %ax,%eax
   173c8:	89 d6                	mov    %edx,%esi
   173ca:	89 c7                	mov    %eax,%edi
   173cc:	e8 35 1a ff ff       	callq  8e06 <safe_lshift_func_uint16_t_u_u>
   173d1:	0f b7 d0             	movzwl %ax,%edx
   173d4:	48 8b 85 88 e8 ff ff 	mov    -0x1778(%rbp),%rax
   173db:	48 89 10             	mov    %rdx,(%rax)
   173de:	48 8b 85 88 e8 ff ff 	mov    -0x1778(%rbp),%rax
   173e5:	48 8b 10             	mov    (%rax),%rdx
   173e8:	8b 85 cc e5 ff ff    	mov    -0x1a34(%rbp),%eax
   173ee:	48 98                	cltq   
   173f0:	48 39 c2             	cmp    %rax,%rdx
   173f3:	0f 9c c0             	setl   %al
   173f6:	0f b6 c0             	movzbl %al,%eax
   173f9:	39 c3                	cmp    %eax,%ebx
   173fb:	0f 9c c0             	setl   %al
   173fe:	0f b6 c0             	movzbl %al,%eax
   17401:	be 00 00 00 00       	mov    $0x0,%esi
   17406:	89 c7                	mov    %eax,%edi
   17408:	e8 30 19 ff ff       	callq  8d3d <safe_mul_func_uint16_t_u_u>
   1740d:	0f b7 c0             	movzwl %ax,%eax
   17410:	39 85 cc e5 ff ff    	cmp    %eax,-0x1a34(%rbp)
   17416:	0f 84 ed 0a 00 00    	je     17f09 <func_48+0x5c9e>
   1741c:	66 c7 85 f8 e5 ff ff 	movw   $0xb6f0,-0x1a08(%rbp)
   17423:	f0 b6 
   17425:	48 8d 85 f0 e7 ff ff 	lea    -0x1810(%rbp),%rax
   1742c:	48 89 85 00 e8 ff ff 	mov    %rax,-0x1800(%rbp)
   17433:	48 8d 85 00 e8 ff ff 	lea    -0x1800(%rbp),%rax
   1743a:	48 89 85 c0 e8 ff ff 	mov    %rax,-0x1740(%rbp)
   17441:	48 8d 05 68 d6 00 00 	lea    0xd668(%rip),%rax        # 24ab0 <g_1144>
   17448:	48 89 85 c8 e8 ff ff 	mov    %rax,-0x1738(%rbp)
   1744f:	48 8d 85 70 e7 ff ff 	lea    -0x1890(%rbp),%rax
   17456:	48 89 85 d0 e8 ff ff 	mov    %rax,-0x1730(%rbp)
   1745d:	48 c7 85 08 e8 ff ff 	movq   $0x0,-0x17f8(%rbp)
   17464:	00 00 00 00 
   17468:	48 8d 85 a0 f0 ff ff 	lea    -0xf60(%rbp),%rax
   1746f:	48 83 c0 08          	add    $0x8,%rax
   17473:	48 89 85 d8 e8 ff ff 	mov    %rax,-0x1728(%rbp)
   1747a:	c7 85 8c e6 ff ff 00 	movl   $0x0,-0x1974(%rbp)
   17481:	00 00 00 
   17484:	eb 1e                	jmp    174a4 <func_48+0x5239>
   17486:	8b 85 8c e6 ff ff    	mov    -0x1974(%rbp),%eax
   1748c:	48 98                	cltq   
   1748e:	48 8d 95 08 e8 ff ff 	lea    -0x17f8(%rbp),%rdx
   17495:	48 89 94 c5 a0 f0 ff 	mov    %rdx,-0xf60(%rbp,%rax,8)
   1749c:	ff 
   1749d:	83 85 8c e6 ff ff 01 	addl   $0x1,-0x1974(%rbp)
   174a4:	83 bd 8c e6 ff ff 02 	cmpl   $0x2,-0x1974(%rbp)
   174ab:	7e d9                	jle    17486 <func_48+0x521b>
   174ad:	c7 05 51 b5 00 00 00 	movl   $0x0,0xb551(%rip)        # 22a08 <g_126>
   174b4:	00 00 00 
   174b7:	e9 a5 05 00 00       	jmpq   17a61 <func_48+0x57f6>
   174bc:	48 8d 05 31 b5 00 00 	lea    0xb531(%rip),%rax        # 229f4 <g_68+0x4>
   174c3:	48 89 85 e0 e8 ff ff 	mov    %rax,-0x1720(%rbp)
   174ca:	c7 85 e0 e6 ff ff 7b 	movl   $0xb444837b,-0x1920(%rbp)
   174d1:	83 44 b4 
   174d4:	48 c7 85 10 e8 ff ff 	movq   $0x0,-0x17f0(%rbp)
   174db:	00 00 00 00 
   174df:	c7 85 90 e6 ff ff 00 	movl   $0x0,-0x1970(%rbp)
   174e6:	00 00 00 
   174e9:	eb 1e                	jmp    17509 <func_48+0x529e>
   174eb:	8b 85 90 e6 ff ff    	mov    -0x1970(%rbp),%eax
   174f1:	48 98                	cltq   
   174f3:	48 8d 95 10 e8 ff ff 	lea    -0x17f0(%rbp),%rdx
   174fa:	48 89 94 c5 f0 f1 ff 	mov    %rdx,-0xe10(%rbp,%rax,8)
   17501:	ff 
   17502:	83 85 90 e6 ff ff 01 	addl   $0x1,-0x1970(%rbp)
   17509:	83 bd 90 e6 ff ff 02 	cmpl   $0x2,-0x1970(%rbp)
   17510:	7e d9                	jle    174eb <func_48+0x5280>
   17512:	48 8d 85 a0 f3 ff ff 	lea    -0xc60(%rbp),%rax
   17519:	48 83 c0 08          	add    $0x8,%rax
   1751d:	48 89 85 d0 f5 ff ff 	mov    %rax,-0xa30(%rbp)
   17524:	48 8d 85 a0 f3 ff ff 	lea    -0xc60(%rbp),%rax
   1752b:	48 83 c0 20          	add    $0x20,%rax
   1752f:	48 89 85 d8 f5 ff ff 	mov    %rax,-0xa28(%rbp)
   17536:	48 8d 85 a0 f3 ff ff 	lea    -0xc60(%rbp),%rax
   1753d:	48 83 c0 08          	add    $0x8,%rax
   17541:	48 89 85 e0 f5 ff ff 	mov    %rax,-0xa20(%rbp)
   17548:	48 8d 85 a0 f3 ff ff 	lea    -0xc60(%rbp),%rax
   1754f:	48 83 c0 08          	add    $0x8,%rax
   17553:	48 89 85 e8 f5 ff ff 	mov    %rax,-0xa18(%rbp)
   1755a:	48 8d 85 a0 f3 ff ff 	lea    -0xc60(%rbp),%rax
   17561:	48 83 c0 08          	add    $0x8,%rax
   17565:	48 89 85 f0 f5 ff ff 	mov    %rax,-0xa10(%rbp)
   1756c:	48 8d 85 a0 f3 ff ff 	lea    -0xc60(%rbp),%rax
   17573:	48 83 c0 08          	add    $0x8,%rax
   17577:	48 89 85 f8 f5 ff ff 	mov    %rax,-0xa08(%rbp)
   1757e:	48 8d 85 a0 f3 ff ff 	lea    -0xc60(%rbp),%rax
   17585:	48 83 c0 08          	add    $0x8,%rax
   17589:	48 89 85 00 f6 ff ff 	mov    %rax,-0xa00(%rbp)
   17590:	48 8d 85 a0 f3 ff ff 	lea    -0xc60(%rbp),%rax
   17597:	48 83 c0 08          	add    $0x8,%rax
   1759b:	48 89 85 08 f6 ff ff 	mov    %rax,-0x9f8(%rbp)
   175a2:	48 8d 85 a0 f3 ff ff 	lea    -0xc60(%rbp),%rax
   175a9:	48 83 c0 08          	add    $0x8,%rax
   175ad:	48 89 85 10 f6 ff ff 	mov    %rax,-0x9f0(%rbp)
   175b4:	48 8d 85 a0 f3 ff ff 	lea    -0xc60(%rbp),%rax
   175bb:	48 83 c0 08          	add    $0x8,%rax
   175bf:	48 89 85 18 f6 ff ff 	mov    %rax,-0x9e8(%rbp)
   175c6:	48 8d 85 a0 f3 ff ff 	lea    -0xc60(%rbp),%rax
   175cd:	48 83 c0 08          	add    $0x8,%rax
   175d1:	48 89 85 20 f6 ff ff 	mov    %rax,-0x9e0(%rbp)
   175d8:	48 8d 85 a0 f3 ff ff 	lea    -0xc60(%rbp),%rax
   175df:	48 83 c0 20          	add    $0x20,%rax
   175e3:	48 89 85 28 f6 ff ff 	mov    %rax,-0x9d8(%rbp)
   175ea:	48 8d 85 a0 f3 ff ff 	lea    -0xc60(%rbp),%rax
   175f1:	48 83 c0 08          	add    $0x8,%rax
   175f5:	48 89 85 30 f6 ff ff 	mov    %rax,-0x9d0(%rbp)
   175fc:	48 8d 85 a0 f3 ff ff 	lea    -0xc60(%rbp),%rax
   17603:	48 89 85 38 f6 ff ff 	mov    %rax,-0x9c8(%rbp)
   1760a:	48 8d 85 a0 f3 ff ff 	lea    -0xc60(%rbp),%rax
   17611:	48 83 c0 08          	add    $0x8,%rax
   17615:	48 89 85 40 f6 ff ff 	mov    %rax,-0x9c0(%rbp)
   1761c:	48 c7 85 48 f6 ff ff 	movq   $0x0,-0x9b8(%rbp)
   17623:	00 00 00 00 
   17627:	48 8d 85 a0 f3 ff ff 	lea    -0xc60(%rbp),%rax
   1762e:	48 83 c0 28          	add    $0x28,%rax
   17632:	48 89 85 50 f6 ff ff 	mov    %rax,-0x9b0(%rbp)
   17639:	48 8d 85 a0 f3 ff ff 	lea    -0xc60(%rbp),%rax
   17640:	48 89 85 58 f6 ff ff 	mov    %rax,-0x9a8(%rbp)
   17647:	48 8d 85 a0 f3 ff ff 	lea    -0xc60(%rbp),%rax
   1764e:	48 83 c0 28          	add    $0x28,%rax
   17652:	48 89 85 60 f6 ff ff 	mov    %rax,-0x9a0(%rbp)
   17659:	48 c7 85 68 f6 ff ff 	movq   $0x0,-0x998(%rbp)
   17660:	00 00 00 00 
   17664:	48 8d 85 a0 f3 ff ff 	lea    -0xc60(%rbp),%rax
   1766b:	48 83 c0 08          	add    $0x8,%rax
   1766f:	48 89 85 70 f6 ff ff 	mov    %rax,-0x990(%rbp)
   17676:	48 8d 85 a0 f3 ff ff 	lea    -0xc60(%rbp),%rax
   1767d:	48 89 85 78 f6 ff ff 	mov    %rax,-0x988(%rbp)
   17684:	48 8d 85 a0 f3 ff ff 	lea    -0xc60(%rbp),%rax
   1768b:	48 83 c0 08          	add    $0x8,%rax
   1768f:	48 89 85 80 f6 ff ff 	mov    %rax,-0x980(%rbp)
   17696:	48 8d 85 a0 f3 ff ff 	lea    -0xc60(%rbp),%rax
   1769d:	48 83 c0 20          	add    $0x20,%rax
   176a1:	48 89 85 88 f6 ff ff 	mov    %rax,-0x978(%rbp)
   176a8:	48 8d 85 a0 f3 ff ff 	lea    -0xc60(%rbp),%rax
   176af:	48 83 c0 08          	add    $0x8,%rax
   176b3:	48 89 85 90 f6 ff ff 	mov    %rax,-0x970(%rbp)
   176ba:	48 8d 85 a0 f3 ff ff 	lea    -0xc60(%rbp),%rax
   176c1:	48 83 c0 08          	add    $0x8,%rax
   176c5:	48 89 85 98 f6 ff ff 	mov    %rax,-0x968(%rbp)
   176cc:	48 8d 85 a0 f3 ff ff 	lea    -0xc60(%rbp),%rax
   176d3:	48 83 c0 08          	add    $0x8,%rax
   176d7:	48 89 85 a0 f6 ff ff 	mov    %rax,-0x960(%rbp)
   176de:	48 8d 85 a0 f3 ff ff 	lea    -0xc60(%rbp),%rax
   176e5:	48 83 c0 08          	add    $0x8,%rax
   176e9:	48 89 85 a8 f6 ff ff 	mov    %rax,-0x958(%rbp)
   176f0:	48 8d 85 a0 f3 ff ff 	lea    -0xc60(%rbp),%rax
   176f7:	48 83 c0 08          	add    $0x8,%rax
   176fb:	48 89 85 b0 f6 ff ff 	mov    %rax,-0x950(%rbp)
   17702:	48 8d 85 a0 f3 ff ff 	lea    -0xc60(%rbp),%rax
   17709:	48 83 c0 08          	add    $0x8,%rax
   1770d:	48 89 85 b8 f6 ff ff 	mov    %rax,-0x948(%rbp)
   17714:	48 8d 85 a0 f3 ff ff 	lea    -0xc60(%rbp),%rax
   1771b:	48 83 c0 08          	add    $0x8,%rax
   1771f:	48 89 85 c0 f6 ff ff 	mov    %rax,-0x940(%rbp)
   17726:	48 8d 85 a0 f3 ff ff 	lea    -0xc60(%rbp),%rax
   1772d:	48 83 c0 08          	add    $0x8,%rax
   17731:	48 89 85 c8 f6 ff ff 	mov    %rax,-0x938(%rbp)
   17738:	48 8d 85 a0 f3 ff ff 	lea    -0xc60(%rbp),%rax
   1773f:	48 83 c0 08          	add    $0x8,%rax
   17743:	48 89 85 d0 f6 ff ff 	mov    %rax,-0x930(%rbp)
   1774a:	48 8d 85 a0 f3 ff ff 	lea    -0xc60(%rbp),%rax
   17751:	48 83 c0 20          	add    $0x20,%rax
   17755:	48 89 85 d8 f6 ff ff 	mov    %rax,-0x928(%rbp)
   1775c:	48 8d 85 a0 f3 ff ff 	lea    -0xc60(%rbp),%rax
   17763:	48 83 c0 08          	add    $0x8,%rax
   17767:	48 89 85 e0 f6 ff ff 	mov    %rax,-0x920(%rbp)
   1776e:	48 8d 85 a0 f3 ff ff 	lea    -0xc60(%rbp),%rax
   17775:	48 89 85 e8 f6 ff ff 	mov    %rax,-0x918(%rbp)
   1777c:	48 8d 85 a0 f3 ff ff 	lea    -0xc60(%rbp),%rax
   17783:	48 83 c0 08          	add    $0x8,%rax
   17787:	48 89 85 f0 f6 ff ff 	mov    %rax,-0x910(%rbp)
   1778e:	48 c7 85 f8 f6 ff ff 	movq   $0x0,-0x908(%rbp)
   17795:	00 00 00 00 
   17799:	48 8d 85 a0 f3 ff ff 	lea    -0xc60(%rbp),%rax
   177a0:	48 83 c0 28          	add    $0x28,%rax
   177a4:	48 89 85 00 f7 ff ff 	mov    %rax,-0x900(%rbp)
   177ab:	48 8d 85 a0 f3 ff ff 	lea    -0xc60(%rbp),%rax
   177b2:	48 89 85 08 f7 ff ff 	mov    %rax,-0x8f8(%rbp)
   177b9:	48 8d 85 a0 f3 ff ff 	lea    -0xc60(%rbp),%rax
   177c0:	48 83 c0 28          	add    $0x28,%rax
   177c4:	48 89 85 10 f7 ff ff 	mov    %rax,-0x8f0(%rbp)
   177cb:	48 c7 85 18 f7 ff ff 	movq   $0x0,-0x8e8(%rbp)
   177d2:	00 00 00 00 
   177d6:	48 8d 85 a0 f3 ff ff 	lea    -0xc60(%rbp),%rax
   177dd:	48 83 c0 08          	add    $0x8,%rax
   177e1:	48 89 85 20 f7 ff ff 	mov    %rax,-0x8e0(%rbp)
   177e8:	48 8d 85 a0 f3 ff ff 	lea    -0xc60(%rbp),%rax
   177ef:	48 89 85 28 f7 ff ff 	mov    %rax,-0x8d8(%rbp)
   177f6:	48 8d 85 a0 f3 ff ff 	lea    -0xc60(%rbp),%rax
   177fd:	48 83 c0 08          	add    $0x8,%rax
   17801:	48 89 85 30 f7 ff ff 	mov    %rax,-0x8d0(%rbp)
   17808:	48 8d 85 a0 f3 ff ff 	lea    -0xc60(%rbp),%rax
   1780f:	48 83 c0 20          	add    $0x20,%rax
   17813:	48 89 85 38 f7 ff ff 	mov    %rax,-0x8c8(%rbp)
   1781a:	48 8d 85 a0 f3 ff ff 	lea    -0xc60(%rbp),%rax
   17821:	48 83 c0 08          	add    $0x8,%rax
   17825:	48 89 85 40 f7 ff ff 	mov    %rax,-0x8c0(%rbp)
   1782c:	48 8d 85 a0 f3 ff ff 	lea    -0xc60(%rbp),%rax
   17833:	48 83 c0 08          	add    $0x8,%rax
   17837:	48 89 85 48 f7 ff ff 	mov    %rax,-0x8b8(%rbp)
   1783e:	48 8d 85 d0 f5 ff ff 	lea    -0xa30(%rbp),%rax
   17845:	48 83 c0 68          	add    $0x68,%rax
   17849:	48 89 85 18 e8 ff ff 	mov    %rax,-0x17e8(%rbp)
   17850:	48 8d 85 18 e8 ff ff 	lea    -0x17e8(%rbp),%rax
   17857:	48 89 85 e8 e8 ff ff 	mov    %rax,-0x1718(%rbp)
   1785e:	48 c7 85 f0 e8 ff ff 	movq   $0x0,-0x1710(%rbp)
   17865:	00 00 00 00 
   17869:	0f b6 95 e0 e5 ff ff 	movzbl -0x1a20(%rbp),%edx
   17870:	8b 85 10 e6 ff ff    	mov    -0x19f0(%rbp),%eax
   17876:	31 d0                	xor    %edx,%eax
   17878:	89 85 10 e6 ff ff    	mov    %eax,-0x19f0(%rbp)
   1787e:	c7 85 28 e6 ff ff 00 	movl   $0x0,-0x19d8(%rbp)
   17885:	00 00 00 
   17888:	e9 46 01 00 00       	jmpq   179d3 <func_48+0x5768>
   1788d:	48 8d 05 ac b1 00 00 	lea    0xb1ac(%rip),%rax        # 22a40 <g_195>
   17894:	48 89 85 f8 e8 ff ff 	mov    %rax,-0x1708(%rbp)
   1789b:	c7 85 e4 e6 ff ff ff 	movl   $0xffffffff,-0x191c(%rbp)
   178a2:	ff ff ff 
   178a5:	0f b7 05 1e b4 00 00 	movzwl 0xb41e(%rip),%eax        # 22cca <g_1177+0xa>
   178ac:	89 c2                	mov    %eax,%edx
   178ae:	48 8b 85 f8 e8 ff ff 	mov    -0x1708(%rbp),%rax
   178b5:	66 89 10             	mov    %dx,(%rax)
   178b8:	48 8b 85 f8 e8 ff ff 	mov    -0x1708(%rbp),%rax
   178bf:	0f b7 00             	movzwl (%rax),%eax
   178c2:	98                   	cwtl   
   178c3:	be 05 00 00 00       	mov    $0x5,%esi
   178c8:	89 c7                	mov    %eax,%edi
   178ca:	e8 c3 0b ff ff       	callq  8492 <safe_lshift_func_int16_t_s_s>
   178cf:	8b 9d e4 e6 ff ff    	mov    -0x191c(%rbp),%ebx
   178d5:	83 bd e0 e6 ff ff 00 	cmpl   $0x0,-0x1920(%rbp)
   178dc:	75 57                	jne    17935 <func_48+0x56ca>
   178de:	8b 85 cc e5 ff ff    	mov    -0x1a34(%rbp),%eax
   178e4:	44 0f b6 e0          	movzbl %al,%r12d
   178e8:	8b 85 e0 e6 ff ff    	mov    -0x1920(%rbp),%eax
   178ee:	0f b6 d0             	movzbl %al,%edx
   178f1:	48 8b 85 e8 e8 ff ff 	mov    -0x1718(%rbp),%rax
   178f8:	48 89 85 00 f2 ff ff 	mov    %rax,-0xe00(%rbp)
   178ff:	48 8b 85 00 f2 ff ff 	mov    -0xe00(%rbp),%rax
   17906:	48 8d 0d 53 d4 00 00 	lea    0xd453(%rip),%rcx        # 24d60 <g_1142>
   1790d:	48 39 c8             	cmp    %rcx,%rax
   17910:	0f 95 c0             	setne  %al
   17913:	0f b6 c0             	movzbl %al,%eax
   17916:	89 d6                	mov    %edx,%esi
   17918:	89 c7                	mov    %eax,%edi
   1791a:	e8 74 12 ff ff       	callq  8b93 <safe_mul_func_uint8_t_u_u>
   1791f:	0f b6 c0             	movzbl %al,%eax
   17922:	44 89 e6             	mov    %r12d,%esi
   17925:	89 c7                	mov    %eax,%edi
   17927:	e8 4c 12 ff ff       	callq  8b78 <safe_sub_func_uint8_t_u_u>
   1792c:	0f b6 c0             	movzbl %al,%eax
   1792f:	39 85 cc e5 ff ff    	cmp    %eax,-0x1a34(%rbp)
   17935:	89 de                	mov    %ebx,%esi
   17937:	bf 00 00 00 00       	mov    $0x0,%edi
   1793c:	e8 a0 0b ff ff       	callq  84e1 <safe_lshift_func_int16_t_s_u>
   17941:	48 8b 85 f8 e8 ff ff 	mov    -0x1708(%rbp),%rax
   17948:	66 c7 00 d8 6f       	movw   $0x6fd8,(%rax)
   1794d:	48 8b 85 f8 e8 ff ff 	mov    -0x1708(%rbp),%rax
   17954:	0f b7 00             	movzwl (%rax),%eax
   17957:	98                   	cwtl   
   17958:	be c1 a6 ff ff       	mov    $0xffffa6c1,%esi
   1795d:	89 c7                	mov    %eax,%edi
   1795f:	e8 f1 0a ff ff       	callq  8455 <safe_div_func_int16_t_s_s>
   17964:	0f bf d0             	movswl %ax,%edx
   17967:	8b 05 df b9 00 00    	mov    0xb9df(%rip),%eax        # 2334c <g_1920>
   1796d:	39 c2                	cmp    %eax,%edx
   1796f:	0f 9d c0             	setge  %al
   17972:	0f b6 c0             	movzbl %al,%eax
   17975:	be 01 00 00 00       	mov    $0x1,%esi
   1797a:	89 c7                	mov    %eax,%edi
   1797c:	e8 eb 09 ff ff       	callq  836c <safe_rshift_func_int8_t_s_u>
   17981:	48 0f be d0          	movsbq %al,%rdx
   17985:	48 8b 85 88 e8 ff ff 	mov    -0x1778(%rbp),%rax
   1798c:	48 89 10             	mov    %rdx,(%rax)
   1798f:	48 8b 85 88 e8 ff ff 	mov    -0x1778(%rbp),%rax
   17996:	48 8b 00             	mov    (%rax),%rax
   17999:	25 f2 34 6a e3       	and    $0xe36a34f2,%eax
   1799e:	89 85 08 e6 ff ff    	mov    %eax,-0x19f8(%rbp)
   179a4:	48 8b 85 58 e7 ff ff 	mov    -0x18a8(%rbp),%rax
   179ab:	48 8b 95 f0 e8 ff ff 	mov    -0x1710(%rbp),%rdx
   179b2:	48 89 10             	mov    %rdx,(%rax)
   179b5:	48 8b 05 2c cf 00 00 	mov    0xcf2c(%rip),%rax        # 248e8 <g_451>
   179bc:	8b 95 cc e5 ff ff    	mov    -0x1a34(%rbp),%edx
   179c2:	89 10                	mov    %edx,(%rax)
   179c4:	8b 85 28 e6 ff ff    	mov    -0x19d8(%rbp),%eax
   179ca:	83 c0 01             	add    $0x1,%eax
   179cd:	89 85 28 e6 ff ff    	mov    %eax,-0x19d8(%rbp)
   179d3:	8b 85 28 e6 ff ff    	mov    -0x19d8(%rbp),%eax
   179d9:	83 f8 16             	cmp    $0x16,%eax
   179dc:	0f 8f ab fe ff ff    	jg     1788d <func_48+0x5622>
   179e2:	c6 05 27 b0 00 00 00 	movb   $0x0,0xb027(%rip)        # 22a10 <g_144>
   179e9:	90                   	nop
   179ea:	0f b6 05 1f b0 00 00 	movzbl 0xb01f(%rip),%eax        # 22a10 <g_144>
   179f1:	3c 06                	cmp    $0x6,%al
   179f3:	76 1a                	jbe    17a0f <func_48+0x57a4>
   179f5:	66 83 bd f8 e5 ff ff 	cmpw   $0x0,-0x1a08(%rbp)
   179fc:	00 
   179fd:	75 0f                	jne    17a0e <func_48+0x57a3>
   179ff:	48 8b 05 9a d0 00 00 	mov    0xd09a(%rip),%rax        # 24aa0 <g_726>
   17a06:	48 8b 00             	mov    (%rax),%rax
   17a09:	e9 41 0e 00 00       	jmpq   1884f <func_48+0x65e4>
   17a0e:	90                   	nop
   17a0f:	66 c7 05 e8 af 00 00 	movw   $0x4,0xafe8(%rip)        # 22a00 <g_79>
   17a16:	04 00 
   17a18:	90                   	nop
   17a19:	0f b7 05 e0 af 00 00 	movzwl 0xafe0(%rip),%eax        # 22a00 <g_79>
   17a20:	66 85 c0             	test   %ax,%ax
   17a23:	78 0c                	js     17a31 <func_48+0x57c6>
   17a25:	0f b7 85 f8 e5 ff ff 	movzwl -0x1a08(%rbp),%eax
   17a2c:	e9 1e 0e 00 00       	jmpq   1884f <func_48+0x65e4>
   17a31:	48 8b 15 90 cf 00 00 	mov    0xcf90(%rip),%rdx        # 249c8 <g_683>
   17a38:	48 8b 05 91 cf 00 00 	mov    0xcf91(%rip),%rax        # 249d0 <g_682>
   17a3f:	48 8b 00             	mov    (%rax),%rax
   17a42:	48 8b 12             	mov    (%rdx),%rdx
   17a45:	48 89 10             	mov    %rdx,(%rax)
   17a48:	8b 85 8c f9 ff ff    	mov    -0x674(%rbp),%eax
   17a4e:	85 c0                	test   %eax,%eax
   17a50:	75 20                	jne    17a72 <func_48+0x5807>
   17a52:	8b 05 b0 af 00 00    	mov    0xafb0(%rip),%eax        # 22a08 <g_126>
   17a58:	83 c0 01             	add    $0x1,%eax
   17a5b:	89 05 a7 af 00 00    	mov    %eax,0xafa7(%rip)        # 22a08 <g_126>
   17a61:	8b 05 a1 af 00 00    	mov    0xafa1(%rip),%eax        # 22a08 <g_126>
   17a67:	83 f8 0e             	cmp    $0xe,%eax
   17a6a:	0f 85 4c fa ff ff    	jne    174bc <func_48+0x5251>
   17a70:	eb 01                	jmp    17a73 <func_48+0x5808>
   17a72:	90                   	nop
   17a73:	66 c7 05 88 af 00 00 	movw   $0x0,0xaf88(%rip)        # 22a04 <g_98>
   17a7a:	00 00 
   17a7c:	eb 7a                	jmp    17af8 <func_48+0x588d>
   17a7e:	66 c7 85 fa e5 ff ff 	movw   $0x2,-0x1a06(%rbp)
   17a85:	02 00 
   17a87:	c7 85 f0 e6 ff ff 07 	movl   $0x7,-0x1910(%rbp)
   17a8e:	00 00 00 
   17a91:	c7 85 f4 e6 ff ff 70 	movl   $0x6f8dfa70,-0x190c(%rbp)
   17a98:	fa 8d 6f 
   17a9b:	8b 85 90 f9 ff ff    	mov    -0x670(%rbp),%eax
   17aa1:	89 c2                	mov    %eax,%edx
   17aa3:	0f b6 85 e0 e5 ff ff 	movzbl -0x1a20(%rbp),%eax
   17aaa:	09 d0                	or     %edx,%eax
   17aac:	0f b6 c0             	movzbl %al,%eax
   17aaf:	be 00 00 00 00       	mov    $0x0,%esi
   17ab4:	89 c7                	mov    %eax,%edi
   17ab6:	e8 9f 10 ff ff       	callq  8b5a <safe_add_func_uint8_t_u_u>
   17abb:	0f b7 05 42 af 00 00 	movzwl 0xaf42(%rip),%eax        # 22a04 <g_98>
   17ac2:	0f b7 c0             	movzwl %ax,%eax
   17ac5:	48 98                	cltq   
   17ac7:	48 8b 84 c5 40 ec ff 	mov    -0x13c0(%rbp,%rax,8),%rax
   17ace:	ff 
   17acf:	48 85 c0             	test   %rax,%rax
   17ad2:	0f 95 c0             	setne  %al
   17ad5:	0f b6 d0             	movzbl %al,%edx
   17ad8:	48 8b 05 09 ce 00 00 	mov    0xce09(%rip),%rax        # 248e8 <g_451>
   17adf:	0b 95 cc e5 ff ff    	or     -0x1a34(%rbp),%edx
   17ae5:	89 10                	mov    %edx,(%rax)
   17ae7:	0f b7 05 16 af 00 00 	movzwl 0xaf16(%rip),%eax        # 22a04 <g_98>
   17aee:	83 c0 01             	add    $0x1,%eax
   17af1:	66 89 05 0c af 00 00 	mov    %ax,0xaf0c(%rip)        # 22a04 <g_98>
   17af8:	0f b7 05 05 af 00 00 	movzwl 0xaf05(%rip),%eax        # 22a04 <g_98>
   17aff:	66 83 f8 02          	cmp    $0x2,%ax
   17b03:	0f 86 75 ff ff ff    	jbe    17a7e <func_48+0x5813>
   17b09:	48 c7 85 80 e7 ff ff 	movq   $0x0,-0x1880(%rbp)
   17b10:	00 00 00 00 
   17b14:	e9 da 03 00 00       	jmpq   17ef3 <func_48+0x5c88>
   17b19:	48 8d 05 90 ea 00 00 	lea    0xea90(%rip),%rax        # 265b0 <g_783>
   17b20:	48 89 85 00 e9 ff ff 	mov    %rax,-0x1700(%rbp)
   17b27:	c7 85 e8 e6 ff ff 01 	movl   $0x1,-0x1918(%rbp)
   17b2e:	00 00 00 
   17b31:	48 8d 85 b0 e7 ff ff 	lea    -0x1850(%rbp),%rax
   17b38:	48 89 85 08 e9 ff ff 	mov    %rax,-0x16f8(%rbp)
   17b3f:	48 8b 85 00 e9 ff ff 	mov    -0x1700(%rbp),%rax
   17b46:	48 c7 00 00 00 00 00 	movq   $0x0,(%rax)
   17b4d:	48 8b 85 00 e9 ff ff 	mov    -0x1700(%rbp),%rax
   17b54:	4c 8b 20             	mov    (%rax),%r12
   17b57:	8b 85 cc e5 ff ff    	mov    -0x1a34(%rbp),%eax
   17b5d:	0f be d8             	movsbl %al,%ebx
   17b60:	8b 85 cc e5 ff ff    	mov    -0x1a34(%rbp),%eax
   17b66:	0f b6 c0             	movzbl %al,%eax
   17b69:	48 8b 15 98 ea 00 00 	mov    0xea98(%rip),%rdx        # 26608 <g_1520>
   17b70:	48 39 95 d0 e8 ff ff 	cmp    %rdx,-0x1730(%rbp)
   17b77:	0f 95 c2             	setne  %dl
   17b7a:	88 15 c8 ae 00 00    	mov    %dl,0xaec8(%rip)        # 22a48 <g_228>
   17b80:	0f b6 15 c1 ae 00 00 	movzbl 0xaec1(%rip),%edx        # 22a48 <g_228>
   17b87:	0f be d2             	movsbl %dl,%edx
   17b8a:	39 95 e8 e6 ff ff    	cmp    %edx,-0x1918(%rbp)
   17b90:	75 08                	jne    17b9a <func_48+0x592f>
   17b92:	66 83 bd f8 e5 ff ff 	cmpw   $0x0,-0x1a08(%rbp)
   17b99:	00 
   17b9a:	89 c6                	mov    %eax,%esi
   17b9c:	bf 01 00 00 00       	mov    $0x1,%edi
   17ba1:	e8 d2 0f ff ff       	callq  8b78 <safe_sub_func_uint8_t_u_u>
   17ba6:	be 07 00 00 00       	mov    $0x7,%esi
   17bab:	bf ef ff ff ff       	mov    $0xffffffef,%edi
   17bb0:	e8 80 07 ff ff       	callq  8335 <safe_rshift_func_int8_t_s_s>
   17bb5:	0f be c0             	movsbl %al,%eax
   17bb8:	be 00 00 00 00       	mov    $0x0,%esi
   17bbd:	89 c7                	mov    %eax,%edi
   17bbf:	e8 31 08 ff ff       	callq  83f5 <safe_mul_func_int16_t_s_s>
   17bc4:	98                   	cwtl   
   17bc5:	0b 85 cc e5 ff ff    	or     -0x1a34(%rbp),%eax
   17bcb:	0b 85 cc e5 ff ff    	or     -0x1a34(%rbp),%eax
   17bd1:	85 c0                	test   %eax,%eax
   17bd3:	75 0b                	jne    17be0 <func_48+0x5975>
   17bd5:	0f b6 05 6c b7 00 00 	movzbl 0xb76c(%rip),%eax        # 23348 <g_1641>
   17bdc:	84 c0                	test   %al,%al
   17bde:	74 07                	je     17be7 <func_48+0x597c>
   17be0:	b8 01 00 00 00       	mov    $0x1,%eax
   17be5:	eb 05                	jmp    17bec <func_48+0x5981>
   17be7:	b8 00 00 00 00       	mov    $0x0,%eax
   17bec:	48 98                	cltq   
   17bee:	48 be 0b b9 5b af 4a 	movabs $0x5c23964aaf5bb90b,%rsi
   17bf5:	96 23 5c 
   17bf8:	48 89 c7             	mov    %rax,%rdi
   17bfb:	e8 4b 14 ff ff       	callq  904b <safe_sub_func_uint64_t_u_u>
   17c00:	48 8b 85 d8 e8 ff ff 	mov    -0x1728(%rbp),%rax
   17c07:	48 3b 85 90 e8 ff ff 	cmp    -0x1770(%rbp),%rax
   17c0e:	0f b7 05 3b b7 00 00 	movzwl 0xb73b(%rip),%eax        # 23350 <g_1985>
   17c15:	89 c2                	mov    %eax,%edx
   17c17:	8b 85 cc e5 ff ff    	mov    -0x1a34(%rbp),%eax
   17c1d:	09 d0                	or     %edx,%eax
   17c1f:	0f b6 c0             	movzbl %al,%eax
   17c22:	be 05 00 00 00       	mov    $0x5,%esi
   17c27:	89 c7                	mov    %eax,%edi
   17c29:	e8 5f 10 ff ff       	callq  8c8d <safe_rshift_func_uint8_t_u_s>
   17c2e:	84 c0                	test   %al,%al
   17c30:	83 bd cc e5 ff ff 01 	cmpl   $0x1,-0x1a34(%rbp)
   17c37:	7f 10                	jg     17c49 <func_48+0x59de>
   17c39:	83 bd cc e5 ff ff 00 	cmpl   $0x0,-0x1a34(%rbp)
   17c40:	74 07                	je     17c49 <func_48+0x59de>
   17c42:	b8 01 00 00 00       	mov    $0x1,%eax
   17c47:	eb 05                	jmp    17c4e <func_48+0x59e3>
   17c49:	b8 00 00 00 00       	mov    $0x0,%eax
   17c4e:	0f be c0             	movsbl %al,%eax
   17c51:	89 de                	mov    %ebx,%esi
   17c53:	89 c7                	mov    %eax,%edi
   17c55:	e8 10 06 ff ff       	callq  826a <safe_div_func_int8_t_s_s>
   17c5a:	48 8b 85 b0 e7 ff ff 	mov    -0x1850(%rbp),%rax
   17c61:	48 89 85 98 e8 ff ff 	mov    %rax,-0x1768(%rbp)
   17c68:	48 8b 85 08 e9 ff ff 	mov    -0x16f8(%rbp),%rax
   17c6f:	48 8b 95 98 e8 ff ff 	mov    -0x1768(%rbp),%rdx
   17c76:	48 89 10             	mov    %rdx,(%rax)
   17c79:	48 8b 85 08 e9 ff ff 	mov    -0x16f8(%rbp),%rax
   17c80:	48 8b 00             	mov    (%rax),%rax
   17c83:	49 39 c4             	cmp    %rax,%r12
   17c86:	0f 95 c2             	setne  %dl
   17c89:	48 8b 05 58 cc 00 00 	mov    0xcc58(%rip),%rax        # 248e8 <g_451>
   17c90:	0f b6 d2             	movzbl %dl,%edx
   17c93:	89 10                	mov    %edx,(%rax)
   17c95:	48 c7 05 b0 ad 00 00 	movq   $0x0,0xadb0(%rip)        # 22a50 <g_232>
   17c9c:	00 00 00 00 
   17ca0:	e9 2b 02 00 00       	jmpq   17ed0 <func_48+0x5c65>
   17ca5:	48 8d 85 f0 e7 ff ff 	lea    -0x1810(%rbp),%rax
   17cac:	48 89 85 18 e8 ff ff 	mov    %rax,-0x17e8(%rbp)
   17cb3:	48 8d 05 36 b0 00 00 	lea    0xb036(%rip),%rax        # 22cf0 <g_1182+0x10>
   17cba:	48 89 85 10 e9 ff ff 	mov    %rax,-0x16f0(%rbp)
   17cc1:	c7 85 ec e6 ff ff 22 	movl   $0xaf61922,-0x1914(%rbp)
   17cc8:	19 f6 0a 
   17ccb:	c7 85 94 e6 ff ff 00 	movl   $0x0,-0x196c(%rbp)
   17cd2:	00 00 00 
   17cd5:	eb 1e                	jmp    17cf5 <func_48+0x5a8a>
   17cd7:	8b 85 94 e6 ff ff    	mov    -0x196c(%rbp),%eax
   17cdd:	48 98                	cltq   
   17cdf:	48 8d 95 18 e8 ff ff 	lea    -0x17e8(%rbp),%rdx
   17ce6:	48 89 94 c5 d0 f5 ff 	mov    %rdx,-0xa30(%rbp,%rax,8)
   17ced:	ff 
   17cee:	83 85 94 e6 ff ff 01 	addl   $0x1,-0x196c(%rbp)
   17cf5:	83 bd 94 e6 ff ff 00 	cmpl   $0x0,-0x196c(%rbp)
   17cfc:	7e d9                	jle    17cd7 <func_48+0x5a6c>
   17cfe:	be 02 00 00 00       	mov    $0x2,%esi
   17d03:	bf ca 00 00 00       	mov    $0xca,%edi
   17d08:	e8 b1 0f ff ff       	callq  8cbe <safe_rshift_func_uint8_t_u_u>
   17d0d:	48 c7 05 c0 d0 00 00 	movq   $0x0,0xd0c0(%rip)        # 24dd8 <g_2016>
   17d14:	00 00 00 00 
   17d18:	48 8b 05 b9 d0 00 00 	mov    0xd0b9(%rip),%rax        # 24dd8 <g_2016>
   17d1f:	48 8d 15 8a e8 00 00 	lea    0xe88a(%rip),%rdx        # 265b0 <g_783>
   17d26:	48 39 d0             	cmp    %rdx,%rax
   17d29:	48 8b 95 d0 f5 ff ff 	mov    -0xa30(%rbp),%rdx
   17d30:	48 8d 85 00 e8 ff ff 	lea    -0x1800(%rbp),%rax
   17d37:	48 39 c2             	cmp    %rax,%rdx
   17d3a:	0f 95 c0             	setne  %al
   17d3d:	0f b6 c0             	movzbl %al,%eax
   17d40:	39 85 cc e5 ff ff    	cmp    %eax,-0x1a34(%rbp)
   17d46:	bf 01 00 00 00       	mov    $0x1,%edi
   17d4b:	e8 c9 12 ff ff       	callq  9019 <safe_unary_minus_func_uint64_t_u>
   17d50:	48 85 c0             	test   %rax,%rax
   17d53:	74 10                	je     17d65 <func_48+0x5afa>
   17d55:	83 bd cc e5 ff ff 00 	cmpl   $0x0,-0x1a34(%rbp)
   17d5c:	74 07                	je     17d65 <func_48+0x5afa>
   17d5e:	b8 01 00 00 00       	mov    $0x1,%eax
   17d63:	eb 05                	jmp    17d6a <func_48+0x5aff>
   17d65:	b8 00 00 00 00       	mov    $0x0,%eax
   17d6a:	98                   	cwtl   
   17d6b:	be 04 00 00 00       	mov    $0x4,%esi
   17d70:	89 c7                	mov    %eax,%edi
   17d72:	e8 7e 06 ff ff       	callq  83f5 <safe_mul_func_int16_t_s_s>
   17d77:	48 8b 85 98 e7 ff ff 	mov    -0x1868(%rbp),%rax
   17d7e:	66 c7 00 e0 57       	movw   $0x57e0,(%rax)
   17d83:	0f b7 10             	movzwl (%rax),%edx
   17d86:	48 8b 85 10 e9 ff ff 	mov    -0x16f0(%rbp),%rax
   17d8d:	66 89 10             	mov    %dx,(%rax)
   17d90:	48 8b 85 10 e9 ff ff 	mov    -0x16f0(%rbp),%rax
   17d97:	0f b7 00             	movzwl (%rax),%eax
   17d9a:	0f b7 c0             	movzwl %ax,%eax
   17d9d:	39 85 e8 e6 ff ff    	cmp    %eax,-0x1918(%rbp)
   17da3:	7e 29                	jle    17dce <func_48+0x5b63>
   17da5:	48 8b 15 1c cc 00 00 	mov    0xcc1c(%rip),%rdx        # 249c8 <g_683>
   17dac:	48 8b 05 1d cc 00 00 	mov    0xcc1d(%rip),%rax        # 249d0 <g_682>
   17db3:	48 8b 00             	mov    (%rax),%rax
   17db6:	48 8b 12             	mov    (%rdx),%rdx
   17db9:	48 89 10             	mov    %rdx,(%rax)
   17dbc:	48 8b 05 25 cb 00 00 	mov    0xcb25(%rip),%rax        # 248e8 <g_451>
   17dc3:	c7 00 01 00 00 00    	movl   $0x1,(%rax)
   17dc9:	e9 f0 00 00 00       	jmpq   17ebe <func_48+0x5c53>
   17dce:	8b 85 cc e5 ff ff    	mov    -0x1a34(%rbp),%eax
   17dd4:	0f b7 d8             	movzwl %ax,%ebx
   17dd7:	8b 85 d4 e6 ff ff    	mov    -0x192c(%rbp),%eax
   17ddd:	3b 85 ec e6 ff ff    	cmp    -0x1914(%rbp),%eax
   17de3:	be 07 00 00 00       	mov    $0x7,%esi
   17de8:	bf 01 00 00 00       	mov    $0x1,%edi
   17ded:	e8 5a 0e ff ff       	callq  8c4c <safe_lshift_func_uint8_t_u_u>
   17df2:	84 c0                	test   %al,%al
   17df4:	74 79                	je     17e6f <func_48+0x5c04>
   17df6:	8b 85 e8 e6 ff ff    	mov    -0x1918(%rbp),%eax
   17dfc:	44 0f be e0          	movsbl %al,%r12d
   17e00:	44 8b ad cc e5 ff ff 	mov    -0x1a34(%rbp),%r13d
   17e07:	48 8b 05 da ca 00 00 	mov    0xcada(%rip),%rax        # 248e8 <g_451>
   17e0e:	8b 00                	mov    (%rax),%eax
   17e10:	89 c6                	mov    %eax,%esi
   17e12:	bf e2 79 ae 10       	mov    $0x10ae79e2,%edi
   17e17:	e8 9c 10 ff ff       	callq  8eb8 <safe_add_func_uint32_t_u_u>
   17e1c:	85 c0                	test   %eax,%eax
   17e1e:	74 07                	je     17e27 <func_48+0x5bbc>
   17e20:	83 bd ec e6 ff ff 00 	cmpl   $0x0,-0x1914(%rbp)
   17e27:	44 89 ee             	mov    %r13d,%esi
   17e2a:	bf ff ff ff ff       	mov    $0xffffffff,%edi
   17e2f:	e8 ba 04 ff ff       	callq  82ee <safe_lshift_func_int8_t_s_u>
   17e34:	44 89 e6             	mov    %r12d,%esi
   17e37:	bf 01 00 00 00       	mov    $0x1,%edi
   17e3c:	e8 b1 03 ff ff       	callq  81f2 <safe_sub_func_int8_t_s_s>
   17e41:	0f b6 15 99 ab 00 00 	movzbl 0xab99(%rip),%edx        # 229e1 <g_15>
   17e48:	21 d0                	and    %edx,%eax
   17e4a:	88 05 91 ab 00 00    	mov    %al,0xab91(%rip)        # 229e1 <g_15>
   17e50:	0f b6 15 8a ab 00 00 	movzbl 0xab8a(%rip),%edx        # 229e1 <g_15>
   17e57:	0f b6 05 ea ab 00 00 	movzbl 0xabea(%rip),%eax        # 22a48 <g_228>
   17e5e:	31 d0                	xor    %edx,%eax
   17e60:	88 05 e2 ab 00 00    	mov    %al,0xabe2(%rip)        # 22a48 <g_228>
   17e66:	0f b6 05 db ab 00 00 	movzbl 0xabdb(%rip),%eax        # 22a48 <g_228>
   17e6d:	84 c0                	test   %al,%al
   17e6f:	48 8b 05 e2 b4 00 00 	mov    0xb4e2(%rip),%rax        # 23358 <g_2025>
   17e76:	0f be c0             	movsbl %al,%eax
   17e79:	be 50 00 00 00       	mov    $0x50,%esi
   17e7e:	89 c7                	mov    %eax,%edi
   17e80:	e8 b0 04 ff ff       	callq  8335 <safe_rshift_func_int8_t_s_s>
   17e85:	83 bd cc e5 ff ff 00 	cmpl   $0x0,-0x1a34(%rbp)
   17e8c:	90                   	nop
   17e8d:	89 de                	mov    %ebx,%esi
   17e8f:	bf 00 00 00 00       	mov    $0x0,%edi
   17e94:	e8 86 0e ff ff       	callq  8d1f <safe_sub_func_uint16_t_u_u>
   17e99:	0f b7 c0             	movzwl %ax,%eax
   17e9c:	39 85 cc e5 ff ff    	cmp    %eax,-0x1a34(%rbp)
   17ea2:	83 bd cc e5 ff ff 00 	cmpl   $0x0,-0x1a34(%rbp)
   17ea9:	75 07                	jne    17eb2 <func_48+0x5c47>
   17eab:	83 bd cc e5 ff ff 00 	cmpl   $0x0,-0x1a34(%rbp)
   17eb2:	8b 85 cc e5 ff ff    	mov    -0x1a34(%rbp),%eax
   17eb8:	89 85 ec e6 ff ff    	mov    %eax,-0x1914(%rbp)
   17ebe:	48 8b 05 8b ab 00 00 	mov    0xab8b(%rip),%rax        # 22a50 <g_232>
   17ec5:	48 83 c0 01          	add    $0x1,%rax
   17ec9:	48 89 05 80 ab 00 00 	mov    %rax,0xab80(%rip)        # 22a50 <g_232>
   17ed0:	48 8b 05 79 ab 00 00 	mov    0xab79(%rip),%rax        # 22a50 <g_232>
   17ed7:	48 83 f8 02          	cmp    $0x2,%rax
   17edb:	0f 86 c4 fd ff ff    	jbe    17ca5 <func_48+0x5a3a>
   17ee1:	48 8b 85 80 e7 ff ff 	mov    -0x1880(%rbp),%rax
   17ee8:	48 83 c0 01          	add    $0x1,%rax
   17eec:	48 89 85 80 e7 ff ff 	mov    %rax,-0x1880(%rbp)
   17ef3:	48 8b 85 80 e7 ff ff 	mov    -0x1880(%rbp),%rax
   17efa:	48 83 f8 0b          	cmp    $0xb,%rax
   17efe:	0f 86 15 fc ff ff    	jbe    17b19 <func_48+0x58ae>
   17f04:	e9 46 07 00 00       	jmpq   1864f <func_48+0x63e4>
   17f09:	66 c7 85 f4 e5 ff ff 	movw   $0x0,-0x1a0c(%rbp)
   17f10:	00 00 
   17f12:	48 8d 85 f8 e7 ff ff 	lea    -0x1808(%rbp),%rax
   17f19:	48 89 85 a0 e8 ff ff 	mov    %rax,-0x1760(%rbp)
   17f20:	c7 85 d8 e6 ff ff fa 	movl   $0xfffffffa,-0x1928(%rbp)
   17f27:	ff ff ff 
   17f2a:	c7 05 30 ab 00 00 14 	movl   $0x14,0xab30(%rip)        # 22a64 <g_343>
   17f31:	00 00 00 
   17f34:	e9 f2 01 00 00       	jmpq   1812b <func_48+0x5ec0>
   17f39:	c7 85 98 e6 ff ff 00 	movl   $0x0,-0x1968(%rbp)
   17f40:	00 00 00 
   17f43:	eb 4a                	jmp    17f8f <func_48+0x5d24>
   17f45:	c7 85 9c e6 ff ff 00 	movl   $0x0,-0x1964(%rbp)
   17f4c:	00 00 00 
   17f4f:	eb 2e                	jmp    17f7f <func_48+0x5d14>
   17f51:	8b 85 9c e6 ff ff    	mov    -0x1964(%rbp),%eax
   17f57:	48 98                	cltq   
   17f59:	8b 95 98 e6 ff ff    	mov    -0x1968(%rbp),%edx
   17f5f:	48 63 d2             	movslq %edx,%rdx
   17f62:	48 01 d2             	add    %rdx,%rdx
   17f65:	48 8d 5d d0          	lea    -0x30(%rbp),%rbx
   17f69:	48 01 da             	add    %rbx,%rdx
   17f6c:	48 01 d0             	add    %rdx,%rax
   17f6f:	48 2d 00 0a 00 00    	sub    $0xa00,%rax
   17f75:	c6 00 b7             	movb   $0xb7,(%rax)
   17f78:	83 85 9c e6 ff ff 01 	addl   $0x1,-0x1964(%rbp)
   17f7f:	83 bd 9c e6 ff ff 01 	cmpl   $0x1,-0x1964(%rbp)
   17f86:	7e c9                	jle    17f51 <func_48+0x5ce6>
   17f88:	83 85 98 e6 ff ff 01 	addl   $0x1,-0x1968(%rbp)
   17f8f:	83 bd 98 e6 ff ff 01 	cmpl   $0x1,-0x1968(%rbp)
   17f96:	7e ad                	jle    17f45 <func_48+0x5cda>
   17f98:	48 8b 05 39 ce 00 00 	mov    0xce39(%rip),%rax        # 24dd8 <g_2016>
   17f9f:	48 8d 95 f8 e7 ff ff 	lea    -0x1808(%rbp),%rdx
   17fa6:	48 89 10             	mov    %rdx,(%rax)
   17fa9:	66 c7 05 4e aa 00 00 	movw   $0x1,0xaa4e(%rip)        # 22a00 <g_79>
   17fb0:	01 00 
   17fb2:	e9 46 01 00 00       	jmpq   180fd <func_48+0x5e92>
   17fb7:	c7 85 a0 e6 ff ff 00 	movl   $0x0,-0x1960(%rbp)
   17fbe:	00 00 00 
   17fc1:	eb 1a                	jmp    17fdd <func_48+0x5d72>
   17fc3:	8b 85 a0 e6 ff ff    	mov    -0x1960(%rbp),%eax
   17fc9:	48 98                	cltq   
   17fcb:	c7 84 85 f0 f1 ff ff 	movl   $0xfffffffc,-0xe10(%rbp,%rax,4)
   17fd2:	fc ff ff ff 
   17fd6:	83 85 a0 e6 ff ff 01 	addl   $0x1,-0x1960(%rbp)
   17fdd:	83 bd a0 e6 ff ff 00 	cmpl   $0x0,-0x1960(%rbp)
   17fe4:	7e dd                	jle    17fc3 <func_48+0x5d58>
   17fe6:	48 8b 15 db c9 00 00 	mov    0xc9db(%rip),%rdx        # 249c8 <g_683>
   17fed:	48 8b 05 dc c9 00 00 	mov    0xc9dc(%rip),%rax        # 249d0 <g_682>
   17ff4:	48 8b 00             	mov    (%rax),%rax
   17ff7:	48 8b 12             	mov    (%rdx),%rdx
   17ffa:	48 89 10             	mov    %rdx,(%rax)
   17ffd:	48 8b 05 cc c9 00 00 	mov    0xc9cc(%rip),%rax        # 249d0 <g_682>
   18004:	48 8b 10             	mov    (%rax),%rdx
   18007:	48 8b 05 c2 c9 00 00 	mov    0xc9c2(%rip),%rax        # 249d0 <g_682>
   1800e:	48 8b 00             	mov    (%rax),%rax
   18011:	48 8b 12             	mov    (%rdx),%rdx
   18014:	48 89 10             	mov    %rdx,(%rax)
   18017:	be 01 00 00 00       	mov    $0x1,%esi
   1801c:	bf 00 00 00 00       	mov    $0x0,%edi
   18021:	e8 b5 0b ff ff       	callq  8bdb <safe_div_func_uint8_t_u_u>
   18026:	84 c0                	test   %al,%al
   18028:	0f 84 a0 00 00 00    	je     180ce <func_48+0x5e63>
   1802e:	8b 8d f0 f1 ff ff    	mov    -0xe10(%rbp),%ecx
   18034:	0f b7 05 c5 a9 00 00 	movzwl 0xa9c5(%rip),%eax        # 22a00 <g_79>
   1803b:	98                   	cwtl   
   1803c:	0f b7 15 bd a9 00 00 	movzwl 0xa9bd(%rip),%edx        # 22a00 <g_79>
   18043:	0f bf d2             	movswl %dx,%edx
   18046:	83 c2 02             	add    $0x2,%edx
   18049:	48 63 f2             	movslq %edx,%rsi
   1804c:	48 63 d0             	movslq %eax,%rdx
   1804f:	48 89 d0             	mov    %rdx,%rax
   18052:	48 c1 e0 02          	shl    $0x2,%rax
   18056:	48 01 d0             	add    %rdx,%rax
   18059:	48 01 f0             	add    %rsi,%rax
   1805c:	48 8d 14 00          	lea    (%rax,%rax,1),%rdx
   18060:	48 8d 05 79 ac 00 00 	lea    0xac79(%rip),%rax        # 22ce0 <g_1182>
   18067:	0f b7 04 02          	movzwl (%rdx,%rax,1),%eax
   1806b:	0f b7 c0             	movzwl %ax,%eax
   1806e:	21 c8                	and    %ecx,%eax
   18070:	89 85 f0 f1 ff ff    	mov    %eax,-0xe10(%rbp)
   18076:	8b 8d f0 f1 ff ff    	mov    -0xe10(%rbp),%ecx
   1807c:	48 8b 05 65 c8 00 00 	mov    0xc865(%rip),%rax        # 248e8 <g_451>
   18083:	8b 10                	mov    (%rax),%edx
   18085:	48 8b 05 5c c8 00 00 	mov    0xc85c(%rip),%rax        # 248e8 <g_451>
   1808c:	21 ca                	and    %ecx,%edx
   1808e:	89 10                	mov    %edx,(%rax)
   18090:	0f b7 05 a9 a9 00 00 	movzwl 0xa9a9(%rip),%eax        # 22a40 <g_195>
   18097:	48 0f bf d8          	movswq %ax,%rbx
   1809b:	8b 05 97 a9 00 00    	mov    0xa997(%rip),%eax        # 22a38 <g_191+0x18>
   180a1:	89 c0                	mov    %eax,%eax
   180a3:	48 89 c6             	mov    %rax,%rsi
   180a6:	48 bf dd ef da 55 69 	movabs $0x26492d6955daefdd,%rdi
   180ad:	2d 49 26 
   180b0:	e8 79 0f ff ff       	callq  902e <safe_add_func_uint64_t_u_u>
   180b5:	48 89 de             	mov    %rbx,%rsi
   180b8:	48 89 c7             	mov    %rax,%rdi
   180bb:	e8 81 07 ff ff       	callq  8841 <safe_add_func_int64_t_s_s>
   180c0:	48 89 c2             	mov    %rax,%rdx
   180c3:	48 8b 05 1e c8 00 00 	mov    0xc81e(%rip),%rax        # 248e8 <g_451>
   180ca:	89 10                	mov    %edx,(%rax)
   180cc:	eb 1e                	jmp    180ec <func_48+0x5e81>
   180ce:	83 bd cc e5 ff ff 00 	cmpl   $0x0,-0x1a34(%rbp)
   180d5:	75 38                	jne    1810f <func_48+0x5ea4>
   180d7:	0f b6 85 d2 f5 ff ff 	movzbl -0xa2e(%rbp),%eax
   180de:	8b 95 cc e5 ff ff    	mov    -0x1a34(%rbp),%edx
   180e4:	21 d0                	and    %edx,%eax
   180e6:	88 85 d2 f5 ff ff    	mov    %al,-0xa2e(%rbp)
   180ec:	0f b7 05 0d a9 00 00 	movzwl 0xa90d(%rip),%eax        # 22a00 <g_79>
   180f3:	83 e8 01             	sub    $0x1,%eax
   180f6:	66 89 05 03 a9 00 00 	mov    %ax,0xa903(%rip)        # 22a00 <g_79>
   180fd:	0f b7 05 fc a8 00 00 	movzwl 0xa8fc(%rip),%eax        # 22a00 <g_79>
   18104:	66 85 c0             	test   %ax,%ax
   18107:	0f 89 aa fe ff ff    	jns    17fb7 <func_48+0x5d4c>
   1810d:	eb 01                	jmp    18110 <func_48+0x5ea5>
   1810f:	90                   	nop
   18110:	8b 05 4e a9 00 00    	mov    0xa94e(%rip),%eax        # 22a64 <g_343>
   18116:	89 c0                	mov    %eax,%eax
   18118:	be 04 00 00 00       	mov    $0x4,%esi
   1811d:	48 89 c7             	mov    %rax,%rdi
   18120:	e8 1c 07 ff ff       	callq  8841 <safe_add_func_int64_t_s_s>
   18125:	89 05 39 a9 00 00    	mov    %eax,0xa939(%rip)        # 22a64 <g_343>
   1812b:	8b 05 33 a9 00 00    	mov    0xa933(%rip),%eax        # 22a64 <g_343>
   18131:	83 f8 2d             	cmp    $0x2d,%eax
   18134:	0f 86 ff fd ff ff    	jbe    17f39 <func_48+0x5cce>
   1813a:	c7 05 a0 a8 00 00 00 	movl   $0x0,0xa8a0(%rip)        # 229e4 <g_27>
   18141:	00 00 00 
   18144:	90                   	nop
   18145:	8b 05 99 a8 00 00    	mov    0xa899(%rip),%eax        # 229e4 <g_27>
   1814b:	85 c0                	test   %eax,%eax
   1814d:	0f 8f fc 04 00 00    	jg     1864f <func_48+0x63e4>
   18153:	48 8d 85 e6 eb ff ff 	lea    -0x141a(%rbp),%rax
   1815a:	48 89 85 a8 e8 ff ff 	mov    %rax,-0x1758(%rbp)
   18161:	c7 85 dc e6 ff ff 03 	movl   $0x3,-0x1924(%rbp)
   18168:	00 00 00 
   1816b:	48 8d 85 b0 e7 ff ff 	lea    -0x1850(%rbp),%rax
   18172:	48 89 85 b0 e8 ff ff 	mov    %rax,-0x1750(%rbp)
   18179:	48 8b 15 68 c7 00 00 	mov    0xc768(%rip),%rdx        # 248e8 <g_451>
   18180:	48 8b 05 61 c7 00 00 	mov    0xc761(%rip),%rax        # 248e8 <g_451>
   18187:	8b 12                	mov    (%rdx),%edx
   18189:	89 10                	mov    %edx,(%rax)
   1818b:	48 8b 85 98 e7 ff ff 	mov    -0x1868(%rbp),%rax
   18192:	0f b7 10             	movzwl (%rax),%edx
   18195:	83 ea 01             	sub    $0x1,%edx
   18198:	66 89 10             	mov    %dx,(%rax)
   1819b:	0f b7 85 f4 e5 ff ff 	movzwl -0x1a0c(%rbp),%eax
   181a2:	39 85 cc e5 ff ff    	cmp    %eax,-0x1a34(%rbp)
   181a8:	0f 9e c0             	setle  %al
   181ab:	0f b6 d0             	movzbl %al,%edx
   181ae:	48 8d 05 dd a8 00 00 	lea    0xa8dd(%rip),%rax        # 22a92 <g_448+0x2>
   181b5:	48 39 85 a8 e8 ff ff 	cmp    %rax,-0x1758(%rbp)
   181bc:	0f 95 c0             	setne  %al
   181bf:	0f b6 c0             	movzbl %al,%eax
   181c2:	39 c2                	cmp    %eax,%edx
   181c4:	66 83 bd f4 e5 ff ff 	cmpw   $0x0,-0x1a0c(%rbp)
   181cb:	00 
   181cc:	75 44                	jne    18212 <func_48+0x5fa7>
   181ce:	48 8b 05 d3 c8 00 00 	mov    0xc8d3(%rip),%rax        # 24aa8 <g_725>
   181d5:	48 8b 00             	mov    (%rax),%rax
   181d8:	48 8b 10             	mov    (%rax),%rdx
   181db:	48 8b 05 c6 c8 00 00 	mov    0xc8c6(%rip),%rax        # 24aa8 <g_725>
   181e2:	48 8b 00             	mov    (%rax),%rax
   181e5:	83 e2 01             	and    $0x1,%edx
   181e8:	48 89 10             	mov    %rdx,(%rax)
   181eb:	48 8b 00             	mov    (%rax),%rax
   181ee:	48 89 c2             	mov    %rax,%rdx
   181f1:	8b 85 cc e5 ff ff    	mov    -0x1a34(%rbp),%eax
   181f7:	48 98                	cltq   
   181f9:	48 89 d6             	mov    %rdx,%rsi
   181fc:	48 89 c7             	mov    %rax,%rdi
   181ff:	e8 b0 07 ff ff       	callq  89b4 <safe_mod_func_int64_t_s_s>
   18204:	48 85 c0             	test   %rax,%rax
   18207:	75 09                	jne    18212 <func_48+0x5fa7>
   18209:	83 bd cc e5 ff ff 00 	cmpl   $0x0,-0x1a34(%rbp)
   18210:	74 07                	je     18219 <func_48+0x5fae>
   18212:	b8 01 00 00 00       	mov    $0x1,%eax
   18217:	eb 05                	jmp    1821e <func_48+0x5fb3>
   18219:	b8 00 00 00 00       	mov    $0x0,%eax
   1821e:	85 c0                	test   %eax,%eax
   18220:	74 1d                	je     1823f <func_48+0x5fd4>
   18222:	48 8b 05 bf c6 00 00 	mov    0xc6bf(%rip),%rax        # 248e8 <g_451>
   18229:	8b 10                	mov    (%rax),%edx
   1822b:	48 8b 05 b6 c6 00 00 	mov    0xc6b6(%rip),%rax        # 248e8 <g_451>
   18232:	81 e2 68 6b 71 6a    	and    $0x6a716b68,%edx
   18238:	89 10                	mov    %edx,(%rax)
   1823a:	e9 e9 01 00 00       	jmpq   18428 <func_48+0x61bd>
   1823f:	66 c7 85 f6 e5 ff ff 	movw   $0x509,-0x1a0a(%rbp)
   18246:	09 05 
   18248:	c7 85 d0 f5 ff ff 7a 	movl   $0x761fa7a,-0xa30(%rbp)
   1824f:	fa 61 07 
   18252:	c7 85 d4 f5 ff ff 7a 	movl   $0x761fa7a,-0xa2c(%rbp)
   18259:	fa 61 07 
   1825c:	c7 85 d8 f5 ff ff 7a 	movl   $0x761fa7a,-0xa28(%rbp)
   18263:	fa 61 07 
   18266:	c7 85 dc f5 ff ff 7a 	movl   $0x761fa7a,-0xa24(%rbp)
   1826d:	fa 61 07 
   18270:	c7 85 e0 f5 ff ff 7a 	movl   $0x761fa7a,-0xa20(%rbp)
   18277:	fa 61 07 
   1827a:	c7 85 e4 f5 ff ff 7a 	movl   $0x761fa7a,-0xa1c(%rbp)
   18281:	fa 61 07 
   18284:	c7 85 e8 f5 ff ff 7a 	movl   $0x761fa7a,-0xa18(%rbp)
   1828b:	fa 61 07 
   1828e:	c7 85 ec f5 ff ff 7a 	movl   $0x761fa7a,-0xa14(%rbp)
   18295:	fa 61 07 
   18298:	c7 85 f0 f5 ff ff 7a 	movl   $0x761fa7a,-0xa10(%rbp)
   1829f:	fa 61 07 
   182a2:	c7 85 f4 f5 ff ff 7a 	movl   $0x761fa7a,-0xa0c(%rbp)
   182a9:	fa 61 07 
   182ac:	48 8d 05 fd e2 00 00 	lea    0xe2fd(%rip),%rax        # 265b0 <g_783>
   182b3:	48 89 85 b8 e8 ff ff 	mov    %rax,-0x1748(%rbp)
   182ba:	8b 85 d8 e6 ff ff    	mov    -0x1928(%rbp),%eax
   182c0:	89 c2                	mov    %eax,%edx
   182c2:	48 8b 85 a8 e8 ff ff 	mov    -0x1758(%rbp),%rax
   182c9:	66 89 10             	mov    %dx,(%rax)
   182cc:	8b 85 d8 f5 ff ff    	mov    -0xa28(%rbp),%eax
   182d2:	89 85 dc e6 ff ff    	mov    %eax,-0x1924(%rbp)
   182d8:	8b 85 dc e6 ff ff    	mov    -0x1924(%rbp),%eax
   182de:	89 c7                	mov    %eax,%edi
   182e0:	e8 c1 0b ff ff       	callq  8ea6 <safe_unary_minus_func_uint32_t_u>
   182e5:	89 c2                	mov    %eax,%edx
   182e7:	8b 85 cc e5 ff ff    	mov    -0x1a34(%rbp),%eax
   182ed:	48 98                	cltq   
   182ef:	48 39 c2             	cmp    %rax,%rdx
   182f2:	0f 95 c2             	setne  %dl
   182f5:	48 8b 85 70 e7 ff ff 	mov    -0x1890(%rbp),%rax
   182fc:	48 8b 00             	mov    (%rax),%rax
   182ff:	48 8b 00             	mov    (%rax),%rax
   18302:	0f b6 d2             	movzbl %dl,%edx
   18305:	48 89 10             	mov    %rdx,(%rax)
   18308:	48 8b 00             	mov    (%rax),%rax
   1830b:	48 85 c0             	test   %rax,%rax
   1830e:	0f 94 c0             	sete   %al
   18311:	0f b6 c0             	movzbl %al,%eax
   18314:	be 64 9f 00 00       	mov    $0x9f64,%esi
   18319:	89 c7                	mov    %eax,%edi
   1831b:	e8 ff 09 ff ff       	callq  8d1f <safe_sub_func_uint16_t_u_u>
   18320:	0f b6 d0             	movzbl %al,%edx
   18323:	8b 85 7c e6 ff ff    	mov    -0x1984(%rbp),%eax
   18329:	8d 48 ff             	lea    -0x1(%rax),%ecx
   1832c:	89 8d 7c e6 ff ff    	mov    %ecx,-0x1984(%rbp)
   18332:	0f b6 c0             	movzbl %al,%eax
   18335:	89 d6                	mov    %edx,%esi
   18337:	89 c7                	mov    %eax,%edi
   18339:	e8 3a 08 ff ff       	callq  8b78 <safe_sub_func_uint8_t_u_u>
   1833e:	48 83 bd a0 e8 ff ff 	cmpq   $0x0,-0x1760(%rbp)
   18345:	00 
   18346:	8b 85 cc e5 ff ff    	mov    -0x1a34(%rbp),%eax
   1834c:	f7 d0                	not    %eax
   1834e:	48 98                	cltq   
   18350:	be 01 00 00 00       	mov    $0x1,%esi
   18355:	48 89 c7             	mov    %rax,%rdi
   18358:	e8 d1 0c ff ff       	callq  902e <safe_add_func_uint64_t_u_u>
   1835d:	48 85 c0             	test   %rax,%rax
   18360:	0f 84 b5 00 00 00    	je     1841b <func_48+0x61b0>
   18366:	c6 85 e1 e5 ff ff 6f 	movb   $0x6f,-0x1a1f(%rbp)
   1836d:	48 8b 05 dc a6 00 00 	mov    0xa6dc(%rip),%rax        # 22a50 <g_232>
   18374:	48 85 c0             	test   %rax,%rax
   18377:	74 05                	je     1837e <func_48+0x6113>
   18379:	e9 ac fb ff ff       	jmpq   17f2a <func_48+0x5cbf>
   1837e:	0f b6 9d e1 e5 ff ff 	movzbl -0x1a1f(%rbp),%ebx
   18385:	48 8b 85 a8 e8 ff ff 	mov    -0x1758(%rbp),%rax
   1838c:	66 c7 00 04 00       	movw   $0x4,(%rax)
   18391:	48 8b 85 a8 e8 ff ff 	mov    -0x1758(%rbp),%rax
   18398:	0f b7 00             	movzwl (%rax),%eax
   1839b:	98                   	cwtl   
   1839c:	be ff ff ff ff       	mov    $0xffffffff,%esi
   183a1:	89 c7                	mov    %eax,%edi
   183a3:	e8 0b 00 ff ff       	callq  83b3 <safe_add_func_int16_t_s_s>
   183a8:	98                   	cwtl   
   183a9:	39 85 cc e5 ff ff    	cmp    %eax,-0x1a34(%rbp)
   183af:	0f 95 c0             	setne  %al
   183b2:	0f b6 d0             	movzbl %al,%edx
   183b5:	48 8b 05 ec c6 00 00 	mov    0xc6ec(%rip),%rax        # 24aa8 <g_725>
   183bc:	48 8b 00             	mov    (%rax),%rax
   183bf:	48 8b 00             	mov    (%rax),%rax
   183c2:	48 89 d6             	mov    %rdx,%rsi
   183c5:	48 89 c7             	mov    %rax,%rdi
   183c8:	e8 7e 0c ff ff       	callq  904b <safe_sub_func_uint64_t_u_u>
   183cd:	8b 85 d0 f5 ff ff    	mov    -0xa30(%rbp),%eax
   183d3:	f7 d0                	not    %eax
   183d5:	0f b6 c0             	movzbl %al,%eax
   183d8:	be 44 00 00 00       	mov    $0x44,%esi
   183dd:	89 c7                	mov    %eax,%edi
   183df:	e8 f7 07 ff ff       	callq  8bdb <safe_div_func_uint8_t_u_u>
   183e4:	3c 14                	cmp    $0x14,%al
   183e6:	0f 95 c0             	setne  %al
   183e9:	0f b6 d0             	movzbl %al,%edx
   183ec:	48 8b 05 45 a7 00 00 	mov    0xa745(%rip),%rax        # 22b38 <g_688+0x18>
   183f3:	48 39 c2             	cmp    %rax,%rdx
   183f6:	0f 96 c0             	setbe  %al
   183f9:	0f b6 c0             	movzbl %al,%eax
   183fc:	89 de                	mov    %ebx,%esi
   183fe:	89 c7                	mov    %eax,%edi
   18400:	e8 b3 0a ff ff       	callq  8eb8 <safe_add_func_uint32_t_u_u>
   18405:	48 8b 15 dc c4 00 00 	mov    0xc4dc(%rip),%rdx        # 248e8 <g_451>
   1840c:	8b 12                	mov    (%rdx),%edx
   1840e:	09 c2                	or     %eax,%edx
   18410:	48 8b 05 d1 c4 00 00 	mov    0xc4d1(%rip),%rax        # 248e8 <g_451>
   18417:	89 10                	mov    %edx,(%rax)
   18419:	eb 0d                	jmp    18428 <func_48+0x61bd>
   1841b:	83 bd cc e5 ff ff 00 	cmpl   $0x0,-0x1a34(%rbp)
   18422:	0f 85 26 02 00 00    	jne    1864e <func_48+0x63e3>
   18428:	48 8b 05 79 c6 00 00 	mov    0xc679(%rip),%rax        # 24aa8 <g_725>
   1842f:	48 8b 00             	mov    (%rax),%rax
   18432:	48 8b 00             	mov    (%rax),%rax
   18435:	e9 15 04 00 00       	jmpq   1884f <func_48+0x65e4>
   1843a:	c7 85 bc e6 ff ff a7 	movl   $0xe3d1b8a7,-0x1944(%rbp)
   18441:	b8 d1 e3 
   18444:	c7 85 c0 e6 ff ff f7 	movl   $0xfffffff7,-0x1940(%rbp)
   1844b:	ff ff ff 
   1844e:	c7 85 c4 e6 ff ff ff 	movl   $0xffffffff,-0x193c(%rbp)
   18455:	ff ff ff 
   18458:	c7 85 c8 e6 ff ff f7 	movl   $0xfffffff7,-0x1938(%rbp)
   1845f:	ff ff ff 
   18462:	c7 85 cc e6 ff ff f9 	movl   $0xfffffff9,-0x1934(%rbp)
   18469:	ff ff ff 
   1846c:	c7 85 d0 e6 ff ff 97 	movl   $0x5c7b4097,-0x1930(%rbp)
   18473:	40 7b 5c 
   18476:	c6 85 de e5 ff ff ff 	movb   $0xff,-0x1a22(%rbp)
   1847d:	c7 85 a4 e6 ff ff 00 	movl   $0x0,-0x195c(%rbp)
   18484:	00 00 00 
   18487:	eb 45                	jmp    184ce <func_48+0x6263>
   18489:	c7 85 a8 e6 ff ff 00 	movl   $0x0,-0x1958(%rbp)
   18490:	00 00 00 
   18493:	eb 29                	jmp    184be <func_48+0x6253>
   18495:	8b 85 a8 e6 ff ff    	mov    -0x1958(%rbp),%eax
   1849b:	48 98                	cltq   
   1849d:	8b 95 a4 e6 ff ff    	mov    -0x195c(%rbp),%edx
   184a3:	48 63 d2             	movslq %edx,%rdx
   184a6:	48 01 d2             	add    %rdx,%rdx
   184a9:	48 01 d0             	add    %rdx,%rax
   184ac:	c7 84 85 d0 f5 ff ff 	movl   $0xf7f6cd49,-0xa30(%rbp,%rax,4)
   184b3:	49 cd f6 f7 
   184b7:	83 85 a8 e6 ff ff 01 	addl   $0x1,-0x1958(%rbp)
   184be:	83 bd a8 e6 ff ff 01 	cmpl   $0x1,-0x1958(%rbp)
   184c5:	7e ce                	jle    18495 <func_48+0x622a>
   184c7:	83 85 a4 e6 ff ff 01 	addl   $0x1,-0x195c(%rbp)
   184ce:	83 bd a4 e6 ff ff 00 	cmpl   $0x0,-0x195c(%rbp)
   184d5:	7e b2                	jle    18489 <func_48+0x621e>
   184d7:	c7 85 1c e6 ff ff 00 	movl   $0x0,-0x19e4(%rbp)
   184de:	00 00 00 
   184e1:	e9 d3 00 00 00       	jmpq   185b9 <func_48+0x634e>
   184e6:	c6 85 df e5 ff ff 97 	movb   $0x97,-0x1a21(%rbp)
   184ed:	48 8d 85 30 e6 ff ff 	lea    -0x19d0(%rbp),%rax
   184f4:	48 89 85 60 e8 ff ff 	mov    %rax,-0x17a0(%rbp)
   184fb:	48 8d 05 a6 e0 00 00 	lea    0xe0a6(%rip),%rax        # 265a8 <g_342>
   18502:	48 89 85 68 e8 ff ff 	mov    %rax,-0x1798(%rbp)
   18509:	48 8d 05 d4 a4 00 00 	lea    0xa4d4(%rip),%rax        # 229e4 <g_27>
   18510:	48 89 85 70 e8 ff ff 	mov    %rax,-0x1790(%rbp)
   18517:	48 c7 85 78 e8 ff ff 	movq   $0x0,-0x1788(%rbp)
   1851e:	00 00 00 00 
   18522:	48 c7 85 80 e8 ff ff 	movq   $0x0,-0x1780(%rbp)
   18529:	00 00 00 00 
   1852d:	48 8d 85 28 e6 ff ff 	lea    -0x19d8(%rbp),%rax
   18534:	48 89 85 a0 f8 ff ff 	mov    %rax,-0x760(%rbp)
   1853b:	48 8d 85 28 e6 ff ff 	lea    -0x19d8(%rbp),%rax
   18542:	48 89 85 a8 f8 ff ff 	mov    %rax,-0x758(%rbp)
   18549:	48 8d 85 28 e6 ff ff 	lea    -0x19d8(%rbp),%rax
   18550:	48 89 85 b0 f8 ff ff 	mov    %rax,-0x750(%rbp)
   18557:	48 8d 85 28 e6 ff ff 	lea    -0x19d8(%rbp),%rax
   1855e:	48 89 85 b8 f8 ff ff 	mov    %rax,-0x748(%rbp)
   18565:	48 8d 85 28 e6 ff ff 	lea    -0x19d8(%rbp),%rax
   1856c:	48 89 85 c0 f8 ff ff 	mov    %rax,-0x740(%rbp)
   18573:	8b 95 cc e5 ff ff    	mov    -0x1a34(%rbp),%edx
   18579:	8b 85 bc e6 ff ff    	mov    -0x1944(%rbp),%eax
   1857f:	0f b7 c0             	movzwl %ax,%eax
   18582:	89 d6                	mov    %edx,%esi
   18584:	89 c7                	mov    %eax,%edi
   18586:	e8 7b 08 ff ff       	callq  8e06 <safe_lshift_func_uint16_t_u_u>
   1858b:	89 c2                	mov    %eax,%edx
   1858d:	48 8b 05 54 c3 00 00 	mov    0xc354(%rip),%rax        # 248e8 <g_451>
   18594:	0f b7 d2             	movzwl %dx,%edx
   18597:	89 10                	mov    %edx,(%rax)
   18599:	0f b7 85 f0 e5 ff ff 	movzwl -0x1a10(%rbp),%eax
   185a0:	83 c0 01             	add    $0x1,%eax
   185a3:	66 89 85 f0 e5 ff ff 	mov    %ax,-0x1a10(%rbp)
   185aa:	8b 85 1c e6 ff ff    	mov    -0x19e4(%rbp),%eax
   185b0:	83 c0 01             	add    $0x1,%eax
   185b3:	89 85 1c e6 ff ff    	mov    %eax,-0x19e4(%rbp)
   185b9:	8b 85 1c e6 ff ff    	mov    -0x19e4(%rbp),%eax
   185bf:	83 f8 0b             	cmp    $0xb,%eax
   185c2:	0f 8e 1e ff ff ff    	jle    184e6 <func_48+0x627b>
   185c8:	48 8b 85 68 e7 ff ff 	mov    -0x1898(%rbp),%rax
   185cf:	48 8b 00             	mov    (%rax),%rax
   185d2:	48 8b 00             	mov    (%rax),%rax
   185d5:	48 8d 15 0c c3 00 00 	lea    0xc30c(%rip),%rdx        # 248e8 <g_451>
   185dc:	48 39 d0             	cmp    %rdx,%rax
   185df:	0f 95 c0             	setne  %al
   185e2:	0f b6 c0             	movzbl %al,%eax
   185e5:	48 8b 1d fc c2 00 00 	mov    0xc2fc(%rip),%rbx        # 248e8 <g_451>
   185ec:	8b 95 cc e5 ff ff    	mov    -0x1a34(%rbp),%edx
   185f2:	89 d6                	mov    %edx,%esi
   185f4:	89 c7                	mov    %eax,%edi
   185f6:	e8 0a 00 ff ff       	callq  8605 <safe_sub_func_int32_t_s_s>
   185fb:	89 03                	mov    %eax,(%rbx)
   185fd:	48 c7 05 50 ad 00 00 	movq   $0x0,0xad50(%rip)        # 23358 <g_2025>
   18604:	00 00 00 00 
   18608:	eb 28                	jmp    18632 <func_48+0x63c7>
   1860a:	48 8b 05 47 ad 00 00 	mov    0xad47(%rip),%rax        # 23358 <g_2025>
   18611:	48 8d 15 e8 df 00 00 	lea    0xdfe8(%rip),%rdx        # 26600 <g_1323>
   18618:	48 89 94 c5 40 ec ff 	mov    %rdx,-0x13c0(%rbp,%rax,8)
   1861f:	ff 
   18620:	48 8b 05 31 ad 00 00 	mov    0xad31(%rip),%rax        # 23358 <g_2025>
   18627:	48 83 c0 01          	add    $0x1,%rax
   1862b:	48 89 05 26 ad 00 00 	mov    %rax,0xad26(%rip)        # 23358 <g_2025>
   18632:	48 8b 05 1f ad 00 00 	mov    0xad1f(%rip),%rax        # 23358 <g_2025>
   18639:	48 83 f8 02          	cmp    $0x2,%rax
   1863d:	76 cb                	jbe    1860a <func_48+0x639f>
   1863f:	48 8b 05 a2 c2 00 00 	mov    0xc2a2(%rip),%rax        # 248e8 <g_451>
   18646:	c7 00 22 b4 91 85    	movl   $0x8591b422,(%rax)
   1864c:	eb 01                	jmp    1864f <func_48+0x63e4>
   1864e:	90                   	nop
   1864f:	8b 9d cc e5 ff ff    	mov    -0x1a34(%rbp),%ebx
   18655:	48 8b 85 50 e8 ff ff 	mov    -0x17b0(%rbp),%rax
   1865c:	48 89 05 7d c7 00 00 	mov    %rax,0xc77d(%rip)        # 24de0 <g_2122>
   18663:	8b 05 e3 ac 00 00    	mov    0xace3(%rip),%eax        # 2334c <g_1920>
   18669:	0f bf d0             	movswl %ax,%edx
   1866c:	48 8b 05 e5 ac 00 00 	mov    0xace5(%rip),%rax        # 23358 <g_2025>
   18673:	48 83 f8 04          	cmp    $0x4,%rax
   18677:	0f 97 c0             	seta   %al
   1867a:	0f b6 c0             	movzbl %al,%eax
   1867d:	8b 8d cc e5 ff ff    	mov    -0x1a34(%rbp),%ecx
   18683:	21 c8                	and    %ecx,%eax
   18685:	98                   	cwtl   
   18686:	89 d6                	mov    %edx,%esi
   18688:	89 c7                	mov    %eax,%edi
   1868a:	e8 44 fd fe ff       	callq  83d3 <safe_sub_func_int16_t_s_s>
   1868f:	bf 01 00 00 00       	mov    $0x1,%edi
   18694:	e8 50 06 ff ff       	callq  8ce9 <safe_unary_minus_func_uint16_t_u>
   18699:	89 c2                	mov    %eax,%edx
   1869b:	48 8b 85 78 e7 ff ff 	mov    -0x1888(%rbp),%rax
   186a2:	48 8b 00             	mov    (%rax),%rax
   186a5:	48 8b 00             	mov    (%rax),%rax
   186a8:	48 8b 00             	mov    (%rax),%rax
   186ab:	0f b7 d2             	movzwl %dx,%edx
   186ae:	48 89 10             	mov    %rdx,(%rax)
   186b1:	48 8d 85 98 e7 ff ff 	lea    -0x1868(%rbp),%rax
   186b8:	48 39 85 58 e8 ff ff 	cmp    %rax,-0x17a8(%rbp)
   186bf:	0f 95 c0             	setne  %al
   186c2:	0f b6 c0             	movzbl %al,%eax
   186c5:	89 85 10 e6 ff ff    	mov    %eax,-0x19f0(%rbp)
   186cb:	8b 85 cc e5 ff ff    	mov    -0x1a34(%rbp),%eax
   186d1:	0f be c0             	movsbl %al,%eax
   186d4:	89 c6                	mov    %eax,%esi
   186d6:	bf 00 00 00 00       	mov    $0x0,%edi
   186db:	e8 f4 fa fe ff       	callq  81d4 <safe_add_func_int8_t_s_s>
   186e0:	0f be c0             	movsbl %al,%eax
   186e3:	8b 95 cc e5 ff ff    	mov    -0x1a34(%rbp),%edx
   186e9:	89 d6                	mov    %edx,%esi
   186eb:	89 c7                	mov    %eax,%edi
   186ed:	e8 13 ff fe ff       	callq  8605 <safe_sub_func_int32_t_s_s>
   186f2:	89 de                	mov    %ebx,%esi
   186f4:	89 c7                	mov    %eax,%edi
   186f6:	e8 bd 07 ff ff       	callq  8eb8 <safe_add_func_uint32_t_u_u>
   186fb:	0f b7 05 9c a3 00 00 	movzwl 0xa39c(%rip),%eax        # 22a9e <g_448+0xe>
   18702:	66 85 c0             	test   %ax,%ax
   18705:	75 09                	jne    18710 <func_48+0x64a5>
   18707:	83 bd cc e5 ff ff 00 	cmpl   $0x0,-0x1a34(%rbp)
   1870e:	74 07                	je     18717 <func_48+0x64ac>
   18710:	b8 01 00 00 00       	mov    $0x1,%eax
   18715:	eb 05                	jmp    1871c <func_48+0x64b1>
   18717:	b8 00 00 00 00       	mov    $0x0,%eax
   1871c:	89 85 b8 e6 ff ff    	mov    %eax,-0x1948(%rbp)
   18722:	0f b6 45 c5          	movzbl -0x3b(%rbp),%eax
   18726:	84 c0                	test   %al,%al
   18728:	74 07                	je     18731 <func_48+0x64c6>
   1872a:	ba 01 00 00 00       	mov    $0x1,%edx
   1872f:	eb 05                	jmp    18736 <func_48+0x64cb>
   18731:	ba 00 00 00 00       	mov    $0x0,%edx
   18736:	48 8b 05 ab c1 00 00 	mov    0xc1ab(%rip),%rax        # 248e8 <g_451>
   1873d:	0b 95 cc e5 ff ff    	or     -0x1a34(%rbp),%edx
   18743:	89 10                	mov    %edx,(%rax)
   18745:	c7 05 f5 a2 00 00 00 	movl   $0x0,0xa2f5(%rip)        # 22a44 <g_196>
   1874c:	00 00 00 
   1874f:	e9 d3 00 00 00       	jmpq   18827 <func_48+0x65bc>
   18754:	48 8d 05 0f ac 00 00 	lea    0xac0f(%rip),%rax        # 2336a <g_2134+0x2>
   1875b:	48 89 85 18 e9 ff ff 	mov    %rax,-0x16e8(%rbp)
   18762:	48 8d 45 b6          	lea    -0x4a(%rbp),%rax
   18766:	48 83 c0 02          	add    $0x2,%rax
   1876a:	48 89 85 20 e9 ff ff 	mov    %rax,-0x16e0(%rbp)
   18771:	48 c7 85 28 e9 ff ff 	movq   $0x0,-0x16d8(%rbp)
   18778:	00 00 00 00 
   1877c:	48 8d 85 a8 e7 ff ff 	lea    -0x1858(%rbp),%rax
   18783:	48 89 85 30 e9 ff ff 	mov    %rax,-0x16d0(%rbp)
   1878a:	83 bd cc e5 ff ff 00 	cmpl   $0x0,-0x1a34(%rbp)
   18791:	0f 85 a1 00 00 00    	jne    18838 <func_48+0x65cd>
   18797:	0f b6 05 cf ab 00 00 	movzbl 0xabcf(%rip),%eax        # 2336d <g_2134+0x5>
   1879e:	0f b6 d8             	movzbl %al,%ebx
   187a1:	8b 85 cc e5 ff ff    	mov    -0x1a34(%rbp),%eax
   187a7:	0f b7 c0             	movzwl %ax,%eax
   187aa:	48 8b 15 47 a5 00 00 	mov    0xa547(%rip),%rdx        # 22cf8 <g_1352>
   187b1:	48 89 d1             	mov    %rdx,%rcx
   187b4:	48 8b 95 20 e9 ff ff 	mov    -0x16e0(%rbp),%rdx
   187bb:	89 c6                	mov    %eax,%esi
   187bd:	48 89 cf             	mov    %rcx,%rdi
   187c0:	e8 27 15 00 00       	callq  19cec <func_55>
   187c5:	48 39 85 18 e9 ff ff 	cmp    %rax,-0x16e8(%rbp)
   187cc:	0f 95 c0             	setne  %al
   187cf:	0f b6 c0             	movzbl %al,%eax
   187d2:	89 c6                	mov    %eax,%esi
   187d4:	bf 00 00 00 00       	mov    $0x0,%edi
   187d9:	e8 6e 04 ff ff       	callq  8c4c <safe_lshift_func_uint8_t_u_u>
   187de:	0f b6 d0             	movzbl %al,%edx
   187e1:	8b 05 9d a2 00 00    	mov    0xa29d(%rip),%eax        # 22a84 <g_445+0x14>
   187e7:	39 c2                	cmp    %eax,%edx
   187e9:	0f 92 c0             	setb   %al
   187ec:	0f b6 c0             	movzbl %al,%eax
   187ef:	39 c3                	cmp    %eax,%ebx
   187f1:	48 8b 05 f0 c0 00 00 	mov    0xc0f0(%rip),%rax        # 248e8 <g_451>
   187f8:	c7 00 01 00 00 00    	movl   $0x1,(%rax)
   187fe:	48 8b 85 30 e9 ff ff 	mov    -0x16d0(%rbp),%rax
   18805:	48 8b 95 28 e9 ff ff 	mov    -0x16d8(%rbp),%rdx
   1880c:	48 89 10             	mov    %rdx,(%rax)
   1880f:	8b 05 2f a2 00 00    	mov    0xa22f(%rip),%eax        # 22a44 <g_196>
   18815:	be 08 00 00 00       	mov    $0x8,%esi
   1881a:	89 c7                	mov    %eax,%edi
   1881c:	e8 97 06 ff ff       	callq  8eb8 <safe_add_func_uint32_t_u_u>
   18821:	89 05 1d a2 00 00    	mov    %eax,0xa21d(%rip)        # 22a44 <g_196>
   18827:	8b 05 17 a2 00 00    	mov    0xa217(%rip),%eax        # 22a44 <g_196>
   1882d:	83 f8 22             	cmp    $0x22,%eax
   18830:	0f 87 1e ff ff ff    	ja     18754 <func_48+0x64e9>
   18836:	eb 01                	jmp    18839 <func_48+0x65ce>
   18838:	90                   	nop
   18839:	48 8b 05 a0 c5 00 00 	mov    0xc5a0(%rip),%rax        # 24de0 <g_2122>
   18840:	48 8b 00             	mov    (%rax),%rax
   18843:	48 8b 00             	mov    (%rax),%rax
   18846:	48 8b 00             	mov    (%rax),%rax
   18849:	48 8b 00             	mov    (%rax),%rax
   1884c:	48 8b 00             	mov    (%rax),%rax
   1884f:	48 8b 5d c8          	mov    -0x38(%rbp),%rbx
   18853:	64 48 33 1c 25 28 00 	xor    %fs:0x28,%rbx
   1885a:	00 00 
   1885c:	74 05                	je     18863 <func_48+0x65f8>
   1885e:	e8 0d f8 fe ff       	callq  8070 <__stack_chk_fail@plt>
   18863:	48 81 c4 18 1a 00 00 	add    $0x1a18,%rsp
   1886a:	5b                   	pop    %rbx
   1886b:	41 5c                	pop    %r12
   1886d:	41 5d                	pop    %r13
   1886f:	41 5e                	pop    %r14
   18871:	41 5f                	pop    %r15
   18873:	5d                   	pop    %rbp
   18874:	c3                   	retq   

0000000000018875 <func_50>:
   18875:	f3 0f 1e fa          	endbr64 
   18879:	55                   	push   %rbp
   1887a:	48 89 e5             	mov    %rsp,%rbp
   1887d:	41 57                	push   %r15
   1887f:	41 56                	push   %r14
   18881:	41 55                	push   %r13
   18883:	41 54                	push   %r12
   18885:	53                   	push   %rbx
   18886:	48 81 ec 00 10 00 00 	sub    $0x1000,%rsp
   1888d:	48 83 0c 24 00       	orq    $0x0,(%rsp)
   18892:	48 81 ec 38 03 00 00 	sub    $0x338,%rsp
   18899:	48 89 bd b8 ec ff ff 	mov    %rdi,-0x1348(%rbp)
   188a0:	48 89 b5 b0 ec ff ff 	mov    %rsi,-0x1350(%rbp)
   188a7:	89 d0                	mov    %edx,%eax
   188a9:	89 8d a8 ec ff ff    	mov    %ecx,-0x1358(%rbp)
   188af:	88 85 ac ec ff ff    	mov    %al,-0x1354(%rbp)
   188b5:	64 48 8b 04 25 28 00 	mov    %fs:0x28,%rax
   188bc:	00 00 
   188be:	48 89 45 c8          	mov    %rax,-0x38(%rbp)
   188c2:	31 c0                	xor    %eax,%eax
   188c4:	48 8d 05 37 a1 00 00 	lea    0xa137(%rip),%rax        # 22a02 <g_88>
   188cb:	48 89 85 38 ed ff ff 	mov    %rax,-0x12c8(%rbp)
   188d2:	48 8d 05 37 a1 00 00 	lea    0xa137(%rip),%rax        # 22a10 <g_144>
   188d9:	48 89 85 60 ef ff ff 	mov    %rax,-0x10a0(%rbp)
   188e0:	48 8d 05 29 a1 00 00 	lea    0xa129(%rip),%rax        # 22a10 <g_144>
   188e7:	48 89 85 68 ef ff ff 	mov    %rax,-0x1098(%rbp)
   188ee:	48 8d 05 1b a1 00 00 	lea    0xa11b(%rip),%rax        # 22a10 <g_144>
   188f5:	48 89 85 70 ef ff ff 	mov    %rax,-0x1090(%rbp)
   188fc:	48 8d 05 0d a1 00 00 	lea    0xa10d(%rip),%rax        # 22a10 <g_144>
   18903:	48 89 85 78 ef ff ff 	mov    %rax,-0x1088(%rbp)
   1890a:	48 8d 05 ff a0 00 00 	lea    0xa0ff(%rip),%rax        # 22a10 <g_144>
   18911:	48 89 85 80 ef ff ff 	mov    %rax,-0x1080(%rbp)
   18918:	48 8d 05 f1 a0 00 00 	lea    0xa0f1(%rip),%rax        # 22a10 <g_144>
   1891f:	48 89 85 88 ef ff ff 	mov    %rax,-0x1078(%rbp)
   18926:	48 8d 05 e3 a0 00 00 	lea    0xa0e3(%rip),%rax        # 22a10 <g_144>
   1892d:	48 89 85 90 ef ff ff 	mov    %rax,-0x1070(%rbp)
   18934:	48 8d 05 d5 a0 00 00 	lea    0xa0d5(%rip),%rax        # 22a10 <g_144>
   1893b:	48 89 85 98 ef ff ff 	mov    %rax,-0x1068(%rbp)
   18942:	48 8d 05 c7 a0 00 00 	lea    0xa0c7(%rip),%rax        # 22a10 <g_144>
   18949:	48 89 85 a0 ef ff ff 	mov    %rax,-0x1060(%rbp)
   18950:	c7 85 d8 ec ff ff 00 	movl   $0x0,-0x1328(%rbp)
   18957:	00 00 00 
   1895a:	48 c7 85 80 ee ff ff 	movq   $0x0,-0x1180(%rbp)
   18961:	00 00 00 00 
   18965:	48 c7 85 88 ee ff ff 	movq   $0x0,-0x1178(%rbp)
   1896c:	00 00 00 00 
   18970:	48 8d 05 b9 a0 00 00 	lea    0xa0b9(%rip),%rax        # 22a30 <g_191+0x10>
   18977:	48 89 85 40 ed ff ff 	mov    %rax,-0x12c0(%rbp)
   1897e:	c7 85 dc ec ff ff ff 	movl   $0xffffffff,-0x1324(%rbp)
   18985:	ff ff ff 
   18988:	c7 85 e0 ec ff ff f1 	movl   $0xa9637ff1,-0x1320(%rbp)
   1898f:	7f 63 a9 
   18992:	66 c7 85 d4 ec ff ff 	movw   $0xab30,-0x132c(%rbp)
   18999:	30 ab 
   1899b:	48 c7 85 58 ee ff ff 	movq   $0x0,-0x11a8(%rbp)
   189a2:	00 00 00 00 
   189a6:	48 8d 85 40 ed ff ff 	lea    -0x12c0(%rbp),%rax
   189ad:	48 89 85 60 ee ff ff 	mov    %rax,-0x11a0(%rbp)
   189b4:	48 8d 85 c0 f8 ff ff 	lea    -0x740(%rbp),%rax
   189bb:	48 8d 15 fe b7 00 00 	lea    0xb7fe(%rip),%rdx        # 241c0 <g_4621+0xc62>
   189c2:	b9 e0 00 00 00       	mov    $0xe0,%ecx
   189c7:	48 89 c7             	mov    %rax,%rdi
   189ca:	48 89 d6             	mov    %rdx,%rsi
   189cd:	f3 48 a5             	rep movsq %ds:(%rsi),%es:(%rdi)
   189d0:	66 c7 85 b0 ee ff ff 	movw   $0xffff,-0x1150(%rbp)
   189d7:	ff ff 
   189d9:	66 c7 85 b2 ee ff ff 	movw   $0xffff,-0x114e(%rbp)
   189e0:	ff ff 
   189e2:	66 c7 85 b4 ee ff ff 	movw   $0x0,-0x114c(%rbp)
   189e9:	00 00 
   189eb:	66 c7 85 b6 ee ff ff 	movw   $0xfffc,-0x114a(%rbp)
   189f2:	fc ff 
   189f4:	66 c7 85 b8 ee ff ff 	movw   $0x0,-0x1148(%rbp)
   189fb:	00 00 
   189fd:	66 c7 85 ba ee ff ff 	movw   $0xffff,-0x1146(%rbp)
   18a04:	ff ff 
   18a06:	66 c7 85 bc ee ff ff 	movw   $0xffff,-0x1144(%rbp)
   18a0d:	ff ff 
   18a0f:	66 c7 85 be ee ff ff 	movw   $0x0,-0x1142(%rbp)
   18a16:	00 00 
   18a18:	66 c7 85 c0 ee ff ff 	movw   $0xfffc,-0x1140(%rbp)
   18a1f:	fc ff 
   18a21:	66 c7 85 c2 ee ff ff 	movw   $0x0,-0x113e(%rbp)
   18a28:	00 00 
   18a2a:	48 8d 05 27 a0 00 00 	lea    0xa027(%rip),%rax        # 22a58 <g_286>
   18a31:	48 89 85 68 ee ff ff 	mov    %rax,-0x1198(%rbp)
   18a38:	48 c7 85 70 ee ff ff 	movq   $0x0,-0x1190(%rbp)
   18a3f:	00 00 00 00 
   18a43:	48 c7 85 20 ef ff ff 	movq   $0x0,-0x10e0(%rbp)
   18a4a:	00 00 00 00 
   18a4e:	48 c7 85 28 ef ff ff 	movq   $0x0,-0x10d8(%rbp)
   18a55:	00 00 00 00 
   18a59:	48 c7 85 30 ef ff ff 	movq   $0x0,-0x10d0(%rbp)
   18a60:	00 00 00 00 
   18a64:	48 c7 85 38 ef ff ff 	movq   $0x0,-0x10c8(%rbp)
   18a6b:	00 00 00 00 
   18a6f:	48 c7 85 40 ef ff ff 	movq   $0x0,-0x10c0(%rbp)
   18a76:	00 00 00 00 
   18a7a:	48 c7 85 48 ef ff ff 	movq   $0x0,-0x10b8(%rbp)
   18a81:	00 00 00 00 
   18a85:	48 c7 85 50 ef ff ff 	movq   $0x0,-0x10b0(%rbp)
   18a8c:	00 00 00 00 
   18a90:	48 c7 85 58 ef ff ff 	movq   $0x0,-0x10a8(%rbp)
   18a97:	00 00 00 00 
   18a9b:	48 8d 05 ae 9f 00 00 	lea    0x9fae(%rip),%rax        # 22a50 <g_232>
   18aa2:	48 89 85 78 ee ff ff 	mov    %rax,-0x1188(%rbp)
   18aa9:	66 c7 85 d6 ec ff ff 	movw   $0xfff5,-0x132a(%rbp)
   18ab0:	f5 ff 
   18ab2:	c7 85 2c ed ff ff cc 	movl   $0x97c3d7cc,-0x12d4(%rbp)
   18ab9:	d7 c3 97 
   18abc:	c7 85 30 ed ff ff 00 	movl   $0x0,-0x12d0(%rbp)
   18ac3:	00 00 00 
   18ac6:	eb 19                	jmp    18ae1 <func_50+0x26c>
   18ac8:	8b 85 30 ed ff ff    	mov    -0x12d0(%rbp),%eax
   18ace:	48 98                	cltq   
   18ad0:	66 c7 84 45 a6 ee ff 	movw   $0x42c9,-0x115a(%rbp,%rax,2)
   18ad7:	ff c9 42 
   18ada:	83 85 30 ed ff ff 01 	addl   $0x1,-0x12d0(%rbp)
   18ae1:	83 bd 30 ed ff ff 00 	cmpl   $0x0,-0x12d0(%rbp)
   18ae8:	7e de                	jle    18ac8 <func_50+0x253>
   18aea:	90                   	nop
   18aeb:	8b 85 d8 ec ff ff    	mov    -0x1328(%rbp),%eax
   18af1:	0f b7 d8             	movzwl %ax,%ebx
   18af4:	48 8b 85 38 ed ff ff 	mov    -0x12c8(%rbp),%rax
   18afb:	0f b6 10             	movzbl (%rax),%edx
   18afe:	83 c2 01             	add    $0x1,%edx
   18b01:	88 10                	mov    %dl,(%rax)
   18b03:	0f b6 00             	movzbl (%rax),%eax
   18b06:	0f b6 c0             	movzbl %al,%eax
   18b09:	48 89 85 a0 ec ff ff 	mov    %rax,-0x1360(%rbp)
   18b10:	8b 85 d8 ec ff ff    	mov    -0x1328(%rbp),%eax
   18b16:	4c 63 e0             	movslq %eax,%r12
   18b19:	0f b6 05 c1 9e 00 00 	movzbl 0x9ec1(%rip),%eax        # 229e1 <g_15>
   18b20:	66 98                	cbtw   
   18b22:	44 0f b7 e8          	movzwl %ax,%r13d
   18b26:	0f b6 05 e3 9e 00 00 	movzbl 0x9ee3(%rip),%eax        # 22a10 <g_144>
   18b2d:	83 c0 01             	add    $0x1,%eax
   18b30:	88 05 da 9e 00 00    	mov    %al,0x9eda(%rip)        # 22a10 <g_144>
   18b36:	8b 85 a8 ec ff ff    	mov    -0x1358(%rbp),%eax
   18b3c:	4c 63 f0             	movslq %eax,%r14
   18b3f:	48 8b 05 9a bd 00 00 	mov    0xbd9a(%rip),%rax        # 248e0 <g_151>
   18b46:	48 8d 95 60 ef ff ff 	lea    -0x10a0(%rbp),%rdx
   18b4d:	48 83 c2 38          	add    $0x38,%rdx
   18b51:	48 39 d0             	cmp    %rdx,%rax
   18b54:	0f 95 c0             	setne  %al
   18b57:	0f b6 d0             	movzbl %al,%edx
   18b5a:	8b 05 84 9e 00 00    	mov    0x9e84(%rip),%eax        # 229e4 <g_27>
   18b60:	39 c2                	cmp    %eax,%edx
   18b62:	0f 9f c0             	setg   %al
   18b65:	0f b6 c0             	movzbl %al,%eax
   18b68:	89 c6                	mov    %eax,%esi
   18b6a:	bf 01 00 00 00       	mov    $0x1,%edi
   18b6f:	e8 89 03 ff ff       	callq  8efd <safe_mod_func_uint32_t_u_u>
   18b74:	41 89 c7             	mov    %eax,%r15d
   18b77:	8b 95 d8 ec ff ff    	mov    -0x1328(%rbp),%edx
   18b7d:	0f b7 05 70 9e 00 00 	movzwl 0x9e70(%rip),%eax        # 229f4 <g_68+0x4>
   18b84:	0f b7 c0             	movzwl %ax,%eax
   18b87:	89 d6                	mov    %edx,%esi
   18b89:	89 c7                	mov    %eax,%edi
   18b8b:	e8 b8 02 ff ff       	callq  8e48 <safe_rshift_func_uint16_t_u_s>
   18b90:	0f b7 c0             	movzwl %ax,%eax
   18b93:	44 89 fa             	mov    %r15d,%edx
   18b96:	31 c2                	xor    %eax,%edx
   18b98:	0f b6 85 ac ec ff ff 	movzbl -0x1354(%rbp),%eax
   18b9f:	0f b6 c0             	movzbl %al,%eax
   18ba2:	39 c2                	cmp    %eax,%edx
   18ba4:	4c 89 f6             	mov    %r14,%rsi
   18ba7:	48 c7 c7 ff ff ff ff 	mov    $0xffffffffffffffff,%rdi
   18bae:	e8 7b 04 ff ff       	callq  902e <safe_add_func_uint64_t_u_u>
   18bb3:	48 85 c0             	test   %rax,%rax
   18bb6:	74 08                	je     18bc0 <func_50+0x34b>
   18bb8:	8b 05 26 9e 00 00    	mov    0x9e26(%rip),%eax        # 229e4 <g_27>
   18bbe:	85 c0                	test   %eax,%eax
   18bc0:	0f b6 05 1a 9e 00 00 	movzbl 0x9e1a(%rip),%eax        # 229e1 <g_15>
   18bc7:	c0 e8 07             	shr    $0x7,%al
   18bca:	0f b6 c0             	movzbl %al,%eax
   18bcd:	89 c7                	mov    %eax,%edi
   18bcf:	e8 15 01 ff ff       	callq  8ce9 <safe_unary_minus_func_uint16_t_u>
   18bd4:	48 8d 05 35 9e 00 00 	lea    0x9e35(%rip),%rax        # 22a10 <g_144>
   18bdb:	48 89 85 98 ef ff ff 	mov    %rax,-0x1068(%rbp)
   18be2:	48 8b 95 98 ef ff ff 	mov    -0x1068(%rbp),%rdx
   18be9:	48 8d 85 ac ec ff ff 	lea    -0x1354(%rbp),%rax
   18bf0:	48 39 c2             	cmp    %rax,%rdx
   18bf3:	0f 95 c0             	setne  %al
   18bf6:	0f b6 c0             	movzbl %al,%eax
   18bf9:	44 89 ee             	mov    %r13d,%esi
   18bfc:	89 c7                	mov    %eax,%edi
   18bfe:	e8 59 01 ff ff       	callq  8d5c <safe_mod_func_uint16_t_u_u>
   18c03:	8b 85 a8 ec ff ff    	mov    -0x1358(%rbp),%eax
   18c09:	0f b7 c0             	movzwl %ax,%eax
   18c0c:	be 01 00 00 00       	mov    $0x1,%esi
   18c11:	89 c7                	mov    %eax,%edi
   18c13:	e8 25 01 ff ff       	callq  8d3d <safe_mul_func_uint16_t_u_u>
   18c18:	0f b7 c0             	movzwl %ax,%eax
   18c1b:	4c 89 e6             	mov    %r12,%rsi
   18c1e:	48 89 c7             	mov    %rax,%rdi
   18c21:	e8 5a 04 ff ff       	callq  9080 <safe_mod_func_uint64_t_u_u>
   18c26:	48 39 85 a0 ec ff ff 	cmp    %rax,-0x1360(%rbp)
   18c2d:	0f 92 c0             	setb   %al
   18c30:	0f b6 c0             	movzbl %al,%eax
   18c33:	89 de                	mov    %ebx,%esi
   18c35:	89 c7                	mov    %eax,%edi
   18c37:	e8 01 01 ff ff       	callq  8d3d <safe_mul_func_uint16_t_u_u>
   18c3c:	48 8b 85 b8 ec ff ff 	mov    -0x1348(%rbp),%rax
   18c43:	0f b6 00             	movzbl (%rax),%eax
   18c46:	0f be d0             	movsbl %al,%edx
   18c49:	8b 05 bd 9d 00 00    	mov    0x9dbd(%rip),%eax        # 22a0c <g_129>
   18c4f:	21 d0                	and    %edx,%eax
   18c51:	89 05 b5 9d 00 00    	mov    %eax,0x9db5(%rip)        # 22a0c <g_129>
   18c57:	8b 15 af 9d 00 00    	mov    0x9daf(%rip),%edx        # 22a0c <g_129>
   18c5d:	8b 85 d8 ec ff ff    	mov    -0x1328(%rbp),%eax
   18c63:	39 c2                	cmp    %eax,%edx
   18c65:	0f 8d db 04 00 00    	jge    19146 <func_50+0x8d1>
   18c6b:	48 8d 05 9e 9d 00 00 	lea    0x9d9e(%rip),%rax        # 22a10 <g_144>
   18c72:	48 89 85 38 ee ff ff 	mov    %rax,-0x11c8(%rbp)
   18c79:	c7 85 20 ed ff ff ff 	movl   $0x1dd9acff,-0x12e0(%rbp)
   18c80:	ac d9 1d 
   18c83:	c7 85 24 ed ff ff 03 	movl   $0x3,-0x12dc(%rbp)
   18c8a:	00 00 00 
   18c8d:	48 c7 85 48 ed ff ff 	movq   $0x3,-0x12b8(%rbp)
   18c94:	03 00 00 00 
   18c98:	48 c7 85 50 ed ff ff 	movq   $0x0,-0x12b0(%rbp)
   18c9f:	00 00 00 00 
   18ca3:	c7 85 f0 ee ff ff a1 	movl   $0xb6dcfaa1,-0x1110(%rbp)
   18caa:	fa dc b6 
   18cad:	c7 85 f4 ee ff ff a1 	movl   $0xb6dcfaa1,-0x110c(%rbp)
   18cb4:	fa dc b6 
   18cb7:	c7 85 f8 ee ff ff a1 	movl   $0xb6dcfaa1,-0x1108(%rbp)
   18cbe:	fa dc b6 
   18cc1:	c7 85 fc ee ff ff a1 	movl   $0xb6dcfaa1,-0x1104(%rbp)
   18cc8:	fa dc b6 
   18ccb:	c7 85 00 ef ff ff a1 	movl   $0xb6dcfaa1,-0x1100(%rbp)
   18cd2:	fa dc b6 
   18cd5:	c7 85 04 ef ff ff a1 	movl   $0xb6dcfaa1,-0x10fc(%rbp)
   18cdc:	fa dc b6 
   18cdf:	c7 85 08 ef ff ff a1 	movl   $0xb6dcfaa1,-0x10f8(%rbp)
   18ce6:	fa dc b6 
   18ce9:	c7 85 0c ef ff ff a1 	movl   $0xb6dcfaa1,-0x10f4(%rbp)
   18cf0:	fa dc b6 
   18cf3:	c7 85 10 ef ff ff a1 	movl   $0xb6dcfaa1,-0x10f0(%rbp)
   18cfa:	fa dc b6 
   18cfd:	48 8d 85 d0 f4 ff ff 	lea    -0xb30(%rbp),%rax
   18d04:	48 8d 15 b5 5a 00 00 	lea    0x5ab5(%rip),%rdx        # 1e7c0 <g_4277+0x2700>
   18d0b:	b9 23 00 00 00       	mov    $0x23,%ecx
   18d10:	48 89 c7             	mov    %rax,%rdi
   18d13:	48 89 d6             	mov    %rdx,%rsi
   18d16:	f3 48 a5             	rep movsq %ds:(%rsi),%es:(%rdi)
   18d19:	c7 85 28 ed ff ff 01 	movl   $0x1,-0x12d8(%rbp)
   18d20:	00 00 00 
   18d23:	48 8d 85 dc ec ff ff 	lea    -0x1324(%rbp),%rax
   18d2a:	48 89 85 40 ee ff ff 	mov    %rax,-0x11c0(%rbp)
   18d31:	48 8d 85 f0 ee ff ff 	lea    -0x1110(%rbp),%rax
   18d38:	48 83 c0 14          	add    $0x14,%rax
   18d3c:	48 89 85 48 ee ff ff 	mov    %rax,-0x11b8(%rbp)
   18d43:	48 8d 85 dc ec ff ff 	lea    -0x1324(%rbp),%rax
   18d4a:	48 89 85 50 ee ff ff 	mov    %rax,-0x11b0(%rbp)
   18d51:	48 c7 85 28 ee ff ff 	movq   $0x0,-0x11d8(%rbp)
   18d58:	00 00 00 00 
   18d5c:	48 8d 85 f0 ee ff ff 	lea    -0x1110(%rbp),%rax
   18d63:	48 83 c0 20          	add    $0x20,%rax
   18d67:	48 89 85 f0 ed ff ff 	mov    %rax,-0x1210(%rbp)
   18d6e:	48 8d 85 d0 f4 ff ff 	lea    -0xb30(%rbp),%rax
   18d75:	48 83 c0 10          	add    $0x10,%rax
   18d79:	48 89 85 f8 ed ff ff 	mov    %rax,-0x1208(%rbp)
   18d80:	48 8d 05 5d 9c 00 00 	lea    0x9c5d(%rip),%rax        # 229e4 <g_27>
   18d87:	48 89 85 00 ee ff ff 	mov    %rax,-0x1200(%rbp)
   18d8e:	48 8d 85 f0 ee ff ff 	lea    -0x1110(%rbp),%rax
   18d95:	48 83 c0 14          	add    $0x14,%rax
   18d99:	48 89 85 08 ee ff ff 	mov    %rax,-0x11f8(%rbp)
   18da0:	48 8d 85 e0 ec ff ff 	lea    -0x1320(%rbp),%rax
   18da7:	48 89 85 10 ee ff ff 	mov    %rax,-0x11f0(%rbp)
   18dae:	48 8d 85 d8 ec ff ff 	lea    -0x1328(%rbp),%rax
   18db5:	48 89 85 18 ee ff ff 	mov    %rax,-0x11e8(%rbp)
   18dbc:	48 8d 85 e0 ec ff ff 	lea    -0x1320(%rbp),%rax
   18dc3:	48 89 85 20 ee ff ff 	mov    %rax,-0x11e0(%rbp)
   18dca:	48 8d 85 d0 f4 ff ff 	lea    -0xb30(%rbp),%rax
   18dd1:	48 05 a4 00 00 00    	add    $0xa4,%rax
   18dd7:	48 89 85 e0 ed ff ff 	mov    %rax,-0x1220(%rbp)
   18dde:	c7 85 18 ed ff ff 34 	movl   $0xd6613134,-0x12e8(%rbp)
   18de5:	31 61 d6 
   18de8:	c7 85 1c ed ff ff 00 	movl   $0x0,-0x12e4(%rbp)
   18def:	00 00 00 
   18df2:	eb 1e                	jmp    18e12 <func_50+0x59d>
   18df4:	8b 85 1c ed ff ff    	mov    -0x12e4(%rbp),%eax
   18dfa:	48 98                	cltq   
   18dfc:	48 8d 15 f1 9b 00 00 	lea    0x9bf1(%rip),%rdx        # 229f4 <g_68+0x4>
   18e03:	48 89 94 c5 d0 ee ff 	mov    %rdx,-0x1130(%rbp,%rax,8)
   18e0a:	ff 
   18e0b:	83 85 1c ed ff ff 01 	addl   $0x1,-0x12e4(%rbp)
   18e12:	83 bd 1c ed ff ff 00 	cmpl   $0x0,-0x12e4(%rbp)
   18e19:	7e d9                	jle    18df4 <func_50+0x57f>
   18e1b:	c7 85 1c ed ff ff 00 	movl   $0x0,-0x12e4(%rbp)
   18e22:	00 00 00 
   18e25:	eb 1e                	jmp    18e45 <func_50+0x5d0>
   18e27:	8b 85 1c ed ff ff    	mov    -0x12e4(%rbp),%eax
   18e2d:	48 98                	cltq   
   18e2f:	48 8d 95 40 ed ff ff 	lea    -0x12c0(%rbp),%rdx
   18e36:	48 89 94 c5 b0 ef ff 	mov    %rdx,-0x1050(%rbp,%rax,8)
   18e3d:	ff 
   18e3e:	83 85 1c ed ff ff 01 	addl   $0x1,-0x12e4(%rbp)
   18e45:	83 bd 1c ed ff ff 04 	cmpl   $0x4,-0x12e4(%rbp)
   18e4c:	7e d9                	jle    18e27 <func_50+0x5b2>
   18e4e:	c7 85 1c ed ff ff 00 	movl   $0x0,-0x12e4(%rbp)
   18e55:	00 00 00 
   18e58:	eb 1e                	jmp    18e78 <func_50+0x603>
   18e5a:	8b 85 1c ed ff ff    	mov    -0x12e4(%rbp),%eax
   18e60:	48 98                	cltq   
   18e62:	48 8d 15 7b 9b 00 00 	lea    0x9b7b(%rip),%rdx        # 229e4 <g_27>
   18e69:	48 89 94 c5 b0 f1 ff 	mov    %rdx,-0xe50(%rbp,%rax,8)
   18e70:	ff 
   18e71:	83 85 1c ed ff ff 01 	addl   $0x1,-0x12e4(%rbp)
   18e78:	83 bd 1c ed ff ff 07 	cmpl   $0x7,-0x12e4(%rbp)
   18e7f:	7e d9                	jle    18e5a <func_50+0x5e5>
   18e81:	c6 85 d1 ec ff ff 93 	movb   $0x93,-0x132f(%rbp)
   18e88:	48 c7 85 e8 ed ff ff 	movq   $0x0,-0x1218(%rbp)
   18e8f:	00 00 00 00 
   18e93:	48 8d 85 d8 ec ff ff 	lea    -0x1328(%rbp),%rax
   18e9a:	48 89 85 d0 ed ff ff 	mov    %rax,-0x1230(%rbp)
   18ea1:	48 8d 05 3c 9b 00 00 	lea    0x9b3c(%rip),%rax        # 229e4 <g_27>
   18ea8:	48 89 85 58 ed ff ff 	mov    %rax,-0x12a8(%rbp)
   18eaf:	48 8d 85 58 ed ff ff 	lea    -0x12a8(%rbp),%rax
   18eb6:	48 89 85 d8 ed ff ff 	mov    %rax,-0x1228(%rbp)
   18ebd:	48 8d 05 44 9b 00 00 	lea    0x9b44(%rip),%rax        # 22a08 <g_126>
   18ec4:	48 89 85 90 ed ff ff 	mov    %rax,-0x1270(%rbp)
   18ecb:	0f be 95 d1 ec ff ff 	movsbl -0x132f(%rbp),%edx
   18ed2:	48 8b 85 d0 ed ff ff 	mov    -0x1230(%rbp),%rax
   18ed9:	89 10                	mov    %edx,(%rax)
   18edb:	48 8b 85 d8 ed ff ff 	mov    -0x1228(%rbp),%rax
   18ee2:	48 8d 95 a8 ec ff ff 	lea    -0x1358(%rbp),%rdx
   18ee9:	48 89 10             	mov    %rdx,(%rax)
   18eec:	48 8b 85 90 ed ff ff 	mov    -0x1270(%rbp),%rax
   18ef3:	8b 10                	mov    (%rax),%edx
   18ef5:	8b 85 d8 ec ff ff    	mov    -0x1328(%rbp),%eax
   18efb:	21 c2                	and    %eax,%edx
   18efd:	48 8b 85 90 ed ff ff 	mov    -0x1270(%rbp),%rax
   18f04:	89 10                	mov    %edx,(%rax)
   18f06:	8b 85 e0 ec ff ff    	mov    -0x1320(%rbp),%eax
   18f0c:	89 c1                	mov    %eax,%ecx
   18f0e:	48 8b 85 40 ed ff ff 	mov    -0x12c0(%rbp),%rax
   18f15:	8b 10                	mov    (%rax),%edx
   18f17:	83 ea 01             	sub    $0x1,%edx
   18f1a:	89 10                	mov    %edx,(%rax)
   18f1c:	8b 00                	mov    (%rax),%eax
   18f1e:	85 c0                	test   %eax,%eax
   18f20:	0f 94 c0             	sete   %al
   18f23:	0f b6 d0             	movzbl %al,%edx
   18f26:	c7 85 d8 ec ff ff f7 	movl   $0xfff7,-0x1328(%rbp)
   18f2d:	ff 00 00 
   18f30:	8b 85 d8 ec ff ff    	mov    -0x1328(%rbp),%eax
   18f36:	89 85 dc ec ff ff    	mov    %eax,-0x1324(%rbp)
   18f3c:	8b 85 dc ec ff ff    	mov    -0x1324(%rbp),%eax
   18f42:	39 c2                	cmp    %eax,%edx
   18f44:	0f 9f c0             	setg   %al
   18f47:	89 c2                	mov    %eax,%edx
   18f49:	48 8b 85 38 ee ff ff 	mov    -0x11c8(%rbp),%rax
   18f50:	88 10                	mov    %dl,(%rax)
   18f52:	48 8b 85 38 ee ff ff 	mov    -0x11c8(%rbp),%rax
   18f59:	0f b6 00             	movzbl (%rax),%eax
   18f5c:	0f b6 c0             	movzbl %al,%eax
   18f5f:	89 ce                	mov    %ecx,%esi
   18f61:	89 c7                	mov    %eax,%edi
   18f63:	e8 56 fd fe ff       	callq  8cbe <safe_rshift_func_uint8_t_u_u>
   18f68:	8b 85 40 f5 ff ff    	mov    -0xac0(%rbp),%eax
   18f6e:	0f be c0             	movsbl %al,%eax
   18f71:	be 05 00 00 00       	mov    $0x5,%esi
   18f76:	89 c7                	mov    %eax,%edi
   18f78:	e8 24 f3 fe ff       	callq  82a1 <safe_lshift_func_int8_t_s_s>
   18f7d:	0f b6 c0             	movzbl %al,%eax
   18f80:	be 06 00 00 00       	mov    $0x6,%esi
   18f85:	89 c7                	mov    %eax,%edi
   18f87:	e8 c0 fc fe ff       	callq  8c4c <safe_lshift_func_uint8_t_u_u>
   18f8c:	44 0f b6 f0          	movzbl %al,%r14d
   18f90:	8b 85 28 ed ff ff    	mov    -0x12d8(%rbp),%eax
   18f96:	0f b6 d8             	movzbl %al,%ebx
   18f99:	0f b7 05 64 9a 00 00 	movzwl 0x9a64(%rip),%eax        # 22a04 <g_98>
   18fa0:	44 0f b7 e0          	movzwl %ax,%r12d
   18fa4:	0f b6 85 ac ec ff ff 	movzbl -0x1354(%rbp),%eax
   18fab:	44 0f b6 e8          	movzbl %al,%r13d
   18faf:	48 8b 15 9a 95 00 00 	mov    0x959a(%rip),%rdx        # 22550 <g_3+0x350>
   18fb6:	8b 85 28 ed ff ff    	mov    -0x12d8(%rbp),%eax
   18fbc:	48 98                	cltq   
   18fbe:	48 09 d0             	or     %rdx,%rax
   18fc1:	48 89 c7             	mov    %rax,%rdi
   18fc4:	e8 50 00 ff ff       	callq  9019 <safe_unary_minus_func_uint64_t_u>
   18fc9:	0f b6 c0             	movzbl %al,%eax
   18fcc:	be 01 00 00 00       	mov    $0x1,%esi
   18fd1:	89 c7                	mov    %eax,%edi
   18fd3:	e8 a0 fb fe ff       	callq  8b78 <safe_sub_func_uint8_t_u_u>
   18fd8:	0f b6 c0             	movzbl %al,%eax
   18fdb:	44 89 ee             	mov    %r13d,%esi
   18fde:	89 c7                	mov    %eax,%edi
   18fe0:	e8 d9 fd fe ff       	callq  8dbe <safe_lshift_func_uint16_t_u_s>
   18fe5:	48 c7 85 40 ed ff ff 	movq   $0x0,-0x12c0(%rbp)
   18fec:	00 00 00 00 
   18ff0:	48 8b 85 40 ed ff ff 	mov    -0x12c0(%rbp),%rax
   18ff7:	48 8d 15 3a 9a 00 00 	lea    0x9a3a(%rip),%rdx        # 22a38 <g_191+0x18>
   18ffe:	48 39 d0             	cmp    %rdx,%rax
   19001:	0f 95 c0             	setne  %al
   19004:	89 c2                	mov    %eax,%edx
   19006:	0f b7 05 f3 99 00 00 	movzwl 0x99f3(%rip),%eax        # 22a00 <g_79>
   1900d:	09 d0                	or     %edx,%eax
   1900f:	0f be c0             	movsbl %al,%eax
   19012:	be 67 00 00 00       	mov    $0x67,%esi
   19017:	89 c7                	mov    %eax,%edi
   19019:	e8 f4 f1 fe ff       	callq  8212 <safe_mul_func_int8_t_s_s>
   1901e:	0f b6 d0             	movzbl %al,%edx
   19021:	8b 05 e1 99 00 00    	mov    0x99e1(%rip),%eax        # 22a08 <g_126>
   19027:	0f b6 c0             	movzbl %al,%eax
   1902a:	89 d6                	mov    %edx,%esi
   1902c:	89 c7                	mov    %eax,%edi
   1902e:	e8 60 fb fe ff       	callq  8b93 <safe_mul_func_uint8_t_u_u>
   19033:	0f b6 c0             	movzbl %al,%eax
   19036:	44 89 e6             	mov    %r12d,%esi
   19039:	89 c7                	mov    %eax,%edi
   1903b:	e8 c5 fb fe ff       	callq  8c05 <safe_lshift_func_uint8_t_u_s>
   19040:	0f b6 c0             	movzbl %al,%eax
   19043:	be 3b d6 ff ff       	mov    $0xffffd63b,%esi
   19048:	89 c7                	mov    %eax,%edi
   1904a:	e8 06 f4 fe ff       	callq  8455 <safe_div_func_int16_t_s_s>
   1904f:	0f b6 c0             	movzbl %al,%eax
   19052:	89 de                	mov    %ebx,%esi
   19054:	89 c7                	mov    %eax,%edi
   19056:	e8 80 fb fe ff       	callq  8bdb <safe_div_func_uint8_t_u_u>
   1905b:	0f b6 c0             	movzbl %al,%eax
   1905e:	be 01 00 00 00       	mov    $0x1,%esi
   19063:	89 c7                	mov    %eax,%edi
   19065:	e8 9c fd fe ff       	callq  8e06 <safe_lshift_func_uint16_t_u_u>
   1906a:	48 8b 05 6f b8 00 00 	mov    0xb86f(%rip),%rax        # 248e0 <g_151>
   19071:	48 8b 00             	mov    (%rax),%rax
   19074:	48 85 c0             	test   %rax,%rax
   19077:	0f 95 c0             	setne  %al
   1907a:	0f b6 c0             	movzbl %al,%eax
   1907d:	be 00 00 00 00       	mov    $0x0,%esi
   19082:	89 c7                	mov    %eax,%edi
   19084:	e8 96 fc fe ff       	callq  8d1f <safe_sub_func_uint16_t_u_u>
   19089:	0f b7 d0             	movzwl %ax,%edx
   1908c:	8b 85 e0 ec ff ff    	mov    -0x1320(%rbp),%eax
   19092:	39 c2                	cmp    %eax,%edx
   19094:	0f 9f c0             	setg   %al
   19097:	0f b6 d0             	movzbl %al,%edx
   1909a:	8b 05 90 99 00 00    	mov    0x9990(%rip),%eax        # 22a30 <g_191+0x10>
   190a0:	39 c2                	cmp    %eax,%edx
   190a2:	0f 93 c0             	setae  %al
   190a5:	0f b6 d0             	movzbl %al,%edx
   190a8:	8b 85 a8 ec ff ff    	mov    -0x1358(%rbp),%eax
   190ae:	39 c2                	cmp    %eax,%edx
   190b0:	0f 9e c0             	setle  %al
   190b3:	0f b6 d0             	movzbl %al,%edx
   190b6:	8b 85 d8 ec ff ff    	mov    -0x1328(%rbp),%eax
   190bc:	39 c2                	cmp    %eax,%edx
   190be:	0f 9d c0             	setge  %al
   190c1:	0f b6 c0             	movzbl %al,%eax
   190c4:	48 be 78 ea dd 22 f6 	movabs $0xfd7715f622ddea78,%rsi
   190cb:	15 77 fd 
   190ce:	48 89 c7             	mov    %rax,%rdi
   190d1:	e8 6b f7 fe ff       	callq  8841 <safe_add_func_int64_t_s_s>
   190d6:	48 85 c0             	test   %rax,%rax
   190d9:	74 11                	je     190ec <func_50+0x877>
   190db:	8b 85 a8 ec ff ff    	mov    -0x1358(%rbp),%eax
   190e1:	85 c0                	test   %eax,%eax
   190e3:	74 07                	je     190ec <func_50+0x877>
   190e5:	b8 01 00 00 00       	mov    $0x1,%eax
   190ea:	eb 05                	jmp    190f1 <func_50+0x87c>
   190ec:	b8 00 00 00 00       	mov    $0x0,%eax
   190f1:	44 39 f0             	cmp    %r14d,%eax
   190f4:	b8 fe ff 00 00       	mov    $0xfffe,%eax
   190f9:	89 c2                	mov    %eax,%edx
   190fb:	8b 05 e3 98 00 00    	mov    0x98e3(%rip),%eax        # 229e4 <g_27>
   19101:	21 d0                	and    %edx,%eax
   19103:	89 05 db 98 00 00    	mov    %eax,0x98db(%rip)        # 229e4 <g_27>
   19109:	66 83 ad d4 ec ff ff 	subw   $0x1,-0x132c(%rbp)
   19110:	01 
   19111:	8b 05 4d 99 00 00    	mov    0x994d(%rip),%eax        # 22a64 <g_343>
   19117:	83 c0 01             	add    $0x1,%eax
   1911a:	89 05 44 99 00 00    	mov    %eax,0x9944(%rip)        # 22a64 <g_343>
   19120:	48 8b 05 21 92 00 00 	mov    0x9221(%rip),%rax        # 22348 <g_3+0x148>
   19127:	89 c2                	mov    %eax,%edx
   19129:	8b 05 79 d4 00 00    	mov    0xd479(%rip),%eax        # 265a8 <g_342>
   1912f:	09 d0                	or     %edx,%eax
   19131:	89 05 71 d4 00 00    	mov    %eax,0xd471(%rip)        # 265a8 <g_342>
   19137:	c7 05 cb 98 00 00 00 	movl   $0x0,0x98cb(%rip)        # 22a0c <g_129>
   1913e:	00 00 00 
   19141:	e9 67 0b 00 00       	jmpq   19cad <func_50+0x1438>
   19146:	48 c7 85 58 ed ff ff 	movq   $0x0,-0x12a8(%rbp)
   1914d:	00 00 00 00 
   19151:	48 8d 85 58 ed ff ff 	lea    -0x12a8(%rbp),%rax
   19158:	48 89 85 30 ee ff ff 	mov    %rax,-0x11d0(%rbp)
   1915f:	48 8b 85 30 ee ff ff 	mov    -0x11d0(%rbp),%rax
   19166:	48 8d 95 a8 ec ff ff 	lea    -0x1358(%rbp),%rdx
   1916d:	48 89 10             	mov    %rdx,(%rax)
   19170:	8b 85 e0 ec ff ff    	mov    -0x1320(%rbp),%eax
   19176:	85 c0                	test   %eax,%eax
   19178:	74 05                	je     1917f <func_50+0x90a>
   1917a:	e9 6c f9 ff ff       	jmpq   18aeb <func_50+0x276>
   1917f:	8b 85 d8 ec ff ff    	mov    -0x1328(%rbp),%eax
   19185:	e9 3c 0b 00 00       	jmpq   19cc6 <func_50+0x1451>
   1918a:	48 8d 05 c7 98 00 00 	lea    0x98c7(%rip),%rax        # 22a58 <g_286>
   19191:	48 89 85 98 ed ff ff 	mov    %rax,-0x1268(%rbp)
   19198:	c7 85 e4 ec ff ff 00 	movl   $0x0,-0x131c(%rbp)
   1919f:	00 00 00 
   191a2:	48 b8 e5 a3 c3 59 6d 	movabs $0xf145d16d59c3a3e5,%rax
   191a9:	d1 45 f1 
   191ac:	48 89 85 a0 ed ff ff 	mov    %rax,-0x1260(%rbp)
   191b3:	48 8d 05 ca 98 00 00 	lea    0x98ca(%rip),%rax        # 22a84 <g_445+0x14>
   191ba:	48 89 85 a8 ed ff ff 	mov    %rax,-0x1258(%rbp)
   191c1:	48 8d 05 48 98 00 00 	lea    0x9848(%rip),%rax        # 22a10 <g_144>
   191c8:	48 89 85 b0 ed ff ff 	mov    %rax,-0x1250(%rbp)
   191cf:	48 8d 05 3a 98 00 00 	lea    0x983a(%rip),%rax        # 22a10 <g_144>
   191d6:	48 89 85 b8 ed ff ff 	mov    %rax,-0x1248(%rbp)
   191dd:	48 c7 85 c0 ed ff ff 	movq   $0x0,-0x1240(%rbp)
   191e4:	00 00 00 00 
   191e8:	c6 85 d0 ec ff ff bb 	movb   $0xbb,-0x1330(%rbp)
   191ef:	48 8d 85 b0 ee ff ff 	lea    -0x1150(%rbp),%rax
   191f6:	48 83 c0 02          	add    $0x2,%rax
   191fa:	48 89 85 48 ed ff ff 	mov    %rax,-0x12b8(%rbp)
   19201:	48 8d 85 48 ed ff ff 	lea    -0x12b8(%rbp),%rax
   19208:	48 89 85 c8 ed ff ff 	mov    %rax,-0x1238(%rbp)
   1920f:	c7 85 04 ed ff ff f6 	movl   $0xfffffff6,-0x12fc(%rbp)
   19216:	ff ff ff 
   19219:	c7 85 08 ed ff ff f7 	movl   $0xfffffff7,-0x12f8(%rbp)
   19220:	ff ff ff 
   19223:	c7 85 0c ed ff ff ff 	movl   $0xffffffff,-0x12f4(%rbp)
   1922a:	ff ff ff 
   1922d:	c7 85 10 ed ff ff c1 	movl   $0x6f05a0c1,-0x12f0(%rbp)
   19234:	a0 05 6f 
   19237:	c7 85 14 ed ff ff 02 	movl   $0x2,-0x12ec(%rbp)
   1923e:	00 00 00 
   19241:	c7 85 d0 ee ff ff 30 	movl   $0xf1a3fb30,-0x1130(%rbp)
   19248:	fb a3 f1 
   1924b:	c7 85 d4 ee ff ff b2 	movl   $0xbf1f46b2,-0x112c(%rbp)
   19252:	46 1f bf 
   19255:	c7 85 d8 ee ff ff b2 	movl   $0xbf1f46b2,-0x1128(%rbp)
   1925c:	46 1f bf 
   1925f:	c7 85 dc ee ff ff 30 	movl   $0xf1a3fb30,-0x1124(%rbp)
   19266:	fb a3 f1 
   19269:	c7 85 e0 ee ff ff b2 	movl   $0xbf1f46b2,-0x1120(%rbp)
   19270:	46 1f bf 
   19273:	c7 85 e4 ee ff ff b2 	movl   $0xbf1f46b2,-0x111c(%rbp)
   1927a:	46 1f bf 
   1927d:	c7 85 e8 ee ff ff 30 	movl   $0xf1a3fb30,-0x1118(%rbp)
   19284:	fb a3 f1 
   19287:	66 c7 85 f0 ee ff ff 	movw   $0x5,-0x1110(%rbp)
   1928e:	05 00 
   19290:	66 c7 85 f2 ee ff ff 	movw   $0x5,-0x110e(%rbp)
   19297:	05 00 
   19299:	66 c7 85 f4 ee ff ff 	movw   $0x5,-0x110c(%rbp)
   192a0:	05 00 
   192a2:	66 c7 85 f6 ee ff ff 	movw   $0xd90e,-0x110a(%rbp)
   192a9:	0e d9 
   192ab:	66 c7 85 f8 ee ff ff 	movw   $0x2f88,-0x1108(%rbp)
   192b2:	88 2f 
   192b4:	66 c7 85 fa ee ff ff 	movw   $0xd90e,-0x1106(%rbp)
   192bb:	0e d9 
   192bd:	66 c7 85 fc ee ff ff 	movw   $0x5,-0x1104(%rbp)
   192c4:	05 00 
   192c6:	66 c7 85 fe ee ff ff 	movw   $0x5,-0x1102(%rbp)
   192cd:	05 00 
   192cf:	66 c7 85 00 ef ff ff 	movw   $0x5,-0x1100(%rbp)
   192d6:	05 00 
   192d8:	66 c7 85 02 ef ff ff 	movw   $0xd90e,-0x10fe(%rbp)
   192df:	0e d9 
   192e1:	66 c7 85 04 ef ff ff 	movw   $0x2f88,-0x10fc(%rbp)
   192e8:	88 2f 
   192ea:	66 c7 85 06 ef ff ff 	movw   $0xd90e,-0x10fa(%rbp)
   192f1:	0e d9 
   192f3:	66 c7 85 08 ef ff ff 	movw   $0x5,-0x10f8(%rbp)
   192fa:	05 00 
   192fc:	66 c7 85 0a ef ff ff 	movw   $0x5,-0x10f6(%rbp)
   19303:	05 00 
   19305:	66 c7 85 0c ef ff ff 	movw   $0x5,-0x10f4(%rbp)
   1930c:	05 00 
   1930e:	48 8d 05 d3 b5 00 00 	lea    0xb5d3(%rip),%rax        # 248e8 <g_451>
   19315:	48 89 85 80 ed ff ff 	mov    %rax,-0x1280(%rbp)
   1931c:	c7 85 00 ed ff ff c1 	movl   $0x5c0097c1,-0x1300(%rbp)
   19323:	97 00 5c 
   19326:	48 c7 85 88 ed ff ff 	movq   $0x0,-0x1278(%rbp)
   1932d:	00 00 00 00 
   19331:	66 c7 85 d2 ec ff ff 	movw   $0xfdb3,-0x132e(%rbp)
   19338:	b3 fd 
   1933a:	48 c7 85 50 ed ff ff 	movq   $0x0,-0x12b0(%rbp)
   19341:	00 00 00 00 
   19345:	48 8d 85 50 ed ff ff 	lea    -0x12b0(%rbp),%rax
   1934c:	48 89 85 70 ed ff ff 	mov    %rax,-0x1290(%rbp)
   19353:	c7 85 fc ec ff ff a1 	movl   $0x79b276a1,-0x1304(%rbp)
   1935a:	76 b2 79 
   1935d:	48 8d 85 e4 ec ff ff 	lea    -0x131c(%rbp),%rax
   19364:	48 89 85 78 ed ff ff 	mov    %rax,-0x1288(%rbp)
   1936b:	48 8d 85 d0 f4 ff ff 	lea    -0xb30(%rbp),%rax
   19372:	48 8d 15 67 55 00 00 	lea    0x5567(%rip),%rdx        # 1e8e0 <g_4277+0x2820>
   19379:	b9 7e 00 00 00       	mov    $0x7e,%ecx
   1937e:	48 89 c7             	mov    %rax,%rdi
   19381:	48 89 d6             	mov    %rdx,%rsi
   19384:	f3 48 a5             	rep movsq %ds:(%rsi),%es:(%rdi)
   19387:	c7 85 f4 ec ff ff 00 	movl   $0x0,-0x130c(%rbp)
   1938e:	00 00 00 
   19391:	eb 1e                	jmp    193b1 <func_50+0xb3c>
   19393:	8b 85 f4 ec ff ff    	mov    -0x130c(%rbp),%eax
   19399:	48 98                	cltq   
   1939b:	48 8d 15 7e 96 00 00 	lea    0x967e(%rip),%rdx        # 22a20 <g_191>
   193a2:	48 89 94 c5 a8 ee ff 	mov    %rdx,-0x1158(%rbp,%rax,8)
   193a9:	ff 
   193aa:	83 85 f4 ec ff ff 01 	addl   $0x1,-0x130c(%rbp)
   193b1:	83 bd f4 ec ff ff 00 	cmpl   $0x0,-0x130c(%rbp)
   193b8:	7e d9                	jle    19393 <func_50+0xb1e>
   193ba:	8b 85 a8 ec ff ff    	mov    -0x1358(%rbp),%eax
   193c0:	85 c0                	test   %eax,%eax
   193c2:	0f 85 dd 08 00 00    	jne    19ca5 <func_50+0x1430>
   193c8:	c6 85 cf ec ff ff 01 	movb   $0x1,-0x1331(%rbp)
   193cf:	c7 85 f8 ec ff ff 01 	movl   $0x1,-0x1308(%rbp)
   193d6:	00 00 00 
   193d9:	c7 05 c5 d1 00 00 00 	movl   $0x0,0xd1c5(%rip)        # 265a8 <g_342>
   193e0:	00 00 00 
   193e3:	e9 db 07 00 00       	jmpq   19bc3 <func_50+0x134e>
   193e8:	c7 85 e8 ec ff ff 19 	movl   $0xd4de7019,-0x1318(%rbp)
   193ef:	70 de d4 
   193f2:	c7 85 ec ec ff ff 78 	movl   $0x12c3f378,-0x1314(%rbp)
   193f9:	f3 c3 12 
   193fc:	c7 85 f0 ec ff ff 05 	movl   $0x4d8a2f05,-0x1310(%rbp)
   19403:	2f 8a 4d 
   19406:	c6 05 d4 95 00 00 06 	movb   $0x6,0x95d4(%rip)        # 229e1 <g_15>
   1940d:	e9 93 07 00 00       	jmpq   19ba5 <func_50+0x1330>
   19412:	48 8d 05 ef 95 00 00 	lea    0x95ef(%rip),%rax        # 22a08 <g_126>
   19419:	48 89 85 b0 f1 ff ff 	mov    %rax,-0xe50(%rbp)
   19420:	48 8d 85 dc ec ff ff 	lea    -0x1324(%rbp),%rax
   19427:	48 89 85 b8 f1 ff ff 	mov    %rax,-0xe48(%rbp)
   1942e:	48 8d 05 d3 95 00 00 	lea    0x95d3(%rip),%rax        # 22a08 <g_126>
   19435:	48 89 85 c0 f1 ff ff 	mov    %rax,-0xe40(%rbp)
   1943c:	48 8d 85 d8 ec ff ff 	lea    -0x1328(%rbp),%rax
   19443:	48 89 85 c8 f1 ff ff 	mov    %rax,-0xe38(%rbp)
   1944a:	48 8d 05 93 95 00 00 	lea    0x9593(%rip),%rax        # 229e4 <g_27>
   19451:	48 89 85 d0 f1 ff ff 	mov    %rax,-0xe30(%rbp)
   19458:	48 8d 85 e0 ec ff ff 	lea    -0x1320(%rbp),%rax
   1945f:	48 89 85 d8 f1 ff ff 	mov    %rax,-0xe28(%rbp)
   19466:	48 8d 85 d8 ec ff ff 	lea    -0x1328(%rbp),%rax
   1946d:	48 89 85 e0 f1 ff ff 	mov    %rax,-0xe20(%rbp)
   19474:	48 8d 85 e0 ec ff ff 	lea    -0x1320(%rbp),%rax
   1947b:	48 89 85 e8 f1 ff ff 	mov    %rax,-0xe18(%rbp)
   19482:	48 8d 85 e0 ec ff ff 	lea    -0x1320(%rbp),%rax
   19489:	48 89 85 f0 f1 ff ff 	mov    %rax,-0xe10(%rbp)
   19490:	48 8d 85 e0 ec ff ff 	lea    -0x1320(%rbp),%rax
   19497:	48 89 85 f8 f1 ff ff 	mov    %rax,-0xe08(%rbp)
   1949e:	48 8d 05 63 95 00 00 	lea    0x9563(%rip),%rax        # 22a08 <g_126>
   194a5:	48 89 85 00 f2 ff ff 	mov    %rax,-0xe00(%rbp)
   194ac:	48 8d 85 dc ec ff ff 	lea    -0x1324(%rbp),%rax
   194b3:	48 89 85 08 f2 ff ff 	mov    %rax,-0xdf8(%rbp)
   194ba:	48 8d 05 47 95 00 00 	lea    0x9547(%rip),%rax        # 22a08 <g_126>
   194c1:	48 89 85 10 f2 ff ff 	mov    %rax,-0xdf0(%rbp)
   194c8:	48 8d 85 d8 ec ff ff 	lea    -0x1328(%rbp),%rax
   194cf:	48 89 85 18 f2 ff ff 	mov    %rax,-0xde8(%rbp)
   194d6:	48 8d 05 07 95 00 00 	lea    0x9507(%rip),%rax        # 229e4 <g_27>
   194dd:	48 89 85 20 f2 ff ff 	mov    %rax,-0xde0(%rbp)
   194e4:	48 8d 85 e0 ec ff ff 	lea    -0x1320(%rbp),%rax
   194eb:	48 89 85 28 f2 ff ff 	mov    %rax,-0xdd8(%rbp)
   194f2:	48 8d 85 d8 ec ff ff 	lea    -0x1328(%rbp),%rax
   194f9:	48 89 85 30 f2 ff ff 	mov    %rax,-0xdd0(%rbp)
   19500:	48 8d 85 e0 ec ff ff 	lea    -0x1320(%rbp),%rax
   19507:	48 89 85 38 f2 ff ff 	mov    %rax,-0xdc8(%rbp)
   1950e:	48 8d 85 e0 ec ff ff 	lea    -0x1320(%rbp),%rax
   19515:	48 89 85 40 f2 ff ff 	mov    %rax,-0xdc0(%rbp)
   1951c:	48 8d 85 e0 ec ff ff 	lea    -0x1320(%rbp),%rax
   19523:	48 89 85 48 f2 ff ff 	mov    %rax,-0xdb8(%rbp)
   1952a:	48 8d 05 d7 94 00 00 	lea    0x94d7(%rip),%rax        # 22a08 <g_126>
   19531:	48 89 85 50 f2 ff ff 	mov    %rax,-0xdb0(%rbp)
   19538:	48 8d 85 dc ec ff ff 	lea    -0x1324(%rbp),%rax
   1953f:	48 89 85 58 f2 ff ff 	mov    %rax,-0xda8(%rbp)
   19546:	48 8d 05 bb 94 00 00 	lea    0x94bb(%rip),%rax        # 22a08 <g_126>
   1954d:	48 89 85 60 f2 ff ff 	mov    %rax,-0xda0(%rbp)
   19554:	48 8d 85 d8 ec ff ff 	lea    -0x1328(%rbp),%rax
   1955b:	48 89 85 68 f2 ff ff 	mov    %rax,-0xd98(%rbp)
   19562:	48 8d 05 7b 94 00 00 	lea    0x947b(%rip),%rax        # 229e4 <g_27>
   19569:	48 89 85 70 f2 ff ff 	mov    %rax,-0xd90(%rbp)
   19570:	48 8d 85 e0 ec ff ff 	lea    -0x1320(%rbp),%rax
   19577:	48 89 85 78 f2 ff ff 	mov    %rax,-0xd88(%rbp)
   1957e:	48 8d 85 d8 ec ff ff 	lea    -0x1328(%rbp),%rax
   19585:	48 89 85 80 f2 ff ff 	mov    %rax,-0xd80(%rbp)
   1958c:	48 8d 85 e0 ec ff ff 	lea    -0x1320(%rbp),%rax
   19593:	48 89 85 88 f2 ff ff 	mov    %rax,-0xd78(%rbp)
   1959a:	48 8d 85 e0 ec ff ff 	lea    -0x1320(%rbp),%rax
   195a1:	48 89 85 90 f2 ff ff 	mov    %rax,-0xd70(%rbp)
   195a8:	48 8d 85 e0 ec ff ff 	lea    -0x1320(%rbp),%rax
   195af:	48 89 85 98 f2 ff ff 	mov    %rax,-0xd68(%rbp)
   195b6:	48 8d 05 4b 94 00 00 	lea    0x944b(%rip),%rax        # 22a08 <g_126>
   195bd:	48 89 85 a0 f2 ff ff 	mov    %rax,-0xd60(%rbp)
   195c4:	48 8d 85 dc ec ff ff 	lea    -0x1324(%rbp),%rax
   195cb:	48 89 85 a8 f2 ff ff 	mov    %rax,-0xd58(%rbp)
   195d2:	48 8d 05 2f 94 00 00 	lea    0x942f(%rip),%rax        # 22a08 <g_126>
   195d9:	48 89 85 b0 f2 ff ff 	mov    %rax,-0xd50(%rbp)
   195e0:	48 8d 85 d8 ec ff ff 	lea    -0x1328(%rbp),%rax
   195e7:	48 89 85 b8 f2 ff ff 	mov    %rax,-0xd48(%rbp)
   195ee:	48 8d 05 ef 93 00 00 	lea    0x93ef(%rip),%rax        # 229e4 <g_27>
   195f5:	48 89 85 c0 f2 ff ff 	mov    %rax,-0xd40(%rbp)
   195fc:	48 8d 85 e0 ec ff ff 	lea    -0x1320(%rbp),%rax
   19603:	48 89 85 c8 f2 ff ff 	mov    %rax,-0xd38(%rbp)
   1960a:	48 8d 85 d8 ec ff ff 	lea    -0x1328(%rbp),%rax
   19611:	48 89 85 d0 f2 ff ff 	mov    %rax,-0xd30(%rbp)
   19618:	48 8d 85 e0 ec ff ff 	lea    -0x1320(%rbp),%rax
   1961f:	48 89 85 d8 f2 ff ff 	mov    %rax,-0xd28(%rbp)
   19626:	48 8d 85 e0 ec ff ff 	lea    -0x1320(%rbp),%rax
   1962d:	48 89 85 e0 f2 ff ff 	mov    %rax,-0xd20(%rbp)
   19634:	48 8d 85 e0 ec ff ff 	lea    -0x1320(%rbp),%rax
   1963b:	48 89 85 e8 f2 ff ff 	mov    %rax,-0xd18(%rbp)
   19642:	48 8d 05 bf 93 00 00 	lea    0x93bf(%rip),%rax        # 22a08 <g_126>
   19649:	48 89 85 f0 f2 ff ff 	mov    %rax,-0xd10(%rbp)
   19650:	48 8d 85 dc ec ff ff 	lea    -0x1324(%rbp),%rax
   19657:	48 89 85 f8 f2 ff ff 	mov    %rax,-0xd08(%rbp)
   1965e:	48 8d 05 a3 93 00 00 	lea    0x93a3(%rip),%rax        # 22a08 <g_126>
   19665:	48 89 85 00 f3 ff ff 	mov    %rax,-0xd00(%rbp)
   1966c:	48 8d 85 d8 ec ff ff 	lea    -0x1328(%rbp),%rax
   19673:	48 89 85 08 f3 ff ff 	mov    %rax,-0xcf8(%rbp)
   1967a:	48 8d 05 63 93 00 00 	lea    0x9363(%rip),%rax        # 229e4 <g_27>
   19681:	48 89 85 10 f3 ff ff 	mov    %rax,-0xcf0(%rbp)
   19688:	48 8d 85 e0 ec ff ff 	lea    -0x1320(%rbp),%rax
   1968f:	48 89 85 18 f3 ff ff 	mov    %rax,-0xce8(%rbp)
   19696:	48 8d 85 d8 ec ff ff 	lea    -0x1328(%rbp),%rax
   1969d:	48 89 85 20 f3 ff ff 	mov    %rax,-0xce0(%rbp)
   196a4:	48 8d 85 e0 ec ff ff 	lea    -0x1320(%rbp),%rax
   196ab:	48 89 85 28 f3 ff ff 	mov    %rax,-0xcd8(%rbp)
   196b2:	48 8d 85 e0 ec ff ff 	lea    -0x1320(%rbp),%rax
   196b9:	48 89 85 30 f3 ff ff 	mov    %rax,-0xcd0(%rbp)
   196c0:	48 8d 85 e0 ec ff ff 	lea    -0x1320(%rbp),%rax
   196c7:	48 89 85 38 f3 ff ff 	mov    %rax,-0xcc8(%rbp)
   196ce:	48 8d 05 33 93 00 00 	lea    0x9333(%rip),%rax        # 22a08 <g_126>
   196d5:	48 89 85 40 f3 ff ff 	mov    %rax,-0xcc0(%rbp)
   196dc:	48 8d 85 dc ec ff ff 	lea    -0x1324(%rbp),%rax
   196e3:	48 89 85 48 f3 ff ff 	mov    %rax,-0xcb8(%rbp)
   196ea:	48 8d 05 17 93 00 00 	lea    0x9317(%rip),%rax        # 22a08 <g_126>
   196f1:	48 89 85 50 f3 ff ff 	mov    %rax,-0xcb0(%rbp)
   196f8:	48 8d 85 d8 ec ff ff 	lea    -0x1328(%rbp),%rax
   196ff:	48 89 85 58 f3 ff ff 	mov    %rax,-0xca8(%rbp)
   19706:	48 8d 05 d7 92 00 00 	lea    0x92d7(%rip),%rax        # 229e4 <g_27>
   1970d:	48 89 85 60 f3 ff ff 	mov    %rax,-0xca0(%rbp)
   19714:	48 8d 85 e0 ec ff ff 	lea    -0x1320(%rbp),%rax
   1971b:	48 89 85 68 f3 ff ff 	mov    %rax,-0xc98(%rbp)
   19722:	48 8d 85 d8 ec ff ff 	lea    -0x1328(%rbp),%rax
   19729:	48 89 85 70 f3 ff ff 	mov    %rax,-0xc90(%rbp)
   19730:	48 8d 85 e0 ec ff ff 	lea    -0x1320(%rbp),%rax
   19737:	48 89 85 78 f3 ff ff 	mov    %rax,-0xc88(%rbp)
   1973e:	48 8d 85 e0 ec ff ff 	lea    -0x1320(%rbp),%rax
   19745:	48 89 85 80 f3 ff ff 	mov    %rax,-0xc80(%rbp)
   1974c:	48 8d 85 e0 ec ff ff 	lea    -0x1320(%rbp),%rax
   19753:	48 89 85 88 f3 ff ff 	mov    %rax,-0xc78(%rbp)
   1975a:	48 8d 05 a7 92 00 00 	lea    0x92a7(%rip),%rax        # 22a08 <g_126>
   19761:	48 89 85 90 f3 ff ff 	mov    %rax,-0xc70(%rbp)
   19768:	48 8d 85 dc ec ff ff 	lea    -0x1324(%rbp),%rax
   1976f:	48 89 85 98 f3 ff ff 	mov    %rax,-0xc68(%rbp)
   19776:	48 8d 05 8b 92 00 00 	lea    0x928b(%rip),%rax        # 22a08 <g_126>
   1977d:	48 89 85 a0 f3 ff ff 	mov    %rax,-0xc60(%rbp)
   19784:	48 8d 85 d8 ec ff ff 	lea    -0x1328(%rbp),%rax
   1978b:	48 89 85 a8 f3 ff ff 	mov    %rax,-0xc58(%rbp)
   19792:	48 8d 05 6f 92 00 00 	lea    0x926f(%rip),%rax        # 22a08 <g_126>
   19799:	48 89 85 b0 f3 ff ff 	mov    %rax,-0xc50(%rbp)
   197a0:	48 c7 85 b8 f3 ff ff 	movq   $0x0,-0xc48(%rbp)
   197a7:	00 00 00 00 
   197ab:	48 8d 85 e0 ec ff ff 	lea    -0x1320(%rbp),%rax
   197b2:	48 89 85 c0 f3 ff ff 	mov    %rax,-0xc40(%rbp)
   197b9:	48 c7 85 c8 f3 ff ff 	movq   $0x0,-0xc38(%rbp)
   197c0:	00 00 00 00 
   197c4:	48 8d 85 e0 ec ff ff 	lea    -0x1320(%rbp),%rax
   197cb:	48 89 85 d0 f3 ff ff 	mov    %rax,-0xc30(%rbp)
   197d2:	48 8d 85 e0 ec ff ff 	lea    -0x1320(%rbp),%rax
   197d9:	48 89 85 d8 f3 ff ff 	mov    %rax,-0xc28(%rbp)
   197e0:	48 8d 05 21 92 00 00 	lea    0x9221(%rip),%rax        # 22a08 <g_126>
   197e7:	48 89 85 e0 f3 ff ff 	mov    %rax,-0xc20(%rbp)
   197ee:	48 c7 85 e8 f3 ff ff 	movq   $0x0,-0xc18(%rbp)
   197f5:	00 00 00 00 
   197f9:	48 8d 05 08 92 00 00 	lea    0x9208(%rip),%rax        # 22a08 <g_126>
   19800:	48 89 85 f0 f3 ff ff 	mov    %rax,-0xc10(%rbp)
   19807:	48 c7 85 f8 f3 ff ff 	movq   $0x0,-0xc08(%rbp)
   1980e:	00 00 00 00 
   19812:	48 8d 05 ef 91 00 00 	lea    0x91ef(%rip),%rax        # 22a08 <g_126>
   19819:	48 89 85 00 f4 ff ff 	mov    %rax,-0xc00(%rbp)
   19820:	48 c7 85 08 f4 ff ff 	movq   $0x0,-0xbf8(%rbp)
   19827:	00 00 00 00 
   1982b:	48 8d 85 e0 ec ff ff 	lea    -0x1320(%rbp),%rax
   19832:	48 89 85 10 f4 ff ff 	mov    %rax,-0xbf0(%rbp)
   19839:	48 c7 85 18 f4 ff ff 	movq   $0x0,-0xbe8(%rbp)
   19840:	00 00 00 00 
   19844:	48 8d 85 e0 ec ff ff 	lea    -0x1320(%rbp),%rax
   1984b:	48 89 85 20 f4 ff ff 	mov    %rax,-0xbe0(%rbp)
   19852:	48 8d 85 e0 ec ff ff 	lea    -0x1320(%rbp),%rax
   19859:	48 89 85 28 f4 ff ff 	mov    %rax,-0xbd8(%rbp)
   19860:	48 8d 05 a1 91 00 00 	lea    0x91a1(%rip),%rax        # 22a08 <g_126>
   19867:	48 89 85 30 f4 ff ff 	mov    %rax,-0xbd0(%rbp)
   1986e:	48 c7 85 38 f4 ff ff 	movq   $0x0,-0xbc8(%rbp)
   19875:	00 00 00 00 
   19879:	48 8d 05 88 91 00 00 	lea    0x9188(%rip),%rax        # 22a08 <g_126>
   19880:	48 89 85 40 f4 ff ff 	mov    %rax,-0xbc0(%rbp)
   19887:	48 c7 85 48 f4 ff ff 	movq   $0x0,-0xbb8(%rbp)
   1988e:	00 00 00 00 
   19892:	48 8d 05 6f 91 00 00 	lea    0x916f(%rip),%rax        # 22a08 <g_126>
   19899:	48 89 85 50 f4 ff ff 	mov    %rax,-0xbb0(%rbp)
   198a0:	48 c7 85 58 f4 ff ff 	movq   $0x0,-0xba8(%rbp)
   198a7:	00 00 00 00 
   198ab:	48 8d 85 e0 ec ff ff 	lea    -0x1320(%rbp),%rax
   198b2:	48 89 85 60 f4 ff ff 	mov    %rax,-0xba0(%rbp)
   198b9:	48 c7 85 68 f4 ff ff 	movq   $0x0,-0xb98(%rbp)
   198c0:	00 00 00 00 
   198c4:	48 8d 85 e0 ec ff ff 	lea    -0x1320(%rbp),%rax
   198cb:	48 89 85 70 f4 ff ff 	mov    %rax,-0xb90(%rbp)
   198d2:	48 8d 85 e0 ec ff ff 	lea    -0x1320(%rbp),%rax
   198d9:	48 89 85 78 f4 ff ff 	mov    %rax,-0xb88(%rbp)
   198e0:	48 8d 05 21 91 00 00 	lea    0x9121(%rip),%rax        # 22a08 <g_126>
   198e7:	48 89 85 80 f4 ff ff 	mov    %rax,-0xb80(%rbp)
   198ee:	48 c7 85 88 f4 ff ff 	movq   $0x0,-0xb78(%rbp)
   198f5:	00 00 00 00 
   198f9:	48 8d 05 08 91 00 00 	lea    0x9108(%rip),%rax        # 22a08 <g_126>
   19900:	48 89 85 90 f4 ff ff 	mov    %rax,-0xb70(%rbp)
   19907:	48 c7 85 98 f4 ff ff 	movq   $0x0,-0xb68(%rbp)
   1990e:	00 00 00 00 
   19912:	48 8d 05 ef 90 00 00 	lea    0x90ef(%rip),%rax        # 22a08 <g_126>
   19919:	48 89 85 a0 f4 ff ff 	mov    %rax,-0xb60(%rbp)
   19920:	48 c7 85 a8 f4 ff ff 	movq   $0x0,-0xb58(%rbp)
   19927:	00 00 00 00 
   1992b:	48 8d 85 e0 ec ff ff 	lea    -0x1320(%rbp),%rax
   19932:	48 89 85 b0 f4 ff ff 	mov    %rax,-0xb50(%rbp)
   19939:	48 c7 85 b8 f4 ff ff 	movq   $0x0,-0xb48(%rbp)
   19940:	00 00 00 00 
   19944:	48 8d 85 e0 ec ff ff 	lea    -0x1320(%rbp),%rax
   1994b:	48 89 85 c0 f4 ff ff 	mov    %rax,-0xb40(%rbp)
   19952:	48 8d 85 e0 ec ff ff 	lea    -0x1320(%rbp),%rax
   19959:	48 89 85 c8 f4 ff ff 	mov    %rax,-0xb38(%rbp)
   19960:	48 8d 85 cf ec ff ff 	lea    -0x1331(%rbp),%rax
   19967:	48 89 85 90 ee ff ff 	mov    %rax,-0x1170(%rbp)
   1996e:	48 8d 85 b0 ef ff ff 	lea    -0x1050(%rbp),%rax
   19975:	48 8d 15 64 53 00 00 	lea    0x5364(%rip),%rdx        # 1ece0 <g_4277+0x2c20>
   1997c:	b9 3f 00 00 00       	mov    $0x3f,%ecx
   19981:	48 89 c7             	mov    %rax,%rdi
   19984:	48 89 d6             	mov    %rdx,%rsi
   19987:	f3 48 a5             	rep movsq %ds:(%rsi),%es:(%rdi)
   1998a:	c7 85 34 ed ff ff 05 	movl   $0x5bdc4105,-0x12cc(%rbp)
   19991:	41 dc 5b 
   19994:	48 8d 05 0d cc 00 00 	lea    0xcc0d(%rip),%rax        # 265a8 <g_342>
   1999b:	48 89 85 58 ed ff ff 	mov    %rax,-0x12a8(%rbp)
   199a2:	48 8d 85 58 ed ff ff 	lea    -0x12a8(%rbp),%rax
   199a9:	48 89 85 98 ee ff ff 	mov    %rax,-0x1168(%rbp)
   199b0:	0f b6 85 ac ec ff ff 	movzbl -0x1354(%rbp),%eax
   199b7:	0f b6 c0             	movzbl %al,%eax
   199ba:	89 c6                	mov    %eax,%esi
   199bc:	bf e0 0c 00 00       	mov    $0xce0,%edi
   199c1:	e8 59 f3 fe ff       	callq  8d1f <safe_sub_func_uint16_t_u_u>
   199c6:	0f b7 d0             	movzwl %ax,%edx
   199c9:	8b 05 15 90 00 00    	mov    0x9015(%rip),%eax        # 229e4 <g_27>
   199cf:	21 d0                	and    %edx,%eax
   199d1:	89 05 0d 90 00 00    	mov    %eax,0x900d(%rip)        # 229e4 <g_27>
   199d7:	0f b6 85 ac ec ff ff 	movzbl -0x1354(%rbp),%eax
   199de:	0f b6 d8             	movzbl %al,%ebx
   199e1:	8b 05 79 90 00 00    	mov    0x9079(%rip),%eax        # 22a60 <g_341>
   199e7:	41 89 c4             	mov    %eax,%r12d
   199ea:	48 83 bd 98 ed ff ff 	cmpq   $0x0,-0x1268(%rbp)
   199f1:	00 
   199f2:	75 5e                	jne    19a52 <func_50+0x11dd>
   199f4:	0f b7 05 45 90 00 00 	movzwl 0x9045(%rip),%eax        # 22a40 <g_195>
   199fb:	89 c2                	mov    %eax,%edx
   199fd:	48 8b 85 90 ee ff ff 	mov    -0x1170(%rbp),%rax
   19a04:	88 10                	mov    %dl,(%rax)
   19a06:	0f b7 05 eb 8f 00 00 	movzwl 0x8feb(%rip),%eax        # 229f8 <g_68+0x8>
   19a0d:	0f b7 c0             	movzwl %ax,%eax
   19a10:	23 85 34 ed ff ff    	and    -0x12cc(%rbp),%eax
   19a16:	89 85 e4 ec ff ff    	mov    %eax,-0x131c(%rbp)
   19a1c:	8b 85 e4 ec ff ff    	mov    -0x131c(%rbp),%eax
   19a22:	0f b6 c0             	movzbl %al,%eax
   19a25:	be f2 00 00 00       	mov    $0xf2,%esi
   19a2a:	89 c7                	mov    %eax,%edi
   19a2c:	e8 aa f1 fe ff       	callq  8bdb <safe_div_func_uint8_t_u_u>
   19a31:	be 01 00 00 00       	mov    $0x1,%esi
   19a36:	bf 00 00 00 00       	mov    $0x0,%edi
   19a3b:	e8 f5 e8 fe ff       	callq  8335 <safe_rshift_func_int8_t_s_s>
   19a40:	0f be c0             	movsbl %al,%eax
   19a43:	21 85 ec ec ff ff    	and    %eax,-0x1314(%rbp)
   19a49:	83 bd ec ec ff ff 00 	cmpl   $0x0,-0x1314(%rbp)
   19a50:	74 07                	je     19a59 <func_50+0x11e4>
   19a52:	b8 01 00 00 00       	mov    $0x1,%eax
   19a57:	eb 05                	jmp    19a5e <func_50+0x11e9>
   19a59:	b8 00 00 00 00       	mov    $0x0,%eax
   19a5e:	3d f9 00 00 00       	cmp    $0xf9,%eax
   19a63:	0f 9f c0             	setg   %al
   19a66:	0f b6 c0             	movzbl %al,%eax
   19a69:	be f1 00 00 00       	mov    $0xf1,%esi
   19a6e:	89 c7                	mov    %eax,%edi
   19a70:	e8 1e f1 fe ff       	callq  8b93 <safe_mul_func_uint8_t_u_u>
   19a75:	48 8b 05 3c 8d 00 00 	mov    0x8d3c(%rip),%rax        # 227b8 <g_3+0x5b8>
   19a7c:	44 89 e6             	mov    %r12d,%esi
   19a7f:	89 c7                	mov    %eax,%edi
   19a81:	e8 77 f4 fe ff       	callq  8efd <safe_mod_func_uint32_t_u_u>
   19a86:	89 c1                	mov    %eax,%ecx
   19a88:	48 8b 85 b8 ec ff ff 	mov    -0x1348(%rbp),%rax
   19a8f:	0f b6 00             	movzbl (%rax),%eax
   19a92:	84 c0                	test   %al,%al
   19a94:	0f 94 c0             	sete   %al
   19a97:	0f b6 d0             	movzbl %al,%edx
   19a9a:	48 8b 85 98 ed ff ff 	mov    -0x1268(%rbp),%rax
   19aa1:	48 8b 00             	mov    (%rax),%rax
   19aa4:	89 c9                	mov    %ecx,%ecx
   19aa6:	48 09 c1             	or     %rax,%rcx
   19aa9:	48 8b 85 98 ed ff ff 	mov    -0x1268(%rbp),%rax
   19ab0:	48 89 08             	mov    %rcx,(%rax)
   19ab3:	48 8b 85 98 ed ff ff 	mov    -0x1268(%rbp),%rax
   19aba:	48 8b 00             	mov    (%rax),%rax
   19abd:	48 39 c2             	cmp    %rax,%rdx
   19ac0:	0f 94 c0             	sete   %al
   19ac3:	0f b6 c0             	movzbl %al,%eax
   19ac6:	8b 95 e8 ec ff ff    	mov    -0x1318(%rbp),%edx
   19acc:	89 d6                	mov    %edx,%esi
   19ace:	89 c7                	mov    %eax,%edi
   19ad0:	e8 2a ec fe ff       	callq  86ff <safe_div_func_int32_t_s_s>
   19ad5:	98                   	cwtl   
   19ad6:	89 de                	mov    %ebx,%esi
   19ad8:	89 c7                	mov    %eax,%edi
   19ada:	e8 f4 e8 fe ff       	callq  83d3 <safe_sub_func_int16_t_s_s>
   19adf:	8b 95 f0 ec ff ff    	mov    -0x1310(%rbp),%edx
   19ae5:	8b 85 f8 ec ff ff    	mov    -0x1308(%rbp),%eax
   19aeb:	21 d0                	and    %edx,%eax
   19aed:	89 85 f8 ec ff ff    	mov    %eax,-0x1308(%rbp)
   19af3:	48 8b 85 98 ed ff ff 	mov    -0x1268(%rbp),%rax
   19afa:	48 c7 00 08 00 00 00 	movq   $0x8,(%rax)
   19b01:	48 8b 85 98 ed ff ff 	mov    -0x1268(%rbp),%rax
   19b08:	48 8b 10             	mov    (%rax),%rdx
   19b0b:	0f b7 05 f2 8e 00 00 	movzwl 0x8ef2(%rip),%eax        # 22a04 <g_98>
   19b12:	0f b7 c0             	movzwl %ax,%eax
   19b15:	48 39 c2             	cmp    %rax,%rdx
   19b18:	0f 9d c2             	setge  %dl
   19b1b:	48 8b 85 38 ed ff ff 	mov    -0x12c8(%rbp),%rax
   19b22:	88 10                	mov    %dl,(%rax)
   19b24:	0f b6 10             	movzbl (%rax),%edx
   19b27:	0f b6 85 ac ec ff ff 	movzbl -0x1354(%rbp),%eax
   19b2e:	38 c2                	cmp    %al,%dl
   19b30:	0f 93 c0             	setae  %al
   19b33:	0f b6 d0             	movzbl %al,%edx
   19b36:	8b 05 fc 8e 00 00    	mov    0x8efc(%rip),%eax        # 22a38 <g_191+0x18>
   19b3c:	98                   	cwtl   
   19b3d:	89 d6                	mov    %edx,%esi
   19b3f:	89 c7                	mov    %eax,%edi
   19b41:	e8 4c e9 fe ff       	callq  8492 <safe_lshift_func_int16_t_s_s>
   19b46:	66 85 c0             	test   %ax,%ax
   19b49:	74 11                	je     19b5c <func_50+0x12e7>
   19b4b:	8b 05 13 8f 00 00    	mov    0x8f13(%rip),%eax        # 22a64 <g_343>
   19b51:	85 c0                	test   %eax,%eax
   19b53:	74 07                	je     19b5c <func_50+0x12e7>
   19b55:	ba 01 00 00 00       	mov    $0x1,%edx
   19b5a:	eb 05                	jmp    19b61 <func_50+0x12ec>
   19b5c:	ba 00 00 00 00       	mov    $0x0,%edx
   19b61:	8b 85 e4 ec ff ff    	mov    -0x131c(%rbp),%eax
   19b67:	21 d0                	and    %edx,%eax
   19b69:	85 c0                	test   %eax,%eax
   19b6b:	74 07                	je     19b74 <func_50+0x12ff>
   19b6d:	b8 01 00 00 00       	mov    $0x1,%eax
   19b72:	eb 05                	jmp    19b79 <func_50+0x1304>
   19b74:	b8 00 00 00 00       	mov    $0x0,%eax
   19b79:	0d 97 19 d4 cb       	or     $0xcbd41997,%eax
   19b7e:	89 05 60 8e 00 00    	mov    %eax,0x8e60(%rip)        # 229e4 <g_27>
   19b84:	48 8b 85 98 ee ff ff 	mov    -0x1168(%rbp),%rax
   19b8b:	48 8d 95 a8 ec ff ff 	lea    -0x1358(%rbp),%rdx
   19b92:	48 89 10             	mov    %rdx,(%rax)
   19b95:	0f b6 05 45 8e 00 00 	movzbl 0x8e45(%rip),%eax        # 229e1 <g_15>
   19b9c:	83 e8 01             	sub    $0x1,%eax
   19b9f:	88 05 3c 8e 00 00    	mov    %al,0x8e3c(%rip)        # 229e1 <g_15>
   19ba5:	0f b6 05 35 8e 00 00 	movzbl 0x8e35(%rip),%eax        # 229e1 <g_15>
   19bac:	3c 01                	cmp    $0x1,%al
   19bae:	0f 8f 5e f8 ff ff    	jg     19412 <func_50+0xb9d>
   19bb4:	8b 05 ee c9 00 00    	mov    0xc9ee(%rip),%eax        # 265a8 <g_342>
   19bba:	83 c0 01             	add    $0x1,%eax
   19bbd:	89 05 e5 c9 00 00    	mov    %eax,0xc9e5(%rip)        # 265a8 <g_342>
   19bc3:	8b 05 df c9 00 00    	mov    0xc9df(%rip),%eax        # 265a8 <g_342>
   19bc9:	83 f8 03             	cmp    $0x3,%eax
   19bcc:	0f 8e 16 f8 ff ff    	jle    193e8 <func_50+0xb73>
   19bd2:	c7 85 e4 ec ff ff 03 	movl   $0x3,-0x131c(%rbp)
   19bd9:	00 00 00 
   19bdc:	90                   	nop
   19bdd:	8b 85 e4 ec ff ff    	mov    -0x131c(%rbp),%eax
   19be3:	85 c0                	test   %eax,%eax
   19be5:	78 0f                	js     19bf6 <func_50+0x1381>
   19be7:	0f b6 85 ac ec ff ff 	movzbl -0x1354(%rbp),%eax
   19bee:	0f b6 c0             	movzbl %al,%eax
   19bf1:	e9 d0 00 00 00       	jmpq   19cc6 <func_50+0x1451>
   19bf6:	c6 85 cf ec ff ff 00 	movb   $0x0,-0x1331(%rbp)
   19bfd:	e9 83 00 00 00       	jmpq   19c85 <func_50+0x1410>
   19c02:	c7 05 58 8e 00 00 00 	movl   $0x0,0x8e58(%rip)        # 22a64 <g_343>
   19c09:	00 00 00 
   19c0c:	eb 50                	jmp    19c5e <func_50+0x13e9>
   19c0e:	48 c7 85 60 ed ff ff 	movq   $0x0,-0x12a0(%rbp)
   19c15:	00 00 00 00 
   19c19:	48 8d 85 dc ec ff ff 	lea    -0x1324(%rbp),%rax
   19c20:	48 89 85 68 ed ff ff 	mov    %rax,-0x1298(%rbp)
   19c27:	48 8b 85 68 ed ff ff 	mov    -0x1298(%rbp),%rax
   19c2e:	8b 00                	mov    (%rax),%eax
   19c30:	35 d3 f7 e5 0f       	xor    $0xfe5f7d3,%eax
   19c35:	89 c2                	mov    %eax,%edx
   19c37:	48 8b 85 68 ed ff ff 	mov    -0x1298(%rbp),%rax
   19c3e:	89 10                	mov    %edx,(%rax)
   19c40:	8b 05 1e 8e 00 00    	mov    0x8e1e(%rip),%eax        # 22a64 <g_343>
   19c46:	0f be c0             	movsbl %al,%eax
   19c49:	be 05 00 00 00       	mov    $0x5,%esi
   19c4e:	89 c7                	mov    %eax,%edi
   19c50:	e8 7f e5 fe ff       	callq  81d4 <safe_add_func_int8_t_s_s>
   19c55:	0f be c0             	movsbl %al,%eax
   19c58:	89 05 06 8e 00 00    	mov    %eax,0x8e06(%rip)        # 22a64 <g_343>
   19c5e:	8b 05 00 8e 00 00    	mov    0x8e00(%rip),%eax        # 22a64 <g_343>
   19c64:	83 f8 0b             	cmp    $0xb,%eax
   19c67:	76 a5                	jbe    19c0e <func_50+0x1399>
   19c69:	0f b6 85 cf ec ff ff 	movzbl -0x1331(%rbp),%eax
   19c70:	0f be c0             	movsbl %al,%eax
   19c73:	be 09 00 00 00       	mov    $0x9,%esi
   19c78:	89 c7                	mov    %eax,%edi
   19c7a:	e8 73 e5 fe ff       	callq  81f2 <safe_sub_func_int8_t_s_s>
   19c7f:	88 85 cf ec ff ff    	mov    %al,-0x1331(%rbp)
   19c85:	0f b6 85 cf ec ff ff 	movzbl -0x1331(%rbp),%eax
   19c8c:	3c e5                	cmp    $0xe5,%al
   19c8e:	0f 85 6e ff ff ff    	jne    19c02 <func_50+0x138d>
   19c94:	8b 05 72 8d 00 00    	mov    0x8d72(%rip),%eax        # 22a0c <g_129>
   19c9a:	83 e8 01             	sub    $0x1,%eax
   19c9d:	89 05 69 8d 00 00    	mov    %eax,0x8d69(%rip)        # 22a0c <g_129>
   19ca3:	eb 08                	jmp    19cad <func_50+0x1438>
   19ca5:	8b 85 a8 ec ff ff    	mov    -0x1358(%rbp),%eax
   19cab:	eb 19                	jmp    19cc6 <func_50+0x1451>
   19cad:	8b 05 59 8d 00 00    	mov    0x8d59(%rip),%eax        # 22a0c <g_129>
   19cb3:	83 f8 ec             	cmp    $0xffffffec,%eax
   19cb6:	0f 8c ce f4 ff ff    	jl     1918a <func_50+0x915>
   19cbc:	0f b6 85 ac ec ff ff 	movzbl -0x1354(%rbp),%eax
   19cc3:	0f b6 c0             	movzbl %al,%eax
   19cc6:	48 8b 5d c8          	mov    -0x38(%rbp),%rbx
   19cca:	64 48 33 1c 25 28 00 	xor    %fs:0x28,%rbx
   19cd1:	00 00 
   19cd3:	74 05                	je     19cda <func_50+0x1465>
   19cd5:	e8 96 e3 fe ff       	callq  8070 <__stack_chk_fail@plt>
   19cda:	48 81 c4 38 13 00 00 	add    $0x1338,%rsp
   19ce1:	5b                   	pop    %rbx
   19ce2:	41 5c                	pop    %r12
   19ce4:	41 5d                	pop    %r13
   19ce6:	41 5e                	pop    %r14
   19ce8:	41 5f                	pop    %r15
   19cea:	5d                   	pop    %rbp
   19ceb:	c3                   	retq   

0000000000019cec <func_55>:
   19cec:	f3 0f 1e fa          	endbr64 
   19cf0:	55                   	push   %rbp
   19cf1:	48 89 e5             	mov    %rsp,%rbp
   19cf4:	41 56                	push   %r14
   19cf6:	41 55                	push   %r13
   19cf8:	41 54                	push   %r12
   19cfa:	53                   	push   %rbx
   19cfb:	48 83 ec 60          	sub    $0x60,%rsp
   19cff:	48 89 7d 98          	mov    %rdi,-0x68(%rbp)
   19d03:	89 f0                	mov    %esi,%eax
   19d05:	48 89 55 88          	mov    %rdx,-0x78(%rbp)
   19d09:	66 89 45 94          	mov    %ax,-0x6c(%rbp)
   19d0d:	64 48 8b 04 25 28 00 	mov    %fs:0x28,%rax
   19d14:	00 00 
   19d16:	48 89 45 d8          	mov    %rax,-0x28(%rbp)
   19d1a:	31 c0                	xor    %eax,%eax
   19d1c:	c6 45 a7 99          	movb   $0x99,-0x59(%rbp)
   19d20:	c6 05 db 8c 00 00 0f 	movb   $0xf,0x8cdb(%rip)        # 22a02 <g_88>
   19d27:	e9 89 01 00 00       	jmpq   19eb5 <func_55+0x1c9>
   19d2c:	48 8d 05 cf 8c 00 00 	lea    0x8ccf(%rip),%rax        # 22a02 <g_88>
   19d33:	48 89 45 a8          	mov    %rax,-0x58(%rbp)
   19d37:	48 8d 45 a8          	lea    -0x58(%rbp),%rax
   19d3b:	48 89 45 b8          	mov    %rax,-0x48(%rbp)
   19d3f:	48 8d 05 bc 8c 00 00 	lea    0x8cbc(%rip),%rax        # 22a02 <g_88>
   19d46:	48 89 45 b0          	mov    %rax,-0x50(%rbp)
   19d4a:	48 8d 45 b0          	lea    -0x50(%rbp),%rax
   19d4e:	48 89 45 c0          	mov    %rax,-0x40(%rbp)
   19d52:	48 8d 05 af 8c 00 00 	lea    0x8caf(%rip),%rax        # 22a08 <g_126>
   19d59:	48 89 45 c8          	mov    %rax,-0x38(%rbp)
   19d5d:	48 8d 05 80 8c 00 00 	lea    0x8c80(%rip),%rax        # 229e4 <g_27>
   19d64:	48 89 45 d0          	mov    %rax,-0x30(%rbp)
   19d68:	0f b7 05 8b 8c 00 00 	movzwl 0x8c8b(%rip),%eax        # 229fa <g_68+0xa>
   19d6f:	44 0f b7 e8          	movzwl %ax,%r13d
   19d73:	48 8b 05 d6 87 00 00 	mov    0x87d6(%rip),%rax        # 22550 <g_3+0x350>
   19d7a:	41 89 c6             	mov    %eax,%r14d
   19d7d:	0f be 5d a7          	movsbl -0x59(%rbp),%ebx
   19d81:	0f b6 45 a7          	movzbl -0x59(%rbp),%eax
   19d85:	0f b6 d0             	movzbl %al,%edx
   19d88:	0f b6 45 a7          	movzbl -0x59(%rbp),%eax
   19d8c:	0f b6 c0             	movzbl %al,%eax
   19d8f:	89 d6                	mov    %edx,%esi
   19d91:	89 c7                	mov    %eax,%edi
   19d93:	e8 16 ee fe ff       	callq  8bae <safe_mod_func_uint8_t_u_u>
   19d98:	44 0f b6 e0          	movzbl %al,%r12d
   19d9c:	0f b6 05 3d 8c 00 00 	movzbl 0x8c3d(%rip),%eax        # 229e0 <g_13>
   19da3:	0f be d0             	movsbl %al,%edx
   19da6:	8b 05 38 8c 00 00    	mov    0x8c38(%rip),%eax        # 229e4 <g_27>
   19dac:	0f be c0             	movsbl %al,%eax
   19daf:	89 d6                	mov    %edx,%esi
   19db1:	89 c7                	mov    %eax,%edi
   19db3:	e8 3a e4 fe ff       	callq  81f2 <safe_sub_func_int8_t_s_s>
   19db8:	0f be c0             	movsbl %al,%eax
   19dbb:	41 39 c4             	cmp    %eax,%r12d
   19dbe:	0f b7 05 31 8c 00 00 	movzwl 0x8c31(%rip),%eax        # 229f6 <g_68+0x6>
   19dc5:	44 0f b7 e0          	movzwl %ax,%r12d
   19dc9:	48 8b 45 b8          	mov    -0x48(%rbp),%rax
   19dcd:	48 8d 15 2e 8c 00 00 	lea    0x8c2e(%rip),%rdx        # 22a02 <g_88>
   19dd4:	48 89 10             	mov    %rdx,(%rax)
   19dd7:	48 8b 45 b8          	mov    -0x48(%rbp),%rax
   19ddb:	48 8b 10             	mov    (%rax),%rdx
   19dde:	48 8b 45 c0          	mov    -0x40(%rbp),%rax
   19de2:	48 8d 0d 19 8c 00 00 	lea    0x8c19(%rip),%rcx        # 22a02 <g_88>
   19de9:	48 89 08             	mov    %rcx,(%rax)
   19dec:	48 8b 45 c0          	mov    -0x40(%rbp),%rax
   19df0:	48 8b 00             	mov    (%rax),%rax
   19df3:	48 39 c2             	cmp    %rax,%rdx
   19df6:	0f 95 c0             	setne  %al
   19df9:	0f b6 c0             	movzbl %al,%eax
   19dfc:	48 89 c7             	mov    %rax,%rdi
   19dff:	e8 12 ea fe ff       	callq  8816 <safe_unary_minus_func_int64_t_s>
   19e04:	0f b6 05 d5 8b 00 00 	movzbl 0x8bd5(%rip),%eax        # 229e0 <g_13>
   19e0b:	0f be d0             	movsbl %al,%edx
   19e0e:	0f b6 05 cc 8b 00 00 	movzbl 0x8bcc(%rip),%eax        # 229e1 <g_15>
   19e15:	0f be c8             	movsbl %al,%ecx
   19e18:	48 8b 45 c8          	mov    -0x38(%rbp),%rax
   19e1c:	89 08                	mov    %ecx,(%rax)
   19e1e:	48 8b 45 c8          	mov    -0x38(%rbp),%rax
   19e22:	8b 00                	mov    (%rax),%eax
   19e24:	89 d6                	mov    %edx,%esi
   19e26:	89 c7                	mov    %eax,%edi
   19e28:	e8 d8 e7 fe ff       	callq  8605 <safe_sub_func_int32_t_s_s>
   19e2d:	48 63 d0             	movslq %eax,%rdx
   19e30:	48 8b 05 19 87 00 00 	mov    0x8719(%rip),%rax        # 22550 <g_3+0x350>
   19e37:	48 39 c2             	cmp    %rax,%rdx
   19e3a:	0f b7 45 94          	movzwl -0x6c(%rbp),%eax
   19e3e:	4c 89 e6             	mov    %r12,%rsi
   19e41:	48 89 c7             	mov    %rax,%rdi
   19e44:	e8 02 f2 fe ff       	callq  904b <safe_sub_func_uint64_t_u_u>
   19e49:	48 83 7d 88 00       	cmpq   $0x0,-0x78(%rbp)
   19e4e:	0f 95 c0             	setne  %al
   19e51:	0f b6 c0             	movzbl %al,%eax
   19e54:	89 de                	mov    %ebx,%esi
   19e56:	89 c7                	mov    %eax,%edi
   19e58:	e8 b9 e5 fe ff       	callq  8416 <safe_mod_func_int16_t_s_s>
   19e5d:	98                   	cwtl   
   19e5e:	44 89 f6             	mov    %r14d,%esi
   19e61:	89 c7                	mov    %eax,%edi
   19e63:	e8 9d e7 fe ff       	callq  8605 <safe_sub_func_int32_t_s_s>
   19e68:	41 39 c5             	cmp    %eax,%r13d
   19e6b:	0f 9d c0             	setge  %al
   19e6e:	0f b6 c0             	movzbl %al,%eax
   19e71:	be d6 60 00 00       	mov    $0x60d6,%esi
   19e76:	89 c7                	mov    %eax,%edi
   19e78:	e8 99 e5 fe ff       	callq  8416 <safe_mod_func_int16_t_s_s>
   19e7d:	0f bf d0             	movswl %ax,%edx
   19e80:	48 8b 45 d0          	mov    -0x30(%rbp),%rax
   19e84:	89 10                	mov    %edx,(%rax)
   19e86:	48 8b 45 c8          	mov    -0x38(%rbp),%rax
   19e8a:	8b 00                	mov    (%rax),%eax
   19e8c:	48 8b 55 98          	mov    -0x68(%rbp),%rdx
   19e90:	21 c2                	and    %eax,%edx
   19e92:	48 8b 45 c8          	mov    -0x38(%rbp),%rax
   19e96:	89 10                	mov    %edx,(%rax)
   19e98:	0f b6 05 63 8b 00 00 	movzbl 0x8b63(%rip),%eax        # 22a02 <g_88>
   19e9f:	0f b6 c0             	movzbl %al,%eax
   19ea2:	be 08 00 00 00       	mov    $0x8,%esi
   19ea7:	48 89 c7             	mov    %rax,%rdi
   19eaa:	e8 92 e9 fe ff       	callq  8841 <safe_add_func_int64_t_s_s>
   19eaf:	88 05 4d 8b 00 00    	mov    %al,0x8b4d(%rip)        # 22a02 <g_88>
   19eb5:	0f b6 05 46 8b 00 00 	movzbl 0x8b46(%rip),%eax        # 22a02 <g_88>
   19ebc:	3c 32                	cmp    $0x32,%al
   19ebe:	0f 87 68 fe ff ff    	ja     19d2c <func_55+0x40>
   19ec4:	48 8b 45 88          	mov    -0x78(%rbp),%rax
   19ec8:	48 8b 5d d8          	mov    -0x28(%rbp),%rbx
   19ecc:	64 48 33 1c 25 28 00 	xor    %fs:0x28,%rbx
   19ed3:	00 00 
   19ed5:	74 05                	je     19edc <func_55+0x1f0>
   19ed7:	e8 94 e1 fe ff       	callq  8070 <__stack_chk_fail@plt>
   19edc:	48 83 c4 60          	add    $0x60,%rsp
   19ee0:	5b                   	pop    %rbx
   19ee1:	41 5c                	pop    %r12
   19ee3:	41 5d                	pop    %r13
   19ee5:	41 5e                	pop    %r14
   19ee7:	5d                   	pop    %rbp
   19ee8:	c3                   	retq   

0000000000019ee9 <func_60>:
   19ee9:	f3 0f 1e fa          	endbr64 
   19eed:	55                   	push   %rbp
   19eee:	48 89 e5             	mov    %rsp,%rbp
   19ef1:	53                   	push   %rbx
   19ef2:	48 83 ec 78          	sub    $0x78,%rsp
   19ef6:	89 7d 9c             	mov    %edi,-0x64(%rbp)
   19ef9:	48 89 75 90          	mov    %rsi,-0x70(%rbp)
   19efd:	48 89 55 88          	mov    %rdx,-0x78(%rbp)
   19f01:	64 48 8b 04 25 28 00 	mov    %fs:0x28,%rax
   19f08:	00 00 
   19f0a:	48 89 45 e8          	mov    %rax,-0x18(%rbp)
   19f0e:	31 c0                	xor    %eax,%eax
   19f10:	48 8d 05 dd 8a 00 00 	lea    0x8add(%rip),%rax        # 229f4 <g_68+0x4>
   19f17:	48 89 45 b8          	mov    %rax,-0x48(%rbp)
   19f1b:	48 8d 05 c2 8a 00 00 	lea    0x8ac2(%rip),%rax        # 229e4 <g_27>
   19f22:	48 89 45 c0          	mov    %rax,-0x40(%rbp)
   19f26:	48 8d 05 b4 8a 00 00 	lea    0x8ab4(%rip),%rax        # 229e1 <g_15>
   19f2d:	48 89 45 c8          	mov    %rax,-0x38(%rbp)
   19f31:	c7 45 ac 00 00 00 00 	movl   $0x0,-0x54(%rbp)
   19f38:	eb 2d                	jmp    19f67 <func_60+0x7e>
   19f3a:	c7 45 b0 00 00 00 00 	movl   $0x0,-0x50(%rbp)
   19f41:	eb 1a                	jmp    19f5d <func_60+0x74>
   19f43:	8b 45 b0             	mov    -0x50(%rbp),%eax
   19f46:	48 63 d0             	movslq %eax,%rdx
   19f49:	8b 45 ac             	mov    -0x54(%rbp),%eax
   19f4c:	48 98                	cltq   
   19f4e:	48 01 d0             	add    %rdx,%rax
   19f51:	c7 44 85 e0 20 9f aa 	movl   $0x44aa9f20,-0x20(%rbp,%rax,4)
   19f58:	44 
   19f59:	83 45 b0 01          	addl   $0x1,-0x50(%rbp)
   19f5d:	83 7d b0 00          	cmpl   $0x0,-0x50(%rbp)
   19f61:	7e e0                	jle    19f43 <func_60+0x5a>
   19f63:	83 45 ac 01          	addl   $0x1,-0x54(%rbp)
   19f67:	83 7d ac 01          	cmpl   $0x1,-0x54(%rbp)
   19f6b:	7e cd                	jle    19f3a <func_60+0x51>
   19f6d:	48 8b 45 90          	mov    -0x70(%rbp),%rax
   19f71:	8b 10                	mov    (%rax),%edx
   19f73:	8b 45 e0             	mov    -0x20(%rbp),%eax
   19f76:	31 c2                	xor    %eax,%edx
   19f78:	48 8b 45 90          	mov    -0x70(%rbp),%rax
   19f7c:	89 10                	mov    %edx,(%rax)
   19f7e:	8b 45 e0             	mov    -0x20(%rbp),%eax
   19f81:	f7 d0                	not    %eax
   19f83:	48 98                	cltq   
   19f85:	8b 15 59 8a 00 00    	mov    0x8a59(%rip),%edx        # 229e4 <g_27>
   19f8b:	83 fa fd             	cmp    $0xfffffffd,%edx
   19f8e:	0f 9c c2             	setl   %dl
   19f91:	0f b6 d2             	movzbl %dl,%edx
   19f94:	33 55 9c             	xor    -0x64(%rbp),%edx
   19f97:	89 d2                	mov    %edx,%edx
   19f99:	48 89 c6             	mov    %rax,%rsi
   19f9c:	48 89 d7             	mov    %rdx,%rdi
   19f9f:	e8 dc f0 fe ff       	callq  9080 <safe_mod_func_uint64_t_u_u>
   19fa4:	48 85 c0             	test   %rax,%rax
   19fa7:	0f 84 14 01 00 00    	je     1a0c1 <func_60+0x1d8>
   19fad:	c6 45 ab f7          	movb   $0xf7,-0x55(%rbp)
   19fb1:	48 8d 05 48 8a 00 00 	lea    0x8a48(%rip),%rax        # 22a00 <g_79>
   19fb8:	48 89 45 d0          	mov    %rax,-0x30(%rbp)
   19fbc:	c7 45 b4 eb d3 f6 62 	movl   $0x62f6d3eb,-0x4c(%rbp)
   19fc3:	48 8d 05 38 8a 00 00 	lea    0x8a38(%rip),%rax        # 22a02 <g_88>
   19fca:	48 89 45 d8          	mov    %rax,-0x28(%rbp)
   19fce:	48 8b 45 d0          	mov    -0x30(%rbp),%rax
   19fd2:	66 c7 00 ce 9d       	movw   $0x9dce,(%rax)
   19fd7:	8b 45 b4             	mov    -0x4c(%rbp),%eax
   19fda:	0f b6 c0             	movzbl %al,%eax
   19fdd:	8b 55 9c             	mov    -0x64(%rbp),%edx
   19fe0:	89 d6                	mov    %edx,%esi
   19fe2:	89 c7                	mov    %eax,%edi
   19fe4:	e8 d5 ec fe ff       	callq  8cbe <safe_rshift_func_uint8_t_u_u>
   19fe9:	be 0c 00 00 00       	mov    $0xc,%esi
   19fee:	bf 00 00 00 00       	mov    $0x0,%edi
   19ff3:	e8 32 e5 fe ff       	callq  852a <safe_rshift_func_int16_t_s_s>
   19ff8:	66 83 f8 01          	cmp    $0x1,%ax
   19ffc:	0f b6 05 dd 89 00 00 	movzbl 0x89dd(%rip),%eax        # 229e0 <g_13>
   1a003:	0f be c0             	movsbl %al,%eax
   1a006:	33 45 b4             	xor    -0x4c(%rbp),%eax
   1a009:	89 c3                	mov    %eax,%ebx
   1a00b:	48 8b 45 d8          	mov    -0x28(%rbp),%rax
   1a00f:	0f b6 00             	movzbl (%rax),%eax
   1a012:	8d 50 ff             	lea    -0x1(%rax),%edx
   1a015:	48 8b 45 d8          	mov    -0x28(%rbp),%rax
   1a019:	88 10                	mov    %dl,(%rax)
   1a01b:	48 8b 45 d8          	mov    -0x28(%rbp),%rax
   1a01f:	0f b6 00             	movzbl (%rax),%eax
   1a022:	0f be d0             	movsbl %al,%edx
   1a025:	8b 45 b4             	mov    -0x4c(%rbp),%eax
   1a028:	0f be c0             	movsbl %al,%eax
   1a02b:	89 d6                	mov    %edx,%esi
   1a02d:	89 c7                	mov    %eax,%edi
   1a02f:	e8 de e1 fe ff       	callq  8212 <safe_mul_func_int8_t_s_s>
   1a034:	0f be c0             	movsbl %al,%eax
   1a037:	be ff ff ff ff       	mov    $0xffffffff,%esi
   1a03c:	89 c7                	mov    %eax,%edi
   1a03e:	e8 b2 e3 fe ff       	callq  83f5 <safe_mul_func_int16_t_s_s>
   1a043:	98                   	cwtl   
   1a044:	89 de                	mov    %ebx,%esi
   1a046:	89 c7                	mov    %eax,%edi
   1a048:	e8 d8 ee fe ff       	callq  8f25 <safe_div_func_uint32_t_u_u>
   1a04d:	48 8b 45 c0          	mov    -0x40(%rbp),%rax
   1a051:	8b 00                	mov    (%rax),%eax
   1a053:	39 45 b4             	cmp    %eax,-0x4c(%rbp)
   1a056:	0f 95 c0             	setne  %al
   1a059:	0f b6 d0             	movzbl %al,%edx
   1a05c:	48 8b 45 b8          	mov    -0x48(%rbp),%rax
   1a060:	66 89 10             	mov    %dx,(%rax)
   1a063:	48 83 7d c8 00       	cmpq   $0x0,-0x38(%rbp)
   1a068:	0f 95 c0             	setne  %al
   1a06b:	0f b6 c0             	movzbl %al,%eax
   1a06e:	be 71 6f c2 e3       	mov    $0xe3c26f71,%esi
   1a073:	89 c7                	mov    %eax,%edi
   1a075:	e8 ab ee fe ff       	callq  8f25 <safe_div_func_uint32_t_u_u>
   1a07a:	0b 45 b4             	or     -0x4c(%rbp),%eax
   1a07d:	89 c2                	mov    %eax,%edx
   1a07f:	48 8b 45 c0          	mov    -0x40(%rbp),%rax
   1a083:	8b 00                	mov    (%rax),%eax
   1a085:	39 c2                	cmp    %eax,%edx
   1a087:	0f 95 c0             	setne  %al
   1a08a:	0f b6 c0             	movzbl %al,%eax
   1a08d:	39 45 9c             	cmp    %eax,-0x64(%rbp)
   1a090:	0f 92 c0             	setb   %al
   1a093:	0f b6 c0             	movzbl %al,%eax
   1a096:	89 05 48 89 00 00    	mov    %eax,0x8948(%rip)        # 229e4 <g_27>
   1a09c:	0f b7 05 61 89 00 00 	movzwl 0x8961(%rip),%eax        # 22a04 <g_98>
   1a0a3:	83 c0 01             	add    $0x1,%eax
   1a0a6:	66 89 05 57 89 00 00 	mov    %ax,0x8957(%rip)        # 22a04 <g_98>
   1a0ad:	48 8d 05 30 89 00 00 	lea    0x8930(%rip),%rax        # 229e4 <g_27>
   1a0b4:	48 89 45 c0          	mov    %rax,-0x40(%rbp)
   1a0b8:	48 8b 05 91 84 00 00 	mov    0x8491(%rip),%rax        # 22550 <g_3+0x350>
   1a0bf:	eb 03                	jmp    1a0c4 <func_60+0x1db>
   1a0c1:	8b 45 9c             	mov    -0x64(%rbp),%eax
   1a0c4:	48 8b 4d e8          	mov    -0x18(%rbp),%rcx
   1a0c8:	64 48 33 0c 25 28 00 	xor    %fs:0x28,%rcx
   1a0cf:	00 00 
   1a0d1:	74 05                	je     1a0d8 <func_60+0x1ef>
   1a0d3:	e8 98 df fe ff       	callq  8070 <__stack_chk_fail@plt>
   1a0d8:	48 83 c4 78          	add    $0x78,%rsp
   1a0dc:	5b                   	pop    %rbx
   1a0dd:	5d                   	pop    %rbp
   1a0de:	c3                   	retq   

000000000001a0df <main>:
   1a0df:	f3 0f 1e fa          	endbr64 
   1a0e3:	55                   	push   %rbp
   1a0e4:	48 89 e5             	mov    %rsp,%rbp
   1a0e7:	48 83 ec 20          	sub    $0x20,%rsp
   1a0eb:	89 7d ec             	mov    %edi,-0x14(%rbp)
   1a0ee:	48 89 75 e0          	mov    %rsi,-0x20(%rbp)
   1a0f2:	c7 45 fc 00 00 00 00 	movl   $0x0,-0x4(%rbp)
   1a0f9:	83 7d ec 02          	cmpl   $0x2,-0x14(%rbp)
   1a0fd:	74 25                	je     1a124 <main+0x45>
   1a0ff:	48 8b 45 e0          	mov    -0x20(%rbp),%rax
   1a103:	48 83 c0 08          	add    $0x8,%rax
   1a107:	48 8b 00             	mov    (%rax),%rax
   1a10a:	48 8d 35 c7 4d 00 00 	lea    0x4dc7(%rip),%rsi        # 1eed8 <g_4277+0x2e18>
   1a111:	48 89 c7             	mov    %rax,%rdi
   1a114:	e8 77 df fe ff       	callq  8090 <strcmp@plt>
   1a119:	85 c0                	test   %eax,%eax
   1a11b:	74 07                	je     1a124 <main+0x45>
   1a11d:	c7 45 fc 01 00 00 00 	movl   $0x1,-0x4(%rbp)
   1a124:	e8 60 e0 fe ff       	callq  8189 <platform_main_begin>
   1a129:	e8 6a f4 fe ff       	callq  9598 <crc32_gentab>
   1a12e:	e8 82 f6 fe ff       	callq  97b5 <func_1>
   1a133:	c7 45 f0 00 00 00 00 	movl   $0x0,-0x10(%rbp)
   1a13a:	e9 b5 00 00 00       	jmpq   1a1f4 <main+0x115>
   1a13f:	c7 45 f4 00 00 00 00 	movl   $0x0,-0xc(%rbp)
   1a146:	e9 9b 00 00 00       	jmpq   1a1e6 <main+0x107>
   1a14b:	c7 45 f8 00 00 00 00 	movl   $0x0,-0x8(%rbp)
   1a152:	e9 81 00 00 00       	jmpq   1a1d8 <main+0xf9>
   1a157:	8b 45 f8             	mov    -0x8(%rbp),%eax
   1a15a:	48 63 f0             	movslq %eax,%rsi
   1a15d:	8b 45 f0             	mov    -0x10(%rbp),%eax
   1a160:	48 63 d0             	movslq %eax,%rdx
   1a163:	8b 45 f4             	mov    -0xc(%rbp),%eax
   1a166:	48 63 c8             	movslq %eax,%rcx
   1a169:	48 89 d0             	mov    %rdx,%rax
   1a16c:	48 c1 e0 02          	shl    $0x2,%rax
   1a170:	48 01 d0             	add    %rdx,%rax
   1a173:	48 c1 e0 02          	shl    $0x2,%rax
   1a177:	48 01 d0             	add    %rdx,%rax
   1a17a:	48 89 ca             	mov    %rcx,%rdx
   1a17d:	48 c1 e2 03          	shl    $0x3,%rdx
   1a181:	48 29 ca             	sub    %rcx,%rdx
   1a184:	48 01 d0             	add    %rdx,%rax
   1a187:	48 01 f0             	add    %rsi,%rax
   1a18a:	48 8d 14 85 00 00 00 	lea    0x0(,%rax,4),%rdx
   1a191:	00 
   1a192:	48 8d 05 a7 7e 00 00 	lea    0x7ea7(%rip),%rax        # 22040 <g_2>
   1a199:	8b 04 02             	mov    (%rdx,%rax,1),%eax
   1a19c:	89 c1                	mov    %eax,%ecx
   1a19e:	8b 45 fc             	mov    -0x4(%rbp),%eax
   1a1a1:	89 c2                	mov    %eax,%edx
   1a1a3:	48 8d 35 30 4d 00 00 	lea    0x4d30(%rip),%rsi        # 1eeda <g_4277+0x2e1a>
   1a1aa:	48 89 cf             	mov    %rcx,%rdi
   1a1ad:	e8 41 f5 fe ff       	callq  96f3 <transparent_crc>
   1a1b2:	83 7d fc 00          	cmpl   $0x0,-0x4(%rbp)
   1a1b6:	74 1c                	je     1a1d4 <main+0xf5>
   1a1b8:	8b 4d f8             	mov    -0x8(%rbp),%ecx
   1a1bb:	8b 55 f4             	mov    -0xc(%rbp),%edx
   1a1be:	8b 45 f0             	mov    -0x10(%rbp),%eax
   1a1c1:	89 c6                	mov    %eax,%esi
   1a1c3:	48 8d 3d 1d 4d 00 00 	lea    0x4d1d(%rip),%rdi        # 1eee7 <g_4277+0x2e27>
   1a1ca:	b8 00 00 00 00       	mov    $0x0,%eax
   1a1cf:	e8 ac de fe ff       	callq  8080 <printf@plt>
   1a1d4:	83 45 f8 01          	addl   $0x1,-0x8(%rbp)
   1a1d8:	83 7d f8 06          	cmpl   $0x6,-0x8(%rbp)
   1a1dc:	0f 8e 75 ff ff ff    	jle    1a157 <main+0x78>
   1a1e2:	83 45 f4 01          	addl   $0x1,-0xc(%rbp)
   1a1e6:	83 7d f4 02          	cmpl   $0x2,-0xc(%rbp)
   1a1ea:	0f 8e 5b ff ff ff    	jle    1a14b <main+0x6c>
   1a1f0:	83 45 f0 01          	addl   $0x1,-0x10(%rbp)
   1a1f4:	83 7d f0 04          	cmpl   $0x4,-0x10(%rbp)
   1a1f8:	0f 8e 41 ff ff ff    	jle    1a13f <main+0x60>
   1a1fe:	c7 45 f0 00 00 00 00 	movl   $0x0,-0x10(%rbp)
   1a205:	e9 9e 00 00 00       	jmpq   1a2a8 <main+0x1c9>
   1a20a:	c7 45 f4 00 00 00 00 	movl   $0x0,-0xc(%rbp)
   1a211:	e9 84 00 00 00       	jmpq   1a29a <main+0x1bb>
   1a216:	c7 45 f8 00 00 00 00 	movl   $0x0,-0x8(%rbp)
   1a21d:	eb 71                	jmp    1a290 <main+0x1b1>
   1a21f:	8b 45 f8             	mov    -0x8(%rbp),%eax
   1a222:	48 63 c8             	movslq %eax,%rcx
   1a225:	8b 45 f0             	mov    -0x10(%rbp),%eax
   1a228:	48 63 d0             	movslq %eax,%rdx
   1a22b:	8b 45 f4             	mov    -0xc(%rbp),%eax
   1a22e:	48 63 f0             	movslq %eax,%rsi
   1a231:	48 89 d0             	mov    %rdx,%rax
   1a234:	48 c1 e0 03          	shl    $0x3,%rax
   1a238:	48 01 d0             	add    %rdx,%rax
   1a23b:	48 01 f0             	add    %rsi,%rax
   1a23e:	48 c1 e0 02          	shl    $0x2,%rax
   1a242:	48 01 c8             	add    %rcx,%rax
   1a245:	48 8d 14 c5 00 00 00 	lea    0x0(,%rax,8),%rdx
   1a24c:	00 
   1a24d:	48 8d 05 ac 7f 00 00 	lea    0x7fac(%rip),%rax        # 22200 <g_3>
   1a254:	48 8b 04 02          	mov    (%rdx,%rax,1),%rax
   1a258:	8b 55 fc             	mov    -0x4(%rbp),%edx
   1a25b:	48 8d 35 9b 4c 00 00 	lea    0x4c9b(%rip),%rsi        # 1eefd <g_4277+0x2e3d>
   1a262:	48 89 c7             	mov    %rax,%rdi
   1a265:	e8 89 f4 fe ff       	callq  96f3 <transparent_crc>
   1a26a:	83 7d fc 00          	cmpl   $0x0,-0x4(%rbp)
   1a26e:	74 1c                	je     1a28c <main+0x1ad>
   1a270:	8b 4d f8             	mov    -0x8(%rbp),%ecx
   1a273:	8b 55 f4             	mov    -0xc(%rbp),%edx
   1a276:	8b 45 f0             	mov    -0x10(%rbp),%eax
   1a279:	89 c6                	mov    %eax,%esi
   1a27b:	48 8d 3d 65 4c 00 00 	lea    0x4c65(%rip),%rdi        # 1eee7 <g_4277+0x2e27>
   1a282:	b8 00 00 00 00       	mov    $0x0,%eax
   1a287:	e8 f4 dd fe ff       	callq  8080 <printf@plt>
   1a28c:	83 45 f8 01          	addl   $0x1,-0x8(%rbp)
   1a290:	83 7d f8 03          	cmpl   $0x3,-0x8(%rbp)
   1a294:	7e 89                	jle    1a21f <main+0x140>
   1a296:	83 45 f4 01          	addl   $0x1,-0xc(%rbp)
   1a29a:	83 7d f4 08          	cmpl   $0x8,-0xc(%rbp)
   1a29e:	0f 8e 72 ff ff ff    	jle    1a216 <main+0x137>
   1a2a4:	83 45 f0 01          	addl   $0x1,-0x10(%rbp)
   1a2a8:	83 7d f0 06          	cmpl   $0x6,-0x10(%rbp)
   1a2ac:	0f 8e 58 ff ff ff    	jle    1a20a <main+0x12b>
   1a2b2:	0f b6 05 27 87 00 00 	movzbl 0x8727(%rip),%eax        # 229e0 <g_13>
   1a2b9:	48 0f be c0          	movsbq %al,%rax
   1a2bd:	8b 55 fc             	mov    -0x4(%rbp),%edx
   1a2c0:	48 8d 35 43 4c 00 00 	lea    0x4c43(%rip),%rsi        # 1ef0a <g_4277+0x2e4a>
   1a2c7:	48 89 c7             	mov    %rax,%rdi
   1a2ca:	e8 24 f4 fe ff       	callq  96f3 <transparent_crc>
   1a2cf:	0f b6 05 0b 87 00 00 	movzbl 0x870b(%rip),%eax        # 229e1 <g_15>
   1a2d6:	48 0f be c0          	movsbq %al,%rax
   1a2da:	8b 55 fc             	mov    -0x4(%rbp),%edx
   1a2dd:	48 8d 35 2b 4c 00 00 	lea    0x4c2b(%rip),%rsi        # 1ef0f <g_4277+0x2e4f>
   1a2e4:	48 89 c7             	mov    %rax,%rdi
   1a2e7:	e8 07 f4 fe ff       	callq  96f3 <transparent_crc>
   1a2ec:	8b 05 f2 86 00 00    	mov    0x86f2(%rip),%eax        # 229e4 <g_27>
   1a2f2:	48 98                	cltq   
   1a2f4:	8b 55 fc             	mov    -0x4(%rbp),%edx
   1a2f7:	48 8d 35 16 4c 00 00 	lea    0x4c16(%rip),%rsi        # 1ef14 <g_4277+0x2e54>
   1a2fe:	48 89 c7             	mov    %rax,%rdi
   1a301:	e8 ed f3 fe ff       	callq  96f3 <transparent_crc>
   1a306:	c7 45 f0 00 00 00 00 	movl   $0x0,-0x10(%rbp)
   1a30d:	eb 49                	jmp    1a358 <main+0x279>
   1a30f:	8b 45 f0             	mov    -0x10(%rbp),%eax
   1a312:	48 98                	cltq   
   1a314:	48 8d 14 00          	lea    (%rax,%rax,1),%rdx
   1a318:	48 8d 05 d1 86 00 00 	lea    0x86d1(%rip),%rax        # 229f0 <g_68>
   1a31f:	0f b7 04 02          	movzwl (%rdx,%rax,1),%eax
   1a323:	0f b7 c0             	movzwl %ax,%eax
   1a326:	8b 55 fc             	mov    -0x4(%rbp),%edx
   1a329:	48 8d 35 e9 4b 00 00 	lea    0x4be9(%rip),%rsi        # 1ef19 <g_4277+0x2e59>
   1a330:	48 89 c7             	mov    %rax,%rdi
   1a333:	e8 bb f3 fe ff       	callq  96f3 <transparent_crc>
   1a338:	83 7d fc 00          	cmpl   $0x0,-0x4(%rbp)
   1a33c:	74 16                	je     1a354 <main+0x275>
   1a33e:	8b 45 f0             	mov    -0x10(%rbp),%eax
   1a341:	89 c6                	mov    %eax,%esi
   1a343:	48 8d 3d d7 4b 00 00 	lea    0x4bd7(%rip),%rdi        # 1ef21 <g_4277+0x2e61>
   1a34a:	b8 00 00 00 00       	mov    $0x0,%eax
   1a34f:	e8 2c dd fe ff       	callq  8080 <printf@plt>
   1a354:	83 45 f0 01          	addl   $0x1,-0x10(%rbp)
   1a358:	83 7d f0 07          	cmpl   $0x7,-0x10(%rbp)
   1a35c:	7e b1                	jle    1a30f <main+0x230>
   1a35e:	0f b7 05 9b 86 00 00 	movzwl 0x869b(%rip),%eax        # 22a00 <g_79>
   1a365:	48 0f bf c0          	movswq %ax,%rax
   1a369:	8b 55 fc             	mov    -0x4(%rbp),%edx
   1a36c:	48 8d 35 bc 4b 00 00 	lea    0x4bbc(%rip),%rsi        # 1ef2f <g_4277+0x2e6f>
   1a373:	48 89 c7             	mov    %rax,%rdi
   1a376:	e8 78 f3 fe ff       	callq  96f3 <transparent_crc>
   1a37b:	0f b6 05 80 86 00 00 	movzbl 0x8680(%rip),%eax        # 22a02 <g_88>
   1a382:	0f b6 c0             	movzbl %al,%eax
   1a385:	8b 55 fc             	mov    -0x4(%rbp),%edx
   1a388:	48 8d 35 a5 4b 00 00 	lea    0x4ba5(%rip),%rsi        # 1ef34 <g_4277+0x2e74>
   1a38f:	48 89 c7             	mov    %rax,%rdi
   1a392:	e8 5c f3 fe ff       	callq  96f3 <transparent_crc>
   1a397:	0f b7 05 66 86 00 00 	movzwl 0x8666(%rip),%eax        # 22a04 <g_98>
   1a39e:	0f b7 c0             	movzwl %ax,%eax
   1a3a1:	8b 55 fc             	mov    -0x4(%rbp),%edx
   1a3a4:	48 8d 35 8e 4b 00 00 	lea    0x4b8e(%rip),%rsi        # 1ef39 <g_4277+0x2e79>
   1a3ab:	48 89 c7             	mov    %rax,%rdi
   1a3ae:	e8 40 f3 fe ff       	callq  96f3 <transparent_crc>
   1a3b3:	8b 05 4f 86 00 00    	mov    0x864f(%rip),%eax        # 22a08 <g_126>
   1a3b9:	48 98                	cltq   
   1a3bb:	8b 55 fc             	mov    -0x4(%rbp),%edx
   1a3be:	48 8d 35 79 4b 00 00 	lea    0x4b79(%rip),%rsi        # 1ef3e <g_4277+0x2e7e>
   1a3c5:	48 89 c7             	mov    %rax,%rdi
   1a3c8:	e8 26 f3 fe ff       	callq  96f3 <transparent_crc>
   1a3cd:	8b 05 39 86 00 00    	mov    0x8639(%rip),%eax        # 22a0c <g_129>
   1a3d3:	48 98                	cltq   
   1a3d5:	8b 55 fc             	mov    -0x4(%rbp),%edx
   1a3d8:	48 8d 35 65 4b 00 00 	lea    0x4b65(%rip),%rsi        # 1ef44 <g_4277+0x2e84>
   1a3df:	48 89 c7             	mov    %rax,%rdi
   1a3e2:	e8 0c f3 fe ff       	callq  96f3 <transparent_crc>
   1a3e7:	0f b6 05 22 86 00 00 	movzbl 0x8622(%rip),%eax        # 22a10 <g_144>
   1a3ee:	0f b6 c0             	movzbl %al,%eax
   1a3f1:	8b 55 fc             	mov    -0x4(%rbp),%edx
   1a3f4:	48 8d 35 4f 4b 00 00 	lea    0x4b4f(%rip),%rsi        # 1ef4a <g_4277+0x2e8a>
   1a3fb:	48 89 c7             	mov    %rax,%rdi
   1a3fe:	e8 f0 f2 fe ff       	callq  96f3 <transparent_crc>
   1a403:	0f b6 05 07 86 00 00 	movzbl 0x8607(%rip),%eax        # 22a11 <g_153>
   1a40a:	0f b6 c0             	movzbl %al,%eax
   1a40d:	8b 55 fc             	mov    -0x4(%rbp),%edx
   1a410:	48 8d 35 39 4b 00 00 	lea    0x4b39(%rip),%rsi        # 1ef50 <g_4277+0x2e90>
   1a417:	48 89 c7             	mov    %rax,%rdi
   1a41a:	e8 d4 f2 fe ff       	callq  96f3 <transparent_crc>
   1a41f:	0f b6 05 ec 85 00 00 	movzbl 0x85ec(%rip),%eax        # 22a12 <g_154>
   1a426:	0f b6 c0             	movzbl %al,%eax
   1a429:	8b 55 fc             	mov    -0x4(%rbp),%edx
   1a42c:	48 8d 35 23 4b 00 00 	lea    0x4b23(%rip),%rsi        # 1ef56 <g_4277+0x2e96>
   1a433:	48 89 c7             	mov    %rax,%rdi
   1a436:	e8 b8 f2 fe ff       	callq  96f3 <transparent_crc>
   1a43b:	c7 45 f0 00 00 00 00 	movl   $0x0,-0x10(%rbp)
   1a442:	eb 4d                	jmp    1a491 <main+0x3b2>
   1a444:	8b 45 f0             	mov    -0x10(%rbp),%eax
   1a447:	48 98                	cltq   
   1a449:	48 8d 14 85 00 00 00 	lea    0x0(,%rax,4),%rdx
   1a450:	00 
   1a451:	48 8d 05 c8 85 00 00 	lea    0x85c8(%rip),%rax        # 22a20 <g_191>
   1a458:	8b 04 02             	mov    (%rdx,%rax,1),%eax
   1a45b:	89 c1                	mov    %eax,%ecx
   1a45d:	8b 45 fc             	mov    -0x4(%rbp),%eax
   1a460:	89 c2                	mov    %eax,%edx
   1a462:	48 8d 35 f3 4a 00 00 	lea    0x4af3(%rip),%rsi        # 1ef5c <g_4277+0x2e9c>
   1a469:	48 89 cf             	mov    %rcx,%rdi
   1a46c:	e8 82 f2 fe ff       	callq  96f3 <transparent_crc>
   1a471:	83 7d fc 00          	cmpl   $0x0,-0x4(%rbp)
   1a475:	74 16                	je     1a48d <main+0x3ae>
   1a477:	8b 45 f0             	mov    -0x10(%rbp),%eax
   1a47a:	89 c6                	mov    %eax,%esi
   1a47c:	48 8d 3d 9e 4a 00 00 	lea    0x4a9e(%rip),%rdi        # 1ef21 <g_4277+0x2e61>
   1a483:	b8 00 00 00 00       	mov    $0x0,%eax
   1a488:	e8 f3 db fe ff       	callq  8080 <printf@plt>
   1a48d:	83 45 f0 01          	addl   $0x1,-0x10(%rbp)
   1a491:	83 7d f0 07          	cmpl   $0x7,-0x10(%rbp)
   1a495:	7e ad                	jle    1a444 <main+0x365>
   1a497:	0f b7 05 a2 85 00 00 	movzwl 0x85a2(%rip),%eax        # 22a40 <g_195>
   1a49e:	48 0f bf c0          	movswq %ax,%rax
   1a4a2:	8b 55 fc             	mov    -0x4(%rbp),%edx
   1a4a5:	48 8d 35 b9 4a 00 00 	lea    0x4ab9(%rip),%rsi        # 1ef65 <g_4277+0x2ea5>
   1a4ac:	48 89 c7             	mov    %rax,%rdi
   1a4af:	e8 3f f2 fe ff       	callq  96f3 <transparent_crc>
   1a4b4:	8b 05 8a 85 00 00    	mov    0x858a(%rip),%eax        # 22a44 <g_196>
   1a4ba:	89 c1                	mov    %eax,%ecx
   1a4bc:	8b 45 fc             	mov    -0x4(%rbp),%eax
   1a4bf:	89 c2                	mov    %eax,%edx
   1a4c1:	48 8d 35 a3 4a 00 00 	lea    0x4aa3(%rip),%rsi        # 1ef6b <g_4277+0x2eab>
   1a4c8:	48 89 cf             	mov    %rcx,%rdi
   1a4cb:	e8 23 f2 fe ff       	callq  96f3 <transparent_crc>
   1a4d0:	0f b6 05 71 85 00 00 	movzbl 0x8571(%rip),%eax        # 22a48 <g_228>
   1a4d7:	48 0f be c0          	movsbq %al,%rax
   1a4db:	8b 55 fc             	mov    -0x4(%rbp),%edx
   1a4de:	48 8d 35 8c 4a 00 00 	lea    0x4a8c(%rip),%rsi        # 1ef71 <g_4277+0x2eb1>
   1a4e5:	48 89 c7             	mov    %rax,%rdi
   1a4e8:	e8 06 f2 fe ff       	callq  96f3 <transparent_crc>
   1a4ed:	48 8b 05 5c 85 00 00 	mov    0x855c(%rip),%rax        # 22a50 <g_232>
   1a4f4:	8b 55 fc             	mov    -0x4(%rbp),%edx
   1a4f7:	48 8d 35 79 4a 00 00 	lea    0x4a79(%rip),%rsi        # 1ef77 <g_4277+0x2eb7>
   1a4fe:	48 89 c7             	mov    %rax,%rdi
   1a501:	e8 ed f1 fe ff       	callq  96f3 <transparent_crc>
   1a506:	48 8b 05 4b 85 00 00 	mov    0x854b(%rip),%rax        # 22a58 <g_286>
   1a50d:	48 89 c1             	mov    %rax,%rcx
   1a510:	8b 45 fc             	mov    -0x4(%rbp),%eax
   1a513:	89 c2                	mov    %eax,%edx
   1a515:	48 8d 35 61 4a 00 00 	lea    0x4a61(%rip),%rsi        # 1ef7d <g_4277+0x2ebd>
   1a51c:	48 89 cf             	mov    %rcx,%rdi
   1a51f:	e8 cf f1 fe ff       	callq  96f3 <transparent_crc>
   1a524:	8b 05 36 85 00 00    	mov    0x8536(%rip),%eax        # 22a60 <g_341>
   1a52a:	48 98                	cltq   
   1a52c:	8b 55 fc             	mov    -0x4(%rbp),%edx
   1a52f:	48 8d 35 4d 4a 00 00 	lea    0x4a4d(%rip),%rsi        # 1ef83 <g_4277+0x2ec3>
   1a536:	48 89 c7             	mov    %rax,%rdi
   1a539:	e8 b5 f1 fe ff       	callq  96f3 <transparent_crc>
   1a53e:	8b 05 64 c0 00 00    	mov    0xc064(%rip),%eax        # 265a8 <g_342>
   1a544:	48 98                	cltq   
   1a546:	8b 55 fc             	mov    -0x4(%rbp),%edx
   1a549:	48 8d 35 39 4a 00 00 	lea    0x4a39(%rip),%rsi        # 1ef89 <g_4277+0x2ec9>
   1a550:	48 89 c7             	mov    %rax,%rdi
   1a553:	e8 9b f1 fe ff       	callq  96f3 <transparent_crc>
   1a558:	8b 05 06 85 00 00    	mov    0x8506(%rip),%eax        # 22a64 <g_343>
   1a55e:	89 c1                	mov    %eax,%ecx
   1a560:	8b 45 fc             	mov    -0x4(%rbp),%eax
   1a563:	89 c2                	mov    %eax,%edx
   1a565:	48 8d 35 23 4a 00 00 	lea    0x4a23(%rip),%rsi        # 1ef8f <g_4277+0x2ecf>
   1a56c:	48 89 cf             	mov    %rcx,%rdi
   1a56f:	e8 7f f1 fe ff       	callq  96f3 <transparent_crc>
   1a574:	c7 45 f0 00 00 00 00 	movl   $0x0,-0x10(%rbp)
   1a57b:	eb 4d                	jmp    1a5ca <main+0x4eb>
   1a57d:	8b 45 f0             	mov    -0x10(%rbp),%eax
   1a580:	48 98                	cltq   
   1a582:	48 8d 14 85 00 00 00 	lea    0x0(,%rax,4),%rdx
   1a589:	00 
   1a58a:	48 8d 05 df 84 00 00 	lea    0x84df(%rip),%rax        # 22a70 <g_445>
   1a591:	8b 04 02             	mov    (%rdx,%rax,1),%eax
   1a594:	89 c1                	mov    %eax,%ecx
   1a596:	8b 45 fc             	mov    -0x4(%rbp),%eax
   1a599:	89 c2                	mov    %eax,%edx
   1a59b:	48 8d 35 f3 49 00 00 	lea    0x49f3(%rip),%rsi        # 1ef95 <g_4277+0x2ed5>
   1a5a2:	48 89 cf             	mov    %rcx,%rdi
   1a5a5:	e8 49 f1 fe ff       	callq  96f3 <transparent_crc>
   1a5aa:	83 7d fc 00          	cmpl   $0x0,-0x4(%rbp)
   1a5ae:	74 16                	je     1a5c6 <main+0x4e7>
   1a5b0:	8b 45 f0             	mov    -0x10(%rbp),%eax
   1a5b3:	89 c6                	mov    %eax,%esi
   1a5b5:	48 8d 3d 65 49 00 00 	lea    0x4965(%rip),%rdi        # 1ef21 <g_4277+0x2e61>
   1a5bc:	b8 00 00 00 00       	mov    $0x0,%eax
   1a5c1:	e8 ba da fe ff       	callq  8080 <printf@plt>
   1a5c6:	83 45 f0 01          	addl   $0x1,-0x10(%rbp)
   1a5ca:	83 7d f0 06          	cmpl   $0x6,-0x10(%rbp)
   1a5ce:	7e ad                	jle    1a57d <main+0x49e>
   1a5d0:	c7 45 f0 00 00 00 00 	movl   $0x0,-0x10(%rbp)
   1a5d7:	eb 4a                	jmp    1a623 <main+0x544>
   1a5d9:	8b 45 f0             	mov    -0x10(%rbp),%eax
   1a5dc:	48 98                	cltq   
   1a5de:	48 8d 14 00          	lea    (%rax,%rax,1),%rdx
   1a5e2:	48 8d 05 a7 84 00 00 	lea    0x84a7(%rip),%rax        # 22a90 <g_448>
   1a5e9:	0f b7 04 02          	movzwl (%rdx,%rax,1),%eax
   1a5ed:	48 0f bf c0          	movswq %ax,%rax
   1a5f1:	8b 55 fc             	mov    -0x4(%rbp),%edx
   1a5f4:	48 8d 35 a3 49 00 00 	lea    0x49a3(%rip),%rsi        # 1ef9e <g_4277+0x2ede>
   1a5fb:	48 89 c7             	mov    %rax,%rdi
   1a5fe:	e8 f0 f0 fe ff       	callq  96f3 <transparent_crc>
   1a603:	83 7d fc 00          	cmpl   $0x0,-0x4(%rbp)
   1a607:	74 16                	je     1a61f <main+0x540>
   1a609:	8b 45 f0             	mov    -0x10(%rbp),%eax
   1a60c:	89 c6                	mov    %eax,%esi
   1a60e:	48 8d 3d 0c 49 00 00 	lea    0x490c(%rip),%rdi        # 1ef21 <g_4277+0x2e61>
   1a615:	b8 00 00 00 00       	mov    $0x0,%eax
   1a61a:	e8 61 da fe ff       	callq  8080 <printf@plt>
   1a61f:	83 45 f0 01          	addl   $0x1,-0x10(%rbp)
   1a623:	83 7d f0 08          	cmpl   $0x8,-0x10(%rbp)
   1a627:	7e b0                	jle    1a5d9 <main+0x4fa>
   1a629:	c7 45 f0 00 00 00 00 	movl   $0x0,-0x10(%rbp)
   1a630:	eb 4f                	jmp    1a681 <main+0x5a2>
   1a632:	8b 45 f0             	mov    -0x10(%rbp),%eax
   1a635:	48 98                	cltq   
   1a637:	48 8d 14 c5 00 00 00 	lea    0x0(,%rax,8),%rdx
   1a63e:	00 
   1a63f:	48 8d 05 7a 84 00 00 	lea    0x847a(%rip),%rax        # 22ac0 <g_519>
   1a646:	48 8b 04 02          	mov    (%rdx,%rax,1),%rax
   1a64a:	48 89 c1             	mov    %rax,%rcx
   1a64d:	8b 45 fc             	mov    -0x4(%rbp),%eax
   1a650:	89 c2                	mov    %eax,%edx
   1a652:	48 8d 35 4e 49 00 00 	lea    0x494e(%rip),%rsi        # 1efa7 <g_4277+0x2ee7>
   1a659:	48 89 cf             	mov    %rcx,%rdi
   1a65c:	e8 92 f0 fe ff       	callq  96f3 <transparent_crc>
   1a661:	83 7d fc 00          	cmpl   $0x0,-0x4(%rbp)
   1a665:	74 16                	je     1a67d <main+0x59e>
   1a667:	8b 45 f0             	mov    -0x10(%rbp),%eax
   1a66a:	89 c6                	mov    %eax,%esi
   1a66c:	48 8d 3d ae 48 00 00 	lea    0x48ae(%rip),%rdi        # 1ef21 <g_4277+0x2e61>
   1a673:	b8 00 00 00 00       	mov    $0x0,%eax
   1a678:	e8 03 da fe ff       	callq  8080 <printf@plt>
   1a67d:	83 45 f0 01          	addl   $0x1,-0x10(%rbp)
   1a681:	83 7d f0 06          	cmpl   $0x6,-0x10(%rbp)
   1a685:	7e ab                	jle    1a632 <main+0x553>
   1a687:	0f b6 05 6a 84 00 00 	movzbl 0x846a(%rip),%eax        # 22af8 <g_671>
   1a68e:	48 0f be c0          	movsbq %al,%rax
   1a692:	8b 55 fc             	mov    -0x4(%rbp),%edx
   1a695:	48 8d 35 14 49 00 00 	lea    0x4914(%rip),%rsi        # 1efb0 <g_4277+0x2ef0>
   1a69c:	48 89 c7             	mov    %rax,%rdi
   1a69f:	e8 4f f0 fe ff       	callq  96f3 <transparent_crc>
   1a6a4:	c7 45 f0 00 00 00 00 	movl   $0x0,-0x10(%rbp)
   1a6ab:	eb 67                	jmp    1a714 <main+0x635>
   1a6ad:	c7 45 f4 00 00 00 00 	movl   $0x0,-0xc(%rbp)
   1a6b4:	eb 54                	jmp    1a70a <main+0x62b>
   1a6b6:	8b 45 f4             	mov    -0xc(%rbp),%eax
   1a6b9:	48 63 d0             	movslq %eax,%rdx
   1a6bc:	8b 45 f0             	mov    -0x10(%rbp),%eax
   1a6bf:	48 98                	cltq   
   1a6c1:	48 01 c2             	add    %rax,%rdx
   1a6c4:	48 8d 05 2e 84 00 00 	lea    0x842e(%rip),%rax        # 22af9 <g_672>
   1a6cb:	48 01 d0             	add    %rdx,%rax
   1a6ce:	0f b6 00             	movzbl (%rax),%eax
   1a6d1:	48 0f be c0          	movsbq %al,%rax
   1a6d5:	8b 55 fc             	mov    -0x4(%rbp),%edx
   1a6d8:	48 8d 35 d7 48 00 00 	lea    0x48d7(%rip),%rsi        # 1efb6 <g_4277+0x2ef6>
   1a6df:	48 89 c7             	mov    %rax,%rdi
   1a6e2:	e8 0c f0 fe ff       	callq  96f3 <transparent_crc>
   1a6e7:	83 7d fc 00          	cmpl   $0x0,-0x4(%rbp)
   1a6eb:	74 19                	je     1a706 <main+0x627>
   1a6ed:	8b 55 f4             	mov    -0xc(%rbp),%edx
   1a6f0:	8b 45 f0             	mov    -0x10(%rbp),%eax
   1a6f3:	89 c6                	mov    %eax,%esi
   1a6f5:	48 8d 3d c6 48 00 00 	lea    0x48c6(%rip),%rdi        # 1efc2 <g_4277+0x2f02>
   1a6fc:	b8 00 00 00 00       	mov    $0x0,%eax
   1a701:	e8 7a d9 fe ff       	callq  8080 <printf@plt>
   1a706:	83 45 f4 01          	addl   $0x1,-0xc(%rbp)
   1a70a:	83 7d f4 00          	cmpl   $0x0,-0xc(%rbp)
   1a70e:	7e a6                	jle    1a6b6 <main+0x5d7>
   1a710:	83 45 f0 01          	addl   $0x1,-0x10(%rbp)
   1a714:	83 7d f0 05          	cmpl   $0x5,-0x10(%rbp)
   1a718:	7e 93                	jle    1a6ad <main+0x5ce>
   1a71a:	c7 45 f0 00 00 00 00 	movl   $0x0,-0x10(%rbp)
   1a721:	eb 46                	jmp    1a769 <main+0x68a>
   1a723:	8b 45 f0             	mov    -0x10(%rbp),%eax
   1a726:	48 98                	cltq   
   1a728:	48 8d 15 d0 83 00 00 	lea    0x83d0(%rip),%rdx        # 22aff <g_673>
   1a72f:	0f b6 04 10          	movzbl (%rax,%rdx,1),%eax
   1a733:	48 0f be c0          	movsbq %al,%rax
   1a737:	8b 55 fc             	mov    -0x4(%rbp),%edx
   1a73a:	48 8d 35 93 48 00 00 	lea    0x4893(%rip),%rsi        # 1efd4 <g_4277+0x2f14>
   1a741:	48 89 c7             	mov    %rax,%rdi
   1a744:	e8 aa ef fe ff       	callq  96f3 <transparent_crc>
   1a749:	83 7d fc 00          	cmpl   $0x0,-0x4(%rbp)
   1a74d:	74 16                	je     1a765 <main+0x686>
   1a74f:	8b 45 f0             	mov    -0x10(%rbp),%eax
   1a752:	89 c6                	mov    %eax,%esi
   1a754:	48 8d 3d c6 47 00 00 	lea    0x47c6(%rip),%rdi        # 1ef21 <g_4277+0x2e61>
   1a75b:	b8 00 00 00 00       	mov    $0x0,%eax
   1a760:	e8 1b d9 fe ff       	callq  8080 <printf@plt>
   1a765:	83 45 f0 01          	addl   $0x1,-0x10(%rbp)
   1a769:	83 7d f0 03          	cmpl   $0x3,-0x10(%rbp)
   1a76d:	7e b4                	jle    1a723 <main+0x644>
   1a76f:	0f b6 05 8d 83 00 00 	movzbl 0x838d(%rip),%eax        # 22b03 <g_674>
   1a776:	48 0f be c0          	movsbq %al,%rax
   1a77a:	8b 55 fc             	mov    -0x4(%rbp),%edx
   1a77d:	48 8d 35 59 48 00 00 	lea    0x4859(%rip),%rsi        # 1efdd <g_4277+0x2f1d>
   1a784:	48 89 c7             	mov    %rax,%rdi
   1a787:	e8 67 ef fe ff       	callq  96f3 <transparent_crc>
   1a78c:	0f b6 05 71 83 00 00 	movzbl 0x8371(%rip),%eax        # 22b04 <g_675>
   1a793:	48 0f be c0          	movsbq %al,%rax
   1a797:	8b 55 fc             	mov    -0x4(%rbp),%edx
   1a79a:	48 8d 35 42 48 00 00 	lea    0x4842(%rip),%rsi        # 1efe3 <g_4277+0x2f23>
   1a7a1:	48 89 c7             	mov    %rax,%rdi
   1a7a4:	e8 4a ef fe ff       	callq  96f3 <transparent_crc>
   1a7a9:	0f b6 05 55 83 00 00 	movzbl 0x8355(%rip),%eax        # 22b05 <g_676>
   1a7b0:	48 0f be c0          	movsbq %al,%rax
   1a7b4:	8b 55 fc             	mov    -0x4(%rbp),%edx
   1a7b7:	48 8d 35 2b 48 00 00 	lea    0x482b(%rip),%rsi        # 1efe9 <g_4277+0x2f29>
   1a7be:	48 89 c7             	mov    %rax,%rdi
   1a7c1:	e8 2d ef fe ff       	callq  96f3 <transparent_crc>
   1a7c6:	0f b6 05 39 83 00 00 	movzbl 0x8339(%rip),%eax        # 22b06 <g_677>
   1a7cd:	48 0f be c0          	movsbq %al,%rax
   1a7d1:	8b 55 fc             	mov    -0x4(%rbp),%edx
   1a7d4:	48 8d 35 14 48 00 00 	lea    0x4814(%rip),%rsi        # 1efef <g_4277+0x2f2f>
   1a7db:	48 89 c7             	mov    %rax,%rdi
   1a7de:	e8 10 ef fe ff       	callq  96f3 <transparent_crc>
   1a7e3:	0f b6 05 1d 83 00 00 	movzbl 0x831d(%rip),%eax        # 22b07 <g_678>
   1a7ea:	48 0f be c0          	movsbq %al,%rax
   1a7ee:	8b 55 fc             	mov    -0x4(%rbp),%edx
   1a7f1:	48 8d 35 fd 47 00 00 	lea    0x47fd(%rip),%rsi        # 1eff5 <g_4277+0x2f35>
   1a7f8:	48 89 c7             	mov    %rax,%rdi
   1a7fb:	e8 f3 ee fe ff       	callq  96f3 <transparent_crc>
   1a800:	8b 05 02 83 00 00    	mov    0x8302(%rip),%eax        # 22b08 <g_685>
   1a806:	48 98                	cltq   
   1a808:	8b 55 fc             	mov    -0x4(%rbp),%edx
   1a80b:	48 8d 35 e9 47 00 00 	lea    0x47e9(%rip),%rsi        # 1effb <g_4277+0x2f3b>
   1a812:	48 89 c7             	mov    %rax,%rdi
   1a815:	e8 d9 ee fe ff       	callq  96f3 <transparent_crc>
   1a81a:	c7 45 f0 00 00 00 00 	movl   $0x0,-0x10(%rbp)
   1a821:	eb 74                	jmp    1a897 <main+0x7b8>
   1a823:	c7 45 f4 00 00 00 00 	movl   $0x0,-0xc(%rbp)
   1a82a:	eb 61                	jmp    1a88d <main+0x7ae>
   1a82c:	8b 45 f4             	mov    -0xc(%rbp),%eax
   1a82f:	48 63 c8             	movslq %eax,%rcx
   1a832:	8b 45 f0             	mov    -0x10(%rbp),%eax
   1a835:	48 63 d0             	movslq %eax,%rdx
   1a838:	48 89 d0             	mov    %rdx,%rax
   1a83b:	48 c1 e0 02          	shl    $0x2,%rax
   1a83f:	48 01 d0             	add    %rdx,%rax
   1a842:	48 01 c8             	add    %rcx,%rax
   1a845:	48 8d 14 c5 00 00 00 	lea    0x0(,%rax,8),%rdx
   1a84c:	00 
   1a84d:	48 8d 05 cc 82 00 00 	lea    0x82cc(%rip),%rax        # 22b20 <g_688>
   1a854:	48 8b 04 02          	mov    (%rdx,%rax,1),%rax
   1a858:	8b 55 fc             	mov    -0x4(%rbp),%edx
   1a85b:	48 8d 35 9f 47 00 00 	lea    0x479f(%rip),%rsi        # 1f001 <g_4277+0x2f41>
   1a862:	48 89 c7             	mov    %rax,%rdi
   1a865:	e8 89 ee fe ff       	callq  96f3 <transparent_crc>
   1a86a:	83 7d fc 00          	cmpl   $0x0,-0x4(%rbp)
   1a86e:	74 19                	je     1a889 <main+0x7aa>
   1a870:	8b 55 f4             	mov    -0xc(%rbp),%edx
   1a873:	8b 45 f0             	mov    -0x10(%rbp),%eax
   1a876:	89 c6                	mov    %eax,%esi
   1a878:	48 8d 3d 43 47 00 00 	lea    0x4743(%rip),%rdi        # 1efc2 <g_4277+0x2f02>
   1a87f:	b8 00 00 00 00       	mov    $0x0,%eax
   1a884:	e8 f7 d7 fe ff       	callq  8080 <printf@plt>
   1a889:	83 45 f4 01          	addl   $0x1,-0xc(%rbp)
   1a88d:	83 7d f4 04          	cmpl   $0x4,-0xc(%rbp)
   1a891:	7e 99                	jle    1a82c <main+0x74d>
   1a893:	83 45 f0 01          	addl   $0x1,-0x10(%rbp)
   1a897:	83 7d f0 06          	cmpl   $0x6,-0x10(%rbp)
   1a89b:	7e 86                	jle    1a823 <main+0x744>
   1a89d:	48 8b 05 14 bd 00 00 	mov    0xbd14(%rip),%rax        # 265b8 <g_887>
   1a8a4:	48 89 c1             	mov    %rax,%rcx
   1a8a7:	8b 45 fc             	mov    -0x4(%rbp),%eax
   1a8aa:	89 c2                	mov    %eax,%edx
   1a8ac:	48 8d 35 5a 47 00 00 	lea    0x475a(%rip),%rsi        # 1f00d <g_4277+0x2f4d>
   1a8b3:	48 89 cf             	mov    %rcx,%rdi
   1a8b6:	e8 38 ee fe ff       	callq  96f3 <transparent_crc>
   1a8bb:	c7 45 f0 00 00 00 00 	movl   $0x0,-0x10(%rbp)
   1a8c2:	eb 6e                	jmp    1a932 <main+0x853>
   1a8c4:	c7 45 f4 00 00 00 00 	movl   $0x0,-0xc(%rbp)
   1a8cb:	eb 5b                	jmp    1a928 <main+0x849>
   1a8cd:	8b 45 f4             	mov    -0xc(%rbp),%eax
   1a8d0:	48 98                	cltq   
   1a8d2:	8b 55 f0             	mov    -0x10(%rbp),%edx
   1a8d5:	48 63 d2             	movslq %edx,%rdx
   1a8d8:	48 c1 e2 03          	shl    $0x3,%rdx
   1a8dc:	48 01 d0             	add    %rdx,%rax
   1a8df:	48 8d 14 85 00 00 00 	lea    0x0(,%rax,4),%rdx
   1a8e6:	00 
   1a8e7:	48 8d 05 52 83 00 00 	lea    0x8352(%rip),%rax        # 22c40 <g_1128>
   1a8ee:	8b 04 02             	mov    (%rdx,%rax,1),%eax
   1a8f1:	48 98                	cltq   
   1a8f3:	8b 55 fc             	mov    -0x4(%rbp),%edx
   1a8f6:	48 8d 35 16 47 00 00 	lea    0x4716(%rip),%rsi        # 1f013 <g_4277+0x2f53>
   1a8fd:	48 89 c7             	mov    %rax,%rdi
   1a900:	e8 ee ed fe ff       	callq  96f3 <transparent_crc>
   1a905:	83 7d fc 00          	cmpl   $0x0,-0x4(%rbp)
   1a909:	74 19                	je     1a924 <main+0x845>
   1a90b:	8b 55 f4             	mov    -0xc(%rbp),%edx
   1a90e:	8b 45 f0             	mov    -0x10(%rbp),%eax
   1a911:	89 c6                	mov    %eax,%esi
   1a913:	48 8d 3d a8 46 00 00 	lea    0x46a8(%rip),%rdi        # 1efc2 <g_4277+0x2f02>
   1a91a:	b8 00 00 00 00       	mov    $0x0,%eax
   1a91f:	e8 5c d7 fe ff       	callq  8080 <printf@plt>
   1a924:	83 45 f4 01          	addl   $0x1,-0xc(%rbp)
   1a928:	83 7d f4 07          	cmpl   $0x7,-0xc(%rbp)
   1a92c:	7e 9f                	jle    1a8cd <main+0x7ee>
   1a92e:	83 45 f0 01          	addl   $0x1,-0x10(%rbp)
   1a932:	83 7d f0 03          	cmpl   $0x3,-0x10(%rbp)
   1a936:	7e 8c                	jle    1a8c4 <main+0x7e5>
   1a938:	c7 45 f0 00 00 00 00 	movl   $0x0,-0x10(%rbp)
   1a93f:	eb 49                	jmp    1a98a <main+0x8ab>
   1a941:	8b 45 f0             	mov    -0x10(%rbp),%eax
   1a944:	48 98                	cltq   
   1a946:	48 8d 14 00          	lea    (%rax,%rax,1),%rdx
   1a94a:	48 8d 05 6f 83 00 00 	lea    0x836f(%rip),%rax        # 22cc0 <g_1177>
   1a951:	0f b7 04 02          	movzwl (%rdx,%rax,1),%eax
   1a955:	0f b7 c0             	movzwl %ax,%eax
   1a958:	8b 55 fc             	mov    -0x4(%rbp),%edx
   1a95b:	48 8d 35 be 46 00 00 	lea    0x46be(%rip),%rsi        # 1f020 <g_4277+0x2f60>
   1a962:	48 89 c7             	mov    %rax,%rdi
   1a965:	e8 89 ed fe ff       	callq  96f3 <transparent_crc>
   1a96a:	83 7d fc 00          	cmpl   $0x0,-0x4(%rbp)
   1a96e:	74 16                	je     1a986 <main+0x8a7>
   1a970:	8b 45 f0             	mov    -0x10(%rbp),%eax
   1a973:	89 c6                	mov    %eax,%esi
   1a975:	48 8d 3d a5 45 00 00 	lea    0x45a5(%rip),%rdi        # 1ef21 <g_4277+0x2e61>
   1a97c:	b8 00 00 00 00       	mov    $0x0,%eax
   1a981:	e8 fa d6 fe ff       	callq  8080 <printf@plt>
   1a986:	83 45 f0 01          	addl   $0x1,-0x10(%rbp)
   1a98a:	83 7d f0 09          	cmpl   $0x9,-0x10(%rbp)
   1a98e:	7e b1                	jle    1a941 <main+0x862>
   1a990:	c7 45 f0 00 00 00 00 	movl   $0x0,-0x10(%rbp)
   1a997:	eb 73                	jmp    1aa0c <main+0x92d>
   1a999:	c7 45 f4 00 00 00 00 	movl   $0x0,-0xc(%rbp)
   1a9a0:	eb 60                	jmp    1aa02 <main+0x923>
   1a9a2:	8b 45 f4             	mov    -0xc(%rbp),%eax
   1a9a5:	48 63 c8             	movslq %eax,%rcx
   1a9a8:	8b 45 f0             	mov    -0x10(%rbp),%eax
   1a9ab:	48 63 d0             	movslq %eax,%rdx
   1a9ae:	48 89 d0             	mov    %rdx,%rax
   1a9b1:	48 c1 e0 02          	shl    $0x2,%rax
   1a9b5:	48 01 d0             	add    %rdx,%rax
   1a9b8:	48 01 c8             	add    %rcx,%rax
   1a9bb:	48 8d 14 00          	lea    (%rax,%rax,1),%rdx
   1a9bf:	48 8d 05 1a 83 00 00 	lea    0x831a(%rip),%rax        # 22ce0 <g_1182>
   1a9c6:	0f b7 04 02          	movzwl (%rdx,%rax,1),%eax
   1a9ca:	0f b7 c0             	movzwl %ax,%eax
   1a9cd:	8b 55 fc             	mov    -0x4(%rbp),%edx
   1a9d0:	48 8d 35 53 46 00 00 	lea    0x4653(%rip),%rsi        # 1f02a <g_4277+0x2f6a>
   1a9d7:	48 89 c7             	mov    %rax,%rdi
   1a9da:	e8 14 ed fe ff       	callq  96f3 <transparent_crc>
   1a9df:	83 7d fc 00          	cmpl   $0x0,-0x4(%rbp)
   1a9e3:	74 19                	je     1a9fe <main+0x91f>
   1a9e5:	8b 55 f4             	mov    -0xc(%rbp),%edx
   1a9e8:	8b 45 f0             	mov    -0x10(%rbp),%eax
   1a9eb:	89 c6                	mov    %eax,%esi
   1a9ed:	48 8d 3d ce 45 00 00 	lea    0x45ce(%rip),%rdi        # 1efc2 <g_4277+0x2f02>
   1a9f4:	b8 00 00 00 00       	mov    $0x0,%eax
   1a9f9:	e8 82 d6 fe ff       	callq  8080 <printf@plt>
   1a9fe:	83 45 f4 01          	addl   $0x1,-0xc(%rbp)
   1aa02:	83 7d f4 04          	cmpl   $0x4,-0xc(%rbp)
   1aa06:	7e 9a                	jle    1a9a2 <main+0x8c3>
   1aa08:	83 45 f0 01          	addl   $0x1,-0x10(%rbp)
   1aa0c:	83 7d f0 01          	cmpl   $0x1,-0x10(%rbp)
   1aa10:	7e 87                	jle    1a999 <main+0x8ba>
   1aa12:	8b 05 dc 82 00 00    	mov    0x82dc(%rip),%eax        # 22cf4 <g_1239>
   1aa18:	89 c1                	mov    %eax,%ecx
   1aa1a:	8b 45 fc             	mov    -0x4(%rbp),%eax
   1aa1d:	89 c2                	mov    %eax,%edx
   1aa1f:	48 8d 35 11 46 00 00 	lea    0x4611(%rip),%rsi        # 1f037 <g_4277+0x2f77>
   1aa26:	48 89 cf             	mov    %rcx,%rdi
   1aa29:	e8 c5 ec fe ff       	callq  96f3 <transparent_crc>
   1aa2e:	48 8b 05 c3 82 00 00 	mov    0x82c3(%rip),%rax        # 22cf8 <g_1352>
   1aa35:	8b 55 fc             	mov    -0x4(%rbp),%edx
   1aa38:	48 8d 35 ff 45 00 00 	lea    0x45ff(%rip),%rsi        # 1f03e <g_4277+0x2f7e>
   1aa3f:	48 89 c7             	mov    %rax,%rdi
   1aa42:	e8 ac ec fe ff       	callq  96f3 <transparent_crc>
   1aa47:	c7 45 f0 00 00 00 00 	movl   $0x0,-0x10(%rbp)
   1aa4e:	e9 a5 00 00 00       	jmpq   1aaf8 <main+0xa19>
   1aa53:	c7 45 f4 00 00 00 00 	movl   $0x0,-0xc(%rbp)
   1aa5a:	e9 8b 00 00 00       	jmpq   1aaea <main+0xa0b>
   1aa5f:	c7 45 f8 00 00 00 00 	movl   $0x0,-0x8(%rbp)
   1aa66:	eb 78                	jmp    1aae0 <main+0xa01>
   1aa68:	8b 45 f8             	mov    -0x8(%rbp),%eax
   1aa6b:	48 63 c8             	movslq %eax,%rcx
   1aa6e:	8b 45 f0             	mov    -0x10(%rbp),%eax
   1aa71:	48 63 d0             	movslq %eax,%rdx
   1aa74:	8b 45 f4             	mov    -0xc(%rbp),%eax
   1aa77:	48 63 f0             	movslq %eax,%rsi
   1aa7a:	48 89 d0             	mov    %rdx,%rax
   1aa7d:	48 c1 e0 02          	shl    $0x2,%rax
   1aa81:	48 01 d0             	add    %rdx,%rax
   1aa84:	48 01 c0             	add    %rax,%rax
   1aa87:	48 01 f0             	add    %rsi,%rax
   1aa8a:	48 01 c0             	add    %rax,%rax
   1aa8d:	48 01 c8             	add    %rcx,%rax
   1aa90:	48 8d 14 c5 00 00 00 	lea    0x0(,%rax,8),%rdx
   1aa97:	00 
   1aa98:	48 8d 05 61 82 00 00 	lea    0x8261(%rip),%rax        # 22d00 <g_1492>
   1aa9f:	48 8b 04 02          	mov    (%rdx,%rax,1),%rax
   1aaa3:	48 89 c1             	mov    %rax,%rcx
   1aaa6:	8b 45 fc             	mov    -0x4(%rbp),%eax
   1aaa9:	89 c2                	mov    %eax,%edx
   1aaab:	48 8d 35 93 45 00 00 	lea    0x4593(%rip),%rsi        # 1f045 <g_4277+0x2f85>
   1aab2:	48 89 cf             	mov    %rcx,%rdi
   1aab5:	e8 39 ec fe ff       	callq  96f3 <transparent_crc>
   1aaba:	83 7d fc 00          	cmpl   $0x0,-0x4(%rbp)
   1aabe:	74 1c                	je     1aadc <main+0x9fd>
   1aac0:	8b 4d f8             	mov    -0x8(%rbp),%ecx
   1aac3:	8b 55 f4             	mov    -0xc(%rbp),%edx
   1aac6:	8b 45 f0             	mov    -0x10(%rbp),%eax
   1aac9:	89 c6                	mov    %eax,%esi
   1aacb:	48 8d 3d 15 44 00 00 	lea    0x4415(%rip),%rdi        # 1eee7 <g_4277+0x2e27>
   1aad2:	b8 00 00 00 00       	mov    $0x0,%eax
   1aad7:	e8 a4 d5 fe ff       	callq  8080 <printf@plt>
   1aadc:	83 45 f8 01          	addl   $0x1,-0x8(%rbp)
   1aae0:	83 7d f8 01          	cmpl   $0x1,-0x8(%rbp)
   1aae4:	7e 82                	jle    1aa68 <main+0x989>
   1aae6:	83 45 f4 01          	addl   $0x1,-0xc(%rbp)
   1aaea:	83 7d f4 09          	cmpl   $0x9,-0xc(%rbp)
   1aaee:	0f 8e 6b ff ff ff    	jle    1aa5f <main+0x980>
   1aaf4:	83 45 f0 01          	addl   $0x1,-0x10(%rbp)
   1aaf8:	83 7d f0 09          	cmpl   $0x9,-0x10(%rbp)
   1aafc:	0f 8e 51 ff ff ff    	jle    1aa53 <main+0x974>
   1ab02:	48 8b 05 37 88 00 00 	mov    0x8837(%rip),%rax        # 23340 <g_1521>
   1ab09:	48 89 c1             	mov    %rax,%rcx
   1ab0c:	8b 45 fc             	mov    -0x4(%rbp),%eax
   1ab0f:	89 c2                	mov    %eax,%edx
   1ab11:	48 8d 35 3d 45 00 00 	lea    0x453d(%rip),%rsi        # 1f055 <g_4277+0x2f95>
   1ab18:	48 89 cf             	mov    %rcx,%rdi
   1ab1b:	e8 d3 eb fe ff       	callq  96f3 <transparent_crc>
   1ab20:	0f b6 05 21 88 00 00 	movzbl 0x8821(%rip),%eax        # 23348 <g_1641>
   1ab27:	0f b6 c0             	movzbl %al,%eax
   1ab2a:	8b 55 fc             	mov    -0x4(%rbp),%edx
   1ab2d:	48 8d 35 28 45 00 00 	lea    0x4528(%rip),%rsi        # 1f05c <g_4277+0x2f9c>
   1ab34:	48 89 c7             	mov    %rax,%rdi
   1ab37:	e8 b7 eb fe ff       	callq  96f3 <transparent_crc>
   1ab3c:	0f b7 05 d5 ba 00 00 	movzwl 0xbad5(%rip),%eax        # 26618 <g_1702>
   1ab43:	0f b7 c0             	movzwl %ax,%eax
   1ab46:	8b 55 fc             	mov    -0x4(%rbp),%edx
   1ab49:	48 8d 35 13 45 00 00 	lea    0x4513(%rip),%rsi        # 1f063 <g_4277+0x2fa3>
   1ab50:	48 89 c7             	mov    %rax,%rdi
   1ab53:	e8 9b eb fe ff       	callq  96f3 <transparent_crc>
   1ab58:	8b 05 ee 87 00 00    	mov    0x87ee(%rip),%eax        # 2334c <g_1920>
   1ab5e:	48 98                	cltq   
   1ab60:	8b 55 fc             	mov    -0x4(%rbp),%edx
   1ab63:	48 8d 35 00 45 00 00 	lea    0x4500(%rip),%rsi        # 1f06a <g_4277+0x2faa>
   1ab6a:	48 89 c7             	mov    %rax,%rdi
   1ab6d:	e8 81 eb fe ff       	callq  96f3 <transparent_crc>
   1ab72:	0f b7 05 d7 87 00 00 	movzwl 0x87d7(%rip),%eax        # 23350 <g_1985>
   1ab79:	48 0f bf c0          	movswq %ax,%rax
   1ab7d:	8b 55 fc             	mov    -0x4(%rbp),%edx
   1ab80:	48 8d 35 ea 44 00 00 	lea    0x44ea(%rip),%rsi        # 1f071 <g_4277+0x2fb1>
   1ab87:	48 89 c7             	mov    %rax,%rdi
   1ab8a:	e8 64 eb fe ff       	callq  96f3 <transparent_crc>
   1ab8f:	48 8b 05 c2 87 00 00 	mov    0x87c2(%rip),%rax        # 23358 <g_2025>
   1ab96:	8b 55 fc             	mov    -0x4(%rbp),%edx
   1ab99:	48 8d 35 d8 44 00 00 	lea    0x44d8(%rip),%rsi        # 1f078 <g_4277+0x2fb8>
   1aba0:	48 89 c7             	mov    %rax,%rdi
   1aba3:	e8 4b eb fe ff       	callq  96f3 <transparent_crc>
   1aba8:	8b 05 b2 87 00 00    	mov    0x87b2(%rip),%eax        # 23360 <g_2085>
   1abae:	89 c1                	mov    %eax,%ecx
   1abb0:	8b 45 fc             	mov    -0x4(%rbp),%eax
   1abb3:	89 c2                	mov    %eax,%edx
   1abb5:	48 8d 35 c3 44 00 00 	lea    0x44c3(%rip),%rsi        # 1f07f <g_4277+0x2fbf>
   1abbc:	48 89 cf             	mov    %rcx,%rdi
   1abbf:	e8 2f eb fe ff       	callq  96f3 <transparent_crc>
   1abc4:	c7 45 f0 00 00 00 00 	movl   $0x0,-0x10(%rbp)
   1abcb:	eb 45                	jmp    1ac12 <main+0xb33>
   1abcd:	8b 45 f0             	mov    -0x10(%rbp),%eax
   1abd0:	48 98                	cltq   
   1abd2:	48 8d 15 8f 87 00 00 	lea    0x878f(%rip),%rdx        # 23368 <g_2134>
   1abd9:	0f b6 04 10          	movzbl (%rax,%rdx,1),%eax
   1abdd:	0f b6 c0             	movzbl %al,%eax
   1abe0:	8b 55 fc             	mov    -0x4(%rbp),%edx
   1abe3:	48 8d 35 9c 44 00 00 	lea    0x449c(%rip),%rsi        # 1f086 <g_4277+0x2fc6>
   1abea:	48 89 c7             	mov    %rax,%rdi
   1abed:	e8 01 eb fe ff       	callq  96f3 <transparent_crc>
   1abf2:	83 7d fc 00          	cmpl   $0x0,-0x4(%rbp)
   1abf6:	74 16                	je     1ac0e <main+0xb2f>
   1abf8:	8b 45 f0             	mov    -0x10(%rbp),%eax
   1abfb:	89 c6                	mov    %eax,%esi
   1abfd:	48 8d 3d 1d 43 00 00 	lea    0x431d(%rip),%rdi        # 1ef21 <g_4277+0x2e61>
   1ac04:	b8 00 00 00 00       	mov    $0x0,%eax
   1ac09:	e8 72 d4 fe ff       	callq  8080 <printf@plt>
   1ac0e:	83 45 f0 01          	addl   $0x1,-0x10(%rbp)
   1ac12:	83 7d f0 09          	cmpl   $0x9,-0x10(%rbp)
   1ac16:	7e b5                	jle    1abcd <main+0xaee>
   1ac18:	8b 05 0a ba 00 00    	mov    0xba0a(%rip),%eax        # 26628 <g_2142>
   1ac1e:	48 98                	cltq   
   1ac20:	8b 55 fc             	mov    -0x4(%rbp),%edx
   1ac23:	48 8d 35 66 44 00 00 	lea    0x4466(%rip),%rsi        # 1f090 <g_4277+0x2fd0>
   1ac2a:	48 89 c7             	mov    %rax,%rdi
   1ac2d:	e8 c1 ea fe ff       	callq  96f3 <transparent_crc>
   1ac32:	b8 e0 05 00 00       	mov    $0x5e0,%eax
   1ac37:	0f b7 c0             	movzwl %ax,%eax
   1ac3a:	8b 55 fc             	mov    -0x4(%rbp),%edx
   1ac3d:	48 8d 35 53 44 00 00 	lea    0x4453(%rip),%rsi        # 1f097 <g_4277+0x2fd7>
   1ac44:	48 89 c7             	mov    %rax,%rdi
   1ac47:	e8 a7 ea fe ff       	callq  96f3 <transparent_crc>
   1ac4c:	8b 05 22 87 00 00    	mov    0x8722(%rip),%eax        # 23374 <g_2201>
   1ac52:	48 98                	cltq   
   1ac54:	8b 55 fc             	mov    -0x4(%rbp),%edx
   1ac57:	48 8d 35 40 44 00 00 	lea    0x4440(%rip),%rsi        # 1f09e <g_4277+0x2fde>
   1ac5e:	48 89 c7             	mov    %rax,%rdi
   1ac61:	e8 8d ea fe ff       	callq  96f3 <transparent_crc>
   1ac66:	48 8b 05 0b 87 00 00 	mov    0x870b(%rip),%rax        # 23378 <g_2474>
   1ac6d:	8b 55 fc             	mov    -0x4(%rbp),%edx
   1ac70:	48 8d 35 2e 44 00 00 	lea    0x442e(%rip),%rsi        # 1f0a5 <g_4277+0x2fe5>
   1ac77:	48 89 c7             	mov    %rax,%rdi
   1ac7a:	e8 74 ea fe ff       	callq  96f3 <transparent_crc>
   1ac7f:	48 8b 05 fa 86 00 00 	mov    0x86fa(%rip),%rax        # 23380 <g_2519>
   1ac86:	48 89 c1             	mov    %rax,%rcx
   1ac89:	8b 45 fc             	mov    -0x4(%rbp),%eax
   1ac8c:	89 c2                	mov    %eax,%edx
   1ac8e:	48 8d 35 17 44 00 00 	lea    0x4417(%rip),%rsi        # 1f0ac <g_4277+0x2fec>
   1ac95:	48 89 cf             	mov    %rcx,%rdi
   1ac98:	e8 56 ea fe ff       	callq  96f3 <transparent_crc>
   1ac9d:	8b 05 e5 86 00 00    	mov    0x86e5(%rip),%eax        # 23388 <g_2522>
   1aca3:	89 c1                	mov    %eax,%ecx
   1aca5:	8b 45 fc             	mov    -0x4(%rbp),%eax
   1aca8:	89 c2                	mov    %eax,%edx
   1acaa:	48 8d 35 02 44 00 00 	lea    0x4402(%rip),%rsi        # 1f0b3 <g_4277+0x2ff3>
   1acb1:	48 89 cf             	mov    %rcx,%rdi
   1acb4:	e8 3a ea fe ff       	callq  96f3 <transparent_crc>
   1acb9:	0f b7 05 cc 86 00 00 	movzwl 0x86cc(%rip),%eax        # 2338c <g_2556>
   1acc0:	0f b7 c0             	movzwl %ax,%eax
   1acc3:	8b 55 fc             	mov    -0x4(%rbp),%edx
   1acc6:	48 8d 35 ed 43 00 00 	lea    0x43ed(%rip),%rsi        # 1f0ba <g_4277+0x2ffa>
   1accd:	48 89 c7             	mov    %rax,%rdi
   1acd0:	e8 1e ea fe ff       	callq  96f3 <transparent_crc>
   1acd5:	c7 45 f0 00 00 00 00 	movl   $0x0,-0x10(%rbp)
   1acdc:	e9 a4 00 00 00       	jmpq   1ad85 <main+0xca6>
   1ace1:	c7 45 f4 00 00 00 00 	movl   $0x0,-0xc(%rbp)
   1ace8:	e9 8a 00 00 00       	jmpq   1ad77 <main+0xc98>
   1aced:	c7 45 f8 00 00 00 00 	movl   $0x0,-0x8(%rbp)
   1acf4:	eb 77                	jmp    1ad6d <main+0xc8e>
   1acf6:	8b 45 f8             	mov    -0x8(%rbp),%eax
   1acf9:	48 63 f0             	movslq %eax,%rsi
   1acfc:	8b 45 f0             	mov    -0x10(%rbp),%eax
   1acff:	48 63 d0             	movslq %eax,%rdx
   1ad02:	8b 45 f4             	mov    -0xc(%rbp),%eax
   1ad05:	48 63 c8             	movslq %eax,%rcx
   1ad08:	48 89 d0             	mov    %rdx,%rax
   1ad0b:	48 01 c0             	add    %rax,%rax
   1ad0e:	48 01 d0             	add    %rdx,%rax
   1ad11:	48 01 c0             	add    %rax,%rax
   1ad14:	48 89 ca             	mov    %rcx,%rdx
   1ad17:	48 01 d2             	add    %rdx,%rdx
   1ad1a:	48 01 ca             	add    %rcx,%rdx
   1ad1d:	48 01 d0             	add    %rdx,%rax
   1ad20:	48 01 f0             	add    %rsi,%rax
   1ad23:	48 8d 14 00          	lea    (%rax,%rax,1),%rdx
   1ad27:	48 8d 05 62 86 00 00 	lea    0x8662(%rip),%rax        # 23390 <g_2568>
   1ad2e:	0f b7 04 02          	movzwl (%rdx,%rax,1),%eax
   1ad32:	0f b7 c0             	movzwl %ax,%eax
   1ad35:	8b 55 fc             	mov    -0x4(%rbp),%edx
   1ad38:	48 8d 35 82 43 00 00 	lea    0x4382(%rip),%rsi        # 1f0c1 <g_4277+0x3001>
   1ad3f:	48 89 c7             	mov    %rax,%rdi
   1ad42:	e8 ac e9 fe ff       	callq  96f3 <transparent_crc>
   1ad47:	83 7d fc 00          	cmpl   $0x0,-0x4(%rbp)
   1ad4b:	74 1c                	je     1ad69 <main+0xc8a>
   1ad4d:	8b 4d f8             	mov    -0x8(%rbp),%ecx
   1ad50:	8b 55 f4             	mov    -0xc(%rbp),%edx
   1ad53:	8b 45 f0             	mov    -0x10(%rbp),%eax
   1ad56:	89 c6                	mov    %eax,%esi
   1ad58:	48 8d 3d 88 41 00 00 	lea    0x4188(%rip),%rdi        # 1eee7 <g_4277+0x2e27>
   1ad5f:	b8 00 00 00 00       	mov    $0x0,%eax
   1ad64:	e8 17 d3 fe ff       	callq  8080 <printf@plt>
   1ad69:	83 45 f8 01          	addl   $0x1,-0x8(%rbp)
   1ad6d:	83 7d f8 02          	cmpl   $0x2,-0x8(%rbp)
   1ad71:	7e 83                	jle    1acf6 <main+0xc17>
   1ad73:	83 45 f4 01          	addl   $0x1,-0xc(%rbp)
   1ad77:	83 7d f4 01          	cmpl   $0x1,-0xc(%rbp)
   1ad7b:	0f 8e 6c ff ff ff    	jle    1aced <main+0xc0e>
   1ad81:	83 45 f0 01          	addl   $0x1,-0x10(%rbp)
   1ad85:	83 7d f0 01          	cmpl   $0x1,-0x10(%rbp)
   1ad89:	0f 8e 52 ff ff ff    	jle    1ace1 <main+0xc02>
   1ad8f:	8b 05 13 86 00 00    	mov    0x8613(%rip),%eax        # 233a8 <g_2591>
   1ad95:	48 98                	cltq   
   1ad97:	8b 55 fc             	mov    -0x4(%rbp),%edx
   1ad9a:	48 8d 35 30 43 00 00 	lea    0x4330(%rip),%rsi        # 1f0d1 <g_4277+0x3011>
   1ada1:	48 89 c7             	mov    %rax,%rdi
   1ada4:	e8 4a e9 fe ff       	callq  96f3 <transparent_crc>
   1ada9:	0f b7 05 fc 85 00 00 	movzwl 0x85fc(%rip),%eax        # 233ac <g_2663>
   1adb0:	48 0f bf c0          	movswq %ax,%rax
   1adb4:	8b 55 fc             	mov    -0x4(%rbp),%edx
   1adb7:	48 8d 35 1a 43 00 00 	lea    0x431a(%rip),%rsi        # 1f0d8 <g_4277+0x3018>
   1adbe:	48 89 c7             	mov    %rax,%rdi
   1adc1:	e8 2d e9 fe ff       	callq  96f3 <transparent_crc>
   1adc6:	8b 05 e4 85 00 00    	mov    0x85e4(%rip),%eax        # 233b0 <g_2664>
   1adcc:	89 c1                	mov    %eax,%ecx
   1adce:	8b 45 fc             	mov    -0x4(%rbp),%eax
   1add1:	89 c2                	mov    %eax,%edx
   1add3:	48 8d 35 05 43 00 00 	lea    0x4305(%rip),%rsi        # 1f0df <g_4277+0x301f>
   1adda:	48 89 cf             	mov    %rcx,%rdi
   1addd:	e8 11 e9 fe ff       	callq  96f3 <transparent_crc>
   1ade2:	8b 05 cc 85 00 00    	mov    0x85cc(%rip),%eax        # 233b4 <g_2852>
   1ade8:	89 c1                	mov    %eax,%ecx
   1adea:	8b 45 fc             	mov    -0x4(%rbp),%eax
   1aded:	89 c2                	mov    %eax,%edx
   1adef:	48 8d 35 f0 42 00 00 	lea    0x42f0(%rip),%rsi        # 1f0e6 <g_4277+0x3026>
   1adf6:	48 89 cf             	mov    %rcx,%rdi
   1adf9:	e8 f5 e8 fe ff       	callq  96f3 <transparent_crc>
   1adfe:	8b 05 b4 85 00 00    	mov    0x85b4(%rip),%eax        # 233b8 <g_2892>
   1ae04:	89 c1                	mov    %eax,%ecx
   1ae06:	8b 45 fc             	mov    -0x4(%rbp),%eax
   1ae09:	89 c2                	mov    %eax,%edx
   1ae0b:	48 8d 35 db 42 00 00 	lea    0x42db(%rip),%rsi        # 1f0ed <g_4277+0x302d>
   1ae12:	48 89 cf             	mov    %rcx,%rdi
   1ae15:	e8 d9 e8 fe ff       	callq  96f3 <transparent_crc>
   1ae1a:	c7 45 f0 00 00 00 00 	movl   $0x0,-0x10(%rbp)
   1ae21:	eb 4b                	jmp    1ae6e <main+0xd8f>
   1ae23:	8b 45 f0             	mov    -0x10(%rbp),%eax
   1ae26:	48 98                	cltq   
   1ae28:	48 8d 14 85 00 00 00 	lea    0x0(,%rax,4),%rdx
   1ae2f:	00 
   1ae30:	48 8d 05 89 85 00 00 	lea    0x8589(%rip),%rax        # 233c0 <g_2929>
   1ae37:	8b 04 02             	mov    (%rdx,%rax,1),%eax
   1ae3a:	48 98                	cltq   
   1ae3c:	8b 55 fc             	mov    -0x4(%rbp),%edx
   1ae3f:	48 8d 35 ae 42 00 00 	lea    0x42ae(%rip),%rsi        # 1f0f4 <g_4277+0x3034>
   1ae46:	48 89 c7             	mov    %rax,%rdi
   1ae49:	e8 a5 e8 fe ff       	callq  96f3 <transparent_crc>
   1ae4e:	83 7d fc 00          	cmpl   $0x0,-0x4(%rbp)
   1ae52:	74 16                	je     1ae6a <main+0xd8b>
   1ae54:	8b 45 f0             	mov    -0x10(%rbp),%eax
   1ae57:	89 c6                	mov    %eax,%esi
   1ae59:	48 8d 3d c1 40 00 00 	lea    0x40c1(%rip),%rdi        # 1ef21 <g_4277+0x2e61>
   1ae60:	b8 00 00 00 00       	mov    $0x0,%eax
   1ae65:	e8 16 d2 fe ff       	callq  8080 <printf@plt>
   1ae6a:	83 45 f0 01          	addl   $0x1,-0x10(%rbp)
   1ae6e:	83 7d f0 04          	cmpl   $0x4,-0x10(%rbp)
   1ae72:	7e af                	jle    1ae23 <main+0xd44>
   1ae74:	8b 05 5a 85 00 00    	mov    0x855a(%rip),%eax        # 233d4 <g_2930>
   1ae7a:	48 98                	cltq   
   1ae7c:	8b 55 fc             	mov    -0x4(%rbp),%edx
   1ae7f:	48 8d 35 78 42 00 00 	lea    0x4278(%rip),%rsi        # 1f0fe <g_4277+0x303e>
   1ae86:	48 89 c7             	mov    %rax,%rdi
   1ae89:	e8 65 e8 fe ff       	callq  96f3 <transparent_crc>
   1ae8e:	c7 45 f0 00 00 00 00 	movl   $0x0,-0x10(%rbp)
   1ae95:	eb 4b                	jmp    1aee2 <main+0xe03>
   1ae97:	8b 45 f0             	mov    -0x10(%rbp),%eax
   1ae9a:	48 98                	cltq   
   1ae9c:	48 8d 14 85 00 00 00 	lea    0x0(,%rax,4),%rdx
   1aea3:	00 
   1aea4:	48 8d 05 35 85 00 00 	lea    0x8535(%rip),%rax        # 233e0 <g_2931>
   1aeab:	8b 04 02             	mov    (%rdx,%rax,1),%eax
   1aeae:	48 98                	cltq   
   1aeb0:	8b 55 fc             	mov    -0x4(%rbp),%edx
   1aeb3:	48 8d 35 4b 42 00 00 	lea    0x424b(%rip),%rsi        # 1f105 <g_4277+0x3045>
   1aeba:	48 89 c7             	mov    %rax,%rdi
   1aebd:	e8 31 e8 fe ff       	callq  96f3 <transparent_crc>
   1aec2:	83 7d fc 00          	cmpl   $0x0,-0x4(%rbp)
   1aec6:	74 16                	je     1aede <main+0xdff>
   1aec8:	8b 45 f0             	mov    -0x10(%rbp),%eax
   1aecb:	89 c6                	mov    %eax,%esi
   1aecd:	48 8d 3d 4d 40 00 00 	lea    0x404d(%rip),%rdi        # 1ef21 <g_4277+0x2e61>
   1aed4:	b8 00 00 00 00       	mov    $0x0,%eax
   1aed9:	e8 a2 d1 fe ff       	callq  8080 <printf@plt>
   1aede:	83 45 f0 01          	addl   $0x1,-0x10(%rbp)
   1aee2:	83 7d f0 04          	cmpl   $0x4,-0x10(%rbp)
   1aee6:	7e af                	jle    1ae97 <main+0xdb8>
   1aee8:	c7 45 f0 00 00 00 00 	movl   $0x0,-0x10(%rbp)
   1aeef:	eb 4b                	jmp    1af3c <main+0xe5d>
   1aef1:	8b 45 f0             	mov    -0x10(%rbp),%eax
   1aef4:	48 98                	cltq   
   1aef6:	48 8d 14 85 00 00 00 	lea    0x0(,%rax,4),%rdx
   1aefd:	00 
   1aefe:	48 8d 05 fb 84 00 00 	lea    0x84fb(%rip),%rax        # 23400 <g_2932>
   1af05:	8b 04 02             	mov    (%rdx,%rax,1),%eax
   1af08:	48 98                	cltq   
   1af0a:	8b 55 fc             	mov    -0x4(%rbp),%edx
   1af0d:	48 8d 35 fb 41 00 00 	lea    0x41fb(%rip),%rsi        # 1f10f <g_4277+0x304f>
   1af14:	48 89 c7             	mov    %rax,%rdi
   1af17:	e8 d7 e7 fe ff       	callq  96f3 <transparent_crc>
   1af1c:	83 7d fc 00          	cmpl   $0x0,-0x4(%rbp)
   1af20:	74 16                	je     1af38 <main+0xe59>
   1af22:	8b 45 f0             	mov    -0x10(%rbp),%eax
   1af25:	89 c6                	mov    %eax,%esi
   1af27:	48 8d 3d f3 3f 00 00 	lea    0x3ff3(%rip),%rdi        # 1ef21 <g_4277+0x2e61>
   1af2e:	b8 00 00 00 00       	mov    $0x0,%eax
   1af33:	e8 48 d1 fe ff       	callq  8080 <printf@plt>
   1af38:	83 45 f0 01          	addl   $0x1,-0x10(%rbp)
   1af3c:	83 7d f0 09          	cmpl   $0x9,-0x10(%rbp)
   1af40:	7e af                	jle    1aef1 <main+0xe12>
   1af42:	c7 45 f0 00 00 00 00 	movl   $0x0,-0x10(%rbp)
   1af49:	eb 75                	jmp    1afc0 <main+0xee1>
   1af4b:	c7 45 f4 00 00 00 00 	movl   $0x0,-0xc(%rbp)
   1af52:	eb 62                	jmp    1afb6 <main+0xed7>
   1af54:	8b 45 f4             	mov    -0xc(%rbp),%eax
   1af57:	48 63 c8             	movslq %eax,%rcx
   1af5a:	8b 45 f0             	mov    -0x10(%rbp),%eax
   1af5d:	48 63 d0             	movslq %eax,%rdx
   1af60:	48 89 d0             	mov    %rdx,%rax
   1af63:	48 c1 e0 03          	shl    $0x3,%rax
   1af67:	48 01 d0             	add    %rdx,%rax
   1af6a:	48 01 c8             	add    %rcx,%rax
   1af6d:	48 8d 14 85 00 00 00 	lea    0x0(,%rax,4),%rdx
   1af74:	00 
   1af75:	48 8d 05 c4 84 00 00 	lea    0x84c4(%rip),%rax        # 23440 <g_2933>
   1af7c:	8b 04 02             	mov    (%rdx,%rax,1),%eax
   1af7f:	48 98                	cltq   
   1af81:	8b 55 fc             	mov    -0x4(%rbp),%edx
   1af84:	48 8d 35 8e 41 00 00 	lea    0x418e(%rip),%rsi        # 1f119 <g_4277+0x3059>
   1af8b:	48 89 c7             	mov    %rax,%rdi
   1af8e:	e8 60 e7 fe ff       	callq  96f3 <transparent_crc>
   1af93:	83 7d fc 00          	cmpl   $0x0,-0x4(%rbp)
   1af97:	74 19                	je     1afb2 <main+0xed3>
   1af99:	8b 55 f4             	mov    -0xc(%rbp),%edx
   1af9c:	8b 45 f0             	mov    -0x10(%rbp),%eax
   1af9f:	89 c6                	mov    %eax,%esi
   1afa1:	48 8d 3d 1a 40 00 00 	lea    0x401a(%rip),%rdi        # 1efc2 <g_4277+0x2f02>
   1afa8:	b8 00 00 00 00       	mov    $0x0,%eax
   1afad:	e8 ce d0 fe ff       	callq  8080 <printf@plt>
   1afb2:	83 45 f4 01          	addl   $0x1,-0xc(%rbp)
   1afb6:	83 7d f4 08          	cmpl   $0x8,-0xc(%rbp)
   1afba:	7e 98                	jle    1af54 <main+0xe75>
   1afbc:	83 45 f0 01          	addl   $0x1,-0x10(%rbp)
   1afc0:	83 7d f0 04          	cmpl   $0x4,-0x10(%rbp)
   1afc4:	7e 85                	jle    1af4b <main+0xe6c>
   1afc6:	8b 05 28 85 00 00    	mov    0x8528(%rip),%eax        # 234f4 <g_2934>
   1afcc:	48 98                	cltq   
   1afce:	8b 55 fc             	mov    -0x4(%rbp),%edx
   1afd1:	48 8d 35 4e 41 00 00 	lea    0x414e(%rip),%rsi        # 1f126 <g_4277+0x3066>
   1afd8:	48 89 c7             	mov    %rax,%rdi
   1afdb:	e8 13 e7 fe ff       	callq  96f3 <transparent_crc>
   1afe0:	8b 05 12 85 00 00    	mov    0x8512(%rip),%eax        # 234f8 <g_2935>
   1afe6:	48 98                	cltq   
   1afe8:	8b 55 fc             	mov    -0x4(%rbp),%edx
   1afeb:	48 8d 35 3b 41 00 00 	lea    0x413b(%rip),%rsi        # 1f12d <g_4277+0x306d>
   1aff2:	48 89 c7             	mov    %rax,%rdi
   1aff5:	e8 f9 e6 fe ff       	callq  96f3 <transparent_crc>
   1affa:	0f b7 05 fb 84 00 00 	movzwl 0x84fb(%rip),%eax        # 234fc <g_2943>
   1b001:	0f b7 c0             	movzwl %ax,%eax
   1b004:	8b 55 fc             	mov    -0x4(%rbp),%edx
   1b007:	48 8d 35 26 41 00 00 	lea    0x4126(%rip),%rsi        # 1f134 <g_4277+0x3074>
   1b00e:	48 89 c7             	mov    %rax,%rdi
   1b011:	e8 dd e6 fe ff       	callq  96f3 <transparent_crc>
   1b016:	48 8b 05 e3 84 00 00 	mov    0x84e3(%rip),%rax        # 23500 <g_3045>
   1b01d:	8b 55 fc             	mov    -0x4(%rbp),%edx
   1b020:	48 8d 35 14 41 00 00 	lea    0x4114(%rip),%rsi        # 1f13b <g_4277+0x307b>
   1b027:	48 89 c7             	mov    %rax,%rdi
   1b02a:	e8 c4 e6 fe ff       	callq  96f3 <transparent_crc>
   1b02f:	8b 05 d3 84 00 00    	mov    0x84d3(%rip),%eax        # 23508 <g_3086>
   1b035:	89 c1                	mov    %eax,%ecx
   1b037:	8b 45 fc             	mov    -0x4(%rbp),%eax
   1b03a:	89 c2                	mov    %eax,%edx
   1b03c:	48 8d 35 ff 40 00 00 	lea    0x40ff(%rip),%rsi        # 1f142 <g_4277+0x3082>
   1b043:	48 89 cf             	mov    %rcx,%rdi
   1b046:	e8 a8 e6 fe ff       	callq  96f3 <transparent_crc>
   1b04b:	b8 00 00 00 00       	mov    $0x0,%eax
   1b050:	89 c1                	mov    %eax,%ecx
   1b052:	8b 45 fc             	mov    -0x4(%rbp),%eax
   1b055:	89 c2                	mov    %eax,%edx
   1b057:	48 8d 35 eb 40 00 00 	lea    0x40eb(%rip),%rsi        # 1f149 <g_4277+0x3089>
   1b05e:	48 89 cf             	mov    %rcx,%rdi
   1b061:	e8 8d e6 fe ff       	callq  96f3 <transparent_crc>
   1b066:	c7 45 f0 00 00 00 00 	movl   $0x0,-0x10(%rbp)
   1b06d:	eb 4a                	jmp    1b0b9 <main+0xfda>
   1b06f:	8b 45 f0             	mov    -0x10(%rbp),%eax
   1b072:	48 98                	cltq   
   1b074:	48 8d 14 c5 00 00 00 	lea    0x0(,%rax,8),%rdx
   1b07b:	00 
   1b07c:	48 8d 05 bd b5 00 00 	lea    0xb5bd(%rip),%rax        # 26640 <g_3146>
   1b083:	48 8b 04 02          	mov    (%rdx,%rax,1),%rax
   1b087:	8b 55 fc             	mov    -0x4(%rbp),%edx
   1b08a:	48 8d 35 bf 40 00 00 	lea    0x40bf(%rip),%rsi        # 1f150 <g_4277+0x3090>
   1b091:	48 89 c7             	mov    %rax,%rdi
   1b094:	e8 5a e6 fe ff       	callq  96f3 <transparent_crc>
   1b099:	83 7d fc 00          	cmpl   $0x0,-0x4(%rbp)
   1b09d:	74 16                	je     1b0b5 <main+0xfd6>
   1b09f:	8b 45 f0             	mov    -0x10(%rbp),%eax
   1b0a2:	89 c6                	mov    %eax,%esi
   1b0a4:	48 8d 3d 76 3e 00 00 	lea    0x3e76(%rip),%rdi        # 1ef21 <g_4277+0x2e61>
   1b0ab:	b8 00 00 00 00       	mov    $0x0,%eax
   1b0b0:	e8 cb cf fe ff       	callq  8080 <printf@plt>
   1b0b5:	83 45 f0 01          	addl   $0x1,-0x10(%rbp)
   1b0b9:	83 7d f0 05          	cmpl   $0x5,-0x10(%rbp)
   1b0bd:	7e b0                	jle    1b06f <main+0xf90>
   1b0bf:	c7 45 f0 00 00 00 00 	movl   $0x0,-0x10(%rbp)
   1b0c6:	eb 4a                	jmp    1b112 <main+0x1033>
   1b0c8:	8b 45 f0             	mov    -0x10(%rbp),%eax
   1b0cb:	48 98                	cltq   
   1b0cd:	48 8d 14 c5 00 00 00 	lea    0x0(,%rax,8),%rdx
   1b0d4:	00 
   1b0d5:	48 8d 05 44 84 00 00 	lea    0x8444(%rip),%rax        # 23520 <g_3407>
   1b0dc:	48 8b 04 02          	mov    (%rdx,%rax,1),%rax
   1b0e0:	8b 55 fc             	mov    -0x4(%rbp),%edx
   1b0e3:	48 8d 35 70 40 00 00 	lea    0x4070(%rip),%rsi        # 1f15a <g_4277+0x309a>
   1b0ea:	48 89 c7             	mov    %rax,%rdi
   1b0ed:	e8 01 e6 fe ff       	callq  96f3 <transparent_crc>
   1b0f2:	83 7d fc 00          	cmpl   $0x0,-0x4(%rbp)
   1b0f6:	74 16                	je     1b10e <main+0x102f>
   1b0f8:	8b 45 f0             	mov    -0x10(%rbp),%eax
   1b0fb:	89 c6                	mov    %eax,%esi
   1b0fd:	48 8d 3d 1d 3e 00 00 	lea    0x3e1d(%rip),%rdi        # 1ef21 <g_4277+0x2e61>
   1b104:	b8 00 00 00 00       	mov    $0x0,%eax
   1b109:	e8 72 cf fe ff       	callq  8080 <printf@plt>
   1b10e:	83 45 f0 01          	addl   $0x1,-0x10(%rbp)
   1b112:	83 7d f0 03          	cmpl   $0x3,-0x10(%rbp)
   1b116:	7e b0                	jle    1b0c8 <main+0xfe9>
   1b118:	8b 05 22 84 00 00    	mov    0x8422(%rip),%eax        # 23540 <g_3442>
   1b11e:	89 c1                	mov    %eax,%ecx
   1b120:	8b 45 fc             	mov    -0x4(%rbp),%eax
   1b123:	89 c2                	mov    %eax,%edx
   1b125:	48 8d 35 38 40 00 00 	lea    0x4038(%rip),%rsi        # 1f164 <g_4277+0x30a4>
   1b12c:	48 89 cf             	mov    %rcx,%rdi
   1b12f:	e8 bf e5 fe ff       	callq  96f3 <transparent_crc>
   1b134:	0f b6 05 3d b5 00 00 	movzbl 0xb53d(%rip),%eax        # 26678 <g_3791>
   1b13b:	0f b6 c0             	movzbl %al,%eax
   1b13e:	8b 55 fc             	mov    -0x4(%rbp),%edx
   1b141:	48 8d 35 23 40 00 00 	lea    0x4023(%rip),%rsi        # 1f16b <g_4277+0x30ab>
   1b148:	48 89 c7             	mov    %rax,%rdi
   1b14b:	e8 a3 e5 fe ff       	callq  96f3 <transparent_crc>
   1b150:	48 8b 05 f1 83 00 00 	mov    0x83f1(%rip),%rax        # 23548 <g_3796>
   1b157:	8b 55 fc             	mov    -0x4(%rbp),%edx
   1b15a:	48 8d 35 11 40 00 00 	lea    0x4011(%rip),%rsi        # 1f172 <g_4277+0x30b2>
   1b161:	48 89 c7             	mov    %rax,%rdi
   1b164:	e8 8a e5 fe ff       	callq  96f3 <transparent_crc>
   1b169:	8b 05 e1 83 00 00    	mov    0x83e1(%rip),%eax        # 23550 <g_4141>
   1b16f:	89 c1                	mov    %eax,%ecx
   1b171:	8b 45 fc             	mov    -0x4(%rbp),%eax
   1b174:	89 c2                	mov    %eax,%edx
   1b176:	48 8d 35 fc 3f 00 00 	lea    0x3ffc(%rip),%rsi        # 1f179 <g_4277+0x30b9>
   1b17d:	48 89 cf             	mov    %rcx,%rdi
   1b180:	e8 6e e5 fe ff       	callq  96f3 <transparent_crc>
   1b185:	c7 45 f0 00 00 00 00 	movl   $0x0,-0x10(%rbp)
   1b18c:	eb 4a                	jmp    1b1d8 <main+0x10f9>
   1b18e:	8b 45 f0             	mov    -0x10(%rbp),%eax
   1b191:	48 98                	cltq   
   1b193:	48 8d 14 c5 00 00 00 	lea    0x0(,%rax,8),%rdx
   1b19a:	00 
   1b19b:	48 8d 05 1e 0f 00 00 	lea    0xf1e(%rip),%rax        # 1c0c0 <g_4277>
   1b1a2:	48 8b 04 02          	mov    (%rdx,%rax,1),%rax
   1b1a6:	8b 55 fc             	mov    -0x4(%rbp),%edx
   1b1a9:	48 8d 35 d0 3f 00 00 	lea    0x3fd0(%rip),%rsi        # 1f180 <g_4277+0x30c0>
   1b1b0:	48 89 c7             	mov    %rax,%rdi
   1b1b3:	e8 3b e5 fe ff       	callq  96f3 <transparent_crc>
   1b1b8:	83 7d fc 00          	cmpl   $0x0,-0x4(%rbp)
   1b1bc:	74 16                	je     1b1d4 <main+0x10f5>
   1b1be:	8b 45 f0             	mov    -0x10(%rbp),%eax
   1b1c1:	89 c6                	mov    %eax,%esi
   1b1c3:	48 8d 3d 57 3d 00 00 	lea    0x3d57(%rip),%rdi        # 1ef21 <g_4277+0x2e61>
   1b1ca:	b8 00 00 00 00       	mov    $0x0,%eax
   1b1cf:	e8 ac ce fe ff       	callq  8080 <printf@plt>
   1b1d4:	83 45 f0 01          	addl   $0x1,-0x10(%rbp)
   1b1d8:	83 7d f0 04          	cmpl   $0x4,-0x10(%rbp)
   1b1dc:	7e b0                	jle    1b18e <main+0x10af>
   1b1de:	8b 05 70 83 00 00    	mov    0x8370(%rip),%eax        # 23554 <g_4416>
   1b1e4:	48 98                	cltq   
   1b1e6:	8b 55 fc             	mov    -0x4(%rbp),%edx
   1b1e9:	48 8d 35 9a 3f 00 00 	lea    0x3f9a(%rip),%rsi        # 1f18a <g_4277+0x30ca>
   1b1f0:	48 89 c7             	mov    %rax,%rdi
   1b1f3:	e8 fb e4 fe ff       	callq  96f3 <transparent_crc>
   1b1f8:	c7 45 f0 00 00 00 00 	movl   $0x0,-0x10(%rbp)
   1b1ff:	eb 4b                	jmp    1b24c <main+0x116d>
   1b201:	8b 45 f0             	mov    -0x10(%rbp),%eax
   1b204:	48 98                	cltq   
   1b206:	48 8d 14 85 00 00 00 	lea    0x0(,%rax,4),%rdx
   1b20d:	00 
   1b20e:	48 8d 05 43 83 00 00 	lea    0x8343(%rip),%rax        # 23558 <g_4552>
   1b215:	8b 04 02             	mov    (%rdx,%rax,1),%eax
   1b218:	48 98                	cltq   
   1b21a:	8b 55 fc             	mov    -0x4(%rbp),%edx
   1b21d:	48 8d 35 6d 3f 00 00 	lea    0x3f6d(%rip),%rsi        # 1f191 <g_4277+0x30d1>
   1b224:	48 89 c7             	mov    %rax,%rdi
   1b227:	e8 c7 e4 fe ff       	callq  96f3 <transparent_crc>
   1b22c:	83 7d fc 00          	cmpl   $0x0,-0x4(%rbp)
   1b230:	74 16                	je     1b248 <main+0x1169>
   1b232:	8b 45 f0             	mov    -0x10(%rbp),%eax
   1b235:	89 c6                	mov    %eax,%esi
   1b237:	48 8d 3d e3 3c 00 00 	lea    0x3ce3(%rip),%rdi        # 1ef21 <g_4277+0x2e61>
   1b23e:	b8 00 00 00 00       	mov    $0x0,%eax
   1b243:	e8 38 ce fe ff       	callq  8080 <printf@plt>
   1b248:	83 45 f0 01          	addl   $0x1,-0x10(%rbp)
   1b24c:	83 7d f0 00          	cmpl   $0x0,-0x10(%rbp)
   1b250:	7e af                	jle    1b201 <main+0x1122>
   1b252:	0f b7 05 03 83 00 00 	movzwl 0x8303(%rip),%eax        # 2355c <g_4599>
   1b259:	48 0f bf c0          	movswq %ax,%rax
   1b25d:	8b 55 fc             	mov    -0x4(%rbp),%edx
   1b260:	48 8d 35 34 3f 00 00 	lea    0x3f34(%rip),%rsi        # 1f19b <g_4277+0x30db>
   1b267:	48 89 c7             	mov    %rax,%rdi
   1b26a:	e8 84 e4 fe ff       	callq  96f3 <transparent_crc>
   1b26f:	0f b7 05 e8 82 00 00 	movzwl 0x82e8(%rip),%eax        # 2355e <g_4621>
   1b276:	0f b7 c0             	movzwl %ax,%eax
   1b279:	8b 55 fc             	mov    -0x4(%rbp),%edx
   1b27c:	48 8d 35 1f 3f 00 00 	lea    0x3f1f(%rip),%rsi        # 1f1a2 <g_4277+0x30e2>
   1b283:	48 89 c7             	mov    %rax,%rdi
   1b286:	e8 68 e4 fe ff       	callq  96f3 <transparent_crc>
   1b28b:	8b 05 8f 6d 00 00    	mov    0x6d8f(%rip),%eax        # 22020 <crc32_context>
   1b291:	f7 d0                	not    %eax
   1b293:	89 c2                	mov    %eax,%edx
   1b295:	8b 45 fc             	mov    -0x4(%rbp),%eax
   1b298:	89 c6                	mov    %eax,%esi
   1b29a:	89 d7                	mov    %edx,%edi
   1b29c:	e8 f3 ce fe ff       	callq  8194 <platform_main_end>
   1b2a1:	b8 00 00 00 00       	mov    $0x0,%eax
   1b2a6:	c9                   	leaveq 
   1b2a7:	c3                   	retq   
   1b2a8:	0f 1f 84 00 00 00 00 	nopl   0x0(%rax,%rax,1)
   1b2af:	00 

000000000001b2b0 <__libc_csu_init>:
   1b2b0:	f3 0f 1e fa          	endbr64 
   1b2b4:	41 57                	push   %r15
   1b2b6:	4c 8d 3d b3 69 00 00 	lea    0x69b3(%rip),%r15        # 21c70 <__frame_dummy_init_array_entry>
   1b2bd:	41 56                	push   %r14
   1b2bf:	49 89 d6             	mov    %rdx,%r14
   1b2c2:	41 55                	push   %r13
   1b2c4:	49 89 f5             	mov    %rsi,%r13
   1b2c7:	41 54                	push   %r12
   1b2c9:	41 89 fc             	mov    %edi,%r12d
   1b2cc:	55                   	push   %rbp
   1b2cd:	48 8d 2d a4 69 00 00 	lea    0x69a4(%rip),%rbp        # 21c78 <__do_global_dtors_aux_fini_array_entry>
   1b2d4:	53                   	push   %rbx
   1b2d5:	4c 29 fd             	sub    %r15,%rbp
   1b2d8:	48 83 ec 08          	sub    $0x8,%rsp
   1b2dc:	e8 1f cd fe ff       	callq  8000 <_init>
   1b2e1:	48 c1 fd 03          	sar    $0x3,%rbp
   1b2e5:	74 1f                	je     1b306 <__libc_csu_init+0x56>
   1b2e7:	31 db                	xor    %ebx,%ebx
   1b2e9:	0f 1f 80 00 00 00 00 	nopl   0x0(%rax)
   1b2f0:	4c 89 f2             	mov    %r14,%rdx
   1b2f3:	4c 89 ee             	mov    %r13,%rsi
   1b2f6:	44 89 e7             	mov    %r12d,%edi
   1b2f9:	41 ff 14 df          	callq  *(%r15,%rbx,8)
   1b2fd:	48 83 c3 01          	add    $0x1,%rbx
   1b301:	48 39 dd             	cmp    %rbx,%rbp
   1b304:	75 ea                	jne    1b2f0 <__libc_csu_init+0x40>
   1b306:	48 83 c4 08          	add    $0x8,%rsp
   1b30a:	5b                   	pop    %rbx
   1b30b:	5d                   	pop    %rbp
   1b30c:	41 5c                	pop    %r12
   1b30e:	41 5d                	pop    %r13
   1b310:	41 5e                	pop    %r14
   1b312:	41 5f                	pop    %r15
   1b314:	c3                   	retq   
   1b315:	66 66 2e 0f 1f 84 00 	data16 nopw %cs:0x0(%rax,%rax,1)
   1b31c:	00 00 00 00 

000000000001b320 <__libc_csu_fini>:
   1b320:	f3 0f 1e fa          	endbr64 
   1b324:	c3                   	retq   
