


Disassembly of section .text:

00000000000070a0 <_start>:
    70a0:	f3 0f 1e fa          	endbr64 
    70a4:	31 ed                	xor    %ebp,%ebp
    70a6:	49 89 d1             	mov    %rdx,%r9
    70a9:	5e                   	pop    %rsi
    70aa:	48 89 e2             	mov    %rsp,%rdx
    70ad:	48 83 e4 f0          	and    $0xfffffffffffffff0,%rsp
    70b1:	50                   	push   %rax
    70b2:	54                   	push   %rsp
    70b3:	4c 8d 05 26 dc 00 00 	lea    0xdc26(%rip),%r8        # 14ce0 <__libc_csu_fini>
    70ba:	48 8d 0d af db 00 00 	lea    0xdbaf(%rip),%rcx        # 14c70 <__libc_csu_init>
    70c1:	48 8d 3d 77 c5 00 00 	lea    0xc577(%rip),%rdi        # 1363f <main>
    70c8:	ff 15 0a 1f 01 00    	callq  *0x11f0a(%rip)        # 18fd8 <__libc_start_main@GLIBC_2.2.5>
    70ce:	f4                   	hlt    
    70cf:	90                   	nop

00000000000070d0 <deregister_tm_clones>:
    70d0:	48 8d 3d 49 4f 01 00 	lea    0x14f49(%rip),%rdi        # 1c020 <__TMC_END__>
    70d7:	48 8d 05 42 4f 01 00 	lea    0x14f42(%rip),%rax        # 1c020 <__TMC_END__>
    70de:	48 39 f8             	cmp    %rdi,%rax
    70e1:	74 15                	je     70f8 <deregister_tm_clones+0x28>
    70e3:	48 8b 05 e6 1e 01 00 	mov    0x11ee6(%rip),%rax        # 18fd0 <_ITM_deregisterTMCloneTable>
    70ea:	48 85 c0             	test   %rax,%rax
    70ed:	74 09                	je     70f8 <deregister_tm_clones+0x28>
    70ef:	ff e0                	jmpq   *%rax
    70f1:	0f 1f 80 00 00 00 00 	nopl   0x0(%rax)
    70f8:	c3                   	retq   
    70f9:	0f 1f 80 00 00 00 00 	nopl   0x0(%rax)

0000000000007100 <register_tm_clones>:
    7100:	48 8d 3d 19 4f 01 00 	lea    0x14f19(%rip),%rdi        # 1c020 <__TMC_END__>
    7107:	48 8d 35 12 4f 01 00 	lea    0x14f12(%rip),%rsi        # 1c020 <__TMC_END__>
    710e:	48 29 fe             	sub    %rdi,%rsi
    7111:	48 89 f0             	mov    %rsi,%rax
    7114:	48 c1 ee 3f          	shr    $0x3f,%rsi
    7118:	48 c1 f8 03          	sar    $0x3,%rax
    711c:	48 01 c6             	add    %rax,%rsi
    711f:	48 d1 fe             	sar    %rsi
    7122:	74 14                	je     7138 <register_tm_clones+0x38>
    7124:	48 8b 05 bd 1e 01 00 	mov    0x11ebd(%rip),%rax        # 18fe8 <_ITM_registerTMCloneTable>
    712b:	48 85 c0             	test   %rax,%rax
    712e:	74 08                	je     7138 <register_tm_clones+0x38>
    7130:	ff e0                	jmpq   *%rax
    7132:	66 0f 1f 44 00 00    	nopw   0x0(%rax,%rax,1)
    7138:	c3                   	retq   
    7139:	0f 1f 80 00 00 00 00 	nopl   0x0(%rax)

0000000000007140 <__do_global_dtors_aux>:
    7140:	f3 0f 1e fa          	endbr64 
    7144:	80 3d d5 4e 01 00 00 	cmpb   $0x0,0x14ed5(%rip)        # 1c020 <__TMC_END__>
    714b:	75 2b                	jne    7178 <__do_global_dtors_aux+0x38>
    714d:	55                   	push   %rbp
    714e:	48 83 3d 9a 1e 01 00 	cmpq   $0x0,0x11e9a(%rip)        # 18ff0 <__cxa_finalize@GLIBC_2.2.5>
    7155:	00 
    7156:	48 89 e5             	mov    %rsp,%rbp
    7159:	74 0c                	je     7167 <__do_global_dtors_aux+0x27>
    715b:	48 8b 3d a6 1e 01 00 	mov    0x11ea6(%rip),%rdi        # 19008 <__dso_handle>
    7162:	e8 f9 fe ff ff       	callq  7060 <__cxa_finalize@plt>
    7167:	e8 64 ff ff ff       	callq  70d0 <deregister_tm_clones>
    716c:	c6 05 ad 4e 01 00 01 	movb   $0x1,0x14ead(%rip)        # 1c020 <__TMC_END__>
    7173:	5d                   	pop    %rbp
    7174:	c3                   	retq   
    7175:	0f 1f 00             	nopl   (%rax)
    7178:	c3                   	retq   
    7179:	0f 1f 80 00 00 00 00 	nopl   0x0(%rax)

0000000000007180 <frame_dummy>:
    7180:	f3 0f 1e fa          	endbr64 
    7184:	e9 77 ff ff ff       	jmpq   7100 <register_tm_clones>

0000000000007189 <platform_main_begin>:
    7189:	f3 0f 1e fa          	endbr64 
    718d:	55                   	push   %rbp
    718e:	48 89 e5             	mov    %rsp,%rbp
    7191:	90                   	nop
    7192:	5d                   	pop    %rbp
    7193:	c3                   	retq   

0000000000007194 <platform_main_end>:
    7194:	f3 0f 1e fa          	endbr64 
    7198:	55                   	push   %rbp
    7199:	48 89 e5             	mov    %rsp,%rbp
    719c:	48 83 ec 10          	sub    $0x10,%rsp
    71a0:	89 7d fc             	mov    %edi,-0x4(%rbp)
    71a3:	89 75 f8             	mov    %esi,-0x8(%rbp)
    71a6:	8b 45 fc             	mov    -0x4(%rbp),%eax
    71a9:	89 c6                	mov    %eax,%esi
    71ab:	48 8d 3d 6e de 00 00 	lea    0xde6e(%rip),%rdi        # 15020 <_IO_stdin_used+0x20>
    71b2:	b8 00 00 00 00       	mov    $0x0,%eax
    71b7:	e8 c4 fe ff ff       	callq  7080 <printf@plt>
    71bc:	90                   	nop
    71bd:	c9                   	leaveq 
    71be:	c3                   	retq   

00000000000071bf <safe_unary_minus_func_int8_t_s>:
    71bf:	f3 0f 1e fa          	endbr64 
    71c3:	55                   	push   %rbp
    71c4:	48 89 e5             	mov    %rsp,%rbp
    71c7:	89 f8                	mov    %edi,%eax
    71c9:	88 45 fc             	mov    %al,-0x4(%rbp)
    71cc:	0f b6 45 fc          	movzbl -0x4(%rbp),%eax
    71d0:	f7 d8                	neg    %eax
    71d2:	5d                   	pop    %rbp
    71d3:	c3                   	retq   

00000000000071d4 <safe_add_func_int8_t_s_s>:
    71d4:	f3 0f 1e fa          	endbr64 
    71d8:	55                   	push   %rbp
    71d9:	48 89 e5             	mov    %rsp,%rbp
    71dc:	89 fa                	mov    %edi,%edx
    71de:	89 f0                	mov    %esi,%eax
    71e0:	88 55 fc             	mov    %dl,-0x4(%rbp)
    71e3:	88 45 f8             	mov    %al,-0x8(%rbp)
    71e6:	0f b6 55 fc          	movzbl -0x4(%rbp),%edx
    71ea:	0f b6 45 f8          	movzbl -0x8(%rbp),%eax
    71ee:	01 d0                	add    %edx,%eax
    71f0:	5d                   	pop    %rbp
    71f1:	c3                   	retq   

00000000000071f2 <safe_sub_func_int8_t_s_s>:
    71f2:	f3 0f 1e fa          	endbr64 
    71f6:	55                   	push   %rbp
    71f7:	48 89 e5             	mov    %rsp,%rbp
    71fa:	89 fa                	mov    %edi,%edx
    71fc:	89 f0                	mov    %esi,%eax
    71fe:	88 55 fc             	mov    %dl,-0x4(%rbp)
    7201:	88 45 f8             	mov    %al,-0x8(%rbp)
    7204:	0f b6 55 fc          	movzbl -0x4(%rbp),%edx
    7208:	0f b6 45 f8          	movzbl -0x8(%rbp),%eax
    720c:	29 c2                	sub    %eax,%edx
    720e:	89 d0                	mov    %edx,%eax
    7210:	5d                   	pop    %rbp
    7211:	c3                   	retq   

0000000000007212 <safe_mul_func_int8_t_s_s>:
    7212:	f3 0f 1e fa          	endbr64 
    7216:	55                   	push   %rbp
    7217:	48 89 e5             	mov    %rsp,%rbp
    721a:	89 fa                	mov    %edi,%edx
    721c:	89 f0                	mov    %esi,%eax
    721e:	88 55 fc             	mov    %dl,-0x4(%rbp)
    7221:	88 45 f8             	mov    %al,-0x8(%rbp)
    7224:	0f b6 45 fc          	movzbl -0x4(%rbp),%eax
    7228:	0f b6 55 f8          	movzbl -0x8(%rbp),%edx
    722c:	0f af c2             	imul   %edx,%eax
    722f:	5d                   	pop    %rbp
    7230:	c3                   	retq   

0000000000007231 <safe_mod_func_int8_t_s_s>:
    7231:	f3 0f 1e fa          	endbr64 
    7235:	55                   	push   %rbp
    7236:	48 89 e5             	mov    %rsp,%rbp
    7239:	89 fa                	mov    %edi,%edx
    723b:	89 f0                	mov    %esi,%eax
    723d:	88 55 fc             	mov    %dl,-0x4(%rbp)
    7240:	88 45 f8             	mov    %al,-0x8(%rbp)
    7243:	80 7d f8 00          	cmpb   $0x0,-0x8(%rbp)
    7247:	74 1b                	je     7264 <safe_mod_func_int8_t_s_s+0x33>
    7249:	80 7d fc 80          	cmpb   $0x80,-0x4(%rbp)
    724d:	75 06                	jne    7255 <safe_mod_func_int8_t_s_s+0x24>
    724f:	80 7d f8 ff          	cmpb   $0xff,-0x8(%rbp)
    7253:	74 0f                	je     7264 <safe_mod_func_int8_t_s_s+0x33>
    7255:	0f be 45 fc          	movsbl -0x4(%rbp),%eax
    7259:	0f be 4d f8          	movsbl -0x8(%rbp),%ecx
    725d:	99                   	cltd   
    725e:	f7 f9                	idiv   %ecx
    7260:	89 d0                	mov    %edx,%eax
    7262:	eb 04                	jmp    7268 <safe_mod_func_int8_t_s_s+0x37>
    7264:	0f b6 45 fc          	movzbl -0x4(%rbp),%eax
    7268:	5d                   	pop    %rbp
    7269:	c3                   	retq   

000000000000726a <safe_div_func_int8_t_s_s>:
    726a:	f3 0f 1e fa          	endbr64 
    726e:	55                   	push   %rbp
    726f:	48 89 e5             	mov    %rsp,%rbp
    7272:	89 fa                	mov    %edi,%edx
    7274:	89 f0                	mov    %esi,%eax
    7276:	88 55 fc             	mov    %dl,-0x4(%rbp)
    7279:	88 45 f8             	mov    %al,-0x8(%rbp)
    727c:	80 7d f8 00          	cmpb   $0x0,-0x8(%rbp)
    7280:	74 19                	je     729b <safe_div_func_int8_t_s_s+0x31>
    7282:	80 7d fc 80          	cmpb   $0x80,-0x4(%rbp)
    7286:	75 06                	jne    728e <safe_div_func_int8_t_s_s+0x24>
    7288:	80 7d f8 ff          	cmpb   $0xff,-0x8(%rbp)
    728c:	74 0d                	je     729b <safe_div_func_int8_t_s_s+0x31>
    728e:	0f be 45 fc          	movsbl -0x4(%rbp),%eax
    7292:	0f be 4d f8          	movsbl -0x8(%rbp),%ecx
    7296:	99                   	cltd   
    7297:	f7 f9                	idiv   %ecx
    7299:	eb 04                	jmp    729f <safe_div_func_int8_t_s_s+0x35>
    729b:	0f b6 45 fc          	movzbl -0x4(%rbp),%eax
    729f:	5d                   	pop    %rbp
    72a0:	c3                   	retq   

00000000000072a1 <safe_lshift_func_int8_t_s_s>:
    72a1:	f3 0f 1e fa          	endbr64 
    72a5:	55                   	push   %rbp
    72a6:	48 89 e5             	mov    %rsp,%rbp
    72a9:	89 f8                	mov    %edi,%eax
    72ab:	89 75 f8             	mov    %esi,-0x8(%rbp)
    72ae:	88 45 fc             	mov    %al,-0x4(%rbp)
    72b1:	80 7d fc 00          	cmpb   $0x0,-0x4(%rbp)
    72b5:	78 31                	js     72e8 <safe_lshift_func_int8_t_s_s+0x47>
    72b7:	83 7d f8 00          	cmpl   $0x0,-0x8(%rbp)
    72bb:	78 2b                	js     72e8 <safe_lshift_func_int8_t_s_s+0x47>
    72bd:	83 7d f8 1f          	cmpl   $0x1f,-0x8(%rbp)
    72c1:	7f 25                	jg     72e8 <safe_lshift_func_int8_t_s_s+0x47>
    72c3:	0f be 55 fc          	movsbl -0x4(%rbp),%edx
    72c7:	8b 45 f8             	mov    -0x8(%rbp),%eax
    72ca:	be 7f 00 00 00       	mov    $0x7f,%esi
    72cf:	89 c1                	mov    %eax,%ecx
    72d1:	d3 fe                	sar    %cl,%esi
    72d3:	89 f0                	mov    %esi,%eax
    72d5:	39 c2                	cmp    %eax,%edx
    72d7:	7f 0f                	jg     72e8 <safe_lshift_func_int8_t_s_s+0x47>
    72d9:	0f be 55 fc          	movsbl -0x4(%rbp),%edx
    72dd:	8b 45 f8             	mov    -0x8(%rbp),%eax
    72e0:	89 c1                	mov    %eax,%ecx
    72e2:	d3 e2                	shl    %cl,%edx
    72e4:	89 d0                	mov    %edx,%eax
    72e6:	eb 04                	jmp    72ec <safe_lshift_func_int8_t_s_s+0x4b>
    72e8:	0f b6 45 fc          	movzbl -0x4(%rbp),%eax
    72ec:	5d                   	pop    %rbp
    72ed:	c3                   	retq   

00000000000072ee <safe_lshift_func_int8_t_s_u>:
    72ee:	f3 0f 1e fa          	endbr64 
    72f2:	55                   	push   %rbp
    72f3:	48 89 e5             	mov    %rsp,%rbp
    72f6:	89 f8                	mov    %edi,%eax
    72f8:	89 75 f8             	mov    %esi,-0x8(%rbp)
    72fb:	88 45 fc             	mov    %al,-0x4(%rbp)
    72fe:	80 7d fc 00          	cmpb   $0x0,-0x4(%rbp)
    7302:	78 2b                	js     732f <safe_lshift_func_int8_t_s_u+0x41>
    7304:	83 7d f8 1f          	cmpl   $0x1f,-0x8(%rbp)
    7308:	77 25                	ja     732f <safe_lshift_func_int8_t_s_u+0x41>
    730a:	0f be 55 fc          	movsbl -0x4(%rbp),%edx
    730e:	8b 45 f8             	mov    -0x8(%rbp),%eax
    7311:	be 7f 00 00 00       	mov    $0x7f,%esi
    7316:	89 c1                	mov    %eax,%ecx
    7318:	d3 fe                	sar    %cl,%esi
    731a:	89 f0                	mov    %esi,%eax
    731c:	39 c2                	cmp    %eax,%edx
    731e:	7f 0f                	jg     732f <safe_lshift_func_int8_t_s_u+0x41>
    7320:	0f be 55 fc          	movsbl -0x4(%rbp),%edx
    7324:	8b 45 f8             	mov    -0x8(%rbp),%eax
    7327:	89 c1                	mov    %eax,%ecx
    7329:	d3 e2                	shl    %cl,%edx
    732b:	89 d0                	mov    %edx,%eax
    732d:	eb 04                	jmp    7333 <safe_lshift_func_int8_t_s_u+0x45>
    732f:	0f b6 45 fc          	movzbl -0x4(%rbp),%eax
    7333:	5d                   	pop    %rbp
    7334:	c3                   	retq   

0000000000007335 <safe_rshift_func_int8_t_s_s>:
    7335:	f3 0f 1e fa          	endbr64 
    7339:	55                   	push   %rbp
    733a:	48 89 e5             	mov    %rsp,%rbp
    733d:	89 f8                	mov    %edi,%eax
    733f:	89 75 f8             	mov    %esi,-0x8(%rbp)
    7342:	88 45 fc             	mov    %al,-0x4(%rbp)
    7345:	80 7d fc 00          	cmpb   $0x0,-0x4(%rbp)
    7349:	78 1b                	js     7366 <safe_rshift_func_int8_t_s_s+0x31>
    734b:	83 7d f8 00          	cmpl   $0x0,-0x8(%rbp)
    734f:	78 15                	js     7366 <safe_rshift_func_int8_t_s_s+0x31>
    7351:	83 7d f8 1f          	cmpl   $0x1f,-0x8(%rbp)
    7355:	7f 0f                	jg     7366 <safe_rshift_func_int8_t_s_s+0x31>
    7357:	0f be 55 fc          	movsbl -0x4(%rbp),%edx
    735b:	8b 45 f8             	mov    -0x8(%rbp),%eax
    735e:	89 c1                	mov    %eax,%ecx
    7360:	d3 fa                	sar    %cl,%edx
    7362:	89 d0                	mov    %edx,%eax
    7364:	eb 04                	jmp    736a <safe_rshift_func_int8_t_s_s+0x35>
    7366:	0f b6 45 fc          	movzbl -0x4(%rbp),%eax
    736a:	5d                   	pop    %rbp
    736b:	c3                   	retq   

000000000000736c <safe_rshift_func_int8_t_s_u>:
    736c:	f3 0f 1e fa          	endbr64 
    7370:	55                   	push   %rbp
    7371:	48 89 e5             	mov    %rsp,%rbp
    7374:	89 f8                	mov    %edi,%eax
    7376:	89 75 f8             	mov    %esi,-0x8(%rbp)
    7379:	88 45 fc             	mov    %al,-0x4(%rbp)
    737c:	80 7d fc 00          	cmpb   $0x0,-0x4(%rbp)
    7380:	78 15                	js     7397 <safe_rshift_func_int8_t_s_u+0x2b>
    7382:	83 7d f8 1f          	cmpl   $0x1f,-0x8(%rbp)
    7386:	77 0f                	ja     7397 <safe_rshift_func_int8_t_s_u+0x2b>
    7388:	0f be 55 fc          	movsbl -0x4(%rbp),%edx
    738c:	8b 45 f8             	mov    -0x8(%rbp),%eax
    738f:	89 c1                	mov    %eax,%ecx
    7391:	d3 fa                	sar    %cl,%edx
    7393:	89 d0                	mov    %edx,%eax
    7395:	eb 04                	jmp    739b <safe_rshift_func_int8_t_s_u+0x2f>
    7397:	0f b6 45 fc          	movzbl -0x4(%rbp),%eax
    739b:	5d                   	pop    %rbp
    739c:	c3                   	retq   

000000000000739d <safe_unary_minus_func_int16_t_s>:
    739d:	f3 0f 1e fa          	endbr64 
    73a1:	55                   	push   %rbp
    73a2:	48 89 e5             	mov    %rsp,%rbp
    73a5:	89 f8                	mov    %edi,%eax
    73a7:	66 89 45 fc          	mov    %ax,-0x4(%rbp)
    73ab:	0f b7 45 fc          	movzwl -0x4(%rbp),%eax
    73af:	f7 d8                	neg    %eax
    73b1:	5d                   	pop    %rbp
    73b2:	c3                   	retq   

00000000000073b3 <safe_add_func_int16_t_s_s>:
    73b3:	f3 0f 1e fa          	endbr64 
    73b7:	55                   	push   %rbp
    73b8:	48 89 e5             	mov    %rsp,%rbp
    73bb:	89 fa                	mov    %edi,%edx
    73bd:	89 f0                	mov    %esi,%eax
    73bf:	66 89 55 fc          	mov    %dx,-0x4(%rbp)
    73c3:	66 89 45 f8          	mov    %ax,-0x8(%rbp)
    73c7:	0f b7 55 fc          	movzwl -0x4(%rbp),%edx
    73cb:	0f b7 45 f8          	movzwl -0x8(%rbp),%eax
    73cf:	01 d0                	add    %edx,%eax
    73d1:	5d                   	pop    %rbp
    73d2:	c3                   	retq   

00000000000073d3 <safe_sub_func_int16_t_s_s>:
    73d3:	f3 0f 1e fa          	endbr64 
    73d7:	55                   	push   %rbp
    73d8:	48 89 e5             	mov    %rsp,%rbp
    73db:	89 fa                	mov    %edi,%edx
    73dd:	89 f0                	mov    %esi,%eax
    73df:	66 89 55 fc          	mov    %dx,-0x4(%rbp)
    73e3:	66 89 45 f8          	mov    %ax,-0x8(%rbp)
    73e7:	0f b7 55 fc          	movzwl -0x4(%rbp),%edx
    73eb:	0f b7 45 f8          	movzwl -0x8(%rbp),%eax
    73ef:	29 c2                	sub    %eax,%edx
    73f1:	89 d0                	mov    %edx,%eax
    73f3:	5d                   	pop    %rbp
    73f4:	c3                   	retq   

00000000000073f5 <safe_mul_func_int16_t_s_s>:
    73f5:	f3 0f 1e fa          	endbr64 
    73f9:	55                   	push   %rbp
    73fa:	48 89 e5             	mov    %rsp,%rbp
    73fd:	89 fa                	mov    %edi,%edx
    73ff:	89 f0                	mov    %esi,%eax
    7401:	66 89 55 fc          	mov    %dx,-0x4(%rbp)
    7405:	66 89 45 f8          	mov    %ax,-0x8(%rbp)
    7409:	0f b7 55 fc          	movzwl -0x4(%rbp),%edx
    740d:	0f b7 45 f8          	movzwl -0x8(%rbp),%eax
    7411:	0f af c2             	imul   %edx,%eax
    7414:	5d                   	pop    %rbp
    7415:	c3                   	retq   

0000000000007416 <safe_mod_func_int16_t_s_s>:
    7416:	f3 0f 1e fa          	endbr64 
    741a:	55                   	push   %rbp
    741b:	48 89 e5             	mov    %rsp,%rbp
    741e:	89 fa                	mov    %edi,%edx
    7420:	89 f0                	mov    %esi,%eax
    7422:	66 89 55 fc          	mov    %dx,-0x4(%rbp)
    7426:	66 89 45 f8          	mov    %ax,-0x8(%rbp)
    742a:	66 83 7d f8 00       	cmpw   $0x0,-0x8(%rbp)
    742f:	74 1e                	je     744f <safe_mod_func_int16_t_s_s+0x39>
    7431:	66 81 7d fc 00 80    	cmpw   $0x8000,-0x4(%rbp)
    7437:	75 07                	jne    7440 <safe_mod_func_int16_t_s_s+0x2a>
    7439:	66 83 7d f8 ff       	cmpw   $0xffff,-0x8(%rbp)
    743e:	74 0f                	je     744f <safe_mod_func_int16_t_s_s+0x39>
    7440:	0f bf 45 fc          	movswl -0x4(%rbp),%eax
    7444:	0f bf 4d f8          	movswl -0x8(%rbp),%ecx
    7448:	99                   	cltd   
    7449:	f7 f9                	idiv   %ecx
    744b:	89 d0                	mov    %edx,%eax
    744d:	eb 04                	jmp    7453 <safe_mod_func_int16_t_s_s+0x3d>
    744f:	0f b7 45 fc          	movzwl -0x4(%rbp),%eax
    7453:	5d                   	pop    %rbp
    7454:	c3                   	retq   

0000000000007455 <safe_div_func_int16_t_s_s>:
    7455:	f3 0f 1e fa          	endbr64 
    7459:	55                   	push   %rbp
    745a:	48 89 e5             	mov    %rsp,%rbp
    745d:	89 fa                	mov    %edi,%edx
    745f:	89 f0                	mov    %esi,%eax
    7461:	66 89 55 fc          	mov    %dx,-0x4(%rbp)
    7465:	66 89 45 f8          	mov    %ax,-0x8(%rbp)
    7469:	66 83 7d f8 00       	cmpw   $0x0,-0x8(%rbp)
    746e:	74 1c                	je     748c <safe_div_func_int16_t_s_s+0x37>
    7470:	66 81 7d fc 00 80    	cmpw   $0x8000,-0x4(%rbp)
    7476:	75 07                	jne    747f <safe_div_func_int16_t_s_s+0x2a>
    7478:	66 83 7d f8 ff       	cmpw   $0xffff,-0x8(%rbp)
    747d:	74 0d                	je     748c <safe_div_func_int16_t_s_s+0x37>
    747f:	0f bf 45 fc          	movswl -0x4(%rbp),%eax
    7483:	0f bf 4d f8          	movswl -0x8(%rbp),%ecx
    7487:	99                   	cltd   
    7488:	f7 f9                	idiv   %ecx
    748a:	eb 04                	jmp    7490 <safe_div_func_int16_t_s_s+0x3b>
    748c:	0f b7 45 fc          	movzwl -0x4(%rbp),%eax
    7490:	5d                   	pop    %rbp
    7491:	c3                   	retq   

0000000000007492 <safe_lshift_func_int16_t_s_s>:
    7492:	f3 0f 1e fa          	endbr64 
    7496:	55                   	push   %rbp
    7497:	48 89 e5             	mov    %rsp,%rbp
    749a:	89 f8                	mov    %edi,%eax
    749c:	89 75 f8             	mov    %esi,-0x8(%rbp)
    749f:	66 89 45 fc          	mov    %ax,-0x4(%rbp)
    74a3:	66 83 7d fc 00       	cmpw   $0x0,-0x4(%rbp)
    74a8:	78 31                	js     74db <safe_lshift_func_int16_t_s_s+0x49>
    74aa:	83 7d f8 00          	cmpl   $0x0,-0x8(%rbp)
    74ae:	78 2b                	js     74db <safe_lshift_func_int16_t_s_s+0x49>
    74b0:	83 7d f8 1f          	cmpl   $0x1f,-0x8(%rbp)
    74b4:	7f 25                	jg     74db <safe_lshift_func_int16_t_s_s+0x49>
    74b6:	0f bf 55 fc          	movswl -0x4(%rbp),%edx
    74ba:	8b 45 f8             	mov    -0x8(%rbp),%eax
    74bd:	be ff 7f 00 00       	mov    $0x7fff,%esi
    74c2:	89 c1                	mov    %eax,%ecx
    74c4:	d3 fe                	sar    %cl,%esi
    74c6:	89 f0                	mov    %esi,%eax
    74c8:	39 c2                	cmp    %eax,%edx
    74ca:	7f 0f                	jg     74db <safe_lshift_func_int16_t_s_s+0x49>
    74cc:	0f bf 55 fc          	movswl -0x4(%rbp),%edx
    74d0:	8b 45 f8             	mov    -0x8(%rbp),%eax
    74d3:	89 c1                	mov    %eax,%ecx
    74d5:	d3 e2                	shl    %cl,%edx
    74d7:	89 d0                	mov    %edx,%eax
    74d9:	eb 04                	jmp    74df <safe_lshift_func_int16_t_s_s+0x4d>
    74db:	0f b7 45 fc          	movzwl -0x4(%rbp),%eax
    74df:	5d                   	pop    %rbp
    74e0:	c3                   	retq   

00000000000074e1 <safe_lshift_func_int16_t_s_u>:
    74e1:	f3 0f 1e fa          	endbr64 
    74e5:	55                   	push   %rbp
    74e6:	48 89 e5             	mov    %rsp,%rbp
    74e9:	89 f8                	mov    %edi,%eax
    74eb:	89 75 f8             	mov    %esi,-0x8(%rbp)
    74ee:	66 89 45 fc          	mov    %ax,-0x4(%rbp)
    74f2:	66 83 7d fc 00       	cmpw   $0x0,-0x4(%rbp)
    74f7:	78 2b                	js     7524 <safe_lshift_func_int16_t_s_u+0x43>
    74f9:	83 7d f8 1f          	cmpl   $0x1f,-0x8(%rbp)
    74fd:	77 25                	ja     7524 <safe_lshift_func_int16_t_s_u+0x43>
    74ff:	0f bf 55 fc          	movswl -0x4(%rbp),%edx
    7503:	8b 45 f8             	mov    -0x8(%rbp),%eax
    7506:	be ff 7f 00 00       	mov    $0x7fff,%esi
    750b:	89 c1                	mov    %eax,%ecx
    750d:	d3 fe                	sar    %cl,%esi
    750f:	89 f0                	mov    %esi,%eax
    7511:	39 c2                	cmp    %eax,%edx
    7513:	7f 0f                	jg     7524 <safe_lshift_func_int16_t_s_u+0x43>
    7515:	0f bf 55 fc          	movswl -0x4(%rbp),%edx
    7519:	8b 45 f8             	mov    -0x8(%rbp),%eax
    751c:	89 c1                	mov    %eax,%ecx
    751e:	d3 e2                	shl    %cl,%edx
    7520:	89 d0                	mov    %edx,%eax
    7522:	eb 04                	jmp    7528 <safe_lshift_func_int16_t_s_u+0x47>
    7524:	0f b7 45 fc          	movzwl -0x4(%rbp),%eax
    7528:	5d                   	pop    %rbp
    7529:	c3                   	retq   

000000000000752a <safe_rshift_func_int16_t_s_s>:
    752a:	f3 0f 1e fa          	endbr64 
    752e:	55                   	push   %rbp
    752f:	48 89 e5             	mov    %rsp,%rbp
    7532:	89 f8                	mov    %edi,%eax
    7534:	89 75 f8             	mov    %esi,-0x8(%rbp)
    7537:	66 89 45 fc          	mov    %ax,-0x4(%rbp)
    753b:	66 83 7d fc 00       	cmpw   $0x0,-0x4(%rbp)
    7540:	78 1b                	js     755d <safe_rshift_func_int16_t_s_s+0x33>
    7542:	83 7d f8 00          	cmpl   $0x0,-0x8(%rbp)
    7546:	78 15                	js     755d <safe_rshift_func_int16_t_s_s+0x33>
    7548:	83 7d f8 1f          	cmpl   $0x1f,-0x8(%rbp)
    754c:	7f 0f                	jg     755d <safe_rshift_func_int16_t_s_s+0x33>
    754e:	0f bf 55 fc          	movswl -0x4(%rbp),%edx
    7552:	8b 45 f8             	mov    -0x8(%rbp),%eax
    7555:	89 c1                	mov    %eax,%ecx
    7557:	d3 fa                	sar    %cl,%edx
    7559:	89 d0                	mov    %edx,%eax
    755b:	eb 04                	jmp    7561 <safe_rshift_func_int16_t_s_s+0x37>
    755d:	0f b7 45 fc          	movzwl -0x4(%rbp),%eax
    7561:	5d                   	pop    %rbp
    7562:	c3                   	retq   

0000000000007563 <safe_rshift_func_int16_t_s_u>:
    7563:	f3 0f 1e fa          	endbr64 
    7567:	55                   	push   %rbp
    7568:	48 89 e5             	mov    %rsp,%rbp
    756b:	89 f8                	mov    %edi,%eax
    756d:	89 75 f8             	mov    %esi,-0x8(%rbp)
    7570:	66 89 45 fc          	mov    %ax,-0x4(%rbp)
    7574:	66 83 7d fc 00       	cmpw   $0x0,-0x4(%rbp)
    7579:	78 15                	js     7590 <safe_rshift_func_int16_t_s_u+0x2d>
    757b:	83 7d f8 1f          	cmpl   $0x1f,-0x8(%rbp)
    757f:	77 0f                	ja     7590 <safe_rshift_func_int16_t_s_u+0x2d>
    7581:	0f bf 55 fc          	movswl -0x4(%rbp),%edx
    7585:	8b 45 f8             	mov    -0x8(%rbp),%eax
    7588:	89 c1                	mov    %eax,%ecx
    758a:	d3 fa                	sar    %cl,%edx
    758c:	89 d0                	mov    %edx,%eax
    758e:	eb 04                	jmp    7594 <safe_rshift_func_int16_t_s_u+0x31>
    7590:	0f b7 45 fc          	movzwl -0x4(%rbp),%eax
    7594:	5d                   	pop    %rbp
    7595:	c3                   	retq   

0000000000007596 <safe_unary_minus_func_int32_t_s>:
    7596:	f3 0f 1e fa          	endbr64 
    759a:	55                   	push   %rbp
    759b:	48 89 e5             	mov    %rsp,%rbp
    759e:	89 7d fc             	mov    %edi,-0x4(%rbp)
    75a1:	81 7d fc 00 00 00 80 	cmpl   $0x80000000,-0x4(%rbp)
    75a8:	74 07                	je     75b1 <safe_unary_minus_func_int32_t_s+0x1b>
    75aa:	8b 45 fc             	mov    -0x4(%rbp),%eax
    75ad:	f7 d8                	neg    %eax
    75af:	eb 03                	jmp    75b4 <safe_unary_minus_func_int32_t_s+0x1e>
    75b1:	8b 45 fc             	mov    -0x4(%rbp),%eax
    75b4:	5d                   	pop    %rbp
    75b5:	c3                   	retq   

00000000000075b6 <safe_add_func_int32_t_s_s>:
    75b6:	f3 0f 1e fa          	endbr64 
    75ba:	55                   	push   %rbp
    75bb:	48 89 e5             	mov    %rsp,%rbp
    75be:	89 7d fc             	mov    %edi,-0x4(%rbp)
    75c1:	89 75 f8             	mov    %esi,-0x8(%rbp)
    75c4:	83 7d fc 00          	cmpl   $0x0,-0x4(%rbp)
    75c8:	7e 13                	jle    75dd <safe_add_func_int32_t_s_s+0x27>
    75ca:	83 7d f8 00          	cmpl   $0x0,-0x8(%rbp)
    75ce:	7e 0d                	jle    75dd <safe_add_func_int32_t_s_s+0x27>
    75d0:	b8 ff ff ff 7f       	mov    $0x7fffffff,%eax
    75d5:	2b 45 f8             	sub    -0x8(%rbp),%eax
    75d8:	39 45 fc             	cmp    %eax,-0x4(%rbp)
    75db:	7f 23                	jg     7600 <safe_add_func_int32_t_s_s+0x4a>
    75dd:	83 7d fc 00          	cmpl   $0x0,-0x4(%rbp)
    75e1:	79 13                	jns    75f6 <safe_add_func_int32_t_s_s+0x40>
    75e3:	83 7d f8 00          	cmpl   $0x0,-0x8(%rbp)
    75e7:	79 0d                	jns    75f6 <safe_add_func_int32_t_s_s+0x40>
    75e9:	b8 00 00 00 80       	mov    $0x80000000,%eax
    75ee:	2b 45 f8             	sub    -0x8(%rbp),%eax
    75f1:	39 45 fc             	cmp    %eax,-0x4(%rbp)
    75f4:	7c 0a                	jl     7600 <safe_add_func_int32_t_s_s+0x4a>
    75f6:	8b 55 fc             	mov    -0x4(%rbp),%edx
    75f9:	8b 45 f8             	mov    -0x8(%rbp),%eax
    75fc:	01 d0                	add    %edx,%eax
    75fe:	eb 03                	jmp    7603 <safe_add_func_int32_t_s_s+0x4d>
    7600:	8b 45 fc             	mov    -0x4(%rbp),%eax
    7603:	5d                   	pop    %rbp
    7604:	c3                   	retq   

0000000000007605 <safe_sub_func_int32_t_s_s>:
    7605:	f3 0f 1e fa          	endbr64 
    7609:	55                   	push   %rbp
    760a:	48 89 e5             	mov    %rsp,%rbp
    760d:	89 7d fc             	mov    %edi,-0x4(%rbp)
    7610:	89 75 f8             	mov    %esi,-0x8(%rbp)
    7613:	8b 45 fc             	mov    -0x4(%rbp),%eax
    7616:	33 45 f8             	xor    -0x8(%rbp),%eax
    7619:	89 c2                	mov    %eax,%edx
    761b:	8b 45 fc             	mov    -0x4(%rbp),%eax
    761e:	33 45 f8             	xor    -0x8(%rbp),%eax
    7621:	25 00 00 00 80       	and    $0x80000000,%eax
    7626:	33 45 fc             	xor    -0x4(%rbp),%eax
    7629:	2b 45 f8             	sub    -0x8(%rbp),%eax
    762c:	33 45 f8             	xor    -0x8(%rbp),%eax
    762f:	21 d0                	and    %edx,%eax
    7631:	85 c0                	test   %eax,%eax
    7633:	78 08                	js     763d <safe_sub_func_int32_t_s_s+0x38>
    7635:	8b 45 fc             	mov    -0x4(%rbp),%eax
    7638:	2b 45 f8             	sub    -0x8(%rbp),%eax
    763b:	eb 03                	jmp    7640 <safe_sub_func_int32_t_s_s+0x3b>
    763d:	8b 45 fc             	mov    -0x4(%rbp),%eax
    7640:	5d                   	pop    %rbp
    7641:	c3                   	retq   

0000000000007642 <safe_mul_func_int32_t_s_s>:
    7642:	f3 0f 1e fa          	endbr64 
    7646:	55                   	push   %rbp
    7647:	48 89 e5             	mov    %rsp,%rbp
    764a:	89 7d fc             	mov    %edi,-0x4(%rbp)
    764d:	89 75 f8             	mov    %esi,-0x8(%rbp)
    7650:	83 7d fc 00          	cmpl   $0x0,-0x4(%rbp)
    7654:	7e 14                	jle    766a <safe_mul_func_int32_t_s_s+0x28>
    7656:	83 7d f8 00          	cmpl   $0x0,-0x8(%rbp)
    765a:	7e 0e                	jle    766a <safe_mul_func_int32_t_s_s+0x28>
    765c:	b8 ff ff ff 7f       	mov    $0x7fffffff,%eax
    7661:	99                   	cltd   
    7662:	f7 7d f8             	idivl  -0x8(%rbp)
    7665:	39 45 fc             	cmp    %eax,-0x4(%rbp)
    7668:	7f 5d                	jg     76c7 <safe_mul_func_int32_t_s_s+0x85>
    766a:	83 7d fc 00          	cmpl   $0x0,-0x4(%rbp)
    766e:	7e 14                	jle    7684 <safe_mul_func_int32_t_s_s+0x42>
    7670:	83 7d f8 00          	cmpl   $0x0,-0x8(%rbp)
    7674:	7f 0e                	jg     7684 <safe_mul_func_int32_t_s_s+0x42>
    7676:	b8 00 00 00 80       	mov    $0x80000000,%eax
    767b:	99                   	cltd   
    767c:	f7 7d fc             	idivl  -0x4(%rbp)
    767f:	39 45 f8             	cmp    %eax,-0x8(%rbp)
    7682:	7c 43                	jl     76c7 <safe_mul_func_int32_t_s_s+0x85>
    7684:	83 7d fc 00          	cmpl   $0x0,-0x4(%rbp)
    7688:	7f 14                	jg     769e <safe_mul_func_int32_t_s_s+0x5c>
    768a:	83 7d f8 00          	cmpl   $0x0,-0x8(%rbp)
    768e:	7e 0e                	jle    769e <safe_mul_func_int32_t_s_s+0x5c>
    7690:	b8 00 00 00 80       	mov    $0x80000000,%eax
    7695:	99                   	cltd   
    7696:	f7 7d f8             	idivl  -0x8(%rbp)
    7699:	39 45 fc             	cmp    %eax,-0x4(%rbp)
    769c:	7c 29                	jl     76c7 <safe_mul_func_int32_t_s_s+0x85>
    769e:	83 7d fc 00          	cmpl   $0x0,-0x4(%rbp)
    76a2:	7f 1a                	jg     76be <safe_mul_func_int32_t_s_s+0x7c>
    76a4:	83 7d f8 00          	cmpl   $0x0,-0x8(%rbp)
    76a8:	7f 14                	jg     76be <safe_mul_func_int32_t_s_s+0x7c>
    76aa:	83 7d fc 00          	cmpl   $0x0,-0x4(%rbp)
    76ae:	74 0e                	je     76be <safe_mul_func_int32_t_s_s+0x7c>
    76b0:	b8 ff ff ff 7f       	mov    $0x7fffffff,%eax
    76b5:	99                   	cltd   
    76b6:	f7 7d fc             	idivl  -0x4(%rbp)
    76b9:	39 45 f8             	cmp    %eax,-0x8(%rbp)
    76bc:	7c 09                	jl     76c7 <safe_mul_func_int32_t_s_s+0x85>
    76be:	8b 45 fc             	mov    -0x4(%rbp),%eax
    76c1:	0f af 45 f8          	imul   -0x8(%rbp),%eax
    76c5:	eb 03                	jmp    76ca <safe_mul_func_int32_t_s_s+0x88>
    76c7:	8b 45 fc             	mov    -0x4(%rbp),%eax
    76ca:	5d                   	pop    %rbp
    76cb:	c3                   	retq   

00000000000076cc <safe_mod_func_int32_t_s_s>:
    76cc:	f3 0f 1e fa          	endbr64 
    76d0:	55                   	push   %rbp
    76d1:	48 89 e5             	mov    %rsp,%rbp
    76d4:	89 7d fc             	mov    %edi,-0x4(%rbp)
    76d7:	89 75 f8             	mov    %esi,-0x8(%rbp)
    76da:	83 7d f8 00          	cmpl   $0x0,-0x8(%rbp)
    76de:	74 1a                	je     76fa <safe_mod_func_int32_t_s_s+0x2e>
    76e0:	81 7d fc 00 00 00 80 	cmpl   $0x80000000,-0x4(%rbp)
    76e7:	75 06                	jne    76ef <safe_mod_func_int32_t_s_s+0x23>
    76e9:	83 7d f8 ff          	cmpl   $0xffffffff,-0x8(%rbp)
    76ed:	74 0b                	je     76fa <safe_mod_func_int32_t_s_s+0x2e>
    76ef:	8b 45 fc             	mov    -0x4(%rbp),%eax
    76f2:	99                   	cltd   
    76f3:	f7 7d f8             	idivl  -0x8(%rbp)
    76f6:	89 d0                	mov    %edx,%eax
    76f8:	eb 03                	jmp    76fd <safe_mod_func_int32_t_s_s+0x31>
    76fa:	8b 45 fc             	mov    -0x4(%rbp),%eax
    76fd:	5d                   	pop    %rbp
    76fe:	c3                   	retq   

00000000000076ff <safe_div_func_int32_t_s_s>:
    76ff:	f3 0f 1e fa          	endbr64 
    7703:	55                   	push   %rbp
    7704:	48 89 e5             	mov    %rsp,%rbp
    7707:	89 7d fc             	mov    %edi,-0x4(%rbp)
    770a:	89 75 f8             	mov    %esi,-0x8(%rbp)
    770d:	83 7d f8 00          	cmpl   $0x0,-0x8(%rbp)
    7711:	74 18                	je     772b <safe_div_func_int32_t_s_s+0x2c>
    7713:	81 7d fc 00 00 00 80 	cmpl   $0x80000000,-0x4(%rbp)
    771a:	75 06                	jne    7722 <safe_div_func_int32_t_s_s+0x23>
    771c:	83 7d f8 ff          	cmpl   $0xffffffff,-0x8(%rbp)
    7720:	74 09                	je     772b <safe_div_func_int32_t_s_s+0x2c>
    7722:	8b 45 fc             	mov    -0x4(%rbp),%eax
    7725:	99                   	cltd   
    7726:	f7 7d f8             	idivl  -0x8(%rbp)
    7729:	eb 03                	jmp    772e <safe_div_func_int32_t_s_s+0x2f>
    772b:	8b 45 fc             	mov    -0x4(%rbp),%eax
    772e:	5d                   	pop    %rbp
    772f:	c3                   	retq   

0000000000007730 <safe_lshift_func_int32_t_s_s>:
    7730:	f3 0f 1e fa          	endbr64 
    7734:	55                   	push   %rbp
    7735:	48 89 e5             	mov    %rsp,%rbp
    7738:	89 7d fc             	mov    %edi,-0x4(%rbp)
    773b:	89 75 f8             	mov    %esi,-0x8(%rbp)
    773e:	83 7d fc 00          	cmpl   $0x0,-0x4(%rbp)
    7742:	78 2d                	js     7771 <safe_lshift_func_int32_t_s_s+0x41>
    7744:	83 7d f8 00          	cmpl   $0x0,-0x8(%rbp)
    7748:	78 27                	js     7771 <safe_lshift_func_int32_t_s_s+0x41>
    774a:	83 7d f8 1f          	cmpl   $0x1f,-0x8(%rbp)
    774e:	7f 21                	jg     7771 <safe_lshift_func_int32_t_s_s+0x41>
    7750:	8b 45 f8             	mov    -0x8(%rbp),%eax
    7753:	ba ff ff ff 7f       	mov    $0x7fffffff,%edx
    7758:	89 c1                	mov    %eax,%ecx
    775a:	d3 fa                	sar    %cl,%edx
    775c:	89 d0                	mov    %edx,%eax
    775e:	39 45 fc             	cmp    %eax,-0x4(%rbp)
    7761:	7f 0e                	jg     7771 <safe_lshift_func_int32_t_s_s+0x41>
    7763:	8b 45 f8             	mov    -0x8(%rbp),%eax
    7766:	8b 55 fc             	mov    -0x4(%rbp),%edx
    7769:	89 c1                	mov    %eax,%ecx
    776b:	d3 e2                	shl    %cl,%edx
    776d:	89 d0                	mov    %edx,%eax
    776f:	eb 03                	jmp    7774 <safe_lshift_func_int32_t_s_s+0x44>
    7771:	8b 45 fc             	mov    -0x4(%rbp),%eax
    7774:	5d                   	pop    %rbp
    7775:	c3                   	retq   

0000000000007776 <safe_lshift_func_int32_t_s_u>:
    7776:	f3 0f 1e fa          	endbr64 
    777a:	55                   	push   %rbp
    777b:	48 89 e5             	mov    %rsp,%rbp
    777e:	89 7d fc             	mov    %edi,-0x4(%rbp)
    7781:	89 75 f8             	mov    %esi,-0x8(%rbp)
    7784:	83 7d fc 00          	cmpl   $0x0,-0x4(%rbp)
    7788:	78 27                	js     77b1 <safe_lshift_func_int32_t_s_u+0x3b>
    778a:	83 7d f8 1f          	cmpl   $0x1f,-0x8(%rbp)
    778e:	77 21                	ja     77b1 <safe_lshift_func_int32_t_s_u+0x3b>
    7790:	8b 45 f8             	mov    -0x8(%rbp),%eax
    7793:	ba ff ff ff 7f       	mov    $0x7fffffff,%edx
    7798:	89 c1                	mov    %eax,%ecx
    779a:	d3 fa                	sar    %cl,%edx
    779c:	89 d0                	mov    %edx,%eax
    779e:	39 45 fc             	cmp    %eax,-0x4(%rbp)
    77a1:	7f 0e                	jg     77b1 <safe_lshift_func_int32_t_s_u+0x3b>
    77a3:	8b 45 f8             	mov    -0x8(%rbp),%eax
    77a6:	8b 55 fc             	mov    -0x4(%rbp),%edx
    77a9:	89 c1                	mov    %eax,%ecx
    77ab:	d3 e2                	shl    %cl,%edx
    77ad:	89 d0                	mov    %edx,%eax
    77af:	eb 03                	jmp    77b4 <safe_lshift_func_int32_t_s_u+0x3e>
    77b1:	8b 45 fc             	mov    -0x4(%rbp),%eax
    77b4:	5d                   	pop    %rbp
    77b5:	c3                   	retq   

00000000000077b6 <safe_rshift_func_int32_t_s_s>:
    77b6:	f3 0f 1e fa          	endbr64 
    77ba:	55                   	push   %rbp
    77bb:	48 89 e5             	mov    %rsp,%rbp
    77be:	89 7d fc             	mov    %edi,-0x4(%rbp)
    77c1:	89 75 f8             	mov    %esi,-0x8(%rbp)
    77c4:	83 7d fc 00          	cmpl   $0x0,-0x4(%rbp)
    77c8:	78 1a                	js     77e4 <safe_rshift_func_int32_t_s_s+0x2e>
    77ca:	83 7d f8 00          	cmpl   $0x0,-0x8(%rbp)
    77ce:	78 14                	js     77e4 <safe_rshift_func_int32_t_s_s+0x2e>
    77d0:	83 7d f8 1f          	cmpl   $0x1f,-0x8(%rbp)
    77d4:	7f 0e                	jg     77e4 <safe_rshift_func_int32_t_s_s+0x2e>
    77d6:	8b 45 f8             	mov    -0x8(%rbp),%eax
    77d9:	8b 55 fc             	mov    -0x4(%rbp),%edx
    77dc:	89 c1                	mov    %eax,%ecx
    77de:	d3 fa                	sar    %cl,%edx
    77e0:	89 d0                	mov    %edx,%eax
    77e2:	eb 03                	jmp    77e7 <safe_rshift_func_int32_t_s_s+0x31>
    77e4:	8b 45 fc             	mov    -0x4(%rbp),%eax
    77e7:	5d                   	pop    %rbp
    77e8:	c3                   	retq   

00000000000077e9 <safe_rshift_func_int32_t_s_u>:
    77e9:	f3 0f 1e fa          	endbr64 
    77ed:	55                   	push   %rbp
    77ee:	48 89 e5             	mov    %rsp,%rbp
    77f1:	89 7d fc             	mov    %edi,-0x4(%rbp)
    77f4:	89 75 f8             	mov    %esi,-0x8(%rbp)
    77f7:	83 7d fc 00          	cmpl   $0x0,-0x4(%rbp)
    77fb:	78 14                	js     7811 <safe_rshift_func_int32_t_s_u+0x28>
    77fd:	83 7d f8 1f          	cmpl   $0x1f,-0x8(%rbp)
    7801:	77 0e                	ja     7811 <safe_rshift_func_int32_t_s_u+0x28>
    7803:	8b 45 f8             	mov    -0x8(%rbp),%eax
    7806:	8b 55 fc             	mov    -0x4(%rbp),%edx
    7809:	89 c1                	mov    %eax,%ecx
    780b:	d3 fa                	sar    %cl,%edx
    780d:	89 d0                	mov    %edx,%eax
    780f:	eb 03                	jmp    7814 <safe_rshift_func_int32_t_s_u+0x2b>
    7811:	8b 45 fc             	mov    -0x4(%rbp),%eax
    7814:	5d                   	pop    %rbp
    7815:	c3                   	retq   

0000000000007816 <safe_unary_minus_func_int64_t_s>:
    7816:	f3 0f 1e fa          	endbr64 
    781a:	55                   	push   %rbp
    781b:	48 89 e5             	mov    %rsp,%rbp
    781e:	48 89 7d f8          	mov    %rdi,-0x8(%rbp)
    7822:	48 b8 00 00 00 00 00 	movabs $0x8000000000000000,%rax
    7829:	00 00 80 
    782c:	48 39 45 f8          	cmp    %rax,-0x8(%rbp)
    7830:	74 09                	je     783b <safe_unary_minus_func_int64_t_s+0x25>
    7832:	48 8b 45 f8          	mov    -0x8(%rbp),%rax
    7836:	48 f7 d8             	neg    %rax
    7839:	eb 04                	jmp    783f <safe_unary_minus_func_int64_t_s+0x29>
    783b:	48 8b 45 f8          	mov    -0x8(%rbp),%rax
    783f:	5d                   	pop    %rbp
    7840:	c3                   	retq   

0000000000007841 <safe_add_func_int64_t_s_s>:
    7841:	f3 0f 1e fa          	endbr64 
    7845:	55                   	push   %rbp
    7846:	48 89 e5             	mov    %rsp,%rbp
    7849:	48 89 7d f8          	mov    %rdi,-0x8(%rbp)
    784d:	48 89 75 f0          	mov    %rsi,-0x10(%rbp)
    7851:	48 83 7d f8 00       	cmpq   $0x0,-0x8(%rbp)
    7856:	7e 1b                	jle    7873 <safe_add_func_int64_t_s_s+0x32>
    7858:	48 83 7d f0 00       	cmpq   $0x0,-0x10(%rbp)
    785d:	7e 14                	jle    7873 <safe_add_func_int64_t_s_s+0x32>
    785f:	48 b8 ff ff ff ff ff 	movabs $0x7fffffffffffffff,%rax
    7866:	ff ff 7f 
    7869:	48 2b 45 f0          	sub    -0x10(%rbp),%rax
    786d:	48 39 45 f8          	cmp    %rax,-0x8(%rbp)
    7871:	7f 2f                	jg     78a2 <safe_add_func_int64_t_s_s+0x61>
    7873:	48 83 7d f8 00       	cmpq   $0x0,-0x8(%rbp)
    7878:	79 1b                	jns    7895 <safe_add_func_int64_t_s_s+0x54>
    787a:	48 83 7d f0 00       	cmpq   $0x0,-0x10(%rbp)
    787f:	79 14                	jns    7895 <safe_add_func_int64_t_s_s+0x54>
    7881:	48 b8 00 00 00 00 00 	movabs $0x8000000000000000,%rax
    7888:	00 00 80 
    788b:	48 2b 45 f0          	sub    -0x10(%rbp),%rax
    788f:	48 39 45 f8          	cmp    %rax,-0x8(%rbp)
    7893:	7c 0d                	jl     78a2 <safe_add_func_int64_t_s_s+0x61>
    7895:	48 8b 55 f8          	mov    -0x8(%rbp),%rdx
    7899:	48 8b 45 f0          	mov    -0x10(%rbp),%rax
    789d:	48 01 d0             	add    %rdx,%rax
    78a0:	eb 04                	jmp    78a6 <safe_add_func_int64_t_s_s+0x65>
    78a2:	48 8b 45 f8          	mov    -0x8(%rbp),%rax
    78a6:	5d                   	pop    %rbp
    78a7:	c3                   	retq   

00000000000078a8 <safe_sub_func_int64_t_s_s>:
    78a8:	f3 0f 1e fa          	endbr64 
    78ac:	55                   	push   %rbp
    78ad:	48 89 e5             	mov    %rsp,%rbp
    78b0:	48 89 7d f8          	mov    %rdi,-0x8(%rbp)
    78b4:	48 89 75 f0          	mov    %rsi,-0x10(%rbp)
    78b8:	48 8b 45 f8          	mov    -0x8(%rbp),%rax
    78bc:	48 33 45 f0          	xor    -0x10(%rbp),%rax
    78c0:	48 89 c2             	mov    %rax,%rdx
    78c3:	48 8b 45 f8          	mov    -0x8(%rbp),%rax
    78c7:	48 33 45 f0          	xor    -0x10(%rbp),%rax
    78cb:	48 b9 00 00 00 00 00 	movabs $0x8000000000000000,%rcx
    78d2:	00 00 80 
    78d5:	48 21 c8             	and    %rcx,%rax
    78d8:	48 33 45 f8          	xor    -0x8(%rbp),%rax
    78dc:	48 2b 45 f0          	sub    -0x10(%rbp),%rax
    78e0:	48 33 45 f0          	xor    -0x10(%rbp),%rax
    78e4:	48 21 d0             	and    %rdx,%rax
    78e7:	48 85 c0             	test   %rax,%rax
    78ea:	78 0a                	js     78f6 <safe_sub_func_int64_t_s_s+0x4e>
    78ec:	48 8b 45 f8          	mov    -0x8(%rbp),%rax
    78f0:	48 2b 45 f0          	sub    -0x10(%rbp),%rax
    78f4:	eb 04                	jmp    78fa <safe_sub_func_int64_t_s_s+0x52>
    78f6:	48 8b 45 f8          	mov    -0x8(%rbp),%rax
    78fa:	5d                   	pop    %rbp
    78fb:	c3                   	retq   

00000000000078fc <safe_mul_func_int64_t_s_s>:
    78fc:	f3 0f 1e fa          	endbr64 
    7900:	55                   	push   %rbp
    7901:	48 89 e5             	mov    %rsp,%rbp
    7904:	48 89 7d f8          	mov    %rdi,-0x8(%rbp)
    7908:	48 89 75 f0          	mov    %rsi,-0x10(%rbp)
    790c:	48 83 7d f8 00       	cmpq   $0x0,-0x8(%rbp)
    7911:	7e 1d                	jle    7930 <safe_mul_func_int64_t_s_s+0x34>
    7913:	48 83 7d f0 00       	cmpq   $0x0,-0x10(%rbp)
    7918:	7e 16                	jle    7930 <safe_mul_func_int64_t_s_s+0x34>
    791a:	48 b8 ff ff ff ff ff 	movabs $0x7fffffffffffffff,%rax
    7921:	ff ff 7f 
    7924:	48 99                	cqto   
    7926:	48 f7 7d f0          	idivq  -0x10(%rbp)
    792a:	48 39 45 f8          	cmp    %rax,-0x8(%rbp)
    792e:	7f 7e                	jg     79ae <safe_mul_func_int64_t_s_s+0xb2>
    7930:	48 83 7d f8 00       	cmpq   $0x0,-0x8(%rbp)
    7935:	7e 1d                	jle    7954 <safe_mul_func_int64_t_s_s+0x58>
    7937:	48 83 7d f0 00       	cmpq   $0x0,-0x10(%rbp)
    793c:	7f 16                	jg     7954 <safe_mul_func_int64_t_s_s+0x58>
    793e:	48 b8 00 00 00 00 00 	movabs $0x8000000000000000,%rax
    7945:	00 00 80 
    7948:	48 99                	cqto   
    794a:	48 f7 7d f8          	idivq  -0x8(%rbp)
    794e:	48 39 45 f0          	cmp    %rax,-0x10(%rbp)
    7952:	7c 5a                	jl     79ae <safe_mul_func_int64_t_s_s+0xb2>
    7954:	48 83 7d f8 00       	cmpq   $0x0,-0x8(%rbp)
    7959:	7f 1d                	jg     7978 <safe_mul_func_int64_t_s_s+0x7c>
    795b:	48 83 7d f0 00       	cmpq   $0x0,-0x10(%rbp)
    7960:	7e 16                	jle    7978 <safe_mul_func_int64_t_s_s+0x7c>
    7962:	48 b8 00 00 00 00 00 	movabs $0x8000000000000000,%rax
    7969:	00 00 80 
    796c:	48 99                	cqto   
    796e:	48 f7 7d f0          	idivq  -0x10(%rbp)
    7972:	48 39 45 f8          	cmp    %rax,-0x8(%rbp)
    7976:	7c 36                	jl     79ae <safe_mul_func_int64_t_s_s+0xb2>
    7978:	48 83 7d f8 00       	cmpq   $0x0,-0x8(%rbp)
    797d:	7f 24                	jg     79a3 <safe_mul_func_int64_t_s_s+0xa7>
    797f:	48 83 7d f0 00       	cmpq   $0x0,-0x10(%rbp)
    7984:	7f 1d                	jg     79a3 <safe_mul_func_int64_t_s_s+0xa7>
    7986:	48 83 7d f8 00       	cmpq   $0x0,-0x8(%rbp)
    798b:	74 16                	je     79a3 <safe_mul_func_int64_t_s_s+0xa7>
    798d:	48 b8 ff ff ff ff ff 	movabs $0x7fffffffffffffff,%rax
    7994:	ff ff 7f 
    7997:	48 99                	cqto   
    7999:	48 f7 7d f8          	idivq  -0x8(%rbp)
    799d:	48 39 45 f0          	cmp    %rax,-0x10(%rbp)
    79a1:	7c 0b                	jl     79ae <safe_mul_func_int64_t_s_s+0xb2>
    79a3:	48 8b 45 f8          	mov    -0x8(%rbp),%rax
    79a7:	48 0f af 45 f0       	imul   -0x10(%rbp),%rax
    79ac:	eb 04                	jmp    79b2 <safe_mul_func_int64_t_s_s+0xb6>
    79ae:	48 8b 45 f8          	mov    -0x8(%rbp),%rax
    79b2:	5d                   	pop    %rbp
    79b3:	c3                   	retq   

00000000000079b4 <safe_mod_func_int64_t_s_s>:
    79b4:	f3 0f 1e fa          	endbr64 
    79b8:	55                   	push   %rbp
    79b9:	48 89 e5             	mov    %rsp,%rbp
    79bc:	48 89 7d f8          	mov    %rdi,-0x8(%rbp)
    79c0:	48 89 75 f0          	mov    %rsi,-0x10(%rbp)
    79c4:	48 83 7d f0 00       	cmpq   $0x0,-0x10(%rbp)
    79c9:	74 26                	je     79f1 <safe_mod_func_int64_t_s_s+0x3d>
    79cb:	48 b8 00 00 00 00 00 	movabs $0x8000000000000000,%rax
    79d2:	00 00 80 
    79d5:	48 39 45 f8          	cmp    %rax,-0x8(%rbp)
    79d9:	75 07                	jne    79e2 <safe_mod_func_int64_t_s_s+0x2e>
    79db:	48 83 7d f0 ff       	cmpq   $0xffffffffffffffff,-0x10(%rbp)
    79e0:	74 0f                	je     79f1 <safe_mod_func_int64_t_s_s+0x3d>
    79e2:	48 8b 45 f8          	mov    -0x8(%rbp),%rax
    79e6:	48 99                	cqto   
    79e8:	48 f7 7d f0          	idivq  -0x10(%rbp)
    79ec:	48 89 d0             	mov    %rdx,%rax
    79ef:	eb 04                	jmp    79f5 <safe_mod_func_int64_t_s_s+0x41>
    79f1:	48 8b 45 f8          	mov    -0x8(%rbp),%rax
    79f5:	5d                   	pop    %rbp
    79f6:	c3                   	retq   

00000000000079f7 <safe_div_func_int64_t_s_s>:
    79f7:	f3 0f 1e fa          	endbr64 
    79fb:	55                   	push   %rbp
    79fc:	48 89 e5             	mov    %rsp,%rbp
    79ff:	48 89 7d f8          	mov    %rdi,-0x8(%rbp)
    7a03:	48 89 75 f0          	mov    %rsi,-0x10(%rbp)
    7a07:	48 83 7d f0 00       	cmpq   $0x0,-0x10(%rbp)
    7a0c:	74 23                	je     7a31 <safe_div_func_int64_t_s_s+0x3a>
    7a0e:	48 b8 00 00 00 00 00 	movabs $0x8000000000000000,%rax
    7a15:	00 00 80 
    7a18:	48 39 45 f8          	cmp    %rax,-0x8(%rbp)
    7a1c:	75 07                	jne    7a25 <safe_div_func_int64_t_s_s+0x2e>
    7a1e:	48 83 7d f0 ff       	cmpq   $0xffffffffffffffff,-0x10(%rbp)
    7a23:	74 0c                	je     7a31 <safe_div_func_int64_t_s_s+0x3a>
    7a25:	48 8b 45 f8          	mov    -0x8(%rbp),%rax
    7a29:	48 99                	cqto   
    7a2b:	48 f7 7d f0          	idivq  -0x10(%rbp)
    7a2f:	eb 04                	jmp    7a35 <safe_div_func_int64_t_s_s+0x3e>
    7a31:	48 8b 45 f8          	mov    -0x8(%rbp),%rax
    7a35:	5d                   	pop    %rbp
    7a36:	c3                   	retq   

0000000000007a37 <safe_lshift_func_int64_t_s_s>:
    7a37:	f3 0f 1e fa          	endbr64 
    7a3b:	55                   	push   %rbp
    7a3c:	48 89 e5             	mov    %rsp,%rbp
    7a3f:	48 89 7d f8          	mov    %rdi,-0x8(%rbp)
    7a43:	89 75 f4             	mov    %esi,-0xc(%rbp)
    7a46:	48 83 7d f8 00       	cmpq   $0x0,-0x8(%rbp)
    7a4b:	78 38                	js     7a85 <safe_lshift_func_int64_t_s_s+0x4e>
    7a4d:	83 7d f4 00          	cmpl   $0x0,-0xc(%rbp)
    7a51:	78 32                	js     7a85 <safe_lshift_func_int64_t_s_s+0x4e>
    7a53:	83 7d f4 1f          	cmpl   $0x1f,-0xc(%rbp)
    7a57:	7f 2c                	jg     7a85 <safe_lshift_func_int64_t_s_s+0x4e>
    7a59:	8b 45 f4             	mov    -0xc(%rbp),%eax
    7a5c:	48 ba ff ff ff ff ff 	movabs $0x7fffffffffffffff,%rdx
    7a63:	ff ff 7f 
    7a66:	89 c1                	mov    %eax,%ecx
    7a68:	48 d3 fa             	sar    %cl,%rdx
    7a6b:	48 89 d0             	mov    %rdx,%rax
    7a6e:	48 39 45 f8          	cmp    %rax,-0x8(%rbp)
    7a72:	7f 11                	jg     7a85 <safe_lshift_func_int64_t_s_s+0x4e>
    7a74:	8b 45 f4             	mov    -0xc(%rbp),%eax
    7a77:	48 8b 55 f8          	mov    -0x8(%rbp),%rdx
    7a7b:	89 c1                	mov    %eax,%ecx
    7a7d:	48 d3 e2             	shl    %cl,%rdx
    7a80:	48 89 d0             	mov    %rdx,%rax
    7a83:	eb 04                	jmp    7a89 <safe_lshift_func_int64_t_s_s+0x52>
    7a85:	48 8b 45 f8          	mov    -0x8(%rbp),%rax
    7a89:	5d                   	pop    %rbp
    7a8a:	c3                   	retq   

0000000000007a8b <safe_lshift_func_int64_t_s_u>:
    7a8b:	f3 0f 1e fa          	endbr64 
    7a8f:	55                   	push   %rbp
    7a90:	48 89 e5             	mov    %rsp,%rbp
    7a93:	48 89 7d f8          	mov    %rdi,-0x8(%rbp)
    7a97:	89 75 f4             	mov    %esi,-0xc(%rbp)
    7a9a:	48 83 7d f8 00       	cmpq   $0x0,-0x8(%rbp)
    7a9f:	78 32                	js     7ad3 <safe_lshift_func_int64_t_s_u+0x48>
    7aa1:	83 7d f4 1f          	cmpl   $0x1f,-0xc(%rbp)
    7aa5:	77 2c                	ja     7ad3 <safe_lshift_func_int64_t_s_u+0x48>
    7aa7:	8b 45 f4             	mov    -0xc(%rbp),%eax
    7aaa:	48 ba ff ff ff ff ff 	movabs $0x7fffffffffffffff,%rdx
    7ab1:	ff ff 7f 
    7ab4:	89 c1                	mov    %eax,%ecx
    7ab6:	48 d3 fa             	sar    %cl,%rdx
    7ab9:	48 89 d0             	mov    %rdx,%rax
    7abc:	48 39 45 f8          	cmp    %rax,-0x8(%rbp)
    7ac0:	7f 11                	jg     7ad3 <safe_lshift_func_int64_t_s_u+0x48>
    7ac2:	8b 45 f4             	mov    -0xc(%rbp),%eax
    7ac5:	48 8b 55 f8          	mov    -0x8(%rbp),%rdx
    7ac9:	89 c1                	mov    %eax,%ecx
    7acb:	48 d3 e2             	shl    %cl,%rdx
    7ace:	48 89 d0             	mov    %rdx,%rax
    7ad1:	eb 04                	jmp    7ad7 <safe_lshift_func_int64_t_s_u+0x4c>
    7ad3:	48 8b 45 f8          	mov    -0x8(%rbp),%rax
    7ad7:	5d                   	pop    %rbp
    7ad8:	c3                   	retq   

0000000000007ad9 <safe_rshift_func_int64_t_s_s>:
    7ad9:	f3 0f 1e fa          	endbr64 
    7add:	55                   	push   %rbp
    7ade:	48 89 e5             	mov    %rsp,%rbp
    7ae1:	48 89 7d f8          	mov    %rdi,-0x8(%rbp)
    7ae5:	89 75 f4             	mov    %esi,-0xc(%rbp)
    7ae8:	48 83 7d f8 00       	cmpq   $0x0,-0x8(%rbp)
    7aed:	78 1d                	js     7b0c <safe_rshift_func_int64_t_s_s+0x33>
    7aef:	83 7d f4 00          	cmpl   $0x0,-0xc(%rbp)
    7af3:	78 17                	js     7b0c <safe_rshift_func_int64_t_s_s+0x33>
    7af5:	83 7d f4 1f          	cmpl   $0x1f,-0xc(%rbp)
    7af9:	7f 11                	jg     7b0c <safe_rshift_func_int64_t_s_s+0x33>
    7afb:	8b 45 f4             	mov    -0xc(%rbp),%eax
    7afe:	48 8b 55 f8          	mov    -0x8(%rbp),%rdx
    7b02:	89 c1                	mov    %eax,%ecx
    7b04:	48 d3 fa             	sar    %cl,%rdx
    7b07:	48 89 d0             	mov    %rdx,%rax
    7b0a:	eb 04                	jmp    7b10 <safe_rshift_func_int64_t_s_s+0x37>
    7b0c:	48 8b 45 f8          	mov    -0x8(%rbp),%rax
    7b10:	5d                   	pop    %rbp
    7b11:	c3                   	retq   

0000000000007b12 <safe_rshift_func_int64_t_s_u>:
    7b12:	f3 0f 1e fa          	endbr64 
    7b16:	55                   	push   %rbp
    7b17:	48 89 e5             	mov    %rsp,%rbp
    7b1a:	48 89 7d f8          	mov    %rdi,-0x8(%rbp)
    7b1e:	89 75 f4             	mov    %esi,-0xc(%rbp)
    7b21:	48 83 7d f8 00       	cmpq   $0x0,-0x8(%rbp)
    7b26:	78 17                	js     7b3f <safe_rshift_func_int64_t_s_u+0x2d>
    7b28:	83 7d f4 1f          	cmpl   $0x1f,-0xc(%rbp)
    7b2c:	77 11                	ja     7b3f <safe_rshift_func_int64_t_s_u+0x2d>
    7b2e:	8b 45 f4             	mov    -0xc(%rbp),%eax
    7b31:	48 8b 55 f8          	mov    -0x8(%rbp),%rdx
    7b35:	89 c1                	mov    %eax,%ecx
    7b37:	48 d3 fa             	sar    %cl,%rdx
    7b3a:	48 89 d0             	mov    %rdx,%rax
    7b3d:	eb 04                	jmp    7b43 <safe_rshift_func_int64_t_s_u+0x31>
    7b3f:	48 8b 45 f8          	mov    -0x8(%rbp),%rax
    7b43:	5d                   	pop    %rbp
    7b44:	c3                   	retq   

0000000000007b45 <safe_unary_minus_func_uint8_t_u>:
    7b45:	f3 0f 1e fa          	endbr64 
    7b49:	55                   	push   %rbp
    7b4a:	48 89 e5             	mov    %rsp,%rbp
    7b4d:	89 f8                	mov    %edi,%eax
    7b4f:	88 45 fc             	mov    %al,-0x4(%rbp)
    7b52:	0f b6 45 fc          	movzbl -0x4(%rbp),%eax
    7b56:	f7 d8                	neg    %eax
    7b58:	5d                   	pop    %rbp
    7b59:	c3                   	retq   

0000000000007b5a <safe_add_func_uint8_t_u_u>:
    7b5a:	f3 0f 1e fa          	endbr64 
    7b5e:	55                   	push   %rbp
    7b5f:	48 89 e5             	mov    %rsp,%rbp
    7b62:	89 fa                	mov    %edi,%edx
    7b64:	89 f0                	mov    %esi,%eax
    7b66:	88 55 fc             	mov    %dl,-0x4(%rbp)
    7b69:	88 45 f8             	mov    %al,-0x8(%rbp)
    7b6c:	0f b6 55 fc          	movzbl -0x4(%rbp),%edx
    7b70:	0f b6 45 f8          	movzbl -0x8(%rbp),%eax
    7b74:	01 d0                	add    %edx,%eax
    7b76:	5d                   	pop    %rbp
    7b77:	c3                   	retq   

0000000000007b78 <safe_sub_func_uint8_t_u_u>:
    7b78:	f3 0f 1e fa          	endbr64 
    7b7c:	55                   	push   %rbp
    7b7d:	48 89 e5             	mov    %rsp,%rbp
    7b80:	89 fa                	mov    %edi,%edx
    7b82:	89 f0                	mov    %esi,%eax
    7b84:	88 55 fc             	mov    %dl,-0x4(%rbp)
    7b87:	88 45 f8             	mov    %al,-0x8(%rbp)
    7b8a:	0f b6 45 fc          	movzbl -0x4(%rbp),%eax
    7b8e:	2a 45 f8             	sub    -0x8(%rbp),%al
    7b91:	5d                   	pop    %rbp
    7b92:	c3                   	retq   

0000000000007b93 <safe_mul_func_uint8_t_u_u>:
    7b93:	f3 0f 1e fa          	endbr64 
    7b97:	55                   	push   %rbp
    7b98:	48 89 e5             	mov    %rsp,%rbp
    7b9b:	89 fa                	mov    %edi,%edx
    7b9d:	89 f0                	mov    %esi,%eax
    7b9f:	88 55 fc             	mov    %dl,-0x4(%rbp)
    7ba2:	88 45 f8             	mov    %al,-0x8(%rbp)
    7ba5:	0f b6 45 fc          	movzbl -0x4(%rbp),%eax
    7ba9:	f6 65 f8             	mulb   -0x8(%rbp)
    7bac:	5d                   	pop    %rbp
    7bad:	c3                   	retq   

0000000000007bae <safe_mod_func_uint8_t_u_u>:
    7bae:	f3 0f 1e fa          	endbr64 
    7bb2:	55                   	push   %rbp
    7bb3:	48 89 e5             	mov    %rsp,%rbp
    7bb6:	89 fa                	mov    %edi,%edx
    7bb8:	89 f0                	mov    %esi,%eax
    7bba:	88 55 fc             	mov    %dl,-0x4(%rbp)
    7bbd:	88 45 f8             	mov    %al,-0x8(%rbp)
    7bc0:	80 7d f8 00          	cmpb   $0x0,-0x8(%rbp)
    7bc4:	74 0f                	je     7bd5 <safe_mod_func_uint8_t_u_u+0x27>
    7bc6:	0f b6 45 fc          	movzbl -0x4(%rbp),%eax
    7bca:	0f b6 c0             	movzbl %al,%eax
    7bcd:	f6 75 f8             	divb   -0x8(%rbp)
    7bd0:	0f b6 c4             	movzbl %ah,%eax
    7bd3:	eb 04                	jmp    7bd9 <safe_mod_func_uint8_t_u_u+0x2b>
    7bd5:	0f b6 45 fc          	movzbl -0x4(%rbp),%eax
    7bd9:	5d                   	pop    %rbp
    7bda:	c3                   	retq   

0000000000007bdb <safe_div_func_uint8_t_u_u>:
    7bdb:	f3 0f 1e fa          	endbr64 
    7bdf:	55                   	push   %rbp
    7be0:	48 89 e5             	mov    %rsp,%rbp
    7be3:	89 fa                	mov    %edi,%edx
    7be5:	89 f0                	mov    %esi,%eax
    7be7:	88 55 fc             	mov    %dl,-0x4(%rbp)
    7bea:	88 45 f8             	mov    %al,-0x8(%rbp)
    7bed:	80 7d f8 00          	cmpb   $0x0,-0x8(%rbp)
    7bf1:	74 0c                	je     7bff <safe_div_func_uint8_t_u_u+0x24>
    7bf3:	0f b6 45 fc          	movzbl -0x4(%rbp),%eax
    7bf7:	0f b6 c0             	movzbl %al,%eax
    7bfa:	f6 75 f8             	divb   -0x8(%rbp)
    7bfd:	eb 04                	jmp    7c03 <safe_div_func_uint8_t_u_u+0x28>
    7bff:	0f b6 45 fc          	movzbl -0x4(%rbp),%eax
    7c03:	5d                   	pop    %rbp
    7c04:	c3                   	retq   

0000000000007c05 <safe_lshift_func_uint8_t_u_s>:
    7c05:	f3 0f 1e fa          	endbr64 
    7c09:	55                   	push   %rbp
    7c0a:	48 89 e5             	mov    %rsp,%rbp
    7c0d:	89 f8                	mov    %edi,%eax
    7c0f:	89 75 f8             	mov    %esi,-0x8(%rbp)
    7c12:	88 45 fc             	mov    %al,-0x4(%rbp)
    7c15:	83 7d f8 00          	cmpl   $0x0,-0x8(%rbp)
    7c19:	78 2b                	js     7c46 <safe_lshift_func_uint8_t_u_s+0x41>
    7c1b:	83 7d f8 1f          	cmpl   $0x1f,-0x8(%rbp)
    7c1f:	7f 25                	jg     7c46 <safe_lshift_func_uint8_t_u_s+0x41>
    7c21:	0f b6 55 fc          	movzbl -0x4(%rbp),%edx
    7c25:	8b 45 f8             	mov    -0x8(%rbp),%eax
    7c28:	be ff 00 00 00       	mov    $0xff,%esi
    7c2d:	89 c1                	mov    %eax,%ecx
    7c2f:	d3 fe                	sar    %cl,%esi
    7c31:	89 f0                	mov    %esi,%eax
    7c33:	39 c2                	cmp    %eax,%edx
    7c35:	7f 0f                	jg     7c46 <safe_lshift_func_uint8_t_u_s+0x41>
    7c37:	0f b6 55 fc          	movzbl -0x4(%rbp),%edx
    7c3b:	8b 45 f8             	mov    -0x8(%rbp),%eax
    7c3e:	89 c1                	mov    %eax,%ecx
    7c40:	d3 e2                	shl    %cl,%edx
    7c42:	89 d0                	mov    %edx,%eax
    7c44:	eb 04                	jmp    7c4a <safe_lshift_func_uint8_t_u_s+0x45>
    7c46:	0f b6 45 fc          	movzbl -0x4(%rbp),%eax
    7c4a:	5d                   	pop    %rbp
    7c4b:	c3                   	retq   

0000000000007c4c <safe_lshift_func_uint8_t_u_u>:
    7c4c:	f3 0f 1e fa          	endbr64 
    7c50:	55                   	push   %rbp
    7c51:	48 89 e5             	mov    %rsp,%rbp
    7c54:	89 f8                	mov    %edi,%eax
    7c56:	89 75 f8             	mov    %esi,-0x8(%rbp)
    7c59:	88 45 fc             	mov    %al,-0x4(%rbp)
    7c5c:	83 7d f8 1f          	cmpl   $0x1f,-0x8(%rbp)
    7c60:	77 25                	ja     7c87 <safe_lshift_func_uint8_t_u_u+0x3b>
    7c62:	0f b6 55 fc          	movzbl -0x4(%rbp),%edx
    7c66:	8b 45 f8             	mov    -0x8(%rbp),%eax
    7c69:	be ff 00 00 00       	mov    $0xff,%esi
    7c6e:	89 c1                	mov    %eax,%ecx
    7c70:	d3 fe                	sar    %cl,%esi
    7c72:	89 f0                	mov    %esi,%eax
    7c74:	39 c2                	cmp    %eax,%edx
    7c76:	7f 0f                	jg     7c87 <safe_lshift_func_uint8_t_u_u+0x3b>
    7c78:	0f b6 55 fc          	movzbl -0x4(%rbp),%edx
    7c7c:	8b 45 f8             	mov    -0x8(%rbp),%eax
    7c7f:	89 c1                	mov    %eax,%ecx
    7c81:	d3 e2                	shl    %cl,%edx
    7c83:	89 d0                	mov    %edx,%eax
    7c85:	eb 04                	jmp    7c8b <safe_lshift_func_uint8_t_u_u+0x3f>
    7c87:	0f b6 45 fc          	movzbl -0x4(%rbp),%eax
    7c8b:	5d                   	pop    %rbp
    7c8c:	c3                   	retq   

0000000000007c8d <safe_rshift_func_uint8_t_u_s>:
    7c8d:	f3 0f 1e fa          	endbr64 
    7c91:	55                   	push   %rbp
    7c92:	48 89 e5             	mov    %rsp,%rbp
    7c95:	89 f8                	mov    %edi,%eax
    7c97:	89 75 f8             	mov    %esi,-0x8(%rbp)
    7c9a:	88 45 fc             	mov    %al,-0x4(%rbp)
    7c9d:	83 7d f8 00          	cmpl   $0x0,-0x8(%rbp)
    7ca1:	78 15                	js     7cb8 <safe_rshift_func_uint8_t_u_s+0x2b>
    7ca3:	83 7d f8 1f          	cmpl   $0x1f,-0x8(%rbp)
    7ca7:	7f 0f                	jg     7cb8 <safe_rshift_func_uint8_t_u_s+0x2b>
    7ca9:	0f b6 55 fc          	movzbl -0x4(%rbp),%edx
    7cad:	8b 45 f8             	mov    -0x8(%rbp),%eax
    7cb0:	89 c1                	mov    %eax,%ecx
    7cb2:	d3 fa                	sar    %cl,%edx
    7cb4:	89 d0                	mov    %edx,%eax
    7cb6:	eb 04                	jmp    7cbc <safe_rshift_func_uint8_t_u_s+0x2f>
    7cb8:	0f b6 45 fc          	movzbl -0x4(%rbp),%eax
    7cbc:	5d                   	pop    %rbp
    7cbd:	c3                   	retq   

0000000000007cbe <safe_rshift_func_uint8_t_u_u>:
    7cbe:	f3 0f 1e fa          	endbr64 
    7cc2:	55                   	push   %rbp
    7cc3:	48 89 e5             	mov    %rsp,%rbp
    7cc6:	89 f8                	mov    %edi,%eax
    7cc8:	89 75 f8             	mov    %esi,-0x8(%rbp)
    7ccb:	88 45 fc             	mov    %al,-0x4(%rbp)
    7cce:	83 7d f8 1f          	cmpl   $0x1f,-0x8(%rbp)
    7cd2:	77 0f                	ja     7ce3 <safe_rshift_func_uint8_t_u_u+0x25>
    7cd4:	0f b6 55 fc          	movzbl -0x4(%rbp),%edx
    7cd8:	8b 45 f8             	mov    -0x8(%rbp),%eax
    7cdb:	89 c1                	mov    %eax,%ecx
    7cdd:	d3 fa                	sar    %cl,%edx
    7cdf:	89 d0                	mov    %edx,%eax
    7ce1:	eb 04                	jmp    7ce7 <safe_rshift_func_uint8_t_u_u+0x29>
    7ce3:	0f b6 45 fc          	movzbl -0x4(%rbp),%eax
    7ce7:	5d                   	pop    %rbp
    7ce8:	c3                   	retq   

0000000000007ce9 <safe_unary_minus_func_uint16_t_u>:
    7ce9:	f3 0f 1e fa          	endbr64 
    7ced:	55                   	push   %rbp
    7cee:	48 89 e5             	mov    %rsp,%rbp
    7cf1:	89 f8                	mov    %edi,%eax
    7cf3:	66 89 45 fc          	mov    %ax,-0x4(%rbp)
    7cf7:	0f b7 45 fc          	movzwl -0x4(%rbp),%eax
    7cfb:	f7 d8                	neg    %eax
    7cfd:	5d                   	pop    %rbp
    7cfe:	c3                   	retq   

0000000000007cff <safe_add_func_uint16_t_u_u>:
    7cff:	f3 0f 1e fa          	endbr64 
    7d03:	55                   	push   %rbp
    7d04:	48 89 e5             	mov    %rsp,%rbp
    7d07:	89 fa                	mov    %edi,%edx
    7d09:	89 f0                	mov    %esi,%eax
    7d0b:	66 89 55 fc          	mov    %dx,-0x4(%rbp)
    7d0f:	66 89 45 f8          	mov    %ax,-0x8(%rbp)
    7d13:	0f b7 55 fc          	movzwl -0x4(%rbp),%edx
    7d17:	0f b7 45 f8          	movzwl -0x8(%rbp),%eax
    7d1b:	01 d0                	add    %edx,%eax
    7d1d:	5d                   	pop    %rbp
    7d1e:	c3                   	retq   

0000000000007d1f <safe_sub_func_uint16_t_u_u>:
    7d1f:	f3 0f 1e fa          	endbr64 
    7d23:	55                   	push   %rbp
    7d24:	48 89 e5             	mov    %rsp,%rbp
    7d27:	89 fa                	mov    %edi,%edx
    7d29:	89 f0                	mov    %esi,%eax
    7d2b:	66 89 55 fc          	mov    %dx,-0x4(%rbp)
    7d2f:	66 89 45 f8          	mov    %ax,-0x8(%rbp)
    7d33:	0f b7 45 fc          	movzwl -0x4(%rbp),%eax
    7d37:	66 2b 45 f8          	sub    -0x8(%rbp),%ax
    7d3b:	5d                   	pop    %rbp
    7d3c:	c3                   	retq   

0000000000007d3d <safe_mul_func_uint16_t_u_u>:
    7d3d:	f3 0f 1e fa          	endbr64 
    7d41:	55                   	push   %rbp
    7d42:	48 89 e5             	mov    %rsp,%rbp
    7d45:	89 fa                	mov    %edi,%edx
    7d47:	89 f0                	mov    %esi,%eax
    7d49:	66 89 55 fc          	mov    %dx,-0x4(%rbp)
    7d4d:	66 89 45 f8          	mov    %ax,-0x8(%rbp)
    7d51:	0f b7 45 fc          	movzwl -0x4(%rbp),%eax
    7d55:	66 0f af 45 f8       	imul   -0x8(%rbp),%ax
    7d5a:	5d                   	pop    %rbp
    7d5b:	c3                   	retq   

0000000000007d5c <safe_mod_func_uint16_t_u_u>:
    7d5c:	f3 0f 1e fa          	endbr64 
    7d60:	55                   	push   %rbp
    7d61:	48 89 e5             	mov    %rsp,%rbp
    7d64:	89 fa                	mov    %edi,%edx
    7d66:	89 f0                	mov    %esi,%eax
    7d68:	66 89 55 fc          	mov    %dx,-0x4(%rbp)
    7d6c:	66 89 45 f8          	mov    %ax,-0x8(%rbp)
    7d70:	66 83 7d f8 00       	cmpw   $0x0,-0x8(%rbp)
    7d75:	74 11                	je     7d88 <safe_mod_func_uint16_t_u_u+0x2c>
    7d77:	0f b7 45 fc          	movzwl -0x4(%rbp),%eax
    7d7b:	ba 00 00 00 00       	mov    $0x0,%edx
    7d80:	66 f7 75 f8          	divw   -0x8(%rbp)
    7d84:	89 d0                	mov    %edx,%eax
    7d86:	eb 04                	jmp    7d8c <safe_mod_func_uint16_t_u_u+0x30>
    7d88:	0f b7 45 fc          	movzwl -0x4(%rbp),%eax
    7d8c:	5d                   	pop    %rbp
    7d8d:	c3                   	retq   

0000000000007d8e <safe_div_func_uint16_t_u_u>:
    7d8e:	f3 0f 1e fa          	endbr64 
    7d92:	55                   	push   %rbp
    7d93:	48 89 e5             	mov    %rsp,%rbp
    7d96:	89 fa                	mov    %edi,%edx
    7d98:	89 f0                	mov    %esi,%eax
    7d9a:	66 89 55 fc          	mov    %dx,-0x4(%rbp)
    7d9e:	66 89 45 f8          	mov    %ax,-0x8(%rbp)
    7da2:	66 83 7d f8 00       	cmpw   $0x0,-0x8(%rbp)
    7da7:	74 0f                	je     7db8 <safe_div_func_uint16_t_u_u+0x2a>
    7da9:	0f b7 45 fc          	movzwl -0x4(%rbp),%eax
    7dad:	ba 00 00 00 00       	mov    $0x0,%edx
    7db2:	66 f7 75 f8          	divw   -0x8(%rbp)
    7db6:	eb 04                	jmp    7dbc <safe_div_func_uint16_t_u_u+0x2e>
    7db8:	0f b7 45 fc          	movzwl -0x4(%rbp),%eax
    7dbc:	5d                   	pop    %rbp
    7dbd:	c3                   	retq   

0000000000007dbe <safe_lshift_func_uint16_t_u_s>:
    7dbe:	f3 0f 1e fa          	endbr64 
    7dc2:	55                   	push   %rbp
    7dc3:	48 89 e5             	mov    %rsp,%rbp
    7dc6:	89 f8                	mov    %edi,%eax
    7dc8:	89 75 f8             	mov    %esi,-0x8(%rbp)
    7dcb:	66 89 45 fc          	mov    %ax,-0x4(%rbp)
    7dcf:	83 7d f8 00          	cmpl   $0x0,-0x8(%rbp)
    7dd3:	78 2b                	js     7e00 <safe_lshift_func_uint16_t_u_s+0x42>
    7dd5:	83 7d f8 1f          	cmpl   $0x1f,-0x8(%rbp)
    7dd9:	7f 25                	jg     7e00 <safe_lshift_func_uint16_t_u_s+0x42>
    7ddb:	0f b7 55 fc          	movzwl -0x4(%rbp),%edx
    7ddf:	8b 45 f8             	mov    -0x8(%rbp),%eax
    7de2:	be ff ff 00 00       	mov    $0xffff,%esi
    7de7:	89 c1                	mov    %eax,%ecx
    7de9:	d3 fe                	sar    %cl,%esi
    7deb:	89 f0                	mov    %esi,%eax
    7ded:	39 c2                	cmp    %eax,%edx
    7def:	7f 0f                	jg     7e00 <safe_lshift_func_uint16_t_u_s+0x42>
    7df1:	0f b7 55 fc          	movzwl -0x4(%rbp),%edx
    7df5:	8b 45 f8             	mov    -0x8(%rbp),%eax
    7df8:	89 c1                	mov    %eax,%ecx
    7dfa:	d3 e2                	shl    %cl,%edx
    7dfc:	89 d0                	mov    %edx,%eax
    7dfe:	eb 04                	jmp    7e04 <safe_lshift_func_uint16_t_u_s+0x46>
    7e00:	0f b7 45 fc          	movzwl -0x4(%rbp),%eax
    7e04:	5d                   	pop    %rbp
    7e05:	c3                   	retq   

0000000000007e06 <safe_lshift_func_uint16_t_u_u>:
    7e06:	f3 0f 1e fa          	endbr64 
    7e0a:	55                   	push   %rbp
    7e0b:	48 89 e5             	mov    %rsp,%rbp
    7e0e:	89 f8                	mov    %edi,%eax
    7e10:	89 75 f8             	mov    %esi,-0x8(%rbp)
    7e13:	66 89 45 fc          	mov    %ax,-0x4(%rbp)
    7e17:	83 7d f8 1f          	cmpl   $0x1f,-0x8(%rbp)
    7e1b:	77 25                	ja     7e42 <safe_lshift_func_uint16_t_u_u+0x3c>
    7e1d:	0f b7 55 fc          	movzwl -0x4(%rbp),%edx
    7e21:	8b 45 f8             	mov    -0x8(%rbp),%eax
    7e24:	be ff ff 00 00       	mov    $0xffff,%esi
    7e29:	89 c1                	mov    %eax,%ecx
    7e2b:	d3 fe                	sar    %cl,%esi
    7e2d:	89 f0                	mov    %esi,%eax
    7e2f:	39 c2                	cmp    %eax,%edx
    7e31:	7f 0f                	jg     7e42 <safe_lshift_func_uint16_t_u_u+0x3c>
    7e33:	0f b7 55 fc          	movzwl -0x4(%rbp),%edx
    7e37:	8b 45 f8             	mov    -0x8(%rbp),%eax
    7e3a:	89 c1                	mov    %eax,%ecx
    7e3c:	d3 e2                	shl    %cl,%edx
    7e3e:	89 d0                	mov    %edx,%eax
    7e40:	eb 04                	jmp    7e46 <safe_lshift_func_uint16_t_u_u+0x40>
    7e42:	0f b7 45 fc          	movzwl -0x4(%rbp),%eax
    7e46:	5d                   	pop    %rbp
    7e47:	c3                   	retq   

0000000000007e48 <safe_rshift_func_uint16_t_u_s>:
    7e48:	f3 0f 1e fa          	endbr64 
    7e4c:	55                   	push   %rbp
    7e4d:	48 89 e5             	mov    %rsp,%rbp
    7e50:	89 f8                	mov    %edi,%eax
    7e52:	89 75 f8             	mov    %esi,-0x8(%rbp)
    7e55:	66 89 45 fc          	mov    %ax,-0x4(%rbp)
    7e59:	83 7d f8 00          	cmpl   $0x0,-0x8(%rbp)
    7e5d:	78 15                	js     7e74 <safe_rshift_func_uint16_t_u_s+0x2c>
    7e5f:	83 7d f8 1f          	cmpl   $0x1f,-0x8(%rbp)
    7e63:	7f 0f                	jg     7e74 <safe_rshift_func_uint16_t_u_s+0x2c>
    7e65:	0f b7 55 fc          	movzwl -0x4(%rbp),%edx
    7e69:	8b 45 f8             	mov    -0x8(%rbp),%eax
    7e6c:	89 c1                	mov    %eax,%ecx
    7e6e:	d3 fa                	sar    %cl,%edx
    7e70:	89 d0                	mov    %edx,%eax
    7e72:	eb 04                	jmp    7e78 <safe_rshift_func_uint16_t_u_s+0x30>
    7e74:	0f b7 45 fc          	movzwl -0x4(%rbp),%eax
    7e78:	5d                   	pop    %rbp
    7e79:	c3                   	retq   

0000000000007e7a <safe_rshift_func_uint16_t_u_u>:
    7e7a:	f3 0f 1e fa          	endbr64 
    7e7e:	55                   	push   %rbp
    7e7f:	48 89 e5             	mov    %rsp,%rbp
    7e82:	89 f8                	mov    %edi,%eax
    7e84:	89 75 f8             	mov    %esi,-0x8(%rbp)
    7e87:	66 89 45 fc          	mov    %ax,-0x4(%rbp)
    7e8b:	83 7d f8 1f          	cmpl   $0x1f,-0x8(%rbp)
    7e8f:	77 0f                	ja     7ea0 <safe_rshift_func_uint16_t_u_u+0x26>
    7e91:	0f b7 55 fc          	movzwl -0x4(%rbp),%edx
    7e95:	8b 45 f8             	mov    -0x8(%rbp),%eax
    7e98:	89 c1                	mov    %eax,%ecx
    7e9a:	d3 fa                	sar    %cl,%edx
    7e9c:	89 d0                	mov    %edx,%eax
    7e9e:	eb 04                	jmp    7ea4 <safe_rshift_func_uint16_t_u_u+0x2a>
    7ea0:	0f b7 45 fc          	movzwl -0x4(%rbp),%eax
    7ea4:	5d                   	pop    %rbp
    7ea5:	c3                   	retq   

0000000000007ea6 <safe_unary_minus_func_uint32_t_u>:
    7ea6:	f3 0f 1e fa          	endbr64 
    7eaa:	55                   	push   %rbp
    7eab:	48 89 e5             	mov    %rsp,%rbp
    7eae:	89 7d fc             	mov    %edi,-0x4(%rbp)
    7eb1:	8b 45 fc             	mov    -0x4(%rbp),%eax
    7eb4:	f7 d8                	neg    %eax
    7eb6:	5d                   	pop    %rbp
    7eb7:	c3                   	retq   

0000000000007eb8 <safe_add_func_uint32_t_u_u>:
    7eb8:	f3 0f 1e fa          	endbr64 
    7ebc:	55                   	push   %rbp
    7ebd:	48 89 e5             	mov    %rsp,%rbp
    7ec0:	89 7d fc             	mov    %edi,-0x4(%rbp)
    7ec3:	89 75 f8             	mov    %esi,-0x8(%rbp)
    7ec6:	8b 55 fc             	mov    -0x4(%rbp),%edx
    7ec9:	8b 45 f8             	mov    -0x8(%rbp),%eax
    7ecc:	01 d0                	add    %edx,%eax
    7ece:	5d                   	pop    %rbp
    7ecf:	c3                   	retq   

0000000000007ed0 <safe_sub_func_uint32_t_u_u>:
    7ed0:	f3 0f 1e fa          	endbr64 
    7ed4:	55                   	push   %rbp
    7ed5:	48 89 e5             	mov    %rsp,%rbp
    7ed8:	89 7d fc             	mov    %edi,-0x4(%rbp)
    7edb:	89 75 f8             	mov    %esi,-0x8(%rbp)
    7ede:	8b 45 fc             	mov    -0x4(%rbp),%eax
    7ee1:	2b 45 f8             	sub    -0x8(%rbp),%eax
    7ee4:	5d                   	pop    %rbp
    7ee5:	c3                   	retq   

0000000000007ee6 <safe_mul_func_uint32_t_u_u>:
    7ee6:	f3 0f 1e fa          	endbr64 
    7eea:	55                   	push   %rbp
    7eeb:	48 89 e5             	mov    %rsp,%rbp
    7eee:	89 7d fc             	mov    %edi,-0x4(%rbp)
    7ef1:	89 75 f8             	mov    %esi,-0x8(%rbp)
    7ef4:	8b 45 fc             	mov    -0x4(%rbp),%eax
    7ef7:	0f af 45 f8          	imul   -0x8(%rbp),%eax
    7efb:	5d                   	pop    %rbp
    7efc:	c3                   	retq   

0000000000007efd <safe_mod_func_uint32_t_u_u>:
    7efd:	f3 0f 1e fa          	endbr64 
    7f01:	55                   	push   %rbp
    7f02:	48 89 e5             	mov    %rsp,%rbp
    7f05:	89 7d fc             	mov    %edi,-0x4(%rbp)
    7f08:	89 75 f8             	mov    %esi,-0x8(%rbp)
    7f0b:	83 7d f8 00          	cmpl   $0x0,-0x8(%rbp)
    7f0f:	74 0f                	je     7f20 <safe_mod_func_uint32_t_u_u+0x23>
    7f11:	8b 45 fc             	mov    -0x4(%rbp),%eax
    7f14:	ba 00 00 00 00       	mov    $0x0,%edx
    7f19:	f7 75 f8             	divl   -0x8(%rbp)
    7f1c:	89 d0                	mov    %edx,%eax
    7f1e:	eb 03                	jmp    7f23 <safe_mod_func_uint32_t_u_u+0x26>
    7f20:	8b 45 fc             	mov    -0x4(%rbp),%eax
    7f23:	5d                   	pop    %rbp
    7f24:	c3                   	retq   

0000000000007f25 <safe_div_func_uint32_t_u_u>:
    7f25:	f3 0f 1e fa          	endbr64 
    7f29:	55                   	push   %rbp
    7f2a:	48 89 e5             	mov    %rsp,%rbp
    7f2d:	89 7d fc             	mov    %edi,-0x4(%rbp)
    7f30:	89 75 f8             	mov    %esi,-0x8(%rbp)
    7f33:	83 7d f8 00          	cmpl   $0x0,-0x8(%rbp)
    7f37:	74 0d                	je     7f46 <safe_div_func_uint32_t_u_u+0x21>
    7f39:	8b 45 fc             	mov    -0x4(%rbp),%eax
    7f3c:	ba 00 00 00 00       	mov    $0x0,%edx
    7f41:	f7 75 f8             	divl   -0x8(%rbp)
    7f44:	eb 03                	jmp    7f49 <safe_div_func_uint32_t_u_u+0x24>
    7f46:	8b 45 fc             	mov    -0x4(%rbp),%eax
    7f49:	5d                   	pop    %rbp
    7f4a:	c3                   	retq   

0000000000007f4b <safe_lshift_func_uint32_t_u_s>:
    7f4b:	f3 0f 1e fa          	endbr64 
    7f4f:	55                   	push   %rbp
    7f50:	48 89 e5             	mov    %rsp,%rbp
    7f53:	89 7d fc             	mov    %edi,-0x4(%rbp)
    7f56:	89 75 f8             	mov    %esi,-0x8(%rbp)
    7f59:	83 7d f8 00          	cmpl   $0x0,-0x8(%rbp)
    7f5d:	78 27                	js     7f86 <safe_lshift_func_uint32_t_u_s+0x3b>
    7f5f:	83 7d f8 1f          	cmpl   $0x1f,-0x8(%rbp)
    7f63:	7f 21                	jg     7f86 <safe_lshift_func_uint32_t_u_s+0x3b>
    7f65:	8b 45 f8             	mov    -0x8(%rbp),%eax
    7f68:	ba ff ff ff ff       	mov    $0xffffffff,%edx
    7f6d:	89 c1                	mov    %eax,%ecx
    7f6f:	d3 ea                	shr    %cl,%edx
    7f71:	89 d0                	mov    %edx,%eax
    7f73:	39 45 fc             	cmp    %eax,-0x4(%rbp)
    7f76:	77 0e                	ja     7f86 <safe_lshift_func_uint32_t_u_s+0x3b>
    7f78:	8b 45 f8             	mov    -0x8(%rbp),%eax
    7f7b:	8b 55 fc             	mov    -0x4(%rbp),%edx
    7f7e:	89 c1                	mov    %eax,%ecx
    7f80:	d3 e2                	shl    %cl,%edx
    7f82:	89 d0                	mov    %edx,%eax
    7f84:	eb 03                	jmp    7f89 <safe_lshift_func_uint32_t_u_s+0x3e>
    7f86:	8b 45 fc             	mov    -0x4(%rbp),%eax
    7f89:	5d                   	pop    %rbp
    7f8a:	c3                   	retq   

0000000000007f8b <safe_lshift_func_uint32_t_u_u>:
    7f8b:	f3 0f 1e fa          	endbr64 
    7f8f:	55                   	push   %rbp
    7f90:	48 89 e5             	mov    %rsp,%rbp
    7f93:	89 7d fc             	mov    %edi,-0x4(%rbp)
    7f96:	89 75 f8             	mov    %esi,-0x8(%rbp)
    7f99:	83 7d f8 1f          	cmpl   $0x1f,-0x8(%rbp)
    7f9d:	77 21                	ja     7fc0 <safe_lshift_func_uint32_t_u_u+0x35>
    7f9f:	8b 45 f8             	mov    -0x8(%rbp),%eax
    7fa2:	ba ff ff ff ff       	mov    $0xffffffff,%edx
    7fa7:	89 c1                	mov    %eax,%ecx
    7fa9:	d3 ea                	shr    %cl,%edx
    7fab:	89 d0                	mov    %edx,%eax
    7fad:	39 45 fc             	cmp    %eax,-0x4(%rbp)
    7fb0:	77 0e                	ja     7fc0 <safe_lshift_func_uint32_t_u_u+0x35>
    7fb2:	8b 45 f8             	mov    -0x8(%rbp),%eax
    7fb5:	8b 55 fc             	mov    -0x4(%rbp),%edx
    7fb8:	89 c1                	mov    %eax,%ecx
    7fba:	d3 e2                	shl    %cl,%edx
    7fbc:	89 d0                	mov    %edx,%eax
    7fbe:	eb 03                	jmp    7fc3 <safe_lshift_func_uint32_t_u_u+0x38>
    7fc0:	8b 45 fc             	mov    -0x4(%rbp),%eax
    7fc3:	5d                   	pop    %rbp
    7fc4:	c3                   	retq   

0000000000007fc5 <safe_rshift_func_uint32_t_u_s>:
    7fc5:	f3 0f 1e fa          	endbr64 
    7fc9:	55                   	push   %rbp
    7fca:	48 89 e5             	mov    %rsp,%rbp
    7fcd:	89 7d fc             	mov    %edi,-0x4(%rbp)
    7fd0:	89 75 f8             	mov    %esi,-0x8(%rbp)
    7fd3:	83 7d f8 00          	cmpl   $0x0,-0x8(%rbp)
    7fd7:	78 14                	js     7fed <safe_rshift_func_uint32_t_u_s+0x28>
    7fd9:	83 7d f8 1f          	cmpl   $0x1f,-0x8(%rbp)
    7fdd:	7f 0e                	jg     7fed <safe_rshift_func_uint32_t_u_s+0x28>
    7fdf:	8b 45 f8             	mov    -0x8(%rbp),%eax
    7fe2:	8b 55 fc             	mov    -0x4(%rbp),%edx
    7fe5:	89 c1                	mov    %eax,%ecx
    7fe7:	d3 ea                	shr    %cl,%edx
    7fe9:	89 d0                	mov    %edx,%eax
    7feb:	eb 03                	jmp    7ff0 <safe_rshift_func_uint32_t_u_s+0x2b>
    7fed:	8b 45 fc             	mov    -0x4(%rbp),%eax
    7ff0:	5d                   	pop    %rbp
    7ff1:	c3                   	retq   

0000000000007ff2 <safe_rshift_func_uint32_t_u_u>:
    7ff2:	f3 0f 1e fa          	endbr64 
    7ff6:	55                   	push   %rbp
    7ff7:	48 89 e5             	mov    %rsp,%rbp
    7ffa:	89 7d fc             	mov    %edi,-0x4(%rbp)
    7ffd:	89 75 f8             	mov    %esi,-0x8(%rbp)
    8000:	83 7d f8 1f          	cmpl   $0x1f,-0x8(%rbp)
    8004:	77 0e                	ja     8014 <safe_rshift_func_uint32_t_u_u+0x22>
    8006:	8b 45 f8             	mov    -0x8(%rbp),%eax
    8009:	8b 55 fc             	mov    -0x4(%rbp),%edx
    800c:	89 c1                	mov    %eax,%ecx
    800e:	d3 ea                	shr    %cl,%edx
    8010:	89 d0                	mov    %edx,%eax
    8012:	eb 03                	jmp    8017 <safe_rshift_func_uint32_t_u_u+0x25>
    8014:	8b 45 fc             	mov    -0x4(%rbp),%eax
    8017:	5d                   	pop    %rbp
    8018:	c3                   	retq   

0000000000008019 <safe_unary_minus_func_uint64_t_u>:
    8019:	f3 0f 1e fa          	endbr64 
    801d:	55                   	push   %rbp
    801e:	48 89 e5             	mov    %rsp,%rbp
    8021:	48 89 7d f8          	mov    %rdi,-0x8(%rbp)
    8025:	48 8b 45 f8          	mov    -0x8(%rbp),%rax
    8029:	48 f7 d8             	neg    %rax
    802c:	5d                   	pop    %rbp
    802d:	c3                   	retq   

000000000000802e <safe_add_func_uint64_t_u_u>:
    802e:	f3 0f 1e fa          	endbr64 
    8032:	55                   	push   %rbp
    8033:	48 89 e5             	mov    %rsp,%rbp
    8036:	48 89 7d f8          	mov    %rdi,-0x8(%rbp)
    803a:	48 89 75 f0          	mov    %rsi,-0x10(%rbp)
    803e:	48 8b 55 f8          	mov    -0x8(%rbp),%rdx
    8042:	48 8b 45 f0          	mov    -0x10(%rbp),%rax
    8046:	48 01 d0             	add    %rdx,%rax
    8049:	5d                   	pop    %rbp
    804a:	c3                   	retq   

000000000000804b <safe_sub_func_uint64_t_u_u>:
    804b:	f3 0f 1e fa          	endbr64 
    804f:	55                   	push   %rbp
    8050:	48 89 e5             	mov    %rsp,%rbp
    8053:	48 89 7d f8          	mov    %rdi,-0x8(%rbp)
    8057:	48 89 75 f0          	mov    %rsi,-0x10(%rbp)
    805b:	48 8b 45 f8          	mov    -0x8(%rbp),%rax
    805f:	48 2b 45 f0          	sub    -0x10(%rbp),%rax
    8063:	5d                   	pop    %rbp
    8064:	c3                   	retq   

0000000000008065 <safe_mul_func_uint64_t_u_u>:
    8065:	f3 0f 1e fa          	endbr64 
    8069:	55                   	push   %rbp
    806a:	48 89 e5             	mov    %rsp,%rbp
    806d:	48 89 7d f8          	mov    %rdi,-0x8(%rbp)
    8071:	48 89 75 f0          	mov    %rsi,-0x10(%rbp)
    8075:	48 8b 45 f8          	mov    -0x8(%rbp),%rax
    8079:	48 0f af 45 f0       	imul   -0x10(%rbp),%rax
    807e:	5d                   	pop    %rbp
    807f:	c3                   	retq   

0000000000008080 <safe_mod_func_uint64_t_u_u>:
    8080:	f3 0f 1e fa          	endbr64 
    8084:	55                   	push   %rbp
    8085:	48 89 e5             	mov    %rsp,%rbp
    8088:	48 89 7d f8          	mov    %rdi,-0x8(%rbp)
    808c:	48 89 75 f0          	mov    %rsi,-0x10(%rbp)
    8090:	48 83 7d f0 00       	cmpq   $0x0,-0x10(%rbp)
    8095:	74 12                	je     80a9 <safe_mod_func_uint64_t_u_u+0x29>
    8097:	48 8b 45 f8          	mov    -0x8(%rbp),%rax
    809b:	ba 00 00 00 00       	mov    $0x0,%edx
    80a0:	48 f7 75 f0          	divq   -0x10(%rbp)
    80a4:	48 89 d0             	mov    %rdx,%rax
    80a7:	eb 04                	jmp    80ad <safe_mod_func_uint64_t_u_u+0x2d>
    80a9:	48 8b 45 f8          	mov    -0x8(%rbp),%rax
    80ad:	5d                   	pop    %rbp
    80ae:	c3                   	retq   

00000000000080af <safe_div_func_uint64_t_u_u>:
    80af:	f3 0f 1e fa          	endbr64 
    80b3:	55                   	push   %rbp
    80b4:	48 89 e5             	mov    %rsp,%rbp
    80b7:	48 89 7d f8          	mov    %rdi,-0x8(%rbp)
    80bb:	48 89 75 f0          	mov    %rsi,-0x10(%rbp)
    80bf:	48 83 7d f0 00       	cmpq   $0x0,-0x10(%rbp)
    80c4:	74 0f                	je     80d5 <safe_div_func_uint64_t_u_u+0x26>
    80c6:	48 8b 45 f8          	mov    -0x8(%rbp),%rax
    80ca:	ba 00 00 00 00       	mov    $0x0,%edx
    80cf:	48 f7 75 f0          	divq   -0x10(%rbp)
    80d3:	eb 04                	jmp    80d9 <safe_div_func_uint64_t_u_u+0x2a>
    80d5:	48 8b 45 f8          	mov    -0x8(%rbp),%rax
    80d9:	5d                   	pop    %rbp
    80da:	c3                   	retq   

00000000000080db <safe_lshift_func_uint64_t_u_s>:
    80db:	f3 0f 1e fa          	endbr64 
    80df:	55                   	push   %rbp
    80e0:	48 89 e5             	mov    %rsp,%rbp
    80e3:	48 89 7d f8          	mov    %rdi,-0x8(%rbp)
    80e7:	89 75 f4             	mov    %esi,-0xc(%rbp)
    80ea:	83 7d f4 00          	cmpl   $0x0,-0xc(%rbp)
    80ee:	78 2f                	js     811f <safe_lshift_func_uint64_t_u_s+0x44>
    80f0:	83 7d f4 1f          	cmpl   $0x1f,-0xc(%rbp)
    80f4:	7f 29                	jg     811f <safe_lshift_func_uint64_t_u_s+0x44>
    80f6:	8b 45 f4             	mov    -0xc(%rbp),%eax
    80f9:	48 c7 c2 ff ff ff ff 	mov    $0xffffffffffffffff,%rdx
    8100:	89 c1                	mov    %eax,%ecx
    8102:	48 d3 ea             	shr    %cl,%rdx
    8105:	48 89 d0             	mov    %rdx,%rax
    8108:	48 39 45 f8          	cmp    %rax,-0x8(%rbp)
    810c:	77 11                	ja     811f <safe_lshift_func_uint64_t_u_s+0x44>
    810e:	8b 45 f4             	mov    -0xc(%rbp),%eax
    8111:	48 8b 55 f8          	mov    -0x8(%rbp),%rdx
    8115:	89 c1                	mov    %eax,%ecx
    8117:	48 d3 e2             	shl    %cl,%rdx
    811a:	48 89 d0             	mov    %rdx,%rax
    811d:	eb 04                	jmp    8123 <safe_lshift_func_uint64_t_u_s+0x48>
    811f:	48 8b 45 f8          	mov    -0x8(%rbp),%rax
    8123:	5d                   	pop    %rbp
    8124:	c3                   	retq   

0000000000008125 <safe_lshift_func_uint64_t_u_u>:
    8125:	f3 0f 1e fa          	endbr64 
    8129:	55                   	push   %rbp
    812a:	48 89 e5             	mov    %rsp,%rbp
    812d:	48 89 7d f8          	mov    %rdi,-0x8(%rbp)
    8131:	89 75 f4             	mov    %esi,-0xc(%rbp)
    8134:	83 7d f4 1f          	cmpl   $0x1f,-0xc(%rbp)
    8138:	77 29                	ja     8163 <safe_lshift_func_uint64_t_u_u+0x3e>
    813a:	8b 45 f4             	mov    -0xc(%rbp),%eax
    813d:	48 c7 c2 ff ff ff ff 	mov    $0xffffffffffffffff,%rdx
    8144:	89 c1                	mov    %eax,%ecx
    8146:	48 d3 ea             	shr    %cl,%rdx
    8149:	48 89 d0             	mov    %rdx,%rax
    814c:	48 39 45 f8          	cmp    %rax,-0x8(%rbp)
    8150:	77 11                	ja     8163 <safe_lshift_func_uint64_t_u_u+0x3e>
    8152:	8b 45 f4             	mov    -0xc(%rbp),%eax
    8155:	48 8b 55 f8          	mov    -0x8(%rbp),%rdx
    8159:	89 c1                	mov    %eax,%ecx
    815b:	48 d3 e2             	shl    %cl,%rdx
    815e:	48 89 d0             	mov    %rdx,%rax
    8161:	eb 04                	jmp    8167 <safe_lshift_func_uint64_t_u_u+0x42>
    8163:	48 8b 45 f8          	mov    -0x8(%rbp),%rax
    8167:	5d                   	pop    %rbp
    8168:	c3                   	retq   

0000000000008169 <safe_rshift_func_uint64_t_u_s>:
    8169:	f3 0f 1e fa          	endbr64 
    816d:	55                   	push   %rbp
    816e:	48 89 e5             	mov    %rsp,%rbp
    8171:	48 89 7d f8          	mov    %rdi,-0x8(%rbp)
    8175:	89 75 f4             	mov    %esi,-0xc(%rbp)
    8178:	83 7d f4 00          	cmpl   $0x0,-0xc(%rbp)
    817c:	78 17                	js     8195 <safe_rshift_func_uint64_t_u_s+0x2c>
    817e:	83 7d f4 1f          	cmpl   $0x1f,-0xc(%rbp)
    8182:	7f 11                	jg     8195 <safe_rshift_func_uint64_t_u_s+0x2c>
    8184:	8b 45 f4             	mov    -0xc(%rbp),%eax
    8187:	48 8b 55 f8          	mov    -0x8(%rbp),%rdx
    818b:	89 c1                	mov    %eax,%ecx
    818d:	48 d3 ea             	shr    %cl,%rdx
    8190:	48 89 d0             	mov    %rdx,%rax
    8193:	eb 04                	jmp    8199 <safe_rshift_func_uint64_t_u_s+0x30>
    8195:	48 8b 45 f8          	mov    -0x8(%rbp),%rax
    8199:	5d                   	pop    %rbp
    819a:	c3                   	retq   

000000000000819b <safe_rshift_func_uint64_t_u_u>:
    819b:	f3 0f 1e fa          	endbr64 
    819f:	55                   	push   %rbp
    81a0:	48 89 e5             	mov    %rsp,%rbp
    81a3:	48 89 7d f8          	mov    %rdi,-0x8(%rbp)
    81a7:	89 75 f4             	mov    %esi,-0xc(%rbp)
    81aa:	83 7d f4 1f          	cmpl   $0x1f,-0xc(%rbp)
    81ae:	77 11                	ja     81c1 <safe_rshift_func_uint64_t_u_u+0x26>
    81b0:	8b 45 f4             	mov    -0xc(%rbp),%eax
    81b3:	48 8b 55 f8          	mov    -0x8(%rbp),%rdx
    81b7:	89 c1                	mov    %eax,%ecx
    81b9:	48 d3 ea             	shr    %cl,%rdx
    81bc:	48 89 d0             	mov    %rdx,%rax
    81bf:	eb 04                	jmp    81c5 <safe_rshift_func_uint64_t_u_u+0x2a>
    81c1:	48 8b 45 f8          	mov    -0x8(%rbp),%rax
    81c5:	5d                   	pop    %rbp
    81c6:	c3                   	retq   

00000000000081c7 <safe_add_func_float_f_f>:
    81c7:	f3 0f 1e fa          	endbr64 
    81cb:	55                   	push   %rbp
    81cc:	48 89 e5             	mov    %rsp,%rbp
    81cf:	f3 0f 11 45 fc       	movss  %xmm0,-0x4(%rbp)
    81d4:	f3 0f 11 4d f8       	movss  %xmm1,-0x8(%rbp)
    81d9:	f3 0f 10 4d fc       	movss  -0x4(%rbp),%xmm1
    81de:	f3 0f 10 05 a2 e0 00 	movss  0xe0a2(%rip),%xmm0        # 16288 <g_2798+0x1214>
    81e5:	00 
    81e6:	f3 0f 59 c8          	mulss  %xmm0,%xmm1
    81ea:	f3 0f 10 55 f8       	movss  -0x8(%rbp),%xmm2
    81ef:	f3 0f 10 05 91 e0 00 	movss  0xe091(%rip),%xmm0        # 16288 <g_2798+0x1214>
    81f6:	00 
    81f7:	f3 0f 59 c2          	mulss  %xmm2,%xmm0
    81fb:	f3 0f 58 c1          	addss  %xmm1,%xmm0
    81ff:	f3 0f 10 0d 89 e0 00 	movss  0xe089(%rip),%xmm1        # 16290 <g_2798+0x121c>
    8206:	00 
    8207:	0f 54 c1             	andps  %xmm1,%xmm0
    820a:	0f 2f 05 8f e0 00 00 	comiss 0xe08f(%rip),%xmm0        # 162a0 <g_2798+0x122c>
    8211:	76 07                	jbe    821a <safe_add_func_float_f_f+0x53>
    8213:	f3 0f 10 45 fc       	movss  -0x4(%rbp),%xmm0
    8218:	eb 0a                	jmp    8224 <safe_add_func_float_f_f+0x5d>
    821a:	f3 0f 10 45 fc       	movss  -0x4(%rbp),%xmm0
    821f:	f3 0f 58 45 f8       	addss  -0x8(%rbp),%xmm0
    8224:	5d                   	pop    %rbp
    8225:	c3                   	retq   

0000000000008226 <safe_sub_func_float_f_f>:
    8226:	f3 0f 1e fa          	endbr64 
    822a:	55                   	push   %rbp
    822b:	48 89 e5             	mov    %rsp,%rbp
    822e:	f3 0f 11 45 fc       	movss  %xmm0,-0x4(%rbp)
    8233:	f3 0f 11 4d f8       	movss  %xmm1,-0x8(%rbp)
    8238:	f3 0f 10 4d fc       	movss  -0x4(%rbp),%xmm1
    823d:	f3 0f 10 05 43 e0 00 	movss  0xe043(%rip),%xmm0        # 16288 <g_2798+0x1214>
    8244:	00 
    8245:	f3 0f 59 c1          	mulss  %xmm1,%xmm0
    8249:	f3 0f 10 55 f8       	movss  -0x8(%rbp),%xmm2
    824e:	f3 0f 10 0d 32 e0 00 	movss  0xe032(%rip),%xmm1        # 16288 <g_2798+0x1214>
    8255:	00 
    8256:	f3 0f 59 ca          	mulss  %xmm2,%xmm1
    825a:	f3 0f 5c c1          	subss  %xmm1,%xmm0
    825e:	f3 0f 10 0d 2a e0 00 	movss  0xe02a(%rip),%xmm1        # 16290 <g_2798+0x121c>
    8265:	00 
    8266:	0f 54 c1             	andps  %xmm1,%xmm0
    8269:	0f 2f 05 30 e0 00 00 	comiss 0xe030(%rip),%xmm0        # 162a0 <g_2798+0x122c>
    8270:	76 07                	jbe    8279 <safe_sub_func_float_f_f+0x53>
    8272:	f3 0f 10 45 fc       	movss  -0x4(%rbp),%xmm0
    8277:	eb 0a                	jmp    8283 <safe_sub_func_float_f_f+0x5d>
    8279:	f3 0f 10 45 fc       	movss  -0x4(%rbp),%xmm0
    827e:	f3 0f 5c 45 f8       	subss  -0x8(%rbp),%xmm0
    8283:	5d                   	pop    %rbp
    8284:	c3                   	retq   

0000000000008285 <safe_mul_func_float_f_f>:
    8285:	f3 0f 1e fa          	endbr64 
    8289:	55                   	push   %rbp
    828a:	48 89 e5             	mov    %rsp,%rbp
    828d:	f3 0f 11 45 fc       	movss  %xmm0,-0x4(%rbp)
    8292:	f3 0f 11 4d f8       	movss  %xmm1,-0x8(%rbp)
    8297:	f3 0f 10 4d fc       	movss  -0x4(%rbp),%xmm1
    829c:	f3 0f 10 05 00 e0 00 	movss  0xe000(%rip),%xmm0        # 162a4 <g_2798+0x1230>
    82a3:	00 
    82a4:	f3 0f 59 c8          	mulss  %xmm0,%xmm1
    82a8:	f3 0f 10 55 f8       	movss  -0x8(%rbp),%xmm2
    82ad:	f3 0f 10 05 f3 df 00 	movss  0xdff3(%rip),%xmm0        # 162a8 <g_2798+0x1234>
    82b4:	00 
    82b5:	f3 0f 59 c2          	mulss  %xmm2,%xmm0
    82b9:	f3 0f 59 c1          	mulss  %xmm1,%xmm0
    82bd:	f3 0f 10 0d cb df 00 	movss  0xdfcb(%rip),%xmm1        # 16290 <g_2798+0x121c>
    82c4:	00 
    82c5:	0f 54 c1             	andps  %xmm1,%xmm0
    82c8:	0f 2f 05 dd df 00 00 	comiss 0xdfdd(%rip),%xmm0        # 162ac <g_2798+0x1238>
    82cf:	76 07                	jbe    82d8 <safe_mul_func_float_f_f+0x53>
    82d1:	f3 0f 10 45 fc       	movss  -0x4(%rbp),%xmm0
    82d6:	eb 0a                	jmp    82e2 <safe_mul_func_float_f_f+0x5d>
    82d8:	f3 0f 10 45 fc       	movss  -0x4(%rbp),%xmm0
    82dd:	f3 0f 59 45 f8       	mulss  -0x8(%rbp),%xmm0
    82e2:	5d                   	pop    %rbp
    82e3:	c3                   	retq   

00000000000082e4 <safe_div_func_float_f_f>:
    82e4:	f3 0f 1e fa          	endbr64 
    82e8:	55                   	push   %rbp
    82e9:	48 89 e5             	mov    %rsp,%rbp
    82ec:	f3 0f 11 45 fc       	movss  %xmm0,-0x4(%rbp)
    82f1:	f3 0f 11 4d f8       	movss  %xmm1,-0x8(%rbp)
    82f6:	f3 0f 10 45 f8       	movss  -0x8(%rbp),%xmm0
    82fb:	f3 0f 10 0d 8d df 00 	movss  0xdf8d(%rip),%xmm1        # 16290 <g_2798+0x121c>
    8302:	00 
    8303:	0f 54 c8             	andps  %xmm0,%xmm1
    8306:	f3 0f 10 05 a2 df 00 	movss  0xdfa2(%rip),%xmm0        # 162b0 <g_2798+0x123c>
    830d:	00 
    830e:	0f 2f c1             	comiss %xmm1,%xmm0
    8311:	0f 97 c0             	seta   %al
    8314:	83 f0 01             	xor    $0x1,%eax
    8317:	84 c0                	test   %al,%al
    8319:	75 56                	jne    8371 <safe_div_func_float_f_f+0x8d>
    831b:	66 0f ef c0          	pxor   %xmm0,%xmm0
    831f:	0f 2e 45 f8          	ucomiss -0x8(%rbp),%xmm0
    8323:	7a 0a                	jp     832f <safe_div_func_float_f_f+0x4b>
    8325:	66 0f ef c0          	pxor   %xmm0,%xmm0
    8329:	0f 2e 45 f8          	ucomiss -0x8(%rbp),%xmm0
    832d:	74 4e                	je     837d <safe_div_func_float_f_f+0x99>
    832f:	f3 0f 10 4d fc       	movss  -0x4(%rbp),%xmm1
    8334:	f3 0f 10 05 78 df 00 	movss  0xdf78(%rip),%xmm0        # 162b4 <g_2798+0x1240>
    833b:	00 
    833c:	f3 0f 59 c1          	mulss  %xmm1,%xmm0
    8340:	f3 0f 10 55 f8       	movss  -0x8(%rbp),%xmm2
    8345:	f3 0f 10 0d 6b df 00 	movss  0xdf6b(%rip),%xmm1        # 162b8 <g_2798+0x1244>
    834c:	00 
    834d:	f3 0f 59 ca          	mulss  %xmm2,%xmm1
    8351:	f3 0f 5e c1          	divss  %xmm1,%xmm0
    8355:	f3 0f 10 0d 33 df 00 	movss  0xdf33(%rip),%xmm1        # 16290 <g_2798+0x121c>
    835c:	00 
    835d:	0f 54 c1             	andps  %xmm1,%xmm0
    8360:	0f 2f 05 55 df 00 00 	comiss 0xdf55(%rip),%xmm0        # 162bc <g_2798+0x1248>
    8367:	0f 97 c0             	seta   %al
    836a:	83 f0 01             	xor    $0x1,%eax
    836d:	84 c0                	test   %al,%al
    836f:	74 0c                	je     837d <safe_div_func_float_f_f+0x99>
    8371:	f3 0f 10 45 fc       	movss  -0x4(%rbp),%xmm0
    8376:	f3 0f 5e 45 f8       	divss  -0x8(%rbp),%xmm0
    837b:	eb 05                	jmp    8382 <safe_div_func_float_f_f+0x9e>
    837d:	f3 0f 10 45 fc       	movss  -0x4(%rbp),%xmm0
    8382:	5d                   	pop    %rbp
    8383:	c3                   	retq   

0000000000008384 <safe_add_func_double_f_f>:
    8384:	f3 0f 1e fa          	endbr64 
    8388:	55                   	push   %rbp
    8389:	48 89 e5             	mov    %rsp,%rbp
    838c:	f2 0f 11 45 f8       	movsd  %xmm0,-0x8(%rbp)
    8391:	f2 0f 11 4d f0       	movsd  %xmm1,-0x10(%rbp)
    8396:	f2 0f 10 4d f8       	movsd  -0x8(%rbp),%xmm1
    839b:	f2 0f 10 05 1d df 00 	movsd  0xdf1d(%rip),%xmm0        # 162c0 <g_2798+0x124c>
    83a2:	00 
    83a3:	f2 0f 59 c8          	mulsd  %xmm0,%xmm1
    83a7:	f2 0f 10 55 f0       	movsd  -0x10(%rbp),%xmm2
    83ac:	f2 0f 10 05 0c df 00 	movsd  0xdf0c(%rip),%xmm0        # 162c0 <g_2798+0x124c>
    83b3:	00 
    83b4:	f2 0f 59 c2          	mulsd  %xmm2,%xmm0
    83b8:	f2 0f 58 c1          	addsd  %xmm1,%xmm0
    83bc:	f3 0f 7e 0d 0c df 00 	movq   0xdf0c(%rip),%xmm1        # 162d0 <g_2798+0x125c>
    83c3:	00 
    83c4:	66 0f 54 c1          	andpd  %xmm1,%xmm0
    83c8:	66 0f 2f 05 10 df 00 	comisd 0xdf10(%rip),%xmm0        # 162e0 <g_2798+0x126c>
    83cf:	00 
    83d0:	76 07                	jbe    83d9 <safe_add_func_double_f_f+0x55>
    83d2:	f2 0f 10 45 f8       	movsd  -0x8(%rbp),%xmm0
    83d7:	eb 0a                	jmp    83e3 <safe_add_func_double_f_f+0x5f>
    83d9:	f2 0f 10 45 f8       	movsd  -0x8(%rbp),%xmm0
    83de:	f2 0f 58 45 f0       	addsd  -0x10(%rbp),%xmm0
    83e3:	5d                   	pop    %rbp
    83e4:	c3                   	retq   

00000000000083e5 <safe_sub_func_double_f_f>:
    83e5:	f3 0f 1e fa          	endbr64 
    83e9:	55                   	push   %rbp
    83ea:	48 89 e5             	mov    %rsp,%rbp
    83ed:	f2 0f 11 45 f8       	movsd  %xmm0,-0x8(%rbp)
    83f2:	f2 0f 11 4d f0       	movsd  %xmm1,-0x10(%rbp)
    83f7:	f2 0f 10 4d f8       	movsd  -0x8(%rbp),%xmm1
    83fc:	f2 0f 10 05 bc de 00 	movsd  0xdebc(%rip),%xmm0        # 162c0 <g_2798+0x124c>
    8403:	00 
    8404:	f2 0f 59 c1          	mulsd  %xmm1,%xmm0
    8408:	f2 0f 10 55 f0       	movsd  -0x10(%rbp),%xmm2
    840d:	f2 0f 10 0d ab de 00 	movsd  0xdeab(%rip),%xmm1        # 162c0 <g_2798+0x124c>
    8414:	00 
    8415:	f2 0f 59 ca          	mulsd  %xmm2,%xmm1
    8419:	f2 0f 5c c1          	subsd  %xmm1,%xmm0
    841d:	f3 0f 7e 0d ab de 00 	movq   0xdeab(%rip),%xmm1        # 162d0 <g_2798+0x125c>
    8424:	00 
    8425:	66 0f 54 c1          	andpd  %xmm1,%xmm0
    8429:	66 0f 2f 05 af de 00 	comisd 0xdeaf(%rip),%xmm0        # 162e0 <g_2798+0x126c>
    8430:	00 
    8431:	76 07                	jbe    843a <safe_sub_func_double_f_f+0x55>
    8433:	f2 0f 10 45 f8       	movsd  -0x8(%rbp),%xmm0
    8438:	eb 0a                	jmp    8444 <safe_sub_func_double_f_f+0x5f>
    843a:	f2 0f 10 45 f8       	movsd  -0x8(%rbp),%xmm0
    843f:	f2 0f 5c 45 f0       	subsd  -0x10(%rbp),%xmm0
    8444:	5d                   	pop    %rbp
    8445:	c3                   	retq   

0000000000008446 <safe_mul_func_double_f_f>:
    8446:	f3 0f 1e fa          	endbr64 
    844a:	55                   	push   %rbp
    844b:	48 89 e5             	mov    %rsp,%rbp
    844e:	f2 0f 11 45 f8       	movsd  %xmm0,-0x8(%rbp)
    8453:	f2 0f 11 4d f0       	movsd  %xmm1,-0x10(%rbp)
    8458:	f2 0f 10 4d f8       	movsd  -0x8(%rbp),%xmm1
    845d:	f2 0f 10 05 83 de 00 	movsd  0xde83(%rip),%xmm0        # 162e8 <g_2798+0x1274>
    8464:	00 
    8465:	f2 0f 59 c8          	mulsd  %xmm0,%xmm1
    8469:	f2 0f 10 55 f0       	movsd  -0x10(%rbp),%xmm2
    846e:	f2 0f 10 05 7a de 00 	movsd  0xde7a(%rip),%xmm0        # 162f0 <g_2798+0x127c>
    8475:	00 
    8476:	f2 0f 59 c2          	mulsd  %xmm2,%xmm0
    847a:	f2 0f 59 c1          	mulsd  %xmm1,%xmm0
    847e:	f3 0f 7e 0d 4a de 00 	movq   0xde4a(%rip),%xmm1        # 162d0 <g_2798+0x125c>
    8485:	00 
    8486:	66 0f 54 c1          	andpd  %xmm1,%xmm0
    848a:	66 0f 2f 05 66 de 00 	comisd 0xde66(%rip),%xmm0        # 162f8 <g_2798+0x1284>
    8491:	00 
    8492:	76 07                	jbe    849b <safe_mul_func_double_f_f+0x55>
    8494:	f2 0f 10 45 f8       	movsd  -0x8(%rbp),%xmm0
    8499:	eb 0a                	jmp    84a5 <safe_mul_func_double_f_f+0x5f>
    849b:	f2 0f 10 45 f8       	movsd  -0x8(%rbp),%xmm0
    84a0:	f2 0f 59 45 f0       	mulsd  -0x10(%rbp),%xmm0
    84a5:	5d                   	pop    %rbp
    84a6:	c3                   	retq   

00000000000084a7 <safe_div_func_double_f_f>:
    84a7:	f3 0f 1e fa          	endbr64 
    84ab:	55                   	push   %rbp
    84ac:	48 89 e5             	mov    %rsp,%rbp
    84af:	f2 0f 11 45 f8       	movsd  %xmm0,-0x8(%rbp)
    84b4:	f2 0f 11 4d f0       	movsd  %xmm1,-0x10(%rbp)
    84b9:	f2 0f 10 45 f0       	movsd  -0x10(%rbp),%xmm0
    84be:	f3 0f 7e 0d 0a de 00 	movq   0xde0a(%rip),%xmm1        # 162d0 <g_2798+0x125c>
    84c5:	00 
    84c6:	66 0f 54 c8          	andpd  %xmm0,%xmm1
    84ca:	f2 0f 10 05 2e de 00 	movsd  0xde2e(%rip),%xmm0        # 16300 <g_2798+0x128c>
    84d1:	00 
    84d2:	66 0f 2f c1          	comisd %xmm1,%xmm0
    84d6:	0f 97 c0             	seta   %al
    84d9:	83 f0 01             	xor    $0x1,%eax
    84dc:	84 c0                	test   %al,%al
    84de:	75 5a                	jne    853a <safe_div_func_double_f_f+0x93>
    84e0:	66 0f ef c0          	pxor   %xmm0,%xmm0
    84e4:	66 0f 2e 45 f0       	ucomisd -0x10(%rbp),%xmm0
    84e9:	7a 0b                	jp     84f6 <safe_div_func_double_f_f+0x4f>
    84eb:	66 0f ef c0          	pxor   %xmm0,%xmm0
    84ef:	66 0f 2e 45 f0       	ucomisd -0x10(%rbp),%xmm0
    84f4:	74 50                	je     8546 <safe_div_func_double_f_f+0x9f>
    84f6:	f2 0f 10 4d f8       	movsd  -0x8(%rbp),%xmm1
    84fb:	f2 0f 10 05 05 de 00 	movsd  0xde05(%rip),%xmm0        # 16308 <g_2798+0x1294>
    8502:	00 
    8503:	f2 0f 59 c1          	mulsd  %xmm1,%xmm0
    8507:	f2 0f 10 55 f0       	movsd  -0x10(%rbp),%xmm2
    850c:	f2 0f 10 0d fc dd 00 	movsd  0xddfc(%rip),%xmm1        # 16310 <g_2798+0x129c>
    8513:	00 
    8514:	f2 0f 59 ca          	mulsd  %xmm2,%xmm1
    8518:	f2 0f 5e c1          	divsd  %xmm1,%xmm0
    851c:	f3 0f 7e 0d ac dd 00 	movq   0xddac(%rip),%xmm1        # 162d0 <g_2798+0x125c>
    8523:	00 
    8524:	66 0f 54 c1          	andpd  %xmm1,%xmm0
    8528:	66 0f 2f 05 e8 dd 00 	comisd 0xdde8(%rip),%xmm0        # 16318 <g_2798+0x12a4>
    852f:	00 
    8530:	0f 97 c0             	seta   %al
    8533:	83 f0 01             	xor    $0x1,%eax
    8536:	84 c0                	test   %al,%al
    8538:	74 0c                	je     8546 <safe_div_func_double_f_f+0x9f>
    853a:	f2 0f 10 45 f8       	movsd  -0x8(%rbp),%xmm0
    853f:	f2 0f 5e 45 f0       	divsd  -0x10(%rbp),%xmm0
    8544:	eb 05                	jmp    854b <safe_div_func_double_f_f+0xa4>
    8546:	f2 0f 10 45 f8       	movsd  -0x8(%rbp),%xmm0
    854b:	5d                   	pop    %rbp
    854c:	c3                   	retq   

000000000000854d <safe_convert_func_float_to_int32_t>:
    854d:	f3 0f 1e fa          	endbr64 
    8551:	55                   	push   %rbp
    8552:	48 89 e5             	mov    %rsp,%rbp
    8555:	f3 0f 11 45 fc       	movss  %xmm0,-0x4(%rbp)
    855a:	f3 0f 10 05 be dd 00 	movss  0xddbe(%rip),%xmm0        # 16320 <g_2798+0x12ac>
    8561:	00 
    8562:	0f 2f 45 fc          	comiss -0x4(%rbp),%xmm0
    8566:	0f 93 c0             	setae  %al
    8569:	83 f0 01             	xor    $0x1,%eax
    856c:	84 c0                	test   %al,%al
    856e:	74 21                	je     8591 <safe_convert_func_float_to_int32_t+0x44>
    8570:	f3 0f 10 45 fc       	movss  -0x4(%rbp),%xmm0
    8575:	0f 2f 05 a8 dd 00 00 	comiss 0xdda8(%rip),%xmm0        # 16324 <g_2798+0x12b0>
    857c:	0f 93 c0             	setae  %al
    857f:	83 f0 01             	xor    $0x1,%eax
    8582:	84 c0                	test   %al,%al
    8584:	74 0b                	je     8591 <safe_convert_func_float_to_int32_t+0x44>
    8586:	f3 0f 10 45 fc       	movss  -0x4(%rbp),%xmm0
    858b:	f3 0f 2c c0          	cvttss2si %xmm0,%eax
    858f:	eb 05                	jmp    8596 <safe_convert_func_float_to_int32_t+0x49>
    8591:	b8 ff ff ff 7f       	mov    $0x7fffffff,%eax
    8596:	5d                   	pop    %rbp
    8597:	c3                   	retq   

0000000000008598 <crc32_gentab>:
    8598:	f3 0f 1e fa          	endbr64 
    859c:	55                   	push   %rbp
    859d:	48 89 e5             	mov    %rsp,%rbp
    85a0:	c7 45 fc 20 83 b8 ed 	movl   $0xedb88320,-0x4(%rbp)
    85a7:	c7 45 f4 00 00 00 00 	movl   $0x0,-0xc(%rbp)
    85ae:	eb 51                	jmp    8601 <crc32_gentab+0x69>
    85b0:	8b 45 f4             	mov    -0xc(%rbp),%eax
    85b3:	89 45 f0             	mov    %eax,-0x10(%rbp)
    85b6:	c7 45 f8 08 00 00 00 	movl   $0x8,-0x8(%rbp)
    85bd:	eb 1e                	jmp    85dd <crc32_gentab+0x45>
    85bf:	8b 45 f0             	mov    -0x10(%rbp),%eax
    85c2:	83 e0 01             	and    $0x1,%eax
    85c5:	85 c0                	test   %eax,%eax
    85c7:	74 0d                	je     85d6 <crc32_gentab+0x3e>
    85c9:	8b 45 f0             	mov    -0x10(%rbp),%eax
    85cc:	d1 e8                	shr    %eax
    85ce:	33 45 fc             	xor    -0x4(%rbp),%eax
    85d1:	89 45 f0             	mov    %eax,-0x10(%rbp)
    85d4:	eb 03                	jmp    85d9 <crc32_gentab+0x41>
    85d6:	d1 6d f0             	shrl   -0x10(%rbp)
    85d9:	83 6d f8 01          	subl   $0x1,-0x8(%rbp)
    85dd:	83 7d f8 00          	cmpl   $0x0,-0x8(%rbp)
    85e1:	7f dc                	jg     85bf <crc32_gentab+0x27>
    85e3:	8b 45 f4             	mov    -0xc(%rbp),%eax
    85e6:	48 98                	cltq   
    85e8:	48 8d 0c 85 00 00 00 	lea    0x0(,%rax,4),%rcx
    85ef:	00 
    85f0:	48 8d 15 49 3a 01 00 	lea    0x13a49(%rip),%rdx        # 1c040 <crc32_tab>
    85f7:	8b 45 f0             	mov    -0x10(%rbp),%eax
    85fa:	89 04 11             	mov    %eax,(%rcx,%rdx,1)
    85fd:	83 45 f4 01          	addl   $0x1,-0xc(%rbp)
    8601:	81 7d f4 ff 00 00 00 	cmpl   $0xff,-0xc(%rbp)
    8608:	7e a6                	jle    85b0 <crc32_gentab+0x18>
    860a:	90                   	nop
    860b:	90                   	nop
    860c:	5d                   	pop    %rbp
    860d:	c3                   	retq   

000000000000860e <crc32_byte>:
    860e:	f3 0f 1e fa          	endbr64 
    8612:	55                   	push   %rbp
    8613:	48 89 e5             	mov    %rsp,%rbp
    8616:	89 f8                	mov    %edi,%eax
    8618:	88 45 fc             	mov    %al,-0x4(%rbp)
    861b:	8b 05 ff 09 01 00    	mov    0x109ff(%rip),%eax        # 19020 <crc32_context>
    8621:	c1 e8 08             	shr    $0x8,%eax
    8624:	89 c1                	mov    %eax,%ecx
    8626:	0f b6 55 fc          	movzbl -0x4(%rbp),%edx
    862a:	8b 05 f0 09 01 00    	mov    0x109f0(%rip),%eax        # 19020 <crc32_context>
    8630:	31 d0                	xor    %edx,%eax
    8632:	0f b6 c0             	movzbl %al,%eax
    8635:	89 c0                	mov    %eax,%eax
    8637:	48 8d 14 85 00 00 00 	lea    0x0(,%rax,4),%rdx
    863e:	00 
    863f:	48 8d 05 fa 39 01 00 	lea    0x139fa(%rip),%rax        # 1c040 <crc32_tab>
    8646:	8b 04 02             	mov    (%rdx,%rax,1),%eax
    8649:	31 c8                	xor    %ecx,%eax
    864b:	89 05 cf 09 01 00    	mov    %eax,0x109cf(%rip)        # 19020 <crc32_context>
    8651:	90                   	nop
    8652:	5d                   	pop    %rbp
    8653:	c3                   	retq   

0000000000008654 <crc32_8bytes>:
    8654:	f3 0f 1e fa          	endbr64 
    8658:	55                   	push   %rbp
    8659:	48 89 e5             	mov    %rsp,%rbp
    865c:	48 83 ec 08          	sub    $0x8,%rsp
    8660:	48 89 7d f8          	mov    %rdi,-0x8(%rbp)
    8664:	48 8b 45 f8          	mov    -0x8(%rbp),%rax
    8668:	0f b6 c0             	movzbl %al,%eax
    866b:	89 c7                	mov    %eax,%edi
    866d:	e8 9c ff ff ff       	callq  860e <crc32_byte>
    8672:	48 8b 45 f8          	mov    -0x8(%rbp),%rax
    8676:	48 c1 e8 08          	shr    $0x8,%rax
    867a:	0f b6 c0             	movzbl %al,%eax
    867d:	89 c7                	mov    %eax,%edi
    867f:	e8 8a ff ff ff       	callq  860e <crc32_byte>
    8684:	48 8b 45 f8          	mov    -0x8(%rbp),%rax
    8688:	48 c1 e8 10          	shr    $0x10,%rax
    868c:	0f b6 c0             	movzbl %al,%eax
    868f:	89 c7                	mov    %eax,%edi
    8691:	e8 78 ff ff ff       	callq  860e <crc32_byte>
    8696:	48 8b 45 f8          	mov    -0x8(%rbp),%rax
    869a:	48 c1 e8 18          	shr    $0x18,%rax
    869e:	0f b6 c0             	movzbl %al,%eax
    86a1:	89 c7                	mov    %eax,%edi
    86a3:	e8 66 ff ff ff       	callq  860e <crc32_byte>
    86a8:	48 8b 45 f8          	mov    -0x8(%rbp),%rax
    86ac:	48 c1 e8 20          	shr    $0x20,%rax
    86b0:	0f b6 c0             	movzbl %al,%eax
    86b3:	89 c7                	mov    %eax,%edi
    86b5:	e8 54 ff ff ff       	callq  860e <crc32_byte>
    86ba:	48 8b 45 f8          	mov    -0x8(%rbp),%rax
    86be:	48 c1 e8 28          	shr    $0x28,%rax
    86c2:	0f b6 c0             	movzbl %al,%eax
    86c5:	89 c7                	mov    %eax,%edi
    86c7:	e8 42 ff ff ff       	callq  860e <crc32_byte>
    86cc:	48 8b 45 f8          	mov    -0x8(%rbp),%rax
    86d0:	48 c1 e8 30          	shr    $0x30,%rax
    86d4:	0f b6 c0             	movzbl %al,%eax
    86d7:	89 c7                	mov    %eax,%edi
    86d9:	e8 30 ff ff ff       	callq  860e <crc32_byte>
    86de:	48 8b 45 f8          	mov    -0x8(%rbp),%rax
    86e2:	48 c1 e8 38          	shr    $0x38,%rax
    86e6:	0f b6 c0             	movzbl %al,%eax
    86e9:	89 c7                	mov    %eax,%edi
    86eb:	e8 1e ff ff ff       	callq  860e <crc32_byte>
    86f0:	90                   	nop
    86f1:	c9                   	leaveq 
    86f2:	c3                   	retq   

00000000000086f3 <transparent_crc>:
    86f3:	f3 0f 1e fa          	endbr64 
    86f7:	55                   	push   %rbp
    86f8:	48 89 e5             	mov    %rsp,%rbp
    86fb:	48 83 ec 20          	sub    $0x20,%rsp
    86ff:	48 89 7d f8          	mov    %rdi,-0x8(%rbp)
    8703:	48 89 75 f0          	mov    %rsi,-0x10(%rbp)
    8707:	89 55 ec             	mov    %edx,-0x14(%rbp)
    870a:	48 8b 45 f8          	mov    -0x8(%rbp),%rax
    870e:	48 89 c7             	mov    %rax,%rdi
    8711:	e8 3e ff ff ff       	callq  8654 <crc32_8bytes>
    8716:	83 7d ec 00          	cmpl   $0x0,-0x14(%rbp)
    871a:	74 22                	je     873e <transparent_crc+0x4b>
    871c:	8b 05 fe 08 01 00    	mov    0x108fe(%rip),%eax        # 19020 <crc32_context>
    8722:	f7 d0                	not    %eax
    8724:	89 c2                	mov    %eax,%edx
    8726:	48 8b 45 f0          	mov    -0x10(%rbp),%rax
    872a:	48 89 c6             	mov    %rax,%rsi
    872d:	48 8d 3d fc c8 00 00 	lea    0xc8fc(%rip),%rdi        # 15030 <_IO_stdin_used+0x30>
    8734:	b8 00 00 00 00       	mov    $0x0,%eax
    8739:	e8 42 e9 ff ff       	callq  7080 <printf@plt>
    873e:	90                   	nop
    873f:	c9                   	leaveq 
    8740:	c3                   	retq   

0000000000008741 <transparent_crc_bytes>:
    8741:	f3 0f 1e fa          	endbr64 
    8745:	55                   	push   %rbp
    8746:	48 89 e5             	mov    %rsp,%rbp
    8749:	48 83 ec 30          	sub    $0x30,%rsp
    874d:	48 89 7d e8          	mov    %rdi,-0x18(%rbp)
    8751:	89 75 e4             	mov    %esi,-0x1c(%rbp)
    8754:	48 89 55 d8          	mov    %rdx,-0x28(%rbp)
    8758:	89 4d e0             	mov    %ecx,-0x20(%rbp)
    875b:	c7 45 fc 00 00 00 00 	movl   $0x0,-0x4(%rbp)
    8762:	eb 1e                	jmp    8782 <transparent_crc_bytes+0x41>
    8764:	8b 45 fc             	mov    -0x4(%rbp),%eax
    8767:	48 63 d0             	movslq %eax,%rdx
    876a:	48 8b 45 e8          	mov    -0x18(%rbp),%rax
    876e:	48 01 d0             	add    %rdx,%rax
    8771:	0f b6 00             	movzbl (%rax),%eax
    8774:	0f b6 c0             	movzbl %al,%eax
    8777:	89 c7                	mov    %eax,%edi
    8779:	e8 90 fe ff ff       	callq  860e <crc32_byte>
    877e:	83 45 fc 01          	addl   $0x1,-0x4(%rbp)
    8782:	8b 45 fc             	mov    -0x4(%rbp),%eax
    8785:	3b 45 e4             	cmp    -0x1c(%rbp),%eax
    8788:	7c da                	jl     8764 <transparent_crc_bytes+0x23>
    878a:	83 7d e0 00          	cmpl   $0x0,-0x20(%rbp)
    878e:	74 22                	je     87b2 <transparent_crc_bytes+0x71>
    8790:	8b 05 8a 08 01 00    	mov    0x1088a(%rip),%eax        # 19020 <crc32_context>
    8796:	f7 d0                	not    %eax
    8798:	89 c2                	mov    %eax,%edx
    879a:	48 8b 45 d8          	mov    -0x28(%rbp),%rax
    879e:	48 89 c6             	mov    %rax,%rsi
    87a1:	48 8d 3d 88 c8 00 00 	lea    0xc888(%rip),%rdi        # 15030 <_IO_stdin_used+0x30>
    87a8:	b8 00 00 00 00       	mov    $0x0,%eax
    87ad:	e8 ce e8 ff ff       	callq  7080 <printf@plt>
    87b2:	90                   	nop
    87b3:	c9                   	leaveq 
    87b4:	c3                   	retq   

00000000000087b5 <func_1>:
    87b5:	f3 0f 1e fa          	endbr64 
    87b9:	55                   	push   %rbp
    87ba:	48 89 e5             	mov    %rsp,%rbp
    87bd:	41 55                	push   %r13
    87bf:	41 54                	push   %r12
    87c1:	53                   	push   %rbx
    87c2:	48 81 ec b8 05 00 00 	sub    $0x5b8,%rsp
    87c9:	64 48 8b 04 25 28 00 	mov    %fs:0x28,%rax
    87d0:	00 00 
    87d2:	48 89 45 d8          	mov    %rax,-0x28(%rbp)
    87d6:	31 c0                	xor    %eax,%eax
    87d8:	48 c7 85 48 fa ff ff 	movq   $0x8,-0x5b8(%rbp)
    87df:	08 00 00 00 
    87e3:	48 8d 85 00 fd ff ff 	lea    -0x300(%rbp),%rax
    87ea:	48 8d 15 8f c8 00 00 	lea    0xc88f(%rip),%rdx        # 15080 <g_2798+0xc>
    87f1:	b9 5a 00 00 00       	mov    $0x5a,%ecx
    87f6:	48 89 c7             	mov    %rax,%rdi
    87f9:	48 89 d6             	mov    %rdx,%rsi
    87fc:	f3 48 a5             	rep movsq %ds:(%rsi),%es:(%rdi)
    87ff:	48 c7 85 50 fa ff ff 	movq   $0x0,-0x5b0(%rbp)
    8806:	00 00 00 00 
    880a:	48 c7 85 58 fa ff ff 	movq   $0x0,-0x5a8(%rbp)
    8811:	00 00 00 00 
    8815:	48 c7 85 60 fa ff ff 	movq   $0x0,-0x5a0(%rbp)
    881c:	00 00 00 00 
    8820:	48 8d 05 99 11 01 00 	lea    0x11199(%rip),%rax        # 199c0 <g_2378>
    8827:	48 89 85 68 fa ff ff 	mov    %rax,-0x598(%rbp)
    882e:	c7 85 38 fa ff ff f9 	movl   $0xfffffff9,-0x5c8(%rbp)
    8835:	ff ff ff 
    8838:	66 c7 85 36 fa ff ff 	movw   $0xfffb,-0x5ca(%rbp)
    883f:	fb ff 
    8841:	c6 85 35 fa ff ff db 	movb   $0xdb,-0x5cb(%rbp)
    8848:	c7 05 de 07 01 00 1a 	movl   $0x1a,0x107de(%rip)        # 19030 <g_3>
    884f:	00 00 00 
    8852:	e9 7f 01 00 00       	jmpq   89d6 <func_1+0x221>
    8857:	48 8d 05 f2 3b 01 00 	lea    0x13bf2(%rip),%rax        # 1c450 <g_21>
    885e:	48 89 85 70 fa ff ff 	mov    %rax,-0x590(%rbp)
    8865:	c7 85 3c fa ff ff f6 	movl   $0xfffffff6,-0x5c4(%rbp)
    886c:	ff ff ff 
    886f:	48 8d 05 da 07 01 00 	lea    0x107da(%rip),%rax        # 19050 <g_49>
    8876:	48 89 85 78 fa ff ff 	mov    %rax,-0x588(%rbp)
    887d:	48 8d 05 d4 3b 01 00 	lea    0x13bd4(%rip),%rax        # 1c458 <g_79>
    8884:	48 89 85 40 fa ff ff 	mov    %rax,-0x5c0(%rbp)
    888b:	48 8d 85 40 fa ff ff 	lea    -0x5c0(%rbp),%rax
    8892:	48 89 85 80 fa ff ff 	mov    %rax,-0x580(%rbp)
    8899:	c6 85 34 fa ff ff 2c 	movb   $0x2c,-0x5cc(%rbp)
    88a0:	48 8d 85 00 fb ff ff 	lea    -0x500(%rbp),%rax
    88a7:	48 8d 15 52 11 01 00 	lea    0x11152(%rip),%rdx        # 19a00 <g_2946+0x10>
    88ae:	b9 3f 00 00 00       	mov    $0x3f,%ecx
    88b3:	48 89 c7             	mov    %rax,%rdi
    88b6:	48 89 d6             	mov    %rdx,%rsi
    88b9:	f3 48 a5             	rep movsq %ds:(%rsi),%es:(%rdi)
    88bc:	48 b8 a0 4f 2a 97 7a 	movabs $0xa4c3ab7a972a4fa0,%rax
    88c3:	ab c3 a4 
    88c6:	48 89 85 88 fa ff ff 	mov    %rax,-0x578(%rbp)
    88cd:	c7 85 90 fa ff ff 01 	movl   $0x1,-0x570(%rbp)
    88d4:	00 00 00 
    88d7:	c7 85 94 fa ff ff 7a 	movl   $0x7f78b77a,-0x56c(%rbp)
    88de:	b7 78 7f 
    88e1:	c7 85 98 fa ff ff 01 	movl   $0x1,-0x568(%rbp)
    88e8:	00 00 00 
    88eb:	c7 85 9c fa ff ff 7a 	movl   $0x7f78b77a,-0x564(%rbp)
    88f2:	b7 78 7f 
    88f5:	c7 85 a0 fa ff ff 01 	movl   $0x1,-0x560(%rbp)
    88fc:	00 00 00 
    88ff:	c7 85 a4 fa ff ff ff 	movl   $0xffffffff,-0x55c(%rbp)
    8906:	ff ff ff 
    8909:	c7 85 a8 fa ff ff ff 	movl   $0xffffffff,-0x558(%rbp)
    8910:	ff ff ff 
    8913:	c7 85 ac fa ff ff ff 	movl   $0x5a830aff,-0x554(%rbp)
    891a:	0a 83 5a 
    891d:	c7 85 b0 fa ff ff ff 	movl   $0x5a830aff,-0x550(%rbp)
    8924:	0a 83 5a 
    8927:	c7 85 b4 fa ff ff ff 	movl   $0xffffffff,-0x54c(%rbp)
    892e:	ff ff ff 
    8931:	c7 85 b8 fa ff ff fc 	movl   $0xfffffffc,-0x548(%rbp)
    8938:	ff ff ff 
    893b:	c7 85 bc fa ff ff 7a 	movl   $0x7f78b77a,-0x544(%rbp)
    8942:	b7 78 7f 
    8945:	c7 85 c0 fa ff ff fc 	movl   $0xfffffffc,-0x540(%rbp)
    894c:	ff ff ff 
    894f:	c7 85 c4 fa ff ff 7a 	movl   $0x7f78b77a,-0x53c(%rbp)
    8956:	b7 78 7f 
    8959:	c7 85 c8 fa ff ff fc 	movl   $0xfffffffc,-0x538(%rbp)
    8960:	ff ff ff 
    8963:	c7 85 cc fa ff ff ff 	movl   $0xffffffff,-0x534(%rbp)
    896a:	ff ff ff 
    896d:	c7 85 d0 fa ff ff ff 	movl   $0x5a830aff,-0x530(%rbp)
    8974:	0a 83 5a 
    8977:	c7 85 d4 fa ff ff ff 	movl   $0x5a830aff,-0x52c(%rbp)
    897e:	0a 83 5a 
    8981:	c7 85 d8 fa ff ff ff 	movl   $0xffffffff,-0x528(%rbp)
    8988:	ff ff ff 
    898b:	c7 85 dc fa ff ff ff 	movl   $0xffffffff,-0x524(%rbp)
    8992:	ff ff ff 
    8995:	c7 85 e0 fa ff ff 01 	movl   $0x1,-0x520(%rbp)
    899c:	00 00 00 
    899f:	c7 85 e4 fa ff ff 7a 	movl   $0x7f78b77a,-0x51c(%rbp)
    89a6:	b7 78 7f 
    89a9:	c7 85 e8 fa ff ff 01 	movl   $0x1,-0x518(%rbp)
    89b0:	00 00 00 
    89b3:	c7 85 ec fa ff ff 7a 	movl   $0x7f78b77a,-0x514(%rbp)
    89ba:	b7 78 7f 
    89bd:	c7 85 f0 fa ff ff 01 	movl   $0x1,-0x510(%rbp)
    89c4:	00 00 00 
    89c7:	8b 05 63 06 01 00    	mov    0x10663(%rip),%eax        # 19030 <g_3>
    89cd:	83 e8 01             	sub    $0x1,%eax
    89d0:	89 05 5a 06 01 00    	mov    %eax,0x1065a(%rip)        # 19030 <g_3>
    89d6:	8b 05 54 06 01 00    	mov    0x10654(%rip),%eax        # 19030 <g_3>
    89dc:	83 f8 ef             	cmp    $0xffffffef,%eax
    89df:	0f 85 72 fe ff ff    	jne    8857 <func_1+0xa2>
    89e5:	8b 85 78 ff ff ff    	mov    -0x88(%rbp),%eax
    89eb:	0f bf d8             	movswl %ax,%ebx
    89ee:	48 8b 05 33 35 01 00 	mov    0x13533(%rip),%rax        # 1bf28 <g_2812>
    89f5:	48 8b 00             	mov    (%rax),%rax
    89f8:	66 c7 00 00 00       	movw   $0x0,(%rax)
    89fd:	48 8b 05 2c 2a 01 00 	mov    0x12a2c(%rip),%rax        # 1b430 <g_1926>
    8a04:	0f b6 00             	movzbl (%rax),%eax
    8a07:	0f b6 05 4a 3a 01 00 	movzbl 0x13a4a(%rip),%eax        # 1c458 <g_79>
    8a0e:	48 0f be d0          	movsbq %al,%rdx
    8a12:	48 8b 85 68 fa ff ff 	mov    -0x598(%rbp),%rax
    8a19:	48 c7 00 f9 ff ff ff 	movq   $0xfffffffffffffff9,(%rax)
    8a20:	48 8b 85 68 fa ff ff 	mov    -0x598(%rbp),%rax
    8a27:	48 8b 00             	mov    (%rax),%rax
    8a2a:	48 39 c2             	cmp    %rax,%rdx
    8a2d:	44 8b a5 7c fd ff ff 	mov    -0x284(%rbp),%r12d
    8a34:	8b 05 b2 0f 01 00    	mov    0x10fb2(%rip),%eax        # 199ec <g_2942>
    8a3a:	8b 85 38 fa ff ff    	mov    -0x5c8(%rbp),%eax
    8a40:	48 98                	cltq   
    8a42:	48 39 85 50 fa ff ff 	cmp    %rax,-0x5b0(%rbp)
    8a49:	7d 07                	jge    8a52 <func_1+0x29d>
    8a4b:	ba 01 00 00 00       	mov    $0x1,%edx
    8a50:	eb 05                	jmp    8a57 <func_1+0x2a2>
    8a52:	ba 00 00 00 00       	mov    $0x0,%edx
    8a57:	48 8b 85 58 fa ff ff 	mov    -0x5a8(%rbp),%rax
    8a5e:	48 89 c6             	mov    %rax,%rsi
    8a61:	48 89 d7             	mov    %rdx,%rdi
    8a64:	e8 96 27 00 00       	callq  b1ff <func_39>
    8a69:	48 89 c2             	mov    %rax,%rdx
    8a6c:	48 8b 05 4d 2a 01 00 	mov    0x12a4d(%rip),%rax        # 1b4c0 <g_2048>
    8a73:	4c 8b 28             	mov    (%rax),%r13
    8a76:	44 89 e6             	mov    %r12d,%esi
    8a79:	48 89 d7             	mov    %rdx,%rdi
    8a7c:	e8 0f 26 00 00       	callq  b090 <func_36>
    8a81:	49 89 45 00          	mov    %rax,0x0(%r13)
    8a85:	8b 85 74 fe ff ff    	mov    -0x18c(%rbp),%eax
    8a8b:	0f b7 c0             	movzwl %ax,%eax
    8a8e:	be 06 00 00 00       	mov    $0x6,%esi
    8a93:	89 c7                	mov    %eax,%edi
    8a95:	e8 e0 f3 ff ff       	callq  7e7a <safe_rshift_func_uint16_t_u_u>
    8a9a:	66 85 c0             	test   %ax,%ax
    8a9d:	75 0a                	jne    8aa9 <func_1+0x2f4>
    8a9f:	8b 85 f8 fd ff ff    	mov    -0x208(%rbp),%eax
    8aa5:	85 c0                	test   %eax,%eax
    8aa7:	74 07                	je     8ab0 <func_1+0x2fb>
    8aa9:	b8 01 00 00 00       	mov    $0x1,%eax
    8aae:	eb 05                	jmp    8ab5 <func_1+0x300>
    8ab0:	b8 00 00 00 00       	mov    $0x0,%eax
    8ab5:	48 98                	cltq   
    8ab7:	be 03 00 00 00       	mov    $0x3,%esi
    8abc:	48 89 c7             	mov    %rax,%rdi
    8abf:	e8 33 ef ff ff       	callq  79f7 <safe_div_func_int64_t_s_s>
    8ac4:	0d f3 72 7b a4       	or     $0xa47b72f3,%eax
    8ac9:	89 85 38 fa ff ff    	mov    %eax,-0x5c8(%rbp)
    8acf:	0f b7 85 36 fa ff ff 	movzwl -0x5ca(%rbp),%eax
    8ad6:	f7 d0                	not    %eax
    8ad8:	66 c1 e8 0f          	shr    $0xf,%ax
    8adc:	0f b6 c0             	movzbl %al,%eax
    8adf:	89 de                	mov    %ebx,%esi
    8ae1:	89 c7                	mov    %eax,%edi
    8ae3:	e8 2e e9 ff ff       	callq  7416 <safe_mod_func_int16_t_s_s>
    8ae8:	48 0f bf c0          	movswq %ax,%rax
    8aec:	48 39 85 50 fa ff ff 	cmp    %rax,-0x5b0(%rbp)
    8af3:	0f 9f c0             	setg   %al
    8af6:	0f b6 d0             	movzbl %al,%edx
    8af9:	8b 85 78 fd ff ff    	mov    -0x288(%rbp),%eax
    8aff:	39 c2                	cmp    %eax,%edx
    8b01:	0f 9f c0             	setg   %al
    8b04:	88 85 35 fa ff ff    	mov    %al,-0x5cb(%rbp)
    8b0a:	48 8b 85 48 fa ff ff 	mov    -0x5b8(%rbp),%rax
    8b11:	48 8b 5d d8          	mov    -0x28(%rbp),%rbx
    8b15:	64 48 33 1c 25 28 00 	xor    %fs:0x28,%rbx
    8b1c:	00 00 
    8b1e:	74 05                	je     8b25 <func_1+0x370>
    8b20:	e8 4b e5 ff ff       	callq  7070 <__stack_chk_fail@plt>
    8b25:	48 81 c4 b8 05 00 00 	add    $0x5b8,%rsp
    8b2c:	5b                   	pop    %rbx
    8b2d:	41 5c                	pop    %r12
    8b2f:	41 5d                	pop    %r13
    8b31:	5d                   	pop    %rbp
    8b32:	c3                   	retq   

0000000000008b33 <func_8>:
    8b33:	f3 0f 1e fa          	endbr64 
    8b37:	55                   	push   %rbp
    8b38:	48 89 e5             	mov    %rsp,%rbp
    8b3b:	48 89 7d f8          	mov    %rdi,-0x8(%rbp)
    8b3f:	48 89 75 f0          	mov    %rsi,-0x10(%rbp)
    8b43:	88 55 ef             	mov    %dl,-0x11(%rbp)
    8b46:	0f b6 45 ef          	movzbl -0x11(%rbp),%eax
    8b4a:	0f b6 c0             	movzbl %al,%eax
    8b4d:	5d                   	pop    %rbp
    8b4e:	c3                   	retq   

0000000000008b4f <func_13>:
    8b4f:	f3 0f 1e fa          	endbr64 
    8b53:	55                   	push   %rbp
    8b54:	48 89 e5             	mov    %rsp,%rbp
    8b57:	41 57                	push   %r15
    8b59:	41 56                	push   %r14
    8b5b:	41 55                	push   %r13
    8b5d:	41 54                	push   %r12
    8b5f:	53                   	push   %rbx
    8b60:	48 81 ec 18 0b 00 00 	sub    $0xb18,%rsp
    8b67:	89 f8                	mov    %edi,%eax
    8b69:	48 89 b5 d0 f4 ff ff 	mov    %rsi,-0xb30(%rbp)
    8b70:	48 89 95 c8 f4 ff ff 	mov    %rdx,-0xb38(%rbp)
    8b77:	89 8d d8 f4 ff ff    	mov    %ecx,-0xb28(%rbp)
    8b7d:	4c 89 85 c0 f4 ff ff 	mov    %r8,-0xb40(%rbp)
    8b84:	88 85 dc f4 ff ff    	mov    %al,-0xb24(%rbp)
    8b8a:	64 48 8b 04 25 28 00 	mov    %fs:0x28,%rax
    8b91:	00 00 
    8b93:	48 89 45 c8          	mov    %rax,-0x38(%rbp)
    8b97:	31 c0                	xor    %eax,%eax
    8b99:	c7 85 28 f5 ff ff 3e 	movl   $0x9b3f3c3e,-0xad8(%rbp)
    8ba0:	3c 3f 9b 
    8ba3:	48 8d 05 3e 20 01 00 	lea    0x1203e(%rip),%rax        # 1abe8 <g_226>
    8baa:	48 89 85 a8 f5 ff ff 	mov    %rax,-0xa58(%rbp)
    8bb1:	48 8d 85 a8 f5 ff ff 	lea    -0xa58(%rbp),%rax
    8bb8:	48 89 85 b0 f5 ff ff 	mov    %rax,-0xa50(%rbp)
    8bbf:	48 8d 85 b0 f5 ff ff 	lea    -0xa50(%rbp),%rax
    8bc6:	48 89 85 b8 f5 ff ff 	mov    %rax,-0xa48(%rbp)
    8bcd:	48 c7 85 c0 f5 ff ff 	movq   $0x0,-0xa40(%rbp)
    8bd4:	00 00 00 00 
    8bd8:	0f b7 85 c0 f5 ff ff 	movzwl -0xa40(%rbp),%eax
    8bdf:	66 0d ff 0f          	or     $0xfff,%ax
    8be3:	66 89 85 c0 f5 ff ff 	mov    %ax,-0xa40(%rbp)
    8bea:	48 8d 85 90 f9 ff ff 	lea    -0x670(%rbp),%rax
    8bf1:	48 8d 15 08 10 01 00 	lea    0x11008(%rip),%rdx        # 19c00 <g_2946+0x210>
    8bf8:	b9 32 00 00 00       	mov    $0x32,%ecx
    8bfd:	48 89 c7             	mov    %rax,%rdi
    8c00:	48 89 d6             	mov    %rdx,%rsi
    8c03:	f3 48 a5             	rep movsq %ds:(%rsi),%es:(%rdi)
    8c06:	48 8d 85 90 f9 ff ff 	lea    -0x670(%rbp),%rax
    8c0d:	48 83 c0 48          	add    $0x48,%rax
    8c11:	48 89 85 28 f6 ff ff 	mov    %rax,-0x9d8(%rbp)
    8c18:	48 c7 85 c8 f5 ff ff 	movq   $0x0,-0xa38(%rbp)
    8c1f:	00 00 00 00 
    8c23:	0f b7 85 c8 f5 ff ff 	movzwl -0xa38(%rbp),%eax
    8c2a:	66 25 00 f0          	and    $0xf000,%ax
    8c2e:	66 0d f9 0f          	or     $0xff9,%ax
    8c32:	66 89 85 c8 f5 ff ff 	mov    %ax,-0xa38(%rbp)
    8c39:	c6 85 ec f4 ff ff b8 	movb   $0xb8,-0xb14(%rbp)
    8c40:	48 b8 13 88 65 ce 35 	movabs $0x519a2a35ce658813,%rax
    8c47:	2a 9a 51 
    8c4a:	48 89 85 30 f6 ff ff 	mov    %rax,-0x9d0(%rbp)
    8c51:	c7 85 2c f5 ff ff 6d 	movl   $0x46740e6d,-0xad4(%rbp)
    8c58:	0e 74 46 
    8c5b:	48 8d 05 a6 22 01 00 	lea    0x122a6(%rip),%rax        # 1af08 <g_368+0x28>
    8c62:	48 89 85 38 f6 ff ff 	mov    %rax,-0x9c8(%rbp)
    8c69:	48 8d 05 d0 25 01 00 	lea    0x125d0(%rip),%rax        # 1b240 <g_983>
    8c70:	48 89 85 d0 f5 ff ff 	mov    %rax,-0xa30(%rbp)
    8c77:	48 c7 85 d8 f5 ff ff 	movq   $0x0,-0xa28(%rbp)
    8c7e:	00 00 00 00 
    8c82:	48 8d 05 bf 37 01 00 	lea    0x137bf(%rip),%rax        # 1c448 <g_12>
    8c89:	48 89 85 e0 f7 ff ff 	mov    %rax,-0x820(%rbp)
    8c90:	48 8d 05 b1 37 01 00 	lea    0x137b1(%rip),%rax        # 1c448 <g_12>
    8c97:	48 89 85 e8 f7 ff ff 	mov    %rax,-0x818(%rbp)
    8c9e:	48 8d 05 a3 37 01 00 	lea    0x137a3(%rip),%rax        # 1c448 <g_12>
    8ca5:	48 89 85 f0 f7 ff ff 	mov    %rax,-0x810(%rbp)
    8cac:	48 8d 05 95 37 01 00 	lea    0x13795(%rip),%rax        # 1c448 <g_12>
    8cb3:	48 89 85 f8 f7 ff ff 	mov    %rax,-0x808(%rbp)
    8cba:	48 8d 05 87 37 01 00 	lea    0x13787(%rip),%rax        # 1c448 <g_12>
    8cc1:	48 89 85 00 f8 ff ff 	mov    %rax,-0x800(%rbp)
    8cc8:	48 8d 05 79 37 01 00 	lea    0x13779(%rip),%rax        # 1c448 <g_12>
    8ccf:	48 89 85 08 f8 ff ff 	mov    %rax,-0x7f8(%rbp)
    8cd6:	48 8d 05 6b 37 01 00 	lea    0x1376b(%rip),%rax        # 1c448 <g_12>
    8cdd:	48 89 85 10 f8 ff ff 	mov    %rax,-0x7f0(%rbp)
    8ce4:	48 8d 05 5d 37 01 00 	lea    0x1375d(%rip),%rax        # 1c448 <g_12>
    8ceb:	48 89 85 18 f8 ff ff 	mov    %rax,-0x7e8(%rbp)
    8cf2:	48 8d 05 4f 37 01 00 	lea    0x1374f(%rip),%rax        # 1c448 <g_12>
    8cf9:	48 89 85 20 f8 ff ff 	mov    %rax,-0x7e0(%rbp)
    8d00:	48 8d 85 e0 f7 ff ff 	lea    -0x820(%rbp),%rax
    8d07:	48 83 c0 38          	add    $0x38,%rax
    8d0b:	48 89 85 40 f6 ff ff 	mov    %rax,-0x9c0(%rbp)
    8d12:	48 8d 05 cf 1e 01 00 	lea    0x11ecf(%rip),%rax        # 1abe8 <g_226>
    8d19:	48 89 85 e0 f5 ff ff 	mov    %rax,-0xa20(%rbp)
    8d20:	48 8d 85 e0 f5 ff ff 	lea    -0xa20(%rbp),%rax
    8d27:	48 89 85 e8 f5 ff ff 	mov    %rax,-0xa18(%rbp)
    8d2e:	48 8d 85 e8 f5 ff ff 	lea    -0xa18(%rbp),%rax
    8d35:	48 89 85 f0 f5 ff ff 	mov    %rax,-0xa10(%rbp)
    8d3c:	48 c7 85 00 f9 ff ff 	movq   $0x0,-0x700(%rbp)
    8d43:	00 00 00 00 
    8d47:	48 8d 85 f0 f5 ff ff 	lea    -0xa10(%rbp),%rax
    8d4e:	48 89 85 08 f9 ff ff 	mov    %rax,-0x6f8(%rbp)
    8d55:	48 8d 85 f0 f5 ff ff 	lea    -0xa10(%rbp),%rax
    8d5c:	48 89 85 10 f9 ff ff 	mov    %rax,-0x6f0(%rbp)
    8d63:	48 8d 85 f0 f5 ff ff 	lea    -0xa10(%rbp),%rax
    8d6a:	48 89 85 18 f9 ff ff 	mov    %rax,-0x6e8(%rbp)
    8d71:	48 8d 85 f0 f5 ff ff 	lea    -0xa10(%rbp),%rax
    8d78:	48 89 85 20 f9 ff ff 	mov    %rax,-0x6e0(%rbp)
    8d7f:	48 8d 85 f0 f5 ff ff 	lea    -0xa10(%rbp),%rax
    8d86:	48 89 85 28 f9 ff ff 	mov    %rax,-0x6d8(%rbp)
    8d8d:	48 c7 85 30 f9 ff ff 	movq   $0x0,-0x6d0(%rbp)
    8d94:	00 00 00 00 
    8d98:	48 8d 85 f0 f5 ff ff 	lea    -0xa10(%rbp),%rax
    8d9f:	48 89 85 38 f9 ff ff 	mov    %rax,-0x6c8(%rbp)
    8da6:	48 8d 85 f0 f5 ff ff 	lea    -0xa10(%rbp),%rax
    8dad:	48 89 85 40 f9 ff ff 	mov    %rax,-0x6c0(%rbp)
    8db4:	48 8d 85 f0 f5 ff ff 	lea    -0xa10(%rbp),%rax
    8dbb:	48 89 85 48 f9 ff ff 	mov    %rax,-0x6b8(%rbp)
    8dc2:	48 8d 85 f0 f5 ff ff 	lea    -0xa10(%rbp),%rax
    8dc9:	48 89 85 50 f9 ff ff 	mov    %rax,-0x6b0(%rbp)
    8dd0:	48 8d 85 f0 f5 ff ff 	lea    -0xa10(%rbp),%rax
    8dd7:	48 89 85 58 f9 ff ff 	mov    %rax,-0x6a8(%rbp)
    8dde:	48 c7 85 60 f9 ff ff 	movq   $0x0,-0x6a0(%rbp)
    8de5:	00 00 00 00 
    8de9:	48 8d 85 f0 f5 ff ff 	lea    -0xa10(%rbp),%rax
    8df0:	48 89 85 68 f9 ff ff 	mov    %rax,-0x698(%rbp)
    8df7:	48 8d 85 f0 f5 ff ff 	lea    -0xa10(%rbp),%rax
    8dfe:	48 89 85 70 f9 ff ff 	mov    %rax,-0x690(%rbp)
    8e05:	48 8d 85 f0 f5 ff ff 	lea    -0xa10(%rbp),%rax
    8e0c:	48 89 85 78 f9 ff ff 	mov    %rax,-0x688(%rbp)
    8e13:	48 8d 85 f0 f5 ff ff 	lea    -0xa10(%rbp),%rax
    8e1a:	48 89 85 80 f9 ff ff 	mov    %rax,-0x680(%rbp)
    8e21:	48 8d 85 f0 f5 ff ff 	lea    -0xa10(%rbp),%rax
    8e28:	48 89 85 88 f9 ff ff 	mov    %rax,-0x678(%rbp)
    8e2f:	48 c7 85 48 f6 ff ff 	movq   $0x0,-0x9b8(%rbp)
    8e36:	00 00 00 00 
    8e3a:	48 c7 85 50 f6 ff ff 	movq   $0x0,-0x9b0(%rbp)
    8e41:	00 00 00 00 
    8e45:	c7 85 30 f5 ff ff ad 	movl   $0xa7f13dad,-0xad0(%rbp)
    8e4c:	3d f1 a7 
    8e4f:	66 c7 85 f6 f4 ff ff 	movw   $0xfffb,-0xb0a(%rbp)
    8e56:	fb ff 
    8e58:	c6 85 f0 f4 ff ff 00 	movb   $0x0,-0xb10(%rbp)
    8e5f:	c7 85 1c f5 ff ff 00 	movl   $0x0,-0xae4(%rbp)
    8e66:	00 00 00 
    8e69:	eb 1a                	jmp    8e85 <func_13+0x336>
    8e6b:	8b 85 1c f5 ff ff    	mov    -0xae4(%rbp),%eax
    8e71:	48 98                	cltq   
    8e73:	c7 84 85 28 f7 ff ff 	movl   $0xea2af098,-0x8d8(%rbp,%rax,4)
    8e7a:	98 f0 2a ea 
    8e7e:	83 85 1c f5 ff ff 01 	addl   $0x1,-0xae4(%rbp)
    8e85:	83 bd 1c f5 ff ff 00 	cmpl   $0x0,-0xae4(%rbp)
    8e8c:	7e dd                	jle    8e6b <func_13+0x31c>
    8e8e:	48 83 bd c0 f4 ff ff 	cmpq   $0x0,-0xb40(%rbp)
    8e95:	00 
    8e96:	0f 85 e4 00 00 00    	jne    8f80 <func_13+0x431>
    8e9c:	48 8b 85 d0 f4 ff ff 	mov    -0xb30(%rbp),%rax
    8ea3:	0f b7 d8             	movzwl %ax,%ebx
    8ea6:	48 8b 85 c0 f4 ff ff 	mov    -0xb40(%rbp),%rax
    8ead:	44 0f b7 e0          	movzwl %ax,%r12d
    8eb1:	be fb ff ff ff       	mov    $0xfffffffb,%esi
    8eb6:	bf c6 ff ff ff       	mov    $0xffffffc6,%edi
    8ebb:	e8 71 e3 ff ff       	callq  7231 <safe_mod_func_int8_t_s_s>
    8ec0:	48 0f be c0          	movsbq %al,%rax
    8ec4:	25 c4 06 5e b7       	and    $0xb75e06c4,%eax
    8ec9:	48 89 c2             	mov    %rax,%rdx
    8ecc:	48 8b 85 a8 f5 ff ff 	mov    -0xa58(%rbp),%rax
    8ed3:	48 8b 00             	mov    (%rax),%rax
    8ed6:	8b 00                	mov    (%rax),%eax
    8ed8:	48 98                	cltq   
    8eda:	48 39 c2             	cmp    %rax,%rdx
    8edd:	0f 95 c0             	setne  %al
    8ee0:	0f b6 c0             	movzbl %al,%eax
    8ee3:	44 89 e6             	mov    %r12d,%esi
    8ee6:	89 c7                	mov    %eax,%edi
    8ee8:	e8 12 ee ff ff       	callq  7cff <safe_add_func_uint16_t_u_u>
    8eed:	0f b7 c0             	movzwl %ax,%eax
    8ef0:	48 0b 85 c0 f4 ff ff 	or     -0xb40(%rbp),%rax
    8ef7:	48 c1 e8 3f          	shr    $0x3f,%rax
    8efb:	0f b6 c0             	movzbl %al,%eax
    8efe:	89 de                	mov    %ebx,%esi
    8f00:	89 c7                	mov    %eax,%edi
    8f02:	e8 36 ee ff ff       	callq  7d3d <safe_mul_func_uint16_t_u_u>
    8f07:	98                   	cwtl   
    8f08:	89 c6                	mov    %eax,%esi
    8f0a:	bf 01 00 00 00       	mov    $0x1,%edi
    8f0f:	e8 e1 e4 ff ff       	callq  73f5 <safe_mul_func_int16_t_s_s>
    8f14:	48 8b 85 b8 f5 ff ff 	mov    -0xa48(%rbp),%rax
    8f1b:	48 85 c0             	test   %rax,%rax
    8f1e:	0f 95 c0             	setne  %al
    8f21:	0f b6 c0             	movzbl %al,%eax
    8f24:	be 42 f7 00 00       	mov    $0xf742,%esi
    8f29:	89 c7                	mov    %eax,%edi
    8f2b:	e8 5e ee ff ff       	callq  7d8e <safe_div_func_uint16_t_u_u>
    8f30:	83 bd d8 f4 ff ff 01 	cmpl   $0x1,-0xb28(%rbp)
    8f37:	0f 95 c0             	setne  %al
    8f3a:	0f b6 d8             	movzbl %al,%ebx
    8f3d:	8b 85 28 f5 ff ff    	mov    -0xad8(%rbp),%eax
    8f43:	89 c7                	mov    %eax,%edi
    8f45:	e8 4c e6 ff ff       	callq  7596 <safe_unary_minus_func_int32_t_s>
    8f4a:	48 98                	cltq   
    8f4c:	48 89 de             	mov    %rbx,%rsi
    8f4f:	48 89 c7             	mov    %rax,%rdi
    8f52:	e8 ea e8 ff ff       	callq  7841 <safe_add_func_int64_t_s_s>
    8f57:	0f b7 c0             	movzwl %ax,%eax
    8f5a:	89 c7                	mov    %eax,%edi
    8f5c:	e8 88 ed ff ff       	callq  7ce9 <safe_unary_minus_func_uint16_t_u>
    8f61:	34 cc                	xor    $0xcc,%al
    8f63:	0f b7 d0             	movzwl %ax,%edx
    8f66:	8b 85 d8 f4 ff ff    	mov    -0xb28(%rbp),%eax
    8f6c:	48 98                	cltq   
    8f6e:	48 39 c2             	cmp    %rax,%rdx
    8f71:	75 0d                	jne    8f80 <func_13+0x431>
    8f73:	83 bd d8 f4 ff ff 00 	cmpl   $0x0,-0xb28(%rbp)
    8f7a:	0f 84 7a 1d 00 00    	je     acfa <func_13+0x21ab>
    8f80:	48 8d 05 71 1f 01 00 	lea    0x11f71(%rip),%rax        # 1aef8 <g_368+0x18>
    8f87:	48 89 85 58 f6 ff ff 	mov    %rax,-0x9a8(%rbp)
    8f8e:	48 c7 85 60 f6 ff ff 	movq   $0x0,-0x9a0(%rbp)
    8f95:	00 00 00 00 
    8f99:	48 8d 05 30 06 01 00 	lea    0x10630(%rip),%rax        # 195d0 <g_2148+0x150>
    8fa0:	48 89 85 68 f6 ff ff 	mov    %rax,-0x998(%rbp)
    8fa7:	48 8d 05 0e 04 01 00 	lea    0x1040e(%rip),%rax        # 193bc <g_1616>
    8fae:	48 89 85 70 f6 ff ff 	mov    %rax,-0x990(%rbp)
    8fb5:	48 8d 05 74 22 01 00 	lea    0x12274(%rip),%rax        # 1b230 <g_808>
    8fbc:	48 89 85 78 f6 ff ff 	mov    %rax,-0x988(%rbp)
    8fc3:	66 c7 85 fa f4 ff ff 	movw   $0xd773,-0xb06(%rbp)
    8fca:	73 d7 
    8fcc:	48 8d 05 97 00 01 00 	lea    0x10097(%rip),%rax        # 1906a <g_92+0xa>
    8fd3:	48 89 85 f8 f5 ff ff 	mov    %rax,-0xa08(%rbp)
    8fda:	c6 85 ed f4 ff ff 75 	movb   $0x75,-0xb13(%rbp)
    8fe1:	48 8d 05 60 34 01 00 	lea    0x13460(%rip),%rax        # 1c448 <g_12>
    8fe8:	48 89 85 80 f6 ff ff 	mov    %rax,-0x980(%rbp)
    8fef:	66 c7 85 fc f4 ff ff 	movw   $0xfffb,-0xb04(%rbp)
    8ff6:	fb ff 
    8ff8:	48 8d 85 c8 f5 ff ff 	lea    -0xa38(%rbp),%rax
    8fff:	48 89 85 88 f6 ff ff 	mov    %rax,-0x978(%rbp)
    9006:	c6 85 ee f4 ff ff 09 	movb   $0x9,-0xb12(%rbp)
    900d:	66 c7 85 fe f4 ff ff 	movw   $0xffff,-0xb02(%rbp)
    9014:	ff ff 
    9016:	48 c7 85 00 f6 ff ff 	movq   $0x0,-0xa00(%rbp)
    901d:	00 00 00 00 
    9021:	c7 85 64 f5 ff ff 04 	movl   $0x4,-0xa9c(%rbp)
    9028:	00 00 00 
    902b:	c6 85 f1 f4 ff ff 7b 	movb   $0x7b,-0xb0f(%rbp)
    9032:	c7 85 20 f5 ff ff 00 	movl   $0x0,-0xae0(%rbp)
    9039:	00 00 00 
    903c:	eb 1a                	jmp    9058 <func_13+0x509>
    903e:	8b 85 20 f5 ff ff    	mov    -0xae0(%rbp),%eax
    9044:	48 98                	cltq   
    9046:	c7 84 85 2c f7 ff ff 	movl   $0x3,-0x8d4(%rbp,%rax,4)
    904d:	03 00 00 00 
    9051:	83 85 20 f5 ff ff 01 	addl   $0x1,-0xae0(%rbp)
    9058:	83 bd 20 f5 ff ff 00 	cmpl   $0x0,-0xae0(%rbp)
    905f:	7e dd                	jle    903e <func_13+0x4ef>
    9061:	48 8b 85 a8 f5 ff ff 	mov    -0xa58(%rbp),%rax
    9068:	48 8b 00             	mov    (%rax),%rax
    906b:	8b 18                	mov    (%rax),%ebx
    906d:	48 8b 85 a8 f5 ff ff 	mov    -0xa58(%rbp),%rax
    9074:	48 8b 00             	mov    (%rax),%rax
    9077:	8b 00                	mov    (%rax),%eax
    9079:	48 63 d0             	movslq %eax,%rdx
    907c:	0f b7 05 7d 03 01 00 	movzwl 0x1037d(%rip),%eax        # 19400 <g_1628+0x20>
    9083:	c1 e0 04             	shl    $0x4,%eax
    9086:	66 c1 f8 04          	sar    $0x4,%ax
    908a:	48 0f bf c0          	movswq %ax,%rax
    908e:	48 89 d6             	mov    %rdx,%rsi
    9091:	48 89 c7             	mov    %rax,%rdi
    9094:	e8 16 f0 ff ff       	callq  80af <safe_div_func_uint64_t_u_u>
    9099:	48 8b 85 68 f6 ff ff 	mov    -0x998(%rbp),%rax
    90a0:	48 c7 00 ff ff ff ff 	movq   $0xffffffffffffffff,(%rax)
    90a7:	48 8b 85 68 f6 ff ff 	mov    -0x998(%rbp),%rax
    90ae:	48 8b 00             	mov    (%rax),%rax
    90b1:	48 be 4a 3f fc d8 88 	movabs $0xa4769b88d8fc3f4a,%rsi
    90b8:	9b 76 a4 
    90bb:	48 89 c7             	mov    %rax,%rdi
    90be:	e8 e5 e7 ff ff       	callq  78a8 <safe_sub_func_int64_t_s_s>
    90c3:	0f be c0             	movsbl %al,%eax
    90c6:	be fa ff ff ff       	mov    $0xfffffffa,%esi
    90cb:	89 c7                	mov    %eax,%edi
    90cd:	e8 40 e1 ff ff       	callq  7212 <safe_mul_func_int8_t_s_s>
    90d2:	0f b6 c0             	movzbl %al,%eax
    90d5:	89 de                	mov    %ebx,%esi
    90d7:	89 c7                	mov    %eax,%edi
    90d9:	e8 27 eb ff ff       	callq  7c05 <safe_lshift_func_uint8_t_u_s>
    90de:	48 8b 05 e3 1d 01 00 	mov    0x11de3(%rip),%rax        # 1aec8 <g_266>
    90e5:	48 8b 00             	mov    (%rax),%rax
    90e8:	48 8b 00             	mov    (%rax),%rax
    90eb:	48 85 c0             	test   %rax,%rax
    90ee:	75 14                	jne    9104 <func_13+0x5b5>
    90f0:	48 8b 85 b8 f5 ff ff 	mov    -0xa48(%rbp),%rax
    90f7:	48 8b 00             	mov    (%rax),%rax
    90fa:	48 8b 00             	mov    (%rax),%rax
    90fd:	48 8b 00             	mov    (%rax),%rax
    9100:	8b 00                	mov    (%rax),%eax
    9102:	85 c0                	test   %eax,%eax
    9104:	bf 01 00 00 00       	mov    $0x1,%edi
    9109:	e8 88 e4 ff ff       	callq  7596 <safe_unary_minus_func_int32_t_s>
    910e:	85 c0                	test   %eax,%eax
    9110:	0f 84 00 08 00 00    	je     9916 <func_13+0xdc7>
    9116:	c7 85 24 f5 ff ff 00 	movl   $0x0,-0xadc(%rbp)
    911d:	00 00 00 
    9120:	48 8d 05 88 08 01 00 	lea    0x10888(%rip),%rax        # 199af <g_2370+0xf>
    9127:	48 89 85 c8 f6 ff ff 	mov    %rax,-0x938(%rbp)
    912e:	48 c7 85 d0 f6 ff ff 	movq   $0x0,-0x930(%rbp)
    9135:	00 00 00 00 
    9139:	c7 85 90 f5 ff ff 04 	movl   $0x4,-0xa70(%rbp)
    9140:	00 00 00 
    9143:	66 c7 85 00 f5 ff ff 	movw   $0x1,-0xb00(%rbp)
    914a:	01 00 
    914c:	48 8d 05 f5 26 01 00 	lea    0x126f5(%rip),%rax        # 1b848 <g_2492>
    9153:	48 89 85 d8 f6 ff ff 	mov    %rax,-0x928(%rbp)
    915a:	48 c7 85 e0 f6 ff ff 	movq   $0x0,-0x920(%rbp)
    9161:	00 00 00 00 
    9165:	48 8d 05 f8 01 01 00 	lea    0x101f8(%rip),%rax        # 19364 <g_1340>
    916c:	48 89 85 e8 f6 ff ff 	mov    %rax,-0x918(%rbp)
    9173:	48 8d 05 86 02 01 00 	lea    0x10286(%rip),%rax        # 19400 <g_1628+0x20>
    917a:	48 89 85 20 fd ff ff 	mov    %rax,-0x2e0(%rbp)
    9181:	48 8d 05 68 02 01 00 	lea    0x10268(%rip),%rax        # 193f0 <g_1628+0x10>
    9188:	48 89 85 28 fd ff ff 	mov    %rax,-0x2d8(%rbp)
    918f:	48 8d 05 6a 02 01 00 	lea    0x1026a(%rip),%rax        # 19400 <g_1628+0x20>
    9196:	48 89 85 30 fd ff ff 	mov    %rax,-0x2d0(%rbp)
    919d:	48 8d 05 4c 02 01 00 	lea    0x1024c(%rip),%rax        # 193f0 <g_1628+0x10>
    91a4:	48 89 85 38 fd ff ff 	mov    %rax,-0x2c8(%rbp)
    91ab:	48 8d 05 4e 02 01 00 	lea    0x1024e(%rip),%rax        # 19400 <g_1628+0x20>
    91b2:	48 89 85 40 fd ff ff 	mov    %rax,-0x2c0(%rbp)
    91b9:	48 8d 05 30 02 01 00 	lea    0x10230(%rip),%rax        # 193f0 <g_1628+0x10>
    91c0:	48 89 85 48 fd ff ff 	mov    %rax,-0x2b8(%rbp)
    91c7:	48 8d 05 32 02 01 00 	lea    0x10232(%rip),%rax        # 19400 <g_1628+0x20>
    91ce:	48 89 85 50 fd ff ff 	mov    %rax,-0x2b0(%rbp)
    91d5:	48 8d 85 c8 f5 ff ff 	lea    -0xa38(%rbp),%rax
    91dc:	48 89 85 58 fd ff ff 	mov    %rax,-0x2a8(%rbp)
    91e3:	48 8d 85 c8 f5 ff ff 	lea    -0xa38(%rbp),%rax
    91ea:	48 89 85 60 fd ff ff 	mov    %rax,-0x2a0(%rbp)
    91f1:	48 8d 85 c8 f5 ff ff 	lea    -0xa38(%rbp),%rax
    91f8:	48 89 85 68 fd ff ff 	mov    %rax,-0x298(%rbp)
    91ff:	48 8d 85 c8 f5 ff ff 	lea    -0xa38(%rbp),%rax
    9206:	48 89 85 70 fd ff ff 	mov    %rax,-0x290(%rbp)
    920d:	48 8d 85 c8 f5 ff ff 	lea    -0xa38(%rbp),%rax
    9214:	48 89 85 78 fd ff ff 	mov    %rax,-0x288(%rbp)
    921b:	48 8d 85 c8 f5 ff ff 	lea    -0xa38(%rbp),%rax
    9222:	48 89 85 80 fd ff ff 	mov    %rax,-0x280(%rbp)
    9229:	48 8d 85 c8 f5 ff ff 	lea    -0xa38(%rbp),%rax
    9230:	48 89 85 88 fd ff ff 	mov    %rax,-0x278(%rbp)
    9237:	48 8d 05 c2 01 01 00 	lea    0x101c2(%rip),%rax        # 19400 <g_1628+0x20>
    923e:	48 89 85 90 fd ff ff 	mov    %rax,-0x270(%rbp)
    9245:	48 8d 05 a4 01 01 00 	lea    0x101a4(%rip),%rax        # 193f0 <g_1628+0x10>
    924c:	48 89 85 98 fd ff ff 	mov    %rax,-0x268(%rbp)
    9253:	48 8d 05 a6 01 01 00 	lea    0x101a6(%rip),%rax        # 19400 <g_1628+0x20>
    925a:	48 89 85 a0 fd ff ff 	mov    %rax,-0x260(%rbp)
    9261:	48 8d 05 88 01 01 00 	lea    0x10188(%rip),%rax        # 193f0 <g_1628+0x10>
    9268:	48 89 85 a8 fd ff ff 	mov    %rax,-0x258(%rbp)
    926f:	48 8d 05 8a 01 01 00 	lea    0x1018a(%rip),%rax        # 19400 <g_1628+0x20>
    9276:	48 89 85 b0 fd ff ff 	mov    %rax,-0x250(%rbp)
    927d:	48 8d 05 6c 01 01 00 	lea    0x1016c(%rip),%rax        # 193f0 <g_1628+0x10>
    9284:	48 89 85 b8 fd ff ff 	mov    %rax,-0x248(%rbp)
    928b:	48 8d 05 6e 01 01 00 	lea    0x1016e(%rip),%rax        # 19400 <g_1628+0x20>
    9292:	48 89 85 c0 fd ff ff 	mov    %rax,-0x240(%rbp)
    9299:	48 8d 85 c8 f5 ff ff 	lea    -0xa38(%rbp),%rax
    92a0:	48 89 85 c8 fd ff ff 	mov    %rax,-0x238(%rbp)
    92a7:	48 8d 85 c8 f5 ff ff 	lea    -0xa38(%rbp),%rax
    92ae:	48 89 85 d0 fd ff ff 	mov    %rax,-0x230(%rbp)
    92b5:	48 8d 85 c8 f5 ff ff 	lea    -0xa38(%rbp),%rax
    92bc:	48 89 85 d8 fd ff ff 	mov    %rax,-0x228(%rbp)
    92c3:	48 8d 85 c8 f5 ff ff 	lea    -0xa38(%rbp),%rax
    92ca:	48 89 85 e0 fd ff ff 	mov    %rax,-0x220(%rbp)
    92d1:	48 8d 85 c8 f5 ff ff 	lea    -0xa38(%rbp),%rax
    92d8:	48 89 85 e8 fd ff ff 	mov    %rax,-0x218(%rbp)
    92df:	48 8d 85 c8 f5 ff ff 	lea    -0xa38(%rbp),%rax
    92e6:	48 89 85 f0 fd ff ff 	mov    %rax,-0x210(%rbp)
    92ed:	48 8d 85 c8 f5 ff ff 	lea    -0xa38(%rbp),%rax
    92f4:	48 89 85 f8 fd ff ff 	mov    %rax,-0x208(%rbp)
    92fb:	48 c7 85 d0 f4 ff ff 	movq   $0x0,-0xb30(%rbp)
    9302:	00 00 00 00 
    9306:	e9 23 03 00 00       	jmpq   962e <func_13+0xadf>
    930b:	48 c7 85 f0 f6 ff ff 	movq   $0x0,-0x910(%rbp)
    9312:	00 00 00 00 
    9316:	48 8d 05 3b fd 00 00 	lea    0xfd3b(%rip),%rax        # 19058 <g_65>
    931d:	48 89 85 f8 f6 ff ff 	mov    %rax,-0x908(%rbp)
    9324:	48 c7 85 00 f7 ff ff 	movq   $0x0,-0x900(%rbp)
    932b:	00 00 00 00 
    932f:	48 8d 05 3a fd 00 00 	lea    0xfd3a(%rip),%rax        # 19070 <g_92+0x10>
    9336:	48 89 85 08 f7 ff ff 	mov    %rax,-0x8f8(%rbp)
    933d:	c7 85 94 f5 ff ff 3f 	movl   $0x5bb0a13f,-0xa6c(%rbp)
    9344:	a1 b0 5b 
    9347:	c7 85 98 f5 ff ff f1 	movl   $0xcaea59f1,-0xa68(%rbp)
    934e:	59 ea ca 
    9351:	c7 85 9c f5 ff ff 6a 	movl   $0xe1ab406a,-0xa64(%rbp)
    9358:	40 ab e1 
    935b:	c7 85 a0 f5 ff ff 00 	movl   $0x0,-0xa60(%rbp)
    9362:	00 00 00 
    9365:	c6 05 dd 31 01 00 00 	movb   $0x0,0x131dd(%rip)        # 1c549 <g_1946>
    936c:	eb 35                	jmp    93a3 <func_13+0x854>
    936e:	48 c7 05 c7 00 01 00 	movq   $0x0,0x100c7(%rip)        # 19440 <g_1704>
    9375:	00 00 00 00 
    9379:	90                   	nop
    937a:	48 8b 05 bf 00 01 00 	mov    0x100bf(%rip),%rax        # 19440 <g_1704>
    9381:	48 83 f8 01          	cmp    $0x1,%rax
    9385:	77 0c                	ja     9393 <func_13+0x844>
    9387:	48 8b 85 c8 f4 ff ff 	mov    -0xb38(%rbp),%rax
    938e:	e9 5a 1c 00 00       	jmpq   afed <func_13+0x249e>
    9393:	0f b6 05 af 31 01 00 	movzbl 0x131af(%rip),%eax        # 1c549 <g_1946>
    939a:	83 c0 01             	add    $0x1,%eax
    939d:	88 05 a6 31 01 00    	mov    %al,0x131a6(%rip)        # 1c549 <g_1946>
    93a3:	0f b6 05 9f 31 01 00 	movzbl 0x1319f(%rip),%eax        # 1c549 <g_1946>
    93aa:	3c 09                	cmp    $0x9,%al
    93ac:	76 c0                	jbe    936e <func_13+0x81f>
    93ae:	c7 05 c0 30 01 00 00 	movl   $0x0,0x130c0(%rip)        # 1c478 <g_213>
    93b5:	00 00 00 
    93b8:	eb 67                	jmp    9421 <func_13+0x8d2>
    93ba:	48 c7 05 4b 05 01 00 	movq   $0x0,0x1054b(%rip)        # 19910 <g_2218>
    93c1:	00 00 00 00 
    93c5:	eb 1c                	jmp    93e3 <func_13+0x894>
    93c7:	c7 85 24 f5 ff ff 13 	movl   $0x75c94813,-0xadc(%rbp)
    93ce:	48 c9 75 
    93d1:	48 8b 05 38 05 01 00 	mov    0x10538(%rip),%rax        # 19910 <g_2218>
    93d8:	48 83 c0 01          	add    $0x1,%rax
    93dc:	48 89 05 2d 05 01 00 	mov    %rax,0x1052d(%rip)        # 19910 <g_2218>
    93e3:	48 8b 05 26 05 01 00 	mov    0x10526(%rip),%rax        # 19910 <g_2218>
    93ea:	48 83 f8 02          	cmp    $0x2,%rax
    93ee:	76 d7                	jbe    93c7 <func_13+0x878>
    93f0:	c7 05 d6 fc 00 00 00 	movl   $0x0,0xfcd6(%rip)        # 190d0 <g_214>
    93f7:	00 00 00 
    93fa:	90                   	nop
    93fb:	8b 05 cf fc 00 00    	mov    0xfccf(%rip),%eax        # 190d0 <g_214>
    9401:	83 f8 09             	cmp    $0x9,%eax
    9404:	7f 0c                	jg     9412 <func_13+0x8c3>
    9406:	48 8b 85 c8 f6 ff ff 	mov    -0x938(%rbp),%rax
    940d:	e9 db 1b 00 00       	jmpq   afed <func_13+0x249e>
    9412:	8b 05 60 30 01 00    	mov    0x13060(%rip),%eax        # 1c478 <g_213>
    9418:	83 c0 01             	add    $0x1,%eax
    941b:	89 05 57 30 01 00    	mov    %eax,0x13057(%rip)        # 1c478 <g_213>
    9421:	8b 05 51 30 01 00    	mov    0x13051(%rip),%eax        # 1c478 <g_213>
    9427:	83 f8 09             	cmp    $0x9,%eax
    942a:	76 8e                	jbe    93ba <func_13+0x86b>
    942c:	8b 05 1a 05 01 00    	mov    0x1051a(%rip),%eax        # 1994c <g_2272+0xc>
    9432:	0f b7 c0             	movzwl %ax,%eax
    9435:	be 0a 00 00 00       	mov    $0xa,%esi
    943a:	89 c7                	mov    %eax,%edi
    943c:	e8 7d e9 ff ff       	callq  7dbe <safe_lshift_func_uint16_t_u_s>
    9441:	0f b7 d0             	movzwl %ax,%edx
    9444:	48 8b 85 f8 f6 ff ff 	mov    -0x908(%rbp),%rax
    944b:	89 10                	mov    %edx,(%rax)
    944d:	48 8b 85 f8 f6 ff ff 	mov    -0x908(%rbp),%rax
    9454:	8b 00                	mov    (%rax),%eax
    9456:	21 85 24 f5 ff ff    	and    %eax,-0xadc(%rbp)
    945c:	80 bd dc f4 ff ff 00 	cmpb   $0x0,-0xb24(%rbp)
    9463:	0f 85 d5 01 00 00    	jne    963e <func_13+0xaef>
    9469:	c6 05 40 fd 00 00 00 	movb   $0x0,0xfd40(%rip)        # 191b0 <g_358>
    9470:	e9 9f 01 00 00       	jmpq   9614 <func_13+0xac5>
    9475:	66 c7 85 02 f5 ff ff 	movw   $0xfffb,-0xafe(%rbp)
    947c:	fb ff 
    947e:	48 c7 85 18 f6 ff ff 	movq   $0x0,-0x9e8(%rbp)
    9485:	00 00 00 00 
    9489:	48 c7 85 80 f8 ff ff 	movq   $0x0,-0x780(%rbp)
    9490:	00 00 00 00 
    9494:	48 8d 85 18 f6 ff ff 	lea    -0x9e8(%rbp),%rax
    949b:	48 89 85 88 f8 ff ff 	mov    %rax,-0x778(%rbp)
    94a2:	48 c7 85 90 f8 ff ff 	movq   $0x0,-0x770(%rbp)
    94a9:	00 00 00 00 
    94ad:	48 c7 85 98 f8 ff ff 	movq   $0x0,-0x768(%rbp)
    94b4:	00 00 00 00 
    94b8:	48 8d 85 18 f6 ff ff 	lea    -0x9e8(%rbp),%rax
    94bf:	48 89 85 a0 f8 ff ff 	mov    %rax,-0x760(%rbp)
    94c6:	48 c7 85 a8 f8 ff ff 	movq   $0x0,-0x758(%rbp)
    94cd:	00 00 00 00 
    94d1:	c6 85 10 f6 ff ff 5a 	movb   $0x5a,-0x9f0(%rbp)
    94d8:	48 c7 85 20 fb ff ff 	movq   $0x0,-0x4e0(%rbp)
    94df:	00 00 00 00 
    94e3:	48 8d 85 f8 f5 ff ff 	lea    -0xa08(%rbp),%rax
    94ea:	48 89 85 28 fb ff ff 	mov    %rax,-0x4d8(%rbp)
    94f1:	48 c7 85 30 fb ff ff 	movq   $0x0,-0x4d0(%rbp)
    94f8:	00 00 00 00 
    94fc:	48 c7 85 38 fb ff ff 	movq   $0x0,-0x4c8(%rbp)
    9503:	00 00 00 00 
    9507:	48 8d 85 f8 f5 ff ff 	lea    -0xa08(%rbp),%rax
    950e:	48 89 85 40 fb ff ff 	mov    %rax,-0x4c0(%rbp)
    9515:	48 8d 85 f8 f5 ff ff 	lea    -0xa08(%rbp),%rax
    951c:	48 89 85 48 fb ff ff 	mov    %rax,-0x4b8(%rbp)
    9523:	48 8d 85 f8 f5 ff ff 	lea    -0xa08(%rbp),%rax
    952a:	48 89 85 50 fb ff ff 	mov    %rax,-0x4b0(%rbp)
    9531:	48 8d 85 f8 f5 ff ff 	lea    -0xa08(%rbp),%rax
    9538:	48 89 85 58 fb ff ff 	mov    %rax,-0x4a8(%rbp)
    953f:	48 8d 85 f8 f5 ff ff 	lea    -0xa08(%rbp),%rax
    9546:	48 89 85 60 fb ff ff 	mov    %rax,-0x4a0(%rbp)
    954d:	48 c7 85 68 fb ff ff 	movq   $0x0,-0x498(%rbp)
    9554:	00 00 00 00 
    9558:	48 c7 85 70 fb ff ff 	movq   $0x0,-0x490(%rbp)
    955f:	00 00 00 00 
    9563:	48 8d 85 f8 f5 ff ff 	lea    -0xa08(%rbp),%rax
    956a:	48 89 85 78 fb ff ff 	mov    %rax,-0x488(%rbp)
    9571:	48 c7 85 80 fb ff ff 	movq   $0x0,-0x480(%rbp)
    9578:	00 00 00 00 
    957c:	48 8d 85 f8 f5 ff ff 	lea    -0xa08(%rbp),%rax
    9583:	48 89 85 88 fb ff ff 	mov    %rax,-0x478(%rbp)
    958a:	48 c7 85 90 fb ff ff 	movq   $0x0,-0x470(%rbp)
    9591:	00 00 00 00 
    9595:	48 c7 85 98 fb ff ff 	movq   $0x0,-0x468(%rbp)
    959c:	00 00 00 00 
    95a0:	48 c7 85 20 f6 ff ff 	movq   $0x0,-0x9e0(%rbp)
    95a7:	00 00 00 00 
    95ab:	0f b7 85 20 f6 ff ff 	movzwl -0x9e0(%rbp),%eax
    95b2:	66 25 00 f0          	and    $0xf000,%ax
    95b6:	66 0d 4d 01          	or     $0x14d,%ax
    95ba:	66 89 85 20 f6 ff ff 	mov    %ax,-0x9e0(%rbp)
    95c1:	c6 85 f5 f4 ff ff 9c 	movb   $0x9c,-0xb0b(%rbp)
    95c8:	8b 05 06 04 01 00    	mov    0x10406(%rip),%eax        # 199d4 <g_2597>
    95ce:	48 8d 05 03 1c 01 00 	lea    0x11c03(%rip),%rax        # 1b1d8 <g_475>
    95d5:	48 89 85 10 f7 ff ff 	mov    %rax,-0x8f0(%rbp)
    95dc:	48 8b 85 f8 f6 ff ff 	mov    -0x908(%rbp),%rax
    95e3:	c7 00 01 00 00 00    	movl   $0x1,(%rax)
    95e9:	66 83 bd 02 f5 ff ff 	cmpw   $0x0,-0xafe(%rbp)
    95f0:	00 
    95f1:	75 32                	jne    9625 <func_13+0xad6>
    95f3:	48 8b 85 10 f7 ff ff 	mov    -0x8f0(%rbp),%rax
    95fa:	48 8b 95 70 f6 ff ff 	mov    -0x990(%rbp),%rdx
    9601:	48 89 10             	mov    %rdx,(%rax)
    9604:	0f b6 05 a5 fb 00 00 	movzbl 0xfba5(%rip),%eax        # 191b0 <g_358>
    960b:	83 c0 01             	add    $0x1,%eax
    960e:	88 05 9c fb 00 00    	mov    %al,0xfb9c(%rip)        # 191b0 <g_358>
    9614:	0f b6 05 95 fb 00 00 	movzbl 0xfb95(%rip),%eax        # 191b0 <g_358>
    961b:	3c 01                	cmp    $0x1,%al
    961d:	0f 86 52 fe ff ff    	jbe    9475 <func_13+0x926>
    9623:	eb 01                	jmp    9626 <func_13+0xad7>
    9625:	90                   	nop
    9626:	48 83 85 d0 f4 ff ff 	addq   $0x1,-0xb30(%rbp)
    962d:	01 
    962e:	48 83 bd d0 f4 ff ff 	cmpq   $0x1,-0xb30(%rbp)
    9635:	01 
    9636:	0f 86 cf fc ff ff    	jbe    930b <func_13+0x7bc>
    963c:	eb 01                	jmp    963f <func_13+0xaf0>
    963e:	90                   	nop
    963f:	c7 05 8b fb 00 00 00 	movl   $0x0,0xfb8b(%rip)        # 191d4 <g_621>
    9646:	00 00 00 
    9649:	90                   	nop
    964a:	8b 05 84 fb 00 00    	mov    0xfb84(%rip),%eax        # 191d4 <g_621>
    9650:	85 c0                	test   %eax,%eax
    9652:	78 12                	js     9666 <func_13+0xb17>
    9654:	48 8b 05 f5 21 01 00 	mov    0x121f5(%rip),%rax        # 1b850 <g_2491>
    965b:	48 8b 00             	mov    (%rax),%rax
    965e:	48 8b 00             	mov    (%rax),%rax
    9661:	e9 87 19 00 00       	jmpq   afed <func_13+0x249e>
    9666:	48 8b 85 d0 f4 ff ff 	mov    -0xb30(%rbp),%rax
    966d:	41 89 c6             	mov    %eax,%r14d
    9670:	0f b6 85 dc f4 ff ff 	movzbl -0xb24(%rbp),%eax
    9677:	0f be d8             	movsbl %al,%ebx
    967a:	48 8b 05 1f 1e 01 00 	mov    0x11e1f(%rip),%rax        # 1b4a0 <g_2005>
    9681:	48 8b 00             	mov    (%rax),%rax
    9684:	44 8b 20             	mov    (%rax),%r12d
    9687:	48 8b 85 d8 f6 ff ff 	mov    -0x928(%rbp),%rax
    968e:	48 8d 95 c8 f4 ff ff 	lea    -0xb38(%rbp),%rdx
    9695:	48 89 10             	mov    %rdx,(%rax)
    9698:	48 8b 85 d8 f6 ff ff 	mov    -0x928(%rbp),%rax
    969f:	48 8b 00             	mov    (%rax),%rax
    96a2:	48 39 85 80 f6 ff ff 	cmp    %rax,-0x980(%rbp)
    96a9:	0f 95 c0             	setne  %al
    96ac:	41 89 c7             	mov    %eax,%r15d
    96af:	48 8b 85 58 f6 ff ff 	mov    -0x9a8(%rbp),%rax
    96b6:	48 8b 00             	mov    (%rax),%rax
    96b9:	8b 10                	mov    (%rax),%edx
    96bb:	8d 4a ff             	lea    -0x1(%rdx),%ecx
    96be:	89 08                	mov    %ecx,(%rax)
    96c0:	48 8b 05 e9 1d 01 00 	mov    0x11de9(%rip),%rax        # 1b4b0 <g_2003>
    96c7:	48 8b 00             	mov    (%rax),%rax
    96ca:	48 8b 00             	mov    (%rax),%rax
    96cd:	48 8b 00             	mov    (%rax),%rax
    96d0:	8b 00                	mov    (%rax),%eax
    96d2:	89 c1                	mov    %eax,%ecx
    96d4:	48 8b 85 e8 f6 ff ff 	mov    -0x918(%rbp),%rax
    96db:	8b 00                	mov    (%rax),%eax
    96dd:	21 c2                	and    %eax,%edx
    96df:	48 8b 85 e8 f6 ff ff 	mov    -0x918(%rbp),%rax
    96e6:	89 10                	mov    %edx,(%rax)
    96e8:	48 8b 85 e8 f6 ff ff 	mov    -0x918(%rbp),%rax
    96ef:	8b 00                	mov    (%rax),%eax
    96f1:	31 c8                	xor    %ecx,%eax
    96f3:	0f b6 d0             	movzbl %al,%edx
    96f6:	48 8b 05 33 1d 01 00 	mov    0x11d33(%rip),%rax        # 1b430 <g_1926>
    96fd:	0f b6 00             	movzbl (%rax),%eax
    9700:	0f b6 c0             	movzbl %al,%eax
    9703:	89 d6                	mov    %edx,%esi
    9705:	89 c7                	mov    %eax,%edi
    9707:	e8 a2 e4 ff ff       	callq  7bae <safe_mod_func_uint8_t_u_u>
    970c:	88 85 df f4 ff ff    	mov    %al,-0xb21(%rbp)
    9712:	8b 85 90 f5 ff ff    	mov    -0xa70(%rbp),%eax
    9718:	44 0f b7 e8          	movzwl %ax,%r13d
    971c:	48 8b 85 78 f6 ff ff 	mov    -0x988(%rbp),%rax
    9723:	48 8b 00             	mov    (%rax),%rax
    9726:	8b 00                	mov    (%rax),%eax
    9728:	89 c6                	mov    %eax,%esi
    972a:	bf 00 00 00 00       	mov    $0x0,%edi
    972f:	e8 f6 dd ff ff       	callq  752a <safe_rshift_func_int16_t_s_s>
    9734:	66 c1 e8 0f          	shr    $0xf,%ax
    9738:	89 c2                	mov    %eax,%edx
    973a:	48 8b 05 df 1a 01 00 	mov    0x11adf(%rip),%rax        # 1b220 <g_784>
    9741:	48 8b 00             	mov    (%rax),%rax
    9744:	0f b6 d2             	movzbl %dl,%edx
    9747:	66 89 10             	mov    %dx,(%rax)
    974a:	0f b7 00             	movzwl (%rax),%eax
    974d:	66 85 c0             	test   %ax,%ax
    9750:	75 0f                	jne    9761 <func_13+0xc12>
    9752:	48 8b 05 bf 1a 01 00 	mov    0x11abf(%rip),%rax        # 1b218 <g_785>
    9759:	0f b7 00             	movzwl (%rax),%eax
    975c:	66 85 c0             	test   %ax,%ax
    975f:	74 07                	je     9768 <func_13+0xc19>
    9761:	b8 01 00 00 00       	mov    $0x1,%eax
    9766:	eb 05                	jmp    976d <func_13+0xc1e>
    9768:	b8 00 00 00 00       	mov    $0x0,%eax
    976d:	48 98                	cltq   
    976f:	48 31 85 c0 f4 ff ff 	xor    %rax,-0xb40(%rbp)
    9776:	0f b6 85 dc f4 ff ff 	movzbl -0xb24(%rbp),%eax
    977d:	48 39 85 c0 f4 ff ff 	cmp    %rax,-0xb40(%rbp)
    9784:	0f 95 c0             	setne  %al
    9787:	0f b6 c0             	movzbl %al,%eax
    978a:	be 07 00 00 00       	mov    $0x7,%esi
    978f:	89 c7                	mov    %eax,%edi
    9791:	e8 d6 db ff ff       	callq  736c <safe_rshift_func_int8_t_s_u>
    9796:	0f be d0             	movsbl %al,%edx
    9799:	48 8b 85 78 f6 ff ff 	mov    -0x988(%rbp),%rax
    97a0:	48 8b 00             	mov    (%rax),%rax
    97a3:	8b 00                	mov    (%rax),%eax
    97a5:	39 c2                	cmp    %eax,%edx
    97a7:	74 07                	je     97b0 <func_13+0xc61>
    97a9:	b8 01 00 00 00       	mov    $0x1,%eax
    97ae:	eb 05                	jmp    97b5 <func_13+0xc66>
    97b0:	b8 00 00 00 00       	mov    $0x0,%eax
    97b5:	48 98                	cltq   
    97b7:	48 39 85 d0 f4 ff ff 	cmp    %rax,-0xb30(%rbp)
    97be:	0f 96 c0             	setbe  %al
    97c1:	0f b6 c0             	movzbl %al,%eax
    97c4:	be 01 00 00 00       	mov    $0x1,%esi
    97c9:	89 c7                	mov    %eax,%edi
    97cb:	e8 1e db ff ff       	callq  72ee <safe_lshift_func_int8_t_s_u>
    97d0:	48 0f be c0          	movsbq %al,%rax
    97d4:	48 39 85 d0 f4 ff ff 	cmp    %rax,-0xb30(%rbp)
    97db:	0f 96 c0             	setbe  %al
    97de:	0f b6 d0             	movzbl %al,%edx
    97e1:	48 8b 85 78 f6 ff ff 	mov    -0x988(%rbp),%rax
    97e8:	48 8b 00             	mov    (%rax),%rax
    97eb:	8b 00                	mov    (%rax),%eax
    97ed:	39 c2                	cmp    %eax,%edx
    97ef:	0f 95 c0             	setne  %al
    97f2:	0f b6 c0             	movzbl %al,%eax
    97f5:	f7 d0                	not    %eax
    97f7:	0f b7 c0             	movzwl %ax,%eax
    97fa:	44 89 ee             	mov    %r13d,%esi
    97fd:	89 c7                	mov    %eax,%edi
    97ff:	e8 58 e5 ff ff       	callq  7d5c <safe_mod_func_uint16_t_u_u>
    9804:	0f b7 c0             	movzwl %ax,%eax
    9807:	39 85 90 f5 ff ff    	cmp    %eax,-0xa70(%rbp)
    980d:	7d 17                	jge    9826 <func_13+0xcd7>
    980f:	48 8b 85 78 f6 ff ff 	mov    -0x988(%rbp),%rax
    9816:	48 8b 00             	mov    (%rax),%rax
    9819:	8b 00                	mov    (%rax),%eax
    981b:	85 c0                	test   %eax,%eax
    981d:	74 07                	je     9826 <func_13+0xcd7>
    981f:	b8 01 00 00 00       	mov    $0x1,%eax
    9824:	eb 05                	jmp    982b <func_13+0xcdc>
    9826:	b8 00 00 00 00       	mov    $0x0,%eax
    982b:	0a 85 df f4 ff ff    	or     -0xb21(%rbp),%al
    9831:	44 21 f8             	and    %r15d,%eax
    9834:	0f be c0             	movsbl %al,%eax
    9837:	be 01 00 00 00       	mov    $0x1,%esi
    983c:	89 c7                	mov    %eax,%edi
    983e:	e8 ab da ff ff       	callq  72ee <safe_lshift_func_int8_t_s_u>
    9843:	66 98                	cbtw   
    9845:	0f b7 c0             	movzwl %ax,%eax
    9848:	be 01 00 00 00       	mov    $0x1,%esi
    984d:	89 c7                	mov    %eax,%edi
    984f:	e8 6a e5 ff ff       	callq  7dbe <safe_lshift_func_uint16_t_u_s>
    9854:	44 89 e6             	mov    %r12d,%esi
    9857:	bf 01 00 00 00       	mov    $0x1,%edi
    985c:	e8 6b de ff ff       	callq  76cc <safe_mod_func_int32_t_s_s>
    9861:	66 89 85 fc f4 ff ff 	mov    %ax,-0xb04(%rbp)
    9868:	0f bf 95 fc f4 ff ff 	movswl -0xb04(%rbp),%edx
    986f:	48 8b 05 2a 1c 01 00 	mov    0x11c2a(%rip),%rax        # 1b4a0 <g_2005>
    9876:	48 8b 00             	mov    (%rax),%rax
    9879:	8b 00                	mov    (%rax),%eax
    987b:	39 c2                	cmp    %eax,%edx
    987d:	0f 95 c0             	setne  %al
    9880:	0f b6 c0             	movzbl %al,%eax
    9883:	48 39 85 d0 f4 ff ff 	cmp    %rax,-0xb30(%rbp)
    988a:	0f 94 c0             	sete   %al
    988d:	0f b6 c0             	movzbl %al,%eax
    9890:	89 de                	mov    %ebx,%esi
    9892:	89 c7                	mov    %eax,%edi
    9894:	e8 3b d9 ff ff       	callq  71d4 <safe_add_func_int8_t_s_s>
    9899:	f7 d0                	not    %eax
    989b:	0f b6 c0             	movzbl %al,%eax
    989e:	44 89 f6             	mov    %r14d,%esi
    98a1:	89 c7                	mov    %eax,%edi
    98a3:	e8 a4 e3 ff ff       	callq  7c4c <safe_lshift_func_uint8_t_u_u>
    98a8:	0f b6 c0             	movzbl %al,%eax
    98ab:	89 85 2c f7 ff ff    	mov    %eax,-0x8d4(%rbp)
    98b1:	c7 05 e9 f7 00 00 00 	movl   $0x0,0xf7e9(%rip)        # 190a4 <g_119>
    98b8:	00 00 00 
    98bb:	eb 49                	jmp    9906 <func_13+0xdb7>
    98bd:	c7 85 a4 f5 ff ff 06 	movl   $0x6,-0xa5c(%rbp)
    98c4:	00 00 00 
    98c7:	48 8b 05 f2 1b 01 00 	mov    0x11bf2(%rip),%rax        # 1b4c0 <g_2048>
    98ce:	48 8b 95 90 fd ff ff 	mov    -0x270(%rbp),%rdx
    98d5:	48 89 10             	mov    %rdx,(%rax)
    98d8:	48 8b 00             	mov    (%rax),%rax
    98db:	48 39 85 88 f6 ff ff 	cmp    %rax,-0x978(%rbp)
    98e2:	0f 95 c0             	setne  %al
    98e5:	0f b6 c0             	movzbl %al,%eax
    98e8:	21 85 a4 f5 ff ff    	and    %eax,-0xa5c(%rbp)
    98ee:	8b 05 b0 f7 00 00    	mov    0xf7b0(%rip),%eax        # 190a4 <g_119>
    98f4:	be 03 00 00 00       	mov    $0x3,%esi
    98f9:	89 c7                	mov    %eax,%edi
    98fb:	e8 d0 e5 ff ff       	callq  7ed0 <safe_sub_func_uint32_t_u_u>
    9900:	89 05 9e f7 00 00    	mov    %eax,0xf79e(%rip)        # 190a4 <g_119>
    9906:	8b 05 98 f7 00 00    	mov    0xf798(%rip),%eax        # 190a4 <g_119>
    990c:	83 f8 ef             	cmp    $0xffffffef,%eax
    990f:	7d ac                	jge    98bd <func_13+0xd6e>
    9911:	e9 73 12 00 00       	jmpq   ab89 <func_13+0x203a>
    9916:	c7 85 68 f5 ff ff cb 	movl   $0x8de79acb,-0xa98(%rbp)
    991d:	9a e7 8d 
    9920:	c6 85 f2 f4 ff ff fc 	movb   $0xfc,-0xb0e(%rbp)
    9927:	c7 85 6c f5 ff ff d3 	movl   $0x25e4bad3,-0xa94(%rbp)
    992e:	ba e4 25 
    9931:	c7 85 70 f5 ff ff ff 	movl   $0xffffffff,-0xa90(%rbp)
    9938:	ff ff ff 
    993b:	c7 85 74 f5 ff ff fb 	movl   $0xfffffffb,-0xa8c(%rbp)
    9942:	ff ff ff 
    9945:	c7 85 04 f5 ff ff fc 	movl   $0xfffffffc,-0xafc(%rbp)
    994c:	ff ff ff 
    994f:	c7 85 78 f5 ff ff fa 	movl   $0xa6fc5fa,-0xa88(%rbp)
    9956:	c5 6f 0a 
    9959:	c7 85 7c f5 ff ff 04 	movl   $0x4,-0xa84(%rbp)
    9960:	00 00 00 
    9963:	c7 85 80 f5 ff ff e7 	movl   $0x3868b0e7,-0xa80(%rbp)
    996a:	b0 68 38 
    996d:	48 c7 85 08 f6 ff ff 	movq   $0x0,-0x9f8(%rbp)
    9974:	00 00 00 00 
    9978:	48 8d 85 08 f6 ff ff 	lea    -0x9f8(%rbp),%rax
    997f:	48 89 85 90 f6 ff ff 	mov    %rax,-0x970(%rbp)
    9986:	48 c7 85 10 f6 ff ff 	movq   $0x0,-0x9f0(%rbp)
    998d:	00 00 00 00 
    9991:	c6 85 ef f4 ff ff 01 	movb   $0x1,-0xb11(%rbp)
    9998:	48 8d 85 04 f5 ff ff 	lea    -0xafc(%rbp),%rax
    999f:	48 89 85 98 f6 ff ff 	mov    %rax,-0x968(%rbp)
    99a6:	66 c7 85 30 f8 ff ff 	movw   $0xc9af,-0x7d0(%rbp)
    99ad:	af c9 
    99af:	66 c7 85 32 f8 ff ff 	movw   $0x1,-0x7ce(%rbp)
    99b6:	01 00 
    99b8:	66 c7 85 34 f8 ff ff 	movw   $0x2,-0x7cc(%rbp)
    99bf:	02 00 
    99c1:	66 c7 85 36 f8 ff ff 	movw   $0x1,-0x7ca(%rbp)
    99c8:	01 00 
    99ca:	66 c7 85 38 f8 ff ff 	movw   $0x8,-0x7c8(%rbp)
    99d1:	08 00 
    99d3:	66 c7 85 3a f8 ff ff 	movw   $0xeb07,-0x7c6(%rbp)
    99da:	07 eb 
    99dc:	66 c7 85 3c f8 ff ff 	movw   $0x636b,-0x7c4(%rbp)
    99e3:	6b 63 
    99e5:	66 c7 85 3e f8 ff ff 	movw   $0x2,-0x7c2(%rbp)
    99ec:	02 00 
    99ee:	66 c7 85 40 f8 ff ff 	movw   $0x1,-0x7c0(%rbp)
    99f5:	01 00 
    99f7:	66 c7 85 42 f8 ff ff 	movw   $0xeb07,-0x7be(%rbp)
    99fe:	07 eb 
    9a00:	66 c7 85 44 f8 ff ff 	movw   $0xeb07,-0x7bc(%rbp)
    9a07:	07 eb 
    9a09:	66 c7 85 46 f8 ff ff 	movw   $0x1,-0x7ba(%rbp)
    9a10:	01 00 
    9a12:	66 c7 85 48 f8 ff ff 	movw   $0xeb07,-0x7b8(%rbp)
    9a19:	07 eb 
    9a1b:	66 c7 85 4a f8 ff ff 	movw   $0x1,-0x7b6(%rbp)
    9a22:	01 00 
    9a24:	66 c7 85 4c f8 ff ff 	movw   $0x8,-0x7b4(%rbp)
    9a2b:	08 00 
    9a2d:	66 c7 85 4e f8 ff ff 	movw   $0xc9af,-0x7b2(%rbp)
    9a34:	af c9 
    9a36:	66 c7 85 50 f8 ff ff 	movw   $0xeb07,-0x7b0(%rbp)
    9a3d:	07 eb 
    9a3f:	66 c7 85 52 f8 ff ff 	movw   $0x8,-0x7ae(%rbp)
    9a46:	08 00 
    9a48:	66 c7 85 54 f8 ff ff 	movw   $0xeb07,-0x7ac(%rbp)
    9a4f:	07 eb 
    9a51:	66 c7 85 56 f8 ff ff 	movw   $0x636b,-0x7aa(%rbp)
    9a58:	6b 63 
    9a5a:	66 c7 85 58 f8 ff ff 	movw   $0x1,-0x7a8(%rbp)
    9a61:	01 00 
    9a63:	66 c7 85 5a f8 ff ff 	movw   $0xc9af,-0x7a6(%rbp)
    9a6a:	af c9 
    9a6c:	66 c7 85 5c f8 ff ff 	movw   $0x636b,-0x7a4(%rbp)
    9a73:	6b 63 
    9a75:	66 c7 85 5e f8 ff ff 	movw   $0x636b,-0x7a2(%rbp)
    9a7c:	6b 63 
    9a7e:	66 c7 85 60 f8 ff ff 	movw   $0x7,-0x7a0(%rbp)
    9a85:	07 00 
    9a87:	66 c7 85 62 f8 ff ff 	movw   $0x7,-0x79e(%rbp)
    9a8e:	07 00 
    9a90:	66 c7 85 64 f8 ff ff 	movw   $0x8,-0x79c(%rbp)
    9a97:	08 00 
    9a99:	66 c7 85 66 f8 ff ff 	movw   $0x636b,-0x79a(%rbp)
    9aa0:	6b 63 
    9aa2:	66 c7 85 68 f8 ff ff 	movw   $0x636b,-0x798(%rbp)
    9aa9:	6b 63 
    9aab:	66 c7 85 6a f8 ff ff 	movw   $0xeb07,-0x796(%rbp)
    9ab2:	07 eb 
    9ab4:	66 c7 85 6c f8 ff ff 	movw   $0x8,-0x794(%rbp)
    9abb:	08 00 
    9abd:	66 c7 85 6e f8 ff ff 	movw   $0xeb07,-0x792(%rbp)
    9ac4:	07 eb 
    9ac6:	66 c7 85 70 f8 ff ff 	movw   $0x7,-0x790(%rbp)
    9acd:	07 00 
    9acf:	66 c7 85 72 f8 ff ff 	movw   $0xc9af,-0x78e(%rbp)
    9ad6:	af c9 
    9ad8:	66 c7 85 74 f8 ff ff 	movw   $0x2,-0x78c(%rbp)
    9adf:	02 00 
    9ae1:	66 c7 85 76 f8 ff ff 	movw   $0x8,-0x78a(%rbp)
    9ae8:	08 00 
    9aea:	66 c7 85 78 f8 ff ff 	movw   $0xeb07,-0x788(%rbp)
    9af1:	07 eb 
    9af3:	66 c7 85 7a f8 ff ff 	movw   $0xc9af,-0x786(%rbp)
    9afa:	af c9 
    9afc:	66 c7 85 7c f8 ff ff 	movw   $0xc9af,-0x784(%rbp)
    9b03:	af c9 
    9b05:	66 c7 85 7e f8 ff ff 	movw   $0xeb07,-0x782(%rbp)
    9b0c:	07 eb 
    9b0e:	48 8d 85 d0 f5 ff ff 	lea    -0xa30(%rbp),%rax
    9b15:	48 89 85 20 fb ff ff 	mov    %rax,-0x4e0(%rbp)
    9b1c:	48 8d 85 d0 f5 ff ff 	lea    -0xa30(%rbp),%rax
    9b23:	48 89 85 28 fb ff ff 	mov    %rax,-0x4d8(%rbp)
    9b2a:	48 8d 85 d0 f5 ff ff 	lea    -0xa30(%rbp),%rax
    9b31:	48 89 85 30 fb ff ff 	mov    %rax,-0x4d0(%rbp)
    9b38:	48 8d 85 d0 f5 ff ff 	lea    -0xa30(%rbp),%rax
    9b3f:	48 89 85 38 fb ff ff 	mov    %rax,-0x4c8(%rbp)
    9b46:	48 8d 85 d0 f5 ff ff 	lea    -0xa30(%rbp),%rax
    9b4d:	48 89 85 40 fb ff ff 	mov    %rax,-0x4c0(%rbp)
    9b54:	48 8d 85 d0 f5 ff ff 	lea    -0xa30(%rbp),%rax
    9b5b:	48 89 85 48 fb ff ff 	mov    %rax,-0x4b8(%rbp)
    9b62:	48 8d 85 d0 f5 ff ff 	lea    -0xa30(%rbp),%rax
    9b69:	48 89 85 50 fb ff ff 	mov    %rax,-0x4b0(%rbp)
    9b70:	48 8d 85 d0 f5 ff ff 	lea    -0xa30(%rbp),%rax
    9b77:	48 89 85 58 fb ff ff 	mov    %rax,-0x4a8(%rbp)
    9b7e:	48 8d 85 d0 f5 ff ff 	lea    -0xa30(%rbp),%rax
    9b85:	48 89 85 60 fb ff ff 	mov    %rax,-0x4a0(%rbp)
    9b8c:	48 8d 85 d0 f5 ff ff 	lea    -0xa30(%rbp),%rax
    9b93:	48 89 85 68 fb ff ff 	mov    %rax,-0x498(%rbp)
    9b9a:	48 8d 85 d0 f5 ff ff 	lea    -0xa30(%rbp),%rax
    9ba1:	48 89 85 70 fb ff ff 	mov    %rax,-0x490(%rbp)
    9ba8:	48 c7 85 78 fb ff ff 	movq   $0x0,-0x488(%rbp)
    9baf:	00 00 00 00 
    9bb3:	48 8d 85 d0 f5 ff ff 	lea    -0xa30(%rbp),%rax
    9bba:	48 89 85 80 fb ff ff 	mov    %rax,-0x480(%rbp)
    9bc1:	48 8d 85 d0 f5 ff ff 	lea    -0xa30(%rbp),%rax
    9bc8:	48 89 85 88 fb ff ff 	mov    %rax,-0x478(%rbp)
    9bcf:	48 8d 85 d0 f5 ff ff 	lea    -0xa30(%rbp),%rax
    9bd6:	48 89 85 90 fb ff ff 	mov    %rax,-0x470(%rbp)
    9bdd:	48 c7 85 98 fb ff ff 	movq   $0x0,-0x468(%rbp)
    9be4:	00 00 00 00 
    9be8:	48 8d 85 d0 f5 ff ff 	lea    -0xa30(%rbp),%rax
    9bef:	48 89 85 a0 fb ff ff 	mov    %rax,-0x460(%rbp)
    9bf6:	48 8d 85 d0 f5 ff ff 	lea    -0xa30(%rbp),%rax
    9bfd:	48 89 85 a8 fb ff ff 	mov    %rax,-0x458(%rbp)
    9c04:	48 8d 85 d0 f5 ff ff 	lea    -0xa30(%rbp),%rax
    9c0b:	48 89 85 b0 fb ff ff 	mov    %rax,-0x450(%rbp)
    9c12:	48 8d 85 d0 f5 ff ff 	lea    -0xa30(%rbp),%rax
    9c19:	48 89 85 b8 fb ff ff 	mov    %rax,-0x448(%rbp)
    9c20:	48 8d 85 d0 f5 ff ff 	lea    -0xa30(%rbp),%rax
    9c27:	48 89 85 c0 fb ff ff 	mov    %rax,-0x440(%rbp)
    9c2e:	48 8d 85 d0 f5 ff ff 	lea    -0xa30(%rbp),%rax
    9c35:	48 89 85 c8 fb ff ff 	mov    %rax,-0x438(%rbp)
    9c3c:	48 8d 85 d0 f5 ff ff 	lea    -0xa30(%rbp),%rax
    9c43:	48 89 85 d0 fb ff ff 	mov    %rax,-0x430(%rbp)
    9c4a:	48 8d 85 d0 f5 ff ff 	lea    -0xa30(%rbp),%rax
    9c51:	48 89 85 d8 fb ff ff 	mov    %rax,-0x428(%rbp)
    9c58:	48 8d 85 d0 f5 ff ff 	lea    -0xa30(%rbp),%rax
    9c5f:	48 89 85 e0 fb ff ff 	mov    %rax,-0x420(%rbp)
    9c66:	48 8d 85 d0 f5 ff ff 	lea    -0xa30(%rbp),%rax
    9c6d:	48 89 85 e8 fb ff ff 	mov    %rax,-0x418(%rbp)
    9c74:	48 8d 85 d0 f5 ff ff 	lea    -0xa30(%rbp),%rax
    9c7b:	48 89 85 f0 fb ff ff 	mov    %rax,-0x410(%rbp)
    9c82:	48 8d 85 d0 f5 ff ff 	lea    -0xa30(%rbp),%rax
    9c89:	48 89 85 f8 fb ff ff 	mov    %rax,-0x408(%rbp)
    9c90:	48 8d 85 d0 f5 ff ff 	lea    -0xa30(%rbp),%rax
    9c97:	48 89 85 00 fc ff ff 	mov    %rax,-0x400(%rbp)
    9c9e:	48 8d 85 d0 f5 ff ff 	lea    -0xa30(%rbp),%rax
    9ca5:	48 89 85 08 fc ff ff 	mov    %rax,-0x3f8(%rbp)
    9cac:	48 8d 85 d0 f5 ff ff 	lea    -0xa30(%rbp),%rax
    9cb3:	48 89 85 10 fc ff ff 	mov    %rax,-0x3f0(%rbp)
    9cba:	48 8d 85 d0 f5 ff ff 	lea    -0xa30(%rbp),%rax
    9cc1:	48 89 85 18 fc ff ff 	mov    %rax,-0x3e8(%rbp)
    9cc8:	48 8d 85 d0 f5 ff ff 	lea    -0xa30(%rbp),%rax
    9ccf:	48 89 85 20 fc ff ff 	mov    %rax,-0x3e0(%rbp)
    9cd6:	48 8d 85 d0 f5 ff ff 	lea    -0xa30(%rbp),%rax
    9cdd:	48 89 85 28 fc ff ff 	mov    %rax,-0x3d8(%rbp)
    9ce4:	48 8d 85 d0 f5 ff ff 	lea    -0xa30(%rbp),%rax
    9ceb:	48 89 85 30 fc ff ff 	mov    %rax,-0x3d0(%rbp)
    9cf2:	48 c7 85 38 fc ff ff 	movq   $0x0,-0x3c8(%rbp)
    9cf9:	00 00 00 00 
    9cfd:	48 8d 85 d0 f5 ff ff 	lea    -0xa30(%rbp),%rax
    9d04:	48 89 85 40 fc ff ff 	mov    %rax,-0x3c0(%rbp)
    9d0b:	48 8d 85 d0 f5 ff ff 	lea    -0xa30(%rbp),%rax
    9d12:	48 89 85 48 fc ff ff 	mov    %rax,-0x3b8(%rbp)
    9d19:	48 8d 85 d0 f5 ff ff 	lea    -0xa30(%rbp),%rax
    9d20:	48 89 85 50 fc ff ff 	mov    %rax,-0x3b0(%rbp)
    9d27:	48 8d 85 d0 f5 ff ff 	lea    -0xa30(%rbp),%rax
    9d2e:	48 89 85 58 fc ff ff 	mov    %rax,-0x3a8(%rbp)
    9d35:	48 8d 85 d0 f5 ff ff 	lea    -0xa30(%rbp),%rax
    9d3c:	48 89 85 60 fc ff ff 	mov    %rax,-0x3a0(%rbp)
    9d43:	48 8d 85 d0 f5 ff ff 	lea    -0xa30(%rbp),%rax
    9d4a:	48 89 85 68 fc ff ff 	mov    %rax,-0x398(%rbp)
    9d51:	48 8d 85 d0 f5 ff ff 	lea    -0xa30(%rbp),%rax
    9d58:	48 89 85 70 fc ff ff 	mov    %rax,-0x390(%rbp)
    9d5f:	48 8d 85 d0 f5 ff ff 	lea    -0xa30(%rbp),%rax
    9d66:	48 89 85 78 fc ff ff 	mov    %rax,-0x388(%rbp)
    9d6d:	48 8d 85 d0 f5 ff ff 	lea    -0xa30(%rbp),%rax
    9d74:	48 89 85 80 fc ff ff 	mov    %rax,-0x380(%rbp)
    9d7b:	48 8d 85 d0 f5 ff ff 	lea    -0xa30(%rbp),%rax
    9d82:	48 89 85 88 fc ff ff 	mov    %rax,-0x378(%rbp)
    9d89:	48 8d 85 d0 f5 ff ff 	lea    -0xa30(%rbp),%rax
    9d90:	48 89 85 90 fc ff ff 	mov    %rax,-0x370(%rbp)
    9d97:	48 8d 85 d0 f5 ff ff 	lea    -0xa30(%rbp),%rax
    9d9e:	48 89 85 98 fc ff ff 	mov    %rax,-0x368(%rbp)
    9da5:	48 8d 85 d0 f5 ff ff 	lea    -0xa30(%rbp),%rax
    9dac:	48 89 85 a0 fc ff ff 	mov    %rax,-0x360(%rbp)
    9db3:	48 8d 85 d0 f5 ff ff 	lea    -0xa30(%rbp),%rax
    9dba:	48 89 85 a8 fc ff ff 	mov    %rax,-0x358(%rbp)
    9dc1:	48 8d 85 d0 f5 ff ff 	lea    -0xa30(%rbp),%rax
    9dc8:	48 89 85 b0 fc ff ff 	mov    %rax,-0x350(%rbp)
    9dcf:	48 c7 85 b8 fc ff ff 	movq   $0x0,-0x348(%rbp)
    9dd6:	00 00 00 00 
    9dda:	48 8d 85 d0 f5 ff ff 	lea    -0xa30(%rbp),%rax
    9de1:	48 89 85 c0 fc ff ff 	mov    %rax,-0x340(%rbp)
    9de8:	48 8d 85 d0 f5 ff ff 	lea    -0xa30(%rbp),%rax
    9def:	48 89 85 c8 fc ff ff 	mov    %rax,-0x338(%rbp)
    9df6:	48 8d 85 d0 f5 ff ff 	lea    -0xa30(%rbp),%rax
    9dfd:	48 89 85 d0 fc ff ff 	mov    %rax,-0x330(%rbp)
    9e04:	48 8d 85 d0 f5 ff ff 	lea    -0xa30(%rbp),%rax
    9e0b:	48 89 85 d8 fc ff ff 	mov    %rax,-0x328(%rbp)
    9e12:	48 8d 85 d0 f5 ff ff 	lea    -0xa30(%rbp),%rax
    9e19:	48 89 85 e0 fc ff ff 	mov    %rax,-0x320(%rbp)
    9e20:	48 8d 85 d0 f5 ff ff 	lea    -0xa30(%rbp),%rax
    9e27:	48 89 85 e8 fc ff ff 	mov    %rax,-0x318(%rbp)
    9e2e:	48 8d 85 d0 f5 ff ff 	lea    -0xa30(%rbp),%rax
    9e35:	48 89 85 f0 fc ff ff 	mov    %rax,-0x310(%rbp)
    9e3c:	48 8d 85 d0 f5 ff ff 	lea    -0xa30(%rbp),%rax
    9e43:	48 89 85 f8 fc ff ff 	mov    %rax,-0x308(%rbp)
    9e4a:	48 8d 85 d0 f5 ff ff 	lea    -0xa30(%rbp),%rax
    9e51:	48 89 85 00 fd ff ff 	mov    %rax,-0x300(%rbp)
    9e58:	48 8d 85 d0 f5 ff ff 	lea    -0xa30(%rbp),%rax
    9e5f:	48 89 85 08 fd ff ff 	mov    %rax,-0x2f8(%rbp)
    9e66:	48 8d 85 d0 f5 ff ff 	lea    -0xa30(%rbp),%rax
    9e6d:	48 89 85 10 fd ff ff 	mov    %rax,-0x2f0(%rbp)
    9e74:	48 8d 85 d0 f5 ff ff 	lea    -0xa30(%rbp),%rax
    9e7b:	48 89 85 18 fd ff ff 	mov    %rax,-0x2e8(%rbp)
    9e82:	48 8d 05 7f 13 01 00 	lea    0x1137f(%rip),%rax        # 1b208 <g_497>
    9e89:	48 89 85 80 f7 ff ff 	mov    %rax,-0x880(%rbp)
    9e90:	48 8d 05 71 13 01 00 	lea    0x11371(%rip),%rax        # 1b208 <g_497>
    9e97:	48 89 85 88 f7 ff ff 	mov    %rax,-0x878(%rbp)
    9e9e:	48 8d 05 63 13 01 00 	lea    0x11363(%rip),%rax        # 1b208 <g_497>
    9ea5:	48 89 85 90 f7 ff ff 	mov    %rax,-0x870(%rbp)
    9eac:	48 8d 05 55 13 01 00 	lea    0x11355(%rip),%rax        # 1b208 <g_497>
    9eb3:	48 89 85 98 f7 ff ff 	mov    %rax,-0x868(%rbp)
    9eba:	48 8d 05 47 13 01 00 	lea    0x11347(%rip),%rax        # 1b208 <g_497>
    9ec1:	48 89 85 a0 f7 ff ff 	mov    %rax,-0x860(%rbp)
    9ec8:	48 8d 05 39 13 01 00 	lea    0x11339(%rip),%rax        # 1b208 <g_497>
    9ecf:	48 89 85 a8 f7 ff ff 	mov    %rax,-0x858(%rbp)
    9ed6:	48 c7 85 a0 f6 ff ff 	movq   $0x0,-0x960(%rbp)
    9edd:	00 00 00 00 
    9ee1:	48 8d 85 ec f4 ff ff 	lea    -0xb14(%rbp),%rax
    9ee8:	48 89 85 a8 f6 ff ff 	mov    %rax,-0x958(%rbp)
    9eef:	c7 85 14 f5 ff ff 00 	movl   $0x0,-0xaec(%rbp)
    9ef6:	00 00 00 
    9ef9:	eb 42                	jmp    9f3d <func_13+0x13ee>
    9efb:	c7 85 18 f5 ff ff 00 	movl   $0x0,-0xae8(%rbp)
    9f02:	00 00 00 
    9f05:	eb 26                	jmp    9f2d <func_13+0x13de>
    9f07:	8b 85 18 f5 ff ff    	mov    -0xae8(%rbp),%eax
    9f0d:	48 63 d0             	movslq %eax,%rdx
    9f10:	8b 85 14 f5 ff ff    	mov    -0xaec(%rbp),%eax
    9f16:	48 98                	cltq   
    9f18:	48 01 d0             	add    %rdx,%rax
    9f1b:	c7 84 85 50 f7 ff ff 	movl   $0xb5698f43,-0x8b0(%rbp,%rax,4)
    9f22:	43 8f 69 b5 
    9f26:	83 85 18 f5 ff ff 01 	addl   $0x1,-0xae8(%rbp)
    9f2d:	83 bd 18 f5 ff ff 00 	cmpl   $0x0,-0xae8(%rbp)
    9f34:	7e d1                	jle    9f07 <func_13+0x13b8>
    9f36:	83 85 14 f5 ff ff 01 	addl   $0x1,-0xaec(%rbp)
    9f3d:	83 bd 14 f5 ff ff 09 	cmpl   $0x9,-0xaec(%rbp)
    9f44:	7e b5                	jle    9efb <func_13+0x13ac>
    9f46:	48 8b 85 b0 f5 ff ff 	mov    -0xa50(%rbp),%rax
    9f4d:	48 8b 00             	mov    (%rax),%rax
    9f50:	48 8b 00             	mov    (%rax),%rax
    9f53:	8b 00                	mov    (%rax),%eax
    9f55:	85 c0                	test   %eax,%eax
    9f57:	0f 85 05 01 00 00    	jne    a062 <func_13+0x1513>
    9f5d:	48 8b 05 bc 12 01 00 	mov    0x112bc(%rip),%rax        # 1b220 <g_784>
    9f64:	48 8b 00             	mov    (%rax),%rax
    9f67:	0f b7 00             	movzwl (%rax),%eax
    9f6a:	0f bf d8             	movswl %ax,%ebx
    9f6d:	8b 85 68 f5 ff ff    	mov    -0xa98(%rbp),%eax
    9f73:	44 0f be e0          	movsbl %al,%r12d
    9f77:	48 83 bd c0 f4 ff ff 	cmpq   $0x0,-0xb40(%rbp)
    9f7e:	00 
    9f7f:	0f 84 98 00 00 00    	je     a01d <func_13+0x14ce>
    9f85:	83 bd 68 f5 ff ff 23 	cmpl   $0x23,-0xa98(%rbp)
    9f8c:	0f 96 c0             	setbe  %al
    9f8f:	0f b6 c0             	movzbl %al,%eax
    9f92:	be 0f 00 00 00       	mov    $0xf,%esi
    9f97:	89 c7                	mov    %eax,%edi
    9f99:	e8 20 de ff ff       	callq  7dbe <safe_lshift_func_uint16_t_u_s>
    9f9e:	44 0f b7 e8          	movzwl %ax,%r13d
    9fa2:	48 8b 85 c0 f4 ff ff 	mov    -0xb40(%rbp),%rax
    9fa9:	f7 d0                	not    %eax
    9fab:	89 c1                	mov    %eax,%ecx
    9fad:	48 8b 85 f8 f5 ff ff 	mov    -0xa08(%rbp),%rax
    9fb4:	0f b6 00             	movzbl (%rax),%eax
    9fb7:	88 85 ee f4 ff ff    	mov    %al,-0xb12(%rbp)
    9fbd:	48 8b 05 54 12 01 00 	mov    0x11254(%rip),%rax        # 1b218 <g_785>
    9fc4:	0f b7 00             	movzwl (%rax),%eax
    9fc7:	98                   	cwtl   
    9fc8:	48 8b 95 d0 f4 ff ff 	mov    -0xb30(%rbp),%rdx
    9fcf:	21 d0                	and    %edx,%eax
    9fd1:	89 85 2c f7 ff ff    	mov    %eax,-0x8d4(%rbp)
    9fd7:	8b 85 2c f7 ff ff    	mov    -0x8d4(%rbp),%eax
    9fdd:	09 c8                	or     %ecx,%eax
    9fdf:	98                   	cwtl   
    9fe0:	be 06 00 00 00       	mov    $0x6,%esi
    9fe5:	89 c7                	mov    %eax,%edi
    9fe7:	e8 3e d5 ff ff       	callq  752a <safe_rshift_func_int16_t_s_s>
    9fec:	0f bf d0             	movswl %ax,%edx
    9fef:	48 8b 85 78 f6 ff ff 	mov    -0x988(%rbp),%rax
    9ff6:	48 8b 00             	mov    (%rax),%rax
    9ff9:	8b 00                	mov    (%rax),%eax
    9ffb:	31 d0                	xor    %edx,%eax
    9ffd:	41 39 c5             	cmp    %eax,%r13d
    a000:	0f 95 c0             	setne  %al
    a003:	0f b6 c0             	movzbl %al,%eax
    a006:	be 07 00 00 00       	mov    $0x7,%esi
    a00b:	89 c7                	mov    %eax,%edi
    a00d:	e8 5a d3 ff ff       	callq  736c <safe_rshift_func_int8_t_s_u>
    a012:	84 c0                	test   %al,%al
    a014:	74 07                	je     a01d <func_13+0x14ce>
    a016:	b8 01 00 00 00       	mov    $0x1,%eax
    a01b:	eb 05                	jmp    a022 <func_13+0x14d3>
    a01d:	b8 00 00 00 00       	mov    $0x0,%eax
    a022:	0f be c0             	movsbl %al,%eax
    a025:	44 89 e6             	mov    %r12d,%esi
    a028:	89 c7                	mov    %eax,%edi
    a02a:	e8 a5 d1 ff ff       	callq  71d4 <safe_add_func_int8_t_s_s>
    a02f:	89 de                	mov    %ebx,%esi
    a031:	bf 01 00 00 00       	mov    $0x1,%edi
    a036:	e8 db d3 ff ff       	callq  7416 <safe_mod_func_int16_t_s_s>
    a03b:	0f bf d0             	movswl %ax,%edx
    a03e:	0f b6 85 dc f4 ff ff 	movzbl -0xb24(%rbp),%eax
    a045:	39 c2                	cmp    %eax,%edx
    a047:	0f 95 c2             	setne  %dl
    a04a:	48 8b 05 cf 11 01 00 	mov    0x111cf(%rip),%rax        # 1b220 <g_784>
    a051:	48 8b 00             	mov    (%rax),%rax
    a054:	0f b6 d2             	movzbl %dl,%edx
    a057:	66 89 10             	mov    %dx,(%rax)
    a05a:	0f b7 00             	movzwl (%rax),%eax
    a05d:	66 85 c0             	test   %ax,%ax
    a060:	74 0f                	je     a071 <func_13+0x1522>
    a062:	48 8b 05 df 17 01 00 	mov    0x117df(%rip),%rax        # 1b848 <g_2492>
    a069:	48 8b 00             	mov    (%rax),%rax
    a06c:	e9 7c 0f 00 00       	jmpq   afed <func_13+0x249e>
    a071:	c7 85 80 f8 ff ff 69 	movl   $0x70963b69,-0x780(%rbp)
    a078:	3b 96 70 
    a07b:	c7 85 84 f8 ff ff 01 	movl   $0x1,-0x77c(%rbp)
    a082:	00 00 00 
    a085:	c7 85 88 f8 ff ff 69 	movl   $0x70963b69,-0x778(%rbp)
    a08c:	3b 96 70 
    a08f:	c7 85 8c f8 ff ff 02 	movl   $0x2,-0x774(%rbp)
    a096:	00 00 00 
    a099:	c7 85 90 f8 ff ff 02 	movl   $0x2,-0x770(%rbp)
    a0a0:	00 00 00 
    a0a3:	c7 85 94 f8 ff ff 02 	movl   $0x2,-0x76c(%rbp)
    a0aa:	00 00 00 
    a0ad:	c7 85 98 f8 ff ff 69 	movl   $0x70963b69,-0x768(%rbp)
    a0b4:	3b 96 70 
    a0b7:	c7 85 9c f8 ff ff 01 	movl   $0x1,-0x764(%rbp)
    a0be:	00 00 00 
    a0c1:	c7 85 a0 f8 ff ff 69 	movl   $0x70963b69,-0x760(%rbp)
    a0c8:	3b 96 70 
    a0cb:	c7 85 a4 f8 ff ff 02 	movl   $0x2,-0x75c(%rbp)
    a0d2:	00 00 00 
    a0d5:	c7 85 a8 f8 ff ff 02 	movl   $0x2,-0x758(%rbp)
    a0dc:	00 00 00 
    a0df:	c7 85 ac f8 ff ff 02 	movl   $0x2,-0x754(%rbp)
    a0e6:	00 00 00 
    a0e9:	c7 85 b0 f8 ff ff 69 	movl   $0x70963b69,-0x750(%rbp)
    a0f0:	3b 96 70 
    a0f3:	c7 85 b4 f8 ff ff 01 	movl   $0x1,-0x74c(%rbp)
    a0fa:	00 00 00 
    a0fd:	c7 85 b8 f8 ff ff 69 	movl   $0x70963b69,-0x748(%rbp)
    a104:	3b 96 70 
    a107:	c7 85 bc f8 ff ff 02 	movl   $0x2,-0x744(%rbp)
    a10e:	00 00 00 
    a111:	c7 85 c0 f8 ff ff 02 	movl   $0x2,-0x740(%rbp)
    a118:	00 00 00 
    a11b:	c7 85 c4 f8 ff ff 02 	movl   $0x2,-0x73c(%rbp)
    a122:	00 00 00 
    a125:	c7 85 c8 f8 ff ff 69 	movl   $0x70963b69,-0x738(%rbp)
    a12c:	3b 96 70 
    a12f:	c7 85 cc f8 ff ff 01 	movl   $0x1,-0x734(%rbp)
    a136:	00 00 00 
    a139:	c7 85 d0 f8 ff ff 69 	movl   $0x70963b69,-0x730(%rbp)
    a140:	3b 96 70 
    a143:	c7 85 d4 f8 ff ff 02 	movl   $0x2,-0x72c(%rbp)
    a14a:	00 00 00 
    a14d:	c7 85 d8 f8 ff ff 02 	movl   $0x2,-0x728(%rbp)
    a154:	00 00 00 
    a157:	c7 85 dc f8 ff ff 02 	movl   $0x2,-0x724(%rbp)
    a15e:	00 00 00 
    a161:	c7 85 e0 f8 ff ff 69 	movl   $0x70963b69,-0x720(%rbp)
    a168:	3b 96 70 
    a16b:	c7 85 e4 f8 ff ff 01 	movl   $0x1,-0x71c(%rbp)
    a172:	00 00 00 
    a175:	c7 85 e8 f8 ff ff 69 	movl   $0x70963b69,-0x718(%rbp)
    a17c:	3b 96 70 
    a17f:	c7 85 ec f8 ff ff 02 	movl   $0x2,-0x714(%rbp)
    a186:	00 00 00 
    a189:	c7 85 f0 f8 ff ff 02 	movl   $0x2,-0x710(%rbp)
    a190:	00 00 00 
    a193:	c7 85 f4 f8 ff ff 02 	movl   $0x2,-0x70c(%rbp)
    a19a:	00 00 00 
    a19d:	48 8d 05 3c 23 01 00 	lea    0x1233c(%rip),%rax        # 1c4e0 <g_1003>
    a1a4:	48 89 85 18 f6 ff ff 	mov    %rax,-0x9e8(%rbp)
    a1ab:	48 8d 85 18 f6 ff ff 	lea    -0x9e8(%rbp),%rax
    a1b2:	48 89 85 20 fd ff ff 	mov    %rax,-0x2e0(%rbp)
    a1b9:	48 8d 85 18 f6 ff ff 	lea    -0x9e8(%rbp),%rax
    a1c0:	48 89 85 28 fd ff ff 	mov    %rax,-0x2d8(%rbp)
    a1c7:	48 c7 85 30 fd ff ff 	movq   $0x0,-0x2d0(%rbp)
    a1ce:	00 00 00 00 
    a1d2:	48 c7 85 38 fd ff ff 	movq   $0x0,-0x2c8(%rbp)
    a1d9:	00 00 00 00 
    a1dd:	48 8d 85 18 f6 ff ff 	lea    -0x9e8(%rbp),%rax
    a1e4:	48 89 85 40 fd ff ff 	mov    %rax,-0x2c0(%rbp)
    a1eb:	48 8d 85 18 f6 ff ff 	lea    -0x9e8(%rbp),%rax
    a1f2:	48 89 85 48 fd ff ff 	mov    %rax,-0x2b8(%rbp)
    a1f9:	48 c7 85 50 fd ff ff 	movq   $0x0,-0x2b0(%rbp)
    a200:	00 00 00 00 
    a204:	48 8d 85 18 f6 ff ff 	lea    -0x9e8(%rbp),%rax
    a20b:	48 89 85 58 fd ff ff 	mov    %rax,-0x2a8(%rbp)
    a212:	48 8d 85 18 f6 ff ff 	lea    -0x9e8(%rbp),%rax
    a219:	48 89 85 60 fd ff ff 	mov    %rax,-0x2a0(%rbp)
    a220:	48 c7 85 68 fd ff ff 	movq   $0x0,-0x298(%rbp)
    a227:	00 00 00 00 
    a22b:	48 c7 85 70 fd ff ff 	movq   $0x0,-0x290(%rbp)
    a232:	00 00 00 00 
    a236:	48 c7 85 78 fd ff ff 	movq   $0x0,-0x288(%rbp)
    a23d:	00 00 00 00 
    a241:	48 8d 85 18 f6 ff ff 	lea    -0x9e8(%rbp),%rax
    a248:	48 89 85 80 fd ff ff 	mov    %rax,-0x280(%rbp)
    a24f:	48 8d 85 18 f6 ff ff 	lea    -0x9e8(%rbp),%rax
    a256:	48 89 85 88 fd ff ff 	mov    %rax,-0x278(%rbp)
    a25d:	48 8d 85 18 f6 ff ff 	lea    -0x9e8(%rbp),%rax
    a264:	48 89 85 90 fd ff ff 	mov    %rax,-0x270(%rbp)
    a26b:	48 8d 85 18 f6 ff ff 	lea    -0x9e8(%rbp),%rax
    a272:	48 89 85 98 fd ff ff 	mov    %rax,-0x268(%rbp)
    a279:	48 c7 85 a0 fd ff ff 	movq   $0x0,-0x260(%rbp)
    a280:	00 00 00 00 
    a284:	48 c7 85 a8 fd ff ff 	movq   $0x0,-0x258(%rbp)
    a28b:	00 00 00 00 
    a28f:	48 8d 85 18 f6 ff ff 	lea    -0x9e8(%rbp),%rax
    a296:	48 89 85 b0 fd ff ff 	mov    %rax,-0x250(%rbp)
    a29d:	48 8d 85 18 f6 ff ff 	lea    -0x9e8(%rbp),%rax
    a2a4:	48 89 85 b8 fd ff ff 	mov    %rax,-0x248(%rbp)
    a2ab:	48 8d 85 18 f6 ff ff 	lea    -0x9e8(%rbp),%rax
    a2b2:	48 89 85 c0 fd ff ff 	mov    %rax,-0x240(%rbp)
    a2b9:	48 c7 85 c8 fd ff ff 	movq   $0x0,-0x238(%rbp)
    a2c0:	00 00 00 00 
    a2c4:	48 c7 85 d0 fd ff ff 	movq   $0x0,-0x230(%rbp)
    a2cb:	00 00 00 00 
    a2cf:	48 8d 85 18 f6 ff ff 	lea    -0x9e8(%rbp),%rax
    a2d6:	48 89 85 d8 fd ff ff 	mov    %rax,-0x228(%rbp)
    a2dd:	48 8d 85 18 f6 ff ff 	lea    -0x9e8(%rbp),%rax
    a2e4:	48 89 85 e0 fd ff ff 	mov    %rax,-0x220(%rbp)
    a2eb:	48 c7 85 e8 fd ff ff 	movq   $0x0,-0x218(%rbp)
    a2f2:	00 00 00 00 
    a2f6:	48 8d 85 18 f6 ff ff 	lea    -0x9e8(%rbp),%rax
    a2fd:	48 89 85 f0 fd ff ff 	mov    %rax,-0x210(%rbp)
    a304:	48 c7 85 f8 fd ff ff 	movq   $0x0,-0x208(%rbp)
    a30b:	00 00 00 00 
    a30f:	48 8d 85 18 f6 ff ff 	lea    -0x9e8(%rbp),%rax
    a316:	48 89 85 00 fe ff ff 	mov    %rax,-0x200(%rbp)
    a31d:	48 8d 85 18 f6 ff ff 	lea    -0x9e8(%rbp),%rax
    a324:	48 89 85 08 fe ff ff 	mov    %rax,-0x1f8(%rbp)
    a32b:	48 8d 85 18 f6 ff ff 	lea    -0x9e8(%rbp),%rax
    a332:	48 89 85 10 fe ff ff 	mov    %rax,-0x1f0(%rbp)
    a339:	48 8d 85 18 f6 ff ff 	lea    -0x9e8(%rbp),%rax
    a340:	48 89 85 18 fe ff ff 	mov    %rax,-0x1e8(%rbp)
    a347:	48 8d 85 18 f6 ff ff 	lea    -0x9e8(%rbp),%rax
    a34e:	48 89 85 20 fe ff ff 	mov    %rax,-0x1e0(%rbp)
    a355:	48 8d 85 18 f6 ff ff 	lea    -0x9e8(%rbp),%rax
    a35c:	48 89 85 28 fe ff ff 	mov    %rax,-0x1d8(%rbp)
    a363:	48 8d 85 18 f6 ff ff 	lea    -0x9e8(%rbp),%rax
    a36a:	48 89 85 30 fe ff ff 	mov    %rax,-0x1d0(%rbp)
    a371:	48 8d 85 18 f6 ff ff 	lea    -0x9e8(%rbp),%rax
    a378:	48 89 85 38 fe ff ff 	mov    %rax,-0x1c8(%rbp)
    a37f:	48 8d 85 18 f6 ff ff 	lea    -0x9e8(%rbp),%rax
    a386:	48 89 85 40 fe ff ff 	mov    %rax,-0x1c0(%rbp)
    a38d:	48 8d 85 18 f6 ff ff 	lea    -0x9e8(%rbp),%rax
    a394:	48 89 85 48 fe ff ff 	mov    %rax,-0x1b8(%rbp)
    a39b:	48 8d 85 18 f6 ff ff 	lea    -0x9e8(%rbp),%rax
    a3a2:	48 89 85 50 fe ff ff 	mov    %rax,-0x1b0(%rbp)
    a3a9:	48 c7 85 58 fe ff ff 	movq   $0x0,-0x1a8(%rbp)
    a3b0:	00 00 00 00 
    a3b4:	48 8d 85 18 f6 ff ff 	lea    -0x9e8(%rbp),%rax
    a3bb:	48 89 85 60 fe ff ff 	mov    %rax,-0x1a0(%rbp)
    a3c2:	48 c7 85 68 fe ff ff 	movq   $0x0,-0x198(%rbp)
    a3c9:	00 00 00 00 
    a3cd:	48 8d 85 18 f6 ff ff 	lea    -0x9e8(%rbp),%rax
    a3d4:	48 89 85 70 fe ff ff 	mov    %rax,-0x190(%rbp)
    a3db:	48 8d 85 18 f6 ff ff 	lea    -0x9e8(%rbp),%rax
    a3e2:	48 89 85 78 fe ff ff 	mov    %rax,-0x188(%rbp)
    a3e9:	48 8d 85 18 f6 ff ff 	lea    -0x9e8(%rbp),%rax
    a3f0:	48 89 85 80 fe ff ff 	mov    %rax,-0x180(%rbp)
    a3f7:	48 c7 85 88 fe ff ff 	movq   $0x0,-0x178(%rbp)
    a3fe:	00 00 00 00 
    a402:	48 8d 85 18 f6 ff ff 	lea    -0x9e8(%rbp),%rax
    a409:	48 89 85 90 fe ff ff 	mov    %rax,-0x170(%rbp)
    a410:	48 8d 85 18 f6 ff ff 	lea    -0x9e8(%rbp),%rax
    a417:	48 89 85 98 fe ff ff 	mov    %rax,-0x168(%rbp)
    a41e:	48 c7 85 a0 fe ff ff 	movq   $0x0,-0x160(%rbp)
    a425:	00 00 00 00 
    a429:	48 c7 85 a8 fe ff ff 	movq   $0x0,-0x158(%rbp)
    a430:	00 00 00 00 
    a434:	48 c7 85 b0 fe ff ff 	movq   $0x0,-0x150(%rbp)
    a43b:	00 00 00 00 
    a43f:	48 8d 85 18 f6 ff ff 	lea    -0x9e8(%rbp),%rax
    a446:	48 89 85 b8 fe ff ff 	mov    %rax,-0x148(%rbp)
    a44d:	48 8d 85 18 f6 ff ff 	lea    -0x9e8(%rbp),%rax
    a454:	48 89 85 c0 fe ff ff 	mov    %rax,-0x140(%rbp)
    a45b:	48 8d 85 18 f6 ff ff 	lea    -0x9e8(%rbp),%rax
    a462:	48 89 85 c8 fe ff ff 	mov    %rax,-0x138(%rbp)
    a469:	48 8d 85 18 f6 ff ff 	lea    -0x9e8(%rbp),%rax
    a470:	48 89 85 d0 fe ff ff 	mov    %rax,-0x130(%rbp)
    a477:	48 c7 85 d8 fe ff ff 	movq   $0x0,-0x128(%rbp)
    a47e:	00 00 00 00 
    a482:	48 8d 85 18 f6 ff ff 	lea    -0x9e8(%rbp),%rax
    a489:	48 89 85 e0 fe ff ff 	mov    %rax,-0x120(%rbp)
    a490:	48 c7 85 e8 fe ff ff 	movq   $0x0,-0x118(%rbp)
    a497:	00 00 00 00 
    a49b:	48 8d 85 18 f6 ff ff 	lea    -0x9e8(%rbp),%rax
    a4a2:	48 89 85 f0 fe ff ff 	mov    %rax,-0x110(%rbp)
    a4a9:	48 8d 85 18 f6 ff ff 	lea    -0x9e8(%rbp),%rax
    a4b0:	48 89 85 f8 fe ff ff 	mov    %rax,-0x108(%rbp)
    a4b7:	48 8d 85 18 f6 ff ff 	lea    -0x9e8(%rbp),%rax
    a4be:	48 89 85 00 ff ff ff 	mov    %rax,-0x100(%rbp)
    a4c5:	48 8d 85 18 f6 ff ff 	lea    -0x9e8(%rbp),%rax
    a4cc:	48 89 85 08 ff ff ff 	mov    %rax,-0xf8(%rbp)
    a4d3:	48 8d 85 18 f6 ff ff 	lea    -0x9e8(%rbp),%rax
    a4da:	48 89 85 10 ff ff ff 	mov    %rax,-0xf0(%rbp)
    a4e1:	48 c7 85 18 ff ff ff 	movq   $0x0,-0xe8(%rbp)
    a4e8:	00 00 00 00 
    a4ec:	48 8d 85 18 f6 ff ff 	lea    -0x9e8(%rbp),%rax
    a4f3:	48 89 85 20 ff ff ff 	mov    %rax,-0xe0(%rbp)
    a4fa:	48 8d 85 18 f6 ff ff 	lea    -0x9e8(%rbp),%rax
    a501:	48 89 85 28 ff ff ff 	mov    %rax,-0xd8(%rbp)
    a508:	48 8d 85 18 f6 ff ff 	lea    -0x9e8(%rbp),%rax
    a50f:	48 89 85 30 ff ff ff 	mov    %rax,-0xd0(%rbp)
    a516:	48 8d 85 18 f6 ff ff 	lea    -0x9e8(%rbp),%rax
    a51d:	48 89 85 38 ff ff ff 	mov    %rax,-0xc8(%rbp)
    a524:	48 8d 85 18 f6 ff ff 	lea    -0x9e8(%rbp),%rax
    a52b:	48 89 85 40 ff ff ff 	mov    %rax,-0xc0(%rbp)
    a532:	48 c7 85 48 ff ff ff 	movq   $0x0,-0xb8(%rbp)
    a539:	00 00 00 00 
    a53d:	48 8d 85 18 f6 ff ff 	lea    -0x9e8(%rbp),%rax
    a544:	48 89 85 50 ff ff ff 	mov    %rax,-0xb0(%rbp)
    a54b:	48 8d 85 18 f6 ff ff 	lea    -0x9e8(%rbp),%rax
    a552:	48 89 85 58 ff ff ff 	mov    %rax,-0xa8(%rbp)
    a559:	48 8d 85 18 f6 ff ff 	lea    -0x9e8(%rbp),%rax
    a560:	48 89 85 60 ff ff ff 	mov    %rax,-0xa0(%rbp)
    a567:	48 8d 85 18 f6 ff ff 	lea    -0x9e8(%rbp),%rax
    a56e:	48 89 85 68 ff ff ff 	mov    %rax,-0x98(%rbp)
    a575:	48 8d 85 18 f6 ff ff 	lea    -0x9e8(%rbp),%rax
    a57c:	48 89 85 70 ff ff ff 	mov    %rax,-0x90(%rbp)
    a583:	48 8d 85 18 f6 ff ff 	lea    -0x9e8(%rbp),%rax
    a58a:	48 89 85 78 ff ff ff 	mov    %rax,-0x88(%rbp)
    a591:	48 8d 85 18 f6 ff ff 	lea    -0x9e8(%rbp),%rax
    a598:	48 89 45 80          	mov    %rax,-0x80(%rbp)
    a59c:	48 8d 85 18 f6 ff ff 	lea    -0x9e8(%rbp),%rax
    a5a3:	48 89 45 88          	mov    %rax,-0x78(%rbp)
    a5a7:	48 8d 85 18 f6 ff ff 	lea    -0x9e8(%rbp),%rax
    a5ae:	48 89 45 90          	mov    %rax,-0x70(%rbp)
    a5b2:	48 8d 85 18 f6 ff ff 	lea    -0x9e8(%rbp),%rax
    a5b9:	48 89 45 98          	mov    %rax,-0x68(%rbp)
    a5bd:	48 8d 85 18 f6 ff ff 	lea    -0x9e8(%rbp),%rax
    a5c4:	48 89 45 a0          	mov    %rax,-0x60(%rbp)
    a5c8:	48 8d 85 18 f6 ff ff 	lea    -0x9e8(%rbp),%rax
    a5cf:	48 89 45 a8          	mov    %rax,-0x58(%rbp)
    a5d3:	48 c7 45 b0 00 00 00 	movq   $0x0,-0x50(%rbp)
    a5da:	00 
    a5db:	48 c7 45 b8 00 00 00 	movq   $0x0,-0x48(%rbp)
    a5e2:	00 
    a5e3:	48 8d 05 06 09 01 00 	lea    0x10906(%rip),%rax        # 1aef0 <g_368+0x10>
    a5ea:	48 89 85 b0 f6 ff ff 	mov    %rax,-0x950(%rbp)
    a5f1:	c7 85 10 f5 ff ff 00 	movl   $0x0,-0xaf0(%rbp)
    a5f8:	00 00 00 
    a5fb:	eb 1e                	jmp    a61b <func_13+0x1acc>
    a5fd:	8b 85 10 f5 ff ff    	mov    -0xaf0(%rbp),%eax
    a603:	48 98                	cltq   
    a605:	48 8d 15 4c ea 00 00 	lea    0xea4c(%rip),%rdx        # 19058 <g_65>
    a60c:	48 89 94 c5 30 f7 ff 	mov    %rdx,-0x8d0(%rbp,%rax,8)
    a613:	ff 
    a614:	83 85 10 f5 ff ff 01 	addl   $0x1,-0xaf0(%rbp)
    a61b:	83 bd 10 f5 ff ff 02 	cmpl   $0x2,-0xaf0(%rbp)
    a622:	7e d9                	jle    a5fd <func_13+0x1aae>
    a624:	48 83 ad 30 f6 ff ff 	subq   $0x1,-0x9d0(%rbp)
    a62b:	01 
    a62c:	66 c7 85 fa f4 ff ff 	movw   $0xfff5,-0xb06(%rbp)
    a633:	f5 ff 
    a635:	66 83 bd fa f4 ff ff 	cmpw   $0x32,-0xb06(%rbp)
    a63c:	32 
    a63d:	0f 86 2a 02 00 00    	jbe    a86d <func_13+0x1d1e>
    a643:	c6 85 f3 f4 ff ff 00 	movb   $0x0,-0xb0d(%rbp)
    a64a:	0f b6 9d dc f4 ff ff 	movzbl -0xb24(%rbp),%ebx
    a651:	48 83 bd c0 f4 ff ff 	cmpq   $0x0,-0xb40(%rbp)
    a658:	00 
    a659:	74 5c                	je     a6b7 <func_13+0x1b68>
    a65b:	48 8b 85 78 f6 ff ff 	mov    -0x988(%rbp),%rax
    a662:	48 8b 00             	mov    (%rax),%rax
    a665:	8b 00                	mov    (%rax),%eax
    a667:	41 89 c4             	mov    %eax,%r12d
    a66a:	be 08 00 00 00       	mov    $0x8,%esi
    a66f:	bf 01 00 00 00       	mov    $0x1,%edi
    a674:	e8 45 d7 ff ff       	callq  7dbe <safe_lshift_func_uint16_t_u_s>
    a679:	0f b7 c0             	movzwl %ax,%eax
    a67c:	44 89 e6             	mov    %r12d,%esi
    a67f:	89 c7                	mov    %eax,%edi
    a681:	e8 77 d8 ff ff       	callq  7efd <safe_mod_func_uint32_t_u_u>
    a686:	48 8b 95 d0 f4 ff ff 	mov    -0xb30(%rbp),%rdx
    a68d:	48 8b 85 68 f6 ff ff 	mov    -0x998(%rbp),%rax
    a694:	48 89 10             	mov    %rdx,(%rax)
    a697:	48 8b 85 68 f6 ff ff 	mov    -0x998(%rbp),%rax
    a69e:	48 8b 00             	mov    (%rax),%rax
    a6a1:	48 85 c0             	test   %rax,%rax
    a6a4:	74 11                	je     a6b7 <func_13+0x1b68>
    a6a6:	48 83 bd d0 f4 ff ff 	cmpq   $0x0,-0xb30(%rbp)
    a6ad:	00 
    a6ae:	74 07                	je     a6b7 <func_13+0x1b68>
    a6b0:	b8 01 00 00 00       	mov    $0x1,%eax
    a6b5:	eb 05                	jmp    a6bc <func_13+0x1b6d>
    a6b7:	b8 00 00 00 00       	mov    $0x0,%eax
    a6bc:	0f b7 c0             	movzwl %ax,%eax
    a6bf:	be 0f 00 00 00       	mov    $0xf,%esi
    a6c4:	89 c7                	mov    %eax,%edi
    a6c6:	e8 af d7 ff ff       	callq  7e7a <safe_rshift_func_uint16_t_u_u>
    a6cb:	0f b6 95 dc f4 ff ff 	movzbl -0xb24(%rbp),%edx
    a6d2:	66 39 d0             	cmp    %dx,%ax
    a6d5:	0f 95 c0             	setne  %al
    a6d8:	44 0f b6 e0          	movzbl %al,%r12d
    a6dc:	83 bd 2c f5 ff ff 00 	cmpl   $0x0,-0xad4(%rbp)
    a6e3:	74 2a                	je     a70f <func_13+0x1bc0>
    a6e5:	0f b6 95 dc f4 ff ff 	movzbl -0xb24(%rbp),%edx
    a6ec:	48 8b 85 78 f6 ff ff 	mov    -0x988(%rbp),%rax
    a6f3:	48 8b 00             	mov    (%rax),%rax
    a6f6:	8b 00                	mov    (%rax),%eax
    a6f8:	98                   	cwtl   
    a6f9:	89 d6                	mov    %edx,%esi
    a6fb:	89 c7                	mov    %eax,%edi
    a6fd:	e8 df cd ff ff       	callq  74e1 <safe_lshift_func_int16_t_s_u>
    a702:	66 85 c0             	test   %ax,%ax
    a705:	74 08                	je     a70f <func_13+0x1bc0>
    a707:	41 bd 01 00 00 00    	mov    $0x1,%r13d
    a70d:	eb 06                	jmp    a715 <func_13+0x1bc6>
    a70f:	41 bd 00 00 00 00    	mov    $0x0,%r13d
    a715:	be 08 00 00 00       	mov    $0x8,%esi
    a71a:	bf f7 ff ff ff       	mov    $0xfffffff7,%edi
    a71f:	e8 6e cd ff ff       	callq  7492 <safe_lshift_func_int16_t_s_s>
    a724:	98                   	cwtl   
    a725:	41 39 c5             	cmp    %eax,%r13d
    a728:	0f 95 c0             	setne  %al
    a72b:	0f b6 c0             	movzbl %al,%eax
    a72e:	44 89 e6             	mov    %r12d,%esi
    a731:	89 c7                	mov    %eax,%edi
    a733:	e8 34 cc ff ff       	callq  736c <safe_rshift_func_int8_t_s_u>
    a738:	0f be c0             	movsbl %al,%eax
    a73b:	39 85 d8 f4 ff ff    	cmp    %eax,-0xb28(%rbp)
    a741:	0f 9c c0             	setl   %al
    a744:	0f b6 c0             	movzbl %al,%eax
    a747:	48 39 85 d0 f4 ff ff 	cmp    %rax,-0xb30(%rbp)
    a74e:	0f 95 c0             	setne  %al
    a751:	0f b6 c0             	movzbl %al,%eax
    a754:	48 89 de             	mov    %rbx,%rsi
    a757:	48 89 c7             	mov    %rax,%rdi
    a75a:	e8 e2 d0 ff ff       	callq  7841 <safe_add_func_int64_t_s_s>
    a75f:	48 85 c0             	test   %rax,%rax
    a762:	74 19                	je     a77d <func_13+0x1c2e>
    a764:	48 8b 05 a5 0c 01 00 	mov    0x10ca5(%rip),%rax        # 1b410 <g_1769>
    a76b:	48 8b 00             	mov    (%rax),%rax
    a76e:	8b 00                	mov    (%rax),%eax
    a770:	85 c0                	test   %eax,%eax
    a772:	0f 84 e5 00 00 00    	je     a85d <func_13+0x1d0e>
    a778:	e9 f0 00 00 00       	jmpq   a86d <func_13+0x1d1e>
    a77d:	48 c7 85 b0 f7 ff ff 	movq   $0x0,-0x850(%rbp)
    a784:	00 00 00 00 
    a788:	48 8d 05 81 f1 00 00 	lea    0xf181(%rip),%rax        # 19910 <g_2218>
    a78f:	48 89 85 b8 f7 ff ff 	mov    %rax,-0x848(%rbp)
    a796:	48 c7 85 c0 f7 ff ff 	movq   $0x0,-0x840(%rbp)
    a79d:	00 00 00 00 
    a7a1:	48 c7 85 c8 f7 ff ff 	movq   $0x0,-0x838(%rbp)
    a7a8:	00 00 00 00 
    a7ac:	48 8d 05 5d f1 00 00 	lea    0xf15d(%rip),%rax        # 19910 <g_2218>
    a7b3:	48 89 85 d0 f7 ff ff 	mov    %rax,-0x830(%rbp)
    a7ba:	48 c7 85 d8 f7 ff ff 	movq   $0x0,-0x828(%rbp)
    a7c1:	00 00 00 00 
    a7c5:	c7 85 84 f5 ff ff 30 	movl   $0x384c5130,-0xa7c(%rbp)
    a7cc:	51 4c 38 
    a7cf:	48 8b 05 d2 0c 01 00 	mov    0x10cd2(%rip),%rax        # 1b4a8 <g_2004>
    a7d6:	48 8b 00             	mov    (%rax),%rax
    a7d9:	48 8b 95 78 f6 ff ff 	mov    -0x988(%rbp),%rdx
    a7e0:	48 8b 12             	mov    (%rdx),%rdx
    a7e3:	48 89 10             	mov    %rdx,(%rax)
    a7e6:	8b 85 04 f5 ff ff    	mov    -0xafc(%rbp),%eax
    a7ec:	48 63 d0             	movslq %eax,%rdx
    a7ef:	48 8b 85 00 f6 ff ff 	mov    -0xa00(%rbp),%rax
    a7f6:	48 8d 0d 9b 0a 01 00 	lea    0x10a9b(%rip),%rcx        # 1b298 <g_1182>
    a7fd:	48 39 c8             	cmp    %rcx,%rax
    a800:	0f 95 c0             	setne  %al
    a803:	0f b6 c0             	movzbl %al,%eax
    a806:	48 89 05 33 ec 00 00 	mov    %rax,0xec33(%rip)        # 19440 <g_1704>
    a80d:	48 8b 05 2c ec 00 00 	mov    0xec2c(%rip),%rax        # 19440 <g_1704>
    a814:	48 89 d6             	mov    %rdx,%rsi
    a817:	48 89 c7             	mov    %rax,%rdi
    a81a:	e8 0f d8 ff ff       	callq  802e <safe_add_func_uint64_t_u_u>
    a81f:	48 8b 85 20 fd ff ff 	mov    -0x2e0(%rbp),%rax
    a826:	48 85 c0             	test   %rax,%rax
    a829:	8b 85 84 f5 ff ff    	mov    -0xa7c(%rbp),%eax
    a82f:	0f b7 d0             	movzwl %ax,%edx
    a832:	0f b6 85 f3 f4 ff ff 	movzbl -0xb0d(%rbp),%eax
    a839:	89 d6                	mov    %edx,%esi
    a83b:	89 c7                	mov    %eax,%edi
    a83d:	e8 bd d4 ff ff       	callq  7cff <safe_add_func_uint16_t_u_u>
    a842:	89 c2                	mov    %eax,%edx
    a844:	48 8b 05 0d 10 01 00 	mov    0x1100d(%rip),%rax        # 1b858 <g_2557>
    a84b:	8b 08                	mov    (%rax),%ecx
    a84d:	0f b7 d2             	movzwl %dx,%edx
    a850:	31 ca                	xor    %ecx,%edx
    a852:	89 10                	mov    %edx,(%rax)
    a854:	80 bd dc f4 ff ff 00 	cmpb   $0x0,-0xb24(%rbp)
    a85b:	75 0f                	jne    a86c <func_13+0x1d1d>
    a85d:	48 8b 05 e4 0f 01 00 	mov    0x10fe4(%rip),%rax        # 1b848 <g_2492>
    a864:	48 8b 00             	mov    (%rax),%rax
    a867:	e9 81 07 00 00       	jmpq   afed <func_13+0x249e>
    a86c:	90                   	nop
    a86d:	8b 85 6c f5 ff ff    	mov    -0xa94(%rbp),%eax
    a873:	48 63 d8             	movslq %eax,%rbx
    a876:	48 8b 85 c0 f4 ff ff 	mov    -0xb40(%rbp),%rax
    a87d:	0f b7 c0             	movzwl %ax,%eax
    a880:	89 c6                	mov    %eax,%esi
    a882:	bf 01 00 00 00       	mov    $0x1,%edi
    a887:	e8 b1 d4 ff ff       	callq  7d3d <safe_mul_func_uint16_t_u_u>
    a88c:	0f b7 c0             	movzwl %ax,%eax
    a88f:	f7 d0                	not    %eax
    a891:	48 98                	cltq   
    a893:	48 8b 95 d0 f4 ff ff 	mov    -0xb30(%rbp),%rdx
    a89a:	48 89 d6             	mov    %rdx,%rsi
    a89d:	48 89 c7             	mov    %rax,%rdi
    a8a0:	e8 db d7 ff ff       	callq  8080 <safe_mod_func_uint64_t_u_u>
    a8a5:	48 89 c2             	mov    %rax,%rdx
    a8a8:	48 8b 85 c0 f4 ff ff 	mov    -0xb40(%rbp),%rax
    a8af:	48 89 d6             	mov    %rdx,%rsi
    a8b2:	48 89 c7             	mov    %rax,%rdi
    a8b5:	e8 74 d7 ff ff       	callq  802e <safe_add_func_uint64_t_u_u>
    a8ba:	48 39 c3             	cmp    %rax,%rbx
    a8bd:	0f 95 c0             	setne  %al
    a8c0:	0f b6 c0             	movzbl %al,%eax
    a8c3:	89 c6                	mov    %eax,%esi
    a8c5:	bf 04 00 00 00       	mov    $0x4,%edi
    a8ca:	e8 8b d2 ff ff       	callq  7b5a <safe_add_func_uint8_t_u_u>
    a8cf:	0f b6 c0             	movzbl %al,%eax
    a8d2:	8b 95 64 f5 ff ff    	mov    -0xa9c(%rbp),%edx
    a8d8:	f7 d2                	not    %edx
    a8da:	89 d2                	mov    %edx,%edx
    a8dc:	48 89 c6             	mov    %rax,%rsi
    a8df:	48 89 d7             	mov    %rdx,%rdi
    a8e2:	e8 c8 d7 ff ff       	callq  80af <safe_div_func_uint64_t_u_u>
    a8e7:	be 01 00 00 00       	mov    $0x1,%esi
    a8ec:	bf e3 7b 00 00       	mov    $0x7be3,%edi
    a8f1:	e8 ff ca ff ff       	callq  73f5 <safe_mul_func_int16_t_s_s>
    a8f6:	0f bf d0             	movswl %ax,%edx
    a8f9:	48 8b 85 78 f6 ff ff 	mov    -0x988(%rbp),%rax
    a900:	48 8b 00             	mov    (%rax),%rax
    a903:	8b 00                	mov    (%rax),%eax
    a905:	39 c2                	cmp    %eax,%edx
    a907:	0f 9f c0             	setg   %al
    a90a:	0f b6 c0             	movzbl %al,%eax
    a90d:	48 be 70 07 2e 45 7c 	movabs $0x7196e17c452e0770,%rsi
    a914:	e1 96 71 
    a917:	48 89 c7             	mov    %rax,%rdi
    a91a:	e8 95 d0 ff ff       	callq  79b4 <safe_mod_func_int64_t_s_s>
    a91f:	48 8b 95 78 f6 ff ff 	mov    -0x988(%rbp),%rdx
    a926:	48 8b 12             	mov    (%rdx),%rdx
    a929:	8b 12                	mov    (%rdx),%edx
    a92b:	48 63 d2             	movslq %edx,%rdx
    a92e:	48 39 d0             	cmp    %rdx,%rax
    a931:	7f 21                	jg     a954 <func_13+0x1e05>
    a933:	48 8d 85 08 f6 ff ff 	lea    -0x9f8(%rbp),%rax
    a93a:	48 89 85 c0 f6 ff ff 	mov    %rax,-0x940(%rbp)
    a941:	48 8b 85 90 f6 ff ff 	mov    -0x970(%rbp),%rax
    a948:	48 89 85 c0 f6 ff ff 	mov    %rax,-0x940(%rbp)
    a94f:	e9 29 01 00 00       	jmpq   aa7d <func_13+0x1f2e>
    a954:	48 8d 85 ed f4 ff ff 	lea    -0xb13(%rbp),%rax
    a95b:	48 89 85 b8 f6 ff ff 	mov    %rax,-0x948(%rbp)
    a962:	c7 85 88 f5 ff ff 68 	movl   $0xc7126568,-0xa78(%rbp)
    a969:	65 12 c7 
    a96c:	c7 85 b0 f7 ff ff ff 	movl   $0xffffffff,-0x850(%rbp)
    a973:	ff ff ff 
    a976:	c7 85 b4 f7 ff ff f7 	movl   $0x30aad2f7,-0x84c(%rbp)
    a97d:	d2 aa 30 
    a980:	c7 85 b8 f7 ff ff ff 	movl   $0xffffffff,-0x848(%rbp)
    a987:	ff ff ff 
    a98a:	c7 85 bc f7 ff ff ff 	movl   $0xffffffff,-0x844(%rbp)
    a991:	ff ff ff 
    a994:	c7 85 c0 f7 ff ff f7 	movl   $0x30aad2f7,-0x840(%rbp)
    a99b:	d2 aa 30 
    a99e:	c7 85 c4 f7 ff ff ff 	movl   $0xffffffff,-0x83c(%rbp)
    a9a5:	ff ff ff 
    a9a8:	c7 85 c8 f7 ff ff ff 	movl   $0xffffffff,-0x838(%rbp)
    a9af:	ff ff ff 
    a9b2:	c7 85 cc f7 ff ff f7 	movl   $0x30aad2f7,-0x834(%rbp)
    a9b9:	d2 aa 30 
    a9bc:	c7 85 d0 f7 ff ff ff 	movl   $0xffffffff,-0x830(%rbp)
    a9c3:	ff ff ff 
    a9c6:	c6 85 f4 f4 ff ff f8 	movb   $0xf8,-0xb0c(%rbp)
    a9cd:	48 c7 85 20 f6 ff ff 	movq   $0x0,-0x9e0(%rbp)
    a9d4:	00 00 00 00 
    a9d8:	48 8b 05 d1 09 01 00 	mov    0x109d1(%rip),%rax        # 1b3b0 <g_1385>
    a9df:	48 8b 00             	mov    (%rax),%rax
    a9e2:	48 8b 00             	mov    (%rax),%rax
    a9e5:	48 8b 95 a8 f5 ff ff 	mov    -0xa58(%rbp),%rdx
    a9ec:	48 8b 05 ad 0a 01 00 	mov    0x10aad(%rip),%rax        # 1b4a0 <g_2005>
    a9f3:	48 8b 12             	mov    (%rdx),%rdx
    a9f6:	48 89 10             	mov    %rdx,(%rax)
    a9f9:	c7 05 9d e7 00 00 00 	movl   $0x0,0xe79d(%rip)        # 191a0 <g_306>
    aa00:	00 00 00 
    aa03:	90                   	nop
    aa04:	8b 05 96 e7 00 00    	mov    0xe796(%rip),%eax        # 191a0 <g_306>
    aa0a:	83 f8 28             	cmp    $0x28,%eax
    aa0d:	74 1d                	je     aa2c <func_13+0x1edd>
    aa0f:	c7 85 8c f5 ff ff 00 	movl   $0x0,-0xa74(%rbp)
    aa16:	00 00 00 
    aa19:	83 85 8c f5 ff ff 01 	addl   $0x1,-0xa74(%rbp)
    aa20:	48 8b 85 c8 f4 ff ff 	mov    -0xb38(%rbp),%rax
    aa27:	e9 c1 05 00 00       	jmpq   afed <func_13+0x249e>
    aa2c:	48 8b 05 f5 14 01 00 	mov    0x114f5(%rip),%rax        # 1bf28 <g_2812>
    aa33:	48 8b 18             	mov    (%rax),%rbx
    aa36:	be 26 d9 00 00       	mov    $0xd926,%esi
    aa3b:	bf 01 00 00 00       	mov    $0x1,%edi
    aa40:	e8 f8 d2 ff ff       	callq  7d3d <safe_mul_func_uint16_t_u_u>
    aa45:	66 89 03             	mov    %ax,(%rbx)
    aa48:	0f b7 03             	movzwl (%rbx),%eax
    aa4b:	66 85 c0             	test   %ax,%ax
    aa4e:	0f 95 c0             	setne  %al
    aa51:	0f b6 d0             	movzbl %al,%edx
    aa54:	48 8b 85 b0 f6 ff ff 	mov    -0x950(%rbp),%rax
    aa5b:	48 3b 85 38 f6 ff ff 	cmp    -0x9c8(%rbp),%rax
    aa62:	0f 95 c0             	setne  %al
    aa65:	0f b6 c0             	movzbl %al,%eax
    aa68:	39 c2                	cmp    %eax,%edx
    aa6a:	0f 9c c0             	setl   %al
    aa6d:	0f b6 c8             	movzbl %al,%ecx
    aa70:	48 8b 05 e1 0d 01 00 	mov    0x10de1(%rip),%rax        # 1b858 <g_2557>
    aa77:	8b 10                	mov    (%rax),%edx
    aa79:	09 ca                	or     %ecx,%edx
    aa7b:	89 10                	mov    %edx,(%rax)
    aa7d:	48 8b 95 a8 f5 ff ff 	mov    -0xa58(%rbp),%rdx
    aa84:	48 8b 85 a8 f5 ff ff 	mov    -0xa58(%rbp),%rax
    aa8b:	48 8b 12             	mov    (%rdx),%rdx
    aa8e:	48 89 10             	mov    %rdx,(%rax)
    aa91:	48 8b 10             	mov    (%rax),%rdx
    aa94:	48 8b 85 78 f6 ff ff 	mov    -0x988(%rbp),%rax
    aa9b:	48 89 10             	mov    %rdx,(%rax)
    aa9e:	48 8b 85 98 f6 ff ff 	mov    -0x968(%rbp),%rax
    aaa5:	c7 00 00 00 00 00    	movl   $0x0,(%rax)
    aaab:	be 02 00 00 00       	mov    $0x2,%esi
    aab0:	bf 00 00 00 00       	mov    $0x0,%edi
    aab5:	e8 92 d1 ff ff       	callq  7c4c <safe_lshift_func_uint8_t_u_u>
    aaba:	84 c0                	test   %al,%al
    aabc:	0f 85 b2 00 00 00    	jne    ab74 <func_13+0x2025>
    aac2:	0f b7 85 34 f8 ff ff 	movzwl -0x7cc(%rbp),%eax
    aac9:	0f bf d0             	movswl %ax,%edx
    aacc:	48 8b 85 d0 f5 ff ff 	mov    -0xa30(%rbp),%rax
    aad3:	48 89 05 a6 14 01 00 	mov    %rax,0x114a6(%rip)        # 1bf80 <g_2837>
    aada:	48 8b 0d 9f 14 01 00 	mov    0x1149f(%rip),%rcx        # 1bf80 <g_2837>
    aae1:	48 8b 85 d0 f5 ff ff 	mov    -0xa30(%rbp),%rax
    aae8:	48 39 c1             	cmp    %rax,%rcx
    aaeb:	0f 95 c0             	setne  %al
    aaee:	0f b6 c0             	movzbl %al,%eax
    aaf1:	39 c2                	cmp    %eax,%edx
    aaf3:	80 bd f1 f4 ff ff 00 	cmpb   $0x0,-0xb0f(%rbp)
    aafa:	75 28                	jne    ab24 <func_13+0x1fd5>
    aafc:	48 8b 85 88 f7 ff ff 	mov    -0x878(%rbp),%rax
    ab03:	48 8d 15 fe 06 01 00 	lea    0x106fe(%rip),%rdx        # 1b208 <g_497>
    ab0a:	48 39 d0             	cmp    %rdx,%rax
    ab0d:	0f 95 c0             	setne  %al
    ab10:	0f b6 c0             	movzbl %al,%eax
    ab13:	48 89 85 c0 f4 ff ff 	mov    %rax,-0xb40(%rbp)
    ab1a:	48 83 bd c0 f4 ff ff 	cmpq   $0x0,-0xb40(%rbp)
    ab21:	00 
    ab22:	74 07                	je     ab2b <func_13+0x1fdc>
    ab24:	b8 01 00 00 00       	mov    $0x1,%eax
    ab29:	eb 05                	jmp    ab30 <func_13+0x1fe1>
    ab2b:	b8 00 00 00 00       	mov    $0x0,%eax
    ab30:	98                   	cwtl   
    ab31:	be b3 49 00 00       	mov    $0x49b3,%esi
    ab36:	89 c7                	mov    %eax,%edi
    ab38:	e8 b8 c8 ff ff       	callq  73f5 <safe_mul_func_int16_t_s_s>
    ab3d:	48 8b 85 b0 f5 ff ff 	mov    -0xa50(%rbp),%rax
    ab44:	48 8b 00             	mov    (%rax),%rax
    ab47:	48 8b 00             	mov    (%rax),%rax
    ab4a:	8b 00                	mov    (%rax),%eax
    ab4c:	89 c2                	mov    %eax,%edx
    ab4e:	48 8b 85 a8 f6 ff ff 	mov    -0x958(%rbp),%rax
    ab55:	88 10                	mov    %dl,(%rax)
    ab57:	48 8b 85 a8 f6 ff ff 	mov    -0x958(%rbp),%rax
    ab5e:	0f b6 00             	movzbl (%rax),%eax
    ab61:	0f be c0             	movsbl %al,%eax
    ab64:	be 07 00 00 00       	mov    $0x7,%esi
    ab69:	89 c7                	mov    %eax,%edi
    ab6b:	e8 c5 c7 ff ff       	callq  7335 <safe_rshift_func_int8_t_s_s>
    ab70:	84 c0                	test   %al,%al
    ab72:	74 07                	je     ab7b <func_13+0x202c>
    ab74:	ba 01 00 00 00       	mov    $0x1,%edx
    ab79:	eb 05                	jmp    ab80 <func_13+0x2031>
    ab7b:	ba 00 00 00 00       	mov    $0x0,%edx
    ab80:	48 8b 85 98 f6 ff ff 	mov    -0x968(%rbp),%rax
    ab87:	89 10                	mov    %edx,(%rax)
    ab89:	c7 05 0d e6 00 00 00 	movl   $0x0,0xe60d(%rip)        # 191a0 <g_306>
    ab90:	00 00 00 
    ab93:	90                   	nop
    ab94:	8b 05 06 e6 00 00    	mov    0xe606(%rip),%eax        # 191a0 <g_306>
    ab9a:	83 f8 05             	cmp    $0x5,%eax
    ab9d:	0f 87 42 04 00 00    	ja     afe5 <func_13+0x2496>
    aba3:	48 8d 85 d8 f5 ff ff 	lea    -0xa28(%rbp),%rax
    abaa:	48 89 85 18 f7 ff ff 	mov    %rax,-0x8e8(%rbp)
    abb1:	48 c7 85 20 f7 ff ff 	movq   $0x0,-0x8e0(%rbp)
    abb8:	00 00 00 00 
    abbc:	48 c7 85 20 fd ff ff 	movq   $0x0,-0x2e0(%rbp)
    abc3:	00 00 00 00 
    abc7:	48 c7 85 28 fd ff ff 	movq   $0x0,-0x2d8(%rbp)
    abce:	00 00 00 00 
    abd2:	48 c7 85 30 fd ff ff 	movq   $0x0,-0x2d0(%rbp)
    abd9:	00 00 00 00 
    abdd:	48 c7 85 38 fd ff ff 	movq   $0x0,-0x2c8(%rbp)
    abe4:	00 00 00 00 
    abe8:	48 c7 85 40 fd ff ff 	movq   $0x0,-0x2c0(%rbp)
    abef:	00 00 00 00 
    abf3:	48 c7 85 48 fd ff ff 	movq   $0x0,-0x2b8(%rbp)
    abfa:	00 00 00 00 
    abfe:	48 c7 85 50 fd ff ff 	movq   $0x0,-0x2b0(%rbp)
    ac05:	00 00 00 00 
    ac09:	48 c7 85 58 fd ff ff 	movq   $0x0,-0x2a8(%rbp)
    ac10:	00 00 00 00 
    ac14:	48 c7 85 60 fd ff ff 	movq   $0x0,-0x2a0(%rbp)
    ac1b:	00 00 00 00 
    ac1f:	48 c7 85 68 fd ff ff 	movq   $0x0,-0x298(%rbp)
    ac26:	00 00 00 00 
    ac2a:	48 8b 85 f0 f5 ff ff 	mov    -0xa10(%rbp),%rax
    ac31:	48 8b 00             	mov    (%rax),%rax
    ac34:	48 8b 00             	mov    (%rax),%rax
    ac37:	48 8b 00             	mov    (%rax),%rax
    ac3a:	8b 00                	mov    (%rax),%eax
    ac3c:	89 c3                	mov    %eax,%ebx
    ac3e:	48 8d 85 00 f6 ff ff 	lea    -0xa00(%rbp),%rax
    ac45:	48 89 85 38 f9 ff ff 	mov    %rax,-0x6c8(%rbp)
    ac4c:	48 8b 85 a8 f5 ff ff 	mov    -0xa58(%rbp),%rax
    ac53:	48 8b 00             	mov    (%rax),%rax
    ac56:	8b 00                	mov    (%rax),%eax
    ac58:	0f be c0             	movsbl %al,%eax
    ac5b:	89 c6                	mov    %eax,%esi
    ac5d:	bf 01 00 00 00       	mov    $0x1,%edi
    ac62:	e8 ab c5 ff ff       	callq  7212 <safe_mul_func_int8_t_s_s>
    ac67:	0f be c0             	movsbl %al,%eax
    ac6a:	89 85 28 f7 ff ff    	mov    %eax,-0x8d8(%rbp)
    ac70:	8b 85 28 f7 ff ff    	mov    -0x8d8(%rbp),%eax
    ac76:	be 02 7c 4c c0       	mov    $0xc04c7c02,%esi
    ac7b:	89 c7                	mov    %eax,%edi
    ac7d:	e8 7d ca ff ff       	callq  76ff <safe_div_func_int32_t_s_s>
    ac82:	89 c2                	mov    %eax,%edx
    ac84:	48 8b 85 e8 f5 ff ff 	mov    -0xa18(%rbp),%rax
    ac8b:	48 8b 00             	mov    (%rax),%rax
    ac8e:	48 8b 00             	mov    (%rax),%rax
    ac91:	8b 00                	mov    (%rax),%eax
    ac93:	21 d0                	and    %edx,%eax
    ac95:	0f b7 c0             	movzwl %ax,%eax
    ac98:	be 0d 00 00 00       	mov    $0xd,%esi
    ac9d:	89 c7                	mov    %eax,%edi
    ac9f:	e8 62 d1 ff ff       	callq  7e06 <safe_lshift_func_uint16_t_u_u>
    aca4:	0f b6 95 dc f4 ff ff 	movzbl -0xb24(%rbp),%edx
    acab:	66 39 d0             	cmp    %dx,%ax
    acae:	0f 95 c2             	setne  %dl
    acb1:	48 8b 05 78 12 01 00 	mov    0x11278(%rip),%rax        # 1bf30 <g_2811>
    acb8:	48 8b 00             	mov    (%rax),%rax
    acbb:	48 8b 00             	mov    (%rax),%rax
    acbe:	0f b6 d2             	movzbl %dl,%edx
    acc1:	66 89 10             	mov    %dx,(%rax)
    acc4:	0f b7 00             	movzwl (%rax),%eax
    acc7:	0f b7 c0             	movzwl %ax,%eax
    acca:	89 de                	mov    %ebx,%esi
    accc:	89 c7                	mov    %eax,%edi
    acce:	e8 33 d1 ff ff       	callq  7e06 <safe_lshift_func_uint16_t_u_u>
    acd3:	48 8b 85 d0 f4 ff ff 	mov    -0xb30(%rbp),%rax
    acda:	89 85 2c f7 ff ff    	mov    %eax,-0x8d4(%rbp)
    ace0:	48 8d 05 69 18 01 00 	lea    0x11869(%rip),%rax        # 1c550 <g_2158>
    ace7:	48 89 05 d2 12 01 00 	mov    %rax,0x112d2(%rip)        # 1bfc0 <g_2867>
    acee:	48 8b 85 c8 f4 ff ff 	mov    -0xb38(%rbp),%rax
    acf5:	e9 f3 02 00 00       	jmpq   afed <func_13+0x249e>
    acfa:	c7 85 34 f5 ff ff ff 	movl   $0xffffffff,-0xacc(%rbp)
    ad01:	ff ff ff 
    ad04:	c7 85 38 f5 ff ff b1 	movl   $0x72d89eb1,-0xac8(%rbp)
    ad0b:	9e d8 72 
    ad0e:	c7 85 3c f5 ff ff ff 	movl   $0xffffffff,-0xac4(%rbp)
    ad15:	ff ff ff 
    ad18:	c7 85 40 f5 ff ff f8 	movl   $0xfffffff8,-0xac0(%rbp)
    ad1f:	ff ff ff 
    ad22:	c7 85 44 f5 ff ff c1 	movl   $0x3e636ec1,-0xabc(%rbp)
    ad29:	6e 63 3e 
    ad2c:	c7 85 48 f5 ff ff f8 	movl   $0xfffffff8,-0xab8(%rbp)
    ad33:	ff ff ff 
    ad36:	c7 85 4c f5 ff ff 07 	movl   $0x7,-0xab4(%rbp)
    ad3d:	00 00 00 
    ad40:	c7 85 50 f5 ff ff 2d 	movl   $0xa774862d,-0xab0(%rbp)
    ad47:	86 74 a7 
    ad4a:	c7 85 54 f5 ff ff 22 	movl   $0x81e05a22,-0xaac(%rbp)
    ad51:	5a e0 81 
    ad54:	c7 85 58 f5 ff ff ff 	movl   $0xffffffff,-0xaa8(%rbp)
    ad5b:	ff ff ff 
    ad5e:	c7 85 5c f5 ff ff 78 	movl   $0x9d6fc778,-0xaa4(%rbp)
    ad65:	c7 6f 9d 
    ad68:	c7 85 20 fd ff ff ff 	movl   $0xffffffff,-0x2e0(%rbp)
    ad6f:	ff ff ff 
    ad72:	c7 85 24 fd ff ff ff 	movl   $0xffffffff,-0x2dc(%rbp)
    ad79:	ff ff ff 
    ad7c:	c7 85 28 fd ff ff ff 	movl   $0xffffffff,-0x2d8(%rbp)
    ad83:	ff ff ff 
    ad86:	c7 85 2c fd ff ff ff 	movl   $0xffffffff,-0x2d4(%rbp)
    ad8d:	ff ff ff 
    ad90:	c7 85 30 fd ff ff ff 	movl   $0xffffffff,-0x2d0(%rbp)
    ad97:	ff ff ff 
    ad9a:	c7 85 34 fd ff ff 30 	movl   $0x2b103730,-0x2cc(%rbp)
    ada1:	37 10 2b 
    ada4:	c7 85 38 fd ff ff 30 	movl   $0x2b103730,-0x2c8(%rbp)
    adab:	37 10 2b 
    adae:	c7 85 3c fd ff ff 30 	movl   $0x2b103730,-0x2c4(%rbp)
    adb5:	37 10 2b 
    adb8:	c7 85 40 fd ff ff 30 	movl   $0x2b103730,-0x2c0(%rbp)
    adbf:	37 10 2b 
    adc2:	c7 85 44 fd ff ff 30 	movl   $0x2b103730,-0x2bc(%rbp)
    adc9:	37 10 2b 
    adcc:	c7 85 48 fd ff ff ff 	movl   $0xffffffff,-0x2b8(%rbp)
    add3:	ff ff ff 
    add6:	c7 85 4c fd ff ff ff 	movl   $0xffffffff,-0x2b4(%rbp)
    addd:	ff ff ff 
    ade0:	c7 85 50 fd ff ff ff 	movl   $0xffffffff,-0x2b0(%rbp)
    ade7:	ff ff ff 
    adea:	c7 85 54 fd ff ff ff 	movl   $0xffffffff,-0x2ac(%rbp)
    adf1:	ff ff ff 
    adf4:	c7 85 58 fd ff ff ff 	movl   $0xffffffff,-0x2a8(%rbp)
    adfb:	ff ff ff 
    adfe:	c7 85 5c fd ff ff 30 	movl   $0x2b103730,-0x2a4(%rbp)
    ae05:	37 10 2b 
    ae08:	c7 85 60 fd ff ff 30 	movl   $0x2b103730,-0x2a0(%rbp)
    ae0f:	37 10 2b 
    ae12:	c7 85 64 fd ff ff 30 	movl   $0x2b103730,-0x29c(%rbp)
    ae19:	37 10 2b 
    ae1c:	c7 85 68 fd ff ff 30 	movl   $0x2b103730,-0x298(%rbp)
    ae23:	37 10 2b 
    ae26:	c7 85 6c fd ff ff 30 	movl   $0x2b103730,-0x294(%rbp)
    ae2d:	37 10 2b 
    ae30:	c7 85 70 fd ff ff ff 	movl   $0xffffffff,-0x290(%rbp)
    ae37:	ff ff ff 
    ae3a:	c7 85 74 fd ff ff ff 	movl   $0xffffffff,-0x28c(%rbp)
    ae41:	ff ff ff 
    ae44:	c7 85 78 fd ff ff ff 	movl   $0xffffffff,-0x288(%rbp)
    ae4b:	ff ff ff 
    ae4e:	c7 85 7c fd ff ff ff 	movl   $0xffffffff,-0x284(%rbp)
    ae55:	ff ff ff 
    ae58:	c7 85 80 fd ff ff ff 	movl   $0xffffffff,-0x280(%rbp)
    ae5f:	ff ff ff 
    ae62:	c7 85 84 fd ff ff 30 	movl   $0x2b103730,-0x27c(%rbp)
    ae69:	37 10 2b 
    ae6c:	c7 85 88 fd ff ff 30 	movl   $0x2b103730,-0x278(%rbp)
    ae73:	37 10 2b 
    ae76:	c7 85 8c fd ff ff 30 	movl   $0x2b103730,-0x274(%rbp)
    ae7d:	37 10 2b 
    ae80:	c7 85 90 fd ff ff 30 	movl   $0x2b103730,-0x270(%rbp)
    ae87:	37 10 2b 
    ae8a:	c7 85 94 fd ff ff 30 	movl   $0x2b103730,-0x26c(%rbp)
    ae91:	37 10 2b 
    ae94:	c7 85 98 fd ff ff ff 	movl   $0xffffffff,-0x268(%rbp)
    ae9b:	ff ff ff 
    ae9e:	c7 85 9c fd ff ff ff 	movl   $0xffffffff,-0x264(%rbp)
    aea5:	ff ff ff 
    aea8:	c7 85 a0 fd ff ff ff 	movl   $0xffffffff,-0x260(%rbp)
    aeaf:	ff ff ff 
    aeb2:	c7 85 a4 fd ff ff ff 	movl   $0xffffffff,-0x25c(%rbp)
    aeb9:	ff ff ff 
    aebc:	c7 85 a8 fd ff ff ff 	movl   $0xffffffff,-0x258(%rbp)
    aec3:	ff ff ff 
    aec6:	c7 85 ac fd ff ff 30 	movl   $0x2b103730,-0x254(%rbp)
    aecd:	37 10 2b 
    aed0:	c7 85 b0 fd ff ff 30 	movl   $0x2b103730,-0x250(%rbp)
    aed7:	37 10 2b 
    aeda:	c7 85 b4 fd ff ff 30 	movl   $0x2b103730,-0x24c(%rbp)
    aee1:	37 10 2b 
    aee4:	c7 85 b8 fd ff ff 30 	movl   $0x2b103730,-0x248(%rbp)
    aeeb:	37 10 2b 
    aeee:	c7 85 bc fd ff ff 30 	movl   $0x2b103730,-0x244(%rbp)
    aef5:	37 10 2b 
    aef8:	c7 85 c0 fd ff ff ff 	movl   $0xffffffff,-0x240(%rbp)
    aeff:	ff ff ff 
    af02:	c7 85 c4 fd ff ff ff 	movl   $0xffffffff,-0x23c(%rbp)
    af09:	ff ff ff 
    af0c:	c7 85 c8 fd ff ff ff 	movl   $0xffffffff,-0x238(%rbp)
    af13:	ff ff ff 
    af16:	c7 85 cc fd ff ff ff 	movl   $0xffffffff,-0x234(%rbp)
    af1d:	ff ff ff 
    af20:	c7 85 d0 fd ff ff ff 	movl   $0xffffffff,-0x230(%rbp)
    af27:	ff ff ff 
    af2a:	c7 85 60 f5 ff ff 42 	movl   $0x9cd2d442,-0xaa0(%rbp)
    af31:	d4 d2 9c 
    af34:	66 c7 85 f8 f4 ff ff 	movw   $0x0,-0xb08(%rbp)
    af3b:	00 00 
    af3d:	c7 85 08 f5 ff ff 00 	movl   $0x0,-0xaf8(%rbp)
    af44:	00 00 00 
    af47:	eb 1a                	jmp    af63 <func_13+0x2414>
    af49:	8b 85 08 f5 ff ff    	mov    -0xaf8(%rbp),%eax
    af4f:	48 98                	cltq   
    af51:	c7 84 85 80 f8 ff ff 	movl   $0x988a4b40,-0x780(%rbp,%rax,4)
    af58:	40 4b 8a 98 
    af5c:	83 85 08 f5 ff ff 01 	addl   $0x1,-0xaf8(%rbp)
    af63:	83 bd 08 f5 ff ff 00 	cmpl   $0x0,-0xaf8(%rbp)
    af6a:	7e dd                	jle    af49 <func_13+0x23fa>
    af6c:	c7 85 08 f5 ff ff 00 	movl   $0x0,-0xaf8(%rbp)
    af73:	00 00 00 
    af76:	eb 45                	jmp    afbd <func_13+0x246e>
    af78:	c7 85 0c f5 ff ff 00 	movl   $0x0,-0xaf4(%rbp)
    af7f:	00 00 00 
    af82:	eb 29                	jmp    afad <func_13+0x245e>
    af84:	8b 85 0c f5 ff ff    	mov    -0xaf4(%rbp),%eax
    af8a:	48 98                	cltq   
    af8c:	8b 95 08 f5 ff ff    	mov    -0xaf8(%rbp),%edx
    af92:	48 63 d2             	movslq %edx,%rdx
    af95:	48 01 d2             	add    %rdx,%rdx
    af98:	48 01 d0             	add    %rdx,%rax
    af9b:	c7 84 85 20 fb ff ff 	movl   $0x4eaca658,-0x4e0(%rbp,%rax,4)
    afa2:	58 a6 ac 4e 
    afa6:	83 85 0c f5 ff ff 01 	addl   $0x1,-0xaf4(%rbp)
    afad:	83 bd 0c f5 ff ff 01 	cmpl   $0x1,-0xaf4(%rbp)
    afb4:	7e ce                	jle    af84 <func_13+0x2435>
    afb6:	83 85 08 f5 ff ff 01 	addl   $0x1,-0xaf8(%rbp)
    afbd:	83 bd 08 f5 ff ff 00 	cmpl   $0x0,-0xaf8(%rbp)
    afc4:	7e b2                	jle    af78 <func_13+0x2429>
    afc6:	8b 85 80 f8 ff ff    	mov    -0x780(%rbp),%eax
    afcc:	83 e8 01             	sub    $0x1,%eax
    afcf:	89 85 80 f8 ff ff    	mov    %eax,-0x780(%rbp)
    afd5:	83 ad 60 f5 ff ff 01 	subl   $0x1,-0xaa0(%rbp)
    afdc:	80 85 f0 f4 ff ff 01 	addb   $0x1,-0xb10(%rbp)
    afe3:	eb 01                	jmp    afe6 <func_13+0x2497>
    afe5:	90                   	nop
    afe6:	48 8b 85 c8 f4 ff ff 	mov    -0xb38(%rbp),%rax
    afed:	48 8b 4d c8          	mov    -0x38(%rbp),%rcx
    aff1:	64 48 33 0c 25 28 00 	xor    %fs:0x28,%rcx
    aff8:	00 00 
    affa:	74 05                	je     b001 <func_13+0x24b2>
    affc:	e8 6f c0 ff ff       	callq  7070 <__stack_chk_fail@plt>
    b001:	48 81 c4 18 0b 00 00 	add    $0xb18,%rsp
    b008:	5b                   	pop    %rbx
    b009:	41 5c                	pop    %r12
    b00b:	41 5d                	pop    %r13
    b00d:	41 5e                	pop    %r14
    b00f:	41 5f                	pop    %r15
    b011:	5d                   	pop    %rbp
    b012:	c3                   	retq   

000000000000b013 <func_30>:
    b013:	f3 0f 1e fa          	endbr64 
    b017:	55                   	push   %rbp
    b018:	48 89 e5             	mov    %rsp,%rbp
    b01b:	48 83 ec 50          	sub    $0x50,%rsp
    b01f:	48 89 7d d8          	mov    %rdi,-0x28(%rbp)
    b023:	89 f0                	mov    %esi,%eax
    b025:	48 89 55 c8          	mov    %rdx,-0x38(%rbp)
    b029:	48 89 4d c0          	mov    %rcx,-0x40(%rbp)
    b02d:	4c 89 45 b8          	mov    %r8,-0x48(%rbp)
    b031:	88 45 d4             	mov    %al,-0x2c(%rbp)
    b034:	64 48 8b 04 25 28 00 	mov    %fs:0x28,%rax
    b03b:	00 00 
    b03d:	48 89 45 f8          	mov    %rax,-0x8(%rbp)
    b041:	31 c0                	xor    %eax,%eax
    b043:	66 c7 45 e6 f6 ff    	movw   $0xfff6,-0x1a(%rbp)
    b049:	48 8d 05 d0 fe 00 00 	lea    0xfed0(%rip),%rax        # 1af20 <g_386>
    b050:	48 89 45 e8          	mov    %rax,-0x18(%rbp)
    b054:	48 8d 45 e8          	lea    -0x18(%rbp),%rax
    b058:	48 89 45 f0          	mov    %rax,-0x10(%rbp)
    b05c:	c6 45 e5 f6          	movb   $0xf6,-0x1b(%rbp)
    b060:	0f b6 45 d4          	movzbl -0x2c(%rbp),%eax
    b064:	66 89 45 e6          	mov    %ax,-0x1a(%rbp)
    b068:	48 8b 05 e9 07 01 00 	mov    0x107e9(%rip),%rax        # 1b858 <g_2557>
    b06f:	8b 10                	mov    (%rax),%edx
    b071:	83 e2 01             	and    $0x1,%edx
    b074:	89 10                	mov    %edx,(%rax)
    b076:	0f b6 45 e5          	movzbl -0x1b(%rbp),%eax
    b07a:	48 8b 4d f8          	mov    -0x8(%rbp),%rcx
    b07e:	64 48 33 0c 25 28 00 	xor    %fs:0x28,%rcx
    b085:	00 00 
    b087:	74 05                	je     b08e <func_30+0x7b>
    b089:	e8 e2 bf ff ff       	callq  7070 <__stack_chk_fail@plt>
    b08e:	c9                   	leaveq 
    b08f:	c3                   	retq   

000000000000b090 <func_36>:
    b090:	f3 0f 1e fa          	endbr64 
    b094:	55                   	push   %rbp
    b095:	48 89 e5             	mov    %rsp,%rbp
    b098:	41 55                	push   %r13
    b09a:	41 54                	push   %r12
    b09c:	53                   	push   %rbx
    b09d:	48 83 ec 58          	sub    $0x58,%rsp
    b0a1:	48 89 7d 98          	mov    %rdi,-0x68(%rbp)
    b0a5:	89 75 94             	mov    %esi,-0x6c(%rbp)
    b0a8:	64 48 8b 04 25 28 00 	mov    %fs:0x28,%rax
    b0af:	00 00 
    b0b1:	48 89 45 d8          	mov    %rax,-0x28(%rbp)
    b0b5:	31 c0                	xor    %eax,%eax
    b0b7:	c7 45 c0 a0 7d 5f c3 	movl   $0xc35f7da0,-0x40(%rbp)
    b0be:	c7 45 c4 00 00 00 00 	movl   $0x0,-0x3c(%rbp)
    b0c5:	c7 45 c8 a0 7d 5f c3 	movl   $0xc35f7da0,-0x38(%rbp)
    b0cc:	c7 45 cc 00 00 00 00 	movl   $0x0,-0x34(%rbp)
    b0d3:	c7 45 d0 a0 7d 5f c3 	movl   $0xc35f7da0,-0x30(%rbp)
    b0da:	c7 45 d4 00 00 00 00 	movl   $0x0,-0x2c(%rbp)
    b0e1:	48 8d 05 4e 14 01 00 	lea    0x1144e(%rip),%rax        # 1c536 <g_1814+0x6>
    b0e8:	48 89 45 b0          	mov    %rax,-0x50(%rbp)
    b0ec:	48 8d 05 dd e8 00 00 	lea    0xe8dd(%rip),%rax        # 199d0 <g_2550>
    b0f3:	48 89 45 b8          	mov    %rax,-0x48(%rbp)
    b0f7:	c7 45 a8 05 00 00 00 	movl   $0x5,-0x58(%rbp)
    b0fe:	c7 45 ac b1 c9 e2 ed 	movl   $0xede2c9b1,-0x54(%rbp)
    b105:	48 8b 05 24 03 01 00 	mov    0x10324(%rip),%rax        # 1b430 <g_1926>
    b10c:	0f b6 00             	movzbl (%rax),%eax
    b10f:	44 0f b6 e0          	movzbl %al,%r12d
    b113:	48 8b 45 b0          	mov    -0x50(%rbp),%rax
    b117:	66 c7 00 ff ff       	movw   $0xffff,(%rax)
    b11c:	8b 45 d0             	mov    -0x30(%rbp),%eax
    b11f:	0f be d8             	movsbl %al,%ebx
    b122:	8b 45 d0             	mov    -0x30(%rbp),%eax
    b125:	4c 63 e8             	movslq %eax,%r13
    b128:	8b 45 d0             	mov    -0x30(%rbp),%eax
    b12b:	48 98                	cltq   
    b12d:	48 89 c6             	mov    %rax,%rsi
    b130:	bf 00 00 00 00       	mov    $0x0,%edi
    b135:	e8 07 c7 ff ff       	callq  7841 <safe_add_func_int64_t_s_s>
    b13a:	49 39 c5             	cmp    %rax,%r13
    b13d:	8b 45 d0             	mov    -0x30(%rbp),%eax
    b140:	89 c2                	mov    %eax,%edx
    b142:	8b 45 94             	mov    -0x6c(%rbp),%eax
    b145:	31 d0                	xor    %edx,%eax
    b147:	0f be c0             	movsbl %al,%eax
    b14a:	89 de                	mov    %ebx,%esi
    b14c:	89 c7                	mov    %eax,%edi
    b14e:	e8 bf c0 ff ff       	callq  7212 <safe_mul_func_int8_t_s_s>
    b153:	be 00 00 00 00       	mov    $0x0,%esi
    b158:	bf 01 00 00 00       	mov    $0x1,%edi
    b15d:	e8 e9 ce ff ff       	callq  804b <safe_sub_func_uint64_t_u_u>
    b162:	48 85 c0             	test   %rax,%rax
    b165:	74 07                	je     b16e <func_36+0xde>
    b167:	b8 01 00 00 00       	mov    $0x1,%eax
    b16c:	eb 05                	jmp    b173 <func_36+0xe3>
    b16e:	b8 00 00 00 00       	mov    $0x0,%eax
    b173:	44 39 e0             	cmp    %r12d,%eax
    b176:	0f 95 c0             	setne  %al
    b179:	0f b6 c0             	movzbl %al,%eax
    b17c:	39 45 94             	cmp    %eax,-0x6c(%rbp)
    b17f:	0f 95 c0             	setne  %al
    b182:	0f b6 c0             	movzbl %al,%eax
    b185:	8b 55 94             	mov    -0x6c(%rbp),%edx
    b188:	89 d6                	mov    %edx,%esi
    b18a:	89 c7                	mov    %eax,%edi
    b18c:	e8 a4 c1 ff ff       	callq  7335 <safe_rshift_func_int8_t_s_s>
    b191:	0f be c0             	movsbl %al,%eax
    b194:	8b 55 d0             	mov    -0x30(%rbp),%edx
    b197:	23 55 94             	and    -0x6c(%rbp),%edx
    b19a:	89 c6                	mov    %eax,%esi
    b19c:	89 d7                	mov    %edx,%edi
    b19e:	e8 5a cd ff ff       	callq  7efd <safe_mod_func_uint32_t_u_u>
    b1a3:	89 c2                	mov    %eax,%edx
    b1a5:	48 8b 05 6c 00 01 00 	mov    0x1006c(%rip),%rax        # 1b218 <g_785>
    b1ac:	66 89 10             	mov    %dx,(%rax)
    b1af:	0f b7 00             	movzwl (%rax),%eax
    b1b2:	98                   	cwtl   
    b1b3:	be 05 75 00 00       	mov    $0x7505,%esi
    b1b8:	89 c7                	mov    %eax,%edi
    b1ba:	e8 36 c2 ff ff       	callq  73f5 <safe_mul_func_int16_t_s_s>
    b1bf:	98                   	cwtl   
    b1c0:	33 45 a8             	xor    -0x58(%rbp),%eax
    b1c3:	89 c2                	mov    %eax,%edx
    b1c5:	8b 45 94             	mov    -0x6c(%rbp),%eax
    b1c8:	39 c2                	cmp    %eax,%edx
    b1ca:	0f 97 c0             	seta   %al
    b1cd:	0f b6 c0             	movzbl %al,%eax
    b1d0:	89 45 ac             	mov    %eax,-0x54(%rbp)
    b1d3:	48 8b 05 d6 01 01 00 	mov    0x101d6(%rip),%rax        # 1b3b0 <g_1385>
    b1da:	48 8b 00             	mov    (%rax),%rax
    b1dd:	48 8b 00             	mov    (%rax),%rax
    b1e0:	48 8b 4d d8          	mov    -0x28(%rbp),%rcx
    b1e4:	64 48 33 0c 25 28 00 	xor    %fs:0x28,%rcx
    b1eb:	00 00 
    b1ed:	74 05                	je     b1f4 <func_36+0x164>
    b1ef:	e8 7c be ff ff       	callq  7070 <__stack_chk_fail@plt>
    b1f4:	48 83 c4 58          	add    $0x58,%rsp
    b1f8:	5b                   	pop    %rbx
    b1f9:	41 5c                	pop    %r12
    b1fb:	41 5d                	pop    %r13
    b1fd:	5d                   	pop    %rbp
    b1fe:	c3                   	retq   

000000000000b1ff <func_39>:
    b1ff:	f3 0f 1e fa          	endbr64 
    b203:	55                   	push   %rbp
    b204:	48 89 e5             	mov    %rsp,%rbp
    b207:	41 56                	push   %r14
    b209:	41 55                	push   %r13
    b20b:	41 54                	push   %r12
    b20d:	53                   	push   %rbx
    b20e:	48 81 ec 30 09 00 00 	sub    $0x930,%rsp
    b215:	48 89 bd b8 f6 ff ff 	mov    %rdi,-0x948(%rbp)
    b21c:	48 89 b5 b0 f6 ff ff 	mov    %rsi,-0x950(%rbp)
    b223:	64 48 8b 04 25 28 00 	mov    %fs:0x28,%rax
    b22a:	00 00 
    b22c:	48 89 45 d8          	mov    %rax,-0x28(%rbp)
    b230:	31 c0                	xor    %eax,%eax
    b232:	48 c7 85 50 f8 ff ff 	movq   $0x7,-0x7b0(%rbp)
    b239:	07 00 00 00 
    b23d:	48 c7 85 58 f8 ff ff 	movq   $0x7,-0x7a8(%rbp)
    b244:	07 00 00 00 
    b248:	48 c7 85 60 f8 ff ff 	movq   $0x7,-0x7a0(%rbp)
    b24f:	07 00 00 00 
    b253:	48 c7 85 68 f8 ff ff 	movq   $0x7,-0x798(%rbp)
    b25a:	07 00 00 00 
    b25e:	48 8d 05 f3 dd 00 00 	lea    0xddf3(%rip),%rax        # 19058 <g_65>
    b265:	48 89 85 30 f7 ff ff 	mov    %rax,-0x8d0(%rbp)
    b26c:	48 c7 85 78 f7 ff ff 	movq   $0x0,-0x888(%rbp)
    b273:	00 00 00 00 
    b277:	c7 85 f8 f6 ff ff fc 	movl   $0xfffffffc,-0x908(%rbp)
    b27e:	ff ff ff 
    b281:	c7 85 d4 f6 ff ff 01 	movl   $0x1,-0x92c(%rbp)
    b288:	00 00 00 
    b28b:	c7 85 40 f8 ff ff 00 	movl   $0x0,-0x7c0(%rbp)
    b292:	00 00 00 
    b295:	c7 85 44 f8 ff ff 00 	movl   $0x0,-0x7bc(%rbp)
    b29c:	00 00 00 
    b29f:	c7 85 48 f8 ff ff 00 	movl   $0x0,-0x7b8(%rbp)
    b2a6:	00 00 00 
    b2a9:	c7 85 4c f8 ff ff 00 	movl   $0x0,-0x7b4(%rbp)
    b2b0:	00 00 00 
    b2b3:	66 c7 85 ce f6 ff ff 	movw   $0x7b86,-0x932(%rbp)
    b2ba:	86 7b 
    b2bc:	48 8d 85 30 f7 ff ff 	lea    -0x8d0(%rbp),%rax
    b2c3:	48 89 85 38 f7 ff ff 	mov    %rax,-0x8c8(%rbp)
    b2ca:	48 8d 85 38 f7 ff ff 	lea    -0x8c8(%rbp),%rax
    b2d1:	48 89 85 80 f7 ff ff 	mov    %rax,-0x880(%rbp)
    b2d8:	48 c7 85 88 f7 ff ff 	movq   $0x0,-0x878(%rbp)
    b2df:	00 00 00 00 
    b2e3:	48 8d 05 6e e0 00 00 	lea    0xe06e(%rip),%rax        # 19358 <g_1235>
    b2ea:	48 89 85 40 f7 ff ff 	mov    %rax,-0x8c0(%rbp)
    b2f1:	48 8d 85 40 f7 ff ff 	lea    -0x8c0(%rbp),%rax
    b2f8:	48 89 85 c0 fb ff ff 	mov    %rax,-0x440(%rbp)
    b2ff:	48 8d 85 40 f7 ff ff 	lea    -0x8c0(%rbp),%rax
    b306:	48 89 85 c8 fb ff ff 	mov    %rax,-0x438(%rbp)
    b30d:	48 8d 85 40 f7 ff ff 	lea    -0x8c0(%rbp),%rax
    b314:	48 89 85 d0 fb ff ff 	mov    %rax,-0x430(%rbp)
    b31b:	48 8d 85 40 f7 ff ff 	lea    -0x8c0(%rbp),%rax
    b322:	48 89 85 d8 fb ff ff 	mov    %rax,-0x428(%rbp)
    b329:	48 8d 85 40 f7 ff ff 	lea    -0x8c0(%rbp),%rax
    b330:	48 89 85 e0 fb ff ff 	mov    %rax,-0x420(%rbp)
    b337:	48 8d 85 40 f7 ff ff 	lea    -0x8c0(%rbp),%rax
    b33e:	48 89 85 e8 fb ff ff 	mov    %rax,-0x418(%rbp)
    b345:	48 8d 85 40 f7 ff ff 	lea    -0x8c0(%rbp),%rax
    b34c:	48 89 85 f0 fb ff ff 	mov    %rax,-0x410(%rbp)
    b353:	48 8d 85 40 f7 ff ff 	lea    -0x8c0(%rbp),%rax
    b35a:	48 89 85 f8 fb ff ff 	mov    %rax,-0x408(%rbp)
    b361:	48 8d 85 40 f7 ff ff 	lea    -0x8c0(%rbp),%rax
    b368:	48 89 85 00 fc ff ff 	mov    %rax,-0x400(%rbp)
    b36f:	48 8d 85 40 f7 ff ff 	lea    -0x8c0(%rbp),%rax
    b376:	48 89 85 08 fc ff ff 	mov    %rax,-0x3f8(%rbp)
    b37d:	48 8d 85 40 f7 ff ff 	lea    -0x8c0(%rbp),%rax
    b384:	48 89 85 10 fc ff ff 	mov    %rax,-0x3f0(%rbp)
    b38b:	48 8d 85 40 f7 ff ff 	lea    -0x8c0(%rbp),%rax
    b392:	48 89 85 18 fc ff ff 	mov    %rax,-0x3e8(%rbp)
    b399:	48 8d 85 40 f7 ff ff 	lea    -0x8c0(%rbp),%rax
    b3a0:	48 89 85 20 fc ff ff 	mov    %rax,-0x3e0(%rbp)
    b3a7:	48 8d 85 40 f7 ff ff 	lea    -0x8c0(%rbp),%rax
    b3ae:	48 89 85 28 fc ff ff 	mov    %rax,-0x3d8(%rbp)
    b3b5:	48 8d 85 40 f7 ff ff 	lea    -0x8c0(%rbp),%rax
    b3bc:	48 89 85 30 fc ff ff 	mov    %rax,-0x3d0(%rbp)
    b3c3:	48 8d 85 40 f7 ff ff 	lea    -0x8c0(%rbp),%rax
    b3ca:	48 89 85 38 fc ff ff 	mov    %rax,-0x3c8(%rbp)
    b3d1:	48 8d 85 40 f7 ff ff 	lea    -0x8c0(%rbp),%rax
    b3d8:	48 89 85 40 fc ff ff 	mov    %rax,-0x3c0(%rbp)
    b3df:	48 8d 85 40 f7 ff ff 	lea    -0x8c0(%rbp),%rax
    b3e6:	48 89 85 48 fc ff ff 	mov    %rax,-0x3b8(%rbp)
    b3ed:	48 8d 85 40 f7 ff ff 	lea    -0x8c0(%rbp),%rax
    b3f4:	48 89 85 50 fc ff ff 	mov    %rax,-0x3b0(%rbp)
    b3fb:	48 8d 85 40 f7 ff ff 	lea    -0x8c0(%rbp),%rax
    b402:	48 89 85 58 fc ff ff 	mov    %rax,-0x3a8(%rbp)
    b409:	48 8d 85 40 f7 ff ff 	lea    -0x8c0(%rbp),%rax
    b410:	48 89 85 60 fc ff ff 	mov    %rax,-0x3a0(%rbp)
    b417:	48 8d 85 40 f7 ff ff 	lea    -0x8c0(%rbp),%rax
    b41e:	48 89 85 68 fc ff ff 	mov    %rax,-0x398(%rbp)
    b425:	48 8d 85 40 f7 ff ff 	lea    -0x8c0(%rbp),%rax
    b42c:	48 89 85 70 fc ff ff 	mov    %rax,-0x390(%rbp)
    b433:	48 8d 85 40 f7 ff ff 	lea    -0x8c0(%rbp),%rax
    b43a:	48 89 85 78 fc ff ff 	mov    %rax,-0x388(%rbp)
    b441:	48 8d 85 40 f7 ff ff 	lea    -0x8c0(%rbp),%rax
    b448:	48 89 85 80 fc ff ff 	mov    %rax,-0x380(%rbp)
    b44f:	48 8d 85 40 f7 ff ff 	lea    -0x8c0(%rbp),%rax
    b456:	48 89 85 88 fc ff ff 	mov    %rax,-0x378(%rbp)
    b45d:	48 8d 85 40 f7 ff ff 	lea    -0x8c0(%rbp),%rax
    b464:	48 89 85 90 fc ff ff 	mov    %rax,-0x370(%rbp)
    b46b:	48 8d 85 40 f7 ff ff 	lea    -0x8c0(%rbp),%rax
    b472:	48 89 85 98 fc ff ff 	mov    %rax,-0x368(%rbp)
    b479:	48 8d 85 40 f7 ff ff 	lea    -0x8c0(%rbp),%rax
    b480:	48 89 85 a0 fc ff ff 	mov    %rax,-0x360(%rbp)
    b487:	48 8d 85 40 f7 ff ff 	lea    -0x8c0(%rbp),%rax
    b48e:	48 89 85 a8 fc ff ff 	mov    %rax,-0x358(%rbp)
    b495:	48 8d 85 40 f7 ff ff 	lea    -0x8c0(%rbp),%rax
    b49c:	48 89 85 b0 fc ff ff 	mov    %rax,-0x350(%rbp)
    b4a3:	48 8d 85 40 f7 ff ff 	lea    -0x8c0(%rbp),%rax
    b4aa:	48 89 85 b8 fc ff ff 	mov    %rax,-0x348(%rbp)
    b4b1:	48 8d 85 40 f7 ff ff 	lea    -0x8c0(%rbp),%rax
    b4b8:	48 89 85 c0 fc ff ff 	mov    %rax,-0x340(%rbp)
    b4bf:	48 8d 85 40 f7 ff ff 	lea    -0x8c0(%rbp),%rax
    b4c6:	48 89 85 c8 fc ff ff 	mov    %rax,-0x338(%rbp)
    b4cd:	48 8d 85 40 f7 ff ff 	lea    -0x8c0(%rbp),%rax
    b4d4:	48 89 85 d0 fc ff ff 	mov    %rax,-0x330(%rbp)
    b4db:	48 8d 85 40 f7 ff ff 	lea    -0x8c0(%rbp),%rax
    b4e2:	48 89 85 d8 fc ff ff 	mov    %rax,-0x328(%rbp)
    b4e9:	48 8d 85 40 f7 ff ff 	lea    -0x8c0(%rbp),%rax
    b4f0:	48 89 85 e0 fc ff ff 	mov    %rax,-0x320(%rbp)
    b4f7:	48 8d 85 40 f7 ff ff 	lea    -0x8c0(%rbp),%rax
    b4fe:	48 89 85 e8 fc ff ff 	mov    %rax,-0x318(%rbp)
    b505:	48 8d 85 40 f7 ff ff 	lea    -0x8c0(%rbp),%rax
    b50c:	48 89 85 f0 fc ff ff 	mov    %rax,-0x310(%rbp)
    b513:	48 8d 85 40 f7 ff ff 	lea    -0x8c0(%rbp),%rax
    b51a:	48 89 85 f8 fc ff ff 	mov    %rax,-0x308(%rbp)
    b521:	48 8d 85 40 f7 ff ff 	lea    -0x8c0(%rbp),%rax
    b528:	48 89 85 00 fd ff ff 	mov    %rax,-0x300(%rbp)
    b52f:	48 8d 85 40 f7 ff ff 	lea    -0x8c0(%rbp),%rax
    b536:	48 89 85 08 fd ff ff 	mov    %rax,-0x2f8(%rbp)
    b53d:	48 8d 85 40 f7 ff ff 	lea    -0x8c0(%rbp),%rax
    b544:	48 89 85 10 fd ff ff 	mov    %rax,-0x2f0(%rbp)
    b54b:	48 8d 85 40 f7 ff ff 	lea    -0x8c0(%rbp),%rax
    b552:	48 89 85 18 fd ff ff 	mov    %rax,-0x2e8(%rbp)
    b559:	48 8d 85 40 f7 ff ff 	lea    -0x8c0(%rbp),%rax
    b560:	48 89 85 20 fd ff ff 	mov    %rax,-0x2e0(%rbp)
    b567:	48 8d 85 40 f7 ff ff 	lea    -0x8c0(%rbp),%rax
    b56e:	48 89 85 28 fd ff ff 	mov    %rax,-0x2d8(%rbp)
    b575:	48 8d 85 40 f7 ff ff 	lea    -0x8c0(%rbp),%rax
    b57c:	48 89 85 30 fd ff ff 	mov    %rax,-0x2d0(%rbp)
    b583:	48 8d 85 40 f7 ff ff 	lea    -0x8c0(%rbp),%rax
    b58a:	48 89 85 38 fd ff ff 	mov    %rax,-0x2c8(%rbp)
    b591:	48 8d 85 40 f7 ff ff 	lea    -0x8c0(%rbp),%rax
    b598:	48 89 85 40 fd ff ff 	mov    %rax,-0x2c0(%rbp)
    b59f:	48 8d 85 40 f7 ff ff 	lea    -0x8c0(%rbp),%rax
    b5a6:	48 89 85 48 fd ff ff 	mov    %rax,-0x2b8(%rbp)
    b5ad:	48 8d 85 40 f7 ff ff 	lea    -0x8c0(%rbp),%rax
    b5b4:	48 89 85 60 f9 ff ff 	mov    %rax,-0x6a0(%rbp)
    b5bb:	48 8d 85 40 f7 ff ff 	lea    -0x8c0(%rbp),%rax
    b5c2:	48 89 85 68 f9 ff ff 	mov    %rax,-0x698(%rbp)
    b5c9:	48 8d 85 40 f7 ff ff 	lea    -0x8c0(%rbp),%rax
    b5d0:	48 89 85 70 f9 ff ff 	mov    %rax,-0x690(%rbp)
    b5d7:	48 8d 85 40 f7 ff ff 	lea    -0x8c0(%rbp),%rax
    b5de:	48 89 85 78 f9 ff ff 	mov    %rax,-0x688(%rbp)
    b5e5:	48 8d 85 40 f7 ff ff 	lea    -0x8c0(%rbp),%rax
    b5ec:	48 89 85 80 f9 ff ff 	mov    %rax,-0x680(%rbp)
    b5f3:	48 8d 85 40 f7 ff ff 	lea    -0x8c0(%rbp),%rax
    b5fa:	48 89 85 88 f9 ff ff 	mov    %rax,-0x678(%rbp)
    b601:	48 8d 85 40 f7 ff ff 	lea    -0x8c0(%rbp),%rax
    b608:	48 89 85 90 f9 ff ff 	mov    %rax,-0x670(%rbp)
    b60f:	48 8d 85 40 f7 ff ff 	lea    -0x8c0(%rbp),%rax
    b616:	48 89 85 98 f9 ff ff 	mov    %rax,-0x668(%rbp)
    b61d:	48 8d 85 40 f7 ff ff 	lea    -0x8c0(%rbp),%rax
    b624:	48 89 85 a0 f9 ff ff 	mov    %rax,-0x660(%rbp)
    b62b:	48 8d 85 40 f7 ff ff 	lea    -0x8c0(%rbp),%rax
    b632:	48 89 85 a8 f9 ff ff 	mov    %rax,-0x658(%rbp)
    b639:	48 8d 85 a0 fa ff ff 	lea    -0x560(%rbp),%rax
    b640:	48 8d 15 59 e7 00 00 	lea    0xe759(%rip),%rdx        # 19da0 <g_2946+0x3b0>
    b647:	b9 24 00 00 00       	mov    $0x24,%ecx
    b64c:	48 89 c7             	mov    %rax,%rdi
    b64f:	48 89 d6             	mov    %rdx,%rsi
    b652:	f3 48 a5             	rep movsq %ds:(%rsi),%es:(%rdi)
    b655:	48 8d 85 a0 fa ff ff 	lea    -0x560(%rbp),%rax
    b65c:	48 05 e8 00 00 00    	add    $0xe8,%rax
    b662:	48 89 85 48 f7 ff ff 	mov    %rax,-0x8b8(%rbp)
    b669:	48 8d 85 48 f7 ff ff 	lea    -0x8b8(%rbp),%rax
    b670:	48 89 85 50 f7 ff ff 	mov    %rax,-0x8b0(%rbp)
    b677:	48 c7 85 30 f8 ff ff 	movq   $0x0,-0x7d0(%rbp)
    b67e:	00 00 00 00 
    b682:	c7 85 fc f6 ff ff ff 	movl   $0xffffffff,-0x904(%rbp)
    b689:	ff ff ff 
    b68c:	c6 85 ca f6 ff ff 00 	movb   $0x0,-0x936(%rbp)
    b693:	66 c7 85 d0 f6 ff ff 	movw   $0xa2e7,-0x930(%rbp)
    b69a:	e7 a2 
    b69c:	48 8d 05 3d 0e 01 00 	lea    0x10e3d(%rip),%rax        # 1c4e0 <g_1003>
    b6a3:	48 89 85 58 f7 ff ff 	mov    %rax,-0x8a8(%rbp)
    b6aa:	48 8d 85 58 f7 ff ff 	lea    -0x8a8(%rbp),%rax
    b6b1:	48 89 85 90 f7 ff ff 	mov    %rax,-0x870(%rbp)
    b6b8:	66 c7 85 d2 f6 ff ff 	movw   $0xf075,-0x92e(%rbp)
    b6bf:	75 f0 
    b6c1:	c7 85 dc f6 ff ff 00 	movl   $0x0,-0x924(%rbp)
    b6c8:	00 00 00 
    b6cb:	eb 1b                	jmp    b6e8 <func_39+0x4e9>
    b6cd:	8b 85 dc f6 ff ff    	mov    -0x924(%rbp),%eax
    b6d3:	48 98                	cltq   
    b6d5:	48 c7 84 c5 10 f9 ff 	movq   $0x0,-0x6f0(%rbp,%rax,8)
    b6dc:	ff 00 00 00 00 
    b6e1:	83 85 dc f6 ff ff 01 	addl   $0x1,-0x924(%rbp)
    b6e8:	83 bd dc f6 ff ff 08 	cmpl   $0x8,-0x924(%rbp)
    b6ef:	7e dc                	jle    b6cd <func_39+0x4ce>
    b6f1:	90                   	nop
    b6f2:	48 c7 05 53 d9 00 00 	movq   $0x0,0xd953(%rip)        # 19050 <g_49>
    b6f9:	00 00 00 00 
    b6fd:	eb 50                	jmp    b74f <func_39+0x550>
    b6ff:	c7 85 28 f7 ff ff 04 	movl   $0x4,-0x8d8(%rbp)
    b706:	00 00 00 
    b709:	48 8d 85 50 fd ff ff 	lea    -0x2b0(%rbp),%rax
    b710:	48 8d 15 49 9c 00 00 	lea    0x9c49(%rip),%rdx        # 15360 <g_2798+0x2ec>
    b717:	b9 28 00 00 00       	mov    $0x28,%ecx
    b71c:	48 89 c7             	mov    %rax,%rdi
    b71f:	48 89 d6             	mov    %rdx,%rsi
    b722:	f3 48 a5             	rep movsq %ds:(%rsi),%es:(%rdi)
    b725:	c7 85 2c f7 ff ff 7e 	movl   $0xd0badd7e,-0x8d4(%rbp)
    b72c:	dd ba d0 
    b72f:	48 8d 05 86 da 00 00 	lea    0xda86(%rip),%rax        # 191bc <g_530>
    b736:	48 89 85 28 f8 ff ff 	mov    %rax,-0x7d8(%rbp)
    b73d:	48 8b 05 0c d9 00 00 	mov    0xd90c(%rip),%rax        # 19050 <g_49>
    b744:	48 83 c0 01          	add    $0x1,%rax
    b748:	48 89 05 01 d9 00 00 	mov    %rax,0xd901(%rip)        # 19050 <g_49>
    b74f:	48 8b 05 fa d8 00 00 	mov    0xd8fa(%rip),%rax        # 19050 <g_49>
    b756:	48 83 f8 03          	cmp    $0x3,%rax
    b75a:	76 a3                	jbe    b6ff <func_39+0x500>
    b75c:	48 8b 85 b8 f6 ff ff 	mov    -0x948(%rbp),%rax
    b763:	0f b7 d8             	movzwl %ax,%ebx
    b766:	8b 05 7c da 00 00    	mov    0xda7c(%rip),%eax        # 191e8 <g_694>
    b76c:	48 8b 85 b8 f6 ff ff 	mov    -0x948(%rbp),%rax
    b773:	41 89 c5             	mov    %eax,%r13d
    b776:	48 8b 85 80 f7 ff ff 	mov    -0x880(%rbp),%rax
    b77d:	48 8b 00             	mov    (%rax),%rax
    b780:	48 8b 00             	mov    (%rax),%rax
    b783:	44 8b 20             	mov    (%rax),%r12d
    b786:	48 8b 05 7b fa 00 00 	mov    0xfa7b(%rip),%rax        # 1b208 <g_497>
    b78d:	48 8b 00             	mov    (%rax),%rax
    b790:	48 39 85 88 f7 ff ff 	cmp    %rax,-0x878(%rbp)
    b797:	75 58                	jne    b7f1 <func_39+0x5f2>
    b799:	48 8b 85 38 f7 ff ff 	mov    -0x8c8(%rbp),%rax
    b7a0:	48 8b 00             	mov    (%rax),%rax
    b7a3:	8b 00                	mov    (%rax),%eax
    b7a5:	85 c0                	test   %eax,%eax
    b7a7:	75 48                	jne    b7f1 <func_39+0x5f2>
    b7a9:	48 8b 85 30 f7 ff ff 	mov    -0x8d0(%rbp),%rax
    b7b0:	8b 10                	mov    (%rax),%edx
    b7b2:	48 8b 8d c8 fc ff ff 	mov    -0x338(%rbp),%rcx
    b7b9:	48 8b 85 78 f9 ff ff 	mov    -0x688(%rbp),%rax
    b7c0:	48 39 c1             	cmp    %rax,%rcx
    b7c3:	0f 95 c0             	setne  %al
    b7c6:	0f b6 c0             	movzbl %al,%eax
    b7c9:	48 39 85 b8 f6 ff ff 	cmp    %rax,-0x948(%rbp)
    b7d0:	0f 9c c0             	setl   %al
    b7d3:	0f b6 c8             	movzbl %al,%ecx
    b7d6:	48 8b 05 53 fc 00 00 	mov    0xfc53(%rip),%rax        # 1b430 <g_1926>
    b7dd:	0f b6 00             	movzbl (%rax),%eax
    b7e0:	0f b6 c0             	movzbl %al,%eax
    b7e3:	39 c1                	cmp    %eax,%ecx
    b7e5:	0f 9d c0             	setge  %al
    b7e8:	0f b6 c0             	movzbl %al,%eax
    b7eb:	21 d0                	and    %edx,%eax
    b7ed:	85 c0                	test   %eax,%eax
    b7ef:	74 07                	je     b7f8 <func_39+0x5f9>
    b7f1:	b8 01 00 00 00       	mov    $0x1,%eax
    b7f6:	eb 05                	jmp    b7fd <func_39+0x5fe>
    b7f8:	b8 00 00 00 00       	mov    $0x0,%eax
    b7fd:	89 c2                	mov    %eax,%edx
    b7ff:	48 8b 05 12 fa 00 00 	mov    0xfa12(%rip),%rax        # 1b218 <g_785>
    b806:	0f b7 00             	movzwl (%rax),%eax
    b809:	09 d0                	or     %edx,%eax
    b80b:	0f bf d0             	movswl %ax,%edx
    b80e:	48 8b 85 b8 f6 ff ff 	mov    -0x948(%rbp),%rax
    b815:	98                   	cwtl   
    b816:	89 d6                	mov    %edx,%esi
    b818:	89 c7                	mov    %eax,%edi
    b81a:	e8 36 bc ff ff       	callq  7455 <safe_div_func_int16_t_s_s>
    b81f:	48 8b 15 fa f9 00 00 	mov    0xf9fa(%rip),%rdx        # 1b220 <g_784>
    b826:	48 8b 12             	mov    (%rdx),%rdx
    b829:	0f b7 12             	movzwl (%rdx),%edx
    b82c:	66 39 d0             	cmp    %dx,%ax
    b82f:	0f 9e c0             	setle  %al
    b832:	0f b6 d0             	movzbl %al,%edx
    b835:	48 8b 85 30 f7 ff ff 	mov    -0x8d0(%rbp),%rax
    b83c:	8b 00                	mov    (%rax),%eax
    b83e:	39 c2                	cmp    %eax,%edx
    b840:	0f 9c c0             	setl   %al
    b843:	0f b6 c0             	movzbl %al,%eax
    b846:	44 89 e6             	mov    %r12d,%esi
    b849:	89 c7                	mov    %eax,%edi
    b84b:	e8 b5 c3 ff ff       	callq  7c05 <safe_lshift_func_uint8_t_u_s>
    b850:	44 89 ee             	mov    %r13d,%esi
    b853:	bf 01 00 00 00       	mov    $0x1,%edi
    b858:	e8 61 c4 ff ff       	callq  7cbe <safe_rshift_func_uint8_t_u_u>
    b85d:	48 8b 05 24 dc 00 00 	mov    0xdc24(%rip),%rax        # 19488 <g_2148+0x8>
    b864:	48 f7 d0             	not    %rax
    b867:	48 89 c2             	mov    %rax,%rdx
    b86a:	48 8b 85 b8 f6 ff ff 	mov    -0x948(%rbp),%rax
    b871:	48 39 c2             	cmp    %rax,%rdx
    b874:	0f 95 c0             	setne  %al
    b877:	0f b6 c0             	movzbl %al,%eax
    b87a:	89 de                	mov    %ebx,%esi
    b87c:	89 c7                	mov    %eax,%edi
    b87e:	e8 9c c4 ff ff       	callq  7d1f <safe_sub_func_uint16_t_u_u>
    b883:	66 85 c0             	test   %ax,%ax
    b886:	74 0c                	je     b894 <func_39+0x695>
    b888:	48 8d 05 c9 0b 01 00 	lea    0x10bc9(%rip),%rax        # 1c458 <g_79>
    b88f:	e9 27 0b 00 00       	jmpq   c3bb <func_39+0x11bc>
    b894:	48 8d 85 50 f7 ff ff 	lea    -0x8b0(%rbp),%rax
    b89b:	48 89 85 98 f7 ff ff 	mov    %rax,-0x868(%rbp)
    b8a2:	48 8d 05 0f fc 00 00 	lea    0xfc0f(%rip),%rax        # 1b4b8 <g_2049>
    b8a9:	48 89 85 90 f8 ff ff 	mov    %rax,-0x770(%rbp)
    b8b0:	48 8d 05 01 fc 00 00 	lea    0xfc01(%rip),%rax        # 1b4b8 <g_2049>
    b8b7:	48 89 85 98 f8 ff ff 	mov    %rax,-0x768(%rbp)
    b8be:	48 8d 05 f3 fb 00 00 	lea    0xfbf3(%rip),%rax        # 1b4b8 <g_2049>
    b8c5:	48 89 85 a0 f8 ff ff 	mov    %rax,-0x760(%rbp)
    b8cc:	48 8d 05 e5 fb 00 00 	lea    0xfbe5(%rip),%rax        # 1b4b8 <g_2049>
    b8d3:	48 89 85 a8 f8 ff ff 	mov    %rax,-0x758(%rbp)
    b8da:	48 8d 05 d7 fb 00 00 	lea    0xfbd7(%rip),%rax        # 1b4b8 <g_2049>
    b8e1:	48 89 85 b0 f8 ff ff 	mov    %rax,-0x750(%rbp)
    b8e8:	48 8d 05 c9 fb 00 00 	lea    0xfbc9(%rip),%rax        # 1b4b8 <g_2049>
    b8ef:	48 89 85 b8 f8 ff ff 	mov    %rax,-0x748(%rbp)
    b8f6:	48 8d 05 bb fb 00 00 	lea    0xfbbb(%rip),%rax        # 1b4b8 <g_2049>
    b8fd:	48 89 85 c0 f8 ff ff 	mov    %rax,-0x740(%rbp)
    b904:	48 8d 05 ad fb 00 00 	lea    0xfbad(%rip),%rax        # 1b4b8 <g_2049>
    b90b:	48 89 85 c8 f8 ff ff 	mov    %rax,-0x738(%rbp)
    b912:	48 8d 85 90 f8 ff ff 	lea    -0x770(%rbp),%rax
    b919:	48 83 c0 30          	add    $0x30,%rax
    b91d:	48 89 85 a0 f7 ff ff 	mov    %rax,-0x860(%rbp)
    b924:	48 8d 05 0b 0c 01 00 	lea    0x10c0b(%rip),%rax        # 1c536 <g_1814+0x6>
    b92b:	48 89 85 60 f7 ff ff 	mov    %rax,-0x8a0(%rbp)
    b932:	c7 85 e0 f6 ff ff 09 	movl   $0x9,-0x920(%rbp)
    b939:	00 00 00 
    b93c:	c7 85 70 f8 ff ff d7 	movl   $0x56b94fd7,-0x790(%rbp)
    b943:	4f b9 56 
    b946:	c7 85 74 f8 ff ff d7 	movl   $0x56b94fd7,-0x78c(%rbp)
    b94d:	4f b9 56 
    b950:	c7 85 78 f8 ff ff d7 	movl   $0x56b94fd7,-0x788(%rbp)
    b957:	4f b9 56 
    b95a:	c7 85 7c f8 ff ff d7 	movl   $0x56b94fd7,-0x784(%rbp)
    b961:	4f b9 56 
    b964:	c7 85 80 f8 ff ff d7 	movl   $0x56b94fd7,-0x780(%rbp)
    b96b:	4f b9 56 
    b96e:	c7 85 84 f8 ff ff d7 	movl   $0x56b94fd7,-0x77c(%rbp)
    b975:	4f b9 56 
    b978:	c7 85 88 f8 ff ff d7 	movl   $0x56b94fd7,-0x778(%rbp)
    b97f:	4f b9 56 
    b982:	c7 85 8c f8 ff ff d7 	movl   $0x56b94fd7,-0x774(%rbp)
    b989:	4f b9 56 
    b98c:	c7 85 00 f7 ff ff 01 	movl   $0x1,-0x900(%rbp)
    b993:	00 00 00 
    b996:	c7 85 04 f7 ff ff b3 	movl   $0xce5080b3,-0x8fc(%rbp)
    b99d:	80 50 ce 
    b9a0:	c7 85 08 f7 ff ff 03 	movl   $0x3,-0x8f8(%rbp)
    b9a7:	00 00 00 
    b9aa:	48 c7 85 68 f7 ff ff 	movq   $0x0,-0x898(%rbp)
    b9b1:	00 00 00 00 
    b9b5:	48 8d 05 fc d7 00 00 	lea    0xd7fc(%rip),%rax        # 191b8 <g_496>
    b9bc:	48 89 85 d0 f8 ff ff 	mov    %rax,-0x730(%rbp)
    b9c3:	48 8d 05 ee d7 00 00 	lea    0xd7ee(%rip),%rax        # 191b8 <g_496>
    b9ca:	48 89 85 d8 f8 ff ff 	mov    %rax,-0x728(%rbp)
    b9d1:	48 8d 05 14 d8 00 00 	lea    0xd814(%rip),%rax        # 191ec <g_734>
    b9d8:	48 89 85 e0 f8 ff ff 	mov    %rax,-0x720(%rbp)
    b9df:	48 8d 05 d2 d7 00 00 	lea    0xd7d2(%rip),%rax        # 191b8 <g_496>
    b9e6:	48 89 85 e8 f8 ff ff 	mov    %rax,-0x718(%rbp)
    b9ed:	48 8d 05 c4 d7 00 00 	lea    0xd7c4(%rip),%rax        # 191b8 <g_496>
    b9f4:	48 89 85 f0 f8 ff ff 	mov    %rax,-0x710(%rbp)
    b9fb:	48 8d 05 ea d7 00 00 	lea    0xd7ea(%rip),%rax        # 191ec <g_734>
    ba02:	48 89 85 f8 f8 ff ff 	mov    %rax,-0x708(%rbp)
    ba09:	48 8d 05 a8 d7 00 00 	lea    0xd7a8(%rip),%rax        # 191b8 <g_496>
    ba10:	48 89 85 00 f9 ff ff 	mov    %rax,-0x700(%rbp)
    ba17:	48 8d 05 9a d7 00 00 	lea    0xd79a(%rip),%rax        # 191b8 <g_496>
    ba1e:	48 89 85 08 f9 ff ff 	mov    %rax,-0x6f8(%rbp)
    ba25:	c6 85 c9 f6 ff ff 92 	movb   $0x92,-0x937(%rbp)
    ba2c:	c7 85 e4 f6 ff ff 00 	movl   $0x0,-0x91c(%rbp)
    ba33:	00 00 00 
    ba36:	eb 1e                	jmp    ba56 <func_39+0x857>
    ba38:	8b 85 e4 f6 ff ff    	mov    -0x91c(%rbp),%eax
    ba3e:	48 98                	cltq   
    ba40:	48 8d 15 69 d7 00 00 	lea    0xd769(%rip),%rdx        # 191b0 <g_358>
    ba47:	48 89 94 c5 38 f8 ff 	mov    %rdx,-0x7c8(%rbp,%rax,8)
    ba4e:	ff 
    ba4f:	83 85 e4 f6 ff ff 01 	addl   $0x1,-0x91c(%rbp)
    ba56:	83 bd e4 f6 ff ff 00 	cmpl   $0x0,-0x91c(%rbp)
    ba5d:	7e d9                	jle    ba38 <func_39+0x839>
    ba5f:	0f b6 05 42 df 00 00 	movzbl 0xdf42(%rip),%eax        # 199a8 <g_2370+0x8>
    ba66:	0f be d8             	movsbl %al,%ebx
    ba69:	48 8b 05 a8 f7 00 00 	mov    0xf7a8(%rip),%rax        # 1b218 <g_785>
    ba70:	0f b7 00             	movzwl (%rax),%eax
    ba73:	44 0f bf e0          	movswl %ax,%r12d
    ba77:	8b 05 73 d7 00 00    	mov    0xd773(%rip),%eax        # 191f0 <g_760>
    ba7d:	41 89 c6             	mov    %eax,%r14d
    ba80:	48 8b 85 b8 f6 ff ff 	mov    -0x948(%rbp),%rax
    ba87:	44 0f b7 e8          	movzwl %ax,%r13d
    ba8b:	48 8b 95 50 f7 ff ff 	mov    -0x8b0(%rbp),%rdx
    ba92:	48 8b 85 98 f7 ff ff 	mov    -0x868(%rbp),%rax
    ba99:	48 89 10             	mov    %rdx,(%rax)
    ba9c:	48 8b 85 98 f7 ff ff 	mov    -0x868(%rbp),%rax
    baa3:	48 8b 00             	mov    (%rax),%rax
    baa6:	48 39 85 a0 f7 ff ff 	cmp    %rax,-0x860(%rbp)
    baad:	0f 95 c0             	setne  %al
    bab0:	0f b6 d0             	movzbl %al,%edx
    bab3:	48 8b 05 86 f9 00 00 	mov    0xf986(%rip),%rax        # 1b440 <g_1931>
    baba:	48 8b 00             	mov    (%rax),%rax
    babd:	8b 00                	mov    (%rax),%eax
    babf:	39 c2                	cmp    %eax,%edx
    bac1:	0f 8e 9d 00 00 00    	jle    bb64 <func_39+0x965>
    bac7:	83 bd e0 f6 ff ff 01 	cmpl   $0x1,-0x920(%rbp)
    bace:	0f 9f c0             	setg   %al
    bad1:	0f b6 d0             	movzbl %al,%edx
    bad4:	48 8b 85 30 f7 ff ff 	mov    -0x8d0(%rbp),%rax
    badb:	8b 00                	mov    (%rax),%eax
    badd:	31 d0                	xor    %edx,%eax
    badf:	48 98                	cltq   
    bae1:	48 0b 85 b8 f6 ff ff 	or     -0x948(%rbp),%rax
    bae8:	48 89 c2             	mov    %rax,%rdx
    baeb:	48 8b 85 30 f7 ff ff 	mov    -0x8d0(%rbp),%rax
    baf2:	8b 00                	mov    (%rax),%eax
    baf4:	85 c0                	test   %eax,%eax
    baf6:	75 0a                	jne    bb02 <func_39+0x903>
    baf8:	48 83 bd b8 f6 ff ff 	cmpq   $0x0,-0x948(%rbp)
    baff:	00 
    bb00:	74 07                	je     bb09 <func_39+0x90a>
    bb02:	b8 01 00 00 00       	mov    $0x1,%eax
    bb07:	eb 05                	jmp    bb0e <func_39+0x90f>
    bb09:	b8 00 00 00 00       	mov    $0x0,%eax
    bb0e:	48 98                	cltq   
    bb10:	48 89 d6             	mov    %rdx,%rsi
    bb13:	48 89 c7             	mov    %rax,%rdi
    bb16:	e8 99 be ff ff       	callq  79b4 <safe_mod_func_int64_t_s_s>
    bb1b:	48 8b 85 60 f7 ff ff 	mov    -0x8a0(%rbp),%rax
    bb22:	0f b7 10             	movzwl (%rax),%edx
    bb25:	83 c2 01             	add    $0x1,%edx
    bb28:	66 89 10             	mov    %dx,(%rax)
    bb2b:	48 8b 05 fe f8 00 00 	mov    0xf8fe(%rip),%rax        # 1b430 <g_1926>
    bb32:	0f b6 00             	movzbl (%rax),%eax
    bb35:	0f b6 c0             	movzbl %al,%eax
    bb38:	39 85 e0 f6 ff ff    	cmp    %eax,-0x920(%rbp)
    bb3e:	48 b8 1d fc df d6 c9 	movabs $0x4e4e0ec9d6dffc1d,%rax
    bb45:	0e 4e 4e 
    bb48:	48 39 85 b8 f6 ff ff 	cmp    %rax,-0x948(%rbp)
    bb4f:	0f 9e c0             	setle  %al
    bb52:	0f b6 c0             	movzbl %al,%eax
    bb55:	89 85 e0 f6 ff ff    	mov    %eax,-0x920(%rbp)
    bb5b:	83 bd e0 f6 ff ff 00 	cmpl   $0x0,-0x920(%rbp)
    bb62:	74 07                	je     bb6b <func_39+0x96c>
    bb64:	b8 01 00 00 00       	mov    $0x1,%eax
    bb69:	eb 05                	jmp    bb70 <func_39+0x971>
    bb6b:	b8 00 00 00 00       	mov    $0x0,%eax
    bb70:	98                   	cwtl   
    bb71:	83 e0 01             	and    $0x1,%eax
    bb74:	89 c2                	mov    %eax,%edx
    bb76:	48 8b 05 a3 f6 00 00 	mov    0xf6a3(%rip),%rax        # 1b220 <g_784>
    bb7d:	48 8b 00             	mov    (%rax),%rax
    bb80:	0f b7 00             	movzwl (%rax),%eax
    bb83:	98                   	cwtl   
    bb84:	89 d6                	mov    %edx,%esi
    bb86:	89 c7                	mov    %eax,%edi
    bb88:	e8 68 b8 ff ff       	callq  73f5 <safe_mul_func_int16_t_s_s>
    bb8d:	0f b7 c0             	movzwl %ax,%eax
    bb90:	44 89 ee             	mov    %r13d,%esi
    bb93:	89 c7                	mov    %eax,%edi
    bb95:	e8 c2 c1 ff ff       	callq  7d5c <safe_mod_func_uint16_t_u_u>
    bb9a:	44 89 f6             	mov    %r14d,%esi
    bb9d:	bf 00 00 00 00       	mov    $0x0,%edi
    bba2:	e8 c5 b7 ff ff       	callq  736c <safe_rshift_func_int8_t_s_u>
    bba7:	48 8b 85 b8 f6 ff ff 	mov    -0x948(%rbp),%rax
    bbae:	0f b7 c0             	movzwl %ax,%eax
    bbb1:	44 89 e6             	mov    %r12d,%esi
    bbb4:	89 c7                	mov    %eax,%edi
    bbb6:	e8 03 c2 ff ff       	callq  7dbe <safe_lshift_func_uint16_t_u_s>
    bbbb:	0f b7 c0             	movzwl %ax,%eax
    bbbe:	89 de                	mov    %ebx,%esi
    bbc0:	89 c7                	mov    %eax,%edi
    bbc2:	e8 05 bb ff ff       	callq  76cc <safe_mod_func_int32_t_s_s>
    bbc7:	85 c0                	test   %eax,%eax
    bbc9:	75 0d                	jne    bbd8 <func_39+0x9d9>
    bbcb:	83 bd e0 f6 ff ff 00 	cmpl   $0x0,-0x920(%rbp)
    bbd2:	0f 84 9b 02 00 00    	je     be73 <func_39+0xc74>
    bbd8:	48 c7 85 70 f7 ff ff 	movq   $0x0,-0x890(%rbp)
    bbdf:	00 00 00 00 
    bbe3:	48 8d 85 70 f7 ff ff 	lea    -0x890(%rbp),%rax
    bbea:	48 89 85 c8 f7 ff ff 	mov    %rax,-0x838(%rbp)
    bbf1:	c7 85 d8 f6 ff ff fa 	movl   $0xfffffffa,-0x928(%rbp)
    bbf8:	ff ff ff 
    bbfb:	c7 85 18 f7 ff ff 00 	movl   $0x0,-0x8e8(%rbp)
    bc02:	00 00 00 
    bc05:	48 8d 05 1c 09 01 00 	lea    0x1091c(%rip),%rax        # 1c528 <g_1503>
    bc0c:	48 89 85 d0 f7 ff ff 	mov    %rax,-0x830(%rbp)
    bc13:	c7 85 1c f7 ff ff de 	movl   $0x535a52de,-0x8e4(%rbp)
    bc1a:	52 5a 53 
    bc1d:	c7 85 e8 f6 ff ff 00 	movl   $0x0,-0x918(%rbp)
    bc24:	00 00 00 
    bc27:	eb 1a                	jmp    bc43 <func_39+0xa44>
    bc29:	8b 85 e8 f6 ff ff    	mov    -0x918(%rbp),%eax
    bc2f:	48 98                	cltq   
    bc31:	c7 84 85 20 fa ff ff 	movl   $0x1,-0x5e0(%rbp,%rax,4)
    bc38:	01 00 00 00 
    bc3c:	83 85 e8 f6 ff ff 01 	addl   $0x1,-0x918(%rbp)
    bc43:	83 bd e8 f6 ff ff 05 	cmpl   $0x5,-0x918(%rbp)
    bc4a:	7e dd                	jle    bc29 <func_39+0xa2a>
    bc4c:	48 8b 85 80 f7 ff ff 	mov    -0x880(%rbp),%rax
    bc53:	48 8b 10             	mov    (%rax),%rdx
    bc56:	48 8b 05 b3 f7 00 00 	mov    0xf7b3(%rip),%rax        # 1b410 <g_1769>
    bc5d:	48 8b 12             	mov    (%rdx),%rdx
    bc60:	48 89 10             	mov    %rdx,(%rax)
    bc63:	48 8b 85 38 f7 ff ff 	mov    -0x8c8(%rbp),%rax
    bc6a:	48 8b 00             	mov    (%rax),%rax
    bc6d:	8b 00                	mov    (%rax),%eax
    bc6f:	89 c2                	mov    %eax,%edx
    bc71:	8b 85 8c f8 ff ff    	mov    -0x774(%rbp),%eax
    bc77:	09 c2                	or     %eax,%edx
    bc79:	48 8b 85 38 f7 ff ff 	mov    -0x8c8(%rbp),%rax
    bc80:	48 8b 00             	mov    (%rax),%rax
    bc83:	89 10                	mov    %edx,(%rax)
    bc85:	66 c7 05 1c d4 00 00 	movw   $0x0,0xd41c(%rip)        # 190aa <g_126>
    bc8c:	00 00 
    bc8e:	eb 5a                	jmp    bcea <func_39+0xaeb>
    bc90:	48 8b 85 38 f7 ff ff 	mov    -0x8c8(%rbp),%rax
    bc97:	48 8b 00             	mov    (%rax),%rax
    bc9a:	c7 00 01 00 00 00    	movl   $0x1,(%rax)
    bca0:	48 8d 85 70 f7 ff ff 	lea    -0x890(%rbp),%rax
    bca7:	48 39 85 c8 f7 ff ff 	cmp    %rax,-0x838(%rbp)
    bcae:	0f 95 c0             	setne  %al
    bcb1:	0f b6 c0             	movzbl %al,%eax
    bcb4:	89 c6                	mov    %eax,%esi
    bcb6:	bf 01 00 00 00       	mov    $0x1,%edi
    bcbb:	e8 d2 b7 ff ff       	callq  7492 <safe_lshift_func_int16_t_s_s>
    bcc0:	89 c2                	mov    %eax,%edx
    bcc2:	48 8b 05 1f ef 00 00 	mov    0xef1f(%rip),%rax        # 1abe8 <g_226>
    bcc9:	0f bf d2             	movswl %dx,%edx
    bccc:	89 10                	mov    %edx,(%rax)
    bcce:	8b 00                	mov    (%rax),%eax
    bcd0:	48 98                	cltq   
    bcd2:	48 89 05 e7 dc 00 00 	mov    %rax,0xdce7(%rip)        # 199c0 <g_2378>
    bcd9:	0f b7 05 ca d3 00 00 	movzwl 0xd3ca(%rip),%eax        # 190aa <g_126>
    bce0:	83 c0 01             	add    $0x1,%eax
    bce3:	66 89 05 c0 d3 00 00 	mov    %ax,0xd3c0(%rip)        # 190aa <g_126>
    bcea:	0f b7 05 b9 d3 00 00 	movzwl 0xd3b9(%rip),%eax        # 190aa <g_126>
    bcf1:	66 83 f8 3b          	cmp    $0x3b,%ax
    bcf5:	76 99                	jbe    bc90 <func_39+0xa91>
    bcf7:	48 c7 05 be dc 00 00 	movq   $0x0,0xdcbe(%rip)        # 199c0 <g_2378>
    bcfe:	00 00 00 00 
    bd02:	e9 56 01 00 00       	jmpq   be5d <func_39+0xc5e>
    bd07:	c6 85 cd f6 ff ff 01 	movb   $0x1,-0x933(%rbp)
    bd0e:	48 8d 85 10 f9 ff ff 	lea    -0x6f0(%rbp),%rax
    bd15:	48 89 85 d8 f7 ff ff 	mov    %rax,-0x828(%rbp)
    bd1c:	48 c7 85 e0 f7 ff ff 	movq   $0x0,-0x820(%rbp)
    bd23:	00 00 00 00 
    bd27:	48 8d 85 ce f6 ff ff 	lea    -0x932(%rbp),%rax
    bd2e:	48 89 85 e8 f7 ff ff 	mov    %rax,-0x818(%rbp)
    bd35:	c7 85 20 f7 ff ff 99 	movl   $0x18054c99,-0x8e0(%rbp)
    bd3c:	4c 05 18 
    bd3f:	c7 85 b0 f9 ff ff f9 	movl   $0xfffffff9,-0x650(%rbp)
    bd46:	ff ff ff 
    bd49:	c7 85 b4 f9 ff ff f9 	movl   $0xfffffff9,-0x64c(%rbp)
    bd50:	ff ff ff 
    bd53:	c7 85 b8 f9 ff ff f9 	movl   $0xfffffff9,-0x648(%rbp)
    bd5a:	ff ff ff 
    bd5d:	c7 85 bc f9 ff ff f9 	movl   $0xfffffff9,-0x644(%rbp)
    bd64:	ff ff ff 
    bd67:	c7 85 c0 f9 ff ff f9 	movl   $0xfffffff9,-0x640(%rbp)
    bd6e:	ff ff ff 
    bd71:	c7 85 24 f7 ff ff fa 	movl   $0xfffffffa,-0x8dc(%rbp)
    bd78:	ff ff ff 
    bd7b:	48 8d 85 b0 f9 ff ff 	lea    -0x650(%rbp),%rax
    bd82:	48 83 c0 08          	add    $0x8,%rax
    bd86:	48 89 85 f0 f7 ff ff 	mov    %rax,-0x810(%rbp)
    bd8d:	48 8d 85 40 f8 ff ff 	lea    -0x7c0(%rbp),%rax
    bd94:	48 83 c0 04          	add    $0x4,%rax
    bd98:	48 89 85 f8 f7 ff ff 	mov    %rax,-0x808(%rbp)
    bd9f:	48 8d 85 d8 f6 ff ff 	lea    -0x928(%rbp),%rax
    bda6:	48 89 85 00 f8 ff ff 	mov    %rax,-0x800(%rbp)
    bdad:	48 c7 85 08 f8 ff ff 	movq   $0x0,-0x7f8(%rbp)
    bdb4:	00 00 00 00 
    bdb8:	48 c7 85 10 f8 ff ff 	movq   $0x0,-0x7f0(%rbp)
    bdbf:	00 00 00 00 
    bdc3:	48 8d 85 d8 f6 ff ff 	lea    -0x928(%rbp),%rax
    bdca:	48 89 85 18 f8 ff ff 	mov    %rax,-0x7e8(%rbp)
    bdd1:	48 8d 85 d4 f6 ff ff 	lea    -0x92c(%rbp),%rax
    bdd8:	48 89 85 20 f8 ff ff 	mov    %rax,-0x7e0(%rbp)
    bddf:	48 8d 85 b0 f9 ff ff 	lea    -0x650(%rbp),%rax
    bde6:	48 83 c0 08          	add    $0x8,%rax
    bdea:	48 89 85 50 fd ff ff 	mov    %rax,-0x2b0(%rbp)
    bdf1:	48 8d 85 b0 f9 ff ff 	lea    -0x650(%rbp),%rax
    bdf8:	48 83 c0 08          	add    $0x8,%rax
    bdfc:	48 89 85 58 fd ff ff 	mov    %rax,-0x2a8(%rbp)
    be03:	48 8d 85 b0 f9 ff ff 	lea    -0x650(%rbp),%rax
    be0a:	48 83 c0 08          	add    $0x8,%rax
    be0e:	48 89 85 60 fd ff ff 	mov    %rax,-0x2a0(%rbp)
    be15:	48 8d 85 b0 f9 ff ff 	lea    -0x650(%rbp),%rax
    be1c:	48 83 c0 08          	add    $0x8,%rax
    be20:	48 89 85 68 fd ff ff 	mov    %rax,-0x298(%rbp)
    be27:	48 8d 85 b0 f9 ff ff 	lea    -0x650(%rbp),%rax
    be2e:	48 83 c0 08          	add    $0x8,%rax
    be32:	48 89 85 70 fd ff ff 	mov    %rax,-0x290(%rbp)
    be39:	48 8d 85 b0 f9 ff ff 	lea    -0x650(%rbp),%rax
    be40:	48 83 c0 08          	add    $0x8,%rax
    be44:	48 89 85 78 fd ff ff 	mov    %rax,-0x288(%rbp)
    be4b:	48 8b 05 6e db 00 00 	mov    0xdb6e(%rip),%rax        # 199c0 <g_2378>
    be52:	48 83 c0 01          	add    $0x1,%rax
    be56:	48 89 05 63 db 00 00 	mov    %rax,0xdb63(%rip)        # 199c0 <g_2378>
    be5d:	48 8b 05 5c db 00 00 	mov    0xdb5c(%rip),%rax        # 199c0 <g_2378>
    be64:	48 83 f8 07          	cmp    $0x7,%rax
    be68:	0f 86 99 fe ff ff    	jbe    bd07 <func_39+0xb08>
    be6e:	e9 24 05 00 00       	jmpq   c397 <func_39+0x1198>
    be73:	48 8d 05 6e f7 00 00 	lea    0xf76e(%rip),%rax        # 1b5e8 <g_2047+0x108>
    be7a:	48 89 85 70 f7 ff ff 	mov    %rax,-0x890(%rbp)
    be81:	48 8d 85 70 f7 ff ff 	lea    -0x890(%rbp),%rax
    be88:	48 89 85 a8 f7 ff ff 	mov    %rax,-0x858(%rbp)
    be8f:	c7 85 0c f7 ff ff d9 	movl   $0xa3bde1d9,-0x8f4(%rbp)
    be96:	e1 bd a3 
    be99:	48 8d 85 50 fd ff ff 	lea    -0x2b0(%rbp),%rax
    bea0:	48 8d 15 19 e0 00 00 	lea    0xe019(%rip),%rdx        # 19ec0 <g_2946+0x4d0>
    bea7:	b9 50 00 00 00       	mov    $0x50,%ecx
    beac:	48 89 c7             	mov    %rax,%rdi
    beaf:	48 89 d6             	mov    %rdx,%rsi
    beb2:	f3 48 a5             	rep movsq %ds:(%rsi),%es:(%rdi)
    beb5:	c7 85 10 f7 ff ff a2 	movl   $0x58f0b7a2,-0x8f0(%rbp)
    bebc:	b7 f0 58 
    bebf:	44 8b b5 88 f8 ff ff 	mov    -0x778(%rbp),%r14d
    bec6:	48 b8 f7 70 3e af 8a 	movabs $0x75bb9d8aaf3e70f7,%rax
    becd:	9d bb 75 
    bed0:	0f b7 d8             	movzwl %ax,%ebx
    bed3:	48 8b 85 b8 f6 ff ff 	mov    -0x948(%rbp),%rax
    beda:	44 0f b6 e0          	movzbl %al,%r12d
    bede:	8b 85 0c f7 ff ff    	mov    -0x8f4(%rbp),%eax
    bee4:	44 0f b6 e8          	movzbl %al,%r13d
    bee8:	be 57 ef ff ff       	mov    $0xffffef57,%esi
    beed:	bf 00 00 00 00       	mov    $0x0,%edi
    bef2:	e8 fe b4 ff ff       	callq  73f5 <safe_mul_func_int16_t_s_s>
    bef7:	98                   	cwtl   
    bef8:	be 02 00 00 00       	mov    $0x2,%esi
    befd:	89 c7                	mov    %eax,%edi
    beff:	e8 5f b6 ff ff       	callq  7563 <safe_rshift_func_int16_t_s_u>
    bf04:	0f b6 c0             	movzbl %al,%eax
    bf07:	44 89 ee             	mov    %r13d,%esi
    bf0a:	89 c7                	mov    %eax,%edi
    bf0c:	e8 ca bc ff ff       	callq  7bdb <safe_div_func_uint8_t_u_u>
    bf11:	48 8b 05 b8 f2 00 00 	mov    0xf2b8(%rip),%rax        # 1b1d0 <g_393>
    bf18:	48 8b 00             	mov    (%rax),%rax
    bf1b:	48 8b 10             	mov    (%rax),%rdx
    bf1e:	48 8b 85 18 ff ff ff 	mov    -0xe8(%rbp),%rax
    bf25:	48 39 c2             	cmp    %rax,%rdx
    bf28:	0f 95 c0             	setne  %al
    bf2b:	0f b6 d0             	movzbl %al,%edx
    bf2e:	48 8b 05 1b f9 00 00 	mov    0xf91b(%rip),%rax        # 1b850 <g_2491>
    bf35:	48 85 c0             	test   %rax,%rax
    bf38:	0f 95 c0             	setne  %al
    bf3b:	0f b6 c0             	movzbl %al,%eax
    bf3e:	89 d6                	mov    %edx,%esi
    bf40:	89 c7                	mov    %eax,%edi
    bf42:	e8 ae b4 ff ff       	callq  73f5 <safe_mul_func_int16_t_s_s>
    bf47:	89 c2                	mov    %eax,%edx
    bf49:	0f b6 05 f9 05 01 00 	movzbl 0x105f9(%rip),%eax        # 1c549 <g_1946>
    bf50:	09 d0                	or     %edx,%eax
    bf52:	88 05 f1 05 01 00    	mov    %al,0x105f1(%rip)        # 1c549 <g_1946>
    bf58:	0f b6 05 ea 05 01 00 	movzbl 0x105ea(%rip),%eax        # 1c549 <g_1946>
    bf5f:	0f b6 c0             	movzbl %al,%eax
    bf62:	44 89 e6             	mov    %r12d,%esi
    bf65:	89 c7                	mov    %eax,%edi
    bf67:	e8 6f bc ff ff       	callq  7bdb <safe_div_func_uint8_t_u_u>
    bf6c:	0f b6 d0             	movzbl %al,%edx
    bf6f:	48 8b 85 a8 f7 ff ff 	mov    -0x858(%rbp),%rax
    bf76:	48 8d 0d 6b f6 00 00 	lea    0xf66b(%rip),%rcx        # 1b5e8 <g_2047+0x108>
    bf7d:	48 89 08             	mov    %rcx,(%rax)
    bf80:	48 8b 85 a8 f7 ff ff 	mov    -0x858(%rbp),%rax
    bf87:	48 8b 00             	mov    (%rax),%rax
    bf8a:	48 8d 0d 7f f6 00 00 	lea    0xf67f(%rip),%rcx        # 1b610 <g_2047+0x130>
    bf91:	48 39 c8             	cmp    %rcx,%rax
    bf94:	0f 95 c0             	setne  %al
    bf97:	0f b6 c0             	movzbl %al,%eax
    bf9a:	89 d6                	mov    %edx,%esi
    bf9c:	89 c7                	mov    %eax,%edi
    bf9e:	e8 f0 bb ff ff       	callq  7b93 <safe_mul_func_uint8_t_u_u>
    bfa3:	0f b6 c0             	movzbl %al,%eax
    bfa6:	89 de                	mov    %ebx,%esi
    bfa8:	89 c7                	mov    %eax,%edi
    bfaa:	e8 70 bd ff ff       	callq  7d1f <safe_sub_func_uint16_t_u_u>
    bfaf:	0f b7 c0             	movzwl %ax,%eax
    bfb2:	41 39 c6             	cmp    %eax,%r14d
    bfb5:	48 8b 05 5c f2 00 00 	mov    0xf25c(%rip),%rax        # 1b218 <g_785>
    bfbc:	0f b7 00             	movzwl (%rax),%eax
    bfbf:	66 85 c0             	test   %ax,%ax
    bfc2:	74 17                	je     bfdb <func_39+0xddc>
    bfc4:	48 8b 85 38 f7 ff ff 	mov    -0x8c8(%rbp),%rax
    bfcb:	48 8b 00             	mov    (%rax),%rax
    bfce:	8b 00                	mov    (%rax),%eax
    bfd0:	85 c0                	test   %eax,%eax
    bfd2:	74 07                	je     bfdb <func_39+0xddc>
    bfd4:	ba 01 00 00 00       	mov    $0x1,%edx
    bfd9:	eb 05                	jmp    bfe0 <func_39+0xde1>
    bfdb:	ba 00 00 00 00       	mov    $0x0,%edx
    bfe0:	48 8b 85 30 f7 ff ff 	mov    -0x8d0(%rbp),%rax
    bfe7:	89 10                	mov    %edx,(%rax)
    bfe9:	8b 00                	mov    (%rax),%eax
    bfeb:	85 c0                	test   %eax,%eax
    bfed:	74 22                	je     c011 <func_39+0xe12>
    bfef:	48 8b 85 30 f7 ff ff 	mov    -0x8d0(%rbp),%rax
    bff6:	8b 10                	mov    (%rax),%edx
    bff8:	48 8b 85 b8 f6 ff ff 	mov    -0x948(%rbp),%rax
    bfff:	89 c1                	mov    %eax,%ecx
    c001:	48 8b 85 30 f7 ff ff 	mov    -0x8d0(%rbp),%rax
    c008:	21 ca                	and    %ecx,%edx
    c00a:	89 10                	mov    %edx,(%rax)
    c00c:	e9 32 03 00 00       	jmpq   c343 <func_39+0x1144>
    c011:	48 c7 85 b0 f7 ff ff 	movq   $0x3,-0x850(%rbp)
    c018:	03 00 00 00 
    c01c:	c7 85 14 f7 ff ff a7 	movl   $0xd6215ca7,-0x8ec(%rbp)
    c023:	5c 21 d6 
    c026:	c6 85 cb f6 ff ff 78 	movb   $0x78,-0x935(%rbp)
    c02d:	48 83 bd b8 f6 ff ff 	cmpq   $0x0,-0x948(%rbp)
    c034:	00 
    c035:	0f 84 ec 02 00 00    	je     c327 <func_39+0x1128>
    c03b:	c6 85 cc f6 ff ff fc 	movb   $0xfc,-0x934(%rbp)
    c042:	c7 85 ec f6 ff ff 00 	movl   $0x0,-0x914(%rbp)
    c049:	00 00 00 
    c04c:	eb 79                	jmp    c0c7 <func_39+0xec8>
    c04e:	c7 85 f0 f6 ff ff 00 	movl   $0x0,-0x910(%rbp)
    c055:	00 00 00 
    c058:	eb 5d                	jmp    c0b7 <func_39+0xeb8>
    c05a:	c7 85 f4 f6 ff ff 00 	movl   $0x0,-0x90c(%rbp)
    c061:	00 00 00 
    c064:	eb 41                	jmp    c0a7 <func_39+0xea8>
    c066:	8b 85 f4 f6 ff ff    	mov    -0x90c(%rbp),%eax
    c06c:	48 63 c8             	movslq %eax,%rcx
    c06f:	8b 85 ec f6 ff ff    	mov    -0x914(%rbp),%eax
    c075:	48 63 d0             	movslq %eax,%rdx
    c078:	8b 85 f0 f6 ff ff    	mov    -0x910(%rbp),%eax
    c07e:	48 98                	cltq   
    c080:	48 01 c2             	add    %rax,%rdx
    c083:	48 89 d0             	mov    %rdx,%rax
    c086:	48 c1 e0 03          	shl    $0x3,%rax
    c08a:	48 29 d0             	sub    %rdx,%rax
    c08d:	48 8d 14 08          	lea    (%rax,%rcx,1),%rdx
    c091:	48 8d 85 40 f8 ff ff 	lea    -0x7c0(%rbp),%rax
    c098:	48 89 84 d5 b0 f9 ff 	mov    %rax,-0x650(%rbp,%rdx,8)
    c09f:	ff 
    c0a0:	83 85 f4 f6 ff ff 01 	addl   $0x1,-0x90c(%rbp)
    c0a7:	83 bd f4 f6 ff ff 06 	cmpl   $0x6,-0x90c(%rbp)
    c0ae:	7e b6                	jle    c066 <func_39+0xe67>
    c0b0:	83 85 f0 f6 ff ff 01 	addl   $0x1,-0x910(%rbp)
    c0b7:	83 bd f0 f6 ff ff 00 	cmpl   $0x0,-0x910(%rbp)
    c0be:	7e 9a                	jle    c05a <func_39+0xe5b>
    c0c0:	83 85 ec f6 ff ff 01 	addl   $0x1,-0x914(%rbp)
    c0c7:	83 bd ec f6 ff ff 01 	cmpl   $0x1,-0x914(%rbp)
    c0ce:	0f 8e 7a ff ff ff    	jle    c04e <func_39+0xe4f>
    c0d4:	c7 05 f6 d0 00 00 00 	movl   $0x0,0xd0f6(%rip)        # 191d4 <g_621>
    c0db:	00 00 00 
    c0de:	e9 6b 01 00 00       	jmpq   c24e <func_39+0x104f>
    c0e3:	48 8d 05 d6 d0 00 00 	lea    0xd0d6(%rip),%rax        # 191c0 <g_542>
    c0ea:	48 89 85 c0 f7 ff ff 	mov    %rax,-0x840(%rbp)
    c0f1:	c7 85 20 fa ff ff 7b 	movl   $0xa880c47b,-0x5e0(%rbp)
    c0f8:	c4 80 a8 
    c0fb:	c7 85 24 fa ff ff 6b 	movl   $0x789506b,-0x5dc(%rbp)
    c102:	50 89 07 
    c105:	c7 85 28 fa ff ff c7 	movl   $0xc53f17c7,-0x5d8(%rbp)
    c10c:	17 3f c5 
    c10f:	c7 85 2c fa ff ff 7b 	movl   $0xa880c47b,-0x5d4(%rbp)
    c116:	c4 80 a8 
    c119:	c7 85 30 fa ff ff 1e 	movl   $0x770ac11e,-0x5d0(%rbp)
    c120:	c1 0a 77 
    c123:	c7 85 34 fa ff ff 92 	movl   $0xa3bbf692,-0x5cc(%rbp)
    c12a:	f6 bb a3 
    c12d:	c7 85 38 fa ff ff 6b 	movl   $0x789506b,-0x5c8(%rbp)
    c134:	50 89 07 
    c137:	c7 85 3c fa ff ff 6b 	movl   $0x789506b,-0x5c4(%rbp)
    c13e:	50 89 07 
    c141:	c7 85 40 fa ff ff ce 	movl   $0x18ff1ace,-0x5c0(%rbp)
    c148:	1a ff 18 
    c14b:	c7 85 44 fa ff ff 1e 	movl   $0x770ac11e,-0x5bc(%rbp)
    c152:	c1 0a 77 
    c155:	c7 85 48 fa ff ff cb 	movl   $0x5c1163cb,-0x5b8(%rbp)
    c15c:	63 11 5c 
    c15f:	c7 85 4c fa ff ff cb 	movl   $0x5c1163cb,-0x5b4(%rbp)
    c166:	63 11 5c 
    c169:	c7 85 50 fa ff ff 1e 	movl   $0x770ac11e,-0x5b0(%rbp)
    c170:	c1 0a 77 
    c173:	c7 85 54 fa ff ff ce 	movl   $0x18ff1ace,-0x5ac(%rbp)
    c17a:	1a ff 18 
    c17d:	c7 85 58 fa ff ff 00 	movl   $0x0,-0x5a8(%rbp)
    c184:	00 00 00 
    c187:	c7 85 5c fa ff ff d5 	movl   $0x8dac04d5,-0x5a4(%rbp)
    c18e:	04 ac 8d 
    c191:	c7 85 60 fa ff ff 7b 	movl   $0xa880c47b,-0x5a0(%rbp)
    c198:	c4 80 a8 
    c19b:	c7 85 64 fa ff ff 00 	movl   $0x0,-0x59c(%rbp)
    c1a2:	00 00 00 
    c1a5:	c7 85 68 fa ff ff 81 	movl   $0xa4f8ed81,-0x598(%rbp)
    c1ac:	ed f8 a4 
    c1af:	c7 85 6c fa ff ff 6b 	movl   $0x789506b,-0x594(%rbp)
    c1b6:	50 89 07 
    c1b9:	c7 85 70 fa ff ff ce 	movl   $0x18ff1ace,-0x590(%rbp)
    c1c0:	1a ff 18 
    c1c3:	c7 85 74 fa ff ff 81 	movl   $0xa4f8ed81,-0x58c(%rbp)
    c1ca:	ed f8 a4 
    c1cd:	c7 85 78 fa ff ff 1e 	movl   $0x770ac11e,-0x588(%rbp)
    c1d4:	c1 0a 77 
    c1d7:	c7 85 7c fa ff ff 81 	movl   $0xa4f8ed81,-0x584(%rbp)
    c1de:	ed f8 a4 
    c1e1:	c7 85 80 fa ff ff fc 	movl   $0xfffffffc,-0x580(%rbp)
    c1e8:	ff ff ff 
    c1eb:	c7 85 84 fa ff ff 6b 	movl   $0x789506b,-0x57c(%rbp)
    c1f2:	50 89 07 
    c1f5:	c7 85 88 fa ff ff 09 	movl   $0x9,-0x578(%rbp)
    c1fc:	00 00 00 
    c1ff:	c7 85 8c fa ff ff 6b 	movl   $0x789506b,-0x574(%rbp)
    c206:	50 89 07 
    c209:	c7 85 90 fa ff ff fc 	movl   $0xfffffffc,-0x570(%rbp)
    c210:	ff ff ff 
    c213:	c7 85 94 fa ff ff f8 	movl   $0xbbd948f8,-0x56c(%rbp)
    c21a:	48 d9 bb 
    c21d:	c7 85 98 fa ff ff 6b 	movl   $0x789506b,-0x568(%rbp)
    c224:	50 89 07 
    c227:	c7 85 9c fa ff ff d5 	movl   $0x8dac04d5,-0x564(%rbp)
    c22e:	04 ac 8d 
    c231:	83 bd e0 f6 ff ff 00 	cmpl   $0x0,-0x920(%rbp)
    c238:	74 05                	je     c23f <func_39+0x1040>
    c23a:	e9 b3 f4 ff ff       	jmpq   b6f2 <func_39+0x4f3>
    c23f:	8b 05 8f cf 00 00    	mov    0xcf8f(%rip),%eax        # 191d4 <g_621>
    c245:	83 c0 01             	add    $0x1,%eax
    c248:	89 05 86 cf 00 00    	mov    %eax,0xcf86(%rip)        # 191d4 <g_621>
    c24e:	8b 05 80 cf 00 00    	mov    0xcf80(%rip),%eax        # 191d4 <g_621>
    c254:	83 f8 07             	cmp    $0x7,%eax
    c257:	0f 8e 86 fe ff ff    	jle    c0e3 <func_39+0xee4>
    c25d:	66 c7 05 96 cf 00 00 	movw   $0x0,0xcf96(%rip)        # 191fc <g_889>
    c264:	00 00 
    c266:	e9 a2 00 00 00       	jmpq   c30d <func_39+0x110e>
    c26b:	c6 85 ca f6 ff ff 00 	movb   $0x0,-0x936(%rbp)
    c272:	eb 7b                	jmp    c2ef <func_39+0x10f0>
    c274:	48 c7 05 39 ce 00 00 	movq   $0x0,0xce39(%rip)        # 190b8 <g_180>
    c27b:	00 00 00 00 
    c27f:	eb 5a                	jmp    c2db <func_39+0x10dc>
    c281:	0f b7 05 74 cf 00 00 	movzwl 0xcf74(%rip),%eax        # 191fc <g_889>
    c288:	0f b7 c0             	movzwl %ax,%eax
    c28b:	0f b6 95 ca f6 ff ff 	movzbl -0x936(%rbp),%edx
    c292:	48 8b 0d 1f ce 00 00 	mov    0xce1f(%rip),%rcx        # 190b8 <g_180>
    c299:	48 63 f2             	movslq %edx,%rsi
    c29c:	48 63 d0             	movslq %eax,%rdx
    c29f:	48 89 d0             	mov    %rdx,%rax
    c2a2:	48 01 c0             	add    %rax,%rax
    c2a5:	48 01 d0             	add    %rdx,%rax
    c2a8:	48 01 f0             	add    %rsi,%rax
    c2ab:	48 c1 e0 03          	shl    $0x3,%rax
    c2af:	48 01 c8             	add    %rcx,%rax
    c2b2:	48 8d 14 c5 00 00 00 	lea    0x0(,%rax,8),%rdx
    c2b9:	00 
    c2ba:	48 8d 05 bf d1 00 00 	lea    0xd1bf(%rip),%rax        # 19480 <g_2148>
    c2c1:	48 c7 04 02 ff ff ff 	movq   $0xffffffffffffffff,(%rdx,%rax,1)
    c2c8:	ff 
    c2c9:	48 8b 05 e8 cd 00 00 	mov    0xcde8(%rip),%rax        # 190b8 <g_180>
    c2d0:	48 83 c0 01          	add    $0x1,%rax
    c2d4:	48 89 05 dd cd 00 00 	mov    %rax,0xcddd(%rip)        # 190b8 <g_180>
    c2db:	48 8b 05 d6 cd 00 00 	mov    0xcdd6(%rip),%rax        # 190b8 <g_180>
    c2e2:	48 83 f8 07          	cmp    $0x7,%rax
    c2e6:	76 99                	jbe    c281 <func_39+0x1082>
    c2e8:	80 85 ca f6 ff ff 01 	addb   $0x1,-0x936(%rbp)
    c2ef:	80 bd ca f6 ff ff 02 	cmpb   $0x2,-0x936(%rbp)
    c2f6:	0f 86 78 ff ff ff    	jbe    c274 <func_39+0x1075>
    c2fc:	0f b7 05 f9 ce 00 00 	movzwl 0xcef9(%rip),%eax        # 191fc <g_889>
    c303:	83 c0 01             	add    $0x1,%eax
    c306:	66 89 05 ef ce 00 00 	mov    %ax,0xceef(%rip)        # 191fc <g_889>
    c30d:	0f b7 05 e8 ce 00 00 	movzwl 0xcee8(%rip),%eax        # 191fc <g_889>
    c314:	66 83 f8 05          	cmp    $0x5,%ax
    c318:	0f 86 4d ff ff ff    	jbe    c26b <func_39+0x106c>
    c31e:	80 ad cb f6 ff ff 01 	subb   $0x1,-0x935(%rbp)
    c325:	eb 1c                	jmp    c343 <func_39+0x1144>
    c327:	48 c7 85 b8 f7 ff ff 	movq   $0xfffffffffffffffa,-0x848(%rbp)
    c32e:	fa ff ff ff 
    c332:	0f b7 85 d2 f6 ff ff 	movzwl -0x92e(%rbp),%eax
    c339:	83 c0 01             	add    $0x1,%eax
    c33c:	66 89 85 d2 f6 ff ff 	mov    %ax,-0x92e(%rbp)
    c343:	8b 85 e0 f6 ff ff    	mov    -0x920(%rbp),%eax
    c349:	48 63 d0             	movslq %eax,%rdx
    c34c:	48 8b 05 ed f4 00 00 	mov    0xf4ed(%rip),%rax        # 1b840 <g_2252>
    c353:	48 8b 08             	mov    (%rax),%rcx
    c356:	48 8d 85 60 f7 ff ff 	lea    -0x8a0(%rbp),%rax
    c35d:	48 39 c1             	cmp    %rax,%rcx
    c360:	0f 95 c0             	setne  %al
    c363:	0f b6 c0             	movzbl %al,%eax
    c366:	48 89 d6             	mov    %rdx,%rsi
    c369:	48 89 c7             	mov    %rax,%rdi
    c36c:	e8 37 b5 ff ff       	callq  78a8 <safe_sub_func_int64_t_s_s>
    c371:	48 83 f8 03          	cmp    $0x3,%rax
    c375:	0f 95 c0             	setne  %al
    c378:	0f b6 c0             	movzbl %al,%eax
    c37b:	89 c6                	mov    %eax,%esi
    c37d:	bf ff ff ff ff       	mov    $0xffffffff,%edi
    c382:	e8 6e b0 ff ff       	callq  73f5 <safe_mul_func_int16_t_s_s>
    c387:	48 8b 85 38 f7 ff ff 	mov    -0x8c8(%rbp),%rax
    c38e:	48 8b 00             	mov    (%rax),%rax
    c391:	c7 00 01 00 00 00    	movl   $0x1,(%rax)
    c397:	48 8b 85 38 f7 ff ff 	mov    -0x8c8(%rbp),%rax
    c39e:	48 8b 00             	mov    (%rax),%rax
    c3a1:	8b 00                	mov    (%rax),%eax
    c3a3:	3d cc 00 00 00       	cmp    $0xcc,%eax
    c3a8:	0f 9e c0             	setle  %al
    c3ab:	0f b6 c0             	movzbl %al,%eax
    c3ae:	21 85 f8 f6 ff ff    	and    %eax,-0x908(%rbp)
    c3b4:	48 8b 85 38 f9 ff ff 	mov    -0x6c8(%rbp),%rax
    c3bb:	48 8b 5d d8          	mov    -0x28(%rbp),%rbx
    c3bf:	64 48 33 1c 25 28 00 	xor    %fs:0x28,%rbx
    c3c6:	00 00 
    c3c8:	74 05                	je     c3cf <func_39+0x11d0>
    c3ca:	e8 a1 ac ff ff       	callq  7070 <__stack_chk_fail@plt>
    c3cf:	48 81 c4 30 09 00 00 	add    $0x930,%rsp
    c3d6:	5b                   	pop    %rbx
    c3d7:	41 5c                	pop    %r12
    c3d9:	41 5d                	pop    %r13
    c3db:	41 5e                	pop    %r14
    c3dd:	5d                   	pop    %rbp
    c3de:	c3                   	retq   

000000000000c3df <func_51>:
    c3df:	f3 0f 1e fa          	endbr64 
    c3e3:	55                   	push   %rbp
    c3e4:	48 89 e5             	mov    %rsp,%rbp
    c3e7:	41 56                	push   %r14
    c3e9:	41 55                	push   %r13
    c3eb:	41 54                	push   %r12
    c3ed:	53                   	push   %rbx
    c3ee:	48 81 ec 20 0d 00 00 	sub    $0xd20,%rsp
    c3f5:	48 89 bd c8 f2 ff ff 	mov    %rdi,-0xd38(%rbp)
    c3fc:	64 48 8b 04 25 28 00 	mov    %fs:0x28,%rax
    c403:	00 00 
    c405:	48 89 45 d8          	mov    %rax,-0x28(%rbp)
    c409:	31 c0                	xor    %eax,%eax
    c40b:	c7 85 e0 f2 ff ff 00 	movl   $0x0,-0xd20(%rbp)
    c412:	00 00 00 
    c415:	48 8d 05 4e cc 00 00 	lea    0xcc4e(%rip),%rax        # 1906a <g_92+0xa>
    c41c:	48 89 85 d0 f3 ff ff 	mov    %rax,-0xc30(%rbp)
    c423:	48 c7 85 88 f3 ff ff 	movq   $0x0,-0xc78(%rbp)
    c42a:	00 00 00 00 
    c42e:	48 8d 85 88 f3 ff ff 	lea    -0xc78(%rbp),%rax
    c435:	48 89 85 d8 f3 ff ff 	mov    %rax,-0xc28(%rbp)
    c43c:	c7 85 18 f3 ff ff 00 	movl   $0x0,-0xce8(%rbp)
    c443:	00 00 00 
    c446:	48 c7 85 40 f4 ff ff 	movq   $0x0,-0xbc0(%rbp)
    c44d:	00 00 00 00 
    c451:	48 c7 85 48 f4 ff ff 	movq   $0x0,-0xbb8(%rbp)
    c458:	00 00 00 00 
    c45c:	48 c7 85 50 f4 ff ff 	movq   $0x0,-0xbb0(%rbp)
    c463:	00 00 00 00 
    c467:	48 c7 85 58 f4 ff ff 	movq   $0x0,-0xba8(%rbp)
    c46e:	00 00 00 00 
    c472:	c7 85 e4 f2 ff ff d1 	movl   $0xdef9eed1,-0xd1c(%rbp)
    c479:	ee f9 de 
    c47c:	48 8d 85 30 fa ff ff 	lea    -0x5d0(%rbp),%rax
    c483:	48 8d 15 b6 dc 00 00 	lea    0xdcb6(%rip),%rdx        # 1a140 <g_2946+0x750>
    c48a:	b9 b4 00 00 00       	mov    $0xb4,%ecx
    c48f:	48 89 c7             	mov    %rax,%rdi
    c492:	48 89 d6             	mov    %rdx,%rsi
    c495:	f3 48 a5             	rep movsq %ds:(%rsi),%es:(%rdi)
    c498:	48 8d 85 e0 f2 ff ff 	lea    -0xd20(%rbp),%rax
    c49f:	48 89 85 90 f3 ff ff 	mov    %rax,-0xc70(%rbp)
    c4a6:	48 8d 85 90 f3 ff ff 	lea    -0xc70(%rbp),%rax
    c4ad:	48 89 85 98 f3 ff ff 	mov    %rax,-0xc68(%rbp)
    c4b4:	48 8d 85 98 f3 ff ff 	lea    -0xc68(%rbp),%rax
    c4bb:	48 89 85 a0 f3 ff ff 	mov    %rax,-0xc60(%rbp)
    c4c2:	48 8d 85 a0 f3 ff ff 	lea    -0xc60(%rbp),%rax
    c4c9:	48 89 85 c0 f4 ff ff 	mov    %rax,-0xb40(%rbp)
    c4d0:	48 8d 85 a0 f3 ff ff 	lea    -0xc60(%rbp),%rax
    c4d7:	48 89 85 c8 f4 ff ff 	mov    %rax,-0xb38(%rbp)
    c4de:	48 8d 85 a0 f3 ff ff 	lea    -0xc60(%rbp),%rax
    c4e5:	48 89 85 d0 f4 ff ff 	mov    %rax,-0xb30(%rbp)
    c4ec:	48 8d 85 a0 f3 ff ff 	lea    -0xc60(%rbp),%rax
    c4f3:	48 89 85 d8 f4 ff ff 	mov    %rax,-0xb28(%rbp)
    c4fa:	48 8d 85 a0 f3 ff ff 	lea    -0xc60(%rbp),%rax
    c501:	48 89 85 e0 f4 ff ff 	mov    %rax,-0xb20(%rbp)
    c508:	48 8d 85 a0 f3 ff ff 	lea    -0xc60(%rbp),%rax
    c50f:	48 89 85 e8 f4 ff ff 	mov    %rax,-0xb18(%rbp)
    c516:	48 8d 85 a0 f3 ff ff 	lea    -0xc60(%rbp),%rax
    c51d:	48 89 85 f0 f4 ff ff 	mov    %rax,-0xb10(%rbp)
    c524:	48 8d 85 a0 f3 ff ff 	lea    -0xc60(%rbp),%rax
    c52b:	48 89 85 f8 f4 ff ff 	mov    %rax,-0xb08(%rbp)
    c532:	48 8d 85 a0 f3 ff ff 	lea    -0xc60(%rbp),%rax
    c539:	48 89 85 00 f5 ff ff 	mov    %rax,-0xb00(%rbp)
    c540:	48 8d 85 a0 f3 ff ff 	lea    -0xc60(%rbp),%rax
    c547:	48 89 85 08 f5 ff ff 	mov    %rax,-0xaf8(%rbp)
    c54e:	48 8d 85 a0 f3 ff ff 	lea    -0xc60(%rbp),%rax
    c555:	48 89 85 10 f5 ff ff 	mov    %rax,-0xaf0(%rbp)
    c55c:	48 8d 85 a0 f3 ff ff 	lea    -0xc60(%rbp),%rax
    c563:	48 89 85 18 f5 ff ff 	mov    %rax,-0xae8(%rbp)
    c56a:	48 8d 85 a0 f3 ff ff 	lea    -0xc60(%rbp),%rax
    c571:	48 89 85 20 f5 ff ff 	mov    %rax,-0xae0(%rbp)
    c578:	48 8d 85 a0 f3 ff ff 	lea    -0xc60(%rbp),%rax
    c57f:	48 89 85 28 f5 ff ff 	mov    %rax,-0xad8(%rbp)
    c586:	48 8d 85 a0 f3 ff ff 	lea    -0xc60(%rbp),%rax
    c58d:	48 89 85 30 f5 ff ff 	mov    %rax,-0xad0(%rbp)
    c594:	48 8d 85 a0 f3 ff ff 	lea    -0xc60(%rbp),%rax
    c59b:	48 89 85 38 f5 ff ff 	mov    %rax,-0xac8(%rbp)
    c5a2:	48 8d 85 a0 f3 ff ff 	lea    -0xc60(%rbp),%rax
    c5a9:	48 89 85 40 f5 ff ff 	mov    %rax,-0xac0(%rbp)
    c5b0:	48 8d 85 a0 f3 ff ff 	lea    -0xc60(%rbp),%rax
    c5b7:	48 89 85 48 f5 ff ff 	mov    %rax,-0xab8(%rbp)
    c5be:	48 8d 85 a0 f3 ff ff 	lea    -0xc60(%rbp),%rax
    c5c5:	48 89 85 50 f5 ff ff 	mov    %rax,-0xab0(%rbp)
    c5cc:	48 8d 85 a0 f3 ff ff 	lea    -0xc60(%rbp),%rax
    c5d3:	48 89 85 58 f5 ff ff 	mov    %rax,-0xaa8(%rbp)
    c5da:	c7 85 e8 f2 ff ff 03 	movl   $0x3,-0xd18(%rbp)
    c5e1:	00 00 00 
    c5e4:	48 c7 85 e0 f3 ff ff 	movq   $0x0,-0xc20(%rbp)
    c5eb:	00 00 00 00 
    c5ef:	c6 85 d4 f2 ff ff 01 	movb   $0x1,-0xd2c(%rbp)
    c5f6:	c6 85 d5 f2 ff ff b0 	movb   $0xb0,-0xd2b(%rbp)
    c5fd:	c6 85 d6 f2 ff ff ff 	movb   $0xff,-0xd2a(%rbp)
    c604:	48 8d 05 75 e8 00 00 	lea    0xe875(%rip),%rax        # 1ae80 <g_263>
    c60b:	48 89 85 a8 f3 ff ff 	mov    %rax,-0xc58(%rbp)
    c612:	48 8d 85 a8 f3 ff ff 	lea    -0xc58(%rbp),%rax
    c619:	48 89 85 e8 f3 ff ff 	mov    %rax,-0xc18(%rbp)
    c620:	48 8d 05 ad ca 00 00 	lea    0xcaad(%rip),%rax        # 190d4 <g_218>
    c627:	48 89 85 f0 f3 ff ff 	mov    %rax,-0xc10(%rbp)
    c62e:	8b 85 e0 f2 ff ff    	mov    -0xd20(%rbp),%eax
    c634:	41 89 c6             	mov    %eax,%r14d
    c637:	8b 85 e0 f2 ff ff    	mov    -0xd20(%rbp),%eax
    c63d:	41 89 c4             	mov    %eax,%r12d
    c640:	8b 05 22 ce 00 00    	mov    0xce22(%rip),%eax        # 19468 <g_2136+0x8>
    c646:	8b 85 e0 f2 ff ff    	mov    -0xd20(%rbp),%eax
    c64c:	0f b6 d8             	movzbl %al,%ebx
    c64f:	8b 85 e0 f2 ff ff    	mov    -0xd20(%rbp),%eax
    c655:	41 89 c5             	mov    %eax,%r13d
    c658:	8b 05 d6 cd 00 00    	mov    0xcdd6(%rip),%eax        # 19434 <g_1689+0x14>
    c65e:	48 8b 95 88 f3 ff ff 	mov    -0xc78(%rbp),%rdx
    c665:	48 8b 85 d8 f3 ff ff 	mov    -0xc28(%rbp),%rax
    c66c:	48 89 10             	mov    %rdx,(%rax)
    c66f:	48 8b 85 d8 f3 ff ff 	mov    -0xc28(%rbp),%rax
    c676:	48 8b 00             	mov    (%rax),%rax
    c679:	48 8d 15 ba fe 00 00 	lea    0xfeba(%rip),%rdx        # 1c53a <g_1814+0xa>
    c680:	48 39 d0             	cmp    %rdx,%rax
    c683:	75 0a                	jne    c68f <func_51+0x2b0>
    c685:	8b 85 e0 f2 ff ff    	mov    -0xd20(%rbp),%eax
    c68b:	85 c0                	test   %eax,%eax
    c68d:	74 07                	je     c696 <func_51+0x2b7>
    c68f:	b8 01 00 00 00       	mov    $0x1,%eax
    c694:	eb 05                	jmp    c69b <func_51+0x2bc>
    c696:	b8 00 00 00 00       	mov    $0x0,%eax
    c69b:	89 85 18 f3 ff ff    	mov    %eax,-0xce8(%rbp)
    c6a1:	8b 85 18 f3 ff ff    	mov    -0xce8(%rbp),%eax
    c6a7:	89 c7                	mov    %eax,%edi
    c6a9:	e8 e8 ae ff ff       	callq  7596 <safe_unary_minus_func_int32_t_s>
    c6ae:	89 c2                	mov    %eax,%edx
    c6b0:	8b 85 e0 f2 ff ff    	mov    -0xd20(%rbp),%eax
    c6b6:	39 c2                	cmp    %eax,%edx
    c6b8:	0f 95 c0             	setne  %al
    c6bb:	0f b6 d0             	movzbl %al,%edx
    c6be:	8b 85 e0 f2 ff ff    	mov    -0xd20(%rbp),%eax
    c6c4:	39 c2                	cmp    %eax,%edx
    c6c6:	0f 92 c0             	setb   %al
    c6c9:	0f b6 c0             	movzbl %al,%eax
    c6cc:	44 89 ee             	mov    %r13d,%esi
    c6cf:	89 c7                	mov    %eax,%edi
    c6d1:	e8 cb ab ff ff       	callq  72a1 <safe_lshift_func_int8_t_s_s>
    c6d6:	84 c0                	test   %al,%al
    c6d8:	75 09                	jne    c6e3 <func_51+0x304>
    c6da:	83 bd 18 f3 ff ff 00 	cmpl   $0x0,-0xce8(%rbp)
    c6e1:	74 10                	je     c6f3 <func_51+0x314>
    c6e3:	83 bd 18 f3 ff ff 00 	cmpl   $0x0,-0xce8(%rbp)
    c6ea:	74 07                	je     c6f3 <func_51+0x314>
    c6ec:	b8 01 00 00 00       	mov    $0x1,%eax
    c6f1:	eb 05                	jmp    c6f8 <func_51+0x319>
    c6f3:	b8 00 00 00 00       	mov    $0x0,%eax
    c6f8:	83 f8 01             	cmp    $0x1,%eax
    c6fb:	0f 9f c0             	setg   %al
    c6fe:	0f b6 c0             	movzbl %al,%eax
    c701:	89 de                	mov    %ebx,%esi
    c703:	89 c7                	mov    %eax,%edi
    c705:	e8 a4 b4 ff ff       	callq  7bae <safe_mod_func_uint8_t_u_u>
    c70a:	0f b6 c0             	movzbl %al,%eax
    c70d:	89 85 e4 f2 ff ff    	mov    %eax,-0xd1c(%rbp)
    c713:	48 8b 85 d0 f3 ff ff 	mov    -0xc30(%rbp),%rax
    c71a:	0f b6 00             	movzbl (%rax),%eax
    c71d:	8d 50 01             	lea    0x1(%rax),%edx
    c720:	48 8b 85 d0 f3 ff ff 	mov    -0xc30(%rbp),%rax
    c727:	88 10                	mov    %dl,(%rax)
    c729:	48 8b 85 d0 f3 ff ff 	mov    -0xc30(%rbp),%rax
    c730:	0f b6 00             	movzbl (%rax),%eax
    c733:	0f b6 c0             	movzbl %al,%eax
    c736:	4c 89 e6             	mov    %r12,%rsi
    c739:	48 89 c7             	mov    %rax,%rdi
    c73c:	e8 00 b1 ff ff       	callq  7841 <safe_add_func_int64_t_s_s>
    c741:	4c 09 f0             	or     %r14,%rax
    c744:	8b 95 e0 f2 ff ff    	mov    -0xd20(%rbp),%edx
    c74a:	89 d2                	mov    %edx,%edx
    c74c:	48 39 d0             	cmp    %rdx,%rax
    c74f:	0f 95 c0             	setne  %al
    c752:	0f b6 c0             	movzbl %al,%eax
    c755:	48 89 05 74 ce 00 00 	mov    %rax,0xce74(%rip)        # 195d0 <g_2148+0x150>
    c75c:	c7 85 e4 f2 ff ff 08 	movl   $0x8,-0xd1c(%rbp)
    c763:	00 00 00 
    c766:	e9 17 0d 00 00       	jmpq   d482 <func_51+0x10a3>
    c76b:	66 c7 85 da f2 ff ff 	movw   $0xffff,-0xd26(%rbp)
    c772:	ff ff 
    c774:	48 c7 85 b0 f3 ff ff 	movq   $0x0,-0xc50(%rbp)
    c77b:	00 00 00 00 
    c77f:	c7 85 ec f2 ff ff 01 	movl   $0x1,-0xd14(%rbp)
    c786:	00 00 00 
    c789:	c7 85 1c f3 ff ff 05 	movl   $0x5,-0xce4(%rbp)
    c790:	00 00 00 
    c793:	48 8d 05 26 ea 00 00 	lea    0xea26(%rip),%rax        # 1b1c0 <g_391>
    c79a:	48 89 85 f8 f3 ff ff 	mov    %rax,-0xc08(%rbp)
    c7a1:	c7 85 20 f3 ff ff 49 	movl   $0xff7d3549,-0xce0(%rbp)
    c7a8:	35 7d ff 
    c7ab:	c7 85 24 f3 ff ff 91 	movl   $0xfd0d3e91,-0xcdc(%rbp)
    c7b2:	3e 0d fd 
    c7b5:	c7 85 28 f3 ff ff 03 	movl   $0x3,-0xcd8(%rbp)
    c7bc:	00 00 00 
    c7bf:	c7 85 60 f4 ff ff 00 	movl   $0x0,-0xba0(%rbp)
    c7c6:	00 00 00 
    c7c9:	c7 85 64 f4 ff ff ff 	movl   $0xffffffff,-0xb9c(%rbp)
    c7d0:	ff ff ff 
    c7d3:	c7 85 68 f4 ff ff 00 	movl   $0x0,-0xb98(%rbp)
    c7da:	00 00 00 
    c7dd:	c7 85 6c f4 ff ff 00 	movl   $0x0,-0xb94(%rbp)
    c7e4:	00 00 00 
    c7e7:	c7 85 70 f4 ff ff ff 	movl   $0xffffffff,-0xb90(%rbp)
    c7ee:	ff ff ff 
    c7f1:	c7 85 74 f4 ff ff 00 	movl   $0x0,-0xb8c(%rbp)
    c7f8:	00 00 00 
    c7fb:	c7 85 78 f4 ff ff 00 	movl   $0x0,-0xb88(%rbp)
    c802:	00 00 00 
    c805:	c7 85 7c f4 ff ff ff 	movl   $0xffffffff,-0xb84(%rbp)
    c80c:	ff ff ff 
    c80f:	48 8d 05 8a e6 00 00 	lea    0xe68a(%rip),%rax        # 1aea0 <g_267>
    c816:	48 89 85 b8 f3 ff ff 	mov    %rax,-0xc48(%rbp)
    c81d:	48 8d 85 b8 f3 ff ff 	lea    -0xc48(%rbp),%rax
    c824:	48 89 85 00 f4 ff ff 	mov    %rax,-0xc00(%rbp)
    c82b:	c7 85 2c f3 ff ff 01 	movl   $0x1,-0xcd4(%rbp)
    c832:	00 00 00 
    c835:	c7 05 81 c9 00 00 08 	movl   $0x8,0xc981(%rip)        # 191c0 <g_542>
    c83c:	00 00 00 
    c83f:	e9 15 0c 00 00       	jmpq   d459 <func_51+0x107a>
    c844:	48 c7 85 08 f4 ff ff 	movq   $0x0,-0xbf8(%rbp)
    c84b:	00 00 00 00 
    c84f:	c7 85 f0 f2 ff ff 08 	movl   $0x8,-0xd10(%rbp)
    c856:	00 00 00 
    c859:	48 8d 85 60 f6 ff ff 	lea    -0x9a0(%rbp),%rax
    c860:	48 8d 15 39 8c 00 00 	lea    0x8c39(%rip),%rdx        # 154a0 <g_2798+0x42c>
    c867:	b9 79 00 00 00       	mov    $0x79,%ecx
    c86c:	48 89 c7             	mov    %rax,%rdi
    c86f:	48 89 d6             	mov    %rdx,%rsi
    c872:	f3 48 a5             	rep movsq %ds:(%rsi),%es:(%rdi)
    c875:	48 89 f2             	mov    %rsi,%rdx
    c878:	48 89 f8             	mov    %rdi,%rax
    c87b:	8b 0a                	mov    (%rdx),%ecx
    c87d:	89 08                	mov    %ecx,(%rax)
    c87f:	48 8d 40 04          	lea    0x4(%rax),%rax
    c883:	48 8d 52 04          	lea    0x4(%rdx),%rdx
    c887:	c7 85 30 f3 ff ff 3f 	movl   $0x2ccc983f,-0xcd0(%rbp)
    c88e:	98 cc 2c 
    c891:	c7 85 34 f3 ff ff c4 	movl   $0x4a1c6dc4,-0xccc(%rbp)
    c898:	6d 1c 4a 
    c89b:	8b 85 e4 f2 ff ff    	mov    -0xd1c(%rbp),%eax
    c8a1:	48 98                	cltq   
    c8a3:	48 8d 14 85 00 00 00 	lea    0x0(,%rax,4),%rdx
    c8aa:	00 
    c8ab:	48 8d 05 ce c7 00 00 	lea    0xc7ce(%rip),%rax        # 19080 <g_109>
    c8b2:	8b 04 02             	mov    (%rdx,%rax,1),%eax
    c8b5:	85 c0                	test   %eax,%eax
    c8b7:	74 27                	je     c8e0 <func_51+0x501>
    c8b9:	8b 85 e4 f2 ff ff    	mov    -0xd1c(%rbp),%eax
    c8bf:	48 98                	cltq   
    c8c1:	48 8d 14 85 00 00 00 	lea    0x0(,%rax,4),%rdx
    c8c8:	00 
    c8c9:	48 8d 05 b0 c7 00 00 	lea    0xc7b0(%rip),%rax        # 19080 <g_109>
    c8d0:	8b 04 02             	mov    (%rdx,%rax,1),%eax
    c8d3:	85 c0                	test   %eax,%eax
    c8d5:	0f 84 15 03 00 00    	je     cbf0 <func_51+0x811>
    c8db:	e9 87 0b 00 00       	jmpq   d467 <func_51+0x1088>
    c8e0:	c7 85 f4 f2 ff ff ff 	movl   $0xffffffff,-0xd0c(%rbp)
    c8e7:	ff ff ff 
    c8ea:	48 8d 05 57 fb 00 00 	lea    0xfb57(%rip),%rax        # 1c448 <g_12>
    c8f1:	48 89 85 c8 f3 ff ff 	mov    %rax,-0xc38(%rbp)
    c8f8:	c7 85 f8 f2 ff ff 00 	movl   $0x0,-0xd08(%rbp)
    c8ff:	00 00 00 
    c902:	eb 4a                	jmp    c94e <func_51+0x56f>
    c904:	c7 85 fc f2 ff ff 00 	movl   $0x0,-0xd04(%rbp)
    c90b:	00 00 00 
    c90e:	eb 2e                	jmp    c93e <func_51+0x55f>
    c910:	8b 85 fc f2 ff ff    	mov    -0xd04(%rbp),%eax
    c916:	48 98                	cltq   
    c918:	8b 95 f8 f2 ff ff    	mov    -0xd08(%rbp),%edx
    c91e:	48 63 d2             	movslq %edx,%rdx
    c921:	48 c1 e2 03          	shl    $0x3,%rdx
    c925:	48 01 c2             	add    %rax,%rdx
    c928:	48 8d 85 c8 f3 ff ff 	lea    -0xc38(%rbp),%rax
    c92f:	48 89 84 d5 60 f5 ff 	mov    %rax,-0xaa0(%rbp,%rdx,8)
    c936:	ff 
    c937:	83 85 fc f2 ff ff 01 	addl   $0x1,-0xd04(%rbp)
    c93e:	83 bd fc f2 ff ff 07 	cmpl   $0x7,-0xd04(%rbp)
    c945:	7e c9                	jle    c910 <func_51+0x531>
    c947:	83 85 f8 f2 ff ff 01 	addl   $0x1,-0xd08(%rbp)
    c94e:	83 bd f8 f2 ff ff 03 	cmpl   $0x3,-0xd08(%rbp)
    c955:	7e ad                	jle    c904 <func_51+0x525>
    c957:	c7 05 73 c7 00 00 00 	movl   $0x0,0xc773(%rip)        # 190d4 <g_218>
    c95e:	00 00 00 
    c961:	90                   	nop
    c962:	8b 05 6c c7 00 00    	mov    0xc76c(%rip),%eax        # 190d4 <g_218>
    c968:	83 f8 08             	cmp    $0x8,%eax
    c96b:	0f 87 26 02 00 00    	ja     cb97 <func_51+0x7b8>
    c971:	66 c7 85 dc f2 ff ff 	movw   $0x8907,-0xd24(%rbp)
    c978:	07 89 
    c97a:	c7 85 38 f3 ff ff 04 	movl   $0x4,-0xcc8(%rbp)
    c981:	00 00 00 
    c984:	0f bf 85 dc f2 ff ff 	movswl -0xd24(%rbp),%eax
    c98b:	89 85 38 f3 ff ff    	mov    %eax,-0xcc8(%rbp)
    c991:	c7 05 35 c7 00 00 00 	movl   $0x0,0xc735(%rip)        # 190d0 <g_214>
    c998:	00 00 00 
    c99b:	e9 d9 01 00 00       	jmpq   cb79 <func_51+0x79a>
    c9a0:	48 8d 85 c0 f4 ff ff 	lea    -0xb40(%rbp),%rax
    c9a7:	48 05 90 00 00 00    	add    $0x90,%rax
    c9ad:	48 89 85 10 f4 ff ff 	mov    %rax,-0xbf0(%rbp)
    c9b4:	c7 85 3c f3 ff ff 5f 	movl   $0xa5e2435f,-0xcc4(%rbp)
    c9bb:	43 e2 a5 
    c9be:	8b 85 f4 f2 ff ff    	mov    -0xd0c(%rbp),%eax
    c9c4:	0f be d8             	movsbl %al,%ebx
    c9c7:	48 8b 95 50 f5 ff ff 	mov    -0xab0(%rbp),%rdx
    c9ce:	48 8b 85 10 f4 ff ff 	mov    -0xbf0(%rbp),%rax
    c9d5:	48 89 10             	mov    %rdx,(%rax)
    c9d8:	48 8b 85 10 f4 ff ff 	mov    -0xbf0(%rbp),%rax
    c9df:	48 8b 10             	mov    (%rax),%rdx
    c9e2:	48 8b 05 67 fb 00 00 	mov    0xfb67(%rip),%rax        # 1c550 <g_2158>
    c9e9:	48 89 05 60 fb 00 00 	mov    %rax,0xfb60(%rip)        # 1c550 <g_2158>
    c9f0:	48 8b 05 59 fb 00 00 	mov    0xfb59(%rip),%rax        # 1c550 <g_2158>
    c9f7:	48 39 c2             	cmp    %rax,%rdx
    c9fa:	0f 95 c0             	setne  %al
    c9fd:	41 89 c5             	mov    %eax,%r13d
    ca00:	83 bd f4 f2 ff ff 00 	cmpl   $0x0,-0xd0c(%rbp)
    ca07:	0f 94 c0             	sete   %al
    ca0a:	44 0f b6 e0          	movzbl %al,%r12d
    ca0e:	8b 85 3c f3 ff ff    	mov    -0xcc4(%rbp),%eax
    ca14:	98                   	cwtl   
    ca15:	89 c6                	mov    %eax,%esi
    ca17:	bf fb ff ff ff       	mov    $0xfffffffb,%edi
    ca1c:	e8 f5 a9 ff ff       	callq  7416 <safe_mod_func_int16_t_s_s>
    ca21:	0f b6 c0             	movzbl %al,%eax
    ca24:	44 89 e6             	mov    %r12d,%esi
    ca27:	89 c7                	mov    %eax,%edi
    ca29:	e8 65 b1 ff ff       	callq  7b93 <safe_mul_func_uint8_t_u_u>
    ca2e:	48 83 bd 08 f4 ff ff 	cmpq   $0x0,-0xbf8(%rbp)
    ca35:	00 
    ca36:	0f 95 c0             	setne  %al
    ca39:	0f b6 c0             	movzbl %al,%eax
    ca3c:	be 3b 43 e3 98       	mov    $0x98e3433b,%esi
    ca41:	89 c7                	mov    %eax,%edi
    ca43:	e8 b5 b4 ff ff       	callq  7efd <safe_mod_func_uint32_t_u_u>
    ca48:	85 c0                	test   %eax,%eax
    ca4a:	75 09                	jne    ca55 <func_51+0x676>
    ca4c:	83 bd 3c f3 ff ff 00 	cmpl   $0x0,-0xcc4(%rbp)
    ca53:	74 07                	je     ca5c <func_51+0x67d>
    ca55:	b8 01 00 00 00       	mov    $0x1,%eax
    ca5a:	eb 05                	jmp    ca61 <func_51+0x682>
    ca5c:	b8 00 00 00 00       	mov    $0x0,%eax
    ca61:	85 c0                	test   %eax,%eax
    ca63:	0f 94 c0             	sete   %al
    ca66:	0f b6 c0             	movzbl %al,%eax
    ca69:	8b 95 38 f3 ff ff    	mov    -0xcc8(%rbp),%edx
    ca6f:	21 d0                	and    %edx,%eax
    ca71:	0f bf d0             	movswl %ax,%edx
    ca74:	8b 85 3c f3 ff ff    	mov    -0xcc4(%rbp),%eax
    ca7a:	98                   	cwtl   
    ca7b:	89 d6                	mov    %edx,%esi
    ca7d:	89 c7                	mov    %eax,%edi
    ca7f:	e8 71 a9 ff ff       	callq  73f5 <safe_mul_func_int16_t_s_s>
    ca84:	98                   	cwtl   
    ca85:	33 85 38 f3 ff ff    	xor    -0xcc8(%rbp),%eax
    ca8b:	89 85 3c f3 ff ff    	mov    %eax,-0xcc4(%rbp)
    ca91:	8b 85 3c f3 ff ff    	mov    -0xcc4(%rbp),%eax
    ca97:	44 89 ea             	mov    %r13d,%edx
    ca9a:	21 c2                	and    %eax,%edx
    ca9c:	0f b7 85 dc f2 ff ff 	movzwl -0xd24(%rbp),%eax
    caa3:	09 d0                	or     %edx,%eax
    caa5:	0f be c0             	movsbl %al,%eax
    caa8:	89 de                	mov    %ebx,%esi
    caaa:	89 c7                	mov    %eax,%edi
    caac:	e8 41 a7 ff ff       	callq  71f2 <safe_sub_func_int8_t_s_s>
    cab1:	48 8b 05 60 e7 00 00 	mov    0xe760(%rip),%rax        # 1b218 <g_785>
    cab8:	0f b7 00             	movzwl (%rax),%eax
    cabb:	0f bf d0             	movswl %ax,%edx
    cabe:	8b 85 e4 f2 ff ff    	mov    -0xd1c(%rbp),%eax
    cac4:	48 98                	cltq   
    cac6:	48 8d 0c 85 00 00 00 	lea    0x0(,%rax,4),%rcx
    cacd:	00 
    cace:	48 8d 05 ab c5 00 00 	lea    0xc5ab(%rip),%rax        # 19080 <g_109>
    cad5:	8b 04 01             	mov    (%rcx,%rax,1),%eax
    cad8:	31 d0                	xor    %edx,%eax
    cada:	89 85 f4 f2 ff ff    	mov    %eax,-0xd0c(%rbp)
    cae0:	0f b6 05 c9 c6 00 00 	movzbl 0xc6c9(%rip),%eax        # 191b0 <g_358>
    cae7:	0f b6 d0             	movzbl %al,%edx
    caea:	48 8b 85 e0 f5 ff ff 	mov    -0xa20(%rbp),%rax
    caf1:	48 85 c0             	test   %rax,%rax
    caf4:	0f 95 c0             	setne  %al
    caf7:	0f b6 c0             	movzbl %al,%eax
    cafa:	89 d6                	mov    %edx,%esi
    cafc:	89 c7                	mov    %eax,%edi
    cafe:	e8 d0 a8 ff ff       	callq  73d3 <safe_sub_func_int16_t_s_s>
    cb03:	48 0f bf c0          	movswq %ax,%rax
    cb07:	48 89 05 da f9 00 00 	mov    %rax,0xf9da(%rip)        # 1c4e8 <g_1180>
    cb0e:	48 8b 1d d3 f9 00 00 	mov    0xf9d3(%rip),%rbx        # 1c4e8 <g_1180>
    cb15:	8b 85 3c f3 ff ff    	mov    -0xcc4(%rbp),%eax
    cb1b:	f7 d0                	not    %eax
    cb1d:	89 c2                	mov    %eax,%edx
    cb1f:	48 8b 05 0a e9 00 00 	mov    0xe90a(%rip),%rax        # 1b430 <g_1926>
    cb26:	0f b6 00             	movzbl (%rax),%eax
    cb29:	89 c1                	mov    %eax,%ecx
    cb2b:	8b 85 3c f3 ff ff    	mov    -0xcc4(%rbp),%eax
    cb31:	09 c8                	or     %ecx,%eax
    cb33:	83 f0 f9             	xor    $0xfffffff9,%eax
    cb36:	0f b6 c0             	movzbl %al,%eax
    cb39:	89 d6                	mov    %edx,%esi
    cb3b:	89 c7                	mov    %eax,%edi
    cb3d:	e8 7c b1 ff ff       	callq  7cbe <safe_rshift_func_uint8_t_u_u>
    cb42:	0f b6 d0             	movzbl %al,%edx
    cb45:	89 d9                	mov    %ebx,%ecx
    cb47:	8b 85 f4 f2 ff ff    	mov    -0xd0c(%rbp),%eax
    cb4d:	09 c8                	or     %ecx,%eax
    cb4f:	89 85 f4 f2 ff ff    	mov    %eax,-0xd0c(%rbp)
    cb55:	83 bd f4 f2 ff ff 01 	cmpl   $0x1,-0xd0c(%rbp)
    cb5c:	0f 95 c0             	setne  %al
    cb5f:	0f b6 c0             	movzbl %al,%eax
    cb62:	31 d0                	xor    %edx,%eax
    cb64:	89 85 f0 f2 ff ff    	mov    %eax,-0xd10(%rbp)
    cb6a:	8b 05 60 c5 00 00    	mov    0xc560(%rip),%eax        # 190d0 <g_214>
    cb70:	83 c0 01             	add    $0x1,%eax
    cb73:	89 05 57 c5 00 00    	mov    %eax,0xc557(%rip)        # 190d0 <g_214>
    cb79:	8b 05 51 c5 00 00    	mov    0xc551(%rip),%eax        # 190d0 <g_214>
    cb7f:	83 f8 08             	cmp    $0x8,%eax
    cb82:	0f 8e 18 fe ff ff    	jle    c9a0 <func_51+0x5c1>
    cb88:	48 8b 05 19 e8 00 00 	mov    0xe819(%rip),%rax        # 1b3a8 <g_1386>
    cb8f:	48 8b 00             	mov    (%rax),%rax
    cb92:	e9 08 09 00 00       	jmpq   d49f <func_51+0x10c0>
    cb97:	0f b7 85 b0 f3 ff ff 	movzwl -0xc50(%rbp),%eax
    cb9e:	66 25 ff 0f          	and    $0xfff,%ax
    cba2:	66 85 c0             	test   %ax,%ax
    cba5:	74 28                	je     cbcf <func_51+0x7f0>
    cba7:	83 bd f0 f2 ff ff 00 	cmpl   $0x0,-0xd10(%rbp)
    cbae:	0f 94 c0             	sete   %al
    cbb1:	0f b6 c0             	movzbl %al,%eax
    cbb4:	39 85 f4 f2 ff ff    	cmp    %eax,-0xd0c(%rbp)
    cbba:	0f 95 c0             	setne  %al
    cbbd:	0f b6 c0             	movzbl %al,%eax
    cbc0:	39 85 f0 f2 ff ff    	cmp    %eax,-0xd10(%rbp)
    cbc6:	7d 07                	jge    cbcf <func_51+0x7f0>
    cbc8:	b8 01 00 00 00       	mov    $0x1,%eax
    cbcd:	eb 05                	jmp    cbd4 <func_51+0x7f5>
    cbcf:	b8 00 00 00 00       	mov    $0x0,%eax
    cbd4:	21 85 ec f2 ff ff    	and    %eax,-0xd14(%rbp)
    cbda:	0f b7 85 b0 f3 ff ff 	movzwl -0xc50(%rbp),%eax
    cbe1:	66 25 ff 0f          	and    $0xfff,%ax
    cbe5:	66 85 c0             	test   %ax,%ax
    cbe8:	74 06                	je     cbf0 <func_51+0x811>
    cbea:	90                   	nop
    cbeb:	e9 77 08 00 00       	jmpq   d467 <func_51+0x1088>
    cbf0:	bf 00 00 00 00       	mov    $0x0,%edi
    cbf5:	e8 1f b4 ff ff       	callq  8019 <safe_unary_minus_func_uint64_t_u>
    cbfa:	48 85 c0             	test   %rax,%rax
    cbfd:	0f 84 3e 07 00 00    	je     d341 <func_51+0xf62>
    cc03:	66 c7 85 d8 f2 ff ff 	movw   $0xfffc,-0xd28(%rbp)
    cc0a:	fc ff 
    cc0c:	c7 85 00 f3 ff ff 08 	movl   $0x8,-0xd00(%rbp)
    cc13:	00 00 00 
    cc16:	c7 85 48 f3 ff ff ff 	movl   $0xffffffff,-0xcb8(%rbp)
    cc1d:	ff ff ff 
    cc20:	c7 85 4c f3 ff ff 07 	movl   $0xedcde807,-0xcb4(%rbp)
    cc27:	e8 cd ed 
    cc2a:	c6 85 d7 f2 ff ff 46 	movb   $0x46,-0xd29(%rbp)
    cc31:	c7 85 04 f3 ff ff 00 	movl   $0x0,-0xcfc(%rbp)
    cc38:	00 00 00 
    cc3b:	eb 74                	jmp    ccb1 <func_51+0x8d2>
    cc3d:	c7 85 08 f3 ff ff 00 	movl   $0x0,-0xcf8(%rbp)
    cc44:	00 00 00 
    cc47:	eb 58                	jmp    cca1 <func_51+0x8c2>
    cc49:	c7 85 0c f3 ff ff 00 	movl   $0x0,-0xcf4(%rbp)
    cc50:	00 00 00 
    cc53:	eb 3c                	jmp    cc91 <func_51+0x8b2>
    cc55:	8b 85 0c f3 ff ff    	mov    -0xcf4(%rbp),%eax
    cc5b:	48 63 f0             	movslq %eax,%rsi
    cc5e:	8b 85 08 f3 ff ff    	mov    -0xcf8(%rbp),%eax
    cc64:	48 63 c8             	movslq %eax,%rcx
    cc67:	8b 85 04 f3 ff ff    	mov    -0xcfc(%rbp),%eax
    cc6d:	48 63 d0             	movslq %eax,%rdx
    cc70:	48 89 d0             	mov    %rdx,%rax
    cc73:	48 01 c0             	add    %rax,%rax
    cc76:	48 01 d0             	add    %rdx,%rax
    cc79:	48 01 f0             	add    %rsi,%rax
    cc7c:	48 01 c8             	add    %rcx,%rax
    cc7f:	c7 84 85 34 f4 ff ff 	movl   $0x567968ef,-0xbcc(%rbp,%rax,4)
    cc86:	ef 68 79 56 
    cc8a:	83 85 0c f3 ff ff 01 	addl   $0x1,-0xcf4(%rbp)
    cc91:	83 bd 0c f3 ff ff 00 	cmpl   $0x0,-0xcf4(%rbp)
    cc98:	7e bb                	jle    cc55 <func_51+0x876>
    cc9a:	83 85 08 f3 ff ff 01 	addl   $0x1,-0xcf8(%rbp)
    cca1:	83 bd 08 f3 ff ff 02 	cmpl   $0x2,-0xcf8(%rbp)
    cca8:	7e 9f                	jle    cc49 <func_51+0x86a>
    ccaa:	83 85 04 f3 ff ff 01 	addl   $0x1,-0xcfc(%rbp)
    ccb1:	83 bd 04 f3 ff ff 00 	cmpl   $0x0,-0xcfc(%rbp)
    ccb8:	7e 83                	jle    cc3d <func_51+0x85e>
    ccba:	66 c7 05 9d f7 00 00 	movw   $0x0,0xf79d(%rip)        # 1c460 <g_128>
    ccc1:	00 00 
    ccc3:	eb 21                	jmp    cce6 <func_51+0x907>
    ccc5:	83 ad e8 f2 ff ff 01 	subl   $0x1,-0xd18(%rbp)
    cccc:	83 bd ec f2 ff ff 00 	cmpl   $0x0,-0xd14(%rbp)
    ccd3:	75 20                	jne    ccf5 <func_51+0x916>
    ccd5:	0f b7 05 84 f7 00 00 	movzwl 0xf784(%rip),%eax        # 1c460 <g_128>
    ccdc:	83 c0 01             	add    $0x1,%eax
    ccdf:	66 89 05 7a f7 00 00 	mov    %ax,0xf77a(%rip)        # 1c460 <g_128>
    cce6:	0f b7 05 73 f7 00 00 	movzwl 0xf773(%rip),%eax        # 1c460 <g_128>
    cced:	66 83 f8 03          	cmp    $0x3,%ax
    ccf1:	76 d2                	jbe    ccc5 <func_51+0x8e6>
    ccf3:	eb 01                	jmp    ccf6 <func_51+0x917>
    ccf5:	90                   	nop
    ccf6:	c7 05 a4 c3 00 00 08 	movl   $0x8,0xc3a4(%rip)        # 190a4 <g_119>
    ccfd:	00 00 00 
    cd00:	e9 18 06 00 00       	jmpq   d31d <func_51+0xf3e>
    cd05:	66 c7 85 de f2 ff ff 	movw   $0x5,-0xd22(%rbp)
    cd0c:	05 00 
    cd0e:	c7 85 50 f3 ff ff 81 	movl   $0x78f82581,-0xcb0(%rbp)
    cd15:	25 f8 78 
    cd18:	48 8d 05 92 c4 00 00 	lea    0xc492(%rip),%rax        # 191b1 <g_361>
    cd1f:	48 89 85 18 f4 ff ff 	mov    %rax,-0xbe8(%rbp)
    cd26:	c7 85 54 f3 ff ff 03 	movl   $0x3,-0xcac(%rbp)
    cd2d:	00 00 00 
    cd30:	c7 85 58 f3 ff ff 74 	movl   $0xba179b74,-0xca8(%rbp)
    cd37:	9b 17 ba 
    cd3a:	c7 85 5c f3 ff ff ff 	movl   $0xffffffff,-0xca4(%rbp)
    cd41:	ff ff ff 
    cd44:	48 c7 85 60 f5 ff ff 	movq   $0x0,-0xaa0(%rbp)
    cd4b:	00 00 00 00 
    cd4f:	48 c7 85 68 f5 ff ff 	movq   $0x0,-0xa98(%rbp)
    cd56:	00 00 00 00 
    cd5a:	48 c7 85 70 f5 ff ff 	movq   $0x0,-0xa90(%rbp)
    cd61:	00 00 00 00 
    cd65:	48 8d 05 94 e1 00 00 	lea    0xe194(%rip),%rax        # 1af00 <g_368+0x20>
    cd6c:	48 89 85 78 f5 ff ff 	mov    %rax,-0xa88(%rbp)
    cd73:	48 8d 05 76 e1 00 00 	lea    0xe176(%rip),%rax        # 1aef0 <g_368+0x10>
    cd7a:	48 89 85 80 f5 ff ff 	mov    %rax,-0xa80(%rbp)
    cd81:	48 8d 05 78 e1 00 00 	lea    0xe178(%rip),%rax        # 1af00 <g_368+0x20>
    cd88:	48 89 85 88 f5 ff ff 	mov    %rax,-0xa78(%rbp)
    cd8f:	48 c7 85 90 f5 ff ff 	movq   $0x0,-0xa70(%rbp)
    cd96:	00 00 00 00 
    cd9a:	48 c7 85 98 f5 ff ff 	movq   $0x0,-0xa68(%rbp)
    cda1:	00 00 00 00 
    cda5:	48 c7 85 a0 f5 ff ff 	movq   $0x0,-0xa60(%rbp)
    cdac:	00 00 00 00 
    cdb0:	48 8d 05 49 e1 00 00 	lea    0xe149(%rip),%rax        # 1af00 <g_368+0x20>
    cdb7:	48 89 85 a8 f5 ff ff 	mov    %rax,-0xa58(%rbp)
    cdbe:	48 8d 05 2b e1 00 00 	lea    0xe12b(%rip),%rax        # 1aef0 <g_368+0x10>
    cdc5:	48 89 85 b0 f5 ff ff 	mov    %rax,-0xa50(%rbp)
    cdcc:	48 8d 05 2d e1 00 00 	lea    0xe12d(%rip),%rax        # 1af00 <g_368+0x20>
    cdd3:	48 89 85 b8 f5 ff ff 	mov    %rax,-0xa48(%rbp)
    cdda:	48 c7 85 c0 f5 ff ff 	movq   $0x0,-0xa40(%rbp)
    cde1:	00 00 00 00 
    cde5:	48 c7 85 c8 f5 ff ff 	movq   $0x0,-0xa38(%rbp)
    cdec:	00 00 00 00 
    cdf0:	48 c7 85 d0 f5 ff ff 	movq   $0x0,-0xa30(%rbp)
    cdf7:	00 00 00 00 
    cdfb:	48 8d 05 fe e0 00 00 	lea    0xe0fe(%rip),%rax        # 1af00 <g_368+0x20>
    ce02:	48 89 85 d8 f5 ff ff 	mov    %rax,-0xa28(%rbp)
    ce09:	48 8d 05 e0 e0 00 00 	lea    0xe0e0(%rip),%rax        # 1aef0 <g_368+0x10>
    ce10:	48 89 85 e0 f5 ff ff 	mov    %rax,-0xa20(%rbp)
    ce17:	48 8d 05 e2 e0 00 00 	lea    0xe0e2(%rip),%rax        # 1af00 <g_368+0x20>
    ce1e:	48 89 85 e8 f5 ff ff 	mov    %rax,-0xa18(%rbp)
    ce25:	48 c7 85 f0 f5 ff ff 	movq   $0x0,-0xa10(%rbp)
    ce2c:	00 00 00 00 
    ce30:	48 c7 85 f8 f5 ff ff 	movq   $0x0,-0xa08(%rbp)
    ce37:	00 00 00 00 
    ce3b:	48 c7 85 00 f6 ff ff 	movq   $0x0,-0xa00(%rbp)
    ce42:	00 00 00 00 
    ce46:	48 8d 05 b3 e0 00 00 	lea    0xe0b3(%rip),%rax        # 1af00 <g_368+0x20>
    ce4d:	48 89 85 08 f6 ff ff 	mov    %rax,-0x9f8(%rbp)
    ce54:	48 8d 05 95 e0 00 00 	lea    0xe095(%rip),%rax        # 1aef0 <g_368+0x10>
    ce5b:	48 89 85 10 f6 ff ff 	mov    %rax,-0x9f0(%rbp)
    ce62:	48 8d 05 97 e0 00 00 	lea    0xe097(%rip),%rax        # 1af00 <g_368+0x20>
    ce69:	48 89 85 18 f6 ff ff 	mov    %rax,-0x9e8(%rbp)
    ce70:	48 c7 85 20 f6 ff ff 	movq   $0x0,-0x9e0(%rbp)
    ce77:	00 00 00 00 
    ce7b:	48 c7 85 28 f6 ff ff 	movq   $0x0,-0x9d8(%rbp)
    ce82:	00 00 00 00 
    ce86:	48 c7 85 30 f6 ff ff 	movq   $0x0,-0x9d0(%rbp)
    ce8d:	00 00 00 00 
    ce91:	48 8d 85 60 f5 ff ff 	lea    -0xaa0(%rbp),%rax
    ce98:	48 83 c0 78          	add    $0x78,%rax
    ce9c:	48 89 85 c0 f3 ff ff 	mov    %rax,-0xc40(%rbp)
    cea3:	48 8d 85 c0 f3 ff ff 	lea    -0xc40(%rbp),%rax
    ceaa:	48 89 85 80 f4 ff ff 	mov    %rax,-0xb80(%rbp)
    ceb1:	48 8d 85 c0 f3 ff ff 	lea    -0xc40(%rbp),%rax
    ceb8:	48 89 85 88 f4 ff ff 	mov    %rax,-0xb78(%rbp)
    cebf:	48 8d 85 c0 f3 ff ff 	lea    -0xc40(%rbp),%rax
    cec6:	48 89 85 90 f4 ff ff 	mov    %rax,-0xb70(%rbp)
    cecd:	48 8d 85 c0 f3 ff ff 	lea    -0xc40(%rbp),%rax
    ced4:	48 89 85 98 f4 ff ff 	mov    %rax,-0xb68(%rbp)
    cedb:	48 8d 85 c0 f3 ff ff 	lea    -0xc40(%rbp),%rax
    cee2:	48 89 85 a0 f4 ff ff 	mov    %rax,-0xb60(%rbp)
    cee9:	48 8d 85 c0 f3 ff ff 	lea    -0xc40(%rbp),%rax
    cef0:	48 89 85 a8 f4 ff ff 	mov    %rax,-0xb58(%rbp)
    cef7:	48 8d 85 c0 f3 ff ff 	lea    -0xc40(%rbp),%rax
    cefe:	48 89 85 b0 f4 ff ff 	mov    %rax,-0xb50(%rbp)
    cf05:	48 8d 85 c0 f3 ff ff 	lea    -0xc40(%rbp),%rax
    cf0c:	48 89 85 b8 f4 ff ff 	mov    %rax,-0xb48(%rbp)
    cf13:	c6 85 2c f4 ff ff ea 	movb   $0xea,-0xbd4(%rbp)
    cf1a:	c6 85 2d f4 ff ff ea 	movb   $0xea,-0xbd3(%rbp)
    cf21:	c6 85 2e f4 ff ff 07 	movb   $0x7,-0xbd2(%rbp)
    cf28:	c6 85 2f f4 ff ff ea 	movb   $0xea,-0xbd1(%rbp)
    cf2f:	c6 85 30 f4 ff ff ea 	movb   $0xea,-0xbd0(%rbp)
    cf36:	c6 85 31 f4 ff ff 07 	movb   $0x7,-0xbcf(%rbp)
    cf3d:	c6 85 32 f4 ff ff ea 	movb   $0xea,-0xbce(%rbp)
    cf44:	c6 85 33 f4 ff ff ea 	movb   $0xea,-0xbcd(%rbp)
    cf4b:	c7 05 ff c4 00 00 08 	movl   $0x8,0xc4ff(%rip)        # 19454 <g_2019>
    cf52:	00 00 00 
    cf55:	e9 06 01 00 00       	jmpq   d060 <func_51+0xc81>
    cf5a:	48 c7 85 c8 f3 ff ff 	movq   $0x0,-0xc38(%rbp)
    cf61:	00 00 00 00 
    cf65:	c7 85 84 f3 ff ff 06 	movl   $0x6,-0xc7c(%rbp)
    cf6c:	00 00 00 
    cf6f:	48 8b 05 4a e5 00 00 	mov    0xe54a(%rip),%rax        # 1b4c0 <g_2048>
    cf76:	48 8b 95 e0 f3 ff ff 	mov    -0xc20(%rbp),%rdx
    cf7d:	48 89 10             	mov    %rdx,(%rax)
    cf80:	80 85 d4 f2 ff ff 01 	addb   $0x1,-0xd2c(%rbp)
    cf87:	c7 85 f0 f2 ff ff 01 	movl   $0x1,-0xd10(%rbp)
    cf8e:	00 00 00 
    cf91:	8b 85 f0 f2 ff ff    	mov    -0xd10(%rbp),%eax
    cf97:	66 31 85 d8 f2 ff ff 	xor    %ax,-0xd28(%rbp)
    cf9e:	83 bd f0 f2 ff ff 00 	cmpl   $0x0,-0xd10(%rbp)
    cfa5:	74 7f                	je     d026 <func_51+0xc47>
    cfa7:	c7 85 00 f3 ff ff 00 	movl   $0x0,-0xd00(%rbp)
    cfae:	00 00 00 
    cfb1:	48 8b 05 88 c4 00 00 	mov    0xc488(%rip),%rax        # 19440 <g_1704>
    cfb8:	48 83 c0 01          	add    $0x1,%rax
    cfbc:	48 89 05 7d c4 00 00 	mov    %rax,0xc47d(%rip)        # 19440 <g_1704>
    cfc3:	48 8b 05 56 e2 00 00 	mov    0xe256(%rip),%rax        # 1b220 <g_784>
    cfca:	48 8b 00             	mov    (%rax),%rax
    cfcd:	8b 95 f0 f2 ff ff    	mov    -0xd10(%rbp),%edx
    cfd3:	66 89 10             	mov    %dx,(%rax)
    cfd6:	0f b7 00             	movzwl (%rax),%eax
    cfd9:	66 3d 02 39          	cmp    $0x3902,%ax
    cfdd:	0f 9f c0             	setg   %al
    cfe0:	0f b6 d0             	movzbl %al,%edx
    cfe3:	48 8b 85 d0 f3 ff ff 	mov    -0xc30(%rbp),%rax
    cfea:	0f b6 00             	movzbl (%rax),%eax
    cfed:	89 c1                	mov    %eax,%ecx
    cfef:	89 d0                	mov    %edx,%eax
    cff1:	31 c8                	xor    %ecx,%eax
    cff3:	89 c2                	mov    %eax,%edx
    cff5:	48 8b 85 d0 f3 ff ff 	mov    -0xc30(%rbp),%rax
    cffc:	88 10                	mov    %dl,(%rax)
    cffe:	48 8b 85 d0 f3 ff ff 	mov    -0xc30(%rbp),%rax
    d005:	0f b6 00             	movzbl (%rax),%eax
    d008:	84 c0                	test   %al,%al
    d00a:	0f 95 c0             	setne  %al
    d00d:	0f b6 c0             	movzbl %al,%eax
    d010:	89 85 f0 f2 ff ff    	mov    %eax,-0xd10(%rbp)
    d016:	83 bd f0 f2 ff ff 00 	cmpl   $0x0,-0xd10(%rbp)
    d01d:	74 07                	je     d026 <func_51+0xc47>
    d01f:	b8 01 00 00 00       	mov    $0x1,%eax
    d024:	eb 05                	jmp    d02b <func_51+0xc4c>
    d026:	b8 00 00 00 00       	mov    $0x0,%eax
    d02b:	48 98                	cltq   
    d02d:	be 01 00 00 00       	mov    $0x1,%esi
    d032:	48 89 c7             	mov    %rax,%rdi
    d035:	e8 11 b0 ff ff       	callq  804b <safe_sub_func_uint64_t_u_u>
    d03a:	48 0f bf 95 de f2 ff 	movswq -0xd22(%rbp),%rdx
    d041:	ff 
    d042:	48 39 d0             	cmp    %rdx,%rax
    d045:	0f 96 c0             	setbe  %al
    d048:	0f b6 c0             	movzbl %al,%eax
    d04b:	89 85 44 f7 ff ff    	mov    %eax,-0x8bc(%rbp)
    d051:	8b 05 fd c3 00 00    	mov    0xc3fd(%rip),%eax        # 19454 <g_2019>
    d057:	83 e8 01             	sub    $0x1,%eax
    d05a:	89 05 f4 c3 00 00    	mov    %eax,0xc3f4(%rip)        # 19454 <g_2019>
    d060:	8b 05 ee c3 00 00    	mov    0xc3ee(%rip),%eax        # 19454 <g_2019>
    d066:	85 c0                	test   %eax,%eax
    d068:	0f 89 ec fe ff ff    	jns    cf5a <func_51+0xb7b>
    d06e:	48 8b 05 bb e1 00 00 	mov    0xe1bb(%rip),%rax        # 1b230 <g_808>
    d075:	8b 00                	mov    (%rax),%eax
    d077:	39 85 00 f3 ff ff    	cmp    %eax,-0xd00(%rbp)
    d07d:	0f 9c c0             	setl   %al
    d080:	0f b6 d8             	movzbl %al,%ebx
    d083:	8b 85 e4 f2 ff ff    	mov    -0xd1c(%rbp),%eax
    d089:	48 98                	cltq   
    d08b:	48 8d 14 85 00 00 00 	lea    0x0(,%rax,4),%rdx
    d092:	00 
    d093:	48 8d 05 e6 bf 00 00 	lea    0xbfe6(%rip),%rax        # 19080 <g_109>
    d09a:	8b 04 02             	mov    (%rdx,%rax,1),%eax
    d09d:	89 85 48 f3 ff ff    	mov    %eax,-0xcb8(%rbp)
    d0a3:	8b 85 48 f3 ff ff    	mov    -0xcb8(%rbp),%eax
    d0a9:	f7 d0                	not    %eax
    d0ab:	c1 e8 1f             	shr    $0x1f,%eax
    d0ae:	0f b6 c0             	movzbl %al,%eax
    d0b1:	be 01 00 00 00       	mov    $0x1,%esi
    d0b6:	48 89 c7             	mov    %rax,%rdi
    d0b9:	e8 f1 af ff ff       	callq  80af <safe_div_func_uint64_t_u_u>
    d0be:	48 39 c3             	cmp    %rax,%rbx
    d0c1:	48 8b 85 d0 f3 ff ff 	mov    -0xc30(%rbp),%rax
    d0c8:	0f b6 00             	movzbl (%rax),%eax
    d0cb:	8d 48 01             	lea    0x1(%rax),%ecx
    d0ce:	48 8b 95 d0 f3 ff ff 	mov    -0xc30(%rbp),%rdx
    d0d5:	88 0a                	mov    %cl,(%rdx)
    d0d7:	0f b6 d0             	movzbl %al,%edx
    d0da:	0f bf 85 d8 f2 ff ff 	movswl -0xd28(%rbp),%eax
    d0e1:	39 c2                	cmp    %eax,%edx
    d0e3:	0f 95 c0             	setne  %al
    d0e6:	0f b6 c0             	movzbl %al,%eax
    d0e9:	be c5 02 b7 06       	mov    $0x6b702c5,%esi
    d0ee:	89 c7                	mov    %eax,%edi
    d0f0:	e8 30 ae ff ff       	callq  7f25 <safe_div_func_uint32_t_u_u>
    d0f5:	89 c2                	mov    %eax,%edx
    d0f7:	48 8b 85 18 f4 ff ff 	mov    -0xbe8(%rbp),%rax
    d0fe:	88 10                	mov    %dl,(%rax)
    d100:	48 c7 c6 ff ff ff ff 	mov    $0xffffffffffffffff,%rsi
    d107:	48 bf b5 15 5a 7d 38 	movabs $0x50ab9e387d5a15b5,%rdi
    d10e:	9e ab 50 
    d111:	e8 6a af ff ff       	callq  8080 <safe_mod_func_uint64_t_u_u>
    d116:	0f b7 c0             	movzwl %ax,%eax
    d119:	be 0a 00 00 00       	mov    $0xa,%esi
    d11e:	89 c7                	mov    %eax,%edi
    d120:	e8 e1 ac ff ff       	callq  7e06 <safe_lshift_func_uint16_t_u_u>
    d125:	c7 85 50 f3 ff ff 01 	movl   $0x1,-0xcb0(%rbp)
    d12c:	00 00 00 
    d12f:	c6 85 d4 f2 ff ff 01 	movb   $0x1,-0xd2c(%rbp)
    d136:	e9 aa 00 00 00       	jmpq   d1e5 <func_51+0xe06>
    d13b:	48 b8 ce b6 96 5b 01 	movabs $0x153429015b96b6ce,%rax
    d142:	29 34 15 
    d145:	48 89 85 20 f4 ff ff 	mov    %rax,-0xbe0(%rbp)
    d14c:	c7 85 60 f3 ff ff fb 	movl   $0xfffffffb,-0xca0(%rbp)
    d153:	ff ff ff 
    d156:	c7 85 64 f3 ff ff 09 	movl   $0x9,-0xc9c(%rbp)
    d15d:	00 00 00 
    d160:	c7 85 68 f3 ff ff 08 	movl   $0x379c2108,-0xc98(%rbp)
    d167:	21 9c 37 
    d16a:	c7 85 6c f3 ff ff f9 	movl   $0xfffffff9,-0xc94(%rbp)
    d171:	ff ff ff 
    d174:	c7 85 70 f3 ff ff 93 	movl   $0xb6b23893,-0xc90(%rbp)
    d17b:	38 b2 b6 
    d17e:	c7 85 74 f3 ff ff a2 	movl   $0x26f15ca2,-0xc8c(%rbp)
    d185:	5c f1 26 
    d188:	c7 85 78 f3 ff ff 2b 	movl   $0x80e3602b,-0xc88(%rbp)
    d18f:	60 e3 80 
    d192:	c7 85 7c f3 ff ff 1d 	movl   $0x5261b61d,-0xc84(%rbp)
    d199:	b6 61 52 
    d19c:	c7 85 80 f3 ff ff ff 	movl   $0xffffffff,-0xc80(%rbp)
    d1a3:	ff ff ff 
    d1a6:	b8 31 f6 71 ec       	mov    $0xec71f631,%eax
    d1ab:	48 89 85 20 f4 ff ff 	mov    %rax,-0xbe0(%rbp)
    d1b2:	48 8b 05 57 c7 00 00 	mov    0xc757(%rip),%rax        # 19910 <g_2218>
    d1b9:	48 83 c0 01          	add    $0x1,%rax
    d1bd:	48 89 05 4c c7 00 00 	mov    %rax,0xc74c(%rip)        # 19910 <g_2218>
    d1c4:	c7 85 00 f3 ff ff ac 	movl   $0x98af31ac,-0xd00(%rbp)
    d1cb:	31 af 98 
    d1ce:	0f b6 85 d5 f2 ff ff 	movzbl -0xd2b(%rbp),%eax
    d1d5:	83 e8 01             	sub    $0x1,%eax
    d1d8:	88 85 d5 f2 ff ff    	mov    %al,-0xd2b(%rbp)
    d1de:	80 85 d4 f2 ff ff 01 	addb   $0x1,-0xd2c(%rbp)
    d1e5:	80 bd d4 f2 ff ff 08 	cmpb   $0x8,-0xd2c(%rbp)
    d1ec:	0f 86 49 ff ff ff    	jbe    d13b <func_51+0xd5c>
    d1f2:	48 8b 05 e7 df 00 00 	mov    0xdfe7(%rip),%rax        # 1b1e0 <g_474>
    d1f9:	8b 85 44 f7 ff ff    	mov    -0x8bc(%rbp),%eax
    d1ff:	31 85 f0 f2 ff ff    	xor    %eax,-0xd10(%rbp)
    d205:	8b 95 24 f8 ff ff    	mov    -0x7dc(%rbp),%edx
    d20b:	8b 85 44 f7 ff ff    	mov    -0x8bc(%rbp),%eax
    d211:	39 c2                	cmp    %eax,%edx
    d213:	0f 95 c0             	setne  %al
    d216:	0f b6 c0             	movzbl %al,%eax
    d219:	39 85 f0 f2 ff ff    	cmp    %eax,-0xd10(%rbp)
    d21f:	0f 95 c0             	setne  %al
    d222:	0f b6 c0             	movzbl %al,%eax
    d225:	89 85 00 f3 ff ff    	mov    %eax,-0xd00(%rbp)
    d22b:	0f b7 9d da f2 ff ff 	movzwl -0xd26(%rbp),%ebx
    d232:	48 8b 85 a8 f4 ff ff 	mov    -0xb58(%rbp),%rax
    d239:	48 39 85 f8 f3 ff ff 	cmp    %rax,-0xc08(%rbp)
    d240:	74 07                	je     d249 <func_51+0xe6a>
    d242:	ba db c9 ef 3c       	mov    $0x3cefc9db,%edx
    d247:	eb 05                	jmp    d24e <func_51+0xe6f>
    d249:	ba da c9 ef 3c       	mov    $0x3cefc9da,%edx
    d24e:	0f b7 85 da f2 ff ff 	movzwl -0xd26(%rbp),%eax
    d255:	48 39 c2             	cmp    %rax,%rdx
    d258:	0f 95 c0             	setne  %al
    d25b:	0f b6 c0             	movzbl %al,%eax
    d25e:	be 00 00 00 00       	mov    $0x0,%esi
    d263:	89 c7                	mov    %eax,%edi
    d265:	e8 6a 9f ff ff       	callq  71d4 <safe_add_func_int8_t_s_s>
    d26a:	0f be c0             	movsbl %al,%eax
    d26d:	89 de                	mov    %ebx,%esi
    d26f:	89 c7                	mov    %eax,%edi
    d271:	e8 40 a3 ff ff       	callq  75b6 <safe_add_func_int32_t_s_s>
    d276:	98                   	cwtl   
    d277:	be 04 00 00 00       	mov    $0x4,%esi
    d27c:	89 c7                	mov    %eax,%edi
    d27e:	e8 0f a2 ff ff       	callq  7492 <safe_lshift_func_int16_t_s_s>
    d283:	0f b6 d0             	movzbl %al,%edx
    d286:	48 8b 05 43 e1 00 00 	mov    0xe143(%rip),%rax        # 1b3d0 <g_1517>
    d28d:	48 8b 00             	mov    (%rax),%rax
    d290:	8b 08                	mov    (%rax),%ecx
    d292:	0f b7 85 da f2 ff ff 	movzwl -0xd26(%rbp),%eax
    d299:	39 c1                	cmp    %eax,%ecx
    d29b:	0f 9d c0             	setge  %al
    d29e:	0f b6 c0             	movzbl %al,%eax
    d2a1:	89 d6                	mov    %edx,%esi
    d2a3:	89 c7                	mov    %eax,%edi
    d2a5:	e8 e9 a8 ff ff       	callq  7b93 <safe_mul_func_uint8_t_u_u>
    d2aa:	84 c0                	test   %al,%al
    d2ac:	75 1e                	jne    d2cc <func_51+0xeed>
    d2ae:	8b 85 e4 f2 ff ff    	mov    -0xd1c(%rbp),%eax
    d2b4:	48 98                	cltq   
    d2b6:	48 8d 14 85 00 00 00 	lea    0x0(,%rax,4),%rdx
    d2bd:	00 
    d2be:	48 8d 05 bb bd 00 00 	lea    0xbdbb(%rip),%rax        # 19080 <g_109>
    d2c5:	8b 04 02             	mov    (%rdx,%rax,1),%eax
    d2c8:	85 c0                	test   %eax,%eax
    d2ca:	74 07                	je     d2d3 <func_51+0xef4>
    d2cc:	b8 01 00 00 00       	mov    $0x1,%eax
    d2d1:	eb 05                	jmp    d2d8 <func_51+0xef9>
    d2d3:	b8 00 00 00 00       	mov    $0x0,%eax
    d2d8:	23 85 00 f3 ff ff    	and    -0xd00(%rbp),%eax
    d2de:	85 c0                	test   %eax,%eax
    d2e0:	74 1b                	je     d2fd <func_51+0xf1e>
    d2e2:	8b 85 54 f3 ff ff    	mov    -0xcac(%rbp),%eax
    d2e8:	88 85 2c f4 ff ff    	mov    %al,-0xbd4(%rbp)
    d2ee:	8b 05 e4 bd 00 00    	mov    0xbde4(%rip),%eax        # 190d8 <g_278>
    d2f4:	85 c0                	test   %eax,%eax
    d2f6:	74 16                	je     d30e <func_51+0xf2f>
    d2f8:	e9 31 f3 ff ff       	jmpq   c62e <func_51+0x24f>
    d2fd:	48 8b 05 3c e5 00 00 	mov    0xe53c(%rip),%rax        # 1b840 <g_2252>
    d304:	48 8b 15 4d f2 00 00 	mov    0xf24d(%rip),%rdx        # 1c558 <g_2251>
    d30b:	48 89 10             	mov    %rdx,(%rax)
    d30e:	8b 05 90 bd 00 00    	mov    0xbd90(%rip),%eax        # 190a4 <g_119>
    d314:	83 e8 01             	sub    $0x1,%eax
    d317:	89 05 87 bd 00 00    	mov    %eax,0xbd87(%rip)        # 190a4 <g_119>
    d31d:	8b 05 81 bd 00 00    	mov    0xbd81(%rip),%eax        # 190a4 <g_119>
    d323:	83 f8 01             	cmp    $0x1,%eax
    d326:	0f 8f d9 f9 ff ff    	jg     cd05 <func_51+0x926>
    d32c:	0f b6 05 f1 c5 00 00 	movzbl 0xc5f1(%rip),%eax        # 19924 <g_2264>
    d333:	83 e8 01             	sub    $0x1,%eax
    d336:	88 05 e8 c5 00 00    	mov    %al,0xc5e8(%rip)        # 19924 <g_2264>
    d33c:	e9 01 01 00 00       	jmpq   d442 <func_51+0x1063>
    d341:	c7 85 40 f3 ff ff 00 	movl   $0x0,-0xcc0(%rbp)
    d348:	00 00 00 
    d34b:	c7 85 44 f3 ff ff 00 	movl   $0x0,-0xcbc(%rbp)
    d352:	00 00 00 
    d355:	c7 85 10 f3 ff ff 00 	movl   $0x0,-0xcf0(%rbp)
    d35c:	00 00 00 
    d35f:	eb 45                	jmp    d3a6 <func_51+0xfc7>
    d361:	c7 85 14 f3 ff ff 00 	movl   $0x0,-0xcec(%rbp)
    d368:	00 00 00 
    d36b:	eb 29                	jmp    d396 <func_51+0xfb7>
    d36d:	8b 85 14 f3 ff ff    	mov    -0xcec(%rbp),%eax
    d373:	48 98                	cltq   
    d375:	8b 95 10 f3 ff ff    	mov    -0xcf0(%rbp),%edx
    d37b:	48 63 d2             	movslq %edx,%rdx
    d37e:	48 01 d2             	add    %rdx,%rdx
    d381:	48 01 d0             	add    %rdx,%rax
    d384:	c7 84 85 60 f5 ff ff 	movl   $0xfffffff8,-0xaa0(%rbp,%rax,4)
    d38b:	f8 ff ff ff 
    d38f:	83 85 14 f3 ff ff 01 	addl   $0x1,-0xcec(%rbp)
    d396:	83 bd 14 f3 ff ff 01 	cmpl   $0x1,-0xcec(%rbp)
    d39d:	7e ce                	jle    d36d <func_51+0xf8e>
    d39f:	83 85 10 f3 ff ff 01 	addl   $0x1,-0xcf0(%rbp)
    d3a6:	83 bd 10 f3 ff ff 00 	cmpl   $0x0,-0xcf0(%rbp)
    d3ad:	7e b2                	jle    d361 <func_51+0xf82>
    d3af:	c7 85 a4 f7 ff ff 02 	movl   $0x2,-0x85c(%rbp)
    d3b6:	00 00 00 
    d3b9:	48 8b 85 00 f4 ff ff 	mov    -0xc00(%rbp),%rax
    d3c0:	48 3b 85 e8 f3 ff ff 	cmp    -0xc18(%rbp),%rax
    d3c7:	0f 95 c0             	setne  %al
    d3ca:	0f b6 d0             	movzbl %al,%edx
    d3cd:	8b 85 60 f5 ff ff    	mov    -0xaa0(%rbp),%eax
    d3d3:	31 d0                	xor    %edx,%eax
    d3d5:	89 85 60 f5 ff ff    	mov    %eax,-0xaa0(%rbp)
    d3db:	8b 05 6b c5 00 00    	mov    0xc56b(%rip),%eax        # 1994c <g_2272+0xc>
    d3e1:	8b 85 e4 f2 ff ff    	mov    -0xd1c(%rbp),%eax
    d3e7:	48 98                	cltq   
    d3e9:	48 8d 14 85 00 00 00 	lea    0x0(,%rax,4),%rdx
    d3f0:	00 
    d3f1:	48 8d 05 88 bc 00 00 	lea    0xbc88(%rip),%rax        # 19080 <g_109>
    d3f8:	48 01 d0             	add    %rdx,%rax
    d3fb:	8b 95 e4 f2 ff ff    	mov    -0xd1c(%rbp),%edx
    d401:	48 63 d2             	movslq %edx,%rdx
    d404:	48 8d 0c 95 00 00 00 	lea    0x0(,%rdx,4),%rcx
    d40b:	00 
    d40c:	48 8d 15 6d bc 00 00 	lea    0xbc6d(%rip),%rdx        # 19080 <g_109>
    d413:	48 01 ca             	add    %rcx,%rdx
    d416:	48 89 95 f0 f3 ff ff 	mov    %rdx,-0xc10(%rbp)
    d41d:	48 39 85 f0 f3 ff ff 	cmp    %rax,-0xc10(%rbp)
    d424:	0f 95 c0             	setne  %al
    d427:	0f b6 c0             	movzbl %al,%eax
    d42a:	89 85 40 f3 ff ff    	mov    %eax,-0xcc0(%rbp)
    d430:	48 8b 05 41 c5 00 00 	mov    0xc541(%rip),%rax        # 19978 <g_2277+0x8>
    d437:	48 83 c0 01          	add    $0x1,%rax
    d43b:	48 89 05 36 c5 00 00 	mov    %rax,0xc536(%rip)        # 19978 <g_2277+0x8>
    d442:	8b 85 88 f9 ff ff    	mov    -0x678(%rbp),%eax
    d448:	85 c0                	test   %eax,%eax
    d44a:	8b 05 70 bd 00 00    	mov    0xbd70(%rip),%eax        # 191c0 <g_542>
    d450:	83 e8 01             	sub    $0x1,%eax
    d453:	89 05 67 bd 00 00    	mov    %eax,0xbd67(%rip)        # 191c0 <g_542>
    d459:	8b 05 61 bd 00 00    	mov    0xbd61(%rip),%eax        # 191c0 <g_542>
    d45f:	85 c0                	test   %eax,%eax
    d461:	0f 8f dd f3 ff ff    	jg     c844 <func_51+0x465>
    d467:	48 8b 15 9a dd 00 00 	mov    0xdd9a(%rip),%rdx        # 1b208 <g_497>
    d46e:	48 8b 05 93 dd 00 00 	mov    0xdd93(%rip),%rax        # 1b208 <g_497>
    d475:	48 8b 12             	mov    (%rdx),%rdx
    d478:	48 89 10             	mov    %rdx,(%rax)
    d47b:	83 ad e4 f2 ff ff 01 	subl   $0x1,-0xd1c(%rbp)
    d482:	83 bd e4 f2 ff ff 00 	cmpl   $0x0,-0xd1c(%rbp)
    d489:	0f 8f dc f2 ff ff    	jg     c76b <func_51+0x38c>
    d48f:	48 8b 05 22 df 00 00 	mov    0xdf22(%rip),%rax        # 1b3b8 <g_1390>
    d496:	48 8b 00             	mov    (%rax),%rax
    d499:	48 8b 00             	mov    (%rax),%rax
    d49c:	48 8b 00             	mov    (%rax),%rax
    d49f:	48 8b 5d d8          	mov    -0x28(%rbp),%rbx
    d4a3:	64 48 33 1c 25 28 00 	xor    %fs:0x28,%rbx
    d4aa:	00 00 
    d4ac:	74 05                	je     d4b3 <func_51+0x10d4>
    d4ae:	e8 bd 9b ff ff       	callq  7070 <__stack_chk_fail@plt>
    d4b3:	48 81 c4 20 0d 00 00 	add    $0xd20,%rsp
    d4ba:	5b                   	pop    %rbx
    d4bb:	41 5c                	pop    %r12
    d4bd:	41 5d                	pop    %r13
    d4bf:	41 5e                	pop    %r14
    d4c1:	5d                   	pop    %rbp
    d4c2:	c3                   	retq   

000000000000d4c3 <func_53>:
    d4c3:	f3 0f 1e fa          	endbr64 
    d4c7:	55                   	push   %rbp
    d4c8:	48 89 e5             	mov    %rsp,%rbp
    d4cb:	41 57                	push   %r15
    d4cd:	41 56                	push   %r14
    d4cf:	41 55                	push   %r13
    d4d1:	41 54                	push   %r12
    d4d3:	53                   	push   %rbx
    d4d4:	48 81 ec 00 10 00 00 	sub    $0x1000,%rsp
    d4db:	48 83 0c 24 00       	orq    $0x0,(%rsp)
    d4e0:	48 81 ec 68 04 00 00 	sub    $0x468,%rsp
    d4e7:	48 89 bd 88 eb ff ff 	mov    %rdi,-0x1478(%rbp)
    d4ee:	89 f0                	mov    %esi,%eax
    d4f0:	88 85 84 eb ff ff    	mov    %al,-0x147c(%rbp)
    d4f6:	64 48 8b 04 25 28 00 	mov    %fs:0x28,%rax
    d4fd:	00 00 
    d4ff:	48 89 45 c8          	mov    %rax,-0x38(%rbp)
    d503:	31 c0                	xor    %eax,%eax
    d505:	c7 85 40 ec ff ff e6 	movl   $0xbae19ce6,-0x13c0(%rbp)
    d50c:	9c e1 ba 
    d50f:	c7 85 44 ec ff ff fd 	movl   $0xfffffffd,-0x13bc(%rbp)
    d516:	ff ff ff 
    d519:	c7 85 b8 eb ff ff d4 	movl   $0x45325ed4,-0x1448(%rbp)
    d520:	5e 32 45 
    d523:	48 b8 25 e6 db 48 7c 	movabs $0x638a0d7c48dbe625,%rax
    d52a:	0d 8a 63 
    d52d:	48 89 85 b0 ec ff ff 	mov    %rax,-0x1350(%rbp)
    d534:	48 c7 85 60 ed ff ff 	movq   $0x0,-0x12a0(%rbp)
    d53b:	00 00 00 00 
    d53f:	c6 85 9f eb ff ff ff 	movb   $0xff,-0x1461(%rbp)
    d546:	c7 85 bc eb ff ff ff 	movl   $0xffffffff,-0x1444(%rbp)
    d54d:	ff ff ff 
    d550:	c7 85 c0 eb ff ff ff 	movl   $0xffffffff,-0x1440(%rbp)
    d557:	ff ff ff 
    d55a:	c7 85 c4 eb ff ff 01 	movl   $0x1,-0x143c(%rbp)
    d561:	00 00 00 
    d564:	c7 85 c8 eb ff ff 2e 	movl   $0x529d92e,-0x1438(%rbp)
    d56b:	d9 29 05 
    d56e:	c7 85 60 f3 ff ff 00 	movl   $0x0,-0xca0(%rbp)
    d575:	00 00 00 
    d578:	c7 85 64 f3 ff ff e4 	movl   $0xa73645e4,-0xc9c(%rbp)
    d57f:	45 36 a7 
    d582:	c7 85 68 f3 ff ff 01 	movl   $0x1,-0xc98(%rbp)
    d589:	00 00 00 
    d58c:	c7 85 6c f3 ff ff fd 	movl   $0xfffffffd,-0xc94(%rbp)
    d593:	ff ff ff 
    d596:	c7 85 70 f3 ff ff 39 	movl   $0x54f6f39,-0xc90(%rbp)
    d59d:	6f 4f 05 
    d5a0:	c7 85 74 f3 ff ff fd 	movl   $0xfffffffd,-0xc8c(%rbp)
    d5a7:	ff ff ff 
    d5aa:	c7 85 78 f3 ff ff 01 	movl   $0x1,-0xc88(%rbp)
    d5b1:	00 00 00 
    d5b4:	c7 85 7c f3 ff ff e4 	movl   $0xa73645e4,-0xc84(%rbp)
    d5bb:	45 36 a7 
    d5be:	c7 85 80 f3 ff ff 01 	movl   $0x1,-0xc80(%rbp)
    d5c5:	00 00 00 
    d5c8:	c7 85 84 f3 ff ff 9c 	movl   $0x203c09c,-0xc7c(%rbp)
    d5cf:	c0 03 02 
    d5d2:	c7 85 88 f3 ff ff 00 	movl   $0x0,-0xc78(%rbp)
    d5d9:	00 00 00 
    d5dc:	c7 85 8c f3 ff ff 01 	movl   $0x1,-0xc74(%rbp)
    d5e3:	00 00 00 
    d5e6:	c7 85 90 f3 ff ff e3 	movl   $0x12b283e3,-0xc70(%rbp)
    d5ed:	83 b2 12 
    d5f0:	c7 85 94 f3 ff ff ff 	movl   $0xffffffff,-0xc6c(%rbp)
    d5f7:	ff ff ff 
    d5fa:	c7 85 98 f3 ff ff 01 	movl   $0x1,-0xc68(%rbp)
    d601:	00 00 00 
    d604:	c7 85 9c f3 ff ff e3 	movl   $0x12b283e3,-0xc64(%rbp)
    d60b:	83 b2 12 
    d60e:	c7 85 a0 f3 ff ff e4 	movl   $0xa73645e4,-0xc60(%rbp)
    d615:	45 36 a7 
    d618:	c7 85 a4 f3 ff ff fd 	movl   $0xfffffffd,-0xc5c(%rbp)
    d61f:	ff ff ff 
    d622:	c7 85 a8 f3 ff ff fd 	movl   $0xfffffffd,-0xc58(%rbp)
    d629:	ff ff ff 
    d62c:	c7 85 ac f3 ff ff 00 	movl   $0x0,-0xc54(%rbp)
    d633:	00 00 00 
    d636:	c7 85 b0 f3 ff ff 01 	movl   $0x1,-0xc50(%rbp)
    d63d:	00 00 00 
    d640:	c7 85 b4 f3 ff ff e3 	movl   $0x12b283e3,-0xc4c(%rbp)
    d647:	83 b2 12 
    d64a:	c7 85 b8 f3 ff ff ff 	movl   $0xffffffff,-0xc48(%rbp)
    d651:	ff ff ff 
    d654:	c7 85 bc f3 ff ff 9c 	movl   $0x203c09c,-0xc44(%rbp)
    d65b:	c0 03 02 
    d65e:	c7 85 c0 f3 ff ff e3 	movl   $0x12b283e3,-0xc40(%rbp)
    d665:	83 b2 12 
    d668:	c7 85 c4 f3 ff ff ff 	movl   $0xffffffff,-0xc3c(%rbp)
    d66f:	ff ff ff 
    d672:	c7 85 c8 f3 ff ff 9c 	movl   $0x203c09c,-0xc38(%rbp)
    d679:	c0 03 02 
    d67c:	c7 85 cc f3 ff ff 9c 	movl   $0x203c09c,-0xc34(%rbp)
    d683:	c0 03 02 
    d686:	c7 85 d0 f3 ff ff ff 	movl   $0xffffffff,-0xc30(%rbp)
    d68d:	ff ff ff 
    d690:	c7 85 d4 f3 ff ff e3 	movl   $0x12b283e3,-0xc2c(%rbp)
    d697:	83 b2 12 
    d69a:	c7 85 d8 f3 ff ff 01 	movl   $0x1,-0xc28(%rbp)
    d6a1:	00 00 00 
    d6a4:	c7 85 dc f3 ff ff 00 	movl   $0x0,-0xc24(%rbp)
    d6ab:	00 00 00 
    d6ae:	c7 85 e0 f3 ff ff 00 	movl   $0x0,-0xc20(%rbp)
    d6b5:	00 00 00 
    d6b8:	c7 85 e4 f3 ff ff fd 	movl   $0xfffffffd,-0xc1c(%rbp)
    d6bf:	ff ff ff 
    d6c2:	c7 85 e8 f3 ff ff e4 	movl   $0xa73645e4,-0xc18(%rbp)
    d6c9:	45 36 a7 
    d6cc:	c7 85 ec f3 ff ff e3 	movl   $0x12b283e3,-0xc14(%rbp)
    d6d3:	83 b2 12 
    d6d6:	c7 85 f0 f3 ff ff 00 	movl   $0x0,-0xc10(%rbp)
    d6dd:	00 00 00 
    d6e0:	c7 85 f4 f3 ff ff ff 	movl   $0xffffffff,-0xc0c(%rbp)
    d6e7:	ff ff ff 
    d6ea:	c7 85 f8 f3 ff ff 17 	movl   $0x30337117,-0xc08(%rbp)
    d6f1:	71 33 30 
    d6f4:	c7 85 fc f3 ff ff f6 	movl   $0xfffffff6,-0xc04(%rbp)
    d6fb:	ff ff ff 
    d6fe:	c7 85 00 f4 ff ff 00 	movl   $0x0,-0xc00(%rbp)
    d705:	00 00 00 
    d708:	c7 85 04 f4 ff ff 17 	movl   $0x30337117,-0xbfc(%rbp)
    d70f:	71 33 30 
    d712:	c7 85 08 f4 ff ff 30 	movl   $0xe4799630,-0xbf8(%rbp)
    d719:	96 79 e4 
    d71c:	c7 85 0c f4 ff ff fa 	movl   $0xfffffffa,-0xbf4(%rbp)
    d723:	ff ff ff 
    d726:	c7 85 10 f4 ff ff f6 	movl   $0xfffffff6,-0xbf0(%rbp)
    d72d:	ff ff ff 
    d730:	c7 85 14 f4 ff ff 01 	movl   $0x1,-0xbec(%rbp)
    d737:	00 00 00 
    d73a:	c7 85 18 f4 ff ff e3 	movl   $0x12b283e3,-0xbe8(%rbp)
    d741:	83 b2 12 
    d744:	c7 85 1c f4 ff ff 01 	movl   $0x1,-0xbe4(%rbp)
    d74b:	00 00 00 
    d74e:	48 c7 85 68 ed ff ff 	movq   $0x0,-0x1298(%rbp)
    d755:	00 00 00 00 
    d759:	c7 85 40 f1 ff ff 86 	movl   $0x8308686,-0xec0(%rbp)
    d760:	86 30 08 
    d763:	66 c7 85 44 f1 ff ff 	movw   $0xc19d,-0xebc(%rbp)
    d76a:	9d c1 
    d76c:	c7 85 46 f1 ff ff 01 	movl   $0xc16b3001,-0xeba(%rbp)
    d773:	30 6b c1 
    d776:	66 c7 85 4a f1 ff ff 	movw   $0x306b,-0xeb6(%rbp)
    d77d:	6b 30 
    d77f:	c7 85 4c f1 ff ff 08 	movl   $0x6b0108,-0xeb4(%rbp)
    d786:	01 6b 00 
    d789:	66 c7 85 50 f1 ff ff 	movw   $0xc186,-0xeb0(%rbp)
    d790:	86 c1 
    d792:	c7 85 52 f1 ff ff c8 	movl   $0x303000c8,-0xeae(%rbp)
    d799:	00 30 30 
    d79c:	66 c7 85 56 f1 ff ff 	movw   $0xc800,-0xeaa(%rbp)
    d7a3:	00 c8 
    d7a5:	c7 85 58 f1 ff ff 30 	movl   $0xdbc80030,-0xea8(%rbp)
    d7ac:	00 c8 db 
    d7af:	66 c7 85 5c f1 ff ff 	movw   $0x6b86,-0xea4(%rbp)
    d7b6:	86 6b 
    d7b8:	c7 85 5e f1 ff ff 6b 	movl   $0x108016b,-0xea2(%rbp)
    d7bf:	01 08 01 
    d7c2:	66 c7 85 62 f1 ff ff 	movw   $0x6b,-0xe9e(%rbp)
    d7c9:	6b 00 
    d7cb:	c7 85 64 f1 ff ff 6b 	movl   $0xdb01306b,-0xe9c(%rbp)
    d7d2:	30 01 db 
    d7d5:	66 c7 85 68 f1 ff ff 	movw   $0x9d9d,-0xe98(%rbp)
    d7dc:	9d 9d 
    d7de:	c7 85 6a f1 ff ff 30 	movl   $0x30868630,-0xe96(%rbp)
    d7e5:	86 86 30 
    d7e8:	66 c7 85 6e f1 ff ff 	movw   $0x9d08,-0xe92(%rbp)
    d7ef:	08 9d 
    d7f1:	c7 85 70 f1 ff ff c8 	movl   $0x19dc8,-0xe90(%rbp)
    d7f8:	9d 01 00 
    d7fb:	66 c7 85 74 f1 ff ff 	movw   $0xdb,-0xe8c(%rbp)
    d802:	db 00 
    d804:	48 c7 85 70 ed ff ff 	movq   $0x0,-0x1290(%rbp)
    d80b:	00 00 00 00 
    d80f:	48 c7 85 b8 ec ff ff 	movq   $0x0,-0x1348(%rbp)
    d816:	00 00 00 00 
    d81a:	48 c7 85 80 f1 ff ff 	movq   $0x0,-0xe80(%rbp)
    d821:	00 00 00 00 
    d825:	48 8d 05 74 b9 00 00 	lea    0xb974(%rip),%rax        # 191a0 <g_306>
    d82c:	48 89 85 88 f1 ff ff 	mov    %rax,-0xe78(%rbp)
    d833:	48 8d 05 66 b9 00 00 	lea    0xb966(%rip),%rax        # 191a0 <g_306>
    d83a:	48 89 85 90 f1 ff ff 	mov    %rax,-0xe70(%rbp)
    d841:	48 c7 85 98 f1 ff ff 	movq   $0x0,-0xe68(%rbp)
    d848:	00 00 00 00 
    d84c:	48 8d 05 4d b9 00 00 	lea    0xb94d(%rip),%rax        # 191a0 <g_306>
    d853:	48 89 85 a0 f1 ff ff 	mov    %rax,-0xe60(%rbp)
    d85a:	48 8d 05 3f b9 00 00 	lea    0xb93f(%rip),%rax        # 191a0 <g_306>
    d861:	48 89 85 a8 f1 ff ff 	mov    %rax,-0xe58(%rbp)
    d868:	48 c7 85 b0 f1 ff ff 	movq   $0x0,-0xe50(%rbp)
    d86f:	00 00 00 00 
    d873:	48 8d 05 26 b9 00 00 	lea    0xb926(%rip),%rax        # 191a0 <g_306>
    d87a:	48 89 85 b8 f1 ff ff 	mov    %rax,-0xe48(%rbp)
    d881:	c7 85 48 ec ff ff 01 	movl   $0x1,-0x13b8(%rbp)
    d888:	00 00 00 
    d88b:	48 8d 05 5e bb 00 00 	lea    0xbb5e(%rip),%rax        # 193f0 <g_1628+0x10>
    d892:	48 89 85 c0 ec ff ff 	mov    %rax,-0x1340(%rbp)
    d899:	48 8d 85 c0 ec ff ff 	lea    -0x1340(%rbp),%rax
    d8a0:	48 89 85 78 ed ff ff 	mov    %rax,-0x1288(%rbp)
    d8a7:	c6 85 a1 eb ff ff 01 	movb   $0x1,-0x145f(%rbp)
    d8ae:	48 b8 fc 02 02 fc 02 	movabs $0x2fc0202fc0202fc,%rax
    d8b5:	02 fc 02 
    d8b8:	48 89 45 bf          	mov    %rax,-0x41(%rbp)
    d8bc:	c6 45 c7 02          	movb   $0x2,-0x39(%rbp)
    d8c0:	48 c7 85 c8 ec ff ff 	movq   $0x0,-0x1338(%rbp)
    d8c7:	00 00 00 00 
    d8cb:	48 8d 85 c8 ec ff ff 	lea    -0x1338(%rbp),%rax
    d8d2:	48 89 85 d0 ec ff ff 	mov    %rax,-0x1330(%rbp)
    d8d9:	48 8d 85 d0 ec ff ff 	lea    -0x1330(%rbp),%rax
    d8e0:	48 89 85 80 ed ff ff 	mov    %rax,-0x1280(%rbp)
    d8e7:	c6 85 a2 eb ff ff 93 	movb   $0x93,-0x145e(%rbp)
    d8ee:	c7 85 e8 eb ff ff f9 	movl   $0x9e38ff9,-0x1418(%rbp)
    d8f5:	8f e3 09 
    d8f8:	66 c7 85 b0 eb ff ff 	movw   $0x3,-0x1450(%rbp)
    d8ff:	03 00 
    d901:	48 c7 85 d8 ec ff ff 	movq   $0x0,-0x1328(%rbp)
    d908:	00 00 00 00 
    d90c:	8b 85 40 ec ff ff    	mov    -0x13c0(%rbp),%eax
    d912:	0f bf d8             	movswl %ax,%ebx
    d915:	8b 85 40 ec ff ff    	mov    -0x13c0(%rbp),%eax
    d91b:	0f b6 c0             	movzbl %al,%eax
    d91e:	be 01 00 00 00       	mov    $0x1,%esi
    d923:	89 c7                	mov    %eax,%edi
    d925:	e8 db a2 ff ff       	callq  7c05 <safe_lshift_func_uint8_t_u_s>
    d92a:	0f b6 c0             	movzbl %al,%eax
    d92d:	89 de                	mov    %ebx,%esi
    d92f:	89 c7                	mov    %eax,%edi
    d931:	e8 9d 9a ff ff       	callq  73d3 <safe_sub_func_int16_t_s_s>
    d936:	98                   	cwtl   
    d937:	39 85 44 ec ff ff    	cmp    %eax,-0x13bc(%rbp)
    d93d:	73 09                	jae    d948 <func_53+0x485>
    d93f:	80 bd 84 eb ff ff 00 	cmpb   $0x0,-0x147c(%rbp)
    d946:	74 07                	je     d94f <func_53+0x48c>
    d948:	ba 01 00 00 00       	mov    $0x1,%edx
    d94d:	eb 05                	jmp    d954 <func_53+0x491>
    d94f:	ba 00 00 00 00       	mov    $0x0,%edx
    d954:	48 8b 05 c5 d8 00 00 	mov    0xd8c5(%rip),%rax        # 1b220 <g_784>
    d95b:	48 8b 00             	mov    (%rax),%rax
    d95e:	0f b7 00             	movzwl (%rax),%eax
    d961:	98                   	cwtl   
    d962:	89 d6                	mov    %edx,%esi
    d964:	89 c7                	mov    %eax,%edi
    d966:	e8 bf 9b ff ff       	callq  752a <safe_rshift_func_int16_t_s_s>
    d96b:	48 0f bf d0          	movswq %ax,%rdx
    d96f:	8b 85 40 ec ff ff    	mov    -0x13c0(%rbp),%eax
    d975:	48 89 d6             	mov    %rdx,%rsi
    d978:	48 89 c7             	mov    %rax,%rdi
    d97b:	e8 00 a7 ff ff       	callq  8080 <safe_mod_func_uint64_t_u_u>
    d980:	48 83 f8 ff          	cmp    $0xffffffffffffffff,%rax
    d984:	0f 84 8a 01 00 00    	je     db14 <func_53+0x651>
    d98a:	c7 85 ac ec ff ff 2b 	movl   $0x956aa62b,-0x1354(%rbp)
    d991:	a6 6a 95 
    d994:	48 c7 85 00 f0 ff ff 	movq   $0x0,-0x1000(%rbp)
    d99b:	00 00 00 00 
    d99f:	48 c7 85 08 f0 ff ff 	movq   $0x0,-0xff8(%rbp)
    d9a6:	00 00 00 00 
    d9aa:	48 c7 85 10 f0 ff ff 	movq   $0x0,-0xff0(%rbp)
    d9b1:	00 00 00 00 
    d9b5:	48 8d 05 f4 b7 00 00 	lea    0xb7f4(%rip),%rax        # 191b0 <g_358>
    d9bc:	48 89 85 18 f0 ff ff 	mov    %rax,-0xfe8(%rbp)
    d9c3:	48 8d 05 f6 b6 00 00 	lea    0xb6f6(%rip),%rax        # 190c0 <g_186>
    d9ca:	48 89 85 20 f0 ff ff 	mov    %rax,-0xfe0(%rbp)
    d9d1:	8b 9d ac ec ff ff    	mov    -0x1354(%rbp),%ebx
    d9d7:	44 0f be a5 84 eb ff 	movsbl -0x147c(%rbp),%r12d
    d9de:	ff 
    d9df:	48 8b 05 3a d8 00 00 	mov    0xd83a(%rip),%rax        # 1b220 <g_784>
    d9e6:	48 8b 00             	mov    (%rax),%rax
    d9e9:	0f b7 00             	movzwl (%rax),%eax
    d9ec:	44 0f bf e8          	movswl %ax,%r13d
    d9f0:	48 8b 85 88 eb ff ff 	mov    -0x1478(%rbp),%rax
    d9f7:	0f b6 00             	movzbl (%rax),%eax
    d9fa:	44 0f be f0          	movsbl %al,%r14d
    d9fe:	48 8b 85 88 eb ff ff 	mov    -0x1478(%rbp),%rax
    da05:	0f b6 00             	movzbl (%rax),%eax
    da08:	84 c0                	test   %al,%al
    da0a:	74 1e                	je     da2a <func_53+0x567>
    da0c:	8b 05 1e b6 00 00    	mov    0xb61e(%rip),%eax        # 19030 <g_3>
    da12:	89 c6                	mov    %eax,%esi
    da14:	bf 00 00 00 00       	mov    $0x0,%edi
    da19:	e8 5c a4 ff ff       	callq  7e7a <safe_rshift_func_uint16_t_u_u>
    da1e:	66 85 c0             	test   %ax,%ax
    da21:	74 07                	je     da2a <func_53+0x567>
    da23:	b8 01 00 00 00       	mov    $0x1,%eax
    da28:	eb 05                	jmp    da2f <func_53+0x56c>
    da2a:	b8 00 00 00 00       	mov    $0x0,%eax
    da2f:	0f b6 c0             	movzbl %al,%eax
    da32:	44 89 f6             	mov    %r14d,%esi
    da35:	89 c7                	mov    %eax,%edi
    da37:	e8 c9 a1 ff ff       	callq  7c05 <safe_lshift_func_uint8_t_u_s>
    da3c:	48 8b 85 88 eb ff ff 	mov    -0x1478(%rbp),%rax
    da43:	0f b6 00             	movzbl (%rax),%eax
    da46:	84 c0                	test   %al,%al
    da48:	74 10                	je     da5a <func_53+0x597>
    da4a:	83 bd 40 ec ff ff 00 	cmpl   $0x0,-0x13c0(%rbp)
    da51:	74 07                	je     da5a <func_53+0x597>
    da53:	b8 01 00 00 00       	mov    $0x1,%eax
    da58:	eb 05                	jmp    da5f <func_53+0x59c>
    da5a:	b8 00 00 00 00       	mov    $0x0,%eax
    da5f:	0b 85 44 ec ff ff    	or     -0x13bc(%rbp),%eax
    da65:	89 c2                	mov    %eax,%edx
    da67:	48 8b 05 b2 d7 00 00 	mov    0xd7b2(%rip),%rax        # 1b220 <g_784>
    da6e:	48 8b 00             	mov    (%rax),%rax
    da71:	0f b7 00             	movzwl (%rax),%eax
    da74:	98                   	cwtl   
    da75:	39 c2                	cmp    %eax,%edx
    da77:	0f 95 c0             	setne  %al
    da7a:	0f b6 c0             	movzbl %al,%eax
    da7d:	44 89 ee             	mov    %r13d,%esi
    da80:	89 c7                	mov    %eax,%edi
    da82:	e8 c1 a3 ff ff       	callq  7e48 <safe_rshift_func_uint16_t_u_s>
    da87:	0f b7 c0             	movzwl %ax,%eax
    da8a:	33 85 ac ec ff ff    	xor    -0x1354(%rbp),%eax
    da90:	89 c0                	mov    %eax,%eax
    da92:	48 89 c6             	mov    %rax,%rsi
    da95:	48 bf 72 eb e9 de 48 	movabs $0xe3120748dee9eb72,%rdi
    da9c:	07 12 e3 
    da9f:	e8 04 9e ff ff       	callq  78a8 <safe_sub_func_int64_t_s_s>
    daa4:	89 c2                	mov    %eax,%edx
    daa6:	8b 85 b8 eb ff ff    	mov    -0x1448(%rbp),%eax
    daac:	31 d0                	xor    %edx,%eax
    daae:	89 85 b8 eb ff ff    	mov    %eax,-0x1448(%rbp)
    dab4:	8b 85 b8 eb ff ff    	mov    -0x1448(%rbp),%eax
    daba:	44 89 e6             	mov    %r12d,%esi
    dabd:	89 c7                	mov    %eax,%edi
    dabf:	e8 f4 a3 ff ff       	callq  7eb8 <safe_add_func_uint32_t_u_u>
    dac4:	85 c0                	test   %eax,%eax
    dac6:	75 09                	jne    dad1 <func_53+0x60e>
    dac8:	80 bd 84 eb ff ff 00 	cmpb   $0x0,-0x147c(%rbp)
    dacf:	74 07                	je     dad8 <func_53+0x615>
    dad1:	b8 01 00 00 00       	mov    $0x1,%eax
    dad6:	eb 05                	jmp    dadd <func_53+0x61a>
    dad8:	b8 00 00 00 00       	mov    $0x0,%eax
    dadd:	3d e3 00 00 00       	cmp    $0xe3,%eax
    dae2:	0f 9e c0             	setle  %al
    dae5:	0f b6 c0             	movzbl %al,%eax
    dae8:	89 de                	mov    %ebx,%esi
    daea:	89 c7                	mov    %eax,%edi
    daec:	e8 44 98 ff ff       	callq  7335 <safe_rshift_func_int8_t_s_s>
    daf1:	32 85 84 eb ff ff    	xor    -0x147c(%rbp),%al
    daf7:	89 c2                	mov    %eax,%edx
    daf9:	48 8b 85 18 f0 ff ff 	mov    -0xfe8(%rbp),%rax
    db00:	88 10                	mov    %dl,(%rax)
    db02:	48 8b 85 20 f0 ff ff 	mov    -0xfe0(%rbp),%rax
    db09:	c7 00 01 00 00 00    	movl   $0x1,(%rax)
    db0f:	e9 aa 43 00 00       	jmpq   11ebe <func_53+0x49fb>
    db14:	48 8d 05 cd e9 00 00 	lea    0xe9cd(%rip),%rax        # 1c4e8 <g_1180>
    db1b:	48 89 85 20 f4 ff ff 	mov    %rax,-0xbe0(%rbp)
    db22:	48 8d 05 bf e9 00 00 	lea    0xe9bf(%rip),%rax        # 1c4e8 <g_1180>
    db29:	48 89 85 28 f4 ff ff 	mov    %rax,-0xbd8(%rbp)
    db30:	48 8d 05 b1 e9 00 00 	lea    0xe9b1(%rip),%rax        # 1c4e8 <g_1180>
    db37:	48 89 85 30 f4 ff ff 	mov    %rax,-0xbd0(%rbp)
    db3e:	48 c7 85 38 f4 ff ff 	movq   $0x0,-0xbc8(%rbp)
    db45:	00 00 00 00 
    db49:	48 8d 05 68 b5 00 00 	lea    0xb568(%rip),%rax        # 190b8 <g_180>
    db50:	48 89 85 40 f4 ff ff 	mov    %rax,-0xbc0(%rbp)
    db57:	48 8d 05 8a e9 00 00 	lea    0xe98a(%rip),%rax        # 1c4e8 <g_1180>
    db5e:	48 89 85 48 f4 ff ff 	mov    %rax,-0xbb8(%rbp)
    db65:	48 c7 85 50 f4 ff ff 	movq   $0x0,-0xbb0(%rbp)
    db6c:	00 00 00 00 
    db70:	48 c7 85 58 f4 ff ff 	movq   $0x0,-0xba8(%rbp)
    db77:	00 00 00 00 
    db7b:	48 8d 05 66 e9 00 00 	lea    0xe966(%rip),%rax        # 1c4e8 <g_1180>
    db82:	48 89 85 60 f4 ff ff 	mov    %rax,-0xba0(%rbp)
    db89:	48 8d 05 58 e9 00 00 	lea    0xe958(%rip),%rax        # 1c4e8 <g_1180>
    db90:	48 89 85 68 f4 ff ff 	mov    %rax,-0xb98(%rbp)
    db97:	48 8d 05 4a e9 00 00 	lea    0xe94a(%rip),%rax        # 1c4e8 <g_1180>
    db9e:	48 89 85 70 f4 ff ff 	mov    %rax,-0xb90(%rbp)
    dba5:	48 c7 85 78 f4 ff ff 	movq   $0x0,-0xb88(%rbp)
    dbac:	00 00 00 00 
    dbb0:	48 8d 05 31 e9 00 00 	lea    0xe931(%rip),%rax        # 1c4e8 <g_1180>
    dbb7:	48 89 85 80 f4 ff ff 	mov    %rax,-0xb80(%rbp)
    dbbe:	48 8d 05 23 e9 00 00 	lea    0xe923(%rip),%rax        # 1c4e8 <g_1180>
    dbc5:	48 89 85 88 f4 ff ff 	mov    %rax,-0xb78(%rbp)
    dbcc:	48 c7 85 90 f4 ff ff 	movq   $0x0,-0xb70(%rbp)
    dbd3:	00 00 00 00 
    dbd7:	48 8d 05 0a e9 00 00 	lea    0xe90a(%rip),%rax        # 1c4e8 <g_1180>
    dbde:	48 89 85 98 f4 ff ff 	mov    %rax,-0xb68(%rbp)
    dbe5:	48 c7 85 a0 f4 ff ff 	movq   $0x0,-0xb60(%rbp)
    dbec:	00 00 00 00 
    dbf0:	48 8d 05 f1 e8 00 00 	lea    0xe8f1(%rip),%rax        # 1c4e8 <g_1180>
    dbf7:	48 89 85 a8 f4 ff ff 	mov    %rax,-0xb58(%rbp)
    dbfe:	48 8d 05 e3 e8 00 00 	lea    0xe8e3(%rip),%rax        # 1c4e8 <g_1180>
    dc05:	48 89 85 b0 f4 ff ff 	mov    %rax,-0xb50(%rbp)
    dc0c:	48 8d 05 d5 e8 00 00 	lea    0xe8d5(%rip),%rax        # 1c4e8 <g_1180>
    dc13:	48 89 85 b8 f4 ff ff 	mov    %rax,-0xb48(%rbp)
    dc1a:	48 c7 85 c0 f4 ff ff 	movq   $0x0,-0xb40(%rbp)
    dc21:	00 00 00 00 
    dc25:	48 8d 05 bc e8 00 00 	lea    0xe8bc(%rip),%rax        # 1c4e8 <g_1180>
    dc2c:	48 89 85 c8 f4 ff ff 	mov    %rax,-0xb38(%rbp)
    dc33:	48 c7 85 d0 f4 ff ff 	movq   $0x0,-0xb30(%rbp)
    dc3a:	00 00 00 00 
    dc3e:	48 8d 05 a3 e8 00 00 	lea    0xe8a3(%rip),%rax        # 1c4e8 <g_1180>
    dc45:	48 89 85 d8 f4 ff ff 	mov    %rax,-0xb28(%rbp)
    dc4c:	48 8d 05 95 e8 00 00 	lea    0xe895(%rip),%rax        # 1c4e8 <g_1180>
    dc53:	48 89 85 e0 f4 ff ff 	mov    %rax,-0xb20(%rbp)
    dc5a:	48 c7 85 e8 f4 ff ff 	movq   $0x0,-0xb18(%rbp)
    dc61:	00 00 00 00 
    dc65:	48 8d 05 7c e8 00 00 	lea    0xe87c(%rip),%rax        # 1c4e8 <g_1180>
    dc6c:	48 89 85 f0 f4 ff ff 	mov    %rax,-0xb10(%rbp)
    dc73:	48 8d 05 6e e8 00 00 	lea    0xe86e(%rip),%rax        # 1c4e8 <g_1180>
    dc7a:	48 89 85 f8 f4 ff ff 	mov    %rax,-0xb08(%rbp)
    dc81:	48 8d 05 60 e8 00 00 	lea    0xe860(%rip),%rax        # 1c4e8 <g_1180>
    dc88:	48 89 85 00 f5 ff ff 	mov    %rax,-0xb00(%rbp)
    dc8f:	48 c7 85 08 f5 ff ff 	movq   $0x0,-0xaf8(%rbp)
    dc96:	00 00 00 00 
    dc9a:	c7 85 cc eb ff ff 07 	movl   $0x7,-0x1434(%rbp)
    dca1:	00 00 00 
    dca4:	48 c7 85 88 ed ff ff 	movq   $0x0,-0x1278(%rbp)
    dcab:	00 00 00 00 
    dcaf:	48 8d 05 4a b7 00 00 	lea    0xb74a(%rip),%rax        # 19400 <g_1628+0x20>
    dcb6:	48 89 85 e0 ec ff ff 	mov    %rax,-0x1320(%rbp)
    dcbd:	48 8d 85 e0 ec ff ff 	lea    -0x1320(%rbp),%rax
    dcc4:	48 89 85 e8 ec ff ff 	mov    %rax,-0x1318(%rbp)
    dccb:	48 8d 85 cc eb ff ff 	lea    -0x1434(%rbp),%rax
    dcd2:	48 89 85 f0 ec ff ff 	mov    %rax,-0x1310(%rbp)
    dcd9:	c7 85 d0 eb ff ff fc 	movl   $0xfffffffc,-0x1430(%rbp)
    dce0:	ff ff ff 
    dce3:	c7 85 10 f1 ff ff d1 	movl   $0x33cfd4d1,-0xef0(%rbp)
    dcea:	d4 cf 33 
    dced:	c7 85 14 f1 ff ff 16 	movl   $0x8afd9d16,-0xeec(%rbp)
    dcf4:	9d fd 8a 
    dcf7:	c7 85 18 f1 ff ff 16 	movl   $0x8afd9d16,-0xee8(%rbp)
    dcfe:	9d fd 8a 
    dd01:	c7 85 1c f1 ff ff d1 	movl   $0x33cfd4d1,-0xee4(%rbp)
    dd08:	d4 cf 33 
    dd0b:	c7 85 20 f1 ff ff 16 	movl   $0x8afd9d16,-0xee0(%rbp)
    dd12:	9d fd 8a 
    dd15:	c7 85 24 f1 ff ff 16 	movl   $0x8afd9d16,-0xedc(%rbp)
    dd1c:	9d fd 8a 
    dd1f:	c7 85 28 f1 ff ff d1 	movl   $0x33cfd4d1,-0xed8(%rbp)
    dd26:	d4 cf 33 
    dd29:	c7 85 2c f1 ff ff 16 	movl   $0x8afd9d16,-0xed4(%rbp)
    dd30:	9d fd 8a 
    dd33:	c7 85 30 f1 ff ff 16 	movl   $0x8afd9d16,-0xed0(%rbp)
    dd3a:	9d fd 8a 
    dd3d:	c7 85 34 f1 ff ff d1 	movl   $0x33cfd4d1,-0xecc(%rbp)
    dd44:	d4 cf 33 
    dd47:	66 c7 85 ac eb ff ff 	movw   $0xfffa,-0x1454(%rbp)
    dd4e:	fa ff 
    dd50:	c7 85 d4 eb ff ff 27 	movl   $0x34d15d27,-0x142c(%rbp)
    dd57:	5d d1 34 
    dd5a:	c7 85 d8 eb ff ff 01 	movl   $0x1,-0x1428(%rbp)
    dd61:	00 00 00 
    dd64:	c7 85 dc eb ff ff cf 	movl   $0xf53914cf,-0x1424(%rbp)
    dd6b:	14 39 f5 
    dd6e:	48 8d 05 4b d4 00 00 	lea    0xd44b(%rip),%rax        # 1b1c0 <g_391>
    dd75:	48 89 85 f8 ec ff ff 	mov    %rax,-0x1308(%rbp)
    dd7c:	48 8d 85 f8 ec ff ff 	lea    -0x1308(%rbp),%rax
    dd83:	48 89 85 90 ed ff ff 	mov    %rax,-0x1270(%rbp)
    dd8a:	c7 85 ec eb ff ff fc 	movl   $0xfffffffc,-0x1414(%rbp)
    dd91:	ff ff ff 
    dd94:	c6 85 a0 eb ff ff d9 	movb   $0xd9,-0x1460(%rbp)
    dd9b:	c6 85 a3 eb ff ff 5a 	movb   $0x5a,-0x145d(%rbp)
    dda2:	48 c7 85 98 ed ff ff 	movq   $0x0,-0x1268(%rbp)
    dda9:	00 00 00 00 
    ddad:	c6 85 a4 eb ff ff 00 	movb   $0x0,-0x145c(%rbp)
    ddb4:	48 c7 85 a0 ed ff ff 	movq   $0x0,-0x1260(%rbp)
    ddbb:	00 00 00 00 
    ddbf:	48 b8 01 04 17 a9 0e 	movabs $0x666de80ea9170401,%rax
    ddc6:	e8 6d 66 
    ddc9:	48 89 85 a8 ed ff ff 	mov    %rax,-0x1258(%rbp)
    ddd0:	66 c7 85 b2 eb ff ff 	movw   $0xd40,-0x144e(%rbp)
    ddd7:	40 0d 
    ddd9:	48 8d 85 bc eb ff ff 	lea    -0x1444(%rbp),%rax
    dde0:	48 89 85 30 f6 ff ff 	mov    %rax,-0x9d0(%rbp)
    dde7:	48 8d 85 d0 eb ff ff 	lea    -0x1430(%rbp),%rax
    ddee:	48 89 85 38 f6 ff ff 	mov    %rax,-0x9c8(%rbp)
    ddf5:	48 c7 85 40 f6 ff ff 	movq   $0x0,-0x9c0(%rbp)
    ddfc:	00 00 00 00 
    de00:	48 8d 85 bc eb ff ff 	lea    -0x1444(%rbp),%rax
    de07:	48 89 85 48 f6 ff ff 	mov    %rax,-0x9b8(%rbp)
    de0e:	48 8d 85 c0 eb ff ff 	lea    -0x1440(%rbp),%rax
    de15:	48 89 85 50 f6 ff ff 	mov    %rax,-0x9b0(%rbp)
    de1c:	48 8d 85 c8 eb ff ff 	lea    -0x1438(%rbp),%rax
    de23:	48 89 85 58 f6 ff ff 	mov    %rax,-0x9a8(%rbp)
    de2a:	48 8d 85 c0 eb ff ff 	lea    -0x1440(%rbp),%rax
    de31:	48 89 85 60 f6 ff ff 	mov    %rax,-0x9a0(%rbp)
    de38:	48 8d 85 bc eb ff ff 	lea    -0x1444(%rbp),%rax
    de3f:	48 89 85 68 f6 ff ff 	mov    %rax,-0x998(%rbp)
    de46:	48 c7 85 70 f6 ff ff 	movq   $0x0,-0x990(%rbp)
    de4d:	00 00 00 00 
    de51:	48 8d 85 d0 eb ff ff 	lea    -0x1430(%rbp),%rax
    de58:	48 89 85 78 f6 ff ff 	mov    %rax,-0x988(%rbp)
    de5f:	48 8d 85 bc eb ff ff 	lea    -0x1444(%rbp),%rax
    de66:	48 89 85 80 f6 ff ff 	mov    %rax,-0x980(%rbp)
    de6d:	48 8d 85 bc eb ff ff 	lea    -0x1444(%rbp),%rax
    de74:	48 89 85 88 f6 ff ff 	mov    %rax,-0x978(%rbp)
    de7b:	48 c7 85 90 f6 ff ff 	movq   $0x0,-0x970(%rbp)
    de82:	00 00 00 00 
    de86:	48 8d 85 c8 eb ff ff 	lea    -0x1438(%rbp),%rax
    de8d:	48 89 85 98 f6 ff ff 	mov    %rax,-0x968(%rbp)
    de94:	48 c7 85 a0 f6 ff ff 	movq   $0x0,-0x960(%rbp)
    de9b:	00 00 00 00 
    de9f:	48 8d 85 bc eb ff ff 	lea    -0x1444(%rbp),%rax
    dea6:	48 89 85 a8 f6 ff ff 	mov    %rax,-0x958(%rbp)
    dead:	48 8d 85 bc eb ff ff 	lea    -0x1444(%rbp),%rax
    deb4:	48 89 85 b0 f6 ff ff 	mov    %rax,-0x950(%rbp)
    debb:	48 8d 85 d0 eb ff ff 	lea    -0x1430(%rbp),%rax
    dec2:	48 89 85 b8 f6 ff ff 	mov    %rax,-0x948(%rbp)
    dec9:	48 c7 85 c0 f6 ff ff 	movq   $0x0,-0x940(%rbp)
    ded0:	00 00 00 00 
    ded4:	48 8d 85 bc eb ff ff 	lea    -0x1444(%rbp),%rax
    dedb:	48 89 85 c8 f6 ff ff 	mov    %rax,-0x938(%rbp)
    dee2:	48 8d 85 c0 eb ff ff 	lea    -0x1440(%rbp),%rax
    dee9:	48 89 85 d0 f6 ff ff 	mov    %rax,-0x930(%rbp)
    def0:	48 8d 85 c8 eb ff ff 	lea    -0x1438(%rbp),%rax
    def7:	48 89 85 d8 f6 ff ff 	mov    %rax,-0x928(%rbp)
    defe:	48 8d 85 c0 eb ff ff 	lea    -0x1440(%rbp),%rax
    df05:	48 89 85 e0 f6 ff ff 	mov    %rax,-0x920(%rbp)
    df0c:	48 8d 85 bc eb ff ff 	lea    -0x1444(%rbp),%rax
    df13:	48 89 85 e8 f6 ff ff 	mov    %rax,-0x918(%rbp)
    df1a:	48 c7 85 f0 f6 ff ff 	movq   $0x0,-0x910(%rbp)
    df21:	00 00 00 00 
    df25:	48 8d 85 d0 eb ff ff 	lea    -0x1430(%rbp),%rax
    df2c:	48 89 85 f8 f6 ff ff 	mov    %rax,-0x908(%rbp)
    df33:	48 8d 85 bc eb ff ff 	lea    -0x1444(%rbp),%rax
    df3a:	48 89 85 00 f7 ff ff 	mov    %rax,-0x900(%rbp)
    df41:	48 8d 85 bc eb ff ff 	lea    -0x1444(%rbp),%rax
    df48:	48 89 85 08 f7 ff ff 	mov    %rax,-0x8f8(%rbp)
    df4f:	48 c7 85 10 f7 ff ff 	movq   $0x0,-0x8f0(%rbp)
    df56:	00 00 00 00 
    df5a:	48 8d 85 c8 eb ff ff 	lea    -0x1438(%rbp),%rax
    df61:	48 89 85 18 f7 ff ff 	mov    %rax,-0x8e8(%rbp)
    df68:	48 c7 85 20 f7 ff ff 	movq   $0x0,-0x8e0(%rbp)
    df6f:	00 00 00 00 
    df73:	48 8d 85 bc eb ff ff 	lea    -0x1444(%rbp),%rax
    df7a:	48 89 85 28 f7 ff ff 	mov    %rax,-0x8d8(%rbp)
    df81:	48 8d 85 bc eb ff ff 	lea    -0x1444(%rbp),%rax
    df88:	48 89 85 30 f7 ff ff 	mov    %rax,-0x8d0(%rbp)
    df8f:	48 8d 85 d0 eb ff ff 	lea    -0x1430(%rbp),%rax
    df96:	48 89 85 38 f7 ff ff 	mov    %rax,-0x8c8(%rbp)
    df9d:	48 c7 85 40 f7 ff ff 	movq   $0x0,-0x8c0(%rbp)
    dfa4:	00 00 00 00 
    dfa8:	48 8d 85 bc eb ff ff 	lea    -0x1444(%rbp),%rax
    dfaf:	48 89 85 48 f7 ff ff 	mov    %rax,-0x8b8(%rbp)
    dfb6:	48 8d 85 c0 eb ff ff 	lea    -0x1440(%rbp),%rax
    dfbd:	48 89 85 50 f7 ff ff 	mov    %rax,-0x8b0(%rbp)
    dfc4:	48 8d 85 c8 eb ff ff 	lea    -0x1438(%rbp),%rax
    dfcb:	48 89 85 58 f7 ff ff 	mov    %rax,-0x8a8(%rbp)
    dfd2:	48 8d 85 c0 eb ff ff 	lea    -0x1440(%rbp),%rax
    dfd9:	48 89 85 60 f7 ff ff 	mov    %rax,-0x8a0(%rbp)
    dfe0:	48 8d 85 bc eb ff ff 	lea    -0x1444(%rbp),%rax
    dfe7:	48 89 85 68 f7 ff ff 	mov    %rax,-0x898(%rbp)
    dfee:	48 c7 85 70 f7 ff ff 	movq   $0x0,-0x890(%rbp)
    dff5:	00 00 00 00 
    dff9:	48 8d 85 d0 eb ff ff 	lea    -0x1430(%rbp),%rax
    e000:	48 89 85 78 f7 ff ff 	mov    %rax,-0x888(%rbp)
    e007:	48 8d 85 bc eb ff ff 	lea    -0x1444(%rbp),%rax
    e00e:	48 89 85 80 f7 ff ff 	mov    %rax,-0x880(%rbp)
    e015:	48 8d 85 bc eb ff ff 	lea    -0x1444(%rbp),%rax
    e01c:	48 89 85 88 f7 ff ff 	mov    %rax,-0x878(%rbp)
    e023:	48 c7 85 90 f7 ff ff 	movq   $0x0,-0x870(%rbp)
    e02a:	00 00 00 00 
    e02e:	48 8d 85 c8 eb ff ff 	lea    -0x1438(%rbp),%rax
    e035:	48 89 85 98 f7 ff ff 	mov    %rax,-0x868(%rbp)
    e03c:	48 c7 85 a0 f7 ff ff 	movq   $0x0,-0x860(%rbp)
    e043:	00 00 00 00 
    e047:	48 8d 85 bc eb ff ff 	lea    -0x1444(%rbp),%rax
    e04e:	48 89 85 a8 f7 ff ff 	mov    %rax,-0x858(%rbp)
    e055:	48 8d 85 bc eb ff ff 	lea    -0x1444(%rbp),%rax
    e05c:	48 89 85 b0 f7 ff ff 	mov    %rax,-0x850(%rbp)
    e063:	48 8d 85 d0 eb ff ff 	lea    -0x1430(%rbp),%rax
    e06a:	48 89 85 b8 f7 ff ff 	mov    %rax,-0x848(%rbp)
    e071:	48 c7 85 c0 f7 ff ff 	movq   $0x0,-0x840(%rbp)
    e078:	00 00 00 00 
    e07c:	48 8d 85 bc eb ff ff 	lea    -0x1444(%rbp),%rax
    e083:	48 89 85 c8 f7 ff ff 	mov    %rax,-0x838(%rbp)
    e08a:	48 8d 85 c0 eb ff ff 	lea    -0x1440(%rbp),%rax
    e091:	48 89 85 d0 f7 ff ff 	mov    %rax,-0x830(%rbp)
    e098:	48 8d 85 c8 eb ff ff 	lea    -0x1438(%rbp),%rax
    e09f:	48 89 85 d8 f7 ff ff 	mov    %rax,-0x828(%rbp)
    e0a6:	48 8d 85 c0 eb ff ff 	lea    -0x1440(%rbp),%rax
    e0ad:	48 89 85 e0 f7 ff ff 	mov    %rax,-0x820(%rbp)
    e0b4:	48 8d 85 bc eb ff ff 	lea    -0x1444(%rbp),%rax
    e0bb:	48 89 85 e8 f7 ff ff 	mov    %rax,-0x818(%rbp)
    e0c2:	48 c7 85 f0 f7 ff ff 	movq   $0x0,-0x810(%rbp)
    e0c9:	00 00 00 00 
    e0cd:	48 8d 85 d0 eb ff ff 	lea    -0x1430(%rbp),%rax
    e0d4:	48 89 85 f8 f7 ff ff 	mov    %rax,-0x808(%rbp)
    e0db:	48 8d 85 bc eb ff ff 	lea    -0x1444(%rbp),%rax
    e0e2:	48 89 85 00 f8 ff ff 	mov    %rax,-0x800(%rbp)
    e0e9:	48 8d 85 bc eb ff ff 	lea    -0x1444(%rbp),%rax
    e0f0:	48 89 85 08 f8 ff ff 	mov    %rax,-0x7f8(%rbp)
    e0f7:	48 c7 85 10 f8 ff ff 	movq   $0x0,-0x7f0(%rbp)
    e0fe:	00 00 00 00 
    e102:	48 8d 85 c8 eb ff ff 	lea    -0x1438(%rbp),%rax
    e109:	48 89 85 18 f8 ff ff 	mov    %rax,-0x7e8(%rbp)
    e110:	48 c7 85 20 f8 ff ff 	movq   $0x0,-0x7e0(%rbp)
    e117:	00 00 00 00 
    e11b:	48 8d 85 bc eb ff ff 	lea    -0x1444(%rbp),%rax
    e122:	48 89 85 28 f8 ff ff 	mov    %rax,-0x7d8(%rbp)
    e129:	c7 85 4c ec ff ff 01 	movl   $0x1,-0x13b4(%rbp)
    e130:	00 00 00 
    e133:	c7 85 f0 eb ff ff 00 	movl   $0x0,-0x1410(%rbp)
    e13a:	00 00 00 
    e13d:	eb 1e                	jmp    e15d <func_53+0xc9a>
    e13f:	8b 85 f0 eb ff ff    	mov    -0x1410(%rbp),%eax
    e145:	48 98                	cltq   
    e147:	48 8d 15 ca d2 00 00 	lea    0xd2ca(%rip),%rdx        # 1b418 <g_1841>
    e14e:	48 89 94 c5 30 f0 ff 	mov    %rdx,-0xfd0(%rbp,%rax,8)
    e155:	ff 
    e156:	83 85 f0 eb ff ff 01 	addl   $0x1,-0x1410(%rbp)
    e15d:	83 bd f0 eb ff ff 01 	cmpl   $0x1,-0x1410(%rbp)
    e164:	7e d9                	jle    e13f <func_53+0xc7c>
    e166:	c7 85 f0 eb ff ff 00 	movl   $0x0,-0x1410(%rbp)
    e16d:	00 00 00 
    e170:	eb 1a                	jmp    e18c <func_53+0xcc9>
    e172:	8b 85 f0 eb ff ff    	mov    -0x1410(%rbp),%eax
    e178:	48 98                	cltq   
    e17a:	c7 84 85 80 f0 ff ff 	movl   $0x544d1878,-0xf80(%rbp,%rax,4)
    e181:	78 18 4d 54 
    e185:	83 85 f0 eb ff ff 01 	addl   $0x1,-0x1410(%rbp)
    e18c:	83 bd f0 eb ff ff 07 	cmpl   $0x7,-0x1410(%rbp)
    e193:	7e dd                	jle    e172 <func_53+0xcaf>
    e195:	48 0f be 85 84 eb ff 	movsbq -0x147c(%rbp),%rax
    e19c:	ff 
    e19d:	48 89 05 44 e3 00 00 	mov    %rax,0xe344(%rip)        # 1c4e8 <g_1180>
    e1a4:	48 8b 85 88 eb ff ff 	mov    -0x1478(%rbp),%rax
    e1ab:	48 3b 85 60 ed ff ff 	cmp    -0x12a0(%rbp),%rax
    e1b2:	0f be 95 84 eb ff ff 	movsbl -0x147c(%rbp),%edx
    e1b9:	80 bd 84 eb ff ff 00 	cmpb   $0x0,-0x147c(%rbp)
    e1c0:	74 27                	je     e1e9 <func_53+0xd26>
    e1c2:	48 8b 05 3f d0 00 00 	mov    0xd03f(%rip),%rax        # 1b208 <g_497>
    e1c9:	48 8b 00             	mov    (%rax),%rax
    e1cc:	48 85 c0             	test   %rax,%rax
    e1cf:	74 18                	je     e1e9 <func_53+0xd26>
    e1d1:	0f be 8d 84 eb ff ff 	movsbl -0x147c(%rbp),%ecx
    e1d8:	8b 85 cc eb ff ff    	mov    -0x1434(%rbp),%eax
    e1de:	39 c1                	cmp    %eax,%ecx
    e1e0:	74 07                	je     e1e9 <func_53+0xd26>
    e1e2:	b8 01 00 00 00       	mov    $0x1,%eax
    e1e7:	eb 05                	jmp    e1ee <func_53+0xd2b>
    e1e9:	b8 00 00 00 00       	mov    $0x0,%eax
    e1ee:	89 c1                	mov    %eax,%ecx
    e1f0:	48 8b 85 88 eb ff ff 	mov    -0x1478(%rbp),%rax
    e1f7:	88 08                	mov    %cl,(%rax)
    e1f9:	48 8b 85 88 eb ff ff 	mov    -0x1478(%rbp),%rax
    e200:	0f b6 00             	movzbl (%rax),%eax
    e203:	0f be c0             	movsbl %al,%eax
    e206:	89 d6                	mov    %edx,%esi
    e208:	89 c7                	mov    %eax,%edi
    e20a:	e8 03 90 ff ff       	callq  7212 <safe_mul_func_int8_t_s_s>
    e20f:	0f be d0             	movsbl %al,%edx
    e212:	8b 05 bc ae 00 00    	mov    0xaebc(%rip),%eax        # 190d4 <g_218>
    e218:	39 c2                	cmp    %eax,%edx
    e21a:	0f b6 85 84 eb ff ff 	movzbl -0x147c(%rbp),%eax
    e221:	0f b6 c0             	movzbl %al,%eax
    e224:	be 04 00 00 00       	mov    $0x4,%esi
    e229:	89 c7                	mov    %eax,%edi
    e22b:	e8 d5 99 ff ff       	callq  7c05 <safe_lshift_func_uint8_t_u_s>
    e230:	84 c0                	test   %al,%al
    e232:	74 07                	je     e23b <func_53+0xd78>
    e234:	b8 01 00 00 00       	mov    $0x1,%eax
    e239:	eb 05                	jmp    e240 <func_53+0xd7d>
    e23b:	b8 00 00 00 00       	mov    $0x0,%eax
    e240:	48 63 d0             	movslq %eax,%rdx
    e243:	48 8b 05 6e ae 00 00 	mov    0xae6e(%rip),%rax        # 190b8 <g_180>
    e24a:	48 21 d0             	and    %rdx,%rax
    e24d:	48 89 05 64 ae 00 00 	mov    %rax,0xae64(%rip)        # 190b8 <g_180>
    e254:	48 8b 05 5d ae 00 00 	mov    0xae5d(%rip),%rax        # 190b8 <g_180>
    e25b:	89 c2                	mov    %eax,%edx
    e25d:	48 8b 85 b0 ec ff ff 	mov    -0x1350(%rbp),%rax
    e264:	21 d0                	and    %edx,%eax
    e266:	89 85 cc eb ff ff    	mov    %eax,-0x1434(%rbp)
    e26c:	8b 9d 40 ec ff ff    	mov    -0x13c0(%rbp),%ebx
    e272:	8b 85 b8 eb ff ff    	mov    -0x1448(%rbp),%eax
    e278:	4c 63 e8             	movslq %eax,%r13
    e27b:	48 8b 85 88 eb ff ff 	mov    -0x1478(%rbp),%rax
    e282:	0f b6 00             	movzbl (%rax),%eax
    e285:	44 0f be e0          	movsbl %al,%r12d
    e289:	48 8b 95 b0 ec ff ff 	mov    -0x1350(%rbp),%rdx
    e290:	48 8b 85 b0 ec ff ff 	mov    -0x1350(%rbp),%rax
    e297:	48 89 d6             	mov    %rdx,%rsi
    e29a:	48 89 c7             	mov    %rax,%rdi
    e29d:	e8 12 97 ff ff       	callq  79b4 <safe_mod_func_int64_t_s_s>
    e2a2:	48 c7 c6 ff ff ff ff 	mov    $0xffffffffffffffff,%rsi
    e2a9:	bf 00 00 00 00       	mov    $0x0,%edi
    e2ae:	e8 f5 95 ff ff       	callq  78a8 <safe_sub_func_int64_t_s_s>
    e2b3:	0f be c0             	movsbl %al,%eax
    e2b6:	44 89 e6             	mov    %r12d,%esi
    e2b9:	89 c7                	mov    %eax,%edi
    e2bb:	e8 e1 8f ff ff       	callq  72a1 <safe_lshift_func_int8_t_s_s>
    e2c0:	84 c0                	test   %al,%al
    e2c2:	be 01 00 00 00       	mov    $0x1,%esi
    e2c7:	48 bf 13 a5 8f 07 63 	movabs $0xc2511063078fa513,%rdi
    e2ce:	10 51 c2 
    e2d1:	e8 d2 95 ff ff       	callq  78a8 <safe_sub_func_int64_t_s_s>
    e2d6:	49 39 c5             	cmp    %rax,%r13
    e2d9:	0f 95 c0             	setne  %al
    e2dc:	0f b6 d0             	movzbl %al,%edx
    e2df:	48 8b 8d e8 ec ff ff 	mov    -0x1318(%rbp),%rcx
    e2e6:	48 8d 85 e0 ec ff ff 	lea    -0x1320(%rbp),%rax
    e2ed:	48 39 c1             	cmp    %rax,%rcx
    e2f0:	0f 95 c0             	setne  %al
    e2f3:	0f b6 c0             	movzbl %al,%eax
    e2f6:	89 d6                	mov    %edx,%esi
    e2f8:	89 c7                	mov    %eax,%edi
    e2fa:	e8 93 91 ff ff       	callq  7492 <safe_lshift_func_int16_t_s_s>
    e2ff:	0f be c0             	movsbl %al,%eax
    e302:	89 de                	mov    %ebx,%esi
    e304:	89 c7                	mov    %eax,%edi
    e306:	e8 2a 90 ff ff       	callq  7335 <safe_rshift_func_int8_t_s_s>
    e30b:	f7 d0                	not    %eax
    e30d:	48 0f be c8          	movsbq %al,%rcx
    e311:	48 8b 85 f0 ec ff ff 	mov    -0x1310(%rbp),%rax
    e318:	8b 10                	mov    (%rax),%edx
    e31a:	48 8b 85 f0 ec ff ff 	mov    -0x1310(%rbp),%rax
    e321:	21 ca                	and    %ecx,%edx
    e323:	89 10                	mov    %edx,(%rax)
    e325:	8b 00                	mov    (%rax),%eax
    e327:	85 c0                	test   %eax,%eax
    e329:	0f 84 95 19 00 00    	je     fcc4 <func_53+0x2801>
    e32f:	48 8d 05 4a ad 00 00 	lea    0xad4a(%rip),%rax        # 19080 <g_109>
    e336:	48 89 85 00 ed ff ff 	mov    %rax,-0x1300(%rbp)
    e33d:	48 8d 85 00 ed ff ff 	lea    -0x1300(%rbp),%rax
    e344:	48 89 85 08 ed ff ff 	mov    %rax,-0x12f8(%rbp)
    e34b:	48 8d 85 08 ed ff ff 	lea    -0x12f8(%rbp),%rax
    e352:	48 89 85 10 ed ff ff 	mov    %rax,-0x12f0(%rbp)
    e359:	48 c7 85 18 ed ff ff 	movq   $0x0,-0x12e8(%rbp)
    e360:	00 00 00 00 
    e364:	c7 85 60 f0 ff ff c5 	movl   $0x35082fc5,-0xfa0(%rbp)
    e36b:	2f 08 35 
    e36e:	c7 85 64 f0 ff ff c5 	movl   $0x35082fc5,-0xf9c(%rbp)
    e375:	2f 08 35 
    e378:	c7 85 68 f0 ff ff 00 	movl   $0x0,-0xf98(%rbp)
    e37f:	00 00 00 
    e382:	c7 85 6c f0 ff ff c5 	movl   $0x35082fc5,-0xf94(%rbp)
    e389:	2f 08 35 
    e38c:	c7 85 70 f0 ff ff c5 	movl   $0x35082fc5,-0xf90(%rbp)
    e393:	2f 08 35 
    e396:	c7 85 74 f0 ff ff 00 	movl   $0x0,-0xf8c(%rbp)
    e39d:	00 00 00 
    e3a0:	c7 85 78 f0 ff ff c5 	movl   $0x35082fc5,-0xf88(%rbp)
    e3a7:	2f 08 35 
    e3aa:	c7 85 74 ec ff ff fb 	movl   $0xfffffffb,-0x138c(%rbp)
    e3b1:	ff ff ff 
    e3b4:	48 8d 85 9f eb ff ff 	lea    -0x1461(%rbp),%rax
    e3bb:	48 89 85 20 ed ff ff 	mov    %rax,-0x12e0(%rbp)
    e3c2:	48 c7 85 90 ee ff ff 	movq   $0x4,-0x1170(%rbp)
    e3c9:	04 00 00 00 
    e3cd:	48 b8 a7 a8 1d 39 a3 	movabs $0xbef449a3391da8a7,%rax
    e3d4:	49 f4 be 
    e3d7:	48 89 85 98 ee ff ff 	mov    %rax,-0x1168(%rbp)
    e3de:	48 c7 85 28 ed ff ff 	movq   $0x0,-0x12d8(%rbp)
    e3e5:	00 00 00 00 
    e3e9:	48 8d 85 28 ed ff ff 	lea    -0x12d8(%rbp),%rax
    e3f0:	48 89 85 a0 ee ff ff 	mov    %rax,-0x1160(%rbp)
    e3f7:	48 8d 85 08 ed ff ff 	lea    -0x12f8(%rbp),%rax
    e3fe:	48 89 85 30 ed ff ff 	mov    %rax,-0x12d0(%rbp)
    e405:	48 8d 85 30 ed ff ff 	lea    -0x12d0(%rbp),%rax
    e40c:	48 89 85 38 ed ff ff 	mov    %rax,-0x12c8(%rbp)
    e413:	48 8d 85 38 ed ff ff 	lea    -0x12c8(%rbp),%rax
    e41a:	48 89 85 a8 ee ff ff 	mov    %rax,-0x1158(%rbp)
    e421:	48 c7 85 b0 ee ff ff 	movq   $0x0,-0x1150(%rbp)
    e428:	00 00 00 00 
    e42c:	48 c7 85 b8 ee ff ff 	movq   $0x0,-0x1148(%rbp)
    e433:	00 00 00 00 
    e437:	48 8d 85 10 f5 ff ff 	lea    -0xaf0(%rbp),%rax
    e43e:	48 8d 15 9b c2 00 00 	lea    0xc29b(%rip),%rdx        # 1a6e0 <g_2946+0xcf0>
    e445:	b9 24 00 00 00       	mov    $0x24,%ecx
    e44a:	48 89 c7             	mov    %rax,%rdi
    e44d:	48 89 d6             	mov    %rdx,%rsi
    e450:	f3 48 a5             	rep movsq %ds:(%rsi),%es:(%rdi)
    e453:	c7 85 f4 eb ff ff 00 	movl   $0x0,-0x140c(%rbp)
    e45a:	00 00 00 
    e45d:	eb 4c                	jmp    e4ab <func_53+0xfe8>
    e45f:	c7 85 f8 eb ff ff 00 	movl   $0x0,-0x1408(%rbp)
    e466:	00 00 00 
    e469:	eb 30                	jmp    e49b <func_53+0xfd8>
    e46b:	8b 85 f8 eb ff ff    	mov    -0x1408(%rbp),%eax
    e471:	48 63 c8             	movslq %eax,%rcx
    e474:	8b 85 f4 eb ff ff    	mov    -0x140c(%rbp),%eax
    e47a:	48 63 d0             	movslq %eax,%rdx
    e47d:	48 89 d0             	mov    %rdx,%rax
    e480:	48 01 c0             	add    %rax,%rax
    e483:	48 01 d0             	add    %rdx,%rax
    e486:	48 01 c8             	add    %rcx,%rax
    e489:	c7 84 85 e0 f0 ff ff 	movl   $0xfffffff9,-0xf20(%rbp,%rax,4)
    e490:	f9 ff ff ff 
    e494:	83 85 f8 eb ff ff 01 	addl   $0x1,-0x1408(%rbp)
    e49b:	83 bd f8 eb ff ff 02 	cmpl   $0x2,-0x1408(%rbp)
    e4a2:	7e c7                	jle    e46b <func_53+0xfa8>
    e4a4:	83 85 f4 eb ff ff 01 	addl   $0x1,-0x140c(%rbp)
    e4ab:	83 bd f4 eb ff ff 02 	cmpl   $0x2,-0x140c(%rbp)
    e4b2:	7e ab                	jle    e45f <func_53+0xf9c>
    e4b4:	83 bd 40 ec ff ff 00 	cmpl   $0x0,-0x13c0(%rbp)
    e4bb:	0f 84 2d 03 00 00    	je     e7ee <func_53+0x132b>
    e4c1:	66 c7 85 b6 eb ff ff 	movw   $0x90b9,-0x144a(%rbp)
    e4c8:	b9 90 
    e4ca:	c7 85 a8 ec ff ff c1 	movl   $0x762ab0c1,-0x1358(%rbp)
    e4d1:	b0 2a 76 
    e4d4:	c7 85 fc eb ff ff 00 	movl   $0x0,-0x1404(%rbp)
    e4db:	00 00 00 
    e4de:	eb 1a                	jmp    e4fa <func_53+0x1037>
    e4e0:	8b 85 fc eb ff ff    	mov    -0x1404(%rbp),%eax
    e4e6:	48 98                	cltq   
    e4e8:	c7 84 85 c0 f1 ff ff 	movl   $0xdc865233,-0xe40(%rbp,%rax,4)
    e4ef:	33 52 86 dc 
    e4f3:	83 85 fc eb ff ff 01 	addl   $0x1,-0x1404(%rbp)
    e4fa:	83 bd fc eb ff ff 01 	cmpl   $0x1,-0x1404(%rbp)
    e501:	7e dd                	jle    e4e0 <func_53+0x101d>
    e503:	c7 85 fc eb ff ff 00 	movl   $0x0,-0x1404(%rbp)
    e50a:	00 00 00 
    e50d:	eb 1e                	jmp    e52d <func_53+0x106a>
    e50f:	8b 85 fc eb ff ff    	mov    -0x1404(%rbp),%eax
    e515:	48 98                	cltq   
    e517:	48 8d 95 c4 eb ff ff 	lea    -0x143c(%rbp),%rdx
    e51e:	48 89 94 c5 30 f2 ff 	mov    %rdx,-0xdd0(%rbp,%rax,8)
    e525:	ff 
    e526:	83 85 fc eb ff ff 01 	addl   $0x1,-0x1404(%rbp)
    e52d:	83 bd fc eb ff ff 01 	cmpl   $0x1,-0x1404(%rbp)
    e534:	7e d9                	jle    e50f <func_53+0x104c>
    e536:	80 bd 84 eb ff ff 00 	cmpb   $0x0,-0x147c(%rbp)
    e53d:	74 50                	je     e58f <func_53+0x10cc>
    e53f:	48 8b 85 f0 ec ff ff 	mov    -0x1310(%rbp),%rax
    e546:	0f be 95 84 eb ff ff 	movsbl -0x147c(%rbp),%edx
    e54d:	89 10                	mov    %edx,(%rax)
    e54f:	83 bd 44 ec ff ff 00 	cmpl   $0x0,-0x13bc(%rbp)
    e556:	90                   	nop
    e557:	f3 0f 1e fa          	endbr64 
    e55b:	48 8b 05 76 ce 00 00 	mov    0xce76(%rip),%rax        # 1b3d8 <g_1521>
    e562:	48 8b 95 10 ed ff ff 	mov    -0x12f0(%rbp),%rdx
    e569:	48 89 10             	mov    %rdx,(%rax)
    e56c:	c6 05 3e ac 00 00 00 	movb   $0x0,0xac3e(%rip)        # 191b1 <g_361>
    e573:	90                   	nop
    e574:	0f b6 05 36 ac 00 00 	movzbl 0xac36(%rip),%eax        # 191b1 <g_361>
    e57b:	3c 0f                	cmp    $0xf,%al
    e57d:	0f 86 88 01 00 00    	jbe    e70b <func_53+0x1248>
    e583:	48 8b 85 18 ed ff ff 	mov    -0x12e8(%rbp),%rax
    e58a:	e9 36 39 00 00       	jmpq   11ec5 <func_53+0x4a02>
    e58f:	c7 85 50 ed ff ff 8f 	movl   $0x5b18828f,-0x12b0(%rbp)
    e596:	82 18 5b 
    e599:	c6 85 aa eb ff ff 61 	movb   $0x61,-0x1456(%rbp)
    e5a0:	c7 85 c0 f2 ff ff 06 	movl   $0x6,-0xd40(%rbp)
    e5a7:	00 00 00 
    e5aa:	c7 85 c4 f2 ff ff ff 	movl   $0xffffffff,-0xd3c(%rbp)
    e5b1:	ff ff ff 
    e5b4:	c7 85 c8 f2 ff ff ff 	movl   $0xffffffff,-0xd38(%rbp)
    e5bb:	ff ff ff 
    e5be:	c7 85 cc f2 ff ff 06 	movl   $0x6,-0xd34(%rbp)
    e5c5:	00 00 00 
    e5c8:	c7 85 d0 f2 ff ff ff 	movl   $0xffffffff,-0xd30(%rbp)
    e5cf:	ff ff ff 
    e5d2:	c7 85 d4 f2 ff ff ff 	movl   $0xffffffff,-0xd2c(%rbp)
    e5d9:	ff ff ff 
    e5dc:	48 8b 85 f0 ec ff ff 	mov    -0x1310(%rbp),%rax
    e5e3:	0f be 95 84 eb ff ff 	movsbl -0x147c(%rbp),%edx
    e5ea:	89 10                	mov    %edx,(%rax)
    e5ec:	8b 00                	mov    (%rax),%eax
    e5ee:	89 85 50 ed ff ff    	mov    %eax,-0x12b0(%rbp)
    e5f4:	48 c7 05 79 aa 00 00 	movq   $0x0,0xaa79(%rip)        # 19078 <g_106>
    e5fb:	00 00 00 00 
    e5ff:	e9 f6 00 00 00       	jmpq   e6fa <func_53+0x1237>
    e604:	48 8d 05 4d aa 00 00 	lea    0xaa4d(%rip),%rax        # 19058 <g_65>
    e60b:	48 89 85 d0 ef ff ff 	mov    %rax,-0x1030(%rbp)
    e612:	48 8d 85 cc eb ff ff 	lea    -0x1434(%rbp),%rax
    e619:	48 89 85 d8 ef ff ff 	mov    %rax,-0x1028(%rbp)
    e620:	48 8d 85 50 ed ff ff 	lea    -0x12b0(%rbp),%rax
    e627:	48 89 85 e0 ef ff ff 	mov    %rax,-0x1020(%rbp)
    e62e:	48 8d 05 23 aa 00 00 	lea    0xaa23(%rip),%rax        # 19058 <g_65>
    e635:	48 89 85 e8 ef ff ff 	mov    %rax,-0x1018(%rbp)
    e63c:	c6 85 ab eb ff ff 15 	movb   $0x15,-0x1455(%rbp)
    e643:	c7 85 00 ec ff ff 00 	movl   $0x0,-0x1400(%rbp)
    e64a:	00 00 00 
    e64d:	eb 72                	jmp    e6c1 <func_53+0x11fe>
    e64f:	c7 85 04 ec ff ff 00 	movl   $0x0,-0x13fc(%rbp)
    e656:	00 00 00 
    e659:	eb 56                	jmp    e6b1 <func_53+0x11ee>
    e65b:	c7 85 08 ec ff ff 00 	movl   $0x0,-0x13f8(%rbp)
    e662:	00 00 00 
    e665:	eb 3a                	jmp    e6a1 <func_53+0x11de>
    e667:	8b 85 08 ec ff ff    	mov    -0x13f8(%rbp),%eax
    e66d:	48 98                	cltq   
    e66f:	8b 95 00 ec ff ff    	mov    -0x1400(%rbp),%edx
    e675:	48 63 ca             	movslq %edx,%rcx
    e678:	8b 95 04 ec ff ff    	mov    -0x13fc(%rbp),%edx
    e67e:	48 63 d2             	movslq %edx,%rdx
    e681:	48 01 ca             	add    %rcx,%rdx
    e684:	48 c1 e2 02          	shl    $0x2,%rdx
    e688:	48 01 d0             	add    %rdx,%rax
    e68b:	48 8d 15 2e aa 00 00 	lea    0xaa2e(%rip),%rdx        # 190c0 <g_186>
    e692:	48 89 94 c5 30 f8 ff 	mov    %rdx,-0x7d0(%rbp,%rax,8)
    e699:	ff 
    e69a:	83 85 08 ec ff ff 01 	addl   $0x1,-0x13f8(%rbp)
    e6a1:	83 bd 08 ec ff ff 03 	cmpl   $0x3,-0x13f8(%rbp)
    e6a8:	7e bd                	jle    e667 <func_53+0x11a4>
    e6aa:	83 85 04 ec ff ff 01 	addl   $0x1,-0x13fc(%rbp)
    e6b1:	83 bd 04 ec ff ff 00 	cmpl   $0x0,-0x13fc(%rbp)
    e6b8:	7e a1                	jle    e65b <func_53+0x1198>
    e6ba:	83 85 00 ec ff ff 01 	addl   $0x1,-0x1400(%rbp)
    e6c1:	83 bd 00 ec ff ff 05 	cmpl   $0x5,-0x1400(%rbp)
    e6c8:	7e 85                	jle    e64f <func_53+0x118c>
    e6ca:	0f b7 85 ac eb ff ff 	movzwl -0x1454(%rbp),%eax
    e6d1:	83 e8 01             	sub    $0x1,%eax
    e6d4:	66 89 85 ac eb ff ff 	mov    %ax,-0x1454(%rbp)
    e6db:	48 8b 85 f0 ec ff ff 	mov    -0x1310(%rbp),%rax
    e6e2:	c7 00 ff ff ff ff    	movl   $0xffffffff,(%rax)
    e6e8:	48 8b 05 89 a9 00 00 	mov    0xa989(%rip),%rax        # 19078 <g_106>
    e6ef:	48 83 e8 01          	sub    $0x1,%rax
    e6f3:	48 89 05 7e a9 00 00 	mov    %rax,0xa97e(%rip)        # 19078 <g_106>
    e6fa:	48 8b 05 77 a9 00 00 	mov    0xa977(%rip),%rax        # 19078 <g_106>
    e701:	48 83 f8 e3          	cmp    $0xffffffffffffffe3,%rax
    e705:	0f 8c f9 fe ff ff    	jl     e604 <func_53+0x1141>
    e70b:	48 c7 85 b0 ec ff ff 	movq   $0x0,-0x1350(%rbp)
    e712:	00 00 00 00 
    e716:	eb 3f                	jmp    e757 <func_53+0x1294>
    e718:	48 8d 85 cc eb ff ff 	lea    -0x1434(%rbp),%rax
    e71f:	48 89 85 50 ed ff ff 	mov    %rax,-0x12b0(%rbp)
    e726:	48 8d 85 50 ed ff ff 	lea    -0x12b0(%rbp),%rax
    e72d:	48 89 85 f8 ef ff ff 	mov    %rax,-0x1008(%rbp)
    e734:	48 8b 95 50 ed ff ff 	mov    -0x12b0(%rbp),%rdx
    e73b:	48 8b 85 f8 ef ff ff 	mov    -0x1008(%rbp),%rax
    e742:	48 89 10             	mov    %rdx,(%rax)
    e745:	48 8b 85 b0 ec ff ff 	mov    -0x1350(%rbp),%rax
    e74c:	48 83 c0 01          	add    $0x1,%rax
    e750:	48 89 85 b0 ec ff ff 	mov    %rax,-0x1350(%rbp)
    e757:	48 8b 85 b0 ec ff ff 	mov    -0x1350(%rbp),%rax
    e75e:	48 83 f8 07          	cmp    $0x7,%rax
    e762:	7e b4                	jle    e718 <func_53+0x1255>
    e764:	c6 05 ed dc 00 00 01 	movb   $0x1,0xdced(%rip)        # 1c458 <g_79>
    e76b:	eb 67                	jmp    e7d4 <func_53+0x1311>
    e76d:	0f b6 05 e4 dc 00 00 	movzbl 0xdce4(%rip),%eax        # 1c458 <g_79>
    e774:	0f be c0             	movsbl %al,%eax
    e777:	48 98                	cltq   
    e779:	8b 84 85 c0 f1 ff ff 	mov    -0xe40(%rbp,%rax,4),%eax
    e780:	85 c0                	test   %eax,%eax
    e782:	75 5d                	jne    e7e1 <func_53+0x131e>
    e784:	c6 05 25 aa 00 00 00 	movb   $0x0,0xaa25(%rip)        # 191b0 <g_358>
    e78b:	eb 2c                	jmp    e7b9 <func_53+0x12f6>
    e78d:	48 8d 85 d0 eb ff ff 	lea    -0x1430(%rbp),%rax
    e794:	48 89 85 f0 ef ff ff 	mov    %rax,-0x1010(%rbp)
    e79b:	48 8b 85 f0 ef ff ff 	mov    -0x1010(%rbp),%rax
    e7a2:	48 89 85 88 ed ff ff 	mov    %rax,-0x1278(%rbp)
    e7a9:	0f b6 05 00 aa 00 00 	movzbl 0xaa00(%rip),%eax        # 191b0 <g_358>
    e7b0:	83 c0 01             	add    $0x1,%eax
    e7b3:	88 05 f7 a9 00 00    	mov    %al,0xa9f7(%rip)        # 191b0 <g_358>
    e7b9:	0f b6 05 f0 a9 00 00 	movzbl 0xa9f0(%rip),%eax        # 191b0 <g_358>
    e7c0:	3c 2d                	cmp    $0x2d,%al
    e7c2:	76 c9                	jbe    e78d <func_53+0x12ca>
    e7c4:	0f b6 05 8d dc 00 00 	movzbl 0xdc8d(%rip),%eax        # 1c458 <g_79>
    e7cb:	83 e8 01             	sub    $0x1,%eax
    e7ce:	88 05 84 dc 00 00    	mov    %al,0xdc84(%rip)        # 1c458 <g_79>
    e7d4:	0f b6 05 7d dc 00 00 	movzbl 0xdc7d(%rip),%eax        # 1c458 <g_79>
    e7db:	84 c0                	test   %al,%al
    e7dd:	79 8e                	jns    e76d <func_53+0x12aa>
    e7df:	eb 01                	jmp    e7e2 <func_53+0x131f>
    e7e1:	90                   	nop
    e7e2:	83 85 74 ec ff ff 01 	addl   $0x1,-0x138c(%rbp)
    e7e9:	e9 30 14 00 00       	jmpq   fc1e <func_53+0x275b>
    e7ee:	c7 85 78 ec ff ff 7b 	movl   $0x824fb7b,-0x1388(%rbp)
    e7f5:	fb 24 08 
    e7f8:	48 8d 05 ed a9 00 00 	lea    0xa9ed(%rip),%rax        # 191ec <g_734>
    e7ff:	48 89 85 c0 ee ff ff 	mov    %rax,-0x1140(%rbp)
    e806:	c7 85 e0 eb ff ff fd 	movl   $0xfffffffd,-0x1420(%rbp)
    e80d:	ff ff ff 
    e810:	48 8d 85 10 ed ff ff 	lea    -0x12f0(%rbp),%rax
    e817:	48 89 85 40 ed ff ff 	mov    %rax,-0x12c0(%rbp)
    e81e:	48 8d 85 40 ed ff ff 	lea    -0x12c0(%rbp),%rax
    e825:	48 89 85 c8 ee ff ff 	mov    %rax,-0x1138(%rbp)
    e82c:	48 8d 85 28 ed ff ff 	lea    -0x12d8(%rbp),%rax
    e833:	48 89 85 48 ed ff ff 	mov    %rax,-0x12b8(%rbp)
    e83a:	66 c7 85 ae eb ff ff 	movw   $0x1,-0x1452(%rbp)
    e841:	01 00 
    e843:	c7 85 0c ec ff ff 00 	movl   $0x0,-0x13f4(%rbp)
    e84a:	00 00 00 
    e84d:	eb 1e                	jmp    e86d <func_53+0x13aa>
    e84f:	8b 85 0c ec ff ff    	mov    -0x13f4(%rbp),%eax
    e855:	48 98                	cltq   
    e857:	48 8d 15 42 a9 00 00 	lea    0xa942(%rip),%rdx        # 191a0 <g_306>
    e85e:	48 89 94 c5 a0 f0 ff 	mov    %rdx,-0xf60(%rbp,%rax,8)
    e865:	ff 
    e866:	83 85 0c ec ff ff 01 	addl   $0x1,-0x13f4(%rbp)
    e86d:	83 bd 0c ec ff ff 03 	cmpl   $0x3,-0x13f4(%rbp)
    e874:	7e d9                	jle    e84f <func_53+0x138c>
    e876:	c7 85 0c ec ff ff 00 	movl   $0x0,-0x13f4(%rbp)
    e87d:	00 00 00 
    e880:	eb 1a                	jmp    e89c <func_53+0x13d9>
    e882:	8b 85 0c ec ff ff    	mov    -0x13f4(%rbp),%eax
    e888:	48 98                	cltq   
    e88a:	c7 84 85 2c f0 ff ff 	movl   $0x0,-0xfd4(%rbp,%rax,4)
    e891:	00 00 00 00 
    e895:	83 85 0c ec ff ff 01 	addl   $0x1,-0x13f4(%rbp)
    e89c:	83 bd 0c ec ff ff 00 	cmpl   $0x0,-0x13f4(%rbp)
    e8a3:	7e dd                	jle    e882 <func_53+0x13bf>
    e8a5:	c7 85 0c ec ff ff 00 	movl   $0x0,-0x13f4(%rbp)
    e8ac:	00 00 00 
    e8af:	eb 74                	jmp    e925 <func_53+0x1462>
    e8b1:	c7 85 10 ec ff ff 00 	movl   $0x0,-0x13f0(%rbp)
    e8b8:	00 00 00 
    e8bb:	eb 58                	jmp    e915 <func_53+0x1452>
    e8bd:	c7 85 14 ec ff ff 00 	movl   $0x0,-0x13ec(%rbp)
    e8c4:	00 00 00 
    e8c7:	eb 3c                	jmp    e905 <func_53+0x1442>
    e8c9:	8b 85 14 ec ff ff    	mov    -0x13ec(%rbp),%eax
    e8cf:	48 63 c8             	movslq %eax,%rcx
    e8d2:	8b 85 0c ec ff ff    	mov    -0x13f4(%rbp),%eax
    e8d8:	48 63 d0             	movslq %eax,%rdx
    e8db:	8b 85 10 ec ff ff    	mov    -0x13f0(%rbp),%eax
    e8e1:	48 98                	cltq   
    e8e3:	48 01 c2             	add    %rax,%rdx
    e8e6:	48 89 d0             	mov    %rdx,%rax
    e8e9:	48 c1 e0 03          	shl    $0x3,%rax
    e8ed:	48 01 d0             	add    %rdx,%rax
    e8f0:	48 01 c8             	add    %rcx,%rax
    e8f3:	c7 84 85 30 f2 ff ff 	movl   $0xfffffff9,-0xdd0(%rbp,%rax,4)
    e8fa:	f9 ff ff ff 
    e8fe:	83 85 14 ec ff ff 01 	addl   $0x1,-0x13ec(%rbp)
    e905:	83 bd 14 ec ff ff 08 	cmpl   $0x8,-0x13ec(%rbp)
    e90c:	7e bb                	jle    e8c9 <func_53+0x1406>
    e90e:	83 85 10 ec ff ff 01 	addl   $0x1,-0x13f0(%rbp)
    e915:	83 bd 10 ec ff ff 00 	cmpl   $0x0,-0x13f0(%rbp)
    e91c:	7e 9f                	jle    e8bd <func_53+0x13fa>
    e91e:	83 85 0c ec ff ff 01 	addl   $0x1,-0x13f4(%rbp)
    e925:	83 bd 0c ec ff ff 03 	cmpl   $0x3,-0x13f4(%rbp)
    e92c:	7e 83                	jle    e8b1 <func_53+0x13ee>
    e92e:	8b 85 4c f2 ff ff    	mov    -0xdb4(%rbp),%eax
    e934:	0f be d8             	movsbl %al,%ebx
    e937:	8b 05 f7 aa 00 00    	mov    0xaaf7(%rip),%eax        # 19434 <g_1689+0x14>
    e93d:	48 8b 05 d4 c8 00 00 	mov    0xc8d4(%rip),%rax        # 1b218 <g_785>
    e944:	0f b7 00             	movzwl (%rax),%eax
    e947:	44 0f bf e0          	movswl %ax,%r12d
    e94b:	8b 05 f7 aa 00 00    	mov    0xaaf7(%rip),%eax        # 19448 <g_1708>
    e951:	89 c0                	mov    %eax,%eax
    e953:	48 89 c6             	mov    %rax,%rsi
    e956:	bf 01 00 00 00       	mov    $0x1,%edi
    e95b:	e8 e1 8e ff ff       	callq  7841 <safe_add_func_int64_t_s_s>
    e960:	be 39 b3 2d be       	mov    $0xbe2db339,%esi
    e965:	89 c7                	mov    %eax,%edi
    e967:	e8 4a 8c ff ff       	callq  75b6 <safe_add_func_int32_t_s_s>
    e96c:	48 8b 85 88 eb ff ff 	mov    -0x1478(%rbp),%rax
    e973:	0f b6 00             	movzbl (%rax),%eax
    e976:	f7 d0                	not    %eax
    e978:	c0 e8 07             	shr    $0x7,%al
    e97b:	0f b6 c0             	movzbl %al,%eax
    e97e:	44 89 e6             	mov    %r12d,%esi
    e981:	89 c7                	mov    %eax,%edi
    e983:	e8 c0 94 ff ff       	callq  7e48 <safe_rshift_func_uint16_t_u_s>
    e988:	66 85 c0             	test   %ax,%ax
    e98b:	74 10                	je     e99d <func_53+0x14da>
    e98d:	83 bd 40 ec ff ff 00 	cmpl   $0x0,-0x13c0(%rbp)
    e994:	74 07                	je     e99d <func_53+0x14da>
    e996:	b8 01 00 00 00       	mov    $0x1,%eax
    e99b:	eb 05                	jmp    e9a2 <func_53+0x14df>
    e99d:	b8 00 00 00 00       	mov    $0x0,%eax
    e9a2:	3d 6f 1b 00 00       	cmp    $0x1b6f,%eax
    e9a7:	0f 95 c0             	setne  %al
    e9aa:	0f b6 d0             	movzbl %al,%edx
    e9ad:	48 8b 05 64 c8 00 00 	mov    0xc864(%rip),%rax        # 1b218 <g_785>
    e9b4:	0f b7 00             	movzwl (%rax),%eax
    e9b7:	98                   	cwtl   
    e9b8:	89 d6                	mov    %edx,%esi
    e9ba:	89 c7                	mov    %eax,%edi
    e9bc:	e8 20 8b ff ff       	callq  74e1 <safe_lshift_func_int16_t_s_u>
    e9c1:	89 c2                	mov    %eax,%edx
    e9c3:	48 8b 85 88 eb ff ff 	mov    -0x1478(%rbp),%rax
    e9ca:	88 10                	mov    %dl,(%rax)
    e9cc:	48 0f be 85 84 eb ff 	movsbq -0x147c(%rbp),%rax
    e9d3:	ff 
    e9d4:	48 89 c6             	mov    %rax,%rsi
    e9d7:	48 bf 13 5b c6 ed 7c 	movabs $0x1522557cedc65b13,%rdi
    e9de:	55 22 15 
    e9e1:	e8 5b 8e ff ff       	callq  7841 <safe_add_func_int64_t_s_s>
    e9e6:	89 c2                	mov    %eax,%edx
    e9e8:	8b 85 60 f0 ff ff    	mov    -0xfa0(%rbp),%eax
    e9ee:	31 d0                	xor    %edx,%eax
    e9f0:	0f be c0             	movsbl %al,%eax
    e9f3:	89 de                	mov    %ebx,%esi
    e9f5:	89 c7                	mov    %eax,%edi
    e9f7:	e8 f6 87 ff ff       	callq  71f2 <safe_sub_func_int8_t_s_s>
    e9fc:	84 c0                	test   %al,%al
    e9fe:	0f 84 29 0c 00 00    	je     f62d <func_53+0x216a>
    ea04:	c7 85 e4 eb ff ff b0 	movl   $0x54e3a6b0,-0x141c(%rbp)
    ea0b:	a6 e3 54 
    ea0e:	c7 85 80 ec ff ff 58 	movl   $0xcda30a58,-0x1380(%rbp)
    ea15:	0a a3 cd 
    ea18:	c7 85 84 ec ff ff 18 	movl   $0x7e50f618,-0x137c(%rbp)
    ea1f:	f6 50 7e 
    ea22:	48 8d 05 4f a6 00 00 	lea    0xa64f(%rip),%rax        # 19078 <g_106>
    ea29:	48 89 85 d0 ee ff ff 	mov    %rax,-0x1130(%rbp)
    ea30:	c7 85 88 ec ff ff f7 	movl   $0xfffffff7,-0x1378(%rbp)
    ea37:	ff ff ff 
    ea3a:	c7 85 8c ec ff ff f6 	movl   $0xfffffff6,-0x1374(%rbp)
    ea41:	ff ff ff 
    ea44:	c7 85 90 ec ff ff 00 	movl   $0x0,-0x1370(%rbp)
    ea4b:	00 00 00 
    ea4e:	c7 85 30 f8 ff ff c9 	movl   $0xb677d5c9,-0x7d0(%rbp)
    ea55:	d5 77 b6 
    ea58:	c7 85 34 f8 ff ff a0 	movl   $0x22fa40a0,-0x7cc(%rbp)
    ea5f:	40 fa 22 
    ea62:	c7 85 38 f8 ff ff c9 	movl   $0xb677d5c9,-0x7c8(%rbp)
    ea69:	d5 77 b6 
    ea6c:	c7 85 3c f8 ff ff 00 	movl   $0x0,-0x7c4(%rbp)
    ea73:	00 00 00 
    ea76:	c7 85 40 f8 ff ff c9 	movl   $0xb677d5c9,-0x7c0(%rbp)
    ea7d:	d5 77 b6 
    ea80:	c7 85 44 f8 ff ff a0 	movl   $0x22fa40a0,-0x7bc(%rbp)
    ea87:	40 fa 22 
    ea8a:	c7 85 48 f8 ff ff c9 	movl   $0xb677d5c9,-0x7b8(%rbp)
    ea91:	d5 77 b6 
    ea94:	c7 85 4c f8 ff ff 00 	movl   $0x0,-0x7b4(%rbp)
    ea9b:	00 00 00 
    ea9e:	c7 85 50 f8 ff ff 06 	movl   $0x6,-0x7b0(%rbp)
    eaa5:	00 00 00 
    eaa8:	c7 85 54 f8 ff ff 06 	movl   $0x6,-0x7ac(%rbp)
    eaaf:	00 00 00 
    eab2:	c7 85 58 f8 ff ff 00 	movl   $0x0,-0x7a8(%rbp)
    eab9:	00 00 00 
    eabc:	c7 85 5c f8 ff ff a3 	movl   $0x76dbe4a3,-0x7a4(%rbp)
    eac3:	e4 db 76 
    eac6:	c7 85 60 f8 ff ff 00 	movl   $0x0,-0x7a0(%rbp)
    eacd:	00 00 00 
    ead0:	c7 85 64 f8 ff ff 00 	movl   $0x0,-0x79c(%rbp)
    ead7:	00 00 00 
    eada:	c7 85 68 f8 ff ff 00 	movl   $0x0,-0x798(%rbp)
    eae1:	00 00 00 
    eae4:	c7 85 6c f8 ff ff a0 	movl   $0x22fa40a0,-0x794(%rbp)
    eaeb:	40 fa 22 
    eaee:	c7 85 70 f8 ff ff fb 	movl   $0xfffffffb,-0x790(%rbp)
    eaf5:	ff ff ff 
    eaf8:	c7 85 74 f8 ff ff a0 	movl   $0x22fa40a0,-0x78c(%rbp)
    eaff:	40 fa 22 
    eb02:	c7 85 78 f8 ff ff 00 	movl   $0x0,-0x788(%rbp)
    eb09:	00 00 00 
    eb0c:	c7 85 7c f8 ff ff a0 	movl   $0x22fa40a0,-0x784(%rbp)
    eb13:	40 fa 22 
    eb16:	c7 85 80 f8 ff ff fb 	movl   $0xfffffffb,-0x780(%rbp)
    eb1d:	ff ff ff 
    eb20:	c7 85 84 f8 ff ff a3 	movl   $0x76dbe4a3,-0x77c(%rbp)
    eb27:	e4 db 76 
    eb2a:	c7 85 88 f8 ff ff 00 	movl   $0x0,-0x778(%rbp)
    eb31:	00 00 00 
    eb34:	c7 85 8c f8 ff ff 06 	movl   $0x6,-0x774(%rbp)
    eb3b:	00 00 00 
    eb3e:	c7 85 90 f8 ff ff 06 	movl   $0x6,-0x770(%rbp)
    eb45:	00 00 00 
    eb48:	c7 85 94 f8 ff ff 00 	movl   $0x0,-0x76c(%rbp)
    eb4f:	00 00 00 
    eb52:	c7 85 98 f8 ff ff a3 	movl   $0x76dbe4a3,-0x768(%rbp)
    eb59:	e4 db 76 
    eb5c:	c7 85 9c f8 ff ff 00 	movl   $0x0,-0x764(%rbp)
    eb63:	00 00 00 
    eb66:	c7 85 a0 f8 ff ff c9 	movl   $0xb677d5c9,-0x760(%rbp)
    eb6d:	d5 77 b6 
    eb70:	c7 85 a4 f8 ff ff 00 	movl   $0x0,-0x75c(%rbp)
    eb77:	00 00 00 
    eb7a:	c7 85 a8 f8 ff ff c9 	movl   $0xb677d5c9,-0x758(%rbp)
    eb81:	d5 77 b6 
    eb84:	c7 85 ac f8 ff ff a0 	movl   $0x22fa40a0,-0x754(%rbp)
    eb8b:	40 fa 22 
    eb8e:	c7 85 b0 f8 ff ff c9 	movl   $0xb677d5c9,-0x750(%rbp)
    eb95:	d5 77 b6 
    eb98:	c7 85 b4 f8 ff ff 00 	movl   $0x0,-0x74c(%rbp)
    eb9f:	00 00 00 
    eba2:	c7 85 b8 f8 ff ff c9 	movl   $0xb677d5c9,-0x748(%rbp)
    eba9:	d5 77 b6 
    ebac:	c7 85 bc f8 ff ff a3 	movl   $0x76dbe4a3,-0x744(%rbp)
    ebb3:	e4 db 76 
    ebb6:	c7 85 c0 f8 ff ff 06 	movl   $0x6,-0x740(%rbp)
    ebbd:	00 00 00 
    ebc0:	c7 85 c4 f8 ff ff 00 	movl   $0x0,-0x73c(%rbp)
    ebc7:	00 00 00 
    ebca:	c7 85 c8 f8 ff ff 00 	movl   $0x0,-0x738(%rbp)
    ebd1:	00 00 00 
    ebd4:	c7 85 cc f8 ff ff 00 	movl   $0x0,-0x734(%rbp)
    ebdb:	00 00 00 
    ebde:	c7 85 d0 f8 ff ff 00 	movl   $0x0,-0x730(%rbp)
    ebe5:	00 00 00 
    ebe8:	c7 85 d4 f8 ff ff 06 	movl   $0x6,-0x72c(%rbp)
    ebef:	00 00 00 
    ebf2:	48 8d 85 38 ed ff ff 	lea    -0x12c8(%rbp),%rax
    ebf9:	48 89 85 d8 ee ff ff 	mov    %rax,-0x1128(%rbp)
    ec00:	48 8d 05 63 a4 00 00 	lea    0xa463(%rip),%rax        # 1906a <g_92+0xa>
    ec07:	48 89 85 e0 ee ff ff 	mov    %rax,-0x1120(%rbp)
    ec0e:	c7 85 18 ec ff ff 00 	movl   $0x0,-0x13e8(%rbp)
    ec15:	00 00 00 
    ec18:	eb 1e                	jmp    ec38 <func_53+0x1775>
    ec1a:	8b 85 18 ec ff ff    	mov    -0x13e8(%rbp),%eax
    ec20:	48 98                	cltq   
    ec22:	48 8d 95 d0 eb ff ff 	lea    -0x1430(%rbp),%rdx
    ec29:	48 89 94 c5 40 f0 ff 	mov    %rdx,-0xfc0(%rbp,%rax,8)
    ec30:	ff 
    ec31:	83 85 18 ec ff ff 01 	addl   $0x1,-0x13e8(%rbp)
    ec38:	83 bd 18 ec ff ff 02 	cmpl   $0x2,-0x13e8(%rbp)
    ec3f:	7e d9                	jle    ec1a <func_53+0x1757>
    ec41:	48 8b 05 60 c7 00 00 	mov    0xc760(%rip),%rax        # 1b3a8 <g_1386>
    ec48:	48 8b 00             	mov    (%rax),%rax
    ec4b:	48 8b 85 70 ed ff ff 	mov    -0x1290(%rbp),%rax
    ec52:	0f bf d8             	movswl %ax,%ebx
    ec55:	8b 05 e9 a6 00 00    	mov    0xa6e9(%rip),%eax        # 19344 <g_1105>
    ec5b:	4c 63 e0             	movslq %eax,%r12
    ec5e:	66 0f be 85 84 eb ff 	movsbw -0x147c(%rbp),%ax
    ec65:	ff 
    ec66:	44 0f b7 e8          	movzwl %ax,%r13d
    ec6a:	48 8b 05 77 bf 00 00 	mov    0xbf77(%rip),%rax        # 1abe8 <g_226>
    ec71:	44 8b 30             	mov    (%rax),%r14d
    ec74:	0f b7 05 2f a4 00 00 	movzwl 0xa42f(%rip),%eax        # 190aa <g_126>
    ec7b:	44 0f be f8          	movsbl %al,%r15d
    ec7f:	48 8b 05 72 c5 00 00 	mov    0xc572(%rip),%rax        # 1b1f8 <g_484>
    ec86:	8b 00                	mov    (%rax),%eax
    ec88:	0f b6 85 4c f1 ff ff 	movzbl -0xeb4(%rbp),%eax
    ec8f:	0f be c0             	movsbl %al,%eax
    ec92:	89 85 2c f0 ff ff    	mov    %eax,-0xfd4(%rbp)
    ec98:	8b 85 2c f0 ff ff    	mov    -0xfd4(%rbp),%eax
    ec9e:	85 c0                	test   %eax,%eax
    eca0:	0f 85 a6 00 00 00    	jne    ed4c <func_53+0x1889>
    eca6:	48 8b 05 4b c5 00 00 	mov    0xc54b(%rip),%rax        # 1b1f8 <g_484>
    ecad:	8b 00                	mov    (%rax),%eax
    ecaf:	48 8d 05 c2 d7 00 00 	lea    0xd7c2(%rip),%rax        # 1c478 <g_213>
    ecb6:	48 39 85 88 ed ff ff 	cmp    %rax,-0x1278(%rbp)
    ecbd:	0f 95 c0             	setne  %al
    ecc0:	0f b6 c0             	movzbl %al,%eax
    ecc3:	48 c7 c6 f7 ff ff ff 	mov    $0xfffffffffffffff7,%rsi
    ecca:	48 89 c7             	mov    %rax,%rdi
    eccd:	e8 5c 93 ff ff       	callq  802e <safe_add_func_uint64_t_u_u>
    ecd2:	48 0f be 95 84 eb ff 	movsbq -0x147c(%rbp),%rdx
    ecd9:	ff 
    ecda:	48 39 d0             	cmp    %rdx,%rax
    ecdd:	0f 95 c0             	setne  %al
    ece0:	0f b6 c0             	movzbl %al,%eax
    ece3:	be 04 00 00 00       	mov    $0x4,%esi
    ece8:	89 c7                	mov    %eax,%edi
    ecea:	e8 17 91 ff ff       	callq  7e06 <safe_lshift_func_uint16_t_u_u>
    ecef:	66 85 c0             	test   %ax,%ax
    ecf2:	74 07                	je     ecfb <func_53+0x1838>
    ecf4:	b9 01 00 00 00       	mov    $0x1,%ecx
    ecf9:	eb 05                	jmp    ed00 <func_53+0x183d>
    ecfb:	b9 00 00 00 00       	mov    $0x0,%ecx
    ed00:	48 8b 05 11 c5 00 00 	mov    0xc511(%rip),%rax        # 1b218 <g_785>
    ed07:	0f b7 10             	movzwl (%rax),%edx
    ed0a:	48 8b 05 07 c5 00 00 	mov    0xc507(%rip),%rax        # 1b218 <g_785>
    ed11:	31 ca                	xor    %ecx,%edx
    ed13:	66 89 10             	mov    %dx,(%rax)
    ed16:	48 8b 05 43 c2 00 00 	mov    0xc243(%rip),%rax        # 1af60 <g_385>
    ed1d:	48 8b 95 20 ed ff ff 	mov    -0x12e0(%rbp),%rdx
    ed24:	48 89 10             	mov    %rdx,(%rax)
    ed27:	48 8b 10             	mov    (%rax),%rdx
    ed2a:	48 8b 05 67 a0 00 00 	mov    0xa067(%rip),%rax        # 18d98 <l_1727.4829+0x18>
    ed31:	48 39 c2             	cmp    %rax,%rdx
    ed34:	0f 95 c0             	setne  %al
    ed37:	0f b6 c0             	movzbl %al,%eax
    ed3a:	be 01 00 00 00       	mov    $0x1,%esi
    ed3f:	48 89 c7             	mov    %rax,%rdi
    ed42:	e8 fa 8a ff ff       	callq  7841 <safe_add_func_int64_t_s_s>
    ed47:	48 85 c0             	test   %rax,%rax
    ed4a:	74 07                	je     ed53 <func_53+0x1890>
    ed4c:	b8 01 00 00 00       	mov    $0x1,%eax
    ed51:	eb 05                	jmp    ed58 <func_53+0x1895>
    ed53:	b8 00 00 00 00       	mov    $0x0,%eax
    ed58:	83 e0 4a             	and    $0x4a,%eax
    ed5b:	89 c2                	mov    %eax,%edx
    ed5d:	48 8b 85 88 eb ff ff 	mov    -0x1478(%rbp),%rax
    ed64:	88 10                	mov    %dl,(%rax)
    ed66:	48 8b 85 88 eb ff ff 	mov    -0x1478(%rbp),%rax
    ed6d:	0f b6 00             	movzbl (%rax),%eax
    ed70:	0f b6 d0             	movzbl %al,%edx
    ed73:	8b 85 e4 eb ff ff    	mov    -0x141c(%rbp),%eax
    ed79:	0f b6 c0             	movzbl %al,%eax
    ed7c:	89 d6                	mov    %edx,%esi
    ed7e:	89 c7                	mov    %eax,%edi
    ed80:	e8 0e 8e ff ff       	callq  7b93 <safe_mul_func_uint8_t_u_u>
    ed85:	0f be c0             	movsbl %al,%eax
    ed88:	44 89 fe             	mov    %r15d,%esi
    ed8b:	89 c7                	mov    %eax,%edi
    ed8d:	e8 80 84 ff ff       	callq  7212 <safe_mul_func_int8_t_s_s>
    ed92:	0f be c0             	movsbl %al,%eax
    ed95:	44 89 f6             	mov    %r14d,%esi
    ed98:	89 c7                	mov    %eax,%edi
    ed9a:	e8 66 88 ff ff       	callq  7605 <safe_sub_func_int32_t_s_s>
    ed9f:	ba 01 00 00 00       	mov    $0x1,%edx
    eda4:	8b 85 68 f0 ff ff    	mov    -0xf98(%rbp),%eax
    edaa:	31 d0                	xor    %edx,%eax
    edac:	89 85 68 f0 ff ff    	mov    %eax,-0xf98(%rbp)
    edb2:	8b 95 68 f0 ff ff    	mov    -0xf98(%rbp),%edx
    edb8:	8b 05 72 a2 00 00    	mov    0xa272(%rip),%eax        # 19030 <g_3>
    edbe:	39 c2                	cmp    %eax,%edx
    edc0:	0f 95 c0             	setne  %al
    edc3:	0f b6 c0             	movzbl %al,%eax
    edc6:	44 89 ee             	mov    %r13d,%esi
    edc9:	89 c7                	mov    %eax,%edi
    edcb:	e8 2f 8f ff ff       	callq  7cff <safe_add_func_uint16_t_u_u>
    edd0:	0f b7 c0             	movzwl %ax,%eax
    edd3:	4c 89 e6             	mov    %r12,%rsi
    edd6:	48 89 c7             	mov    %rax,%rdi
    edd9:	e8 50 92 ff ff       	callq  802e <safe_add_func_uint64_t_u_u>
    edde:	48 8b 15 4b c4 00 00 	mov    0xc44b(%rip),%rdx        # 1b230 <g_808>
    ede5:	8b 12                	mov    (%rdx),%edx
    ede7:	48 63 d2             	movslq %edx,%rdx
    edea:	48 09 c2             	or     %rax,%rdx
    eded:	8b 05 65 a2 00 00    	mov    0xa265(%rip),%eax        # 19058 <g_65>
    edf3:	48 98                	cltq   
    edf5:	48 31 d0             	xor    %rdx,%rax
    edf8:	48 3d 3c fd 00 00    	cmp    $0xfd3c,%rax
    edfe:	0f 95 c0             	setne  %al
    ee01:	0f b6 c0             	movzbl %al,%eax
    ee04:	48 39 85 90 ee ff ff 	cmp    %rax,-0x1170(%rbp)
    ee0b:	0f 92 c0             	setb   %al
    ee0e:	0f b6 c0             	movzbl %al,%eax
    ee11:	89 de                	mov    %ebx,%esi
    ee13:	89 c7                	mov    %eax,%edi
    ee15:	e8 3b 86 ff ff       	callq  7455 <safe_div_func_int16_t_s_s>
    ee1a:	66 85 c0             	test   %ax,%ax
    ee1d:	0f 84 f3 02 00 00    	je     f116 <func_53+0x1c53>
    ee23:	48 8d 85 b0 ec ff ff 	lea    -0x1350(%rbp),%rax
    ee2a:	48 89 85 40 ef ff ff 	mov    %rax,-0x10c0(%rbp)
    ee31:	48 8d 05 a0 a3 00 00 	lea    0xa3a0(%rip),%rax        # 191d8 <g_664>
    ee38:	48 89 85 48 ef ff ff 	mov    %rax,-0x10b8(%rbp)
    ee3f:	48 8d 85 a0 f0 ff ff 	lea    -0xf60(%rbp),%rax
    ee46:	48 83 c0 08          	add    $0x8,%rax
    ee4a:	48 89 85 50 ed ff ff 	mov    %rax,-0x12b0(%rbp)
    ee51:	48 8d 85 50 ed ff ff 	lea    -0x12b0(%rbp),%rax
    ee58:	48 89 85 50 ef ff ff 	mov    %rax,-0x10b0(%rbp)
    ee5f:	48 8d 85 9f eb ff ff 	lea    -0x1461(%rbp),%rax
    ee66:	48 89 85 58 ef ff ff 	mov    %rax,-0x10a8(%rbp)
    ee6d:	c7 85 98 ec ff ff ff 	movl   $0xffffffff,-0x1368(%rbp)
    ee74:	ff ff ff 
    ee77:	48 8b 85 88 eb ff ff 	mov    -0x1478(%rbp),%rax
    ee7e:	0f b6 00             	movzbl (%rax),%eax
    ee81:	0f be d8             	movsbl %al,%ebx
    ee84:	8b 05 1a a2 00 00    	mov    0xa21a(%rip),%eax        # 190a4 <g_119>
    ee8a:	44 0f b6 e0          	movzbl %al,%r12d
    ee8e:	48 8b 05 33 c3 00 00 	mov    0xc333(%rip),%rax        # 1b1c8 <g_390>
    ee95:	48 8b 00             	mov    (%rax),%rax
    ee98:	48 8b 00             	mov    (%rax),%rax
    ee9b:	48 89 85 78 eb ff ff 	mov    %rax,-0x1488(%rbp)
    eea2:	48 8b 85 98 ee ff ff 	mov    -0x1168(%rbp),%rax
    eea9:	89 85 80 eb ff ff    	mov    %eax,-0x1480(%rbp)
    eeaf:	44 0f be ad 84 eb ff 	movsbl -0x147c(%rbp),%r13d
    eeb6:	ff 
    eeb7:	48 0f be 95 84 eb ff 	movsbq -0x147c(%rbp),%rdx
    eebe:	ff 
    eebf:	48 8b 85 40 ef ff ff 	mov    -0x10c0(%rbp),%rax
    eec6:	48 89 10             	mov    %rdx,(%rax)
    eec9:	48 8b 85 40 ef ff ff 	mov    -0x10c0(%rbp),%rax
    eed0:	48 8b 00             	mov    (%rax),%rax
    eed3:	49 89 c6             	mov    %rax,%r14
    eed6:	0f be 95 84 eb ff ff 	movsbl -0x147c(%rbp),%edx
    eedd:	0f be 85 84 eb ff ff 	movsbl -0x147c(%rbp),%eax
    eee4:	89 d6                	mov    %edx,%esi
    eee6:	89 c7                	mov    %eax,%edi
    eee8:	e8 e3 8f ff ff       	callq  7ed0 <safe_sub_func_uint32_t_u_u>
    eeed:	89 c0                	mov    %eax,%eax
    eeef:	4c 89 f6             	mov    %r14,%rsi
    eef2:	48 89 c7             	mov    %rax,%rdi
    eef5:	e8 34 91 ff ff       	callq  802e <safe_add_func_uint64_t_u_u>
    eefa:	49 89 c7             	mov    %rax,%r15
    eefd:	8b 85 78 f0 ff ff    	mov    -0xf88(%rbp),%eax
    ef03:	44 0f bf f0          	movswl %ax,%r14d
    ef07:	48 8b 05 42 a1 00 00 	mov    0xa142(%rip),%rax        # 19050 <g_49>
    ef0e:	89 c1                	mov    %eax,%ecx
    ef10:	8b 95 50 f2 ff ff    	mov    -0xdb0(%rbp),%edx
    ef16:	0f be 85 84 eb ff ff 	movsbl -0x147c(%rbp),%eax
    ef1d:	39 c2                	cmp    %eax,%edx
    ef1f:	0f 9f c2             	setg   %dl
    ef22:	48 8b 05 f7 c2 00 00 	mov    0xc2f7(%rip),%rax        # 1b220 <g_784>
    ef29:	48 8b 00             	mov    (%rax),%rax
    ef2c:	0f b6 d2             	movzbl %dl,%edx
    ef2f:	66 89 10             	mov    %dx,(%rax)
    ef32:	0f b7 00             	movzwl (%rax),%eax
    ef35:	98                   	cwtl   
    ef36:	89 ce                	mov    %ecx,%esi
    ef38:	89 c7                	mov    %eax,%edi
    ef3a:	e8 24 86 ff ff       	callq  7563 <safe_rshift_func_int16_t_s_u>
    ef3f:	48 0f bf c0          	movswq %ax,%rax
    ef43:	ba d0 d3 da ac       	mov    $0xacdad3d0,%edx
    ef48:	48 09 d0             	or     %rdx,%rax
    ef4b:	89 c2                	mov    %eax,%edx
    ef4d:	8b 85 e4 eb ff ff    	mov    -0x141c(%rbp),%eax
    ef53:	21 d0                	and    %edx,%eax
    ef55:	89 85 e4 eb ff ff    	mov    %eax,-0x141c(%rbp)
    ef5b:	8b 95 e4 eb ff ff    	mov    -0x141c(%rbp),%edx
    ef61:	48 8b 85 88 eb ff ff 	mov    -0x1478(%rbp),%rax
    ef68:	0f b6 00             	movzbl (%rax),%eax
    ef6b:	0f be c0             	movsbl %al,%eax
    ef6e:	39 c2                	cmp    %eax,%edx
    ef70:	0f 95 c2             	setne  %dl
    ef73:	48 8b 85 f0 ec ff ff 	mov    -0x1310(%rbp),%rax
    ef7a:	0f b6 d2             	movzbl %dl,%edx
    ef7d:	89 10                	mov    %edx,(%rax)
    ef7f:	8b 00                	mov    (%rax),%eax
    ef81:	f7 d0                	not    %eax
    ef83:	98                   	cwtl   
    ef84:	44 89 f6             	mov    %r14d,%esi
    ef87:	89 c7                	mov    %eax,%edi
    ef89:	e8 67 84 ff ff       	callq  73f5 <safe_mul_func_int16_t_s_s>
    ef8e:	48 0f bf c0          	movswq %ax,%rax
    ef92:	49 39 c7             	cmp    %rax,%r15
    ef95:	0f 97 c0             	seta   %al
    ef98:	0f b6 c0             	movzbl %al,%eax
    ef9b:	be 97 00 00 00       	mov    $0x97,%esi
    efa0:	89 c7                	mov    %eax,%edi
    efa2:	e8 ec 8b ff ff       	callq  7b93 <safe_mul_func_uint8_t_u_u>
    efa7:	66 0f be 95 84 eb ff 	movsbw -0x147c(%rbp),%dx
    efae:	ff 
    efaf:	48 8b 85 48 ef ff ff 	mov    -0x10b8(%rbp),%rax
    efb6:	66 89 10             	mov    %dx,(%rax)
    efb9:	48 8b 85 48 ef ff ff 	mov    -0x10b8(%rbp),%rax
    efc0:	0f b7 00             	movzwl (%rax),%eax
    efc3:	98                   	cwtl   
    efc4:	44 89 ee             	mov    %r13d,%esi
    efc7:	89 c7                	mov    %eax,%edi
    efc9:	e8 27 84 ff ff       	callq  73f5 <safe_mul_func_int16_t_s_s>
    efce:	66 3d f8 00          	cmp    $0xf8,%ax
    efd2:	0f 95 c0             	setne  %al
    efd5:	0f b6 c0             	movzbl %al,%eax
    efd8:	89 85 80 ec ff ff    	mov    %eax,-0x1380(%rbp)
    efde:	0f be 85 84 eb ff ff 	movsbl -0x147c(%rbp),%eax
    efe5:	39 85 80 ec ff ff    	cmp    %eax,-0x1380(%rbp)
    efeb:	0f 95 c0             	setne  %al
    efee:	0f b6 d0             	movzbl %al,%edx
    eff1:	0f b7 05 68 d4 00 00 	movzwl 0xd468(%rip),%eax        # 1c460 <g_128>
    eff8:	0f b7 c0             	movzwl %ax,%eax
    effb:	39 c2                	cmp    %eax,%edx
    effd:	0f 9d c0             	setge  %al
    f000:	0f b6 c0             	movzbl %al,%eax
    f003:	8b b5 80 eb ff ff    	mov    -0x1480(%rbp),%esi
    f009:	89 c7                	mov    %eax,%edi
    f00b:	e8 91 82 ff ff       	callq  72a1 <safe_lshift_func_int8_t_s_s>
    f010:	48 8b 85 50 ef ff ff 	mov    -0x10b0(%rbp),%rax
    f017:	48 c7 00 00 00 00 00 	movq   $0x0,(%rax)
    f01e:	48 8b 85 50 ef ff ff 	mov    -0x10b0(%rbp),%rax
    f025:	48 8b 00             	mov    (%rax),%rax
    f028:	48 39 85 78 eb ff ff 	cmp    %rax,-0x1488(%rbp)
    f02f:	0f 95 c0             	setne  %al
    f032:	0f b6 d0             	movzbl %al,%edx
    f035:	8b 85 f8 f3 ff ff    	mov    -0xc08(%rbp),%eax
    f03b:	21 d0                	and    %edx,%eax
    f03d:	89 85 f8 f3 ff ff    	mov    %eax,-0xc08(%rbp)
    f043:	8b 85 f8 f3 ff ff    	mov    -0xc08(%rbp),%eax
    f049:	f7 d0                	not    %eax
    f04b:	0a 85 84 eb ff ff    	or     -0x147c(%rbp),%al
    f051:	8b 95 84 ec ff ff    	mov    -0x137c(%rbp),%edx
    f057:	21 d0                	and    %edx,%eax
    f059:	0f be c0             	movsbl %al,%eax
    f05c:	be 00 00 00 00       	mov    $0x0,%esi
    f061:	89 c7                	mov    %eax,%edi
    f063:	e8 86 82 ff ff       	callq  72ee <safe_lshift_func_int8_t_s_u>
    f068:	66 98                	cbtw   
    f06a:	66 25 fd e9          	and    $0xe9fd,%ax
    f06e:	98                   	cwtl   
    f06f:	be 00 00 00 00       	mov    $0x0,%esi
    f074:	89 c7                	mov    %eax,%edi
    f076:	e8 38 83 ff ff       	callq  73b3 <safe_add_func_int16_t_s_s>
    f07b:	0f bf d0             	movswl %ax,%edx
    f07e:	0f be 85 84 eb ff ff 	movsbl -0x147c(%rbp),%eax
    f085:	31 d0                	xor    %edx,%eax
    f087:	48 98                	cltq   
    f089:	48 89 c7             	mov    %rax,%rdi
    f08c:	e8 88 8f ff ff       	callq  8019 <safe_unary_minus_func_uint64_t_u>
    f091:	83 f0 62             	xor    $0x62,%eax
    f094:	89 c2                	mov    %eax,%edx
    f096:	48 8b 85 58 ef ff ff 	mov    -0x10a8(%rbp),%rax
    f09d:	88 10                	mov    %dl,(%rax)
    f09f:	48 8b 85 58 ef ff ff 	mov    -0x10a8(%rbp),%rax
    f0a6:	0f b6 10             	movzbl (%rax),%edx
    f0a9:	0f b6 05 01 a1 00 00 	movzbl 0xa101(%rip),%eax        # 191b1 <g_361>
    f0b0:	09 d0                	or     %edx,%eax
    f0b2:	88 05 f9 a0 00 00    	mov    %al,0xa0f9(%rip)        # 191b1 <g_361>
    f0b8:	0f b6 05 f2 a0 00 00 	movzbl 0xa0f2(%rip),%eax        # 191b1 <g_361>
    f0bf:	0f b6 c0             	movzbl %al,%eax
    f0c2:	44 89 e6             	mov    %r12d,%esi
    f0c5:	89 c7                	mov    %eax,%edi
    f0c7:	e8 e2 8a ff ff       	callq  7bae <safe_mod_func_uint8_t_u_u>
    f0cc:	48 8b 85 88 eb ff ff 	mov    -0x1478(%rbp),%rax
    f0d3:	0f b6 00             	movzbl (%rax),%eax
    f0d6:	0f be c0             	movsbl %al,%eax
    f0d9:	89 de                	mov    %ebx,%esi
    f0db:	89 c7                	mov    %eax,%edi
    f0dd:	e8 bf 81 ff ff       	callq  72a1 <safe_lshift_func_int8_t_s_s>
    f0e2:	66 98                	cbtw   
    f0e4:	0f b7 c0             	movzwl %ax,%eax
    f0e7:	be 0e 00 00 00       	mov    $0xe,%esi
    f0ec:	89 c7                	mov    %eax,%edi
    f0ee:	e8 55 8d ff ff       	callq  7e48 <safe_rshift_func_uint16_t_u_s>
    f0f3:	0f b7 c0             	movzwl %ax,%eax
    f0f6:	09 85 98 ec ff ff    	or     %eax,-0x1368(%rbp)
    f0fc:	48 8b 05 0d c3 00 00 	mov    0xc30d(%rip),%rax        # 1b410 <g_1769>
    f103:	48 8d 95 10 f1 ff ff 	lea    -0xef0(%rbp),%rdx
    f10a:	48 83 c2 08          	add    $0x8,%rdx
    f10e:	48 89 10             	mov    %rdx,(%rax)
    f111:	e9 8c 03 00 00       	jmpq   f4a2 <func_53+0x1fdf>
    f116:	48 c7 85 e8 ee ff ff 	movq   $0x9,-0x1118(%rbp)
    f11d:	09 00 00 00 
    f121:	48 8d 05 08 be 00 00 	lea    0xbe08(%rip),%rax        # 1af30 <g_386+0x10>
    f128:	48 89 85 c0 f1 ff ff 	mov    %rax,-0xe40(%rbp)
    f12f:	48 8d 05 02 be 00 00 	lea    0xbe02(%rip),%rax        # 1af38 <g_386+0x18>
    f136:	48 89 85 c8 f1 ff ff 	mov    %rax,-0xe38(%rbp)
    f13d:	48 8d 05 ec bd 00 00 	lea    0xbdec(%rip),%rax        # 1af30 <g_386+0x10>
    f144:	48 89 85 d0 f1 ff ff 	mov    %rax,-0xe30(%rbp)
    f14b:	48 8d 05 de bd 00 00 	lea    0xbdde(%rip),%rax        # 1af30 <g_386+0x10>
    f152:	48 89 85 d8 f1 ff ff 	mov    %rax,-0xe28(%rbp)
    f159:	48 8d 05 d0 bd 00 00 	lea    0xbdd0(%rip),%rax        # 1af30 <g_386+0x10>
    f160:	48 89 85 e0 f1 ff ff 	mov    %rax,-0xe20(%rbp)
    f167:	48 8d 05 ca bd 00 00 	lea    0xbdca(%rip),%rax        # 1af38 <g_386+0x18>
    f16e:	48 89 85 e8 f1 ff ff 	mov    %rax,-0xe18(%rbp)
    f175:	48 8d 05 b4 bd 00 00 	lea    0xbdb4(%rip),%rax        # 1af30 <g_386+0x10>
    f17c:	48 89 85 f0 f1 ff ff 	mov    %rax,-0xe10(%rbp)
    f183:	48 8d 85 20 ed ff ff 	lea    -0x12e0(%rbp),%rax
    f18a:	48 89 85 f8 f1 ff ff 	mov    %rax,-0xe08(%rbp)
    f191:	48 8d 05 a0 bd 00 00 	lea    0xbda0(%rip),%rax        # 1af38 <g_386+0x18>
    f198:	48 89 85 00 f2 ff ff 	mov    %rax,-0xe00(%rbp)
    f19f:	48 8d 85 20 ed ff ff 	lea    -0x12e0(%rbp),%rax
    f1a6:	48 89 85 08 f2 ff ff 	mov    %rax,-0xdf8(%rbp)
    f1ad:	48 8d 05 7c bd 00 00 	lea    0xbd7c(%rip),%rax        # 1af30 <g_386+0x10>
    f1b4:	48 89 85 10 f2 ff ff 	mov    %rax,-0xdf0(%rbp)
    f1bb:	48 8d 05 76 bd 00 00 	lea    0xbd76(%rip),%rax        # 1af38 <g_386+0x18>
    f1c2:	48 89 85 18 f2 ff ff 	mov    %rax,-0xde8(%rbp)
    f1c9:	48 8d 05 60 bd 00 00 	lea    0xbd60(%rip),%rax        # 1af30 <g_386+0x10>
    f1d0:	48 89 85 20 f2 ff ff 	mov    %rax,-0xde0(%rbp)
    f1d7:	48 8d 05 52 bd 00 00 	lea    0xbd52(%rip),%rax        # 1af30 <g_386+0x10>
    f1de:	48 89 85 28 f2 ff ff 	mov    %rax,-0xdd8(%rbp)
    f1e5:	c7 85 94 ec ff ff 03 	movl   $0x3,-0x136c(%rbp)
    f1ec:	00 00 00 
    f1ef:	48 8d 05 fa bc 00 00 	lea    0xbcfa(%rip),%rax        # 1aef0 <g_368+0x10>
    f1f6:	48 89 85 f0 ee ff ff 	mov    %rax,-0x1110(%rbp)
    f1fd:	48 8d 05 44 d2 00 00 	lea    0xd244(%rip),%rax        # 1c448 <g_12>
    f204:	48 89 85 f8 ee ff ff 	mov    %rax,-0x1108(%rbp)
    f20b:	48 8d 05 36 d2 00 00 	lea    0xd236(%rip),%rax        # 1c448 <g_12>
    f212:	48 89 85 50 ed ff ff 	mov    %rax,-0x12b0(%rbp)
    f219:	48 8d 85 50 ed ff ff 	lea    -0x12b0(%rbp),%rax
    f220:	48 89 85 00 ef ff ff 	mov    %rax,-0x1100(%rbp)
    f227:	48 8d 85 c8 eb ff ff 	lea    -0x1438(%rbp),%rax
    f22e:	48 89 85 08 ef ff ff 	mov    %rax,-0x10f8(%rbp)
    f235:	48 8d 85 10 f1 ff ff 	lea    -0xef0(%rbp),%rax
    f23c:	48 83 c0 08          	add    $0x8,%rax
    f240:	48 89 85 10 ef ff ff 	mov    %rax,-0x10f0(%rbp)
    f247:	48 8d 05 0a 9e 00 00 	lea    0x9e0a(%rip),%rax        # 19058 <g_65>
    f24e:	48 89 85 18 ef ff ff 	mov    %rax,-0x10e8(%rbp)
    f255:	48 8d 85 e4 eb ff ff 	lea    -0x141c(%rbp),%rax
    f25c:	48 89 85 20 ef ff ff 	mov    %rax,-0x10e0(%rbp)
    f263:	48 8d 85 60 f3 ff ff 	lea    -0xca0(%rbp),%rax
    f26a:	48 05 b0 00 00 00    	add    $0xb0,%rax
    f270:	48 89 85 28 ef ff ff 	mov    %rax,-0x10d8(%rbp)
    f277:	48 c7 85 30 ef ff ff 	movq   $0x0,-0x10d0(%rbp)
    f27e:	00 00 00 00 
    f282:	48 8d 85 60 f3 ff ff 	lea    -0xca0(%rbp),%rax
    f289:	48 83 c0 18          	add    $0x18,%rax
    f28d:	48 89 85 38 ef ff ff 	mov    %rax,-0x10c8(%rbp)
    f294:	c7 85 1c ec ff ff 00 	movl   $0x0,-0x13e4(%rbp)
    f29b:	00 00 00 
    f29e:	eb 22                	jmp    f2c2 <func_53+0x1dff>
    f2a0:	8b 85 1c ec ff ff    	mov    -0x13e4(%rbp),%eax
    f2a6:	48 98                	cltq   
    f2a8:	48 8d 95 a0 f0 ff ff 	lea    -0xf60(%rbp),%rdx
    f2af:	48 83 c2 10          	add    $0x10,%rdx
    f2b3:	48 89 94 c5 c0 f0 ff 	mov    %rdx,-0xf40(%rbp,%rax,8)
    f2ba:	ff 
    f2bb:	83 85 1c ec ff ff 01 	addl   $0x1,-0x13e4(%rbp)
    f2c2:	83 bd 1c ec ff ff 03 	cmpl   $0x3,-0x13e4(%rbp)
    f2c9:	7e d5                	jle    f2a0 <func_53+0x1ddd>
    f2cb:	c7 85 1c ec ff ff 00 	movl   $0x0,-0x13e4(%rbp)
    f2d2:	00 00 00 
    f2d5:	eb 52                	jmp    f329 <func_53+0x1e66>
    f2d7:	c7 85 20 ec ff ff 00 	movl   $0x0,-0x13e0(%rbp)
    f2de:	00 00 00 
    f2e1:	eb 36                	jmp    f319 <func_53+0x1e56>
    f2e3:	8b 85 20 ec ff ff    	mov    -0x13e0(%rbp),%eax
    f2e9:	48 63 c8             	movslq %eax,%rcx
    f2ec:	8b 85 1c ec ff ff    	mov    -0x13e4(%rbp),%eax
    f2f2:	48 63 d0             	movslq %eax,%rdx
    f2f5:	48 89 d0             	mov    %rdx,%rax
    f2f8:	48 c1 e0 02          	shl    $0x2,%rax
    f2fc:	48 01 d0             	add    %rdx,%rax
    f2ff:	48 8d 14 08          	lea    (%rax,%rcx,1),%rdx
    f303:	48 8d 85 d4 eb ff ff 	lea    -0x142c(%rbp),%rax
    f30a:	48 89 84 d5 c0 f2 ff 	mov    %rax,-0xd40(%rbp,%rdx,8)
    f311:	ff 
    f312:	83 85 20 ec ff ff 01 	addl   $0x1,-0x13e0(%rbp)
    f319:	83 bd 20 ec ff ff 04 	cmpl   $0x4,-0x13e0(%rbp)
    f320:	7e c1                	jle    f2e3 <func_53+0x1e20>
    f322:	83 85 1c ec ff ff 01 	addl   $0x1,-0x13e4(%rbp)
    f329:	83 bd 1c ec ff ff 03 	cmpl   $0x3,-0x13e4(%rbp)
    f330:	7e a5                	jle    f2d7 <func_53+0x1e14>
    f332:	48 8b 85 f0 ec ff ff 	mov    -0x1310(%rbp),%rax
    f339:	48 8b 95 e8 ee ff ff 	mov    -0x1118(%rbp),%rdx
    f340:	89 10                	mov    %edx,(%rax)
    f342:	48 8b 85 88 eb ff ff 	mov    -0x1478(%rbp),%rax
    f349:	0f b6 00             	movzbl (%rax),%eax
    f34c:	0f b6 d8             	movzbl %al,%ebx
    f34f:	be f6 ff 00 00       	mov    $0xfff6,%esi
    f354:	bf cb 04 00 00       	mov    $0x4cb,%edi
    f359:	e8 fe 89 ff ff       	callq  7d5c <safe_mod_func_uint16_t_u_u>
    f35e:	0f b7 d0             	movzwl %ax,%edx
    f361:	48 83 bd d0 ee ff ff 	cmpq   $0x0,-0x1130(%rbp)
    f368:	00 
    f369:	40 0f 95 c6          	setne  %sil
    f36d:	48 8b 8d d0 f1 ff ff 	mov    -0xe30(%rbp),%rcx
    f374:	48 8b 85 b8 ec ff ff 	mov    -0x1348(%rbp),%rax
    f37b:	48 39 c1             	cmp    %rax,%rcx
    f37e:	0f 95 c0             	setne  %al
    f381:	21 f0                	and    %esi,%eax
    f383:	0f b6 c0             	movzbl %al,%eax
    f386:	f7 d0                	not    %eax
    f388:	39 85 84 ec ff ff    	cmp    %eax,-0x137c(%rbp)
    f38e:	0f 9e c0             	setle  %al
    f391:	0f b6 c0             	movzbl %al,%eax
    f394:	89 d6                	mov    %edx,%esi
    f396:	89 c7                	mov    %eax,%edi
    f398:	e8 c6 81 ff ff       	callq  7563 <safe_rshift_func_int16_t_s_u>
    f39d:	66 0f be 95 84 eb ff 	movsbw -0x147c(%rbp),%dx
    f3a4:	ff 
    f3a5:	66 39 d0             	cmp    %dx,%ax
    f3a8:	0f 9d c0             	setge  %al
    f3ab:	0f b6 c0             	movzbl %al,%eax
    f3ae:	31 85 94 ec ff ff    	xor    %eax,-0x136c(%rbp)
    f3b4:	0f be 85 84 eb ff ff 	movsbl -0x147c(%rbp),%eax
    f3bb:	39 85 94 ec ff ff    	cmp    %eax,-0x136c(%rbp)
    f3c1:	0f 95 c0             	setne  %al
    f3c4:	0f b6 c0             	movzbl %al,%eax
    f3c7:	be 09 00 00 00       	mov    $0x9,%esi
    f3cc:	89 c7                	mov    %eax,%edi
    f3ce:	e8 52 8b ff ff       	callq  7f25 <safe_div_func_uint32_t_u_u>
    f3d3:	98                   	cwtl   
    f3d4:	be 06 00 00 00       	mov    $0x6,%esi
    f3d9:	89 c7                	mov    %eax,%edi
    f3db:	e8 d3 7f ff ff       	callq  73b3 <safe_add_func_int16_t_s_s>
    f3e0:	0f b6 c0             	movzbl %al,%eax
    f3e3:	89 de                	mov    %ebx,%esi
    f3e5:	89 c7                	mov    %eax,%edi
    f3e7:	e8 8c 87 ff ff       	callq  7b78 <safe_sub_func_uint8_t_u_u>
    f3ec:	48 8b 05 ad be 00 00 	mov    0xbead(%rip),%rax        # 1b2a0 <g_1181>
    f3f3:	48 8b 00             	mov    (%rax),%rax
    f3f6:	48 39 85 a0 ee ff ff 	cmp    %rax,-0x1160(%rbp)
    f3fd:	48 c7 85 a8 ee ff ff 	movq   $0x0,-0x1158(%rbp)
    f404:	00 00 00 00 
    f408:	48 8b 15 31 be 00 00 	mov    0xbe31(%rip),%rdx        # 1b240 <g_983>
    f40f:	48 8b 05 2a be 00 00 	mov    0xbe2a(%rip),%rax        # 1b240 <g_983>
    f416:	48 8b 12             	mov    (%rdx),%rdx
    f419:	48 89 10             	mov    %rdx,(%rax)
    f41c:	48 8b 85 00 ef ff ff 	mov    -0x1100(%rbp),%rax
    f423:	48 8d 15 1e d0 00 00 	lea    0xd01e(%rip),%rdx        # 1c448 <g_12>
    f42a:	48 89 10             	mov    %rdx,(%rax)
    f42d:	48 8d 05 14 d0 00 00 	lea    0xd014(%rip),%rax        # 1c448 <g_12>
    f434:	48 39 85 f8 ee ff ff 	cmp    %rax,-0x1108(%rbp)
    f43b:	0f 95 c0             	setne  %al
    f43e:	0f b6 d0             	movzbl %al,%edx
    f441:	48 8b 8d f0 ec ff ff 	mov    -0x1310(%rbp),%rcx
    f448:	48 8b 85 f0 ee ff ff 	mov    -0x1110(%rbp),%rax
    f44f:	48 89 08             	mov    %rcx,(%rax)
    f452:	48 8b 85 f0 ee ff ff 	mov    -0x1110(%rbp),%rax
    f459:	48 8b 08             	mov    (%rax),%rcx
    f45c:	48 8b 85 00 ed ff ff 	mov    -0x1300(%rbp),%rax
    f463:	48 89 85 90 f1 ff ff 	mov    %rax,-0xe70(%rbp)
    f46a:	48 8b 85 90 f1 ff ff 	mov    -0xe70(%rbp),%rax
    f471:	48 39 c1             	cmp    %rax,%rcx
    f474:	0f 95 c0             	setne  %al
    f477:	0f b6 c0             	movzbl %al,%eax
    f47a:	89 d6                	mov    %edx,%esi
    f47c:	89 c7                	mov    %eax,%edi
    f47e:	e8 ba 88 ff ff       	callq  7d3d <safe_mul_func_uint16_t_u_u>
    f483:	89 c2                	mov    %eax,%edx
    f485:	48 8b 85 f0 ec ff ff 	mov    -0x1310(%rbp),%rax
    f48c:	0f b7 d2             	movzwl %dx,%edx
    f48f:	89 10                	mov    %edx,(%rax)
    f491:	0f b7 05 9e d0 00 00 	movzwl 0xd09e(%rip),%eax        # 1c536 <g_1814+0x6>
    f498:	83 c0 01             	add    $0x1,%eax
    f49b:	66 89 05 94 d0 00 00 	mov    %ax,0xd094(%rip)        # 1c536 <g_1814+0x6>
    f4a2:	48 8b 85 90 ed ff ff 	mov    -0x1270(%rbp),%rax
    f4a9:	48 89 05 90 d0 00 00 	mov    %rax,0xd090(%rip)        # 1c540 <g_1819>
    f4b0:	48 8b 05 61 bd 00 00 	mov    0xbd61(%rip),%rax        # 1b218 <g_785>
    f4b7:	0f b7 00             	movzwl (%rax),%eax
    f4ba:	44 0f bf e8          	movswl %ax,%r13d
    f4be:	48 8b 05 6b bd 00 00 	mov    0xbd6b(%rip),%rax        # 1b230 <g_808>
    f4c5:	8b 18                	mov    (%rax),%ebx
    f4c7:	48 8b 05 1a b7 00 00 	mov    0xb71a(%rip),%rax        # 1abe8 <g_226>
    f4ce:	44 8b 20             	mov    (%rax),%r12d
    f4d1:	48 8b 05 f8 be 00 00 	mov    0xbef8(%rip),%rax        # 1b3d0 <g_1517>
    f4d8:	8b 85 bc eb ff ff    	mov    -0x1444(%rbp),%eax
    f4de:	0f b7 d0             	movzwl %ax,%edx
    f4e1:	0f be 8d 84 eb ff ff 	movsbl -0x147c(%rbp),%ecx
    f4e8:	48 8b 05 31 bf 00 00 	mov    0xbf31(%rip),%rax        # 1b420 <g_1840>
    f4ef:	48 89 85 38 f0 ff ff 	mov    %rax,-0xfc8(%rbp)
    f4f6:	48 8b 85 38 f0 ff ff 	mov    -0xfc8(%rbp),%rax
    f4fd:	48 39 85 d8 ee ff ff 	cmp    %rax,-0x1128(%rbp)
    f504:	0f 95 c0             	setne  %al
    f507:	0f b6 c0             	movzbl %al,%eax
    f50a:	39 c1                	cmp    %eax,%ecx
    f50c:	0f 9e c0             	setle  %al
    f50f:	0f b6 c0             	movzbl %al,%eax
    f512:	89 d6                	mov    %edx,%esi
    f514:	89 c7                	mov    %eax,%edi
    f516:	e8 22 88 ff ff       	callq  7d3d <safe_mul_func_uint16_t_u_u>
    f51b:	66 85 c0             	test   %ax,%ax
    f51e:	74 18                	je     f538 <func_53+0x2075>
    f520:	0f be 85 84 eb ff ff 	movsbl -0x147c(%rbp),%eax
    f527:	23 85 ec eb ff ff    	and    -0x1414(%rbp),%eax
    f52d:	85 c0                	test   %eax,%eax
    f52f:	74 07                	je     f538 <func_53+0x2075>
    f531:	b8 01 00 00 00       	mov    $0x1,%eax
    f536:	eb 05                	jmp    f53d <func_53+0x207a>
    f538:	b8 00 00 00 00       	mov    $0x0,%eax
    f53d:	48 98                	cltq   
    f53f:	83 e0 06             	and    $0x6,%eax
    f542:	48 89 c2             	mov    %rax,%rdx
    f545:	48 8b 85 d0 ee ff ff 	mov    -0x1130(%rbp),%rax
    f54c:	48 89 10             	mov    %rdx,(%rax)
    f54f:	48 8b 85 d0 ee ff ff 	mov    -0x1130(%rbp),%rax
    f556:	48 8b 10             	mov    (%rax),%rdx
    f559:	8b 85 84 ec ff ff    	mov    -0x137c(%rbp),%eax
    f55f:	48 98                	cltq   
    f561:	48 39 c2             	cmp    %rax,%rdx
    f564:	be 04 00 00 00       	mov    $0x4,%esi
    f569:	bf 01 00 00 00       	mov    $0x1,%edi
    f56e:	e8 07 89 ff ff       	callq  7e7a <safe_rshift_func_uint16_t_u_u>
    f573:	44 89 e6             	mov    %r12d,%esi
    f576:	bf 01 00 00 00       	mov    $0x1,%edi
    f57b:	e8 7f 81 ff ff       	callq  76ff <safe_div_func_int32_t_s_s>
    f580:	48 8b 05 49 bc 00 00 	mov    0xbc49(%rip),%rax        # 1b1d0 <g_393>
    f587:	48 8b 00             	mov    (%rax),%rax
    f58a:	48 8b 00             	mov    (%rax),%rax
    f58d:	48 39 85 e0 ee ff ff 	cmp    %rax,-0x1120(%rbp)
    f594:	c7 85 48 ec ff ff 18 	movl   $0x82d0618,-0x13b8(%rbp)
    f59b:	06 2d 08 
    f59e:	be 03 00 00 00       	mov    $0x3,%esi
    f5a3:	bf 00 00 00 00       	mov    $0x0,%edi
    f5a8:	e8 bf 7d ff ff       	callq  736c <safe_rshift_func_int8_t_s_u>
    f5ad:	84 c0                	test   %al,%al
    f5af:	0f 9e c0             	setle  %al
    f5b2:	0f b6 c0             	movzbl %al,%eax
    f5b5:	be 06 00 00 00       	mov    $0x6,%esi
    f5ba:	89 c7                	mov    %eax,%edi
    f5bc:	e8 44 86 ff ff       	callq  7c05 <safe_lshift_func_uint8_t_u_s>
    f5c1:	44 0f b6 e0          	movzbl %al,%r12d
    f5c5:	be 05 00 00 00       	mov    $0x5,%esi
    f5ca:	bf 00 00 00 00       	mov    $0x0,%edi
    f5cf:	e8 78 86 ff ff       	callq  7c4c <safe_lshift_func_uint8_t_u_u>
    f5d4:	0f b6 c0             	movzbl %al,%eax
    f5d7:	44 89 e6             	mov    %r12d,%esi
    f5da:	89 c7                	mov    %eax,%edi
    f5dc:	e8 b2 85 ff ff       	callq  7b93 <safe_mul_func_uint8_t_u_u>
    f5e1:	84 c0                	test   %al,%al
    f5e3:	74 07                	je     f5ec <func_53+0x2129>
    f5e5:	b8 01 00 00 00       	mov    $0x1,%eax
    f5ea:	eb 05                	jmp    f5f1 <func_53+0x212e>
    f5ec:	b8 00 00 00 00       	mov    $0x0,%eax
    f5f1:	89 de                	mov    %ebx,%esi
    f5f3:	89 c7                	mov    %eax,%edi
    f5f5:	e8 bc 7f ff ff       	callq  75b6 <safe_add_func_int32_t_s_s>
    f5fa:	0f b6 c0             	movzbl %al,%eax
    f5fd:	be 02 00 00 00       	mov    $0x2,%esi
    f602:	89 c7                	mov    %eax,%edi
    f604:	e8 b5 86 ff ff       	callq  7cbe <safe_rshift_func_uint8_t_u_u>
    f609:	0f b6 d0             	movzbl %al,%edx
    f60c:	48 8b 85 f0 ec ff ff 	mov    -0x1310(%rbp),%rax
    f613:	44 21 ea             	and    %r13d,%edx
    f616:	89 10                	mov    %edx,(%rax)
    f618:	8b 10                	mov    (%rax),%edx
    f61a:	8b 85 50 f2 ff ff    	mov    -0xdb0(%rbp),%eax
    f620:	09 d0                	or     %edx,%eax
    f622:	89 85 50 f2 ff ff    	mov    %eax,-0xdb0(%rbp)
    f628:	e9 0d 01 00 00       	jmpq   f73a <func_53+0x2277>
    f62d:	48 8d 85 30 f8 ff ff 	lea    -0x7d0(%rbp),%rax
    f634:	48 8d 15 c5 b1 00 00 	lea    0xb1c5(%rip),%rdx        # 1a800 <g_2946+0xe10>
    f63b:	b9 40 00 00 00       	mov    $0x40,%ecx
    f640:	48 89 c7             	mov    %rax,%rdi
    f643:	48 89 d6             	mov    %rdx,%rsi
    f646:	f3 48 a5             	rep movsq %ds:(%rsi),%es:(%rdi)
    f649:	c7 85 7c ec ff ff 4c 	movl   $0x19813b4c,-0x1384(%rbp)
    f650:	3b 81 19 
    f653:	48 8b 85 88 eb ff ff 	mov    -0x1478(%rbp),%rax
    f65a:	0f b6 00             	movzbl (%rax),%eax
    f65d:	0f be d8             	movsbl %al,%ebx
    f660:	0f be 85 a1 eb ff ff 	movsbl -0x145f(%rbp),%eax
    f667:	48 8b 15 62 bb 00 00 	mov    0xbb62(%rip),%rdx        # 1b1d0 <g_393>
    f66e:	48 8b 12             	mov    (%rdx),%rdx
    f671:	0f b6 95 84 eb ff ff 	movzbl -0x147c(%rbp),%edx
    f678:	83 ca 01             	or     $0x1,%edx
    f67b:	0f be d2             	movsbl %dl,%edx
    f67e:	89 95 c4 eb ff ff    	mov    %edx,-0x143c(%rbp)
    f684:	89 c6                	mov    %eax,%esi
    f686:	bf f6 00 00 00       	mov    $0xf6,%edi
    f68b:	e8 bc 85 ff ff       	callq  7c4c <safe_lshift_func_uint8_t_u_u>
    f690:	8b 05 aa 99 00 00    	mov    0x99aa(%rip),%eax        # 19040 <g_3+0x10>
    f696:	85 c0                	test   %eax,%eax
    f698:	0f 9e c0             	setle  %al
    f69b:	0f b6 c0             	movzbl %al,%eax
    f69e:	89 de                	mov    %ebx,%esi
    f6a0:	89 c7                	mov    %eax,%edi
    f6a2:	e8 5e 85 ff ff       	callq  7c05 <safe_lshift_func_uint8_t_u_s>
    f6a7:	0f b6 c0             	movzbl %al,%eax
    f6aa:	66 89 05 85 ce 00 00 	mov    %ax,0xce85(%rip)        # 1c536 <g_1814+0x6>
    f6b1:	0f b7 05 7e ce 00 00 	movzwl 0xce7e(%rip),%eax        # 1c536 <g_1814+0x6>
    f6b8:	0f b7 c0             	movzwl %ax,%eax
    f6bb:	89 85 7c ec ff ff    	mov    %eax,-0x1384(%rbp)
    f6c1:	8b 85 7c ec ff ff    	mov    -0x1384(%rbp),%eax
    f6c7:	0f b7 c0             	movzwl %ax,%eax
    f6ca:	be ae c9 00 00       	mov    $0xc9ae,%esi
    f6cf:	89 c7                	mov    %eax,%edi
    f6d1:	e8 b8 86 ff ff       	callq  7d8e <safe_div_func_uint16_t_u_u>
    f6d6:	0f b7 c0             	movzwl %ax,%eax
    f6d9:	be 09 00 00 00       	mov    $0x9,%esi
    f6de:	89 c7                	mov    %eax,%edi
    f6e0:	e8 77 86 ff ff       	callq  7d5c <safe_mod_func_uint16_t_u_u>
    f6e5:	66 83 f8 01          	cmp    $0x1,%ax
    f6e9:	0f 97 c2             	seta   %dl
    f6ec:	48 8b 85 f0 ec ff ff 	mov    -0x1310(%rbp),%rax
    f6f3:	0f b6 d2             	movzbl %dl,%edx
    f6f6:	89 10                	mov    %edx,(%rax)
    f6f8:	48 8b 85 f0 ec ff ff 	mov    -0x1310(%rbp),%rax
    f6ff:	8b 08                	mov    (%rax),%ecx
    f701:	48 8b 05 28 bb 00 00 	mov    0xbb28(%rip),%rax        # 1b230 <g_808>
    f708:	8b 10                	mov    (%rax),%edx
    f70a:	48 8b 85 f0 ec ff ff 	mov    -0x1310(%rbp),%rax
    f711:	31 ca                	xor    %ecx,%edx
    f713:	89 10                	mov    %edx,(%rax)
    f715:	48 8b 05 f4 bb 00 00 	mov    0xbbf4(%rip),%rax        # 1b310 <g_1262>
    f71c:	48 8b 10             	mov    (%rax),%rdx
    f71f:	48 8b 85 f0 ec ff ff 	mov    -0x1310(%rbp),%rax
    f726:	8b 12                	mov    (%rdx),%edx
    f728:	89 10                	mov    %edx,(%rax)
    f72a:	8b 10                	mov    (%rax),%edx
    f72c:	8b 85 78 f0 ff ff    	mov    -0xf88(%rbp),%eax
    f732:	09 d0                	or     %edx,%eax
    f734:	89 85 78 f0 ff ff    	mov    %eax,-0xf88(%rbp)
    f73a:	c7 05 14 99 00 00 00 	movl   $0x0,0x9914(%rip)        # 19058 <g_65>
    f741:	00 00 00 
    f744:	e9 c6 04 00 00       	jmpq   fc0f <func_53+0x274c>
    f749:	48 8d 85 08 ed ff ff 	lea    -0x12f8(%rbp),%rax
    f750:	48 89 85 60 ef ff ff 	mov    %rax,-0x10a0(%rbp)
    f757:	c7 85 9c ec ff ff 01 	movl   $0x1,-0x1364(%rbp)
    f75e:	00 00 00 
    f761:	c7 85 a0 ec ff ff 3e 	movl   $0x1c70613e,-0x1360(%rbp)
    f768:	61 70 1c 
    f76b:	c7 85 a4 ec ff ff fa 	movl   $0xf58947fa,-0x135c(%rbp)
    f772:	47 89 f5 
    f775:	48 8d 85 30 f8 ff ff 	lea    -0x7d0(%rbp),%rax
    f77c:	48 8d 15 fd 60 00 00 	lea    0x60fd(%rip),%rdx        # 15880 <g_2798+0x80c>
    f783:	b9 78 00 00 00       	mov    $0x78,%ecx
    f788:	48 89 c7             	mov    %rax,%rdi
    f78b:	48 89 d6             	mov    %rdx,%rsi
    f78e:	f3 48 a5             	rep movsq %ds:(%rsi),%es:(%rdi)
    f791:	48 8b 85 38 ed ff ff 	mov    -0x12c8(%rbp),%rax
    f798:	48 8b 95 60 ef ff ff 	mov    -0x10a0(%rbp),%rdx
    f79f:	48 89 10             	mov    %rdx,(%rax)
    f7a2:	c7 05 f4 99 00 00 00 	movl   $0x0,0x99f4(%rip)        # 191a0 <g_306>
    f7a9:	00 00 00 
    f7ac:	eb 18                	jmp    f7c6 <func_53+0x2303>
    f7ae:	80 bd 84 eb ff ff 00 	cmpb   $0x0,-0x147c(%rbp)
    f7b5:	75 1b                	jne    f7d2 <func_53+0x230f>
    f7b7:	8b 05 e3 99 00 00    	mov    0x99e3(%rip),%eax        # 191a0 <g_306>
    f7bd:	83 c0 01             	add    $0x1,%eax
    f7c0:	89 05 da 99 00 00    	mov    %eax,0x99da(%rip)        # 191a0 <g_306>
    f7c6:	8b 05 d4 99 00 00    	mov    0x99d4(%rip),%eax        # 191a0 <g_306>
    f7cc:	85 c0                	test   %eax,%eax
    f7ce:	74 de                	je     f7ae <func_53+0x22eb>
    f7d0:	eb 01                	jmp    f7d3 <func_53+0x2310>
    f7d2:	90                   	nop
    f7d3:	48 8b 05 4e bc 00 00 	mov    0xbc4e(%rip),%rax        # 1b428 <g_1865>
    f7da:	48 8d 95 e0 eb ff ff 	lea    -0x1420(%rbp),%rdx
    f7e1:	48 89 10             	mov    %rdx,(%rax)
    f7e4:	66 c7 05 eb 99 00 00 	movw   $0x0,0x99eb(%rip)        # 191d8 <g_664>
    f7eb:	00 00 
    f7ed:	e9 f1 03 00 00       	jmpq   fbe3 <func_53+0x2720>
    f7f2:	48 c7 85 68 ef ff ff 	movq   $0x0,-0x1098(%rbp)
    f7f9:	00 00 00 00 
    f7fd:	48 8d 85 48 ed ff ff 	lea    -0x12b8(%rbp),%rax
    f804:	48 89 85 70 ef ff ff 	mov    %rax,-0x1090(%rbp)
    f80b:	48 c7 85 c0 f1 ff ff 	movq   $0x0,-0xe40(%rbp)
    f812:	00 00 00 00 
    f816:	48 c7 85 c8 f1 ff ff 	movq   $0x0,-0xe38(%rbp)
    f81d:	00 00 00 00 
    f821:	48 c7 85 d0 f1 ff ff 	movq   $0x0,-0xe30(%rbp)
    f828:	00 00 00 00 
    f82c:	48 8d 05 2d cc 00 00 	lea    0xcc2d(%rip),%rax        # 1c460 <g_128>
    f833:	48 89 85 d8 f1 ff ff 	mov    %rax,-0xe28(%rbp)
    f83a:	48 8d 05 1f cc 00 00 	lea    0xcc1f(%rip),%rax        # 1c460 <g_128>
    f841:	48 89 85 e0 f1 ff ff 	mov    %rax,-0xe20(%rbp)
    f848:	48 8d 05 11 cc 00 00 	lea    0xcc11(%rip),%rax        # 1c460 <g_128>
    f84f:	48 89 85 e8 f1 ff ff 	mov    %rax,-0xe18(%rbp)
    f856:	48 c7 85 f0 f1 ff ff 	movq   $0x0,-0xe10(%rbp)
    f85d:	00 00 00 00 
    f861:	48 c7 85 f8 f1 ff ff 	movq   $0x0,-0xe08(%rbp)
    f868:	00 00 00 00 
    f86c:	48 c7 85 00 f2 ff ff 	movq   $0x0,-0xe00(%rbp)
    f873:	00 00 00 00 
    f877:	48 8d 05 e2 cb 00 00 	lea    0xcbe2(%rip),%rax        # 1c460 <g_128>
    f87e:	48 89 85 08 f2 ff ff 	mov    %rax,-0xdf8(%rbp)
    f885:	48 8d 05 d4 cb 00 00 	lea    0xcbd4(%rip),%rax        # 1c460 <g_128>
    f88c:	48 89 85 10 f2 ff ff 	mov    %rax,-0xdf0(%rbp)
    f893:	48 8d 05 c6 cb 00 00 	lea    0xcbc6(%rip),%rax        # 1c460 <g_128>
    f89a:	48 89 85 18 f2 ff ff 	mov    %rax,-0xde8(%rbp)
    f8a1:	48 8d 05 09 99 00 00 	lea    0x9909(%rip),%rax        # 191b1 <g_361>
    f8a8:	48 89 85 78 ef ff ff 	mov    %rax,-0x1088(%rbp)
    f8af:	48 8d 05 a2 9a 00 00 	lea    0x9aa2(%rip),%rax        # 19358 <g_1235>
    f8b6:	48 89 85 80 ef ff ff 	mov    %rax,-0x1080(%rbp)
    f8bd:	48 8d 85 10 f1 ff ff 	lea    -0xef0(%rbp),%rax
    f8c4:	48 83 c0 24          	add    $0x24,%rax
    f8c8:	48 89 85 88 ef ff ff 	mov    %rax,-0x1078(%rbp)
    f8cf:	48 c7 85 90 ef ff ff 	movq   $0x0,-0x1070(%rbp)
    f8d6:	00 00 00 00 
    f8da:	48 8d 85 d4 eb ff ff 	lea    -0x142c(%rbp),%rax
    f8e1:	48 89 85 98 ef ff ff 	mov    %rax,-0x1068(%rbp)
    f8e8:	48 8d 85 30 f2 ff ff 	lea    -0xdd0(%rbp),%rax
    f8ef:	48 05 84 00 00 00    	add    $0x84,%rax
    f8f5:	48 89 85 a0 ef ff ff 	mov    %rax,-0x1060(%rbp)
    f8fc:	48 8d 85 2c f0 ff ff 	lea    -0xfd4(%rbp),%rax
    f903:	48 89 85 a8 ef ff ff 	mov    %rax,-0x1058(%rbp)
    f90a:	48 8d 85 30 f2 ff ff 	lea    -0xdd0(%rbp),%rax
    f911:	48 83 c0 20          	add    $0x20,%rax
    f915:	48 89 85 b0 ef ff ff 	mov    %rax,-0x1050(%rbp)
    f91c:	48 8d 85 10 f1 ff ff 	lea    -0xef0(%rbp),%rax
    f923:	48 89 85 b8 ef ff ff 	mov    %rax,-0x1048(%rbp)
    f92a:	48 8d 85 e0 eb ff ff 	lea    -0x1420(%rbp),%rax
    f931:	48 89 85 c0 ef ff ff 	mov    %rax,-0x1040(%rbp)
    f938:	48 8d 85 c8 eb ff ff 	lea    -0x1438(%rbp),%rax
    f93f:	48 89 85 c8 ef ff ff 	mov    %rax,-0x1038(%rbp)
    f946:	48 8d 85 c0 eb ff ff 	lea    -0x1440(%rbp),%rax
    f94d:	48 89 85 c0 f2 ff ff 	mov    %rax,-0xd40(%rbp)
    f954:	48 8d 85 c0 eb ff ff 	lea    -0x1440(%rbp),%rax
    f95b:	48 89 85 c8 f2 ff ff 	mov    %rax,-0xd38(%rbp)
    f962:	48 8d 85 c0 eb ff ff 	lea    -0x1440(%rbp),%rax
    f969:	48 89 85 d0 f2 ff ff 	mov    %rax,-0xd30(%rbp)
    f970:	48 8d 85 c0 eb ff ff 	lea    -0x1440(%rbp),%rax
    f977:	48 89 85 d8 f2 ff ff 	mov    %rax,-0xd28(%rbp)
    f97e:	48 8d 85 c0 eb ff ff 	lea    -0x1440(%rbp),%rax
    f985:	48 89 85 e0 f2 ff ff 	mov    %rax,-0xd20(%rbp)
    f98c:	48 8d 85 60 f0 ff ff 	lea    -0xfa0(%rbp),%rax
    f993:	48 83 c0 0c          	add    $0xc,%rax
    f997:	48 89 85 e8 f2 ff ff 	mov    %rax,-0xd18(%rbp)
    f99e:	48 8d 85 60 f0 ff ff 	lea    -0xfa0(%rbp),%rax
    f9a5:	48 83 c0 0c          	add    $0xc,%rax
    f9a9:	48 89 85 f0 f2 ff ff 	mov    %rax,-0xd10(%rbp)
    f9b0:	48 8d 85 60 f0 ff ff 	lea    -0xfa0(%rbp),%rax
    f9b7:	48 83 c0 0c          	add    $0xc,%rax
    f9bb:	48 89 85 f8 f2 ff ff 	mov    %rax,-0xd08(%rbp)
    f9c2:	48 8d 85 60 f0 ff ff 	lea    -0xfa0(%rbp),%rax
    f9c9:	48 83 c0 0c          	add    $0xc,%rax
    f9cd:	48 89 85 00 f3 ff ff 	mov    %rax,-0xd00(%rbp)
    f9d4:	48 8d 85 60 f0 ff ff 	lea    -0xfa0(%rbp),%rax
    f9db:	48 83 c0 0c          	add    $0xc,%rax
    f9df:	48 89 85 08 f3 ff ff 	mov    %rax,-0xcf8(%rbp)
    f9e6:	48 8d 85 c0 eb ff ff 	lea    -0x1440(%rbp),%rax
    f9ed:	48 89 85 10 f3 ff ff 	mov    %rax,-0xcf0(%rbp)
    f9f4:	48 8d 85 c0 eb ff ff 	lea    -0x1440(%rbp),%rax
    f9fb:	48 89 85 18 f3 ff ff 	mov    %rax,-0xce8(%rbp)
    fa02:	48 8d 85 c0 eb ff ff 	lea    -0x1440(%rbp),%rax
    fa09:	48 89 85 20 f3 ff ff 	mov    %rax,-0xce0(%rbp)
    fa10:	48 8d 85 c0 eb ff ff 	lea    -0x1440(%rbp),%rax
    fa17:	48 89 85 28 f3 ff ff 	mov    %rax,-0xcd8(%rbp)
    fa1e:	48 8d 85 c0 eb ff ff 	lea    -0x1440(%rbp),%rax
    fa25:	48 89 85 30 f3 ff ff 	mov    %rax,-0xcd0(%rbp)
    fa2c:	c6 85 a9 eb ff ff 62 	movb   $0x62,-0x1457(%rbp)
    fa33:	48 83 bd 68 ef ff ff 	cmpq   $0x0,-0x1098(%rbp)
    fa3a:	00 
    fa3b:	0f 95 c0             	setne  %al
    fa3e:	0f b6 c0             	movzbl %al,%eax
    fa41:	66 89 05 ee ca 00 00 	mov    %ax,0xcaee(%rip)        # 1c536 <g_1814+0x6>
    fa48:	48 8b 95 48 ed ff ff 	mov    -0x12b8(%rbp),%rdx
    fa4f:	48 8b 85 70 ef ff ff 	mov    -0x1090(%rbp),%rax
    fa56:	48 89 10             	mov    %rdx,(%rax)
    fa59:	48 8b 85 70 ef ff ff 	mov    -0x1090(%rbp),%rax
    fa60:	48 8b 10             	mov    (%rax),%rdx
    fa63:	48 8b 05 36 b8 00 00 	mov    0xb836(%rip),%rax        # 1b2a0 <g_1181>
    fa6a:	48 8b 00             	mov    (%rax),%rax
    fa6d:	48 39 c2             	cmp    %rax,%rdx
    fa70:	48 8b 85 78 ef ff ff 	mov    -0x1088(%rbp),%rax
    fa77:	0f b6 00             	movzbl (%rax),%eax
    fa7a:	8d 50 01             	lea    0x1(%rax),%edx
    fa7d:	48 8b 85 78 ef ff ff 	mov    -0x1088(%rbp),%rax
    fa84:	88 10                	mov    %dl,(%rax)
    fa86:	48 8b 85 78 ef ff ff 	mov    -0x1088(%rbp),%rax
    fa8d:	0f b6 00             	movzbl (%rax),%eax
    fa90:	0f b6 c0             	movzbl %al,%eax
    fa93:	89 85 2c f0 ff ff    	mov    %eax,-0xfd4(%rbp)
    fa99:	8b 95 2c f0 ff ff    	mov    -0xfd4(%rbp),%edx
    fa9f:	0f be 8d 84 eb ff ff 	movsbl -0x147c(%rbp),%ecx
    faa6:	8b 85 e0 eb ff ff    	mov    -0x1420(%rbp),%eax
    faac:	39 c1                	cmp    %eax,%ecx
    faae:	0f 95 c0             	setne  %al
    fab1:	0f b6 c0             	movzbl %al,%eax
    fab4:	39 c2                	cmp    %eax,%edx
    fab6:	0f 9d c0             	setge  %al
    fab9:	0f b6 c8             	movzbl %al,%ecx
    fabc:	8b 85 c4 eb ff ff    	mov    -0x143c(%rbp),%eax
    fac2:	33 85 78 ec ff ff    	xor    -0x1388(%rbp),%eax
    fac8:	89 85 c4 eb ff ff    	mov    %eax,-0x143c(%rbp)
    face:	8b 85 c4 eb ff ff    	mov    -0x143c(%rbp),%eax
    fad4:	48 63 d0             	movslq %eax,%rdx
    fad7:	48 63 c9             	movslq %ecx,%rcx
    fada:	48 8b 05 07 ca 00 00 	mov    0xca07(%rip),%rax        # 1c4e8 <g_1180>
    fae1:	48 09 c8             	or     %rcx,%rax
    fae4:	48 89 05 fd c9 00 00 	mov    %rax,0xc9fd(%rip)        # 1c4e8 <g_1180>
    faeb:	48 8b 05 f6 c9 00 00 	mov    0xc9f6(%rip),%rax        # 1c4e8 <g_1180>
    faf2:	48 39 c2             	cmp    %rax,%rdx
    faf5:	0f 97 c0             	seta   %al
    faf8:	0f b6 d0             	movzbl %al,%edx
    fafb:	66 0f be 85 84 eb ff 	movsbw -0x147c(%rbp),%ax
    fb02:	ff 
    fb03:	66 89 05 2c ca 00 00 	mov    %ax,0xca2c(%rip)        # 1c536 <g_1814+0x6>
    fb0a:	0f b7 05 25 ca 00 00 	movzwl 0xca25(%rip),%eax        # 1c536 <g_1814+0x6>
    fb11:	66 89 05 92 95 00 00 	mov    %ax,0x9592(%rip)        # 190aa <g_126>
    fb18:	0f b7 05 8b 95 00 00 	movzwl 0x958b(%rip),%eax        # 190aa <g_126>
    fb1f:	0f b7 c0             	movzwl %ax,%eax
    fb22:	89 d6                	mov    %edx,%esi
    fb24:	89 c7                	mov    %eax,%edi
    fb26:	e8 db 82 ff ff       	callq  7e06 <safe_lshift_func_uint16_t_u_u>
    fb2b:	48 8b 85 80 ef ff ff 	mov    -0x1080(%rbp),%rax
    fb32:	48 c7 00 00 00 00 00 	movq   $0x0,(%rax)
    fb39:	48 0f be 85 84 eb ff 	movsbq -0x147c(%rbp),%rax
    fb40:	ff 
    fb41:	ba fe ff ff ff       	mov    $0xfffffffe,%edx
    fb46:	48 39 d0             	cmp    %rdx,%rax
    fb49:	0f 97 c0             	seta   %al
    fb4c:	0f b6 c0             	movzbl %al,%eax
    fb4f:	89 85 9c f2 ff ff    	mov    %eax,-0xd64(%rbp)
    fb55:	8b 85 9c f2 ff ff    	mov    -0xd64(%rbp),%eax
    fb5b:	be ff ff ff ff       	mov    $0xffffffff,%esi
    fb60:	89 c7                	mov    %eax,%edi
    fb62:	e8 be 83 ff ff       	callq  7f25 <safe_div_func_uint32_t_u_u>
    fb67:	b8 01 00 00 00       	mov    $0x1,%eax
    fb6c:	0f b7 c0             	movzwl %ax,%eax
    fb6f:	be 0a 00 00 00       	mov    $0xa,%esi
    fb74:	89 c7                	mov    %eax,%edi
    fb76:	e8 43 82 ff ff       	callq  7dbe <safe_lshift_func_uint16_t_u_s>
    fb7b:	89 c2                	mov    %eax,%edx
    fb7d:	48 8b 05 64 b0 00 00 	mov    0xb064(%rip),%rax        # 1abe8 <g_226>
    fb84:	0f b7 d2             	movzwl %dx,%edx
    fb87:	89 10                	mov    %edx,(%rax)
    fb89:	48 8b 05 58 b0 00 00 	mov    0xb058(%rip),%rax        # 1abe8 <g_226>
    fb90:	8b 08                	mov    (%rax),%ecx
    fb92:	48 8b 85 f0 ec ff ff 	mov    -0x1310(%rbp),%rax
    fb99:	8b 10                	mov    (%rax),%edx
    fb9b:	48 8b 05 46 b0 00 00 	mov    0xb046(%rip),%rax        # 1abe8 <g_226>
    fba2:	31 ca                	xor    %ecx,%edx
    fba4:	89 10                	mov    %edx,(%rax)
    fba6:	48 8b 95 f0 ec ff ff 	mov    -0x1310(%rbp),%rdx
    fbad:	8b 00                	mov    (%rax),%eax
    fbaf:	89 02                	mov    %eax,(%rdx)
    fbb1:	0f b6 85 a0 eb ff ff 	movzbl -0x1460(%rbp),%eax
    fbb8:	83 e8 01             	sub    $0x1,%eax
    fbbb:	88 85 a0 eb ff ff    	mov    %al,-0x1460(%rbp)
    fbc1:	0f b7 85 ae eb ff ff 	movzwl -0x1452(%rbp),%eax
    fbc8:	83 e8 01             	sub    $0x1,%eax
    fbcb:	66 89 85 ae eb ff ff 	mov    %ax,-0x1452(%rbp)
    fbd2:	0f b7 05 ff 95 00 00 	movzwl 0x95ff(%rip),%eax        # 191d8 <g_664>
    fbd9:	83 c0 01             	add    $0x1,%eax
    fbdc:	66 89 05 f5 95 00 00 	mov    %ax,0x95f5(%rip)        # 191d8 <g_664>
    fbe3:	0f b7 05 ee 95 00 00 	movzwl 0x95ee(%rip),%eax        # 191d8 <g_664>
    fbea:	66 83 f8 19          	cmp    $0x19,%ax
    fbee:	0f 8f fe fb ff ff    	jg     f7f2 <func_53+0x232f>
    fbf4:	8b 05 5e 94 00 00    	mov    0x945e(%rip),%eax        # 19058 <g_65>
    fbfa:	48 98                	cltq   
    fbfc:	be 01 00 00 00       	mov    $0x1,%esi
    fc01:	48 89 c7             	mov    %rax,%rdi
    fc04:	e8 9f 7c ff ff       	callq  78a8 <safe_sub_func_int64_t_s_s>
    fc09:	89 05 49 94 00 00    	mov    %eax,0x9449(%rip)        # 19058 <g_65>
    fc0f:	8b 05 43 94 00 00    	mov    0x9443(%rip),%eax        # 19058 <g_65>
    fc15:	83 f8 ed             	cmp    $0xffffffed,%eax
    fc18:	0f 8d 2b fb ff ff    	jge    f749 <func_53+0x2286>
    fc1e:	48 8b 05 13 b6 00 00 	mov    0xb613(%rip),%rax        # 1b238 <g_807>
    fc25:	48 8b 00             	mov    (%rax),%rax
    fc28:	8b 08                	mov    (%rax),%ecx
    fc2a:	48 8b 85 f0 ec ff ff 	mov    -0x1310(%rbp),%rax
    fc31:	8b 10                	mov    (%rax),%edx
    fc33:	48 8b 85 f0 ec ff ff 	mov    -0x1310(%rbp),%rax
    fc3a:	21 ca                	and    %ecx,%edx
    fc3c:	89 10                	mov    %edx,(%rax)
    fc3e:	8b 10                	mov    (%rax),%edx
    fc40:	8b 05 12 94 00 00    	mov    0x9412(%rip),%eax        # 19058 <g_65>
    fc46:	21 d0                	and    %edx,%eax
    fc48:	89 05 0a 94 00 00    	mov    %eax,0x940a(%rip)        # 19058 <g_65>
    fc4e:	81 bd 40 ec ff ff c8 	cmpl   $0xc8,-0x13c0(%rbp)
    fc55:	00 00 00 
    fc58:	77 50                	ja     fcaa <func_53+0x27e7>
    fc5a:	48 8b 85 f0 ec ff ff 	mov    -0x1310(%rbp),%rax
    fc61:	8b 08                	mov    (%rax),%ecx
    fc63:	8b 95 c8 eb ff ff    	mov    -0x1438(%rbp),%edx
    fc69:	48 8b 85 f0 ec ff ff 	mov    -0x1310(%rbp),%rax
    fc70:	21 ca                	and    %ecx,%edx
    fc72:	89 10                	mov    %edx,(%rax)
    fc74:	8b 00                	mov    (%rax),%eax
    fc76:	0f bf d0             	movswl %ax,%edx
    fc79:	48 8b 05 98 b5 00 00 	mov    0xb598(%rip),%rax        # 1b218 <g_785>
    fc80:	0f b7 00             	movzwl (%rax),%eax
    fc83:	98                   	cwtl   
    fc84:	89 d6                	mov    %edx,%esi
    fc86:	89 c7                	mov    %eax,%edi
    fc88:	e8 89 77 ff ff       	callq  7416 <safe_mod_func_int16_t_s_s>
    fc8d:	0f be d0             	movsbl %al,%edx
    fc90:	48 8b 85 88 eb ff ff 	mov    -0x1478(%rbp),%rax
    fc97:	0f b6 00             	movzbl (%rax),%eax
    fc9a:	0f be c0             	movsbl %al,%eax
    fc9d:	89 d6                	mov    %edx,%esi
    fc9f:	89 c7                	mov    %eax,%edi
    fca1:	e8 6c 75 ff ff       	callq  7212 <safe_mul_func_int8_t_s_s>
    fca6:	84 c0                	test   %al,%al
    fca8:	74 07                	je     fcb1 <func_53+0x27ee>
    fcaa:	b8 01 00 00 00       	mov    $0x1,%eax
    fcaf:	eb 05                	jmp    fcb6 <func_53+0x27f3>
    fcb1:	b8 00 00 00 00       	mov    $0x0,%eax
    fcb6:	83 f0 01             	xor    $0x1,%eax
    fcb9:	20 85 a3 eb ff ff    	and    %al,-0x145d(%rbp)
    fcbf:	e9 f3 21 00 00       	jmpq   11eb7 <func_53+0x49f4>
    fcc4:	c7 85 50 ec ff ff 80 	movl   $0x72d8b980,-0x13b0(%rbp)
    fccb:	b9 d8 72 
    fcce:	c7 85 18 ed ff ff 00 	movl   $0x0,-0x12e8(%rbp)
    fcd5:	00 00 00 
    fcd8:	48 8d 05 cb 93 00 00 	lea    0x93cb(%rip),%rax        # 190aa <g_126>
    fcdf:	48 89 85 10 f5 ff ff 	mov    %rax,-0xaf0(%rbp)
    fce6:	48 8d 05 bd 93 00 00 	lea    0x93bd(%rip),%rax        # 190aa <g_126>
    fced:	48 89 85 18 f5 ff ff 	mov    %rax,-0xae8(%rbp)
    fcf4:	48 8d 05 af 93 00 00 	lea    0x93af(%rip),%rax        # 190aa <g_126>
    fcfb:	48 89 85 20 f5 ff ff 	mov    %rax,-0xae0(%rbp)
    fd02:	48 8d 05 57 c7 00 00 	lea    0xc757(%rip),%rax        # 1c460 <g_128>
    fd09:	48 89 85 28 f5 ff ff 	mov    %rax,-0xad8(%rbp)
    fd10:	48 8d 85 ac eb ff ff 	lea    -0x1454(%rbp),%rax
    fd17:	48 89 85 30 f5 ff ff 	mov    %rax,-0xad0(%rbp)
    fd1e:	48 8d 05 11 c8 00 00 	lea    0xc811(%rip),%rax        # 1c536 <g_1814+0x6>
    fd25:	48 89 85 38 f5 ff ff 	mov    %rax,-0xac8(%rbp)
    fd2c:	48 8d 05 77 93 00 00 	lea    0x9377(%rip),%rax        # 190aa <g_126>
    fd33:	48 89 85 40 f5 ff ff 	mov    %rax,-0xac0(%rbp)
    fd3a:	48 8d 05 69 93 00 00 	lea    0x9369(%rip),%rax        # 190aa <g_126>
    fd41:	48 89 85 48 f5 ff ff 	mov    %rax,-0xab8(%rbp)
    fd48:	48 8d 05 5b 93 00 00 	lea    0x935b(%rip),%rax        # 190aa <g_126>
    fd4f:	48 89 85 50 f5 ff ff 	mov    %rax,-0xab0(%rbp)
    fd56:	48 8d 05 03 c7 00 00 	lea    0xc703(%rip),%rax        # 1c460 <g_128>
    fd5d:	48 89 85 58 f5 ff ff 	mov    %rax,-0xaa8(%rbp)
    fd64:	48 8d 85 ac eb ff ff 	lea    -0x1454(%rbp),%rax
    fd6b:	48 89 85 60 f5 ff ff 	mov    %rax,-0xaa0(%rbp)
    fd72:	48 8d 05 bd c7 00 00 	lea    0xc7bd(%rip),%rax        # 1c536 <g_1814+0x6>
    fd79:	48 89 85 68 f5 ff ff 	mov    %rax,-0xa98(%rbp)
    fd80:	48 8d 05 23 93 00 00 	lea    0x9323(%rip),%rax        # 190aa <g_126>
    fd87:	48 89 85 70 f5 ff ff 	mov    %rax,-0xa90(%rbp)
    fd8e:	48 8d 05 15 93 00 00 	lea    0x9315(%rip),%rax        # 190aa <g_126>
    fd95:	48 89 85 78 f5 ff ff 	mov    %rax,-0xa88(%rbp)
    fd9c:	48 8d 05 07 93 00 00 	lea    0x9307(%rip),%rax        # 190aa <g_126>
    fda3:	48 89 85 80 f5 ff ff 	mov    %rax,-0xa80(%rbp)
    fdaa:	48 8d 05 af c6 00 00 	lea    0xc6af(%rip),%rax        # 1c460 <g_128>
    fdb1:	48 89 85 88 f5 ff ff 	mov    %rax,-0xa78(%rbp)
    fdb8:	48 8d 85 ac eb ff ff 	lea    -0x1454(%rbp),%rax
    fdbf:	48 89 85 90 f5 ff ff 	mov    %rax,-0xa70(%rbp)
    fdc6:	48 8d 05 69 c7 00 00 	lea    0xc769(%rip),%rax        # 1c536 <g_1814+0x6>
    fdcd:	48 89 85 98 f5 ff ff 	mov    %rax,-0xa68(%rbp)
    fdd4:	48 8d 05 cf 92 00 00 	lea    0x92cf(%rip),%rax        # 190aa <g_126>
    fddb:	48 89 85 a0 f5 ff ff 	mov    %rax,-0xa60(%rbp)
    fde2:	48 8d 05 c1 92 00 00 	lea    0x92c1(%rip),%rax        # 190aa <g_126>
    fde9:	48 89 85 a8 f5 ff ff 	mov    %rax,-0xa58(%rbp)
    fdf0:	48 8d 05 b3 92 00 00 	lea    0x92b3(%rip),%rax        # 190aa <g_126>
    fdf7:	48 89 85 b0 f5 ff ff 	mov    %rax,-0xa50(%rbp)
    fdfe:	48 8d 05 5b c6 00 00 	lea    0xc65b(%rip),%rax        # 1c460 <g_128>
    fe05:	48 89 85 b8 f5 ff ff 	mov    %rax,-0xa48(%rbp)
    fe0c:	48 8d 85 ac eb ff ff 	lea    -0x1454(%rbp),%rax
    fe13:	48 89 85 c0 f5 ff ff 	mov    %rax,-0xa40(%rbp)
    fe1a:	48 8d 05 15 c7 00 00 	lea    0xc715(%rip),%rax        # 1c536 <g_1814+0x6>
    fe21:	48 89 85 c8 f5 ff ff 	mov    %rax,-0xa38(%rbp)
    fe28:	48 8d 85 10 f5 ff ff 	lea    -0xaf0(%rbp),%rax
    fe2f:	48 89 85 b0 ed ff ff 	mov    %rax,-0x1250(%rbp)
    fe36:	c7 85 54 ec ff ff 00 	movl   $0x0,-0x13ac(%rbp)
    fe3d:	00 00 00 
    fe40:	c6 85 a5 eb ff ff 3f 	movb   $0x3f,-0x145b(%rbp)
    fe47:	48 8d 85 a0 f0 ff ff 	lea    -0xf60(%rbp),%rax
    fe4e:	48 89 85 20 ed ff ff 	mov    %rax,-0x12e0(%rbp)
    fe55:	48 8d 85 20 ed ff ff 	lea    -0x12e0(%rbp),%rax
    fe5c:	48 89 85 58 ed ff ff 	mov    %rax,-0x12a8(%rbp)
    fe63:	48 c7 85 b8 ed ff ff 	movq   $0x0,-0x1248(%rbp)
    fe6a:	00 00 00 00 
    fe6e:	48 8d 05 4b b6 00 00 	lea    0xb64b(%rip),%rax        # 1b4c0 <g_2048>
    fe75:	48 89 85 c0 ed ff ff 	mov    %rax,-0x1240(%rbp)
    fe7c:	c6 85 a6 eb ff ff 88 	movb   $0x88,-0x145a(%rbp)
    fe83:	66 c7 85 b4 eb ff ff 	movw   $0xd49e,-0x144c(%rbp)
    fe8a:	9e d4 
    fe8c:	c6 85 a7 eb ff ff 39 	movb   $0x39,-0x1459(%rbp)
    fe93:	c7 85 24 ec ff ff 00 	movl   $0x0,-0x13dc(%rbp)
    fe9a:	00 00 00 
    fe9d:	eb 1a                	jmp    feb9 <func_53+0x29f6>
    fe9f:	8b 85 24 ec ff ff    	mov    -0x13dc(%rbp),%eax
    fea5:	48 98                	cltq   
    fea7:	c7 84 85 c0 f1 ff ff 	movl   $0x5e112b86,-0xe40(%rbp,%rax,4)
    feae:	86 2b 11 5e 
    feb2:	83 85 24 ec ff ff 01 	addl   $0x1,-0x13dc(%rbp)
    feb9:	83 bd 24 ec ff ff 08 	cmpl   $0x8,-0x13dc(%rbp)
    fec0:	7e dd                	jle    fe9f <func_53+0x29dc>
    fec2:	c7 85 24 ec ff ff 00 	movl   $0x0,-0x13dc(%rbp)
    fec9:	00 00 00 
    fecc:	eb 1e                	jmp    feec <func_53+0x2a29>
    fece:	8b 85 24 ec ff ff    	mov    -0x13dc(%rbp),%eax
    fed4:	48 98                	cltq   
    fed6:	48 8d 15 0b ad 00 00 	lea    0xad0b(%rip),%rdx        # 1abe8 <g_226>
    fedd:	48 89 94 c5 a0 f0 ff 	mov    %rdx,-0xf60(%rbp,%rax,8)
    fee4:	ff 
    fee5:	83 85 24 ec ff ff 01 	addl   $0x1,-0x13dc(%rbp)
    feec:	83 bd 24 ec ff ff 01 	cmpl   $0x1,-0x13dc(%rbp)
    fef3:	7e d9                	jle    fece <func_53+0x2a0b>
    fef5:	80 bd 84 eb ff ff 00 	cmpb   $0x0,-0x147c(%rbp)
    fefc:	0f 84 05 11 00 00    	je     11007 <func_53+0x3b44>
    ff02:	c7 85 68 ec ff ff 00 	movl   $0x0,-0x1398(%rbp)
    ff09:	00 00 00 
    ff0c:	48 8d 05 f5 b2 00 00 	lea    0xb2f5(%rip),%rax        # 1b208 <g_497>
    ff13:	48 89 85 20 ee ff ff 	mov    %rax,-0x11e0(%rbp)
    ff1a:	48 8d 85 a0 eb ff ff 	lea    -0x1460(%rbp),%rax
    ff21:	48 89 85 28 ee ff ff 	mov    %rax,-0x11d8(%rbp)
    ff28:	48 c7 85 30 ee ff ff 	movq   $0x0,-0x11d0(%rbp)
    ff2f:	00 00 00 00 
    ff33:	48 8d 85 10 f1 ff ff 	lea    -0xef0(%rbp),%rax
    ff3a:	48 83 c0 08          	add    $0x8,%rax
    ff3e:	48 89 85 38 ee ff ff 	mov    %rax,-0x11c8(%rbp)
    ff45:	48 c7 85 40 ee ff ff 	movq   $0x0,-0x11c0(%rbp)
    ff4c:	00 00 00 00 
    ff50:	48 c7 85 30 f8 ff ff 	movq   $0x0,-0x7d0(%rbp)
    ff57:	00 00 00 00 
    ff5b:	48 8d 85 c8 eb ff ff 	lea    -0x1438(%rbp),%rax
    ff62:	48 89 85 38 f8 ff ff 	mov    %rax,-0x7c8(%rbp)
    ff69:	48 c7 85 40 f8 ff ff 	movq   $0x0,-0x7c0(%rbp)
    ff70:	00 00 00 00 
    ff74:	48 8d 85 d8 eb ff ff 	lea    -0x1428(%rbp),%rax
    ff7b:	48 89 85 48 f8 ff ff 	mov    %rax,-0x7b8(%rbp)
    ff82:	48 8d 85 10 f1 ff ff 	lea    -0xef0(%rbp),%rax
    ff89:	48 83 c0 14          	add    $0x14,%rax
    ff8d:	48 89 85 50 f8 ff ff 	mov    %rax,-0x7b0(%rbp)
    ff94:	48 8d 85 cc eb ff ff 	lea    -0x1434(%rbp),%rax
    ff9b:	48 89 85 58 f8 ff ff 	mov    %rax,-0x7a8(%rbp)
    ffa2:	48 8d 85 60 f3 ff ff 	lea    -0xca0(%rbp),%rax
    ffa9:	48 83 c0 5c          	add    $0x5c,%rax
    ffad:	48 89 85 60 f8 ff ff 	mov    %rax,-0x7a0(%rbp)
    ffb4:	48 c7 85 68 f8 ff ff 	movq   $0x0,-0x798(%rbp)
    ffbb:	00 00 00 00 
    ffbf:	48 8d 85 60 f3 ff ff 	lea    -0xca0(%rbp),%rax
    ffc6:	48 05 b0 00 00 00    	add    $0xb0,%rax
    ffcc:	48 89 85 70 f8 ff ff 	mov    %rax,-0x790(%rbp)
    ffd3:	48 8d 85 c8 eb ff ff 	lea    -0x1438(%rbp),%rax
    ffda:	48 89 85 78 f8 ff ff 	mov    %rax,-0x788(%rbp)
    ffe1:	48 8d 85 60 f3 ff ff 	lea    -0xca0(%rbp),%rax
    ffe8:	48 83 c0 0c          	add    $0xc,%rax
    ffec:	48 89 85 80 f8 ff ff 	mov    %rax,-0x780(%rbp)
    fff3:	48 8d 85 bc eb ff ff 	lea    -0x1444(%rbp),%rax
    fffa:	48 89 85 88 f8 ff ff 	mov    %rax,-0x778(%rbp)
   10001:	48 c7 85 90 f8 ff ff 	movq   $0x0,-0x770(%rbp)
   10008:	00 00 00 00 
   1000c:	48 c7 85 98 f8 ff ff 	movq   $0x0,-0x768(%rbp)
   10013:	00 00 00 00 
   10017:	48 8d 85 60 f3 ff ff 	lea    -0xca0(%rbp),%rax
   1001e:	48 05 b0 00 00 00    	add    $0xb0,%rax
   10024:	48 89 85 a0 f8 ff ff 	mov    %rax,-0x760(%rbp)
   1002b:	48 8d 85 60 f3 ff ff 	lea    -0xca0(%rbp),%rax
   10032:	48 05 b0 00 00 00    	add    $0xb0,%rax
   10038:	48 89 85 a8 f8 ff ff 	mov    %rax,-0x758(%rbp)
   1003f:	48 8d 85 d0 eb ff ff 	lea    -0x1430(%rbp),%rax
   10046:	48 89 85 b0 f8 ff ff 	mov    %rax,-0x750(%rbp)
   1004d:	48 8d 85 d0 eb ff ff 	lea    -0x1430(%rbp),%rax
   10054:	48 89 85 b8 f8 ff ff 	mov    %rax,-0x748(%rbp)
   1005b:	48 c7 85 c0 f8 ff ff 	movq   $0x0,-0x740(%rbp)
   10062:	00 00 00 00 
   10066:	48 8d 85 d8 eb ff ff 	lea    -0x1428(%rbp),%rax
   1006d:	48 89 85 c8 f8 ff ff 	mov    %rax,-0x738(%rbp)
   10074:	48 8d 85 c8 eb ff ff 	lea    -0x1438(%rbp),%rax
   1007b:	48 89 85 d0 f8 ff ff 	mov    %rax,-0x730(%rbp)
   10082:	48 8d 85 60 f3 ff ff 	lea    -0xca0(%rbp),%rax
   10089:	48 05 b8 00 00 00    	add    $0xb8,%rax
   1008f:	48 89 85 d8 f8 ff ff 	mov    %rax,-0x728(%rbp)
   10096:	48 c7 85 e0 f8 ff ff 	movq   $0x0,-0x720(%rbp)
   1009d:	00 00 00 00 
   100a1:	48 8d 85 10 f1 ff ff 	lea    -0xef0(%rbp),%rax
   100a8:	48 83 c0 14          	add    $0x14,%rax
   100ac:	48 89 85 e8 f8 ff ff 	mov    %rax,-0x718(%rbp)
   100b3:	48 8d 85 10 f1 ff ff 	lea    -0xef0(%rbp),%rax
   100ba:	48 83 c0 08          	add    $0x8,%rax
   100be:	48 89 85 f0 f8 ff ff 	mov    %rax,-0x710(%rbp)
   100c5:	48 c7 85 f8 f8 ff ff 	movq   $0x0,-0x708(%rbp)
   100cc:	00 00 00 00 
   100d0:	48 c7 85 00 f9 ff ff 	movq   $0x0,-0x700(%rbp)
   100d7:	00 00 00 00 
   100db:	48 c7 85 08 f9 ff ff 	movq   $0x0,-0x6f8(%rbp)
   100e2:	00 00 00 00 
   100e6:	48 8d 85 d4 eb ff ff 	lea    -0x142c(%rbp),%rax
   100ed:	48 89 85 10 f9 ff ff 	mov    %rax,-0x6f0(%rbp)
   100f4:	48 c7 85 18 f9 ff ff 	movq   $0x0,-0x6e8(%rbp)
   100fb:	00 00 00 00 
   100ff:	48 8d 85 d8 eb ff ff 	lea    -0x1428(%rbp),%rax
   10106:	48 89 85 20 f9 ff ff 	mov    %rax,-0x6e0(%rbp)
   1010d:	48 8d 85 10 f1 ff ff 	lea    -0xef0(%rbp),%rax
   10114:	48 83 c0 14          	add    $0x14,%rax
   10118:	48 89 85 28 f9 ff ff 	mov    %rax,-0x6d8(%rbp)
   1011f:	48 c7 85 30 f9 ff ff 	movq   $0x0,-0x6d0(%rbp)
   10126:	00 00 00 00 
   1012a:	48 8d 85 60 f3 ff ff 	lea    -0xca0(%rbp),%rax
   10131:	48 05 b8 00 00 00    	add    $0xb8,%rax
   10137:	48 89 85 38 f9 ff ff 	mov    %rax,-0x6c8(%rbp)
   1013e:	48 8d 85 d4 eb ff ff 	lea    -0x142c(%rbp),%rax
   10145:	48 89 85 40 f9 ff ff 	mov    %rax,-0x6c0(%rbp)
   1014c:	48 8d 85 d8 eb ff ff 	lea    -0x1428(%rbp),%rax
   10153:	48 89 85 48 f9 ff ff 	mov    %rax,-0x6b8(%rbp)
   1015a:	48 8d 85 d4 eb ff ff 	lea    -0x142c(%rbp),%rax
   10161:	48 89 85 50 f9 ff ff 	mov    %rax,-0x6b0(%rbp)
   10168:	48 8d 85 d0 eb ff ff 	lea    -0x1430(%rbp),%rax
   1016f:	48 89 85 58 f9 ff ff 	mov    %rax,-0x6a8(%rbp)
   10176:	48 8d 85 c0 eb ff ff 	lea    -0x1440(%rbp),%rax
   1017d:	48 89 85 60 f9 ff ff 	mov    %rax,-0x6a0(%rbp)
   10184:	48 8d 85 60 f3 ff ff 	lea    -0xca0(%rbp),%rax
   1018b:	48 05 b0 00 00 00    	add    $0xb0,%rax
   10191:	48 89 85 68 f9 ff ff 	mov    %rax,-0x698(%rbp)
   10198:	48 8d 05 91 8e 00 00 	lea    0x8e91(%rip),%rax        # 19030 <g_3>
   1019f:	48 89 85 70 f9 ff ff 	mov    %rax,-0x690(%rbp)
   101a6:	48 c7 85 78 f9 ff ff 	movq   $0x0,-0x688(%rbp)
   101ad:	00 00 00 00 
   101b1:	48 8d 85 d0 eb ff ff 	lea    -0x1430(%rbp),%rax
   101b8:	48 89 85 80 f9 ff ff 	mov    %rax,-0x680(%rbp)
   101bf:	48 8d 85 bc eb ff ff 	lea    -0x1444(%rbp),%rax
   101c6:	48 89 85 88 f9 ff ff 	mov    %rax,-0x678(%rbp)
   101cd:	48 8d 05 ec 8e 00 00 	lea    0x8eec(%rip),%rax        # 190c0 <g_186>
   101d4:	48 89 85 90 f9 ff ff 	mov    %rax,-0x670(%rbp)
   101db:	48 8d 85 c8 eb ff ff 	lea    -0x1438(%rbp),%rax
   101e2:	48 89 85 98 f9 ff ff 	mov    %rax,-0x668(%rbp)
   101e9:	48 8d 85 c0 eb ff ff 	lea    -0x1440(%rbp),%rax
   101f0:	48 89 85 a0 f9 ff ff 	mov    %rax,-0x660(%rbp)
   101f7:	48 c7 85 a8 f9 ff ff 	movq   $0x0,-0x658(%rbp)
   101fe:	00 00 00 00 
   10202:	48 8d 85 10 f1 ff ff 	lea    -0xef0(%rbp),%rax
   10209:	48 83 c0 24          	add    $0x24,%rax
   1020d:	48 89 85 b0 f9 ff ff 	mov    %rax,-0x650(%rbp)
   10214:	48 8d 85 cc eb ff ff 	lea    -0x1434(%rbp),%rax
   1021b:	48 89 85 b8 f9 ff ff 	mov    %rax,-0x648(%rbp)
   10222:	48 c7 85 c0 f9 ff ff 	movq   $0x0,-0x640(%rbp)
   10229:	00 00 00 00 
   1022d:	48 8d 85 d8 eb ff ff 	lea    -0x1428(%rbp),%rax
   10234:	48 89 85 c8 f9 ff ff 	mov    %rax,-0x638(%rbp)
   1023b:	48 c7 85 d0 f9 ff ff 	movq   $0x0,-0x630(%rbp)
   10242:	00 00 00 00 
   10246:	48 8d 85 c8 eb ff ff 	lea    -0x1438(%rbp),%rax
   1024d:	48 89 85 d8 f9 ff ff 	mov    %rax,-0x628(%rbp)
   10254:	48 c7 85 e0 f9 ff ff 	movq   $0x0,-0x620(%rbp)
   1025b:	00 00 00 00 
   1025f:	48 8d 85 60 f3 ff ff 	lea    -0xca0(%rbp),%rax
   10266:	48 05 b0 00 00 00    	add    $0xb0,%rax
   1026c:	48 89 85 e8 f9 ff ff 	mov    %rax,-0x618(%rbp)
   10273:	48 c7 85 f0 f9 ff ff 	movq   $0x0,-0x610(%rbp)
   1027a:	00 00 00 00 
   1027e:	48 c7 85 f8 f9 ff ff 	movq   $0x0,-0x608(%rbp)
   10285:	00 00 00 00 
   10289:	48 8d 85 dc eb ff ff 	lea    -0x1424(%rbp),%rax
   10290:	48 89 85 00 fa ff ff 	mov    %rax,-0x600(%rbp)
   10297:	48 8d 85 60 f3 ff ff 	lea    -0xca0(%rbp),%rax
   1029e:	48 05 b8 00 00 00    	add    $0xb8,%rax
   102a4:	48 89 85 08 fa ff ff 	mov    %rax,-0x5f8(%rbp)
   102ab:	48 8d 85 d8 eb ff ff 	lea    -0x1428(%rbp),%rax
   102b2:	48 89 85 10 fa ff ff 	mov    %rax,-0x5f0(%rbp)
   102b9:	48 8d 05 00 8e 00 00 	lea    0x8e00(%rip),%rax        # 190c0 <g_186>
   102c0:	48 89 85 18 fa ff ff 	mov    %rax,-0x5e8(%rbp)
   102c7:	48 8d 85 10 f1 ff ff 	lea    -0xef0(%rbp),%rax
   102ce:	48 83 c0 14          	add    $0x14,%rax
   102d2:	48 89 85 20 fa ff ff 	mov    %rax,-0x5e0(%rbp)
   102d9:	48 c7 85 28 fa ff ff 	movq   $0x0,-0x5d8(%rbp)
   102e0:	00 00 00 00 
   102e4:	48 8d 85 60 f3 ff ff 	lea    -0xca0(%rbp),%rax
   102eb:	48 83 c0 0c          	add    $0xc,%rax
   102ef:	48 89 85 30 fa ff ff 	mov    %rax,-0x5d0(%rbp)
   102f6:	48 8d 85 d8 eb ff ff 	lea    -0x1428(%rbp),%rax
   102fd:	48 89 85 38 fa ff ff 	mov    %rax,-0x5c8(%rbp)
   10304:	48 8d 85 10 f1 ff ff 	lea    -0xef0(%rbp),%rax
   1030b:	48 83 c0 14          	add    $0x14,%rax
   1030f:	48 89 85 40 fa ff ff 	mov    %rax,-0x5c0(%rbp)
   10316:	48 8d 85 60 f3 ff ff 	lea    -0xca0(%rbp),%rax
   1031d:	48 83 c0 5c          	add    $0x5c,%rax
   10321:	48 89 85 48 fa ff ff 	mov    %rax,-0x5b8(%rbp)
   10328:	48 8d 85 d8 eb ff ff 	lea    -0x1428(%rbp),%rax
   1032f:	48 89 85 50 fa ff ff 	mov    %rax,-0x5b0(%rbp)
   10336:	48 8d 85 10 f1 ff ff 	lea    -0xef0(%rbp),%rax
   1033d:	48 83 c0 08          	add    $0x8,%rax
   10341:	48 89 85 58 fa ff ff 	mov    %rax,-0x5a8(%rbp)
   10348:	48 8d 85 dc eb ff ff 	lea    -0x1424(%rbp),%rax
   1034f:	48 89 85 60 fa ff ff 	mov    %rax,-0x5a0(%rbp)
   10356:	48 8d 85 d4 eb ff ff 	lea    -0x142c(%rbp),%rax
   1035d:	48 89 85 68 fa ff ff 	mov    %rax,-0x598(%rbp)
   10364:	48 c7 85 70 fa ff ff 	movq   $0x0,-0x590(%rbp)
   1036b:	00 00 00 00 
   1036f:	48 8d 85 60 f3 ff ff 	lea    -0xca0(%rbp),%rax
   10376:	48 05 b0 00 00 00    	add    $0xb0,%rax
   1037c:	48 89 85 78 fa ff ff 	mov    %rax,-0x588(%rbp)
   10383:	48 c7 85 80 fa ff ff 	movq   $0x0,-0x580(%rbp)
   1038a:	00 00 00 00 
   1038e:	48 8d 85 c0 eb ff ff 	lea    -0x1440(%rbp),%rax
   10395:	48 89 85 88 fa ff ff 	mov    %rax,-0x578(%rbp)
   1039c:	48 c7 85 90 fa ff ff 	movq   $0x0,-0x570(%rbp)
   103a3:	00 00 00 00 
   103a7:	48 8d 85 c0 eb ff ff 	lea    -0x1440(%rbp),%rax
   103ae:	48 89 85 98 fa ff ff 	mov    %rax,-0x568(%rbp)
   103b5:	48 c7 85 a0 fa ff ff 	movq   $0x0,-0x560(%rbp)
   103bc:	00 00 00 00 
   103c0:	48 8d 85 c0 eb ff ff 	lea    -0x1440(%rbp),%rax
   103c7:	48 89 85 a8 fa ff ff 	mov    %rax,-0x558(%rbp)
   103ce:	48 8d 85 10 f1 ff ff 	lea    -0xef0(%rbp),%rax
   103d5:	48 83 c0 24          	add    $0x24,%rax
   103d9:	48 89 85 b0 fa ff ff 	mov    %rax,-0x550(%rbp)
   103e0:	48 c7 85 b8 fa ff ff 	movq   $0x0,-0x548(%rbp)
   103e7:	00 00 00 00 
   103eb:	48 8d 85 c0 eb ff ff 	lea    -0x1440(%rbp),%rax
   103f2:	48 89 85 c0 fa ff ff 	mov    %rax,-0x540(%rbp)
   103f9:	48 8d 85 10 f1 ff ff 	lea    -0xef0(%rbp),%rax
   10400:	48 89 85 c8 fa ff ff 	mov    %rax,-0x538(%rbp)
   10407:	48 8d 05 b2 8c 00 00 	lea    0x8cb2(%rip),%rax        # 190c0 <g_186>
   1040e:	48 89 85 d0 fa ff ff 	mov    %rax,-0x530(%rbp)
   10415:	48 c7 85 d8 fa ff ff 	movq   $0x0,-0x528(%rbp)
   1041c:	00 00 00 00 
   10420:	48 8d 85 d0 eb ff ff 	lea    -0x1430(%rbp),%rax
   10427:	48 89 85 e0 fa ff ff 	mov    %rax,-0x520(%rbp)
   1042e:	48 8d 85 dc eb ff ff 	lea    -0x1424(%rbp),%rax
   10435:	48 89 85 e8 fa ff ff 	mov    %rax,-0x518(%rbp)
   1043c:	48 8d 05 ed 8b 00 00 	lea    0x8bed(%rip),%rax        # 19030 <g_3>
   10443:	48 89 85 f0 fa ff ff 	mov    %rax,-0x510(%rbp)
   1044a:	48 8d 85 c0 eb ff ff 	lea    -0x1440(%rbp),%rax
   10451:	48 89 85 f8 fa ff ff 	mov    %rax,-0x508(%rbp)
   10458:	48 8d 85 c0 eb ff ff 	lea    -0x1440(%rbp),%rax
   1045f:	48 89 85 00 fb ff ff 	mov    %rax,-0x500(%rbp)
   10466:	48 8d 05 c3 8b 00 00 	lea    0x8bc3(%rip),%rax        # 19030 <g_3>
   1046d:	48 89 85 08 fb ff ff 	mov    %rax,-0x4f8(%rbp)
   10474:	48 8d 85 d4 eb ff ff 	lea    -0x142c(%rbp),%rax
   1047b:	48 89 85 10 fb ff ff 	mov    %rax,-0x4f0(%rbp)
   10482:	48 8d 85 10 f1 ff ff 	lea    -0xef0(%rbp),%rax
   10489:	48 83 c0 14          	add    $0x14,%rax
   1048d:	48 89 85 18 fb ff ff 	mov    %rax,-0x4e8(%rbp)
   10494:	48 8d 85 d4 eb ff ff 	lea    -0x142c(%rbp),%rax
   1049b:	48 89 85 20 fb ff ff 	mov    %rax,-0x4e0(%rbp)
   104a2:	48 8d 85 c8 eb ff ff 	lea    -0x1438(%rbp),%rax
   104a9:	48 89 85 28 fb ff ff 	mov    %rax,-0x4d8(%rbp)
   104b0:	48 c7 85 30 fb ff ff 	movq   $0x0,-0x4d0(%rbp)
   104b7:	00 00 00 00 
   104bb:	48 8d 85 60 f3 ff ff 	lea    -0xca0(%rbp),%rax
   104c2:	48 83 c0 0c          	add    $0xc,%rax
   104c6:	48 89 85 38 fb ff ff 	mov    %rax,-0x4c8(%rbp)
   104cd:	48 8d 85 d8 eb ff ff 	lea    -0x1428(%rbp),%rax
   104d4:	48 89 85 40 fb ff ff 	mov    %rax,-0x4c0(%rbp)
   104db:	48 8d 85 10 f1 ff ff 	lea    -0xef0(%rbp),%rax
   104e2:	48 83 c0 0c          	add    $0xc,%rax
   104e6:	48 89 85 48 fb ff ff 	mov    %rax,-0x4b8(%rbp)
   104ed:	48 8d 85 d4 eb ff ff 	lea    -0x142c(%rbp),%rax
   104f4:	48 89 85 50 fb ff ff 	mov    %rax,-0x4b0(%rbp)
   104fb:	48 8d 05 2e 8b 00 00 	lea    0x8b2e(%rip),%rax        # 19030 <g_3>
   10502:	48 89 85 58 fb ff ff 	mov    %rax,-0x4a8(%rbp)
   10509:	48 c7 85 60 fb ff ff 	movq   $0x0,-0x4a0(%rbp)
   10510:	00 00 00 00 
   10514:	48 8d 85 10 f1 ff ff 	lea    -0xef0(%rbp),%rax
   1051b:	48 83 c0 0c          	add    $0xc,%rax
   1051f:	48 89 85 68 fb ff ff 	mov    %rax,-0x498(%rbp)
   10526:	48 8d 85 10 f1 ff ff 	lea    -0xef0(%rbp),%rax
   1052d:	48 83 c0 08          	add    $0x8,%rax
   10531:	48 89 85 70 fb ff ff 	mov    %rax,-0x490(%rbp)
   10538:	48 8d 85 60 f3 ff ff 	lea    -0xca0(%rbp),%rax
   1053f:	48 83 c0 0c          	add    $0xc,%rax
   10543:	48 89 85 78 fb ff ff 	mov    %rax,-0x488(%rbp)
   1054a:	48 c7 85 80 fb ff ff 	movq   $0x0,-0x480(%rbp)
   10551:	00 00 00 00 
   10555:	48 8d 85 c8 eb ff ff 	lea    -0x1438(%rbp),%rax
   1055c:	48 89 85 88 fb ff ff 	mov    %rax,-0x478(%rbp)
   10563:	48 8d 85 c8 eb ff ff 	lea    -0x1438(%rbp),%rax
   1056a:	48 89 85 90 fb ff ff 	mov    %rax,-0x470(%rbp)
   10571:	48 8d 85 10 f1 ff ff 	lea    -0xef0(%rbp),%rax
   10578:	48 83 c0 14          	add    $0x14,%rax
   1057c:	48 89 85 98 fb ff ff 	mov    %rax,-0x468(%rbp)
   10583:	48 c7 85 a0 fb ff ff 	movq   $0x0,-0x460(%rbp)
   1058a:	00 00 00 00 
   1058e:	48 8d 05 9b 8a 00 00 	lea    0x8a9b(%rip),%rax        # 19030 <g_3>
   10595:	48 89 85 a8 fb ff ff 	mov    %rax,-0x458(%rbp)
   1059c:	48 c7 85 b0 fb ff ff 	movq   $0x0,-0x450(%rbp)
   105a3:	00 00 00 00 
   105a7:	48 8d 85 d0 eb ff ff 	lea    -0x1430(%rbp),%rax
   105ae:	48 89 85 b8 fb ff ff 	mov    %rax,-0x448(%rbp)
   105b5:	48 8d 05 74 8a 00 00 	lea    0x8a74(%rip),%rax        # 19030 <g_3>
   105bc:	48 89 85 c0 fb ff ff 	mov    %rax,-0x440(%rbp)
   105c3:	48 8d 85 10 f1 ff ff 	lea    -0xef0(%rbp),%rax
   105ca:	48 83 c0 0c          	add    $0xc,%rax
   105ce:	48 89 85 c8 fb ff ff 	mov    %rax,-0x438(%rbp)
   105d5:	48 c7 85 d0 fb ff ff 	movq   $0x0,-0x430(%rbp)
   105dc:	00 00 00 00 
   105e0:	48 8d 85 10 f1 ff ff 	lea    -0xef0(%rbp),%rax
   105e7:	48 83 c0 14          	add    $0x14,%rax
   105eb:	48 89 85 d8 fb ff ff 	mov    %rax,-0x428(%rbp)
   105f2:	48 8d 05 c7 8a 00 00 	lea    0x8ac7(%rip),%rax        # 190c0 <g_186>
   105f9:	48 89 85 e0 fb ff ff 	mov    %rax,-0x420(%rbp)
   10600:	48 8d 85 d8 eb ff ff 	lea    -0x1428(%rbp),%rax
   10607:	48 89 85 e8 fb ff ff 	mov    %rax,-0x418(%rbp)
   1060e:	48 8d 05 1b 8a 00 00 	lea    0x8a1b(%rip),%rax        # 19030 <g_3>
   10615:	48 89 85 f0 fb ff ff 	mov    %rax,-0x410(%rbp)
   1061c:	48 8d 85 d4 eb ff ff 	lea    -0x142c(%rbp),%rax
   10623:	48 89 85 f8 fb ff ff 	mov    %rax,-0x408(%rbp)
   1062a:	48 8d 85 10 f1 ff ff 	lea    -0xef0(%rbp),%rax
   10631:	48 83 c0 24          	add    $0x24,%rax
   10635:	48 89 85 00 fc ff ff 	mov    %rax,-0x400(%rbp)
   1063c:	48 8d 85 60 f3 ff ff 	lea    -0xca0(%rbp),%rax
   10643:	48 05 b0 00 00 00    	add    $0xb0,%rax
   10649:	48 89 85 08 fc ff ff 	mov    %rax,-0x3f8(%rbp)
   10650:	48 8d 85 60 f3 ff ff 	lea    -0xca0(%rbp),%rax
   10657:	48 83 c0 5c          	add    $0x5c,%rax
   1065b:	48 89 85 10 fc ff ff 	mov    %rax,-0x3f0(%rbp)
   10662:	48 8d 85 c0 eb ff ff 	lea    -0x1440(%rbp),%rax
   10669:	48 89 85 18 fc ff ff 	mov    %rax,-0x3e8(%rbp)
   10670:	48 c7 85 20 fc ff ff 	movq   $0x0,-0x3e0(%rbp)
   10677:	00 00 00 00 
   1067b:	48 8d 85 c0 eb ff ff 	lea    -0x1440(%rbp),%rax
   10682:	48 89 85 28 fc ff ff 	mov    %rax,-0x3d8(%rbp)
   10689:	48 8d 85 d4 eb ff ff 	lea    -0x142c(%rbp),%rax
   10690:	48 89 85 30 fc ff ff 	mov    %rax,-0x3d0(%rbp)
   10697:	48 8d 05 92 89 00 00 	lea    0x8992(%rip),%rax        # 19030 <g_3>
   1069e:	48 89 85 38 fc ff ff 	mov    %rax,-0x3c8(%rbp)
   106a5:	48 c7 85 40 fc ff ff 	movq   $0x0,-0x3c0(%rbp)
   106ac:	00 00 00 00 
   106b0:	48 8d 85 60 f3 ff ff 	lea    -0xca0(%rbp),%rax
   106b7:	48 83 c0 0c          	add    $0xc,%rax
   106bb:	48 89 85 48 fc ff ff 	mov    %rax,-0x3b8(%rbp)
   106c2:	48 8d 85 bc eb ff ff 	lea    -0x1444(%rbp),%rax
   106c9:	48 89 85 50 fc ff ff 	mov    %rax,-0x3b0(%rbp)
   106d0:	48 8d 85 60 f3 ff ff 	lea    -0xca0(%rbp),%rax
   106d7:	48 05 b0 00 00 00    	add    $0xb0,%rax
   106dd:	48 89 85 58 fc ff ff 	mov    %rax,-0x3a8(%rbp)
   106e4:	48 8d 85 d8 eb ff ff 	lea    -0x1428(%rbp),%rax
   106eb:	48 89 85 60 fc ff ff 	mov    %rax,-0x3a0(%rbp)
   106f2:	48 8d 85 10 f1 ff ff 	lea    -0xef0(%rbp),%rax
   106f9:	48 83 c0 24          	add    $0x24,%rax
   106fd:	48 89 85 68 fc ff ff 	mov    %rax,-0x398(%rbp)
   10704:	48 8d 85 10 f1 ff ff 	lea    -0xef0(%rbp),%rax
   1070b:	48 83 c0 24          	add    $0x24,%rax
   1070f:	48 89 85 70 fc ff ff 	mov    %rax,-0x390(%rbp)
   10716:	48 8d 85 b8 eb ff ff 	lea    -0x1448(%rbp),%rax
   1071d:	48 89 85 78 fc ff ff 	mov    %rax,-0x388(%rbp)
   10724:	48 8d 85 60 f3 ff ff 	lea    -0xca0(%rbp),%rax
   1072b:	48 83 c0 0c          	add    $0xc,%rax
   1072f:	48 89 85 80 fc ff ff 	mov    %rax,-0x380(%rbp)
   10736:	48 c7 85 88 fc ff ff 	movq   $0x0,-0x378(%rbp)
   1073d:	00 00 00 00 
   10741:	48 8d 85 10 f1 ff ff 	lea    -0xef0(%rbp),%rax
   10748:	48 83 c0 24          	add    $0x24,%rax
   1074c:	48 89 85 90 fc ff ff 	mov    %rax,-0x370(%rbp)
   10753:	48 8d 85 10 f1 ff ff 	lea    -0xef0(%rbp),%rax
   1075a:	48 89 85 98 fc ff ff 	mov    %rax,-0x368(%rbp)
   10761:	48 8d 85 d8 eb ff ff 	lea    -0x1428(%rbp),%rax
   10768:	48 89 85 a0 fc ff ff 	mov    %rax,-0x360(%rbp)
   1076f:	48 c7 85 a8 fc ff ff 	movq   $0x0,-0x358(%rbp)
   10776:	00 00 00 00 
   1077a:	48 8d 85 bc eb ff ff 	lea    -0x1444(%rbp),%rax
   10781:	48 89 85 b0 fc ff ff 	mov    %rax,-0x350(%rbp)
   10788:	48 c7 85 b8 fc ff ff 	movq   $0x0,-0x348(%rbp)
   1078f:	00 00 00 00 
   10793:	48 c7 85 c0 fc ff ff 	movq   $0x0,-0x340(%rbp)
   1079a:	00 00 00 00 
   1079e:	48 c7 85 c8 fc ff ff 	movq   $0x0,-0x338(%rbp)
   107a5:	00 00 00 00 
   107a9:	48 8d 85 d4 eb ff ff 	lea    -0x142c(%rbp),%rax
   107b0:	48 89 85 d0 fc ff ff 	mov    %rax,-0x330(%rbp)
   107b7:	48 8d 85 cc eb ff ff 	lea    -0x1434(%rbp),%rax
   107be:	48 89 85 d8 fc ff ff 	mov    %rax,-0x328(%rbp)
   107c5:	48 c7 85 e0 fc ff ff 	movq   $0x0,-0x320(%rbp)
   107cc:	00 00 00 00 
   107d0:	48 8d 85 10 f1 ff ff 	lea    -0xef0(%rbp),%rax
   107d7:	48 83 c0 08          	add    $0x8,%rax
   107db:	48 89 85 e8 fc ff ff 	mov    %rax,-0x318(%rbp)
   107e2:	48 8d 85 60 f3 ff ff 	lea    -0xca0(%rbp),%rax
   107e9:	48 83 c0 5c          	add    $0x5c,%rax
   107ed:	48 89 85 f0 fc ff ff 	mov    %rax,-0x310(%rbp)
   107f4:	48 8d 85 c0 eb ff ff 	lea    -0x1440(%rbp),%rax
   107fb:	48 89 85 f8 fc ff ff 	mov    %rax,-0x308(%rbp)
   10802:	48 8d 85 10 f1 ff ff 	lea    -0xef0(%rbp),%rax
   10809:	48 83 c0 24          	add    $0x24,%rax
   1080d:	48 89 85 00 fd ff ff 	mov    %rax,-0x300(%rbp)
   10814:	48 c7 85 08 fd ff ff 	movq   $0x0,-0x2f8(%rbp)
   1081b:	00 00 00 00 
   1081f:	48 8d 05 0a 88 00 00 	lea    0x880a(%rip),%rax        # 19030 <g_3>
   10826:	48 89 85 10 fd ff ff 	mov    %rax,-0x2f0(%rbp)
   1082d:	48 8d 85 c0 eb ff ff 	lea    -0x1440(%rbp),%rax
   10834:	48 89 85 18 fd ff ff 	mov    %rax,-0x2e8(%rbp)
   1083b:	48 8d 05 7e 88 00 00 	lea    0x887e(%rip),%rax        # 190c0 <g_186>
   10842:	48 89 85 20 fd ff ff 	mov    %rax,-0x2e0(%rbp)
   10849:	48 8d 85 d8 eb ff ff 	lea    -0x1428(%rbp),%rax
   10850:	48 89 85 28 fd ff ff 	mov    %rax,-0x2d8(%rbp)
   10857:	48 c7 85 30 fd ff ff 	movq   $0x0,-0x2d0(%rbp)
   1085e:	00 00 00 00 
   10862:	48 c7 85 38 fd ff ff 	movq   $0x0,-0x2c8(%rbp)
   10869:	00 00 00 00 
   1086d:	48 8d 05 bc 87 00 00 	lea    0x87bc(%rip),%rax        # 19030 <g_3>
   10874:	48 89 85 40 fd ff ff 	mov    %rax,-0x2c0(%rbp)
   1087b:	48 8d 05 ae 87 00 00 	lea    0x87ae(%rip),%rax        # 19030 <g_3>
   10882:	48 89 85 48 fd ff ff 	mov    %rax,-0x2b8(%rbp)
   10889:	48 c7 85 50 fd ff ff 	movq   $0x0,-0x2b0(%rbp)
   10890:	00 00 00 00 
   10894:	48 c7 85 58 fd ff ff 	movq   $0x0,-0x2a8(%rbp)
   1089b:	00 00 00 00 
   1089f:	48 8d 85 d4 eb ff ff 	lea    -0x142c(%rbp),%rax
   108a6:	48 89 85 60 fd ff ff 	mov    %rax,-0x2a0(%rbp)
   108ad:	48 8d 85 b8 eb ff ff 	lea    -0x1448(%rbp),%rax
   108b4:	48 89 85 68 fd ff ff 	mov    %rax,-0x298(%rbp)
   108bb:	48 8d 85 c0 eb ff ff 	lea    -0x1440(%rbp),%rax
   108c2:	48 89 85 70 fd ff ff 	mov    %rax,-0x290(%rbp)
   108c9:	48 c7 85 78 fd ff ff 	movq   $0x0,-0x288(%rbp)
   108d0:	00 00 00 00 
   108d4:	48 c7 85 80 fd ff ff 	movq   $0x0,-0x280(%rbp)
   108db:	00 00 00 00 
   108df:	48 8d 85 60 f3 ff ff 	lea    -0xca0(%rbp),%rax
   108e6:	48 83 c0 5c          	add    $0x5c,%rax
   108ea:	48 89 85 88 fd ff ff 	mov    %rax,-0x278(%rbp)
   108f1:	48 8d 85 60 f3 ff ff 	lea    -0xca0(%rbp),%rax
   108f8:	48 05 b0 00 00 00    	add    $0xb0,%rax
   108fe:	48 89 85 90 fd ff ff 	mov    %rax,-0x270(%rbp)
   10905:	48 c7 85 98 fd ff ff 	movq   $0x0,-0x268(%rbp)
   1090c:	00 00 00 00 
   10910:	48 8d 85 d4 eb ff ff 	lea    -0x142c(%rbp),%rax
   10917:	48 89 85 a0 fd ff ff 	mov    %rax,-0x260(%rbp)
   1091e:	48 c7 85 a8 fd ff ff 	movq   $0x0,-0x258(%rbp)
   10925:	00 00 00 00 
   10929:	48 8d 85 c8 eb ff ff 	lea    -0x1438(%rbp),%rax
   10930:	48 89 85 b0 fd ff ff 	mov    %rax,-0x250(%rbp)
   10937:	48 c7 85 b8 fd ff ff 	movq   $0x0,-0x248(%rbp)
   1093e:	00 00 00 00 
   10942:	48 8d 85 10 f1 ff ff 	lea    -0xef0(%rbp),%rax
   10949:	48 83 c0 08          	add    $0x8,%rax
   1094d:	48 89 85 c0 fd ff ff 	mov    %rax,-0x240(%rbp)
   10954:	48 8d 85 60 f3 ff ff 	lea    -0xca0(%rbp),%rax
   1095b:	48 83 c0 5c          	add    $0x5c,%rax
   1095f:	48 89 85 c8 fd ff ff 	mov    %rax,-0x238(%rbp)
   10966:	48 c7 85 d0 fd ff ff 	movq   $0x0,-0x230(%rbp)
   1096d:	00 00 00 00 
   10971:	48 c7 85 d8 fd ff ff 	movq   $0x0,-0x228(%rbp)
   10978:	00 00 00 00 
   1097c:	48 8d 85 c8 eb ff ff 	lea    -0x1438(%rbp),%rax
   10983:	48 89 85 e0 fd ff ff 	mov    %rax,-0x220(%rbp)
   1098a:	48 8d 85 b8 eb ff ff 	lea    -0x1448(%rbp),%rax
   10991:	48 89 85 e8 fd ff ff 	mov    %rax,-0x218(%rbp)
   10998:	48 8d 85 60 f3 ff ff 	lea    -0xca0(%rbp),%rax
   1099f:	48 83 c0 0c          	add    $0xc,%rax
   109a3:	48 89 85 f0 fd ff ff 	mov    %rax,-0x210(%rbp)
   109aa:	48 c7 85 f8 fd ff ff 	movq   $0x0,-0x208(%rbp)
   109b1:	00 00 00 00 
   109b5:	48 8d 85 d0 eb ff ff 	lea    -0x1430(%rbp),%rax
   109bc:	48 89 85 00 fe ff ff 	mov    %rax,-0x200(%rbp)
   109c3:	48 8d 05 66 86 00 00 	lea    0x8666(%rip),%rax        # 19030 <g_3>
   109ca:	48 89 85 08 fe ff ff 	mov    %rax,-0x1f8(%rbp)
   109d1:	48 c7 85 10 fe ff ff 	movq   $0x0,-0x1f0(%rbp)
   109d8:	00 00 00 00 
   109dc:	48 c7 85 18 fe ff ff 	movq   $0x0,-0x1e8(%rbp)
   109e3:	00 00 00 00 
   109e7:	48 c7 85 20 fe ff ff 	movq   $0x0,-0x1e0(%rbp)
   109ee:	00 00 00 00 
   109f2:	48 8d 85 d8 eb ff ff 	lea    -0x1428(%rbp),%rax
   109f9:	48 89 85 28 fe ff ff 	mov    %rax,-0x1d8(%rbp)
   10a00:	48 8d 85 10 f1 ff ff 	lea    -0xef0(%rbp),%rax
   10a07:	48 89 85 30 fe ff ff 	mov    %rax,-0x1d0(%rbp)
   10a0e:	48 8d 85 c0 eb ff ff 	lea    -0x1440(%rbp),%rax
   10a15:	48 89 85 38 fe ff ff 	mov    %rax,-0x1c8(%rbp)
   10a1c:	48 8d 85 60 f3 ff ff 	lea    -0xca0(%rbp),%rax
   10a23:	48 05 b0 00 00 00    	add    $0xb0,%rax
   10a29:	48 89 85 40 fe ff ff 	mov    %rax,-0x1c0(%rbp)
   10a30:	48 c7 85 48 fe ff ff 	movq   $0x0,-0x1b8(%rbp)
   10a37:	00 00 00 00 
   10a3b:	48 c7 85 50 fe ff ff 	movq   $0x0,-0x1b0(%rbp)
   10a42:	00 00 00 00 
   10a46:	48 8d 85 c0 eb ff ff 	lea    -0x1440(%rbp),%rax
   10a4d:	48 89 85 58 fe ff ff 	mov    %rax,-0x1a8(%rbp)
   10a54:	48 8d 85 10 f1 ff ff 	lea    -0xef0(%rbp),%rax
   10a5b:	48 83 c0 14          	add    $0x14,%rax
   10a5f:	48 89 85 60 fe ff ff 	mov    %rax,-0x1a0(%rbp)
   10a66:	48 8d 85 10 f1 ff ff 	lea    -0xef0(%rbp),%rax
   10a6d:	48 83 c0 08          	add    $0x8,%rax
   10a71:	48 89 85 68 fe ff ff 	mov    %rax,-0x198(%rbp)
   10a78:	48 c7 85 70 fe ff ff 	movq   $0x0,-0x190(%rbp)
   10a7f:	00 00 00 00 
   10a83:	48 8d 85 cc eb ff ff 	lea    -0x1434(%rbp),%rax
   10a8a:	48 89 85 78 fe ff ff 	mov    %rax,-0x188(%rbp)
   10a91:	48 c7 85 80 fe ff ff 	movq   $0x0,-0x180(%rbp)
   10a98:	00 00 00 00 
   10a9c:	48 c7 85 88 fe ff ff 	movq   $0x0,-0x178(%rbp)
   10aa3:	00 00 00 00 
   10aa7:	48 8d 85 60 f3 ff ff 	lea    -0xca0(%rbp),%rax
   10aae:	48 05 b8 00 00 00    	add    $0xb8,%rax
   10ab4:	48 89 85 90 fe ff ff 	mov    %rax,-0x170(%rbp)
   10abb:	48 c7 85 98 fe ff ff 	movq   $0x0,-0x168(%rbp)
   10ac2:	00 00 00 00 
   10ac6:	48 8d 85 10 f1 ff ff 	lea    -0xef0(%rbp),%rax
   10acd:	48 83 c0 0c          	add    $0xc,%rax
   10ad1:	48 89 85 a0 fe ff ff 	mov    %rax,-0x160(%rbp)
   10ad8:	48 c7 85 a8 fe ff ff 	movq   $0x0,-0x158(%rbp)
   10adf:	00 00 00 00 
   10ae3:	48 8d 85 10 f1 ff ff 	lea    -0xef0(%rbp),%rax
   10aea:	48 83 c0 08          	add    $0x8,%rax
   10aee:	48 89 85 b0 fe ff ff 	mov    %rax,-0x150(%rbp)
   10af5:	48 8d 85 10 f1 ff ff 	lea    -0xef0(%rbp),%rax
   10afc:	48 89 85 b8 fe ff ff 	mov    %rax,-0x148(%rbp)
   10b03:	48 8d 85 60 f3 ff ff 	lea    -0xca0(%rbp),%rax
   10b0a:	48 83 c0 5c          	add    $0x5c,%rax
   10b0e:	48 89 85 c0 fe ff ff 	mov    %rax,-0x140(%rbp)
   10b15:	48 c7 85 c8 fe ff ff 	movq   $0x0,-0x138(%rbp)
   10b1c:	00 00 00 00 
   10b20:	48 8d 05 99 85 00 00 	lea    0x8599(%rip),%rax        # 190c0 <g_186>
   10b27:	48 89 85 d0 fe ff ff 	mov    %rax,-0x130(%rbp)
   10b2e:	48 8d 85 b8 eb ff ff 	lea    -0x1448(%rbp),%rax
   10b35:	48 89 85 d8 fe ff ff 	mov    %rax,-0x128(%rbp)
   10b3c:	48 8d 85 60 f3 ff ff 	lea    -0xca0(%rbp),%rax
   10b43:	48 83 c0 5c          	add    $0x5c,%rax
   10b47:	48 89 85 e0 fe ff ff 	mov    %rax,-0x120(%rbp)
   10b4e:	48 8d 85 10 f1 ff ff 	lea    -0xef0(%rbp),%rax
   10b55:	48 83 c0 24          	add    $0x24,%rax
   10b59:	48 89 85 e8 fe ff ff 	mov    %rax,-0x118(%rbp)
   10b60:	48 8d 85 10 f1 ff ff 	lea    -0xef0(%rbp),%rax
   10b67:	48 83 c0 08          	add    $0x8,%rax
   10b6b:	48 89 85 f0 fe ff ff 	mov    %rax,-0x110(%rbp)
   10b72:	48 8d 85 60 f3 ff ff 	lea    -0xca0(%rbp),%rax
   10b79:	48 05 b0 00 00 00    	add    $0xb0,%rax
   10b7f:	48 89 85 f8 fe ff ff 	mov    %rax,-0x108(%rbp)
   10b86:	48 8d 85 10 f1 ff ff 	lea    -0xef0(%rbp),%rax
   10b8d:	48 83 c0 0c          	add    $0xc,%rax
   10b91:	48 89 85 00 ff ff ff 	mov    %rax,-0x100(%rbp)
   10b98:	48 8d 85 60 f3 ff ff 	lea    -0xca0(%rbp),%rax
   10b9f:	48 83 c0 0c          	add    $0xc,%rax
   10ba3:	48 89 85 08 ff ff ff 	mov    %rax,-0xf8(%rbp)
   10baa:	48 8d 85 60 f3 ff ff 	lea    -0xca0(%rbp),%rax
   10bb1:	48 05 b8 00 00 00    	add    $0xb8,%rax
   10bb7:	48 89 85 10 ff ff ff 	mov    %rax,-0xf0(%rbp)
   10bbe:	48 8d 05 6b 84 00 00 	lea    0x846b(%rip),%rax        # 19030 <g_3>
   10bc5:	48 89 85 18 ff ff ff 	mov    %rax,-0xe8(%rbp)
   10bcc:	48 c7 85 20 ff ff ff 	movq   $0x0,-0xe0(%rbp)
   10bd3:	00 00 00 00 
   10bd7:	48 8d 85 c0 eb ff ff 	lea    -0x1440(%rbp),%rax
   10bde:	48 89 85 28 ff ff ff 	mov    %rax,-0xd8(%rbp)
   10be5:	48 c7 85 30 ff ff ff 	movq   $0x0,-0xd0(%rbp)
   10bec:	00 00 00 00 
   10bf0:	48 8d 85 c0 eb ff ff 	lea    -0x1440(%rbp),%rax
   10bf7:	48 89 85 38 ff ff ff 	mov    %rax,-0xc8(%rbp)
   10bfe:	48 8d 85 10 f1 ff ff 	lea    -0xef0(%rbp),%rax
   10c05:	48 83 c0 14          	add    $0x14,%rax
   10c09:	48 89 85 40 ff ff ff 	mov    %rax,-0xc0(%rbp)
   10c10:	48 8d 85 60 f3 ff ff 	lea    -0xca0(%rbp),%rax
   10c17:	48 05 b0 00 00 00    	add    $0xb0,%rax
   10c1d:	48 89 85 48 ff ff ff 	mov    %rax,-0xb8(%rbp)
   10c24:	48 c7 85 50 ff ff ff 	movq   $0x0,-0xb0(%rbp)
   10c2b:	00 00 00 00 
   10c2f:	48 8d 85 d4 eb ff ff 	lea    -0x142c(%rbp),%rax
   10c36:	48 89 85 58 ff ff ff 	mov    %rax,-0xa8(%rbp)
   10c3d:	48 8d 85 60 f3 ff ff 	lea    -0xca0(%rbp),%rax
   10c44:	48 05 b0 00 00 00    	add    $0xb0,%rax
   10c4a:	48 89 85 60 ff ff ff 	mov    %rax,-0xa0(%rbp)
   10c51:	48 8d 85 d8 eb ff ff 	lea    -0x1428(%rbp),%rax
   10c58:	48 89 85 68 ff ff ff 	mov    %rax,-0x98(%rbp)
   10c5f:	48 8d 85 10 f1 ff ff 	lea    -0xef0(%rbp),%rax
   10c66:	48 89 85 70 ff ff ff 	mov    %rax,-0x90(%rbp)
   10c6d:	48 8d 85 10 f1 ff ff 	lea    -0xef0(%rbp),%rax
   10c74:	48 83 c0 14          	add    $0x14,%rax
   10c78:	48 89 85 78 ff ff ff 	mov    %rax,-0x88(%rbp)
   10c7f:	48 c7 45 80 00 00 00 	movq   $0x0,-0x80(%rbp)
   10c86:	00 
   10c87:	48 8d 85 10 f1 ff ff 	lea    -0xef0(%rbp),%rax
   10c8e:	48 83 c0 0c          	add    $0xc,%rax
   10c92:	48 89 45 88          	mov    %rax,-0x78(%rbp)
   10c96:	48 c7 45 90 00 00 00 	movq   $0x0,-0x70(%rbp)
   10c9d:	00 
   10c9e:	48 8d 85 d0 eb ff ff 	lea    -0x1430(%rbp),%rax
   10ca5:	48 89 45 98          	mov    %rax,-0x68(%rbp)
   10ca9:	48 8d 85 d0 eb ff ff 	lea    -0x1430(%rbp),%rax
   10cb0:	48 89 45 a0          	mov    %rax,-0x60(%rbp)
   10cb4:	48 c7 45 a8 00 00 00 	movq   $0x0,-0x58(%rbp)
   10cbb:	00 
   10cbc:	0f be 9d 84 eb ff ff 	movsbl -0x147c(%rbp),%ebx
   10cc3:	48 8b 85 88 eb ff ff 	mov    -0x1478(%rbp),%rax
   10cca:	0f b6 00             	movzbl (%rax),%eax
   10ccd:	0f be d0             	movsbl %al,%edx
   10cd0:	48 8b 05 61 a7 00 00 	mov    0xa761(%rip),%rax        # 1b438 <g_1925>
   10cd7:	48 8d 0d 52 a7 00 00 	lea    0xa752(%rip),%rcx        # 1b430 <g_1926>
   10cde:	48 39 c8             	cmp    %rcx,%rax
   10ce1:	0f 95 c0             	setne  %al
   10ce4:	0f b6 c8             	movzbl %al,%ecx
   10ce7:	48 8b 85 f0 ec ff ff 	mov    -0x1310(%rbp),%rax
   10cee:	8b 00                	mov    (%rax),%eax
   10cf0:	39 c1                	cmp    %eax,%ecx
   10cf2:	0f 9f c0             	setg   %al
   10cf5:	0f b6 c0             	movzbl %al,%eax
   10cf8:	89 d6                	mov    %edx,%esi
   10cfa:	89 c7                	mov    %eax,%edi
   10cfc:	e8 30 65 ff ff       	callq  7231 <safe_mod_func_int8_t_s_s>
   10d01:	89 c2                	mov    %eax,%edx
   10d03:	48 8b 85 28 ee ff ff 	mov    -0x11d8(%rbp),%rax
   10d0a:	88 10                	mov    %dl,(%rax)
   10d0c:	48 8b 85 28 ee ff ff 	mov    -0x11d8(%rbp),%rax
   10d13:	0f b6 00             	movzbl (%rax),%eax
   10d16:	0f b6 d0             	movzbl %al,%edx
   10d19:	8b 05 11 83 00 00    	mov    0x8311(%rip),%eax        # 19030 <g_3>
   10d1f:	39 c2                	cmp    %eax,%edx
   10d21:	0f 95 c0             	setne  %al
   10d24:	0f b6 c0             	movzbl %al,%eax
   10d27:	89 de                	mov    %ebx,%esi
   10d29:	89 c7                	mov    %eax,%edi
   10d2b:	e8 86 68 ff ff       	callq  75b6 <safe_add_func_int32_t_s_s>
   10d30:	bf 00 00 00 00       	mov    $0x0,%edi
   10d35:	e8 6c 71 ff ff       	callq  7ea6 <safe_unary_minus_func_uint32_t_u>
   10d3a:	89 c2                	mov    %eax,%edx
   10d3c:	8b 85 48 ec ff ff    	mov    -0x13b8(%rbp),%eax
   10d42:	89 d6                	mov    %edx,%esi
   10d44:	89 c7                	mov    %eax,%edi
   10d46:	e8 6b 68 ff ff       	callq  75b6 <safe_add_func_int32_t_s_s>
   10d4b:	48 8b 15 c6 a4 00 00 	mov    0xa4c6(%rip),%rdx        # 1b218 <g_785>
   10d52:	0f b7 12             	movzwl (%rdx),%edx
   10d55:	89 c1                	mov    %eax,%ecx
   10d57:	48 8b 05 ba a4 00 00 	mov    0xa4ba(%rip),%rax        # 1b218 <g_785>
   10d5e:	21 ca                	and    %ecx,%edx
   10d60:	66 89 10             	mov    %dx,(%rax)
   10d63:	0f b7 00             	movzwl (%rax),%eax
   10d66:	0f bf d0             	movswl %ax,%edx
   10d69:	8b 85 50 ec ff ff    	mov    -0x13b0(%rbp),%eax
   10d6f:	98                   	cwtl   
   10d70:	89 d6                	mov    %edx,%esi
   10d72:	89 c7                	mov    %eax,%edi
   10d74:	e8 b1 67 ff ff       	callq  752a <safe_rshift_func_int16_t_s_s>
   10d79:	89 c2                	mov    %eax,%edx
   10d7b:	48 8b 85 f0 ec ff ff 	mov    -0x1310(%rbp),%rax
   10d82:	0f bf d2             	movswl %dx,%edx
   10d85:	89 10                	mov    %edx,(%rax)
   10d87:	c7 85 cc eb ff ff 04 	movl   $0x4,-0x1434(%rbp)
   10d8e:	00 00 00 
   10d91:	e9 ff 01 00 00       	jmpq   10f95 <func_53+0x3ad2>
   10d96:	48 c7 85 50 ee ff ff 	movq   $0x0,-0x11b0(%rbp)
   10d9d:	00 00 00 00 
   10da1:	c7 85 6c ec ff ff 00 	movl   $0x0,-0x1394(%rbp)
   10da8:	00 00 00 
   10dab:	c7 85 70 ec ff ff 00 	movl   $0x0,-0x1390(%rbp)
   10db2:	00 00 00 
   10db5:	48 8d 05 d6 85 00 00 	lea    0x85d6(%rip),%rax        # 19392 <g_1555+0x12>
   10dbc:	48 89 85 58 ee ff ff 	mov    %rax,-0x11a8(%rbp)
   10dc3:	c7 85 b8 eb ff ff 03 	movl   $0x3,-0x1448(%rbp)
   10dca:	00 00 00 
   10dcd:	e9 96 00 00 00       	jmpq   10e68 <func_53+0x39a5>
   10dd2:	c6 85 a8 eb ff ff ff 	movb   $0xff,-0x1458(%rbp)
   10dd9:	48 8d 85 60 f3 ff ff 	lea    -0xca0(%rbp),%rax
   10de0:	48 05 b0 00 00 00    	add    $0xb0,%rax
   10de6:	48 89 85 88 ee ff ff 	mov    %rax,-0x1178(%rbp)
   10ded:	48 8b 15 d4 a5 00 00 	mov    0xa5d4(%rip),%rdx        # 1b3c8 <g_1492>
   10df4:	48 8b 05 45 a6 00 00 	mov    0xa645(%rip),%rax        # 1b440 <g_1931>
   10dfb:	48 8b 12             	mov    (%rdx),%rdx
   10dfe:	48 89 10             	mov    %rdx,(%rax)
   10e01:	48 8b 85 28 ee ff ff 	mov    -0x11d8(%rbp),%rax
   10e08:	c6 00 5f             	movb   $0x5f,(%rax)
   10e0b:	be 5f 00 00 00       	mov    $0x5f,%esi
   10e10:	bf 81 ff ff ff       	mov    $0xffffff81,%edi
   10e15:	e8 d4 64 ff ff       	callq  72ee <safe_lshift_func_int8_t_s_u>
   10e1a:	0f be c0             	movsbl %al,%eax
   10e1d:	89 85 c4 eb ff ff    	mov    %eax,-0x143c(%rbp)
   10e23:	80 bd a8 eb ff ff 00 	cmpb   $0x0,-0x1458(%rbp)
   10e2a:	75 2c                	jne    10e58 <func_53+0x3995>
   10e2c:	48 8b 85 88 ee ff ff 	mov    -0x1178(%rbp),%rax
   10e33:	8b 10                	mov    (%rax),%edx
   10e35:	0f be 85 84 eb ff ff 	movsbl -0x147c(%rbp),%eax
   10e3c:	21 c2                	and    %eax,%edx
   10e3e:	48 8b 85 88 ee ff ff 	mov    -0x1178(%rbp),%rax
   10e45:	89 10                	mov    %edx,(%rax)
   10e47:	48 8b 85 88 ee ff ff 	mov    -0x1178(%rbp),%rax
   10e4e:	8b 00                	mov    (%rax),%eax
   10e50:	89 85 18 ed ff ff    	mov    %eax,-0x12e8(%rbp)
   10e56:	eb 01                	jmp    10e59 <func_53+0x3996>
   10e58:	90                   	nop
   10e59:	8b 85 b8 eb ff ff    	mov    -0x1448(%rbp),%eax
   10e5f:	83 e8 01             	sub    $0x1,%eax
   10e62:	89 85 b8 eb ff ff    	mov    %eax,-0x1448(%rbp)
   10e68:	8b 85 b8 eb ff ff    	mov    -0x1448(%rbp),%eax
   10e6e:	85 c0                	test   %eax,%eax
   10e70:	0f 89 5c ff ff ff    	jns    10dd2 <func_53+0x390f>
   10e76:	c7 85 d4 eb ff ff 04 	movl   $0x4,-0x142c(%rbp)
   10e7d:	00 00 00 
   10e80:	e9 f3 00 00 00       	jmpq   10f78 <func_53+0x3ab5>
   10e85:	48 8d 85 18 ed ff ff 	lea    -0x12e8(%rbp),%rax
   10e8c:	48 89 85 60 ee ff ff 	mov    %rax,-0x11a0(%rbp)
   10e93:	48 8d 85 10 f1 ff ff 	lea    -0xef0(%rbp),%rax
   10e9a:	48 83 c0 04          	add    $0x4,%rax
   10e9e:	48 89 85 68 ee ff ff 	mov    %rax,-0x1198(%rbp)
   10ea5:	48 8d 85 c8 eb ff ff 	lea    -0x1438(%rbp),%rax
   10eac:	48 89 85 70 ee ff ff 	mov    %rax,-0x1190(%rbp)
   10eb3:	48 8d 85 18 ed ff ff 	lea    -0x12e8(%rbp),%rax
   10eba:	48 89 85 78 ee ff ff 	mov    %rax,-0x1188(%rbp)
   10ec1:	48 8d 85 60 f3 ff ff 	lea    -0xca0(%rbp),%rax
   10ec8:	48 05 b0 00 00 00    	add    $0xb0,%rax
   10ece:	48 89 85 80 ee ff ff 	mov    %rax,-0x1180(%rbp)
   10ed5:	c7 85 28 ec ff ff 00 	movl   $0x0,-0x13d8(%rbp)
   10edc:	00 00 00 
   10edf:	eb 22                	jmp    10f03 <func_53+0x3a40>
   10ee1:	8b 85 28 ec ff ff    	mov    -0x13d8(%rbp),%eax
   10ee7:	48 98                	cltq   
   10ee9:	48 8d 95 10 f1 ff ff 	lea    -0xef0(%rbp),%rdx
   10ef0:	48 83 c2 08          	add    $0x8,%rdx
   10ef4:	48 89 94 c5 c0 f2 ff 	mov    %rdx,-0xd40(%rbp,%rax,8)
   10efb:	ff 
   10efc:	83 85 28 ec ff ff 01 	addl   $0x1,-0x13d8(%rbp)
   10f03:	83 bd 28 ec ff ff 01 	cmpl   $0x1,-0x13d8(%rbp)
   10f0a:	7e d5                	jle    10ee1 <func_53+0x3a1e>
   10f0c:	0f b6 05 36 b6 00 00 	movzbl 0xb636(%rip),%eax        # 1c549 <g_1946>
   10f13:	83 e8 01             	sub    $0x1,%eax
   10f16:	88 05 2d b6 00 00    	mov    %al,0xb62d(%rip)        # 1c549 <g_1946>
   10f1c:	48 83 bd 58 ee ff ff 	cmpq   $0x0,-0x11a8(%rbp)
   10f23:	00 
   10f24:	0f 95 c0             	setne  %al
   10f27:	0f b6 d0             	movzbl %al,%edx
   10f2a:	48 8b 85 78 ee ff ff 	mov    -0x1188(%rbp),%rax
   10f31:	89 10                	mov    %edx,(%rax)
   10f33:	be 01 00 00 00       	mov    $0x1,%esi
   10f38:	bf e4 b8 fb ca       	mov    $0xcafbb8e4,%edi
   10f3d:	e8 e3 6f ff ff       	callq  7f25 <safe_div_func_uint32_t_u_u>
   10f42:	48 8b 95 70 ee ff ff 	mov    -0x1190(%rbp),%rdx
   10f49:	8b 12                	mov    (%rdx),%edx
   10f4b:	09 d0                	or     %edx,%eax
   10f4d:	89 c2                	mov    %eax,%edx
   10f4f:	48 8b 85 70 ee ff ff 	mov    -0x1190(%rbp),%rax
   10f56:	89 10                	mov    %edx,(%rax)
   10f58:	48 8b 85 78 ed ff ff 	mov    -0x1288(%rbp),%rax
   10f5f:	48 8b 00             	mov    (%rax),%rax
   10f62:	48 89 85 30 ee ff ff 	mov    %rax,-0x11d0(%rbp)
   10f69:	8b 85 d4 eb ff ff    	mov    -0x142c(%rbp),%eax
   10f6f:	83 e8 01             	sub    $0x1,%eax
   10f72:	89 85 d4 eb ff ff    	mov    %eax,-0x142c(%rbp)
   10f78:	8b 85 d4 eb ff ff    	mov    -0x142c(%rbp),%eax
   10f7e:	85 c0                	test   %eax,%eax
   10f80:	0f 8f ff fe ff ff    	jg     10e85 <func_53+0x39c2>
   10f86:	8b 85 cc eb ff ff    	mov    -0x1434(%rbp),%eax
   10f8c:	83 e8 01             	sub    $0x1,%eax
   10f8f:	89 85 cc eb ff ff    	mov    %eax,-0x1434(%rbp)
   10f95:	8b 85 cc eb ff ff    	mov    -0x1434(%rbp),%eax
   10f9b:	85 c0                	test   %eax,%eax
   10f9d:	0f 89 f3 fd ff ff    	jns    10d96 <func_53+0x38d3>
   10fa3:	48 c7 05 0a 81 00 00 	movq   $0xfffffffffffffffd,0x810a(%rip)        # 190b8 <g_180>
   10faa:	fd ff ff ff 
   10fae:	eb 35                	jmp    10fe5 <func_53+0x3b22>
   10fb0:	48 8d 85 f0 ec ff ff 	lea    -0x1310(%rbp),%rax
   10fb7:	48 89 85 48 ee ff ff 	mov    %rax,-0x11b8(%rbp)
   10fbe:	48 8b 85 48 ee ff ff 	mov    -0x11b8(%rbp),%rax
   10fc5:	48 8d 95 10 f1 ff ff 	lea    -0xef0(%rbp),%rdx
   10fcc:	48 83 c2 18          	add    $0x18,%rdx
   10fd0:	48 89 10             	mov    %rdx,(%rax)
   10fd3:	48 8b 05 de 80 00 00 	mov    0x80de(%rip),%rax        # 190b8 <g_180>
   10fda:	48 83 c0 01          	add    $0x1,%rax
   10fde:	48 89 05 d3 80 00 00 	mov    %rax,0x80d3(%rip)        # 190b8 <g_180>
   10fe5:	48 8b 05 cc 80 00 00 	mov    0x80cc(%rip),%rax        # 190b8 <g_180>
   10fec:	48 83 f8 23          	cmp    $0x23,%rax
   10ff0:	77 be                	ja     10fb0 <func_53+0x3aed>
   10ff2:	0f b6 85 a4 eb ff ff 	movzbl -0x145c(%rbp),%eax
   10ff9:	83 e8 01             	sub    $0x1,%eax
   10ffc:	88 85 a4 eb ff ff    	mov    %al,-0x145c(%rbp)
   11002:	e9 b0 0e 00 00       	jmpq   11eb7 <func_53+0x49f4>
   11007:	c7 85 c0 f2 ff ff ff 	movl   $0xffffffff,-0xd40(%rbp)
   1100e:	ff ff ff 
   11011:	c7 85 c4 f2 ff ff d7 	movl   $0x385872d7,-0xd3c(%rbp)
   11018:	72 58 38 
   1101b:	c7 85 c8 f2 ff ff c8 	movl   $0x6086dbc8,-0xd38(%rbp)
   11022:	db 86 60 
   11025:	c7 85 cc f2 ff ff d7 	movl   $0x385872d7,-0xd34(%rbp)
   1102c:	72 58 38 
   1102f:	c7 85 d0 f2 ff ff d7 	movl   $0x385872d7,-0xd30(%rbp)
   11036:	72 58 38 
   11039:	c7 85 d4 f2 ff ff 05 	movl   $0x5,-0xd2c(%rbp)
   11040:	00 00 00 
   11043:	c7 85 d8 f2 ff ff c8 	movl   $0x6086dbc8,-0xd28(%rbp)
   1104a:	db 86 60 
   1104d:	c7 85 dc f2 ff ff c8 	movl   $0x6086dbc8,-0xd24(%rbp)
   11054:	db 86 60 
   11057:	c7 85 e0 f2 ff ff ff 	movl   $0xffffffff,-0xd20(%rbp)
   1105e:	ff ff ff 
   11061:	c7 85 e4 f2 ff ff ff 	movl   $0xffffffff,-0xd1c(%rbp)
   11068:	ff ff ff 
   1106b:	c7 85 e8 f2 ff ff d7 	movl   $0x385872d7,-0xd18(%rbp)
   11072:	72 58 38 
   11075:	c7 85 ec f2 ff ff c8 	movl   $0x6086dbc8,-0xd14(%rbp)
   1107c:	db 86 60 
   1107f:	c7 85 f0 f2 ff ff fc 	movl   $0xfffffffc,-0xd10(%rbp)
   11086:	ff ff ff 
   11089:	c7 85 f4 f2 ff ff 05 	movl   $0x5,-0xd0c(%rbp)
   11090:	00 00 00 
   11093:	c7 85 f8 f2 ff ff fc 	movl   $0xfffffffc,-0xd08(%rbp)
   1109a:	ff ff ff 
   1109d:	c7 85 fc f2 ff ff d7 	movl   $0x385872d7,-0xd04(%rbp)
   110a4:	72 58 38 
   110a7:	c7 85 00 f3 ff ff fc 	movl   $0xfffffffc,-0xd00(%rbp)
   110ae:	ff ff ff 
   110b1:	c7 85 04 f3 ff ff d7 	movl   $0x385872d7,-0xcfc(%rbp)
   110b8:	72 58 38 
   110bb:	c7 85 08 f3 ff ff d7 	movl   $0x385872d7,-0xcf8(%rbp)
   110c2:	72 58 38 
   110c5:	c7 85 0c f3 ff ff fc 	movl   $0xfffffffc,-0xcf4(%rbp)
   110cc:	ff ff ff 
   110cf:	c7 85 10 f3 ff ff ff 	movl   $0xffffffff,-0xcf0(%rbp)
   110d6:	ff ff ff 
   110d9:	c7 85 14 f3 ff ff d7 	movl   $0x385872d7,-0xcec(%rbp)
   110e0:	72 58 38 
   110e3:	c7 85 18 f3 ff ff c8 	movl   $0x6086dbc8,-0xce8(%rbp)
   110ea:	db 86 60 
   110ed:	c7 85 1c f3 ff ff d7 	movl   $0x385872d7,-0xce4(%rbp)
   110f4:	72 58 38 
   110f7:	c7 85 20 f3 ff ff d7 	movl   $0x385872d7,-0xce0(%rbp)
   110fe:	72 58 38 
   11101:	c7 85 24 f3 ff ff 05 	movl   $0x5,-0xcdc(%rbp)
   11108:	00 00 00 
   1110b:	c7 85 28 f3 ff ff c8 	movl   $0x6086dbc8,-0xcd8(%rbp)
   11112:	db 86 60 
   11115:	c7 85 2c f3 ff ff c8 	movl   $0x6086dbc8,-0xcd4(%rbp)
   1111c:	db 86 60 
   1111f:	48 c7 85 28 ed ff ff 	movq   $0x0,-0x12d8(%rbp)
   11126:	00 00 00 00 
   1112a:	48 c7 85 c8 ed ff ff 	movq   $0xfffffffffffffff7,-0x1238(%rbp)
   11131:	f7 ff ff ff 
   11135:	48 8d 05 7c a3 00 00 	lea    0xa37c(%rip),%rax        # 1b4b8 <g_2049>
   1113c:	48 89 85 d0 ed ff ff 	mov    %rax,-0x1230(%rbp)
   11143:	48 8d 05 fe b2 00 00 	lea    0xb2fe(%rip),%rax        # 1c448 <g_12>
   1114a:	48 89 85 30 ed ff ff 	mov    %rax,-0x12d0(%rbp)
   11151:	48 8d 85 30 ed ff ff 	lea    -0x12d0(%rbp),%rax
   11158:	48 89 85 d8 ed ff ff 	mov    %rax,-0x1228(%rbp)
   1115f:	48 c7 85 e0 ed ff ff 	movq   $0x2,-0x1220(%rbp)
   11166:	02 00 00 00 
   1116a:	c7 85 2c ec ff ff 00 	movl   $0x0,-0x13d4(%rbp)
   11171:	00 00 00 
   11174:	eb 1a                	jmp    11190 <func_53+0x3ccd>
   11176:	8b 85 2c ec ff ff    	mov    -0x13d4(%rbp),%eax
   1117c:	48 98                	cltq   
   1117e:	c7 84 85 60 f0 ff ff 	movl   $0xd307438d,-0xfa0(%rbp,%rax,4)
   11185:	8d 43 07 d3 
   11189:	83 85 2c ec ff ff 01 	addl   $0x1,-0x13d4(%rbp)
   11190:	83 bd 2c ec ff ff 00 	cmpl   $0x0,-0x13d4(%rbp)
   11197:	7e dd                	jle    11176 <func_53+0x3cb3>
   11199:	8b 85 d4 f1 ff ff    	mov    -0xe2c(%rbp),%eax
   1119f:	89 85 54 ec ff ff    	mov    %eax,-0x13ac(%rbp)
   111a5:	83 bd 54 ec ff ff 00 	cmpl   $0x0,-0x13ac(%rbp)
   111ac:	75 2a                	jne    111d8 <func_53+0x3d15>
   111ae:	8b 05 94 82 00 00    	mov    0x8294(%rip),%eax        # 19448 <g_1708>
   111b4:	89 c0                	mov    %eax,%eax
   111b6:	48 89 05 fb 7e 00 00 	mov    %rax,0x7efb(%rip)        # 190b8 <g_180>
   111bd:	48 8b 05 f4 7e 00 00 	mov    0x7ef4(%rip),%rax        # 190b8 <g_180>
   111c4:	48 85 c0             	test   %rax,%rax
   111c7:	0f 95 c0             	setne  %al
   111ca:	0f b6 d0             	movzbl %al,%edx
   111cd:	0f be 85 84 eb ff ff 	movsbl -0x147c(%rbp),%eax
   111d4:	39 c2                	cmp    %eax,%edx
   111d6:	7f 07                	jg     111df <func_53+0x3d1c>
   111d8:	b8 01 00 00 00       	mov    $0x1,%eax
   111dd:	eb 05                	jmp    111e4 <func_53+0x3d21>
   111df:	b8 00 00 00 00       	mov    $0x0,%eax
   111e4:	0f be d0             	movsbl %al,%edx
   111e7:	8b 85 50 ec ff ff    	mov    -0x13b0(%rbp),%eax
   111ed:	0f be c0             	movsbl %al,%eax
   111f0:	89 d6                	mov    %edx,%esi
   111f2:	89 c7                	mov    %eax,%edi
   111f4:	e8 db 5f ff ff       	callq  71d4 <safe_add_func_int8_t_s_s>
   111f9:	0f b6 85 84 eb ff ff 	movzbl -0x147c(%rbp),%eax
   11200:	83 c8 01             	or     $0x1,%eax
   11203:	66 0f be d0          	movsbw %al,%dx
   11207:	48 8b 85 f0 ec ff ff 	mov    -0x1310(%rbp),%rax
   1120e:	8b 00                	mov    (%rax),%eax
   11210:	31 d0                	xor    %edx,%eax
   11212:	0f b7 c0             	movzwl %ax,%eax
   11215:	be ff ff 00 00       	mov    $0xffff,%esi
   1121a:	89 c7                	mov    %eax,%edi
   1121c:	e8 fe 6a ff ff       	callq  7d1f <safe_sub_func_uint16_t_u_u>
   11221:	0f bf d0             	movswl %ax,%edx
   11224:	0f be 85 a5 eb ff ff 	movsbl -0x145b(%rbp),%eax
   1122b:	89 d6                	mov    %edx,%esi
   1122d:	89 c7                	mov    %eax,%edi
   1122f:	e8 c1 61 ff ff       	callq  73f5 <safe_mul_func_int16_t_s_s>
   11234:	48 8b 15 dd 9f 00 00 	mov    0x9fdd(%rip),%rdx        # 1b218 <g_785>
   1123b:	0f b7 12             	movzwl (%rdx),%edx
   1123e:	66 39 d0             	cmp    %dx,%ax
   11241:	48 8b 05 88 a1 00 00 	mov    0xa188(%rip),%rax        # 1b3d0 <g_1517>
   11248:	48 8b 00             	mov    (%rax),%rax
   1124b:	8b 00                	mov    (%rax),%eax
   1124d:	85 c0                	test   %eax,%eax
   1124f:	0f 84 b6 04 00 00    	je     1170b <func_53+0x4248>
   11255:	c7 85 e0 f0 ff ff 00 	movl   $0x101ff00,-0xf20(%rbp)
   1125c:	ff 01 01 
   1125f:	66 c7 85 e4 f0 ff ff 	movw   $0xff,-0xf1c(%rbp)
   11266:	ff 00 
   11268:	c6 85 e6 f0 ff ff 01 	movb   $0x1,-0xf1a(%rbp)
   1126f:	c7 85 e7 f0 ff ff ff 	movl   $0xfd04f8ff,-0xf19(%rbp)
   11276:	f8 04 fd 
   11279:	66 c7 85 eb f0 ff ff 	movw   $0x4fd,-0xf15(%rbp)
   11280:	fd 04 
   11282:	c6 85 ed f0 ff ff f8 	movb   $0xf8,-0xf13(%rbp)
   11289:	c7 85 ee f0 ff ff ff 	movl   $0xff0001ff,-0xf12(%rbp)
   11290:	01 00 ff 
   11293:	66 c7 85 f2 f0 ff ff 	movw   $0x101,-0xf0e(%rbp)
   1129a:	01 01 
   1129c:	c6 85 f4 f0 ff ff ff 	movb   $0xff,-0xf0c(%rbp)
   112a3:	c7 85 f5 f0 ff ff 00 	movl   $0x100f800,-0xf0b(%rbp)
   112aa:	f8 00 01 
   112ad:	66 c7 85 f9 f0 ff ff 	movw   $0x1f8,-0xf07(%rbp)
   112b4:	f8 01 
   112b6:	c6 85 fb f0 ff ff 01 	movb   $0x1,-0xf05(%rbp)
   112bd:	c7 85 60 ec ff ff 00 	movl   $0x0,-0x13a0(%rbp)
   112c4:	00 00 00 
   112c7:	48 8d 85 e8 ec ff ff 	lea    -0x1318(%rbp),%rax
   112ce:	48 89 85 30 f8 ff ff 	mov    %rax,-0x7d0(%rbp)
   112d5:	48 8d 85 e8 ec ff ff 	lea    -0x1318(%rbp),%rax
   112dc:	48 89 85 38 f8 ff ff 	mov    %rax,-0x7c8(%rbp)
   112e3:	48 8d 85 e8 ec ff ff 	lea    -0x1318(%rbp),%rax
   112ea:	48 89 85 40 f8 ff ff 	mov    %rax,-0x7c0(%rbp)
   112f1:	48 8d 85 e8 ec ff ff 	lea    -0x1318(%rbp),%rax
   112f8:	48 89 85 48 f8 ff ff 	mov    %rax,-0x7b8(%rbp)
   112ff:	48 8d 85 e8 ec ff ff 	lea    -0x1318(%rbp),%rax
   11306:	48 89 85 50 f8 ff ff 	mov    %rax,-0x7b0(%rbp)
   1130d:	48 8d 85 e8 ec ff ff 	lea    -0x1318(%rbp),%rax
   11314:	48 89 85 58 f8 ff ff 	mov    %rax,-0x7a8(%rbp)
   1131b:	48 8d 85 e8 ec ff ff 	lea    -0x1318(%rbp),%rax
   11322:	48 89 85 60 f8 ff ff 	mov    %rax,-0x7a0(%rbp)
   11329:	c7 85 64 ec ff ff 00 	movl   $0x0,-0x139c(%rbp)
   11330:	00 00 00 
   11333:	48 8d 85 b8 ec ff ff 	lea    -0x1348(%rbp),%rax
   1133a:	48 89 85 f8 ed ff ff 	mov    %rax,-0x1208(%rbp)
   11341:	48 b8 ca 47 7b 50 d5 	movabs $0x21297ed5507b47ca,%rax
   11348:	7e 29 21 
   1134b:	48 89 85 00 ee ff ff 	mov    %rax,-0x1200(%rbp)
   11352:	c7 85 30 ec ff ff 00 	movl   $0x0,-0x13d0(%rbp)
   11359:	00 00 00 
   1135c:	eb 49                	jmp    113a7 <func_53+0x3ee4>
   1135e:	c7 85 34 ec ff ff 00 	movl   $0x0,-0x13cc(%rbp)
   11365:	00 00 00 
   11368:	eb 2d                	jmp    11397 <func_53+0x3ed4>
   1136a:	8b 85 34 ec ff ff    	mov    -0x13cc(%rbp),%eax
   11370:	48 98                	cltq   
   11372:	8b 95 30 ec ff ff    	mov    -0x13d0(%rbp),%edx
   11378:	48 63 d2             	movslq %edx,%rdx
   1137b:	48 01 d2             	add    %rdx,%rdx
   1137e:	48 01 d0             	add    %rdx,%rax
   11381:	48 8d 15 e2 7c 00 00 	lea    0x7ce2(%rip),%rdx        # 1906a <g_92+0xa>
   11388:	48 89 94 c5 c0 f0 ff 	mov    %rdx,-0xf40(%rbp,%rax,8)
   1138f:	ff 
   11390:	83 85 34 ec ff ff 01 	addl   $0x1,-0x13cc(%rbp)
   11397:	83 bd 34 ec ff ff 01 	cmpl   $0x1,-0x13cc(%rbp)
   1139e:	7e ca                	jle    1136a <func_53+0x3ea7>
   113a0:	83 85 30 ec ff ff 01 	addl   $0x1,-0x13d0(%rbp)
   113a7:	83 bd 30 ec ff ff 00 	cmpl   $0x0,-0x13d0(%rbp)
   113ae:	7e ae                	jle    1135e <func_53+0x3e9b>
   113b0:	66 c7 85 ac eb ff ff 	movw   $0x0,-0x1454(%rbp)
   113b7:	00 00 
   113b9:	e9 9b 01 00 00       	jmpq   11559 <func_53+0x4096>
   113be:	48 8d 05 eb a0 00 00 	lea    0xa0eb(%rip),%rax        # 1b4b0 <g_2003>
   113c5:	48 89 85 08 ee ff ff 	mov    %rax,-0x11f8(%rbp)
   113cc:	48 c7 85 10 ee ff ff 	movq   $0x0,-0x11f0(%rbp)
   113d3:	00 00 00 00 
   113d7:	48 8d 05 9a 7c 00 00 	lea    0x7c9a(%rip),%rax        # 19078 <g_106>
   113de:	48 89 85 18 ee ff ff 	mov    %rax,-0x11e8(%rbp)
   113e5:	c7 85 38 ec ff ff 00 	movl   $0x0,-0x13c8(%rbp)
   113ec:	00 00 00 
   113ef:	eb 1b                	jmp    1140c <func_53+0x3f49>
   113f1:	8b 85 38 ec ff ff    	mov    -0x13c8(%rbp),%eax
   113f7:	48 98                	cltq   
   113f9:	48 c7 84 c5 30 f2 ff 	movq   $0x0,-0xdd0(%rbp,%rax,8)
   11400:	ff 00 00 00 00 
   11405:	83 85 38 ec ff ff 01 	addl   $0x1,-0x13c8(%rbp)
   1140c:	83 bd 38 ec ff ff 04 	cmpl   $0x4,-0x13c8(%rbp)
   11413:	7e dc                	jle    113f1 <func_53+0x3f2e>
   11415:	0f b6 9d a2 eb ff ff 	movzbl -0x145e(%rbp),%ebx
   1141c:	48 8b 05 f5 9d 00 00 	mov    0x9df5(%rip),%rax        # 1b218 <g_785>
   11423:	66 c7 00 2b 93       	movw   $0x932b,(%rax)
   11428:	48 8b 05 79 9f 00 00 	mov    0x9f79(%rip),%rax        # 1b3a8 <g_1386>
   1142f:	48 8b 00             	mov    (%rax),%rax
   11432:	8b 85 c0 f2 ff ff    	mov    -0xd40(%rbp),%eax
   11438:	41 89 c5             	mov    %eax,%r13d
   1143b:	44 0f be a5 84 eb ff 	movsbl -0x147c(%rbp),%r12d
   11442:	ff 
   11443:	8b 85 b8 eb ff ff    	mov    -0x1448(%rbp),%eax
   11449:	0f b6 d0             	movzbl %al,%edx
   1144c:	48 8b 0d 5d a0 00 00 	mov    0xa05d(%rip),%rcx        # 1b4b0 <g_2003>
   11453:	48 8b 85 08 ee ff ff 	mov    -0x11f8(%rbp),%rax
   1145a:	48 89 08             	mov    %rcx,(%rax)
   1145d:	48 8b 85 08 ee ff ff 	mov    -0x11f8(%rbp),%rax
   11464:	48 8b 00             	mov    (%rax),%rax
   11467:	48 39 85 58 ed ff ff 	cmp    %rax,-0x12a8(%rbp)
   1146e:	0f 95 c0             	setne  %al
   11471:	0f b6 c0             	movzbl %al,%eax
   11474:	89 d6                	mov    %edx,%esi
   11476:	89 c7                	mov    %eax,%edi
   11478:	e8 5e 67 ff ff       	callq  7bdb <safe_div_func_uint8_t_u_u>
   1147d:	0f b6 c0             	movzbl %al,%eax
   11480:	be 07 00 00 00       	mov    $0x7,%esi
   11485:	89 c7                	mov    %eax,%edi
   11487:	e8 d7 60 ff ff       	callq  7563 <safe_rshift_func_int16_t_s_u>
   1148c:	48 8b 95 18 ee ff ff 	mov    -0x11e8(%rbp),%rdx
   11493:	48 8b 12             	mov    (%rdx),%rdx
   11496:	48 0f bf c0          	movswq %ax,%rax
   1149a:	48 09 c2             	or     %rax,%rdx
   1149d:	48 8b 85 18 ee ff ff 	mov    -0x11e8(%rbp),%rax
   114a4:	48 89 10             	mov    %rdx,(%rax)
   114a7:	48 8b 85 18 ee ff ff 	mov    -0x11e8(%rbp),%rax
   114ae:	48 8b 00             	mov    (%rax),%rax
   114b1:	48 85 c0             	test   %rax,%rax
   114b4:	74 10                	je     114c6 <func_53+0x4003>
   114b6:	83 bd 60 ec ff ff 00 	cmpl   $0x0,-0x13a0(%rbp)
   114bd:	74 07                	je     114c6 <func_53+0x4003>
   114bf:	b8 01 00 00 00       	mov    $0x1,%eax
   114c4:	eb 05                	jmp    114cb <func_53+0x4008>
   114c6:	b8 00 00 00 00       	mov    $0x0,%eax
   114cb:	98                   	cwtl   
   114cc:	44 89 e6             	mov    %r12d,%esi
   114cf:	89 c7                	mov    %eax,%edi
   114d1:	e8 bc 5f ff ff       	callq  7492 <safe_lshift_func_int16_t_s_s>
   114d6:	98                   	cwtl   
   114d7:	89 c7                	mov    %eax,%edi
   114d9:	e8 c8 69 ff ff       	callq  7ea6 <safe_unary_minus_func_uint32_t_u>
   114de:	0f b6 d0             	movzbl %al,%edx
   114e1:	0f b6 85 f2 f0 ff ff 	movzbl -0xf0e(%rbp),%eax
   114e8:	8d 48 ff             	lea    -0x1(%rax),%ecx
   114eb:	88 8d f2 f0 ff ff    	mov    %cl,-0xf0e(%rbp)
   114f1:	0f b6 c0             	movzbl %al,%eax
   114f4:	89 d6                	mov    %edx,%esi
   114f6:	89 c7                	mov    %eax,%edi
   114f8:	e8 7b 66 ff ff       	callq  7b78 <safe_sub_func_uint8_t_u_u>
   114fd:	89 c2                	mov    %eax,%edx
   114ff:	48 8b 85 f0 ec ff ff 	mov    -0x1310(%rbp),%rax
   11506:	0f b6 d2             	movzbl %dl,%edx
   11509:	89 10                	mov    %edx,(%rax)
   1150b:	8b 00                	mov    (%rax),%eax
   1150d:	44 89 ee             	mov    %r13d,%esi
   11510:	89 c7                	mov    %eax,%edi
   11512:	e8 9f 60 ff ff       	callq  75b6 <safe_add_func_int32_t_s_s>
   11517:	35 2b 93 ff ff       	xor    $0xffff932b,%eax
   1151c:	83 f8 f8             	cmp    $0xfffffff8,%eax
   1151f:	0f 96 c0             	setbe  %al
   11522:	0f b6 c0             	movzbl %al,%eax
   11525:	89 de                	mov    %ebx,%esi
   11527:	89 c7                	mov    %eax,%edi
   11529:	e8 e8 5e ff ff       	callq  7416 <safe_mod_func_int16_t_s_s>
   1152e:	0f bf d0             	movswl %ax,%edx
   11531:	8b 05 21 7b 00 00    	mov    0x7b21(%rip),%eax        # 19058 <g_65>
   11537:	31 d0                	xor    %edx,%eax
   11539:	89 05 19 7b 00 00    	mov    %eax,0x7b19(%rip)        # 19058 <g_65>
   1153f:	80 bd 84 eb ff ff 00 	cmpb   $0x0,-0x147c(%rbp)
   11546:	75 24                	jne    1156c <func_53+0x40a9>
   11548:	0f b7 85 ac eb ff ff 	movzwl -0x1454(%rbp),%eax
   1154f:	83 c0 01             	add    $0x1,%eax
   11552:	66 89 85 ac eb ff ff 	mov    %ax,-0x1454(%rbp)
   11559:	0f b7 85 ac eb ff ff 	movzwl -0x1454(%rbp),%eax
   11560:	66 83 f8 02          	cmp    $0x2,%ax
   11564:	0f 86 54 fe ff ff    	jbe    113be <func_53+0x3efb>
   1156a:	eb 01                	jmp    1156d <func_53+0x40aa>
   1156c:	90                   	nop
   1156d:	80 bd 84 eb ff ff 00 	cmpb   $0x0,-0x147c(%rbp)
   11574:	0f 85 e1 00 00 00    	jne    1165b <func_53+0x4198>
   1157a:	0f be 95 84 eb ff ff 	movsbl -0x147c(%rbp),%edx
   11581:	8b 85 e8 eb ff ff    	mov    -0x1418(%rbp),%eax
   11587:	0f be c0             	movsbl %al,%eax
   1158a:	89 d6                	mov    %edx,%esi
   1158c:	89 c7                	mov    %eax,%edi
   1158e:	e8 5b 5d ff ff       	callq  72ee <safe_lshift_func_int8_t_s_u>
   11593:	0f be d8             	movsbl %al,%ebx
   11596:	48 8b 85 48 f8 ff ff 	mov    -0x7b8(%rbp),%rax
   1159d:	48 8d 15 0c 9e 00 00 	lea    0x9e0c(%rip),%rdx        # 1b3b0 <g_1385>
   115a4:	48 39 d0             	cmp    %rdx,%rax
   115a7:	74 5d                	je     11606 <func_53+0x4143>
   115a9:	48 8b 85 f8 ed ff ff 	mov    -0x1208(%rbp),%rax
   115b0:	48 3b 85 b8 ed ff ff 	cmp    -0x1248(%rbp),%rax
   115b7:	0f 95 c0             	setne  %al
   115ba:	0f b6 c0             	movzbl %al,%eax
   115bd:	89 85 60 f0 ff ff    	mov    %eax,-0xfa0(%rbp)
   115c3:	8b 95 60 f0 ff ff    	mov    -0xfa0(%rbp),%edx
   115c9:	48 8b 85 88 eb ff ff 	mov    -0x1478(%rbp),%rax
   115d0:	0f b6 00             	movzbl (%rax),%eax
   115d3:	0f be c0             	movsbl %al,%eax
   115d6:	39 c2                	cmp    %eax,%edx
   115d8:	0f 9f c0             	setg   %al
   115db:	0f b6 d0             	movzbl %al,%edx
   115de:	8b 85 64 ec ff ff    	mov    -0x139c(%rbp),%eax
   115e4:	89 c1                	mov    %eax,%ecx
   115e6:	0f b6 85 84 eb ff ff 	movzbl -0x147c(%rbp),%eax
   115ed:	21 c8                	and    %ecx,%eax
   115ef:	0f be c0             	movsbl %al,%eax
   115f2:	89 d6                	mov    %edx,%esi
   115f4:	89 c7                	mov    %eax,%edi
   115f6:	e8 71 5d ff ff       	callq  736c <safe_rshift_func_int8_t_s_u>
   115fb:	84 c0                	test   %al,%al
   115fd:	74 07                	je     11606 <func_53+0x4143>
   115ff:	ba 01 00 00 00       	mov    $0x1,%edx
   11604:	eb 05                	jmp    1160b <func_53+0x4148>
   11606:	ba 00 00 00 00       	mov    $0x0,%edx
   1160b:	48 8b 85 88 eb ff ff 	mov    -0x1478(%rbp),%rax
   11612:	0f b6 00             	movzbl (%rax),%eax
   11615:	0f be c0             	movsbl %al,%eax
   11618:	39 c2                	cmp    %eax,%edx
   1161a:	0f 95 c0             	setne  %al
   1161d:	0f b6 c0             	movzbl %al,%eax
   11620:	89 85 60 ec ff ff    	mov    %eax,-0x13a0(%rbp)
   11626:	48 8b 05 f3 9b 00 00 	mov    0x9bf3(%rip),%rax        # 1b220 <g_784>
   1162d:	48 8b 00             	mov    (%rax),%rax
   11630:	8b 95 60 ec ff ff    	mov    -0x13a0(%rbp),%edx
   11636:	66 89 10             	mov    %dx,(%rax)
   11639:	0f b7 00             	movzwl (%rax),%eax
   1163c:	66 85 c0             	test   %ax,%ax
   1163f:	74 11                	je     11652 <func_53+0x418f>
   11641:	48 83 bd 00 ee ff ff 	cmpq   $0x0,-0x1200(%rbp)
   11648:	00 
   11649:	74 07                	je     11652 <func_53+0x418f>
   1164b:	b8 01 00 00 00       	mov    $0x1,%eax
   11650:	eb 05                	jmp    11657 <func_53+0x4194>
   11652:	b8 00 00 00 00       	mov    $0x0,%eax
   11657:	39 d8                	cmp    %ebx,%eax
   11659:	74 0c                	je     11667 <func_53+0x41a4>
   1165b:	48 8b 85 28 ed ff ff 	mov    -0x12d8(%rbp),%rax
   11662:	e9 5e 08 00 00       	jmpq   11ec5 <func_53+0x4a02>
   11667:	0f be 85 84 eb ff ff 	movsbl -0x147c(%rbp),%eax
   1166e:	89 85 60 f0 ff ff    	mov    %eax,-0xfa0(%rbp)
   11674:	8b 85 60 f0 ff ff    	mov    -0xfa0(%rbp),%eax
   1167a:	66 89 85 b0 eb ff ff 	mov    %ax,-0x1450(%rbp)
   11681:	8b 05 d1 7d 00 00    	mov    0x7dd1(%rip),%eax        # 19458 <g_2035>
   11687:	80 bd 84 eb ff ff 01 	cmpb   $0x1,-0x147c(%rbp)
   1168e:	0f 9f c0             	setg   %al
   11691:	0f b6 c0             	movzbl %al,%eax
   11694:	f7 d0                	not    %eax
   11696:	89 c3                	mov    %eax,%ebx
   11698:	48 8b 05 79 9b 00 00 	mov    0x9b79(%rip),%rax        # 1b218 <g_785>
   1169f:	0f b7 00             	movzwl (%rax),%eax
   116a2:	98                   	cwtl   
   116a3:	89 c6                	mov    %eax,%esi
   116a5:	bf 01 00 00 00       	mov    $0x1,%edi
   116aa:	e8 04 5d ff ff       	callq  73b3 <safe_add_func_int16_t_s_s>
   116af:	98                   	cwtl   
   116b0:	89 de                	mov    %ebx,%esi
   116b2:	89 c7                	mov    %eax,%edi
   116b4:	e8 13 60 ff ff       	callq  76cc <safe_mod_func_int32_t_s_s>
   116b9:	83 e0 37             	and    $0x37,%eax
   116bc:	88 05 87 ae 00 00    	mov    %al,0xae87(%rip)        # 1c549 <g_1946>
   116c2:	0f b6 05 80 ae 00 00 	movzbl 0xae80(%rip),%eax        # 1c549 <g_1946>
   116c9:	0f b6 d0             	movzbl %al,%edx
   116cc:	0f b6 05 dd 7a 00 00 	movzbl 0x7add(%rip),%eax        # 191b0 <g_358>
   116d3:	83 c0 01             	add    $0x1,%eax
   116d6:	88 05 d4 7a 00 00    	mov    %al,0x7ad4(%rip)        # 191b0 <g_358>
   116dc:	0f b6 05 cd 7a 00 00 	movzbl 0x7acd(%rip),%eax        # 191b0 <g_358>
   116e3:	0f b6 c0             	movzbl %al,%eax
   116e6:	89 d6                	mov    %edx,%esi
   116e8:	89 c7                	mov    %eax,%edi
   116ea:	e8 89 64 ff ff       	callq  7b78 <safe_sub_func_uint8_t_u_u>
   116ef:	48 8b 95 f0 ec ff ff 	mov    -0x1310(%rbp),%rdx
   116f6:	8b 0a                	mov    (%rdx),%ecx
   116f8:	0f b6 d0             	movzbl %al,%edx
   116fb:	48 8b 85 f0 ec ff ff 	mov    -0x1310(%rbp),%rax
   11702:	09 ca                	or     %ecx,%edx
   11704:	89 10                	mov    %edx,(%rax)
   11706:	e9 d9 04 00 00       	jmpq   11be4 <func_53+0x4721>
   1170b:	48 8d 05 16 a1 00 00 	lea    0xa116(%rip),%rax        # 1b828 <g_2047+0x348>
   11712:	48 89 85 e8 ed ff ff 	mov    %rax,-0x1218(%rbp)
   11719:	c7 85 58 ec ff ff 74 	movl   $0x6762bb74,-0x13a8(%rbp)
   11720:	bb 62 67 
   11723:	48 c7 85 38 ed ff ff 	movq   $0x0,-0x12c8(%rbp)
   1172a:	00 00 00 00 
   1172e:	48 8d 85 38 ed ff ff 	lea    -0x12c8(%rbp),%rax
   11735:	48 89 85 40 ed ff ff 	mov    %rax,-0x12c0(%rbp)
   1173c:	48 8d 85 40 ed ff ff 	lea    -0x12c0(%rbp),%rax
   11743:	48 89 85 48 ed ff ff 	mov    %rax,-0x12b8(%rbp)
   1174a:	c7 85 3c ec ff ff 00 	movl   $0x0,-0x13c4(%rbp)
   11751:	00 00 00 
   11754:	eb 1e                	jmp    11774 <func_53+0x42b1>
   11756:	8b 85 3c ec ff ff    	mov    -0x13c4(%rbp),%eax
   1175c:	48 98                	cltq   
   1175e:	48 8d 95 48 ed ff ff 	lea    -0x12b8(%rbp),%rdx
   11765:	48 89 94 c5 30 f2 ff 	mov    %rdx,-0xdd0(%rbp,%rax,8)
   1176c:	ff 
   1176d:	83 85 3c ec ff ff 01 	addl   $0x1,-0x13c4(%rbp)
   11774:	83 bd 3c ec ff ff 02 	cmpl   $0x2,-0x13c4(%rbp)
   1177b:	7e d9                	jle    11756 <func_53+0x4293>
   1177d:	48 8b 15 64 9e 00 00 	mov    0x9e64(%rip),%rdx        # 1b5e8 <g_2047+0x108>
   11784:	48 8b 85 e8 ed ff ff 	mov    -0x1218(%rbp),%rax
   1178b:	48 89 10             	mov    %rdx,(%rax)
   1178e:	8b 85 58 ec ff ff    	mov    -0x13a8(%rbp),%eax
   11794:	48 8b 15 45 9a 00 00 	mov    0x9a45(%rip),%rdx        # 1b1e0 <g_474>
   1179b:	0f be 95 84 eb ff ff 	movsbl -0x147c(%rbp),%edx
   117a2:	89 95 10 f4 ff ff    	mov    %edx,-0xbf0(%rbp)
   117a8:	8b 95 10 f4 ff ff    	mov    -0xbf0(%rbp),%edx
   117ae:	89 c6                	mov    %eax,%esi
   117b0:	89 d7                	mov    %edx,%edi
   117b2:	e8 19 67 ff ff       	callq  7ed0 <safe_sub_func_uint32_t_u_u>
   117b7:	8b 15 8b 7c 00 00    	mov    0x7c8b(%rip),%edx        # 19448 <g_1708>
   117bd:	39 d0                	cmp    %edx,%eax
   117bf:	0f 96 c2             	setbe  %dl
   117c2:	48 8b 85 b0 ed ff ff 	mov    -0x1250(%rbp),%rax
   117c9:	48 8b 00             	mov    (%rax),%rax
   117cc:	0f b6 d2             	movzbl %dl,%edx
   117cf:	66 89 10             	mov    %dx,(%rax)
   117d2:	0f b7 18             	movzwl (%rax),%ebx
   117d5:	48 8b 05 3c 9a 00 00 	mov    0x9a3c(%rip),%rax        # 1b218 <g_785>
   117dc:	0f b7 00             	movzwl (%rax),%eax
   117df:	0f bf d0             	movswl %ax,%edx
   117e2:	8b 05 48 78 00 00    	mov    0x7848(%rip),%eax        # 19030 <g_3>
   117e8:	0f b7 c0             	movzwl %ax,%eax
   117eb:	89 d6                	mov    %edx,%esi
   117ed:	89 c7                	mov    %eax,%edi
   117ef:	e8 ca 65 ff ff       	callq  7dbe <safe_lshift_func_uint16_t_u_s>
   117f4:	66 39 c3             	cmp    %ax,%bx
   117f7:	0f 93 c0             	setae  %al
   117fa:	0f b6 c0             	movzbl %al,%eax
   117fd:	be ff 00 00 00       	mov    $0xff,%esi
   11802:	89 c7                	mov    %eax,%edi
   11804:	e8 a5 63 ff ff       	callq  7bae <safe_mod_func_uint8_t_u_u>
   11809:	0f b6 d0             	movzbl %al,%edx
   1180c:	0f b6 05 57 78 00 00 	movzbl 0x7857(%rip),%eax        # 1906a <g_92+0xa>
   11813:	0f b6 c0             	movzbl %al,%eax
   11816:	89 d6                	mov    %edx,%esi
   11818:	89 c7                	mov    %eax,%edi
   1181a:	e8 1e 65 ff ff       	callq  7d3d <safe_mul_func_uint16_t_u_u>
   1181f:	83 c8 f8             	or     $0xfffffff8,%eax
   11822:	89 c2                	mov    %eax,%edx
   11824:	0f b6 85 a2 eb ff ff 	movzbl -0x145e(%rbp),%eax
   1182b:	31 d0                	xor    %edx,%eax
   1182d:	98                   	cwtl   
   1182e:	be 02 00 00 00       	mov    $0x2,%esi
   11833:	89 c7                	mov    %eax,%edi
   11835:	e8 f0 5c ff ff       	callq  752a <safe_rshift_func_int16_t_s_s>
   1183a:	66 85 c0             	test   %ax,%ax
   1183d:	74 13                	je     11852 <func_53+0x438f>
   1183f:	48 8b 05 aa 99 00 00 	mov    0x99aa(%rip),%rax        # 1b1f0 <g_483>
   11846:	48 c7 00 00 00 00 00 	movq   $0x0,(%rax)
   1184d:	e9 cd 02 00 00       	jmpq   11b1f <func_53+0x465c>
   11852:	48 b8 98 2f ed c9 7e 	movabs $0x7739d77ec9ed2f98,%rax
   11859:	d7 39 77 
   1185c:	48 89 85 f0 ed ff ff 	mov    %rax,-0x1210(%rbp)
   11863:	48 8d 05 4e 96 00 00 	lea    0x964e(%rip),%rax        # 1aeb8 <g_267+0x18>
   1186a:	48 89 85 50 ed ff ff 	mov    %rax,-0x12b0(%rbp)
   11871:	48 8d 85 50 ed ff ff 	lea    -0x12b0(%rbp),%rax
   11878:	48 89 85 30 f8 ff ff 	mov    %rax,-0x7d0(%rbp)
   1187f:	48 8d 85 50 ed ff ff 	lea    -0x12b0(%rbp),%rax
   11886:	48 89 85 38 f8 ff ff 	mov    %rax,-0x7c8(%rbp)
   1188d:	48 8d 85 50 ed ff ff 	lea    -0x12b0(%rbp),%rax
   11894:	48 89 85 40 f8 ff ff 	mov    %rax,-0x7c0(%rbp)
   1189b:	48 8d 85 50 ed ff ff 	lea    -0x12b0(%rbp),%rax
   118a2:	48 89 85 48 f8 ff ff 	mov    %rax,-0x7b8(%rbp)
   118a9:	48 8d 85 50 ed ff ff 	lea    -0x12b0(%rbp),%rax
   118b0:	48 89 85 50 f8 ff ff 	mov    %rax,-0x7b0(%rbp)
   118b7:	48 8d 85 50 ed ff ff 	lea    -0x12b0(%rbp),%rax
   118be:	48 89 85 58 f8 ff ff 	mov    %rax,-0x7a8(%rbp)
   118c5:	48 8d 85 50 ed ff ff 	lea    -0x12b0(%rbp),%rax
   118cc:	48 89 85 60 f8 ff ff 	mov    %rax,-0x7a0(%rbp)
   118d3:	48 8d 85 50 ed ff ff 	lea    -0x12b0(%rbp),%rax
   118da:	48 89 85 68 f8 ff ff 	mov    %rax,-0x798(%rbp)
   118e1:	48 8d 85 50 ed ff ff 	lea    -0x12b0(%rbp),%rax
   118e8:	48 89 85 70 f8 ff ff 	mov    %rax,-0x790(%rbp)
   118ef:	48 8d 85 50 ed ff ff 	lea    -0x12b0(%rbp),%rax
   118f6:	48 89 85 78 f8 ff ff 	mov    %rax,-0x788(%rbp)
   118fd:	48 8d 85 50 ed ff ff 	lea    -0x12b0(%rbp),%rax
   11904:	48 89 85 80 f8 ff ff 	mov    %rax,-0x780(%rbp)
   1190b:	48 8d 85 50 ed ff ff 	lea    -0x12b0(%rbp),%rax
   11912:	48 89 85 88 f8 ff ff 	mov    %rax,-0x778(%rbp)
   11919:	48 8d 85 50 ed ff ff 	lea    -0x12b0(%rbp),%rax
   11920:	48 89 85 90 f8 ff ff 	mov    %rax,-0x770(%rbp)
   11927:	48 8d 85 50 ed ff ff 	lea    -0x12b0(%rbp),%rax
   1192e:	48 89 85 98 f8 ff ff 	mov    %rax,-0x768(%rbp)
   11935:	48 8d 85 50 ed ff ff 	lea    -0x12b0(%rbp),%rax
   1193c:	48 89 85 a0 f8 ff ff 	mov    %rax,-0x760(%rbp)
   11943:	48 8d 85 50 ed ff ff 	lea    -0x12b0(%rbp),%rax
   1194a:	48 89 85 a8 f8 ff ff 	mov    %rax,-0x758(%rbp)
   11951:	48 8d 85 50 ed ff ff 	lea    -0x12b0(%rbp),%rax
   11958:	48 89 85 b0 f8 ff ff 	mov    %rax,-0x750(%rbp)
   1195f:	48 8d 85 50 ed ff ff 	lea    -0x12b0(%rbp),%rax
   11966:	48 89 85 b8 f8 ff ff 	mov    %rax,-0x748(%rbp)
   1196d:	48 8d 85 50 ed ff ff 	lea    -0x12b0(%rbp),%rax
   11974:	48 89 85 c0 f8 ff ff 	mov    %rax,-0x740(%rbp)
   1197b:	48 8d 85 50 ed ff ff 	lea    -0x12b0(%rbp),%rax
   11982:	48 89 85 c8 f8 ff ff 	mov    %rax,-0x738(%rbp)
   11989:	48 8d 85 50 ed ff ff 	lea    -0x12b0(%rbp),%rax
   11990:	48 89 85 d0 f8 ff ff 	mov    %rax,-0x730(%rbp)
   11997:	48 8d 85 50 ed ff ff 	lea    -0x12b0(%rbp),%rax
   1199e:	48 89 85 d8 f8 ff ff 	mov    %rax,-0x728(%rbp)
   119a5:	48 8d 85 50 ed ff ff 	lea    -0x12b0(%rbp),%rax
   119ac:	48 89 85 e0 f8 ff ff 	mov    %rax,-0x720(%rbp)
   119b3:	48 8d 85 50 ed ff ff 	lea    -0x12b0(%rbp),%rax
   119ba:	48 89 85 e8 f8 ff ff 	mov    %rax,-0x718(%rbp)
   119c1:	48 8d 85 50 ed ff ff 	lea    -0x12b0(%rbp),%rax
   119c8:	48 89 85 f0 f8 ff ff 	mov    %rax,-0x710(%rbp)
   119cf:	48 8d 85 50 ed ff ff 	lea    -0x12b0(%rbp),%rax
   119d6:	48 89 85 f8 f8 ff ff 	mov    %rax,-0x708(%rbp)
   119dd:	48 8d 85 50 ed ff ff 	lea    -0x12b0(%rbp),%rax
   119e4:	48 89 85 00 f9 ff ff 	mov    %rax,-0x700(%rbp)
   119eb:	48 8d 85 50 ed ff ff 	lea    -0x12b0(%rbp),%rax
   119f2:	48 89 85 08 f9 ff ff 	mov    %rax,-0x6f8(%rbp)
   119f9:	48 8b 05 d0 97 00 00 	mov    0x97d0(%rip),%rax        # 1b1d0 <g_393>
   11a00:	48 8b 10             	mov    (%rax),%rdx
   11a03:	48 8b 05 c6 97 00 00 	mov    0x97c6(%rip),%rax        # 1b1d0 <g_393>
   11a0a:	48 8b 00             	mov    (%rax),%rax
   11a0d:	48 8b 12             	mov    (%rdx),%rdx
   11a10:	48 89 10             	mov    %rdx,(%rax)
   11a13:	0f b6 85 84 eb ff ff 	movzbl -0x147c(%rbp),%eax
   11a1a:	83 f0 f6             	xor    $0xfffffff6,%eax
   11a1d:	48 0f be c0          	movsbq %al,%rax
   11a21:	48 21 85 f0 ed ff ff 	and    %rax,-0x1210(%rbp)
   11a28:	48 8b 05 e9 97 00 00 	mov    0x97e9(%rip),%rax        # 1b218 <g_785>
   11a2f:	0f b7 10             	movzwl (%rax),%edx
   11a32:	48 8b 05 df 97 00 00 	mov    0x97df(%rip),%rax        # 1b218 <g_785>
   11a39:	66 81 f2 6c 93       	xor    $0x936c,%dx
   11a3e:	66 89 10             	mov    %dx,(%rax)
   11a41:	0f b7 00             	movzwl (%rax),%eax
   11a44:	66 85 c0             	test   %ax,%ax
   11a47:	0f 85 85 00 00 00    	jne    11ad2 <func_53+0x460f>
   11a4d:	8b 9d 60 f0 ff ff    	mov    -0xfa0(%rbp),%ebx
   11a53:	48 83 bd f0 ed ff ff 	cmpq   $0x0,-0x1210(%rbp)
   11a5a:	00 
   11a5b:	74 4f                	je     11aac <func_53+0x45e9>
   11a5d:	8b 05 23 79 00 00    	mov    0x7923(%rip),%eax        # 19386 <g_1555+0x6>
   11a63:	41 89 c4             	mov    %eax,%r12d
   11a66:	8b 05 7c 77 00 00    	mov    0x777c(%rip),%eax        # 191e8 <g_694>
   11a6c:	66 0f be 85 84 eb ff 	movsbw -0x147c(%rbp),%ax
   11a73:	ff 
   11a74:	48 8b 95 f0 ed ff ff 	mov    -0x1210(%rbp),%rdx
   11a7b:	89 95 e8 f3 ff ff    	mov    %edx,-0xc18(%rbp)
   11a81:	8b 95 e8 f3 ff ff    	mov    -0xc18(%rbp),%edx
   11a87:	21 d0                	and    %edx,%eax
   11a89:	0f b7 c0             	movzwl %ax,%eax
   11a8c:	be 06 00 00 00       	mov    $0x6,%esi
   11a91:	89 c7                	mov    %eax,%edi
   11a93:	e8 e2 63 ff ff       	callq  7e7a <safe_rshift_func_uint16_t_u_u>
   11a98:	44 89 e6             	mov    %r12d,%esi
   11a9b:	bf 01 00 00 00       	mov    $0x1,%edi
   11aa0:	e8 19 62 ff ff       	callq  7cbe <safe_rshift_func_uint8_t_u_u>
   11aa5:	80 bd 84 eb ff ff 00 	cmpb   $0x0,-0x147c(%rbp)
   11aac:	48 c7 85 30 f2 ff ff 	movq   $0x0,-0xdd0(%rbp)
   11ab3:	00 00 00 00 
   11ab7:	48 8b 95 30 f2 ff ff 	mov    -0xdd0(%rbp),%rdx
   11abe:	48 8d 85 48 ed ff ff 	lea    -0x12b8(%rbp),%rax
   11ac5:	48 39 c2             	cmp    %rax,%rdx
   11ac8:	0f 95 c0             	setne  %al
   11acb:	0f b6 c0             	movzbl %al,%eax
   11ace:	39 c3                	cmp    %eax,%ebx
   11ad0:	7f 07                	jg     11ad9 <func_53+0x4616>
   11ad2:	b8 01 00 00 00       	mov    $0x1,%eax
   11ad7:	eb 05                	jmp    11ade <func_53+0x461b>
   11ad9:	b8 00 00 00 00       	mov    $0x0,%eax
   11ade:	0f b7 c0             	movzwl %ax,%eax
   11ae1:	be 00 00 00 00       	mov    $0x0,%esi
   11ae6:	89 c7                	mov    %eax,%edi
   11ae8:	e8 12 62 ff ff       	callq  7cff <safe_add_func_uint16_t_u_u>
   11aed:	8b 85 60 f0 ff ff    	mov    -0xfa0(%rbp),%eax
   11af3:	85 c0                	test   %eax,%eax
   11af5:	0f 9f c2             	setg   %dl
   11af8:	48 8b 85 f0 ec ff ff 	mov    -0x1310(%rbp),%rax
   11aff:	0f b6 d2             	movzbl %dl,%edx
   11b02:	89 10                	mov    %edx,(%rax)
   11b04:	48 8b 85 c8 f8 ff ff 	mov    -0x738(%rbp),%rax
   11b0b:	48 89 05 7e a9 00 00 	mov    %rax,0xa97e(%rip)        # 1c490 <g_608>
   11b12:	48 8b 85 f0 ec ff ff 	mov    -0x1310(%rbp),%rax
   11b19:	c7 00 01 00 00 00    	movl   $0x1,(%rax)
   11b1f:	c7 85 e8 eb ff ff 02 	movl   $0x2,-0x1418(%rbp)
   11b26:	00 00 00 
   11b29:	eb 2c                	jmp    11b57 <func_53+0x4694>
   11b2b:	c7 85 5c ec ff ff bb 	movl   $0x4fbb49bb,-0x13a4(%rbp)
   11b32:	49 bb 4f 
   11b35:	83 ad 5c ec ff ff 01 	subl   $0x1,-0x13a4(%rbp)
   11b3c:	48 8b 15 5d 99 00 00 	mov    0x995d(%rip),%rdx        # 1b4a0 <g_2005>
   11b43:	48 8b 05 56 99 00 00 	mov    0x9956(%rip),%rax        # 1b4a0 <g_2005>
   11b4a:	48 8b 12             	mov    (%rdx),%rdx
   11b4d:	48 89 10             	mov    %rdx,(%rax)
   11b50:	83 85 e8 eb ff ff 01 	addl   $0x1,-0x1418(%rbp)
   11b57:	83 bd e8 eb ff ff 06 	cmpl   $0x6,-0x1418(%rbp)
   11b5e:	7e cb                	jle    11b2b <func_53+0x4668>
   11b60:	0f b6 85 a6 eb ff ff 	movzbl -0x145a(%rbp),%eax
   11b67:	83 c0 01             	add    $0x1,%eax
   11b6a:	88 85 a6 eb ff ff    	mov    %al,-0x145a(%rbp)
   11b70:	bf ff ff ff ff       	mov    $0xffffffff,%edi
   11b75:	e8 45 56 ff ff       	callq  71bf <safe_unary_minus_func_int8_t_s>
   11b7a:	80 bd 84 eb ff ff 00 	cmpb   $0x0,-0x147c(%rbp)
   11b81:	75 25                	jne    11ba8 <func_53+0x46e5>
   11b83:	48 83 bd d8 ed ff ff 	cmpq   $0x0,-0x1228(%rbp)
   11b8a:	00 
   11b8b:	0f 95 c0             	setne  %al
   11b8e:	0f b6 c0             	movzbl %al,%eax
   11b91:	f7 d0                	not    %eax
   11b93:	c1 e8 1f             	shr    $0x1f,%eax
   11b96:	0f b6 c0             	movzbl %al,%eax
   11b99:	be 02 00 00 00       	mov    $0x2,%esi
   11b9e:	89 c7                	mov    %eax,%edi
   11ba0:	e8 61 62 ff ff       	callq  7e06 <safe_lshift_func_uint16_t_u_u>
   11ba5:	66 85 c0             	test   %ax,%ax
   11ba8:	0f b6 45 c6          	movzbl -0x3a(%rbp),%eax
   11bac:	66 98                	cbtw   
   11bae:	0f b7 d0             	movzwl %ax,%edx
   11bb1:	66 0f be 85 a1 eb ff 	movsbw -0x145f(%rbp),%ax
   11bb8:	ff 
   11bb9:	0f b7 c0             	movzwl %ax,%eax
   11bbc:	89 d6                	mov    %edx,%esi
   11bbe:	89 c7                	mov    %eax,%edi
   11bc0:	e8 3a 61 ff ff       	callq  7cff <safe_add_func_uint16_t_u_u>
   11bc5:	0f b7 d0             	movzwl %ax,%edx
   11bc8:	48 8b 85 88 eb ff ff 	mov    -0x1478(%rbp),%rax
   11bcf:	0f b6 00             	movzbl (%rax),%eax
   11bd2:	0f be c0             	movsbl %al,%eax
   11bd5:	39 c2                	cmp    %eax,%edx
   11bd7:	48 8b 85 f0 ec ff ff 	mov    -0x1310(%rbp),%rax
   11bde:	c7 00 01 00 00 00    	movl   $0x1,(%rax)
   11be4:	48 8b 85 f0 ec ff ff 	mov    -0x1310(%rbp),%rax
   11beb:	c7 00 ae 79 f8 da    	movl   $0xdaf879ae,(%rax)
   11bf1:	48 8b 85 e0 ed ff ff 	mov    -0x1220(%rbp),%rax
   11bf8:	89 85 78 eb ff ff    	mov    %eax,-0x1488(%rbp)
   11bfe:	0f b6 9d a7 eb ff ff 	movzbl -0x1459(%rbp),%ebx
   11c05:	48 8b 85 a8 ed ff ff 	mov    -0x1258(%rbp),%rax
   11c0c:	89 85 80 eb ff ff    	mov    %eax,-0x1480(%rbp)
   11c12:	0f b6 05 3f a8 00 00 	movzbl 0xa83f(%rip),%eax        # 1c458 <g_79>
   11c19:	44 0f be e0          	movsbl %al,%r12d
   11c1d:	4c 0f be ad 84 eb ff 	movsbq -0x147c(%rbp),%r13
   11c24:	ff 
   11c25:	0f b7 05 ac 75 00 00 	movzwl 0x75ac(%rip),%eax        # 191d8 <g_664>
   11c2c:	44 0f be f0          	movsbl %al,%r14d
   11c30:	48 8b 05 e1 95 00 00 	mov    0x95e1(%rip),%rax        # 1b218 <g_785>
   11c37:	0f b7 00             	movzwl (%rax),%eax
   11c3a:	44 0f bf f8          	movswl %ax,%r15d
   11c3e:	66 0f be 85 84 eb ff 	movsbw -0x147c(%rbp),%ax
   11c45:	ff 
   11c46:	0f b7 c0             	movzwl %ax,%eax
   11c49:	89 85 74 eb ff ff    	mov    %eax,-0x148c(%rbp)
   11c4f:	0f b6 05 14 74 00 00 	movzbl 0x7414(%rip),%eax        # 1906a <g_92+0xa>
   11c56:	3c 73                	cmp    $0x73,%al
   11c58:	0f 97 c0             	seta   %al
   11c5b:	0f b6 c0             	movzbl %al,%eax
   11c5e:	be 02 00 00 00       	mov    $0x2,%esi
   11c63:	89 c7                	mov    %eax,%edi
   11c65:	e8 cb 56 ff ff       	callq  7335 <safe_rshift_func_int8_t_s_s>
   11c6a:	66 98                	cbtw   
   11c6c:	0f b7 c0             	movzwl %ax,%eax
   11c6f:	8b b5 74 eb ff ff    	mov    -0x148c(%rbp),%esi
   11c75:	89 c7                	mov    %eax,%edi
   11c77:	e8 c1 60 ff ff       	callq  7d3d <safe_mul_func_uint16_t_u_u>
   11c7c:	0f b7 c0             	movzwl %ax,%eax
   11c7f:	89 85 74 eb ff ff    	mov    %eax,-0x148c(%rbp)
   11c85:	48 8b 05 ac 97 00 00 	mov    0x97ac(%rip),%rax        # 1b438 <g_1925>
   11c8c:	48 8b 00             	mov    (%rax),%rax
   11c8f:	0f b6 00             	movzbl (%rax),%eax
   11c92:	84 c0                	test   %al,%al
   11c94:	0f 94 c0             	sete   %al
   11c97:	0f b6 d0             	movzbl %al,%edx
   11c9a:	0f bf 85 b4 eb ff ff 	movswl -0x144c(%rbp),%eax
   11ca1:	89 d6                	mov    %edx,%esi
   11ca3:	89 c7                	mov    %eax,%edi
   11ca5:	e8 4b 57 ff ff       	callq  73f5 <safe_mul_func_int16_t_s_s>
   11caa:	0f b6 c0             	movzbl %al,%eax
   11cad:	be ed 00 00 00       	mov    $0xed,%esi
   11cb2:	89 c7                	mov    %eax,%edi
   11cb4:	e8 da 5e ff ff       	callq  7b93 <safe_mul_func_uint8_t_u_u>
   11cb9:	0f b6 c0             	movzbl %al,%eax
   11cbc:	8b b5 74 eb ff ff    	mov    -0x148c(%rbp),%esi
   11cc2:	89 c7                	mov    %eax,%edi
   11cc4:	e8 f5 5f ff ff       	callq  7cbe <safe_rshift_func_uint8_t_u_u>
   11cc9:	0f b6 c0             	movzbl %al,%eax
   11ccc:	44 89 fe             	mov    %r15d,%esi
   11ccf:	89 c7                	mov    %eax,%edi
   11cd1:	e8 1f 57 ff ff       	callq  73f5 <safe_mul_func_int16_t_s_s>
   11cd6:	0f b6 95 84 eb ff ff 	movzbl -0x147c(%rbp),%edx
   11cdd:	48 8b 85 b0 ed ff ff 	mov    -0x1250(%rbp),%rax
   11ce4:	48 8b 00             	mov    (%rax),%rax
   11ce7:	0f b7 00             	movzwl (%rax),%eax
   11cea:	89 c1                	mov    %eax,%ecx
   11cec:	66 0f be c2          	movsbw %dl,%ax
   11cf0:	21 c1                	and    %eax,%ecx
   11cf2:	89 ca                	mov    %ecx,%edx
   11cf4:	48 8b 85 b0 ed ff ff 	mov    -0x1250(%rbp),%rax
   11cfb:	48 8b 00             	mov    (%rax),%rax
   11cfe:	66 89 10             	mov    %dx,(%rax)
   11d01:	0f b7 00             	movzwl (%rax),%eax
   11d04:	0f b7 c0             	movzwl %ax,%eax
   11d07:	be 0e 00 00 00       	mov    $0xe,%esi
   11d0c:	89 c7                	mov    %eax,%edi
   11d0e:	e8 67 61 ff ff       	callq  7e7a <safe_rshift_func_uint16_t_u_u>
   11d13:	48 8b 05 1e 97 00 00 	mov    0x971e(%rip),%rax        # 1b438 <g_1925>
   11d1a:	48 8b 00             	mov    (%rax),%rax
   11d1d:	0f b6 00             	movzbl (%rax),%eax
   11d20:	44 89 f6             	mov    %r14d,%esi
   11d23:	bf 00 00 00 00       	mov    $0x0,%edi
   11d28:	e8 a7 54 ff ff       	callq  71d4 <safe_add_func_int8_t_s_s>
   11d2d:	38 85 84 eb ff ff    	cmp    %al,-0x147c(%rbp)
   11d33:	0f 9e c0             	setle  %al
   11d36:	0f b6 c0             	movzbl %al,%eax
   11d39:	4c 89 ee             	mov    %r13,%rsi
   11d3c:	48 89 c7             	mov    %rax,%rdi
   11d3f:	e8 6b 63 ff ff       	callq  80af <safe_div_func_uint64_t_u_u>
   11d44:	89 c2                	mov    %eax,%edx
   11d46:	48 83 bd a0 ed ff ff 	cmpq   $0x0,-0x1260(%rbp)
   11d4d:	00 
   11d4e:	0f 95 c0             	setne  %al
   11d51:	0f b6 c0             	movzbl %al,%eax
   11d54:	89 d6                	mov    %edx,%esi
   11d56:	89 c7                	mov    %eax,%edi
   11d58:	e8 a0 61 ff ff       	callq  7efd <safe_mod_func_uint32_t_u_u>
   11d5d:	0f be c0             	movsbl %al,%eax
   11d60:	44 89 e6             	mov    %r12d,%esi
   11d63:	89 c7                	mov    %eax,%edi
   11d65:	e8 84 55 ff ff       	callq  72ee <safe_lshift_func_int8_t_s_u>
   11d6a:	84 c0                	test   %al,%al
   11d6c:	74 07                	je     11d75 <func_53+0x48b2>
   11d6e:	b8 01 00 00 00       	mov    $0x1,%eax
   11d73:	eb 05                	jmp    11d7a <func_53+0x48b7>
   11d75:	b8 00 00 00 00       	mov    $0x0,%eax
   11d7a:	8b b5 80 eb ff ff    	mov    -0x1480(%rbp),%esi
   11d80:	89 c7                	mov    %eax,%edi
   11d82:	e8 31 61 ff ff       	callq  7eb8 <safe_add_func_uint32_t_u_u>
   11d87:	f7 d0                	not    %eax
   11d89:	89 c2                	mov    %eax,%edx
   11d8b:	8b 05 b7 76 00 00    	mov    0x76b7(%rip),%eax        # 19448 <g_1708>
   11d91:	39 c2                	cmp    %eax,%edx
   11d93:	0f 95 c0             	setne  %al
   11d96:	0f b6 c0             	movzbl %al,%eax
   11d99:	89 de                	mov    %ebx,%esi
   11d9b:	89 c7                	mov    %eax,%edi
   11d9d:	e8 11 56 ff ff       	callq  73b3 <safe_add_func_int16_t_s_s>
   11da2:	80 bd 84 eb ff ff 00 	cmpb   $0x0,-0x147c(%rbp)
   11da9:	0f 9f c0             	setg   %al
   11dac:	0f b6 c0             	movzbl %al,%eax
   11daf:	89 85 60 f0 ff ff    	mov    %eax,-0xfa0(%rbp)
   11db5:	0f bf 85 b2 eb ff ff 	movswl -0x144e(%rbp),%eax
   11dbc:	8b b5 78 eb ff ff    	mov    -0x1488(%rbp),%esi
   11dc2:	89 c7                	mov    %eax,%edi
   11dc4:	e8 c9 56 ff ff       	callq  7492 <safe_lshift_func_int16_t_s_s>
   11dc9:	b9 01 00 00 00       	mov    $0x1,%ecx
   11dce:	48 8b 85 f0 ec ff ff 	mov    -0x1310(%rbp),%rax
   11dd5:	8b 10                	mov    (%rax),%edx
   11dd7:	48 8b 85 f0 ec ff ff 	mov    -0x1310(%rbp),%rax
   11dde:	21 ca                	and    %ecx,%edx
   11de0:	89 10                	mov    %edx,(%rax)
   11de2:	66 c7 05 cf 75 00 00 	movw   $0x0,0x75cf(%rip)        # 193ba <g_1604+0x4>
   11de9:	00 00 
   11deb:	e9 b7 00 00 00       	jmpq   11ea7 <func_53+0x49e4>
   11df0:	c7 85 ec eb ff ff 00 	movl   $0x0,-0x1414(%rbp)
   11df7:	00 00 00 
   11dfa:	e9 8a 00 00 00       	jmpq   11e89 <func_53+0x49c6>
   11dff:	66 c7 05 a8 72 00 00 	movw   $0x0,0x72a8(%rip)        # 190b0 <g_131+0x4>
   11e06:	00 00 
   11e08:	eb 6b                	jmp    11e75 <func_53+0x49b2>
   11e0a:	0f b7 05 a9 75 00 00 	movzwl 0x75a9(%rip),%eax        # 193ba <g_1604+0x4>
   11e11:	98                   	cwtl   
   11e12:	0f b7 15 97 72 00 00 	movzwl 0x7297(%rip),%edx        # 190b0 <g_131+0x4>
   11e19:	0f bf d2             	movswl %dx,%edx
   11e1c:	48 63 f2             	movslq %edx,%rsi
   11e1f:	48 63 d0             	movslq %eax,%rdx
   11e22:	8b 85 ec eb ff ff    	mov    -0x1414(%rbp),%eax
   11e28:	48 63 c8             	movslq %eax,%rcx
   11e2b:	48 89 d0             	mov    %rdx,%rax
   11e2e:	48 01 c0             	add    %rax,%rax
   11e31:	48 01 d0             	add    %rdx,%rax
   11e34:	48 8d 14 c5 00 00 00 	lea    0x0(,%rax,8),%rdx
   11e3b:	00 
   11e3c:	48 01 d0             	add    %rdx,%rax
   11e3f:	48 01 c0             	add    %rax,%rax
   11e42:	48 89 ca             	mov    %rcx,%rdx
   11e45:	48 01 d2             	add    %rdx,%rdx
   11e48:	48 01 ca             	add    %rcx,%rdx
   11e4b:	48 01 d2             	add    %rdx,%rdx
   11e4e:	48 01 d0             	add    %rdx,%rax
   11e51:	48 8d 5d d0          	lea    -0x30(%rbp),%rbx
   11e55:	48 01 d8             	add    %rbx,%rax
   11e58:	48 01 f0             	add    %rsi,%rax
   11e5b:	48 2d 90 0e 00 00    	sub    $0xe90,%rax
   11e61:	c6 00 01             	movb   $0x1,(%rax)
   11e64:	0f b7 05 45 72 00 00 	movzwl 0x7245(%rip),%eax        # 190b0 <g_131+0x4>
   11e6b:	83 c0 01             	add    $0x1,%eax
   11e6e:	66 89 05 3b 72 00 00 	mov    %ax,0x723b(%rip)        # 190b0 <g_131+0x4>
   11e75:	0f b7 05 34 72 00 00 	movzwl 0x7234(%rip),%eax        # 190b0 <g_131+0x4>
   11e7c:	66 83 f8 05          	cmp    $0x5,%ax
   11e80:	7e 88                	jle    11e0a <func_53+0x4947>
   11e82:	83 85 ec eb ff ff 01 	addl   $0x1,-0x1414(%rbp)
   11e89:	83 bd ec eb ff ff 08 	cmpl   $0x8,-0x1414(%rbp)
   11e90:	0f 8e 69 ff ff ff    	jle    11dff <func_53+0x493c>
   11e96:	0f b7 05 1d 75 00 00 	movzwl 0x751d(%rip),%eax        # 193ba <g_1604+0x4>
   11e9d:	83 c0 01             	add    $0x1,%eax
   11ea0:	66 89 05 13 75 00 00 	mov    %ax,0x7513(%rip)        # 193ba <g_1604+0x4>
   11ea7:	0f b7 05 0c 75 00 00 	movzwl 0x750c(%rip),%eax        # 193ba <g_1604+0x4>
   11eae:	66 85 c0             	test   %ax,%ax
   11eb1:	0f 8e 39 ff ff ff    	jle    11df0 <func_53+0x492d>
   11eb7:	83 ad 4c ec ff ff 01 	subl   $0x1,-0x13b4(%rbp)
   11ebe:	48 8b 85 d8 ec ff ff 	mov    -0x1328(%rbp),%rax
   11ec5:	48 8b 5d c8          	mov    -0x38(%rbp),%rbx
   11ec9:	64 48 33 1c 25 28 00 	xor    %fs:0x28,%rbx
   11ed0:	00 00 
   11ed2:	74 05                	je     11ed9 <func_53+0x4a16>
   11ed4:	e8 97 51 ff ff       	callq  7070 <__stack_chk_fail@plt>
   11ed9:	48 81 c4 68 14 00 00 	add    $0x1468,%rsp
   11ee0:	5b                   	pop    %rbx
   11ee1:	41 5c                	pop    %r12
   11ee3:	41 5d                	pop    %r13
   11ee5:	41 5e                	pop    %r14
   11ee7:	41 5f                	pop    %r15
   11ee9:	5d                   	pop    %rbp
   11eea:	c3                   	retq   

0000000000011eeb <func_56>:
   11eeb:	f3 0f 1e fa          	endbr64 
   11eef:	55                   	push   %rbp
   11ef0:	48 89 e5             	mov    %rsp,%rbp
   11ef3:	41 57                	push   %r15
   11ef5:	41 56                	push   %r14
   11ef7:	41 55                	push   %r13
   11ef9:	41 54                	push   %r12
   11efb:	53                   	push   %rbx
   11efc:	48 81 ec 18 05 00 00 	sub    $0x518,%rsp
   11f03:	89 bd cc fa ff ff    	mov    %edi,-0x534(%rbp)
   11f09:	64 48 8b 04 25 28 00 	mov    %fs:0x28,%rax
   11f10:	00 00 
   11f12:	48 89 45 c8          	mov    %rax,-0x38(%rbp)
   11f16:	31 c0                	xor    %eax,%eax
   11f18:	48 8d 05 59 71 00 00 	lea    0x7159(%rip),%rax        # 19078 <g_106>
   11f1f:	48 89 85 10 fb ff ff 	mov    %rax,-0x4f0(%rbp)
   11f26:	48 8d 85 10 fb ff ff 	lea    -0x4f0(%rbp),%rax
   11f2d:	48 89 85 48 fb ff ff 	mov    %rax,-0x4b8(%rbp)
   11f34:	c7 85 e0 fa ff ff 00 	movl   $0x0,-0x520(%rbp)
   11f3b:	00 00 00 
   11f3e:	48 8d 05 33 71 00 00 	lea    0x7133(%rip),%rax        # 19078 <g_106>
   11f45:	48 89 85 d0 fc ff ff 	mov    %rax,-0x330(%rbp)
   11f4c:	48 c7 85 d8 fc ff ff 	movq   $0x0,-0x328(%rbp)
   11f53:	00 00 00 00 
   11f57:	48 c7 85 e0 fc ff ff 	movq   $0x0,-0x320(%rbp)
   11f5e:	00 00 00 00 
   11f62:	48 8d 05 0f 71 00 00 	lea    0x710f(%rip),%rax        # 19078 <g_106>
   11f69:	48 89 85 e8 fc ff ff 	mov    %rax,-0x318(%rbp)
   11f70:	48 8d 05 e1 73 00 00 	lea    0x73e1(%rip),%rax        # 19358 <g_1235>
   11f77:	48 89 85 f0 fc ff ff 	mov    %rax,-0x310(%rbp)
   11f7e:	48 8d 05 f3 70 00 00 	lea    0x70f3(%rip),%rax        # 19078 <g_106>
   11f85:	48 89 85 f8 fc ff ff 	mov    %rax,-0x308(%rbp)
   11f8c:	48 8d 05 e5 70 00 00 	lea    0x70e5(%rip),%rax        # 19078 <g_106>
   11f93:	48 89 85 00 fd ff ff 	mov    %rax,-0x300(%rbp)
   11f9a:	48 8d 05 b7 73 00 00 	lea    0x73b7(%rip),%rax        # 19358 <g_1235>
   11fa1:	48 89 85 08 fd ff ff 	mov    %rax,-0x2f8(%rbp)
   11fa8:	48 8d 05 c9 70 00 00 	lea    0x70c9(%rip),%rax        # 19078 <g_106>
   11faf:	48 89 85 10 fd ff ff 	mov    %rax,-0x2f0(%rbp)
   11fb6:	48 c7 85 18 fd ff ff 	movq   $0x0,-0x2e8(%rbp)
   11fbd:	00 00 00 00 
   11fc1:	48 c7 85 20 fd ff ff 	movq   $0x0,-0x2e0(%rbp)
   11fc8:	00 00 00 00 
   11fcc:	48 8d 05 a5 70 00 00 	lea    0x70a5(%rip),%rax        # 19078 <g_106>
   11fd3:	48 89 85 28 fd ff ff 	mov    %rax,-0x2d8(%rbp)
   11fda:	48 8d 05 77 73 00 00 	lea    0x7377(%rip),%rax        # 19358 <g_1235>
   11fe1:	48 89 85 30 fd ff ff 	mov    %rax,-0x2d0(%rbp)
   11fe8:	48 8d 05 69 73 00 00 	lea    0x7369(%rip),%rax        # 19358 <g_1235>
   11fef:	48 89 85 38 fd ff ff 	mov    %rax,-0x2c8(%rbp)
   11ff6:	48 c7 85 40 fd ff ff 	movq   $0x0,-0x2c0(%rbp)
   11ffd:	00 00 00 00 
   12001:	48 8d 05 70 70 00 00 	lea    0x7070(%rip),%rax        # 19078 <g_106>
   12008:	48 89 85 48 fd ff ff 	mov    %rax,-0x2b8(%rbp)
   1200f:	48 c7 85 50 fd ff ff 	movq   $0x0,-0x2b0(%rbp)
   12016:	00 00 00 00 
   1201a:	48 8d 05 37 73 00 00 	lea    0x7337(%rip),%rax        # 19358 <g_1235>
   12021:	48 89 85 58 fd ff ff 	mov    %rax,-0x2a8(%rbp)
   12028:	48 8d 85 d0 fc ff ff 	lea    -0x330(%rbp),%rax
   1202f:	48 83 c0 40          	add    $0x40,%rax
   12033:	48 89 85 50 fb ff ff 	mov    %rax,-0x4b0(%rbp)
   1203a:	48 8d 05 17 70 00 00 	lea    0x7017(%rip),%rax        # 19058 <g_65>
   12041:	48 89 85 58 fb ff ff 	mov    %rax,-0x4a8(%rbp)
   12048:	48 c7 85 60 fb ff ff 	movq   $0x0,-0x4a0(%rbp)
   1204f:	00 00 00 00 
   12053:	48 8d 85 00 fc ff ff 	lea    -0x400(%rbp),%rax
   1205a:	48 89 85 18 fb ff ff 	mov    %rax,-0x4e8(%rbp)
   12061:	48 8d 85 18 fb ff ff 	lea    -0x4e8(%rbp),%rax
   12068:	48 89 85 60 fd ff ff 	mov    %rax,-0x2a0(%rbp)
   1206f:	48 8d 85 18 fb ff ff 	lea    -0x4e8(%rbp),%rax
   12076:	48 89 85 68 fd ff ff 	mov    %rax,-0x298(%rbp)
   1207d:	48 8d 85 18 fb ff ff 	lea    -0x4e8(%rbp),%rax
   12084:	48 89 85 70 fd ff ff 	mov    %rax,-0x290(%rbp)
   1208b:	48 8d 85 18 fb ff ff 	lea    -0x4e8(%rbp),%rax
   12092:	48 89 85 78 fd ff ff 	mov    %rax,-0x288(%rbp)
   12099:	48 8d 85 18 fb ff ff 	lea    -0x4e8(%rbp),%rax
   120a0:	48 89 85 80 fd ff ff 	mov    %rax,-0x280(%rbp)
   120a7:	48 8d 85 18 fb ff ff 	lea    -0x4e8(%rbp),%rax
   120ae:	48 89 85 88 fd ff ff 	mov    %rax,-0x278(%rbp)
   120b5:	48 8d 85 18 fb ff ff 	lea    -0x4e8(%rbp),%rax
   120bc:	48 89 85 90 fd ff ff 	mov    %rax,-0x270(%rbp)
   120c3:	48 8d 85 18 fb ff ff 	lea    -0x4e8(%rbp),%rax
   120ca:	48 89 85 98 fd ff ff 	mov    %rax,-0x268(%rbp)
   120d1:	48 8d 85 18 fb ff ff 	lea    -0x4e8(%rbp),%rax
   120d8:	48 89 85 a0 fd ff ff 	mov    %rax,-0x260(%rbp)
   120df:	48 8d 85 18 fb ff ff 	lea    -0x4e8(%rbp),%rax
   120e6:	48 89 85 a8 fd ff ff 	mov    %rax,-0x258(%rbp)
   120ed:	48 8d 85 18 fb ff ff 	lea    -0x4e8(%rbp),%rax
   120f4:	48 89 85 b0 fd ff ff 	mov    %rax,-0x250(%rbp)
   120fb:	48 8d 85 18 fb ff ff 	lea    -0x4e8(%rbp),%rax
   12102:	48 89 85 b8 fd ff ff 	mov    %rax,-0x248(%rbp)
   12109:	48 8d 85 18 fb ff ff 	lea    -0x4e8(%rbp),%rax
   12110:	48 89 85 c0 fd ff ff 	mov    %rax,-0x240(%rbp)
   12117:	48 8d 85 18 fb ff ff 	lea    -0x4e8(%rbp),%rax
   1211e:	48 89 85 c8 fd ff ff 	mov    %rax,-0x238(%rbp)
   12125:	48 8d 85 18 fb ff ff 	lea    -0x4e8(%rbp),%rax
   1212c:	48 89 85 d0 fd ff ff 	mov    %rax,-0x230(%rbp)
   12133:	48 8d 85 18 fb ff ff 	lea    -0x4e8(%rbp),%rax
   1213a:	48 89 85 d8 fd ff ff 	mov    %rax,-0x228(%rbp)
   12141:	48 8d 85 18 fb ff ff 	lea    -0x4e8(%rbp),%rax
   12148:	48 89 85 e0 fd ff ff 	mov    %rax,-0x220(%rbp)
   1214f:	48 8d 85 18 fb ff ff 	lea    -0x4e8(%rbp),%rax
   12156:	48 89 85 e8 fd ff ff 	mov    %rax,-0x218(%rbp)
   1215d:	48 8d 85 18 fb ff ff 	lea    -0x4e8(%rbp),%rax
   12164:	48 89 85 f0 fd ff ff 	mov    %rax,-0x210(%rbp)
   1216b:	48 8d 85 18 fb ff ff 	lea    -0x4e8(%rbp),%rax
   12172:	48 89 85 f8 fd ff ff 	mov    %rax,-0x208(%rbp)
   12179:	48 8d 85 18 fb ff ff 	lea    -0x4e8(%rbp),%rax
   12180:	48 89 85 00 fe ff ff 	mov    %rax,-0x200(%rbp)
   12187:	48 8d 85 18 fb ff ff 	lea    -0x4e8(%rbp),%rax
   1218e:	48 89 85 08 fe ff ff 	mov    %rax,-0x1f8(%rbp)
   12195:	48 8d 85 18 fb ff ff 	lea    -0x4e8(%rbp),%rax
   1219c:	48 89 85 10 fe ff ff 	mov    %rax,-0x1f0(%rbp)
   121a3:	48 8d 85 18 fb ff ff 	lea    -0x4e8(%rbp),%rax
   121aa:	48 89 85 18 fe ff ff 	mov    %rax,-0x1e8(%rbp)
   121b1:	48 8d 85 18 fb ff ff 	lea    -0x4e8(%rbp),%rax
   121b8:	48 89 85 20 fe ff ff 	mov    %rax,-0x1e0(%rbp)
   121bf:	48 8d 85 18 fb ff ff 	lea    -0x4e8(%rbp),%rax
   121c6:	48 89 85 28 fe ff ff 	mov    %rax,-0x1d8(%rbp)
   121cd:	48 8d 85 18 fb ff ff 	lea    -0x4e8(%rbp),%rax
   121d4:	48 89 85 30 fe ff ff 	mov    %rax,-0x1d0(%rbp)
   121db:	48 8d 85 18 fb ff ff 	lea    -0x4e8(%rbp),%rax
   121e2:	48 89 85 38 fe ff ff 	mov    %rax,-0x1c8(%rbp)
   121e9:	48 8d 85 18 fb ff ff 	lea    -0x4e8(%rbp),%rax
   121f0:	48 89 85 40 fe ff ff 	mov    %rax,-0x1c0(%rbp)
   121f7:	48 8d 85 18 fb ff ff 	lea    -0x4e8(%rbp),%rax
   121fe:	48 89 85 48 fe ff ff 	mov    %rax,-0x1b8(%rbp)
   12205:	66 c7 85 d6 fa ff ff 	movw   $0x1,-0x52a(%rbp)
   1220c:	01 00 
   1220e:	66 c7 85 d8 fa ff ff 	movw   $0x1308,-0x528(%rbp)
   12215:	08 13 
   12217:	48 c7 85 20 fb ff ff 	movq   $0x0,-0x4e0(%rbp)
   1221e:	00 00 00 00 
   12222:	48 8d 85 20 fb ff ff 	lea    -0x4e0(%rbp),%rax
   12229:	48 89 85 68 fb ff ff 	mov    %rax,-0x498(%rbp)
   12230:	c6 85 d4 fa ff ff 00 	movb   $0x0,-0x52c(%rbp)
   12237:	48 8d 05 2a 8e 00 00 	lea    0x8e2a(%rip),%rax        # 1b068 <g_392+0xe8>
   1223e:	48 89 85 70 fb ff ff 	mov    %rax,-0x490(%rbp)
   12245:	c7 85 f0 fa ff ff f7 	movl   $0xfffffff7,-0x510(%rbp)
   1224c:	ff ff ff 
   1224f:	c7 85 e4 fa ff ff 07 	movl   $0xe421ca07,-0x51c(%rbp)
   12256:	ca 21 e4 
   12259:	c7 85 f4 fa ff ff fd 	movl   $0xfffffffd,-0x50c(%rbp)
   12260:	ff ff ff 
   12263:	48 8d 05 ee 6d 00 00 	lea    0x6dee(%rip),%rax        # 19058 <g_65>
   1226a:	48 89 85 78 fb ff ff 	mov    %rax,-0x488(%rbp)
   12271:	48 8d 85 e4 fa ff ff 	lea    -0x51c(%rbp),%rax
   12278:	48 89 85 80 fb ff ff 	mov    %rax,-0x480(%rbp)
   1227f:	48 8d 85 e0 fa ff ff 	lea    -0x520(%rbp),%rax
   12286:	48 89 85 88 fb ff ff 	mov    %rax,-0x478(%rbp)
   1228d:	48 8d 85 e4 fa ff ff 	lea    -0x51c(%rbp),%rax
   12294:	48 89 85 90 fb ff ff 	mov    %rax,-0x470(%rbp)
   1229b:	48 8d 05 1e 6e 00 00 	lea    0x6e1e(%rip),%rax        # 190c0 <g_186>
   122a2:	48 89 85 98 fb ff ff 	mov    %rax,-0x468(%rbp)
   122a9:	48 c7 85 a0 fb ff ff 	movq   $0x0,-0x460(%rbp)
   122b0:	00 00 00 00 
   122b4:	48 8d 05 85 6d 00 00 	lea    0x6d85(%rip),%rax        # 19040 <g_3+0x10>
   122bb:	48 89 85 50 fc ff ff 	mov    %rax,-0x3b0(%rbp)
   122c2:	48 8d 05 77 6d 00 00 	lea    0x6d77(%rip),%rax        # 19040 <g_3+0x10>
   122c9:	48 89 85 58 fc ff ff 	mov    %rax,-0x3a8(%rbp)
   122d0:	48 8d 05 69 6d 00 00 	lea    0x6d69(%rip),%rax        # 19040 <g_3+0x10>
   122d7:	48 89 85 60 fc ff ff 	mov    %rax,-0x3a0(%rbp)
   122de:	48 8d 05 5b 6d 00 00 	lea    0x6d5b(%rip),%rax        # 19040 <g_3+0x10>
   122e5:	48 89 85 68 fc ff ff 	mov    %rax,-0x398(%rbp)
   122ec:	48 8d 05 4d 6d 00 00 	lea    0x6d4d(%rip),%rax        # 19040 <g_3+0x10>
   122f3:	48 89 85 70 fc ff ff 	mov    %rax,-0x390(%rbp)
   122fa:	48 8d 05 3f 6d 00 00 	lea    0x6d3f(%rip),%rax        # 19040 <g_3+0x10>
   12301:	48 89 85 78 fc ff ff 	mov    %rax,-0x388(%rbp)
   12308:	48 8d 05 31 6d 00 00 	lea    0x6d31(%rip),%rax        # 19040 <g_3+0x10>
   1230f:	48 89 85 80 fc ff ff 	mov    %rax,-0x380(%rbp)
   12316:	c7 85 e8 fa ff ff 00 	movl   $0x0,-0x518(%rbp)
   1231d:	00 00 00 
   12320:	eb 1e                	jmp    12340 <func_56+0x455>
   12322:	8b 85 e8 fa ff ff    	mov    -0x518(%rbp),%eax
   12328:	48 98                	cltq   
   1232a:	48 8d 15 79 6d 00 00 	lea    0x6d79(%rip),%rdx        # 190aa <g_126>
   12331:	48 89 94 c5 00 fc ff 	mov    %rdx,-0x400(%rbp,%rax,8)
   12338:	ff 
   12339:	83 85 e8 fa ff ff 01 	addl   $0x1,-0x518(%rbp)
   12340:	83 bd e8 fa ff ff 01 	cmpl   $0x1,-0x518(%rbp)
   12347:	7e d9                	jle    12322 <func_56+0x437>
   12349:	c7 85 e8 fa ff ff 00 	movl   $0x0,-0x518(%rbp)
   12350:	00 00 00 
   12353:	eb 14                	jmp    12369 <func_56+0x47e>
   12355:	8b 85 e8 fa ff ff    	mov    -0x518(%rbp),%eax
   1235b:	48 98                	cltq   
   1235d:	c6 44 05 c6 ff       	movb   $0xff,-0x3a(%rbp,%rax,1)
   12362:	83 85 e8 fa ff ff 01 	addl   $0x1,-0x518(%rbp)
   12369:	83 bd e8 fa ff ff 01 	cmpl   $0x1,-0x518(%rbp)
   12370:	7e e3                	jle    12355 <func_56+0x46a>
   12372:	8b 05 bc 6d 00 00    	mov    0x6dbc(%rip),%eax        # 19134 <g_293+0x34>
   12378:	83 bd cc fa ff ff 00 	cmpl   $0x0,-0x534(%rbp)
   1237f:	75 0a                	jne    1238b <func_56+0x4a0>
   12381:	8b 85 e0 fa ff ff    	mov    -0x520(%rbp),%eax
   12387:	85 c0                	test   %eax,%eax
   12389:	74 07                	je     12392 <func_56+0x4a7>
   1238b:	b8 01 00 00 00       	mov    $0x1,%eax
   12390:	eb 05                	jmp    12397 <func_56+0x4ac>
   12392:	b8 00 00 00 00       	mov    $0x0,%eax
   12397:	0f b6 c0             	movzbl %al,%eax
   1239a:	be bb 00 00 00       	mov    $0xbb,%esi
   1239f:	89 c7                	mov    %eax,%edi
   123a1:	e8 08 58 ff ff       	callq  7bae <safe_mod_func_uint8_t_u_u>
   123a6:	8b 85 e0 fa ff ff    	mov    -0x520(%rbp),%eax
   123ac:	0f be c0             	movsbl %al,%eax
   123af:	be 59 00 00 00       	mov    $0x59,%esi
   123b4:	89 c7                	mov    %eax,%edi
   123b6:	e8 57 4e ff ff       	callq  7212 <safe_mul_func_int8_t_s_s>
   123bb:	8b 85 cc fa ff ff    	mov    -0x534(%rbp),%eax
   123c1:	83 c8 02             	or     $0x2,%eax
   123c4:	89 c2                	mov    %eax,%edx
   123c6:	48 8b 05 83 6c 00 00 	mov    0x6c83(%rip),%rax        # 19050 <g_49>
   123cd:	48 21 c2             	and    %rax,%rdx
   123d0:	b8 9e 1a a2 c3       	mov    $0xc3a21a9e,%eax
   123d5:	48 39 c2             	cmp    %rax,%rdx
   123d8:	76 24                	jbe    123fe <func_56+0x513>
   123da:	48 8d 05 17 a1 00 00 	lea    0xa117(%rip),%rax        # 1c4f8 <g_1255>
   123e1:	48 89 85 f8 fb ff ff 	mov    %rax,-0x408(%rbp)
   123e8:	48 8b 15 09 a1 00 00 	mov    0xa109(%rip),%rdx        # 1c4f8 <g_1255>
   123ef:	48 8b 85 f8 fb ff ff 	mov    -0x408(%rbp),%rax
   123f6:	48 89 10             	mov    %rdx,(%rax)
   123f9:	e9 cb 03 00 00       	jmpq   127c9 <func_56+0x8de>
   123fe:	c7 85 f8 fa ff ff 45 	movl   $0x39467245,-0x508(%rbp)
   12405:	72 46 39 
   12408:	48 c7 85 a8 fb ff ff 	movq   $0x0,-0x458(%rbp)
   1240f:	00 00 00 00 
   12413:	48 c7 85 28 fb ff ff 	movq   $0x0,-0x4d8(%rbp)
   1241a:	00 00 00 00 
   1241e:	66 c7 85 da fa ff ff 	movw   $0xd5b3,-0x526(%rbp)
   12425:	b3 d5 
   12427:	48 8d 05 b2 a0 00 00 	lea    0xa0b2(%rip),%rax        # 1c4e0 <g_1003>
   1242e:	48 89 85 b0 fb ff ff 	mov    %rax,-0x450(%rbp)
   12435:	48 8d 85 50 fe ff ff 	lea    -0x1b0(%rbp),%rax
   1243c:	48 8d 15 fd 37 00 00 	lea    0x37fd(%rip),%rdx        # 15c40 <g_2798+0xbcc>
   12443:	b9 2d 00 00 00       	mov    $0x2d,%ecx
   12448:	48 89 c7             	mov    %rax,%rdi
   1244b:	48 89 d6             	mov    %rdx,%rsi
   1244e:	f3 48 a5             	rep movsq %ds:(%rsi),%es:(%rdi)
   12451:	c6 85 d5 fa ff ff 01 	movb   $0x1,-0x52b(%rbp)
   12458:	66 c7 85 dc fa ff ff 	movw   $0x71cd,-0x524(%rbp)
   1245f:	cd 71 
   12461:	66 c7 85 de fa ff ff 	movw   $0xfff8,-0x522(%rbp)
   12468:	f8 ff 
   1246a:	c7 85 10 fc ff ff 01 	movl   $0x10d0d01,-0x3f0(%rbp)
   12471:	0d 0d 01 
   12474:	c7 85 14 fc ff ff 84 	movl   $0xdf90d84,-0x3ec(%rbp)
   1247b:	0d f9 0d 
   1247e:	c7 85 18 fc ff ff 0d 	movl   $0xf9f9010d,-0x3e8(%rbp)
   12485:	01 f9 f9 
   12488:	c7 85 1c fc ff ff 84 	movl   $0xf90d8484,-0x3e4(%rbp)
   1248f:	84 0d f9 
   12492:	48 c7 85 b8 fb ff ff 	movq   $0x0,-0x448(%rbp)
   12499:	00 00 00 00 
   1249d:	48 c7 85 c0 fb ff ff 	movq   $0x0,-0x440(%rbp)
   124a4:	00 00 00 00 
   124a8:	48 8d 05 a9 9f 00 00 	lea    0x9fa9(%rip),%rax        # 1c458 <g_79>
   124af:	48 89 85 c8 fb ff ff 	mov    %rax,-0x438(%rbp)
   124b6:	48 8d 05 9b 8a 00 00 	lea    0x8a9b(%rip),%rax        # 1af58 <g_386+0x38>
   124bd:	48 89 85 d0 fb ff ff 	mov    %rax,-0x430(%rbp)
   124c4:	c7 85 ec fa ff ff 00 	movl   $0x0,-0x514(%rbp)
   124cb:	00 00 00 
   124ce:	eb 1e                	jmp    124ee <func_56+0x603>
   124d0:	8b 85 ec fa ff ff    	mov    -0x514(%rbp),%eax
   124d6:	48 98                	cltq   
   124d8:	48 8d 15 51 6b 00 00 	lea    0x6b51(%rip),%rdx        # 19030 <g_3>
   124df:	48 89 94 c5 20 fc ff 	mov    %rdx,-0x3e0(%rbp,%rax,8)
   124e6:	ff 
   124e7:	83 85 ec fa ff ff 01 	addl   $0x1,-0x514(%rbp)
   124ee:	83 bd ec fa ff ff 04 	cmpl   $0x4,-0x514(%rbp)
   124f5:	7e d9                	jle    124d0 <func_56+0x5e5>
   124f7:	c7 85 ec fa ff ff 00 	movl   $0x0,-0x514(%rbp)
   124fe:	00 00 00 
   12501:	eb 1e                	jmp    12521 <func_56+0x636>
   12503:	8b 85 ec fa ff ff    	mov    -0x514(%rbp),%eax
   12509:	48 98                	cltq   
   1250b:	48 8d 95 10 fb ff ff 	lea    -0x4f0(%rbp),%rdx
   12512:	48 89 94 c5 90 fc ff 	mov    %rdx,-0x370(%rbp,%rax,8)
   12519:	ff 
   1251a:	83 85 ec fa ff ff 01 	addl   $0x1,-0x514(%rbp)
   12521:	83 bd ec fa ff ff 06 	cmpl   $0x6,-0x514(%rbp)
   12528:	7e d9                	jle    12503 <func_56+0x618>
   1252a:	c7 05 70 6b 00 00 09 	movl   $0x9,0x6b70(%rip)        # 190a4 <g_119>
   12531:	00 00 00 
   12534:	e9 81 00 00 00       	jmpq   125ba <func_56+0x6cf>
   12539:	48 c7 85 e8 fb ff ff 	movq   $0x0,-0x418(%rbp)
   12540:	00 00 00 00 
   12544:	48 8b 05 c5 8d 00 00 	mov    0x8dc5(%rip),%rax        # 1b310 <g_1262>
   1254b:	48 8b 95 30 fc ff ff 	mov    -0x3d0(%rbp),%rdx
   12552:	48 89 10             	mov    %rdx,(%rax)
   12555:	48 c7 05 58 6b 00 00 	movq   $0x0,0x6b58(%rip)        # 190b8 <g_180>
   1255c:	00 00 00 00 
   12560:	eb 3c                	jmp    1259e <func_56+0x6b3>
   12562:	48 8d 05 57 6b 00 00 	lea    0x6b57(%rip),%rax        # 190c0 <g_186>
   12569:	48 89 85 f0 fb ff ff 	mov    %rax,-0x410(%rbp)
   12570:	48 8b 85 30 fc ff ff 	mov    -0x3d0(%rbp),%rax
   12577:	48 89 85 f0 fb ff ff 	mov    %rax,-0x410(%rbp)
   1257e:	48 8b 05 33 6b 00 00 	mov    0x6b33(%rip),%rax        # 190b8 <g_180>
   12585:	0f b7 c0             	movzwl %ax,%eax
   12588:	be 08 00 00 00       	mov    $0x8,%esi
   1258d:	89 c7                	mov    %eax,%edi
   1258f:	e8 6b 57 ff ff       	callq  7cff <safe_add_func_uint16_t_u_u>
   12594:	0f b7 c0             	movzwl %ax,%eax
   12597:	48 89 05 1a 6b 00 00 	mov    %rax,0x6b1a(%rip)        # 190b8 <g_180>
   1259e:	48 8b 05 13 6b 00 00 	mov    0x6b13(%rip),%rax        # 190b8 <g_180>
   125a5:	48 83 f8 34          	cmp    $0x34,%rax
   125a9:	77 b7                	ja     12562 <func_56+0x677>
   125ab:	8b 05 f3 6a 00 00    	mov    0x6af3(%rip),%eax        # 190a4 <g_119>
   125b1:	83 c0 01             	add    $0x1,%eax
   125b4:	89 05 ea 6a 00 00    	mov    %eax,0x6aea(%rip)        # 190a4 <g_119>
   125ba:	8b 05 e4 6a 00 00    	mov    0x6ae4(%rip),%eax        # 190a4 <g_119>
   125c0:	83 f8 0f             	cmp    $0xf,%eax
   125c3:	0f 85 70 ff ff ff    	jne    12539 <func_56+0x64e>
   125c9:	c6 05 ec 6b 00 00 02 	movb   $0x2,0x6bec(%rip)        # 191bc <g_530>
   125d0:	e9 a2 00 00 00       	jmpq   12677 <func_56+0x78c>
   125d5:	c7 85 fc fa ff ff 00 	movl   $0x0,-0x504(%rbp)
   125dc:	00 00 00 
   125df:	c7 85 00 fb ff ff d3 	movl   $0x8d3ff4d3,-0x500(%rbp)
   125e6:	f4 3f 8d 
   125e9:	c7 85 04 fb ff ff 9b 	movl   $0xb4c8b69b,-0x4fc(%rbp)
   125f0:	b6 c8 b4 
   125f3:	c7 85 08 fb ff ff d9 	movl   $0x8b6d78d9,-0x4f8(%rbp)
   125fa:	78 6d 8b 
   125fd:	c6 85 d3 fa ff ff ff 	movb   $0xff,-0x52d(%rbp)
   12604:	c7 85 0c fb ff ff 16 	movl   $0x6d80e616,-0x4f4(%rbp)
   1260b:	e6 80 6d 
   1260e:	48 8d 05 55 6a 00 00 	lea    0x6a55(%rip),%rax        # 1906a <g_92+0xa>
   12615:	48 89 85 d8 fb ff ff 	mov    %rax,-0x428(%rbp)
   1261c:	48 8d 05 b1 6a 00 00 	lea    0x6ab1(%rip),%rax        # 190d4 <g_218>
   12623:	48 89 85 30 fb ff ff 	mov    %rax,-0x4d0(%rbp)
   1262a:	48 8d 85 30 fb ff ff 	lea    -0x4d0(%rbp),%rax
   12631:	48 89 85 38 fb ff ff 	mov    %rax,-0x4c8(%rbp)
   12638:	48 8d 85 38 fb ff ff 	lea    -0x4c8(%rbp),%rax
   1263f:	48 89 85 e0 fb ff ff 	mov    %rax,-0x420(%rbp)
   12646:	48 c7 85 40 fb ff ff 	movq   $0x0,-0x4c0(%rbp)
   1264d:	00 00 00 00 
   12651:	0f b7 85 40 fb ff ff 	movzwl -0x4c0(%rbp),%eax
   12658:	66 25 00 f0          	and    $0xf000,%ax
   1265c:	66 0d f8 0f          	or     $0xff8,%ax
   12660:	66 89 85 40 fb ff ff 	mov    %ax,-0x4c0(%rbp)
   12667:	0f b6 05 4e 6b 00 00 	movzbl 0x6b4e(%rip),%eax        # 191bc <g_530>
   1266e:	83 c0 01             	add    $0x1,%eax
   12671:	88 05 45 6b 00 00    	mov    %al,0x6b45(%rip)        # 191bc <g_530>
   12677:	0f b6 05 3e 6b 00 00 	movzbl 0x6b3e(%rip),%eax        # 191bc <g_530>
   1267e:	3c 09                	cmp    $0x9,%al
   12680:	0f 8e 4f ff ff ff    	jle    125d5 <func_56+0x6ea>
   12686:	8b 95 cc fa ff ff    	mov    -0x534(%rbp),%edx
   1268c:	48 8b 85 58 fb ff ff 	mov    -0x4a8(%rbp),%rax
   12693:	89 10                	mov    %edx,(%rax)
   12695:	8b 85 cc fa ff ff    	mov    -0x534(%rbp),%eax
   1269b:	0f bf d8             	movswl %ax,%ebx
   1269e:	8b 85 cc fa ff ff    	mov    -0x534(%rbp),%eax
   126a4:	88 05 12 6b 00 00    	mov    %al,0x6b12(%rip)        # 191bc <g_530>
   126aa:	0f b6 05 0b 6b 00 00 	movzbl 0x6b0b(%rip),%eax        # 191bc <g_530>
   126b1:	84 c0                	test   %al,%al
   126b3:	0f 85 fa 00 00 00    	jne    127b3 <func_56+0x8c8>
   126b9:	48 8b 85 18 fb ff ff 	mov    -0x4e8(%rbp),%rax
   126c0:	48 8b 00             	mov    (%rax),%rax
   126c3:	0f b7 10             	movzwl (%rax),%edx
   126c6:	48 8b 05 4b 8b 00 00 	mov    0x8b4b(%rip),%rax        # 1b218 <g_785>
   126cd:	0f b7 00             	movzwl (%rax),%eax
   126d0:	89 c1                	mov    %eax,%ecx
   126d2:	8b 85 cc fa ff ff    	mov    -0x534(%rbp),%eax
   126d8:	21 c1                	and    %eax,%ecx
   126da:	48 8b 85 18 fb ff ff 	mov    -0x4e8(%rbp),%rax
   126e1:	48 8b 00             	mov    (%rax),%rax
   126e4:	09 ca                	or     %ecx,%edx
   126e6:	66 89 10             	mov    %dx,(%rax)
   126e9:	48 8b 05 f0 8a 00 00 	mov    0x8af0(%rip),%rax        # 1b1e0 <g_474>
   126f0:	48 8b 85 58 fb ff ff 	mov    -0x4a8(%rbp),%rax
   126f7:	8b 00                	mov    (%rax),%eax
   126f9:	4c 63 e0             	movslq %eax,%r12
   126fc:	0f b7 05 a7 69 00 00 	movzwl 0x69a7(%rip),%eax        # 190aa <g_126>
   12703:	8d 50 ff             	lea    -0x1(%rax),%edx
   12706:	66 89 15 9d 69 00 00 	mov    %dx,0x699d(%rip)        # 190aa <g_126>
   1270d:	44 0f b7 f0          	movzwl %ax,%r14d
   12711:	8b 85 cc fa ff ff    	mov    -0x534(%rbp),%eax
   12717:	44 0f be e8          	movsbl %al,%r13d
   1271b:	4c 0f be bd d4 fa ff 	movsbq -0x52c(%rbp),%r15
   12722:	ff 
   12723:	83 bd cc fa ff ff 00 	cmpl   $0x0,-0x534(%rbp)
   1272a:	74 17                	je     12743 <func_56+0x858>
   1272c:	8b 05 2e 29 00 00    	mov    0x292e(%rip),%eax        # 15060 <g_1043>
   12732:	25 ff ff 07 00       	and    $0x7ffff,%eax
   12737:	83 f8 01             	cmp    $0x1,%eax
   1273a:	77 07                	ja     12743 <func_56+0x858>
   1273c:	b8 01 00 00 00       	mov    $0x1,%eax
   12741:	eb 05                	jmp    12748 <func_56+0x85d>
   12743:	b8 00 00 00 00       	mov    $0x0,%eax
   12748:	48 98                	cltq   
   1274a:	be 01 00 00 00       	mov    $0x1,%esi
   1274f:	48 89 c7             	mov    %rax,%rdi
   12752:	e8 51 51 ff ff       	callq  78a8 <safe_sub_func_int64_t_s_s>
   12757:	49 39 c7             	cmp    %rax,%r15
   1275a:	0f 9e c0             	setle  %al
   1275d:	0f b6 c0             	movzbl %al,%eax
   12760:	44 89 ee             	mov    %r13d,%esi
   12763:	89 c7                	mov    %eax,%edi
   12765:	e8 88 4a ff ff       	callq  71f2 <safe_sub_func_int8_t_s_s>
   1276a:	0f be c0             	movsbl %al,%eax
   1276d:	44 89 f2             	mov    %r14d,%edx
   12770:	31 c2                	xor    %eax,%edx
   12772:	48 8b 85 c8 fb ff ff 	mov    -0x438(%rbp),%rax
   12779:	0f b6 00             	movzbl (%rax),%eax
   1277c:	21 c2                	and    %eax,%edx
   1277e:	48 8b 85 c8 fb ff ff 	mov    -0x438(%rbp),%rax
   12785:	88 10                	mov    %dl,(%rax)
   12787:	48 83 bd 70 fb ff ff 	cmpq   $0x0,-0x490(%rbp)
   1278e:	00 
   1278f:	0f 95 c0             	setne  %al
   12792:	0f b6 c0             	movzbl %al,%eax
   12795:	4c 89 e6             	mov    %r12,%rsi
   12798:	48 89 c7             	mov    %rax,%rdi
   1279b:	e8 a1 50 ff ff       	callq  7841 <safe_add_func_int64_t_s_s>
   127a0:	be f8 ff ff ff       	mov    $0xfffffff8,%esi
   127a5:	89 c7                	mov    %eax,%edi
   127a7:	e8 24 57 ff ff       	callq  7ed0 <safe_sub_func_uint32_t_u_u>
   127ac:	b8 00 00 00 00       	mov    $0x0,%eax
   127b1:	eb 05                	jmp    127b8 <func_56+0x8cd>
   127b3:	b8 01 00 00 00       	mov    $0x1,%eax
   127b8:	98                   	cwtl   
   127b9:	89 de                	mov    %ebx,%esi
   127bb:	89 c7                	mov    %eax,%edi
   127bd:	e8 33 4c ff ff       	callq  73f5 <safe_mul_func_int16_t_s_s>
   127c2:	98                   	cwtl   
   127c3:	31 85 f0 fa ff ff    	xor    %eax,-0x510(%rbp)
   127c9:	0f b6 45 c6          	movzbl -0x3a(%rbp),%eax
   127cd:	83 e8 01             	sub    $0x1,%eax
   127d0:	88 45 c6             	mov    %al,-0x3a(%rbp)
   127d3:	48 8d 05 7e 9c 00 00 	lea    0x9c7e(%rip),%rax        # 1c458 <g_79>
   127da:	48 8b 5d c8          	mov    -0x38(%rbp),%rbx
   127de:	64 48 33 1c 25 28 00 	xor    %fs:0x28,%rbx
   127e5:	00 00 
   127e7:	74 05                	je     127ee <func_56+0x903>
   127e9:	e8 82 48 ff ff       	callq  7070 <__stack_chk_fail@plt>
   127ee:	48 81 c4 18 05 00 00 	add    $0x518,%rsp
   127f5:	5b                   	pop    %rbx
   127f6:	41 5c                	pop    %r12
   127f8:	41 5d                	pop    %r13
   127fa:	41 5e                	pop    %r14
   127fc:	41 5f                	pop    %r15
   127fe:	5d                   	pop    %rbp
   127ff:	c3                   	retq   

0000000000012800 <func_61>:
   12800:	f3 0f 1e fa          	endbr64 
   12804:	55                   	push   %rbp
   12805:	48 89 e5             	mov    %rsp,%rbp
   12808:	48 81 ec d0 06 00 00 	sub    $0x6d0,%rsp
   1280f:	48 89 bd 38 f9 ff ff 	mov    %rdi,-0x6c8(%rbp)
   12816:	64 48 8b 04 25 28 00 	mov    %fs:0x28,%rax
   1281d:	00 00 
   1281f:	48 89 45 f8          	mov    %rax,-0x8(%rbp)
   12823:	31 c0                	xor    %eax,%eax
   12825:	48 8d 05 2c 68 00 00 	lea    0x682c(%rip),%rax        # 19058 <g_65>
   1282c:	48 89 85 90 f9 ff ff 	mov    %rax,-0x670(%rbp)
   12833:	48 c7 85 98 f9 ff ff 	movq   $0x0,-0x668(%rbp)
   1283a:	00 00 00 00 
   1283e:	48 8d 85 10 fe ff ff 	lea    -0x1f0(%rbp),%rax
   12845:	48 8d 15 b4 81 00 00 	lea    0x81b4(%rip),%rdx        # 1aa00 <g_2946+0x1010>
   1284c:	b9 3c 00 00 00       	mov    $0x3c,%ecx
   12851:	48 89 c7             	mov    %rax,%rdi
   12854:	48 89 d6             	mov    %rdx,%rsi
   12857:	f3 48 a5             	rep movsq %ds:(%rsi),%es:(%rdi)
   1285a:	48 c7 85 c0 fa ff ff 	movq   $0x0,-0x540(%rbp)
   12861:	00 00 00 00 
   12865:	48 c7 85 c8 fa ff ff 	movq   $0x0,-0x538(%rbp)
   1286c:	00 00 00 00 
   12870:	48 c7 85 d0 fa ff ff 	movq   $0x0,-0x530(%rbp)
   12877:	00 00 00 00 
   1287b:	48 c7 85 d8 fa ff ff 	movq   $0x0,-0x528(%rbp)
   12882:	00 00 00 00 
   12886:	48 c7 85 e0 fa ff ff 	movq   $0x0,-0x520(%rbp)
   1288d:	00 00 00 00 
   12891:	48 c7 85 e8 fa ff ff 	movq   $0x0,-0x518(%rbp)
   12898:	00 00 00 00 
   1289c:	48 c7 85 f0 fa ff ff 	movq   $0x0,-0x510(%rbp)
   128a3:	00 00 00 00 
   128a7:	48 c7 85 f8 fa ff ff 	movq   $0x0,-0x508(%rbp)
   128ae:	00 00 00 00 
   128b2:	48 c7 85 00 fb ff ff 	movq   $0x0,-0x500(%rbp)
   128b9:	00 00 00 00 
   128bd:	48 c7 85 08 fb ff ff 	movq   $0x0,-0x4f8(%rbp)
   128c4:	00 00 00 00 
   128c8:	48 c7 85 78 f9 ff ff 	movq   $0x0,-0x688(%rbp)
   128cf:	00 00 00 00 
   128d3:	48 8d 85 78 f9 ff ff 	lea    -0x688(%rbp),%rax
   128da:	48 89 85 a0 f9 ff ff 	mov    %rax,-0x660(%rbp)
   128e1:	48 8d 05 70 9b 00 00 	lea    0x9b70(%rip),%rax        # 1c458 <g_79>
   128e8:	48 89 85 a8 f9 ff ff 	mov    %rax,-0x658(%rbp)
   128ef:	c7 85 60 f9 ff ff fe 	movl   $0xfffffffe,-0x6a0(%rbp)
   128f6:	ff ff ff 
   128f9:	66 c7 85 4e f9 ff ff 	movw   $0x7bf7,-0x6b2(%rbp)
   12900:	f7 7b 
   12902:	66 c7 85 50 f9 ff ff 	movw   $0xfffd,-0x6b0(%rbp)
   12909:	fd ff 
   1290b:	c6 85 80 fa ff ff 01 	movb   $0x1,-0x580(%rbp)
   12912:	c6 85 81 fa ff ff 76 	movb   $0x76,-0x57f(%rbp)
   12919:	c6 85 82 fa ff ff 01 	movb   $0x1,-0x57e(%rbp)
   12920:	c6 85 83 fa ff ff 76 	movb   $0x76,-0x57d(%rbp)
   12927:	c6 85 84 fa ff ff 01 	movb   $0x1,-0x57c(%rbp)
   1292e:	c6 85 85 fa ff ff 76 	movb   $0x76,-0x57b(%rbp)
   12935:	c6 85 86 fa ff ff 01 	movb   $0x1,-0x57a(%rbp)
   1293c:	c6 85 87 fa ff ff 76 	movb   $0x76,-0x579(%rbp)
   12943:	c6 85 88 fa ff ff 01 	movb   $0x1,-0x578(%rbp)
   1294a:	c6 85 89 fa ff ff 76 	movb   $0x76,-0x577(%rbp)
   12951:	c6 85 8a fa ff ff 01 	movb   $0x1,-0x576(%rbp)
   12958:	c6 85 8b fa ff ff 76 	movb   $0x76,-0x575(%rbp)
   1295f:	c6 85 8c fa ff ff 01 	movb   $0x1,-0x574(%rbp)
   12966:	c6 85 8d fa ff ff 76 	movb   $0x76,-0x573(%rbp)
   1296d:	c6 85 8e fa ff ff 01 	movb   $0x1,-0x572(%rbp)
   12974:	c6 85 8f fa ff ff 76 	movb   $0x76,-0x571(%rbp)
   1297b:	c6 85 90 fa ff ff 01 	movb   $0x1,-0x570(%rbp)
   12982:	c6 85 91 fa ff ff 76 	movb   $0x76,-0x56f(%rbp)
   12989:	c6 85 92 fa ff ff 01 	movb   $0x1,-0x56e(%rbp)
   12990:	c6 85 93 fa ff ff 76 	movb   $0x76,-0x56d(%rbp)
   12997:	c6 85 94 fa ff ff 01 	movb   $0x1,-0x56c(%rbp)
   1299e:	c6 85 95 fa ff ff 76 	movb   $0x76,-0x56b(%rbp)
   129a5:	c6 85 96 fa ff ff 01 	movb   $0x1,-0x56a(%rbp)
   129ac:	c6 85 97 fa ff ff 76 	movb   $0x76,-0x569(%rbp)
   129b3:	c6 85 98 fa ff ff 01 	movb   $0x1,-0x568(%rbp)
   129ba:	c6 85 99 fa ff ff 76 	movb   $0x76,-0x567(%rbp)
   129c1:	c6 85 9a fa ff ff 01 	movb   $0x1,-0x566(%rbp)
   129c8:	c6 85 9b fa ff ff 76 	movb   $0x76,-0x565(%rbp)
   129cf:	c6 85 9c fa ff ff 01 	movb   $0x1,-0x564(%rbp)
   129d6:	c6 85 9d fa ff ff 76 	movb   $0x76,-0x563(%rbp)
   129dd:	c6 85 9e fa ff ff 01 	movb   $0x1,-0x562(%rbp)
   129e4:	c6 85 9f fa ff ff 76 	movb   $0x76,-0x561(%rbp)
   129eb:	c6 85 a0 fa ff ff 01 	movb   $0x1,-0x560(%rbp)
   129f2:	c6 85 a1 fa ff ff 76 	movb   $0x76,-0x55f(%rbp)
   129f9:	c6 85 a2 fa ff ff 01 	movb   $0x1,-0x55e(%rbp)
   12a00:	c6 85 a3 fa ff ff 76 	movb   $0x76,-0x55d(%rbp)
   12a07:	c6 85 a4 fa ff ff 01 	movb   $0x1,-0x55c(%rbp)
   12a0e:	c6 85 a5 fa ff ff 76 	movb   $0x76,-0x55b(%rbp)
   12a15:	c6 85 a6 fa ff ff 01 	movb   $0x1,-0x55a(%rbp)
   12a1c:	c6 85 a7 fa ff ff 76 	movb   $0x76,-0x559(%rbp)
   12a23:	c6 85 a8 fa ff ff 01 	movb   $0x1,-0x558(%rbp)
   12a2a:	c6 85 a9 fa ff ff 76 	movb   $0x76,-0x557(%rbp)
   12a31:	c6 85 aa fa ff ff 01 	movb   $0x1,-0x556(%rbp)
   12a38:	c6 85 ab fa ff ff 76 	movb   $0x76,-0x555(%rbp)
   12a3f:	c6 85 ac fa ff ff 01 	movb   $0x1,-0x554(%rbp)
   12a46:	c6 85 ad fa ff ff 76 	movb   $0x76,-0x553(%rbp)
   12a4d:	c6 85 ae fa ff ff 01 	movb   $0x1,-0x552(%rbp)
   12a54:	c6 85 af fa ff ff 76 	movb   $0x76,-0x551(%rbp)
   12a5b:	c6 85 b0 fa ff ff 01 	movb   $0x1,-0x550(%rbp)
   12a62:	c6 85 b1 fa ff ff 76 	movb   $0x76,-0x54f(%rbp)
   12a69:	c6 85 b2 fa ff ff 01 	movb   $0x1,-0x54e(%rbp)
   12a70:	c6 85 b3 fa ff ff 76 	movb   $0x76,-0x54d(%rbp)
   12a77:	c6 85 b4 fa ff ff 01 	movb   $0x1,-0x54c(%rbp)
   12a7e:	c6 85 b5 fa ff ff 76 	movb   $0x76,-0x54b(%rbp)
   12a85:	c6 85 b6 fa ff ff 01 	movb   $0x1,-0x54a(%rbp)
   12a8c:	c6 85 b7 fa ff ff 76 	movb   $0x76,-0x549(%rbp)
   12a93:	c6 85 b8 fa ff ff 01 	movb   $0x1,-0x548(%rbp)
   12a9a:	c6 85 b9 fa ff ff 76 	movb   $0x76,-0x547(%rbp)
   12aa1:	c6 85 ba fa ff ff 01 	movb   $0x1,-0x546(%rbp)
   12aa8:	c6 85 bb fa ff ff 76 	movb   $0x76,-0x545(%rbp)
   12aaf:	c6 85 bc fa ff ff 01 	movb   $0x1,-0x544(%rbp)
   12ab6:	c6 85 bd fa ff ff 76 	movb   $0x76,-0x543(%rbp)
   12abd:	c6 85 be fa ff ff 01 	movb   $0x1,-0x542(%rbp)
   12ac4:	c6 85 bf fa ff ff 76 	movb   $0x76,-0x541(%rbp)
   12acb:	c7 85 64 f9 ff ff 18 	movl   $0x1ae2718,-0x69c(%rbp)
   12ad2:	27 ae 01 
   12ad5:	48 8d 85 80 fa ff ff 	lea    -0x580(%rbp),%rax
   12adc:	48 83 c0 0f          	add    $0xf,%rax
   12ae0:	48 89 85 b0 f9 ff ff 	mov    %rax,-0x650(%rbp)
   12ae7:	48 8d 95 90 fc ff ff 	lea    -0x370(%rbp),%rdx
   12aee:	b8 00 00 00 00       	mov    $0x0,%eax
   12af3:	b9 30 00 00 00       	mov    $0x30,%ecx
   12af8:	48 89 d7             	mov    %rdx,%rdi
   12afb:	f3 48 ab             	rep stos %rax,%es:(%rdi)
   12afe:	0f b7 85 90 fc ff ff 	movzwl -0x370(%rbp),%eax
   12b05:	66 25 00 f0          	and    $0xf000,%ax
   12b09:	66 0d 5c 01          	or     $0x15c,%ax
   12b0d:	66 89 85 90 fc ff ff 	mov    %ax,-0x370(%rbp)
   12b14:	0f b7 85 98 fc ff ff 	movzwl -0x368(%rbp),%eax
   12b1b:	66 25 00 f0          	and    $0xf000,%ax
   12b1f:	66 0d 07 0b          	or     $0xb07,%ax
   12b23:	66 89 85 98 fc ff ff 	mov    %ax,-0x368(%rbp)
   12b2a:	0f b7 85 a0 fc ff ff 	movzwl -0x360(%rbp),%eax
   12b31:	66 25 00 f0          	and    $0xf000,%ax
   12b35:	66 0d f0 04          	or     $0x4f0,%ax
   12b39:	66 89 85 a0 fc ff ff 	mov    %ax,-0x360(%rbp)
   12b40:	0f b7 85 a8 fc ff ff 	movzwl -0x358(%rbp),%eax
   12b47:	66 25 00 f0          	and    $0xf000,%ax
   12b4b:	66 0d f0 04          	or     $0x4f0,%ax
   12b4f:	66 89 85 a8 fc ff ff 	mov    %ax,-0x358(%rbp)
   12b56:	0f b7 85 b0 fc ff ff 	movzwl -0x350(%rbp),%eax
   12b5d:	66 25 00 f0          	and    $0xf000,%ax
   12b61:	66 0d 07 0b          	or     $0xb07,%ax
   12b65:	66 89 85 b0 fc ff ff 	mov    %ax,-0x350(%rbp)
   12b6c:	0f b7 85 b8 fc ff ff 	movzwl -0x348(%rbp),%eax
   12b73:	66 25 00 f0          	and    $0xf000,%ax
   12b77:	66 0d 5c 01          	or     $0x15c,%ax
   12b7b:	66 89 85 b8 fc ff ff 	mov    %ax,-0x348(%rbp)
   12b82:	0f b7 85 c0 fc ff ff 	movzwl -0x340(%rbp),%eax
   12b89:	66 25 00 f0          	and    $0xf000,%ax
   12b8d:	66 0d 5c 01          	or     $0x15c,%ax
   12b91:	66 89 85 c0 fc ff ff 	mov    %ax,-0x340(%rbp)
   12b98:	0f b7 85 c8 fc ff ff 	movzwl -0x338(%rbp),%eax
   12b9f:	66 25 00 f0          	and    $0xf000,%ax
   12ba3:	66 0d f0 04          	or     $0x4f0,%ax
   12ba7:	66 89 85 c8 fc ff ff 	mov    %ax,-0x338(%rbp)
   12bae:	0f b7 85 d0 fc ff ff 	movzwl -0x330(%rbp),%eax
   12bb5:	66 25 00 f0          	and    $0xf000,%ax
   12bb9:	66 0d 07 02          	or     $0x207,%ax
   12bbd:	66 89 85 d0 fc ff ff 	mov    %ax,-0x330(%rbp)
   12bc4:	0f b7 85 d8 fc ff ff 	movzwl -0x328(%rbp),%eax
   12bcb:	66 25 00 f0          	and    $0xf000,%ax
   12bcf:	66 0d 07 0b          	or     $0xb07,%ax
   12bd3:	66 89 85 d8 fc ff ff 	mov    %ax,-0x328(%rbp)
   12bda:	0f b7 85 e0 fc ff ff 	movzwl -0x320(%rbp),%eax
   12be1:	66 25 00 f0          	and    $0xf000,%ax
   12be5:	66 0d 07 0b          	or     $0xb07,%ax
   12be9:	66 89 85 e0 fc ff ff 	mov    %ax,-0x320(%rbp)
   12bf0:	0f b7 85 e8 fc ff ff 	movzwl -0x318(%rbp),%eax
   12bf7:	66 25 00 f0          	and    $0xf000,%ax
   12bfb:	66 0d 07 02          	or     $0x207,%ax
   12bff:	66 89 85 e8 fc ff ff 	mov    %ax,-0x318(%rbp)
   12c06:	0f b7 85 f0 fc ff ff 	movzwl -0x310(%rbp),%eax
   12c0d:	66 25 00 f0          	and    $0xf000,%ax
   12c11:	66 0d 07 0b          	or     $0xb07,%ax
   12c15:	66 89 85 f0 fc ff ff 	mov    %ax,-0x310(%rbp)
   12c1c:	0f b7 85 f8 fc ff ff 	movzwl -0x308(%rbp),%eax
   12c23:	66 25 00 f0          	and    $0xf000,%ax
   12c27:	66 0d 07 0b          	or     $0xb07,%ax
   12c2b:	66 89 85 f8 fc ff ff 	mov    %ax,-0x308(%rbp)
   12c32:	0f b7 85 00 fd ff ff 	movzwl -0x300(%rbp),%eax
   12c39:	66 25 00 f0          	and    $0xf000,%ax
   12c3d:	66 0d 07 02          	or     $0x207,%ax
   12c41:	66 89 85 00 fd ff ff 	mov    %ax,-0x300(%rbp)
   12c48:	0f b7 85 08 fd ff ff 	movzwl -0x2f8(%rbp),%eax
   12c4f:	66 25 00 f0          	and    $0xf000,%ax
   12c53:	66 0d f0 04          	or     $0x4f0,%ax
   12c57:	66 89 85 08 fd ff ff 	mov    %ax,-0x2f8(%rbp)
   12c5e:	0f b7 85 10 fd ff ff 	movzwl -0x2f0(%rbp),%eax
   12c65:	66 25 00 f0          	and    $0xf000,%ax
   12c69:	66 0d 5c 01          	or     $0x15c,%ax
   12c6d:	66 89 85 10 fd ff ff 	mov    %ax,-0x2f0(%rbp)
   12c74:	0f b7 85 18 fd ff ff 	movzwl -0x2e8(%rbp),%eax
   12c7b:	66 25 00 f0          	and    $0xf000,%ax
   12c7f:	66 0d 5c 01          	or     $0x15c,%ax
   12c83:	66 89 85 18 fd ff ff 	mov    %ax,-0x2e8(%rbp)
   12c8a:	0f b7 85 20 fd ff ff 	movzwl -0x2e0(%rbp),%eax
   12c91:	66 25 00 f0          	and    $0xf000,%ax
   12c95:	66 0d 07 0b          	or     $0xb07,%ax
   12c99:	66 89 85 20 fd ff ff 	mov    %ax,-0x2e0(%rbp)
   12ca0:	0f b7 85 28 fd ff ff 	movzwl -0x2d8(%rbp),%eax
   12ca7:	66 25 00 f0          	and    $0xf000,%ax
   12cab:	66 0d f0 04          	or     $0x4f0,%ax
   12caf:	66 89 85 28 fd ff ff 	mov    %ax,-0x2d8(%rbp)
   12cb6:	0f b7 85 30 fd ff ff 	movzwl -0x2d0(%rbp),%eax
   12cbd:	66 25 00 f0          	and    $0xf000,%ax
   12cc1:	66 0d f0 04          	or     $0x4f0,%ax
   12cc5:	66 89 85 30 fd ff ff 	mov    %ax,-0x2d0(%rbp)
   12ccc:	0f b7 85 38 fd ff ff 	movzwl -0x2c8(%rbp),%eax
   12cd3:	66 25 00 f0          	and    $0xf000,%ax
   12cd7:	66 0d 07 0b          	or     $0xb07,%ax
   12cdb:	66 89 85 38 fd ff ff 	mov    %ax,-0x2c8(%rbp)
   12ce2:	0f b7 85 40 fd ff ff 	movzwl -0x2c0(%rbp),%eax
   12ce9:	66 25 00 f0          	and    $0xf000,%ax
   12ced:	66 0d 5c 01          	or     $0x15c,%ax
   12cf1:	66 89 85 40 fd ff ff 	mov    %ax,-0x2c0(%rbp)
   12cf8:	0f b7 85 48 fd ff ff 	movzwl -0x2b8(%rbp),%eax
   12cff:	66 25 00 f0          	and    $0xf000,%ax
   12d03:	66 0d 07 02          	or     $0x207,%ax
   12d07:	66 89 85 48 fd ff ff 	mov    %ax,-0x2b8(%rbp)
   12d0e:	0f b7 85 50 fd ff ff 	movzwl -0x2b0(%rbp),%eax
   12d15:	66 25 00 f0          	and    $0xf000,%ax
   12d19:	66 0d 5c 01          	or     $0x15c,%ax
   12d1d:	66 89 85 50 fd ff ff 	mov    %ax,-0x2b0(%rbp)
   12d24:	0f b7 85 58 fd ff ff 	movzwl -0x2a8(%rbp),%eax
   12d2b:	66 25 00 f0          	and    $0xf000,%ax
   12d2f:	66 0d 07 0b          	or     $0xb07,%ax
   12d33:	66 89 85 58 fd ff ff 	mov    %ax,-0x2a8(%rbp)
   12d3a:	0f b7 85 60 fd ff ff 	movzwl -0x2a0(%rbp),%eax
   12d41:	66 25 00 f0          	and    $0xf000,%ax
   12d45:	66 0d f0 04          	or     $0x4f0,%ax
   12d49:	66 89 85 60 fd ff ff 	mov    %ax,-0x2a0(%rbp)
   12d50:	0f b7 85 68 fd ff ff 	movzwl -0x298(%rbp),%eax
   12d57:	66 25 00 f0          	and    $0xf000,%ax
   12d5b:	66 0d f0 04          	or     $0x4f0,%ax
   12d5f:	66 89 85 68 fd ff ff 	mov    %ax,-0x298(%rbp)
   12d66:	0f b7 85 70 fd ff ff 	movzwl -0x290(%rbp),%eax
   12d6d:	66 25 00 f0          	and    $0xf000,%ax
   12d71:	66 0d 07 0b          	or     $0xb07,%ax
   12d75:	66 89 85 70 fd ff ff 	mov    %ax,-0x290(%rbp)
   12d7c:	0f b7 85 78 fd ff ff 	movzwl -0x288(%rbp),%eax
   12d83:	66 25 00 f0          	and    $0xf000,%ax
   12d87:	66 0d 5c 01          	or     $0x15c,%ax
   12d8b:	66 89 85 78 fd ff ff 	mov    %ax,-0x288(%rbp)
   12d92:	0f b7 85 80 fd ff ff 	movzwl -0x280(%rbp),%eax
   12d99:	66 25 00 f0          	and    $0xf000,%ax
   12d9d:	66 0d 5c 01          	or     $0x15c,%ax
   12da1:	66 89 85 80 fd ff ff 	mov    %ax,-0x280(%rbp)
   12da8:	0f b7 85 88 fd ff ff 	movzwl -0x278(%rbp),%eax
   12daf:	66 25 00 f0          	and    $0xf000,%ax
   12db3:	66 0d f0 04          	or     $0x4f0,%ax
   12db7:	66 89 85 88 fd ff ff 	mov    %ax,-0x278(%rbp)
   12dbe:	0f b7 85 90 fd ff ff 	movzwl -0x270(%rbp),%eax
   12dc5:	66 25 00 f0          	and    $0xf000,%ax
   12dc9:	66 0d 07 02          	or     $0x207,%ax
   12dcd:	66 89 85 90 fd ff ff 	mov    %ax,-0x270(%rbp)
   12dd4:	0f b7 85 98 fd ff ff 	movzwl -0x268(%rbp),%eax
   12ddb:	66 25 00 f0          	and    $0xf000,%ax
   12ddf:	66 0d 07 0b          	or     $0xb07,%ax
   12de3:	66 89 85 98 fd ff ff 	mov    %ax,-0x268(%rbp)
   12dea:	0f b7 85 a0 fd ff ff 	movzwl -0x260(%rbp),%eax
   12df1:	66 25 00 f0          	and    $0xf000,%ax
   12df5:	66 0d 07 0b          	or     $0xb07,%ax
   12df9:	66 89 85 a0 fd ff ff 	mov    %ax,-0x260(%rbp)
   12e00:	0f b7 85 a8 fd ff ff 	movzwl -0x258(%rbp),%eax
   12e07:	66 25 00 f0          	and    $0xf000,%ax
   12e0b:	66 0d 07 02          	or     $0x207,%ax
   12e0f:	66 89 85 a8 fd ff ff 	mov    %ax,-0x258(%rbp)
   12e16:	0f b7 85 b0 fd ff ff 	movzwl -0x250(%rbp),%eax
   12e1d:	66 25 00 f0          	and    $0xf000,%ax
   12e21:	66 0d 07 0b          	or     $0xb07,%ax
   12e25:	66 89 85 b0 fd ff ff 	mov    %ax,-0x250(%rbp)
   12e2c:	0f b7 85 b8 fd ff ff 	movzwl -0x248(%rbp),%eax
   12e33:	66 25 00 f0          	and    $0xf000,%ax
   12e37:	66 0d 07 0b          	or     $0xb07,%ax
   12e3b:	66 89 85 b8 fd ff ff 	mov    %ax,-0x248(%rbp)
   12e42:	0f b7 85 c0 fd ff ff 	movzwl -0x240(%rbp),%eax
   12e49:	66 25 00 f0          	and    $0xf000,%ax
   12e4d:	66 0d 07 02          	or     $0x207,%ax
   12e51:	66 89 85 c0 fd ff ff 	mov    %ax,-0x240(%rbp)
   12e58:	0f b7 85 c8 fd ff ff 	movzwl -0x238(%rbp),%eax
   12e5f:	66 25 00 f0          	and    $0xf000,%ax
   12e63:	66 0d f0 04          	or     $0x4f0,%ax
   12e67:	66 89 85 c8 fd ff ff 	mov    %ax,-0x238(%rbp)
   12e6e:	0f b7 85 d0 fd ff ff 	movzwl -0x230(%rbp),%eax
   12e75:	66 25 00 f0          	and    $0xf000,%ax
   12e79:	66 0d 5c 01          	or     $0x15c,%ax
   12e7d:	66 89 85 d0 fd ff ff 	mov    %ax,-0x230(%rbp)
   12e84:	0f b7 85 d8 fd ff ff 	movzwl -0x228(%rbp),%eax
   12e8b:	66 25 00 f0          	and    $0xf000,%ax
   12e8f:	66 0d 5c 01          	or     $0x15c,%ax
   12e93:	66 89 85 d8 fd ff ff 	mov    %ax,-0x228(%rbp)
   12e9a:	0f b7 85 e0 fd ff ff 	movzwl -0x220(%rbp),%eax
   12ea1:	66 25 00 f0          	and    $0xf000,%ax
   12ea5:	66 0d 07 0b          	or     $0xb07,%ax
   12ea9:	66 89 85 e0 fd ff ff 	mov    %ax,-0x220(%rbp)
   12eb0:	0f b7 85 e8 fd ff ff 	movzwl -0x218(%rbp),%eax
   12eb7:	66 25 00 f0          	and    $0xf000,%ax
   12ebb:	66 0d f0 04          	or     $0x4f0,%ax
   12ebf:	66 89 85 e8 fd ff ff 	mov    %ax,-0x218(%rbp)
   12ec6:	0f b7 85 f0 fd ff ff 	movzwl -0x210(%rbp),%eax
   12ecd:	66 25 00 f0          	and    $0xf000,%ax
   12ed1:	66 0d f0 04          	or     $0x4f0,%ax
   12ed5:	66 89 85 f0 fd ff ff 	mov    %ax,-0x210(%rbp)
   12edc:	0f b7 85 f8 fd ff ff 	movzwl -0x208(%rbp),%eax
   12ee3:	66 25 00 f0          	and    $0xf000,%ax
   12ee7:	66 0d 07 0b          	or     $0xb07,%ax
   12eeb:	66 89 85 f8 fd ff ff 	mov    %ax,-0x208(%rbp)
   12ef2:	0f b7 85 00 fe ff ff 	movzwl -0x200(%rbp),%eax
   12ef9:	66 25 00 f0          	and    $0xf000,%ax
   12efd:	66 0d 5c 01          	or     $0x15c,%ax
   12f01:	66 89 85 00 fe ff ff 	mov    %ax,-0x200(%rbp)
   12f08:	0f b7 85 08 fe ff ff 	movzwl -0x1f8(%rbp),%eax
   12f0f:	66 25 00 f0          	and    $0xf000,%ax
   12f13:	66 0d 07 02          	or     $0x207,%ax
   12f17:	66 89 85 08 fe ff ff 	mov    %ax,-0x1f8(%rbp)
   12f1e:	48 8d 05 4b 95 00 00 	lea    0x954b(%rip),%rax        # 1c470 <g_195>
   12f25:	48 89 85 b8 f9 ff ff 	mov    %rax,-0x648(%rbp)
   12f2c:	66 c7 85 10 fb ff ff 	movw   $0xf46,-0x4f0(%rbp)
   12f33:	46 0f 
   12f35:	66 c7 85 12 fb ff ff 	movw   $0x80c1,-0x4ee(%rbp)
   12f3c:	c1 80 
   12f3e:	66 c7 85 14 fb ff ff 	movw   $0x6344,-0x4ec(%rbp)
   12f45:	44 63 
   12f47:	66 c7 85 16 fb ff ff 	movw   $0x6344,-0x4ea(%rbp)
   12f4e:	44 63 
   12f50:	66 c7 85 18 fb ff ff 	movw   $0x80c1,-0x4e8(%rbp)
   12f57:	c1 80 
   12f59:	66 c7 85 1a fb ff ff 	movw   $0xf46,-0x4e6(%rbp)
   12f60:	46 0f 
   12f62:	66 c7 85 1c fb ff ff 	movw   $0x80c1,-0x4e4(%rbp)
   12f69:	c1 80 
   12f6b:	66 c7 85 1e fb ff ff 	movw   $0x6344,-0x4e2(%rbp)
   12f72:	44 63 
   12f74:	66 c7 85 20 fb ff ff 	movw   $0x6344,-0x4e0(%rbp)
   12f7b:	44 63 
   12f7d:	66 c7 85 22 fb ff ff 	movw   $0x9,-0x4de(%rbp)
   12f84:	09 00 
   12f86:	66 c7 85 24 fb ff ff 	movw   $0x1,-0x4dc(%rbp)
   12f8d:	01 00 
   12f8f:	66 c7 85 26 fb ff ff 	movw   $0x58d0,-0x4da(%rbp)
   12f96:	d0 58 
   12f98:	66 c7 85 28 fb ff ff 	movw   $0x8,-0x4d8(%rbp)
   12f9f:	08 00 
   12fa1:	66 c7 85 2a fb ff ff 	movw   $0x58d0,-0x4d6(%rbp)
   12fa8:	d0 58 
   12faa:	66 c7 85 2c fb ff ff 	movw   $0x1,-0x4d4(%rbp)
   12fb1:	01 00 
   12fb3:	66 c7 85 2e fb ff ff 	movw   $0x9819,-0x4d2(%rbp)
   12fba:	19 98 
   12fbc:	66 c7 85 30 fb ff ff 	movw   $0xfff9,-0x4d0(%rbp)
   12fc3:	f9 ff 
   12fc5:	66 c7 85 32 fb ff ff 	movw   $0x5190,-0x4ce(%rbp)
   12fcc:	90 51 
   12fce:	66 c7 85 34 fb ff ff 	movw   $0x6344,-0x4cc(%rbp)
   12fd5:	44 63 
   12fd7:	66 c7 85 36 fb ff ff 	movw   $0x29a3,-0x4ca(%rbp)
   12fde:	a3 29 
   12fe0:	66 c7 85 38 fb ff ff 	movw   $0x6344,-0x4c8(%rbp)
   12fe7:	44 63 
   12fe9:	66 c7 85 3a fb ff ff 	movw   $0x0,-0x4c6(%rbp)
   12ff0:	00 00 
   12ff2:	66 c7 85 3c fb ff ff 	movw   $0x0,-0x4c4(%rbp)
   12ff9:	00 00 
   12ffb:	66 c7 85 3e fb ff ff 	movw   $0x6344,-0x4c2(%rbp)
   13002:	44 63 
   13004:	66 c7 85 40 fb ff ff 	movw   $0x29a3,-0x4c0(%rbp)
   1300b:	a3 29 
   1300d:	66 c7 85 42 fb ff ff 	movw   $0x6344,-0x4be(%rbp)
   13014:	44 63 
   13016:	66 c7 85 44 fb ff ff 	movw   $0x0,-0x4bc(%rbp)
   1301d:	00 00 
   1301f:	66 c7 85 46 fb ff ff 	movw   $0x3a79,-0x4ba(%rbp)
   13026:	79 3a 
   13028:	66 c7 85 48 fb ff ff 	movw   $0xfff9,-0x4b8(%rbp)
   1302f:	f9 ff 
   13031:	66 c7 85 4a fb ff ff 	movw   $0x58d0,-0x4b6(%rbp)
   13038:	d0 58 
   1303a:	66 c7 85 4c fb ff ff 	movw   $0x6,-0x4b4(%rbp)
   13041:	06 00 
   13043:	66 c7 85 4e fb ff ff 	movw   $0x9,-0x4b2(%rbp)
   1304a:	09 00 
   1304c:	66 c7 85 50 fb ff ff 	movw   $0x6,-0x4b0(%rbp)
   13053:	06 00 
   13055:	66 c7 85 52 fb ff ff 	movw   $0x58d0,-0x4ae(%rbp)
   1305c:	d0 58 
   1305e:	66 c7 85 54 fb ff ff 	movw   $0xfff9,-0x4ac(%rbp)
   13065:	f9 ff 
   13067:	66 c7 85 56 fb ff ff 	movw   $0x3a79,-0x4aa(%rbp)
   1306e:	79 3a 
   13070:	66 c7 85 58 fb ff ff 	movw   $0xf46,-0x4a8(%rbp)
   13077:	46 0f 
   13079:	66 c7 85 5a fb ff ff 	movw   $0x0,-0x4a6(%rbp)
   13080:	00 00 
   13082:	66 c7 85 5c fb ff ff 	movw   $0x80c1,-0x4a4(%rbp)
   13089:	c1 80 
   1308b:	66 c7 85 5e fb ff ff 	movw   $0x0,-0x4a2(%rbp)
   13092:	00 00 
   13094:	66 c7 85 60 fb ff ff 	movw   $0xf46,-0x4a0(%rbp)
   1309b:	46 0f 
   1309d:	66 c7 85 62 fb ff ff 	movw   $0xf46,-0x49e(%rbp)
   130a4:	46 0f 
   130a6:	66 c7 85 64 fb ff ff 	movw   $0x0,-0x49c(%rbp)
   130ad:	00 00 
   130af:	66 c7 85 66 fb ff ff 	movw   $0x80c1,-0x49a(%rbp)
   130b6:	c1 80 
   130b8:	66 c7 85 68 fb ff ff 	movw   $0x0,-0x498(%rbp)
   130bf:	00 00 
   130c1:	66 c7 85 6a fb ff ff 	movw   $0x58d0,-0x496(%rbp)
   130c8:	d0 58 
   130ca:	66 c7 85 6c fb ff ff 	movw   $0x1,-0x494(%rbp)
   130d1:	01 00 
   130d3:	66 c7 85 6e fb ff ff 	movw   $0x5190,-0x492(%rbp)
   130da:	90 51 
   130dc:	66 c7 85 70 fb ff ff 	movw   $0x8,-0x490(%rbp)
   130e3:	08 00 
   130e5:	66 c7 85 72 fb ff ff 	movw   $0x9,-0x48e(%rbp)
   130ec:	09 00 
   130ee:	66 c7 85 74 fb ff ff 	movw   $0xfff9,-0x48c(%rbp)
   130f5:	f9 ff 
   130f7:	66 c7 85 76 fb ff ff 	movw   $0x9,-0x48a(%rbp)
   130fe:	09 00 
   13100:	66 c7 85 78 fb ff ff 	movw   $0x8,-0x488(%rbp)
   13107:	08 00 
   13109:	66 c7 85 7a fb ff ff 	movw   $0x5190,-0x486(%rbp)
   13110:	90 51 
   13112:	66 c7 85 7c fb ff ff 	movw   $0xf46,-0x484(%rbp)
   13119:	46 0f 
   1311b:	66 c7 85 7e fb ff ff 	movw   $0xf46,-0x482(%rbp)
   13122:	46 0f 
   13124:	66 c7 85 80 fb ff ff 	movw   $0x0,-0x480(%rbp)
   1312b:	00 00 
   1312d:	66 c7 85 82 fb ff ff 	movw   $0x80c1,-0x47e(%rbp)
   13134:	c1 80 
   13136:	66 c7 85 84 fb ff ff 	movw   $0x0,-0x47c(%rbp)
   1313d:	00 00 
   1313f:	66 c7 85 86 fb ff ff 	movw   $0xf46,-0x47a(%rbp)
   13146:	46 0f 
   13148:	66 c7 85 88 fb ff ff 	movw   $0xf46,-0x478(%rbp)
   1314f:	46 0f 
   13151:	66 c7 85 8a fb ff ff 	movw   $0x0,-0x476(%rbp)
   13158:	00 00 
   1315a:	66 c7 85 8c fb ff ff 	movw   $0x80c1,-0x474(%rbp)
   13161:	c1 80 
   13163:	66 c7 85 8e fb ff ff 	movw   $0x3a79,-0x472(%rbp)
   1316a:	79 3a 
   1316c:	66 c7 85 90 fb ff ff 	movw   $0x1,-0x470(%rbp)
   13173:	01 00 
   13175:	66 c7 85 92 fb ff ff 	movw   $0x3a79,-0x46e(%rbp)
   1317c:	79 3a 
   1317e:	66 c7 85 94 fb ff ff 	movw   $0xfff9,-0x46c(%rbp)
   13185:	f9 ff 
   13187:	66 c7 85 96 fb ff ff 	movw   $0x58d0,-0x46a(%rbp)
   1318e:	d0 58 
   13190:	66 c7 85 98 fb ff ff 	movw   $0x6,-0x468(%rbp)
   13197:	06 00 
   13199:	66 c7 85 9a fb ff ff 	movw   $0x9,-0x466(%rbp)
   131a0:	09 00 
   131a2:	66 c7 85 9c fb ff ff 	movw   $0x6,-0x464(%rbp)
   131a9:	06 00 
   131ab:	66 c7 85 9e fb ff ff 	movw   $0x58d0,-0x462(%rbp)
   131b2:	d0 58 
   131b4:	66 c7 85 a0 fb ff ff 	movw   $0x6344,-0x460(%rbp)
   131bb:	44 63 
   131bd:	66 c7 85 a2 fb ff ff 	movw   $0x0,-0x45e(%rbp)
   131c4:	00 00 
   131c6:	66 c7 85 a4 fb ff ff 	movw   $0x0,-0x45c(%rbp)
   131cd:	00 00 
   131cf:	66 c7 85 a6 fb ff ff 	movw   $0x6344,-0x45a(%rbp)
   131d6:	44 63 
   131d8:	66 c7 85 a8 fb ff ff 	movw   $0x29a3,-0x458(%rbp)
   131df:	a3 29 
   131e1:	66 c7 85 aa fb ff ff 	movw   $0x6344,-0x456(%rbp)
   131e8:	44 63 
   131ea:	66 c7 85 ac fb ff ff 	movw   $0x0,-0x454(%rbp)
   131f1:	00 00 
   131f3:	66 c7 85 ae fb ff ff 	movw   $0x0,-0x452(%rbp)
   131fa:	00 00 
   131fc:	66 c7 85 b0 fb ff ff 	movw   $0x6344,-0x450(%rbp)
   13203:	44 63 
   13205:	48 8d 05 6c 5e 00 00 	lea    0x5e6c(%rip),%rax        # 19078 <g_106>
   1320c:	48 89 85 80 f9 ff ff 	mov    %rax,-0x680(%rbp)
   13213:	48 8d 85 80 f9 ff ff 	lea    -0x680(%rbp),%rax
   1321a:	48 89 85 c0 f9 ff ff 	mov    %rax,-0x640(%rbp)
   13221:	c6 85 2b fa ff ff f9 	movb   $0xf9,-0x5d5(%rbp)
   13228:	c6 85 2c fa ff ff f9 	movb   $0xf9,-0x5d4(%rbp)
   1322f:	c6 85 2d fa ff ff f9 	movb   $0xf9,-0x5d3(%rbp)
   13236:	c6 85 2e fa ff ff f9 	movb   $0xf9,-0x5d2(%rbp)
   1323d:	c6 85 2f fa ff ff f9 	movb   $0xf9,-0x5d1(%rbp)
   13244:	c7 85 68 f9 ff ff 74 	movl   $0x16844674,-0x698(%rbp)
   1324b:	46 84 16 
   1324e:	48 c7 85 c8 f9 ff ff 	movq   $0x0,-0x638(%rbp)
   13255:	00 00 00 00 
   13259:	48 b8 2f 25 dd fc 2f 	movabs $0x1e5b1f2ffcdd252f,%rax
   13260:	1f 5b 1e 
   13263:	48 89 85 d0 f9 ff ff 	mov    %rax,-0x630(%rbp)
   1326a:	c7 85 6c f9 ff ff 00 	movl   $0x0,-0x694(%rbp)
   13271:	00 00 00 
   13274:	48 8d 05 2d 5e 00 00 	lea    0x5e2d(%rip),%rax        # 190a8 <g_121>
   1327b:	48 89 85 d8 f9 ff ff 	mov    %rax,-0x628(%rbp)
   13282:	c6 85 4a f9 ff ff fc 	movb   $0xfc,-0x6b6(%rbp)
   13289:	66 c7 85 52 f9 ff ff 	movw   $0xa4dd,-0x6ae(%rbp)
   13290:	dd a4 
   13292:	c6 85 4b f9 ff ff 76 	movb   $0x76,-0x6b5(%rbp)
   13299:	c6 85 4c f9 ff ff 02 	movb   $0x2,-0x6b4(%rbp)
   132a0:	48 c7 85 e0 f9 ff ff 	movq   $0x0,-0x620(%rbp)
   132a7:	00 00 00 00 
   132ab:	48 c7 85 e8 f9 ff ff 	movq   $0x0,-0x618(%rbp)
   132b2:	00 00 00 00 
   132b6:	66 c7 85 54 f9 ff ff 	movw   $0xfffb,-0x6ac(%rbp)
   132bd:	fb ff 
   132bf:	48 8d 05 42 7f 00 00 	lea    0x7f42(%rip),%rax        # 1b208 <g_497>
   132c6:	48 89 85 f0 f9 ff ff 	mov    %rax,-0x610(%rbp)
   132cd:	c7 85 30 fa ff ff 0f 	movl   $0xb5ab860f,-0x5d0(%rbp)
   132d4:	86 ab b5 
   132d7:	c7 85 34 fa ff ff 0f 	movl   $0xb5ab860f,-0x5cc(%rbp)
   132de:	86 ab b5 
   132e1:	c7 85 38 fa ff ff 0f 	movl   $0xb5ab860f,-0x5c8(%rbp)
   132e8:	86 ab b5 
   132eb:	c7 85 3c fa ff ff 0f 	movl   $0xb5ab860f,-0x5c4(%rbp)
   132f2:	86 ab b5 
   132f5:	c7 85 40 fa ff ff 0f 	movl   $0xb5ab860f,-0x5c0(%rbp)
   132fc:	86 ab b5 
   132ff:	c7 85 44 fa ff ff 0f 	movl   $0xb5ab860f,-0x5bc(%rbp)
   13306:	86 ab b5 
   13309:	c7 85 48 fa ff ff 0f 	movl   $0xb5ab860f,-0x5b8(%rbp)
   13310:	86 ab b5 
   13313:	c7 85 4c fa ff ff 0f 	movl   $0xb5ab860f,-0x5b4(%rbp)
   1331a:	86 ab b5 
   1331d:	48 c7 85 f8 f9 ff ff 	movq   $0x7,-0x608(%rbp)
   13324:	07 00 00 00 
   13328:	c7 85 c0 fb ff ff ff 	movl   $0xffffffff,-0x440(%rbp)
   1332f:	ff ff ff 
   13332:	c7 85 c4 fb ff ff ff 	movl   $0xffffffff,-0x43c(%rbp)
   13339:	ff ff ff 
   1333c:	c7 85 c8 fb ff ff 1a 	movl   $0x69b44b1a,-0x438(%rbp)
   13343:	4b b4 69 
   13346:	c7 85 cc fb ff ff 4a 	movl   $0xc764604a,-0x434(%rbp)
   1334d:	60 64 c7 
   13350:	c7 85 d0 fb ff ff 1a 	movl   $0x69b44b1a,-0x430(%rbp)
   13357:	4b b4 69 
   1335a:	c7 85 d4 fb ff ff ec 	movl   $0x398283ec,-0x42c(%rbp)
   13361:	83 82 39 
   13364:	c7 85 d8 fb ff ff 43 	movl   $0x1f93cc43,-0x428(%rbp)
   1336b:	cc 93 1f 
   1336e:	c7 85 dc fb ff ff fe 	movl   $0xfffffffe,-0x424(%rbp)
   13375:	ff ff ff 
   13378:	c7 85 e0 fb ff ff 01 	movl   $0x1,-0x420(%rbp)
   1337f:	00 00 00 
   13382:	c7 85 e4 fb ff ff fe 	movl   $0xfffffffe,-0x41c(%rbp)
   13389:	ff ff ff 
   1338c:	c7 85 e8 fb ff ff ff 	movl   $0xffffffff,-0x418(%rbp)
   13393:	ff ff ff 
   13396:	c7 85 ec fb ff ff ff 	movl   $0xffffffff,-0x414(%rbp)
   1339d:	ff ff ff 
   133a0:	c7 85 f0 fb ff ff 1a 	movl   $0x69b44b1a,-0x410(%rbp)
   133a7:	4b b4 69 
   133aa:	c7 85 f4 fb ff ff 4a 	movl   $0xc764604a,-0x40c(%rbp)
   133b1:	60 64 c7 
   133b4:	c7 85 f8 fb ff ff 1a 	movl   $0x69b44b1a,-0x408(%rbp)
   133bb:	4b b4 69 
   133be:	c7 85 fc fb ff ff ec 	movl   $0x398283ec,-0x404(%rbp)
   133c5:	83 82 39 
   133c8:	c7 85 00 fc ff ff 43 	movl   $0x1f93cc43,-0x400(%rbp)
   133cf:	cc 93 1f 
   133d2:	c7 85 04 fc ff ff fe 	movl   $0xfffffffe,-0x3fc(%rbp)
   133d9:	ff ff ff 
   133dc:	c7 85 08 fc ff ff 01 	movl   $0x1,-0x3f8(%rbp)
   133e3:	00 00 00 
   133e6:	c7 85 0c fc ff ff fe 	movl   $0xfffffffe,-0x3f4(%rbp)
   133ed:	ff ff ff 
   133f0:	c7 85 10 fc ff ff ff 	movl   $0xffffffff,-0x3f0(%rbp)
   133f7:	ff ff ff 
   133fa:	c7 85 14 fc ff ff ff 	movl   $0xffffffff,-0x3ec(%rbp)
   13401:	ff ff ff 
   13404:	c7 85 18 fc ff ff 1a 	movl   $0x69b44b1a,-0x3e8(%rbp)
   1340b:	4b b4 69 
   1340e:	c7 85 1c fc ff ff 4a 	movl   $0xc764604a,-0x3e4(%rbp)
   13415:	60 64 c7 
   13418:	c7 85 20 fc ff ff 1a 	movl   $0x69b44b1a,-0x3e0(%rbp)
   1341f:	4b b4 69 
   13422:	c7 85 24 fc ff ff ec 	movl   $0x398283ec,-0x3dc(%rbp)
   13429:	83 82 39 
   1342c:	c7 85 28 fc ff ff 43 	movl   $0x1f93cc43,-0x3d8(%rbp)
   13433:	cc 93 1f 
   13436:	c7 85 2c fc ff ff fe 	movl   $0xfffffffe,-0x3d4(%rbp)
   1343d:	ff ff ff 
   13440:	c7 85 30 fc ff ff 01 	movl   $0x1,-0x3d0(%rbp)
   13447:	00 00 00 
   1344a:	c7 85 34 fc ff ff fe 	movl   $0xfffffffe,-0x3cc(%rbp)
   13451:	ff ff ff 
   13454:	c7 85 38 fc ff ff ff 	movl   $0xffffffff,-0x3c8(%rbp)
   1345b:	ff ff ff 
   1345e:	c7 85 3c fc ff ff ff 	movl   $0xffffffff,-0x3c4(%rbp)
   13465:	ff ff ff 
   13468:	c7 85 40 fc ff ff 1a 	movl   $0x69b44b1a,-0x3c0(%rbp)
   1346f:	4b b4 69 
   13472:	c7 85 44 fc ff ff 4a 	movl   $0xc764604a,-0x3bc(%rbp)
   13479:	60 64 c7 
   1347c:	c7 85 48 fc ff ff 1a 	movl   $0x69b44b1a,-0x3b8(%rbp)
   13483:	4b b4 69 
   13486:	c7 85 4c fc ff ff ec 	movl   $0x398283ec,-0x3b4(%rbp)
   1348d:	83 82 39 
   13490:	c7 85 50 fc ff ff 43 	movl   $0x1f93cc43,-0x3b0(%rbp)
   13497:	cc 93 1f 
   1349a:	c7 85 54 fc ff ff fe 	movl   $0xfffffffe,-0x3ac(%rbp)
   134a1:	ff ff ff 
   134a4:	c7 85 58 fc ff ff 01 	movl   $0x1,-0x3a8(%rbp)
   134ab:	00 00 00 
   134ae:	c7 85 5c fc ff ff fe 	movl   $0xfffffffe,-0x3a4(%rbp)
   134b5:	ff ff ff 
   134b8:	c7 85 60 fc ff ff ff 	movl   $0xffffffff,-0x3a0(%rbp)
   134bf:	ff ff ff 
   134c2:	c7 85 64 fc ff ff ff 	movl   $0xffffffff,-0x39c(%rbp)
   134c9:	ff ff ff 
   134cc:	c7 85 68 fc ff ff 1a 	movl   $0x69b44b1a,-0x398(%rbp)
   134d3:	4b b4 69 
   134d6:	c7 85 6c fc ff ff 4a 	movl   $0xc764604a,-0x394(%rbp)
   134dd:	60 64 c7 
   134e0:	c7 85 70 fc ff ff 1a 	movl   $0x69b44b1a,-0x390(%rbp)
   134e7:	4b b4 69 
   134ea:	c7 85 74 fc ff ff ec 	movl   $0x398283ec,-0x38c(%rbp)
   134f1:	83 82 39 
   134f4:	c7 85 78 fc ff ff 43 	movl   $0x1f93cc43,-0x388(%rbp)
   134fb:	cc 93 1f 
   134fe:	c7 85 7c fc ff ff fe 	movl   $0xfffffffe,-0x384(%rbp)
   13505:	ff ff ff 
   13508:	c7 85 80 fc ff ff 01 	movl   $0x1,-0x380(%rbp)
   1350f:	00 00 00 
   13512:	c7 85 84 fc ff ff fe 	movl   $0xfffffffe,-0x37c(%rbp)
   13519:	ff ff ff 
   1351c:	48 c7 85 00 fa ff ff 	movq   $0x9,-0x600(%rbp)
   13523:	09 00 00 00 
   13527:	48 8d 05 52 8f 00 00 	lea    0x8f52(%rip),%rax        # 1c480 <g_264>
   1352e:	48 89 85 08 fa ff ff 	mov    %rax,-0x5f8(%rbp)
   13535:	48 8d 05 1c 5b 00 00 	lea    0x5b1c(%rip),%rax        # 19058 <g_65>
   1353c:	48 89 85 10 fa ff ff 	mov    %rax,-0x5f0(%rbp)
   13543:	66 c7 85 56 f9 ff ff 	movw   $0xffff,-0x6aa(%rbp)
   1354a:	ff ff 
   1354c:	48 c7 85 88 f9 ff ff 	movq   $0x0,-0x678(%rbp)
   13553:	00 00 00 00 
   13557:	48 8d 85 88 f9 ff ff 	lea    -0x678(%rbp),%rax
   1355e:	48 89 85 18 fa ff ff 	mov    %rax,-0x5e8(%rbp)
   13565:	48 c7 85 20 fa ff ff 	movq   $0x0,-0x5e0(%rbp)
   1356c:	00 00 00 00 
   13570:	c7 85 70 f9 ff ff 00 	movl   $0x0,-0x690(%rbp)
   13577:	00 00 00 
   1357a:	c6 85 4d f9 ff ff 03 	movb   $0x3,-0x6b3(%rbp)
   13581:	c7 85 74 f9 ff ff 65 	movl   $0x459d7d65,-0x68c(%rbp)
   13588:	7d 9d 45 
   1358b:	c7 85 58 f9 ff ff 00 	movl   $0x0,-0x6a8(%rbp)
   13592:	00 00 00 
   13595:	eb 46                	jmp    135dd <func_61+0xddd>
   13597:	c7 85 5c f9 ff ff 00 	movl   $0x0,-0x6a4(%rbp)
   1359e:	00 00 00 
   135a1:	eb 2a                	jmp    135cd <func_61+0xdcd>
   135a3:	8b 85 5c f9 ff ff    	mov    -0x6a4(%rbp),%eax
   135a9:	48 63 d0             	movslq %eax,%rdx
   135ac:	8b 85 58 f9 ff ff    	mov    -0x6a8(%rbp),%eax
   135b2:	48 98                	cltq   
   135b4:	48 01 d0             	add    %rdx,%rax
   135b7:	48 8d 15 ea 5a 00 00 	lea    0x5aea(%rip),%rdx        # 190a8 <g_121>
   135be:	48 89 94 c5 50 fa ff 	mov    %rdx,-0x5b0(%rbp,%rax,8)
   135c5:	ff 
   135c6:	83 85 5c f9 ff ff 01 	addl   $0x1,-0x6a4(%rbp)
   135cd:	83 bd 5c f9 ff ff 00 	cmpl   $0x0,-0x6a4(%rbp)
   135d4:	7e cd                	jle    135a3 <func_61+0xda3>
   135d6:	83 85 58 f9 ff ff 01 	addl   $0x1,-0x6a8(%rbp)
   135dd:	83 bd 58 f9 ff ff 04 	cmpl   $0x4,-0x6a8(%rbp)
   135e4:	7e b1                	jle    13597 <func_61+0xd97>
   135e6:	c7 85 58 f9 ff ff 00 	movl   $0x0,-0x6a8(%rbp)
   135ed:	00 00 00 
   135f0:	eb 14                	jmp    13606 <func_61+0xe06>
   135f2:	8b 85 58 f9 ff ff    	mov    -0x6a8(%rbp),%eax
   135f8:	48 98                	cltq   
   135fa:	c6 44 05 f5 5d       	movb   $0x5d,-0xb(%rbp,%rax,1)
   135ff:	83 85 58 f9 ff ff 01 	addl   $0x1,-0x6a8(%rbp)
   13606:	83 bd 58 f9 ff ff 02 	cmpl   $0x2,-0x6a8(%rbp)
   1360d:	7e e3                	jle    135f2 <func_61+0xdf2>
   1360f:	8b 05 47 5a 00 00    	mov    0x5a47(%rip),%eax        # 1905c <g_68>
   13615:	83 c0 01             	add    $0x1,%eax
   13618:	89 05 3e 5a 00 00    	mov    %eax,0x5a3e(%rip)        # 1905c <g_68>
   1361e:	48 8b 85 90 f9 ff ff 	mov    -0x670(%rbp),%rax
   13625:	8b 00                	mov    (%rax),%eax
   13627:	48 98                	cltq   
   13629:	48 8b 75 f8          	mov    -0x8(%rbp),%rsi
   1362d:	64 48 33 34 25 28 00 	xor    %fs:0x28,%rsi
   13634:	00 00 
   13636:	74 05                	je     1363d <func_61+0xe3d>
   13638:	e8 33 3a ff ff       	callq  7070 <__stack_chk_fail@plt>
   1363d:	c9                   	leaveq 
   1363e:	c3                   	retq   

000000000001363f <main>:
   1363f:	f3 0f 1e fa          	endbr64 
   13643:	55                   	push   %rbp
   13644:	48 89 e5             	mov    %rsp,%rbp
   13647:	48 83 ec 20          	sub    $0x20,%rsp
   1364b:	89 7d ec             	mov    %edi,-0x14(%rbp)
   1364e:	48 89 75 e0          	mov    %rsi,-0x20(%rbp)
   13652:	c7 45 fc 00 00 00 00 	movl   $0x0,-0x4(%rbp)
   13659:	83 7d ec 02          	cmpl   $0x2,-0x14(%rbp)
   1365d:	74 25                	je     13684 <main+0x45>
   1365f:	48 8b 45 e0          	mov    -0x20(%rbp),%rax
   13663:	48 83 c0 08          	add    $0x8,%rax
   13667:	48 8b 00             	mov    (%rax),%rax
   1366a:	48 8d 35 37 27 00 00 	lea    0x2737(%rip),%rsi        # 15da8 <g_2798+0xd34>
   13671:	48 89 c7             	mov    %rax,%rdi
   13674:	e8 17 3a ff ff       	callq  7090 <strcmp@plt>
   13679:	85 c0                	test   %eax,%eax
   1367b:	74 07                	je     13684 <main+0x45>
   1367d:	c7 45 fc 01 00 00 00 	movl   $0x1,-0x4(%rbp)
   13684:	e8 00 3b ff ff       	callq  7189 <platform_main_begin>
   13689:	e8 0a 4f ff ff       	callq  8598 <crc32_gentab>
   1368e:	e8 22 51 ff ff       	callq  87b5 <func_1>
   13693:	8b 05 8b 59 00 00    	mov    0x598b(%rip),%eax        # 19024 <g_2>
   13699:	48 98                	cltq   
   1369b:	8b 55 fc             	mov    -0x4(%rbp),%edx
   1369e:	48 8d 35 05 27 00 00 	lea    0x2705(%rip),%rsi        # 15daa <g_2798+0xd36>
   136a5:	48 89 c7             	mov    %rax,%rdi
   136a8:	e8 46 50 ff ff       	callq  86f3 <transparent_crc>
   136ad:	c7 45 f0 00 00 00 00 	movl   $0x0,-0x10(%rbp)
   136b4:	eb 4b                	jmp    13701 <main+0xc2>
   136b6:	8b 45 f0             	mov    -0x10(%rbp),%eax
   136b9:	48 98                	cltq   
   136bb:	48 8d 14 85 00 00 00 	lea    0x0(,%rax,4),%rdx
   136c2:	00 
   136c3:	48 8d 05 66 59 00 00 	lea    0x5966(%rip),%rax        # 19030 <g_3>
   136ca:	8b 04 02             	mov    (%rdx,%rax,1),%eax
   136cd:	48 98                	cltq   
   136cf:	8b 55 fc             	mov    -0x4(%rbp),%edx
   136d2:	48 8d 35 d5 26 00 00 	lea    0x26d5(%rip),%rsi        # 15dae <g_2798+0xd3a>
   136d9:	48 89 c7             	mov    %rax,%rdi
   136dc:	e8 12 50 ff ff       	callq  86f3 <transparent_crc>
   136e1:	83 7d fc 00          	cmpl   $0x0,-0x4(%rbp)
   136e5:	74 16                	je     136fd <main+0xbe>
   136e7:	8b 45 f0             	mov    -0x10(%rbp),%eax
   136ea:	89 c6                	mov    %eax,%esi
   136ec:	48 8d 3d c2 26 00 00 	lea    0x26c2(%rip),%rdi        # 15db5 <g_2798+0xd41>
   136f3:	b8 00 00 00 00       	mov    $0x0,%eax
   136f8:	e8 83 39 ff ff       	callq  7080 <printf@plt>
   136fd:	83 45 f0 01          	addl   $0x1,-0x10(%rbp)
   13701:	83 7d f0 06          	cmpl   $0x6,-0x10(%rbp)
   13705:	7e af                	jle    136b6 <main+0x77>
   13707:	48 8b 05 42 8d 00 00 	mov    0x8d42(%rip),%rax        # 1c450 <g_21>
   1370e:	8b 55 fc             	mov    -0x4(%rbp),%edx
   13711:	48 8d 35 ab 26 00 00 	lea    0x26ab(%rip),%rsi        # 15dc3 <g_2798+0xd4f>
   13718:	48 89 c7             	mov    %rax,%rdi
   1371b:	e8 d3 4f ff ff       	callq  86f3 <transparent_crc>
   13720:	48 8b 05 29 59 00 00 	mov    0x5929(%rip),%rax        # 19050 <g_49>
   13727:	8b 55 fc             	mov    -0x4(%rbp),%edx
   1372a:	48 8d 35 97 26 00 00 	lea    0x2697(%rip),%rsi        # 15dc8 <g_2798+0xd54>
   13731:	48 89 c7             	mov    %rax,%rdi
   13734:	e8 ba 4f ff ff       	callq  86f3 <transparent_crc>
   13739:	8b 05 19 59 00 00    	mov    0x5919(%rip),%eax        # 19058 <g_65>
   1373f:	48 98                	cltq   
   13741:	8b 55 fc             	mov    -0x4(%rbp),%edx
   13744:	48 8d 35 82 26 00 00 	lea    0x2682(%rip),%rsi        # 15dcd <g_2798+0xd59>
   1374b:	48 89 c7             	mov    %rax,%rdi
   1374e:	e8 a0 4f ff ff       	callq  86f3 <transparent_crc>
   13753:	8b 05 03 59 00 00    	mov    0x5903(%rip),%eax        # 1905c <g_68>
   13759:	89 c1                	mov    %eax,%ecx
   1375b:	8b 45 fc             	mov    -0x4(%rbp),%eax
   1375e:	89 c2                	mov    %eax,%edx
   13760:	48 8d 35 6b 26 00 00 	lea    0x266b(%rip),%rsi        # 15dd2 <g_2798+0xd5e>
   13767:	48 89 cf             	mov    %rcx,%rdi
   1376a:	e8 84 4f ff ff       	callq  86f3 <transparent_crc>
   1376f:	0f b6 05 e2 8c 00 00 	movzbl 0x8ce2(%rip),%eax        # 1c458 <g_79>
   13776:	48 0f be c0          	movsbq %al,%rax
   1377a:	8b 55 fc             	mov    -0x4(%rbp),%edx
   1377d:	48 8d 35 53 26 00 00 	lea    0x2653(%rip),%rsi        # 15dd7 <g_2798+0xd63>
   13784:	48 89 c7             	mov    %rax,%rdi
   13787:	e8 67 4f ff ff       	callq  86f3 <transparent_crc>
   1378c:	c7 45 f0 00 00 00 00 	movl   $0x0,-0x10(%rbp)
   13793:	e9 b4 00 00 00       	jmpq   1384c <main+0x20d>
   13798:	c7 45 f4 00 00 00 00 	movl   $0x0,-0xc(%rbp)
   1379f:	e9 9a 00 00 00       	jmpq   1383e <main+0x1ff>
   137a4:	8b 45 f4             	mov    -0xc(%rbp),%eax
   137a7:	48 63 c8             	movslq %eax,%rcx
   137aa:	8b 45 f0             	mov    -0x10(%rbp),%eax
   137ad:	48 63 d0             	movslq %eax,%rdx
   137b0:	48 89 d0             	mov    %rdx,%rax
   137b3:	48 01 c0             	add    %rax,%rax
   137b6:	48 01 d0             	add    %rdx,%rax
   137b9:	48 8d 14 08          	lea    (%rax,%rcx,1),%rdx
   137bd:	48 8d 05 9c 58 00 00 	lea    0x589c(%rip),%rax        # 19060 <g_92>
   137c4:	48 01 d0             	add    %rdx,%rax
   137c7:	0f b6 00             	movzbl (%rax),%eax
   137ca:	48 0f be c0          	movsbq %al,%rax
   137ce:	8b 55 fc             	mov    -0x4(%rbp),%edx
   137d1:	48 8d 35 04 26 00 00 	lea    0x2604(%rip),%rsi        # 15ddc <g_2798+0xd68>
   137d8:	48 89 c7             	mov    %rax,%rdi
   137db:	e8 13 4f ff ff       	callq  86f3 <transparent_crc>
   137e0:	8b 45 f4             	mov    -0xc(%rbp),%eax
   137e3:	48 63 c8             	movslq %eax,%rcx
   137e6:	8b 45 f0             	mov    -0x10(%rbp),%eax
   137e9:	48 63 d0             	movslq %eax,%rdx
   137ec:	48 89 d0             	mov    %rdx,%rax
   137ef:	48 01 c0             	add    %rax,%rax
   137f2:	48 01 d0             	add    %rdx,%rax
   137f5:	48 8d 14 08          	lea    (%rax,%rcx,1),%rdx
   137f9:	48 8d 05 60 58 00 00 	lea    0x5860(%rip),%rax        # 19060 <g_92>
   13800:	48 01 d0             	add    %rdx,%rax
   13803:	0f b6 00             	movzbl (%rax),%eax
   13806:	0f b6 c0             	movzbl %al,%eax
   13809:	8b 55 fc             	mov    -0x4(%rbp),%edx
   1380c:	48 8d 35 d7 25 00 00 	lea    0x25d7(%rip),%rsi        # 15dea <g_2798+0xd76>
   13813:	48 89 c7             	mov    %rax,%rdi
   13816:	e8 d8 4e ff ff       	callq  86f3 <transparent_crc>
   1381b:	83 7d fc 00          	cmpl   $0x0,-0x4(%rbp)
   1381f:	74 19                	je     1383a <main+0x1fb>
   13821:	8b 55 f4             	mov    -0xc(%rbp),%edx
   13824:	8b 45 f0             	mov    -0x10(%rbp),%eax
   13827:	89 c6                	mov    %eax,%esi
   13829:	48 8d 3d c8 25 00 00 	lea    0x25c8(%rip),%rdi        # 15df8 <g_2798+0xd84>
   13830:	b8 00 00 00 00       	mov    $0x0,%eax
   13835:	e8 46 38 ff ff       	callq  7080 <printf@plt>
   1383a:	83 45 f4 01          	addl   $0x1,-0xc(%rbp)
   1383e:	83 7d f4 02          	cmpl   $0x2,-0xc(%rbp)
   13842:	0f 8e 5c ff ff ff    	jle    137a4 <main+0x165>
   13848:	83 45 f0 01          	addl   $0x1,-0x10(%rbp)
   1384c:	83 7d f0 07          	cmpl   $0x7,-0x10(%rbp)
   13850:	0f 8e 42 ff ff ff    	jle    13798 <main+0x159>
   13856:	48 8b 05 1b 58 00 00 	mov    0x581b(%rip),%rax        # 19078 <g_106>
   1385d:	48 89 c1             	mov    %rax,%rcx
   13860:	8b 45 fc             	mov    -0x4(%rbp),%eax
   13863:	89 c2                	mov    %eax,%edx
   13865:	48 8d 35 9e 25 00 00 	lea    0x259e(%rip),%rsi        # 15e0a <g_2798+0xd96>
   1386c:	48 89 cf             	mov    %rcx,%rdi
   1386f:	e8 7f 4e ff ff       	callq  86f3 <transparent_crc>
   13874:	c7 45 f0 00 00 00 00 	movl   $0x0,-0x10(%rbp)
   1387b:	eb 4d                	jmp    138ca <main+0x28b>
   1387d:	8b 45 f0             	mov    -0x10(%rbp),%eax
   13880:	48 98                	cltq   
   13882:	48 8d 14 85 00 00 00 	lea    0x0(,%rax,4),%rdx
   13889:	00 
   1388a:	48 8d 05 ef 57 00 00 	lea    0x57ef(%rip),%rax        # 19080 <g_109>
   13891:	8b 04 02             	mov    (%rdx,%rax,1),%eax
   13894:	89 c1                	mov    %eax,%ecx
   13896:	8b 45 fc             	mov    -0x4(%rbp),%eax
   13899:	89 c2                	mov    %eax,%edx
   1389b:	48 8d 35 6e 25 00 00 	lea    0x256e(%rip),%rsi        # 15e10 <g_2798+0xd9c>
   138a2:	48 89 cf             	mov    %rcx,%rdi
   138a5:	e8 49 4e ff ff       	callq  86f3 <transparent_crc>
   138aa:	83 7d fc 00          	cmpl   $0x0,-0x4(%rbp)
   138ae:	74 16                	je     138c6 <main+0x287>
   138b0:	8b 45 f0             	mov    -0x10(%rbp),%eax
   138b3:	89 c6                	mov    %eax,%esi
   138b5:	48 8d 3d f9 24 00 00 	lea    0x24f9(%rip),%rdi        # 15db5 <g_2798+0xd41>
   138bc:	b8 00 00 00 00       	mov    $0x0,%eax
   138c1:	e8 ba 37 ff ff       	callq  7080 <printf@plt>
   138c6:	83 45 f0 01          	addl   $0x1,-0x10(%rbp)
   138ca:	83 7d f0 08          	cmpl   $0x8,-0x10(%rbp)
   138ce:	7e ad                	jle    1387d <main+0x23e>
   138d0:	8b 05 86 8b 00 00    	mov    0x8b86(%rip),%eax        # 1c45c <g_111>
   138d6:	48 98                	cltq   
   138d8:	8b 55 fc             	mov    -0x4(%rbp),%edx
   138db:	48 8d 35 37 25 00 00 	lea    0x2537(%rip),%rsi        # 15e19 <g_2798+0xda5>
   138e2:	48 89 c7             	mov    %rax,%rdi
   138e5:	e8 09 4e ff ff       	callq  86f3 <transparent_crc>
   138ea:	8b 05 6c 8b 00 00    	mov    0x8b6c(%rip),%eax        # 1c45c <g_111>
   138f0:	48 98                	cltq   
   138f2:	8b 55 fc             	mov    -0x4(%rbp),%edx
   138f5:	48 8d 35 26 25 00 00 	lea    0x2526(%rip),%rsi        # 15e22 <g_2798+0xdae>
   138fc:	48 89 c7             	mov    %rax,%rdi
   138ff:	e8 ef 4d ff ff       	callq  86f3 <transparent_crc>
   13904:	8b 05 9a 57 00 00    	mov    0x579a(%rip),%eax        # 190a4 <g_119>
   1390a:	48 98                	cltq   
   1390c:	8b 55 fc             	mov    -0x4(%rbp),%edx
   1390f:	48 8d 35 15 25 00 00 	lea    0x2515(%rip),%rsi        # 15e2b <g_2798+0xdb7>
   13916:	48 89 c7             	mov    %rax,%rdi
   13919:	e8 d5 4d ff ff       	callq  86f3 <transparent_crc>
   1391e:	8b 05 80 57 00 00    	mov    0x5780(%rip),%eax        # 190a4 <g_119>
   13924:	48 98                	cltq   
   13926:	8b 55 fc             	mov    -0x4(%rbp),%edx
   13929:	48 8d 35 04 25 00 00 	lea    0x2504(%rip),%rsi        # 15e34 <g_2798+0xdc0>
   13930:	48 89 c7             	mov    %rax,%rdi
   13933:	e8 bb 4d ff ff       	callq  86f3 <transparent_crc>
   13938:	0f b7 05 69 57 00 00 	movzwl 0x5769(%rip),%eax        # 190a8 <g_121>
   1393f:	48 0f bf c0          	movswq %ax,%rax
   13943:	8b 55 fc             	mov    -0x4(%rbp),%edx
   13946:	48 8d 35 f0 24 00 00 	lea    0x24f0(%rip),%rsi        # 15e3d <g_2798+0xdc9>
   1394d:	48 89 c7             	mov    %rax,%rdi
   13950:	e8 9e 4d ff ff       	callq  86f3 <transparent_crc>
   13955:	0f b7 05 4e 57 00 00 	movzwl 0x574e(%rip),%eax        # 190aa <g_126>
   1395c:	0f b7 c0             	movzwl %ax,%eax
   1395f:	8b 55 fc             	mov    -0x4(%rbp),%edx
   13962:	48 8d 35 da 24 00 00 	lea    0x24da(%rip),%rsi        # 15e43 <g_2798+0xdcf>
   13969:	48 89 c7             	mov    %rax,%rdi
   1396c:	e8 82 4d ff ff       	callq  86f3 <transparent_crc>
   13971:	0f b7 05 e8 8a 00 00 	movzwl 0x8ae8(%rip),%eax        # 1c460 <g_128>
   13978:	0f b7 c0             	movzwl %ax,%eax
   1397b:	8b 55 fc             	mov    -0x4(%rbp),%edx
   1397e:	48 8d 35 c4 24 00 00 	lea    0x24c4(%rip),%rsi        # 15e49 <g_2798+0xdd5>
   13985:	48 89 c7             	mov    %rax,%rdi
   13988:	e8 66 4d ff ff       	callq  86f3 <transparent_crc>
   1398d:	8b 05 19 57 00 00    	mov    0x5719(%rip),%eax        # 190ac <g_131>
   13993:	48 98                	cltq   
   13995:	8b 55 fc             	mov    -0x4(%rbp),%edx
   13998:	48 8d 35 b0 24 00 00 	lea    0x24b0(%rip),%rsi        # 15e4f <g_2798+0xddb>
   1399f:	48 89 c7             	mov    %rax,%rdi
   139a2:	e8 4c 4d ff ff       	callq  86f3 <transparent_crc>
   139a7:	0f b7 05 02 57 00 00 	movzwl 0x5702(%rip),%eax        # 190b0 <g_131+0x4>
   139ae:	48 0f bf c0          	movswq %ax,%rax
   139b2:	8b 55 fc             	mov    -0x4(%rbp),%edx
   139b5:	48 8d 35 9c 24 00 00 	lea    0x249c(%rip),%rsi        # 15e58 <g_2798+0xde4>
   139bc:	48 89 c7             	mov    %rax,%rdi
   139bf:	e8 2f 4d ff ff       	callq  86f3 <transparent_crc>
   139c4:	8b 05 ea 56 00 00    	mov    0x56ea(%rip),%eax        # 190b4 <g_174>
   139ca:	48 98                	cltq   
   139cc:	8b 55 fc             	mov    -0x4(%rbp),%edx
   139cf:	48 8d 35 8b 24 00 00 	lea    0x248b(%rip),%rsi        # 15e61 <g_2798+0xded>
   139d6:	48 89 c7             	mov    %rax,%rdi
   139d9:	e8 15 4d ff ff       	callq  86f3 <transparent_crc>
   139de:	8b 05 d0 56 00 00    	mov    0x56d0(%rip),%eax        # 190b4 <g_174>
   139e4:	48 98                	cltq   
   139e6:	8b 55 fc             	mov    -0x4(%rbp),%edx
   139e9:	48 8d 35 7a 24 00 00 	lea    0x247a(%rip),%rsi        # 15e6a <g_2798+0xdf6>
   139f0:	48 89 c7             	mov    %rax,%rdi
   139f3:	e8 fb 4c ff ff       	callq  86f3 <transparent_crc>
   139f8:	48 8b 05 b9 56 00 00 	mov    0x56b9(%rip),%rax        # 190b8 <g_180>
   139ff:	8b 55 fc             	mov    -0x4(%rbp),%edx
   13a02:	48 8d 35 6a 24 00 00 	lea    0x246a(%rip),%rsi        # 15e73 <g_2798+0xdff>
   13a09:	48 89 c7             	mov    %rax,%rdi
   13a0c:	e8 e2 4c ff ff       	callq  86f3 <transparent_crc>
   13a11:	8b 05 a9 56 00 00    	mov    0x56a9(%rip),%eax        # 190c0 <g_186>
   13a17:	48 98                	cltq   
   13a19:	8b 55 fc             	mov    -0x4(%rbp),%edx
   13a1c:	48 8d 35 56 24 00 00 	lea    0x2456(%rip),%rsi        # 15e79 <g_2798+0xe05>
   13a23:	48 89 c7             	mov    %rax,%rdi
   13a26:	e8 c8 4c ff ff       	callq  86f3 <transparent_crc>
   13a2b:	8b 05 47 8a 00 00    	mov    0x8a47(%rip),%eax        # 1c478 <g_213>
   13a31:	89 c1                	mov    %eax,%ecx
   13a33:	8b 45 fc             	mov    -0x4(%rbp),%eax
   13a36:	89 c2                	mov    %eax,%edx
   13a38:	48 8d 35 40 24 00 00 	lea    0x2440(%rip),%rsi        # 15e7f <g_2798+0xe0b>
   13a3f:	48 89 cf             	mov    %rcx,%rdi
   13a42:	e8 ac 4c ff ff       	callq  86f3 <transparent_crc>
   13a47:	8b 05 83 56 00 00    	mov    0x5683(%rip),%eax        # 190d0 <g_214>
   13a4d:	48 98                	cltq   
   13a4f:	8b 55 fc             	mov    -0x4(%rbp),%edx
   13a52:	48 8d 35 2c 24 00 00 	lea    0x242c(%rip),%rsi        # 15e85 <g_2798+0xe11>
   13a59:	48 89 c7             	mov    %rax,%rdi
   13a5c:	e8 92 4c ff ff       	callq  86f3 <transparent_crc>
   13a61:	8b 05 6d 56 00 00    	mov    0x566d(%rip),%eax        # 190d4 <g_218>
   13a67:	89 c1                	mov    %eax,%ecx
   13a69:	8b 45 fc             	mov    -0x4(%rbp),%eax
   13a6c:	89 c2                	mov    %eax,%edx
   13a6e:	48 8d 35 16 24 00 00 	lea    0x2416(%rip),%rsi        # 15e8b <g_2798+0xe17>
   13a75:	48 89 cf             	mov    %rcx,%rdi
   13a78:	e8 76 4c ff ff       	callq  86f3 <transparent_crc>
   13a7d:	8b 05 55 56 00 00    	mov    0x5655(%rip),%eax        # 190d8 <g_278>
   13a83:	48 98                	cltq   
   13a85:	8b 55 fc             	mov    -0x4(%rbp),%edx
   13a88:	48 8d 35 02 24 00 00 	lea    0x2402(%rip),%rsi        # 15e91 <g_2798+0xe1d>
   13a8f:	48 89 c7             	mov    %rax,%rdi
   13a92:	e8 5c 4c ff ff       	callq  86f3 <transparent_crc>
   13a97:	0f b7 05 3e 56 00 00 	movzwl 0x563e(%rip),%eax        # 190dc <g_278+0x4>
   13a9e:	48 0f bf c0          	movswq %ax,%rax
   13aa2:	8b 55 fc             	mov    -0x4(%rbp),%edx
   13aa5:	48 8d 35 ee 23 00 00 	lea    0x23ee(%rip),%rsi        # 15e9a <g_2798+0xe26>
   13aac:	48 89 c7             	mov    %rax,%rdi
   13aaf:	e8 3f 4c ff ff       	callq  86f3 <transparent_crc>
   13ab4:	48 8b 05 25 56 00 00 	mov    0x5625(%rip),%rax        # 190e0 <g_279>
   13abb:	c1 e0 04             	shl    $0x4,%eax
   13abe:	66 c1 f8 04          	sar    $0x4,%ax
   13ac2:	48 0f bf c0          	movswq %ax,%rax
   13ac6:	8b 55 fc             	mov    -0x4(%rbp),%edx
   13ac9:	48 8d 35 d3 23 00 00 	lea    0x23d3(%rip),%rsi        # 15ea3 <g_2798+0xe2f>
   13ad0:	48 89 c7             	mov    %rax,%rdi
   13ad3:	e8 1b 4c ff ff       	callq  86f3 <transparent_crc>
   13ad8:	c7 45 f0 00 00 00 00 	movl   $0x0,-0x10(%rbp)
   13adf:	e9 ea 00 00 00       	jmpq   13bce <main+0x58f>
   13ae4:	c7 45 f4 00 00 00 00 	movl   $0x0,-0xc(%rbp)
   13aeb:	e9 d0 00 00 00       	jmpq   13bc0 <main+0x581>
   13af0:	c7 45 f8 00 00 00 00 	movl   $0x0,-0x8(%rbp)
   13af7:	e9 b6 00 00 00       	jmpq   13bb2 <main+0x573>
   13afc:	8b 45 f8             	mov    -0x8(%rbp),%eax
   13aff:	48 63 f0             	movslq %eax,%rsi
   13b02:	8b 45 f4             	mov    -0xc(%rbp),%eax
   13b05:	48 63 c8             	movslq %eax,%rcx
   13b08:	8b 45 f0             	mov    -0x10(%rbp),%eax
   13b0b:	48 63 d0             	movslq %eax,%rdx
   13b0e:	48 89 d0             	mov    %rdx,%rax
   13b11:	48 c1 e0 02          	shl    $0x2,%rax
   13b15:	48 01 d0             	add    %rdx,%rax
   13b18:	48 01 f0             	add    %rsi,%rax
   13b1b:	48 01 c8             	add    %rcx,%rax
   13b1e:	48 8d 14 85 00 00 00 	lea    0x0(,%rax,4),%rdx
   13b25:	00 
   13b26:	48 8d 05 d3 55 00 00 	lea    0x55d3(%rip),%rax        # 19100 <g_293>
   13b2d:	8b 04 02             	mov    (%rdx,%rax,1),%eax
   13b30:	48 98                	cltq   
   13b32:	8b 55 fc             	mov    -0x4(%rbp),%edx
   13b35:	48 8d 35 70 23 00 00 	lea    0x2370(%rip),%rsi        # 15eac <g_2798+0xe38>
   13b3c:	48 89 c7             	mov    %rax,%rdi
   13b3f:	e8 af 4b ff ff       	callq  86f3 <transparent_crc>
   13b44:	8b 45 f8             	mov    -0x8(%rbp),%eax
   13b47:	48 63 f0             	movslq %eax,%rsi
   13b4a:	8b 45 f4             	mov    -0xc(%rbp),%eax
   13b4d:	48 63 c8             	movslq %eax,%rcx
   13b50:	8b 45 f0             	mov    -0x10(%rbp),%eax
   13b53:	48 63 d0             	movslq %eax,%rdx
   13b56:	48 89 d0             	mov    %rdx,%rax
   13b59:	48 c1 e0 02          	shl    $0x2,%rax
   13b5d:	48 01 d0             	add    %rdx,%rax
   13b60:	48 01 f0             	add    %rsi,%rax
   13b63:	48 01 c8             	add    %rcx,%rax
   13b66:	48 8d 14 85 00 00 00 	lea    0x0(,%rax,4),%rdx
   13b6d:	00 
   13b6e:	48 8d 05 8b 55 00 00 	lea    0x558b(%rip),%rax        # 19100 <g_293>
   13b75:	8b 04 02             	mov    (%rdx,%rax,1),%eax
   13b78:	48 98                	cltq   
   13b7a:	8b 55 fc             	mov    -0x4(%rbp),%edx
   13b7d:	48 8d 35 3a 23 00 00 	lea    0x233a(%rip),%rsi        # 15ebe <g_2798+0xe4a>
   13b84:	48 89 c7             	mov    %rax,%rdi
   13b87:	e8 67 4b ff ff       	callq  86f3 <transparent_crc>
   13b8c:	83 7d fc 00          	cmpl   $0x0,-0x4(%rbp)
   13b90:	74 1c                	je     13bae <main+0x56f>
   13b92:	8b 4d f8             	mov    -0x8(%rbp),%ecx
   13b95:	8b 55 f4             	mov    -0xc(%rbp),%edx
   13b98:	8b 45 f0             	mov    -0x10(%rbp),%eax
   13b9b:	89 c6                	mov    %eax,%esi
   13b9d:	48 8d 3d 2c 23 00 00 	lea    0x232c(%rip),%rdi        # 15ed0 <g_2798+0xe5c>
   13ba4:	b8 00 00 00 00       	mov    $0x0,%eax
   13ba9:	e8 d2 34 ff ff       	callq  7080 <printf@plt>
   13bae:	83 45 f8 01          	addl   $0x1,-0x8(%rbp)
   13bb2:	83 7d f8 00          	cmpl   $0x0,-0x8(%rbp)
   13bb6:	0f 8e 40 ff ff ff    	jle    13afc <main+0x4bd>
   13bbc:	83 45 f4 01          	addl   $0x1,-0xc(%rbp)
   13bc0:	83 7d f4 04          	cmpl   $0x4,-0xc(%rbp)
   13bc4:	0f 8e 26 ff ff ff    	jle    13af0 <main+0x4b1>
   13bca:	83 45 f0 01          	addl   $0x1,-0x10(%rbp)
   13bce:	83 7d f0 07          	cmpl   $0x7,-0x10(%rbp)
   13bd2:	0f 8e 0c ff ff ff    	jle    13ae4 <main+0x4a5>
   13bd8:	8b 05 c2 55 00 00    	mov    0x55c2(%rip),%eax        # 191a0 <g_306>
   13bde:	89 c1                	mov    %eax,%ecx
   13be0:	8b 45 fc             	mov    -0x4(%rbp),%eax
   13be3:	89 c2                	mov    %eax,%edx
   13be5:	48 8d 35 fa 22 00 00 	lea    0x22fa(%rip),%rsi        # 15ee6 <g_2798+0xe72>
   13bec:	48 89 cf             	mov    %rcx,%rdi
   13bef:	e8 ff 4a ff ff       	callq  86f3 <transparent_crc>
   13bf4:	48 8b 05 ad 55 00 00 	mov    0x55ad(%rip),%rax        # 191a8 <g_322>
   13bfb:	48 89 c1             	mov    %rax,%rcx
   13bfe:	8b 45 fc             	mov    -0x4(%rbp),%eax
   13c01:	89 c2                	mov    %eax,%edx
   13c03:	48 8d 35 e2 22 00 00 	lea    0x22e2(%rip),%rsi        # 15eec <g_2798+0xe78>
   13c0a:	48 89 cf             	mov    %rcx,%rdi
   13c0d:	e8 e1 4a ff ff       	callq  86f3 <transparent_crc>
   13c12:	0f b6 05 97 55 00 00 	movzbl 0x5597(%rip),%eax        # 191b0 <g_358>
   13c19:	0f b6 c0             	movzbl %al,%eax
   13c1c:	8b 55 fc             	mov    -0x4(%rbp),%edx
   13c1f:	48 8d 35 cc 22 00 00 	lea    0x22cc(%rip),%rsi        # 15ef2 <g_2798+0xe7e>
   13c26:	48 89 c7             	mov    %rax,%rdi
   13c29:	e8 c5 4a ff ff       	callq  86f3 <transparent_crc>
   13c2e:	0f b6 05 7c 55 00 00 	movzbl 0x557c(%rip),%eax        # 191b1 <g_361>
   13c35:	0f b6 c0             	movzbl %al,%eax
   13c38:	8b 55 fc             	mov    -0x4(%rbp),%edx
   13c3b:	48 8d 35 b6 22 00 00 	lea    0x22b6(%rip),%rsi        # 15ef8 <g_2798+0xe84>
   13c42:	48 89 c7             	mov    %rax,%rdi
   13c45:	e8 a9 4a ff ff       	callq  86f3 <transparent_crc>
   13c4a:	8b 05 64 55 00 00    	mov    0x5564(%rip),%eax        # 191b4 <g_485>
   13c50:	25 ff ff 07 00       	and    $0x7ffff,%eax
   13c55:	89 c1                	mov    %eax,%ecx
   13c57:	8b 45 fc             	mov    -0x4(%rbp),%eax
   13c5a:	89 c2                	mov    %eax,%edx
   13c5c:	48 8d 35 9b 22 00 00 	lea    0x229b(%rip),%rsi        # 15efe <g_2798+0xe8a>
   13c63:	48 89 cf             	mov    %rcx,%rdi
   13c66:	e8 88 4a ff ff       	callq  86f3 <transparent_crc>
   13c6b:	8b 05 e3 13 00 00    	mov    0x13e3(%rip),%eax        # 15054 <g_493>
   13c71:	25 ff ff 07 00       	and    $0x7ffff,%eax
   13c76:	89 c1                	mov    %eax,%ecx
   13c78:	8b 45 fc             	mov    -0x4(%rbp),%eax
   13c7b:	89 c2                	mov    %eax,%edx
   13c7d:	48 8d 35 83 22 00 00 	lea    0x2283(%rip),%rsi        # 15f07 <g_2798+0xe93>
   13c84:	48 89 cf             	mov    %rcx,%rdi
   13c87:	e8 67 4a ff ff       	callq  86f3 <transparent_crc>
   13c8c:	8b 05 26 55 00 00    	mov    0x5526(%rip),%eax        # 191b8 <g_496>
   13c92:	25 ff ff 07 00       	and    $0x7ffff,%eax
   13c97:	89 c1                	mov    %eax,%ecx
   13c99:	8b 45 fc             	mov    -0x4(%rbp),%eax
   13c9c:	89 c2                	mov    %eax,%edx
   13c9e:	48 8d 35 6b 22 00 00 	lea    0x226b(%rip),%rsi        # 15f10 <g_2798+0xe9c>
   13ca5:	48 89 cf             	mov    %rcx,%rdi
   13ca8:	e8 46 4a ff ff       	callq  86f3 <transparent_crc>
   13cad:	0f b6 05 08 55 00 00 	movzbl 0x5508(%rip),%eax        # 191bc <g_530>
   13cb4:	48 0f be c0          	movsbq %al,%rax
   13cb8:	8b 55 fc             	mov    -0x4(%rbp),%edx
   13cbb:	48 8d 35 57 22 00 00 	lea    0x2257(%rip),%rsi        # 15f19 <g_2798+0xea5>
   13cc2:	48 89 c7             	mov    %rax,%rdi
   13cc5:	e8 29 4a ff ff       	callq  86f3 <transparent_crc>
   13cca:	8b 05 f0 54 00 00    	mov    0x54f0(%rip),%eax        # 191c0 <g_542>
   13cd0:	48 98                	cltq   
   13cd2:	8b 55 fc             	mov    -0x4(%rbp),%edx
   13cd5:	48 8d 35 43 22 00 00 	lea    0x2243(%rip),%rsi        # 15f1f <g_2798+0xeab>
   13cdc:	48 89 c7             	mov    %rax,%rdi
   13cdf:	e8 0f 4a ff ff       	callq  86f3 <transparent_crc>
   13ce4:	8b 05 da 54 00 00    	mov    0x54da(%rip),%eax        # 191c4 <g_577>
   13cea:	48 98                	cltq   
   13cec:	8b 55 fc             	mov    -0x4(%rbp),%edx
   13cef:	48 8d 35 2f 22 00 00 	lea    0x222f(%rip),%rsi        # 15f25 <g_2798+0xeb1>
   13cf6:	48 89 c7             	mov    %rax,%rdi
   13cf9:	e8 f5 49 ff ff       	callq  86f3 <transparent_crc>
   13cfe:	0f b7 05 c3 54 00 00 	movzwl 0x54c3(%rip),%eax        # 191c8 <g_577+0x4>
   13d05:	48 0f bf c0          	movswq %ax,%rax
   13d09:	8b 55 fc             	mov    -0x4(%rbp),%edx
   13d0c:	48 8d 35 1b 22 00 00 	lea    0x221b(%rip),%rsi        # 15f2e <g_2798+0xeba>
   13d13:	48 89 c7             	mov    %rax,%rdi
   13d16:	e8 d8 49 ff ff       	callq  86f3 <transparent_crc>
   13d1b:	8b 05 ab 54 00 00    	mov    0x54ab(%rip),%eax        # 191cc <g_587>
   13d21:	25 ff ff 07 00       	and    $0x7ffff,%eax
   13d26:	89 c1                	mov    %eax,%ecx
   13d28:	8b 45 fc             	mov    -0x4(%rbp),%eax
   13d2b:	89 c2                	mov    %eax,%edx
   13d2d:	48 8d 35 03 22 00 00 	lea    0x2203(%rip),%rsi        # 15f37 <g_2798+0xec3>
   13d34:	48 89 cf             	mov    %rcx,%rdi
   13d37:	e8 b7 49 ff ff       	callq  86f3 <transparent_crc>
   13d3c:	48 b9 f7 70 3e af 8a 	movabs $0x75bb9d8aaf3e70f7,%rcx
   13d43:	9d bb 75 
   13d46:	8b 45 fc             	mov    -0x4(%rbp),%eax
   13d49:	89 c2                	mov    %eax,%edx
   13d4b:	48 8d 35 ee 21 00 00 	lea    0x21ee(%rip),%rsi        # 15f40 <g_2798+0xecc>
   13d52:	48 89 cf             	mov    %rcx,%rdi
   13d55:	e8 99 49 ff ff       	callq  86f3 <transparent_crc>
   13d5a:	0f b7 05 6f 54 00 00 	movzwl 0x546f(%rip),%eax        # 191d0 <g_615>
   13d61:	48 0f bf c0          	movswq %ax,%rax
   13d65:	8b 55 fc             	mov    -0x4(%rbp),%edx
   13d68:	48 8d 35 d7 21 00 00 	lea    0x21d7(%rip),%rsi        # 15f46 <g_2798+0xed2>
   13d6f:	48 89 c7             	mov    %rax,%rdi
   13d72:	e8 7c 49 ff ff       	callq  86f3 <transparent_crc>
   13d77:	8b 05 57 54 00 00    	mov    0x5457(%rip),%eax        # 191d4 <g_621>
   13d7d:	48 98                	cltq   
   13d7f:	8b 55 fc             	mov    -0x4(%rbp),%edx
   13d82:	48 8d 35 c3 21 00 00 	lea    0x21c3(%rip),%rsi        # 15f4c <g_2798+0xed8>
   13d89:	48 89 c7             	mov    %rax,%rdi
   13d8c:	e8 62 49 ff ff       	callq  86f3 <transparent_crc>
   13d91:	0f b7 05 40 54 00 00 	movzwl 0x5440(%rip),%eax        # 191d8 <g_664>
   13d98:	48 0f bf c0          	movswq %ax,%rax
   13d9c:	8b 55 fc             	mov    -0x4(%rbp),%edx
   13d9f:	48 8d 35 ac 21 00 00 	lea    0x21ac(%rip),%rsi        # 15f52 <g_2798+0xede>
   13da6:	48 89 c7             	mov    %rax,%rdi
   13da9:	e8 45 49 ff ff       	callq  86f3 <transparent_crc>
   13dae:	8b 05 34 54 00 00    	mov    0x5434(%rip),%eax        # 191e8 <g_694>
   13db4:	48 98                	cltq   
   13db6:	8b 55 fc             	mov    -0x4(%rbp),%edx
   13db9:	48 8d 35 98 21 00 00 	lea    0x2198(%rip),%rsi        # 15f58 <g_2798+0xee4>
   13dc0:	48 89 c7             	mov    %rax,%rdi
   13dc3:	e8 2b 49 ff ff       	callq  86f3 <transparent_crc>
   13dc8:	8b 05 1a 54 00 00    	mov    0x541a(%rip),%eax        # 191e8 <g_694>
   13dce:	48 98                	cltq   
   13dd0:	8b 55 fc             	mov    -0x4(%rbp),%edx
   13dd3:	48 8d 35 87 21 00 00 	lea    0x2187(%rip),%rsi        # 15f61 <g_2798+0xeed>
   13dda:	48 89 c7             	mov    %rax,%rdi
   13ddd:	e8 11 49 ff ff       	callq  86f3 <transparent_crc>
   13de2:	8b 05 04 54 00 00    	mov    0x5404(%rip),%eax        # 191ec <g_734>
   13de8:	25 ff ff 07 00       	and    $0x7ffff,%eax
   13ded:	89 c1                	mov    %eax,%ecx
   13def:	8b 45 fc             	mov    -0x4(%rbp),%eax
   13df2:	89 c2                	mov    %eax,%edx
   13df4:	48 8d 35 6f 21 00 00 	lea    0x216f(%rip),%rsi        # 15f6a <g_2798+0xef6>
   13dfb:	48 89 cf             	mov    %rcx,%rdi
   13dfe:	e8 f0 48 ff ff       	callq  86f3 <transparent_crc>
   13e03:	8b 05 e7 53 00 00    	mov    0x53e7(%rip),%eax        # 191f0 <g_760>
   13e09:	48 98                	cltq   
   13e0b:	8b 55 fc             	mov    -0x4(%rbp),%edx
   13e0e:	48 8d 35 5e 21 00 00 	lea    0x215e(%rip),%rsi        # 15f73 <g_2798+0xeff>
   13e15:	48 89 c7             	mov    %rax,%rdi
   13e18:	e8 d6 48 ff ff       	callq  86f3 <transparent_crc>
   13e1d:	0f b7 05 d0 53 00 00 	movzwl 0x53d0(%rip),%eax        # 191f4 <g_760+0x4>
   13e24:	48 0f bf c0          	movswq %ax,%rax
   13e28:	8b 55 fc             	mov    -0x4(%rbp),%edx
   13e2b:	48 8d 35 4a 21 00 00 	lea    0x214a(%rip),%rsi        # 15f7c <g_2798+0xf08>
   13e32:	48 89 c7             	mov    %rax,%rdi
   13e35:	e8 b9 48 ff ff       	callq  86f3 <transparent_crc>
   13e3a:	8b 05 b8 53 00 00    	mov    0x53b8(%rip),%eax        # 191f8 <g_856>
   13e40:	25 ff ff 07 00       	and    $0x7ffff,%eax
   13e45:	89 c1                	mov    %eax,%ecx
   13e47:	8b 45 fc             	mov    -0x4(%rbp),%eax
   13e4a:	89 c2                	mov    %eax,%edx
   13e4c:	48 8d 35 32 21 00 00 	lea    0x2132(%rip),%rsi        # 15f85 <g_2798+0xf11>
   13e53:	48 89 cf             	mov    %rcx,%rdi
   13e56:	e8 98 48 ff ff       	callq  86f3 <transparent_crc>
   13e5b:	0f b7 05 9a 53 00 00 	movzwl 0x539a(%rip),%eax        # 191fc <g_889>
   13e62:	0f b7 c0             	movzwl %ax,%eax
   13e65:	8b 55 fc             	mov    -0x4(%rbp),%edx
   13e68:	48 8d 35 1f 21 00 00 	lea    0x211f(%rip),%rsi        # 15f8e <g_2798+0xf1a>
   13e6f:	48 89 c7             	mov    %rax,%rdi
   13e72:	e8 7c 48 ff ff       	callq  86f3 <transparent_crc>
   13e77:	8b 05 83 53 00 00    	mov    0x5383(%rip),%eax        # 19200 <g_1038>
   13e7d:	25 ff ff 07 00       	and    $0x7ffff,%eax
   13e82:	89 c1                	mov    %eax,%ecx
   13e84:	8b 45 fc             	mov    -0x4(%rbp),%eax
   13e87:	89 c2                	mov    %eax,%edx
   13e89:	48 8d 35 04 21 00 00 	lea    0x2104(%rip),%rsi        # 15f94 <g_2798+0xf20>
   13e90:	48 89 cf             	mov    %rcx,%rdi
   13e93:	e8 5b 48 ff ff       	callq  86f3 <transparent_crc>
   13e98:	8b 05 c2 11 00 00    	mov    0x11c2(%rip),%eax        # 15060 <g_1043>
   13e9e:	25 ff ff 07 00       	and    $0x7ffff,%eax
   13ea3:	89 c1                	mov    %eax,%ecx
   13ea5:	8b 45 fc             	mov    -0x4(%rbp),%eax
   13ea8:	89 c2                	mov    %eax,%edx
   13eaa:	48 8d 35 ed 20 00 00 	lea    0x20ed(%rip),%rsi        # 15f9e <g_2798+0xf2a>
   13eb1:	48 89 cf             	mov    %rcx,%rdi
   13eb4:	e8 3a 48 ff ff       	callq  86f3 <transparent_crc>
   13eb9:	c7 45 f0 00 00 00 00 	movl   $0x0,-0x10(%rbp)
   13ec0:	e9 d8 00 00 00       	jmpq   13f9d <main+0x95e>
   13ec5:	c7 45 f4 00 00 00 00 	movl   $0x0,-0xc(%rbp)
   13ecc:	e9 be 00 00 00       	jmpq   13f8f <main+0x950>
   13ed1:	8b 45 f4             	mov    -0xc(%rbp),%eax
   13ed4:	48 98                	cltq   
   13ed6:	8b 55 f0             	mov    -0x10(%rbp),%edx
   13ed9:	48 63 ca             	movslq %edx,%rcx
   13edc:	48 89 c2             	mov    %rax,%rdx
   13edf:	48 01 d2             	add    %rdx,%rdx
   13ee2:	48 01 c2             	add    %rax,%rdx
   13ee5:	48 8d 04 12          	lea    (%rdx,%rdx,1),%rax
   13ee9:	48 89 c2             	mov    %rax,%rdx
   13eec:	48 89 c8             	mov    %rcx,%rax
   13eef:	48 c1 e0 03          	shl    $0x3,%rax
   13ef3:	48 01 c8             	add    %rcx,%rax
   13ef6:	48 c1 e0 02          	shl    $0x2,%rax
   13efa:	48 01 c2             	add    %rax,%rdx
   13efd:	48 8d 05 1c 53 00 00 	lea    0x531c(%rip),%rax        # 19220 <g_1077>
   13f04:	48 01 d0             	add    %rdx,%rax
   13f07:	8b 00                	mov    (%rax),%eax
   13f09:	48 98                	cltq   
   13f0b:	8b 55 fc             	mov    -0x4(%rbp),%edx
   13f0e:	48 8d 35 93 20 00 00 	lea    0x2093(%rip),%rsi        # 15fa8 <g_2798+0xf34>
   13f15:	48 89 c7             	mov    %rax,%rdi
   13f18:	e8 d6 47 ff ff       	callq  86f3 <transparent_crc>
   13f1d:	8b 45 f4             	mov    -0xc(%rbp),%eax
   13f20:	48 98                	cltq   
   13f22:	8b 55 f0             	mov    -0x10(%rbp),%edx
   13f25:	48 63 ca             	movslq %edx,%rcx
   13f28:	48 89 c2             	mov    %rax,%rdx
   13f2b:	48 01 d2             	add    %rdx,%rdx
   13f2e:	48 01 c2             	add    %rax,%rdx
   13f31:	48 8d 04 12          	lea    (%rdx,%rdx,1),%rax
   13f35:	48 89 c2             	mov    %rax,%rdx
   13f38:	48 89 c8             	mov    %rcx,%rax
   13f3b:	48 c1 e0 03          	shl    $0x3,%rax
   13f3f:	48 01 c8             	add    %rcx,%rax
   13f42:	48 c1 e0 02          	shl    $0x2,%rax
   13f46:	48 01 c2             	add    %rax,%rdx
   13f49:	48 8d 05 d4 52 00 00 	lea    0x52d4(%rip),%rax        # 19224 <g_1077+0x4>
   13f50:	48 01 d0             	add    %rdx,%rax
   13f53:	0f b7 00             	movzwl (%rax),%eax
   13f56:	48 0f bf c0          	movswq %ax,%rax
   13f5a:	8b 55 fc             	mov    -0x4(%rbp),%edx
   13f5d:	48 8d 35 54 20 00 00 	lea    0x2054(%rip),%rsi        # 15fb8 <g_2798+0xf44>
   13f64:	48 89 c7             	mov    %rax,%rdi
   13f67:	e8 87 47 ff ff       	callq  86f3 <transparent_crc>
   13f6c:	83 7d fc 00          	cmpl   $0x0,-0x4(%rbp)
   13f70:	74 19                	je     13f8b <main+0x94c>
   13f72:	8b 55 f4             	mov    -0xc(%rbp),%edx
   13f75:	8b 45 f0             	mov    -0x10(%rbp),%eax
   13f78:	89 c6                	mov    %eax,%esi
   13f7a:	48 8d 3d 77 1e 00 00 	lea    0x1e77(%rip),%rdi        # 15df8 <g_2798+0xd84>
   13f81:	b8 00 00 00 00       	mov    $0x0,%eax
   13f86:	e8 f5 30 ff ff       	callq  7080 <printf@plt>
   13f8b:	83 45 f4 01          	addl   $0x1,-0xc(%rbp)
   13f8f:	83 7d f4 05          	cmpl   $0x5,-0xc(%rbp)
   13f93:	0f 8e 38 ff ff ff    	jle    13ed1 <main+0x892>
   13f99:	83 45 f0 01          	addl   $0x1,-0x10(%rbp)
   13f9d:	83 7d f0 07          	cmpl   $0x7,-0x10(%rbp)
   13fa1:	0f 8e 1e ff ff ff    	jle    13ec5 <main+0x886>
   13fa7:	8b 05 93 53 00 00    	mov    0x5393(%rip),%eax        # 19340 <g_1078>
   13fad:	48 98                	cltq   
   13faf:	8b 55 fc             	mov    -0x4(%rbp),%edx
   13fb2:	48 8d 35 0f 20 00 00 	lea    0x200f(%rip),%rsi        # 15fc8 <g_2798+0xf54>
   13fb9:	48 89 c7             	mov    %rax,%rdi
   13fbc:	e8 32 47 ff ff       	callq  86f3 <transparent_crc>
   13fc1:	8b 05 79 53 00 00    	mov    0x5379(%rip),%eax        # 19340 <g_1078>
   13fc7:	48 98                	cltq   
   13fc9:	8b 55 fc             	mov    -0x4(%rbp),%edx
   13fcc:	48 8d 35 ff 1f 00 00 	lea    0x1fff(%rip),%rsi        # 15fd2 <g_2798+0xf5e>
   13fd3:	48 89 c7             	mov    %rax,%rdi
   13fd6:	e8 18 47 ff ff       	callq  86f3 <transparent_crc>
   13fdb:	8b 05 63 53 00 00    	mov    0x5363(%rip),%eax        # 19344 <g_1105>
   13fe1:	48 98                	cltq   
   13fe3:	8b 55 fc             	mov    -0x4(%rbp),%edx
   13fe6:	48 8d 35 ef 1f 00 00 	lea    0x1fef(%rip),%rsi        # 15fdc <g_2798+0xf68>
   13fed:	48 89 c7             	mov    %rax,%rdi
   13ff0:	e8 fe 46 ff ff       	callq  86f3 <transparent_crc>
   13ff5:	0f b7 05 4c 53 00 00 	movzwl 0x534c(%rip),%eax        # 19348 <g_1105+0x4>
   13ffc:	48 0f bf c0          	movswq %ax,%rax
   14000:	8b 55 fc             	mov    -0x4(%rbp),%edx
   14003:	48 8d 35 dc 1f 00 00 	lea    0x1fdc(%rip),%rsi        # 15fe6 <g_2798+0xf72>
   1400a:	48 89 c7             	mov    %rax,%rdi
   1400d:	e8 e1 46 ff ff       	callq  86f3 <transparent_crc>
   14012:	48 8b 05 37 53 00 00 	mov    0x5337(%rip),%rax        # 19350 <g_1132>
   14019:	8b 55 fc             	mov    -0x4(%rbp),%edx
   1401c:	48 8d 35 cd 1f 00 00 	lea    0x1fcd(%rip),%rsi        # 15ff0 <g_2798+0xf7c>
   14023:	48 89 c7             	mov    %rax,%rdi
   14026:	e8 c8 46 ff ff       	callq  86f3 <transparent_crc>
   1402b:	48 8b 05 b6 84 00 00 	mov    0x84b6(%rip),%rax        # 1c4e8 <g_1180>
   14032:	8b 55 fc             	mov    -0x4(%rbp),%edx
   14035:	48 8d 35 bb 1f 00 00 	lea    0x1fbb(%rip),%rsi        # 15ff7 <g_2798+0xf83>
   1403c:	48 89 c7             	mov    %rax,%rdi
   1403f:	e8 af 46 ff ff       	callq  86f3 <transparent_crc>
   14044:	48 8b 05 0d 53 00 00 	mov    0x530d(%rip),%rax        # 19358 <g_1235>
   1404b:	48 89 c1             	mov    %rax,%rcx
   1404e:	8b 45 fc             	mov    -0x4(%rbp),%eax
   14051:	89 c2                	mov    %eax,%edx
   14053:	48 8d 35 a4 1f 00 00 	lea    0x1fa4(%rip),%rsi        # 15ffe <g_2798+0xf8a>
   1405a:	48 89 cf             	mov    %rcx,%rdi
   1405d:	e8 91 46 ff ff       	callq  86f3 <transparent_crc>
   14062:	8b 05 f8 52 00 00    	mov    0x52f8(%rip),%eax        # 19360 <g_1286>
   14068:	25 ff ff 07 00       	and    $0x7ffff,%eax
   1406d:	89 c1                	mov    %eax,%ecx
   1406f:	8b 45 fc             	mov    -0x4(%rbp),%eax
   14072:	89 c2                	mov    %eax,%edx
   14074:	48 8d 35 8a 1f 00 00 	lea    0x1f8a(%rip),%rsi        # 16005 <g_2798+0xf91>
   1407b:	48 89 cf             	mov    %rcx,%rdi
   1407e:	e8 70 46 ff ff       	callq  86f3 <transparent_crc>
   14083:	8b 05 db 52 00 00    	mov    0x52db(%rip),%eax        # 19364 <g_1340>
   14089:	89 c1                	mov    %eax,%ecx
   1408b:	8b 45 fc             	mov    -0x4(%rbp),%eax
   1408e:	89 c2                	mov    %eax,%edx
   14090:	48 8d 35 78 1f 00 00 	lea    0x1f78(%rip),%rsi        # 1600f <g_2798+0xf9b>
   14097:	48 89 cf             	mov    %rcx,%rdi
   1409a:	e8 54 46 ff ff       	callq  86f3 <transparent_crc>
   1409f:	8b 05 c3 52 00 00    	mov    0x52c3(%rip),%eax        # 19368 <g_1400>
   140a5:	48 98                	cltq   
   140a7:	8b 55 fc             	mov    -0x4(%rbp),%edx
   140aa:	48 8d 35 65 1f 00 00 	lea    0x1f65(%rip),%rsi        # 16016 <g_2798+0xfa2>
   140b1:	48 89 c7             	mov    %rax,%rdi
   140b4:	e8 3a 46 ff ff       	callq  86f3 <transparent_crc>
   140b9:	0f b7 05 ac 52 00 00 	movzwl 0x52ac(%rip),%eax        # 1936c <g_1400+0x4>
   140c0:	48 0f bf c0          	movswq %ax,%rax
   140c4:	8b 55 fc             	mov    -0x4(%rbp),%edx
   140c7:	48 8d 35 52 1f 00 00 	lea    0x1f52(%rip),%rsi        # 16020 <g_2798+0xfac>
   140ce:	48 89 c7             	mov    %rax,%rdi
   140d1:	e8 1d 46 ff ff       	callq  86f3 <transparent_crc>
   140d6:	8b 05 94 52 00 00    	mov    0x5294(%rip),%eax        # 19370 <g_1413>
   140dc:	48 98                	cltq   
   140de:	8b 55 fc             	mov    -0x4(%rbp),%edx
   140e1:	48 8d 35 42 1f 00 00 	lea    0x1f42(%rip),%rsi        # 1602a <g_2798+0xfb6>
   140e8:	48 89 c7             	mov    %rax,%rdi
   140eb:	e8 03 46 ff ff       	callq  86f3 <transparent_crc>
   140f0:	8b 05 7a 52 00 00    	mov    0x527a(%rip),%eax        # 19370 <g_1413>
   140f6:	48 98                	cltq   
   140f8:	8b 55 fc             	mov    -0x4(%rbp),%edx
   140fb:	48 8d 35 32 1f 00 00 	lea    0x1f32(%rip),%rsi        # 16034 <g_2798+0xfc0>
   14102:	48 89 c7             	mov    %rax,%rdi
   14105:	e8 e9 45 ff ff       	callq  86f3 <transparent_crc>
   1410a:	8b 05 64 52 00 00    	mov    0x5264(%rip),%eax        # 19374 <g_1419>
   14110:	48 98                	cltq   
   14112:	8b 55 fc             	mov    -0x4(%rbp),%edx
   14115:	48 8d 35 22 1f 00 00 	lea    0x1f22(%rip),%rsi        # 1603e <g_2798+0xfca>
   1411c:	48 89 c7             	mov    %rax,%rdi
   1411f:	e8 cf 45 ff ff       	callq  86f3 <transparent_crc>
   14124:	8b 05 4a 52 00 00    	mov    0x524a(%rip),%eax        # 19374 <g_1419>
   1412a:	48 98                	cltq   
   1412c:	8b 55 fc             	mov    -0x4(%rbp),%edx
   1412f:	48 8d 35 12 1f 00 00 	lea    0x1f12(%rip),%rsi        # 16048 <g_2798+0xfd4>
   14136:	48 89 c7             	mov    %rax,%rdi
   14139:	e8 b5 45 ff ff       	callq  86f3 <transparent_crc>
   1413e:	c7 45 f0 00 00 00 00 	movl   $0x0,-0x10(%rbp)
   14145:	eb 52                	jmp    14199 <main+0xb5a>
   14147:	8b 45 f0             	mov    -0x10(%rbp),%eax
   1414a:	48 98                	cltq   
   1414c:	48 8d 14 85 00 00 00 	lea    0x0(,%rax,4),%rdx
   14153:	00 
   14154:	48 8d 05 b5 83 00 00 	lea    0x83b5(%rip),%rax        # 1c510 <g_1500>
   1415b:	8b 04 02             	mov    (%rdx,%rax,1),%eax
   1415e:	25 ff ff 07 00       	and    $0x7ffff,%eax
   14163:	89 c1                	mov    %eax,%ecx
   14165:	8b 45 fc             	mov    -0x4(%rbp),%eax
   14168:	89 c2                	mov    %eax,%edx
   1416a:	48 8d 35 e1 1e 00 00 	lea    0x1ee1(%rip),%rsi        # 16052 <g_2798+0xfde>
   14171:	48 89 cf             	mov    %rcx,%rdi
   14174:	e8 7a 45 ff ff       	callq  86f3 <transparent_crc>
   14179:	83 7d fc 00          	cmpl   $0x0,-0x4(%rbp)
   1417d:	74 16                	je     14195 <main+0xb56>
   1417f:	8b 45 f0             	mov    -0x10(%rbp),%eax
   14182:	89 c6                	mov    %eax,%esi
   14184:	48 8d 3d 2a 1c 00 00 	lea    0x1c2a(%rip),%rdi        # 15db5 <g_2798+0xd41>
   1418b:	b8 00 00 00 00       	mov    $0x0,%eax
   14190:	e8 eb 2e ff ff       	callq  7080 <printf@plt>
   14195:	83 45 f0 01          	addl   $0x1,-0x10(%rbp)
   14199:	83 7d f0 05          	cmpl   $0x5,-0x10(%rbp)
   1419d:	7e a8                	jle    14147 <main+0xb08>
   1419f:	c7 45 f0 00 00 00 00 	movl   $0x0,-0x10(%rbp)
   141a6:	e9 89 00 00 00       	jmpq   14234 <main+0xbf5>
   141ab:	8b 45 f0             	mov    -0x10(%rbp),%eax
   141ae:	48 63 d0             	movslq %eax,%rdx
   141b1:	48 89 d0             	mov    %rdx,%rax
   141b4:	48 01 c0             	add    %rax,%rax
   141b7:	48 01 d0             	add    %rdx,%rax
   141ba:	48 01 c0             	add    %rax,%rax
   141bd:	48 89 c2             	mov    %rax,%rdx
   141c0:	48 8d 05 b9 51 00 00 	lea    0x51b9(%rip),%rax        # 19380 <g_1555>
   141c7:	8b 04 02             	mov    (%rdx,%rax,1),%eax
   141ca:	48 98                	cltq   
   141cc:	8b 55 fc             	mov    -0x4(%rbp),%edx
   141cf:	48 8d 35 89 1e 00 00 	lea    0x1e89(%rip),%rsi        # 1605f <g_2798+0xfeb>
   141d6:	48 89 c7             	mov    %rax,%rdi
   141d9:	e8 15 45 ff ff       	callq  86f3 <transparent_crc>
   141de:	8b 45 f0             	mov    -0x10(%rbp),%eax
   141e1:	48 63 d0             	movslq %eax,%rdx
   141e4:	48 89 d0             	mov    %rdx,%rax
   141e7:	48 01 c0             	add    %rax,%rax
   141ea:	48 01 d0             	add    %rdx,%rax
   141ed:	48 01 c0             	add    %rax,%rax
   141f0:	48 89 c2             	mov    %rax,%rdx
   141f3:	48 8d 05 8a 51 00 00 	lea    0x518a(%rip),%rax        # 19384 <g_1555+0x4>
   141fa:	0f b7 04 02          	movzwl (%rdx,%rax,1),%eax
   141fe:	48 0f bf c0          	movswq %ax,%rax
   14202:	8b 55 fc             	mov    -0x4(%rbp),%edx
   14205:	48 8d 35 60 1e 00 00 	lea    0x1e60(%rip),%rsi        # 1606c <g_2798+0xff8>
   1420c:	48 89 c7             	mov    %rax,%rdi
   1420f:	e8 df 44 ff ff       	callq  86f3 <transparent_crc>
   14214:	83 7d fc 00          	cmpl   $0x0,-0x4(%rbp)
   14218:	74 16                	je     14230 <main+0xbf1>
   1421a:	8b 45 f0             	mov    -0x10(%rbp),%eax
   1421d:	89 c6                	mov    %eax,%esi
   1421f:	48 8d 3d 8f 1b 00 00 	lea    0x1b8f(%rip),%rdi        # 15db5 <g_2798+0xd41>
   14226:	b8 00 00 00 00       	mov    $0x0,%eax
   1422b:	e8 50 2e ff ff       	callq  7080 <printf@plt>
   14230:	83 45 f0 01          	addl   $0x1,-0x10(%rbp)
   14234:	83 7d f0 08          	cmpl   $0x8,-0x10(%rbp)
   14238:	0f 8e 6d ff ff ff    	jle    141ab <main+0xb6c>
   1423e:	8b 05 72 51 00 00    	mov    0x5172(%rip),%eax        # 193b6 <g_1604>
   14244:	48 98                	cltq   
   14246:	8b 55 fc             	mov    -0x4(%rbp),%edx
   14249:	48 8d 35 29 1e 00 00 	lea    0x1e29(%rip),%rsi        # 16079 <g_2798+0x1005>
   14250:	48 89 c7             	mov    %rax,%rdi
   14253:	e8 9b 44 ff ff       	callq  86f3 <transparent_crc>
   14258:	0f b7 05 5b 51 00 00 	movzwl 0x515b(%rip),%eax        # 193ba <g_1604+0x4>
   1425f:	48 0f bf c0          	movswq %ax,%rax
   14263:	8b 55 fc             	mov    -0x4(%rbp),%edx
   14266:	48 8d 35 16 1e 00 00 	lea    0x1e16(%rip),%rsi        # 16083 <g_2798+0x100f>
   1426d:	48 89 c7             	mov    %rax,%rdi
   14270:	e8 7e 44 ff ff       	callq  86f3 <transparent_crc>
   14275:	8b 05 41 51 00 00    	mov    0x5141(%rip),%eax        # 193bc <g_1616>
   1427b:	48 98                	cltq   
   1427d:	8b 55 fc             	mov    -0x4(%rbp),%edx
   14280:	48 8d 35 06 1e 00 00 	lea    0x1e06(%rip),%rsi        # 1608d <g_2798+0x1019>
   14287:	48 89 c7             	mov    %rax,%rdi
   1428a:	e8 64 44 ff ff       	callq  86f3 <transparent_crc>
   1428f:	0f b7 05 2a 51 00 00 	movzwl 0x512a(%rip),%eax        # 193c0 <g_1616+0x4>
   14296:	48 0f bf c0          	movswq %ax,%rax
   1429a:	8b 55 fc             	mov    -0x4(%rbp),%edx
   1429d:	48 8d 35 f3 1d 00 00 	lea    0x1df3(%rip),%rsi        # 16097 <g_2798+0x1023>
   142a4:	48 89 c7             	mov    %rax,%rdi
   142a7:	e8 47 44 ff ff       	callq  86f3 <transparent_crc>
   142ac:	c7 45 f0 00 00 00 00 	movl   $0x0,-0x10(%rbp)
   142b3:	eb 55                	jmp    1430a <main+0xccb>
   142b5:	8b 45 f0             	mov    -0x10(%rbp),%eax
   142b8:	48 98                	cltq   
   142ba:	48 8d 14 c5 00 00 00 	lea    0x0(,%rax,8),%rdx
   142c1:	00 
   142c2:	48 8d 05 17 51 00 00 	lea    0x5117(%rip),%rax        # 193e0 <g_1628>
   142c9:	0f b7 04 02          	movzwl (%rdx,%rax,1),%eax
   142cd:	c1 e0 04             	shl    $0x4,%eax
   142d0:	66 c1 f8 04          	sar    $0x4,%ax
   142d4:	48 0f bf c0          	movswq %ax,%rax
   142d8:	8b 55 fc             	mov    -0x4(%rbp),%edx
   142db:	48 8d 35 bf 1d 00 00 	lea    0x1dbf(%rip),%rsi        # 160a1 <g_2798+0x102d>
   142e2:	48 89 c7             	mov    %rax,%rdi
   142e5:	e8 09 44 ff ff       	callq  86f3 <transparent_crc>
   142ea:	83 7d fc 00          	cmpl   $0x0,-0x4(%rbp)
   142ee:	74 16                	je     14306 <main+0xcc7>
   142f0:	8b 45 f0             	mov    -0x10(%rbp),%eax
   142f3:	89 c6                	mov    %eax,%esi
   142f5:	48 8d 3d b9 1a 00 00 	lea    0x1ab9(%rip),%rdi        # 15db5 <g_2798+0xd41>
   142fc:	b8 00 00 00 00       	mov    $0x0,%eax
   14301:	e8 7a 2d ff ff       	callq  7080 <printf@plt>
   14306:	83 45 f0 01          	addl   $0x1,-0x10(%rbp)
   1430a:	83 7d f0 04          	cmpl   $0x4,-0x10(%rbp)
   1430e:	7e a5                	jle    142b5 <main+0xc76>
   14310:	8b 05 f2 50 00 00    	mov    0x50f2(%rip),%eax        # 19408 <g_1673>
   14316:	25 ff ff 07 00       	and    $0x7ffff,%eax
   1431b:	89 c1                	mov    %eax,%ecx
   1431d:	8b 45 fc             	mov    -0x4(%rbp),%eax
   14320:	89 c2                	mov    %eax,%edx
   14322:	48 8d 35 85 1d 00 00 	lea    0x1d85(%rip),%rsi        # 160ae <g_2798+0x103a>
   14329:	48 89 cf             	mov    %rcx,%rdi
   1432c:	e8 c2 43 ff ff       	callq  86f3 <transparent_crc>
   14331:	c7 45 f0 00 00 00 00 	movl   $0x0,-0x10(%rbp)
   14338:	eb 76                	jmp    143b0 <main+0xd71>
   1433a:	8b 45 f0             	mov    -0x10(%rbp),%eax
   1433d:	48 98                	cltq   
   1433f:	48 8d 14 85 00 00 00 	lea    0x0(,%rax,4),%rdx
   14346:	00 
   14347:	48 8d 05 d2 50 00 00 	lea    0x50d2(%rip),%rax        # 19420 <g_1689>
   1434e:	8b 04 02             	mov    (%rdx,%rax,1),%eax
   14351:	48 98                	cltq   
   14353:	8b 55 fc             	mov    -0x4(%rbp),%edx
   14356:	48 8d 35 5b 1d 00 00 	lea    0x1d5b(%rip),%rsi        # 160b8 <g_2798+0x1044>
   1435d:	48 89 c7             	mov    %rax,%rdi
   14360:	e8 8e 43 ff ff       	callq  86f3 <transparent_crc>
   14365:	8b 45 f0             	mov    -0x10(%rbp),%eax
   14368:	48 98                	cltq   
   1436a:	48 8d 14 85 00 00 00 	lea    0x0(,%rax,4),%rdx
   14371:	00 
   14372:	48 8d 05 a7 50 00 00 	lea    0x50a7(%rip),%rax        # 19420 <g_1689>
   14379:	8b 04 02             	mov    (%rdx,%rax,1),%eax
   1437c:	48 98                	cltq   
   1437e:	8b 55 fc             	mov    -0x4(%rbp),%edx
   14381:	48 8d 35 3d 1d 00 00 	lea    0x1d3d(%rip),%rsi        # 160c5 <g_2798+0x1051>
   14388:	48 89 c7             	mov    %rax,%rdi
   1438b:	e8 63 43 ff ff       	callq  86f3 <transparent_crc>
   14390:	83 7d fc 00          	cmpl   $0x0,-0x4(%rbp)
   14394:	74 16                	je     143ac <main+0xd6d>
   14396:	8b 45 f0             	mov    -0x10(%rbp),%eax
   14399:	89 c6                	mov    %eax,%esi
   1439b:	48 8d 3d 13 1a 00 00 	lea    0x1a13(%rip),%rdi        # 15db5 <g_2798+0xd41>
   143a2:	b8 00 00 00 00       	mov    $0x0,%eax
   143a7:	e8 d4 2c ff ff       	callq  7080 <printf@plt>
   143ac:	83 45 f0 01          	addl   $0x1,-0x10(%rbp)
   143b0:	83 7d f0 07          	cmpl   $0x7,-0x10(%rbp)
   143b4:	7e 84                	jle    1433a <main+0xcfb>
   143b6:	48 8b 05 83 50 00 00 	mov    0x5083(%rip),%rax        # 19440 <g_1704>
   143bd:	8b 55 fc             	mov    -0x4(%rbp),%edx
   143c0:	48 8d 35 0b 1d 00 00 	lea    0x1d0b(%rip),%rsi        # 160d2 <g_2798+0x105e>
   143c7:	48 89 c7             	mov    %rax,%rdi
   143ca:	e8 24 43 ff ff       	callq  86f3 <transparent_crc>
   143cf:	8b 05 73 50 00 00    	mov    0x5073(%rip),%eax        # 19448 <g_1708>
   143d5:	89 c1                	mov    %eax,%ecx
   143d7:	8b 45 fc             	mov    -0x4(%rbp),%eax
   143da:	89 c2                	mov    %eax,%edx
   143dc:	48 8d 35 f6 1c 00 00 	lea    0x1cf6(%rip),%rsi        # 160d9 <g_2798+0x1065>
   143e3:	48 89 cf             	mov    %rcx,%rdi
   143e6:	e8 08 43 ff ff       	callq  86f3 <transparent_crc>
   143eb:	8b 05 5b 50 00 00    	mov    0x505b(%rip),%eax        # 1944c <g_1722>
   143f1:	25 ff ff 07 00       	and    $0x7ffff,%eax
   143f6:	89 c1                	mov    %eax,%ecx
   143f8:	8b 45 fc             	mov    -0x4(%rbp),%eax
   143fb:	89 c2                	mov    %eax,%edx
   143fd:	48 8d 35 dc 1c 00 00 	lea    0x1cdc(%rip),%rsi        # 160e0 <g_2798+0x106c>
   14404:	48 89 cf             	mov    %rcx,%rdi
   14407:	e8 e7 42 ff ff       	callq  86f3 <transparent_crc>
   1440c:	c7 45 f0 00 00 00 00 	movl   $0x0,-0x10(%rbp)
   14413:	eb 49                	jmp    1445e <main+0xe1f>
   14415:	8b 45 f0             	mov    -0x10(%rbp),%eax
   14418:	48 98                	cltq   
   1441a:	48 8d 14 00          	lea    (%rax,%rax,1),%rdx
   1441e:	48 8d 05 0b 81 00 00 	lea    0x810b(%rip),%rax        # 1c530 <g_1814>
   14425:	0f b7 04 02          	movzwl (%rdx,%rax,1),%eax
   14429:	0f b7 c0             	movzwl %ax,%eax
   1442c:	8b 55 fc             	mov    -0x4(%rbp),%edx
   1442f:	48 8d 35 b4 1c 00 00 	lea    0x1cb4(%rip),%rsi        # 160ea <g_2798+0x1076>
   14436:	48 89 c7             	mov    %rax,%rdi
   14439:	e8 b5 42 ff ff       	callq  86f3 <transparent_crc>
   1443e:	83 7d fc 00          	cmpl   $0x0,-0x4(%rbp)
   14442:	74 16                	je     1445a <main+0xe1b>
   14444:	8b 45 f0             	mov    -0x10(%rbp),%eax
   14447:	89 c6                	mov    %eax,%esi
   14449:	48 8d 3d 65 19 00 00 	lea    0x1965(%rip),%rdi        # 15db5 <g_2798+0xd41>
   14450:	b8 00 00 00 00       	mov    $0x0,%eax
   14455:	e8 26 2c ff ff       	callq  7080 <printf@plt>
   1445a:	83 45 f0 01          	addl   $0x1,-0x10(%rbp)
   1445e:	83 7d f0 06          	cmpl   $0x6,-0x10(%rbp)
   14462:	7e b1                	jle    14415 <main+0xdd6>
   14464:	0f b7 05 e5 4f 00 00 	movzwl 0x4fe5(%rip),%eax        # 19450 <g_1894>
   1446b:	48 0f bf c0          	movswq %ax,%rax
   1446f:	8b 55 fc             	mov    -0x4(%rbp),%edx
   14472:	48 8d 35 7b 1c 00 00 	lea    0x1c7b(%rip),%rsi        # 160f4 <g_2798+0x1080>
   14479:	48 89 c7             	mov    %rax,%rdi
   1447c:	e8 72 42 ff ff       	callq  86f3 <transparent_crc>
   14481:	0f b6 05 c0 80 00 00 	movzbl 0x80c0(%rip),%eax        # 1c548 <g_1927>
   14488:	0f b6 c0             	movzbl %al,%eax
   1448b:	8b 55 fc             	mov    -0x4(%rbp),%edx
   1448e:	48 8d 35 66 1c 00 00 	lea    0x1c66(%rip),%rsi        # 160fb <g_2798+0x1087>
   14495:	48 89 c7             	mov    %rax,%rdi
   14498:	e8 56 42 ff ff       	callq  86f3 <transparent_crc>
   1449d:	0f b6 05 a5 80 00 00 	movzbl 0x80a5(%rip),%eax        # 1c549 <g_1946>
   144a4:	0f b6 c0             	movzbl %al,%eax
   144a7:	8b 55 fc             	mov    -0x4(%rbp),%edx
   144aa:	48 8d 35 51 1c 00 00 	lea    0x1c51(%rip),%rsi        # 16102 <g_2798+0x108e>
   144b1:	48 89 c7             	mov    %rax,%rdi
   144b4:	e8 3a 42 ff ff       	callq  86f3 <transparent_crc>
   144b9:	8b 05 95 4f 00 00    	mov    0x4f95(%rip),%eax        # 19454 <g_2019>
   144bf:	48 98                	cltq   
   144c1:	8b 55 fc             	mov    -0x4(%rbp),%edx
   144c4:	48 8d 35 3e 1c 00 00 	lea    0x1c3e(%rip),%rsi        # 16109 <g_2798+0x1095>
   144cb:	48 89 c7             	mov    %rax,%rdi
   144ce:	e8 20 42 ff ff       	callq  86f3 <transparent_crc>
   144d3:	8b 05 7b 4f 00 00    	mov    0x4f7b(%rip),%eax        # 19454 <g_2019>
   144d9:	48 98                	cltq   
   144db:	8b 55 fc             	mov    -0x4(%rbp),%edx
   144de:	48 8d 35 2e 1c 00 00 	lea    0x1c2e(%rip),%rsi        # 16113 <g_2798+0x109f>
   144e5:	48 89 c7             	mov    %rax,%rdi
   144e8:	e8 06 42 ff ff       	callq  86f3 <transparent_crc>
   144ed:	8b 05 65 4f 00 00    	mov    0x4f65(%rip),%eax        # 19458 <g_2035>
   144f3:	25 ff ff 07 00       	and    $0x7ffff,%eax
   144f8:	89 c1                	mov    %eax,%ecx
   144fa:	8b 45 fc             	mov    -0x4(%rbp),%eax
   144fd:	89 c2                	mov    %eax,%edx
   144ff:	48 8d 35 17 1c 00 00 	lea    0x1c17(%rip),%rsi        # 1611d <g_2798+0x10a9>
   14506:	48 89 cf             	mov    %rcx,%rdi
   14509:	e8 e5 41 ff ff       	callq  86f3 <transparent_crc>
   1450e:	c7 45 f0 00 00 00 00 	movl   $0x0,-0x10(%rbp)
   14515:	eb 76                	jmp    1458d <main+0xf4e>
   14517:	8b 45 f0             	mov    -0x10(%rbp),%eax
   1451a:	48 98                	cltq   
   1451c:	48 8d 14 85 00 00 00 	lea    0x0(,%rax,4),%rdx
   14523:	00 
   14524:	48 8d 05 35 4f 00 00 	lea    0x4f35(%rip),%rax        # 19460 <g_2136>
   1452b:	8b 04 02             	mov    (%rdx,%rax,1),%eax
   1452e:	48 98                	cltq   
   14530:	8b 55 fc             	mov    -0x4(%rbp),%edx
   14533:	48 8d 35 ed 1b 00 00 	lea    0x1bed(%rip),%rsi        # 16127 <g_2798+0x10b3>
   1453a:	48 89 c7             	mov    %rax,%rdi
   1453d:	e8 b1 41 ff ff       	callq  86f3 <transparent_crc>
   14542:	8b 45 f0             	mov    -0x10(%rbp),%eax
   14545:	48 98                	cltq   
   14547:	48 8d 14 85 00 00 00 	lea    0x0(,%rax,4),%rdx
   1454e:	00 
   1454f:	48 8d 05 0a 4f 00 00 	lea    0x4f0a(%rip),%rax        # 19460 <g_2136>
   14556:	8b 04 02             	mov    (%rdx,%rax,1),%eax
   14559:	48 98                	cltq   
   1455b:	8b 55 fc             	mov    -0x4(%rbp),%edx
   1455e:	48 8d 35 cf 1b 00 00 	lea    0x1bcf(%rip),%rsi        # 16134 <g_2798+0x10c0>
   14565:	48 89 c7             	mov    %rax,%rdi
   14568:	e8 86 41 ff ff       	callq  86f3 <transparent_crc>
   1456d:	83 7d fc 00          	cmpl   $0x0,-0x4(%rbp)
   14571:	74 16                	je     14589 <main+0xf4a>
   14573:	8b 45 f0             	mov    -0x10(%rbp),%eax
   14576:	89 c6                	mov    %eax,%esi
   14578:	48 8d 3d 36 18 00 00 	lea    0x1836(%rip),%rdi        # 15db5 <g_2798+0xd41>
   1457f:	b8 00 00 00 00       	mov    $0x0,%eax
   14584:	e8 f7 2a ff ff       	callq  7080 <printf@plt>
   14589:	83 45 f0 01          	addl   $0x1,-0x10(%rbp)
   1458d:	83 7d f0 03          	cmpl   $0x3,-0x10(%rbp)
   14591:	7e 84                	jle    14517 <main+0xed8>
   14593:	c7 45 f0 00 00 00 00 	movl   $0x0,-0x10(%rbp)
   1459a:	e9 a2 00 00 00       	jmpq   14641 <main+0x1002>
   1459f:	c7 45 f4 00 00 00 00 	movl   $0x0,-0xc(%rbp)
   145a6:	e9 88 00 00 00       	jmpq   14633 <main+0xff4>
   145ab:	c7 45 f8 00 00 00 00 	movl   $0x0,-0x8(%rbp)
   145b2:	eb 75                	jmp    14629 <main+0xfea>
   145b4:	8b 45 f8             	mov    -0x8(%rbp),%eax
   145b7:	48 63 c8             	movslq %eax,%rcx
   145ba:	8b 45 f0             	mov    -0x10(%rbp),%eax
   145bd:	48 63 d0             	movslq %eax,%rdx
   145c0:	8b 45 f4             	mov    -0xc(%rbp),%eax
   145c3:	48 63 f0             	movslq %eax,%rsi
   145c6:	48 89 d0             	mov    %rdx,%rax
   145c9:	48 01 c0             	add    %rax,%rax
   145cc:	48 01 d0             	add    %rdx,%rax
   145cf:	48 01 f0             	add    %rsi,%rax
   145d2:	48 c1 e0 03          	shl    $0x3,%rax
   145d6:	48 01 c8             	add    %rcx,%rax
   145d9:	48 8d 14 c5 00 00 00 	lea    0x0(,%rax,8),%rdx
   145e0:	00 
   145e1:	48 8d 05 98 4e 00 00 	lea    0x4e98(%rip),%rax        # 19480 <g_2148>
   145e8:	48 8b 04 02          	mov    (%rdx,%rax,1),%rax
   145ec:	48 89 c1             	mov    %rax,%rcx
   145ef:	8b 45 fc             	mov    -0x4(%rbp),%eax
   145f2:	89 c2                	mov    %eax,%edx
   145f4:	48 8d 35 46 1b 00 00 	lea    0x1b46(%rip),%rsi        # 16141 <g_2798+0x10cd>
   145fb:	48 89 cf             	mov    %rcx,%rdi
   145fe:	e8 f0 40 ff ff       	callq  86f3 <transparent_crc>
   14603:	83 7d fc 00          	cmpl   $0x0,-0x4(%rbp)
   14607:	74 1c                	je     14625 <main+0xfe6>
   14609:	8b 4d f8             	mov    -0x8(%rbp),%ecx
   1460c:	8b 55 f4             	mov    -0xc(%rbp),%edx
   1460f:	8b 45 f0             	mov    -0x10(%rbp),%eax
   14612:	89 c6                	mov    %eax,%esi
   14614:	48 8d 3d b5 18 00 00 	lea    0x18b5(%rip),%rdi        # 15ed0 <g_2798+0xe5c>
   1461b:	b8 00 00 00 00       	mov    $0x0,%eax
   14620:	e8 5b 2a ff ff       	callq  7080 <printf@plt>
   14625:	83 45 f8 01          	addl   $0x1,-0x8(%rbp)
   14629:	83 7d f8 07          	cmpl   $0x7,-0x8(%rbp)
   1462d:	7e 85                	jle    145b4 <main+0xf75>
   1462f:	83 45 f4 01          	addl   $0x1,-0xc(%rbp)
   14633:	83 7d f4 02          	cmpl   $0x2,-0xc(%rbp)
   14637:	0f 8e 6e ff ff ff    	jle    145ab <main+0xf6c>
   1463d:	83 45 f0 01          	addl   $0x1,-0x10(%rbp)
   14641:	83 7d f0 05          	cmpl   $0x5,-0x10(%rbp)
   14645:	0f 8e 54 ff ff ff    	jle    1459f <main+0xf60>
   1464b:	c7 45 f0 00 00 00 00 	movl   $0x0,-0x10(%rbp)
   14652:	eb 75                	jmp    146c9 <main+0x108a>
   14654:	c7 45 f4 00 00 00 00 	movl   $0x0,-0xc(%rbp)
   1465b:	eb 62                	jmp    146bf <main+0x1080>
   1465d:	8b 45 f4             	mov    -0xc(%rbp),%eax
   14660:	48 98                	cltq   
   14662:	8b 55 f0             	mov    -0x10(%rbp),%edx
   14665:	48 63 d2             	movslq %edx,%rdx
   14668:	48 c1 e2 02          	shl    $0x2,%rdx
   1466c:	48 01 d0             	add    %rdx,%rax
   1466f:	48 8d 14 85 00 00 00 	lea    0x0(,%rax,4),%rdx
   14676:	00 
   14677:	48 8d 05 82 52 00 00 	lea    0x5282(%rip),%rax        # 19900 <g_2180>
   1467e:	8b 04 02             	mov    (%rdx,%rax,1),%eax
   14681:	25 ff ff 07 00       	and    $0x7ffff,%eax
   14686:	89 c1                	mov    %eax,%ecx
   14688:	8b 45 fc             	mov    -0x4(%rbp),%eax
   1468b:	89 c2                	mov    %eax,%edx
   1468d:	48 8d 35 bd 1a 00 00 	lea    0x1abd(%rip),%rsi        # 16151 <g_2798+0x10dd>
   14694:	48 89 cf             	mov    %rcx,%rdi
   14697:	e8 57 40 ff ff       	callq  86f3 <transparent_crc>
   1469c:	83 7d fc 00          	cmpl   $0x0,-0x4(%rbp)
   146a0:	74 19                	je     146bb <main+0x107c>
   146a2:	8b 55 f4             	mov    -0xc(%rbp),%edx
   146a5:	8b 45 f0             	mov    -0x10(%rbp),%eax
   146a8:	89 c6                	mov    %eax,%esi
   146aa:	48 8d 3d 47 17 00 00 	lea    0x1747(%rip),%rdi        # 15df8 <g_2798+0xd84>
   146b1:	b8 00 00 00 00       	mov    $0x0,%eax
   146b6:	e8 c5 29 ff ff       	callq  7080 <printf@plt>
   146bb:	83 45 f4 01          	addl   $0x1,-0xc(%rbp)
   146bf:	83 7d f4 03          	cmpl   $0x3,-0xc(%rbp)
   146c3:	7e 98                	jle    1465d <main+0x101e>
   146c5:	83 45 f0 01          	addl   $0x1,-0x10(%rbp)
   146c9:	83 7d f0 00          	cmpl   $0x0,-0x10(%rbp)
   146cd:	7e 85                	jle    14654 <main+0x1015>
   146cf:	48 8b 05 3a 52 00 00 	mov    0x523a(%rip),%rax        # 19910 <g_2218>
   146d6:	8b 55 fc             	mov    -0x4(%rbp),%edx
   146d9:	48 8d 35 81 1a 00 00 	lea    0x1a81(%rip),%rsi        # 16161 <g_2798+0x10ed>
   146e0:	48 89 c7             	mov    %rax,%rdi
   146e3:	e8 0b 40 ff ff       	callq  86f3 <transparent_crc>
   146e8:	8b 05 2a 52 00 00    	mov    0x522a(%rip),%eax        # 19918 <g_2236>
   146ee:	48 98                	cltq   
   146f0:	8b 55 fc             	mov    -0x4(%rbp),%edx
   146f3:	48 8d 35 6e 1a 00 00 	lea    0x1a6e(%rip),%rsi        # 16168 <g_2798+0x10f4>
   146fa:	48 89 c7             	mov    %rax,%rdi
   146fd:	e8 f1 3f ff ff       	callq  86f3 <transparent_crc>
   14702:	0f b7 05 13 52 00 00 	movzwl 0x5213(%rip),%eax        # 1991c <g_2236+0x4>
   14709:	48 0f bf c0          	movswq %ax,%rax
   1470d:	8b 55 fc             	mov    -0x4(%rbp),%edx
   14710:	48 8d 35 5b 1a 00 00 	lea    0x1a5b(%rip),%rsi        # 16172 <g_2798+0x10fe>
   14717:	48 89 c7             	mov    %rax,%rdi
   1471a:	e8 d4 3f ff ff       	callq  86f3 <transparent_crc>
   1471f:	8b 05 fb 51 00 00    	mov    0x51fb(%rip),%eax        # 19920 <g_2262>
   14725:	48 98                	cltq   
   14727:	8b 55 fc             	mov    -0x4(%rbp),%edx
   1472a:	48 8d 35 4b 1a 00 00 	lea    0x1a4b(%rip),%rsi        # 1617c <g_2798+0x1108>
   14731:	48 89 c7             	mov    %rax,%rdi
   14734:	e8 ba 3f ff ff       	callq  86f3 <transparent_crc>
   14739:	0f b6 05 e4 51 00 00 	movzbl 0x51e4(%rip),%eax        # 19924 <g_2264>
   14740:	0f b6 c0             	movzbl %al,%eax
   14743:	8b 55 fc             	mov    -0x4(%rbp),%edx
   14746:	48 8d 35 36 1a 00 00 	lea    0x1a36(%rip),%rsi        # 16183 <g_2798+0x110f>
   1474d:	48 89 c7             	mov    %rax,%rdi
   14750:	e8 9e 3f ff ff       	callq  86f3 <transparent_crc>
   14755:	c7 45 f0 00 00 00 00 	movl   $0x0,-0x10(%rbp)
   1475c:	e9 c1 00 00 00       	jmpq   14822 <main+0x11e3>
   14761:	c7 45 f4 00 00 00 00 	movl   $0x0,-0xc(%rbp)
   14768:	e9 a7 00 00 00       	jmpq   14814 <main+0x11d5>
   1476d:	8b 45 f4             	mov    -0xc(%rbp),%eax
   14770:	48 63 c8             	movslq %eax,%rcx
   14773:	8b 45 f0             	mov    -0x10(%rbp),%eax
   14776:	48 63 d0             	movslq %eax,%rdx
   14779:	48 89 d0             	mov    %rdx,%rax
   1477c:	48 c1 e0 02          	shl    $0x2,%rax
   14780:	48 01 d0             	add    %rdx,%rax
   14783:	48 01 c0             	add    %rax,%rax
   14786:	48 01 c8             	add    %rcx,%rax
   14789:	48 8d 14 85 00 00 00 	lea    0x0(,%rax,4),%rdx
   14790:	00 
   14791:	48 8d 05 a8 51 00 00 	lea    0x51a8(%rip),%rax        # 19940 <g_2272>
   14798:	8b 04 02             	mov    (%rdx,%rax,1),%eax
   1479b:	48 98                	cltq   
   1479d:	8b 55 fc             	mov    -0x4(%rbp),%edx
   147a0:	48 8d 35 e3 19 00 00 	lea    0x19e3(%rip),%rsi        # 1618a <g_2798+0x1116>
   147a7:	48 89 c7             	mov    %rax,%rdi
   147aa:	e8 44 3f ff ff       	callq  86f3 <transparent_crc>
   147af:	8b 45 f4             	mov    -0xc(%rbp),%eax
   147b2:	48 63 c8             	movslq %eax,%rcx
   147b5:	8b 45 f0             	mov    -0x10(%rbp),%eax
   147b8:	48 63 d0             	movslq %eax,%rdx
   147bb:	48 89 d0             	mov    %rdx,%rax
   147be:	48 c1 e0 02          	shl    $0x2,%rax
   147c2:	48 01 d0             	add    %rdx,%rax
   147c5:	48 01 c0             	add    %rax,%rax
   147c8:	48 01 c8             	add    %rcx,%rax
   147cb:	48 8d 14 85 00 00 00 	lea    0x0(,%rax,4),%rdx
   147d2:	00 
   147d3:	48 8d 05 66 51 00 00 	lea    0x5166(%rip),%rax        # 19940 <g_2272>
   147da:	8b 04 02             	mov    (%rdx,%rax,1),%eax
   147dd:	48 98                	cltq   
   147df:	8b 55 fc             	mov    -0x4(%rbp),%edx
   147e2:	48 8d 35 b1 19 00 00 	lea    0x19b1(%rip),%rsi        # 1619a <g_2798+0x1126>
   147e9:	48 89 c7             	mov    %rax,%rdi
   147ec:	e8 02 3f ff ff       	callq  86f3 <transparent_crc>
   147f1:	83 7d fc 00          	cmpl   $0x0,-0x4(%rbp)
   147f5:	74 19                	je     14810 <main+0x11d1>
   147f7:	8b 55 f4             	mov    -0xc(%rbp),%edx
   147fa:	8b 45 f0             	mov    -0x10(%rbp),%eax
   147fd:	89 c6                	mov    %eax,%esi
   147ff:	48 8d 3d f2 15 00 00 	lea    0x15f2(%rip),%rdi        # 15df8 <g_2798+0xd84>
   14806:	b8 00 00 00 00       	mov    $0x0,%eax
   1480b:	e8 70 28 ff ff       	callq  7080 <printf@plt>
   14810:	83 45 f4 01          	addl   $0x1,-0xc(%rbp)
   14814:	83 7d f4 09          	cmpl   $0x9,-0xc(%rbp)
   14818:	0f 8e 4f ff ff ff    	jle    1476d <main+0x112e>
   1481e:	83 45 f0 01          	addl   $0x1,-0x10(%rbp)
   14822:	83 7d f0 00          	cmpl   $0x0,-0x10(%rbp)
   14826:	0f 8e 35 ff ff ff    	jle    14761 <main+0x1122>
   1482c:	c7 45 f0 00 00 00 00 	movl   $0x0,-0x10(%rbp)
   14833:	eb 4a                	jmp    1487f <main+0x1240>
   14835:	8b 45 f0             	mov    -0x10(%rbp),%eax
   14838:	48 98                	cltq   
   1483a:	48 8d 14 c5 00 00 00 	lea    0x0(,%rax,8),%rdx
   14841:	00 
   14842:	48 8d 05 27 51 00 00 	lea    0x5127(%rip),%rax        # 19970 <g_2277>
   14849:	48 8b 04 02          	mov    (%rdx,%rax,1),%rax
   1484d:	8b 55 fc             	mov    -0x4(%rbp),%edx
   14850:	48 8d 35 53 19 00 00 	lea    0x1953(%rip),%rsi        # 161aa <g_2798+0x1136>
   14857:	48 89 c7             	mov    %rax,%rdi
   1485a:	e8 94 3e ff ff       	callq  86f3 <transparent_crc>
   1485f:	83 7d fc 00          	cmpl   $0x0,-0x4(%rbp)
   14863:	74 16                	je     1487b <main+0x123c>
   14865:	8b 45 f0             	mov    -0x10(%rbp),%eax
   14868:	89 c6                	mov    %eax,%esi
   1486a:	48 8d 3d 44 15 00 00 	lea    0x1544(%rip),%rdi        # 15db5 <g_2798+0xd41>
   14871:	b8 00 00 00 00       	mov    $0x0,%eax
   14876:	e8 05 28 ff ff       	callq  7080 <printf@plt>
   1487b:	83 45 f0 01          	addl   $0x1,-0x10(%rbp)
   1487f:	83 7d f0 02          	cmpl   $0x2,-0x10(%rbp)
   14883:	7e b0                	jle    14835 <main+0x11f6>
   14885:	c7 45 f0 00 00 00 00 	movl   $0x0,-0x10(%rbp)
   1488c:	eb 4f                	jmp    148dd <main+0x129e>
   1488e:	8b 45 f0             	mov    -0x10(%rbp),%eax
   14891:	48 98                	cltq   
   14893:	48 8d 14 c5 00 00 00 	lea    0x0(,%rax,8),%rdx
   1489a:	00 
   1489b:	48 8d 05 ee 50 00 00 	lea    0x50ee(%rip),%rax        # 19990 <g_2313>
   148a2:	48 8b 04 02          	mov    (%rdx,%rax,1),%rax
   148a6:	48 89 c1             	mov    %rax,%rcx
   148a9:	8b 45 fc             	mov    -0x4(%rbp),%eax
   148ac:	89 c2                	mov    %eax,%edx
   148ae:	48 8d 35 ff 18 00 00 	lea    0x18ff(%rip),%rsi        # 161b4 <g_2798+0x1140>
   148b5:	48 89 cf             	mov    %rcx,%rdi
   148b8:	e8 36 3e ff ff       	callq  86f3 <transparent_crc>
   148bd:	83 7d fc 00          	cmpl   $0x0,-0x4(%rbp)
   148c1:	74 16                	je     148d9 <main+0x129a>
   148c3:	8b 45 f0             	mov    -0x10(%rbp),%eax
   148c6:	89 c6                	mov    %eax,%esi
   148c8:	48 8d 3d e6 14 00 00 	lea    0x14e6(%rip),%rdi        # 15db5 <g_2798+0xd41>
   148cf:	b8 00 00 00 00       	mov    $0x0,%eax
   148d4:	e8 a7 27 ff ff       	callq  7080 <printf@plt>
   148d9:	83 45 f0 01          	addl   $0x1,-0x10(%rbp)
   148dd:	83 7d f0 01          	cmpl   $0x1,-0x10(%rbp)
   148e1:	7e ab                	jle    1488e <main+0x124f>
   148e3:	c7 45 f0 00 00 00 00 	movl   $0x0,-0x10(%rbp)
   148ea:	eb 73                	jmp    1495f <main+0x1320>
   148ec:	c7 45 f4 00 00 00 00 	movl   $0x0,-0xc(%rbp)
   148f3:	eb 60                	jmp    14955 <main+0x1316>
   148f5:	8b 45 f4             	mov    -0xc(%rbp),%eax
   148f8:	48 63 c8             	movslq %eax,%rcx
   148fb:	8b 45 f0             	mov    -0x10(%rbp),%eax
   148fe:	48 63 d0             	movslq %eax,%rdx
   14901:	48 89 d0             	mov    %rdx,%rax
   14904:	48 c1 e0 03          	shl    $0x3,%rax
   14908:	48 29 d0             	sub    %rdx,%rax
   1490b:	48 8d 14 08          	lea    (%rax,%rcx,1),%rdx
   1490f:	48 8d 05 8a 50 00 00 	lea    0x508a(%rip),%rax        # 199a0 <g_2370>
   14916:	48 01 d0             	add    %rdx,%rax
   14919:	0f b6 00             	movzbl (%rax),%eax
   1491c:	48 0f be c0          	movsbq %al,%rax
   14920:	8b 55 fc             	mov    -0x4(%rbp),%edx
   14923:	48 8d 35 94 18 00 00 	lea    0x1894(%rip),%rsi        # 161be <g_2798+0x114a>
   1492a:	48 89 c7             	mov    %rax,%rdi
   1492d:	e8 c1 3d ff ff       	callq  86f3 <transparent_crc>
   14932:	83 7d fc 00          	cmpl   $0x0,-0x4(%rbp)
   14936:	74 19                	je     14951 <main+0x1312>
   14938:	8b 55 f4             	mov    -0xc(%rbp),%edx
   1493b:	8b 45 f0             	mov    -0x10(%rbp),%eax
   1493e:	89 c6                	mov    %eax,%esi
   14940:	48 8d 3d b1 14 00 00 	lea    0x14b1(%rip),%rdi        # 15df8 <g_2798+0xd84>
   14947:	b8 00 00 00 00       	mov    $0x0,%eax
   1494c:	e8 2f 27 ff ff       	callq  7080 <printf@plt>
   14951:	83 45 f4 01          	addl   $0x1,-0xc(%rbp)
   14955:	83 7d f4 06          	cmpl   $0x6,-0xc(%rbp)
   14959:	7e 9a                	jle    148f5 <main+0x12b6>
   1495b:	83 45 f0 01          	addl   $0x1,-0x10(%rbp)
   1495f:	83 7d f0 03          	cmpl   $0x3,-0x10(%rbp)
   14963:	7e 87                	jle    148ec <main+0x12ad>
   14965:	48 8b 05 54 50 00 00 	mov    0x5054(%rip),%rax        # 199c0 <g_2378>
   1496c:	8b 55 fc             	mov    -0x4(%rbp),%edx
   1496f:	48 8d 35 55 18 00 00 	lea    0x1855(%rip),%rsi        # 161cb <g_2798+0x1157>
   14976:	48 89 c7             	mov    %rax,%rdi
   14979:	e8 75 3d ff ff       	callq  86f3 <transparent_crc>
   1497e:	c7 45 f0 00 00 00 00 	movl   $0x0,-0x10(%rbp)
   14985:	eb 45                	jmp    149cc <main+0x138d>
   14987:	8b 45 f0             	mov    -0x10(%rbp),%eax
   1498a:	48 98                	cltq   
   1498c:	48 8d 15 dd 06 00 00 	lea    0x6dd(%rip),%rdx        # 15070 <g_2462>
   14993:	0f b6 04 10          	movzbl (%rax,%rdx,1),%eax
   14997:	0f b6 c0             	movzbl %al,%eax
   1499a:	8b 55 fc             	mov    -0x4(%rbp),%edx
   1499d:	48 8d 35 2e 18 00 00 	lea    0x182e(%rip),%rsi        # 161d2 <g_2798+0x115e>
   149a4:	48 89 c7             	mov    %rax,%rdi
   149a7:	e8 47 3d ff ff       	callq  86f3 <transparent_crc>
   149ac:	83 7d fc 00          	cmpl   $0x0,-0x4(%rbp)
   149b0:	74 16                	je     149c8 <main+0x1389>
   149b2:	8b 45 f0             	mov    -0x10(%rbp),%eax
   149b5:	89 c6                	mov    %eax,%esi
   149b7:	48 8d 3d f7 13 00 00 	lea    0x13f7(%rip),%rdi        # 15db5 <g_2798+0xd41>
   149be:	b8 00 00 00 00       	mov    $0x0,%eax
   149c3:	e8 b8 26 ff ff       	callq  7080 <printf@plt>
   149c8:	83 45 f0 01          	addl   $0x1,-0x10(%rbp)
   149cc:	83 7d f0 01          	cmpl   $0x1,-0x10(%rbp)
   149d0:	7e b5                	jle    14987 <main+0x1348>
   149d2:	48 8b 05 ef 4f 00 00 	mov    0x4fef(%rip),%rax        # 199c8 <g_2515>
   149d9:	48 89 c1             	mov    %rax,%rcx
   149dc:	8b 45 fc             	mov    -0x4(%rbp),%eax
   149df:	89 c2                	mov    %eax,%edx
   149e1:	48 8d 35 f4 17 00 00 	lea    0x17f4(%rip),%rsi        # 161dc <g_2798+0x1168>
   149e8:	48 89 cf             	mov    %rcx,%rdi
   149eb:	e8 03 3d ff ff       	callq  86f3 <transparent_crc>
   149f0:	8b 05 da 4f 00 00    	mov    0x4fda(%rip),%eax        # 199d0 <g_2550>
   149f6:	25 ff ff 07 00       	and    $0x7ffff,%eax
   149fb:	89 c1                	mov    %eax,%ecx
   149fd:	8b 45 fc             	mov    -0x4(%rbp),%eax
   14a00:	89 c2                	mov    %eax,%edx
   14a02:	48 8d 35 da 17 00 00 	lea    0x17da(%rip),%rsi        # 161e3 <g_2798+0x116f>
   14a09:	48 89 cf             	mov    %rcx,%rdi
   14a0c:	e8 e2 3c ff ff       	callq  86f3 <transparent_crc>
   14a11:	8b 05 bd 4f 00 00    	mov    0x4fbd(%rip),%eax        # 199d4 <g_2597>
   14a17:	25 ff ff 07 00       	and    $0x7ffff,%eax
   14a1c:	89 c1                	mov    %eax,%ecx
   14a1e:	8b 45 fc             	mov    -0x4(%rbp),%eax
   14a21:	89 c2                	mov    %eax,%edx
   14a23:	48 8d 35 c3 17 00 00 	lea    0x17c3(%rip),%rsi        # 161ed <g_2798+0x1179>
   14a2a:	48 89 cf             	mov    %rcx,%rdi
   14a2d:	e8 c1 3c ff ff       	callq  86f3 <transparent_crc>
   14a32:	c7 45 f0 00 00 00 00 	movl   $0x0,-0x10(%rbp)
   14a39:	e9 bb 00 00 00       	jmpq   14af9 <main+0x14ba>
   14a3e:	c7 45 f4 00 00 00 00 	movl   $0x0,-0xc(%rbp)
   14a45:	e9 a1 00 00 00       	jmpq   14aeb <main+0x14ac>
   14a4a:	8b 45 f4             	mov    -0xc(%rbp),%eax
   14a4d:	48 63 c8             	movslq %eax,%rcx
   14a50:	8b 45 f0             	mov    -0x10(%rbp),%eax
   14a53:	48 63 d0             	movslq %eax,%rdx
   14a56:	48 89 d0             	mov    %rdx,%rax
   14a59:	48 c1 e0 03          	shl    $0x3,%rax
   14a5d:	48 01 d0             	add    %rdx,%rax
   14a60:	48 01 c8             	add    %rcx,%rax
   14a63:	48 8d 14 85 00 00 00 	lea    0x0(,%rax,4),%rdx
   14a6a:	00 
   14a6b:	48 8d 05 0e 7b 00 00 	lea    0x7b0e(%rip),%rax        # 1c580 <g_2618>
   14a72:	8b 04 02             	mov    (%rdx,%rax,1),%eax
   14a75:	48 98                	cltq   
   14a77:	8b 55 fc             	mov    -0x4(%rbp),%edx
   14a7a:	48 8d 35 76 17 00 00 	lea    0x1776(%rip),%rsi        # 161f7 <g_2798+0x1183>
   14a81:	48 89 c7             	mov    %rax,%rdi
   14a84:	e8 6a 3c ff ff       	callq  86f3 <transparent_crc>
   14a89:	8b 45 f4             	mov    -0xc(%rbp),%eax
   14a8c:	48 63 c8             	movslq %eax,%rcx
   14a8f:	8b 45 f0             	mov    -0x10(%rbp),%eax
   14a92:	48 63 d0             	movslq %eax,%rdx
   14a95:	48 89 d0             	mov    %rdx,%rax
   14a98:	48 c1 e0 03          	shl    $0x3,%rax
   14a9c:	48 01 d0             	add    %rdx,%rax
   14a9f:	48 01 c8             	add    %rcx,%rax
   14aa2:	48 8d 14 85 00 00 00 	lea    0x0(,%rax,4),%rdx
   14aa9:	00 
   14aaa:	48 8d 05 cf 7a 00 00 	lea    0x7acf(%rip),%rax        # 1c580 <g_2618>
   14ab1:	8b 04 02             	mov    (%rdx,%rax,1),%eax
   14ab4:	48 98                	cltq   
   14ab6:	8b 55 fc             	mov    -0x4(%rbp),%edx
   14ab9:	48 8d 35 47 17 00 00 	lea    0x1747(%rip),%rsi        # 16207 <g_2798+0x1193>
   14ac0:	48 89 c7             	mov    %rax,%rdi
   14ac3:	e8 2b 3c ff ff       	callq  86f3 <transparent_crc>
   14ac8:	83 7d fc 00          	cmpl   $0x0,-0x4(%rbp)
   14acc:	74 19                	je     14ae7 <main+0x14a8>
   14ace:	8b 55 f4             	mov    -0xc(%rbp),%edx
   14ad1:	8b 45 f0             	mov    -0x10(%rbp),%eax
   14ad4:	89 c6                	mov    %eax,%esi
   14ad6:	48 8d 3d 1b 13 00 00 	lea    0x131b(%rip),%rdi        # 15df8 <g_2798+0xd84>
   14add:	b8 00 00 00 00       	mov    $0x0,%eax
   14ae2:	e8 99 25 ff ff       	callq  7080 <printf@plt>
   14ae7:	83 45 f4 01          	addl   $0x1,-0xc(%rbp)
   14aeb:	83 7d f4 08          	cmpl   $0x8,-0xc(%rbp)
   14aef:	0f 8e 55 ff ff ff    	jle    14a4a <main+0x140b>
   14af5:	83 45 f0 01          	addl   $0x1,-0x10(%rbp)
   14af9:	83 7d f0 02          	cmpl   $0x2,-0x10(%rbp)
   14afd:	0f 8e 3b ff ff ff    	jle    14a3e <main+0x13ff>
   14b03:	b8 08 00 00 00       	mov    $0x8,%eax
   14b08:	48 0f be c0          	movsbq %al,%rax
   14b0c:	8b 55 fc             	mov    -0x4(%rbp),%edx
   14b0f:	48 8d 35 01 17 00 00 	lea    0x1701(%rip),%rsi        # 16217 <g_2798+0x11a3>
   14b16:	48 89 c7             	mov    %rax,%rdi
   14b19:	e8 d5 3b ff ff       	callq  86f3 <transparent_crc>
   14b1e:	b8 08 00 00 00       	mov    $0x8,%eax
   14b23:	0f b6 c0             	movzbl %al,%eax
   14b26:	8b 55 fc             	mov    -0x4(%rbp),%edx
   14b29:	48 8d 35 f1 16 00 00 	lea    0x16f1(%rip),%rsi        # 16221 <g_2798+0x11ad>
   14b30:	48 89 c7             	mov    %rax,%rdi
   14b33:	e8 bb 3b ff ff       	callq  86f3 <transparent_crc>
   14b38:	0f b6 05 99 4e 00 00 	movzbl 0x4e99(%rip),%eax        # 199d8 <g_2661>
   14b3f:	0f b6 c0             	movzbl %al,%eax
   14b42:	8b 55 fc             	mov    -0x4(%rbp),%edx
   14b45:	48 8d 35 df 16 00 00 	lea    0x16df(%rip),%rsi        # 1622b <g_2798+0x11b7>
   14b4c:	48 89 c7             	mov    %rax,%rdi
   14b4f:	e8 9f 3b ff ff       	callq  86f3 <transparent_crc>
   14b54:	8b 05 82 4e 00 00    	mov    0x4e82(%rip),%eax        # 199dc <g_2716>
   14b5a:	25 ff ff 07 00       	and    $0x7ffff,%eax
   14b5f:	89 c1                	mov    %eax,%ecx
   14b61:	8b 45 fc             	mov    -0x4(%rbp),%eax
   14b64:	89 c2                	mov    %eax,%edx
   14b66:	48 8d 35 c5 16 00 00 	lea    0x16c5(%rip),%rsi        # 16232 <g_2798+0x11be>
   14b6d:	48 89 cf             	mov    %rcx,%rdi
   14b70:	e8 7e 3b ff ff       	callq  86f3 <transparent_crc>
   14b75:	8b 05 65 4e 00 00    	mov    0x4e65(%rip),%eax        # 199e0 <g_2788>
   14b7b:	48 98                	cltq   
   14b7d:	8b 55 fc             	mov    -0x4(%rbp),%edx
   14b80:	48 8d 35 b5 16 00 00 	lea    0x16b5(%rip),%rsi        # 1623c <g_2798+0x11c8>
   14b87:	48 89 c7             	mov    %rax,%rdi
   14b8a:	e8 64 3b ff ff       	callq  86f3 <transparent_crc>
   14b8f:	0f b7 05 4e 4e 00 00 	movzwl 0x4e4e(%rip),%eax        # 199e4 <g_2788+0x4>
   14b96:	48 0f bf c0          	movswq %ax,%rax
   14b9a:	8b 55 fc             	mov    -0x4(%rbp),%edx
   14b9d:	48 8d 35 a2 16 00 00 	lea    0x16a2(%rip),%rsi        # 16246 <g_2798+0x11d2>
   14ba4:	48 89 c7             	mov    %rax,%rdi
   14ba7:	e8 47 3b ff ff       	callq  86f3 <transparent_crc>
   14bac:	b8 78 c9 ff ff       	mov    $0xffffc978,%eax
   14bb1:	48 0f bf c0          	movswq %ax,%rax
   14bb5:	8b 55 fc             	mov    -0x4(%rbp),%edx
   14bb8:	48 8d 35 91 16 00 00 	lea    0x1691(%rip),%rsi        # 16250 <g_2798+0x11dc>
   14bbf:	48 89 c7             	mov    %rax,%rdi
   14bc2:	e8 2c 3b ff ff       	callq  86f3 <transparent_crc>
   14bc7:	8b 05 19 4e 00 00    	mov    0x4e19(%rip),%eax        # 199e6 <g_2799>
   14bcd:	48 98                	cltq   
   14bcf:	8b 55 fc             	mov    -0x4(%rbp),%edx
   14bd2:	48 8d 35 7e 16 00 00 	lea    0x167e(%rip),%rsi        # 16257 <g_2798+0x11e3>
   14bd9:	48 89 c7             	mov    %rax,%rdi
   14bdc:	e8 12 3b ff ff       	callq  86f3 <transparent_crc>
   14be1:	0f b7 05 02 4e 00 00 	movzwl 0x4e02(%rip),%eax        # 199ea <g_2799+0x4>
   14be8:	48 0f bf c0          	movswq %ax,%rax
   14bec:	8b 55 fc             	mov    -0x4(%rbp),%edx
   14bef:	48 8d 35 6b 16 00 00 	lea    0x166b(%rip),%rsi        # 16261 <g_2798+0x11ed>
   14bf6:	48 89 c7             	mov    %rax,%rdi
   14bf9:	e8 f5 3a ff ff       	callq  86f3 <transparent_crc>
   14bfe:	8b 05 e8 4d 00 00    	mov    0x4de8(%rip),%eax        # 199ec <g_2942>
   14c04:	48 98                	cltq   
   14c06:	8b 55 fc             	mov    -0x4(%rbp),%edx
   14c09:	48 8d 35 5b 16 00 00 	lea    0x165b(%rip),%rsi        # 1626b <g_2798+0x11f7>
   14c10:	48 89 c7             	mov    %rax,%rdi
   14c13:	e8 db 3a ff ff       	callq  86f3 <transparent_crc>
   14c18:	8b 05 ce 4d 00 00    	mov    0x4dce(%rip),%eax        # 199ec <g_2942>
   14c1e:	48 98                	cltq   
   14c20:	8b 55 fc             	mov    -0x4(%rbp),%edx
   14c23:	48 8d 35 4b 16 00 00 	lea    0x164b(%rip),%rsi        # 16275 <g_2798+0x1201>
   14c2a:	48 89 c7             	mov    %rax,%rdi
   14c2d:	e8 c1 3a ff ff       	callq  86f3 <transparent_crc>
   14c32:	8b 05 b8 4d 00 00    	mov    0x4db8(%rip),%eax        # 199f0 <g_2946>
   14c38:	89 c1                	mov    %eax,%ecx
   14c3a:	8b 45 fc             	mov    -0x4(%rbp),%eax
   14c3d:	89 c2                	mov    %eax,%edx
   14c3f:	48 8d 35 39 16 00 00 	lea    0x1639(%rip),%rsi        # 1627f <g_2798+0x120b>
   14c46:	48 89 cf             	mov    %rcx,%rdi
   14c49:	e8 a5 3a ff ff       	callq  86f3 <transparent_crc>
   14c4e:	8b 05 cc 43 00 00    	mov    0x43cc(%rip),%eax        # 19020 <crc32_context>
   14c54:	f7 d0                	not    %eax
   14c56:	89 c2                	mov    %eax,%edx
   14c58:	8b 45 fc             	mov    -0x4(%rbp),%eax
   14c5b:	89 c6                	mov    %eax,%esi
   14c5d:	89 d7                	mov    %edx,%edi
   14c5f:	e8 30 25 ff ff       	callq  7194 <platform_main_end>
   14c64:	b8 00 00 00 00       	mov    $0x0,%eax
   14c69:	c9                   	leaveq 
   14c6a:	c3                   	retq   
   14c6b:	0f 1f 44 00 00       	nopl   0x0(%rax,%rax,1)

0000000000014c70 <__libc_csu_init>:
   14c70:	f3 0f 1e fa          	endbr64 
   14c74:	41 57                	push   %r15
   14c76:	4c 8d 3d d3 40 00 00 	lea    0x40d3(%rip),%r15        # 18d50 <__frame_dummy_init_array_entry>
   14c7d:	41 56                	push   %r14
   14c7f:	49 89 d6             	mov    %rdx,%r14
   14c82:	41 55                	push   %r13
   14c84:	49 89 f5             	mov    %rsi,%r13
   14c87:	41 54                	push   %r12
   14c89:	41 89 fc             	mov    %edi,%r12d
   14c8c:	55                   	push   %rbp
   14c8d:	48 8d 2d c4 40 00 00 	lea    0x40c4(%rip),%rbp        # 18d58 <__do_global_dtors_aux_fini_array_entry>
   14c94:	53                   	push   %rbx
   14c95:	4c 29 fd             	sub    %r15,%rbp
   14c98:	48 83 ec 08          	sub    $0x8,%rsp
   14c9c:	e8 5f 23 ff ff       	callq  7000 <_init>
   14ca1:	48 c1 fd 03          	sar    $0x3,%rbp
   14ca5:	74 1f                	je     14cc6 <__libc_csu_init+0x56>
   14ca7:	31 db                	xor    %ebx,%ebx
   14ca9:	0f 1f 80 00 00 00 00 	nopl   0x0(%rax)
   14cb0:	4c 89 f2             	mov    %r14,%rdx
   14cb3:	4c 89 ee             	mov    %r13,%rsi
   14cb6:	44 89 e7             	mov    %r12d,%edi
   14cb9:	41 ff 14 df          	callq  *(%r15,%rbx,8)
   14cbd:	48 83 c3 01          	add    $0x1,%rbx
   14cc1:	48 39 dd             	cmp    %rbx,%rbp
   14cc4:	75 ea                	jne    14cb0 <__libc_csu_init+0x40>
   14cc6:	48 83 c4 08          	add    $0x8,%rsp
   14cca:	5b                   	pop    %rbx
   14ccb:	5d                   	pop    %rbp
   14ccc:	41 5c                	pop    %r12
   14cce:	41 5d                	pop    %r13
   14cd0:	41 5e                	pop    %r14
   14cd2:	41 5f                	pop    %r15
   14cd4:	c3                   	retq   
   14cd5:	66 66 2e 0f 1f 84 00 	data16 nopw %cs:0x0(%rax,%rax,1)
   14cdc:	00 00 00 00 

0000000000014ce0 <__libc_csu_fini>:
   14ce0:	f3 0f 1e fa          	endbr64 
   14ce4:	c3                   	retq   
