


Disassembly of section .text:

00000000000040a0 <_start>:
    40a0:	f3 0f 1e fa          	endbr64 
    40a4:	31 ed                	xor    %ebp,%ebp
    40a6:	49 89 d1             	mov    %rdx,%r9
    40a9:	5e                   	pop    %rsi
    40aa:	48 89 e2             	mov    %rsp,%rdx
    40ad:	48 83 e4 f0          	and    $0xfffffffffffffff0,%rsp
    40b1:	50                   	push   %rax
    40b2:	54                   	push   %rsp
    40b3:	4c 8d 05 36 aa 00 00 	lea    0xaa36(%rip),%r8        # eaf0 <__libc_csu_fini>
    40ba:	48 8d 0d bf a9 00 00 	lea    0xa9bf(%rip),%rcx        # ea80 <__libc_csu_init>
    40c1:	48 8d 3d f1 a1 00 00 	lea    0xa1f1(%rip),%rdi        # e2b9 <main>
    40c8:	ff 15 12 ef 00 00    	callq  *0xef12(%rip)        # 12fe0 <__libc_start_main@GLIBC_2.2.5>
    40ce:	f4                   	hlt    
    40cf:	90                   	nop

00000000000040d0 <deregister_tm_clones>:
    40d0:	48 8d 3d 81 03 01 00 	lea    0x10381(%rip),%rdi        # 14458 <__TMC_END__>
    40d7:	48 8d 05 7a 03 01 00 	lea    0x1037a(%rip),%rax        # 14458 <__TMC_END__>
    40de:	48 39 f8             	cmp    %rdi,%rax
    40e1:	74 15                	je     40f8 <deregister_tm_clones+0x28>
    40e3:	48 8b 05 ee ee 00 00 	mov    0xeeee(%rip),%rax        # 12fd8 <_ITM_deregisterTMCloneTable>
    40ea:	48 85 c0             	test   %rax,%rax
    40ed:	74 09                	je     40f8 <deregister_tm_clones+0x28>
    40ef:	ff e0                	jmpq   *%rax
    40f1:	0f 1f 80 00 00 00 00 	nopl   0x0(%rax)
    40f8:	c3                   	retq   
    40f9:	0f 1f 80 00 00 00 00 	nopl   0x0(%rax)

0000000000004100 <register_tm_clones>:
    4100:	48 8d 3d 51 03 01 00 	lea    0x10351(%rip),%rdi        # 14458 <__TMC_END__>
    4107:	48 8d 35 4a 03 01 00 	lea    0x1034a(%rip),%rsi        # 14458 <__TMC_END__>
    410e:	48 29 fe             	sub    %rdi,%rsi
    4111:	48 89 f0             	mov    %rsi,%rax
    4114:	48 c1 ee 3f          	shr    $0x3f,%rsi
    4118:	48 c1 f8 03          	sar    $0x3,%rax
    411c:	48 01 c6             	add    %rax,%rsi
    411f:	48 d1 fe             	sar    %rsi
    4122:	74 14                	je     4138 <register_tm_clones+0x38>
    4124:	48 8b 05 c5 ee 00 00 	mov    0xeec5(%rip),%rax        # 12ff0 <_ITM_registerTMCloneTable>
    412b:	48 85 c0             	test   %rax,%rax
    412e:	74 08                	je     4138 <register_tm_clones+0x38>
    4130:	ff e0                	jmpq   *%rax
    4132:	66 0f 1f 44 00 00    	nopw   0x0(%rax,%rax,1)
    4138:	c3                   	retq   
    4139:	0f 1f 80 00 00 00 00 	nopl   0x0(%rax)

0000000000004140 <__do_global_dtors_aux>:
    4140:	f3 0f 1e fa          	endbr64 
    4144:	80 3d 15 03 01 00 00 	cmpb   $0x0,0x10315(%rip)        # 14460 <completed.8061>
    414b:	75 2b                	jne    4178 <__do_global_dtors_aux+0x38>
    414d:	55                   	push   %rbp
    414e:	48 83 3d a2 ee 00 00 	cmpq   $0x0,0xeea2(%rip)        # 12ff8 <__cxa_finalize@GLIBC_2.2.5>
    4155:	00 
    4156:	48 89 e5             	mov    %rsp,%rbp
    4159:	74 0c                	je     4167 <__do_global_dtors_aux+0x27>
    415b:	48 8b 3d a6 ee 00 00 	mov    0xeea6(%rip),%rdi        # 13008 <__dso_handle>
    4162:	e8 f9 fe ff ff       	callq  4060 <__cxa_finalize@plt>
    4167:	e8 64 ff ff ff       	callq  40d0 <deregister_tm_clones>
    416c:	c6 05 ed 02 01 00 01 	movb   $0x1,0x102ed(%rip)        # 14460 <completed.8061>
    4173:	5d                   	pop    %rbp
    4174:	c3                   	retq   
    4175:	0f 1f 00             	nopl   (%rax)
    4178:	c3                   	retq   
    4179:	0f 1f 80 00 00 00 00 	nopl   0x0(%rax)

0000000000004180 <frame_dummy>:
    4180:	f3 0f 1e fa          	endbr64 
    4184:	e9 77 ff ff ff       	jmpq   4100 <register_tm_clones>

0000000000004189 <platform_main_begin>:
    4189:	f3 0f 1e fa          	endbr64 
    418d:	55                   	push   %rbp
    418e:	48 89 e5             	mov    %rsp,%rbp
    4191:	90                   	nop
    4192:	5d                   	pop    %rbp
    4193:	c3                   	retq   

0000000000004194 <platform_main_end>:
    4194:	f3 0f 1e fa          	endbr64 
    4198:	55                   	push   %rbp
    4199:	48 89 e5             	mov    %rsp,%rbp
    419c:	48 83 ec 10          	sub    $0x10,%rsp
    41a0:	89 7d fc             	mov    %edi,-0x4(%rbp)
    41a3:	89 75 f8             	mov    %esi,-0x8(%rbp)
    41a6:	8b 45 fc             	mov    -0x4(%rbp),%eax
    41a9:	89 c6                	mov    %eax,%esi
    41ab:	48 8d 3d 6e ae 00 00 	lea    0xae6e(%rip),%rdi        # f020 <_IO_stdin_used+0x20>
    41b2:	b8 00 00 00 00       	mov    $0x0,%eax
    41b7:	e8 c4 fe ff ff       	callq  4080 <printf@plt>
    41bc:	90                   	nop
    41bd:	c9                   	leaveq 
    41be:	c3                   	retq   

00000000000041bf <safe_unary_minus_func_int8_t_s>:
    41bf:	f3 0f 1e fa          	endbr64 
    41c3:	55                   	push   %rbp
    41c4:	48 89 e5             	mov    %rsp,%rbp
    41c7:	89 f8                	mov    %edi,%eax
    41c9:	88 45 fc             	mov    %al,-0x4(%rbp)
    41cc:	0f b6 45 fc          	movzbl -0x4(%rbp),%eax
    41d0:	f7 d8                	neg    %eax
    41d2:	5d                   	pop    %rbp
    41d3:	c3                   	retq   

00000000000041d4 <safe_add_func_int8_t_s_s>:
    41d4:	f3 0f 1e fa          	endbr64 
    41d8:	55                   	push   %rbp
    41d9:	48 89 e5             	mov    %rsp,%rbp
    41dc:	89 fa                	mov    %edi,%edx
    41de:	89 f0                	mov    %esi,%eax
    41e0:	88 55 fc             	mov    %dl,-0x4(%rbp)
    41e3:	88 45 f8             	mov    %al,-0x8(%rbp)
    41e6:	0f b6 55 fc          	movzbl -0x4(%rbp),%edx
    41ea:	0f b6 45 f8          	movzbl -0x8(%rbp),%eax
    41ee:	01 d0                	add    %edx,%eax
    41f0:	5d                   	pop    %rbp
    41f1:	c3                   	retq   

00000000000041f2 <safe_sub_func_int8_t_s_s>:
    41f2:	f3 0f 1e fa          	endbr64 
    41f6:	55                   	push   %rbp
    41f7:	48 89 e5             	mov    %rsp,%rbp
    41fa:	89 fa                	mov    %edi,%edx
    41fc:	89 f0                	mov    %esi,%eax
    41fe:	88 55 fc             	mov    %dl,-0x4(%rbp)
    4201:	88 45 f8             	mov    %al,-0x8(%rbp)
    4204:	0f b6 55 fc          	movzbl -0x4(%rbp),%edx
    4208:	0f b6 45 f8          	movzbl -0x8(%rbp),%eax
    420c:	29 c2                	sub    %eax,%edx
    420e:	89 d0                	mov    %edx,%eax
    4210:	5d                   	pop    %rbp
    4211:	c3                   	retq   

0000000000004212 <safe_mul_func_int8_t_s_s>:
    4212:	f3 0f 1e fa          	endbr64 
    4216:	55                   	push   %rbp
    4217:	48 89 e5             	mov    %rsp,%rbp
    421a:	89 fa                	mov    %edi,%edx
    421c:	89 f0                	mov    %esi,%eax
    421e:	88 55 fc             	mov    %dl,-0x4(%rbp)
    4221:	88 45 f8             	mov    %al,-0x8(%rbp)
    4224:	0f b6 45 fc          	movzbl -0x4(%rbp),%eax
    4228:	0f b6 55 f8          	movzbl -0x8(%rbp),%edx
    422c:	0f af c2             	imul   %edx,%eax
    422f:	5d                   	pop    %rbp
    4230:	c3                   	retq   

0000000000004231 <safe_mod_func_int8_t_s_s>:
    4231:	f3 0f 1e fa          	endbr64 
    4235:	55                   	push   %rbp
    4236:	48 89 e5             	mov    %rsp,%rbp
    4239:	89 fa                	mov    %edi,%edx
    423b:	89 f0                	mov    %esi,%eax
    423d:	88 55 fc             	mov    %dl,-0x4(%rbp)
    4240:	88 45 f8             	mov    %al,-0x8(%rbp)
    4243:	80 7d f8 00          	cmpb   $0x0,-0x8(%rbp)
    4247:	74 1b                	je     4264 <safe_mod_func_int8_t_s_s+0x33>
    4249:	80 7d fc 80          	cmpb   $0x80,-0x4(%rbp)
    424d:	75 06                	jne    4255 <safe_mod_func_int8_t_s_s+0x24>
    424f:	80 7d f8 ff          	cmpb   $0xff,-0x8(%rbp)
    4253:	74 0f                	je     4264 <safe_mod_func_int8_t_s_s+0x33>
    4255:	0f be 45 fc          	movsbl -0x4(%rbp),%eax
    4259:	0f be 4d f8          	movsbl -0x8(%rbp),%ecx
    425d:	99                   	cltd   
    425e:	f7 f9                	idiv   %ecx
    4260:	89 d0                	mov    %edx,%eax
    4262:	eb 04                	jmp    4268 <safe_mod_func_int8_t_s_s+0x37>
    4264:	0f b6 45 fc          	movzbl -0x4(%rbp),%eax
    4268:	5d                   	pop    %rbp
    4269:	c3                   	retq   

000000000000426a <safe_div_func_int8_t_s_s>:
    426a:	f3 0f 1e fa          	endbr64 
    426e:	55                   	push   %rbp
    426f:	48 89 e5             	mov    %rsp,%rbp
    4272:	89 fa                	mov    %edi,%edx
    4274:	89 f0                	mov    %esi,%eax
    4276:	88 55 fc             	mov    %dl,-0x4(%rbp)
    4279:	88 45 f8             	mov    %al,-0x8(%rbp)
    427c:	80 7d f8 00          	cmpb   $0x0,-0x8(%rbp)
    4280:	74 19                	je     429b <safe_div_func_int8_t_s_s+0x31>
    4282:	80 7d fc 80          	cmpb   $0x80,-0x4(%rbp)
    4286:	75 06                	jne    428e <safe_div_func_int8_t_s_s+0x24>
    4288:	80 7d f8 ff          	cmpb   $0xff,-0x8(%rbp)
    428c:	74 0d                	je     429b <safe_div_func_int8_t_s_s+0x31>
    428e:	0f be 45 fc          	movsbl -0x4(%rbp),%eax
    4292:	0f be 4d f8          	movsbl -0x8(%rbp),%ecx
    4296:	99                   	cltd   
    4297:	f7 f9                	idiv   %ecx
    4299:	eb 04                	jmp    429f <safe_div_func_int8_t_s_s+0x35>
    429b:	0f b6 45 fc          	movzbl -0x4(%rbp),%eax
    429f:	5d                   	pop    %rbp
    42a0:	c3                   	retq   

00000000000042a1 <safe_lshift_func_int8_t_s_s>:
    42a1:	f3 0f 1e fa          	endbr64 
    42a5:	55                   	push   %rbp
    42a6:	48 89 e5             	mov    %rsp,%rbp
    42a9:	89 f8                	mov    %edi,%eax
    42ab:	89 75 f8             	mov    %esi,-0x8(%rbp)
    42ae:	88 45 fc             	mov    %al,-0x4(%rbp)
    42b1:	80 7d fc 00          	cmpb   $0x0,-0x4(%rbp)
    42b5:	78 31                	js     42e8 <safe_lshift_func_int8_t_s_s+0x47>
    42b7:	83 7d f8 00          	cmpl   $0x0,-0x8(%rbp)
    42bb:	78 2b                	js     42e8 <safe_lshift_func_int8_t_s_s+0x47>
    42bd:	83 7d f8 1f          	cmpl   $0x1f,-0x8(%rbp)
    42c1:	7f 25                	jg     42e8 <safe_lshift_func_int8_t_s_s+0x47>
    42c3:	0f be 55 fc          	movsbl -0x4(%rbp),%edx
    42c7:	8b 45 f8             	mov    -0x8(%rbp),%eax
    42ca:	be 7f 00 00 00       	mov    $0x7f,%esi
    42cf:	89 c1                	mov    %eax,%ecx
    42d1:	d3 fe                	sar    %cl,%esi
    42d3:	89 f0                	mov    %esi,%eax
    42d5:	39 c2                	cmp    %eax,%edx
    42d7:	7f 0f                	jg     42e8 <safe_lshift_func_int8_t_s_s+0x47>
    42d9:	0f be 55 fc          	movsbl -0x4(%rbp),%edx
    42dd:	8b 45 f8             	mov    -0x8(%rbp),%eax
    42e0:	89 c1                	mov    %eax,%ecx
    42e2:	d3 e2                	shl    %cl,%edx
    42e4:	89 d0                	mov    %edx,%eax
    42e6:	eb 04                	jmp    42ec <safe_lshift_func_int8_t_s_s+0x4b>
    42e8:	0f b6 45 fc          	movzbl -0x4(%rbp),%eax
    42ec:	5d                   	pop    %rbp
    42ed:	c3                   	retq   

00000000000042ee <safe_lshift_func_int8_t_s_u>:
    42ee:	f3 0f 1e fa          	endbr64 
    42f2:	55                   	push   %rbp
    42f3:	48 89 e5             	mov    %rsp,%rbp
    42f6:	89 f8                	mov    %edi,%eax
    42f8:	89 75 f8             	mov    %esi,-0x8(%rbp)
    42fb:	88 45 fc             	mov    %al,-0x4(%rbp)
    42fe:	80 7d fc 00          	cmpb   $0x0,-0x4(%rbp)
    4302:	78 2b                	js     432f <safe_lshift_func_int8_t_s_u+0x41>
    4304:	83 7d f8 1f          	cmpl   $0x1f,-0x8(%rbp)
    4308:	77 25                	ja     432f <safe_lshift_func_int8_t_s_u+0x41>
    430a:	0f be 55 fc          	movsbl -0x4(%rbp),%edx
    430e:	8b 45 f8             	mov    -0x8(%rbp),%eax
    4311:	be 7f 00 00 00       	mov    $0x7f,%esi
    4316:	89 c1                	mov    %eax,%ecx
    4318:	d3 fe                	sar    %cl,%esi
    431a:	89 f0                	mov    %esi,%eax
    431c:	39 c2                	cmp    %eax,%edx
    431e:	7f 0f                	jg     432f <safe_lshift_func_int8_t_s_u+0x41>
    4320:	0f be 55 fc          	movsbl -0x4(%rbp),%edx
    4324:	8b 45 f8             	mov    -0x8(%rbp),%eax
    4327:	89 c1                	mov    %eax,%ecx
    4329:	d3 e2                	shl    %cl,%edx
    432b:	89 d0                	mov    %edx,%eax
    432d:	eb 04                	jmp    4333 <safe_lshift_func_int8_t_s_u+0x45>
    432f:	0f b6 45 fc          	movzbl -0x4(%rbp),%eax
    4333:	5d                   	pop    %rbp
    4334:	c3                   	retq   

0000000000004335 <safe_rshift_func_int8_t_s_s>:
    4335:	f3 0f 1e fa          	endbr64 
    4339:	55                   	push   %rbp
    433a:	48 89 e5             	mov    %rsp,%rbp
    433d:	89 f8                	mov    %edi,%eax
    433f:	89 75 f8             	mov    %esi,-0x8(%rbp)
    4342:	88 45 fc             	mov    %al,-0x4(%rbp)
    4345:	80 7d fc 00          	cmpb   $0x0,-0x4(%rbp)
    4349:	78 1b                	js     4366 <safe_rshift_func_int8_t_s_s+0x31>
    434b:	83 7d f8 00          	cmpl   $0x0,-0x8(%rbp)
    434f:	78 15                	js     4366 <safe_rshift_func_int8_t_s_s+0x31>
    4351:	83 7d f8 1f          	cmpl   $0x1f,-0x8(%rbp)
    4355:	7f 0f                	jg     4366 <safe_rshift_func_int8_t_s_s+0x31>
    4357:	0f be 55 fc          	movsbl -0x4(%rbp),%edx
    435b:	8b 45 f8             	mov    -0x8(%rbp),%eax
    435e:	89 c1                	mov    %eax,%ecx
    4360:	d3 fa                	sar    %cl,%edx
    4362:	89 d0                	mov    %edx,%eax
    4364:	eb 04                	jmp    436a <safe_rshift_func_int8_t_s_s+0x35>
    4366:	0f b6 45 fc          	movzbl -0x4(%rbp),%eax
    436a:	5d                   	pop    %rbp
    436b:	c3                   	retq   

000000000000436c <safe_rshift_func_int8_t_s_u>:
    436c:	f3 0f 1e fa          	endbr64 
    4370:	55                   	push   %rbp
    4371:	48 89 e5             	mov    %rsp,%rbp
    4374:	89 f8                	mov    %edi,%eax
    4376:	89 75 f8             	mov    %esi,-0x8(%rbp)
    4379:	88 45 fc             	mov    %al,-0x4(%rbp)
    437c:	80 7d fc 00          	cmpb   $0x0,-0x4(%rbp)
    4380:	78 15                	js     4397 <safe_rshift_func_int8_t_s_u+0x2b>
    4382:	83 7d f8 1f          	cmpl   $0x1f,-0x8(%rbp)
    4386:	77 0f                	ja     4397 <safe_rshift_func_int8_t_s_u+0x2b>
    4388:	0f be 55 fc          	movsbl -0x4(%rbp),%edx
    438c:	8b 45 f8             	mov    -0x8(%rbp),%eax
    438f:	89 c1                	mov    %eax,%ecx
    4391:	d3 fa                	sar    %cl,%edx
    4393:	89 d0                	mov    %edx,%eax
    4395:	eb 04                	jmp    439b <safe_rshift_func_int8_t_s_u+0x2f>
    4397:	0f b6 45 fc          	movzbl -0x4(%rbp),%eax
    439b:	5d                   	pop    %rbp
    439c:	c3                   	retq   

000000000000439d <safe_unary_minus_func_int16_t_s>:
    439d:	f3 0f 1e fa          	endbr64 
    43a1:	55                   	push   %rbp
    43a2:	48 89 e5             	mov    %rsp,%rbp
    43a5:	89 f8                	mov    %edi,%eax
    43a7:	66 89 45 fc          	mov    %ax,-0x4(%rbp)
    43ab:	0f b7 45 fc          	movzwl -0x4(%rbp),%eax
    43af:	f7 d8                	neg    %eax
    43b1:	5d                   	pop    %rbp
    43b2:	c3                   	retq   

00000000000043b3 <safe_add_func_int16_t_s_s>:
    43b3:	f3 0f 1e fa          	endbr64 
    43b7:	55                   	push   %rbp
    43b8:	48 89 e5             	mov    %rsp,%rbp
    43bb:	89 fa                	mov    %edi,%edx
    43bd:	89 f0                	mov    %esi,%eax
    43bf:	66 89 55 fc          	mov    %dx,-0x4(%rbp)
    43c3:	66 89 45 f8          	mov    %ax,-0x8(%rbp)
    43c7:	0f b7 55 fc          	movzwl -0x4(%rbp),%edx
    43cb:	0f b7 45 f8          	movzwl -0x8(%rbp),%eax
    43cf:	01 d0                	add    %edx,%eax
    43d1:	5d                   	pop    %rbp
    43d2:	c3                   	retq   

00000000000043d3 <safe_sub_func_int16_t_s_s>:
    43d3:	f3 0f 1e fa          	endbr64 
    43d7:	55                   	push   %rbp
    43d8:	48 89 e5             	mov    %rsp,%rbp
    43db:	89 fa                	mov    %edi,%edx
    43dd:	89 f0                	mov    %esi,%eax
    43df:	66 89 55 fc          	mov    %dx,-0x4(%rbp)
    43e3:	66 89 45 f8          	mov    %ax,-0x8(%rbp)
    43e7:	0f b7 55 fc          	movzwl -0x4(%rbp),%edx
    43eb:	0f b7 45 f8          	movzwl -0x8(%rbp),%eax
    43ef:	29 c2                	sub    %eax,%edx
    43f1:	89 d0                	mov    %edx,%eax
    43f3:	5d                   	pop    %rbp
    43f4:	c3                   	retq   

00000000000043f5 <safe_mul_func_int16_t_s_s>:
    43f5:	f3 0f 1e fa          	endbr64 
    43f9:	55                   	push   %rbp
    43fa:	48 89 e5             	mov    %rsp,%rbp
    43fd:	89 fa                	mov    %edi,%edx
    43ff:	89 f0                	mov    %esi,%eax
    4401:	66 89 55 fc          	mov    %dx,-0x4(%rbp)
    4405:	66 89 45 f8          	mov    %ax,-0x8(%rbp)
    4409:	0f b7 55 fc          	movzwl -0x4(%rbp),%edx
    440d:	0f b7 45 f8          	movzwl -0x8(%rbp),%eax
    4411:	0f af c2             	imul   %edx,%eax
    4414:	5d                   	pop    %rbp
    4415:	c3                   	retq   

0000000000004416 <safe_mod_func_int16_t_s_s>:
    4416:	f3 0f 1e fa          	endbr64 
    441a:	55                   	push   %rbp
    441b:	48 89 e5             	mov    %rsp,%rbp
    441e:	89 fa                	mov    %edi,%edx
    4420:	89 f0                	mov    %esi,%eax
    4422:	66 89 55 fc          	mov    %dx,-0x4(%rbp)
    4426:	66 89 45 f8          	mov    %ax,-0x8(%rbp)
    442a:	66 83 7d f8 00       	cmpw   $0x0,-0x8(%rbp)
    442f:	74 1e                	je     444f <safe_mod_func_int16_t_s_s+0x39>
    4431:	66 81 7d fc 00 80    	cmpw   $0x8000,-0x4(%rbp)
    4437:	75 07                	jne    4440 <safe_mod_func_int16_t_s_s+0x2a>
    4439:	66 83 7d f8 ff       	cmpw   $0xffff,-0x8(%rbp)
    443e:	74 0f                	je     444f <safe_mod_func_int16_t_s_s+0x39>
    4440:	0f bf 45 fc          	movswl -0x4(%rbp),%eax
    4444:	0f bf 4d f8          	movswl -0x8(%rbp),%ecx
    4448:	99                   	cltd   
    4449:	f7 f9                	idiv   %ecx
    444b:	89 d0                	mov    %edx,%eax
    444d:	eb 04                	jmp    4453 <safe_mod_func_int16_t_s_s+0x3d>
    444f:	0f b7 45 fc          	movzwl -0x4(%rbp),%eax
    4453:	5d                   	pop    %rbp
    4454:	c3                   	retq   

0000000000004455 <safe_div_func_int16_t_s_s>:
    4455:	f3 0f 1e fa          	endbr64 
    4459:	55                   	push   %rbp
    445a:	48 89 e5             	mov    %rsp,%rbp
    445d:	89 fa                	mov    %edi,%edx
    445f:	89 f0                	mov    %esi,%eax
    4461:	66 89 55 fc          	mov    %dx,-0x4(%rbp)
    4465:	66 89 45 f8          	mov    %ax,-0x8(%rbp)
    4469:	66 83 7d f8 00       	cmpw   $0x0,-0x8(%rbp)
    446e:	74 1c                	je     448c <safe_div_func_int16_t_s_s+0x37>
    4470:	66 81 7d fc 00 80    	cmpw   $0x8000,-0x4(%rbp)
    4476:	75 07                	jne    447f <safe_div_func_int16_t_s_s+0x2a>
    4478:	66 83 7d f8 ff       	cmpw   $0xffff,-0x8(%rbp)
    447d:	74 0d                	je     448c <safe_div_func_int16_t_s_s+0x37>
    447f:	0f bf 45 fc          	movswl -0x4(%rbp),%eax
    4483:	0f bf 4d f8          	movswl -0x8(%rbp),%ecx
    4487:	99                   	cltd   
    4488:	f7 f9                	idiv   %ecx
    448a:	eb 04                	jmp    4490 <safe_div_func_int16_t_s_s+0x3b>
    448c:	0f b7 45 fc          	movzwl -0x4(%rbp),%eax
    4490:	5d                   	pop    %rbp
    4491:	c3                   	retq   

0000000000004492 <safe_lshift_func_int16_t_s_s>:
    4492:	f3 0f 1e fa          	endbr64 
    4496:	55                   	push   %rbp
    4497:	48 89 e5             	mov    %rsp,%rbp
    449a:	89 f8                	mov    %edi,%eax
    449c:	89 75 f8             	mov    %esi,-0x8(%rbp)
    449f:	66 89 45 fc          	mov    %ax,-0x4(%rbp)
    44a3:	66 83 7d fc 00       	cmpw   $0x0,-0x4(%rbp)
    44a8:	78 31                	js     44db <safe_lshift_func_int16_t_s_s+0x49>
    44aa:	83 7d f8 00          	cmpl   $0x0,-0x8(%rbp)
    44ae:	78 2b                	js     44db <safe_lshift_func_int16_t_s_s+0x49>
    44b0:	83 7d f8 1f          	cmpl   $0x1f,-0x8(%rbp)
    44b4:	7f 25                	jg     44db <safe_lshift_func_int16_t_s_s+0x49>
    44b6:	0f bf 55 fc          	movswl -0x4(%rbp),%edx
    44ba:	8b 45 f8             	mov    -0x8(%rbp),%eax
    44bd:	be ff 7f 00 00       	mov    $0x7fff,%esi
    44c2:	89 c1                	mov    %eax,%ecx
    44c4:	d3 fe                	sar    %cl,%esi
    44c6:	89 f0                	mov    %esi,%eax
    44c8:	39 c2                	cmp    %eax,%edx
    44ca:	7f 0f                	jg     44db <safe_lshift_func_int16_t_s_s+0x49>
    44cc:	0f bf 55 fc          	movswl -0x4(%rbp),%edx
    44d0:	8b 45 f8             	mov    -0x8(%rbp),%eax
    44d3:	89 c1                	mov    %eax,%ecx
    44d5:	d3 e2                	shl    %cl,%edx
    44d7:	89 d0                	mov    %edx,%eax
    44d9:	eb 04                	jmp    44df <safe_lshift_func_int16_t_s_s+0x4d>
    44db:	0f b7 45 fc          	movzwl -0x4(%rbp),%eax
    44df:	5d                   	pop    %rbp
    44e0:	c3                   	retq   

00000000000044e1 <safe_lshift_func_int16_t_s_u>:
    44e1:	f3 0f 1e fa          	endbr64 
    44e5:	55                   	push   %rbp
    44e6:	48 89 e5             	mov    %rsp,%rbp
    44e9:	89 f8                	mov    %edi,%eax
    44eb:	89 75 f8             	mov    %esi,-0x8(%rbp)
    44ee:	66 89 45 fc          	mov    %ax,-0x4(%rbp)
    44f2:	66 83 7d fc 00       	cmpw   $0x0,-0x4(%rbp)
    44f7:	78 2b                	js     4524 <safe_lshift_func_int16_t_s_u+0x43>
    44f9:	83 7d f8 1f          	cmpl   $0x1f,-0x8(%rbp)
    44fd:	77 25                	ja     4524 <safe_lshift_func_int16_t_s_u+0x43>
    44ff:	0f bf 55 fc          	movswl -0x4(%rbp),%edx
    4503:	8b 45 f8             	mov    -0x8(%rbp),%eax
    4506:	be ff 7f 00 00       	mov    $0x7fff,%esi
    450b:	89 c1                	mov    %eax,%ecx
    450d:	d3 fe                	sar    %cl,%esi
    450f:	89 f0                	mov    %esi,%eax
    4511:	39 c2                	cmp    %eax,%edx
    4513:	7f 0f                	jg     4524 <safe_lshift_func_int16_t_s_u+0x43>
    4515:	0f bf 55 fc          	movswl -0x4(%rbp),%edx
    4519:	8b 45 f8             	mov    -0x8(%rbp),%eax
    451c:	89 c1                	mov    %eax,%ecx
    451e:	d3 e2                	shl    %cl,%edx
    4520:	89 d0                	mov    %edx,%eax
    4522:	eb 04                	jmp    4528 <safe_lshift_func_int16_t_s_u+0x47>
    4524:	0f b7 45 fc          	movzwl -0x4(%rbp),%eax
    4528:	5d                   	pop    %rbp
    4529:	c3                   	retq   

000000000000452a <safe_rshift_func_int16_t_s_s>:
    452a:	f3 0f 1e fa          	endbr64 
    452e:	55                   	push   %rbp
    452f:	48 89 e5             	mov    %rsp,%rbp
    4532:	89 f8                	mov    %edi,%eax
    4534:	89 75 f8             	mov    %esi,-0x8(%rbp)
    4537:	66 89 45 fc          	mov    %ax,-0x4(%rbp)
    453b:	66 83 7d fc 00       	cmpw   $0x0,-0x4(%rbp)
    4540:	78 1b                	js     455d <safe_rshift_func_int16_t_s_s+0x33>
    4542:	83 7d f8 00          	cmpl   $0x0,-0x8(%rbp)
    4546:	78 15                	js     455d <safe_rshift_func_int16_t_s_s+0x33>
    4548:	83 7d f8 1f          	cmpl   $0x1f,-0x8(%rbp)
    454c:	7f 0f                	jg     455d <safe_rshift_func_int16_t_s_s+0x33>
    454e:	0f bf 55 fc          	movswl -0x4(%rbp),%edx
    4552:	8b 45 f8             	mov    -0x8(%rbp),%eax
    4555:	89 c1                	mov    %eax,%ecx
    4557:	d3 fa                	sar    %cl,%edx
    4559:	89 d0                	mov    %edx,%eax
    455b:	eb 04                	jmp    4561 <safe_rshift_func_int16_t_s_s+0x37>
    455d:	0f b7 45 fc          	movzwl -0x4(%rbp),%eax
    4561:	5d                   	pop    %rbp
    4562:	c3                   	retq   

0000000000004563 <safe_rshift_func_int16_t_s_u>:
    4563:	f3 0f 1e fa          	endbr64 
    4567:	55                   	push   %rbp
    4568:	48 89 e5             	mov    %rsp,%rbp
    456b:	89 f8                	mov    %edi,%eax
    456d:	89 75 f8             	mov    %esi,-0x8(%rbp)
    4570:	66 89 45 fc          	mov    %ax,-0x4(%rbp)
    4574:	66 83 7d fc 00       	cmpw   $0x0,-0x4(%rbp)
    4579:	78 15                	js     4590 <safe_rshift_func_int16_t_s_u+0x2d>
    457b:	83 7d f8 1f          	cmpl   $0x1f,-0x8(%rbp)
    457f:	77 0f                	ja     4590 <safe_rshift_func_int16_t_s_u+0x2d>
    4581:	0f bf 55 fc          	movswl -0x4(%rbp),%edx
    4585:	8b 45 f8             	mov    -0x8(%rbp),%eax
    4588:	89 c1                	mov    %eax,%ecx
    458a:	d3 fa                	sar    %cl,%edx
    458c:	89 d0                	mov    %edx,%eax
    458e:	eb 04                	jmp    4594 <safe_rshift_func_int16_t_s_u+0x31>
    4590:	0f b7 45 fc          	movzwl -0x4(%rbp),%eax
    4594:	5d                   	pop    %rbp
    4595:	c3                   	retq   

0000000000004596 <safe_unary_minus_func_int32_t_s>:
    4596:	f3 0f 1e fa          	endbr64 
    459a:	55                   	push   %rbp
    459b:	48 89 e5             	mov    %rsp,%rbp
    459e:	89 7d fc             	mov    %edi,-0x4(%rbp)
    45a1:	81 7d fc 00 00 00 80 	cmpl   $0x80000000,-0x4(%rbp)
    45a8:	74 07                	je     45b1 <safe_unary_minus_func_int32_t_s+0x1b>
    45aa:	8b 45 fc             	mov    -0x4(%rbp),%eax
    45ad:	f7 d8                	neg    %eax
    45af:	eb 03                	jmp    45b4 <safe_unary_minus_func_int32_t_s+0x1e>
    45b1:	8b 45 fc             	mov    -0x4(%rbp),%eax
    45b4:	5d                   	pop    %rbp
    45b5:	c3                   	retq   

00000000000045b6 <safe_add_func_int32_t_s_s>:
    45b6:	f3 0f 1e fa          	endbr64 
    45ba:	55                   	push   %rbp
    45bb:	48 89 e5             	mov    %rsp,%rbp
    45be:	89 7d fc             	mov    %edi,-0x4(%rbp)
    45c1:	89 75 f8             	mov    %esi,-0x8(%rbp)
    45c4:	83 7d fc 00          	cmpl   $0x0,-0x4(%rbp)
    45c8:	7e 13                	jle    45dd <safe_add_func_int32_t_s_s+0x27>
    45ca:	83 7d f8 00          	cmpl   $0x0,-0x8(%rbp)
    45ce:	7e 0d                	jle    45dd <safe_add_func_int32_t_s_s+0x27>
    45d0:	b8 ff ff ff 7f       	mov    $0x7fffffff,%eax
    45d5:	2b 45 f8             	sub    -0x8(%rbp),%eax
    45d8:	39 45 fc             	cmp    %eax,-0x4(%rbp)
    45db:	7f 23                	jg     4600 <safe_add_func_int32_t_s_s+0x4a>
    45dd:	83 7d fc 00          	cmpl   $0x0,-0x4(%rbp)
    45e1:	79 13                	jns    45f6 <safe_add_func_int32_t_s_s+0x40>
    45e3:	83 7d f8 00          	cmpl   $0x0,-0x8(%rbp)
    45e7:	79 0d                	jns    45f6 <safe_add_func_int32_t_s_s+0x40>
    45e9:	b8 00 00 00 80       	mov    $0x80000000,%eax
    45ee:	2b 45 f8             	sub    -0x8(%rbp),%eax
    45f1:	39 45 fc             	cmp    %eax,-0x4(%rbp)
    45f4:	7c 0a                	jl     4600 <safe_add_func_int32_t_s_s+0x4a>
    45f6:	8b 55 fc             	mov    -0x4(%rbp),%edx
    45f9:	8b 45 f8             	mov    -0x8(%rbp),%eax
    45fc:	01 d0                	add    %edx,%eax
    45fe:	eb 03                	jmp    4603 <safe_add_func_int32_t_s_s+0x4d>
    4600:	8b 45 fc             	mov    -0x4(%rbp),%eax
    4603:	5d                   	pop    %rbp
    4604:	c3                   	retq   

0000000000004605 <safe_sub_func_int32_t_s_s>:
    4605:	f3 0f 1e fa          	endbr64 
    4609:	55                   	push   %rbp
    460a:	48 89 e5             	mov    %rsp,%rbp
    460d:	89 7d fc             	mov    %edi,-0x4(%rbp)
    4610:	89 75 f8             	mov    %esi,-0x8(%rbp)
    4613:	8b 45 fc             	mov    -0x4(%rbp),%eax
    4616:	33 45 f8             	xor    -0x8(%rbp),%eax
    4619:	89 c2                	mov    %eax,%edx
    461b:	8b 45 fc             	mov    -0x4(%rbp),%eax
    461e:	33 45 f8             	xor    -0x8(%rbp),%eax
    4621:	25 00 00 00 80       	and    $0x80000000,%eax
    4626:	33 45 fc             	xor    -0x4(%rbp),%eax
    4629:	2b 45 f8             	sub    -0x8(%rbp),%eax
    462c:	33 45 f8             	xor    -0x8(%rbp),%eax
    462f:	21 d0                	and    %edx,%eax
    4631:	85 c0                	test   %eax,%eax
    4633:	78 08                	js     463d <safe_sub_func_int32_t_s_s+0x38>
    4635:	8b 45 fc             	mov    -0x4(%rbp),%eax
    4638:	2b 45 f8             	sub    -0x8(%rbp),%eax
    463b:	eb 03                	jmp    4640 <safe_sub_func_int32_t_s_s+0x3b>
    463d:	8b 45 fc             	mov    -0x4(%rbp),%eax
    4640:	5d                   	pop    %rbp
    4641:	c3                   	retq   

0000000000004642 <safe_mul_func_int32_t_s_s>:
    4642:	f3 0f 1e fa          	endbr64 
    4646:	55                   	push   %rbp
    4647:	48 89 e5             	mov    %rsp,%rbp
    464a:	89 7d fc             	mov    %edi,-0x4(%rbp)
    464d:	89 75 f8             	mov    %esi,-0x8(%rbp)
    4650:	83 7d fc 00          	cmpl   $0x0,-0x4(%rbp)
    4654:	7e 14                	jle    466a <safe_mul_func_int32_t_s_s+0x28>
    4656:	83 7d f8 00          	cmpl   $0x0,-0x8(%rbp)
    465a:	7e 0e                	jle    466a <safe_mul_func_int32_t_s_s+0x28>
    465c:	b8 ff ff ff 7f       	mov    $0x7fffffff,%eax
    4661:	99                   	cltd   
    4662:	f7 7d f8             	idivl  -0x8(%rbp)
    4665:	39 45 fc             	cmp    %eax,-0x4(%rbp)
    4668:	7f 5d                	jg     46c7 <safe_mul_func_int32_t_s_s+0x85>
    466a:	83 7d fc 00          	cmpl   $0x0,-0x4(%rbp)
    466e:	7e 14                	jle    4684 <safe_mul_func_int32_t_s_s+0x42>
    4670:	83 7d f8 00          	cmpl   $0x0,-0x8(%rbp)
    4674:	7f 0e                	jg     4684 <safe_mul_func_int32_t_s_s+0x42>
    4676:	b8 00 00 00 80       	mov    $0x80000000,%eax
    467b:	99                   	cltd   
    467c:	f7 7d fc             	idivl  -0x4(%rbp)
    467f:	39 45 f8             	cmp    %eax,-0x8(%rbp)
    4682:	7c 43                	jl     46c7 <safe_mul_func_int32_t_s_s+0x85>
    4684:	83 7d fc 00          	cmpl   $0x0,-0x4(%rbp)
    4688:	7f 14                	jg     469e <safe_mul_func_int32_t_s_s+0x5c>
    468a:	83 7d f8 00          	cmpl   $0x0,-0x8(%rbp)
    468e:	7e 0e                	jle    469e <safe_mul_func_int32_t_s_s+0x5c>
    4690:	b8 00 00 00 80       	mov    $0x80000000,%eax
    4695:	99                   	cltd   
    4696:	f7 7d f8             	idivl  -0x8(%rbp)
    4699:	39 45 fc             	cmp    %eax,-0x4(%rbp)
    469c:	7c 29                	jl     46c7 <safe_mul_func_int32_t_s_s+0x85>
    469e:	83 7d fc 00          	cmpl   $0x0,-0x4(%rbp)
    46a2:	7f 1a                	jg     46be <safe_mul_func_int32_t_s_s+0x7c>
    46a4:	83 7d f8 00          	cmpl   $0x0,-0x8(%rbp)
    46a8:	7f 14                	jg     46be <safe_mul_func_int32_t_s_s+0x7c>
    46aa:	83 7d fc 00          	cmpl   $0x0,-0x4(%rbp)
    46ae:	74 0e                	je     46be <safe_mul_func_int32_t_s_s+0x7c>
    46b0:	b8 ff ff ff 7f       	mov    $0x7fffffff,%eax
    46b5:	99                   	cltd   
    46b6:	f7 7d fc             	idivl  -0x4(%rbp)
    46b9:	39 45 f8             	cmp    %eax,-0x8(%rbp)
    46bc:	7c 09                	jl     46c7 <safe_mul_func_int32_t_s_s+0x85>
    46be:	8b 45 fc             	mov    -0x4(%rbp),%eax
    46c1:	0f af 45 f8          	imul   -0x8(%rbp),%eax
    46c5:	eb 03                	jmp    46ca <safe_mul_func_int32_t_s_s+0x88>
    46c7:	8b 45 fc             	mov    -0x4(%rbp),%eax
    46ca:	5d                   	pop    %rbp
    46cb:	c3                   	retq   

00000000000046cc <safe_mod_func_int32_t_s_s>:
    46cc:	f3 0f 1e fa          	endbr64 
    46d0:	55                   	push   %rbp
    46d1:	48 89 e5             	mov    %rsp,%rbp
    46d4:	89 7d fc             	mov    %edi,-0x4(%rbp)
    46d7:	89 75 f8             	mov    %esi,-0x8(%rbp)
    46da:	83 7d f8 00          	cmpl   $0x0,-0x8(%rbp)
    46de:	74 1a                	je     46fa <safe_mod_func_int32_t_s_s+0x2e>
    46e0:	81 7d fc 00 00 00 80 	cmpl   $0x80000000,-0x4(%rbp)
    46e7:	75 06                	jne    46ef <safe_mod_func_int32_t_s_s+0x23>
    46e9:	83 7d f8 ff          	cmpl   $0xffffffff,-0x8(%rbp)
    46ed:	74 0b                	je     46fa <safe_mod_func_int32_t_s_s+0x2e>
    46ef:	8b 45 fc             	mov    -0x4(%rbp),%eax
    46f2:	99                   	cltd   
    46f3:	f7 7d f8             	idivl  -0x8(%rbp)
    46f6:	89 d0                	mov    %edx,%eax
    46f8:	eb 03                	jmp    46fd <safe_mod_func_int32_t_s_s+0x31>
    46fa:	8b 45 fc             	mov    -0x4(%rbp),%eax
    46fd:	5d                   	pop    %rbp
    46fe:	c3                   	retq   

00000000000046ff <safe_div_func_int32_t_s_s>:
    46ff:	f3 0f 1e fa          	endbr64 
    4703:	55                   	push   %rbp
    4704:	48 89 e5             	mov    %rsp,%rbp
    4707:	89 7d fc             	mov    %edi,-0x4(%rbp)
    470a:	89 75 f8             	mov    %esi,-0x8(%rbp)
    470d:	83 7d f8 00          	cmpl   $0x0,-0x8(%rbp)
    4711:	74 18                	je     472b <safe_div_func_int32_t_s_s+0x2c>
    4713:	81 7d fc 00 00 00 80 	cmpl   $0x80000000,-0x4(%rbp)
    471a:	75 06                	jne    4722 <safe_div_func_int32_t_s_s+0x23>
    471c:	83 7d f8 ff          	cmpl   $0xffffffff,-0x8(%rbp)
    4720:	74 09                	je     472b <safe_div_func_int32_t_s_s+0x2c>
    4722:	8b 45 fc             	mov    -0x4(%rbp),%eax
    4725:	99                   	cltd   
    4726:	f7 7d f8             	idivl  -0x8(%rbp)
    4729:	eb 03                	jmp    472e <safe_div_func_int32_t_s_s+0x2f>
    472b:	8b 45 fc             	mov    -0x4(%rbp),%eax
    472e:	5d                   	pop    %rbp
    472f:	c3                   	retq   

0000000000004730 <safe_lshift_func_int32_t_s_s>:
    4730:	f3 0f 1e fa          	endbr64 
    4734:	55                   	push   %rbp
    4735:	48 89 e5             	mov    %rsp,%rbp
    4738:	89 7d fc             	mov    %edi,-0x4(%rbp)
    473b:	89 75 f8             	mov    %esi,-0x8(%rbp)
    473e:	83 7d fc 00          	cmpl   $0x0,-0x4(%rbp)
    4742:	78 2d                	js     4771 <safe_lshift_func_int32_t_s_s+0x41>
    4744:	83 7d f8 00          	cmpl   $0x0,-0x8(%rbp)
    4748:	78 27                	js     4771 <safe_lshift_func_int32_t_s_s+0x41>
    474a:	83 7d f8 1f          	cmpl   $0x1f,-0x8(%rbp)
    474e:	7f 21                	jg     4771 <safe_lshift_func_int32_t_s_s+0x41>
    4750:	8b 45 f8             	mov    -0x8(%rbp),%eax
    4753:	ba ff ff ff 7f       	mov    $0x7fffffff,%edx
    4758:	89 c1                	mov    %eax,%ecx
    475a:	d3 fa                	sar    %cl,%edx
    475c:	89 d0                	mov    %edx,%eax
    475e:	39 45 fc             	cmp    %eax,-0x4(%rbp)
    4761:	7f 0e                	jg     4771 <safe_lshift_func_int32_t_s_s+0x41>
    4763:	8b 45 f8             	mov    -0x8(%rbp),%eax
    4766:	8b 55 fc             	mov    -0x4(%rbp),%edx
    4769:	89 c1                	mov    %eax,%ecx
    476b:	d3 e2                	shl    %cl,%edx
    476d:	89 d0                	mov    %edx,%eax
    476f:	eb 03                	jmp    4774 <safe_lshift_func_int32_t_s_s+0x44>
    4771:	8b 45 fc             	mov    -0x4(%rbp),%eax
    4774:	5d                   	pop    %rbp
    4775:	c3                   	retq   

0000000000004776 <safe_lshift_func_int32_t_s_u>:
    4776:	f3 0f 1e fa          	endbr64 
    477a:	55                   	push   %rbp
    477b:	48 89 e5             	mov    %rsp,%rbp
    477e:	89 7d fc             	mov    %edi,-0x4(%rbp)
    4781:	89 75 f8             	mov    %esi,-0x8(%rbp)
    4784:	83 7d fc 00          	cmpl   $0x0,-0x4(%rbp)
    4788:	78 27                	js     47b1 <safe_lshift_func_int32_t_s_u+0x3b>
    478a:	83 7d f8 1f          	cmpl   $0x1f,-0x8(%rbp)
    478e:	77 21                	ja     47b1 <safe_lshift_func_int32_t_s_u+0x3b>
    4790:	8b 45 f8             	mov    -0x8(%rbp),%eax
    4793:	ba ff ff ff 7f       	mov    $0x7fffffff,%edx
    4798:	89 c1                	mov    %eax,%ecx
    479a:	d3 fa                	sar    %cl,%edx
    479c:	89 d0                	mov    %edx,%eax
    479e:	39 45 fc             	cmp    %eax,-0x4(%rbp)
    47a1:	7f 0e                	jg     47b1 <safe_lshift_func_int32_t_s_u+0x3b>
    47a3:	8b 45 f8             	mov    -0x8(%rbp),%eax
    47a6:	8b 55 fc             	mov    -0x4(%rbp),%edx
    47a9:	89 c1                	mov    %eax,%ecx
    47ab:	d3 e2                	shl    %cl,%edx
    47ad:	89 d0                	mov    %edx,%eax
    47af:	eb 03                	jmp    47b4 <safe_lshift_func_int32_t_s_u+0x3e>
    47b1:	8b 45 fc             	mov    -0x4(%rbp),%eax
    47b4:	5d                   	pop    %rbp
    47b5:	c3                   	retq   

00000000000047b6 <safe_rshift_func_int32_t_s_s>:
    47b6:	f3 0f 1e fa          	endbr64 
    47ba:	55                   	push   %rbp
    47bb:	48 89 e5             	mov    %rsp,%rbp
    47be:	89 7d fc             	mov    %edi,-0x4(%rbp)
    47c1:	89 75 f8             	mov    %esi,-0x8(%rbp)
    47c4:	83 7d fc 00          	cmpl   $0x0,-0x4(%rbp)
    47c8:	78 1a                	js     47e4 <safe_rshift_func_int32_t_s_s+0x2e>
    47ca:	83 7d f8 00          	cmpl   $0x0,-0x8(%rbp)
    47ce:	78 14                	js     47e4 <safe_rshift_func_int32_t_s_s+0x2e>
    47d0:	83 7d f8 1f          	cmpl   $0x1f,-0x8(%rbp)
    47d4:	7f 0e                	jg     47e4 <safe_rshift_func_int32_t_s_s+0x2e>
    47d6:	8b 45 f8             	mov    -0x8(%rbp),%eax
    47d9:	8b 55 fc             	mov    -0x4(%rbp),%edx
    47dc:	89 c1                	mov    %eax,%ecx
    47de:	d3 fa                	sar    %cl,%edx
    47e0:	89 d0                	mov    %edx,%eax
    47e2:	eb 03                	jmp    47e7 <safe_rshift_func_int32_t_s_s+0x31>
    47e4:	8b 45 fc             	mov    -0x4(%rbp),%eax
    47e7:	5d                   	pop    %rbp
    47e8:	c3                   	retq   

00000000000047e9 <safe_rshift_func_int32_t_s_u>:
    47e9:	f3 0f 1e fa          	endbr64 
    47ed:	55                   	push   %rbp
    47ee:	48 89 e5             	mov    %rsp,%rbp
    47f1:	89 7d fc             	mov    %edi,-0x4(%rbp)
    47f4:	89 75 f8             	mov    %esi,-0x8(%rbp)
    47f7:	83 7d fc 00          	cmpl   $0x0,-0x4(%rbp)
    47fb:	78 14                	js     4811 <safe_rshift_func_int32_t_s_u+0x28>
    47fd:	83 7d f8 1f          	cmpl   $0x1f,-0x8(%rbp)
    4801:	77 0e                	ja     4811 <safe_rshift_func_int32_t_s_u+0x28>
    4803:	8b 45 f8             	mov    -0x8(%rbp),%eax
    4806:	8b 55 fc             	mov    -0x4(%rbp),%edx
    4809:	89 c1                	mov    %eax,%ecx
    480b:	d3 fa                	sar    %cl,%edx
    480d:	89 d0                	mov    %edx,%eax
    480f:	eb 03                	jmp    4814 <safe_rshift_func_int32_t_s_u+0x2b>
    4811:	8b 45 fc             	mov    -0x4(%rbp),%eax
    4814:	5d                   	pop    %rbp
    4815:	c3                   	retq   

0000000000004816 <safe_unary_minus_func_int64_t_s>:
    4816:	f3 0f 1e fa          	endbr64 
    481a:	55                   	push   %rbp
    481b:	48 89 e5             	mov    %rsp,%rbp
    481e:	48 89 7d f8          	mov    %rdi,-0x8(%rbp)
    4822:	48 b8 00 00 00 00 00 	movabs $0x8000000000000000,%rax
    4829:	00 00 80 
    482c:	48 39 45 f8          	cmp    %rax,-0x8(%rbp)
    4830:	74 09                	je     483b <safe_unary_minus_func_int64_t_s+0x25>
    4832:	48 8b 45 f8          	mov    -0x8(%rbp),%rax
    4836:	48 f7 d8             	neg    %rax
    4839:	eb 04                	jmp    483f <safe_unary_minus_func_int64_t_s+0x29>
    483b:	48 8b 45 f8          	mov    -0x8(%rbp),%rax
    483f:	5d                   	pop    %rbp
    4840:	c3                   	retq   

0000000000004841 <safe_add_func_int64_t_s_s>:
    4841:	f3 0f 1e fa          	endbr64 
    4845:	55                   	push   %rbp
    4846:	48 89 e5             	mov    %rsp,%rbp
    4849:	48 89 7d f8          	mov    %rdi,-0x8(%rbp)
    484d:	48 89 75 f0          	mov    %rsi,-0x10(%rbp)
    4851:	48 83 7d f8 00       	cmpq   $0x0,-0x8(%rbp)
    4856:	7e 1b                	jle    4873 <safe_add_func_int64_t_s_s+0x32>
    4858:	48 83 7d f0 00       	cmpq   $0x0,-0x10(%rbp)
    485d:	7e 14                	jle    4873 <safe_add_func_int64_t_s_s+0x32>
    485f:	48 b8 ff ff ff ff ff 	movabs $0x7fffffffffffffff,%rax
    4866:	ff ff 7f 
    4869:	48 2b 45 f0          	sub    -0x10(%rbp),%rax
    486d:	48 39 45 f8          	cmp    %rax,-0x8(%rbp)
    4871:	7f 2f                	jg     48a2 <safe_add_func_int64_t_s_s+0x61>
    4873:	48 83 7d f8 00       	cmpq   $0x0,-0x8(%rbp)
    4878:	79 1b                	jns    4895 <safe_add_func_int64_t_s_s+0x54>
    487a:	48 83 7d f0 00       	cmpq   $0x0,-0x10(%rbp)
    487f:	79 14                	jns    4895 <safe_add_func_int64_t_s_s+0x54>
    4881:	48 b8 00 00 00 00 00 	movabs $0x8000000000000000,%rax
    4888:	00 00 80 
    488b:	48 2b 45 f0          	sub    -0x10(%rbp),%rax
    488f:	48 39 45 f8          	cmp    %rax,-0x8(%rbp)
    4893:	7c 0d                	jl     48a2 <safe_add_func_int64_t_s_s+0x61>
    4895:	48 8b 55 f8          	mov    -0x8(%rbp),%rdx
    4899:	48 8b 45 f0          	mov    -0x10(%rbp),%rax
    489d:	48 01 d0             	add    %rdx,%rax
    48a0:	eb 04                	jmp    48a6 <safe_add_func_int64_t_s_s+0x65>
    48a2:	48 8b 45 f8          	mov    -0x8(%rbp),%rax
    48a6:	5d                   	pop    %rbp
    48a7:	c3                   	retq   

00000000000048a8 <safe_sub_func_int64_t_s_s>:
    48a8:	f3 0f 1e fa          	endbr64 
    48ac:	55                   	push   %rbp
    48ad:	48 89 e5             	mov    %rsp,%rbp
    48b0:	48 89 7d f8          	mov    %rdi,-0x8(%rbp)
    48b4:	48 89 75 f0          	mov    %rsi,-0x10(%rbp)
    48b8:	48 8b 45 f8          	mov    -0x8(%rbp),%rax
    48bc:	48 33 45 f0          	xor    -0x10(%rbp),%rax
    48c0:	48 89 c2             	mov    %rax,%rdx
    48c3:	48 8b 45 f8          	mov    -0x8(%rbp),%rax
    48c7:	48 33 45 f0          	xor    -0x10(%rbp),%rax
    48cb:	48 b9 00 00 00 00 00 	movabs $0x8000000000000000,%rcx
    48d2:	00 00 80 
    48d5:	48 21 c8             	and    %rcx,%rax
    48d8:	48 33 45 f8          	xor    -0x8(%rbp),%rax
    48dc:	48 2b 45 f0          	sub    -0x10(%rbp),%rax
    48e0:	48 33 45 f0          	xor    -0x10(%rbp),%rax
    48e4:	48 21 d0             	and    %rdx,%rax
    48e7:	48 85 c0             	test   %rax,%rax
    48ea:	78 0a                	js     48f6 <safe_sub_func_int64_t_s_s+0x4e>
    48ec:	48 8b 45 f8          	mov    -0x8(%rbp),%rax
    48f0:	48 2b 45 f0          	sub    -0x10(%rbp),%rax
    48f4:	eb 04                	jmp    48fa <safe_sub_func_int64_t_s_s+0x52>
    48f6:	48 8b 45 f8          	mov    -0x8(%rbp),%rax
    48fa:	5d                   	pop    %rbp
    48fb:	c3                   	retq   

00000000000048fc <safe_mul_func_int64_t_s_s>:
    48fc:	f3 0f 1e fa          	endbr64 
    4900:	55                   	push   %rbp
    4901:	48 89 e5             	mov    %rsp,%rbp
    4904:	48 89 7d f8          	mov    %rdi,-0x8(%rbp)
    4908:	48 89 75 f0          	mov    %rsi,-0x10(%rbp)
    490c:	48 83 7d f8 00       	cmpq   $0x0,-0x8(%rbp)
    4911:	7e 1d                	jle    4930 <safe_mul_func_int64_t_s_s+0x34>
    4913:	48 83 7d f0 00       	cmpq   $0x0,-0x10(%rbp)
    4918:	7e 16                	jle    4930 <safe_mul_func_int64_t_s_s+0x34>
    491a:	48 b8 ff ff ff ff ff 	movabs $0x7fffffffffffffff,%rax
    4921:	ff ff 7f 
    4924:	48 99                	cqto   
    4926:	48 f7 7d f0          	idivq  -0x10(%rbp)
    492a:	48 39 45 f8          	cmp    %rax,-0x8(%rbp)
    492e:	7f 7e                	jg     49ae <safe_mul_func_int64_t_s_s+0xb2>
    4930:	48 83 7d f8 00       	cmpq   $0x0,-0x8(%rbp)
    4935:	7e 1d                	jle    4954 <safe_mul_func_int64_t_s_s+0x58>
    4937:	48 83 7d f0 00       	cmpq   $0x0,-0x10(%rbp)
    493c:	7f 16                	jg     4954 <safe_mul_func_int64_t_s_s+0x58>
    493e:	48 b8 00 00 00 00 00 	movabs $0x8000000000000000,%rax
    4945:	00 00 80 
    4948:	48 99                	cqto   
    494a:	48 f7 7d f8          	idivq  -0x8(%rbp)
    494e:	48 39 45 f0          	cmp    %rax,-0x10(%rbp)
    4952:	7c 5a                	jl     49ae <safe_mul_func_int64_t_s_s+0xb2>
    4954:	48 83 7d f8 00       	cmpq   $0x0,-0x8(%rbp)
    4959:	7f 1d                	jg     4978 <safe_mul_func_int64_t_s_s+0x7c>
    495b:	48 83 7d f0 00       	cmpq   $0x0,-0x10(%rbp)
    4960:	7e 16                	jle    4978 <safe_mul_func_int64_t_s_s+0x7c>
    4962:	48 b8 00 00 00 00 00 	movabs $0x8000000000000000,%rax
    4969:	00 00 80 
    496c:	48 99                	cqto   
    496e:	48 f7 7d f0          	idivq  -0x10(%rbp)
    4972:	48 39 45 f8          	cmp    %rax,-0x8(%rbp)
    4976:	7c 36                	jl     49ae <safe_mul_func_int64_t_s_s+0xb2>
    4978:	48 83 7d f8 00       	cmpq   $0x0,-0x8(%rbp)
    497d:	7f 24                	jg     49a3 <safe_mul_func_int64_t_s_s+0xa7>
    497f:	48 83 7d f0 00       	cmpq   $0x0,-0x10(%rbp)
    4984:	7f 1d                	jg     49a3 <safe_mul_func_int64_t_s_s+0xa7>
    4986:	48 83 7d f8 00       	cmpq   $0x0,-0x8(%rbp)
    498b:	74 16                	je     49a3 <safe_mul_func_int64_t_s_s+0xa7>
    498d:	48 b8 ff ff ff ff ff 	movabs $0x7fffffffffffffff,%rax
    4994:	ff ff 7f 
    4997:	48 99                	cqto   
    4999:	48 f7 7d f8          	idivq  -0x8(%rbp)
    499d:	48 39 45 f0          	cmp    %rax,-0x10(%rbp)
    49a1:	7c 0b                	jl     49ae <safe_mul_func_int64_t_s_s+0xb2>
    49a3:	48 8b 45 f8          	mov    -0x8(%rbp),%rax
    49a7:	48 0f af 45 f0       	imul   -0x10(%rbp),%rax
    49ac:	eb 04                	jmp    49b2 <safe_mul_func_int64_t_s_s+0xb6>
    49ae:	48 8b 45 f8          	mov    -0x8(%rbp),%rax
    49b2:	5d                   	pop    %rbp
    49b3:	c3                   	retq   

00000000000049b4 <safe_mod_func_int64_t_s_s>:
    49b4:	f3 0f 1e fa          	endbr64 
    49b8:	55                   	push   %rbp
    49b9:	48 89 e5             	mov    %rsp,%rbp
    49bc:	48 89 7d f8          	mov    %rdi,-0x8(%rbp)
    49c0:	48 89 75 f0          	mov    %rsi,-0x10(%rbp)
    49c4:	48 83 7d f0 00       	cmpq   $0x0,-0x10(%rbp)
    49c9:	74 26                	je     49f1 <safe_mod_func_int64_t_s_s+0x3d>
    49cb:	48 b8 00 00 00 00 00 	movabs $0x8000000000000000,%rax
    49d2:	00 00 80 
    49d5:	48 39 45 f8          	cmp    %rax,-0x8(%rbp)
    49d9:	75 07                	jne    49e2 <safe_mod_func_int64_t_s_s+0x2e>
    49db:	48 83 7d f0 ff       	cmpq   $0xffffffffffffffff,-0x10(%rbp)
    49e0:	74 0f                	je     49f1 <safe_mod_func_int64_t_s_s+0x3d>
    49e2:	48 8b 45 f8          	mov    -0x8(%rbp),%rax
    49e6:	48 99                	cqto   
    49e8:	48 f7 7d f0          	idivq  -0x10(%rbp)
    49ec:	48 89 d0             	mov    %rdx,%rax
    49ef:	eb 04                	jmp    49f5 <safe_mod_func_int64_t_s_s+0x41>
    49f1:	48 8b 45 f8          	mov    -0x8(%rbp),%rax
    49f5:	5d                   	pop    %rbp
    49f6:	c3                   	retq   

00000000000049f7 <safe_div_func_int64_t_s_s>:
    49f7:	f3 0f 1e fa          	endbr64 
    49fb:	55                   	push   %rbp
    49fc:	48 89 e5             	mov    %rsp,%rbp
    49ff:	48 89 7d f8          	mov    %rdi,-0x8(%rbp)
    4a03:	48 89 75 f0          	mov    %rsi,-0x10(%rbp)
    4a07:	48 83 7d f0 00       	cmpq   $0x0,-0x10(%rbp)
    4a0c:	74 23                	je     4a31 <safe_div_func_int64_t_s_s+0x3a>
    4a0e:	48 b8 00 00 00 00 00 	movabs $0x8000000000000000,%rax
    4a15:	00 00 80 
    4a18:	48 39 45 f8          	cmp    %rax,-0x8(%rbp)
    4a1c:	75 07                	jne    4a25 <safe_div_func_int64_t_s_s+0x2e>
    4a1e:	48 83 7d f0 ff       	cmpq   $0xffffffffffffffff,-0x10(%rbp)
    4a23:	74 0c                	je     4a31 <safe_div_func_int64_t_s_s+0x3a>
    4a25:	48 8b 45 f8          	mov    -0x8(%rbp),%rax
    4a29:	48 99                	cqto   
    4a2b:	48 f7 7d f0          	idivq  -0x10(%rbp)
    4a2f:	eb 04                	jmp    4a35 <safe_div_func_int64_t_s_s+0x3e>
    4a31:	48 8b 45 f8          	mov    -0x8(%rbp),%rax
    4a35:	5d                   	pop    %rbp
    4a36:	c3                   	retq   

0000000000004a37 <safe_lshift_func_int64_t_s_s>:
    4a37:	f3 0f 1e fa          	endbr64 
    4a3b:	55                   	push   %rbp
    4a3c:	48 89 e5             	mov    %rsp,%rbp
    4a3f:	48 89 7d f8          	mov    %rdi,-0x8(%rbp)
    4a43:	89 75 f4             	mov    %esi,-0xc(%rbp)
    4a46:	48 83 7d f8 00       	cmpq   $0x0,-0x8(%rbp)
    4a4b:	78 38                	js     4a85 <safe_lshift_func_int64_t_s_s+0x4e>
    4a4d:	83 7d f4 00          	cmpl   $0x0,-0xc(%rbp)
    4a51:	78 32                	js     4a85 <safe_lshift_func_int64_t_s_s+0x4e>
    4a53:	83 7d f4 1f          	cmpl   $0x1f,-0xc(%rbp)
    4a57:	7f 2c                	jg     4a85 <safe_lshift_func_int64_t_s_s+0x4e>
    4a59:	8b 45 f4             	mov    -0xc(%rbp),%eax
    4a5c:	48 ba ff ff ff ff ff 	movabs $0x7fffffffffffffff,%rdx
    4a63:	ff ff 7f 
    4a66:	89 c1                	mov    %eax,%ecx
    4a68:	48 d3 fa             	sar    %cl,%rdx
    4a6b:	48 89 d0             	mov    %rdx,%rax
    4a6e:	48 39 45 f8          	cmp    %rax,-0x8(%rbp)
    4a72:	7f 11                	jg     4a85 <safe_lshift_func_int64_t_s_s+0x4e>
    4a74:	8b 45 f4             	mov    -0xc(%rbp),%eax
    4a77:	48 8b 55 f8          	mov    -0x8(%rbp),%rdx
    4a7b:	89 c1                	mov    %eax,%ecx
    4a7d:	48 d3 e2             	shl    %cl,%rdx
    4a80:	48 89 d0             	mov    %rdx,%rax
    4a83:	eb 04                	jmp    4a89 <safe_lshift_func_int64_t_s_s+0x52>
    4a85:	48 8b 45 f8          	mov    -0x8(%rbp),%rax
    4a89:	5d                   	pop    %rbp
    4a8a:	c3                   	retq   

0000000000004a8b <safe_lshift_func_int64_t_s_u>:
    4a8b:	f3 0f 1e fa          	endbr64 
    4a8f:	55                   	push   %rbp
    4a90:	48 89 e5             	mov    %rsp,%rbp
    4a93:	48 89 7d f8          	mov    %rdi,-0x8(%rbp)
    4a97:	89 75 f4             	mov    %esi,-0xc(%rbp)
    4a9a:	48 83 7d f8 00       	cmpq   $0x0,-0x8(%rbp)
    4a9f:	78 32                	js     4ad3 <safe_lshift_func_int64_t_s_u+0x48>
    4aa1:	83 7d f4 1f          	cmpl   $0x1f,-0xc(%rbp)
    4aa5:	77 2c                	ja     4ad3 <safe_lshift_func_int64_t_s_u+0x48>
    4aa7:	8b 45 f4             	mov    -0xc(%rbp),%eax
    4aaa:	48 ba ff ff ff ff ff 	movabs $0x7fffffffffffffff,%rdx
    4ab1:	ff ff 7f 
    4ab4:	89 c1                	mov    %eax,%ecx
    4ab6:	48 d3 fa             	sar    %cl,%rdx
    4ab9:	48 89 d0             	mov    %rdx,%rax
    4abc:	48 39 45 f8          	cmp    %rax,-0x8(%rbp)
    4ac0:	7f 11                	jg     4ad3 <safe_lshift_func_int64_t_s_u+0x48>
    4ac2:	8b 45 f4             	mov    -0xc(%rbp),%eax
    4ac5:	48 8b 55 f8          	mov    -0x8(%rbp),%rdx
    4ac9:	89 c1                	mov    %eax,%ecx
    4acb:	48 d3 e2             	shl    %cl,%rdx
    4ace:	48 89 d0             	mov    %rdx,%rax
    4ad1:	eb 04                	jmp    4ad7 <safe_lshift_func_int64_t_s_u+0x4c>
    4ad3:	48 8b 45 f8          	mov    -0x8(%rbp),%rax
    4ad7:	5d                   	pop    %rbp
    4ad8:	c3                   	retq   

0000000000004ad9 <safe_rshift_func_int64_t_s_s>:
    4ad9:	f3 0f 1e fa          	endbr64 
    4add:	55                   	push   %rbp
    4ade:	48 89 e5             	mov    %rsp,%rbp
    4ae1:	48 89 7d f8          	mov    %rdi,-0x8(%rbp)
    4ae5:	89 75 f4             	mov    %esi,-0xc(%rbp)
    4ae8:	48 83 7d f8 00       	cmpq   $0x0,-0x8(%rbp)
    4aed:	78 1d                	js     4b0c <safe_rshift_func_int64_t_s_s+0x33>
    4aef:	83 7d f4 00          	cmpl   $0x0,-0xc(%rbp)
    4af3:	78 17                	js     4b0c <safe_rshift_func_int64_t_s_s+0x33>
    4af5:	83 7d f4 1f          	cmpl   $0x1f,-0xc(%rbp)
    4af9:	7f 11                	jg     4b0c <safe_rshift_func_int64_t_s_s+0x33>
    4afb:	8b 45 f4             	mov    -0xc(%rbp),%eax
    4afe:	48 8b 55 f8          	mov    -0x8(%rbp),%rdx
    4b02:	89 c1                	mov    %eax,%ecx
    4b04:	48 d3 fa             	sar    %cl,%rdx
    4b07:	48 89 d0             	mov    %rdx,%rax
    4b0a:	eb 04                	jmp    4b10 <safe_rshift_func_int64_t_s_s+0x37>
    4b0c:	48 8b 45 f8          	mov    -0x8(%rbp),%rax
    4b10:	5d                   	pop    %rbp
    4b11:	c3                   	retq   

0000000000004b12 <safe_rshift_func_int64_t_s_u>:
    4b12:	f3 0f 1e fa          	endbr64 
    4b16:	55                   	push   %rbp
    4b17:	48 89 e5             	mov    %rsp,%rbp
    4b1a:	48 89 7d f8          	mov    %rdi,-0x8(%rbp)
    4b1e:	89 75 f4             	mov    %esi,-0xc(%rbp)
    4b21:	48 83 7d f8 00       	cmpq   $0x0,-0x8(%rbp)
    4b26:	78 17                	js     4b3f <safe_rshift_func_int64_t_s_u+0x2d>
    4b28:	83 7d f4 1f          	cmpl   $0x1f,-0xc(%rbp)
    4b2c:	77 11                	ja     4b3f <safe_rshift_func_int64_t_s_u+0x2d>
    4b2e:	8b 45 f4             	mov    -0xc(%rbp),%eax
    4b31:	48 8b 55 f8          	mov    -0x8(%rbp),%rdx
    4b35:	89 c1                	mov    %eax,%ecx
    4b37:	48 d3 fa             	sar    %cl,%rdx
    4b3a:	48 89 d0             	mov    %rdx,%rax
    4b3d:	eb 04                	jmp    4b43 <safe_rshift_func_int64_t_s_u+0x31>
    4b3f:	48 8b 45 f8          	mov    -0x8(%rbp),%rax
    4b43:	5d                   	pop    %rbp
    4b44:	c3                   	retq   

0000000000004b45 <safe_unary_minus_func_uint8_t_u>:
    4b45:	f3 0f 1e fa          	endbr64 
    4b49:	55                   	push   %rbp
    4b4a:	48 89 e5             	mov    %rsp,%rbp
    4b4d:	89 f8                	mov    %edi,%eax
    4b4f:	88 45 fc             	mov    %al,-0x4(%rbp)
    4b52:	0f b6 45 fc          	movzbl -0x4(%rbp),%eax
    4b56:	f7 d8                	neg    %eax
    4b58:	5d                   	pop    %rbp
    4b59:	c3                   	retq   

0000000000004b5a <safe_add_func_uint8_t_u_u>:
    4b5a:	f3 0f 1e fa          	endbr64 
    4b5e:	55                   	push   %rbp
    4b5f:	48 89 e5             	mov    %rsp,%rbp
    4b62:	89 fa                	mov    %edi,%edx
    4b64:	89 f0                	mov    %esi,%eax
    4b66:	88 55 fc             	mov    %dl,-0x4(%rbp)
    4b69:	88 45 f8             	mov    %al,-0x8(%rbp)
    4b6c:	0f b6 55 fc          	movzbl -0x4(%rbp),%edx
    4b70:	0f b6 45 f8          	movzbl -0x8(%rbp),%eax
    4b74:	01 d0                	add    %edx,%eax
    4b76:	5d                   	pop    %rbp
    4b77:	c3                   	retq   

0000000000004b78 <safe_sub_func_uint8_t_u_u>:
    4b78:	f3 0f 1e fa          	endbr64 
    4b7c:	55                   	push   %rbp
    4b7d:	48 89 e5             	mov    %rsp,%rbp
    4b80:	89 fa                	mov    %edi,%edx
    4b82:	89 f0                	mov    %esi,%eax
    4b84:	88 55 fc             	mov    %dl,-0x4(%rbp)
    4b87:	88 45 f8             	mov    %al,-0x8(%rbp)
    4b8a:	0f b6 45 fc          	movzbl -0x4(%rbp),%eax
    4b8e:	2a 45 f8             	sub    -0x8(%rbp),%al
    4b91:	5d                   	pop    %rbp
    4b92:	c3                   	retq   

0000000000004b93 <safe_mul_func_uint8_t_u_u>:
    4b93:	f3 0f 1e fa          	endbr64 
    4b97:	55                   	push   %rbp
    4b98:	48 89 e5             	mov    %rsp,%rbp
    4b9b:	89 fa                	mov    %edi,%edx
    4b9d:	89 f0                	mov    %esi,%eax
    4b9f:	88 55 fc             	mov    %dl,-0x4(%rbp)
    4ba2:	88 45 f8             	mov    %al,-0x8(%rbp)
    4ba5:	0f b6 45 fc          	movzbl -0x4(%rbp),%eax
    4ba9:	f6 65 f8             	mulb   -0x8(%rbp)
    4bac:	5d                   	pop    %rbp
    4bad:	c3                   	retq   

0000000000004bae <safe_mod_func_uint8_t_u_u>:
    4bae:	f3 0f 1e fa          	endbr64 
    4bb2:	55                   	push   %rbp
    4bb3:	48 89 e5             	mov    %rsp,%rbp
    4bb6:	89 fa                	mov    %edi,%edx
    4bb8:	89 f0                	mov    %esi,%eax
    4bba:	88 55 fc             	mov    %dl,-0x4(%rbp)
    4bbd:	88 45 f8             	mov    %al,-0x8(%rbp)
    4bc0:	80 7d f8 00          	cmpb   $0x0,-0x8(%rbp)
    4bc4:	74 0f                	je     4bd5 <safe_mod_func_uint8_t_u_u+0x27>
    4bc6:	0f b6 45 fc          	movzbl -0x4(%rbp),%eax
    4bca:	0f b6 c0             	movzbl %al,%eax
    4bcd:	f6 75 f8             	divb   -0x8(%rbp)
    4bd0:	0f b6 c4             	movzbl %ah,%eax
    4bd3:	eb 04                	jmp    4bd9 <safe_mod_func_uint8_t_u_u+0x2b>
    4bd5:	0f b6 45 fc          	movzbl -0x4(%rbp),%eax
    4bd9:	5d                   	pop    %rbp
    4bda:	c3                   	retq   

0000000000004bdb <safe_div_func_uint8_t_u_u>:
    4bdb:	f3 0f 1e fa          	endbr64 
    4bdf:	55                   	push   %rbp
    4be0:	48 89 e5             	mov    %rsp,%rbp
    4be3:	89 fa                	mov    %edi,%edx
    4be5:	89 f0                	mov    %esi,%eax
    4be7:	88 55 fc             	mov    %dl,-0x4(%rbp)
    4bea:	88 45 f8             	mov    %al,-0x8(%rbp)
    4bed:	80 7d f8 00          	cmpb   $0x0,-0x8(%rbp)
    4bf1:	74 0c                	je     4bff <safe_div_func_uint8_t_u_u+0x24>
    4bf3:	0f b6 45 fc          	movzbl -0x4(%rbp),%eax
    4bf7:	0f b6 c0             	movzbl %al,%eax
    4bfa:	f6 75 f8             	divb   -0x8(%rbp)
    4bfd:	eb 04                	jmp    4c03 <safe_div_func_uint8_t_u_u+0x28>
    4bff:	0f b6 45 fc          	movzbl -0x4(%rbp),%eax
    4c03:	5d                   	pop    %rbp
    4c04:	c3                   	retq   

0000000000004c05 <safe_lshift_func_uint8_t_u_s>:
    4c05:	f3 0f 1e fa          	endbr64 
    4c09:	55                   	push   %rbp
    4c0a:	48 89 e5             	mov    %rsp,%rbp
    4c0d:	89 f8                	mov    %edi,%eax
    4c0f:	89 75 f8             	mov    %esi,-0x8(%rbp)
    4c12:	88 45 fc             	mov    %al,-0x4(%rbp)
    4c15:	83 7d f8 00          	cmpl   $0x0,-0x8(%rbp)
    4c19:	78 2b                	js     4c46 <safe_lshift_func_uint8_t_u_s+0x41>
    4c1b:	83 7d f8 1f          	cmpl   $0x1f,-0x8(%rbp)
    4c1f:	7f 25                	jg     4c46 <safe_lshift_func_uint8_t_u_s+0x41>
    4c21:	0f b6 55 fc          	movzbl -0x4(%rbp),%edx
    4c25:	8b 45 f8             	mov    -0x8(%rbp),%eax
    4c28:	be ff 00 00 00       	mov    $0xff,%esi
    4c2d:	89 c1                	mov    %eax,%ecx
    4c2f:	d3 fe                	sar    %cl,%esi
    4c31:	89 f0                	mov    %esi,%eax
    4c33:	39 c2                	cmp    %eax,%edx
    4c35:	7f 0f                	jg     4c46 <safe_lshift_func_uint8_t_u_s+0x41>
    4c37:	0f b6 55 fc          	movzbl -0x4(%rbp),%edx
    4c3b:	8b 45 f8             	mov    -0x8(%rbp),%eax
    4c3e:	89 c1                	mov    %eax,%ecx
    4c40:	d3 e2                	shl    %cl,%edx
    4c42:	89 d0                	mov    %edx,%eax
    4c44:	eb 04                	jmp    4c4a <safe_lshift_func_uint8_t_u_s+0x45>
    4c46:	0f b6 45 fc          	movzbl -0x4(%rbp),%eax
    4c4a:	5d                   	pop    %rbp
    4c4b:	c3                   	retq   

0000000000004c4c <safe_lshift_func_uint8_t_u_u>:
    4c4c:	f3 0f 1e fa          	endbr64 
    4c50:	55                   	push   %rbp
    4c51:	48 89 e5             	mov    %rsp,%rbp
    4c54:	89 f8                	mov    %edi,%eax
    4c56:	89 75 f8             	mov    %esi,-0x8(%rbp)
    4c59:	88 45 fc             	mov    %al,-0x4(%rbp)
    4c5c:	83 7d f8 1f          	cmpl   $0x1f,-0x8(%rbp)
    4c60:	77 25                	ja     4c87 <safe_lshift_func_uint8_t_u_u+0x3b>
    4c62:	0f b6 55 fc          	movzbl -0x4(%rbp),%edx
    4c66:	8b 45 f8             	mov    -0x8(%rbp),%eax
    4c69:	be ff 00 00 00       	mov    $0xff,%esi
    4c6e:	89 c1                	mov    %eax,%ecx
    4c70:	d3 fe                	sar    %cl,%esi
    4c72:	89 f0                	mov    %esi,%eax
    4c74:	39 c2                	cmp    %eax,%edx
    4c76:	7f 0f                	jg     4c87 <safe_lshift_func_uint8_t_u_u+0x3b>
    4c78:	0f b6 55 fc          	movzbl -0x4(%rbp),%edx
    4c7c:	8b 45 f8             	mov    -0x8(%rbp),%eax
    4c7f:	89 c1                	mov    %eax,%ecx
    4c81:	d3 e2                	shl    %cl,%edx
    4c83:	89 d0                	mov    %edx,%eax
    4c85:	eb 04                	jmp    4c8b <safe_lshift_func_uint8_t_u_u+0x3f>
    4c87:	0f b6 45 fc          	movzbl -0x4(%rbp),%eax
    4c8b:	5d                   	pop    %rbp
    4c8c:	c3                   	retq   

0000000000004c8d <safe_rshift_func_uint8_t_u_s>:
    4c8d:	f3 0f 1e fa          	endbr64 
    4c91:	55                   	push   %rbp
    4c92:	48 89 e5             	mov    %rsp,%rbp
    4c95:	89 f8                	mov    %edi,%eax
    4c97:	89 75 f8             	mov    %esi,-0x8(%rbp)
    4c9a:	88 45 fc             	mov    %al,-0x4(%rbp)
    4c9d:	83 7d f8 00          	cmpl   $0x0,-0x8(%rbp)
    4ca1:	78 15                	js     4cb8 <safe_rshift_func_uint8_t_u_s+0x2b>
    4ca3:	83 7d f8 1f          	cmpl   $0x1f,-0x8(%rbp)
    4ca7:	7f 0f                	jg     4cb8 <safe_rshift_func_uint8_t_u_s+0x2b>
    4ca9:	0f b6 55 fc          	movzbl -0x4(%rbp),%edx
    4cad:	8b 45 f8             	mov    -0x8(%rbp),%eax
    4cb0:	89 c1                	mov    %eax,%ecx
    4cb2:	d3 fa                	sar    %cl,%edx
    4cb4:	89 d0                	mov    %edx,%eax
    4cb6:	eb 04                	jmp    4cbc <safe_rshift_func_uint8_t_u_s+0x2f>
    4cb8:	0f b6 45 fc          	movzbl -0x4(%rbp),%eax
    4cbc:	5d                   	pop    %rbp
    4cbd:	c3                   	retq   

0000000000004cbe <safe_rshift_func_uint8_t_u_u>:
    4cbe:	f3 0f 1e fa          	endbr64 
    4cc2:	55                   	push   %rbp
    4cc3:	48 89 e5             	mov    %rsp,%rbp
    4cc6:	89 f8                	mov    %edi,%eax
    4cc8:	89 75 f8             	mov    %esi,-0x8(%rbp)
    4ccb:	88 45 fc             	mov    %al,-0x4(%rbp)
    4cce:	83 7d f8 1f          	cmpl   $0x1f,-0x8(%rbp)
    4cd2:	77 0f                	ja     4ce3 <safe_rshift_func_uint8_t_u_u+0x25>
    4cd4:	0f b6 55 fc          	movzbl -0x4(%rbp),%edx
    4cd8:	8b 45 f8             	mov    -0x8(%rbp),%eax
    4cdb:	89 c1                	mov    %eax,%ecx
    4cdd:	d3 fa                	sar    %cl,%edx
    4cdf:	89 d0                	mov    %edx,%eax
    4ce1:	eb 04                	jmp    4ce7 <safe_rshift_func_uint8_t_u_u+0x29>
    4ce3:	0f b6 45 fc          	movzbl -0x4(%rbp),%eax
    4ce7:	5d                   	pop    %rbp
    4ce8:	c3                   	retq   

0000000000004ce9 <safe_unary_minus_func_uint16_t_u>:
    4ce9:	f3 0f 1e fa          	endbr64 
    4ced:	55                   	push   %rbp
    4cee:	48 89 e5             	mov    %rsp,%rbp
    4cf1:	89 f8                	mov    %edi,%eax
    4cf3:	66 89 45 fc          	mov    %ax,-0x4(%rbp)
    4cf7:	0f b7 45 fc          	movzwl -0x4(%rbp),%eax
    4cfb:	f7 d8                	neg    %eax
    4cfd:	5d                   	pop    %rbp
    4cfe:	c3                   	retq   

0000000000004cff <safe_add_func_uint16_t_u_u>:
    4cff:	f3 0f 1e fa          	endbr64 
    4d03:	55                   	push   %rbp
    4d04:	48 89 e5             	mov    %rsp,%rbp
    4d07:	89 fa                	mov    %edi,%edx
    4d09:	89 f0                	mov    %esi,%eax
    4d0b:	66 89 55 fc          	mov    %dx,-0x4(%rbp)
    4d0f:	66 89 45 f8          	mov    %ax,-0x8(%rbp)
    4d13:	0f b7 55 fc          	movzwl -0x4(%rbp),%edx
    4d17:	0f b7 45 f8          	movzwl -0x8(%rbp),%eax
    4d1b:	01 d0                	add    %edx,%eax
    4d1d:	5d                   	pop    %rbp
    4d1e:	c3                   	retq   

0000000000004d1f <safe_sub_func_uint16_t_u_u>:
    4d1f:	f3 0f 1e fa          	endbr64 
    4d23:	55                   	push   %rbp
    4d24:	48 89 e5             	mov    %rsp,%rbp
    4d27:	89 fa                	mov    %edi,%edx
    4d29:	89 f0                	mov    %esi,%eax
    4d2b:	66 89 55 fc          	mov    %dx,-0x4(%rbp)
    4d2f:	66 89 45 f8          	mov    %ax,-0x8(%rbp)
    4d33:	0f b7 45 fc          	movzwl -0x4(%rbp),%eax
    4d37:	66 2b 45 f8          	sub    -0x8(%rbp),%ax
    4d3b:	5d                   	pop    %rbp
    4d3c:	c3                   	retq   

0000000000004d3d <safe_mul_func_uint16_t_u_u>:
    4d3d:	f3 0f 1e fa          	endbr64 
    4d41:	55                   	push   %rbp
    4d42:	48 89 e5             	mov    %rsp,%rbp
    4d45:	89 fa                	mov    %edi,%edx
    4d47:	89 f0                	mov    %esi,%eax
    4d49:	66 89 55 fc          	mov    %dx,-0x4(%rbp)
    4d4d:	66 89 45 f8          	mov    %ax,-0x8(%rbp)
    4d51:	0f b7 45 fc          	movzwl -0x4(%rbp),%eax
    4d55:	66 0f af 45 f8       	imul   -0x8(%rbp),%ax
    4d5a:	5d                   	pop    %rbp
    4d5b:	c3                   	retq   

0000000000004d5c <safe_mod_func_uint16_t_u_u>:
    4d5c:	f3 0f 1e fa          	endbr64 
    4d60:	55                   	push   %rbp
    4d61:	48 89 e5             	mov    %rsp,%rbp
    4d64:	89 fa                	mov    %edi,%edx
    4d66:	89 f0                	mov    %esi,%eax
    4d68:	66 89 55 fc          	mov    %dx,-0x4(%rbp)
    4d6c:	66 89 45 f8          	mov    %ax,-0x8(%rbp)
    4d70:	66 83 7d f8 00       	cmpw   $0x0,-0x8(%rbp)
    4d75:	74 11                	je     4d88 <safe_mod_func_uint16_t_u_u+0x2c>
    4d77:	0f b7 45 fc          	movzwl -0x4(%rbp),%eax
    4d7b:	ba 00 00 00 00       	mov    $0x0,%edx
    4d80:	66 f7 75 f8          	divw   -0x8(%rbp)
    4d84:	89 d0                	mov    %edx,%eax
    4d86:	eb 04                	jmp    4d8c <safe_mod_func_uint16_t_u_u+0x30>
    4d88:	0f b7 45 fc          	movzwl -0x4(%rbp),%eax
    4d8c:	5d                   	pop    %rbp
    4d8d:	c3                   	retq   

0000000000004d8e <safe_div_func_uint16_t_u_u>:
    4d8e:	f3 0f 1e fa          	endbr64 
    4d92:	55                   	push   %rbp
    4d93:	48 89 e5             	mov    %rsp,%rbp
    4d96:	89 fa                	mov    %edi,%edx
    4d98:	89 f0                	mov    %esi,%eax
    4d9a:	66 89 55 fc          	mov    %dx,-0x4(%rbp)
    4d9e:	66 89 45 f8          	mov    %ax,-0x8(%rbp)
    4da2:	66 83 7d f8 00       	cmpw   $0x0,-0x8(%rbp)
    4da7:	74 0f                	je     4db8 <safe_div_func_uint16_t_u_u+0x2a>
    4da9:	0f b7 45 fc          	movzwl -0x4(%rbp),%eax
    4dad:	ba 00 00 00 00       	mov    $0x0,%edx
    4db2:	66 f7 75 f8          	divw   -0x8(%rbp)
    4db6:	eb 04                	jmp    4dbc <safe_div_func_uint16_t_u_u+0x2e>
    4db8:	0f b7 45 fc          	movzwl -0x4(%rbp),%eax
    4dbc:	5d                   	pop    %rbp
    4dbd:	c3                   	retq   

0000000000004dbe <safe_lshift_func_uint16_t_u_s>:
    4dbe:	f3 0f 1e fa          	endbr64 
    4dc2:	55                   	push   %rbp
    4dc3:	48 89 e5             	mov    %rsp,%rbp
    4dc6:	89 f8                	mov    %edi,%eax
    4dc8:	89 75 f8             	mov    %esi,-0x8(%rbp)
    4dcb:	66 89 45 fc          	mov    %ax,-0x4(%rbp)
    4dcf:	83 7d f8 00          	cmpl   $0x0,-0x8(%rbp)
    4dd3:	78 2b                	js     4e00 <safe_lshift_func_uint16_t_u_s+0x42>
    4dd5:	83 7d f8 1f          	cmpl   $0x1f,-0x8(%rbp)
    4dd9:	7f 25                	jg     4e00 <safe_lshift_func_uint16_t_u_s+0x42>
    4ddb:	0f b7 55 fc          	movzwl -0x4(%rbp),%edx
    4ddf:	8b 45 f8             	mov    -0x8(%rbp),%eax
    4de2:	be ff ff 00 00       	mov    $0xffff,%esi
    4de7:	89 c1                	mov    %eax,%ecx
    4de9:	d3 fe                	sar    %cl,%esi
    4deb:	89 f0                	mov    %esi,%eax
    4ded:	39 c2                	cmp    %eax,%edx
    4def:	7f 0f                	jg     4e00 <safe_lshift_func_uint16_t_u_s+0x42>
    4df1:	0f b7 55 fc          	movzwl -0x4(%rbp),%edx
    4df5:	8b 45 f8             	mov    -0x8(%rbp),%eax
    4df8:	89 c1                	mov    %eax,%ecx
    4dfa:	d3 e2                	shl    %cl,%edx
    4dfc:	89 d0                	mov    %edx,%eax
    4dfe:	eb 04                	jmp    4e04 <safe_lshift_func_uint16_t_u_s+0x46>
    4e00:	0f b7 45 fc          	movzwl -0x4(%rbp),%eax
    4e04:	5d                   	pop    %rbp
    4e05:	c3                   	retq   

0000000000004e06 <safe_lshift_func_uint16_t_u_u>:
    4e06:	f3 0f 1e fa          	endbr64 
    4e0a:	55                   	push   %rbp
    4e0b:	48 89 e5             	mov    %rsp,%rbp
    4e0e:	89 f8                	mov    %edi,%eax
    4e10:	89 75 f8             	mov    %esi,-0x8(%rbp)
    4e13:	66 89 45 fc          	mov    %ax,-0x4(%rbp)
    4e17:	83 7d f8 1f          	cmpl   $0x1f,-0x8(%rbp)
    4e1b:	77 25                	ja     4e42 <safe_lshift_func_uint16_t_u_u+0x3c>
    4e1d:	0f b7 55 fc          	movzwl -0x4(%rbp),%edx
    4e21:	8b 45 f8             	mov    -0x8(%rbp),%eax
    4e24:	be ff ff 00 00       	mov    $0xffff,%esi
    4e29:	89 c1                	mov    %eax,%ecx
    4e2b:	d3 fe                	sar    %cl,%esi
    4e2d:	89 f0                	mov    %esi,%eax
    4e2f:	39 c2                	cmp    %eax,%edx
    4e31:	7f 0f                	jg     4e42 <safe_lshift_func_uint16_t_u_u+0x3c>
    4e33:	0f b7 55 fc          	movzwl -0x4(%rbp),%edx
    4e37:	8b 45 f8             	mov    -0x8(%rbp),%eax
    4e3a:	89 c1                	mov    %eax,%ecx
    4e3c:	d3 e2                	shl    %cl,%edx
    4e3e:	89 d0                	mov    %edx,%eax
    4e40:	eb 04                	jmp    4e46 <safe_lshift_func_uint16_t_u_u+0x40>
    4e42:	0f b7 45 fc          	movzwl -0x4(%rbp),%eax
    4e46:	5d                   	pop    %rbp
    4e47:	c3                   	retq   

0000000000004e48 <safe_rshift_func_uint16_t_u_s>:
    4e48:	f3 0f 1e fa          	endbr64 
    4e4c:	55                   	push   %rbp
    4e4d:	48 89 e5             	mov    %rsp,%rbp
    4e50:	89 f8                	mov    %edi,%eax
    4e52:	89 75 f8             	mov    %esi,-0x8(%rbp)
    4e55:	66 89 45 fc          	mov    %ax,-0x4(%rbp)
    4e59:	83 7d f8 00          	cmpl   $0x0,-0x8(%rbp)
    4e5d:	78 15                	js     4e74 <safe_rshift_func_uint16_t_u_s+0x2c>
    4e5f:	83 7d f8 1f          	cmpl   $0x1f,-0x8(%rbp)
    4e63:	7f 0f                	jg     4e74 <safe_rshift_func_uint16_t_u_s+0x2c>
    4e65:	0f b7 55 fc          	movzwl -0x4(%rbp),%edx
    4e69:	8b 45 f8             	mov    -0x8(%rbp),%eax
    4e6c:	89 c1                	mov    %eax,%ecx
    4e6e:	d3 fa                	sar    %cl,%edx
    4e70:	89 d0                	mov    %edx,%eax
    4e72:	eb 04                	jmp    4e78 <safe_rshift_func_uint16_t_u_s+0x30>
    4e74:	0f b7 45 fc          	movzwl -0x4(%rbp),%eax
    4e78:	5d                   	pop    %rbp
    4e79:	c3                   	retq   

0000000000004e7a <safe_rshift_func_uint16_t_u_u>:
    4e7a:	f3 0f 1e fa          	endbr64 
    4e7e:	55                   	push   %rbp
    4e7f:	48 89 e5             	mov    %rsp,%rbp
    4e82:	89 f8                	mov    %edi,%eax
    4e84:	89 75 f8             	mov    %esi,-0x8(%rbp)
    4e87:	66 89 45 fc          	mov    %ax,-0x4(%rbp)
    4e8b:	83 7d f8 1f          	cmpl   $0x1f,-0x8(%rbp)
    4e8f:	77 0f                	ja     4ea0 <safe_rshift_func_uint16_t_u_u+0x26>
    4e91:	0f b7 55 fc          	movzwl -0x4(%rbp),%edx
    4e95:	8b 45 f8             	mov    -0x8(%rbp),%eax
    4e98:	89 c1                	mov    %eax,%ecx
    4e9a:	d3 fa                	sar    %cl,%edx
    4e9c:	89 d0                	mov    %edx,%eax
    4e9e:	eb 04                	jmp    4ea4 <safe_rshift_func_uint16_t_u_u+0x2a>
    4ea0:	0f b7 45 fc          	movzwl -0x4(%rbp),%eax
    4ea4:	5d                   	pop    %rbp
    4ea5:	c3                   	retq   

0000000000004ea6 <safe_unary_minus_func_uint32_t_u>:
    4ea6:	f3 0f 1e fa          	endbr64 
    4eaa:	55                   	push   %rbp
    4eab:	48 89 e5             	mov    %rsp,%rbp
    4eae:	89 7d fc             	mov    %edi,-0x4(%rbp)
    4eb1:	8b 45 fc             	mov    -0x4(%rbp),%eax
    4eb4:	f7 d8                	neg    %eax
    4eb6:	5d                   	pop    %rbp
    4eb7:	c3                   	retq   

0000000000004eb8 <safe_add_func_uint32_t_u_u>:
    4eb8:	f3 0f 1e fa          	endbr64 
    4ebc:	55                   	push   %rbp
    4ebd:	48 89 e5             	mov    %rsp,%rbp
    4ec0:	89 7d fc             	mov    %edi,-0x4(%rbp)
    4ec3:	89 75 f8             	mov    %esi,-0x8(%rbp)
    4ec6:	8b 55 fc             	mov    -0x4(%rbp),%edx
    4ec9:	8b 45 f8             	mov    -0x8(%rbp),%eax
    4ecc:	01 d0                	add    %edx,%eax
    4ece:	5d                   	pop    %rbp
    4ecf:	c3                   	retq   

0000000000004ed0 <safe_sub_func_uint32_t_u_u>:
    4ed0:	f3 0f 1e fa          	endbr64 
    4ed4:	55                   	push   %rbp
    4ed5:	48 89 e5             	mov    %rsp,%rbp
    4ed8:	89 7d fc             	mov    %edi,-0x4(%rbp)
    4edb:	89 75 f8             	mov    %esi,-0x8(%rbp)
    4ede:	8b 45 fc             	mov    -0x4(%rbp),%eax
    4ee1:	2b 45 f8             	sub    -0x8(%rbp),%eax
    4ee4:	5d                   	pop    %rbp
    4ee5:	c3                   	retq   

0000000000004ee6 <safe_mul_func_uint32_t_u_u>:
    4ee6:	f3 0f 1e fa          	endbr64 
    4eea:	55                   	push   %rbp
    4eeb:	48 89 e5             	mov    %rsp,%rbp
    4eee:	89 7d fc             	mov    %edi,-0x4(%rbp)
    4ef1:	89 75 f8             	mov    %esi,-0x8(%rbp)
    4ef4:	8b 45 fc             	mov    -0x4(%rbp),%eax
    4ef7:	0f af 45 f8          	imul   -0x8(%rbp),%eax
    4efb:	5d                   	pop    %rbp
    4efc:	c3                   	retq   

0000000000004efd <safe_mod_func_uint32_t_u_u>:
    4efd:	f3 0f 1e fa          	endbr64 
    4f01:	55                   	push   %rbp
    4f02:	48 89 e5             	mov    %rsp,%rbp
    4f05:	89 7d fc             	mov    %edi,-0x4(%rbp)
    4f08:	89 75 f8             	mov    %esi,-0x8(%rbp)
    4f0b:	83 7d f8 00          	cmpl   $0x0,-0x8(%rbp)
    4f0f:	74 0f                	je     4f20 <safe_mod_func_uint32_t_u_u+0x23>
    4f11:	8b 45 fc             	mov    -0x4(%rbp),%eax
    4f14:	ba 00 00 00 00       	mov    $0x0,%edx
    4f19:	f7 75 f8             	divl   -0x8(%rbp)
    4f1c:	89 d0                	mov    %edx,%eax
    4f1e:	eb 03                	jmp    4f23 <safe_mod_func_uint32_t_u_u+0x26>
    4f20:	8b 45 fc             	mov    -0x4(%rbp),%eax
    4f23:	5d                   	pop    %rbp
    4f24:	c3                   	retq   

0000000000004f25 <safe_div_func_uint32_t_u_u>:
    4f25:	f3 0f 1e fa          	endbr64 
    4f29:	55                   	push   %rbp
    4f2a:	48 89 e5             	mov    %rsp,%rbp
    4f2d:	89 7d fc             	mov    %edi,-0x4(%rbp)
    4f30:	89 75 f8             	mov    %esi,-0x8(%rbp)
    4f33:	83 7d f8 00          	cmpl   $0x0,-0x8(%rbp)
    4f37:	74 0d                	je     4f46 <safe_div_func_uint32_t_u_u+0x21>
    4f39:	8b 45 fc             	mov    -0x4(%rbp),%eax
    4f3c:	ba 00 00 00 00       	mov    $0x0,%edx
    4f41:	f7 75 f8             	divl   -0x8(%rbp)
    4f44:	eb 03                	jmp    4f49 <safe_div_func_uint32_t_u_u+0x24>
    4f46:	8b 45 fc             	mov    -0x4(%rbp),%eax
    4f49:	5d                   	pop    %rbp
    4f4a:	c3                   	retq   

0000000000004f4b <safe_lshift_func_uint32_t_u_s>:
    4f4b:	f3 0f 1e fa          	endbr64 
    4f4f:	55                   	push   %rbp
    4f50:	48 89 e5             	mov    %rsp,%rbp
    4f53:	89 7d fc             	mov    %edi,-0x4(%rbp)
    4f56:	89 75 f8             	mov    %esi,-0x8(%rbp)
    4f59:	83 7d f8 00          	cmpl   $0x0,-0x8(%rbp)
    4f5d:	78 27                	js     4f86 <safe_lshift_func_uint32_t_u_s+0x3b>
    4f5f:	83 7d f8 1f          	cmpl   $0x1f,-0x8(%rbp)
    4f63:	7f 21                	jg     4f86 <safe_lshift_func_uint32_t_u_s+0x3b>
    4f65:	8b 45 f8             	mov    -0x8(%rbp),%eax
    4f68:	ba ff ff ff ff       	mov    $0xffffffff,%edx
    4f6d:	89 c1                	mov    %eax,%ecx
    4f6f:	d3 ea                	shr    %cl,%edx
    4f71:	89 d0                	mov    %edx,%eax
    4f73:	39 45 fc             	cmp    %eax,-0x4(%rbp)
    4f76:	77 0e                	ja     4f86 <safe_lshift_func_uint32_t_u_s+0x3b>
    4f78:	8b 45 f8             	mov    -0x8(%rbp),%eax
    4f7b:	8b 55 fc             	mov    -0x4(%rbp),%edx
    4f7e:	89 c1                	mov    %eax,%ecx
    4f80:	d3 e2                	shl    %cl,%edx
    4f82:	89 d0                	mov    %edx,%eax
    4f84:	eb 03                	jmp    4f89 <safe_lshift_func_uint32_t_u_s+0x3e>
    4f86:	8b 45 fc             	mov    -0x4(%rbp),%eax
    4f89:	5d                   	pop    %rbp
    4f8a:	c3                   	retq   

0000000000004f8b <safe_lshift_func_uint32_t_u_u>:
    4f8b:	f3 0f 1e fa          	endbr64 
    4f8f:	55                   	push   %rbp
    4f90:	48 89 e5             	mov    %rsp,%rbp
    4f93:	89 7d fc             	mov    %edi,-0x4(%rbp)
    4f96:	89 75 f8             	mov    %esi,-0x8(%rbp)
    4f99:	83 7d f8 1f          	cmpl   $0x1f,-0x8(%rbp)
    4f9d:	77 21                	ja     4fc0 <safe_lshift_func_uint32_t_u_u+0x35>
    4f9f:	8b 45 f8             	mov    -0x8(%rbp),%eax
    4fa2:	ba ff ff ff ff       	mov    $0xffffffff,%edx
    4fa7:	89 c1                	mov    %eax,%ecx
    4fa9:	d3 ea                	shr    %cl,%edx
    4fab:	89 d0                	mov    %edx,%eax
    4fad:	39 45 fc             	cmp    %eax,-0x4(%rbp)
    4fb0:	77 0e                	ja     4fc0 <safe_lshift_func_uint32_t_u_u+0x35>
    4fb2:	8b 45 f8             	mov    -0x8(%rbp),%eax
    4fb5:	8b 55 fc             	mov    -0x4(%rbp),%edx
    4fb8:	89 c1                	mov    %eax,%ecx
    4fba:	d3 e2                	shl    %cl,%edx
    4fbc:	89 d0                	mov    %edx,%eax
    4fbe:	eb 03                	jmp    4fc3 <safe_lshift_func_uint32_t_u_u+0x38>
    4fc0:	8b 45 fc             	mov    -0x4(%rbp),%eax
    4fc3:	5d                   	pop    %rbp
    4fc4:	c3                   	retq   

0000000000004fc5 <safe_rshift_func_uint32_t_u_s>:
    4fc5:	f3 0f 1e fa          	endbr64 
    4fc9:	55                   	push   %rbp
    4fca:	48 89 e5             	mov    %rsp,%rbp
    4fcd:	89 7d fc             	mov    %edi,-0x4(%rbp)
    4fd0:	89 75 f8             	mov    %esi,-0x8(%rbp)
    4fd3:	83 7d f8 00          	cmpl   $0x0,-0x8(%rbp)
    4fd7:	78 14                	js     4fed <safe_rshift_func_uint32_t_u_s+0x28>
    4fd9:	83 7d f8 1f          	cmpl   $0x1f,-0x8(%rbp)
    4fdd:	7f 0e                	jg     4fed <safe_rshift_func_uint32_t_u_s+0x28>
    4fdf:	8b 45 f8             	mov    -0x8(%rbp),%eax
    4fe2:	8b 55 fc             	mov    -0x4(%rbp),%edx
    4fe5:	89 c1                	mov    %eax,%ecx
    4fe7:	d3 ea                	shr    %cl,%edx
    4fe9:	89 d0                	mov    %edx,%eax
    4feb:	eb 03                	jmp    4ff0 <safe_rshift_func_uint32_t_u_s+0x2b>
    4fed:	8b 45 fc             	mov    -0x4(%rbp),%eax
    4ff0:	5d                   	pop    %rbp
    4ff1:	c3                   	retq   

0000000000004ff2 <safe_rshift_func_uint32_t_u_u>:
    4ff2:	f3 0f 1e fa          	endbr64 
    4ff6:	55                   	push   %rbp
    4ff7:	48 89 e5             	mov    %rsp,%rbp
    4ffa:	89 7d fc             	mov    %edi,-0x4(%rbp)
    4ffd:	89 75 f8             	mov    %esi,-0x8(%rbp)
    5000:	83 7d f8 1f          	cmpl   $0x1f,-0x8(%rbp)
    5004:	77 0e                	ja     5014 <safe_rshift_func_uint32_t_u_u+0x22>
    5006:	8b 45 f8             	mov    -0x8(%rbp),%eax
    5009:	8b 55 fc             	mov    -0x4(%rbp),%edx
    500c:	89 c1                	mov    %eax,%ecx
    500e:	d3 ea                	shr    %cl,%edx
    5010:	89 d0                	mov    %edx,%eax
    5012:	eb 03                	jmp    5017 <safe_rshift_func_uint32_t_u_u+0x25>
    5014:	8b 45 fc             	mov    -0x4(%rbp),%eax
    5017:	5d                   	pop    %rbp
    5018:	c3                   	retq   

0000000000005019 <safe_unary_minus_func_uint64_t_u>:
    5019:	f3 0f 1e fa          	endbr64 
    501d:	55                   	push   %rbp
    501e:	48 89 e5             	mov    %rsp,%rbp
    5021:	48 89 7d f8          	mov    %rdi,-0x8(%rbp)
    5025:	48 8b 45 f8          	mov    -0x8(%rbp),%rax
    5029:	48 f7 d8             	neg    %rax
    502c:	5d                   	pop    %rbp
    502d:	c3                   	retq   

000000000000502e <safe_add_func_uint64_t_u_u>:
    502e:	f3 0f 1e fa          	endbr64 
    5032:	55                   	push   %rbp
    5033:	48 89 e5             	mov    %rsp,%rbp
    5036:	48 89 7d f8          	mov    %rdi,-0x8(%rbp)
    503a:	48 89 75 f0          	mov    %rsi,-0x10(%rbp)
    503e:	48 8b 55 f8          	mov    -0x8(%rbp),%rdx
    5042:	48 8b 45 f0          	mov    -0x10(%rbp),%rax
    5046:	48 01 d0             	add    %rdx,%rax
    5049:	5d                   	pop    %rbp
    504a:	c3                   	retq   

000000000000504b <safe_sub_func_uint64_t_u_u>:
    504b:	f3 0f 1e fa          	endbr64 
    504f:	55                   	push   %rbp
    5050:	48 89 e5             	mov    %rsp,%rbp
    5053:	48 89 7d f8          	mov    %rdi,-0x8(%rbp)
    5057:	48 89 75 f0          	mov    %rsi,-0x10(%rbp)
    505b:	48 8b 45 f8          	mov    -0x8(%rbp),%rax
    505f:	48 2b 45 f0          	sub    -0x10(%rbp),%rax
    5063:	5d                   	pop    %rbp
    5064:	c3                   	retq   

0000000000005065 <safe_mul_func_uint64_t_u_u>:
    5065:	f3 0f 1e fa          	endbr64 
    5069:	55                   	push   %rbp
    506a:	48 89 e5             	mov    %rsp,%rbp
    506d:	48 89 7d f8          	mov    %rdi,-0x8(%rbp)
    5071:	48 89 75 f0          	mov    %rsi,-0x10(%rbp)
    5075:	48 8b 45 f8          	mov    -0x8(%rbp),%rax
    5079:	48 0f af 45 f0       	imul   -0x10(%rbp),%rax
    507e:	5d                   	pop    %rbp
    507f:	c3                   	retq   

0000000000005080 <safe_mod_func_uint64_t_u_u>:
    5080:	f3 0f 1e fa          	endbr64 
    5084:	55                   	push   %rbp
    5085:	48 89 e5             	mov    %rsp,%rbp
    5088:	48 89 7d f8          	mov    %rdi,-0x8(%rbp)
    508c:	48 89 75 f0          	mov    %rsi,-0x10(%rbp)
    5090:	48 83 7d f0 00       	cmpq   $0x0,-0x10(%rbp)
    5095:	74 12                	je     50a9 <safe_mod_func_uint64_t_u_u+0x29>
    5097:	48 8b 45 f8          	mov    -0x8(%rbp),%rax
    509b:	ba 00 00 00 00       	mov    $0x0,%edx
    50a0:	48 f7 75 f0          	divq   -0x10(%rbp)
    50a4:	48 89 d0             	mov    %rdx,%rax
    50a7:	eb 04                	jmp    50ad <safe_mod_func_uint64_t_u_u+0x2d>
    50a9:	48 8b 45 f8          	mov    -0x8(%rbp),%rax
    50ad:	5d                   	pop    %rbp
    50ae:	c3                   	retq   

00000000000050af <safe_div_func_uint64_t_u_u>:
    50af:	f3 0f 1e fa          	endbr64 
    50b3:	55                   	push   %rbp
    50b4:	48 89 e5             	mov    %rsp,%rbp
    50b7:	48 89 7d f8          	mov    %rdi,-0x8(%rbp)
    50bb:	48 89 75 f0          	mov    %rsi,-0x10(%rbp)
    50bf:	48 83 7d f0 00       	cmpq   $0x0,-0x10(%rbp)
    50c4:	74 0f                	je     50d5 <safe_div_func_uint64_t_u_u+0x26>
    50c6:	48 8b 45 f8          	mov    -0x8(%rbp),%rax
    50ca:	ba 00 00 00 00       	mov    $0x0,%edx
    50cf:	48 f7 75 f0          	divq   -0x10(%rbp)
    50d3:	eb 04                	jmp    50d9 <safe_div_func_uint64_t_u_u+0x2a>
    50d5:	48 8b 45 f8          	mov    -0x8(%rbp),%rax
    50d9:	5d                   	pop    %rbp
    50da:	c3                   	retq   

00000000000050db <safe_lshift_func_uint64_t_u_s>:
    50db:	f3 0f 1e fa          	endbr64 
    50df:	55                   	push   %rbp
    50e0:	48 89 e5             	mov    %rsp,%rbp
    50e3:	48 89 7d f8          	mov    %rdi,-0x8(%rbp)
    50e7:	89 75 f4             	mov    %esi,-0xc(%rbp)
    50ea:	83 7d f4 00          	cmpl   $0x0,-0xc(%rbp)
    50ee:	78 2f                	js     511f <safe_lshift_func_uint64_t_u_s+0x44>
    50f0:	83 7d f4 1f          	cmpl   $0x1f,-0xc(%rbp)
    50f4:	7f 29                	jg     511f <safe_lshift_func_uint64_t_u_s+0x44>
    50f6:	8b 45 f4             	mov    -0xc(%rbp),%eax
    50f9:	48 c7 c2 ff ff ff ff 	mov    $0xffffffffffffffff,%rdx
    5100:	89 c1                	mov    %eax,%ecx
    5102:	48 d3 ea             	shr    %cl,%rdx
    5105:	48 89 d0             	mov    %rdx,%rax
    5108:	48 39 45 f8          	cmp    %rax,-0x8(%rbp)
    510c:	77 11                	ja     511f <safe_lshift_func_uint64_t_u_s+0x44>
    510e:	8b 45 f4             	mov    -0xc(%rbp),%eax
    5111:	48 8b 55 f8          	mov    -0x8(%rbp),%rdx
    5115:	89 c1                	mov    %eax,%ecx
    5117:	48 d3 e2             	shl    %cl,%rdx
    511a:	48 89 d0             	mov    %rdx,%rax
    511d:	eb 04                	jmp    5123 <safe_lshift_func_uint64_t_u_s+0x48>
    511f:	48 8b 45 f8          	mov    -0x8(%rbp),%rax
    5123:	5d                   	pop    %rbp
    5124:	c3                   	retq   

0000000000005125 <safe_lshift_func_uint64_t_u_u>:
    5125:	f3 0f 1e fa          	endbr64 
    5129:	55                   	push   %rbp
    512a:	48 89 e5             	mov    %rsp,%rbp
    512d:	48 89 7d f8          	mov    %rdi,-0x8(%rbp)
    5131:	89 75 f4             	mov    %esi,-0xc(%rbp)
    5134:	83 7d f4 1f          	cmpl   $0x1f,-0xc(%rbp)
    5138:	77 29                	ja     5163 <safe_lshift_func_uint64_t_u_u+0x3e>
    513a:	8b 45 f4             	mov    -0xc(%rbp),%eax
    513d:	48 c7 c2 ff ff ff ff 	mov    $0xffffffffffffffff,%rdx
    5144:	89 c1                	mov    %eax,%ecx
    5146:	48 d3 ea             	shr    %cl,%rdx
    5149:	48 89 d0             	mov    %rdx,%rax
    514c:	48 39 45 f8          	cmp    %rax,-0x8(%rbp)
    5150:	77 11                	ja     5163 <safe_lshift_func_uint64_t_u_u+0x3e>
    5152:	8b 45 f4             	mov    -0xc(%rbp),%eax
    5155:	48 8b 55 f8          	mov    -0x8(%rbp),%rdx
    5159:	89 c1                	mov    %eax,%ecx
    515b:	48 d3 e2             	shl    %cl,%rdx
    515e:	48 89 d0             	mov    %rdx,%rax
    5161:	eb 04                	jmp    5167 <safe_lshift_func_uint64_t_u_u+0x42>
    5163:	48 8b 45 f8          	mov    -0x8(%rbp),%rax
    5167:	5d                   	pop    %rbp
    5168:	c3                   	retq   

0000000000005169 <safe_rshift_func_uint64_t_u_s>:
    5169:	f3 0f 1e fa          	endbr64 
    516d:	55                   	push   %rbp
    516e:	48 89 e5             	mov    %rsp,%rbp
    5171:	48 89 7d f8          	mov    %rdi,-0x8(%rbp)
    5175:	89 75 f4             	mov    %esi,-0xc(%rbp)
    5178:	83 7d f4 00          	cmpl   $0x0,-0xc(%rbp)
    517c:	78 17                	js     5195 <safe_rshift_func_uint64_t_u_s+0x2c>
    517e:	83 7d f4 1f          	cmpl   $0x1f,-0xc(%rbp)
    5182:	7f 11                	jg     5195 <safe_rshift_func_uint64_t_u_s+0x2c>
    5184:	8b 45 f4             	mov    -0xc(%rbp),%eax
    5187:	48 8b 55 f8          	mov    -0x8(%rbp),%rdx
    518b:	89 c1                	mov    %eax,%ecx
    518d:	48 d3 ea             	shr    %cl,%rdx
    5190:	48 89 d0             	mov    %rdx,%rax
    5193:	eb 04                	jmp    5199 <safe_rshift_func_uint64_t_u_s+0x30>
    5195:	48 8b 45 f8          	mov    -0x8(%rbp),%rax
    5199:	5d                   	pop    %rbp
    519a:	c3                   	retq   

000000000000519b <safe_rshift_func_uint64_t_u_u>:
    519b:	f3 0f 1e fa          	endbr64 
    519f:	55                   	push   %rbp
    51a0:	48 89 e5             	mov    %rsp,%rbp
    51a3:	48 89 7d f8          	mov    %rdi,-0x8(%rbp)
    51a7:	89 75 f4             	mov    %esi,-0xc(%rbp)
    51aa:	83 7d f4 1f          	cmpl   $0x1f,-0xc(%rbp)
    51ae:	77 11                	ja     51c1 <safe_rshift_func_uint64_t_u_u+0x26>
    51b0:	8b 45 f4             	mov    -0xc(%rbp),%eax
    51b3:	48 8b 55 f8          	mov    -0x8(%rbp),%rdx
    51b7:	89 c1                	mov    %eax,%ecx
    51b9:	48 d3 ea             	shr    %cl,%rdx
    51bc:	48 89 d0             	mov    %rdx,%rax
    51bf:	eb 04                	jmp    51c5 <safe_rshift_func_uint64_t_u_u+0x2a>
    51c1:	48 8b 45 f8          	mov    -0x8(%rbp),%rax
    51c5:	5d                   	pop    %rbp
    51c6:	c3                   	retq   

00000000000051c7 <safe_add_func_float_f_f>:
    51c7:	f3 0f 1e fa          	endbr64 
    51cb:	55                   	push   %rbp
    51cc:	48 89 e5             	mov    %rsp,%rbp
    51cf:	f3 0f 11 45 fc       	movss  %xmm0,-0x4(%rbp)
    51d4:	f3 0f 11 4d f8       	movss  %xmm1,-0x8(%rbp)
    51d9:	f3 0f 10 4d fc       	movss  -0x4(%rbp),%xmm1
    51de:	f3 0f 10 05 9a ae 00 	movss  0xae9a(%rip),%xmm0        # 10080 <g_2043+0xfc0>
    51e5:	00 
    51e6:	f3 0f 59 c8          	mulss  %xmm0,%xmm1
    51ea:	f3 0f 10 55 f8       	movss  -0x8(%rbp),%xmm2
    51ef:	f3 0f 10 05 89 ae 00 	movss  0xae89(%rip),%xmm0        # 10080 <g_2043+0xfc0>
    51f6:	00 
    51f7:	f3 0f 59 c2          	mulss  %xmm2,%xmm0
    51fb:	f3 0f 58 c1          	addss  %xmm1,%xmm0
    51ff:	f3 0f 10 0d 89 ae 00 	movss  0xae89(%rip),%xmm1        # 10090 <g_2043+0xfd0>
    5206:	00 
    5207:	0f 54 c1             	andps  %xmm1,%xmm0
    520a:	0f 2f 05 8f ae 00 00 	comiss 0xae8f(%rip),%xmm0        # 100a0 <g_2043+0xfe0>
    5211:	76 07                	jbe    521a <safe_add_func_float_f_f+0x53>
    5213:	f3 0f 10 45 fc       	movss  -0x4(%rbp),%xmm0
    5218:	eb 0a                	jmp    5224 <safe_add_func_float_f_f+0x5d>
    521a:	f3 0f 10 45 fc       	movss  -0x4(%rbp),%xmm0
    521f:	f3 0f 58 45 f8       	addss  -0x8(%rbp),%xmm0
    5224:	5d                   	pop    %rbp
    5225:	c3                   	retq   

0000000000005226 <safe_sub_func_float_f_f>:
    5226:	f3 0f 1e fa          	endbr64 
    522a:	55                   	push   %rbp
    522b:	48 89 e5             	mov    %rsp,%rbp
    522e:	f3 0f 11 45 fc       	movss  %xmm0,-0x4(%rbp)
    5233:	f3 0f 11 4d f8       	movss  %xmm1,-0x8(%rbp)
    5238:	f3 0f 10 4d fc       	movss  -0x4(%rbp),%xmm1
    523d:	f3 0f 10 05 3b ae 00 	movss  0xae3b(%rip),%xmm0        # 10080 <g_2043+0xfc0>
    5244:	00 
    5245:	f3 0f 59 c1          	mulss  %xmm1,%xmm0
    5249:	f3 0f 10 55 f8       	movss  -0x8(%rbp),%xmm2
    524e:	f3 0f 10 0d 2a ae 00 	movss  0xae2a(%rip),%xmm1        # 10080 <g_2043+0xfc0>
    5255:	00 
    5256:	f3 0f 59 ca          	mulss  %xmm2,%xmm1
    525a:	f3 0f 5c c1          	subss  %xmm1,%xmm0
    525e:	f3 0f 10 0d 2a ae 00 	movss  0xae2a(%rip),%xmm1        # 10090 <g_2043+0xfd0>
    5265:	00 
    5266:	0f 54 c1             	andps  %xmm1,%xmm0
    5269:	0f 2f 05 30 ae 00 00 	comiss 0xae30(%rip),%xmm0        # 100a0 <g_2043+0xfe0>
    5270:	76 07                	jbe    5279 <safe_sub_func_float_f_f+0x53>
    5272:	f3 0f 10 45 fc       	movss  -0x4(%rbp),%xmm0
    5277:	eb 0a                	jmp    5283 <safe_sub_func_float_f_f+0x5d>
    5279:	f3 0f 10 45 fc       	movss  -0x4(%rbp),%xmm0
    527e:	f3 0f 5c 45 f8       	subss  -0x8(%rbp),%xmm0
    5283:	5d                   	pop    %rbp
    5284:	c3                   	retq   

0000000000005285 <safe_mul_func_float_f_f>:
    5285:	f3 0f 1e fa          	endbr64 
    5289:	55                   	push   %rbp
    528a:	48 89 e5             	mov    %rsp,%rbp
    528d:	f3 0f 11 45 fc       	movss  %xmm0,-0x4(%rbp)
    5292:	f3 0f 11 4d f8       	movss  %xmm1,-0x8(%rbp)
    5297:	f3 0f 10 4d fc       	movss  -0x4(%rbp),%xmm1
    529c:	f3 0f 10 05 00 ae 00 	movss  0xae00(%rip),%xmm0        # 100a4 <g_2043+0xfe4>
    52a3:	00 
    52a4:	f3 0f 59 c8          	mulss  %xmm0,%xmm1
    52a8:	f3 0f 10 55 f8       	movss  -0x8(%rbp),%xmm2
    52ad:	f3 0f 10 05 f3 ad 00 	movss  0xadf3(%rip),%xmm0        # 100a8 <g_2043+0xfe8>
    52b4:	00 
    52b5:	f3 0f 59 c2          	mulss  %xmm2,%xmm0
    52b9:	f3 0f 59 c1          	mulss  %xmm1,%xmm0
    52bd:	f3 0f 10 0d cb ad 00 	movss  0xadcb(%rip),%xmm1        # 10090 <g_2043+0xfd0>
    52c4:	00 
    52c5:	0f 54 c1             	andps  %xmm1,%xmm0
    52c8:	0f 2f 05 dd ad 00 00 	comiss 0xaddd(%rip),%xmm0        # 100ac <g_2043+0xfec>
    52cf:	76 07                	jbe    52d8 <safe_mul_func_float_f_f+0x53>
    52d1:	f3 0f 10 45 fc       	movss  -0x4(%rbp),%xmm0
    52d6:	eb 0a                	jmp    52e2 <safe_mul_func_float_f_f+0x5d>
    52d8:	f3 0f 10 45 fc       	movss  -0x4(%rbp),%xmm0
    52dd:	f3 0f 59 45 f8       	mulss  -0x8(%rbp),%xmm0
    52e2:	5d                   	pop    %rbp
    52e3:	c3                   	retq   

00000000000052e4 <safe_div_func_float_f_f>:
    52e4:	f3 0f 1e fa          	endbr64 
    52e8:	55                   	push   %rbp
    52e9:	48 89 e5             	mov    %rsp,%rbp
    52ec:	f3 0f 11 45 fc       	movss  %xmm0,-0x4(%rbp)
    52f1:	f3 0f 11 4d f8       	movss  %xmm1,-0x8(%rbp)
    52f6:	f3 0f 10 45 f8       	movss  -0x8(%rbp),%xmm0
    52fb:	f3 0f 10 0d 8d ad 00 	movss  0xad8d(%rip),%xmm1        # 10090 <g_2043+0xfd0>
    5302:	00 
    5303:	0f 54 c8             	andps  %xmm0,%xmm1
    5306:	f3 0f 10 05 a2 ad 00 	movss  0xada2(%rip),%xmm0        # 100b0 <g_2043+0xff0>
    530d:	00 
    530e:	0f 2f c1             	comiss %xmm1,%xmm0
    5311:	0f 97 c0             	seta   %al
    5314:	83 f0 01             	xor    $0x1,%eax
    5317:	84 c0                	test   %al,%al
    5319:	75 56                	jne    5371 <safe_div_func_float_f_f+0x8d>
    531b:	66 0f ef c0          	pxor   %xmm0,%xmm0
    531f:	0f 2e 45 f8          	ucomiss -0x8(%rbp),%xmm0
    5323:	7a 0a                	jp     532f <safe_div_func_float_f_f+0x4b>
    5325:	66 0f ef c0          	pxor   %xmm0,%xmm0
    5329:	0f 2e 45 f8          	ucomiss -0x8(%rbp),%xmm0
    532d:	74 4e                	je     537d <safe_div_func_float_f_f+0x99>
    532f:	f3 0f 10 4d fc       	movss  -0x4(%rbp),%xmm1
    5334:	f3 0f 10 05 78 ad 00 	movss  0xad78(%rip),%xmm0        # 100b4 <g_2043+0xff4>
    533b:	00 
    533c:	f3 0f 59 c1          	mulss  %xmm1,%xmm0
    5340:	f3 0f 10 55 f8       	movss  -0x8(%rbp),%xmm2
    5345:	f3 0f 10 0d 6b ad 00 	movss  0xad6b(%rip),%xmm1        # 100b8 <g_2043+0xff8>
    534c:	00 
    534d:	f3 0f 59 ca          	mulss  %xmm2,%xmm1
    5351:	f3 0f 5e c1          	divss  %xmm1,%xmm0
    5355:	f3 0f 10 0d 33 ad 00 	movss  0xad33(%rip),%xmm1        # 10090 <g_2043+0xfd0>
    535c:	00 
    535d:	0f 54 c1             	andps  %xmm1,%xmm0
    5360:	0f 2f 05 55 ad 00 00 	comiss 0xad55(%rip),%xmm0        # 100bc <g_2043+0xffc>
    5367:	0f 97 c0             	seta   %al
    536a:	83 f0 01             	xor    $0x1,%eax
    536d:	84 c0                	test   %al,%al
    536f:	74 0c                	je     537d <safe_div_func_float_f_f+0x99>
    5371:	f3 0f 10 45 fc       	movss  -0x4(%rbp),%xmm0
    5376:	f3 0f 5e 45 f8       	divss  -0x8(%rbp),%xmm0
    537b:	eb 05                	jmp    5382 <safe_div_func_float_f_f+0x9e>
    537d:	f3 0f 10 45 fc       	movss  -0x4(%rbp),%xmm0
    5382:	5d                   	pop    %rbp
    5383:	c3                   	retq   

0000000000005384 <safe_add_func_double_f_f>:
    5384:	f3 0f 1e fa          	endbr64 
    5388:	55                   	push   %rbp
    5389:	48 89 e5             	mov    %rsp,%rbp
    538c:	f2 0f 11 45 f8       	movsd  %xmm0,-0x8(%rbp)
    5391:	f2 0f 11 4d f0       	movsd  %xmm1,-0x10(%rbp)
    5396:	f2 0f 10 4d f8       	movsd  -0x8(%rbp),%xmm1
    539b:	f2 0f 10 05 1d ad 00 	movsd  0xad1d(%rip),%xmm0        # 100c0 <g_2043+0x1000>
    53a2:	00 
    53a3:	f2 0f 59 c8          	mulsd  %xmm0,%xmm1
    53a7:	f2 0f 10 55 f0       	movsd  -0x10(%rbp),%xmm2
    53ac:	f2 0f 10 05 0c ad 00 	movsd  0xad0c(%rip),%xmm0        # 100c0 <g_2043+0x1000>
    53b3:	00 
    53b4:	f2 0f 59 c2          	mulsd  %xmm2,%xmm0
    53b8:	f2 0f 58 c1          	addsd  %xmm1,%xmm0
    53bc:	f3 0f 7e 0d 0c ad 00 	movq   0xad0c(%rip),%xmm1        # 100d0 <g_2043+0x1010>
    53c3:	00 
    53c4:	66 0f 54 c1          	andpd  %xmm1,%xmm0
    53c8:	66 0f 2f 05 10 ad 00 	comisd 0xad10(%rip),%xmm0        # 100e0 <g_2043+0x1020>
    53cf:	00 
    53d0:	76 07                	jbe    53d9 <safe_add_func_double_f_f+0x55>
    53d2:	f2 0f 10 45 f8       	movsd  -0x8(%rbp),%xmm0
    53d7:	eb 0a                	jmp    53e3 <safe_add_func_double_f_f+0x5f>
    53d9:	f2 0f 10 45 f8       	movsd  -0x8(%rbp),%xmm0
    53de:	f2 0f 58 45 f0       	addsd  -0x10(%rbp),%xmm0
    53e3:	5d                   	pop    %rbp
    53e4:	c3                   	retq   

00000000000053e5 <safe_sub_func_double_f_f>:
    53e5:	f3 0f 1e fa          	endbr64 
    53e9:	55                   	push   %rbp
    53ea:	48 89 e5             	mov    %rsp,%rbp
    53ed:	f2 0f 11 45 f8       	movsd  %xmm0,-0x8(%rbp)
    53f2:	f2 0f 11 4d f0       	movsd  %xmm1,-0x10(%rbp)
    53f7:	f2 0f 10 4d f8       	movsd  -0x8(%rbp),%xmm1
    53fc:	f2 0f 10 05 bc ac 00 	movsd  0xacbc(%rip),%xmm0        # 100c0 <g_2043+0x1000>
    5403:	00 
    5404:	f2 0f 59 c1          	mulsd  %xmm1,%xmm0
    5408:	f2 0f 10 55 f0       	movsd  -0x10(%rbp),%xmm2
    540d:	f2 0f 10 0d ab ac 00 	movsd  0xacab(%rip),%xmm1        # 100c0 <g_2043+0x1000>
    5414:	00 
    5415:	f2 0f 59 ca          	mulsd  %xmm2,%xmm1
    5419:	f2 0f 5c c1          	subsd  %xmm1,%xmm0
    541d:	f3 0f 7e 0d ab ac 00 	movq   0xacab(%rip),%xmm1        # 100d0 <g_2043+0x1010>
    5424:	00 
    5425:	66 0f 54 c1          	andpd  %xmm1,%xmm0
    5429:	66 0f 2f 05 af ac 00 	comisd 0xacaf(%rip),%xmm0        # 100e0 <g_2043+0x1020>
    5430:	00 
    5431:	76 07                	jbe    543a <safe_sub_func_double_f_f+0x55>
    5433:	f2 0f 10 45 f8       	movsd  -0x8(%rbp),%xmm0
    5438:	eb 0a                	jmp    5444 <safe_sub_func_double_f_f+0x5f>
    543a:	f2 0f 10 45 f8       	movsd  -0x8(%rbp),%xmm0
    543f:	f2 0f 5c 45 f0       	subsd  -0x10(%rbp),%xmm0
    5444:	5d                   	pop    %rbp
    5445:	c3                   	retq   

0000000000005446 <safe_mul_func_double_f_f>:
    5446:	f3 0f 1e fa          	endbr64 
    544a:	55                   	push   %rbp
    544b:	48 89 e5             	mov    %rsp,%rbp
    544e:	f2 0f 11 45 f8       	movsd  %xmm0,-0x8(%rbp)
    5453:	f2 0f 11 4d f0       	movsd  %xmm1,-0x10(%rbp)
    5458:	f2 0f 10 4d f8       	movsd  -0x8(%rbp),%xmm1
    545d:	f2 0f 10 05 83 ac 00 	movsd  0xac83(%rip),%xmm0        # 100e8 <g_2043+0x1028>
    5464:	00 
    5465:	f2 0f 59 c8          	mulsd  %xmm0,%xmm1
    5469:	f2 0f 10 55 f0       	movsd  -0x10(%rbp),%xmm2
    546e:	f2 0f 10 05 7a ac 00 	movsd  0xac7a(%rip),%xmm0        # 100f0 <g_2043+0x1030>
    5475:	00 
    5476:	f2 0f 59 c2          	mulsd  %xmm2,%xmm0
    547a:	f2 0f 59 c1          	mulsd  %xmm1,%xmm0
    547e:	f3 0f 7e 0d 4a ac 00 	movq   0xac4a(%rip),%xmm1        # 100d0 <g_2043+0x1010>
    5485:	00 
    5486:	66 0f 54 c1          	andpd  %xmm1,%xmm0
    548a:	66 0f 2f 05 66 ac 00 	comisd 0xac66(%rip),%xmm0        # 100f8 <g_2043+0x1038>
    5491:	00 
    5492:	76 07                	jbe    549b <safe_mul_func_double_f_f+0x55>
    5494:	f2 0f 10 45 f8       	movsd  -0x8(%rbp),%xmm0
    5499:	eb 0a                	jmp    54a5 <safe_mul_func_double_f_f+0x5f>
    549b:	f2 0f 10 45 f8       	movsd  -0x8(%rbp),%xmm0
    54a0:	f2 0f 59 45 f0       	mulsd  -0x10(%rbp),%xmm0
    54a5:	5d                   	pop    %rbp
    54a6:	c3                   	retq   

00000000000054a7 <safe_div_func_double_f_f>:
    54a7:	f3 0f 1e fa          	endbr64 
    54ab:	55                   	push   %rbp
    54ac:	48 89 e5             	mov    %rsp,%rbp
    54af:	f2 0f 11 45 f8       	movsd  %xmm0,-0x8(%rbp)
    54b4:	f2 0f 11 4d f0       	movsd  %xmm1,-0x10(%rbp)
    54b9:	f2 0f 10 45 f0       	movsd  -0x10(%rbp),%xmm0
    54be:	f3 0f 7e 0d 0a ac 00 	movq   0xac0a(%rip),%xmm1        # 100d0 <g_2043+0x1010>
    54c5:	00 
    54c6:	66 0f 54 c8          	andpd  %xmm0,%xmm1
    54ca:	f2 0f 10 05 2e ac 00 	movsd  0xac2e(%rip),%xmm0        # 10100 <g_2043+0x1040>
    54d1:	00 
    54d2:	66 0f 2f c1          	comisd %xmm1,%xmm0
    54d6:	0f 97 c0             	seta   %al
    54d9:	83 f0 01             	xor    $0x1,%eax
    54dc:	84 c0                	test   %al,%al
    54de:	75 5a                	jne    553a <safe_div_func_double_f_f+0x93>
    54e0:	66 0f ef c0          	pxor   %xmm0,%xmm0
    54e4:	66 0f 2e 45 f0       	ucomisd -0x10(%rbp),%xmm0
    54e9:	7a 0b                	jp     54f6 <safe_div_func_double_f_f+0x4f>
    54eb:	66 0f ef c0          	pxor   %xmm0,%xmm0
    54ef:	66 0f 2e 45 f0       	ucomisd -0x10(%rbp),%xmm0
    54f4:	74 50                	je     5546 <safe_div_func_double_f_f+0x9f>
    54f6:	f2 0f 10 4d f8       	movsd  -0x8(%rbp),%xmm1
    54fb:	f2 0f 10 05 05 ac 00 	movsd  0xac05(%rip),%xmm0        # 10108 <g_2043+0x1048>
    5502:	00 
    5503:	f2 0f 59 c1          	mulsd  %xmm1,%xmm0
    5507:	f2 0f 10 55 f0       	movsd  -0x10(%rbp),%xmm2
    550c:	f2 0f 10 0d fc ab 00 	movsd  0xabfc(%rip),%xmm1        # 10110 <g_2043+0x1050>
    5513:	00 
    5514:	f2 0f 59 ca          	mulsd  %xmm2,%xmm1
    5518:	f2 0f 5e c1          	divsd  %xmm1,%xmm0
    551c:	f3 0f 7e 0d ac ab 00 	movq   0xabac(%rip),%xmm1        # 100d0 <g_2043+0x1010>
    5523:	00 
    5524:	66 0f 54 c1          	andpd  %xmm1,%xmm0
    5528:	66 0f 2f 05 e8 ab 00 	comisd 0xabe8(%rip),%xmm0        # 10118 <g_2043+0x1058>
    552f:	00 
    5530:	0f 97 c0             	seta   %al
    5533:	83 f0 01             	xor    $0x1,%eax
    5536:	84 c0                	test   %al,%al
    5538:	74 0c                	je     5546 <safe_div_func_double_f_f+0x9f>
    553a:	f2 0f 10 45 f8       	movsd  -0x8(%rbp),%xmm0
    553f:	f2 0f 5e 45 f0       	divsd  -0x10(%rbp),%xmm0
    5544:	eb 05                	jmp    554b <safe_div_func_double_f_f+0xa4>
    5546:	f2 0f 10 45 f8       	movsd  -0x8(%rbp),%xmm0
    554b:	5d                   	pop    %rbp
    554c:	c3                   	retq   

000000000000554d <safe_convert_func_float_to_int32_t>:
    554d:	f3 0f 1e fa          	endbr64 
    5551:	55                   	push   %rbp
    5552:	48 89 e5             	mov    %rsp,%rbp
    5555:	f3 0f 11 45 fc       	movss  %xmm0,-0x4(%rbp)
    555a:	f3 0f 10 05 be ab 00 	movss  0xabbe(%rip),%xmm0        # 10120 <g_2043+0x1060>
    5561:	00 
    5562:	0f 2f 45 fc          	comiss -0x4(%rbp),%xmm0
    5566:	0f 93 c0             	setae  %al
    5569:	83 f0 01             	xor    $0x1,%eax
    556c:	84 c0                	test   %al,%al
    556e:	74 21                	je     5591 <safe_convert_func_float_to_int32_t+0x44>
    5570:	f3 0f 10 45 fc       	movss  -0x4(%rbp),%xmm0
    5575:	0f 2f 05 a8 ab 00 00 	comiss 0xaba8(%rip),%xmm0        # 10124 <g_2043+0x1064>
    557c:	0f 93 c0             	setae  %al
    557f:	83 f0 01             	xor    $0x1,%eax
    5582:	84 c0                	test   %al,%al
    5584:	74 0b                	je     5591 <safe_convert_func_float_to_int32_t+0x44>
    5586:	f3 0f 10 45 fc       	movss  -0x4(%rbp),%xmm0
    558b:	f3 0f 2c c0          	cvttss2si %xmm0,%eax
    558f:	eb 05                	jmp    5596 <safe_convert_func_float_to_int32_t+0x49>
    5591:	b8 ff ff ff 7f       	mov    $0x7fffffff,%eax
    5596:	5d                   	pop    %rbp
    5597:	c3                   	retq   

0000000000005598 <crc32_gentab>:
    5598:	f3 0f 1e fa          	endbr64 
    559c:	55                   	push   %rbp
    559d:	48 89 e5             	mov    %rsp,%rbp
    55a0:	c7 45 fc 20 83 b8 ed 	movl   $0xedb88320,-0x4(%rbp)
    55a7:	c7 45 f4 00 00 00 00 	movl   $0x0,-0xc(%rbp)
    55ae:	eb 51                	jmp    5601 <crc32_gentab+0x69>
    55b0:	8b 45 f4             	mov    -0xc(%rbp),%eax
    55b3:	89 45 f0             	mov    %eax,-0x10(%rbp)
    55b6:	c7 45 f8 08 00 00 00 	movl   $0x8,-0x8(%rbp)
    55bd:	eb 1e                	jmp    55dd <crc32_gentab+0x45>
    55bf:	8b 45 f0             	mov    -0x10(%rbp),%eax
    55c2:	83 e0 01             	and    $0x1,%eax
    55c5:	85 c0                	test   %eax,%eax
    55c7:	74 0d                	je     55d6 <crc32_gentab+0x3e>
    55c9:	8b 45 f0             	mov    -0x10(%rbp),%eax
    55cc:	d1 e8                	shr    %eax
    55ce:	33 45 fc             	xor    -0x4(%rbp),%eax
    55d1:	89 45 f0             	mov    %eax,-0x10(%rbp)
    55d4:	eb 03                	jmp    55d9 <crc32_gentab+0x41>
    55d6:	d1 6d f0             	shrl   -0x10(%rbp)
    55d9:	83 6d f8 01          	subl   $0x1,-0x8(%rbp)
    55dd:	83 7d f8 00          	cmpl   $0x0,-0x8(%rbp)
    55e1:	7f dc                	jg     55bf <crc32_gentab+0x27>
    55e3:	8b 45 f4             	mov    -0xc(%rbp),%eax
    55e6:	48 98                	cltq   
    55e8:	48 8d 0c 85 00 00 00 	lea    0x0(,%rax,4),%rcx
    55ef:	00 
    55f0:	48 8d 15 89 ee 00 00 	lea    0xee89(%rip),%rdx        # 14480 <crc32_tab>
    55f7:	8b 45 f0             	mov    -0x10(%rbp),%eax
    55fa:	89 04 11             	mov    %eax,(%rcx,%rdx,1)
    55fd:	83 45 f4 01          	addl   $0x1,-0xc(%rbp)
    5601:	81 7d f4 ff 00 00 00 	cmpl   $0xff,-0xc(%rbp)
    5608:	7e a6                	jle    55b0 <crc32_gentab+0x18>
    560a:	90                   	nop
    560b:	90                   	nop
    560c:	5d                   	pop    %rbp
    560d:	c3                   	retq   

000000000000560e <crc32_byte>:
    560e:	f3 0f 1e fa          	endbr64 
    5612:	55                   	push   %rbp
    5613:	48 89 e5             	mov    %rsp,%rbp
    5616:	89 f8                	mov    %edi,%eax
    5618:	88 45 fc             	mov    %al,-0x4(%rbp)
    561b:	8b 05 ff d9 00 00    	mov    0xd9ff(%rip),%eax        # 13020 <crc32_context>
    5621:	c1 e8 08             	shr    $0x8,%eax
    5624:	89 c1                	mov    %eax,%ecx
    5626:	0f b6 55 fc          	movzbl -0x4(%rbp),%edx
    562a:	8b 05 f0 d9 00 00    	mov    0xd9f0(%rip),%eax        # 13020 <crc32_context>
    5630:	31 d0                	xor    %edx,%eax
    5632:	0f b6 c0             	movzbl %al,%eax
    5635:	89 c0                	mov    %eax,%eax
    5637:	48 8d 14 85 00 00 00 	lea    0x0(,%rax,4),%rdx
    563e:	00 
    563f:	48 8d 05 3a ee 00 00 	lea    0xee3a(%rip),%rax        # 14480 <crc32_tab>
    5646:	8b 04 02             	mov    (%rdx,%rax,1),%eax
    5649:	31 c8                	xor    %ecx,%eax
    564b:	89 05 cf d9 00 00    	mov    %eax,0xd9cf(%rip)        # 13020 <crc32_context>
    5651:	90                   	nop
    5652:	5d                   	pop    %rbp
    5653:	c3                   	retq   

0000000000005654 <crc32_8bytes>:
    5654:	f3 0f 1e fa          	endbr64 
    5658:	55                   	push   %rbp
    5659:	48 89 e5             	mov    %rsp,%rbp
    565c:	48 83 ec 08          	sub    $0x8,%rsp
    5660:	48 89 7d f8          	mov    %rdi,-0x8(%rbp)
    5664:	48 8b 45 f8          	mov    -0x8(%rbp),%rax
    5668:	0f b6 c0             	movzbl %al,%eax
    566b:	89 c7                	mov    %eax,%edi
    566d:	e8 9c ff ff ff       	callq  560e <crc32_byte>
    5672:	48 8b 45 f8          	mov    -0x8(%rbp),%rax
    5676:	48 c1 e8 08          	shr    $0x8,%rax
    567a:	0f b6 c0             	movzbl %al,%eax
    567d:	89 c7                	mov    %eax,%edi
    567f:	e8 8a ff ff ff       	callq  560e <crc32_byte>
    5684:	48 8b 45 f8          	mov    -0x8(%rbp),%rax
    5688:	48 c1 e8 10          	shr    $0x10,%rax
    568c:	0f b6 c0             	movzbl %al,%eax
    568f:	89 c7                	mov    %eax,%edi
    5691:	e8 78 ff ff ff       	callq  560e <crc32_byte>
    5696:	48 8b 45 f8          	mov    -0x8(%rbp),%rax
    569a:	48 c1 e8 18          	shr    $0x18,%rax
    569e:	0f b6 c0             	movzbl %al,%eax
    56a1:	89 c7                	mov    %eax,%edi
    56a3:	e8 66 ff ff ff       	callq  560e <crc32_byte>
    56a8:	48 8b 45 f8          	mov    -0x8(%rbp),%rax
    56ac:	48 c1 e8 20          	shr    $0x20,%rax
    56b0:	0f b6 c0             	movzbl %al,%eax
    56b3:	89 c7                	mov    %eax,%edi
    56b5:	e8 54 ff ff ff       	callq  560e <crc32_byte>
    56ba:	48 8b 45 f8          	mov    -0x8(%rbp),%rax
    56be:	48 c1 e8 28          	shr    $0x28,%rax
    56c2:	0f b6 c0             	movzbl %al,%eax
    56c5:	89 c7                	mov    %eax,%edi
    56c7:	e8 42 ff ff ff       	callq  560e <crc32_byte>
    56cc:	48 8b 45 f8          	mov    -0x8(%rbp),%rax
    56d0:	48 c1 e8 30          	shr    $0x30,%rax
    56d4:	0f b6 c0             	movzbl %al,%eax
    56d7:	89 c7                	mov    %eax,%edi
    56d9:	e8 30 ff ff ff       	callq  560e <crc32_byte>
    56de:	48 8b 45 f8          	mov    -0x8(%rbp),%rax
    56e2:	48 c1 e8 38          	shr    $0x38,%rax
    56e6:	0f b6 c0             	movzbl %al,%eax
    56e9:	89 c7                	mov    %eax,%edi
    56eb:	e8 1e ff ff ff       	callq  560e <crc32_byte>
    56f0:	90                   	nop
    56f1:	c9                   	leaveq 
    56f2:	c3                   	retq   

00000000000056f3 <transparent_crc>:
    56f3:	f3 0f 1e fa          	endbr64 
    56f7:	55                   	push   %rbp
    56f8:	48 89 e5             	mov    %rsp,%rbp
    56fb:	48 83 ec 20          	sub    $0x20,%rsp
    56ff:	48 89 7d f8          	mov    %rdi,-0x8(%rbp)
    5703:	48 89 75 f0          	mov    %rsi,-0x10(%rbp)
    5707:	89 55 ec             	mov    %edx,-0x14(%rbp)
    570a:	48 8b 45 f8          	mov    -0x8(%rbp),%rax
    570e:	48 89 c7             	mov    %rax,%rdi
    5711:	e8 3e ff ff ff       	callq  5654 <crc32_8bytes>
    5716:	83 7d ec 00          	cmpl   $0x0,-0x14(%rbp)
    571a:	74 22                	je     573e <transparent_crc+0x4b>
    571c:	8b 05 fe d8 00 00    	mov    0xd8fe(%rip),%eax        # 13020 <crc32_context>
    5722:	f7 d0                	not    %eax
    5724:	89 c2                	mov    %eax,%edx
    5726:	48 8b 45 f0          	mov    -0x10(%rbp),%rax
    572a:	48 89 c6             	mov    %rax,%rsi
    572d:	48 8d 3d fc 98 00 00 	lea    0x98fc(%rip),%rdi        # f030 <_IO_stdin_used+0x30>
    5734:	b8 00 00 00 00       	mov    $0x0,%eax
    5739:	e8 42 e9 ff ff       	callq  4080 <printf@plt>
    573e:	90                   	nop
    573f:	c9                   	leaveq 
    5740:	c3                   	retq   

0000000000005741 <transparent_crc_bytes>:
    5741:	f3 0f 1e fa          	endbr64 
    5745:	55                   	push   %rbp
    5746:	48 89 e5             	mov    %rsp,%rbp
    5749:	48 83 ec 30          	sub    $0x30,%rsp
    574d:	48 89 7d e8          	mov    %rdi,-0x18(%rbp)
    5751:	89 75 e4             	mov    %esi,-0x1c(%rbp)
    5754:	48 89 55 d8          	mov    %rdx,-0x28(%rbp)
    5758:	89 4d e0             	mov    %ecx,-0x20(%rbp)
    575b:	c7 45 fc 00 00 00 00 	movl   $0x0,-0x4(%rbp)
    5762:	eb 1e                	jmp    5782 <transparent_crc_bytes+0x41>
    5764:	8b 45 fc             	mov    -0x4(%rbp),%eax
    5767:	48 63 d0             	movslq %eax,%rdx
    576a:	48 8b 45 e8          	mov    -0x18(%rbp),%rax
    576e:	48 01 d0             	add    %rdx,%rax
    5771:	0f b6 00             	movzbl (%rax),%eax
    5774:	0f b6 c0             	movzbl %al,%eax
    5777:	89 c7                	mov    %eax,%edi
    5779:	e8 90 fe ff ff       	callq  560e <crc32_byte>
    577e:	83 45 fc 01          	addl   $0x1,-0x4(%rbp)
    5782:	8b 45 fc             	mov    -0x4(%rbp),%eax
    5785:	3b 45 e4             	cmp    -0x1c(%rbp),%eax
    5788:	7c da                	jl     5764 <transparent_crc_bytes+0x23>
    578a:	83 7d e0 00          	cmpl   $0x0,-0x20(%rbp)
    578e:	74 22                	je     57b2 <transparent_crc_bytes+0x71>
    5790:	8b 05 8a d8 00 00    	mov    0xd88a(%rip),%eax        # 13020 <crc32_context>
    5796:	f7 d0                	not    %eax
    5798:	89 c2                	mov    %eax,%edx
    579a:	48 8b 45 d8          	mov    -0x28(%rbp),%rax
    579e:	48 89 c6             	mov    %rax,%rsi
    57a1:	48 8d 3d 88 98 00 00 	lea    0x9888(%rip),%rdi        # f030 <_IO_stdin_used+0x30>
    57a8:	b8 00 00 00 00       	mov    $0x0,%eax
    57ad:	e8 ce e8 ff ff       	callq  4080 <printf@plt>
    57b2:	90                   	nop
    57b3:	c9                   	leaveq 
    57b4:	c3                   	retq   

00000000000057b5 <func_1>:
    57b5:	f3 0f 1e fa          	endbr64 
    57b9:	55                   	push   %rbp
    57ba:	48 89 e5             	mov    %rsp,%rbp
    57bd:	48 81 ec e0 01 00 00 	sub    $0x1e0,%rsp
    57c4:	64 48 8b 04 25 28 00 	mov    %fs:0x28,%rax
    57cb:	00 00 
    57cd:	48 89 45 f8          	mov    %rax,-0x8(%rbp)
    57d1:	31 c0                	xor    %eax,%eax
    57d3:	48 b8 89 15 08 8b 94 	movabs $0xf36173948b081589,%rax
    57da:	73 61 f3 
    57dd:	48 89 85 50 fe ff ff 	mov    %rax,-0x1b0(%rbp)
    57e4:	48 8d 05 3d d8 00 00 	lea    0xd83d(%rip),%rax        # 13028 <g_30>
    57eb:	48 89 85 58 fe ff ff 	mov    %rax,-0x1a8(%rbp)
    57f2:	48 c7 85 48 fe ff ff 	movq   $0x0,-0x1b8(%rbp)
    57f9:	00 00 00 00 
    57fd:	c7 85 28 fe ff ff fa 	movl   $0xfffffffa,-0x1d8(%rbp)
    5804:	ff ff ff 
    5807:	48 8d 05 22 d8 00 00 	lea    0xd822(%rip),%rax        # 13030 <g_34>
    580e:	48 89 85 60 fe ff ff 	mov    %rax,-0x1a0(%rbp)
    5815:	48 8d 05 16 d8 00 00 	lea    0xd816(%rip),%rax        # 13032 <g_36>
    581c:	48 89 85 30 ff ff ff 	mov    %rax,-0xd0(%rbp)
    5823:	48 8d 05 08 d8 00 00 	lea    0xd808(%rip),%rax        # 13032 <g_36>
    582a:	48 89 85 38 ff ff ff 	mov    %rax,-0xc8(%rbp)
    5831:	48 8d 05 fa d7 00 00 	lea    0xd7fa(%rip),%rax        # 13032 <g_36>
    5838:	48 89 85 40 ff ff ff 	mov    %rax,-0xc0(%rbp)
    583f:	48 8d 05 ec d7 00 00 	lea    0xd7ec(%rip),%rax        # 13032 <g_36>
    5846:	48 89 85 48 ff ff ff 	mov    %rax,-0xb8(%rbp)
    584d:	48 8d 05 de d7 00 00 	lea    0xd7de(%rip),%rax        # 13032 <g_36>
    5854:	48 89 85 50 ff ff ff 	mov    %rax,-0xb0(%rbp)
    585b:	48 8d 05 d0 d7 00 00 	lea    0xd7d0(%rip),%rax        # 13032 <g_36>
    5862:	48 89 85 58 ff ff ff 	mov    %rax,-0xa8(%rbp)
    5869:	48 8d 05 c2 d7 00 00 	lea    0xd7c2(%rip),%rax        # 13032 <g_36>
    5870:	48 89 85 60 ff ff ff 	mov    %rax,-0xa0(%rbp)
    5877:	48 8d 05 b4 d7 00 00 	lea    0xd7b4(%rip),%rax        # 13032 <g_36>
    587e:	48 89 85 68 ff ff ff 	mov    %rax,-0x98(%rbp)
    5885:	48 8d 05 a6 d7 00 00 	lea    0xd7a6(%rip),%rax        # 13032 <g_36>
    588c:	48 89 85 70 ff ff ff 	mov    %rax,-0x90(%rbp)
    5893:	48 8d 05 98 d7 00 00 	lea    0xd798(%rip),%rax        # 13032 <g_36>
    589a:	48 89 85 78 ff ff ff 	mov    %rax,-0x88(%rbp)
    58a1:	48 8d 05 8a d7 00 00 	lea    0xd78a(%rip),%rax        # 13032 <g_36>
    58a8:	48 89 45 80          	mov    %rax,-0x80(%rbp)
    58ac:	48 8d 05 7f d7 00 00 	lea    0xd77f(%rip),%rax        # 13032 <g_36>
    58b3:	48 89 45 88          	mov    %rax,-0x78(%rbp)
    58b7:	48 8d 05 74 d7 00 00 	lea    0xd774(%rip),%rax        # 13032 <g_36>
    58be:	48 89 45 90          	mov    %rax,-0x70(%rbp)
    58c2:	48 8d 05 69 d7 00 00 	lea    0xd769(%rip),%rax        # 13032 <g_36>
    58c9:	48 89 45 98          	mov    %rax,-0x68(%rbp)
    58cd:	48 8d 05 5e d7 00 00 	lea    0xd75e(%rip),%rax        # 13032 <g_36>
    58d4:	48 89 45 a0          	mov    %rax,-0x60(%rbp)
    58d8:	48 8d 05 53 d7 00 00 	lea    0xd753(%rip),%rax        # 13032 <g_36>
    58df:	48 89 45 a8          	mov    %rax,-0x58(%rbp)
    58e3:	48 8d 05 48 d7 00 00 	lea    0xd748(%rip),%rax        # 13032 <g_36>
    58ea:	48 89 45 b0          	mov    %rax,-0x50(%rbp)
    58ee:	48 8d 05 3d d7 00 00 	lea    0xd73d(%rip),%rax        # 13032 <g_36>
    58f5:	48 89 45 b8          	mov    %rax,-0x48(%rbp)
    58f9:	48 8d 05 32 d7 00 00 	lea    0xd732(%rip),%rax        # 13032 <g_36>
    5900:	48 89 45 c0          	mov    %rax,-0x40(%rbp)
    5904:	48 8d 05 27 d7 00 00 	lea    0xd727(%rip),%rax        # 13032 <g_36>
    590b:	48 89 45 c8          	mov    %rax,-0x38(%rbp)
    590f:	48 8d 05 1c d7 00 00 	lea    0xd71c(%rip),%rax        # 13032 <g_36>
    5916:	48 89 45 d0          	mov    %rax,-0x30(%rbp)
    591a:	48 8d 05 11 d7 00 00 	lea    0xd711(%rip),%rax        # 13032 <g_36>
    5921:	48 89 45 d8          	mov    %rax,-0x28(%rbp)
    5925:	48 8d 05 06 d7 00 00 	lea    0xd706(%rip),%rax        # 13032 <g_36>
    592c:	48 89 45 e0          	mov    %rax,-0x20(%rbp)
    5930:	48 8d 05 fb d6 00 00 	lea    0xd6fb(%rip),%rax        # 13032 <g_36>
    5937:	48 89 45 e8          	mov    %rax,-0x18(%rbp)
    593b:	48 c7 85 68 fe ff ff 	movq   $0x0,-0x198(%rbp)
    5942:	00 00 00 00 
    5946:	48 8d 85 48 fe ff ff 	lea    -0x1b8(%rbp),%rax
    594d:	48 89 85 70 fe ff ff 	mov    %rax,-0x190(%rbp)
    5954:	c7 85 d0 fe ff ff 01 	movl   $0x1,-0x130(%rbp)
    595b:	00 00 00 
    595e:	c7 85 d4 fe ff ff 01 	movl   $0x1,-0x12c(%rbp)
    5965:	00 00 00 
    5968:	c7 85 d8 fe ff ff 01 	movl   $0x1,-0x128(%rbp)
    596f:	00 00 00 
    5972:	c7 85 dc fe ff ff 01 	movl   $0x1,-0x124(%rbp)
    5979:	00 00 00 
    597c:	c7 85 e0 fe ff ff 01 	movl   $0x1,-0x120(%rbp)
    5983:	00 00 00 
    5986:	c7 85 e4 fe ff ff 01 	movl   $0x1,-0x11c(%rbp)
    598d:	00 00 00 
    5990:	c7 85 e8 fe ff ff 01 	movl   $0x1,-0x118(%rbp)
    5997:	00 00 00 
    599a:	c7 85 ec fe ff ff 01 	movl   $0x1,-0x114(%rbp)
    59a1:	00 00 00 
    59a4:	c7 85 f0 fe ff ff 01 	movl   $0x1,-0x110(%rbp)
    59ab:	00 00 00 
    59ae:	c7 85 2c fe ff ff 32 	movl   $0x525d6832,-0x1d4(%rbp)
    59b5:	68 5d 52 
    59b8:	c7 85 30 fe ff ff ff 	movl   $0xffffffff,-0x1d0(%rbp)
    59bf:	ff ff ff 
    59c2:	c7 85 34 fe ff ff 98 	movl   $0x4ada8a98,-0x1cc(%rbp)
    59c9:	8a da 4a 
    59cc:	c7 85 38 fe ff ff 00 	movl   $0x0,-0x1c8(%rbp)
    59d3:	00 00 00 
    59d6:	c7 85 3c fe ff ff ff 	movl   $0xffffffff,-0x1c4(%rbp)
    59dd:	ff ff ff 
    59e0:	c7 85 40 fe ff ff f7 	movl   $0xfffffff7,-0x1c0(%rbp)
    59e7:	ff ff ff 
    59ea:	c6 85 20 fe ff ff 05 	movb   $0x5,-0x1e0(%rbp)
    59f1:	48 c7 85 78 fe ff ff 	movq   $0xfffffffffffffffe,-0x188(%rbp)
    59f8:	fe ff ff ff 
    59fc:	c7 85 90 fe ff ff ff 	movl   $0xd6bb3dff,-0x170(%rbp)
    5a03:	3d bb d6 
    5a06:	c7 85 94 fe ff ff ff 	movl   $0xd6bb3dff,-0x16c(%rbp)
    5a0d:	3d bb d6 
    5a10:	c7 85 98 fe ff ff ff 	movl   $0xd6bb3dff,-0x168(%rbp)
    5a17:	3d bb d6 
    5a1a:	c7 85 9c fe ff ff ff 	movl   $0xd6bb3dff,-0x164(%rbp)
    5a21:	3d bb d6 
    5a24:	c7 85 a0 fe ff ff ff 	movl   $0xd6bb3dff,-0x160(%rbp)
    5a2b:	3d bb d6 
    5a2e:	c7 85 a4 fe ff ff ff 	movl   $0xd6bb3dff,-0x15c(%rbp)
    5a35:	3d bb d6 
    5a38:	66 c7 85 22 fe ff ff 	movw   $0x3,-0x1de(%rbp)
    5a3f:	03 00 
    5a41:	48 8d 05 20 e5 00 00 	lea    0xe520(%rip),%rax        # 13f68 <g_778>
    5a48:	48 89 85 80 fe ff ff 	mov    %rax,-0x180(%rbp)
    5a4f:	48 8d 05 ca e6 00 00 	lea    0xe6ca(%rip),%rax        # 14120 <g_1400>
    5a56:	48 89 85 88 fe ff ff 	mov    %rax,-0x178(%rbp)
    5a5d:	c6 85 21 fe ff ff 05 	movb   $0x5,-0x1df(%rbp)
    5a64:	c7 85 44 fe ff ff 01 	movl   $0x1,-0x1bc(%rbp)
    5a6b:	00 00 00 
    5a6e:	c7 85 24 fe ff ff 00 	movl   $0x0,-0x1dc(%rbp)
    5a75:	00 00 00 
    5a78:	eb 21                	jmp    5a9b <func_1+0x2e6>
    5a7a:	8b 85 24 fe ff ff    	mov    -0x1dc(%rbp),%eax
    5a80:	48 98                	cltq   
    5a82:	48 b9 18 68 bc 1a 00 	movabs $0x101da7001abc6818,%rcx
    5a89:	a7 1d 10 
    5a8c:	48 89 8c c5 00 ff ff 	mov    %rcx,-0x100(%rbp,%rax,8)
    5a93:	ff 
    5a94:	83 85 24 fe ff ff 01 	addl   $0x1,-0x1dc(%rbp)
    5a9b:	83 bd 24 fe ff ff 05 	cmpl   $0x5,-0x1dc(%rbp)
    5aa2:	7e d6                	jle    5a7a <func_1+0x2c5>
    5aa4:	c7 85 24 fe ff ff 00 	movl   $0x0,-0x1dc(%rbp)
    5aab:	00 00 00 
    5aae:	eb 1e                	jmp    5ace <func_1+0x319>
    5ab0:	8b 85 24 fe ff ff    	mov    -0x1dc(%rbp),%eax
    5ab6:	48 98                	cltq   
    5ab8:	48 8d 15 41 ee 00 00 	lea    0xee41(%rip),%rdx        # 14900 <g_1934>
    5abf:	48 89 94 c5 b0 fe ff 	mov    %rdx,-0x150(%rbp,%rax,8)
    5ac6:	ff 
    5ac7:	83 85 24 fe ff ff 01 	addl   $0x1,-0x1dc(%rbp)
    5ace:	83 bd 24 fe ff ff 03 	cmpl   $0x3,-0x1dc(%rbp)
    5ad5:	7e d9                	jle    5ab0 <func_1+0x2fb>
    5ad7:	48 8b 85 78 fe ff ff 	mov    -0x188(%rbp),%rax
    5ade:	48 8b 75 f8          	mov    -0x8(%rbp),%rsi
    5ae2:	64 48 33 34 25 28 00 	xor    %fs:0x28,%rsi
    5ae9:	00 00 
    5aeb:	74 05                	je     5af2 <func_1+0x33d>
    5aed:	e8 7e e5 ff ff       	callq  4070 <__stack_chk_fail@plt>
    5af2:	c9                   	leaveq 
    5af3:	c3                   	retq   

0000000000005af4 <func_2>:
    5af4:	f3 0f 1e fa          	endbr64 
    5af8:	55                   	push   %rbp
    5af9:	48 89 e5             	mov    %rsp,%rbp
    5afc:	48 83 ec 40          	sub    $0x40,%rsp
    5b00:	48 89 7d d8          	mov    %rdi,-0x28(%rbp)
    5b04:	48 89 75 d0          	mov    %rsi,-0x30(%rbp)
    5b08:	48 89 55 c8          	mov    %rdx,-0x38(%rbp)
    5b0c:	48 89 4d c0          	mov    %rcx,-0x40(%rbp)
    5b10:	64 48 8b 04 25 28 00 	mov    %fs:0x28,%rax
    5b17:	00 00 
    5b19:	48 89 45 f8          	mov    %rax,-0x8(%rbp)
    5b1d:	31 c0                	xor    %eax,%eax
    5b1f:	48 8d 05 62 ed 00 00 	lea    0xed62(%rip),%rax        # 14888 <g_22>
    5b26:	48 89 45 e8          	mov    %rax,-0x18(%rbp)
    5b2a:	48 8d 45 e8          	lea    -0x18(%rbp),%rax
    5b2e:	48 89 45 f0          	mov    %rax,-0x10(%rbp)
    5b32:	48 8b 45 f0          	mov    -0x10(%rbp),%rax
    5b36:	48 c7 00 00 00 00 00 	movq   $0x0,(%rax)
    5b3d:	48 8b 05 9c e8 00 00 	mov    0xe89c(%rip),%rax        # 143e0 <g_1750>
    5b44:	48 8b 00             	mov    (%rax),%rax
    5b47:	48 8b 55 f8          	mov    -0x8(%rbp),%rdx
    5b4b:	64 48 33 14 25 28 00 	xor    %fs:0x28,%rdx
    5b52:	00 00 
    5b54:	74 05                	je     5b5b <func_2+0x67>
    5b56:	e8 15 e5 ff ff       	callq  4070 <__stack_chk_fail@plt>
    5b5b:	c9                   	leaveq 
    5b5c:	c3                   	retq   

0000000000005b5d <func_7>:
    5b5d:	f3 0f 1e fa          	endbr64 
    5b61:	55                   	push   %rbp
    5b62:	48 89 e5             	mov    %rsp,%rbp
    5b65:	41 54                	push   %r12
    5b67:	53                   	push   %rbx
    5b68:	48 83 ec 30          	sub    $0x30,%rsp
    5b6c:	89 f8                	mov    %edi,%eax
    5b6e:	89 75 c8             	mov    %esi,-0x38(%rbp)
    5b71:	89 55 c4             	mov    %edx,-0x3c(%rbp)
    5b74:	88 45 cc             	mov    %al,-0x34(%rbp)
    5b77:	48 8d 05 a6 d4 00 00 	lea    0xd4a6(%rip),%rax        # 13024 <g_19>
    5b7e:	48 89 45 d8          	mov    %rax,-0x28(%rbp)
    5b82:	48 8d 05 37 df 00 00 	lea    0xdf37(%rip),%rax        # 13ac0 <g_21>
    5b89:	48 89 45 e0          	mov    %rax,-0x20(%rbp)
    5b8d:	48 8d 05 2c d5 00 00 	lea    0xd52c(%rip),%rax        # 130c0 <g_215>
    5b94:	48 89 45 e8          	mov    %rax,-0x18(%rbp)
    5b98:	c7 45 d0 01 00 00 00 	movl   $0x1,-0x30(%rbp)
    5b9f:	c7 45 d4 10 53 9f 67 	movl   $0x679f5310,-0x2c(%rbp)
    5ba6:	66 44 0f be 65 cc    	movsbw -0x34(%rbp),%r12w
    5bac:	66 0f be 45 cc       	movsbw -0x34(%rbp),%ax
    5bb1:	8b 55 d0             	mov    -0x30(%rbp),%edx
    5bb4:	09 d0                	or     %edx,%eax
    5bb6:	0f b7 d8             	movzwl %ax,%ebx
    5bb9:	48 8b 45 e0          	mov    -0x20(%rbp),%rax
    5bbd:	48 89 c7             	mov    %rax,%rdi
    5bc0:	e8 0c 01 00 00       	callq  5cd1 <func_45>
    5bc5:	48 83 7d e8 00       	cmpq   $0x0,-0x18(%rbp)
    5bca:	0f 95 c0             	setne  %al
    5bcd:	0f b6 c0             	movzbl %al,%eax
    5bd0:	89 de                	mov    %ebx,%esi
    5bd2:	89 c7                	mov    %eax,%edi
    5bd4:	e8 46 f1 ff ff       	callq  4d1f <safe_sub_func_uint16_t_u_u>
    5bd9:	0f b7 c0             	movzwl %ax,%eax
    5bdc:	48 c7 c6 ff ff ff ff 	mov    $0xffffffffffffffff,%rsi
    5be3:	48 89 c7             	mov    %rax,%rdi
    5be6:	e8 43 f4 ff ff       	callq  502e <safe_add_func_uint64_t_u_u>
    5beb:	89 c2                	mov    %eax,%edx
    5bed:	8b 45 c4             	mov    -0x3c(%rbp),%eax
    5bf0:	21 d0                	and    %edx,%eax
    5bf2:	0f bf d0             	movswl %ax,%edx
    5bf5:	48 8b 45 d8          	mov    -0x28(%rbp),%rax
    5bf9:	0f b6 00             	movzbl (%rax),%eax
    5bfc:	83 e0 31             	and    $0x31,%eax
    5bff:	89 c1                	mov    %eax,%ecx
    5c01:	48 8b 45 d8          	mov    -0x28(%rbp),%rax
    5c05:	88 08                	mov    %cl,(%rax)
    5c07:	48 8b 45 d8          	mov    -0x28(%rbp),%rax
    5c0b:	0f b6 00             	movzbl (%rax),%eax
    5c0e:	22 45 cc             	and    -0x34(%rbp),%al
    5c11:	0f be c0             	movsbl %al,%eax
    5c14:	89 c1                	mov    %eax,%ecx
    5c16:	0f b7 05 13 d4 00 00 	movzwl 0xd413(%rip),%eax        # 13030 <g_34>
    5c1d:	09 c8                	or     %ecx,%eax
    5c1f:	66 89 05 0a d4 00 00 	mov    %ax,0xd40a(%rip)        # 13030 <g_34>
    5c26:	0f b7 05 03 d4 00 00 	movzwl 0xd403(%rip),%eax        # 13030 <g_34>
    5c2d:	98                   	cwtl   
    5c2e:	89 d6                	mov    %edx,%esi
    5c30:	89 c7                	mov    %eax,%edi
    5c32:	e8 9c e7 ff ff       	callq  43d3 <safe_sub_func_int16_t_s_s>
    5c37:	66 41 39 c4          	cmp    %ax,%r12w
    5c3b:	0f 9f c0             	setg   %al
    5c3e:	0f b6 c0             	movzbl %al,%eax
    5c41:	09 45 d4             	or     %eax,-0x2c(%rbp)
    5c44:	c6 05 89 d5 00 00 00 	movb   $0x0,0xd589(%rip)        # 131d4 <g_1050>
    5c4b:	eb 2d                	jmp    5c7a <func_7+0x11d>
    5c4d:	0f b6 05 80 d5 00 00 	movzbl 0xd580(%rip),%eax        # 131d4 <g_1050>
    5c54:	0f be c0             	movsbl %al,%eax
    5c57:	48 98                	cltq   
    5c59:	48 8d 14 00          	lea    (%rax,%rax,1),%rdx
    5c5d:	48 8d 05 dc d3 00 00 	lea    0xd3dc(%rip),%rax        # 13040 <g_80>
    5c64:	66 c7 04 02 e4 7d    	movw   $0x7de4,(%rdx,%rax,1)
    5c6a:	0f b6 05 63 d5 00 00 	movzbl 0xd563(%rip),%eax        # 131d4 <g_1050>
    5c71:	83 c0 01             	add    $0x1,%eax
    5c74:	88 05 5a d5 00 00    	mov    %al,0xd55a(%rip)        # 131d4 <g_1050>
    5c7a:	0f b6 05 53 d5 00 00 	movzbl 0xd553(%rip),%eax        # 131d4 <g_1050>
    5c81:	3c 01                	cmp    $0x1,%al
    5c83:	7e c8                	jle    5c4d <func_7+0xf0>
    5c85:	48 8b 05 54 e7 00 00 	mov    0xe754(%rip),%rax        # 143e0 <g_1750>
    5c8c:	48 8b 00             	mov    (%rax),%rax
    5c8f:	48 83 c4 30          	add    $0x30,%rsp
    5c93:	5b                   	pop    %rbx
    5c94:	41 5c                	pop    %r12
    5c96:	5d                   	pop    %rbp
    5c97:	c3                   	retq   

0000000000005c98 <func_13>:
    5c98:	f3 0f 1e fa          	endbr64 
    5c9c:	55                   	push   %rbp
    5c9d:	48 89 e5             	mov    %rsp,%rbp
    5ca0:	89 f8                	mov    %edi,%eax
    5ca2:	89 75 e8             	mov    %esi,-0x18(%rbp)
    5ca5:	89 d6                	mov    %edx,%esi
    5ca7:	48 89 4d d8          	mov    %rcx,-0x28(%rbp)
    5cab:	44 89 c2             	mov    %r8d,%edx
    5cae:	66 89 45 ec          	mov    %ax,-0x14(%rbp)
    5cb2:	89 f0                	mov    %esi,%eax
    5cb4:	88 45 e4             	mov    %al,-0x1c(%rbp)
    5cb7:	89 d0                	mov    %edx,%eax
    5cb9:	66 89 45 e0          	mov    %ax,-0x20(%rbp)
    5cbd:	48 c7 45 f8 00 00 00 	movq   $0x0,-0x8(%rbp)
    5cc4:	00 
    5cc5:	c7 45 f4 01 1d 11 34 	movl   $0x34111d01,-0xc(%rbp)
    5ccc:	8b 45 f4             	mov    -0xc(%rbp),%eax
    5ccf:	5d                   	pop    %rbp
    5cd0:	c3                   	retq   

0000000000005cd1 <func_45>:
    5cd1:	f3 0f 1e fa          	endbr64 
    5cd5:	55                   	push   %rbp
    5cd6:	48 89 e5             	mov    %rsp,%rbp
    5cd9:	41 57                	push   %r15
    5cdb:	41 56                	push   %r14
    5cdd:	41 55                	push   %r13
    5cdf:	41 54                	push   %r12
    5ce1:	53                   	push   %rbx
    5ce2:	48 81 ec 28 0b 00 00 	sub    $0xb28,%rsp
    5ce9:	48 89 bd c8 f4 ff ff 	mov    %rdi,-0xb38(%rbp)
    5cf0:	64 48 8b 04 25 28 00 	mov    %fs:0x28,%rax
    5cf7:	00 00 
    5cf9:	48 89 45 c8          	mov    %rax,-0x38(%rbp)
    5cfd:	31 c0                	xor    %eax,%eax
    5cff:	66 c7 85 e0 f4 ff ff 	movw   $0x4,-0xb20(%rbp)
    5d06:	04 00 
    5d08:	c7 85 14 f5 ff ff 01 	movl   $0x1,-0xaec(%rbp)
    5d0f:	00 00 00 
    5d12:	48 8d 05 6f e3 00 00 	lea    0xe36f(%rip),%rax        # 14088 <g_1296>
    5d19:	48 89 85 90 f5 ff ff 	mov    %rax,-0xa70(%rbp)
    5d20:	c7 85 e8 f4 ff ff 56 	movl   $0xd07d2a56,-0xb18(%rbp)
    5d27:	2a 7d d0 
    5d2a:	c7 85 18 f5 ff ff a1 	movl   $0xc97ae6a1,-0xae8(%rbp)
    5d31:	e6 7a c9 
    5d34:	48 8d 85 00 f8 ff ff 	lea    -0x800(%rbp),%rax
    5d3b:	48 8d 15 9e 93 00 00 	lea    0x939e(%rip),%rdx        # f0e0 <g_2043+0x20>
    5d42:	b9 78 00 00 00       	mov    $0x78,%ecx
    5d47:	48 89 c7             	mov    %rax,%rdi
    5d4a:	48 89 d6             	mov    %rdx,%rsi
    5d4d:	f3 48 a5             	rep movsq %ds:(%rsi),%es:(%rdi)
    5d50:	c7 85 1c f5 ff ff fa 	movl   $0xfffffffa,-0xae4(%rbp)
    5d57:	ff ff ff 
    5d5a:	48 8d 05 c7 e3 00 00 	lea    0xe3c7(%rip),%rax        # 14128 <g_1399>
    5d61:	48 89 85 98 f5 ff ff 	mov    %rax,-0xa68(%rbp)
    5d68:	66 c7 85 e2 f4 ff ff 	movw   $0x6,-0xb1e(%rbp)
    5d6f:	06 00 
    5d71:	48 8d 05 e0 d2 00 00 	lea    0xd2e0(%rip),%rax        # 13058 <g_149>
    5d78:	48 89 85 a0 f5 ff ff 	mov    %rax,-0xa60(%rbp)
    5d7f:	48 8d 85 e8 f4 ff ff 	lea    -0xb18(%rbp),%rax
    5d86:	48 89 85 a8 f5 ff ff 	mov    %rax,-0xa58(%rbp)
    5d8d:	48 8d 05 8c dd 00 00 	lea    0xdd8c(%rip),%rax        # 13b20 <g_116+0x40>
    5d94:	48 89 85 b0 f5 ff ff 	mov    %rax,-0xa50(%rbp)
    5d9b:	48 c7 85 b8 f5 ff ff 	movq   $0x0,-0xa48(%rbp)
    5da2:	00 00 00 00 
    5da6:	66 c7 85 e4 f4 ff ff 	movw   $0xc1c,-0xb1c(%rbp)
    5dad:	1c 0c 
    5daf:	c7 85 20 f5 ff ff 5a 	movl   $0x6184115a,-0xae0(%rbp)
    5db6:	11 84 61 
    5db9:	48 8d 05 c8 ea 00 00 	lea    0xeac8(%rip),%rax        # 14888 <g_22>
    5dc0:	48 89 85 c0 f5 ff ff 	mov    %rax,-0xa40(%rbp)
    5dc7:	c7 85 24 f5 ff ff 3e 	movl   $0xf5715f3e,-0xadc(%rbp)
    5dce:	5f 71 f5 
    5dd1:	48 8d 05 88 e1 00 00 	lea    0xe188(%rip),%rax        # 13f60 <g_590>
    5dd8:	48 89 85 c8 f5 ff ff 	mov    %rax,-0xa38(%rbp)
    5ddf:	48 8b 85 c8 f4 ff ff 	mov    -0xb38(%rbp),%rax
    5de6:	48 8b 00             	mov    (%rax),%rax
    5de9:	8b 00                	mov    (%rax),%eax
    5deb:	85 c0                	test   %eax,%eax
    5ded:	0f 84 fa 0e 00 00    	je     6ced <func_45+0x101c>
    5df3:	c7 85 ec f4 ff ff af 	movl   $0xd6e511af,-0xb14(%rbp)
    5dfa:	11 e5 d6 
    5dfd:	c7 85 f0 f4 ff ff d8 	movl   $0x964b5ad8,-0xb10(%rbp)
    5e04:	5a 4b 96 
    5e07:	48 c7 85 10 f6 ff ff 	movq   $0x0,-0x9f0(%rbp)
    5e0e:	00 00 00 00 
    5e12:	c7 85 04 f5 ff ff 4b 	movl   $0xa44fac4b,-0xafc(%rbp)
    5e19:	ac 4f a4 
    5e1c:	c7 85 30 f5 ff ff 01 	movl   $0x1,-0xad0(%rbp)
    5e23:	00 00 00 
    5e26:	c7 85 34 f5 ff ff b2 	movl   $0x5f50b1b2,-0xacc(%rbp)
    5e2d:	b1 50 5f 
    5e30:	c7 85 b0 f6 ff ff 01 	movl   $0x1,-0x950(%rbp)
    5e37:	00 00 00 
    5e3a:	c7 85 b4 f6 ff ff 01 	movl   $0x1,-0x94c(%rbp)
    5e41:	00 00 00 
    5e44:	c7 85 b8 f6 ff ff 01 	movl   $0x1,-0x948(%rbp)
    5e4b:	00 00 00 
    5e4e:	c7 85 bc f6 ff ff 01 	movl   $0x1,-0x944(%rbp)
    5e55:	00 00 00 
    5e58:	c7 85 c0 f6 ff ff 01 	movl   $0x1,-0x940(%rbp)
    5e5f:	00 00 00 
    5e62:	c7 85 c4 f6 ff ff 01 	movl   $0x1,-0x93c(%rbp)
    5e69:	00 00 00 
    5e6c:	c7 85 c8 f6 ff ff 01 	movl   $0x1,-0x938(%rbp)
    5e73:	00 00 00 
    5e76:	c7 85 cc f6 ff ff 01 	movl   $0x1,-0x934(%rbp)
    5e7d:	00 00 00 
    5e80:	c7 85 d0 f6 ff ff 01 	movl   $0x1,-0x930(%rbp)
    5e87:	00 00 00 
    5e8a:	c7 85 d4 f6 ff ff 01 	movl   $0x1,-0x92c(%rbp)
    5e91:	00 00 00 
    5e94:	c7 85 d8 f6 ff ff 01 	movl   $0x1,-0x928(%rbp)
    5e9b:	00 00 00 
    5e9e:	c7 85 dc f6 ff ff 01 	movl   $0x1,-0x924(%rbp)
    5ea5:	00 00 00 
    5ea8:	c7 85 38 f5 ff ff 03 	movl   $0x3,-0xac8(%rbp)
    5eaf:	00 00 00 
    5eb2:	c7 85 00 f5 ff ff 00 	movl   $0x0,-0xb00(%rbp)
    5eb9:	00 00 00 
    5ebc:	eb 14                	jmp    5ed2 <func_45+0x201>
    5ebe:	8b 85 00 f5 ff ff    	mov    -0xb00(%rbp),%eax
    5ec4:	48 98                	cltq   
    5ec6:	c6 44 05 c5 82       	movb   $0x82,-0x3b(%rbp,%rax,1)
    5ecb:	83 85 00 f5 ff ff 01 	addl   $0x1,-0xb00(%rbp)
    5ed2:	83 bd 00 f5 ff ff 02 	cmpl   $0x2,-0xb00(%rbp)
    5ed9:	7e e3                	jle    5ebe <func_45+0x1ed>
    5edb:	48 c7 05 42 d1 00 00 	movq   $0xfffffffffffffff8,0xd142(%rip)        # 13028 <g_30>
    5ee2:	f8 ff ff ff 
    5ee6:	e9 e6 0d 00 00       	jmpq   6cd1 <func_45+0x1000>
    5eeb:	c7 85 f4 f4 ff ff 8a 	movl   $0xdcec458a,-0xb0c(%rbp)
    5ef2:	45 ec dc 
    5ef5:	48 8d 85 c0 fb ff ff 	lea    -0x440(%rbp),%rax
    5efc:	48 8d 15 9d 95 00 00 	lea    0x959d(%rip),%rdx        # f4a0 <g_2043+0x3e0>
    5f03:	b9 80 00 00 00       	mov    $0x80,%ecx
    5f08:	48 89 c7             	mov    %rax,%rdi
    5f0b:	48 89 d6             	mov    %rdx,%rsi
    5f0e:	f3 48 a5             	rep movsq %ds:(%rsi),%es:(%rdi)
    5f11:	c7 85 f8 f4 ff ff 88 	movl   $0xc5586288,-0xb08(%rbp)
    5f18:	62 58 c5 
    5f1b:	48 8d 85 f8 f4 ff ff 	lea    -0xb08(%rbp),%rax
    5f22:	48 89 85 20 f7 ff ff 	mov    %rax,-0x8e0(%rbp)
    5f29:	48 8d 85 f4 f4 ff ff 	lea    -0xb0c(%rbp),%rax
    5f30:	48 89 85 28 f7 ff ff 	mov    %rax,-0x8d8(%rbp)
    5f37:	48 8d 85 f4 f4 ff ff 	lea    -0xb0c(%rbp),%rax
    5f3e:	48 89 85 30 f7 ff ff 	mov    %rax,-0x8d0(%rbp)
    5f45:	48 8d 05 7c d2 00 00 	lea    0xd27c(%rip),%rax        # 131c8 <g_918>
    5f4c:	48 89 85 38 f7 ff ff 	mov    %rax,-0x8c8(%rbp)
    5f53:	48 8d 05 6e d2 00 00 	lea    0xd26e(%rip),%rax        # 131c8 <g_918>
    5f5a:	48 89 85 40 f7 ff ff 	mov    %rax,-0x8c0(%rbp)
    5f61:	48 8d 05 60 d2 00 00 	lea    0xd260(%rip),%rax        # 131c8 <g_918>
    5f68:	48 89 85 48 f7 ff ff 	mov    %rax,-0x8b8(%rbp)
    5f6f:	48 8d 85 f8 f4 ff ff 	lea    -0xb08(%rbp),%rax
    5f76:	48 89 85 50 f7 ff ff 	mov    %rax,-0x8b0(%rbp)
    5f7d:	48 8d 85 f8 f4 ff ff 	lea    -0xb08(%rbp),%rax
    5f84:	48 89 85 58 f7 ff ff 	mov    %rax,-0x8a8(%rbp)
    5f8b:	48 8d 05 36 d2 00 00 	lea    0xd236(%rip),%rax        # 131c8 <g_918>
    5f92:	48 89 85 60 f7 ff ff 	mov    %rax,-0x8a0(%rbp)
    5f99:	48 8d 05 28 d2 00 00 	lea    0xd228(%rip),%rax        # 131c8 <g_918>
    5fa0:	48 89 85 68 f7 ff ff 	mov    %rax,-0x898(%rbp)
    5fa7:	48 8d 85 20 f7 ff ff 	lea    -0x8e0(%rbp),%rax
    5fae:	48 83 c0 20          	add    $0x20,%rax
    5fb2:	48 89 85 80 f5 ff ff 	mov    %rax,-0xa80(%rbp)
    5fb9:	48 8d 85 80 f5 ff ff 	lea    -0xa80(%rbp),%rax
    5fc0:	48 89 85 18 f6 ff ff 	mov    %rax,-0x9e8(%rbp)
    5fc7:	48 b8 29 cf 4d e1 6e 	movabs $0x8a8fae6ee14dcf29,%rax
    5fce:	ae 8f 8a 
    5fd1:	48 89 85 88 f5 ff ff 	mov    %rax,-0xa78(%rbp)
    5fd8:	48 8d 05 49 e1 00 00 	lea    0xe149(%rip),%rax        # 14128 <g_1399>
    5fdf:	48 89 85 20 f6 ff ff 	mov    %rax,-0x9e0(%rbp)
    5fe6:	66 c7 05 43 d0 00 00 	movw   $0xc,0xd043(%rip)        # 13032 <g_36>
    5fed:	0c 00 
    5fef:	e9 f4 01 00 00       	jmpq   61e8 <func_45+0x517>
    5ff4:	48 8d 85 ec f4 ff ff 	lea    -0xb14(%rbp),%rax
    5ffb:	48 89 85 48 f6 ff ff 	mov    %rax,-0x9b8(%rbp)
    6002:	c7 85 7c f5 ff ff 01 	movl   $0x1,-0xa84(%rbp)
    6009:	00 00 00 
    600c:	48 8d 05 7d d0 00 00 	lea    0xd07d(%rip),%rax        # 13090 <g_180+0x10>
    6013:	48 89 85 50 f6 ff ff 	mov    %rax,-0x9b0(%rbp)
    601a:	48 8d 05 7f e0 00 00 	lea    0xe07f(%rip),%rax        # 140a0 <g_1336>
    6021:	48 89 85 58 f6 ff ff 	mov    %rax,-0x9a8(%rbp)
    6028:	48 8d 05 71 e8 00 00 	lea    0xe871(%rip),%rax        # 148a0 <g_106>
    602f:	48 89 85 60 f6 ff ff 	mov    %rax,-0x9a0(%rbp)
    6036:	48 8d 05 33 df 00 00 	lea    0xdf33(%rip),%rax        # 13f70 <g_777>
    603d:	48 89 85 68 f6 ff ff 	mov    %rax,-0x998(%rbp)
    6044:	c7 05 3a e8 00 00 00 	movl   $0x0,0xe83a(%rip)        # 14888 <g_22>
    604b:	00 00 00 
    604e:	90                   	nop
    604f:	8b 05 33 e8 00 00    	mov    0xe833(%rip),%eax        # 14888 <g_22>
    6055:	85 c0                	test   %eax,%eax
    6057:	78 0b                	js     6064 <func_45+0x393>
    6059:	8b 85 ec f4 ff ff    	mov    -0xb14(%rbp),%eax
    605f:	e9 37 0f 00 00       	jmpq   6f9b <func_45+0x12ca>
    6064:	8b 85 f4 f4 ff ff    	mov    -0xb0c(%rbp),%eax
    606a:	48 63 d0             	movslq %eax,%rdx
    606d:	48 8b 05 b4 cf 00 00 	mov    0xcfb4(%rip),%rax        # 13028 <g_30>
    6074:	89 c1                	mov    %eax,%ecx
    6076:	48 8b 85 48 f6 ff ff 	mov    -0x9b8(%rbp),%rax
    607d:	89 08                	mov    %ecx,(%rax)
    607f:	8b 85 7c f5 ff ff    	mov    -0xa84(%rbp),%eax
    6085:	48 98                	cltq   
    6087:	48 89 d6             	mov    %rdx,%rsi
    608a:	48 89 c7             	mov    %rax,%rdi
    608d:	e8 16 e8 ff ff       	callq  48a8 <safe_sub_func_int64_t_s_s>
    6092:	8b 95 f4 f4 ff ff    	mov    -0xb0c(%rbp),%edx
    6098:	48 63 d2             	movslq %edx,%rdx
    609b:	48 39 d0             	cmp    %rdx,%rax
    609e:	0f 9d c0             	setge  %al
    60a1:	0f b6 c0             	movzbl %al,%eax
    60a4:	89 85 c4 f4 ff ff    	mov    %eax,-0xb3c(%rbp)
    60aa:	0f b7 05 a7 cf 00 00 	movzwl 0xcfa7(%rip),%eax        # 13058 <g_149>
    60b1:	0f b7 c8             	movzwl %ax,%ecx
    60b4:	89 8d c0 f4 ff ff    	mov    %ecx,-0xb40(%rbp)
    60ba:	8b 85 f0 f4 ff ff    	mov    -0xb10(%rbp),%eax
    60c0:	44 0f b6 e0          	movzbl %al,%r12d
    60c4:	8b 9d f4 f4 ff ff    	mov    -0xb0c(%rbp),%ebx
    60ca:	8b 85 7c f5 ff ff    	mov    -0xa84(%rbp),%eax
    60d0:	0f b7 f0             	movzwl %ax,%esi
    60d3:	89 b5 bc f4 ff ff    	mov    %esi,-0xb44(%rbp)
    60d9:	48 8b 85 c8 f4 ff ff 	mov    -0xb38(%rbp),%rax
    60e0:	48 8b 00             	mov    (%rax),%rax
    60e3:	8b 38                	mov    (%rax),%edi
    60e5:	89 bd b8 f4 ff ff    	mov    %edi,-0xb48(%rbp)
    60eb:	8b 85 7c f5 ff ff    	mov    -0xa84(%rbp),%eax
    60f1:	4c 63 f8             	movslq %eax,%r15
    60f4:	8b 85 7c f5 ff ff    	mov    -0xa84(%rbp),%eax
    60fa:	44 0f b6 f0          	movzbl %al,%r14d
    60fe:	8b 85 7c f5 ff ff    	mov    -0xa84(%rbp),%eax
    6104:	44 0f b7 e8          	movzwl %ax,%r13d
    6108:	0f bf 85 e0 f4 ff ff 	movswl -0xb20(%rbp),%eax
    610f:	be f8 ff ff ff       	mov    $0xfffffff8,%esi
    6114:	89 c7                	mov    %eax,%edi
    6116:	e8 da e2 ff ff       	callq  43f5 <safe_mul_func_int16_t_s_s>
    611b:	8b 85 7c f5 ff ff    	mov    -0xa84(%rbp),%eax
    6121:	48 98                	cltq   
    6123:	44 8b 85 b8 f4 ff ff 	mov    -0xb48(%rbp),%r8d
    612a:	4c 89 f9             	mov    %r15,%rcx
    612d:	44 89 f2             	mov    %r14d,%edx
    6130:	44 89 ee             	mov    %r13d,%esi
    6133:	48 89 c7             	mov    %rax,%rdi
    6136:	e8 86 0e 00 00       	callq  6fc1 <func_66>
    613b:	49 89 c6             	mov    %rax,%r14
    613e:	48 8b 05 f3 ce 00 00 	mov    0xcef3(%rip),%rax        # 13038 <g_37>
    6145:	44 0f b6 e8          	movzbl %al,%r13d
    6149:	48 8b 05 d8 ce 00 00 	mov    0xced8(%rip),%rax        # 13028 <g_30>
    6150:	41 89 c7             	mov    %eax,%r15d
    6153:	8b 85 f0 f4 ff ff    	mov    -0xb10(%rbp),%eax
    6159:	0f b7 c0             	movzwl %ax,%eax
    615c:	be 0d 00 00 00       	mov    $0xd,%esi
    6161:	89 c7                	mov    %eax,%edi
    6163:	e8 e0 ec ff ff       	callq  4e48 <safe_rshift_func_uint16_t_u_s>
    6168:	0f b6 c0             	movzbl %al,%eax
    616b:	be 06 00 00 00       	mov    $0x6,%esi
    6170:	89 c7                	mov    %eax,%edi
    6172:	e8 16 eb ff ff       	callq  4c8d <safe_rshift_func_uint8_t_u_s>
    6177:	0f b6 c0             	movzbl %al,%eax
    617a:	44 8b 85 bc f4 ff ff 	mov    -0xb44(%rbp),%r8d
    6181:	4c 89 f1             	mov    %r14,%rcx
    6184:	44 89 ea             	mov    %r13d,%edx
    6187:	44 89 fe             	mov    %r15d,%esi
    618a:	89 c7                	mov    %eax,%edi
    618c:	e8 07 fb ff ff       	callq  5c98 <func_13>
    6191:	0f bf 85 e0 f4 ff ff 	movswl -0xb20(%rbp),%eax
    6198:	48 8d 95 f0 f4 ff ff 	lea    -0xb10(%rbp),%rdx
    619f:	44 8b 85 c0 f4 ff ff 	mov    -0xb40(%rbp),%r8d
    61a6:	48 89 d1             	mov    %rdx,%rcx
    61a9:	44 89 e2             	mov    %r12d,%edx
    61ac:	89 de                	mov    %ebx,%esi
    61ae:	89 c7                	mov    %eax,%edi
    61b0:	e8 e3 fa ff ff       	callq  5c98 <func_13>
    61b5:	84 c0                	test   %al,%al
    61b7:	0f 94 c0             	sete   %al
    61ba:	0f b6 c0             	movzbl %al,%eax
    61bd:	39 85 c4 f4 ff ff    	cmp    %eax,-0xb3c(%rbp)
    61c3:	0f 9e c0             	setle  %al
    61c6:	0f b6 d0             	movzbl %al,%edx
    61c9:	8b 85 58 fd ff ff    	mov    -0x2a8(%rbp),%eax
    61cf:	09 d0                	or     %edx,%eax
    61d1:	89 85 58 fd ff ff    	mov    %eax,-0x2a8(%rbp)
    61d7:	0f b7 05 54 ce 00 00 	movzwl 0xce54(%rip),%eax        # 13032 <g_36>
    61de:	83 e8 01             	sub    $0x1,%eax
    61e1:	66 89 05 4a ce 00 00 	mov    %ax,0xce4a(%rip)        # 13032 <g_36>
    61e8:	0f b7 05 43 ce 00 00 	movzwl 0xce43(%rip),%eax        # 13032 <g_36>
    61ef:	66 83 f8 04          	cmp    $0x4,%ax
    61f3:	0f 8e fb fd ff ff    	jle    5ff4 <func_45+0x323>
    61f9:	c6 05 b0 ce 00 00 00 	movb   $0x0,0xceb0(%rip)        # 130b0 <g_181>
    6200:	e9 67 0a 00 00       	jmpq   6c6c <func_45+0xf9b>
    6205:	c7 85 3c f5 ff ff 21 	movl   $0xe4336121,-0xac4(%rbp)
    620c:	61 33 e4 
    620f:	48 8d 05 ca d8 00 00 	lea    0xd8ca(%rip),%rax        # 13ae0 <g_116>
    6216:	48 89 85 28 f6 ff ff 	mov    %rax,-0x9d8(%rbp)
    621d:	48 8d 05 04 df 00 00 	lea    0xdf04(%rip),%rax        # 14128 <g_1399>
    6224:	48 89 85 30 f6 ff ff 	mov    %rax,-0x9d0(%rbp)
    622b:	c7 85 40 f5 ff ff 3a 	movl   $0xf4e63b3a,-0xac0(%rbp)
    6232:	3b e6 f4 
    6235:	c7 85 44 f5 ff ff ff 	movl   $0xffffffff,-0xabc(%rbp)
    623c:	ff ff ff 
    623f:	c7 85 48 f5 ff ff 82 	movl   $0x9f8df482,-0xab8(%rbp)
    6246:	f4 8d 9f 
    6249:	c7 85 4c f5 ff ff 91 	movl   $0x6d717b91,-0xab4(%rbp)
    6250:	7b 71 6d 
    6253:	c7 85 90 f6 ff ff a6 	movl   $0xac4d7ca6,-0x970(%rbp)
    625a:	7c 4d ac 
    625d:	c7 85 94 f6 ff ff a6 	movl   $0xac4d7ca6,-0x96c(%rbp)
    6264:	7c 4d ac 
    6267:	c7 85 98 f6 ff ff a6 	movl   $0xac4d7ca6,-0x968(%rbp)
    626e:	7c 4d ac 
    6271:	c7 85 9c f6 ff ff a6 	movl   $0xac4d7ca6,-0x964(%rbp)
    6278:	7c 4d ac 
    627b:	c7 85 a0 f6 ff ff a6 	movl   $0xac4d7ca6,-0x960(%rbp)
    6282:	7c 4d ac 
    6285:	c7 85 a4 f6 ff ff a6 	movl   $0xac4d7ca6,-0x95c(%rbp)
    628c:	7c 4d ac 
    628f:	c7 85 a8 f6 ff ff a6 	movl   $0xac4d7ca6,-0x958(%rbp)
    6296:	7c 4d ac 
    6299:	c7 85 50 f5 ff ff a1 	movl   $0x875271a1,-0xab0(%rbp)
    62a0:	71 52 87 
    62a3:	c7 85 54 f5 ff ff ff 	movl   $0xffffffff,-0xaac(%rbp)
    62aa:	ff ff ff 
    62ad:	66 c7 85 e6 f4 ff ff 	movw   $0x345,-0xb1a(%rbp)
    62b4:	45 03 
    62b6:	c7 85 58 f5 ff ff fb 	movl   $0xfffffffb,-0xaa8(%rbp)
    62bd:	ff ff ff 
    62c0:	c7 85 5c f5 ff ff 3d 	movl   $0x2ecad03d,-0xaa4(%rbp)
    62c7:	d0 ca 2e 
    62ca:	c7 85 60 f5 ff ff 06 	movl   $0x6,-0xaa0(%rbp)
    62d1:	00 00 00 
    62d4:	c7 85 fc f4 ff ff 00 	movl   $0x0,-0xb04(%rbp)
    62db:	00 00 00 
    62de:	eb 1a                	jmp    62fa <func_45+0x629>
    62e0:	8b 85 fc f4 ff ff    	mov    -0xb04(%rbp),%eax
    62e6:	48 98                	cltq   
    62e8:	c7 84 85 70 f6 ff ff 	movl   $0x24310124,-0x990(%rbp,%rax,4)
    62ef:	24 01 31 24 
    62f3:	83 85 fc f4 ff ff 01 	addl   $0x1,-0xb04(%rbp)
    62fa:	83 bd fc f4 ff ff 00 	cmpl   $0x0,-0xb04(%rbp)
    6301:	7e dd                	jle    62e0 <func_45+0x60f>
    6303:	48 c7 05 8a e5 00 00 	movq   $0x0,0xe58a(%rip)        # 14898 <g_90>
    630a:	00 00 00 00 
    630e:	e9 88 02 00 00       	jmpq   659b <func_45+0x8ca>
    6313:	c7 85 70 f5 ff ff 36 	movl   $0xab96a36,-0xa90(%rbp)
    631a:	6a b9 0a 
    631d:	c7 85 74 f5 ff ff ff 	movl   $0xffffffff,-0xa8c(%rbp)
    6324:	ff ff ff 
    6327:	c7 85 78 f5 ff ff 00 	movl   $0x0,-0xa88(%rbp)
    632e:	00 00 00 
    6331:	c7 05 95 cd 00 00 16 	movl   $0x16,0xcd95(%rip)        # 130d0 <g_271>
    6338:	00 00 00 
    633b:	90                   	nop
    633c:	8b 05 8e cd 00 00    	mov    0xcd8e(%rip),%eax        # 130d0 <g_271>
    6342:	83 f8 0d             	cmp    $0xd,%eax
    6345:	7e 0b                	jle    6352 <func_45+0x681>
    6347:	8b 85 f4 f4 ff ff    	mov    -0xb0c(%rbp),%eax
    634d:	e9 49 0c 00 00       	jmpq   6f9b <func_45+0x12ca>
    6352:	c7 05 f8 cc 00 00 06 	movl   $0x6,0xccf8(%rip)        # 13054 <g_120>
    6359:	00 00 00 
    635c:	90                   	nop
    635d:	8b 05 f1 cc 00 00    	mov    0xccf1(%rip),%eax        # 13054 <g_120>
    6363:	85 c0                	test   %eax,%eax
    6365:	0f 88 9c 01 00 00    	js     6507 <func_45+0x836>
    636b:	48 8d 05 16 cd 00 00 	lea    0xcd16(%rip),%rax        # 13088 <g_180+0x8>
    6372:	48 89 85 40 f6 ff ff 	mov    %rax,-0x9c0(%rbp)
    6379:	c7 85 70 f7 ff ff ff 	movl   $0xffffffff,-0x890(%rbp)
    6380:	ff ff ff 
    6383:	c7 85 74 f7 ff ff ff 	movl   $0xffffffff,-0x88c(%rbp)
    638a:	ff ff ff 
    638d:	c7 85 78 f7 ff ff ff 	movl   $0xffffffff,-0x888(%rbp)
    6394:	ff ff ff 
    6397:	c7 85 7c f7 ff ff ff 	movl   $0xffffffff,-0x884(%rbp)
    639e:	ff ff ff 
    63a1:	c7 85 80 f7 ff ff ff 	movl   $0xffffffff,-0x880(%rbp)
    63a8:	ff ff ff 
    63ab:	c7 85 84 f7 ff ff ff 	movl   $0xffffffff,-0x87c(%rbp)
    63b2:	ff ff ff 
    63b5:	c7 85 88 f7 ff ff ff 	movl   $0xffffffff,-0x878(%rbp)
    63bc:	ff ff ff 
    63bf:	c7 85 8c f7 ff ff ff 	movl   $0xffffffff,-0x874(%rbp)
    63c6:	ff ff ff 
    63c9:	c7 85 90 f7 ff ff ff 	movl   $0xffffffff,-0x870(%rbp)
    63d0:	ff ff ff 
    63d3:	48 8b 85 c8 f4 ff ff 	mov    -0xb38(%rbp),%rax
    63da:	48 8b 10             	mov    (%rax),%rdx
    63dd:	c7 02 7b 6d 8d 62    	movl   $0x628d6d7b,(%rdx)
    63e3:	48 8b 05 ae dc 00 00 	mov    0xdcae(%rip),%rax        # 14098 <g_1314>
    63ea:	8b 12                	mov    (%rdx),%edx
    63ec:	89 10                	mov    %edx,(%rax)
    63ee:	8b 00                	mov    (%rax),%eax
    63f0:	be b8 69 30 f4       	mov    $0xf43069b8,%esi
    63f5:	89 c7                	mov    %eax,%edi
    63f7:	e8 03 e3 ff ff       	callq  46ff <safe_div_func_int32_t_s_s>
    63fc:	85 c0                	test   %eax,%eax
    63fe:	0f 85 9e 00 00 00    	jne    64a2 <func_45+0x7d1>
    6404:	48 8b 05 45 d8 00 00 	mov    0xd845(%rip),%rax        # 13c50 <g_434>
    640b:	48 8b 00             	mov    (%rax),%rax
    640e:	0f b7 00             	movzwl (%rax),%eax
    6411:	0f b7 c0             	movzwl %ax,%eax
    6414:	39 85 70 f5 ff ff    	cmp    %eax,-0xa90(%rbp)
    641a:	0f bf 95 e0 f4 ff ff 	movswl -0xb20(%rbp),%edx
    6421:	8b 85 f4 f4 ff ff    	mov    -0xb0c(%rbp),%eax
    6427:	39 c2                	cmp    %eax,%edx
    6429:	0f 9d c0             	setge  %al
    642c:	0f b6 c8             	movzbl %al,%ecx
    642f:	48 8b 85 40 f6 ff ff 	mov    -0x9c0(%rbp),%rax
    6436:	48 8b 10             	mov    (%rax),%rdx
    6439:	48 63 c1             	movslq %ecx,%rax
    643c:	48 09 c2             	or     %rax,%rdx
    643f:	48 8b 85 40 f6 ff ff 	mov    -0x9c0(%rbp),%rax
    6446:	48 89 10             	mov    %rdx,(%rax)
    6449:	48 8b 05 c0 db 00 00 	mov    0xdbc0(%rip),%rax        # 14010 <g_1077>
    6450:	48 8b 00             	mov    (%rax),%rax
    6453:	8b 85 3c f5 ff ff    	mov    -0xac4(%rbp),%eax
    6459:	48 98                	cltq   
    645b:	48 be 1a 38 45 93 9a 	movabs $0x8eb4529a9345381a,%rsi
    6462:	52 b4 8e 
    6465:	48 89 c7             	mov    %rax,%rdi
    6468:	e8 42 ec ff ff       	callq  50af <safe_div_func_uint64_t_u_u>
    646d:	48 8b 05 dc da 00 00 	mov    0xdadc(%rip),%rax        # 13f50 <g_592>
    6474:	48 8b 00             	mov    (%rax),%rax
    6477:	48 bb a9 16 5f cd 2a 	movabs $0x9c419f2acd5f16a9,%rbx
    647e:	9f 41 9c 
    6481:	48 89 18             	mov    %rbx,(%rax)
    6484:	48 8b 10             	mov    (%rax),%rdx
    6487:	48 83 bd 28 f6 ff ff 	cmpq   $0x0,-0x9d8(%rbp)
    648e:	00 
    648f:	0f 94 c0             	sete   %al
    6492:	0f b6 c0             	movzbl %al,%eax
    6495:	48 39 c2             	cmp    %rax,%rdx
    6498:	c7 85 74 f5 ff ff 01 	movl   $0x1,-0xa8c(%rbp)
    649f:	00 00 00 
    64a2:	8b 05 ac cb 00 00    	mov    0xcbac(%rip),%eax        # 13054 <g_120>
    64a8:	48 98                	cltq   
    64aa:	48 8d 15 9b cb 00 00 	lea    0xcb9b(%rip),%rdx        # 1304c <g_118>
    64b1:	0f b6 04 10          	movzbl (%rax,%rdx,1),%eax
    64b5:	8b 95 88 f7 ff ff    	mov    -0x878(%rbp),%edx
    64bb:	0f be c0             	movsbl %al,%eax
    64be:	09 d0                	or     %edx,%eax
    64c0:	89 85 88 f7 ff ff    	mov    %eax,-0x878(%rbp)
    64c6:	8b 85 88 f7 ff ff    	mov    -0x878(%rbp),%eax
    64cc:	48 98                	cltq   
    64ce:	48 c7 c6 fe ff ff ff 	mov    $0xfffffffffffffffe,%rsi
    64d5:	48 89 c7             	mov    %rax,%rdi
    64d8:	e8 51 eb ff ff       	callq  502e <safe_add_func_uint64_t_u_u>
    64dd:	89 85 78 f5 ff ff    	mov    %eax,-0xa88(%rbp)
    64e3:	48 8b 05 d6 d5 00 00 	mov    0xd5d6(%rip),%rax        # 13ac0 <g_21>
    64ea:	8b 10                	mov    (%rax),%edx
    64ec:	48 8b 05 cd d5 00 00 	mov    0xd5cd(%rip),%rax        # 13ac0 <g_21>
    64f3:	81 ca e9 d1 ca de    	or     $0xdecad1e9,%edx
    64f9:	89 10                	mov    %edx,(%rax)
    64fb:	0f b7 05 de e3 00 00 	movzwl 0xe3de(%rip),%eax        # 148e0 <g_1391>
    6502:	e9 94 0a 00 00       	jmpq   6f9b <func_45+0x12ca>
    6507:	48 8b 85 c8 f4 ff ff 	mov    -0xb38(%rbp),%rax
    650e:	48 8b 00             	mov    (%rax),%rax
    6511:	c7 00 07 00 00 00    	movl   $0x7,(%rax)
    6517:	0f bf 95 e0 f4 ff ff 	movswl -0xb20(%rbp),%edx
    651e:	48 8b 05 43 da 00 00 	mov    0xda43(%rip),%rax        # 13f68 <g_778>
    6525:	0f b6 00             	movzbl (%rax),%eax
    6528:	0f b6 c0             	movzbl %al,%eax
    652b:	89 d6                	mov    %edx,%esi
    652d:	89 c7                	mov    %eax,%edi
    652f:	e8 8a e7 ff ff       	callq  4cbe <safe_rshift_func_uint8_t_u_u>
    6534:	3c 07                	cmp    $0x7,%al
    6536:	74 16                	je     654e <func_45+0x87d>
    6538:	8b 95 58 fd ff ff    	mov    -0x2a8(%rbp),%edx
    653e:	48 8b 85 28 f6 ff ff 	mov    -0x9d8(%rbp),%rax
    6545:	48 8b 00             	mov    (%rax),%rax
    6548:	89 10                	mov    %edx,(%rax)
    654a:	8b 00                	mov    (%rax),%eax
    654c:	85 c0                	test   %eax,%eax
    654e:	8b 85 6c ff ff ff    	mov    -0x94(%rbp),%eax
    6554:	39 85 3c f5 ff ff    	cmp    %eax,-0xac4(%rbp)
    655a:	0f 9f c0             	setg   %al
    655d:	0f b6 d0             	movzbl %al,%edx
    6560:	8b 85 ec f4 ff ff    	mov    -0xb14(%rbp),%eax
    6566:	31 c2                	xor    %eax,%edx
    6568:	8b 85 f0 f4 ff ff    	mov    -0xb10(%rbp),%eax
    656e:	31 d0                	xor    %edx,%eax
    6570:	48 8b 1d 21 db 00 00 	mov    0xdb21(%rip),%rbx        # 14098 <g_1314>
    6577:	89 c7                	mov    %eax,%edi
    6579:	e8 18 e0 ff ff       	callq  4596 <safe_unary_minus_func_int32_t_s>
    657e:	89 03                	mov    %eax,(%rbx)
    6580:	48 8b 05 11 e3 00 00 	mov    0xe311(%rip),%rax        # 14898 <g_90>
    6587:	be 01 00 00 00       	mov    $0x1,%esi
    658c:	48 89 c7             	mov    %rax,%rdi
    658f:	e8 14 e3 ff ff       	callq  48a8 <safe_sub_func_int64_t_s_s>
    6594:	48 89 05 fd e2 00 00 	mov    %rax,0xe2fd(%rip)        # 14898 <g_90>
    659b:	48 8b 05 f6 e2 00 00 	mov    0xe2f6(%rip),%rax        # 14898 <g_90>
    65a2:	48 83 f8 f4          	cmp    $0xfffffffffffffff4,%rax
    65a6:	0f 8c 67 fd ff ff    	jl     6313 <func_45+0x642>
    65ac:	48 8b 85 c8 f4 ff ff 	mov    -0xb38(%rbp),%rax
    65b3:	48 8b 00             	mov    (%rax),%rax
    65b6:	8b 00                	mov    (%rax),%eax
    65b8:	85 c0                	test   %eax,%eax
    65ba:	75 46                	jne    6602 <func_45+0x931>
    65bc:	48 8b 15 65 db 00 00 	mov    0xdb65(%rip),%rdx        # 14128 <g_1399>
    65c3:	48 8b 85 30 f6 ff ff 	mov    -0x9d0(%rbp),%rax
    65ca:	48 89 10             	mov    %rdx,(%rax)
    65cd:	48 8b 85 30 f6 ff ff 	mov    -0x9d0(%rbp),%rax
    65d4:	48 8b 00             	mov    (%rax),%rax
    65d7:	48 8d 15 42 db 00 00 	lea    0xdb42(%rip),%rdx        # 14120 <g_1400>
    65de:	48 39 d0             	cmp    %rdx,%rax
    65e1:	0f 95 c0             	setne  %al
    65e4:	0f b6 d0             	movzbl %al,%edx
    65e7:	0f bf 85 e0 f4 ff ff 	movswl -0xb20(%rbp),%eax
    65ee:	09 c2                	or     %eax,%edx
    65f0:	48 8b 05 49 d6 00 00 	mov    0xd649(%rip),%rax        # 13c40 <g_280>
    65f7:	48 8b 00             	mov    (%rax),%rax
    65fa:	89 10                	mov    %edx,(%rax)
    65fc:	8b 00                	mov    (%rax),%eax
    65fe:	85 c0                	test   %eax,%eax
    6600:	74 07                	je     6609 <func_45+0x938>
    6602:	ba 01 00 00 00       	mov    $0x1,%edx
    6607:	eb 05                	jmp    660e <func_45+0x93d>
    6609:	ba 00 00 00 00       	mov    $0x0,%edx
    660e:	48 8b 85 c8 f4 ff ff 	mov    -0xb38(%rbp),%rax
    6615:	48 8b 00             	mov    (%rax),%rax
    6618:	89 10                	mov    %edx,(%rax)
    661a:	48 c7 05 43 ca 00 00 	movq   $0x4,0xca43(%rip)        # 13068 <g_158>
    6621:	04 00 00 00 
    6625:	e9 e6 03 00 00       	jmpq   6a10 <func_45+0xd3f>
    662a:	c7 85 68 f5 ff ff f8 	movl   $0xfffffff8,-0xa98(%rbp)
    6631:	ff ff ff 
    6634:	c7 85 6c f5 ff ff 01 	movl   $0x1,-0xa94(%rbp)
    663b:	00 00 00 
    663e:	c7 85 80 f6 ff ff ff 	movl   $0xffffffff,-0x980(%rbp)
    6645:	ff ff ff 
    6648:	c7 85 84 f6 ff ff ff 	movl   $0xffffffff,-0x97c(%rbp)
    664f:	ff ff ff 
    6652:	c7 85 88 f6 ff ff ff 	movl   $0xffffffff,-0x978(%rbp)
    6659:	ff ff ff 
    665c:	c7 85 8c f6 ff ff ff 	movl   $0xffffffff,-0x974(%rbp)
    6663:	ff ff ff 
    6666:	48 8d 05 7b e2 00 00 	lea    0xe27b(%rip),%rax        # 148e8 <g_1444>
    666d:	48 89 85 38 f6 ff ff 	mov    %rax,-0x9c8(%rbp)
    6674:	8b 85 ec f4 ff ff    	mov    -0xb14(%rbp),%eax
    667a:	85 c0                	test   %eax,%eax
    667c:	0f 84 19 01 00 00    	je     679b <func_45+0xaca>
    6682:	48 c7 85 e0 f6 ff ff 	movq   $0x0,-0x920(%rbp)
    6689:	00 00 00 00 
    668d:	48 c7 85 e8 f6 ff ff 	movq   $0x0,-0x918(%rbp)
    6694:	00 00 00 00 
    6698:	48 8d 05 31 cb 00 00 	lea    0xcb31(%rip),%rax        # 131d0 <g_940>
    669f:	48 89 85 f0 f6 ff ff 	mov    %rax,-0x910(%rbp)
    66a6:	48 c7 85 f8 f6 ff ff 	movq   $0x0,-0x908(%rbp)
    66ad:	00 00 00 00 
    66b1:	48 c7 85 00 f7 ff ff 	movq   $0x0,-0x900(%rbp)
    66b8:	00 00 00 00 
    66bc:	48 8d 05 0d cb 00 00 	lea    0xcb0d(%rip),%rax        # 131d0 <g_940>
    66c3:	48 89 85 08 f7 ff ff 	mov    %rax,-0x8f8(%rbp)
    66ca:	48 c7 85 10 f7 ff ff 	movq   $0x0,-0x8f0(%rbp)
    66d1:	00 00 00 00 
    66d5:	48 b8 35 35 35 35 35 	movabs $0x3535353535353535,%rax
    66dc:	35 35 35 
    66df:	48 89 85 70 f7 ff ff 	mov    %rax,-0x890(%rbp)
    66e6:	48 89 85 78 f7 ff ff 	mov    %rax,-0x888(%rbp)
    66ed:	48 89 85 80 f7 ff ff 	mov    %rax,-0x880(%rbp)
    66f4:	48 89 85 88 f7 ff ff 	mov    %rax,-0x878(%rbp)
    66fb:	48 89 85 90 f7 ff ff 	mov    %rax,-0x870(%rbp)
    6702:	48 89 85 98 f7 ff ff 	mov    %rax,-0x868(%rbp)
    6709:	48 89 85 a0 f7 ff ff 	mov    %rax,-0x860(%rbp)
    6710:	48 89 85 a8 f7 ff ff 	mov    %rax,-0x858(%rbp)
    6717:	48 89 85 b0 f7 ff ff 	mov    %rax,-0x850(%rbp)
    671e:	c7 85 08 f5 ff ff 00 	movl   $0x0,-0xaf8(%rbp)
    6725:	00 00 00 
    6728:	eb 1a                	jmp    6744 <func_45+0xa73>
    672a:	8b 85 08 f5 ff ff    	mov    -0xaf8(%rbp),%eax
    6730:	48 98                	cltq   
    6732:	c7 84 85 74 f6 ff ff 	movl   $0xce41d6cc,-0x98c(%rbp,%rax,4)
    6739:	cc d6 41 ce 
    673d:	83 85 08 f5 ff ff 01 	addl   $0x1,-0xaf8(%rbp)
    6744:	83 bd 08 f5 ff ff 02 	cmpl   $0x2,-0xaf8(%rbp)
    674b:	7e dd                	jle    672a <func_45+0xa59>
    674d:	48 8b 05 14 c9 00 00 	mov    0xc914(%rip),%rax        # 13068 <g_158>
    6754:	48 83 c0 04          	add    $0x4,%rax
    6758:	48 8b 15 09 c9 00 00 	mov    0xc909(%rip),%rdx        # 13068 <g_158>
    675f:	48 8b 35 02 c9 00 00 	mov    0xc902(%rip),%rsi        # 13068 <g_158>
    6766:	48 8b 8c c5 20 f7 ff 	mov    -0x8e0(%rbp,%rax,8),%rcx
    676d:	ff 
    676e:	48 89 d0             	mov    %rdx,%rax
    6771:	48 c1 e0 02          	shl    $0x2,%rax
    6775:	48 01 d0             	add    %rdx,%rax
    6778:	48 01 f0             	add    %rsi,%rax
    677b:	48 8d 14 c5 00 00 00 	lea    0x0(,%rax,8),%rdx
    6782:	00 
    6783:	48 8d 05 b6 d3 00 00 	lea    0xd3b6(%rip),%rax        # 13b40 <g_223>
    678a:	48 89 0c 02          	mov    %rcx,(%rdx,%rax,1)
    678e:	48 83 ad 88 f5 ff ff 	subq   $0x1,-0xa78(%rbp)
    6795:	01 
    6796:	e9 63 02 00 00       	jmpq   69fe <func_45+0xd2d>
    679b:	48 8d 05 1e d3 00 00 	lea    0xd31e(%rip),%rax        # 13ac0 <g_21>
    67a2:	48 89 85 70 f7 ff ff 	mov    %rax,-0x890(%rbp)
    67a9:	48 c7 85 78 f7 ff ff 	movq   $0x0,-0x888(%rbp)
    67b0:	00 00 00 00 
    67b4:	48 8d 05 05 d3 00 00 	lea    0xd305(%rip),%rax        # 13ac0 <g_21>
    67bb:	48 89 85 80 f7 ff ff 	mov    %rax,-0x880(%rbp)
    67c2:	48 8d 05 f7 d2 00 00 	lea    0xd2f7(%rip),%rax        # 13ac0 <g_21>
    67c9:	48 89 85 88 f7 ff ff 	mov    %rax,-0x878(%rbp)
    67d0:	48 c7 85 90 f7 ff ff 	movq   $0x0,-0x870(%rbp)
    67d7:	00 00 00 00 
    67db:	48 8d 05 de d2 00 00 	lea    0xd2de(%rip),%rax        # 13ac0 <g_21>
    67e2:	48 89 85 98 f7 ff ff 	mov    %rax,-0x868(%rbp)
    67e9:	48 8d 05 d0 d2 00 00 	lea    0xd2d0(%rip),%rax        # 13ac0 <g_21>
    67f0:	48 89 85 a0 f7 ff ff 	mov    %rax,-0x860(%rbp)
    67f7:	48 c7 85 a8 f7 ff ff 	movq   $0x0,-0x858(%rbp)
    67fe:	00 00 00 00 
    6802:	48 8d 05 b7 d2 00 00 	lea    0xd2b7(%rip),%rax        # 13ac0 <g_21>
    6809:	48 89 85 b0 f7 ff ff 	mov    %rax,-0x850(%rbp)
    6810:	48 8d 05 a9 d2 00 00 	lea    0xd2a9(%rip),%rax        # 13ac0 <g_21>
    6817:	48 89 85 b8 f7 ff ff 	mov    %rax,-0x848(%rbp)
    681e:	48 c7 85 c0 f7 ff ff 	movq   $0x0,-0x840(%rbp)
    6825:	00 00 00 00 
    6829:	48 8d 05 90 d2 00 00 	lea    0xd290(%rip),%rax        # 13ac0 <g_21>
    6830:	48 89 85 c8 f7 ff ff 	mov    %rax,-0x838(%rbp)
    6837:	48 8d 05 82 d2 00 00 	lea    0xd282(%rip),%rax        # 13ac0 <g_21>
    683e:	48 89 85 d0 f7 ff ff 	mov    %rax,-0x830(%rbp)
    6845:	48 c7 85 d8 f7 ff ff 	movq   $0x0,-0x828(%rbp)
    684c:	00 00 00 00 
    6850:	48 8d 05 69 d2 00 00 	lea    0xd269(%rip),%rax        # 13ac0 <g_21>
    6857:	48 89 85 e0 f7 ff ff 	mov    %rax,-0x820(%rbp)
    685e:	48 8d 05 5b d2 00 00 	lea    0xd25b(%rip),%rax        # 13ac0 <g_21>
    6865:	48 89 85 e8 f7 ff ff 	mov    %rax,-0x818(%rbp)
    686c:	48 c7 85 f0 f7 ff ff 	movq   $0x0,-0x810(%rbp)
    6873:	00 00 00 00 
    6877:	48 8d 05 42 d2 00 00 	lea    0xd242(%rip),%rax        # 13ac0 <g_21>
    687e:	48 89 85 f8 f7 ff ff 	mov    %rax,-0x808(%rbp)
    6885:	48 8b 05 dc c7 00 00 	mov    0xc7dc(%rip),%rax        # 13068 <g_158>
    688c:	48 8d 50 01          	lea    0x1(%rax),%rdx
    6890:	48 8b 0d d1 c7 00 00 	mov    0xc7d1(%rip),%rcx        # 13068 <g_158>
    6897:	48 89 d0             	mov    %rdx,%rax
    689a:	48 c1 e0 02          	shl    $0x2,%rax
    689e:	48 01 d0             	add    %rdx,%rax
    68a1:	48 01 c8             	add    %rcx,%rax
    68a4:	48 8d 14 c5 00 00 00 	lea    0x0(,%rax,8),%rdx
    68ab:	00 
    68ac:	48 8d 05 8d d2 00 00 	lea    0xd28d(%rip),%rax        # 13b40 <g_223>
    68b3:	48 8d 8d 00 f8 ff ff 	lea    -0x800(%rbp),%rcx
    68ba:	48 81 c1 8c 01 00 00 	add    $0x18c,%rcx
    68c1:	48 89 0c 02          	mov    %rcx,(%rdx,%rax,1)
    68c5:	8b 85 04 f5 ff ff    	mov    -0xafc(%rbp),%eax
    68cb:	48 63 d8             	movslq %eax,%rbx
    68ce:	83 bd 40 f5 ff ff 00 	cmpl   $0x0,-0xac0(%rbp)
    68d5:	75 26                	jne    68fd <func_45+0xc2c>
    68d7:	8b 85 48 f5 ff ff    	mov    -0xab8(%rbp),%eax
    68dd:	0f b6 c0             	movzbl %al,%eax
    68e0:	89 c6                	mov    %eax,%esi
    68e2:	bf 54 00 00 00       	mov    $0x54,%edi
    68e7:	e8 6e e2 ff ff       	callq  4b5a <safe_add_func_uint8_t_u_u>
    68ec:	0f b6 c0             	movzbl %al,%eax
    68ef:	be 00 00 00 00       	mov    $0x0,%esi
    68f4:	89 c7                	mov    %eax,%edi
    68f6:	e8 51 e3 ff ff       	callq  4c4c <safe_lshift_func_uint8_t_u_u>
    68fb:	84 c0                	test   %al,%al
    68fd:	44 0f bf a5 e0 f4 ff 	movswl -0xb20(%rbp),%r12d
    6904:	ff 
    6905:	48 8b 05 24 d8 00 00 	mov    0xd824(%rip),%rax        # 14130 <g_1443>
    690c:	48 89 85 38 f6 ff ff 	mov    %rax,-0x9c8(%rbp)
    6913:	48 83 bd 38 f6 ff ff 	cmpq   $0x0,-0x9c8(%rbp)
    691a:	00 
    691b:	0f 94 c0             	sete   %al
    691e:	44 0f b6 e8          	movzbl %al,%r13d
    6922:	48 8b 05 ff d6 00 00 	mov    0xd6ff(%rip),%rax        # 14028 <g_1081>
    6929:	48 8b 00             	mov    (%rax),%rax
    692c:	0f b7 00             	movzwl (%rax),%eax
    692f:	66 85 c0             	test   %ax,%ax
    6932:	0f 94 c0             	sete   %al
    6935:	0f b6 d0             	movzbl %al,%edx
    6938:	8b 85 f0 f4 ff ff    	mov    -0xb10(%rbp),%eax
    693e:	39 c2                	cmp    %eax,%edx
    6940:	0f 9e c0             	setle  %al
    6943:	0f b6 c0             	movzbl %al,%eax
    6946:	39 85 1c f5 ff ff    	cmp    %eax,-0xae4(%rbp)
    694c:	0f 93 c0             	setae  %al
    694f:	0f b6 c0             	movzbl %al,%eax
    6952:	be 00 00 00 00       	mov    $0x0,%esi
    6957:	89 c7                	mov    %eax,%edi
    6959:	e8 97 da ff ff       	callq  43f5 <safe_mul_func_int16_t_s_s>
    695e:	98                   	cwtl   
    695f:	41 39 c5             	cmp    %eax,%r13d
    6962:	0f 94 c0             	sete   %al
    6965:	0f b6 c0             	movzbl %al,%eax
    6968:	44 89 e6             	mov    %r12d,%esi
    696b:	89 c7                	mov    %eax,%edi
    696d:	e8 61 da ff ff       	callq  43d3 <safe_sub_func_int16_t_s_s>
    6972:	83 bd 1c f5 ff ff 01 	cmpl   $0x1,-0xae4(%rbp)
    6979:	0f 97 c0             	seta   %al
    697c:	0f b6 c0             	movzbl %al,%eax
    697f:	48 89 de             	mov    %rbx,%rsi
    6982:	48 89 c7             	mov    %rax,%rdi
    6985:	e8 25 e7 ff ff       	callq  50af <safe_div_func_uint64_t_u_u>
    698a:	48 8b 85 98 f5 ff ff 	mov    -0xa68(%rbp),%rax
    6991:	48 3b 85 20 f6 ff ff 	cmp    -0x9e0(%rbp),%rax
    6998:	75 07                	jne    69a1 <func_45+0xcd0>
    699a:	ba f8 ff ff ff       	mov    $0xfffffff8,%edx
    699f:	eb 05                	jmp    69a6 <func_45+0xcd5>
    69a1:	ba f9 ff ff ff       	mov    $0xfffffff9,%edx
    69a6:	48 8b 05 73 d6 00 00 	mov    0xd673(%rip),%rax        # 14020 <g_1082>
    69ad:	66 89 10             	mov    %dx,(%rax)
    69b0:	0f b7 00             	movzwl (%rax),%eax
    69b3:	66 85 c0             	test   %ax,%ax
    69b6:	79 0e                	jns    69c6 <func_45+0xcf5>
    69b8:	48 8b 85 c8 f4 ff ff 	mov    -0xb38(%rbp),%rax
    69bf:	48 8b 00             	mov    (%rax),%rax
    69c2:	8b 00                	mov    (%rax),%eax
    69c4:	85 c0                	test   %eax,%eax
    69c6:	be 0f 00 00 00       	mov    $0xf,%esi
    69cb:	bf fe ff 00 00       	mov    $0xfffe,%edi
    69d0:	e8 e9 e3 ff ff       	callq  4dbe <safe_lshift_func_uint16_t_u_s>
    69d5:	66 3d 8f 00          	cmp    $0x8f,%ax
    69d9:	0f 95 c0             	setne  %al
    69dc:	0f b6 c8             	movzbl %al,%ecx
    69df:	48 8b 05 b2 d6 00 00 	mov    0xd6b2(%rip),%rax        # 14098 <g_1314>
    69e6:	8b 10                	mov    (%rax),%edx
    69e8:	48 8b 05 a9 d6 00 00 	mov    0xd6a9(%rip),%rax        # 14098 <g_1314>
    69ef:	31 ca                	xor    %ecx,%edx
    69f1:	89 10                	mov    %edx,(%rax)
    69f3:	48 8b 05 36 d1 00 00 	mov    0xd136(%rip),%rax        # 13b30 <g_119>
    69fa:	8b 00                	mov    (%rax),%eax
    69fc:	85 c0                	test   %eax,%eax
    69fe:	48 8b 05 63 c6 00 00 	mov    0xc663(%rip),%rax        # 13068 <g_158>
    6a05:	48 83 e8 01          	sub    $0x1,%rax
    6a09:	48 89 05 58 c6 00 00 	mov    %rax,0xc658(%rip)        # 13068 <g_158>
    6a10:	48 8b 05 51 c6 00 00 	mov    0xc651(%rip),%rax        # 13068 <g_158>
    6a17:	48 85 c0             	test   %rax,%rax
    6a1a:	0f 89 0a fc ff ff    	jns    662a <func_45+0x959>
    6a20:	c6 05 1d c6 00 00 00 	movb   $0x0,0xc61d(%rip)        # 13044 <g_112>
    6a27:	e9 13 02 00 00       	jmpq   6c3f <func_45+0xf6e>
    6a2c:	c7 85 64 f5 ff ff a0 	movl   $0x7c4758a0,-0xa9c(%rbp)
    6a33:	58 47 7c 
    6a36:	48 8d 05 e3 d0 00 00 	lea    0xd0e3(%rip),%rax        # 13b20 <g_116+0x40>
    6a3d:	48 89 85 70 f7 ff ff 	mov    %rax,-0x890(%rbp)
    6a44:	48 8d 05 d5 d0 00 00 	lea    0xd0d5(%rip),%rax        # 13b20 <g_116+0x40>
    6a4b:	48 89 85 78 f7 ff ff 	mov    %rax,-0x888(%rbp)
    6a52:	48 8d 05 c7 d0 00 00 	lea    0xd0c7(%rip),%rax        # 13b20 <g_116+0x40>
    6a59:	48 89 85 80 f7 ff ff 	mov    %rax,-0x880(%rbp)
    6a60:	48 8d 05 b9 d0 00 00 	lea    0xd0b9(%rip),%rax        # 13b20 <g_116+0x40>
    6a67:	48 89 85 88 f7 ff ff 	mov    %rax,-0x878(%rbp)
    6a6e:	48 8d 05 73 d0 00 00 	lea    0xd073(%rip),%rax        # 13ae8 <g_116+0x8>
    6a75:	48 89 85 90 f7 ff ff 	mov    %rax,-0x870(%rbp)
    6a7c:	48 c7 85 98 f7 ff ff 	movq   $0x0,-0x868(%rbp)
    6a83:	00 00 00 00 
    6a87:	48 8d 05 92 d0 00 00 	lea    0xd092(%rip),%rax        # 13b20 <g_116+0x40>
    6a8e:	48 89 85 a0 f7 ff ff 	mov    %rax,-0x860(%rbp)
    6a95:	48 c7 85 a8 f7 ff ff 	movq   $0x0,-0x858(%rbp)
    6a9c:	00 00 00 00 
    6aa0:	48 8d 05 41 d0 00 00 	lea    0xd041(%rip),%rax        # 13ae8 <g_116+0x8>
    6aa7:	48 89 85 b0 f7 ff ff 	mov    %rax,-0x850(%rbp)
    6aae:	48 8d 05 6b d0 00 00 	lea    0xd06b(%rip),%rax        # 13b20 <g_116+0x40>
    6ab5:	48 89 85 b8 f7 ff ff 	mov    %rax,-0x848(%rbp)
    6abc:	48 8d 05 5d d0 00 00 	lea    0xd05d(%rip),%rax        # 13b20 <g_116+0x40>
    6ac3:	48 89 85 c0 f7 ff ff 	mov    %rax,-0x840(%rbp)
    6aca:	48 8d 05 4f d0 00 00 	lea    0xd04f(%rip),%rax        # 13b20 <g_116+0x40>
    6ad1:	48 89 85 c8 f7 ff ff 	mov    %rax,-0x838(%rbp)
    6ad8:	48 8d 05 41 d0 00 00 	lea    0xd041(%rip),%rax        # 13b20 <g_116+0x40>
    6adf:	48 89 85 d0 f7 ff ff 	mov    %rax,-0x830(%rbp)
    6ae6:	48 8d 05 33 d0 00 00 	lea    0xd033(%rip),%rax        # 13b20 <g_116+0x40>
    6aed:	48 89 85 d8 f7 ff ff 	mov    %rax,-0x828(%rbp)
    6af4:	44 8b b5 ec fb ff ff 	mov    -0x414(%rbp),%r14d
    6afb:	8b 85 64 f5 ff ff    	mov    -0xa9c(%rbp),%eax
    6b01:	48 63 d8             	movslq %eax,%rbx
    6b04:	83 bd 50 f5 ff ff 00 	cmpl   $0x0,-0xab0(%rbp)
    6b0b:	0f 85 a8 00 00 00    	jne    6bb9 <func_45+0xee8>
    6b11:	8b 85 18 f5 ff ff    	mov    -0xae8(%rbp),%eax
    6b17:	89 c6                	mov    %eax,%esi
    6b19:	bf f8 ff ff ff       	mov    $0xfffffff8,%edi
    6b1e:	e8 95 e3 ff ff       	callq  4eb8 <safe_add_func_uint32_t_u_u>
    6b23:	44 8b a5 18 f5 ff ff 	mov    -0xae8(%rbp),%r12d
    6b2a:	8b 85 3c f5 ff ff    	mov    -0xac4(%rbp),%eax
    6b30:	44 0f be e8          	movsbl %al,%r13d
    6b34:	8b 85 64 f5 ff ff    	mov    -0xa9c(%rbp),%eax
    6b3a:	48 63 d0             	movslq %eax,%rdx
    6b3d:	8b 85 60 f5 ff ff    	mov    -0xaa0(%rbp),%eax
    6b43:	48 98                	cltq   
    6b45:	48 89 d6             	mov    %rdx,%rsi
    6b48:	48 89 c7             	mov    %rax,%rdi
    6b4b:	e8 5f e5 ff ff       	callq  50af <safe_div_func_uint64_t_u_u>
    6b50:	8b 95 f4 f4 ff ff    	mov    -0xb0c(%rbp),%edx
    6b56:	48 63 d2             	movslq %edx,%rdx
    6b59:	48 39 d0             	cmp    %rdx,%rax
    6b5c:	75 07                	jne    6b65 <func_45+0xe94>
    6b5e:	83 bd 64 f5 ff ff 00 	cmpl   $0x0,-0xa9c(%rbp)
    6b65:	48 8b 85 70 f7 ff ff 	mov    -0x890(%rbp),%rax
    6b6c:	48 85 c0             	test   %rax,%rax
    6b6f:	0f 94 c0             	sete   %al
    6b72:	0f b6 c0             	movzbl %al,%eax
    6b75:	44 89 ee             	mov    %r13d,%esi
    6b78:	89 c7                	mov    %eax,%edi
    6b7a:	e8 93 d6 ff ff       	callq  4212 <safe_mul_func_int8_t_s_s>
    6b7f:	66 98                	cbtw   
    6b81:	0f b7 c0             	movzwl %ax,%eax
    6b84:	44 89 e6             	mov    %r12d,%esi
    6b87:	89 c7                	mov    %eax,%edi
    6b89:	e8 ec e2 ff ff       	callq  4e7a <safe_rshift_func_uint16_t_u_u>
    6b8e:	8b 85 04 f5 ff ff    	mov    -0xafc(%rbp),%eax
    6b94:	0f be d0             	movsbl %al,%edx
    6b97:	48 83 bd 90 f5 ff ff 	cmpq   $0x0,-0xa70(%rbp)
    6b9e:	00 
    6b9f:	0f 95 c0             	setne  %al
    6ba2:	0f b6 c0             	movzbl %al,%eax
    6ba5:	89 d6                	mov    %edx,%esi
    6ba7:	89 c7                	mov    %eax,%edi
    6ba9:	e8 bc d6 ff ff       	callq  426a <safe_div_func_int8_t_s_s>
    6bae:	0f be c0             	movsbl %al,%eax
    6bb1:	39 85 34 f5 ff ff    	cmp    %eax,-0xacc(%rbp)
    6bb7:	75 07                	jne    6bc0 <func_45+0xeef>
    6bb9:	b8 01 00 00 00       	mov    $0x1,%eax
    6bbe:	eb 05                	jmp    6bc5 <func_45+0xef4>
    6bc0:	b8 00 00 00 00       	mov    $0x0,%eax
    6bc5:	3b 85 04 f5 ff ff    	cmp    -0xafc(%rbp),%eax
    6bcb:	0f 9d c0             	setge  %al
    6bce:	0f b6 c0             	movzbl %al,%eax
    6bd1:	48 89 de             	mov    %rbx,%rsi
    6bd4:	48 89 c7             	mov    %rax,%rdi
    6bd7:	e8 65 dc ff ff       	callq  4841 <safe_add_func_int64_t_s_s>
    6bdc:	48 85 c0             	test   %rax,%rax
    6bdf:	74 10                	je     6bf1 <func_45+0xf20>
    6be1:	83 bd 30 f5 ff ff 00 	cmpl   $0x0,-0xad0(%rbp)
    6be8:	74 07                	je     6bf1 <func_45+0xf20>
    6bea:	b8 01 00 00 00       	mov    $0x1,%eax
    6bef:	eb 05                	jmp    6bf6 <func_45+0xf25>
    6bf1:	b8 00 00 00 00       	mov    $0x0,%eax
    6bf6:	0f b7 c0             	movzwl %ax,%eax
    6bf9:	be 03 00 00 00       	mov    $0x3,%esi
    6bfe:	89 c7                	mov    %eax,%edi
    6c00:	e8 43 e2 ff ff       	callq  4e48 <safe_rshift_func_uint16_t_u_s>
    6c05:	0f b7 d0             	movzwl %ax,%edx
    6c08:	8b 85 f4 f4 ff ff    	mov    -0xb0c(%rbp),%eax
    6c0e:	39 c2                	cmp    %eax,%edx
    6c10:	0f 94 c0             	sete   %al
    6c13:	0f b6 c0             	movzbl %al,%eax
    6c16:	44 89 f1             	mov    %r14d,%ecx
    6c19:	09 c1                	or     %eax,%ecx
    6c1b:	48 8b 05 76 d4 00 00 	mov    0xd476(%rip),%rax        # 14098 <g_1314>
    6c22:	8b 10                	mov    (%rax),%edx
    6c24:	48 8b 05 6d d4 00 00 	mov    0xd46d(%rip),%rax        # 14098 <g_1314>
    6c2b:	21 ca                	and    %ecx,%edx
    6c2d:	89 10                	mov    %edx,(%rax)
    6c2f:	0f b6 05 0e c4 00 00 	movzbl 0xc40e(%rip),%eax        # 13044 <g_112>
    6c36:	83 c0 01             	add    $0x1,%eax
    6c39:	88 05 05 c4 00 00    	mov    %al,0xc405(%rip)        # 13044 <g_112>
    6c3f:	0f b6 05 fe c3 00 00 	movzbl 0xc3fe(%rip),%eax        # 13044 <g_112>
    6c46:	84 c0                	test   %al,%al
    6c48:	0f 84 de fd ff ff    	je     6a2c <func_45+0xd5b>
    6c4e:	0f b6 05 5b c4 00 00 	movzbl 0xc45b(%rip),%eax        # 130b0 <g_181>
    6c55:	66 98                	cbtw   
    6c57:	0f b7 c0             	movzwl %ax,%eax
    6c5a:	be 01 00 00 00       	mov    $0x1,%esi
    6c5f:	89 c7                	mov    %eax,%edi
    6c61:	e8 b9 e0 ff ff       	callq  4d1f <safe_sub_func_uint16_t_u_u>
    6c66:	88 05 44 c4 00 00    	mov    %al,0xc444(%rip)        # 130b0 <g_181>
    6c6c:	0f b6 05 3d c4 00 00 	movzbl 0xc43d(%rip),%eax        # 130b0 <g_181>
    6c73:	3c fe                	cmp    $0xfe,%al
    6c75:	0f 84 8a f5 ff ff    	je     6205 <func_45+0x534>
    6c7b:	c7 85 04 f5 ff ff 00 	movl   $0x0,-0xafc(%rbp)
    6c82:	00 00 00 
    6c85:	eb 21                	jmp    6ca8 <func_45+0xfd7>
    6c87:	48 8b 05 32 ce 00 00 	mov    0xce32(%rip),%rax        # 13ac0 <g_21>
    6c8e:	8b 00                	mov    (%rax),%eax
    6c90:	23 85 14 f5 ff ff    	and    -0xaec(%rbp),%eax
    6c96:	89 c2                	mov    %eax,%edx
    6c98:	48 8b 05 21 ce 00 00 	mov    0xce21(%rip),%rax        # 13ac0 <g_21>
    6c9f:	89 10                	mov    %edx,(%rax)
    6ca1:	83 ad 04 f5 ff ff 01 	subl   $0x1,-0xafc(%rbp)
    6ca8:	83 bd 04 f5 ff ff e3 	cmpl   $0xffffffe3,-0xafc(%rbp)
    6caf:	7c d6                	jl     6c87 <func_45+0xfb6>
    6cb1:	48 8b 05 70 c3 00 00 	mov    0xc370(%rip),%rax        # 13028 <g_30>
    6cb8:	0f b6 c0             	movzbl %al,%eax
    6cbb:	be 07 00 00 00       	mov    $0x7,%esi
    6cc0:	89 c7                	mov    %eax,%edi
    6cc2:	e8 93 de ff ff       	callq  4b5a <safe_add_func_uint8_t_u_u>
    6cc7:	0f b6 c0             	movzbl %al,%eax
    6cca:	48 89 05 57 c3 00 00 	mov    %rax,0xc357(%rip)        # 13028 <g_30>
    6cd1:	48 8b 05 50 c3 00 00 	mov    0xc350(%rip),%rax        # 13028 <g_30>
    6cd8:	48 83 f8 33          	cmp    $0x33,%rax
    6cdc:	0f 86 09 f2 ff ff    	jbe    5eeb <func_45+0x21a>
    6ce2:	8b 85 c4 f6 ff ff    	mov    -0x93c(%rbp),%eax
    6ce8:	e9 ae 02 00 00       	jmpq   6f9b <func_45+0x12ca>
    6ced:	48 8d 05 4c cf 00 00 	lea    0xcf4c(%rip),%rax        # 13c40 <g_280>
    6cf4:	48 89 85 c0 fb ff ff 	mov    %rax,-0x440(%rbp)
    6cfb:	48 8d 05 3e cf 00 00 	lea    0xcf3e(%rip),%rax        # 13c40 <g_280>
    6d02:	48 89 85 c8 fb ff ff 	mov    %rax,-0x438(%rbp)
    6d09:	48 8d 05 30 cf 00 00 	lea    0xcf30(%rip),%rax        # 13c40 <g_280>
    6d10:	48 89 85 d0 fb ff ff 	mov    %rax,-0x430(%rbp)
    6d17:	48 c7 85 d8 fb ff ff 	movq   $0x0,-0x428(%rbp)
    6d1e:	00 00 00 00 
    6d22:	48 c7 85 e0 fb ff ff 	movq   $0x0,-0x420(%rbp)
    6d29:	00 00 00 00 
    6d2d:	48 8d 05 0c cf 00 00 	lea    0xcf0c(%rip),%rax        # 13c40 <g_280>
    6d34:	48 89 85 e8 fb ff ff 	mov    %rax,-0x418(%rbp)
    6d3b:	48 8d 05 fe ce 00 00 	lea    0xcefe(%rip),%rax        # 13c40 <g_280>
    6d42:	48 89 85 f0 fb ff ff 	mov    %rax,-0x410(%rbp)
    6d49:	48 8d 05 f0 ce 00 00 	lea    0xcef0(%rip),%rax        # 13c40 <g_280>
    6d50:	48 89 85 f8 fb ff ff 	mov    %rax,-0x408(%rbp)
    6d57:	48 8d 05 e2 ce 00 00 	lea    0xcee2(%rip),%rax        # 13c40 <g_280>
    6d5e:	48 89 85 00 fc ff ff 	mov    %rax,-0x400(%rbp)
    6d65:	48 8d 05 d4 ce 00 00 	lea    0xced4(%rip),%rax        # 13c40 <g_280>
    6d6c:	48 89 85 08 fc ff ff 	mov    %rax,-0x3f8(%rbp)
    6d73:	48 8d 05 c6 ce 00 00 	lea    0xcec6(%rip),%rax        # 13c40 <g_280>
    6d7a:	48 89 85 10 fc ff ff 	mov    %rax,-0x3f0(%rbp)
    6d81:	48 8d 05 b8 ce 00 00 	lea    0xceb8(%rip),%rax        # 13c40 <g_280>
    6d88:	48 89 85 18 fc ff ff 	mov    %rax,-0x3e8(%rbp)
    6d8f:	48 c7 85 20 fc ff ff 	movq   $0x0,-0x3e0(%rbp)
    6d96:	00 00 00 00 
    6d9a:	48 c7 85 28 fc ff ff 	movq   $0x0,-0x3d8(%rbp)
    6da1:	00 00 00 00 
    6da5:	48 8d 05 94 ce 00 00 	lea    0xce94(%rip),%rax        # 13c40 <g_280>
    6dac:	48 89 85 30 fc ff ff 	mov    %rax,-0x3d0(%rbp)
    6db3:	48 8d 05 86 ce 00 00 	lea    0xce86(%rip),%rax        # 13c40 <g_280>
    6dba:	48 89 85 38 fc ff ff 	mov    %rax,-0x3c8(%rbp)
    6dc1:	48 8d 05 78 ce 00 00 	lea    0xce78(%rip),%rax        # 13c40 <g_280>
    6dc8:	48 89 85 40 fc ff ff 	mov    %rax,-0x3c0(%rbp)
    6dcf:	48 8d 05 6a ce 00 00 	lea    0xce6a(%rip),%rax        # 13c40 <g_280>
    6dd6:	48 89 85 48 fc ff ff 	mov    %rax,-0x3b8(%rbp)
    6ddd:	c7 85 28 f5 ff ff 41 	movl   $0x3670b641,-0xad8(%rbp)
    6de4:	b6 70 36 
    6de7:	48 b8 4b 69 76 2b ef 	movabs $0xbd8079ef2b76694b,%rax
    6dee:	79 80 bd 
    6df1:	48 89 85 d0 f5 ff ff 	mov    %rax,-0xa30(%rbp)
    6df8:	48 c7 85 d8 f5 ff ff 	movq   $0x0,-0xa28(%rbp)
    6dff:	00 00 00 00 
    6e03:	48 c7 85 e0 f5 ff ff 	movq   $0x1,-0xa20(%rbp)
    6e0a:	01 00 00 00 
    6e0e:	c7 85 0c f5 ff ff 00 	movl   $0x0,-0xaf4(%rbp)
    6e15:	00 00 00 
    6e18:	eb 1b                	jmp    6e35 <func_45+0x1164>
    6e1a:	8b 85 0c f5 ff ff    	mov    -0xaf4(%rbp),%eax
    6e20:	48 98                	cltq   
    6e22:	48 c7 84 c5 b0 f6 ff 	movq   $0x0,-0x950(%rbp,%rax,8)
    6e29:	ff 00 00 00 00 
    6e2e:	83 85 0c f5 ff ff 01 	addl   $0x1,-0xaf4(%rbp)
    6e35:	83 bd 0c f5 ff ff 00 	cmpl   $0x0,-0xaf4(%rbp)
    6e3c:	7e dc                	jle    6e1a <func_45+0x1149>
    6e3e:	c7 85 0c f5 ff ff 00 	movl   $0x0,-0xaf4(%rbp)
    6e45:	00 00 00 
    6e48:	eb 4d                	jmp    6e97 <func_45+0x11c6>
    6e4a:	c7 85 10 f5 ff ff 00 	movl   $0x0,-0xaf0(%rbp)
    6e51:	00 00 00 
    6e54:	eb 31                	jmp    6e87 <func_45+0x11b6>
    6e56:	8b 85 10 f5 ff ff    	mov    -0xaf0(%rbp),%eax
    6e5c:	48 98                	cltq   
    6e5e:	8b 95 0c f5 ff ff    	mov    -0xaf4(%rbp),%edx
    6e64:	48 63 d2             	movslq %edx,%rdx
    6e67:	48 01 d2             	add    %rdx,%rdx
    6e6a:	48 01 d0             	add    %rdx,%rax
    6e6d:	48 8d 95 c0 fb ff ff 	lea    -0x440(%rbp),%rdx
    6e74:	48 83 c2 40          	add    $0x40,%rdx
    6e78:	48 89 94 c5 20 f7 ff 	mov    %rdx,-0x8e0(%rbp,%rax,8)
    6e7f:	ff 
    6e80:	83 85 10 f5 ff ff 01 	addl   $0x1,-0xaf0(%rbp)
    6e87:	83 bd 10 f5 ff ff 01 	cmpl   $0x1,-0xaf0(%rbp)
    6e8e:	7e c6                	jle    6e56 <func_45+0x1185>
    6e90:	83 85 0c f5 ff ff 01 	addl   $0x1,-0xaf4(%rbp)
    6e97:	83 bd 0c f5 ff ff 00 	cmpl   $0x0,-0xaf4(%rbp)
    6e9e:	7e aa                	jle    6e4a <func_45+0x1179>
    6ea0:	c7 85 0c f5 ff ff 00 	movl   $0x0,-0xaf4(%rbp)
    6ea7:	00 00 00 
    6eaa:	eb 1a                	jmp    6ec6 <func_45+0x11f5>
    6eac:	8b 85 0c f5 ff ff    	mov    -0xaf4(%rbp),%eax
    6eb2:	48 98                	cltq   
    6eb4:	c7 84 85 e0 f6 ff ff 	movl   $0x1e534d35,-0x920(%rbp,%rax,4)
    6ebb:	35 4d 53 1e 
    6ebf:	83 85 0c f5 ff ff 01 	addl   $0x1,-0xaf4(%rbp)
    6ec6:	83 bd 0c f5 ff ff 01 	cmpl   $0x1,-0xaf4(%rbp)
    6ecd:	7e dd                	jle    6eac <func_45+0x11db>
    6ecf:	c7 05 cb d9 00 00 00 	movl   $0x0,0xd9cb(%rip)        # 148a4 <g_371>
    6ed6:	00 00 00 
    6ed9:	e9 a5 00 00 00       	jmpq   6f83 <func_45+0x12b2>
    6ede:	c7 85 70 f7 ff ff 00 	movl   $0x0,-0x890(%rbp)
    6ee5:	00 00 00 
    6ee8:	c7 85 74 f7 ff ff 00 	movl   $0x0,-0x88c(%rbp)
    6eef:	00 00 00 
    6ef2:	c7 85 78 f7 ff ff 01 	movl   $0x1,-0x888(%rbp)
    6ef9:	00 00 00 
    6efc:	c7 85 7c f7 ff ff 00 	movl   $0x0,-0x884(%rbp)
    6f03:	00 00 00 
    6f06:	c7 85 80 f7 ff ff 00 	movl   $0x0,-0x880(%rbp)
    6f0d:	00 00 00 
    6f10:	c7 85 84 f7 ff ff 01 	movl   $0x1,-0x87c(%rbp)
    6f17:	00 00 00 
    6f1a:	48 8d 05 67 d9 00 00 	lea    0xd967(%rip),%rax        # 14888 <g_22>
    6f21:	48 89 85 e8 f5 ff ff 	mov    %rax,-0xa18(%rbp)
    6f28:	48 c7 85 f0 f5 ff ff 	movq   $0x0,-0xa10(%rbp)
    6f2f:	00 00 00 00 
    6f33:	48 c7 85 f8 f5 ff ff 	movq   $0x1,-0xa08(%rbp)
    6f3a:	01 00 00 00 
    6f3e:	c6 85 df f4 ff ff 09 	movb   $0x9,-0xb21(%rbp)
    6f45:	c7 85 2c f5 ff ff 31 	movl   $0x20f82031,-0xad4(%rbp)
    6f4c:	20 f8 20 
    6f4f:	48 8d 05 f2 cf 00 00 	lea    0xcff2(%rip),%rax        # 13f48 <g_593>
    6f56:	48 89 85 00 f6 ff ff 	mov    %rax,-0xa00(%rbp)
    6f5d:	48 c7 85 08 f6 ff ff 	movq   $0x0,-0x9f8(%rbp)
    6f64:	00 00 00 00 
    6f68:	8b 05 36 d9 00 00    	mov    0xd936(%rip),%eax        # 148a4 <g_371>
    6f6e:	89 c0                	mov    %eax,%eax
    6f70:	be 09 00 00 00       	mov    $0x9,%esi
    6f75:	48 89 c7             	mov    %rax,%rdi
    6f78:	e8 b1 e0 ff ff       	callq  502e <safe_add_func_uint64_t_u_u>
    6f7d:	89 05 21 d9 00 00    	mov    %eax,0xd921(%rip)        # 148a4 <g_371>
    6f83:	8b 05 1b d9 00 00    	mov    0xd91b(%rip),%eax        # 148a4 <g_371>
    6f89:	83 f8 23             	cmp    $0x23,%eax
    6f8c:	0f 87 4c ff ff ff    	ja     6ede <func_45+0x120d>
    6f92:	48 8b 85 c0 f5 ff ff 	mov    -0xa40(%rbp),%rax
    6f99:	8b 00                	mov    (%rax),%eax
    6f9b:	48 8b 5d c8          	mov    -0x38(%rbp),%rbx
    6f9f:	64 48 33 1c 25 28 00 	xor    %fs:0x28,%rbx
    6fa6:	00 00 
    6fa8:	74 05                	je     6faf <func_45+0x12de>
    6faa:	e8 c1 d0 ff ff       	callq  4070 <__stack_chk_fail@plt>
    6faf:	48 81 c4 28 0b 00 00 	add    $0xb28,%rsp
    6fb6:	5b                   	pop    %rbx
    6fb7:	41 5c                	pop    %r12
    6fb9:	41 5d                	pop    %r13
    6fbb:	41 5e                	pop    %r14
    6fbd:	41 5f                	pop    %r15
    6fbf:	5d                   	pop    %rbp
    6fc0:	c3                   	retq   

0000000000006fc1 <func_66>:
    6fc1:	f3 0f 1e fa          	endbr64 
    6fc5:	55                   	push   %rbp
    6fc6:	48 89 e5             	mov    %rsp,%rbp
    6fc9:	41 56                	push   %r14
    6fcb:	41 55                	push   %r13
    6fcd:	41 54                	push   %r12
    6fcf:	53                   	push   %rbx
    6fd0:	48 81 ec a0 05 00 00 	sub    $0x5a0,%rsp
    6fd7:	48 89 bd 58 fa ff ff 	mov    %rdi,-0x5a8(%rbp)
    6fde:	89 f0                	mov    %esi,%eax
    6fe0:	48 89 8d 48 fa ff ff 	mov    %rcx,-0x5b8(%rbp)
    6fe7:	44 89 85 44 fa ff ff 	mov    %r8d,-0x5bc(%rbp)
    6fee:	66 89 85 54 fa ff ff 	mov    %ax,-0x5ac(%rbp)
    6ff5:	89 d0                	mov    %edx,%eax
    6ff7:	88 85 50 fa ff ff    	mov    %al,-0x5b0(%rbp)
    6ffd:	64 48 8b 04 25 28 00 	mov    %fs:0x28,%rax
    7004:	00 00 
    7006:	48 89 45 d8          	mov    %rax,-0x28(%rbp)
    700a:	31 c0                	xor    %eax,%eax
    700c:	48 b8 08 f9 01 00 f8 	movabs $0xf8fcf80001f908,%rax
    7013:	fc f8 00 
    7016:	48 89 85 00 fc ff ff 	mov    %rax,-0x400(%rbp)
    701d:	c6 85 08 fc ff ff 01 	movb   $0x1,-0x3f8(%rbp)
    7024:	48 b8 f8 f8 08 c8 00 	movabs $0x5010500c808f8f8,%rax
    702b:	05 01 05 
    702e:	48 89 85 09 fc ff ff 	mov    %rax,-0x3f7(%rbp)
    7035:	c6 85 11 fc ff ff 00 	movb   $0x0,-0x3ef(%rbp)
    703c:	48 b8 08 f8 f8 08 c8 	movabs $0x10500c808f8f808,%rax
    7043:	00 05 01 
    7046:	48 89 85 12 fc ff ff 	mov    %rax,-0x3ee(%rbp)
    704d:	c6 85 1a fc ff ff 05 	movb   $0x5,-0x3e6(%rbp)
    7054:	48 b8 01 08 f8 f8 08 	movabs $0x500c808f8f80801,%rax
    705b:	c8 00 05 
    705e:	48 89 85 1b fc ff ff 	mov    %rax,-0x3e5(%rbp)
    7065:	c6 85 23 fc ff ff 01 	movb   $0x1,-0x3dd(%rbp)
    706c:	48 b8 13 fc c8 f9 f9 	movabs $0x13fcc8f9f9c8fc13,%rax
    7073:	c8 fc 13 
    7076:	48 89 85 24 fc ff ff 	mov    %rax,-0x3dc(%rbp)
    707d:	c6 85 2c fc ff ff 08 	movb   $0x8,-0x3d4(%rbp)
    7084:	48 b8 01 f8 13 00 fc 	movabs $0x1300fcfc0013f801,%rax
    708b:	fc 00 13 
    708e:	48 89 85 2d fc ff ff 	mov    %rax,-0x3d3(%rbp)
    7095:	c6 85 35 fc ff ff f8 	movb   $0xf8,-0x3cb(%rbp)
    709c:	48 b8 f9 13 01 08 05 	movabs $0x5ffff05080113f9,%rax
    70a3:	ff ff 05 
    70a6:	48 89 85 36 fc ff ff 	mov    %rax,-0x3ca(%rbp)
    70ad:	c6 85 3e fc ff ff 08 	movb   $0x8,-0x3c2(%rbp)
    70b4:	48 b8 f9 00 f9 ff 00 	movabs $0xc8c80100fff900f9,%rax
    70bb:	01 c8 c8 
    70be:	48 89 85 3f fc ff ff 	mov    %rax,-0x3c1(%rbp)
    70c5:	c6 85 47 fc ff ff 01 	movb   $0x1,-0x3b9(%rbp)
    70cc:	48 8d 05 cd d7 00 00 	lea    0xd7cd(%rip),%rax        # 148a0 <g_106>
    70d3:	48 89 85 c0 fb ff ff 	mov    %rax,-0x440(%rbp)
    70da:	48 8d 05 bf d7 00 00 	lea    0xd7bf(%rip),%rax        # 148a0 <g_106>
    70e1:	48 89 85 c8 fb ff ff 	mov    %rax,-0x438(%rbp)
    70e8:	48 8d 05 b1 d7 00 00 	lea    0xd7b1(%rip),%rax        # 148a0 <g_106>
    70ef:	48 89 85 d0 fb ff ff 	mov    %rax,-0x430(%rbp)
    70f6:	48 8d 05 a3 d7 00 00 	lea    0xd7a3(%rip),%rax        # 148a0 <g_106>
    70fd:	48 89 85 d8 fb ff ff 	mov    %rax,-0x428(%rbp)
    7104:	48 8d 05 95 d7 00 00 	lea    0xd795(%rip),%rax        # 148a0 <g_106>
    710b:	48 89 85 e0 fb ff ff 	mov    %rax,-0x420(%rbp)
    7112:	48 8d 05 87 d7 00 00 	lea    0xd787(%rip),%rax        # 148a0 <g_106>
    7119:	48 89 85 e8 fb ff ff 	mov    %rax,-0x418(%rbp)
    7120:	48 8d 05 79 d7 00 00 	lea    0xd779(%rip),%rax        # 148a0 <g_106>
    7127:	48 89 85 f0 fb ff ff 	mov    %rax,-0x410(%rbp)
    712e:	48 8d 05 9b c0 00 00 	lea    0xc09b(%rip),%rax        # 131d0 <g_940>
    7135:	48 89 85 d8 fa ff ff 	mov    %rax,-0x528(%rbp)
    713c:	c7 85 50 fc ff ff 01 	movl   $0x1,-0x3b0(%rbp)
    7143:	00 00 00 
    7146:	c7 85 54 fc ff ff f9 	movl   $0xfffffff9,-0x3ac(%rbp)
    714d:	ff ff ff 
    7150:	c7 85 58 fc ff ff f9 	movl   $0xfffffff9,-0x3a8(%rbp)
    7157:	ff ff ff 
    715a:	c7 85 5c fc ff ff 01 	movl   $0x1,-0x3a4(%rbp)
    7161:	00 00 00 
    7164:	c7 85 60 fc ff ff f9 	movl   $0xfffffff9,-0x3a0(%rbp)
    716b:	ff ff ff 
    716e:	c7 85 64 fc ff ff f9 	movl   $0xfffffff9,-0x39c(%rbp)
    7175:	ff ff ff 
    7178:	c7 85 68 fc ff ff 01 	movl   $0x1,-0x398(%rbp)
    717f:	00 00 00 
    7182:	c7 85 6c fc ff ff f9 	movl   $0xfffffff9,-0x394(%rbp)
    7189:	ff ff ff 
    718c:	c7 85 70 fc ff ff f9 	movl   $0xfffffff9,-0x390(%rbp)
    7193:	ff ff ff 
    7196:	c7 85 74 fc ff ff 01 	movl   $0x1,-0x38c(%rbp)
    719d:	00 00 00 
    71a0:	c7 85 78 fc ff ff f9 	movl   $0xfffffff9,-0x388(%rbp)
    71a7:	ff ff ff 
    71aa:	c7 85 7c fc ff ff f9 	movl   $0xfffffff9,-0x384(%rbp)
    71b1:	ff ff ff 
    71b4:	c7 85 80 fc ff ff 01 	movl   $0x1,-0x380(%rbp)
    71bb:	00 00 00 
    71be:	c7 85 84 fc ff ff f9 	movl   $0xfffffff9,-0x37c(%rbp)
    71c5:	ff ff ff 
    71c8:	c7 85 88 fc ff ff f9 	movl   $0xfffffff9,-0x378(%rbp)
    71cf:	ff ff ff 
    71d2:	c7 85 8c fc ff ff 01 	movl   $0x1,-0x374(%rbp)
    71d9:	00 00 00 
    71dc:	c7 85 90 fc ff ff f9 	movl   $0xfffffff9,-0x370(%rbp)
    71e3:	ff ff ff 
    71e6:	c7 85 94 fc ff ff f9 	movl   $0xfffffff9,-0x36c(%rbp)
    71ed:	ff ff ff 
    71f0:	c7 85 80 fa ff ff fe 	movl   $0xfffffffe,-0x580(%rbp)
    71f7:	ff ff ff 
    71fa:	48 8d 05 3f ca 00 00 	lea    0xca3f(%rip),%rax        # 13c40 <g_280>
    7201:	48 89 85 b0 fa ff ff 	mov    %rax,-0x550(%rbp)
    7208:	48 8d 85 b0 fa ff ff 	lea    -0x550(%rbp),%rax
    720f:	48 89 85 b8 fa ff ff 	mov    %rax,-0x548(%rbp)
    7216:	48 8d 85 b8 fa ff ff 	lea    -0x548(%rbp),%rax
    721d:	48 89 85 e0 fa ff ff 	mov    %rax,-0x520(%rbp)
    7224:	c6 85 68 fa ff ff fd 	movb   $0xfd,-0x598(%rbp)
    722b:	c6 85 69 fa ff ff 18 	movb   $0x18,-0x597(%rbp)
    7232:	48 c7 85 e8 fa ff ff 	movq   $0x0,-0x518(%rbp)
    7239:	00 00 00 00 
    723d:	48 c7 85 f0 fa ff ff 	movq   $0x0,-0x510(%rbp)
    7244:	00 00 00 00 
    7248:	48 8d 05 79 d6 00 00 	lea    0xd679(%rip),%rax        # 148c8 <g_1056>
    724f:	48 89 85 f8 fa ff ff 	mov    %rax,-0x508(%rbp)
    7256:	66 c7 85 6a fa ff ff 	movw   $0xffff,-0x596(%rbp)
    725d:	ff ff 
    725f:	48 8d 85 50 fc ff ff 	lea    -0x3b0(%rbp),%rax
    7266:	48 83 c0 14          	add    $0x14,%rax
    726a:	48 89 85 00 fb ff ff 	mov    %rax,-0x500(%rbp)
    7271:	c7 85 70 fa ff ff 00 	movl   $0x0,-0x590(%rbp)
    7278:	00 00 00 
    727b:	eb 1e                	jmp    729b <func_66+0x2da>
    727d:	8b 85 70 fa ff ff    	mov    -0x590(%rbp),%eax
    7283:	48 98                	cltq   
    7285:	48 8d 15 9c bd 00 00 	lea    0xbd9c(%rip),%rdx        # 13028 <g_30>
    728c:	48 89 94 c5 70 fb ff 	mov    %rdx,-0x490(%rbp,%rax,8)
    7293:	ff 
    7294:	83 85 70 fa ff ff 01 	addl   $0x1,-0x590(%rbp)
    729b:	83 bd 70 fa ff ff 02 	cmpl   $0x2,-0x590(%rbp)
    72a2:	7e d9                	jle    727d <func_66+0x2bc>
    72a4:	48 c7 85 48 fa ff ff 	movq   $0x0,-0x5b8(%rbp)
    72ab:	00 00 00 00 
    72af:	e9 27 01 00 00       	jmpq   73db <func_66+0x41a>
    72b4:	48 8d 05 87 bd 00 00 	lea    0xbd87(%rip),%rax        # 13042 <g_80+0x2>
    72bb:	48 89 85 50 fb ff ff 	mov    %rax,-0x4b0(%rbp)
    72c2:	c7 85 a0 fa ff ff 30 	movl   $0xb3b36f30,-0x560(%rbp)
    72c9:	6f b3 b3 
    72cc:	48 8d 05 55 bd 00 00 	lea    0xbd55(%rip),%rax        # 13028 <g_30>
    72d3:	48 89 85 c0 fa ff ff 	mov    %rax,-0x540(%rbp)
    72da:	48 8d 85 c0 fa ff ff 	lea    -0x540(%rbp),%rax
    72e1:	48 89 85 58 fb ff ff 	mov    %rax,-0x4a8(%rbp)
    72e8:	48 8d 05 69 cc 00 00 	lea    0xcc69(%rip),%rax        # 13f58 <g_591>
    72ef:	48 89 85 60 fb ff ff 	mov    %rax,-0x4a0(%rbp)
    72f6:	48 8d 05 43 c9 00 00 	lea    0xc943(%rip),%rax        # 13c40 <g_280>
    72fd:	48 89 85 d0 fa ff ff 	mov    %rax,-0x530(%rbp)
    7304:	48 8d 85 d0 fa ff ff 	lea    -0x530(%rbp),%rax
    730b:	48 89 85 40 fd ff ff 	mov    %rax,-0x2c0(%rbp)
    7312:	48 8d 85 d0 fa ff ff 	lea    -0x530(%rbp),%rax
    7319:	48 89 85 48 fd ff ff 	mov    %rax,-0x2b8(%rbp)
    7320:	48 8d 85 d0 fa ff ff 	lea    -0x530(%rbp),%rax
    7327:	48 89 85 50 fd ff ff 	mov    %rax,-0x2b0(%rbp)
    732e:	48 8d 85 d0 fa ff ff 	lea    -0x530(%rbp),%rax
    7335:	48 89 85 58 fd ff ff 	mov    %rax,-0x2a8(%rbp)
    733c:	48 8d 85 d0 fa ff ff 	lea    -0x530(%rbp),%rax
    7343:	48 89 85 60 fd ff ff 	mov    %rax,-0x2a0(%rbp)
    734a:	48 8d 85 d0 fa ff ff 	lea    -0x530(%rbp),%rax
    7351:	48 89 85 68 fd ff ff 	mov    %rax,-0x298(%rbp)
    7358:	48 8d 85 d0 fa ff ff 	lea    -0x530(%rbp),%rax
    735f:	48 89 85 70 fd ff ff 	mov    %rax,-0x290(%rbp)
    7366:	c7 85 a4 fa ff ff 00 	movl   $0x0,-0x55c(%rbp)
    736d:	00 00 00 
    7370:	c7 85 a8 fa ff ff fc 	movl   $0xfffffffc,-0x558(%rbp)
    7377:	ff ff ff 
    737a:	48 8d 05 4f bd 00 00 	lea    0xbd4f(%rip),%rax        # 130d0 <g_271>
    7381:	48 89 85 68 fb ff ff 	mov    %rax,-0x498(%rbp)
    7388:	48 8d 05 91 cc 00 00 	lea    0xcc91(%rip),%rax        # 14020 <g_1082>
    738f:	48 89 85 c8 fa ff ff 	mov    %rax,-0x538(%rbp)
    7396:	c7 85 ac fa ff ff 8b 	movl   $0xbdf3058b,-0x554(%rbp)
    739d:	05 f3 bd 
    73a0:	c7 85 74 fa ff ff 00 	movl   $0x0,-0x58c(%rbp)
    73a7:	00 00 00 
    73aa:	eb 1e                	jmp    73ca <func_66+0x409>
    73ac:	8b 85 74 fa ff ff    	mov    -0x58c(%rbp),%eax
    73b2:	48 98                	cltq   
    73b4:	48 8d 15 1b bd 00 00 	lea    0xbd1b(%rip),%rdx        # 130d6 <g_716>
    73bb:	48 89 94 c5 e0 fd ff 	mov    %rdx,-0x220(%rbp,%rax,8)
    73c2:	ff 
    73c3:	83 85 74 fa ff ff 01 	addl   $0x1,-0x58c(%rbp)
    73ca:	83 bd 74 fa ff ff 07 	cmpl   $0x7,-0x58c(%rbp)
    73d1:	7e d9                	jle    73ac <func_66+0x3eb>
    73d3:	48 83 85 48 fa ff ff 	addq   $0x1,-0x5b8(%rbp)
    73da:	01 
    73db:	48 83 bd 48 fa ff ff 	cmpq   $0x7,-0x5b8(%rbp)
    73e2:	07 
    73e3:	0f 8e cb fe ff ff    	jle    72b4 <func_66+0x2f3>
    73e9:	48 8b 85 f8 fa ff ff 	mov    -0x508(%rbp),%rax
    73f0:	48 8d 95 44 fa ff ff 	lea    -0x5bc(%rbp),%rdx
    73f7:	48 89 10             	mov    %rdx,(%rax)
    73fa:	c6 05 43 bc 00 00 00 	movb   $0x0,0xbc43(%rip)        # 13044 <g_112>
    7401:	e9 70 0a 00 00       	jmpq   7e76 <func_66+0xeb5>
    7406:	48 8d 05 5b cb 00 00 	lea    0xcb5b(%rip),%rax        # 13f68 <g_778>
    740d:	48 89 85 08 fb ff ff 	mov    %rax,-0x4f8(%rbp)
    7414:	c7 85 6c fa ff ff ff 	movl   $0xffffffff,-0x594(%rbp)
    741b:	ff ff ff 
    741e:	48 8d 05 a3 bd 00 00 	lea    0xbda3(%rip),%rax        # 131c8 <g_918>
    7425:	48 89 85 10 fb ff ff 	mov    %rax,-0x4f0(%rbp)
    742c:	48 8d 85 68 fa ff ff 	lea    -0x598(%rbp),%rax
    7433:	48 89 85 e0 fd ff ff 	mov    %rax,-0x220(%rbp)
    743a:	48 8d 05 03 bc 00 00 	lea    0xbc03(%rip),%rax        # 13044 <g_112>
    7441:	48 89 85 e8 fd ff ff 	mov    %rax,-0x218(%rbp)
    7448:	48 8d 05 69 d4 00 00 	lea    0xd469(%rip),%rax        # 148b8 <g_896>
    744f:	48 89 85 f0 fd ff ff 	mov    %rax,-0x210(%rbp)
    7456:	48 8d 05 e7 bb 00 00 	lea    0xbbe7(%rip),%rax        # 13044 <g_112>
    745d:	48 89 85 f8 fd ff ff 	mov    %rax,-0x208(%rbp)
    7464:	48 8d 85 68 fa ff ff 	lea    -0x598(%rbp),%rax
    746b:	48 89 85 00 fe ff ff 	mov    %rax,-0x200(%rbp)
    7472:	48 8d 05 cb bb 00 00 	lea    0xbbcb(%rip),%rax        # 13044 <g_112>
    7479:	48 89 85 08 fe ff ff 	mov    %rax,-0x1f8(%rbp)
    7480:	48 8d 05 31 d4 00 00 	lea    0xd431(%rip),%rax        # 148b8 <g_896>
    7487:	48 89 85 10 fe ff ff 	mov    %rax,-0x1f0(%rbp)
    748e:	48 8d 05 af bb 00 00 	lea    0xbbaf(%rip),%rax        # 13044 <g_112>
    7495:	48 89 85 18 fe ff ff 	mov    %rax,-0x1e8(%rbp)
    749c:	48 8d 85 68 fa ff ff 	lea    -0x598(%rbp),%rax
    74a3:	48 89 85 20 fe ff ff 	mov    %rax,-0x1e0(%rbp)
    74aa:	48 8d 05 07 d4 00 00 	lea    0xd407(%rip),%rax        # 148b8 <g_896>
    74b1:	48 89 85 28 fe ff ff 	mov    %rax,-0x1d8(%rbp)
    74b8:	48 8d 05 f9 d3 00 00 	lea    0xd3f9(%rip),%rax        # 148b8 <g_896>
    74bf:	48 89 85 30 fe ff ff 	mov    %rax,-0x1d0(%rbp)
    74c6:	48 8d 85 68 fa ff ff 	lea    -0x598(%rbp),%rax
    74cd:	48 89 85 38 fe ff ff 	mov    %rax,-0x1c8(%rbp)
    74d4:	48 8d 05 69 bb 00 00 	lea    0xbb69(%rip),%rax        # 13044 <g_112>
    74db:	48 89 85 40 fe ff ff 	mov    %rax,-0x1c0(%rbp)
    74e2:	48 8d 05 cf d3 00 00 	lea    0xd3cf(%rip),%rax        # 148b8 <g_896>
    74e9:	48 89 85 48 fe ff ff 	mov    %rax,-0x1b8(%rbp)
    74f0:	48 8d 05 4d bb 00 00 	lea    0xbb4d(%rip),%rax        # 13044 <g_112>
    74f7:	48 89 85 50 fe ff ff 	mov    %rax,-0x1b0(%rbp)
    74fe:	48 8d 85 68 fa ff ff 	lea    -0x598(%rbp),%rax
    7505:	48 89 85 58 fe ff ff 	mov    %rax,-0x1a8(%rbp)
    750c:	48 8d 05 31 bb 00 00 	lea    0xbb31(%rip),%rax        # 13044 <g_112>
    7513:	48 89 85 60 fe ff ff 	mov    %rax,-0x1a0(%rbp)
    751a:	48 8d 05 97 d3 00 00 	lea    0xd397(%rip),%rax        # 148b8 <g_896>
    7521:	48 89 85 68 fe ff ff 	mov    %rax,-0x198(%rbp)
    7528:	48 8d 05 15 bb 00 00 	lea    0xbb15(%rip),%rax        # 13044 <g_112>
    752f:	48 89 85 70 fe ff ff 	mov    %rax,-0x190(%rbp)
    7536:	48 8d 85 68 fa ff ff 	lea    -0x598(%rbp),%rax
    753d:	48 89 85 78 fe ff ff 	mov    %rax,-0x188(%rbp)
    7544:	48 8d 05 6d d3 00 00 	lea    0xd36d(%rip),%rax        # 148b8 <g_896>
    754b:	48 89 85 80 fe ff ff 	mov    %rax,-0x180(%rbp)
    7552:	48 8d 05 5f d3 00 00 	lea    0xd35f(%rip),%rax        # 148b8 <g_896>
    7559:	48 89 85 88 fe ff ff 	mov    %rax,-0x178(%rbp)
    7560:	48 8d 85 68 fa ff ff 	lea    -0x598(%rbp),%rax
    7567:	48 89 85 90 fe ff ff 	mov    %rax,-0x170(%rbp)
    756e:	48 8d 05 cf ba 00 00 	lea    0xbacf(%rip),%rax        # 13044 <g_112>
    7575:	48 89 85 98 fe ff ff 	mov    %rax,-0x168(%rbp)
    757c:	48 8d 05 35 d3 00 00 	lea    0xd335(%rip),%rax        # 148b8 <g_896>
    7583:	48 89 85 a0 fe ff ff 	mov    %rax,-0x160(%rbp)
    758a:	48 8d 05 b3 ba 00 00 	lea    0xbab3(%rip),%rax        # 13044 <g_112>
    7591:	48 89 85 a8 fe ff ff 	mov    %rax,-0x158(%rbp)
    7598:	48 8d 85 68 fa ff ff 	lea    -0x598(%rbp),%rax
    759f:	48 89 85 b0 fe ff ff 	mov    %rax,-0x150(%rbp)
    75a6:	48 8d 05 97 ba 00 00 	lea    0xba97(%rip),%rax        # 13044 <g_112>
    75ad:	48 89 85 b8 fe ff ff 	mov    %rax,-0x148(%rbp)
    75b4:	48 8d 05 fd d2 00 00 	lea    0xd2fd(%rip),%rax        # 148b8 <g_896>
    75bb:	48 89 85 c0 fe ff ff 	mov    %rax,-0x140(%rbp)
    75c2:	48 8d 05 7b ba 00 00 	lea    0xba7b(%rip),%rax        # 13044 <g_112>
    75c9:	48 89 85 c8 fe ff ff 	mov    %rax,-0x138(%rbp)
    75d0:	48 8d 85 68 fa ff ff 	lea    -0x598(%rbp),%rax
    75d7:	48 89 85 d0 fe ff ff 	mov    %rax,-0x130(%rbp)
    75de:	48 8d 05 d3 d2 00 00 	lea    0xd2d3(%rip),%rax        # 148b8 <g_896>
    75e5:	48 89 85 d8 fe ff ff 	mov    %rax,-0x128(%rbp)
    75ec:	48 8d 05 c5 d2 00 00 	lea    0xd2c5(%rip),%rax        # 148b8 <g_896>
    75f3:	48 89 85 e0 fe ff ff 	mov    %rax,-0x120(%rbp)
    75fa:	48 8d 85 68 fa ff ff 	lea    -0x598(%rbp),%rax
    7601:	48 89 85 e8 fe ff ff 	mov    %rax,-0x118(%rbp)
    7608:	48 8d 05 35 ba 00 00 	lea    0xba35(%rip),%rax        # 13044 <g_112>
    760f:	48 89 85 f0 fe ff ff 	mov    %rax,-0x110(%rbp)
    7616:	48 8d 05 9b d2 00 00 	lea    0xd29b(%rip),%rax        # 148b8 <g_896>
    761d:	48 89 85 f8 fe ff ff 	mov    %rax,-0x108(%rbp)
    7624:	48 8d 05 19 ba 00 00 	lea    0xba19(%rip),%rax        # 13044 <g_112>
    762b:	48 89 85 00 ff ff ff 	mov    %rax,-0x100(%rbp)
    7632:	48 8d 85 68 fa ff ff 	lea    -0x598(%rbp),%rax
    7639:	48 89 85 08 ff ff ff 	mov    %rax,-0xf8(%rbp)
    7640:	48 8d 05 fd b9 00 00 	lea    0xb9fd(%rip),%rax        # 13044 <g_112>
    7647:	48 89 85 10 ff ff ff 	mov    %rax,-0xf0(%rbp)
    764e:	48 8d 05 63 d2 00 00 	lea    0xd263(%rip),%rax        # 148b8 <g_896>
    7655:	48 89 85 18 ff ff ff 	mov    %rax,-0xe8(%rbp)
    765c:	48 8d 05 e1 b9 00 00 	lea    0xb9e1(%rip),%rax        # 13044 <g_112>
    7663:	48 89 85 20 ff ff ff 	mov    %rax,-0xe0(%rbp)
    766a:	48 8d 85 68 fa ff ff 	lea    -0x598(%rbp),%rax
    7671:	48 89 85 28 ff ff ff 	mov    %rax,-0xd8(%rbp)
    7678:	48 8d 05 39 d2 00 00 	lea    0xd239(%rip),%rax        # 148b8 <g_896>
    767f:	48 89 85 30 ff ff ff 	mov    %rax,-0xd0(%rbp)
    7686:	48 8d 05 2b d2 00 00 	lea    0xd22b(%rip),%rax        # 148b8 <g_896>
    768d:	48 89 85 38 ff ff ff 	mov    %rax,-0xc8(%rbp)
    7694:	48 8d 85 68 fa ff ff 	lea    -0x598(%rbp),%rax
    769b:	48 89 85 40 ff ff ff 	mov    %rax,-0xc0(%rbp)
    76a2:	48 8d 05 9b b9 00 00 	lea    0xb99b(%rip),%rax        # 13044 <g_112>
    76a9:	48 89 85 48 ff ff ff 	mov    %rax,-0xb8(%rbp)
    76b0:	48 8d 05 01 d2 00 00 	lea    0xd201(%rip),%rax        # 148b8 <g_896>
    76b7:	48 89 85 50 ff ff ff 	mov    %rax,-0xb0(%rbp)
    76be:	48 8d 05 7f b9 00 00 	lea    0xb97f(%rip),%rax        # 13044 <g_112>
    76c5:	48 89 85 58 ff ff ff 	mov    %rax,-0xa8(%rbp)
    76cc:	48 8d 85 68 fa ff ff 	lea    -0x598(%rbp),%rax
    76d3:	48 89 85 60 ff ff ff 	mov    %rax,-0xa0(%rbp)
    76da:	48 8d 05 63 b9 00 00 	lea    0xb963(%rip),%rax        # 13044 <g_112>
    76e1:	48 89 85 68 ff ff ff 	mov    %rax,-0x98(%rbp)
    76e8:	48 8d 05 c9 d1 00 00 	lea    0xd1c9(%rip),%rax        # 148b8 <g_896>
    76ef:	48 89 85 70 ff ff ff 	mov    %rax,-0x90(%rbp)
    76f6:	48 8d 05 47 b9 00 00 	lea    0xb947(%rip),%rax        # 13044 <g_112>
    76fd:	48 89 85 78 ff ff ff 	mov    %rax,-0x88(%rbp)
    7704:	48 8d 85 68 fa ff ff 	lea    -0x598(%rbp),%rax
    770b:	48 89 45 80          	mov    %rax,-0x80(%rbp)
    770f:	48 8d 05 a2 d1 00 00 	lea    0xd1a2(%rip),%rax        # 148b8 <g_896>
    7716:	48 89 45 88          	mov    %rax,-0x78(%rbp)
    771a:	48 8d 05 97 d1 00 00 	lea    0xd197(%rip),%rax        # 148b8 <g_896>
    7721:	48 89 45 90          	mov    %rax,-0x70(%rbp)
    7725:	48 8d 85 68 fa ff ff 	lea    -0x598(%rbp),%rax
    772c:	48 89 45 98          	mov    %rax,-0x68(%rbp)
    7730:	48 8d 05 0d b9 00 00 	lea    0xb90d(%rip),%rax        # 13044 <g_112>
    7737:	48 89 45 a0          	mov    %rax,-0x60(%rbp)
    773b:	48 8d 05 76 d1 00 00 	lea    0xd176(%rip),%rax        # 148b8 <g_896>
    7742:	48 89 45 a8          	mov    %rax,-0x58(%rbp)
    7746:	48 8d 05 f7 b8 00 00 	lea    0xb8f7(%rip),%rax        # 13044 <g_112>
    774d:	48 89 45 b0          	mov    %rax,-0x50(%rbp)
    7751:	48 8d 85 68 fa ff ff 	lea    -0x598(%rbp),%rax
    7758:	48 89 45 b8          	mov    %rax,-0x48(%rbp)
    775c:	48 8d 05 e1 b8 00 00 	lea    0xb8e1(%rip),%rax        # 13044 <g_112>
    7763:	48 89 45 c0          	mov    %rax,-0x40(%rbp)
    7767:	48 8d 05 4a d1 00 00 	lea    0xd14a(%rip),%rax        # 148b8 <g_896>
    776e:	48 89 45 c8          	mov    %rax,-0x38(%rbp)
    7772:	48 8d 05 cb b8 00 00 	lea    0xb8cb(%rip),%rax        # 13044 <g_112>
    7779:	48 89 45 d0          	mov    %rax,-0x30(%rbp)
    777d:	c7 85 c0 fa ff ff 01 	movl   $0x1,-0x540(%rbp)
    7784:	00 00 00 
    7787:	c7 85 84 fa ff ff d8 	movl   $0xe94d4ed8,-0x57c(%rbp)
    778e:	4e 4d e9 
    7791:	c7 85 88 fa ff ff a9 	movl   $0xc9228ba9,-0x578(%rbp)
    7798:	8b 22 c9 
    779b:	c7 85 8c fa ff ff 2a 	movl   $0x45d82e2a,-0x574(%rbp)
    77a2:	2e d8 45 
    77a5:	c7 85 90 fa ff ff 04 	movl   $0x4,-0x570(%rbp)
    77ac:	00 00 00 
    77af:	c7 85 94 fa ff ff f9 	movl   $0xfffffff9,-0x56c(%rbp)
    77b6:	ff ff ff 
    77b9:	c7 85 98 fa ff ff 00 	movl   $0x0,-0x568(%rbp)
    77c0:	00 00 00 
    77c3:	c7 85 9c fa ff ff 00 	movl   $0x71562400,-0x564(%rbp)
    77ca:	24 56 71 
    77cd:	c7 85 a0 fc ff ff 96 	movl   $0xcc4f6196,-0x360(%rbp)
    77d4:	61 4f cc 
    77d7:	c7 85 a4 fc ff ff 96 	movl   $0xcc4f6196,-0x35c(%rbp)
    77de:	61 4f cc 
    77e1:	c7 85 a8 fc ff ff 96 	movl   $0xcc4f6196,-0x358(%rbp)
    77e8:	61 4f cc 
    77eb:	c7 85 ac fc ff ff 96 	movl   $0xcc4f6196,-0x354(%rbp)
    77f2:	61 4f cc 
    77f5:	c7 85 b0 fc ff ff 96 	movl   $0xcc4f6196,-0x350(%rbp)
    77fc:	61 4f cc 
    77ff:	c7 85 b4 fc ff ff 96 	movl   $0xcc4f6196,-0x34c(%rbp)
    7806:	61 4f cc 
    7809:	c7 85 b8 fc ff ff 96 	movl   $0xcc4f6196,-0x348(%rbp)
    7810:	61 4f cc 
    7813:	c7 85 bc fc ff ff 96 	movl   $0xcc4f6196,-0x344(%rbp)
    781a:	61 4f cc 
    781d:	c7 85 c0 fc ff ff 96 	movl   $0xcc4f6196,-0x340(%rbp)
    7824:	61 4f cc 
    7827:	c7 85 c4 fc ff ff 96 	movl   $0xcc4f6196,-0x33c(%rbp)
    782e:	61 4f cc 
    7831:	c7 85 c8 fc ff ff 96 	movl   $0xcc4f6196,-0x338(%rbp)
    7838:	61 4f cc 
    783b:	c7 85 cc fc ff ff 96 	movl   $0xcc4f6196,-0x334(%rbp)
    7842:	61 4f cc 
    7845:	c7 85 d0 fc ff ff 96 	movl   $0xcc4f6196,-0x330(%rbp)
    784c:	61 4f cc 
    784f:	c7 85 d4 fc ff ff 96 	movl   $0xcc4f6196,-0x32c(%rbp)
    7856:	61 4f cc 
    7859:	c7 85 d8 fc ff ff 96 	movl   $0xcc4f6196,-0x328(%rbp)
    7860:	61 4f cc 
    7863:	c7 85 dc fc ff ff 96 	movl   $0xcc4f6196,-0x324(%rbp)
    786a:	61 4f cc 
    786d:	c7 85 e0 fc ff ff 96 	movl   $0xcc4f6196,-0x320(%rbp)
    7874:	61 4f cc 
    7877:	c7 85 e4 fc ff ff 96 	movl   $0xcc4f6196,-0x31c(%rbp)
    787e:	61 4f cc 
    7881:	c7 85 e8 fc ff ff 96 	movl   $0xcc4f6196,-0x318(%rbp)
    7888:	61 4f cc 
    788b:	c7 85 ec fc ff ff 96 	movl   $0xcc4f6196,-0x314(%rbp)
    7892:	61 4f cc 
    7895:	c7 85 f0 fc ff ff 96 	movl   $0xcc4f6196,-0x310(%rbp)
    789c:	61 4f cc 
    789f:	c7 85 f4 fc ff ff 96 	movl   $0xcc4f6196,-0x30c(%rbp)
    78a6:	61 4f cc 
    78a9:	c7 85 f8 fc ff ff 96 	movl   $0xcc4f6196,-0x308(%rbp)
    78b0:	61 4f cc 
    78b3:	c7 85 fc fc ff ff 96 	movl   $0xcc4f6196,-0x304(%rbp)
    78ba:	61 4f cc 
    78bd:	c7 85 00 fd ff ff 96 	movl   $0xcc4f6196,-0x300(%rbp)
    78c4:	61 4f cc 
    78c7:	c7 85 04 fd ff ff 96 	movl   $0xcc4f6196,-0x2fc(%rbp)
    78ce:	61 4f cc 
    78d1:	c7 85 08 fd ff ff 96 	movl   $0xcc4f6196,-0x2f8(%rbp)
    78d8:	61 4f cc 
    78db:	c7 85 0c fd ff ff 96 	movl   $0xcc4f6196,-0x2f4(%rbp)
    78e2:	61 4f cc 
    78e5:	c7 85 10 fd ff ff 96 	movl   $0xcc4f6196,-0x2f0(%rbp)
    78ec:	61 4f cc 
    78ef:	c7 85 14 fd ff ff 96 	movl   $0xcc4f6196,-0x2ec(%rbp)
    78f6:	61 4f cc 
    78f9:	c7 85 18 fd ff ff 96 	movl   $0xcc4f6196,-0x2e8(%rbp)
    7900:	61 4f cc 
    7903:	c7 85 1c fd ff ff 96 	movl   $0xcc4f6196,-0x2e4(%rbp)
    790a:	61 4f cc 
    790d:	c7 85 20 fd ff ff 96 	movl   $0xcc4f6196,-0x2e0(%rbp)
    7914:	61 4f cc 
    7917:	c7 85 24 fd ff ff 96 	movl   $0xcc4f6196,-0x2dc(%rbp)
    791e:	61 4f cc 
    7921:	c7 85 28 fd ff ff 96 	movl   $0xcc4f6196,-0x2d8(%rbp)
    7928:	61 4f cc 
    792b:	c7 85 2c fd ff ff 96 	movl   $0xcc4f6196,-0x2d4(%rbp)
    7932:	61 4f cc 
    7935:	c7 85 30 fd ff ff 96 	movl   $0xcc4f6196,-0x2d0(%rbp)
    793c:	61 4f cc 
    793f:	c7 85 34 fd ff ff 96 	movl   $0xcc4f6196,-0x2cc(%rbp)
    7946:	61 4f cc 
    7949:	c7 85 38 fd ff ff 96 	movl   $0xcc4f6196,-0x2c8(%rbp)
    7950:	61 4f cc 
    7953:	c7 85 3c fd ff ff 96 	movl   $0xcc4f6196,-0x2c4(%rbp)
    795a:	61 4f cc 
    795d:	c7 85 78 fa ff ff 88 	movl   $0x96974288,-0x588(%rbp)
    7964:	42 97 96 
    7967:	8b 85 c0 fa ff ff    	mov    -0x540(%rbp),%eax
    796d:	0f be d8             	movsbl %al,%ebx
    7970:	48 8b 05 d9 c5 00 00 	mov    0xc5d9(%rip),%rax        # 13f50 <g_592>
    7977:	48 8b 00             	mov    (%rax),%rax
    797a:	0f b6 95 50 fa ff ff 	movzbl -0x5b0(%rbp),%edx
    7981:	48 89 10             	mov    %rdx,(%rax)
    7984:	4c 8b 28             	mov    (%rax),%r13
    7987:	48 8b 05 92 c6 00 00 	mov    0xc692(%rip),%rax        # 14020 <g_1082>
    798e:	44 0f b7 30          	movzwl (%rax),%r14d
    7992:	48 83 bd 48 fa ff ff 	cmpq   $0x0,-0x5b8(%rbp)
    7999:	00 
    799a:	0f 85 88 00 00 00    	jne    7a28 <func_66+0xa67>
    79a0:	8b 95 6c fa ff ff    	mov    -0x594(%rbp),%edx
    79a6:	48 8b 85 10 fb ff ff 	mov    -0x4f0(%rbp),%rax
    79ad:	89 10                	mov    %edx,(%rax)
    79af:	44 8b a5 44 fa ff ff 	mov    -0x5bc(%rbp),%r12d
    79b6:	8b 95 6c fa ff ff    	mov    -0x594(%rbp),%edx
    79bc:	48 8b 85 f8 fa ff ff 	mov    -0x508(%rbp),%rax
    79c3:	48 8b 00             	mov    (%rax),%rax
    79c6:	8b 00                	mov    (%rax),%eax
    79c8:	89 d6                	mov    %edx,%esi
    79ca:	89 c7                	mov    %eax,%edi
    79cc:	e8 fb cc ff ff       	callq  46cc <safe_mod_func_int32_t_s_s>
    79d1:	48 8b 15 28 c5 00 00 	mov    0xc528(%rip),%rdx        # 13f00 <g_523>
    79d8:	48 8b 05 21 c5 00 00 	mov    0xc521(%rip),%rax        # 13f00 <g_523>
    79df:	48 8b 12             	mov    (%rdx),%rdx
    79e2:	48 89 10             	mov    %rdx,(%rax)
    79e5:	48 8b 10             	mov    (%rax),%rdx
    79e8:	48 8b 85 d8 fb ff ff 	mov    -0x428(%rbp),%rax
    79ef:	48 39 c2             	cmp    %rax,%rdx
    79f2:	8b 8d 6c fa ff ff    	mov    -0x594(%rbp),%ecx
    79f8:	48 8b 05 c1 c0 00 00 	mov    0xc0c1(%rip),%rax        # 13ac0 <g_21>
    79ff:	8b 10                	mov    (%rax),%edx
    7a01:	48 8b 05 b8 c0 00 00 	mov    0xc0b8(%rip),%rax        # 13ac0 <g_21>
    7a08:	31 ca                	xor    %ecx,%edx
    7a0a:	89 10                	mov    %edx,(%rax)
    7a0c:	8b 00                	mov    (%rax),%eax
    7a0e:	44 89 e6             	mov    %r12d,%esi
    7a11:	89 c7                	mov    %eax,%edi
    7a13:	e8 e7 cc ff ff       	callq  46ff <safe_div_func_int32_t_s_s>
    7a18:	be b3 89 9e 78       	mov    $0x789e89b3,%esi
    7a1d:	89 c7                	mov    %eax,%edi
    7a1f:	e8 a8 cc ff ff       	callq  46cc <safe_mod_func_int32_t_s_s>
    7a24:	85 c0                	test   %eax,%eax
    7a26:	74 07                	je     7a2f <func_66+0xa6e>
    7a28:	b8 01 00 00 00       	mov    $0x1,%eax
    7a2d:	eb 05                	jmp    7a34 <func_66+0xa73>
    7a2f:	b8 00 00 00 00       	mov    $0x0,%eax
    7a34:	44 31 f0             	xor    %r14d,%eax
    7a37:	0f b7 c0             	movzwl %ax,%eax
    7a3a:	be df 8b 00 00       	mov    $0x8bdf,%esi
    7a3f:	89 c7                	mov    %eax,%edi
    7a41:	e8 f7 d2 ff ff       	callq  4d3d <safe_mul_func_uint16_t_u_u>
    7a46:	0f b7 c0             	movzwl %ax,%eax
    7a49:	be 04 00 00 00       	mov    $0x4,%esi
    7a4e:	89 c7                	mov    %eax,%edi
    7a50:	e8 b0 cb ff ff       	callq  4605 <safe_sub_func_int32_t_s_s>
    7a55:	66 c7 85 6a fa ff ff 	movw   $0x0,-0x596(%rbp)
    7a5c:	00 00 
    7a5e:	c7 85 6c fa ff ff e5 	movl   $0x159c08e5,-0x594(%rbp)
    7a65:	08 9c 15 
    7a68:	8b 85 6c fa ff ff    	mov    -0x594(%rbp),%eax
    7a6e:	83 f8 f6             	cmp    $0xfffffff6,%eax
    7a71:	0f 9c c0             	setl   %al
    7a74:	0f b6 c0             	movzbl %al,%eax
    7a77:	4c 89 ea             	mov    %r13,%rdx
    7a7a:	48 21 c2             	and    %rax,%rdx
    7a7d:	48 8b 85 d8 fa ff ff 	mov    -0x528(%rbp),%rax
    7a84:	8b 00                	mov    (%rax),%eax
    7a86:	48 98                	cltq   
    7a88:	48 39 c2             	cmp    %rax,%rdx
    7a8b:	48 8b 05 ce c4 00 00 	mov    0xc4ce(%rip),%rax        # 13f60 <g_590>
    7a92:	48 8b 00             	mov    (%rax),%rax
    7a95:	48 8b 00             	mov    (%rax),%rax
    7a98:	48 8b 00             	mov    (%rax),%rax
    7a9b:	48 8b 00             	mov    (%rax),%rax
    7a9e:	89 c2                	mov    %eax,%edx
    7aa0:	48 8b 85 d8 fa ff ff 	mov    -0x528(%rbp),%rax
    7aa7:	89 10                	mov    %edx,(%rax)
    7aa9:	48 83 bd 08 fb ff ff 	cmpq   $0x0,-0x4f8(%rbp)
    7ab0:	00 
    7ab1:	0f 94 c0             	sete   %al
    7ab4:	89 c2                	mov    %eax,%edx
    7ab6:	8b 85 44 fa ff ff    	mov    -0x5bc(%rbp),%eax
    7abc:	31 d0                	xor    %edx,%eax
    7abe:	0f be c0             	movsbl %al,%eax
    7ac1:	89 de                	mov    %ebx,%esi
    7ac3:	89 c7                	mov    %eax,%edi
    7ac5:	e8 0a c7 ff ff       	callq  41d4 <safe_add_func_int8_t_s_s>
    7aca:	0f be c0             	movsbl %al,%eax
    7acd:	31 85 84 fa ff ff    	xor    %eax,-0x57c(%rbp)
    7ad3:	66 c7 05 f0 b6 00 00 	movw   $0x0,0xb6f0(%rip)        # 131cc <g_919>
    7ada:	00 00 
    7adc:	90                   	nop
    7add:	0f b7 05 e8 b6 00 00 	movzwl 0xb6e8(%rip),%eax        # 131cc <g_919>
    7ae4:	66 83 f8 02          	cmp    $0x2,%ax
    7ae8:	0f 8f 06 01 00 00    	jg     7bf4 <func_66+0xc33>
    7aee:	48 8d 05 c3 b5 00 00 	lea    0xb5c3(%rip),%rax        # 130b8 <g_206>
    7af5:	48 89 85 40 fd ff ff 	mov    %rax,-0x2c0(%rbp)
    7afc:	48 8d 05 b5 b5 00 00 	lea    0xb5b5(%rip),%rax        # 130b8 <g_206>
    7b03:	48 89 85 48 fd ff ff 	mov    %rax,-0x2b8(%rbp)
    7b0a:	48 8d 05 a7 b5 00 00 	lea    0xb5a7(%rip),%rax        # 130b8 <g_206>
    7b11:	48 89 85 50 fd ff ff 	mov    %rax,-0x2b0(%rbp)
    7b18:	48 8d 05 99 b5 00 00 	lea    0xb599(%rip),%rax        # 130b8 <g_206>
    7b1f:	48 89 85 58 fd ff ff 	mov    %rax,-0x2a8(%rbp)
    7b26:	48 8d 05 8b b5 00 00 	lea    0xb58b(%rip),%rax        # 130b8 <g_206>
    7b2d:	48 89 85 60 fd ff ff 	mov    %rax,-0x2a0(%rbp)
    7b34:	48 c7 85 68 fd ff ff 	movq   $0x0,-0x298(%rbp)
    7b3b:	00 00 00 00 
    7b3f:	48 c7 85 70 fd ff ff 	movq   $0x0,-0x290(%rbp)
    7b46:	00 00 00 00 
    7b4a:	48 c7 85 78 fd ff ff 	movq   $0x0,-0x288(%rbp)
    7b51:	00 00 00 00 
    7b55:	48 c7 85 80 fd ff ff 	movq   $0x0,-0x280(%rbp)
    7b5c:	00 00 00 00 
    7b60:	48 c7 85 88 fd ff ff 	movq   $0x0,-0x278(%rbp)
    7b67:	00 00 00 00 
    7b6b:	48 8d 05 46 b5 00 00 	lea    0xb546(%rip),%rax        # 130b8 <g_206>
    7b72:	48 89 85 90 fd ff ff 	mov    %rax,-0x270(%rbp)
    7b79:	48 8d 05 38 b5 00 00 	lea    0xb538(%rip),%rax        # 130b8 <g_206>
    7b80:	48 89 85 98 fd ff ff 	mov    %rax,-0x268(%rbp)
    7b87:	48 8d 05 2a b5 00 00 	lea    0xb52a(%rip),%rax        # 130b8 <g_206>
    7b8e:	48 89 85 a0 fd ff ff 	mov    %rax,-0x260(%rbp)
    7b95:	48 8d 05 1c b5 00 00 	lea    0xb51c(%rip),%rax        # 130b8 <g_206>
    7b9c:	48 89 85 a8 fd ff ff 	mov    %rax,-0x258(%rbp)
    7ba3:	48 8d 05 0e b5 00 00 	lea    0xb50e(%rip),%rax        # 130b8 <g_206>
    7baa:	48 89 85 b0 fd ff ff 	mov    %rax,-0x250(%rbp)
    7bb1:	48 c7 85 b8 fd ff ff 	movq   $0x0,-0x248(%rbp)
    7bb8:	00 00 00 00 
    7bbc:	48 c7 85 c0 fd ff ff 	movq   $0x0,-0x240(%rbp)
    7bc3:	00 00 00 00 
    7bc7:	48 c7 85 c8 fd ff ff 	movq   $0x0,-0x238(%rbp)
    7bce:	00 00 00 00 
    7bd2:	48 c7 85 d0 fd ff ff 	movq   $0x0,-0x230(%rbp)
    7bd9:	00 00 00 00 
    7bdd:	48 c7 85 d8 fd ff ff 	movq   $0x0,-0x228(%rbp)
    7be4:	00 00 00 00 
    7be8:	48 8b 85 78 fd ff ff 	mov    -0x288(%rbp),%rax
    7bef:	e9 98 02 00 00       	jmpq   7e8c <func_66+0xecb>
    7bf4:	48 c7 85 48 fa ff ff 	movq   $0x2,-0x5b8(%rbp)
    7bfb:	02 00 00 00 
    7bff:	e9 54 02 00 00       	jmpq   7e58 <func_66+0xe97>
    7c04:	48 8d 85 50 fc ff ff 	lea    -0x3b0(%rbp),%rax
    7c0b:	48 83 c0 30          	add    $0x30,%rax
    7c0f:	48 89 85 18 fb ff ff 	mov    %rax,-0x4e8(%rbp)
    7c16:	48 c7 85 20 fb ff ff 	movq   $0x0,-0x4e0(%rbp)
    7c1d:	00 00 00 00 
    7c21:	48 8d 85 6c fa ff ff 	lea    -0x594(%rbp),%rax
    7c28:	48 89 85 28 fb ff ff 	mov    %rax,-0x4d8(%rbp)
    7c2f:	48 8d 85 6c fa ff ff 	lea    -0x594(%rbp),%rax
    7c36:	48 89 85 30 fb ff ff 	mov    %rax,-0x4d0(%rbp)
    7c3d:	48 8d 85 c0 fa ff ff 	lea    -0x540(%rbp),%rax
    7c44:	48 89 85 90 fb ff ff 	mov    %rax,-0x470(%rbp)
    7c4b:	48 8d 85 c0 fa ff ff 	lea    -0x540(%rbp),%rax
    7c52:	48 89 85 98 fb ff ff 	mov    %rax,-0x468(%rbp)
    7c59:	48 8d 85 c0 fa ff ff 	lea    -0x540(%rbp),%rax
    7c60:	48 89 85 a0 fb ff ff 	mov    %rax,-0x460(%rbp)
    7c67:	48 8d 85 c0 fa ff ff 	lea    -0x540(%rbp),%rax
    7c6e:	48 89 85 a8 fb ff ff 	mov    %rax,-0x458(%rbp)
    7c75:	48 8d 85 c0 fa ff ff 	lea    -0x540(%rbp),%rax
    7c7c:	48 89 85 b0 fb ff ff 	mov    %rax,-0x450(%rbp)
    7c83:	48 8d 85 e0 fd ff ff 	lea    -0x220(%rbp),%rax
    7c8a:	48 05 80 01 00 00    	add    $0x180,%rax
    7c90:	48 89 85 d0 fa ff ff 	mov    %rax,-0x530(%rbp)
    7c97:	48 8d 85 d0 fa ff ff 	lea    -0x530(%rbp),%rax
    7c9e:	48 89 85 38 fb ff ff 	mov    %rax,-0x4c8(%rbp)
    7ca5:	48 8d 05 1c b4 00 00 	lea    0xb41c(%rip),%rax        # 130c8 <g_266>
    7cac:	48 89 85 40 fb ff ff 	mov    %rax,-0x4c0(%rbp)
    7cb3:	48 8d 05 e8 cb 00 00 	lea    0xcbe8(%rip),%rax        # 148a2 <g_109>
    7cba:	48 89 85 48 fb ff ff 	mov    %rax,-0x4b8(%rbp)
    7cc1:	c7 85 7c fa ff ff 00 	movl   $0x0,-0x584(%rbp)
    7cc8:	00 00 00 
    7ccb:	eb 1b                	jmp    7ce8 <func_66+0xd27>
    7ccd:	8b 85 7c fa ff ff    	mov    -0x584(%rbp),%eax
    7cd3:	48 98                	cltq   
    7cd5:	48 c7 84 c5 40 fd ff 	movq   $0x0,-0x2c0(%rbp,%rax,8)
    7cdc:	ff 00 00 00 00 
    7ce1:	83 85 7c fa ff ff 01 	addl   $0x1,-0x584(%rbp)
    7ce8:	83 bd 7c fa ff ff 06 	cmpl   $0x6,-0x584(%rbp)
    7cef:	7e dc                	jle    7ccd <func_66+0xd0c>
    7cf1:	83 85 78 fa ff ff 01 	addl   $0x1,-0x588(%rbp)
    7cf8:	48 8b 85 38 fb ff ff 	mov    -0x4c8(%rbp),%rax
    7cff:	48 89 05 8a c3 00 00 	mov    %rax,0xc38a(%rip)        # 14090 <g_1295>
    7d06:	48 8b 05 1b c3 00 00 	mov    0xc31b(%rip),%rax        # 14028 <g_1081>
    7d0d:	48 8b 00             	mov    (%rax),%rax
    7d10:	0f b7 00             	movzwl (%rax),%eax
    7d13:	0f bf d8             	movswl %ax,%ebx
    7d16:	48 8b 85 40 fb ff ff 	mov    -0x4c0(%rbp),%rax
    7d1d:	0f b7 10             	movzwl (%rax),%edx
    7d20:	0f b6 85 50 fa ff ff 	movzbl -0x5b0(%rbp),%eax
    7d27:	21 c2                	and    %eax,%edx
    7d29:	48 8b 85 40 fb ff ff 	mov    -0x4c0(%rbp),%rax
    7d30:	66 89 10             	mov    %dx,(%rax)
    7d33:	44 0f b6 a5 50 fa ff 	movzbl -0x5b0(%rbp),%r12d
    7d3a:	ff 
    7d3b:	48 8b 05 0e c2 00 00 	mov    0xc20e(%rip),%rax        # 13f50 <g_592>
    7d42:	48 8b 00             	mov    (%rax),%rax
    7d45:	48 8b 10             	mov    (%rax),%rdx
    7d48:	48 8b 05 09 c2 00 00 	mov    0xc209(%rip),%rax        # 13f58 <g_591>
    7d4f:	48 8b 00             	mov    (%rax),%rax
    7d52:	48 8b 00             	mov    (%rax),%rax
    7d55:	48 8b 00             	mov    (%rax),%rax
    7d58:	48 89 d6             	mov    %rdx,%rsi
    7d5b:	48 89 c7             	mov    %rax,%rdi
    7d5e:	e8 51 cc ff ff       	callq  49b4 <safe_mod_func_int64_t_s_s>
    7d63:	49 39 c4             	cmp    %rax,%r12
    7d66:	0f 9d c0             	setge  %al
    7d69:	0f b6 c0             	movzbl %al,%eax
    7d6c:	48 39 85 48 fa ff ff 	cmp    %rax,-0x5b8(%rbp)
    7d73:	0f 9e c0             	setle  %al
    7d76:	0f b6 c0             	movzbl %al,%eax
    7d79:	23 85 88 fa ff ff    	and    -0x578(%rbp),%eax
    7d7f:	be 95 19 f9 29       	mov    $0x29f91995,%esi
    7d84:	89 c7                	mov    %eax,%edi
    7d86:	e8 45 d1 ff ff       	callq  4ed0 <safe_sub_func_uint32_t_u_u>
    7d8b:	48 8b 85 d8 fa ff ff 	mov    -0x528(%rbp),%rax
    7d92:	8b 00                	mov    (%rax),%eax
    7d94:	0f be c0             	movsbl %al,%eax
    7d97:	be 03 00 00 00       	mov    $0x3,%esi
    7d9c:	89 c7                	mov    %eax,%edi
    7d9e:	e8 fe c4 ff ff       	callq  42a1 <safe_lshift_func_int8_t_s_s>
    7da3:	48 0f be c0          	movsbq %al,%rax
    7da7:	48 be 40 dc c0 98 74 	movabs $0x5bc8a37498c0dc40,%rsi
    7dae:	a3 c8 5b 
    7db1:	48 89 c7             	mov    %rax,%rdi
    7db4:	e8 ef ca ff ff       	callq  48a8 <safe_sub_func_int64_t_s_s>
    7db9:	48 8b 85 48 fa ff ff 	mov    -0x5b8(%rbp),%rax
    7dc0:	48 f7 d0             	not    %rax
    7dc3:	48 c1 e8 3f          	shr    $0x3f,%rax
    7dc7:	0f b6 c0             	movzbl %al,%eax
    7dca:	8b 95 44 fa ff ff    	mov    -0x5bc(%rbp),%edx
    7dd0:	21 d0                	and    %edx,%eax
    7dd2:	98                   	cwtl   
    7dd3:	be 0b 00 00 00       	mov    $0xb,%esi
    7dd8:	89 c7                	mov    %eax,%edi
    7dda:	e8 02 c7 ff ff       	callq  44e1 <safe_lshift_func_int16_t_s_u>
    7ddf:	48 8b 05 d2 c1 00 00 	mov    0xc1d2(%rip),%rax        # 13fb8 <g_978>
    7de6:	66 c7 00 01 00       	movw   $0x1,(%rax)
    7deb:	0f b6 05 52 b2 00 00 	movzbl 0xb252(%rip),%eax        # 13044 <g_112>
    7df2:	0f b6 c0             	movzbl %al,%eax
    7df5:	83 c0 03             	add    $0x3,%eax
    7df8:	48 63 c8             	movslq %eax,%rcx
    7dfb:	48 8b 95 48 fa ff ff 	mov    -0x5b8(%rbp),%rdx
    7e02:	48 89 d0             	mov    %rdx,%rax
    7e05:	48 01 c0             	add    %rax,%rax
    7e08:	48 01 d0             	add    %rdx,%rax
    7e0b:	48 01 c0             	add    %rax,%rax
    7e0e:	48 01 c8             	add    %rcx,%rax
    7e11:	8b 84 85 50 fc ff ff 	mov    -0x3b0(%rbp,%rax,4),%eax
    7e18:	83 e0 fa             	and    $0xfffffffa,%eax
    7e1b:	89 c2                	mov    %eax,%edx
    7e1d:	48 8b 85 48 fb ff ff 	mov    -0x4b8(%rbp),%rax
    7e24:	66 89 10             	mov    %dx,(%rax)
    7e27:	48 8b 85 48 fb ff ff 	mov    -0x4b8(%rbp),%rax
    7e2e:	0f b7 00             	movzwl (%rax),%eax
    7e31:	98                   	cwtl   
    7e32:	89 de                	mov    %ebx,%esi
    7e34:	89 c7                	mov    %eax,%edi
    7e36:	e8 db c5 ff ff       	callq  4416 <safe_mod_func_int16_t_s_s>
    7e3b:	48 8b 95 28 fb ff ff 	mov    -0x4d8(%rbp),%rdx
    7e42:	8b 12                	mov    (%rdx),%edx
    7e44:	98                   	cwtl   
    7e45:	21 c2                	and    %eax,%edx
    7e47:	48 8b 85 28 fb ff ff 	mov    -0x4d8(%rbp),%rax
    7e4e:	89 10                	mov    %edx,(%rax)
    7e50:	48 83 ad 48 fa ff ff 	subq   $0x1,-0x5b8(%rbp)
    7e57:	01 
    7e58:	48 83 bd 48 fa ff ff 	cmpq   $0x0,-0x5b8(%rbp)
    7e5f:	00 
    7e60:	0f 89 9e fd ff ff    	jns    7c04 <func_66+0xc43>
    7e66:	0f b6 05 d7 b1 00 00 	movzbl 0xb1d7(%rip),%eax        # 13044 <g_112>
    7e6d:	83 c0 01             	add    $0x1,%eax
    7e70:	88 05 ce b1 00 00    	mov    %al,0xb1ce(%rip)        # 13044 <g_112>
    7e76:	0f b6 05 c7 b1 00 00 	movzbl 0xb1c7(%rip),%eax        # 13044 <g_112>
    7e7d:	3c 02                	cmp    $0x2,%al
    7e7f:	0f 86 81 f5 ff ff    	jbe    7406 <func_66+0x445>
    7e85:	48 8b 05 0c c2 00 00 	mov    0xc20c(%rip),%rax        # 14098 <g_1314>
    7e8c:	48 8b 5d d8          	mov    -0x28(%rbp),%rbx
    7e90:	64 48 33 1c 25 28 00 	xor    %fs:0x28,%rbx
    7e97:	00 00 
    7e99:	74 05                	je     7ea0 <func_66+0xedf>
    7e9b:	e8 d0 c1 ff ff       	callq  4070 <__stack_chk_fail@plt>
    7ea0:	48 81 c4 a0 05 00 00 	add    $0x5a0,%rsp
    7ea7:	5b                   	pop    %rbx
    7ea8:	41 5c                	pop    %r12
    7eaa:	41 5d                	pop    %r13
    7eac:	41 5e                	pop    %r14
    7eae:	5d                   	pop    %rbp
    7eaf:	c3                   	retq   

0000000000007eb0 <func_76>:
    7eb0:	f3 0f 1e fa          	endbr64 
    7eb4:	55                   	push   %rbp
    7eb5:	48 89 e5             	mov    %rsp,%rbp
    7eb8:	41 56                	push   %r14
    7eba:	41 55                	push   %r13
    7ebc:	41 54                	push   %r12
    7ebe:	53                   	push   %rbx
    7ebf:	48 81 ec 80 01 00 00 	sub    $0x180,%rsp
    7ec6:	89 f8                	mov    %edi,%eax
    7ec8:	89 f2                	mov    %esi,%edx
    7eca:	66 89 85 6c fe ff ff 	mov    %ax,-0x194(%rbp)
    7ed1:	89 d0                	mov    %edx,%eax
    7ed3:	88 85 68 fe ff ff    	mov    %al,-0x198(%rbp)
    7ed9:	64 48 8b 04 25 28 00 	mov    %fs:0x28,%rax
    7ee0:	00 00 
    7ee2:	48 89 45 d8          	mov    %rax,-0x28(%rbp)
    7ee6:	31 c0                	xor    %eax,%eax
    7ee8:	c7 85 30 ff ff ff 1c 	movl   $0x32f4c31c,-0xd0(%rbp)
    7eef:	c3 f4 32 
    7ef2:	c7 85 34 ff ff ff 01 	movl   $0x1,-0xcc(%rbp)
    7ef9:	00 00 00 
    7efc:	c7 85 38 ff ff ff 1c 	movl   $0x32f4c31c,-0xc8(%rbp)
    7f03:	c3 f4 32 
    7f06:	c7 85 3c ff ff ff 00 	movl   $0x0,-0xc4(%rbp)
    7f0d:	00 00 00 
    7f10:	c7 85 40 ff ff ff 4e 	movl   $0xf10d104e,-0xc0(%rbp)
    7f17:	10 0d f1 
    7f1a:	c7 85 44 ff ff ff 02 	movl   $0x2,-0xbc(%rbp)
    7f21:	00 00 00 
    7f24:	c7 85 48 ff ff ff 00 	movl   $0x0,-0xb8(%rbp)
    7f2b:	00 00 00 
    7f2e:	c7 85 4c ff ff ff 00 	movl   $0x0,-0xb4(%rbp)
    7f35:	00 00 00 
    7f38:	c7 85 50 ff ff ff 01 	movl   $0x1,-0xb0(%rbp)
    7f3f:	00 00 00 
    7f42:	c7 85 54 ff ff ff 01 	movl   $0x1,-0xac(%rbp)
    7f49:	00 00 00 
    7f4c:	c7 85 58 ff ff ff 03 	movl   $0x3,-0xa8(%rbp)
    7f53:	00 00 00 
    7f56:	c7 85 5c ff ff ff 02 	movl   $0x2,-0xa4(%rbp)
    7f5d:	00 00 00 
    7f60:	c7 85 60 ff ff ff 02 	movl   $0x2,-0xa0(%rbp)
    7f67:	00 00 00 
    7f6a:	c7 85 64 ff ff ff 4e 	movl   $0xf10d104e,-0x9c(%rbp)
    7f71:	10 0d f1 
    7f74:	c7 85 68 ff ff ff 03 	movl   $0x3,-0x98(%rbp)
    7f7b:	00 00 00 
    7f7e:	c7 85 6c ff ff ff 4e 	movl   $0xf10d104e,-0x94(%rbp)
    7f85:	10 0d f1 
    7f88:	48 8d 05 41 b1 00 00 	lea    0xb141(%rip),%rax        # 130d0 <g_271>
    7f8f:	48 89 85 90 fe ff ff 	mov    %rax,-0x170(%rbp)
    7f96:	48 8d 05 1b b1 00 00 	lea    0xb11b(%rip),%rax        # 130b8 <g_206>
    7f9d:	48 89 85 98 fe ff ff 	mov    %rax,-0x168(%rbp)
    7fa4:	c7 85 84 fe ff ff 8b 	movl   $0x65315a8b,-0x17c(%rbp)
    7fab:	5a 31 65 
    7fae:	48 8d 05 9f b0 00 00 	lea    0xb09f(%rip),%rax        # 13054 <g_120>
    7fb5:	48 89 85 a0 fe ff ff 	mov    %rax,-0x160(%rbp)
    7fbc:	c7 85 88 fe ff ff 01 	movl   $0x1,-0x178(%rbp)
    7fc3:	00 00 00 
    7fc6:	48 8d 05 87 b0 00 00 	lea    0xb087(%rip),%rax        # 13054 <g_120>
    7fcd:	48 89 85 a8 fe ff ff 	mov    %rax,-0x158(%rbp)
    7fd4:	48 8d 05 79 b0 00 00 	lea    0xb079(%rip),%rax        # 13054 <g_120>
    7fdb:	48 89 85 b0 fe ff ff 	mov    %rax,-0x150(%rbp)
    7fe2:	48 8d 05 9f c8 00 00 	lea    0xc89f(%rip),%rax        # 14888 <g_22>
    7fe9:	48 89 85 b8 fe ff ff 	mov    %rax,-0x148(%rbp)
    7ff0:	48 8d 05 91 c8 00 00 	lea    0xc891(%rip),%rax        # 14888 <g_22>
    7ff7:	48 89 85 c0 fe ff ff 	mov    %rax,-0x140(%rbp)
    7ffe:	48 c7 85 c8 fe ff ff 	movq   $0x0,-0x138(%rbp)
    8005:	00 00 00 00 
    8009:	48 8d 05 c0 b0 00 00 	lea    0xb0c0(%rip),%rax        # 130d0 <g_271>
    8010:	48 89 85 d0 fe ff ff 	mov    %rax,-0x130(%rbp)
    8017:	48 8d 05 9a b0 00 00 	lea    0xb09a(%rip),%rax        # 130b8 <g_206>
    801e:	48 89 85 d8 fe ff ff 	mov    %rax,-0x128(%rbp)
    8025:	48 b8 d7 0e 73 a3 21 	movabs $0xbfb00121a3730ed7,%rax
    802c:	01 b0 bf 
    802f:	48 89 85 70 ff ff ff 	mov    %rax,-0x90(%rbp)
    8036:	48 c7 85 78 ff ff ff 	movq   $0xfffffffffffffffd,-0x88(%rbp)
    803d:	fd ff ff ff 
    8041:	48 89 45 80          	mov    %rax,-0x80(%rbp)
    8045:	48 89 45 88          	mov    %rax,-0x78(%rbp)
    8049:	48 c7 45 90 fd ff ff 	movq   $0xfffffffffffffffd,-0x70(%rbp)
    8050:	ff 
    8051:	48 c7 45 98 fd ff ff 	movq   $0xfffffffffffffffd,-0x68(%rbp)
    8058:	ff 
    8059:	48 c7 45 a0 01 00 00 	movq   $0x1,-0x60(%rbp)
    8060:	00 
    8061:	48 c7 45 a8 fd ff ff 	movq   $0xfffffffffffffffd,-0x58(%rbp)
    8068:	ff 
    8069:	48 c7 45 b0 fd ff ff 	movq   $0xfffffffffffffffd,-0x50(%rbp)
    8070:	ff 
    8071:	48 89 45 b8          	mov    %rax,-0x48(%rbp)
    8075:	48 89 45 c0          	mov    %rax,-0x40(%rbp)
    8079:	48 c7 45 c8 fd ff ff 	movq   $0xfffffffffffffffd,-0x38(%rbp)
    8080:	ff 
    8081:	66 c7 85 f0 fe ff ff 	movw   $0xfff7,-0x110(%rbp)
    8088:	f7 ff 
    808a:	66 c7 85 f2 fe ff ff 	movw   $0xfff7,-0x10e(%rbp)
    8091:	f7 ff 
    8093:	66 c7 85 f4 fe ff ff 	movw   $0xfff7,-0x10c(%rbp)
    809a:	f7 ff 
    809c:	66 c7 85 f6 fe ff ff 	movw   $0xfff7,-0x10a(%rbp)
    80a3:	f7 ff 
    80a5:	66 c7 85 f8 fe ff ff 	movw   $0xfff7,-0x108(%rbp)
    80ac:	f7 ff 
    80ae:	66 c7 85 fa fe ff ff 	movw   $0xfff7,-0x106(%rbp)
    80b5:	f7 ff 
    80b7:	66 c7 85 fc fe ff ff 	movw   $0xfff7,-0x104(%rbp)
    80be:	f7 ff 
    80c0:	66 c7 85 fe fe ff ff 	movw   $0xfff7,-0x102(%rbp)
    80c7:	f7 ff 
    80c9:	c7 85 8c fe ff ff ff 	movl   $0xffffffff,-0x174(%rbp)
    80d0:	ff ff ff 
    80d3:	c6 85 7d fe ff ff bd 	movb   $0xbd,-0x183(%rbp)
    80da:	48 8d 05 bf af 00 00 	lea    0xafbf(%rip),%rax        # 130a0 <g_180+0x20>
    80e1:	48 89 85 e0 fe ff ff 	mov    %rax,-0x120(%rbp)
    80e8:	c7 85 80 fe ff ff 00 	movl   $0x0,-0x180(%rbp)
    80ef:	00 00 00 
    80f2:	eb 1b                	jmp    810f <func_76+0x25f>
    80f4:	8b 85 80 fe ff ff    	mov    -0x180(%rbp),%eax
    80fa:	48 98                	cltq   
    80fc:	48 c7 84 c5 00 ff ff 	movq   $0x0,-0x100(%rbp,%rax,8)
    8103:	ff 00 00 00 00 
    8108:	83 85 80 fe ff ff 01 	addl   $0x1,-0x180(%rbp)
    810f:	83 bd 80 fe ff ff 05 	cmpl   $0x5,-0x180(%rbp)
    8116:	7e dc                	jle    80f4 <func_76+0x244>
    8118:	8b 85 50 ff ff ff    	mov    -0xb0(%rbp),%eax
    811e:	83 e8 01             	sub    $0x1,%eax
    8121:	89 85 50 ff ff ff    	mov    %eax,-0xb0(%rbp)
    8127:	80 ad 7d fe ff ff 01 	subb   $0x1,-0x183(%rbp)
    812e:	48 8b 85 b0 fe ff ff 	mov    -0x150(%rbp),%rax
    8135:	8b 00                	mov    (%rax),%eax
    8137:	85 c0                	test   %eax,%eax
    8139:	0f 84 4a 01 00 00    	je     8289 <func_76+0x3d9>
    813f:	0f b6 85 68 fe ff ff 	movzbl -0x198(%rbp),%eax
    8146:	0f be d8             	movsbl %al,%ebx
    8149:	44 0f b6 a5 68 fe ff 	movzbl -0x198(%rbp),%r12d
    8150:	ff 
    8151:	48 8b 85 90 fe ff ff 	mov    -0x170(%rbp),%rax
    8158:	8b 10                	mov    (%rax),%edx
    815a:	0f b6 85 68 fe ff ff 	movzbl -0x198(%rbp),%eax
    8161:	31 d0                	xor    %edx,%eax
    8163:	83 f8 04             	cmp    $0x4,%eax
    8166:	77 71                	ja     81d9 <func_76+0x329>
    8168:	44 0f b6 ad 68 fe ff 	movzbl -0x198(%rbp),%r13d
    816f:	ff 
    8170:	48 8b 05 d9 ba 00 00 	mov    0xbad9(%rip),%rax        # 13c50 <g_434>
    8177:	48 8b 00             	mov    (%rax),%rax
    817a:	0f b7 00             	movzwl (%rax),%eax
    817d:	66 3d 5c a0          	cmp    $0xa05c,%ax
    8181:	0f 97 c0             	seta   %al
    8184:	44 0f b6 f0          	movzbl %al,%r14d
    8188:	b8 47 89 ff ff       	mov    $0xffff8947,%eax
    818d:	0f b7 d0             	movzwl %ax,%edx
    8190:	48 8b 85 b0 fe ff ff 	mov    -0x150(%rbp),%rax
    8197:	8b 00                	mov    (%rax),%eax
    8199:	85 c0                	test   %eax,%eax
    819b:	0f 95 c0             	setne  %al
    819e:	0f b6 c0             	movzbl %al,%eax
    81a1:	48 89 d6             	mov    %rdx,%rsi
    81a4:	48 89 c7             	mov    %rax,%rdi
    81a7:	e8 08 c8 ff ff       	callq  49b4 <safe_mod_func_int64_t_s_s>
    81ac:	49 39 c6             	cmp    %rax,%r14
    81af:	0f 95 c0             	setne  %al
    81b2:	0f b6 d0             	movzbl %al,%edx
    81b5:	48 8b 85 98 fe ff ff 	mov    -0x168(%rbp),%rax
    81bc:	8b 00                	mov    (%rax),%eax
    81be:	09 d0                	or     %edx,%eax
    81c0:	85 c0                	test   %eax,%eax
    81c2:	b8 01 00 00 00       	mov    $0x1,%eax
    81c7:	0f b7 c0             	movzwl %ax,%eax
    81ca:	44 89 ee             	mov    %r13d,%esi
    81cd:	89 c7                	mov    %eax,%edi
    81cf:	e8 74 cc ff ff       	callq  4e48 <safe_rshift_func_uint16_t_u_s>
    81d4:	66 85 c0             	test   %ax,%ax
    81d7:	74 07                	je     81e0 <func_76+0x330>
    81d9:	b8 01 00 00 00       	mov    $0x1,%eax
    81de:	eb 05                	jmp    81e5 <func_76+0x335>
    81e0:	b8 00 00 00 00       	mov    $0x0,%eax
    81e5:	0f be c0             	movsbl %al,%eax
    81e8:	44 89 e6             	mov    %r12d,%esi
    81eb:	89 c7                	mov    %eax,%edi
    81ed:	e8 af c0 ff ff       	callq  42a1 <safe_lshift_func_int8_t_s_s>
    81f2:	48 8b 85 a0 fe ff ff 	mov    -0x160(%rbp),%rax
    81f9:	8b 10                	mov    (%rax),%edx
    81fb:	48 8b 05 fe bc 00 00 	mov    0xbcfe(%rip),%rax        # 13f00 <g_523>
    8202:	48 8b 00             	mov    (%rax),%rax
    8205:	0f b7 00             	movzwl (%rax),%eax
    8208:	89 c1                	mov    %eax,%ecx
    820a:	89 d0                	mov    %edx,%eax
    820c:	09 c1                	or     %eax,%ecx
    820e:	89 ca                	mov    %ecx,%edx
    8210:	48 8b 05 e9 bc 00 00 	mov    0xbce9(%rip),%rax        # 13f00 <g_523>
    8217:	48 8b 00             	mov    (%rax),%rax
    821a:	66 89 10             	mov    %dx,(%rax)
    821d:	0f b7 00             	movzwl (%rax),%eax
    8220:	66 85 c0             	test   %ax,%ax
    8223:	75 0d                	jne    8232 <func_76+0x382>
    8225:	48 8b 85 a8 fe ff ff 	mov    -0x158(%rbp),%rax
    822c:	8b 00                	mov    (%rax),%eax
    822e:	85 c0                	test   %eax,%eax
    8230:	74 07                	je     8239 <func_76+0x389>
    8232:	b8 01 00 00 00       	mov    $0x1,%eax
    8237:	eb 05                	jmp    823e <func_76+0x38e>
    8239:	b8 00 00 00 00       	mov    $0x0,%eax
    823e:	48 63 d0             	movslq %eax,%rdx
    8241:	48 8b 85 e0 fe ff ff 	mov    -0x120(%rbp),%rax
    8248:	48 89 10             	mov    %rdx,(%rax)
    824b:	48 8b 85 e0 fe ff ff 	mov    -0x120(%rbp),%rax
    8252:	48 8b 00             	mov    (%rax),%rax
    8255:	48 85 c0             	test   %rax,%rax
    8258:	74 1c                	je     8276 <func_76+0x3c6>
    825a:	48 8b 05 f7 bc 00 00 	mov    0xbcf7(%rip),%rax        # 13f58 <g_591>
    8261:	48 8b 00             	mov    (%rax),%rax
    8264:	48 8b 00             	mov    (%rax),%rax
    8267:	48 8b 00             	mov    (%rax),%rax
    826a:	48 85 c0             	test   %rax,%rax
    826d:	74 07                	je     8276 <func_76+0x3c6>
    826f:	b8 01 00 00 00       	mov    $0x1,%eax
    8274:	eb 05                	jmp    827b <func_76+0x3cb>
    8276:	b8 00 00 00 00       	mov    $0x0,%eax
    827b:	0f be c0             	movsbl %al,%eax
    827e:	89 de                	mov    %ebx,%esi
    8280:	89 c7                	mov    %eax,%edi
    8282:	e8 8b bf ff ff       	callq  4212 <safe_mul_func_int8_t_s_s>
    8287:	84 c0                	test   %al,%al
    8289:	66 c7 05 10 c6 00 00 	movw   $0x0,0xc610(%rip)        # 148a2 <g_109>
    8290:	00 00 
    8292:	ba 01 00 00 00       	mov    $0x1,%edx
    8297:	48 8b 85 c0 fe ff ff 	mov    -0x140(%rbp),%rax
    829e:	8b 00                	mov    (%rax),%eax
    82a0:	09 c2                	or     %eax,%edx
    82a2:	48 8b 85 c0 fe ff ff 	mov    -0x140(%rbp),%rax
    82a9:	89 10                	mov    %edx,(%rax)
    82ab:	48 8b 85 c0 fe ff ff 	mov    -0x140(%rbp),%rax
    82b2:	8b 10                	mov    (%rax),%edx
    82b4:	48 8b 85 d8 fe ff ff 	mov    -0x128(%rbp),%rax
    82bb:	89 10                	mov    %edx,(%rax)
    82bd:	c6 05 80 ad 00 00 00 	movb   $0x0,0xad80(%rip)        # 13044 <g_112>
    82c4:	90                   	nop
    82c5:	0f b6 05 78 ad 00 00 	movzbl 0xad78(%rip),%eax        # 13044 <g_112>
    82cc:	3c 03                	cmp    $0x3,%al
    82ce:	77 28                	ja     82f8 <func_76+0x448>
    82d0:	66 c7 85 7e fe ff ff 	movw   $0xffff,-0x182(%rbp)
    82d7:	ff ff 
    82d9:	48 8d 05 e0 ad 00 00 	lea    0xade0(%rip),%rax        # 130c0 <g_215>
    82e0:	48 89 85 e8 fe ff ff 	mov    %rax,-0x118(%rbp)
    82e7:	66 83 ad 7e fe ff ff 	subw   $0x1,-0x182(%rbp)
    82ee:	01 
    82ef:	48 8b 85 e8 fe ff ff 	mov    -0x118(%rbp),%rax
    82f6:	eb 07                	jmp    82ff <func_76+0x44f>
    82f8:	48 8b 85 e0 fe ff ff 	mov    -0x120(%rbp),%rax
    82ff:	48 8b 5d d8          	mov    -0x28(%rbp),%rbx
    8303:	64 48 33 1c 25 28 00 	xor    %fs:0x28,%rbx
    830a:	00 00 
    830c:	74 05                	je     8313 <func_76+0x463>
    830e:	e8 5d bd ff ff       	callq  4070 <__stack_chk_fail@plt>
    8313:	48 81 c4 80 01 00 00 	add    $0x180,%rsp
    831a:	5b                   	pop    %rbx
    831b:	41 5c                	pop    %r12
    831d:	41 5d                	pop    %r13
    831f:	41 5e                	pop    %r14
    8321:	5d                   	pop    %rbp
    8322:	c3                   	retq   

0000000000008323 <func_83>:
    8323:	f3 0f 1e fa          	endbr64 
    8327:	55                   	push   %rbp
    8328:	48 89 e5             	mov    %rsp,%rbp
    832b:	48 89 7d f8          	mov    %rdi,-0x8(%rbp)
    832f:	48 89 75 f0          	mov    %rsi,-0x10(%rbp)
    8333:	89 d0                	mov    %edx,%eax
    8335:	48 89 4d e0          	mov    %rcx,-0x20(%rbp)
    8339:	88 45 ec             	mov    %al,-0x14(%rbp)
    833c:	48 8b 45 f0          	mov    -0x10(%rbp),%rax
    8340:	8b 00                	mov    (%rax),%eax
    8342:	5d                   	pop    %rbp
    8343:	c3                   	retq   

0000000000008344 <func_91>:
    8344:	f3 0f 1e fa          	endbr64 
    8348:	55                   	push   %rbp
    8349:	48 89 e5             	mov    %rsp,%rbp
    834c:	41 57                	push   %r15
    834e:	41 56                	push   %r14
    8350:	41 55                	push   %r13
    8352:	41 54                	push   %r12
    8354:	53                   	push   %rbx
    8355:	48 81 ec 00 10 00 00 	sub    $0x1000,%rsp
    835c:	48 83 0c 24 00       	orq    $0x0,(%rsp)
    8361:	48 81 ec f8 0b 00 00 	sub    $0xbf8,%rsp
    8368:	48 89 bd 08 e4 ff ff 	mov    %rdi,-0x1bf8(%rbp)
    836f:	89 f0                	mov    %esi,%eax
    8371:	48 89 95 f8 e3 ff ff 	mov    %rdx,-0x1c08(%rbp)
    8378:	48 89 8d f0 e3 ff ff 	mov    %rcx,-0x1c10(%rbp)
    837f:	4c 89 85 e8 e3 ff ff 	mov    %r8,-0x1c18(%rbp)
    8386:	66 89 85 04 e4 ff ff 	mov    %ax,-0x1bfc(%rbp)
    838d:	64 48 8b 04 25 28 00 	mov    %fs:0x28,%rax
    8394:	00 00 
    8396:	48 89 45 c8          	mov    %rax,-0x38(%rbp)
    839a:	31 c0                	xor    %eax,%eax
    839c:	48 c7 45 c0 00 00 00 	movq   $0x0,-0x40(%rbp)
    83a3:	00 
    83a4:	c7 85 28 e4 ff ff 9f 	movl   $0x6517299f,-0x1bd8(%rbp)
    83ab:	29 17 65 
    83ae:	c7 85 40 e9 ff ff 01 	movl   $0x1,-0x16c0(%rbp)
    83b5:	00 00 00 
    83b8:	c7 85 44 e9 ff ff 70 	movl   $0x41906970,-0x16bc(%rbp)
    83bf:	69 90 41 
    83c2:	c7 85 48 e9 ff ff 02 	movl   $0x2,-0x16b8(%rbp)
    83c9:	00 00 00 
    83cc:	c7 85 4c e9 ff ff 01 	movl   $0x1,-0x16b4(%rbp)
    83d3:	00 00 00 
    83d6:	c7 85 50 e9 ff ff 6b 	movl   $0x45e7516b,-0x16b0(%rbp)
    83dd:	51 e7 45 
    83e0:	c7 85 54 e9 ff ff 00 	movl   $0x0,-0x16ac(%rbp)
    83e7:	00 00 00 
    83ea:	c7 85 58 e9 ff ff c1 	movl   $0x30398ac1,-0x16a8(%rbp)
    83f1:	8a 39 30 
    83f4:	c7 85 5c e9 ff ff 88 	movl   $0x487d7488,-0x16a4(%rbp)
    83fb:	74 7d 48 
    83fe:	c7 85 60 e9 ff ff 70 	movl   $0x41906970,-0x16a0(%rbp)
    8405:	69 90 41 
    8408:	c7 85 64 e9 ff ff 00 	movl   $0x0,-0x169c(%rbp)
    840f:	00 00 00 
    8412:	c7 85 68 e9 ff ff 01 	movl   $0x1,-0x1698(%rbp)
    8419:	00 00 00 
    841c:	c7 85 6c e9 ff ff 00 	movl   $0x0,-0x1694(%rbp)
    8423:	00 00 00 
    8426:	c7 85 70 e9 ff ff 01 	movl   $0x1,-0x1690(%rbp)
    842d:	00 00 00 
    8430:	c7 85 74 e9 ff ff ae 	movl   $0xe2b492ae,-0x168c(%rbp)
    8437:	92 b4 e2 
    843a:	c7 85 78 e9 ff ff 02 	movl   $0x2,-0x1688(%rbp)
    8441:	00 00 00 
    8444:	c7 85 7c e9 ff ff 00 	movl   $0x0,-0x1684(%rbp)
    844b:	00 00 00 
    844e:	c7 85 80 e9 ff ff ae 	movl   $0xe2b492ae,-0x1680(%rbp)
    8455:	92 b4 e2 
    8458:	c7 85 84 e9 ff ff 07 	movl   $0x7,-0x167c(%rbp)
    845f:	00 00 00 
    8462:	c7 85 88 e9 ff ff 88 	movl   $0x487d7488,-0x1678(%rbp)
    8469:	74 7d 48 
    846c:	c7 85 8c e9 ff ff 01 	movl   $0x1,-0x1674(%rbp)
    8473:	00 00 00 
    8476:	c7 85 90 e9 ff ff 3e 	movl   $0x4f606e3e,-0x1670(%rbp)
    847d:	6e 60 4f 
    8480:	c7 85 94 e9 ff ff 94 	movl   $0x5ae59394,-0x166c(%rbp)
    8487:	93 e5 5a 
    848a:	c7 85 98 e9 ff ff 88 	movl   $0x487d7488,-0x1668(%rbp)
    8491:	74 7d 48 
    8494:	c7 85 9c e9 ff ff 88 	movl   $0x487d7488,-0x1664(%rbp)
    849b:	74 7d 48 
    849e:	c7 85 a0 e9 ff ff 88 	movl   $0x487d7488,-0x1660(%rbp)
    84a5:	74 7d 48 
    84a8:	c7 85 a4 e9 ff ff 6b 	movl   $0x45e7516b,-0x165c(%rbp)
    84af:	51 e7 45 
    84b2:	c7 85 a8 e9 ff ff c1 	movl   $0x30398ac1,-0x1658(%rbp)
    84b9:	8a 39 30 
    84bc:	c7 85 ac e9 ff ff 00 	movl   $0x0,-0x1654(%rbp)
    84c3:	00 00 00 
    84c6:	c7 85 b0 e9 ff ff 70 	movl   $0x41906970,-0x1650(%rbp)
    84cd:	69 90 41 
    84d0:	c7 85 b4 e9 ff ff c1 	movl   $0x30398ac1,-0x164c(%rbp)
    84d7:	8a 39 30 
    84da:	c7 85 b8 e9 ff ff 01 	movl   $0x1,-0x1648(%rbp)
    84e1:	00 00 00 
    84e4:	c7 85 bc e9 ff ff c1 	movl   $0x30398ac1,-0x1644(%rbp)
    84eb:	8a 39 30 
    84ee:	c7 85 c0 e9 ff ff 88 	movl   $0x487d7488,-0x1640(%rbp)
    84f5:	74 7d 48 
    84f8:	c7 85 c4 e9 ff ff 00 	movl   $0x0,-0x163c(%rbp)
    84ff:	00 00 00 
    8502:	c7 85 c8 e9 ff ff 07 	movl   $0x7,-0x1638(%rbp)
    8509:	00 00 00 
    850c:	c7 85 cc e9 ff ff 3e 	movl   $0x4f606e3e,-0x1634(%rbp)
    8513:	6e 60 4f 
    8516:	c7 85 d0 e9 ff ff c1 	movl   $0x30398ac1,-0x1630(%rbp)
    851d:	8a 39 30 
    8520:	c7 85 d4 e9 ff ff c1 	movl   $0x30398ac1,-0x162c(%rbp)
    8527:	8a 39 30 
    852a:	c7 85 d8 e9 ff ff 07 	movl   $0x7,-0x1628(%rbp)
    8531:	00 00 00 
    8534:	c7 85 dc e9 ff ff 01 	movl   $0x1,-0x1624(%rbp)
    853b:	00 00 00 
    853e:	c7 85 e0 e9 ff ff 70 	movl   $0x41906970,-0x1620(%rbp)
    8545:	69 90 41 
    8548:	c7 85 e4 e9 ff ff 02 	movl   $0x2,-0x161c(%rbp)
    854f:	00 00 00 
    8552:	c7 85 e8 e9 ff ff 01 	movl   $0x1,-0x1618(%rbp)
    8559:	00 00 00 
    855c:	c7 85 ec e9 ff ff 6b 	movl   $0x45e7516b,-0x1614(%rbp)
    8563:	51 e7 45 
    8566:	c7 85 f0 e9 ff ff 00 	movl   $0x0,-0x1610(%rbp)
    856d:	00 00 00 
    8570:	c7 85 f4 e9 ff ff c1 	movl   $0x30398ac1,-0x160c(%rbp)
    8577:	8a 39 30 
    857a:	c7 85 f8 e9 ff ff 88 	movl   $0x487d7488,-0x1608(%rbp)
    8581:	74 7d 48 
    8584:	c7 85 fc e9 ff ff 70 	movl   $0x41906970,-0x1604(%rbp)
    858b:	69 90 41 
    858e:	48 b8 03 b9 49 01 60 	movabs $0x7861ef600149b903,%rax
    8595:	ef 61 78 
    8598:	48 89 85 d8 e4 ff ff 	mov    %rax,-0x1b28(%rbp)
    859f:	c7 85 2c e4 ff ff 01 	movl   $0x1,-0x1bd4(%rbp)
    85a6:	00 00 00 
    85a9:	48 8d 05 20 ab 00 00 	lea    0xab20(%rip),%rax        # 130d0 <g_271>
    85b0:	48 89 85 e0 e4 ff ff 	mov    %rax,-0x1b20(%rbp)
    85b7:	48 8d 05 7a b8 00 00 	lea    0xb87a(%rip),%rax        # 13e38 <g_524+0x1d8>
    85be:	48 89 85 68 e5 ff ff 	mov    %rax,-0x1a98(%rbp)
    85c5:	c6 85 1b e4 ff ff 59 	movb   $0x59,-0x1be5(%rbp)
    85cc:	c7 85 30 e4 ff ff 1c 	movl   $0x2092851c,-0x1bd0(%rbp)
    85d3:	85 92 20 
    85d6:	c6 85 1a e4 ff ff ec 	movb   $0xec,-0x1be6(%rbp)
    85dd:	c6 85 1c e4 ff ff fc 	movb   $0xfc,-0x1be4(%rbp)
    85e4:	48 8d 45 c0          	lea    -0x40(%rbp),%rax
    85e8:	48 83 c0 02          	add    $0x2,%rax
    85ec:	48 89 85 e8 e4 ff ff 	mov    %rax,-0x1b18(%rbp)
    85f3:	48 8d 85 e8 e4 ff ff 	lea    -0x1b18(%rbp),%rax
    85fa:	48 89 85 f0 e4 ff ff 	mov    %rax,-0x1b10(%rbp)
    8601:	48 c7 85 70 e5 ff ff 	movq   $0x1,-0x1a90(%rbp)
    8608:	01 00 00 00 
    860c:	c7 85 34 e4 ff ff 4b 	movl   $0x6c91f04b,-0x1bcc(%rbp)
    8613:	f0 91 6c 
    8616:	48 8d 85 30 f9 ff ff 	lea    -0x6d0(%rbp),%rax
    861d:	48 8d 15 7c 72 00 00 	lea    0x727c(%rip),%rdx        # f8a0 <g_2043+0x7e0>
    8624:	b9 d2 00 00 00       	mov    $0xd2,%ecx
    8629:	48 89 c7             	mov    %rax,%rdi
    862c:	48 89 d6             	mov    %rdx,%rsi
    862f:	f3 48 a5             	rep movsq %ds:(%rsi),%es:(%rdi)
    8632:	c7 85 7c e4 ff ff 00 	movl   $0x0,-0x1b84(%rbp)
    8639:	00 00 00 
    863c:	48 8d 85 e4 e7 ff ff 	lea    -0x181c(%rbp),%rax
    8643:	48 83 c0 04          	add    $0x4,%rax
    8647:	48 89 85 f8 e4 ff ff 	mov    %rax,-0x1b08(%rbp)
    864e:	48 8d 85 f8 e4 ff ff 	lea    -0x1b08(%rbp),%rax
    8655:	48 89 85 00 ea ff ff 	mov    %rax,-0x1600(%rbp)
    865c:	48 8d 85 f8 e4 ff ff 	lea    -0x1b08(%rbp),%rax
    8663:	48 89 85 08 ea ff ff 	mov    %rax,-0x15f8(%rbp)
    866a:	48 8d 85 f8 e4 ff ff 	lea    -0x1b08(%rbp),%rax
    8671:	48 89 85 10 ea ff ff 	mov    %rax,-0x15f0(%rbp)
    8678:	48 8d 85 f8 e4 ff ff 	lea    -0x1b08(%rbp),%rax
    867f:	48 89 85 18 ea ff ff 	mov    %rax,-0x15e8(%rbp)
    8686:	48 8d 85 f8 e4 ff ff 	lea    -0x1b08(%rbp),%rax
    868d:	48 89 85 20 ea ff ff 	mov    %rax,-0x15e0(%rbp)
    8694:	48 8d 85 f8 e4 ff ff 	lea    -0x1b08(%rbp),%rax
    869b:	48 89 85 28 ea ff ff 	mov    %rax,-0x15d8(%rbp)
    86a2:	48 8d 85 f8 e4 ff ff 	lea    -0x1b08(%rbp),%rax
    86a9:	48 89 85 30 ea ff ff 	mov    %rax,-0x15d0(%rbp)
    86b0:	48 8d 85 f8 e4 ff ff 	lea    -0x1b08(%rbp),%rax
    86b7:	48 89 85 38 ea ff ff 	mov    %rax,-0x15c8(%rbp)
    86be:	48 8d 85 f8 e4 ff ff 	lea    -0x1b08(%rbp),%rax
    86c5:	48 89 85 40 ea ff ff 	mov    %rax,-0x15c0(%rbp)
    86cc:	48 8d 85 f8 e4 ff ff 	lea    -0x1b08(%rbp),%rax
    86d3:	48 89 85 48 ea ff ff 	mov    %rax,-0x15b8(%rbp)
    86da:	48 8d 85 f8 e4 ff ff 	lea    -0x1b08(%rbp),%rax
    86e1:	48 89 85 50 ea ff ff 	mov    %rax,-0x15b0(%rbp)
    86e8:	48 8d 85 f8 e4 ff ff 	lea    -0x1b08(%rbp),%rax
    86ef:	48 89 85 58 ea ff ff 	mov    %rax,-0x15a8(%rbp)
    86f6:	48 8d 85 f8 e4 ff ff 	lea    -0x1b08(%rbp),%rax
    86fd:	48 89 85 60 ea ff ff 	mov    %rax,-0x15a0(%rbp)
    8704:	48 8d 85 f8 e4 ff ff 	lea    -0x1b08(%rbp),%rax
    870b:	48 89 85 68 ea ff ff 	mov    %rax,-0x1598(%rbp)
    8712:	48 8d 85 f8 e4 ff ff 	lea    -0x1b08(%rbp),%rax
    8719:	48 89 85 70 ea ff ff 	mov    %rax,-0x1590(%rbp)
    8720:	48 8d 85 f8 e4 ff ff 	lea    -0x1b08(%rbp),%rax
    8727:	48 89 85 78 ea ff ff 	mov    %rax,-0x1588(%rbp)
    872e:	48 8d 85 f8 e4 ff ff 	lea    -0x1b08(%rbp),%rax
    8735:	48 89 85 80 ea ff ff 	mov    %rax,-0x1580(%rbp)
    873c:	48 8d 85 f8 e4 ff ff 	lea    -0x1b08(%rbp),%rax
    8743:	48 89 85 88 ea ff ff 	mov    %rax,-0x1578(%rbp)
    874a:	48 8d 85 f8 e4 ff ff 	lea    -0x1b08(%rbp),%rax
    8751:	48 89 85 90 ea ff ff 	mov    %rax,-0x1570(%rbp)
    8758:	48 8d 85 f8 e4 ff ff 	lea    -0x1b08(%rbp),%rax
    875f:	48 89 85 98 ea ff ff 	mov    %rax,-0x1568(%rbp)
    8766:	48 8d 85 f8 e4 ff ff 	lea    -0x1b08(%rbp),%rax
    876d:	48 89 85 a0 ea ff ff 	mov    %rax,-0x1560(%rbp)
    8774:	48 8d 85 f8 e4 ff ff 	lea    -0x1b08(%rbp),%rax
    877b:	48 89 85 a8 ea ff ff 	mov    %rax,-0x1558(%rbp)
    8782:	48 8d 85 f8 e4 ff ff 	lea    -0x1b08(%rbp),%rax
    8789:	48 89 85 b0 ea ff ff 	mov    %rax,-0x1550(%rbp)
    8790:	48 8d 85 f8 e4 ff ff 	lea    -0x1b08(%rbp),%rax
    8797:	48 89 85 b8 ea ff ff 	mov    %rax,-0x1548(%rbp)
    879e:	48 8d 85 f8 e4 ff ff 	lea    -0x1b08(%rbp),%rax
    87a5:	48 89 85 c0 ea ff ff 	mov    %rax,-0x1540(%rbp)
    87ac:	48 8d 85 f8 e4 ff ff 	lea    -0x1b08(%rbp),%rax
    87b3:	48 89 85 c8 ea ff ff 	mov    %rax,-0x1538(%rbp)
    87ba:	48 8d 85 f8 e4 ff ff 	lea    -0x1b08(%rbp),%rax
    87c1:	48 89 85 d0 ea ff ff 	mov    %rax,-0x1530(%rbp)
    87c8:	48 8d 85 f8 e4 ff ff 	lea    -0x1b08(%rbp),%rax
    87cf:	48 89 85 d8 ea ff ff 	mov    %rax,-0x1528(%rbp)
    87d6:	48 8d 85 f8 e4 ff ff 	lea    -0x1b08(%rbp),%rax
    87dd:	48 89 85 e0 ea ff ff 	mov    %rax,-0x1520(%rbp)
    87e4:	48 8d 85 f8 e4 ff ff 	lea    -0x1b08(%rbp),%rax
    87eb:	48 89 85 e8 ea ff ff 	mov    %rax,-0x1518(%rbp)
    87f2:	48 8d 85 f8 e4 ff ff 	lea    -0x1b08(%rbp),%rax
    87f9:	48 89 85 f0 ea ff ff 	mov    %rax,-0x1510(%rbp)
    8800:	48 8d 85 f8 e4 ff ff 	lea    -0x1b08(%rbp),%rax
    8807:	48 89 85 f8 ea ff ff 	mov    %rax,-0x1508(%rbp)
    880e:	48 8d 85 f8 e4 ff ff 	lea    -0x1b08(%rbp),%rax
    8815:	48 89 85 00 eb ff ff 	mov    %rax,-0x1500(%rbp)
    881c:	48 8d 85 f8 e4 ff ff 	lea    -0x1b08(%rbp),%rax
    8823:	48 89 85 08 eb ff ff 	mov    %rax,-0x14f8(%rbp)
    882a:	48 8d 85 f8 e4 ff ff 	lea    -0x1b08(%rbp),%rax
    8831:	48 89 85 10 eb ff ff 	mov    %rax,-0x14f0(%rbp)
    8838:	48 8d 85 f8 e4 ff ff 	lea    -0x1b08(%rbp),%rax
    883f:	48 89 85 18 eb ff ff 	mov    %rax,-0x14e8(%rbp)
    8846:	48 8d 85 f8 e4 ff ff 	lea    -0x1b08(%rbp),%rax
    884d:	48 89 85 20 eb ff ff 	mov    %rax,-0x14e0(%rbp)
    8854:	48 8d 85 f8 e4 ff ff 	lea    -0x1b08(%rbp),%rax
    885b:	48 89 85 28 eb ff ff 	mov    %rax,-0x14d8(%rbp)
    8862:	48 8d 85 f8 e4 ff ff 	lea    -0x1b08(%rbp),%rax
    8869:	48 89 85 30 eb ff ff 	mov    %rax,-0x14d0(%rbp)
    8870:	48 8d 85 f8 e4 ff ff 	lea    -0x1b08(%rbp),%rax
    8877:	48 89 85 38 eb ff ff 	mov    %rax,-0x14c8(%rbp)
    887e:	c7 85 78 e4 ff ff 00 	movl   $0x0,-0x1b88(%rbp)
    8885:	00 00 00 
    8888:	eb 4d                	jmp    88d7 <func_91+0x593>
    888a:	c7 85 70 e4 ff ff 00 	movl   $0x0,-0x1b90(%rbp)
    8891:	00 00 00 
    8894:	eb 31                	jmp    88c7 <func_91+0x583>
    8896:	8b 85 70 e4 ff ff    	mov    -0x1b90(%rbp),%eax
    889c:	48 63 c8             	movslq %eax,%rcx
    889f:	8b 85 78 e4 ff ff    	mov    -0x1b88(%rbp),%eax
    88a5:	48 63 d0             	movslq %eax,%rdx
    88a8:	48 89 d0             	mov    %rdx,%rax
    88ab:	48 c1 e0 03          	shl    $0x3,%rax
    88af:	48 29 d0             	sub    %rdx,%rax
    88b2:	48 01 c8             	add    %rcx,%rax
    88b5:	c7 84 85 60 e8 ff ff 	movl   $0x0,-0x17a0(%rbp,%rax,4)
    88bc:	00 00 00 00 
    88c0:	83 85 70 e4 ff ff 01 	addl   $0x1,-0x1b90(%rbp)
    88c7:	83 bd 70 e4 ff ff 06 	cmpl   $0x6,-0x1b90(%rbp)
    88ce:	7e c6                	jle    8896 <func_91+0x552>
    88d0:	83 85 78 e4 ff ff 01 	addl   $0x1,-0x1b88(%rbp)
    88d7:	83 bd 78 e4 ff ff 01 	cmpl   $0x1,-0x1b88(%rbp)
    88de:	7e aa                	jle    888a <func_91+0x546>
    88e0:	c7 85 78 e4 ff ff 00 	movl   $0x0,-0x1b88(%rbp)
    88e7:	00 00 00 
    88ea:	eb 1a                	jmp    8906 <func_91+0x5c2>
    88ec:	8b 85 78 e4 ff ff    	mov    -0x1b88(%rbp),%eax
    88f2:	48 98                	cltq   
    88f4:	c7 84 85 e4 e7 ff ff 	movl   $0x887c68fc,-0x181c(%rbp,%rax,4)
    88fb:	fc 68 7c 88 
    88ff:	83 85 78 e4 ff ff 01 	addl   $0x1,-0x1b88(%rbp)
    8906:	83 bd 78 e4 ff ff 02 	cmpl   $0x2,-0x1b88(%rbp)
    890d:	7e dd                	jle    88ec <func_91+0x5a8>
    890f:	90                   	nop
    8910:	f3 0f 1e fa          	endbr64 
    8914:	c6 05 29 a7 00 00 00 	movb   $0x0,0xa729(%rip)        # 13044 <g_112>
    891b:	e9 b0 00 00 00       	jmpq   89d0 <func_91+0x68c>
    8920:	c7 85 f0 f2 ff ff fd 	movl   $0x347192fd,-0xd10(%rbp)
    8927:	92 71 34 
    892a:	c7 85 f4 f2 ff ff ee 	movl   $0x668297ee,-0xd0c(%rbp)
    8931:	97 82 66 
    8934:	c7 85 f8 f2 ff ff ee 	movl   $0x668297ee,-0xd08(%rbp)
    893b:	97 82 66 
    893e:	c7 85 fc f2 ff ff fd 	movl   $0x347192fd,-0xd04(%rbp)
    8945:	92 71 34 
    8948:	c7 85 00 f3 ff ff ee 	movl   $0x668297ee,-0xd00(%rbp)
    894f:	97 82 66 
    8952:	c7 85 04 f3 ff ff ee 	movl   $0x668297ee,-0xcfc(%rbp)
    8959:	97 82 66 
    895c:	c7 85 08 f3 ff ff fd 	movl   $0x347192fd,-0xcf8(%rbp)
    8963:	92 71 34 
    8966:	c6 05 43 a7 00 00 00 	movb   $0x0,0xa743(%rip)        # 130b0 <g_181>
    896d:	eb 46                	jmp    89b5 <func_91+0x671>
    896f:	48 8b 85 e8 e3 ff ff 	mov    -0x1c18(%rbp),%rax
    8976:	0f b6 00             	movzbl (%rax),%eax
    8979:	0f b6 c0             	movzbl %al,%eax
    897c:	89 c6                	mov    %eax,%esi
    897e:	bf ab 00 00 00       	mov    $0xab,%edi
    8983:	e8 d2 c1 ff ff       	callq  4b5a <safe_add_func_uint8_t_u_u>
    8988:	8b 95 f8 f2 ff ff    	mov    -0xd08(%rbp),%edx
    898e:	0f b6 c0             	movzbl %al,%eax
    8991:	31 d0                	xor    %edx,%eax
    8993:	89 85 f8 f2 ff ff    	mov    %eax,-0xd08(%rbp)
    8999:	0f b6 05 10 a7 00 00 	movzbl 0xa710(%rip),%eax        # 130b0 <g_181>
    89a0:	0f be c0             	movsbl %al,%eax
    89a3:	be 06 00 00 00       	mov    $0x6,%esi
    89a8:	89 c7                	mov    %eax,%edi
    89aa:	e8 09 c5 ff ff       	callq  4eb8 <safe_add_func_uint32_t_u_u>
    89af:	88 05 fb a6 00 00    	mov    %al,0xa6fb(%rip)        # 130b0 <g_181>
    89b5:	0f b6 05 f4 a6 00 00 	movzbl 0xa6f4(%rip),%eax        # 130b0 <g_181>
    89bc:	3c 19                	cmp    $0x19,%al
    89be:	7f af                	jg     896f <func_91+0x62b>
    89c0:	0f b6 05 7d a6 00 00 	movzbl 0xa67d(%rip),%eax        # 13044 <g_112>
    89c7:	83 c0 01             	add    $0x1,%eax
    89ca:	88 05 74 a6 00 00    	mov    %al,0xa674(%rip)        # 13044 <g_112>
    89d0:	0f b6 05 6d a6 00 00 	movzbl 0xa66d(%rip),%eax        # 13044 <g_112>
    89d7:	3c 12                	cmp    $0x12,%al
    89d9:	0f 85 41 ff ff ff    	jne    8920 <func_91+0x5dc>
    89df:	90                   	nop
    89e0:	0f b6 45 c2          	movzbl -0x3e(%rbp),%eax
    89e4:	0f b6 c0             	movzbl %al,%eax
    89e7:	89 c6                	mov    %eax,%esi
    89e9:	bf 00 00 00 00       	mov    $0x0,%edi
    89ee:	e8 a0 c1 ff ff       	callq  4b93 <safe_mul_func_uint8_t_u_u>
    89f3:	89 c2                	mov    %eax,%edx
    89f5:	48 8b 05 34 b1 00 00 	mov    0xb134(%rip),%rax        # 13b30 <g_119>
    89fc:	8b 08                	mov    (%rax),%ecx
    89fe:	0f b6 d2             	movzbl %dl,%edx
    8a01:	21 ca                	and    %ecx,%edx
    8a03:	89 10                	mov    %edx,(%rax)
    8a05:	c7 05 45 a6 00 00 f2 	movl   $0xfffffff2,0xa645(%rip)        # 13054 <g_120>
    8a0c:	ff ff ff 
    8a0f:	e9 a3 00 00 00       	jmpq   8ab7 <func_91+0x773>
    8a14:	48 8d 05 9d a6 00 00 	lea    0xa69d(%rip),%rax        # 130b8 <g_206>
    8a1b:	48 89 85 b0 e7 ff ff 	mov    %rax,-0x1850(%rbp)
    8a22:	48 8d 05 8f a6 00 00 	lea    0xa68f(%rip),%rax        # 130b8 <g_206>
    8a29:	48 89 85 b8 e7 ff ff 	mov    %rax,-0x1848(%rbp)
    8a30:	48 8d 05 81 a6 00 00 	lea    0xa681(%rip),%rax        # 130b8 <g_206>
    8a37:	48 89 85 c0 e7 ff ff 	mov    %rax,-0x1840(%rbp)
    8a3e:	48 8d 05 73 a6 00 00 	lea    0xa673(%rip),%rax        # 130b8 <g_206>
    8a45:	48 89 85 c8 e7 ff ff 	mov    %rax,-0x1838(%rbp)
    8a4c:	48 8d 05 65 a6 00 00 	lea    0xa665(%rip),%rax        # 130b8 <g_206>
    8a53:	48 89 85 d0 e7 ff ff 	mov    %rax,-0x1830(%rbp)
    8a5a:	48 8d 05 57 a6 00 00 	lea    0xa657(%rip),%rax        # 130b8 <g_206>
    8a61:	48 89 85 d8 e7 ff ff 	mov    %rax,-0x1828(%rbp)
    8a68:	48 8d 85 f0 f2 ff ff 	lea    -0xd10(%rbp),%rax
    8a6f:	48 8d 15 4a a8 00 00 	lea    0xa84a(%rip),%rdx        # 132c0 <g_1887+0x20>
    8a76:	b9 80 00 00 00       	mov    $0x80,%ecx
    8a7b:	48 89 c7             	mov    %rax,%rdi
    8a7e:	48 89 d6             	mov    %rdx,%rsi
    8a81:	f3 48 a5             	rep movsq %ds:(%rsi),%es:(%rdi)
    8a84:	48 8b 05 35 a6 00 00 	mov    0xa635(%rip),%rax        # 130c0 <g_215>
    8a8b:	48 83 c0 01          	add    $0x1,%rax
    8a8f:	48 89 05 2a a6 00 00 	mov    %rax,0xa62a(%rip)        # 130c0 <g_215>
    8a96:	48 8b 85 d8 e4 ff ff 	mov    -0x1b28(%rbp),%rax
    8a9d:	48 83 c0 01          	add    $0x1,%rax
    8aa1:	48 89 85 d8 e4 ff ff 	mov    %rax,-0x1b28(%rbp)
    8aa8:	8b 05 a6 a5 00 00    	mov    0xa5a6(%rip),%eax        # 13054 <g_120>
    8aae:	83 c0 01             	add    $0x1,%eax
    8ab1:	89 05 9d a5 00 00    	mov    %eax,0xa59d(%rip)        # 13054 <g_120>
    8ab7:	8b 05 97 a5 00 00    	mov    0xa597(%rip),%eax        # 13054 <g_120>
    8abd:	83 f8 16             	cmp    $0x16,%eax
    8ac0:	0f 84 4e ff ff ff    	je     8a14 <func_91+0x6d0>
    8ac6:	c6 05 77 a5 00 00 00 	movb   $0x0,0xa577(%rip)        # 13044 <g_112>
    8acd:	e9 2d 55 00 00       	jmpq   dfff <func_91+0x5cbb>
    8ad2:	48 8d 85 d8 e4 ff ff 	lea    -0x1b28(%rbp),%rax
    8ad9:	48 89 85 78 e5 ff ff 	mov    %rax,-0x1a88(%rbp)
    8ae0:	c7 85 38 e4 ff ff 05 	movl   $0xc8c73f05,-0x1bc8(%rbp)
    8ae7:	3f c7 c8 
    8aea:	48 8d 05 37 b0 00 00 	lea    0xb037(%rip),%rax        # 13b28 <g_116+0x48>
    8af1:	48 89 85 00 e5 ff ff 	mov    %rax,-0x1b00(%rbp)
    8af8:	48 8d 05 c1 a5 00 00 	lea    0xa5c1(%rip),%rax        # 130c0 <g_215>
    8aff:	48 89 85 80 e5 ff ff 	mov    %rax,-0x1a80(%rbp)
    8b06:	c7 85 3c e4 ff ff 00 	movl   $0x0,-0x1bc4(%rbp)
    8b0d:	00 00 00 
    8b10:	48 8d 85 2c e4 ff ff 	lea    -0x1bd4(%rbp),%rax
    8b17:	48 89 85 08 e5 ff ff 	mov    %rax,-0x1af8(%rbp)
    8b1e:	48 b8 dd c6 ba 05 2a 	movabs $0x231dac2a05bac6dd,%rax
    8b25:	ac 1d 23 
    8b28:	48 89 85 10 e5 ff ff 	mov    %rax,-0x1af0(%rbp)
    8b2f:	48 c7 85 88 e5 ff ff 	movq   $0x0,-0x1a78(%rbp)
    8b36:	00 00 00 00 
    8b3a:	c7 85 00 e8 ff ff ff 	movl   $0xffffffff,-0x1800(%rbp)
    8b41:	ff ff ff 
    8b44:	c7 85 04 e8 ff ff fa 	movl   $0xfffffffa,-0x17fc(%rbp)
    8b4b:	ff ff ff 
    8b4e:	c7 85 08 e8 ff ff fa 	movl   $0xfffffffa,-0x17f8(%rbp)
    8b55:	ff ff ff 
    8b58:	c7 85 0c e8 ff ff ff 	movl   $0xffffffff,-0x17f4(%rbp)
    8b5f:	ff ff ff 
    8b62:	c7 85 10 e8 ff ff fa 	movl   $0xfffffffa,-0x17f0(%rbp)
    8b69:	ff ff ff 
    8b6c:	c7 85 14 e8 ff ff fa 	movl   $0xfffffffa,-0x17ec(%rbp)
    8b73:	ff ff ff 
    8b76:	48 c7 85 18 e5 ff ff 	movq   $0x0,-0x1ae8(%rbp)
    8b7d:	00 00 00 00 
    8b81:	48 8d 85 18 e5 ff ff 	lea    -0x1ae8(%rbp),%rax
    8b88:	48 89 85 20 e5 ff ff 	mov    %rax,-0x1ae0(%rbp)
    8b8f:	48 8d 05 22 65 00 00 	lea    0x6522(%rip),%rax        # f0b8 <g_487>
    8b96:	48 89 85 90 e5 ff ff 	mov    %rax,-0x1a70(%rbp)
    8b9d:	48 8d 05 b4 a4 00 00 	lea    0xa4b4(%rip),%rax        # 13058 <g_149>
    8ba4:	48 89 85 28 e5 ff ff 	mov    %rax,-0x1ad8(%rbp)
    8bab:	48 8d 85 28 e5 ff ff 	lea    -0x1ad8(%rbp),%rax
    8bb2:	48 89 85 98 e5 ff ff 	mov    %rax,-0x1a68(%rbp)
    8bb9:	48 8d 05 20 b3 00 00 	lea    0xb320(%rip),%rax        # 13ee0 <g_524+0x280>
    8bc0:	48 89 85 a0 e5 ff ff 	mov    %rax,-0x1a60(%rbp)
    8bc7:	c7 85 40 e4 ff ff 05 	movl   $0x5,-0x1bc0(%rbp)
    8bce:	00 00 00 
    8bd1:	48 c7 85 30 e5 ff ff 	movq   $0x0,-0x1ad0(%rbp)
    8bd8:	00 00 00 00 
    8bdc:	c6 85 1d e4 ff ff d4 	movb   $0xd4,-0x1be3(%rbp)
    8be3:	48 c7 85 38 e5 ff ff 	movq   $0x0,-0x1ac8(%rbp)
    8bea:	00 00 00 00 
    8bee:	48 8d 85 38 e5 ff ff 	lea    -0x1ac8(%rbp),%rax
    8bf5:	48 89 85 a8 e5 ff ff 	mov    %rax,-0x1a58(%rbp)
    8bfc:	66 c7 85 22 e4 ff ff 	movw   $0xfff9,-0x1bde(%rbp)
    8c03:	f9 ff 
    8c05:	c7 85 74 e4 ff ff 00 	movl   $0x0,-0x1b8c(%rbp)
    8c0c:	00 00 00 
    8c0f:	eb 1e                	jmp    8c2f <func_91+0x8eb>
    8c11:	8b 85 74 e4 ff ff    	mov    -0x1b8c(%rbp),%eax
    8c17:	48 98                	cltq   
    8c19:	48 8d 95 2c e4 ff ff 	lea    -0x1bd4(%rbp),%rdx
    8c20:	48 89 94 c5 f0 e7 ff 	mov    %rdx,-0x1810(%rbp,%rax,8)
    8c27:	ff 
    8c28:	83 85 74 e4 ff ff 01 	addl   $0x1,-0x1b8c(%rbp)
    8c2f:	83 bd 74 e4 ff ff 01 	cmpl   $0x1,-0x1b8c(%rbp)
    8c36:	7e d9                	jle    8c11 <func_91+0x8cd>
    8c38:	0f b6 55 c2          	movzbl -0x3e(%rbp),%edx
    8c3c:	48 8b 05 ed af 00 00 	mov    0xafed(%rip),%rax        # 13c30 <g_224>
    8c43:	0f b6 d2             	movzbl %dl,%edx
    8c46:	89 10                	mov    %edx,(%rax)
    8c48:	8b 85 a8 e9 ff ff    	mov    -0x1658(%rbp),%eax
    8c4e:	48 63 d8             	movslq %eax,%rbx
    8c51:	48 8b 85 08 e4 ff ff 	mov    -0x1bf8(%rbp),%rax
    8c58:	48 89 c6             	mov    %rax,%rsi
    8c5b:	48 bf 9e 4f 11 a6 87 	movabs $0xf96e7687a6114f9e,%rdi
    8c62:	76 6e f9 
    8c65:	e8 e1 c3 ff ff       	callq  504b <safe_sub_func_uint64_t_u_u>
    8c6a:	48 39 c3             	cmp    %rax,%rbx
    8c6d:	0f 93 c0             	setae  %al
    8c70:	0f b6 c0             	movzbl %al,%eax
    8c73:	48 be bd b2 11 0f e9 	movabs $0x4f1e68e90f11b2bd,%rsi
    8c7a:	68 1e 4f 
    8c7d:	48 89 c7             	mov    %rax,%rdi
    8c80:	e8 a9 c3 ff ff       	callq  502e <safe_add_func_uint64_t_u_u>
    8c85:	48 83 bd 78 e5 ff ff 	cmpq   $0x0,-0x1a88(%rbp)
    8c8c:	00 
    8c8d:	0f 95 c2             	setne  %dl
    8c90:	0f b6 d2             	movzbl %dl,%edx
    8c93:	48 39 d0             	cmp    %rdx,%rax
    8c96:	0f 82 29 3c 00 00    	jb     c8c5 <func_91+0x4581>
    8c9c:	48 8d 05 c5 a3 00 00 	lea    0xa3c5(%rip),%rax        # 13068 <g_158>
    8ca3:	48 89 85 40 e5 ff ff 	mov    %rax,-0x1ac0(%rbp)
    8caa:	48 8d 05 a7 a3 00 00 	lea    0xa3a7(%rip),%rax        # 13058 <g_149>
    8cb1:	48 89 85 c8 e5 ff ff 	mov    %rax,-0x1a38(%rbp)
    8cb8:	c7 85 44 e4 ff ff e8 	movl   $0x8a12a9e8,-0x1bbc(%rbp)
    8cbf:	a9 12 8a 
    8cc2:	48 8d 05 d9 bb 00 00 	lea    0xbbd9(%rip),%rax        # 148a2 <g_109>
    8cc9:	48 89 85 d0 e5 ff ff 	mov    %rax,-0x1a30(%rbp)
    8cd0:	48 8d 05 f1 a3 00 00 	lea    0xa3f1(%rip),%rax        # 130c8 <g_266>
    8cd7:	48 89 85 d8 e5 ff ff 	mov    %rax,-0x1a28(%rbp)
    8cde:	48 8d 05 63 a3 00 00 	lea    0xa363(%rip),%rax        # 13048 <g_115>
    8ce5:	48 89 85 e0 e5 ff ff 	mov    %rax,-0x1a20(%rbp)
    8cec:	48 c7 85 e8 e5 ff ff 	movq   $0x0,-0x1a18(%rbp)
    8cf3:	00 00 00 00 
    8cf7:	48 8d 05 d2 a3 00 00 	lea    0xa3d2(%rip),%rax        # 130d0 <g_271>
    8cfe:	48 89 85 f0 e5 ff ff 	mov    %rax,-0x1a10(%rbp)
    8d05:	48 c7 85 f8 e5 ff ff 	movq   $0x0,-0x1a08(%rbp)
    8d0c:	00 00 00 00 
    8d10:	48 c7 85 40 eb ff ff 	movq   $0x0,-0x14c0(%rbp)
    8d17:	00 00 00 00 
    8d1b:	48 8d 85 40 e5 ff ff 	lea    -0x1ac0(%rbp),%rax
    8d22:	48 89 85 48 eb ff ff 	mov    %rax,-0x14b8(%rbp)
    8d29:	48 c7 85 50 eb ff ff 	movq   $0x0,-0x14b0(%rbp)
    8d30:	00 00 00 00 
    8d34:	48 8d 85 40 e5 ff ff 	lea    -0x1ac0(%rbp),%rax
    8d3b:	48 89 85 58 eb ff ff 	mov    %rax,-0x14a8(%rbp)
    8d42:	48 c7 85 60 eb ff ff 	movq   $0x0,-0x14a0(%rbp)
    8d49:	00 00 00 00 
    8d4d:	48 8d 85 40 e5 ff ff 	lea    -0x1ac0(%rbp),%rax
    8d54:	48 89 85 68 eb ff ff 	mov    %rax,-0x1498(%rbp)
    8d5b:	48 c7 85 70 eb ff ff 	movq   $0x0,-0x1490(%rbp)
    8d62:	00 00 00 00 
    8d66:	48 8d 85 40 e5 ff ff 	lea    -0x1ac0(%rbp),%rax
    8d6d:	48 89 85 78 eb ff ff 	mov    %rax,-0x1488(%rbp)
    8d74:	48 8d 85 40 e5 ff ff 	lea    -0x1ac0(%rbp),%rax
    8d7b:	48 89 85 80 eb ff ff 	mov    %rax,-0x1480(%rbp)
    8d82:	48 8d 85 40 e5 ff ff 	lea    -0x1ac0(%rbp),%rax
    8d89:	48 89 85 88 eb ff ff 	mov    %rax,-0x1478(%rbp)
    8d90:	48 8d 85 40 e5 ff ff 	lea    -0x1ac0(%rbp),%rax
    8d97:	48 89 85 90 eb ff ff 	mov    %rax,-0x1470(%rbp)
    8d9e:	48 8d 85 40 e5 ff ff 	lea    -0x1ac0(%rbp),%rax
    8da5:	48 89 85 98 eb ff ff 	mov    %rax,-0x1468(%rbp)
    8dac:	48 c7 85 a0 eb ff ff 	movq   $0x0,-0x1460(%rbp)
    8db3:	00 00 00 00 
    8db7:	48 c7 85 a8 eb ff ff 	movq   $0x0,-0x1458(%rbp)
    8dbe:	00 00 00 00 
    8dc2:	48 8d 85 40 e5 ff ff 	lea    -0x1ac0(%rbp),%rax
    8dc9:	48 89 85 b0 eb ff ff 	mov    %rax,-0x1450(%rbp)
    8dd0:	48 8d 85 40 e5 ff ff 	lea    -0x1ac0(%rbp),%rax
    8dd7:	48 89 85 b8 eb ff ff 	mov    %rax,-0x1448(%rbp)
    8dde:	48 8d 85 40 e5 ff ff 	lea    -0x1ac0(%rbp),%rax
    8de5:	48 89 85 c0 eb ff ff 	mov    %rax,-0x1440(%rbp)
    8dec:	48 8d 85 40 e5 ff ff 	lea    -0x1ac0(%rbp),%rax
    8df3:	48 89 85 c8 eb ff ff 	mov    %rax,-0x1438(%rbp)
    8dfa:	48 8d 85 40 e5 ff ff 	lea    -0x1ac0(%rbp),%rax
    8e01:	48 89 85 d0 eb ff ff 	mov    %rax,-0x1430(%rbp)
    8e08:	48 8d 85 40 e5 ff ff 	lea    -0x1ac0(%rbp),%rax
    8e0f:	48 89 85 d8 eb ff ff 	mov    %rax,-0x1428(%rbp)
    8e16:	48 8d 85 40 e5 ff ff 	lea    -0x1ac0(%rbp),%rax
    8e1d:	48 89 85 e0 eb ff ff 	mov    %rax,-0x1420(%rbp)
    8e24:	48 8d 85 40 e5 ff ff 	lea    -0x1ac0(%rbp),%rax
    8e2b:	48 89 85 e8 eb ff ff 	mov    %rax,-0x1418(%rbp)
    8e32:	48 8d 85 40 e5 ff ff 	lea    -0x1ac0(%rbp),%rax
    8e39:	48 89 85 f0 eb ff ff 	mov    %rax,-0x1410(%rbp)
    8e40:	48 8d 85 40 e5 ff ff 	lea    -0x1ac0(%rbp),%rax
    8e47:	48 89 85 f8 eb ff ff 	mov    %rax,-0x1408(%rbp)
    8e4e:	48 8d 85 40 e5 ff ff 	lea    -0x1ac0(%rbp),%rax
    8e55:	48 89 85 00 ec ff ff 	mov    %rax,-0x1400(%rbp)
    8e5c:	48 8d 85 40 e5 ff ff 	lea    -0x1ac0(%rbp),%rax
    8e63:	48 89 85 08 ec ff ff 	mov    %rax,-0x13f8(%rbp)
    8e6a:	48 8d 85 40 e5 ff ff 	lea    -0x1ac0(%rbp),%rax
    8e71:	48 89 85 10 ec ff ff 	mov    %rax,-0x13f0(%rbp)
    8e78:	48 c7 85 18 ec ff ff 	movq   $0x0,-0x13e8(%rbp)
    8e7f:	00 00 00 00 
    8e83:	48 c7 85 20 ec ff ff 	movq   $0x0,-0x13e0(%rbp)
    8e8a:	00 00 00 00 
    8e8e:	48 8d 85 40 e5 ff ff 	lea    -0x1ac0(%rbp),%rax
    8e95:	48 89 85 28 ec ff ff 	mov    %rax,-0x13d8(%rbp)
    8e9c:	48 c7 85 30 ec ff ff 	movq   $0x0,-0x13d0(%rbp)
    8ea3:	00 00 00 00 
    8ea7:	48 8d 85 40 e5 ff ff 	lea    -0x1ac0(%rbp),%rax
    8eae:	48 89 85 38 ec ff ff 	mov    %rax,-0x13c8(%rbp)
    8eb5:	48 c7 85 40 ec ff ff 	movq   $0x0,-0x13c0(%rbp)
    8ebc:	00 00 00 00 
    8ec0:	48 8d 85 40 e5 ff ff 	lea    -0x1ac0(%rbp),%rax
    8ec7:	48 89 85 48 ec ff ff 	mov    %rax,-0x13b8(%rbp)
    8ece:	48 c7 85 50 ec ff ff 	movq   $0x0,-0x13b0(%rbp)
    8ed5:	00 00 00 00 
    8ed9:	48 8d 85 40 e5 ff ff 	lea    -0x1ac0(%rbp),%rax
    8ee0:	48 89 85 58 ec ff ff 	mov    %rax,-0x13a8(%rbp)
    8ee7:	48 8d 85 40 e5 ff ff 	lea    -0x1ac0(%rbp),%rax
    8eee:	48 89 85 60 ec ff ff 	mov    %rax,-0x13a0(%rbp)
    8ef5:	48 c7 85 68 ec ff ff 	movq   $0x0,-0x1398(%rbp)
    8efc:	00 00 00 00 
    8f00:	48 8d 85 40 e5 ff ff 	lea    -0x1ac0(%rbp),%rax
    8f07:	48 89 85 70 ec ff ff 	mov    %rax,-0x1390(%rbp)
    8f0e:	48 8d 85 40 e5 ff ff 	lea    -0x1ac0(%rbp),%rax
    8f15:	48 89 85 78 ec ff ff 	mov    %rax,-0x1388(%rbp)
    8f1c:	48 c7 85 80 ec ff ff 	movq   $0x0,-0x1380(%rbp)
    8f23:	00 00 00 00 
    8f27:	48 8d 85 40 e5 ff ff 	lea    -0x1ac0(%rbp),%rax
    8f2e:	48 89 85 88 ec ff ff 	mov    %rax,-0x1378(%rbp)
    8f35:	48 8d 85 40 e5 ff ff 	lea    -0x1ac0(%rbp),%rax
    8f3c:	48 89 85 90 ec ff ff 	mov    %rax,-0x1370(%rbp)
    8f43:	48 8d 85 40 e5 ff ff 	lea    -0x1ac0(%rbp),%rax
    8f4a:	48 89 85 98 ec ff ff 	mov    %rax,-0x1368(%rbp)
    8f51:	48 8d 85 40 e5 ff ff 	lea    -0x1ac0(%rbp),%rax
    8f58:	48 89 85 a0 ec ff ff 	mov    %rax,-0x1360(%rbp)
    8f5f:	48 8d 85 40 e5 ff ff 	lea    -0x1ac0(%rbp),%rax
    8f66:	48 89 85 a8 ec ff ff 	mov    %rax,-0x1358(%rbp)
    8f6d:	48 8d 85 40 e5 ff ff 	lea    -0x1ac0(%rbp),%rax
    8f74:	48 89 85 b0 ec ff ff 	mov    %rax,-0x1350(%rbp)
    8f7b:	48 8d 85 40 e5 ff ff 	lea    -0x1ac0(%rbp),%rax
    8f82:	48 89 85 b8 ec ff ff 	mov    %rax,-0x1348(%rbp)
    8f89:	48 8d 85 40 e5 ff ff 	lea    -0x1ac0(%rbp),%rax
    8f90:	48 89 85 c0 ec ff ff 	mov    %rax,-0x1340(%rbp)
    8f97:	48 8d 85 40 e5 ff ff 	lea    -0x1ac0(%rbp),%rax
    8f9e:	48 89 85 c8 ec ff ff 	mov    %rax,-0x1338(%rbp)
    8fa5:	48 8d 85 40 e5 ff ff 	lea    -0x1ac0(%rbp),%rax
    8fac:	48 89 85 d0 ec ff ff 	mov    %rax,-0x1330(%rbp)
    8fb3:	48 c7 85 d8 ec ff ff 	movq   $0x0,-0x1328(%rbp)
    8fba:	00 00 00 00 
    8fbe:	48 8d 85 40 e5 ff ff 	lea    -0x1ac0(%rbp),%rax
    8fc5:	48 89 85 e0 ec ff ff 	mov    %rax,-0x1320(%rbp)
    8fcc:	48 8d 85 40 e5 ff ff 	lea    -0x1ac0(%rbp),%rax
    8fd3:	48 89 85 e8 ec ff ff 	mov    %rax,-0x1318(%rbp)
    8fda:	48 8d 85 40 e5 ff ff 	lea    -0x1ac0(%rbp),%rax
    8fe1:	48 89 85 f0 ec ff ff 	mov    %rax,-0x1310(%rbp)
    8fe8:	48 8d 85 40 e5 ff ff 	lea    -0x1ac0(%rbp),%rax
    8fef:	48 89 85 f8 ec ff ff 	mov    %rax,-0x1308(%rbp)
    8ff6:	48 8d 85 40 eb ff ff 	lea    -0x14c0(%rbp),%rax
    8ffd:	48 05 a0 01 00 00    	add    $0x1a0,%rax
    9003:	48 89 85 00 e6 ff ff 	mov    %rax,-0x1a00(%rbp)
    900a:	c7 85 80 e4 ff ff f9 	movl   $0xecd58cf9,-0x1b80(%rbp)
    9011:	8c d5 ec 
    9014:	48 c7 85 08 e6 ff ff 	movq   $0x0,-0x19f8(%rbp)
    901b:	00 00 00 00 
    901f:	c6 85 1e e4 ff ff 01 	movb   $0x1,-0x1be2(%rbp)
    9026:	48 8d 85 00 e8 ff ff 	lea    -0x1800(%rbp),%rax
    902d:	48 83 c0 10          	add    $0x10,%rax
    9031:	48 89 85 48 e5 ff ff 	mov    %rax,-0x1ab8(%rbp)
    9038:	48 b8 64 ac 8d 63 1a 	movabs $0x3e6fda1a638dac64,%rax
    903f:	da 6f 3e 
    9042:	48 89 85 10 e6 ff ff 	mov    %rax,-0x19f0(%rbp)
    9049:	c7 85 6c e4 ff ff 00 	movl   $0x0,-0x1b94(%rbp)
    9050:	00 00 00 
    9053:	eb 1a                	jmp    906f <func_91+0xd2b>
    9055:	8b 85 6c e4 ff ff    	mov    -0x1b94(%rbp),%eax
    905b:	48 98                	cltq   
    905d:	c7 84 85 40 e8 ff ff 	movl   $0xffffffff,-0x17c0(%rbp,%rax,4)
    9064:	ff ff ff ff 
    9068:	83 85 6c e4 ff ff 01 	addl   $0x1,-0x1b94(%rbp)
    906f:	83 bd 6c e4 ff ff 06 	cmpl   $0x6,-0x1b94(%rbp)
    9076:	7e dd                	jle    9055 <func_91+0xd11>
    9078:	66 c7 85 04 e4 ff ff 	movw   $0x0,-0x1bfc(%rbp)
    907f:	00 00 
    9081:	eb 55                	jmp    90d8 <func_91+0xd94>
    9083:	48 8b 05 ae ab 00 00 	mov    0xabae(%rip),%rax        # 13c38 <g_230>
    908a:	48 8d 15 27 a0 00 00 	lea    0xa027(%rip),%rdx        # 130b8 <g_206>
    9091:	48 89 10             	mov    %rdx,(%rax)
    9094:	48 8b 85 d8 e4 ff ff 	mov    -0x1b28(%rbp),%rax
    909b:	48 85 c0             	test   %rax,%rax
    909e:	74 05                	je     90a5 <func_91+0xd61>
    90a0:	e9 60 f9 ff ff       	jmpq   8a05 <func_91+0x6c1>
    90a5:	0f b7 85 04 e4 ff ff 	movzwl -0x1bfc(%rbp),%eax
    90ac:	0f b7 c0             	movzwl %ax,%eax
    90af:	48 98                	cltq   
    90b1:	48 8d 14 c5 00 00 00 	lea    0x0(,%rax,8),%rdx
    90b8:	00 
    90b9:	48 8d 05 c0 9f 00 00 	lea    0x9fc0(%rip),%rax        # 13080 <g_180>
    90c0:	48 8b 04 02          	mov    (%rdx,%rax,1),%rax
    90c4:	48 85 c0             	test   %rax,%rax
    90c7:	0f b7 85 04 e4 ff ff 	movzwl -0x1bfc(%rbp),%eax
    90ce:	83 c0 01             	add    $0x1,%eax
    90d1:	66 89 85 04 e4 ff ff 	mov    %ax,-0x1bfc(%rbp)
    90d8:	0f b7 85 04 e4 ff ff 	movzwl -0x1bfc(%rbp),%eax
    90df:	66 83 f8 05          	cmp    $0x5,%ax
    90e3:	76 9e                	jbe    9083 <func_91+0xd3f>
    90e5:	8b 05 69 9f 00 00    	mov    0x9f69(%rip),%eax        # 13054 <g_120>
    90eb:	48 63 d8             	movslq %eax,%rbx
    90ee:	0f b6 45 c2          	movzbl -0x3e(%rbp),%eax
    90f2:	44 0f b6 e0          	movzbl %al,%r12d
    90f6:	8b 85 2c e4 ff ff    	mov    -0x1bd4(%rbp),%eax
    90fc:	44 0f b6 e8          	movzbl %al,%r13d
    9100:	8b 85 a8 e9 ff ff    	mov    -0x1658(%rbp),%eax
    9106:	88 85 e4 e3 ff ff    	mov    %al,-0x1c1c(%rbp)
    910c:	8b 85 38 e4 ff ff    	mov    -0x1bc8(%rbp),%eax
    9112:	89 85 38 e4 ff ff    	mov    %eax,-0x1bc8(%rbp)
    9118:	8b 95 38 e4 ff ff    	mov    -0x1bc8(%rbp),%edx
    911e:	48 8b 85 00 e5 ff ff 	mov    -0x1b00(%rbp),%rax
    9125:	48 85 c0             	test   %rax,%rax
    9128:	0f 94 c0             	sete   %al
    912b:	0f b6 c0             	movzbl %al,%eax
    912e:	66 89 05 6b b7 00 00 	mov    %ax,0xb76b(%rip)        # 148a0 <g_106>
    9135:	0f b7 05 64 b7 00 00 	movzwl 0xb764(%rip),%eax        # 148a0 <g_106>
    913c:	0f b7 c0             	movzwl %ax,%eax
    913f:	39 c2                	cmp    %eax,%edx
    9141:	0f 94 85 e3 e3 ff ff 	sete   -0x1c1d(%rbp)
    9148:	48 8b 85 08 e4 ff ff 	mov    -0x1bf8(%rbp),%rax
    914f:	41 89 c6             	mov    %eax,%r14d
    9152:	8b 85 44 e4 ff ff    	mov    -0x1bbc(%rbp),%eax
    9158:	41 89 c7             	mov    %eax,%r15d
    915b:	48 8b 85 40 e5 ff ff 	mov    -0x1ac0(%rbp),%rax
    9162:	48 8b 08             	mov    (%rax),%rcx
    9165:	8b 05 4d 9f 00 00    	mov    0x9f4d(%rip),%eax        # 130b8 <g_206>
    916b:	48 63 d0             	movslq %eax,%rdx
    916e:	48 8b 85 40 e5 ff ff 	mov    -0x1ac0(%rbp),%rax
    9175:	48 31 ca             	xor    %rcx,%rdx
    9178:	48 89 10             	mov    %rdx,(%rax)
    917b:	48 8b 00             	mov    (%rax),%rax
    917e:	48 85 c0             	test   %rax,%rax
    9181:	74 07                	je     918a <func_91+0xe46>
    9183:	ba 01 00 00 00       	mov    $0x1,%edx
    9188:	eb 05                	jmp    918f <func_91+0xe4b>
    918a:	ba 00 00 00 00       	mov    $0x0,%edx
    918f:	48 8b 05 92 9e 00 00 	mov    0x9e92(%rip),%rax        # 13028 <g_30>
    9196:	89 c1                	mov    %eax,%ecx
    9198:	48 8b 85 c8 e5 ff ff 	mov    -0x1a38(%rbp),%rax
    919f:	66 89 08             	mov    %cx,(%rax)
    91a2:	48 8b 85 c8 e5 ff ff 	mov    -0x1a38(%rbp),%rax
    91a9:	0f b7 00             	movzwl (%rax),%eax
    91ac:	0f b7 c0             	movzwl %ax,%eax
    91af:	39 c2                	cmp    %eax,%edx
    91b1:	0f 9e c0             	setle  %al
    91b4:	0f b6 c0             	movzbl %al,%eax
    91b7:	be 06 00 00 00       	mov    $0x6,%esi
    91bc:	89 c7                	mov    %eax,%edi
    91be:	e8 a0 b3 ff ff       	callq  4563 <safe_rshift_func_int16_t_s_u>
    91c3:	44 89 fe             	mov    %r15d,%esi
    91c6:	bf 00 00 00 00       	mov    $0x0,%edi
    91cb:	e8 e8 bc ff ff       	callq  4eb8 <safe_add_func_uint32_t_u_u>
    91d0:	89 c2                	mov    %eax,%edx
    91d2:	8b 85 2c e4 ff ff    	mov    -0x1bd4(%rbp),%eax
    91d8:	21 d0                	and    %edx,%eax
    91da:	0f b7 c0             	movzwl %ax,%eax
    91dd:	44 89 f6             	mov    %r14d,%esi
    91e0:	89 c7                	mov    %eax,%edi
    91e2:	e8 1f bc ff ff       	callq  4e06 <safe_lshift_func_uint16_t_u_u>
    91e7:	0f b7 c0             	movzwl %ax,%eax
    91ea:	be 0b 00 00 00       	mov    $0xb,%esi
    91ef:	89 c7                	mov    %eax,%edi
    91f1:	e8 84 bc ff ff       	callq  4e7a <safe_rshift_func_uint16_t_u_u>
    91f6:	0f b7 d0             	movzwl %ax,%edx
    91f9:	48 8b 85 f8 e3 ff ff 	mov    -0x1c08(%rbp),%rax
    9200:	48 09 d0             	or     %rdx,%rax
    9203:	48 85 c0             	test   %rax,%rax
    9206:	74 11                	je     9219 <func_91+0xed5>
    9208:	8b 85 3c e4 ff ff    	mov    -0x1bc4(%rbp),%eax
    920e:	85 c0                	test   %eax,%eax
    9210:	74 07                	je     9219 <func_91+0xed5>
    9212:	b8 01 00 00 00       	mov    $0x1,%eax
    9217:	eb 05                	jmp    921e <func_91+0xeda>
    9219:	b8 00 00 00 00       	mov    $0x0,%eax
    921e:	89 c2                	mov    %eax,%edx
    9220:	8b 05 8e 9e 00 00    	mov    0x9e8e(%rip),%eax        # 130b4 <g_190>
    9226:	39 c2                	cmp    %eax,%edx
    9228:	0f 95 c0             	setne  %al
    922b:	32 85 e3 e3 ff ff    	xor    -0x1c1d(%rbp),%al
    9231:	22 85 e4 e3 ff ff    	and    -0x1c1c(%rbp),%al
    9237:	83 f0 5d             	xor    $0x5d,%eax
    923a:	89 c2                	mov    %eax,%edx
    923c:	8b 85 3c e4 ff ff    	mov    -0x1bc4(%rbp),%eax
    9242:	09 d0                	or     %edx,%eax
    9244:	0f b6 c0             	movzbl %al,%eax
    9247:	44 89 ee             	mov    %r13d,%esi
    924a:	89 c7                	mov    %eax,%edi
    924c:	e8 27 b9 ff ff       	callq  4b78 <safe_sub_func_uint8_t_u_u>
    9251:	0f b6 c0             	movzbl %al,%eax
    9254:	be b0 00 00 00       	mov    $0xb0,%esi
    9259:	89 c7                	mov    %eax,%edi
    925b:	e8 33 b9 ff ff       	callq  4b93 <safe_mul_func_uint8_t_u_u>
    9260:	4c 89 e6             	mov    %r12,%rsi
    9263:	48 c7 c7 ff ff ff ff 	mov    $0xffffffffffffffff,%rdi
    926a:	e8 d2 b5 ff ff       	callq  4841 <safe_add_func_int64_t_s_s>
    926f:	48 8b 95 d0 e5 ff ff 	mov    -0x1a30(%rbp),%rdx
    9276:	0f b7 12             	movzwl (%rdx),%edx
    9279:	31 c2                	xor    %eax,%edx
    927b:	48 8b 85 d0 e5 ff ff 	mov    -0x1a30(%rbp),%rax
    9282:	66 89 10             	mov    %dx,(%rax)
    9285:	48 8b 85 d0 e5 ff ff 	mov    -0x1a30(%rbp),%rax
    928c:	0f b7 08             	movzwl (%rax),%ecx
    928f:	0f b7 85 04 e4 ff ff 	movzwl -0x1bfc(%rbp),%eax
    9296:	0f b7 d0             	movzwl %ax,%edx
    9299:	48 8b 85 d8 e5 ff ff 	mov    -0x1a28(%rbp),%rax
    92a0:	0f b7 00             	movzwl (%rax),%eax
    92a3:	21 c1                	and    %eax,%ecx
    92a5:	48 8b 85 d8 e5 ff ff 	mov    -0x1a28(%rbp),%rax
    92ac:	66 89 08             	mov    %cx,(%rax)
    92af:	48 8b 85 d8 e5 ff ff 	mov    -0x1a28(%rbp),%rax
    92b6:	0f b7 00             	movzwl (%rax),%eax
    92b9:	98                   	cwtl   
    92ba:	39 c2                	cmp    %eax,%edx
    92bc:	0f 95 c0             	setne  %al
    92bf:	0f b6 c0             	movzbl %al,%eax
    92c2:	be 01 00 00 00       	mov    $0x1,%esi
    92c7:	89 c7                	mov    %eax,%edi
    92c9:	e8 6f ba ff ff       	callq  4d3d <safe_mul_func_uint16_t_u_u>
    92ce:	8b 85 3c e4 ff ff    	mov    -0x1bc4(%rbp),%eax
    92d4:	89 c2                	mov    %eax,%edx
    92d6:	48 8b 85 e0 e5 ff ff 	mov    -0x1a20(%rbp),%rax
    92dd:	89 10                	mov    %edx,(%rax)
    92df:	8b 85 44 e4 ff ff    	mov    -0x1bbc(%rbp),%eax
    92e5:	85 c0                	test   %eax,%eax
    92e7:	0f 94 c0             	sete   %al
    92ea:	0f b6 c0             	movzbl %al,%eax
    92ed:	48 89 de             	mov    %rbx,%rsi
    92f0:	48 89 c7             	mov    %rax,%rdi
    92f3:	e8 36 bd ff ff       	callq  502e <safe_add_func_uint64_t_u_u>
    92f8:	8b 85 44 e4 ff ff    	mov    -0x1bbc(%rbp),%eax
    92fe:	89 85 44 e4 ff ff    	mov    %eax,-0x1bbc(%rbp)
    9304:	8b 85 44 e4 ff ff    	mov    -0x1bbc(%rbp),%eax
    930a:	85 c0                	test   %eax,%eax
    930c:	75 0d                	jne    931b <func_91+0xfd7>
    930e:	48 8b 05 1b a9 00 00 	mov    0xa91b(%rip),%rax        # 13c30 <g_224>
    9315:	8b 00                	mov    (%rax),%eax
    9317:	85 c0                	test   %eax,%eax
    9319:	74 07                	je     9322 <func_91+0xfde>
    931b:	ba 01 00 00 00       	mov    $0x1,%edx
    9320:	eb 05                	jmp    9327 <func_91+0xfe3>
    9322:	ba 00 00 00 00       	mov    $0x0,%edx
    9327:	8b 85 28 e4 ff ff    	mov    -0x1bd8(%rbp),%eax
    932d:	39 c2                	cmp    %eax,%edx
    932f:	0f 9c c0             	setl   %al
    9332:	0f b6 c0             	movzbl %al,%eax
    9335:	89 c2                	mov    %eax,%edx
    9337:	8b 05 8f 9d 00 00    	mov    0x9d8f(%rip),%eax        # 130cc <g_268>
    933d:	31 d0                	xor    %edx,%eax
    933f:	89 05 87 9d 00 00    	mov    %eax,0x9d87(%rip)        # 130cc <g_268>
    9345:	8b 05 81 9d 00 00    	mov    0x9d81(%rip),%eax        # 130cc <g_268>
    934b:	98                   	cwtl   
    934c:	be 58 01 00 00       	mov    $0x158,%esi
    9351:	89 c7                	mov    %eax,%edi
    9353:	e8 9d b0 ff ff       	callq  43f5 <safe_mul_func_int16_t_s_s>
    9358:	48 0f bf d0          	movswq %ax,%rdx
    935c:	48 8b 85 08 e4 ff ff 	mov    -0x1bf8(%rbp),%rax
    9363:	48 09 c2             	or     %rax,%rdx
    9366:	48 8b 85 f0 e5 ff ff 	mov    -0x1a10(%rbp),%rax
    936d:	8b 00                	mov    (%rax),%eax
    936f:	09 c2                	or     %eax,%edx
    9371:	48 8b 85 f0 e5 ff ff 	mov    -0x1a10(%rbp),%rax
    9378:	89 10                	mov    %edx,(%rax)
    937a:	48 8b 85 f0 e5 ff ff 	mov    -0x1a10(%rbp),%rax
    9381:	8b 00                	mov    (%rax),%eax
    9383:	85 c0                	test   %eax,%eax
    9385:	0f 84 36 17 00 00    	je     aac1 <func_91+0x277d>
    938b:	c7 85 84 e4 ff ff 00 	movl   $0x0,-0x1b7c(%rbp)
    9392:	00 00 00 
    9395:	48 8d 85 00 ed ff ff 	lea    -0x1300(%rbp),%rax
    939c:	48 8d 15 1d a3 00 00 	lea    0xa31d(%rip),%rdx        # 136c0 <g_1887+0x420>
    93a3:	b9 80 00 00 00       	mov    $0x80,%ecx
    93a8:	48 89 c7             	mov    %rax,%rdi
    93ab:	48 89 d6             	mov    %rdx,%rsi
    93ae:	f3 48 a5             	rep movsq %ds:(%rsi),%es:(%rdi)
    93b1:	48 8d 85 2c e4 ff ff 	lea    -0x1bd4(%rbp),%rax
    93b8:	48 89 85 28 e6 ff ff 	mov    %rax,-0x19d8(%rbp)
    93bf:	c7 85 60 e5 ff ff ff 	movl   $0xffffffff,-0x1aa0(%rbp)
    93c6:	ff ff ff 
    93c9:	c7 85 88 e4 ff ff 90 	movl   $0x6864c590,-0x1b78(%rbp)
    93d0:	c5 64 68 
    93d3:	c7 85 8c e4 ff ff 07 	movl   $0x7,-0x1b74(%rbp)
    93da:	00 00 00 
    93dd:	c7 85 90 e4 ff ff 01 	movl   $0x1,-0x1b70(%rbp)
    93e4:	00 00 00 
    93e7:	c7 85 94 e4 ff ff 51 	movl   $0xb1f45c51,-0x1b6c(%rbp)
    93ee:	5c f4 b1 
    93f1:	c7 85 98 e4 ff ff ff 	movl   $0xffffffff,-0x1b68(%rbp)
    93f8:	ff ff ff 
    93fb:	c7 85 9c e4 ff ff 01 	movl   $0x1,-0x1b64(%rbp)
    9402:	00 00 00 
    9405:	c7 85 68 e4 ff ff 00 	movl   $0x0,-0x1b98(%rbp)
    940c:	00 00 00 
    940f:	eb 1b                	jmp    942c <func_91+0x10e8>
    9411:	8b 85 68 e4 ff ff    	mov    -0x1b98(%rbp),%eax
    9417:	48 98                	cltq   
    9419:	48 c7 84 c5 f0 e8 ff 	movq   $0x0,-0x1710(%rbp,%rax,8)
    9420:	ff 00 00 00 00 
    9425:	83 85 68 e4 ff ff 01 	addl   $0x1,-0x1b98(%rbp)
    942c:	83 bd 68 e4 ff ff 04 	cmpl   $0x4,-0x1b98(%rbp)
    9433:	7e dc                	jle    9411 <func_91+0x10cd>
    9435:	48 8b 85 28 ee ff ff 	mov    -0x11d8(%rbp),%rax
    943c:	48 89 85 e0 ef ff ff 	mov    %rax,-0x1020(%rbp)
    9443:	48 8b 95 e0 ef ff ff 	mov    -0x1020(%rbp),%rdx
    944a:	48 8d 85 08 e4 ff ff 	lea    -0x1bf8(%rbp),%rax
    9451:	48 39 c2             	cmp    %rax,%rdx
    9454:	0f 95 c0             	setne  %al
    9457:	0f b6 d0             	movzbl %al,%edx
    945a:	48 8b 85 28 e6 ff ff 	mov    -0x19d8(%rbp),%rax
    9461:	89 10                	mov    %edx,(%rax)
    9463:	48 8d 05 7e a6 00 00 	lea    0xa67e(%rip),%rax        # 13ae8 <g_116+0x8>
    946a:	48 89 05 cf a7 00 00 	mov    %rax,0xa7cf(%rip)        # 13c40 <g_280>
    9471:	48 8b 15 c8 a7 00 00 	mov    0xa7c8(%rip),%rdx        # 13c40 <g_280>
    9478:	48 8b 85 00 e5 ff ff 	mov    -0x1b00(%rbp),%rax
    947f:	48 39 c2             	cmp    %rax,%rdx
    9482:	0f 95 c0             	setne  %al
    9485:	0f b6 d0             	movzbl %al,%edx
    9488:	48 8b 85 08 e4 ff ff 	mov    -0x1bf8(%rbp),%rax
    948f:	0f b7 c0             	movzwl %ax,%eax
    9492:	89 d6                	mov    %edx,%esi
    9494:	89 c7                	mov    %eax,%edi
    9496:	e8 ad b9 ff ff       	callq  4e48 <safe_rshift_func_uint16_t_u_s>
    949b:	0f b7 d0             	movzwl %ax,%edx
    949e:	8b 85 84 e4 ff ff    	mov    -0x1b7c(%rbp),%eax
    94a4:	48 89 d6             	mov    %rdx,%rsi
    94a7:	48 89 c7             	mov    %rax,%rdi
    94aa:	e8 9c bb ff ff       	callq  504b <safe_sub_func_uint64_t_u_u>
    94af:	48 85 c0             	test   %rax,%rax
    94b2:	0f 84 e9 08 00 00    	je     9da1 <func_91+0x1a5d>
    94b8:	48 8d 45 c0          	lea    -0x40(%rbp),%rax
    94bc:	48 83 c0 02          	add    $0x2,%rax
    94c0:	48 89 85 f0 f2 ff ff 	mov    %rax,-0xd10(%rbp)
    94c7:	48 c7 85 f8 f2 ff ff 	movq   $0x0,-0xd08(%rbp)
    94ce:	00 00 00 00 
    94d2:	48 c7 85 00 f3 ff ff 	movq   $0x0,-0xd00(%rbp)
    94d9:	00 00 00 00 
    94dd:	48 8d 45 c0          	lea    -0x40(%rbp),%rax
    94e1:	48 83 c0 02          	add    $0x2,%rax
    94e5:	48 89 85 08 f3 ff ff 	mov    %rax,-0xcf8(%rbp)
    94ec:	48 8d 45 c0          	lea    -0x40(%rbp),%rax
    94f0:	48 83 c0 07          	add    $0x7,%rax
    94f4:	48 89 85 10 f3 ff ff 	mov    %rax,-0xcf0(%rbp)
    94fb:	48 8d 45 c0          	lea    -0x40(%rbp),%rax
    94ff:	48 83 c0 02          	add    $0x2,%rax
    9503:	48 89 85 18 f3 ff ff 	mov    %rax,-0xce8(%rbp)
    950a:	48 c7 85 20 f3 ff ff 	movq   $0x0,-0xce0(%rbp)
    9511:	00 00 00 00 
    9515:	48 c7 85 28 f3 ff ff 	movq   $0x0,-0xcd8(%rbp)
    951c:	00 00 00 00 
    9520:	48 8d 45 c0          	lea    -0x40(%rbp),%rax
    9524:	48 83 c0 02          	add    $0x2,%rax
    9528:	48 89 85 30 f3 ff ff 	mov    %rax,-0xcd0(%rbp)
    952f:	48 8d 45 c0          	lea    -0x40(%rbp),%rax
    9533:	48 83 c0 02          	add    $0x2,%rax
    9537:	48 89 85 38 f3 ff ff 	mov    %rax,-0xcc8(%rbp)
    953e:	48 c7 85 40 f3 ff ff 	movq   $0x0,-0xcc0(%rbp)
    9545:	00 00 00 00 
    9549:	48 c7 85 48 f3 ff ff 	movq   $0x0,-0xcb8(%rbp)
    9550:	00 00 00 00 
    9554:	48 8d 45 c0          	lea    -0x40(%rbp),%rax
    9558:	48 83 c0 06          	add    $0x6,%rax
    955c:	48 89 85 50 f3 ff ff 	mov    %rax,-0xcb0(%rbp)
    9563:	48 8d 05 da 9a 00 00 	lea    0x9ada(%rip),%rax        # 13044 <g_112>
    956a:	48 89 85 58 f3 ff ff 	mov    %rax,-0xca8(%rbp)
    9571:	48 8d 45 c0          	lea    -0x40(%rbp),%rax
    9575:	48 83 c0 05          	add    $0x5,%rax
    9579:	48 89 85 60 f3 ff ff 	mov    %rax,-0xca0(%rbp)
    9580:	48 8d 05 bd 9a 00 00 	lea    0x9abd(%rip),%rax        # 13044 <g_112>
    9587:	48 89 85 68 f3 ff ff 	mov    %rax,-0xc98(%rbp)
    958e:	48 c7 85 70 f3 ff ff 	movq   $0x0,-0xc90(%rbp)
    9595:	00 00 00 00 
    9599:	48 8d 45 c0          	lea    -0x40(%rbp),%rax
    959d:	48 83 c0 02          	add    $0x2,%rax
    95a1:	48 89 85 78 f3 ff ff 	mov    %rax,-0xc88(%rbp)
    95a8:	48 c7 85 80 f3 ff ff 	movq   $0x0,-0xc80(%rbp)
    95af:	00 00 00 00 
    95b3:	48 8d 45 c0          	lea    -0x40(%rbp),%rax
    95b7:	48 83 c0 01          	add    $0x1,%rax
    95bb:	48 89 85 88 f3 ff ff 	mov    %rax,-0xc78(%rbp)
    95c2:	48 8d 45 c0          	lea    -0x40(%rbp),%rax
    95c6:	48 83 c0 07          	add    $0x7,%rax
    95ca:	48 89 85 90 f3 ff ff 	mov    %rax,-0xc70(%rbp)
    95d1:	48 c7 85 98 f3 ff ff 	movq   $0x0,-0xc68(%rbp)
    95d8:	00 00 00 00 
    95dc:	48 8d 05 61 9a 00 00 	lea    0x9a61(%rip),%rax        # 13044 <g_112>
    95e3:	48 89 85 a0 f3 ff ff 	mov    %rax,-0xc60(%rbp)
    95ea:	48 8d 45 c0          	lea    -0x40(%rbp),%rax
    95ee:	48 83 c0 02          	add    $0x2,%rax
    95f2:	48 89 85 a8 f3 ff ff 	mov    %rax,-0xc58(%rbp)
    95f9:	48 8d 05 44 9a 00 00 	lea    0x9a44(%rip),%rax        # 13044 <g_112>
    9600:	48 89 85 b0 f3 ff ff 	mov    %rax,-0xc50(%rbp)
    9607:	48 8d 45 c0          	lea    -0x40(%rbp),%rax
    960b:	48 83 c0 02          	add    $0x2,%rax
    960f:	48 89 85 b8 f3 ff ff 	mov    %rax,-0xc48(%rbp)
    9616:	48 c7 85 c0 f3 ff ff 	movq   $0x0,-0xc40(%rbp)
    961d:	00 00 00 00 
    9621:	48 8d 45 c0          	lea    -0x40(%rbp),%rax
    9625:	48 83 c0 02          	add    $0x2,%rax
    9629:	48 89 85 c8 f3 ff ff 	mov    %rax,-0xc38(%rbp)
    9630:	48 8d 05 0d 9a 00 00 	lea    0x9a0d(%rip),%rax        # 13044 <g_112>
    9637:	48 89 85 d0 f3 ff ff 	mov    %rax,-0xc30(%rbp)
    963e:	48 8d 05 ff 99 00 00 	lea    0x99ff(%rip),%rax        # 13044 <g_112>
    9645:	48 89 85 d8 f3 ff ff 	mov    %rax,-0xc28(%rbp)
    964c:	48 8d 45 c0          	lea    -0x40(%rbp),%rax
    9650:	48 83 c0 03          	add    $0x3,%rax
    9654:	48 89 85 e0 f3 ff ff 	mov    %rax,-0xc20(%rbp)
    965b:	48 8d 45 c0          	lea    -0x40(%rbp),%rax
    965f:	48 83 c0 02          	add    $0x2,%rax
    9663:	48 89 85 e8 f3 ff ff 	mov    %rax,-0xc18(%rbp)
    966a:	48 8d 05 d3 99 00 00 	lea    0x99d3(%rip),%rax        # 13044 <g_112>
    9671:	48 89 85 f0 f3 ff ff 	mov    %rax,-0xc10(%rbp)
    9678:	48 8d 45 c0          	lea    -0x40(%rbp),%rax
    967c:	48 83 c0 02          	add    $0x2,%rax
    9680:	48 89 85 f8 f3 ff ff 	mov    %rax,-0xc08(%rbp)
    9687:	48 8d 45 c0          	lea    -0x40(%rbp),%rax
    968b:	48 83 c0 03          	add    $0x3,%rax
    968f:	48 89 85 00 f4 ff ff 	mov    %rax,-0xc00(%rbp)
    9696:	48 8d 05 a7 99 00 00 	lea    0x99a7(%rip),%rax        # 13044 <g_112>
    969d:	48 89 85 08 f4 ff ff 	mov    %rax,-0xbf8(%rbp)
    96a4:	48 8d 45 c0          	lea    -0x40(%rbp),%rax
    96a8:	48 83 c0 02          	add    $0x2,%rax
    96ac:	48 89 85 10 f4 ff ff 	mov    %rax,-0xbf0(%rbp)
    96b3:	48 8d 45 c0          	lea    -0x40(%rbp),%rax
    96b7:	48 83 c0 02          	add    $0x2,%rax
    96bb:	48 89 85 18 f4 ff ff 	mov    %rax,-0xbe8(%rbp)
    96c2:	48 c7 85 20 f4 ff ff 	movq   $0x0,-0xbe0(%rbp)
    96c9:	00 00 00 00 
    96cd:	48 8d 05 70 99 00 00 	lea    0x9970(%rip),%rax        # 13044 <g_112>
    96d4:	48 89 85 28 f4 ff ff 	mov    %rax,-0xbd8(%rbp)
    96db:	48 c7 85 30 f4 ff ff 	movq   $0x0,-0xbd0(%rbp)
    96e2:	00 00 00 00 
    96e6:	48 8d 05 57 99 00 00 	lea    0x9957(%rip),%rax        # 13044 <g_112>
    96ed:	48 89 85 38 f4 ff ff 	mov    %rax,-0xbc8(%rbp)
    96f4:	48 8d 05 49 99 00 00 	lea    0x9949(%rip),%rax        # 13044 <g_112>
    96fb:	48 89 85 40 f4 ff ff 	mov    %rax,-0xbc0(%rbp)
    9702:	48 8d 45 c0          	lea    -0x40(%rbp),%rax
    9706:	48 83 c0 07          	add    $0x7,%rax
    970a:	48 89 85 48 f4 ff ff 	mov    %rax,-0xbb8(%rbp)
    9711:	48 8d 05 2c 99 00 00 	lea    0x992c(%rip),%rax        # 13044 <g_112>
    9718:	48 89 85 50 f4 ff ff 	mov    %rax,-0xbb0(%rbp)
    971f:	48 8d 45 c0          	lea    -0x40(%rbp),%rax
    9723:	48 83 c0 02          	add    $0x2,%rax
    9727:	48 89 85 58 f4 ff ff 	mov    %rax,-0xba8(%rbp)
    972e:	48 8d 45 c0          	lea    -0x40(%rbp),%rax
    9732:	48 83 c0 02          	add    $0x2,%rax
    9736:	48 89 85 60 f4 ff ff 	mov    %rax,-0xba0(%rbp)
    973d:	48 8d 45 c0          	lea    -0x40(%rbp),%rax
    9741:	48 83 c0 02          	add    $0x2,%rax
    9745:	48 89 85 68 f4 ff ff 	mov    %rax,-0xb98(%rbp)
    974c:	48 8d 45 c0          	lea    -0x40(%rbp),%rax
    9750:	48 89 85 70 f4 ff ff 	mov    %rax,-0xb90(%rbp)
    9757:	48 c7 85 78 f4 ff ff 	movq   $0x0,-0xb88(%rbp)
    975e:	00 00 00 00 
    9762:	48 8d 45 c0          	lea    -0x40(%rbp),%rax
    9766:	48 83 c0 06          	add    $0x6,%rax
    976a:	48 89 85 80 f4 ff ff 	mov    %rax,-0xb80(%rbp)
    9771:	48 c7 85 88 f4 ff ff 	movq   $0x0,-0xb78(%rbp)
    9778:	00 00 00 00 
    977c:	48 8d 05 c1 98 00 00 	lea    0x98c1(%rip),%rax        # 13044 <g_112>
    9783:	48 89 85 90 f4 ff ff 	mov    %rax,-0xb70(%rbp)
    978a:	48 8d 45 c0          	lea    -0x40(%rbp),%rax
    978e:	48 83 c0 03          	add    $0x3,%rax
    9792:	48 89 85 98 f4 ff ff 	mov    %rax,-0xb68(%rbp)
    9799:	48 c7 85 a0 f4 ff ff 	movq   $0x0,-0xb60(%rbp)
    97a0:	00 00 00 00 
    97a4:	48 c7 85 a8 f4 ff ff 	movq   $0x0,-0xb58(%rbp)
    97ab:	00 00 00 00 
    97af:	48 c7 85 b0 f4 ff ff 	movq   $0x0,-0xb50(%rbp)
    97b6:	00 00 00 00 
    97ba:	48 8d 05 83 98 00 00 	lea    0x9883(%rip),%rax        # 13044 <g_112>
    97c1:	48 89 85 b8 f4 ff ff 	mov    %rax,-0xb48(%rbp)
    97c8:	48 8d 45 c0          	lea    -0x40(%rbp),%rax
    97cc:	48 83 c0 02          	add    $0x2,%rax
    97d0:	48 89 85 c0 f4 ff ff 	mov    %rax,-0xb40(%rbp)
    97d7:	48 c7 85 c8 f4 ff ff 	movq   $0x0,-0xb38(%rbp)
    97de:	00 00 00 00 
    97e2:	48 8d 45 c0          	lea    -0x40(%rbp),%rax
    97e6:	48 83 c0 02          	add    $0x2,%rax
    97ea:	48 89 85 d0 f4 ff ff 	mov    %rax,-0xb30(%rbp)
    97f1:	48 c7 85 d8 f4 ff ff 	movq   $0x0,-0xb28(%rbp)
    97f8:	00 00 00 00 
    97fc:	48 8d 45 c0          	lea    -0x40(%rbp),%rax
    9800:	48 83 c0 02          	add    $0x2,%rax
    9804:	48 89 85 e0 f4 ff ff 	mov    %rax,-0xb20(%rbp)
    980b:	48 c7 85 e8 f4 ff ff 	movq   $0x0,-0xb18(%rbp)
    9812:	00 00 00 00 
    9816:	48 8d 05 27 98 00 00 	lea    0x9827(%rip),%rax        # 13044 <g_112>
    981d:	48 89 85 f0 f4 ff ff 	mov    %rax,-0xb10(%rbp)
    9824:	48 8d 05 19 98 00 00 	lea    0x9819(%rip),%rax        # 13044 <g_112>
    982b:	48 89 85 f8 f4 ff ff 	mov    %rax,-0xb08(%rbp)
    9832:	48 c7 85 00 f5 ff ff 	movq   $0x0,-0xb00(%rbp)
    9839:	00 00 00 00 
    983d:	48 c7 85 08 f5 ff ff 	movq   $0x0,-0xaf8(%rbp)
    9844:	00 00 00 00 
    9848:	48 8d 45 c0          	lea    -0x40(%rbp),%rax
    984c:	48 83 c0 02          	add    $0x2,%rax
    9850:	48 89 85 10 f5 ff ff 	mov    %rax,-0xaf0(%rbp)
    9857:	48 8d 05 e6 97 00 00 	lea    0x97e6(%rip),%rax        # 13044 <g_112>
    985e:	48 89 85 18 f5 ff ff 	mov    %rax,-0xae8(%rbp)
    9865:	48 8d 45 c0          	lea    -0x40(%rbp),%rax
    9869:	48 83 c0 02          	add    $0x2,%rax
    986d:	48 89 85 20 f5 ff ff 	mov    %rax,-0xae0(%rbp)
    9874:	48 c7 85 28 f5 ff ff 	movq   $0x0,-0xad8(%rbp)
    987b:	00 00 00 00 
    987f:	48 8d 05 be 97 00 00 	lea    0x97be(%rip),%rax        # 13044 <g_112>
    9886:	48 89 85 30 f5 ff ff 	mov    %rax,-0xad0(%rbp)
    988d:	48 8d 05 b0 97 00 00 	lea    0x97b0(%rip),%rax        # 13044 <g_112>
    9894:	48 89 85 38 f5 ff ff 	mov    %rax,-0xac8(%rbp)
    989b:	48 8d 45 c0          	lea    -0x40(%rbp),%rax
    989f:	48 83 c0 07          	add    $0x7,%rax
    98a3:	48 89 85 40 f5 ff ff 	mov    %rax,-0xac0(%rbp)
    98aa:	48 c7 85 48 f5 ff ff 	movq   $0x0,-0xab8(%rbp)
    98b1:	00 00 00 00 
    98b5:	48 c7 85 50 f5 ff ff 	movq   $0x0,-0xab0(%rbp)
    98bc:	00 00 00 00 
    98c0:	48 c7 85 58 f5 ff ff 	movq   $0x0,-0xaa8(%rbp)
    98c7:	00 00 00 00 
    98cb:	48 8d 45 c0          	lea    -0x40(%rbp),%rax
    98cf:	48 83 c0 02          	add    $0x2,%rax
    98d3:	48 89 85 60 f5 ff ff 	mov    %rax,-0xaa0(%rbp)
    98da:	48 8d 05 63 97 00 00 	lea    0x9763(%rip),%rax        # 13044 <g_112>
    98e1:	48 89 85 68 f5 ff ff 	mov    %rax,-0xa98(%rbp)
    98e8:	48 c7 85 70 f5 ff ff 	movq   $0x0,-0xa90(%rbp)
    98ef:	00 00 00 00 
    98f3:	48 8d 45 c0          	lea    -0x40(%rbp),%rax
    98f7:	48 83 c0 05          	add    $0x5,%rax
    98fb:	48 89 85 78 f5 ff ff 	mov    %rax,-0xa88(%rbp)
    9902:	48 8d 45 c0          	lea    -0x40(%rbp),%rax
    9906:	48 83 c0 03          	add    $0x3,%rax
    990a:	48 89 85 80 f5 ff ff 	mov    %rax,-0xa80(%rbp)
    9911:	48 c7 85 88 f5 ff ff 	movq   $0x0,-0xa78(%rbp)
    9918:	00 00 00 00 
    991c:	48 8d 45 c0          	lea    -0x40(%rbp),%rax
    9920:	48 83 c0 02          	add    $0x2,%rax
    9924:	48 89 85 90 f5 ff ff 	mov    %rax,-0xa70(%rbp)
    992b:	48 8d 45 c0          	lea    -0x40(%rbp),%rax
    992f:	48 83 c0 02          	add    $0x2,%rax
    9933:	48 89 85 98 f5 ff ff 	mov    %rax,-0xa68(%rbp)
    993a:	48 c7 85 a0 f5 ff ff 	movq   $0x0,-0xa60(%rbp)
    9941:	00 00 00 00 
    9945:	48 8d 45 c0          	lea    -0x40(%rbp),%rax
    9949:	48 83 c0 04          	add    $0x4,%rax
    994d:	48 89 85 a8 f5 ff ff 	mov    %rax,-0xa58(%rbp)
    9954:	48 c7 85 b0 f5 ff ff 	movq   $0x0,-0xa50(%rbp)
    995b:	00 00 00 00 
    995f:	48 8d 45 c0          	lea    -0x40(%rbp),%rax
    9963:	48 83 c0 04          	add    $0x4,%rax
    9967:	48 89 85 b8 f5 ff ff 	mov    %rax,-0xa48(%rbp)
    996e:	48 8d 45 c0          	lea    -0x40(%rbp),%rax
    9972:	48 83 c0 02          	add    $0x2,%rax
    9976:	48 89 85 c0 f5 ff ff 	mov    %rax,-0xa40(%rbp)
    997d:	48 c7 85 c8 f5 ff ff 	movq   $0x0,-0xa38(%rbp)
    9984:	00 00 00 00 
    9988:	48 c7 85 d0 f5 ff ff 	movq   $0x0,-0xa30(%rbp)
    998f:	00 00 00 00 
    9993:	48 c7 85 d8 f5 ff ff 	movq   $0x0,-0xa28(%rbp)
    999a:	00 00 00 00 
    999e:	48 c7 85 e0 f5 ff ff 	movq   $0x0,-0xa20(%rbp)
    99a5:	00 00 00 00 
    99a9:	48 8d 45 c0          	lea    -0x40(%rbp),%rax
    99ad:	48 83 c0 02          	add    $0x2,%rax
    99b1:	48 89 85 e8 f5 ff ff 	mov    %rax,-0xa18(%rbp)
    99b8:	48 8d 05 85 96 00 00 	lea    0x9685(%rip),%rax        # 13044 <g_112>
    99bf:	48 89 85 f0 f5 ff ff 	mov    %rax,-0xa10(%rbp)
    99c6:	48 8d 45 c0          	lea    -0x40(%rbp),%rax
    99ca:	48 83 c0 02          	add    $0x2,%rax
    99ce:	48 89 85 f8 f5 ff ff 	mov    %rax,-0xa08(%rbp)
    99d5:	48 8d 05 68 96 00 00 	lea    0x9668(%rip),%rax        # 13044 <g_112>
    99dc:	48 89 85 00 f6 ff ff 	mov    %rax,-0xa00(%rbp)
    99e3:	48 8d 05 5a 96 00 00 	lea    0x965a(%rip),%rax        # 13044 <g_112>
    99ea:	48 89 85 08 f6 ff ff 	mov    %rax,-0x9f8(%rbp)
    99f1:	48 8d 45 c0          	lea    -0x40(%rbp),%rax
    99f5:	48 83 c0 02          	add    $0x2,%rax
    99f9:	48 89 85 10 f6 ff ff 	mov    %rax,-0x9f0(%rbp)
    9a00:	48 8d 45 c0          	lea    -0x40(%rbp),%rax
    9a04:	48 83 c0 02          	add    $0x2,%rax
    9a08:	48 89 85 18 f6 ff ff 	mov    %rax,-0x9e8(%rbp)
    9a0f:	48 8d 45 c0          	lea    -0x40(%rbp),%rax
    9a13:	48 83 c0 02          	add    $0x2,%rax
    9a17:	48 89 85 20 f6 ff ff 	mov    %rax,-0x9e0(%rbp)
    9a1e:	48 8d 45 c0          	lea    -0x40(%rbp),%rax
    9a22:	48 83 c0 04          	add    $0x4,%rax
    9a26:	48 89 85 28 f6 ff ff 	mov    %rax,-0x9d8(%rbp)
    9a2d:	48 8d 45 c0          	lea    -0x40(%rbp),%rax
    9a31:	48 83 c0 02          	add    $0x2,%rax
    9a35:	48 89 85 30 f6 ff ff 	mov    %rax,-0x9d0(%rbp)
    9a3c:	48 c7 85 38 f6 ff ff 	movq   $0x0,-0x9c8(%rbp)
    9a43:	00 00 00 00 
    9a47:	48 8d 45 c0          	lea    -0x40(%rbp),%rax
    9a4b:	48 83 c0 04          	add    $0x4,%rax
    9a4f:	48 89 85 40 f6 ff ff 	mov    %rax,-0x9c0(%rbp)
    9a56:	48 c7 85 48 f6 ff ff 	movq   $0x0,-0x9b8(%rbp)
    9a5d:	00 00 00 00 
    9a61:	48 8d 45 c0          	lea    -0x40(%rbp),%rax
    9a65:	48 83 c0 01          	add    $0x1,%rax
    9a69:	48 89 85 50 f6 ff ff 	mov    %rax,-0x9b0(%rbp)
    9a70:	48 8d 05 cd 95 00 00 	lea    0x95cd(%rip),%rax        # 13044 <g_112>
    9a77:	48 89 85 58 f6 ff ff 	mov    %rax,-0x9a8(%rbp)
    9a7e:	48 8d 05 bf 95 00 00 	lea    0x95bf(%rip),%rax        # 13044 <g_112>
    9a85:	48 89 85 60 f6 ff ff 	mov    %rax,-0x9a0(%rbp)
    9a8c:	48 8d 45 c0          	lea    -0x40(%rbp),%rax
    9a90:	48 83 c0 07          	add    $0x7,%rax
    9a94:	48 89 85 68 f6 ff ff 	mov    %rax,-0x998(%rbp)
    9a9b:	48 8d 45 c0          	lea    -0x40(%rbp),%rax
    9a9f:	48 83 c0 05          	add    $0x5,%rax
    9aa3:	48 89 85 70 f6 ff ff 	mov    %rax,-0x990(%rbp)
    9aaa:	48 c7 85 78 f6 ff ff 	movq   $0x0,-0x988(%rbp)
    9ab1:	00 00 00 00 
    9ab5:	48 8d 05 88 95 00 00 	lea    0x9588(%rip),%rax        # 13044 <g_112>
    9abc:	48 89 85 80 f6 ff ff 	mov    %rax,-0x980(%rbp)
    9ac3:	48 c7 85 88 f6 ff ff 	movq   $0x0,-0x978(%rbp)
    9aca:	00 00 00 00 
    9ace:	48 c7 85 90 f6 ff ff 	movq   $0x0,-0x970(%rbp)
    9ad5:	00 00 00 00 
    9ad9:	48 8d 45 c0          	lea    -0x40(%rbp),%rax
    9add:	48 89 85 98 f6 ff ff 	mov    %rax,-0x968(%rbp)
    9ae4:	48 8d 45 c0          	lea    -0x40(%rbp),%rax
    9ae8:	48 83 c0 04          	add    $0x4,%rax
    9aec:	48 89 85 a0 f6 ff ff 	mov    %rax,-0x960(%rbp)
    9af3:	48 8d 45 c0          	lea    -0x40(%rbp),%rax
    9af7:	48 83 c0 02          	add    $0x2,%rax
    9afb:	48 89 85 a8 f6 ff ff 	mov    %rax,-0x958(%rbp)
    9b02:	48 c7 85 b0 f6 ff ff 	movq   $0x0,-0x950(%rbp)
    9b09:	00 00 00 00 
    9b0d:	48 c7 85 b8 f6 ff ff 	movq   $0x0,-0x948(%rbp)
    9b14:	00 00 00 00 
    9b18:	48 8d 45 c0          	lea    -0x40(%rbp),%rax
    9b1c:	48 83 c0 02          	add    $0x2,%rax
    9b20:	48 89 85 c0 f6 ff ff 	mov    %rax,-0x940(%rbp)
    9b27:	48 8d 45 c0          	lea    -0x40(%rbp),%rax
    9b2b:	48 83 c0 04          	add    $0x4,%rax
    9b2f:	48 89 85 c8 f6 ff ff 	mov    %rax,-0x938(%rbp)
    9b36:	48 8d 45 c0          	lea    -0x40(%rbp),%rax
    9b3a:	48 89 85 d0 f6 ff ff 	mov    %rax,-0x930(%rbp)
    9b41:	48 8d 45 c0          	lea    -0x40(%rbp),%rax
    9b45:	48 83 c0 03          	add    $0x3,%rax
    9b49:	48 89 85 d8 f6 ff ff 	mov    %rax,-0x928(%rbp)
    9b50:	48 8d 45 c0          	lea    -0x40(%rbp),%rax
    9b54:	48 83 c0 07          	add    $0x7,%rax
    9b58:	48 89 85 e0 f6 ff ff 	mov    %rax,-0x920(%rbp)
    9b5f:	48 8d 05 de 94 00 00 	lea    0x94de(%rip),%rax        # 13044 <g_112>
    9b66:	48 89 85 e8 f6 ff ff 	mov    %rax,-0x918(%rbp)
    9b6d:	48 8d 45 c0          	lea    -0x40(%rbp),%rax
    9b71:	48 83 c0 02          	add    $0x2,%rax
    9b75:	48 89 85 f0 f6 ff ff 	mov    %rax,-0x910(%rbp)
    9b7c:	48 c7 85 f8 f6 ff ff 	movq   $0x0,-0x908(%rbp)
    9b83:	00 00 00 00 
    9b87:	48 c7 85 00 f7 ff ff 	movq   $0x0,-0x900(%rbp)
    9b8e:	00 00 00 00 
    9b92:	48 8d 45 c0          	lea    -0x40(%rbp),%rax
    9b96:	48 83 c0 07          	add    $0x7,%rax
    9b9a:	48 89 85 08 f7 ff ff 	mov    %rax,-0x8f8(%rbp)
    9ba1:	48 c7 85 10 f7 ff ff 	movq   $0x0,-0x8f0(%rbp)
    9ba8:	00 00 00 00 
    9bac:	48 c7 85 18 f7 ff ff 	movq   $0x0,-0x8e8(%rbp)
    9bb3:	00 00 00 00 
    9bb7:	48 8d 45 c0          	lea    -0x40(%rbp),%rax
    9bbb:	48 83 c0 02          	add    $0x2,%rax
    9bbf:	48 89 85 20 f7 ff ff 	mov    %rax,-0x8e0(%rbp)
    9bc6:	48 8d 45 c0          	lea    -0x40(%rbp),%rax
    9bca:	48 83 c0 02          	add    $0x2,%rax
    9bce:	48 89 85 28 f7 ff ff 	mov    %rax,-0x8d8(%rbp)
    9bd5:	48 c7 85 30 f7 ff ff 	movq   $0x0,-0x8d0(%rbp)
    9bdc:	00 00 00 00 
    9be0:	48 8d 45 c0          	lea    -0x40(%rbp),%rax
    9be4:	48 83 c0 02          	add    $0x2,%rax
    9be8:	48 89 85 38 f7 ff ff 	mov    %rax,-0x8c8(%rbp)
    9bef:	48 8d 05 4e 94 00 00 	lea    0x944e(%rip),%rax        # 13044 <g_112>
    9bf6:	48 89 85 40 f7 ff ff 	mov    %rax,-0x8c0(%rbp)
    9bfd:	48 8d 45 c0          	lea    -0x40(%rbp),%rax
    9c01:	48 83 c0 06          	add    $0x6,%rax
    9c05:	48 89 85 48 f7 ff ff 	mov    %rax,-0x8b8(%rbp)
    9c0c:	48 8d 45 c0          	lea    -0x40(%rbp),%rax
    9c10:	48 83 c0 04          	add    $0x4,%rax
    9c14:	48 89 85 50 f7 ff ff 	mov    %rax,-0x8b0(%rbp)
    9c1b:	48 8d 45 c0          	lea    -0x40(%rbp),%rax
    9c1f:	48 83 c0 02          	add    $0x2,%rax
    9c23:	48 89 85 58 f7 ff ff 	mov    %rax,-0x8a8(%rbp)
    9c2a:	48 8d 05 13 94 00 00 	lea    0x9413(%rip),%rax        # 13044 <g_112>
    9c31:	48 89 85 60 f7 ff ff 	mov    %rax,-0x8a0(%rbp)
    9c38:	48 8d 45 c0          	lea    -0x40(%rbp),%rax
    9c3c:	48 83 c0 03          	add    $0x3,%rax
    9c40:	48 89 85 68 f7 ff ff 	mov    %rax,-0x898(%rbp)
    9c47:	48 8d 45 c0          	lea    -0x40(%rbp),%rax
    9c4b:	48 83 c0 02          	add    $0x2,%rax
    9c4f:	48 89 85 70 f7 ff ff 	mov    %rax,-0x890(%rbp)
    9c56:	48 c7 85 78 f7 ff ff 	movq   $0x0,-0x888(%rbp)
    9c5d:	00 00 00 00 
    9c61:	48 c7 85 80 f7 ff ff 	movq   $0x0,-0x880(%rbp)
    9c68:	00 00 00 00 
    9c6c:	48 8d 45 c0          	lea    -0x40(%rbp),%rax
    9c70:	48 83 c0 07          	add    $0x7,%rax
    9c74:	48 89 85 88 f7 ff ff 	mov    %rax,-0x878(%rbp)
    9c7b:	48 8d 45 c0          	lea    -0x40(%rbp),%rax
    9c7f:	48 83 c0 02          	add    $0x2,%rax
    9c83:	48 89 85 90 f7 ff ff 	mov    %rax,-0x870(%rbp)
    9c8a:	48 8d 45 c0          	lea    -0x40(%rbp),%rax
    9c8e:	48 83 c0 02          	add    $0x2,%rax
    9c92:	48 89 85 98 f7 ff ff 	mov    %rax,-0x868(%rbp)
    9c99:	48 8d 45 c0          	lea    -0x40(%rbp),%rax
    9c9d:	48 83 c0 07          	add    $0x7,%rax
    9ca1:	48 89 85 a0 f7 ff ff 	mov    %rax,-0x860(%rbp)
    9ca8:	48 c7 85 a8 f7 ff ff 	movq   $0x0,-0x858(%rbp)
    9caf:	00 00 00 00 
    9cb3:	48 c7 85 b0 f7 ff ff 	movq   $0x0,-0x850(%rbp)
    9cba:	00 00 00 00 
    9cbe:	48 8d 45 c0          	lea    -0x40(%rbp),%rax
    9cc2:	48 83 c0 04          	add    $0x4,%rax
    9cc6:	48 89 85 b8 f7 ff ff 	mov    %rax,-0x848(%rbp)
    9ccd:	48 8d 45 c0          	lea    -0x40(%rbp),%rax
    9cd1:	48 83 c0 03          	add    $0x3,%rax
    9cd5:	48 89 85 c0 f7 ff ff 	mov    %rax,-0x840(%rbp)
    9cdc:	48 8d 05 61 93 00 00 	lea    0x9361(%rip),%rax        # 13044 <g_112>
    9ce3:	48 89 85 c8 f7 ff ff 	mov    %rax,-0x838(%rbp)
    9cea:	48 8d 45 c0          	lea    -0x40(%rbp),%rax
    9cee:	48 83 c0 02          	add    $0x2,%rax
    9cf2:	48 89 85 d0 f7 ff ff 	mov    %rax,-0x830(%rbp)
    9cf9:	48 8d 45 c0          	lea    -0x40(%rbp),%rax
    9cfd:	48 83 c0 04          	add    $0x4,%rax
    9d01:	48 89 85 d8 f7 ff ff 	mov    %rax,-0x828(%rbp)
    9d08:	48 8d 45 c0          	lea    -0x40(%rbp),%rax
    9d0c:	48 83 c0 06          	add    $0x6,%rax
    9d10:	48 89 85 e0 f7 ff ff 	mov    %rax,-0x820(%rbp)
    9d17:	48 8d 05 26 93 00 00 	lea    0x9326(%rip),%rax        # 13044 <g_112>
    9d1e:	48 89 85 e8 f7 ff ff 	mov    %rax,-0x818(%rbp)
    9d25:	48 8d 45 c0          	lea    -0x40(%rbp),%rax
    9d29:	48 83 c0 02          	add    $0x2,%rax
    9d2d:	48 89 85 f0 f7 ff ff 	mov    %rax,-0x810(%rbp)
    9d34:	48 c7 85 f8 f7 ff ff 	movq   $0x0,-0x808(%rbp)
    9d3b:	00 00 00 00 
    9d3f:	c7 85 a4 e4 ff ff 1e 	movl   $0xf5a4721e,-0x1b5c(%rbp)
    9d46:	72 a4 f5 
    9d49:	48 8d 05 70 9d 00 00 	lea    0x9d70(%rip),%rax        # 13ac0 <g_21>
    9d50:	48 89 85 70 e6 ff ff 	mov    %rax,-0x1990(%rbp)
    9d57:	48 8b 85 f8 e3 ff ff 	mov    -0x1c08(%rbp),%rax
    9d5e:	89 85 a4 e4 ff ff    	mov    %eax,-0x1b5c(%rbp)
    9d64:	8b 85 a4 e4 ff ff    	mov    -0x1b5c(%rbp),%eax
    9d6a:	89 c6                	mov    %eax,%esi
    9d6c:	bf 01 00 00 00       	mov    $0x1,%edi
    9d71:	e8 78 a5 ff ff       	callq  42ee <safe_lshift_func_int8_t_s_u>
    9d76:	0f be d0             	movsbl %al,%edx
    9d79:	48 8b 85 f0 e5 ff ff 	mov    -0x1a10(%rbp),%rax
    9d80:	89 10                	mov    %edx,(%rax)
    9d82:	48 8b 05 af 9e 00 00 	mov    0x9eaf(%rip),%rax        # 13c38 <g_230>
    9d89:	48 8b 10             	mov    (%rax),%rdx
    9d8c:	48 8b 85 70 e6 ff ff 	mov    -0x1990(%rbp),%rax
    9d93:	48 89 10             	mov    %rdx,(%rax)
    9d96:	8b 85 38 e4 ff ff    	mov    -0x1bc8(%rbp),%eax
    9d9c:	e9 77 42 00 00       	jmpq   e018 <func_91+0x5cd4>
    9da1:	48 c7 85 f0 f2 ff ff 	movq   $0x0,-0xd10(%rbp)
    9da8:	00 00 00 00 
    9dac:	48 8d 85 44 e4 ff ff 	lea    -0x1bbc(%rbp),%rax
    9db3:	48 89 85 f8 f2 ff ff 	mov    %rax,-0xd08(%rbp)
    9dba:	48 c7 85 00 f3 ff ff 	movq   $0x0,-0xd00(%rbp)
    9dc1:	00 00 00 00 
    9dc5:	48 c7 85 08 f3 ff ff 	movq   $0x0,-0xcf8(%rbp)
    9dcc:	00 00 00 00 
    9dd0:	48 8d 85 44 e4 ff ff 	lea    -0x1bbc(%rbp),%rax
    9dd7:	48 89 85 10 f3 ff ff 	mov    %rax,-0xcf0(%rbp)
    9dde:	48 c7 85 18 f3 ff ff 	movq   $0x0,-0xce8(%rbp)
    9de5:	00 00 00 00 
    9de9:	48 c7 85 20 f3 ff ff 	movq   $0x0,-0xce0(%rbp)
    9df0:	00 00 00 00 
    9df4:	48 8d 85 44 e4 ff ff 	lea    -0x1bbc(%rbp),%rax
    9dfb:	48 89 85 28 f3 ff ff 	mov    %rax,-0xcd8(%rbp)
    9e02:	48 c7 85 30 f3 ff ff 	movq   $0x0,-0xcd0(%rbp)
    9e09:	00 00 00 00 
    9e0d:	48 c7 85 38 f3 ff ff 	movq   $0x0,-0xcc8(%rbp)
    9e14:	00 00 00 00 
    9e18:	48 8d 85 44 e4 ff ff 	lea    -0x1bbc(%rbp),%rax
    9e1f:	48 89 85 40 f3 ff ff 	mov    %rax,-0xcc0(%rbp)
    9e26:	48 8d 85 44 e4 ff ff 	lea    -0x1bbc(%rbp),%rax
    9e2d:	48 89 85 48 f3 ff ff 	mov    %rax,-0xcb8(%rbp)
    9e34:	48 8d 85 38 e4 ff ff 	lea    -0x1bc8(%rbp),%rax
    9e3b:	48 89 85 50 f3 ff ff 	mov    %rax,-0xcb0(%rbp)
    9e42:	48 8d 85 44 e4 ff ff 	lea    -0x1bbc(%rbp),%rax
    9e49:	48 89 85 58 f3 ff ff 	mov    %rax,-0xca8(%rbp)
    9e50:	48 8d 85 44 e4 ff ff 	lea    -0x1bbc(%rbp),%rax
    9e57:	48 89 85 60 f3 ff ff 	mov    %rax,-0xca0(%rbp)
    9e5e:	48 8d 85 38 e4 ff ff 	lea    -0x1bc8(%rbp),%rax
    9e65:	48 89 85 68 f3 ff ff 	mov    %rax,-0xc98(%rbp)
    9e6c:	48 8d 85 44 e4 ff ff 	lea    -0x1bbc(%rbp),%rax
    9e73:	48 89 85 70 f3 ff ff 	mov    %rax,-0xc90(%rbp)
    9e7a:	48 8d 85 44 e4 ff ff 	lea    -0x1bbc(%rbp),%rax
    9e81:	48 89 85 78 f3 ff ff 	mov    %rax,-0xc88(%rbp)
    9e88:	48 8d 85 38 e4 ff ff 	lea    -0x1bc8(%rbp),%rax
    9e8f:	48 89 85 80 f3 ff ff 	mov    %rax,-0xc80(%rbp)
    9e96:	48 8d 85 44 e4 ff ff 	lea    -0x1bbc(%rbp),%rax
    9e9d:	48 89 85 88 f3 ff ff 	mov    %rax,-0xc78(%rbp)
    9ea4:	48 8d 85 44 e4 ff ff 	lea    -0x1bbc(%rbp),%rax
    9eab:	48 89 85 90 f3 ff ff 	mov    %rax,-0xc70(%rbp)
    9eb2:	48 c7 85 98 f3 ff ff 	movq   $0x0,-0xc68(%rbp)
    9eb9:	00 00 00 00 
    9ebd:	48 c7 85 a0 f3 ff ff 	movq   $0x0,-0xc60(%rbp)
    9ec4:	00 00 00 00 
    9ec8:	48 8d 85 44 e4 ff ff 	lea    -0x1bbc(%rbp),%rax
    9ecf:	48 89 85 a8 f3 ff ff 	mov    %rax,-0xc58(%rbp)
    9ed6:	48 c7 85 b0 f3 ff ff 	movq   $0x0,-0xc50(%rbp)
    9edd:	00 00 00 00 
    9ee1:	48 c7 85 b8 f3 ff ff 	movq   $0x0,-0xc48(%rbp)
    9ee8:	00 00 00 00 
    9eec:	48 8d 85 44 e4 ff ff 	lea    -0x1bbc(%rbp),%rax
    9ef3:	48 89 85 c0 f3 ff ff 	mov    %rax,-0xc40(%rbp)
    9efa:	48 c7 85 c8 f3 ff ff 	movq   $0x0,-0xc38(%rbp)
    9f01:	00 00 00 00 
    9f05:	48 c7 85 d0 f3 ff ff 	movq   $0x0,-0xc30(%rbp)
    9f0c:	00 00 00 00 
    9f10:	48 8d 85 44 e4 ff ff 	lea    -0x1bbc(%rbp),%rax
    9f17:	48 89 85 d8 f3 ff ff 	mov    %rax,-0xc28(%rbp)
    9f1e:	48 c7 85 e0 f3 ff ff 	movq   $0x0,-0xc20(%rbp)
    9f25:	00 00 00 00 
    9f29:	48 8d 85 44 e4 ff ff 	lea    -0x1bbc(%rbp),%rax
    9f30:	48 89 85 e8 f3 ff ff 	mov    %rax,-0xc18(%rbp)
    9f37:	48 c7 85 f0 f3 ff ff 	movq   $0x0,-0xc10(%rbp)
    9f3e:	00 00 00 00 
    9f42:	48 c7 85 f8 f3 ff ff 	movq   $0x0,-0xc08(%rbp)
    9f49:	00 00 00 00 
    9f4d:	48 8d 85 44 e4 ff ff 	lea    -0x1bbc(%rbp),%rax
    9f54:	48 89 85 00 f4 ff ff 	mov    %rax,-0xc00(%rbp)
    9f5b:	48 c7 85 08 f4 ff ff 	movq   $0x0,-0xbf8(%rbp)
    9f62:	00 00 00 00 
    9f66:	48 c7 85 10 f4 ff ff 	movq   $0x0,-0xbf0(%rbp)
    9f6d:	00 00 00 00 
    9f71:	48 8d 85 44 e4 ff ff 	lea    -0x1bbc(%rbp),%rax
    9f78:	48 89 85 18 f4 ff ff 	mov    %rax,-0xbe8(%rbp)
    9f7f:	48 c7 85 20 f4 ff ff 	movq   $0x0,-0xbe0(%rbp)
    9f86:	00 00 00 00 
    9f8a:	48 c7 85 28 f4 ff ff 	movq   $0x0,-0xbd8(%rbp)
    9f91:	00 00 00 00 
    9f95:	48 8d 85 44 e4 ff ff 	lea    -0x1bbc(%rbp),%rax
    9f9c:	48 89 85 30 f4 ff ff 	mov    %rax,-0xbd0(%rbp)
    9fa3:	48 8d 85 44 e4 ff ff 	lea    -0x1bbc(%rbp),%rax
    9faa:	48 89 85 38 f4 ff ff 	mov    %rax,-0xbc8(%rbp)
    9fb1:	48 8d 85 38 e4 ff ff 	lea    -0x1bc8(%rbp),%rax
    9fb8:	48 89 85 40 f4 ff ff 	mov    %rax,-0xbc0(%rbp)
    9fbf:	48 8d 85 44 e4 ff ff 	lea    -0x1bbc(%rbp),%rax
    9fc6:	48 89 85 48 f4 ff ff 	mov    %rax,-0xbb8(%rbp)
    9fcd:	48 8d 85 44 e4 ff ff 	lea    -0x1bbc(%rbp),%rax
    9fd4:	48 89 85 50 f4 ff ff 	mov    %rax,-0xbb0(%rbp)
    9fdb:	48 8d 85 38 e4 ff ff 	lea    -0x1bc8(%rbp),%rax
    9fe2:	48 89 85 58 f4 ff ff 	mov    %rax,-0xba8(%rbp)
    9fe9:	48 8d 85 44 e4 ff ff 	lea    -0x1bbc(%rbp),%rax
    9ff0:	48 89 85 60 f4 ff ff 	mov    %rax,-0xba0(%rbp)
    9ff7:	48 8d 85 44 e4 ff ff 	lea    -0x1bbc(%rbp),%rax
    9ffe:	48 89 85 68 f4 ff ff 	mov    %rax,-0xb98(%rbp)
    a005:	48 8d 85 38 e4 ff ff 	lea    -0x1bc8(%rbp),%rax
    a00c:	48 89 85 70 f4 ff ff 	mov    %rax,-0xb90(%rbp)
    a013:	48 8d 85 44 e4 ff ff 	lea    -0x1bbc(%rbp),%rax
    a01a:	48 89 85 78 f4 ff ff 	mov    %rax,-0xb88(%rbp)
    a021:	48 8d 05 18 9c 00 00 	lea    0x9c18(%rip),%rax        # 13c40 <g_280>
    a028:	48 89 85 30 e6 ff ff 	mov    %rax,-0x19d0(%rbp)
    a02f:	48 8d 05 62 a8 00 00 	lea    0xa862(%rip),%rax        # 14898 <g_90>
    a036:	48 89 85 38 e6 ff ff 	mov    %rax,-0x19c8(%rbp)
    a03d:	8b 85 60 e5 ff ff    	mov    -0x1aa0(%rbp),%eax
    a043:	89 c2                	mov    %eax,%edx
    a045:	48 8b 85 08 e4 ff ff 	mov    -0x1bf8(%rbp),%rax
    a04c:	89 d6                	mov    %edx,%esi
    a04e:	89 c7                	mov    %eax,%edi
    a050:	e8 61 a5 ff ff       	callq  45b6 <safe_add_func_int32_t_s_s>
    a055:	0f b6 c0             	movzbl %al,%eax
    a058:	be 05 00 00 00       	mov    $0x5,%esi
    a05d:	89 c7                	mov    %eax,%edi
    a05f:	e8 29 ac ff ff       	callq  4c8d <safe_rshift_func_uint8_t_u_s>
    a064:	48 8b 85 f8 e3 ff ff 	mov    -0x1c08(%rbp),%rax
    a06b:	0f b6 d8             	movzbl %al,%ebx
    a06e:	8b 05 d4 8f 00 00    	mov    0x8fd4(%rip),%eax        # 13048 <g_115>
    a074:	41 89 c5             	mov    %eax,%r13d
    a077:	48 8b 85 40 e5 ff ff 	mov    -0x1ac0(%rbp),%rax
    a07e:	48 8b 10             	mov    (%rax),%rdx
    a081:	48 8b 85 40 e5 ff ff 	mov    -0x1ac0(%rbp),%rax
    a088:	48 f7 d2             	not    %rdx
    a08b:	48 89 10             	mov    %rdx,(%rax)
    a08e:	48 8b 85 f8 e3 ff ff 	mov    -0x1c08(%rbp),%rax
    a095:	48 85 c0             	test   %rax,%rax
    a098:	74 07                	je     a0a1 <func_91+0x1d5d>
    a09a:	b8 01 00 00 00       	mov    $0x1,%eax
    a09f:	eb 05                	jmp    a0a6 <func_91+0x1d62>
    a0a1:	b8 00 00 00 00       	mov    $0x0,%eax
    a0a6:	0f b7 c0             	movzwl %ax,%eax
    a0a9:	be 9e 5e 00 00       	mov    $0x5e9e,%esi
    a0ae:	89 c7                	mov    %eax,%edi
    a0b0:	e8 d9 ac ff ff       	callq  4d8e <safe_div_func_uint16_t_u_u>
    a0b5:	0f b7 d0             	movzwl %ax,%edx
    a0b8:	48 8b 85 10 e5 ff ff 	mov    -0x1af0(%rbp),%rax
    a0bf:	48 39 c2             	cmp    %rax,%rdx
    a0c2:	74 08                	je     a0cc <func_91+0x1d88>
    a0c4:	41 bc 01 00 00 00    	mov    $0x1,%r12d
    a0ca:	eb 06                	jmp    a0d2 <func_91+0x1d8e>
    a0cc:	41 bc 00 00 00 00    	mov    $0x0,%r12d
    a0d2:	be 09 00 00 00       	mov    $0x9,%esi
    a0d7:	bf 00 00 00 00       	mov    $0x0,%edi
    a0dc:	e8 49 a4 ff ff       	callq  452a <safe_rshift_func_int16_t_s_s>
    a0e1:	98                   	cwtl   
    a0e2:	44 89 e6             	mov    %r12d,%esi
    a0e5:	89 c7                	mov    %eax,%edi
    a0e7:	e8 13 a6 ff ff       	callq  46ff <safe_div_func_int32_t_s_s>
    a0ec:	44 89 ee             	mov    %r13d,%esi
    a0ef:	bf 01 00 00 00       	mov    $0x1,%edi
    a0f4:	e8 94 ab ff ff       	callq  4c8d <safe_rshift_func_uint8_t_u_s>
    a0f9:	0f b6 c0             	movzbl %al,%eax
    a0fc:	89 de                	mov    %ebx,%esi
    a0fe:	89 c7                	mov    %eax,%edi
    a100:	e8 8e aa ff ff       	callq  4b93 <safe_mul_func_uint8_t_u_u>
    a105:	48 8b 85 08 e5 ff ff 	mov    -0x1af8(%rbp),%rax
    a10c:	48 85 c0             	test   %rax,%rax
    a10f:	48 8b 05 aa 99 00 00 	mov    0x99aa(%rip),%rax        # 13ac0 <g_21>
    a116:	8b 00                	mov    (%rax),%eax
    a118:	85 c0                	test   %eax,%eax
    a11a:	0f 84 e4 00 00 00    	je     a204 <func_91+0x1ec0>
    a120:	66 c7 85 24 e4 ff ff 	movw   $0x1,-0x1bdc(%rbp)
    a127:	01 00 
    a129:	0f b6 05 80 8f 00 00 	movzbl 0x8f80(%rip),%eax        # 130b0 <g_181>
    a130:	48 0f be d0          	movsbq %al,%rdx
    a134:	48 8b 85 d8 e4 ff ff 	mov    -0x1b28(%rbp),%rax
    a13b:	48 39 c2             	cmp    %rax,%rdx
    a13e:	0f 95 c0             	setne  %al
    a141:	0f b6 c0             	movzbl %al,%eax
    a144:	89 c6                	mov    %eax,%esi
    a146:	bf 00 00 00 00       	mov    $0x0,%edi
    a14b:	e8 ed ab ff ff       	callq  4d3d <safe_mul_func_uint16_t_u_u>
    a150:	0f b7 d8             	movzwl %ax,%ebx
    a153:	48 be 02 f2 2e 2f 61 	movabs $0x2744a4612f2ef202,%rsi
    a15a:	a4 44 27 
    a15d:	bf 00 00 00 00       	mov    $0x0,%edi
    a162:	e8 19 af ff ff       	callq  5080 <safe_mod_func_uint64_t_u_u>
    a167:	48 39 c3             	cmp    %rax,%rbx
    a16a:	0f 96 c0             	setbe  %al
    a16d:	0f b6 d0             	movzbl %al,%edx
    a170:	8b 85 60 e5 ff ff    	mov    -0x1aa0(%rbp),%eax
    a176:	09 c2                	or     %eax,%edx
    a178:	48 8b 85 f0 e5 ff ff 	mov    -0x1a10(%rbp),%rax
    a17f:	8b 00                	mov    (%rax),%eax
    a181:	09 d0                	or     %edx,%eax
    a183:	89 c2                	mov    %eax,%edx
    a185:	48 8b 85 f0 e5 ff ff 	mov    -0x1a10(%rbp),%rax
    a18c:	89 10                	mov    %edx,(%rax)
    a18e:	0f b7 85 04 e4 ff ff 	movzwl -0x1bfc(%rbp),%eax
    a195:	0f b7 d0             	movzwl %ax,%edx
    a198:	48 8b 85 f0 e5 ff ff 	mov    -0x1a10(%rbp),%rax
    a19f:	89 10                	mov    %edx,(%rax)
    a1a1:	48 8b 85 40 e5 ff ff 	mov    -0x1ac0(%rbp),%rax
    a1a8:	48 8b 08             	mov    (%rax),%rcx
    a1ab:	8b 05 d7 a6 00 00    	mov    0xa6d7(%rip),%eax        # 14888 <g_22>
    a1b1:	48 63 d0             	movslq %eax,%rdx
    a1b4:	48 8b 85 40 e5 ff ff 	mov    -0x1ac0(%rbp),%rax
    a1bb:	48 31 ca             	xor    %rcx,%rdx
    a1be:	48 89 10             	mov    %rdx,(%rax)
    a1c1:	8b 05 f1 8e 00 00    	mov    0x8ef1(%rip),%eax        # 130b8 <g_206>
    a1c7:	85 c0                	test   %eax,%eax
    a1c9:	0f 95 c0             	setne  %al
    a1cc:	0f b6 c0             	movzbl %al,%eax
    a1cf:	be 0f 00 00 00       	mov    $0xf,%esi
    a1d4:	89 c7                	mov    %eax,%edi
    a1d6:	e8 6d ac ff ff       	callq  4e48 <safe_rshift_func_uint16_t_u_s>
    a1db:	0f b7 d0             	movzwl %ax,%edx
    a1de:	48 8b 85 e0 e5 ff ff 	mov    -0x1a20(%rbp),%rax
    a1e5:	89 10                	mov    %edx,(%rax)
    a1e7:	48 8b 85 e0 e5 ff ff 	mov    -0x1a20(%rbp),%rax
    a1ee:	8b 00                	mov    (%rax),%eax
    a1f0:	85 c0                	test   %eax,%eax
    a1f2:	0f 94 c0             	sete   %al
    a1f5:	0f b6 c0             	movzbl %al,%eax
    a1f8:	66 31 85 24 e4 ff ff 	xor    %ax,-0x1bdc(%rbp)
    a1ff:	e9 de 00 00 00       	jmpq   a2e2 <func_91+0x1f9e>
    a204:	48 8d 05 4d 8e 00 00 	lea    0x8e4d(%rip),%rax        # 13058 <g_149>
    a20b:	48 89 85 40 e6 ff ff 	mov    %rax,-0x19c0(%rbp)
    a212:	48 8d 85 f0 e8 ff ff 	lea    -0x1710(%rbp),%rax
    a219:	48 83 c0 10          	add    $0x10,%rax
    a21d:	48 89 85 48 e6 ff ff 	mov    %rax,-0x19b8(%rbp)
    a224:	48 8d 45 c0          	lea    -0x40(%rbp),%rax
    a228:	48 89 85 50 e6 ff ff 	mov    %rax,-0x19b0(%rbp)
    a22f:	48 8b 85 f8 e3 ff ff 	mov    -0x1c08(%rbp),%rax
    a236:	89 c3                	mov    %eax,%ebx
    a238:	48 8b 05 e9 8d 00 00 	mov    0x8de9(%rip),%rax        # 13028 <g_30>
    a23f:	48 85 c0             	test   %rax,%rax
    a242:	74 11                	je     a255 <func_91+0x1f11>
    a244:	8b 85 3c e4 ff ff    	mov    -0x1bc4(%rbp),%eax
    a24a:	85 c0                	test   %eax,%eax
    a24c:	74 07                	je     a255 <func_91+0x1f11>
    a24e:	be 01 00 00 00       	mov    $0x1,%esi
    a253:	eb 05                	jmp    a25a <func_91+0x1f16>
    a255:	be 00 00 00 00       	mov    $0x0,%esi
    a25a:	48 8d 85 08 e4 ff ff 	lea    -0x1bf8(%rbp),%rax
    a261:	48 39 85 38 e6 ff ff 	cmp    %rax,-0x19c8(%rbp)
    a268:	0f 95 c0             	setne  %al
    a26b:	0f b6 d0             	movzbl %al,%edx
    a26e:	48 8b 85 80 e5 ff ff 	mov    -0x1a80(%rbp),%rax
    a275:	48 89 10             	mov    %rdx,(%rax)
    a278:	48 8b 85 48 e6 ff ff 	mov    -0x19b8(%rbp),%rax
    a27f:	48 8b 95 30 e6 ff ff 	mov    -0x19d0(%rbp),%rdx
    a286:	48 89 10             	mov    %rdx,(%rax)
    a289:	48 8b 85 50 e6 ff ff 	mov    -0x19b0(%rbp),%rax
    a290:	0f b6 00             	movzbl (%rax),%eax
    a293:	8d 48 ff             	lea    -0x1(%rax),%ecx
    a296:	48 8b 95 50 e6 ff ff 	mov    -0x19b0(%rbp),%rdx
    a29d:	88 0a                	mov    %cl,(%rdx)
    a29f:	0f b6 c0             	movzbl %al,%eax
    a2a2:	89 c7                	mov    %eax,%edi
    a2a4:	e8 e4 a9 ff ff       	callq  4c8d <safe_rshift_func_uint8_t_u_s>
    a2a9:	0f b6 c0             	movzbl %al,%eax
    a2ac:	89 de                	mov    %ebx,%esi
    a2ae:	89 c7                	mov    %eax,%edi
    a2b0:	e8 03 ac ff ff       	callq  4eb8 <safe_add_func_uint32_t_u_u>
    a2b5:	48 8d 85 04 e4 ff ff 	lea    -0x1bfc(%rbp),%rax
    a2bc:	48 39 85 40 e6 ff ff 	cmp    %rax,-0x19c0(%rbp)
    a2c3:	8b 85 a8 e9 ff ff    	mov    -0x1658(%rbp),%eax
    a2c9:	89 c2                	mov    %eax,%edx
    a2cb:	8b 05 fb 8d 00 00    	mov    0x8dfb(%rip),%eax        # 130cc <g_268>
    a2d1:	39 c2                	cmp    %eax,%edx
    a2d3:	48 8b 05 56 98 00 00 	mov    0x9856(%rip),%rax        # 13b30 <g_119>
    a2da:	8b 00                	mov    (%rax),%eax
    a2dc:	89 85 38 e4 ff ff    	mov    %eax,-0x1bc8(%rbp)
    a2e2:	48 8b 85 08 e4 ff ff 	mov    -0x1bf8(%rbp),%rax
    a2e9:	48 85 c0             	test   %rax,%rax
    a2ec:	0f 84 d5 00 00 00    	je     a3c7 <func_91+0x2083>
    a2f2:	c6 05 b7 8d 00 00 1d 	movb   $0x1d,0x8db7(%rip)        # 130b0 <g_181>
    a2f9:	eb 66                	jmp    a361 <func_91+0x201d>
    a2fb:	0f b6 05 42 8d 00 00 	movzbl 0x8d42(%rip),%eax        # 13044 <g_112>
    a302:	84 c0                	test   %al,%al
    a304:	74 05                	je     a30b <func_91+0x1fc7>
    a306:	e9 d5 e6 ff ff       	jmpq   89e0 <func_91+0x69c>
    a30b:	48 8b 05 26 99 00 00 	mov    0x9926(%rip),%rax        # 13c38 <g_230>
    a312:	48 8d 95 40 e9 ff ff 	lea    -0x16c0(%rbp),%rdx
    a319:	48 83 c2 68          	add    $0x68,%rdx
    a31d:	48 89 10             	mov    %rdx,(%rax)
    a320:	48 8b 95 f8 e3 ff ff 	mov    -0x1c08(%rbp),%rdx
    a327:	48 8b 05 92 97 00 00 	mov    0x9792(%rip),%rax        # 13ac0 <g_21>
    a32e:	89 10                	mov    %edx,(%rax)
    a330:	8b 85 3c e4 ff ff    	mov    -0x1bc4(%rbp),%eax
    a336:	0f b7 c0             	movzwl %ax,%eax
    a339:	be 06 00 00 00       	mov    $0x6,%esi
    a33e:	89 c7                	mov    %eax,%edi
    a340:	e8 c1 aa ff ff       	callq  4e06 <safe_lshift_func_uint16_t_u_u>
    a345:	0f b7 d0             	movzwl %ax,%edx
    a348:	48 8b 85 f0 e5 ff ff 	mov    -0x1a10(%rbp),%rax
    a34f:	89 10                	mov    %edx,(%rax)
    a351:	0f b6 05 58 8d 00 00 	movzbl 0x8d58(%rip),%eax        # 130b0 <g_181>
    a358:	83 e8 01             	sub    $0x1,%eax
    a35b:	88 05 4f 8d 00 00    	mov    %al,0x8d4f(%rip)        # 130b0 <g_181>
    a361:	0f b6 05 48 8d 00 00 	movzbl 0x8d48(%rip),%eax        # 130b0 <g_181>
    a368:	3c ec                	cmp    $0xec,%al
    a36a:	75 8f                	jne    a2fb <func_91+0x1fb7>
    a36c:	48 8b 85 10 e5 ff ff 	mov    -0x1af0(%rbp),%rax
    a373:	48 85 c0             	test   %rax,%rax
    a376:	0f 85 5d 3c 00 00    	jne    dfd9 <func_91+0x5c95>
    a37c:	c7 85 44 e4 ff ff 00 	movl   $0x0,-0x1bbc(%rbp)
    a383:	00 00 00 
    a386:	eb 2f                	jmp    a3b7 <func_91+0x2073>
    a388:	48 8b 05 a1 97 00 00 	mov    0x97a1(%rip),%rax        # 13b30 <g_119>
    a38f:	8b 00                	mov    (%rax),%eax
    a391:	85 c0                	test   %eax,%eax
    a393:	0f 85 c7 07 00 00    	jne    ab60 <func_91+0x281c>
    a399:	8b 85 44 e4 ff ff    	mov    -0x1bbc(%rbp),%eax
    a39f:	0f b7 c0             	movzwl %ax,%eax
    a3a2:	be 07 00 00 00       	mov    $0x7,%esi
    a3a7:	89 c7                	mov    %eax,%edi
    a3a9:	e8 71 a9 ff ff       	callq  4d1f <safe_sub_func_uint16_t_u_u>
    a3ae:	0f b7 c0             	movzwl %ax,%eax
    a3b1:	89 85 44 e4 ff ff    	mov    %eax,-0x1bbc(%rbp)
    a3b7:	8b 85 44 e4 ff ff    	mov    -0x1bbc(%rbp),%eax
    a3bd:	83 f8 e4             	cmp    $0xffffffe4,%eax
    a3c0:	74 c6                	je     a388 <func_91+0x2044>
    a3c2:	e9 9a 07 00 00       	jmpq   ab61 <func_91+0x281d>
    a3c7:	48 8d 05 fe 8c 00 00 	lea    0x8cfe(%rip),%rax        # 130cc <g_268>
    a3ce:	48 89 85 58 e6 ff ff 	mov    %rax,-0x19a8(%rbp)
    a3d5:	c7 85 a0 e4 ff ff 06 	movl   $0x6,-0x1b60(%rbp)
    a3dc:	00 00 00 
    a3df:	c7 85 4c e4 ff ff 00 	movl   $0x0,-0x1bb4(%rbp)
    a3e6:	00 00 00 
    a3e9:	eb 1e                	jmp    a409 <func_91+0x20c5>
    a3eb:	8b 85 4c e4 ff ff    	mov    -0x1bb4(%rbp),%eax
    a3f1:	48 98                	cltq   
    a3f3:	48 8d 95 60 e5 ff ff 	lea    -0x1aa0(%rbp),%rdx
    a3fa:	48 89 94 c5 a0 e8 ff 	mov    %rdx,-0x1760(%rbp,%rax,8)
    a401:	ff 
    a402:	83 85 4c e4 ff ff 01 	addl   $0x1,-0x1bb4(%rbp)
    a409:	83 bd 4c e4 ff ff 03 	cmpl   $0x3,-0x1bb4(%rbp)
    a410:	7e d9                	jle    a3eb <func_91+0x20a7>
    a412:	c7 85 4c e4 ff ff 00 	movl   $0x0,-0x1bb4(%rbp)
    a419:	00 00 00 
    a41c:	eb 1a                	jmp    a438 <func_91+0x20f4>
    a41e:	8b 85 4c e4 ff ff    	mov    -0x1bb4(%rbp),%eax
    a424:	48 98                	cltq   
    a426:	c7 84 85 20 e8 ff ff 	movl   $0x7,-0x17e0(%rbp,%rax,4)
    a42d:	07 00 00 00 
    a431:	83 85 4c e4 ff ff 01 	addl   $0x1,-0x1bb4(%rbp)
    a438:	83 bd 4c e4 ff ff 05 	cmpl   $0x5,-0x1bb4(%rbp)
    a43f:	7e dd                	jle    a41e <func_91+0x20da>
    a441:	48 8b 05 f8 97 00 00 	mov    0x97f8(%rip),%rax        # 13c40 <g_280>
    a448:	48 8b 10             	mov    (%rax),%rdx
    a44b:	48 c7 85 58 e6 ff ff 	movq   $0x0,-0x19a8(%rbp)
    a452:	00 00 00 00 
    a456:	48 8b 85 58 e6 ff ff 	mov    -0x19a8(%rbp),%rax
    a45d:	48 89 85 b8 e8 ff ff 	mov    %rax,-0x1748(%rbp)
    a464:	48 8b 85 b8 e8 ff ff 	mov    -0x1748(%rbp),%rax
    a46b:	48 39 c2             	cmp    %rax,%rdx
    a46e:	0f 85 e6 04 00 00    	jne    a95a <func_91+0x2616>
    a474:	48 8d 85 3c e4 ff ff 	lea    -0x1bc4(%rbp),%rax
    a47b:	48 89 85 68 e6 ff ff 	mov    %rax,-0x1998(%rbp)
    a482:	48 8d 05 2f 8c 00 00 	lea    0x8c2f(%rip),%rax        # 130b8 <g_206>
    a489:	48 89 85 f0 f2 ff ff 	mov    %rax,-0xd10(%rbp)
    a490:	48 c7 85 f8 f2 ff ff 	movq   $0x0,-0xd08(%rbp)
    a497:	00 00 00 00 
    a49b:	48 8d 85 40 e9 ff ff 	lea    -0x16c0(%rbp),%rax
    a4a2:	48 83 c0 38          	add    $0x38,%rax
    a4a6:	48 89 85 00 f3 ff ff 	mov    %rax,-0xd00(%rbp)
    a4ad:	48 8d 85 44 e4 ff ff 	lea    -0x1bbc(%rbp),%rax
    a4b4:	48 89 85 08 f3 ff ff 	mov    %rax,-0xcf8(%rbp)
    a4bb:	48 c7 85 10 f3 ff ff 	movq   $0x0,-0xcf0(%rbp)
    a4c2:	00 00 00 00 
    a4c6:	48 8d 85 40 e9 ff ff 	lea    -0x16c0(%rbp),%rax
    a4cd:	48 83 c0 6c          	add    $0x6c,%rax
    a4d1:	48 89 85 18 f3 ff ff 	mov    %rax,-0xce8(%rbp)
    a4d8:	48 8d 85 44 e4 ff ff 	lea    -0x1bbc(%rbp),%rax
    a4df:	48 89 85 20 f3 ff ff 	mov    %rax,-0xce0(%rbp)
    a4e6:	48 8d 85 40 e9 ff ff 	lea    -0x16c0(%rbp),%rax
    a4ed:	48 83 c0 6c          	add    $0x6c,%rax
    a4f1:	48 89 85 28 f3 ff ff 	mov    %rax,-0xcd8(%rbp)
    a4f8:	48 c7 85 30 f3 ff ff 	movq   $0x0,-0xcd0(%rbp)
    a4ff:	00 00 00 00 
    a503:	48 8d 85 3c e4 ff ff 	lea    -0x1bc4(%rbp),%rax
    a50a:	48 89 85 38 f3 ff ff 	mov    %rax,-0xcc8(%rbp)
    a511:	48 c7 85 40 f3 ff ff 	movq   $0x0,-0xcc0(%rbp)
    a518:	00 00 00 00 
    a51c:	48 8d 85 40 e9 ff ff 	lea    -0x16c0(%rbp),%rax
    a523:	48 83 c0 6c          	add    $0x6c,%rax
    a527:	48 89 85 48 f3 ff ff 	mov    %rax,-0xcb8(%rbp)
    a52e:	48 8d 85 38 e4 ff ff 	lea    -0x1bc8(%rbp),%rax
    a535:	48 89 85 50 f3 ff ff 	mov    %rax,-0xcb0(%rbp)
    a53c:	48 8d 05 75 8b 00 00 	lea    0x8b75(%rip),%rax        # 130b8 <g_206>
    a543:	48 89 85 58 f3 ff ff 	mov    %rax,-0xca8(%rbp)
    a54a:	48 8d 85 40 e9 ff ff 	lea    -0x16c0(%rbp),%rax
    a551:	48 83 c0 38          	add    $0x38,%rax
    a555:	48 89 85 60 f3 ff ff 	mov    %rax,-0xca0(%rbp)
    a55c:	48 8d 85 40 e9 ff ff 	lea    -0x16c0(%rbp),%rax
    a563:	48 83 c0 68          	add    $0x68,%rax
    a567:	48 89 85 68 f3 ff ff 	mov    %rax,-0xc98(%rbp)
    a56e:	48 8d 85 28 e4 ff ff 	lea    -0x1bd8(%rbp),%rax
    a575:	48 89 85 70 f3 ff ff 	mov    %rax,-0xc90(%rbp)
    a57c:	48 8d 85 40 e9 ff ff 	lea    -0x16c0(%rbp),%rax
    a583:	48 83 c0 38          	add    $0x38,%rax
    a587:	48 89 85 78 f3 ff ff 	mov    %rax,-0xc88(%rbp)
    a58e:	48 8d 85 38 e4 ff ff 	lea    -0x1bc8(%rbp),%rax
    a595:	48 89 85 80 f3 ff ff 	mov    %rax,-0xc80(%rbp)
    a59c:	48 c7 85 88 f3 ff ff 	movq   $0x0,-0xc78(%rbp)
    a5a3:	00 00 00 00 
    a5a7:	48 8d 85 28 e4 ff ff 	lea    -0x1bd8(%rbp),%rax
    a5ae:	48 89 85 90 f3 ff ff 	mov    %rax,-0xc70(%rbp)
    a5b5:	48 8d 85 3c e4 ff ff 	lea    -0x1bc4(%rbp),%rax
    a5bc:	48 89 85 98 f3 ff ff 	mov    %rax,-0xc68(%rbp)
    a5c3:	48 8d 85 3c e4 ff ff 	lea    -0x1bc4(%rbp),%rax
    a5ca:	48 89 85 a0 f3 ff ff 	mov    %rax,-0xc60(%rbp)
    a5d1:	48 c7 85 a8 f3 ff ff 	movq   $0x0,-0xc58(%rbp)
    a5d8:	00 00 00 00 
    a5dc:	48 8d 85 44 e4 ff ff 	lea    -0x1bbc(%rbp),%rax
    a5e3:	48 89 85 b0 f3 ff ff 	mov    %rax,-0xc50(%rbp)
    a5ea:	48 c7 85 b8 f3 ff ff 	movq   $0x0,-0xc48(%rbp)
    a5f1:	00 00 00 00 
    a5f5:	48 8d 05 bc 8a 00 00 	lea    0x8abc(%rip),%rax        # 130b8 <g_206>
    a5fc:	48 89 85 c0 f3 ff ff 	mov    %rax,-0xc40(%rbp)
    a603:	48 8d 85 44 e4 ff ff 	lea    -0x1bbc(%rbp),%rax
    a60a:	48 89 85 c8 f3 ff ff 	mov    %rax,-0xc38(%rbp)
    a611:	48 8d 85 28 e4 ff ff 	lea    -0x1bd8(%rbp),%rax
    a618:	48 89 85 d0 f3 ff ff 	mov    %rax,-0xc30(%rbp)
    a61f:	48 8d 85 28 e4 ff ff 	lea    -0x1bd8(%rbp),%rax
    a626:	48 89 85 d8 f3 ff ff 	mov    %rax,-0xc28(%rbp)
    a62d:	48 8d 05 84 8a 00 00 	lea    0x8a84(%rip),%rax        # 130b8 <g_206>
    a634:	48 89 85 e0 f3 ff ff 	mov    %rax,-0xc20(%rbp)
    a63b:	48 8d 05 76 8a 00 00 	lea    0x8a76(%rip),%rax        # 130b8 <g_206>
    a642:	48 89 85 e8 f3 ff ff 	mov    %rax,-0xc18(%rbp)
    a649:	48 8d 05 68 8a 00 00 	lea    0x8a68(%rip),%rax        # 130b8 <g_206>
    a650:	48 89 85 f0 f3 ff ff 	mov    %rax,-0xc10(%rbp)
    a657:	48 8d 05 5a 8a 00 00 	lea    0x8a5a(%rip),%rax        # 130b8 <g_206>
    a65e:	48 89 85 f8 f3 ff ff 	mov    %rax,-0xc08(%rbp)
    a665:	48 c7 85 00 f4 ff ff 	movq   $0x0,-0xc00(%rbp)
    a66c:	00 00 00 00 
    a670:	48 c7 85 08 f4 ff ff 	movq   $0x0,-0xbf8(%rbp)
    a677:	00 00 00 00 
    a67b:	48 8d 85 3c e4 ff ff 	lea    -0x1bc4(%rbp),%rax
    a682:	48 89 85 10 f4 ff ff 	mov    %rax,-0xbf0(%rbp)
    a689:	48 8d 85 40 e9 ff ff 	lea    -0x16c0(%rbp),%rax
    a690:	48 83 c0 6c          	add    $0x6c,%rax
    a694:	48 89 85 18 f4 ff ff 	mov    %rax,-0xbe8(%rbp)
    a69b:	48 8d 85 28 e4 ff ff 	lea    -0x1bd8(%rbp),%rax
    a6a2:	48 89 85 20 f4 ff ff 	mov    %rax,-0xbe0(%rbp)
    a6a9:	48 8d 05 08 8a 00 00 	lea    0x8a08(%rip),%rax        # 130b8 <g_206>
    a6b0:	48 89 85 28 f4 ff ff 	mov    %rax,-0xbd8(%rbp)
    a6b7:	48 c7 85 30 f4 ff ff 	movq   $0x0,-0xbd0(%rbp)
    a6be:	00 00 00 00 
    a6c2:	48 8d 85 40 e9 ff ff 	lea    -0x16c0(%rbp),%rax
    a6c9:	48 83 c0 38          	add    $0x38,%rax
    a6cd:	48 89 85 38 f4 ff ff 	mov    %rax,-0xbc8(%rbp)
    a6d4:	48 8d 05 dd 89 00 00 	lea    0x89dd(%rip),%rax        # 130b8 <g_206>
    a6db:	48 89 85 40 f4 ff ff 	mov    %rax,-0xbc0(%rbp)
    a6e2:	48 c7 85 48 f4 ff ff 	movq   $0x0,-0xbb8(%rbp)
    a6e9:	00 00 00 00 
    a6ed:	48 8d 85 40 e9 ff ff 	lea    -0x16c0(%rbp),%rax
    a6f4:	48 83 c0 38          	add    $0x38,%rax
    a6f8:	48 89 85 50 f4 ff ff 	mov    %rax,-0xbb0(%rbp)
    a6ff:	48 8d 85 44 e4 ff ff 	lea    -0x1bbc(%rbp),%rax
    a706:	48 89 85 58 f4 ff ff 	mov    %rax,-0xba8(%rbp)
    a70d:	48 c7 85 60 f4 ff ff 	movq   $0x0,-0xba0(%rbp)
    a714:	00 00 00 00 
    a718:	48 8d 85 40 e9 ff ff 	lea    -0x16c0(%rbp),%rax
    a71f:	48 83 c0 6c          	add    $0x6c,%rax
    a723:	48 89 85 68 f4 ff ff 	mov    %rax,-0xb98(%rbp)
    a72a:	48 8d 85 44 e4 ff ff 	lea    -0x1bbc(%rbp),%rax
    a731:	48 89 85 70 f4 ff ff 	mov    %rax,-0xb90(%rbp)
    a738:	48 8d 85 40 e9 ff ff 	lea    -0x16c0(%rbp),%rax
    a73f:	48 83 c0 6c          	add    $0x6c,%rax
    a743:	48 89 85 78 f4 ff ff 	mov    %rax,-0xb88(%rbp)
    a74a:	48 c7 85 80 f4 ff ff 	movq   $0x0,-0xb80(%rbp)
    a751:	00 00 00 00 
    a755:	48 8d 85 3c e4 ff ff 	lea    -0x1bc4(%rbp),%rax
    a75c:	48 89 85 88 f4 ff ff 	mov    %rax,-0xb78(%rbp)
    a763:	48 c7 85 90 f4 ff ff 	movq   $0x0,-0xb70(%rbp)
    a76a:	00 00 00 00 
    a76e:	48 8d 85 40 e9 ff ff 	lea    -0x16c0(%rbp),%rax
    a775:	48 83 c0 6c          	add    $0x6c,%rax
    a779:	48 89 85 98 f4 ff ff 	mov    %rax,-0xb68(%rbp)
    a780:	48 8d 85 38 e4 ff ff 	lea    -0x1bc8(%rbp),%rax
    a787:	48 89 85 a0 f4 ff ff 	mov    %rax,-0xb60(%rbp)
    a78e:	48 8d 05 23 89 00 00 	lea    0x8923(%rip),%rax        # 130b8 <g_206>
    a795:	48 89 85 a8 f4 ff ff 	mov    %rax,-0xb58(%rbp)
    a79c:	48 8d 85 40 e9 ff ff 	lea    -0x16c0(%rbp),%rax
    a7a3:	48 83 c0 38          	add    $0x38,%rax
    a7a7:	48 89 85 b0 f4 ff ff 	mov    %rax,-0xb50(%rbp)
    a7ae:	48 8d 85 40 e9 ff ff 	lea    -0x16c0(%rbp),%rax
    a7b5:	48 83 c0 68          	add    $0x68,%rax
    a7b9:	48 89 85 b8 f4 ff ff 	mov    %rax,-0xb48(%rbp)
    a7c0:	48 8d 85 28 e4 ff ff 	lea    -0x1bd8(%rbp),%rax
    a7c7:	48 89 85 c0 f4 ff ff 	mov    %rax,-0xb40(%rbp)
    a7ce:	48 8d 85 40 e9 ff ff 	lea    -0x16c0(%rbp),%rax
    a7d5:	48 83 c0 38          	add    $0x38,%rax
    a7d9:	48 89 85 c8 f4 ff ff 	mov    %rax,-0xb38(%rbp)
    a7e0:	48 8d 85 38 e4 ff ff 	lea    -0x1bc8(%rbp),%rax
    a7e7:	48 89 85 d0 f4 ff ff 	mov    %rax,-0xb30(%rbp)
    a7ee:	48 8d 05 db 88 00 00 	lea    0x88db(%rip),%rax        # 130d0 <g_271>
    a7f5:	48 89 85 d8 f4 ff ff 	mov    %rax,-0xb28(%rbp)
    a7fc:	48 8d 05 b5 88 00 00 	lea    0x88b5(%rip),%rax        # 130b8 <g_206>
    a803:	48 89 85 e0 f4 ff ff 	mov    %rax,-0xb20(%rbp)
    a80a:	48 8d 85 40 e9 ff ff 	lea    -0x16c0(%rbp),%rax
    a811:	48 83 c0 38          	add    $0x38,%rax
    a815:	48 89 85 e8 f4 ff ff 	mov    %rax,-0xb18(%rbp)
    a81c:	48 8d 05 65 a0 00 00 	lea    0xa065(%rip),%rax        # 14888 <g_22>
    a823:	48 89 85 f0 f4 ff ff 	mov    %rax,-0xb10(%rbp)
    a82a:	48 8d 05 9f 88 00 00 	lea    0x889f(%rip),%rax        # 130d0 <g_271>
    a831:	48 89 85 f8 f4 ff ff 	mov    %rax,-0xb08(%rbp)
    a838:	48 c7 85 00 f5 ff ff 	movq   $0x0,-0xb00(%rbp)
    a83f:	00 00 00 00 
    a843:	48 8d 05 86 88 00 00 	lea    0x8886(%rip),%rax        # 130d0 <g_271>
    a84a:	48 89 85 08 f5 ff ff 	mov    %rax,-0xaf8(%rbp)
    a851:	48 8d 85 44 e4 ff ff 	lea    -0x1bbc(%rbp),%rax
    a858:	48 89 85 10 f5 ff ff 	mov    %rax,-0xaf0(%rbp)
    a85f:	48 8d 85 28 e4 ff ff 	lea    -0x1bd8(%rbp),%rax
    a866:	48 89 85 18 f5 ff ff 	mov    %rax,-0xae8(%rbp)
    a86d:	48 8d 05 44 88 00 00 	lea    0x8844(%rip),%rax        # 130b8 <g_206>
    a874:	48 89 85 20 f5 ff ff 	mov    %rax,-0xae0(%rbp)
    a87b:	48 8d 05 36 88 00 00 	lea    0x8836(%rip),%rax        # 130b8 <g_206>
    a882:	48 89 85 28 f5 ff ff 	mov    %rax,-0xad8(%rbp)
    a889:	48 8d 05 28 88 00 00 	lea    0x8828(%rip),%rax        # 130b8 <g_206>
    a890:	48 89 85 30 f5 ff ff 	mov    %rax,-0xad0(%rbp)
    a897:	48 8d 85 44 e4 ff ff 	lea    -0x1bbc(%rbp),%rax
    a89e:	48 89 85 38 f5 ff ff 	mov    %rax,-0xac8(%rbp)
    a8a5:	48 8d 85 44 e4 ff ff 	lea    -0x1bbc(%rbp),%rax
    a8ac:	48 89 85 40 f5 ff ff 	mov    %rax,-0xac0(%rbp)
    a8b3:	48 8d 05 fe 87 00 00 	lea    0x87fe(%rip),%rax        # 130b8 <g_206>
    a8ba:	48 89 85 48 f5 ff ff 	mov    %rax,-0xab8(%rbp)
    a8c1:	48 8d 05 08 88 00 00 	lea    0x8808(%rip),%rax        # 130d0 <g_271>
    a8c8:	48 89 85 50 f5 ff ff 	mov    %rax,-0xab0(%rbp)
    a8cf:	48 8d 05 fa 87 00 00 	lea    0x87fa(%rip),%rax        # 130d0 <g_271>
    a8d6:	48 89 85 58 f5 ff ff 	mov    %rax,-0xaa8(%rbp)
    a8dd:	48 8d 85 40 e9 ff ff 	lea    -0x16c0(%rbp),%rax
    a8e4:	48 83 c0 38          	add    $0x38,%rax
    a8e8:	48 89 85 60 f5 ff ff 	mov    %rax,-0xaa0(%rbp)
    a8ef:	48 8d 85 40 e9 ff ff 	lea    -0x16c0(%rbp),%rax
    a8f6:	48 83 c0 68          	add    $0x68,%rax
    a8fa:	48 89 85 68 f5 ff ff 	mov    %rax,-0xa98(%rbp)
    a901:	48 8d 05 b0 87 00 00 	lea    0x87b0(%rip),%rax        # 130b8 <g_206>
    a908:	48 89 85 70 f5 ff ff 	mov    %rax,-0xa90(%rbp)
    a90f:	48 8d 05 a2 87 00 00 	lea    0x87a2(%rip),%rax        # 130b8 <g_206>
    a916:	48 89 85 78 f5 ff ff 	mov    %rax,-0xa88(%rbp)
    a91d:	48 8d 05 ac 87 00 00 	lea    0x87ac(%rip),%rax        # 130d0 <g_271>
    a924:	48 89 85 80 f5 ff ff 	mov    %rax,-0xa80(%rbp)
    a92b:	48 c7 85 88 f5 ff ff 	movq   $0x0,-0xa78(%rbp)
    a932:	00 00 00 00 
    a936:	8b 85 28 e8 ff ff    	mov    -0x17d8(%rbp),%eax
    a93c:	83 c0 01             	add    $0x1,%eax
    a93f:	89 85 28 e8 ff ff    	mov    %eax,-0x17d8(%rbp)
    a945:	0f b7 85 04 e4 ff ff 	movzwl -0x1bfc(%rbp),%eax
    a94c:	66 85 c0             	test   %ax,%ax
    a94f:	0f 84 0c 02 00 00    	je     ab61 <func_91+0x281d>
    a955:	e9 89 36 00 00       	jmpq   dfe3 <func_91+0x5c9f>
    a95a:	48 8d 05 03 47 00 00 	lea    0x4703(%rip),%rax        # f064 <g_354+0xc>
    a961:	48 89 85 f0 f2 ff ff 	mov    %rax,-0xd10(%rbp)
    a968:	48 8d 05 ef 46 00 00 	lea    0x46ef(%rip),%rax        # f05e <g_354+0x6>
    a96f:	48 89 85 f8 f2 ff ff 	mov    %rax,-0xd08(%rbp)
    a976:	48 8d 05 e7 46 00 00 	lea    0x46e7(%rip),%rax        # f064 <g_354+0xc>
    a97d:	48 89 85 00 f3 ff ff 	mov    %rax,-0xd00(%rbp)
    a984:	48 8d 05 d5 46 00 00 	lea    0x46d5(%rip),%rax        # f060 <g_354+0x8>
    a98b:	48 89 85 08 f3 ff ff 	mov    %rax,-0xcf8(%rbp)
    a992:	48 8d 05 bf 46 00 00 	lea    0x46bf(%rip),%rax        # f058 <g_354>
    a999:	48 89 85 10 f3 ff ff 	mov    %rax,-0xcf0(%rbp)
    a9a0:	48 8d 05 b1 46 00 00 	lea    0x46b1(%rip),%rax        # f058 <g_354>
    a9a7:	48 89 85 18 f3 ff ff 	mov    %rax,-0xce8(%rbp)
    a9ae:	48 8d 05 ab 46 00 00 	lea    0x46ab(%rip),%rax        # f060 <g_354+0x8>
    a9b5:	48 89 85 20 f3 ff ff 	mov    %rax,-0xce0(%rbp)
    a9bc:	48 8d 05 a1 46 00 00 	lea    0x46a1(%rip),%rax        # f064 <g_354+0xc>
    a9c3:	48 89 85 28 f3 ff ff 	mov    %rax,-0xcd8(%rbp)
    a9ca:	48 8d 05 8d 46 00 00 	lea    0x468d(%rip),%rax        # f05e <g_354+0x6>
    a9d1:	48 89 85 30 f3 ff ff 	mov    %rax,-0xcd0(%rbp)
    a9d8:	48 8d 05 85 46 00 00 	lea    0x4685(%rip),%rax        # f064 <g_354+0xc>
    a9df:	48 89 85 38 f3 ff ff 	mov    %rax,-0xcc8(%rbp)
    a9e6:	48 8d 05 73 46 00 00 	lea    0x4673(%rip),%rax        # f060 <g_354+0x8>
    a9ed:	48 89 85 40 f3 ff ff 	mov    %rax,-0xcc0(%rbp)
    a9f4:	48 8d 05 5d 46 00 00 	lea    0x465d(%rip),%rax        # f058 <g_354>
    a9fb:	48 89 85 48 f3 ff ff 	mov    %rax,-0xcb8(%rbp)
    aa02:	48 8d 05 4f 46 00 00 	lea    0x464f(%rip),%rax        # f058 <g_354>
    aa09:	48 89 85 50 f3 ff ff 	mov    %rax,-0xcb0(%rbp)
    aa10:	48 8d 05 49 46 00 00 	lea    0x4649(%rip),%rax        # f060 <g_354+0x8>
    aa17:	48 89 85 58 f3 ff ff 	mov    %rax,-0xca8(%rbp)
    aa1e:	48 8d 05 3f 46 00 00 	lea    0x463f(%rip),%rax        # f064 <g_354+0xc>
    aa25:	48 89 85 60 f3 ff ff 	mov    %rax,-0xca0(%rbp)
    aa2c:	48 8d 05 2b 46 00 00 	lea    0x462b(%rip),%rax        # f05e <g_354+0x6>
    aa33:	48 89 85 68 f3 ff ff 	mov    %rax,-0xc98(%rbp)
    aa3a:	48 8d 05 23 46 00 00 	lea    0x4623(%rip),%rax        # f064 <g_354+0xc>
    aa41:	48 89 85 70 f3 ff ff 	mov    %rax,-0xc90(%rbp)
    aa48:	48 8d 05 11 46 00 00 	lea    0x4611(%rip),%rax        # f060 <g_354+0x8>
    aa4f:	48 89 85 78 f3 ff ff 	mov    %rax,-0xc88(%rbp)
    aa56:	48 8d 85 f0 f2 ff ff 	lea    -0xd10(%rbp),%rax
    aa5d:	48 83 c0 08          	add    $0x8,%rax
    aa61:	48 89 85 60 e6 ff ff 	mov    %rax,-0x19a0(%rbp)
    aa68:	48 8b 85 f0 e5 ff ff 	mov    -0x1a10(%rbp),%rax
    aa6f:	8b 00                	mov    (%rax),%eax
    aa71:	48 8b 95 08 e4 ff ff 	mov    -0x1bf8(%rbp),%rdx
    aa78:	31 c2                	xor    %eax,%edx
    aa7a:	48 8b 85 f0 e5 ff ff 	mov    -0x1a10(%rbp),%rax
    aa81:	89 10                	mov    %edx,(%rax)
    aa83:	0f b7 85 04 e4 ff ff 	movzwl -0x1bfc(%rbp),%eax
    aa8a:	66 85 c0             	test   %ax,%ax
    aa8d:	0f 85 49 35 00 00    	jne    dfdc <func_91+0x5c98>
    aa93:	48 8b 85 60 e6 ff ff 	mov    -0x19a0(%rbp),%rax
    aa9a:	48 c7 00 00 00 00 00 	movq   $0x0,(%rax)
    aaa1:	b8 01 00 00 00       	mov    $0x1,%eax
    aaa6:	21 85 a0 e4 ff ff    	and    %eax,-0x1b60(%rbp)
    aaac:	0f b7 85 04 e4 ff ff 	movzwl -0x1bfc(%rbp),%eax
    aab3:	0f b7 c0             	movzwl %ax,%eax
    aab6:	89 85 8c e4 ff ff    	mov    %eax,-0x1b74(%rbp)
    aabc:	e9 a0 00 00 00       	jmpq   ab61 <func_91+0x281d>
    aac1:	48 8d 85 40 e5 ff ff 	lea    -0x1ac0(%rbp),%rax
    aac8:	48 89 85 18 e6 ff ff 	mov    %rax,-0x19e8(%rbp)
    aacf:	48 8d 85 40 e5 ff ff 	lea    -0x1ac0(%rbp),%rax
    aad6:	48 89 85 f0 f2 ff ff 	mov    %rax,-0xd10(%rbp)
    aadd:	48 8d 85 40 e5 ff ff 	lea    -0x1ac0(%rbp),%rax
    aae4:	48 89 85 f8 f2 ff ff 	mov    %rax,-0xd08(%rbp)
    aaeb:	48 8d 85 40 e5 ff ff 	lea    -0x1ac0(%rbp),%rax
    aaf2:	48 89 85 00 f3 ff ff 	mov    %rax,-0xd00(%rbp)
    aaf9:	48 8d 85 40 e5 ff ff 	lea    -0x1ac0(%rbp),%rax
    ab00:	48 89 85 08 f3 ff ff 	mov    %rax,-0xcf8(%rbp)
    ab07:	48 8d 85 40 e5 ff ff 	lea    -0x1ac0(%rbp),%rax
    ab0e:	48 89 85 10 f3 ff ff 	mov    %rax,-0xcf0(%rbp)
    ab15:	48 8d 85 40 e5 ff ff 	lea    -0x1ac0(%rbp),%rax
    ab1c:	48 89 85 18 f3 ff ff 	mov    %rax,-0xce8(%rbp)
    ab23:	48 8d 85 40 e5 ff ff 	lea    -0x1ac0(%rbp),%rax
    ab2a:	48 89 85 20 f3 ff ff 	mov    %rax,-0xce0(%rbp)
    ab31:	48 8d 85 40 e5 ff ff 	lea    -0x1ac0(%rbp),%rax
    ab38:	48 89 85 28 f3 ff ff 	mov    %rax,-0xcd8(%rbp)
    ab3f:	48 8d 85 f0 f2 ff ff 	lea    -0xd10(%rbp),%rax
    ab46:	48 89 85 20 e6 ff ff 	mov    %rax,-0x19e0(%rbp)
    ab4d:	48 8b 85 20 e6 ff ff 	mov    -0x19e0(%rbp),%rax
    ab54:	48 8b 95 18 e6 ff ff 	mov    -0x19e8(%rbp),%rdx
    ab5b:	48 89 10             	mov    %rdx,(%rax)
    ab5e:	eb 01                	jmp    ab61 <func_91+0x281d>
    ab60:	90                   	nop
    ab61:	c6 05 48 85 00 00 fe 	movb   $0xfe,0x8548(%rip)        # 130b0 <g_181>
    ab68:	e9 68 1a 00 00       	jmpq   c5d5 <func_91+0x4291>
    ab6d:	48 8d 05 c4 84 00 00 	lea    0x84c4(%rip),%rax        # 13038 <g_37>
    ab74:	48 89 85 50 e5 ff ff 	mov    %rax,-0x1ab0(%rbp)
    ab7b:	48 c7 85 90 e6 ff ff 	movq   $0x0,-0x1970(%rbp)
    ab82:	00 00 00 00 
    ab86:	48 8d 85 10 e5 ff ff 	lea    -0x1af0(%rbp),%rax
    ab8d:	48 89 85 98 e6 ff ff 	mov    %rax,-0x1968(%rbp)
    ab94:	48 8d 85 10 e5 ff ff 	lea    -0x1af0(%rbp),%rax
    ab9b:	48 89 85 58 e5 ff ff 	mov    %rax,-0x1aa8(%rbp)
    aba2:	48 8d 05 bf 84 00 00 	lea    0x84bf(%rip),%rax        # 13068 <g_158>
    aba9:	48 89 85 a0 e6 ff ff 	mov    %rax,-0x1960(%rbp)
    abb0:	48 8d 05 b1 84 00 00 	lea    0x84b1(%rip),%rax        # 13068 <g_158>
    abb7:	48 89 85 a8 e6 ff ff 	mov    %rax,-0x1958(%rbp)
    abbe:	48 c7 85 60 e5 ff ff 	movq   $0x0,-0x1aa0(%rbp)
    abc5:	00 00 00 00 
    abc9:	48 8d 05 c8 9c 00 00 	lea    0x9cc8(%rip),%rax        # 14898 <g_90>
    abd0:	48 89 85 a0 e8 ff ff 	mov    %rax,-0x1760(%rbp)
    abd7:	48 8d 05 ba 9c 00 00 	lea    0x9cba(%rip),%rax        # 14898 <g_90>
    abde:	48 89 85 a8 e8 ff ff 	mov    %rax,-0x1758(%rbp)
    abe5:	48 8d 05 ac 9c 00 00 	lea    0x9cac(%rip),%rax        # 14898 <g_90>
    abec:	48 89 85 b0 e8 ff ff 	mov    %rax,-0x1750(%rbp)
    abf3:	48 8d 05 9e 9c 00 00 	lea    0x9c9e(%rip),%rax        # 14898 <g_90>
    abfa:	48 89 85 b8 e8 ff ff 	mov    %rax,-0x1748(%rbp)
    ac01:	48 8d 05 90 9c 00 00 	lea    0x9c90(%rip),%rax        # 14898 <g_90>
    ac08:	48 89 85 c0 e8 ff ff 	mov    %rax,-0x1740(%rbp)
    ac0f:	48 8d 05 82 9c 00 00 	lea    0x9c82(%rip),%rax        # 14898 <g_90>
    ac16:	48 89 85 c8 e8 ff ff 	mov    %rax,-0x1738(%rbp)
    ac1d:	48 8d 05 74 9c 00 00 	lea    0x9c74(%rip),%rax        # 14898 <g_90>
    ac24:	48 89 85 d0 e8 ff ff 	mov    %rax,-0x1730(%rbp)
    ac2b:	48 8d 05 66 9c 00 00 	lea    0x9c66(%rip),%rax        # 14898 <g_90>
    ac32:	48 89 85 d8 e8 ff ff 	mov    %rax,-0x1728(%rbp)
    ac39:	48 8d 05 58 9c 00 00 	lea    0x9c58(%rip),%rax        # 14898 <g_90>
    ac40:	48 89 85 e0 e8 ff ff 	mov    %rax,-0x1720(%rbp)
    ac47:	48 8d 05 4a 9c 00 00 	lea    0x9c4a(%rip),%rax        # 14898 <g_90>
    ac4e:	48 89 85 e8 e8 ff ff 	mov    %rax,-0x1718(%rbp)
    ac55:	48 8d 85 a0 e8 ff ff 	lea    -0x1760(%rbp),%rax
    ac5c:	48 83 c0 30          	add    $0x30,%rax
    ac60:	48 89 85 f0 f2 ff ff 	mov    %rax,-0xd10(%rbp)
    ac67:	48 8d 85 50 e5 ff ff 	lea    -0x1ab0(%rbp),%rax
    ac6e:	48 89 85 f8 f2 ff ff 	mov    %rax,-0xd08(%rbp)
    ac75:	48 c7 85 00 f3 ff ff 	movq   $0x0,-0xd00(%rbp)
    ac7c:	00 00 00 00 
    ac80:	48 8d 85 58 e5 ff ff 	lea    -0x1aa8(%rbp),%rax
    ac87:	48 89 85 08 f3 ff ff 	mov    %rax,-0xcf8(%rbp)
    ac8e:	48 c7 85 10 f3 ff ff 	movq   $0x0,-0xcf0(%rbp)
    ac95:	00 00 00 00 
    ac99:	48 8d 85 50 e5 ff ff 	lea    -0x1ab0(%rbp),%rax
    aca0:	48 89 85 18 f3 ff ff 	mov    %rax,-0xce8(%rbp)
    aca7:	48 8d 85 a0 e8 ff ff 	lea    -0x1760(%rbp),%rax
    acae:	48 83 c0 30          	add    $0x30,%rax
    acb2:	48 89 85 20 f3 ff ff 	mov    %rax,-0xce0(%rbp)
    acb9:	48 8d 85 50 e5 ff ff 	lea    -0x1ab0(%rbp),%rax
    acc0:	48 89 85 28 f3 ff ff 	mov    %rax,-0xcd8(%rbp)
    acc7:	48 c7 85 30 f3 ff ff 	movq   $0x0,-0xcd0(%rbp)
    acce:	00 00 00 00 
    acd2:	48 8d 85 58 e5 ff ff 	lea    -0x1aa8(%rbp),%rax
    acd9:	48 89 85 38 f3 ff ff 	mov    %rax,-0xcc8(%rbp)
    ace0:	48 c7 85 40 f3 ff ff 	movq   $0x0,-0xcc0(%rbp)
    ace7:	00 00 00 00 
    aceb:	48 8d 85 58 e5 ff ff 	lea    -0x1aa8(%rbp),%rax
    acf2:	48 89 85 48 f3 ff ff 	mov    %rax,-0xcb8(%rbp)
    acf9:	48 c7 85 50 f3 ff ff 	movq   $0x0,-0xcb0(%rbp)
    ad00:	00 00 00 00 
    ad04:	48 8d 85 50 e5 ff ff 	lea    -0x1ab0(%rbp),%rax
    ad0b:	48 89 85 58 f3 ff ff 	mov    %rax,-0xca8(%rbp)
    ad12:	48 8d 85 a0 e8 ff ff 	lea    -0x1760(%rbp),%rax
    ad19:	48 83 c0 30          	add    $0x30,%rax
    ad1d:	48 89 85 60 f3 ff ff 	mov    %rax,-0xca0(%rbp)
    ad24:	48 8d 85 50 e5 ff ff 	lea    -0x1ab0(%rbp),%rax
    ad2b:	48 89 85 68 f3 ff ff 	mov    %rax,-0xc98(%rbp)
    ad32:	48 c7 85 70 f3 ff ff 	movq   $0x0,-0xc90(%rbp)
    ad39:	00 00 00 00 
    ad3d:	48 8d 85 58 e5 ff ff 	lea    -0x1aa8(%rbp),%rax
    ad44:	48 89 85 78 f3 ff ff 	mov    %rax,-0xc88(%rbp)
    ad4b:	48 c7 85 80 f3 ff ff 	movq   $0x0,-0xc80(%rbp)
    ad52:	00 00 00 00 
    ad56:	48 8d 85 50 e5 ff ff 	lea    -0x1ab0(%rbp),%rax
    ad5d:	48 89 85 88 f3 ff ff 	mov    %rax,-0xc78(%rbp)
    ad64:	48 8d 85 a0 e8 ff ff 	lea    -0x1760(%rbp),%rax
    ad6b:	48 83 c0 30          	add    $0x30,%rax
    ad6f:	48 89 85 90 f3 ff ff 	mov    %rax,-0xc70(%rbp)
    ad76:	48 8d 85 58 e5 ff ff 	lea    -0x1aa8(%rbp),%rax
    ad7d:	48 89 85 98 f3 ff ff 	mov    %rax,-0xc68(%rbp)
    ad84:	48 c7 85 a0 f3 ff ff 	movq   $0x0,-0xc60(%rbp)
    ad8b:	00 00 00 00 
    ad8f:	48 8d 85 58 e5 ff ff 	lea    -0x1aa8(%rbp),%rax
    ad96:	48 89 85 a8 f3 ff ff 	mov    %rax,-0xc58(%rbp)
    ad9d:	48 8d 85 a0 e8 ff ff 	lea    -0x1760(%rbp),%rax
    ada4:	48 83 c0 30          	add    $0x30,%rax
    ada8:	48 89 85 b0 f3 ff ff 	mov    %rax,-0xc50(%rbp)
    adaf:	48 8d 85 60 e5 ff ff 	lea    -0x1aa0(%rbp),%rax
    adb6:	48 89 85 b8 f3 ff ff 	mov    %rax,-0xc48(%rbp)
    adbd:	48 8d 85 a0 e8 ff ff 	lea    -0x1760(%rbp),%rax
    adc4:	48 83 c0 30          	add    $0x30,%rax
    adc8:	48 89 85 c0 f3 ff ff 	mov    %rax,-0xc40(%rbp)
    adcf:	48 8d 85 58 e5 ff ff 	lea    -0x1aa8(%rbp),%rax
    add6:	48 89 85 c8 f3 ff ff 	mov    %rax,-0xc38(%rbp)
    addd:	48 c7 85 d0 f3 ff ff 	movq   $0x0,-0xc30(%rbp)
    ade4:	00 00 00 00 
    ade8:	48 8d 85 58 e5 ff ff 	lea    -0x1aa8(%rbp),%rax
    adef:	48 89 85 d8 f3 ff ff 	mov    %rax,-0xc28(%rbp)
    adf6:	48 8d 85 a0 e8 ff ff 	lea    -0x1760(%rbp),%rax
    adfd:	48 83 c0 30          	add    $0x30,%rax
    ae01:	48 89 85 e0 f3 ff ff 	mov    %rax,-0xc20(%rbp)
    ae08:	48 8d 85 50 e5 ff ff 	lea    -0x1ab0(%rbp),%rax
    ae0f:	48 89 85 e8 f3 ff ff 	mov    %rax,-0xc18(%rbp)
    ae16:	48 c7 85 f0 f3 ff ff 	movq   $0x0,-0xc10(%rbp)
    ae1d:	00 00 00 00 
    ae21:	48 8d 85 58 e5 ff ff 	lea    -0x1aa8(%rbp),%rax
    ae28:	48 89 85 f8 f3 ff ff 	mov    %rax,-0xc08(%rbp)
    ae2f:	48 c7 85 00 f4 ff ff 	movq   $0x0,-0xc00(%rbp)
    ae36:	00 00 00 00 
    ae3a:	48 8d 85 50 e5 ff ff 	lea    -0x1ab0(%rbp),%rax
    ae41:	48 89 85 08 f4 ff ff 	mov    %rax,-0xbf8(%rbp)
    ae48:	48 8d 85 a0 e8 ff ff 	lea    -0x1760(%rbp),%rax
    ae4f:	48 83 c0 30          	add    $0x30,%rax
    ae53:	48 89 85 10 f4 ff ff 	mov    %rax,-0xbf0(%rbp)
    ae5a:	48 8d 85 50 e5 ff ff 	lea    -0x1ab0(%rbp),%rax
    ae61:	48 89 85 18 f4 ff ff 	mov    %rax,-0xbe8(%rbp)
    ae68:	48 c7 85 20 f4 ff ff 	movq   $0x0,-0xbe0(%rbp)
    ae6f:	00 00 00 00 
    ae73:	48 8d 85 58 e5 ff ff 	lea    -0x1aa8(%rbp),%rax
    ae7a:	48 89 85 28 f4 ff ff 	mov    %rax,-0xbd8(%rbp)
    ae81:	48 c7 85 30 f4 ff ff 	movq   $0x0,-0xbd0(%rbp)
    ae88:	00 00 00 00 
    ae8c:	48 8d 85 58 e5 ff ff 	lea    -0x1aa8(%rbp),%rax
    ae93:	48 89 85 38 f4 ff ff 	mov    %rax,-0xbc8(%rbp)
    ae9a:	48 c7 85 40 f4 ff ff 	movq   $0x0,-0xbc0(%rbp)
    aea1:	00 00 00 00 
    aea5:	48 8d 85 50 e5 ff ff 	lea    -0x1ab0(%rbp),%rax
    aeac:	48 89 85 48 f4 ff ff 	mov    %rax,-0xbb8(%rbp)
    aeb3:	48 8d 85 a0 e8 ff ff 	lea    -0x1760(%rbp),%rax
    aeba:	48 83 c0 30          	add    $0x30,%rax
    aebe:	48 89 85 50 f4 ff ff 	mov    %rax,-0xbb0(%rbp)
    aec5:	48 8d 85 50 e5 ff ff 	lea    -0x1ab0(%rbp),%rax
    aecc:	48 89 85 58 f4 ff ff 	mov    %rax,-0xba8(%rbp)
    aed3:	48 c7 85 60 f4 ff ff 	movq   $0x0,-0xba0(%rbp)
    aeda:	00 00 00 00 
    aede:	48 8d 85 58 e5 ff ff 	lea    -0x1aa8(%rbp),%rax
    aee5:	48 89 85 68 f4 ff ff 	mov    %rax,-0xb98(%rbp)
    aeec:	48 c7 85 70 f4 ff ff 	movq   $0x0,-0xb90(%rbp)
    aef3:	00 00 00 00 
    aef7:	48 8d 85 50 e5 ff ff 	lea    -0x1ab0(%rbp),%rax
    aefe:	48 89 85 78 f4 ff ff 	mov    %rax,-0xb88(%rbp)
    af05:	48 8d 85 a0 e8 ff ff 	lea    -0x1760(%rbp),%rax
    af0c:	48 83 c0 30          	add    $0x30,%rax
    af10:	48 89 85 80 f4 ff ff 	mov    %rax,-0xb80(%rbp)
    af17:	48 8d 85 58 e5 ff ff 	lea    -0x1aa8(%rbp),%rax
    af1e:	48 89 85 88 f4 ff ff 	mov    %rax,-0xb78(%rbp)
    af25:	48 c7 85 90 f4 ff ff 	movq   $0x0,-0xb70(%rbp)
    af2c:	00 00 00 00 
    af30:	48 8d 85 58 e5 ff ff 	lea    -0x1aa8(%rbp),%rax
    af37:	48 89 85 98 f4 ff ff 	mov    %rax,-0xb68(%rbp)
    af3e:	48 8d 85 a0 e8 ff ff 	lea    -0x1760(%rbp),%rax
    af45:	48 83 c0 30          	add    $0x30,%rax
    af49:	48 89 85 a0 f4 ff ff 	mov    %rax,-0xb60(%rbp)
    af50:	48 8d 85 60 e5 ff ff 	lea    -0x1aa0(%rbp),%rax
    af57:	48 89 85 a8 f4 ff ff 	mov    %rax,-0xb58(%rbp)
    af5e:	48 8d 85 a0 e8 ff ff 	lea    -0x1760(%rbp),%rax
    af65:	48 83 c0 30          	add    $0x30,%rax
    af69:	48 89 85 b0 f4 ff ff 	mov    %rax,-0xb50(%rbp)
    af70:	48 8d 85 58 e5 ff ff 	lea    -0x1aa8(%rbp),%rax
    af77:	48 89 85 b8 f4 ff ff 	mov    %rax,-0xb48(%rbp)
    af7e:	48 c7 85 c0 f4 ff ff 	movq   $0x0,-0xb40(%rbp)
    af85:	00 00 00 00 
    af89:	48 8d 85 58 e5 ff ff 	lea    -0x1aa8(%rbp),%rax
    af90:	48 89 85 c8 f4 ff ff 	mov    %rax,-0xb38(%rbp)
    af97:	48 8d 85 a0 e8 ff ff 	lea    -0x1760(%rbp),%rax
    af9e:	48 83 c0 30          	add    $0x30,%rax
    afa2:	48 89 85 d0 f4 ff ff 	mov    %rax,-0xb30(%rbp)
    afa9:	48 8d 85 50 e5 ff ff 	lea    -0x1ab0(%rbp),%rax
    afb0:	48 89 85 d8 f4 ff ff 	mov    %rax,-0xb28(%rbp)
    afb7:	48 c7 85 e0 f4 ff ff 	movq   $0x0,-0xb20(%rbp)
    afbe:	00 00 00 00 
    afc2:	48 8d 85 58 e5 ff ff 	lea    -0x1aa8(%rbp),%rax
    afc9:	48 89 85 e8 f4 ff ff 	mov    %rax,-0xb18(%rbp)
    afd0:	48 c7 85 f0 f4 ff ff 	movq   $0x0,-0xb10(%rbp)
    afd7:	00 00 00 00 
    afdb:	48 8d 85 50 e5 ff ff 	lea    -0x1ab0(%rbp),%rax
    afe2:	48 89 85 f8 f4 ff ff 	mov    %rax,-0xb08(%rbp)
    afe9:	48 8d 85 a0 e8 ff ff 	lea    -0x1760(%rbp),%rax
    aff0:	48 83 c0 30          	add    $0x30,%rax
    aff4:	48 89 85 00 f5 ff ff 	mov    %rax,-0xb00(%rbp)
    affb:	48 8d 85 50 e5 ff ff 	lea    -0x1ab0(%rbp),%rax
    b002:	48 89 85 08 f5 ff ff 	mov    %rax,-0xaf8(%rbp)
    b009:	48 c7 85 10 f5 ff ff 	movq   $0x0,-0xaf0(%rbp)
    b010:	00 00 00 00 
    b014:	48 8d 85 58 e5 ff ff 	lea    -0x1aa8(%rbp),%rax
    b01b:	48 89 85 18 f5 ff ff 	mov    %rax,-0xae8(%rbp)
    b022:	48 c7 85 20 f5 ff ff 	movq   $0x0,-0xae0(%rbp)
    b029:	00 00 00 00 
    b02d:	48 8d 85 58 e5 ff ff 	lea    -0x1aa8(%rbp),%rax
    b034:	48 89 85 28 f5 ff ff 	mov    %rax,-0xad8(%rbp)
    b03b:	48 c7 85 30 f5 ff ff 	movq   $0x0,-0xad0(%rbp)
    b042:	00 00 00 00 
    b046:	48 8d 85 50 e5 ff ff 	lea    -0x1ab0(%rbp),%rax
    b04d:	48 89 85 38 f5 ff ff 	mov    %rax,-0xac8(%rbp)
    b054:	48 8d 85 a0 e8 ff ff 	lea    -0x1760(%rbp),%rax
    b05b:	48 83 c0 30          	add    $0x30,%rax
    b05f:	48 89 85 40 f5 ff ff 	mov    %rax,-0xac0(%rbp)
    b066:	48 8d 85 50 e5 ff ff 	lea    -0x1ab0(%rbp),%rax
    b06d:	48 89 85 48 f5 ff ff 	mov    %rax,-0xab8(%rbp)
    b074:	48 c7 85 50 f5 ff ff 	movq   $0x0,-0xab0(%rbp)
    b07b:	00 00 00 00 
    b07f:	48 8d 85 58 e5 ff ff 	lea    -0x1aa8(%rbp),%rax
    b086:	48 89 85 58 f5 ff ff 	mov    %rax,-0xaa8(%rbp)
    b08d:	48 c7 85 60 f5 ff ff 	movq   $0x0,-0xaa0(%rbp)
    b094:	00 00 00 00 
    b098:	48 8d 85 50 e5 ff ff 	lea    -0x1ab0(%rbp),%rax
    b09f:	48 89 85 68 f5 ff ff 	mov    %rax,-0xa98(%rbp)
    b0a6:	48 8d 85 a0 e8 ff ff 	lea    -0x1760(%rbp),%rax
    b0ad:	48 83 c0 30          	add    $0x30,%rax
    b0b1:	48 89 85 70 f5 ff ff 	mov    %rax,-0xa90(%rbp)
    b0b8:	48 8d 85 58 e5 ff ff 	lea    -0x1aa8(%rbp),%rax
    b0bf:	48 89 85 78 f5 ff ff 	mov    %rax,-0xa88(%rbp)
    b0c6:	48 c7 85 80 f5 ff ff 	movq   $0x0,-0xa80(%rbp)
    b0cd:	00 00 00 00 
    b0d1:	48 8d 85 58 e5 ff ff 	lea    -0x1aa8(%rbp),%rax
    b0d8:	48 89 85 88 f5 ff ff 	mov    %rax,-0xa78(%rbp)
    b0df:	48 8d 85 a0 e8 ff ff 	lea    -0x1760(%rbp),%rax
    b0e6:	48 83 c0 30          	add    $0x30,%rax
    b0ea:	48 89 85 90 f5 ff ff 	mov    %rax,-0xa70(%rbp)
    b0f1:	48 8d 85 60 e5 ff ff 	lea    -0x1aa0(%rbp),%rax
    b0f8:	48 89 85 98 f5 ff ff 	mov    %rax,-0xa68(%rbp)
    b0ff:	48 8d 85 a0 e8 ff ff 	lea    -0x1760(%rbp),%rax
    b106:	48 83 c0 30          	add    $0x30,%rax
    b10a:	48 89 85 a0 f5 ff ff 	mov    %rax,-0xa60(%rbp)
    b111:	48 8d 85 58 e5 ff ff 	lea    -0x1aa8(%rbp),%rax
    b118:	48 89 85 a8 f5 ff ff 	mov    %rax,-0xa58(%rbp)
    b11f:	48 c7 85 b0 f5 ff ff 	movq   $0x0,-0xa50(%rbp)
    b126:	00 00 00 00 
    b12a:	48 8d 85 58 e5 ff ff 	lea    -0x1aa8(%rbp),%rax
    b131:	48 89 85 b8 f5 ff ff 	mov    %rax,-0xa48(%rbp)
    b138:	48 8d 85 a0 e8 ff ff 	lea    -0x1760(%rbp),%rax
    b13f:	48 83 c0 30          	add    $0x30,%rax
    b143:	48 89 85 c0 f5 ff ff 	mov    %rax,-0xa40(%rbp)
    b14a:	48 8d 85 50 e5 ff ff 	lea    -0x1ab0(%rbp),%rax
    b151:	48 89 85 c8 f5 ff ff 	mov    %rax,-0xa38(%rbp)
    b158:	48 c7 85 d0 f5 ff ff 	movq   $0x0,-0xa30(%rbp)
    b15f:	00 00 00 00 
    b163:	48 8d 85 58 e5 ff ff 	lea    -0x1aa8(%rbp),%rax
    b16a:	48 89 85 d8 f5 ff ff 	mov    %rax,-0xa28(%rbp)
    b171:	48 c7 85 e0 f5 ff ff 	movq   $0x0,-0xa20(%rbp)
    b178:	00 00 00 00 
    b17c:	48 8d 85 50 e5 ff ff 	lea    -0x1ab0(%rbp),%rax
    b183:	48 89 85 e8 f5 ff ff 	mov    %rax,-0xa18(%rbp)
    b18a:	48 8d 85 a0 e8 ff ff 	lea    -0x1760(%rbp),%rax
    b191:	48 83 c0 30          	add    $0x30,%rax
    b195:	48 89 85 f0 f5 ff ff 	mov    %rax,-0xa10(%rbp)
    b19c:	48 8d 85 50 e5 ff ff 	lea    -0x1ab0(%rbp),%rax
    b1a3:	48 89 85 f8 f5 ff ff 	mov    %rax,-0xa08(%rbp)
    b1aa:	48 c7 85 00 f6 ff ff 	movq   $0x0,-0xa00(%rbp)
    b1b1:	00 00 00 00 
    b1b5:	48 8d 85 58 e5 ff ff 	lea    -0x1aa8(%rbp),%rax
    b1bc:	48 89 85 08 f6 ff ff 	mov    %rax,-0x9f8(%rbp)
    b1c3:	48 c7 85 10 f6 ff ff 	movq   $0x0,-0x9f0(%rbp)
    b1ca:	00 00 00 00 
    b1ce:	48 8d 85 58 e5 ff ff 	lea    -0x1aa8(%rbp),%rax
    b1d5:	48 89 85 18 f6 ff ff 	mov    %rax,-0x9e8(%rbp)
    b1dc:	48 c7 85 20 f6 ff ff 	movq   $0x0,-0x9e0(%rbp)
    b1e3:	00 00 00 00 
    b1e7:	48 8d 85 50 e5 ff ff 	lea    -0x1ab0(%rbp),%rax
    b1ee:	48 89 85 28 f6 ff ff 	mov    %rax,-0x9d8(%rbp)
    b1f5:	48 8d 85 a0 e8 ff ff 	lea    -0x1760(%rbp),%rax
    b1fc:	48 83 c0 30          	add    $0x30,%rax
    b200:	48 89 85 30 f6 ff ff 	mov    %rax,-0x9d0(%rbp)
    b207:	48 8d 85 50 e5 ff ff 	lea    -0x1ab0(%rbp),%rax
    b20e:	48 89 85 38 f6 ff ff 	mov    %rax,-0x9c8(%rbp)
    b215:	48 c7 85 40 f6 ff ff 	movq   $0x0,-0x9c0(%rbp)
    b21c:	00 00 00 00 
    b220:	48 8d 85 58 e5 ff ff 	lea    -0x1aa8(%rbp),%rax
    b227:	48 89 85 48 f6 ff ff 	mov    %rax,-0x9b8(%rbp)
    b22e:	48 c7 85 50 f6 ff ff 	movq   $0x0,-0x9b0(%rbp)
    b235:	00 00 00 00 
    b239:	48 8d 85 50 e5 ff ff 	lea    -0x1ab0(%rbp),%rax
    b240:	48 89 85 58 f6 ff ff 	mov    %rax,-0x9a8(%rbp)
    b247:	48 8d 85 a0 e8 ff ff 	lea    -0x1760(%rbp),%rax
    b24e:	48 83 c0 30          	add    $0x30,%rax
    b252:	48 89 85 60 f6 ff ff 	mov    %rax,-0x9a0(%rbp)
    b259:	48 8d 85 58 e5 ff ff 	lea    -0x1aa8(%rbp),%rax
    b260:	48 89 85 68 f6 ff ff 	mov    %rax,-0x998(%rbp)
    b267:	48 c7 85 70 f6 ff ff 	movq   $0x0,-0x990(%rbp)
    b26e:	00 00 00 00 
    b272:	48 8d 85 58 e5 ff ff 	lea    -0x1aa8(%rbp),%rax
    b279:	48 89 85 78 f6 ff ff 	mov    %rax,-0x988(%rbp)
    b280:	48 8d 85 a0 e8 ff ff 	lea    -0x1760(%rbp),%rax
    b287:	48 83 c0 30          	add    $0x30,%rax
    b28b:	48 89 85 80 f6 ff ff 	mov    %rax,-0x980(%rbp)
    b292:	48 8d 85 60 e5 ff ff 	lea    -0x1aa0(%rbp),%rax
    b299:	48 89 85 88 f6 ff ff 	mov    %rax,-0x978(%rbp)
    b2a0:	48 8d 85 a0 e8 ff ff 	lea    -0x1760(%rbp),%rax
    b2a7:	48 83 c0 30          	add    $0x30,%rax
    b2ab:	48 89 85 90 f6 ff ff 	mov    %rax,-0x970(%rbp)
    b2b2:	48 8d 85 58 e5 ff ff 	lea    -0x1aa8(%rbp),%rax
    b2b9:	48 89 85 98 f6 ff ff 	mov    %rax,-0x968(%rbp)
    b2c0:	48 c7 85 a0 f6 ff ff 	movq   $0x0,-0x960(%rbp)
    b2c7:	00 00 00 00 
    b2cb:	48 8d 85 58 e5 ff ff 	lea    -0x1aa8(%rbp),%rax
    b2d2:	48 89 85 a8 f6 ff ff 	mov    %rax,-0x958(%rbp)
    b2d9:	48 8d 85 a0 e8 ff ff 	lea    -0x1760(%rbp),%rax
    b2e0:	48 83 c0 30          	add    $0x30,%rax
    b2e4:	48 89 85 b0 f6 ff ff 	mov    %rax,-0x950(%rbp)
    b2eb:	48 8d 85 50 e5 ff ff 	lea    -0x1ab0(%rbp),%rax
    b2f2:	48 89 85 b8 f6 ff ff 	mov    %rax,-0x948(%rbp)
    b2f9:	48 c7 85 c0 f6 ff ff 	movq   $0x0,-0x940(%rbp)
    b300:	00 00 00 00 
    b304:	48 8d 85 58 e5 ff ff 	lea    -0x1aa8(%rbp),%rax
    b30b:	48 89 85 c8 f6 ff ff 	mov    %rax,-0x938(%rbp)
    b312:	48 c7 85 d0 f6 ff ff 	movq   $0x0,-0x930(%rbp)
    b319:	00 00 00 00 
    b31d:	48 8d 85 50 e5 ff ff 	lea    -0x1ab0(%rbp),%rax
    b324:	48 89 85 d8 f6 ff ff 	mov    %rax,-0x928(%rbp)
    b32b:	48 8d 85 a0 e8 ff ff 	lea    -0x1760(%rbp),%rax
    b332:	48 83 c0 30          	add    $0x30,%rax
    b336:	48 89 85 e0 f6 ff ff 	mov    %rax,-0x920(%rbp)
    b33d:	48 8d 85 50 e5 ff ff 	lea    -0x1ab0(%rbp),%rax
    b344:	48 89 85 e8 f6 ff ff 	mov    %rax,-0x918(%rbp)
    b34b:	48 c7 85 f0 f6 ff ff 	movq   $0x0,-0x910(%rbp)
    b352:	00 00 00 00 
    b356:	48 8d 85 58 e5 ff ff 	lea    -0x1aa8(%rbp),%rax
    b35d:	48 89 85 f8 f6 ff ff 	mov    %rax,-0x908(%rbp)
    b364:	48 c7 85 00 f7 ff ff 	movq   $0x0,-0x900(%rbp)
    b36b:	00 00 00 00 
    b36f:	48 8d 85 58 e5 ff ff 	lea    -0x1aa8(%rbp),%rax
    b376:	48 89 85 08 f7 ff ff 	mov    %rax,-0x8f8(%rbp)
    b37d:	48 c7 85 10 f7 ff ff 	movq   $0x0,-0x8f0(%rbp)
    b384:	00 00 00 00 
    b388:	48 8d 85 60 e5 ff ff 	lea    -0x1aa0(%rbp),%rax
    b38f:	48 89 85 18 f7 ff ff 	mov    %rax,-0x8e8(%rbp)
    b396:	48 c7 85 20 f7 ff ff 	movq   $0x0,-0x8e0(%rbp)
    b39d:	00 00 00 00 
    b3a1:	48 8d 85 60 e5 ff ff 	lea    -0x1aa0(%rbp),%rax
    b3a8:	48 89 85 28 f7 ff ff 	mov    %rax,-0x8d8(%rbp)
    b3af:	48 c7 85 30 f7 ff ff 	movq   $0x0,-0x8d0(%rbp)
    b3b6:	00 00 00 00 
    b3ba:	48 8d 85 50 e5 ff ff 	lea    -0x1ab0(%rbp),%rax
    b3c1:	48 89 85 38 f7 ff ff 	mov    %rax,-0x8c8(%rbp)
    b3c8:	48 c7 85 40 f7 ff ff 	movq   $0x0,-0x8c0(%rbp)
    b3cf:	00 00 00 00 
    b3d3:	48 8d 85 60 e5 ff ff 	lea    -0x1aa0(%rbp),%rax
    b3da:	48 89 85 48 f7 ff ff 	mov    %rax,-0x8b8(%rbp)
    b3e1:	48 c7 85 50 f7 ff ff 	movq   $0x0,-0x8b0(%rbp)
    b3e8:	00 00 00 00 
    b3ec:	48 8d 85 50 e5 ff ff 	lea    -0x1ab0(%rbp),%rax
    b3f3:	48 89 85 58 f7 ff ff 	mov    %rax,-0x8a8(%rbp)
    b3fa:	48 8d 85 a0 e8 ff ff 	lea    -0x1760(%rbp),%rax
    b401:	48 83 c0 30          	add    $0x30,%rax
    b405:	48 89 85 60 f7 ff ff 	mov    %rax,-0x8a0(%rbp)
    b40c:	48 8d 85 50 e5 ff ff 	lea    -0x1ab0(%rbp),%rax
    b413:	48 89 85 68 f7 ff ff 	mov    %rax,-0x898(%rbp)
    b41a:	48 c7 85 70 f7 ff ff 	movq   $0x0,-0x890(%rbp)
    b421:	00 00 00 00 
    b425:	48 8d 85 58 e5 ff ff 	lea    -0x1aa8(%rbp),%rax
    b42c:	48 89 85 78 f7 ff ff 	mov    %rax,-0x888(%rbp)
    b433:	48 c7 85 80 f7 ff ff 	movq   $0x0,-0x880(%rbp)
    b43a:	00 00 00 00 
    b43e:	48 8d 85 50 e5 ff ff 	lea    -0x1ab0(%rbp),%rax
    b445:	48 89 85 88 f7 ff ff 	mov    %rax,-0x878(%rbp)
    b44c:	48 8d 85 a0 e8 ff ff 	lea    -0x1760(%rbp),%rax
    b453:	48 83 c0 30          	add    $0x30,%rax
    b457:	48 89 85 90 f7 ff ff 	mov    %rax,-0x870(%rbp)
    b45e:	48 8d 85 50 e5 ff ff 	lea    -0x1ab0(%rbp),%rax
    b465:	48 89 85 98 f7 ff ff 	mov    %rax,-0x868(%rbp)
    b46c:	48 c7 85 a0 f7 ff ff 	movq   $0x0,-0x860(%rbp)
    b473:	00 00 00 00 
    b477:	48 8d 85 60 e5 ff ff 	lea    -0x1aa0(%rbp),%rax
    b47e:	48 89 85 a8 f7 ff ff 	mov    %rax,-0x858(%rbp)
    b485:	48 c7 85 b0 f7 ff ff 	movq   $0x0,-0x850(%rbp)
    b48c:	00 00 00 00 
    b490:	48 8d 85 50 e5 ff ff 	lea    -0x1ab0(%rbp),%rax
    b497:	48 89 85 b8 f7 ff ff 	mov    %rax,-0x848(%rbp)
    b49e:	48 c7 85 c0 f7 ff ff 	movq   $0x0,-0x840(%rbp)
    b4a5:	00 00 00 00 
    b4a9:	48 8d 85 60 e5 ff ff 	lea    -0x1aa0(%rbp),%rax
    b4b0:	48 89 85 c8 f7 ff ff 	mov    %rax,-0x838(%rbp)
    b4b7:	48 c7 85 d0 f7 ff ff 	movq   $0x0,-0x830(%rbp)
    b4be:	00 00 00 00 
    b4c2:	48 8d 85 60 e5 ff ff 	lea    -0x1aa0(%rbp),%rax
    b4c9:	48 89 85 d8 f7 ff ff 	mov    %rax,-0x828(%rbp)
    b4d0:	48 c7 85 e0 f7 ff ff 	movq   $0x0,-0x820(%rbp)
    b4d7:	00 00 00 00 
    b4db:	48 8d 85 50 e5 ff ff 	lea    -0x1ab0(%rbp),%rax
    b4e2:	48 89 85 e8 f7 ff ff 	mov    %rax,-0x818(%rbp)
    b4e9:	48 c7 85 f0 f7 ff ff 	movq   $0x0,-0x810(%rbp)
    b4f0:	00 00 00 00 
    b4f4:	48 8d 85 50 e5 ff ff 	lea    -0x1ab0(%rbp),%rax
    b4fb:	48 89 85 f8 f7 ff ff 	mov    %rax,-0x808(%rbp)
    b502:	48 c7 85 00 f8 ff ff 	movq   $0x0,-0x800(%rbp)
    b509:	00 00 00 00 
    b50d:	48 8d 85 60 e5 ff ff 	lea    -0x1aa0(%rbp),%rax
    b514:	48 89 85 08 f8 ff ff 	mov    %rax,-0x7f8(%rbp)
    b51b:	48 c7 85 10 f8 ff ff 	movq   $0x0,-0x7f0(%rbp)
    b522:	00 00 00 00 
    b526:	48 8d 85 60 e5 ff ff 	lea    -0x1aa0(%rbp),%rax
    b52d:	48 89 85 18 f8 ff ff 	mov    %rax,-0x7e8(%rbp)
    b534:	48 c7 85 20 f8 ff ff 	movq   $0x0,-0x7e0(%rbp)
    b53b:	00 00 00 00 
    b53f:	48 8d 85 50 e5 ff ff 	lea    -0x1ab0(%rbp),%rax
    b546:	48 89 85 28 f8 ff ff 	mov    %rax,-0x7d8(%rbp)
    b54d:	48 c7 85 30 f8 ff ff 	movq   $0x0,-0x7d0(%rbp)
    b554:	00 00 00 00 
    b558:	48 8d 85 60 e5 ff ff 	lea    -0x1aa0(%rbp),%rax
    b55f:	48 89 85 38 f8 ff ff 	mov    %rax,-0x7c8(%rbp)
    b566:	48 c7 85 40 f8 ff ff 	movq   $0x0,-0x7c0(%rbp)
    b56d:	00 00 00 00 
    b571:	48 8d 85 50 e5 ff ff 	lea    -0x1ab0(%rbp),%rax
    b578:	48 89 85 48 f8 ff ff 	mov    %rax,-0x7b8(%rbp)
    b57f:	48 8d 85 a0 e8 ff ff 	lea    -0x1760(%rbp),%rax
    b586:	48 83 c0 30          	add    $0x30,%rax
    b58a:	48 89 85 50 f8 ff ff 	mov    %rax,-0x7b0(%rbp)
    b591:	48 8d 85 50 e5 ff ff 	lea    -0x1ab0(%rbp),%rax
    b598:	48 89 85 58 f8 ff ff 	mov    %rax,-0x7a8(%rbp)
    b59f:	48 c7 85 60 f8 ff ff 	movq   $0x0,-0x7a0(%rbp)
    b5a6:	00 00 00 00 
    b5aa:	48 8d 85 58 e5 ff ff 	lea    -0x1aa8(%rbp),%rax
    b5b1:	48 89 85 68 f8 ff ff 	mov    %rax,-0x798(%rbp)
    b5b8:	48 c7 85 70 f8 ff ff 	movq   $0x0,-0x790(%rbp)
    b5bf:	00 00 00 00 
    b5c3:	48 8d 85 50 e5 ff ff 	lea    -0x1ab0(%rbp),%rax
    b5ca:	48 89 85 78 f8 ff ff 	mov    %rax,-0x788(%rbp)
    b5d1:	48 8d 85 a0 e8 ff ff 	lea    -0x1760(%rbp),%rax
    b5d8:	48 83 c0 30          	add    $0x30,%rax
    b5dc:	48 89 85 80 f8 ff ff 	mov    %rax,-0x780(%rbp)
    b5e3:	48 8d 85 50 e5 ff ff 	lea    -0x1ab0(%rbp),%rax
    b5ea:	48 89 85 88 f8 ff ff 	mov    %rax,-0x778(%rbp)
    b5f1:	48 c7 85 90 f8 ff ff 	movq   $0x0,-0x770(%rbp)
    b5f8:	00 00 00 00 
    b5fc:	48 8d 85 60 e5 ff ff 	lea    -0x1aa0(%rbp),%rax
    b603:	48 89 85 98 f8 ff ff 	mov    %rax,-0x768(%rbp)
    b60a:	48 c7 85 a0 f8 ff ff 	movq   $0x0,-0x760(%rbp)
    b611:	00 00 00 00 
    b615:	48 8d 85 50 e5 ff ff 	lea    -0x1ab0(%rbp),%rax
    b61c:	48 89 85 a8 f8 ff ff 	mov    %rax,-0x758(%rbp)
    b623:	48 c7 85 b0 f8 ff ff 	movq   $0x0,-0x750(%rbp)
    b62a:	00 00 00 00 
    b62e:	48 8d 85 60 e5 ff ff 	lea    -0x1aa0(%rbp),%rax
    b635:	48 89 85 b8 f8 ff ff 	mov    %rax,-0x748(%rbp)
    b63c:	48 c7 85 c0 f8 ff ff 	movq   $0x0,-0x740(%rbp)
    b643:	00 00 00 00 
    b647:	48 8d 85 60 e5 ff ff 	lea    -0x1aa0(%rbp),%rax
    b64e:	48 89 85 c8 f8 ff ff 	mov    %rax,-0x738(%rbp)
    b655:	48 c7 85 d0 f8 ff ff 	movq   $0x0,-0x730(%rbp)
    b65c:	00 00 00 00 
    b660:	48 8d 85 50 e5 ff ff 	lea    -0x1ab0(%rbp),%rax
    b667:	48 89 85 d8 f8 ff ff 	mov    %rax,-0x728(%rbp)
    b66e:	48 c7 85 e0 f8 ff ff 	movq   $0x0,-0x720(%rbp)
    b675:	00 00 00 00 
    b679:	48 8d 85 50 e5 ff ff 	lea    -0x1ab0(%rbp),%rax
    b680:	48 89 85 e8 f8 ff ff 	mov    %rax,-0x718(%rbp)
    b687:	48 c7 85 f0 f8 ff ff 	movq   $0x0,-0x710(%rbp)
    b68e:	00 00 00 00 
    b692:	48 8d 85 60 e5 ff ff 	lea    -0x1aa0(%rbp),%rax
    b699:	48 89 85 f8 f8 ff ff 	mov    %rax,-0x708(%rbp)
    b6a0:	48 c7 85 00 f9 ff ff 	movq   $0x0,-0x700(%rbp)
    b6a7:	00 00 00 00 
    b6ab:	48 8d 85 60 e5 ff ff 	lea    -0x1aa0(%rbp),%rax
    b6b2:	48 89 85 08 f9 ff ff 	mov    %rax,-0x6f8(%rbp)
    b6b9:	48 c7 85 10 f9 ff ff 	movq   $0x0,-0x6f0(%rbp)
    b6c0:	00 00 00 00 
    b6c4:	48 8d 85 50 e5 ff ff 	lea    -0x1ab0(%rbp),%rax
    b6cb:	48 89 85 18 f9 ff ff 	mov    %rax,-0x6e8(%rbp)
    b6d2:	48 c7 85 20 f9 ff ff 	movq   $0x0,-0x6e0(%rbp)
    b6d9:	00 00 00 00 
    b6dd:	48 8d 85 60 e5 ff ff 	lea    -0x1aa0(%rbp),%rax
    b6e4:	48 89 85 28 f9 ff ff 	mov    %rax,-0x6d8(%rbp)
    b6eb:	48 8d 85 f0 f2 ff ff 	lea    -0xd10(%rbp),%rax
    b6f2:	48 83 c0 20          	add    $0x20,%rax
    b6f6:	48 89 85 00 ed ff ff 	mov    %rax,-0x1300(%rbp)
    b6fd:	48 8d 85 f0 f2 ff ff 	lea    -0xd10(%rbp),%rax
    b704:	48 83 c0 20          	add    $0x20,%rax
    b708:	48 89 85 08 ed ff ff 	mov    %rax,-0x12f8(%rbp)
    b70f:	48 8d 85 f0 f2 ff ff 	lea    -0xd10(%rbp),%rax
    b716:	48 05 c8 05 00 00    	add    $0x5c8,%rax
    b71c:	48 89 85 10 ed ff ff 	mov    %rax,-0x12f0(%rbp)
    b723:	48 8d 85 f0 f2 ff ff 	lea    -0xd10(%rbp),%rax
    b72a:	48 05 a0 01 00 00    	add    $0x1a0,%rax
    b730:	48 89 85 18 ed ff ff 	mov    %rax,-0x12e8(%rbp)
    b737:	48 8d 85 f0 f2 ff ff 	lea    -0xd10(%rbp),%rax
    b73e:	48 83 c0 20          	add    $0x20,%rax
    b742:	48 89 85 20 ed ff ff 	mov    %rax,-0x12e0(%rbp)
    b749:	48 8d 85 f0 f2 ff ff 	lea    -0xd10(%rbp),%rax
    b750:	48 05 10 05 00 00    	add    $0x510,%rax
    b756:	48 89 85 28 ed ff ff 	mov    %rax,-0x12d8(%rbp)
    b75d:	48 8d 85 f0 f2 ff ff 	lea    -0xd10(%rbp),%rax
    b764:	48 83 c0 20          	add    $0x20,%rax
    b768:	48 89 85 30 ed ff ff 	mov    %rax,-0x12d0(%rbp)
    b76f:	48 8d 85 f0 f2 ff ff 	lea    -0xd10(%rbp),%rax
    b776:	48 05 a0 01 00 00    	add    $0x1a0,%rax
    b77c:	48 89 85 38 ed ff ff 	mov    %rax,-0x12c8(%rbp)
    b783:	48 8d 85 f0 f2 ff ff 	lea    -0xd10(%rbp),%rax
    b78a:	48 05 c8 05 00 00    	add    $0x5c8,%rax
    b790:	48 89 85 40 ed ff ff 	mov    %rax,-0x12c0(%rbp)
    b797:	48 8d 85 f0 f2 ff ff 	lea    -0xd10(%rbp),%rax
    b79e:	48 05 a0 03 00 00    	add    $0x3a0,%rax
    b7a4:	48 89 85 48 ed ff ff 	mov    %rax,-0x12b8(%rbp)
    b7ab:	48 8d 85 f0 f2 ff ff 	lea    -0xd10(%rbp),%rax
    b7b2:	48 05 68 04 00 00    	add    $0x468,%rax
    b7b8:	48 89 85 50 ed ff ff 	mov    %rax,-0x12b0(%rbp)
    b7bf:	48 8d 85 f0 f2 ff ff 	lea    -0xd10(%rbp),%rax
    b7c6:	48 83 c0 20          	add    $0x20,%rax
    b7ca:	48 89 85 58 ed ff ff 	mov    %rax,-0x12a8(%rbp)
    b7d1:	48 8d 85 f0 f2 ff ff 	lea    -0xd10(%rbp),%rax
    b7d8:	48 05 70 04 00 00    	add    $0x470,%rax
    b7de:	48 89 85 60 ed ff ff 	mov    %rax,-0x12a0(%rbp)
    b7e5:	48 8d 85 f0 f2 ff ff 	lea    -0xd10(%rbp),%rax
    b7ec:	48 05 68 04 00 00    	add    $0x468,%rax
    b7f2:	48 89 85 68 ed ff ff 	mov    %rax,-0x1298(%rbp)
    b7f9:	48 8d 85 f0 f2 ff ff 	lea    -0xd10(%rbp),%rax
    b800:	48 05 f0 00 00 00    	add    $0xf0,%rax
    b806:	48 89 85 70 ed ff ff 	mov    %rax,-0x1290(%rbp)
    b80d:	48 8d 85 f0 f2 ff ff 	lea    -0xd10(%rbp),%rax
    b814:	48 05 18 06 00 00    	add    $0x618,%rax
    b81a:	48 89 85 78 ed ff ff 	mov    %rax,-0x1288(%rbp)
    b821:	48 8d 85 f0 f2 ff ff 	lea    -0xd10(%rbp),%rax
    b828:	48 05 18 06 00 00    	add    $0x618,%rax
    b82e:	48 89 85 80 ed ff ff 	mov    %rax,-0x1280(%rbp)
    b835:	48 8d 85 f0 f2 ff ff 	lea    -0xd10(%rbp),%rax
    b83c:	48 05 f0 00 00 00    	add    $0xf0,%rax
    b842:	48 89 85 88 ed ff ff 	mov    %rax,-0x1278(%rbp)
    b849:	48 c7 85 90 ed ff ff 	movq   $0x0,-0x1270(%rbp)
    b850:	00 00 00 00 
    b854:	48 8d 85 f0 f2 ff ff 	lea    -0xd10(%rbp),%rax
    b85b:	48 05 a0 01 00 00    	add    $0x1a0,%rax
    b861:	48 89 85 98 ed ff ff 	mov    %rax,-0x1268(%rbp)
    b868:	48 8d 85 f0 f2 ff ff 	lea    -0xd10(%rbp),%rax
    b86f:	48 83 c0 20          	add    $0x20,%rax
    b873:	48 89 85 a0 ed ff ff 	mov    %rax,-0x1260(%rbp)
    b87a:	48 8d 85 f0 f2 ff ff 	lea    -0xd10(%rbp),%rax
    b881:	48 05 a0 01 00 00    	add    $0x1a0,%rax
    b887:	48 89 85 a8 ed ff ff 	mov    %rax,-0x1258(%rbp)
    b88e:	48 c7 85 b0 ed ff ff 	movq   $0x0,-0x1250(%rbp)
    b895:	00 00 00 00 
    b899:	48 8d 85 f0 f2 ff ff 	lea    -0xd10(%rbp),%rax
    b8a0:	48 05 28 02 00 00    	add    $0x228,%rax
    b8a6:	48 89 85 b8 ed ff ff 	mov    %rax,-0x1248(%rbp)
    b8ad:	48 c7 85 c0 ed ff ff 	movq   $0x0,-0x1240(%rbp)
    b8b4:	00 00 00 00 
    b8b8:	48 8d 85 f0 f2 ff ff 	lea    -0xd10(%rbp),%rax
    b8bf:	48 05 a0 01 00 00    	add    $0x1a0,%rax
    b8c5:	48 89 85 c8 ed ff ff 	mov    %rax,-0x1238(%rbp)
    b8cc:	48 8d 85 f0 f2 ff ff 	lea    -0xd10(%rbp),%rax
    b8d3:	48 83 c0 20          	add    $0x20,%rax
    b8d7:	48 89 85 d0 ed ff ff 	mov    %rax,-0x1230(%rbp)
    b8de:	48 8d 85 f0 f2 ff ff 	lea    -0xd10(%rbp),%rax
    b8e5:	48 05 68 04 00 00    	add    $0x468,%rax
    b8eb:	48 89 85 d8 ed ff ff 	mov    %rax,-0x1228(%rbp)
    b8f2:	48 8d 85 f0 f2 ff ff 	lea    -0xd10(%rbp),%rax
    b8f9:	48 05 70 04 00 00    	add    $0x470,%rax
    b8ff:	48 89 85 e0 ed ff ff 	mov    %rax,-0x1220(%rbp)
    b906:	48 8d 85 f0 f2 ff ff 	lea    -0xd10(%rbp),%rax
    b90d:	48 83 c0 20          	add    $0x20,%rax
    b911:	48 89 85 e8 ed ff ff 	mov    %rax,-0x1218(%rbp)
    b918:	48 8d 85 f0 f2 ff ff 	lea    -0xd10(%rbp),%rax
    b91f:	48 05 68 04 00 00    	add    $0x468,%rax
    b925:	48 89 85 f0 ed ff ff 	mov    %rax,-0x1210(%rbp)
    b92c:	48 8d 85 f0 f2 ff ff 	lea    -0xd10(%rbp),%rax
    b933:	48 05 a0 03 00 00    	add    $0x3a0,%rax
    b939:	48 89 85 f8 ed ff ff 	mov    %rax,-0x1208(%rbp)
    b940:	48 8d 85 f0 f2 ff ff 	lea    -0xd10(%rbp),%rax
    b947:	48 05 58 02 00 00    	add    $0x258,%rax
    b94d:	48 89 85 00 ee ff ff 	mov    %rax,-0x1200(%rbp)
    b954:	48 8d 85 f0 f2 ff ff 	lea    -0xd10(%rbp),%rax
    b95b:	48 05 18 06 00 00    	add    $0x618,%rax
    b961:	48 89 85 08 ee ff ff 	mov    %rax,-0x11f8(%rbp)
    b968:	48 8d 85 f0 f2 ff ff 	lea    -0xd10(%rbp),%rax
    b96f:	48 05 a0 03 00 00    	add    $0x3a0,%rax
    b975:	48 89 85 10 ee ff ff 	mov    %rax,-0x11f0(%rbp)
    b97c:	48 8d 85 f0 f2 ff ff 	lea    -0xd10(%rbp),%rax
    b983:	48 83 c0 20          	add    $0x20,%rax
    b987:	48 89 85 18 ee ff ff 	mov    %rax,-0x11e8(%rbp)
    b98e:	48 8d 85 f0 f2 ff ff 	lea    -0xd10(%rbp),%rax
    b995:	48 83 c0 20          	add    $0x20,%rax
    b999:	48 89 85 20 ee ff ff 	mov    %rax,-0x11e0(%rbp)
    b9a0:	48 8d 85 f0 f2 ff ff 	lea    -0xd10(%rbp),%rax
    b9a7:	48 05 a0 01 00 00    	add    $0x1a0,%rax
    b9ad:	48 89 85 28 ee ff ff 	mov    %rax,-0x11d8(%rbp)
    b9b4:	48 8d 85 f0 f2 ff ff 	lea    -0xd10(%rbp),%rax
    b9bb:	48 05 c8 05 00 00    	add    $0x5c8,%rax
    b9c1:	48 89 85 30 ee ff ff 	mov    %rax,-0x11d0(%rbp)
    b9c8:	48 8d 85 f0 f2 ff ff 	lea    -0xd10(%rbp),%rax
    b9cf:	48 83 c0 20          	add    $0x20,%rax
    b9d3:	48 89 85 38 ee ff ff 	mov    %rax,-0x11c8(%rbp)
    b9da:	48 8d 85 f0 f2 ff ff 	lea    -0xd10(%rbp),%rax
    b9e1:	48 83 c0 20          	add    $0x20,%rax
    b9e5:	48 89 85 40 ee ff ff 	mov    %rax,-0x11c0(%rbp)
    b9ec:	48 8d 85 f0 f2 ff ff 	lea    -0xd10(%rbp),%rax
    b9f3:	48 05 28 02 00 00    	add    $0x228,%rax
    b9f9:	48 89 85 48 ee ff ff 	mov    %rax,-0x11b8(%rbp)
    ba00:	48 8d 85 f0 f2 ff ff 	lea    -0xd10(%rbp),%rax
    ba07:	48 83 c0 20          	add    $0x20,%rax
    ba0b:	48 89 85 50 ee ff ff 	mov    %rax,-0x11b0(%rbp)
    ba12:	48 8d 85 f0 f2 ff ff 	lea    -0xd10(%rbp),%rax
    ba19:	48 83 c0 20          	add    $0x20,%rax
    ba1d:	48 89 85 58 ee ff ff 	mov    %rax,-0x11a8(%rbp)
    ba24:	48 8d 85 f0 f2 ff ff 	lea    -0xd10(%rbp),%rax
    ba2b:	48 05 c8 05 00 00    	add    $0x5c8,%rax
    ba31:	48 89 85 60 ee ff ff 	mov    %rax,-0x11a0(%rbp)
    ba38:	48 8d 85 f0 f2 ff ff 	lea    -0xd10(%rbp),%rax
    ba3f:	48 05 68 04 00 00    	add    $0x468,%rax
    ba45:	48 89 85 68 ee ff ff 	mov    %rax,-0x1198(%rbp)
    ba4c:	48 8d 85 f0 f2 ff ff 	lea    -0xd10(%rbp),%rax
    ba53:	48 05 68 04 00 00    	add    $0x468,%rax
    ba59:	48 89 85 70 ee ff ff 	mov    %rax,-0x1190(%rbp)
    ba60:	48 8d 85 f0 f2 ff ff 	lea    -0xd10(%rbp),%rax
    ba67:	48 05 58 02 00 00    	add    $0x258,%rax
    ba6d:	48 89 85 78 ee ff ff 	mov    %rax,-0x1188(%rbp)
    ba74:	48 8d 85 f0 f2 ff ff 	lea    -0xd10(%rbp),%rax
    ba7b:	48 05 70 04 00 00    	add    $0x470,%rax
    ba81:	48 89 85 80 ee ff ff 	mov    %rax,-0x1180(%rbp)
    ba88:	48 8d 85 f0 f2 ff ff 	lea    -0xd10(%rbp),%rax
    ba8f:	48 05 a0 03 00 00    	add    $0x3a0,%rax
    ba95:	48 89 85 88 ee ff ff 	mov    %rax,-0x1178(%rbp)
    ba9c:	48 8d 85 f0 f2 ff ff 	lea    -0xd10(%rbp),%rax
    baa3:	48 05 f0 00 00 00    	add    $0xf0,%rax
    baa9:	48 89 85 90 ee ff ff 	mov    %rax,-0x1170(%rbp)
    bab0:	48 8d 85 f0 f2 ff ff 	lea    -0xd10(%rbp),%rax
    bab7:	48 05 70 04 00 00    	add    $0x470,%rax
    babd:	48 89 85 98 ee ff ff 	mov    %rax,-0x1168(%rbp)
    bac4:	48 8d 85 f0 f2 ff ff 	lea    -0xd10(%rbp),%rax
    bacb:	48 05 18 06 00 00    	add    $0x618,%rax
    bad1:	48 89 85 a0 ee ff ff 	mov    %rax,-0x1160(%rbp)
    bad8:	48 8d 85 f0 f2 ff ff 	lea    -0xd10(%rbp),%rax
    badf:	48 83 c0 20          	add    $0x20,%rax
    bae3:	48 89 85 a8 ee ff ff 	mov    %rax,-0x1158(%rbp)
    baea:	48 c7 85 b0 ee ff ff 	movq   $0x0,-0x1150(%rbp)
    baf1:	00 00 00 00 
    baf5:	48 8d 85 f0 f2 ff ff 	lea    -0xd10(%rbp),%rax
    bafc:	48 83 c0 20          	add    $0x20,%rax
    bb00:	48 89 85 b8 ee ff ff 	mov    %rax,-0x1148(%rbp)
    bb07:	48 8d 85 f0 f2 ff ff 	lea    -0xd10(%rbp),%rax
    bb0e:	48 83 c0 20          	add    $0x20,%rax
    bb12:	48 89 85 c0 ee ff ff 	mov    %rax,-0x1140(%rbp)
    bb19:	48 8d 85 f0 f2 ff ff 	lea    -0xd10(%rbp),%rax
    bb20:	48 83 c0 20          	add    $0x20,%rax
    bb24:	48 89 85 c8 ee ff ff 	mov    %rax,-0x1138(%rbp)
    bb2b:	48 c7 85 d0 ee ff ff 	movq   $0x0,-0x1130(%rbp)
    bb32:	00 00 00 00 
    bb36:	48 8d 85 f0 f2 ff ff 	lea    -0xd10(%rbp),%rax
    bb3d:	48 05 10 05 00 00    	add    $0x510,%rax
    bb43:	48 89 85 d8 ee ff ff 	mov    %rax,-0x1128(%rbp)
    bb4a:	48 c7 85 e0 ee ff ff 	movq   $0x0,-0x1120(%rbp)
    bb51:	00 00 00 00 
    bb55:	48 8d 85 f0 f2 ff ff 	lea    -0xd10(%rbp),%rax
    bb5c:	48 83 c0 20          	add    $0x20,%rax
    bb60:	48 89 85 e8 ee ff ff 	mov    %rax,-0x1118(%rbp)
    bb67:	48 8d 85 f0 f2 ff ff 	lea    -0xd10(%rbp),%rax
    bb6e:	48 83 c0 20          	add    $0x20,%rax
    bb72:	48 89 85 f0 ee ff ff 	mov    %rax,-0x1110(%rbp)
    bb79:	48 8d 85 f0 f2 ff ff 	lea    -0xd10(%rbp),%rax
    bb80:	48 05 a0 03 00 00    	add    $0x3a0,%rax
    bb86:	48 89 85 f8 ee ff ff 	mov    %rax,-0x1108(%rbp)
    bb8d:	48 8d 85 f0 f2 ff ff 	lea    -0xd10(%rbp),%rax
    bb94:	48 05 70 04 00 00    	add    $0x470,%rax
    bb9a:	48 89 85 00 ef ff ff 	mov    %rax,-0x1100(%rbp)
    bba1:	48 8d 85 f0 f2 ff ff 	lea    -0xd10(%rbp),%rax
    bba8:	48 05 58 02 00 00    	add    $0x258,%rax
    bbae:	48 89 85 08 ef ff ff 	mov    %rax,-0x10f8(%rbp)
    bbb5:	48 8d 85 f0 f2 ff ff 	lea    -0xd10(%rbp),%rax
    bbbc:	48 05 68 04 00 00    	add    $0x468,%rax
    bbc2:	48 89 85 10 ef ff ff 	mov    %rax,-0x10f0(%rbp)
    bbc9:	48 8d 85 f0 f2 ff ff 	lea    -0xd10(%rbp),%rax
    bbd0:	48 05 68 04 00 00    	add    $0x468,%rax
    bbd6:	48 89 85 18 ef ff ff 	mov    %rax,-0x10e8(%rbp)
    bbdd:	48 8d 85 f0 f2 ff ff 	lea    -0xd10(%rbp),%rax
    bbe4:	48 05 58 02 00 00    	add    $0x258,%rax
    bbea:	48 89 85 20 ef ff ff 	mov    %rax,-0x10e0(%rbp)
    bbf1:	48 8d 85 f0 f2 ff ff 	lea    -0xd10(%rbp),%rax
    bbf8:	48 05 70 04 00 00    	add    $0x470,%rax
    bbfe:	48 89 85 28 ef ff ff 	mov    %rax,-0x10d8(%rbp)
    bc05:	48 8d 85 f0 f2 ff ff 	lea    -0xd10(%rbp),%rax
    bc0c:	48 05 a0 03 00 00    	add    $0x3a0,%rax
    bc12:	48 89 85 30 ef ff ff 	mov    %rax,-0x10d0(%rbp)
    bc19:	48 8d 85 f0 f2 ff ff 	lea    -0xd10(%rbp),%rax
    bc20:	48 05 f0 00 00 00    	add    $0xf0,%rax
    bc26:	48 89 85 38 ef ff ff 	mov    %rax,-0x10c8(%rbp)
    bc2d:	48 8d 85 f0 f2 ff ff 	lea    -0xd10(%rbp),%rax
    bc34:	48 83 c0 20          	add    $0x20,%rax
    bc38:	48 89 85 40 ef ff ff 	mov    %rax,-0x10c0(%rbp)
    bc3f:	48 8d 85 f0 f2 ff ff 	lea    -0xd10(%rbp),%rax
    bc46:	48 83 c0 20          	add    $0x20,%rax
    bc4a:	48 89 85 48 ef ff ff 	mov    %rax,-0x10b8(%rbp)
    bc51:	48 8d 85 f0 f2 ff ff 	lea    -0xd10(%rbp),%rax
    bc58:	48 05 c8 05 00 00    	add    $0x5c8,%rax
    bc5e:	48 89 85 50 ef ff ff 	mov    %rax,-0x10b0(%rbp)
    bc65:	48 8d 85 f0 f2 ff ff 	lea    -0xd10(%rbp),%rax
    bc6c:	48 05 a0 01 00 00    	add    $0x1a0,%rax
    bc72:	48 89 85 58 ef ff ff 	mov    %rax,-0x10a8(%rbp)
    bc79:	48 8d 85 f0 f2 ff ff 	lea    -0xd10(%rbp),%rax
    bc80:	48 83 c0 20          	add    $0x20,%rax
    bc84:	48 89 85 60 ef ff ff 	mov    %rax,-0x10a0(%rbp)
    bc8b:	48 8d 85 f0 f2 ff ff 	lea    -0xd10(%rbp),%rax
    bc92:	48 05 10 05 00 00    	add    $0x510,%rax
    bc98:	48 89 85 68 ef ff ff 	mov    %rax,-0x1098(%rbp)
    bc9f:	48 8d 85 f0 f2 ff ff 	lea    -0xd10(%rbp),%rax
    bca6:	48 83 c0 20          	add    $0x20,%rax
    bcaa:	48 89 85 70 ef ff ff 	mov    %rax,-0x1090(%rbp)
    bcb1:	48 8d 85 f0 f2 ff ff 	lea    -0xd10(%rbp),%rax
    bcb8:	48 05 a0 01 00 00    	add    $0x1a0,%rax
    bcbe:	48 89 85 78 ef ff ff 	mov    %rax,-0x1088(%rbp)
    bcc5:	48 8d 85 f0 f2 ff ff 	lea    -0xd10(%rbp),%rax
    bccc:	48 05 c8 05 00 00    	add    $0x5c8,%rax
    bcd2:	48 89 85 80 ef ff ff 	mov    %rax,-0x1080(%rbp)
    bcd9:	48 8d 85 f0 f2 ff ff 	lea    -0xd10(%rbp),%rax
    bce0:	48 05 a0 03 00 00    	add    $0x3a0,%rax
    bce6:	48 89 85 88 ef ff ff 	mov    %rax,-0x1078(%rbp)
    bced:	48 8d 85 f0 f2 ff ff 	lea    -0xd10(%rbp),%rax
    bcf4:	48 05 68 04 00 00    	add    $0x468,%rax
    bcfa:	48 89 85 90 ef ff ff 	mov    %rax,-0x1070(%rbp)
    bd01:	48 8d 85 f0 f2 ff ff 	lea    -0xd10(%rbp),%rax
    bd08:	48 83 c0 20          	add    $0x20,%rax
    bd0c:	48 89 85 98 ef ff ff 	mov    %rax,-0x1068(%rbp)
    bd13:	48 8d 85 f0 f2 ff ff 	lea    -0xd10(%rbp),%rax
    bd1a:	48 05 70 04 00 00    	add    $0x470,%rax
    bd20:	48 89 85 a0 ef ff ff 	mov    %rax,-0x1060(%rbp)
    bd27:	48 8d 85 f0 f2 ff ff 	lea    -0xd10(%rbp),%rax
    bd2e:	48 05 68 04 00 00    	add    $0x468,%rax
    bd34:	48 89 85 a8 ef ff ff 	mov    %rax,-0x1058(%rbp)
    bd3b:	48 8d 85 f0 f2 ff ff 	lea    -0xd10(%rbp),%rax
    bd42:	48 05 f0 00 00 00    	add    $0xf0,%rax
    bd48:	48 89 85 b0 ef ff ff 	mov    %rax,-0x1050(%rbp)
    bd4f:	48 8d 85 f0 f2 ff ff 	lea    -0xd10(%rbp),%rax
    bd56:	48 05 18 06 00 00    	add    $0x618,%rax
    bd5c:	48 89 85 b8 ef ff ff 	mov    %rax,-0x1048(%rbp)
    bd63:	48 8d 85 f0 f2 ff ff 	lea    -0xd10(%rbp),%rax
    bd6a:	48 05 18 06 00 00    	add    $0x618,%rax
    bd70:	48 89 85 c0 ef ff ff 	mov    %rax,-0x1040(%rbp)
    bd77:	48 8d 85 f0 f2 ff ff 	lea    -0xd10(%rbp),%rax
    bd7e:	48 05 f0 00 00 00    	add    $0xf0,%rax
    bd84:	48 89 85 c8 ef ff ff 	mov    %rax,-0x1038(%rbp)
    bd8b:	48 c7 85 d0 ef ff ff 	movq   $0x0,-0x1030(%rbp)
    bd92:	00 00 00 00 
    bd96:	48 8d 85 f0 f2 ff ff 	lea    -0xd10(%rbp),%rax
    bd9d:	48 05 a0 01 00 00    	add    $0x1a0,%rax
    bda3:	48 89 85 d8 ef ff ff 	mov    %rax,-0x1028(%rbp)
    bdaa:	48 8d 85 f0 f2 ff ff 	lea    -0xd10(%rbp),%rax
    bdb1:	48 83 c0 20          	add    $0x20,%rax
    bdb5:	48 89 85 e0 ef ff ff 	mov    %rax,-0x1020(%rbp)
    bdbc:	48 8d 85 f0 f2 ff ff 	lea    -0xd10(%rbp),%rax
    bdc3:	48 05 a0 01 00 00    	add    $0x1a0,%rax
    bdc9:	48 89 85 e8 ef ff ff 	mov    %rax,-0x1018(%rbp)
    bdd0:	48 c7 85 f0 ef ff ff 	movq   $0x0,-0x1010(%rbp)
    bdd7:	00 00 00 00 
    bddb:	48 8d 85 f0 f2 ff ff 	lea    -0xd10(%rbp),%rax
    bde2:	48 05 28 02 00 00    	add    $0x228,%rax
    bde8:	48 89 85 f8 ef ff ff 	mov    %rax,-0x1008(%rbp)
    bdef:	48 c7 85 00 f0 ff ff 	movq   $0x0,-0x1000(%rbp)
    bdf6:	00 00 00 00 
    bdfa:	48 8d 85 f0 f2 ff ff 	lea    -0xd10(%rbp),%rax
    be01:	48 05 a0 01 00 00    	add    $0x1a0,%rax
    be07:	48 89 85 08 f0 ff ff 	mov    %rax,-0xff8(%rbp)
    be0e:	48 8d 85 f0 f2 ff ff 	lea    -0xd10(%rbp),%rax
    be15:	48 83 c0 20          	add    $0x20,%rax
    be19:	48 89 85 10 f0 ff ff 	mov    %rax,-0xff0(%rbp)
    be20:	48 8d 85 f0 f2 ff ff 	lea    -0xd10(%rbp),%rax
    be27:	48 05 68 04 00 00    	add    $0x468,%rax
    be2d:	48 89 85 18 f0 ff ff 	mov    %rax,-0xfe8(%rbp)
    be34:	48 8d 85 f0 f2 ff ff 	lea    -0xd10(%rbp),%rax
    be3b:	48 05 70 04 00 00    	add    $0x470,%rax
    be41:	48 89 85 20 f0 ff ff 	mov    %rax,-0xfe0(%rbp)
    be48:	48 8d 85 f0 f2 ff ff 	lea    -0xd10(%rbp),%rax
    be4f:	48 83 c0 20          	add    $0x20,%rax
    be53:	48 89 85 28 f0 ff ff 	mov    %rax,-0xfd8(%rbp)
    be5a:	48 8d 85 f0 f2 ff ff 	lea    -0xd10(%rbp),%rax
    be61:	48 05 68 04 00 00    	add    $0x468,%rax
    be67:	48 89 85 30 f0 ff ff 	mov    %rax,-0xfd0(%rbp)
    be6e:	48 8d 85 f0 f2 ff ff 	lea    -0xd10(%rbp),%rax
    be75:	48 05 a0 03 00 00    	add    $0x3a0,%rax
    be7b:	48 89 85 38 f0 ff ff 	mov    %rax,-0xfc8(%rbp)
    be82:	48 8d 85 f0 f2 ff ff 	lea    -0xd10(%rbp),%rax
    be89:	48 05 58 02 00 00    	add    $0x258,%rax
    be8f:	48 89 85 40 f0 ff ff 	mov    %rax,-0xfc0(%rbp)
    be96:	48 8d 85 f0 f2 ff ff 	lea    -0xd10(%rbp),%rax
    be9d:	48 05 18 06 00 00    	add    $0x618,%rax
    bea3:	48 89 85 48 f0 ff ff 	mov    %rax,-0xfb8(%rbp)
    beaa:	48 8d 85 f0 f2 ff ff 	lea    -0xd10(%rbp),%rax
    beb1:	48 05 a0 03 00 00    	add    $0x3a0,%rax
    beb7:	48 89 85 50 f0 ff ff 	mov    %rax,-0xfb0(%rbp)
    bebe:	48 8d 85 f0 f2 ff ff 	lea    -0xd10(%rbp),%rax
    bec5:	48 83 c0 20          	add    $0x20,%rax
    bec9:	48 89 85 58 f0 ff ff 	mov    %rax,-0xfa8(%rbp)
    bed0:	48 8d 85 f0 f2 ff ff 	lea    -0xd10(%rbp),%rax
    bed7:	48 83 c0 20          	add    $0x20,%rax
    bedb:	48 89 85 60 f0 ff ff 	mov    %rax,-0xfa0(%rbp)
    bee2:	48 8d 85 f0 f2 ff ff 	lea    -0xd10(%rbp),%rax
    bee9:	48 05 a0 01 00 00    	add    $0x1a0,%rax
    beef:	48 89 85 68 f0 ff ff 	mov    %rax,-0xf98(%rbp)
    bef6:	48 8d 85 f0 f2 ff ff 	lea    -0xd10(%rbp),%rax
    befd:	48 05 c8 05 00 00    	add    $0x5c8,%rax
    bf03:	48 89 85 70 f0 ff ff 	mov    %rax,-0xf90(%rbp)
    bf0a:	48 8d 85 f0 f2 ff ff 	lea    -0xd10(%rbp),%rax
    bf11:	48 83 c0 20          	add    $0x20,%rax
    bf15:	48 89 85 78 f0 ff ff 	mov    %rax,-0xf88(%rbp)
    bf1c:	48 8d 85 f0 f2 ff ff 	lea    -0xd10(%rbp),%rax
    bf23:	48 83 c0 20          	add    $0x20,%rax
    bf27:	48 89 85 80 f0 ff ff 	mov    %rax,-0xf80(%rbp)
    bf2e:	48 8d 85 f0 f2 ff ff 	lea    -0xd10(%rbp),%rax
    bf35:	48 05 28 02 00 00    	add    $0x228,%rax
    bf3b:	48 89 85 88 f0 ff ff 	mov    %rax,-0xf78(%rbp)
    bf42:	48 8d 85 f0 f2 ff ff 	lea    -0xd10(%rbp),%rax
    bf49:	48 83 c0 20          	add    $0x20,%rax
    bf4d:	48 89 85 90 f0 ff ff 	mov    %rax,-0xf70(%rbp)
    bf54:	48 8d 85 f0 f2 ff ff 	lea    -0xd10(%rbp),%rax
    bf5b:	48 83 c0 20          	add    $0x20,%rax
    bf5f:	48 89 85 98 f0 ff ff 	mov    %rax,-0xf68(%rbp)
    bf66:	48 8d 85 f0 f2 ff ff 	lea    -0xd10(%rbp),%rax
    bf6d:	48 05 c8 05 00 00    	add    $0x5c8,%rax
    bf73:	48 89 85 a0 f0 ff ff 	mov    %rax,-0xf60(%rbp)
    bf7a:	48 8d 85 f0 f2 ff ff 	lea    -0xd10(%rbp),%rax
    bf81:	48 05 68 04 00 00    	add    $0x468,%rax
    bf87:	48 89 85 a8 f0 ff ff 	mov    %rax,-0xf58(%rbp)
    bf8e:	48 8d 85 f0 f2 ff ff 	lea    -0xd10(%rbp),%rax
    bf95:	48 05 68 04 00 00    	add    $0x468,%rax
    bf9b:	48 89 85 b0 f0 ff ff 	mov    %rax,-0xf50(%rbp)
    bfa2:	48 8d 85 f0 f2 ff ff 	lea    -0xd10(%rbp),%rax
    bfa9:	48 05 58 02 00 00    	add    $0x258,%rax
    bfaf:	48 89 85 b8 f0 ff ff 	mov    %rax,-0xf48(%rbp)
    bfb6:	48 8d 85 f0 f2 ff ff 	lea    -0xd10(%rbp),%rax
    bfbd:	48 05 70 04 00 00    	add    $0x470,%rax
    bfc3:	48 89 85 c0 f0 ff ff 	mov    %rax,-0xf40(%rbp)
    bfca:	48 8d 85 f0 f2 ff ff 	lea    -0xd10(%rbp),%rax
    bfd1:	48 05 a0 03 00 00    	add    $0x3a0,%rax
    bfd7:	48 89 85 c8 f0 ff ff 	mov    %rax,-0xf38(%rbp)
    bfde:	48 8d 85 f0 f2 ff ff 	lea    -0xd10(%rbp),%rax
    bfe5:	48 05 f0 00 00 00    	add    $0xf0,%rax
    bfeb:	48 89 85 d0 f0 ff ff 	mov    %rax,-0xf30(%rbp)
    bff2:	48 8d 85 f0 f2 ff ff 	lea    -0xd10(%rbp),%rax
    bff9:	48 83 c0 20          	add    $0x20,%rax
    bffd:	48 89 85 d8 f0 ff ff 	mov    %rax,-0xf28(%rbp)
    c004:	48 8d 85 f0 f2 ff ff 	lea    -0xd10(%rbp),%rax
    c00b:	48 05 38 03 00 00    	add    $0x338,%rax
    c011:	48 89 85 e0 f0 ff ff 	mov    %rax,-0xf20(%rbp)
    c018:	48 8d 85 f0 f2 ff ff 	lea    -0xd10(%rbp),%rax
    c01f:	48 05 68 04 00 00    	add    $0x468,%rax
    c025:	48 89 85 e8 f0 ff ff 	mov    %rax,-0xf18(%rbp)
    c02c:	48 8d 85 f0 f2 ff ff 	lea    -0xd10(%rbp),%rax
    c033:	48 83 c0 20          	add    $0x20,%rax
    c037:	48 89 85 f0 f0 ff ff 	mov    %rax,-0xf10(%rbp)
    c03e:	48 c7 85 f8 f0 ff ff 	movq   $0x0,-0xf08(%rbp)
    c045:	00 00 00 00 
    c049:	48 c7 85 00 f1 ff ff 	movq   $0x0,-0xf00(%rbp)
    c050:	00 00 00 00 
    c054:	48 c7 85 08 f1 ff ff 	movq   $0x0,-0xef8(%rbp)
    c05b:	00 00 00 00 
    c05f:	48 8d 85 f0 f2 ff ff 	lea    -0xd10(%rbp),%rax
    c066:	48 83 c0 20          	add    $0x20,%rax
    c06a:	48 89 85 10 f1 ff ff 	mov    %rax,-0xef0(%rbp)
    c071:	48 8d 85 f0 f2 ff ff 	lea    -0xd10(%rbp),%rax
    c078:	48 83 c0 20          	add    $0x20,%rax
    c07c:	48 89 85 18 f1 ff ff 	mov    %rax,-0xee8(%rbp)
    c083:	48 8d 85 f0 f2 ff ff 	lea    -0xd10(%rbp),%rax
    c08a:	48 83 c0 20          	add    $0x20,%rax
    c08e:	48 89 85 20 f1 ff ff 	mov    %rax,-0xee0(%rbp)
    c095:	48 c7 85 28 f1 ff ff 	movq   $0x0,-0xed8(%rbp)
    c09c:	00 00 00 00 
    c0a0:	48 c7 85 30 f1 ff ff 	movq   $0x0,-0xed0(%rbp)
    c0a7:	00 00 00 00 
    c0ab:	48 8d 85 f0 f2 ff ff 	lea    -0xd10(%rbp),%rax
    c0b2:	48 05 18 05 00 00    	add    $0x518,%rax
    c0b8:	48 89 85 38 f1 ff ff 	mov    %rax,-0xec8(%rbp)
    c0bf:	48 8d 85 f0 f2 ff ff 	lea    -0xd10(%rbp),%rax
    c0c6:	48 83 c0 20          	add    $0x20,%rax
    c0ca:	48 89 85 40 f1 ff ff 	mov    %rax,-0xec0(%rbp)
    c0d1:	48 8d 85 f0 f2 ff ff 	lea    -0xd10(%rbp),%rax
    c0d8:	48 05 18 06 00 00    	add    $0x618,%rax
    c0de:	48 89 85 48 f1 ff ff 	mov    %rax,-0xeb8(%rbp)
    c0e5:	48 8d 85 f0 f2 ff ff 	lea    -0xd10(%rbp),%rax
    c0ec:	48 83 c0 20          	add    $0x20,%rax
    c0f0:	48 89 85 50 f1 ff ff 	mov    %rax,-0xeb0(%rbp)
    c0f7:	48 8d 85 f0 f2 ff ff 	lea    -0xd10(%rbp),%rax
    c0fe:	48 83 c0 20          	add    $0x20,%rax
    c102:	48 89 85 58 f1 ff ff 	mov    %rax,-0xea8(%rbp)
    c109:	48 8d 85 f0 f2 ff ff 	lea    -0xd10(%rbp),%rax
    c110:	48 05 18 06 00 00    	add    $0x618,%rax
    c116:	48 89 85 60 f1 ff ff 	mov    %rax,-0xea0(%rbp)
    c11d:	48 8d 85 f0 f2 ff ff 	lea    -0xd10(%rbp),%rax
    c124:	48 83 c0 20          	add    $0x20,%rax
    c128:	48 89 85 68 f1 ff ff 	mov    %rax,-0xe98(%rbp)
    c12f:	48 8d 85 f0 f2 ff ff 	lea    -0xd10(%rbp),%rax
    c136:	48 05 18 05 00 00    	add    $0x518,%rax
    c13c:	48 89 85 70 f1 ff ff 	mov    %rax,-0xe90(%rbp)
    c143:	48 8d 85 f0 f2 ff ff 	lea    -0xd10(%rbp),%rax
    c14a:	48 05 a0 03 00 00    	add    $0x3a0,%rax
    c150:	48 89 85 78 f1 ff ff 	mov    %rax,-0xe88(%rbp)
    c157:	48 8d 85 f0 f2 ff ff 	lea    -0xd10(%rbp),%rax
    c15e:	48 83 c0 20          	add    $0x20,%rax
    c162:	48 89 85 80 f1 ff ff 	mov    %rax,-0xe80(%rbp)
    c169:	48 c7 85 88 f1 ff ff 	movq   $0x0,-0xe78(%rbp)
    c170:	00 00 00 00 
    c174:	48 8d 85 f0 f2 ff ff 	lea    -0xd10(%rbp),%rax
    c17b:	48 83 c0 20          	add    $0x20,%rax
    c17f:	48 89 85 90 f1 ff ff 	mov    %rax,-0xe70(%rbp)
    c186:	48 c7 85 98 f1 ff ff 	movq   $0x0,-0xe68(%rbp)
    c18d:	00 00 00 00 
    c191:	48 8d 85 f0 f2 ff ff 	lea    -0xd10(%rbp),%rax
    c198:	48 83 c0 20          	add    $0x20,%rax
    c19c:	48 89 85 a0 f1 ff ff 	mov    %rax,-0xe60(%rbp)
    c1a3:	48 8d 85 f0 f2 ff ff 	lea    -0xd10(%rbp),%rax
    c1aa:	48 83 c0 20          	add    $0x20,%rax
    c1ae:	48 89 85 a8 f1 ff ff 	mov    %rax,-0xe58(%rbp)
    c1b5:	48 8d 85 f0 f2 ff ff 	lea    -0xd10(%rbp),%rax
    c1bc:	48 83 c0 20          	add    $0x20,%rax
    c1c0:	48 89 85 b0 f1 ff ff 	mov    %rax,-0xe50(%rbp)
    c1c7:	48 c7 85 b8 f1 ff ff 	movq   $0x0,-0xe48(%rbp)
    c1ce:	00 00 00 00 
    c1d2:	48 8d 85 f0 f2 ff ff 	lea    -0xd10(%rbp),%rax
    c1d9:	48 83 c0 20          	add    $0x20,%rax
    c1dd:	48 89 85 c0 f1 ff ff 	mov    %rax,-0xe40(%rbp)
    c1e4:	48 8d 85 f0 f2 ff ff 	lea    -0xd10(%rbp),%rax
    c1eb:	48 05 18 05 00 00    	add    $0x518,%rax
    c1f1:	48 89 85 c8 f1 ff ff 	mov    %rax,-0xe38(%rbp)
    c1f8:	48 8d 85 f0 f2 ff ff 	lea    -0xd10(%rbp),%rax
    c1ff:	48 83 c0 20          	add    $0x20,%rax
    c203:	48 89 85 d0 f1 ff ff 	mov    %rax,-0xe30(%rbp)
    c20a:	48 8d 85 f0 f2 ff ff 	lea    -0xd10(%rbp),%rax
    c211:	48 05 70 04 00 00    	add    $0x470,%rax
    c217:	48 89 85 d8 f1 ff ff 	mov    %rax,-0xe28(%rbp)
    c21e:	48 8d 85 f0 f2 ff ff 	lea    -0xd10(%rbp),%rax
    c225:	48 83 c0 20          	add    $0x20,%rax
    c229:	48 89 85 e0 f1 ff ff 	mov    %rax,-0xe20(%rbp)
    c230:	48 8d 85 f0 f2 ff ff 	lea    -0xd10(%rbp),%rax
    c237:	48 83 c0 20          	add    $0x20,%rax
    c23b:	48 89 85 e8 f1 ff ff 	mov    %rax,-0xe18(%rbp)
    c242:	48 8d 85 f0 f2 ff ff 	lea    -0xd10(%rbp),%rax
    c249:	48 05 a0 03 00 00    	add    $0x3a0,%rax
    c24f:	48 89 85 f0 f1 ff ff 	mov    %rax,-0xe10(%rbp)
    c256:	48 8d 85 f0 f2 ff ff 	lea    -0xd10(%rbp),%rax
    c25d:	48 05 38 03 00 00    	add    $0x338,%rax
    c263:	48 89 85 f8 f1 ff ff 	mov    %rax,-0xe08(%rbp)
    c26a:	48 8d 85 f0 f2 ff ff 	lea    -0xd10(%rbp),%rax
    c271:	48 05 38 03 00 00    	add    $0x338,%rax
    c277:	48 89 85 00 f2 ff ff 	mov    %rax,-0xe00(%rbp)
    c27e:	48 8d 85 f0 f2 ff ff 	lea    -0xd10(%rbp),%rax
    c285:	48 05 a0 03 00 00    	add    $0x3a0,%rax
    c28b:	48 89 85 08 f2 ff ff 	mov    %rax,-0xdf8(%rbp)
    c292:	48 8d 85 f0 f2 ff ff 	lea    -0xd10(%rbp),%rax
    c299:	48 83 c0 20          	add    $0x20,%rax
    c29d:	48 89 85 10 f2 ff ff 	mov    %rax,-0xdf0(%rbp)
    c2a4:	48 c7 85 18 f2 ff ff 	movq   $0x0,-0xde8(%rbp)
    c2ab:	00 00 00 00 
    c2af:	48 c7 85 20 f2 ff ff 	movq   $0x0,-0xde0(%rbp)
    c2b6:	00 00 00 00 
    c2ba:	48 c7 85 28 f2 ff ff 	movq   $0x0,-0xdd8(%rbp)
    c2c1:	00 00 00 00 
    c2c5:	48 8d 85 f0 f2 ff ff 	lea    -0xd10(%rbp),%rax
    c2cc:	48 83 c0 20          	add    $0x20,%rax
    c2d0:	48 89 85 30 f2 ff ff 	mov    %rax,-0xdd0(%rbp)
    c2d7:	48 8d 85 f0 f2 ff ff 	lea    -0xd10(%rbp),%rax
    c2de:	48 05 a0 01 00 00    	add    $0x1a0,%rax
    c2e4:	48 89 85 38 f2 ff ff 	mov    %rax,-0xdc8(%rbp)
    c2eb:	48 8d 85 f0 f2 ff ff 	lea    -0xd10(%rbp),%rax
    c2f2:	48 83 c0 20          	add    $0x20,%rax
    c2f6:	48 89 85 40 f2 ff ff 	mov    %rax,-0xdc0(%rbp)
    c2fd:	48 c7 85 48 f2 ff ff 	movq   $0x0,-0xdb8(%rbp)
    c304:	00 00 00 00 
    c308:	48 c7 85 50 f2 ff ff 	movq   $0x0,-0xdb0(%rbp)
    c30f:	00 00 00 00 
    c313:	48 8d 85 f0 f2 ff ff 	lea    -0xd10(%rbp),%rax
    c31a:	48 83 c0 20          	add    $0x20,%rax
    c31e:	48 89 85 58 f2 ff ff 	mov    %rax,-0xda8(%rbp)
    c325:	48 8d 85 f0 f2 ff ff 	lea    -0xd10(%rbp),%rax
    c32c:	48 83 c0 20          	add    $0x20,%rax
    c330:	48 89 85 60 f2 ff ff 	mov    %rax,-0xda0(%rbp)
    c337:	48 8d 85 f0 f2 ff ff 	lea    -0xd10(%rbp),%rax
    c33e:	48 05 70 04 00 00    	add    $0x470,%rax
    c344:	48 89 85 68 f2 ff ff 	mov    %rax,-0xd98(%rbp)
    c34b:	48 8d 85 f0 f2 ff ff 	lea    -0xd10(%rbp),%rax
    c352:	48 83 c0 20          	add    $0x20,%rax
    c356:	48 89 85 70 f2 ff ff 	mov    %rax,-0xd90(%rbp)
    c35d:	48 8d 85 f0 f2 ff ff 	lea    -0xd10(%rbp),%rax
    c364:	48 05 18 05 00 00    	add    $0x518,%rax
    c36a:	48 89 85 78 f2 ff ff 	mov    %rax,-0xd88(%rbp)
    c371:	48 8d 85 f0 f2 ff ff 	lea    -0xd10(%rbp),%rax
    c378:	48 05 18 06 00 00    	add    $0x618,%rax
    c37e:	48 89 85 80 f2 ff ff 	mov    %rax,-0xd80(%rbp)
    c385:	48 8d 85 f0 f2 ff ff 	lea    -0xd10(%rbp),%rax
    c38c:	48 05 38 03 00 00    	add    $0x338,%rax
    c392:	48 89 85 88 f2 ff ff 	mov    %rax,-0xd78(%rbp)
    c399:	48 8d 85 f0 f2 ff ff 	lea    -0xd10(%rbp),%rax
    c3a0:	48 05 18 05 00 00    	add    $0x518,%rax
    c3a6:	48 89 85 90 f2 ff ff 	mov    %rax,-0xd70(%rbp)
    c3ad:	48 8d 85 f0 f2 ff ff 	lea    -0xd10(%rbp),%rax
    c3b4:	48 05 68 04 00 00    	add    $0x468,%rax
    c3ba:	48 89 85 98 f2 ff ff 	mov    %rax,-0xd68(%rbp)
    c3c1:	48 8d 85 f0 f2 ff ff 	lea    -0xd10(%rbp),%rax
    c3c8:	48 83 c0 20          	add    $0x20,%rax
    c3cc:	48 89 85 a0 f2 ff ff 	mov    %rax,-0xd60(%rbp)
    c3d3:	48 c7 85 a8 f2 ff ff 	movq   $0x0,-0xd58(%rbp)
    c3da:	00 00 00 00 
    c3de:	48 8d 85 f0 f2 ff ff 	lea    -0xd10(%rbp),%rax
    c3e5:	48 83 c0 20          	add    $0x20,%rax
    c3e9:	48 89 85 b0 f2 ff ff 	mov    %rax,-0xd50(%rbp)
    c3f0:	48 c7 85 b8 f2 ff ff 	movq   $0x0,-0xd48(%rbp)
    c3f7:	00 00 00 00 
    c3fb:	48 8d 85 f0 f2 ff ff 	lea    -0xd10(%rbp),%rax
    c402:	48 83 c0 20          	add    $0x20,%rax
    c406:	48 89 85 c0 f2 ff ff 	mov    %rax,-0xd40(%rbp)
    c40d:	48 8d 85 f0 f2 ff ff 	lea    -0xd10(%rbp),%rax
    c414:	48 05 a0 01 00 00    	add    $0x1a0,%rax
    c41a:	48 89 85 c8 f2 ff ff 	mov    %rax,-0xd38(%rbp)
    c421:	48 8d 85 f0 f2 ff ff 	lea    -0xd10(%rbp),%rax
    c428:	48 83 c0 20          	add    $0x20,%rax
    c42c:	48 89 85 d0 f2 ff ff 	mov    %rax,-0xd30(%rbp)
    c433:	48 c7 85 d8 f2 ff ff 	movq   $0x0,-0xd28(%rbp)
    c43a:	00 00 00 00 
    c43e:	48 8d 85 f0 f2 ff ff 	lea    -0xd10(%rbp),%rax
    c445:	48 83 c0 20          	add    $0x20,%rax
    c449:	48 89 85 e0 f2 ff ff 	mov    %rax,-0xd20(%rbp)
    c450:	48 c7 85 b0 e6 ff ff 	movq   $0x0,-0x1950(%rbp)
    c457:	00 00 00 00 
    c45b:	c7 85 48 e4 ff ff 01 	movl   $0x1,-0x1bb8(%rbp)
    c462:	00 00 00 
    c465:	c7 85 ac e4 ff ff 7a 	movl   $0xbfaa1f7a,-0x1b54(%rbp)
    c46c:	1f aa bf 
    c46f:	c6 85 1f e4 ff ff 08 	movb   $0x8,-0x1be1(%rbp)
    c476:	c7 85 f0 e8 ff ff 00 	movl   $0x0,-0x1710(%rbp)
    c47d:	00 00 00 
    c480:	c7 85 f4 e8 ff ff fc 	movl   $0xfffffffc,-0x170c(%rbp)
    c487:	ff ff ff 
    c48a:	c7 85 f8 e8 ff ff 74 	movl   $0xaf71c874,-0x1708(%rbp)
    c491:	c8 71 af 
    c494:	c7 85 fc e8 ff ff 04 	movl   $0x4,-0x1704(%rbp)
    c49b:	00 00 00 
    c49e:	c7 85 00 e9 ff ff 04 	movl   $0x4,-0x1700(%rbp)
    c4a5:	00 00 00 
    c4a8:	c7 85 04 e9 ff ff fc 	movl   $0xfffffffc,-0x16fc(%rbp)
    c4af:	ff ff ff 
    c4b2:	c7 85 08 e9 ff ff 00 	movl   $0x0,-0x16f8(%rbp)
    c4b9:	00 00 00 
    c4bc:	c7 85 0c e9 ff ff fc 	movl   $0xfffffffc,-0x16f4(%rbp)
    c4c3:	ff ff ff 
    c4c6:	c7 85 10 e9 ff ff 74 	movl   $0xaf71c874,-0x16f0(%rbp)
    c4cd:	c8 71 af 
    c4d0:	c7 85 14 e9 ff ff 04 	movl   $0x4,-0x16ec(%rbp)
    c4d7:	00 00 00 
    c4da:	c7 85 18 e9 ff ff 88 	movl   $0x29db8e88,-0x16e8(%rbp)
    c4e1:	8e db 29 
    c4e4:	c7 85 1c e9 ff ff 04 	movl   $0x4,-0x16e4(%rbp)
    c4eb:	00 00 00 
    c4ee:	c7 85 20 e9 ff ff 04 	movl   $0x4,-0x16e0(%rbp)
    c4f5:	00 00 00 
    c4f8:	c7 85 24 e9 ff ff 04 	movl   $0x4,-0x16dc(%rbp)
    c4ff:	00 00 00 
    c502:	c7 85 28 e9 ff ff 88 	movl   $0x29db8e88,-0x16d8(%rbp)
    c509:	8e db 29 
    c50c:	c7 85 2c e9 ff ff fc 	movl   $0xfffffffc,-0x16d4(%rbp)
    c513:	ff ff ff 
    c516:	c7 85 30 e9 ff ff 04 	movl   $0x4,-0x16d0(%rbp)
    c51d:	00 00 00 
    c520:	c7 85 34 e9 ff ff 00 	movl   $0x0,-0x16cc(%rbp)
    c527:	00 00 00 
    c52a:	c7 85 38 e9 ff ff 88 	movl   $0x29db8e88,-0x16c8(%rbp)
    c531:	8e db 29 
    c534:	c7 85 3c e9 ff ff 00 	movl   $0x0,-0x16c4(%rbp)
    c53b:	00 00 00 
    c53e:	c7 85 b0 e4 ff ff f7 	movl   $0xfffffff7,-0x1b50(%rbp)
    c545:	ff ff ff 
    c548:	c7 85 b4 e4 ff ff f6 	movl   $0xfffffff6,-0x1b4c(%rbp)
    c54f:	ff ff ff 
    c552:	c7 85 b8 e4 ff ff 01 	movl   $0x1,-0x1b48(%rbp)
    c559:	00 00 00 
    c55c:	48 8d 05 35 83 00 00 	lea    0x8335(%rip),%rax        # 14898 <g_90>
    c563:	48 89 85 b8 e6 ff ff 	mov    %rax,-0x1948(%rbp)
    c56a:	48 8d 85 48 e4 ff ff 	lea    -0x1bb8(%rbp),%rax
    c571:	48 89 85 c0 e6 ff ff 	mov    %rax,-0x1940(%rbp)
    c578:	48 8d 05 d1 6a 00 00 	lea    0x6ad1(%rip),%rax        # 13050 <g_118+0x4>
    c57f:	48 89 85 c8 e6 ff ff 	mov    %rax,-0x1938(%rbp)
    c586:	c7 85 50 e4 ff ff 00 	movl   $0x0,-0x1bb0(%rbp)
    c58d:	00 00 00 
    c590:	eb 1e                	jmp    c5b0 <func_91+0x426c>
    c592:	8b 85 50 e4 ff ff    	mov    -0x1bb0(%rbp),%eax
    c598:	48 98                	cltq   
    c59a:	48 8d 15 f7 82 00 00 	lea    0x82f7(%rip),%rdx        # 14898 <g_90>
    c5a1:	48 89 94 c5 20 e8 ff 	mov    %rdx,-0x17e0(%rbp,%rax,8)
    c5a8:	ff 
    c5a9:	83 85 50 e4 ff ff 01 	addl   $0x1,-0x1bb0(%rbp)
    c5b0:	83 bd 50 e4 ff ff 00 	cmpl   $0x0,-0x1bb0(%rbp)
    c5b7:	7e d9                	jle    c592 <func_91+0x424e>
    c5b9:	0f b6 05 f0 6a 00 00 	movzbl 0x6af0(%rip),%eax        # 130b0 <g_181>
    c5c0:	0f be c0             	movsbl %al,%eax
    c5c3:	be 07 00 00 00       	mov    $0x7,%esi
    c5c8:	89 c7                	mov    %eax,%edi
    c5ca:	e8 36 80 ff ff       	callq  4605 <safe_sub_func_int32_t_s_s>
    c5cf:	88 05 db 6a 00 00    	mov    %al,0x6adb(%rip)        # 130b0 <g_181>
    c5d5:	0f b6 05 d4 6a 00 00 	movzbl 0x6ad4(%rip),%eax        # 130b0 <g_181>
    c5dc:	3c e3                	cmp    $0xe3,%al
    c5de:	0f 8c 89 e5 ff ff    	jl     ab6d <func_91+0x2829>
    c5e4:	0f b7 85 04 e4 ff ff 	movzwl -0x1bfc(%rbp),%eax
    c5eb:	0f b7 d8             	movzwl %ax,%ebx
    c5ee:	48 8b 05 6b 79 00 00 	mov    0x796b(%rip),%rax        # 13f60 <g_590>
    c5f5:	48 8b 00             	mov    (%rax),%rax
    c5f8:	48 8b 00             	mov    (%rax),%rax
    c5fb:	48 8b 00             	mov    (%rax),%rax
    c5fe:	48 8b 00             	mov    (%rax),%rax
    c601:	49 89 c5             	mov    %rax,%r13
    c604:	48 8b 05 95 6a 00 00 	mov    0x6a95(%rip),%rax        # 130a0 <g_180+0x20>
    c60b:	0f be d0             	movsbl %al,%edx
    c60e:	48 83 bd e0 e5 ff ff 	cmpq   $0x0,-0x1a20(%rbp)
    c615:	00 
    c616:	0f 94 c0             	sete   %al
    c619:	0f b6 c0             	movzbl %al,%eax
    c61c:	89 d6                	mov    %edx,%esi
    c61e:	89 c7                	mov    %eax,%edi
    c620:	e8 0c 7c ff ff       	callq  4231 <safe_mod_func_int8_t_s_s>
    c625:	44 0f be e0          	movsbl %al,%r12d
    c629:	be 03 00 00 00       	mov    $0x3,%esi
    c62e:	bf 00 00 00 00       	mov    $0x0,%edi
    c633:	e8 86 86 ff ff       	callq  4cbe <safe_rshift_func_uint8_t_u_u>
    c638:	0f b6 d0             	movzbl %al,%edx
    c63b:	48 8b 85 f8 e3 ff ff 	mov    -0x1c08(%rbp),%rax
    c642:	48 39 c2             	cmp    %rax,%rdx
    c645:	0f 97 c0             	seta   %al
    c648:	0f b6 d0             	movzbl %al,%edx
    c64b:	48 8b 85 08 e4 ff ff 	mov    -0x1bf8(%rbp),%rax
    c652:	48 21 c2             	and    %rax,%rdx
    c655:	48 8b 85 f0 e5 ff ff 	mov    -0x1a10(%rbp),%rax
    c65c:	8b 00                	mov    (%rax),%eax
    c65e:	48 98                	cltq   
    c660:	48 39 c2             	cmp    %rax,%rdx
    c663:	0f 9e c0             	setle  %al
    c666:	0f b6 c0             	movzbl %al,%eax
    c669:	44 89 e2             	mov    %r12d,%edx
    c66c:	31 c2                	xor    %eax,%edx
    c66e:	b8 47 89 ff ff       	mov    $0xffff8947,%eax
    c673:	0f b7 c0             	movzwl %ax,%eax
    c676:	39 c2                	cmp    %eax,%edx
    c678:	48 8b 85 f0 e3 ff ff 	mov    -0x1c10(%rbp),%rax
    c67f:	0f b6 00             	movzbl (%rax),%eax
    c682:	84 c0                	test   %al,%al
    c684:	75 0d                	jne    c693 <func_91+0x434f>
    c686:	48 8b 85 f0 e5 ff ff 	mov    -0x1a10(%rbp),%rax
    c68d:	8b 00                	mov    (%rax),%eax
    c68f:	85 c0                	test   %eax,%eax
    c691:	74 07                	je     c69a <func_91+0x4356>
    c693:	b8 01 00 00 00       	mov    $0x1,%eax
    c698:	eb 05                	jmp    c69f <func_91+0x435b>
    c69a:	b8 00 00 00 00       	mov    $0x0,%eax
    c69f:	48 63 d0             	movslq %eax,%rdx
    c6a2:	48 8b 85 08 e4 ff ff 	mov    -0x1bf8(%rbp),%rax
    c6a9:	48 39 c2             	cmp    %rax,%rdx
    c6ac:	0f 95 c0             	setne  %al
    c6af:	0f b6 c0             	movzbl %al,%eax
    c6b2:	4c 89 ee             	mov    %r13,%rsi
    c6b5:	48 89 c7             	mov    %rax,%rdi
    c6b8:	e8 71 89 ff ff       	callq  502e <safe_add_func_uint64_t_u_u>
    c6bd:	48 8b 95 08 e4 ff ff 	mov    -0x1bf8(%rbp),%rdx
    c6c4:	48 39 d0             	cmp    %rdx,%rax
    c6c7:	0f 93 c0             	setae  %al
    c6ca:	0f b6 d0             	movzbl %al,%edx
    c6cd:	48 8b 05 ec 73 00 00 	mov    0x73ec(%rip),%rax        # 13ac0 <g_21>
    c6d4:	8b 00                	mov    (%rax),%eax
    c6d6:	39 c2                	cmp    %eax,%edx
    c6d8:	0f 9c c0             	setl   %al
    c6db:	0f b6 d0             	movzbl %al,%edx
    c6de:	48 8b 85 d0 e5 ff ff 	mov    -0x1a30(%rbp),%rax
    c6e5:	66 89 10             	mov    %dx,(%rax)
    c6e8:	48 8b 05 79 69 00 00 	mov    0x6979(%rip),%rax        # 13068 <g_158>
    c6ef:	0f b6 c0             	movzbl %al,%eax
    c6f2:	be 3e 00 00 00       	mov    $0x3e,%esi
    c6f7:	89 c7                	mov    %eax,%edi
    c6f9:	e8 dd 84 ff ff       	callq  4bdb <safe_div_func_uint8_t_u_u>
    c6fe:	0f b6 d0             	movzbl %al,%edx
    c701:	8b 05 ad 69 00 00    	mov    0x69ad(%rip),%eax        # 130b4 <g_190>
    c707:	39 c2                	cmp    %eax,%edx
    c709:	0f 92 c0             	setb   %al
    c70c:	0f b6 d0             	movzbl %al,%edx
    c70f:	48 8b 85 08 e4 ff ff 	mov    -0x1bf8(%rbp),%rax
    c716:	48 39 c2             	cmp    %rax,%rdx
    c719:	0f 9f c0             	setg   %al
    c71c:	0f b6 c0             	movzbl %al,%eax
    c71f:	39 c3                	cmp    %eax,%ebx
    c721:	7e 0a                	jle    c72d <func_91+0x43e9>
    c723:	0f b7 85 04 e4 ff ff 	movzwl -0x1bfc(%rbp),%eax
    c72a:	66 85 c0             	test   %ax,%ax
    c72d:	b9 01 00 00 00       	mov    $0x1,%ecx
    c732:	48 8b 85 48 e5 ff ff 	mov    -0x1ab8(%rbp),%rax
    c739:	8b 10                	mov    (%rax),%edx
    c73b:	48 8b 85 48 e5 ff ff 	mov    -0x1ab8(%rbp),%rax
    c742:	21 ca                	and    %ecx,%edx
    c744:	89 10                	mov    %edx,(%rax)
    c746:	8b 00                	mov    (%rax),%eax
    c748:	85 c0                	test   %eax,%eax
    c74a:	74 0c                	je     c758 <func_91+0x4414>
    c74c:	0f b7 05 75 69 00 00 	movzwl 0x6975(%rip),%eax        # 130c8 <g_266>
    c753:	e9 c0 18 00 00       	jmpq   e018 <func_91+0x5cd4>
    c758:	48 8d 85 08 e5 ff ff 	lea    -0x1af8(%rbp),%rax
    c75f:	48 89 85 78 e6 ff ff 	mov    %rax,-0x1988(%rbp)
    c766:	c7 85 a8 e4 ff ff b9 	movl   $0xff2ac0b9,-0x1b58(%rbp)
    c76d:	c0 2a ff 
    c770:	48 8d 85 48 e5 ff ff 	lea    -0x1ab8(%rbp),%rax
    c777:	48 89 85 80 e6 ff ff 	mov    %rax,-0x1980(%rbp)
    c77e:	48 b8 7b dd b8 d3 b3 	movabs $0xd24dbab3d3b8dd7b,%rax
    c785:	ba 4d d2 
    c788:	48 89 85 88 e6 ff ff 	mov    %rax,-0x1978(%rbp)
    c78f:	48 8b 85 78 e6 ff ff 	mov    -0x1988(%rbp),%rax
    c796:	48 c7 00 00 00 00 00 	movq   $0x0,(%rax)
    c79d:	48 8b 85 e0 e4 ff ff 	mov    -0x1b20(%rbp),%rax
    c7a4:	8b 00                	mov    (%rax),%eax
    c7a6:	f7 d0                	not    %eax
    c7a8:	48 98                	cltq   
    c7aa:	48 8b 15 87 68 00 00 	mov    0x6887(%rip),%rdx        # 13038 <g_37>
    c7b1:	48 89 c6             	mov    %rax,%rsi
    c7b4:	48 89 d7             	mov    %rdx,%rdi
    c7b7:	e8 f3 88 ff ff       	callq  50af <safe_div_func_uint64_t_u_u>
    c7bc:	0f b7 85 04 e4 ff ff 	movzwl -0x1bfc(%rbp),%eax
    c7c3:	0f b7 d8             	movzwl %ax,%ebx
    c7c6:	48 8b 85 e0 e4 ff ff 	mov    -0x1b20(%rbp),%rax
    c7cd:	44 8b 20             	mov    (%rax),%r12d
    c7d0:	48 8b 05 e9 68 00 00 	mov    0x68e9(%rip),%rax        # 130c0 <g_215>
    c7d7:	89 c2                	mov    %eax,%edx
    c7d9:	48 8b 85 f8 e3 ff ff 	mov    -0x1c08(%rbp),%rax
    c7e0:	48 85 c0             	test   %rax,%rax
    c7e3:	75 0c                	jne    c7f1 <func_91+0x44ad>
    c7e5:	48 8b 85 08 e4 ff ff 	mov    -0x1bf8(%rbp),%rax
    c7ec:	48 85 c0             	test   %rax,%rax
    c7ef:	74 07                	je     c7f8 <func_91+0x44b4>
    c7f1:	b8 01 00 00 00       	mov    $0x1,%eax
    c7f6:	eb 05                	jmp    c7fd <func_91+0x44b9>
    c7f8:	b8 00 00 00 00       	mov    $0x0,%eax
    c7fd:	0f b7 c0             	movzwl %ax,%eax
    c800:	25 24 f0 00 00       	and    $0xf024,%eax
    c805:	89 d6                	mov    %edx,%esi
    c807:	89 c7                	mov    %eax,%edi
    c809:	e8 b0 85 ff ff       	callq  4dbe <safe_lshift_func_uint16_t_u_s>
    c80e:	0f b7 c0             	movzwl %ax,%eax
    c811:	41 39 c4             	cmp    %eax,%r12d
    c814:	0f 9f c0             	setg   %al
    c817:	0f b6 c0             	movzbl %al,%eax
    c81a:	23 85 a8 e4 ff ff    	and    -0x1b58(%rbp),%eax
    c820:	48 63 d0             	movslq %eax,%rdx
    c823:	80 bd 1d e4 ff ff 06 	cmpb   $0x6,-0x1be3(%rbp)
    c82a:	0f 9e c0             	setle  %al
    c82d:	0f b6 c0             	movzbl %al,%eax
    c830:	48 89 d6             	mov    %rdx,%rsi
    c833:	48 89 c7             	mov    %rax,%rdi
    c836:	e8 79 81 ff ff       	callq  49b4 <safe_mod_func_int64_t_s_s>
    c83b:	48 83 bd 80 e6 ff ff 	cmpq   $0x0,-0x1980(%rbp)
    c842:	00 
    c843:	0f 95 c0             	setne  %al
    c846:	0f b6 d0             	movzbl %al,%edx
    c849:	48 8b 85 80 e6 ff ff 	mov    -0x1980(%rbp),%rax
    c850:	48 8b 00             	mov    (%rax),%rax
    c853:	8b 00                	mov    (%rax),%eax
    c855:	31 c2                	xor    %eax,%edx
    c857:	48 8b 05 a2 76 00 00 	mov    0x76a2(%rip),%rax        # 13f00 <g_523>
    c85e:	48 8b 00             	mov    (%rax),%rax
    c861:	66 89 10             	mov    %dx,(%rax)
    c864:	0f b7 00             	movzwl (%rax),%eax
    c867:	0f b7 c0             	movzwl %ax,%eax
    c86a:	89 de                	mov    %ebx,%esi
    c86c:	89 c7                	mov    %eax,%edi
    c86e:	e8 93 85 ff ff       	callq  4e06 <safe_lshift_func_uint16_t_u_u>
    c873:	be 00 00 00 00       	mov    $0x0,%esi
    c878:	bf 01 00 00 00       	mov    $0x1,%edi
    c87d:	e8 9d 84 ff ff       	callq  4d1f <safe_sub_func_uint16_t_u_u>
    c882:	be 0e 00 00 00       	mov    $0xe,%esi
    c887:	bf 01 00 00 00       	mov    $0x1,%edi
    c88c:	e8 75 85 ff ff       	callq  4e06 <safe_lshift_func_uint16_t_u_u>
    c891:	48 8b 05 a0 72 00 00 	mov    0x72a0(%rip),%rax        # 13b38 <g_152>
    c898:	48 8b 05 91 72 00 00 	mov    0x7291(%rip),%rax        # 13b30 <g_119>
    c89f:	48 85 c0             	test   %rax,%rax
    c8a2:	0f 95 c0             	setne  %al
    c8a5:	0f b6 c0             	movzbl %al,%eax
    c8a8:	48 98                	cltq   
    c8aa:	48 31 85 10 e6 ff ff 	xor    %rax,-0x19f0(%rbp)
    c8b1:	48 8b 85 10 e6 ff ff 	mov    -0x19f0(%rbp),%rax
    c8b8:	89 c2                	mov    %eax,%edx
    c8ba:	48 8b 85 f0 e5 ff ff 	mov    -0x1a10(%rbp),%rax
    c8c1:	89 10                	mov    %edx,(%rax)
    c8c3:	eb 77                	jmp    c93c <func_91+0x45f8>
    c8c5:	48 c7 85 b0 e5 ff ff 	movq   $0x4,-0x1a50(%rbp)
    c8cc:	04 00 00 00 
    c8d0:	48 c7 85 b8 e5 ff ff 	movq   $0x0,-0x1a48(%rbp)
    c8d7:	00 00 00 00 
    c8db:	48 8d 85 00 e8 ff ff 	lea    -0x1800(%rbp),%rax
    c8e2:	48 83 c0 04          	add    $0x4,%rax
    c8e6:	48 89 85 c0 e5 ff ff 	mov    %rax,-0x1a40(%rbp)
    c8ed:	48 8d 05 c4 67 00 00 	lea    0x67c4(%rip),%rax        # 130b8 <g_206>
    c8f4:	48 89 85 f0 f2 ff ff 	mov    %rax,-0xd10(%rbp)
    c8fb:	48 8d 05 b6 67 00 00 	lea    0x67b6(%rip),%rax        # 130b8 <g_206>
    c902:	48 89 85 f8 f2 ff ff 	mov    %rax,-0xd08(%rbp)
    c909:	48 8d 05 a8 67 00 00 	lea    0x67a8(%rip),%rax        # 130b8 <g_206>
    c910:	48 89 85 00 f3 ff ff 	mov    %rax,-0xd00(%rbp)
    c917:	48 8d 05 9a 67 00 00 	lea    0x679a(%rip),%rax        # 130b8 <g_206>
    c91e:	48 89 85 08 f3 ff ff 	mov    %rax,-0xcf8(%rbp)
    c925:	80 ad 1a e4 ff ff 01 	subb   $0x1,-0x1be6(%rbp)
    c92c:	48 8b 85 08 e4 ff ff 	mov    -0x1bf8(%rbp),%rax
    c933:	48 85 c0             	test   %rax,%rax
    c936:	0f 85 a3 16 00 00    	jne    dfdf <func_91+0x5c9b>
    c93c:	c7 05 5e 7f 00 00 00 	movl   $0x0,0x7f5e(%rip)        # 148a4 <g_371>
    c943:	00 00 00 
    c946:	90                   	nop
    c947:	8b 05 57 7f 00 00    	mov    0x7f57(%rip),%eax        # 148a4 <g_371>
    c94d:	83 f8 06             	cmp    $0x6,%eax
    c950:	0f 87 8d 16 00 00    	ja     dfe3 <func_91+0x5c9f>
    c956:	c7 85 bc e4 ff ff ff 	movl   $0xffffffff,-0x1b44(%rbp)
    c95d:	ff ff ff 
    c960:	c7 85 c0 e4 ff ff f8 	movl   $0xfffffff8,-0x1b40(%rbp)
    c967:	ff ff ff 
    c96a:	c7 85 c4 e4 ff ff ff 	movl   $0xffffffff,-0x1b3c(%rbp)
    c971:	ff ff ff 
    c974:	c7 85 00 ed ff ff 00 	movl   $0x0,-0x1300(%rbp)
    c97b:	00 00 00 
    c97e:	c7 85 04 ed ff ff 00 	movl   $0x0,-0x12fc(%rbp)
    c985:	00 00 00 
    c988:	c7 85 08 ed ff ff 00 	movl   $0x0,-0x12f8(%rbp)
    c98f:	00 00 00 
    c992:	c7 85 0c ed ff ff 00 	movl   $0x0,-0x12f4(%rbp)
    c999:	00 00 00 
    c99c:	c7 85 10 ed ff ff 00 	movl   $0x0,-0x12f0(%rbp)
    c9a3:	00 00 00 
    c9a6:	c7 85 14 ed ff ff be 	movl   $0x5a8a51be,-0x12ec(%rbp)
    c9ad:	51 8a 5a 
    c9b0:	c7 85 18 ed ff ff be 	movl   $0x5a8a51be,-0x12e8(%rbp)
    c9b7:	51 8a 5a 
    c9ba:	c7 85 1c ed ff ff be 	movl   $0x5a8a51be,-0x12e4(%rbp)
    c9c1:	51 8a 5a 
    c9c4:	c7 85 20 ed ff ff be 	movl   $0x5a8a51be,-0x12e0(%rbp)
    c9cb:	51 8a 5a 
    c9ce:	c7 85 24 ed ff ff be 	movl   $0x5a8a51be,-0x12dc(%rbp)
    c9d5:	51 8a 5a 
    c9d8:	c7 85 28 ed ff ff 00 	movl   $0x0,-0x12d8(%rbp)
    c9df:	00 00 00 
    c9e2:	c7 85 2c ed ff ff 00 	movl   $0x0,-0x12d4(%rbp)
    c9e9:	00 00 00 
    c9ec:	c7 85 30 ed ff ff 00 	movl   $0x0,-0x12d0(%rbp)
    c9f3:	00 00 00 
    c9f6:	c7 85 34 ed ff ff 00 	movl   $0x0,-0x12cc(%rbp)
    c9fd:	00 00 00 
    ca00:	c7 85 38 ed ff ff 00 	movl   $0x0,-0x12c8(%rbp)
    ca07:	00 00 00 
    ca0a:	c7 85 3c ed ff ff be 	movl   $0x5a8a51be,-0x12c4(%rbp)
    ca11:	51 8a 5a 
    ca14:	c7 85 40 ed ff ff be 	movl   $0x5a8a51be,-0x12c0(%rbp)
    ca1b:	51 8a 5a 
    ca1e:	c7 85 44 ed ff ff be 	movl   $0x5a8a51be,-0x12bc(%rbp)
    ca25:	51 8a 5a 
    ca28:	c7 85 48 ed ff ff be 	movl   $0x5a8a51be,-0x12b8(%rbp)
    ca2f:	51 8a 5a 
    ca32:	c7 85 4c ed ff ff be 	movl   $0x5a8a51be,-0x12b4(%rbp)
    ca39:	51 8a 5a 
    ca3c:	c7 85 50 ed ff ff 00 	movl   $0x0,-0x12b0(%rbp)
    ca43:	00 00 00 
    ca46:	c7 85 54 ed ff ff 00 	movl   $0x0,-0x12ac(%rbp)
    ca4d:	00 00 00 
    ca50:	c7 85 58 ed ff ff 00 	movl   $0x0,-0x12a8(%rbp)
    ca57:	00 00 00 
    ca5a:	c7 85 5c ed ff ff 00 	movl   $0x0,-0x12a4(%rbp)
    ca61:	00 00 00 
    ca64:	c7 85 60 ed ff ff 00 	movl   $0x0,-0x12a0(%rbp)
    ca6b:	00 00 00 
    ca6e:	c7 85 64 ed ff ff be 	movl   $0x5a8a51be,-0x129c(%rbp)
    ca75:	51 8a 5a 
    ca78:	c7 85 68 ed ff ff be 	movl   $0x5a8a51be,-0x1298(%rbp)
    ca7f:	51 8a 5a 
    ca82:	c7 85 6c ed ff ff be 	movl   $0x5a8a51be,-0x1294(%rbp)
    ca89:	51 8a 5a 
    ca8c:	c7 85 70 ed ff ff be 	movl   $0x5a8a51be,-0x1290(%rbp)
    ca93:	51 8a 5a 
    ca96:	c7 85 74 ed ff ff be 	movl   $0x5a8a51be,-0x128c(%rbp)
    ca9d:	51 8a 5a 
    caa0:	c7 85 78 ed ff ff 00 	movl   $0x0,-0x1288(%rbp)
    caa7:	00 00 00 
    caaa:	c7 85 7c ed ff ff 00 	movl   $0x0,-0x1284(%rbp)
    cab1:	00 00 00 
    cab4:	c7 85 80 ed ff ff 00 	movl   $0x0,-0x1280(%rbp)
    cabb:	00 00 00 
    cabe:	c7 85 84 ed ff ff 00 	movl   $0x0,-0x127c(%rbp)
    cac5:	00 00 00 
    cac8:	c7 85 88 ed ff ff 00 	movl   $0x0,-0x1278(%rbp)
    cacf:	00 00 00 
    cad2:	c7 85 8c ed ff ff be 	movl   $0x5a8a51be,-0x1274(%rbp)
    cad9:	51 8a 5a 
    cadc:	c7 85 90 ed ff ff be 	movl   $0x5a8a51be,-0x1270(%rbp)
    cae3:	51 8a 5a 
    cae6:	c7 85 94 ed ff ff be 	movl   $0x5a8a51be,-0x126c(%rbp)
    caed:	51 8a 5a 
    caf0:	c7 85 98 ed ff ff be 	movl   $0x5a8a51be,-0x1268(%rbp)
    caf7:	51 8a 5a 
    cafa:	c7 85 9c ed ff ff be 	movl   $0x5a8a51be,-0x1264(%rbp)
    cb01:	51 8a 5a 
    cb04:	c7 85 a0 ed ff ff 00 	movl   $0x0,-0x1260(%rbp)
    cb0b:	00 00 00 
    cb0e:	c7 85 a4 ed ff ff 00 	movl   $0x0,-0x125c(%rbp)
    cb15:	00 00 00 
    cb18:	c7 85 a8 ed ff ff 00 	movl   $0x0,-0x1258(%rbp)
    cb1f:	00 00 00 
    cb22:	c7 85 ac ed ff ff 00 	movl   $0x0,-0x1254(%rbp)
    cb29:	00 00 00 
    cb2c:	c7 85 b0 ed ff ff 00 	movl   $0x0,-0x1250(%rbp)
    cb33:	00 00 00 
    cb36:	c7 85 b4 ed ff ff be 	movl   $0x5a8a51be,-0x124c(%rbp)
    cb3d:	51 8a 5a 
    cb40:	c7 85 b8 ed ff ff be 	movl   $0x5a8a51be,-0x1248(%rbp)
    cb47:	51 8a 5a 
    cb4a:	c7 85 bc ed ff ff be 	movl   $0x5a8a51be,-0x1244(%rbp)
    cb51:	51 8a 5a 
    cb54:	c7 85 c0 ed ff ff be 	movl   $0x5a8a51be,-0x1240(%rbp)
    cb5b:	51 8a 5a 
    cb5e:	c7 85 c4 ed ff ff be 	movl   $0x5a8a51be,-0x123c(%rbp)
    cb65:	51 8a 5a 
    cb68:	c7 85 c8 ed ff ff 00 	movl   $0x0,-0x1238(%rbp)
    cb6f:	00 00 00 
    cb72:	c7 85 cc ed ff ff 00 	movl   $0x0,-0x1234(%rbp)
    cb79:	00 00 00 
    cb7c:	c7 85 d0 ed ff ff 00 	movl   $0x0,-0x1230(%rbp)
    cb83:	00 00 00 
    cb86:	c7 85 d4 ed ff ff 00 	movl   $0x0,-0x122c(%rbp)
    cb8d:	00 00 00 
    cb90:	c7 85 d8 ed ff ff 00 	movl   $0x0,-0x1228(%rbp)
    cb97:	00 00 00 
    cb9a:	c7 85 dc ed ff ff be 	movl   $0x5a8a51be,-0x1224(%rbp)
    cba1:	51 8a 5a 
    cba4:	c7 85 e0 ed ff ff be 	movl   $0x5a8a51be,-0x1220(%rbp)
    cbab:	51 8a 5a 
    cbae:	c7 85 e4 ed ff ff be 	movl   $0x5a8a51be,-0x121c(%rbp)
    cbb5:	51 8a 5a 
    cbb8:	c7 85 e8 ed ff ff be 	movl   $0x5a8a51be,-0x1218(%rbp)
    cbbf:	51 8a 5a 
    cbc2:	c7 85 ec ed ff ff be 	movl   $0x5a8a51be,-0x1214(%rbp)
    cbc9:	51 8a 5a 
    cbcc:	48 8d 05 cf 7c 00 00 	lea    0x7ccf(%rip),%rax        # 148a2 <g_109>
    cbd3:	48 89 85 d0 e6 ff ff 	mov    %rax,-0x1930(%rbp)
    cbda:	48 8d 05 f5 64 00 00 	lea    0x64f5(%rip),%rax        # 130d6 <g_716>
    cbe1:	48 89 85 40 e5 ff ff 	mov    %rax,-0x1ac0(%rbp)
    cbe8:	48 8d 85 40 e5 ff ff 	lea    -0x1ac0(%rbp),%rax
    cbef:	48 89 85 48 e5 ff ff 	mov    %rax,-0x1ab8(%rbp)
    cbf6:	48 8d 85 48 e5 ff ff 	lea    -0x1ab8(%rbp),%rax
    cbfd:	48 89 85 d8 e6 ff ff 	mov    %rax,-0x1928(%rbp)
    cc04:	48 8d 85 00 e8 ff ff 	lea    -0x1800(%rbp),%rax
    cc0b:	48 83 c0 10          	add    $0x10,%rax
    cc0f:	48 89 85 e0 e6 ff ff 	mov    %rax,-0x1920(%rbp)
    cc16:	c7 85 44 e4 ff ff 75 	movl   $0xe5c5f075,-0x1bbc(%rbp)
    cc1d:	f0 c5 e5 
    cc20:	48 8d 85 18 e5 ff ff 	lea    -0x1ae8(%rbp),%rax
    cc27:	48 89 85 e8 e6 ff ff 	mov    %rax,-0x1918(%rbp)
    cc2e:	c7 85 54 e4 ff ff 22 	movl   $0xe2798c22,-0x1bac(%rbp)
    cc35:	8c 79 e2 
    cc38:	48 b8 a9 ab e7 0d ee 	movabs $0xa8452eee0de7aba9,%rax
    cc3f:	2e 45 a8 
    cc42:	48 89 85 a0 e8 ff ff 	mov    %rax,-0x1760(%rbp)
    cc49:	48 89 85 a8 e8 ff ff 	mov    %rax,-0x1758(%rbp)
    cc50:	48 bb 0a 05 19 99 60 	movabs $0x863e60609919050a,%rbx
    cc57:	60 3e 86 
    cc5a:	48 89 9d b0 e8 ff ff 	mov    %rbx,-0x1750(%rbp)
    cc61:	48 89 85 b8 e8 ff ff 	mov    %rax,-0x1748(%rbp)
    cc68:	48 89 85 c0 e8 ff ff 	mov    %rax,-0x1740(%rbp)
    cc6f:	48 89 9d c8 e8 ff ff 	mov    %rbx,-0x1738(%rbp)
    cc76:	c6 85 20 e4 ff ff 00 	movb   $0x0,-0x1be0(%rbp)
    cc7d:	48 8b 85 f0 e3 ff ff 	mov    -0x1c10(%rbp),%rax
    cc84:	0f b6 00             	movzbl (%rax),%eax
    cc87:	0f be c0             	movsbl %al,%eax
    cc8a:	be 5c 00 00 00       	mov    $0x5c,%esi
    cc8f:	89 c7                	mov    %eax,%edi
    cc91:	e8 7c 75 ff ff       	callq  4212 <safe_mul_func_int8_t_s_s>
    cc96:	0f be d0             	movsbl %al,%edx
    cc99:	8b 05 05 7c 00 00    	mov    0x7c05(%rip),%eax        # 148a4 <g_371>
    cc9f:	89 c1                	mov    %eax,%ecx
    cca1:	48 8d 05 a4 63 00 00 	lea    0x63a4(%rip),%rax        # 1304c <g_118>
    cca8:	0f b6 04 01          	movzbl (%rcx,%rax,1),%eax
    ccac:	0f be c0             	movsbl %al,%eax
    ccaf:	89 d6                	mov    %edx,%esi
    ccb1:	89 c7                	mov    %eax,%edi
    ccb3:	e8 5a 75 ff ff       	callq  4212 <safe_mul_func_int8_t_s_s>
    ccb8:	48 0f be c0          	movsbq %al,%rax
    ccbc:	48 89 85 08 e4 ff ff 	mov    %rax,-0x1bf8(%rbp)
    ccc3:	48 8b 05 7e 72 00 00 	mov    0x727e(%rip),%rax        # 13f48 <g_593>
    ccca:	48 8b 95 08 e4 ff ff 	mov    -0x1bf8(%rbp),%rdx
    ccd1:	48 89 10             	mov    %rdx,(%rax)
    ccd4:	48 8b 00             	mov    (%rax),%rax
    ccd7:	48 ba 63 7a e7 b1 c1 	movabs $0x598bcbc1b1e77a63,%rdx
    ccde:	cb 8b 59 
    cce1:	48 09 d0             	or     %rdx,%rax
    cce4:	48 3d 27 bd 00 00    	cmp    $0xbd27,%rax
    ccea:	0f 9f c0             	setg   %al
    cced:	0f b6 d0             	movzbl %al,%edx
    ccf0:	48 8b 05 09 72 00 00 	mov    0x7209(%rip),%rax        # 13f00 <g_523>
    ccf7:	48 8b 00             	mov    (%rax),%rax
    ccfa:	0f b7 00             	movzwl (%rax),%eax
    ccfd:	0f b7 c0             	movzwl %ax,%eax
    cd00:	89 d6                	mov    %edx,%esi
    cd02:	89 c7                	mov    %eax,%edi
    cd04:	e8 3f 81 ff ff       	callq  4e48 <safe_rshift_func_uint16_t_u_s>
    cd09:	48 8b 85 e0 e4 ff ff 	mov    -0x1b20(%rbp),%rax
    cd10:	8b 10                	mov    (%rax),%edx
    cd12:	48 8b 85 e0 e4 ff ff 	mov    -0x1b20(%rbp),%rax
    cd19:	23 95 c4 e4 ff ff    	and    -0x1b3c(%rbp),%edx
    cd1f:	89 10                	mov    %edx,(%rax)
    cd21:	48 8b 05 08 6e 00 00 	mov    0x6e08(%rip),%rax        # 13b30 <g_119>
    cd28:	8b 00                	mov    (%rax),%eax
    cd2a:	85 c0                	test   %eax,%eax
    cd2c:	0f 85 b0 12 00 00    	jne    dfe2 <func_91+0x5c9e>
    cd32:	c7 05 0c 63 00 00 00 	movl   $0x0,0x630c(%rip)        # 13048 <g_115>
    cd39:	00 00 00 
    cd3c:	90                   	nop
    cd3d:	8b 05 05 63 00 00    	mov    0x6305(%rip),%eax        # 13048 <g_115>
    cd43:	83 f8 02             	cmp    $0x2,%eax
    cd46:	77 14                	ja     cd5c <func_91+0x4a18>
    cd48:	8b 05 fa 62 00 00    	mov    0x62fa(%rip),%eax        # 13048 <g_115>
    cd4e:	89 c0                	mov    %eax,%eax
    cd50:	8b 84 85 e4 e7 ff ff 	mov    -0x181c(%rbp,%rax,4),%eax
    cd57:	e9 bc 12 00 00       	jmpq   e018 <func_91+0x5cd4>
    cd5c:	c7 85 3c e4 ff ff 00 	movl   $0x0,-0x1bc4(%rbp)
    cd63:	00 00 00 
    cd66:	eb 22                	jmp    cd8a <func_91+0x4a46>
    cd68:	c7 85 c8 e4 ff ff 04 	movl   $0x1edeb804,-0x1b38(%rbp)
    cd6f:	b8 de 1e 
    cd72:	83 bd c8 e4 ff ff 00 	cmpl   $0x0,-0x1b38(%rbp)
    cd79:	75 1c                	jne    cd97 <func_91+0x4a53>
    cd7b:	8b 85 3c e4 ff ff    	mov    -0x1bc4(%rbp),%eax
    cd81:	83 e8 01             	sub    $0x1,%eax
    cd84:	89 85 3c e4 ff ff    	mov    %eax,-0x1bc4(%rbp)
    cd8a:	8b 85 3c e4 ff ff    	mov    -0x1bc4(%rbp),%eax
    cd90:	83 f8 f2             	cmp    $0xfffffff2,%eax
    cd93:	75 d3                	jne    cd68 <func_91+0x4a24>
    cd95:	eb 01                	jmp    cd98 <func_91+0x4a54>
    cd97:	90                   	nop
    cd98:	48 8b 05 c1 71 00 00 	mov    0x71c1(%rip),%rax        # 13f60 <g_590>
    cd9f:	48 8b 00             	mov    (%rax),%rax
    cda2:	48 8b 00             	mov    (%rax),%rax
    cda5:	48 8b 10             	mov    (%rax),%rdx
    cda8:	48 8b 05 b1 71 00 00 	mov    0x71b1(%rip),%rax        # 13f60 <g_590>
    cdaf:	48 8b 00             	mov    (%rax),%rax
    cdb2:	48 8b 00             	mov    (%rax),%rax
    cdb5:	48 8b 00             	mov    (%rax),%rax
    cdb8:	48 8b 12             	mov    (%rdx),%rdx
    cdbb:	48 89 10             	mov    %rdx,(%rax)
    cdbe:	48 8b 00             	mov    (%rax),%rax
    cdc1:	48 85 c0             	test   %rax,%rax
    cdc4:	0f 84 30 01 00 00    	je     cefa <func_91+0x4bb6>
    cdca:	48 8b 85 d0 e6 ff ff 	mov    -0x1930(%rbp),%rax
    cdd1:	0f b7 00             	movzwl (%rax),%eax
    cdd4:	8b 95 e0 ed ff ff    	mov    -0x1220(%rbp),%edx
    cdda:	21 c2                	and    %eax,%edx
    cddc:	48 8b 85 d0 e6 ff ff 	mov    -0x1930(%rbp),%rax
    cde3:	66 89 10             	mov    %dx,(%rax)
    cde6:	48 8b 85 d0 e6 ff ff 	mov    -0x1930(%rbp),%rax
    cded:	0f b7 00             	movzwl (%rax),%eax
    cdf0:	44 0f bf e0          	movswl %ax,%r12d
    cdf4:	8b 9d 34 e4 ff ff    	mov    -0x1bcc(%rbp),%ebx
    cdfa:	48 8b 85 d8 e6 ff ff 	mov    -0x1928(%rbp),%rax
    ce01:	48 8d 15 70 70 00 00 	lea    0x7070(%rip),%rdx        # 13e78 <g_524+0x218>
    ce08:	48 89 10             	mov    %rdx,(%rax)
    ce0b:	48 8b 05 ee 70 00 00 	mov    0x70ee(%rip),%rax        # 13f00 <g_523>
    ce12:	48 8b 00             	mov    (%rax),%rax
    ce15:	0f b7 00             	movzwl (%rax),%eax
    ce18:	0f b7 c0             	movzwl %ax,%eax
    ce1b:	89 c7                	mov    %eax,%edi
    ce1d:	e8 c7 7e ff ff       	callq  4ce9 <safe_unary_minus_func_uint16_t_u>
    ce22:	0f be d0             	movsbl %al,%edx
    ce25:	48 8b 05 74 62 00 00 	mov    0x6274(%rip),%rax        # 130a0 <g_180+0x20>
    ce2c:	0f be c0             	movsbl %al,%eax
    ce2f:	89 d6                	mov    %edx,%esi
    ce31:	89 c7                	mov    %eax,%edi
    ce33:	e8 da 73 ff ff       	callq  4212 <safe_mul_func_int8_t_s_s>
    ce38:	48 8b 85 e0 e4 ff ff 	mov    -0x1b20(%rbp),%rax
    ce3f:	8b 00                	mov    (%rax),%eax
    ce41:	89 c2                	mov    %eax,%edx
    ce43:	48 8b 85 f8 e3 ff ff 	mov    -0x1c08(%rbp),%rax
    ce4a:	21 d0                	and    %edx,%eax
    ce4c:	0f b7 c0             	movzwl %ax,%eax
    ce4f:	89 de                	mov    %ebx,%esi
    ce51:	89 c7                	mov    %eax,%edi
    ce53:	e8 66 7f ff ff       	callq  4dbe <safe_lshift_func_uint16_t_u_s>
    ce58:	0f b7 c0             	movzwl %ax,%eax
    ce5b:	41 39 c4             	cmp    %eax,%r12d
    ce5e:	0f 9f c0             	setg   %al
    ce61:	0f b6 d8             	movzbl %al,%ebx
    ce64:	8b 05 3a 7a 00 00    	mov    0x7a3a(%rip),%eax        # 148a4 <g_371>
    ce6a:	89 c2                	mov    %eax,%edx
    ce6c:	48 8d 05 d9 61 00 00 	lea    0x61d9(%rip),%rax        # 1304c <g_118>
    ce73:	0f b6 04 02          	movzbl (%rdx,%rax,1),%eax
    ce77:	0f be c0             	movsbl %al,%eax
    ce7a:	be c4 ff ff ff       	mov    $0xffffffc4,%esi
    ce7f:	89 c7                	mov    %eax,%edi
    ce81:	e8 8c 73 ff ff       	callq  4212 <safe_mul_func_int8_t_s_s>
    ce86:	84 c0                	test   %al,%al
    ce88:	75 0a                	jne    ce94 <func_91+0x4b50>
    ce8a:	48 8b 85 08 e4 ff ff 	mov    -0x1bf8(%rbp),%rax
    ce91:	48 85 c0             	test   %rax,%rax
    ce94:	48 8b 85 e0 e6 ff ff 	mov    -0x1920(%rbp),%rax
    ce9b:	8b 00                	mov    (%rax),%eax
    ce9d:	09 c3                	or     %eax,%ebx
    ce9f:	89 da                	mov    %ebx,%edx
    cea1:	48 8b 85 e0 e6 ff ff 	mov    -0x1920(%rbp),%rax
    cea8:	89 10                	mov    %edx,(%rax)
    ceaa:	48 83 bd e0 e6 ff ff 	cmpq   $0x0,-0x1920(%rbp)
    ceb1:	00 
    ceb2:	0f 95 c0             	setne  %al
    ceb5:	0f b6 c0             	movzbl %al,%eax
    ceb8:	be 0f 00 00 00       	mov    $0xf,%esi
    cebd:	89 c7                	mov    %eax,%edi
    cebf:	e8 9f 76 ff ff       	callq  4563 <safe_rshift_func_int16_t_s_u>
    cec4:	0f b7 c0             	movzwl %ax,%eax
    cec7:	be b1 1c 00 00       	mov    $0x1cb1,%esi
    cecc:	89 c7                	mov    %eax,%edi
    cece:	e8 89 7e ff ff       	callq  4d5c <safe_mod_func_uint16_t_u_u>
    ced3:	89 c2                	mov    %eax,%edx
    ced5:	48 8b 05 84 70 00 00 	mov    0x7084(%rip),%rax        # 13f60 <g_590>
    cedc:	48 8b 00             	mov    (%rax),%rax
    cedf:	48 8b 00             	mov    (%rax),%rax
    cee2:	48 8b 00             	mov    (%rax),%rax
    cee5:	0f b7 d2             	movzwl %dx,%edx
    cee8:	48 89 10             	mov    %rdx,(%rax)
    ceeb:	48 8b 00             	mov    (%rax),%rax
    ceee:	48 85 c0             	test   %rax,%rax
    cef1:	74 07                	je     cefa <func_91+0x4bb6>
    cef3:	ba 01 00 00 00       	mov    $0x1,%edx
    cef8:	eb 05                	jmp    ceff <func_91+0x4bbb>
    cefa:	ba 00 00 00 00       	mov    $0x0,%edx
    ceff:	48 8b 85 e0 e4 ff ff 	mov    -0x1b20(%rbp),%rax
    cf06:	89 10                	mov    %edx,(%rax)
    cf08:	8b 10                	mov    (%rax),%edx
    cf0a:	8b 85 38 e4 ff ff    	mov    -0x1bc8(%rbp),%eax
    cf10:	09 d0                	or     %edx,%eax
    cf12:	89 85 38 e4 ff ff    	mov    %eax,-0x1bc8(%rbp)
    cf18:	48 c7 05 45 61 00 00 	movq   $0x15,0x6145(%rip)        # 13068 <g_158>
    cf1f:	15 00 00 00 
    cf23:	e9 8d 10 00 00       	jmpq   dfb5 <func_91+0x5c71>
    cf28:	48 8d 05 31 70 00 00 	lea    0x7031(%rip),%rax        # 13f60 <g_590>
    cf2f:	48 89 85 f0 e8 ff ff 	mov    %rax,-0x1710(%rbp)
    cf36:	48 8d 05 23 70 00 00 	lea    0x7023(%rip),%rax        # 13f60 <g_590>
    cf3d:	48 89 85 f8 e8 ff ff 	mov    %rax,-0x1708(%rbp)
    cf44:	48 8d 05 15 70 00 00 	lea    0x7015(%rip),%rax        # 13f60 <g_590>
    cf4b:	48 89 85 00 e9 ff ff 	mov    %rax,-0x1700(%rbp)
    cf52:	48 8d 05 07 70 00 00 	lea    0x7007(%rip),%rax        # 13f60 <g_590>
    cf59:	48 89 85 08 e9 ff ff 	mov    %rax,-0x16f8(%rbp)
    cf60:	48 8d 05 f9 6f 00 00 	lea    0x6ff9(%rip),%rax        # 13f60 <g_590>
    cf67:	48 89 85 10 e9 ff ff 	mov    %rax,-0x16f0(%rbp)
    cf6e:	48 8d 05 eb 6f 00 00 	lea    0x6feb(%rip),%rax        # 13f60 <g_590>
    cf75:	48 89 85 18 e9 ff ff 	mov    %rax,-0x16e8(%rbp)
    cf7c:	48 8d 05 dd 6f 00 00 	lea    0x6fdd(%rip),%rax        # 13f60 <g_590>
    cf83:	48 89 85 20 e9 ff ff 	mov    %rax,-0x16e0(%rbp)
    cf8a:	48 8d 05 cf 6f 00 00 	lea    0x6fcf(%rip),%rax        # 13f60 <g_590>
    cf91:	48 89 85 28 e9 ff ff 	mov    %rax,-0x16d8(%rbp)
    cf98:	48 8d 85 e4 e7 ff ff 	lea    -0x181c(%rbp),%rax
    cf9f:	48 83 c0 04          	add    $0x4,%rax
    cfa3:	48 89 85 50 e5 ff ff 	mov    %rax,-0x1ab0(%rbp)
    cfaa:	c7 85 48 e4 ff ff f7 	movl   $0xec03ecf7,-0x1bb8(%rbp)
    cfb1:	ec 03 ec 
    cfb4:	48 8d 05 77 60 00 00 	lea    0x6077(%rip),%rax        # 13032 <g_36>
    cfbb:	48 89 85 f0 e6 ff ff 	mov    %rax,-0x1910(%rbp)
    cfc2:	c7 85 cc e4 ff ff 8c 	movl   $0x92d0358c,-0x1b34(%rbp)
    cfc9:	35 d0 92 
    cfcc:	8b 05 e6 60 00 00    	mov    0x60e6(%rip),%eax        # 130b8 <g_206>
    cfd2:	0f be d8             	movsbl %al,%ebx
    cfd5:	8b 05 f1 60 00 00    	mov    0x60f1(%rip),%eax        # 130cc <g_268>
    cfdb:	0f b6 d0             	movzbl %al,%edx
    cfde:	0f b6 05 6a 60 00 00 	movzbl 0x606a(%rip),%eax        # 1304f <g_118+0x3>
    cfe5:	0f b6 c0             	movzbl %al,%eax
    cfe8:	89 d6                	mov    %edx,%esi
    cfea:	89 c7                	mov    %eax,%edi
    cfec:	e8 a2 7b ff ff       	callq  4b93 <safe_mul_func_uint8_t_u_u>
    cff1:	84 c0                	test   %al,%al
    cff3:	74 14                	je     d009 <func_91+0x4cc5>
    cff5:	48 8b 85 e0 e6 ff ff 	mov    -0x1920(%rbp),%rax
    cffc:	8b 00                	mov    (%rax),%eax
    cffe:	85 c0                	test   %eax,%eax
    d000:	74 07                	je     d009 <func_91+0x4cc5>
    d002:	b8 01 00 00 00       	mov    $0x1,%eax
    d007:	eb 05                	jmp    d00e <func_91+0x4cca>
    d009:	b8 00 00 00 00       	mov    $0x0,%eax
    d00e:	0f be c0             	movsbl %al,%eax
    d011:	89 de                	mov    %ebx,%esi
    d013:	89 c7                	mov    %eax,%edi
    d015:	e8 f8 71 ff ff       	callq  4212 <safe_mul_func_int8_t_s_s>
    d01a:	c0 e8 07             	shr    $0x7,%al
    d01d:	0f b6 c0             	movzbl %al,%eax
    d020:	89 c7                	mov    %eax,%edi
    d022:	e8 76 73 ff ff       	callq  439d <safe_unary_minus_func_int16_t_s>
    d027:	66 3d c1 00          	cmp    $0xc1,%ax
    d02b:	0f 95 c0             	setne  %al
    d02e:	0f b6 d0             	movzbl %al,%edx
    d031:	0f b7 85 04 e4 ff ff 	movzwl -0x1bfc(%rbp),%eax
    d038:	0f b7 c0             	movzwl %ax,%eax
    d03b:	39 c2                	cmp    %eax,%edx
    d03d:	0f 9e c0             	setle  %al
    d040:	0f b6 c0             	movzbl %al,%eax
    d043:	be f7 ff ff ff       	mov    $0xfffffff7,%esi
    d048:	89 c7                	mov    %eax,%edi
    d04a:	e8 b0 76 ff ff       	callq  46ff <safe_div_func_int32_t_s_s>
    d04f:	0f be d8             	movsbl %al,%ebx
    d052:	48 8b 05 a7 6e 00 00 	mov    0x6ea7(%rip),%rax        # 13f00 <g_523>
    d059:	48 8b 00             	mov    (%rax),%rax
    d05c:	0f b7 00             	movzwl (%rax),%eax
    d05f:	0f b7 c0             	movzwl %ax,%eax
    d062:	be 04 00 00 00       	mov    $0x4,%esi
    d067:	89 c7                	mov    %eax,%edi
    d069:	e8 98 7d ff ff       	callq  4e06 <safe_lshift_func_uint16_t_u_u>
    d06e:	0f b7 d0             	movzwl %ax,%edx
    d071:	48 8b 05 48 6a 00 00 	mov    0x6a48(%rip),%rax        # 13ac0 <g_21>
    d078:	8b 00                	mov    (%rax),%eax
    d07a:	39 c2                	cmp    %eax,%edx
    d07c:	0f 9d c0             	setge  %al
    d07f:	0f b6 d0             	movzbl %al,%edx
    d082:	8b 05 2c 60 00 00    	mov    0x602c(%rip),%eax        # 130b4 <g_190>
    d088:	39 c2                	cmp    %eax,%edx
    d08a:	0f 94 c0             	sete   %al
    d08d:	0f b6 c0             	movzbl %al,%eax
    d090:	89 de                	mov    %ebx,%esi
    d092:	89 c7                	mov    %eax,%edi
    d094:	e8 79 71 ff ff       	callq  4212 <safe_mul_func_int8_t_s_s>
    d099:	48 0f be c0          	movsbq %al,%rax
    d09d:	48 89 c6             	mov    %rax,%rsi
    d0a0:	48 bf cf 32 e6 88 73 	movabs $0xfff2927388e632cf,%rdi
    d0a7:	92 f2 ff 
    d0aa:	e8 05 79 ff ff       	callq  49b4 <safe_mod_func_int64_t_s_s>
    d0af:	48 8b 85 d0 e6 ff ff 	mov    -0x1930(%rbp),%rax
    d0b6:	66 c7 00 07 00       	movw   $0x7,(%rax)
    d0bb:	48 8b 85 08 e4 ff ff 	mov    -0x1bf8(%rbp),%rax
    d0c2:	48 85 c0             	test   %rax,%rax
    d0c5:	74 07                	je     d0ce <func_91+0x4d8a>
    d0c7:	b9 01 00 00 00       	mov    $0x1,%ecx
    d0cc:	eb 05                	jmp    d0d3 <func_91+0x4d8f>
    d0ce:	b9 00 00 00 00       	mov    $0x0,%ecx
    d0d3:	48 8b 95 f0 e8 ff ff 	mov    -0x1710(%rbp),%rdx
    d0da:	48 8d 85 38 e5 ff ff 	lea    -0x1ac8(%rbp),%rax
    d0e1:	48 39 c2             	cmp    %rax,%rdx
    d0e4:	0f 95 c0             	setne  %al
    d0e7:	0f b6 c0             	movzbl %al,%eax
    d0ea:	39 c1                	cmp    %eax,%ecx
    d0ec:	0f 9c c0             	setl   %al
    d0ef:	0f b6 d0             	movzbl %al,%edx
    d0f2:	8b 85 44 e4 ff ff    	mov    -0x1bbc(%rbp),%eax
    d0f8:	21 c2                	and    %eax,%edx
    d0fa:	48 8b 85 e0 e4 ff ff 	mov    -0x1b20(%rbp),%rax
    d101:	8b 00                	mov    (%rax),%eax
    d103:	39 c2                	cmp    %eax,%edx
    d105:	0f 9d c0             	setge  %al
    d108:	0f b6 d0             	movzbl %al,%edx
    d10b:	48 8b 85 e0 e6 ff ff 	mov    -0x1920(%rbp),%rax
    d112:	8b 00                	mov    (%rax),%eax
    d114:	39 c2                	cmp    %eax,%edx
    d116:	0f 8c f6 02 00 00    	jl     d412 <func_91+0x50ce>
    d11c:	48 8d 85 08 e5 ff ff 	lea    -0x1af8(%rbp),%rax
    d123:	48 89 85 00 e7 ff ff 	mov    %rax,-0x1900(%rbp)
    d12a:	48 c7 85 08 e7 ff ff 	movq   $0x0,-0x18f8(%rbp)
    d131:	00 00 00 00 
    d135:	48 c7 85 10 e7 ff ff 	movq   $0x0,-0x18f0(%rbp)
    d13c:	00 00 00 00 
    d140:	48 c7 85 58 e5 ff ff 	movq   $0x0,-0x1aa8(%rbp)
    d147:	00 00 00 00 
    d14b:	48 8d 85 58 e5 ff ff 	lea    -0x1aa8(%rbp),%rax
    d152:	48 89 85 18 e7 ff ff 	mov    %rax,-0x18e8(%rbp)
    d159:	48 8d 85 60 e8 ff ff 	lea    -0x17a0(%rbp),%rax
    d160:	48 83 c0 24          	add    $0x24,%rax
    d164:	48 89 85 60 e5 ff ff 	mov    %rax,-0x1aa0(%rbp)
    d16b:	48 8d 05 4e 69 00 00 	lea    0x694e(%rip),%rax        # 13ac0 <g_21>
    d172:	48 89 85 20 e7 ff ff 	mov    %rax,-0x18e0(%rbp)
    d179:	48 c7 85 28 e7 ff ff 	movq   $0x0,-0x18d8(%rbp)
    d180:	00 00 00 00 
    d184:	48 8d 05 19 60 00 00 	lea    0x6019(%rip),%rax        # 131a4 <g_760+0xc4>
    d18b:	48 89 85 30 e7 ff ff 	mov    %rax,-0x18d0(%rbp)
    d192:	66 c7 85 26 e4 ff ff 	movw   $0xffff,-0x1bda(%rbp)
    d199:	ff ff 
    d19b:	48 8d 85 20 e5 ff ff 	lea    -0x1ae0(%rbp),%rax
    d1a2:	48 89 85 38 e7 ff ff 	mov    %rax,-0x18c8(%rbp)
    d1a9:	c7 85 58 e4 ff ff 00 	movl   $0x0,-0x1ba8(%rbp)
    d1b0:	00 00 00 
    d1b3:	eb 46                	jmp    d1fb <func_91+0x4eb7>
    d1b5:	c7 85 5c e4 ff ff 00 	movl   $0x0,-0x1ba4(%rbp)
    d1bc:	00 00 00 
    d1bf:	eb 2a                	jmp    d1eb <func_91+0x4ea7>
    d1c1:	8b 85 5c e4 ff ff    	mov    -0x1ba4(%rbp),%eax
    d1c7:	48 63 d0             	movslq %eax,%rdx
    d1ca:	8b 85 58 e4 ff ff    	mov    -0x1ba8(%rbp),%eax
    d1d0:	48 98                	cltq   
    d1d2:	48 01 c2             	add    %rax,%rdx
    d1d5:	48 8d 85 60 e5 ff ff 	lea    -0x1aa0(%rbp),%rax
    d1dc:	48 89 84 d5 f0 f2 ff 	mov    %rax,-0xd10(%rbp,%rdx,8)
    d1e3:	ff 
    d1e4:	83 85 5c e4 ff ff 01 	addl   $0x1,-0x1ba4(%rbp)
    d1eb:	83 bd 5c e4 ff ff 00 	cmpl   $0x0,-0x1ba4(%rbp)
    d1f2:	7e cd                	jle    d1c1 <func_91+0x4e7d>
    d1f4:	83 85 58 e4 ff ff 01 	addl   $0x1,-0x1ba8(%rbp)
    d1fb:	83 bd 58 e4 ff ff 02 	cmpl   $0x2,-0x1ba8(%rbp)
    d202:	7e b1                	jle    d1b5 <func_91+0x4e71>
    d204:	48 8b 85 00 e7 ff ff 	mov    -0x1900(%rbp),%rax
    d20b:	48 8b 95 e0 e6 ff ff 	mov    -0x1920(%rbp),%rdx
    d212:	48 89 10             	mov    %rdx,(%rax)
    d215:	48 8b 85 00 e7 ff ff 	mov    -0x1900(%rbp),%rax
    d21c:	48 8b 10             	mov    (%rax),%rdx
    d21f:	48 8b 85 18 e7 ff ff 	mov    -0x18e8(%rbp),%rax
    d226:	48 89 10             	mov    %rdx,(%rax)
    d229:	48 8b 85 18 e7 ff ff 	mov    -0x18e8(%rbp),%rax
    d230:	48 8b 00             	mov    (%rax),%rax
    d233:	48 89 85 f0 e7 ff ff 	mov    %rax,-0x1810(%rbp)
    d23a:	48 8b 85 50 e5 ff ff 	mov    -0x1ab0(%rbp),%rax
    d241:	48 89 85 50 e5 ff ff 	mov    %rax,-0x1ab0(%rbp)
    d248:	48 8b 05 e9 69 00 00 	mov    0x69e9(%rip),%rax        # 13c38 <g_230>
    d24f:	48 8b 10             	mov    (%rax),%rdx
    d252:	48 8b 85 20 e7 ff ff 	mov    -0x18e0(%rbp),%rax
    d259:	48 89 10             	mov    %rdx,(%rax)
    d25c:	48 8b 85 20 e7 ff ff 	mov    -0x18e0(%rbp),%rax
    d263:	48 8b 00             	mov    (%rax),%rax
    d266:	44 8b 30             	mov    (%rax),%r14d
    d269:	48 8b 05 28 76 00 00 	mov    0x7628(%rip),%rax        # 14898 <g_90>
    d270:	41 89 c7             	mov    %eax,%r15d
    d273:	48 8b 85 30 e7 ff ff 	mov    -0x18d0(%rbp),%rax
    d27a:	8b 00                	mov    (%rax),%eax
    d27c:	8d 50 01             	lea    0x1(%rax),%edx
    d27f:	48 8b 85 30 e7 ff ff 	mov    -0x18d0(%rbp),%rax
    d286:	89 10                	mov    %edx,(%rax)
    d288:	48 8b 85 e0 e6 ff ff 	mov    -0x1920(%rbp),%rax
    d28f:	8b 00                	mov    (%rax),%eax
    d291:	0f be d0             	movsbl %al,%edx
    d294:	0f b7 85 26 e4 ff ff 	movzwl -0x1bda(%rbp),%eax
    d29b:	0f be c0             	movsbl %al,%eax
    d29e:	89 d6                	mov    %edx,%esi
    d2a0:	89 c7                	mov    %eax,%edi
    d2a2:	e8 6b 6f ff ff       	callq  4212 <safe_mul_func_int8_t_s_s>
    d2a7:	84 c0                	test   %al,%al
    d2a9:	0f 84 a1 00 00 00    	je     d350 <func_91+0x500c>
    d2af:	48 8b 05 4a 6c 00 00 	mov    0x6c4a(%rip),%rax        # 13f00 <g_523>
    d2b6:	48 8b 00             	mov    (%rax),%rax
    d2b9:	0f b7 00             	movzwl (%rax),%eax
    d2bc:	0f b7 d8             	movzwl %ax,%ebx
    d2bf:	48 8b 85 e0 e6 ff ff 	mov    -0x1920(%rbp),%rax
    d2c6:	8b 00                	mov    (%rax),%eax
    d2c8:	44 0f bf e0          	movswl %ax,%r12d
    d2cc:	0f b7 85 04 e4 ff ff 	movzwl -0x1bfc(%rbp),%eax
    d2d3:	44 0f b7 e8          	movzwl %ax,%r13d
    d2d7:	8b 05 d7 5d 00 00    	mov    0x5dd7(%rip),%eax        # 130b4 <g_190>
    d2dd:	0f b7 85 04 e4 ff ff 	movzwl -0x1bfc(%rbp),%eax
    d2e4:	0f b7 c0             	movzwl %ax,%eax
    d2e7:	be fe ff ff ff       	mov    $0xfffffffe,%esi
    d2ec:	89 c7                	mov    %eax,%edi
    d2ee:	e8 0a 7c ff ff       	callq  4efd <safe_mod_func_uint32_t_u_u>
    d2f3:	0f b6 c0             	movzbl %al,%eax
    d2f6:	44 89 ee             	mov    %r13d,%esi
    d2f9:	89 c7                	mov    %eax,%edi
    d2fb:	e8 4c 79 ff ff       	callq  4c4c <safe_lshift_func_uint8_t_u_u>
    d300:	0f b6 c0             	movzbl %al,%eax
    d303:	44 89 e6             	mov    %r12d,%esi
    d306:	89 c7                	mov    %eax,%edi
    d308:	e8 e8 70 ff ff       	callq  43f5 <safe_mul_func_int16_t_s_s>
    d30d:	48 0f bf c0          	movswq %ax,%rax
    d311:	48 89 c6             	mov    %rax,%rsi
    d314:	48 bf 6d 69 71 b7 43 	movabs $0x99685043b771696d,%rdi
    d31b:	50 68 99 
    d31e:	e8 91 76 ff ff       	callq  49b4 <safe_mod_func_int64_t_s_s>
    d323:	48 8b 95 20 e7 ff ff 	mov    -0x18e0(%rbp),%rdx
    d32a:	48 8b 12             	mov    (%rdx),%rdx
    d32d:	8b 12                	mov    (%rdx),%edx
    d32f:	48 63 d2             	movslq %edx,%rdx
    d332:	48 39 d0             	cmp    %rdx,%rax
    d335:	0f 9e c0             	setle  %al
    d338:	0f b6 c0             	movzbl %al,%eax
    d33b:	89 de                	mov    %ebx,%esi
    d33d:	89 c7                	mov    %eax,%edi
    d33f:	e8 18 7a ff ff       	callq  4d5c <safe_mod_func_uint16_t_u_u>
    d344:	66 85 c0             	test   %ax,%ax
    d347:	74 07                	je     d350 <func_91+0x500c>
    d349:	b8 01 00 00 00       	mov    $0x1,%eax
    d34e:	eb 05                	jmp    d355 <func_91+0x5011>
    d350:	b8 00 00 00 00       	mov    $0x0,%eax
    d355:	0f b7 c0             	movzwl %ax,%eax
    d358:	be 04 00 00 00       	mov    $0x4,%esi
    d35d:	89 c7                	mov    %eax,%edi
    d35f:	e8 e4 7a ff ff       	callq  4e48 <safe_rshift_func_uint16_t_u_s>
    d364:	0f b6 c0             	movzbl %al,%eax
    d367:	44 89 fe             	mov    %r15d,%esi
    d36a:	89 c7                	mov    %eax,%edi
    d36c:	e8 4d 79 ff ff       	callq  4cbe <safe_rshift_func_uint8_t_u_u>
    d371:	0f b6 c0             	movzbl %al,%eax
    d374:	41 39 c6             	cmp    %eax,%r14d
    d377:	0f 9c c0             	setl   %al
    d37a:	0f b6 d0             	movzbl %al,%edx
    d37d:	0f b7 05 da 5c 00 00 	movzwl 0x5cda(%rip),%eax        # 1305e <g_149+0x6>
    d384:	0f b7 c0             	movzwl %ax,%eax
    d387:	39 c2                	cmp    %eax,%edx
    d389:	0f 95 c0             	setne  %al
    d38c:	0f b6 c0             	movzbl %al,%eax
    d38f:	be 01 00 00 00       	mov    $0x1,%esi
    d394:	89 c7                	mov    %eax,%edi
    d396:	e8 6b 7a ff ff       	callq  4e06 <safe_lshift_func_uint16_t_u_u>
    d39b:	66 85 c0             	test   %ax,%ax
    d39e:	75 08                	jne    d3a8 <func_91+0x5064>
    d3a0:	8b 05 2a 5d 00 00    	mov    0x5d2a(%rip),%eax        # 130d0 <g_271>
    d3a6:	85 c0                	test   %eax,%eax
    d3a8:	48 8b 15 c1 6b 00 00 	mov    0x6bc1(%rip),%rdx        # 13f70 <g_777>
    d3af:	48 8b 85 38 e7 ff ff 	mov    -0x18c8(%rbp),%rax
    d3b6:	48 89 10             	mov    %rdx,(%rax)
    d3b9:	48 8b 85 38 e7 ff ff 	mov    -0x18c8(%rbp),%rax
    d3c0:	48 8b 00             	mov    (%rax),%rax
    d3c3:	48 39 85 e8 e6 ff ff 	cmp    %rax,-0x1918(%rbp)
    d3ca:	0f 94 c0             	sete   %al
    d3cd:	0f b6 d0             	movzbl %al,%edx
    d3d0:	48 8b 85 d0 e6 ff ff 	mov    -0x1930(%rbp),%rax
    d3d7:	66 89 10             	mov    %dx,(%rax)
    d3da:	48 8b 85 d0 e6 ff ff 	mov    -0x1930(%rbp),%rax
    d3e1:	0f b7 00             	movzwl (%rax),%eax
    d3e4:	48 0f bf d0          	movswq %ax,%rdx
    d3e8:	48 8b 85 08 e4 ff ff 	mov    -0x1bf8(%rbp),%rax
    d3ef:	48 31 d0             	xor    %rdx,%rax
    d3f2:	89 c2                	mov    %eax,%edx
    d3f4:	8b 05 5a 5c 00 00    	mov    0x5c5a(%rip),%eax        # 13054 <g_120>
    d3fa:	31 d0                	xor    %edx,%eax
    d3fc:	89 05 52 5c 00 00    	mov    %eax,0x5c52(%rip)        # 13054 <g_120>
    d402:	48 8b 05 27 68 00 00 	mov    0x6827(%rip),%rax        # 13c30 <g_224>
    d409:	8b 10                	mov    (%rax),%edx
    d40b:	83 ca 01             	or     $0x1,%edx
    d40e:	89 10                	mov    %edx,(%rax)
    d410:	eb 3e                	jmp    d450 <func_91+0x510c>
    d412:	c6 05 97 5c 00 00 00 	movb   $0x0,0x5c97(%rip)        # 130b0 <g_181>
    d419:	90                   	nop
    d41a:	0f b6 05 8f 5c 00 00 	movzbl 0x5c8f(%rip),%eax        # 130b0 <g_181>
    d421:	3c fb                	cmp    $0xfb,%al
    d423:	75 2b                	jne    d450 <func_91+0x510c>
    d425:	48 8d 85 30 e5 ff ff 	lea    -0x1ad0(%rbp),%rax
    d42c:	48 89 85 f8 e6 ff ff 	mov    %rax,-0x1908(%rbp)
    d433:	48 8b 85 f8 e6 ff ff 	mov    -0x1908(%rbp),%rax
    d43a:	48 8d 95 48 e4 ff ff 	lea    -0x1bb8(%rbp),%rdx
    d441:	48 89 10             	mov    %rdx,(%rax)
    d444:	48 8b 85 f8 e3 ff ff 	mov    -0x1c08(%rbp),%rax
    d44b:	e9 c8 0b 00 00       	jmpq   e018 <func_91+0x5cd4>
    d450:	48 8b 85 40 e5 ff ff 	mov    -0x1ac0(%rbp),%rax
    d457:	48 39 85 f0 e6 ff ff 	cmp    %rax,-0x1910(%rbp)
    d45e:	0f 84 6d 04 00 00    	je     d8d1 <func_91+0x558d>
    d464:	c7 85 d4 e4 ff ff 9b 	movl   $0xba809d9b,-0x1b2c(%rbp)
    d46b:	9d 80 ba 
    d46e:	48 c7 85 60 e7 ff ff 	movq   $0xfffffffffffffffc,-0x18a0(%rbp)
    d475:	fc ff ff ff 
    d479:	48 8d 85 44 e4 ff ff 	lea    -0x1bbc(%rbp),%rax
    d480:	48 89 85 68 e7 ff ff 	mov    %rax,-0x1898(%rbp)
    d487:	c7 85 40 e8 ff ff 2c 	movl   $0xf9b6b72c,-0x17c0(%rbp)
    d48e:	b7 b6 f9 
    d491:	c7 85 44 e8 ff ff 2c 	movl   $0xf9b6b72c,-0x17bc(%rbp)
    d498:	b7 b6 f9 
    d49b:	c7 85 48 e8 ff ff 2c 	movl   $0xf9b6b72c,-0x17b8(%rbp)
    d4a2:	b7 b6 f9 
    d4a5:	c7 85 4c e8 ff ff 2c 	movl   $0xf9b6b72c,-0x17b4(%rbp)
    d4ac:	b7 b6 f9 
    d4af:	c7 85 50 e8 ff ff 2c 	movl   $0xf9b6b72c,-0x17b0(%rbp)
    d4b6:	b7 b6 f9 
    d4b9:	c7 85 54 e8 ff ff 2c 	movl   $0xf9b6b72c,-0x17ac(%rbp)
    d4c0:	b7 b6 f9 
    d4c3:	48 8d 85 40 e8 ff ff 	lea    -0x17c0(%rbp),%rax
    d4ca:	48 83 c0 14          	add    $0x14,%rax
    d4ce:	48 89 85 70 e7 ff ff 	mov    %rax,-0x1890(%rbp)
    d4d5:	48 8d 85 30 e4 ff ff 	lea    -0x1bd0(%rbp),%rax
    d4dc:	48 89 85 78 e7 ff ff 	mov    %rax,-0x1888(%rbp)
    d4e3:	48 8d 85 34 e4 ff ff 	lea    -0x1bcc(%rbp),%rax
    d4ea:	48 89 85 80 e7 ff ff 	mov    %rax,-0x1880(%rbp)
    d4f1:	48 8d 05 90 73 00 00 	lea    0x7390(%rip),%rax        # 14888 <g_22>
    d4f8:	48 89 85 40 eb ff ff 	mov    %rax,-0x14c0(%rbp)
    d4ff:	48 c7 85 48 eb ff ff 	movq   $0x0,-0x14b8(%rbp)
    d506:	00 00 00 00 
    d50a:	48 8d 05 77 73 00 00 	lea    0x7377(%rip),%rax        # 14888 <g_22>
    d511:	48 89 85 50 eb ff ff 	mov    %rax,-0x14b0(%rbp)
    d518:	48 8d 05 69 73 00 00 	lea    0x7369(%rip),%rax        # 14888 <g_22>
    d51f:	48 89 85 58 eb ff ff 	mov    %rax,-0x14a8(%rbp)
    d526:	48 8d 05 5b 73 00 00 	lea    0x735b(%rip),%rax        # 14888 <g_22>
    d52d:	48 89 85 60 eb ff ff 	mov    %rax,-0x14a0(%rbp)
    d534:	48 c7 85 68 eb ff ff 	movq   $0x0,-0x1498(%rbp)
    d53b:	00 00 00 00 
    d53f:	48 8d 05 42 73 00 00 	lea    0x7342(%rip),%rax        # 14888 <g_22>
    d546:	48 89 85 70 eb ff ff 	mov    %rax,-0x1490(%rbp)
    d54d:	48 8d 05 34 73 00 00 	lea    0x7334(%rip),%rax        # 14888 <g_22>
    d554:	48 89 85 78 eb ff ff 	mov    %rax,-0x1488(%rbp)
    d55b:	48 8d 05 26 73 00 00 	lea    0x7326(%rip),%rax        # 14888 <g_22>
    d562:	48 89 85 80 eb ff ff 	mov    %rax,-0x1480(%rbp)
    d569:	48 c7 85 88 eb ff ff 	movq   $0x0,-0x1478(%rbp)
    d570:	00 00 00 00 
    d574:	48 8d 05 0d 73 00 00 	lea    0x730d(%rip),%rax        # 14888 <g_22>
    d57b:	48 89 85 90 eb ff ff 	mov    %rax,-0x1470(%rbp)
    d582:	48 8d 05 ff 72 00 00 	lea    0x72ff(%rip),%rax        # 14888 <g_22>
    d589:	48 89 85 98 eb ff ff 	mov    %rax,-0x1468(%rbp)
    d590:	48 8d 05 f1 72 00 00 	lea    0x72f1(%rip),%rax        # 14888 <g_22>
    d597:	48 89 85 a0 eb ff ff 	mov    %rax,-0x1460(%rbp)
    d59e:	48 c7 85 a8 eb ff ff 	movq   $0x0,-0x1458(%rbp)
    d5a5:	00 00 00 00 
    d5a9:	48 8d 05 d8 72 00 00 	lea    0x72d8(%rip),%rax        # 14888 <g_22>
    d5b0:	48 89 85 b0 eb ff ff 	mov    %rax,-0x1450(%rbp)
    d5b7:	48 8d 05 ca 72 00 00 	lea    0x72ca(%rip),%rax        # 14888 <g_22>
    d5be:	48 89 85 b8 eb ff ff 	mov    %rax,-0x1448(%rbp)
    d5c5:	48 8d 05 bc 72 00 00 	lea    0x72bc(%rip),%rax        # 14888 <g_22>
    d5cc:	48 89 85 c0 eb ff ff 	mov    %rax,-0x1440(%rbp)
    d5d3:	48 c7 85 c8 eb ff ff 	movq   $0x0,-0x1438(%rbp)
    d5da:	00 00 00 00 
    d5de:	48 8d 05 a3 72 00 00 	lea    0x72a3(%rip),%rax        # 14888 <g_22>
    d5e5:	48 89 85 d0 eb ff ff 	mov    %rax,-0x1430(%rbp)
    d5ec:	48 8d 05 95 72 00 00 	lea    0x7295(%rip),%rax        # 14888 <g_22>
    d5f3:	48 89 85 d8 eb ff ff 	mov    %rax,-0x1428(%rbp)
    d5fa:	48 8b 05 3f 66 00 00 	mov    0x663f(%rip),%rax        # 13c40 <g_280>
    d601:	48 8b 10             	mov    (%rax),%rdx
    d604:	48 8b 85 e0 e4 ff ff 	mov    -0x1b20(%rbp),%rax
    d60b:	48 39 c2             	cmp    %rax,%rdx
    d60e:	0f 95 c0             	setne  %al
    d611:	0f b6 c0             	movzbl %al,%eax
    d614:	31 85 d4 e4 ff ff    	xor    %eax,-0x1b2c(%rbp)
    d61a:	0f b6 05 b7 5a 00 00 	movzbl 0x5ab7(%rip),%eax        # 130d8 <g_757>
    d621:	0f b6 d8             	movzbl %al,%ebx
    d624:	48 8b 85 e0 e4 ff ff 	mov    -0x1b20(%rbp),%rax
    d62b:	8b 00                	mov    (%rax),%eax
    d62d:	44 0f be e0          	movsbl %al,%r12d
    d631:	48 8b 85 e0 e6 ff ff 	mov    -0x1920(%rbp),%rax
    d638:	8b 10                	mov    (%rax),%edx
    d63a:	48 8b 85 f0 e3 ff ff 	mov    -0x1c10(%rbp),%rax
    d641:	0f b6 00             	movzbl (%rax),%eax
    d644:	0f be c0             	movsbl %al,%eax
    d647:	89 d6                	mov    %edx,%esi
    d649:	89 c7                	mov    %eax,%edi
    d64b:	e8 51 6c ff ff       	callq  42a1 <safe_lshift_func_int8_t_s_s>
    d650:	48 8b 85 60 e7 ff ff 	mov    -0x18a0(%rbp),%rax
    d657:	0f b6 d0             	movzbl %al,%edx
    d65a:	48 8b 85 f0 e7 ff ff 	mov    -0x1810(%rbp),%rax
    d661:	48 85 c0             	test   %rax,%rax
    d664:	0f 94 c1             	sete   %cl
    d667:	48 8b 85 e8 e4 ff ff 	mov    -0x1b18(%rbp),%rax
    d66e:	88 08                	mov    %cl,(%rax)
    d670:	0f b6 00             	movzbl (%rax),%eax
    d673:	0f b6 c0             	movzbl %al,%eax
    d676:	89 d6                	mov    %edx,%esi
    d678:	89 c7                	mov    %eax,%edi
    d67a:	e8 14 75 ff ff       	callq  4b93 <safe_mul_func_uint8_t_u_u>
    d67f:	8b 85 d4 e4 ff ff    	mov    -0x1b2c(%rbp),%eax
    d685:	48 be 9f 79 2b c8 21 	movabs $0x36cb2221c82b799f,%rsi
    d68c:	22 cb 36 
    d68f:	48 89 c7             	mov    %rax,%rdi
    d692:	e8 60 73 ff ff       	callq  49f7 <safe_div_func_int64_t_s_s>
    d697:	0f be c0             	movsbl %al,%eax
    d69a:	44 89 e6             	mov    %r12d,%esi
    d69d:	89 c7                	mov    %eax,%edi
    d69f:	e8 6e 6b ff ff       	callq  4212 <safe_mul_func_int8_t_s_s>
    d6a4:	89 de                	mov    %ebx,%esi
    d6a6:	bf ff 00 00 00       	mov    $0xff,%edi
    d6ab:	e8 e3 74 ff ff       	callq  4b93 <safe_mul_func_uint8_t_u_u>
    d6b0:	0f b6 d0             	movzbl %al,%edx
    d6b3:	48 8b 85 f8 e3 ff ff 	mov    -0x1c08(%rbp),%rax
    d6ba:	48 39 c2             	cmp    %rax,%rdx
    d6bd:	0f 96 c0             	setbe  %al
    d6c0:	0f b6 c0             	movzbl %al,%eax
    d6c3:	48 39 85 60 e7 ff ff 	cmp    %rax,-0x18a0(%rbp)
    d6ca:	0f 8e df 01 00 00    	jle    d8af <func_91+0x556b>
    d6d0:	48 8d 05 e9 63 00 00 	lea    0x63e9(%rip),%rax        # 13ac0 <g_21>
    d6d7:	48 89 85 88 e7 ff ff 	mov    %rax,-0x1878(%rbp)
    d6de:	48 8d 85 e0 e4 ff ff 	lea    -0x1b20(%rbp),%rax
    d6e5:	48 89 85 f0 f2 ff ff 	mov    %rax,-0xd10(%rbp)
    d6ec:	48 c7 85 f8 f2 ff ff 	movq   $0x0,-0xd08(%rbp)
    d6f3:	00 00 00 00 
    d6f7:	48 c7 85 00 f3 ff ff 	movq   $0x0,-0xd00(%rbp)
    d6fe:	00 00 00 00 
    d702:	48 c7 85 08 f3 ff ff 	movq   $0x0,-0xcf8(%rbp)
    d709:	00 00 00 00 
    d70d:	48 8d 85 e0 e4 ff ff 	lea    -0x1b20(%rbp),%rax
    d714:	48 89 85 10 f3 ff ff 	mov    %rax,-0xcf0(%rbp)
    d71b:	48 8d 85 e0 e4 ff ff 	lea    -0x1b20(%rbp),%rax
    d722:	48 89 85 18 f3 ff ff 	mov    %rax,-0xce8(%rbp)
    d729:	48 c7 85 20 f3 ff ff 	movq   $0x0,-0xce0(%rbp)
    d730:	00 00 00 00 
    d734:	48 c7 85 28 f3 ff ff 	movq   $0x0,-0xcd8(%rbp)
    d73b:	00 00 00 00 
    d73f:	48 8d 85 30 e5 ff ff 	lea    -0x1ad0(%rbp),%rax
    d746:	48 89 85 30 f3 ff ff 	mov    %rax,-0xcd0(%rbp)
    d74d:	48 8d 85 e0 e4 ff ff 	lea    -0x1b20(%rbp),%rax
    d754:	48 89 85 38 f3 ff ff 	mov    %rax,-0xcc8(%rbp)
    d75b:	48 8d 85 e0 e4 ff ff 	lea    -0x1b20(%rbp),%rax
    d762:	48 89 85 40 f3 ff ff 	mov    %rax,-0xcc0(%rbp)
    d769:	48 8d 85 30 e5 ff ff 	lea    -0x1ad0(%rbp),%rax
    d770:	48 89 85 48 f3 ff ff 	mov    %rax,-0xcb8(%rbp)
    d777:	48 8d 85 e0 e4 ff ff 	lea    -0x1b20(%rbp),%rax
    d77e:	48 89 85 50 f3 ff ff 	mov    %rax,-0xcb0(%rbp)
    d785:	48 c7 85 58 f3 ff ff 	movq   $0x0,-0xca8(%rbp)
    d78c:	00 00 00 00 
    d790:	48 8d 85 e0 e4 ff ff 	lea    -0x1b20(%rbp),%rax
    d797:	48 89 85 60 f3 ff ff 	mov    %rax,-0xca0(%rbp)
    d79e:	48 8d 85 e0 e4 ff ff 	lea    -0x1b20(%rbp),%rax
    d7a5:	48 89 85 68 f3 ff ff 	mov    %rax,-0xc98(%rbp)
    d7ac:	48 c7 85 70 f3 ff ff 	movq   $0x0,-0xc90(%rbp)
    d7b3:	00 00 00 00 
    d7b7:	48 c7 85 78 f3 ff ff 	movq   $0x0,-0xc88(%rbp)
    d7be:	00 00 00 00 
    d7c2:	48 c7 85 80 f3 ff ff 	movq   $0x0,-0xc80(%rbp)
    d7c9:	00 00 00 00 
    d7cd:	48 8d 85 e0 e4 ff ff 	lea    -0x1b20(%rbp),%rax
    d7d4:	48 89 85 88 f3 ff ff 	mov    %rax,-0xc78(%rbp)
    d7db:	48 8d 85 e0 e4 ff ff 	lea    -0x1b20(%rbp),%rax
    d7e2:	48 89 85 90 f3 ff ff 	mov    %rax,-0xc70(%rbp)
    d7e9:	48 c7 85 98 f3 ff ff 	movq   $0x0,-0xc68(%rbp)
    d7f0:	00 00 00 00 
    d7f4:	48 c7 85 a0 f3 ff ff 	movq   $0x0,-0xc60(%rbp)
    d7fb:	00 00 00 00 
    d7ff:	48 8d 85 30 e5 ff ff 	lea    -0x1ad0(%rbp),%rax
    d806:	48 89 85 a8 f3 ff ff 	mov    %rax,-0xc58(%rbp)
    d80d:	48 8d 85 e0 e4 ff ff 	lea    -0x1b20(%rbp),%rax
    d814:	48 89 85 b0 f3 ff ff 	mov    %rax,-0xc50(%rbp)
    d81b:	48 8d 85 e0 e4 ff ff 	lea    -0x1b20(%rbp),%rax
    d822:	48 89 85 b8 f3 ff ff 	mov    %rax,-0xc48(%rbp)
    d829:	48 8d 85 30 e5 ff ff 	lea    -0x1ad0(%rbp),%rax
    d830:	48 89 85 c0 f3 ff ff 	mov    %rax,-0xc40(%rbp)
    d837:	48 8d 85 e0 e4 ff ff 	lea    -0x1b20(%rbp),%rax
    d83e:	48 89 85 c8 f3 ff ff 	mov    %rax,-0xc38(%rbp)
    d845:	48 c7 85 d0 f3 ff ff 	movq   $0x0,-0xc30(%rbp)
    d84c:	00 00 00 00 
    d850:	48 8d 85 e0 e4 ff ff 	lea    -0x1b20(%rbp),%rax
    d857:	48 89 85 d8 f3 ff ff 	mov    %rax,-0xc28(%rbp)
    d85e:	48 c7 85 90 e7 ff ff 	movq   $0x7,-0x1870(%rbp)
    d865:	07 00 00 00 
    d869:	48 8b 95 f8 e3 ff ff 	mov    -0x1c08(%rbp),%rdx
    d870:	48 8b 85 e0 e4 ff ff 	mov    -0x1b20(%rbp),%rax
    d877:	89 10                	mov    %edx,(%rax)
    d879:	48 8b 85 88 e7 ff ff 	mov    -0x1878(%rbp),%rax
    d880:	48 8d 95 44 e4 ff ff 	lea    -0x1bbc(%rbp),%rdx
    d887:	48 89 10             	mov    %rdx,(%rax)
    d88a:	48 8b 85 88 e7 ff ff 	mov    -0x1878(%rbp),%rax
    d891:	48 8b 00             	mov    (%rax),%rax
    d894:	48 89 85 68 e7 ff ff 	mov    %rax,-0x1898(%rbp)
    d89b:	48 83 ad 90 e7 ff ff 	subq   $0x1,-0x1870(%rbp)
    d8a2:	01 
    d8a3:	83 85 54 e4 ff ff 01 	addl   $0x1,-0x1bac(%rbp)
    d8aa:	e9 4c 04 00 00       	jmpq   dcfb <func_91+0x59b7>
    d8af:	0f b7 05 02 59 00 00 	movzwl 0x5902(%rip),%eax        # 131b8 <g_805>
    d8b6:	66 85 c0             	test   %ax,%ax
    d8b9:	0f 85 08 07 00 00    	jne    dfc7 <func_91+0x5c83>
    d8bf:	48 8b 05 aa 66 00 00 	mov    0x66aa(%rip),%rax        # 13f70 <g_777>
    d8c6:	48 8b 00             	mov    (%rax),%rax
    d8c9:	0f b6 00             	movzbl (%rax),%eax
    d8cc:	e9 47 07 00 00       	jmpq   e018 <func_91+0x5cd4>
    d8d1:	48 c7 85 40 e7 ff ff 	movq   $0x1,-0x18c0(%rbp)
    d8d8:	01 00 00 00 
    d8dc:	c7 85 60 e4 ff ff 00 	movl   $0x0,-0x1ba0(%rbp)
    d8e3:	00 00 00 
    d8e6:	eb 1b                	jmp    d903 <func_91+0x55bf>
    d8e8:	8b 85 60 e4 ff ff    	mov    -0x1ba0(%rbp),%eax
    d8ee:	48 98                	cltq   
    d8f0:	48 c7 84 c5 40 e8 ff 	movq   $0x0,-0x17c0(%rbp,%rax,8)
    d8f7:	ff 00 00 00 00 
    d8fc:	83 85 60 e4 ff ff 01 	addl   $0x1,-0x1ba0(%rbp)
    d903:	83 bd 60 e4 ff ff 02 	cmpl   $0x2,-0x1ba0(%rbp)
    d90a:	7e dc                	jle    d8e8 <func_91+0x55a4>
    d90c:	48 8b 85 08 e4 ff ff 	mov    -0x1bf8(%rbp),%rax
    d913:	41 89 c6             	mov    %eax,%r14d
    d916:	48 8b 85 e8 e3 ff ff 	mov    -0x1c18(%rbp),%rax
    d91d:	0f b6 00             	movzbl (%rax),%eax
    d920:	83 f0 f9             	xor    $0xfffffff9,%eax
    d923:	89 c2                	mov    %eax,%edx
    d925:	48 8b 85 e8 e3 ff ff 	mov    -0x1c18(%rbp),%rax
    d92c:	88 10                	mov    %dl,(%rax)
    d92e:	48 8b 85 e0 e4 ff ff 	mov    -0x1b20(%rbp),%rax
    d935:	8b 18                	mov    (%rax),%ebx
    d937:	0f b7 85 04 e4 ff ff 	movzwl -0x1bfc(%rbp),%eax
    d93e:	44 0f b7 e0          	movzwl %ax,%r12d
    d942:	0f b7 85 04 e4 ff ff 	movzwl -0x1bfc(%rbp),%eax
    d949:	44 0f bf e8          	movswl %ax,%r13d
    d94d:	48 8b 85 08 e4 ff ff 	mov    -0x1bf8(%rbp),%rax
    d954:	48 85 c0             	test   %rax,%rax
    d957:	0f 95 c0             	setne  %al
    d95a:	0f b6 c0             	movzbl %al,%eax
    d95d:	be 08 00 00 00       	mov    $0x8,%esi
    d962:	89 c7                	mov    %eax,%edi
    d964:	e8 55 74 ff ff       	callq  4dbe <safe_lshift_func_uint16_t_u_s>
    d969:	48 8b 05 f0 65 00 00 	mov    0x65f0(%rip),%rax        # 13f60 <g_590>
    d970:	48 8b 00             	mov    (%rax),%rax
    d973:	48 8b 00             	mov    (%rax),%rax
    d976:	48 8b 00             	mov    (%rax),%rax
    d979:	48 8b 00             	mov    (%rax),%rax
    d97c:	89 c2                	mov    %eax,%edx
    d97e:	48 8b 85 08 e4 ff ff 	mov    -0x1bf8(%rbp),%rax
    d985:	31 d0                	xor    %edx,%eax
    d987:	f7 d0                	not    %eax
    d989:	98                   	cwtl   
    d98a:	44 89 ee             	mov    %r13d,%esi
    d98d:	89 c7                	mov    %eax,%edi
    d98f:	e8 c1 6a ff ff       	callq  4455 <safe_div_func_int16_t_s_s>
    d994:	f7 d0                	not    %eax
    d996:	66 c1 e8 0f          	shr    $0xf,%ax
    d99a:	0f b6 c0             	movzbl %al,%eax
    d99d:	44 89 e6             	mov    %r12d,%esi
    d9a0:	89 c7                	mov    %eax,%edi
    d9a2:	e8 83 6b ff ff       	callq  452a <safe_rshift_func_int16_t_s_s>
    d9a7:	48 0f bf c0          	movswq %ax,%rax
    d9ab:	48 be d2 be 25 ca a4 	movabs $0xb9fbd5a4ca25bed2,%rsi
    d9b2:	d5 fb b9 
    d9b5:	48 89 c7             	mov    %rax,%rdi
    d9b8:	e8 8e 76 ff ff       	callq  504b <safe_sub_func_uint64_t_u_u>
    d9bd:	48 83 f8 01          	cmp    $0x1,%rax
    d9c1:	0f 95 c0             	setne  %al
    d9c4:	0f b6 d0             	movzbl %al,%edx
    d9c7:	48 8b 85 f0 e3 ff ff 	mov    -0x1c10(%rbp),%rax
    d9ce:	0f b6 00             	movzbl (%rax),%eax
    d9d1:	0f be c0             	movsbl %al,%eax
    d9d4:	09 d0                	or     %edx,%eax
    d9d6:	85 c0                	test   %eax,%eax
    d9d8:	0f 95 c0             	setne  %al
    d9db:	0f b6 c0             	movzbl %al,%eax
    d9de:	89 de                	mov    %ebx,%esi
    d9e0:	89 c7                	mov    %eax,%edi
    d9e2:	e8 18 6d ff ff       	callq  46ff <safe_div_func_int32_t_s_s>
    d9e7:	3d f9 00 00 00       	cmp    $0xf9,%eax
    d9ec:	44 89 f6             	mov    %r14d,%esi
    d9ef:	bf 01 00 00 00       	mov    $0x1,%edi
    d9f4:	e8 06 6d ff ff       	callq  46ff <safe_div_func_int32_t_s_s>
    d9f9:	85 c0                	test   %eax,%eax
    d9fb:	0f 84 d8 02 00 00    	je     dcd9 <func_91+0x5995>
    da01:	48 c7 85 60 e5 ff ff 	movq   $0x0,-0x1aa0(%rbp)
    da08:	00 00 00 00 
    da0c:	48 c7 85 48 e7 ff ff 	movq   $0x0,-0x18b8(%rbp)
    da13:	00 00 00 00 
    da17:	c6 85 21 e4 ff ff 5e 	movb   $0x5e,-0x1bdf(%rbp)
    da1e:	c7 85 d0 e4 ff ff 92 	movl   $0x40032792,-0x1b30(%rbp)
    da25:	27 03 40 
    da28:	48 8d 85 00 e5 ff ff 	lea    -0x1b00(%rbp),%rax
    da2f:	48 89 85 50 e7 ff ff 	mov    %rax,-0x18b0(%rbp)
    da36:	48 8d 85 3c e4 ff ff 	lea    -0x1bc4(%rbp),%rax
    da3d:	48 89 85 58 e7 ff ff 	mov    %rax,-0x18a8(%rbp)
    da44:	c7 85 64 e4 ff ff 00 	movl   $0x0,-0x1b9c(%rbp)
    da4b:	00 00 00 
    da4e:	eb 1e                	jmp    da6e <func_91+0x572a>
    da50:	8b 85 64 e4 ff ff    	mov    -0x1b9c(%rbp),%eax
    da56:	48 98                	cltq   
    da58:	48 8d 95 60 e5 ff ff 	lea    -0x1aa0(%rbp),%rdx
    da5f:	48 89 94 c5 f0 f2 ff 	mov    %rdx,-0xd10(%rbp,%rax,8)
    da66:	ff 
    da67:	83 85 64 e4 ff ff 01 	addl   $0x1,-0x1b9c(%rbp)
    da6e:	83 bd 64 e4 ff ff 03 	cmpl   $0x3,-0x1b9c(%rbp)
    da75:	7e d9                	jle    da50 <func_91+0x570c>
    da77:	c7 85 64 e4 ff ff 00 	movl   $0x0,-0x1b9c(%rbp)
    da7e:	00 00 00 
    da81:	eb 1e                	jmp    daa1 <func_91+0x575d>
    da83:	8b 85 64 e4 ff ff    	mov    -0x1b9c(%rbp),%eax
    da89:	48 98                	cltq   
    da8b:	48 8d 15 36 56 00 00 	lea    0x5636(%rip),%rdx        # 130c8 <g_266>
    da92:	48 89 94 c5 40 eb ff 	mov    %rdx,-0x14c0(%rbp,%rax,8)
    da99:	ff 
    da9a:	83 85 64 e4 ff ff 01 	addl   $0x1,-0x1b9c(%rbp)
    daa1:	83 bd 64 e4 ff ff 02 	cmpl   $0x2,-0x1b9c(%rbp)
    daa8:	7e d9                	jle    da83 <func_91+0x573f>
    daaa:	48 8d 05 f7 63 00 00 	lea    0x63f7(%rip),%rax        # 13ea8 <g_524+0x248>
    dab1:	48 89 85 68 e5 ff ff 	mov    %rax,-0x1a98(%rbp)
    dab8:	48 83 bd 40 e7 ff ff 	cmpq   $0xfffffffffffffffb,-0x18c0(%rbp)
    dabf:	fb 
    dac0:	0f 97 c0             	seta   %al
    dac3:	0f b6 d0             	movzbl %al,%edx
    dac6:	48 8b 05 9b 64 00 00 	mov    0x649b(%rip),%rax        # 13f68 <g_778>
    dacd:	0f b6 00             	movzbl (%rax),%eax
    dad0:	0f b6 c0             	movzbl %al,%eax
    dad3:	89 d6                	mov    %edx,%esi
    dad5:	89 c7                	mov    %eax,%edi
    dad7:	e8 e2 71 ff ff       	callq  4cbe <safe_rshift_func_uint8_t_u_u>
    dadc:	48 8d 05 6c 55 00 00 	lea    0x556c(%rip),%rax        # 1304f <g_118+0x3>
    dae3:	48 89 05 96 64 00 00 	mov    %rax,0x6496(%rip)        # 13f80 <g_841>
    daea:	48 8b 05 8f 64 00 00 	mov    0x648f(%rip),%rax        # 13f80 <g_841>
    daf1:	48 8d 15 57 55 00 00 	lea    0x5557(%rip),%rdx        # 1304f <g_118+0x3>
    daf8:	48 39 d0             	cmp    %rdx,%rax
    dafb:	0f 95 c0             	setne  %al
    dafe:	0f b6 d0             	movzbl %al,%edx
    db01:	48 8b 85 d0 e6 ff ff 	mov    -0x1930(%rbp),%rax
    db08:	66 89 10             	mov    %dx,(%rax)
    db0b:	8b 85 48 e4 ff ff    	mov    -0x1bb8(%rbp),%eax
    db11:	85 c0                	test   %eax,%eax
    db13:	74 07                	je     db1c <func_91+0x57d8>
    db15:	b8 01 00 00 00       	mov    $0x1,%eax
    db1a:	eb 05                	jmp    db21 <func_91+0x57dd>
    db1c:	b8 00 00 00 00       	mov    $0x0,%eax
    db21:	0f be c0             	movsbl %al,%eax
    db24:	be 03 00 00 00       	mov    $0x3,%esi
    db29:	89 c7                	mov    %eax,%edi
    db2b:	e8 3c 68 ff ff       	callq  436c <safe_rshift_func_int8_t_s_u>
    db30:	84 c0                	test   %al,%al
    db32:	75 0c                	jne    db40 <func_91+0x57fc>
    db34:	0f b7 85 04 e4 ff ff 	movzwl -0x1bfc(%rbp),%eax
    db3b:	66 85 c0             	test   %ax,%ax
    db3e:	74 07                	je     db47 <func_91+0x5803>
    db40:	b8 01 00 00 00       	mov    $0x1,%eax
    db45:	eb 05                	jmp    db4c <func_91+0x5808>
    db47:	b8 00 00 00 00       	mov    $0x0,%eax
    db4c:	48 63 d0             	movslq %eax,%rdx
    db4f:	48 8b 05 02 64 00 00 	mov    0x6402(%rip),%rax        # 13f58 <g_591>
    db56:	48 8b 00             	mov    (%rax),%rax
    db59:	48 8b 00             	mov    (%rax),%rax
    db5c:	48 8b 00             	mov    (%rax),%rax
    db5f:	48 39 c2             	cmp    %rax,%rdx
    db62:	0f 95 c0             	setne  %al
    db65:	0f b6 d0             	movzbl %al,%edx
    db68:	0f b7 85 04 e4 ff ff 	movzwl -0x1bfc(%rbp),%eax
    db6f:	0f b7 c0             	movzwl %ax,%eax
    db72:	39 c2                	cmp    %eax,%edx
    db74:	0f 95 c0             	setne  %al
    db77:	0f b6 c0             	movzbl %al,%eax
    db7a:	48 89 85 08 e4 ff ff 	mov    %rax,-0x1bf8(%rbp)
    db81:	48 8b 85 e0 e4 ff ff 	mov    -0x1b20(%rbp),%rax
    db88:	48 8b 95 e0 e6 ff ff 	mov    -0x1920(%rbp),%rdx
    db8f:	8b 12                	mov    (%rdx),%edx
    db91:	89 10                	mov    %edx,(%rax)
    db93:	0f b6 9d 21 e4 ff ff 	movzbl -0x1bdf(%rbp),%ebx
    db9a:	48 8b 85 48 e8 ff ff 	mov    -0x17b8(%rbp),%rax
    dba1:	41 89 c5             	mov    %eax,%r13d
    dba4:	48 8b 05 85 5f 00 00 	mov    0x5f85(%rip),%rax        # 13b30 <g_119>
    dbab:	8b 00                	mov    (%rax),%eax
    dbad:	41 89 c6             	mov    %eax,%r14d
    dbb0:	48 8b 85 b0 e8 ff ff 	mov    -0x1750(%rbp),%rax
    dbb7:	41 89 c7             	mov    %eax,%r15d
    dbba:	8b 85 cc e4 ff ff    	mov    -0x1b34(%rbp),%eax
    dbc0:	44 0f b7 e0          	movzwl %ax,%r12d
    dbc4:	8b 85 48 e4 ff ff    	mov    -0x1bb8(%rbp),%eax
    dbca:	0d 9e 35 4c 07       	or     $0x74c359e,%eax
    dbcf:	89 85 48 e4 ff ff    	mov    %eax,-0x1bb8(%rbp)
    dbd5:	48 8b 85 f8 e3 ff ff 	mov    -0x1c08(%rbp),%rax
    dbdc:	89 85 e4 e3 ff ff    	mov    %eax,-0x1c1c(%rbp)
    dbe2:	48 8d 05 57 60 00 00 	lea    0x6057(%rip),%rax        # 13c40 <g_280>
    dbe9:	48 39 85 50 e7 ff ff 	cmp    %rax,-0x18b0(%rbp)
    dbf0:	0f 94 c0             	sete   %al
    dbf3:	0f b6 d0             	movzbl %al,%edx
    dbf6:	48 8b 85 f8 e3 ff ff 	mov    -0x1c08(%rbp),%rax
    dbfd:	0f b7 c0             	movzwl %ax,%eax
    dc00:	89 d6                	mov    %edx,%esi
    dc02:	89 c7                	mov    %eax,%edi
    dc04:	e8 b5 71 ff ff       	callq  4dbe <safe_lshift_func_uint16_t_u_s>
    dc09:	0f b7 c0             	movzwl %ax,%eax
    dc0c:	be f6 ff ff ff       	mov    $0xfffffff6,%esi
    dc11:	89 c7                	mov    %eax,%edi
    dc13:	e8 b4 6a ff ff       	callq  46cc <safe_mod_func_int32_t_s_s>
    dc18:	48 8b 95 e0 e6 ff ff 	mov    -0x1920(%rbp),%rdx
    dc1f:	89 02                	mov    %eax,(%rdx)
    dc21:	48 8b 85 e0 e6 ff ff 	mov    -0x1920(%rbp),%rax
    dc28:	8b 00                	mov    (%rax),%eax
    dc2a:	83 f8 ff             	cmp    $0xffffffff,%eax
    dc2d:	0f 9c c0             	setl   %al
    dc30:	0f b6 d0             	movzbl %al,%edx
    dc33:	8b 85 d0 e4 ff ff    	mov    -0x1b30(%rbp),%eax
    dc39:	89 d6                	mov    %edx,%esi
    dc3b:	89 c7                	mov    %eax,%edi
    dc3d:	e8 8e 72 ff ff       	callq  4ed0 <safe_sub_func_uint32_t_u_u>
    dc42:	b8 01 00 00 00       	mov    $0x1,%eax
    dc47:	98                   	cwtl   
    dc48:	8b b5 e4 e3 ff ff    	mov    -0x1c1c(%rbp),%esi
    dc4e:	89 c7                	mov    %eax,%edi
    dc50:	e8 3d 68 ff ff       	callq  4492 <safe_lshift_func_int16_t_s_s>
    dc55:	66 83 f8 01          	cmp    $0x1,%ax
    dc59:	0f 9e c0             	setle  %al
    dc5c:	0f b6 d0             	movzbl %al,%edx
    dc5f:	48 8b 85 f8 e3 ff ff 	mov    -0x1c08(%rbp),%rax
    dc66:	48 39 c2             	cmp    %rax,%rdx
    dc69:	0f 97 c0             	seta   %al
    dc6c:	0f b6 c0             	movzbl %al,%eax
    dc6f:	44 89 e6             	mov    %r12d,%esi
    dc72:	89 c7                	mov    %eax,%edi
    dc74:	e8 c4 70 ff ff       	callq  4d3d <safe_mul_func_uint16_t_u_u>
    dc79:	0f b7 c0             	movzwl %ax,%eax
    dc7c:	44 89 fe             	mov    %r15d,%esi
    dc7f:	89 c7                	mov    %eax,%edi
    dc81:	e8 f4 71 ff ff       	callq  4e7a <safe_rshift_func_uint16_t_u_u>
    dc86:	66 3d cc 00          	cmp    $0xcc,%ax
    dc8a:	0f 94 c0             	sete   %al
    dc8d:	0f b6 d0             	movzbl %al,%edx
    dc90:	48 8b 85 08 e4 ff ff 	mov    -0x1bf8(%rbp),%rax
    dc97:	48 39 c2             	cmp    %rax,%rdx
    dc9a:	0f 95 c2             	setne  %dl
    dc9d:	48 8b 85 e0 e4 ff ff 	mov    -0x1b20(%rbp),%rax
    dca4:	0f b6 d2             	movzbl %dl,%edx
    dca7:	89 10                	mov    %edx,(%rax)
    dca9:	8b 00                	mov    (%rax),%eax
    dcab:	44 89 f6             	mov    %r14d,%esi
    dcae:	89 c7                	mov    %eax,%edi
    dcb0:	e8 48 72 ff ff       	callq  4efd <safe_mod_func_uint32_t_u_u>
    dcb5:	0f be c0             	movsbl %al,%eax
    dcb8:	44 89 ee             	mov    %r13d,%esi
    dcbb:	89 c7                	mov    %eax,%edi
    dcbd:	e8 aa 66 ff ff       	callq  436c <safe_rshift_func_int8_t_s_u>
    dcc2:	0f be c0             	movsbl %al,%eax
    dcc5:	89 de                	mov    %ebx,%esi
    dcc7:	89 c7                	mov    %eax,%edi
    dcc9:	e8 37 69 ff ff       	callq  4605 <safe_sub_func_int32_t_s_s>
    dcce:	48 8b 95 58 e7 ff ff 	mov    -0x18a8(%rbp),%rdx
    dcd5:	89 02                	mov    %eax,(%rdx)
    dcd7:	eb 11                	jmp    dcea <func_91+0x59a6>
    dcd9:	48 8b 85 e0 e6 ff ff 	mov    -0x1920(%rbp),%rax
    dce0:	8b 00                	mov    (%rax),%eax
    dce2:	85 c0                	test   %eax,%eax
    dce4:	0f 85 e0 02 00 00    	jne    dfca <func_91+0x5c86>
    dcea:	48 8b 05 cf 5d 00 00 	mov    0x5dcf(%rip),%rax        # 13ac0 <g_21>
    dcf1:	8b 00                	mov    (%rax),%eax
    dcf3:	85 c0                	test   %eax,%eax
    dcf5:	0f 85 d2 02 00 00    	jne    dfcd <func_91+0x5c89>
    dcfb:	c7 85 3c e4 ff ff 00 	movl   $0x0,-0x1bc4(%rbp)
    dd02:	00 00 00 
    dd05:	e9 52 02 00 00       	jmpq   df5c <func_91+0x5c18>
    dd0a:	48 8d 85 00 ea ff ff 	lea    -0x1600(%rbp),%rax
    dd11:	48 05 28 01 00 00    	add    $0x128,%rax
    dd17:	48 89 85 98 e7 ff ff 	mov    %rax,-0x1868(%rbp)
    dd1e:	48 8d 85 00 e8 ff ff 	lea    -0x1800(%rbp),%rax
    dd25:	48 89 85 a0 e7 ff ff 	mov    %rax,-0x1860(%rbp)
    dd2c:	48 8d 85 30 e5 ff ff 	lea    -0x1ad0(%rbp),%rax
    dd33:	48 89 85 a8 e7 ff ff 	mov    %rax,-0x1858(%rbp)
    dd3a:	0f b7 85 04 e4 ff ff 	movzwl -0x1bfc(%rbp),%eax
    dd41:	0f b7 d8             	movzwl %ax,%ebx
    dd44:	0f b7 85 04 e4 ff ff 	movzwl -0x1bfc(%rbp),%eax
    dd4b:	0f bf d0             	movswl %ax,%edx
    dd4e:	48 8b 8d b8 ea ff ff 	mov    -0x1548(%rbp),%rcx
    dd55:	48 8b 85 98 e7 ff ff 	mov    -0x1868(%rbp),%rax
    dd5c:	48 89 08             	mov    %rcx,(%rax)
    dd5f:	48 8b 85 98 e7 ff ff 	mov    -0x1868(%rbp),%rax
    dd66:	48 8b 08             	mov    (%rax),%rcx
    dd69:	48 8d 85 f8 e4 ff ff 	lea    -0x1b08(%rbp),%rax
    dd70:	48 39 c1             	cmp    %rax,%rcx
    dd73:	0f 94 c0             	sete   %al
    dd76:	0f b6 c0             	movzbl %al,%eax
    dd79:	89 d6                	mov    %edx,%esi
    dd7b:	89 c7                	mov    %eax,%edi
    dd7d:	e8 31 66 ff ff       	callq  43b3 <safe_add_func_int16_t_s_s>
    dd82:	89 c2                	mov    %eax,%edx
    dd84:	48 8b 85 28 e5 ff ff 	mov    -0x1ad8(%rbp),%rax
    dd8b:	66 89 10             	mov    %dx,(%rax)
    dd8e:	0f b7 00             	movzwl (%rax),%eax
    dd91:	0f b7 c0             	movzwl %ax,%eax
    dd94:	89 de                	mov    %ebx,%esi
    dd96:	89 c7                	mov    %eax,%edi
    dd98:	e8 ab 70 ff ff       	callq  4e48 <safe_rshift_func_uint16_t_u_s>
    dd9d:	48 8b 85 e0 e6 ff ff 	mov    -0x1920(%rbp),%rax
    dda4:	8b 10                	mov    (%rax),%edx
    dda6:	0f b7 05 85 52 00 00 	movzwl 0x5285(%rip),%eax        # 13032 <g_36>
    ddad:	98                   	cwtl   
    ddae:	39 c2                	cmp    %eax,%edx
    ddb0:	7d 17                	jge    ddc9 <func_91+0x5a85>
    ddb2:	0f b6 85 20 e4 ff ff 	movzbl -0x1be0(%rbp),%eax
    ddb9:	89 c6                	mov    %eax,%esi
    ddbb:	bf aa 00 00 00       	mov    $0xaa,%edi
    ddc0:	e8 e9 6d ff ff       	callq  4bae <safe_mod_func_uint8_t_u_u>
    ddc5:	84 c0                	test   %al,%al
    ddc7:	74 07                	je     ddd0 <func_91+0x5a8c>
    ddc9:	ba 01 00 00 00       	mov    $0x1,%edx
    ddce:	eb 05                	jmp    ddd5 <func_91+0x5a91>
    ddd0:	ba 00 00 00 00       	mov    $0x0,%edx
    ddd5:	48 8b 05 6c 5e 00 00 	mov    0x5e6c(%rip),%rax        # 13c48 <g_435>
    dddc:	0f b7 00             	movzwl (%rax),%eax
    dddf:	0f b7 c0             	movzwl %ax,%eax
    dde2:	39 c2                	cmp    %eax,%edx
    dde4:	0f 94 c2             	sete   %dl
    dde7:	48 8b 85 e0 e4 ff ff 	mov    -0x1b20(%rbp),%rax
    ddee:	0f b6 d2             	movzbl %dl,%edx
    ddf1:	89 10                	mov    %edx,(%rax)
    ddf3:	8b 00                	mov    (%rax),%eax
    ddf5:	48 63 d0             	movslq %eax,%rdx
    ddf8:	48 8b 05 61 61 00 00 	mov    0x6161(%rip),%rax        # 13f60 <g_590>
    ddff:	48 8b 00             	mov    (%rax),%rax
    de02:	48 8b 00             	mov    (%rax),%rax
    de05:	48 8b 00             	mov    (%rax),%rax
    de08:	48 8b 00             	mov    (%rax),%rax
    de0b:	48 09 c2             	or     %rax,%rdx
    de0e:	48 8b 85 e0 e6 ff ff 	mov    -0x1920(%rbp),%rax
    de15:	8b 00                	mov    (%rax),%eax
    de17:	48 98                	cltq   
    de19:	48 39 c2             	cmp    %rax,%rdx
    de1c:	7f 07                	jg     de25 <func_91+0x5ae1>
    de1e:	b8 db 00 00 00       	mov    $0xdb,%eax
    de23:	eb 05                	jmp    de2a <func_91+0x5ae6>
    de25:	b8 da 00 00 00       	mov    $0xda,%eax
    de2a:	89 c2                	mov    %eax,%edx
    de2c:	8b 85 40 e4 ff ff    	mov    -0x1bc0(%rbp),%eax
    de32:	31 d0                	xor    %edx,%eax
    de34:	89 85 40 e4 ff ff    	mov    %eax,-0x1bc0(%rbp)
    de3a:	0f b7 85 04 e4 ff ff 	movzwl -0x1bfc(%rbp),%eax
    de41:	0f b7 d0             	movzwl %ax,%edx
    de44:	48 8b 05 75 53 00 00 	mov    0x5375(%rip),%rax        # 131c0 <g_888>
    de4b:	0f b7 c0             	movzwl %ax,%eax
    de4e:	89 d6                	mov    %edx,%esi
    de50:	89 c7                	mov    %eax,%edi
    de52:	e8 05 6f ff ff       	callq  4d5c <safe_mod_func_uint16_t_u_u>
    de57:	89 c3                	mov    %eax,%ebx
    de59:	48 8b 85 a8 e7 ff ff 	mov    -0x1858(%rbp),%rax
    de60:	48 8b 95 a0 e7 ff ff 	mov    -0x1860(%rbp),%rdx
    de67:	48 89 10             	mov    %rdx,(%rax)
    de6a:	48 8b 85 a8 e7 ff ff 	mov    -0x1858(%rbp),%rax
    de71:	48 8b 00             	mov    (%rax),%rax
    de74:	48 85 c0             	test   %rax,%rax
    de77:	41 0f 95 c4          	setne  %r12b
    de7b:	48 8b 85 f0 e3 ff ff 	mov    -0x1c10(%rbp),%rax
    de82:	0f b6 00             	movzbl (%rax),%eax
    de85:	0f b6 d0             	movzbl %al,%edx
    de88:	0f b7 85 04 e4 ff ff 	movzwl -0x1bfc(%rbp),%eax
    de8f:	0f b6 c0             	movzbl %al,%eax
    de92:	89 d6                	mov    %edx,%esi
    de94:	89 c7                	mov    %eax,%edi
    de96:	e8 13 6d ff ff       	callq  4bae <safe_mod_func_uint8_t_u_u>
    de9b:	0f b6 d0             	movzbl %al,%edx
    de9e:	48 8b 85 e0 e6 ff ff 	mov    -0x1920(%rbp),%rax
    dea5:	8b 00                	mov    (%rax),%eax
    dea7:	3d e9 b0 00 00       	cmp    $0xb0e9,%eax
    deac:	0f 9f c0             	setg   %al
    deaf:	0f b6 c8             	movzbl %al,%ecx
    deb2:	0f b7 85 22 e4 ff ff 	movzwl -0x1bde(%rbp),%eax
    deb9:	39 c1                	cmp    %eax,%ecx
    debb:	0f 9d c0             	setge  %al
    debe:	0f b6 c0             	movzbl %al,%eax
    dec1:	39 c2                	cmp    %eax,%edx
    dec3:	0f 94 c0             	sete   %al
    dec6:	44 21 e0             	and    %r12d,%eax
    dec9:	0f b6 c0             	movzbl %al,%eax
    decc:	66 39 c3             	cmp    %ax,%bx
    decf:	0f 94 c0             	sete   %al
    ded2:	0f b6 c0             	movzbl %al,%eax
    ded5:	be 8b 7d 00 00       	mov    $0x7d8b,%esi
    deda:	89 c7                	mov    %eax,%edi
    dedc:	e8 d2 64 ff ff       	callq  43b3 <safe_add_func_int16_t_s_s>
    dee1:	48 8b 95 e0 e4 ff ff 	mov    -0x1b20(%rbp),%rdx
    dee8:	8b 0a                	mov    (%rdx),%ecx
    deea:	0f bf d0             	movswl %ax,%edx
    deed:	48 8b 85 e0 e4 ff ff 	mov    -0x1b20(%rbp),%rax
    def4:	21 ca                	and    %ecx,%edx
    def6:	89 10                	mov    %edx,(%rax)
    def8:	0f b7 85 04 e4 ff ff 	movzwl -0x1bfc(%rbp),%eax
    deff:	0f b7 d0             	movzwl %ax,%edx
    df02:	48 8b 85 e0 e6 ff ff 	mov    -0x1920(%rbp),%rax
    df09:	89 10                	mov    %edx,(%rax)
    df0b:	48 8b 85 e0 e6 ff ff 	mov    -0x1920(%rbp),%rax
    df12:	8b 00                	mov    (%rax),%eax
    df14:	89 c2                	mov    %eax,%edx
    df16:	0f b6 05 9b 69 00 00 	movzbl 0x699b(%rip),%eax        # 148b8 <g_896>
    df1d:	21 d0                	and    %edx,%eax
    df1f:	88 05 93 69 00 00    	mov    %al,0x6993(%rip)        # 148b8 <g_896>
    df25:	0f b6 05 8c 69 00 00 	movzbl 0x698c(%rip),%eax        # 148b8 <g_896>
    df2c:	0f b6 c0             	movzbl %al,%eax
    df2f:	48 8b 95 08 e4 ff ff 	mov    -0x1bf8(%rbp),%rdx
    df36:	48 89 c6             	mov    %rax,%rsi
    df39:	48 89 d7             	mov    %rdx,%rdi
    df3c:	e8 3f 71 ff ff       	callq  5080 <safe_mod_func_uint64_t_u_u>
    df41:	48 89 c2             	mov    %rax,%rdx
    df44:	48 8b 85 e0 e4 ff ff 	mov    -0x1b20(%rbp),%rax
    df4b:	89 10                	mov    %edx,(%rax)
    df4d:	8b 85 3c e4 ff ff    	mov    -0x1bc4(%rbp),%eax
    df53:	83 c0 01             	add    $0x1,%eax
    df56:	89 85 3c e4 ff ff    	mov    %eax,-0x1bc4(%rbp)
    df5c:	8b 85 3c e4 ff ff    	mov    -0x1bc4(%rbp),%eax
    df62:	83 f8 06             	cmp    $0x6,%eax
    df65:	0f 84 9f fd ff ff    	je     dd0a <func_91+0x59c6>
    df6b:	c7 05 5b 51 00 00 00 	movl   $0x0,0x515b(%rip)        # 130d0 <g_271>
    df72:	00 00 00 
    df75:	eb 21                	jmp    df98 <func_91+0x5c54>
    df77:	48 8b 85 f8 e3 ff ff 	mov    -0x1c08(%rbp),%rax
    df7e:	89 c2                	mov    %eax,%edx
    df80:	48 8b 85 e0 e6 ff ff 	mov    -0x1920(%rbp),%rax
    df87:	89 10                	mov    %edx,(%rax)
    df89:	8b 05 41 51 00 00    	mov    0x5141(%rip),%eax        # 130d0 <g_271>
    df8f:	83 c0 01             	add    $0x1,%eax
    df92:	89 05 38 51 00 00    	mov    %eax,0x5138(%rip)        # 130d0 <g_271>
    df98:	8b 05 32 51 00 00    	mov    0x5132(%rip),%eax        # 130d0 <g_271>
    df9e:	83 f8 03             	cmp    $0x3,%eax
    dfa1:	74 d4                	je     df77 <func_91+0x5c33>
    dfa3:	48 8b 05 be 50 00 00 	mov    0x50be(%rip),%rax        # 13068 <g_158>
    dfaa:	48 83 e8 01          	sub    $0x1,%rax
    dfae:	48 89 05 b3 50 00 00 	mov    %rax,0x50b3(%rip)        # 13068 <g_158>
    dfb5:	48 8b 05 ac 50 00 00 	mov    0x50ac(%rip),%rax        # 13068 <g_158>
    dfbc:	48 85 c0             	test   %rax,%rax
    dfbf:	0f 8e 63 ef ff ff    	jle    cf28 <func_91+0x4be4>
    dfc5:	eb 07                	jmp    dfce <func_91+0x5c8a>
    dfc7:	90                   	nop
    dfc8:	eb 04                	jmp    dfce <func_91+0x5c8a>
    dfca:	90                   	nop
    dfcb:	eb 01                	jmp    dfce <func_91+0x5c8a>
    dfcd:	90                   	nop
    dfce:	48 8b 85 e0 e4 ff ff 	mov    -0x1b20(%rbp),%rax
    dfd5:	8b 00                	mov    (%rax),%eax
    dfd7:	eb 3f                	jmp    e018 <func_91+0x5cd4>
    dfd9:	90                   	nop
    dfda:	eb 07                	jmp    dfe3 <func_91+0x5c9f>
    dfdc:	90                   	nop
    dfdd:	eb 04                	jmp    dfe3 <func_91+0x5c9f>
    dfdf:	90                   	nop
    dfe0:	eb 01                	jmp    dfe3 <func_91+0x5c9f>
    dfe2:	90                   	nop
    dfe3:	0f b6 05 5a 50 00 00 	movzbl 0x505a(%rip),%eax        # 13044 <g_112>
    dfea:	0f be c0             	movsbl %al,%eax
    dfed:	be 07 00 00 00       	mov    $0x7,%esi
    dff2:	89 c7                	mov    %eax,%edi
    dff4:	e8 db 61 ff ff       	callq  41d4 <safe_add_func_int8_t_s_s>
    dff9:	88 05 45 50 00 00    	mov    %al,0x5045(%rip)        # 13044 <g_112>
    dfff:	0f b6 05 3e 50 00 00 	movzbl 0x503e(%rip),%eax        # 13044 <g_112>
    e006:	3c 04                	cmp    $0x4,%al
    e008:	0f 86 c4 aa ff ff    	jbe    8ad2 <func_91+0x78e>
    e00e:	48 8b 05 53 5f 00 00 	mov    0x5f53(%rip),%rax        # 13f68 <g_778>
    e015:	0f b6 00             	movzbl (%rax),%eax
    e018:	48 8b 5d c8          	mov    -0x38(%rbp),%rbx
    e01c:	64 48 33 1c 25 28 00 	xor    %fs:0x28,%rbx
    e023:	00 00 
    e025:	74 05                	je     e02c <func_91+0x5ce8>
    e027:	e8 44 60 ff ff       	callq  4070 <__stack_chk_fail@plt>
    e02c:	48 81 c4 f8 1b 00 00 	add    $0x1bf8,%rsp
    e033:	5b                   	pop    %rbx
    e034:	41 5c                	pop    %r12
    e036:	41 5d                	pop    %r13
    e038:	41 5e                	pop    %r14
    e03a:	41 5f                	pop    %r15
    e03c:	5d                   	pop    %rbp
    e03d:	c3                   	retq   

000000000000e03e <func_102>:
    e03e:	f3 0f 1e fa          	endbr64 
    e042:	55                   	push   %rbp
    e043:	48 89 e5             	mov    %rsp,%rbp
    e046:	48 81 ec e0 00 00 00 	sub    $0xe0,%rsp
    e04d:	48 89 bd 28 ff ff ff 	mov    %rdi,-0xd8(%rbp)
    e054:	64 48 8b 04 25 28 00 	mov    %fs:0x28,%rax
    e05b:	00 00 
    e05d:	48 89 45 f8          	mov    %rax,-0x8(%rbp)
    e061:	31 c0                	xor    %eax,%eax
    e063:	48 b8 ed 41 41 d0 94 	movabs $0xaa557094d04141ed,%rax
    e06a:	70 55 aa 
    e06d:	48 89 85 48 ff ff ff 	mov    %rax,-0xb8(%rbp)
    e074:	48 8d 05 27 68 00 00 	lea    0x6827(%rip),%rax        # 148a2 <g_109>
    e07b:	48 89 85 50 ff ff ff 	mov    %rax,-0xb0(%rbp)
    e082:	48 c7 85 58 ff ff ff 	movq   $0x0,-0xa8(%rbp)
    e089:	00 00 00 00 
    e08d:	48 8d 05 b0 4f 00 00 	lea    0x4fb0(%rip),%rax        # 13044 <g_112>
    e094:	48 89 85 60 ff ff ff 	mov    %rax,-0xa0(%rbp)
    e09b:	48 8d 05 a6 4f 00 00 	lea    0x4fa6(%rip),%rax        # 13048 <g_115>
    e0a2:	48 89 85 40 ff ff ff 	mov    %rax,-0xc0(%rbp)
    e0a9:	48 8d 85 40 ff ff ff 	lea    -0xc0(%rbp),%rax
    e0b0:	48 89 85 68 ff ff ff 	mov    %rax,-0x98(%rbp)
    e0b7:	48 8d 05 91 4f 00 00 	lea    0x4f91(%rip),%rax        # 1304f <g_118+0x3>
    e0be:	48 89 85 70 ff ff ff 	mov    %rax,-0x90(%rbp)
    e0c5:	48 c7 85 78 ff ff ff 	movq   $0x0,-0x88(%rbp)
    e0cc:	00 00 00 00 
    e0d0:	48 b8 9f c6 e6 ea 61 	movabs $0x7f40a761eae6c69f,%rax
    e0d7:	a7 40 7f 
    e0da:	48 89 45 80          	mov    %rax,-0x80(%rbp)
    e0de:	c7 85 34 ff ff ff c8 	movl   $0x5ef5a3c8,-0xcc(%rbp)
    e0e5:	a3 f5 5e 
    e0e8:	b8 b7 77 0c f7       	mov    $0xf70c77b7,%eax
    e0ed:	48 89 85 48 ff ff ff 	mov    %rax,-0xb8(%rbp)
    e0f4:	48 8b 85 50 ff ff ff 	mov    -0xb0(%rbp),%rax
    e0fb:	66 c7 00 69 d5       	movw   $0xd569,(%rax)
    e100:	48 81 bd 48 ff ff ff 	cmpq   $0xffffffffffffd569,-0xb8(%rbp)
    e107:	69 d5 ff ff 
    e10b:	0f 95 c0             	setne  %al
    e10e:	89 c2                	mov    %eax,%edx
    e110:	48 8b 85 60 ff ff ff 	mov    -0xa0(%rbp),%rax
    e117:	88 10                	mov    %dl,(%rax)
    e119:	48 8b 85 60 ff ff ff 	mov    -0xa0(%rbp),%rax
    e120:	0f b6 00             	movzbl (%rax),%eax
    e123:	0f b6 c8             	movzbl %al,%ecx
    e126:	48 8b 85 68 ff ff ff 	mov    -0x98(%rbp),%rax
    e12d:	48 c7 00 00 00 00 00 	movq   $0x0,(%rax)
    e134:	48 8b 85 68 ff ff ff 	mov    -0x98(%rbp),%rax
    e13b:	48 8b 00             	mov    (%rax),%rax
    e13e:	48 89 05 db 59 00 00 	mov    %rax,0x59db(%rip)        # 13b20 <g_116+0x40>
    e145:	48 8b 05 d4 59 00 00 	mov    0x59d4(%rip),%rax        # 13b20 <g_116+0x40>
    e14c:	48 8d 15 f5 4e 00 00 	lea    0x4ef5(%rip),%rdx        # 13048 <g_115>
    e153:	48 39 d0             	cmp    %rdx,%rax
    e156:	0f 95 c0             	setne  %al
    e159:	89 c2                	mov    %eax,%edx
    e15b:	48 8b 85 70 ff ff ff 	mov    -0x90(%rbp),%rax
    e162:	88 10                	mov    %dl,(%rax)
    e164:	48 8b 85 70 ff ff ff 	mov    -0x90(%rbp),%rax
    e16b:	0f b6 00             	movzbl (%rax),%eax
    e16e:	0f be d0             	movsbl %al,%edx
    e171:	48 8b 05 b8 59 00 00 	mov    0x59b8(%rip),%rax        # 13b30 <g_119>
    e178:	09 ca                	or     %ecx,%edx
    e17a:	89 10                	mov    %edx,(%rax)
    e17c:	c6 05 c1 4e 00 00 09 	movb   $0x9,0x4ec1(%rip)        # 13044 <g_112>
    e183:	e9 06 01 00 00       	jmpq   e28e <func_102+0x250>
    e188:	c7 85 38 ff ff ff 6d 	movl   $0x4a778b6d,-0xc8(%rbp)
    e18f:	8b 77 4a 
    e192:	48 8d 05 bb 4e 00 00 	lea    0x4ebb(%rip),%rax        # 13054 <g_120>
    e199:	48 89 45 88          	mov    %rax,-0x78(%rbp)
    e19d:	48 8d 05 b0 4e 00 00 	lea    0x4eb0(%rip),%rax        # 13054 <g_120>
    e1a4:	48 89 45 90          	mov    %rax,-0x70(%rbp)
    e1a8:	48 c7 45 98 00 00 00 	movq   $0x0,-0x68(%rbp)
    e1af:	00 
    e1b0:	48 8d 45 c0          	lea    -0x40(%rbp),%rax
    e1b4:	48 89 45 a0          	mov    %rax,-0x60(%rbp)
    e1b8:	48 8d 45 c0          	lea    -0x40(%rbp),%rax
    e1bc:	48 83 c0 0c          	add    $0xc,%rax
    e1c0:	48 89 45 a8          	mov    %rax,-0x58(%rbp)
    e1c4:	48 8d 05 89 4e 00 00 	lea    0x4e89(%rip),%rax        # 13054 <g_120>
    e1cb:	48 89 45 b0          	mov    %rax,-0x50(%rbp)
    e1cf:	c7 85 30 ff ff ff 00 	movl   $0x0,-0xd0(%rbp)
    e1d6:	00 00 00 
    e1d9:	eb 17                	jmp    e1f2 <func_102+0x1b4>
    e1db:	8b 85 30 ff ff ff    	mov    -0xd0(%rbp),%eax
    e1e1:	48 98                	cltq   
    e1e3:	c7 44 85 c0 f7 ff ff 	movl   $0xfffffff7,-0x40(%rbp,%rax,4)
    e1ea:	ff 
    e1eb:	83 85 30 ff ff ff 01 	addl   $0x1,-0xd0(%rbp)
    e1f2:	83 bd 30 ff ff ff 05 	cmpl   $0x5,-0xd0(%rbp)
    e1f9:	7e e0                	jle    e1db <func_102+0x19d>
    e1fb:	c7 85 30 ff ff ff 00 	movl   $0x0,-0xd0(%rbp)
    e202:	00 00 00 
    e205:	eb 18                	jmp    e21f <func_102+0x1e1>
    e207:	8b 85 30 ff ff ff    	mov    -0xd0(%rbp),%eax
    e20d:	48 98                	cltq   
    e20f:	48 c7 44 c5 e0 00 00 	movq   $0x0,-0x20(%rbp,%rax,8)
    e216:	00 00 
    e218:	83 85 30 ff ff ff 01 	addl   $0x1,-0xd0(%rbp)
    e21f:	83 bd 30 ff ff ff 02 	cmpl   $0x2,-0xd0(%rbp)
    e226:	7e df                	jle    e207 <func_102+0x1c9>
    e228:	c7 05 16 4e 00 00 00 	movl   $0x0,0x4e16(%rip)        # 13048 <g_115>
    e22f:	00 00 00 
    e232:	eb 2d                	jmp    e261 <func_102+0x223>
    e234:	c7 85 3c ff ff ff ff 	movl   $0xffffffff,-0xc4(%rbp)
    e23b:	ff ff ff 
    e23e:	48 8d 05 13 4e 00 00 	lea    0x4e13(%rip),%rax        # 13058 <g_149>
    e245:	48 89 45 b8          	mov    %rax,-0x48(%rbp)
    e249:	83 bd 38 ff ff ff 00 	cmpl   $0x0,-0xc8(%rbp)
    e250:	75 1c                	jne    e26e <func_102+0x230>
    e252:	8b 05 f0 4d 00 00    	mov    0x4df0(%rip),%eax        # 13048 <g_115>
    e258:	83 c0 01             	add    $0x1,%eax
    e25b:	89 05 e7 4d 00 00    	mov    %eax,0x4de7(%rip)        # 13048 <g_115>
    e261:	8b 05 e1 4d 00 00    	mov    0x4de1(%rip),%eax        # 13048 <g_115>
    e267:	83 f8 09             	cmp    $0x9,%eax
    e26a:	76 c8                	jbe    e234 <func_102+0x1f6>
    e26c:	eb 01                	jmp    e26f <func_102+0x231>
    e26e:	90                   	nop
    e26f:	8b 05 3f 4e 00 00    	mov    0x4e3f(%rip),%eax        # 130b4 <g_190>
    e275:	83 e8 01             	sub    $0x1,%eax
    e278:	89 05 36 4e 00 00    	mov    %eax,0x4e36(%rip)        # 130b4 <g_190>
    e27e:	0f b6 05 bf 4d 00 00 	movzbl 0x4dbf(%rip),%eax        # 13044 <g_112>
    e285:	83 c0 01             	add    $0x1,%eax
    e288:	88 05 b6 4d 00 00    	mov    %al,0x4db6(%rip)        # 13044 <g_112>
    e28e:	0f b6 05 af 4d 00 00 	movzbl 0x4daf(%rip),%eax        # 13044 <g_112>
    e295:	3c 3c                	cmp    $0x3c,%al
    e297:	0f 84 eb fe ff ff    	je     e188 <func_102+0x14a>
    e29d:	8b 05 a5 4d 00 00    	mov    0x4da5(%rip),%eax        # 13048 <g_115>
    e2a3:	48 8b 75 f8          	mov    -0x8(%rbp),%rsi
    e2a7:	64 48 33 34 25 28 00 	xor    %fs:0x28,%rsi
    e2ae:	00 00 
    e2b0:	74 05                	je     e2b7 <func_102+0x279>
    e2b2:	e8 b9 5d ff ff       	callq  4070 <__stack_chk_fail@plt>
    e2b7:	c9                   	leaveq 
    e2b8:	c3                   	retq   

000000000000e2b9 <main>:
    e2b9:	f3 0f 1e fa          	endbr64 
    e2bd:	55                   	push   %rbp
    e2be:	48 89 e5             	mov    %rsp,%rbp
    e2c1:	48 83 ec 20          	sub    $0x20,%rsp
    e2c5:	89 7d ec             	mov    %edi,-0x14(%rbp)
    e2c8:	48 89 75 e0          	mov    %rsi,-0x20(%rbp)
    e2cc:	c7 45 fc 00 00 00 00 	movl   $0x0,-0x4(%rbp)
    e2d3:	83 7d ec 02          	cmpl   $0x2,-0x14(%rbp)
    e2d7:	75 25                	jne    e2fe <main+0x45>
    e2d9:	48 8b 45 e0          	mov    -0x20(%rbp),%rax
    e2dd:	48 83 c0 08          	add    $0x8,%rax
    e2e1:	48 8b 00             	mov    (%rax),%rax
    e2e4:	48 8d 35 45 1c 00 00 	lea    0x1c45(%rip),%rsi        # ff30 <g_2043+0xe70>
    e2eb:	48 89 c7             	mov    %rax,%rdi
    e2ee:	e8 9d 5d ff ff       	callq  4090 <strcmp@plt>
    e2f3:	85 c0                	test   %eax,%eax
    e2f5:	75 07                	jne    e2fe <main+0x45>
    e2f7:	c7 45 fc 01 00 00 00 	movl   $0x1,-0x4(%rbp)
    e2fe:	e8 86 5e ff ff       	callq  4189 <platform_main_begin>
    e303:	e8 90 72 ff ff       	callq  5598 <crc32_gentab>
    e308:	e8 a8 74 ff ff       	callq  57b5 <func_1>
    e30d:	0f b6 05 10 4d 00 00 	movzbl 0x4d10(%rip),%eax        # 13024 <g_19>
    e314:	48 0f be c0          	movsbq %al,%rax
    e318:	8b 55 fc             	mov    -0x4(%rbp),%edx
    e31b:	48 8d 35 10 1c 00 00 	lea    0x1c10(%rip),%rsi        # ff32 <g_2043+0xe72>
    e322:	48 89 c7             	mov    %rax,%rdi
    e325:	e8 c9 73 ff ff       	callq  56f3 <transparent_crc>
    e32a:	8b 05 58 65 00 00    	mov    0x6558(%rip),%eax        # 14888 <g_22>
    e330:	48 98                	cltq   
    e332:	8b 55 fc             	mov    -0x4(%rbp),%edx
    e335:	48 8d 35 fb 1b 00 00 	lea    0x1bfb(%rip),%rsi        # ff37 <g_2043+0xe77>
    e33c:	48 89 c7             	mov    %rax,%rdi
    e33f:	e8 af 73 ff ff       	callq  56f3 <transparent_crc>
    e344:	48 8b 05 dd 4c 00 00 	mov    0x4cdd(%rip),%rax        # 13028 <g_30>
    e34b:	8b 55 fc             	mov    -0x4(%rbp),%edx
    e34e:	48 8d 35 e7 1b 00 00 	lea    0x1be7(%rip),%rsi        # ff3c <g_2043+0xe7c>
    e355:	48 89 c7             	mov    %rax,%rdi
    e358:	e8 96 73 ff ff       	callq  56f3 <transparent_crc>
    e35d:	0f b7 05 cc 4c 00 00 	movzwl 0x4ccc(%rip),%eax        # 13030 <g_34>
    e364:	48 0f bf c0          	movswq %ax,%rax
    e368:	8b 55 fc             	mov    -0x4(%rbp),%edx
    e36b:	48 8d 35 cf 1b 00 00 	lea    0x1bcf(%rip),%rsi        # ff41 <g_2043+0xe81>
    e372:	48 89 c7             	mov    %rax,%rdi
    e375:	e8 79 73 ff ff       	callq  56f3 <transparent_crc>
    e37a:	0f b7 05 b1 4c 00 00 	movzwl 0x4cb1(%rip),%eax        # 13032 <g_36>
    e381:	48 0f bf c0          	movswq %ax,%rax
    e385:	8b 55 fc             	mov    -0x4(%rbp),%edx
    e388:	48 8d 35 b7 1b 00 00 	lea    0x1bb7(%rip),%rsi        # ff46 <g_2043+0xe86>
    e38f:	48 89 c7             	mov    %rax,%rdi
    e392:	e8 5c 73 ff ff       	callq  56f3 <transparent_crc>
    e397:	48 8b 05 9a 4c 00 00 	mov    0x4c9a(%rip),%rax        # 13038 <g_37>
    e39e:	48 89 c1             	mov    %rax,%rcx
    e3a1:	8b 45 fc             	mov    -0x4(%rbp),%eax
    e3a4:	89 c2                	mov    %eax,%edx
    e3a6:	48 8d 35 9e 1b 00 00 	lea    0x1b9e(%rip),%rsi        # ff4b <g_2043+0xe8b>
    e3ad:	48 89 cf             	mov    %rcx,%rdi
    e3b0:	e8 3e 73 ff ff       	callq  56f3 <transparent_crc>
    e3b5:	c7 45 f4 00 00 00 00 	movl   $0x0,-0xc(%rbp)
    e3bc:	eb 49                	jmp    e407 <main+0x14e>
    e3be:	8b 45 f4             	mov    -0xc(%rbp),%eax
    e3c1:	48 98                	cltq   
    e3c3:	48 8d 14 00          	lea    (%rax,%rax,1),%rdx
    e3c7:	48 8d 05 72 4c 00 00 	lea    0x4c72(%rip),%rax        # 13040 <g_80>
    e3ce:	0f b7 04 02          	movzwl (%rdx,%rax,1),%eax
    e3d2:	0f b7 c0             	movzwl %ax,%eax
    e3d5:	8b 55 fc             	mov    -0x4(%rbp),%edx
    e3d8:	48 8d 35 71 1b 00 00 	lea    0x1b71(%rip),%rsi        # ff50 <g_2043+0xe90>
    e3df:	48 89 c7             	mov    %rax,%rdi
    e3e2:	e8 0c 73 ff ff       	callq  56f3 <transparent_crc>
    e3e7:	83 7d fc 00          	cmpl   $0x0,-0x4(%rbp)
    e3eb:	74 16                	je     e403 <main+0x14a>
    e3ed:	8b 45 f4             	mov    -0xc(%rbp),%eax
    e3f0:	89 c6                	mov    %eax,%esi
    e3f2:	48 8d 3d 5f 1b 00 00 	lea    0x1b5f(%rip),%rdi        # ff58 <g_2043+0xe98>
    e3f9:	b8 00 00 00 00       	mov    $0x0,%eax
    e3fe:	e8 7d 5c ff ff       	callq  4080 <printf@plt>
    e403:	83 45 f4 01          	addl   $0x1,-0xc(%rbp)
    e407:	83 7d f4 01          	cmpl   $0x1,-0xc(%rbp)
    e40b:	7e b1                	jle    e3be <main+0x105>
    e40d:	48 8b 05 84 64 00 00 	mov    0x6484(%rip),%rax        # 14898 <g_90>
    e414:	48 89 c1             	mov    %rax,%rcx
    e417:	8b 45 fc             	mov    -0x4(%rbp),%eax
    e41a:	89 c2                	mov    %eax,%edx
    e41c:	48 8d 35 43 1b 00 00 	lea    0x1b43(%rip),%rsi        # ff66 <g_2043+0xea6>
    e423:	48 89 cf             	mov    %rcx,%rdi
    e426:	e8 c8 72 ff ff       	callq  56f3 <transparent_crc>
    e42b:	0f b7 05 6e 64 00 00 	movzwl 0x646e(%rip),%eax        # 148a0 <g_106>
    e432:	0f b7 c0             	movzwl %ax,%eax
    e435:	8b 55 fc             	mov    -0x4(%rbp),%edx
    e438:	48 8d 35 2c 1b 00 00 	lea    0x1b2c(%rip),%rsi        # ff6b <g_2043+0xeab>
    e43f:	48 89 c7             	mov    %rax,%rdi
    e442:	e8 ac 72 ff ff       	callq  56f3 <transparent_crc>
    e447:	0f b7 05 54 64 00 00 	movzwl 0x6454(%rip),%eax        # 148a2 <g_109>
    e44e:	48 0f bf c0          	movswq %ax,%rax
    e452:	8b 55 fc             	mov    -0x4(%rbp),%edx
    e455:	48 8d 35 15 1b 00 00 	lea    0x1b15(%rip),%rsi        # ff71 <g_2043+0xeb1>
    e45c:	48 89 c7             	mov    %rax,%rdi
    e45f:	e8 8f 72 ff ff       	callq  56f3 <transparent_crc>
    e464:	0f b6 05 d9 4b 00 00 	movzbl 0x4bd9(%rip),%eax        # 13044 <g_112>
    e46b:	0f b6 c0             	movzbl %al,%eax
    e46e:	8b 55 fc             	mov    -0x4(%rbp),%edx
    e471:	48 8d 35 ff 1a 00 00 	lea    0x1aff(%rip),%rsi        # ff77 <g_2043+0xeb7>
    e478:	48 89 c7             	mov    %rax,%rdi
    e47b:	e8 73 72 ff ff       	callq  56f3 <transparent_crc>
    e480:	8b 05 c2 4b 00 00    	mov    0x4bc2(%rip),%eax        # 13048 <g_115>
    e486:	89 c1                	mov    %eax,%ecx
    e488:	8b 45 fc             	mov    -0x4(%rbp),%eax
    e48b:	89 c2                	mov    %eax,%edx
    e48d:	48 8d 35 e9 1a 00 00 	lea    0x1ae9(%rip),%rsi        # ff7d <g_2043+0xebd>
    e494:	48 89 cf             	mov    %rcx,%rdi
    e497:	e8 57 72 ff ff       	callq  56f3 <transparent_crc>
    e49c:	c7 45 f4 00 00 00 00 	movl   $0x0,-0xc(%rbp)
    e4a3:	eb 46                	jmp    e4eb <main+0x232>
    e4a5:	8b 45 f4             	mov    -0xc(%rbp),%eax
    e4a8:	48 98                	cltq   
    e4aa:	48 8d 15 9b 4b 00 00 	lea    0x4b9b(%rip),%rdx        # 1304c <g_118>
    e4b1:	0f b6 04 10          	movzbl (%rax,%rdx,1),%eax
    e4b5:	48 0f be c0          	movsbq %al,%rax
    e4b9:	8b 55 fc             	mov    -0x4(%rbp),%edx
    e4bc:	48 8d 35 c0 1a 00 00 	lea    0x1ac0(%rip),%rsi        # ff83 <g_2043+0xec3>
    e4c3:	48 89 c7             	mov    %rax,%rdi
    e4c6:	e8 28 72 ff ff       	callq  56f3 <transparent_crc>
    e4cb:	83 7d fc 00          	cmpl   $0x0,-0x4(%rbp)
    e4cf:	74 16                	je     e4e7 <main+0x22e>
    e4d1:	8b 45 f4             	mov    -0xc(%rbp),%eax
    e4d4:	89 c6                	mov    %eax,%esi
    e4d6:	48 8d 3d 7b 1a 00 00 	lea    0x1a7b(%rip),%rdi        # ff58 <g_2043+0xe98>
    e4dd:	b8 00 00 00 00       	mov    $0x0,%eax
    e4e2:	e8 99 5b ff ff       	callq  4080 <printf@plt>
    e4e7:	83 45 f4 01          	addl   $0x1,-0xc(%rbp)
    e4eb:	83 7d f4 06          	cmpl   $0x6,-0xc(%rbp)
    e4ef:	7e b4                	jle    e4a5 <main+0x1ec>
    e4f1:	8b 05 5d 4b 00 00    	mov    0x4b5d(%rip),%eax        # 13054 <g_120>
    e4f7:	48 98                	cltq   
    e4f9:	8b 55 fc             	mov    -0x4(%rbp),%edx
    e4fc:	48 8d 35 89 1a 00 00 	lea    0x1a89(%rip),%rsi        # ff8c <g_2043+0xecc>
    e503:	48 89 c7             	mov    %rax,%rdi
    e506:	e8 e8 71 ff ff       	callq  56f3 <transparent_crc>
    e50b:	c7 45 f4 00 00 00 00 	movl   $0x0,-0xc(%rbp)
    e512:	eb 49                	jmp    e55d <main+0x2a4>
    e514:	8b 45 f4             	mov    -0xc(%rbp),%eax
    e517:	48 98                	cltq   
    e519:	48 8d 14 00          	lea    (%rax,%rax,1),%rdx
    e51d:	48 8d 05 34 4b 00 00 	lea    0x4b34(%rip),%rax        # 13058 <g_149>
    e524:	0f b7 04 02          	movzwl (%rdx,%rax,1),%eax
    e528:	0f b7 c0             	movzwl %ax,%eax
    e52b:	8b 55 fc             	mov    -0x4(%rbp),%edx
    e52e:	48 8d 35 5d 1a 00 00 	lea    0x1a5d(%rip),%rsi        # ff92 <g_2043+0xed2>
    e535:	48 89 c7             	mov    %rax,%rdi
    e538:	e8 b6 71 ff ff       	callq  56f3 <transparent_crc>
    e53d:	83 7d fc 00          	cmpl   $0x0,-0x4(%rbp)
    e541:	74 16                	je     e559 <main+0x2a0>
    e543:	8b 45 f4             	mov    -0xc(%rbp),%eax
    e546:	89 c6                	mov    %eax,%esi
    e548:	48 8d 3d 09 1a 00 00 	lea    0x1a09(%rip),%rdi        # ff58 <g_2043+0xe98>
    e54f:	b8 00 00 00 00       	mov    $0x0,%eax
    e554:	e8 27 5b ff ff       	callq  4080 <printf@plt>
    e559:	83 45 f4 01          	addl   $0x1,-0xc(%rbp)
    e55d:	83 7d f4 05          	cmpl   $0x5,-0xc(%rbp)
    e561:	7e b1                	jle    e514 <main+0x25b>
    e563:	48 8b 05 fe 4a 00 00 	mov    0x4afe(%rip),%rax        # 13068 <g_158>
    e56a:	48 89 c1             	mov    %rax,%rcx
    e56d:	8b 45 fc             	mov    -0x4(%rbp),%eax
    e570:	89 c2                	mov    %eax,%edx
    e572:	48 8d 35 22 1a 00 00 	lea    0x1a22(%rip),%rsi        # ff9b <g_2043+0xedb>
    e579:	48 89 cf             	mov    %rcx,%rdi
    e57c:	e8 72 71 ff ff       	callq  56f3 <transparent_crc>
    e581:	c7 45 f4 00 00 00 00 	movl   $0x0,-0xc(%rbp)
    e588:	eb 4a                	jmp    e5d4 <main+0x31b>
    e58a:	8b 45 f4             	mov    -0xc(%rbp),%eax
    e58d:	48 98                	cltq   
    e58f:	48 8d 14 c5 00 00 00 	lea    0x0(,%rax,8),%rdx
    e596:	00 
    e597:	48 8d 05 e2 4a 00 00 	lea    0x4ae2(%rip),%rax        # 13080 <g_180>
    e59e:	48 8b 04 02          	mov    (%rdx,%rax,1),%rax
    e5a2:	8b 55 fc             	mov    -0x4(%rbp),%edx
    e5a5:	48 8d 35 f5 19 00 00 	lea    0x19f5(%rip),%rsi        # ffa1 <g_2043+0xee1>
    e5ac:	48 89 c7             	mov    %rax,%rdi
    e5af:	e8 3f 71 ff ff       	callq  56f3 <transparent_crc>
    e5b4:	83 7d fc 00          	cmpl   $0x0,-0x4(%rbp)
    e5b8:	74 16                	je     e5d0 <main+0x317>
    e5ba:	8b 45 f4             	mov    -0xc(%rbp),%eax
    e5bd:	89 c6                	mov    %eax,%esi
    e5bf:	48 8d 3d 92 19 00 00 	lea    0x1992(%rip),%rdi        # ff58 <g_2043+0xe98>
    e5c6:	b8 00 00 00 00       	mov    $0x0,%eax
    e5cb:	e8 b0 5a ff ff       	callq  4080 <printf@plt>
    e5d0:	83 45 f4 01          	addl   $0x1,-0xc(%rbp)
    e5d4:	83 7d f4 05          	cmpl   $0x5,-0xc(%rbp)
    e5d8:	7e b0                	jle    e58a <main+0x2d1>
    e5da:	0f b6 05 cf 4a 00 00 	movzbl 0x4acf(%rip),%eax        # 130b0 <g_181>
    e5e1:	48 0f be c0          	movsbq %al,%rax
    e5e5:	8b 55 fc             	mov    -0x4(%rbp),%edx
    e5e8:	48 8d 35 bb 19 00 00 	lea    0x19bb(%rip),%rsi        # ffaa <g_2043+0xeea>
    e5ef:	48 89 c7             	mov    %rax,%rdi
    e5f2:	e8 fc 70 ff ff       	callq  56f3 <transparent_crc>
    e5f7:	8b 05 b7 4a 00 00    	mov    0x4ab7(%rip),%eax        # 130b4 <g_190>
    e5fd:	89 c1                	mov    %eax,%ecx
    e5ff:	8b 45 fc             	mov    -0x4(%rbp),%eax
    e602:	89 c2                	mov    %eax,%edx
    e604:	48 8d 35 a5 19 00 00 	lea    0x19a5(%rip),%rsi        # ffb0 <g_2043+0xef0>
    e60b:	48 89 cf             	mov    %rcx,%rdi
    e60e:	e8 e0 70 ff ff       	callq  56f3 <transparent_crc>
    e613:	8b 05 9f 4a 00 00    	mov    0x4a9f(%rip),%eax        # 130b8 <g_206>
    e619:	48 98                	cltq   
    e61b:	8b 55 fc             	mov    -0x4(%rbp),%edx
    e61e:	48 8d 35 91 19 00 00 	lea    0x1991(%rip),%rsi        # ffb6 <g_2043+0xef6>
    e625:	48 89 c7             	mov    %rax,%rdi
    e628:	e8 c6 70 ff ff       	callq  56f3 <transparent_crc>
    e62d:	48 8b 05 8c 4a 00 00 	mov    0x4a8c(%rip),%rax        # 130c0 <g_215>
    e634:	8b 55 fc             	mov    -0x4(%rbp),%edx
    e637:	48 8d 35 7e 19 00 00 	lea    0x197e(%rip),%rsi        # ffbc <g_2043+0xefc>
    e63e:	48 89 c7             	mov    %rax,%rdi
    e641:	e8 ad 70 ff ff       	callq  56f3 <transparent_crc>
    e646:	0f b7 05 7b 4a 00 00 	movzwl 0x4a7b(%rip),%eax        # 130c8 <g_266>
    e64d:	48 0f bf c0          	movswq %ax,%rax
    e651:	8b 55 fc             	mov    -0x4(%rbp),%edx
    e654:	48 8d 35 67 19 00 00 	lea    0x1967(%rip),%rsi        # ffc2 <g_2043+0xf02>
    e65b:	48 89 c7             	mov    %rax,%rdi
    e65e:	e8 90 70 ff ff       	callq  56f3 <transparent_crc>
    e663:	8b 05 63 4a 00 00    	mov    0x4a63(%rip),%eax        # 130cc <g_268>
    e669:	89 c1                	mov    %eax,%ecx
    e66b:	8b 45 fc             	mov    -0x4(%rbp),%eax
    e66e:	89 c2                	mov    %eax,%edx
    e670:	48 8d 35 51 19 00 00 	lea    0x1951(%rip),%rsi        # ffc8 <g_2043+0xf08>
    e677:	48 89 cf             	mov    %rcx,%rdi
    e67a:	e8 74 70 ff ff       	callq  56f3 <transparent_crc>
    e67f:	8b 05 4b 4a 00 00    	mov    0x4a4b(%rip),%eax        # 130d0 <g_271>
    e685:	48 98                	cltq   
    e687:	8b 55 fc             	mov    -0x4(%rbp),%edx
    e68a:	48 8d 35 3d 19 00 00 	lea    0x193d(%rip),%rsi        # ffce <g_2043+0xf0e>
    e691:	48 89 c7             	mov    %rax,%rdi
    e694:	e8 5a 70 ff ff       	callq  56f3 <transparent_crc>
    e699:	c7 45 f4 00 00 00 00 	movl   $0x0,-0xc(%rbp)
    e6a0:	eb 49                	jmp    e6eb <main+0x432>
    e6a2:	8b 45 f4             	mov    -0xc(%rbp),%eax
    e6a5:	48 98                	cltq   
    e6a7:	48 8d 14 00          	lea    (%rax,%rax,1),%rdx
    e6ab:	48 8d 05 a6 09 00 00 	lea    0x9a6(%rip),%rax        # f058 <g_354>
    e6b2:	0f b7 04 02          	movzwl (%rdx,%rax,1),%eax
    e6b6:	0f b7 c0             	movzwl %ax,%eax
    e6b9:	8b 55 fc             	mov    -0x4(%rbp),%edx
    e6bc:	48 8d 35 11 19 00 00 	lea    0x1911(%rip),%rsi        # ffd4 <g_2043+0xf14>
    e6c3:	48 89 c7             	mov    %rax,%rdi
    e6c6:	e8 28 70 ff ff       	callq  56f3 <transparent_crc>
    e6cb:	83 7d fc 00          	cmpl   $0x0,-0x4(%rbp)
    e6cf:	74 16                	je     e6e7 <main+0x42e>
    e6d1:	8b 45 f4             	mov    -0xc(%rbp),%eax
    e6d4:	89 c6                	mov    %eax,%esi
    e6d6:	48 8d 3d 7b 18 00 00 	lea    0x187b(%rip),%rdi        # ff58 <g_2043+0xe98>
    e6dd:	b8 00 00 00 00       	mov    $0x0,%eax
    e6e2:	e8 99 59 ff ff       	callq  4080 <printf@plt>
    e6e7:	83 45 f4 01          	addl   $0x1,-0xc(%rbp)
    e6eb:	83 7d f4 06          	cmpl   $0x6,-0xc(%rbp)
    e6ef:	7e b1                	jle    e6a2 <main+0x3e9>
    e6f1:	8b 05 ad 61 00 00    	mov    0x61ad(%rip),%eax        # 148a4 <g_371>
    e6f7:	89 c1                	mov    %eax,%ecx
    e6f9:	8b 45 fc             	mov    -0x4(%rbp),%eax
    e6fc:	89 c2                	mov    %eax,%edx
    e6fe:	48 8d 35 d8 18 00 00 	lea    0x18d8(%rip),%rsi        # ffdd <g_2043+0xf1d>
    e705:	48 89 cf             	mov    %rcx,%rdi
    e708:	e8 e6 6f ff ff       	callq  56f3 <transparent_crc>
    e70d:	c7 45 f4 00 00 00 00 	movl   $0x0,-0xc(%rbp)
    e714:	eb 72                	jmp    e788 <main+0x4cf>
    e716:	c7 45 f8 00 00 00 00 	movl   $0x0,-0x8(%rbp)
    e71d:	eb 5f                	jmp    e77e <main+0x4c5>
    e71f:	8b 45 f8             	mov    -0x8(%rbp),%eax
    e722:	48 63 c8             	movslq %eax,%rcx
    e725:	8b 45 f4             	mov    -0xc(%rbp),%eax
    e728:	48 63 d0             	movslq %eax,%rdx
    e72b:	48 89 d0             	mov    %rdx,%rax
    e72e:	48 01 c0             	add    %rax,%rax
    e731:	48 01 d0             	add    %rdx,%rax
    e734:	48 01 c8             	add    %rcx,%rax
    e737:	48 8d 14 00          	lea    (%rax,%rax,1),%rdx
    e73b:	48 8d 05 3e 09 00 00 	lea    0x93e(%rip),%rax        # f080 <g_423>
    e742:	0f b7 04 02          	movzwl (%rdx,%rax,1),%eax
    e746:	0f b7 c0             	movzwl %ax,%eax
    e749:	8b 55 fc             	mov    -0x4(%rbp),%edx
    e74c:	48 8d 35 90 18 00 00 	lea    0x1890(%rip),%rsi        # ffe3 <g_2043+0xf23>
    e753:	48 89 c7             	mov    %rax,%rdi
    e756:	e8 98 6f ff ff       	callq  56f3 <transparent_crc>
    e75b:	83 7d fc 00          	cmpl   $0x0,-0x4(%rbp)
    e75f:	74 19                	je     e77a <main+0x4c1>
    e761:	8b 55 f8             	mov    -0x8(%rbp),%edx
    e764:	8b 45 f4             	mov    -0xc(%rbp),%eax
    e767:	89 c6                	mov    %eax,%esi
    e769:	48 8d 3d 7f 18 00 00 	lea    0x187f(%rip),%rdi        # ffef <g_2043+0xf2f>
    e770:	b8 00 00 00 00       	mov    $0x0,%eax
    e775:	e8 06 59 ff ff       	callq  4080 <printf@plt>
    e77a:	83 45 f8 01          	addl   $0x1,-0x8(%rbp)
    e77e:	83 7d f8 02          	cmpl   $0x2,-0x8(%rbp)
    e782:	7e 9b                	jle    e71f <main+0x466>
    e784:	83 45 f4 01          	addl   $0x1,-0xc(%rbp)
    e788:	83 7d f4 08          	cmpl   $0x8,-0xc(%rbp)
    e78c:	7e 88                	jle    e716 <main+0x45d>
    e78e:	0f b7 05 3f 49 00 00 	movzwl 0x493f(%rip),%eax        # 130d4 <g_436>
    e795:	0f b7 c0             	movzwl %ax,%eax
    e798:	8b 55 fc             	mov    -0x4(%rbp),%edx
    e79b:	48 8d 35 5f 18 00 00 	lea    0x185f(%rip),%rsi        # 10001 <g_2043+0xf41>
    e7a2:	48 89 c7             	mov    %rax,%rdi
    e7a5:	e8 49 6f ff ff       	callq  56f3 <transparent_crc>
    e7aa:	48 b8 26 8b 9c 15 c7 	movabs $0xa2feb2c7159c8b26,%rax
    e7b1:	b2 fe a2 
    e7b4:	48 89 c1             	mov    %rax,%rcx
    e7b7:	8b 45 fc             	mov    -0x4(%rbp),%eax
    e7ba:	89 c2                	mov    %eax,%edx
    e7bc:	48 8d 35 44 18 00 00 	lea    0x1844(%rip),%rsi        # 10007 <g_2043+0xf47>
    e7c3:	48 89 cf             	mov    %rcx,%rdi
    e7c6:	e8 28 6f ff ff       	callq  56f3 <transparent_crc>
    e7cb:	0f b7 05 04 49 00 00 	movzwl 0x4904(%rip),%eax        # 130d6 <g_716>
    e7d2:	0f b7 c0             	movzwl %ax,%eax
    e7d5:	8b 55 fc             	mov    -0x4(%rbp),%edx
    e7d8:	48 8d 35 2e 18 00 00 	lea    0x182e(%rip),%rsi        # 1000d <g_2043+0xf4d>
    e7df:	48 89 c7             	mov    %rax,%rdi
    e7e2:	e8 0c 6f ff ff       	callq  56f3 <transparent_crc>
    e7e7:	0f b6 05 ea 48 00 00 	movzbl 0x48ea(%rip),%eax        # 130d8 <g_757>
    e7ee:	48 0f be c0          	movsbq %al,%rax
    e7f2:	8b 55 fc             	mov    -0x4(%rbp),%edx
    e7f5:	48 8d 35 17 18 00 00 	lea    0x1817(%rip),%rsi        # 10013 <g_2043+0xf53>
    e7fc:	48 89 c7             	mov    %rax,%rdi
    e7ff:	e8 ef 6e ff ff       	callq  56f3 <transparent_crc>
    e804:	c7 45 f4 00 00 00 00 	movl   $0x0,-0xc(%rbp)
    e80b:	eb 77                	jmp    e884 <main+0x5cb>
    e80d:	c7 45 f8 00 00 00 00 	movl   $0x0,-0x8(%rbp)
    e814:	eb 64                	jmp    e87a <main+0x5c1>
    e816:	8b 45 f8             	mov    -0x8(%rbp),%eax
    e819:	48 63 c8             	movslq %eax,%rcx
    e81c:	8b 45 f4             	mov    -0xc(%rbp),%eax
    e81f:	48 63 d0             	movslq %eax,%rdx
    e822:	48 89 d0             	mov    %rdx,%rax
    e825:	48 c1 e0 03          	shl    $0x3,%rax
    e829:	48 01 d0             	add    %rdx,%rax
    e82c:	48 01 c8             	add    %rcx,%rax
    e82f:	48 8d 14 85 00 00 00 	lea    0x0(,%rax,4),%rdx
    e836:	00 
    e837:	48 8d 05 a2 48 00 00 	lea    0x48a2(%rip),%rax        # 130e0 <g_760>
    e83e:	8b 04 02             	mov    (%rdx,%rax,1),%eax
    e841:	89 c1                	mov    %eax,%ecx
    e843:	8b 45 fc             	mov    -0x4(%rbp),%eax
    e846:	89 c2                	mov    %eax,%edx
    e848:	48 8d 35 ca 17 00 00 	lea    0x17ca(%rip),%rsi        # 10019 <g_2043+0xf59>
    e84f:	48 89 cf             	mov    %rcx,%rdi
    e852:	e8 9c 6e ff ff       	callq  56f3 <transparent_crc>
    e857:	83 7d fc 00          	cmpl   $0x0,-0x4(%rbp)
    e85b:	74 19                	je     e876 <main+0x5bd>
    e85d:	8b 55 f8             	mov    -0x8(%rbp),%edx
    e860:	8b 45 f4             	mov    -0xc(%rbp),%eax
    e863:	89 c6                	mov    %eax,%esi
    e865:	48 8d 3d 83 17 00 00 	lea    0x1783(%rip),%rdi        # ffef <g_2043+0xf2f>
    e86c:	b8 00 00 00 00       	mov    $0x0,%eax
    e871:	e8 0a 58 ff ff       	callq  4080 <printf@plt>
    e876:	83 45 f8 01          	addl   $0x1,-0x8(%rbp)
    e87a:	83 7d f8 08          	cmpl   $0x8,-0x8(%rbp)
    e87e:	7e 96                	jle    e816 <main+0x55d>
    e880:	83 45 f4 01          	addl   $0x1,-0xc(%rbp)
    e884:	83 7d f4 05          	cmpl   $0x5,-0xc(%rbp)
    e888:	7e 83                	jle    e80d <main+0x554>
    e88a:	0f b7 05 27 49 00 00 	movzwl 0x4927(%rip),%eax        # 131b8 <g_805>
    e891:	48 0f bf c0          	movswq %ax,%rax
    e895:	8b 55 fc             	mov    -0x4(%rbp),%edx
    e898:	48 8d 35 86 17 00 00 	lea    0x1786(%rip),%rsi        # 10025 <g_2043+0xf65>
    e89f:	48 89 c7             	mov    %rax,%rdi
    e8a2:	e8 4c 6e ff ff       	callq  56f3 <transparent_crc>
    e8a7:	48 8b 05 12 49 00 00 	mov    0x4912(%rip),%rax        # 131c0 <g_888>
    e8ae:	48 89 c1             	mov    %rax,%rcx
    e8b1:	8b 45 fc             	mov    -0x4(%rbp),%eax
    e8b4:	89 c2                	mov    %eax,%edx
    e8b6:	48 8d 35 6e 17 00 00 	lea    0x176e(%rip),%rsi        # 1002b <g_2043+0xf6b>
    e8bd:	48 89 cf             	mov    %rcx,%rdi
    e8c0:	e8 2e 6e ff ff       	callq  56f3 <transparent_crc>
    e8c5:	0f b6 05 ec 5f 00 00 	movzbl 0x5fec(%rip),%eax        # 148b8 <g_896>
    e8cc:	0f b6 c0             	movzbl %al,%eax
    e8cf:	8b 55 fc             	mov    -0x4(%rbp),%edx
    e8d2:	48 8d 35 58 17 00 00 	lea    0x1758(%rip),%rsi        # 10031 <g_2043+0xf71>
    e8d9:	48 89 c7             	mov    %rax,%rdi
    e8dc:	e8 12 6e ff ff       	callq  56f3 <transparent_crc>
    e8e1:	8b 05 e1 48 00 00    	mov    0x48e1(%rip),%eax        # 131c8 <g_918>
    e8e7:	48 98                	cltq   
    e8e9:	8b 55 fc             	mov    -0x4(%rbp),%edx
    e8ec:	48 8d 35 44 17 00 00 	lea    0x1744(%rip),%rsi        # 10037 <g_2043+0xf77>
    e8f3:	48 89 c7             	mov    %rax,%rdi
    e8f6:	e8 f8 6d ff ff       	callq  56f3 <transparent_crc>
    e8fb:	0f b7 05 ca 48 00 00 	movzwl 0x48ca(%rip),%eax        # 131cc <g_919>
    e902:	48 0f bf c0          	movswq %ax,%rax
    e906:	8b 55 fc             	mov    -0x4(%rbp),%edx
    e909:	48 8d 35 2d 17 00 00 	lea    0x172d(%rip),%rsi        # 1003d <g_2043+0xf7d>
    e910:	48 89 c7             	mov    %rax,%rdi
    e913:	e8 db 6d ff ff       	callq  56f3 <transparent_crc>
    e918:	8b 05 b2 48 00 00    	mov    0x48b2(%rip),%eax        # 131d0 <g_940>
    e91e:	48 98                	cltq   
    e920:	8b 55 fc             	mov    -0x4(%rbp),%edx
    e923:	48 8d 35 19 17 00 00 	lea    0x1719(%rip),%rsi        # 10043 <g_2043+0xf83>
    e92a:	48 89 c7             	mov    %rax,%rdi
    e92d:	e8 c1 6d ff ff       	callq  56f3 <transparent_crc>
    e932:	0f b6 05 9b 48 00 00 	movzbl 0x489b(%rip),%eax        # 131d4 <g_1050>
    e939:	48 0f be c0          	movsbq %al,%rax
    e93d:	8b 55 fc             	mov    -0x4(%rbp),%edx
    e940:	48 8d 35 02 17 00 00 	lea    0x1702(%rip),%rsi        # 10049 <g_2043+0xf89>
    e947:	48 89 c7             	mov    %rax,%rdi
    e94a:	e8 a4 6d ff ff       	callq  56f3 <transparent_crc>
    e94f:	48 8b 05 82 48 00 00 	mov    0x4882(%rip),%rax        # 131d8 <g_1215>
    e956:	8b 55 fc             	mov    -0x4(%rbp),%edx
    e959:	48 8d 35 f0 16 00 00 	lea    0x16f0(%rip),%rsi        # 10050 <g_2043+0xf90>
    e960:	48 89 c7             	mov    %rax,%rdi
    e963:	e8 8b 6d ff ff       	callq  56f3 <transparent_crc>
    e968:	0f b7 05 71 5f 00 00 	movzwl 0x5f71(%rip),%eax        # 148e0 <g_1391>
    e96f:	48 0f bf c0          	movswq %ax,%rax
    e973:	8b 55 fc             	mov    -0x4(%rbp),%edx
    e976:	48 8d 35 da 16 00 00 	lea    0x16da(%rip),%rsi        # 10057 <g_2043+0xf97>
    e97d:	48 89 c7             	mov    %rax,%rdi
    e980:	e8 6e 6d ff ff       	callq  56f3 <transparent_crc>
    e985:	c7 45 f4 00 00 00 00 	movl   $0x0,-0xc(%rbp)
    e98c:	eb 73                	jmp    ea01 <main+0x748>
    e98e:	c7 45 f8 00 00 00 00 	movl   $0x0,-0x8(%rbp)
    e995:	eb 60                	jmp    e9f7 <main+0x73e>
    e997:	8b 45 f8             	mov    -0x8(%rbp),%eax
    e99a:	48 63 c8             	movslq %eax,%rcx
    e99d:	8b 45 f4             	mov    -0xc(%rbp),%eax
    e9a0:	48 63 d0             	movslq %eax,%rdx
    e9a3:	48 89 d0             	mov    %rdx,%rax
    e9a6:	48 c1 e0 03          	shl    $0x3,%rax
    e9aa:	48 01 d0             	add    %rdx,%rax
    e9ad:	48 01 c8             	add    %rcx,%rax
    e9b0:	48 8d 14 00          	lea    (%rax,%rax,1),%rdx
    e9b4:	48 8d 05 25 48 00 00 	lea    0x4825(%rip),%rax        # 131e0 <g_1561>
    e9bb:	0f b7 04 02          	movzwl (%rdx,%rax,1),%eax
    e9bf:	0f b7 c0             	movzwl %ax,%eax
    e9c2:	8b 55 fc             	mov    -0x4(%rbp),%edx
    e9c5:	48 8d 35 92 16 00 00 	lea    0x1692(%rip),%rsi        # 1005e <g_2043+0xf9e>
    e9cc:	48 89 c7             	mov    %rax,%rdi
    e9cf:	e8 1f 6d ff ff       	callq  56f3 <transparent_crc>
    e9d4:	83 7d fc 00          	cmpl   $0x0,-0x4(%rbp)
    e9d8:	74 19                	je     e9f3 <main+0x73a>
    e9da:	8b 55 f8             	mov    -0x8(%rbp),%edx
    e9dd:	8b 45 f4             	mov    -0xc(%rbp),%eax
    e9e0:	89 c6                	mov    %eax,%esi
    e9e2:	48 8d 3d 06 16 00 00 	lea    0x1606(%rip),%rdi        # ffef <g_2043+0xf2f>
    e9e9:	b8 00 00 00 00       	mov    $0x0,%eax
    e9ee:	e8 8d 56 ff ff       	callq  4080 <printf@plt>
    e9f3:	83 45 f8 01          	addl   $0x1,-0x8(%rbp)
    e9f7:	83 7d f8 08          	cmpl   $0x8,-0x8(%rbp)
    e9fb:	7e 9a                	jle    e997 <main+0x6de>
    e9fd:	83 45 f4 01          	addl   $0x1,-0xc(%rbp)
    ea01:	83 7d f4 09          	cmpl   $0x9,-0xc(%rbp)
    ea05:	7e 87                	jle    e98e <main+0x6d5>
    ea07:	48 8b 05 8a 48 00 00 	mov    0x488a(%rip),%rax        # 13298 <g_1749>
    ea0e:	8b 55 fc             	mov    -0x4(%rbp),%edx
    ea11:	48 8d 35 53 16 00 00 	lea    0x1653(%rip),%rsi        # 1006b <g_2043+0xfab>
    ea18:	48 89 c7             	mov    %rax,%rdi
    ea1b:	e8 d3 6c ff ff       	callq  56f3 <transparent_crc>
    ea20:	0f b6 05 79 48 00 00 	movzbl 0x4879(%rip),%eax        # 132a0 <g_1887>
    ea27:	48 0f be c0          	movsbq %al,%rax
    ea2b:	8b 55 fc             	mov    -0x4(%rbp),%edx
    ea2e:	48 8d 35 3d 16 00 00 	lea    0x163d(%rip),%rsi        # 10072 <g_2043+0xfb2>
    ea35:	48 89 c7             	mov    %rax,%rdi
    ea38:	e8 b6 6c ff ff       	callq  56f3 <transparent_crc>
    ea3d:	b8 50 d9 51 f2       	mov    $0xf251d950,%eax
    ea42:	89 c1                	mov    %eax,%ecx
    ea44:	8b 45 fc             	mov    -0x4(%rbp),%eax
    ea47:	89 c2                	mov    %eax,%edx
    ea49:	48 8d 35 29 16 00 00 	lea    0x1629(%rip),%rsi        # 10079 <g_2043+0xfb9>
    ea50:	48 89 cf             	mov    %rcx,%rdi
    ea53:	e8 9b 6c ff ff       	callq  56f3 <transparent_crc>
    ea58:	8b 05 c2 45 00 00    	mov    0x45c2(%rip),%eax        # 13020 <crc32_context>
    ea5e:	f7 d0                	not    %eax
    ea60:	89 c2                	mov    %eax,%edx
    ea62:	8b 45 fc             	mov    -0x4(%rbp),%eax
    ea65:	89 c6                	mov    %eax,%esi
    ea67:	89 d7                	mov    %edx,%edi
    ea69:	e8 26 57 ff ff       	callq  4194 <platform_main_end>
    ea6e:	b8 00 00 00 00       	mov    $0x0,%eax
    ea73:	c9                   	leaveq 
    ea74:	c3                   	retq   
    ea75:	66 2e 0f 1f 84 00 00 	nopw   %cs:0x0(%rax,%rax,1)
    ea7c:	00 00 00 
    ea7f:	90                   	nop

000000000000ea80 <__libc_csu_init>:
    ea80:	f3 0f 1e fa          	endbr64 
    ea84:	41 57                	push   %r15
    ea86:	4c 8d 3d 1b 43 00 00 	lea    0x431b(%rip),%r15        # 12da8 <__frame_dummy_init_array_entry>
    ea8d:	41 56                	push   %r14
    ea8f:	49 89 d6             	mov    %rdx,%r14
    ea92:	41 55                	push   %r13
    ea94:	49 89 f5             	mov    %rsi,%r13
    ea97:	41 54                	push   %r12
    ea99:	41 89 fc             	mov    %edi,%r12d
    ea9c:	55                   	push   %rbp
    ea9d:	48 8d 2d 0c 43 00 00 	lea    0x430c(%rip),%rbp        # 12db0 <__do_global_dtors_aux_fini_array_entry>
    eaa4:	53                   	push   %rbx
    eaa5:	4c 29 fd             	sub    %r15,%rbp
    eaa8:	48 83 ec 08          	sub    $0x8,%rsp
    eaac:	e8 4f 55 ff ff       	callq  4000 <_init>
    eab1:	48 c1 fd 03          	sar    $0x3,%rbp
    eab5:	74 1f                	je     ead6 <__libc_csu_init+0x56>
    eab7:	31 db                	xor    %ebx,%ebx
    eab9:	0f 1f 80 00 00 00 00 	nopl   0x0(%rax)
    eac0:	4c 89 f2             	mov    %r14,%rdx
    eac3:	4c 89 ee             	mov    %r13,%rsi
    eac6:	44 89 e7             	mov    %r12d,%edi
    eac9:	41 ff 14 df          	callq  *(%r15,%rbx,8)
    eacd:	48 83 c3 01          	add    $0x1,%rbx
    ead1:	48 39 dd             	cmp    %rbx,%rbp
    ead4:	75 ea                	jne    eac0 <__libc_csu_init+0x40>
    ead6:	48 83 c4 08          	add    $0x8,%rsp
    eada:	5b                   	pop    %rbx
    eadb:	5d                   	pop    %rbp
    eadc:	41 5c                	pop    %r12
    eade:	41 5d                	pop    %r13
    eae0:	41 5e                	pop    %r14
    eae2:	41 5f                	pop    %r15
    eae4:	c3                   	retq   
    eae5:	66 66 2e 0f 1f 84 00 	data16 nopw %cs:0x0(%rax,%rax,1)
    eaec:	00 00 00 00 

000000000000eaf0 <__libc_csu_fini>:
    eaf0:	f3 0f 1e fa          	endbr64 
    eaf4:	c3                   	retq   
