


Disassembly of section .text:

00000000000080a0 <_start>:
    80a0:	f3 0f 1e fa          	endbr64 
    80a4:	31 ed                	xor    %ebp,%ebp
    80a6:	49 89 d1             	mov    %rdx,%r9
    80a9:	5e                   	pop    %rsi
    80aa:	48 89 e2             	mov    %rsp,%rdx
    80ad:	48 83 e4 f0          	and    $0xfffffffffffffff0,%rsp
    80b1:	50                   	push   %rax
    80b2:	54                   	push   %rsp
    80b3:	4c 8d 05 96 c4 00 00 	lea    0xc496(%rip),%r8        # 14550 <__libc_csu_fini>
    80ba:	48 8d 0d 1f c4 00 00 	lea    0xc41f(%rip),%rcx        # 144e0 <__libc_csu_init>
    80c1:	48 8d 3d cf af 00 00 	lea    0xafcf(%rip),%rdi        # 13097 <main>
    80c8:	ff 15 12 0f 01 00    	callq  *0x10f12(%rip)        # 18fe0 <__libc_start_main@GLIBC_2.2.5>
    80ce:	f4                   	hlt    
    80cf:	90                   	nop

00000000000080d0 <deregister_tm_clones>:
    80d0:	48 8d 3d 59 4d 01 00 	lea    0x14d59(%rip),%rdi        # 1ce30 <__TMC_END__>
    80d7:	48 8d 05 52 4d 01 00 	lea    0x14d52(%rip),%rax        # 1ce30 <__TMC_END__>
    80de:	48 39 f8             	cmp    %rdi,%rax
    80e1:	74 15                	je     80f8 <deregister_tm_clones+0x28>
    80e3:	48 8b 05 ee 0e 01 00 	mov    0x10eee(%rip),%rax        # 18fd8 <_ITM_deregisterTMCloneTable>
    80ea:	48 85 c0             	test   %rax,%rax
    80ed:	74 09                	je     80f8 <deregister_tm_clones+0x28>
    80ef:	ff e0                	jmpq   *%rax
    80f1:	0f 1f 80 00 00 00 00 	nopl   0x0(%rax)
    80f8:	c3                   	retq   
    80f9:	0f 1f 80 00 00 00 00 	nopl   0x0(%rax)

0000000000008100 <register_tm_clones>:
    8100:	48 8d 3d 29 4d 01 00 	lea    0x14d29(%rip),%rdi        # 1ce30 <__TMC_END__>
    8107:	48 8d 35 22 4d 01 00 	lea    0x14d22(%rip),%rsi        # 1ce30 <__TMC_END__>
    810e:	48 29 fe             	sub    %rdi,%rsi
    8111:	48 89 f0             	mov    %rsi,%rax
    8114:	48 c1 ee 3f          	shr    $0x3f,%rsi
    8118:	48 c1 f8 03          	sar    $0x3,%rax
    811c:	48 01 c6             	add    %rax,%rsi
    811f:	48 d1 fe             	sar    %rsi
    8122:	74 14                	je     8138 <register_tm_clones+0x38>
    8124:	48 8b 05 c5 0e 01 00 	mov    0x10ec5(%rip),%rax        # 18ff0 <_ITM_registerTMCloneTable>
    812b:	48 85 c0             	test   %rax,%rax
    812e:	74 08                	je     8138 <register_tm_clones+0x38>
    8130:	ff e0                	jmpq   *%rax
    8132:	66 0f 1f 44 00 00    	nopw   0x0(%rax,%rax,1)
    8138:	c3                   	retq   
    8139:	0f 1f 80 00 00 00 00 	nopl   0x0(%rax)

0000000000008140 <__do_global_dtors_aux>:
    8140:	f3 0f 1e fa          	endbr64 
    8144:	80 3d f5 4c 01 00 00 	cmpb   $0x0,0x14cf5(%rip)        # 1ce40 <completed.8061>
    814b:	75 2b                	jne    8178 <__do_global_dtors_aux+0x38>
    814d:	55                   	push   %rbp
    814e:	48 83 3d a2 0e 01 00 	cmpq   $0x0,0x10ea2(%rip)        # 18ff8 <__cxa_finalize@GLIBC_2.2.5>
    8155:	00 
    8156:	48 89 e5             	mov    %rsp,%rbp
    8159:	74 0c                	je     8167 <__do_global_dtors_aux+0x27>
    815b:	48 8b 3d a6 0e 01 00 	mov    0x10ea6(%rip),%rdi        # 19008 <__dso_handle>
    8162:	e8 f9 fe ff ff       	callq  8060 <__cxa_finalize@plt>
    8167:	e8 64 ff ff ff       	callq  80d0 <deregister_tm_clones>
    816c:	c6 05 cd 4c 01 00 01 	movb   $0x1,0x14ccd(%rip)        # 1ce40 <completed.8061>
    8173:	5d                   	pop    %rbp
    8174:	c3                   	retq   
    8175:	0f 1f 00             	nopl   (%rax)
    8178:	c3                   	retq   
    8179:	0f 1f 80 00 00 00 00 	nopl   0x0(%rax)

0000000000008180 <frame_dummy>:
    8180:	f3 0f 1e fa          	endbr64 
    8184:	e9 77 ff ff ff       	jmpq   8100 <register_tm_clones>

0000000000008189 <platform_main_begin>:
    8189:	f3 0f 1e fa          	endbr64 
    818d:	55                   	push   %rbp
    818e:	48 89 e5             	mov    %rsp,%rbp
    8191:	90                   	nop
    8192:	5d                   	pop    %rbp
    8193:	c3                   	retq   

0000000000008194 <platform_main_end>:
    8194:	f3 0f 1e fa          	endbr64 
    8198:	55                   	push   %rbp
    8199:	48 89 e5             	mov    %rsp,%rbp
    819c:	48 83 ec 10          	sub    $0x10,%rsp
    81a0:	89 7d fc             	mov    %edi,-0x4(%rbp)
    81a3:	89 75 f8             	mov    %esi,-0x8(%rbp)
    81a6:	8b 45 fc             	mov    -0x4(%rbp),%eax
    81a9:	89 c6                	mov    %eax,%esi
    81ab:	48 8d 3d 6e ce 00 00 	lea    0xce6e(%rip),%rdi        # 15020 <_IO_stdin_used+0x20>
    81b2:	b8 00 00 00 00       	mov    $0x0,%eax
    81b7:	e8 c4 fe ff ff       	callq  8080 <printf@plt>
    81bc:	90                   	nop
    81bd:	c9                   	leaveq 
    81be:	c3                   	retq   

00000000000081bf <safe_unary_minus_func_int8_t_s>:
    81bf:	f3 0f 1e fa          	endbr64 
    81c3:	55                   	push   %rbp
    81c4:	48 89 e5             	mov    %rsp,%rbp
    81c7:	89 f8                	mov    %edi,%eax
    81c9:	88 45 fc             	mov    %al,-0x4(%rbp)
    81cc:	0f b6 45 fc          	movzbl -0x4(%rbp),%eax
    81d0:	f7 d8                	neg    %eax
    81d2:	5d                   	pop    %rbp
    81d3:	c3                   	retq   

00000000000081d4 <safe_add_func_int8_t_s_s>:
    81d4:	f3 0f 1e fa          	endbr64 
    81d8:	55                   	push   %rbp
    81d9:	48 89 e5             	mov    %rsp,%rbp
    81dc:	89 fa                	mov    %edi,%edx
    81de:	89 f0                	mov    %esi,%eax
    81e0:	88 55 fc             	mov    %dl,-0x4(%rbp)
    81e3:	88 45 f8             	mov    %al,-0x8(%rbp)
    81e6:	0f b6 55 fc          	movzbl -0x4(%rbp),%edx
    81ea:	0f b6 45 f8          	movzbl -0x8(%rbp),%eax
    81ee:	01 d0                	add    %edx,%eax
    81f0:	5d                   	pop    %rbp
    81f1:	c3                   	retq   

00000000000081f2 <safe_sub_func_int8_t_s_s>:
    81f2:	f3 0f 1e fa          	endbr64 
    81f6:	55                   	push   %rbp
    81f7:	48 89 e5             	mov    %rsp,%rbp
    81fa:	89 fa                	mov    %edi,%edx
    81fc:	89 f0                	mov    %esi,%eax
    81fe:	88 55 fc             	mov    %dl,-0x4(%rbp)
    8201:	88 45 f8             	mov    %al,-0x8(%rbp)
    8204:	0f b6 55 fc          	movzbl -0x4(%rbp),%edx
    8208:	0f b6 45 f8          	movzbl -0x8(%rbp),%eax
    820c:	29 c2                	sub    %eax,%edx
    820e:	89 d0                	mov    %edx,%eax
    8210:	5d                   	pop    %rbp
    8211:	c3                   	retq   

0000000000008212 <safe_mul_func_int8_t_s_s>:
    8212:	f3 0f 1e fa          	endbr64 
    8216:	55                   	push   %rbp
    8217:	48 89 e5             	mov    %rsp,%rbp
    821a:	89 fa                	mov    %edi,%edx
    821c:	89 f0                	mov    %esi,%eax
    821e:	88 55 fc             	mov    %dl,-0x4(%rbp)
    8221:	88 45 f8             	mov    %al,-0x8(%rbp)
    8224:	0f b6 45 fc          	movzbl -0x4(%rbp),%eax
    8228:	0f b6 55 f8          	movzbl -0x8(%rbp),%edx
    822c:	0f af c2             	imul   %edx,%eax
    822f:	5d                   	pop    %rbp
    8230:	c3                   	retq   

0000000000008231 <safe_mod_func_int8_t_s_s>:
    8231:	f3 0f 1e fa          	endbr64 
    8235:	55                   	push   %rbp
    8236:	48 89 e5             	mov    %rsp,%rbp
    8239:	89 fa                	mov    %edi,%edx
    823b:	89 f0                	mov    %esi,%eax
    823d:	88 55 fc             	mov    %dl,-0x4(%rbp)
    8240:	88 45 f8             	mov    %al,-0x8(%rbp)
    8243:	80 7d f8 00          	cmpb   $0x0,-0x8(%rbp)
    8247:	74 1b                	je     8264 <safe_mod_func_int8_t_s_s+0x33>
    8249:	80 7d fc 80          	cmpb   $0x80,-0x4(%rbp)
    824d:	75 06                	jne    8255 <safe_mod_func_int8_t_s_s+0x24>
    824f:	80 7d f8 ff          	cmpb   $0xff,-0x8(%rbp)
    8253:	74 0f                	je     8264 <safe_mod_func_int8_t_s_s+0x33>
    8255:	0f be 45 fc          	movsbl -0x4(%rbp),%eax
    8259:	0f be 4d f8          	movsbl -0x8(%rbp),%ecx
    825d:	99                   	cltd   
    825e:	f7 f9                	idiv   %ecx
    8260:	89 d0                	mov    %edx,%eax
    8262:	eb 04                	jmp    8268 <safe_mod_func_int8_t_s_s+0x37>
    8264:	0f b6 45 fc          	movzbl -0x4(%rbp),%eax
    8268:	5d                   	pop    %rbp
    8269:	c3                   	retq   

000000000000826a <safe_div_func_int8_t_s_s>:
    826a:	f3 0f 1e fa          	endbr64 
    826e:	55                   	push   %rbp
    826f:	48 89 e5             	mov    %rsp,%rbp
    8272:	89 fa                	mov    %edi,%edx
    8274:	89 f0                	mov    %esi,%eax
    8276:	88 55 fc             	mov    %dl,-0x4(%rbp)
    8279:	88 45 f8             	mov    %al,-0x8(%rbp)
    827c:	80 7d f8 00          	cmpb   $0x0,-0x8(%rbp)
    8280:	74 19                	je     829b <safe_div_func_int8_t_s_s+0x31>
    8282:	80 7d fc 80          	cmpb   $0x80,-0x4(%rbp)
    8286:	75 06                	jne    828e <safe_div_func_int8_t_s_s+0x24>
    8288:	80 7d f8 ff          	cmpb   $0xff,-0x8(%rbp)
    828c:	74 0d                	je     829b <safe_div_func_int8_t_s_s+0x31>
    828e:	0f be 45 fc          	movsbl -0x4(%rbp),%eax
    8292:	0f be 4d f8          	movsbl -0x8(%rbp),%ecx
    8296:	99                   	cltd   
    8297:	f7 f9                	idiv   %ecx
    8299:	eb 04                	jmp    829f <safe_div_func_int8_t_s_s+0x35>
    829b:	0f b6 45 fc          	movzbl -0x4(%rbp),%eax
    829f:	5d                   	pop    %rbp
    82a0:	c3                   	retq   

00000000000082a1 <safe_lshift_func_int8_t_s_s>:
    82a1:	f3 0f 1e fa          	endbr64 
    82a5:	55                   	push   %rbp
    82a6:	48 89 e5             	mov    %rsp,%rbp
    82a9:	89 f8                	mov    %edi,%eax
    82ab:	89 75 f8             	mov    %esi,-0x8(%rbp)
    82ae:	88 45 fc             	mov    %al,-0x4(%rbp)
    82b1:	80 7d fc 00          	cmpb   $0x0,-0x4(%rbp)
    82b5:	78 31                	js     82e8 <safe_lshift_func_int8_t_s_s+0x47>
    82b7:	83 7d f8 00          	cmpl   $0x0,-0x8(%rbp)
    82bb:	78 2b                	js     82e8 <safe_lshift_func_int8_t_s_s+0x47>
    82bd:	83 7d f8 1f          	cmpl   $0x1f,-0x8(%rbp)
    82c1:	7f 25                	jg     82e8 <safe_lshift_func_int8_t_s_s+0x47>
    82c3:	0f be 55 fc          	movsbl -0x4(%rbp),%edx
    82c7:	8b 45 f8             	mov    -0x8(%rbp),%eax
    82ca:	be 7f 00 00 00       	mov    $0x7f,%esi
    82cf:	89 c1                	mov    %eax,%ecx
    82d1:	d3 fe                	sar    %cl,%esi
    82d3:	89 f0                	mov    %esi,%eax
    82d5:	39 c2                	cmp    %eax,%edx
    82d7:	7f 0f                	jg     82e8 <safe_lshift_func_int8_t_s_s+0x47>
    82d9:	0f be 55 fc          	movsbl -0x4(%rbp),%edx
    82dd:	8b 45 f8             	mov    -0x8(%rbp),%eax
    82e0:	89 c1                	mov    %eax,%ecx
    82e2:	d3 e2                	shl    %cl,%edx
    82e4:	89 d0                	mov    %edx,%eax
    82e6:	eb 04                	jmp    82ec <safe_lshift_func_int8_t_s_s+0x4b>
    82e8:	0f b6 45 fc          	movzbl -0x4(%rbp),%eax
    82ec:	5d                   	pop    %rbp
    82ed:	c3                   	retq   

00000000000082ee <safe_lshift_func_int8_t_s_u>:
    82ee:	f3 0f 1e fa          	endbr64 
    82f2:	55                   	push   %rbp
    82f3:	48 89 e5             	mov    %rsp,%rbp
    82f6:	89 f8                	mov    %edi,%eax
    82f8:	89 75 f8             	mov    %esi,-0x8(%rbp)
    82fb:	88 45 fc             	mov    %al,-0x4(%rbp)
    82fe:	80 7d fc 00          	cmpb   $0x0,-0x4(%rbp)
    8302:	78 2b                	js     832f <safe_lshift_func_int8_t_s_u+0x41>
    8304:	83 7d f8 1f          	cmpl   $0x1f,-0x8(%rbp)
    8308:	77 25                	ja     832f <safe_lshift_func_int8_t_s_u+0x41>
    830a:	0f be 55 fc          	movsbl -0x4(%rbp),%edx
    830e:	8b 45 f8             	mov    -0x8(%rbp),%eax
    8311:	be 7f 00 00 00       	mov    $0x7f,%esi
    8316:	89 c1                	mov    %eax,%ecx
    8318:	d3 fe                	sar    %cl,%esi
    831a:	89 f0                	mov    %esi,%eax
    831c:	39 c2                	cmp    %eax,%edx
    831e:	7f 0f                	jg     832f <safe_lshift_func_int8_t_s_u+0x41>
    8320:	0f be 55 fc          	movsbl -0x4(%rbp),%edx
    8324:	8b 45 f8             	mov    -0x8(%rbp),%eax
    8327:	89 c1                	mov    %eax,%ecx
    8329:	d3 e2                	shl    %cl,%edx
    832b:	89 d0                	mov    %edx,%eax
    832d:	eb 04                	jmp    8333 <safe_lshift_func_int8_t_s_u+0x45>
    832f:	0f b6 45 fc          	movzbl -0x4(%rbp),%eax
    8333:	5d                   	pop    %rbp
    8334:	c3                   	retq   

0000000000008335 <safe_rshift_func_int8_t_s_s>:
    8335:	f3 0f 1e fa          	endbr64 
    8339:	55                   	push   %rbp
    833a:	48 89 e5             	mov    %rsp,%rbp
    833d:	89 f8                	mov    %edi,%eax
    833f:	89 75 f8             	mov    %esi,-0x8(%rbp)
    8342:	88 45 fc             	mov    %al,-0x4(%rbp)
    8345:	80 7d fc 00          	cmpb   $0x0,-0x4(%rbp)
    8349:	78 1b                	js     8366 <safe_rshift_func_int8_t_s_s+0x31>
    834b:	83 7d f8 00          	cmpl   $0x0,-0x8(%rbp)
    834f:	78 15                	js     8366 <safe_rshift_func_int8_t_s_s+0x31>
    8351:	83 7d f8 1f          	cmpl   $0x1f,-0x8(%rbp)
    8355:	7f 0f                	jg     8366 <safe_rshift_func_int8_t_s_s+0x31>
    8357:	0f be 55 fc          	movsbl -0x4(%rbp),%edx
    835b:	8b 45 f8             	mov    -0x8(%rbp),%eax
    835e:	89 c1                	mov    %eax,%ecx
    8360:	d3 fa                	sar    %cl,%edx
    8362:	89 d0                	mov    %edx,%eax
    8364:	eb 04                	jmp    836a <safe_rshift_func_int8_t_s_s+0x35>
    8366:	0f b6 45 fc          	movzbl -0x4(%rbp),%eax
    836a:	5d                   	pop    %rbp
    836b:	c3                   	retq   

000000000000836c <safe_rshift_func_int8_t_s_u>:
    836c:	f3 0f 1e fa          	endbr64 
    8370:	55                   	push   %rbp
    8371:	48 89 e5             	mov    %rsp,%rbp
    8374:	89 f8                	mov    %edi,%eax
    8376:	89 75 f8             	mov    %esi,-0x8(%rbp)
    8379:	88 45 fc             	mov    %al,-0x4(%rbp)
    837c:	80 7d fc 00          	cmpb   $0x0,-0x4(%rbp)
    8380:	78 15                	js     8397 <safe_rshift_func_int8_t_s_u+0x2b>
    8382:	83 7d f8 1f          	cmpl   $0x1f,-0x8(%rbp)
    8386:	77 0f                	ja     8397 <safe_rshift_func_int8_t_s_u+0x2b>
    8388:	0f be 55 fc          	movsbl -0x4(%rbp),%edx
    838c:	8b 45 f8             	mov    -0x8(%rbp),%eax
    838f:	89 c1                	mov    %eax,%ecx
    8391:	d3 fa                	sar    %cl,%edx
    8393:	89 d0                	mov    %edx,%eax
    8395:	eb 04                	jmp    839b <safe_rshift_func_int8_t_s_u+0x2f>
    8397:	0f b6 45 fc          	movzbl -0x4(%rbp),%eax
    839b:	5d                   	pop    %rbp
    839c:	c3                   	retq   

000000000000839d <safe_unary_minus_func_int16_t_s>:
    839d:	f3 0f 1e fa          	endbr64 
    83a1:	55                   	push   %rbp
    83a2:	48 89 e5             	mov    %rsp,%rbp
    83a5:	89 f8                	mov    %edi,%eax
    83a7:	66 89 45 fc          	mov    %ax,-0x4(%rbp)
    83ab:	0f b7 45 fc          	movzwl -0x4(%rbp),%eax
    83af:	f7 d8                	neg    %eax
    83b1:	5d                   	pop    %rbp
    83b2:	c3                   	retq   

00000000000083b3 <safe_add_func_int16_t_s_s>:
    83b3:	f3 0f 1e fa          	endbr64 
    83b7:	55                   	push   %rbp
    83b8:	48 89 e5             	mov    %rsp,%rbp
    83bb:	89 fa                	mov    %edi,%edx
    83bd:	89 f0                	mov    %esi,%eax
    83bf:	66 89 55 fc          	mov    %dx,-0x4(%rbp)
    83c3:	66 89 45 f8          	mov    %ax,-0x8(%rbp)
    83c7:	0f b7 55 fc          	movzwl -0x4(%rbp),%edx
    83cb:	0f b7 45 f8          	movzwl -0x8(%rbp),%eax
    83cf:	01 d0                	add    %edx,%eax
    83d1:	5d                   	pop    %rbp
    83d2:	c3                   	retq   

00000000000083d3 <safe_sub_func_int16_t_s_s>:
    83d3:	f3 0f 1e fa          	endbr64 
    83d7:	55                   	push   %rbp
    83d8:	48 89 e5             	mov    %rsp,%rbp
    83db:	89 fa                	mov    %edi,%edx
    83dd:	89 f0                	mov    %esi,%eax
    83df:	66 89 55 fc          	mov    %dx,-0x4(%rbp)
    83e3:	66 89 45 f8          	mov    %ax,-0x8(%rbp)
    83e7:	0f b7 55 fc          	movzwl -0x4(%rbp),%edx
    83eb:	0f b7 45 f8          	movzwl -0x8(%rbp),%eax
    83ef:	29 c2                	sub    %eax,%edx
    83f1:	89 d0                	mov    %edx,%eax
    83f3:	5d                   	pop    %rbp
    83f4:	c3                   	retq   

00000000000083f5 <safe_mul_func_int16_t_s_s>:
    83f5:	f3 0f 1e fa          	endbr64 
    83f9:	55                   	push   %rbp
    83fa:	48 89 e5             	mov    %rsp,%rbp
    83fd:	89 fa                	mov    %edi,%edx
    83ff:	89 f0                	mov    %esi,%eax
    8401:	66 89 55 fc          	mov    %dx,-0x4(%rbp)
    8405:	66 89 45 f8          	mov    %ax,-0x8(%rbp)
    8409:	0f b7 55 fc          	movzwl -0x4(%rbp),%edx
    840d:	0f b7 45 f8          	movzwl -0x8(%rbp),%eax
    8411:	0f af c2             	imul   %edx,%eax
    8414:	5d                   	pop    %rbp
    8415:	c3                   	retq   

0000000000008416 <safe_mod_func_int16_t_s_s>:
    8416:	f3 0f 1e fa          	endbr64 
    841a:	55                   	push   %rbp
    841b:	48 89 e5             	mov    %rsp,%rbp
    841e:	89 fa                	mov    %edi,%edx
    8420:	89 f0                	mov    %esi,%eax
    8422:	66 89 55 fc          	mov    %dx,-0x4(%rbp)
    8426:	66 89 45 f8          	mov    %ax,-0x8(%rbp)
    842a:	66 83 7d f8 00       	cmpw   $0x0,-0x8(%rbp)
    842f:	74 1e                	je     844f <safe_mod_func_int16_t_s_s+0x39>
    8431:	66 81 7d fc 00 80    	cmpw   $0x8000,-0x4(%rbp)
    8437:	75 07                	jne    8440 <safe_mod_func_int16_t_s_s+0x2a>
    8439:	66 83 7d f8 ff       	cmpw   $0xffff,-0x8(%rbp)
    843e:	74 0f                	je     844f <safe_mod_func_int16_t_s_s+0x39>
    8440:	0f bf 45 fc          	movswl -0x4(%rbp),%eax
    8444:	0f bf 4d f8          	movswl -0x8(%rbp),%ecx
    8448:	99                   	cltd   
    8449:	f7 f9                	idiv   %ecx
    844b:	89 d0                	mov    %edx,%eax
    844d:	eb 04                	jmp    8453 <safe_mod_func_int16_t_s_s+0x3d>
    844f:	0f b7 45 fc          	movzwl -0x4(%rbp),%eax
    8453:	5d                   	pop    %rbp
    8454:	c3                   	retq   

0000000000008455 <safe_div_func_int16_t_s_s>:
    8455:	f3 0f 1e fa          	endbr64 
    8459:	55                   	push   %rbp
    845a:	48 89 e5             	mov    %rsp,%rbp
    845d:	89 fa                	mov    %edi,%edx
    845f:	89 f0                	mov    %esi,%eax
    8461:	66 89 55 fc          	mov    %dx,-0x4(%rbp)
    8465:	66 89 45 f8          	mov    %ax,-0x8(%rbp)
    8469:	66 83 7d f8 00       	cmpw   $0x0,-0x8(%rbp)
    846e:	74 1c                	je     848c <safe_div_func_int16_t_s_s+0x37>
    8470:	66 81 7d fc 00 80    	cmpw   $0x8000,-0x4(%rbp)
    8476:	75 07                	jne    847f <safe_div_func_int16_t_s_s+0x2a>
    8478:	66 83 7d f8 ff       	cmpw   $0xffff,-0x8(%rbp)
    847d:	74 0d                	je     848c <safe_div_func_int16_t_s_s+0x37>
    847f:	0f bf 45 fc          	movswl -0x4(%rbp),%eax
    8483:	0f bf 4d f8          	movswl -0x8(%rbp),%ecx
    8487:	99                   	cltd   
    8488:	f7 f9                	idiv   %ecx
    848a:	eb 04                	jmp    8490 <safe_div_func_int16_t_s_s+0x3b>
    848c:	0f b7 45 fc          	movzwl -0x4(%rbp),%eax
    8490:	5d                   	pop    %rbp
    8491:	c3                   	retq   

0000000000008492 <safe_lshift_func_int16_t_s_s>:
    8492:	f3 0f 1e fa          	endbr64 
    8496:	55                   	push   %rbp
    8497:	48 89 e5             	mov    %rsp,%rbp
    849a:	89 f8                	mov    %edi,%eax
    849c:	89 75 f8             	mov    %esi,-0x8(%rbp)
    849f:	66 89 45 fc          	mov    %ax,-0x4(%rbp)
    84a3:	66 83 7d fc 00       	cmpw   $0x0,-0x4(%rbp)
    84a8:	78 31                	js     84db <safe_lshift_func_int16_t_s_s+0x49>
    84aa:	83 7d f8 00          	cmpl   $0x0,-0x8(%rbp)
    84ae:	78 2b                	js     84db <safe_lshift_func_int16_t_s_s+0x49>
    84b0:	83 7d f8 1f          	cmpl   $0x1f,-0x8(%rbp)
    84b4:	7f 25                	jg     84db <safe_lshift_func_int16_t_s_s+0x49>
    84b6:	0f bf 55 fc          	movswl -0x4(%rbp),%edx
    84ba:	8b 45 f8             	mov    -0x8(%rbp),%eax
    84bd:	be ff 7f 00 00       	mov    $0x7fff,%esi
    84c2:	89 c1                	mov    %eax,%ecx
    84c4:	d3 fe                	sar    %cl,%esi
    84c6:	89 f0                	mov    %esi,%eax
    84c8:	39 c2                	cmp    %eax,%edx
    84ca:	7f 0f                	jg     84db <safe_lshift_func_int16_t_s_s+0x49>
    84cc:	0f bf 55 fc          	movswl -0x4(%rbp),%edx
    84d0:	8b 45 f8             	mov    -0x8(%rbp),%eax
    84d3:	89 c1                	mov    %eax,%ecx
    84d5:	d3 e2                	shl    %cl,%edx
    84d7:	89 d0                	mov    %edx,%eax
    84d9:	eb 04                	jmp    84df <safe_lshift_func_int16_t_s_s+0x4d>
    84db:	0f b7 45 fc          	movzwl -0x4(%rbp),%eax
    84df:	5d                   	pop    %rbp
    84e0:	c3                   	retq   

00000000000084e1 <safe_lshift_func_int16_t_s_u>:
    84e1:	f3 0f 1e fa          	endbr64 
    84e5:	55                   	push   %rbp
    84e6:	48 89 e5             	mov    %rsp,%rbp
    84e9:	89 f8                	mov    %edi,%eax
    84eb:	89 75 f8             	mov    %esi,-0x8(%rbp)
    84ee:	66 89 45 fc          	mov    %ax,-0x4(%rbp)
    84f2:	66 83 7d fc 00       	cmpw   $0x0,-0x4(%rbp)
    84f7:	78 2b                	js     8524 <safe_lshift_func_int16_t_s_u+0x43>
    84f9:	83 7d f8 1f          	cmpl   $0x1f,-0x8(%rbp)
    84fd:	77 25                	ja     8524 <safe_lshift_func_int16_t_s_u+0x43>
    84ff:	0f bf 55 fc          	movswl -0x4(%rbp),%edx
    8503:	8b 45 f8             	mov    -0x8(%rbp),%eax
    8506:	be ff 7f 00 00       	mov    $0x7fff,%esi
    850b:	89 c1                	mov    %eax,%ecx
    850d:	d3 fe                	sar    %cl,%esi
    850f:	89 f0                	mov    %esi,%eax
    8511:	39 c2                	cmp    %eax,%edx
    8513:	7f 0f                	jg     8524 <safe_lshift_func_int16_t_s_u+0x43>
    8515:	0f bf 55 fc          	movswl -0x4(%rbp),%edx
    8519:	8b 45 f8             	mov    -0x8(%rbp),%eax
    851c:	89 c1                	mov    %eax,%ecx
    851e:	d3 e2                	shl    %cl,%edx
    8520:	89 d0                	mov    %edx,%eax
    8522:	eb 04                	jmp    8528 <safe_lshift_func_int16_t_s_u+0x47>
    8524:	0f b7 45 fc          	movzwl -0x4(%rbp),%eax
    8528:	5d                   	pop    %rbp
    8529:	c3                   	retq   

000000000000852a <safe_rshift_func_int16_t_s_s>:
    852a:	f3 0f 1e fa          	endbr64 
    852e:	55                   	push   %rbp
    852f:	48 89 e5             	mov    %rsp,%rbp
    8532:	89 f8                	mov    %edi,%eax
    8534:	89 75 f8             	mov    %esi,-0x8(%rbp)
    8537:	66 89 45 fc          	mov    %ax,-0x4(%rbp)
    853b:	66 83 7d fc 00       	cmpw   $0x0,-0x4(%rbp)
    8540:	78 1b                	js     855d <safe_rshift_func_int16_t_s_s+0x33>
    8542:	83 7d f8 00          	cmpl   $0x0,-0x8(%rbp)
    8546:	78 15                	js     855d <safe_rshift_func_int16_t_s_s+0x33>
    8548:	83 7d f8 1f          	cmpl   $0x1f,-0x8(%rbp)
    854c:	7f 0f                	jg     855d <safe_rshift_func_int16_t_s_s+0x33>
    854e:	0f bf 55 fc          	movswl -0x4(%rbp),%edx
    8552:	8b 45 f8             	mov    -0x8(%rbp),%eax
    8555:	89 c1                	mov    %eax,%ecx
    8557:	d3 fa                	sar    %cl,%edx
    8559:	89 d0                	mov    %edx,%eax
    855b:	eb 04                	jmp    8561 <safe_rshift_func_int16_t_s_s+0x37>
    855d:	0f b7 45 fc          	movzwl -0x4(%rbp),%eax
    8561:	5d                   	pop    %rbp
    8562:	c3                   	retq   

0000000000008563 <safe_rshift_func_int16_t_s_u>:
    8563:	f3 0f 1e fa          	endbr64 
    8567:	55                   	push   %rbp
    8568:	48 89 e5             	mov    %rsp,%rbp
    856b:	89 f8                	mov    %edi,%eax
    856d:	89 75 f8             	mov    %esi,-0x8(%rbp)
    8570:	66 89 45 fc          	mov    %ax,-0x4(%rbp)
    8574:	66 83 7d fc 00       	cmpw   $0x0,-0x4(%rbp)
    8579:	78 15                	js     8590 <safe_rshift_func_int16_t_s_u+0x2d>
    857b:	83 7d f8 1f          	cmpl   $0x1f,-0x8(%rbp)
    857f:	77 0f                	ja     8590 <safe_rshift_func_int16_t_s_u+0x2d>
    8581:	0f bf 55 fc          	movswl -0x4(%rbp),%edx
    8585:	8b 45 f8             	mov    -0x8(%rbp),%eax
    8588:	89 c1                	mov    %eax,%ecx
    858a:	d3 fa                	sar    %cl,%edx
    858c:	89 d0                	mov    %edx,%eax
    858e:	eb 04                	jmp    8594 <safe_rshift_func_int16_t_s_u+0x31>
    8590:	0f b7 45 fc          	movzwl -0x4(%rbp),%eax
    8594:	5d                   	pop    %rbp
    8595:	c3                   	retq   

0000000000008596 <safe_unary_minus_func_int32_t_s>:
    8596:	f3 0f 1e fa          	endbr64 
    859a:	55                   	push   %rbp
    859b:	48 89 e5             	mov    %rsp,%rbp
    859e:	89 7d fc             	mov    %edi,-0x4(%rbp)
    85a1:	81 7d fc 00 00 00 80 	cmpl   $0x80000000,-0x4(%rbp)
    85a8:	74 07                	je     85b1 <safe_unary_minus_func_int32_t_s+0x1b>
    85aa:	8b 45 fc             	mov    -0x4(%rbp),%eax
    85ad:	f7 d8                	neg    %eax
    85af:	eb 03                	jmp    85b4 <safe_unary_minus_func_int32_t_s+0x1e>
    85b1:	8b 45 fc             	mov    -0x4(%rbp),%eax
    85b4:	5d                   	pop    %rbp
    85b5:	c3                   	retq   

00000000000085b6 <safe_add_func_int32_t_s_s>:
    85b6:	f3 0f 1e fa          	endbr64 
    85ba:	55                   	push   %rbp
    85bb:	48 89 e5             	mov    %rsp,%rbp
    85be:	89 7d fc             	mov    %edi,-0x4(%rbp)
    85c1:	89 75 f8             	mov    %esi,-0x8(%rbp)
    85c4:	83 7d fc 00          	cmpl   $0x0,-0x4(%rbp)
    85c8:	7e 13                	jle    85dd <safe_add_func_int32_t_s_s+0x27>
    85ca:	83 7d f8 00          	cmpl   $0x0,-0x8(%rbp)
    85ce:	7e 0d                	jle    85dd <safe_add_func_int32_t_s_s+0x27>
    85d0:	b8 ff ff ff 7f       	mov    $0x7fffffff,%eax
    85d5:	2b 45 f8             	sub    -0x8(%rbp),%eax
    85d8:	39 45 fc             	cmp    %eax,-0x4(%rbp)
    85db:	7f 23                	jg     8600 <safe_add_func_int32_t_s_s+0x4a>
    85dd:	83 7d fc 00          	cmpl   $0x0,-0x4(%rbp)
    85e1:	79 13                	jns    85f6 <safe_add_func_int32_t_s_s+0x40>
    85e3:	83 7d f8 00          	cmpl   $0x0,-0x8(%rbp)
    85e7:	79 0d                	jns    85f6 <safe_add_func_int32_t_s_s+0x40>
    85e9:	b8 00 00 00 80       	mov    $0x80000000,%eax
    85ee:	2b 45 f8             	sub    -0x8(%rbp),%eax
    85f1:	39 45 fc             	cmp    %eax,-0x4(%rbp)
    85f4:	7c 0a                	jl     8600 <safe_add_func_int32_t_s_s+0x4a>
    85f6:	8b 55 fc             	mov    -0x4(%rbp),%edx
    85f9:	8b 45 f8             	mov    -0x8(%rbp),%eax
    85fc:	01 d0                	add    %edx,%eax
    85fe:	eb 03                	jmp    8603 <safe_add_func_int32_t_s_s+0x4d>
    8600:	8b 45 fc             	mov    -0x4(%rbp),%eax
    8603:	5d                   	pop    %rbp
    8604:	c3                   	retq   

0000000000008605 <safe_sub_func_int32_t_s_s>:
    8605:	f3 0f 1e fa          	endbr64 
    8609:	55                   	push   %rbp
    860a:	48 89 e5             	mov    %rsp,%rbp
    860d:	89 7d fc             	mov    %edi,-0x4(%rbp)
    8610:	89 75 f8             	mov    %esi,-0x8(%rbp)
    8613:	8b 45 fc             	mov    -0x4(%rbp),%eax
    8616:	33 45 f8             	xor    -0x8(%rbp),%eax
    8619:	89 c2                	mov    %eax,%edx
    861b:	8b 45 fc             	mov    -0x4(%rbp),%eax
    861e:	33 45 f8             	xor    -0x8(%rbp),%eax
    8621:	25 00 00 00 80       	and    $0x80000000,%eax
    8626:	33 45 fc             	xor    -0x4(%rbp),%eax
    8629:	2b 45 f8             	sub    -0x8(%rbp),%eax
    862c:	33 45 f8             	xor    -0x8(%rbp),%eax
    862f:	21 d0                	and    %edx,%eax
    8631:	85 c0                	test   %eax,%eax
    8633:	78 08                	js     863d <safe_sub_func_int32_t_s_s+0x38>
    8635:	8b 45 fc             	mov    -0x4(%rbp),%eax
    8638:	2b 45 f8             	sub    -0x8(%rbp),%eax
    863b:	eb 03                	jmp    8640 <safe_sub_func_int32_t_s_s+0x3b>
    863d:	8b 45 fc             	mov    -0x4(%rbp),%eax
    8640:	5d                   	pop    %rbp
    8641:	c3                   	retq   

0000000000008642 <safe_mul_func_int32_t_s_s>:
    8642:	f3 0f 1e fa          	endbr64 
    8646:	55                   	push   %rbp
    8647:	48 89 e5             	mov    %rsp,%rbp
    864a:	89 7d fc             	mov    %edi,-0x4(%rbp)
    864d:	89 75 f8             	mov    %esi,-0x8(%rbp)
    8650:	83 7d fc 00          	cmpl   $0x0,-0x4(%rbp)
    8654:	7e 14                	jle    866a <safe_mul_func_int32_t_s_s+0x28>
    8656:	83 7d f8 00          	cmpl   $0x0,-0x8(%rbp)
    865a:	7e 0e                	jle    866a <safe_mul_func_int32_t_s_s+0x28>
    865c:	b8 ff ff ff 7f       	mov    $0x7fffffff,%eax
    8661:	99                   	cltd   
    8662:	f7 7d f8             	idivl  -0x8(%rbp)
    8665:	39 45 fc             	cmp    %eax,-0x4(%rbp)
    8668:	7f 5d                	jg     86c7 <safe_mul_func_int32_t_s_s+0x85>
    866a:	83 7d fc 00          	cmpl   $0x0,-0x4(%rbp)
    866e:	7e 14                	jle    8684 <safe_mul_func_int32_t_s_s+0x42>
    8670:	83 7d f8 00          	cmpl   $0x0,-0x8(%rbp)
    8674:	7f 0e                	jg     8684 <safe_mul_func_int32_t_s_s+0x42>
    8676:	b8 00 00 00 80       	mov    $0x80000000,%eax
    867b:	99                   	cltd   
    867c:	f7 7d fc             	idivl  -0x4(%rbp)
    867f:	39 45 f8             	cmp    %eax,-0x8(%rbp)
    8682:	7c 43                	jl     86c7 <safe_mul_func_int32_t_s_s+0x85>
    8684:	83 7d fc 00          	cmpl   $0x0,-0x4(%rbp)
    8688:	7f 14                	jg     869e <safe_mul_func_int32_t_s_s+0x5c>
    868a:	83 7d f8 00          	cmpl   $0x0,-0x8(%rbp)
    868e:	7e 0e                	jle    869e <safe_mul_func_int32_t_s_s+0x5c>
    8690:	b8 00 00 00 80       	mov    $0x80000000,%eax
    8695:	99                   	cltd   
    8696:	f7 7d f8             	idivl  -0x8(%rbp)
    8699:	39 45 fc             	cmp    %eax,-0x4(%rbp)
    869c:	7c 29                	jl     86c7 <safe_mul_func_int32_t_s_s+0x85>
    869e:	83 7d fc 00          	cmpl   $0x0,-0x4(%rbp)
    86a2:	7f 1a                	jg     86be <safe_mul_func_int32_t_s_s+0x7c>
    86a4:	83 7d f8 00          	cmpl   $0x0,-0x8(%rbp)
    86a8:	7f 14                	jg     86be <safe_mul_func_int32_t_s_s+0x7c>
    86aa:	83 7d fc 00          	cmpl   $0x0,-0x4(%rbp)
    86ae:	74 0e                	je     86be <safe_mul_func_int32_t_s_s+0x7c>
    86b0:	b8 ff ff ff 7f       	mov    $0x7fffffff,%eax
    86b5:	99                   	cltd   
    86b6:	f7 7d fc             	idivl  -0x4(%rbp)
    86b9:	39 45 f8             	cmp    %eax,-0x8(%rbp)
    86bc:	7c 09                	jl     86c7 <safe_mul_func_int32_t_s_s+0x85>
    86be:	8b 45 fc             	mov    -0x4(%rbp),%eax
    86c1:	0f af 45 f8          	imul   -0x8(%rbp),%eax
    86c5:	eb 03                	jmp    86ca <safe_mul_func_int32_t_s_s+0x88>
    86c7:	8b 45 fc             	mov    -0x4(%rbp),%eax
    86ca:	5d                   	pop    %rbp
    86cb:	c3                   	retq   

00000000000086cc <safe_mod_func_int32_t_s_s>:
    86cc:	f3 0f 1e fa          	endbr64 
    86d0:	55                   	push   %rbp
    86d1:	48 89 e5             	mov    %rsp,%rbp
    86d4:	89 7d fc             	mov    %edi,-0x4(%rbp)
    86d7:	89 75 f8             	mov    %esi,-0x8(%rbp)
    86da:	83 7d f8 00          	cmpl   $0x0,-0x8(%rbp)
    86de:	74 1a                	je     86fa <safe_mod_func_int32_t_s_s+0x2e>
    86e0:	81 7d fc 00 00 00 80 	cmpl   $0x80000000,-0x4(%rbp)
    86e7:	75 06                	jne    86ef <safe_mod_func_int32_t_s_s+0x23>
    86e9:	83 7d f8 ff          	cmpl   $0xffffffff,-0x8(%rbp)
    86ed:	74 0b                	je     86fa <safe_mod_func_int32_t_s_s+0x2e>
    86ef:	8b 45 fc             	mov    -0x4(%rbp),%eax
    86f2:	99                   	cltd   
    86f3:	f7 7d f8             	idivl  -0x8(%rbp)
    86f6:	89 d0                	mov    %edx,%eax
    86f8:	eb 03                	jmp    86fd <safe_mod_func_int32_t_s_s+0x31>
    86fa:	8b 45 fc             	mov    -0x4(%rbp),%eax
    86fd:	5d                   	pop    %rbp
    86fe:	c3                   	retq   

00000000000086ff <safe_div_func_int32_t_s_s>:
    86ff:	f3 0f 1e fa          	endbr64 
    8703:	55                   	push   %rbp
    8704:	48 89 e5             	mov    %rsp,%rbp
    8707:	89 7d fc             	mov    %edi,-0x4(%rbp)
    870a:	89 75 f8             	mov    %esi,-0x8(%rbp)
    870d:	83 7d f8 00          	cmpl   $0x0,-0x8(%rbp)
    8711:	74 18                	je     872b <safe_div_func_int32_t_s_s+0x2c>
    8713:	81 7d fc 00 00 00 80 	cmpl   $0x80000000,-0x4(%rbp)
    871a:	75 06                	jne    8722 <safe_div_func_int32_t_s_s+0x23>
    871c:	83 7d f8 ff          	cmpl   $0xffffffff,-0x8(%rbp)
    8720:	74 09                	je     872b <safe_div_func_int32_t_s_s+0x2c>
    8722:	8b 45 fc             	mov    -0x4(%rbp),%eax
    8725:	99                   	cltd   
    8726:	f7 7d f8             	idivl  -0x8(%rbp)
    8729:	eb 03                	jmp    872e <safe_div_func_int32_t_s_s+0x2f>
    872b:	8b 45 fc             	mov    -0x4(%rbp),%eax
    872e:	5d                   	pop    %rbp
    872f:	c3                   	retq   

0000000000008730 <safe_lshift_func_int32_t_s_s>:
    8730:	f3 0f 1e fa          	endbr64 
    8734:	55                   	push   %rbp
    8735:	48 89 e5             	mov    %rsp,%rbp
    8738:	89 7d fc             	mov    %edi,-0x4(%rbp)
    873b:	89 75 f8             	mov    %esi,-0x8(%rbp)
    873e:	83 7d fc 00          	cmpl   $0x0,-0x4(%rbp)
    8742:	78 2d                	js     8771 <safe_lshift_func_int32_t_s_s+0x41>
    8744:	83 7d f8 00          	cmpl   $0x0,-0x8(%rbp)
    8748:	78 27                	js     8771 <safe_lshift_func_int32_t_s_s+0x41>
    874a:	83 7d f8 1f          	cmpl   $0x1f,-0x8(%rbp)
    874e:	7f 21                	jg     8771 <safe_lshift_func_int32_t_s_s+0x41>
    8750:	8b 45 f8             	mov    -0x8(%rbp),%eax
    8753:	ba ff ff ff 7f       	mov    $0x7fffffff,%edx
    8758:	89 c1                	mov    %eax,%ecx
    875a:	d3 fa                	sar    %cl,%edx
    875c:	89 d0                	mov    %edx,%eax
    875e:	39 45 fc             	cmp    %eax,-0x4(%rbp)
    8761:	7f 0e                	jg     8771 <safe_lshift_func_int32_t_s_s+0x41>
    8763:	8b 45 f8             	mov    -0x8(%rbp),%eax
    8766:	8b 55 fc             	mov    -0x4(%rbp),%edx
    8769:	89 c1                	mov    %eax,%ecx
    876b:	d3 e2                	shl    %cl,%edx
    876d:	89 d0                	mov    %edx,%eax
    876f:	eb 03                	jmp    8774 <safe_lshift_func_int32_t_s_s+0x44>
    8771:	8b 45 fc             	mov    -0x4(%rbp),%eax
    8774:	5d                   	pop    %rbp
    8775:	c3                   	retq   

0000000000008776 <safe_lshift_func_int32_t_s_u>:
    8776:	f3 0f 1e fa          	endbr64 
    877a:	55                   	push   %rbp
    877b:	48 89 e5             	mov    %rsp,%rbp
    877e:	89 7d fc             	mov    %edi,-0x4(%rbp)
    8781:	89 75 f8             	mov    %esi,-0x8(%rbp)
    8784:	83 7d fc 00          	cmpl   $0x0,-0x4(%rbp)
    8788:	78 27                	js     87b1 <safe_lshift_func_int32_t_s_u+0x3b>
    878a:	83 7d f8 1f          	cmpl   $0x1f,-0x8(%rbp)
    878e:	77 21                	ja     87b1 <safe_lshift_func_int32_t_s_u+0x3b>
    8790:	8b 45 f8             	mov    -0x8(%rbp),%eax
    8793:	ba ff ff ff 7f       	mov    $0x7fffffff,%edx
    8798:	89 c1                	mov    %eax,%ecx
    879a:	d3 fa                	sar    %cl,%edx
    879c:	89 d0                	mov    %edx,%eax
    879e:	39 45 fc             	cmp    %eax,-0x4(%rbp)
    87a1:	7f 0e                	jg     87b1 <safe_lshift_func_int32_t_s_u+0x3b>
    87a3:	8b 45 f8             	mov    -0x8(%rbp),%eax
    87a6:	8b 55 fc             	mov    -0x4(%rbp),%edx
    87a9:	89 c1                	mov    %eax,%ecx
    87ab:	d3 e2                	shl    %cl,%edx
    87ad:	89 d0                	mov    %edx,%eax
    87af:	eb 03                	jmp    87b4 <safe_lshift_func_int32_t_s_u+0x3e>
    87b1:	8b 45 fc             	mov    -0x4(%rbp),%eax
    87b4:	5d                   	pop    %rbp
    87b5:	c3                   	retq   

00000000000087b6 <safe_rshift_func_int32_t_s_s>:
    87b6:	f3 0f 1e fa          	endbr64 
    87ba:	55                   	push   %rbp
    87bb:	48 89 e5             	mov    %rsp,%rbp
    87be:	89 7d fc             	mov    %edi,-0x4(%rbp)
    87c1:	89 75 f8             	mov    %esi,-0x8(%rbp)
    87c4:	83 7d fc 00          	cmpl   $0x0,-0x4(%rbp)
    87c8:	78 1a                	js     87e4 <safe_rshift_func_int32_t_s_s+0x2e>
    87ca:	83 7d f8 00          	cmpl   $0x0,-0x8(%rbp)
    87ce:	78 14                	js     87e4 <safe_rshift_func_int32_t_s_s+0x2e>
    87d0:	83 7d f8 1f          	cmpl   $0x1f,-0x8(%rbp)
    87d4:	7f 0e                	jg     87e4 <safe_rshift_func_int32_t_s_s+0x2e>
    87d6:	8b 45 f8             	mov    -0x8(%rbp),%eax
    87d9:	8b 55 fc             	mov    -0x4(%rbp),%edx
    87dc:	89 c1                	mov    %eax,%ecx
    87de:	d3 fa                	sar    %cl,%edx
    87e0:	89 d0                	mov    %edx,%eax
    87e2:	eb 03                	jmp    87e7 <safe_rshift_func_int32_t_s_s+0x31>
    87e4:	8b 45 fc             	mov    -0x4(%rbp),%eax
    87e7:	5d                   	pop    %rbp
    87e8:	c3                   	retq   

00000000000087e9 <safe_rshift_func_int32_t_s_u>:
    87e9:	f3 0f 1e fa          	endbr64 
    87ed:	55                   	push   %rbp
    87ee:	48 89 e5             	mov    %rsp,%rbp
    87f1:	89 7d fc             	mov    %edi,-0x4(%rbp)
    87f4:	89 75 f8             	mov    %esi,-0x8(%rbp)
    87f7:	83 7d fc 00          	cmpl   $0x0,-0x4(%rbp)
    87fb:	78 14                	js     8811 <safe_rshift_func_int32_t_s_u+0x28>
    87fd:	83 7d f8 1f          	cmpl   $0x1f,-0x8(%rbp)
    8801:	77 0e                	ja     8811 <safe_rshift_func_int32_t_s_u+0x28>
    8803:	8b 45 f8             	mov    -0x8(%rbp),%eax
    8806:	8b 55 fc             	mov    -0x4(%rbp),%edx
    8809:	89 c1                	mov    %eax,%ecx
    880b:	d3 fa                	sar    %cl,%edx
    880d:	89 d0                	mov    %edx,%eax
    880f:	eb 03                	jmp    8814 <safe_rshift_func_int32_t_s_u+0x2b>
    8811:	8b 45 fc             	mov    -0x4(%rbp),%eax
    8814:	5d                   	pop    %rbp
    8815:	c3                   	retq   

0000000000008816 <safe_unary_minus_func_int64_t_s>:
    8816:	f3 0f 1e fa          	endbr64 
    881a:	55                   	push   %rbp
    881b:	48 89 e5             	mov    %rsp,%rbp
    881e:	48 89 7d f8          	mov    %rdi,-0x8(%rbp)
    8822:	48 b8 00 00 00 00 00 	movabs $0x8000000000000000,%rax
    8829:	00 00 80 
    882c:	48 39 45 f8          	cmp    %rax,-0x8(%rbp)
    8830:	74 09                	je     883b <safe_unary_minus_func_int64_t_s+0x25>
    8832:	48 8b 45 f8          	mov    -0x8(%rbp),%rax
    8836:	48 f7 d8             	neg    %rax
    8839:	eb 04                	jmp    883f <safe_unary_minus_func_int64_t_s+0x29>
    883b:	48 8b 45 f8          	mov    -0x8(%rbp),%rax
    883f:	5d                   	pop    %rbp
    8840:	c3                   	retq   

0000000000008841 <safe_add_func_int64_t_s_s>:
    8841:	f3 0f 1e fa          	endbr64 
    8845:	55                   	push   %rbp
    8846:	48 89 e5             	mov    %rsp,%rbp
    8849:	48 89 7d f8          	mov    %rdi,-0x8(%rbp)
    884d:	48 89 75 f0          	mov    %rsi,-0x10(%rbp)
    8851:	48 83 7d f8 00       	cmpq   $0x0,-0x8(%rbp)
    8856:	7e 1b                	jle    8873 <safe_add_func_int64_t_s_s+0x32>
    8858:	48 83 7d f0 00       	cmpq   $0x0,-0x10(%rbp)
    885d:	7e 14                	jle    8873 <safe_add_func_int64_t_s_s+0x32>
    885f:	48 b8 ff ff ff ff ff 	movabs $0x7fffffffffffffff,%rax
    8866:	ff ff 7f 
    8869:	48 2b 45 f0          	sub    -0x10(%rbp),%rax
    886d:	48 39 45 f8          	cmp    %rax,-0x8(%rbp)
    8871:	7f 2f                	jg     88a2 <safe_add_func_int64_t_s_s+0x61>
    8873:	48 83 7d f8 00       	cmpq   $0x0,-0x8(%rbp)
    8878:	79 1b                	jns    8895 <safe_add_func_int64_t_s_s+0x54>
    887a:	48 83 7d f0 00       	cmpq   $0x0,-0x10(%rbp)
    887f:	79 14                	jns    8895 <safe_add_func_int64_t_s_s+0x54>
    8881:	48 b8 00 00 00 00 00 	movabs $0x8000000000000000,%rax
    8888:	00 00 80 
    888b:	48 2b 45 f0          	sub    -0x10(%rbp),%rax
    888f:	48 39 45 f8          	cmp    %rax,-0x8(%rbp)
    8893:	7c 0d                	jl     88a2 <safe_add_func_int64_t_s_s+0x61>
    8895:	48 8b 55 f8          	mov    -0x8(%rbp),%rdx
    8899:	48 8b 45 f0          	mov    -0x10(%rbp),%rax
    889d:	48 01 d0             	add    %rdx,%rax
    88a0:	eb 04                	jmp    88a6 <safe_add_func_int64_t_s_s+0x65>
    88a2:	48 8b 45 f8          	mov    -0x8(%rbp),%rax
    88a6:	5d                   	pop    %rbp
    88a7:	c3                   	retq   

00000000000088a8 <safe_sub_func_int64_t_s_s>:
    88a8:	f3 0f 1e fa          	endbr64 
    88ac:	55                   	push   %rbp
    88ad:	48 89 e5             	mov    %rsp,%rbp
    88b0:	48 89 7d f8          	mov    %rdi,-0x8(%rbp)
    88b4:	48 89 75 f0          	mov    %rsi,-0x10(%rbp)
    88b8:	48 8b 45 f8          	mov    -0x8(%rbp),%rax
    88bc:	48 33 45 f0          	xor    -0x10(%rbp),%rax
    88c0:	48 89 c2             	mov    %rax,%rdx
    88c3:	48 8b 45 f8          	mov    -0x8(%rbp),%rax
    88c7:	48 33 45 f0          	xor    -0x10(%rbp),%rax
    88cb:	48 b9 00 00 00 00 00 	movabs $0x8000000000000000,%rcx
    88d2:	00 00 80 
    88d5:	48 21 c8             	and    %rcx,%rax
    88d8:	48 33 45 f8          	xor    -0x8(%rbp),%rax
    88dc:	48 2b 45 f0          	sub    -0x10(%rbp),%rax
    88e0:	48 33 45 f0          	xor    -0x10(%rbp),%rax
    88e4:	48 21 d0             	and    %rdx,%rax
    88e7:	48 85 c0             	test   %rax,%rax
    88ea:	78 0a                	js     88f6 <safe_sub_func_int64_t_s_s+0x4e>
    88ec:	48 8b 45 f8          	mov    -0x8(%rbp),%rax
    88f0:	48 2b 45 f0          	sub    -0x10(%rbp),%rax
    88f4:	eb 04                	jmp    88fa <safe_sub_func_int64_t_s_s+0x52>
    88f6:	48 8b 45 f8          	mov    -0x8(%rbp),%rax
    88fa:	5d                   	pop    %rbp
    88fb:	c3                   	retq   

00000000000088fc <safe_mul_func_int64_t_s_s>:
    88fc:	f3 0f 1e fa          	endbr64 
    8900:	55                   	push   %rbp
    8901:	48 89 e5             	mov    %rsp,%rbp
    8904:	48 89 7d f8          	mov    %rdi,-0x8(%rbp)
    8908:	48 89 75 f0          	mov    %rsi,-0x10(%rbp)
    890c:	48 83 7d f8 00       	cmpq   $0x0,-0x8(%rbp)
    8911:	7e 1d                	jle    8930 <safe_mul_func_int64_t_s_s+0x34>
    8913:	48 83 7d f0 00       	cmpq   $0x0,-0x10(%rbp)
    8918:	7e 16                	jle    8930 <safe_mul_func_int64_t_s_s+0x34>
    891a:	48 b8 ff ff ff ff ff 	movabs $0x7fffffffffffffff,%rax
    8921:	ff ff 7f 
    8924:	48 99                	cqto   
    8926:	48 f7 7d f0          	idivq  -0x10(%rbp)
    892a:	48 39 45 f8          	cmp    %rax,-0x8(%rbp)
    892e:	7f 7e                	jg     89ae <safe_mul_func_int64_t_s_s+0xb2>
    8930:	48 83 7d f8 00       	cmpq   $0x0,-0x8(%rbp)
    8935:	7e 1d                	jle    8954 <safe_mul_func_int64_t_s_s+0x58>
    8937:	48 83 7d f0 00       	cmpq   $0x0,-0x10(%rbp)
    893c:	7f 16                	jg     8954 <safe_mul_func_int64_t_s_s+0x58>
    893e:	48 b8 00 00 00 00 00 	movabs $0x8000000000000000,%rax
    8945:	00 00 80 
    8948:	48 99                	cqto   
    894a:	48 f7 7d f8          	idivq  -0x8(%rbp)
    894e:	48 39 45 f0          	cmp    %rax,-0x10(%rbp)
    8952:	7c 5a                	jl     89ae <safe_mul_func_int64_t_s_s+0xb2>
    8954:	48 83 7d f8 00       	cmpq   $0x0,-0x8(%rbp)
    8959:	7f 1d                	jg     8978 <safe_mul_func_int64_t_s_s+0x7c>
    895b:	48 83 7d f0 00       	cmpq   $0x0,-0x10(%rbp)
    8960:	7e 16                	jle    8978 <safe_mul_func_int64_t_s_s+0x7c>
    8962:	48 b8 00 00 00 00 00 	movabs $0x8000000000000000,%rax
    8969:	00 00 80 
    896c:	48 99                	cqto   
    896e:	48 f7 7d f0          	idivq  -0x10(%rbp)
    8972:	48 39 45 f8          	cmp    %rax,-0x8(%rbp)
    8976:	7c 36                	jl     89ae <safe_mul_func_int64_t_s_s+0xb2>
    8978:	48 83 7d f8 00       	cmpq   $0x0,-0x8(%rbp)
    897d:	7f 24                	jg     89a3 <safe_mul_func_int64_t_s_s+0xa7>
    897f:	48 83 7d f0 00       	cmpq   $0x0,-0x10(%rbp)
    8984:	7f 1d                	jg     89a3 <safe_mul_func_int64_t_s_s+0xa7>
    8986:	48 83 7d f8 00       	cmpq   $0x0,-0x8(%rbp)
    898b:	74 16                	je     89a3 <safe_mul_func_int64_t_s_s+0xa7>
    898d:	48 b8 ff ff ff ff ff 	movabs $0x7fffffffffffffff,%rax
    8994:	ff ff 7f 
    8997:	48 99                	cqto   
    8999:	48 f7 7d f8          	idivq  -0x8(%rbp)
    899d:	48 39 45 f0          	cmp    %rax,-0x10(%rbp)
    89a1:	7c 0b                	jl     89ae <safe_mul_func_int64_t_s_s+0xb2>
    89a3:	48 8b 45 f8          	mov    -0x8(%rbp),%rax
    89a7:	48 0f af 45 f0       	imul   -0x10(%rbp),%rax
    89ac:	eb 04                	jmp    89b2 <safe_mul_func_int64_t_s_s+0xb6>
    89ae:	48 8b 45 f8          	mov    -0x8(%rbp),%rax
    89b2:	5d                   	pop    %rbp
    89b3:	c3                   	retq   

00000000000089b4 <safe_mod_func_int64_t_s_s>:
    89b4:	f3 0f 1e fa          	endbr64 
    89b8:	55                   	push   %rbp
    89b9:	48 89 e5             	mov    %rsp,%rbp
    89bc:	48 89 7d f8          	mov    %rdi,-0x8(%rbp)
    89c0:	48 89 75 f0          	mov    %rsi,-0x10(%rbp)
    89c4:	48 83 7d f0 00       	cmpq   $0x0,-0x10(%rbp)
    89c9:	74 26                	je     89f1 <safe_mod_func_int64_t_s_s+0x3d>
    89cb:	48 b8 00 00 00 00 00 	movabs $0x8000000000000000,%rax
    89d2:	00 00 80 
    89d5:	48 39 45 f8          	cmp    %rax,-0x8(%rbp)
    89d9:	75 07                	jne    89e2 <safe_mod_func_int64_t_s_s+0x2e>
    89db:	48 83 7d f0 ff       	cmpq   $0xffffffffffffffff,-0x10(%rbp)
    89e0:	74 0f                	je     89f1 <safe_mod_func_int64_t_s_s+0x3d>
    89e2:	48 8b 45 f8          	mov    -0x8(%rbp),%rax
    89e6:	48 99                	cqto   
    89e8:	48 f7 7d f0          	idivq  -0x10(%rbp)
    89ec:	48 89 d0             	mov    %rdx,%rax
    89ef:	eb 04                	jmp    89f5 <safe_mod_func_int64_t_s_s+0x41>
    89f1:	48 8b 45 f8          	mov    -0x8(%rbp),%rax
    89f5:	5d                   	pop    %rbp
    89f6:	c3                   	retq   

00000000000089f7 <safe_div_func_int64_t_s_s>:
    89f7:	f3 0f 1e fa          	endbr64 
    89fb:	55                   	push   %rbp
    89fc:	48 89 e5             	mov    %rsp,%rbp
    89ff:	48 89 7d f8          	mov    %rdi,-0x8(%rbp)
    8a03:	48 89 75 f0          	mov    %rsi,-0x10(%rbp)
    8a07:	48 83 7d f0 00       	cmpq   $0x0,-0x10(%rbp)
    8a0c:	74 23                	je     8a31 <safe_div_func_int64_t_s_s+0x3a>
    8a0e:	48 b8 00 00 00 00 00 	movabs $0x8000000000000000,%rax
    8a15:	00 00 80 
    8a18:	48 39 45 f8          	cmp    %rax,-0x8(%rbp)
    8a1c:	75 07                	jne    8a25 <safe_div_func_int64_t_s_s+0x2e>
    8a1e:	48 83 7d f0 ff       	cmpq   $0xffffffffffffffff,-0x10(%rbp)
    8a23:	74 0c                	je     8a31 <safe_div_func_int64_t_s_s+0x3a>
    8a25:	48 8b 45 f8          	mov    -0x8(%rbp),%rax
    8a29:	48 99                	cqto   
    8a2b:	48 f7 7d f0          	idivq  -0x10(%rbp)
    8a2f:	eb 04                	jmp    8a35 <safe_div_func_int64_t_s_s+0x3e>
    8a31:	48 8b 45 f8          	mov    -0x8(%rbp),%rax
    8a35:	5d                   	pop    %rbp
    8a36:	c3                   	retq   

0000000000008a37 <safe_lshift_func_int64_t_s_s>:
    8a37:	f3 0f 1e fa          	endbr64 
    8a3b:	55                   	push   %rbp
    8a3c:	48 89 e5             	mov    %rsp,%rbp
    8a3f:	48 89 7d f8          	mov    %rdi,-0x8(%rbp)
    8a43:	89 75 f4             	mov    %esi,-0xc(%rbp)
    8a46:	48 83 7d f8 00       	cmpq   $0x0,-0x8(%rbp)
    8a4b:	78 38                	js     8a85 <safe_lshift_func_int64_t_s_s+0x4e>
    8a4d:	83 7d f4 00          	cmpl   $0x0,-0xc(%rbp)
    8a51:	78 32                	js     8a85 <safe_lshift_func_int64_t_s_s+0x4e>
    8a53:	83 7d f4 1f          	cmpl   $0x1f,-0xc(%rbp)
    8a57:	7f 2c                	jg     8a85 <safe_lshift_func_int64_t_s_s+0x4e>
    8a59:	8b 45 f4             	mov    -0xc(%rbp),%eax
    8a5c:	48 ba ff ff ff ff ff 	movabs $0x7fffffffffffffff,%rdx
    8a63:	ff ff 7f 
    8a66:	89 c1                	mov    %eax,%ecx
    8a68:	48 d3 fa             	sar    %cl,%rdx
    8a6b:	48 89 d0             	mov    %rdx,%rax
    8a6e:	48 39 45 f8          	cmp    %rax,-0x8(%rbp)
    8a72:	7f 11                	jg     8a85 <safe_lshift_func_int64_t_s_s+0x4e>
    8a74:	8b 45 f4             	mov    -0xc(%rbp),%eax
    8a77:	48 8b 55 f8          	mov    -0x8(%rbp),%rdx
    8a7b:	89 c1                	mov    %eax,%ecx
    8a7d:	48 d3 e2             	shl    %cl,%rdx
    8a80:	48 89 d0             	mov    %rdx,%rax
    8a83:	eb 04                	jmp    8a89 <safe_lshift_func_int64_t_s_s+0x52>
    8a85:	48 8b 45 f8          	mov    -0x8(%rbp),%rax
    8a89:	5d                   	pop    %rbp
    8a8a:	c3                   	retq   

0000000000008a8b <safe_lshift_func_int64_t_s_u>:
    8a8b:	f3 0f 1e fa          	endbr64 
    8a8f:	55                   	push   %rbp
    8a90:	48 89 e5             	mov    %rsp,%rbp
    8a93:	48 89 7d f8          	mov    %rdi,-0x8(%rbp)
    8a97:	89 75 f4             	mov    %esi,-0xc(%rbp)
    8a9a:	48 83 7d f8 00       	cmpq   $0x0,-0x8(%rbp)
    8a9f:	78 32                	js     8ad3 <safe_lshift_func_int64_t_s_u+0x48>
    8aa1:	83 7d f4 1f          	cmpl   $0x1f,-0xc(%rbp)
    8aa5:	77 2c                	ja     8ad3 <safe_lshift_func_int64_t_s_u+0x48>
    8aa7:	8b 45 f4             	mov    -0xc(%rbp),%eax
    8aaa:	48 ba ff ff ff ff ff 	movabs $0x7fffffffffffffff,%rdx
    8ab1:	ff ff 7f 
    8ab4:	89 c1                	mov    %eax,%ecx
    8ab6:	48 d3 fa             	sar    %cl,%rdx
    8ab9:	48 89 d0             	mov    %rdx,%rax
    8abc:	48 39 45 f8          	cmp    %rax,-0x8(%rbp)
    8ac0:	7f 11                	jg     8ad3 <safe_lshift_func_int64_t_s_u+0x48>
    8ac2:	8b 45 f4             	mov    -0xc(%rbp),%eax
    8ac5:	48 8b 55 f8          	mov    -0x8(%rbp),%rdx
    8ac9:	89 c1                	mov    %eax,%ecx
    8acb:	48 d3 e2             	shl    %cl,%rdx
    8ace:	48 89 d0             	mov    %rdx,%rax
    8ad1:	eb 04                	jmp    8ad7 <safe_lshift_func_int64_t_s_u+0x4c>
    8ad3:	48 8b 45 f8          	mov    -0x8(%rbp),%rax
    8ad7:	5d                   	pop    %rbp
    8ad8:	c3                   	retq   

0000000000008ad9 <safe_rshift_func_int64_t_s_s>:
    8ad9:	f3 0f 1e fa          	endbr64 
    8add:	55                   	push   %rbp
    8ade:	48 89 e5             	mov    %rsp,%rbp
    8ae1:	48 89 7d f8          	mov    %rdi,-0x8(%rbp)
    8ae5:	89 75 f4             	mov    %esi,-0xc(%rbp)
    8ae8:	48 83 7d f8 00       	cmpq   $0x0,-0x8(%rbp)
    8aed:	78 1d                	js     8b0c <safe_rshift_func_int64_t_s_s+0x33>
    8aef:	83 7d f4 00          	cmpl   $0x0,-0xc(%rbp)
    8af3:	78 17                	js     8b0c <safe_rshift_func_int64_t_s_s+0x33>
    8af5:	83 7d f4 1f          	cmpl   $0x1f,-0xc(%rbp)
    8af9:	7f 11                	jg     8b0c <safe_rshift_func_int64_t_s_s+0x33>
    8afb:	8b 45 f4             	mov    -0xc(%rbp),%eax
    8afe:	48 8b 55 f8          	mov    -0x8(%rbp),%rdx
    8b02:	89 c1                	mov    %eax,%ecx
    8b04:	48 d3 fa             	sar    %cl,%rdx
    8b07:	48 89 d0             	mov    %rdx,%rax
    8b0a:	eb 04                	jmp    8b10 <safe_rshift_func_int64_t_s_s+0x37>
    8b0c:	48 8b 45 f8          	mov    -0x8(%rbp),%rax
    8b10:	5d                   	pop    %rbp
    8b11:	c3                   	retq   

0000000000008b12 <safe_rshift_func_int64_t_s_u>:
    8b12:	f3 0f 1e fa          	endbr64 
    8b16:	55                   	push   %rbp
    8b17:	48 89 e5             	mov    %rsp,%rbp
    8b1a:	48 89 7d f8          	mov    %rdi,-0x8(%rbp)
    8b1e:	89 75 f4             	mov    %esi,-0xc(%rbp)
    8b21:	48 83 7d f8 00       	cmpq   $0x0,-0x8(%rbp)
    8b26:	78 17                	js     8b3f <safe_rshift_func_int64_t_s_u+0x2d>
    8b28:	83 7d f4 1f          	cmpl   $0x1f,-0xc(%rbp)
    8b2c:	77 11                	ja     8b3f <safe_rshift_func_int64_t_s_u+0x2d>
    8b2e:	8b 45 f4             	mov    -0xc(%rbp),%eax
    8b31:	48 8b 55 f8          	mov    -0x8(%rbp),%rdx
    8b35:	89 c1                	mov    %eax,%ecx
    8b37:	48 d3 fa             	sar    %cl,%rdx
    8b3a:	48 89 d0             	mov    %rdx,%rax
    8b3d:	eb 04                	jmp    8b43 <safe_rshift_func_int64_t_s_u+0x31>
    8b3f:	48 8b 45 f8          	mov    -0x8(%rbp),%rax
    8b43:	5d                   	pop    %rbp
    8b44:	c3                   	retq   

0000000000008b45 <safe_unary_minus_func_uint8_t_u>:
    8b45:	f3 0f 1e fa          	endbr64 
    8b49:	55                   	push   %rbp
    8b4a:	48 89 e5             	mov    %rsp,%rbp
    8b4d:	89 f8                	mov    %edi,%eax
    8b4f:	88 45 fc             	mov    %al,-0x4(%rbp)
    8b52:	0f b6 45 fc          	movzbl -0x4(%rbp),%eax
    8b56:	f7 d8                	neg    %eax
    8b58:	5d                   	pop    %rbp
    8b59:	c3                   	retq   

0000000000008b5a <safe_add_func_uint8_t_u_u>:
    8b5a:	f3 0f 1e fa          	endbr64 
    8b5e:	55                   	push   %rbp
    8b5f:	48 89 e5             	mov    %rsp,%rbp
    8b62:	89 fa                	mov    %edi,%edx
    8b64:	89 f0                	mov    %esi,%eax
    8b66:	88 55 fc             	mov    %dl,-0x4(%rbp)
    8b69:	88 45 f8             	mov    %al,-0x8(%rbp)
    8b6c:	0f b6 55 fc          	movzbl -0x4(%rbp),%edx
    8b70:	0f b6 45 f8          	movzbl -0x8(%rbp),%eax
    8b74:	01 d0                	add    %edx,%eax
    8b76:	5d                   	pop    %rbp
    8b77:	c3                   	retq   

0000000000008b78 <safe_sub_func_uint8_t_u_u>:
    8b78:	f3 0f 1e fa          	endbr64 
    8b7c:	55                   	push   %rbp
    8b7d:	48 89 e5             	mov    %rsp,%rbp
    8b80:	89 fa                	mov    %edi,%edx
    8b82:	89 f0                	mov    %esi,%eax
    8b84:	88 55 fc             	mov    %dl,-0x4(%rbp)
    8b87:	88 45 f8             	mov    %al,-0x8(%rbp)
    8b8a:	0f b6 45 fc          	movzbl -0x4(%rbp),%eax
    8b8e:	2a 45 f8             	sub    -0x8(%rbp),%al
    8b91:	5d                   	pop    %rbp
    8b92:	c3                   	retq   

0000000000008b93 <safe_mul_func_uint8_t_u_u>:
    8b93:	f3 0f 1e fa          	endbr64 
    8b97:	55                   	push   %rbp
    8b98:	48 89 e5             	mov    %rsp,%rbp
    8b9b:	89 fa                	mov    %edi,%edx
    8b9d:	89 f0                	mov    %esi,%eax
    8b9f:	88 55 fc             	mov    %dl,-0x4(%rbp)
    8ba2:	88 45 f8             	mov    %al,-0x8(%rbp)
    8ba5:	0f b6 45 fc          	movzbl -0x4(%rbp),%eax
    8ba9:	f6 65 f8             	mulb   -0x8(%rbp)
    8bac:	5d                   	pop    %rbp
    8bad:	c3                   	retq   

0000000000008bae <safe_mod_func_uint8_t_u_u>:
    8bae:	f3 0f 1e fa          	endbr64 
    8bb2:	55                   	push   %rbp
    8bb3:	48 89 e5             	mov    %rsp,%rbp
    8bb6:	89 fa                	mov    %edi,%edx
    8bb8:	89 f0                	mov    %esi,%eax
    8bba:	88 55 fc             	mov    %dl,-0x4(%rbp)
    8bbd:	88 45 f8             	mov    %al,-0x8(%rbp)
    8bc0:	80 7d f8 00          	cmpb   $0x0,-0x8(%rbp)
    8bc4:	74 0f                	je     8bd5 <safe_mod_func_uint8_t_u_u+0x27>
    8bc6:	0f b6 45 fc          	movzbl -0x4(%rbp),%eax
    8bca:	0f b6 c0             	movzbl %al,%eax
    8bcd:	f6 75 f8             	divb   -0x8(%rbp)
    8bd0:	0f b6 c4             	movzbl %ah,%eax
    8bd3:	eb 04                	jmp    8bd9 <safe_mod_func_uint8_t_u_u+0x2b>
    8bd5:	0f b6 45 fc          	movzbl -0x4(%rbp),%eax
    8bd9:	5d                   	pop    %rbp
    8bda:	c3                   	retq   

0000000000008bdb <safe_div_func_uint8_t_u_u>:
    8bdb:	f3 0f 1e fa          	endbr64 
    8bdf:	55                   	push   %rbp
    8be0:	48 89 e5             	mov    %rsp,%rbp
    8be3:	89 fa                	mov    %edi,%edx
    8be5:	89 f0                	mov    %esi,%eax
    8be7:	88 55 fc             	mov    %dl,-0x4(%rbp)
    8bea:	88 45 f8             	mov    %al,-0x8(%rbp)
    8bed:	80 7d f8 00          	cmpb   $0x0,-0x8(%rbp)
    8bf1:	74 0c                	je     8bff <safe_div_func_uint8_t_u_u+0x24>
    8bf3:	0f b6 45 fc          	movzbl -0x4(%rbp),%eax
    8bf7:	0f b6 c0             	movzbl %al,%eax
    8bfa:	f6 75 f8             	divb   -0x8(%rbp)
    8bfd:	eb 04                	jmp    8c03 <safe_div_func_uint8_t_u_u+0x28>
    8bff:	0f b6 45 fc          	movzbl -0x4(%rbp),%eax
    8c03:	5d                   	pop    %rbp
    8c04:	c3                   	retq   

0000000000008c05 <safe_lshift_func_uint8_t_u_s>:
    8c05:	f3 0f 1e fa          	endbr64 
    8c09:	55                   	push   %rbp
    8c0a:	48 89 e5             	mov    %rsp,%rbp
    8c0d:	89 f8                	mov    %edi,%eax
    8c0f:	89 75 f8             	mov    %esi,-0x8(%rbp)
    8c12:	88 45 fc             	mov    %al,-0x4(%rbp)
    8c15:	83 7d f8 00          	cmpl   $0x0,-0x8(%rbp)
    8c19:	78 2b                	js     8c46 <safe_lshift_func_uint8_t_u_s+0x41>
    8c1b:	83 7d f8 1f          	cmpl   $0x1f,-0x8(%rbp)
    8c1f:	7f 25                	jg     8c46 <safe_lshift_func_uint8_t_u_s+0x41>
    8c21:	0f b6 55 fc          	movzbl -0x4(%rbp),%edx
    8c25:	8b 45 f8             	mov    -0x8(%rbp),%eax
    8c28:	be ff 00 00 00       	mov    $0xff,%esi
    8c2d:	89 c1                	mov    %eax,%ecx
    8c2f:	d3 fe                	sar    %cl,%esi
    8c31:	89 f0                	mov    %esi,%eax
    8c33:	39 c2                	cmp    %eax,%edx
    8c35:	7f 0f                	jg     8c46 <safe_lshift_func_uint8_t_u_s+0x41>
    8c37:	0f b6 55 fc          	movzbl -0x4(%rbp),%edx
    8c3b:	8b 45 f8             	mov    -0x8(%rbp),%eax
    8c3e:	89 c1                	mov    %eax,%ecx
    8c40:	d3 e2                	shl    %cl,%edx
    8c42:	89 d0                	mov    %edx,%eax
    8c44:	eb 04                	jmp    8c4a <safe_lshift_func_uint8_t_u_s+0x45>
    8c46:	0f b6 45 fc          	movzbl -0x4(%rbp),%eax
    8c4a:	5d                   	pop    %rbp
    8c4b:	c3                   	retq   

0000000000008c4c <safe_lshift_func_uint8_t_u_u>:
    8c4c:	f3 0f 1e fa          	endbr64 
    8c50:	55                   	push   %rbp
    8c51:	48 89 e5             	mov    %rsp,%rbp
    8c54:	89 f8                	mov    %edi,%eax
    8c56:	89 75 f8             	mov    %esi,-0x8(%rbp)
    8c59:	88 45 fc             	mov    %al,-0x4(%rbp)
    8c5c:	83 7d f8 1f          	cmpl   $0x1f,-0x8(%rbp)
    8c60:	77 25                	ja     8c87 <safe_lshift_func_uint8_t_u_u+0x3b>
    8c62:	0f b6 55 fc          	movzbl -0x4(%rbp),%edx
    8c66:	8b 45 f8             	mov    -0x8(%rbp),%eax
    8c69:	be ff 00 00 00       	mov    $0xff,%esi
    8c6e:	89 c1                	mov    %eax,%ecx
    8c70:	d3 fe                	sar    %cl,%esi
    8c72:	89 f0                	mov    %esi,%eax
    8c74:	39 c2                	cmp    %eax,%edx
    8c76:	7f 0f                	jg     8c87 <safe_lshift_func_uint8_t_u_u+0x3b>
    8c78:	0f b6 55 fc          	movzbl -0x4(%rbp),%edx
    8c7c:	8b 45 f8             	mov    -0x8(%rbp),%eax
    8c7f:	89 c1                	mov    %eax,%ecx
    8c81:	d3 e2                	shl    %cl,%edx
    8c83:	89 d0                	mov    %edx,%eax
    8c85:	eb 04                	jmp    8c8b <safe_lshift_func_uint8_t_u_u+0x3f>
    8c87:	0f b6 45 fc          	movzbl -0x4(%rbp),%eax
    8c8b:	5d                   	pop    %rbp
    8c8c:	c3                   	retq   

0000000000008c8d <safe_rshift_func_uint8_t_u_s>:
    8c8d:	f3 0f 1e fa          	endbr64 
    8c91:	55                   	push   %rbp
    8c92:	48 89 e5             	mov    %rsp,%rbp
    8c95:	89 f8                	mov    %edi,%eax
    8c97:	89 75 f8             	mov    %esi,-0x8(%rbp)
    8c9a:	88 45 fc             	mov    %al,-0x4(%rbp)
    8c9d:	83 7d f8 00          	cmpl   $0x0,-0x8(%rbp)
    8ca1:	78 15                	js     8cb8 <safe_rshift_func_uint8_t_u_s+0x2b>
    8ca3:	83 7d f8 1f          	cmpl   $0x1f,-0x8(%rbp)
    8ca7:	7f 0f                	jg     8cb8 <safe_rshift_func_uint8_t_u_s+0x2b>
    8ca9:	0f b6 55 fc          	movzbl -0x4(%rbp),%edx
    8cad:	8b 45 f8             	mov    -0x8(%rbp),%eax
    8cb0:	89 c1                	mov    %eax,%ecx
    8cb2:	d3 fa                	sar    %cl,%edx
    8cb4:	89 d0                	mov    %edx,%eax
    8cb6:	eb 04                	jmp    8cbc <safe_rshift_func_uint8_t_u_s+0x2f>
    8cb8:	0f b6 45 fc          	movzbl -0x4(%rbp),%eax
    8cbc:	5d                   	pop    %rbp
    8cbd:	c3                   	retq   

0000000000008cbe <safe_rshift_func_uint8_t_u_u>:
    8cbe:	f3 0f 1e fa          	endbr64 
    8cc2:	55                   	push   %rbp
    8cc3:	48 89 e5             	mov    %rsp,%rbp
    8cc6:	89 f8                	mov    %edi,%eax
    8cc8:	89 75 f8             	mov    %esi,-0x8(%rbp)
    8ccb:	88 45 fc             	mov    %al,-0x4(%rbp)
    8cce:	83 7d f8 1f          	cmpl   $0x1f,-0x8(%rbp)
    8cd2:	77 0f                	ja     8ce3 <safe_rshift_func_uint8_t_u_u+0x25>
    8cd4:	0f b6 55 fc          	movzbl -0x4(%rbp),%edx
    8cd8:	8b 45 f8             	mov    -0x8(%rbp),%eax
    8cdb:	89 c1                	mov    %eax,%ecx
    8cdd:	d3 fa                	sar    %cl,%edx
    8cdf:	89 d0                	mov    %edx,%eax
    8ce1:	eb 04                	jmp    8ce7 <safe_rshift_func_uint8_t_u_u+0x29>
    8ce3:	0f b6 45 fc          	movzbl -0x4(%rbp),%eax
    8ce7:	5d                   	pop    %rbp
    8ce8:	c3                   	retq   

0000000000008ce9 <safe_unary_minus_func_uint16_t_u>:
    8ce9:	f3 0f 1e fa          	endbr64 
    8ced:	55                   	push   %rbp
    8cee:	48 89 e5             	mov    %rsp,%rbp
    8cf1:	89 f8                	mov    %edi,%eax
    8cf3:	66 89 45 fc          	mov    %ax,-0x4(%rbp)
    8cf7:	0f b7 45 fc          	movzwl -0x4(%rbp),%eax
    8cfb:	f7 d8                	neg    %eax
    8cfd:	5d                   	pop    %rbp
    8cfe:	c3                   	retq   

0000000000008cff <safe_add_func_uint16_t_u_u>:
    8cff:	f3 0f 1e fa          	endbr64 
    8d03:	55                   	push   %rbp
    8d04:	48 89 e5             	mov    %rsp,%rbp
    8d07:	89 fa                	mov    %edi,%edx
    8d09:	89 f0                	mov    %esi,%eax
    8d0b:	66 89 55 fc          	mov    %dx,-0x4(%rbp)
    8d0f:	66 89 45 f8          	mov    %ax,-0x8(%rbp)
    8d13:	0f b7 55 fc          	movzwl -0x4(%rbp),%edx
    8d17:	0f b7 45 f8          	movzwl -0x8(%rbp),%eax
    8d1b:	01 d0                	add    %edx,%eax
    8d1d:	5d                   	pop    %rbp
    8d1e:	c3                   	retq   

0000000000008d1f <safe_sub_func_uint16_t_u_u>:
    8d1f:	f3 0f 1e fa          	endbr64 
    8d23:	55                   	push   %rbp
    8d24:	48 89 e5             	mov    %rsp,%rbp
    8d27:	89 fa                	mov    %edi,%edx
    8d29:	89 f0                	mov    %esi,%eax
    8d2b:	66 89 55 fc          	mov    %dx,-0x4(%rbp)
    8d2f:	66 89 45 f8          	mov    %ax,-0x8(%rbp)
    8d33:	0f b7 45 fc          	movzwl -0x4(%rbp),%eax
    8d37:	66 2b 45 f8          	sub    -0x8(%rbp),%ax
    8d3b:	5d                   	pop    %rbp
    8d3c:	c3                   	retq   

0000000000008d3d <safe_mul_func_uint16_t_u_u>:
    8d3d:	f3 0f 1e fa          	endbr64 
    8d41:	55                   	push   %rbp
    8d42:	48 89 e5             	mov    %rsp,%rbp
    8d45:	89 fa                	mov    %edi,%edx
    8d47:	89 f0                	mov    %esi,%eax
    8d49:	66 89 55 fc          	mov    %dx,-0x4(%rbp)
    8d4d:	66 89 45 f8          	mov    %ax,-0x8(%rbp)
    8d51:	0f b7 45 fc          	movzwl -0x4(%rbp),%eax
    8d55:	66 0f af 45 f8       	imul   -0x8(%rbp),%ax
    8d5a:	5d                   	pop    %rbp
    8d5b:	c3                   	retq   

0000000000008d5c <safe_mod_func_uint16_t_u_u>:
    8d5c:	f3 0f 1e fa          	endbr64 
    8d60:	55                   	push   %rbp
    8d61:	48 89 e5             	mov    %rsp,%rbp
    8d64:	89 fa                	mov    %edi,%edx
    8d66:	89 f0                	mov    %esi,%eax
    8d68:	66 89 55 fc          	mov    %dx,-0x4(%rbp)
    8d6c:	66 89 45 f8          	mov    %ax,-0x8(%rbp)
    8d70:	66 83 7d f8 00       	cmpw   $0x0,-0x8(%rbp)
    8d75:	74 11                	je     8d88 <safe_mod_func_uint16_t_u_u+0x2c>
    8d77:	0f b7 45 fc          	movzwl -0x4(%rbp),%eax
    8d7b:	ba 00 00 00 00       	mov    $0x0,%edx
    8d80:	66 f7 75 f8          	divw   -0x8(%rbp)
    8d84:	89 d0                	mov    %edx,%eax
    8d86:	eb 04                	jmp    8d8c <safe_mod_func_uint16_t_u_u+0x30>
    8d88:	0f b7 45 fc          	movzwl -0x4(%rbp),%eax
    8d8c:	5d                   	pop    %rbp
    8d8d:	c3                   	retq   

0000000000008d8e <safe_div_func_uint16_t_u_u>:
    8d8e:	f3 0f 1e fa          	endbr64 
    8d92:	55                   	push   %rbp
    8d93:	48 89 e5             	mov    %rsp,%rbp
    8d96:	89 fa                	mov    %edi,%edx
    8d98:	89 f0                	mov    %esi,%eax
    8d9a:	66 89 55 fc          	mov    %dx,-0x4(%rbp)
    8d9e:	66 89 45 f8          	mov    %ax,-0x8(%rbp)
    8da2:	66 83 7d f8 00       	cmpw   $0x0,-0x8(%rbp)
    8da7:	74 0f                	je     8db8 <safe_div_func_uint16_t_u_u+0x2a>
    8da9:	0f b7 45 fc          	movzwl -0x4(%rbp),%eax
    8dad:	ba 00 00 00 00       	mov    $0x0,%edx
    8db2:	66 f7 75 f8          	divw   -0x8(%rbp)
    8db6:	eb 04                	jmp    8dbc <safe_div_func_uint16_t_u_u+0x2e>
    8db8:	0f b7 45 fc          	movzwl -0x4(%rbp),%eax
    8dbc:	5d                   	pop    %rbp
    8dbd:	c3                   	retq   

0000000000008dbe <safe_lshift_func_uint16_t_u_s>:
    8dbe:	f3 0f 1e fa          	endbr64 
    8dc2:	55                   	push   %rbp
    8dc3:	48 89 e5             	mov    %rsp,%rbp
    8dc6:	89 f8                	mov    %edi,%eax
    8dc8:	89 75 f8             	mov    %esi,-0x8(%rbp)
    8dcb:	66 89 45 fc          	mov    %ax,-0x4(%rbp)
    8dcf:	83 7d f8 00          	cmpl   $0x0,-0x8(%rbp)
    8dd3:	78 2b                	js     8e00 <safe_lshift_func_uint16_t_u_s+0x42>
    8dd5:	83 7d f8 1f          	cmpl   $0x1f,-0x8(%rbp)
    8dd9:	7f 25                	jg     8e00 <safe_lshift_func_uint16_t_u_s+0x42>
    8ddb:	0f b7 55 fc          	movzwl -0x4(%rbp),%edx
    8ddf:	8b 45 f8             	mov    -0x8(%rbp),%eax
    8de2:	be ff ff 00 00       	mov    $0xffff,%esi
    8de7:	89 c1                	mov    %eax,%ecx
    8de9:	d3 fe                	sar    %cl,%esi
    8deb:	89 f0                	mov    %esi,%eax
    8ded:	39 c2                	cmp    %eax,%edx
    8def:	7f 0f                	jg     8e00 <safe_lshift_func_uint16_t_u_s+0x42>
    8df1:	0f b7 55 fc          	movzwl -0x4(%rbp),%edx
    8df5:	8b 45 f8             	mov    -0x8(%rbp),%eax
    8df8:	89 c1                	mov    %eax,%ecx
    8dfa:	d3 e2                	shl    %cl,%edx
    8dfc:	89 d0                	mov    %edx,%eax
    8dfe:	eb 04                	jmp    8e04 <safe_lshift_func_uint16_t_u_s+0x46>
    8e00:	0f b7 45 fc          	movzwl -0x4(%rbp),%eax
    8e04:	5d                   	pop    %rbp
    8e05:	c3                   	retq   

0000000000008e06 <safe_lshift_func_uint16_t_u_u>:
    8e06:	f3 0f 1e fa          	endbr64 
    8e0a:	55                   	push   %rbp
    8e0b:	48 89 e5             	mov    %rsp,%rbp
    8e0e:	89 f8                	mov    %edi,%eax
    8e10:	89 75 f8             	mov    %esi,-0x8(%rbp)
    8e13:	66 89 45 fc          	mov    %ax,-0x4(%rbp)
    8e17:	83 7d f8 1f          	cmpl   $0x1f,-0x8(%rbp)
    8e1b:	77 25                	ja     8e42 <safe_lshift_func_uint16_t_u_u+0x3c>
    8e1d:	0f b7 55 fc          	movzwl -0x4(%rbp),%edx
    8e21:	8b 45 f8             	mov    -0x8(%rbp),%eax
    8e24:	be ff ff 00 00       	mov    $0xffff,%esi
    8e29:	89 c1                	mov    %eax,%ecx
    8e2b:	d3 fe                	sar    %cl,%esi
    8e2d:	89 f0                	mov    %esi,%eax
    8e2f:	39 c2                	cmp    %eax,%edx
    8e31:	7f 0f                	jg     8e42 <safe_lshift_func_uint16_t_u_u+0x3c>
    8e33:	0f b7 55 fc          	movzwl -0x4(%rbp),%edx
    8e37:	8b 45 f8             	mov    -0x8(%rbp),%eax
    8e3a:	89 c1                	mov    %eax,%ecx
    8e3c:	d3 e2                	shl    %cl,%edx
    8e3e:	89 d0                	mov    %edx,%eax
    8e40:	eb 04                	jmp    8e46 <safe_lshift_func_uint16_t_u_u+0x40>
    8e42:	0f b7 45 fc          	movzwl -0x4(%rbp),%eax
    8e46:	5d                   	pop    %rbp
    8e47:	c3                   	retq   

0000000000008e48 <safe_rshift_func_uint16_t_u_s>:
    8e48:	f3 0f 1e fa          	endbr64 
    8e4c:	55                   	push   %rbp
    8e4d:	48 89 e5             	mov    %rsp,%rbp
    8e50:	89 f8                	mov    %edi,%eax
    8e52:	89 75 f8             	mov    %esi,-0x8(%rbp)
    8e55:	66 89 45 fc          	mov    %ax,-0x4(%rbp)
    8e59:	83 7d f8 00          	cmpl   $0x0,-0x8(%rbp)
    8e5d:	78 15                	js     8e74 <safe_rshift_func_uint16_t_u_s+0x2c>
    8e5f:	83 7d f8 1f          	cmpl   $0x1f,-0x8(%rbp)
    8e63:	7f 0f                	jg     8e74 <safe_rshift_func_uint16_t_u_s+0x2c>
    8e65:	0f b7 55 fc          	movzwl -0x4(%rbp),%edx
    8e69:	8b 45 f8             	mov    -0x8(%rbp),%eax
    8e6c:	89 c1                	mov    %eax,%ecx
    8e6e:	d3 fa                	sar    %cl,%edx
    8e70:	89 d0                	mov    %edx,%eax
    8e72:	eb 04                	jmp    8e78 <safe_rshift_func_uint16_t_u_s+0x30>
    8e74:	0f b7 45 fc          	movzwl -0x4(%rbp),%eax
    8e78:	5d                   	pop    %rbp
    8e79:	c3                   	retq   

0000000000008e7a <safe_rshift_func_uint16_t_u_u>:
    8e7a:	f3 0f 1e fa          	endbr64 
    8e7e:	55                   	push   %rbp
    8e7f:	48 89 e5             	mov    %rsp,%rbp
    8e82:	89 f8                	mov    %edi,%eax
    8e84:	89 75 f8             	mov    %esi,-0x8(%rbp)
    8e87:	66 89 45 fc          	mov    %ax,-0x4(%rbp)
    8e8b:	83 7d f8 1f          	cmpl   $0x1f,-0x8(%rbp)
    8e8f:	77 0f                	ja     8ea0 <safe_rshift_func_uint16_t_u_u+0x26>
    8e91:	0f b7 55 fc          	movzwl -0x4(%rbp),%edx
    8e95:	8b 45 f8             	mov    -0x8(%rbp),%eax
    8e98:	89 c1                	mov    %eax,%ecx
    8e9a:	d3 fa                	sar    %cl,%edx
    8e9c:	89 d0                	mov    %edx,%eax
    8e9e:	eb 04                	jmp    8ea4 <safe_rshift_func_uint16_t_u_u+0x2a>
    8ea0:	0f b7 45 fc          	movzwl -0x4(%rbp),%eax
    8ea4:	5d                   	pop    %rbp
    8ea5:	c3                   	retq   

0000000000008ea6 <safe_unary_minus_func_uint32_t_u>:
    8ea6:	f3 0f 1e fa          	endbr64 
    8eaa:	55                   	push   %rbp
    8eab:	48 89 e5             	mov    %rsp,%rbp
    8eae:	89 7d fc             	mov    %edi,-0x4(%rbp)
    8eb1:	8b 45 fc             	mov    -0x4(%rbp),%eax
    8eb4:	f7 d8                	neg    %eax
    8eb6:	5d                   	pop    %rbp
    8eb7:	c3                   	retq   

0000000000008eb8 <safe_add_func_uint32_t_u_u>:
    8eb8:	f3 0f 1e fa          	endbr64 
    8ebc:	55                   	push   %rbp
    8ebd:	48 89 e5             	mov    %rsp,%rbp
    8ec0:	89 7d fc             	mov    %edi,-0x4(%rbp)
    8ec3:	89 75 f8             	mov    %esi,-0x8(%rbp)
    8ec6:	8b 55 fc             	mov    -0x4(%rbp),%edx
    8ec9:	8b 45 f8             	mov    -0x8(%rbp),%eax
    8ecc:	01 d0                	add    %edx,%eax
    8ece:	5d                   	pop    %rbp
    8ecf:	c3                   	retq   

0000000000008ed0 <safe_sub_func_uint32_t_u_u>:
    8ed0:	f3 0f 1e fa          	endbr64 
    8ed4:	55                   	push   %rbp
    8ed5:	48 89 e5             	mov    %rsp,%rbp
    8ed8:	89 7d fc             	mov    %edi,-0x4(%rbp)
    8edb:	89 75 f8             	mov    %esi,-0x8(%rbp)
    8ede:	8b 45 fc             	mov    -0x4(%rbp),%eax
    8ee1:	2b 45 f8             	sub    -0x8(%rbp),%eax
    8ee4:	5d                   	pop    %rbp
    8ee5:	c3                   	retq   

0000000000008ee6 <safe_mul_func_uint32_t_u_u>:
    8ee6:	f3 0f 1e fa          	endbr64 
    8eea:	55                   	push   %rbp
    8eeb:	48 89 e5             	mov    %rsp,%rbp
    8eee:	89 7d fc             	mov    %edi,-0x4(%rbp)
    8ef1:	89 75 f8             	mov    %esi,-0x8(%rbp)
    8ef4:	8b 45 fc             	mov    -0x4(%rbp),%eax
    8ef7:	0f af 45 f8          	imul   -0x8(%rbp),%eax
    8efb:	5d                   	pop    %rbp
    8efc:	c3                   	retq   

0000000000008efd <safe_mod_func_uint32_t_u_u>:
    8efd:	f3 0f 1e fa          	endbr64 
    8f01:	55                   	push   %rbp
    8f02:	48 89 e5             	mov    %rsp,%rbp
    8f05:	89 7d fc             	mov    %edi,-0x4(%rbp)
    8f08:	89 75 f8             	mov    %esi,-0x8(%rbp)
    8f0b:	83 7d f8 00          	cmpl   $0x0,-0x8(%rbp)
    8f0f:	74 0f                	je     8f20 <safe_mod_func_uint32_t_u_u+0x23>
    8f11:	8b 45 fc             	mov    -0x4(%rbp),%eax
    8f14:	ba 00 00 00 00       	mov    $0x0,%edx
    8f19:	f7 75 f8             	divl   -0x8(%rbp)
    8f1c:	89 d0                	mov    %edx,%eax
    8f1e:	eb 03                	jmp    8f23 <safe_mod_func_uint32_t_u_u+0x26>
    8f20:	8b 45 fc             	mov    -0x4(%rbp),%eax
    8f23:	5d                   	pop    %rbp
    8f24:	c3                   	retq   

0000000000008f25 <safe_div_func_uint32_t_u_u>:
    8f25:	f3 0f 1e fa          	endbr64 
    8f29:	55                   	push   %rbp
    8f2a:	48 89 e5             	mov    %rsp,%rbp
    8f2d:	89 7d fc             	mov    %edi,-0x4(%rbp)
    8f30:	89 75 f8             	mov    %esi,-0x8(%rbp)
    8f33:	83 7d f8 00          	cmpl   $0x0,-0x8(%rbp)
    8f37:	74 0d                	je     8f46 <safe_div_func_uint32_t_u_u+0x21>
    8f39:	8b 45 fc             	mov    -0x4(%rbp),%eax
    8f3c:	ba 00 00 00 00       	mov    $0x0,%edx
    8f41:	f7 75 f8             	divl   -0x8(%rbp)
    8f44:	eb 03                	jmp    8f49 <safe_div_func_uint32_t_u_u+0x24>
    8f46:	8b 45 fc             	mov    -0x4(%rbp),%eax
    8f49:	5d                   	pop    %rbp
    8f4a:	c3                   	retq   

0000000000008f4b <safe_lshift_func_uint32_t_u_s>:
    8f4b:	f3 0f 1e fa          	endbr64 
    8f4f:	55                   	push   %rbp
    8f50:	48 89 e5             	mov    %rsp,%rbp
    8f53:	89 7d fc             	mov    %edi,-0x4(%rbp)
    8f56:	89 75 f8             	mov    %esi,-0x8(%rbp)
    8f59:	83 7d f8 00          	cmpl   $0x0,-0x8(%rbp)
    8f5d:	78 27                	js     8f86 <safe_lshift_func_uint32_t_u_s+0x3b>
    8f5f:	83 7d f8 1f          	cmpl   $0x1f,-0x8(%rbp)
    8f63:	7f 21                	jg     8f86 <safe_lshift_func_uint32_t_u_s+0x3b>
    8f65:	8b 45 f8             	mov    -0x8(%rbp),%eax
    8f68:	ba ff ff ff ff       	mov    $0xffffffff,%edx
    8f6d:	89 c1                	mov    %eax,%ecx
    8f6f:	d3 ea                	shr    %cl,%edx
    8f71:	89 d0                	mov    %edx,%eax
    8f73:	39 45 fc             	cmp    %eax,-0x4(%rbp)
    8f76:	77 0e                	ja     8f86 <safe_lshift_func_uint32_t_u_s+0x3b>
    8f78:	8b 45 f8             	mov    -0x8(%rbp),%eax
    8f7b:	8b 55 fc             	mov    -0x4(%rbp),%edx
    8f7e:	89 c1                	mov    %eax,%ecx
    8f80:	d3 e2                	shl    %cl,%edx
    8f82:	89 d0                	mov    %edx,%eax
    8f84:	eb 03                	jmp    8f89 <safe_lshift_func_uint32_t_u_s+0x3e>
    8f86:	8b 45 fc             	mov    -0x4(%rbp),%eax
    8f89:	5d                   	pop    %rbp
    8f8a:	c3                   	retq   

0000000000008f8b <safe_lshift_func_uint32_t_u_u>:
    8f8b:	f3 0f 1e fa          	endbr64 
    8f8f:	55                   	push   %rbp
    8f90:	48 89 e5             	mov    %rsp,%rbp
    8f93:	89 7d fc             	mov    %edi,-0x4(%rbp)
    8f96:	89 75 f8             	mov    %esi,-0x8(%rbp)
    8f99:	83 7d f8 1f          	cmpl   $0x1f,-0x8(%rbp)
    8f9d:	77 21                	ja     8fc0 <safe_lshift_func_uint32_t_u_u+0x35>
    8f9f:	8b 45 f8             	mov    -0x8(%rbp),%eax
    8fa2:	ba ff ff ff ff       	mov    $0xffffffff,%edx
    8fa7:	89 c1                	mov    %eax,%ecx
    8fa9:	d3 ea                	shr    %cl,%edx
    8fab:	89 d0                	mov    %edx,%eax
    8fad:	39 45 fc             	cmp    %eax,-0x4(%rbp)
    8fb0:	77 0e                	ja     8fc0 <safe_lshift_func_uint32_t_u_u+0x35>
    8fb2:	8b 45 f8             	mov    -0x8(%rbp),%eax
    8fb5:	8b 55 fc             	mov    -0x4(%rbp),%edx
    8fb8:	89 c1                	mov    %eax,%ecx
    8fba:	d3 e2                	shl    %cl,%edx
    8fbc:	89 d0                	mov    %edx,%eax
    8fbe:	eb 03                	jmp    8fc3 <safe_lshift_func_uint32_t_u_u+0x38>
    8fc0:	8b 45 fc             	mov    -0x4(%rbp),%eax
    8fc3:	5d                   	pop    %rbp
    8fc4:	c3                   	retq   

0000000000008fc5 <safe_rshift_func_uint32_t_u_s>:
    8fc5:	f3 0f 1e fa          	endbr64 
    8fc9:	55                   	push   %rbp
    8fca:	48 89 e5             	mov    %rsp,%rbp
    8fcd:	89 7d fc             	mov    %edi,-0x4(%rbp)
    8fd0:	89 75 f8             	mov    %esi,-0x8(%rbp)
    8fd3:	83 7d f8 00          	cmpl   $0x0,-0x8(%rbp)
    8fd7:	78 14                	js     8fed <safe_rshift_func_uint32_t_u_s+0x28>
    8fd9:	83 7d f8 1f          	cmpl   $0x1f,-0x8(%rbp)
    8fdd:	7f 0e                	jg     8fed <safe_rshift_func_uint32_t_u_s+0x28>
    8fdf:	8b 45 f8             	mov    -0x8(%rbp),%eax
    8fe2:	8b 55 fc             	mov    -0x4(%rbp),%edx
    8fe5:	89 c1                	mov    %eax,%ecx
    8fe7:	d3 ea                	shr    %cl,%edx
    8fe9:	89 d0                	mov    %edx,%eax
    8feb:	eb 03                	jmp    8ff0 <safe_rshift_func_uint32_t_u_s+0x2b>
    8fed:	8b 45 fc             	mov    -0x4(%rbp),%eax
    8ff0:	5d                   	pop    %rbp
    8ff1:	c3                   	retq   

0000000000008ff2 <safe_rshift_func_uint32_t_u_u>:
    8ff2:	f3 0f 1e fa          	endbr64 
    8ff6:	55                   	push   %rbp
    8ff7:	48 89 e5             	mov    %rsp,%rbp
    8ffa:	89 7d fc             	mov    %edi,-0x4(%rbp)
    8ffd:	89 75 f8             	mov    %esi,-0x8(%rbp)
    9000:	83 7d f8 1f          	cmpl   $0x1f,-0x8(%rbp)
    9004:	77 0e                	ja     9014 <safe_rshift_func_uint32_t_u_u+0x22>
    9006:	8b 45 f8             	mov    -0x8(%rbp),%eax
    9009:	8b 55 fc             	mov    -0x4(%rbp),%edx
    900c:	89 c1                	mov    %eax,%ecx
    900e:	d3 ea                	shr    %cl,%edx
    9010:	89 d0                	mov    %edx,%eax
    9012:	eb 03                	jmp    9017 <safe_rshift_func_uint32_t_u_u+0x25>
    9014:	8b 45 fc             	mov    -0x4(%rbp),%eax
    9017:	5d                   	pop    %rbp
    9018:	c3                   	retq   

0000000000009019 <safe_unary_minus_func_uint64_t_u>:
    9019:	f3 0f 1e fa          	endbr64 
    901d:	55                   	push   %rbp
    901e:	48 89 e5             	mov    %rsp,%rbp
    9021:	48 89 7d f8          	mov    %rdi,-0x8(%rbp)
    9025:	48 8b 45 f8          	mov    -0x8(%rbp),%rax
    9029:	48 f7 d8             	neg    %rax
    902c:	5d                   	pop    %rbp
    902d:	c3                   	retq   

000000000000902e <safe_add_func_uint64_t_u_u>:
    902e:	f3 0f 1e fa          	endbr64 
    9032:	55                   	push   %rbp
    9033:	48 89 e5             	mov    %rsp,%rbp
    9036:	48 89 7d f8          	mov    %rdi,-0x8(%rbp)
    903a:	48 89 75 f0          	mov    %rsi,-0x10(%rbp)
    903e:	48 8b 55 f8          	mov    -0x8(%rbp),%rdx
    9042:	48 8b 45 f0          	mov    -0x10(%rbp),%rax
    9046:	48 01 d0             	add    %rdx,%rax
    9049:	5d                   	pop    %rbp
    904a:	c3                   	retq   

000000000000904b <safe_sub_func_uint64_t_u_u>:
    904b:	f3 0f 1e fa          	endbr64 
    904f:	55                   	push   %rbp
    9050:	48 89 e5             	mov    %rsp,%rbp
    9053:	48 89 7d f8          	mov    %rdi,-0x8(%rbp)
    9057:	48 89 75 f0          	mov    %rsi,-0x10(%rbp)
    905b:	48 8b 45 f8          	mov    -0x8(%rbp),%rax
    905f:	48 2b 45 f0          	sub    -0x10(%rbp),%rax
    9063:	5d                   	pop    %rbp
    9064:	c3                   	retq   

0000000000009065 <safe_mul_func_uint64_t_u_u>:
    9065:	f3 0f 1e fa          	endbr64 
    9069:	55                   	push   %rbp
    906a:	48 89 e5             	mov    %rsp,%rbp
    906d:	48 89 7d f8          	mov    %rdi,-0x8(%rbp)
    9071:	48 89 75 f0          	mov    %rsi,-0x10(%rbp)
    9075:	48 8b 45 f8          	mov    -0x8(%rbp),%rax
    9079:	48 0f af 45 f0       	imul   -0x10(%rbp),%rax
    907e:	5d                   	pop    %rbp
    907f:	c3                   	retq   

0000000000009080 <safe_mod_func_uint64_t_u_u>:
    9080:	f3 0f 1e fa          	endbr64 
    9084:	55                   	push   %rbp
    9085:	48 89 e5             	mov    %rsp,%rbp
    9088:	48 89 7d f8          	mov    %rdi,-0x8(%rbp)
    908c:	48 89 75 f0          	mov    %rsi,-0x10(%rbp)
    9090:	48 83 7d f0 00       	cmpq   $0x0,-0x10(%rbp)
    9095:	74 12                	je     90a9 <safe_mod_func_uint64_t_u_u+0x29>
    9097:	48 8b 45 f8          	mov    -0x8(%rbp),%rax
    909b:	ba 00 00 00 00       	mov    $0x0,%edx
    90a0:	48 f7 75 f0          	divq   -0x10(%rbp)
    90a4:	48 89 d0             	mov    %rdx,%rax
    90a7:	eb 04                	jmp    90ad <safe_mod_func_uint64_t_u_u+0x2d>
    90a9:	48 8b 45 f8          	mov    -0x8(%rbp),%rax
    90ad:	5d                   	pop    %rbp
    90ae:	c3                   	retq   

00000000000090af <safe_div_func_uint64_t_u_u>:
    90af:	f3 0f 1e fa          	endbr64 
    90b3:	55                   	push   %rbp
    90b4:	48 89 e5             	mov    %rsp,%rbp
    90b7:	48 89 7d f8          	mov    %rdi,-0x8(%rbp)
    90bb:	48 89 75 f0          	mov    %rsi,-0x10(%rbp)
    90bf:	48 83 7d f0 00       	cmpq   $0x0,-0x10(%rbp)
    90c4:	74 0f                	je     90d5 <safe_div_func_uint64_t_u_u+0x26>
    90c6:	48 8b 45 f8          	mov    -0x8(%rbp),%rax
    90ca:	ba 00 00 00 00       	mov    $0x0,%edx
    90cf:	48 f7 75 f0          	divq   -0x10(%rbp)
    90d3:	eb 04                	jmp    90d9 <safe_div_func_uint64_t_u_u+0x2a>
    90d5:	48 8b 45 f8          	mov    -0x8(%rbp),%rax
    90d9:	5d                   	pop    %rbp
    90da:	c3                   	retq   

00000000000090db <safe_lshift_func_uint64_t_u_s>:
    90db:	f3 0f 1e fa          	endbr64 
    90df:	55                   	push   %rbp
    90e0:	48 89 e5             	mov    %rsp,%rbp
    90e3:	48 89 7d f8          	mov    %rdi,-0x8(%rbp)
    90e7:	89 75 f4             	mov    %esi,-0xc(%rbp)
    90ea:	83 7d f4 00          	cmpl   $0x0,-0xc(%rbp)
    90ee:	78 2f                	js     911f <safe_lshift_func_uint64_t_u_s+0x44>
    90f0:	83 7d f4 1f          	cmpl   $0x1f,-0xc(%rbp)
    90f4:	7f 29                	jg     911f <safe_lshift_func_uint64_t_u_s+0x44>
    90f6:	8b 45 f4             	mov    -0xc(%rbp),%eax
    90f9:	48 c7 c2 ff ff ff ff 	mov    $0xffffffffffffffff,%rdx
    9100:	89 c1                	mov    %eax,%ecx
    9102:	48 d3 ea             	shr    %cl,%rdx
    9105:	48 89 d0             	mov    %rdx,%rax
    9108:	48 39 45 f8          	cmp    %rax,-0x8(%rbp)
    910c:	77 11                	ja     911f <safe_lshift_func_uint64_t_u_s+0x44>
    910e:	8b 45 f4             	mov    -0xc(%rbp),%eax
    9111:	48 8b 55 f8          	mov    -0x8(%rbp),%rdx
    9115:	89 c1                	mov    %eax,%ecx
    9117:	48 d3 e2             	shl    %cl,%rdx
    911a:	48 89 d0             	mov    %rdx,%rax
    911d:	eb 04                	jmp    9123 <safe_lshift_func_uint64_t_u_s+0x48>
    911f:	48 8b 45 f8          	mov    -0x8(%rbp),%rax
    9123:	5d                   	pop    %rbp
    9124:	c3                   	retq   

0000000000009125 <safe_lshift_func_uint64_t_u_u>:
    9125:	f3 0f 1e fa          	endbr64 
    9129:	55                   	push   %rbp
    912a:	48 89 e5             	mov    %rsp,%rbp
    912d:	48 89 7d f8          	mov    %rdi,-0x8(%rbp)
    9131:	89 75 f4             	mov    %esi,-0xc(%rbp)
    9134:	83 7d f4 1f          	cmpl   $0x1f,-0xc(%rbp)
    9138:	77 29                	ja     9163 <safe_lshift_func_uint64_t_u_u+0x3e>
    913a:	8b 45 f4             	mov    -0xc(%rbp),%eax
    913d:	48 c7 c2 ff ff ff ff 	mov    $0xffffffffffffffff,%rdx
    9144:	89 c1                	mov    %eax,%ecx
    9146:	48 d3 ea             	shr    %cl,%rdx
    9149:	48 89 d0             	mov    %rdx,%rax
    914c:	48 39 45 f8          	cmp    %rax,-0x8(%rbp)
    9150:	77 11                	ja     9163 <safe_lshift_func_uint64_t_u_u+0x3e>
    9152:	8b 45 f4             	mov    -0xc(%rbp),%eax
    9155:	48 8b 55 f8          	mov    -0x8(%rbp),%rdx
    9159:	89 c1                	mov    %eax,%ecx
    915b:	48 d3 e2             	shl    %cl,%rdx
    915e:	48 89 d0             	mov    %rdx,%rax
    9161:	eb 04                	jmp    9167 <safe_lshift_func_uint64_t_u_u+0x42>
    9163:	48 8b 45 f8          	mov    -0x8(%rbp),%rax
    9167:	5d                   	pop    %rbp
    9168:	c3                   	retq   

0000000000009169 <safe_rshift_func_uint64_t_u_s>:
    9169:	f3 0f 1e fa          	endbr64 
    916d:	55                   	push   %rbp
    916e:	48 89 e5             	mov    %rsp,%rbp
    9171:	48 89 7d f8          	mov    %rdi,-0x8(%rbp)
    9175:	89 75 f4             	mov    %esi,-0xc(%rbp)
    9178:	83 7d f4 00          	cmpl   $0x0,-0xc(%rbp)
    917c:	78 17                	js     9195 <safe_rshift_func_uint64_t_u_s+0x2c>
    917e:	83 7d f4 1f          	cmpl   $0x1f,-0xc(%rbp)
    9182:	7f 11                	jg     9195 <safe_rshift_func_uint64_t_u_s+0x2c>
    9184:	8b 45 f4             	mov    -0xc(%rbp),%eax
    9187:	48 8b 55 f8          	mov    -0x8(%rbp),%rdx
    918b:	89 c1                	mov    %eax,%ecx
    918d:	48 d3 ea             	shr    %cl,%rdx
    9190:	48 89 d0             	mov    %rdx,%rax
    9193:	eb 04                	jmp    9199 <safe_rshift_func_uint64_t_u_s+0x30>
    9195:	48 8b 45 f8          	mov    -0x8(%rbp),%rax
    9199:	5d                   	pop    %rbp
    919a:	c3                   	retq   

000000000000919b <safe_rshift_func_uint64_t_u_u>:
    919b:	f3 0f 1e fa          	endbr64 
    919f:	55                   	push   %rbp
    91a0:	48 89 e5             	mov    %rsp,%rbp
    91a3:	48 89 7d f8          	mov    %rdi,-0x8(%rbp)
    91a7:	89 75 f4             	mov    %esi,-0xc(%rbp)
    91aa:	83 7d f4 1f          	cmpl   $0x1f,-0xc(%rbp)
    91ae:	77 11                	ja     91c1 <safe_rshift_func_uint64_t_u_u+0x26>
    91b0:	8b 45 f4             	mov    -0xc(%rbp),%eax
    91b3:	48 8b 55 f8          	mov    -0x8(%rbp),%rdx
    91b7:	89 c1                	mov    %eax,%ecx
    91b9:	48 d3 ea             	shr    %cl,%rdx
    91bc:	48 89 d0             	mov    %rdx,%rax
    91bf:	eb 04                	jmp    91c5 <safe_rshift_func_uint64_t_u_u+0x2a>
    91c1:	48 8b 45 f8          	mov    -0x8(%rbp),%rax
    91c5:	5d                   	pop    %rbp
    91c6:	c3                   	retq   

00000000000091c7 <safe_add_func_float_f_f>:
    91c7:	f3 0f 1e fa          	endbr64 
    91cb:	55                   	push   %rbp
    91cc:	48 89 e5             	mov    %rsp,%rbp
    91cf:	f3 0f 11 45 fc       	movss  %xmm0,-0x4(%rbp)
    91d4:	f3 0f 11 4d f8       	movss  %xmm1,-0x8(%rbp)
    91d9:	f3 0f 10 4d fc       	movss  -0x4(%rbp),%xmm1
    91de:	f3 0f 10 05 42 d1 00 	movss  0xd142(%rip),%xmm0        # 16328 <l_62.4707+0x8>
    91e5:	00 
    91e6:	f3 0f 59 c8          	mulss  %xmm0,%xmm1
    91ea:	f3 0f 10 55 f8       	movss  -0x8(%rbp),%xmm2
    91ef:	f3 0f 10 05 31 d1 00 	movss  0xd131(%rip),%xmm0        # 16328 <l_62.4707+0x8>
    91f6:	00 
    91f7:	f3 0f 59 c2          	mulss  %xmm2,%xmm0
    91fb:	f3 0f 58 c1          	addss  %xmm1,%xmm0
    91ff:	f3 0f 10 0d 29 d1 00 	movss  0xd129(%rip),%xmm1        # 16330 <l_62.4707+0x10>
    9206:	00 
    9207:	0f 54 c1             	andps  %xmm1,%xmm0
    920a:	0f 2f 05 2f d1 00 00 	comiss 0xd12f(%rip),%xmm0        # 16340 <l_62.4707+0x20>
    9211:	76 07                	jbe    921a <safe_add_func_float_f_f+0x53>
    9213:	f3 0f 10 45 fc       	movss  -0x4(%rbp),%xmm0
    9218:	eb 0a                	jmp    9224 <safe_add_func_float_f_f+0x5d>
    921a:	f3 0f 10 45 fc       	movss  -0x4(%rbp),%xmm0
    921f:	f3 0f 58 45 f8       	addss  -0x8(%rbp),%xmm0
    9224:	5d                   	pop    %rbp
    9225:	c3                   	retq   

0000000000009226 <safe_sub_func_float_f_f>:
    9226:	f3 0f 1e fa          	endbr64 
    922a:	55                   	push   %rbp
    922b:	48 89 e5             	mov    %rsp,%rbp
    922e:	f3 0f 11 45 fc       	movss  %xmm0,-0x4(%rbp)
    9233:	f3 0f 11 4d f8       	movss  %xmm1,-0x8(%rbp)
    9238:	f3 0f 10 4d fc       	movss  -0x4(%rbp),%xmm1
    923d:	f3 0f 10 05 e3 d0 00 	movss  0xd0e3(%rip),%xmm0        # 16328 <l_62.4707+0x8>
    9244:	00 
    9245:	f3 0f 59 c1          	mulss  %xmm1,%xmm0
    9249:	f3 0f 10 55 f8       	movss  -0x8(%rbp),%xmm2
    924e:	f3 0f 10 0d d2 d0 00 	movss  0xd0d2(%rip),%xmm1        # 16328 <l_62.4707+0x8>
    9255:	00 
    9256:	f3 0f 59 ca          	mulss  %xmm2,%xmm1
    925a:	f3 0f 5c c1          	subss  %xmm1,%xmm0
    925e:	f3 0f 10 0d ca d0 00 	movss  0xd0ca(%rip),%xmm1        # 16330 <l_62.4707+0x10>
    9265:	00 
    9266:	0f 54 c1             	andps  %xmm1,%xmm0
    9269:	0f 2f 05 d0 d0 00 00 	comiss 0xd0d0(%rip),%xmm0        # 16340 <l_62.4707+0x20>
    9270:	76 07                	jbe    9279 <safe_sub_func_float_f_f+0x53>
    9272:	f3 0f 10 45 fc       	movss  -0x4(%rbp),%xmm0
    9277:	eb 0a                	jmp    9283 <safe_sub_func_float_f_f+0x5d>
    9279:	f3 0f 10 45 fc       	movss  -0x4(%rbp),%xmm0
    927e:	f3 0f 5c 45 f8       	subss  -0x8(%rbp),%xmm0
    9283:	5d                   	pop    %rbp
    9284:	c3                   	retq   

0000000000009285 <safe_mul_func_float_f_f>:
    9285:	f3 0f 1e fa          	endbr64 
    9289:	55                   	push   %rbp
    928a:	48 89 e5             	mov    %rsp,%rbp
    928d:	f3 0f 11 45 fc       	movss  %xmm0,-0x4(%rbp)
    9292:	f3 0f 11 4d f8       	movss  %xmm1,-0x8(%rbp)
    9297:	f3 0f 10 4d fc       	movss  -0x4(%rbp),%xmm1
    929c:	f3 0f 10 05 a0 d0 00 	movss  0xd0a0(%rip),%xmm0        # 16344 <l_62.4707+0x24>
    92a3:	00 
    92a4:	f3 0f 59 c8          	mulss  %xmm0,%xmm1
    92a8:	f3 0f 10 55 f8       	movss  -0x8(%rbp),%xmm2
    92ad:	f3 0f 10 05 93 d0 00 	movss  0xd093(%rip),%xmm0        # 16348 <l_62.4707+0x28>
    92b4:	00 
    92b5:	f3 0f 59 c2          	mulss  %xmm2,%xmm0
    92b9:	f3 0f 59 c1          	mulss  %xmm1,%xmm0
    92bd:	f3 0f 10 0d 6b d0 00 	movss  0xd06b(%rip),%xmm1        # 16330 <l_62.4707+0x10>
    92c4:	00 
    92c5:	0f 54 c1             	andps  %xmm1,%xmm0
    92c8:	0f 2f 05 7d d0 00 00 	comiss 0xd07d(%rip),%xmm0        # 1634c <l_62.4707+0x2c>
    92cf:	76 07                	jbe    92d8 <safe_mul_func_float_f_f+0x53>
    92d1:	f3 0f 10 45 fc       	movss  -0x4(%rbp),%xmm0
    92d6:	eb 0a                	jmp    92e2 <safe_mul_func_float_f_f+0x5d>
    92d8:	f3 0f 10 45 fc       	movss  -0x4(%rbp),%xmm0
    92dd:	f3 0f 59 45 f8       	mulss  -0x8(%rbp),%xmm0
    92e2:	5d                   	pop    %rbp
    92e3:	c3                   	retq   

00000000000092e4 <safe_div_func_float_f_f>:
    92e4:	f3 0f 1e fa          	endbr64 
    92e8:	55                   	push   %rbp
    92e9:	48 89 e5             	mov    %rsp,%rbp
    92ec:	f3 0f 11 45 fc       	movss  %xmm0,-0x4(%rbp)
    92f1:	f3 0f 11 4d f8       	movss  %xmm1,-0x8(%rbp)
    92f6:	f3 0f 10 45 f8       	movss  -0x8(%rbp),%xmm0
    92fb:	f3 0f 10 0d 2d d0 00 	movss  0xd02d(%rip),%xmm1        # 16330 <l_62.4707+0x10>
    9302:	00 
    9303:	0f 54 c8             	andps  %xmm0,%xmm1
    9306:	f3 0f 10 05 42 d0 00 	movss  0xd042(%rip),%xmm0        # 16350 <l_62.4707+0x30>
    930d:	00 
    930e:	0f 2f c1             	comiss %xmm1,%xmm0
    9311:	0f 97 c0             	seta   %al
    9314:	83 f0 01             	xor    $0x1,%eax
    9317:	84 c0                	test   %al,%al
    9319:	75 56                	jne    9371 <safe_div_func_float_f_f+0x8d>
    931b:	66 0f ef c0          	pxor   %xmm0,%xmm0
    931f:	0f 2e 45 f8          	ucomiss -0x8(%rbp),%xmm0
    9323:	7a 0a                	jp     932f <safe_div_func_float_f_f+0x4b>
    9325:	66 0f ef c0          	pxor   %xmm0,%xmm0
    9329:	0f 2e 45 f8          	ucomiss -0x8(%rbp),%xmm0
    932d:	74 4e                	je     937d <safe_div_func_float_f_f+0x99>
    932f:	f3 0f 10 4d fc       	movss  -0x4(%rbp),%xmm1
    9334:	f3 0f 10 05 18 d0 00 	movss  0xd018(%rip),%xmm0        # 16354 <l_62.4707+0x34>
    933b:	00 
    933c:	f3 0f 59 c1          	mulss  %xmm1,%xmm0
    9340:	f3 0f 10 55 f8       	movss  -0x8(%rbp),%xmm2
    9345:	f3 0f 10 0d 0b d0 00 	movss  0xd00b(%rip),%xmm1        # 16358 <l_62.4707+0x38>
    934c:	00 
    934d:	f3 0f 59 ca          	mulss  %xmm2,%xmm1
    9351:	f3 0f 5e c1          	divss  %xmm1,%xmm0
    9355:	f3 0f 10 0d d3 cf 00 	movss  0xcfd3(%rip),%xmm1        # 16330 <l_62.4707+0x10>
    935c:	00 
    935d:	0f 54 c1             	andps  %xmm1,%xmm0
    9360:	0f 2f 05 f5 cf 00 00 	comiss 0xcff5(%rip),%xmm0        # 1635c <l_62.4707+0x3c>
    9367:	0f 97 c0             	seta   %al
    936a:	83 f0 01             	xor    $0x1,%eax
    936d:	84 c0                	test   %al,%al
    936f:	74 0c                	je     937d <safe_div_func_float_f_f+0x99>
    9371:	f3 0f 10 45 fc       	movss  -0x4(%rbp),%xmm0
    9376:	f3 0f 5e 45 f8       	divss  -0x8(%rbp),%xmm0
    937b:	eb 05                	jmp    9382 <safe_div_func_float_f_f+0x9e>
    937d:	f3 0f 10 45 fc       	movss  -0x4(%rbp),%xmm0
    9382:	5d                   	pop    %rbp
    9383:	c3                   	retq   

0000000000009384 <safe_add_func_double_f_f>:
    9384:	f3 0f 1e fa          	endbr64 
    9388:	55                   	push   %rbp
    9389:	48 89 e5             	mov    %rsp,%rbp
    938c:	f2 0f 11 45 f8       	movsd  %xmm0,-0x8(%rbp)
    9391:	f2 0f 11 4d f0       	movsd  %xmm1,-0x10(%rbp)
    9396:	f2 0f 10 4d f8       	movsd  -0x8(%rbp),%xmm1
    939b:	f2 0f 10 05 bd cf 00 	movsd  0xcfbd(%rip),%xmm0        # 16360 <l_62.4707+0x40>
    93a2:	00 
    93a3:	f2 0f 59 c8          	mulsd  %xmm0,%xmm1
    93a7:	f2 0f 10 55 f0       	movsd  -0x10(%rbp),%xmm2
    93ac:	f2 0f 10 05 ac cf 00 	movsd  0xcfac(%rip),%xmm0        # 16360 <l_62.4707+0x40>
    93b3:	00 
    93b4:	f2 0f 59 c2          	mulsd  %xmm2,%xmm0
    93b8:	f2 0f 58 c1          	addsd  %xmm1,%xmm0
    93bc:	f3 0f 7e 0d ac cf 00 	movq   0xcfac(%rip),%xmm1        # 16370 <l_62.4707+0x50>
    93c3:	00 
    93c4:	66 0f 54 c1          	andpd  %xmm1,%xmm0
    93c8:	66 0f 2f 05 b0 cf 00 	comisd 0xcfb0(%rip),%xmm0        # 16380 <l_62.4707+0x60>
    93cf:	00 
    93d0:	76 07                	jbe    93d9 <safe_add_func_double_f_f+0x55>
    93d2:	f2 0f 10 45 f8       	movsd  -0x8(%rbp),%xmm0
    93d7:	eb 0a                	jmp    93e3 <safe_add_func_double_f_f+0x5f>
    93d9:	f2 0f 10 45 f8       	movsd  -0x8(%rbp),%xmm0
    93de:	f2 0f 58 45 f0       	addsd  -0x10(%rbp),%xmm0
    93e3:	5d                   	pop    %rbp
    93e4:	c3                   	retq   

00000000000093e5 <safe_sub_func_double_f_f>:
    93e5:	f3 0f 1e fa          	endbr64 
    93e9:	55                   	push   %rbp
    93ea:	48 89 e5             	mov    %rsp,%rbp
    93ed:	f2 0f 11 45 f8       	movsd  %xmm0,-0x8(%rbp)
    93f2:	f2 0f 11 4d f0       	movsd  %xmm1,-0x10(%rbp)
    93f7:	f2 0f 10 4d f8       	movsd  -0x8(%rbp),%xmm1
    93fc:	f2 0f 10 05 5c cf 00 	movsd  0xcf5c(%rip),%xmm0        # 16360 <l_62.4707+0x40>
    9403:	00 
    9404:	f2 0f 59 c1          	mulsd  %xmm1,%xmm0
    9408:	f2 0f 10 55 f0       	movsd  -0x10(%rbp),%xmm2
    940d:	f2 0f 10 0d 4b cf 00 	movsd  0xcf4b(%rip),%xmm1        # 16360 <l_62.4707+0x40>
    9414:	00 
    9415:	f2 0f 59 ca          	mulsd  %xmm2,%xmm1
    9419:	f2 0f 5c c1          	subsd  %xmm1,%xmm0
    941d:	f3 0f 7e 0d 4b cf 00 	movq   0xcf4b(%rip),%xmm1        # 16370 <l_62.4707+0x50>
    9424:	00 
    9425:	66 0f 54 c1          	andpd  %xmm1,%xmm0
    9429:	66 0f 2f 05 4f cf 00 	comisd 0xcf4f(%rip),%xmm0        # 16380 <l_62.4707+0x60>
    9430:	00 
    9431:	76 07                	jbe    943a <safe_sub_func_double_f_f+0x55>
    9433:	f2 0f 10 45 f8       	movsd  -0x8(%rbp),%xmm0
    9438:	eb 0a                	jmp    9444 <safe_sub_func_double_f_f+0x5f>
    943a:	f2 0f 10 45 f8       	movsd  -0x8(%rbp),%xmm0
    943f:	f2 0f 5c 45 f0       	subsd  -0x10(%rbp),%xmm0
    9444:	5d                   	pop    %rbp
    9445:	c3                   	retq   

0000000000009446 <safe_mul_func_double_f_f>:
    9446:	f3 0f 1e fa          	endbr64 
    944a:	55                   	push   %rbp
    944b:	48 89 e5             	mov    %rsp,%rbp
    944e:	f2 0f 11 45 f8       	movsd  %xmm0,-0x8(%rbp)
    9453:	f2 0f 11 4d f0       	movsd  %xmm1,-0x10(%rbp)
    9458:	f2 0f 10 4d f8       	movsd  -0x8(%rbp),%xmm1
    945d:	f2 0f 10 05 23 cf 00 	movsd  0xcf23(%rip),%xmm0        # 16388 <l_62.4707+0x68>
    9464:	00 
    9465:	f2 0f 59 c8          	mulsd  %xmm0,%xmm1
    9469:	f2 0f 10 55 f0       	movsd  -0x10(%rbp),%xmm2
    946e:	f2 0f 10 05 1a cf 00 	movsd  0xcf1a(%rip),%xmm0        # 16390 <l_62.4707+0x70>
    9475:	00 
    9476:	f2 0f 59 c2          	mulsd  %xmm2,%xmm0
    947a:	f2 0f 59 c1          	mulsd  %xmm1,%xmm0
    947e:	f3 0f 7e 0d ea ce 00 	movq   0xceea(%rip),%xmm1        # 16370 <l_62.4707+0x50>
    9485:	00 
    9486:	66 0f 54 c1          	andpd  %xmm1,%xmm0
    948a:	66 0f 2f 05 06 cf 00 	comisd 0xcf06(%rip),%xmm0        # 16398 <l_62.4707+0x78>
    9491:	00 
    9492:	76 07                	jbe    949b <safe_mul_func_double_f_f+0x55>
    9494:	f2 0f 10 45 f8       	movsd  -0x8(%rbp),%xmm0
    9499:	eb 0a                	jmp    94a5 <safe_mul_func_double_f_f+0x5f>
    949b:	f2 0f 10 45 f8       	movsd  -0x8(%rbp),%xmm0
    94a0:	f2 0f 59 45 f0       	mulsd  -0x10(%rbp),%xmm0
    94a5:	5d                   	pop    %rbp
    94a6:	c3                   	retq   

00000000000094a7 <safe_div_func_double_f_f>:
    94a7:	f3 0f 1e fa          	endbr64 
    94ab:	55                   	push   %rbp
    94ac:	48 89 e5             	mov    %rsp,%rbp
    94af:	f2 0f 11 45 f8       	movsd  %xmm0,-0x8(%rbp)
    94b4:	f2 0f 11 4d f0       	movsd  %xmm1,-0x10(%rbp)
    94b9:	f2 0f 10 45 f0       	movsd  -0x10(%rbp),%xmm0
    94be:	f3 0f 7e 0d aa ce 00 	movq   0xceaa(%rip),%xmm1        # 16370 <l_62.4707+0x50>
    94c5:	00 
    94c6:	66 0f 54 c8          	andpd  %xmm0,%xmm1
    94ca:	f2 0f 10 05 ce ce 00 	movsd  0xcece(%rip),%xmm0        # 163a0 <l_62.4707+0x80>
    94d1:	00 
    94d2:	66 0f 2f c1          	comisd %xmm1,%xmm0
    94d6:	0f 97 c0             	seta   %al
    94d9:	83 f0 01             	xor    $0x1,%eax
    94dc:	84 c0                	test   %al,%al
    94de:	75 5a                	jne    953a <safe_div_func_double_f_f+0x93>
    94e0:	66 0f ef c0          	pxor   %xmm0,%xmm0
    94e4:	66 0f 2e 45 f0       	ucomisd -0x10(%rbp),%xmm0
    94e9:	7a 0b                	jp     94f6 <safe_div_func_double_f_f+0x4f>
    94eb:	66 0f ef c0          	pxor   %xmm0,%xmm0
    94ef:	66 0f 2e 45 f0       	ucomisd -0x10(%rbp),%xmm0
    94f4:	74 50                	je     9546 <safe_div_func_double_f_f+0x9f>
    94f6:	f2 0f 10 4d f8       	movsd  -0x8(%rbp),%xmm1
    94fb:	f2 0f 10 05 a5 ce 00 	movsd  0xcea5(%rip),%xmm0        # 163a8 <l_62.4707+0x88>
    9502:	00 
    9503:	f2 0f 59 c1          	mulsd  %xmm1,%xmm0
    9507:	f2 0f 10 55 f0       	movsd  -0x10(%rbp),%xmm2
    950c:	f2 0f 10 0d 9c ce 00 	movsd  0xce9c(%rip),%xmm1        # 163b0 <l_62.4707+0x90>
    9513:	00 
    9514:	f2 0f 59 ca          	mulsd  %xmm2,%xmm1
    9518:	f2 0f 5e c1          	divsd  %xmm1,%xmm0
    951c:	f3 0f 7e 0d 4c ce 00 	movq   0xce4c(%rip),%xmm1        # 16370 <l_62.4707+0x50>
    9523:	00 
    9524:	66 0f 54 c1          	andpd  %xmm1,%xmm0
    9528:	66 0f 2f 05 88 ce 00 	comisd 0xce88(%rip),%xmm0        # 163b8 <l_62.4707+0x98>
    952f:	00 
    9530:	0f 97 c0             	seta   %al
    9533:	83 f0 01             	xor    $0x1,%eax
    9536:	84 c0                	test   %al,%al
    9538:	74 0c                	je     9546 <safe_div_func_double_f_f+0x9f>
    953a:	f2 0f 10 45 f8       	movsd  -0x8(%rbp),%xmm0
    953f:	f2 0f 5e 45 f0       	divsd  -0x10(%rbp),%xmm0
    9544:	eb 05                	jmp    954b <safe_div_func_double_f_f+0xa4>
    9546:	f2 0f 10 45 f8       	movsd  -0x8(%rbp),%xmm0
    954b:	5d                   	pop    %rbp
    954c:	c3                   	retq   

000000000000954d <safe_convert_func_float_to_int32_t>:
    954d:	f3 0f 1e fa          	endbr64 
    9551:	55                   	push   %rbp
    9552:	48 89 e5             	mov    %rsp,%rbp
    9555:	f3 0f 11 45 fc       	movss  %xmm0,-0x4(%rbp)
    955a:	f3 0f 10 05 5e ce 00 	movss  0xce5e(%rip),%xmm0        # 163c0 <l_62.4707+0xa0>
    9561:	00 
    9562:	0f 2f 45 fc          	comiss -0x4(%rbp),%xmm0
    9566:	0f 93 c0             	setae  %al
    9569:	83 f0 01             	xor    $0x1,%eax
    956c:	84 c0                	test   %al,%al
    956e:	74 21                	je     9591 <safe_convert_func_float_to_int32_t+0x44>
    9570:	f3 0f 10 45 fc       	movss  -0x4(%rbp),%xmm0
    9575:	0f 2f 05 48 ce 00 00 	comiss 0xce48(%rip),%xmm0        # 163c4 <l_62.4707+0xa4>
    957c:	0f 93 c0             	setae  %al
    957f:	83 f0 01             	xor    $0x1,%eax
    9582:	84 c0                	test   %al,%al
    9584:	74 0b                	je     9591 <safe_convert_func_float_to_int32_t+0x44>
    9586:	f3 0f 10 45 fc       	movss  -0x4(%rbp),%xmm0
    958b:	f3 0f 2c c0          	cvttss2si %xmm0,%eax
    958f:	eb 05                	jmp    9596 <safe_convert_func_float_to_int32_t+0x49>
    9591:	b8 ff ff ff 7f       	mov    $0x7fffffff,%eax
    9596:	5d                   	pop    %rbp
    9597:	c3                   	retq   

0000000000009598 <crc32_gentab>:
    9598:	f3 0f 1e fa          	endbr64 
    959c:	55                   	push   %rbp
    959d:	48 89 e5             	mov    %rsp,%rbp
    95a0:	c7 45 fc 20 83 b8 ed 	movl   $0xedb88320,-0x4(%rbp)
    95a7:	c7 45 f4 00 00 00 00 	movl   $0x0,-0xc(%rbp)
    95ae:	eb 51                	jmp    9601 <crc32_gentab+0x69>
    95b0:	8b 45 f4             	mov    -0xc(%rbp),%eax
    95b3:	89 45 f0             	mov    %eax,-0x10(%rbp)
    95b6:	c7 45 f8 08 00 00 00 	movl   $0x8,-0x8(%rbp)
    95bd:	eb 1e                	jmp    95dd <crc32_gentab+0x45>
    95bf:	8b 45 f0             	mov    -0x10(%rbp),%eax
    95c2:	83 e0 01             	and    $0x1,%eax
    95c5:	85 c0                	test   %eax,%eax
    95c7:	74 0d                	je     95d6 <crc32_gentab+0x3e>
    95c9:	8b 45 f0             	mov    -0x10(%rbp),%eax
    95cc:	d1 e8                	shr    %eax
    95ce:	33 45 fc             	xor    -0x4(%rbp),%eax
    95d1:	89 45 f0             	mov    %eax,-0x10(%rbp)
    95d4:	eb 03                	jmp    95d9 <crc32_gentab+0x41>
    95d6:	d1 6d f0             	shrl   -0x10(%rbp)
    95d9:	83 6d f8 01          	subl   $0x1,-0x8(%rbp)
    95dd:	83 7d f8 00          	cmpl   $0x0,-0x8(%rbp)
    95e1:	7f dc                	jg     95bf <crc32_gentab+0x27>
    95e3:	8b 45 f4             	mov    -0xc(%rbp),%eax
    95e6:	48 98                	cltq   
    95e8:	48 8d 0c 85 00 00 00 	lea    0x0(,%rax,4),%rcx
    95ef:	00 
    95f0:	48 8d 15 69 38 01 00 	lea    0x13869(%rip),%rdx        # 1ce60 <crc32_tab>
    95f7:	8b 45 f0             	mov    -0x10(%rbp),%eax
    95fa:	89 04 11             	mov    %eax,(%rcx,%rdx,1)
    95fd:	83 45 f4 01          	addl   $0x1,-0xc(%rbp)
    9601:	81 7d f4 ff 00 00 00 	cmpl   $0xff,-0xc(%rbp)
    9608:	7e a6                	jle    95b0 <crc32_gentab+0x18>
    960a:	90                   	nop
    960b:	90                   	nop
    960c:	5d                   	pop    %rbp
    960d:	c3                   	retq   

000000000000960e <crc32_byte>:
    960e:	f3 0f 1e fa          	endbr64 
    9612:	55                   	push   %rbp
    9613:	48 89 e5             	mov    %rsp,%rbp
    9616:	89 f8                	mov    %edi,%eax
    9618:	88 45 fc             	mov    %al,-0x4(%rbp)
    961b:	8b 05 ff f9 00 00    	mov    0xf9ff(%rip),%eax        # 19020 <crc32_context>
    9621:	c1 e8 08             	shr    $0x8,%eax
    9624:	89 c1                	mov    %eax,%ecx
    9626:	0f b6 55 fc          	movzbl -0x4(%rbp),%edx
    962a:	8b 05 f0 f9 00 00    	mov    0xf9f0(%rip),%eax        # 19020 <crc32_context>
    9630:	31 d0                	xor    %edx,%eax
    9632:	0f b6 c0             	movzbl %al,%eax
    9635:	89 c0                	mov    %eax,%eax
    9637:	48 8d 14 85 00 00 00 	lea    0x0(,%rax,4),%rdx
    963e:	00 
    963f:	48 8d 05 1a 38 01 00 	lea    0x1381a(%rip),%rax        # 1ce60 <crc32_tab>
    9646:	8b 04 02             	mov    (%rdx,%rax,1),%eax
    9649:	31 c8                	xor    %ecx,%eax
    964b:	89 05 cf f9 00 00    	mov    %eax,0xf9cf(%rip)        # 19020 <crc32_context>
    9651:	90                   	nop
    9652:	5d                   	pop    %rbp
    9653:	c3                   	retq   

0000000000009654 <crc32_8bytes>:
    9654:	f3 0f 1e fa          	endbr64 
    9658:	55                   	push   %rbp
    9659:	48 89 e5             	mov    %rsp,%rbp
    965c:	48 83 ec 08          	sub    $0x8,%rsp
    9660:	48 89 7d f8          	mov    %rdi,-0x8(%rbp)
    9664:	48 8b 45 f8          	mov    -0x8(%rbp),%rax
    9668:	0f b6 c0             	movzbl %al,%eax
    966b:	89 c7                	mov    %eax,%edi
    966d:	e8 9c ff ff ff       	callq  960e <crc32_byte>
    9672:	48 8b 45 f8          	mov    -0x8(%rbp),%rax
    9676:	48 c1 e8 08          	shr    $0x8,%rax
    967a:	0f b6 c0             	movzbl %al,%eax
    967d:	89 c7                	mov    %eax,%edi
    967f:	e8 8a ff ff ff       	callq  960e <crc32_byte>
    9684:	48 8b 45 f8          	mov    -0x8(%rbp),%rax
    9688:	48 c1 e8 10          	shr    $0x10,%rax
    968c:	0f b6 c0             	movzbl %al,%eax
    968f:	89 c7                	mov    %eax,%edi
    9691:	e8 78 ff ff ff       	callq  960e <crc32_byte>
    9696:	48 8b 45 f8          	mov    -0x8(%rbp),%rax
    969a:	48 c1 e8 18          	shr    $0x18,%rax
    969e:	0f b6 c0             	movzbl %al,%eax
    96a1:	89 c7                	mov    %eax,%edi
    96a3:	e8 66 ff ff ff       	callq  960e <crc32_byte>
    96a8:	48 8b 45 f8          	mov    -0x8(%rbp),%rax
    96ac:	48 c1 e8 20          	shr    $0x20,%rax
    96b0:	0f b6 c0             	movzbl %al,%eax
    96b3:	89 c7                	mov    %eax,%edi
    96b5:	e8 54 ff ff ff       	callq  960e <crc32_byte>
    96ba:	48 8b 45 f8          	mov    -0x8(%rbp),%rax
    96be:	48 c1 e8 28          	shr    $0x28,%rax
    96c2:	0f b6 c0             	movzbl %al,%eax
    96c5:	89 c7                	mov    %eax,%edi
    96c7:	e8 42 ff ff ff       	callq  960e <crc32_byte>
    96cc:	48 8b 45 f8          	mov    -0x8(%rbp),%rax
    96d0:	48 c1 e8 30          	shr    $0x30,%rax
    96d4:	0f b6 c0             	movzbl %al,%eax
    96d7:	89 c7                	mov    %eax,%edi
    96d9:	e8 30 ff ff ff       	callq  960e <crc32_byte>
    96de:	48 8b 45 f8          	mov    -0x8(%rbp),%rax
    96e2:	48 c1 e8 38          	shr    $0x38,%rax
    96e6:	0f b6 c0             	movzbl %al,%eax
    96e9:	89 c7                	mov    %eax,%edi
    96eb:	e8 1e ff ff ff       	callq  960e <crc32_byte>
    96f0:	90                   	nop
    96f1:	c9                   	leaveq 
    96f2:	c3                   	retq   

00000000000096f3 <transparent_crc>:
    96f3:	f3 0f 1e fa          	endbr64 
    96f7:	55                   	push   %rbp
    96f8:	48 89 e5             	mov    %rsp,%rbp
    96fb:	48 83 ec 20          	sub    $0x20,%rsp
    96ff:	48 89 7d f8          	mov    %rdi,-0x8(%rbp)
    9703:	48 89 75 f0          	mov    %rsi,-0x10(%rbp)
    9707:	89 55 ec             	mov    %edx,-0x14(%rbp)
    970a:	48 8b 45 f8          	mov    -0x8(%rbp),%rax
    970e:	48 89 c7             	mov    %rax,%rdi
    9711:	e8 3e ff ff ff       	callq  9654 <crc32_8bytes>
    9716:	83 7d ec 00          	cmpl   $0x0,-0x14(%rbp)
    971a:	74 22                	je     973e <transparent_crc+0x4b>
    971c:	8b 05 fe f8 00 00    	mov    0xf8fe(%rip),%eax        # 19020 <crc32_context>
    9722:	f7 d0                	not    %eax
    9724:	89 c2                	mov    %eax,%edx
    9726:	48 8b 45 f0          	mov    -0x10(%rbp),%rax
    972a:	48 89 c6             	mov    %rax,%rsi
    972d:	48 8d 3d fc b8 00 00 	lea    0xb8fc(%rip),%rdi        # 15030 <_IO_stdin_used+0x30>
    9734:	b8 00 00 00 00       	mov    $0x0,%eax
    9739:	e8 42 e9 ff ff       	callq  8080 <printf@plt>
    973e:	90                   	nop
    973f:	c9                   	leaveq 
    9740:	c3                   	retq   

0000000000009741 <transparent_crc_bytes>:
    9741:	f3 0f 1e fa          	endbr64 
    9745:	55                   	push   %rbp
    9746:	48 89 e5             	mov    %rsp,%rbp
    9749:	48 83 ec 30          	sub    $0x30,%rsp
    974d:	48 89 7d e8          	mov    %rdi,-0x18(%rbp)
    9751:	89 75 e4             	mov    %esi,-0x1c(%rbp)
    9754:	48 89 55 d8          	mov    %rdx,-0x28(%rbp)
    9758:	89 4d e0             	mov    %ecx,-0x20(%rbp)
    975b:	c7 45 fc 00 00 00 00 	movl   $0x0,-0x4(%rbp)
    9762:	eb 1e                	jmp    9782 <transparent_crc_bytes+0x41>
    9764:	8b 45 fc             	mov    -0x4(%rbp),%eax
    9767:	48 63 d0             	movslq %eax,%rdx
    976a:	48 8b 45 e8          	mov    -0x18(%rbp),%rax
    976e:	48 01 d0             	add    %rdx,%rax
    9771:	0f b6 00             	movzbl (%rax),%eax
    9774:	0f b6 c0             	movzbl %al,%eax
    9777:	89 c7                	mov    %eax,%edi
    9779:	e8 90 fe ff ff       	callq  960e <crc32_byte>
    977e:	83 45 fc 01          	addl   $0x1,-0x4(%rbp)
    9782:	8b 45 fc             	mov    -0x4(%rbp),%eax
    9785:	3b 45 e4             	cmp    -0x1c(%rbp),%eax
    9788:	7c da                	jl     9764 <transparent_crc_bytes+0x23>
    978a:	83 7d e0 00          	cmpl   $0x0,-0x20(%rbp)
    978e:	74 22                	je     97b2 <transparent_crc_bytes+0x71>
    9790:	8b 05 8a f8 00 00    	mov    0xf88a(%rip),%eax        # 19020 <crc32_context>
    9796:	f7 d0                	not    %eax
    9798:	89 c2                	mov    %eax,%edx
    979a:	48 8b 45 d8          	mov    -0x28(%rbp),%rax
    979e:	48 89 c6             	mov    %rax,%rsi
    97a1:	48 8d 3d 88 b8 00 00 	lea    0xb888(%rip),%rdi        # 15030 <_IO_stdin_used+0x30>
    97a8:	b8 00 00 00 00       	mov    $0x0,%eax
    97ad:	e8 ce e8 ff ff       	callq  8080 <printf@plt>
    97b2:	90                   	nop
    97b3:	c9                   	leaveq 
    97b4:	c3                   	retq   

00000000000097b5 <func_1>:
    97b5:	f3 0f 1e fa          	endbr64 
    97b9:	55                   	push   %rbp
    97ba:	48 89 e5             	mov    %rsp,%rbp
    97bd:	48 81 ec d0 0a 00 00 	sub    $0xad0,%rsp
    97c4:	64 48 8b 04 25 28 00 	mov    %fs:0x28,%rax
    97cb:	00 00 
    97cd:	48 89 45 f8          	mov    %rax,-0x8(%rbp)
    97d1:	31 c0                	xor    %eax,%eax
    97d3:	48 8d 05 c2 f8 00 00 	lea    0xf8c2(%rip),%rax        # 1909c <g_198>
    97da:	48 89 85 58 f5 ff ff 	mov    %rax,-0xaa8(%rbp)
    97e1:	48 8d 05 c8 26 01 00 	lea    0x126c8(%rip),%rax        # 1beb0 <g_202>
    97e8:	48 89 85 60 f5 ff ff 	mov    %rax,-0xaa0(%rbp)
    97ef:	c7 85 3c f5 ff ff 01 	movl   $0x1,-0xac4(%rbp)
    97f6:	00 00 00 
    97f9:	48 8d 85 00 fc ff ff 	lea    -0x400(%rbp),%rax
    9800:	48 8d 15 99 b8 00 00 	lea    0xb899(%rip),%rdx        # 150a0 <g_860+0x20>
    9807:	b9 7e 00 00 00       	mov    $0x7e,%ecx
    980c:	48 89 c7             	mov    %rax,%rdi
    980f:	48 89 d6             	mov    %rdx,%rsi
    9812:	f3 48 a5             	rep movsq %ds:(%rsi),%es:(%rdi)
    9815:	48 8b 05 4c 3a 01 00 	mov    0x13a4c(%rip),%rax        # 1d268 <g_11>
    981c:	0f b6 15 98 ca 00 00 	movzbl 0xca98(%rip),%edx        # 162bb <l_12.4130>
    9823:	0f b6 0d 92 ca 00 00 	movzbl 0xca92(%rip),%ecx        # 162bc <l_12.4130+0x1>
    982a:	48 c1 e1 08          	shl    $0x8,%rcx
    982e:	48 09 d1             	or     %rdx,%rcx
    9831:	0f b6 15 85 ca 00 00 	movzbl 0xca85(%rip),%edx        # 162bd <l_12.4130+0x2>
    9838:	48 c1 e2 10          	shl    $0x10,%rdx
    983c:	48 09 d1             	or     %rdx,%rcx
    983f:	0f b6 15 78 ca 00 00 	movzbl 0xca78(%rip),%edx        # 162be <l_12.4130+0x3>
    9846:	48 c1 e2 18          	shl    $0x18,%rdx
    984a:	48 09 d1             	or     %rdx,%rcx
    984d:	0f b6 15 6b ca 00 00 	movzbl 0xca6b(%rip),%edx        # 162bf <l_12.4130+0x4>
    9854:	48 c1 e2 20          	shl    $0x20,%rdx
    9858:	48 09 d1             	or     %rdx,%rcx
    985b:	0f b6 15 5e ca 00 00 	movzbl 0xca5e(%rip),%edx        # 162c0 <l_12.4130+0x5>
    9862:	48 c1 e2 28          	shl    $0x28,%rdx
    9866:	48 09 ca             	or     %rcx,%rdx
    9869:	48 89 d6             	mov    %rdx,%rsi
    986c:	48 89 c7             	mov    %rax,%rdi
    986f:	e8 41 0d 00 00       	callq  a5b5 <func_8>
    9874:	48 89 c6             	mov    %rax,%rsi
    9877:	48 8b 05 aa f7 00 00 	mov    0xf7aa(%rip),%rax        # 19028 <g_7>
    987e:	48 8b 95 58 f5 ff ff 	mov    -0xaa8(%rbp),%rdx
    9885:	48 8d 0d 88 02 01 00 	lea    0x10288(%rip),%rcx        # 19b14 <g_673+0x74>
    988c:	48 89 c7             	mov    %rax,%rdi
    988f:	e8 ae 0c 00 00       	callq  a542 <func_2>
    9894:	48 8b 95 60 f5 ff ff 	mov    -0xaa0(%rbp),%rdx
    989b:	48 89 02             	mov    %rax,(%rdx)
    989e:	48 c7 05 17 01 01 00 	movq   $0x0,0x10117(%rip)        # 199c0 <g_259>
    98a5:	00 00 00 00 
    98a9:	e9 65 0c 00 00       	jmpq   a513 <func_1+0xd5e>
    98ae:	48 c7 85 68 f5 ff ff 	movq   $0x0,-0xa98(%rbp)
    98b5:	00 00 00 00 
    98b9:	c7 85 38 f5 ff ff d9 	movl   $0xba4187d9,-0xac8(%rbp)
    98c0:	87 41 ba 
    98c3:	48 8d 05 d2 f7 00 00 	lea    0xf7d2(%rip),%rax        # 1909c <g_198>
    98ca:	48 89 85 70 f5 ff ff 	mov    %rax,-0xa90(%rbp)
    98d1:	c7 85 40 f5 ff ff 91 	movl   $0x7f006591,-0xac0(%rbp)
    98d8:	65 00 7f 
    98db:	48 8d 85 38 f5 ff ff 	lea    -0xac8(%rbp),%rax
    98e2:	48 89 85 78 f5 ff ff 	mov    %rax,-0xa88(%rbp)
    98e9:	48 8d 05 60 f7 00 00 	lea    0xf760(%rip),%rax        # 19050 <g_38+0x10>
    98f0:	48 89 85 80 f5 ff ff 	mov    %rax,-0xa80(%rbp)
    98f7:	48 8d 05 c2 01 01 00 	lea    0x101c2(%rip),%rax        # 19ac0 <g_673+0x20>
    98fe:	48 89 85 88 f5 ff ff 	mov    %rax,-0xa78(%rbp)
    9905:	48 c7 85 90 f5 ff ff 	movq   $0x0,-0xa70(%rbp)
    990c:	00 00 00 00 
    9910:	48 c7 85 98 f5 ff ff 	movq   $0x0,-0xa68(%rbp)
    9917:	00 00 00 00 
    991b:	48 c7 85 a0 f5 ff ff 	movq   $0x0,-0xa60(%rbp)
    9922:	00 00 00 00 
    9926:	48 8d 05 0b 02 01 00 	lea    0x1020b(%rip),%rax        # 19b38 <g_673+0x98>
    992d:	48 89 85 a8 f5 ff ff 	mov    %rax,-0xa58(%rbp)
    9934:	48 8d 05 79 01 01 00 	lea    0x10179(%rip),%rax        # 19ab4 <g_673+0x14>
    993b:	48 89 85 b0 f5 ff ff 	mov    %rax,-0xa50(%rbp)
    9942:	48 8d 05 07 f7 00 00 	lea    0xf707(%rip),%rax        # 19050 <g_38+0x10>
    9949:	48 89 85 b8 f5 ff ff 	mov    %rax,-0xa48(%rbp)
    9950:	48 8d 05 45 f7 00 00 	lea    0xf745(%rip),%rax        # 1909c <g_198>
    9957:	48 89 85 c0 f5 ff ff 	mov    %rax,-0xa40(%rbp)
    995e:	48 8d 05 a7 01 01 00 	lea    0x101a7(%rip),%rax        # 19b0c <g_673+0x6c>
    9965:	48 89 85 c8 f5 ff ff 	mov    %rax,-0xa38(%rbp)
    996c:	48 8d 05 dd f6 00 00 	lea    0xf6dd(%rip),%rax        # 19050 <g_38+0x10>
    9973:	48 89 85 d0 f5 ff ff 	mov    %rax,-0xa30(%rbp)
    997a:	48 8d 05 9f 01 01 00 	lea    0x1019f(%rip),%rax        # 19b20 <g_673+0x80>
    9981:	48 89 85 d8 f5 ff ff 	mov    %rax,-0xa28(%rbp)
    9988:	48 8d 05 85 01 01 00 	lea    0x10185(%rip),%rax        # 19b14 <g_673+0x74>
    998f:	48 89 85 e0 f5 ff ff 	mov    %rax,-0xa20(%rbp)
    9996:	48 8d 05 3b 01 01 00 	lea    0x1013b(%rip),%rax        # 19ad8 <g_673+0x38>
    999d:	48 89 85 70 f8 ff ff 	mov    %rax,-0x790(%rbp)
    99a4:	48 8d 85 38 f5 ff ff 	lea    -0xac8(%rbp),%rax
    99ab:	48 89 85 78 f8 ff ff 	mov    %rax,-0x788(%rbp)
    99b2:	48 8d 05 8b f6 00 00 	lea    0xf68b(%rip),%rax        # 19044 <g_38+0x4>
    99b9:	48 89 85 80 f8 ff ff 	mov    %rax,-0x780(%rbp)
    99c0:	48 8d 85 38 f5 ff ff 	lea    -0xac8(%rbp),%rax
    99c7:	48 89 85 88 f8 ff ff 	mov    %rax,-0x778(%rbp)
    99ce:	48 8d 05 03 01 01 00 	lea    0x10103(%rip),%rax        # 19ad8 <g_673+0x38>
    99d5:	48 89 85 90 f8 ff ff 	mov    %rax,-0x770(%rbp)
    99dc:	48 8d 85 38 f5 ff ff 	lea    -0xac8(%rbp),%rax
    99e3:	48 89 85 98 f8 ff ff 	mov    %rax,-0x768(%rbp)
    99ea:	48 8d 05 53 f6 00 00 	lea    0xf653(%rip),%rax        # 19044 <g_38+0x4>
    99f1:	48 89 85 a0 f8 ff ff 	mov    %rax,-0x760(%rbp)
    99f8:	48 8d 85 38 f5 ff ff 	lea    -0xac8(%rbp),%rax
    99ff:	48 89 85 a8 f8 ff ff 	mov    %rax,-0x758(%rbp)
    9a06:	48 8d 05 cb 00 01 00 	lea    0x100cb(%rip),%rax        # 19ad8 <g_673+0x38>
    9a0d:	48 89 85 b0 f8 ff ff 	mov    %rax,-0x750(%rbp)
    9a14:	48 8d 85 38 f5 ff ff 	lea    -0xac8(%rbp),%rax
    9a1b:	48 89 85 b8 f8 ff ff 	mov    %rax,-0x748(%rbp)
    9a22:	48 8d 05 1b f6 00 00 	lea    0xf61b(%rip),%rax        # 19044 <g_38+0x4>
    9a29:	48 89 85 c0 f8 ff ff 	mov    %rax,-0x740(%rbp)
    9a30:	48 8d 85 38 f5 ff ff 	lea    -0xac8(%rbp),%rax
    9a37:	48 89 85 c8 f8 ff ff 	mov    %rax,-0x738(%rbp)
    9a3e:	48 8d 05 93 00 01 00 	lea    0x10093(%rip),%rax        # 19ad8 <g_673+0x38>
    9a45:	48 89 85 d0 f8 ff ff 	mov    %rax,-0x730(%rbp)
    9a4c:	48 8d 85 38 f5 ff ff 	lea    -0xac8(%rbp),%rax
    9a53:	48 89 85 d8 f8 ff ff 	mov    %rax,-0x728(%rbp)
    9a5a:	48 8d 05 e3 f5 00 00 	lea    0xf5e3(%rip),%rax        # 19044 <g_38+0x4>
    9a61:	48 89 85 e0 f8 ff ff 	mov    %rax,-0x720(%rbp)
    9a68:	48 8d 85 38 f5 ff ff 	lea    -0xac8(%rbp),%rax
    9a6f:	48 89 85 e8 f8 ff ff 	mov    %rax,-0x718(%rbp)
    9a76:	48 8d 05 5b 00 01 00 	lea    0x1005b(%rip),%rax        # 19ad8 <g_673+0x38>
    9a7d:	48 89 85 f0 f8 ff ff 	mov    %rax,-0x710(%rbp)
    9a84:	48 8d 85 38 f5 ff ff 	lea    -0xac8(%rbp),%rax
    9a8b:	48 89 85 f8 f8 ff ff 	mov    %rax,-0x708(%rbp)
    9a92:	48 8d 05 ab f5 00 00 	lea    0xf5ab(%rip),%rax        # 19044 <g_38+0x4>
    9a99:	48 89 85 00 f9 ff ff 	mov    %rax,-0x700(%rbp)
    9aa0:	48 8d 85 38 f5 ff ff 	lea    -0xac8(%rbp),%rax
    9aa7:	48 89 85 08 f9 ff ff 	mov    %rax,-0x6f8(%rbp)
    9aae:	48 8d 05 23 00 01 00 	lea    0x10023(%rip),%rax        # 19ad8 <g_673+0x38>
    9ab5:	48 89 85 10 f9 ff ff 	mov    %rax,-0x6f0(%rbp)
    9abc:	48 8d 85 38 f5 ff ff 	lea    -0xac8(%rbp),%rax
    9ac3:	48 89 85 18 f9 ff ff 	mov    %rax,-0x6e8(%rbp)
    9aca:	48 8d 05 73 f5 00 00 	lea    0xf573(%rip),%rax        # 19044 <g_38+0x4>
    9ad1:	48 89 85 20 f9 ff ff 	mov    %rax,-0x6e0(%rbp)
    9ad8:	48 8d 85 38 f5 ff ff 	lea    -0xac8(%rbp),%rax
    9adf:	48 89 85 28 f9 ff ff 	mov    %rax,-0x6d8(%rbp)
    9ae6:	48 8d 05 eb ff 00 00 	lea    0xffeb(%rip),%rax        # 19ad8 <g_673+0x38>
    9aed:	48 89 85 30 f9 ff ff 	mov    %rax,-0x6d0(%rbp)
    9af4:	48 8d 85 38 f5 ff ff 	lea    -0xac8(%rbp),%rax
    9afb:	48 89 85 38 f9 ff ff 	mov    %rax,-0x6c8(%rbp)
    9b02:	48 8d 05 3b f5 00 00 	lea    0xf53b(%rip),%rax        # 19044 <g_38+0x4>
    9b09:	48 89 85 40 f9 ff ff 	mov    %rax,-0x6c0(%rbp)
    9b10:	48 8d 85 38 f5 ff ff 	lea    -0xac8(%rbp),%rax
    9b17:	48 89 85 48 f9 ff ff 	mov    %rax,-0x6b8(%rbp)
    9b1e:	48 8d 05 b3 ff 00 00 	lea    0xffb3(%rip),%rax        # 19ad8 <g_673+0x38>
    9b25:	48 89 85 50 f9 ff ff 	mov    %rax,-0x6b0(%rbp)
    9b2c:	48 8d 85 38 f5 ff ff 	lea    -0xac8(%rbp),%rax
    9b33:	48 89 85 58 f9 ff ff 	mov    %rax,-0x6a8(%rbp)
    9b3a:	48 8d 05 03 f5 00 00 	lea    0xf503(%rip),%rax        # 19044 <g_38+0x4>
    9b41:	48 89 85 60 f9 ff ff 	mov    %rax,-0x6a0(%rbp)
    9b48:	48 8d 85 38 f5 ff ff 	lea    -0xac8(%rbp),%rax
    9b4f:	48 89 85 68 f9 ff ff 	mov    %rax,-0x698(%rbp)
    9b56:	48 8d 05 7b ff 00 00 	lea    0xff7b(%rip),%rax        # 19ad8 <g_673+0x38>
    9b5d:	48 89 85 70 f9 ff ff 	mov    %rax,-0x690(%rbp)
    9b64:	48 8d 85 38 f5 ff ff 	lea    -0xac8(%rbp),%rax
    9b6b:	48 89 85 78 f9 ff ff 	mov    %rax,-0x688(%rbp)
    9b72:	48 8d 05 cb f4 00 00 	lea    0xf4cb(%rip),%rax        # 19044 <g_38+0x4>
    9b79:	48 89 85 80 f9 ff ff 	mov    %rax,-0x680(%rbp)
    9b80:	48 8d 85 38 f5 ff ff 	lea    -0xac8(%rbp),%rax
    9b87:	48 89 85 88 f9 ff ff 	mov    %rax,-0x678(%rbp)
    9b8e:	48 8d 05 43 ff 00 00 	lea    0xff43(%rip),%rax        # 19ad8 <g_673+0x38>
    9b95:	48 89 85 90 f9 ff ff 	mov    %rax,-0x670(%rbp)
    9b9c:	48 8d 85 38 f5 ff ff 	lea    -0xac8(%rbp),%rax
    9ba3:	48 89 85 98 f9 ff ff 	mov    %rax,-0x668(%rbp)
    9baa:	48 8d 05 93 f4 00 00 	lea    0xf493(%rip),%rax        # 19044 <g_38+0x4>
    9bb1:	48 89 85 a0 f9 ff ff 	mov    %rax,-0x660(%rbp)
    9bb8:	48 8d 85 38 f5 ff ff 	lea    -0xac8(%rbp),%rax
    9bbf:	48 89 85 a8 f9 ff ff 	mov    %rax,-0x658(%rbp)
    9bc6:	48 8d 05 0b ff 00 00 	lea    0xff0b(%rip),%rax        # 19ad8 <g_673+0x38>
    9bcd:	48 89 85 b0 f9 ff ff 	mov    %rax,-0x650(%rbp)
    9bd4:	48 8d 85 38 f5 ff ff 	lea    -0xac8(%rbp),%rax
    9bdb:	48 89 85 b8 f9 ff ff 	mov    %rax,-0x648(%rbp)
    9be2:	48 8d 05 5b f4 00 00 	lea    0xf45b(%rip),%rax        # 19044 <g_38+0x4>
    9be9:	48 89 85 c0 f9 ff ff 	mov    %rax,-0x640(%rbp)
    9bf0:	48 8d 85 38 f5 ff ff 	lea    -0xac8(%rbp),%rax
    9bf7:	48 89 85 c8 f9 ff ff 	mov    %rax,-0x638(%rbp)
    9bfe:	48 8d 05 d3 fe 00 00 	lea    0xfed3(%rip),%rax        # 19ad8 <g_673+0x38>
    9c05:	48 89 85 d0 f9 ff ff 	mov    %rax,-0x630(%rbp)
    9c0c:	48 8d 85 38 f5 ff ff 	lea    -0xac8(%rbp),%rax
    9c13:	48 89 85 d8 f9 ff ff 	mov    %rax,-0x628(%rbp)
    9c1a:	48 8d 05 23 f4 00 00 	lea    0xf423(%rip),%rax        # 19044 <g_38+0x4>
    9c21:	48 89 85 e0 f9 ff ff 	mov    %rax,-0x620(%rbp)
    9c28:	48 8d 85 38 f5 ff ff 	lea    -0xac8(%rbp),%rax
    9c2f:	48 89 85 e8 f9 ff ff 	mov    %rax,-0x618(%rbp)
    9c36:	48 8d 05 9b fe 00 00 	lea    0xfe9b(%rip),%rax        # 19ad8 <g_673+0x38>
    9c3d:	48 89 85 f0 f9 ff ff 	mov    %rax,-0x610(%rbp)
    9c44:	48 8d 85 38 f5 ff ff 	lea    -0xac8(%rbp),%rax
    9c4b:	48 89 85 f8 f9 ff ff 	mov    %rax,-0x608(%rbp)
    9c52:	48 8d 05 07 00 01 00 	lea    0x10007(%rip),%rax        # 19c60 <g_1033>
    9c59:	48 89 85 e8 f5 ff ff 	mov    %rax,-0xa18(%rbp)
    9c60:	48 8d 05 07 f4 00 00 	lea    0xf407(%rip),%rax        # 1906e <g_116+0xe>
    9c67:	48 89 85 50 f5 ff ff 	mov    %rax,-0xab0(%rbp)
    9c6e:	48 8d 85 50 f5 ff ff 	lea    -0xab0(%rbp),%rax
    9c75:	48 89 85 f0 f5 ff ff 	mov    %rax,-0xa10(%rbp)
    9c7c:	48 8d 85 50 f5 ff ff 	lea    -0xab0(%rbp),%rax
    9c83:	48 89 85 f8 f5 ff ff 	mov    %rax,-0xa08(%rbp)
    9c8a:	48 8d 85 50 f5 ff ff 	lea    -0xab0(%rbp),%rax
    9c91:	48 89 85 00 f6 ff ff 	mov    %rax,-0xa00(%rbp)
    9c98:	48 8d 85 50 f5 ff ff 	lea    -0xab0(%rbp),%rax
    9c9f:	48 89 85 08 f6 ff ff 	mov    %rax,-0x9f8(%rbp)
    9ca6:	48 8d 85 50 f5 ff ff 	lea    -0xab0(%rbp),%rax
    9cad:	48 89 85 10 f6 ff ff 	mov    %rax,-0x9f0(%rbp)
    9cb4:	48 8d 85 50 f5 ff ff 	lea    -0xab0(%rbp),%rax
    9cbb:	48 89 85 18 f6 ff ff 	mov    %rax,-0x9e8(%rbp)
    9cc2:	48 8d 85 50 f5 ff ff 	lea    -0xab0(%rbp),%rax
    9cc9:	48 89 85 20 f6 ff ff 	mov    %rax,-0x9e0(%rbp)
    9cd0:	48 8b 85 f0 fd ff ff 	mov    -0x210(%rbp),%rax
    9cd7:	48 83 e8 01          	sub    $0x1,%rax
    9cdb:	48 89 85 f0 fd ff ff 	mov    %rax,-0x210(%rbp)
    9ce2:	c7 05 6c f3 00 00 00 	movl   $0x0,0xf36c(%rip)        # 19058 <g_110>
    9ce9:	00 00 00 
    9cec:	e9 01 08 00 00       	jmpq   a4f2 <func_1+0xd3d>
    9cf1:	0f b7 85 4a f5 ff ff 	movzwl -0xab6(%rbp),%eax
    9cf8:	83 e0 00             	and    $0x0,%eax
    9cfb:	66 0d 2e 01          	or     $0x12e,%ax
    9cff:	66 89 85 4a f5 ff ff 	mov    %ax,-0xab6(%rbp)
    9d06:	0f b6 85 4c f5 ff ff 	movzbl -0xab4(%rbp),%eax
    9d0d:	83 e0 f8             	and    $0xfffffff8,%eax
    9d10:	88 85 4c f5 ff ff    	mov    %al,-0xab4(%rbp)
    9d16:	0f b7 85 4c f5 ff ff 	movzwl -0xab4(%rbp),%eax
    9d1d:	83 e0 07             	and    $0x7,%eax
    9d20:	66 0d e0 67          	or     $0x67e0,%ax
    9d24:	66 89 85 4c f5 ff ff 	mov    %ax,-0xab4(%rbp)
    9d2b:	0f b7 85 4e f5 ff ff 	movzwl -0xab2(%rbp),%eax
    9d32:	66 25 00 f8          	and    $0xf800,%ax
    9d36:	66 89 85 4e f5 ff ff 	mov    %ax,-0xab2(%rbp)
    9d3d:	48 c7 85 00 fa ff ff 	movq   $0x0,-0x600(%rbp)
    9d44:	00 00 00 00 
    9d48:	48 8d 85 f0 f5 ff ff 	lea    -0xa10(%rbp),%rax
    9d4f:	48 83 c0 20          	add    $0x20,%rax
    9d53:	48 89 85 08 fa ff ff 	mov    %rax,-0x5f8(%rbp)
    9d5a:	48 c7 85 10 fa ff ff 	movq   $0x0,-0x5f0(%rbp)
    9d61:	00 00 00 00 
    9d65:	48 c7 85 18 fa ff ff 	movq   $0x0,-0x5e8(%rbp)
    9d6c:	00 00 00 00 
    9d70:	48 c7 85 20 fa ff ff 	movq   $0x0,-0x5e0(%rbp)
    9d77:	00 00 00 00 
    9d7b:	48 8d 05 a6 30 01 00 	lea    0x130a6(%rip),%rax        # 1ce28 <g_1428>
    9d82:	48 89 85 28 fa ff ff 	mov    %rax,-0x5d8(%rbp)
    9d89:	48 8d 05 98 30 01 00 	lea    0x13098(%rip),%rax        # 1ce28 <g_1428>
    9d90:	48 89 85 30 fa ff ff 	mov    %rax,-0x5d0(%rbp)
    9d97:	48 c7 85 38 fa ff ff 	movq   $0x0,-0x5c8(%rbp)
    9d9e:	00 00 00 00 
    9da2:	48 8d 05 7f 30 01 00 	lea    0x1307f(%rip),%rax        # 1ce28 <g_1428>
    9da9:	48 89 85 40 fa ff ff 	mov    %rax,-0x5c0(%rbp)
    9db0:	48 8d 85 f0 f5 ff ff 	lea    -0xa10(%rbp),%rax
    9db7:	48 83 c0 20          	add    $0x20,%rax
    9dbb:	48 89 85 48 fa ff ff 	mov    %rax,-0x5b8(%rbp)
    9dc2:	48 c7 85 50 fa ff ff 	movq   $0x0,-0x5b0(%rbp)
    9dc9:	00 00 00 00 
    9dcd:	48 8d 85 f0 f5 ff ff 	lea    -0xa10(%rbp),%rax
    9dd4:	48 83 c0 20          	add    $0x20,%rax
    9dd8:	48 89 85 58 fa ff ff 	mov    %rax,-0x5a8(%rbp)
    9ddf:	48 8d 05 42 30 01 00 	lea    0x13042(%rip),%rax        # 1ce28 <g_1428>
    9de6:	48 89 85 60 fa ff ff 	mov    %rax,-0x5a0(%rbp)
    9ded:	48 8d 85 f0 f5 ff ff 	lea    -0xa10(%rbp),%rax
    9df4:	48 83 c0 20          	add    $0x20,%rax
    9df8:	48 89 85 68 fa ff ff 	mov    %rax,-0x598(%rbp)
    9dff:	48 8d 05 22 30 01 00 	lea    0x13022(%rip),%rax        # 1ce28 <g_1428>
    9e06:	48 89 85 70 fa ff ff 	mov    %rax,-0x590(%rbp)
    9e0d:	48 8d 85 f0 f5 ff ff 	lea    -0xa10(%rbp),%rax
    9e14:	48 83 c0 20          	add    $0x20,%rax
    9e18:	48 89 85 78 fa ff ff 	mov    %rax,-0x588(%rbp)
    9e1f:	48 c7 85 80 fa ff ff 	movq   $0x0,-0x580(%rbp)
    9e26:	00 00 00 00 
    9e2a:	48 8d 85 f0 f5 ff ff 	lea    -0xa10(%rbp),%rax
    9e31:	48 83 c0 20          	add    $0x20,%rax
    9e35:	48 89 85 88 fa ff ff 	mov    %rax,-0x578(%rbp)
    9e3c:	48 8d 05 e5 2f 01 00 	lea    0x12fe5(%rip),%rax        # 1ce28 <g_1428>
    9e43:	48 89 85 90 fa ff ff 	mov    %rax,-0x570(%rbp)
    9e4a:	48 c7 85 98 fa ff ff 	movq   $0x0,-0x568(%rbp)
    9e51:	00 00 00 00 
    9e55:	48 8d 05 cc 2f 01 00 	lea    0x12fcc(%rip),%rax        # 1ce28 <g_1428>
    9e5c:	48 89 85 a0 fa ff ff 	mov    %rax,-0x560(%rbp)
    9e63:	48 8d 05 be 2f 01 00 	lea    0x12fbe(%rip),%rax        # 1ce28 <g_1428>
    9e6a:	48 89 85 a8 fa ff ff 	mov    %rax,-0x558(%rbp)
    9e71:	48 c7 85 b0 fa ff ff 	movq   $0x0,-0x550(%rbp)
    9e78:	00 00 00 00 
    9e7c:	48 8d 05 a5 2f 01 00 	lea    0x12fa5(%rip),%rax        # 1ce28 <g_1428>
    9e83:	48 89 85 b8 fa ff ff 	mov    %rax,-0x548(%rbp)
    9e8a:	48 8d 05 97 2f 01 00 	lea    0x12f97(%rip),%rax        # 1ce28 <g_1428>
    9e91:	48 89 85 c0 fa ff ff 	mov    %rax,-0x540(%rbp)
    9e98:	48 c7 85 c8 fa ff ff 	movq   $0x0,-0x538(%rbp)
    9e9f:	00 00 00 00 
    9ea3:	48 8d 05 7e 2f 01 00 	lea    0x12f7e(%rip),%rax        # 1ce28 <g_1428>
    9eaa:	48 89 85 d0 fa ff ff 	mov    %rax,-0x530(%rbp)
    9eb1:	48 8d 85 f0 f5 ff ff 	lea    -0xa10(%rbp),%rax
    9eb8:	48 83 c0 20          	add    $0x20,%rax
    9ebc:	48 89 85 d8 fa ff ff 	mov    %rax,-0x528(%rbp)
    9ec3:	48 c7 85 e0 fa ff ff 	movq   $0x0,-0x520(%rbp)
    9eca:	00 00 00 00 
    9ece:	48 8d 85 f0 f5 ff ff 	lea    -0xa10(%rbp),%rax
    9ed5:	48 83 c0 20          	add    $0x20,%rax
    9ed9:	48 89 85 e8 fa ff ff 	mov    %rax,-0x518(%rbp)
    9ee0:	48 8d 05 41 2f 01 00 	lea    0x12f41(%rip),%rax        # 1ce28 <g_1428>
    9ee7:	48 89 85 f0 fa ff ff 	mov    %rax,-0x510(%rbp)
    9eee:	48 8d 85 f0 f5 ff ff 	lea    -0xa10(%rbp),%rax
    9ef5:	48 83 c0 20          	add    $0x20,%rax
    9ef9:	48 89 85 f8 fa ff ff 	mov    %rax,-0x508(%rbp)
    9f00:	48 8d 05 21 2f 01 00 	lea    0x12f21(%rip),%rax        # 1ce28 <g_1428>
    9f07:	48 89 85 00 fb ff ff 	mov    %rax,-0x500(%rbp)
    9f0e:	48 8d 85 f0 f5 ff ff 	lea    -0xa10(%rbp),%rax
    9f15:	48 83 c0 20          	add    $0x20,%rax
    9f19:	48 89 85 08 fb ff ff 	mov    %rax,-0x4f8(%rbp)
    9f20:	48 c7 85 10 fb ff ff 	movq   $0x0,-0x4f0(%rbp)
    9f27:	00 00 00 00 
    9f2b:	48 8d 85 f0 f5 ff ff 	lea    -0xa10(%rbp),%rax
    9f32:	48 83 c0 20          	add    $0x20,%rax
    9f36:	48 89 85 18 fb ff ff 	mov    %rax,-0x4e8(%rbp)
    9f3d:	48 8d 05 e4 2e 01 00 	lea    0x12ee4(%rip),%rax        # 1ce28 <g_1428>
    9f44:	48 89 85 20 fb ff ff 	mov    %rax,-0x4e0(%rbp)
    9f4b:	48 c7 85 28 fb ff ff 	movq   $0x0,-0x4d8(%rbp)
    9f52:	00 00 00 00 
    9f56:	48 8d 05 cb 2e 01 00 	lea    0x12ecb(%rip),%rax        # 1ce28 <g_1428>
    9f5d:	48 89 85 30 fb ff ff 	mov    %rax,-0x4d0(%rbp)
    9f64:	48 8d 05 bd 2e 01 00 	lea    0x12ebd(%rip),%rax        # 1ce28 <g_1428>
    9f6b:	48 89 85 38 fb ff ff 	mov    %rax,-0x4c8(%rbp)
    9f72:	48 c7 85 40 fb ff ff 	movq   $0x0,-0x4c0(%rbp)
    9f79:	00 00 00 00 
    9f7d:	48 8d 05 a4 2e 01 00 	lea    0x12ea4(%rip),%rax        # 1ce28 <g_1428>
    9f84:	48 89 85 48 fb ff ff 	mov    %rax,-0x4b8(%rbp)
    9f8b:	48 8d 05 96 2e 01 00 	lea    0x12e96(%rip),%rax        # 1ce28 <g_1428>
    9f92:	48 89 85 50 fb ff ff 	mov    %rax,-0x4b0(%rbp)
    9f99:	48 c7 85 58 fb ff ff 	movq   $0x0,-0x4a8(%rbp)
    9fa0:	00 00 00 00 
    9fa4:	48 8d 05 7d 2e 01 00 	lea    0x12e7d(%rip),%rax        # 1ce28 <g_1428>
    9fab:	48 89 85 60 fb ff ff 	mov    %rax,-0x4a0(%rbp)
    9fb2:	48 8d 85 f0 f5 ff ff 	lea    -0xa10(%rbp),%rax
    9fb9:	48 83 c0 20          	add    $0x20,%rax
    9fbd:	48 89 85 68 fb ff ff 	mov    %rax,-0x498(%rbp)
    9fc4:	48 c7 85 70 fb ff ff 	movq   $0x0,-0x490(%rbp)
    9fcb:	00 00 00 00 
    9fcf:	48 8d 85 f0 f5 ff ff 	lea    -0xa10(%rbp),%rax
    9fd6:	48 83 c0 20          	add    $0x20,%rax
    9fda:	48 89 85 78 fb ff ff 	mov    %rax,-0x488(%rbp)
    9fe1:	48 8d 05 40 2e 01 00 	lea    0x12e40(%rip),%rax        # 1ce28 <g_1428>
    9fe8:	48 89 85 80 fb ff ff 	mov    %rax,-0x480(%rbp)
    9fef:	48 8d 85 f0 f5 ff ff 	lea    -0xa10(%rbp),%rax
    9ff6:	48 83 c0 20          	add    $0x20,%rax
    9ffa:	48 89 85 88 fb ff ff 	mov    %rax,-0x478(%rbp)
    a001:	48 8d 05 20 2e 01 00 	lea    0x12e20(%rip),%rax        # 1ce28 <g_1428>
    a008:	48 89 85 90 fb ff ff 	mov    %rax,-0x470(%rbp)
    a00f:	48 8d 85 f0 f5 ff ff 	lea    -0xa10(%rbp),%rax
    a016:	48 83 c0 20          	add    $0x20,%rax
    a01a:	48 89 85 98 fb ff ff 	mov    %rax,-0x468(%rbp)
    a021:	48 c7 85 a0 fb ff ff 	movq   $0x0,-0x460(%rbp)
    a028:	00 00 00 00 
    a02c:	48 8d 85 f0 f5 ff ff 	lea    -0xa10(%rbp),%rax
    a033:	48 83 c0 20          	add    $0x20,%rax
    a037:	48 89 85 a8 fb ff ff 	mov    %rax,-0x458(%rbp)
    a03e:	48 8d 05 e3 2d 01 00 	lea    0x12de3(%rip),%rax        # 1ce28 <g_1428>
    a045:	48 89 85 b0 fb ff ff 	mov    %rax,-0x450(%rbp)
    a04c:	48 c7 85 b8 fb ff ff 	movq   $0x0,-0x448(%rbp)
    a053:	00 00 00 00 
    a057:	48 8d 05 ca 2d 01 00 	lea    0x12dca(%rip),%rax        # 1ce28 <g_1428>
    a05e:	48 89 85 c0 fb ff ff 	mov    %rax,-0x440(%rbp)
    a065:	48 8d 05 bc 2d 01 00 	lea    0x12dbc(%rip),%rax        # 1ce28 <g_1428>
    a06c:	48 89 85 c8 fb ff ff 	mov    %rax,-0x438(%rbp)
    a073:	48 c7 85 d0 fb ff ff 	movq   $0x0,-0x430(%rbp)
    a07a:	00 00 00 00 
    a07e:	48 8d 05 a3 2d 01 00 	lea    0x12da3(%rip),%rax        # 1ce28 <g_1428>
    a085:	48 89 85 d8 fb ff ff 	mov    %rax,-0x428(%rbp)
    a08c:	48 8d 05 95 2d 01 00 	lea    0x12d95(%rip),%rax        # 1ce28 <g_1428>
    a093:	48 89 85 e0 fb ff ff 	mov    %rax,-0x420(%rbp)
    a09a:	48 c7 85 e8 fb ff ff 	movq   $0x0,-0x418(%rbp)
    a0a1:	00 00 00 00 
    a0a5:	48 8d 05 7c 2d 01 00 	lea    0x12d7c(%rip),%rax        # 1ce28 <g_1428>
    a0ac:	48 89 85 f0 fb ff ff 	mov    %rax,-0x410(%rbp)
    a0b3:	c6 85 37 f5 ff ff aa 	movb   $0xaa,-0xac9(%rbp)
    a0ba:	48 8b 85 c0 f5 ff ff 	mov    -0xa40(%rbp),%rax
    a0c1:	8b 10                	mov    (%rax),%edx
    a0c3:	48 8b 85 78 f5 ff ff 	mov    -0xa88(%rbp),%rax
    a0ca:	89 10                	mov    %edx,(%rax)
    a0cc:	48 8b 05 e5 1d 01 00 	mov    0x11de5(%rip),%rax        # 1beb8 <g_201>
    a0d3:	48 8b 10             	mov    (%rax),%rdx
    a0d6:	48 8b 85 60 f5 ff ff 	mov    -0xaa0(%rbp),%rax
    a0dd:	48 89 10             	mov    %rdx,(%rax)
    a0e0:	48 8b 95 10 f6 ff ff 	mov    -0x9f0(%rbp),%rdx
    a0e7:	48 8b 05 3a 2d 01 00 	mov    0x12d3a(%rip),%rax        # 1ce28 <g_1428>
    a0ee:	48 89 05 33 2d 01 00 	mov    %rax,0x12d33(%rip)        # 1ce28 <g_1428>
    a0f5:	48 8b 05 2c 2d 01 00 	mov    0x12d2c(%rip),%rax        # 1ce28 <g_1428>
    a0fc:	48 39 c2             	cmp    %rax,%rdx
    a0ff:	0f 95 c0             	setne  %al
    a102:	0f b6 d0             	movzbl %al,%edx
    a105:	48 8b 85 b8 f5 ff ff 	mov    -0xa48(%rbp),%rax
    a10c:	89 10                	mov    %edx,(%rax)
    a10e:	c7 85 3c f5 ff ff 00 	movl   $0x0,-0xac4(%rbp)
    a115:	00 00 00 
    a118:	e9 b6 03 00 00       	jmpq   a4d3 <func_1+0xd1e>
    a11d:	48 8d 85 f0 f6 ff ff 	lea    -0x910(%rbp),%rax
    a124:	48 8d 15 75 b3 00 00 	lea    0xb375(%rip),%rdx        # 154a0 <g_860+0x420>
    a12b:	b9 30 00 00 00       	mov    $0x30,%ecx
    a130:	48 89 c7             	mov    %rax,%rdi
    a133:	48 89 d6             	mov    %rdx,%rsi
    a136:	f3 48 a5             	rep movsq %ds:(%rsi),%es:(%rdi)
    a139:	c7 85 44 f5 ff ff fb 	movl   $0xfffffffb,-0xabc(%rbp)
    a140:	ff ff ff 
    a143:	c6 05 38 f9 00 00 00 	movb   $0x0,0xf938(%rip)        # 19a82 <g_635>
    a14a:	e9 65 03 00 00       	jmpq   a4b4 <func_1+0xcff>
    a14f:	66 c7 85 30 f6 ff ff 	movw   $0x3aa9,-0x9d0(%rbp)
    a156:	a9 3a 
    a158:	66 c7 85 32 f6 ff ff 	movw   $0x6556,-0x9ce(%rbp)
    a15f:	56 65 
    a161:	66 c7 85 34 f6 ff ff 	movw   $0x7,-0x9cc(%rbp)
    a168:	07 00 
    a16a:	66 c7 85 36 f6 ff ff 	movw   $0x6556,-0x9ca(%rbp)
    a171:	56 65 
    a173:	66 c7 85 38 f6 ff ff 	movw   $0x3aa9,-0x9c8(%rbp)
    a17a:	a9 3a 
    a17c:	66 c7 85 3a f6 ff ff 	movw   $0x6d7e,-0x9c6(%rbp)
    a183:	7e 6d 
    a185:	66 c7 85 3c f6 ff ff 	movw   $0xb7d8,-0x9c4(%rbp)
    a18c:	d8 b7 
    a18e:	66 c7 85 3e f6 ff ff 	movw   $0x5e03,-0x9c2(%rbp)
    a195:	03 5e 
    a197:	66 c7 85 40 f6 ff ff 	movw   $0x50dc,-0x9c0(%rbp)
    a19e:	dc 50 
    a1a0:	66 c7 85 42 f6 ff ff 	movw   $0x50dc,-0x9be(%rbp)
    a1a7:	dc 50 
    a1a9:	66 c7 85 44 f6 ff ff 	movw   $0xfff6,-0x9bc(%rbp)
    a1b0:	f6 ff 
    a1b2:	66 c7 85 46 f6 ff ff 	movw   $0x5e03,-0x9ba(%rbp)
    a1b9:	03 5e 
    a1bb:	66 c7 85 48 f6 ff ff 	movw   $0xffff,-0x9b8(%rbp)
    a1c2:	ff ff 
    a1c4:	66 c7 85 4a f6 ff ff 	movw   $0xfff8,-0x9b6(%rbp)
    a1cb:	f8 ff 
    a1cd:	66 c7 85 4c f6 ff ff 	movw   $0xfff8,-0x9b4(%rbp)
    a1d4:	f8 ff 
    a1d6:	66 c7 85 4e f6 ff ff 	movw   $0xffff,-0x9b2(%rbp)
    a1dd:	ff ff 
    a1df:	66 c7 85 50 f6 ff ff 	movw   $0x5e03,-0x9b0(%rbp)
    a1e6:	03 5e 
    a1e8:	66 c7 85 52 f6 ff ff 	movw   $0xfff6,-0x9ae(%rbp)
    a1ef:	f6 ff 
    a1f1:	66 c7 85 54 f6 ff ff 	movw   $0x7,-0x9ac(%rbp)
    a1f8:	07 00 
    a1fa:	66 c7 85 56 f6 ff ff 	movw   $0x50dc,-0x9aa(%rbp)
    a201:	dc 50 
    a203:	66 c7 85 58 f6 ff ff 	movw   $0x4,-0x9a8(%rbp)
    a20a:	04 00 
    a20c:	66 c7 85 5a f6 ff ff 	movw   $0xfff8,-0x9a6(%rbp)
    a213:	f8 ff 
    a215:	66 c7 85 5c f6 ff ff 	movw   $0x5e03,-0x9a4(%rbp)
    a21c:	03 5e 
    a21e:	66 c7 85 5e f6 ff ff 	movw   $0x121b,-0x9a2(%rbp)
    a225:	1b 12 
    a227:	66 c7 85 60 f6 ff ff 	movw   $0x3aa9,-0x9a0(%rbp)
    a22e:	a9 3a 
    a230:	66 c7 85 62 f6 ff ff 	movw   $0xb7d8,-0x99e(%rbp)
    a237:	d8 b7 
    a239:	66 c7 85 64 f6 ff ff 	movw   $0x3aa9,-0x99c(%rbp)
    a240:	a9 3a 
    a242:	66 c7 85 66 f6 ff ff 	movw   $0x121b,-0x99a(%rbp)
    a249:	1b 12 
    a24b:	66 c7 85 68 f6 ff ff 	movw   $0x5e03,-0x998(%rbp)
    a252:	03 5e 
    a254:	66 c7 85 6a f6 ff ff 	movw   $0xfff8,-0x996(%rbp)
    a25b:	f8 ff 
    a25d:	66 c7 85 6c f6 ff ff 	movw   $0xffff,-0x994(%rbp)
    a264:	ff ff 
    a266:	66 c7 85 6e f6 ff ff 	movw   $0x6d7e,-0x992(%rbp)
    a26d:	7e 6d 
    a26f:	66 c7 85 70 f6 ff ff 	movw   $0x5e03,-0x990(%rbp)
    a276:	03 5e 
    a278:	66 c7 85 72 f6 ff ff 	movw   $0x3aa9,-0x98e(%rbp)
    a27f:	a9 3a 
    a281:	66 c7 85 74 f6 ff ff 	movw   $0x0,-0x98c(%rbp)
    a288:	00 00 
    a28a:	66 c7 85 76 f6 ff ff 	movw   $0x121b,-0x98a(%rbp)
    a291:	1b 12 
    a293:	66 c7 85 78 f6 ff ff 	movw   $0xfff6,-0x988(%rbp)
    a29a:	f6 ff 
    a29c:	66 c7 85 7a f6 ff ff 	movw   $0xfff6,-0x986(%rbp)
    a2a3:	f6 ff 
    a2a5:	66 c7 85 7c f6 ff ff 	movw   $0x121b,-0x984(%rbp)
    a2ac:	1b 12 
    a2ae:	66 c7 85 7e f6 ff ff 	movw   $0x0,-0x982(%rbp)
    a2b5:	00 00 
    a2b7:	66 c7 85 80 f6 ff ff 	movw   $0x50dc,-0x980(%rbp)
    a2be:	dc 50 
    a2c0:	66 c7 85 82 f6 ff ff 	movw   $0xffff,-0x97e(%rbp)
    a2c7:	ff ff 
    a2c9:	66 c7 85 84 f6 ff ff 	movw   $0xffff,-0x97c(%rbp)
    a2d0:	ff ff 
    a2d2:	66 c7 85 86 f6 ff ff 	movw   $0x50dc,-0x97a(%rbp)
    a2d9:	dc 50 
    a2db:	66 c7 85 88 f6 ff ff 	movw   $0x6556,-0x978(%rbp)
    a2e2:	56 65 
    a2e4:	66 c7 85 8a f6 ff ff 	movw   $0x121b,-0x976(%rbp)
    a2eb:	1b 12 
    a2ed:	66 c7 85 8c f6 ff ff 	movw   $0x4,-0x974(%rbp)
    a2f4:	04 00 
    a2f6:	66 c7 85 8e f6 ff ff 	movw   $0x5e03,-0x972(%rbp)
    a2fd:	03 5e 
    a2ff:	66 c7 85 90 f6 ff ff 	movw   $0x0,-0x970(%rbp)
    a306:	00 00 
    a308:	66 c7 85 92 f6 ff ff 	movw   $0x5e03,-0x96e(%rbp)
    a30f:	03 5e 
    a311:	66 c7 85 94 f6 ff ff 	movw   $0xffff,-0x96c(%rbp)
    a318:	ff ff 
    a31a:	66 c7 85 96 f6 ff ff 	movw   $0xb7d8,-0x96a(%rbp)
    a321:	d8 b7 
    a323:	66 c7 85 98 f6 ff ff 	movw   $0x7,-0x968(%rbp)
    a32a:	07 00 
    a32c:	66 c7 85 9a f6 ff ff 	movw   $0x5e03,-0x966(%rbp)
    a333:	03 5e 
    a335:	66 c7 85 9c f6 ff ff 	movw   $0x7,-0x964(%rbp)
    a33c:	07 00 
    a33e:	66 c7 85 9e f6 ff ff 	movw   $0xb7d8,-0x962(%rbp)
    a345:	d8 b7 
    a347:	66 c7 85 a0 f6 ff ff 	movw   $0xffff,-0x960(%rbp)
    a34e:	ff ff 
    a350:	66 c7 85 a2 f6 ff ff 	movw   $0x4,-0x95e(%rbp)
    a357:	04 00 
    a359:	66 c7 85 a4 f6 ff ff 	movw   $0x0,-0x95c(%rbp)
    a360:	00 00 
    a362:	66 c7 85 a6 f6 ff ff 	movw   $0x6d7e,-0x95a(%rbp)
    a369:	7e 6d 
    a36b:	66 c7 85 a8 f6 ff ff 	movw   $0x4,-0x958(%rbp)
    a372:	04 00 
    a374:	66 c7 85 aa f6 ff ff 	movw   $0x121b,-0x956(%rbp)
    a37b:	1b 12 
    a37d:	66 c7 85 ac f6 ff ff 	movw   $0x6556,-0x954(%rbp)
    a384:	56 65 
    a386:	66 c7 85 ae f6 ff ff 	movw   $0x50dc,-0x952(%rbp)
    a38d:	dc 50 
    a38f:	66 c7 85 b0 f6 ff ff 	movw   $0xffff,-0x950(%rbp)
    a396:	ff ff 
    a398:	66 c7 85 b2 f6 ff ff 	movw   $0xffff,-0x94e(%rbp)
    a39f:	ff ff 
    a3a1:	66 c7 85 b4 f6 ff ff 	movw   $0x50dc,-0x94c(%rbp)
    a3a8:	dc 50 
    a3aa:	66 c7 85 b6 f6 ff ff 	movw   $0x6556,-0x94a(%rbp)
    a3b1:	56 65 
    a3b3:	66 c7 85 b8 f6 ff ff 	movw   $0x121b,-0x948(%rbp)
    a3ba:	1b 12 
    a3bc:	66 c7 85 ba f6 ff ff 	movw   $0x4,-0x946(%rbp)
    a3c3:	04 00 
    a3c5:	66 c7 85 bc f6 ff ff 	movw   $0xfff6,-0x944(%rbp)
    a3cc:	f6 ff 
    a3ce:	66 c7 85 be f6 ff ff 	movw   $0x121b,-0x942(%rbp)
    a3d5:	1b 12 
    a3d7:	66 c7 85 c0 f6 ff ff 	movw   $0x0,-0x940(%rbp)
    a3de:	00 00 
    a3e0:	66 c7 85 c2 f6 ff ff 	movw   $0x3aa9,-0x93e(%rbp)
    a3e7:	a9 3a 
    a3e9:	66 c7 85 c4 f6 ff ff 	movw   $0x5e03,-0x93c(%rbp)
    a3f0:	03 5e 
    a3f2:	66 c7 85 c6 f6 ff ff 	movw   $0x6d7e,-0x93a(%rbp)
    a3f9:	7e 6d 
    a3fb:	66 c7 85 c8 f6 ff ff 	movw   $0xffff,-0x938(%rbp)
    a402:	ff ff 
    a404:	66 c7 85 ca f6 ff ff 	movw   $0x6d7e,-0x936(%rbp)
    a40b:	7e 6d 
    a40d:	66 c7 85 cc f6 ff ff 	movw   $0x5e03,-0x934(%rbp)
    a414:	03 5e 
    a416:	66 c7 85 ce f6 ff ff 	movw   $0x3aa9,-0x932(%rbp)
    a41d:	a9 3a 
    a41f:	66 c7 85 d0 f6 ff ff 	movw   $0x3aa9,-0x930(%rbp)
    a426:	a9 3a 
    a428:	66 c7 85 d2 f6 ff ff 	movw   $0xb7d8,-0x92e(%rbp)
    a42f:	d8 b7 
    a431:	66 c7 85 d4 f6 ff ff 	movw   $0x3aa9,-0x92c(%rbp)
    a438:	a9 3a 
    a43a:	66 c7 85 d6 f6 ff ff 	movw   $0x6d7e,-0x92a(%rbp)
    a441:	7e 6d 
    a443:	66 c7 85 d8 f6 ff ff 	movw   $0x6556,-0x928(%rbp)
    a44a:	56 65 
    a44c:	66 c7 85 da f6 ff ff 	movw   $0xffff,-0x926(%rbp)
    a453:	ff ff 
    a455:	66 c7 85 dc f6 ff ff 	movw   $0x3aa9,-0x924(%rbp)
    a45c:	a9 3a 
    a45e:	66 c7 85 de f6 ff ff 	movw   $0x4,-0x922(%rbp)
    a465:	04 00 
    a467:	66 c7 85 e0 f6 ff ff 	movw   $0x4,-0x920(%rbp)
    a46e:	04 00 
    a470:	66 c7 85 e2 f6 ff ff 	movw   $0x3aa9,-0x91e(%rbp)
    a477:	a9 3a 
    a479:	48 8b 85 e0 f5 ff ff 	mov    -0xa20(%rbp),%rax
    a480:	8b 10                	mov    (%rax),%edx
    a482:	48 8b 85 a0 f7 ff ff 	mov    -0x860(%rbp),%rax
    a489:	48 85 c0             	test   %rax,%rax
    a48c:	0f 95 c0             	setne  %al
    a48f:	0f b6 c0             	movzbl %al,%eax
    a492:	31 c2                	xor    %eax,%edx
    a494:	48 8b 85 e0 f5 ff ff 	mov    -0xa20(%rbp),%rax
    a49b:	89 10                	mov    %edx,(%rax)
    a49d:	80 85 37 f5 ff ff 01 	addb   $0x1,-0xac9(%rbp)
    a4a4:	0f b6 05 d7 f5 00 00 	movzbl 0xf5d7(%rip),%eax        # 19a82 <g_635>
    a4ab:	83 c0 01             	add    $0x1,%eax
    a4ae:	88 05 ce f5 00 00    	mov    %al,0xf5ce(%rip)        # 19a82 <g_635>
    a4b4:	0f b6 05 c7 f5 00 00 	movzbl 0xf5c7(%rip),%eax        # 19a82 <g_635>
    a4bb:	84 c0                	test   %al,%al
    a4bd:	0f 8e 8c fc ff ff    	jle    a14f <func_1+0x99a>
    a4c3:	83 bd 44 f5 ff ff 00 	cmpl   $0x0,-0xabc(%rbp)
    a4ca:	75 16                	jne    a4e2 <func_1+0xd2d>
    a4cc:	83 85 3c f5 ff ff 01 	addl   $0x1,-0xac4(%rbp)
    a4d3:	83 bd 3c f5 ff ff 00 	cmpl   $0x0,-0xac4(%rbp)
    a4da:	0f 8e 3d fc ff ff    	jle    a11d <func_1+0x968>
    a4e0:	eb 01                	jmp    a4e3 <func_1+0xd2e>
    a4e2:	90                   	nop
    a4e3:	8b 05 6f eb 00 00    	mov    0xeb6f(%rip),%eax        # 19058 <g_110>
    a4e9:	83 c0 01             	add    $0x1,%eax
    a4ec:	89 05 66 eb 00 00    	mov    %eax,0xeb66(%rip)        # 19058 <g_110>
    a4f2:	8b 05 60 eb 00 00    	mov    0xeb60(%rip),%eax        # 19058 <g_110>
    a4f8:	83 f8 03             	cmp    $0x3,%eax
    a4fb:	0f 86 f0 f7 ff ff    	jbe    9cf1 <func_1+0x53c>
    a501:	48 8b 05 b8 f4 00 00 	mov    0xf4b8(%rip),%rax        # 199c0 <g_259>
    a508:	48 83 c0 01          	add    $0x1,%rax
    a50c:	48 89 05 ad f4 00 00 	mov    %rax,0xf4ad(%rip)        # 199c0 <g_259>
    a513:	48 8b 05 a6 f4 00 00 	mov    0xf4a6(%rip),%rax        # 199c0 <g_259>
    a51a:	48 85 c0             	test   %rax,%rax
    a51d:	0f 8e 8b f3 ff ff    	jle    98ae <func_1+0xf9>
    a523:	48 8b 85 58 f5 ff ff 	mov    -0xaa8(%rbp),%rax
    a52a:	8b 00                	mov    (%rax),%eax
    a52c:	48 8b 7d f8          	mov    -0x8(%rbp),%rdi
    a530:	64 48 33 3c 25 28 00 	xor    %fs:0x28,%rdi
    a537:	00 00 
    a539:	74 05                	je     a540 <func_1+0xd8b>
    a53b:	e8 30 db ff ff       	callq  8070 <__stack_chk_fail@plt>
    a540:	c9                   	leaveq 
    a541:	c3                   	retq   

000000000000a542 <func_2>:
    a542:	f3 0f 1e fa          	endbr64 
    a546:	55                   	push   %rbp
    a547:	48 89 e5             	mov    %rsp,%rbp
    a54a:	48 81 ec f0 03 00 00 	sub    $0x3f0,%rsp
    a551:	48 89 bd 28 fc ff ff 	mov    %rdi,-0x3d8(%rbp)
    a558:	48 89 b5 20 fc ff ff 	mov    %rsi,-0x3e0(%rbp)
    a55f:	48 89 95 18 fc ff ff 	mov    %rdx,-0x3e8(%rbp)
    a566:	48 89 8d 10 fc ff ff 	mov    %rcx,-0x3f0(%rbp)
    a56d:	64 48 8b 04 25 28 00 	mov    %fs:0x28,%rax
    a574:	00 00 
    a576:	48 89 45 f8          	mov    %rax,-0x8(%rbp)
    a57a:	31 c0                	xor    %eax,%eax
    a57c:	48 8d 85 30 fc ff ff 	lea    -0x3d0(%rbp),%rax
    a583:	48 8d 15 56 fa 00 00 	lea    0xfa56(%rip),%rdx        # 19fe0 <g_1285+0x10>
    a58a:	b9 78 00 00 00       	mov    $0x78,%ecx
    a58f:	48 89 c7             	mov    %rax,%rdi
    a592:	48 89 d6             	mov    %rdx,%rsi
    a595:	f3 48 a5             	rep movsq %ds:(%rsi),%es:(%rdi)
    a598:	48 8b 85 10 fd ff ff 	mov    -0x2f0(%rbp),%rax
    a59f:	48 8b 55 f8          	mov    -0x8(%rbp),%rdx
    a5a3:	64 48 33 14 25 28 00 	xor    %fs:0x28,%rdx
    a5aa:	00 00 
    a5ac:	74 05                	je     a5b3 <func_2+0x71>
    a5ae:	e8 bd da ff ff       	callq  8070 <__stack_chk_fail@plt>
    a5b3:	c9                   	leaveq 
    a5b4:	c3                   	retq   

000000000000a5b5 <func_8>:
    a5b5:	f3 0f 1e fa          	endbr64 
    a5b9:	55                   	push   %rbp
    a5ba:	48 89 e5             	mov    %rsp,%rbp
    a5bd:	53                   	push   %rbx
    a5be:	48 81 ec c8 02 00 00 	sub    $0x2c8,%rsp
    a5c5:	48 89 bd 38 fd ff ff 	mov    %rdi,-0x2c8(%rbp)
    a5cc:	48 89 b5 30 fd ff ff 	mov    %rsi,-0x2d0(%rbp)
    a5d3:	64 48 8b 04 25 28 00 	mov    %fs:0x28,%rax
    a5da:	00 00 
    a5dc:	48 89 45 e8          	mov    %rax,-0x18(%rbp)
    a5e0:	31 c0                	xor    %eax,%eax
    a5e2:	48 8d 05 47 ea 00 00 	lea    0xea47(%rip),%rax        # 19030 <g_15>
    a5e9:	48 89 85 58 fd ff ff 	mov    %rax,-0x2a8(%rbp)
    a5f0:	48 c7 85 70 fd ff ff 	movq   $0x0,-0x290(%rbp)
    a5f7:	00 00 00 00 
    a5fb:	48 8d 85 58 fd ff ff 	lea    -0x2a8(%rbp),%rax
    a602:	48 89 85 78 fd ff ff 	mov    %rax,-0x288(%rbp)
    a609:	48 c7 85 80 fd ff ff 	movq   $0x0,-0x280(%rbp)
    a610:	00 00 00 00 
    a614:	48 c7 85 88 fd ff ff 	movq   $0x0,-0x278(%rbp)
    a61b:	00 00 00 00 
    a61f:	48 8d 85 58 fd ff ff 	lea    -0x2a8(%rbp),%rax
    a626:	48 89 85 90 fd ff ff 	mov    %rax,-0x270(%rbp)
    a62d:	48 c7 85 98 fd ff ff 	movq   $0x0,-0x268(%rbp)
    a634:	00 00 00 00 
    a638:	48 c7 85 a0 fd ff ff 	movq   $0x0,-0x260(%rbp)
    a63f:	00 00 00 00 
    a643:	48 8d 85 58 fd ff ff 	lea    -0x2a8(%rbp),%rax
    a64a:	48 89 85 a8 fd ff ff 	mov    %rax,-0x258(%rbp)
    a651:	48 c7 85 b0 fd ff ff 	movq   $0x0,-0x250(%rbp)
    a658:	00 00 00 00 
    a65c:	48 c7 85 b8 fd ff ff 	movq   $0x0,-0x248(%rbp)
    a663:	00 00 00 00 
    a667:	48 8d 85 58 fd ff ff 	lea    -0x2a8(%rbp),%rax
    a66e:	48 89 85 c0 fd ff ff 	mov    %rax,-0x240(%rbp)
    a675:	48 c7 85 c8 fd ff ff 	movq   $0x0,-0x238(%rbp)
    a67c:	00 00 00 00 
    a680:	48 8d 85 58 fd ff ff 	lea    -0x2a8(%rbp),%rax
    a687:	48 89 85 d0 fd ff ff 	mov    %rax,-0x230(%rbp)
    a68e:	48 8d 85 58 fd ff ff 	lea    -0x2a8(%rbp),%rax
    a695:	48 89 85 d8 fd ff ff 	mov    %rax,-0x228(%rbp)
    a69c:	48 c7 85 e0 fd ff ff 	movq   $0x0,-0x220(%rbp)
    a6a3:	00 00 00 00 
    a6a7:	48 8d 85 58 fd ff ff 	lea    -0x2a8(%rbp),%rax
    a6ae:	48 89 85 e8 fd ff ff 	mov    %rax,-0x218(%rbp)
    a6b5:	48 8d 85 58 fd ff ff 	lea    -0x2a8(%rbp),%rax
    a6bc:	48 89 85 f0 fd ff ff 	mov    %rax,-0x210(%rbp)
    a6c3:	48 8d 85 58 fd ff ff 	lea    -0x2a8(%rbp),%rax
    a6ca:	48 89 85 f8 fd ff ff 	mov    %rax,-0x208(%rbp)
    a6d1:	48 c7 85 00 fe ff ff 	movq   $0x0,-0x200(%rbp)
    a6d8:	00 00 00 00 
    a6dc:	48 8d 85 58 fd ff ff 	lea    -0x2a8(%rbp),%rax
    a6e3:	48 89 85 08 fe ff ff 	mov    %rax,-0x1f8(%rbp)
    a6ea:	48 8d 85 58 fd ff ff 	lea    -0x2a8(%rbp),%rax
    a6f1:	48 89 85 10 fe ff ff 	mov    %rax,-0x1f0(%rbp)
    a6f8:	48 8d 85 58 fd ff ff 	lea    -0x2a8(%rbp),%rax
    a6ff:	48 89 85 18 fe ff ff 	mov    %rax,-0x1e8(%rbp)
    a706:	48 8d 85 58 fd ff ff 	lea    -0x2a8(%rbp),%rax
    a70d:	48 89 85 20 fe ff ff 	mov    %rax,-0x1e0(%rbp)
    a714:	48 c7 85 28 fe ff ff 	movq   $0x0,-0x1d8(%rbp)
    a71b:	00 00 00 00 
    a71f:	48 8d 85 58 fd ff ff 	lea    -0x2a8(%rbp),%rax
    a726:	48 89 85 30 fe ff ff 	mov    %rax,-0x1d0(%rbp)
    a72d:	48 8d 85 58 fd ff ff 	lea    -0x2a8(%rbp),%rax
    a734:	48 89 85 38 fe ff ff 	mov    %rax,-0x1c8(%rbp)
    a73b:	48 8d 85 58 fd ff ff 	lea    -0x2a8(%rbp),%rax
    a742:	48 89 85 40 fe ff ff 	mov    %rax,-0x1c0(%rbp)
    a749:	48 c7 85 48 fe ff ff 	movq   $0x0,-0x1b8(%rbp)
    a750:	00 00 00 00 
    a754:	48 8d 85 58 fd ff ff 	lea    -0x2a8(%rbp),%rax
    a75b:	48 89 85 50 fe ff ff 	mov    %rax,-0x1b0(%rbp)
    a762:	48 8d 85 58 fd ff ff 	lea    -0x2a8(%rbp),%rax
    a769:	48 89 85 58 fe ff ff 	mov    %rax,-0x1a8(%rbp)
    a770:	c7 85 48 fd ff ff 97 	movl   $0xd54d6497,-0x2b8(%rbp)
    a777:	64 4d d5 
    a77a:	48 8d 85 60 fe ff ff 	lea    -0x1a0(%rbp),%rax
    a781:	48 8d 15 98 ae 00 00 	lea    0xae98(%rip),%rdx        # 15620 <g_860+0x5a0>
    a788:	b9 30 00 00 00       	mov    $0x30,%ecx
    a78d:	48 89 c7             	mov    %rax,%rdi
    a790:	48 89 d6             	mov    %rdx,%rsi
    a793:	f3 48 a5             	rep movsq %ds:(%rsi),%es:(%rdi)
    a796:	c7 85 4c fd ff ff fc 	movl   $0xfffffffc,-0x2b4(%rbp)
    a79d:	ff ff ff 
    a7a0:	c7 85 50 fd ff ff f6 	movl   $0xfffffff6,-0x2b0(%rbp)
    a7a7:	ff ff ff 
    a7aa:	c6 85 47 fd ff ff bd 	movb   $0xbd,-0x2b9(%rbp)
    a7b1:	48 c7 05 e4 16 01 00 	movq   $0x0,0x116e4(%rip)        # 1bea0 <g_16>
    a7b8:	00 00 00 00 
    a7bc:	c7 05 76 e8 00 00 03 	movl   $0x3,0xe876(%rip)        # 1903c <g_19>
    a7c3:	00 00 00 
    a7c6:	eb 35                	jmp    a7fd <func_8+0x248>
    a7c8:	48 8d 05 61 e8 00 00 	lea    0xe861(%rip),%rax        # 19030 <g_15>
    a7cf:	48 89 85 60 fd ff ff 	mov    %rax,-0x2a0(%rbp)
    a7d6:	c7 85 54 fd ff ff ff 	movl   $0xffffffff,-0x2ac(%rbp)
    a7dd:	ff ff ff 
    a7e0:	48 8d 05 ad e8 00 00 	lea    0xe8ad(%rip),%rax        # 19094 <g_167>
    a7e7:	48 89 85 68 fd ff ff 	mov    %rax,-0x298(%rbp)
    a7ee:	8b 05 48 e8 00 00    	mov    0xe848(%rip),%eax        # 1903c <g_19>
    a7f4:	83 e8 01             	sub    $0x1,%eax
    a7f7:	89 05 3f e8 00 00    	mov    %eax,0xe83f(%rip)        # 1903c <g_19>
    a7fd:	8b 05 39 e8 00 00    	mov    0xe839(%rip),%eax        # 1903c <g_19>
    a803:	85 c0                	test   %eax,%eax
    a805:	79 c1                	jns    a7c8 <func_8+0x213>
    a807:	48 8b 05 32 1d 01 00 	mov    0x11d32(%rip),%rax        # 1c540 <g_1002>
    a80e:	48 8b 00             	mov    (%rax),%rax
    a811:	0f b6 00             	movzbl (%rax),%eax
    a814:	84 c0                	test   %al,%al
    a816:	0f 85 8c 00 00 00    	jne    a8a8 <func_8+0x2f3>
    a81c:	83 bd 4c fd ff ff 00 	cmpl   $0x0,-0x2b4(%rbp)
    a823:	0f 9e c0             	setle  %al
    a826:	0f b6 d0             	movzbl %al,%edx
    a829:	8b 05 c1 f2 00 00    	mov    0xf2c1(%rip),%eax        # 19af0 <g_673+0x50>
    a82f:	0f b7 c0             	movzwl %ax,%eax
    a832:	89 d6                	mov    %edx,%esi
    a834:	89 c7                	mov    %eax,%edi
    a836:	e8 0d e6 ff ff       	callq  8e48 <safe_rshift_func_uint16_t_u_s>
    a83b:	48 8b 85 30 fd ff ff 	mov    -0x2d0(%rbp),%rax
    a842:	48 c1 e8 13          	shr    $0x13,%rax
    a846:	25 ff ff ff 00       	and    $0xffffff,%eax
    a84b:	0f b6 c0             	movzbl %al,%eax
    a84e:	be 05 00 00 00       	mov    $0x5,%esi
    a853:	89 c7                	mov    %eax,%edi
    a855:	e8 54 e3 ff ff       	callq  8bae <safe_mod_func_uint8_t_u_u>
    a85a:	0f b6 d0             	movzbl %al,%edx
    a85d:	48 8b 05 64 16 01 00 	mov    0x11664(%rip),%rax        # 1bec8 <g_436>
    a864:	48 8b 00             	mov    (%rax),%rax
    a867:	48 8b 00             	mov    (%rax),%rax
    a86a:	48 39 c2             	cmp    %rax,%rdx
    a86d:	0f 92 c0             	setb   %al
    a870:	0f b6 c0             	movzbl %al,%eax
    a873:	39 85 48 fd ff ff    	cmp    %eax,-0x2b8(%rbp)
    a879:	0f 9d c0             	setge  %al
    a87c:	0f b6 d8             	movzbl %al,%ebx
    a87f:	48 8b 05 92 1c 01 00 	mov    0x11c92(%rip),%rax        # 1c518 <g_887>
    a886:	48 8b 00             	mov    (%rax),%rax
    a889:	0f b7 00             	movzwl (%rax),%eax
    a88c:	98                   	cwtl   
    a88d:	be 09 00 00 00       	mov    $0x9,%esi
    a892:	89 c7                	mov    %eax,%edi
    a894:	e8 f9 db ff ff       	callq  8492 <safe_lshift_func_int16_t_s_s>
    a899:	89 de                	mov    %ebx,%esi
    a89b:	bf 01 00 00 00       	mov    $0x1,%edi
    a8a0:	e8 5a e4 ff ff       	callq  8cff <safe_add_func_uint16_t_u_u>
    a8a5:	66 85 c0             	test   %ax,%ax
    a8a8:	8b 85 e4 fe ff ff    	mov    -0x11c(%rbp),%eax
    a8ae:	33 85 48 fd ff ff    	xor    -0x2b8(%rbp),%eax
    a8b4:	39 85 48 fd ff ff    	cmp    %eax,-0x2b8(%rbp)
    a8ba:	7c 07                	jl     a8c3 <func_8+0x30e>
    a8bc:	ba 01 00 00 00       	mov    $0x1,%edx
    a8c1:	eb 05                	jmp    a8c8 <func_8+0x313>
    a8c3:	ba 00 00 00 00       	mov    $0x0,%edx
    a8c8:	0f b6 85 47 fd ff ff 	movzbl -0x2b9(%rbp),%eax
    a8cf:	39 c2                	cmp    %eax,%edx
    a8d1:	0f 9f c0             	setg   %al
    a8d4:	0f b6 c8             	movzbl %al,%ecx
    a8d7:	8b 95 38 ff ff ff    	mov    -0xc8(%rbp),%edx
    a8dd:	48 8b 05 cc 15 01 00 	mov    0x115cc(%rip),%rax        # 1beb0 <g_202>
    a8e4:	21 ca                	and    %ecx,%edx
    a8e6:	89 10                	mov    %edx,(%rax)
    a8e8:	48 8b 85 38 fd ff ff 	mov    -0x2c8(%rbp),%rax
    a8ef:	48 8b 5d e8          	mov    -0x18(%rbp),%rbx
    a8f3:	64 48 33 1c 25 28 00 	xor    %fs:0x28,%rbx
    a8fa:	00 00 
    a8fc:	74 05                	je     a903 <func_8+0x34e>
    a8fe:	e8 6d d7 ff ff       	callq  8070 <__stack_chk_fail@plt>
    a903:	48 81 c4 c8 02 00 00 	add    $0x2c8,%rsp
    a90a:	5b                   	pop    %rbx
    a90b:	5d                   	pop    %rbp
    a90c:	c3                   	retq   

000000000000a90d <func_20>:
    a90d:	f3 0f 1e fa          	endbr64 
    a911:	55                   	push   %rbp
    a912:	48 89 e5             	mov    %rsp,%rbp
    a915:	53                   	push   %rbx
    a916:	48 81 ec 58 02 00 00 	sub    $0x258,%rsp
    a91d:	48 89 bd a8 fd ff ff 	mov    %rdi,-0x258(%rbp)
    a924:	89 f0                	mov    %esi,%eax
    a926:	88 85 a4 fd ff ff    	mov    %al,-0x25c(%rbp)
    a92c:	64 48 8b 04 25 28 00 	mov    %fs:0x28,%rax
    a933:	00 00 
    a935:	48 89 45 e8          	mov    %rax,-0x18(%rbp)
    a939:	31 c0                	xor    %eax,%eax
    a93b:	48 8d 85 00 fe ff ff 	lea    -0x200(%rbp),%rax
    a942:	48 8d 15 57 fa 00 00 	lea    0xfa57(%rip),%rdx        # 1a3a0 <g_1285+0x3d0>
    a949:	b9 3c 00 00 00       	mov    $0x3c,%ecx
    a94e:	48 89 c7             	mov    %rax,%rdi
    a951:	48 89 d6             	mov    %rdx,%rsi
    a954:	f3 48 a5             	rep movsq %ds:(%rsi),%es:(%rdi)
    a957:	48 8d 05 52 15 01 00 	lea    0x11552(%rip),%rax        # 1beb0 <g_202>
    a95e:	48 89 85 d0 fd ff ff 	mov    %rax,-0x230(%rbp)
    a965:	48 8d 05 34 e7 00 00 	lea    0xe734(%rip),%rax        # 190a0 <g_205>
    a96c:	48 89 85 d8 fd ff ff 	mov    %rax,-0x228(%rbp)
    a973:	c7 85 c0 fd ff ff ff 	movl   $0xffffffff,-0x240(%rbp)
    a97a:	ff ff ff 
    a97d:	48 8d 05 4c f0 00 00 	lea    0xf04c(%rip),%rax        # 199d0 <g_294>
    a984:	48 89 85 e0 fd ff ff 	mov    %rax,-0x220(%rbp)
    a98b:	c7 85 c4 fd ff ff 01 	movl   $0x1,-0x23c(%rbp)
    a992:	00 00 00 
    a995:	66 c7 85 f2 fd ff ff 	movw   $0x0,-0x20e(%rbp)
    a99c:	00 00 
    a99e:	66 c7 85 f4 fd ff ff 	movw   $0x6bdf,-0x20c(%rbp)
    a9a5:	df 6b 
    a9a7:	66 c7 85 f6 fd ff ff 	movw   $0x0,-0x20a(%rbp)
    a9ae:	00 00 
    a9b0:	66 c7 85 f8 fd ff ff 	movw   $0x0,-0x208(%rbp)
    a9b7:	00 00 
    a9b9:	66 c7 85 fa fd ff ff 	movw   $0x6bdf,-0x206(%rbp)
    a9c0:	df 6b 
    a9c2:	66 c7 85 fc fd ff ff 	movw   $0x0,-0x204(%rbp)
    a9c9:	00 00 
    a9cb:	66 c7 85 fe fd ff ff 	movw   $0x0,-0x202(%rbp)
    a9d2:	00 00 
    a9d4:	66 c7 85 be fd ff ff 	movw   $0x5d0f,-0x242(%rbp)
    a9db:	0f 5d 
    a9dd:	48 c7 85 e8 fd ff ff 	movq   $0x0,-0x218(%rbp)
    a9e4:	00 00 00 00 
    a9e8:	48 8b 85 a8 fd ff ff 	mov    -0x258(%rbp),%rax
    a9ef:	48 89 05 ba 16 01 00 	mov    %rax,0x116ba(%rip)        # 1c0b0 <g_859>
    a9f6:	0f b7 85 fe fd ff ff 	movzwl -0x202(%rbp),%eax
    a9fd:	0f bf d8             	movswl %ax,%ebx
    aa00:	0f be 85 a4 fd ff ff 	movsbl -0x25c(%rbp),%eax
    aa07:	be 01 00 00 00       	mov    $0x1,%esi
    aa0c:	89 c7                	mov    %eax,%edi
    aa0e:	e8 42 da ff ff       	callq  8455 <safe_div_func_int16_t_s_s>
    aa13:	80 bd a4 fd ff ff ff 	cmpb   $0xff,-0x25c(%rbp)
    aa1a:	0f 95 c0             	setne  %al
    aa1d:	0f b6 c0             	movzbl %al,%eax
    aa20:	89 de                	mov    %ebx,%esi
    aa22:	89 c7                	mov    %eax,%edi
    aa24:	e8 b8 da ff ff       	callq  84e1 <safe_lshift_func_int16_t_s_u>
    aa29:	48 0f be 95 a4 fd ff 	movsbq -0x25c(%rbp),%rdx
    aa30:	ff 
    aa31:	48 8b 05 88 14 01 00 	mov    0x11488(%rip),%rax        # 1bec0 <g_437>
    aa38:	48 8b 30             	mov    (%rax),%rsi
    aa3b:	8b 8d c4 fd ff ff    	mov    -0x23c(%rbp),%ecx
    aa41:	48 8b 05 78 14 01 00 	mov    0x11478(%rip),%rax        # 1bec0 <g_437>
    aa48:	48 31 f1             	xor    %rsi,%rcx
    aa4b:	48 89 08             	mov    %rcx,(%rax)
    aa4e:	48 8b 00             	mov    (%rax),%rax
    aa51:	48 89 d6             	mov    %rdx,%rsi
    aa54:	48 89 c7             	mov    %rax,%rdi
    aa57:	e8 ef e5 ff ff       	callq  904b <safe_sub_func_uint64_t_u_u>
    aa5c:	89 c6                	mov    %eax,%esi
    aa5e:	bf 05 00 00 00       	mov    $0x5,%edi
    aa63:	e8 04 d9 ff ff       	callq  836c <safe_rshift_func_int8_t_s_u>
    aa68:	0f be c0             	movsbl %al,%eax
    aa6b:	be 01 00 00 00       	mov    $0x1,%esi
    aa70:	89 c7                	mov    %eax,%edi
    aa72:	e8 9b d7 ff ff       	callq  8212 <safe_mul_func_int8_t_s_s>
    aa77:	66 c7 85 be fd ff ff 	movw   $0x0,-0x242(%rbp)
    aa7e:	00 00 
    aa80:	c6 85 a4 fd ff ff f8 	movb   $0xf8,-0x25c(%rbp)
    aa87:	eb 4e                	jmp    aad7 <func_20+0x1ca>
    aa89:	c7 85 c8 fd ff ff 08 	movl   $0x8,-0x238(%rbp)
    aa90:	00 00 00 
    aa93:	c7 85 cc fd ff ff 09 	movl   $0x9,-0x234(%rbp)
    aa9a:	00 00 00 
    aa9d:	81 b5 c8 fd ff ff 74 	xorl   $0x4ac13c74,-0x238(%rbp)
    aaa4:	3c c1 4a 
    aaa7:	0f be 85 a4 fd ff ff 	movsbl -0x25c(%rbp),%eax
    aaae:	09 85 cc fd ff ff    	or     %eax,-0x234(%rbp)
    aab4:	80 bd a4 fd ff ff ff 	cmpb   $0xff,-0x25c(%rbp)
    aabb:	0f 9d c0             	setge  %al
    aabe:	0f b6 c0             	movzbl %al,%eax
    aac1:	89 85 cc fd ff ff    	mov    %eax,-0x234(%rbp)
    aac7:	0f b6 85 a4 fd ff ff 	movzbl -0x25c(%rbp),%eax
    aace:	83 e8 01             	sub    $0x1,%eax
    aad1:	88 85 a4 fd ff ff    	mov    %al,-0x25c(%rbp)
    aad7:	80 bd a4 fd ff ff eb 	cmpb   $0xeb,-0x25c(%rbp)
    aade:	75 a9                	jne    aa89 <func_20+0x17c>
    aae0:	48 8b 85 e8 fd ff ff 	mov    -0x218(%rbp),%rax
    aae7:	48 8b 5d e8          	mov    -0x18(%rbp),%rbx
    aaeb:	64 48 33 1c 25 28 00 	xor    %fs:0x28,%rbx
    aaf2:	00 00 
    aaf4:	74 05                	je     aafb <func_20+0x1ee>
    aaf6:	e8 75 d5 ff ff       	callq  8070 <__stack_chk_fail@plt>
    aafb:	48 81 c4 58 02 00 00 	add    $0x258,%rsp
    ab02:	5b                   	pop    %rbx
    ab03:	5d                   	pop    %rbp
    ab04:	c3                   	retq   

000000000000ab05 <func_23>:
    ab05:	f3 0f 1e fa          	endbr64 
    ab09:	55                   	push   %rbp
    ab0a:	48 89 e5             	mov    %rsp,%rbp
    ab0d:	41 57                	push   %r15
    ab0f:	41 56                	push   %r14
    ab11:	41 55                	push   %r13
    ab13:	41 54                	push   %r12
    ab15:	53                   	push   %rbx
    ab16:	48 81 ec 00 10 00 00 	sub    $0x1000,%rsp
    ab1d:	48 83 0c 24 00       	orq    $0x0,(%rsp)
    ab22:	48 81 ec a8 07 00 00 	sub    $0x7a8,%rsp
    ab29:	89 f0                	mov    %esi,%eax
    ab2b:	89 95 44 e8 ff ff    	mov    %edx,-0x17bc(%rbp)
    ab31:	48 89 8d 38 e8 ff ff 	mov    %rcx,-0x17c8(%rbp)
    ab38:	89 fa                	mov    %edi,%edx
    ab3a:	88 95 4c e8 ff ff    	mov    %dl,-0x17b4(%rbp)
    ab40:	66 89 85 48 e8 ff ff 	mov    %ax,-0x17b8(%rbp)
    ab47:	64 48 8b 04 25 28 00 	mov    %fs:0x28,%rax
    ab4e:	00 00 
    ab50:	48 89 45 c8          	mov    %rax,-0x38(%rbp)
    ab54:	31 c0                	xor    %eax,%eax
    ab56:	48 8d 85 80 ef ff ff 	lea    -0x1080(%rbp),%rax
    ab5d:	48 8d 15 1c fa 00 00 	lea    0xfa1c(%rip),%rdx        # 1a580 <g_1285+0x5b0>
    ab64:	b9 46 00 00 00       	mov    $0x46,%ecx
    ab69:	48 89 c7             	mov    %rax,%rdi
    ab6c:	48 89 d6             	mov    %rdx,%rsi
    ab6f:	f3 48 a5             	rep movsq %ds:(%rsi),%es:(%rdi)
    ab72:	c7 85 68 e8 ff ff df 	movl   $0x7b76eadf,-0x1798(%rbp)
    ab79:	ea 76 7b 
    ab7c:	c7 85 80 ed ff ff 01 	movl   $0x1,-0x1280(%rbp)
    ab83:	00 00 00 
    ab86:	c7 85 84 ed ff ff 34 	movl   $0xb54f5a34,-0x127c(%rbp)
    ab8d:	5a 4f b5 
    ab90:	c7 85 88 ed ff ff fe 	movl   $0xfffffffe,-0x1278(%rbp)
    ab97:	ff ff ff 
    ab9a:	c7 85 8c ed ff ff fe 	movl   $0xfffffffe,-0x1274(%rbp)
    aba1:	ff ff ff 
    aba4:	c7 85 90 ed ff ff 34 	movl   $0xb54f5a34,-0x1270(%rbp)
    abab:	5a 4f b5 
    abae:	c7 85 94 ed ff ff 01 	movl   $0x1,-0x126c(%rbp)
    abb5:	00 00 00 
    abb8:	c7 85 98 ed ff ff 34 	movl   $0xb54f5a34,-0x1268(%rbp)
    abbf:	5a 4f b5 
    abc2:	c7 85 9c ed ff ff fe 	movl   $0xfffffffe,-0x1264(%rbp)
    abc9:	ff ff ff 
    abcc:	c7 85 a0 ed ff ff 00 	movl   $0x0,-0x1260(%rbp)
    abd3:	00 00 00 
    abd6:	c7 85 a4 ed ff ff 34 	movl   $0xb54f5a34,-0x125c(%rbp)
    abdd:	5a 4f b5 
    abe0:	c7 85 a8 ed ff ff 00 	movl   $0x0,-0x1258(%rbp)
    abe7:	00 00 00 
    abea:	c7 85 ac ed ff ff 01 	movl   $0x1,-0x1254(%rbp)
    abf1:	00 00 00 
    abf4:	c7 85 b0 ed ff ff 01 	movl   $0x1,-0x1250(%rbp)
    abfb:	00 00 00 
    abfe:	c7 85 b4 ed ff ff 00 	movl   $0x0,-0x124c(%rbp)
    ac05:	00 00 00 
    ac08:	c7 85 b8 ed ff ff 34 	movl   $0xb54f5a34,-0x1248(%rbp)
    ac0f:	5a 4f b5 
    ac12:	c7 85 bc ed ff ff 00 	movl   $0x0,-0x1244(%rbp)
    ac19:	00 00 00 
    ac1c:	c7 85 c0 ed ff ff 02 	movl   $0x2,-0x1240(%rbp)
    ac23:	00 00 00 
    ac26:	c7 85 c4 ed ff ff 01 	movl   $0x1,-0x123c(%rbp)
    ac2d:	00 00 00 
    ac30:	c7 85 c8 ed ff ff fe 	movl   $0xfffffffe,-0x1238(%rbp)
    ac37:	ff ff ff 
    ac3a:	c7 85 cc ed ff ff 01 	movl   $0x1,-0x1234(%rbp)
    ac41:	00 00 00 
    ac44:	c7 85 d0 ed ff ff 02 	movl   $0x2,-0x1230(%rbp)
    ac4b:	00 00 00 
    ac4e:	c7 85 d4 ed ff ff 02 	movl   $0x2,-0x122c(%rbp)
    ac55:	00 00 00 
    ac58:	c7 85 d8 ed ff ff 01 	movl   $0x1,-0x1228(%rbp)
    ac5f:	00 00 00 
    ac62:	c7 85 dc ed ff ff fe 	movl   $0xfffffffe,-0x1224(%rbp)
    ac69:	ff ff ff 
    ac6c:	c7 85 e0 ed ff ff 02 	movl   $0x2,-0x1220(%rbp)
    ac73:	00 00 00 
    ac76:	c7 85 e4 ed ff ff 02 	movl   $0x2,-0x121c(%rbp)
    ac7d:	00 00 00 
    ac80:	c7 85 e8 ed ff ff 01 	movl   $0x1,-0x1218(%rbp)
    ac87:	00 00 00 
    ac8a:	c7 85 ec ed ff ff fe 	movl   $0xfffffffe,-0x1214(%rbp)
    ac91:	ff ff ff 
    ac94:	c7 85 f0 ed ff ff 01 	movl   $0x1,-0x1210(%rbp)
    ac9b:	00 00 00 
    ac9e:	c7 85 f4 ed ff ff 02 	movl   $0x2,-0x120c(%rbp)
    aca5:	00 00 00 
    aca8:	c7 85 f8 ed ff ff 02 	movl   $0x2,-0x1208(%rbp)
    acaf:	00 00 00 
    acb2:	c7 85 fc ed ff ff 01 	movl   $0x1,-0x1204(%rbp)
    acb9:	00 00 00 
    acbc:	48 b8 13 78 19 cd 52 	movabs $0x3f01f052cd197813,%rax
    acc3:	f0 01 3f 
    acc6:	48 89 85 80 ec ff ff 	mov    %rax,-0x1380(%rbp)
    accd:	48 89 85 88 ec ff ff 	mov    %rax,-0x1378(%rbp)
    acd4:	48 c7 85 90 ec ff ff 	movq   $0xfffffffffffffffe,-0x1370(%rbp)
    acdb:	fe ff ff ff 
    acdf:	48 89 85 98 ec ff ff 	mov    %rax,-0x1368(%rbp)
    ace6:	48 89 85 a0 ec ff ff 	mov    %rax,-0x1360(%rbp)
    aced:	48 c7 85 a8 ec ff ff 	movq   $0xfffffffffffffffe,-0x1358(%rbp)
    acf4:	fe ff ff ff 
    acf8:	48 89 85 b0 ec ff ff 	mov    %rax,-0x1350(%rbp)
    acff:	48 c7 85 20 ea ff ff 	movq   $0xffffffffffffffff,-0x15e0(%rbp)
    ad06:	ff ff ff ff 
    ad0a:	48 8d 05 71 ed 00 00 	lea    0xed71(%rip),%rax        # 19a82 <g_635>
    ad11:	48 89 85 58 e9 ff ff 	mov    %rax,-0x16a8(%rbp)
    ad18:	48 c7 85 60 e9 ff ff 	movq   $0x0,-0x16a0(%rbp)
    ad1f:	00 00 00 00 
    ad23:	48 8d 05 06 e3 00 00 	lea    0xe306(%rip),%rax        # 19030 <g_15>
    ad2a:	48 89 85 68 e9 ff ff 	mov    %rax,-0x1698(%rbp)
    ad31:	48 8d 05 58 e3 00 00 	lea    0xe358(%rip),%rax        # 19090 <g_129>
    ad38:	48 89 85 70 e9 ff ff 	mov    %rax,-0x1690(%rbp)
    ad3f:	48 8d 85 70 e9 ff ff 	lea    -0x1690(%rbp),%rax
    ad46:	48 89 85 28 ea ff ff 	mov    %rax,-0x15d8(%rbp)
    ad4d:	48 c7 85 78 e9 ff ff 	movq   $0x0,-0x1688(%rbp)
    ad54:	00 00 00 00 
    ad58:	48 8d 05 41 e3 00 00 	lea    0xe341(%rip),%rax        # 190a0 <g_205>
    ad5f:	48 89 85 c0 ec ff ff 	mov    %rax,-0x1340(%rbp)
    ad66:	48 8d 05 33 e3 00 00 	lea    0xe333(%rip),%rax        # 190a0 <g_205>
    ad6d:	48 89 85 c8 ec ff ff 	mov    %rax,-0x1338(%rbp)
    ad74:	48 8d 05 25 e3 00 00 	lea    0xe325(%rip),%rax        # 190a0 <g_205>
    ad7b:	48 89 85 d0 ec ff ff 	mov    %rax,-0x1330(%rbp)
    ad82:	48 8d 05 17 e3 00 00 	lea    0xe317(%rip),%rax        # 190a0 <g_205>
    ad89:	48 89 85 d8 ec ff ff 	mov    %rax,-0x1328(%rbp)
    ad90:	48 8d 05 09 e3 00 00 	lea    0xe309(%rip),%rax        # 190a0 <g_205>
    ad97:	48 89 85 e0 ec ff ff 	mov    %rax,-0x1320(%rbp)
    ad9e:	48 8d 05 fb e2 00 00 	lea    0xe2fb(%rip),%rax        # 190a0 <g_205>
    ada5:	48 89 85 e8 ec ff ff 	mov    %rax,-0x1318(%rbp)
    adac:	48 8d 05 ed e2 00 00 	lea    0xe2ed(%rip),%rax        # 190a0 <g_205>
    adb3:	48 89 85 f0 ec ff ff 	mov    %rax,-0x1310(%rbp)
    adba:	48 c7 85 30 ea ff ff 	movq   $0x0,-0x15d0(%rbp)
    adc1:	00 00 00 00 
    adc5:	48 8d 05 a2 e2 00 00 	lea    0xe2a2(%rip),%rax        # 1906e <g_116+0xe>
    adcc:	48 89 85 38 ea ff ff 	mov    %rax,-0x15c8(%rbp)
    add3:	48 b8 de dd 3a 91 21 	movabs $0xccf4fd21913addde,%rax
    adda:	fd f4 cc 
    addd:	48 89 85 80 e9 ff ff 	mov    %rax,-0x1680(%rbp)
    ade4:	c7 85 6c e8 ff ff ff 	movl   $0xffffffff,-0x1794(%rbp)
    adeb:	ff ff ff 
    adee:	c7 85 70 e8 ff ff ac 	movl   $0x7322a8ac,-0x1790(%rbp)
    adf5:	a8 22 73 
    adf8:	48 8d 05 91 24 01 00 	lea    0x12491(%rip),%rax        # 1d290 <g_172>
    adff:	48 89 85 40 ea ff ff 	mov    %rax,-0x15c0(%rbp)
    ae06:	48 8d 05 c3 10 01 00 	lea    0x110c3(%rip),%rax        # 1bed0 <g_665>
    ae0d:	48 89 85 48 ea ff ff 	mov    %rax,-0x15b8(%rbp)
    ae14:	48 8d 05 3d e2 00 00 	lea    0xe23d(%rip),%rax        # 19058 <g_110>
    ae1b:	48 89 85 50 ea ff ff 	mov    %rax,-0x15b0(%rbp)
    ae22:	66 c7 85 60 e8 ff ff 	movw   $0xffff,-0x17a0(%rbp)
    ae29:	ff ff 
    ae2b:	48 8d 85 b0 f1 ff ff 	lea    -0xe50(%rbp),%rax
    ae32:	48 8d 15 87 f9 00 00 	lea    0xf987(%rip),%rdx        # 1a7c0 <g_1285+0x7f0>
    ae39:	b9 5a 00 00 00       	mov    $0x5a,%ecx
    ae3e:	48 89 c7             	mov    %rax,%rdi
    ae41:	48 89 d6             	mov    %rdx,%rsi
    ae44:	f3 48 a5             	rep movsq %ds:(%rsi),%es:(%rdi)
    ae47:	48 8d 85 6c e8 ff ff 	lea    -0x1794(%rbp),%rax
    ae4e:	48 89 85 88 e9 ff ff 	mov    %rax,-0x1678(%rbp)
    ae55:	48 b8 09 a6 7c bf fa 	movabs $0x149676fabf7ca609,%rax
    ae5c:	76 96 14 
    ae5f:	48 89 85 58 ea ff ff 	mov    %rax,-0x15a8(%rbp)
    ae66:	48 8d 85 80 e9 ff ff 	lea    -0x1680(%rbp),%rax
    ae6d:	48 89 85 90 e9 ff ff 	mov    %rax,-0x1670(%rbp)
    ae74:	48 8d 85 90 e9 ff ff 	lea    -0x1670(%rbp),%rax
    ae7b:	48 89 85 98 e9 ff ff 	mov    %rax,-0x1668(%rbp)
    ae82:	48 8d 85 98 e9 ff ff 	lea    -0x1668(%rbp),%rax
    ae89:	48 89 85 60 ea ff ff 	mov    %rax,-0x15a0(%rbp)
    ae90:	48 8d 85 70 e9 ff ff 	lea    -0x1690(%rbp),%rax
    ae97:	48 89 85 a0 e9 ff ff 	mov    %rax,-0x1660(%rbp)
    ae9e:	48 8d 85 a0 e9 ff ff 	lea    -0x1660(%rbp),%rax
    aea5:	48 89 85 68 ea ff ff 	mov    %rax,-0x1598(%rbp)
    aeac:	48 8b 85 38 e8 ff ff 	mov    -0x17c8(%rbp),%rax
    aeb3:	8b 00                	mov    (%rax),%eax
    aeb5:	0d c2 de 1d 30       	or     $0x301ddec2,%eax
    aeba:	89 c2                	mov    %eax,%edx
    aebc:	48 8b 85 38 e8 ff ff 	mov    -0x17c8(%rbp),%rax
    aec3:	89 10                	mov    %edx,(%rax)
    aec5:	c7 05 71 eb 00 00 00 	movl   $0x0,0xeb71(%rip)        # 19a40 <g_381>
    aecc:	00 00 00 
    aecf:	e9 d2 15 00 00       	jmpq   c4a6 <func_23+0x19a1>
    aed4:	48 8d 05 e5 0f 01 00 	lea    0x10fe5(%rip),%rax        # 1bec0 <g_437>
    aedb:	48 89 85 70 eb ff ff 	mov    %rax,-0x1490(%rbp)
    aee2:	8b 85 d0 e9 ff ff    	mov    -0x1630(%rbp),%eax
    aee8:	25 00 00 f8 ff       	and    $0xfff80000,%eax
    aeed:	0c f3                	or     $0xf3,%al
    aeef:	89 85 d0 e9 ff ff    	mov    %eax,-0x1630(%rbp)
    aef5:	0f b7 85 d2 e9 ff ff 	movzwl -0x162e(%rbp),%eax
    aefc:	83 e0 07             	and    $0x7,%eax
    aeff:	80 cc 42             	or     $0x42,%ah
    af02:	66 89 85 d2 e9 ff ff 	mov    %ax,-0x162e(%rbp)
    af09:	0f b7 85 d4 e9 ff ff 	movzwl -0x162c(%rbp),%eax
    af10:	66 25 00 f8          	and    $0xf800,%ax
    af14:	66 89 85 d4 e9 ff ff 	mov    %ax,-0x162c(%rbp)
    af1b:	66 c7 85 62 e8 ff ff 	movw   $0x1,-0x179e(%rbp)
    af22:	01 00 
    af24:	c7 85 20 e9 ff ff 23 	movl   $0xd5010323,-0x16e0(%rbp)
    af2b:	03 01 d5 
    af2e:	c7 85 24 e9 ff ff 00 	movl   $0x0,-0x16dc(%rbp)
    af35:	00 00 00 
    af38:	c7 85 a4 e8 ff ff 00 	movl   $0x0,-0x175c(%rbp)
    af3f:	00 00 00 
    af42:	48 c7 85 78 eb ff ff 	movq   $0x0,-0x1488(%rbp)
    af49:	00 00 00 00 
    af4d:	48 8d 05 7c 0f 01 00 	lea    0x10f7c(%rip),%rax        # 1bed0 <g_665>
    af54:	48 89 85 80 eb ff ff 	mov    %rax,-0x1480(%rbp)
    af5b:	48 c7 85 88 eb ff ff 	movq   $0x0,-0x1478(%rbp)
    af62:	00 00 00 00 
    af66:	66 c7 05 11 eb 00 00 	movw   $0x0,0xeb11(%rip)        # 19a80 <g_632>
    af6d:	00 00 
    af6f:	e9 76 13 00 00       	jmpq   c2ea <func_23+0x17e5>
    af74:	c7 85 28 e9 ff ff 07 	movl   $0x7,-0x16d8(%rbp)
    af7b:	00 00 00 
    af7e:	c7 85 a8 e8 ff ff 33 	movl   $0xc45df33,-0x1758(%rbp)
    af85:	df 45 0c 
    af88:	48 8d 85 58 e9 ff ff 	lea    -0x16a8(%rbp),%rax
    af8f:	48 89 85 90 eb ff ff 	mov    %rax,-0x1470(%rbp)
    af96:	48 8d 85 60 e9 ff ff 	lea    -0x16a0(%rbp),%rax
    af9d:	48 89 85 98 eb ff ff 	mov    %rax,-0x1468(%rbp)
    afa4:	c7 85 2c e9 ff ff b7 	movl   $0xfc2227b7,-0x16d4(%rbp)
    afab:	27 22 fc 
    afae:	48 c7 85 a0 eb ff ff 	movq   $0x5,-0x1460(%rbp)
    afb5:	05 00 00 00 
    afb9:	48 8d 05 00 ea 00 00 	lea    0xea00(%rip),%rax        # 199c0 <g_259>
    afc0:	48 89 85 a8 eb ff ff 	mov    %rax,-0x1458(%rbp)
    afc7:	c6 85 4c e8 ff ff 00 	movb   $0x0,-0x17b4(%rbp)
    afce:	e9 e0 07 00 00       	jmpq   b7b3 <func_23+0xcae>
    afd3:	8b 85 90 ee ff ff    	mov    -0x1170(%rbp),%eax
    afd9:	25 00 00 f8 ff       	and    $0xfff80000,%eax
    afde:	0d 6a ff 07 00       	or     $0x7ff6a,%eax
    afe3:	89 85 90 ee ff ff    	mov    %eax,-0x1170(%rbp)
    afe9:	0f b7 85 92 ee ff ff 	movzwl -0x116e(%rbp),%eax
    aff0:	83 e0 07             	and    $0x7,%eax
    aff3:	66 0d f0 1c          	or     $0x1cf0,%ax
    aff7:	66 89 85 92 ee ff ff 	mov    %ax,-0x116e(%rbp)
    affe:	0f b7 85 94 ee ff ff 	movzwl -0x116c(%rbp),%eax
    b005:	66 25 00 f8          	and    $0xf800,%ax
    b009:	66 89 85 94 ee ff ff 	mov    %ax,-0x116c(%rbp)
    b010:	0f b7 85 96 ee ff ff 	movzwl -0x116a(%rbp),%eax
    b017:	83 e0 00             	and    $0x0,%eax
    b01a:	66 0d 6a ff          	or     $0xff6a,%ax
    b01e:	66 89 85 96 ee ff ff 	mov    %ax,-0x116a(%rbp)
    b025:	0f b6 85 98 ee ff ff 	movzbl -0x1168(%rbp),%eax
    b02c:	83 c8 07             	or     $0x7,%eax
    b02f:	88 85 98 ee ff ff    	mov    %al,-0x1168(%rbp)
    b035:	0f b7 85 98 ee ff ff 	movzwl -0x1168(%rbp),%eax
    b03c:	83 e0 07             	and    $0x7,%eax
    b03f:	66 0d f0 1c          	or     $0x1cf0,%ax
    b043:	66 89 85 98 ee ff ff 	mov    %ax,-0x1168(%rbp)
    b04a:	0f b7 85 9a ee ff ff 	movzwl -0x1166(%rbp),%eax
    b051:	66 25 00 f8          	and    $0xf800,%ax
    b055:	66 89 85 9a ee ff ff 	mov    %ax,-0x1166(%rbp)
    b05c:	8b 85 9c ee ff ff    	mov    -0x1164(%rbp),%eax
    b062:	25 00 00 f8 ff       	and    $0xfff80000,%eax
    b067:	0d 6a ff 07 00       	or     $0x7ff6a,%eax
    b06c:	89 85 9c ee ff ff    	mov    %eax,-0x1164(%rbp)
    b072:	0f b7 85 9e ee ff ff 	movzwl -0x1162(%rbp),%eax
    b079:	83 e0 07             	and    $0x7,%eax
    b07c:	66 0d f0 1c          	or     $0x1cf0,%ax
    b080:	66 89 85 9e ee ff ff 	mov    %ax,-0x1162(%rbp)
    b087:	0f b7 85 a0 ee ff ff 	movzwl -0x1160(%rbp),%eax
    b08e:	66 25 00 f8          	and    $0xf800,%ax
    b092:	66 89 85 a0 ee ff ff 	mov    %ax,-0x1160(%rbp)
    b099:	48 8d 05 f4 df 00 00 	lea    0xdff4(%rip),%rax        # 19094 <g_167>
    b0a0:	48 89 85 e0 eb ff ff 	mov    %rax,-0x1420(%rbp)
    b0a7:	c7 85 34 e9 ff ff 31 	movl   $0xd860dd31,-0x16cc(%rbp)
    b0ae:	dd 60 d8 
    b0b1:	c7 85 38 e9 ff ff ff 	movl   $0xffffffff,-0x16c8(%rbp)
    b0b8:	ff ff ff 
    b0bb:	c7 85 3c e9 ff ff 2f 	movl   $0x8606de2f,-0x16c4(%rbp)
    b0c2:	de 06 86 
    b0c5:	48 8b 05 f4 0d 01 00 	mov    0x10df4(%rip),%rax        # 1bec0 <g_437>
    b0cc:	48 8b 08             	mov    (%rax),%rcx
    b0cf:	0f b7 05 aa e9 00 00 	movzwl 0xe9aa(%rip),%eax        # 19a80 <g_632>
    b0d6:	0f b7 c0             	movzwl %ax,%eax
    b0d9:	8d 50 02             	lea    0x2(%rax),%edx
    b0dc:	0f b6 85 4c e8 ff ff 	movzbl -0x17b4(%rbp),%eax
    b0e3:	83 c0 04             	add    $0x4,%eax
    b0e6:	48 63 f0             	movslq %eax,%rsi
    b0e9:	48 63 d2             	movslq %edx,%rdx
    b0ec:	48 89 d0             	mov    %rdx,%rax
    b0ef:	48 c1 e0 02          	shl    $0x2,%rax
    b0f3:	48 01 d0             	add    %rdx,%rax
    b0f6:	48 01 c0             	add    %rax,%rax
    b0f9:	48 01 f0             	add    %rsi,%rax
    b0fc:	48 8d 14 85 00 00 00 	lea    0x0(,%rax,4),%rdx
    b103:	00 
    b104:	48 8d 05 95 e9 00 00 	lea    0xe995(%rip),%rax        # 19aa0 <g_673>
    b10b:	8b 04 02             	mov    (%rdx,%rax,1),%eax
    b10e:	48 63 d0             	movslq %eax,%rdx
    b111:	48 8b 05 a8 0d 01 00 	mov    0x10da8(%rip),%rax        # 1bec0 <g_437>
    b118:	48 21 ca             	and    %rcx,%rdx
    b11b:	48 89 10             	mov    %rdx,(%rax)
    b11e:	48 8b 10             	mov    (%rax),%rdx
    b121:	48 8b 85 e0 f0 ff ff 	mov    -0xf20(%rbp),%rax
    b128:	48 39 85 70 eb ff ff 	cmp    %rax,-0x1490(%rbp)
    b12f:	0f 95 c0             	setne  %al
    b132:	0f b6 c0             	movzbl %al,%eax
    b135:	48 39 c2             	cmp    %rax,%rdx
    b138:	0f 97 c0             	seta   %al
    b13b:	0f b6 d0             	movzbl %al,%edx
    b13e:	48 8b 85 38 e8 ff ff 	mov    -0x17c8(%rbp),%rax
    b145:	89 10                	mov    %edx,(%rax)
    b147:	8b 1d 0b df 00 00    	mov    0xdf0b(%rip),%ebx        # 19058 <g_110>
    b14d:	48 8b 85 e0 eb ff ff 	mov    -0x1420(%rbp),%rax
    b154:	8b 00                	mov    (%rax),%eax
    b156:	8d 50 01             	lea    0x1(%rax),%edx
    b159:	48 8b 85 e0 eb ff ff 	mov    -0x1420(%rbp),%rax
    b160:	89 10                	mov    %edx,(%rax)
    b162:	48 8b 85 e0 eb ff ff 	mov    -0x1420(%rbp),%rax
    b169:	8b 00                	mov    (%rax),%eax
    b16b:	89 c0                	mov    %eax,%eax
    b16d:	25 d6 57 41 16       	and    $0x164157d6,%eax
    b172:	48 89 c2             	mov    %rax,%rdx
    b175:	48 b8 d9 69 ec 6a 3f 	movabs $0x7d80bf3f6aec69d9,%rax
    b17c:	bf 80 7d 
    b17f:	48 39 c2             	cmp    %rax,%rdx
    b182:	0f 9f c0             	setg   %al
    b185:	0f b6 c0             	movzbl %al,%eax
    b188:	be 02 00 00 00       	mov    $0x2,%esi
    b18d:	89 c7                	mov    %eax,%edi
    b18f:	e8 f9 da ff ff       	callq  8c8d <safe_rshift_func_uint8_t_u_s>
    b194:	0f b6 c0             	movzbl %al,%eax
    b197:	89 de                	mov    %ebx,%esi
    b199:	89 c7                	mov    %eax,%edi
    b19b:	e8 ac da ff ff       	callq  8c4c <safe_lshift_func_uint8_t_u_u>
    b1a0:	0f b7 15 c9 e8 00 00 	movzwl 0xe8c9(%rip),%edx        # 19a70 <g_587>
    b1a7:	66 c1 ea 05          	shr    $0x5,%dx
    b1ab:	83 e2 3f             	and    $0x3f,%edx
    b1ae:	38 d0                	cmp    %dl,%al
    b1b0:	0f 97 c0             	seta   %al
    b1b3:	0f b6 d0             	movzbl %al,%edx
    b1b6:	0f b6 05 b3 e8 00 00 	movzbl 0xe8b3(%rip),%eax        # 19a70 <g_587>
    b1bd:	c1 e0 03             	shl    $0x3,%eax
    b1c0:	c0 f8 03             	sar    $0x3,%al
    b1c3:	0f b6 c0             	movzbl %al,%eax
    b1c6:	89 d6                	mov    %edx,%esi
    b1c8:	89 c7                	mov    %eax,%edi
    b1ca:	e8 8b d9 ff ff       	callq  8b5a <safe_add_func_uint8_t_u_u>
    b1cf:	0f b6 c0             	movzbl %al,%eax
    b1d2:	be 43 68 00 00       	mov    $0x6843,%esi
    b1d7:	89 c7                	mov    %eax,%edi
    b1d9:	e8 21 db ff ff       	callq  8cff <safe_add_func_uint16_t_u_u>
    b1de:	0f b7 d0             	movzwl %ax,%edx
    b1e1:	b8 01 00 00 00       	mov    $0x1,%eax
    b1e6:	48 98                	cltq   
    b1e8:	48 89 d6             	mov    %rdx,%rsi
    b1eb:	48 89 c7             	mov    %rax,%rdi
    b1ee:	e8 58 de ff ff       	callq  904b <safe_sub_func_uint64_t_u_u>
    b1f3:	89 c2                	mov    %eax,%edx
    b1f5:	48 8b 85 38 e8 ff ff 	mov    -0x17c8(%rbp),%rax
    b1fc:	89 10                	mov    %edx,(%rax)
    b1fe:	48 8b 85 38 e8 ff ff 	mov    -0x17c8(%rbp),%rax
    b205:	8b 10                	mov    (%rax),%edx
    b207:	0f b7 05 ba e7 00 00 	movzwl 0xe7ba(%rip),%eax        # 199c8 <g_262>
    b20e:	98                   	cwtl   
    b20f:	39 c2                	cmp    %eax,%edx
    b211:	7c 17                	jl     b22a <func_23+0x725>
    b213:	48 8b 85 38 e8 ff ff 	mov    -0x17c8(%rbp),%rax
    b21a:	8b 10                	mov    (%rax),%edx
    b21c:	48 8b 85 38 e8 ff ff 	mov    -0x17c8(%rbp),%rax
    b223:	89 10                	mov    %edx,(%rax)
    b225:	e9 4c 05 00 00       	jmpq   b776 <func_23+0xc71>
    b22a:	c7 85 40 e9 ff ff 06 	movl   $0x7c94e506,-0x16c0(%rbp)
    b231:	e5 94 7c 
    b234:	c7 85 44 e9 ff ff ed 	movl   $0x5dcd0ed,-0x16bc(%rbp)
    b23b:	d0 dc 05 
    b23e:	c7 85 48 e9 ff ff d8 	movl   $0x133d63d8,-0x16b8(%rbp)
    b245:	63 3d 13 
    b248:	c7 85 e0 f7 ff ff 42 	movl   $0x44c70a42,-0x820(%rbp)
    b24f:	0a c7 44 
    b252:	c7 85 e4 f7 ff ff 00 	movl   $0x0,-0x81c(%rbp)
    b259:	00 00 00 
    b25c:	c7 85 e8 f7 ff ff ba 	movl   $0xcd3becba,-0x818(%rbp)
    b263:	ec 3b cd 
    b266:	c7 85 ec f7 ff ff 19 	movl   $0xfaf3d919,-0x814(%rbp)
    b26d:	d9 f3 fa 
    b270:	c7 85 f0 f7 ff ff 40 	movl   $0xd4b8b40,-0x810(%rbp)
    b277:	8b 4b 0d 
    b27a:	c7 85 f4 f7 ff ff ff 	movl   $0xffffffff,-0x80c(%rbp)
    b281:	ff ff ff 
    b284:	c7 85 f8 f7 ff ff ff 	movl   $0xffffffff,-0x808(%rbp)
    b28b:	ff ff ff 
    b28e:	c7 85 fc f7 ff ff 40 	movl   $0xd4b8b40,-0x804(%rbp)
    b295:	8b 4b 0d 
    b298:	c7 85 00 f8 ff ff 42 	movl   $0x44c70a42,-0x800(%rbp)
    b29f:	0a c7 44 
    b2a2:	c7 85 04 f8 ff ff 01 	movl   $0x1,-0x7fc(%rbp)
    b2a9:	00 00 00 
    b2ac:	c7 85 08 f8 ff ff 01 	movl   $0x1,-0x7f8(%rbp)
    b2b3:	00 00 00 
    b2b6:	c7 85 0c f8 ff ff 42 	movl   $0x44c70a42,-0x7f4(%rbp)
    b2bd:	0a c7 44 
    b2c0:	c7 85 10 f8 ff ff ff 	movl   $0xffffffff,-0x7f0(%rbp)
    b2c7:	ff ff ff 
    b2ca:	c7 85 14 f8 ff ff 19 	movl   $0xfaf3d919,-0x7ec(%rbp)
    b2d1:	d9 f3 fa 
    b2d4:	c7 85 18 f8 ff ff 00 	movl   $0x0,-0x7e8(%rbp)
    b2db:	00 00 00 
    b2de:	c7 85 1c f8 ff ff 79 	movl   $0x51071179,-0x7e4(%rbp)
    b2e5:	11 07 51 
    b2e8:	c7 85 20 f8 ff ff fb 	movl   $0xfffffffb,-0x7e0(%rbp)
    b2ef:	ff ff ff 
    b2f2:	c7 85 24 f8 ff ff fa 	movl   $0xfffffffa,-0x7dc(%rbp)
    b2f9:	ff ff ff 
    b2fc:	c7 85 28 f8 ff ff 19 	movl   $0xfaf3d919,-0x7d8(%rbp)
    b303:	d9 f3 fa 
    b306:	c7 85 2c f8 ff ff f6 	movl   $0xfffffff6,-0x7d4(%rbp)
    b30d:	ff ff ff 
    b310:	c7 85 30 f8 ff ff 01 	movl   $0x1,-0x7d0(%rbp)
    b317:	00 00 00 
    b31a:	c7 85 34 f8 ff ff 06 	movl   $0x6,-0x7cc(%rbp)
    b321:	00 00 00 
    b324:	c7 85 38 f8 ff ff 79 	movl   $0x51071179,-0x7c8(%rbp)
    b32b:	11 07 51 
    b32e:	c7 85 3c f8 ff ff 06 	movl   $0x6,-0x7c4(%rbp)
    b335:	00 00 00 
    b338:	c7 85 40 f8 ff ff fa 	movl   $0x17c742fa,-0x7c0(%rbp)
    b33f:	42 c7 17 
    b342:	c7 85 44 f8 ff ff fa 	movl   $0xfffffffa,-0x7bc(%rbp)
    b349:	ff ff ff 
    b34c:	c7 85 48 f8 ff ff 00 	movl   $0x0,-0x7b8(%rbp)
    b353:	00 00 00 
    b356:	c7 85 4c f8 ff ff fa 	movl   $0xfffffffa,-0x7b4(%rbp)
    b35d:	ff ff ff 
    b360:	c7 85 50 f8 ff ff fa 	movl   $0x17c742fa,-0x7b0(%rbp)
    b367:	42 c7 17 
    b36a:	c7 85 54 f8 ff ff 19 	movl   $0xfaf3d919,-0x7ac(%rbp)
    b371:	d9 f3 fa 
    b374:	c7 85 58 f8 ff ff 42 	movl   $0x44c70a42,-0x7a8(%rbp)
    b37b:	0a c7 44 
    b37e:	c7 85 5c f8 ff ff 04 	movl   $0x4,-0x7a4(%rbp)
    b385:	00 00 00 
    b388:	c7 85 60 f8 ff ff 19 	movl   $0xfaf3d919,-0x7a0(%rbp)
    b38f:	d9 f3 fa 
    b392:	c7 85 64 f8 ff ff 01 	movl   $0x1,-0x79c(%rbp)
    b399:	00 00 00 
    b39c:	c7 85 68 f8 ff ff fa 	movl   $0x17c742fa,-0x798(%rbp)
    b3a3:	42 c7 17 
    b3a6:	c7 85 6c f8 ff ff fa 	movl   $0x17c742fa,-0x794(%rbp)
    b3ad:	42 c7 17 
    b3b0:	c7 85 70 f8 ff ff ba 	movl   $0xcd3becba,-0x790(%rbp)
    b3b7:	ec 3b cd 
    b3ba:	c7 85 74 f8 ff ff 06 	movl   $0x6,-0x78c(%rbp)
    b3c1:	00 00 00 
    b3c4:	c7 85 78 f8 ff ff 19 	movl   $0xfaf3d919,-0x788(%rbp)
    b3cb:	d9 f3 fa 
    b3ce:	c7 85 7c f8 ff ff 19 	movl   $0xfaf3d919,-0x784(%rbp)
    b3d5:	d9 f3 fa 
    b3d8:	c7 85 80 f8 ff ff fa 	movl   $0xfffffffa,-0x780(%rbp)
    b3df:	ff ff ff 
    b3e2:	c7 85 84 f8 ff ff 01 	movl   $0x1,-0x77c(%rbp)
    b3e9:	00 00 00 
    b3ec:	c7 85 88 f8 ff ff fb 	movl   $0xfffffffb,-0x778(%rbp)
    b3f3:	ff ff ff 
    b3f6:	c7 85 8c f8 ff ff fb 	movl   $0xfffffffb,-0x774(%rbp)
    b3fd:	ff ff ff 
    b400:	c7 85 90 f8 ff ff 01 	movl   $0x1,-0x770(%rbp)
    b407:	00 00 00 
    b40a:	c7 85 94 f8 ff ff fa 	movl   $0xfffffffa,-0x76c(%rbp)
    b411:	ff ff ff 
    b414:	c7 85 98 f8 ff ff 01 	movl   $0x1,-0x768(%rbp)
    b41b:	00 00 00 
    b41e:	c7 85 9c f8 ff ff ba 	movl   $0xcd3becba,-0x764(%rbp)
    b425:	ec 3b cd 
    b428:	c7 85 a0 f8 ff ff ba 	movl   $0xcd3becba,-0x760(%rbp)
    b42f:	ec 3b cd 
    b432:	c7 85 a4 f8 ff ff f6 	movl   $0xfffffff6,-0x75c(%rbp)
    b439:	ff ff ff 
    b43c:	c7 85 a8 f8 ff ff 04 	movl   $0x4,-0x758(%rbp)
    b443:	00 00 00 
    b446:	c7 85 ac f8 ff ff 42 	movl   $0x44c70a42,-0x754(%rbp)
    b44d:	0a c7 44 
    b450:	c7 85 b0 f8 ff ff 19 	movl   $0xfaf3d919,-0x750(%rbp)
    b457:	d9 f3 fa 
    b45a:	c7 85 b4 f8 ff ff fa 	movl   $0x17c742fa,-0x74c(%rbp)
    b461:	42 c7 17 
    b464:	c7 85 b8 f8 ff ff fa 	movl   $0xfffffffa,-0x748(%rbp)
    b46b:	ff ff ff 
    b46e:	c7 85 bc f8 ff ff 00 	movl   $0x0,-0x744(%rbp)
    b475:	00 00 00 
    b478:	c7 85 c0 f8 ff ff 04 	movl   $0x4,-0x740(%rbp)
    b47f:	00 00 00 
    b482:	c7 85 c4 f8 ff ff ff 	movl   $0xffffffff,-0x73c(%rbp)
    b489:	ff ff ff 
    b48c:	c7 85 c8 f8 ff ff 00 	movl   $0x0,-0x738(%rbp)
    b493:	00 00 00 
    b496:	c7 85 cc f8 ff ff 42 	movl   $0x44c70a42,-0x734(%rbp)
    b49d:	0a c7 44 
    b4a0:	c7 85 d0 f8 ff ff 00 	movl   $0x0,-0x730(%rbp)
    b4a7:	00 00 00 
    b4aa:	c7 85 d4 f8 ff ff ff 	movl   $0xffffffff,-0x72c(%rbp)
    b4b1:	ff ff ff 
    b4b4:	c7 85 d8 f8 ff ff 04 	movl   $0x4,-0x728(%rbp)
    b4bb:	00 00 00 
    b4be:	c7 85 dc f8 ff ff ba 	movl   $0xcd3becba,-0x724(%rbp)
    b4c5:	ec 3b cd 
    b4c8:	48 c7 85 e8 eb ff ff 	movq   $0x0,-0x1418(%rbp)
    b4cf:	00 00 00 00 
    b4d3:	c6 05 26 e7 00 00 02 	movb   $0x2,0xe726(%rip)        # 19c00 <g_683>
    b4da:	e9 ff 01 00 00       	jmpq   b6de <func_23+0xbd9>
    b4df:	48 c7 85 f8 eb ff ff 	movq   $0x0,-0x1408(%rbp)
    b4e6:	00 00 00 00 
    b4ea:	48 8d 05 e9 e6 00 00 	lea    0xe6e9(%rip),%rax        # 19bda <g_675+0x3a>
    b4f1:	48 89 85 00 ec ff ff 	mov    %rax,-0x1400(%rbp)
    b4f8:	48 8d 05 99 db 00 00 	lea    0xdb99(%rip),%rax        # 19098 <g_169>
    b4ff:	48 89 85 08 ec ff ff 	mov    %rax,-0x13f8(%rbp)
    b506:	c7 85 4c e9 ff ff f7 	movl   $0xfffffff7,-0x16b4(%rbp)
    b50d:	ff ff ff 
    b510:	48 8d 05 99 09 01 00 	lea    0x10999(%rip),%rax        # 1beb0 <g_202>
    b517:	48 89 85 10 ec ff ff 	mov    %rax,-0x13f0(%rbp)
    b51e:	c7 85 ac e8 ff ff 00 	movl   $0x0,-0x1754(%rbp)
    b525:	00 00 00 
    b528:	eb 1e                	jmp    b548 <func_23+0xa43>
    b52a:	8b 85 ac e8 ff ff    	mov    -0x1754(%rbp),%eax
    b530:	48 98                	cltq   
    b532:	48 8d 15 0b db 00 00 	lea    0xdb0b(%rip),%rdx        # 19044 <g_38+0x4>
    b539:	48 89 94 c5 80 f4 ff 	mov    %rdx,-0xb80(%rbp,%rax,8)
    b540:	ff 
    b541:	83 85 ac e8 ff ff 01 	addl   $0x1,-0x1754(%rbp)
    b548:	83 bd ac e8 ff ff 06 	cmpl   $0x6,-0x1754(%rbp)
    b54f:	7e d9                	jle    b52a <func_23+0xa25>
    b551:	48 8b 05 b8 e6 00 00 	mov    0xe6b8(%rip),%rax        # 19c10 <g_742>
    b558:	48 8b 15 b9 e6 00 00 	mov    0xe6b9(%rip),%rdx        # 19c18 <g_742+0x8>
    b55f:	8b 9d 44 e8 ff ff    	mov    -0x17bc(%rbp),%ebx
    b565:	48 8b 05 c4 e4 00 00 	mov    0xe4c4(%rip),%rax        # 19a30 <g_331+0x50>
    b56c:	44 0f bf ad 48 e8 ff 	movswl -0x17b8(%rbp),%r13d
    b573:	ff 
    b574:	44 0f b6 a5 4c e8 ff 	movzbl -0x17b4(%rbp),%r12d
    b57b:	ff 
    b57c:	0f b6 05 ad da 00 00 	movzbl 0xdaad(%rip),%eax        # 19030 <g_15>
    b583:	0f b6 15 a7 da 00 00 	movzbl 0xdaa7(%rip),%edx        # 19031 <g_15+0x1>
    b58a:	48 c1 e2 08          	shl    $0x8,%rdx
    b58e:	48 09 c2             	or     %rax,%rdx
    b591:	0f b6 05 9a da 00 00 	movzbl 0xda9a(%rip),%eax        # 19032 <g_15+0x2>
    b598:	83 e0 07             	and    $0x7,%eax
    b59b:	48 c1 e0 10          	shl    $0x10,%rax
    b59f:	48 09 d0             	or     %rdx,%rax
    b5a2:	48 c1 e0 2d          	shl    $0x2d,%rax
    b5a6:	48 c1 f8 2d          	sar    $0x2d,%rax
    b5aa:	98                   	cwtl   
    b5ab:	48 8b 95 08 ec ff ff 	mov    -0x13f8(%rbp),%rdx
    b5b2:	66 c7 02 ac 7c       	movw   $0x7cac,(%rdx)
    b5b7:	89 c6                	mov    %eax,%esi
    b5b9:	bf ac 7c 00 00       	mov    $0x7cac,%edi
    b5be:	e8 53 ce ff ff       	callq  8416 <safe_mod_func_int16_t_s_s>
    b5c3:	0f b6 05 b8 e4 00 00 	movzbl 0xe4b8(%rip),%eax        # 19a82 <g_635>
    b5ca:	83 f0 01             	xor    $0x1,%eax
    b5cd:	48 0f be c0          	movsbq %al,%rax
    b5d1:	48 89 c6             	mov    %rax,%rsi
    b5d4:	48 bf e7 35 90 40 62 	movabs $0x13995962409035e7,%rdi
    b5db:	59 99 13 
    b5de:	e8 9d da ff ff       	callq  9080 <safe_mod_func_uint64_t_u_u>
    b5e3:	4c 89 e6             	mov    %r12,%rsi
    b5e6:	48 89 c7             	mov    %rax,%rdi
    b5e9:	e8 53 d2 ff ff       	callq  8841 <safe_add_func_int64_t_s_s>
    b5ee:	41 89 c4             	mov    %eax,%r12d
    b5f1:	b8 61 0d 00 00       	mov    $0xd61,%eax
    b5f6:	0f b6 c0             	movzbl %al,%eax
    b5f9:	be 03 00 00 00       	mov    $0x3,%esi
    b5fe:	89 c7                	mov    %eax,%edi
    b600:	e8 b9 d6 ff ff       	callq  8cbe <safe_rshift_func_uint8_t_u_u>
    b605:	0f b6 c0             	movzbl %al,%eax
    b608:	44 89 e6             	mov    %r12d,%esi
    b60b:	89 c7                	mov    %eax,%edi
    b60d:	e8 ac d6 ff ff       	callq  8cbe <safe_rshift_func_uint8_t_u_u>
    b612:	0f b6 c0             	movzbl %al,%eax
    b615:	44 21 e8             	and    %r13d,%eax
    b618:	3d 28 81 ff ff       	cmp    $0xffff8128,%eax
    b61d:	0f 9c c0             	setl   %al
    b620:	0f b6 d0             	movzbl %al,%edx
    b623:	48 8b 05 76 1c 01 00 	mov    0x11c76(%rip),%rax        # 1d2a0 <g_747>
    b62a:	48 85 c0             	test   %rax,%rax
    b62d:	0f 95 c0             	setne  %al
    b630:	0f b6 c8             	movzbl %al,%ecx
    b633:	48 8b 85 00 ec ff ff 	mov    -0x1400(%rbp),%rax
    b63a:	66 89 08             	mov    %cx,(%rax)
    b63d:	48 8b 85 00 ec ff ff 	mov    -0x1400(%rbp),%rax
    b644:	0f b7 00             	movzwl (%rax),%eax
    b647:	98                   	cwtl   
    b648:	89 d6                	mov    %edx,%esi
    b64a:	89 c7                	mov    %eax,%edi
    b64c:	e8 d9 ce ff ff       	callq  852a <safe_rshift_func_int16_t_s_s>
    b651:	48 8b 05 a8 ac 00 00 	mov    0xaca8(%rip),%rax        # 16300 <l_763.4287+0x20>
    b658:	48 ba 33 e4 d4 e9 46 	movabs $0x7db4a246e9d4e433,%rdx
    b65f:	a2 b4 7d 
    b662:	48 39 d0             	cmp    %rdx,%rax
    b665:	0f 95 c0             	setne  %al
    b668:	0f b6 c0             	movzbl %al,%eax
    b66b:	39 85 28 e9 ff ff    	cmp    %eax,-0x16d8(%rbp)
    b671:	0f 93 c0             	setae  %al
    b674:	0f b6 c0             	movzbl %al,%eax
    b677:	89 de                	mov    %ebx,%esi
    b679:	89 c7                	mov    %eax,%edi
    b67b:	e8 36 cf ff ff       	callq  85b6 <safe_add_func_int32_t_s_s>
    b680:	48 8b 85 38 e8 ff ff 	mov    -0x17c8(%rbp),%rax
    b687:	8b 10                	mov    (%rax),%edx
    b689:	0f b6 85 4c e8 ff ff 	movzbl -0x17b4(%rbp),%eax
    b690:	39 c2                	cmp    %eax,%edx
    b692:	0f 9f c0             	setg   %al
    b695:	0f b6 c0             	movzbl %al,%eax
    b698:	be a2 7a 00 00       	mov    $0x7aa2,%esi
    b69d:	89 c7                	mov    %eax,%edi
    b69f:	e8 72 cd ff ff       	callq  8416 <safe_mod_func_int16_t_s_s>
    b6a4:	66 09 85 62 e8 ff ff 	or     %ax,-0x179e(%rbp)
    b6ab:	48 8b 85 a0 ec ff ff 	mov    -0x1360(%rbp),%rax
    b6b2:	48 83 e8 01          	sub    $0x1,%rax
    b6b6:	48 89 85 a0 ec ff ff 	mov    %rax,-0x1360(%rbp)
    b6bd:	48 8b 85 10 ec ff ff 	mov    -0x13f0(%rbp),%rax
    b6c4:	48 8b 95 38 e8 ff ff 	mov    -0x17c8(%rbp),%rdx
    b6cb:	48 89 10             	mov    %rdx,(%rax)
    b6ce:	0f b6 05 2b e5 00 00 	movzbl 0xe52b(%rip),%eax        # 19c00 <g_683>
    b6d5:	83 e8 01             	sub    $0x1,%eax
    b6d8:	88 05 22 e5 00 00    	mov    %al,0xe522(%rip)        # 19c00 <g_683>
    b6de:	0f b6 05 1b e5 00 00 	movzbl 0xe51b(%rip),%eax        # 19c00 <g_683>
    b6e5:	84 c0                	test   %al,%al
    b6e7:	0f 89 f2 fd ff ff    	jns    b4df <func_23+0x9da>
    b6ed:	c6 05 0c e5 00 00 00 	movb   $0x0,0xe50c(%rip)        # 19c00 <g_683>
    b6f4:	eb 75                	jmp    b76b <func_23+0xc66>
    b6f6:	48 8d 05 9b 1b 01 00 	lea    0x11b9b(%rip),%rax        # 1d298 <g_220>
    b6fd:	48 89 85 f0 eb ff ff 	mov    %rax,-0x1410(%rbp)
    b704:	48 8b 85 f0 eb ff ff 	mov    -0x1410(%rbp),%rax
    b70b:	48 8b 95 e8 eb ff ff 	mov    -0x1418(%rbp),%rdx
    b712:	48 89 10             	mov    %rdx,(%rax)
    b715:	0f b7 05 64 e3 00 00 	movzwl 0xe364(%rip),%eax        # 19a80 <g_632>
    b71c:	0f b7 c0             	movzwl %ax,%eax
    b71f:	8d 50 01             	lea    0x1(%rax),%edx
    b722:	0f b6 85 4c e8 ff ff 	movzbl -0x17b4(%rbp),%eax
    b729:	83 c0 04             	add    $0x4,%eax
    b72c:	48 63 c8             	movslq %eax,%rcx
    b72f:	48 63 d2             	movslq %edx,%rdx
    b732:	48 89 d0             	mov    %rdx,%rax
    b735:	48 c1 e0 02          	shl    $0x2,%rax
    b739:	48 01 d0             	add    %rdx,%rax
    b73c:	48 01 c0             	add    %rax,%rax
    b73f:	48 01 c8             	add    %rcx,%rax
    b742:	48 8d 14 85 00 00 00 	lea    0x0(,%rax,4),%rdx
    b749:	00 
    b74a:	48 8d 05 4f e3 00 00 	lea    0xe34f(%rip),%rax        # 19aa0 <g_673>
    b751:	48 01 d0             	add    %rdx,%rax
    b754:	48 89 85 38 e8 ff ff 	mov    %rax,-0x17c8(%rbp)
    b75b:	0f b6 05 9e e4 00 00 	movzbl 0xe49e(%rip),%eax        # 19c00 <g_683>
    b762:	83 c0 01             	add    $0x1,%eax
    b765:	88 05 95 e4 00 00    	mov    %al,0xe495(%rip)        # 19c00 <g_683>
    b76b:	0f b6 05 8e e4 00 00 	movzbl 0xe48e(%rip),%eax        # 19c00 <g_683>
    b772:	3c 02                	cmp    $0x2,%al
    b774:	7e 80                	jle    b6f6 <func_23+0xbf1>
    b776:	48 8b 85 38 e8 ff ff 	mov    -0x17c8(%rbp),%rax
    b77d:	c7 00 ff ff ff ff    	movl   $0xffffffff,(%rax)
    b783:	0f b7 85 96 ee ff ff 	movzwl -0x116a(%rbp),%eax
    b78a:	0f b6 95 98 ee ff ff 	movzbl -0x1168(%rbp),%edx
    b791:	83 e2 07             	and    $0x7,%edx
    b794:	48 c1 e2 10          	shl    $0x10,%rdx
    b798:	48 09 d0             	or     %rdx,%rax
    b79b:	48 c1 e0 2d          	shl    $0x2d,%rax
    b79f:	48 c1 f8 2d          	sar    $0x2d,%rax
    b7a3:	48 98                	cltq   
    b7a5:	48 09 85 20 ea ff ff 	or     %rax,-0x15e0(%rbp)
    b7ac:	80 85 4c e8 ff ff 01 	addb   $0x1,-0x17b4(%rbp)
    b7b3:	80 bd 4c e8 ff ff 05 	cmpb   $0x5,-0x17b4(%rbp)
    b7ba:	0f 86 13 f8 ff ff    	jbe    afd3 <func_23+0x4ce>
    b7c0:	48 8b 85 a8 ec ff ff 	mov    -0x1358(%rbp),%rax
    b7c7:	48 85 c0             	test   %rax,%rax
    b7ca:	0f 95 c0             	setne  %al
    b7cd:	0f b6 c0             	movzbl %al,%eax
    b7d0:	be ff ff ff ff       	mov    $0xffffffff,%esi
    b7d5:	89 c7                	mov    %eax,%edi
    b7d7:	e8 3a cc ff ff       	callq  8416 <safe_mod_func_int16_t_s_s>
    b7dc:	48 8b 95 38 e8 ff ff 	mov    -0x17c8(%rbp),%rdx
    b7e3:	8b 12                	mov    (%rdx),%edx
    b7e5:	98                   	cwtl   
    b7e6:	21 c2                	and    %eax,%edx
    b7e8:	48 8b 85 38 e8 ff ff 	mov    -0x17c8(%rbp),%rax
    b7ef:	89 10                	mov    %edx,(%rax)
    b7f1:	48 8b 05 08 dc 00 00 	mov    0xdc08(%rip),%rax        # 19400 <g_216+0x340>
    b7f8:	c1 e0 05             	shl    $0x5,%eax
    b7fb:	c1 f8 10             	sar    $0x10,%eax
    b7fe:	66 85 c0             	test   %ax,%ax
    b801:	75 09                	jne    b80c <func_23+0xd07>
    b803:	83 bd 28 e9 ff ff 00 	cmpl   $0x0,-0x16d8(%rbp)
    b80a:	74 07                	je     b813 <func_23+0xd0e>
    b80c:	ba 01 00 00 00       	mov    $0x1,%edx
    b811:	eb 05                	jmp    b818 <func_23+0xd13>
    b813:	ba 00 00 00 00       	mov    $0x0,%edx
    b818:	48 8b 85 38 e8 ff ff 	mov    -0x17c8(%rbp),%rax
    b81f:	89 10                	mov    %edx,(%rax)
    b821:	48 8b 85 38 e8 ff ff 	mov    -0x17c8(%rbp),%rax
    b828:	44 8b 38             	mov    (%rax),%r15d
    b82b:	8b 9d 2c e9 ff ff    	mov    -0x16d4(%rbp),%ebx
    b831:	44 0f bf a5 48 e8 ff 	movswl -0x17b8(%rbp),%r12d
    b838:	ff 
    b839:	48 8b 95 58 e9 ff ff 	mov    -0x16a8(%rbp),%rdx
    b840:	48 8b 85 90 eb ff ff 	mov    -0x1470(%rbp),%rax
    b847:	48 89 10             	mov    %rdx,(%rax)
    b84a:	48 8b 85 90 eb ff ff 	mov    -0x1470(%rbp),%rax
    b851:	48 8b 08             	mov    (%rax),%rcx
    b854:	48 8b 95 60 e9 ff ff 	mov    -0x16a0(%rbp),%rdx
    b85b:	48 8b 85 98 eb ff ff 	mov    -0x1468(%rbp),%rax
    b862:	48 89 10             	mov    %rdx,(%rax)
    b865:	48 8b 85 98 eb ff ff 	mov    -0x1468(%rbp),%rax
    b86c:	48 8b 00             	mov    (%rax),%rax
    b86f:	48 39 c1             	cmp    %rax,%rcx
    b872:	0f 95 c0             	setne  %al
    b875:	0f b6 c0             	movzbl %al,%eax
    b878:	89 85 34 e8 ff ff    	mov    %eax,-0x17cc(%rbp)
    b87e:	4c 0f bf ad 48 e8 ff 	movswq -0x17b8(%rbp),%r13
    b885:	ff 
    b886:	be 04 00 00 00       	mov    $0x4,%esi
    b88b:	bf 00 00 00 00       	mov    $0x0,%edi
    b890:	e8 fd cb ff ff       	callq  8492 <safe_lshift_func_int16_t_s_s>
    b895:	48 8b 85 38 e8 ff ff 	mov    -0x17c8(%rbp),%rax
    b89c:	8b 00                	mov    (%rax),%eax
    b89e:	41 89 c6             	mov    %eax,%r14d
    b8a1:	0f b6 05 a8 e1 00 00 	movzbl 0xe1a8(%rip),%eax        # 19a50 <g_512>
    b8a8:	83 e8 01             	sub    $0x1,%eax
    b8ab:	88 05 9f e1 00 00    	mov    %al,0xe19f(%rip)        # 19a50 <g_512>
    b8b1:	0f b6 05 98 e1 00 00 	movzbl 0xe198(%rip),%eax        # 19a50 <g_512>
    b8b8:	84 c0                	test   %al,%al
    b8ba:	75 1f                	jne    b8db <func_23+0xdd6>
    b8bc:	48 8b 85 a0 eb ff ff 	mov    -0x1460(%rbp),%rax
    b8c3:	0f bf d0             	movswl %ax,%edx
    b8c6:	0f bf 85 48 e8 ff ff 	movswl -0x17b8(%rbp),%eax
    b8cd:	89 d6                	mov    %edx,%esi
    b8cf:	89 c7                	mov    %eax,%edi
    b8d1:	e8 40 cb ff ff       	callq  8416 <safe_mod_func_int16_t_s_s>
    b8d6:	66 85 c0             	test   %ax,%ax
    b8d9:	74 07                	je     b8e2 <func_23+0xddd>
    b8db:	b8 01 00 00 00       	mov    $0x1,%eax
    b8e0:	eb 05                	jmp    b8e7 <func_23+0xde2>
    b8e2:	b8 00 00 00 00       	mov    $0x0,%eax
    b8e7:	44 89 f6             	mov    %r14d,%esi
    b8ea:	89 c7                	mov    %eax,%edi
    b8ec:	e8 df d5 ff ff       	callq  8ed0 <safe_sub_func_uint32_t_u_u>
    b8f1:	48 8b 15 c8 05 01 00 	mov    0x105c8(%rip),%rdx        # 1bec0 <g_437>
    b8f8:	48 8b 12             	mov    (%rdx),%rdx
    b8fb:	31 d0                	xor    %edx,%eax
    b8fd:	89 85 30 e8 ff ff    	mov    %eax,-0x17d0(%rbp)
    b903:	8b 05 47 d7 00 00    	mov    0xd747(%rip),%eax        # 19050 <g_38+0x10>
    b909:	0f b6 d0             	movzbl %al,%edx
    b90c:	8b 85 2c e9 ff ff    	mov    -0x16d4(%rbp),%eax
    b912:	0f b6 c0             	movzbl %al,%eax
    b915:	89 d6                	mov    %edx,%esi
    b917:	89 c7                	mov    %eax,%edi
    b919:	e8 5a d2 ff ff       	callq  8b78 <safe_sub_func_uint8_t_u_u>
    b91e:	44 0f b6 f0          	movzbl %al,%r14d
    b922:	be 02 00 00 00       	mov    $0x2,%esi
    b927:	bf 00 00 00 00       	mov    $0x0,%edi
    b92c:	e8 04 ca ff ff       	callq  8335 <safe_rshift_func_int8_t_s_s>
    b931:	0f be c0             	movsbl %al,%eax
    b934:	44 89 f6             	mov    %r14d,%esi
    b937:	89 c7                	mov    %eax,%edi
    b939:	e8 c7 cc ff ff       	callq  8605 <safe_sub_func_int32_t_s_s>
    b93e:	0f b7 c0             	movzwl %ax,%eax
    b941:	8b b5 30 e8 ff ff    	mov    -0x17d0(%rbp),%esi
    b947:	89 c7                	mov    %eax,%edi
    b949:	e8 70 d4 ff ff       	callq  8dbe <safe_lshift_func_uint16_t_u_s>
    b94e:	48 8b 95 68 e9 ff ff 	mov    -0x1698(%rbp),%rdx
    b955:	48 8d 85 d0 e9 ff ff 	lea    -0x1630(%rbp),%rax
    b95c:	48 39 c2             	cmp    %rax,%rdx
    b95f:	0f 95 c0             	setne  %al
    b962:	0f b6 d0             	movzbl %al,%edx
    b965:	48 8b 85 a8 eb ff ff 	mov    -0x1458(%rbp),%rax
    b96c:	48 89 10             	mov    %rdx,(%rax)
    b96f:	48 8b 85 a8 eb ff ff 	mov    -0x1458(%rbp),%rax
    b976:	48 8b 00             	mov    (%rax),%rax
    b979:	4c 89 ee             	mov    %r13,%rsi
    b97c:	48 89 c7             	mov    %rax,%rdi
    b97f:	e8 30 d0 ff ff       	callq  89b4 <safe_mod_func_int64_t_s_s>
    b984:	48 3d e8 00 00 00    	cmp    $0xe8,%rax
    b98a:	0f 9e c0             	setle  %al
    b98d:	0f b6 c0             	movzbl %al,%eax
    b990:	39 85 34 e8 ff ff    	cmp    %eax,-0x17cc(%rbp)
    b996:	0f 9f c0             	setg   %al
    b999:	0f b6 c0             	movzbl %al,%eax
    b99c:	48 8b 95 d0 e9 ff ff 	mov    -0x1630(%rbp),%rdx
    b9a3:	48 c1 ea 13          	shr    $0x13,%rdx
    b9a7:	81 e2 ff ff ff 00    	and    $0xffffff,%edx
    b9ad:	39 d0                	cmp    %edx,%eax
    b9af:	8b 85 d0 e9 ff ff    	mov    -0x1630(%rbp),%eax
    b9b5:	c1 e0 0d             	shl    $0xd,%eax
    b9b8:	c1 f8 0d             	sar    $0xd,%eax
    b9bb:	85 c0                	test   %eax,%eax
    b9bd:	75 0e                	jne    b9cd <func_23+0xec8>
    b9bf:	0f b6 05 3a da 00 00 	movzbl 0xda3a(%rip),%eax        # 19400 <g_216+0x340>
    b9c6:	83 e0 1f             	and    $0x1f,%eax
    b9c9:	84 c0                	test   %al,%al
    b9cb:	74 07                	je     b9d4 <func_23+0xecf>
    b9cd:	b8 01 00 00 00       	mov    $0x1,%eax
    b9d2:	eb 05                	jmp    b9d9 <func_23+0xed4>
    b9d4:	b8 00 00 00 00       	mov    $0x0,%eax
    b9d9:	3d 6a c9 5a 70       	cmp    $0x705ac96a,%eax
    b9de:	0f 9f c0             	setg   %al
    b9e1:	0f b6 c0             	movzbl %al,%eax
    b9e4:	44 89 e6             	mov    %r12d,%esi
    b9e7:	89 c7                	mov    %eax,%edi
    b9e9:	e8 67 ca ff ff       	callq  8455 <safe_div_func_int16_t_s_s>
    b9ee:	98                   	cwtl   
    b9ef:	89 de                	mov    %ebx,%esi
    b9f1:	89 c7                	mov    %eax,%edi
    b9f3:	e8 be cb ff ff       	callq  85b6 <safe_add_func_int32_t_s_s>
    b9f8:	41 39 c7             	cmp    %eax,%r15d
    b9fb:	0f 8d c9 08 00 00    	jge    c2ca <func_23+0x17c5>
    ba01:	c6 85 c8 e9 ff ff 83 	movb   $0x83,-0x1638(%rbp)
    ba08:	48 8d 05 41 e0 00 00 	lea    0xe041(%rip),%rax        # 19a50 <g_512>
    ba0f:	48 89 85 e0 f7 ff ff 	mov    %rax,-0x820(%rbp)
    ba16:	48 c7 85 e8 f7 ff ff 	movq   $0x0,-0x818(%rbp)
    ba1d:	00 00 00 00 
    ba21:	48 8d 05 28 e0 00 00 	lea    0xe028(%rip),%rax        # 19a50 <g_512>
    ba28:	48 89 85 f0 f7 ff ff 	mov    %rax,-0x810(%rbp)
    ba2f:	48 c7 85 f8 f7 ff ff 	movq   $0x0,-0x808(%rbp)
    ba36:	00 00 00 00 
    ba3a:	48 8d 05 4f d6 00 00 	lea    0xd64f(%rip),%rax        # 19090 <g_129>
    ba41:	48 89 85 00 f8 ff ff 	mov    %rax,-0x800(%rbp)
    ba48:	48 c7 85 08 f8 ff ff 	movq   $0x0,-0x7f8(%rbp)
    ba4f:	00 00 00 00 
    ba53:	48 c7 85 10 f8 ff ff 	movq   $0x0,-0x7f0(%rbp)
    ba5a:	00 00 00 00 
    ba5e:	48 8d 05 2b d6 00 00 	lea    0xd62b(%rip),%rax        # 19090 <g_129>
    ba65:	48 89 85 18 f8 ff ff 	mov    %rax,-0x7e8(%rbp)
    ba6c:	48 c7 85 20 f8 ff ff 	movq   $0x0,-0x7e0(%rbp)
    ba73:	00 00 00 00 
    ba77:	48 8d 85 c8 e9 ff ff 	lea    -0x1638(%rbp),%rax
    ba7e:	48 89 85 28 f8 ff ff 	mov    %rax,-0x7d8(%rbp)
    ba85:	48 8d 85 c8 e9 ff ff 	lea    -0x1638(%rbp),%rax
    ba8c:	48 89 85 30 f8 ff ff 	mov    %rax,-0x7d0(%rbp)
    ba93:	48 c7 85 38 f8 ff ff 	movq   $0x0,-0x7c8(%rbp)
    ba9a:	00 00 00 00 
    ba9e:	48 8d 85 c8 e9 ff ff 	lea    -0x1638(%rbp),%rax
    baa5:	48 89 85 40 f8 ff ff 	mov    %rax,-0x7c0(%rbp)
    baac:	48 8d 05 9d df 00 00 	lea    0xdf9d(%rip),%rax        # 19a50 <g_512>
    bab3:	48 89 85 48 f8 ff ff 	mov    %rax,-0x7b8(%rbp)
    baba:	48 8d 05 cf d5 00 00 	lea    0xd5cf(%rip),%rax        # 19090 <g_129>
    bac1:	48 89 85 50 f8 ff ff 	mov    %rax,-0x7b0(%rbp)
    bac8:	48 c7 85 58 f8 ff ff 	movq   $0x0,-0x7a8(%rbp)
    bacf:	00 00 00 00 
    bad3:	48 8d 85 c8 e9 ff ff 	lea    -0x1638(%rbp),%rax
    bada:	48 89 85 60 f8 ff ff 	mov    %rax,-0x7a0(%rbp)
    bae1:	48 8d 05 a8 d5 00 00 	lea    0xd5a8(%rip),%rax        # 19090 <g_129>
    bae8:	48 89 85 68 f8 ff ff 	mov    %rax,-0x798(%rbp)
    baef:	48 8d 85 c8 e9 ff ff 	lea    -0x1638(%rbp),%rax
    baf6:	48 89 85 70 f8 ff ff 	mov    %rax,-0x790(%rbp)
    bafd:	48 8d 05 4c df 00 00 	lea    0xdf4c(%rip),%rax        # 19a50 <g_512>
    bb04:	48 89 85 78 f8 ff ff 	mov    %rax,-0x788(%rbp)
    bb0b:	48 c7 85 80 f8 ff ff 	movq   $0x0,-0x780(%rbp)
    bb12:	00 00 00 00 
    bb16:	48 8d 05 73 d5 00 00 	lea    0xd573(%rip),%rax        # 19090 <g_129>
    bb1d:	48 89 85 88 f8 ff ff 	mov    %rax,-0x778(%rbp)
    bb24:	48 8d 05 25 df 00 00 	lea    0xdf25(%rip),%rax        # 19a50 <g_512>
    bb2b:	48 89 85 90 f8 ff ff 	mov    %rax,-0x770(%rbp)
    bb32:	48 8d 85 c8 e9 ff ff 	lea    -0x1638(%rbp),%rax
    bb39:	48 89 85 98 f8 ff ff 	mov    %rax,-0x768(%rbp)
    bb40:	48 8d 85 c8 e9 ff ff 	lea    -0x1638(%rbp),%rax
    bb47:	48 89 85 a0 f8 ff ff 	mov    %rax,-0x760(%rbp)
    bb4e:	48 8d 05 3b d5 00 00 	lea    0xd53b(%rip),%rax        # 19090 <g_129>
    bb55:	48 89 85 a8 f8 ff ff 	mov    %rax,-0x758(%rbp)
    bb5c:	48 8d 05 ed de 00 00 	lea    0xdeed(%rip),%rax        # 19a50 <g_512>
    bb63:	48 89 85 b0 f8 ff ff 	mov    %rax,-0x750(%rbp)
    bb6a:	48 8d 05 df de 00 00 	lea    0xdedf(%rip),%rax        # 19a50 <g_512>
    bb71:	48 89 85 b8 f8 ff ff 	mov    %rax,-0x748(%rbp)
    bb78:	48 8d 85 c8 e9 ff ff 	lea    -0x1638(%rbp),%rax
    bb7f:	48 89 85 c0 f8 ff ff 	mov    %rax,-0x740(%rbp)
    bb86:	48 8d 05 c3 de 00 00 	lea    0xdec3(%rip),%rax        # 19a50 <g_512>
    bb8d:	48 89 85 c8 f8 ff ff 	mov    %rax,-0x738(%rbp)
    bb94:	48 8d 05 b5 de 00 00 	lea    0xdeb5(%rip),%rax        # 19a50 <g_512>
    bb9b:	48 89 85 d0 f8 ff ff 	mov    %rax,-0x730(%rbp)
    bba2:	48 8d 05 e7 d4 00 00 	lea    0xd4e7(%rip),%rax        # 19090 <g_129>
    bba9:	48 89 85 d8 f8 ff ff 	mov    %rax,-0x728(%rbp)
    bbb0:	48 8d 05 d9 d4 00 00 	lea    0xd4d9(%rip),%rax        # 19090 <g_129>
    bbb7:	48 89 85 e0 f8 ff ff 	mov    %rax,-0x720(%rbp)
    bbbe:	48 8d 85 c8 e9 ff ff 	lea    -0x1638(%rbp),%rax
    bbc5:	48 89 85 e8 f8 ff ff 	mov    %rax,-0x718(%rbp)
    bbcc:	48 c7 85 f0 f8 ff ff 	movq   $0x0,-0x710(%rbp)
    bbd3:	00 00 00 00 
    bbd7:	48 c7 85 f8 f8 ff ff 	movq   $0x0,-0x708(%rbp)
    bbde:	00 00 00 00 
    bbe2:	48 8d 05 67 de 00 00 	lea    0xde67(%rip),%rax        # 19a50 <g_512>
    bbe9:	48 89 85 00 f9 ff ff 	mov    %rax,-0x700(%rbp)
    bbf0:	48 c7 85 08 f9 ff ff 	movq   $0x0,-0x6f8(%rbp)
    bbf7:	00 00 00 00 
    bbfb:	48 8d 85 c8 e9 ff ff 	lea    -0x1638(%rbp),%rax
    bc02:	48 89 85 10 f9 ff ff 	mov    %rax,-0x6f0(%rbp)
    bc09:	48 8d 85 c8 e9 ff ff 	lea    -0x1638(%rbp),%rax
    bc10:	48 89 85 18 f9 ff ff 	mov    %rax,-0x6e8(%rbp)
    bc17:	48 8d 85 c8 e9 ff ff 	lea    -0x1638(%rbp),%rax
    bc1e:	48 89 85 20 f9 ff ff 	mov    %rax,-0x6e0(%rbp)
    bc25:	48 c7 85 28 f9 ff ff 	movq   $0x0,-0x6d8(%rbp)
    bc2c:	00 00 00 00 
    bc30:	48 8d 05 19 de 00 00 	lea    0xde19(%rip),%rax        # 19a50 <g_512>
    bc37:	48 89 85 30 f9 ff ff 	mov    %rax,-0x6d0(%rbp)
    bc3e:	48 8d 05 4b d4 00 00 	lea    0xd44b(%rip),%rax        # 19090 <g_129>
    bc45:	48 89 85 38 f9 ff ff 	mov    %rax,-0x6c8(%rbp)
    bc4c:	48 8d 05 3d d4 00 00 	lea    0xd43d(%rip),%rax        # 19090 <g_129>
    bc53:	48 89 85 40 f9 ff ff 	mov    %rax,-0x6c0(%rbp)
    bc5a:	48 8d 85 c8 e9 ff ff 	lea    -0x1638(%rbp),%rax
    bc61:	48 89 85 48 f9 ff ff 	mov    %rax,-0x6b8(%rbp)
    bc68:	48 8d 85 c8 e9 ff ff 	lea    -0x1638(%rbp),%rax
    bc6f:	48 89 85 50 f9 ff ff 	mov    %rax,-0x6b0(%rbp)
    bc76:	48 8d 85 c8 e9 ff ff 	lea    -0x1638(%rbp),%rax
    bc7d:	48 89 85 58 f9 ff ff 	mov    %rax,-0x6a8(%rbp)
    bc84:	48 c7 85 60 f9 ff ff 	movq   $0x0,-0x6a0(%rbp)
    bc8b:	00 00 00 00 
    bc8f:	48 8d 05 fa d3 00 00 	lea    0xd3fa(%rip),%rax        # 19090 <g_129>
    bc96:	48 89 85 68 f9 ff ff 	mov    %rax,-0x698(%rbp)
    bc9d:	48 c7 85 70 f9 ff ff 	movq   $0x0,-0x690(%rbp)
    bca4:	00 00 00 00 
    bca8:	48 c7 85 78 f9 ff ff 	movq   $0x0,-0x688(%rbp)
    bcaf:	00 00 00 00 
    bcb3:	48 8d 05 d6 d3 00 00 	lea    0xd3d6(%rip),%rax        # 19090 <g_129>
    bcba:	48 89 85 80 f9 ff ff 	mov    %rax,-0x680(%rbp)
    bcc1:	48 c7 85 88 f9 ff ff 	movq   $0x0,-0x678(%rbp)
    bcc8:	00 00 00 00 
    bccc:	48 8d 05 7d dd 00 00 	lea    0xdd7d(%rip),%rax        # 19a50 <g_512>
    bcd3:	48 89 85 90 f9 ff ff 	mov    %rax,-0x670(%rbp)
    bcda:	48 c7 85 98 f9 ff ff 	movq   $0x0,-0x668(%rbp)
    bce1:	00 00 00 00 
    bce5:	c7 85 30 e9 ff ff 00 	movl   $0x0,-0x16d0(%rbp)
    bcec:	00 00 00 
    bcef:	66 c7 85 90 ee ff ff 	movw   $0x10ff,-0x1170(%rbp)
    bcf6:	ff 10 
    bcf8:	66 c7 85 92 ee ff ff 	movw   $0x10ff,-0x116e(%rbp)
    bcff:	ff 10 
    bd01:	66 c7 85 94 ee ff ff 	movw   $0x10ff,-0x116c(%rbp)
    bd08:	ff 10 
    bd0a:	66 c7 85 96 ee ff ff 	movw   $0x10ff,-0x116a(%rbp)
    bd11:	ff 10 
    bd13:	48 c7 85 b0 eb ff ff 	movq   $0x0,-0x1450(%rbp)
    bd1a:	00 00 00 00 
    bd1e:	0f b6 85 c8 e9 ff ff 	movzbl -0x1638(%rbp),%eax
    bd25:	83 e8 01             	sub    $0x1,%eax
    bd28:	88 85 c8 e9 ff ff    	mov    %al,-0x1638(%rbp)
    bd2e:	48 83 bd 78 eb ff ff 	cmpq   $0x0,-0x1488(%rbp)
    bd35:	00 
    bd36:	0f 95 c0             	setne  %al
    bd39:	0f b6 c0             	movzbl %al,%eax
    bd3c:	89 c6                	mov    %eax,%esi
    bd3e:	bf 00 00 00 00       	mov    $0x0,%edi
    bd43:	e8 be d0 ff ff       	callq  8e06 <safe_lshift_func_uint16_t_u_u>
    bd48:	98                   	cwtl   
    bd49:	be bd f2 ff ff       	mov    $0xfffff2bd,%esi
    bd4e:	89 c7                	mov    %eax,%edi
    bd50:	e8 00 c7 ff ff       	callq  8455 <safe_div_func_int16_t_s_s>
    bd55:	0f b7 05 14 dd 00 00 	movzwl 0xdd14(%rip),%eax        # 19a70 <g_587>
    bd5c:	66 c1 e8 05          	shr    $0x5,%ax
    bd60:	83 e0 3f             	and    $0x3f,%eax
    bd63:	0f b6 d8             	movzbl %al,%ebx
    bd66:	0f b7 05 6d de 00 00 	movzwl 0xde6d(%rip),%eax        # 19bda <g_675+0x3a>
    bd6d:	44 0f bf f0          	movswl %ax,%r14d
    bd71:	0f b7 85 62 e8 ff ff 	movzwl -0x179e(%rbp),%eax
    bd78:	44 0f b6 e0          	movzbl %al,%r12d
    bd7c:	44 8b ad 20 e9 ff ff 	mov    -0x16e0(%rbp),%r13d
    bd83:	48 8b 05 56 a5 00 00 	mov    0xa556(%rip),%rax        # 162e0 <l_763.4287>
    bd8a:	89 c1                	mov    %eax,%ecx
    bd8c:	8b 85 e0 ed ff ff    	mov    -0x1220(%rbp),%eax
    bd92:	85 c0                	test   %eax,%eax
    bd94:	75 1a                	jne    bdb0 <func_23+0x12ab>
    bd96:	48 8b 95 58 e9 ff ff 	mov    -0x16a8(%rbp),%rdx
    bd9d:	48 8b 85 58 e9 ff ff 	mov    -0x16a8(%rbp),%rax
    bda4:	0f b6 12             	movzbl (%rdx),%edx
    bda7:	88 10                	mov    %dl,(%rax)
    bda9:	0f b6 00             	movzbl (%rax),%eax
    bdac:	84 c0                	test   %al,%al
    bdae:	74 07                	je     bdb7 <func_23+0x12b2>
    bdb0:	b8 01 00 00 00       	mov    $0x1,%eax
    bdb5:	eb 05                	jmp    bdbc <func_23+0x12b7>
    bdb7:	b8 00 00 00 00       	mov    $0x0,%eax
    bdbc:	0f b7 c0             	movzwl %ax,%eax
    bdbf:	89 ce                	mov    %ecx,%esi
    bdc1:	89 c7                	mov    %eax,%edi
    bdc3:	e8 80 d0 ff ff       	callq  8e48 <safe_rshift_func_uint16_t_u_s>
    bdc8:	98                   	cwtl   
    bdc9:	44 89 ee             	mov    %r13d,%esi
    bdcc:	89 c7                	mov    %eax,%edi
    bdce:	e8 90 c7 ff ff       	callq  8563 <safe_rshift_func_int16_t_s_u>
    bdd3:	0f b6 c0             	movzbl %al,%eax
    bdd6:	44 89 e6             	mov    %r12d,%esi
    bdd9:	89 c7                	mov    %eax,%edi
    bddb:	e8 ce cd ff ff       	callq  8bae <safe_mod_func_uint8_t_u_u>
    bde0:	0f b6 c0             	movzbl %al,%eax
    bde3:	be ff 00 00 00       	mov    $0xff,%esi
    bde8:	89 c7                	mov    %eax,%edi
    bdea:	e8 a4 cd ff ff       	callq  8b93 <safe_mul_func_uint8_t_u_u>
    bdef:	0f b6 c0             	movzbl %al,%eax
    bdf2:	41 39 c6             	cmp    %eax,%r14d
    bdf5:	75 09                	jne    be00 <func_23+0x12fb>
    bdf7:	83 bd 44 e8 ff ff 00 	cmpl   $0x0,-0x17bc(%rbp)
    bdfe:	74 07                	je     be07 <func_23+0x1302>
    be00:	b8 01 00 00 00       	mov    $0x1,%eax
    be05:	eb 05                	jmp    be0c <func_23+0x1307>
    be07:	b8 00 00 00 00       	mov    $0x0,%eax
    be0c:	89 c2                	mov    %eax,%edx
    be0e:	0f b6 85 4c e8 ff ff 	movzbl -0x17b4(%rbp),%eax
    be15:	09 d0                	or     %edx,%eax
    be17:	88 85 4c e8 ff ff    	mov    %al,-0x17b4(%rbp)
    be1d:	c7 85 30 e9 ff ff 01 	movl   $0x1,-0x16d0(%rbp)
    be24:	00 00 00 
    be27:	8b 85 30 e9 ff ff    	mov    -0x16d0(%rbp),%eax
    be2d:	33 85 44 e8 ff ff    	xor    -0x17bc(%rbp),%eax
    be33:	89 de                	mov    %ebx,%esi
    be35:	89 c7                	mov    %eax,%edi
    be37:	e8 90 c8 ff ff       	callq  86cc <safe_mod_func_int32_t_s_s>
    be3c:	b8 06 00 00 00       	mov    $0x6,%eax
    be41:	89 c2                	mov    %eax,%edx
    be43:	0f b6 05 06 dc 00 00 	movzbl 0xdc06(%rip),%eax        # 19a50 <g_512>
    be4a:	31 d0                	xor    %edx,%eax
    be4c:	88 05 fe db 00 00    	mov    %al,0xdbfe(%rip)        # 19a50 <g_512>
    be52:	0f b6 05 f7 db 00 00 	movzbl 0xdbf7(%rip),%eax        # 19a50 <g_512>
    be59:	0f b6 d0             	movzbl %al,%edx
    be5c:	48 8b 05 5d db 00 00 	mov    0xdb5d(%rip),%rax        # 199c0 <g_259>
    be63:	0f b6 c0             	movzbl %al,%eax
    be66:	89 d6                	mov    %edx,%esi
    be68:	89 c7                	mov    %eax,%edi
    be6a:	e8 6c cd ff ff       	callq  8bdb <safe_div_func_uint8_t_u_u>
    be6f:	0f b6 c0             	movzbl %al,%eax
    be72:	89 85 24 e9 ff ff    	mov    %eax,-0x16dc(%rbp)
    be78:	48 8b 85 38 e8 ff ff 	mov    -0x17c8(%rbp),%rax
    be7f:	8b 95 24 e9 ff ff    	mov    -0x16dc(%rbp),%edx
    be85:	89 10                	mov    %edx,(%rax)
    be87:	48 8b 85 38 e8 ff ff 	mov    -0x17c8(%rbp),%rax
    be8e:	8b 10                	mov    (%rax),%edx
    be90:	8b 85 68 e8 ff ff    	mov    -0x1798(%rbp),%eax
    be96:	89 d1                	mov    %edx,%ecx
    be98:	31 c1                	xor    %eax,%ecx
    be9a:	0f b6 05 91 d1 00 00 	movzbl 0xd191(%rip),%eax        # 19032 <g_15+0x2>
    bea1:	c0 e8 03             	shr    $0x3,%al
    bea4:	0f b6 c0             	movzbl %al,%eax
    bea7:	0f b6 15 85 d1 00 00 	movzbl 0xd185(%rip),%edx        # 19033 <g_15+0x3>
    beae:	48 c1 e2 05          	shl    $0x5,%rdx
    beb2:	48 09 c2             	or     %rax,%rdx
    beb5:	0f b6 05 78 d1 00 00 	movzbl 0xd178(%rip),%eax        # 19034 <g_15+0x4>
    bebc:	48 c1 e0 0d          	shl    $0xd,%rax
    bec0:	48 09 c2             	or     %rax,%rdx
    bec3:	0f b6 05 6b d1 00 00 	movzbl 0xd16b(%rip),%eax        # 19035 <g_15+0x5>
    beca:	83 e0 07             	and    $0x7,%eax
    becd:	48 c1 e0 15          	shl    $0x15,%rax
    bed1:	48 09 d0             	or     %rdx,%rax
    bed4:	09 c1                	or     %eax,%ecx
    bed6:	89 ca                	mov    %ecx,%edx
    bed8:	8b 05 9a db 00 00    	mov    0xdb9a(%rip),%eax        # 19a78 <g_587+0x8>
    bede:	c1 e0 05             	shl    $0x5,%eax
    bee1:	c1 f8 05             	sar    $0x5,%eax
    bee4:	39 c2                	cmp    %eax,%edx
    bee6:	0f 84 cc 00 00 00    	je     bfb8 <func_23+0x14b3>
    beec:	48 8b 85 38 e8 ff ff 	mov    -0x17c8(%rbp),%rax
    bef3:	8b 00                	mov    (%rax),%eax
    bef5:	85 c0                	test   %eax,%eax
    bef7:	0f 85 00 04 00 00    	jne    c2fd <func_23+0x17f8>
    befd:	66 c7 05 8c d1 00 00 	movw   $0x0,0xd18c(%rip)        # 19092 <g_139>
    bf04:	00 00 
    bf06:	e9 9a 00 00 00       	jmpq   bfa5 <func_23+0x14a0>
    bf0b:	48 8d 05 8a d1 00 00 	lea    0xd18a(%rip),%rax        # 1909c <g_198>
    bf12:	48 89 85 c0 eb ff ff 	mov    %rax,-0x1440(%rbp)
    bf19:	48 8d 05 30 d1 00 00 	lea    0xd130(%rip),%rax        # 19050 <g_38+0x10>
    bf20:	48 89 85 c8 eb ff ff 	mov    %rax,-0x1438(%rbp)
    bf27:	48 8d 05 82 ff 00 00 	lea    0xff82(%rip),%rax        # 1beb0 <g_202>
    bf2e:	48 89 85 d0 eb ff ff 	mov    %rax,-0x1430(%rbp)
    bf35:	c7 85 b0 e8 ff ff 00 	movl   $0x0,-0x1750(%rbp)
    bf3c:	00 00 00 
    bf3f:	eb 1e                	jmp    bf5f <func_23+0x145a>
    bf41:	8b 85 b0 e8 ff ff    	mov    -0x1750(%rbp),%eax
    bf47:	48 98                	cltq   
    bf49:	48 8d 15 c4 db 00 00 	lea    0xdbc4(%rip),%rdx        # 19b14 <g_673+0x74>
    bf50:	48 89 94 c5 80 f4 ff 	mov    %rdx,-0xb80(%rbp,%rax,8)
    bf57:	ff 
    bf58:	83 85 b0 e8 ff ff 01 	addl   $0x1,-0x1750(%rbp)
    bf5f:	83 bd b0 e8 ff ff 05 	cmpl   $0x5,-0x1750(%rbp)
    bf66:	7e d9                	jle    bf41 <func_23+0x143c>
    bf68:	0f b6 85 95 ee ff ff 	movzbl -0x116b(%rbp),%eax
    bf6f:	83 c0 01             	add    $0x1,%eax
    bf72:	88 85 95 ee ff ff    	mov    %al,-0x116b(%rbp)
    bf78:	48 8b 85 d0 eb ff ff 	mov    -0x1430(%rbp),%rax
    bf7f:	48 8b 95 b0 eb ff ff 	mov    -0x1450(%rbp),%rdx
    bf86:	48 89 10             	mov    %rdx,(%rax)
    bf89:	48 8b 85 38 e8 ff ff 	mov    -0x17c8(%rbp),%rax
    bf90:	8b 00                	mov    (%rax),%eax
    bf92:	85 c0                	test   %eax,%eax
    bf94:	0f b7 05 f7 d0 00 00 	movzwl 0xd0f7(%rip),%eax        # 19092 <g_139>
    bf9b:	83 c0 01             	add    $0x1,%eax
    bf9e:	66 89 05 ed d0 00 00 	mov    %ax,0xd0ed(%rip)        # 19092 <g_139>
    bfa5:	0f b7 05 e6 d0 00 00 	movzwl 0xd0e6(%rip),%eax        # 19092 <g_139>
    bfac:	66 83 f8 02          	cmp    $0x2,%ax
    bfb0:	0f 86 55 ff ff ff    	jbe    bf0b <func_23+0x1406>
    bfb6:	eb 7b                	jmp    c033 <func_23+0x152e>
    bfb8:	48 b8 be 79 55 02 77 	movabs $0x45925c77025579be,%rax
    bfbf:	5c 92 45 
    bfc2:	48 89 85 b8 eb ff ff 	mov    %rax,-0x1448(%rbp)
    bfc9:	48 8b 85 a0 ec ff ff 	mov    -0x1360(%rbp),%rax
    bfd0:	0f b7 c0             	movzwl %ax,%eax
    bfd3:	be 00 00 00 00       	mov    $0x0,%esi
    bfd8:	89 c7                	mov    %eax,%edi
    bfda:	e8 9b ce ff ff       	callq  8e7a <safe_rshift_func_uint16_t_u_u>
    bfdf:	0f b7 d0             	movzwl %ax,%edx
    bfe2:	48 8b 05 d7 fe 00 00 	mov    0xfed7(%rip),%rax        # 1bec0 <g_437>
    bfe9:	48 c7 00 01 00 00 00 	movq   $0x1,(%rax)
    bff0:	48 8b 00             	mov    (%rax),%rax
    bff3:	48 39 c2             	cmp    %rax,%rdx
    bff6:	0f 97 c0             	seta   %al
    bff9:	0f b6 d0             	movzbl %al,%edx
    bffc:	48 8b 85 38 e8 ff ff 	mov    -0x17c8(%rbp),%rax
    c003:	8b 00                	mov    (%rax),%eax
    c005:	21 c2                	and    %eax,%edx
    c007:	48 8b 85 38 e8 ff ff 	mov    -0x17c8(%rbp),%rax
    c00e:	89 10                	mov    %edx,(%rax)
    c010:	48 8b 85 38 e8 ff ff 	mov    -0x17c8(%rbp),%rax
    c017:	8b 00                	mov    (%rax),%eax
    c019:	48 98                	cltq   
    c01b:	48 89 85 b8 eb ff ff 	mov    %rax,-0x1448(%rbp)
    c022:	48 8b 05 7f 00 01 00 	mov    0x1007f(%rip),%rax        # 1c0a8 <g_856>
    c029:	48 8b 95 80 eb ff ff 	mov    -0x1480(%rbp),%rdx
    c030:	48 89 10             	mov    %rdx,(%rax)
    c033:	c6 05 56 d0 00 00 00 	movb   $0x0,0xd056(%rip)        # 19090 <g_129>
    c03a:	e9 69 02 00 00       	jmpq   c2a8 <func_23+0x17a3>
    c03f:	48 8d 85 80 ed ff ff 	lea    -0x1280(%rbp),%rax
    c046:	48 83 c0 74          	add    $0x74,%rax
    c04a:	48 89 85 d8 e9 ff ff 	mov    %rax,-0x1628(%rbp)
    c051:	48 8d 85 d8 e9 ff ff 	lea    -0x1628(%rbp),%rax
    c058:	48 89 85 d8 eb ff ff 	mov    %rax,-0x1428(%rbp)
    c05f:	48 8b 85 d8 e9 ff ff 	mov    -0x1628(%rbp),%rax
    c066:	48 89 05 43 00 01 00 	mov    %rax,0x10043(%rip)        # 1c0b0 <g_859>
    c06d:	48 8b 15 3c 00 01 00 	mov    0x1003c(%rip),%rdx        # 1c0b0 <g_859>
    c074:	48 8b 85 d8 eb ff ff 	mov    -0x1428(%rbp),%rax
    c07b:	48 89 10             	mov    %rdx,(%rax)
    c07e:	48 8b 85 d8 eb ff ff 	mov    -0x1428(%rbp),%rax
    c085:	48 8b 00             	mov    (%rax),%rax
    c088:	48 89 85 88 eb ff ff 	mov    %rax,-0x1478(%rbp)
    c08f:	0f b7 05 ea d9 00 00 	movzwl 0xd9ea(%rip),%eax        # 19a80 <g_632>
    c096:	0f b7 c0             	movzwl %ax,%eax
    c099:	8d 50 03             	lea    0x3(%rax),%edx
    c09c:	0f b7 05 dd d9 00 00 	movzwl 0xd9dd(%rip),%eax        # 19a80 <g_632>
    c0a3:	0f b7 c0             	movzwl %ax,%eax
    c0a6:	8d 48 03             	lea    0x3(%rax),%ecx
    c0a9:	48 63 c2             	movslq %edx,%rax
    c0ac:	48 8d 14 85 00 00 00 	lea    0x0(,%rax,4),%rdx
    c0b3:	00 
    c0b4:	48 8d 05 85 cf 00 00 	lea    0xcf85(%rip),%rax        # 19040 <g_38>
    c0bb:	8b 04 02             	mov    (%rdx,%rax,1),%eax
    c0be:	48 63 d1             	movslq %ecx,%rdx
    c0c1:	48 8d 0c 95 00 00 00 	lea    0x0(,%rdx,4),%rcx
    c0c8:	00 
    c0c9:	48 8d 15 70 cf 00 00 	lea    0xcf70(%rip),%rdx        # 19040 <g_38>
    c0d0:	89 04 11             	mov    %eax,(%rcx,%rdx,1)
    c0d3:	c7 85 30 e9 ff ff 06 	movl   $0x6,-0x16d0(%rbp)
    c0da:	00 00 00 
    c0dd:	83 bd 30 e9 ff ff 00 	cmpl   $0x0,-0x16d0(%rbp)
    c0e4:	78 0f                	js     c0f5 <func_23+0x15f0>
    c0e6:	48 8b 05 bb fd 00 00 	mov    0xfdbb(%rip),%rax        # 1bea8 <g_50>
    c0ed:	48 8b 00             	mov    (%rax),%rax
    c0f0:	e9 1b 42 00 00       	jmpq   10310 <func_23+0x580b>
    c0f5:	66 c7 05 9a cf 00 00 	movw   $0x2,0xcf9a(%rip)        # 19098 <g_169>
    c0fc:	02 00 
    c0fe:	e9 84 01 00 00       	jmpq   c287 <func_23+0x1782>
    c103:	8b 15 37 d9 00 00    	mov    0xd937(%rip),%edx        # 19a40 <g_381>
    c109:	48 8b 05 98 fd 00 00 	mov    0xfd98(%rip),%rax        # 1bea8 <g_50>
    c110:	89 d2                	mov    %edx,%edx
    c112:	48 8d 0c 95 00 00 00 	lea    0x0(,%rdx,4),%rcx
    c119:	00 
    c11a:	48 8d 15 1f cf 00 00 	lea    0xcf1f(%rip),%rdx        # 19040 <g_38>
    c121:	48 01 ca             	add    %rcx,%rdx
    c124:	48 89 10             	mov    %rdx,(%rax)
    c127:	48 8b 85 98 ec ff ff 	mov    -0x1368(%rbp),%rax
    c12e:	89 c2                	mov    %eax,%edx
    c130:	8b 85 a8 e8 ff ff    	mov    -0x1758(%rbp),%eax
    c136:	09 d0                	or     %edx,%eax
    c138:	89 85 a8 e8 ff ff    	mov    %eax,-0x1758(%rbp)
    c13e:	8b 85 a8 e8 ff ff    	mov    -0x1758(%rbp),%eax
    c144:	48 98                	cltq   
    c146:	48 ba 71 8f f3 ff b3 	movabs $0x908e90b3fff38f71,%rdx
    c14d:	90 8e 90 
    c150:	48 09 c2             	or     %rax,%rdx
    c153:	0f b7 05 16 d9 00 00 	movzwl 0xd916(%rip),%eax        # 19a70 <g_587>
    c15a:	66 c1 e8 05          	shr    $0x5,%ax
    c15e:	83 e0 3f             	and    $0x3f,%eax
    c161:	0f b6 c0             	movzbl %al,%eax
    c164:	f7 d0                	not    %eax
    c166:	48 98                	cltq   
    c168:	48 39 c2             	cmp    %rax,%rdx
    c16b:	0f 95 c0             	setne  %al
    c16e:	0f b6 d0             	movzbl %al,%edx
    c171:	0f b6 05 b8 ce 00 00 	movzbl 0xceb8(%rip),%eax        # 19030 <g_15>
    c178:	0f b6 0d b2 ce 00 00 	movzbl 0xceb2(%rip),%ecx        # 19031 <g_15+0x1>
    c17f:	48 c1 e1 08          	shl    $0x8,%rcx
    c183:	48 09 c1             	or     %rax,%rcx
    c186:	0f b6 05 a5 ce 00 00 	movzbl 0xcea5(%rip),%eax        # 19032 <g_15+0x2>
    c18d:	83 e0 07             	and    $0x7,%eax
    c190:	48 c1 e0 10          	shl    $0x10,%rax
    c194:	48 09 c8             	or     %rcx,%rax
    c197:	48 c1 e0 2d          	shl    $0x2d,%rax
    c19b:	48 c1 f8 2d          	sar    $0x2d,%rax
    c19f:	0f b7 c0             	movzwl %ax,%eax
    c1a2:	89 d6                	mov    %edx,%esi
    c1a4:	89 c7                	mov    %eax,%edi
    c1a6:	e8 cf cc ff ff       	callq  8e7a <safe_rshift_func_uint16_t_u_u>
    c1ab:	0f b7 d8             	movzwl %ax,%ebx
    c1ae:	0f b6 05 db ce 00 00 	movzbl 0xcedb(%rip),%eax        # 19090 <g_129>
    c1b5:	0f b6 c0             	movzbl %al,%eax
    c1b8:	be 03 00 00 00       	mov    $0x3,%esi
    c1bd:	89 c7                	mov    %eax,%edi
    c1bf:	e8 ce c2 ff ff       	callq  8492 <safe_lshift_func_int16_t_s_s>
    c1c4:	66 85 c0             	test   %ax,%ax
    c1c7:	74 07                	je     c1d0 <func_23+0x16cb>
    c1c9:	b8 01 00 00 00       	mov    $0x1,%eax
    c1ce:	eb 05                	jmp    c1d5 <func_23+0x16d0>
    c1d0:	b8 00 00 00 00       	mov    $0x0,%eax
    c1d5:	98                   	cwtl   
    c1d6:	be 02 00 00 00       	mov    $0x2,%esi
    c1db:	89 c7                	mov    %eax,%edi
    c1dd:	e8 ff c2 ff ff       	callq  84e1 <safe_lshift_func_int16_t_s_u>
    c1e2:	b8 61 0d 00 00       	mov    $0xd61,%eax
    c1e7:	89 c1                	mov    %eax,%ecx
    c1e9:	48 8b 05 78 10 01 00 	mov    0x11078(%rip),%rax        # 1d268 <g_11>
    c1f0:	48 8b 95 38 e8 ff ff 	mov    -0x17c8(%rbp),%rdx
    c1f7:	8b 12                	mov    (%rdx),%edx
    c1f9:	89 10                	mov    %edx,(%rax)
    c1fb:	8b 00                	mov    (%rax),%eax
    c1fd:	31 c8                	xor    %ecx,%eax
    c1ff:	f7 d0                	not    %eax
    c201:	89 c1                	mov    %eax,%ecx
    c203:	48 8b 85 a8 eb ff ff 	mov    -0x1458(%rbp),%rax
    c20a:	48 8b 10             	mov    (%rax),%rdx
    c20d:	48 63 c1             	movslq %ecx,%rax
    c210:	48 21 c2             	and    %rax,%rdx
    c213:	48 8b 85 a8 eb ff ff 	mov    -0x1458(%rbp),%rax
    c21a:	48 89 10             	mov    %rdx,(%rax)
    c21d:	48 8b 85 a8 eb ff ff 	mov    -0x1458(%rbp),%rax
    c224:	48 8b 00             	mov    (%rax),%rax
    c227:	48 c7 c6 fc ff ff ff 	mov    $0xfffffffffffffffc,%rsi
    c22e:	48 89 c7             	mov    %rax,%rdi
    c231:	e8 c1 c7 ff ff       	callq  89f7 <safe_div_func_int64_t_s_s>
    c236:	48 39 c3             	cmp    %rax,%rbx
    c239:	0f 9d c0             	setge  %al
    c23c:	0f b6 d0             	movzbl %al,%edx
    c23f:	8b 85 e0 ed ff ff    	mov    -0x1220(%rbp),%eax
    c245:	39 c2                	cmp    %eax,%edx
    c247:	0f 95 c0             	setne  %al
    c24a:	0f b6 c0             	movzbl %al,%eax
    c24d:	be 05 00 00 00       	mov    $0x5,%esi
    c252:	89 c7                	mov    %eax,%edi
    c254:	e8 ac c9 ff ff       	callq  8c05 <safe_lshift_func_uint8_t_u_s>
    c259:	0f b6 d0             	movzbl %al,%edx
    c25c:	48 8b 85 38 e8 ff ff 	mov    -0x17c8(%rbp),%rax
    c263:	89 10                	mov    %edx,(%rax)
    c265:	48 8b 05 54 d7 00 00 	mov    0xd754(%rip),%rax        # 199c0 <g_259>
    c26c:	48 85 c0             	test   %rax,%rax
    c26f:	74 05                	je     c276 <func_23+0x1771>
    c271:	e9 36 ec ff ff       	jmpq   aeac <func_23+0x3a7>
    c276:	0f b7 05 1b ce 00 00 	movzwl 0xce1b(%rip),%eax        # 19098 <g_169>
    c27d:	83 c0 01             	add    $0x1,%eax
    c280:	66 89 05 11 ce 00 00 	mov    %ax,0xce11(%rip)        # 19098 <g_169>
    c287:	0f b7 05 0a ce 00 00 	movzwl 0xce0a(%rip),%eax        # 19098 <g_169>
    c28e:	66 83 f8 06          	cmp    $0x6,%ax
    c292:	0f 8e 6b fe ff ff    	jle    c103 <func_23+0x15fe>
    c298:	0f b6 05 f1 cd 00 00 	movzbl 0xcdf1(%rip),%eax        # 19090 <g_129>
    c29f:	83 c0 01             	add    $0x1,%eax
    c2a2:	88 05 e8 cd 00 00    	mov    %al,0xcde8(%rip)        # 19090 <g_129>
    c2a8:	0f b6 05 e1 cd 00 00 	movzbl 0xcde1(%rip),%eax        # 19090 <g_129>
    c2af:	3c 02                	cmp    $0x2,%al
    c2b1:	0f 86 88 fd ff ff    	jbe    c03f <func_23+0x153a>
    c2b7:	48 8b 05 c2 01 01 00 	mov    0x101c2(%rip),%rax        # 1c480 <g_877>
    c2be:	48 8b 95 38 e8 ff ff 	mov    -0x17c8(%rbp),%rdx
    c2c5:	48 89 10             	mov    %rdx,(%rax)
    c2c8:	eb 0f                	jmp    c2d9 <func_23+0x17d4>
    c2ca:	48 8b 05 d7 fb 00 00 	mov    0xfbd7(%rip),%rax        # 1bea8 <g_50>
    c2d1:	48 8b 00             	mov    (%rax),%rax
    c2d4:	e9 37 40 00 00       	jmpq   10310 <func_23+0x580b>
    c2d9:	0f b7 05 a0 d7 00 00 	movzwl 0xd7a0(%rip),%eax        # 19a80 <g_632>
    c2e0:	83 c0 01             	add    $0x1,%eax
    c2e3:	66 89 05 96 d7 00 00 	mov    %ax,0xd796(%rip)        # 19a80 <g_632>
    c2ea:	0f b7 05 8f d7 00 00 	movzwl 0xd78f(%rip),%eax        # 19a80 <g_632>
    c2f1:	66 83 f8 02          	cmp    $0x2,%ax
    c2f5:	0f 86 79 ec ff ff    	jbe    af74 <func_23+0x46f>
    c2fb:	eb 01                	jmp    c2fe <func_23+0x17f9>
    c2fd:	90                   	nop
    c2fe:	48 8b 85 90 ec ff ff 	mov    -0x1370(%rbp),%rax
    c305:	0f b6 c0             	movzbl %al,%eax
    c308:	be 05 00 00 00       	mov    $0x5,%esi
    c30d:	89 c7                	mov    %eax,%edi
    c30f:	e8 79 c9 ff ff       	callq  8c8d <safe_rshift_func_uint8_t_u_s>
    c314:	0f b6 d0             	movzbl %al,%edx
    c317:	48 8b 85 38 e8 ff ff 	mov    -0x17c8(%rbp),%rax
    c31e:	89 10                	mov    %edx,(%rax)
    c320:	66 c7 05 57 d7 00 00 	movw   $0x0,0xd757(%rip)        # 19a80 <g_632>
    c327:	00 00 
    c329:	e9 58 01 00 00       	jmpq   c486 <func_23+0x1981>
    c32e:	48 8d 05 13 d7 00 00 	lea    0xd713(%rip),%rax        # 19a48 <g_427>
    c335:	48 89 85 d8 e9 ff ff 	mov    %rax,-0x1628(%rbp)
    c33c:	48 8d 85 d8 e9 ff ff 	lea    -0x1628(%rbp),%rax
    c343:	48 89 85 18 ec ff ff 	mov    %rax,-0x13e8(%rbp)
    c34a:	48 8d 05 c7 01 01 00 	lea    0x101c7(%rip),%rax        # 1c518 <g_887>
    c351:	48 89 85 20 ec ff ff 	mov    %rax,-0x13e0(%rbp)
    c358:	c7 85 a4 e8 ff ff 02 	movl   $0x2,-0x175c(%rbp)
    c35f:	00 00 00 
    c362:	eb 15                	jmp    c379 <func_23+0x1874>
    c364:	48 8b 05 3d 0f 01 00 	mov    0x10f3d(%rip),%rax        # 1d2a8 <g_880>
    c36b:	48 89 85 18 ec ff ff 	mov    %rax,-0x13e8(%rbp)
    c372:	83 ad a4 e8 ff ff 01 	subl   $0x1,-0x175c(%rbp)
    c379:	83 bd a4 e8 ff ff 00 	cmpl   $0x0,-0x175c(%rbp)
    c380:	79 e2                	jns    c364 <func_23+0x185f>
    c382:	c6 85 4c e8 ff ff 00 	movb   $0x0,-0x17b4(%rbp)
    c389:	e9 da 00 00 00       	jmpq   c468 <func_23+0x1963>
    c38e:	48 8d 85 e0 f7 ff ff 	lea    -0x820(%rbp),%rax
    c395:	48 8d 15 04 e7 00 00 	lea    0xe704(%rip),%rdx        # 1aaa0 <g_1285+0xad0>
    c39c:	b9 e0 00 00 00       	mov    $0xe0,%ecx
    c3a1:	48 89 c7             	mov    %rax,%rdi
    c3a4:	48 89 d6             	mov    %rdx,%rsi
    c3a7:	f3 48 a5             	rep movsq %ds:(%rsi),%es:(%rdi)
    c3aa:	48 8b 05 6f 01 01 00 	mov    0x1016f(%rip),%rax        # 1c520 <g_886>
    c3b1:	48 89 85 20 ec ff ff 	mov    %rax,-0x13e0(%rbp)
    c3b8:	66 c7 05 df cc 00 00 	movw   $0x5,0xccdf(%rip)        # 190a0 <g_205>
    c3bf:	05 00 
    c3c1:	e9 8b 00 00 00       	jmpq   c451 <func_23+0x194c>
    c3c6:	48 c7 85 28 ec ff ff 	movq   $0x0,-0x13d8(%rbp)
    c3cd:	00 00 00 00 
    c3d1:	48 8d 85 68 e8 ff ff 	lea    -0x1798(%rbp),%rax
    c3d8:	48 89 85 30 ec ff ff 	mov    %rax,-0x13d0(%rbp)
    c3df:	0f b7 05 ba cc 00 00 	movzwl 0xccba(%rip),%eax        # 190a0 <g_205>
    c3e6:	98                   	cwtl   
    c3e7:	0f b7 15 b2 cc 00 00 	movzwl 0xccb2(%rip),%edx        # 190a0 <g_205>
    c3ee:	0f bf d2             	movswl %dx,%edx
    c3f1:	83 c2 01             	add    $0x1,%edx
    c3f4:	48 63 ca             	movslq %edx,%rcx
    c3f7:	48 63 d0             	movslq %eax,%rdx
    c3fa:	48 89 d0             	mov    %rdx,%rax
    c3fd:	48 c1 e0 02          	shl    $0x2,%rax
    c401:	48 01 d0             	add    %rdx,%rax
    c404:	48 01 c0             	add    %rax,%rax
    c407:	48 01 c8             	add    %rcx,%rax
    c40a:	48 8d 14 85 00 00 00 	lea    0x0(,%rax,4),%rdx
    c411:	00 
    c412:	48 8d 05 87 d6 00 00 	lea    0xd687(%rip),%rax        # 19aa0 <g_673>
    c419:	8b 14 02             	mov    (%rdx,%rax,1),%edx
    c41c:	0f b6 85 4c e8 ff ff 	movzbl -0x17b4(%rbp),%eax
    c423:	31 c2                	xor    %eax,%edx
    c425:	48 8b 85 38 e8 ff ff 	mov    -0x17c8(%rbp),%rax
    c42c:	89 10                	mov    %edx,(%rax)
    c42e:	48 8b 85 38 e8 ff ff 	mov    -0x17c8(%rbp),%rax
    c435:	8b 10                	mov    (%rax),%edx
    c437:	48 8b 85 30 ec ff ff 	mov    -0x13d0(%rbp),%rax
    c43e:	89 10                	mov    %edx,(%rax)
    c440:	0f b7 05 59 cc 00 00 	movzwl 0xcc59(%rip),%eax        # 190a0 <g_205>
    c447:	83 e8 01             	sub    $0x1,%eax
    c44a:	66 89 05 4f cc 00 00 	mov    %ax,0xcc4f(%rip)        # 190a0 <g_205>
    c451:	0f b7 05 48 cc 00 00 	movzwl 0xcc48(%rip),%eax        # 190a0 <g_205>
    c458:	66 85 c0             	test   %ax,%ax
    c45b:	0f 8f 65 ff ff ff    	jg     c3c6 <func_23+0x18c1>
    c461:	80 85 4c e8 ff ff 01 	addb   $0x1,-0x17b4(%rbp)
    c468:	80 bd 4c e8 ff ff 02 	cmpb   $0x2,-0x17b4(%rbp)
    c46f:	0f 86 19 ff ff ff    	jbe    c38e <func_23+0x1889>
    c475:	0f b7 05 04 d6 00 00 	movzwl 0xd604(%rip),%eax        # 19a80 <g_632>
    c47c:	83 c0 01             	add    $0x1,%eax
    c47f:	66 89 05 fa d5 00 00 	mov    %ax,0xd5fa(%rip)        # 19a80 <g_632>
    c486:	0f b7 05 f3 d5 00 00 	movzwl 0xd5f3(%rip),%eax        # 19a80 <g_632>
    c48d:	66 83 f8 02          	cmp    $0x2,%ax
    c491:	0f 86 97 fe ff ff    	jbe    c32e <func_23+0x1829>
    c497:	8b 05 a3 d5 00 00    	mov    0xd5a3(%rip),%eax        # 19a40 <g_381>
    c49d:	83 c0 01             	add    $0x1,%eax
    c4a0:	89 05 9a d5 00 00    	mov    %eax,0xd59a(%rip)        # 19a40 <g_381>
    c4a6:	8b 05 94 d5 00 00    	mov    0xd594(%rip),%eax        # 19a40 <g_381>
    c4ac:	83 f8 05             	cmp    $0x5,%eax
    c4af:	0f 86 1f ea ff ff    	jbe    aed4 <func_23+0x3cf>
    c4b5:	48 8b 85 50 f1 ff ff 	mov    -0xeb0(%rbp),%rax
    c4bc:	48 85 c0             	test   %rax,%rax
    c4bf:	0f 95 c0             	setne  %al
    c4c2:	44 0f b6 f0          	movzbl %al,%r14d
    c4c6:	8b 9d c4 ed ff ff    	mov    -0x123c(%rbp),%ebx
    c4cc:	8b 05 42 d6 00 00    	mov    0xd642(%rip),%eax        # 19b14 <g_673+0x74>
    c4d2:	44 0f be e0          	movsbl %al,%r12d
    c4d6:	8b 85 68 e8 ff ff    	mov    -0x1798(%rbp),%eax
    c4dc:	4c 63 e8             	movslq %eax,%r13
    c4df:	48 8b 85 20 ea ff ff 	mov    -0x15e0(%rbp),%rax
    c4e6:	41 89 c7             	mov    %eax,%r15d
    c4e9:	0f bf 95 48 e8 ff ff 	movswl -0x17b8(%rbp),%edx
    c4f0:	0f b7 05 d1 d4 00 00 	movzwl 0xd4d1(%rip),%eax        # 199c8 <g_262>
    c4f7:	83 c8 06             	or     $0x6,%eax
    c4fa:	66 89 05 c7 d4 00 00 	mov    %ax,0xd4c7(%rip)        # 199c8 <g_262>
    c501:	0f b7 05 c0 d4 00 00 	movzwl 0xd4c0(%rip),%eax        # 199c8 <g_262>
    c508:	98                   	cwtl   
    c509:	89 d6                	mov    %edx,%esi
    c50b:	89 c7                	mov    %eax,%edi
    c50d:	e8 c1 be ff ff       	callq  83d3 <safe_sub_func_int16_t_s_s>
    c512:	8b 85 68 e8 ff ff    	mov    -0x1798(%rbp),%eax
    c518:	83 f8 ff             	cmp    $0xffffffff,%eax
    c51b:	0f 9c c0             	setl   %al
    c51e:	0f b6 c0             	movzbl %al,%eax
    c521:	be 0a 00 00 00       	mov    $0xa,%esi
    c526:	89 c7                	mov    %eax,%edi
    c528:	e8 fd bf ff ff       	callq  852a <safe_rshift_func_int16_t_s_s>
    c52d:	66 85 c0             	test   %ax,%ax
    c530:	0f 94 c0             	sete   %al
    c533:	0f b6 c0             	movzbl %al,%eax
    c536:	44 89 fe             	mov    %r15d,%esi
    c539:	89 c7                	mov    %eax,%edi
    c53b:	e8 52 bf ff ff       	callq  8492 <safe_lshift_func_int16_t_s_s>
    c540:	0f be c0             	movsbl %al,%eax
    c543:	be b5 ff ff ff       	mov    $0xffffffb5,%esi
    c548:	89 c7                	mov    %eax,%edi
    c54a:	e8 a3 bc ff ff       	callq  81f2 <safe_sub_func_int8_t_s_s>
    c54f:	48 83 bd 28 ea ff ff 	cmpq   $0x0,-0x15d8(%rbp)
    c556:	00 
    c557:	0f 95 c0             	setne  %al
    c55a:	0f b6 d0             	movzbl %al,%edx
    c55d:	8b 85 e0 ed ff ff    	mov    -0x1220(%rbp),%eax
    c563:	3d 24 f4 95 60       	cmp    $0x6095f424,%eax
    c568:	0f 9f c0             	setg   %al
    c56b:	0f b6 c0             	movzbl %al,%eax
    c56e:	39 c2                	cmp    %eax,%edx
    c570:	0f 9d c0             	setge  %al
    c573:	0f b6 c0             	movzbl %al,%eax
    c576:	4c 89 ee             	mov    %r13,%rsi
    c579:	48 89 c7             	mov    %rax,%rdi
    c57c:	e8 2e cb ff ff       	callq  90af <safe_div_func_uint64_t_u_u>
    c581:	48 8b 85 38 ea ff ff 	mov    -0x15c8(%rbp),%rax
    c588:	66 c7 00 00 00       	movw   $0x0,(%rax)
    c58d:	48 8b 85 38 ea ff ff 	mov    -0x15c8(%rbp),%rax
    c594:	0f b7 00             	movzwl (%rax),%eax
    c597:	66 3d 0d 5a          	cmp    $0x5a0d,%ax
    c59b:	0f 96 c0             	setbe  %al
    c59e:	0f b6 c0             	movzbl %al,%eax
    c5a1:	44 89 e6             	mov    %r12d,%esi
    c5a4:	89 c7                	mov    %eax,%edi
    c5a6:	e8 67 bc ff ff       	callq  8212 <safe_mul_func_int8_t_s_s>
    c5ab:	66 98                	cbtw   
    c5ad:	f7 d0                	not    %eax
    c5af:	98                   	cwtl   
    c5b0:	89 de                	mov    %ebx,%esi
    c5b2:	89 c7                	mov    %eax,%edi
    c5b4:	e8 71 bf ff ff       	callq  852a <safe_rshift_func_int16_t_s_s>
    c5b9:	b8 01 00 00 00       	mov    $0x1,%eax
    c5be:	83 f8 12             	cmp    $0x12,%eax
    c5c1:	0f 9e c0             	setle  %al
    c5c4:	0f b6 d0             	movzbl %al,%edx
    c5c7:	48 8b 85 38 e8 ff ff 	mov    -0x17c8(%rbp),%rax
    c5ce:	89 10                	mov    %edx,(%rax)
    c5d0:	48 8b 85 38 e8 ff ff 	mov    -0x17c8(%rbp),%rax
    c5d7:	8b 00                	mov    (%rax),%eax
    c5d9:	41 39 c6             	cmp    %eax,%r14d
    c5dc:	0f 9d c0             	setge  %al
    c5df:	0f b6 d0             	movzbl %al,%edx
    c5e2:	0f bf 85 48 e8 ff ff 	movswl -0x17b8(%rbp),%eax
    c5e9:	39 c2                	cmp    %eax,%edx
    c5eb:	0f 84 ce 1e 00 00    	je     e4bf <func_23+0x39ba>
    c5f1:	48 8d 05 c8 d3 00 00 	lea    0xd3c8(%rip),%rax        # 199c0 <g_259>
    c5f8:	48 89 85 b8 e9 ff ff 	mov    %rax,-0x1648(%rbp)
    c5ff:	48 8d 85 b8 e9 ff ff 	lea    -0x1648(%rbp),%rax
    c606:	48 89 85 e0 f7 ff ff 	mov    %rax,-0x820(%rbp)
    c60d:	48 8d 85 b8 e9 ff ff 	lea    -0x1648(%rbp),%rax
    c614:	48 89 85 e8 f7 ff ff 	mov    %rax,-0x818(%rbp)
    c61b:	48 8d 85 b8 e9 ff ff 	lea    -0x1648(%rbp),%rax
    c622:	48 89 85 f0 f7 ff ff 	mov    %rax,-0x810(%rbp)
    c629:	48 8d 85 b8 e9 ff ff 	lea    -0x1648(%rbp),%rax
    c630:	48 89 85 f8 f7 ff ff 	mov    %rax,-0x808(%rbp)
    c637:	48 8d 85 b8 e9 ff ff 	lea    -0x1648(%rbp),%rax
    c63e:	48 89 85 00 f8 ff ff 	mov    %rax,-0x800(%rbp)
    c645:	48 8d 85 b8 e9 ff ff 	lea    -0x1648(%rbp),%rax
    c64c:	48 89 85 08 f8 ff ff 	mov    %rax,-0x7f8(%rbp)
    c653:	48 8d 85 b8 e9 ff ff 	lea    -0x1648(%rbp),%rax
    c65a:	48 89 85 10 f8 ff ff 	mov    %rax,-0x7f0(%rbp)
    c661:	48 8d 85 b8 e9 ff ff 	lea    -0x1648(%rbp),%rax
    c668:	48 89 85 18 f8 ff ff 	mov    %rax,-0x7e8(%rbp)
    c66f:	48 8d 85 b8 e9 ff ff 	lea    -0x1648(%rbp),%rax
    c676:	48 89 85 20 f8 ff ff 	mov    %rax,-0x7e0(%rbp)
    c67d:	48 8d 85 b8 e9 ff ff 	lea    -0x1648(%rbp),%rax
    c684:	48 89 85 28 f8 ff ff 	mov    %rax,-0x7d8(%rbp)
    c68b:	48 8d 85 b8 e9 ff ff 	lea    -0x1648(%rbp),%rax
    c692:	48 89 85 30 f8 ff ff 	mov    %rax,-0x7d0(%rbp)
    c699:	48 c7 85 38 f8 ff ff 	movq   $0x0,-0x7c8(%rbp)
    c6a0:	00 00 00 00 
    c6a4:	48 8d 85 b8 e9 ff ff 	lea    -0x1648(%rbp),%rax
    c6ab:	48 89 85 40 f8 ff ff 	mov    %rax,-0x7c0(%rbp)
    c6b2:	48 8d 85 b8 e9 ff ff 	lea    -0x1648(%rbp),%rax
    c6b9:	48 89 85 48 f8 ff ff 	mov    %rax,-0x7b8(%rbp)
    c6c0:	48 8d 85 b8 e9 ff ff 	lea    -0x1648(%rbp),%rax
    c6c7:	48 89 85 50 f8 ff ff 	mov    %rax,-0x7b0(%rbp)
    c6ce:	48 c7 85 58 f8 ff ff 	movq   $0x0,-0x7a8(%rbp)
    c6d5:	00 00 00 00 
    c6d9:	48 8d 85 b8 e9 ff ff 	lea    -0x1648(%rbp),%rax
    c6e0:	48 89 85 60 f8 ff ff 	mov    %rax,-0x7a0(%rbp)
    c6e7:	48 8d 85 b8 e9 ff ff 	lea    -0x1648(%rbp),%rax
    c6ee:	48 89 85 68 f8 ff ff 	mov    %rax,-0x798(%rbp)
    c6f5:	48 c7 85 70 f8 ff ff 	movq   $0x0,-0x790(%rbp)
    c6fc:	00 00 00 00 
    c700:	48 8d 85 b8 e9 ff ff 	lea    -0x1648(%rbp),%rax
    c707:	48 89 85 78 f8 ff ff 	mov    %rax,-0x788(%rbp)
    c70e:	48 8d 85 b8 e9 ff ff 	lea    -0x1648(%rbp),%rax
    c715:	48 89 85 80 f8 ff ff 	mov    %rax,-0x780(%rbp)
    c71c:	48 8d 85 b8 e9 ff ff 	lea    -0x1648(%rbp),%rax
    c723:	48 89 85 88 f8 ff ff 	mov    %rax,-0x778(%rbp)
    c72a:	48 8d 85 b8 e9 ff ff 	lea    -0x1648(%rbp),%rax
    c731:	48 89 85 90 f8 ff ff 	mov    %rax,-0x770(%rbp)
    c738:	48 8d 85 b8 e9 ff ff 	lea    -0x1648(%rbp),%rax
    c73f:	48 89 85 98 f8 ff ff 	mov    %rax,-0x768(%rbp)
    c746:	48 8d 85 b8 e9 ff ff 	lea    -0x1648(%rbp),%rax
    c74d:	48 89 85 a0 f8 ff ff 	mov    %rax,-0x760(%rbp)
    c754:	48 8d 85 b8 e9 ff ff 	lea    -0x1648(%rbp),%rax
    c75b:	48 89 85 a8 f8 ff ff 	mov    %rax,-0x758(%rbp)
    c762:	48 8d 85 b8 e9 ff ff 	lea    -0x1648(%rbp),%rax
    c769:	48 89 85 b0 f8 ff ff 	mov    %rax,-0x750(%rbp)
    c770:	48 8d 85 b8 e9 ff ff 	lea    -0x1648(%rbp),%rax
    c777:	48 89 85 b8 f8 ff ff 	mov    %rax,-0x748(%rbp)
    c77e:	48 8d 85 b8 e9 ff ff 	lea    -0x1648(%rbp),%rax
    c785:	48 89 85 c0 f8 ff ff 	mov    %rax,-0x740(%rbp)
    c78c:	48 c7 85 c8 f8 ff ff 	movq   $0x0,-0x738(%rbp)
    c793:	00 00 00 00 
    c797:	48 8d 85 b8 e9 ff ff 	lea    -0x1648(%rbp),%rax
    c79e:	48 89 85 d0 f8 ff ff 	mov    %rax,-0x730(%rbp)
    c7a5:	48 8d 85 b8 e9 ff ff 	lea    -0x1648(%rbp),%rax
    c7ac:	48 89 85 d8 f8 ff ff 	mov    %rax,-0x728(%rbp)
    c7b3:	48 8d 85 b8 e9 ff ff 	lea    -0x1648(%rbp),%rax
    c7ba:	48 89 85 e0 f8 ff ff 	mov    %rax,-0x720(%rbp)
    c7c1:	48 8d 85 b8 e9 ff ff 	lea    -0x1648(%rbp),%rax
    c7c8:	48 89 85 e8 f8 ff ff 	mov    %rax,-0x718(%rbp)
    c7cf:	48 8d 85 b8 e9 ff ff 	lea    -0x1648(%rbp),%rax
    c7d6:	48 89 85 f0 f8 ff ff 	mov    %rax,-0x710(%rbp)
    c7dd:	48 8d 85 b8 e9 ff ff 	lea    -0x1648(%rbp),%rax
    c7e4:	48 89 85 f8 f8 ff ff 	mov    %rax,-0x708(%rbp)
    c7eb:	48 8d 85 b8 e9 ff ff 	lea    -0x1648(%rbp),%rax
    c7f2:	48 89 85 00 f9 ff ff 	mov    %rax,-0x700(%rbp)
    c7f9:	48 c7 85 08 f9 ff ff 	movq   $0x0,-0x6f8(%rbp)
    c800:	00 00 00 00 
    c804:	48 8d 85 b8 e9 ff ff 	lea    -0x1648(%rbp),%rax
    c80b:	48 89 85 10 f9 ff ff 	mov    %rax,-0x6f0(%rbp)
    c812:	48 8d 85 b8 e9 ff ff 	lea    -0x1648(%rbp),%rax
    c819:	48 89 85 18 f9 ff ff 	mov    %rax,-0x6e8(%rbp)
    c820:	48 c7 85 20 f9 ff ff 	movq   $0x0,-0x6e0(%rbp)
    c827:	00 00 00 00 
    c82b:	48 8d 85 b8 e9 ff ff 	lea    -0x1648(%rbp),%rax
    c832:	48 89 85 28 f9 ff ff 	mov    %rax,-0x6d8(%rbp)
    c839:	48 8d 85 b8 e9 ff ff 	lea    -0x1648(%rbp),%rax
    c840:	48 89 85 30 f9 ff ff 	mov    %rax,-0x6d0(%rbp)
    c847:	48 c7 85 38 f9 ff ff 	movq   $0x0,-0x6c8(%rbp)
    c84e:	00 00 00 00 
    c852:	48 8d 85 b8 e9 ff ff 	lea    -0x1648(%rbp),%rax
    c859:	48 89 85 40 f9 ff ff 	mov    %rax,-0x6c0(%rbp)
    c860:	48 8d 85 b8 e9 ff ff 	lea    -0x1648(%rbp),%rax
    c867:	48 89 85 48 f9 ff ff 	mov    %rax,-0x6b8(%rbp)
    c86e:	48 8d 85 b8 e9 ff ff 	lea    -0x1648(%rbp),%rax
    c875:	48 89 85 50 f9 ff ff 	mov    %rax,-0x6b0(%rbp)
    c87c:	48 c7 85 58 f9 ff ff 	movq   $0x0,-0x6a8(%rbp)
    c883:	00 00 00 00 
    c887:	48 8d 85 b8 e9 ff ff 	lea    -0x1648(%rbp),%rax
    c88e:	48 89 85 60 f9 ff ff 	mov    %rax,-0x6a0(%rbp)
    c895:	48 8d 85 b8 e9 ff ff 	lea    -0x1648(%rbp),%rax
    c89c:	48 89 85 68 f9 ff ff 	mov    %rax,-0x698(%rbp)
    c8a3:	48 8d 85 b8 e9 ff ff 	lea    -0x1648(%rbp),%rax
    c8aa:	48 89 85 70 f9 ff ff 	mov    %rax,-0x690(%rbp)
    c8b1:	48 8d 85 b8 e9 ff ff 	lea    -0x1648(%rbp),%rax
    c8b8:	48 89 85 78 f9 ff ff 	mov    %rax,-0x688(%rbp)
    c8bf:	48 8d 85 b8 e9 ff ff 	lea    -0x1648(%rbp),%rax
    c8c6:	48 89 85 80 f9 ff ff 	mov    %rax,-0x680(%rbp)
    c8cd:	48 8d 85 b8 e9 ff ff 	lea    -0x1648(%rbp),%rax
    c8d4:	48 89 85 88 f9 ff ff 	mov    %rax,-0x678(%rbp)
    c8db:	48 8d 85 b8 e9 ff ff 	lea    -0x1648(%rbp),%rax
    c8e2:	48 89 85 90 f9 ff ff 	mov    %rax,-0x670(%rbp)
    c8e9:	48 8d 85 b8 e9 ff ff 	lea    -0x1648(%rbp),%rax
    c8f0:	48 89 85 98 f9 ff ff 	mov    %rax,-0x668(%rbp)
    c8f7:	48 8d 85 b8 e9 ff ff 	lea    -0x1648(%rbp),%rax
    c8fe:	48 89 85 a0 f9 ff ff 	mov    %rax,-0x660(%rbp)
    c905:	48 8d 85 b8 e9 ff ff 	lea    -0x1648(%rbp),%rax
    c90c:	48 89 85 a8 f9 ff ff 	mov    %rax,-0x658(%rbp)
    c913:	48 8d 85 b8 e9 ff ff 	lea    -0x1648(%rbp),%rax
    c91a:	48 89 85 b0 f9 ff ff 	mov    %rax,-0x650(%rbp)
    c921:	48 8d 85 b8 e9 ff ff 	lea    -0x1648(%rbp),%rax
    c928:	48 89 85 b8 f9 ff ff 	mov    %rax,-0x648(%rbp)
    c92f:	48 8d 85 b8 e9 ff ff 	lea    -0x1648(%rbp),%rax
    c936:	48 89 85 c0 f9 ff ff 	mov    %rax,-0x640(%rbp)
    c93d:	48 8d 85 b8 e9 ff ff 	lea    -0x1648(%rbp),%rax
    c944:	48 89 85 c8 f9 ff ff 	mov    %rax,-0x638(%rbp)
    c94b:	48 8d 85 b8 e9 ff ff 	lea    -0x1648(%rbp),%rax
    c952:	48 89 85 d0 f9 ff ff 	mov    %rax,-0x630(%rbp)
    c959:	48 8d 85 b8 e9 ff ff 	lea    -0x1648(%rbp),%rax
    c960:	48 89 85 d8 f9 ff ff 	mov    %rax,-0x628(%rbp)
    c967:	48 c7 85 e0 f9 ff ff 	movq   $0x0,-0x620(%rbp)
    c96e:	00 00 00 00 
    c972:	48 8d 85 b8 e9 ff ff 	lea    -0x1648(%rbp),%rax
    c979:	48 89 85 e8 f9 ff ff 	mov    %rax,-0x618(%rbp)
    c980:	48 8d 85 b8 e9 ff ff 	lea    -0x1648(%rbp),%rax
    c987:	48 89 85 f0 f9 ff ff 	mov    %rax,-0x610(%rbp)
    c98e:	48 8d 85 b8 e9 ff ff 	lea    -0x1648(%rbp),%rax
    c995:	48 89 85 f8 f9 ff ff 	mov    %rax,-0x608(%rbp)
    c99c:	48 8d 85 b8 e9 ff ff 	lea    -0x1648(%rbp),%rax
    c9a3:	48 89 85 00 fa ff ff 	mov    %rax,-0x600(%rbp)
    c9aa:	48 8d 85 b8 e9 ff ff 	lea    -0x1648(%rbp),%rax
    c9b1:	48 89 85 08 fa ff ff 	mov    %rax,-0x5f8(%rbp)
    c9b8:	48 8d 85 b8 e9 ff ff 	lea    -0x1648(%rbp),%rax
    c9bf:	48 89 85 10 fa ff ff 	mov    %rax,-0x5f0(%rbp)
    c9c6:	48 8d 85 b8 e9 ff ff 	lea    -0x1648(%rbp),%rax
    c9cd:	48 89 85 18 fa ff ff 	mov    %rax,-0x5e8(%rbp)
    c9d4:	48 c7 85 20 fa ff ff 	movq   $0x0,-0x5e0(%rbp)
    c9db:	00 00 00 00 
    c9df:	48 8d 85 b8 e9 ff ff 	lea    -0x1648(%rbp),%rax
    c9e6:	48 89 85 28 fa ff ff 	mov    %rax,-0x5d8(%rbp)
    c9ed:	48 8d 85 b8 e9 ff ff 	lea    -0x1648(%rbp),%rax
    c9f4:	48 89 85 30 fa ff ff 	mov    %rax,-0x5d0(%rbp)
    c9fb:	48 c7 85 38 fa ff ff 	movq   $0x0,-0x5c8(%rbp)
    ca02:	00 00 00 00 
    ca06:	48 8d 85 b8 e9 ff ff 	lea    -0x1648(%rbp),%rax
    ca0d:	48 89 85 40 fa ff ff 	mov    %rax,-0x5c0(%rbp)
    ca14:	48 8d 85 b8 e9 ff ff 	lea    -0x1648(%rbp),%rax
    ca1b:	48 89 85 48 fa ff ff 	mov    %rax,-0x5b8(%rbp)
    ca22:	48 c7 85 50 fa ff ff 	movq   $0x0,-0x5b0(%rbp)
    ca29:	00 00 00 00 
    ca2d:	48 8d 85 b8 e9 ff ff 	lea    -0x1648(%rbp),%rax
    ca34:	48 89 85 58 fa ff ff 	mov    %rax,-0x5a8(%rbp)
    ca3b:	48 8d 85 b8 e9 ff ff 	lea    -0x1648(%rbp),%rax
    ca42:	48 89 85 60 fa ff ff 	mov    %rax,-0x5a0(%rbp)
    ca49:	48 8d 85 b8 e9 ff ff 	lea    -0x1648(%rbp),%rax
    ca50:	48 89 85 68 fa ff ff 	mov    %rax,-0x598(%rbp)
    ca57:	48 8d 85 b8 e9 ff ff 	lea    -0x1648(%rbp),%rax
    ca5e:	48 89 85 70 fa ff ff 	mov    %rax,-0x590(%rbp)
    ca65:	48 8d 85 b8 e9 ff ff 	lea    -0x1648(%rbp),%rax
    ca6c:	48 89 85 78 fa ff ff 	mov    %rax,-0x588(%rbp)
    ca73:	48 8d 85 b8 e9 ff ff 	lea    -0x1648(%rbp),%rax
    ca7a:	48 89 85 80 fa ff ff 	mov    %rax,-0x580(%rbp)
    ca81:	48 8d 85 b8 e9 ff ff 	lea    -0x1648(%rbp),%rax
    ca88:	48 89 85 88 fa ff ff 	mov    %rax,-0x578(%rbp)
    ca8f:	48 8d 85 b8 e9 ff ff 	lea    -0x1648(%rbp),%rax
    ca96:	48 89 85 90 fa ff ff 	mov    %rax,-0x570(%rbp)
    ca9d:	48 8d 85 b8 e9 ff ff 	lea    -0x1648(%rbp),%rax
    caa4:	48 89 85 98 fa ff ff 	mov    %rax,-0x568(%rbp)
    caab:	48 8d 85 b8 e9 ff ff 	lea    -0x1648(%rbp),%rax
    cab2:	48 89 85 a0 fa ff ff 	mov    %rax,-0x560(%rbp)
    cab9:	48 8d 85 b8 e9 ff ff 	lea    -0x1648(%rbp),%rax
    cac0:	48 89 85 a8 fa ff ff 	mov    %rax,-0x558(%rbp)
    cac7:	48 8d 85 b8 e9 ff ff 	lea    -0x1648(%rbp),%rax
    cace:	48 89 85 b0 fa ff ff 	mov    %rax,-0x550(%rbp)
    cad5:	48 8d 85 b8 e9 ff ff 	lea    -0x1648(%rbp),%rax
    cadc:	48 89 85 b8 fa ff ff 	mov    %rax,-0x548(%rbp)
    cae3:	48 8d 85 b8 e9 ff ff 	lea    -0x1648(%rbp),%rax
    caea:	48 89 85 c0 fa ff ff 	mov    %rax,-0x540(%rbp)
    caf1:	48 8d 85 b8 e9 ff ff 	lea    -0x1648(%rbp),%rax
    caf8:	48 89 85 c8 fa ff ff 	mov    %rax,-0x538(%rbp)
    caff:	48 8d 85 b8 e9 ff ff 	lea    -0x1648(%rbp),%rax
    cb06:	48 89 85 d0 fa ff ff 	mov    %rax,-0x530(%rbp)
    cb0d:	48 c7 85 d8 fa ff ff 	movq   $0x0,-0x528(%rbp)
    cb14:	00 00 00 00 
    cb18:	48 8d 85 b8 e9 ff ff 	lea    -0x1648(%rbp),%rax
    cb1f:	48 89 85 e0 fa ff ff 	mov    %rax,-0x520(%rbp)
    cb26:	48 8d 85 b8 e9 ff ff 	lea    -0x1648(%rbp),%rax
    cb2d:	48 89 85 e8 fa ff ff 	mov    %rax,-0x518(%rbp)
    cb34:	48 8d 85 b8 e9 ff ff 	lea    -0x1648(%rbp),%rax
    cb3b:	48 89 85 f0 fa ff ff 	mov    %rax,-0x510(%rbp)
    cb42:	48 8d 85 b8 e9 ff ff 	lea    -0x1648(%rbp),%rax
    cb49:	48 89 85 f8 fa ff ff 	mov    %rax,-0x508(%rbp)
    cb50:	48 8d 85 b8 e9 ff ff 	lea    -0x1648(%rbp),%rax
    cb57:	48 89 85 00 fb ff ff 	mov    %rax,-0x500(%rbp)
    cb5e:	48 8d 85 b8 e9 ff ff 	lea    -0x1648(%rbp),%rax
    cb65:	48 89 85 08 fb ff ff 	mov    %rax,-0x4f8(%rbp)
    cb6c:	48 8d 85 b8 e9 ff ff 	lea    -0x1648(%rbp),%rax
    cb73:	48 89 85 10 fb ff ff 	mov    %rax,-0x4f0(%rbp)
    cb7a:	48 8d 85 b8 e9 ff ff 	lea    -0x1648(%rbp),%rax
    cb81:	48 89 85 18 fb ff ff 	mov    %rax,-0x4e8(%rbp)
    cb88:	48 8d 85 b8 e9 ff ff 	lea    -0x1648(%rbp),%rax
    cb8f:	48 89 85 20 fb ff ff 	mov    %rax,-0x4e0(%rbp)
    cb96:	48 8d 85 b8 e9 ff ff 	lea    -0x1648(%rbp),%rax
    cb9d:	48 89 85 28 fb ff ff 	mov    %rax,-0x4d8(%rbp)
    cba4:	48 8d 85 b8 e9 ff ff 	lea    -0x1648(%rbp),%rax
    cbab:	48 89 85 30 fb ff ff 	mov    %rax,-0x4d0(%rbp)
    cbb2:	48 8d 85 b8 e9 ff ff 	lea    -0x1648(%rbp),%rax
    cbb9:	48 89 85 38 fb ff ff 	mov    %rax,-0x4c8(%rbp)
    cbc0:	48 8d 85 b8 e9 ff ff 	lea    -0x1648(%rbp),%rax
    cbc7:	48 89 85 40 fb ff ff 	mov    %rax,-0x4c0(%rbp)
    cbce:	48 8d 85 b8 e9 ff ff 	lea    -0x1648(%rbp),%rax
    cbd5:	48 89 85 48 fb ff ff 	mov    %rax,-0x4b8(%rbp)
    cbdc:	48 8d 85 b8 e9 ff ff 	lea    -0x1648(%rbp),%rax
    cbe3:	48 89 85 50 fb ff ff 	mov    %rax,-0x4b0(%rbp)
    cbea:	48 8d 85 b8 e9 ff ff 	lea    -0x1648(%rbp),%rax
    cbf1:	48 89 85 58 fb ff ff 	mov    %rax,-0x4a8(%rbp)
    cbf8:	48 8d 85 b8 e9 ff ff 	lea    -0x1648(%rbp),%rax
    cbff:	48 89 85 60 fb ff ff 	mov    %rax,-0x4a0(%rbp)
    cc06:	48 c7 85 68 fb ff ff 	movq   $0x0,-0x498(%rbp)
    cc0d:	00 00 00 00 
    cc11:	48 c7 85 70 fb ff ff 	movq   $0x0,-0x490(%rbp)
    cc18:	00 00 00 00 
    cc1c:	48 8d 85 b8 e9 ff ff 	lea    -0x1648(%rbp),%rax
    cc23:	48 89 85 78 fb ff ff 	mov    %rax,-0x488(%rbp)
    cc2a:	48 8d 85 b8 e9 ff ff 	lea    -0x1648(%rbp),%rax
    cc31:	48 89 85 80 fb ff ff 	mov    %rax,-0x480(%rbp)
    cc38:	48 8d 85 b8 e9 ff ff 	lea    -0x1648(%rbp),%rax
    cc3f:	48 89 85 88 fb ff ff 	mov    %rax,-0x478(%rbp)
    cc46:	48 c7 85 90 fb ff ff 	movq   $0x0,-0x470(%rbp)
    cc4d:	00 00 00 00 
    cc51:	48 8d 85 b8 e9 ff ff 	lea    -0x1648(%rbp),%rax
    cc58:	48 89 85 98 fb ff ff 	mov    %rax,-0x468(%rbp)
    cc5f:	48 c7 85 a0 fb ff ff 	movq   $0x0,-0x460(%rbp)
    cc66:	00 00 00 00 
    cc6a:	48 8d 85 b8 e9 ff ff 	lea    -0x1648(%rbp),%rax
    cc71:	48 89 85 a8 fb ff ff 	mov    %rax,-0x458(%rbp)
    cc78:	48 c7 85 b0 fb ff ff 	movq   $0x0,-0x450(%rbp)
    cc7f:	00 00 00 00 
    cc83:	48 8d 85 b8 e9 ff ff 	lea    -0x1648(%rbp),%rax
    cc8a:	48 89 85 b8 fb ff ff 	mov    %rax,-0x448(%rbp)
    cc91:	48 c7 85 c0 fb ff ff 	movq   $0x0,-0x440(%rbp)
    cc98:	00 00 00 00 
    cc9c:	48 8d 85 b8 e9 ff ff 	lea    -0x1648(%rbp),%rax
    cca3:	48 89 85 c8 fb ff ff 	mov    %rax,-0x438(%rbp)
    ccaa:	48 8d 85 b8 e9 ff ff 	lea    -0x1648(%rbp),%rax
    ccb1:	48 89 85 d0 fb ff ff 	mov    %rax,-0x430(%rbp)
    ccb8:	48 8d 85 b8 e9 ff ff 	lea    -0x1648(%rbp),%rax
    ccbf:	48 89 85 d8 fb ff ff 	mov    %rax,-0x428(%rbp)
    ccc6:	48 8d 85 b8 e9 ff ff 	lea    -0x1648(%rbp),%rax
    cccd:	48 89 85 e0 fb ff ff 	mov    %rax,-0x420(%rbp)
    ccd4:	48 8d 85 b8 e9 ff ff 	lea    -0x1648(%rbp),%rax
    ccdb:	48 89 85 e8 fb ff ff 	mov    %rax,-0x418(%rbp)
    cce2:	48 8d 85 b8 e9 ff ff 	lea    -0x1648(%rbp),%rax
    cce9:	48 89 85 f0 fb ff ff 	mov    %rax,-0x410(%rbp)
    ccf0:	48 8d 85 b8 e9 ff ff 	lea    -0x1648(%rbp),%rax
    ccf7:	48 89 85 f8 fb ff ff 	mov    %rax,-0x408(%rbp)
    ccfe:	48 8d 85 b8 e9 ff ff 	lea    -0x1648(%rbp),%rax
    cd05:	48 89 85 00 fc ff ff 	mov    %rax,-0x400(%rbp)
    cd0c:	48 8d 85 b8 e9 ff ff 	lea    -0x1648(%rbp),%rax
    cd13:	48 89 85 08 fc ff ff 	mov    %rax,-0x3f8(%rbp)
    cd1a:	48 8d 85 b8 e9 ff ff 	lea    -0x1648(%rbp),%rax
    cd21:	48 89 85 10 fc ff ff 	mov    %rax,-0x3f0(%rbp)
    cd28:	48 8d 85 b8 e9 ff ff 	lea    -0x1648(%rbp),%rax
    cd2f:	48 89 85 18 fc ff ff 	mov    %rax,-0x3e8(%rbp)
    cd36:	48 8d 85 b8 e9 ff ff 	lea    -0x1648(%rbp),%rax
    cd3d:	48 89 85 20 fc ff ff 	mov    %rax,-0x3e0(%rbp)
    cd44:	48 c7 85 28 fc ff ff 	movq   $0x0,-0x3d8(%rbp)
    cd4b:	00 00 00 00 
    cd4f:	48 8d 85 b8 e9 ff ff 	lea    -0x1648(%rbp),%rax
    cd56:	48 89 85 30 fc ff ff 	mov    %rax,-0x3d0(%rbp)
    cd5d:	48 c7 85 38 fc ff ff 	movq   $0x0,-0x3c8(%rbp)
    cd64:	00 00 00 00 
    cd68:	48 8d 85 b8 e9 ff ff 	lea    -0x1648(%rbp),%rax
    cd6f:	48 89 85 40 fc ff ff 	mov    %rax,-0x3c0(%rbp)
    cd76:	48 c7 85 48 fc ff ff 	movq   $0x0,-0x3b8(%rbp)
    cd7d:	00 00 00 00 
    cd81:	48 8d 85 b8 e9 ff ff 	lea    -0x1648(%rbp),%rax
    cd88:	48 89 85 50 fc ff ff 	mov    %rax,-0x3b0(%rbp)
    cd8f:	48 c7 85 58 fc ff ff 	movq   $0x0,-0x3a8(%rbp)
    cd96:	00 00 00 00 
    cd9a:	48 8d 85 b8 e9 ff ff 	lea    -0x1648(%rbp),%rax
    cda1:	48 89 85 60 fc ff ff 	mov    %rax,-0x3a0(%rbp)
    cda8:	48 8d 85 b8 e9 ff ff 	lea    -0x1648(%rbp),%rax
    cdaf:	48 89 85 68 fc ff ff 	mov    %rax,-0x398(%rbp)
    cdb6:	48 8d 85 b8 e9 ff ff 	lea    -0x1648(%rbp),%rax
    cdbd:	48 89 85 70 fc ff ff 	mov    %rax,-0x390(%rbp)
    cdc4:	48 8d 85 b8 e9 ff ff 	lea    -0x1648(%rbp),%rax
    cdcb:	48 89 85 78 fc ff ff 	mov    %rax,-0x388(%rbp)
    cdd2:	48 c7 85 80 fc ff ff 	movq   $0x0,-0x380(%rbp)
    cdd9:	00 00 00 00 
    cddd:	48 8d 85 b8 e9 ff ff 	lea    -0x1648(%rbp),%rax
    cde4:	48 89 85 88 fc ff ff 	mov    %rax,-0x378(%rbp)
    cdeb:	48 8d 85 b8 e9 ff ff 	lea    -0x1648(%rbp),%rax
    cdf2:	48 89 85 90 fc ff ff 	mov    %rax,-0x370(%rbp)
    cdf9:	48 8d 85 b8 e9 ff ff 	lea    -0x1648(%rbp),%rax
    ce00:	48 89 85 98 fc ff ff 	mov    %rax,-0x368(%rbp)
    ce07:	48 8d 85 b8 e9 ff ff 	lea    -0x1648(%rbp),%rax
    ce0e:	48 89 85 a0 fc ff ff 	mov    %rax,-0x360(%rbp)
    ce15:	48 8d 85 b8 e9 ff ff 	lea    -0x1648(%rbp),%rax
    ce1c:	48 89 85 a8 fc ff ff 	mov    %rax,-0x358(%rbp)
    ce23:	48 8d 85 b8 e9 ff ff 	lea    -0x1648(%rbp),%rax
    ce2a:	48 89 85 b0 fc ff ff 	mov    %rax,-0x350(%rbp)
    ce31:	48 8d 85 b8 e9 ff ff 	lea    -0x1648(%rbp),%rax
    ce38:	48 89 85 b8 fc ff ff 	mov    %rax,-0x348(%rbp)
    ce3f:	48 8d 85 b8 e9 ff ff 	lea    -0x1648(%rbp),%rax
    ce46:	48 89 85 c0 fc ff ff 	mov    %rax,-0x340(%rbp)
    ce4d:	48 8d 85 b8 e9 ff ff 	lea    -0x1648(%rbp),%rax
    ce54:	48 89 85 c8 fc ff ff 	mov    %rax,-0x338(%rbp)
    ce5b:	48 8d 85 b8 e9 ff ff 	lea    -0x1648(%rbp),%rax
    ce62:	48 89 85 d0 fc ff ff 	mov    %rax,-0x330(%rbp)
    ce69:	48 8d 85 b8 e9 ff ff 	lea    -0x1648(%rbp),%rax
    ce70:	48 89 85 d8 fc ff ff 	mov    %rax,-0x328(%rbp)
    ce77:	48 8d 85 b8 e9 ff ff 	lea    -0x1648(%rbp),%rax
    ce7e:	48 89 85 e0 fc ff ff 	mov    %rax,-0x320(%rbp)
    ce85:	48 8d 85 b8 e9 ff ff 	lea    -0x1648(%rbp),%rax
    ce8c:	48 89 85 e8 fc ff ff 	mov    %rax,-0x318(%rbp)
    ce93:	48 8d 85 b8 e9 ff ff 	lea    -0x1648(%rbp),%rax
    ce9a:	48 89 85 f0 fc ff ff 	mov    %rax,-0x310(%rbp)
    cea1:	48 8d 85 b8 e9 ff ff 	lea    -0x1648(%rbp),%rax
    cea8:	48 89 85 f8 fc ff ff 	mov    %rax,-0x308(%rbp)
    ceaf:	48 8d 85 b8 e9 ff ff 	lea    -0x1648(%rbp),%rax
    ceb6:	48 89 85 00 fd ff ff 	mov    %rax,-0x300(%rbp)
    cebd:	48 8d 85 b8 e9 ff ff 	lea    -0x1648(%rbp),%rax
    cec4:	48 89 85 08 fd ff ff 	mov    %rax,-0x2f8(%rbp)
    cecb:	48 c7 85 10 fd ff ff 	movq   $0x0,-0x2f0(%rbp)
    ced2:	00 00 00 00 
    ced6:	48 8d 85 b8 e9 ff ff 	lea    -0x1648(%rbp),%rax
    cedd:	48 89 85 18 fd ff ff 	mov    %rax,-0x2e8(%rbp)
    cee4:	48 8d 85 b8 e9 ff ff 	lea    -0x1648(%rbp),%rax
    ceeb:	48 89 85 20 fd ff ff 	mov    %rax,-0x2e0(%rbp)
    cef2:	48 8d 85 b8 e9 ff ff 	lea    -0x1648(%rbp),%rax
    cef9:	48 89 85 28 fd ff ff 	mov    %rax,-0x2d8(%rbp)
    cf00:	48 8d 85 b8 e9 ff ff 	lea    -0x1648(%rbp),%rax
    cf07:	48 89 85 30 fd ff ff 	mov    %rax,-0x2d0(%rbp)
    cf0e:	48 8d 85 b8 e9 ff ff 	lea    -0x1648(%rbp),%rax
    cf15:	48 89 85 38 fd ff ff 	mov    %rax,-0x2c8(%rbp)
    cf1c:	48 8d 85 b8 e9 ff ff 	lea    -0x1648(%rbp),%rax
    cf23:	48 89 85 40 fd ff ff 	mov    %rax,-0x2c0(%rbp)
    cf2a:	48 8d 85 b8 e9 ff ff 	lea    -0x1648(%rbp),%rax
    cf31:	48 89 85 48 fd ff ff 	mov    %rax,-0x2b8(%rbp)
    cf38:	48 8d 85 b8 e9 ff ff 	lea    -0x1648(%rbp),%rax
    cf3f:	48 89 85 50 fd ff ff 	mov    %rax,-0x2b0(%rbp)
    cf46:	48 c7 85 58 fd ff ff 	movq   $0x0,-0x2a8(%rbp)
    cf4d:	00 00 00 00 
    cf51:	48 8d 85 b8 e9 ff ff 	lea    -0x1648(%rbp),%rax
    cf58:	48 89 85 60 fd ff ff 	mov    %rax,-0x2a0(%rbp)
    cf5f:	48 8d 85 b8 e9 ff ff 	lea    -0x1648(%rbp),%rax
    cf66:	48 89 85 68 fd ff ff 	mov    %rax,-0x298(%rbp)
    cf6d:	48 8d 85 b8 e9 ff ff 	lea    -0x1648(%rbp),%rax
    cf74:	48 89 85 70 fd ff ff 	mov    %rax,-0x290(%rbp)
    cf7b:	48 8d 85 b8 e9 ff ff 	lea    -0x1648(%rbp),%rax
    cf82:	48 89 85 78 fd ff ff 	mov    %rax,-0x288(%rbp)
    cf89:	48 8d 85 b8 e9 ff ff 	lea    -0x1648(%rbp),%rax
    cf90:	48 89 85 80 fd ff ff 	mov    %rax,-0x280(%rbp)
    cf97:	48 8d 85 b8 e9 ff ff 	lea    -0x1648(%rbp),%rax
    cf9e:	48 89 85 88 fd ff ff 	mov    %rax,-0x278(%rbp)
    cfa5:	48 8d 85 b8 e9 ff ff 	lea    -0x1648(%rbp),%rax
    cfac:	48 89 85 90 fd ff ff 	mov    %rax,-0x270(%rbp)
    cfb3:	48 c7 85 98 fd ff ff 	movq   $0x0,-0x268(%rbp)
    cfba:	00 00 00 00 
    cfbe:	48 8d 85 b8 e9 ff ff 	lea    -0x1648(%rbp),%rax
    cfc5:	48 89 85 a0 fd ff ff 	mov    %rax,-0x260(%rbp)
    cfcc:	48 8d 85 b8 e9 ff ff 	lea    -0x1648(%rbp),%rax
    cfd3:	48 89 85 a8 fd ff ff 	mov    %rax,-0x258(%rbp)
    cfda:	48 c7 85 b0 fd ff ff 	movq   $0x0,-0x250(%rbp)
    cfe1:	00 00 00 00 
    cfe5:	48 8d 85 b8 e9 ff ff 	lea    -0x1648(%rbp),%rax
    cfec:	48 89 85 b8 fd ff ff 	mov    %rax,-0x248(%rbp)
    cff3:	48 8d 85 b8 e9 ff ff 	lea    -0x1648(%rbp),%rax
    cffa:	48 89 85 c0 fd ff ff 	mov    %rax,-0x240(%rbp)
    d001:	48 8d 85 b8 e9 ff ff 	lea    -0x1648(%rbp),%rax
    d008:	48 89 85 c8 fd ff ff 	mov    %rax,-0x238(%rbp)
    d00f:	48 8d 85 b8 e9 ff ff 	lea    -0x1648(%rbp),%rax
    d016:	48 89 85 d0 fd ff ff 	mov    %rax,-0x230(%rbp)
    d01d:	48 8d 85 b8 e9 ff ff 	lea    -0x1648(%rbp),%rax
    d024:	48 89 85 d8 fd ff ff 	mov    %rax,-0x228(%rbp)
    d02b:	48 8d 85 b8 e9 ff ff 	lea    -0x1648(%rbp),%rax
    d032:	48 89 85 e0 fd ff ff 	mov    %rax,-0x220(%rbp)
    d039:	48 8d 85 b8 e9 ff ff 	lea    -0x1648(%rbp),%rax
    d040:	48 89 85 e8 fd ff ff 	mov    %rax,-0x218(%rbp)
    d047:	48 8d 85 b8 e9 ff ff 	lea    -0x1648(%rbp),%rax
    d04e:	48 89 85 f0 fd ff ff 	mov    %rax,-0x210(%rbp)
    d055:	48 8d 85 b8 e9 ff ff 	lea    -0x1648(%rbp),%rax
    d05c:	48 89 85 f8 fd ff ff 	mov    %rax,-0x208(%rbp)
    d063:	48 8d 85 b8 e9 ff ff 	lea    -0x1648(%rbp),%rax
    d06a:	48 89 85 00 fe ff ff 	mov    %rax,-0x200(%rbp)
    d071:	48 8d 85 b8 e9 ff ff 	lea    -0x1648(%rbp),%rax
    d078:	48 89 85 08 fe ff ff 	mov    %rax,-0x1f8(%rbp)
    d07f:	48 8d 85 b8 e9 ff ff 	lea    -0x1648(%rbp),%rax
    d086:	48 89 85 10 fe ff ff 	mov    %rax,-0x1f0(%rbp)
    d08d:	48 8d 85 b8 e9 ff ff 	lea    -0x1648(%rbp),%rax
    d094:	48 89 85 18 fe ff ff 	mov    %rax,-0x1e8(%rbp)
    d09b:	48 c7 85 20 fe ff ff 	movq   $0x0,-0x1e0(%rbp)
    d0a2:	00 00 00 00 
    d0a6:	48 8d 85 b8 e9 ff ff 	lea    -0x1648(%rbp),%rax
    d0ad:	48 89 85 28 fe ff ff 	mov    %rax,-0x1d8(%rbp)
    d0b4:	48 8d 85 b8 e9 ff ff 	lea    -0x1648(%rbp),%rax
    d0bb:	48 89 85 30 fe ff ff 	mov    %rax,-0x1d0(%rbp)
    d0c2:	48 8d 85 b8 e9 ff ff 	lea    -0x1648(%rbp),%rax
    d0c9:	48 89 85 38 fe ff ff 	mov    %rax,-0x1c8(%rbp)
    d0d0:	48 8d 85 b8 e9 ff ff 	lea    -0x1648(%rbp),%rax
    d0d7:	48 89 85 40 fe ff ff 	mov    %rax,-0x1c0(%rbp)
    d0de:	48 c7 85 48 fe ff ff 	movq   $0x0,-0x1b8(%rbp)
    d0e5:	00 00 00 00 
    d0e9:	48 8d 85 b8 e9 ff ff 	lea    -0x1648(%rbp),%rax
    d0f0:	48 89 85 50 fe ff ff 	mov    %rax,-0x1b0(%rbp)
    d0f7:	48 8d 85 b8 e9 ff ff 	lea    -0x1648(%rbp),%rax
    d0fe:	48 89 85 58 fe ff ff 	mov    %rax,-0x1a8(%rbp)
    d105:	48 8d 85 b8 e9 ff ff 	lea    -0x1648(%rbp),%rax
    d10c:	48 89 85 60 fe ff ff 	mov    %rax,-0x1a0(%rbp)
    d113:	48 c7 85 68 fe ff ff 	movq   $0x0,-0x198(%rbp)
    d11a:	00 00 00 00 
    d11e:	48 8d 85 b8 e9 ff ff 	lea    -0x1648(%rbp),%rax
    d125:	48 89 85 70 fe ff ff 	mov    %rax,-0x190(%rbp)
    d12c:	48 8d 85 b8 e9 ff ff 	lea    -0x1648(%rbp),%rax
    d133:	48 89 85 78 fe ff ff 	mov    %rax,-0x188(%rbp)
    d13a:	48 8d 85 b8 e9 ff ff 	lea    -0x1648(%rbp),%rax
    d141:	48 89 85 80 fe ff ff 	mov    %rax,-0x180(%rbp)
    d148:	48 8d 85 b8 e9 ff ff 	lea    -0x1648(%rbp),%rax
    d14f:	48 89 85 88 fe ff ff 	mov    %rax,-0x178(%rbp)
    d156:	48 8d 85 b8 e9 ff ff 	lea    -0x1648(%rbp),%rax
    d15d:	48 89 85 90 fe ff ff 	mov    %rax,-0x170(%rbp)
    d164:	48 c7 85 98 fe ff ff 	movq   $0x0,-0x168(%rbp)
    d16b:	00 00 00 00 
    d16f:	48 8d 85 b8 e9 ff ff 	lea    -0x1648(%rbp),%rax
    d176:	48 89 85 a0 fe ff ff 	mov    %rax,-0x160(%rbp)
    d17d:	48 8d 85 b8 e9 ff ff 	lea    -0x1648(%rbp),%rax
    d184:	48 89 85 a8 fe ff ff 	mov    %rax,-0x158(%rbp)
    d18b:	48 8d 85 b8 e9 ff ff 	lea    -0x1648(%rbp),%rax
    d192:	48 89 85 b0 fe ff ff 	mov    %rax,-0x150(%rbp)
    d199:	48 8d 85 b8 e9 ff ff 	lea    -0x1648(%rbp),%rax
    d1a0:	48 89 85 b8 fe ff ff 	mov    %rax,-0x148(%rbp)
    d1a7:	48 8d 85 b8 e9 ff ff 	lea    -0x1648(%rbp),%rax
    d1ae:	48 89 85 c0 fe ff ff 	mov    %rax,-0x140(%rbp)
    d1b5:	48 8d 85 b8 e9 ff ff 	lea    -0x1648(%rbp),%rax
    d1bc:	48 89 85 c8 fe ff ff 	mov    %rax,-0x138(%rbp)
    d1c3:	48 8d 85 b8 e9 ff ff 	lea    -0x1648(%rbp),%rax
    d1ca:	48 89 85 d0 fe ff ff 	mov    %rax,-0x130(%rbp)
    d1d1:	48 8d 85 b8 e9 ff ff 	lea    -0x1648(%rbp),%rax
    d1d8:	48 89 85 d8 fe ff ff 	mov    %rax,-0x128(%rbp)
    d1df:	48 8d 85 b8 e9 ff ff 	lea    -0x1648(%rbp),%rax
    d1e6:	48 89 85 e0 fe ff ff 	mov    %rax,-0x120(%rbp)
    d1ed:	48 8d 85 b8 e9 ff ff 	lea    -0x1648(%rbp),%rax
    d1f4:	48 89 85 e8 fe ff ff 	mov    %rax,-0x118(%rbp)
    d1fb:	48 8d 85 b8 e9 ff ff 	lea    -0x1648(%rbp),%rax
    d202:	48 89 85 f0 fe ff ff 	mov    %rax,-0x110(%rbp)
    d209:	48 8d 85 b8 e9 ff ff 	lea    -0x1648(%rbp),%rax
    d210:	48 89 85 f8 fe ff ff 	mov    %rax,-0x108(%rbp)
    d217:	48 8d 85 b8 e9 ff ff 	lea    -0x1648(%rbp),%rax
    d21e:	48 89 85 00 ff ff ff 	mov    %rax,-0x100(%rbp)
    d225:	48 c7 85 08 ff ff ff 	movq   $0x0,-0xf8(%rbp)
    d22c:	00 00 00 00 
    d230:	48 c7 85 10 ff ff ff 	movq   $0x0,-0xf0(%rbp)
    d237:	00 00 00 00 
    d23b:	48 c7 85 18 ff ff ff 	movq   $0x0,-0xe8(%rbp)
    d242:	00 00 00 00 
    d246:	48 8d 85 b8 e9 ff ff 	lea    -0x1648(%rbp),%rax
    d24d:	48 89 85 20 ff ff ff 	mov    %rax,-0xe0(%rbp)
    d254:	48 8d 85 b8 e9 ff ff 	lea    -0x1648(%rbp),%rax
    d25b:	48 89 85 28 ff ff ff 	mov    %rax,-0xd8(%rbp)
    d262:	48 c7 85 30 ff ff ff 	movq   $0x0,-0xd0(%rbp)
    d269:	00 00 00 00 
    d26d:	48 c7 85 38 ff ff ff 	movq   $0x0,-0xc8(%rbp)
    d274:	00 00 00 00 
    d278:	48 8d 85 b8 e9 ff ff 	lea    -0x1648(%rbp),%rax
    d27f:	48 89 85 40 ff ff ff 	mov    %rax,-0xc0(%rbp)
    d286:	48 8d 85 b8 e9 ff ff 	lea    -0x1648(%rbp),%rax
    d28d:	48 89 85 48 ff ff ff 	mov    %rax,-0xb8(%rbp)
    d294:	48 8d 85 b8 e9 ff ff 	lea    -0x1648(%rbp),%rax
    d29b:	48 89 85 50 ff ff ff 	mov    %rax,-0xb0(%rbp)
    d2a2:	48 8d 85 b8 e9 ff ff 	lea    -0x1648(%rbp),%rax
    d2a9:	48 89 85 58 ff ff ff 	mov    %rax,-0xa8(%rbp)
    d2b0:	48 8d 85 b8 e9 ff ff 	lea    -0x1648(%rbp),%rax
    d2b7:	48 89 85 60 ff ff ff 	mov    %rax,-0xa0(%rbp)
    d2be:	48 8d 85 b8 e9 ff ff 	lea    -0x1648(%rbp),%rax
    d2c5:	48 89 85 68 ff ff ff 	mov    %rax,-0x98(%rbp)
    d2cc:	48 8d 85 b8 e9 ff ff 	lea    -0x1648(%rbp),%rax
    d2d3:	48 89 85 70 ff ff ff 	mov    %rax,-0x90(%rbp)
    d2da:	48 8d 85 b8 e9 ff ff 	lea    -0x1648(%rbp),%rax
    d2e1:	48 89 85 78 ff ff ff 	mov    %rax,-0x88(%rbp)
    d2e8:	48 8d 85 b8 e9 ff ff 	lea    -0x1648(%rbp),%rax
    d2ef:	48 89 45 80          	mov    %rax,-0x80(%rbp)
    d2f3:	48 8d 85 b8 e9 ff ff 	lea    -0x1648(%rbp),%rax
    d2fa:	48 89 45 88          	mov    %rax,-0x78(%rbp)
    d2fe:	48 8d 85 b8 e9 ff ff 	lea    -0x1648(%rbp),%rax
    d305:	48 89 45 90          	mov    %rax,-0x70(%rbp)
    d309:	48 c7 45 98 00 00 00 	movq   $0x0,-0x68(%rbp)
    d310:	00 
    d311:	48 8d 85 b8 e9 ff ff 	lea    -0x1648(%rbp),%rax
    d318:	48 89 45 a0          	mov    %rax,-0x60(%rbp)
    d31c:	48 c7 45 a8 00 00 00 	movq   $0x0,-0x58(%rbp)
    d323:	00 
    d324:	48 8d 85 b8 e9 ff ff 	lea    -0x1648(%rbp),%rax
    d32b:	48 89 45 b0          	mov    %rax,-0x50(%rbp)
    d32f:	48 8d 85 b8 e9 ff ff 	lea    -0x1648(%rbp),%rax
    d336:	48 89 45 b8          	mov    %rax,-0x48(%rbp)
    d33a:	48 8d 05 ef f1 00 00 	lea    0xf1ef(%rip),%rax        # 1c530 <g_921>
    d341:	48 89 85 b0 ea ff ff 	mov    %rax,-0x1550(%rbp)
    d348:	c7 85 b4 e8 ff ff c2 	movl   $0xb6e1cac2,-0x174c(%rbp)
    d34f:	ca e1 b6 
    d352:	48 8d 05 d7 bc 00 00 	lea    0xbcd7(%rip),%rax        # 19030 <g_15>
    d359:	48 89 85 b8 ea ff ff 	mov    %rax,-0x1548(%rbp)
    d360:	c7 85 b8 e8 ff ff 06 	movl   $0x6,-0x1748(%rbp)
    d367:	00 00 00 
    d36a:	c7 85 cc e8 ff ff f9 	movl   $0xfffffff9,-0x1734(%rbp)
    d371:	ff ff ff 
    d374:	c7 85 d0 e8 ff ff f9 	movl   $0xfffffff9,-0x1730(%rbp)
    d37b:	ff ff ff 
    d37e:	c7 85 d4 e8 ff ff f6 	movl   $0xfffffff6,-0x172c(%rbp)
    d385:	ff ff ff 
    d388:	c7 85 d8 e8 ff ff 08 	movl   $0x8,-0x1728(%rbp)
    d38f:	00 00 00 
    d392:	c7 85 bc e8 ff ff 00 	movl   $0x0,-0x1744(%rbp)
    d399:	00 00 00 
    d39c:	c7 85 dc e8 ff ff c9 	movl   $0x147770c9,-0x1724(%rbp)
    d3a3:	70 77 14 
    d3a6:	c7 85 e0 e8 ff ff c5 	movl   $0x2b4dc5c5,-0x1720(%rbp)
    d3ad:	c5 4d 2b 
    d3b0:	c7 85 e4 e8 ff ff bf 	movl   $0xe3ce53bf,-0x171c(%rbp)
    d3b7:	53 ce e3 
    d3ba:	48 8d 05 9f c8 00 00 	lea    0xc89f(%rip),%rax        # 19c60 <g_1033>
    d3c1:	48 89 85 c0 e9 ff ff 	mov    %rax,-0x1640(%rbp)
    d3c8:	48 8d 85 c0 e9 ff ff 	lea    -0x1640(%rbp),%rax
    d3cf:	48 89 85 c8 e9 ff ff 	mov    %rax,-0x1638(%rbp)
    d3d6:	48 8d 85 c8 e9 ff ff 	lea    -0x1638(%rbp),%rax
    d3dd:	48 89 85 c0 ea ff ff 	mov    %rax,-0x1540(%rbp)
    d3e4:	c7 45 c2 02 8b 02 ff 	movl   $0xff028b02,-0x3e(%rbp)
    d3eb:	66 c7 45 c6 02 ff    	movw   $0xff02,-0x3a(%rbp)
    d3f1:	c6 85 5c e8 ff ff 4e 	movb   $0x4e,-0x17a4(%rbp)
    d3f8:	48 c7 85 c8 ea ff ff 	movq   $0x0,-0x1538(%rbp)
    d3ff:	00 00 00 00 
    d403:	c7 85 e8 e8 ff ff fc 	movl   $0xfffffffc,-0x1718(%rbp)
    d40a:	ff ff ff 
    d40d:	48 8d 05 bc ea 00 00 	lea    0xeabc(%rip),%rax        # 1bed0 <g_665>
    d414:	48 89 85 d0 ea ff ff 	mov    %rax,-0x1530(%rbp)
    d41b:	48 b8 5a f8 d3 6e a0 	movabs $0x335291a06ed3f85a,%rax
    d422:	91 52 33 
    d425:	48 89 85 d8 ea ff ff 	mov    %rax,-0x1528(%rbp)
    d42c:	c7 85 ec e8 ff ff 04 	movl   $0x41034104,-0x1714(%rbp)
    d433:	41 03 41 
    d436:	c7 85 f0 e8 ff ff 7c 	movl   $0x2187547c,-0x1710(%rbp)
    d43d:	54 87 21 
    d440:	48 c7 85 e0 ea ff ff 	movq   $0x0,-0x1520(%rbp)
    d447:	00 00 00 00 
    d44b:	c7 85 f4 e8 ff ff 04 	movl   $0x4,-0x170c(%rbp)
    d452:	00 00 00 
    d455:	48 c7 85 e8 ea ff ff 	movq   $0x0,-0x1518(%rbp)
    d45c:	00 00 00 00 
    d460:	48 8d 85 70 e9 ff ff 	lea    -0x1690(%rbp),%rax
    d467:	48 89 85 d0 e9 ff ff 	mov    %rax,-0x1630(%rbp)
    d46e:	48 8d 85 d0 e9 ff ff 	lea    -0x1630(%rbp),%rax
    d475:	48 89 85 f0 ea ff ff 	mov    %rax,-0x1510(%rbp)
    d47c:	c7 85 f8 e8 ff ff 03 	movl   $0x3,-0x1708(%rbp)
    d483:	00 00 00 
    d486:	c7 85 8c e8 ff ff 00 	movl   $0x0,-0x1774(%rbp)
    d48d:	00 00 00 
    d490:	eb 1b                	jmp    d4ad <func_23+0x29a8>
    d492:	8b 85 8c e8 ff ff    	mov    -0x1774(%rbp),%eax
    d498:	48 98                	cltq   
    d49a:	48 c7 84 c5 60 ec ff 	movq   $0x0,-0x13a0(%rbp,%rax,8)
    d4a1:	ff 00 00 00 00 
    d4a6:	83 85 8c e8 ff ff 01 	addl   $0x1,-0x1774(%rbp)
    d4ad:	83 bd 8c e8 ff ff 02 	cmpl   $0x2,-0x1774(%rbp)
    d4b4:	7e dc                	jle    d492 <func_23+0x298d>
    d4b6:	c7 85 8c e8 ff ff 00 	movl   $0x0,-0x1774(%rbp)
    d4bd:	00 00 00 
    d4c0:	eb 1a                	jmp    d4dc <func_23+0x29d7>
    d4c2:	8b 85 8c e8 ff ff    	mov    -0x1774(%rbp),%eax
    d4c8:	48 98                	cltq   
    d4ca:	c7 84 85 40 ec ff ff 	movl   $0x8,-0x13c0(%rbp,%rax,4)
    d4d1:	08 00 00 00 
    d4d5:	83 85 8c e8 ff ff 01 	addl   $0x1,-0x1774(%rbp)
    d4dc:	83 bd 8c e8 ff ff 04 	cmpl   $0x4,-0x1774(%rbp)
    d4e3:	7e dd                	jle    d4c2 <func_23+0x29bd>
    d4e5:	c7 85 8c e8 ff ff 00 	movl   $0x0,-0x1774(%rbp)
    d4ec:	00 00 00 
    d4ef:	eb 1e                	jmp    d50f <func_23+0x2a0a>
    d4f1:	8b 85 8c e8 ff ff    	mov    -0x1774(%rbp),%eax
    d4f7:	48 98                	cltq   
    d4f9:	48 8d 15 28 c6 00 00 	lea    0xc628(%rip),%rdx        # 19b28 <g_673+0x88>
    d500:	48 89 94 c5 00 ed ff 	mov    %rdx,-0x1300(%rbp,%rax,8)
    d507:	ff 
    d508:	83 85 8c e8 ff ff 01 	addl   $0x1,-0x1774(%rbp)
    d50f:	83 bd 8c e8 ff ff 06 	cmpl   $0x6,-0x1774(%rbp)
    d516:	7e d9                	jle    d4f1 <func_23+0x29ec>
    d518:	48 8b 05 19 c5 00 00 	mov    0xc519(%rip),%rax        # 19a38 <g_331+0x58>
    d51f:	c1 e0 05             	shl    $0x5,%eax
    d522:	c1 f8 05             	sar    $0x5,%eax
    d525:	0f be d0             	movsbl %al,%edx
    d528:	0f b6 85 4c e8 ff ff 	movzbl -0x17b4(%rbp),%eax
    d52f:	0f be c0             	movsbl %al,%eax
    d532:	89 d6                	mov    %edx,%esi
    d534:	89 c7                	mov    %eax,%edi
    d536:	e8 2f ad ff ff       	callq  826a <safe_div_func_int8_t_s_s>
    d53b:	8b 85 68 e8 ff ff    	mov    -0x1798(%rbp),%eax
    d541:	0f b7 d8             	movzwl %ax,%ebx
    d544:	44 0f bf a5 48 e8 ff 	movswl -0x17b8(%rbp),%r12d
    d54b:	ff 
    d54c:	48 8d 05 6d c4 00 00 	lea    0xc46d(%rip),%rax        # 199c0 <g_259>
    d553:	0f b6 95 4c e8 ff ff 	movzbl -0x17b4(%rbp),%edx
    d55a:	48 89 10             	mov    %rdx,(%rax)
    d55d:	48 8b 00             	mov    (%rax),%rax
    d560:	48 ba 7b b0 e3 95 8c 	movabs $0x762eb48c95e3b07b,%rdx
    d567:	b4 2e 76 
    d56a:	48 39 d0             	cmp    %rdx,%rax
    d56d:	0f 9e c0             	setle  %al
    d570:	0f b6 d0             	movzbl %al,%edx
    d573:	48 8b 85 80 ec ff ff 	mov    -0x1380(%rbp),%rax
    d57a:	48 39 c2             	cmp    %rax,%rdx
    d57d:	0f 93 c0             	setae  %al
    d580:	0f b6 d0             	movzbl %al,%edx
    d583:	8b 85 84 ed ff ff    	mov    -0x127c(%rbp),%eax
    d589:	39 c2                	cmp    %eax,%edx
    d58b:	0f 95 c0             	setne  %al
    d58e:	0f b6 c0             	movzbl %al,%eax
    d591:	be 07 00 00 00       	mov    $0x7,%esi
    d596:	89 c7                	mov    %eax,%edi
    d598:	e8 f0 b6 ff ff       	callq  8c8d <safe_rshift_func_uint8_t_u_s>
    d59d:	0f b6 d0             	movzbl %al,%edx
    d5a0:	8b 85 b4 e8 ff ff    	mov    -0x174c(%rbp),%eax
    d5a6:	89 d6                	mov    %edx,%esi
    d5a8:	89 c7                	mov    %eax,%edi
    d5aa:	e8 1d b1 ff ff       	callq  86cc <safe_mod_func_int32_t_s_s>
    d5af:	41 39 c4             	cmp    %eax,%r12d
    d5b2:	74 07                	je     d5bb <func_23+0x2ab6>
    d5b4:	b8 09 00 00 00       	mov    $0x9,%eax
    d5b9:	eb 05                	jmp    d5c0 <func_23+0x2abb>
    d5bb:	b8 08 00 00 00       	mov    $0x8,%eax
    d5c0:	89 de                	mov    %ebx,%esi
    d5c2:	89 c7                	mov    %eax,%edi
    d5c4:	e8 93 b7 ff ff       	callq  8d5c <safe_mod_func_uint16_t_u_u>
    d5c9:	48 8b 15 60 ef 00 00 	mov    0xef60(%rip),%rdx        # 1c530 <g_921>
    d5d0:	48 8b 85 b0 ea ff ff 	mov    -0x1550(%rbp),%rax
    d5d7:	48 89 10             	mov    %rdx,(%rax)
    d5da:	48 8b 85 b0 ea ff ff 	mov    -0x1550(%rbp),%rax
    d5e1:	48 8b 00             	mov    (%rax),%rax
    d5e4:	48 89 85 60 ec ff ff 	mov    %rax,-0x13a0(%rbp)
    d5eb:	c6 05 9e ba 00 00 00 	movb   $0x0,0xba9e(%rip)        # 19090 <g_129>
    d5f2:	48 8d 05 37 ba 00 00 	lea    0xba37(%rip),%rax        # 19030 <g_15>
    d5f9:	48 89 85 f8 ea ff ff 	mov    %rax,-0x1508(%rbp)
    d600:	48 8d 85 68 e9 ff ff 	lea    -0x1698(%rbp),%rax
    d607:	48 89 85 00 eb ff ff 	mov    %rax,-0x1500(%rbp)
    d60e:	c7 85 80 f4 ff ff c0 	movl   $0x1c007ec0,-0xb80(%rbp)
    d615:	7e 00 1c 
    d618:	c7 85 84 f4 ff ff 00 	movl   $0x0,-0xb7c(%rbp)
    d61f:	00 00 00 
    d622:	c7 85 88 f4 ff ff c0 	movl   $0x1c007ec0,-0xb78(%rbp)
    d629:	7e 00 1c 
    d62c:	c7 85 8c f4 ff ff 00 	movl   $0x0,-0xb74(%rbp)
    d633:	00 00 00 
    d636:	c7 85 90 f4 ff ff c0 	movl   $0x1c007ec0,-0xb70(%rbp)
    d63d:	7e 00 1c 
    d640:	c7 85 94 f4 ff ff 00 	movl   $0x0,-0xb6c(%rbp)
    d647:	00 00 00 
    d64a:	c7 85 98 f4 ff ff c0 	movl   $0x1c007ec0,-0xb68(%rbp)
    d651:	7e 00 1c 
    d654:	c7 85 9c f4 ff ff 00 	movl   $0x0,-0xb64(%rbp)
    d65b:	00 00 00 
    d65e:	48 8d 05 db c3 00 00 	lea    0xc3db(%rip),%rax        # 19a40 <g_381>
    d665:	48 89 85 08 eb ff ff 	mov    %rax,-0x14f8(%rbp)
    d66c:	48 8d 05 de c3 00 00 	lea    0xc3de(%rip),%rax        # 19a51 <g_523>
    d673:	48 89 85 10 eb ff ff 	mov    %rax,-0x14f0(%rbp)
    d67a:	c7 85 90 e8 ff ff 00 	movl   $0x0,-0x1770(%rbp)
    d681:	00 00 00 
    d684:	eb 46                	jmp    d6cc <func_23+0x2bc7>
    d686:	c7 85 94 e8 ff ff 00 	movl   $0x0,-0x176c(%rbp)
    d68d:	00 00 00 
    d690:	eb 2a                	jmp    d6bc <func_23+0x2bb7>
    d692:	8b 85 94 e8 ff ff    	mov    -0x176c(%rbp),%eax
    d698:	48 63 d0             	movslq %eax,%rdx
    d69b:	8b 85 90 e8 ff ff    	mov    -0x1770(%rbp),%eax
    d6a1:	48 98                	cltq   
    d6a3:	48 01 d0             	add    %rdx,%rax
    d6a6:	48 8d 15 a3 b9 00 00 	lea    0xb9a3(%rip),%rdx        # 19050 <g_38+0x10>
    d6ad:	48 89 94 c5 90 ee ff 	mov    %rdx,-0x1170(%rbp,%rax,8)
    d6b4:	ff 
    d6b5:	83 85 94 e8 ff ff 01 	addl   $0x1,-0x176c(%rbp)
    d6bc:	83 bd 94 e8 ff ff 00 	cmpl   $0x0,-0x176c(%rbp)
    d6c3:	7e cd                	jle    d692 <func_23+0x2b8d>
    d6c5:	83 85 90 e8 ff ff 01 	addl   $0x1,-0x1770(%rbp)
    d6cc:	83 bd 90 e8 ff ff 00 	cmpl   $0x0,-0x1770(%rbp)
    d6d3:	7e b1                	jle    d686 <func_23+0x2b81>
    d6d5:	48 8b 85 00 eb ff ff 	mov    -0x1500(%rbp),%rax
    d6dc:	48 8b 95 f8 ea ff ff 	mov    -0x1508(%rbp),%rdx
    d6e3:	48 89 10             	mov    %rdx,(%rax)
    d6e6:	48 8b 05 d3 e7 00 00 	mov    0xe7d3(%rip),%rax        # 1bec0 <g_437>
    d6ed:	48 8b 10             	mov    (%rax),%rdx
    d6f0:	48 83 c2 01          	add    $0x1,%rdx
    d6f4:	48 89 10             	mov    %rdx,(%rax)
    d6f7:	4c 8b 20             	mov    (%rax),%r12
    d6fa:	8b 05 74 c3 00 00    	mov    0xc374(%rip),%eax        # 19a74 <g_587+0x4>
    d700:	c1 e0 04             	shl    $0x4,%eax
    d703:	c1 f8 04             	sar    $0x4,%eax
    d706:	0f b6 d8             	movzbl %al,%ebx
    d709:	48 8b 05 50 c3 00 00 	mov    0xc350(%rip),%rax        # 19a60 <g_530>
    d710:	c1 e0 03             	shl    $0x3,%eax
    d713:	c0 f8 03             	sar    $0x3,%al
    d716:	66 98                	cbtw   
    d718:	0f b7 c0             	movzwl %ax,%eax
    d71b:	89 c6                	mov    %eax,%esi
    d71d:	bf 01 00 00 00       	mov    $0x1,%edi
    d722:	e8 35 b6 ff ff       	callq  8d5c <safe_mod_func_uint16_t_u_u>
    d727:	0f b7 05 64 b9 00 00 	movzwl 0xb964(%rip),%eax        # 19092 <g_139>
    d72e:	0f b6 c0             	movzbl %al,%eax
    d731:	89 c6                	mov    %eax,%esi
    d733:	bf 18 00 00 00       	mov    $0x18,%edi
    d738:	e8 56 b4 ff ff       	callq  8b93 <safe_mul_func_uint8_t_u_u>
    d73d:	89 c1                	mov    %eax,%ecx
    d73f:	8b 85 94 f4 ff ff    	mov    -0xb6c(%rbp),%eax
    d745:	89 c2                	mov    %eax,%edx
    d747:	48 8b 85 58 e9 ff ff 	mov    -0x16a8(%rbp),%rax
    d74e:	09 ca                	or     %ecx,%edx
    d750:	88 10                	mov    %dl,(%rax)
    d752:	0f b6 00             	movzbl (%rax),%eax
    d755:	84 c0                	test   %al,%al
    d757:	75 12                	jne    d76b <func_23+0x2c66>
    d759:	48 8b 05 00 c3 00 00 	mov    0xc300(%rip),%rax        # 19a60 <g_530>
    d760:	c1 e0 05             	shl    $0x5,%eax
    d763:	c1 f8 10             	sar    $0x10,%eax
    d766:	66 85 c0             	test   %ax,%ax
    d769:	74 07                	je     d772 <func_23+0x2c6d>
    d76b:	b8 01 00 00 00       	mov    $0x1,%eax
    d770:	eb 05                	jmp    d777 <func_23+0x2c72>
    d772:	b8 00 00 00 00       	mov    $0x0,%eax
    d777:	48 63 d0             	movslq %eax,%rdx
    d77a:	48 8d 05 3f c2 00 00 	lea    0xc23f(%rip),%rax        # 199c0 <g_259>
    d781:	48 8b 00             	mov    (%rax),%rax
    d784:	48 39 c2             	cmp    %rax,%rdx
    d787:	0f 9c c2             	setl   %dl
    d78a:	48 8b 85 28 ea ff ff 	mov    -0x15d8(%rbp),%rax
    d791:	48 8b 00             	mov    (%rax),%rax
    d794:	88 10                	mov    %dl,(%rax)
    d796:	0f b6 00             	movzbl (%rax),%eax
    d799:	0f b6 c0             	movzbl %al,%eax
    d79c:	89 de                	mov    %ebx,%esi
    d79e:	89 c7                	mov    %eax,%edi
    d7a0:	e8 d3 b3 ff ff       	callq  8b78 <safe_sub_func_uint8_t_u_u>
    d7a5:	8b 95 94 f4 ff ff    	mov    -0xb6c(%rbp),%edx
    d7ab:	8b 85 e0 ed ff ff    	mov    -0x1220(%rbp),%eax
    d7b1:	39 85 b4 e8 ff ff    	cmp    %eax,-0x174c(%rbp)
    d7b7:	0f 95 c0             	setne  %al
    d7ba:	0f b6 c0             	movzbl %al,%eax
    d7bd:	39 c2                	cmp    %eax,%edx
    d7bf:	0f 9c c0             	setl   %al
    d7c2:	0f b6 d0             	movzbl %al,%edx
    d7c5:	48 8b 85 68 e9 ff ff 	mov    -0x1698(%rbp),%rax
    d7cc:	48 39 85 b8 ea ff ff 	cmp    %rax,-0x1548(%rbp)
    d7d3:	0f 95 c0             	setne  %al
    d7d6:	0f b6 c0             	movzbl %al,%eax
    d7d9:	39 c2                	cmp    %eax,%edx
    d7db:	0f 9d c0             	setge  %al
    d7de:	0f b6 d0             	movzbl %al,%edx
    d7e1:	48 8b 85 08 eb ff ff 	mov    -0x14f8(%rbp),%rax
    d7e8:	8b 00                	mov    (%rax),%eax
    d7ea:	31 c2                	xor    %eax,%edx
    d7ec:	48 8b 85 08 eb ff ff 	mov    -0x14f8(%rbp),%rax
    d7f3:	89 10                	mov    %edx,(%rax)
    d7f5:	48 8b 85 08 eb ff ff 	mov    -0x14f8(%rbp),%rax
    d7fc:	8b 00                	mov    (%rax),%eax
    d7fe:	32 85 4c e8 ff ff    	xor    -0x17b4(%rbp),%al
    d804:	0f b6 c0             	movzbl %al,%eax
    d807:	89 c6                	mov    %eax,%esi
    d809:	bf 01 00 00 00       	mov    $0x1,%edi
    d80e:	e8 9b b3 ff ff       	callq  8bae <safe_mod_func_uint8_t_u_u>
    d813:	0f b7 15 26 c4 00 00 	movzwl 0xc426(%rip),%edx        # 19c40 <g_958+0x10>
    d81a:	0f b6 c0             	movzbl %al,%eax
    d81d:	09 d0                	or     %edx,%eax
    d81f:	66 89 05 1a c4 00 00 	mov    %ax,0xc41a(%rip)        # 19c40 <g_958+0x10>
    d826:	0f b7 05 13 c4 00 00 	movzwl 0xc413(%rip),%eax        # 19c40 <g_958+0x10>
    d82d:	89 c2                	mov    %eax,%edx
    d82f:	48 8b 85 10 eb ff ff 	mov    -0x14f0(%rbp),%rax
    d836:	88 10                	mov    %dl,(%rax)
    d838:	48 8b 85 10 eb ff ff 	mov    -0x14f0(%rbp),%rax
    d83f:	0f b6 00             	movzbl (%rax),%eax
    d842:	0f be d0             	movsbl %al,%edx
    d845:	8b 05 29 c2 00 00    	mov    0xc229(%rip),%eax        # 19a74 <g_587+0x4>
    d84b:	c1 e0 04             	shl    $0x4,%eax
    d84e:	c1 f8 04             	sar    $0x4,%eax
    d851:	31 c2                	xor    %eax,%edx
    d853:	0f b7 05 80 c3 00 00 	movzwl 0xc380(%rip),%eax        # 19bda <g_675+0x3a>
    d85a:	21 d0                	and    %edx,%eax
    d85c:	66 89 05 77 c3 00 00 	mov    %ax,0xc377(%rip)        # 19bda <g_675+0x3a>
    d863:	0f b7 15 70 c3 00 00 	movzwl 0xc370(%rip),%edx        # 19bda <g_675+0x3a>
    d86a:	0f b7 05 57 c1 00 00 	movzwl 0xc157(%rip),%eax        # 199c8 <g_262>
    d871:	09 d0                	or     %edx,%eax
    d873:	66 89 05 4e c1 00 00 	mov    %ax,0xc14e(%rip)        # 199c8 <g_262>
    d87a:	0f b7 05 47 c1 00 00 	movzwl 0xc147(%rip),%eax        # 199c8 <g_262>
    d881:	0f b7 d8             	movzwl %ax,%ebx
    d884:	48 8b 85 38 ea ff ff 	mov    -0x15c8(%rbp),%rax
    d88b:	0f b7 00             	movzwl (%rax),%eax
    d88e:	8d 50 01             	lea    0x1(%rax),%edx
    d891:	48 8b 85 38 ea ff ff 	mov    -0x15c8(%rbp),%rax
    d898:	66 89 10             	mov    %dx,(%rax)
    d89b:	48 8b 85 38 ea ff ff 	mov    -0x15c8(%rbp),%rax
    d8a2:	0f b7 00             	movzwl (%rax),%eax
    d8a5:	0f b7 c0             	movzwl %ax,%eax
    d8a8:	be 03 00 00 00       	mov    $0x3,%esi
    d8ad:	89 c7                	mov    %eax,%edi
    d8af:	e8 c6 b5 ff ff       	callq  8e7a <safe_rshift_func_uint16_t_u_u>
    d8b4:	0f b7 c0             	movzwl %ax,%eax
    d8b7:	89 de                	mov    %ebx,%esi
    d8b9:	89 c7                	mov    %eax,%edi
    d8bb:	e8 7d b4 ff ff       	callq  8d3d <safe_mul_func_uint16_t_u_u>
    d8c0:	0f be c0             	movsbl %al,%eax
    d8c3:	89 c7                	mov    %eax,%edi
    d8c5:	e8 f5 a8 ff ff       	callq  81bf <safe_unary_minus_func_int8_t_s>
    d8ca:	48 8b 85 80 e9 ff ff 	mov    -0x1680(%rbp),%rax
    d8d1:	4c 09 e0             	or     %r12,%rax
    d8d4:	48 89 85 80 e9 ff ff 	mov    %rax,-0x1680(%rbp)
    d8db:	48 8b 85 80 e9 ff ff 	mov    -0x1680(%rbp),%rax
    d8e2:	48 85 c0             	test   %rax,%rax
    d8e5:	0f 9e c0             	setle  %al
    d8e8:	0f b6 d0             	movzbl %al,%edx
    d8eb:	48 8b 85 38 e8 ff ff 	mov    -0x17c8(%rbp),%rax
    d8f2:	89 10                	mov    %edx,(%rax)
    d8f4:	8b 85 70 e8 ff ff    	mov    -0x1790(%rbp),%eax
    d8fa:	83 c0 01             	add    $0x1,%eax
    d8fd:	89 85 70 e8 ff ff    	mov    %eax,-0x1790(%rbp)
    d903:	48 8b 05 56 c1 00 00 	mov    0xc156(%rip),%rax        # 19a60 <g_530>
    d90a:	48 8b 05 27 ec 00 00 	mov    0xec27(%rip),%rax        # 1c538 <g_1003>
    d911:	be ff 00 00 00       	mov    $0xff,%esi
    d916:	bf 01 00 00 00       	mov    $0x1,%edi
    d91b:	e8 8e b2 ff ff       	callq  8bae <safe_mod_func_uint8_t_u_u>
    d920:	0f b6 c0             	movzbl %al,%eax
    d923:	89 85 6c e8 ff ff    	mov    %eax,-0x1794(%rbp)
    d929:	8b 85 6c e8 ff ff    	mov    -0x1794(%rbp),%eax
    d92f:	48 63 d0             	movslq %eax,%rdx
    d932:	48 8b 85 20 ea ff ff 	mov    -0x15e0(%rbp),%rax
    d939:	48 89 d6             	mov    %rdx,%rsi
    d93c:	48 89 c7             	mov    %rax,%rdi
    d93f:	e8 6b b7 ff ff       	callq  90af <safe_div_func_uint64_t_u_u>
    d944:	48 8b 15 8d c0 00 00 	mov    0xc08d(%rip),%rdx        # 199d8 <g_294+0x8>
    d94b:	48 21 c2             	and    %rax,%rdx
    d94e:	48 8b 05 6b e5 00 00 	mov    0xe56b(%rip),%rax        # 1bec0 <g_437>
    d955:	48 8b 00             	mov    (%rax),%rax
    d958:	48 39 c2             	cmp    %rax,%rdx
    d95b:	0f 96 c0             	setbe  %al
    d95e:	0f b6 d0             	movzbl %al,%edx
    d961:	48 8b 85 38 ea ff ff 	mov    -0x15c8(%rbp),%rax
    d968:	66 89 10             	mov    %dx,(%rax)
    d96b:	48 8b 85 38 ea ff ff 	mov    -0x15c8(%rbp),%rax
    d972:	0f b7 00             	movzwl (%rax),%eax
    d975:	0f bf d0             	movswl %ax,%edx
    d978:	0f b6 85 4c e8 ff ff 	movzbl -0x17b4(%rbp),%eax
    d97f:	89 d6                	mov    %edx,%esi
    d981:	89 c7                	mov    %eax,%edi
    d983:	e8 4b aa ff ff       	callq  83d3 <safe_sub_func_int16_t_s_s>
    d988:	66 85 c0             	test   %ax,%ax
    d98b:	0f 84 8f 07 00 00    	je     e120 <func_23+0x361b>
    d991:	66 c7 85 64 e8 ff ff 	movw   $0xffff,-0x179c(%rbp)
    d998:	ff ff 
    d99a:	c7 85 00 e9 ff ff fb 	movl   $0xfffffffb,-0x1700(%rbp)
    d9a1:	ff ff ff 
    d9a4:	c7 85 04 e9 ff ff 06 	movl   $0x6,-0x16fc(%rbp)
    d9ab:	00 00 00 
    d9ae:	c7 85 98 e8 ff ff 64 	movl   $0xcf3fce64,-0x1768(%rbp)
    d9b5:	ce 3f cf 
    d9b8:	c7 85 08 e9 ff ff a3 	movl   $0x6f979ba3,-0x16f8(%rbp)
    d9bf:	9b 97 6f 
    d9c2:	c7 85 0c e9 ff ff fe 	movl   $0xfffffffe,-0x16f4(%rbp)
    d9c9:	ff ff ff 
    d9cc:	48 8d 85 80 f4 ff ff 	lea    -0xb80(%rbp),%rax
    d9d3:	48 8d 15 c6 7d 00 00 	lea    0x7dc6(%rip),%rdx        # 157a0 <g_860+0x720>
    d9da:	b9 6c 00 00 00       	mov    $0x6c,%ecx
    d9df:	48 89 c7             	mov    %rax,%rdi
    d9e2:	48 89 d6             	mov    %rdx,%rsi
    d9e5:	f3 48 a5             	rep movsq %ds:(%rsi),%es:(%rdi)
    d9e8:	48 c7 85 38 ec ff ff 	movq   $0x0,-0x13c8(%rbp)
    d9ef:	00 00 00 00 
    d9f3:	48 c7 85 38 eb ff ff 	movq   $0x0,-0x14c8(%rbp)
    d9fa:	00 00 00 00 
    d9fe:	8b 85 b0 e9 ff ff    	mov    -0x1650(%rbp),%eax
    da04:	25 00 00 f8 ff       	and    $0xfff80000,%eax
    da09:	0d a8 ff 07 00       	or     $0x7ffa8,%eax
    da0e:	89 85 b0 e9 ff ff    	mov    %eax,-0x1650(%rbp)
    da14:	0f b7 85 b2 e9 ff ff 	movzwl -0x164e(%rbp),%eax
    da1b:	83 e0 07             	and    $0x7,%eax
    da1e:	66 0d e0 73          	or     $0x73e0,%ax
    da22:	66 89 85 b2 e9 ff ff 	mov    %ax,-0x164e(%rbp)
    da29:	0f b7 85 b4 e9 ff ff 	movzwl -0x164c(%rbp),%eax
    da30:	66 25 00 f8          	and    $0xf800,%ax
    da34:	66 89 85 b4 e9 ff ff 	mov    %ax,-0x164c(%rbp)
    da3b:	48 8d 05 86 e4 00 00 	lea    0xe486(%rip),%rax        # 1bec8 <g_436>
    da42:	48 89 85 40 eb ff ff 	mov    %rax,-0x14c0(%rbp)
    da49:	48 8b 85 78 e9 ff ff 	mov    -0x1688(%rbp),%rax
    da50:	48 39 85 c8 ea ff ff 	cmp    %rax,-0x1538(%rbp)
    da57:	0f 95 c0             	setne  %al
    da5a:	0f b6 c0             	movzbl %al,%eax
    da5d:	89 c7                	mov    %eax,%edi
    da5f:	e8 e1 b0 ff ff       	callq  8b45 <safe_unary_minus_func_uint8_t_u>
    da64:	84 c0                	test   %al,%al
    da66:	0f 84 a8 06 00 00    	je     e114 <func_23+0x360f>
    da6c:	48 c7 85 d8 e9 ff ff 	movq   $0x0,-0x1628(%rbp)
    da73:	00 00 00 00 
    da77:	48 8d 05 1a f8 00 00 	lea    0xf81a(%rip),%rax        # 1d298 <g_220>
    da7e:	48 89 85 48 eb ff ff 	mov    %rax,-0x14b8(%rbp)
    da85:	48 8d 85 00 ed ff ff 	lea    -0x1300(%rbp),%rax
    da8c:	48 83 c0 28          	add    $0x28,%rax
    da90:	48 89 85 50 eb ff ff 	mov    %rax,-0x14b0(%rbp)
    da97:	48 c7 85 90 ee ff ff 	movq   $0x0,-0x1170(%rbp)
    da9e:	00 00 00 00 
    daa2:	48 c7 85 98 ee ff ff 	movq   $0x0,-0x1168(%rbp)
    daa9:	00 00 00 00 
    daad:	48 8d 05 b4 f7 00 00 	lea    0xf7b4(%rip),%rax        # 1d268 <g_11>
    dab4:	48 89 85 a0 ee ff ff 	mov    %rax,-0x1160(%rbp)
    dabb:	48 c7 85 a8 ee ff ff 	movq   $0x0,-0x1158(%rbp)
    dac2:	00 00 00 00 
    dac6:	48 c7 85 b0 ee ff ff 	movq   $0x0,-0x1150(%rbp)
    dacd:	00 00 00 00 
    dad1:	48 8d 05 90 f7 00 00 	lea    0xf790(%rip),%rax        # 1d268 <g_11>
    dad8:	48 89 85 b8 ee ff ff 	mov    %rax,-0x1148(%rbp)
    dadf:	48 c7 85 c0 ee ff ff 	movq   $0x0,-0x1140(%rbp)
    dae6:	00 00 00 00 
    daea:	48 c7 85 c8 ee ff ff 	movq   $0x0,-0x1138(%rbp)
    daf1:	00 00 00 00 
    daf5:	48 8d 05 6c f7 00 00 	lea    0xf76c(%rip),%rax        # 1d268 <g_11>
    dafc:	48 89 85 d0 ee ff ff 	mov    %rax,-0x1130(%rbp)
    db03:	48 c7 85 d8 ee ff ff 	movq   $0x0,-0x1128(%rbp)
    db0a:	00 00 00 00 
    db0e:	48 c7 85 e0 ee ff ff 	movq   $0x0,-0x1120(%rbp)
    db15:	00 00 00 00 
    db19:	48 8d 05 48 f7 00 00 	lea    0xf748(%rip),%rax        # 1d268 <g_11>
    db20:	48 89 85 e8 ee ff ff 	mov    %rax,-0x1118(%rbp)
    db27:	48 8d 05 3a f7 00 00 	lea    0xf73a(%rip),%rax        # 1d268 <g_11>
    db2e:	48 89 85 f0 ee ff ff 	mov    %rax,-0x1110(%rbp)
    db35:	48 c7 85 f8 ee ff ff 	movq   $0x0,-0x1108(%rbp)
    db3c:	00 00 00 00 
    db40:	48 8d 05 21 f7 00 00 	lea    0xf721(%rip),%rax        # 1d268 <g_11>
    db47:	48 89 85 00 ef ff ff 	mov    %rax,-0x1100(%rbp)
    db4e:	48 8d 05 13 f7 00 00 	lea    0xf713(%rip),%rax        # 1d268 <g_11>
    db55:	48 89 85 08 ef ff ff 	mov    %rax,-0x10f8(%rbp)
    db5c:	48 c7 85 10 ef ff ff 	movq   $0x0,-0x10f0(%rbp)
    db63:	00 00 00 00 
    db67:	48 8d 05 fa f6 00 00 	lea    0xf6fa(%rip),%rax        # 1d268 <g_11>
    db6e:	48 89 85 18 ef ff ff 	mov    %rax,-0x10e8(%rbp)
    db75:	48 8d 05 ec f6 00 00 	lea    0xf6ec(%rip),%rax        # 1d268 <g_11>
    db7c:	48 89 85 20 ef ff ff 	mov    %rax,-0x10e0(%rbp)
    db83:	48 c7 85 28 ef ff ff 	movq   $0x0,-0x10d8(%rbp)
    db8a:	00 00 00 00 
    db8e:	48 8d 05 d3 f6 00 00 	lea    0xf6d3(%rip),%rax        # 1d268 <g_11>
    db95:	48 89 85 30 ef ff ff 	mov    %rax,-0x10d0(%rbp)
    db9c:	48 c7 85 38 ef ff ff 	movq   $0x0,-0x10c8(%rbp)
    dba3:	00 00 00 00 
    dba7:	48 8d 05 ba f6 00 00 	lea    0xf6ba(%rip),%rax        # 1d268 <g_11>
    dbae:	48 89 85 40 ef ff ff 	mov    %rax,-0x10c0(%rbp)
    dbb5:	48 8d 05 ac f6 00 00 	lea    0xf6ac(%rip),%rax        # 1d268 <g_11>
    dbbc:	48 89 85 48 ef ff ff 	mov    %rax,-0x10b8(%rbp)
    dbc3:	48 c7 85 50 ef ff ff 	movq   $0x0,-0x10b0(%rbp)
    dbca:	00 00 00 00 
    dbce:	48 8d 05 93 f6 00 00 	lea    0xf693(%rip),%rax        # 1d268 <g_11>
    dbd5:	48 89 85 58 ef ff ff 	mov    %rax,-0x10a8(%rbp)
    dbdc:	48 8d 05 85 f6 00 00 	lea    0xf685(%rip),%rax        # 1d268 <g_11>
    dbe3:	48 89 85 60 ef ff ff 	mov    %rax,-0x10a0(%rbp)
    dbea:	48 c7 85 68 ef ff ff 	movq   $0x0,-0x1098(%rbp)
    dbf1:	00 00 00 00 
    dbf5:	48 8d 05 6c f6 00 00 	lea    0xf66c(%rip),%rax        # 1d268 <g_11>
    dbfc:	48 89 85 70 ef ff ff 	mov    %rax,-0x1090(%rbp)
    dc03:	48 8d 05 5e f6 00 00 	lea    0xf65e(%rip),%rax        # 1d268 <g_11>
    dc0a:	48 89 85 78 ef ff ff 	mov    %rax,-0x1088(%rbp)
    dc11:	66 c7 85 66 e8 ff ff 	movw   $0x1c9f,-0x179a(%rbp)
    dc18:	9f 1c 
    dc1a:	66 c7 05 fd bf 00 00 	movw   $0x1,0xbffd(%rip)        # 19c20 <g_778>
    dc21:	01 00 
    dc23:	e9 3f 01 00 00       	jmpq   dd67 <func_23+0x3262>
    dc28:	be 0e 00 00 00       	mov    $0xe,%esi
    dc2d:	bf ff ff 00 00       	mov    $0xffff,%edi
    dc32:	e8 43 b2 ff ff       	callq  8e7a <safe_rshift_func_uint16_t_u_u>
    dc37:	48 8b 95 38 e8 ff ff 	mov    -0x17c8(%rbp),%rdx
    dc3e:	8b 12                	mov    (%rdx),%edx
    dc40:	0f b7 c0             	movzwl %ax,%eax
    dc43:	21 c2                	and    %eax,%edx
    dc45:	48 8b 85 38 e8 ff ff 	mov    -0x17c8(%rbp),%rax
    dc4c:	89 10                	mov    %edx,(%rax)
    dc4e:	c6 85 5c e8 ff ff 00 	movb   $0x0,-0x17a4(%rbp)
    dc55:	e9 ef 00 00 00       	jmpq   dd49 <func_23+0x3244>
    dc5a:	48 8d 85 d8 e9 ff ff 	lea    -0x1628(%rbp),%rax
    dc61:	48 89 85 40 ed ff ff 	mov    %rax,-0x12c0(%rbp)
    dc68:	48 8d 85 d8 e9 ff ff 	lea    -0x1628(%rbp),%rax
    dc6f:	48 89 85 48 ed ff ff 	mov    %rax,-0x12b8(%rbp)
    dc76:	48 8d 05 23 e4 00 00 	lea    0xe423(%rip),%rax        # 1c0a0 <g_857>
    dc7d:	48 89 85 50 ed ff ff 	mov    %rax,-0x12b0(%rbp)
    dc84:	48 8d 85 d8 e9 ff ff 	lea    -0x1628(%rbp),%rax
    dc8b:	48 89 85 58 ed ff ff 	mov    %rax,-0x12a8(%rbp)
    dc92:	48 8d 85 d8 e9 ff ff 	lea    -0x1628(%rbp),%rax
    dc99:	48 89 85 60 ed ff ff 	mov    %rax,-0x12a0(%rbp)
    dca0:	48 8d 05 f9 e3 00 00 	lea    0xe3f9(%rip),%rax        # 1c0a0 <g_857>
    dca7:	48 89 85 68 ed ff ff 	mov    %rax,-0x1298(%rbp)
    dcae:	48 8d 85 d8 e9 ff ff 	lea    -0x1628(%rbp),%rax
    dcb5:	48 89 85 70 ed ff ff 	mov    %rax,-0x1290(%rbp)
    dcbc:	c7 85 9c e8 ff ff 00 	movl   $0x0,-0x1764(%rbp)
    dcc3:	00 00 00 
    dcc6:	eb 1e                	jmp    dce6 <func_23+0x31e1>
    dcc8:	8b 85 9c e8 ff ff    	mov    -0x1764(%rbp),%eax
    dcce:	48 98                	cltq   
    dcd0:	48 8d 15 d1 e8 00 00 	lea    0xe8d1(%rip),%rdx        # 1c5a8 <g_1117>
    dcd7:	48 89 94 c5 00 ee ff 	mov    %rdx,-0x1200(%rbp,%rax,8)
    dcde:	ff 
    dcdf:	83 85 9c e8 ff ff 01 	addl   $0x1,-0x1764(%rbp)
    dce6:	83 bd 9c e8 ff ff 07 	cmpl   $0x7,-0x1764(%rbp)
    dced:	7e d9                	jle    dcc8 <func_23+0x31c3>
    dcef:	48 8b 85 38 e8 ff ff 	mov    -0x17c8(%rbp),%rax
    dcf6:	c7 00 0f 27 ee 8a    	movl   $0x8aee270f,(%rax)
    dcfc:	48 8b 05 a5 e8 00 00 	mov    0xe8a5(%rip),%rax        # 1c5a8 <g_1117>
    dd03:	48 89 05 9e e8 00 00 	mov    %rax,0xe89e(%rip)        # 1c5a8 <g_1117>
    dd0a:	48 8b 15 97 e8 00 00 	mov    0xe897(%rip),%rdx        # 1c5a8 <g_1117>
    dd11:	48 8b 05 90 e3 00 00 	mov    0xe390(%rip),%rax        # 1c0a8 <g_856>
    dd18:	48 8b 8d d8 e9 ff ff 	mov    -0x1628(%rbp),%rcx
    dd1f:	48 89 08             	mov    %rcx,(%rax)
    dd22:	48 8b 00             	mov    (%rax),%rax
    dd25:	48 89 85 48 ea ff ff 	mov    %rax,-0x15b8(%rbp)
    dd2c:	48 39 95 48 ea ff ff 	cmp    %rdx,-0x15b8(%rbp)
    dd33:	0f 95 c0             	setne  %al
    dd36:	0f b6 d0             	movzbl %al,%edx
    dd39:	48 8b 85 38 e8 ff ff 	mov    -0x17c8(%rbp),%rax
    dd40:	89 10                	mov    %edx,(%rax)
    dd42:	80 85 5c e8 ff ff 01 	addb   $0x1,-0x17a4(%rbp)
    dd49:	80 bd 5c e8 ff ff 05 	cmpb   $0x5,-0x17a4(%rbp)
    dd50:	0f 86 04 ff ff ff    	jbe    dc5a <func_23+0x3155>
    dd56:	0f b7 05 c3 be 00 00 	movzwl 0xbec3(%rip),%eax        # 19c20 <g_778>
    dd5d:	83 c0 01             	add    $0x1,%eax
    dd60:	66 89 05 b9 be 00 00 	mov    %ax,0xbeb9(%rip)        # 19c20 <g_778>
    dd67:	0f b7 05 b2 be 00 00 	movzwl 0xbeb2(%rip),%eax        # 19c20 <g_778>
    dd6e:	66 83 f8 05          	cmp    $0x5,%ax
    dd72:	0f 8e b0 fe ff ff    	jle    dc28 <func_23+0x3123>
    dd78:	48 8b 05 99 e7 00 00 	mov    0xe799(%rip),%rax        # 1c518 <g_887>
    dd7f:	48 8b 00             	mov    (%rax),%rax
    dd82:	0f b7 00             	movzwl (%rax),%eax
    dd85:	0f bf d8             	movswl %ax,%ebx
    dd88:	0f b6 05 0b b3 00 00 	movzbl 0xb30b(%rip),%eax        # 1909a <g_195>
    dd8f:	0f b6 d0             	movzbl %al,%edx
    dd92:	48 8b 85 48 eb ff ff 	mov    -0x14b8(%rbp),%rax
    dd99:	48 c7 00 00 00 00 00 	movq   $0x0,(%rax)
    dda0:	48 8b 85 c8 e9 ff ff 	mov    -0x1638(%rbp),%rax
    dda7:	48 8b 00             	mov    (%rax),%rax
    ddaa:	48 85 c0             	test   %rax,%rax
    ddad:	0f 95 c0             	setne  %al
    ddb0:	0f b6 c8             	movzbl %al,%ecx
    ddb3:	48 8b 85 d0 ea ff ff 	mov    -0x1530(%rbp),%rax
    ddba:	48 3b 85 48 ea ff ff 	cmp    -0x15b8(%rbp),%rax
    ddc1:	0f 95 c0             	setne  %al
    ddc4:	0f b6 c0             	movzbl %al,%eax
    ddc7:	39 c1                	cmp    %eax,%ecx
    ddc9:	0f 9f c0             	setg   %al
    ddcc:	0f b6 c8             	movzbl %al,%ecx
    ddcf:	48 8b 85 38 e8 ff ff 	mov    -0x17c8(%rbp),%rax
    ddd6:	8b 00                	mov    (%rax),%eax
    ddd8:	09 c8                	or     %ecx,%eax
    ddda:	48 63 c8             	movslq %eax,%rcx
    dddd:	48 8b 05 bc e7 00 00 	mov    0xe7bc(%rip),%rax        # 1c5a0 <g_1118>
    dde4:	48 8b 00             	mov    (%rax),%rax
    dde7:	48 8b 00             	mov    (%rax),%rax
    ddea:	48 8b 00             	mov    (%rax),%rax
    dded:	48 39 c1             	cmp    %rax,%rcx
    ddf0:	0f 92 c0             	setb   %al
    ddf3:	0f b6 c8             	movzbl %al,%ecx
    ddf6:	8b 85 6c e8 ff ff    	mov    -0x1794(%rbp),%eax
    ddfc:	39 c1                	cmp    %eax,%ecx
    ddfe:	0f 9d c0             	setge  %al
    de01:	0f b6 c0             	movzbl %al,%eax
    de04:	89 d6                	mov    %edx,%esi
    de06:	89 c7                	mov    %eax,%edi
    de08:	e8 ce ad ff ff       	callq  8bdb <safe_div_func_uint8_t_u_u>
    de0d:	0f b6 c0             	movzbl %al,%eax
    de10:	8b 95 e8 e8 ff ff    	mov    -0x1718(%rbp),%edx
    de16:	09 d0                	or     %edx,%eax
    de18:	66 89 85 48 e8 ff ff 	mov    %ax,-0x17b8(%rbp)
    de1f:	0f bf 85 48 e8 ff ff 	movswl -0x17b8(%rbp),%eax
    de26:	89 de                	mov    %ebx,%esi
    de28:	89 c7                	mov    %eax,%edi
    de2a:	e8 a4 a5 ff ff       	callq  83d3 <safe_sub_func_int16_t_s_s>
    de2f:	0f bf d0             	movswl %ax,%edx
    de32:	0f b6 85 4c e8 ff ff 	movzbl -0x17b4(%rbp),%eax
    de39:	39 c2                	cmp    %eax,%edx
    de3b:	0f 9f c0             	setg   %al
    de3e:	0f b6 c0             	movzbl %al,%eax
    de41:	be 06 00 00 00       	mov    $0x6,%esi
    de46:	89 c7                	mov    %eax,%edi
    de48:	e8 a1 a4 ff ff       	callq  82ee <safe_lshift_func_int8_t_s_u>
    de4d:	0f b6 c0             	movzbl %al,%eax
    de50:	be 29 00 00 00       	mov    $0x29,%esi
    de55:	89 c7                	mov    %eax,%edi
    de57:	e8 1c ad ff ff       	callq  8b78 <safe_sub_func_uint8_t_u_u>
    de5c:	0f b6 c0             	movzbl %al,%eax
    de5f:	48 be ab c9 f9 ae b0 	movabs $0x20ba69b0aef9c9ab,%rsi
    de66:	69 ba 20 
    de69:	48 89 c7             	mov    %rax,%rdi
    de6c:	e8 43 ab ff ff       	callq  89b4 <safe_mod_func_int64_t_s_s>
    de71:	48 8b 85 50 eb ff ff 	mov    -0x14b0(%rbp),%rax
    de78:	48 8b 95 38 e8 ff ff 	mov    -0x17c8(%rbp),%rdx
    de7f:	48 89 10             	mov    %rdx,(%rax)
    de82:	48 8b 05 f7 e5 00 00 	mov    0xe5f7(%rip),%rax        # 1c480 <g_877>
    de89:	48 8b 95 50 eb ff ff 	mov    -0x14b0(%rbp),%rdx
    de90:	48 8b 12             	mov    (%rdx),%rdx
    de93:	48 89 10             	mov    %rdx,(%rax)
    de96:	48 83 85 e0 ea ff ff 	addq   $0x1,-0x1520(%rbp)
    de9d:	01 
    de9e:	c7 85 b8 e8 ff ff 01 	movl   $0x1,-0x1748(%rbp)
    dea5:	00 00 00 
    dea8:	e9 55 02 00 00       	jmpq   e102 <func_23+0x35fd>
    dead:	c6 85 5b e8 ff ff ff 	movb   $0xff,-0x17a5(%rbp)
    deb4:	48 8d 85 80 ef ff ff 	lea    -0x1080(%rbp),%rax
    debb:	48 05 60 01 00 00    	add    $0x160,%rax
    dec1:	48 89 85 58 eb ff ff 	mov    %rax,-0x14a8(%rbp)
    dec8:	48 8d 85 e0 f7 ff ff 	lea    -0x820(%rbp),%rax
    decf:	48 05 40 05 00 00    	add    $0x540,%rax
    ded5:	48 89 85 60 eb ff ff 	mov    %rax,-0x14a0(%rbp)
    dedc:	c7 85 a0 e8 ff ff 00 	movl   $0x0,-0x1760(%rbp)
    dee3:	00 00 00 
    dee6:	eb 14                	jmp    defc <func_23+0x33f7>
    dee8:	8b 85 a0 e8 ff ff    	mov    -0x1760(%rbp),%eax
    deee:	48 98                	cltq   
    def0:	c6 44 05 c1 01       	movb   $0x1,-0x3f(%rbp,%rax,1)
    def5:	83 85 a0 e8 ff ff 01 	addl   $0x1,-0x1760(%rbp)
    defc:	83 bd a0 e8 ff ff 00 	cmpl   $0x0,-0x1760(%rbp)
    df03:	7e e3                	jle    dee8 <func_23+0x33e3>
    df05:	c7 85 a0 e8 ff ff 00 	movl   $0x0,-0x1760(%rbp)
    df0c:	00 00 00 
    df0f:	eb 1a                	jmp    df2b <func_23+0x3426>
    df11:	8b 85 a0 e8 ff ff    	mov    -0x1760(%rbp),%eax
    df17:	48 98                	cltq   
    df19:	c7 84 85 00 ee ff ff 	movl   $0x1,-0x1200(%rbp,%rax,4)
    df20:	01 00 00 00 
    df24:	83 85 a0 e8 ff ff 01 	addl   $0x1,-0x1760(%rbp)
    df2b:	83 bd a0 e8 ff ff 05 	cmpl   $0x5,-0x1760(%rbp)
    df32:	7e dd                	jle    df11 <func_23+0x340c>
    df34:	c6 05 16 bb 00 00 01 	movb   $0x1,0xbb16(%rip)        # 19a51 <g_523>
    df3b:	eb 57                	jmp    df94 <func_23+0x348f>
    df3d:	c7 85 10 e9 ff ff 04 	movl   $0x8280e104,-0x16f0(%rbp)
    df44:	e1 80 82 
    df47:	c7 85 14 e9 ff ff 88 	movl   $0xddeaf488,-0x16ec(%rbp)
    df4e:	f4 ea dd 
    df51:	c7 85 18 e9 ff ff fb 	movl   $0xfffffffb,-0x16e8(%rbp)
    df58:	ff ff ff 
    df5b:	c7 85 1c e9 ff ff 01 	movl   $0x1,-0x16e4(%rbp)
    df62:	00 00 00 
    df65:	8b 85 b8 e8 ff ff    	mov    -0x1748(%rbp),%eax
    df6b:	83 c0 02             	add    $0x2,%eax
    df6e:	48 98                	cltq   
    df70:	48 8b 84 c5 80 ec ff 	mov    -0x1380(%rbp,%rax,8),%rax
    df77:	ff 
    df78:	48 85 c0             	test   %rax,%rax
    df7b:	75 24                	jne    dfa1 <func_23+0x349c>
    df7d:	80 ad 5b e8 ff ff 01 	subb   $0x1,-0x17a5(%rbp)
    df84:	0f b6 05 c6 ba 00 00 	movzbl 0xbac6(%rip),%eax        # 19a51 <g_523>
    df8b:	83 e8 01             	sub    $0x1,%eax
    df8e:	88 05 bd ba 00 00    	mov    %al,0xbabd(%rip)        # 19a51 <g_523>
    df94:	0f b6 05 b6 ba 00 00 	movzbl 0xbab6(%rip),%eax        # 19a51 <g_523>
    df9b:	84 c0                	test   %al,%al
    df9d:	79 9e                	jns    df3d <func_23+0x3438>
    df9f:	eb 01                	jmp    dfa2 <func_23+0x349d>
    dfa1:	90                   	nop
    dfa2:	c7 85 98 e8 ff ff 01 	movl   $0x1,-0x1768(%rbp)
    dfa9:	00 00 00 
    dfac:	e9 3d 01 00 00       	jmpq   e0ee <func_23+0x35e9>
    dfb1:	48 8d 05 b0 f2 00 00 	lea    0xf2b0(%rip),%rax        # 1d268 <g_11>
    dfb8:	48 89 85 68 eb ff ff 	mov    %rax,-0x1498(%rbp)
    dfbf:	48 8b 15 ea e5 00 00 	mov    0xe5ea(%rip),%rdx        # 1c5b0 <g_1162>
    dfc6:	48 8b 85 68 eb ff ff 	mov    -0x1498(%rbp),%rax
    dfcd:	48 89 10             	mov    %rdx,(%rax)
    dfd0:	8b 85 44 e8 ff ff    	mov    -0x17bc(%rbp),%eax
    dfd6:	89 c6                	mov    %eax,%esi
    dfd8:	bf aa f2 ff ff       	mov    $0xfffff2aa,%edi
    dfdd:	e8 81 a5 ff ff       	callq  8563 <safe_rshift_func_int16_t_s_u>
    dfe2:	48 8b 05 67 bc 00 00 	mov    0xbc67(%rip),%rax        # 19c50 <g_987>
    dfe9:	c1 e0 05             	shl    $0x5,%eax
    dfec:	c1 f8 10             	sar    $0x10,%eax
    dfef:	66 85 c0             	test   %ax,%ax
    dff2:	0f 9e c2             	setle  %dl
    dff5:	48 8b 85 50 eb ff ff 	mov    -0x14b0(%rbp),%rax
    dffc:	48 8b 00             	mov    (%rax),%rax
    dfff:	0f b6 d2             	movzbl %dl,%edx
    e002:	89 10                	mov    %edx,(%rax)
    e004:	8b 10                	mov    (%rax),%edx
    e006:	8b 85 58 f5 ff ff    	mov    -0xaa8(%rbp),%eax
    e00c:	31 d0                	xor    %edx,%eax
    e00e:	89 85 58 f5 ff ff    	mov    %eax,-0xaa8(%rbp)
    e014:	8b 85 98 e8 ff ff    	mov    -0x1768(%rbp),%eax
    e01a:	83 c0 01             	add    $0x1,%eax
    e01d:	48 98                	cltq   
    e01f:	48 8b 84 c5 80 ec ff 	mov    -0x1380(%rbp,%rax,8),%rax
    e026:	ff 
    e027:	48 85 c0             	test   %rax,%rax
    e02a:	75 42                	jne    e06e <func_23+0x3569>
    e02c:	48 8b 85 38 ec ff ff 	mov    -0x13c8(%rbp),%rax
    e033:	48 39 85 38 eb ff ff 	cmp    %rax,-0x14c8(%rbp)
    e03a:	0f 95 c0             	setne  %al
    e03d:	0f b6 c0             	movzbl %al,%eax
    e040:	89 85 14 ee ff ff    	mov    %eax,-0x11ec(%rbp)
    e046:	48 8b 05 1b f2 00 00 	mov    0xf21b(%rip),%rax        # 1d268 <g_11>
    e04d:	8b 08                	mov    (%rax),%ecx
    e04f:	48 8b 85 58 eb ff ff 	mov    -0x14a8(%rbp),%rax
    e056:	48 3b 85 40 eb ff ff 	cmp    -0x14c0(%rbp),%rax
    e05d:	0f 95 c0             	setne  %al
    e060:	0f b6 d0             	movzbl %al,%edx
    e063:	48 8b 05 fe f1 00 00 	mov    0xf1fe(%rip),%rax        # 1d268 <g_11>
    e06a:	09 ca                	or     %ecx,%edx
    e06c:	89 10                	mov    %edx,(%rax)
    e06e:	b9 01 00 00 00       	mov    $0x1,%ecx
    e073:	48 8d 05 2e f2 00 00 	lea    0xf22e(%rip),%rax        # 1d2a8 <g_880>
    e07a:	48 39 85 60 eb ff ff 	cmp    %rax,-0x14a0(%rbp)
    e081:	0f 95 c0             	setne  %al
    e084:	0f b6 d0             	movzbl %al,%edx
    e087:	0f b7 05 26 bb 00 00 	movzwl 0xbb26(%rip),%eax        # 19bb4 <g_675+0x14>
    e08e:	98                   	cwtl   
    e08f:	09 c2                	or     %eax,%edx
    e091:	0f b6 05 68 b3 00 00 	movzbl 0xb368(%rip),%eax        # 19400 <g_216+0x340>
    e098:	c1 e0 03             	shl    $0x3,%eax
    e09b:	c0 f8 03             	sar    $0x3,%al
    e09e:	0f be c0             	movsbl %al,%eax
    e0a1:	31 c2                	xor    %eax,%edx
    e0a3:	0f b6 45 c1          	movzbl -0x3f(%rbp),%eax
    e0a7:	0f be c0             	movsbl %al,%eax
    e0aa:	21 d0                	and    %edx,%eax
    e0ac:	39 c1                	cmp    %eax,%ecx
    e0ae:	0f 9f c0             	setg   %al
    e0b1:	0f b6 d0             	movzbl %al,%edx
    e0b4:	8b 85 68 e8 ff ff    	mov    -0x1798(%rbp),%eax
    e0ba:	21 d0                	and    %edx,%eax
    e0bc:	89 85 68 e8 ff ff    	mov    %eax,-0x1798(%rbp)
    e0c2:	48 8b 85 38 e8 ff ff 	mov    -0x17c8(%rbp),%rax
    e0c9:	8b 00                	mov    (%rax),%eax
    e0cb:	85 c0                	test   %eax,%eax
    e0cd:	75 17                	jne    e0e6 <func_23+0x35e1>
    e0cf:	48 8b 85 68 eb ff ff 	mov    -0x1498(%rbp),%rax
    e0d6:	48 8b 10             	mov    (%rax),%rdx
    e0d9:	48 8b 05 88 f1 00 00 	mov    0xf188(%rip),%rax        # 1d268 <g_11>
    e0e0:	8b 12                	mov    (%rdx),%edx
    e0e2:	89 10                	mov    %edx,(%rax)
    e0e4:	eb 01                	jmp    e0e7 <func_23+0x35e2>
    e0e6:	90                   	nop
    e0e7:	83 ad 98 e8 ff ff 01 	subl   $0x1,-0x1768(%rbp)
    e0ee:	83 bd 98 e8 ff ff 00 	cmpl   $0x0,-0x1768(%rbp)
    e0f5:	0f 89 b6 fe ff ff    	jns    dfb1 <func_23+0x34ac>
    e0fb:	83 ad b8 e8 ff ff 01 	subl   $0x1,-0x1748(%rbp)
    e102:	83 bd b8 e8 ff ff 00 	cmpl   $0x0,-0x1748(%rbp)
    e109:	0f 89 9e fd ff ff    	jns    dead <func_23+0x33a8>
    e10f:	e9 c1 02 00 00       	jmpq   e3d5 <func_23+0x38d0>
    e114:	48 8b 85 38 e8 ff ff 	mov    -0x17c8(%rbp),%rax
    e11b:	e9 f0 21 00 00       	jmpq   10310 <func_23+0x580b>
    e120:	48 c7 85 d8 e9 ff ff 	movq   $0x0,-0x1628(%rbp)
    e127:	00 00 00 00 
    e12b:	c7 85 80 f4 ff ff 01 	movl   $0x1,-0xb80(%rbp)
    e132:	00 00 00 
    e135:	c7 85 84 f4 ff ff 01 	movl   $0x1,-0xb7c(%rbp)
    e13c:	00 00 00 
    e13f:	c7 85 88 f4 ff ff 01 	movl   $0x1,-0xb78(%rbp)
    e146:	00 00 00 
    e149:	c7 85 8c f4 ff ff 01 	movl   $0x1,-0xb74(%rbp)
    e150:	00 00 00 
    e153:	c7 85 90 f4 ff ff 01 	movl   $0x1,-0xb70(%rbp)
    e15a:	00 00 00 
    e15d:	c7 85 fc e8 ff ff 00 	movl   $0x0,-0x1704(%rbp)
    e164:	00 00 00 
    e167:	48 8d 05 14 b9 00 00 	lea    0xb914(%rip),%rax        # 19a82 <g_635>
    e16e:	48 89 85 18 eb ff ff 	mov    %rax,-0x14e8(%rbp)
    e175:	c6 85 4c e8 ff ff 00 	movb   $0x0,-0x17b4(%rbp)
    e17c:	e9 9a 00 00 00       	jmpq   e21b <func_23+0x3716>
    e181:	c7 85 b4 e8 ff ff 00 	movl   $0x0,-0x174c(%rbp)
    e188:	00 00 00 
    e18b:	eb 6c                	jmp    e1f9 <func_23+0x36f4>
    e18d:	48 c7 85 20 eb ff ff 	movq   $0x0,-0x14e0(%rbp)
    e194:	00 00 00 00 
    e198:	48 c7 85 28 eb ff ff 	movq   $0x0,-0x14d8(%rbp)
    e19f:	00 00 00 00 
    e1a3:	c7 85 bc e8 ff ff f1 	movl   $0xfffffff1,-0x1744(%rbp)
    e1aa:	ff ff ff 
    e1ad:	eb 26                	jmp    e1d5 <func_23+0x36d0>
    e1af:	48 8d 85 d8 e9 ff ff 	lea    -0x1628(%rbp),%rax
    e1b6:	48 89 85 30 eb ff ff 	mov    %rax,-0x14d0(%rbp)
    e1bd:	48 8b 95 d8 e9 ff ff 	mov    -0x1628(%rbp),%rdx
    e1c4:	48 8b 85 30 eb ff ff 	mov    -0x14d0(%rbp),%rax
    e1cb:	48 89 10             	mov    %rdx,(%rax)
    e1ce:	83 ad bc e8 ff ff 01 	subl   $0x1,-0x1744(%rbp)
    e1d5:	83 bd bc e8 ff ff e2 	cmpl   $0xffffffe2,-0x1744(%rbp)
    e1dc:	7c d1                	jl     e1af <func_23+0x36aa>
    e1de:	48 8b 15 9b e2 00 00 	mov    0xe29b(%rip),%rdx        # 1c480 <g_877>
    e1e5:	48 8b 05 cc e3 00 00 	mov    0xe3cc(%rip),%rax        # 1c5b8 <g_1182>
    e1ec:	48 8b 12             	mov    (%rdx),%rdx
    e1ef:	48 89 10             	mov    %rdx,(%rax)
    e1f2:	83 ad b4 e8 ff ff 01 	subl   $0x1,-0x174c(%rbp)
    e1f9:	83 bd b4 e8 ff ff e9 	cmpl   $0xffffffe9,-0x174c(%rbp)
    e200:	75 8b                	jne    e18d <func_23+0x3688>
    e202:	0f b6 85 4c e8 ff ff 	movzbl -0x17b4(%rbp),%eax
    e209:	be 02 00 00 00       	mov    $0x2,%esi
    e20e:	89 c7                	mov    %eax,%edi
    e210:	e8 45 a9 ff ff       	callq  8b5a <safe_add_func_uint8_t_u_u>
    e215:	88 85 4c e8 ff ff    	mov    %al,-0x17b4(%rbp)
    e21b:	80 bd 4c e8 ff ff 0e 	cmpb   $0xe,-0x17b4(%rbp)
    e222:	0f 85 59 ff ff ff    	jne    e181 <func_23+0x367c>
    e228:	8b 85 fc e8 ff ff    	mov    -0x1704(%rbp),%eax
    e22e:	0f b7 d0             	movzwl %ax,%edx
    e231:	48 8b 05 08 e3 00 00 	mov    0xe308(%rip),%rax        # 1c540 <g_1002>
    e238:	48 8b 00             	mov    (%rax),%rax
    e23b:	48 0f bf 85 48 e8 ff 	movswq -0x17b8(%rbp),%rax
    e242:	ff 
    e243:	48 b9 0c b5 09 bf d3 	movabs $0xce80c5d3bf09b50c,%rcx
    e24a:	c5 80 ce 
    e24d:	48 39 c8             	cmp    %rcx,%rax
    e250:	0f 95 c0             	setne  %al
    e253:	0f b6 c0             	movzbl %al,%eax
    e256:	89 d6                	mov    %edx,%esi
    e258:	89 c7                	mov    %eax,%edi
    e25a:	e8 fd aa ff ff       	callq  8d5c <safe_mod_func_uint16_t_u_u>
    e25f:	be 05 00 00 00       	mov    $0x5,%esi
    e264:	bf 01 00 00 00       	mov    $0x1,%edi
    e269:	e8 1f aa ff ff       	callq  8c8d <safe_rshift_func_uint8_t_u_s>
    e26e:	0f b6 c0             	movzbl %al,%eax
    e271:	39 85 fc e8 ff ff    	cmp    %eax,-0x1704(%rbp)
    e277:	0f 95 c0             	setne  %al
    e27a:	0f b6 c0             	movzbl %al,%eax
    e27d:	33 85 44 e8 ff ff    	xor    -0x17bc(%rbp),%eax
    e283:	39 85 f4 e8 ff ff    	cmp    %eax,-0x170c(%rbp)
    e289:	0f 95 c0             	setne  %al
    e28c:	0f b6 c0             	movzbl %al,%eax
    e28f:	39 85 fc e8 ff ff    	cmp    %eax,-0x1704(%rbp)
    e295:	0f 9c c0             	setl   %al
    e298:	0f b6 d0             	movzbl %al,%edx
    e29b:	48 8b 85 38 e8 ff ff 	mov    -0x17c8(%rbp),%rax
    e2a2:	8b 00                	mov    (%rax),%eax
    e2a4:	31 d0                	xor    %edx,%eax
    e2a6:	39 85 fc e8 ff ff    	cmp    %eax,-0x1704(%rbp)
    e2ac:	0f 9d c0             	setge  %al
    e2af:	0f b6 c0             	movzbl %al,%eax
    e2b2:	66 89 05 21 b9 00 00 	mov    %ax,0xb921(%rip)        # 19bda <g_675+0x3a>
    e2b9:	0f b7 05 1a b9 00 00 	movzwl 0xb91a(%rip),%eax        # 19bda <g_675+0x3a>
    e2c0:	0f bf d0             	movswl %ax,%edx
    e2c3:	8b 85 68 e8 ff ff    	mov    -0x1798(%rbp),%eax
    e2c9:	21 d0                	and    %edx,%eax
    e2cb:	89 85 68 e8 ff ff    	mov    %eax,-0x1798(%rbp)
    e2d1:	48 8b 85 80 e9 ff ff 	mov    -0x1680(%rbp),%rax
    e2d8:	48 89 c3             	mov    %rax,%rbx
    e2db:	0f b6 95 4c e8 ff ff 	movzbl -0x17b4(%rbp),%edx
    e2e2:	0f b6 85 4c e8 ff ff 	movzbl -0x17b4(%rbp),%eax
    e2e9:	48 89 d6             	mov    %rdx,%rsi
    e2ec:	48 89 c7             	mov    %rax,%rdi
    e2ef:	e8 4d a5 ff ff       	callq  8841 <safe_add_func_int64_t_s_s>
    e2f4:	48 89 de             	mov    %rbx,%rsi
    e2f7:	bf 00 00 00 00       	mov    $0x0,%edi
    e2fc:	e8 7f ad ff ff       	callq  9080 <safe_mod_func_uint64_t_u_u>
    e301:	48 89 c2             	mov    %rax,%rdx
    e304:	48 8d 05 4d ad 00 00 	lea    0xad4d(%rip),%rax        # 19058 <g_110>
    e30b:	48 89 85 b8 f2 ff ff 	mov    %rax,-0xd48(%rbp)
    e312:	48 8b 85 b8 f2 ff ff 	mov    -0xd48(%rbp),%rax
    e319:	48 39 85 50 ea ff ff 	cmp    %rax,-0x15b0(%rbp)
    e320:	0f 95 c1             	setne  %cl
    e323:	48 8b 85 b0 ea ff ff 	mov    -0x1550(%rbp),%rax
    e32a:	48 8b 00             	mov    (%rax),%rax
    e32d:	48 8b 00             	mov    (%rax),%rax
    e330:	0f b6 c9             	movzbl %cl,%ecx
    e333:	48 89 08             	mov    %rcx,(%rax)
    e336:	48 8b 08             	mov    (%rax),%rcx
    e339:	8b 85 88 f4 ff ff    	mov    -0xb78(%rbp),%eax
    e33f:	89 c6                	mov    %eax,%esi
    e341:	89 d0                	mov    %edx,%eax
    e343:	31 f0                	xor    %esi,%eax
    e345:	89 85 88 f4 ff ff    	mov    %eax,-0xb78(%rbp)
    e34b:	8b 85 88 f4 ff ff    	mov    -0xb78(%rbp),%eax
    e351:	48 98                	cltq   
    e353:	48 39 c1             	cmp    %rax,%rcx
    e356:	0f 9d c0             	setge  %al
    e359:	0f b6 c0             	movzbl %al,%eax
    e35c:	89 c6                	mov    %eax,%esi
    e35e:	bf 01 00 00 00       	mov    $0x1,%edi
    e363:	e8 8d a0 ff ff       	callq  83f5 <safe_mul_func_int16_t_s_s>
    e368:	98                   	cwtl   
    e369:	39 85 fc e8 ff ff    	cmp    %eax,-0x1704(%rbp)
    e36f:	0f 95 c0             	setne  %al
    e372:	0f b6 c0             	movzbl %al,%eax
    e375:	89 85 6c e8 ff ff    	mov    %eax,-0x1794(%rbp)
    e37b:	c7 85 68 e8 ff ff 1f 	movl   $0xe41f,-0x1798(%rbp)
    e382:	e4 00 00 
    e385:	8b 05 b1 ac 00 00    	mov    0xacb1(%rip),%eax        # 1903c <g_19>
    e38b:	39 85 44 e8 ff ff    	cmp    %eax,-0x17bc(%rbp)
    e391:	76 07                	jbe    e39a <func_23+0x3895>
    e393:	ba c6 ff ff ff       	mov    $0xffffffc6,%edx
    e398:	eb 05                	jmp    e39f <func_23+0x389a>
    e39a:	ba c7 ff ff ff       	mov    $0xffffffc7,%edx
    e39f:	48 8b 85 58 e9 ff ff 	mov    -0x16a8(%rbp),%rax
    e3a6:	88 10                	mov    %dl,(%rax)
    e3a8:	48 8b 05 91 e1 00 00 	mov    0xe191(%rip),%rax        # 1c540 <g_1002>
    e3af:	48 8b 00             	mov    (%rax),%rax
    e3b2:	83 bd fc e8 ff ff 00 	cmpl   $0x0,-0x1704(%rbp)
    e3b9:	0f 9f c0             	setg   %al
    e3bc:	0f b6 d0             	movzbl %al,%edx
    e3bf:	48 8b 85 38 e8 ff ff 	mov    -0x17c8(%rbp),%rax
    e3c6:	89 10                	mov    %edx,(%rax)
    e3c8:	48 8b 85 38 e8 ff ff 	mov    -0x17c8(%rbp),%rax
    e3cf:	c7 00 01 00 00 00    	movl   $0x1,(%rax)
    e3d5:	48 c7 05 f0 da 00 00 	movq   $0x0,0xdaf0(%rip)        # 1bed0 <g_665>
    e3dc:	00 00 00 00 
    e3e0:	48 8b 05 99 ee 00 00 	mov    0xee99(%rip),%rax        # 1d280 <g_47+0x10>
    e3e7:	48 85 c0             	test   %rax,%rax
    e3ea:	0f 95 c0             	setne  %al
    e3ed:	0f b6 d0             	movzbl %al,%edx
    e3f0:	48 8b 85 38 e8 ff ff 	mov    -0x17c8(%rbp),%rax
    e3f7:	89 10                	mov    %edx,(%rax)
    e3f9:	48 8b 05 a8 e1 00 00 	mov    0xe1a8(%rip),%rax        # 1c5a8 <g_1117>
    e400:	48 8b 00             	mov    (%rax),%rax
    e403:	48 85 c0             	test   %rax,%rax
    e406:	0f 95 c0             	setne  %al
    e409:	0f b6 c0             	movzbl %al,%eax
    e40c:	89 85 6c e8 ff ff    	mov    %eax,-0x1794(%rbp)
    e412:	8b 85 f8 e8 ff ff    	mov    -0x1708(%rbp),%eax
    e418:	89 c6                	mov    %eax,%esi
    e41a:	bf fb ff 00 00       	mov    $0xfffb,%edi
    e41f:	e8 56 aa ff ff       	callq  8e7a <safe_rshift_func_uint16_t_u_u>
    e424:	48 8b 05 f5 b8 00 00 	mov    0xb8f5(%rip),%rax        # 19d20 <g_1081+0xa0>
    e42b:	48 c1 e0 04          	shl    $0x4,%rax
    e42f:	48 c1 f8 24          	sar    $0x24,%rax
    e433:	85 c0                	test   %eax,%eax
    e435:	74 10                	je     e447 <func_23+0x3942>
    e437:	80 bd 4c e8 ff ff 00 	cmpb   $0x0,-0x17b4(%rbp)
    e43e:	74 07                	je     e447 <func_23+0x3942>
    e440:	ba 01 00 00 00       	mov    $0x1,%edx
    e445:	eb 05                	jmp    e44c <func_23+0x3947>
    e447:	ba 00 00 00 00       	mov    $0x0,%edx
    e44c:	0f b6 85 4c e8 ff ff 	movzbl -0x17b4(%rbp),%eax
    e453:	39 c2                	cmp    %eax,%edx
    e455:	75 0a                	jne    e461 <func_23+0x395c>
    e457:	66 83 bd 48 e8 ff ff 	cmpw   $0x0,-0x17b8(%rbp)
    e45e:	00 
    e45f:	74 07                	je     e468 <func_23+0x3963>
    e461:	b8 01 00 00 00       	mov    $0x1,%eax
    e466:	eb 05                	jmp    e46d <func_23+0x3968>
    e468:	b8 00 00 00 00       	mov    $0x0,%eax
    e46d:	0f bf d0             	movswl %ax,%edx
    e470:	48 8b 85 f0 ea ff ff 	mov    -0x1510(%rbp),%rax
    e477:	48 8d 8d 70 e9 ff ff 	lea    -0x1690(%rbp),%rcx
    e47e:	48 89 08             	mov    %rcx,(%rax)
    e481:	48 8b 85 f0 ea ff ff 	mov    -0x1510(%rbp),%rax
    e488:	48 8b 00             	mov    (%rax),%rax
    e48b:	48 39 85 e8 ea ff ff 	cmp    %rax,-0x1518(%rbp)
    e492:	0f 95 c0             	setne  %al
    e495:	0f b6 c0             	movzbl %al,%eax
    e498:	89 d6                	mov    %edx,%esi
    e49a:	89 c7                	mov    %eax,%edi
    e49c:	e8 32 9f ff ff       	callq  83d3 <safe_sub_func_int16_t_s_s>
    e4a1:	48 8b 85 38 e8 ff ff 	mov    -0x17c8(%rbp),%rax
    e4a8:	8b 00                	mov    (%rax),%eax
    e4aa:	89 85 b4 ed ff ff    	mov    %eax,-0x124c(%rbp)
    e4b0:	48 8b 05 f1 d9 00 00 	mov    0xd9f1(%rip),%rax        # 1bea8 <g_50>
    e4b7:	48 8b 00             	mov    (%rax),%rax
    e4ba:	e9 51 1e 00 00       	jmpq   10310 <func_23+0x580b>
    e4bf:	48 8d 05 ea d9 00 00 	lea    0xd9ea(%rip),%rax        # 1beb0 <g_202>
    e4c6:	48 89 85 10 ea ff ff 	mov    %rax,-0x15f0(%rbp)
    e4cd:	48 8b 95 88 e9 ff ff 	mov    -0x1678(%rbp),%rdx
    e4d4:	48 8b 85 10 ea ff ff 	mov    -0x15f0(%rbp),%rax
    e4db:	48 89 10             	mov    %rdx,(%rax)
    e4de:	48 8b 15 cb d9 00 00 	mov    0xd9cb(%rip),%rdx        # 1beb0 <g_202>
    e4e5:	48 8b 85 88 e9 ff ff 	mov    -0x1678(%rbp),%rax
    e4ec:	8b 12                	mov    (%rdx),%edx
    e4ee:	89 10                	mov    %edx,(%rax)
    e4f0:	48 c7 05 c5 b4 00 00 	movq   $0x1b,0xb4c5(%rip)        # 199c0 <g_259>
    e4f7:	1b 00 00 00 
    e4fb:	e9 f8 1d 00 00       	jmpq   102f8 <func_23+0x57f3>
    e500:	c6 85 59 e8 ff ff 01 	movb   $0x1,-0x17a7(%rbp)
    e507:	c6 85 5a e8 ff ff f0 	movb   $0xf0,-0x17a6(%rbp)
    e50e:	48 8d 85 70 e9 ff ff 	lea    -0x1690(%rbp),%rax
    e515:	48 89 85 a8 e9 ff ff 	mov    %rax,-0x1658(%rbp)
    e51c:	48 8d 85 a8 e9 ff ff 	lea    -0x1658(%rbp),%rax
    e523:	48 89 85 18 ea ff ff 	mov    %rax,-0x15e8(%rbp)
    e52a:	c7 85 74 e8 ff ff 3b 	movl   $0xa46443b,-0x178c(%rbp)
    e531:	44 46 0a 
    e534:	c7 85 78 e8 ff ff 01 	movl   $0x1,-0x1788(%rbp)
    e53b:	00 00 00 
    e53e:	66 c7 85 5e e8 ff ff 	movw   $0x1,-0x17a2(%rbp)
    e545:	01 00 
    e547:	48 c7 85 90 ee ff ff 	movq   $0x0,-0x1170(%rbp)
    e54e:	00 00 00 00 
    e552:	48 c7 85 98 ee ff ff 	movq   $0x0,-0x1168(%rbp)
    e559:	00 00 00 00 
    e55d:	48 8d 85 98 e9 ff ff 	lea    -0x1668(%rbp),%rax
    e564:	48 89 85 a0 ee ff ff 	mov    %rax,-0x1160(%rbp)
    e56b:	48 c7 85 a8 ee ff ff 	movq   $0x0,-0x1158(%rbp)
    e572:	00 00 00 00 
    e576:	48 c7 85 b0 ee ff ff 	movq   $0x0,-0x1150(%rbp)
    e57d:	00 00 00 00 
    e581:	48 8d 85 98 e9 ff ff 	lea    -0x1668(%rbp),%rax
    e588:	48 89 85 b8 ee ff ff 	mov    %rax,-0x1148(%rbp)
    e58f:	48 c7 85 c0 ee ff ff 	movq   $0x0,-0x1140(%rbp)
    e596:	00 00 00 00 
    e59a:	48 c7 85 c8 ee ff ff 	movq   $0x0,-0x1138(%rbp)
    e5a1:	00 00 00 00 
    e5a5:	48 8d 85 98 e9 ff ff 	lea    -0x1668(%rbp),%rax
    e5ac:	48 89 85 d0 ee ff ff 	mov    %rax,-0x1130(%rbp)
    e5b3:	48 c7 85 d8 ee ff ff 	movq   $0x0,-0x1128(%rbp)
    e5ba:	00 00 00 00 
    e5be:	48 c7 85 e0 ee ff ff 	movq   $0x0,-0x1120(%rbp)
    e5c5:	00 00 00 00 
    e5c9:	48 8d 85 98 e9 ff ff 	lea    -0x1668(%rbp),%rax
    e5d0:	48 89 85 e8 ee ff ff 	mov    %rax,-0x1118(%rbp)
    e5d7:	48 c7 85 f0 ee ff ff 	movq   $0x0,-0x1110(%rbp)
    e5de:	00 00 00 00 
    e5e2:	48 c7 85 f8 ee ff ff 	movq   $0x0,-0x1108(%rbp)
    e5e9:	00 00 00 00 
    e5ed:	48 8d 85 98 e9 ff ff 	lea    -0x1668(%rbp),%rax
    e5f4:	48 89 85 00 ef ff ff 	mov    %rax,-0x1100(%rbp)
    e5fb:	48 c7 85 08 ef ff ff 	movq   $0x0,-0x10f8(%rbp)
    e602:	00 00 00 00 
    e606:	48 c7 85 10 ef ff ff 	movq   $0x0,-0x10f0(%rbp)
    e60d:	00 00 00 00 
    e611:	48 8d 85 98 e9 ff ff 	lea    -0x1668(%rbp),%rax
    e618:	48 89 85 18 ef ff ff 	mov    %rax,-0x10e8(%rbp)
    e61f:	48 c7 85 20 ef ff ff 	movq   $0x0,-0x10e0(%rbp)
    e626:	00 00 00 00 
    e62a:	48 c7 85 28 ef ff ff 	movq   $0x0,-0x10d8(%rbp)
    e631:	00 00 00 00 
    e635:	48 8d 85 98 e9 ff ff 	lea    -0x1668(%rbp),%rax
    e63c:	48 89 85 30 ef ff ff 	mov    %rax,-0x10d0(%rbp)
    e643:	48 c7 85 38 ef ff ff 	movq   $0x0,-0x10c8(%rbp)
    e64a:	00 00 00 00 
    e64e:	48 c7 85 40 ef ff ff 	movq   $0x0,-0x10c0(%rbp)
    e655:	00 00 00 00 
    e659:	48 8d 85 98 e9 ff ff 	lea    -0x1668(%rbp),%rax
    e660:	48 89 85 48 ef ff ff 	mov    %rax,-0x10b8(%rbp)
    e667:	48 c7 85 50 ef ff ff 	movq   $0x0,-0x10b0(%rbp)
    e66e:	00 00 00 00 
    e672:	48 8d 85 90 ee ff ff 	lea    -0x1170(%rbp),%rax
    e679:	48 83 c0 28          	add    $0x28,%rax
    e67d:	48 89 85 00 ea ff ff 	mov    %rax,-0x1600(%rbp)
    e684:	c6 85 58 e8 ff ff f6 	movb   $0xf6,-0x17a8(%rbp)
    e68b:	48 8b 05 1e d8 00 00 	mov    0xd81e(%rip),%rax        # 1beb0 <g_202>
    e692:	8b 08                	mov    (%rax),%ecx
    e694:	48 8b 85 38 e8 ff ff 	mov    -0x17c8(%rbp),%rax
    e69b:	8b 10                	mov    (%rax),%edx
    e69d:	48 8b 05 0c d8 00 00 	mov    0xd80c(%rip),%rax        # 1beb0 <g_202>
    e6a4:	21 ca                	and    %ecx,%edx
    e6a6:	89 10                	mov    %edx,(%rax)
    e6a8:	c7 85 68 e8 ff ff 00 	movl   $0x0,-0x1798(%rbp)
    e6af:	00 00 00 
    e6b2:	e9 fa 1b 00 00       	jmpq   102b1 <func_23+0x57ac>
    e6b7:	0f b7 85 52 e9 ff ff 	movzwl -0x16ae(%rbp),%eax
    e6be:	83 e0 00             	and    $0x0,%eax
    e6c1:	66 0d ba 02          	or     $0x2ba,%ax
    e6c5:	66 89 85 52 e9 ff ff 	mov    %ax,-0x16ae(%rbp)
    e6cc:	0f b6 85 54 e9 ff ff 	movzbl -0x16ac(%rbp),%eax
    e6d3:	83 e0 f8             	and    $0xfffffff8,%eax
    e6d6:	88 85 54 e9 ff ff    	mov    %al,-0x16ac(%rbp)
    e6dc:	0f b7 85 54 e9 ff ff 	movzwl -0x16ac(%rbp),%eax
    e6e3:	83 e0 07             	and    $0x7,%eax
    e6e6:	66 0d 50 13          	or     $0x1350,%ax
    e6ea:	66 89 85 54 e9 ff ff 	mov    %ax,-0x16ac(%rbp)
    e6f1:	0f b7 85 56 e9 ff ff 	movzwl -0x16aa(%rbp),%eax
    e6f8:	66 25 00 f8          	and    $0xf800,%ax
    e6fc:	66 89 85 56 e9 ff ff 	mov    %ax,-0x16aa(%rbp)
    e703:	48 8d 85 6c e8 ff ff 	lea    -0x1794(%rbp),%rax
    e70a:	48 89 85 08 ea ff ff 	mov    %rax,-0x15f8(%rbp)
    e711:	48 8d 05 60 de 00 00 	lea    0xde60(%rip),%rax        # 1c578 <g_1119+0x18>
    e718:	48 89 85 f0 e9 ff ff 	mov    %rax,-0x1610(%rbp)
    e71f:	48 8d 05 92 eb 00 00 	lea    0xeb92(%rip),%rax        # 1d2b8 <g_1225>
    e726:	48 89 85 b0 e9 ff ff 	mov    %rax,-0x1650(%rbp)
    e72d:	48 8d 85 b0 e9 ff ff 	lea    -0x1650(%rbp),%rax
    e734:	48 89 85 f8 e9 ff ff 	mov    %rax,-0x1608(%rbp)
    e73b:	c6 85 57 e8 ff ff 01 	movb   $0x1,-0x17a9(%rbp)
    e742:	c7 85 70 e8 ff ff 00 	movl   $0x0,-0x1790(%rbp)
    e749:	00 00 00 
    e74c:	e9 a4 17 00 00       	jmpq   fef5 <func_23+0x53f0>
    e751:	48 c7 85 e0 e9 ff ff 	movq   $0x0,-0x1620(%rbp)
    e758:	00 00 00 00 
    e75c:	48 8d 05 3d b8 00 00 	lea    0xb83d(%rip),%rax        # 19fa0 <g_1216>
    e763:	48 89 85 e8 e9 ff ff 	mov    %rax,-0x1618(%rbp)
    e76a:	c7 85 00 ee ff ff ff 	movl   $0xffffffff,-0x1200(%rbp)
    e771:	ff ff ff 
    e774:	c7 85 04 ee ff ff ff 	movl   $0xffffffff,-0x11fc(%rbp)
    e77b:	ff ff ff 
    e77e:	c7 85 08 ee ff ff 8d 	movl   $0xc8e0df8d,-0x11f8(%rbp)
    e785:	df e0 c8 
    e788:	c7 85 0c ee ff ff f7 	movl   $0xfffffff7,-0x11f4(%rbp)
    e78f:	ff ff ff 
    e792:	c7 85 10 ee ff ff 00 	movl   $0x0,-0x11f0(%rbp)
    e799:	00 00 00 
    e79c:	c7 85 14 ee ff ff e5 	movl   $0x1ca7cae5,-0x11ec(%rbp)
    e7a3:	ca a7 1c 
    e7a6:	c7 85 18 ee ff ff 00 	movl   $0x0,-0x11e8(%rbp)
    e7ad:	00 00 00 
    e7b0:	c7 85 1c ee ff ff ff 	movl   $0xffffffff,-0x11e4(%rbp)
    e7b7:	ff ff ff 
    e7ba:	c7 85 20 ee ff ff 00 	movl   $0x0,-0x11e0(%rbp)
    e7c1:	00 00 00 
    e7c4:	c7 85 24 ee ff ff 00 	movl   $0x0,-0x11dc(%rbp)
    e7cb:	00 00 00 
    e7ce:	c7 85 28 ee ff ff f7 	movl   $0xfffffff7,-0x11d8(%rbp)
    e7d5:	ff ff ff 
    e7d8:	c7 85 2c ee ff ff ff 	movl   $0xffffffff,-0x11d4(%rbp)
    e7df:	ff ff ff 
    e7e2:	c7 85 30 ee ff ff f7 	movl   $0xfffffff7,-0x11d0(%rbp)
    e7e9:	ff ff ff 
    e7ec:	c7 85 34 ee ff ff 00 	movl   $0x0,-0x11cc(%rbp)
    e7f3:	00 00 00 
    e7f6:	c7 85 38 ee ff ff 00 	movl   $0x0,-0x11c8(%rbp)
    e7fd:	00 00 00 
    e800:	c7 85 3c ee ff ff ff 	movl   $0xffffffff,-0x11c4(%rbp)
    e807:	ff ff ff 
    e80a:	c7 85 40 ee ff ff 00 	movl   $0x0,-0x11c0(%rbp)
    e811:	00 00 00 
    e814:	c7 85 44 ee ff ff e5 	movl   $0x1ca7cae5,-0x11bc(%rbp)
    e81b:	ca a7 1c 
    e81e:	c7 85 48 ee ff ff 00 	movl   $0x0,-0x11b8(%rbp)
    e825:	00 00 00 
    e828:	c7 85 4c ee ff ff f7 	movl   $0xfffffff7,-0x11b4(%rbp)
    e82f:	ff ff ff 
    e832:	c7 85 50 ee ff ff 8d 	movl   $0xc8e0df8d,-0x11b0(%rbp)
    e839:	df e0 c8 
    e83c:	c7 85 54 ee ff ff ff 	movl   $0xffffffff,-0x11ac(%rbp)
    e843:	ff ff ff 
    e846:	c7 85 58 ee ff ff ff 	movl   $0xffffffff,-0x11a8(%rbp)
    e84d:	ff ff ff 
    e850:	c7 85 5c ee ff ff 8d 	movl   $0xc8e0df8d,-0x11a4(%rbp)
    e857:	df e0 c8 
    e85a:	c7 85 60 ee ff ff f7 	movl   $0xfffffff7,-0x11a0(%rbp)
    e861:	ff ff ff 
    e864:	c7 85 64 ee ff ff 00 	movl   $0x0,-0x119c(%rbp)
    e86b:	00 00 00 
    e86e:	c7 85 68 ee ff ff e5 	movl   $0x1ca7cae5,-0x1198(%rbp)
    e875:	ca a7 1c 
    e878:	c7 85 6c ee ff ff 00 	movl   $0x0,-0x1194(%rbp)
    e87f:	00 00 00 
    e882:	c7 85 70 ee ff ff ff 	movl   $0xffffffff,-0x1190(%rbp)
    e889:	ff ff ff 
    e88c:	c7 85 74 ee ff ff 00 	movl   $0x0,-0x118c(%rbp)
    e893:	00 00 00 
    e896:	c7 85 78 ee ff ff 00 	movl   $0x0,-0x1188(%rbp)
    e89d:	00 00 00 
    e8a0:	c7 85 7c ee ff ff f7 	movl   $0xfffffff7,-0x1184(%rbp)
    e8a7:	ff ff ff 
    e8aa:	c7 85 80 ee ff ff ff 	movl   $0xffffffff,-0x1180(%rbp)
    e8b1:	ff ff ff 
    e8b4:	c7 85 84 ee ff ff f7 	movl   $0xfffffff7,-0x117c(%rbp)
    e8bb:	ff ff ff 
    e8be:	c7 85 88 ee ff ff 00 	movl   $0x0,-0x1178(%rbp)
    e8c5:	00 00 00 
    e8c8:	c7 85 8c ee ff ff 00 	movl   $0x0,-0x1174(%rbp)
    e8cf:	00 00 00 
    e8d2:	48 8d 85 70 e8 ff ff 	lea    -0x1790(%rbp),%rax
    e8d9:	48 89 85 b8 e9 ff ff 	mov    %rax,-0x1648(%rbp)
    e8e0:	48 8d 85 b8 e9 ff ff 	lea    -0x1648(%rbp),%rax
    e8e7:	48 89 85 80 f4 ff ff 	mov    %rax,-0xb80(%rbp)
    e8ee:	48 c7 85 88 f4 ff ff 	movq   $0x0,-0xb78(%rbp)
    e8f5:	00 00 00 00 
    e8f9:	48 c7 85 90 f4 ff ff 	movq   $0x0,-0xb70(%rbp)
    e900:	00 00 00 00 
    e904:	48 8d 85 b8 e9 ff ff 	lea    -0x1648(%rbp),%rax
    e90b:	48 89 85 98 f4 ff ff 	mov    %rax,-0xb68(%rbp)
    e912:	48 c7 85 a0 f4 ff ff 	movq   $0x0,-0xb60(%rbp)
    e919:	00 00 00 00 
    e91d:	48 c7 85 a8 f4 ff ff 	movq   $0x0,-0xb58(%rbp)
    e924:	00 00 00 00 
    e928:	48 8d 85 b8 e9 ff ff 	lea    -0x1648(%rbp),%rax
    e92f:	48 89 85 b0 f4 ff ff 	mov    %rax,-0xb50(%rbp)
    e936:	48 c7 85 b8 f4 ff ff 	movq   $0x0,-0xb48(%rbp)
    e93d:	00 00 00 00 
    e941:	48 c7 85 c0 f4 ff ff 	movq   $0x0,-0xb40(%rbp)
    e948:	00 00 00 00 
    e94c:	48 8d 85 b8 e9 ff ff 	lea    -0x1648(%rbp),%rax
    e953:	48 89 85 c8 f4 ff ff 	mov    %rax,-0xb38(%rbp)
    e95a:	48 c7 85 d0 f4 ff ff 	movq   $0x0,-0xb30(%rbp)
    e961:	00 00 00 00 
    e965:	48 8d 85 b8 e9 ff ff 	lea    -0x1648(%rbp),%rax
    e96c:	48 89 85 d8 f4 ff ff 	mov    %rax,-0xb28(%rbp)
    e973:	48 c7 85 e0 f4 ff ff 	movq   $0x0,-0xb20(%rbp)
    e97a:	00 00 00 00 
    e97e:	48 c7 85 e8 f4 ff ff 	movq   $0x0,-0xb18(%rbp)
    e985:	00 00 00 00 
    e989:	48 8d 85 b8 e9 ff ff 	lea    -0x1648(%rbp),%rax
    e990:	48 89 85 f0 f4 ff ff 	mov    %rax,-0xb10(%rbp)
    e997:	48 c7 85 f8 f4 ff ff 	movq   $0x0,-0xb08(%rbp)
    e99e:	00 00 00 00 
    e9a2:	48 c7 85 00 f5 ff ff 	movq   $0x0,-0xb00(%rbp)
    e9a9:	00 00 00 00 
    e9ad:	48 8d 85 b8 e9 ff ff 	lea    -0x1648(%rbp),%rax
    e9b4:	48 89 85 08 f5 ff ff 	mov    %rax,-0xaf8(%rbp)
    e9bb:	48 c7 85 10 f5 ff ff 	movq   $0x0,-0xaf0(%rbp)
    e9c2:	00 00 00 00 
    e9c6:	48 c7 85 18 f5 ff ff 	movq   $0x0,-0xae8(%rbp)
    e9cd:	00 00 00 00 
    e9d1:	48 8d 85 b8 e9 ff ff 	lea    -0x1648(%rbp),%rax
    e9d8:	48 89 85 20 f5 ff ff 	mov    %rax,-0xae0(%rbp)
    e9df:	48 8d 85 b8 e9 ff ff 	lea    -0x1648(%rbp),%rax
    e9e6:	48 89 85 28 f5 ff ff 	mov    %rax,-0xad8(%rbp)
    e9ed:	48 8d 85 b8 e9 ff ff 	lea    -0x1648(%rbp),%rax
    e9f4:	48 89 85 30 f5 ff ff 	mov    %rax,-0xad0(%rbp)
    e9fb:	48 8d 85 b8 e9 ff ff 	lea    -0x1648(%rbp),%rax
    ea02:	48 89 85 38 f5 ff ff 	mov    %rax,-0xac8(%rbp)
    ea09:	48 8d 85 b8 e9 ff ff 	lea    -0x1648(%rbp),%rax
    ea10:	48 89 85 40 f5 ff ff 	mov    %rax,-0xac0(%rbp)
    ea17:	48 8d 85 b8 e9 ff ff 	lea    -0x1648(%rbp),%rax
    ea1e:	48 89 85 48 f5 ff ff 	mov    %rax,-0xab8(%rbp)
    ea25:	48 8d 85 b8 e9 ff ff 	lea    -0x1648(%rbp),%rax
    ea2c:	48 89 85 50 f5 ff ff 	mov    %rax,-0xab0(%rbp)
    ea33:	48 8d 85 b8 e9 ff ff 	lea    -0x1648(%rbp),%rax
    ea3a:	48 89 85 58 f5 ff ff 	mov    %rax,-0xaa8(%rbp)
    ea41:	48 8d 85 b8 e9 ff ff 	lea    -0x1648(%rbp),%rax
    ea48:	48 89 85 60 f5 ff ff 	mov    %rax,-0xaa0(%rbp)
    ea4f:	48 8d 85 b8 e9 ff ff 	lea    -0x1648(%rbp),%rax
    ea56:	48 89 85 68 f5 ff ff 	mov    %rax,-0xa98(%rbp)
    ea5d:	48 8d 85 b8 e9 ff ff 	lea    -0x1648(%rbp),%rax
    ea64:	48 89 85 70 f5 ff ff 	mov    %rax,-0xa90(%rbp)
    ea6b:	48 c7 85 78 f5 ff ff 	movq   $0x0,-0xa88(%rbp)
    ea72:	00 00 00 00 
    ea76:	48 c7 85 80 f5 ff ff 	movq   $0x0,-0xa80(%rbp)
    ea7d:	00 00 00 00 
    ea81:	48 8d 85 b8 e9 ff ff 	lea    -0x1648(%rbp),%rax
    ea88:	48 89 85 88 f5 ff ff 	mov    %rax,-0xa78(%rbp)
    ea8f:	48 8d 85 b8 e9 ff ff 	lea    -0x1648(%rbp),%rax
    ea96:	48 89 85 90 f5 ff ff 	mov    %rax,-0xa70(%rbp)
    ea9d:	48 8d 85 b8 e9 ff ff 	lea    -0x1648(%rbp),%rax
    eaa4:	48 89 85 98 f5 ff ff 	mov    %rax,-0xa68(%rbp)
    eaab:	48 c7 85 a0 f5 ff ff 	movq   $0x0,-0xa60(%rbp)
    eab2:	00 00 00 00 
    eab6:	48 8d 85 b8 e9 ff ff 	lea    -0x1648(%rbp),%rax
    eabd:	48 89 85 a8 f5 ff ff 	mov    %rax,-0xa58(%rbp)
    eac4:	48 8d 85 b8 e9 ff ff 	lea    -0x1648(%rbp),%rax
    eacb:	48 89 85 b0 f5 ff ff 	mov    %rax,-0xa50(%rbp)
    ead2:	48 c7 85 b8 f5 ff ff 	movq   $0x0,-0xa48(%rbp)
    ead9:	00 00 00 00 
    eadd:	c6 05 9e af 00 00 00 	movb   $0x0,0xaf9e(%rip)        # 19a82 <g_635>
    eae4:	eb 34                	jmp    eb1a <func_23+0x4015>
    eae6:	c7 85 c8 e8 ff ff 03 	movl   $0x3,-0x1738(%rbp)
    eaed:	00 00 00 
    eaf0:	48 8b 85 38 e8 ff ff 	mov    -0x17c8(%rbp),%rax
    eaf7:	8b 00                	mov    (%rax),%eax
    eaf9:	33 85 c8 e8 ff ff    	xor    -0x1738(%rbp),%eax
    eaff:	89 c2                	mov    %eax,%edx
    eb01:	48 8b 85 38 e8 ff ff 	mov    -0x17c8(%rbp),%rax
    eb08:	89 10                	mov    %edx,(%rax)
    eb0a:	0f b6 05 71 af 00 00 	movzbl 0xaf71(%rip),%eax        # 19a82 <g_635>
    eb11:	83 c0 01             	add    $0x1,%eax
    eb14:	88 05 68 af 00 00    	mov    %al,0xaf68(%rip)        # 19a82 <g_635>
    eb1a:	0f b6 05 61 af 00 00 	movzbl 0xaf61(%rip),%eax        # 19a82 <g_635>
    eb21:	84 c0                	test   %al,%al
    eb23:	7e c1                	jle    eae6 <func_23+0x3fe1>
    eb25:	8b 85 54 ee ff ff    	mov    -0x11ac(%rbp),%eax
    eb2b:	89 85 44 e8 ff ff    	mov    %eax,-0x17bc(%rbp)
    eb31:	48 8b 85 e8 e9 ff ff 	mov    -0x1618(%rbp),%rax
    eb38:	8b 10                	mov    (%rax),%edx
    eb3a:	48 8b 85 88 e9 ff ff 	mov    -0x1678(%rbp),%rax
    eb41:	8b 00                	mov    (%rax),%eax
    eb43:	85 c0                	test   %eax,%eax
    eb45:	0f 9e c0             	setle  %al
    eb48:	0f b6 c0             	movzbl %al,%eax
    eb4b:	09 c2                	or     %eax,%edx
    eb4d:	48 8b 85 e8 e9 ff ff 	mov    -0x1618(%rbp),%rax
    eb54:	89 10                	mov    %edx,(%rax)
    eb56:	0f bf 85 48 e8 ff ff 	movswl -0x17b8(%rbp),%eax
    eb5d:	8b 95 44 e8 ff ff    	mov    -0x17bc(%rbp),%edx
    eb63:	89 d6                	mov    %edx,%esi
    eb65:	89 c7                	mov    %eax,%edi
    eb67:	e8 b9 a3 ff ff       	callq  8f25 <safe_div_func_uint32_t_u_u>
    eb6c:	85 c0                	test   %eax,%eax
    eb6e:	74 12                	je     eb82 <func_23+0x407d>
    eb70:	80 bd 59 e8 ff ff 00 	cmpb   $0x0,-0x17a7(%rbp)
    eb77:	0f 84 5c 13 00 00    	je     fed9 <func_23+0x53d4>
    eb7d:	e9 83 13 00 00       	jmpq   ff05 <func_23+0x5400>
    eb82:	c7 85 88 e8 ff ff 05 	movl   $0x5,-0x1778(%rbp)
    eb89:	00 00 00 
    eb8c:	48 8d 85 70 e8 ff ff 	lea    -0x1790(%rbp),%rax
    eb93:	48 89 85 c0 e9 ff ff 	mov    %rax,-0x1640(%rbp)
    eb9a:	48 8d 85 c0 e9 ff ff 	lea    -0x1640(%rbp),%rax
    eba1:	48 89 85 c8 e9 ff ff 	mov    %rax,-0x1638(%rbp)
    eba8:	48 8d 85 c8 e9 ff ff 	lea    -0x1638(%rbp),%rax
    ebaf:	48 89 85 d0 e9 ff ff 	mov    %rax,-0x1630(%rbp)
    ebb6:	48 8d 85 d0 e9 ff ff 	lea    -0x1630(%rbp),%rax
    ebbd:	48 89 85 70 ea ff ff 	mov    %rax,-0x1590(%rbp)
    ebc4:	48 c7 85 e0 f7 ff ff 	movq   $0x0,-0x820(%rbp)
    ebcb:	00 00 00 00 
    ebcf:	48 8d 85 80 f4 ff ff 	lea    -0xb80(%rbp),%rax
    ebd6:	48 05 18 01 00 00    	add    $0x118,%rax
    ebdc:	48 89 85 e8 f7 ff ff 	mov    %rax,-0x818(%rbp)
    ebe3:	48 c7 85 f0 f7 ff ff 	movq   $0x0,-0x810(%rbp)
    ebea:	00 00 00 00 
    ebee:	48 8d 85 80 f4 ff ff 	lea    -0xb80(%rbp),%rax
    ebf5:	48 83 c0 78          	add    $0x78,%rax
    ebf9:	48 89 85 f8 f7 ff ff 	mov    %rax,-0x808(%rbp)
    ec00:	48 8d 05 b1 e6 00 00 	lea    0xe6b1(%rip),%rax        # 1d2b8 <g_1225>
    ec07:	48 89 85 00 f8 ff ff 	mov    %rax,-0x800(%rbp)
    ec0e:	48 8d 85 80 f4 ff ff 	lea    -0xb80(%rbp),%rax
    ec15:	48 05 a8 00 00 00    	add    $0xa8,%rax
    ec1b:	48 89 85 08 f8 ff ff 	mov    %rax,-0x7f8(%rbp)
    ec22:	48 8d 05 8f e6 00 00 	lea    0xe68f(%rip),%rax        # 1d2b8 <g_1225>
    ec29:	48 89 85 10 f8 ff ff 	mov    %rax,-0x7f0(%rbp)
    ec30:	48 8d 85 80 f4 ff ff 	lea    -0xb80(%rbp),%rax
    ec37:	48 05 a8 00 00 00    	add    $0xa8,%rax
    ec3d:	48 89 85 18 f8 ff ff 	mov    %rax,-0x7e8(%rbp)
    ec44:	48 c7 85 20 f8 ff ff 	movq   $0x0,-0x7e0(%rbp)
    ec4b:	00 00 00 00 
    ec4f:	48 8d 85 80 f4 ff ff 	lea    -0xb80(%rbp),%rax
    ec56:	48 05 a8 00 00 00    	add    $0xa8,%rax
    ec5c:	48 89 85 28 f8 ff ff 	mov    %rax,-0x7d8(%rbp)
    ec63:	48 8d 85 80 f4 ff ff 	lea    -0xb80(%rbp),%rax
    ec6a:	48 05 a8 00 00 00    	add    $0xa8,%rax
    ec70:	48 89 85 30 f8 ff ff 	mov    %rax,-0x7d0(%rbp)
    ec77:	48 8d 85 80 f4 ff ff 	lea    -0xb80(%rbp),%rax
    ec7e:	48 05 a8 00 00 00    	add    $0xa8,%rax
    ec84:	48 89 85 38 f8 ff ff 	mov    %rax,-0x7c8(%rbp)
    ec8b:	48 8d 85 80 f4 ff ff 	lea    -0xb80(%rbp),%rax
    ec92:	48 05 a8 00 00 00    	add    $0xa8,%rax
    ec98:	48 89 85 40 f8 ff ff 	mov    %rax,-0x7c0(%rbp)
    ec9f:	48 c7 85 48 f8 ff ff 	movq   $0x0,-0x7b8(%rbp)
    eca6:	00 00 00 00 
    ecaa:	48 c7 85 50 f8 ff ff 	movq   $0x0,-0x7b0(%rbp)
    ecb1:	00 00 00 00 
    ecb5:	48 c7 85 58 f8 ff ff 	movq   $0x0,-0x7a8(%rbp)
    ecbc:	00 00 00 00 
    ecc0:	48 c7 85 60 f8 ff ff 	movq   $0x0,-0x7a0(%rbp)
    ecc7:	00 00 00 00 
    eccb:	48 8d 85 80 f4 ff ff 	lea    -0xb80(%rbp),%rax
    ecd2:	48 05 a8 00 00 00    	add    $0xa8,%rax
    ecd8:	48 89 85 68 f8 ff ff 	mov    %rax,-0x798(%rbp)
    ecdf:	48 8d 85 80 f4 ff ff 	lea    -0xb80(%rbp),%rax
    ece6:	48 05 a8 00 00 00    	add    $0xa8,%rax
    ecec:	48 89 85 70 f8 ff ff 	mov    %rax,-0x790(%rbp)
    ecf3:	48 8d 05 be e5 00 00 	lea    0xe5be(%rip),%rax        # 1d2b8 <g_1225>
    ecfa:	48 89 85 78 f8 ff ff 	mov    %rax,-0x788(%rbp)
    ed01:	48 8d 05 b0 e5 00 00 	lea    0xe5b0(%rip),%rax        # 1d2b8 <g_1225>
    ed08:	48 89 85 80 f8 ff ff 	mov    %rax,-0x780(%rbp)
    ed0f:	48 8d 85 80 f4 ff ff 	lea    -0xb80(%rbp),%rax
    ed16:	48 05 a8 00 00 00    	add    $0xa8,%rax
    ed1c:	48 89 85 88 f8 ff ff 	mov    %rax,-0x778(%rbp)
    ed23:	48 c7 85 90 f8 ff ff 	movq   $0x0,-0x770(%rbp)
    ed2a:	00 00 00 00 
    ed2e:	48 8d 85 80 f4 ff ff 	lea    -0xb80(%rbp),%rax
    ed35:	48 05 a8 00 00 00    	add    $0xa8,%rax
    ed3b:	48 89 85 98 f8 ff ff 	mov    %rax,-0x768(%rbp)
    ed42:	48 8d 05 6f e5 00 00 	lea    0xe56f(%rip),%rax        # 1d2b8 <g_1225>
    ed49:	48 89 85 a0 f8 ff ff 	mov    %rax,-0x760(%rbp)
    ed50:	48 c7 85 a8 f8 ff ff 	movq   $0x0,-0x758(%rbp)
    ed57:	00 00 00 00 
    ed5b:	48 8d 85 80 f4 ff ff 	lea    -0xb80(%rbp),%rax
    ed62:	48 05 a8 00 00 00    	add    $0xa8,%rax
    ed68:	48 89 85 b0 f8 ff ff 	mov    %rax,-0x750(%rbp)
    ed6f:	48 8d 85 80 f4 ff ff 	lea    -0xb80(%rbp),%rax
    ed76:	48 05 a8 00 00 00    	add    $0xa8,%rax
    ed7c:	48 89 85 b8 f8 ff ff 	mov    %rax,-0x748(%rbp)
    ed83:	48 8d 85 80 f4 ff ff 	lea    -0xb80(%rbp),%rax
    ed8a:	48 05 a8 00 00 00    	add    $0xa8,%rax
    ed90:	48 89 85 c0 f8 ff ff 	mov    %rax,-0x740(%rbp)
    ed97:	48 8d 85 80 f4 ff ff 	lea    -0xb80(%rbp),%rax
    ed9e:	48 05 a8 00 00 00    	add    $0xa8,%rax
    eda4:	48 89 85 c8 f8 ff ff 	mov    %rax,-0x738(%rbp)
    edab:	48 8d 05 06 e5 00 00 	lea    0xe506(%rip),%rax        # 1d2b8 <g_1225>
    edb2:	48 89 85 d0 f8 ff ff 	mov    %rax,-0x730(%rbp)
    edb9:	48 c7 85 d8 f8 ff ff 	movq   $0x0,-0x728(%rbp)
    edc0:	00 00 00 00 
    edc4:	48 8d 85 80 f4 ff ff 	lea    -0xb80(%rbp),%rax
    edcb:	48 05 a8 00 00 00    	add    $0xa8,%rax
    edd1:	48 89 85 e0 f8 ff ff 	mov    %rax,-0x720(%rbp)
    edd8:	48 c7 85 e8 f8 ff ff 	movq   $0x0,-0x718(%rbp)
    eddf:	00 00 00 00 
    ede3:	48 8d 05 ce e4 00 00 	lea    0xe4ce(%rip),%rax        # 1d2b8 <g_1225>
    edea:	48 89 85 f0 f8 ff ff 	mov    %rax,-0x710(%rbp)
    edf1:	48 8d 85 80 f4 ff ff 	lea    -0xb80(%rbp),%rax
    edf8:	48 05 f8 00 00 00    	add    $0xf8,%rax
    edfe:	48 89 85 f8 f8 ff ff 	mov    %rax,-0x708(%rbp)
    ee05:	48 c7 85 00 f9 ff ff 	movq   $0x0,-0x700(%rbp)
    ee0c:	00 00 00 00 
    ee10:	48 8d 85 80 f4 ff ff 	lea    -0xb80(%rbp),%rax
    ee17:	48 05 a8 00 00 00    	add    $0xa8,%rax
    ee1d:	48 89 85 08 f9 ff ff 	mov    %rax,-0x6f8(%rbp)
    ee24:	48 8d 85 80 f4 ff ff 	lea    -0xb80(%rbp),%rax
    ee2b:	48 05 a8 00 00 00    	add    $0xa8,%rax
    ee31:	48 89 85 10 f9 ff ff 	mov    %rax,-0x6f0(%rbp)
    ee38:	48 8d 85 80 f4 ff ff 	lea    -0xb80(%rbp),%rax
    ee3f:	48 05 a8 00 00 00    	add    $0xa8,%rax
    ee45:	48 89 85 18 f9 ff ff 	mov    %rax,-0x6e8(%rbp)
    ee4c:	48 c7 85 20 f9 ff ff 	movq   $0x0,-0x6e0(%rbp)
    ee53:	00 00 00 00 
    ee57:	48 8d 85 80 f4 ff ff 	lea    -0xb80(%rbp),%rax
    ee5e:	48 05 a8 00 00 00    	add    $0xa8,%rax
    ee64:	48 89 85 28 f9 ff ff 	mov    %rax,-0x6d8(%rbp)
    ee6b:	48 8d 05 46 e4 00 00 	lea    0xe446(%rip),%rax        # 1d2b8 <g_1225>
    ee72:	48 89 85 30 f9 ff ff 	mov    %rax,-0x6d0(%rbp)
    ee79:	48 8d 85 80 f4 ff ff 	lea    -0xb80(%rbp),%rax
    ee80:	48 05 a8 00 00 00    	add    $0xa8,%rax
    ee86:	48 89 85 38 f9 ff ff 	mov    %rax,-0x6c8(%rbp)
    ee8d:	48 c7 85 40 f9 ff ff 	movq   $0x0,-0x6c0(%rbp)
    ee94:	00 00 00 00 
    ee98:	48 8d 85 80 f4 ff ff 	lea    -0xb80(%rbp),%rax
    ee9f:	48 05 a8 00 00 00    	add    $0xa8,%rax
    eea5:	48 89 85 48 f9 ff ff 	mov    %rax,-0x6b8(%rbp)
    eeac:	48 c7 85 50 f9 ff ff 	movq   $0x0,-0x6b0(%rbp)
    eeb3:	00 00 00 00 
    eeb7:	48 c7 85 58 f9 ff ff 	movq   $0x0,-0x6a8(%rbp)
    eebe:	00 00 00 00 
    eec2:	48 8d 85 80 f4 ff ff 	lea    -0xb80(%rbp),%rax
    eec9:	48 05 a8 00 00 00    	add    $0xa8,%rax
    eecf:	48 89 85 60 f9 ff ff 	mov    %rax,-0x6a0(%rbp)
    eed6:	48 c7 85 68 f9 ff ff 	movq   $0x0,-0x698(%rbp)
    eedd:	00 00 00 00 
    eee1:	48 c7 85 70 f9 ff ff 	movq   $0x0,-0x690(%rbp)
    eee8:	00 00 00 00 
    eeec:	48 8d 85 80 f4 ff ff 	lea    -0xb80(%rbp),%rax
    eef3:	48 05 e0 00 00 00    	add    $0xe0,%rax
    eef9:	48 89 85 78 f9 ff ff 	mov    %rax,-0x688(%rbp)
    ef00:	48 8d 85 80 f4 ff ff 	lea    -0xb80(%rbp),%rax
    ef07:	48 05 a8 00 00 00    	add    $0xa8,%rax
    ef0d:	48 89 85 80 f9 ff ff 	mov    %rax,-0x680(%rbp)
    ef14:	48 c7 85 88 f9 ff ff 	movq   $0x0,-0x678(%rbp)
    ef1b:	00 00 00 00 
    ef1f:	48 c7 85 90 f9 ff ff 	movq   $0x0,-0x670(%rbp)
    ef26:	00 00 00 00 
    ef2a:	48 c7 85 98 f9 ff ff 	movq   $0x0,-0x668(%rbp)
    ef31:	00 00 00 00 
    ef35:	48 8d 85 80 f4 ff ff 	lea    -0xb80(%rbp),%rax
    ef3c:	48 05 f8 00 00 00    	add    $0xf8,%rax
    ef42:	48 89 85 a0 f9 ff ff 	mov    %rax,-0x660(%rbp)
    ef49:	48 8d 85 80 f4 ff ff 	lea    -0xb80(%rbp),%rax
    ef50:	48 83 c0 10          	add    $0x10,%rax
    ef54:	48 89 85 a8 f9 ff ff 	mov    %rax,-0x658(%rbp)
    ef5b:	48 c7 85 b0 f9 ff ff 	movq   $0x0,-0x650(%rbp)
    ef62:	00 00 00 00 
    ef66:	48 c7 85 b8 f9 ff ff 	movq   $0x0,-0x648(%rbp)
    ef6d:	00 00 00 00 
    ef71:	48 8d 85 80 f4 ff ff 	lea    -0xb80(%rbp),%rax
    ef78:	48 83 c0 18          	add    $0x18,%rax
    ef7c:	48 89 85 c0 f9 ff ff 	mov    %rax,-0x640(%rbp)
    ef83:	48 c7 85 c8 f9 ff ff 	movq   $0x0,-0x638(%rbp)
    ef8a:	00 00 00 00 
    ef8e:	48 8d 85 80 f4 ff ff 	lea    -0xb80(%rbp),%rax
    ef95:	48 05 a8 00 00 00    	add    $0xa8,%rax
    ef9b:	48 89 85 d0 f9 ff ff 	mov    %rax,-0x630(%rbp)
    efa2:	48 8d 85 80 f4 ff ff 	lea    -0xb80(%rbp),%rax
    efa9:	48 83 c0 78          	add    $0x78,%rax
    efad:	48 89 85 d8 f9 ff ff 	mov    %rax,-0x628(%rbp)
    efb4:	48 c7 85 e0 f9 ff ff 	movq   $0x0,-0x620(%rbp)
    efbb:	00 00 00 00 
    efbf:	48 c7 85 e8 f9 ff ff 	movq   $0x0,-0x618(%rbp)
    efc6:	00 00 00 00 
    efca:	48 8d 85 80 f4 ff ff 	lea    -0xb80(%rbp),%rax
    efd1:	48 05 a8 00 00 00    	add    $0xa8,%rax
    efd7:	48 89 85 f0 f9 ff ff 	mov    %rax,-0x610(%rbp)
    efde:	48 8d 05 d3 e2 00 00 	lea    0xe2d3(%rip),%rax        # 1d2b8 <g_1225>
    efe5:	48 89 85 f8 f9 ff ff 	mov    %rax,-0x608(%rbp)
    efec:	48 8d 85 80 f4 ff ff 	lea    -0xb80(%rbp),%rax
    eff3:	48 83 c0 58          	add    $0x58,%rax
    eff7:	48 89 85 00 fa ff ff 	mov    %rax,-0x600(%rbp)
    effe:	48 8d 85 80 f4 ff ff 	lea    -0xb80(%rbp),%rax
    f005:	48 05 a8 00 00 00    	add    $0xa8,%rax
    f00b:	48 89 85 08 fa ff ff 	mov    %rax,-0x5f8(%rbp)
    f012:	48 8d 85 80 f4 ff ff 	lea    -0xb80(%rbp),%rax
    f019:	48 05 a8 00 00 00    	add    $0xa8,%rax
    f01f:	48 89 85 10 fa ff ff 	mov    %rax,-0x5f0(%rbp)
    f026:	48 8d 85 80 f4 ff ff 	lea    -0xb80(%rbp),%rax
    f02d:	48 05 18 01 00 00    	add    $0x118,%rax
    f033:	48 89 85 18 fa ff ff 	mov    %rax,-0x5e8(%rbp)
    f03a:	48 8d 05 77 e2 00 00 	lea    0xe277(%rip),%rax        # 1d2b8 <g_1225>
    f041:	48 89 85 20 fa ff ff 	mov    %rax,-0x5e0(%rbp)
    f048:	48 8d 85 80 f4 ff ff 	lea    -0xb80(%rbp),%rax
    f04f:	48 05 a8 00 00 00    	add    $0xa8,%rax
    f055:	48 89 85 28 fa ff ff 	mov    %rax,-0x5d8(%rbp)
    f05c:	48 8d 05 55 e2 00 00 	lea    0xe255(%rip),%rax        # 1d2b8 <g_1225>
    f063:	48 89 85 30 fa ff ff 	mov    %rax,-0x5d0(%rbp)
    f06a:	48 8d 85 80 f4 ff ff 	lea    -0xb80(%rbp),%rax
    f071:	48 05 a8 00 00 00    	add    $0xa8,%rax
    f077:	48 89 85 38 fa ff ff 	mov    %rax,-0x5c8(%rbp)
    f07e:	48 c7 85 40 fa ff ff 	movq   $0x0,-0x5c0(%rbp)
    f085:	00 00 00 00 
    f089:	48 8d 85 80 f4 ff ff 	lea    -0xb80(%rbp),%rax
    f090:	48 05 a8 00 00 00    	add    $0xa8,%rax
    f096:	48 89 85 48 fa ff ff 	mov    %rax,-0x5b8(%rbp)
    f09d:	48 8d 05 14 e2 00 00 	lea    0xe214(%rip),%rax        # 1d2b8 <g_1225>
    f0a4:	48 89 85 50 fa ff ff 	mov    %rax,-0x5b0(%rbp)
    f0ab:	48 8d 85 80 f4 ff ff 	lea    -0xb80(%rbp),%rax
    f0b2:	48 05 a8 00 00 00    	add    $0xa8,%rax
    f0b8:	48 89 85 58 fa ff ff 	mov    %rax,-0x5a8(%rbp)
    f0bf:	48 8d 85 80 f4 ff ff 	lea    -0xb80(%rbp),%rax
    f0c6:	48 05 a8 00 00 00    	add    $0xa8,%rax
    f0cc:	48 89 85 60 fa ff ff 	mov    %rax,-0x5a0(%rbp)
    f0d3:	48 c7 85 68 fa ff ff 	movq   $0x0,-0x598(%rbp)
    f0da:	00 00 00 00 
    f0de:	48 8d 05 d3 e1 00 00 	lea    0xe1d3(%rip),%rax        # 1d2b8 <g_1225>
    f0e5:	48 89 85 70 fa ff ff 	mov    %rax,-0x590(%rbp)
    f0ec:	48 c7 85 78 fa ff ff 	movq   $0x0,-0x588(%rbp)
    f0f3:	00 00 00 00 
    f0f7:	48 8d 05 ba e1 00 00 	lea    0xe1ba(%rip),%rax        # 1d2b8 <g_1225>
    f0fe:	48 89 85 80 fa ff ff 	mov    %rax,-0x580(%rbp)
    f105:	48 c7 85 88 fa ff ff 	movq   $0x0,-0x578(%rbp)
    f10c:	00 00 00 00 
    f110:	48 c7 85 90 fa ff ff 	movq   $0x0,-0x570(%rbp)
    f117:	00 00 00 00 
    f11b:	48 8d 85 80 f4 ff ff 	lea    -0xb80(%rbp),%rax
    f122:	48 83 c0 68          	add    $0x68,%rax
    f126:	48 89 85 98 fa ff ff 	mov    %rax,-0x568(%rbp)
    f12d:	48 8d 85 80 f4 ff ff 	lea    -0xb80(%rbp),%rax
    f134:	48 05 a8 00 00 00    	add    $0xa8,%rax
    f13a:	48 89 85 a0 fa ff ff 	mov    %rax,-0x560(%rbp)
    f141:	48 8d 05 70 e1 00 00 	lea    0xe170(%rip),%rax        # 1d2b8 <g_1225>
    f148:	48 89 85 a8 fa ff ff 	mov    %rax,-0x558(%rbp)
    f14f:	48 8d 85 80 f4 ff ff 	lea    -0xb80(%rbp),%rax
    f156:	48 83 c0 18          	add    $0x18,%rax
    f15a:	48 89 85 b0 fa ff ff 	mov    %rax,-0x550(%rbp)
    f161:	48 c7 85 b8 fa ff ff 	movq   $0x0,-0x548(%rbp)
    f168:	00 00 00 00 
    f16c:	48 c7 85 c0 fa ff ff 	movq   $0x0,-0x540(%rbp)
    f173:	00 00 00 00 
    f177:	48 c7 85 c8 fa ff ff 	movq   $0x0,-0x538(%rbp)
    f17e:	00 00 00 00 
    f182:	48 c7 85 d0 fa ff ff 	movq   $0x0,-0x530(%rbp)
    f189:	00 00 00 00 
    f18d:	48 c7 85 d8 fa ff ff 	movq   $0x0,-0x528(%rbp)
    f194:	00 00 00 00 
    f198:	48 8d 85 80 f4 ff ff 	lea    -0xb80(%rbp),%rax
    f19f:	48 05 a8 00 00 00    	add    $0xa8,%rax
    f1a5:	48 89 85 e0 fa ff ff 	mov    %rax,-0x520(%rbp)
    f1ac:	48 8d 05 05 e1 00 00 	lea    0xe105(%rip),%rax        # 1d2b8 <g_1225>
    f1b3:	48 89 85 e8 fa ff ff 	mov    %rax,-0x518(%rbp)
    f1ba:	48 8d 85 80 f4 ff ff 	lea    -0xb80(%rbp),%rax
    f1c1:	48 05 a8 00 00 00    	add    $0xa8,%rax
    f1c7:	48 89 85 f0 fa ff ff 	mov    %rax,-0x510(%rbp)
    f1ce:	48 8d 85 80 f4 ff ff 	lea    -0xb80(%rbp),%rax
    f1d5:	48 05 a8 00 00 00    	add    $0xa8,%rax
    f1db:	48 89 85 f8 fa ff ff 	mov    %rax,-0x508(%rbp)
    f1e2:	48 c7 85 00 fb ff ff 	movq   $0x0,-0x500(%rbp)
    f1e9:	00 00 00 00 
    f1ed:	48 c7 85 08 fb ff ff 	movq   $0x0,-0x4f8(%rbp)
    f1f4:	00 00 00 00 
    f1f8:	48 8d 85 80 f4 ff ff 	lea    -0xb80(%rbp),%rax
    f1ff:	48 83 c0 18          	add    $0x18,%rax
    f203:	48 89 85 10 fb ff ff 	mov    %rax,-0x4f0(%rbp)
    f20a:	48 c7 85 18 fb ff ff 	movq   $0x0,-0x4e8(%rbp)
    f211:	00 00 00 00 
    f215:	48 8d 05 9c e0 00 00 	lea    0xe09c(%rip),%rax        # 1d2b8 <g_1225>
    f21c:	48 89 85 20 fb ff ff 	mov    %rax,-0x4e0(%rbp)
    f223:	48 8d 85 80 f4 ff ff 	lea    -0xb80(%rbp),%rax
    f22a:	48 05 a8 00 00 00    	add    $0xa8,%rax
    f230:	48 89 85 28 fb ff ff 	mov    %rax,-0x4d8(%rbp)
    f237:	48 c7 85 30 fb ff ff 	movq   $0x0,-0x4d0(%rbp)
    f23e:	00 00 00 00 
    f242:	48 8d 85 80 f4 ff ff 	lea    -0xb80(%rbp),%rax
    f249:	48 05 a8 00 00 00    	add    $0xa8,%rax
    f24f:	48 89 85 38 fb ff ff 	mov    %rax,-0x4c8(%rbp)
    f256:	48 8d 05 5b e0 00 00 	lea    0xe05b(%rip),%rax        # 1d2b8 <g_1225>
    f25d:	48 89 85 40 fb ff ff 	mov    %rax,-0x4c0(%rbp)
    f264:	48 8d 85 80 f4 ff ff 	lea    -0xb80(%rbp),%rax
    f26b:	48 83 c0 58          	add    $0x58,%rax
    f26f:	48 89 85 48 fb ff ff 	mov    %rax,-0x4b8(%rbp)
    f276:	48 c7 85 50 fb ff ff 	movq   $0x0,-0x4b0(%rbp)
    f27d:	00 00 00 00 
    f281:	48 c7 85 58 fb ff ff 	movq   $0x0,-0x4a8(%rbp)
    f288:	00 00 00 00 
    f28c:	48 8d 85 80 f4 ff ff 	lea    -0xb80(%rbp),%rax
    f293:	48 05 a8 00 00 00    	add    $0xa8,%rax
    f299:	48 89 85 60 fb ff ff 	mov    %rax,-0x4a0(%rbp)
    f2a0:	48 8d 85 80 f4 ff ff 	lea    -0xb80(%rbp),%rax
    f2a7:	48 05 a8 00 00 00    	add    $0xa8,%rax
    f2ad:	48 89 85 68 fb ff ff 	mov    %rax,-0x498(%rbp)
    f2b4:	48 8d 05 fd df 00 00 	lea    0xdffd(%rip),%rax        # 1d2b8 <g_1225>
    f2bb:	48 89 85 70 fb ff ff 	mov    %rax,-0x490(%rbp)
    f2c2:	48 8d 85 80 f4 ff ff 	lea    -0xb80(%rbp),%rax
    f2c9:	48 05 f8 00 00 00    	add    $0xf8,%rax
    f2cf:	48 89 85 78 fb ff ff 	mov    %rax,-0x488(%rbp)
    f2d6:	48 c7 85 80 fb ff ff 	movq   $0x0,-0x480(%rbp)
    f2dd:	00 00 00 00 
    f2e1:	48 8d 85 80 f4 ff ff 	lea    -0xb80(%rbp),%rax
    f2e8:	48 05 a8 00 00 00    	add    $0xa8,%rax
    f2ee:	48 89 85 88 fb ff ff 	mov    %rax,-0x478(%rbp)
    f2f5:	48 8d 85 80 f4 ff ff 	lea    -0xb80(%rbp),%rax
    f2fc:	48 05 a8 00 00 00    	add    $0xa8,%rax
    f302:	48 89 85 90 fb ff ff 	mov    %rax,-0x470(%rbp)
    f309:	48 c7 85 98 fb ff ff 	movq   $0x0,-0x468(%rbp)
    f310:	00 00 00 00 
    f314:	48 8d 05 9d df 00 00 	lea    0xdf9d(%rip),%rax        # 1d2b8 <g_1225>
    f31b:	48 89 85 a0 fb ff ff 	mov    %rax,-0x460(%rbp)
    f322:	48 8d 85 80 f4 ff ff 	lea    -0xb80(%rbp),%rax
    f329:	48 05 18 01 00 00    	add    $0x118,%rax
    f32f:	48 89 85 a8 fb ff ff 	mov    %rax,-0x458(%rbp)
    f336:	48 8d 85 80 f4 ff ff 	lea    -0xb80(%rbp),%rax
    f33d:	48 05 a8 00 00 00    	add    $0xa8,%rax
    f343:	48 89 85 b0 fb ff ff 	mov    %rax,-0x450(%rbp)
    f34a:	48 8d 85 80 f4 ff ff 	lea    -0xb80(%rbp),%rax
    f351:	48 83 c0 38          	add    $0x38,%rax
    f355:	48 89 85 b8 fb ff ff 	mov    %rax,-0x448(%rbp)
    f35c:	48 8d 05 55 df 00 00 	lea    0xdf55(%rip),%rax        # 1d2b8 <g_1225>
    f363:	48 89 85 c0 fb ff ff 	mov    %rax,-0x440(%rbp)
    f36a:	48 c7 85 c8 fb ff ff 	movq   $0x0,-0x438(%rbp)
    f371:	00 00 00 00 
    f375:	48 8d 85 80 f4 ff ff 	lea    -0xb80(%rbp),%rax
    f37c:	48 05 a8 00 00 00    	add    $0xa8,%rax
    f382:	48 89 85 d0 fb ff ff 	mov    %rax,-0x430(%rbp)
    f389:	48 8d 85 80 f4 ff ff 	lea    -0xb80(%rbp),%rax
    f390:	48 05 a8 00 00 00    	add    $0xa8,%rax
    f396:	48 89 85 d8 fb ff ff 	mov    %rax,-0x428(%rbp)
    f39d:	48 c7 85 e0 fb ff ff 	movq   $0x0,-0x420(%rbp)
    f3a4:	00 00 00 00 
    f3a8:	48 c7 85 e8 fb ff ff 	movq   $0x0,-0x418(%rbp)
    f3af:	00 00 00 00 
    f3b3:	48 8d 05 fe de 00 00 	lea    0xdefe(%rip),%rax        # 1d2b8 <g_1225>
    f3ba:	48 89 85 f0 fb ff ff 	mov    %rax,-0x410(%rbp)
    f3c1:	48 c7 85 f8 fb ff ff 	movq   $0x0,-0x408(%rbp)
    f3c8:	00 00 00 00 
    f3cc:	48 8d 85 80 f4 ff ff 	lea    -0xb80(%rbp),%rax
    f3d3:	48 83 c0 18          	add    $0x18,%rax
    f3d7:	48 89 85 00 fc ff ff 	mov    %rax,-0x400(%rbp)
    f3de:	48 8d 85 80 f4 ff ff 	lea    -0xb80(%rbp),%rax
    f3e5:	48 05 a8 00 00 00    	add    $0xa8,%rax
    f3eb:	48 89 85 08 fc ff ff 	mov    %rax,-0x3f8(%rbp)
    f3f2:	48 c7 85 10 fc ff ff 	movq   $0x0,-0x3f0(%rbp)
    f3f9:	00 00 00 00 
    f3fd:	48 c7 85 18 fc ff ff 	movq   $0x0,-0x3e8(%rbp)
    f404:	00 00 00 00 
    f408:	48 8d 85 80 f4 ff ff 	lea    -0xb80(%rbp),%rax
    f40f:	48 05 f8 00 00 00    	add    $0xf8,%rax
    f415:	48 89 85 20 fc ff ff 	mov    %rax,-0x3e0(%rbp)
    f41c:	48 8d 05 95 de 00 00 	lea    0xde95(%rip),%rax        # 1d2b8 <g_1225>
    f423:	48 89 85 28 fc ff ff 	mov    %rax,-0x3d8(%rbp)
    f42a:	48 8d 85 80 f4 ff ff 	lea    -0xb80(%rbp),%rax
    f431:	48 05 a8 00 00 00    	add    $0xa8,%rax
    f437:	48 89 85 30 fc ff ff 	mov    %rax,-0x3d0(%rbp)
    f43e:	48 8d 85 80 f4 ff ff 	lea    -0xb80(%rbp),%rax
    f445:	48 83 c0 58          	add    $0x58,%rax
    f449:	48 89 85 38 fc ff ff 	mov    %rax,-0x3c8(%rbp)
    f450:	48 8d 85 80 f4 ff ff 	lea    -0xb80(%rbp),%rax
    f457:	48 05 a8 00 00 00    	add    $0xa8,%rax
    f45d:	48 89 85 40 fc ff ff 	mov    %rax,-0x3c0(%rbp)
    f464:	48 8d 85 80 f4 ff ff 	lea    -0xb80(%rbp),%rax
    f46b:	48 05 e0 00 00 00    	add    $0xe0,%rax
    f471:	48 89 85 48 fc ff ff 	mov    %rax,-0x3b8(%rbp)
    f478:	48 c7 85 50 fc ff ff 	movq   $0x0,-0x3b0(%rbp)
    f47f:	00 00 00 00 
    f483:	48 8d 85 80 f4 ff ff 	lea    -0xb80(%rbp),%rax
    f48a:	48 05 a8 00 00 00    	add    $0xa8,%rax
    f490:	48 89 85 58 fc ff ff 	mov    %rax,-0x3a8(%rbp)
    f497:	48 8d 85 80 f4 ff ff 	lea    -0xb80(%rbp),%rax
    f49e:	48 05 a8 00 00 00    	add    $0xa8,%rax
    f4a4:	48 89 85 60 fc ff ff 	mov    %rax,-0x3a0(%rbp)
    f4ab:	48 8d 85 80 f4 ff ff 	lea    -0xb80(%rbp),%rax
    f4b2:	48 05 a8 00 00 00    	add    $0xa8,%rax
    f4b8:	48 89 85 68 fc ff ff 	mov    %rax,-0x398(%rbp)
    f4bf:	48 c7 85 70 fc ff ff 	movq   $0x0,-0x390(%rbp)
    f4c6:	00 00 00 00 
    f4ca:	48 8d 85 80 f4 ff ff 	lea    -0xb80(%rbp),%rax
    f4d1:	48 83 c0 68          	add    $0x68,%rax
    f4d5:	48 89 85 78 fc ff ff 	mov    %rax,-0x388(%rbp)
    f4dc:	48 c7 85 80 fc ff ff 	movq   $0x0,-0x380(%rbp)
    f4e3:	00 00 00 00 
    f4e7:	48 8d 85 80 f4 ff ff 	lea    -0xb80(%rbp),%rax
    f4ee:	48 05 a8 00 00 00    	add    $0xa8,%rax
    f4f4:	48 89 85 88 fc ff ff 	mov    %rax,-0x378(%rbp)
    f4fb:	48 c7 85 90 fc ff ff 	movq   $0x0,-0x370(%rbp)
    f502:	00 00 00 00 
    f506:	48 8d 85 80 f4 ff ff 	lea    -0xb80(%rbp),%rax
    f50d:	48 05 a8 00 00 00    	add    $0xa8,%rax
    f513:	48 89 85 98 fc ff ff 	mov    %rax,-0x368(%rbp)
    f51a:	48 8d 05 97 dd 00 00 	lea    0xdd97(%rip),%rax        # 1d2b8 <g_1225>
    f521:	48 89 85 a0 fc ff ff 	mov    %rax,-0x360(%rbp)
    f528:	48 8d 85 80 f4 ff ff 	lea    -0xb80(%rbp),%rax
    f52f:	48 83 c0 38          	add    $0x38,%rax
    f533:	48 89 85 a8 fc ff ff 	mov    %rax,-0x358(%rbp)
    f53a:	48 c7 85 b0 fc ff ff 	movq   $0x0,-0x350(%rbp)
    f541:	00 00 00 00 
    f545:	48 c7 85 b8 fc ff ff 	movq   $0x0,-0x348(%rbp)
    f54c:	00 00 00 00 
    f550:	48 c7 85 c0 fc ff ff 	movq   $0x0,-0x340(%rbp)
    f557:	00 00 00 00 
    f55b:	48 8d 85 80 f4 ff ff 	lea    -0xb80(%rbp),%rax
    f562:	48 05 a8 00 00 00    	add    $0xa8,%rax
    f568:	48 89 85 c8 fc ff ff 	mov    %rax,-0x338(%rbp)
    f56f:	48 8d 85 80 f4 ff ff 	lea    -0xb80(%rbp),%rax
    f576:	48 05 a8 00 00 00    	add    $0xa8,%rax
    f57c:	48 89 85 d0 fc ff ff 	mov    %rax,-0x330(%rbp)
    f583:	48 8d 85 80 f4 ff ff 	lea    -0xb80(%rbp),%rax
    f58a:	48 05 a8 00 00 00    	add    $0xa8,%rax
    f590:	48 89 85 d8 fc ff ff 	mov    %rax,-0x328(%rbp)
    f597:	48 8d 05 1a dd 00 00 	lea    0xdd1a(%rip),%rax        # 1d2b8 <g_1225>
    f59e:	48 89 85 e0 fc ff ff 	mov    %rax,-0x320(%rbp)
    f5a5:	48 c7 85 e8 fc ff ff 	movq   $0x0,-0x318(%rbp)
    f5ac:	00 00 00 00 
    f5b0:	48 8d 05 01 dd 00 00 	lea    0xdd01(%rip),%rax        # 1d2b8 <g_1225>
    f5b7:	48 89 85 f0 fc ff ff 	mov    %rax,-0x310(%rbp)
    f5be:	48 8d 85 80 f4 ff ff 	lea    -0xb80(%rbp),%rax
    f5c5:	48 05 a8 00 00 00    	add    $0xa8,%rax
    f5cb:	48 89 85 f8 fc ff ff 	mov    %rax,-0x308(%rbp)
    f5d2:	48 c7 85 00 fd ff ff 	movq   $0x0,-0x300(%rbp)
    f5d9:	00 00 00 00 
    f5dd:	48 8d 05 d4 dc 00 00 	lea    0xdcd4(%rip),%rax        # 1d2b8 <g_1225>
    f5e4:	48 89 85 08 fd ff ff 	mov    %rax,-0x2f8(%rbp)
    f5eb:	48 8d 85 80 f4 ff ff 	lea    -0xb80(%rbp),%rax
    f5f2:	48 05 a8 00 00 00    	add    $0xa8,%rax
    f5f8:	48 89 85 10 fd ff ff 	mov    %rax,-0x2f0(%rbp)
    f5ff:	48 8d 05 b2 dc 00 00 	lea    0xdcb2(%rip),%rax        # 1d2b8 <g_1225>
    f606:	48 89 85 18 fd ff ff 	mov    %rax,-0x2e8(%rbp)
    f60d:	48 8d 05 a4 dc 00 00 	lea    0xdca4(%rip),%rax        # 1d2b8 <g_1225>
    f614:	48 89 85 20 fd ff ff 	mov    %rax,-0x2e0(%rbp)
    f61b:	48 8d 85 80 f4 ff ff 	lea    -0xb80(%rbp),%rax
    f622:	48 05 a8 00 00 00    	add    $0xa8,%rax
    f628:	48 89 85 28 fd ff ff 	mov    %rax,-0x2d8(%rbp)
    f62f:	48 c7 85 30 fd ff ff 	movq   $0x0,-0x2d0(%rbp)
    f636:	00 00 00 00 
    f63a:	48 8d 85 80 f4 ff ff 	lea    -0xb80(%rbp),%rax
    f641:	48 05 a8 00 00 00    	add    $0xa8,%rax
    f647:	48 89 85 38 fd ff ff 	mov    %rax,-0x2c8(%rbp)
    f64e:	48 8d 85 80 f4 ff ff 	lea    -0xb80(%rbp),%rax
    f655:	48 05 a8 00 00 00    	add    $0xa8,%rax
    f65b:	48 89 85 40 fd ff ff 	mov    %rax,-0x2c0(%rbp)
    f662:	48 c7 85 48 fd ff ff 	movq   $0x0,-0x2b8(%rbp)
    f669:	00 00 00 00 
    f66d:	48 8d 85 80 f4 ff ff 	lea    -0xb80(%rbp),%rax
    f674:	48 05 a8 00 00 00    	add    $0xa8,%rax
    f67a:	48 89 85 50 fd ff ff 	mov    %rax,-0x2b0(%rbp)
    f681:	48 8d 85 80 f4 ff ff 	lea    -0xb80(%rbp),%rax
    f688:	48 05 f8 00 00 00    	add    $0xf8,%rax
    f68e:	48 89 85 58 fd ff ff 	mov    %rax,-0x2a8(%rbp)
    f695:	48 c7 85 60 fd ff ff 	movq   $0x0,-0x2a0(%rbp)
    f69c:	00 00 00 00 
    f6a0:	48 8d 85 80 f4 ff ff 	lea    -0xb80(%rbp),%rax
    f6a7:	48 83 c0 10          	add    $0x10,%rax
    f6ab:	48 89 85 68 fd ff ff 	mov    %rax,-0x298(%rbp)
    f6b2:	48 8d 85 80 f4 ff ff 	lea    -0xb80(%rbp),%rax
    f6b9:	48 05 a8 00 00 00    	add    $0xa8,%rax
    f6bf:	48 89 85 70 fd ff ff 	mov    %rax,-0x290(%rbp)
    f6c6:	48 8d 85 80 f4 ff ff 	lea    -0xb80(%rbp),%rax
    f6cd:	48 83 c0 58          	add    $0x58,%rax
    f6d1:	48 89 85 78 fd ff ff 	mov    %rax,-0x288(%rbp)
    f6d8:	48 8d 05 d9 db 00 00 	lea    0xdbd9(%rip),%rax        # 1d2b8 <g_1225>
    f6df:	48 89 85 80 fd ff ff 	mov    %rax,-0x280(%rbp)
    f6e6:	48 8d 85 80 f4 ff ff 	lea    -0xb80(%rbp),%rax
    f6ed:	48 05 a8 00 00 00    	add    $0xa8,%rax
    f6f3:	48 89 85 88 fd ff ff 	mov    %rax,-0x278(%rbp)
    f6fa:	48 8d 85 80 f4 ff ff 	lea    -0xb80(%rbp),%rax
    f701:	48 05 a8 00 00 00    	add    $0xa8,%rax
    f707:	48 89 85 90 fd ff ff 	mov    %rax,-0x270(%rbp)
    f70e:	48 c7 85 98 fd ff ff 	movq   $0x0,-0x268(%rbp)
    f715:	00 00 00 00 
    f719:	48 8d 85 80 f4 ff ff 	lea    -0xb80(%rbp),%rax
    f720:	48 05 a8 00 00 00    	add    $0xa8,%rax
    f726:	48 89 85 a0 fd ff ff 	mov    %rax,-0x260(%rbp)
    f72d:	48 8d 85 80 f4 ff ff 	lea    -0xb80(%rbp),%rax
    f734:	48 05 a8 00 00 00    	add    $0xa8,%rax
    f73a:	48 89 85 a8 fd ff ff 	mov    %rax,-0x258(%rbp)
    f741:	48 8d 85 80 f4 ff ff 	lea    -0xb80(%rbp),%rax
    f748:	48 83 c0 10          	add    $0x10,%rax
    f74c:	48 89 85 b0 fd ff ff 	mov    %rax,-0x250(%rbp)
    f753:	48 8d 05 5e db 00 00 	lea    0xdb5e(%rip),%rax        # 1d2b8 <g_1225>
    f75a:	48 89 85 b8 fd ff ff 	mov    %rax,-0x248(%rbp)
    f761:	48 8d 05 50 db 00 00 	lea    0xdb50(%rip),%rax        # 1d2b8 <g_1225>
    f768:	48 89 85 c0 fd ff ff 	mov    %rax,-0x240(%rbp)
    f76f:	48 8d 05 42 db 00 00 	lea    0xdb42(%rip),%rax        # 1d2b8 <g_1225>
    f776:	48 89 85 c8 fd ff ff 	mov    %rax,-0x238(%rbp)
    f77d:	48 c7 85 d0 fd ff ff 	movq   $0x0,-0x230(%rbp)
    f784:	00 00 00 00 
    f788:	48 8d 85 80 f4 ff ff 	lea    -0xb80(%rbp),%rax
    f78f:	48 05 a8 00 00 00    	add    $0xa8,%rax
    f795:	48 89 85 d8 fd ff ff 	mov    %rax,-0x228(%rbp)
    f79c:	48 c7 85 e0 fd ff ff 	movq   $0x0,-0x220(%rbp)
    f7a3:	00 00 00 00 
    f7a7:	48 8d 85 80 f4 ff ff 	lea    -0xb80(%rbp),%rax
    f7ae:	48 83 c0 78          	add    $0x78,%rax
    f7b2:	48 89 85 e8 fd ff ff 	mov    %rax,-0x218(%rbp)
    f7b9:	48 8d 85 80 f4 ff ff 	lea    -0xb80(%rbp),%rax
    f7c0:	48 83 c0 18          	add    $0x18,%rax
    f7c4:	48 89 85 f0 fd ff ff 	mov    %rax,-0x210(%rbp)
    f7cb:	48 8d 85 80 f4 ff ff 	lea    -0xb80(%rbp),%rax
    f7d2:	48 83 c0 10          	add    $0x10,%rax
    f7d6:	48 89 85 f8 fd ff ff 	mov    %rax,-0x208(%rbp)
    f7dd:	48 8d 85 80 f4 ff ff 	lea    -0xb80(%rbp),%rax
    f7e4:	48 05 a8 00 00 00    	add    $0xa8,%rax
    f7ea:	48 89 85 00 fe ff ff 	mov    %rax,-0x200(%rbp)
    f7f1:	48 c7 85 08 fe ff ff 	movq   $0x0,-0x1f8(%rbp)
    f7f8:	00 00 00 00 
    f7fc:	48 8d 85 80 f4 ff ff 	lea    -0xb80(%rbp),%rax
    f803:	48 83 c0 10          	add    $0x10,%rax
    f807:	48 89 85 10 fe ff ff 	mov    %rax,-0x1f0(%rbp)
    f80e:	48 8d 85 80 f4 ff ff 	lea    -0xb80(%rbp),%rax
    f815:	48 05 a8 00 00 00    	add    $0xa8,%rax
    f81b:	48 89 85 18 fe ff ff 	mov    %rax,-0x1e8(%rbp)
    f822:	48 c7 85 20 fe ff ff 	movq   $0x0,-0x1e0(%rbp)
    f829:	00 00 00 00 
    f82d:	48 8d 85 80 f4 ff ff 	lea    -0xb80(%rbp),%rax
    f834:	48 05 98 00 00 00    	add    $0x98,%rax
    f83a:	48 89 85 28 fe ff ff 	mov    %rax,-0x1d8(%rbp)
    f841:	48 8d 05 70 da 00 00 	lea    0xda70(%rip),%rax        # 1d2b8 <g_1225>
    f848:	48 89 85 30 fe ff ff 	mov    %rax,-0x1d0(%rbp)
    f84f:	48 c7 85 38 fe ff ff 	movq   $0x0,-0x1c8(%rbp)
    f856:	00 00 00 00 
    f85a:	48 8d 85 80 f4 ff ff 	lea    -0xb80(%rbp),%rax
    f861:	48 83 c0 18          	add    $0x18,%rax
    f865:	48 89 85 40 fe ff ff 	mov    %rax,-0x1c0(%rbp)
    f86c:	48 8d 85 80 f4 ff ff 	lea    -0xb80(%rbp),%rax
    f873:	48 05 a8 00 00 00    	add    $0xa8,%rax
    f879:	48 89 85 48 fe ff ff 	mov    %rax,-0x1b8(%rbp)
    f880:	48 8d 85 80 f4 ff ff 	lea    -0xb80(%rbp),%rax
    f887:	48 05 a8 00 00 00    	add    $0xa8,%rax
    f88d:	48 89 85 50 fe ff ff 	mov    %rax,-0x1b0(%rbp)
    f894:	48 8d 85 80 f4 ff ff 	lea    -0xb80(%rbp),%rax
    f89b:	48 83 c0 58          	add    $0x58,%rax
    f89f:	48 89 85 58 fe ff ff 	mov    %rax,-0x1a8(%rbp)
    f8a6:	48 c7 85 60 fe ff ff 	movq   $0x0,-0x1a0(%rbp)
    f8ad:	00 00 00 00 
    f8b1:	48 c7 85 68 fe ff ff 	movq   $0x0,-0x198(%rbp)
    f8b8:	00 00 00 00 
    f8bc:	48 8d 85 e0 f7 ff ff 	lea    -0x820(%rbp),%rax
    f8c3:	48 05 58 01 00 00    	add    $0x158,%rax
    f8c9:	48 89 85 d8 e9 ff ff 	mov    %rax,-0x1628(%rbp)
    f8d0:	c7 85 7c e8 ff ff 00 	movl   $0x0,-0x1784(%rbp)
    f8d7:	00 00 00 
    f8da:	eb 19                	jmp    f8f5 <func_23+0x4df0>
    f8dc:	8b 85 7c e8 ff ff    	mov    -0x1784(%rbp),%eax
    f8e2:	48 98                	cltq   
    f8e4:	66 c7 84 45 00 ed ff 	movw   $0xf99f,-0x1300(%rbp,%rax,2)
    f8eb:	ff 9f f9 
    f8ee:	83 85 7c e8 ff ff 01 	addl   $0x1,-0x1784(%rbp)
    f8f5:	83 bd 7c e8 ff ff 09 	cmpl   $0x9,-0x1784(%rbp)
    f8fc:	7e de                	jle    f8dc <func_23+0x4dd7>
    f8fe:	c7 05 50 97 00 00 00 	movl   $0x0,0x9750(%rip)        # 19058 <g_110>
    f905:	00 00 00 
    f908:	eb 58                	jmp    f962 <func_23+0x4e5d>
    f90a:	48 c7 85 a0 ea ff ff 	movq   $0x0,-0x1560(%rbp)
    f911:	00 00 00 00 
    f915:	48 8d 05 7c d9 00 00 	lea    0xd97c(%rip),%rax        # 1d298 <g_220>
    f91c:	48 89 85 a8 ea ff ff 	mov    %rax,-0x1558(%rbp)
    f923:	48 8b 85 a8 ea ff ff 	mov    -0x1558(%rbp),%rax
    f92a:	48 8b 95 a0 ea ff ff 	mov    -0x1560(%rbp),%rdx
    f931:	48 89 10             	mov    %rdx,(%rax)
    f934:	48 8b 05 75 a6 00 00 	mov    0xa675(%rip),%rax        # 19fb0 <g_1221>
    f93b:	48 8b 15 76 a6 00 00 	mov    0xa676(%rip),%rdx        # 19fb8 <g_1221+0x8>
    f942:	48 8b 05 77 cc 00 00 	mov    0xcc77(%rip),%rax        # 1c5c0 <g_1224>
    f949:	48 8b 95 28 f5 ff ff 	mov    -0xad8(%rbp),%rdx
    f950:	48 89 10             	mov    %rdx,(%rax)
    f953:	8b 05 ff 96 00 00    	mov    0x96ff(%rip),%eax        # 19058 <g_110>
    f959:	83 c0 01             	add    $0x1,%eax
    f95c:	89 05 f6 96 00 00    	mov    %eax,0x96f6(%rip)        # 19058 <g_110>
    f962:	8b 05 f0 96 00 00    	mov    0x96f0(%rip),%eax        # 19058 <g_110>
    f968:	85 c0                	test   %eax,%eax
    f96a:	74 9e                	je     f90a <func_23+0x4e05>
    f96c:	66 c7 85 48 e8 ff ff 	movw   $0x0,-0x17b8(%rbp)
    f973:	00 00 
    f975:	e9 a2 01 00 00       	jmpq   fb1c <func_23+0x5017>
    f97a:	c7 85 c4 e8 ff ff f7 	movl   $0xfffffff7,-0x173c(%rbp)
    f981:	ff ff ff 
    f984:	48 8d 85 80 e9 ff ff 	lea    -0x1680(%rbp),%rax
    f98b:	48 89 85 90 ea ff ff 	mov    %rax,-0x1570(%rbp)
    f992:	48 c7 85 98 ea ff ff 	movq   $0x0,-0x1568(%rbp)
    f999:	00 00 00 00 
    f99d:	48 8b 85 88 e9 ff ff 	mov    -0x1678(%rbp),%rax
    f9a4:	8b 18                	mov    (%rax),%ebx
    f9a6:	48 8b 05 ab a2 00 00 	mov    0xa2ab(%rip),%rax        # 19c58 <g_987+0x8>
    f9ad:	48 c1 e8 20          	shr    $0x20,%rax
    f9b1:	83 e0 3f             	and    $0x3f,%eax
    f9b4:	44 0f b6 e0          	movzbl %al,%r12d
    f9b8:	48 8b 05 f1 c6 00 00 	mov    0xc6f1(%rip),%rax        # 1c0b0 <g_859>
    f9bf:	8b 00                	mov    (%rax),%eax
    f9c1:	41 89 c5             	mov    %eax,%r13d
    f9c4:	0f b6 05 b1 a0 00 00 	movzbl 0xa0b1(%rip),%eax        # 19a7c <g_587+0xc>
    f9cb:	83 e0 3f             	and    $0x3f,%eax
    f9ce:	0f b6 c0             	movzbl %al,%eax
    f9d1:	0f b7 15 c0 96 00 00 	movzwl 0x96c0(%rip),%edx        # 19098 <g_169>
    f9d8:	83 f2 01             	xor    $0x1,%edx
    f9db:	66 89 15 b6 96 00 00 	mov    %dx,0x96b6(%rip)        # 19098 <g_169>
    f9e2:	89 c6                	mov    %eax,%esi
    f9e4:	bf 02 00 00 00       	mov    $0x2,%edi
    f9e9:	e8 04 88 ff ff       	callq  81f2 <safe_sub_func_int8_t_s_s>
    f9ee:	be 0e 00 00 00       	mov    $0xe,%esi
    f9f3:	bf b2 21 00 00       	mov    $0x21b2,%edi
    f9f8:	e8 7d 94 ff ff       	callq  8e7a <safe_rshift_func_uint16_t_u_u>
    f9fd:	0f b7 d0             	movzwl %ax,%edx
    fa00:	48 8b 85 38 e8 ff ff 	mov    -0x17c8(%rbp),%rax
    fa07:	8b 00                	mov    (%rax),%eax
    fa09:	39 c2                	cmp    %eax,%edx
    fa0b:	0f 9e c0             	setle  %al
    fa0e:	0f b6 c0             	movzbl %al,%eax
    fa11:	39 85 c4 e8 ff ff    	cmp    %eax,-0x173c(%rbp)
    fa17:	0f 95 c0             	setne  %al
    fa1a:	0f b6 d0             	movzbl %al,%edx
    fa1d:	0f b7 85 10 ed ff ff 	movzwl -0x12f0(%rbp),%eax
    fa24:	0f b7 c0             	movzwl %ax,%eax
    fa27:	39 c2                	cmp    %eax,%edx
    fa29:	0f 95 c0             	setne  %al
    fa2c:	0f b6 c0             	movzbl %al,%eax
    fa2f:	44 89 ee             	mov    %r13d,%esi
    fa32:	89 c7                	mov    %eax,%edi
    fa34:	e8 ec 94 ff ff       	callq  8f25 <safe_div_func_uint32_t_u_u>
    fa39:	89 c2                	mov    %eax,%edx
    fa3b:	48 8b 85 90 ea ff ff 	mov    -0x1570(%rbp),%rax
    fa42:	48 89 10             	mov    %rdx,(%rax)
    fa45:	48 8b 85 90 ea ff ff 	mov    -0x1570(%rbp),%rax
    fa4c:	48 8b 10             	mov    (%rax),%rdx
    fa4f:	0f b6 85 59 e8 ff ff 	movzbl -0x17a7(%rbp),%eax
    fa56:	48 39 c2             	cmp    %rax,%rdx
    fa59:	0f 95 c0             	setne  %al
    fa5c:	0f b6 c0             	movzbl %al,%eax
    fa5f:	89 c7                	mov    %eax,%edi
    fa61:	e8 37 89 ff ff       	callq  839d <safe_unary_minus_func_int16_t_s>
    fa66:	0f be c0             	movsbl %al,%eax
    fa69:	be 03 00 00 00       	mov    $0x3,%esi
    fa6e:	89 c7                	mov    %eax,%edi
    fa70:	e8 79 88 ff ff       	callq  82ee <safe_lshift_func_int8_t_s_u>
    fa75:	0f b7 85 10 ed ff ff 	movzwl -0x12f0(%rbp),%eax
    fa7c:	0f be c0             	movsbl %al,%eax
    fa7f:	be 01 00 00 00       	mov    $0x1,%esi
    fa84:	89 c7                	mov    %eax,%edi
    fa86:	e8 63 88 ff ff       	callq  82ee <safe_lshift_func_int8_t_s_u>
    fa8b:	0f be c0             	movsbl %al,%eax
    fa8e:	41 39 c4             	cmp    %eax,%r12d
    fa91:	7f 07                	jg     fa9a <func_23+0x4f95>
    fa93:	b8 05 00 00 00       	mov    $0x5,%eax
    fa98:	eb 05                	jmp    fa9f <func_23+0x4f9a>
    fa9a:	b8 04 00 00 00       	mov    $0x4,%eax
    fa9f:	89 de                	mov    %ebx,%esi
    faa1:	89 c7                	mov    %eax,%edi
    faa3:	e8 8d 88 ff ff       	callq  8335 <safe_rshift_func_int8_t_s_s>
    faa8:	38 85 5a e8 ff ff    	cmp    %al,-0x17a6(%rbp)
    faae:	0f 95 c0             	setne  %al
    fab1:	0f b6 d0             	movzbl %al,%edx
    fab4:	48 8d 05 05 9f 00 00 	lea    0x9f05(%rip),%rax        # 199c0 <g_259>
    fabb:	48 8b 00             	mov    (%rax),%rax
    fabe:	48 39 c2             	cmp    %rax,%rdx
    fac1:	0f 95 c0             	setne  %al
    fac4:	0f b6 c0             	movzbl %al,%eax
    fac7:	21 85 88 e8 ff ff    	and    %eax,-0x1778(%rbp)
    facd:	ba 01 00 00 00       	mov    $0x1,%edx
    fad2:	8b 05 a0 9f 00 00    	mov    0x9fa0(%rip),%eax        # 19a78 <g_587+0x8>
    fad8:	c1 e0 05             	shl    $0x5,%eax
    fadb:	c1 f8 05             	sar    $0x5,%eax
    fade:	21 d0                	and    %edx,%eax
    fae0:	c1 e0 05             	shl    $0x5,%eax
    fae3:	c1 f8 05             	sar    $0x5,%eax
    fae6:	25 ff ff ff 07       	and    $0x7ffffff,%eax
    faeb:	89 c2                	mov    %eax,%edx
    faed:	8b 05 85 9f 00 00    	mov    0x9f85(%rip),%eax        # 19a78 <g_587+0x8>
    faf3:	25 00 00 00 f8       	and    $0xf8000000,%eax
    faf8:	09 d0                	or     %edx,%eax
    fafa:	89 05 78 9f 00 00    	mov    %eax,0x9f78(%rip)        # 19a78 <g_587+0x8>
    fb00:	48 8b 85 38 e8 ff ff 	mov    -0x17c8(%rbp),%rax
    fb07:	8b 00                	mov    (%rax),%eax
    fb09:	85 c0                	test   %eax,%eax
    fb0b:	0f b7 85 48 e8 ff ff 	movzwl -0x17b8(%rbp),%eax
    fb12:	83 e8 01             	sub    $0x1,%eax
    fb15:	66 89 85 48 e8 ff ff 	mov    %ax,-0x17b8(%rbp)
    fb1c:	66 83 bd 48 e8 ff ff 	cmpw   $0x0,-0x17b8(%rbp)
    fb23:	00 
    fb24:	0f 89 50 fe ff ff    	jns    f97a <func_23+0x4e75>
    fb2a:	48 8b 85 88 e9 ff ff 	mov    -0x1678(%rbp),%rax
    fb31:	8b 00                	mov    (%rax),%eax
    fb33:	3d 0f fd 00 00       	cmp    $0xfd0f,%eax
    fb38:	0f 9e c0             	setle  %al
    fb3b:	0f b6 d0             	movzbl %al,%edx
    fb3e:	0f b6 85 4c e8 ff ff 	movzbl -0x17b4(%rbp),%eax
    fb45:	89 d6                	mov    %edx,%esi
    fb47:	89 c7                	mov    %eax,%edi
    fb49:	e8 44 89 ff ff       	callq  8492 <safe_lshift_func_int16_t_s_s>
    fb4e:	48 0f bf c0          	movswq %ax,%rax
    fb52:	48 35 45 55 01 6f    	xor    $0x6f015545,%rax
    fb58:	48 89 c2             	mov    %rax,%rdx
    fb5b:	48 8b 05 5e c3 00 00 	mov    0xc35e(%rip),%rax        # 1bec0 <g_437>
    fb62:	48 89 10             	mov    %rdx,(%rax)
    fb65:	48 8b 00             	mov    (%rax),%rax
    fb68:	41 89 c4             	mov    %eax,%r12d
    fb6b:	48 8b 05 3e c3 00 00 	mov    0xc33e(%rip),%rax        # 1beb0 <g_202>
    fb72:	8b 18                	mov    (%rax),%ebx
    fb74:	0f be 85 5a e8 ff ff 	movsbl -0x17a6(%rbp),%eax
    fb7b:	0f b6 15 e0 a0 00 00 	movzbl 0xa0e0(%rip),%edx        # 19c62 <g_1033+0x2>
    fb82:	c0 ea 03             	shr    $0x3,%dl
    fb85:	0f b6 d2             	movzbl %dl,%edx
    fb88:	0f b6 0d d4 a0 00 00 	movzbl 0xa0d4(%rip),%ecx        # 19c63 <g_1033+0x3>
    fb8f:	48 c1 e1 05          	shl    $0x5,%rcx
    fb93:	48 09 d1             	or     %rdx,%rcx
    fb96:	0f b6 15 c7 a0 00 00 	movzbl 0xa0c7(%rip),%edx        # 19c64 <g_1033+0x4>
    fb9d:	48 c1 e2 0d          	shl    $0xd,%rdx
    fba1:	48 09 d1             	or     %rdx,%rcx
    fba4:	0f b6 15 ba a0 00 00 	movzbl 0xa0ba(%rip),%edx        # 19c65 <g_1033+0x5>
    fbab:	83 e2 07             	and    $0x7,%edx
    fbae:	48 c1 e2 15          	shl    $0x15,%rdx
    fbb2:	48 09 ca             	or     %rcx,%rdx
    fbb5:	39 d0                	cmp    %edx,%eax
    fbb7:	0f 95 c0             	setne  %al
    fbba:	0f b6 c0             	movzbl %al,%eax
    fbbd:	be 0b 00 00 00       	mov    $0xb,%esi
    fbc2:	89 c7                	mov    %eax,%edi
    fbc4:	e8 f5 91 ff ff       	callq  8dbe <safe_lshift_func_uint16_t_u_s>
    fbc9:	89 c2                	mov    %eax,%edx
    fbcb:	48 8b 85 58 e9 ff ff 	mov    -0x16a8(%rbp),%rax
    fbd2:	88 10                	mov    %dl,(%rax)
    fbd4:	0f b6 85 4c e8 ff ff 	movzbl -0x17b4(%rbp),%eax
    fbdb:	0f be c0             	movsbl %al,%eax
    fbde:	83 e0 01             	and    $0x1,%eax
    fbe1:	89 c7                	mov    %eax,%edi
    fbe3:	e8 d7 85 ff ff       	callq  81bf <safe_unary_minus_func_int8_t_s>
    fbe8:	0f be d0             	movsbl %al,%edx
    fbeb:	48 8b 05 be a3 00 00 	mov    0xa3be(%rip),%rax        # 19fb0 <g_1221>
    fbf2:	c1 e0 05             	shl    $0x5,%eax
    fbf5:	c1 f8 10             	sar    $0x10,%eax
    fbf8:	98                   	cwtl   
    fbf9:	09 d0                	or     %edx,%eax
    fbfb:	89 de                	mov    %ebx,%esi
    fbfd:	89 c7                	mov    %eax,%edi
    fbff:	e8 b2 89 ff ff       	callq  85b6 <safe_add_func_int32_t_s_s>
    fc04:	44 31 e0             	xor    %r12d,%eax
    fc07:	0f b6 d0             	movzbl %al,%edx
    fc0a:	48 8b 85 88 e9 ff ff 	mov    -0x1678(%rbp),%rax
    fc11:	8b 00                	mov    (%rax),%eax
    fc13:	0f b6 c0             	movzbl %al,%eax
    fc16:	89 d6                	mov    %edx,%esi
    fc18:	89 c7                	mov    %eax,%edi
    fc1a:	e8 8f 8f ff ff       	callq  8bae <safe_mod_func_uint8_t_u_u>
    fc1f:	89 c2                	mov    %eax,%edx
    fc21:	48 8b 85 88 e9 ff ff 	mov    -0x1678(%rbp),%rax
    fc28:	0f b6 d2             	movzbl %dl,%edx
    fc2b:	89 10                	mov    %edx,(%rax)
    fc2d:	8b 00                	mov    (%rax),%eax
    fc2f:	48 98                	cltq   
    fc31:	48 39 85 58 ea ff ff 	cmp    %rax,-0x15a8(%rbp)
    fc38:	0f 95 c0             	setne  %al
    fc3b:	0f b6 d0             	movzbl %al,%edx
    fc3e:	48 8d 05 7b 9d 00 00 	lea    0x9d7b(%rip),%rax        # 199c0 <g_259>
    fc45:	48 8b 00             	mov    (%rax),%rax
    fc48:	48 39 c2             	cmp    %rax,%rdx
    fc4b:	0f 9f c0             	setg   %al
    fc4e:	0f b6 c0             	movzbl %al,%eax
    fc51:	be 09 00 00 00       	mov    $0x9,%esi
    fc56:	89 c7                	mov    %eax,%edi
    fc58:	e8 1d 92 ff ff       	callq  8e7a <safe_rshift_func_uint16_t_u_u>
    fc5d:	0f b7 c0             	movzwl %ax,%eax
    fc60:	48 ba 2c 1d 0b f8 01 	movabs $0xd2e40d01f80b1d2c,%rdx
    fc67:	0d e4 d2 
    fc6a:	48 09 c2             	or     %rax,%rdx
    fc6d:	0f b6 85 4c e8 ff ff 	movzbl -0x17b4(%rbp),%eax
    fc74:	48 39 c2             	cmp    %rax,%rdx
    fc77:	74 36                	je     fcaf <func_23+0x51aa>
    fc79:	48 8d 85 88 e9 ff ff 	lea    -0x1678(%rbp),%rax
    fc80:	48 89 85 88 ea ff ff 	mov    %rax,-0x1578(%rbp)
    fc87:	48 8b 05 22 c2 00 00 	mov    0xc222(%rip),%rax        # 1beb0 <g_202>
    fc8e:	48 8b 95 38 e8 ff ff 	mov    -0x17c8(%rbp),%rdx
    fc95:	8b 12                	mov    (%rdx),%edx
    fc97:	89 10                	mov    %edx,(%rax)
    fc99:	48 8b 85 88 ea ff ff 	mov    -0x1578(%rbp),%rax
    fca0:	48 8b 95 08 ea ff ff 	mov    -0x15f8(%rbp),%rdx
    fca7:	48 89 10             	mov    %rdx,(%rax)
    fcaa:	e9 2a 02 00 00       	jmpq   fed9 <func_23+0x53d4>
    fcaf:	48 c7 85 78 ea ff ff 	movq   $0x0,-0x1588(%rbp)
    fcb6:	00 00 00 00 
    fcba:	48 8d 85 d8 e9 ff ff 	lea    -0x1628(%rbp),%rax
    fcc1:	48 89 85 40 ed ff ff 	mov    %rax,-0x12c0(%rbp)
    fcc8:	48 8d 85 d8 e9 ff ff 	lea    -0x1628(%rbp),%rax
    fccf:	48 89 85 48 ed ff ff 	mov    %rax,-0x12b8(%rbp)
    fcd6:	48 8d 85 d8 e9 ff ff 	lea    -0x1628(%rbp),%rax
    fcdd:	48 89 85 50 ed ff ff 	mov    %rax,-0x12b0(%rbp)
    fce4:	48 8d 85 d8 e9 ff ff 	lea    -0x1628(%rbp),%rax
    fceb:	48 89 85 58 ed ff ff 	mov    %rax,-0x12a8(%rbp)
    fcf2:	48 8d 85 d8 e9 ff ff 	lea    -0x1628(%rbp),%rax
    fcf9:	48 89 85 60 ed ff ff 	mov    %rax,-0x12a0(%rbp)
    fd00:	48 8d 85 d8 e9 ff ff 	lea    -0x1628(%rbp),%rax
    fd07:	48 89 85 68 ed ff ff 	mov    %rax,-0x1298(%rbp)
    fd0e:	48 8d 85 d8 e9 ff ff 	lea    -0x1628(%rbp),%rax
    fd15:	48 89 85 70 ed ff ff 	mov    %rax,-0x1290(%rbp)
    fd1c:	48 8d 85 d8 e9 ff ff 	lea    -0x1628(%rbp),%rax
    fd23:	48 89 85 78 ed ff ff 	mov    %rax,-0x1288(%rbp)
    fd2a:	48 c7 85 80 ea ff ff 	movq   $0x0,-0x1580(%rbp)
    fd31:	00 00 00 00 
    fd35:	c7 85 c0 e8 ff ff e2 	movl   $0x1469ebe2,-0x1740(%rbp)
    fd3c:	eb 69 14 
    fd3f:	c7 85 80 e8 ff ff 00 	movl   $0x0,-0x1780(%rbp)
    fd46:	00 00 00 
    fd49:	eb 1e                	jmp    fd69 <func_23+0x5264>
    fd4b:	8b 85 80 e8 ff ff    	mov    -0x1780(%rbp),%eax
    fd51:	48 98                	cltq   
    fd53:	48 8d 95 80 e9 ff ff 	lea    -0x1680(%rbp),%rdx
    fd5a:	48 89 94 c5 60 ec ff 	mov    %rdx,-0x13a0(%rbp,%rax,8)
    fd61:	ff 
    fd62:	83 85 80 e8 ff ff 01 	addl   $0x1,-0x1780(%rbp)
    fd69:	83 bd 80 e8 ff ff 01 	cmpl   $0x1,-0x1780(%rbp)
    fd70:	7e d9                	jle    fd4b <func_23+0x5246>
    fd72:	48 8b 85 38 e8 ff ff 	mov    -0x17c8(%rbp),%rax
    fd79:	8b 00                	mov    (%rax),%eax
    fd7b:	85 c0                	test   %eax,%eax
    fd7d:	0f 85 82 01 00 00    	jne    ff05 <func_23+0x5400>
    fd83:	0f b7 85 48 e8 ff ff 	movzwl -0x17b8(%rbp),%eax
    fd8a:	0f b7 d8             	movzwl %ax,%ebx
    fd8d:	0f b7 85 0e ed ff ff 	movzwl -0x12f2(%rbp),%eax
    fd94:	44 0f b7 e0          	movzwl %ax,%r12d
    fd98:	c6 05 31 a2 00 00 05 	movb   $0x5,0xa231(%rip)        # 19fd0 <g_1285>
    fd9f:	48 8b 05 72 c7 00 00 	mov    0xc772(%rip),%rax        # 1c518 <g_887>
    fda6:	48 8b 00             	mov    (%rax),%rax
    fda9:	0f b7 00             	movzwl (%rax),%eax
    fdac:	48 8b 05 f5 c7 00 00 	mov    0xc7f5(%rip),%rax        # 1c5a8 <g_1117>
    fdb3:	48 8b 95 f0 e9 ff ff 	mov    -0x1610(%rbp),%rdx
    fdba:	48 89 10             	mov    %rdx,(%rax)
    fdbd:	48 8b 00             	mov    (%rax),%rax
    fdc0:	48 85 c0             	test   %rax,%rax
    fdc3:	0f 95 c0             	setne  %al
    fdc6:	0f b6 c0             	movzbl %al,%eax
    fdc9:	48 c7 c6 ff ff ff ff 	mov    $0xffffffffffffffff,%rsi
    fdd0:	48 89 c7             	mov    %rax,%rdi
    fdd3:	e8 d0 8a ff ff       	callq  88a8 <safe_sub_func_int64_t_s_s>
    fdd8:	89 c2                	mov    %eax,%edx
    fdda:	48 8b 85 d8 e9 ff ff 	mov    -0x1628(%rbp),%rax
    fde1:	48 89 05 18 d0 00 00 	mov    %rax,0xd018(%rip)        # 1ce00 <g_1282>
    fde8:	89 d6                	mov    %edx,%esi
    fdea:	bf 01 00 00 00       	mov    $0x1,%edi
    fdef:	e8 31 91 ff ff       	callq  8f25 <safe_div_func_uint32_t_u_u>
    fdf4:	0f bf 85 48 e8 ff ff 	movswl -0x17b8(%rbp),%eax
    fdfb:	89 85 54 ee ff ff    	mov    %eax,-0x11ac(%rbp)
    fe01:	8b 85 54 ee ff ff    	mov    -0x11ac(%rbp),%eax
    fe07:	48 98                	cltq   
    fe09:	be 01 00 00 00       	mov    $0x1,%esi
    fe0e:	48 89 c7             	mov    %rax,%rdi
    fe11:	e8 92 8a ff ff       	callq  88a8 <safe_sub_func_int64_t_s_s>
    fe16:	4c 89 e6             	mov    %r12,%rsi
    fe19:	48 89 c7             	mov    %rax,%rdi
    fe1c:	e8 2a 92 ff ff       	callq  904b <safe_sub_func_uint64_t_u_u>
    fe21:	48 83 c8 01          	or     $0x1,%rax
    fe25:	48 89 c2             	mov    %rax,%rdx
    fe28:	0f b6 85 59 e8 ff ff 	movzbl -0x17a7(%rbp),%eax
    fe2f:	48 39 c2             	cmp    %rax,%rdx
    fe32:	76 09                	jbe    fe3d <func_23+0x5338>
    fe34:	83 bd c0 e8 ff ff 00 	cmpl   $0x0,-0x1740(%rbp)
    fe3b:	74 07                	je     fe44 <func_23+0x533f>
    fe3d:	b8 01 00 00 00       	mov    $0x1,%eax
    fe42:	eb 05                	jmp    fe49 <func_23+0x5344>
    fe44:	b8 00 00 00 00       	mov    $0x0,%eax
    fe49:	be 21 62 1b 3a       	mov    $0x3a1b6221,%esi
    fe4e:	89 c7                	mov    %eax,%edi
    fe50:	e8 63 90 ff ff       	callq  8eb8 <safe_add_func_uint32_t_u_u>
    fe55:	48 8b 05 b4 c6 00 00 	mov    0xc6b4(%rip),%rax        # 1c510 <g_888>
    fe5c:	0f b7 00             	movzwl (%rax),%eax
    fe5f:	0f bf d0             	movswl %ax,%edx
    fe62:	0f b6 05 13 9c 00 00 	movzbl 0x9c13(%rip),%eax        # 19a7c <g_587+0xc>
    fe69:	83 e0 3f             	and    $0x3f,%eax
    fe6c:	0f b6 c0             	movzbl %al,%eax
    fe6f:	39 c2                	cmp    %eax,%edx
    fe71:	0f 95 c0             	setne  %al
    fe74:	0f b6 c0             	movzbl %al,%eax
    fe77:	89 de                	mov    %ebx,%esi
    fe79:	89 c7                	mov    %eax,%edi
    fe7b:	e8 9f 8e ff ff       	callq  8d1f <safe_sub_func_uint16_t_u_u>
    fe80:	48 8b 05 29 c0 00 00 	mov    0xc029(%rip),%rax        # 1beb0 <g_202>
    fe87:	8b 00                	mov    (%rax),%eax
    fe89:	89 c2                	mov    %eax,%edx
    fe8b:	8b 85 44 e8 ff ff    	mov    -0x17bc(%rbp),%eax
    fe91:	31 d0                	xor    %edx,%eax
    fe93:	0f b6 c0             	movzbl %al,%eax
    fe96:	be fc 00 00 00       	mov    $0xfc,%esi
    fe9b:	89 c7                	mov    %eax,%edi
    fe9d:	e8 39 8d ff ff       	callq  8bdb <safe_div_func_uint8_t_u_u>
    fea2:	48 8b 85 18 ea ff ff 	mov    -0x15e8(%rbp),%rax
    fea9:	48 3b 85 68 ea ff ff 	cmp    -0x1598(%rbp),%rax
    feb0:	0f 95 c0             	setne  %al
    feb3:	0f b6 d0             	movzbl %al,%edx
    feb6:	48 8b 85 38 e8 ff ff 	mov    -0x17c8(%rbp),%rax
    febd:	8b 00                	mov    (%rax),%eax
    febf:	09 c2                	or     %eax,%edx
    fec1:	48 8b 85 38 e8 ff ff 	mov    -0x17c8(%rbp),%rax
    fec8:	89 10                	mov    %edx,(%rax)
    feca:	8b 95 34 ee ff ff    	mov    -0x11cc(%rbp),%edx
    fed0:	48 8b 85 08 ea ff ff 	mov    -0x15f8(%rbp),%rax
    fed7:	89 10                	mov    %edx,(%rax)
    fed9:	48 8b 85 88 e9 ff ff 	mov    -0x1678(%rbp),%rax
    fee0:	8b 00                	mov    (%rax),%eax
    fee2:	85 c0                	test   %eax,%eax
    fee4:	75 22                	jne    ff08 <func_23+0x5403>
    fee6:	8b 85 70 e8 ff ff    	mov    -0x1790(%rbp),%eax
    feec:	83 c0 01             	add    $0x1,%eax
    feef:	89 85 70 e8 ff ff    	mov    %eax,-0x1790(%rbp)
    fef5:	8b 85 70 e8 ff ff    	mov    -0x1790(%rbp),%eax
    fefb:	85 c0                	test   %eax,%eax
    fefd:	0f 84 4e e8 ff ff    	je     e751 <func_23+0x3c4c>
    ff03:	eb 04                	jmp    ff09 <func_23+0x5404>
    ff05:	90                   	nop
    ff06:	eb 01                	jmp    ff09 <func_23+0x5404>
    ff08:	90                   	nop
    ff09:	48 8b 15 b0 bf 00 00 	mov    0xbfb0(%rip),%rdx        # 1bec0 <g_437>
    ff10:	48 8b 85 f0 e9 ff ff 	mov    -0x1610(%rbp),%rax
    ff17:	48 8b 00             	mov    (%rax),%rax
    ff1a:	48 8b 00             	mov    (%rax),%rax
    ff1d:	48 8b 12             	mov    (%rdx),%rdx
    ff20:	48 89 10             	mov    %rdx,(%rax)
    ff23:	48 8b 10             	mov    (%rax),%rdx
    ff26:	48 83 bd f8 e9 ff ff 	cmpq   $0x0,-0x1608(%rbp)
    ff2d:	00 
    ff2e:	0f 95 c0             	setne  %al
    ff31:	0f b6 c0             	movzbl %al,%eax
    ff34:	48 39 c2             	cmp    %rax,%rdx
    ff37:	0f 84 6b 03 00 00    	je     102a8 <func_23+0x57a3>
    ff3d:	c6 85 5d e8 ff ff 00 	movb   $0x0,-0x17a3(%rbp)
    ff44:	c7 85 84 e8 ff ff 00 	movl   $0x0,-0x177c(%rbp)
    ff4b:	00 00 00 
    ff4e:	eb 1e                	jmp    ff6e <func_23+0x5469>
    ff50:	8b 85 84 e8 ff ff    	mov    -0x177c(%rbp),%eax
    ff56:	48 98                	cltq   
    ff58:	48 8d 15 21 9b 00 00 	lea    0x9b21(%rip),%rdx        # 19a80 <g_632>
    ff5f:	48 89 94 c5 e0 f7 ff 	mov    %rdx,-0x820(%rbp,%rax,8)
    ff66:	ff 
    ff67:	83 85 84 e8 ff ff 01 	addl   $0x1,-0x177c(%rbp)
    ff6e:	83 bd 84 e8 ff ff 01 	cmpl   $0x1,-0x177c(%rbp)
    ff75:	7e d9                	jle    ff50 <func_23+0x544b>
    ff77:	bf 00 00 00 00       	mov    $0x0,%edi
    ff7c:	e8 1c 84 ff ff       	callq  839d <safe_unary_minus_func_int16_t_s>
    ff81:	8b 05 c9 90 00 00    	mov    0x90c9(%rip),%eax        # 19050 <g_38+0x10>
    ff87:	0f be c0             	movsbl %al,%eax
    ff8a:	be 07 00 00 00       	mov    $0x7,%esi
    ff8f:	89 c7                	mov    %eax,%edi
    ff91:	e8 58 83 ff ff       	callq  82ee <safe_lshift_func_int8_t_s_u>
    ff96:	0f b6 9d 59 e8 ff ff 	movzbl -0x17a7(%rbp),%ebx
    ff9d:	48 8b 85 88 e9 ff ff 	mov    -0x1678(%rbp),%rax
    ffa4:	8b 00                	mov    (%rax),%eax
    ffa6:	89 85 74 e8 ff ff    	mov    %eax,-0x178c(%rbp)
    ffac:	48 8b 85 08 ea ff ff 	mov    -0x15f8(%rbp),%rax
    ffb3:	44 8b 28             	mov    (%rax),%r13d
    ffb6:	44 0f b6 b5 4c e8 ff 	movzbl -0x17b4(%rbp),%r14d
    ffbd:	ff 
    ffbe:	44 0f b6 a5 5d e8 ff 	movzbl -0x17a3(%rbp),%r12d
    ffc5:	ff 
    ffc6:	48 8b 85 38 e8 ff ff 	mov    -0x17c8(%rbp),%rax
    ffcd:	8b 00                	mov    (%rax),%eax
    ffcf:	f7 d0                	not    %eax
    ffd1:	48 98                	cltq   
    ffd3:	48 be 2a 16 e6 34 6b 	movabs $0xbf9b326b34e6162a,%rsi
    ffda:	32 9b bf 
    ffdd:	48 89 c7             	mov    %rax,%rdi
    ffe0:	e8 5c 88 ff ff       	callq  8841 <safe_add_func_int64_t_s_s>
    ffe5:	48 85 c0             	test   %rax,%rax
    ffe8:	75 15                	jne    ffff <func_23+0x54fa>
    ffea:	48 8b 05 2f c5 00 00 	mov    0xc52f(%rip),%rax        # 1c520 <g_886>
    fff1:	48 8b 00             	mov    (%rax),%rax
    fff4:	48 8b 00             	mov    (%rax),%rax
    fff7:	0f b7 00             	movzwl (%rax),%eax
    fffa:	66 85 c0             	test   %ax,%ax
    fffd:	74 07                	je     10006 <func_23+0x5501>
    ffff:	b8 01 00 00 00       	mov    $0x1,%eax
   10004:	eb 05                	jmp    1000b <func_23+0x5506>
   10006:	b8 00 00 00 00       	mov    $0x0,%eax
   1000b:	0f b6 c0             	movzbl %al,%eax
   1000e:	44 89 e6             	mov    %r12d,%esi
   10011:	89 c7                	mov    %eax,%edi
   10013:	e8 60 8b ff ff       	callq  8b78 <safe_sub_func_uint8_t_u_u>
   10018:	0f b6 c0             	movzbl %al,%eax
   1001b:	be fe ff 00 00       	mov    $0xfffe,%esi
   10020:	89 c7                	mov    %eax,%edi
   10022:	e8 35 8d ff ff       	callq  8d5c <safe_mod_func_uint16_t_u_u>
   10027:	0f b7 d0             	movzwl %ax,%edx
   1002a:	0f b7 05 97 99 00 00 	movzwl 0x9997(%rip),%eax        # 199c8 <g_262>
   10031:	98                   	cwtl   
   10032:	39 c2                	cmp    %eax,%edx
   10034:	0f 9f c2             	setg   %dl
   10037:	48 8b 85 98 e9 ff ff 	mov    -0x1668(%rbp),%rax
   1003e:	48 8b 00             	mov    (%rax),%rax
   10041:	0f b6 d2             	movzbl %dl,%edx
   10044:	48 89 10             	mov    %rdx,(%rax)
   10047:	48 8b 00             	mov    (%rax),%rax
   1004a:	49 39 c6             	cmp    %rax,%r14
   1004d:	0f 9c c0             	setl   %al
   10050:	0f b6 c0             	movzbl %al,%eax
   10053:	41 39 c5             	cmp    %eax,%r13d
   10056:	0f 9f c0             	setg   %al
   10059:	0f b6 c0             	movzbl %al,%eax
   1005c:	8b 95 44 e8 ff ff    	mov    -0x17bc(%rbp),%edx
   10062:	89 d6                	mov    %edx,%esi
   10064:	89 c7                	mov    %eax,%edi
   10066:	e8 53 8c ff ff       	callq  8cbe <safe_rshift_func_uint8_t_u_u>
   1006b:	0f b6 85 57 e8 ff ff 	movzbl -0x17a9(%rbp),%eax
   10072:	89 de                	mov    %ebx,%esi
   10074:	89 c7                	mov    %eax,%edi
   10076:	e8 17 84 ff ff       	callq  8492 <safe_lshift_func_int16_t_s_s>
   1007b:	0f b6 c0             	movzbl %al,%eax
   1007e:	be 00 00 00 00       	mov    $0x0,%esi
   10083:	89 c7                	mov    %eax,%edi
   10085:	e8 03 8c ff ff       	callq  8c8d <safe_rshift_func_uint8_t_u_s>
   1008a:	3c 01                	cmp    $0x1,%al
   1008c:	0f 97 c0             	seta   %al
   1008f:	0f b6 d0             	movzbl %al,%edx
   10092:	0f b6 85 59 e8 ff ff 	movzbl -0x17a7(%rbp),%eax
   10099:	39 c2                	cmp    %eax,%edx
   1009b:	0f 9f c0             	setg   %al
   1009e:	0f b6 d0             	movzbl %al,%edx
   100a1:	0f b6 85 4c e8 ff ff 	movzbl -0x17b4(%rbp),%eax
   100a8:	48 39 c2             	cmp    %rax,%rdx
   100ab:	48 8b 85 38 ea ff ff 	mov    -0x15c8(%rbp),%rax
   100b2:	0f b7 00             	movzwl (%rax),%eax
   100b5:	8d 48 01             	lea    0x1(%rax),%ecx
   100b8:	48 8b 95 38 ea ff ff 	mov    -0x15c8(%rbp),%rdx
   100bf:	66 89 0a             	mov    %cx,(%rdx)
   100c2:	0f b7 c0             	movzwl %ax,%eax
   100c5:	be 0c 00 00 00       	mov    $0xc,%esi
   100ca:	89 c7                	mov    %eax,%edi
   100cc:	e8 ed 8c ff ff       	callq  8dbe <safe_lshift_func_uint16_t_u_s>
   100d1:	66 83 f8 01          	cmp    $0x1,%ax
   100d5:	48 8d 05 e4 98 00 00 	lea    0x98e4(%rip),%rax        # 199c0 <g_259>
   100dc:	48 8b 00             	mov    (%rax),%rax
   100df:	48 83 f8 01          	cmp    $0x1,%rax
   100e3:	0f 9e c0             	setle  %al
   100e6:	0f b6 d0             	movzbl %al,%edx
   100e9:	48 8b 85 08 ea ff ff 	mov    -0x15f8(%rbp),%rax
   100f0:	89 10                	mov    %edx,(%rax)
   100f2:	0f b7 85 48 e8 ff ff 	movzwl -0x17b8(%rbp),%eax
   100f9:	0f b6 d8             	movzbl %al,%ebx
   100fc:	48 8b 05 ad bd 00 00 	mov    0xbdad(%rip),%rax        # 1beb0 <g_202>
   10103:	44 8b 20             	mov    (%rax),%r12d
   10106:	48 8b 85 88 e9 ff ff 	mov    -0x1678(%rbp),%rax
   1010d:	8b 00                	mov    (%rax),%eax
   1010f:	44 0f b6 e8          	movzbl %al,%r13d
   10113:	48 8b 05 fe c3 00 00 	mov    0xc3fe(%rip),%rax        # 1c518 <g_887>
   1011a:	48 8b 00             	mov    (%rax),%rax
   1011d:	0f b7 00             	movzwl (%rax),%eax
   10120:	48 8b 85 08 ea ff ff 	mov    -0x15f8(%rbp),%rax
   10127:	8b 00                	mov    (%rax),%eax
   10129:	4c 63 f0             	movslq %eax,%r14
   1012c:	0f b6 85 4c e8 ff ff 	movzbl -0x17b4(%rbp),%eax
   10133:	0f be c0             	movsbl %al,%eax
   10136:	be 05 00 00 00       	mov    $0x5,%esi
   1013b:	89 c7                	mov    %eax,%edi
   1013d:	e8 f3 81 ff ff       	callq  8335 <safe_rshift_func_int8_t_s_s>
   10142:	0f be d0             	movsbl %al,%edx
   10145:	0f b7 05 46 8f 00 00 	movzwl 0x8f46(%rip),%eax        # 19092 <g_139>
   1014c:	0f b7 c0             	movzwl %ax,%eax
   1014f:	39 c2                	cmp    %eax,%edx
   10151:	0f 9d c0             	setge  %al
   10154:	0f b6 c0             	movzbl %al,%eax
   10157:	4c 89 f6             	mov    %r14,%rsi
   1015a:	48 89 c7             	mov    %rax,%rdi
   1015d:	e8 e9 8e ff ff       	callq  904b <safe_sub_func_uint64_t_u_u>
   10162:	48 8b 95 a8 e9 ff ff 	mov    -0x1658(%rbp),%rdx
   10169:	48 8b 0a             	mov    (%rdx),%rcx
   1016c:	48 8b 15 cd c3 00 00 	mov    0xc3cd(%rip),%rdx        # 1c540 <g_1002>
   10173:	48 8b 12             	mov    (%rdx),%rdx
   10176:	48 39 d1             	cmp    %rdx,%rcx
   10179:	0f 95 c2             	setne  %dl
   1017c:	89 c1                	mov    %eax,%ecx
   1017e:	8b 85 78 e8 ff ff    	mov    -0x1788(%rbp),%eax
   10184:	21 c8                	and    %ecx,%eax
   10186:	89 85 78 e8 ff ff    	mov    %eax,-0x1788(%rbp)
   1018c:	48 8b 85 08 ea ff ff 	mov    -0x15f8(%rbp),%rax
   10193:	8b 00                	mov    (%rax),%eax
   10195:	23 85 78 e8 ff ff    	and    -0x1788(%rbp),%eax
   1019b:	85 c0                	test   %eax,%eax
   1019d:	0f 94 c0             	sete   %al
   101a0:	09 d0                	or     %edx,%eax
   101a2:	84 c0                	test   %al,%al
   101a4:	74 15                	je     101bb <func_23+0x56b6>
   101a6:	0f b6 05 1f 9e 00 00 	movzbl 0x9e1f(%rip),%eax        # 19fcc <g_1226+0xc>
   101ad:	83 e0 3f             	and    $0x3f,%eax
   101b0:	84 c0                	test   %al,%al
   101b2:	74 07                	je     101bb <func_23+0x56b6>
   101b4:	ba 01 00 00 00       	mov    $0x1,%edx
   101b9:	eb 05                	jmp    101c0 <func_23+0x56bb>
   101bb:	ba 00 00 00 00       	mov    $0x0,%edx
   101c0:	48 8b 85 18 ea ff ff 	mov    -0x15e8(%rbp),%rax
   101c7:	48 8b 00             	mov    (%rax),%rax
   101ca:	48 8b 00             	mov    (%rax),%rax
   101cd:	88 10                	mov    %dl,(%rax)
   101cf:	0f b6 00             	movzbl (%rax),%eax
   101d2:	0f b6 c0             	movzbl %al,%eax
   101d5:	44 89 ee             	mov    %r13d,%esi
   101d8:	89 c7                	mov    %eax,%edi
   101da:	e8 cf 89 ff ff       	callq  8bae <safe_mod_func_uint8_t_u_u>
   101df:	0f b6 c0             	movzbl %al,%eax
   101e2:	44 89 e6             	mov    %r12d,%esi
   101e5:	89 c7                	mov    %eax,%edi
   101e7:	e8 19 84 ff ff       	callq  8605 <safe_sub_func_int32_t_s_s>
   101ec:	0f b6 95 5d e8 ff ff 	movzbl -0x17a3(%rbp),%edx
   101f3:	39 d0                	cmp    %edx,%eax
   101f5:	0f 95 c0             	setne  %al
   101f8:	0f b6 d0             	movzbl %al,%edx
   101fb:	48 8b 05 be bc 00 00 	mov    0xbcbe(%rip),%rax        # 1bec0 <g_437>
   10202:	48 8b 00             	mov    (%rax),%rax
   10205:	48 89 d6             	mov    %rdx,%rsi
   10208:	48 89 c7             	mov    %rax,%rdi
   1020b:	e8 1e 8e ff ff       	callq  902e <safe_add_func_uint64_t_u_u>
   10210:	48 8b 85 38 e8 ff ff 	mov    -0x17c8(%rbp),%rax
   10217:	8b 10                	mov    (%rax),%edx
   10219:	48 8b 05 90 bc 00 00 	mov    0xbc90(%rip),%rax        # 1beb0 <g_202>
   10220:	8b 00                	mov    (%rax),%eax
   10222:	39 c2                	cmp    %eax,%edx
   10224:	0f 9f c0             	setg   %al
   10227:	0f b6 d0             	movzbl %al,%edx
   1022a:	0f be 85 5a e8 ff ff 	movsbl -0x17a6(%rbp),%eax
   10231:	39 c2                	cmp    %eax,%edx
   10233:	0f 9f c0             	setg   %al
   10236:	0f b6 c0             	movzbl %al,%eax
   10239:	89 de                	mov    %ebx,%esi
   1023b:	89 c7                	mov    %eax,%edi
   1023d:	e8 6c 89 ff ff       	callq  8bae <safe_mod_func_uint8_t_u_u>
   10242:	0f b6 d0             	movzbl %al,%edx
   10245:	0f b6 85 59 e8 ff ff 	movzbl -0x17a7(%rbp),%eax
   1024c:	89 d6                	mov    %edx,%esi
   1024e:	89 c7                	mov    %eax,%edi
   10250:	e8 7e 81 ff ff       	callq  83d3 <safe_sub_func_int16_t_s_s>
   10255:	66 89 05 12 8e 00 00 	mov    %ax,0x8e12(%rip)        # 1906e <g_116+0xe>
   1025c:	0f b7 05 0b 8e 00 00 	movzwl 0x8e0b(%rip),%eax        # 1906e <g_116+0xe>
   10263:	66 89 05 16 98 00 00 	mov    %ax,0x9816(%rip)        # 19a80 <g_632>
   1026a:	0f b7 05 0f 98 00 00 	movzwl 0x980f(%rip),%eax        # 19a80 <g_632>
   10271:	0f b7 c0             	movzwl %ax,%eax
   10274:	be 0e 00 00 00       	mov    $0xe,%esi
   10279:	89 c7                	mov    %eax,%edi
   1027b:	e8 c8 8b ff ff       	callq  8e48 <safe_rshift_func_uint16_t_u_s>
   10280:	66 09 85 5e e8 ff ff 	or     %ax,-0x17a2(%rbp)
   10287:	0f b7 95 5e e8 ff ff 	movzwl -0x17a2(%rbp),%edx
   1028e:	48 8b 85 08 ea ff ff 	mov    -0x15f8(%rbp),%rax
   10295:	89 10                	mov    %edx,(%rax)
   10297:	8b 85 68 e8 ff ff    	mov    -0x1798(%rbp),%eax
   1029d:	83 c0 01             	add    $0x1,%eax
   102a0:	89 85 68 e8 ff ff    	mov    %eax,-0x1798(%rbp)
   102a6:	eb 09                	jmp    102b1 <func_23+0x57ac>
   102a8:	48 8b 85 38 e8 ff ff 	mov    -0x17c8(%rbp),%rax
   102af:	eb 5f                	jmp    10310 <func_23+0x580b>
   102b1:	8b 85 68 e8 ff ff    	mov    -0x1798(%rbp),%eax
   102b7:	85 c0                	test   %eax,%eax
   102b9:	0f 8e f8 e3 ff ff    	jle    e6b7 <func_23+0x3bb2>
   102bf:	48 8b 95 c8 ee ff ff 	mov    -0x1138(%rbp),%rdx
   102c6:	48 8b 85 00 ea ff ff 	mov    -0x1600(%rbp),%rax
   102cd:	48 89 10             	mov    %rdx,(%rax)
   102d0:	80 ad 58 e8 ff ff 01 	subb   $0x1,-0x17a8(%rbp)
   102d7:	48 8b 05 e2 96 00 00 	mov    0x96e2(%rip),%rax        # 199c0 <g_259>
   102de:	0f be c0             	movsbl %al,%eax
   102e1:	be 03 00 00 00       	mov    $0x3,%esi
   102e6:	89 c7                	mov    %eax,%edi
   102e8:	e8 05 7f ff ff       	callq  81f2 <safe_sub_func_int8_t_s_s>
   102ed:	48 0f be c0          	movsbq %al,%rax
   102f1:	48 89 05 c8 96 00 00 	mov    %rax,0x96c8(%rip)        # 199c0 <g_259>
   102f8:	48 8b 05 c1 96 00 00 	mov    0x96c1(%rip),%rax        # 199c0 <g_259>
   102ff:	48 83 f8 0b          	cmp    $0xb,%rax
   10303:	0f 8e f7 e1 ff ff    	jle    e500 <func_23+0x39fb>
   10309:	48 8b 85 38 e8 ff ff 	mov    -0x17c8(%rbp),%rax
   10310:	48 8b 5d c8          	mov    -0x38(%rbp),%rbx
   10314:	64 48 33 1c 25 28 00 	xor    %fs:0x28,%rbx
   1031b:	00 00 
   1031d:	74 05                	je     10324 <func_23+0x581f>
   1031f:	e8 4c 7d ff ff       	callq  8070 <__stack_chk_fail@plt>
   10324:	48 81 c4 a8 17 00 00 	add    $0x17a8,%rsp
   1032b:	5b                   	pop    %rbx
   1032c:	41 5c                	pop    %r12
   1032e:	41 5d                	pop    %r13
   10330:	41 5e                	pop    %r14
   10332:	41 5f                	pop    %r15
   10334:	5d                   	pop    %rbp
   10335:	c3                   	retq   

0000000000010336 <func_28>:
   10336:	f3 0f 1e fa          	endbr64 
   1033a:	55                   	push   %rbp
   1033b:	48 89 e5             	mov    %rsp,%rbp
   1033e:	41 57                	push   %r15
   10340:	41 56                	push   %r14
   10342:	41 55                	push   %r13
   10344:	41 54                	push   %r12
   10346:	53                   	push   %rbx
   10347:	48 81 ec 68 07 00 00 	sub    $0x768,%rsp
   1034e:	48 89 bd 78 f8 ff ff 	mov    %rdi,-0x788(%rbp)
   10355:	64 48 8b 04 25 28 00 	mov    %fs:0x28,%rax
   1035c:	00 00 
   1035e:	48 89 45 c8          	mov    %rax,-0x38(%rbp)
   10362:	31 c0                	xor    %eax,%eax
   10364:	c7 85 84 f8 ff ff 01 	movl   $0x1,-0x77c(%rbp)
   1036b:	00 00 00 
   1036e:	48 8d 05 cb 96 00 00 	lea    0x96cb(%rip),%rax        # 19a40 <g_381>
   10375:	48 89 85 98 f8 ff ff 	mov    %rax,-0x768(%rbp)
   1037c:	48 8d 05 79 98 00 00 	lea    0x9879(%rip),%rax        # 19bfc <g_681>
   10383:	48 89 85 a0 f8 ff ff 	mov    %rax,-0x760(%rbp)
   1038a:	48 8d 05 6f 98 00 00 	lea    0x986f(%rip),%rax        # 19c00 <g_683>
   10391:	48 89 85 a8 f8 ff ff 	mov    %rax,-0x758(%rbp)
   10398:	48 c7 85 b0 f8 ff ff 	movq   $0x0,-0x750(%rbp)
   1039f:	00 00 00 00 
   103a3:	48 c7 85 90 f8 ff ff 	movq   $0x0,-0x770(%rbp)
   103aa:	00 00 00 00 
   103ae:	48 8d 85 90 f8 ff ff 	lea    -0x770(%rbp),%rax
   103b5:	48 89 85 b8 f8 ff ff 	mov    %rax,-0x748(%rbp)
   103bc:	48 8d 85 c0 f8 ff ff 	lea    -0x740(%rbp),%rax
   103c3:	48 8d 15 d6 ad 00 00 	lea    0xadd6(%rip),%rdx        # 1b1a0 <g_1285+0x11d0>
   103ca:	b9 e0 00 00 00       	mov    $0xe0,%ecx
   103cf:	48 89 c7             	mov    %rax,%rdi
   103d2:	48 89 d6             	mov    %rdx,%rsi
   103d5:	f3 48 a5             	rep movsq %ds:(%rsi),%es:(%rdi)
   103d8:	c7 85 88 f8 ff ff 07 	movl   $0x7,-0x778(%rbp)
   103df:	00 00 00 
   103e2:	c7 85 8c f8 ff ff 1c 	movl   $0x7311601c,-0x774(%rbp)
   103e9:	60 11 73 
   103ec:	8b 85 84 f8 ff ff    	mov    -0x77c(%rbp),%eax
   103f2:	89 c3                	mov    %eax,%ebx
   103f4:	8b 85 84 f8 ff ff    	mov    -0x77c(%rbp),%eax
   103fa:	85 c0                	test   %eax,%eax
   103fc:	75 45                	jne    10443 <func_28+0x10d>
   103fe:	48 8b 05 23 8c 00 00 	mov    0x8c23(%rip),%rax        # 19028 <g_7>
   10405:	0f be c0             	movsbl %al,%eax
   10408:	89 c7                	mov    %eax,%edi
   1040a:	e8 a7 02 00 00       	callq  106b6 <func_36>
   1040f:	48 8b 85 98 f8 ff ff 	mov    -0x768(%rbp),%rax
   10416:	c7 00 01 00 00 00    	movl   $0x1,(%rax)
   1041c:	48 8b 85 98 f8 ff ff 	mov    -0x768(%rbp),%rax
   10423:	8b 10                	mov    (%rax),%edx
   10425:	8b 05 11 8c 00 00    	mov    0x8c11(%rip),%eax        # 1903c <g_19>
   1042b:	89 c1                	mov    %eax,%ecx
   1042d:	48 8b 85 a0 f8 ff ff 	mov    -0x760(%rbp),%rax
   10434:	89 08                	mov    %ecx,(%rax)
   10436:	48 8b 85 a0 f8 ff ff 	mov    -0x760(%rbp),%rax
   1043d:	8b 00                	mov    (%rax),%eax
   1043f:	39 c2                	cmp    %eax,%edx
   10441:	74 07                	je     1044a <func_28+0x114>
   10443:	b8 01 00 00 00       	mov    $0x1,%eax
   10448:	eb 05                	jmp    1044f <func_28+0x119>
   1044a:	b8 00 00 00 00       	mov    $0x0,%eax
   1044f:	89 de                	mov    %ebx,%esi
   10451:	89 c7                	mov    %eax,%edi
   10453:	e8 60 8a ff ff       	callq  8eb8 <safe_add_func_uint32_t_u_u>
   10458:	3d cd 00 00 00       	cmp    $0xcd,%eax
   1045d:	0f 95 c0             	setne  %al
   10460:	0f b6 c0             	movzbl %al,%eax
   10463:	89 85 84 f8 ff ff    	mov    %eax,-0x77c(%rbp)
   10469:	48 8b 05 68 ba 00 00 	mov    0xba68(%rip),%rax        # 1bed8 <g_685>
   10470:	48 8d 95 84 f8 ff ff 	lea    -0x77c(%rbp),%rdx
   10477:	48 89 10             	mov    %rdx,(%rax)
   1047a:	48 8b 05 af 95 00 00 	mov    0x95af(%rip),%rax        # 19a30 <g_331+0x50>
   10481:	48 c1 e0 04          	shl    $0x4,%rax
   10485:	48 c1 f8 24          	sar    $0x24,%rax
   10489:	41 89 c6             	mov    %eax,%r14d
   1048c:	48 8b 95 90 f8 ff ff 	mov    -0x770(%rbp),%rdx
   10493:	48 8b 85 b8 f8 ff ff 	mov    -0x748(%rbp),%rax
   1049a:	48 89 10             	mov    %rdx,(%rax)
   1049d:	48 8b 85 b8 f8 ff ff 	mov    -0x748(%rbp),%rax
   104a4:	48 8b 10             	mov    (%rax),%rdx
   104a7:	48 8b 85 58 ff ff ff 	mov    -0xa8(%rbp),%rax
   104ae:	48 39 c2             	cmp    %rax,%rdx
   104b1:	0f 84 7b 01 00 00    	je     10632 <func_28+0x2fc>
   104b7:	48 8b 15 02 ba 00 00 	mov    0xba02(%rip),%rdx        # 1bec0 <g_437>
   104be:	48 8b 05 fb b9 00 00 	mov    0xb9fb(%rip),%rax        # 1bec0 <g_437>
   104c5:	48 8b 12             	mov    (%rdx),%rdx
   104c8:	48 89 10             	mov    %rdx,(%rax)
   104cb:	4c 8b 20             	mov    (%rax),%r12
   104ce:	8b 85 84 f8 ff ff    	mov    -0x77c(%rbp),%eax
   104d4:	41 89 c7             	mov    %eax,%r15d
   104d7:	8b 05 63 95 00 00    	mov    0x9563(%rip),%eax        # 19a40 <g_381>
   104dd:	0f bf d8             	movswl %ax,%ebx
   104e0:	be 02 00 00 00       	mov    $0x2,%esi
   104e5:	bf 01 00 00 00       	mov    $0x1,%edi
   104ea:	e8 5d 87 ff ff       	callq  8c4c <safe_lshift_func_uint8_t_u_u>
   104ef:	84 c0                	test   %al,%al
   104f1:	74 07                	je     104fa <func_28+0x1c4>
   104f3:	b8 01 00 00 00       	mov    $0x1,%eax
   104f8:	eb 05                	jmp    104ff <func_28+0x1c9>
   104fa:	b8 00 00 00 00       	mov    $0x0,%eax
   104ff:	89 85 74 f8 ff ff    	mov    %eax,-0x78c(%rbp)
   10505:	8b 85 84 f8 ff ff    	mov    -0x77c(%rbp),%eax
   1050b:	89 c2                	mov    %eax,%edx
   1050d:	48 8b 85 a8 f8 ff ff 	mov    -0x758(%rbp),%rax
   10514:	88 10                	mov    %dl,(%rax)
   10516:	48 8b 85 a8 f8 ff ff 	mov    -0x758(%rbp),%rax
   1051d:	0f b6 00             	movzbl (%rax),%eax
   10520:	84 c0                	test   %al,%al
   10522:	75 44                	jne    10568 <func_28+0x232>
   10524:	0f b6 05 65 8b 00 00 	movzbl 0x8b65(%rip),%eax        # 19090 <g_129>
   1052b:	44 0f b6 e8          	movzbl %al,%r13d
   1052f:	8b 85 84 f8 ff ff    	mov    -0x77c(%rbp),%eax
   10535:	f7 d0                	not    %eax
   10537:	89 c2                	mov    %eax,%edx
   10539:	48 8b 85 a8 f8 ff ff 	mov    -0x758(%rbp),%rax
   10540:	88 10                	mov    %dl,(%rax)
   10542:	48 8b 85 a8 f8 ff ff 	mov    -0x758(%rbp),%rax
   10549:	0f b6 00             	movzbl (%rax),%eax
   1054c:	0f be c0             	movsbl %al,%eax
   1054f:	be c8 ff ff ff       	mov    $0xffffffc8,%esi
   10554:	89 c7                	mov    %eax,%edi
   10556:	e8 97 7c ff ff       	callq  81f2 <safe_sub_func_int8_t_s_s>
   1055b:	3c 01                	cmp    $0x1,%al
   1055d:	0f 95 c0             	setne  %al
   10560:	0f b6 c0             	movzbl %al,%eax
   10563:	41 39 c5             	cmp    %eax,%r13d
   10566:	7e 07                	jle    1056f <func_28+0x239>
   10568:	b8 01 00 00 00       	mov    $0x1,%eax
   1056d:	eb 05                	jmp    10574 <func_28+0x23e>
   1056f:	b8 00 00 00 00       	mov    $0x0,%eax
   10574:	0f b7 c0             	movzwl %ax,%eax
   10577:	8b b5 74 f8 ff ff    	mov    -0x78c(%rbp),%esi
   1057d:	89 c7                	mov    %eax,%edi
   1057f:	e8 82 88 ff ff       	callq  8e06 <safe_lshift_func_uint16_t_u_u>
   10584:	66 85 c0             	test   %ax,%ax
   10587:	75 09                	jne    10592 <func_28+0x25c>
   10589:	83 bd 88 f8 ff ff 00 	cmpl   $0x0,-0x778(%rbp)
   10590:	74 07                	je     10599 <func_28+0x263>
   10592:	b8 01 00 00 00       	mov    $0x1,%eax
   10597:	eb 05                	jmp    1059e <func_28+0x268>
   10599:	b8 00 00 00 00       	mov    $0x0,%eax
   1059e:	89 c2                	mov    %eax,%edx
   105a0:	0f b6 05 f3 8a 00 00 	movzbl 0x8af3(%rip),%eax        # 1909a <g_195>
   105a7:	31 d0                	xor    %edx,%eax
   105a9:	88 05 eb 8a 00 00    	mov    %al,0x8aeb(%rip)        # 1909a <g_195>
   105af:	0f b6 05 e4 8a 00 00 	movzbl 0x8ae4(%rip),%eax        # 1909a <g_195>
   105b6:	0f be c0             	movsbl %al,%eax
   105b9:	8b 95 88 f8 ff ff    	mov    -0x778(%rbp),%edx
   105bf:	89 d6                	mov    %edx,%esi
   105c1:	89 c7                	mov    %eax,%edi
   105c3:	e8 d9 7c ff ff       	callq  82a1 <safe_lshift_func_int8_t_s_s>
   105c8:	84 c0                	test   %al,%al
   105ca:	0f 94 c0             	sete   %al
   105cd:	0f b6 c0             	movzbl %al,%eax
   105d0:	89 de                	mov    %ebx,%esi
   105d2:	89 c7                	mov    %eax,%edi
   105d4:	e8 7c 7e ff ff       	callq  8455 <safe_div_func_int16_t_s_s>
   105d9:	0f bf d0             	movswl %ax,%edx
   105dc:	48 8b 85 a0 f8 ff ff 	mov    -0x760(%rbp),%rax
   105e3:	89 10                	mov    %edx,(%rax)
   105e5:	48 8b 85 a0 f8 ff ff 	mov    -0x760(%rbp),%rax
   105ec:	8b 00                	mov    (%rax),%eax
   105ee:	44 89 fe             	mov    %r15d,%esi
   105f1:	89 c7                	mov    %eax,%edi
   105f3:	e8 c0 88 ff ff       	callq  8eb8 <safe_add_func_uint32_t_u_u>
   105f8:	0f be c0             	movsbl %al,%eax
   105fb:	8b 95 88 f8 ff ff    	mov    -0x778(%rbp),%edx
   10601:	89 d6                	mov    %edx,%esi
   10603:	89 c7                	mov    %eax,%edi
   10605:	e8 97 7c ff ff       	callq  82a1 <safe_lshift_func_int8_t_s_s>
   1060a:	48 0f be c0          	movsbq %al,%rax
   1060e:	49 39 c4             	cmp    %rax,%r12
   10611:	0f 95 c0             	setne  %al
   10614:	0f b6 c0             	movzbl %al,%eax
   10617:	48 89 c7             	mov    %rax,%rdi
   1061a:	e8 fa 89 ff ff       	callq  9019 <safe_unary_minus_func_uint64_t_u>
   1061f:	81 bd 8c f8 ff ff 9c 	cmpl   $0x9c,-0x774(%rbp)
   10626:	00 00 00 
   10629:	77 07                	ja     10632 <func_28+0x2fc>
   1062b:	b8 01 00 00 00       	mov    $0x1,%eax
   10630:	eb 05                	jmp    10637 <func_28+0x301>
   10632:	b8 00 00 00 00       	mov    $0x0,%eax
   10637:	0f b7 c0             	movzwl %ax,%eax
   1063a:	44 89 f6             	mov    %r14d,%esi
   1063d:	89 c7                	mov    %eax,%edi
   1063f:	e8 36 88 ff ff       	callq  8e7a <safe_rshift_func_uint16_t_u_u>
   10644:	0f b7 d0             	movzwl %ax,%edx
   10647:	8b 05 2b 94 00 00    	mov    0x942b(%rip),%eax        # 19a78 <g_587+0x8>
   1064d:	c1 e0 05             	shl    $0x5,%eax
   10650:	c1 f8 05             	sar    $0x5,%eax
   10653:	39 c2                	cmp    %eax,%edx
   10655:	74 11                	je     10668 <func_28+0x332>
   10657:	0f b7 05 3a 8a 00 00 	movzwl 0x8a3a(%rip),%eax        # 19098 <g_169>
   1065e:	66 85 c0             	test   %ax,%ax
   10661:	74 27                	je     1068a <func_28+0x354>
   10663:	e9 01 fe ff ff       	jmpq   10469 <func_28+0x133>
   10668:	c6 85 83 f8 ff ff 8d 	movb   $0x8d,-0x77d(%rbp)
   1066f:	48 8b 05 3a b8 00 00 	mov    0xb83a(%rip),%rax        # 1beb0 <g_202>
   10676:	8b 08                	mov    (%rax),%ecx
   10678:	0f b6 95 83 f8 ff ff 	movzbl -0x77d(%rbp),%edx
   1067f:	48 8b 05 2a b8 00 00 	mov    0xb82a(%rip),%rax        # 1beb0 <g_202>
   10686:	31 ca                	xor    %ecx,%edx
   10688:	89 10                	mov    %edx,(%rax)
   1068a:	8b 85 8c f8 ff ff    	mov    -0x774(%rbp),%eax
   10690:	48 8b 5d c8          	mov    -0x38(%rbp),%rbx
   10694:	64 48 33 1c 25 28 00 	xor    %fs:0x28,%rbx
   1069b:	00 00 
   1069d:	74 05                	je     106a4 <func_28+0x36e>
   1069f:	e8 cc 79 ff ff       	callq  8070 <__stack_chk_fail@plt>
   106a4:	48 81 c4 68 07 00 00 	add    $0x768,%rsp
   106ab:	5b                   	pop    %rbx
   106ac:	41 5c                	pop    %r12
   106ae:	41 5d                	pop    %r13
   106b0:	41 5e                	pop    %r14
   106b2:	41 5f                	pop    %r15
   106b4:	5d                   	pop    %rbp
   106b5:	c3                   	retq   

00000000000106b6 <func_36>:
   106b6:	f3 0f 1e fa          	endbr64 
   106ba:	55                   	push   %rbp
   106bb:	48 89 e5             	mov    %rsp,%rbp
   106be:	41 56                	push   %r14
   106c0:	41 55                	push   %r13
   106c2:	41 54                	push   %r12
   106c4:	53                   	push   %rbx
   106c5:	48 81 ec 90 04 00 00 	sub    $0x490,%rsp
   106cc:	89 f8                	mov    %edi,%eax
   106ce:	88 85 5c fb ff ff    	mov    %al,-0x4a4(%rbp)
   106d4:	64 48 8b 04 25 28 00 	mov    %fs:0x28,%rax
   106db:	00 00 
   106dd:	48 89 45 d8          	mov    %rax,-0x28(%rbp)
   106e1:	31 c0                	xor    %eax,%eax
   106e3:	c7 85 6c fb ff ff ff 	movl   $0xffffffff,-0x494(%rbp)
   106ea:	ff ff ff 
   106ed:	c7 85 40 fc ff ff 06 	movl   $0x6,-0x3c0(%rbp)
   106f4:	00 00 00 
   106f7:	c7 85 44 fc ff ff 14 	movl   $0x4bae914,-0x3bc(%rbp)
   106fe:	e9 ba 04 
   10701:	c7 85 48 fc ff ff 06 	movl   $0x6,-0x3b8(%rbp)
   10708:	00 00 00 
   1070b:	c7 85 4c fc ff ff 14 	movl   $0x4bae914,-0x3b4(%rbp)
   10712:	e9 ba 04 
   10715:	c7 85 50 fc ff ff 06 	movl   $0x6,-0x3b0(%rbp)
   1071c:	00 00 00 
   1071f:	c7 85 54 fc ff ff 14 	movl   $0x4bae914,-0x3ac(%rbp)
   10726:	e9 ba 04 
   10729:	c7 85 58 fc ff ff 06 	movl   $0x6,-0x3a8(%rbp)
   10730:	00 00 00 
   10733:	c7 85 5c fc ff ff 14 	movl   $0x4bae914,-0x3a4(%rbp)
   1073a:	e9 ba 04 
   1073d:	c7 85 60 fc ff ff 06 	movl   $0x6,-0x3a0(%rbp)
   10744:	00 00 00 
   10747:	66 c7 85 6a fb ff ff 	movw   $0xffff,-0x496(%rbp)
   1074e:	ff ff 
   10750:	c7 85 70 fb ff ff 00 	movl   $0x0,-0x490(%rbp)
   10757:	00 00 00 
   1075a:	eb 42                	jmp    1079e <func_36+0xe8>
   1075c:	c7 85 74 fb ff ff 00 	movl   $0x0,-0x48c(%rbp)
   10763:	00 00 00 
   10766:	eb 26                	jmp    1078e <func_36+0xd8>
   10768:	8b 85 74 fb ff ff    	mov    -0x48c(%rbp),%eax
   1076e:	48 63 d0             	movslq %eax,%rdx
   10771:	8b 85 70 fb ff ff    	mov    -0x490(%rbp),%eax
   10777:	48 98                	cltq   
   10779:	48 01 d0             	add    %rdx,%rax
   1077c:	c7 84 85 e0 fb ff ff 	movl   $0xfffffff9,-0x420(%rbp,%rax,4)
   10783:	f9 ff ff ff 
   10787:	83 85 74 fb ff ff 01 	addl   $0x1,-0x48c(%rbp)
   1078e:	83 bd 74 fb ff ff 00 	cmpl   $0x0,-0x48c(%rbp)
   10795:	7e d1                	jle    10768 <func_36+0xb2>
   10797:	83 85 70 fb ff ff 01 	addl   $0x1,-0x490(%rbp)
   1079e:	83 bd 70 fb ff ff 04 	cmpl   $0x4,-0x490(%rbp)
   107a5:	7e b5                	jle    1075c <func_36+0xa6>
   107a7:	c7 05 9f 88 00 00 f8 	movl   $0xfffffff8,0x889f(%rip)        # 19050 <g_38+0x10>
   107ae:	ff ff ff 
   107b1:	e9 69 08 00 00       	jmpq   1101f <func_36+0x969>
   107b6:	48 8d 85 6c fb ff ff 	lea    -0x494(%rbp),%rax
   107bd:	48 89 85 90 fb ff ff 	mov    %rax,-0x470(%rbp)
   107c4:	48 8d 85 6c fb ff ff 	lea    -0x494(%rbp),%rax
   107cb:	48 89 85 98 fb ff ff 	mov    %rax,-0x468(%rbp)
   107d2:	48 c7 85 a0 fb ff ff 	movq   $0x0,-0x460(%rbp)
   107d9:	00 00 00 00 
   107dd:	48 8d 85 6c fb ff ff 	lea    -0x494(%rbp),%rax
   107e4:	48 89 85 70 fc ff ff 	mov    %rax,-0x390(%rbp)
   107eb:	48 8d 85 6c fb ff ff 	lea    -0x494(%rbp),%rax
   107f2:	48 89 85 78 fc ff ff 	mov    %rax,-0x388(%rbp)
   107f9:	48 c7 85 80 fc ff ff 	movq   $0x0,-0x380(%rbp)
   10800:	00 00 00 00 
   10804:	48 8d 85 6c fb ff ff 	lea    -0x494(%rbp),%rax
   1080b:	48 89 85 88 fc ff ff 	mov    %rax,-0x378(%rbp)
   10812:	48 8d 85 6c fb ff ff 	lea    -0x494(%rbp),%rax
   10819:	48 89 85 90 fc ff ff 	mov    %rax,-0x370(%rbp)
   10820:	48 c7 85 98 fc ff ff 	movq   $0x0,-0x368(%rbp)
   10827:	00 00 00 00 
   1082b:	48 8d 85 6c fb ff ff 	lea    -0x494(%rbp),%rax
   10832:	48 89 85 a0 fc ff ff 	mov    %rax,-0x360(%rbp)
   10839:	48 8d 85 6c fb ff ff 	lea    -0x494(%rbp),%rax
   10840:	48 89 85 a8 fc ff ff 	mov    %rax,-0x358(%rbp)
   10847:	48 c7 85 a8 fb ff ff 	movq   $0x0,-0x458(%rbp)
   1084e:	00 00 00 00 
   10852:	48 c7 85 b0 fc ff ff 	movq   $0x0,-0x350(%rbp)
   10859:	00 00 00 00 
   1085d:	48 c7 85 b8 fc ff ff 	movq   $0x0,-0x348(%rbp)
   10864:	00 00 00 00 
   10868:	48 c7 85 c0 fc ff ff 	movq   $0x0,-0x340(%rbp)
   1086f:	00 00 00 00 
   10873:	48 c7 85 c8 fc ff ff 	movq   $0x0,-0x338(%rbp)
   1087a:	00 00 00 00 
   1087e:	48 c7 85 d0 fc ff ff 	movq   $0x0,-0x330(%rbp)
   10885:	00 00 00 00 
   10889:	48 c7 85 d8 fc ff ff 	movq   $0x0,-0x328(%rbp)
   10890:	00 00 00 00 
   10894:	48 c7 85 e0 fc ff ff 	movq   $0x0,-0x320(%rbp)
   1089b:	00 00 00 00 
   1089f:	48 c7 85 e8 fc ff ff 	movq   $0x0,-0x318(%rbp)
   108a6:	00 00 00 00 
   108aa:	48 8d 05 17 b6 00 00 	lea    0xb617(%rip),%rax        # 1bec8 <g_436>
   108b1:	48 89 85 b0 fb ff ff 	mov    %rax,-0x450(%rbp)
   108b8:	c7 85 00 fc ff ff 00 	movl   $0x0,-0x400(%rbp)
   108bf:	00 00 00 
   108c2:	c6 85 04 fc ff ff 00 	movb   $0x0,-0x3fc(%rbp)
   108c9:	c7 85 05 fc ff ff 01 	movl   $0x1010101,-0x3fb(%rbp)
   108d0:	01 01 01 
   108d3:	c6 85 09 fc ff ff 01 	movb   $0x1,-0x3f7(%rbp)
   108da:	c7 85 0a fc ff ff 00 	movl   $0x0,-0x3f6(%rbp)
   108e1:	00 00 00 
   108e4:	c6 85 0e fc ff ff 00 	movb   $0x0,-0x3f2(%rbp)
   108eb:	c7 85 0f fc ff ff 01 	movl   $0x1010101,-0x3f1(%rbp)
   108f2:	01 01 01 
   108f5:	c6 85 13 fc ff ff 01 	movb   $0x1,-0x3ed(%rbp)
   108fc:	c7 85 14 fc ff ff 00 	movl   $0x0,-0x3ec(%rbp)
   10903:	00 00 00 
   10906:	c6 85 18 fc ff ff 00 	movb   $0x0,-0x3e8(%rbp)
   1090d:	c7 85 19 fc ff ff 01 	movl   $0x1010101,-0x3e7(%rbp)
   10914:	01 01 01 
   10917:	c6 85 1d fc ff ff 01 	movb   $0x1,-0x3e3(%rbp)
   1091e:	c7 85 78 fb ff ff 00 	movl   $0x0,-0x488(%rbp)
   10925:	00 00 00 
   10928:	eb 21                	jmp    1094b <func_36+0x295>
   1092a:	8b 85 78 fb ff ff    	mov    -0x488(%rbp),%eax
   10930:	48 98                	cltq   
   10932:	48 bb 79 1a b5 74 6f 	movabs $0x81a5746f74b51a79,%rbx
   10939:	74 a5 81 
   1093c:	48 89 9c c5 20 fc ff 	mov    %rbx,-0x3e0(%rbp,%rax,8)
   10943:	ff 
   10944:	83 85 78 fb ff ff 01 	addl   $0x1,-0x488(%rbp)
   1094b:	83 bd 78 fb ff ff 03 	cmpl   $0x3,-0x488(%rbp)
   10952:	7e d6                	jle    1092a <func_36+0x274>
   10954:	48 8b 05 25 c9 00 00 	mov    0xc925(%rip),%rax        # 1d280 <g_47+0x10>
   1095b:	48 83 c0 01          	add    $0x1,%rax
   1095f:	48 89 05 1a c9 00 00 	mov    %rax,0xc91a(%rip)        # 1d280 <g_47+0x10>
   10966:	48 8b 05 3b b5 00 00 	mov    0xb53b(%rip),%rax        # 1bea8 <g_50>
   1096d:	48 8d 15 c8 86 00 00 	lea    0x86c8(%rip),%rdx        # 1903c <g_19>
   10974:	48 89 10             	mov    %rdx,(%rax)
   10977:	66 83 85 6a fb ff ff 	addw   $0x1,-0x496(%rbp)
   1097e:	01 
   1097f:	66 c7 85 6a fb ff ff 	movw   $0x0,-0x496(%rbp)
   10986:	00 00 
   10988:	e9 66 06 00 00       	jmpq   10ff3 <func_36+0x93d>
   1098d:	48 8d 05 b0 86 00 00 	lea    0x86b0(%rip),%rax        # 19044 <g_38+0x4>
   10994:	48 89 85 b8 fb ff ff 	mov    %rax,-0x448(%rbp)
   1099b:	48 8d 85 70 fc ff ff 	lea    -0x390(%rbp),%rax
   109a2:	48 83 c0 20          	add    $0x20,%rax
   109a6:	48 89 85 c0 fb ff ff 	mov    %rax,-0x440(%rbp)
   109ad:	48 8d 85 90 fd ff ff 	lea    -0x270(%rbp),%rax
   109b4:	48 8d 15 45 51 00 00 	lea    0x5145(%rip),%rdx        # 15b00 <g_860+0xa80>
   109bb:	b9 48 00 00 00       	mov    $0x48,%ecx
   109c0:	48 89 c7             	mov    %rax,%rdi
   109c3:	48 89 d6             	mov    %rdx,%rsi
   109c6:	f3 48 a5             	rep movsq %ds:(%rsi),%es:(%rdi)
   109c9:	c6 85 69 fb ff ff 00 	movb   $0x0,-0x497(%rbp)
   109d0:	48 8b 05 d1 b4 00 00 	mov    0xb4d1(%rip),%rax        # 1bea8 <g_50>
   109d7:	48 8b 00             	mov    (%rax),%rax
   109da:	8b 10                	mov    (%rax),%edx
   109dc:	48 8b 85 98 fb ff ff 	mov    -0x468(%rbp),%rax
   109e3:	89 10                	mov    %edx,(%rax)
   109e5:	48 8b 85 98 fb ff ff 	mov    -0x468(%rbp),%rax
   109ec:	8b 00                	mov    (%rax),%eax
   109ee:	0f b6 15 3b 86 00 00 	movzbl 0x863b(%rip),%edx        # 19030 <g_15>
   109f5:	0f b6 0d 35 86 00 00 	movzbl 0x8635(%rip),%ecx        # 19031 <g_15+0x1>
   109fc:	48 c1 e1 08          	shl    $0x8,%rcx
   10a00:	48 09 d1             	or     %rdx,%rcx
   10a03:	0f b6 15 28 86 00 00 	movzbl 0x8628(%rip),%edx        # 19032 <g_15+0x2>
   10a0a:	83 e2 07             	and    $0x7,%edx
   10a0d:	48 c1 e2 10          	shl    $0x10,%rdx
   10a11:	48 09 ca             	or     %rcx,%rdx
   10a14:	48 c1 e2 2d          	shl    $0x2d,%rdx
   10a18:	48 c1 fa 2d          	sar    $0x2d,%rdx
   10a1c:	09 d0                	or     %edx,%eax
   10a1e:	c1 e0 0d             	shl    $0xd,%eax
   10a21:	c1 f8 0d             	sar    $0xd,%eax
   10a24:	89 c2                	mov    %eax,%edx
   10a26:	0f b6 ca             	movzbl %dl,%ecx
   10a29:	0f b6 15 00 86 00 00 	movzbl 0x8600(%rip),%edx        # 19030 <g_15>
   10a30:	83 e2 00             	and    $0x0,%edx
   10a33:	09 ca                	or     %ecx,%edx
   10a35:	88 15 f5 85 00 00    	mov    %dl,0x85f5(%rip)        # 19030 <g_15>
   10a3b:	89 c2                	mov    %eax,%edx
   10a3d:	c1 ea 08             	shr    $0x8,%edx
   10a40:	89 d2                	mov    %edx,%edx
   10a42:	0f b6 ca             	movzbl %dl,%ecx
   10a45:	0f b6 15 e5 85 00 00 	movzbl 0x85e5(%rip),%edx        # 19031 <g_15+0x1>
   10a4c:	83 e2 00             	and    $0x0,%edx
   10a4f:	09 ca                	or     %ecx,%edx
   10a51:	88 15 da 85 00 00    	mov    %dl,0x85da(%rip)        # 19031 <g_15+0x1>
   10a57:	c1 e8 10             	shr    $0x10,%eax
   10a5a:	89 c0                	mov    %eax,%eax
   10a5c:	83 e0 07             	and    $0x7,%eax
   10a5f:	89 c2                	mov    %eax,%edx
   10a61:	83 e2 07             	and    $0x7,%edx
   10a64:	0f b6 05 c7 85 00 00 	movzbl 0x85c7(%rip),%eax        # 19032 <g_15+0x2>
   10a6b:	83 e0 f8             	and    $0xfffffff8,%eax
   10a6e:	09 d0                	or     %edx,%eax
   10a70:	88 05 bc 85 00 00    	mov    %al,0x85bc(%rip)        # 19032 <g_15+0x2>
   10a76:	0f b6 05 b5 85 00 00 	movzbl 0x85b5(%rip),%eax        # 19032 <g_15+0x2>
   10a7d:	c0 e8 03             	shr    $0x3,%al
   10a80:	0f b6 c0             	movzbl %al,%eax
   10a83:	0f b6 15 a9 85 00 00 	movzbl 0x85a9(%rip),%edx        # 19033 <g_15+0x3>
   10a8a:	48 c1 e2 05          	shl    $0x5,%rdx
   10a8e:	48 09 c2             	or     %rax,%rdx
   10a91:	0f b6 05 9c 85 00 00 	movzbl 0x859c(%rip),%eax        # 19034 <g_15+0x4>
   10a98:	48 c1 e0 0d          	shl    $0xd,%rax
   10a9c:	48 09 c2             	or     %rax,%rdx
   10a9f:	0f b6 05 8f 85 00 00 	movzbl 0x858f(%rip),%eax        # 19035 <g_15+0x5>
   10aa6:	83 e0 07             	and    $0x7,%eax
   10aa9:	48 c1 e0 15          	shl    $0x15,%rax
   10aad:	48 09 d0             	or     %rdx,%rax
   10ab0:	0f b7 d8             	movzwl %ax,%ebx
   10ab3:	4c 8b a5 b0 fc ff ff 	mov    -0x350(%rbp),%r12
   10aba:	44 0f be b5 5c fb ff 	movsbl -0x4a4(%rbp),%r14d
   10ac1:	ff 
   10ac2:	48 8b 85 c0 fb ff ff 	mov    -0x440(%rbp),%rax
   10ac9:	48 8b 95 b8 fb ff ff 	mov    -0x448(%rbp),%rdx
   10ad0:	48 89 10             	mov    %rdx,(%rax)
   10ad3:	48 8b 85 c0 fb ff ff 	mov    -0x440(%rbp),%rax
   10ada:	4c 8b 28             	mov    (%rax),%r13
   10add:	0f be 85 5c fb ff ff 	movsbl -0x4a4(%rbp),%eax
   10ae4:	48 8b 8d a8 fb ff ff 	mov    -0x458(%rbp),%rcx
   10aeb:	0f b6 15 2e 58 00 00 	movzbl 0x582e(%rip),%edx        # 16320 <l_62.4707>
   10af2:	0f b6 35 28 58 00 00 	movzbl 0x5828(%rip),%esi        # 16321 <l_62.4707+0x1>
   10af9:	48 c1 e6 08          	shl    $0x8,%rsi
   10afd:	48 09 d6             	or     %rdx,%rsi
   10b00:	0f b6 15 1b 58 00 00 	movzbl 0x581b(%rip),%edx        # 16322 <l_62.4707+0x2>
   10b07:	48 c1 e2 10          	shl    $0x10,%rdx
   10b0b:	48 09 d6             	or     %rdx,%rsi
   10b0e:	0f b6 15 0e 58 00 00 	movzbl 0x580e(%rip),%edx        # 16323 <l_62.4707+0x3>
   10b15:	48 c1 e2 18          	shl    $0x18,%rdx
   10b19:	48 09 d6             	or     %rdx,%rsi
   10b1c:	0f b6 15 01 58 00 00 	movzbl 0x5801(%rip),%edx        # 16324 <l_62.4707+0x4>
   10b23:	48 c1 e2 20          	shl    $0x20,%rdx
   10b27:	48 09 d6             	or     %rdx,%rsi
   10b2a:	0f b6 15 f4 57 00 00 	movzbl 0x57f4(%rip),%edx        # 16325 <l_62.4707+0x5>
   10b31:	48 c1 e2 28          	shl    $0x28,%rdx
   10b35:	48 09 f2             	or     %rsi,%rdx
   10b38:	48 89 ce             	mov    %rcx,%rsi
   10b3b:	89 c7                	mov    %eax,%edi
   10b3d:	e8 8a 20 00 00       	callq  12bcc <func_68>
   10b42:	66 89 05 49 85 00 00 	mov    %ax,0x8549(%rip)        # 19092 <g_139>
   10b49:	0f b7 05 42 85 00 00 	movzwl 0x8542(%rip),%eax        # 19092 <g_139>
   10b50:	0f b7 c0             	movzwl %ax,%eax
   10b53:	b9 00 00 00 00       	mov    $0x0,%ecx
   10b58:	44 89 f2             	mov    %r14d,%edx
   10b5b:	4c 89 ee             	mov    %r13,%rsi
   10b5e:	89 c7                	mov    %eax,%edi
   10b60:	e8 9e 1d 00 00       	callq  12903 <func_63>
   10b65:	4c 89 e2             	mov    %r12,%rdx
   10b68:	48 89 c6             	mov    %rax,%rsi
   10b6b:	0f b6 05 ae 57 00 00 	movzbl 0x57ae(%rip),%eax        # 16320 <l_62.4707>
   10b72:	0f b6 0d a8 57 00 00 	movzbl 0x57a8(%rip),%ecx        # 16321 <l_62.4707+0x1>
   10b79:	48 c1 e1 08          	shl    $0x8,%rcx
   10b7d:	48 09 c1             	or     %rax,%rcx
   10b80:	0f b6 05 9b 57 00 00 	movzbl 0x579b(%rip),%eax        # 16322 <l_62.4707+0x2>
   10b87:	48 c1 e0 10          	shl    $0x10,%rax
   10b8b:	48 09 c1             	or     %rax,%rcx
   10b8e:	0f b6 05 8e 57 00 00 	movzbl 0x578e(%rip),%eax        # 16323 <l_62.4707+0x3>
   10b95:	48 c1 e0 18          	shl    $0x18,%rax
   10b99:	48 09 c1             	or     %rax,%rcx
   10b9c:	0f b6 05 81 57 00 00 	movzbl 0x5781(%rip),%eax        # 16324 <l_62.4707+0x4>
   10ba3:	48 c1 e0 20          	shl    $0x20,%rax
   10ba7:	48 09 c1             	or     %rax,%rcx
   10baa:	0f b6 05 74 57 00 00 	movzbl 0x5774(%rip),%eax        # 16325 <l_62.4707+0x5>
   10bb1:	48 c1 e0 28          	shl    $0x28,%rax
   10bb5:	48 09 c8             	or     %rcx,%rax
   10bb8:	48 89 c7             	mov    %rax,%rdi
   10bbb:	e8 a8 04 00 00       	callq  11068 <func_58>
   10bc0:	48 8b 05 61 84 00 00 	mov    0x8461(%rip),%rax        # 19028 <g_7>
   10bc7:	0f b7 c0             	movzwl %ax,%eax
   10bca:	89 de                	mov    %ebx,%esi
   10bcc:	89 c7                	mov    %eax,%edi
   10bce:	e8 bb 81 ff ff       	callq  8d8e <safe_div_func_uint16_t_u_u>
   10bd3:	66 85 c0             	test   %ax,%ax
   10bd6:	74 58                	je     10c30 <func_36+0x57a>
   10bd8:	be 05 00 00 00       	mov    $0x5,%esi
   10bdd:	bf c2 dc ff ff       	mov    $0xffffdcc2,%edi
   10be2:	e8 7c 79 ff ff       	callq  8563 <safe_rshift_func_int16_t_s_u>
   10be7:	48 0f bf d0          	movswq %ax,%rdx
   10beb:	48 8b 05 ce 8d 00 00 	mov    0x8dce(%rip),%rax        # 199c0 <g_259>
   10bf2:	48 39 c2             	cmp    %rax,%rdx
   10bf5:	0f 9c c0             	setl   %al
   10bf8:	0f b6 d0             	movzbl %al,%edx
   10bfb:	48 8b 85 90 fb ff ff 	mov    -0x470(%rbp),%rax
   10c02:	89 10                	mov    %edx,(%rax)
   10c04:	8b 05 6e 8e 00 00    	mov    0x8e6e(%rip),%eax        # 19a78 <g_587+0x8>
   10c0a:	c1 e0 05             	shl    $0x5,%eax
   10c0d:	c1 f8 05             	sar    $0x5,%eax
   10c10:	0f b6 c0             	movzbl %al,%eax
   10c13:	be 03 00 00 00       	mov    $0x3,%esi
   10c18:	89 c7                	mov    %eax,%edi
   10c1a:	e8 6e 80 ff ff       	callq  8c8d <safe_rshift_func_uint8_t_u_s>
   10c1f:	0f b6 d0             	movzbl %al,%edx
   10c22:	48 8b 85 90 fb ff ff 	mov    -0x470(%rbp),%rax
   10c29:	89 10                	mov    %edx,(%rax)
   10c2b:	e9 8f 02 00 00       	jmpq   10ebf <func_36+0x809>
   10c30:	48 8d 05 51 84 00 00 	lea    0x8451(%rip),%rax        # 19088 <g_116+0x28>
   10c37:	48 89 85 c8 fb ff ff 	mov    %rax,-0x438(%rbp)
   10c3e:	48 8d 05 3d 8e 00 00 	lea    0x8e3d(%rip),%rax        # 19a82 <g_635>
   10c45:	48 89 85 d0 fb ff ff 	mov    %rax,-0x430(%rbp)
   10c4c:	48 8d 05 fe 8d 00 00 	lea    0x8dfe(%rip),%rax        # 19a51 <g_523>
   10c53:	48 89 85 f0 fc ff ff 	mov    %rax,-0x310(%rbp)
   10c5a:	48 8d 05 f0 8d 00 00 	lea    0x8df0(%rip),%rax        # 19a51 <g_523>
   10c61:	48 89 85 f8 fc ff ff 	mov    %rax,-0x308(%rbp)
   10c68:	48 8d 05 2b 84 00 00 	lea    0x842b(%rip),%rax        # 1909a <g_195>
   10c6f:	48 89 85 00 fd ff ff 	mov    %rax,-0x300(%rbp)
   10c76:	48 8d 05 1d 84 00 00 	lea    0x841d(%rip),%rax        # 1909a <g_195>
   10c7d:	48 89 85 08 fd ff ff 	mov    %rax,-0x2f8(%rbp)
   10c84:	48 8d 05 c6 8d 00 00 	lea    0x8dc6(%rip),%rax        # 19a51 <g_523>
   10c8b:	48 89 85 10 fd ff ff 	mov    %rax,-0x2f0(%rbp)
   10c92:	48 8d 05 b8 8d 00 00 	lea    0x8db8(%rip),%rax        # 19a51 <g_523>
   10c99:	48 89 85 18 fd ff ff 	mov    %rax,-0x2e8(%rbp)
   10ca0:	48 8d 05 aa 8d 00 00 	lea    0x8daa(%rip),%rax        # 19a51 <g_523>
   10ca7:	48 89 85 20 fd ff ff 	mov    %rax,-0x2e0(%rbp)
   10cae:	48 8d 05 9c 8d 00 00 	lea    0x8d9c(%rip),%rax        # 19a51 <g_523>
   10cb5:	48 89 85 28 fd ff ff 	mov    %rax,-0x2d8(%rbp)
   10cbc:	48 8d 05 8e 8d 00 00 	lea    0x8d8e(%rip),%rax        # 19a51 <g_523>
   10cc3:	48 89 85 30 fd ff ff 	mov    %rax,-0x2d0(%rbp)
   10cca:	48 8d 05 80 8d 00 00 	lea    0x8d80(%rip),%rax        # 19a51 <g_523>
   10cd1:	48 89 85 38 fd ff ff 	mov    %rax,-0x2c8(%rbp)
   10cd8:	48 8d 05 72 8d 00 00 	lea    0x8d72(%rip),%rax        # 19a51 <g_523>
   10cdf:	48 89 85 40 fd ff ff 	mov    %rax,-0x2c0(%rbp)
   10ce6:	48 8d 05 64 8d 00 00 	lea    0x8d64(%rip),%rax        # 19a51 <g_523>
   10ced:	48 89 85 48 fd ff ff 	mov    %rax,-0x2b8(%rbp)
   10cf4:	48 8d 05 56 8d 00 00 	lea    0x8d56(%rip),%rax        # 19a51 <g_523>
   10cfb:	48 89 85 50 fd ff ff 	mov    %rax,-0x2b0(%rbp)
   10d02:	48 8d 05 48 8d 00 00 	lea    0x8d48(%rip),%rax        # 19a51 <g_523>
   10d09:	48 89 85 58 fd ff ff 	mov    %rax,-0x2a8(%rbp)
   10d10:	48 8d 05 83 83 00 00 	lea    0x8383(%rip),%rax        # 1909a <g_195>
   10d17:	48 89 85 60 fd ff ff 	mov    %rax,-0x2a0(%rbp)
   10d1e:	48 8d 05 2c 8d 00 00 	lea    0x8d2c(%rip),%rax        # 19a51 <g_523>
   10d25:	48 89 85 68 fd ff ff 	mov    %rax,-0x298(%rbp)
   10d2c:	48 8d 05 1e 8d 00 00 	lea    0x8d1e(%rip),%rax        # 19a51 <g_523>
   10d33:	48 89 85 70 fd ff ff 	mov    %rax,-0x290(%rbp)
   10d3a:	48 8d 05 10 8d 00 00 	lea    0x8d10(%rip),%rax        # 19a51 <g_523>
   10d41:	48 89 85 78 fd ff ff 	mov    %rax,-0x288(%rbp)
   10d48:	48 8d 05 02 8d 00 00 	lea    0x8d02(%rip),%rax        # 19a51 <g_523>
   10d4f:	48 89 85 80 fd ff ff 	mov    %rax,-0x280(%rbp)
   10d56:	48 8d 05 f4 8c 00 00 	lea    0x8cf4(%rip),%rax        # 19a51 <g_523>
   10d5d:	48 89 85 88 fd ff ff 	mov    %rax,-0x278(%rbp)
   10d64:	c7 85 80 fb ff ff 0a 	movl   $0xdb8f9c0a,-0x480(%rbp)
   10d6b:	9c 8f db 
   10d6e:	66 c7 05 09 8d 00 00 	movw   $0x0,0x8d09(%rip)        # 19a80 <g_632>
   10d75:	00 00 
   10d77:	90                   	nop
   10d78:	0f b7 05 01 8d 00 00 	movzwl 0x8d01(%rip),%eax        # 19a80 <g_632>
   10d7f:	66 83 f8 01          	cmp    $0x1,%ax
   10d83:	77 24                	ja     10da9 <func_36+0x6f3>
   10d85:	0f b7 05 f4 8c 00 00 	movzwl 0x8cf4(%rip),%eax        # 19a80 <g_632>
   10d8c:	0f b7 c0             	movzwl %ax,%eax
   10d8f:	48 98                	cltq   
   10d91:	48 8d 14 c5 00 00 00 	lea    0x0(,%rax,8),%rdx
   10d98:	00 
   10d99:	48 8d 05 30 8c 00 00 	lea    0x8c30(%rip),%rax        # 199d0 <g_294>
   10da0:	48 8b 04 02          	mov    (%rdx,%rax,1),%rax
   10da4:	e9 9b 02 00 00       	jmpq   11044 <func_36+0x98e>
   10da9:	0f b7 05 c2 82 00 00 	movzwl 0x82c2(%rip),%eax        # 19072 <g_116+0x12>
   10db0:	44 0f b7 e0          	movzwl %ax,%r12d
   10db4:	0f b6 05 95 8c 00 00 	movzbl 0x8c95(%rip),%eax        # 19a50 <g_512>
   10dbb:	0f b6 d0             	movzbl %al,%edx
   10dbe:	48 8d 05 bb 8c 00 00 	lea    0x8cbb(%rip),%rax        # 19a80 <g_632>
   10dc5:	48 39 85 c8 fb ff ff 	cmp    %rax,-0x438(%rbp)
   10dcc:	0f 95 c0             	setne  %al
   10dcf:	0f b6 c0             	movzbl %al,%eax
   10dd2:	89 d6                	mov    %edx,%esi
   10dd4:	89 c7                	mov    %eax,%edi
   10dd6:	e8 f8 75 ff ff       	callq  83d3 <safe_sub_func_int16_t_s_s>
   10ddb:	44 0f bf e8          	movswl %ax,%r13d
   10ddf:	8b 05 23 86 00 00    	mov    0x8623(%rip),%eax        # 19408 <g_216+0x348>
   10de5:	c1 e0 05             	shl    $0x5,%eax
   10de8:	c1 f8 05             	sar    $0x5,%eax
   10deb:	0f b6 d8             	movzbl %al,%ebx
   10dee:	c6 05 a5 82 00 00 e4 	movb   $0xe4,0x82a5(%rip)        # 1909a <g_195>
   10df5:	48 8b 85 d0 fb ff ff 	mov    -0x430(%rbp),%rax
   10dfc:	c6 00 f6             	movb   $0xf6,(%rax)
   10dff:	c7 85 80 fb ff ff f6 	movl   $0xfffffff6,-0x480(%rbp)
   10e06:	ff ff ff 
   10e09:	8b 85 80 fb ff ff    	mov    -0x480(%rbp),%eax
   10e0f:	0f be c0             	movsbl %al,%eax
   10e12:	be 02 00 00 00       	mov    $0x2,%esi
   10e17:	89 c7                	mov    %eax,%edi
   10e19:	e8 4e 75 ff ff       	callq  836c <safe_rshift_func_int8_t_s_u>
   10e1e:	0f b6 c0             	movzbl %al,%eax
   10e21:	be 07 00 00 00       	mov    $0x7,%esi
   10e26:	89 c7                	mov    %eax,%edi
   10e28:	e8 d8 7d ff ff       	callq  8c05 <safe_lshift_func_uint8_t_u_s>
   10e2d:	0f b6 c0             	movzbl %al,%eax
   10e30:	be e4 00 00 00       	mov    $0xe4,%esi
   10e35:	89 c7                	mov    %eax,%edi
   10e37:	e8 57 7d ff ff       	callq  8b93 <safe_mul_func_uint8_t_u_u>
   10e3c:	0f b6 d0             	movzbl %al,%edx
   10e3f:	0f b7 05 3a 8c 00 00 	movzwl 0x8c3a(%rip),%eax        # 19a80 <g_632>
   10e46:	66 39 c2             	cmp    %ax,%dx
   10e49:	74 07                	je     10e52 <func_36+0x79c>
   10e4b:	ba 03 00 00 00       	mov    $0x3,%edx
   10e50:	eb 05                	jmp    10e57 <func_36+0x7a1>
   10e52:	ba 02 00 00 00       	mov    $0x2,%edx
   10e57:	0f be 85 5c fb ff ff 	movsbl -0x4a4(%rbp),%eax
   10e5e:	89 85 54 fc ff ff    	mov    %eax,-0x3ac(%rbp)
   10e64:	8b 85 54 fc ff ff    	mov    -0x3ac(%rbp),%eax
   10e6a:	98                   	cwtl   
   10e6b:	89 d6                	mov    %edx,%esi
   10e6d:	89 c7                	mov    %eax,%edi
   10e6f:	e8 81 75 ff ff       	callq  83f5 <safe_mul_func_int16_t_s_s>
   10e74:	0f b6 c0             	movzbl %al,%eax
   10e77:	89 de                	mov    %ebx,%esi
   10e79:	89 c7                	mov    %eax,%edi
   10e7b:	e8 2e 7d ff ff       	callq  8bae <safe_mod_func_uint8_t_u_u>
   10e80:	0f b6 d0             	movzbl %al,%edx
   10e83:	8b 05 7f 85 00 00    	mov    0x857f(%rip),%eax        # 19408 <g_216+0x348>
   10e89:	c1 e0 05             	shl    $0x5,%eax
   10e8c:	c1 f8 05             	sar    $0x5,%eax
   10e8f:	09 d0                	or     %edx,%eax
   10e91:	41 39 c5             	cmp    %eax,%r13d
   10e94:	0f 9d c0             	setge  %al
   10e97:	0f b6 c0             	movzbl %al,%eax
   10e9a:	44 89 e2             	mov    %r12d,%edx
   10e9d:	21 c2                	and    %eax,%edx
   10e9f:	48 8b 85 98 fb ff ff 	mov    -0x468(%rbp),%rax
   10ea6:	89 10                	mov    %edx,(%rax)
   10ea8:	48 8b 85 98 fb ff ff 	mov    -0x468(%rbp),%rax
   10eaf:	8b 10                	mov    (%rax),%edx
   10eb1:	8b 85 e4 fb ff ff    	mov    -0x41c(%rbp),%eax
   10eb7:	09 d0                	or     %edx,%eax
   10eb9:	89 85 e4 fb ff ff    	mov    %eax,-0x41c(%rbp)
   10ebf:	c6 05 8b 8b 00 00 00 	movb   $0x0,0x8b8b(%rip)        # 19a51 <g_523>
   10ec6:	e9 f2 00 00 00       	jmpq   10fbd <func_36+0x907>
   10ecb:	48 c7 85 d8 fb ff ff 	movq   $0x0,-0x428(%rbp)
   10ed2:	00 00 00 00 
   10ed6:	c7 85 84 fb ff ff 01 	movl   $0x1,-0x47c(%rbp)
   10edd:	00 00 00 
   10ee0:	c7 85 88 fb ff ff f7 	movl   $0x1b413df7,-0x478(%rbp)
   10ee7:	3d 41 1b 
   10eea:	c7 85 8c fb ff ff 7e 	movl   $0x72a1047e,-0x474(%rbp)
   10ef1:	04 a1 72 
   10ef4:	c7 85 7c fb ff ff 00 	movl   $0x0,-0x484(%rbp)
   10efb:	00 00 00 
   10efe:	eb 1a                	jmp    10f1a <func_36+0x864>
   10f00:	8b 85 7c fb ff ff    	mov    -0x484(%rbp),%eax
   10f06:	48 98                	cltq   
   10f08:	c7 84 85 f0 fc ff ff 	movl   $0x19010ac9,-0x310(%rbp,%rax,4)
   10f0f:	c9 0a 01 19 
   10f13:	83 85 7c fb ff ff 01 	addl   $0x1,-0x484(%rbp)
   10f1a:	83 bd 7c fb ff ff 00 	cmpl   $0x0,-0x484(%rbp)
   10f21:	7e dd                	jle    10f00 <func_36+0x84a>
   10f23:	48 8b 05 36 8b 00 00 	mov    0x8b36(%rip),%rax        # 19a60 <g_530>
   10f2a:	48 c1 e8 05          	shr    $0x5,%rax
   10f2e:	83 e0 3f             	and    $0x3f,%eax
   10f31:	0f b6 d0             	movzbl %al,%edx
   10f34:	48 8b 85 b0 fb ff ff 	mov    -0x450(%rbp),%rax
   10f3b:	48 89 05 8e af 00 00 	mov    %rax,0xaf8e(%rip)        # 1bed0 <g_665>
   10f42:	48 8b 05 87 af 00 00 	mov    0xaf87(%rip),%rax        # 1bed0 <g_665>
   10f49:	48 39 85 b0 fb ff ff 	cmp    %rax,-0x450(%rbp)
   10f50:	0f 95 c0             	setne  %al
   10f53:	0f b6 c0             	movzbl %al,%eax
   10f56:	89 d6                	mov    %edx,%esi
   10f58:	89 c7                	mov    %eax,%edi
   10f5a:	e8 fd 7d ff ff       	callq  8d5c <safe_mod_func_uint16_t_u_u>
   10f5f:	89 c2                	mov    %eax,%edx
   10f61:	48 8b 05 48 af 00 00 	mov    0xaf48(%rip),%rax        # 1beb0 <g_202>
   10f68:	0f b7 d2             	movzwl %dx,%edx
   10f6b:	89 10                	mov    %edx,(%rax)
   10f6d:	48 8b 85 98 fb ff ff 	mov    -0x468(%rbp),%rax
   10f74:	8b 00                	mov    (%rax),%eax
   10f76:	25 fc 59 e3 c1       	and    $0xc1e359fc,%eax
   10f7b:	89 c2                	mov    %eax,%edx
   10f7d:	48 8b 85 98 fb ff ff 	mov    -0x468(%rbp),%rax
   10f84:	89 10                	mov    %edx,(%rax)
   10f86:	80 ad 69 fb ff ff 01 	subb   $0x1,-0x497(%rbp)
   10f8d:	48 8b 05 24 af 00 00 	mov    0xaf24(%rip),%rax        # 1beb8 <g_201>
   10f94:	48 8b 10             	mov    (%rax),%rdx
   10f97:	48 8b 85 c0 fb ff ff 	mov    -0x440(%rbp),%rax
   10f9e:	48 89 10             	mov    %rdx,(%rax)
   10fa1:	0f b6 05 a9 8a 00 00 	movzbl 0x8aa9(%rip),%eax        # 19a51 <g_523>
   10fa8:	0f be c0             	movsbl %al,%eax
   10fab:	be 09 00 00 00       	mov    $0x9,%esi
   10fb0:	89 c7                	mov    %eax,%edi
   10fb2:	e8 1d 72 ff ff       	callq  81d4 <safe_add_func_int8_t_s_s>
   10fb7:	88 05 94 8a 00 00    	mov    %al,0x8a94(%rip)        # 19a51 <g_523>
   10fbd:	0f b6 05 8d 8a 00 00 	movzbl 0x8a8d(%rip),%eax        # 19a51 <g_523>
   10fc4:	3c 1d                	cmp    $0x1d,%al
   10fc6:	0f 8f ff fe ff ff    	jg     10ecb <func_36+0x815>
   10fcc:	48 8b 85 98 fb ff ff 	mov    -0x468(%rbp),%rax
   10fd3:	8b 00                	mov    (%rax),%eax
   10fd5:	85 c0                	test   %eax,%eax
   10fd7:	75 2a                	jne    11003 <func_36+0x94d>
   10fd9:	0f b7 85 6a fb ff ff 	movzwl -0x496(%rbp),%eax
   10fe0:	be 04 00 00 00       	mov    $0x4,%esi
   10fe5:	89 c7                	mov    %eax,%edi
   10fe7:	e8 cc 7e ff ff       	callq  8eb8 <safe_add_func_uint32_t_u_u>
   10fec:	66 89 85 6a fb ff ff 	mov    %ax,-0x496(%rbp)
   10ff3:	66 83 bd 6a fb ff ff 	cmpw   $0x3,-0x496(%rbp)
   10ffa:	03 
   10ffb:	0f 87 8c f9 ff ff    	ja     1098d <func_36+0x2d7>
   11001:	eb 01                	jmp    11004 <func_36+0x94e>
   11003:	90                   	nop
   11004:	8b 05 46 80 00 00    	mov    0x8046(%rip),%eax        # 19050 <g_38+0x10>
   1100a:	48 98                	cltq   
   1100c:	be 01 00 00 00       	mov    $0x1,%esi
   11011:	48 89 c7             	mov    %rax,%rdi
   11014:	e8 28 78 ff ff       	callq  8841 <safe_add_func_int64_t_s_s>
   11019:	89 05 31 80 00 00    	mov    %eax,0x8031(%rip)        # 19050 <g_38+0x10>
   1101f:	8b 05 2b 80 00 00    	mov    0x802b(%rip),%eax        # 19050 <g_38+0x10>
   11025:	83 f8 08             	cmp    $0x8,%eax
   11028:	0f 85 88 f7 ff ff    	jne    107b6 <func_36+0x100>
   1102e:	48 8b 05 9b ae 00 00 	mov    0xae9b(%rip),%rax        # 1bed0 <g_665>
   11035:	48 c7 00 00 00 00 00 	movq   $0x0,(%rax)
   1103c:	66 0f be 85 5c fb ff 	movsbw -0x4a4(%rbp),%ax
   11043:	ff 
   11044:	48 8b 5d d8          	mov    -0x28(%rbp),%rbx
   11048:	64 48 33 1c 25 28 00 	xor    %fs:0x28,%rbx
   1104f:	00 00 
   11051:	74 05                	je     11058 <func_36+0x9a2>
   11053:	e8 18 70 ff ff       	callq  8070 <__stack_chk_fail@plt>
   11058:	48 81 c4 90 04 00 00 	add    $0x490,%rsp
   1105f:	5b                   	pop    %rbx
   11060:	41 5c                	pop    %r12
   11062:	41 5d                	pop    %r13
   11064:	41 5e                	pop    %r14
   11066:	5d                   	pop    %rbp
   11067:	c3                   	retq   

0000000000011068 <func_58>:
   11068:	f3 0f 1e fa          	endbr64 
   1106c:	55                   	push   %rbp
   1106d:	48 89 e5             	mov    %rsp,%rbp
   11070:	41 57                	push   %r15
   11072:	41 56                	push   %r14
   11074:	41 55                	push   %r13
   11076:	41 54                	push   %r12
   11078:	53                   	push   %rbx
   11079:	48 81 ec 88 0b 00 00 	sub    $0xb88,%rsp
   11080:	48 89 bd 68 f4 ff ff 	mov    %rdi,-0xb98(%rbp)
   11087:	48 89 b5 60 f4 ff ff 	mov    %rsi,-0xba0(%rbp)
   1108e:	48 89 95 58 f4 ff ff 	mov    %rdx,-0xba8(%rbp)
   11095:	64 48 8b 04 25 28 00 	mov    %fs:0x28,%rax
   1109c:	00 00 
   1109e:	48 89 45 c8          	mov    %rax,-0x38(%rbp)
   110a2:	31 c0                	xor    %eax,%eax
   110a4:	0f b7 85 ca f4 ff ff 	movzwl -0xb36(%rbp),%eax
   110ab:	83 e0 00             	and    $0x0,%eax
   110ae:	66 0d b4 fd          	or     $0xfdb4,%ax
   110b2:	66 89 85 ca f4 ff ff 	mov    %ax,-0xb36(%rbp)
   110b9:	0f b6 85 cc f4 ff ff 	movzbl -0xb34(%rbp),%eax
   110c0:	83 c8 07             	or     $0x7,%eax
   110c3:	88 85 cc f4 ff ff    	mov    %al,-0xb34(%rbp)
   110c9:	0f b7 85 cc f4 ff ff 	movzwl -0xb34(%rbp),%eax
   110d0:	83 e0 07             	and    $0x7,%eax
   110d3:	66 0d 30 71          	or     $0x7130,%ax
   110d7:	66 89 85 cc f4 ff ff 	mov    %ax,-0xb34(%rbp)
   110de:	0f b7 85 ce f4 ff ff 	movzwl -0xb32(%rbp),%eax
   110e5:	66 25 00 f8          	and    $0xf800,%ax
   110e9:	66 89 85 ce f4 ff ff 	mov    %ax,-0xb32(%rbp)
   110f0:	48 8d 05 a3 7f 00 00 	lea    0x7fa3(%rip),%rax        # 1909a <g_195>
   110f7:	48 89 85 00 f5 ff ff 	mov    %rax,-0xb00(%rbp)
   110fe:	48 c7 85 f0 f4 ff ff 	movq   $0x2,-0xb10(%rbp)
   11105:	02 00 00 00 
   11109:	48 8d 05 8c 7f 00 00 	lea    0x7f8c(%rip),%rax        # 1909c <g_198>
   11110:	48 89 85 d0 f4 ff ff 	mov    %rax,-0xb30(%rbp)
   11117:	48 8d 05 4a c1 00 00 	lea    0xc14a(%rip),%rax        # 1d268 <g_11>
   1111e:	48 89 85 08 f5 ff ff 	mov    %rax,-0xaf8(%rbp)
   11125:	48 c7 85 10 f5 ff ff 	movq   $0x0,-0xaf0(%rbp)
   1112c:	00 00 00 00 
   11130:	c7 85 b0 f4 ff ff 61 	movl   $0x82e1c061,-0xb50(%rbp)
   11137:	c0 e1 82 
   1113a:	48 b8 78 5e 68 3c f7 	movabs $0xf29c22f73c685e78,%rax
   11141:	22 9c f2 
   11144:	48 89 85 f8 f4 ff ff 	mov    %rax,-0xb08(%rbp)
   1114b:	c6 85 7c f4 ff ff 00 	movb   $0x0,-0xb84(%rbp)
   11152:	66 c7 85 e0 f6 ff ff 	movw   $0x8bff,-0x920(%rbp)
   11159:	ff 8b 
   1115b:	c6 85 e2 f6 ff ff 01 	movb   $0x1,-0x91e(%rbp)
   11162:	66 c7 85 e3 f6 ff ff 	movw   $0xfff9,-0x91d(%rbp)
   11169:	f9 ff 
   1116b:	c6 85 e5 f6 ff ff 8b 	movb   $0x8b,-0x91b(%rbp)
   11172:	66 c7 85 e6 f6 ff ff 	movw   $0x79c,-0x91a(%rbp)
   11179:	9c 07 
   1117b:	c6 85 e8 f6 ff ff 36 	movb   $0x36,-0x918(%rbp)
   11182:	66 c7 85 e9 f6 ff ff 	movw   $0x2b36,-0x917(%rbp)
   11189:	36 2b 
   1118b:	c6 85 eb f6 ff ff f9 	movb   $0xf9,-0x915(%rbp)
   11192:	66 c7 85 ec f6 ff ff 	movw   $0x36ff,-0x914(%rbp)
   11199:	ff 36 
   1119b:	c6 85 ee f6 ff ff 00 	movb   $0x0,-0x912(%rbp)
   111a2:	66 c7 85 ef f6 ff ff 	movw   $0x4af8,-0x911(%rbp)
   111a9:	f8 4a 
   111ab:	c6 85 f1 f6 ff ff 45 	movb   $0x45,-0x90f(%rbp)
   111b2:	66 c7 85 f2 f6 ff ff 	movw   $0x4a06,-0x90e(%rbp)
   111b9:	06 4a 
   111bb:	c6 85 f4 f6 ff ff 80 	movb   $0x80,-0x90c(%rbp)
   111c2:	66 c7 85 f5 f6 ff ff 	movw   $0x366f,-0x90b(%rbp)
   111c9:	6f 36 
   111cb:	c6 85 f7 f6 ff ff 6f 	movb   $0x6f,-0x909(%rbp)
   111d2:	66 c7 85 f8 f6 ff ff 	movw   $0x2b01,-0x908(%rbp)
   111d9:	01 2b 
   111db:	c6 85 fa f6 ff ff 4a 	movb   $0x4a,-0x906(%rbp)
   111e2:	66 c7 85 fb f6 ff ff 	movw   $0x703,-0x905(%rbp)
   111e9:	03 07 
   111eb:	c6 85 fd f6 ff ff 06 	movb   $0x6,-0x903(%rbp)
   111f2:	66 c7 85 fe f6 ff ff 	movw   $0xff29,-0x902(%rbp)
   111f9:	29 ff 
   111fb:	c6 85 00 f7 ff ff f8 	movb   $0xf8,-0x900(%rbp)
   11202:	66 c7 85 01 f7 ff ff 	movw   $0x8b4a,-0x8ff(%rbp)
   11209:	4a 8b 
   1120b:	c6 85 03 f7 ff ff 8f 	movb   $0x8f,-0x8fd(%rbp)
   11212:	66 c7 85 04 f7 ff ff 	movw   $0x29,-0x8fc(%rbp)
   11219:	29 00 
   1121b:	c6 85 06 f7 ff ff ff 	movb   $0xff,-0x8fa(%rbp)
   11222:	66 c7 85 07 f7 ff ff 	movw   $0x603,-0x8f9(%rbp)
   11229:	03 06 
   1122b:	c6 85 09 f7 ff ff 07 	movb   $0x7,-0x8f7(%rbp)
   11232:	66 c7 85 0a f7 ff ff 	movw   $0xfe01,-0x8f6(%rbp)
   11239:	01 fe 
   1123b:	c6 85 0c f7 ff ff f9 	movb   $0xf9,-0x8f4(%rbp)
   11242:	66 c7 85 0d f7 ff ff 	movw   $0xff6f,-0x8f3(%rbp)
   11249:	6f ff 
   1124b:	c6 85 0f f7 ff ff 2b 	movb   $0x2b,-0x8f1(%rbp)
   11252:	66 c7 85 10 f7 ff ff 	movw   $0x606,-0x8f0(%rbp)
   11259:	06 06 
   1125b:	c6 85 12 f7 ff ff 2b 	movb   $0x2b,-0x8ee(%rbp)
   11262:	66 c7 85 13 f7 ff ff 	movw   $0xf9f8,-0x8ed(%rbp)
   11269:	f8 f9 
   1126b:	c6 85 15 f7 ff ff f9 	movb   $0xf9,-0x8eb(%rbp)
   11272:	66 c7 85 16 f7 ff ff 	movw   $0x29ff,-0x8ea(%rbp)
   11279:	ff 29 
   1127b:	c6 85 18 f7 ff ff 07 	movb   $0x7,-0x8e8(%rbp)
   11282:	66 c7 85 19 f7 ff ff 	movw   $0x2536,-0x8e7(%rbp)
   11289:	36 25 
   1128b:	c6 85 1b f7 ff ff ff 	movb   $0xff,-0x8e5(%rbp)
   11292:	66 c7 85 1c f7 ff ff 	movw   $0xf9c,-0x8e4(%rbp)
   11299:	9c 0f 
   1129b:	c6 85 1e f7 ff ff 8f 	movb   $0x8f,-0x8e2(%rbp)
   112a2:	66 c7 85 1f f7 ff ff 	movw   $0x45f9,-0x8e1(%rbp)
   112a9:	f9 45 
   112ab:	c6 85 21 f7 ff ff f8 	movb   $0xf8,-0x8df(%rbp)
   112b2:	66 c7 85 22 f7 ff ff 	movw   $0xfff,-0x8de(%rbp)
   112b9:	ff 0f 
   112bb:	c6 85 24 f7 ff ff 06 	movb   $0x6,-0x8dc(%rbp)
   112c2:	66 c7 85 25 f7 ff ff 	movw   $0x25ff,-0x8db(%rbp)
   112c9:	ff 25 
   112cb:	c6 85 27 f7 ff ff 4a 	movb   $0x4a,-0x8d9(%rbp)
   112d2:	66 c7 85 28 f7 ff ff 	movw   $0x2900,-0x8d8(%rbp)
   112d9:	00 29 
   112db:	c6 85 2a f7 ff ff 6f 	movb   $0x6f,-0x8d6(%rbp)
   112e2:	66 c7 85 2b f7 ff ff 	movw   $0xf9fe,-0x8d5(%rbp)
   112e9:	fe f9 
   112eb:	c6 85 2d f7 ff ff 80 	movb   $0x80,-0x8d3(%rbp)
   112f2:	66 c7 85 2e f7 ff ff 	movw   $0x6f9,-0x8d2(%rbp)
   112f9:	f9 06 
   112fb:	c6 85 30 f7 ff ff 45 	movb   $0x45,-0x8d0(%rbp)
   11302:	66 c7 85 31 f7 ff ff 	movw   $0xfff9,-0x8cf(%rbp)
   11309:	f9 ff 
   1130b:	c6 85 33 f7 ff ff 00 	movb   $0x0,-0x8cd(%rbp)
   11312:	66 c7 85 34 f7 ff ff 	movw   $0xfefe,-0x8cc(%rbp)
   11319:	fe fe 
   1131b:	c6 85 36 f7 ff ff f9 	movb   $0xf9,-0x8ca(%rbp)
   11322:	66 c7 85 37 f7 ff ff 	movw   $0x600,-0x8c9(%rbp)
   11329:	00 06 
   1132b:	c6 85 39 f7 ff ff 36 	movb   $0x36,-0x8c7(%rbp)
   11332:	66 c7 85 3a f7 ff ff 	movw   $0xff,-0x8c6(%rbp)
   11339:	ff 00 
   1133b:	c6 85 3c f7 ff ff 8b 	movb   $0x8b,-0x8c4(%rbp)
   11342:	66 c7 85 3d f7 ff ff 	movw   $0x8bff,-0x8c3(%rbp)
   11349:	ff 8b 
   1134b:	c6 85 3f f7 ff ff 29 	movb   $0x29,-0x8c1(%rbp)
   11352:	66 c7 85 40 f7 ff ff 	movw   $0x45fe,-0x8c0(%rbp)
   11359:	fe 45 
   1135b:	c6 85 42 f7 ff ff 36 	movb   $0x36,-0x8be(%rbp)
   11362:	66 c7 85 43 f7 ff ff 	movw   $0x903e,-0x8bd(%rbp)
   11369:	3e 90 
   1136b:	c6 85 45 f7 ff ff f8 	movb   $0xf8,-0x8bb(%rbp)
   11372:	66 c7 85 46 f7 ff ff 	movw   $0x1f8,-0x8ba(%rbp)
   11379:	f8 01 
   1137b:	c6 85 48 f7 ff ff fe 	movb   $0xfe,-0x8b8(%rbp)
   11382:	66 c7 85 49 f7 ff ff 	movw   $0xf801,-0x8b7(%rbp)
   11389:	01 f8 
   1138b:	c6 85 4b f7 ff ff 06 	movb   $0x6,-0x8b5(%rbp)
   11392:	66 c7 85 4c f7 ff ff 	movw   $0x80f9,-0x8b4(%rbp)
   11399:	f9 80 
   1139b:	c6 85 4e f7 ff ff 8f 	movb   $0x8f,-0x8b2(%rbp)
   113a2:	66 c7 85 4f f7 ff ff 	movw   $0x80ff,-0x8b1(%rbp)
   113a9:	ff 80 
   113ab:	c6 85 51 f7 ff ff 2b 	movb   $0x2b,-0x8af(%rbp)
   113b2:	66 c7 85 52 f7 ff ff 	movw   $0xf89c,-0x8ae(%rbp)
   113b9:	9c f8 
   113bb:	c6 85 54 f7 ff ff 9c 	movb   $0x9c,-0x8ac(%rbp)
   113c2:	66 c7 85 55 f7 ff ff 	movw   $0x107,-0x8ab(%rbp)
   113c9:	07 01 
   113cb:	c6 85 57 f7 ff ff 80 	movb   $0x80,-0x8a9(%rbp)
   113d2:	66 c7 85 58 f7 ff ff 	movw   $0x90f9,-0x8a8(%rbp)
   113d9:	f9 90 
   113db:	c6 85 5a f7 ff ff ff 	movb   $0xff,-0x8a6(%rbp)
   113e2:	66 c7 85 5b f7 ff ff 	movw   $0x4503,-0x8a5(%rbp)
   113e9:	03 45 
   113eb:	c6 85 5d f7 ff ff f9 	movb   $0xf9,-0x8a3(%rbp)
   113f2:	66 c7 85 5e f7 ff ff 	movw   $0x3680,-0x8a2(%rbp)
   113f9:	80 36 
   113fb:	c6 85 60 f7 ff ff 01 	movb   $0x1,-0x8a0(%rbp)
   11402:	66 c7 85 61 f7 ff ff 	movw   $0x3,-0x89f(%rbp)
   11409:	03 00 
   1140b:	c6 85 63 f7 ff ff 01 	movb   $0x1,-0x89d(%rbp)
   11412:	66 c7 85 64 f7 ff ff 	movw   $0xfff9,-0x89c(%rbp)
   11419:	f9 ff 
   1141b:	c6 85 66 f7 ff ff 90 	movb   $0x90,-0x89a(%rbp)
   11422:	66 c7 85 67 f7 ff ff 	movw   $0x7,-0x899(%rbp)
   11429:	07 00 
   1142b:	c6 85 69 f7 ff ff 00 	movb   $0x0,-0x897(%rbp)
   11432:	66 c7 85 6a f7 ff ff 	movw   $0x4a9c,-0x896(%rbp)
   11439:	9c 4a 
   1143b:	c6 85 6c f7 ff ff 01 	movb   $0x1,-0x894(%rbp)
   11442:	66 c7 85 6d f7 ff ff 	movw   $0xffff,-0x893(%rbp)
   11449:	ff ff 
   1144b:	c6 85 6f f7 ff ff 01 	movb   $0x1,-0x891(%rbp)
   11452:	66 c7 85 70 f7 ff ff 	movw   $0xf9,-0x890(%rbp)
   11459:	f9 00 
   1145b:	c6 85 72 f7 ff ff 00 	movb   $0x0,-0x88e(%rbp)
   11462:	66 c7 85 73 f7 ff ff 	movw   $0x301,-0x88d(%rbp)
   11469:	01 03 
   1146b:	c6 85 75 f7 ff ff 90 	movb   $0x90,-0x88b(%rbp)
   11472:	66 c7 85 76 f7 ff ff 	movw   $0x8bf8,-0x88a(%rbp)
   11479:	f8 8b 
   1147b:	c6 85 78 f7 ff ff 01 	movb   $0x1,-0x888(%rbp)
   11482:	66 c7 85 79 f7 ff ff 	movw   $0x253e,-0x887(%rbp)
   11489:	3e 25 
   1148b:	c6 85 7b f7 ff ff 01 	movb   $0x1,-0x885(%rbp)
   11492:	66 c7 85 7c f7 ff ff 	movw   $0x8ffe,-0x884(%rbp)
   11499:	fe 8f 
   1149b:	c6 85 7e f7 ff ff f9 	movb   $0xf9,-0x882(%rbp)
   114a2:	66 c7 85 7f f7 ff ff 	movw   $0x254a,-0x881(%rbp)
   114a9:	4a 25 
   114ab:	c6 85 81 f7 ff ff ff 	movb   $0xff,-0x87f(%rbp)
   114b2:	66 c7 85 82 f7 ff ff 	movw   $0x8b45,-0x87e(%rbp)
   114b9:	45 8b 
   114bb:	c6 85 84 f7 ff ff 80 	movb   $0x80,-0x87c(%rbp)
   114c2:	66 c7 85 85 f7 ff ff 	movw   $0x306,-0x87b(%rbp)
   114c9:	06 03 
   114cb:	c6 85 87 f7 ff ff 9c 	movb   $0x9c,-0x879(%rbp)
   114d2:	66 c7 85 88 f7 ff ff 	movw   $0x0,-0x878(%rbp)
   114d9:	00 00 
   114db:	c6 85 8a f7 ff ff 2b 	movb   $0x2b,-0x876(%rbp)
   114e2:	66 c7 85 8b f7 ff ff 	movw   $0xff00,-0x875(%rbp)
   114e9:	00 ff 
   114eb:	c6 85 8d f7 ff ff 8f 	movb   $0x8f,-0x873(%rbp)
   114f2:	66 c7 85 8e f7 ff ff 	movw   $0x4a00,-0x872(%rbp)
   114f9:	00 4a 
   114fb:	c6 85 90 f7 ff ff 06 	movb   $0x6,-0x870(%rbp)
   11502:	66 c7 85 91 f7 ff ff 	movw   $0x0,-0x86f(%rbp)
   11509:	00 00 
   1150b:	c6 85 93 f7 ff ff fe 	movb   $0xfe,-0x86d(%rbp)
   11512:	66 c7 85 94 f7 ff ff 	movw   $0xff06,-0x86c(%rbp)
   11519:	06 ff 
   1151b:	c6 85 96 f7 ff ff f8 	movb   $0xf8,-0x86a(%rbp)
   11522:	66 c7 85 97 f7 ff ff 	movw   $0x45,-0x869(%rbp)
   11529:	45 00 
   1152b:	c6 85 99 f7 ff ff 36 	movb   $0x36,-0x867(%rbp)
   11532:	66 c7 85 9a f7 ff ff 	movw   $0x364a,-0x866(%rbp)
   11539:	4a 36 
   1153b:	c6 85 9c f7 ff ff 29 	movb   $0x29,-0x864(%rbp)
   11542:	66 c7 85 9d f7 ff ff 	movw   $0x45fe,-0x863(%rbp)
   11549:	fe 45 
   1154b:	c6 85 9f f7 ff ff 36 	movb   $0x36,-0x861(%rbp)
   11552:	66 c7 85 a0 f7 ff ff 	movw   $0x903e,-0x860(%rbp)
   11559:	3e 90 
   1155b:	c6 85 a2 f7 ff ff f8 	movb   $0xf8,-0x85e(%rbp)
   11562:	66 c7 85 a3 f7 ff ff 	movw   $0x1f8,-0x85d(%rbp)
   11569:	f8 01 
   1156b:	c6 85 a5 f7 ff ff fe 	movb   $0xfe,-0x85b(%rbp)
   11572:	66 c7 85 a6 f7 ff ff 	movw   $0xf801,-0x85a(%rbp)
   11579:	01 f8 
   1157b:	c6 85 a8 f7 ff ff 06 	movb   $0x6,-0x858(%rbp)
   11582:	66 c7 85 a9 f7 ff ff 	movw   $0x80f9,-0x857(%rbp)
   11589:	f9 80 
   1158b:	c6 85 ab f7 ff ff 8f 	movb   $0x8f,-0x855(%rbp)
   11592:	66 c7 85 ac f7 ff ff 	movw   $0x80ff,-0x854(%rbp)
   11599:	ff 80 
   1159b:	c6 85 ae f7 ff ff 2b 	movb   $0x2b,-0x852(%rbp)
   115a2:	66 c7 85 af f7 ff ff 	movw   $0xf89c,-0x851(%rbp)
   115a9:	9c f8 
   115ab:	c6 85 b1 f7 ff ff 9c 	movb   $0x9c,-0x84f(%rbp)
   115b2:	66 c7 85 b2 f7 ff ff 	movw   $0x107,-0x84e(%rbp)
   115b9:	07 01 
   115bb:	c6 85 b4 f7 ff ff 80 	movb   $0x80,-0x84c(%rbp)
   115c2:	66 c7 85 b5 f7 ff ff 	movw   $0x90f9,-0x84b(%rbp)
   115c9:	f9 90 
   115cb:	c6 85 b7 f7 ff ff ff 	movb   $0xff,-0x849(%rbp)
   115d2:	66 c7 85 80 f4 ff ff 	movw   $0xfffe,-0xb80(%rbp)
   115d9:	fe ff 
   115db:	48 8d 05 ee 83 00 00 	lea    0x83ee(%rip),%rax        # 199d0 <g_294>
   115e2:	48 89 85 18 f5 ff ff 	mov    %rax,-0xae8(%rbp)
   115e9:	c7 85 90 f4 ff ff ff 	movl   $0xffffffff,-0xb70(%rbp)
   115f0:	ff ff ff 
   115f3:	c7 85 94 f4 ff ff c6 	movl   $0x564142c6,-0xb6c(%rbp)
   115fa:	42 41 56 
   115fd:	c7 85 b4 f4 ff ff 00 	movl   $0x0,-0xb4c(%rbp)
   11604:	00 00 00 
   11607:	48 c7 85 20 f5 ff ff 	movq   $0x0,-0xae0(%rbp)
   1160e:	00 00 00 00 
   11612:	48 8d 05 37 84 00 00 	lea    0x8437(%rip),%rax        # 19a50 <g_512>
   11619:	48 89 85 d8 f4 ff ff 	mov    %rax,-0xb28(%rbp)
   11620:	48 8d 85 d8 f4 ff ff 	lea    -0xb28(%rbp),%rax
   11627:	48 89 85 28 f5 ff ff 	mov    %rax,-0xad8(%rbp)
   1162e:	48 8d 85 60 fc ff ff 	lea    -0x3a0(%rbp),%rax
   11635:	48 8d 15 64 a2 00 00 	lea    0xa264(%rip),%rdx        # 1b8a0 <g_1285+0x18d0>
   1163c:	b9 6c 00 00 00       	mov    $0x6c,%ecx
   11641:	48 89 c7             	mov    %rax,%rdi
   11644:	48 89 d6             	mov    %rdx,%rsi
   11647:	f3 48 a5             	rep movsq %ds:(%rsi),%es:(%rdi)
   1164a:	48 c7 85 30 f5 ff ff 	movq   $0x0,-0xad0(%rbp)
   11651:	00 00 00 00 
   11655:	48 8d 05 38 7a 00 00 	lea    0x7a38(%rip),%rax        # 19094 <g_167>
   1165c:	48 89 85 38 f5 ff ff 	mov    %rax,-0xac8(%rbp)
   11663:	48 8d 05 da 79 00 00 	lea    0x79da(%rip),%rax        # 19044 <g_38+0x4>
   1166a:	48 89 85 40 f5 ff ff 	mov    %rax,-0xac0(%rbp)
   11671:	48 8b 85 68 f4 ff ff 	mov    -0xb98(%rbp),%rax
   11678:	48 c1 e8 13          	shr    $0x13,%rax
   1167c:	25 ff ff ff 00       	and    $0xffffff,%eax
   11681:	41 89 c4             	mov    %eax,%r12d
   11684:	48 8b 85 68 f4 ff ff 	mov    -0xb98(%rbp),%rax
   1168b:	48 c1 e8 13          	shr    $0x13,%rax
   1168f:	25 ff ff ff 00       	and    $0xffffff,%eax
   11694:	41 89 c5             	mov    %eax,%r13d
   11697:	0f b7 85 ca f4 ff ff 	movzwl -0xb36(%rbp),%eax
   1169e:	0f b6 95 cc f4 ff ff 	movzbl -0xb34(%rbp),%edx
   116a5:	83 e2 07             	and    $0x7,%edx
   116a8:	48 c1 e2 10          	shl    $0x10,%rdx
   116ac:	48 09 d0             	or     %rdx,%rax
   116af:	48 c1 e0 2d          	shl    $0x2d,%rax
   116b3:	48 c1 f8 2d          	sar    $0x2d,%rax
   116b7:	0f b6 d8             	movzbl %al,%ebx
   116ba:	be 01 00 00 00       	mov    $0x1,%esi
   116bf:	bf 01 00 00 00       	mov    $0x1,%edi
   116c4:	e8 f5 75 ff ff       	callq  8cbe <safe_rshift_func_uint8_t_u_u>
   116c9:	0f be c0             	movsbl %al,%eax
   116cc:	be fb ff ff ff       	mov    $0xfffffffb,%esi
   116d1:	89 c7                	mov    %eax,%edi
   116d3:	e8 59 6b ff ff       	callq  8231 <safe_mod_func_int8_t_s_s>
   116d8:	66 98                	cbtw   
   116da:	0f b7 d0             	movzwl %ax,%edx
   116dd:	8b 05 6d 79 00 00    	mov    0x796d(%rip),%eax        # 19050 <g_38+0x10>
   116e3:	0f b7 c0             	movzwl %ax,%eax
   116e6:	89 d6                	mov    %edx,%esi
   116e8:	89 c7                	mov    %eax,%edi
   116ea:	e8 30 76 ff ff       	callq  8d1f <safe_sub_func_uint16_t_u_u>
   116ef:	8b 85 68 f4 ff ff    	mov    -0xb98(%rbp),%eax
   116f5:	c1 e0 0d             	shl    $0xd,%eax
   116f8:	c1 f8 0d             	sar    $0xd,%eax
   116fb:	85 c0                	test   %eax,%eax
   116fd:	74 26                	je     11725 <func_58+0x6bd>
   116ff:	0f b7 85 cc f4 ff ff 	movzwl -0xb34(%rbp),%eax
   11706:	66 c1 e8 03          	shr    $0x3,%ax
   1170a:	0f b7 c0             	movzwl %ax,%eax
   1170d:	0f b7 95 ce f4 ff ff 	movzwl -0xb32(%rbp),%edx
   11714:	81 e2 ff 07 00 00    	and    $0x7ff,%edx
   1171a:	48 c1 e2 0d          	shl    $0xd,%rdx
   1171e:	48 09 d0             	or     %rdx,%rax
   11721:	85 c0                	test   %eax,%eax
   11723:	74 07                	je     1172c <func_58+0x6c4>
   11725:	b8 01 00 00 00       	mov    $0x1,%eax
   1172a:	eb 05                	jmp    11731 <func_58+0x6c9>
   1172c:	b8 00 00 00 00       	mov    $0x0,%eax
   11731:	0f b7 c0             	movzwl %ax,%eax
   11734:	be 04 00 00 00       	mov    $0x4,%esi
   11739:	89 c7                	mov    %eax,%edi
   1173b:	e8 7e 76 ff ff       	callq  8dbe <safe_lshift_func_uint16_t_u_s>
   11740:	0f b6 c0             	movzbl %al,%eax
   11743:	89 de                	mov    %ebx,%esi
   11745:	89 c7                	mov    %eax,%edi
   11747:	e8 47 74 ff ff       	callq  8b93 <safe_mul_func_uint8_t_u_u>
   1174c:	0f b6 c0             	movzbl %al,%eax
   1174f:	0f b7 95 ca f4 ff ff 	movzwl -0xb36(%rbp),%edx
   11756:	0f b6 8d cc f4 ff ff 	movzbl -0xb34(%rbp),%ecx
   1175d:	83 e1 07             	and    $0x7,%ecx
   11760:	48 c1 e1 10          	shl    $0x10,%rcx
   11764:	48 09 ca             	or     %rcx,%rdx
   11767:	48 c1 e2 2d          	shl    $0x2d,%rdx
   1176b:	48 c1 fa 2d          	sar    $0x2d,%rdx
   1176f:	39 d0                	cmp    %edx,%eax
   11771:	0f 95 c0             	setne  %al
   11774:	0f b6 c0             	movzbl %al,%eax
   11777:	4c 89 ee             	mov    %r13,%rsi
   1177a:	48 89 c7             	mov    %rax,%rdi
   1177d:	e8 bf 70 ff ff       	callq  8841 <safe_add_func_int64_t_s_s>
   11782:	44 89 e6             	mov    %r12d,%esi
   11785:	89 c7                	mov    %eax,%edi
   11787:	e8 44 77 ff ff       	callq  8ed0 <safe_sub_func_uint32_t_u_u>
   1178c:	89 c2                	mov    %eax,%edx
   1178e:	8b 85 68 f4 ff ff    	mov    -0xb98(%rbp),%eax
   11794:	c1 e0 0d             	shl    $0xd,%eax
   11797:	c1 f8 0d             	sar    $0xd,%eax
   1179a:	39 c2                	cmp    %eax,%edx
   1179c:	0f 95 c0             	setne  %al
   1179f:	0f b6 c0             	movzbl %al,%eax
   117a2:	0f b7 95 cc f4 ff ff 	movzwl -0xb34(%rbp),%edx
   117a9:	66 c1 ea 03          	shr    $0x3,%dx
   117ad:	0f b7 d2             	movzwl %dx,%edx
   117b0:	0f b7 8d ce f4 ff ff 	movzwl -0xb32(%rbp),%ecx
   117b7:	81 e1 ff 07 00 00    	and    $0x7ff,%ecx
   117bd:	48 c1 e1 0d          	shl    $0xd,%rcx
   117c1:	48 09 ca             	or     %rcx,%rdx
   117c4:	39 d0                	cmp    %edx,%eax
   117c6:	0f 9c c0             	setl   %al
   117c9:	0f b6 c0             	movzbl %al,%eax
   117cc:	48 98                	cltq   
   117ce:	48 31 85 f0 f4 ff ff 	xor    %rax,-0xb10(%rbp)
   117d5:	48 8b 85 d0 f4 ff ff 	mov    -0xb30(%rbp),%rax
   117dc:	48 8b 95 f0 f4 ff ff 	mov    -0xb10(%rbp),%rdx
   117e3:	89 10                	mov    %edx,(%rax)
   117e5:	48 8b 85 d0 f4 ff ff 	mov    -0xb30(%rbp),%rax
   117ec:	48 89 85 d0 f4 ff ff 	mov    %rax,-0xb30(%rbp)
   117f3:	48 8b 95 d0 f4 ff ff 	mov    -0xb30(%rbp),%rdx
   117fa:	48 8b 85 08 f5 ff ff 	mov    -0xaf8(%rbp),%rax
   11801:	48 89 10             	mov    %rdx,(%rax)
   11804:	48 8b 05 ad a6 00 00 	mov    0xa6ad(%rip),%rax        # 1beb8 <g_201>
   1180b:	48 8b 95 08 f5 ff ff 	mov    -0xaf8(%rbp),%rdx
   11812:	48 8b 12             	mov    (%rdx),%rdx
   11815:	48 89 10             	mov    %rdx,(%rax)
   11818:	48 c7 85 f0 f4 ff ff 	movq   $0x0,-0xb10(%rbp)
   1181f:	00 00 00 00 
   11823:	e9 77 03 00 00       	jmpq   11b9f <func_58+0xb37>
   11828:	48 8d 05 61 78 00 00 	lea    0x7861(%rip),%rax        # 19090 <g_129>
   1182f:	48 89 85 b8 f5 ff ff 	mov    %rax,-0xa48(%rbp)
   11836:	48 8d 85 ca f4 ff ff 	lea    -0xb36(%rbp),%rax
   1183d:	48 89 85 e8 f4 ff ff 	mov    %rax,-0xb18(%rbp)
   11844:	48 c7 85 c0 f5 ff ff 	movq   $0x0,-0xa40(%rbp)
   1184b:	00 00 00 00 
   1184f:	48 8d 05 42 78 00 00 	lea    0x7842(%rip),%rax        # 19098 <g_169>
   11856:	48 89 85 c8 f5 ff ff 	mov    %rax,-0xa38(%rbp)
   1185d:	c7 85 b8 f4 ff ff 01 	movl   $0x1,-0xb48(%rbp)
   11864:	00 00 00 
   11867:	c7 85 98 f4 ff ff 00 	movl   $0x0,-0xb68(%rbp)
   1186e:	00 00 00 
   11871:	e9 81 00 00 00       	jmpq   118f7 <func_58+0x88f>
   11876:	c7 85 9c f4 ff ff 00 	movl   $0x0,-0xb64(%rbp)
   1187d:	00 00 00 
   11880:	eb 65                	jmp    118e7 <func_58+0x87f>
   11882:	c7 85 a0 f4 ff ff 00 	movl   $0x0,-0xb60(%rbp)
   11889:	00 00 00 
   1188c:	eb 49                	jmp    118d7 <func_58+0x86f>
   1188e:	8b 85 a0 f4 ff ff    	mov    -0xb60(%rbp),%eax
   11894:	48 63 f0             	movslq %eax,%rsi
   11897:	8b 85 98 f4 ff ff    	mov    -0xb68(%rbp),%eax
   1189d:	48 98                	cltq   
   1189f:	8b 95 9c f4 ff ff    	mov    -0xb64(%rbp),%edx
   118a5:	48 63 ca             	movslq %edx,%rcx
   118a8:	48 89 c2             	mov    %rax,%rdx
   118ab:	48 c1 e2 04          	shl    $0x4,%rdx
   118af:	48 29 c2             	sub    %rax,%rdx
   118b2:	48 89 c8             	mov    %rcx,%rax
   118b5:	48 01 c0             	add    %rax,%rax
   118b8:	48 01 c8             	add    %rcx,%rax
   118bb:	48 01 d0             	add    %rdx,%rax
   118be:	48 01 f0             	add    %rsi,%rax
   118c1:	48 8d 15 d4 77 00 00 	lea    0x77d4(%rip),%rdx        # 1909c <g_198>
   118c8:	48 89 94 c5 c0 f9 ff 	mov    %rdx,-0x640(%rbp,%rax,8)
   118cf:	ff 
   118d0:	83 85 a0 f4 ff ff 01 	addl   $0x1,-0xb60(%rbp)
   118d7:	83 bd a0 f4 ff ff 02 	cmpl   $0x2,-0xb60(%rbp)
   118de:	7e ae                	jle    1188e <func_58+0x826>
   118e0:	83 85 9c f4 ff ff 01 	addl   $0x1,-0xb64(%rbp)
   118e7:	83 bd 9c f4 ff ff 04 	cmpl   $0x4,-0xb64(%rbp)
   118ee:	7e 92                	jle    11882 <func_58+0x81a>
   118f0:	83 85 98 f4 ff ff 01 	addl   $0x1,-0xb68(%rbp)
   118f7:	83 bd 98 f4 ff ff 02 	cmpl   $0x2,-0xb68(%rbp)
   118fe:	0f 8e 72 ff ff ff    	jle    11876 <func_58+0x80e>
   11904:	c7 85 98 f4 ff ff 00 	movl   $0x0,-0xb68(%rbp)
   1190b:	00 00 00 
   1190e:	eb 1e                	jmp    1192e <func_58+0x8c6>
   11910:	8b 85 98 f4 ff ff    	mov    -0xb68(%rbp),%eax
   11916:	48 98                	cltq   
   11918:	48 8d 95 e8 f4 ff ff 	lea    -0xb18(%rbp),%rdx
   1191f:	48 89 94 c5 a0 f8 ff 	mov    %rdx,-0x760(%rbp,%rax,8)
   11926:	ff 
   11927:	83 85 98 f4 ff ff 01 	addl   $0x1,-0xb68(%rbp)
   1192e:	83 bd 98 f4 ff ff 09 	cmpl   $0x9,-0xb68(%rbp)
   11935:	7e d9                	jle    11910 <func_58+0x8a8>
   11937:	c7 85 98 f4 ff ff 00 	movl   $0x0,-0xb68(%rbp)
   1193e:	00 00 00 
   11941:	eb 79                	jmp    119bc <func_58+0x954>
   11943:	c7 85 9c f4 ff ff 00 	movl   $0x0,-0xb64(%rbp)
   1194a:	00 00 00 
   1194d:	eb 5d                	jmp    119ac <func_58+0x944>
   1194f:	c7 85 a0 f4 ff ff 00 	movl   $0x0,-0xb60(%rbp)
   11956:	00 00 00 
   11959:	eb 41                	jmp    1199c <func_58+0x934>
   1195b:	8b 85 a0 f4 ff ff    	mov    -0xb60(%rbp),%eax
   11961:	48 63 c8             	movslq %eax,%rcx
   11964:	8b 85 98 f4 ff ff    	mov    -0xb68(%rbp),%eax
   1196a:	48 63 d0             	movslq %eax,%rdx
   1196d:	8b 85 9c f4 ff ff    	mov    -0xb64(%rbp),%eax
   11973:	48 98                	cltq   
   11975:	48 01 c2             	add    %rax,%rdx
   11978:	48 89 d0             	mov    %rdx,%rax
   1197b:	48 c1 e0 03          	shl    $0x3,%rax
   1197f:	48 01 d0             	add    %rdx,%rax
   11982:	48 8d 5d d0          	lea    -0x30(%rbp),%rbx
   11986:	48 01 d8             	add    %rbx,%rax
   11989:	48 01 c8             	add    %rcx,%rax
   1198c:	48 2d b0 09 00 00    	sub    $0x9b0,%rax
   11992:	c6 00 ff             	movb   $0xff,(%rax)
   11995:	83 85 a0 f4 ff ff 01 	addl   $0x1,-0xb60(%rbp)
   1199c:	83 bd a0 f4 ff ff 08 	cmpl   $0x8,-0xb60(%rbp)
   119a3:	7e b6                	jle    1195b <func_58+0x8f3>
   119a5:	83 85 9c f4 ff ff 01 	addl   $0x1,-0xb64(%rbp)
   119ac:	83 bd 9c f4 ff ff 00 	cmpl   $0x0,-0xb64(%rbp)
   119b3:	7e 9a                	jle    1194f <func_58+0x8e7>
   119b5:	83 85 98 f4 ff ff 01 	addl   $0x1,-0xb68(%rbp)
   119bc:	83 bd 98 f4 ff ff 00 	cmpl   $0x0,-0xb68(%rbp)
   119c3:	0f 8e 7a ff ff ff    	jle    11943 <func_58+0x8db>
   119c9:	48 83 ad f8 f4 ff ff 	subq   $0x1,-0xb08(%rbp)
   119d0:	01 
   119d1:	8b 85 68 f4 ff ff    	mov    -0xb98(%rbp),%eax
   119d7:	c1 e0 0d             	shl    $0xd,%eax
   119da:	c1 f8 0d             	sar    $0xd,%eax
   119dd:	85 c0                	test   %eax,%eax
   119df:	75 77                	jne    11a58 <func_58+0x9f0>
   119e1:	0f b6 05 4a 76 00 00 	movzbl 0x764a(%rip),%eax        # 19032 <g_15+0x2>
   119e8:	c0 e8 03             	shr    $0x3,%al
   119eb:	0f b6 c0             	movzbl %al,%eax
   119ee:	0f b6 15 3e 76 00 00 	movzbl 0x763e(%rip),%edx        # 19033 <g_15+0x3>
   119f5:	48 c1 e2 05          	shl    $0x5,%rdx
   119f9:	48 09 c2             	or     %rax,%rdx
   119fc:	0f b6 05 31 76 00 00 	movzbl 0x7631(%rip),%eax        # 19034 <g_15+0x4>
   11a03:	48 c1 e0 0d          	shl    $0xd,%rax
   11a07:	48 09 c2             	or     %rax,%rdx
   11a0a:	0f b6 05 24 76 00 00 	movzbl 0x7624(%rip),%eax        # 19035 <g_15+0x5>
   11a11:	83 e0 07             	and    $0x7,%eax
   11a14:	48 c1 e0 15          	shl    $0x15,%rax
   11a18:	48 09 d0             	or     %rdx,%rax
   11a1b:	0f b6 d8             	movzbl %al,%ebx
   11a1e:	48 83 bd b8 f5 ff ff 	cmpq   $0x0,-0xa48(%rbp)
   11a25:	00 
   11a26:	0f 95 c0             	setne  %al
   11a29:	0f b6 d0             	movzbl %al,%edx
   11a2c:	66 0f be 85 7c f4 ff 	movsbw -0xb84(%rbp),%ax
   11a33:	ff 
   11a34:	0f b7 c0             	movzwl %ax,%eax
   11a37:	89 d6                	mov    %edx,%esi
   11a39:	89 c7                	mov    %eax,%edi
   11a3b:	e8 fd 72 ff ff       	callq  8d3d <safe_mul_func_uint16_t_u_u>
   11a40:	0f b7 c0             	movzwl %ax,%eax
   11a43:	89 c7                	mov    %eax,%edi
   11a45:	e8 4c 6b ff ff       	callq  8596 <safe_unary_minus_func_int32_t_s>
   11a4a:	0f b6 c0             	movzbl %al,%eax
   11a4d:	89 de                	mov    %ebx,%esi
   11a4f:	89 c7                	mov    %eax,%edi
   11a51:	e8 58 71 ff ff       	callq  8bae <safe_mod_func_uint8_t_u_u>
   11a56:	84 c0                	test   %al,%al
   11a58:	48 8d 05 d1 75 00 00 	lea    0x75d1(%rip),%rax        # 19030 <g_15>
   11a5f:	48 89 05 32 b8 00 00 	mov    %rax,0xb832(%rip)        # 1d298 <g_220>
   11a66:	48 8b 05 2b b8 00 00 	mov    0xb82b(%rip),%rax        # 1d298 <g_220>
   11a6d:	48 89 05 2c a4 00 00 	mov    %rax,0xa42c(%rip)        # 1bea0 <g_16>
   11a74:	48 c7 85 f8 f4 ff ff 	movq   $0x0,-0xb08(%rbp)
   11a7b:	00 00 00 00 
   11a7f:	e9 05 01 00 00       	jmpq   11b89 <func_58+0xb21>
   11a84:	c7 85 bc f4 ff ff ff 	movl   $0xffffffff,-0xb44(%rbp)
   11a8b:	ff ff ff 
   11a8e:	c7 85 c0 f4 ff ff 05 	movl   $0x5,-0xb40(%rbp)
   11a95:	00 00 00 
   11a98:	48 8d 05 29 7f 00 00 	lea    0x7f29(%rip),%rax        # 199c8 <g_262>
   11a9f:	48 89 85 d0 f5 ff ff 	mov    %rax,-0xa30(%rbp)
   11aa6:	c7 85 c4 f4 ff ff 02 	movl   $0x2,-0xb3c(%rbp)
   11aad:	00 00 00 
   11ab0:	48 8d 85 d0 f4 ff ff 	lea    -0xb30(%rbp),%rax
   11ab7:	48 89 85 c0 f7 ff ff 	mov    %rax,-0x840(%rbp)
   11abe:	48 8d 85 d0 f4 ff ff 	lea    -0xb30(%rbp),%rax
   11ac5:	48 89 85 c8 f7 ff ff 	mov    %rax,-0x838(%rbp)
   11acc:	48 8d 85 d0 f4 ff ff 	lea    -0xb30(%rbp),%rax
   11ad3:	48 89 85 d0 f7 ff ff 	mov    %rax,-0x830(%rbp)
   11ada:	48 8d 85 d0 f4 ff ff 	lea    -0xb30(%rbp),%rax
   11ae1:	48 89 85 d8 f7 ff ff 	mov    %rax,-0x828(%rbp)
   11ae8:	48 8d 85 d0 f4 ff ff 	lea    -0xb30(%rbp),%rax
   11aef:	48 89 85 e0 f7 ff ff 	mov    %rax,-0x820(%rbp)
   11af6:	48 8d 85 d0 f4 ff ff 	lea    -0xb30(%rbp),%rax
   11afd:	48 89 85 e8 f7 ff ff 	mov    %rax,-0x818(%rbp)
   11b04:	48 8d 85 d0 f4 ff ff 	lea    -0xb30(%rbp),%rax
   11b0b:	48 89 85 f0 f7 ff ff 	mov    %rax,-0x810(%rbp)
   11b12:	48 8d 85 d0 f4 ff ff 	lea    -0xb30(%rbp),%rax
   11b19:	48 89 85 f8 f7 ff ff 	mov    %rax,-0x808(%rbp)
   11b20:	48 8d 85 d0 f4 ff ff 	lea    -0xb30(%rbp),%rax
   11b27:	48 89 85 00 f8 ff ff 	mov    %rax,-0x800(%rbp)
   11b2e:	48 8d 05 fb 74 00 00 	lea    0x74fb(%rip),%rax        # 19030 <g_15>
   11b35:	48 89 85 d8 f5 ff ff 	mov    %rax,-0xa28(%rbp)
   11b3c:	48 c7 85 e0 f5 ff ff 	movq   $0x0,-0xa20(%rbp)
   11b43:	00 00 00 00 
   11b47:	48 c7 85 e8 f5 ff ff 	movq   $0x0,-0xa18(%rbp)
   11b4e:	00 00 00 00 
   11b52:	c7 85 a4 f4 ff ff 00 	movl   $0x0,-0xb5c(%rbp)
   11b59:	00 00 00 
   11b5c:	eb 1a                	jmp    11b78 <func_58+0xb10>
   11b5e:	8b 85 a4 f4 ff ff    	mov    -0xb5c(%rbp),%eax
   11b64:	48 98                	cltq   
   11b66:	c7 84 85 70 f6 ff ff 	movl   $0x78e88200,-0x990(%rbp,%rax,4)
   11b6d:	00 82 e8 78 
   11b71:	83 85 a4 f4 ff ff 01 	addl   $0x1,-0xb5c(%rbp)
   11b78:	83 bd a4 f4 ff ff 02 	cmpl   $0x2,-0xb5c(%rbp)
   11b7f:	7e dd                	jle    11b5e <func_58+0xaf6>
   11b81:	48 83 85 f8 f4 ff ff 	addq   $0x1,-0xb08(%rbp)
   11b88:	01 
   11b89:	48 83 bd f8 f4 ff ff 	cmpq   $0x2,-0xb08(%rbp)
   11b90:	02 
   11b91:	0f 86 ed fe ff ff    	jbe    11a84 <func_58+0xa1c>
   11b97:	48 83 85 f0 f4 ff ff 	addq   $0x1,-0xb10(%rbp)
   11b9e:	01 
   11b9f:	48 83 bd f0 f4 ff ff 	cmpq   $0x2,-0xb10(%rbp)
   11ba6:	02 
   11ba7:	0f 8e 7b fc ff ff    	jle    11828 <func_58+0x7c0>
   11bad:	66 c7 85 80 f4 ff ff 	movw   $0xfff2,-0xb80(%rbp)
   11bb4:	f2 ff 
   11bb6:	e9 06 0d 00 00       	jmpq   128c1 <func_58+0x1859>
   11bbb:	48 8d 05 7a 74 00 00 	lea    0x747a(%rip),%rax        # 1903c <g_19>
   11bc2:	48 89 85 48 f5 ff ff 	mov    %rax,-0xab8(%rbp)
   11bc9:	48 c7 85 e0 f4 ff ff 	movq   $0x0,-0xb20(%rbp)
   11bd0:	00 00 00 00 
   11bd4:	48 8d 85 e0 f4 ff ff 	lea    -0xb20(%rbp),%rax
   11bdb:	48 89 85 a0 f8 ff ff 	mov    %rax,-0x760(%rbp)
   11be2:	48 8d 85 e0 f4 ff ff 	lea    -0xb20(%rbp),%rax
   11be9:	48 89 85 a8 f8 ff ff 	mov    %rax,-0x758(%rbp)
   11bf0:	48 c7 85 b0 f8 ff ff 	movq   $0x0,-0x750(%rbp)
   11bf7:	00 00 00 00 
   11bfb:	48 8d 85 e0 f4 ff ff 	lea    -0xb20(%rbp),%rax
   11c02:	48 89 85 b8 f8 ff ff 	mov    %rax,-0x748(%rbp)
   11c09:	48 8d 85 e0 f4 ff ff 	lea    -0xb20(%rbp),%rax
   11c10:	48 89 85 c0 f8 ff ff 	mov    %rax,-0x740(%rbp)
   11c17:	48 8d 85 e0 f4 ff ff 	lea    -0xb20(%rbp),%rax
   11c1e:	48 89 85 c8 f8 ff ff 	mov    %rax,-0x738(%rbp)
   11c25:	48 c7 85 d0 f8 ff ff 	movq   $0x0,-0x730(%rbp)
   11c2c:	00 00 00 00 
   11c30:	48 c7 85 d8 f8 ff ff 	movq   $0x0,-0x728(%rbp)
   11c37:	00 00 00 00 
   11c3b:	48 c7 85 e0 f8 ff ff 	movq   $0x0,-0x720(%rbp)
   11c42:	00 00 00 00 
   11c46:	48 c7 85 e8 f8 ff ff 	movq   $0x0,-0x718(%rbp)
   11c4d:	00 00 00 00 
   11c51:	48 c7 85 f0 f8 ff ff 	movq   $0x0,-0x710(%rbp)
   11c58:	00 00 00 00 
   11c5c:	48 c7 85 f8 f8 ff ff 	movq   $0x0,-0x708(%rbp)
   11c63:	00 00 00 00 
   11c67:	48 c7 85 00 f9 ff ff 	movq   $0x0,-0x700(%rbp)
   11c6e:	00 00 00 00 
   11c72:	48 c7 85 08 f9 ff ff 	movq   $0x0,-0x6f8(%rbp)
   11c79:	00 00 00 00 
   11c7d:	48 8d 85 e0 f4 ff ff 	lea    -0xb20(%rbp),%rax
   11c84:	48 89 85 10 f9 ff ff 	mov    %rax,-0x6f0(%rbp)
   11c8b:	48 8d 85 e0 f4 ff ff 	lea    -0xb20(%rbp),%rax
   11c92:	48 89 85 18 f9 ff ff 	mov    %rax,-0x6e8(%rbp)
   11c99:	48 8d 85 e0 f4 ff ff 	lea    -0xb20(%rbp),%rax
   11ca0:	48 89 85 20 f9 ff ff 	mov    %rax,-0x6e0(%rbp)
   11ca7:	48 8d 85 e0 f4 ff ff 	lea    -0xb20(%rbp),%rax
   11cae:	48 89 85 28 f9 ff ff 	mov    %rax,-0x6d8(%rbp)
   11cb5:	48 8d 85 e0 f4 ff ff 	lea    -0xb20(%rbp),%rax
   11cbc:	48 89 85 30 f9 ff ff 	mov    %rax,-0x6d0(%rbp)
   11cc3:	48 8d 85 e0 f4 ff ff 	lea    -0xb20(%rbp),%rax
   11cca:	48 89 85 38 f9 ff ff 	mov    %rax,-0x6c8(%rbp)
   11cd1:	48 8d 85 e0 f4 ff ff 	lea    -0xb20(%rbp),%rax
   11cd8:	48 89 85 40 f9 ff ff 	mov    %rax,-0x6c0(%rbp)
   11cdf:	48 c7 85 48 f9 ff ff 	movq   $0x0,-0x6b8(%rbp)
   11ce6:	00 00 00 00 
   11cea:	48 c7 85 50 f9 ff ff 	movq   $0x0,-0x6b0(%rbp)
   11cf1:	00 00 00 00 
   11cf5:	48 c7 85 58 f9 ff ff 	movq   $0x0,-0x6a8(%rbp)
   11cfc:	00 00 00 00 
   11d00:	48 c7 85 60 f9 ff ff 	movq   $0x0,-0x6a0(%rbp)
   11d07:	00 00 00 00 
   11d0b:	48 c7 85 68 f9 ff ff 	movq   $0x0,-0x698(%rbp)
   11d12:	00 00 00 00 
   11d16:	48 c7 85 70 f9 ff ff 	movq   $0x0,-0x690(%rbp)
   11d1d:	00 00 00 00 
   11d21:	48 c7 85 78 f9 ff ff 	movq   $0x0,-0x688(%rbp)
   11d28:	00 00 00 00 
   11d2c:	48 8d 85 e0 f4 ff ff 	lea    -0xb20(%rbp),%rax
   11d33:	48 89 85 80 f9 ff ff 	mov    %rax,-0x680(%rbp)
   11d3a:	48 8d 85 e0 f4 ff ff 	lea    -0xb20(%rbp),%rax
   11d41:	48 89 85 88 f9 ff ff 	mov    %rax,-0x678(%rbp)
   11d48:	48 c7 85 90 f9 ff ff 	movq   $0x0,-0x670(%rbp)
   11d4f:	00 00 00 00 
   11d53:	48 8d 85 e0 f4 ff ff 	lea    -0xb20(%rbp),%rax
   11d5a:	48 89 85 98 f9 ff ff 	mov    %rax,-0x668(%rbp)
   11d61:	48 8d 85 e0 f4 ff ff 	lea    -0xb20(%rbp),%rax
   11d68:	48 89 85 a0 f9 ff ff 	mov    %rax,-0x660(%rbp)
   11d6f:	48 8d 85 e0 f4 ff ff 	lea    -0xb20(%rbp),%rax
   11d76:	48 89 85 a8 f9 ff ff 	mov    %rax,-0x658(%rbp)
   11d7d:	48 c7 85 b0 f9 ff ff 	movq   $0x0,-0x650(%rbp)
   11d84:	00 00 00 00 
   11d88:	48 c7 85 50 f5 ff ff 	movq   $0x0,-0xab0(%rbp)
   11d8f:	00 00 00 00 
   11d93:	48 8d 05 d6 7c 00 00 	lea    0x7cd6(%rip),%rax        # 19a70 <g_587>
   11d9a:	48 89 85 58 f5 ff ff 	mov    %rax,-0xaa8(%rbp)
   11da1:	66 c7 85 7e f4 ff ff 	movw   $0x2ac8,-0xb82(%rbp)
   11da8:	c8 2a 
   11daa:	c7 85 88 f4 ff ff 00 	movl   $0x0,-0xb78(%rbp)
   11db1:	00 00 00 
   11db4:	c7 85 a8 f4 ff ff 00 	movl   $0x0,-0xb58(%rbp)
   11dbb:	00 00 00 
   11dbe:	eb 4e                	jmp    11e0e <func_58+0xda6>
   11dc0:	c7 85 ac f4 ff ff 00 	movl   $0x0,-0xb54(%rbp)
   11dc7:	00 00 00 
   11dca:	eb 32                	jmp    11dfe <func_58+0xd96>
   11dcc:	8b 85 ac f4 ff ff    	mov    -0xb54(%rbp),%eax
   11dd2:	48 63 c8             	movslq %eax,%rcx
   11dd5:	8b 85 a8 f4 ff ff    	mov    -0xb58(%rbp),%eax
   11ddb:	48 63 d0             	movslq %eax,%rdx
   11dde:	48 89 d0             	mov    %rdx,%rax
   11de1:	48 c1 e0 02          	shl    $0x2,%rax
   11de5:	48 01 d0             	add    %rdx,%rax
   11de8:	48 01 c8             	add    %rcx,%rax
   11deb:	48 c7 84 c5 20 f6 ff 	movq   $0x0,-0x9e0(%rbp,%rax,8)
   11df2:	ff 00 00 00 00 
   11df7:	83 85 ac f4 ff ff 01 	addl   $0x1,-0xb54(%rbp)
   11dfe:	83 bd ac f4 ff ff 04 	cmpl   $0x4,-0xb54(%rbp)
   11e05:	7e c5                	jle    11dcc <func_58+0xd64>
   11e07:	83 85 a8 f4 ff ff 01 	addl   $0x1,-0xb58(%rbp)
   11e0e:	83 bd a8 f4 ff ff 01 	cmpl   $0x1,-0xb58(%rbp)
   11e15:	7e a9                	jle    11dc0 <func_58+0xd58>
   11e17:	c7 85 94 f4 ff ff 00 	movl   $0x0,-0xb6c(%rbp)
   11e1e:	00 00 00 
   11e21:	e9 73 0a 00 00       	jmpq   12899 <func_58+0x1831>
   11e26:	c7 85 8c f4 ff ff f6 	movl   $0xfffffff6,-0xb74(%rbp)
   11e2d:	ff ff ff 
   11e30:	66 c7 85 82 f4 ff ff 	movw   $0x112,-0xb7e(%rbp)
   11e37:	12 01 
   11e39:	48 8d 85 c0 f9 ff ff 	lea    -0x640(%rbp),%rax
   11e40:	48 8d 15 b9 9d 00 00 	lea    0x9db9(%rip),%rdx        # 1bc00 <g_1285+0x1c30>
   11e47:	b9 54 00 00 00       	mov    $0x54,%ecx
   11e4c:	48 89 c7             	mov    %rax,%rdi
   11e4f:	48 89 d6             	mov    %rdx,%rsi
   11e52:	f3 48 a5             	rep movsq %ds:(%rsi),%es:(%rdi)
   11e55:	c7 85 c0 f7 ff ff fa 	movl   $0xfffffffa,-0x840(%rbp)
   11e5c:	ff ff ff 
   11e5f:	c7 85 c4 f7 ff ff fb 	movl   $0xbf4cb5fb,-0x83c(%rbp)
   11e66:	b5 4c bf 
   11e69:	c7 85 c8 f7 ff ff fa 	movl   $0xfffffffa,-0x838(%rbp)
   11e70:	ff ff ff 
   11e73:	c7 85 cc f7 ff ff ba 	movl   $0x9f0a5dba,-0x834(%rbp)
   11e7a:	5d 0a 9f 
   11e7d:	c7 85 d0 f7 ff ff ff 	movl   $0xffffffff,-0x830(%rbp)
   11e84:	ff ff ff 
   11e87:	c7 85 d4 f7 ff ff ff 	movl   $0xffffffff,-0x82c(%rbp)
   11e8e:	ff ff ff 
   11e91:	c7 85 d8 f7 ff ff ba 	movl   $0x9f0a5dba,-0x828(%rbp)
   11e98:	5d 0a 9f 
   11e9b:	c7 85 dc f7 ff ff fa 	movl   $0xfffffffa,-0x824(%rbp)
   11ea2:	ff ff ff 
   11ea5:	c7 85 e0 f7 ff ff fb 	movl   $0xbf4cb5fb,-0x820(%rbp)
   11eac:	b5 4c bf 
   11eaf:	c7 85 e4 f7 ff ff fb 	movl   $0xbf4cb5fb,-0x81c(%rbp)
   11eb6:	b5 4c bf 
   11eb9:	c7 85 e8 f7 ff ff fa 	movl   $0xfffffffa,-0x818(%rbp)
   11ec0:	ff ff ff 
   11ec3:	c7 85 ec f7 ff ff ba 	movl   $0x9f0a5dba,-0x814(%rbp)
   11eca:	5d 0a 9f 
   11ecd:	c7 85 f0 f7 ff ff ff 	movl   $0xffffffff,-0x810(%rbp)
   11ed4:	ff ff ff 
   11ed7:	c7 85 f4 f7 ff ff ff 	movl   $0xffffffff,-0x80c(%rbp)
   11ede:	ff ff ff 
   11ee1:	c7 85 f8 f7 ff ff ba 	movl   $0x9f0a5dba,-0x808(%rbp)
   11ee8:	5d 0a 9f 
   11eeb:	c7 85 fc f7 ff ff fa 	movl   $0xfffffffa,-0x804(%rbp)
   11ef2:	ff ff ff 
   11ef5:	c7 85 00 f8 ff ff fb 	movl   $0xbf4cb5fb,-0x800(%rbp)
   11efc:	b5 4c bf 
   11eff:	c7 85 04 f8 ff ff fa 	movl   $0xfffffffa,-0x7fc(%rbp)
   11f06:	ff ff ff 
   11f09:	c7 85 08 f8 ff ff c5 	movl   $0x6f6465c5,-0x7f8(%rbp)
   11f10:	65 64 6f 
   11f13:	c7 85 0c f8 ff ff 93 	movl   $0xf18a7e93,-0x7f4(%rbp)
   11f1a:	7e 8a f1 
   11f1d:	c7 85 10 f8 ff ff ba 	movl   $0x9f0a5dba,-0x7f0(%rbp)
   11f24:	5d 0a 9f 
   11f27:	c7 85 14 f8 ff ff ba 	movl   $0x9f0a5dba,-0x7ec(%rbp)
   11f2e:	5d 0a 9f 
   11f31:	c7 85 18 f8 ff ff 93 	movl   $0xf18a7e93,-0x7e8(%rbp)
   11f38:	7e 8a f1 
   11f3b:	c7 85 1c f8 ff ff c5 	movl   $0x6f6465c5,-0x7e4(%rbp)
   11f42:	65 64 6f 
   11f45:	c7 85 20 f8 ff ff ff 	movl   $0xffffffff,-0x7e0(%rbp)
   11f4c:	ff ff ff 
   11f4f:	c7 85 24 f8 ff ff fa 	movl   $0xfffffffa,-0x7dc(%rbp)
   11f56:	ff ff ff 
   11f59:	c7 85 28 f8 ff ff ba 	movl   $0x9f0a5dba,-0x7d8(%rbp)
   11f60:	5d 0a 9f 
   11f63:	c7 85 2c f8 ff ff fa 	movl   $0xfffffffa,-0x7d4(%rbp)
   11f6a:	ff ff ff 
   11f6d:	c7 85 30 f8 ff ff 93 	movl   $0xf18a7e93,-0x7d0(%rbp)
   11f74:	7e 8a f1 
   11f77:	c7 85 34 f8 ff ff 93 	movl   $0xf18a7e93,-0x7cc(%rbp)
   11f7e:	7e 8a f1 
   11f81:	c7 85 38 f8 ff ff fa 	movl   $0xfffffffa,-0x7c8(%rbp)
   11f88:	ff ff ff 
   11f8b:	c7 85 3c f8 ff ff 00 	movl   $0x6c443500,-0x7c4(%rbp)
   11f92:	35 44 6c 
   11f95:	c7 85 40 f8 ff ff ba 	movl   $0x9f0a5dba,-0x7c0(%rbp)
   11f9c:	5d 0a 9f 
   11f9f:	c7 85 44 f8 ff ff 00 	movl   $0x6c443500,-0x7bc(%rbp)
   11fa6:	35 44 6c 
   11fa9:	c7 85 48 f8 ff ff fa 	movl   $0xfffffffa,-0x7b8(%rbp)
   11fb0:	ff ff ff 
   11fb3:	c7 85 4c f8 ff ff 93 	movl   $0xf18a7e93,-0x7b4(%rbp)
   11fba:	7e 8a f1 
   11fbd:	c7 85 50 f8 ff ff 00 	movl   $0x6c443500,-0x7b0(%rbp)
   11fc4:	35 44 6c 
   11fc7:	c7 85 54 f8 ff ff 00 	movl   $0x6c443500,-0x7ac(%rbp)
   11fce:	35 44 6c 
   11fd1:	c7 85 58 f8 ff ff fb 	movl   $0xbf4cb5fb,-0x7a8(%rbp)
   11fd8:	b5 4c bf 
   11fdb:	c7 85 5c f8 ff ff ba 	movl   $0x9f0a5dba,-0x7a4(%rbp)
   11fe2:	5d 0a 9f 
   11fe5:	c7 85 60 f8 ff ff c5 	movl   $0x6f6465c5,-0x7a0(%rbp)
   11fec:	65 64 6f 
   11fef:	c7 85 64 f8 ff ff ba 	movl   $0x9f0a5dba,-0x79c(%rbp)
   11ff6:	5d 0a 9f 
   11ff9:	c7 85 68 f8 ff ff fb 	movl   $0xbf4cb5fb,-0x798(%rbp)
   12000:	b5 4c bf 
   12003:	c7 85 6c f8 ff ff 00 	movl   $0x6c443500,-0x794(%rbp)
   1200a:	35 44 6c 
   1200d:	c7 85 70 f8 ff ff 00 	movl   $0x6c443500,-0x790(%rbp)
   12014:	35 44 6c 
   12017:	c7 85 74 f8 ff ff 93 	movl   $0xf18a7e93,-0x78c(%rbp)
   1201e:	7e 8a f1 
   12021:	c7 85 78 f8 ff ff fa 	movl   $0xfffffffa,-0x788(%rbp)
   12028:	ff ff ff 
   1202b:	c7 85 7c f8 ff ff 00 	movl   $0x6c443500,-0x784(%rbp)
   12032:	35 44 6c 
   12035:	c7 85 80 f8 ff ff ba 	movl   $0x9f0a5dba,-0x780(%rbp)
   1203c:	5d 0a 9f 
   1203f:	c7 85 84 f8 ff ff 00 	movl   $0x6c443500,-0x77c(%rbp)
   12046:	35 44 6c 
   12049:	c7 85 88 f8 ff ff fa 	movl   $0xfffffffa,-0x778(%rbp)
   12050:	ff ff ff 
   12053:	c7 85 8c f8 ff ff 93 	movl   $0xf18a7e93,-0x774(%rbp)
   1205a:	7e 8a f1 
   1205d:	c7 85 90 f8 ff ff 93 	movl   $0xf18a7e93,-0x770(%rbp)
   12064:	7e 8a f1 
   12067:	c7 85 94 f8 ff ff fa 	movl   $0xfffffffa,-0x76c(%rbp)
   1206e:	ff ff ff 
   12071:	48 c7 85 60 f5 ff ff 	movq   $0x0,-0xaa0(%rbp)
   12078:	00 00 00 00 
   1207c:	c6 05 0d 70 00 00 00 	movb   $0x0,0x700d(%rip)        # 19090 <g_129>
   12083:	90                   	nop
   12084:	0f b6 05 05 70 00 00 	movzbl 0x7005(%rip),%eax        # 19090 <g_129>
   1208b:	3c 31                	cmp    $0x31,%al
   1208d:	76 10                	jbe    1209f <func_58+0x1037>
   1208f:	48 8b 85 d0 f4 ff ff 	mov    -0xb30(%rbp),%rax
   12096:	8b 00                	mov    (%rax),%eax
   12098:	48 98                	cltq   
   1209a:	e9 3e 08 00 00       	jmpq   128dd <func_58+0x1875>
   1209f:	c7 85 90 f4 ff ff e4 	movl   $0xffffffe4,-0xb70(%rbp)
   120a6:	ff ff ff 
   120a9:	e9 a6 02 00 00       	jmpq   12354 <func_58+0x12ec>
   120ae:	66 c7 85 70 f6 ff ff 	movw   $0x0,-0x990(%rbp)
   120b5:	00 00 
   120b7:	66 c7 85 72 f6 ff ff 	movw   $0x0,-0x98e(%rbp)
   120be:	00 00 
   120c0:	66 c7 85 74 f6 ff ff 	movw   $0x0,-0x98c(%rbp)
   120c7:	00 00 
   120c9:	66 c7 85 76 f6 ff ff 	movw   $0x0,-0x98a(%rbp)
   120d0:	00 00 
   120d2:	66 c7 85 78 f6 ff ff 	movw   $0x0,-0x988(%rbp)
   120d9:	00 00 
   120db:	66 c7 85 7a f6 ff ff 	movw   $0x0,-0x986(%rbp)
   120e2:	00 00 
   120e4:	66 c7 85 7c f6 ff ff 	movw   $0x0,-0x984(%rbp)
   120eb:	00 00 
   120ed:	66 c7 85 7e f6 ff ff 	movw   $0xfff6,-0x982(%rbp)
   120f4:	f6 ff 
   120f6:	66 c7 85 80 f6 ff ff 	movw   $0xfff6,-0x980(%rbp)
   120fd:	f6 ff 
   120ff:	66 c7 85 82 f6 ff ff 	movw   $0xfff6,-0x97e(%rbp)
   12106:	f6 ff 
   12108:	66 c7 85 84 f6 ff ff 	movw   $0xfff6,-0x97c(%rbp)
   1210f:	f6 ff 
   12111:	66 c7 85 86 f6 ff ff 	movw   $0xfff6,-0x97a(%rbp)
   12118:	f6 ff 
   1211a:	66 c7 85 88 f6 ff ff 	movw   $0xfff6,-0x978(%rbp)
   12121:	f6 ff 
   12123:	66 c7 85 8a f6 ff ff 	movw   $0xfff6,-0x976(%rbp)
   1212a:	f6 ff 
   1212c:	66 c7 85 8c f6 ff ff 	movw   $0x0,-0x974(%rbp)
   12133:	00 00 
   12135:	66 c7 85 8e f6 ff ff 	movw   $0x0,-0x972(%rbp)
   1213c:	00 00 
   1213e:	66 c7 85 90 f6 ff ff 	movw   $0x0,-0x970(%rbp)
   12145:	00 00 
   12147:	66 c7 85 92 f6 ff ff 	movw   $0x0,-0x96e(%rbp)
   1214e:	00 00 
   12150:	66 c7 85 94 f6 ff ff 	movw   $0x0,-0x96c(%rbp)
   12157:	00 00 
   12159:	66 c7 85 96 f6 ff ff 	movw   $0x0,-0x96a(%rbp)
   12160:	00 00 
   12162:	66 c7 85 98 f6 ff ff 	movw   $0x0,-0x968(%rbp)
   12169:	00 00 
   1216b:	66 c7 85 9a f6 ff ff 	movw   $0xfff6,-0x966(%rbp)
   12172:	f6 ff 
   12174:	66 c7 85 9c f6 ff ff 	movw   $0xfff6,-0x964(%rbp)
   1217b:	f6 ff 
   1217d:	66 c7 85 9e f6 ff ff 	movw   $0xfff6,-0x962(%rbp)
   12184:	f6 ff 
   12186:	66 c7 85 a0 f6 ff ff 	movw   $0xfff6,-0x960(%rbp)
   1218d:	f6 ff 
   1218f:	66 c7 85 a2 f6 ff ff 	movw   $0xfff6,-0x95e(%rbp)
   12196:	f6 ff 
   12198:	66 c7 85 a4 f6 ff ff 	movw   $0xfff6,-0x95c(%rbp)
   1219f:	f6 ff 
   121a1:	66 c7 85 a6 f6 ff ff 	movw   $0xfff6,-0x95a(%rbp)
   121a8:	f6 ff 
   121aa:	66 c7 85 a8 f6 ff ff 	movw   $0x0,-0x958(%rbp)
   121b1:	00 00 
   121b3:	66 c7 85 aa f6 ff ff 	movw   $0x0,-0x956(%rbp)
   121ba:	00 00 
   121bc:	66 c7 85 ac f6 ff ff 	movw   $0x0,-0x954(%rbp)
   121c3:	00 00 
   121c5:	66 c7 85 ae f6 ff ff 	movw   $0x0,-0x952(%rbp)
   121cc:	00 00 
   121ce:	66 c7 85 b0 f6 ff ff 	movw   $0x0,-0x950(%rbp)
   121d5:	00 00 
   121d7:	66 c7 85 b2 f6 ff ff 	movw   $0x0,-0x94e(%rbp)
   121de:	00 00 
   121e0:	66 c7 85 b4 f6 ff ff 	movw   $0x0,-0x94c(%rbp)
   121e7:	00 00 
   121e9:	66 c7 85 b6 f6 ff ff 	movw   $0xfff6,-0x94a(%rbp)
   121f0:	f6 ff 
   121f2:	66 c7 85 b8 f6 ff ff 	movw   $0xfff6,-0x948(%rbp)
   121f9:	f6 ff 
   121fb:	66 c7 85 ba f6 ff ff 	movw   $0xfff6,-0x946(%rbp)
   12202:	f6 ff 
   12204:	66 c7 85 bc f6 ff ff 	movw   $0xfff6,-0x944(%rbp)
   1220b:	f6 ff 
   1220d:	66 c7 85 be f6 ff ff 	movw   $0xfff6,-0x942(%rbp)
   12214:	f6 ff 
   12216:	66 c7 85 c0 f6 ff ff 	movw   $0xfff6,-0x940(%rbp)
   1221d:	f6 ff 
   1221f:	66 c7 85 c2 f6 ff ff 	movw   $0xfff6,-0x93e(%rbp)
   12226:	f6 ff 
   12228:	66 c7 85 c4 f6 ff ff 	movw   $0x0,-0x93c(%rbp)
   1222f:	00 00 
   12231:	66 c7 85 c6 f6 ff ff 	movw   $0x0,-0x93a(%rbp)
   12238:	00 00 
   1223a:	66 c7 85 c8 f6 ff ff 	movw   $0x0,-0x938(%rbp)
   12241:	00 00 
   12243:	66 c7 85 ca f6 ff ff 	movw   $0x0,-0x936(%rbp)
   1224a:	00 00 
   1224c:	66 c7 85 cc f6 ff ff 	movw   $0x0,-0x934(%rbp)
   12253:	00 00 
   12255:	66 c7 85 ce f6 ff ff 	movw   $0x0,-0x932(%rbp)
   1225c:	00 00 
   1225e:	66 c7 85 d0 f6 ff ff 	movw   $0x0,-0x930(%rbp)
   12265:	00 00 
   12267:	66 c7 85 d2 f6 ff ff 	movw   $0xfff6,-0x92e(%rbp)
   1226e:	f6 ff 
   12270:	66 c7 85 d4 f6 ff ff 	movw   $0xfff6,-0x92c(%rbp)
   12277:	f6 ff 
   12279:	66 c7 85 d6 f6 ff ff 	movw   $0xfff6,-0x92a(%rbp)
   12280:	f6 ff 
   12282:	66 c7 85 d8 f6 ff ff 	movw   $0xfff6,-0x928(%rbp)
   12289:	f6 ff 
   1228b:	66 c7 85 da f6 ff ff 	movw   $0xfff6,-0x926(%rbp)
   12292:	f6 ff 
   12294:	66 c7 85 dc f6 ff ff 	movw   $0xfff6,-0x924(%rbp)
   1229b:	f6 ff 
   1229d:	66 c7 85 de f6 ff ff 	movw   $0xfff6,-0x922(%rbp)
   122a4:	f6 ff 
   122a6:	48 8d 85 8c f4 ff ff 	lea    -0xb74(%rbp),%rax
   122ad:	48 89 85 90 f5 ff ff 	mov    %rax,-0xa70(%rbp)
   122b4:	48 c7 85 98 f5 ff ff 	movq   $0x1,-0xa68(%rbp)
   122bb:	01 00 00 00 
   122bf:	48 8d 05 ca 6d 00 00 	lea    0x6dca(%rip),%rax        # 19090 <g_129>
   122c6:	48 89 85 e8 f4 ff ff 	mov    %rax,-0xb18(%rbp)
   122cd:	48 8d 85 e8 f4 ff ff 	lea    -0xb18(%rbp),%rax
   122d4:	48 89 85 a0 f5 ff ff 	mov    %rax,-0xa60(%rbp)
   122db:	48 8d 05 b0 6d 00 00 	lea    0x6db0(%rip),%rax        # 19092 <g_139>
   122e2:	48 89 85 a8 f5 ff ff 	mov    %rax,-0xa58(%rbp)
   122e9:	48 c7 85 b0 f5 ff ff 	movq   $0x0,-0xa50(%rbp)
   122f0:	00 00 00 00 
   122f4:	66 c7 05 95 6d 00 00 	movw   $0xfff3,0x6d95(%rip)        # 19092 <g_139>
   122fb:	f3 ff 
   122fd:	eb 2a                	jmp    12329 <func_58+0x12c1>
   122ff:	66 c7 85 86 f4 ff ff 	movw   $0xa789,-0xb7a(%rbp)
   12306:	89 a7 
   12308:	0f b6 05 81 6d 00 00 	movzbl 0x6d81(%rip),%eax        # 19090 <g_129>
   1230f:	84 c0                	test   %al,%al
   12311:	74 05                	je     12318 <func_58+0x12b0>
   12313:	e9 59 f3 ff ff       	jmpq   11671 <func_58+0x609>
   12318:	0f b7 05 73 6d 00 00 	movzwl 0x6d73(%rip),%eax        # 19092 <g_139>
   1231f:	83 c0 01             	add    $0x1,%eax
   12322:	66 89 05 69 6d 00 00 	mov    %ax,0x6d69(%rip)        # 19092 <g_139>
   12329:	0f b7 05 62 6d 00 00 	movzwl 0x6d62(%rip),%eax        # 19092 <g_139>
   12330:	66 83 f8 18          	cmp    $0x18,%ax
   12334:	76 c9                	jbe    122ff <func_58+0x1297>
   12336:	8b 85 90 f4 ff ff    	mov    -0xb70(%rbp),%eax
   1233c:	0f be c0             	movsbl %al,%eax
   1233f:	be 02 00 00 00       	mov    $0x2,%esi
   12344:	89 c7                	mov    %eax,%edi
   12346:	e8 89 5e ff ff       	callq  81d4 <safe_add_func_int8_t_s_s>
   1234b:	0f be c0             	movsbl %al,%eax
   1234e:	89 85 90 f4 ff ff    	mov    %eax,-0xb70(%rbp)
   12354:	83 bd 90 f4 ff ff ed 	cmpl   $0xffffffed,-0xb70(%rbp)
   1235b:	0f 8c 4d fd ff ff    	jl     120ae <func_58+0x1046>
   12361:	66 c7 05 5e 76 00 00 	movw   $0x3,0x765e(%rip)        # 199c8 <g_262>
   12368:	03 00 
   1236a:	eb 1f                	jmp    1238b <func_58+0x1323>
   1236c:	83 bd 94 f4 ff ff 00 	cmpl   $0x0,-0xb6c(%rbp)
   12373:	74 05                	je     1237a <func_58+0x1312>
   12375:	e9 9e f4 ff ff       	jmpq   11818 <func_58+0x7b0>
   1237a:	0f b7 05 47 76 00 00 	movzwl 0x7647(%rip),%eax        # 199c8 <g_262>
   12381:	83 e8 01             	sub    $0x1,%eax
   12384:	66 89 05 3d 76 00 00 	mov    %ax,0x763d(%rip)        # 199c8 <g_262>
   1238b:	0f b7 05 36 76 00 00 	movzwl 0x7636(%rip),%eax        # 199c8 <g_262>
   12392:	66 85 c0             	test   %ax,%ax
   12395:	7f d5                	jg     1236c <func_58+0x1304>
   12397:	c6 85 7c f4 ff ff 01 	movb   $0x1,-0xb84(%rbp)
   1239e:	e9 cb 04 00 00       	jmpq   1286e <func_58+0x1806>
   123a3:	48 8d 05 ea 6c 00 00 	lea    0x6cea(%rip),%rax        # 19094 <g_167>
   123aa:	48 89 85 70 f6 ff ff 	mov    %rax,-0x990(%rbp)
   123b1:	48 8d 05 dc 6c 00 00 	lea    0x6cdc(%rip),%rax        # 19094 <g_167>
   123b8:	48 89 85 78 f6 ff ff 	mov    %rax,-0x988(%rbp)
   123bf:	48 8d 05 ce 6c 00 00 	lea    0x6cce(%rip),%rax        # 19094 <g_167>
   123c6:	48 89 85 80 f6 ff ff 	mov    %rax,-0x980(%rbp)
   123cd:	48 8d 05 c0 6c 00 00 	lea    0x6cc0(%rip),%rax        # 19094 <g_167>
   123d4:	48 89 85 88 f6 ff ff 	mov    %rax,-0x978(%rbp)
   123db:	48 8d 05 b2 6c 00 00 	lea    0x6cb2(%rip),%rax        # 19094 <g_167>
   123e2:	48 89 85 90 f6 ff ff 	mov    %rax,-0x970(%rbp)
   123e9:	48 8d 05 a4 6c 00 00 	lea    0x6ca4(%rip),%rax        # 19094 <g_167>
   123f0:	48 89 85 98 f6 ff ff 	mov    %rax,-0x968(%rbp)
   123f7:	48 8d 05 96 6c 00 00 	lea    0x6c96(%rip),%rax        # 19094 <g_167>
   123fe:	48 89 85 a0 f6 ff ff 	mov    %rax,-0x960(%rbp)
   12405:	48 8d 05 88 6c 00 00 	lea    0x6c88(%rip),%rax        # 19094 <g_167>
   1240c:	48 89 85 a8 f6 ff ff 	mov    %rax,-0x958(%rbp)
   12413:	c6 85 7d f4 ff ff b3 	movb   $0xb3,-0xb83(%rbp)
   1241a:	66 c7 85 84 f4 ff ff 	movw   $0x1,-0xb7c(%rbp)
   12421:	01 00 
   12423:	c7 85 90 f4 ff ff 04 	movl   $0x4,-0xb70(%rbp)
   1242a:	00 00 00 
   1242d:	83 bd 90 f4 ff ff 00 	cmpl   $0x0,-0xb70(%rbp)
   12434:	0f 88 d0 03 00 00    	js     1280a <func_58+0x17a2>
   1243a:	48 8d 85 7e f4 ff ff 	lea    -0xb82(%rbp),%rax
   12441:	48 89 85 68 f5 ff ff 	mov    %rax,-0xa98(%rbp)
   12448:	48 8d 05 43 6c 00 00 	lea    0x6c43(%rip),%rax        # 19092 <g_139>
   1244f:	48 89 85 70 f5 ff ff 	mov    %rax,-0xa90(%rbp)
   12456:	48 8d 05 23 76 00 00 	lea    0x7623(%rip),%rax        # 19a80 <g_632>
   1245d:	48 89 85 78 f5 ff ff 	mov    %rax,-0xa88(%rbp)
   12464:	c7 85 f0 f5 ff ff 18 	movl   $0xc5084718,-0xa10(%rbp)
   1246b:	47 08 c5 
   1246e:	c7 85 f4 f5 ff ff 18 	movl   $0xc5084718,-0xa0c(%rbp)
   12475:	47 08 c5 
   12478:	c7 85 f8 f5 ff ff fc 	movl   $0x315796fc,-0xa08(%rbp)
   1247f:	96 57 31 
   12482:	c7 85 fc f5 ff ff 18 	movl   $0xc5084718,-0xa04(%rbp)
   12489:	47 08 c5 
   1248c:	c7 85 00 f6 ff ff 18 	movl   $0xc5084718,-0xa00(%rbp)
   12493:	47 08 c5 
   12496:	c7 85 04 f6 ff ff fc 	movl   $0x315796fc,-0x9fc(%rbp)
   1249d:	96 57 31 
   124a0:	c7 85 08 f6 ff ff 18 	movl   $0xc5084718,-0x9f8(%rbp)
   124a7:	47 08 c5 
   124aa:	c7 85 0c f6 ff ff 18 	movl   $0xc5084718,-0x9f4(%rbp)
   124b1:	47 08 c5 
   124b4:	c7 85 10 f6 ff ff fc 	movl   $0x315796fc,-0x9f0(%rbp)
   124bb:	96 57 31 
   124be:	c7 85 14 f6 ff ff 18 	movl   $0xc5084718,-0x9ec(%rbp)
   124c5:	47 08 c5 
   124c8:	48 8d 05 b3 75 00 00 	lea    0x75b3(%rip),%rax        # 19a82 <g_635>
   124cf:	48 89 85 80 f5 ff ff 	mov    %rax,-0xa80(%rbp)
   124d6:	48 8d 85 88 f4 ff ff 	lea    -0xb78(%rbp),%rax
   124dd:	48 89 85 88 f5 ff ff 	mov    %rax,-0xa78(%rbp)
   124e4:	66 c7 85 7e f4 ff ff 	movw   $0x1,-0xb82(%rbp)
   124eb:	01 00 
   124ed:	eb 44                	jmp    12533 <func_58+0x14cb>
   124ef:	0f be 85 7c f4 ff ff 	movsbl -0xb84(%rbp),%eax
   124f6:	8d 50 01             	lea    0x1(%rax),%edx
   124f9:	8b 85 90 f4 ff ff    	mov    -0xb70(%rbp),%eax
   124ff:	83 c0 03             	add    $0x3,%eax
   12502:	48 98                	cltq   
   12504:	48 63 d2             	movslq %edx,%rdx
   12507:	48 c1 e2 03          	shl    $0x3,%rdx
   1250b:	48 01 d0             	add    %rdx,%rax
   1250e:	48 8d 14 00          	lea    (%rax,%rax,1),%rdx
   12512:	48 8d 05 47 6b 00 00 	lea    0x6b47(%rip),%rax        # 19060 <g_116>
   12519:	0f b7 04 02          	movzwl (%rdx,%rax,1),%eax
   1251d:	66 85 c0             	test   %ax,%ax
   12520:	75 20                	jne    12542 <func_58+0x14da>
   12522:	0f b7 85 7e f4 ff ff 	movzwl -0xb82(%rbp),%eax
   12529:	83 c0 01             	add    $0x1,%eax
   1252c:	66 89 85 7e f4 ff ff 	mov    %ax,-0xb82(%rbp)
   12533:	0f b7 85 7e f4 ff ff 	movzwl -0xb82(%rbp),%eax
   1253a:	66 83 f8 05          	cmp    $0x5,%ax
   1253e:	76 af                	jbe    124ef <func_58+0x1487>
   12540:	eb 01                	jmp    12543 <func_58+0x14db>
   12542:	90                   	nop
   12543:	0f be 85 7c f4 ff ff 	movsbl -0xb84(%rbp),%eax
   1254a:	8d 50 01             	lea    0x1(%rax),%edx
   1254d:	0f be 85 7c f4 ff ff 	movsbl -0xb84(%rbp),%eax
   12554:	83 c0 01             	add    $0x1,%eax
   12557:	48 98                	cltq   
   12559:	48 63 d2             	movslq %edx,%rdx
   1255c:	48 c1 e2 03          	shl    $0x3,%rdx
   12560:	48 01 d0             	add    %rdx,%rax
   12563:	48 8d 14 00          	lea    (%rax,%rax,1),%rdx
   12567:	48 8d 05 f2 6a 00 00 	lea    0x6af2(%rip),%rax        # 19060 <g_116>
   1256e:	0f b7 04 02          	movzwl (%rdx,%rax,1),%eax
   12572:	0f b7 d8             	movzwl %ax,%ebx
   12575:	0f be 85 7c f4 ff ff 	movsbl -0xb84(%rbp),%eax
   1257c:	48 98                	cltq   
   1257e:	48 8d 14 c5 00 00 00 	lea    0x0(,%rax,8),%rdx
   12585:	00 
   12586:	48 8d 05 43 74 00 00 	lea    0x7443(%rip),%rax        # 199d0 <g_294>
   1258d:	48 8b 14 02          	mov    (%rdx,%rax,1),%rdx
   12591:	0f be 85 7c f4 ff ff 	movsbl -0xb84(%rbp),%eax
   12598:	48 b9 d3 76 15 31 3a 	movabs $0x204fe73a311576d3,%rcx
   1259f:	e7 4f 20 
   125a2:	48 09 d1             	or     %rdx,%rcx
   125a5:	48 98                	cltq   
   125a7:	48 8d 14 c5 00 00 00 	lea    0x0(,%rax,8),%rdx
   125ae:	00 
   125af:	48 8d 05 1a 74 00 00 	lea    0x741a(%rip),%rax        # 199d0 <g_294>
   125b6:	48 89 0c 02          	mov    %rcx,(%rdx,%rax,1)
   125ba:	48 8b 85 88 f6 ff ff 	mov    -0x978(%rbp),%rax
   125c1:	48 85 c0             	test   %rax,%rax
   125c4:	0f 95 c0             	setne  %al
   125c7:	44 0f b6 f0          	movzbl %al,%r14d
   125cb:	48 8b 05 de 98 00 00 	mov    0x98de(%rip),%rax        # 1beb0 <g_202>
   125d2:	8b 00                	mov    (%rax),%eax
   125d4:	41 89 c7             	mov    %eax,%r15d
   125d7:	48 8b 85 68 f4 ff ff 	mov    -0xb98(%rbp),%rax
   125de:	48 c1 e8 13          	shr    $0x13,%rax
   125e2:	25 ff ff ff 00       	and    $0xffffff,%eax
   125e7:	44 0f be e0          	movsbl %al,%r12d
   125eb:	44 8b ad 8c f4 ff ff 	mov    -0xb74(%rbp),%r13d
   125f2:	0f b6 95 7d f4 ff ff 	movzbl -0xb83(%rbp),%edx
   125f9:	48 8b 05 d0 73 00 00 	mov    0x73d0(%rip),%rax        # 199d0 <g_294>
   12600:	48 39 c2             	cmp    %rax,%rdx
   12603:	0f 93 c0             	setae  %al
   12606:	0f b6 d0             	movzbl %al,%edx
   12609:	48 8b 85 70 f5 ff ff 	mov    -0xa90(%rbp),%rax
   12610:	66 89 10             	mov    %dx,(%rax)
   12613:	48 8b 85 70 f5 ff ff 	mov    -0xa90(%rbp),%rax
   1261a:	0f b7 10             	movzwl (%rax),%edx
   1261d:	48 8b 85 78 f5 ff ff 	mov    -0xa88(%rbp),%rax
   12624:	0f b7 00             	movzwl (%rax),%eax
   12627:	09 c2                	or     %eax,%edx
   12629:	48 8b 85 78 f5 ff ff 	mov    -0xa88(%rbp),%rax
   12630:	66 89 10             	mov    %dx,(%rax)
   12633:	48 8b 85 78 f5 ff ff 	mov    -0xa88(%rbp),%rax
   1263a:	0f b7 00             	movzwl (%rax),%eax
   1263d:	0f b7 c0             	movzwl %ax,%eax
   12640:	be fd ff 00 00       	mov    $0xfffd,%esi
   12645:	89 c7                	mov    %eax,%edi
   12647:	e8 f1 66 ff ff       	callq  8d3d <safe_mul_func_uint16_t_u_u>
   1264c:	0f b7 d0             	movzwl %ax,%edx
   1264f:	48 8b 85 68 f5 ff ff 	mov    -0xa98(%rbp),%rax
   12656:	0f b7 00             	movzwl (%rax),%eax
   12659:	8d 70 ff             	lea    -0x1(%rax),%esi
   1265c:	48 8b 8d 68 f5 ff ff 	mov    -0xa98(%rbp),%rcx
   12663:	66 89 31             	mov    %si,(%rcx)
   12666:	0f b7 c0             	movzwl %ax,%eax
   12669:	89 d6                	mov    %edx,%esi
   1266b:	89 c7                	mov    %eax,%edi
   1266d:	e8 8d 66 ff ff       	callq  8cff <safe_add_func_uint16_t_u_u>
   12672:	c7 85 0c f6 ff ff ff 	movl   $0xffffffff,-0x9f4(%rbp)
   12679:	ff ff ff 
   1267c:	8b 85 0c f6 ff ff    	mov    -0x9f4(%rbp),%eax
   12682:	0f be c0             	movsbl %al,%eax
   12685:	44 89 ee             	mov    %r13d,%esi
   12688:	89 c7                	mov    %eax,%edi
   1268a:	e8 12 5c ff ff       	callq  82a1 <safe_lshift_func_int8_t_s_s>
   1268f:	44 0f be e8          	movsbl %al,%r13d
   12693:	be 0e 00 00 00       	mov    $0xe,%esi
   12698:	bf 2e 37 00 00       	mov    $0x372e,%edi
   1269d:	e8 d8 67 ff ff       	callq  8e7a <safe_rshift_func_uint16_t_u_u>
   126a2:	0f b7 c0             	movzwl %ax,%eax
   126a5:	44 89 ee             	mov    %r13d,%esi
   126a8:	89 c7                	mov    %eax,%edi
   126aa:	e8 1d 60 ff ff       	callq  86cc <safe_mod_func_int32_t_s_s>
   126af:	c1 e8 1f             	shr    $0x1f,%eax
   126b2:	0f b6 c0             	movzbl %al,%eax
   126b5:	44 89 e6             	mov    %r12d,%esi
   126b8:	89 c7                	mov    %eax,%edi
   126ba:	e8 53 5b ff ff       	callq  8212 <safe_mul_func_int8_t_s_s>
   126bf:	48 8b 95 00 f5 ff ff 	mov    -0xb00(%rbp),%rdx
   126c6:	88 02                	mov    %al,(%rdx)
   126c8:	48 8b 85 00 f5 ff ff 	mov    -0xb00(%rbp),%rax
   126cf:	0f b6 00             	movzbl (%rax),%eax
   126d2:	0f be c0             	movsbl %al,%eax
   126d5:	be a2 ff ff ff       	mov    $0xffffffa2,%esi
   126da:	89 c7                	mov    %eax,%edi
   126dc:	e8 f3 5a ff ff       	callq  81d4 <safe_add_func_int8_t_s_s>
   126e1:	88 05 6a 73 00 00    	mov    %al,0x736a(%rip)        # 19a51 <g_523>
   126e7:	0f b6 15 63 73 00 00 	movzbl 0x7363(%rip),%edx        # 19a51 <g_523>
   126ee:	48 8b 85 80 f5 ff ff 	mov    -0xa80(%rbp),%rax
   126f5:	88 10                	mov    %dl,(%rax)
   126f7:	48 8b 85 80 f5 ff ff 	mov    -0xa80(%rbp),%rax
   126fe:	0f b6 00             	movzbl (%rax),%eax
   12701:	48 0f be c0          	movsbq %al,%rax
   12705:	34 e3                	xor    $0xe3,%al
   12707:	48 89 c2             	mov    %rax,%rdx
   1270a:	48 8b 05 57 73 00 00 	mov    0x7357(%rip),%rax        # 19a68 <g_530+0x8>
   12711:	c1 e0 05             	shl    $0x5,%eax
   12714:	c1 f8 05             	sar    $0x5,%eax
   12717:	48 98                	cltq   
   12719:	48 31 d0             	xor    %rdx,%rax
   1271c:	48 83 f8 f8          	cmp    $0xfffffffffffffff8,%rax
   12720:	0f 96 c0             	setbe  %al
   12723:	0f b6 c0             	movzbl %al,%eax
   12726:	44 89 fe             	mov    %r15d,%esi
   12729:	89 c7                	mov    %eax,%edi
   1272b:	e8 a0 67 ff ff       	callq  8ed0 <safe_sub_func_uint32_t_u_u>
   12730:	0f b7 95 84 f4 ff ff 	movzwl -0xb7c(%rbp),%edx
   12737:	39 d0                	cmp    %edx,%eax
   12739:	0f 96 c0             	setbe  %al
   1273c:	0f b6 c0             	movzbl %al,%eax
   1273f:	41 39 c6             	cmp    %eax,%r14d
   12742:	0f 9f c0             	setg   %al
   12745:	0f b6 c0             	movzbl %al,%eax
   12748:	be fe ff ff ff       	mov    $0xfffffffe,%esi
   1274d:	89 c7                	mov    %eax,%edi
   1274f:	e8 a9 67 ff ff       	callq  8efd <safe_mod_func_uint32_t_u_u>
   12754:	48 b9 ba 3f 10 cb 11 	movabs $0x19bf8e11cb103fba,%rcx
   1275b:	8e bf 19 
   1275e:	48 8b 05 63 97 00 00 	mov    0x9763(%rip),%rax        # 1bec8 <g_436>
   12765:	48 8b 00             	mov    (%rax),%rax
   12768:	48 8b 10             	mov    (%rax),%rdx
   1276b:	48 8b 05 56 97 00 00 	mov    0x9756(%rip),%rax        # 1bec8 <g_436>
   12772:	48 8b 00             	mov    (%rax),%rax
   12775:	48 31 ca             	xor    %rcx,%rdx
   12778:	48 89 10             	mov    %rdx,(%rax)
   1277b:	48 8b 00             	mov    (%rax),%rax
   1277e:	48 85 c0             	test   %rax,%rax
   12781:	74 07                	je     1278a <func_58+0x1722>
   12783:	b8 01 00 00 00       	mov    $0x1,%eax
   12788:	eb 05                	jmp    1278f <func_58+0x1727>
   1278a:	b8 00 00 00 00       	mov    $0x0,%eax
   1278f:	0f b6 d0             	movzbl %al,%edx
   12792:	0f be 85 7c f4 ff ff 	movsbl -0xb84(%rbp),%eax
   12799:	8d 48 01             	lea    0x1(%rax),%ecx
   1279c:	0f be 85 7c f4 ff ff 	movsbl -0xb84(%rbp),%eax
   127a3:	83 c0 03             	add    $0x3,%eax
   127a6:	48 98                	cltq   
   127a8:	48 63 c9             	movslq %ecx,%rcx
   127ab:	48 c1 e1 03          	shl    $0x3,%rcx
   127af:	48 01 c8             	add    %rcx,%rax
   127b2:	48 8d 0c 00          	lea    (%rax,%rax,1),%rcx
   127b6:	48 8d 05 a3 68 00 00 	lea    0x68a3(%rip),%rax        # 19060 <g_116>
   127bd:	0f b7 04 01          	movzwl (%rcx,%rax,1),%eax
   127c1:	0f b6 c0             	movzbl %al,%eax
   127c4:	89 d6                	mov    %edx,%esi
   127c6:	89 c7                	mov    %eax,%edi
   127c8:	e8 c6 63 ff ff       	callq  8b93 <safe_mul_func_uint8_t_u_u>
   127cd:	0f b6 c0             	movzbl %al,%eax
   127d0:	89 de                	mov    %ebx,%esi
   127d2:	89 c7                	mov    %eax,%edi
   127d4:	e8 64 65 ff ff       	callq  8d3d <safe_mul_func_uint16_t_u_u>
   127d9:	0f b7 8d 84 f4 ff ff 	movzwl -0xb7c(%rbp),%ecx
   127e0:	48 8b 85 88 f5 ff ff 	mov    -0xa78(%rbp),%rax
   127e7:	8b 10                	mov    (%rax),%edx
   127e9:	0f b7 c1             	movzwl %cx,%eax
   127ec:	31 c2                	xor    %eax,%edx
   127ee:	48 8b 85 88 f5 ff ff 	mov    -0xa78(%rbp),%rax
   127f5:	89 10                	mov    %edx,(%rax)
   127f7:	48 8b 85 08 f5 ff ff 	mov    -0xaf8(%rbp),%rax
   127fe:	48 8b 00             	mov    (%rax),%rax
   12801:	8b 00                	mov    (%rax),%eax
   12803:	48 98                	cltq   
   12805:	e9 d3 00 00 00       	jmpq   128dd <func_58+0x1875>
   1280a:	48 8b 05 a7 96 00 00 	mov    0x96a7(%rip),%rax        # 1beb8 <g_201>
   12811:	48 8b 10             	mov    (%rax),%rdx
   12814:	48 8b 85 08 f5 ff ff 	mov    -0xaf8(%rbp),%rax
   1281b:	48 89 10             	mov    %rdx,(%rax)
   1281e:	48 8b 85 08 f5 ff ff 	mov    -0xaf8(%rbp),%rax
   12825:	48 8b 95 40 f5 ff ff 	mov    -0xac0(%rbp),%rdx
   1282c:	48 89 10             	mov    %rdx,(%rax)
   1282f:	0f be 85 7c f4 ff ff 	movsbl -0xb84(%rbp),%eax
   12836:	8d 50 01             	lea    0x1(%rax),%edx
   12839:	0f be 85 7c f4 ff ff 	movsbl -0xb84(%rbp),%eax
   12840:	48 98                	cltq   
   12842:	48 63 d2             	movslq %edx,%rdx
   12845:	48 c1 e2 03          	shl    $0x3,%rdx
   12849:	48 01 d0             	add    %rdx,%rax
   1284c:	48 8d 14 00          	lea    (%rax,%rax,1),%rdx
   12850:	48 8d 05 09 68 00 00 	lea    0x6809(%rip),%rax        # 19060 <g_116>
   12857:	0f b7 04 02          	movzwl (%rdx,%rax,1),%eax
   1285b:	66 85 c0             	test   %ax,%ax
   1285e:	0f b6 85 7c f4 ff ff 	movzbl -0xb84(%rbp),%eax
   12865:	83 e8 01             	sub    $0x1,%eax
   12868:	88 85 7c f4 ff ff    	mov    %al,-0xb84(%rbp)
   1286e:	80 bd 7c f4 ff ff 00 	cmpb   $0x0,-0xb84(%rbp)
   12875:	0f 89 28 fb ff ff    	jns    123a3 <func_58+0x133b>
   1287b:	8b 85 94 f4 ff ff    	mov    -0xb6c(%rbp),%eax
   12881:	0f be c0             	movsbl %al,%eax
   12884:	be 08 00 00 00       	mov    $0x8,%esi
   12889:	89 c7                	mov    %eax,%edi
   1288b:	e8 44 59 ff ff       	callq  81d4 <safe_add_func_int8_t_s_s>
   12890:	0f be c0             	movsbl %al,%eax
   12893:	89 85 94 f4 ff ff    	mov    %eax,-0xb6c(%rbp)
   12899:	83 bd 94 f4 ff ff 00 	cmpl   $0x0,-0xb6c(%rbp)
   128a0:	0f 85 80 f5 ff ff    	jne    11e26 <func_58+0xdbe>
   128a6:	0f b7 85 80 f4 ff ff 	movzwl -0xb80(%rbp),%eax
   128ad:	98                   	cwtl   
   128ae:	be 01 00 00 00       	mov    $0x1,%esi
   128b3:	89 c7                	mov    %eax,%edi
   128b5:	e8 f9 5a ff ff       	callq  83b3 <safe_add_func_int16_t_s_s>
   128ba:	66 89 85 80 f4 ff ff 	mov    %ax,-0xb80(%rbp)
   128c1:	66 83 bd 80 f4 ff ff 	cmpw   $0x18,-0xb80(%rbp)
   128c8:	18 
   128c9:	0f 86 ec f2 ff ff    	jbe    11bbb <func_58+0xb53>
   128cf:	8b 85 68 f4 ff ff    	mov    -0xb98(%rbp),%eax
   128d5:	c1 e0 0d             	shl    $0xd,%eax
   128d8:	c1 f8 0d             	sar    $0xd,%eax
   128db:	48 98                	cltq   
   128dd:	48 8b 5d c8          	mov    -0x38(%rbp),%rbx
   128e1:	64 48 33 1c 25 28 00 	xor    %fs:0x28,%rbx
   128e8:	00 00 
   128ea:	74 05                	je     128f1 <func_58+0x1889>
   128ec:	e8 7f 57 ff ff       	callq  8070 <__stack_chk_fail@plt>
   128f1:	48 81 c4 88 0b 00 00 	add    $0xb88,%rsp
   128f8:	5b                   	pop    %rbx
   128f9:	41 5c                	pop    %r12
   128fb:	41 5d                	pop    %r13
   128fd:	41 5e                	pop    %r14
   128ff:	41 5f                	pop    %r15
   12901:	5d                   	pop    %rbp
   12902:	c3                   	retq   

0000000000012903 <func_63>:
   12903:	f3 0f 1e fa          	endbr64 
   12907:	55                   	push   %rbp
   12908:	48 89 e5             	mov    %rsp,%rbp
   1290b:	41 54                	push   %r12
   1290d:	53                   	push   %rbx
   1290e:	48 81 ec e0 00 00 00 	sub    $0xe0,%rsp
   12915:	89 bd 2c ff ff ff    	mov    %edi,-0xd4(%rbp)
   1291b:	48 89 b5 20 ff ff ff 	mov    %rsi,-0xe0(%rbp)
   12922:	89 95 28 ff ff ff    	mov    %edx,-0xd8(%rbp)
   12928:	48 89 8d 18 ff ff ff 	mov    %rcx,-0xe8(%rbp)
   1292f:	64 48 8b 04 25 28 00 	mov    %fs:0x28,%rax
   12936:	00 00 
   12938:	48 89 45 e8          	mov    %rax,-0x18(%rbp)
   1293c:	31 c0                	xor    %eax,%eax
   1293e:	48 c7 85 40 ff ff ff 	movq   $0x0,-0xc0(%rbp)
   12945:	00 00 00 00 
   12949:	48 8d 05 18 a9 00 00 	lea    0xa918(%rip),%rax        # 1d268 <g_11>
   12950:	48 89 85 48 ff ff ff 	mov    %rax,-0xb8(%rbp)
   12957:	48 8d 45 80          	lea    -0x80(%rbp),%rax
   1295b:	48 83 c0 18          	add    $0x18,%rax
   1295f:	48 89 45 b0          	mov    %rax,-0x50(%rbp)
   12963:	48 8d 45 80          	lea    -0x80(%rbp),%rax
   12967:	48 83 c0 18          	add    $0x18,%rax
   1296b:	48 89 45 b8          	mov    %rax,-0x48(%rbp)
   1296f:	48 8d 45 80          	lea    -0x80(%rbp),%rax
   12973:	48 83 c0 18          	add    $0x18,%rax
   12977:	48 89 45 c0          	mov    %rax,-0x40(%rbp)
   1297b:	48 8d 45 80          	lea    -0x80(%rbp),%rax
   1297f:	48 83 c0 18          	add    $0x18,%rax
   12983:	48 89 45 c8          	mov    %rax,-0x38(%rbp)
   12987:	48 8d 45 80          	lea    -0x80(%rbp),%rax
   1298b:	48 83 c0 18          	add    $0x18,%rax
   1298f:	48 89 45 d0          	mov    %rax,-0x30(%rbp)
   12993:	48 8d 45 80          	lea    -0x80(%rbp),%rax
   12997:	48 83 c0 18          	add    $0x18,%rax
   1299b:	48 89 45 d8          	mov    %rax,-0x28(%rbp)
   1299f:	48 8d 45 b0          	lea    -0x50(%rbp),%rax
   129a3:	48 83 c0 08          	add    $0x8,%rax
   129a7:	48 89 85 50 ff ff ff 	mov    %rax,-0xb0(%rbp)
   129ae:	48 8d 05 df 66 00 00 	lea    0x66df(%rip),%rax        # 19094 <g_167>
   129b5:	48 89 85 58 ff ff ff 	mov    %rax,-0xa8(%rbp)
   129bc:	48 8d 05 d5 66 00 00 	lea    0x66d5(%rip),%rax        # 19098 <g_169>
   129c3:	48 89 85 60 ff ff ff 	mov    %rax,-0xa0(%rbp)
   129ca:	c7 85 38 ff ff ff fe 	movl   $0xfffffffe,-0xc8(%rbp)
   129d1:	ff ff ff 
   129d4:	48 8d 85 38 ff ff ff 	lea    -0xc8(%rbp),%rax
   129db:	48 89 85 68 ff ff ff 	mov    %rax,-0x98(%rbp)
   129e2:	c7 85 3c ff ff ff 00 	movl   $0x0,-0xc4(%rbp)
   129e9:	00 00 00 
   129ec:	eb 1a                	jmp    12a08 <func_63+0x105>
   129ee:	8b 85 3c ff ff ff    	mov    -0xc4(%rbp),%eax
   129f4:	48 98                	cltq   
   129f6:	c7 84 85 70 ff ff ff 	movl   $0x1,-0x90(%rbp,%rax,4)
   129fd:	01 00 00 00 
   12a01:	83 85 3c ff ff ff 01 	addl   $0x1,-0xc4(%rbp)
   12a08:	83 bd 3c ff ff ff 03 	cmpl   $0x3,-0xc4(%rbp)
   12a0f:	7e dd                	jle    129ee <func_63+0xeb>
   12a11:	c7 85 3c ff ff ff 00 	movl   $0x0,-0xc4(%rbp)
   12a18:	00 00 00 
   12a1b:	eb 1b                	jmp    12a38 <func_63+0x135>
   12a1d:	8b 85 3c ff ff ff    	mov    -0xc4(%rbp),%eax
   12a23:	48 98                	cltq   
   12a25:	48 8d 15 04 66 00 00 	lea    0x6604(%rip),%rdx        # 19030 <g_15>
   12a2c:	48 89 54 c5 80       	mov    %rdx,-0x80(%rbp,%rax,8)
   12a31:	83 85 3c ff ff ff 01 	addl   $0x1,-0xc4(%rbp)
   12a38:	83 bd 3c ff ff ff 05 	cmpl   $0x5,-0xc4(%rbp)
   12a3f:	7e dc                	jle    12a1d <func_63+0x11a>
   12a41:	8b 85 2c ff ff ff    	mov    -0xd4(%rbp),%eax
   12a47:	0f be c0             	movsbl %al,%eax
   12a4a:	89 c7                	mov    %eax,%edi
   12a4c:	e8 6e 57 ff ff       	callq  81bf <safe_unary_minus_func_int8_t_s>
   12a51:	48 83 bd 40 ff ff ff 	cmpq   $0x0,-0xc0(%rbp)
   12a58:	00 
   12a59:	48 8b 85 48 ff ff ff 	mov    -0xb8(%rbp),%rax
   12a60:	48 8b 00             	mov    (%rax),%rax
   12a63:	8b 00                	mov    (%rax),%eax
   12a65:	41 89 c4             	mov    %eax,%r12d
   12a68:	48 8b 85 48 ff ff ff 	mov    -0xb8(%rbp),%rax
   12a6f:	48 8b 00             	mov    (%rax),%rax
   12a72:	8b 00                	mov    (%rax),%eax
   12a74:	48 63 d8             	movslq %eax,%rbx
   12a77:	0f b7 05 f8 65 00 00 	movzwl 0x65f8(%rip),%eax        # 19076 <g_116+0x16>
   12a7e:	83 e8 01             	sub    $0x1,%eax
   12a81:	66 89 05 ee 65 00 00 	mov    %ax,0x65ee(%rip)        # 19076 <g_116+0x16>
   12a88:	0f b7 05 e7 65 00 00 	movzwl 0x65e7(%rip),%eax        # 19076 <g_116+0x16>
   12a8f:	66 85 c0             	test   %ax,%ax
   12a92:	75 1d                	jne    12ab1 <func_63+0x1ae>
   12a94:	48 83 bd 48 ff ff ff 	cmpq   $0x0,-0xb8(%rbp)
   12a9b:	00 
   12a9c:	0f 95 c0             	setne  %al
   12a9f:	0f b6 c0             	movzbl %al,%eax
   12aa2:	be 05 00 00 00       	mov    $0x5,%esi
   12aa7:	89 c7                	mov    %eax,%edi
   12aa9:	e8 10 63 ff ff       	callq  8dbe <safe_lshift_func_uint16_t_u_s>
   12aae:	66 85 c0             	test   %ax,%ax
   12ab1:	48 83 bd 50 ff ff ff 	cmpq   $0x0,-0xb0(%rbp)
   12ab8:	00 
   12ab9:	0f 95 c0             	setne  %al
   12abc:	0f b6 c0             	movzbl %al,%eax
   12abf:	48 89 de             	mov    %rbx,%rsi
   12ac2:	48 89 c7             	mov    %rax,%rdi
   12ac5:	e8 81 65 ff ff       	callq  904b <safe_sub_func_uint64_t_u_u>
   12aca:	83 e0 01             	and    $0x1,%eax
   12acd:	48 89 c2             	mov    %rax,%rdx
   12ad0:	8b 85 74 ff ff ff    	mov    -0x8c(%rbp),%eax
   12ad6:	3d a0 00 00 00       	cmp    $0xa0,%eax
   12adb:	0f 9f c0             	setg   %al
   12ade:	0f b6 c0             	movzbl %al,%eax
   12ae1:	48 89 d6             	mov    %rdx,%rsi
   12ae4:	48 89 c7             	mov    %rax,%rdi
   12ae7:	e8 94 65 ff ff       	callq  9080 <safe_mod_func_uint64_t_u_u>
   12aec:	48 89 c7             	mov    %rax,%rdi
   12aef:	e8 22 5d ff ff       	callq  8816 <safe_unary_minus_func_int64_t_s>
   12af4:	89 c2                	mov    %eax,%edx
   12af6:	48 8b 85 58 ff ff ff 	mov    -0xa8(%rbp),%rax
   12afd:	89 10                	mov    %edx,(%rax)
   12aff:	48 8b 85 58 ff ff ff 	mov    -0xa8(%rbp),%rax
   12b06:	8b 00                	mov    (%rax),%eax
   12b08:	0f b7 c0             	movzwl %ax,%eax
   12b0b:	25 e9 08 00 00       	and    $0x8e9,%eax
   12b10:	44 89 e6             	mov    %r12d,%esi
   12b13:	89 c7                	mov    %eax,%edi
   12b15:	e8 ec 62 ff ff       	callq  8e06 <safe_lshift_func_uint16_t_u_u>
   12b1a:	0f b7 d0             	movzwl %ax,%edx
   12b1d:	48 8b 85 20 ff ff ff 	mov    -0xe0(%rbp),%rax
   12b24:	8b 00                	mov    (%rax),%eax
   12b26:	89 d6                	mov    %edx,%esi
   12b28:	89 c7                	mov    %eax,%edi
   12b2a:	e8 9d 5b ff ff       	callq  86cc <safe_mod_func_int32_t_s_s>
   12b2f:	8b 05 03 65 00 00    	mov    0x6503(%rip),%eax        # 19038 <g_18>
   12b35:	83 f0 08             	xor    $0x8,%eax
   12b38:	89 c2                	mov    %eax,%edx
   12b3a:	48 8b 85 60 ff ff ff 	mov    -0xa0(%rbp),%rax
   12b41:	66 89 10             	mov    %dx,(%rax)
   12b44:	48 8b 85 60 ff ff ff 	mov    -0xa0(%rbp),%rax
   12b4b:	0f b7 00             	movzwl (%rax),%eax
   12b4e:	98                   	cwtl   
   12b4f:	89 c6                	mov    %eax,%esi
   12b51:	bf 07 00 00 00       	mov    $0x7,%edi
   12b56:	e8 63 62 ff ff       	callq  8dbe <safe_lshift_func_uint16_t_u_s>
   12b5b:	66 85 c0             	test   %ax,%ax
   12b5e:	be 91 b2 ff ff       	mov    $0xffffb291,%esi
   12b63:	bf 00 00 00 00       	mov    $0x0,%edi
   12b68:	e8 a9 58 ff ff       	callq  8416 <safe_mod_func_int16_t_s_s>
   12b6d:	0f bf d0             	movswl %ax,%edx
   12b70:	8b 85 38 ff ff ff    	mov    -0xc8(%rbp),%eax
   12b76:	09 d0                	or     %edx,%eax
   12b78:	89 85 38 ff ff ff    	mov    %eax,-0xc8(%rbp)
   12b7e:	48 8b 85 50 ff ff ff 	mov    -0xb0(%rbp),%rax
   12b85:	48 8b 10             	mov    (%rax),%rdx
   12b88:	48 8b 85 50 ff ff ff 	mov    -0xb0(%rbp),%rax
   12b8f:	48 8b 00             	mov    (%rax),%rax
   12b92:	48 8b 12             	mov    (%rdx),%rdx
   12b95:	48 89 10             	mov    %rdx,(%rax)
   12b98:	48 8b 85 68 ff ff ff 	mov    -0x98(%rbp),%rax
   12b9f:	c7 00 01 00 00 00    	movl   $0x1,(%rax)
   12ba5:	48 8b 05 e4 a6 00 00 	mov    0xa6e4(%rip),%rax        # 1d290 <g_172>
   12bac:	48 8b 4d e8          	mov    -0x18(%rbp),%rcx
   12bb0:	64 48 33 0c 25 28 00 	xor    %fs:0x28,%rcx
   12bb7:	00 00 
   12bb9:	74 05                	je     12bc0 <func_63+0x2bd>
   12bbb:	e8 b0 54 ff ff       	callq  8070 <__stack_chk_fail@plt>
   12bc0:	48 81 c4 e0 00 00 00 	add    $0xe0,%rsp
   12bc7:	5b                   	pop    %rbx
   12bc8:	41 5c                	pop    %r12
   12bca:	5d                   	pop    %rbp
   12bcb:	c3                   	retq   

0000000000012bcc <func_68>:
   12bcc:	f3 0f 1e fa          	endbr64 
   12bd0:	55                   	push   %rbp
   12bd1:	48 89 e5             	mov    %rsp,%rbp
   12bd4:	53                   	push   %rbx
   12bd5:	48 81 ec 48 03 00 00 	sub    $0x348,%rsp
   12bdc:	89 bd cc fc ff ff    	mov    %edi,-0x334(%rbp)
   12be2:	48 89 b5 c0 fc ff ff 	mov    %rsi,-0x340(%rbp)
   12be9:	48 89 95 b8 fc ff ff 	mov    %rdx,-0x348(%rbp)
   12bf0:	64 48 8b 04 25 28 00 	mov    %fs:0x28,%rax
   12bf7:	00 00 
   12bf9:	48 89 45 e8          	mov    %rax,-0x18(%rbp)
   12bfd:	31 c0                	xor    %eax,%eax
   12bff:	48 c7 85 f0 fc ff ff 	movq   $0x2,-0x310(%rbp)
   12c06:	02 00 00 00 
   12c0a:	48 c7 85 e0 fc ff ff 	movq   $0x0,-0x320(%rbp)
   12c11:	00 00 00 00 
   12c15:	c7 85 5c fd ff ff 00 	movl   $0x0,-0x2a4(%rbp)
   12c1c:	00 00 00 
   12c1f:	c7 85 d4 fc ff ff 23 	movl   $0x9f7adb23,-0x32c(%rbp)
   12c26:	db 7a 9f 
   12c29:	48 c7 85 f8 fc ff ff 	movq   $0x0,-0x308(%rbp)
   12c30:	00 00 00 00 
   12c34:	48 8d 85 d4 fc ff ff 	lea    -0x32c(%rbp),%rax
   12c3b:	48 89 85 00 fd ff ff 	mov    %rax,-0x300(%rbp)
   12c42:	48 8d 85 d4 fc ff ff 	lea    -0x32c(%rbp),%rax
   12c49:	48 89 85 08 fd ff ff 	mov    %rax,-0x2f8(%rbp)
   12c50:	48 8d 85 d4 fc ff ff 	lea    -0x32c(%rbp),%rax
   12c57:	48 89 85 10 fd ff ff 	mov    %rax,-0x2f0(%rbp)
   12c5e:	48 c7 85 18 fd ff ff 	movq   $0x0,-0x2e8(%rbp)
   12c65:	00 00 00 00 
   12c69:	48 8d 05 e0 63 00 00 	lea    0x63e0(%rip),%rax        # 19050 <g_38+0x10>
   12c70:	48 89 85 80 fd ff ff 	mov    %rax,-0x280(%rbp)
   12c77:	48 8d 05 d2 63 00 00 	lea    0x63d2(%rip),%rax        # 19050 <g_38+0x10>
   12c7e:	48 89 85 88 fd ff ff 	mov    %rax,-0x278(%rbp)
   12c85:	48 8d 05 c4 63 00 00 	lea    0x63c4(%rip),%rax        # 19050 <g_38+0x10>
   12c8c:	48 89 85 90 fd ff ff 	mov    %rax,-0x270(%rbp)
   12c93:	48 8d 05 b6 63 00 00 	lea    0x63b6(%rip),%rax        # 19050 <g_38+0x10>
   12c9a:	48 89 85 98 fd ff ff 	mov    %rax,-0x268(%rbp)
   12ca1:	48 8d 05 a8 63 00 00 	lea    0x63a8(%rip),%rax        # 19050 <g_38+0x10>
   12ca8:	48 89 85 a0 fd ff ff 	mov    %rax,-0x260(%rbp)
   12caf:	48 8d 05 9a 63 00 00 	lea    0x639a(%rip),%rax        # 19050 <g_38+0x10>
   12cb6:	48 89 85 a8 fd ff ff 	mov    %rax,-0x258(%rbp)
   12cbd:	48 8d 05 8c 63 00 00 	lea    0x638c(%rip),%rax        # 19050 <g_38+0x10>
   12cc4:	48 89 85 b0 fd ff ff 	mov    %rax,-0x250(%rbp)
   12ccb:	48 8d 85 60 fe ff ff 	lea    -0x1a0(%rbp),%rax
   12cd2:	48 8d 15 67 30 00 00 	lea    0x3067(%rip),%rdx        # 15d40 <g_860+0xcc0>
   12cd9:	b9 30 00 00 00       	mov    $0x30,%ecx
   12cde:	48 89 c7             	mov    %rax,%rdi
   12ce1:	48 89 d6             	mov    %rdx,%rsi
   12ce4:	f3 48 a5             	rep movsq %ds:(%rsi),%es:(%rdi)
   12ce7:	8b 85 5c fd ff ff    	mov    -0x2a4(%rbp),%eax
   12ced:	89 c3                	mov    %eax,%ebx
   12cef:	8b 85 5c fd ff ff    	mov    -0x2a4(%rbp),%eax
   12cf5:	48 98                	cltq   
   12cf7:	48 39 85 f0 fc ff ff 	cmp    %rax,-0x310(%rbp)
   12cfe:	0f 9e c0             	setle  %al
   12d01:	0f b6 d0             	movzbl %al,%edx
   12d04:	48 8b 05 5d a5 00 00 	mov    0xa55d(%rip),%rax        # 1d268 <g_11>
   12d0b:	8b 00                	mov    (%rax),%eax
   12d0d:	09 d0                	or     %edx,%eax
   12d0f:	48 63 d0             	movslq %eax,%rdx
   12d12:	48 8b 85 f0 fc ff ff 	mov    -0x310(%rbp),%rax
   12d19:	48 89 d6             	mov    %rdx,%rsi
   12d1c:	48 89 c7             	mov    %rax,%rdi
   12d1f:	e8 d3 5c ff ff       	callq  89f7 <safe_div_func_int64_t_s_s>
   12d24:	8b 15 26 63 00 00    	mov    0x6326(%rip),%edx        # 19050 <g_38+0x10>
   12d2a:	8b 85 b8 fc ff ff    	mov    -0x348(%rbp),%eax
   12d30:	c1 e0 0d             	shl    $0xd,%eax
   12d33:	c1 f8 0d             	sar    $0xd,%eax
   12d36:	39 c2                	cmp    %eax,%edx
   12d38:	7d 07                	jge    12d41 <func_68+0x175>
   12d3a:	b8 ff 00 00 00       	mov    $0xff,%eax
   12d3f:	eb 05                	jmp    12d46 <func_68+0x17a>
   12d41:	b8 fe 00 00 00       	mov    $0xfe,%eax
   12d46:	89 de                	mov    %ebx,%esi
   12d48:	89 c7                	mov    %eax,%edi
   12d4a:	e8 69 61 ff ff       	callq  8eb8 <safe_add_func_uint32_t_u_u>
   12d4f:	98                   	cwtl   
   12d50:	be 01 00 00 00       	mov    $0x1,%esi
   12d55:	89 c7                	mov    %eax,%edi
   12d57:	e8 77 56 ff ff       	callq  83d3 <safe_sub_func_int16_t_s_s>
   12d5c:	8b 05 ea 62 00 00    	mov    0x62ea(%rip),%eax        # 1904c <g_38+0xc>
   12d62:	0f b6 c0             	movzbl %al,%eax
   12d65:	be 02 00 00 00       	mov    $0x2,%esi
   12d6a:	89 c7                	mov    %eax,%edi
   12d6c:	e8 4d 5f ff ff       	callq  8cbe <safe_rshift_func_uint8_t_u_u>
   12d71:	0f b6 c0             	movzbl %al,%eax
   12d74:	be 01 00 00 00       	mov    $0x1,%esi
   12d79:	89 c7                	mov    %eax,%edi
   12d7b:	e8 f8 5d ff ff       	callq  8b78 <safe_sub_func_uint8_t_u_u>
   12d80:	8b 05 b2 62 00 00    	mov    0x62b2(%rip),%eax        # 19038 <g_18>
   12d86:	83 f8 01             	cmp    $0x1,%eax
   12d89:	0f 95 c0             	setne  %al
   12d8c:	0f b6 d0             	movzbl %al,%edx
   12d8f:	48 8b 05 92 62 00 00 	mov    0x6292(%rip),%rax        # 19028 <g_7>
   12d96:	48 85 c0             	test   %rax,%rax
   12d99:	75 3e                	jne    12dd9 <func_68+0x20d>
   12d9b:	0f b6 05 90 62 00 00 	movzbl 0x6290(%rip),%eax        # 19032 <g_15+0x2>
   12da2:	c0 e8 03             	shr    $0x3,%al
   12da5:	0f b6 c0             	movzbl %al,%eax
   12da8:	0f b6 0d 84 62 00 00 	movzbl 0x6284(%rip),%ecx        # 19033 <g_15+0x3>
   12daf:	48 c1 e1 05          	shl    $0x5,%rcx
   12db3:	48 09 c1             	or     %rax,%rcx
   12db6:	0f b6 05 77 62 00 00 	movzbl 0x6277(%rip),%eax        # 19034 <g_15+0x4>
   12dbd:	48 c1 e0 0d          	shl    $0xd,%rax
   12dc1:	48 09 c1             	or     %rax,%rcx
   12dc4:	0f b6 05 6a 62 00 00 	movzbl 0x626a(%rip),%eax        # 19035 <g_15+0x5>
   12dcb:	83 e0 07             	and    $0x7,%eax
   12dce:	48 c1 e0 15          	shl    $0x15,%rax
   12dd2:	48 09 c8             	or     %rcx,%rax
   12dd5:	85 c0                	test   %eax,%eax
   12dd7:	74 07                	je     12de0 <func_68+0x214>
   12dd9:	b8 01 00 00 00       	mov    $0x1,%eax
   12dde:	eb 05                	jmp    12de5 <func_68+0x219>
   12de0:	b8 00 00 00 00       	mov    $0x0,%eax
   12de5:	83 e0 90             	and    $0xffffff90,%eax
   12de8:	0f be c0             	movsbl %al,%eax
   12deb:	89 d6                	mov    %edx,%esi
   12ded:	89 c7                	mov    %eax,%edi
   12def:	e8 1e 54 ff ff       	callq  8212 <safe_mul_func_int8_t_s_s>
   12df4:	3c ff                	cmp    $0xff,%al
   12df6:	0f 95 c0             	setne  %al
   12df9:	0f b6 d0             	movzbl %al,%edx
   12dfc:	8b 85 5c fd ff ff    	mov    -0x2a4(%rbp),%eax
   12e02:	39 c2                	cmp    %eax,%edx
   12e04:	0f 9f c0             	setg   %al
   12e07:	0f b6 c0             	movzbl %al,%eax
   12e0a:	be 00 00 00 00       	mov    $0x0,%esi
   12e0f:	89 c7                	mov    %eax,%edi
   12e11:	e8 dc 53 ff ff       	callq  81f2 <safe_sub_func_int8_t_s_s>
   12e16:	66 98                	cbtw   
   12e18:	0f b7 c0             	movzwl %ax,%eax
   12e1b:	be 0d 00 00 00       	mov    $0xd,%esi
   12e20:	89 c7                	mov    %eax,%edi
   12e22:	e8 21 60 ff ff       	callq  8e48 <safe_rshift_func_uint16_t_u_s>
   12e27:	0f b7 d0             	movzwl %ax,%edx
   12e2a:	8b 85 5c fd ff ff    	mov    -0x2a4(%rbp),%eax
   12e30:	39 c2                	cmp    %eax,%edx
   12e32:	0f 95 c0             	setne  %al
   12e35:	0f b6 c0             	movzbl %al,%eax
   12e38:	89 85 d4 fc ff ff    	mov    %eax,-0x32c(%rbp)
   12e3e:	c7 85 d4 fc ff ff 00 	movl   $0x0,-0x32c(%rbp)
   12e45:	00 00 00 
   12e48:	e9 d7 01 00 00       	jmpq   13024 <func_68+0x458>
   12e4d:	48 8d 05 14 a4 00 00 	lea    0xa414(%rip),%rax        # 1d268 <g_11>
   12e54:	48 89 85 20 fd ff ff 	mov    %rax,-0x2e0(%rbp)
   12e5b:	48 8d 05 0a 22 00 00 	lea    0x220a(%rip),%rax        # 1506c <g_17+0xc>
   12e62:	48 89 85 28 fd ff ff 	mov    %rax,-0x2d8(%rbp)
   12e69:	48 8d 05 c0 61 00 00 	lea    0x61c0(%rip),%rax        # 19030 <g_15>
   12e70:	48 89 85 30 fd ff ff 	mov    %rax,-0x2d0(%rbp)
   12e77:	48 8d 85 e0 fc ff ff 	lea    -0x320(%rbp),%rax
   12e7e:	48 89 85 38 fd ff ff 	mov    %rax,-0x2c8(%rbp)
   12e85:	c7 85 dc fc ff ff c8 	movl   $0xd74acfc8,-0x324(%rbp)
   12e8c:	cf 4a d7 
   12e8f:	48 c7 85 40 fd ff ff 	movq   $0x0,-0x2c0(%rbp)
   12e96:	00 00 00 00 
   12e9a:	48 8d 05 cb 21 00 00 	lea    0x21cb(%rip),%rax        # 1506c <g_17+0xc>
   12ea1:	48 89 85 e8 fc ff ff 	mov    %rax,-0x318(%rbp)
   12ea8:	48 8d 85 e8 fc ff ff 	lea    -0x318(%rbp),%rax
   12eaf:	48 89 85 c0 fd ff ff 	mov    %rax,-0x240(%rbp)
   12eb6:	48 8d 85 e8 fc ff ff 	lea    -0x318(%rbp),%rax
   12ebd:	48 89 85 c8 fd ff ff 	mov    %rax,-0x238(%rbp)
   12ec4:	48 8d 85 e8 fc ff ff 	lea    -0x318(%rbp),%rax
   12ecb:	48 89 85 d0 fd ff ff 	mov    %rax,-0x230(%rbp)
   12ed2:	48 8d 85 e8 fc ff ff 	lea    -0x318(%rbp),%rax
   12ed9:	48 89 85 d8 fd ff ff 	mov    %rax,-0x228(%rbp)
   12ee0:	48 8d 85 e8 fc ff ff 	lea    -0x318(%rbp),%rax
   12ee7:	48 89 85 e0 fd ff ff 	mov    %rax,-0x220(%rbp)
   12eee:	48 8d 85 e8 fc ff ff 	lea    -0x318(%rbp),%rax
   12ef5:	48 89 85 e8 fd ff ff 	mov    %rax,-0x218(%rbp)
   12efc:	48 8d 85 e8 fc ff ff 	lea    -0x318(%rbp),%rax
   12f03:	48 89 85 f0 fd ff ff 	mov    %rax,-0x210(%rbp)
   12f0a:	48 8d 85 e8 fc ff ff 	lea    -0x318(%rbp),%rax
   12f11:	48 89 85 f8 fd ff ff 	mov    %rax,-0x208(%rbp)
   12f18:	48 8d 85 e8 fc ff ff 	lea    -0x318(%rbp),%rax
   12f1f:	48 89 85 00 fe ff ff 	mov    %rax,-0x200(%rbp)
   12f26:	48 8d 05 3d 61 00 00 	lea    0x613d(%rip),%rax        # 1906a <g_116+0xa>
   12f2d:	48 89 85 10 fe ff ff 	mov    %rax,-0x1f0(%rbp)
   12f34:	48 8d 05 25 61 00 00 	lea    0x6125(%rip),%rax        # 19060 <g_116>
   12f3b:	48 89 85 18 fe ff ff 	mov    %rax,-0x1e8(%rbp)
   12f42:	48 8d 05 21 61 00 00 	lea    0x6121(%rip),%rax        # 1906a <g_116+0xa>
   12f49:	48 89 85 20 fe ff ff 	mov    %rax,-0x1e0(%rbp)
   12f50:	48 8d 05 09 61 00 00 	lea    0x6109(%rip),%rax        # 19060 <g_116>
   12f57:	48 89 85 28 fe ff ff 	mov    %rax,-0x1d8(%rbp)
   12f5e:	48 8d 05 05 61 00 00 	lea    0x6105(%rip),%rax        # 1906a <g_116+0xa>
   12f65:	48 89 85 30 fe ff ff 	mov    %rax,-0x1d0(%rbp)
   12f6c:	48 8d 05 ed 60 00 00 	lea    0x60ed(%rip),%rax        # 19060 <g_116>
   12f73:	48 89 85 38 fe ff ff 	mov    %rax,-0x1c8(%rbp)
   12f7a:	48 8d 05 e9 60 00 00 	lea    0x60e9(%rip),%rax        # 1906a <g_116+0xa>
   12f81:	48 89 85 40 fe ff ff 	mov    %rax,-0x1c0(%rbp)
   12f88:	48 8d 05 d1 60 00 00 	lea    0x60d1(%rip),%rax        # 19060 <g_116>
   12f8f:	48 89 85 48 fe ff ff 	mov    %rax,-0x1b8(%rbp)
   12f96:	48 8d 05 cd 60 00 00 	lea    0x60cd(%rip),%rax        # 1906a <g_116+0xa>
   12f9d:	48 89 85 50 fe ff ff 	mov    %rax,-0x1b0(%rbp)
   12fa4:	48 8d 05 b5 60 00 00 	lea    0x60b5(%rip),%rax        # 19060 <g_116>
   12fab:	48 89 85 58 fe ff ff 	mov    %rax,-0x1a8(%rbp)
   12fb2:	48 8d 05 c7 a2 00 00 	lea    0xa2c7(%rip),%rax        # 1d280 <g_47+0x10>
   12fb9:	48 89 85 48 fd ff ff 	mov    %rax,-0x2b8(%rbp)
   12fc0:	48 8d 05 c9 60 00 00 	lea    0x60c9(%rip),%rax        # 19090 <g_129>
   12fc7:	48 89 85 50 fd ff ff 	mov    %rax,-0x2b0(%rbp)
   12fce:	c7 85 d8 fc ff ff 00 	movl   $0x0,-0x328(%rbp)
   12fd5:	00 00 00 
   12fd8:	eb 1e                	jmp    12ff8 <func_68+0x42c>
   12fda:	8b 85 d8 fc ff ff    	mov    -0x328(%rbp),%eax
   12fe0:	48 98                	cltq   
   12fe2:	48 8d 15 6f 60 00 00 	lea    0x606f(%rip),%rdx        # 19058 <g_110>
   12fe9:	48 89 94 c5 60 fd ff 	mov    %rdx,-0x2a0(%rbp,%rax,8)
   12ff0:	ff 
   12ff1:	83 85 d8 fc ff ff 01 	addl   $0x1,-0x328(%rbp)
   12ff8:	83 bd d8 fc ff ff 02 	cmpl   $0x2,-0x328(%rbp)
   12fff:	7e d9                	jle    12fda <func_68+0x40e>
   13001:	48 8b 05 a0 8e 00 00 	mov    0x8ea0(%rip),%rax        # 1bea8 <g_50>
   13008:	48 8b 10             	mov    (%rax),%rdx
   1300b:	48 8b 85 20 fd ff ff 	mov    -0x2e0(%rbp),%rax
   13012:	48 89 10             	mov    %rdx,(%rax)
   13015:	8b 85 d4 fc ff ff    	mov    -0x32c(%rbp),%eax
   1301b:	83 c0 01             	add    $0x1,%eax
   1301e:	89 85 d4 fc ff ff    	mov    %eax,-0x32c(%rbp)
   13024:	8b 85 d4 fc ff ff    	mov    -0x32c(%rbp),%eax
   1302a:	85 c0                	test   %eax,%eax
   1302c:	0f 8e 1b fe ff ff    	jle    12e4d <func_68+0x281>
   13032:	48 8b 85 d0 fe ff ff 	mov    -0x130(%rbp),%rax
   13039:	48 83 c0 01          	add    $0x1,%rax
   1303d:	48 89 85 d0 fe ff ff 	mov    %rax,-0x130(%rbp)
   13044:	48 8b 85 08 fd ff ff 	mov    -0x2f8(%rbp),%rax
   1304b:	8b 00                	mov    (%rax),%eax
   1304d:	48 8b 95 b8 fc ff ff 	mov    -0x348(%rbp),%rdx
   13054:	48 c1 ea 13          	shr    $0x13,%rdx
   13058:	81 e2 ff ff ff 00    	and    $0xffffff,%edx
   1305e:	31 c2                	xor    %eax,%edx
   13060:	48 8b 85 08 fd ff ff 	mov    -0x2f8(%rbp),%rax
   13067:	89 10                	mov    %edx,(%rax)
   13069:	48 8b 85 b8 fc ff ff 	mov    -0x348(%rbp),%rax
   13070:	48 c1 e8 13          	shr    $0x13,%rax
   13074:	25 ff ff ff 00       	and    $0xffffff,%eax
   13079:	48 8b 5d e8          	mov    -0x18(%rbp),%rbx
   1307d:	64 48 33 1c 25 28 00 	xor    %fs:0x28,%rbx
   13084:	00 00 
   13086:	74 05                	je     1308d <func_68+0x4c1>
   13088:	e8 e3 4f ff ff       	callq  8070 <__stack_chk_fail@plt>
   1308d:	48 81 c4 48 03 00 00 	add    $0x348,%rsp
   13094:	5b                   	pop    %rbx
   13095:	5d                   	pop    %rbp
   13096:	c3                   	retq   

0000000000013097 <main>:
   13097:	f3 0f 1e fa          	endbr64 
   1309b:	55                   	push   %rbp
   1309c:	48 89 e5             	mov    %rsp,%rbp
   1309f:	48 83 ec 20          	sub    $0x20,%rsp
   130a3:	89 7d ec             	mov    %edi,-0x14(%rbp)
   130a6:	48 89 75 e0          	mov    %rsi,-0x20(%rbp)
   130aa:	c7 45 fc 00 00 00 00 	movl   $0x0,-0x4(%rbp)
   130b1:	83 7d ec 02          	cmpl   $0x2,-0x14(%rbp)
   130b5:	74 25                	je     130dc <main+0x45>
   130b7:	48 8b 45 e0          	mov    -0x20(%rbp),%rax
   130bb:	48 83 c0 08          	add    $0x8,%rax
   130bf:	48 8b 00             	mov    (%rax),%rax
   130c2:	48 8d 35 f7 2d 00 00 	lea    0x2df7(%rip),%rsi        # 15ec0 <g_860+0xe40>
   130c9:	48 89 c7             	mov    %rax,%rdi
   130cc:	e8 bf 4f ff ff       	callq  8090 <strcmp@plt>
   130d1:	85 c0                	test   %eax,%eax
   130d3:	74 07                	je     130dc <main+0x45>
   130d5:	c7 45 fc 01 00 00 00 	movl   $0x1,-0x4(%rbp)
   130dc:	e8 a8 50 ff ff       	callq  8189 <platform_main_begin>
   130e1:	e8 b2 64 ff ff       	callq  9598 <crc32_gentab>
   130e6:	e8 ca 66 ff ff       	callq  97b5 <func_1>
   130eb:	48 8b 05 36 5f 00 00 	mov    0x5f36(%rip),%rax        # 19028 <g_7>
   130f2:	8b 55 fc             	mov    -0x4(%rbp),%edx
   130f5:	48 8d 35 c6 2d 00 00 	lea    0x2dc6(%rip),%rsi        # 15ec2 <g_860+0xe42>
   130fc:	48 89 c7             	mov    %rax,%rdi
   130ff:	e8 ef 65 ff ff       	callq  96f3 <transparent_crc>
   13104:	0f b6 05 25 5f 00 00 	movzbl 0x5f25(%rip),%eax        # 19030 <g_15>
   1310b:	0f b6 15 1f 5f 00 00 	movzbl 0x5f1f(%rip),%edx        # 19031 <g_15+0x1>
   13112:	48 c1 e2 08          	shl    $0x8,%rdx
   13116:	48 09 c2             	or     %rax,%rdx
   13119:	0f b6 05 12 5f 00 00 	movzbl 0x5f12(%rip),%eax        # 19032 <g_15+0x2>
   13120:	83 e0 07             	and    $0x7,%eax
   13123:	48 c1 e0 10          	shl    $0x10,%rax
   13127:	48 09 d0             	or     %rdx,%rax
   1312a:	48 c1 e0 2d          	shl    $0x2d,%rax
   1312e:	48 c1 f8 2d          	sar    $0x2d,%rax
   13132:	48 98                	cltq   
   13134:	8b 55 fc             	mov    -0x4(%rbp),%edx
   13137:	48 8d 35 88 2d 00 00 	lea    0x2d88(%rip),%rsi        # 15ec6 <g_860+0xe46>
   1313e:	48 89 c7             	mov    %rax,%rdi
   13141:	e8 ad 65 ff ff       	callq  96f3 <transparent_crc>
   13146:	0f b6 05 e5 5e 00 00 	movzbl 0x5ee5(%rip),%eax        # 19032 <g_15+0x2>
   1314d:	c0 e8 03             	shr    $0x3,%al
   13150:	0f b6 c0             	movzbl %al,%eax
   13153:	0f b6 15 d9 5e 00 00 	movzbl 0x5ed9(%rip),%edx        # 19033 <g_15+0x3>
   1315a:	48 c1 e2 05          	shl    $0x5,%rdx
   1315e:	48 09 c2             	or     %rax,%rdx
   13161:	0f b6 05 cc 5e 00 00 	movzbl 0x5ecc(%rip),%eax        # 19034 <g_15+0x4>
   13168:	48 c1 e0 0d          	shl    $0xd,%rax
   1316c:	48 09 c2             	or     %rax,%rdx
   1316f:	0f b6 05 bf 5e 00 00 	movzbl 0x5ebf(%rip),%eax        # 19035 <g_15+0x5>
   13176:	83 e0 07             	and    $0x7,%eax
   13179:	48 c1 e0 15          	shl    $0x15,%rax
   1317d:	48 09 d0             	or     %rdx,%rax
   13180:	89 c1                	mov    %eax,%ecx
   13182:	8b 45 fc             	mov    -0x4(%rbp),%eax
   13185:	89 c2                	mov    %eax,%edx
   13187:	48 8d 35 40 2d 00 00 	lea    0x2d40(%rip),%rsi        # 15ece <g_860+0xe4e>
   1318e:	48 89 cf             	mov    %rcx,%rdi
   13191:	e8 5d 65 ff ff       	callq  96f3 <transparent_crc>
   13196:	c7 45 f0 00 00 00 00 	movl   $0x0,-0x10(%rbp)
   1319d:	e9 ba 00 00 00       	jmpq   1325c <main+0x1c5>
   131a2:	8b 45 f0             	mov    -0x10(%rbp),%eax
   131a5:	48 63 d0             	movslq %eax,%rdx
   131a8:	48 89 d0             	mov    %rdx,%rax
   131ab:	48 01 c0             	add    %rax,%rax
   131ae:	48 01 d0             	add    %rdx,%rax
   131b1:	48 01 c0             	add    %rax,%rax
   131b4:	48 89 c2             	mov    %rax,%rdx
   131b7:	48 8d 05 a2 1e 00 00 	lea    0x1ea2(%rip),%rax        # 15060 <g_17>
   131be:	0f b7 0c 02          	movzwl (%rdx,%rax,1),%ecx
   131c2:	0f b6 44 02 02       	movzbl 0x2(%rdx,%rax,1),%eax
   131c7:	83 e0 07             	and    $0x7,%eax
   131ca:	48 c1 e0 10          	shl    $0x10,%rax
   131ce:	48 09 c8             	or     %rcx,%rax
   131d1:	48 c1 e0 2d          	shl    $0x2d,%rax
   131d5:	48 c1 f8 2d          	sar    $0x2d,%rax
   131d9:	48 98                	cltq   
   131db:	8b 55 fc             	mov    -0x4(%rbp),%edx
   131de:	48 8d 35 f1 2c 00 00 	lea    0x2cf1(%rip),%rsi        # 15ed6 <g_860+0xe56>
   131e5:	48 89 c7             	mov    %rax,%rdi
   131e8:	e8 06 65 ff ff       	callq  96f3 <transparent_crc>
   131ed:	8b 45 f0             	mov    -0x10(%rbp),%eax
   131f0:	48 63 d0             	movslq %eax,%rdx
   131f3:	48 89 d0             	mov    %rdx,%rax
   131f6:	48 01 c0             	add    %rax,%rax
   131f9:	48 01 d0             	add    %rdx,%rax
   131fc:	48 01 c0             	add    %rax,%rax
   131ff:	48 89 c2             	mov    %rax,%rdx
   13202:	48 8d 05 57 1e 00 00 	lea    0x1e57(%rip),%rax        # 15060 <g_17>
   13209:	0f b7 4c 02 02       	movzwl 0x2(%rdx,%rax,1),%ecx
   1320e:	66 c1 e9 03          	shr    $0x3,%cx
   13212:	0f b7 c9             	movzwl %cx,%ecx
   13215:	0f b7 44 02 04       	movzwl 0x4(%rdx,%rax,1),%eax
   1321a:	25 ff 07 00 00       	and    $0x7ff,%eax
   1321f:	48 c1 e0 0d          	shl    $0xd,%rax
   13223:	48 09 c8             	or     %rcx,%rax
   13226:	89 c1                	mov    %eax,%ecx
   13228:	8b 45 fc             	mov    -0x4(%rbp),%eax
   1322b:	89 c2                	mov    %eax,%edx
   1322d:	48 8d 35 ad 2c 00 00 	lea    0x2cad(%rip),%rsi        # 15ee1 <g_860+0xe61>
   13234:	48 89 cf             	mov    %rcx,%rdi
   13237:	e8 b7 64 ff ff       	callq  96f3 <transparent_crc>
   1323c:	83 7d fc 00          	cmpl   $0x0,-0x4(%rbp)
   13240:	74 16                	je     13258 <main+0x1c1>
   13242:	8b 45 f0             	mov    -0x10(%rbp),%eax
   13245:	89 c6                	mov    %eax,%esi
   13247:	48 8d 3d 9e 2c 00 00 	lea    0x2c9e(%rip),%rdi        # 15eec <g_860+0xe6c>
   1324e:	b8 00 00 00 00       	mov    $0x0,%eax
   13253:	e8 28 4e ff ff       	callq  8080 <printf@plt>
   13258:	83 45 f0 01          	addl   $0x1,-0x10(%rbp)
   1325c:	83 7d f0 04          	cmpl   $0x4,-0x10(%rbp)
   13260:	0f 8e 3c ff ff ff    	jle    131a2 <main+0x10b>
   13266:	8b 05 cc 5d 00 00    	mov    0x5dcc(%rip),%eax        # 19038 <g_18>
   1326c:	48 98                	cltq   
   1326e:	8b 55 fc             	mov    -0x4(%rbp),%edx
   13271:	48 8d 35 82 2c 00 00 	lea    0x2c82(%rip),%rsi        # 15efa <g_860+0xe7a>
   13278:	48 89 c7             	mov    %rax,%rdi
   1327b:	e8 73 64 ff ff       	callq  96f3 <transparent_crc>
   13280:	8b 05 b6 5d 00 00    	mov    0x5db6(%rip),%eax        # 1903c <g_19>
   13286:	48 98                	cltq   
   13288:	8b 55 fc             	mov    -0x4(%rbp),%edx
   1328b:	48 8d 35 6d 2c 00 00 	lea    0x2c6d(%rip),%rsi        # 15eff <g_860+0xe7f>
   13292:	48 89 c7             	mov    %rax,%rdi
   13295:	e8 59 64 ff ff       	callq  96f3 <transparent_crc>
   1329a:	c7 45 f0 00 00 00 00 	movl   $0x0,-0x10(%rbp)
   132a1:	eb 4b                	jmp    132ee <main+0x257>
   132a3:	8b 45 f0             	mov    -0x10(%rbp),%eax
   132a6:	48 98                	cltq   
   132a8:	48 8d 14 85 00 00 00 	lea    0x0(,%rax,4),%rdx
   132af:	00 
   132b0:	48 8d 05 89 5d 00 00 	lea    0x5d89(%rip),%rax        # 19040 <g_38>
   132b7:	8b 04 02             	mov    (%rdx,%rax,1),%eax
   132ba:	48 98                	cltq   
   132bc:	8b 55 fc             	mov    -0x4(%rbp),%edx
   132bf:	48 8d 35 3e 2c 00 00 	lea    0x2c3e(%rip),%rsi        # 15f04 <g_860+0xe84>
   132c6:	48 89 c7             	mov    %rax,%rdi
   132c9:	e8 25 64 ff ff       	callq  96f3 <transparent_crc>
   132ce:	83 7d fc 00          	cmpl   $0x0,-0x4(%rbp)
   132d2:	74 16                	je     132ea <main+0x253>
   132d4:	8b 45 f0             	mov    -0x10(%rbp),%eax
   132d7:	89 c6                	mov    %eax,%esi
   132d9:	48 8d 3d 0c 2c 00 00 	lea    0x2c0c(%rip),%rdi        # 15eec <g_860+0xe6c>
   132e0:	b8 00 00 00 00       	mov    $0x0,%eax
   132e5:	e8 96 4d ff ff       	callq  8080 <printf@plt>
   132ea:	83 45 f0 01          	addl   $0x1,-0x10(%rbp)
   132ee:	83 7d f0 05          	cmpl   $0x5,-0x10(%rbp)
   132f2:	7e af                	jle    132a3 <main+0x20c>
   132f4:	c7 45 f0 00 00 00 00 	movl   $0x0,-0x10(%rbp)
   132fb:	eb 69                	jmp    13366 <main+0x2cf>
   132fd:	c7 45 f4 00 00 00 00 	movl   $0x0,-0xc(%rbp)
   13304:	eb 56                	jmp    1335c <main+0x2c5>
   13306:	8b 45 f4             	mov    -0xc(%rbp),%eax
   13309:	48 63 d0             	movslq %eax,%rdx
   1330c:	8b 45 f0             	mov    -0x10(%rbp),%eax
   1330f:	48 98                	cltq   
   13311:	48 01 d0             	add    %rdx,%rax
   13314:	48 8d 14 c5 00 00 00 	lea    0x0(,%rax,8),%rdx
   1331b:	00 
   1331c:	48 8d 05 4d 9f 00 00 	lea    0x9f4d(%rip),%rax        # 1d270 <g_47>
   13323:	48 8b 04 02          	mov    (%rdx,%rax,1),%rax
   13327:	8b 55 fc             	mov    -0x4(%rbp),%edx
   1332a:	48 8d 35 db 2b 00 00 	lea    0x2bdb(%rip),%rsi        # 15f0c <g_860+0xe8c>
   13331:	48 89 c7             	mov    %rax,%rdi
   13334:	e8 ba 63 ff ff       	callq  96f3 <transparent_crc>
   13339:	83 7d fc 00          	cmpl   $0x0,-0x4(%rbp)
   1333d:	74 19                	je     13358 <main+0x2c1>
   1333f:	8b 55 f4             	mov    -0xc(%rbp),%edx
   13342:	8b 45 f0             	mov    -0x10(%rbp),%eax
   13345:	89 c6                	mov    %eax,%esi
   13347:	48 8d 3d c9 2b 00 00 	lea    0x2bc9(%rip),%rdi        # 15f17 <g_860+0xe97>
   1334e:	b8 00 00 00 00       	mov    $0x0,%eax
   13353:	e8 28 4d ff ff       	callq  8080 <printf@plt>
   13358:	83 45 f4 01          	addl   $0x1,-0xc(%rbp)
   1335c:	83 7d f4 00          	cmpl   $0x0,-0xc(%rbp)
   13360:	7e a4                	jle    13306 <main+0x26f>
   13362:	83 45 f0 01          	addl   $0x1,-0x10(%rbp)
   13366:	83 7d f0 02          	cmpl   $0x2,-0x10(%rbp)
   1336a:	7e 91                	jle    132fd <main+0x266>
   1336c:	8b 05 e6 5c 00 00    	mov    0x5ce6(%rip),%eax        # 19058 <g_110>
   13372:	89 c1                	mov    %eax,%ecx
   13374:	8b 45 fc             	mov    -0x4(%rbp),%eax
   13377:	89 c2                	mov    %eax,%edx
   13379:	48 8d 35 a9 2b 00 00 	lea    0x2ba9(%rip),%rsi        # 15f29 <g_860+0xea9>
   13380:	48 89 cf             	mov    %rcx,%rdi
   13383:	e8 6b 63 ff ff       	callq  96f3 <transparent_crc>
   13388:	c7 45 f0 00 00 00 00 	movl   $0x0,-0x10(%rbp)
   1338f:	eb 6c                	jmp    133fd <main+0x366>
   13391:	c7 45 f4 00 00 00 00 	movl   $0x0,-0xc(%rbp)
   13398:	eb 59                	jmp    133f3 <main+0x35c>
   1339a:	8b 45 f4             	mov    -0xc(%rbp),%eax
   1339d:	48 98                	cltq   
   1339f:	8b 55 f0             	mov    -0x10(%rbp),%edx
   133a2:	48 63 d2             	movslq %edx,%rdx
   133a5:	48 c1 e2 03          	shl    $0x3,%rdx
   133a9:	48 01 d0             	add    %rdx,%rax
   133ac:	48 8d 14 00          	lea    (%rax,%rax,1),%rdx
   133b0:	48 8d 05 a9 5c 00 00 	lea    0x5ca9(%rip),%rax        # 19060 <g_116>
   133b7:	0f b7 04 02          	movzwl (%rdx,%rax,1),%eax
   133bb:	0f b7 c0             	movzwl %ax,%eax
   133be:	8b 55 fc             	mov    -0x4(%rbp),%edx
   133c1:	48 8d 35 67 2b 00 00 	lea    0x2b67(%rip),%rsi        # 15f2f <g_860+0xeaf>
   133c8:	48 89 c7             	mov    %rax,%rdi
   133cb:	e8 23 63 ff ff       	callq  96f3 <transparent_crc>
   133d0:	83 7d fc 00          	cmpl   $0x0,-0x4(%rbp)
   133d4:	74 19                	je     133ef <main+0x358>
   133d6:	8b 55 f4             	mov    -0xc(%rbp),%edx
   133d9:	8b 45 f0             	mov    -0x10(%rbp),%eax
   133dc:	89 c6                	mov    %eax,%esi
   133de:	48 8d 3d 32 2b 00 00 	lea    0x2b32(%rip),%rdi        # 15f17 <g_860+0xe97>
   133e5:	b8 00 00 00 00       	mov    $0x0,%eax
   133ea:	e8 91 4c ff ff       	callq  8080 <printf@plt>
   133ef:	83 45 f4 01          	addl   $0x1,-0xc(%rbp)
   133f3:	83 7d f4 07          	cmpl   $0x7,-0xc(%rbp)
   133f7:	7e a1                	jle    1339a <main+0x303>
   133f9:	83 45 f0 01          	addl   $0x1,-0x10(%rbp)
   133fd:	83 7d f0 02          	cmpl   $0x2,-0x10(%rbp)
   13401:	7e 8e                	jle    13391 <main+0x2fa>
   13403:	0f b6 05 86 5c 00 00 	movzbl 0x5c86(%rip),%eax        # 19090 <g_129>
   1340a:	0f b6 c0             	movzbl %al,%eax
   1340d:	8b 55 fc             	mov    -0x4(%rbp),%edx
   13410:	48 8d 35 24 2b 00 00 	lea    0x2b24(%rip),%rsi        # 15f3b <g_860+0xebb>
   13417:	48 89 c7             	mov    %rax,%rdi
   1341a:	e8 d4 62 ff ff       	callq  96f3 <transparent_crc>
   1341f:	0f b7 05 6c 5c 00 00 	movzwl 0x5c6c(%rip),%eax        # 19092 <g_139>
   13426:	0f b7 c0             	movzwl %ax,%eax
   13429:	8b 55 fc             	mov    -0x4(%rbp),%edx
   1342c:	48 8d 35 0e 2b 00 00 	lea    0x2b0e(%rip),%rsi        # 15f41 <g_860+0xec1>
   13433:	48 89 c7             	mov    %rax,%rdi
   13436:	e8 b8 62 ff ff       	callq  96f3 <transparent_crc>
   1343b:	8b 05 53 5c 00 00    	mov    0x5c53(%rip),%eax        # 19094 <g_167>
   13441:	89 c1                	mov    %eax,%ecx
   13443:	8b 45 fc             	mov    -0x4(%rbp),%eax
   13446:	89 c2                	mov    %eax,%edx
   13448:	48 8d 35 f8 2a 00 00 	lea    0x2af8(%rip),%rsi        # 15f47 <g_860+0xec7>
   1344f:	48 89 cf             	mov    %rcx,%rdi
   13452:	e8 9c 62 ff ff       	callq  96f3 <transparent_crc>
   13457:	0f b7 05 3a 5c 00 00 	movzwl 0x5c3a(%rip),%eax        # 19098 <g_169>
   1345e:	48 0f bf c0          	movswq %ax,%rax
   13462:	8b 55 fc             	mov    -0x4(%rbp),%edx
   13465:	48 8d 35 e1 2a 00 00 	lea    0x2ae1(%rip),%rsi        # 15f4d <g_860+0xecd>
   1346c:	48 89 c7             	mov    %rax,%rdi
   1346f:	e8 7f 62 ff ff       	callq  96f3 <transparent_crc>
   13474:	0f b6 05 1f 5c 00 00 	movzbl 0x5c1f(%rip),%eax        # 1909a <g_195>
   1347b:	48 0f be c0          	movsbq %al,%rax
   1347f:	8b 55 fc             	mov    -0x4(%rbp),%edx
   13482:	48 8d 35 ca 2a 00 00 	lea    0x2aca(%rip),%rsi        # 15f53 <g_860+0xed3>
   13489:	48 89 c7             	mov    %rax,%rdi
   1348c:	e8 62 62 ff ff       	callq  96f3 <transparent_crc>
   13491:	8b 05 05 5c 00 00    	mov    0x5c05(%rip),%eax        # 1909c <g_198>
   13497:	48 98                	cltq   
   13499:	8b 55 fc             	mov    -0x4(%rbp),%edx
   1349c:	48 8d 35 b6 2a 00 00 	lea    0x2ab6(%rip),%rsi        # 15f59 <g_860+0xed9>
   134a3:	48 89 c7             	mov    %rax,%rdi
   134a6:	e8 48 62 ff ff       	callq  96f3 <transparent_crc>
   134ab:	0f b7 05 ee 5b 00 00 	movzwl 0x5bee(%rip),%eax        # 190a0 <g_205>
   134b2:	48 0f bf c0          	movswq %ax,%rax
   134b6:	8b 55 fc             	mov    -0x4(%rbp),%edx
   134b9:	48 8d 35 9f 2a 00 00 	lea    0x2a9f(%rip),%rsi        # 15f5f <g_860+0xedf>
   134c0:	48 89 c7             	mov    %rax,%rdi
   134c3:	e8 2b 62 ff ff       	callq  96f3 <transparent_crc>
   134c8:	c7 45 f0 00 00 00 00 	movl   $0x0,-0x10(%rbp)
   134cf:	e9 b7 02 00 00       	jmpq   1378b <main+0x6f4>
   134d4:	c7 45 f4 00 00 00 00 	movl   $0x0,-0xc(%rbp)
   134db:	e9 9d 02 00 00       	jmpq   1377d <main+0x6e6>
   134e0:	c7 45 f8 00 00 00 00 	movl   $0x0,-0x8(%rbp)
   134e7:	e9 83 02 00 00       	jmpq   1376f <main+0x6d8>
   134ec:	8b 45 f8             	mov    -0x8(%rbp),%eax
   134ef:	48 63 f0             	movslq %eax,%rsi
   134f2:	8b 45 f0             	mov    -0x10(%rbp),%eax
   134f5:	48 98                	cltq   
   134f7:	8b 55 f4             	mov    -0xc(%rbp),%edx
   134fa:	48 63 ca             	movslq %edx,%rcx
   134fd:	48 89 c2             	mov    %rax,%rdx
   13500:	48 c1 e2 03          	shl    $0x3,%rdx
   13504:	48 01 c2             	add    %rax,%rdx
   13507:	48 8d 04 95 00 00 00 	lea    0x0(,%rdx,4),%rax
   1350e:	00 
   1350f:	48 89 c2             	mov    %rax,%rdx
   13512:	48 89 c8             	mov    %rcx,%rax
   13515:	48 01 c0             	add    %rax,%rax
   13518:	48 01 c8             	add    %rcx,%rax
   1351b:	48 01 c0             	add    %rax,%rax
   1351e:	48 01 d0             	add    %rdx,%rax
   13521:	48 01 f0             	add    %rsi,%rax
   13524:	48 c1 e0 04          	shl    $0x4,%rax
   13528:	48 89 c2             	mov    %rax,%rdx
   1352b:	48 8d 05 8e 5b 00 00 	lea    0x5b8e(%rip),%rax        # 190c0 <g_216>
   13532:	0f b6 04 02          	movzbl (%rdx,%rax,1),%eax
   13536:	c1 e0 03             	shl    $0x3,%eax
   13539:	c0 f8 03             	sar    $0x3,%al
   1353c:	48 0f be c0          	movsbq %al,%rax
   13540:	8b 55 fc             	mov    -0x4(%rbp),%edx
   13543:	48 8d 35 1b 2a 00 00 	lea    0x2a1b(%rip),%rsi        # 15f65 <g_860+0xee5>
   1354a:	48 89 c7             	mov    %rax,%rdi
   1354d:	e8 a1 61 ff ff       	callq  96f3 <transparent_crc>
   13552:	8b 45 f8             	mov    -0x8(%rbp),%eax
   13555:	48 63 f0             	movslq %eax,%rsi
   13558:	8b 45 f0             	mov    -0x10(%rbp),%eax
   1355b:	48 98                	cltq   
   1355d:	8b 55 f4             	mov    -0xc(%rbp),%edx
   13560:	48 63 ca             	movslq %edx,%rcx
   13563:	48 89 c2             	mov    %rax,%rdx
   13566:	48 c1 e2 03          	shl    $0x3,%rdx
   1356a:	48 01 c2             	add    %rax,%rdx
   1356d:	48 8d 04 95 00 00 00 	lea    0x0(,%rdx,4),%rax
   13574:	00 
   13575:	48 89 c2             	mov    %rax,%rdx
   13578:	48 89 c8             	mov    %rcx,%rax
   1357b:	48 01 c0             	add    %rax,%rax
   1357e:	48 01 c8             	add    %rcx,%rax
   13581:	48 01 c0             	add    %rax,%rax
   13584:	48 01 d0             	add    %rdx,%rax
   13587:	48 01 f0             	add    %rsi,%rax
   1358a:	48 c1 e0 04          	shl    $0x4,%rax
   1358e:	48 89 c2             	mov    %rax,%rdx
   13591:	48 8d 05 28 5b 00 00 	lea    0x5b28(%rip),%rax        # 190c0 <g_216>
   13598:	0f b7 04 02          	movzwl (%rdx,%rax,1),%eax
   1359c:	66 c1 e8 05          	shr    $0x5,%ax
   135a0:	83 e0 3f             	and    $0x3f,%eax
   135a3:	0f b6 c0             	movzbl %al,%eax
   135a6:	8b 55 fc             	mov    -0x4(%rbp),%edx
   135a9:	48 8d 35 c7 29 00 00 	lea    0x29c7(%rip),%rsi        # 15f77 <g_860+0xef7>
   135b0:	48 89 c7             	mov    %rax,%rdi
   135b3:	e8 3b 61 ff ff       	callq  96f3 <transparent_crc>
   135b8:	8b 45 f8             	mov    -0x8(%rbp),%eax
   135bb:	48 63 f0             	movslq %eax,%rsi
   135be:	8b 45 f0             	mov    -0x10(%rbp),%eax
   135c1:	48 98                	cltq   
   135c3:	8b 55 f4             	mov    -0xc(%rbp),%edx
   135c6:	48 63 ca             	movslq %edx,%rcx
   135c9:	48 89 c2             	mov    %rax,%rdx
   135cc:	48 c1 e2 03          	shl    $0x3,%rdx
   135d0:	48 01 c2             	add    %rax,%rdx
   135d3:	48 8d 04 95 00 00 00 	lea    0x0(,%rdx,4),%rax
   135da:	00 
   135db:	48 89 c2             	mov    %rax,%rdx
   135de:	48 89 c8             	mov    %rcx,%rax
   135e1:	48 01 c0             	add    %rax,%rax
   135e4:	48 01 c8             	add    %rcx,%rax
   135e7:	48 01 c0             	add    %rax,%rax
   135ea:	48 01 d0             	add    %rdx,%rax
   135ed:	48 01 f0             	add    %rsi,%rax
   135f0:	48 c1 e0 04          	shl    $0x4,%rax
   135f4:	48 89 c2             	mov    %rax,%rdx
   135f7:	48 8d 05 c2 5a 00 00 	lea    0x5ac2(%rip),%rax        # 190c0 <g_216>
   135fe:	48 8b 04 02          	mov    (%rdx,%rax,1),%rax
   13602:	c1 e0 05             	shl    $0x5,%eax
   13605:	c1 f8 10             	sar    $0x10,%eax
   13608:	48 0f bf c0          	movswq %ax,%rax
   1360c:	8b 55 fc             	mov    -0x4(%rbp),%edx
   1360f:	48 8d 35 73 29 00 00 	lea    0x2973(%rip),%rsi        # 15f89 <g_860+0xf09>
   13616:	48 89 c7             	mov    %rax,%rdi
   13619:	e8 d5 60 ff ff       	callq  96f3 <transparent_crc>
   1361e:	8b 45 f8             	mov    -0x8(%rbp),%eax
   13621:	48 63 f0             	movslq %eax,%rsi
   13624:	8b 45 f0             	mov    -0x10(%rbp),%eax
   13627:	48 98                	cltq   
   13629:	8b 55 f4             	mov    -0xc(%rbp),%edx
   1362c:	48 63 ca             	movslq %edx,%rcx
   1362f:	48 89 c2             	mov    %rax,%rdx
   13632:	48 c1 e2 03          	shl    $0x3,%rdx
   13636:	48 01 c2             	add    %rax,%rdx
   13639:	48 8d 04 95 00 00 00 	lea    0x0(,%rdx,4),%rax
   13640:	00 
   13641:	48 89 c2             	mov    %rax,%rdx
   13644:	48 89 c8             	mov    %rcx,%rax
   13647:	48 01 c0             	add    %rax,%rax
   1364a:	48 01 c8             	add    %rcx,%rax
   1364d:	48 01 c0             	add    %rax,%rax
   13650:	48 01 d0             	add    %rdx,%rax
   13653:	48 01 f0             	add    %rsi,%rax
   13656:	48 c1 e0 04          	shl    $0x4,%rax
   1365a:	48 89 c2             	mov    %rax,%rdx
   1365d:	48 8d 05 5c 5a 00 00 	lea    0x5a5c(%rip),%rax        # 190c0 <g_216>
   13664:	8b 44 02 04          	mov    0x4(%rdx,%rax,1),%eax
   13668:	c1 e0 04             	shl    $0x4,%eax
   1366b:	c1 f8 04             	sar    $0x4,%eax
   1366e:	48 98                	cltq   
   13670:	8b 55 fc             	mov    -0x4(%rbp),%edx
   13673:	48 8d 35 21 29 00 00 	lea    0x2921(%rip),%rsi        # 15f9b <g_860+0xf1b>
   1367a:	48 89 c7             	mov    %rax,%rdi
   1367d:	e8 71 60 ff ff       	callq  96f3 <transparent_crc>
   13682:	8b 45 f8             	mov    -0x8(%rbp),%eax
   13685:	48 63 f0             	movslq %eax,%rsi
   13688:	8b 45 f0             	mov    -0x10(%rbp),%eax
   1368b:	48 98                	cltq   
   1368d:	8b 55 f4             	mov    -0xc(%rbp),%edx
   13690:	48 63 ca             	movslq %edx,%rcx
   13693:	48 89 c2             	mov    %rax,%rdx
   13696:	48 c1 e2 03          	shl    $0x3,%rdx
   1369a:	48 01 c2             	add    %rax,%rdx
   1369d:	48 8d 04 95 00 00 00 	lea    0x0(,%rdx,4),%rax
   136a4:	00 
   136a5:	48 89 c2             	mov    %rax,%rdx
   136a8:	48 89 c8             	mov    %rcx,%rax
   136ab:	48 01 c0             	add    %rax,%rax
   136ae:	48 01 c8             	add    %rcx,%rax
   136b1:	48 01 c0             	add    %rax,%rax
   136b4:	48 01 d0             	add    %rdx,%rax
   136b7:	48 01 f0             	add    %rsi,%rax
   136ba:	48 c1 e0 04          	shl    $0x4,%rax
   136be:	48 89 c2             	mov    %rax,%rdx
   136c1:	48 8d 05 f8 59 00 00 	lea    0x59f8(%rip),%rax        # 190c0 <g_216>
   136c8:	8b 44 02 08          	mov    0x8(%rdx,%rax,1),%eax
   136cc:	c1 e0 05             	shl    $0x5,%eax
   136cf:	c1 f8 05             	sar    $0x5,%eax
   136d2:	48 98                	cltq   
   136d4:	8b 55 fc             	mov    -0x4(%rbp),%edx
   136d7:	48 8d 35 cf 28 00 00 	lea    0x28cf(%rip),%rsi        # 15fad <g_860+0xf2d>
   136de:	48 89 c7             	mov    %rax,%rdi
   136e1:	e8 0d 60 ff ff       	callq  96f3 <transparent_crc>
   136e6:	8b 45 f8             	mov    -0x8(%rbp),%eax
   136e9:	48 63 f0             	movslq %eax,%rsi
   136ec:	8b 45 f0             	mov    -0x10(%rbp),%eax
   136ef:	48 98                	cltq   
   136f1:	8b 55 f4             	mov    -0xc(%rbp),%edx
   136f4:	48 63 ca             	movslq %edx,%rcx
   136f7:	48 89 c2             	mov    %rax,%rdx
   136fa:	48 c1 e2 03          	shl    $0x3,%rdx
   136fe:	48 01 c2             	add    %rax,%rdx
   13701:	48 8d 04 95 00 00 00 	lea    0x0(,%rdx,4),%rax
   13708:	00 
   13709:	48 89 c2             	mov    %rax,%rdx
   1370c:	48 89 c8             	mov    %rcx,%rax
   1370f:	48 01 c0             	add    %rax,%rax
   13712:	48 01 c8             	add    %rcx,%rax
   13715:	48 01 c0             	add    %rax,%rax
   13718:	48 01 d0             	add    %rdx,%rax
   1371b:	48 01 f0             	add    %rsi,%rax
   1371e:	48 c1 e0 04          	shl    $0x4,%rax
   13722:	48 89 c2             	mov    %rax,%rdx
   13725:	48 8d 05 94 59 00 00 	lea    0x5994(%rip),%rax        # 190c0 <g_216>
   1372c:	0f b6 44 02 0c       	movzbl 0xc(%rdx,%rax,1),%eax
   13731:	83 e0 3f             	and    $0x3f,%eax
   13734:	0f b6 c0             	movzbl %al,%eax
   13737:	8b 55 fc             	mov    -0x4(%rbp),%edx
   1373a:	48 8d 35 7e 28 00 00 	lea    0x287e(%rip),%rsi        # 15fbf <g_860+0xf3f>
   13741:	48 89 c7             	mov    %rax,%rdi
   13744:	e8 aa 5f ff ff       	callq  96f3 <transparent_crc>
   13749:	83 7d fc 00          	cmpl   $0x0,-0x4(%rbp)
   1374d:	74 1c                	je     1376b <main+0x6d4>
   1374f:	8b 4d f8             	mov    -0x8(%rbp),%ecx
   13752:	8b 55 f4             	mov    -0xc(%rbp),%edx
   13755:	8b 45 f0             	mov    -0x10(%rbp),%eax
   13758:	89 c6                	mov    %eax,%esi
   1375a:	48 8d 3d 70 28 00 00 	lea    0x2870(%rip),%rdi        # 15fd1 <g_860+0xf51>
   13761:	b8 00 00 00 00       	mov    $0x0,%eax
   13766:	e8 15 49 ff ff       	callq  8080 <printf@plt>
   1376b:	83 45 f8 01          	addl   $0x1,-0x8(%rbp)
   1376f:	83 7d f8 05          	cmpl   $0x5,-0x8(%rbp)
   13773:	0f 8e 73 fd ff ff    	jle    134ec <main+0x455>
   13779:	83 45 f4 01          	addl   $0x1,-0xc(%rbp)
   1377d:	83 7d f4 05          	cmpl   $0x5,-0xc(%rbp)
   13781:	0f 8e 59 fd ff ff    	jle    134e0 <main+0x449>
   13787:	83 45 f0 01          	addl   $0x1,-0x10(%rbp)
   1378b:	83 7d f0 03          	cmpl   $0x3,-0x10(%rbp)
   1378f:	0f 8e 3f fd ff ff    	jle    134d4 <main+0x43d>
   13795:	48 8b 05 24 62 00 00 	mov    0x6224(%rip),%rax        # 199c0 <g_259>
   1379c:	48 89 c1             	mov    %rax,%rcx
   1379f:	8b 45 fc             	mov    -0x4(%rbp),%eax
   137a2:	89 c2                	mov    %eax,%edx
   137a4:	48 8d 35 3c 28 00 00 	lea    0x283c(%rip),%rsi        # 15fe7 <g_860+0xf67>
   137ab:	48 89 cf             	mov    %rcx,%rdi
   137ae:	e8 40 5f ff ff       	callq  96f3 <transparent_crc>
   137b3:	0f b7 05 0e 62 00 00 	movzwl 0x620e(%rip),%eax        # 199c8 <g_262>
   137ba:	48 0f bf c0          	movswq %ax,%rax
   137be:	8b 55 fc             	mov    -0x4(%rbp),%edx
   137c1:	48 8d 35 25 28 00 00 	lea    0x2825(%rip),%rsi        # 15fed <g_860+0xf6d>
   137c8:	48 89 c7             	mov    %rax,%rdi
   137cb:	e8 23 5f ff ff       	callq  96f3 <transparent_crc>
   137d0:	c7 45 f0 00 00 00 00 	movl   $0x0,-0x10(%rbp)
   137d7:	eb 4a                	jmp    13823 <main+0x78c>
   137d9:	8b 45 f0             	mov    -0x10(%rbp),%eax
   137dc:	48 98                	cltq   
   137de:	48 8d 14 c5 00 00 00 	lea    0x0(,%rax,8),%rdx
   137e5:	00 
   137e6:	48 8d 05 e3 61 00 00 	lea    0x61e3(%rip),%rax        # 199d0 <g_294>
   137ed:	48 8b 04 02          	mov    (%rdx,%rax,1),%rax
   137f1:	8b 55 fc             	mov    -0x4(%rbp),%edx
   137f4:	48 8d 35 f8 27 00 00 	lea    0x27f8(%rip),%rsi        # 15ff3 <g_860+0xf73>
   137fb:	48 89 c7             	mov    %rax,%rdi
   137fe:	e8 f0 5e ff ff       	callq  96f3 <transparent_crc>
   13803:	83 7d fc 00          	cmpl   $0x0,-0x4(%rbp)
   13807:	74 16                	je     1381f <main+0x788>
   13809:	8b 45 f0             	mov    -0x10(%rbp),%eax
   1380c:	89 c6                	mov    %eax,%esi
   1380e:	48 8d 3d d7 26 00 00 	lea    0x26d7(%rip),%rdi        # 15eec <g_860+0xe6c>
   13815:	b8 00 00 00 00       	mov    $0x0,%eax
   1381a:	e8 61 48 ff ff       	callq  8080 <printf@plt>
   1381f:	83 45 f0 01          	addl   $0x1,-0x10(%rbp)
   13823:	83 7d f0 01          	cmpl   $0x1,-0x10(%rbp)
   13827:	7e b0                	jle    137d9 <main+0x742>
   13829:	c7 45 f0 00 00 00 00 	movl   $0x0,-0x10(%rbp)
   13830:	e9 52 01 00 00       	jmpq   13987 <main+0x8f0>
   13835:	8b 45 f0             	mov    -0x10(%rbp),%eax
   13838:	48 98                	cltq   
   1383a:	48 c1 e0 04          	shl    $0x4,%rax
   1383e:	48 89 c2             	mov    %rax,%rdx
   13841:	48 8d 05 98 61 00 00 	lea    0x6198(%rip),%rax        # 199e0 <g_331>
   13848:	48 8b 04 02          	mov    (%rdx,%rax,1),%rax
   1384c:	c1 e0 03             	shl    $0x3,%eax
   1384f:	c0 f8 03             	sar    $0x3,%al
   13852:	48 0f be c0          	movsbq %al,%rax
   13856:	8b 55 fc             	mov    -0x4(%rbp),%edx
   13859:	48 8d 35 9c 27 00 00 	lea    0x279c(%rip),%rsi        # 15ffc <g_860+0xf7c>
   13860:	48 89 c7             	mov    %rax,%rdi
   13863:	e8 8b 5e ff ff       	callq  96f3 <transparent_crc>
   13868:	8b 45 f0             	mov    -0x10(%rbp),%eax
   1386b:	48 98                	cltq   
   1386d:	48 c1 e0 04          	shl    $0x4,%rax
   13871:	48 89 c2             	mov    %rax,%rdx
   13874:	48 8d 05 65 61 00 00 	lea    0x6165(%rip),%rax        # 199e0 <g_331>
   1387b:	48 8b 04 02          	mov    (%rdx,%rax,1),%rax
   1387f:	48 c1 e8 05          	shr    $0x5,%rax
   13883:	83 e0 3f             	and    $0x3f,%eax
   13886:	0f b6 c0             	movzbl %al,%eax
   13889:	8b 55 fc             	mov    -0x4(%rbp),%edx
   1388c:	48 8d 35 75 27 00 00 	lea    0x2775(%rip),%rsi        # 16008 <g_860+0xf88>
   13893:	48 89 c7             	mov    %rax,%rdi
   13896:	e8 58 5e ff ff       	callq  96f3 <transparent_crc>
   1389b:	8b 45 f0             	mov    -0x10(%rbp),%eax
   1389e:	48 98                	cltq   
   138a0:	48 c1 e0 04          	shl    $0x4,%rax
   138a4:	48 89 c2             	mov    %rax,%rdx
   138a7:	48 8d 05 32 61 00 00 	lea    0x6132(%rip),%rax        # 199e0 <g_331>
   138ae:	48 8b 04 02          	mov    (%rdx,%rax,1),%rax
   138b2:	c1 e0 05             	shl    $0x5,%eax
   138b5:	c1 f8 10             	sar    $0x10,%eax
   138b8:	48 0f bf c0          	movswq %ax,%rax
   138bc:	8b 55 fc             	mov    -0x4(%rbp),%edx
   138bf:	48 8d 35 4e 27 00 00 	lea    0x274e(%rip),%rsi        # 16014 <g_860+0xf94>
   138c6:	48 89 c7             	mov    %rax,%rdi
   138c9:	e8 25 5e ff ff       	callq  96f3 <transparent_crc>
   138ce:	8b 45 f0             	mov    -0x10(%rbp),%eax
   138d1:	48 98                	cltq   
   138d3:	48 c1 e0 04          	shl    $0x4,%rax
   138d7:	48 89 c2             	mov    %rax,%rdx
   138da:	48 8d 05 ff 60 00 00 	lea    0x60ff(%rip),%rax        # 199e0 <g_331>
   138e1:	48 8b 04 02          	mov    (%rdx,%rax,1),%rax
   138e5:	48 c1 e0 04          	shl    $0x4,%rax
   138e9:	48 c1 f8 24          	sar    $0x24,%rax
   138ed:	48 98                	cltq   
   138ef:	8b 55 fc             	mov    -0x4(%rbp),%edx
   138f2:	48 8d 35 27 27 00 00 	lea    0x2727(%rip),%rsi        # 16020 <g_860+0xfa0>
   138f9:	48 89 c7             	mov    %rax,%rdi
   138fc:	e8 f2 5d ff ff       	callq  96f3 <transparent_crc>
   13901:	8b 45 f0             	mov    -0x10(%rbp),%eax
   13904:	48 98                	cltq   
   13906:	48 c1 e0 04          	shl    $0x4,%rax
   1390a:	48 89 c2             	mov    %rax,%rdx
   1390d:	48 8d 05 cc 60 00 00 	lea    0x60cc(%rip),%rax        # 199e0 <g_331>
   13914:	48 8b 44 02 08       	mov    0x8(%rdx,%rax,1),%rax
   13919:	c1 e0 05             	shl    $0x5,%eax
   1391c:	c1 f8 05             	sar    $0x5,%eax
   1391f:	48 98                	cltq   
   13921:	8b 55 fc             	mov    -0x4(%rbp),%edx
   13924:	48 8d 35 01 27 00 00 	lea    0x2701(%rip),%rsi        # 1602c <g_860+0xfac>
   1392b:	48 89 c7             	mov    %rax,%rdi
   1392e:	e8 c0 5d ff ff       	callq  96f3 <transparent_crc>
   13933:	8b 45 f0             	mov    -0x10(%rbp),%eax
   13936:	48 98                	cltq   
   13938:	48 c1 e0 04          	shl    $0x4,%rax
   1393c:	48 89 c2             	mov    %rax,%rdx
   1393f:	48 8d 05 9a 60 00 00 	lea    0x609a(%rip),%rax        # 199e0 <g_331>
   13946:	48 8b 44 02 08       	mov    0x8(%rdx,%rax,1),%rax
   1394b:	48 c1 e8 20          	shr    $0x20,%rax
   1394f:	83 e0 3f             	and    $0x3f,%eax
   13952:	0f b6 c0             	movzbl %al,%eax
   13955:	8b 55 fc             	mov    -0x4(%rbp),%edx
   13958:	48 8d 35 d9 26 00 00 	lea    0x26d9(%rip),%rsi        # 16038 <g_860+0xfb8>
   1395f:	48 89 c7             	mov    %rax,%rdi
   13962:	e8 8c 5d ff ff       	callq  96f3 <transparent_crc>
   13967:	83 7d fc 00          	cmpl   $0x0,-0x4(%rbp)
   1396b:	74 16                	je     13983 <main+0x8ec>
   1396d:	8b 45 f0             	mov    -0x10(%rbp),%eax
   13970:	89 c6                	mov    %eax,%esi
   13972:	48 8d 3d 73 25 00 00 	lea    0x2573(%rip),%rdi        # 15eec <g_860+0xe6c>
   13979:	b8 00 00 00 00       	mov    $0x0,%eax
   1397e:	e8 fd 46 ff ff       	callq  8080 <printf@plt>
   13983:	83 45 f0 01          	addl   $0x1,-0x10(%rbp)
   13987:	83 7d f0 05          	cmpl   $0x5,-0x10(%rbp)
   1398b:	0f 8e a4 fe ff ff    	jle    13835 <main+0x79e>
   13991:	8b 05 a9 60 00 00    	mov    0x60a9(%rip),%eax        # 19a40 <g_381>
   13997:	89 c1                	mov    %eax,%ecx
   13999:	8b 45 fc             	mov    -0x4(%rbp),%eax
   1399c:	89 c2                	mov    %eax,%edx
   1399e:	48 8d 35 9f 26 00 00 	lea    0x269f(%rip),%rsi        # 16044 <g_860+0xfc4>
   139a5:	48 89 cf             	mov    %rcx,%rdi
   139a8:	e8 46 5d ff ff       	callq  96f3 <transparent_crc>
   139ad:	48 8b 05 94 60 00 00 	mov    0x6094(%rip),%rax        # 19a48 <g_427>
   139b4:	48 89 c1             	mov    %rax,%rcx
   139b7:	8b 45 fc             	mov    -0x4(%rbp),%eax
   139ba:	89 c2                	mov    %eax,%edx
   139bc:	48 8d 35 87 26 00 00 	lea    0x2687(%rip),%rsi        # 1604a <g_860+0xfca>
   139c3:	48 89 cf             	mov    %rcx,%rdi
   139c6:	e8 28 5d ff ff       	callq  96f3 <transparent_crc>
   139cb:	0f b6 05 7e 60 00 00 	movzbl 0x607e(%rip),%eax        # 19a50 <g_512>
   139d2:	0f b6 c0             	movzbl %al,%eax
   139d5:	8b 55 fc             	mov    -0x4(%rbp),%edx
   139d8:	48 8d 35 71 26 00 00 	lea    0x2671(%rip),%rsi        # 16050 <g_860+0xfd0>
   139df:	48 89 c7             	mov    %rax,%rdi
   139e2:	e8 0c 5d ff ff       	callq  96f3 <transparent_crc>
   139e7:	0f b6 05 63 60 00 00 	movzbl 0x6063(%rip),%eax        # 19a51 <g_523>
   139ee:	48 0f be c0          	movsbq %al,%rax
   139f2:	8b 55 fc             	mov    -0x4(%rbp),%edx
   139f5:	48 8d 35 5a 26 00 00 	lea    0x265a(%rip),%rsi        # 16056 <g_860+0xfd6>
   139fc:	48 89 c7             	mov    %rax,%rdi
   139ff:	e8 ef 5c ff ff       	callq  96f3 <transparent_crc>
   13a04:	48 8b 05 55 60 00 00 	mov    0x6055(%rip),%rax        # 19a60 <g_530>
   13a0b:	c1 e0 03             	shl    $0x3,%eax
   13a0e:	c0 f8 03             	sar    $0x3,%al
   13a11:	48 0f be c0          	movsbq %al,%rax
   13a15:	8b 55 fc             	mov    -0x4(%rbp),%edx
   13a18:	48 8d 35 3d 26 00 00 	lea    0x263d(%rip),%rsi        # 1605c <g_860+0xfdc>
   13a1f:	48 89 c7             	mov    %rax,%rdi
   13a22:	e8 cc 5c ff ff       	callq  96f3 <transparent_crc>
   13a27:	48 8b 05 32 60 00 00 	mov    0x6032(%rip),%rax        # 19a60 <g_530>
   13a2e:	48 c1 e8 05          	shr    $0x5,%rax
   13a32:	83 e0 3f             	and    $0x3f,%eax
   13a35:	0f b6 c0             	movzbl %al,%eax
   13a38:	8b 55 fc             	mov    -0x4(%rbp),%edx
   13a3b:	48 8d 35 23 26 00 00 	lea    0x2623(%rip),%rsi        # 16065 <g_860+0xfe5>
   13a42:	48 89 c7             	mov    %rax,%rdi
   13a45:	e8 a9 5c ff ff       	callq  96f3 <transparent_crc>
   13a4a:	48 8b 05 0f 60 00 00 	mov    0x600f(%rip),%rax        # 19a60 <g_530>
   13a51:	c1 e0 05             	shl    $0x5,%eax
   13a54:	c1 f8 10             	sar    $0x10,%eax
   13a57:	48 0f bf c0          	movswq %ax,%rax
   13a5b:	8b 55 fc             	mov    -0x4(%rbp),%edx
   13a5e:	48 8d 35 09 26 00 00 	lea    0x2609(%rip),%rsi        # 1606e <g_860+0xfee>
   13a65:	48 89 c7             	mov    %rax,%rdi
   13a68:	e8 86 5c ff ff       	callq  96f3 <transparent_crc>
   13a6d:	48 8b 05 ec 5f 00 00 	mov    0x5fec(%rip),%rax        # 19a60 <g_530>
   13a74:	48 c1 e0 04          	shl    $0x4,%rax
   13a78:	48 c1 f8 24          	sar    $0x24,%rax
   13a7c:	48 98                	cltq   
   13a7e:	8b 55 fc             	mov    -0x4(%rbp),%edx
   13a81:	48 8d 35 ef 25 00 00 	lea    0x25ef(%rip),%rsi        # 16077 <g_860+0xff7>
   13a88:	48 89 c7             	mov    %rax,%rdi
   13a8b:	e8 63 5c ff ff       	callq  96f3 <transparent_crc>
   13a90:	48 8b 05 d1 5f 00 00 	mov    0x5fd1(%rip),%rax        # 19a68 <g_530+0x8>
   13a97:	c1 e0 05             	shl    $0x5,%eax
   13a9a:	c1 f8 05             	sar    $0x5,%eax
   13a9d:	48 98                	cltq   
   13a9f:	8b 55 fc             	mov    -0x4(%rbp),%edx
   13aa2:	48 8d 35 d7 25 00 00 	lea    0x25d7(%rip),%rsi        # 16080 <g_860+0x1000>
   13aa9:	48 89 c7             	mov    %rax,%rdi
   13aac:	e8 42 5c ff ff       	callq  96f3 <transparent_crc>
   13ab1:	48 8b 05 b0 5f 00 00 	mov    0x5fb0(%rip),%rax        # 19a68 <g_530+0x8>
   13ab8:	48 c1 e8 20          	shr    $0x20,%rax
   13abc:	83 e0 3f             	and    $0x3f,%eax
   13abf:	0f b6 c0             	movzbl %al,%eax
   13ac2:	8b 55 fc             	mov    -0x4(%rbp),%edx
   13ac5:	48 8d 35 bd 25 00 00 	lea    0x25bd(%rip),%rsi        # 16089 <g_860+0x1009>
   13acc:	48 89 c7             	mov    %rax,%rdi
   13acf:	e8 1f 5c ff ff       	callq  96f3 <transparent_crc>
   13ad4:	0f b6 05 95 5f 00 00 	movzbl 0x5f95(%rip),%eax        # 19a70 <g_587>
   13adb:	c1 e0 03             	shl    $0x3,%eax
   13ade:	c0 f8 03             	sar    $0x3,%al
   13ae1:	48 0f be c0          	movsbq %al,%rax
   13ae5:	8b 55 fc             	mov    -0x4(%rbp),%edx
   13ae8:	48 8d 35 a3 25 00 00 	lea    0x25a3(%rip),%rsi        # 16092 <g_860+0x1012>
   13aef:	48 89 c7             	mov    %rax,%rdi
   13af2:	e8 fc 5b ff ff       	callq  96f3 <transparent_crc>
   13af7:	0f b7 05 72 5f 00 00 	movzwl 0x5f72(%rip),%eax        # 19a70 <g_587>
   13afe:	66 c1 e8 05          	shr    $0x5,%ax
   13b02:	83 e0 3f             	and    $0x3f,%eax
   13b05:	0f b6 c0             	movzbl %al,%eax
   13b08:	8b 55 fc             	mov    -0x4(%rbp),%edx
   13b0b:	48 8d 35 89 25 00 00 	lea    0x2589(%rip),%rsi        # 1609b <g_860+0x101b>
   13b12:	48 89 c7             	mov    %rax,%rdi
   13b15:	e8 d9 5b ff ff       	callq  96f3 <transparent_crc>
   13b1a:	48 8b 05 4f 5f 00 00 	mov    0x5f4f(%rip),%rax        # 19a70 <g_587>
   13b21:	c1 e0 05             	shl    $0x5,%eax
   13b24:	c1 f8 10             	sar    $0x10,%eax
   13b27:	48 0f bf c0          	movswq %ax,%rax
   13b2b:	8b 55 fc             	mov    -0x4(%rbp),%edx
   13b2e:	48 8d 35 6f 25 00 00 	lea    0x256f(%rip),%rsi        # 160a4 <g_860+0x1024>
   13b35:	48 89 c7             	mov    %rax,%rdi
   13b38:	e8 b6 5b ff ff       	callq  96f3 <transparent_crc>
   13b3d:	8b 05 31 5f 00 00    	mov    0x5f31(%rip),%eax        # 19a74 <g_587+0x4>
   13b43:	c1 e0 04             	shl    $0x4,%eax
   13b46:	c1 f8 04             	sar    $0x4,%eax
   13b49:	48 98                	cltq   
   13b4b:	8b 55 fc             	mov    -0x4(%rbp),%edx
   13b4e:	48 8d 35 58 25 00 00 	lea    0x2558(%rip),%rsi        # 160ad <g_860+0x102d>
   13b55:	48 89 c7             	mov    %rax,%rdi
   13b58:	e8 96 5b ff ff       	callq  96f3 <transparent_crc>
   13b5d:	8b 05 15 5f 00 00    	mov    0x5f15(%rip),%eax        # 19a78 <g_587+0x8>
   13b63:	c1 e0 05             	shl    $0x5,%eax
   13b66:	c1 f8 05             	sar    $0x5,%eax
   13b69:	48 98                	cltq   
   13b6b:	8b 55 fc             	mov    -0x4(%rbp),%edx
   13b6e:	48 8d 35 41 25 00 00 	lea    0x2541(%rip),%rsi        # 160b6 <g_860+0x1036>
   13b75:	48 89 c7             	mov    %rax,%rdi
   13b78:	e8 76 5b ff ff       	callq  96f3 <transparent_crc>
   13b7d:	0f b6 05 f8 5e 00 00 	movzbl 0x5ef8(%rip),%eax        # 19a7c <g_587+0xc>
   13b84:	83 e0 3f             	and    $0x3f,%eax
   13b87:	0f b6 c0             	movzbl %al,%eax
   13b8a:	8b 55 fc             	mov    -0x4(%rbp),%edx
   13b8d:	48 8d 35 2b 25 00 00 	lea    0x252b(%rip),%rsi        # 160bf <g_860+0x103f>
   13b94:	48 89 c7             	mov    %rax,%rdi
   13b97:	e8 57 5b ff ff       	callq  96f3 <transparent_crc>
   13b9c:	0f b7 05 dd 5e 00 00 	movzwl 0x5edd(%rip),%eax        # 19a80 <g_632>
   13ba3:	0f b7 c0             	movzwl %ax,%eax
   13ba6:	8b 55 fc             	mov    -0x4(%rbp),%edx
   13ba9:	48 8d 35 18 25 00 00 	lea    0x2518(%rip),%rsi        # 160c8 <g_860+0x1048>
   13bb0:	48 89 c7             	mov    %rax,%rdi
   13bb3:	e8 3b 5b ff ff       	callq  96f3 <transparent_crc>
   13bb8:	0f b6 05 c3 5e 00 00 	movzbl 0x5ec3(%rip),%eax        # 19a82 <g_635>
   13bbf:	48 0f be c0          	movsbq %al,%rax
   13bc3:	8b 55 fc             	mov    -0x4(%rbp),%edx
   13bc6:	48 8d 35 01 25 00 00 	lea    0x2501(%rip),%rsi        # 160ce <g_860+0x104e>
   13bcd:	48 89 c7             	mov    %rax,%rdi
   13bd0:	e8 1e 5b ff ff       	callq  96f3 <transparent_crc>
   13bd5:	c7 45 f0 00 00 00 00 	movl   $0x0,-0x10(%rbp)
   13bdc:	eb 78                	jmp    13c56 <main+0xbbf>
   13bde:	c7 45 f4 00 00 00 00 	movl   $0x0,-0xc(%rbp)
   13be5:	eb 65                	jmp    13c4c <main+0xbb5>
   13be7:	8b 45 f4             	mov    -0xc(%rbp),%eax
   13bea:	48 63 c8             	movslq %eax,%rcx
   13bed:	8b 45 f0             	mov    -0x10(%rbp),%eax
   13bf0:	48 63 d0             	movslq %eax,%rdx
   13bf3:	48 89 d0             	mov    %rdx,%rax
   13bf6:	48 c1 e0 02          	shl    $0x2,%rax
   13bfa:	48 01 d0             	add    %rdx,%rax
   13bfd:	48 01 c0             	add    %rax,%rax
   13c00:	48 01 c8             	add    %rcx,%rax
   13c03:	48 8d 14 85 00 00 00 	lea    0x0(,%rax,4),%rdx
   13c0a:	00 
   13c0b:	48 8d 05 8e 5e 00 00 	lea    0x5e8e(%rip),%rax        # 19aa0 <g_673>
   13c12:	8b 04 02             	mov    (%rdx,%rax,1),%eax
   13c15:	48 98                	cltq   
   13c17:	8b 55 fc             	mov    -0x4(%rbp),%edx
   13c1a:	48 8d 35 b3 24 00 00 	lea    0x24b3(%rip),%rsi        # 160d4 <g_860+0x1054>
   13c21:	48 89 c7             	mov    %rax,%rdi
   13c24:	e8 ca 5a ff ff       	callq  96f3 <transparent_crc>
   13c29:	83 7d fc 00          	cmpl   $0x0,-0x4(%rbp)
   13c2d:	74 19                	je     13c48 <main+0xbb1>
   13c2f:	8b 55 f4             	mov    -0xc(%rbp),%edx
   13c32:	8b 45 f0             	mov    -0x10(%rbp),%eax
   13c35:	89 c6                	mov    %eax,%esi
   13c37:	48 8d 3d d9 22 00 00 	lea    0x22d9(%rip),%rdi        # 15f17 <g_860+0xe97>
   13c3e:	b8 00 00 00 00       	mov    $0x0,%eax
   13c43:	e8 38 44 ff ff       	callq  8080 <printf@plt>
   13c48:	83 45 f4 01          	addl   $0x1,-0xc(%rbp)
   13c4c:	83 7d f4 09          	cmpl   $0x9,-0xc(%rbp)
   13c50:	7e 95                	jle    13be7 <main+0xb50>
   13c52:	83 45 f0 01          	addl   $0x1,-0x10(%rbp)
   13c56:	83 7d f0 05          	cmpl   $0x5,-0x10(%rbp)
   13c5a:	7e 82                	jle    13bde <main+0xb47>
   13c5c:	c7 45 f0 00 00 00 00 	movl   $0x0,-0x10(%rbp)
   13c63:	eb 74                	jmp    13cd9 <main+0xc42>
   13c65:	c7 45 f4 00 00 00 00 	movl   $0x0,-0xc(%rbp)
   13c6c:	eb 61                	jmp    13ccf <main+0xc38>
   13c6e:	8b 45 f4             	mov    -0xc(%rbp),%eax
   13c71:	48 63 c8             	movslq %eax,%rcx
   13c74:	8b 45 f0             	mov    -0x10(%rbp),%eax
   13c77:	48 63 d0             	movslq %eax,%rdx
   13c7a:	48 89 d0             	mov    %rdx,%rax
   13c7d:	48 c1 e0 03          	shl    $0x3,%rax
   13c81:	48 01 d0             	add    %rdx,%rax
   13c84:	48 01 c8             	add    %rcx,%rax
   13c87:	48 8d 14 00          	lea    (%rax,%rax,1),%rdx
   13c8b:	48 8d 05 0e 5f 00 00 	lea    0x5f0e(%rip),%rax        # 19ba0 <g_675>
   13c92:	0f b7 04 02          	movzwl (%rdx,%rax,1),%eax
   13c96:	48 0f bf c0          	movswq %ax,%rax
   13c9a:	8b 55 fc             	mov    -0x4(%rbp),%edx
   13c9d:	48 8d 35 3c 24 00 00 	lea    0x243c(%rip),%rsi        # 160e0 <g_860+0x1060>
   13ca4:	48 89 c7             	mov    %rax,%rdi
   13ca7:	e8 47 5a ff ff       	callq  96f3 <transparent_crc>
   13cac:	83 7d fc 00          	cmpl   $0x0,-0x4(%rbp)
   13cb0:	74 19                	je     13ccb <main+0xc34>
   13cb2:	8b 55 f4             	mov    -0xc(%rbp),%edx
   13cb5:	8b 45 f0             	mov    -0x10(%rbp),%eax
   13cb8:	89 c6                	mov    %eax,%esi
   13cba:	48 8d 3d 56 22 00 00 	lea    0x2256(%rip),%rdi        # 15f17 <g_860+0xe97>
   13cc1:	b8 00 00 00 00       	mov    $0x0,%eax
   13cc6:	e8 b5 43 ff ff       	callq  8080 <printf@plt>
   13ccb:	83 45 f4 01          	addl   $0x1,-0xc(%rbp)
   13ccf:	83 7d f4 08          	cmpl   $0x8,-0xc(%rbp)
   13cd3:	7e 99                	jle    13c6e <main+0xbd7>
   13cd5:	83 45 f0 01          	addl   $0x1,-0x10(%rbp)
   13cd9:	83 7d f0 04          	cmpl   $0x4,-0x10(%rbp)
   13cdd:	7e 86                	jle    13c65 <main+0xbce>
   13cdf:	8b 05 17 5f 00 00    	mov    0x5f17(%rip),%eax        # 19bfc <g_681>
   13ce5:	89 c1                	mov    %eax,%ecx
   13ce7:	8b 45 fc             	mov    -0x4(%rbp),%eax
   13cea:	89 c2                	mov    %eax,%edx
   13cec:	48 8d 35 f9 23 00 00 	lea    0x23f9(%rip),%rsi        # 160ec <g_860+0x106c>
   13cf3:	48 89 cf             	mov    %rcx,%rdi
   13cf6:	e8 f8 59 ff ff       	callq  96f3 <transparent_crc>
   13cfb:	0f b6 05 fe 5e 00 00 	movzbl 0x5efe(%rip),%eax        # 19c00 <g_683>
   13d02:	48 0f be c0          	movsbq %al,%rax
   13d06:	8b 55 fc             	mov    -0x4(%rbp),%edx
   13d09:	48 8d 35 e2 23 00 00 	lea    0x23e2(%rip),%rsi        # 160f2 <g_860+0x1072>
   13d10:	48 89 c7             	mov    %rax,%rdi
   13d13:	e8 db 59 ff ff       	callq  96f3 <transparent_crc>
   13d18:	48 8b 05 f1 5e 00 00 	mov    0x5ef1(%rip),%rax        # 19c10 <g_742>
   13d1f:	c1 e0 03             	shl    $0x3,%eax
   13d22:	c0 f8 03             	sar    $0x3,%al
   13d25:	48 0f be c0          	movsbq %al,%rax
   13d29:	8b 55 fc             	mov    -0x4(%rbp),%edx
   13d2c:	48 8d 35 c5 23 00 00 	lea    0x23c5(%rip),%rsi        # 160f8 <g_860+0x1078>
   13d33:	48 89 c7             	mov    %rax,%rdi
   13d36:	e8 b8 59 ff ff       	callq  96f3 <transparent_crc>
   13d3b:	48 8b 05 ce 5e 00 00 	mov    0x5ece(%rip),%rax        # 19c10 <g_742>
   13d42:	48 c1 e8 05          	shr    $0x5,%rax
   13d46:	83 e0 3f             	and    $0x3f,%eax
   13d49:	0f b6 c0             	movzbl %al,%eax
   13d4c:	8b 55 fc             	mov    -0x4(%rbp),%edx
   13d4f:	48 8d 35 ab 23 00 00 	lea    0x23ab(%rip),%rsi        # 16101 <g_860+0x1081>
   13d56:	48 89 c7             	mov    %rax,%rdi
   13d59:	e8 95 59 ff ff       	callq  96f3 <transparent_crc>
   13d5e:	48 8b 05 ab 5e 00 00 	mov    0x5eab(%rip),%rax        # 19c10 <g_742>
   13d65:	c1 e0 05             	shl    $0x5,%eax
   13d68:	c1 f8 10             	sar    $0x10,%eax
   13d6b:	48 0f bf c0          	movswq %ax,%rax
   13d6f:	8b 55 fc             	mov    -0x4(%rbp),%edx
   13d72:	48 8d 35 91 23 00 00 	lea    0x2391(%rip),%rsi        # 1610a <g_860+0x108a>
   13d79:	48 89 c7             	mov    %rax,%rdi
   13d7c:	e8 72 59 ff ff       	callq  96f3 <transparent_crc>
   13d81:	48 8b 05 88 5e 00 00 	mov    0x5e88(%rip),%rax        # 19c10 <g_742>
   13d88:	48 c1 e0 04          	shl    $0x4,%rax
   13d8c:	48 c1 f8 24          	sar    $0x24,%rax
   13d90:	48 98                	cltq   
   13d92:	8b 55 fc             	mov    -0x4(%rbp),%edx
   13d95:	48 8d 35 77 23 00 00 	lea    0x2377(%rip),%rsi        # 16113 <g_860+0x1093>
   13d9c:	48 89 c7             	mov    %rax,%rdi
   13d9f:	e8 4f 59 ff ff       	callq  96f3 <transparent_crc>
   13da4:	48 8b 05 6d 5e 00 00 	mov    0x5e6d(%rip),%rax        # 19c18 <g_742+0x8>
   13dab:	c1 e0 05             	shl    $0x5,%eax
   13dae:	c1 f8 05             	sar    $0x5,%eax
   13db1:	48 98                	cltq   
   13db3:	8b 55 fc             	mov    -0x4(%rbp),%edx
   13db6:	48 8d 35 5f 23 00 00 	lea    0x235f(%rip),%rsi        # 1611c <g_860+0x109c>
   13dbd:	48 89 c7             	mov    %rax,%rdi
   13dc0:	e8 2e 59 ff ff       	callq  96f3 <transparent_crc>
   13dc5:	48 8b 05 4c 5e 00 00 	mov    0x5e4c(%rip),%rax        # 19c18 <g_742+0x8>
   13dcc:	48 c1 e8 20          	shr    $0x20,%rax
   13dd0:	83 e0 3f             	and    $0x3f,%eax
   13dd3:	0f b6 c0             	movzbl %al,%eax
   13dd6:	8b 55 fc             	mov    -0x4(%rbp),%edx
   13dd9:	48 8d 35 45 23 00 00 	lea    0x2345(%rip),%rsi        # 16125 <g_860+0x10a5>
   13de0:	48 89 c7             	mov    %rax,%rdi
   13de3:	e8 0b 59 ff ff       	callq  96f3 <transparent_crc>
   13de8:	0f b7 05 31 5e 00 00 	movzwl 0x5e31(%rip),%eax        # 19c20 <g_778>
   13def:	48 0f bf c0          	movswq %ax,%rax
   13df3:	8b 55 fc             	mov    -0x4(%rbp),%edx
   13df6:	48 8d 35 31 23 00 00 	lea    0x2331(%rip),%rsi        # 1612e <g_860+0x10ae>
   13dfd:	48 89 c7             	mov    %rax,%rdi
   13e00:	e8 ee 58 ff ff       	callq  96f3 <transparent_crc>
   13e05:	b8 ba 67 c8 d2       	mov    $0xd2c867ba,%eax
   13e0a:	48 98                	cltq   
   13e0c:	8b 55 fc             	mov    -0x4(%rbp),%edx
   13e0f:	48 8d 35 1e 23 00 00 	lea    0x231e(%rip),%rsi        # 16134 <g_860+0x10b4>
   13e16:	48 89 c7             	mov    %rax,%rdi
   13e19:	e8 d5 58 ff ff       	callq  96f3 <transparent_crc>
   13e1e:	0f b7 05 fd 5d 00 00 	movzwl 0x5dfd(%rip),%eax        # 19c22 <g_889>
   13e25:	48 0f bf c0          	movswq %ax,%rax
   13e29:	8b 55 fc             	mov    -0x4(%rbp),%edx
   13e2c:	48 8d 35 07 23 00 00 	lea    0x2307(%rip),%rsi        # 1613a <g_860+0x10ba>
   13e33:	48 89 c7             	mov    %rax,%rdi
   13e36:	e8 b8 58 ff ff       	callq  96f3 <transparent_crc>
   13e3b:	c7 45 f0 00 00 00 00 	movl   $0x0,-0x10(%rbp)
   13e42:	eb 4a                	jmp    13e8e <main+0xdf7>
   13e44:	8b 45 f0             	mov    -0x10(%rbp),%eax
   13e47:	48 98                	cltq   
   13e49:	48 8d 14 00          	lea    (%rax,%rax,1),%rdx
   13e4d:	48 8d 05 dc 5d 00 00 	lea    0x5ddc(%rip),%rax        # 19c30 <g_958>
   13e54:	0f b7 04 02          	movzwl (%rdx,%rax,1),%eax
   13e58:	48 0f bf c0          	movswq %ax,%rax
   13e5c:	8b 55 fc             	mov    -0x4(%rbp),%edx
   13e5f:	48 8d 35 da 22 00 00 	lea    0x22da(%rip),%rsi        # 16140 <g_860+0x10c0>
   13e66:	48 89 c7             	mov    %rax,%rdi
   13e69:	e8 85 58 ff ff       	callq  96f3 <transparent_crc>
   13e6e:	83 7d fc 00          	cmpl   $0x0,-0x4(%rbp)
   13e72:	74 16                	je     13e8a <main+0xdf3>
   13e74:	8b 45 f0             	mov    -0x10(%rbp),%eax
   13e77:	89 c6                	mov    %eax,%esi
   13e79:	48 8d 3d 6c 20 00 00 	lea    0x206c(%rip),%rdi        # 15eec <g_860+0xe6c>
   13e80:	b8 00 00 00 00       	mov    $0x0,%eax
   13e85:	e8 f6 41 ff ff       	callq  8080 <printf@plt>
   13e8a:	83 45 f0 01          	addl   $0x1,-0x10(%rbp)
   13e8e:	83 7d f0 09          	cmpl   $0x9,-0x10(%rbp)
   13e92:	7e b0                	jle    13e44 <main+0xdad>
   13e94:	8b 05 aa 5d 00 00    	mov    0x5daa(%rip),%eax        # 19c44 <g_975>
   13e9a:	89 c1                	mov    %eax,%ecx
   13e9c:	8b 45 fc             	mov    -0x4(%rbp),%eax
   13e9f:	89 c2                	mov    %eax,%edx
   13ea1:	48 8d 35 a1 22 00 00 	lea    0x22a1(%rip),%rsi        # 16149 <g_860+0x10c9>
   13ea8:	48 89 cf             	mov    %rcx,%rdi
   13eab:	e8 43 58 ff ff       	callq  96f3 <transparent_crc>
   13eb0:	48 8b 05 99 5d 00 00 	mov    0x5d99(%rip),%rax        # 19c50 <g_987>
   13eb7:	c1 e0 03             	shl    $0x3,%eax
   13eba:	c0 f8 03             	sar    $0x3,%al
   13ebd:	48 0f be c0          	movsbq %al,%rax
   13ec1:	8b 55 fc             	mov    -0x4(%rbp),%edx
   13ec4:	48 8d 35 84 22 00 00 	lea    0x2284(%rip),%rsi        # 1614f <g_860+0x10cf>
   13ecb:	48 89 c7             	mov    %rax,%rdi
   13ece:	e8 20 58 ff ff       	callq  96f3 <transparent_crc>
   13ed3:	48 8b 05 76 5d 00 00 	mov    0x5d76(%rip),%rax        # 19c50 <g_987>
   13eda:	48 c1 e8 05          	shr    $0x5,%rax
   13ede:	83 e0 3f             	and    $0x3f,%eax
   13ee1:	0f b6 c0             	movzbl %al,%eax
   13ee4:	8b 55 fc             	mov    -0x4(%rbp),%edx
   13ee7:	48 8d 35 6a 22 00 00 	lea    0x226a(%rip),%rsi        # 16158 <g_860+0x10d8>
   13eee:	48 89 c7             	mov    %rax,%rdi
   13ef1:	e8 fd 57 ff ff       	callq  96f3 <transparent_crc>
   13ef6:	48 8b 05 53 5d 00 00 	mov    0x5d53(%rip),%rax        # 19c50 <g_987>
   13efd:	c1 e0 05             	shl    $0x5,%eax
   13f00:	c1 f8 10             	sar    $0x10,%eax
   13f03:	48 0f bf c0          	movswq %ax,%rax
   13f07:	8b 55 fc             	mov    -0x4(%rbp),%edx
   13f0a:	48 8d 35 50 22 00 00 	lea    0x2250(%rip),%rsi        # 16161 <g_860+0x10e1>
   13f11:	48 89 c7             	mov    %rax,%rdi
   13f14:	e8 da 57 ff ff       	callq  96f3 <transparent_crc>
   13f19:	48 8b 05 30 5d 00 00 	mov    0x5d30(%rip),%rax        # 19c50 <g_987>
   13f20:	48 c1 e0 04          	shl    $0x4,%rax
   13f24:	48 c1 f8 24          	sar    $0x24,%rax
   13f28:	48 98                	cltq   
   13f2a:	8b 55 fc             	mov    -0x4(%rbp),%edx
   13f2d:	48 8d 35 36 22 00 00 	lea    0x2236(%rip),%rsi        # 1616a <g_860+0x10ea>
   13f34:	48 89 c7             	mov    %rax,%rdi
   13f37:	e8 b7 57 ff ff       	callq  96f3 <transparent_crc>
   13f3c:	48 8b 05 15 5d 00 00 	mov    0x5d15(%rip),%rax        # 19c58 <g_987+0x8>
   13f43:	c1 e0 05             	shl    $0x5,%eax
   13f46:	c1 f8 05             	sar    $0x5,%eax
   13f49:	48 98                	cltq   
   13f4b:	8b 55 fc             	mov    -0x4(%rbp),%edx
   13f4e:	48 8d 35 1e 22 00 00 	lea    0x221e(%rip),%rsi        # 16173 <g_860+0x10f3>
   13f55:	48 89 c7             	mov    %rax,%rdi
   13f58:	e8 96 57 ff ff       	callq  96f3 <transparent_crc>
   13f5d:	48 8b 05 f4 5c 00 00 	mov    0x5cf4(%rip),%rax        # 19c58 <g_987+0x8>
   13f64:	48 c1 e8 20          	shr    $0x20,%rax
   13f68:	83 e0 3f             	and    $0x3f,%eax
   13f6b:	0f b6 c0             	movzbl %al,%eax
   13f6e:	8b 55 fc             	mov    -0x4(%rbp),%edx
   13f71:	48 8d 35 04 22 00 00 	lea    0x2204(%rip),%rsi        # 1617c <g_860+0x10fc>
   13f78:	48 89 c7             	mov    %rax,%rdi
   13f7b:	e8 73 57 ff ff       	callq  96f3 <transparent_crc>
   13f80:	0f b6 05 d9 5c 00 00 	movzbl 0x5cd9(%rip),%eax        # 19c60 <g_1033>
   13f87:	0f b6 15 d3 5c 00 00 	movzbl 0x5cd3(%rip),%edx        # 19c61 <g_1033+0x1>
   13f8e:	48 c1 e2 08          	shl    $0x8,%rdx
   13f92:	48 09 c2             	or     %rax,%rdx
   13f95:	0f b6 05 c6 5c 00 00 	movzbl 0x5cc6(%rip),%eax        # 19c62 <g_1033+0x2>
   13f9c:	83 e0 07             	and    $0x7,%eax
   13f9f:	48 c1 e0 10          	shl    $0x10,%rax
   13fa3:	48 09 d0             	or     %rdx,%rax
   13fa6:	48 c1 e0 2d          	shl    $0x2d,%rax
   13faa:	48 c1 f8 2d          	sar    $0x2d,%rax
   13fae:	48 98                	cltq   
   13fb0:	8b 55 fc             	mov    -0x4(%rbp),%edx
   13fb3:	48 8d 35 cb 21 00 00 	lea    0x21cb(%rip),%rsi        # 16185 <g_860+0x1105>
   13fba:	48 89 c7             	mov    %rax,%rdi
   13fbd:	e8 31 57 ff ff       	callq  96f3 <transparent_crc>
   13fc2:	0f b6 05 99 5c 00 00 	movzbl 0x5c99(%rip),%eax        # 19c62 <g_1033+0x2>
   13fc9:	c0 e8 03             	shr    $0x3,%al
   13fcc:	0f b6 c0             	movzbl %al,%eax
   13fcf:	0f b6 15 8d 5c 00 00 	movzbl 0x5c8d(%rip),%edx        # 19c63 <g_1033+0x3>
   13fd6:	48 c1 e2 05          	shl    $0x5,%rdx
   13fda:	48 09 c2             	or     %rax,%rdx
   13fdd:	0f b6 05 80 5c 00 00 	movzbl 0x5c80(%rip),%eax        # 19c64 <g_1033+0x4>
   13fe4:	48 c1 e0 0d          	shl    $0xd,%rax
   13fe8:	48 09 c2             	or     %rax,%rdx
   13feb:	0f b6 05 73 5c 00 00 	movzbl 0x5c73(%rip),%eax        # 19c65 <g_1033+0x5>
   13ff2:	83 e0 07             	and    $0x7,%eax
   13ff5:	48 c1 e0 15          	shl    $0x15,%rax
   13ff9:	48 09 d0             	or     %rdx,%rax
   13ffc:	89 c1                	mov    %eax,%ecx
   13ffe:	8b 45 fc             	mov    -0x4(%rbp),%eax
   14001:	89 c2                	mov    %eax,%edx
   14003:	48 8d 35 85 21 00 00 	lea    0x2185(%rip),%rsi        # 1618f <g_860+0x110f>
   1400a:	48 89 cf             	mov    %rcx,%rdi
   1400d:	e8 e1 56 ff ff       	callq  96f3 <transparent_crc>
   14012:	48 8b 05 57 5c 00 00 	mov    0x5c57(%rip),%rax        # 19c70 <g_1037>
   14019:	c1 e0 03             	shl    $0x3,%eax
   1401c:	c0 f8 03             	sar    $0x3,%al
   1401f:	48 0f be c0          	movsbq %al,%rax
   14023:	8b 55 fc             	mov    -0x4(%rbp),%edx
   14026:	48 8d 35 6c 21 00 00 	lea    0x216c(%rip),%rsi        # 16199 <g_860+0x1119>
   1402d:	48 89 c7             	mov    %rax,%rdi
   14030:	e8 be 56 ff ff       	callq  96f3 <transparent_crc>
   14035:	48 8b 05 34 5c 00 00 	mov    0x5c34(%rip),%rax        # 19c70 <g_1037>
   1403c:	48 c1 e8 05          	shr    $0x5,%rax
   14040:	83 e0 3f             	and    $0x3f,%eax
   14043:	0f b6 c0             	movzbl %al,%eax
   14046:	8b 55 fc             	mov    -0x4(%rbp),%edx
   14049:	48 8d 35 53 21 00 00 	lea    0x2153(%rip),%rsi        # 161a3 <g_860+0x1123>
   14050:	48 89 c7             	mov    %rax,%rdi
   14053:	e8 9b 56 ff ff       	callq  96f3 <transparent_crc>
   14058:	48 8b 05 11 5c 00 00 	mov    0x5c11(%rip),%rax        # 19c70 <g_1037>
   1405f:	c1 e0 05             	shl    $0x5,%eax
   14062:	c1 f8 10             	sar    $0x10,%eax
   14065:	48 0f bf c0          	movswq %ax,%rax
   14069:	8b 55 fc             	mov    -0x4(%rbp),%edx
   1406c:	48 8d 35 3a 21 00 00 	lea    0x213a(%rip),%rsi        # 161ad <g_860+0x112d>
   14073:	48 89 c7             	mov    %rax,%rdi
   14076:	e8 78 56 ff ff       	callq  96f3 <transparent_crc>
   1407b:	48 8b 05 ee 5b 00 00 	mov    0x5bee(%rip),%rax        # 19c70 <g_1037>
   14082:	48 c1 e0 04          	shl    $0x4,%rax
   14086:	48 c1 f8 24          	sar    $0x24,%rax
   1408a:	48 98                	cltq   
   1408c:	8b 55 fc             	mov    -0x4(%rbp),%edx
   1408f:	48 8d 35 21 21 00 00 	lea    0x2121(%rip),%rsi        # 161b7 <g_860+0x1137>
   14096:	48 89 c7             	mov    %rax,%rdi
   14099:	e8 55 56 ff ff       	callq  96f3 <transparent_crc>
   1409e:	48 8b 05 d3 5b 00 00 	mov    0x5bd3(%rip),%rax        # 19c78 <g_1037+0x8>
   140a5:	c1 e0 05             	shl    $0x5,%eax
   140a8:	c1 f8 05             	sar    $0x5,%eax
   140ab:	48 98                	cltq   
   140ad:	8b 55 fc             	mov    -0x4(%rbp),%edx
   140b0:	48 8d 35 0a 21 00 00 	lea    0x210a(%rip),%rsi        # 161c1 <g_860+0x1141>
   140b7:	48 89 c7             	mov    %rax,%rdi
   140ba:	e8 34 56 ff ff       	callq  96f3 <transparent_crc>
   140bf:	48 8b 05 b2 5b 00 00 	mov    0x5bb2(%rip),%rax        # 19c78 <g_1037+0x8>
   140c6:	48 c1 e8 20          	shr    $0x20,%rax
   140ca:	83 e0 3f             	and    $0x3f,%eax
   140cd:	0f b6 c0             	movzbl %al,%eax
   140d0:	8b 55 fc             	mov    -0x4(%rbp),%edx
   140d3:	48 8d 35 f1 20 00 00 	lea    0x20f1(%rip),%rsi        # 161cb <g_860+0x114b>
   140da:	48 89 c7             	mov    %rax,%rdi
   140dd:	e8 11 56 ff ff       	callq  96f3 <transparent_crc>
   140e2:	c7 45 f0 00 00 00 00 	movl   $0x0,-0x10(%rbp)
   140e9:	e9 f9 01 00 00       	jmpq   142e7 <main+0x1250>
   140ee:	c7 45 f4 00 00 00 00 	movl   $0x0,-0xc(%rbp)
   140f5:	e9 df 01 00 00       	jmpq   142d9 <main+0x1242>
   140fa:	8b 45 f4             	mov    -0xc(%rbp),%eax
   140fd:	48 63 c8             	movslq %eax,%rcx
   14100:	8b 45 f0             	mov    -0x10(%rbp),%eax
   14103:	48 63 d0             	movslq %eax,%rdx
   14106:	48 89 d0             	mov    %rdx,%rax
   14109:	48 c1 e0 02          	shl    $0x2,%rax
   1410d:	48 01 d0             	add    %rdx,%rax
   14110:	48 01 c0             	add    %rax,%rax
   14113:	48 01 c8             	add    %rcx,%rax
   14116:	48 c1 e0 04          	shl    $0x4,%rax
   1411a:	48 89 c2             	mov    %rax,%rdx
   1411d:	48 8d 05 5c 5b 00 00 	lea    0x5b5c(%rip),%rax        # 19c80 <g_1081>
   14124:	48 8b 04 02          	mov    (%rdx,%rax,1),%rax
   14128:	c1 e0 03             	shl    $0x3,%eax
   1412b:	c0 f8 03             	sar    $0x3,%al
   1412e:	48 0f be c0          	movsbq %al,%rax
   14132:	8b 55 fc             	mov    -0x4(%rbp),%edx
   14135:	48 8d 35 99 20 00 00 	lea    0x2099(%rip),%rsi        # 161d5 <g_860+0x1155>
   1413c:	48 89 c7             	mov    %rax,%rdi
   1413f:	e8 af 55 ff ff       	callq  96f3 <transparent_crc>
   14144:	8b 45 f4             	mov    -0xc(%rbp),%eax
   14147:	48 63 c8             	movslq %eax,%rcx
   1414a:	8b 45 f0             	mov    -0x10(%rbp),%eax
   1414d:	48 63 d0             	movslq %eax,%rdx
   14150:	48 89 d0             	mov    %rdx,%rax
   14153:	48 c1 e0 02          	shl    $0x2,%rax
   14157:	48 01 d0             	add    %rdx,%rax
   1415a:	48 01 c0             	add    %rax,%rax
   1415d:	48 01 c8             	add    %rcx,%rax
   14160:	48 c1 e0 04          	shl    $0x4,%rax
   14164:	48 89 c2             	mov    %rax,%rdx
   14167:	48 8d 05 12 5b 00 00 	lea    0x5b12(%rip),%rax        # 19c80 <g_1081>
   1416e:	48 8b 04 02          	mov    (%rdx,%rax,1),%rax
   14172:	48 c1 e8 05          	shr    $0x5,%rax
   14176:	83 e0 3f             	and    $0x3f,%eax
   14179:	0f b6 c0             	movzbl %al,%eax
   1417c:	8b 55 fc             	mov    -0x4(%rbp),%edx
   1417f:	48 8d 35 5f 20 00 00 	lea    0x205f(%rip),%rsi        # 161e5 <g_860+0x1165>
   14186:	48 89 c7             	mov    %rax,%rdi
   14189:	e8 65 55 ff ff       	callq  96f3 <transparent_crc>
   1418e:	8b 45 f4             	mov    -0xc(%rbp),%eax
   14191:	48 63 c8             	movslq %eax,%rcx
   14194:	8b 45 f0             	mov    -0x10(%rbp),%eax
   14197:	48 63 d0             	movslq %eax,%rdx
   1419a:	48 89 d0             	mov    %rdx,%rax
   1419d:	48 c1 e0 02          	shl    $0x2,%rax
   141a1:	48 01 d0             	add    %rdx,%rax
   141a4:	48 01 c0             	add    %rax,%rax
   141a7:	48 01 c8             	add    %rcx,%rax
   141aa:	48 c1 e0 04          	shl    $0x4,%rax
   141ae:	48 89 c2             	mov    %rax,%rdx
   141b1:	48 8d 05 c8 5a 00 00 	lea    0x5ac8(%rip),%rax        # 19c80 <g_1081>
   141b8:	48 8b 04 02          	mov    (%rdx,%rax,1),%rax
   141bc:	c1 e0 05             	shl    $0x5,%eax
   141bf:	c1 f8 10             	sar    $0x10,%eax
   141c2:	48 0f bf c0          	movswq %ax,%rax
   141c6:	8b 55 fc             	mov    -0x4(%rbp),%edx
   141c9:	48 8d 35 25 20 00 00 	lea    0x2025(%rip),%rsi        # 161f5 <g_860+0x1175>
   141d0:	48 89 c7             	mov    %rax,%rdi
   141d3:	e8 1b 55 ff ff       	callq  96f3 <transparent_crc>
   141d8:	8b 45 f4             	mov    -0xc(%rbp),%eax
   141db:	48 63 c8             	movslq %eax,%rcx
   141de:	8b 45 f0             	mov    -0x10(%rbp),%eax
   141e1:	48 63 d0             	movslq %eax,%rdx
   141e4:	48 89 d0             	mov    %rdx,%rax
   141e7:	48 c1 e0 02          	shl    $0x2,%rax
   141eb:	48 01 d0             	add    %rdx,%rax
   141ee:	48 01 c0             	add    %rax,%rax
   141f1:	48 01 c8             	add    %rcx,%rax
   141f4:	48 c1 e0 04          	shl    $0x4,%rax
   141f8:	48 89 c2             	mov    %rax,%rdx
   141fb:	48 8d 05 7e 5a 00 00 	lea    0x5a7e(%rip),%rax        # 19c80 <g_1081>
   14202:	48 8b 04 02          	mov    (%rdx,%rax,1),%rax
   14206:	48 c1 e0 04          	shl    $0x4,%rax
   1420a:	48 c1 f8 24          	sar    $0x24,%rax
   1420e:	48 98                	cltq   
   14210:	8b 55 fc             	mov    -0x4(%rbp),%edx
   14213:	48 8d 35 eb 1f 00 00 	lea    0x1feb(%rip),%rsi        # 16205 <g_860+0x1185>
   1421a:	48 89 c7             	mov    %rax,%rdi
   1421d:	e8 d1 54 ff ff       	callq  96f3 <transparent_crc>
   14222:	8b 45 f4             	mov    -0xc(%rbp),%eax
   14225:	48 63 c8             	movslq %eax,%rcx
   14228:	8b 45 f0             	mov    -0x10(%rbp),%eax
   1422b:	48 63 d0             	movslq %eax,%rdx
   1422e:	48 89 d0             	mov    %rdx,%rax
   14231:	48 c1 e0 02          	shl    $0x2,%rax
   14235:	48 01 d0             	add    %rdx,%rax
   14238:	48 01 c0             	add    %rax,%rax
   1423b:	48 01 c8             	add    %rcx,%rax
   1423e:	48 c1 e0 04          	shl    $0x4,%rax
   14242:	48 89 c2             	mov    %rax,%rdx
   14245:	48 8d 05 34 5a 00 00 	lea    0x5a34(%rip),%rax        # 19c80 <g_1081>
   1424c:	48 8b 44 02 08       	mov    0x8(%rdx,%rax,1),%rax
   14251:	c1 e0 05             	shl    $0x5,%eax
   14254:	c1 f8 05             	sar    $0x5,%eax
   14257:	48 98                	cltq   
   14259:	8b 55 fc             	mov    -0x4(%rbp),%edx
   1425c:	48 8d 35 b2 1f 00 00 	lea    0x1fb2(%rip),%rsi        # 16215 <g_860+0x1195>
   14263:	48 89 c7             	mov    %rax,%rdi
   14266:	e8 88 54 ff ff       	callq  96f3 <transparent_crc>
   1426b:	8b 45 f4             	mov    -0xc(%rbp),%eax
   1426e:	48 63 c8             	movslq %eax,%rcx
   14271:	8b 45 f0             	mov    -0x10(%rbp),%eax
   14274:	48 63 d0             	movslq %eax,%rdx
   14277:	48 89 d0             	mov    %rdx,%rax
   1427a:	48 c1 e0 02          	shl    $0x2,%rax
   1427e:	48 01 d0             	add    %rdx,%rax
   14281:	48 01 c0             	add    %rax,%rax
   14284:	48 01 c8             	add    %rcx,%rax
   14287:	48 c1 e0 04          	shl    $0x4,%rax
   1428b:	48 89 c2             	mov    %rax,%rdx
   1428e:	48 8d 05 eb 59 00 00 	lea    0x59eb(%rip),%rax        # 19c80 <g_1081>
   14295:	48 8b 44 02 08       	mov    0x8(%rdx,%rax,1),%rax
   1429a:	48 c1 e8 20          	shr    $0x20,%rax
   1429e:	83 e0 3f             	and    $0x3f,%eax
   142a1:	0f b6 c0             	movzbl %al,%eax
   142a4:	8b 55 fc             	mov    -0x4(%rbp),%edx
   142a7:	48 8d 35 77 1f 00 00 	lea    0x1f77(%rip),%rsi        # 16225 <g_860+0x11a5>
   142ae:	48 89 c7             	mov    %rax,%rdi
   142b1:	e8 3d 54 ff ff       	callq  96f3 <transparent_crc>
   142b6:	83 7d fc 00          	cmpl   $0x0,-0x4(%rbp)
   142ba:	74 19                	je     142d5 <main+0x123e>
   142bc:	8b 55 f4             	mov    -0xc(%rbp),%edx
   142bf:	8b 45 f0             	mov    -0x10(%rbp),%eax
   142c2:	89 c6                	mov    %eax,%esi
   142c4:	48 8d 3d 4c 1c 00 00 	lea    0x1c4c(%rip),%rdi        # 15f17 <g_860+0xe97>
   142cb:	b8 00 00 00 00       	mov    $0x0,%eax
   142d0:	e8 ab 3d ff ff       	callq  8080 <printf@plt>
   142d5:	83 45 f4 01          	addl   $0x1,-0xc(%rbp)
   142d9:	83 7d f4 09          	cmpl   $0x9,-0xc(%rbp)
   142dd:	0f 8e 17 fe ff ff    	jle    140fa <main+0x1063>
   142e3:	83 45 f0 01          	addl   $0x1,-0x10(%rbp)
   142e7:	83 7d f0 04          	cmpl   $0x4,-0x10(%rbp)
   142eb:	0f 8e fd fd ff ff    	jle    140ee <main+0x1057>
   142f1:	8b 05 a9 5c 00 00    	mov    0x5ca9(%rip),%eax        # 19fa0 <g_1216>
   142f7:	48 98                	cltq   
   142f9:	8b 55 fc             	mov    -0x4(%rbp),%edx
   142fc:	48 8d 35 32 1f 00 00 	lea    0x1f32(%rip),%rsi        # 16235 <g_860+0x11b5>
   14303:	48 89 c7             	mov    %rax,%rdi
   14306:	e8 e8 53 ff ff       	callq  96f3 <transparent_crc>
   1430b:	48 8b 05 9e 5c 00 00 	mov    0x5c9e(%rip),%rax        # 19fb0 <g_1221>
   14312:	c1 e0 03             	shl    $0x3,%eax
   14315:	c0 f8 03             	sar    $0x3,%al
   14318:	48 0f be c0          	movsbq %al,%rax
   1431c:	8b 55 fc             	mov    -0x4(%rbp),%edx
   1431f:	48 8d 35 16 1f 00 00 	lea    0x1f16(%rip),%rsi        # 1623c <g_860+0x11bc>
   14326:	48 89 c7             	mov    %rax,%rdi
   14329:	e8 c5 53 ff ff       	callq  96f3 <transparent_crc>
   1432e:	48 8b 05 7b 5c 00 00 	mov    0x5c7b(%rip),%rax        # 19fb0 <g_1221>
   14335:	48 c1 e8 05          	shr    $0x5,%rax
   14339:	83 e0 3f             	and    $0x3f,%eax
   1433c:	0f b6 c0             	movzbl %al,%eax
   1433f:	8b 55 fc             	mov    -0x4(%rbp),%edx
   14342:	48 8d 35 fd 1e 00 00 	lea    0x1efd(%rip),%rsi        # 16246 <g_860+0x11c6>
   14349:	48 89 c7             	mov    %rax,%rdi
   1434c:	e8 a2 53 ff ff       	callq  96f3 <transparent_crc>
   14351:	48 8b 05 58 5c 00 00 	mov    0x5c58(%rip),%rax        # 19fb0 <g_1221>
   14358:	c1 e0 05             	shl    $0x5,%eax
   1435b:	c1 f8 10             	sar    $0x10,%eax
   1435e:	48 0f bf c0          	movswq %ax,%rax
   14362:	8b 55 fc             	mov    -0x4(%rbp),%edx
   14365:	48 8d 35 e4 1e 00 00 	lea    0x1ee4(%rip),%rsi        # 16250 <g_860+0x11d0>
   1436c:	48 89 c7             	mov    %rax,%rdi
   1436f:	e8 7f 53 ff ff       	callq  96f3 <transparent_crc>
   14374:	48 8b 05 35 5c 00 00 	mov    0x5c35(%rip),%rax        # 19fb0 <g_1221>
   1437b:	48 c1 e0 04          	shl    $0x4,%rax
   1437f:	48 c1 f8 24          	sar    $0x24,%rax
   14383:	48 98                	cltq   
   14385:	8b 55 fc             	mov    -0x4(%rbp),%edx
   14388:	48 8d 35 cb 1e 00 00 	lea    0x1ecb(%rip),%rsi        # 1625a <g_860+0x11da>
   1438f:	48 89 c7             	mov    %rax,%rdi
   14392:	e8 5c 53 ff ff       	callq  96f3 <transparent_crc>
   14397:	48 8b 05 1a 5c 00 00 	mov    0x5c1a(%rip),%rax        # 19fb8 <g_1221+0x8>
   1439e:	c1 e0 05             	shl    $0x5,%eax
   143a1:	c1 f8 05             	sar    $0x5,%eax
   143a4:	48 98                	cltq   
   143a6:	8b 55 fc             	mov    -0x4(%rbp),%edx
   143a9:	48 8d 35 b4 1e 00 00 	lea    0x1eb4(%rip),%rsi        # 16264 <g_860+0x11e4>
   143b0:	48 89 c7             	mov    %rax,%rdi
   143b3:	e8 3b 53 ff ff       	callq  96f3 <transparent_crc>
   143b8:	48 8b 05 f9 5b 00 00 	mov    0x5bf9(%rip),%rax        # 19fb8 <g_1221+0x8>
   143bf:	48 c1 e8 20          	shr    $0x20,%rax
   143c3:	83 e0 3f             	and    $0x3f,%eax
   143c6:	0f b6 c0             	movzbl %al,%eax
   143c9:	8b 55 fc             	mov    -0x4(%rbp),%edx
   143cc:	48 8d 35 9b 1e 00 00 	lea    0x1e9b(%rip),%rsi        # 1626e <g_860+0x11ee>
   143d3:	48 89 c7             	mov    %rax,%rdi
   143d6:	e8 18 53 ff ff       	callq  96f3 <transparent_crc>
   143db:	0f b6 05 de 5b 00 00 	movzbl 0x5bde(%rip),%eax        # 19fc0 <g_1226>
   143e2:	c1 e0 03             	shl    $0x3,%eax
   143e5:	c0 f8 03             	sar    $0x3,%al
   143e8:	48 0f be c0          	movsbq %al,%rax
   143ec:	8b 55 fc             	mov    -0x4(%rbp),%edx
   143ef:	48 8d 35 82 1e 00 00 	lea    0x1e82(%rip),%rsi        # 16278 <g_860+0x11f8>
   143f6:	48 89 c7             	mov    %rax,%rdi
   143f9:	e8 f5 52 ff ff       	callq  96f3 <transparent_crc>
   143fe:	0f b7 05 bb 5b 00 00 	movzwl 0x5bbb(%rip),%eax        # 19fc0 <g_1226>
   14405:	66 c1 e8 05          	shr    $0x5,%ax
   14409:	83 e0 3f             	and    $0x3f,%eax
   1440c:	0f b6 c0             	movzbl %al,%eax
   1440f:	8b 55 fc             	mov    -0x4(%rbp),%edx
   14412:	48 8d 35 69 1e 00 00 	lea    0x1e69(%rip),%rsi        # 16282 <g_860+0x1202>
   14419:	48 89 c7             	mov    %rax,%rdi
   1441c:	e8 d2 52 ff ff       	callq  96f3 <transparent_crc>
   14421:	48 8b 05 98 5b 00 00 	mov    0x5b98(%rip),%rax        # 19fc0 <g_1226>
   14428:	c1 e0 05             	shl    $0x5,%eax
   1442b:	c1 f8 10             	sar    $0x10,%eax
   1442e:	48 0f bf c0          	movswq %ax,%rax
   14432:	8b 55 fc             	mov    -0x4(%rbp),%edx
   14435:	48 8d 35 50 1e 00 00 	lea    0x1e50(%rip),%rsi        # 1628c <g_860+0x120c>
   1443c:	48 89 c7             	mov    %rax,%rdi
   1443f:	e8 af 52 ff ff       	callq  96f3 <transparent_crc>
   14444:	8b 05 7a 5b 00 00    	mov    0x5b7a(%rip),%eax        # 19fc4 <g_1226+0x4>
   1444a:	c1 e0 04             	shl    $0x4,%eax
   1444d:	c1 f8 04             	sar    $0x4,%eax
   14450:	48 98                	cltq   
   14452:	8b 55 fc             	mov    -0x4(%rbp),%edx
   14455:	48 8d 35 3a 1e 00 00 	lea    0x1e3a(%rip),%rsi        # 16296 <g_860+0x1216>
   1445c:	48 89 c7             	mov    %rax,%rdi
   1445f:	e8 8f 52 ff ff       	callq  96f3 <transparent_crc>
   14464:	8b 05 5e 5b 00 00    	mov    0x5b5e(%rip),%eax        # 19fc8 <g_1226+0x8>
   1446a:	c1 e0 05             	shl    $0x5,%eax
   1446d:	c1 f8 05             	sar    $0x5,%eax
   14470:	48 98                	cltq   
   14472:	8b 55 fc             	mov    -0x4(%rbp),%edx
   14475:	48 8d 35 24 1e 00 00 	lea    0x1e24(%rip),%rsi        # 162a0 <g_860+0x1220>
   1447c:	48 89 c7             	mov    %rax,%rdi
   1447f:	e8 6f 52 ff ff       	callq  96f3 <transparent_crc>
   14484:	0f b6 05 41 5b 00 00 	movzbl 0x5b41(%rip),%eax        # 19fcc <g_1226+0xc>
   1448b:	83 e0 3f             	and    $0x3f,%eax
   1448e:	0f b6 c0             	movzbl %al,%eax
   14491:	8b 55 fc             	mov    -0x4(%rbp),%edx
   14494:	48 8d 35 0f 1e 00 00 	lea    0x1e0f(%rip),%rsi        # 162aa <g_860+0x122a>
   1449b:	48 89 c7             	mov    %rax,%rdi
   1449e:	e8 50 52 ff ff       	callq  96f3 <transparent_crc>
   144a3:	0f b6 05 26 5b 00 00 	movzbl 0x5b26(%rip),%eax        # 19fd0 <g_1285>
   144aa:	48 0f be c0          	movsbq %al,%rax
   144ae:	8b 55 fc             	mov    -0x4(%rbp),%edx
   144b1:	48 8d 35 fc 1d 00 00 	lea    0x1dfc(%rip),%rsi        # 162b4 <g_860+0x1234>
   144b8:	48 89 c7             	mov    %rax,%rdi
   144bb:	e8 33 52 ff ff       	callq  96f3 <transparent_crc>
   144c0:	8b 05 5a 4b 00 00    	mov    0x4b5a(%rip),%eax        # 19020 <crc32_context>
   144c6:	f7 d0                	not    %eax
   144c8:	89 c2                	mov    %eax,%edx
   144ca:	8b 45 fc             	mov    -0x4(%rbp),%eax
   144cd:	89 c6                	mov    %eax,%esi
   144cf:	89 d7                	mov    %edx,%edi
   144d1:	e8 be 3c ff ff       	callq  8194 <platform_main_end>
   144d6:	b8 00 00 00 00       	mov    $0x0,%eax
   144db:	c9                   	leaveq 
   144dc:	c3                   	retq   
   144dd:	0f 1f 00             	nopl   (%rax)

00000000000144e0 <__libc_csu_init>:
   144e0:	f3 0f 1e fa          	endbr64 
   144e4:	41 57                	push   %r15
   144e6:	4c 8d 3d b3 48 00 00 	lea    0x48b3(%rip),%r15        # 18da0 <__frame_dummy_init_array_entry>
   144ed:	41 56                	push   %r14
   144ef:	49 89 d6             	mov    %rdx,%r14
   144f2:	41 55                	push   %r13
   144f4:	49 89 f5             	mov    %rsi,%r13
   144f7:	41 54                	push   %r12
   144f9:	41 89 fc             	mov    %edi,%r12d
   144fc:	55                   	push   %rbp
   144fd:	48 8d 2d a4 48 00 00 	lea    0x48a4(%rip),%rbp        # 18da8 <__do_global_dtors_aux_fini_array_entry>
   14504:	53                   	push   %rbx
   14505:	4c 29 fd             	sub    %r15,%rbp
   14508:	48 83 ec 08          	sub    $0x8,%rsp
   1450c:	e8 ef 3a ff ff       	callq  8000 <_init>
   14511:	48 c1 fd 03          	sar    $0x3,%rbp
   14515:	74 1f                	je     14536 <__libc_csu_init+0x56>
   14517:	31 db                	xor    %ebx,%ebx
   14519:	0f 1f 80 00 00 00 00 	nopl   0x0(%rax)
   14520:	4c 89 f2             	mov    %r14,%rdx
   14523:	4c 89 ee             	mov    %r13,%rsi
   14526:	44 89 e7             	mov    %r12d,%edi
   14529:	41 ff 14 df          	callq  *(%r15,%rbx,8)
   1452d:	48 83 c3 01          	add    $0x1,%rbx
   14531:	48 39 dd             	cmp    %rbx,%rbp
   14534:	75 ea                	jne    14520 <__libc_csu_init+0x40>
   14536:	48 83 c4 08          	add    $0x8,%rsp
   1453a:	5b                   	pop    %rbx
   1453b:	5d                   	pop    %rbp
   1453c:	41 5c                	pop    %r12
   1453e:	41 5d                	pop    %r13
   14540:	41 5e                	pop    %r14
   14542:	41 5f                	pop    %r15
   14544:	c3                   	retq   
   14545:	66 66 2e 0f 1f 84 00 	data16 nopw %cs:0x0(%rax,%rax,1)
   1454c:	00 00 00 00 

0000000000014550 <__libc_csu_fini>:
   14550:	f3 0f 1e fa          	endbr64 
   14554:	c3                   	retq   
