


Disassembly of section .text:

00000000000080a0 <_start>:
    80a0:	f3 0f 1e fa          	endbr64 
    80a4:	31 ed                	xor    %ebp,%ebp
    80a6:	49 89 d1             	mov    %rdx,%r9
    80a9:	5e                   	pop    %rsi
    80aa:	48 89 e2             	mov    %rsp,%rdx
    80ad:	48 83 e4 f0          	and    $0xfffffffffffffff0,%rsp
    80b1:	50                   	push   %rax
    80b2:	54                   	push   %rsp
    80b3:	4c 8d 05 e6 f7 00 00 	lea    0xf7e6(%rip),%r8        # 178a0 <__libc_csu_fini>
    80ba:	48 8d 0d 6f f7 00 00 	lea    0xf76f(%rip),%rcx        # 17830 <__libc_csu_init>
    80c1:	48 8d 3d a3 d7 00 00 	lea    0xd7a3(%rip),%rdi        # 1586b <main>
    80c8:	ff 15 12 4f 01 00    	callq  *0x14f12(%rip)        # 1cfe0 <__libc_start_main@GLIBC_2.2.5>
    80ce:	f4                   	hlt    
    80cf:	90                   	nop

00000000000080d0 <deregister_tm_clones>:
    80d0:	48 8d 3d 49 93 01 00 	lea    0x19349(%rip),%rdi        # 21420 <__TMC_END__>
    80d7:	48 8d 05 42 93 01 00 	lea    0x19342(%rip),%rax        # 21420 <__TMC_END__>
    80de:	48 39 f8             	cmp    %rdi,%rax
    80e1:	74 15                	je     80f8 <deregister_tm_clones+0x28>
    80e3:	48 8b 05 ee 4e 01 00 	mov    0x14eee(%rip),%rax        # 1cfd8 <_ITM_deregisterTMCloneTable>
    80ea:	48 85 c0             	test   %rax,%rax
    80ed:	74 09                	je     80f8 <deregister_tm_clones+0x28>
    80ef:	ff e0                	jmpq   *%rax
    80f1:	0f 1f 80 00 00 00 00 	nopl   0x0(%rax)
    80f8:	c3                   	retq   
    80f9:	0f 1f 80 00 00 00 00 	nopl   0x0(%rax)

0000000000008100 <register_tm_clones>:
    8100:	48 8d 3d 19 93 01 00 	lea    0x19319(%rip),%rdi        # 21420 <__TMC_END__>
    8107:	48 8d 35 12 93 01 00 	lea    0x19312(%rip),%rsi        # 21420 <__TMC_END__>
    810e:	48 29 fe             	sub    %rdi,%rsi
    8111:	48 89 f0             	mov    %rsi,%rax
    8114:	48 c1 ee 3f          	shr    $0x3f,%rsi
    8118:	48 c1 f8 03          	sar    $0x3,%rax
    811c:	48 01 c6             	add    %rax,%rsi
    811f:	48 d1 fe             	sar    %rsi
    8122:	74 14                	je     8138 <register_tm_clones+0x38>
    8124:	48 8b 05 c5 4e 01 00 	mov    0x14ec5(%rip),%rax        # 1cff0 <_ITM_registerTMCloneTable>
    812b:	48 85 c0             	test   %rax,%rax
    812e:	74 08                	je     8138 <register_tm_clones+0x38>
    8130:	ff e0                	jmpq   *%rax
    8132:	66 0f 1f 44 00 00    	nopw   0x0(%rax,%rax,1)
    8138:	c3                   	retq   
    8139:	0f 1f 80 00 00 00 00 	nopl   0x0(%rax)

0000000000008140 <__do_global_dtors_aux>:
    8140:	f3 0f 1e fa          	endbr64 
    8144:	80 3d d5 92 01 00 00 	cmpb   $0x0,0x192d5(%rip)        # 21420 <__TMC_END__>
    814b:	75 2b                	jne    8178 <__do_global_dtors_aux+0x38>
    814d:	55                   	push   %rbp
    814e:	48 83 3d a2 4e 01 00 	cmpq   $0x0,0x14ea2(%rip)        # 1cff8 <__cxa_finalize@GLIBC_2.2.5>
    8155:	00 
    8156:	48 89 e5             	mov    %rsp,%rbp
    8159:	74 0c                	je     8167 <__do_global_dtors_aux+0x27>
    815b:	48 8b 3d a6 4e 01 00 	mov    0x14ea6(%rip),%rdi        # 1d008 <__dso_handle>
    8162:	e8 f9 fe ff ff       	callq  8060 <__cxa_finalize@plt>
    8167:	e8 64 ff ff ff       	callq  80d0 <deregister_tm_clones>
    816c:	c6 05 ad 92 01 00 01 	movb   $0x1,0x192ad(%rip)        # 21420 <__TMC_END__>
    8173:	5d                   	pop    %rbp
    8174:	c3                   	retq   
    8175:	0f 1f 00             	nopl   (%rax)
    8178:	c3                   	retq   
    8179:	0f 1f 80 00 00 00 00 	nopl   0x0(%rax)

0000000000008180 <frame_dummy>:
    8180:	f3 0f 1e fa          	endbr64 
    8184:	e9 77 ff ff ff       	jmpq   8100 <register_tm_clones>

0000000000008189 <platform_main_begin>:
    8189:	f3 0f 1e fa          	endbr64 
    818d:	55                   	push   %rbp
    818e:	48 89 e5             	mov    %rsp,%rbp
    8191:	90                   	nop
    8192:	5d                   	pop    %rbp
    8193:	c3                   	retq   

0000000000008194 <platform_main_end>:
    8194:	f3 0f 1e fa          	endbr64 
    8198:	55                   	push   %rbp
    8199:	48 89 e5             	mov    %rsp,%rbp
    819c:	48 83 ec 10          	sub    $0x10,%rsp
    81a0:	89 7d fc             	mov    %edi,-0x4(%rbp)
    81a3:	89 75 f8             	mov    %esi,-0x8(%rbp)
    81a6:	8b 45 fc             	mov    -0x4(%rbp),%eax
    81a9:	89 c6                	mov    %eax,%esi
    81ab:	48 8d 3d 6e fe 00 00 	lea    0xfe6e(%rip),%rdi        # 18020 <_IO_stdin_used+0x20>
    81b2:	b8 00 00 00 00       	mov    $0x0,%eax
    81b7:	e8 c4 fe ff ff       	callq  8080 <printf@plt>
    81bc:	90                   	nop
    81bd:	c9                   	leaveq 
    81be:	c3                   	retq   

00000000000081bf <safe_unary_minus_func_int8_t_s>:
    81bf:	f3 0f 1e fa          	endbr64 
    81c3:	55                   	push   %rbp
    81c4:	48 89 e5             	mov    %rsp,%rbp
    81c7:	89 f8                	mov    %edi,%eax
    81c9:	88 45 fc             	mov    %al,-0x4(%rbp)
    81cc:	0f b6 45 fc          	movzbl -0x4(%rbp),%eax
    81d0:	f7 d8                	neg    %eax
    81d2:	5d                   	pop    %rbp
    81d3:	c3                   	retq   

00000000000081d4 <safe_add_func_int8_t_s_s>:
    81d4:	f3 0f 1e fa          	endbr64 
    81d8:	55                   	push   %rbp
    81d9:	48 89 e5             	mov    %rsp,%rbp
    81dc:	89 fa                	mov    %edi,%edx
    81de:	89 f0                	mov    %esi,%eax
    81e0:	88 55 fc             	mov    %dl,-0x4(%rbp)
    81e3:	88 45 f8             	mov    %al,-0x8(%rbp)
    81e6:	0f b6 55 fc          	movzbl -0x4(%rbp),%edx
    81ea:	0f b6 45 f8          	movzbl -0x8(%rbp),%eax
    81ee:	01 d0                	add    %edx,%eax
    81f0:	5d                   	pop    %rbp
    81f1:	c3                   	retq   

00000000000081f2 <safe_sub_func_int8_t_s_s>:
    81f2:	f3 0f 1e fa          	endbr64 
    81f6:	55                   	push   %rbp
    81f7:	48 89 e5             	mov    %rsp,%rbp
    81fa:	89 fa                	mov    %edi,%edx
    81fc:	89 f0                	mov    %esi,%eax
    81fe:	88 55 fc             	mov    %dl,-0x4(%rbp)
    8201:	88 45 f8             	mov    %al,-0x8(%rbp)
    8204:	0f b6 55 fc          	movzbl -0x4(%rbp),%edx
    8208:	0f b6 45 f8          	movzbl -0x8(%rbp),%eax
    820c:	29 c2                	sub    %eax,%edx
    820e:	89 d0                	mov    %edx,%eax
    8210:	5d                   	pop    %rbp
    8211:	c3                   	retq   

0000000000008212 <safe_mul_func_int8_t_s_s>:
    8212:	f3 0f 1e fa          	endbr64 
    8216:	55                   	push   %rbp
    8217:	48 89 e5             	mov    %rsp,%rbp
    821a:	89 fa                	mov    %edi,%edx
    821c:	89 f0                	mov    %esi,%eax
    821e:	88 55 fc             	mov    %dl,-0x4(%rbp)
    8221:	88 45 f8             	mov    %al,-0x8(%rbp)
    8224:	0f b6 45 fc          	movzbl -0x4(%rbp),%eax
    8228:	0f b6 55 f8          	movzbl -0x8(%rbp),%edx
    822c:	0f af c2             	imul   %edx,%eax
    822f:	5d                   	pop    %rbp
    8230:	c3                   	retq   

0000000000008231 <safe_mod_func_int8_t_s_s>:
    8231:	f3 0f 1e fa          	endbr64 
    8235:	55                   	push   %rbp
    8236:	48 89 e5             	mov    %rsp,%rbp
    8239:	89 fa                	mov    %edi,%edx
    823b:	89 f0                	mov    %esi,%eax
    823d:	88 55 fc             	mov    %dl,-0x4(%rbp)
    8240:	88 45 f8             	mov    %al,-0x8(%rbp)
    8243:	80 7d f8 00          	cmpb   $0x0,-0x8(%rbp)
    8247:	74 1b                	je     8264 <safe_mod_func_int8_t_s_s+0x33>
    8249:	80 7d fc 80          	cmpb   $0x80,-0x4(%rbp)
    824d:	75 06                	jne    8255 <safe_mod_func_int8_t_s_s+0x24>
    824f:	80 7d f8 ff          	cmpb   $0xff,-0x8(%rbp)
    8253:	74 0f                	je     8264 <safe_mod_func_int8_t_s_s+0x33>
    8255:	0f be 45 fc          	movsbl -0x4(%rbp),%eax
    8259:	0f be 4d f8          	movsbl -0x8(%rbp),%ecx
    825d:	99                   	cltd   
    825e:	f7 f9                	idiv   %ecx
    8260:	89 d0                	mov    %edx,%eax
    8262:	eb 04                	jmp    8268 <safe_mod_func_int8_t_s_s+0x37>
    8264:	0f b6 45 fc          	movzbl -0x4(%rbp),%eax
    8268:	5d                   	pop    %rbp
    8269:	c3                   	retq   

000000000000826a <safe_div_func_int8_t_s_s>:
    826a:	f3 0f 1e fa          	endbr64 
    826e:	55                   	push   %rbp
    826f:	48 89 e5             	mov    %rsp,%rbp
    8272:	89 fa                	mov    %edi,%edx
    8274:	89 f0                	mov    %esi,%eax
    8276:	88 55 fc             	mov    %dl,-0x4(%rbp)
    8279:	88 45 f8             	mov    %al,-0x8(%rbp)
    827c:	80 7d f8 00          	cmpb   $0x0,-0x8(%rbp)
    8280:	74 19                	je     829b <safe_div_func_int8_t_s_s+0x31>
    8282:	80 7d fc 80          	cmpb   $0x80,-0x4(%rbp)
    8286:	75 06                	jne    828e <safe_div_func_int8_t_s_s+0x24>
    8288:	80 7d f8 ff          	cmpb   $0xff,-0x8(%rbp)
    828c:	74 0d                	je     829b <safe_div_func_int8_t_s_s+0x31>
    828e:	0f be 45 fc          	movsbl -0x4(%rbp),%eax
    8292:	0f be 4d f8          	movsbl -0x8(%rbp),%ecx
    8296:	99                   	cltd   
    8297:	f7 f9                	idiv   %ecx
    8299:	eb 04                	jmp    829f <safe_div_func_int8_t_s_s+0x35>
    829b:	0f b6 45 fc          	movzbl -0x4(%rbp),%eax
    829f:	5d                   	pop    %rbp
    82a0:	c3                   	retq   

00000000000082a1 <safe_lshift_func_int8_t_s_s>:
    82a1:	f3 0f 1e fa          	endbr64 
    82a5:	55                   	push   %rbp
    82a6:	48 89 e5             	mov    %rsp,%rbp
    82a9:	89 f8                	mov    %edi,%eax
    82ab:	89 75 f8             	mov    %esi,-0x8(%rbp)
    82ae:	88 45 fc             	mov    %al,-0x4(%rbp)
    82b1:	80 7d fc 00          	cmpb   $0x0,-0x4(%rbp)
    82b5:	78 31                	js     82e8 <safe_lshift_func_int8_t_s_s+0x47>
    82b7:	83 7d f8 00          	cmpl   $0x0,-0x8(%rbp)
    82bb:	78 2b                	js     82e8 <safe_lshift_func_int8_t_s_s+0x47>
    82bd:	83 7d f8 1f          	cmpl   $0x1f,-0x8(%rbp)
    82c1:	7f 25                	jg     82e8 <safe_lshift_func_int8_t_s_s+0x47>
    82c3:	0f be 55 fc          	movsbl -0x4(%rbp),%edx
    82c7:	8b 45 f8             	mov    -0x8(%rbp),%eax
    82ca:	be 7f 00 00 00       	mov    $0x7f,%esi
    82cf:	89 c1                	mov    %eax,%ecx
    82d1:	d3 fe                	sar    %cl,%esi
    82d3:	89 f0                	mov    %esi,%eax
    82d5:	39 c2                	cmp    %eax,%edx
    82d7:	7f 0f                	jg     82e8 <safe_lshift_func_int8_t_s_s+0x47>
    82d9:	0f be 55 fc          	movsbl -0x4(%rbp),%edx
    82dd:	8b 45 f8             	mov    -0x8(%rbp),%eax
    82e0:	89 c1                	mov    %eax,%ecx
    82e2:	d3 e2                	shl    %cl,%edx
    82e4:	89 d0                	mov    %edx,%eax
    82e6:	eb 04                	jmp    82ec <safe_lshift_func_int8_t_s_s+0x4b>
    82e8:	0f b6 45 fc          	movzbl -0x4(%rbp),%eax
    82ec:	5d                   	pop    %rbp
    82ed:	c3                   	retq   

00000000000082ee <safe_lshift_func_int8_t_s_u>:
    82ee:	f3 0f 1e fa          	endbr64 
    82f2:	55                   	push   %rbp
    82f3:	48 89 e5             	mov    %rsp,%rbp
    82f6:	89 f8                	mov    %edi,%eax
    82f8:	89 75 f8             	mov    %esi,-0x8(%rbp)
    82fb:	88 45 fc             	mov    %al,-0x4(%rbp)
    82fe:	80 7d fc 00          	cmpb   $0x0,-0x4(%rbp)
    8302:	78 2b                	js     832f <safe_lshift_func_int8_t_s_u+0x41>
    8304:	83 7d f8 1f          	cmpl   $0x1f,-0x8(%rbp)
    8308:	77 25                	ja     832f <safe_lshift_func_int8_t_s_u+0x41>
    830a:	0f be 55 fc          	movsbl -0x4(%rbp),%edx
    830e:	8b 45 f8             	mov    -0x8(%rbp),%eax
    8311:	be 7f 00 00 00       	mov    $0x7f,%esi
    8316:	89 c1                	mov    %eax,%ecx
    8318:	d3 fe                	sar    %cl,%esi
    831a:	89 f0                	mov    %esi,%eax
    831c:	39 c2                	cmp    %eax,%edx
    831e:	7f 0f                	jg     832f <safe_lshift_func_int8_t_s_u+0x41>
    8320:	0f be 55 fc          	movsbl -0x4(%rbp),%edx
    8324:	8b 45 f8             	mov    -0x8(%rbp),%eax
    8327:	89 c1                	mov    %eax,%ecx
    8329:	d3 e2                	shl    %cl,%edx
    832b:	89 d0                	mov    %edx,%eax
    832d:	eb 04                	jmp    8333 <safe_lshift_func_int8_t_s_u+0x45>
    832f:	0f b6 45 fc          	movzbl -0x4(%rbp),%eax
    8333:	5d                   	pop    %rbp
    8334:	c3                   	retq   

0000000000008335 <safe_rshift_func_int8_t_s_s>:
    8335:	f3 0f 1e fa          	endbr64 
    8339:	55                   	push   %rbp
    833a:	48 89 e5             	mov    %rsp,%rbp
    833d:	89 f8                	mov    %edi,%eax
    833f:	89 75 f8             	mov    %esi,-0x8(%rbp)
    8342:	88 45 fc             	mov    %al,-0x4(%rbp)
    8345:	80 7d fc 00          	cmpb   $0x0,-0x4(%rbp)
    8349:	78 1b                	js     8366 <safe_rshift_func_int8_t_s_s+0x31>
    834b:	83 7d f8 00          	cmpl   $0x0,-0x8(%rbp)
    834f:	78 15                	js     8366 <safe_rshift_func_int8_t_s_s+0x31>
    8351:	83 7d f8 1f          	cmpl   $0x1f,-0x8(%rbp)
    8355:	7f 0f                	jg     8366 <safe_rshift_func_int8_t_s_s+0x31>
    8357:	0f be 55 fc          	movsbl -0x4(%rbp),%edx
    835b:	8b 45 f8             	mov    -0x8(%rbp),%eax
    835e:	89 c1                	mov    %eax,%ecx
    8360:	d3 fa                	sar    %cl,%edx
    8362:	89 d0                	mov    %edx,%eax
    8364:	eb 04                	jmp    836a <safe_rshift_func_int8_t_s_s+0x35>
    8366:	0f b6 45 fc          	movzbl -0x4(%rbp),%eax
    836a:	5d                   	pop    %rbp
    836b:	c3                   	retq   

000000000000836c <safe_rshift_func_int8_t_s_u>:
    836c:	f3 0f 1e fa          	endbr64 
    8370:	55                   	push   %rbp
    8371:	48 89 e5             	mov    %rsp,%rbp
    8374:	89 f8                	mov    %edi,%eax
    8376:	89 75 f8             	mov    %esi,-0x8(%rbp)
    8379:	88 45 fc             	mov    %al,-0x4(%rbp)
    837c:	80 7d fc 00          	cmpb   $0x0,-0x4(%rbp)
    8380:	78 15                	js     8397 <safe_rshift_func_int8_t_s_u+0x2b>
    8382:	83 7d f8 1f          	cmpl   $0x1f,-0x8(%rbp)
    8386:	77 0f                	ja     8397 <safe_rshift_func_int8_t_s_u+0x2b>
    8388:	0f be 55 fc          	movsbl -0x4(%rbp),%edx
    838c:	8b 45 f8             	mov    -0x8(%rbp),%eax
    838f:	89 c1                	mov    %eax,%ecx
    8391:	d3 fa                	sar    %cl,%edx
    8393:	89 d0                	mov    %edx,%eax
    8395:	eb 04                	jmp    839b <safe_rshift_func_int8_t_s_u+0x2f>
    8397:	0f b6 45 fc          	movzbl -0x4(%rbp),%eax
    839b:	5d                   	pop    %rbp
    839c:	c3                   	retq   

000000000000839d <safe_unary_minus_func_int16_t_s>:
    839d:	f3 0f 1e fa          	endbr64 
    83a1:	55                   	push   %rbp
    83a2:	48 89 e5             	mov    %rsp,%rbp
    83a5:	89 f8                	mov    %edi,%eax
    83a7:	66 89 45 fc          	mov    %ax,-0x4(%rbp)
    83ab:	0f b7 45 fc          	movzwl -0x4(%rbp),%eax
    83af:	f7 d8                	neg    %eax
    83b1:	5d                   	pop    %rbp
    83b2:	c3                   	retq   

00000000000083b3 <safe_add_func_int16_t_s_s>:
    83b3:	f3 0f 1e fa          	endbr64 
    83b7:	55                   	push   %rbp
    83b8:	48 89 e5             	mov    %rsp,%rbp
    83bb:	89 fa                	mov    %edi,%edx
    83bd:	89 f0                	mov    %esi,%eax
    83bf:	66 89 55 fc          	mov    %dx,-0x4(%rbp)
    83c3:	66 89 45 f8          	mov    %ax,-0x8(%rbp)
    83c7:	0f b7 55 fc          	movzwl -0x4(%rbp),%edx
    83cb:	0f b7 45 f8          	movzwl -0x8(%rbp),%eax
    83cf:	01 d0                	add    %edx,%eax
    83d1:	5d                   	pop    %rbp
    83d2:	c3                   	retq   

00000000000083d3 <safe_sub_func_int16_t_s_s>:
    83d3:	f3 0f 1e fa          	endbr64 
    83d7:	55                   	push   %rbp
    83d8:	48 89 e5             	mov    %rsp,%rbp
    83db:	89 fa                	mov    %edi,%edx
    83dd:	89 f0                	mov    %esi,%eax
    83df:	66 89 55 fc          	mov    %dx,-0x4(%rbp)
    83e3:	66 89 45 f8          	mov    %ax,-0x8(%rbp)
    83e7:	0f b7 55 fc          	movzwl -0x4(%rbp),%edx
    83eb:	0f b7 45 f8          	movzwl -0x8(%rbp),%eax
    83ef:	29 c2                	sub    %eax,%edx
    83f1:	89 d0                	mov    %edx,%eax
    83f3:	5d                   	pop    %rbp
    83f4:	c3                   	retq   

00000000000083f5 <safe_mul_func_int16_t_s_s>:
    83f5:	f3 0f 1e fa          	endbr64 
    83f9:	55                   	push   %rbp
    83fa:	48 89 e5             	mov    %rsp,%rbp
    83fd:	89 fa                	mov    %edi,%edx
    83ff:	89 f0                	mov    %esi,%eax
    8401:	66 89 55 fc          	mov    %dx,-0x4(%rbp)
    8405:	66 89 45 f8          	mov    %ax,-0x8(%rbp)
    8409:	0f b7 55 fc          	movzwl -0x4(%rbp),%edx
    840d:	0f b7 45 f8          	movzwl -0x8(%rbp),%eax
    8411:	0f af c2             	imul   %edx,%eax
    8414:	5d                   	pop    %rbp
    8415:	c3                   	retq   

0000000000008416 <safe_mod_func_int16_t_s_s>:
    8416:	f3 0f 1e fa          	endbr64 
    841a:	55                   	push   %rbp
    841b:	48 89 e5             	mov    %rsp,%rbp
    841e:	89 fa                	mov    %edi,%edx
    8420:	89 f0                	mov    %esi,%eax
    8422:	66 89 55 fc          	mov    %dx,-0x4(%rbp)
    8426:	66 89 45 f8          	mov    %ax,-0x8(%rbp)
    842a:	66 83 7d f8 00       	cmpw   $0x0,-0x8(%rbp)
    842f:	74 1e                	je     844f <safe_mod_func_int16_t_s_s+0x39>
    8431:	66 81 7d fc 00 80    	cmpw   $0x8000,-0x4(%rbp)
    8437:	75 07                	jne    8440 <safe_mod_func_int16_t_s_s+0x2a>
    8439:	66 83 7d f8 ff       	cmpw   $0xffff,-0x8(%rbp)
    843e:	74 0f                	je     844f <safe_mod_func_int16_t_s_s+0x39>
    8440:	0f bf 45 fc          	movswl -0x4(%rbp),%eax
    8444:	0f bf 4d f8          	movswl -0x8(%rbp),%ecx
    8448:	99                   	cltd   
    8449:	f7 f9                	idiv   %ecx
    844b:	89 d0                	mov    %edx,%eax
    844d:	eb 04                	jmp    8453 <safe_mod_func_int16_t_s_s+0x3d>
    844f:	0f b7 45 fc          	movzwl -0x4(%rbp),%eax
    8453:	5d                   	pop    %rbp
    8454:	c3                   	retq   

0000000000008455 <safe_div_func_int16_t_s_s>:
    8455:	f3 0f 1e fa          	endbr64 
    8459:	55                   	push   %rbp
    845a:	48 89 e5             	mov    %rsp,%rbp
    845d:	89 fa                	mov    %edi,%edx
    845f:	89 f0                	mov    %esi,%eax
    8461:	66 89 55 fc          	mov    %dx,-0x4(%rbp)
    8465:	66 89 45 f8          	mov    %ax,-0x8(%rbp)
    8469:	66 83 7d f8 00       	cmpw   $0x0,-0x8(%rbp)
    846e:	74 1c                	je     848c <safe_div_func_int16_t_s_s+0x37>
    8470:	66 81 7d fc 00 80    	cmpw   $0x8000,-0x4(%rbp)
    8476:	75 07                	jne    847f <safe_div_func_int16_t_s_s+0x2a>
    8478:	66 83 7d f8 ff       	cmpw   $0xffff,-0x8(%rbp)
    847d:	74 0d                	je     848c <safe_div_func_int16_t_s_s+0x37>
    847f:	0f bf 45 fc          	movswl -0x4(%rbp),%eax
    8483:	0f bf 4d f8          	movswl -0x8(%rbp),%ecx
    8487:	99                   	cltd   
    8488:	f7 f9                	idiv   %ecx
    848a:	eb 04                	jmp    8490 <safe_div_func_int16_t_s_s+0x3b>
    848c:	0f b7 45 fc          	movzwl -0x4(%rbp),%eax
    8490:	5d                   	pop    %rbp
    8491:	c3                   	retq   

0000000000008492 <safe_lshift_func_int16_t_s_s>:
    8492:	f3 0f 1e fa          	endbr64 
    8496:	55                   	push   %rbp
    8497:	48 89 e5             	mov    %rsp,%rbp
    849a:	89 f8                	mov    %edi,%eax
    849c:	89 75 f8             	mov    %esi,-0x8(%rbp)
    849f:	66 89 45 fc          	mov    %ax,-0x4(%rbp)
    84a3:	66 83 7d fc 00       	cmpw   $0x0,-0x4(%rbp)
    84a8:	78 31                	js     84db <safe_lshift_func_int16_t_s_s+0x49>
    84aa:	83 7d f8 00          	cmpl   $0x0,-0x8(%rbp)
    84ae:	78 2b                	js     84db <safe_lshift_func_int16_t_s_s+0x49>
    84b0:	83 7d f8 1f          	cmpl   $0x1f,-0x8(%rbp)
    84b4:	7f 25                	jg     84db <safe_lshift_func_int16_t_s_s+0x49>
    84b6:	0f bf 55 fc          	movswl -0x4(%rbp),%edx
    84ba:	8b 45 f8             	mov    -0x8(%rbp),%eax
    84bd:	be ff 7f 00 00       	mov    $0x7fff,%esi
    84c2:	89 c1                	mov    %eax,%ecx
    84c4:	d3 fe                	sar    %cl,%esi
    84c6:	89 f0                	mov    %esi,%eax
    84c8:	39 c2                	cmp    %eax,%edx
    84ca:	7f 0f                	jg     84db <safe_lshift_func_int16_t_s_s+0x49>
    84cc:	0f bf 55 fc          	movswl -0x4(%rbp),%edx
    84d0:	8b 45 f8             	mov    -0x8(%rbp),%eax
    84d3:	89 c1                	mov    %eax,%ecx
    84d5:	d3 e2                	shl    %cl,%edx
    84d7:	89 d0                	mov    %edx,%eax
    84d9:	eb 04                	jmp    84df <safe_lshift_func_int16_t_s_s+0x4d>
    84db:	0f b7 45 fc          	movzwl -0x4(%rbp),%eax
    84df:	5d                   	pop    %rbp
    84e0:	c3                   	retq   

00000000000084e1 <safe_lshift_func_int16_t_s_u>:
    84e1:	f3 0f 1e fa          	endbr64 
    84e5:	55                   	push   %rbp
    84e6:	48 89 e5             	mov    %rsp,%rbp
    84e9:	89 f8                	mov    %edi,%eax
    84eb:	89 75 f8             	mov    %esi,-0x8(%rbp)
    84ee:	66 89 45 fc          	mov    %ax,-0x4(%rbp)
    84f2:	66 83 7d fc 00       	cmpw   $0x0,-0x4(%rbp)
    84f7:	78 2b                	js     8524 <safe_lshift_func_int16_t_s_u+0x43>
    84f9:	83 7d f8 1f          	cmpl   $0x1f,-0x8(%rbp)
    84fd:	77 25                	ja     8524 <safe_lshift_func_int16_t_s_u+0x43>
    84ff:	0f bf 55 fc          	movswl -0x4(%rbp),%edx
    8503:	8b 45 f8             	mov    -0x8(%rbp),%eax
    8506:	be ff 7f 00 00       	mov    $0x7fff,%esi
    850b:	89 c1                	mov    %eax,%ecx
    850d:	d3 fe                	sar    %cl,%esi
    850f:	89 f0                	mov    %esi,%eax
    8511:	39 c2                	cmp    %eax,%edx
    8513:	7f 0f                	jg     8524 <safe_lshift_func_int16_t_s_u+0x43>
    8515:	0f bf 55 fc          	movswl -0x4(%rbp),%edx
    8519:	8b 45 f8             	mov    -0x8(%rbp),%eax
    851c:	89 c1                	mov    %eax,%ecx
    851e:	d3 e2                	shl    %cl,%edx
    8520:	89 d0                	mov    %edx,%eax
    8522:	eb 04                	jmp    8528 <safe_lshift_func_int16_t_s_u+0x47>
    8524:	0f b7 45 fc          	movzwl -0x4(%rbp),%eax
    8528:	5d                   	pop    %rbp
    8529:	c3                   	retq   

000000000000852a <safe_rshift_func_int16_t_s_s>:
    852a:	f3 0f 1e fa          	endbr64 
    852e:	55                   	push   %rbp
    852f:	48 89 e5             	mov    %rsp,%rbp
    8532:	89 f8                	mov    %edi,%eax
    8534:	89 75 f8             	mov    %esi,-0x8(%rbp)
    8537:	66 89 45 fc          	mov    %ax,-0x4(%rbp)
    853b:	66 83 7d fc 00       	cmpw   $0x0,-0x4(%rbp)
    8540:	78 1b                	js     855d <safe_rshift_func_int16_t_s_s+0x33>
    8542:	83 7d f8 00          	cmpl   $0x0,-0x8(%rbp)
    8546:	78 15                	js     855d <safe_rshift_func_int16_t_s_s+0x33>
    8548:	83 7d f8 1f          	cmpl   $0x1f,-0x8(%rbp)
    854c:	7f 0f                	jg     855d <safe_rshift_func_int16_t_s_s+0x33>
    854e:	0f bf 55 fc          	movswl -0x4(%rbp),%edx
    8552:	8b 45 f8             	mov    -0x8(%rbp),%eax
    8555:	89 c1                	mov    %eax,%ecx
    8557:	d3 fa                	sar    %cl,%edx
    8559:	89 d0                	mov    %edx,%eax
    855b:	eb 04                	jmp    8561 <safe_rshift_func_int16_t_s_s+0x37>
    855d:	0f b7 45 fc          	movzwl -0x4(%rbp),%eax
    8561:	5d                   	pop    %rbp
    8562:	c3                   	retq   

0000000000008563 <safe_rshift_func_int16_t_s_u>:
    8563:	f3 0f 1e fa          	endbr64 
    8567:	55                   	push   %rbp
    8568:	48 89 e5             	mov    %rsp,%rbp
    856b:	89 f8                	mov    %edi,%eax
    856d:	89 75 f8             	mov    %esi,-0x8(%rbp)
    8570:	66 89 45 fc          	mov    %ax,-0x4(%rbp)
    8574:	66 83 7d fc 00       	cmpw   $0x0,-0x4(%rbp)
    8579:	78 15                	js     8590 <safe_rshift_func_int16_t_s_u+0x2d>
    857b:	83 7d f8 1f          	cmpl   $0x1f,-0x8(%rbp)
    857f:	77 0f                	ja     8590 <safe_rshift_func_int16_t_s_u+0x2d>
    8581:	0f bf 55 fc          	movswl -0x4(%rbp),%edx
    8585:	8b 45 f8             	mov    -0x8(%rbp),%eax
    8588:	89 c1                	mov    %eax,%ecx
    858a:	d3 fa                	sar    %cl,%edx
    858c:	89 d0                	mov    %edx,%eax
    858e:	eb 04                	jmp    8594 <safe_rshift_func_int16_t_s_u+0x31>
    8590:	0f b7 45 fc          	movzwl -0x4(%rbp),%eax
    8594:	5d                   	pop    %rbp
    8595:	c3                   	retq   

0000000000008596 <safe_unary_minus_func_int32_t_s>:
    8596:	f3 0f 1e fa          	endbr64 
    859a:	55                   	push   %rbp
    859b:	48 89 e5             	mov    %rsp,%rbp
    859e:	89 7d fc             	mov    %edi,-0x4(%rbp)
    85a1:	81 7d fc 00 00 00 80 	cmpl   $0x80000000,-0x4(%rbp)
    85a8:	74 07                	je     85b1 <safe_unary_minus_func_int32_t_s+0x1b>
    85aa:	8b 45 fc             	mov    -0x4(%rbp),%eax
    85ad:	f7 d8                	neg    %eax
    85af:	eb 03                	jmp    85b4 <safe_unary_minus_func_int32_t_s+0x1e>
    85b1:	8b 45 fc             	mov    -0x4(%rbp),%eax
    85b4:	5d                   	pop    %rbp
    85b5:	c3                   	retq   

00000000000085b6 <safe_add_func_int32_t_s_s>:
    85b6:	f3 0f 1e fa          	endbr64 
    85ba:	55                   	push   %rbp
    85bb:	48 89 e5             	mov    %rsp,%rbp
    85be:	89 7d fc             	mov    %edi,-0x4(%rbp)
    85c1:	89 75 f8             	mov    %esi,-0x8(%rbp)
    85c4:	83 7d fc 00          	cmpl   $0x0,-0x4(%rbp)
    85c8:	7e 13                	jle    85dd <safe_add_func_int32_t_s_s+0x27>
    85ca:	83 7d f8 00          	cmpl   $0x0,-0x8(%rbp)
    85ce:	7e 0d                	jle    85dd <safe_add_func_int32_t_s_s+0x27>
    85d0:	b8 ff ff ff 7f       	mov    $0x7fffffff,%eax
    85d5:	2b 45 f8             	sub    -0x8(%rbp),%eax
    85d8:	39 45 fc             	cmp    %eax,-0x4(%rbp)
    85db:	7f 23                	jg     8600 <safe_add_func_int32_t_s_s+0x4a>
    85dd:	83 7d fc 00          	cmpl   $0x0,-0x4(%rbp)
    85e1:	79 13                	jns    85f6 <safe_add_func_int32_t_s_s+0x40>
    85e3:	83 7d f8 00          	cmpl   $0x0,-0x8(%rbp)
    85e7:	79 0d                	jns    85f6 <safe_add_func_int32_t_s_s+0x40>
    85e9:	b8 00 00 00 80       	mov    $0x80000000,%eax
    85ee:	2b 45 f8             	sub    -0x8(%rbp),%eax
    85f1:	39 45 fc             	cmp    %eax,-0x4(%rbp)
    85f4:	7c 0a                	jl     8600 <safe_add_func_int32_t_s_s+0x4a>
    85f6:	8b 55 fc             	mov    -0x4(%rbp),%edx
    85f9:	8b 45 f8             	mov    -0x8(%rbp),%eax
    85fc:	01 d0                	add    %edx,%eax
    85fe:	eb 03                	jmp    8603 <safe_add_func_int32_t_s_s+0x4d>
    8600:	8b 45 fc             	mov    -0x4(%rbp),%eax
    8603:	5d                   	pop    %rbp
    8604:	c3                   	retq   

0000000000008605 <safe_sub_func_int32_t_s_s>:
    8605:	f3 0f 1e fa          	endbr64 
    8609:	55                   	push   %rbp
    860a:	48 89 e5             	mov    %rsp,%rbp
    860d:	89 7d fc             	mov    %edi,-0x4(%rbp)
    8610:	89 75 f8             	mov    %esi,-0x8(%rbp)
    8613:	8b 45 fc             	mov    -0x4(%rbp),%eax
    8616:	33 45 f8             	xor    -0x8(%rbp),%eax
    8619:	89 c2                	mov    %eax,%edx
    861b:	8b 45 fc             	mov    -0x4(%rbp),%eax
    861e:	33 45 f8             	xor    -0x8(%rbp),%eax
    8621:	25 00 00 00 80       	and    $0x80000000,%eax
    8626:	33 45 fc             	xor    -0x4(%rbp),%eax
    8629:	2b 45 f8             	sub    -0x8(%rbp),%eax
    862c:	33 45 f8             	xor    -0x8(%rbp),%eax
    862f:	21 d0                	and    %edx,%eax
    8631:	85 c0                	test   %eax,%eax
    8633:	78 08                	js     863d <safe_sub_func_int32_t_s_s+0x38>
    8635:	8b 45 fc             	mov    -0x4(%rbp),%eax
    8638:	2b 45 f8             	sub    -0x8(%rbp),%eax
    863b:	eb 03                	jmp    8640 <safe_sub_func_int32_t_s_s+0x3b>
    863d:	8b 45 fc             	mov    -0x4(%rbp),%eax
    8640:	5d                   	pop    %rbp
    8641:	c3                   	retq   

0000000000008642 <safe_mul_func_int32_t_s_s>:
    8642:	f3 0f 1e fa          	endbr64 
    8646:	55                   	push   %rbp
    8647:	48 89 e5             	mov    %rsp,%rbp
    864a:	89 7d fc             	mov    %edi,-0x4(%rbp)
    864d:	89 75 f8             	mov    %esi,-0x8(%rbp)
    8650:	83 7d fc 00          	cmpl   $0x0,-0x4(%rbp)
    8654:	7e 14                	jle    866a <safe_mul_func_int32_t_s_s+0x28>
    8656:	83 7d f8 00          	cmpl   $0x0,-0x8(%rbp)
    865a:	7e 0e                	jle    866a <safe_mul_func_int32_t_s_s+0x28>
    865c:	b8 ff ff ff 7f       	mov    $0x7fffffff,%eax
    8661:	99                   	cltd   
    8662:	f7 7d f8             	idivl  -0x8(%rbp)
    8665:	39 45 fc             	cmp    %eax,-0x4(%rbp)
    8668:	7f 5d                	jg     86c7 <safe_mul_func_int32_t_s_s+0x85>
    866a:	83 7d fc 00          	cmpl   $0x0,-0x4(%rbp)
    866e:	7e 14                	jle    8684 <safe_mul_func_int32_t_s_s+0x42>
    8670:	83 7d f8 00          	cmpl   $0x0,-0x8(%rbp)
    8674:	7f 0e                	jg     8684 <safe_mul_func_int32_t_s_s+0x42>
    8676:	b8 00 00 00 80       	mov    $0x80000000,%eax
    867b:	99                   	cltd   
    867c:	f7 7d fc             	idivl  -0x4(%rbp)
    867f:	39 45 f8             	cmp    %eax,-0x8(%rbp)
    8682:	7c 43                	jl     86c7 <safe_mul_func_int32_t_s_s+0x85>
    8684:	83 7d fc 00          	cmpl   $0x0,-0x4(%rbp)
    8688:	7f 14                	jg     869e <safe_mul_func_int32_t_s_s+0x5c>
    868a:	83 7d f8 00          	cmpl   $0x0,-0x8(%rbp)
    868e:	7e 0e                	jle    869e <safe_mul_func_int32_t_s_s+0x5c>
    8690:	b8 00 00 00 80       	mov    $0x80000000,%eax
    8695:	99                   	cltd   
    8696:	f7 7d f8             	idivl  -0x8(%rbp)
    8699:	39 45 fc             	cmp    %eax,-0x4(%rbp)
    869c:	7c 29                	jl     86c7 <safe_mul_func_int32_t_s_s+0x85>
    869e:	83 7d fc 00          	cmpl   $0x0,-0x4(%rbp)
    86a2:	7f 1a                	jg     86be <safe_mul_func_int32_t_s_s+0x7c>
    86a4:	83 7d f8 00          	cmpl   $0x0,-0x8(%rbp)
    86a8:	7f 14                	jg     86be <safe_mul_func_int32_t_s_s+0x7c>
    86aa:	83 7d fc 00          	cmpl   $0x0,-0x4(%rbp)
    86ae:	74 0e                	je     86be <safe_mul_func_int32_t_s_s+0x7c>
    86b0:	b8 ff ff ff 7f       	mov    $0x7fffffff,%eax
    86b5:	99                   	cltd   
    86b6:	f7 7d fc             	idivl  -0x4(%rbp)
    86b9:	39 45 f8             	cmp    %eax,-0x8(%rbp)
    86bc:	7c 09                	jl     86c7 <safe_mul_func_int32_t_s_s+0x85>
    86be:	8b 45 fc             	mov    -0x4(%rbp),%eax
    86c1:	0f af 45 f8          	imul   -0x8(%rbp),%eax
    86c5:	eb 03                	jmp    86ca <safe_mul_func_int32_t_s_s+0x88>
    86c7:	8b 45 fc             	mov    -0x4(%rbp),%eax
    86ca:	5d                   	pop    %rbp
    86cb:	c3                   	retq   

00000000000086cc <safe_mod_func_int32_t_s_s>:
    86cc:	f3 0f 1e fa          	endbr64 
    86d0:	55                   	push   %rbp
    86d1:	48 89 e5             	mov    %rsp,%rbp
    86d4:	89 7d fc             	mov    %edi,-0x4(%rbp)
    86d7:	89 75 f8             	mov    %esi,-0x8(%rbp)
    86da:	83 7d f8 00          	cmpl   $0x0,-0x8(%rbp)
    86de:	74 1a                	je     86fa <safe_mod_func_int32_t_s_s+0x2e>
    86e0:	81 7d fc 00 00 00 80 	cmpl   $0x80000000,-0x4(%rbp)
    86e7:	75 06                	jne    86ef <safe_mod_func_int32_t_s_s+0x23>
    86e9:	83 7d f8 ff          	cmpl   $0xffffffff,-0x8(%rbp)
    86ed:	74 0b                	je     86fa <safe_mod_func_int32_t_s_s+0x2e>
    86ef:	8b 45 fc             	mov    -0x4(%rbp),%eax
    86f2:	99                   	cltd   
    86f3:	f7 7d f8             	idivl  -0x8(%rbp)
    86f6:	89 d0                	mov    %edx,%eax
    86f8:	eb 03                	jmp    86fd <safe_mod_func_int32_t_s_s+0x31>
    86fa:	8b 45 fc             	mov    -0x4(%rbp),%eax
    86fd:	5d                   	pop    %rbp
    86fe:	c3                   	retq   

00000000000086ff <safe_div_func_int32_t_s_s>:
    86ff:	f3 0f 1e fa          	endbr64 
    8703:	55                   	push   %rbp
    8704:	48 89 e5             	mov    %rsp,%rbp
    8707:	89 7d fc             	mov    %edi,-0x4(%rbp)
    870a:	89 75 f8             	mov    %esi,-0x8(%rbp)
    870d:	83 7d f8 00          	cmpl   $0x0,-0x8(%rbp)
    8711:	74 18                	je     872b <safe_div_func_int32_t_s_s+0x2c>
    8713:	81 7d fc 00 00 00 80 	cmpl   $0x80000000,-0x4(%rbp)
    871a:	75 06                	jne    8722 <safe_div_func_int32_t_s_s+0x23>
    871c:	83 7d f8 ff          	cmpl   $0xffffffff,-0x8(%rbp)
    8720:	74 09                	je     872b <safe_div_func_int32_t_s_s+0x2c>
    8722:	8b 45 fc             	mov    -0x4(%rbp),%eax
    8725:	99                   	cltd   
    8726:	f7 7d f8             	idivl  -0x8(%rbp)
    8729:	eb 03                	jmp    872e <safe_div_func_int32_t_s_s+0x2f>
    872b:	8b 45 fc             	mov    -0x4(%rbp),%eax
    872e:	5d                   	pop    %rbp
    872f:	c3                   	retq   

0000000000008730 <safe_lshift_func_int32_t_s_s>:
    8730:	f3 0f 1e fa          	endbr64 
    8734:	55                   	push   %rbp
    8735:	48 89 e5             	mov    %rsp,%rbp
    8738:	89 7d fc             	mov    %edi,-0x4(%rbp)
    873b:	89 75 f8             	mov    %esi,-0x8(%rbp)
    873e:	83 7d fc 00          	cmpl   $0x0,-0x4(%rbp)
    8742:	78 2d                	js     8771 <safe_lshift_func_int32_t_s_s+0x41>
    8744:	83 7d f8 00          	cmpl   $0x0,-0x8(%rbp)
    8748:	78 27                	js     8771 <safe_lshift_func_int32_t_s_s+0x41>
    874a:	83 7d f8 1f          	cmpl   $0x1f,-0x8(%rbp)
    874e:	7f 21                	jg     8771 <safe_lshift_func_int32_t_s_s+0x41>
    8750:	8b 45 f8             	mov    -0x8(%rbp),%eax
    8753:	ba ff ff ff 7f       	mov    $0x7fffffff,%edx
    8758:	89 c1                	mov    %eax,%ecx
    875a:	d3 fa                	sar    %cl,%edx
    875c:	89 d0                	mov    %edx,%eax
    875e:	39 45 fc             	cmp    %eax,-0x4(%rbp)
    8761:	7f 0e                	jg     8771 <safe_lshift_func_int32_t_s_s+0x41>
    8763:	8b 45 f8             	mov    -0x8(%rbp),%eax
    8766:	8b 55 fc             	mov    -0x4(%rbp),%edx
    8769:	89 c1                	mov    %eax,%ecx
    876b:	d3 e2                	shl    %cl,%edx
    876d:	89 d0                	mov    %edx,%eax
    876f:	eb 03                	jmp    8774 <safe_lshift_func_int32_t_s_s+0x44>
    8771:	8b 45 fc             	mov    -0x4(%rbp),%eax
    8774:	5d                   	pop    %rbp
    8775:	c3                   	retq   

0000000000008776 <safe_lshift_func_int32_t_s_u>:
    8776:	f3 0f 1e fa          	endbr64 
    877a:	55                   	push   %rbp
    877b:	48 89 e5             	mov    %rsp,%rbp
    877e:	89 7d fc             	mov    %edi,-0x4(%rbp)
    8781:	89 75 f8             	mov    %esi,-0x8(%rbp)
    8784:	83 7d fc 00          	cmpl   $0x0,-0x4(%rbp)
    8788:	78 27                	js     87b1 <safe_lshift_func_int32_t_s_u+0x3b>
    878a:	83 7d f8 1f          	cmpl   $0x1f,-0x8(%rbp)
    878e:	77 21                	ja     87b1 <safe_lshift_func_int32_t_s_u+0x3b>
    8790:	8b 45 f8             	mov    -0x8(%rbp),%eax
    8793:	ba ff ff ff 7f       	mov    $0x7fffffff,%edx
    8798:	89 c1                	mov    %eax,%ecx
    879a:	d3 fa                	sar    %cl,%edx
    879c:	89 d0                	mov    %edx,%eax
    879e:	39 45 fc             	cmp    %eax,-0x4(%rbp)
    87a1:	7f 0e                	jg     87b1 <safe_lshift_func_int32_t_s_u+0x3b>
    87a3:	8b 45 f8             	mov    -0x8(%rbp),%eax
    87a6:	8b 55 fc             	mov    -0x4(%rbp),%edx
    87a9:	89 c1                	mov    %eax,%ecx
    87ab:	d3 e2                	shl    %cl,%edx
    87ad:	89 d0                	mov    %edx,%eax
    87af:	eb 03                	jmp    87b4 <safe_lshift_func_int32_t_s_u+0x3e>
    87b1:	8b 45 fc             	mov    -0x4(%rbp),%eax
    87b4:	5d                   	pop    %rbp
    87b5:	c3                   	retq   

00000000000087b6 <safe_rshift_func_int32_t_s_s>:
    87b6:	f3 0f 1e fa          	endbr64 
    87ba:	55                   	push   %rbp
    87bb:	48 89 e5             	mov    %rsp,%rbp
    87be:	89 7d fc             	mov    %edi,-0x4(%rbp)
    87c1:	89 75 f8             	mov    %esi,-0x8(%rbp)
    87c4:	83 7d fc 00          	cmpl   $0x0,-0x4(%rbp)
    87c8:	78 1a                	js     87e4 <safe_rshift_func_int32_t_s_s+0x2e>
    87ca:	83 7d f8 00          	cmpl   $0x0,-0x8(%rbp)
    87ce:	78 14                	js     87e4 <safe_rshift_func_int32_t_s_s+0x2e>
    87d0:	83 7d f8 1f          	cmpl   $0x1f,-0x8(%rbp)
    87d4:	7f 0e                	jg     87e4 <safe_rshift_func_int32_t_s_s+0x2e>
    87d6:	8b 45 f8             	mov    -0x8(%rbp),%eax
    87d9:	8b 55 fc             	mov    -0x4(%rbp),%edx
    87dc:	89 c1                	mov    %eax,%ecx
    87de:	d3 fa                	sar    %cl,%edx
    87e0:	89 d0                	mov    %edx,%eax
    87e2:	eb 03                	jmp    87e7 <safe_rshift_func_int32_t_s_s+0x31>
    87e4:	8b 45 fc             	mov    -0x4(%rbp),%eax
    87e7:	5d                   	pop    %rbp
    87e8:	c3                   	retq   

00000000000087e9 <safe_rshift_func_int32_t_s_u>:
    87e9:	f3 0f 1e fa          	endbr64 
    87ed:	55                   	push   %rbp
    87ee:	48 89 e5             	mov    %rsp,%rbp
    87f1:	89 7d fc             	mov    %edi,-0x4(%rbp)
    87f4:	89 75 f8             	mov    %esi,-0x8(%rbp)
    87f7:	83 7d fc 00          	cmpl   $0x0,-0x4(%rbp)
    87fb:	78 14                	js     8811 <safe_rshift_func_int32_t_s_u+0x28>
    87fd:	83 7d f8 1f          	cmpl   $0x1f,-0x8(%rbp)
    8801:	77 0e                	ja     8811 <safe_rshift_func_int32_t_s_u+0x28>
    8803:	8b 45 f8             	mov    -0x8(%rbp),%eax
    8806:	8b 55 fc             	mov    -0x4(%rbp),%edx
    8809:	89 c1                	mov    %eax,%ecx
    880b:	d3 fa                	sar    %cl,%edx
    880d:	89 d0                	mov    %edx,%eax
    880f:	eb 03                	jmp    8814 <safe_rshift_func_int32_t_s_u+0x2b>
    8811:	8b 45 fc             	mov    -0x4(%rbp),%eax
    8814:	5d                   	pop    %rbp
    8815:	c3                   	retq   

0000000000008816 <safe_unary_minus_func_int64_t_s>:
    8816:	f3 0f 1e fa          	endbr64 
    881a:	55                   	push   %rbp
    881b:	48 89 e5             	mov    %rsp,%rbp
    881e:	48 89 7d f8          	mov    %rdi,-0x8(%rbp)
    8822:	48 b8 00 00 00 00 00 	movabs $0x8000000000000000,%rax
    8829:	00 00 80 
    882c:	48 39 45 f8          	cmp    %rax,-0x8(%rbp)
    8830:	74 09                	je     883b <safe_unary_minus_func_int64_t_s+0x25>
    8832:	48 8b 45 f8          	mov    -0x8(%rbp),%rax
    8836:	48 f7 d8             	neg    %rax
    8839:	eb 04                	jmp    883f <safe_unary_minus_func_int64_t_s+0x29>
    883b:	48 8b 45 f8          	mov    -0x8(%rbp),%rax
    883f:	5d                   	pop    %rbp
    8840:	c3                   	retq   

0000000000008841 <safe_add_func_int64_t_s_s>:
    8841:	f3 0f 1e fa          	endbr64 
    8845:	55                   	push   %rbp
    8846:	48 89 e5             	mov    %rsp,%rbp
    8849:	48 89 7d f8          	mov    %rdi,-0x8(%rbp)
    884d:	48 89 75 f0          	mov    %rsi,-0x10(%rbp)
    8851:	48 83 7d f8 00       	cmpq   $0x0,-0x8(%rbp)
    8856:	7e 1b                	jle    8873 <safe_add_func_int64_t_s_s+0x32>
    8858:	48 83 7d f0 00       	cmpq   $0x0,-0x10(%rbp)
    885d:	7e 14                	jle    8873 <safe_add_func_int64_t_s_s+0x32>
    885f:	48 b8 ff ff ff ff ff 	movabs $0x7fffffffffffffff,%rax
    8866:	ff ff 7f 
    8869:	48 2b 45 f0          	sub    -0x10(%rbp),%rax
    886d:	48 39 45 f8          	cmp    %rax,-0x8(%rbp)
    8871:	7f 2f                	jg     88a2 <safe_add_func_int64_t_s_s+0x61>
    8873:	48 83 7d f8 00       	cmpq   $0x0,-0x8(%rbp)
    8878:	79 1b                	jns    8895 <safe_add_func_int64_t_s_s+0x54>
    887a:	48 83 7d f0 00       	cmpq   $0x0,-0x10(%rbp)
    887f:	79 14                	jns    8895 <safe_add_func_int64_t_s_s+0x54>
    8881:	48 b8 00 00 00 00 00 	movabs $0x8000000000000000,%rax
    8888:	00 00 80 
    888b:	48 2b 45 f0          	sub    -0x10(%rbp),%rax
    888f:	48 39 45 f8          	cmp    %rax,-0x8(%rbp)
    8893:	7c 0d                	jl     88a2 <safe_add_func_int64_t_s_s+0x61>
    8895:	48 8b 55 f8          	mov    -0x8(%rbp),%rdx
    8899:	48 8b 45 f0          	mov    -0x10(%rbp),%rax
    889d:	48 01 d0             	add    %rdx,%rax
    88a0:	eb 04                	jmp    88a6 <safe_add_func_int64_t_s_s+0x65>
    88a2:	48 8b 45 f8          	mov    -0x8(%rbp),%rax
    88a6:	5d                   	pop    %rbp
    88a7:	c3                   	retq   

00000000000088a8 <safe_sub_func_int64_t_s_s>:
    88a8:	f3 0f 1e fa          	endbr64 
    88ac:	55                   	push   %rbp
    88ad:	48 89 e5             	mov    %rsp,%rbp
    88b0:	48 89 7d f8          	mov    %rdi,-0x8(%rbp)
    88b4:	48 89 75 f0          	mov    %rsi,-0x10(%rbp)
    88b8:	48 8b 45 f8          	mov    -0x8(%rbp),%rax
    88bc:	48 33 45 f0          	xor    -0x10(%rbp),%rax
    88c0:	48 89 c2             	mov    %rax,%rdx
    88c3:	48 8b 45 f8          	mov    -0x8(%rbp),%rax
    88c7:	48 33 45 f0          	xor    -0x10(%rbp),%rax
    88cb:	48 b9 00 00 00 00 00 	movabs $0x8000000000000000,%rcx
    88d2:	00 00 80 
    88d5:	48 21 c8             	and    %rcx,%rax
    88d8:	48 33 45 f8          	xor    -0x8(%rbp),%rax
    88dc:	48 2b 45 f0          	sub    -0x10(%rbp),%rax
    88e0:	48 33 45 f0          	xor    -0x10(%rbp),%rax
    88e4:	48 21 d0             	and    %rdx,%rax
    88e7:	48 85 c0             	test   %rax,%rax
    88ea:	78 0a                	js     88f6 <safe_sub_func_int64_t_s_s+0x4e>
    88ec:	48 8b 45 f8          	mov    -0x8(%rbp),%rax
    88f0:	48 2b 45 f0          	sub    -0x10(%rbp),%rax
    88f4:	eb 04                	jmp    88fa <safe_sub_func_int64_t_s_s+0x52>
    88f6:	48 8b 45 f8          	mov    -0x8(%rbp),%rax
    88fa:	5d                   	pop    %rbp
    88fb:	c3                   	retq   

00000000000088fc <safe_mul_func_int64_t_s_s>:
    88fc:	f3 0f 1e fa          	endbr64 
    8900:	55                   	push   %rbp
    8901:	48 89 e5             	mov    %rsp,%rbp
    8904:	48 89 7d f8          	mov    %rdi,-0x8(%rbp)
    8908:	48 89 75 f0          	mov    %rsi,-0x10(%rbp)
    890c:	48 83 7d f8 00       	cmpq   $0x0,-0x8(%rbp)
    8911:	7e 1d                	jle    8930 <safe_mul_func_int64_t_s_s+0x34>
    8913:	48 83 7d f0 00       	cmpq   $0x0,-0x10(%rbp)
    8918:	7e 16                	jle    8930 <safe_mul_func_int64_t_s_s+0x34>
    891a:	48 b8 ff ff ff ff ff 	movabs $0x7fffffffffffffff,%rax
    8921:	ff ff 7f 
    8924:	48 99                	cqto   
    8926:	48 f7 7d f0          	idivq  -0x10(%rbp)
    892a:	48 39 45 f8          	cmp    %rax,-0x8(%rbp)
    892e:	7f 7e                	jg     89ae <safe_mul_func_int64_t_s_s+0xb2>
    8930:	48 83 7d f8 00       	cmpq   $0x0,-0x8(%rbp)
    8935:	7e 1d                	jle    8954 <safe_mul_func_int64_t_s_s+0x58>
    8937:	48 83 7d f0 00       	cmpq   $0x0,-0x10(%rbp)
    893c:	7f 16                	jg     8954 <safe_mul_func_int64_t_s_s+0x58>
    893e:	48 b8 00 00 00 00 00 	movabs $0x8000000000000000,%rax
    8945:	00 00 80 
    8948:	48 99                	cqto   
    894a:	48 f7 7d f8          	idivq  -0x8(%rbp)
    894e:	48 39 45 f0          	cmp    %rax,-0x10(%rbp)
    8952:	7c 5a                	jl     89ae <safe_mul_func_int64_t_s_s+0xb2>
    8954:	48 83 7d f8 00       	cmpq   $0x0,-0x8(%rbp)
    8959:	7f 1d                	jg     8978 <safe_mul_func_int64_t_s_s+0x7c>
    895b:	48 83 7d f0 00       	cmpq   $0x0,-0x10(%rbp)
    8960:	7e 16                	jle    8978 <safe_mul_func_int64_t_s_s+0x7c>
    8962:	48 b8 00 00 00 00 00 	movabs $0x8000000000000000,%rax
    8969:	00 00 80 
    896c:	48 99                	cqto   
    896e:	48 f7 7d f0          	idivq  -0x10(%rbp)
    8972:	48 39 45 f8          	cmp    %rax,-0x8(%rbp)
    8976:	7c 36                	jl     89ae <safe_mul_func_int64_t_s_s+0xb2>
    8978:	48 83 7d f8 00       	cmpq   $0x0,-0x8(%rbp)
    897d:	7f 24                	jg     89a3 <safe_mul_func_int64_t_s_s+0xa7>
    897f:	48 83 7d f0 00       	cmpq   $0x0,-0x10(%rbp)
    8984:	7f 1d                	jg     89a3 <safe_mul_func_int64_t_s_s+0xa7>
    8986:	48 83 7d f8 00       	cmpq   $0x0,-0x8(%rbp)
    898b:	74 16                	je     89a3 <safe_mul_func_int64_t_s_s+0xa7>
    898d:	48 b8 ff ff ff ff ff 	movabs $0x7fffffffffffffff,%rax
    8994:	ff ff 7f 
    8997:	48 99                	cqto   
    8999:	48 f7 7d f8          	idivq  -0x8(%rbp)
    899d:	48 39 45 f0          	cmp    %rax,-0x10(%rbp)
    89a1:	7c 0b                	jl     89ae <safe_mul_func_int64_t_s_s+0xb2>
    89a3:	48 8b 45 f8          	mov    -0x8(%rbp),%rax
    89a7:	48 0f af 45 f0       	imul   -0x10(%rbp),%rax
    89ac:	eb 04                	jmp    89b2 <safe_mul_func_int64_t_s_s+0xb6>
    89ae:	48 8b 45 f8          	mov    -0x8(%rbp),%rax
    89b2:	5d                   	pop    %rbp
    89b3:	c3                   	retq   

00000000000089b4 <safe_mod_func_int64_t_s_s>:
    89b4:	f3 0f 1e fa          	endbr64 
    89b8:	55                   	push   %rbp
    89b9:	48 89 e5             	mov    %rsp,%rbp
    89bc:	48 89 7d f8          	mov    %rdi,-0x8(%rbp)
    89c0:	48 89 75 f0          	mov    %rsi,-0x10(%rbp)
    89c4:	48 83 7d f0 00       	cmpq   $0x0,-0x10(%rbp)
    89c9:	74 26                	je     89f1 <safe_mod_func_int64_t_s_s+0x3d>
    89cb:	48 b8 00 00 00 00 00 	movabs $0x8000000000000000,%rax
    89d2:	00 00 80 
    89d5:	48 39 45 f8          	cmp    %rax,-0x8(%rbp)
    89d9:	75 07                	jne    89e2 <safe_mod_func_int64_t_s_s+0x2e>
    89db:	48 83 7d f0 ff       	cmpq   $0xffffffffffffffff,-0x10(%rbp)
    89e0:	74 0f                	je     89f1 <safe_mod_func_int64_t_s_s+0x3d>
    89e2:	48 8b 45 f8          	mov    -0x8(%rbp),%rax
    89e6:	48 99                	cqto   
    89e8:	48 f7 7d f0          	idivq  -0x10(%rbp)
    89ec:	48 89 d0             	mov    %rdx,%rax
    89ef:	eb 04                	jmp    89f5 <safe_mod_func_int64_t_s_s+0x41>
    89f1:	48 8b 45 f8          	mov    -0x8(%rbp),%rax
    89f5:	5d                   	pop    %rbp
    89f6:	c3                   	retq   

00000000000089f7 <safe_div_func_int64_t_s_s>:
    89f7:	f3 0f 1e fa          	endbr64 
    89fb:	55                   	push   %rbp
    89fc:	48 89 e5             	mov    %rsp,%rbp
    89ff:	48 89 7d f8          	mov    %rdi,-0x8(%rbp)
    8a03:	48 89 75 f0          	mov    %rsi,-0x10(%rbp)
    8a07:	48 83 7d f0 00       	cmpq   $0x0,-0x10(%rbp)
    8a0c:	74 23                	je     8a31 <safe_div_func_int64_t_s_s+0x3a>
    8a0e:	48 b8 00 00 00 00 00 	movabs $0x8000000000000000,%rax
    8a15:	00 00 80 
    8a18:	48 39 45 f8          	cmp    %rax,-0x8(%rbp)
    8a1c:	75 07                	jne    8a25 <safe_div_func_int64_t_s_s+0x2e>
    8a1e:	48 83 7d f0 ff       	cmpq   $0xffffffffffffffff,-0x10(%rbp)
    8a23:	74 0c                	je     8a31 <safe_div_func_int64_t_s_s+0x3a>
    8a25:	48 8b 45 f8          	mov    -0x8(%rbp),%rax
    8a29:	48 99                	cqto   
    8a2b:	48 f7 7d f0          	idivq  -0x10(%rbp)
    8a2f:	eb 04                	jmp    8a35 <safe_div_func_int64_t_s_s+0x3e>
    8a31:	48 8b 45 f8          	mov    -0x8(%rbp),%rax
    8a35:	5d                   	pop    %rbp
    8a36:	c3                   	retq   

0000000000008a37 <safe_lshift_func_int64_t_s_s>:
    8a37:	f3 0f 1e fa          	endbr64 
    8a3b:	55                   	push   %rbp
    8a3c:	48 89 e5             	mov    %rsp,%rbp
    8a3f:	48 89 7d f8          	mov    %rdi,-0x8(%rbp)
    8a43:	89 75 f4             	mov    %esi,-0xc(%rbp)
    8a46:	48 83 7d f8 00       	cmpq   $0x0,-0x8(%rbp)
    8a4b:	78 38                	js     8a85 <safe_lshift_func_int64_t_s_s+0x4e>
    8a4d:	83 7d f4 00          	cmpl   $0x0,-0xc(%rbp)
    8a51:	78 32                	js     8a85 <safe_lshift_func_int64_t_s_s+0x4e>
    8a53:	83 7d f4 1f          	cmpl   $0x1f,-0xc(%rbp)
    8a57:	7f 2c                	jg     8a85 <safe_lshift_func_int64_t_s_s+0x4e>
    8a59:	8b 45 f4             	mov    -0xc(%rbp),%eax
    8a5c:	48 ba ff ff ff ff ff 	movabs $0x7fffffffffffffff,%rdx
    8a63:	ff ff 7f 
    8a66:	89 c1                	mov    %eax,%ecx
    8a68:	48 d3 fa             	sar    %cl,%rdx
    8a6b:	48 89 d0             	mov    %rdx,%rax
    8a6e:	48 39 45 f8          	cmp    %rax,-0x8(%rbp)
    8a72:	7f 11                	jg     8a85 <safe_lshift_func_int64_t_s_s+0x4e>
    8a74:	8b 45 f4             	mov    -0xc(%rbp),%eax
    8a77:	48 8b 55 f8          	mov    -0x8(%rbp),%rdx
    8a7b:	89 c1                	mov    %eax,%ecx
    8a7d:	48 d3 e2             	shl    %cl,%rdx
    8a80:	48 89 d0             	mov    %rdx,%rax
    8a83:	eb 04                	jmp    8a89 <safe_lshift_func_int64_t_s_s+0x52>
    8a85:	48 8b 45 f8          	mov    -0x8(%rbp),%rax
    8a89:	5d                   	pop    %rbp
    8a8a:	c3                   	retq   

0000000000008a8b <safe_lshift_func_int64_t_s_u>:
    8a8b:	f3 0f 1e fa          	endbr64 
    8a8f:	55                   	push   %rbp
    8a90:	48 89 e5             	mov    %rsp,%rbp
    8a93:	48 89 7d f8          	mov    %rdi,-0x8(%rbp)
    8a97:	89 75 f4             	mov    %esi,-0xc(%rbp)
    8a9a:	48 83 7d f8 00       	cmpq   $0x0,-0x8(%rbp)
    8a9f:	78 32                	js     8ad3 <safe_lshift_func_int64_t_s_u+0x48>
    8aa1:	83 7d f4 1f          	cmpl   $0x1f,-0xc(%rbp)
    8aa5:	77 2c                	ja     8ad3 <safe_lshift_func_int64_t_s_u+0x48>
    8aa7:	8b 45 f4             	mov    -0xc(%rbp),%eax
    8aaa:	48 ba ff ff ff ff ff 	movabs $0x7fffffffffffffff,%rdx
    8ab1:	ff ff 7f 
    8ab4:	89 c1                	mov    %eax,%ecx
    8ab6:	48 d3 fa             	sar    %cl,%rdx
    8ab9:	48 89 d0             	mov    %rdx,%rax
    8abc:	48 39 45 f8          	cmp    %rax,-0x8(%rbp)
    8ac0:	7f 11                	jg     8ad3 <safe_lshift_func_int64_t_s_u+0x48>
    8ac2:	8b 45 f4             	mov    -0xc(%rbp),%eax
    8ac5:	48 8b 55 f8          	mov    -0x8(%rbp),%rdx
    8ac9:	89 c1                	mov    %eax,%ecx
    8acb:	48 d3 e2             	shl    %cl,%rdx
    8ace:	48 89 d0             	mov    %rdx,%rax
    8ad1:	eb 04                	jmp    8ad7 <safe_lshift_func_int64_t_s_u+0x4c>
    8ad3:	48 8b 45 f8          	mov    -0x8(%rbp),%rax
    8ad7:	5d                   	pop    %rbp
    8ad8:	c3                   	retq   

0000000000008ad9 <safe_rshift_func_int64_t_s_s>:
    8ad9:	f3 0f 1e fa          	endbr64 
    8add:	55                   	push   %rbp
    8ade:	48 89 e5             	mov    %rsp,%rbp
    8ae1:	48 89 7d f8          	mov    %rdi,-0x8(%rbp)
    8ae5:	89 75 f4             	mov    %esi,-0xc(%rbp)
    8ae8:	48 83 7d f8 00       	cmpq   $0x0,-0x8(%rbp)
    8aed:	78 1d                	js     8b0c <safe_rshift_func_int64_t_s_s+0x33>
    8aef:	83 7d f4 00          	cmpl   $0x0,-0xc(%rbp)
    8af3:	78 17                	js     8b0c <safe_rshift_func_int64_t_s_s+0x33>
    8af5:	83 7d f4 1f          	cmpl   $0x1f,-0xc(%rbp)
    8af9:	7f 11                	jg     8b0c <safe_rshift_func_int64_t_s_s+0x33>
    8afb:	8b 45 f4             	mov    -0xc(%rbp),%eax
    8afe:	48 8b 55 f8          	mov    -0x8(%rbp),%rdx
    8b02:	89 c1                	mov    %eax,%ecx
    8b04:	48 d3 fa             	sar    %cl,%rdx
    8b07:	48 89 d0             	mov    %rdx,%rax
    8b0a:	eb 04                	jmp    8b10 <safe_rshift_func_int64_t_s_s+0x37>
    8b0c:	48 8b 45 f8          	mov    -0x8(%rbp),%rax
    8b10:	5d                   	pop    %rbp
    8b11:	c3                   	retq   

0000000000008b12 <safe_rshift_func_int64_t_s_u>:
    8b12:	f3 0f 1e fa          	endbr64 
    8b16:	55                   	push   %rbp
    8b17:	48 89 e5             	mov    %rsp,%rbp
    8b1a:	48 89 7d f8          	mov    %rdi,-0x8(%rbp)
    8b1e:	89 75 f4             	mov    %esi,-0xc(%rbp)
    8b21:	48 83 7d f8 00       	cmpq   $0x0,-0x8(%rbp)
    8b26:	78 17                	js     8b3f <safe_rshift_func_int64_t_s_u+0x2d>
    8b28:	83 7d f4 1f          	cmpl   $0x1f,-0xc(%rbp)
    8b2c:	77 11                	ja     8b3f <safe_rshift_func_int64_t_s_u+0x2d>
    8b2e:	8b 45 f4             	mov    -0xc(%rbp),%eax
    8b31:	48 8b 55 f8          	mov    -0x8(%rbp),%rdx
    8b35:	89 c1                	mov    %eax,%ecx
    8b37:	48 d3 fa             	sar    %cl,%rdx
    8b3a:	48 89 d0             	mov    %rdx,%rax
    8b3d:	eb 04                	jmp    8b43 <safe_rshift_func_int64_t_s_u+0x31>
    8b3f:	48 8b 45 f8          	mov    -0x8(%rbp),%rax
    8b43:	5d                   	pop    %rbp
    8b44:	c3                   	retq   

0000000000008b45 <safe_unary_minus_func_uint8_t_u>:
    8b45:	f3 0f 1e fa          	endbr64 
    8b49:	55                   	push   %rbp
    8b4a:	48 89 e5             	mov    %rsp,%rbp
    8b4d:	89 f8                	mov    %edi,%eax
    8b4f:	88 45 fc             	mov    %al,-0x4(%rbp)
    8b52:	0f b6 45 fc          	movzbl -0x4(%rbp),%eax
    8b56:	f7 d8                	neg    %eax
    8b58:	5d                   	pop    %rbp
    8b59:	c3                   	retq   

0000000000008b5a <safe_add_func_uint8_t_u_u>:
    8b5a:	f3 0f 1e fa          	endbr64 
    8b5e:	55                   	push   %rbp
    8b5f:	48 89 e5             	mov    %rsp,%rbp
    8b62:	89 fa                	mov    %edi,%edx
    8b64:	89 f0                	mov    %esi,%eax
    8b66:	88 55 fc             	mov    %dl,-0x4(%rbp)
    8b69:	88 45 f8             	mov    %al,-0x8(%rbp)
    8b6c:	0f b6 55 fc          	movzbl -0x4(%rbp),%edx
    8b70:	0f b6 45 f8          	movzbl -0x8(%rbp),%eax
    8b74:	01 d0                	add    %edx,%eax
    8b76:	5d                   	pop    %rbp
    8b77:	c3                   	retq   

0000000000008b78 <safe_sub_func_uint8_t_u_u>:
    8b78:	f3 0f 1e fa          	endbr64 
    8b7c:	55                   	push   %rbp
    8b7d:	48 89 e5             	mov    %rsp,%rbp
    8b80:	89 fa                	mov    %edi,%edx
    8b82:	89 f0                	mov    %esi,%eax
    8b84:	88 55 fc             	mov    %dl,-0x4(%rbp)
    8b87:	88 45 f8             	mov    %al,-0x8(%rbp)
    8b8a:	0f b6 45 fc          	movzbl -0x4(%rbp),%eax
    8b8e:	2a 45 f8             	sub    -0x8(%rbp),%al
    8b91:	5d                   	pop    %rbp
    8b92:	c3                   	retq   

0000000000008b93 <safe_mul_func_uint8_t_u_u>:
    8b93:	f3 0f 1e fa          	endbr64 
    8b97:	55                   	push   %rbp
    8b98:	48 89 e5             	mov    %rsp,%rbp
    8b9b:	89 fa                	mov    %edi,%edx
    8b9d:	89 f0                	mov    %esi,%eax
    8b9f:	88 55 fc             	mov    %dl,-0x4(%rbp)
    8ba2:	88 45 f8             	mov    %al,-0x8(%rbp)
    8ba5:	0f b6 45 fc          	movzbl -0x4(%rbp),%eax
    8ba9:	f6 65 f8             	mulb   -0x8(%rbp)
    8bac:	5d                   	pop    %rbp
    8bad:	c3                   	retq   

0000000000008bae <safe_mod_func_uint8_t_u_u>:
    8bae:	f3 0f 1e fa          	endbr64 
    8bb2:	55                   	push   %rbp
    8bb3:	48 89 e5             	mov    %rsp,%rbp
    8bb6:	89 fa                	mov    %edi,%edx
    8bb8:	89 f0                	mov    %esi,%eax
    8bba:	88 55 fc             	mov    %dl,-0x4(%rbp)
    8bbd:	88 45 f8             	mov    %al,-0x8(%rbp)
    8bc0:	80 7d f8 00          	cmpb   $0x0,-0x8(%rbp)
    8bc4:	74 0f                	je     8bd5 <safe_mod_func_uint8_t_u_u+0x27>
    8bc6:	0f b6 45 fc          	movzbl -0x4(%rbp),%eax
    8bca:	0f b6 c0             	movzbl %al,%eax
    8bcd:	f6 75 f8             	divb   -0x8(%rbp)
    8bd0:	0f b6 c4             	movzbl %ah,%eax
    8bd3:	eb 04                	jmp    8bd9 <safe_mod_func_uint8_t_u_u+0x2b>
    8bd5:	0f b6 45 fc          	movzbl -0x4(%rbp),%eax
    8bd9:	5d                   	pop    %rbp
    8bda:	c3                   	retq   

0000000000008bdb <safe_div_func_uint8_t_u_u>:
    8bdb:	f3 0f 1e fa          	endbr64 
    8bdf:	55                   	push   %rbp
    8be0:	48 89 e5             	mov    %rsp,%rbp
    8be3:	89 fa                	mov    %edi,%edx
    8be5:	89 f0                	mov    %esi,%eax
    8be7:	88 55 fc             	mov    %dl,-0x4(%rbp)
    8bea:	88 45 f8             	mov    %al,-0x8(%rbp)
    8bed:	80 7d f8 00          	cmpb   $0x0,-0x8(%rbp)
    8bf1:	74 0c                	je     8bff <safe_div_func_uint8_t_u_u+0x24>
    8bf3:	0f b6 45 fc          	movzbl -0x4(%rbp),%eax
    8bf7:	0f b6 c0             	movzbl %al,%eax
    8bfa:	f6 75 f8             	divb   -0x8(%rbp)
    8bfd:	eb 04                	jmp    8c03 <safe_div_func_uint8_t_u_u+0x28>
    8bff:	0f b6 45 fc          	movzbl -0x4(%rbp),%eax
    8c03:	5d                   	pop    %rbp
    8c04:	c3                   	retq   

0000000000008c05 <safe_lshift_func_uint8_t_u_s>:
    8c05:	f3 0f 1e fa          	endbr64 
    8c09:	55                   	push   %rbp
    8c0a:	48 89 e5             	mov    %rsp,%rbp
    8c0d:	89 f8                	mov    %edi,%eax
    8c0f:	89 75 f8             	mov    %esi,-0x8(%rbp)
    8c12:	88 45 fc             	mov    %al,-0x4(%rbp)
    8c15:	83 7d f8 00          	cmpl   $0x0,-0x8(%rbp)
    8c19:	78 2b                	js     8c46 <safe_lshift_func_uint8_t_u_s+0x41>
    8c1b:	83 7d f8 1f          	cmpl   $0x1f,-0x8(%rbp)
    8c1f:	7f 25                	jg     8c46 <safe_lshift_func_uint8_t_u_s+0x41>
    8c21:	0f b6 55 fc          	movzbl -0x4(%rbp),%edx
    8c25:	8b 45 f8             	mov    -0x8(%rbp),%eax
    8c28:	be ff 00 00 00       	mov    $0xff,%esi
    8c2d:	89 c1                	mov    %eax,%ecx
    8c2f:	d3 fe                	sar    %cl,%esi
    8c31:	89 f0                	mov    %esi,%eax
    8c33:	39 c2                	cmp    %eax,%edx
    8c35:	7f 0f                	jg     8c46 <safe_lshift_func_uint8_t_u_s+0x41>
    8c37:	0f b6 55 fc          	movzbl -0x4(%rbp),%edx
    8c3b:	8b 45 f8             	mov    -0x8(%rbp),%eax
    8c3e:	89 c1                	mov    %eax,%ecx
    8c40:	d3 e2                	shl    %cl,%edx
    8c42:	89 d0                	mov    %edx,%eax
    8c44:	eb 04                	jmp    8c4a <safe_lshift_func_uint8_t_u_s+0x45>
    8c46:	0f b6 45 fc          	movzbl -0x4(%rbp),%eax
    8c4a:	5d                   	pop    %rbp
    8c4b:	c3                   	retq   

0000000000008c4c <safe_lshift_func_uint8_t_u_u>:
    8c4c:	f3 0f 1e fa          	endbr64 
    8c50:	55                   	push   %rbp
    8c51:	48 89 e5             	mov    %rsp,%rbp
    8c54:	89 f8                	mov    %edi,%eax
    8c56:	89 75 f8             	mov    %esi,-0x8(%rbp)
    8c59:	88 45 fc             	mov    %al,-0x4(%rbp)
    8c5c:	83 7d f8 1f          	cmpl   $0x1f,-0x8(%rbp)
    8c60:	77 25                	ja     8c87 <safe_lshift_func_uint8_t_u_u+0x3b>
    8c62:	0f b6 55 fc          	movzbl -0x4(%rbp),%edx
    8c66:	8b 45 f8             	mov    -0x8(%rbp),%eax
    8c69:	be ff 00 00 00       	mov    $0xff,%esi
    8c6e:	89 c1                	mov    %eax,%ecx
    8c70:	d3 fe                	sar    %cl,%esi
    8c72:	89 f0                	mov    %esi,%eax
    8c74:	39 c2                	cmp    %eax,%edx
    8c76:	7f 0f                	jg     8c87 <safe_lshift_func_uint8_t_u_u+0x3b>
    8c78:	0f b6 55 fc          	movzbl -0x4(%rbp),%edx
    8c7c:	8b 45 f8             	mov    -0x8(%rbp),%eax
    8c7f:	89 c1                	mov    %eax,%ecx
    8c81:	d3 e2                	shl    %cl,%edx
    8c83:	89 d0                	mov    %edx,%eax
    8c85:	eb 04                	jmp    8c8b <safe_lshift_func_uint8_t_u_u+0x3f>
    8c87:	0f b6 45 fc          	movzbl -0x4(%rbp),%eax
    8c8b:	5d                   	pop    %rbp
    8c8c:	c3                   	retq   

0000000000008c8d <safe_rshift_func_uint8_t_u_s>:
    8c8d:	f3 0f 1e fa          	endbr64 
    8c91:	55                   	push   %rbp
    8c92:	48 89 e5             	mov    %rsp,%rbp
    8c95:	89 f8                	mov    %edi,%eax
    8c97:	89 75 f8             	mov    %esi,-0x8(%rbp)
    8c9a:	88 45 fc             	mov    %al,-0x4(%rbp)
    8c9d:	83 7d f8 00          	cmpl   $0x0,-0x8(%rbp)
    8ca1:	78 15                	js     8cb8 <safe_rshift_func_uint8_t_u_s+0x2b>
    8ca3:	83 7d f8 1f          	cmpl   $0x1f,-0x8(%rbp)
    8ca7:	7f 0f                	jg     8cb8 <safe_rshift_func_uint8_t_u_s+0x2b>
    8ca9:	0f b6 55 fc          	movzbl -0x4(%rbp),%edx
    8cad:	8b 45 f8             	mov    -0x8(%rbp),%eax
    8cb0:	89 c1                	mov    %eax,%ecx
    8cb2:	d3 fa                	sar    %cl,%edx
    8cb4:	89 d0                	mov    %edx,%eax
    8cb6:	eb 04                	jmp    8cbc <safe_rshift_func_uint8_t_u_s+0x2f>
    8cb8:	0f b6 45 fc          	movzbl -0x4(%rbp),%eax
    8cbc:	5d                   	pop    %rbp
    8cbd:	c3                   	retq   

0000000000008cbe <safe_rshift_func_uint8_t_u_u>:
    8cbe:	f3 0f 1e fa          	endbr64 
    8cc2:	55                   	push   %rbp
    8cc3:	48 89 e5             	mov    %rsp,%rbp
    8cc6:	89 f8                	mov    %edi,%eax
    8cc8:	89 75 f8             	mov    %esi,-0x8(%rbp)
    8ccb:	88 45 fc             	mov    %al,-0x4(%rbp)
    8cce:	83 7d f8 1f          	cmpl   $0x1f,-0x8(%rbp)
    8cd2:	77 0f                	ja     8ce3 <safe_rshift_func_uint8_t_u_u+0x25>
    8cd4:	0f b6 55 fc          	movzbl -0x4(%rbp),%edx
    8cd8:	8b 45 f8             	mov    -0x8(%rbp),%eax
    8cdb:	89 c1                	mov    %eax,%ecx
    8cdd:	d3 fa                	sar    %cl,%edx
    8cdf:	89 d0                	mov    %edx,%eax
    8ce1:	eb 04                	jmp    8ce7 <safe_rshift_func_uint8_t_u_u+0x29>
    8ce3:	0f b6 45 fc          	movzbl -0x4(%rbp),%eax
    8ce7:	5d                   	pop    %rbp
    8ce8:	c3                   	retq   

0000000000008ce9 <safe_unary_minus_func_uint16_t_u>:
    8ce9:	f3 0f 1e fa          	endbr64 
    8ced:	55                   	push   %rbp
    8cee:	48 89 e5             	mov    %rsp,%rbp
    8cf1:	89 f8                	mov    %edi,%eax
    8cf3:	66 89 45 fc          	mov    %ax,-0x4(%rbp)
    8cf7:	0f b7 45 fc          	movzwl -0x4(%rbp),%eax
    8cfb:	f7 d8                	neg    %eax
    8cfd:	5d                   	pop    %rbp
    8cfe:	c3                   	retq   

0000000000008cff <safe_add_func_uint16_t_u_u>:
    8cff:	f3 0f 1e fa          	endbr64 
    8d03:	55                   	push   %rbp
    8d04:	48 89 e5             	mov    %rsp,%rbp
    8d07:	89 fa                	mov    %edi,%edx
    8d09:	89 f0                	mov    %esi,%eax
    8d0b:	66 89 55 fc          	mov    %dx,-0x4(%rbp)
    8d0f:	66 89 45 f8          	mov    %ax,-0x8(%rbp)
    8d13:	0f b7 55 fc          	movzwl -0x4(%rbp),%edx
    8d17:	0f b7 45 f8          	movzwl -0x8(%rbp),%eax
    8d1b:	01 d0                	add    %edx,%eax
    8d1d:	5d                   	pop    %rbp
    8d1e:	c3                   	retq   

0000000000008d1f <safe_sub_func_uint16_t_u_u>:
    8d1f:	f3 0f 1e fa          	endbr64 
    8d23:	55                   	push   %rbp
    8d24:	48 89 e5             	mov    %rsp,%rbp
    8d27:	89 fa                	mov    %edi,%edx
    8d29:	89 f0                	mov    %esi,%eax
    8d2b:	66 89 55 fc          	mov    %dx,-0x4(%rbp)
    8d2f:	66 89 45 f8          	mov    %ax,-0x8(%rbp)
    8d33:	0f b7 45 fc          	movzwl -0x4(%rbp),%eax
    8d37:	66 2b 45 f8          	sub    -0x8(%rbp),%ax
    8d3b:	5d                   	pop    %rbp
    8d3c:	c3                   	retq   

0000000000008d3d <safe_mul_func_uint16_t_u_u>:
    8d3d:	f3 0f 1e fa          	endbr64 
    8d41:	55                   	push   %rbp
    8d42:	48 89 e5             	mov    %rsp,%rbp
    8d45:	89 fa                	mov    %edi,%edx
    8d47:	89 f0                	mov    %esi,%eax
    8d49:	66 89 55 fc          	mov    %dx,-0x4(%rbp)
    8d4d:	66 89 45 f8          	mov    %ax,-0x8(%rbp)
    8d51:	0f b7 45 fc          	movzwl -0x4(%rbp),%eax
    8d55:	66 0f af 45 f8       	imul   -0x8(%rbp),%ax
    8d5a:	5d                   	pop    %rbp
    8d5b:	c3                   	retq   

0000000000008d5c <safe_mod_func_uint16_t_u_u>:
    8d5c:	f3 0f 1e fa          	endbr64 
    8d60:	55                   	push   %rbp
    8d61:	48 89 e5             	mov    %rsp,%rbp
    8d64:	89 fa                	mov    %edi,%edx
    8d66:	89 f0                	mov    %esi,%eax
    8d68:	66 89 55 fc          	mov    %dx,-0x4(%rbp)
    8d6c:	66 89 45 f8          	mov    %ax,-0x8(%rbp)
    8d70:	66 83 7d f8 00       	cmpw   $0x0,-0x8(%rbp)
    8d75:	74 11                	je     8d88 <safe_mod_func_uint16_t_u_u+0x2c>
    8d77:	0f b7 45 fc          	movzwl -0x4(%rbp),%eax
    8d7b:	ba 00 00 00 00       	mov    $0x0,%edx
    8d80:	66 f7 75 f8          	divw   -0x8(%rbp)
    8d84:	89 d0                	mov    %edx,%eax
    8d86:	eb 04                	jmp    8d8c <safe_mod_func_uint16_t_u_u+0x30>
    8d88:	0f b7 45 fc          	movzwl -0x4(%rbp),%eax
    8d8c:	5d                   	pop    %rbp
    8d8d:	c3                   	retq   

0000000000008d8e <safe_div_func_uint16_t_u_u>:
    8d8e:	f3 0f 1e fa          	endbr64 
    8d92:	55                   	push   %rbp
    8d93:	48 89 e5             	mov    %rsp,%rbp
    8d96:	89 fa                	mov    %edi,%edx
    8d98:	89 f0                	mov    %esi,%eax
    8d9a:	66 89 55 fc          	mov    %dx,-0x4(%rbp)
    8d9e:	66 89 45 f8          	mov    %ax,-0x8(%rbp)
    8da2:	66 83 7d f8 00       	cmpw   $0x0,-0x8(%rbp)
    8da7:	74 0f                	je     8db8 <safe_div_func_uint16_t_u_u+0x2a>
    8da9:	0f b7 45 fc          	movzwl -0x4(%rbp),%eax
    8dad:	ba 00 00 00 00       	mov    $0x0,%edx
    8db2:	66 f7 75 f8          	divw   -0x8(%rbp)
    8db6:	eb 04                	jmp    8dbc <safe_div_func_uint16_t_u_u+0x2e>
    8db8:	0f b7 45 fc          	movzwl -0x4(%rbp),%eax
    8dbc:	5d                   	pop    %rbp
    8dbd:	c3                   	retq   

0000000000008dbe <safe_lshift_func_uint16_t_u_s>:
    8dbe:	f3 0f 1e fa          	endbr64 
    8dc2:	55                   	push   %rbp
    8dc3:	48 89 e5             	mov    %rsp,%rbp
    8dc6:	89 f8                	mov    %edi,%eax
    8dc8:	89 75 f8             	mov    %esi,-0x8(%rbp)
    8dcb:	66 89 45 fc          	mov    %ax,-0x4(%rbp)
    8dcf:	83 7d f8 00          	cmpl   $0x0,-0x8(%rbp)
    8dd3:	78 2b                	js     8e00 <safe_lshift_func_uint16_t_u_s+0x42>
    8dd5:	83 7d f8 1f          	cmpl   $0x1f,-0x8(%rbp)
    8dd9:	7f 25                	jg     8e00 <safe_lshift_func_uint16_t_u_s+0x42>
    8ddb:	0f b7 55 fc          	movzwl -0x4(%rbp),%edx
    8ddf:	8b 45 f8             	mov    -0x8(%rbp),%eax
    8de2:	be ff ff 00 00       	mov    $0xffff,%esi
    8de7:	89 c1                	mov    %eax,%ecx
    8de9:	d3 fe                	sar    %cl,%esi
    8deb:	89 f0                	mov    %esi,%eax
    8ded:	39 c2                	cmp    %eax,%edx
    8def:	7f 0f                	jg     8e00 <safe_lshift_func_uint16_t_u_s+0x42>
    8df1:	0f b7 55 fc          	movzwl -0x4(%rbp),%edx
    8df5:	8b 45 f8             	mov    -0x8(%rbp),%eax
    8df8:	89 c1                	mov    %eax,%ecx
    8dfa:	d3 e2                	shl    %cl,%edx
    8dfc:	89 d0                	mov    %edx,%eax
    8dfe:	eb 04                	jmp    8e04 <safe_lshift_func_uint16_t_u_s+0x46>
    8e00:	0f b7 45 fc          	movzwl -0x4(%rbp),%eax
    8e04:	5d                   	pop    %rbp
    8e05:	c3                   	retq   

0000000000008e06 <safe_lshift_func_uint16_t_u_u>:
    8e06:	f3 0f 1e fa          	endbr64 
    8e0a:	55                   	push   %rbp
    8e0b:	48 89 e5             	mov    %rsp,%rbp
    8e0e:	89 f8                	mov    %edi,%eax
    8e10:	89 75 f8             	mov    %esi,-0x8(%rbp)
    8e13:	66 89 45 fc          	mov    %ax,-0x4(%rbp)
    8e17:	83 7d f8 1f          	cmpl   $0x1f,-0x8(%rbp)
    8e1b:	77 25                	ja     8e42 <safe_lshift_func_uint16_t_u_u+0x3c>
    8e1d:	0f b7 55 fc          	movzwl -0x4(%rbp),%edx
    8e21:	8b 45 f8             	mov    -0x8(%rbp),%eax
    8e24:	be ff ff 00 00       	mov    $0xffff,%esi
    8e29:	89 c1                	mov    %eax,%ecx
    8e2b:	d3 fe                	sar    %cl,%esi
    8e2d:	89 f0                	mov    %esi,%eax
    8e2f:	39 c2                	cmp    %eax,%edx
    8e31:	7f 0f                	jg     8e42 <safe_lshift_func_uint16_t_u_u+0x3c>
    8e33:	0f b7 55 fc          	movzwl -0x4(%rbp),%edx
    8e37:	8b 45 f8             	mov    -0x8(%rbp),%eax
    8e3a:	89 c1                	mov    %eax,%ecx
    8e3c:	d3 e2                	shl    %cl,%edx
    8e3e:	89 d0                	mov    %edx,%eax
    8e40:	eb 04                	jmp    8e46 <safe_lshift_func_uint16_t_u_u+0x40>
    8e42:	0f b7 45 fc          	movzwl -0x4(%rbp),%eax
    8e46:	5d                   	pop    %rbp
    8e47:	c3                   	retq   

0000000000008e48 <safe_rshift_func_uint16_t_u_s>:
    8e48:	f3 0f 1e fa          	endbr64 
    8e4c:	55                   	push   %rbp
    8e4d:	48 89 e5             	mov    %rsp,%rbp
    8e50:	89 f8                	mov    %edi,%eax
    8e52:	89 75 f8             	mov    %esi,-0x8(%rbp)
    8e55:	66 89 45 fc          	mov    %ax,-0x4(%rbp)
    8e59:	83 7d f8 00          	cmpl   $0x0,-0x8(%rbp)
    8e5d:	78 15                	js     8e74 <safe_rshift_func_uint16_t_u_s+0x2c>
    8e5f:	83 7d f8 1f          	cmpl   $0x1f,-0x8(%rbp)
    8e63:	7f 0f                	jg     8e74 <safe_rshift_func_uint16_t_u_s+0x2c>
    8e65:	0f b7 55 fc          	movzwl -0x4(%rbp),%edx
    8e69:	8b 45 f8             	mov    -0x8(%rbp),%eax
    8e6c:	89 c1                	mov    %eax,%ecx
    8e6e:	d3 fa                	sar    %cl,%edx
    8e70:	89 d0                	mov    %edx,%eax
    8e72:	eb 04                	jmp    8e78 <safe_rshift_func_uint16_t_u_s+0x30>
    8e74:	0f b7 45 fc          	movzwl -0x4(%rbp),%eax
    8e78:	5d                   	pop    %rbp
    8e79:	c3                   	retq   

0000000000008e7a <safe_rshift_func_uint16_t_u_u>:
    8e7a:	f3 0f 1e fa          	endbr64 
    8e7e:	55                   	push   %rbp
    8e7f:	48 89 e5             	mov    %rsp,%rbp
    8e82:	89 f8                	mov    %edi,%eax
    8e84:	89 75 f8             	mov    %esi,-0x8(%rbp)
    8e87:	66 89 45 fc          	mov    %ax,-0x4(%rbp)
    8e8b:	83 7d f8 1f          	cmpl   $0x1f,-0x8(%rbp)
    8e8f:	77 0f                	ja     8ea0 <safe_rshift_func_uint16_t_u_u+0x26>
    8e91:	0f b7 55 fc          	movzwl -0x4(%rbp),%edx
    8e95:	8b 45 f8             	mov    -0x8(%rbp),%eax
    8e98:	89 c1                	mov    %eax,%ecx
    8e9a:	d3 fa                	sar    %cl,%edx
    8e9c:	89 d0                	mov    %edx,%eax
    8e9e:	eb 04                	jmp    8ea4 <safe_rshift_func_uint16_t_u_u+0x2a>
    8ea0:	0f b7 45 fc          	movzwl -0x4(%rbp),%eax
    8ea4:	5d                   	pop    %rbp
    8ea5:	c3                   	retq   

0000000000008ea6 <safe_unary_minus_func_uint32_t_u>:
    8ea6:	f3 0f 1e fa          	endbr64 
    8eaa:	55                   	push   %rbp
    8eab:	48 89 e5             	mov    %rsp,%rbp
    8eae:	89 7d fc             	mov    %edi,-0x4(%rbp)
    8eb1:	8b 45 fc             	mov    -0x4(%rbp),%eax
    8eb4:	f7 d8                	neg    %eax
    8eb6:	5d                   	pop    %rbp
    8eb7:	c3                   	retq   

0000000000008eb8 <safe_add_func_uint32_t_u_u>:
    8eb8:	f3 0f 1e fa          	endbr64 
    8ebc:	55                   	push   %rbp
    8ebd:	48 89 e5             	mov    %rsp,%rbp
    8ec0:	89 7d fc             	mov    %edi,-0x4(%rbp)
    8ec3:	89 75 f8             	mov    %esi,-0x8(%rbp)
    8ec6:	8b 55 fc             	mov    -0x4(%rbp),%edx
    8ec9:	8b 45 f8             	mov    -0x8(%rbp),%eax
    8ecc:	01 d0                	add    %edx,%eax
    8ece:	5d                   	pop    %rbp
    8ecf:	c3                   	retq   

0000000000008ed0 <safe_sub_func_uint32_t_u_u>:
    8ed0:	f3 0f 1e fa          	endbr64 
    8ed4:	55                   	push   %rbp
    8ed5:	48 89 e5             	mov    %rsp,%rbp
    8ed8:	89 7d fc             	mov    %edi,-0x4(%rbp)
    8edb:	89 75 f8             	mov    %esi,-0x8(%rbp)
    8ede:	8b 45 fc             	mov    -0x4(%rbp),%eax
    8ee1:	2b 45 f8             	sub    -0x8(%rbp),%eax
    8ee4:	5d                   	pop    %rbp
    8ee5:	c3                   	retq   

0000000000008ee6 <safe_mul_func_uint32_t_u_u>:
    8ee6:	f3 0f 1e fa          	endbr64 
    8eea:	55                   	push   %rbp
    8eeb:	48 89 e5             	mov    %rsp,%rbp
    8eee:	89 7d fc             	mov    %edi,-0x4(%rbp)
    8ef1:	89 75 f8             	mov    %esi,-0x8(%rbp)
    8ef4:	8b 45 fc             	mov    -0x4(%rbp),%eax
    8ef7:	0f af 45 f8          	imul   -0x8(%rbp),%eax
    8efb:	5d                   	pop    %rbp
    8efc:	c3                   	retq   

0000000000008efd <safe_mod_func_uint32_t_u_u>:
    8efd:	f3 0f 1e fa          	endbr64 
    8f01:	55                   	push   %rbp
    8f02:	48 89 e5             	mov    %rsp,%rbp
    8f05:	89 7d fc             	mov    %edi,-0x4(%rbp)
    8f08:	89 75 f8             	mov    %esi,-0x8(%rbp)
    8f0b:	83 7d f8 00          	cmpl   $0x0,-0x8(%rbp)
    8f0f:	74 0f                	je     8f20 <safe_mod_func_uint32_t_u_u+0x23>
    8f11:	8b 45 fc             	mov    -0x4(%rbp),%eax
    8f14:	ba 00 00 00 00       	mov    $0x0,%edx
    8f19:	f7 75 f8             	divl   -0x8(%rbp)
    8f1c:	89 d0                	mov    %edx,%eax
    8f1e:	eb 03                	jmp    8f23 <safe_mod_func_uint32_t_u_u+0x26>
    8f20:	8b 45 fc             	mov    -0x4(%rbp),%eax
    8f23:	5d                   	pop    %rbp
    8f24:	c3                   	retq   

0000000000008f25 <safe_div_func_uint32_t_u_u>:
    8f25:	f3 0f 1e fa          	endbr64 
    8f29:	55                   	push   %rbp
    8f2a:	48 89 e5             	mov    %rsp,%rbp
    8f2d:	89 7d fc             	mov    %edi,-0x4(%rbp)
    8f30:	89 75 f8             	mov    %esi,-0x8(%rbp)
    8f33:	83 7d f8 00          	cmpl   $0x0,-0x8(%rbp)
    8f37:	74 0d                	je     8f46 <safe_div_func_uint32_t_u_u+0x21>
    8f39:	8b 45 fc             	mov    -0x4(%rbp),%eax
    8f3c:	ba 00 00 00 00       	mov    $0x0,%edx
    8f41:	f7 75 f8             	divl   -0x8(%rbp)
    8f44:	eb 03                	jmp    8f49 <safe_div_func_uint32_t_u_u+0x24>
    8f46:	8b 45 fc             	mov    -0x4(%rbp),%eax
    8f49:	5d                   	pop    %rbp
    8f4a:	c3                   	retq   

0000000000008f4b <safe_lshift_func_uint32_t_u_s>:
    8f4b:	f3 0f 1e fa          	endbr64 
    8f4f:	55                   	push   %rbp
    8f50:	48 89 e5             	mov    %rsp,%rbp
    8f53:	89 7d fc             	mov    %edi,-0x4(%rbp)
    8f56:	89 75 f8             	mov    %esi,-0x8(%rbp)
    8f59:	83 7d f8 00          	cmpl   $0x0,-0x8(%rbp)
    8f5d:	78 27                	js     8f86 <safe_lshift_func_uint32_t_u_s+0x3b>
    8f5f:	83 7d f8 1f          	cmpl   $0x1f,-0x8(%rbp)
    8f63:	7f 21                	jg     8f86 <safe_lshift_func_uint32_t_u_s+0x3b>
    8f65:	8b 45 f8             	mov    -0x8(%rbp),%eax
    8f68:	ba ff ff ff ff       	mov    $0xffffffff,%edx
    8f6d:	89 c1                	mov    %eax,%ecx
    8f6f:	d3 ea                	shr    %cl,%edx
    8f71:	89 d0                	mov    %edx,%eax
    8f73:	39 45 fc             	cmp    %eax,-0x4(%rbp)
    8f76:	77 0e                	ja     8f86 <safe_lshift_func_uint32_t_u_s+0x3b>
    8f78:	8b 45 f8             	mov    -0x8(%rbp),%eax
    8f7b:	8b 55 fc             	mov    -0x4(%rbp),%edx
    8f7e:	89 c1                	mov    %eax,%ecx
    8f80:	d3 e2                	shl    %cl,%edx
    8f82:	89 d0                	mov    %edx,%eax
    8f84:	eb 03                	jmp    8f89 <safe_lshift_func_uint32_t_u_s+0x3e>
    8f86:	8b 45 fc             	mov    -0x4(%rbp),%eax
    8f89:	5d                   	pop    %rbp
    8f8a:	c3                   	retq   

0000000000008f8b <safe_lshift_func_uint32_t_u_u>:
    8f8b:	f3 0f 1e fa          	endbr64 
    8f8f:	55                   	push   %rbp
    8f90:	48 89 e5             	mov    %rsp,%rbp
    8f93:	89 7d fc             	mov    %edi,-0x4(%rbp)
    8f96:	89 75 f8             	mov    %esi,-0x8(%rbp)
    8f99:	83 7d f8 1f          	cmpl   $0x1f,-0x8(%rbp)
    8f9d:	77 21                	ja     8fc0 <safe_lshift_func_uint32_t_u_u+0x35>
    8f9f:	8b 45 f8             	mov    -0x8(%rbp),%eax
    8fa2:	ba ff ff ff ff       	mov    $0xffffffff,%edx
    8fa7:	89 c1                	mov    %eax,%ecx
    8fa9:	d3 ea                	shr    %cl,%edx
    8fab:	89 d0                	mov    %edx,%eax
    8fad:	39 45 fc             	cmp    %eax,-0x4(%rbp)
    8fb0:	77 0e                	ja     8fc0 <safe_lshift_func_uint32_t_u_u+0x35>
    8fb2:	8b 45 f8             	mov    -0x8(%rbp),%eax
    8fb5:	8b 55 fc             	mov    -0x4(%rbp),%edx
    8fb8:	89 c1                	mov    %eax,%ecx
    8fba:	d3 e2                	shl    %cl,%edx
    8fbc:	89 d0                	mov    %edx,%eax
    8fbe:	eb 03                	jmp    8fc3 <safe_lshift_func_uint32_t_u_u+0x38>
    8fc0:	8b 45 fc             	mov    -0x4(%rbp),%eax
    8fc3:	5d                   	pop    %rbp
    8fc4:	c3                   	retq   

0000000000008fc5 <safe_rshift_func_uint32_t_u_s>:
    8fc5:	f3 0f 1e fa          	endbr64 
    8fc9:	55                   	push   %rbp
    8fca:	48 89 e5             	mov    %rsp,%rbp
    8fcd:	89 7d fc             	mov    %edi,-0x4(%rbp)
    8fd0:	89 75 f8             	mov    %esi,-0x8(%rbp)
    8fd3:	83 7d f8 00          	cmpl   $0x0,-0x8(%rbp)
    8fd7:	78 14                	js     8fed <safe_rshift_func_uint32_t_u_s+0x28>
    8fd9:	83 7d f8 1f          	cmpl   $0x1f,-0x8(%rbp)
    8fdd:	7f 0e                	jg     8fed <safe_rshift_func_uint32_t_u_s+0x28>
    8fdf:	8b 45 f8             	mov    -0x8(%rbp),%eax
    8fe2:	8b 55 fc             	mov    -0x4(%rbp),%edx
    8fe5:	89 c1                	mov    %eax,%ecx
    8fe7:	d3 ea                	shr    %cl,%edx
    8fe9:	89 d0                	mov    %edx,%eax
    8feb:	eb 03                	jmp    8ff0 <safe_rshift_func_uint32_t_u_s+0x2b>
    8fed:	8b 45 fc             	mov    -0x4(%rbp),%eax
    8ff0:	5d                   	pop    %rbp
    8ff1:	c3                   	retq   

0000000000008ff2 <safe_rshift_func_uint32_t_u_u>:
    8ff2:	f3 0f 1e fa          	endbr64 
    8ff6:	55                   	push   %rbp
    8ff7:	48 89 e5             	mov    %rsp,%rbp
    8ffa:	89 7d fc             	mov    %edi,-0x4(%rbp)
    8ffd:	89 75 f8             	mov    %esi,-0x8(%rbp)
    9000:	83 7d f8 1f          	cmpl   $0x1f,-0x8(%rbp)
    9004:	77 0e                	ja     9014 <safe_rshift_func_uint32_t_u_u+0x22>
    9006:	8b 45 f8             	mov    -0x8(%rbp),%eax
    9009:	8b 55 fc             	mov    -0x4(%rbp),%edx
    900c:	89 c1                	mov    %eax,%ecx
    900e:	d3 ea                	shr    %cl,%edx
    9010:	89 d0                	mov    %edx,%eax
    9012:	eb 03                	jmp    9017 <safe_rshift_func_uint32_t_u_u+0x25>
    9014:	8b 45 fc             	mov    -0x4(%rbp),%eax
    9017:	5d                   	pop    %rbp
    9018:	c3                   	retq   

0000000000009019 <safe_unary_minus_func_uint64_t_u>:
    9019:	f3 0f 1e fa          	endbr64 
    901d:	55                   	push   %rbp
    901e:	48 89 e5             	mov    %rsp,%rbp
    9021:	48 89 7d f8          	mov    %rdi,-0x8(%rbp)
    9025:	48 8b 45 f8          	mov    -0x8(%rbp),%rax
    9029:	48 f7 d8             	neg    %rax
    902c:	5d                   	pop    %rbp
    902d:	c3                   	retq   

000000000000902e <safe_add_func_uint64_t_u_u>:
    902e:	f3 0f 1e fa          	endbr64 
    9032:	55                   	push   %rbp
    9033:	48 89 e5             	mov    %rsp,%rbp
    9036:	48 89 7d f8          	mov    %rdi,-0x8(%rbp)
    903a:	48 89 75 f0          	mov    %rsi,-0x10(%rbp)
    903e:	48 8b 55 f8          	mov    -0x8(%rbp),%rdx
    9042:	48 8b 45 f0          	mov    -0x10(%rbp),%rax
    9046:	48 01 d0             	add    %rdx,%rax
    9049:	5d                   	pop    %rbp
    904a:	c3                   	retq   

000000000000904b <safe_sub_func_uint64_t_u_u>:
    904b:	f3 0f 1e fa          	endbr64 
    904f:	55                   	push   %rbp
    9050:	48 89 e5             	mov    %rsp,%rbp
    9053:	48 89 7d f8          	mov    %rdi,-0x8(%rbp)
    9057:	48 89 75 f0          	mov    %rsi,-0x10(%rbp)
    905b:	48 8b 45 f8          	mov    -0x8(%rbp),%rax
    905f:	48 2b 45 f0          	sub    -0x10(%rbp),%rax
    9063:	5d                   	pop    %rbp
    9064:	c3                   	retq   

0000000000009065 <safe_mul_func_uint64_t_u_u>:
    9065:	f3 0f 1e fa          	endbr64 
    9069:	55                   	push   %rbp
    906a:	48 89 e5             	mov    %rsp,%rbp
    906d:	48 89 7d f8          	mov    %rdi,-0x8(%rbp)
    9071:	48 89 75 f0          	mov    %rsi,-0x10(%rbp)
    9075:	48 8b 45 f8          	mov    -0x8(%rbp),%rax
    9079:	48 0f af 45 f0       	imul   -0x10(%rbp),%rax
    907e:	5d                   	pop    %rbp
    907f:	c3                   	retq   

0000000000009080 <safe_mod_func_uint64_t_u_u>:
    9080:	f3 0f 1e fa          	endbr64 
    9084:	55                   	push   %rbp
    9085:	48 89 e5             	mov    %rsp,%rbp
    9088:	48 89 7d f8          	mov    %rdi,-0x8(%rbp)
    908c:	48 89 75 f0          	mov    %rsi,-0x10(%rbp)
    9090:	48 83 7d f0 00       	cmpq   $0x0,-0x10(%rbp)
    9095:	74 12                	je     90a9 <safe_mod_func_uint64_t_u_u+0x29>
    9097:	48 8b 45 f8          	mov    -0x8(%rbp),%rax
    909b:	ba 00 00 00 00       	mov    $0x0,%edx
    90a0:	48 f7 75 f0          	divq   -0x10(%rbp)
    90a4:	48 89 d0             	mov    %rdx,%rax
    90a7:	eb 04                	jmp    90ad <safe_mod_func_uint64_t_u_u+0x2d>
    90a9:	48 8b 45 f8          	mov    -0x8(%rbp),%rax
    90ad:	5d                   	pop    %rbp
    90ae:	c3                   	retq   

00000000000090af <safe_div_func_uint64_t_u_u>:
    90af:	f3 0f 1e fa          	endbr64 
    90b3:	55                   	push   %rbp
    90b4:	48 89 e5             	mov    %rsp,%rbp
    90b7:	48 89 7d f8          	mov    %rdi,-0x8(%rbp)
    90bb:	48 89 75 f0          	mov    %rsi,-0x10(%rbp)
    90bf:	48 83 7d f0 00       	cmpq   $0x0,-0x10(%rbp)
    90c4:	74 0f                	je     90d5 <safe_div_func_uint64_t_u_u+0x26>
    90c6:	48 8b 45 f8          	mov    -0x8(%rbp),%rax
    90ca:	ba 00 00 00 00       	mov    $0x0,%edx
    90cf:	48 f7 75 f0          	divq   -0x10(%rbp)
    90d3:	eb 04                	jmp    90d9 <safe_div_func_uint64_t_u_u+0x2a>
    90d5:	48 8b 45 f8          	mov    -0x8(%rbp),%rax
    90d9:	5d                   	pop    %rbp
    90da:	c3                   	retq   

00000000000090db <safe_lshift_func_uint64_t_u_s>:
    90db:	f3 0f 1e fa          	endbr64 
    90df:	55                   	push   %rbp
    90e0:	48 89 e5             	mov    %rsp,%rbp
    90e3:	48 89 7d f8          	mov    %rdi,-0x8(%rbp)
    90e7:	89 75 f4             	mov    %esi,-0xc(%rbp)
    90ea:	83 7d f4 00          	cmpl   $0x0,-0xc(%rbp)
    90ee:	78 2f                	js     911f <safe_lshift_func_uint64_t_u_s+0x44>
    90f0:	83 7d f4 1f          	cmpl   $0x1f,-0xc(%rbp)
    90f4:	7f 29                	jg     911f <safe_lshift_func_uint64_t_u_s+0x44>
    90f6:	8b 45 f4             	mov    -0xc(%rbp),%eax
    90f9:	48 c7 c2 ff ff ff ff 	mov    $0xffffffffffffffff,%rdx
    9100:	89 c1                	mov    %eax,%ecx
    9102:	48 d3 ea             	shr    %cl,%rdx
    9105:	48 89 d0             	mov    %rdx,%rax
    9108:	48 39 45 f8          	cmp    %rax,-0x8(%rbp)
    910c:	77 11                	ja     911f <safe_lshift_func_uint64_t_u_s+0x44>
    910e:	8b 45 f4             	mov    -0xc(%rbp),%eax
    9111:	48 8b 55 f8          	mov    -0x8(%rbp),%rdx
    9115:	89 c1                	mov    %eax,%ecx
    9117:	48 d3 e2             	shl    %cl,%rdx
    911a:	48 89 d0             	mov    %rdx,%rax
    911d:	eb 04                	jmp    9123 <safe_lshift_func_uint64_t_u_s+0x48>
    911f:	48 8b 45 f8          	mov    -0x8(%rbp),%rax
    9123:	5d                   	pop    %rbp
    9124:	c3                   	retq   

0000000000009125 <safe_lshift_func_uint64_t_u_u>:
    9125:	f3 0f 1e fa          	endbr64 
    9129:	55                   	push   %rbp
    912a:	48 89 e5             	mov    %rsp,%rbp
    912d:	48 89 7d f8          	mov    %rdi,-0x8(%rbp)
    9131:	89 75 f4             	mov    %esi,-0xc(%rbp)
    9134:	83 7d f4 1f          	cmpl   $0x1f,-0xc(%rbp)
    9138:	77 29                	ja     9163 <safe_lshift_func_uint64_t_u_u+0x3e>
    913a:	8b 45 f4             	mov    -0xc(%rbp),%eax
    913d:	48 c7 c2 ff ff ff ff 	mov    $0xffffffffffffffff,%rdx
    9144:	89 c1                	mov    %eax,%ecx
    9146:	48 d3 ea             	shr    %cl,%rdx
    9149:	48 89 d0             	mov    %rdx,%rax
    914c:	48 39 45 f8          	cmp    %rax,-0x8(%rbp)
    9150:	77 11                	ja     9163 <safe_lshift_func_uint64_t_u_u+0x3e>
    9152:	8b 45 f4             	mov    -0xc(%rbp),%eax
    9155:	48 8b 55 f8          	mov    -0x8(%rbp),%rdx
    9159:	89 c1                	mov    %eax,%ecx
    915b:	48 d3 e2             	shl    %cl,%rdx
    915e:	48 89 d0             	mov    %rdx,%rax
    9161:	eb 04                	jmp    9167 <safe_lshift_func_uint64_t_u_u+0x42>
    9163:	48 8b 45 f8          	mov    -0x8(%rbp),%rax
    9167:	5d                   	pop    %rbp
    9168:	c3                   	retq   

0000000000009169 <safe_rshift_func_uint64_t_u_s>:
    9169:	f3 0f 1e fa          	endbr64 
    916d:	55                   	push   %rbp
    916e:	48 89 e5             	mov    %rsp,%rbp
    9171:	48 89 7d f8          	mov    %rdi,-0x8(%rbp)
    9175:	89 75 f4             	mov    %esi,-0xc(%rbp)
    9178:	83 7d f4 00          	cmpl   $0x0,-0xc(%rbp)
    917c:	78 17                	js     9195 <safe_rshift_func_uint64_t_u_s+0x2c>
    917e:	83 7d f4 1f          	cmpl   $0x1f,-0xc(%rbp)
    9182:	7f 11                	jg     9195 <safe_rshift_func_uint64_t_u_s+0x2c>
    9184:	8b 45 f4             	mov    -0xc(%rbp),%eax
    9187:	48 8b 55 f8          	mov    -0x8(%rbp),%rdx
    918b:	89 c1                	mov    %eax,%ecx
    918d:	48 d3 ea             	shr    %cl,%rdx
    9190:	48 89 d0             	mov    %rdx,%rax
    9193:	eb 04                	jmp    9199 <safe_rshift_func_uint64_t_u_s+0x30>
    9195:	48 8b 45 f8          	mov    -0x8(%rbp),%rax
    9199:	5d                   	pop    %rbp
    919a:	c3                   	retq   

000000000000919b <safe_rshift_func_uint64_t_u_u>:
    919b:	f3 0f 1e fa          	endbr64 
    919f:	55                   	push   %rbp
    91a0:	48 89 e5             	mov    %rsp,%rbp
    91a3:	48 89 7d f8          	mov    %rdi,-0x8(%rbp)
    91a7:	89 75 f4             	mov    %esi,-0xc(%rbp)
    91aa:	83 7d f4 1f          	cmpl   $0x1f,-0xc(%rbp)
    91ae:	77 11                	ja     91c1 <safe_rshift_func_uint64_t_u_u+0x26>
    91b0:	8b 45 f4             	mov    -0xc(%rbp),%eax
    91b3:	48 8b 55 f8          	mov    -0x8(%rbp),%rdx
    91b7:	89 c1                	mov    %eax,%ecx
    91b9:	48 d3 ea             	shr    %cl,%rdx
    91bc:	48 89 d0             	mov    %rdx,%rax
    91bf:	eb 04                	jmp    91c5 <safe_rshift_func_uint64_t_u_u+0x2a>
    91c1:	48 8b 45 f8          	mov    -0x8(%rbp),%rax
    91c5:	5d                   	pop    %rbp
    91c6:	c3                   	retq   

00000000000091c7 <safe_add_func_float_f_f>:
    91c7:	f3 0f 1e fa          	endbr64 
    91cb:	55                   	push   %rbp
    91cc:	48 89 e5             	mov    %rsp,%rbp
    91cf:	f3 0f 11 45 fc       	movss  %xmm0,-0x4(%rbp)
    91d4:	f3 0f 11 4d f8       	movss  %xmm1,-0x8(%rbp)
    91d9:	f3 0f 10 4d fc       	movss  -0x4(%rbp),%xmm1
    91de:	f3 0f 10 05 8a 0d 01 	movss  0x10d8a(%rip),%xmm0        # 19f70 <l_607.5281+0x50>
    91e5:	00 
    91e6:	f3 0f 59 c8          	mulss  %xmm0,%xmm1
    91ea:	f3 0f 10 55 f8       	movss  -0x8(%rbp),%xmm2
    91ef:	f3 0f 10 05 79 0d 01 	movss  0x10d79(%rip),%xmm0        # 19f70 <l_607.5281+0x50>
    91f6:	00 
    91f7:	f3 0f 59 c2          	mulss  %xmm2,%xmm0
    91fb:	f3 0f 58 c1          	addss  %xmm1,%xmm0
    91ff:	f3 0f 10 0d 79 0d 01 	movss  0x10d79(%rip),%xmm1        # 19f80 <l_607.5281+0x60>
    9206:	00 
    9207:	0f 54 c1             	andps  %xmm1,%xmm0
    920a:	0f 2f 05 7f 0d 01 00 	comiss 0x10d7f(%rip),%xmm0        # 19f90 <l_607.5281+0x70>
    9211:	76 07                	jbe    921a <safe_add_func_float_f_f+0x53>
    9213:	f3 0f 10 45 fc       	movss  -0x4(%rbp),%xmm0
    9218:	eb 0a                	jmp    9224 <safe_add_func_float_f_f+0x5d>
    921a:	f3 0f 10 45 fc       	movss  -0x4(%rbp),%xmm0
    921f:	f3 0f 58 45 f8       	addss  -0x8(%rbp),%xmm0
    9224:	5d                   	pop    %rbp
    9225:	c3                   	retq   

0000000000009226 <safe_sub_func_float_f_f>:
    9226:	f3 0f 1e fa          	endbr64 
    922a:	55                   	push   %rbp
    922b:	48 89 e5             	mov    %rsp,%rbp
    922e:	f3 0f 11 45 fc       	movss  %xmm0,-0x4(%rbp)
    9233:	f3 0f 11 4d f8       	movss  %xmm1,-0x8(%rbp)
    9238:	f3 0f 10 4d fc       	movss  -0x4(%rbp),%xmm1
    923d:	f3 0f 10 05 2b 0d 01 	movss  0x10d2b(%rip),%xmm0        # 19f70 <l_607.5281+0x50>
    9244:	00 
    9245:	f3 0f 59 c1          	mulss  %xmm1,%xmm0
    9249:	f3 0f 10 55 f8       	movss  -0x8(%rbp),%xmm2
    924e:	f3 0f 10 0d 1a 0d 01 	movss  0x10d1a(%rip),%xmm1        # 19f70 <l_607.5281+0x50>
    9255:	00 
    9256:	f3 0f 59 ca          	mulss  %xmm2,%xmm1
    925a:	f3 0f 5c c1          	subss  %xmm1,%xmm0
    925e:	f3 0f 10 0d 1a 0d 01 	movss  0x10d1a(%rip),%xmm1        # 19f80 <l_607.5281+0x60>
    9265:	00 
    9266:	0f 54 c1             	andps  %xmm1,%xmm0
    9269:	0f 2f 05 20 0d 01 00 	comiss 0x10d20(%rip),%xmm0        # 19f90 <l_607.5281+0x70>
    9270:	76 07                	jbe    9279 <safe_sub_func_float_f_f+0x53>
    9272:	f3 0f 10 45 fc       	movss  -0x4(%rbp),%xmm0
    9277:	eb 0a                	jmp    9283 <safe_sub_func_float_f_f+0x5d>
    9279:	f3 0f 10 45 fc       	movss  -0x4(%rbp),%xmm0
    927e:	f3 0f 5c 45 f8       	subss  -0x8(%rbp),%xmm0
    9283:	5d                   	pop    %rbp
    9284:	c3                   	retq   

0000000000009285 <safe_mul_func_float_f_f>:
    9285:	f3 0f 1e fa          	endbr64 
    9289:	55                   	push   %rbp
    928a:	48 89 e5             	mov    %rsp,%rbp
    928d:	f3 0f 11 45 fc       	movss  %xmm0,-0x4(%rbp)
    9292:	f3 0f 11 4d f8       	movss  %xmm1,-0x8(%rbp)
    9297:	f3 0f 10 4d fc       	movss  -0x4(%rbp),%xmm1
    929c:	f3 0f 10 05 f0 0c 01 	movss  0x10cf0(%rip),%xmm0        # 19f94 <l_607.5281+0x74>
    92a3:	00 
    92a4:	f3 0f 59 c8          	mulss  %xmm0,%xmm1
    92a8:	f3 0f 10 55 f8       	movss  -0x8(%rbp),%xmm2
    92ad:	f3 0f 10 05 e3 0c 01 	movss  0x10ce3(%rip),%xmm0        # 19f98 <l_607.5281+0x78>
    92b4:	00 
    92b5:	f3 0f 59 c2          	mulss  %xmm2,%xmm0
    92b9:	f3 0f 59 c1          	mulss  %xmm1,%xmm0
    92bd:	f3 0f 10 0d bb 0c 01 	movss  0x10cbb(%rip),%xmm1        # 19f80 <l_607.5281+0x60>
    92c4:	00 
    92c5:	0f 54 c1             	andps  %xmm1,%xmm0
    92c8:	0f 2f 05 cd 0c 01 00 	comiss 0x10ccd(%rip),%xmm0        # 19f9c <l_607.5281+0x7c>
    92cf:	76 07                	jbe    92d8 <safe_mul_func_float_f_f+0x53>
    92d1:	f3 0f 10 45 fc       	movss  -0x4(%rbp),%xmm0
    92d6:	eb 0a                	jmp    92e2 <safe_mul_func_float_f_f+0x5d>
    92d8:	f3 0f 10 45 fc       	movss  -0x4(%rbp),%xmm0
    92dd:	f3 0f 59 45 f8       	mulss  -0x8(%rbp),%xmm0
    92e2:	5d                   	pop    %rbp
    92e3:	c3                   	retq   

00000000000092e4 <safe_div_func_float_f_f>:
    92e4:	f3 0f 1e fa          	endbr64 
    92e8:	55                   	push   %rbp
    92e9:	48 89 e5             	mov    %rsp,%rbp
    92ec:	f3 0f 11 45 fc       	movss  %xmm0,-0x4(%rbp)
    92f1:	f3 0f 11 4d f8       	movss  %xmm1,-0x8(%rbp)
    92f6:	f3 0f 10 45 f8       	movss  -0x8(%rbp),%xmm0
    92fb:	f3 0f 10 0d 7d 0c 01 	movss  0x10c7d(%rip),%xmm1        # 19f80 <l_607.5281+0x60>
    9302:	00 
    9303:	0f 54 c8             	andps  %xmm0,%xmm1
    9306:	f3 0f 10 05 92 0c 01 	movss  0x10c92(%rip),%xmm0        # 19fa0 <l_607.5281+0x80>
    930d:	00 
    930e:	0f 2f c1             	comiss %xmm1,%xmm0
    9311:	0f 97 c0             	seta   %al
    9314:	83 f0 01             	xor    $0x1,%eax
    9317:	84 c0                	test   %al,%al
    9319:	75 56                	jne    9371 <safe_div_func_float_f_f+0x8d>
    931b:	66 0f ef c0          	pxor   %xmm0,%xmm0
    931f:	0f 2e 45 f8          	ucomiss -0x8(%rbp),%xmm0
    9323:	7a 0a                	jp     932f <safe_div_func_float_f_f+0x4b>
    9325:	66 0f ef c0          	pxor   %xmm0,%xmm0
    9329:	0f 2e 45 f8          	ucomiss -0x8(%rbp),%xmm0
    932d:	74 4e                	je     937d <safe_div_func_float_f_f+0x99>
    932f:	f3 0f 10 4d fc       	movss  -0x4(%rbp),%xmm1
    9334:	f3 0f 10 05 68 0c 01 	movss  0x10c68(%rip),%xmm0        # 19fa4 <l_607.5281+0x84>
    933b:	00 
    933c:	f3 0f 59 c1          	mulss  %xmm1,%xmm0
    9340:	f3 0f 10 55 f8       	movss  -0x8(%rbp),%xmm2
    9345:	f3 0f 10 0d 5b 0c 01 	movss  0x10c5b(%rip),%xmm1        # 19fa8 <l_607.5281+0x88>
    934c:	00 
    934d:	f3 0f 59 ca          	mulss  %xmm2,%xmm1
    9351:	f3 0f 5e c1          	divss  %xmm1,%xmm0
    9355:	f3 0f 10 0d 23 0c 01 	movss  0x10c23(%rip),%xmm1        # 19f80 <l_607.5281+0x60>
    935c:	00 
    935d:	0f 54 c1             	andps  %xmm1,%xmm0
    9360:	0f 2f 05 45 0c 01 00 	comiss 0x10c45(%rip),%xmm0        # 19fac <l_607.5281+0x8c>
    9367:	0f 97 c0             	seta   %al
    936a:	83 f0 01             	xor    $0x1,%eax
    936d:	84 c0                	test   %al,%al
    936f:	74 0c                	je     937d <safe_div_func_float_f_f+0x99>
    9371:	f3 0f 10 45 fc       	movss  -0x4(%rbp),%xmm0
    9376:	f3 0f 5e 45 f8       	divss  -0x8(%rbp),%xmm0
    937b:	eb 05                	jmp    9382 <safe_div_func_float_f_f+0x9e>
    937d:	f3 0f 10 45 fc       	movss  -0x4(%rbp),%xmm0
    9382:	5d                   	pop    %rbp
    9383:	c3                   	retq   

0000000000009384 <safe_add_func_double_f_f>:
    9384:	f3 0f 1e fa          	endbr64 
    9388:	55                   	push   %rbp
    9389:	48 89 e5             	mov    %rsp,%rbp
    938c:	f2 0f 11 45 f8       	movsd  %xmm0,-0x8(%rbp)
    9391:	f2 0f 11 4d f0       	movsd  %xmm1,-0x10(%rbp)
    9396:	f2 0f 10 4d f8       	movsd  -0x8(%rbp),%xmm1
    939b:	f2 0f 10 05 0d 0c 01 	movsd  0x10c0d(%rip),%xmm0        # 19fb0 <l_607.5281+0x90>
    93a2:	00 
    93a3:	f2 0f 59 c8          	mulsd  %xmm0,%xmm1
    93a7:	f2 0f 10 55 f0       	movsd  -0x10(%rbp),%xmm2
    93ac:	f2 0f 10 05 fc 0b 01 	movsd  0x10bfc(%rip),%xmm0        # 19fb0 <l_607.5281+0x90>
    93b3:	00 
    93b4:	f2 0f 59 c2          	mulsd  %xmm2,%xmm0
    93b8:	f2 0f 58 c1          	addsd  %xmm1,%xmm0
    93bc:	f3 0f 7e 0d fc 0b 01 	movq   0x10bfc(%rip),%xmm1        # 19fc0 <l_607.5281+0xa0>
    93c3:	00 
    93c4:	66 0f 54 c1          	andpd  %xmm1,%xmm0
    93c8:	66 0f 2f 05 00 0c 01 	comisd 0x10c00(%rip),%xmm0        # 19fd0 <l_607.5281+0xb0>
    93cf:	00 
    93d0:	76 07                	jbe    93d9 <safe_add_func_double_f_f+0x55>
    93d2:	f2 0f 10 45 f8       	movsd  -0x8(%rbp),%xmm0
    93d7:	eb 0a                	jmp    93e3 <safe_add_func_double_f_f+0x5f>
    93d9:	f2 0f 10 45 f8       	movsd  -0x8(%rbp),%xmm0
    93de:	f2 0f 58 45 f0       	addsd  -0x10(%rbp),%xmm0
    93e3:	5d                   	pop    %rbp
    93e4:	c3                   	retq   

00000000000093e5 <safe_sub_func_double_f_f>:
    93e5:	f3 0f 1e fa          	endbr64 
    93e9:	55                   	push   %rbp
    93ea:	48 89 e5             	mov    %rsp,%rbp
    93ed:	f2 0f 11 45 f8       	movsd  %xmm0,-0x8(%rbp)
    93f2:	f2 0f 11 4d f0       	movsd  %xmm1,-0x10(%rbp)
    93f7:	f2 0f 10 4d f8       	movsd  -0x8(%rbp),%xmm1
    93fc:	f2 0f 10 05 ac 0b 01 	movsd  0x10bac(%rip),%xmm0        # 19fb0 <l_607.5281+0x90>
    9403:	00 
    9404:	f2 0f 59 c1          	mulsd  %xmm1,%xmm0
    9408:	f2 0f 10 55 f0       	movsd  -0x10(%rbp),%xmm2
    940d:	f2 0f 10 0d 9b 0b 01 	movsd  0x10b9b(%rip),%xmm1        # 19fb0 <l_607.5281+0x90>
    9414:	00 
    9415:	f2 0f 59 ca          	mulsd  %xmm2,%xmm1
    9419:	f2 0f 5c c1          	subsd  %xmm1,%xmm0
    941d:	f3 0f 7e 0d 9b 0b 01 	movq   0x10b9b(%rip),%xmm1        # 19fc0 <l_607.5281+0xa0>
    9424:	00 
    9425:	66 0f 54 c1          	andpd  %xmm1,%xmm0
    9429:	66 0f 2f 05 9f 0b 01 	comisd 0x10b9f(%rip),%xmm0        # 19fd0 <l_607.5281+0xb0>
    9430:	00 
    9431:	76 07                	jbe    943a <safe_sub_func_double_f_f+0x55>
    9433:	f2 0f 10 45 f8       	movsd  -0x8(%rbp),%xmm0
    9438:	eb 0a                	jmp    9444 <safe_sub_func_double_f_f+0x5f>
    943a:	f2 0f 10 45 f8       	movsd  -0x8(%rbp),%xmm0
    943f:	f2 0f 5c 45 f0       	subsd  -0x10(%rbp),%xmm0
    9444:	5d                   	pop    %rbp
    9445:	c3                   	retq   

0000000000009446 <safe_mul_func_double_f_f>:
    9446:	f3 0f 1e fa          	endbr64 
    944a:	55                   	push   %rbp
    944b:	48 89 e5             	mov    %rsp,%rbp
    944e:	f2 0f 11 45 f8       	movsd  %xmm0,-0x8(%rbp)
    9453:	f2 0f 11 4d f0       	movsd  %xmm1,-0x10(%rbp)
    9458:	f2 0f 10 4d f8       	movsd  -0x8(%rbp),%xmm1
    945d:	f2 0f 10 05 73 0b 01 	movsd  0x10b73(%rip),%xmm0        # 19fd8 <l_607.5281+0xb8>
    9464:	00 
    9465:	f2 0f 59 c8          	mulsd  %xmm0,%xmm1
    9469:	f2 0f 10 55 f0       	movsd  -0x10(%rbp),%xmm2
    946e:	f2 0f 10 05 6a 0b 01 	movsd  0x10b6a(%rip),%xmm0        # 19fe0 <l_607.5281+0xc0>
    9475:	00 
    9476:	f2 0f 59 c2          	mulsd  %xmm2,%xmm0
    947a:	f2 0f 59 c1          	mulsd  %xmm1,%xmm0
    947e:	f3 0f 7e 0d 3a 0b 01 	movq   0x10b3a(%rip),%xmm1        # 19fc0 <l_607.5281+0xa0>
    9485:	00 
    9486:	66 0f 54 c1          	andpd  %xmm1,%xmm0
    948a:	66 0f 2f 05 56 0b 01 	comisd 0x10b56(%rip),%xmm0        # 19fe8 <l_607.5281+0xc8>
    9491:	00 
    9492:	76 07                	jbe    949b <safe_mul_func_double_f_f+0x55>
    9494:	f2 0f 10 45 f8       	movsd  -0x8(%rbp),%xmm0
    9499:	eb 0a                	jmp    94a5 <safe_mul_func_double_f_f+0x5f>
    949b:	f2 0f 10 45 f8       	movsd  -0x8(%rbp),%xmm0
    94a0:	f2 0f 59 45 f0       	mulsd  -0x10(%rbp),%xmm0
    94a5:	5d                   	pop    %rbp
    94a6:	c3                   	retq   

00000000000094a7 <safe_div_func_double_f_f>:
    94a7:	f3 0f 1e fa          	endbr64 
    94ab:	55                   	push   %rbp
    94ac:	48 89 e5             	mov    %rsp,%rbp
    94af:	f2 0f 11 45 f8       	movsd  %xmm0,-0x8(%rbp)
    94b4:	f2 0f 11 4d f0       	movsd  %xmm1,-0x10(%rbp)
    94b9:	f2 0f 10 45 f0       	movsd  -0x10(%rbp),%xmm0
    94be:	f3 0f 7e 0d fa 0a 01 	movq   0x10afa(%rip),%xmm1        # 19fc0 <l_607.5281+0xa0>
    94c5:	00 
    94c6:	66 0f 54 c8          	andpd  %xmm0,%xmm1
    94ca:	f2 0f 10 05 1e 0b 01 	movsd  0x10b1e(%rip),%xmm0        # 19ff0 <l_607.5281+0xd0>
    94d1:	00 
    94d2:	66 0f 2f c1          	comisd %xmm1,%xmm0
    94d6:	0f 97 c0             	seta   %al
    94d9:	83 f0 01             	xor    $0x1,%eax
    94dc:	84 c0                	test   %al,%al
    94de:	75 5a                	jne    953a <safe_div_func_double_f_f+0x93>
    94e0:	66 0f ef c0          	pxor   %xmm0,%xmm0
    94e4:	66 0f 2e 45 f0       	ucomisd -0x10(%rbp),%xmm0
    94e9:	7a 0b                	jp     94f6 <safe_div_func_double_f_f+0x4f>
    94eb:	66 0f ef c0          	pxor   %xmm0,%xmm0
    94ef:	66 0f 2e 45 f0       	ucomisd -0x10(%rbp),%xmm0
    94f4:	74 50                	je     9546 <safe_div_func_double_f_f+0x9f>
    94f6:	f2 0f 10 4d f8       	movsd  -0x8(%rbp),%xmm1
    94fb:	f2 0f 10 05 f5 0a 01 	movsd  0x10af5(%rip),%xmm0        # 19ff8 <l_607.5281+0xd8>
    9502:	00 
    9503:	f2 0f 59 c1          	mulsd  %xmm1,%xmm0
    9507:	f2 0f 10 55 f0       	movsd  -0x10(%rbp),%xmm2
    950c:	f2 0f 10 0d ec 0a 01 	movsd  0x10aec(%rip),%xmm1        # 1a000 <l_607.5281+0xe0>
    9513:	00 
    9514:	f2 0f 59 ca          	mulsd  %xmm2,%xmm1
    9518:	f2 0f 5e c1          	divsd  %xmm1,%xmm0
    951c:	f3 0f 7e 0d 9c 0a 01 	movq   0x10a9c(%rip),%xmm1        # 19fc0 <l_607.5281+0xa0>
    9523:	00 
    9524:	66 0f 54 c1          	andpd  %xmm1,%xmm0
    9528:	66 0f 2f 05 d8 0a 01 	comisd 0x10ad8(%rip),%xmm0        # 1a008 <l_607.5281+0xe8>
    952f:	00 
    9530:	0f 97 c0             	seta   %al
    9533:	83 f0 01             	xor    $0x1,%eax
    9536:	84 c0                	test   %al,%al
    9538:	74 0c                	je     9546 <safe_div_func_double_f_f+0x9f>
    953a:	f2 0f 10 45 f8       	movsd  -0x8(%rbp),%xmm0
    953f:	f2 0f 5e 45 f0       	divsd  -0x10(%rbp),%xmm0
    9544:	eb 05                	jmp    954b <safe_div_func_double_f_f+0xa4>
    9546:	f2 0f 10 45 f8       	movsd  -0x8(%rbp),%xmm0
    954b:	5d                   	pop    %rbp
    954c:	c3                   	retq   

000000000000954d <safe_convert_func_float_to_int32_t>:
    954d:	f3 0f 1e fa          	endbr64 
    9551:	55                   	push   %rbp
    9552:	48 89 e5             	mov    %rsp,%rbp
    9555:	f3 0f 11 45 fc       	movss  %xmm0,-0x4(%rbp)
    955a:	f3 0f 10 05 ae 0a 01 	movss  0x10aae(%rip),%xmm0        # 1a010 <l_607.5281+0xf0>
    9561:	00 
    9562:	0f 2f 45 fc          	comiss -0x4(%rbp),%xmm0
    9566:	0f 93 c0             	setae  %al
    9569:	83 f0 01             	xor    $0x1,%eax
    956c:	84 c0                	test   %al,%al
    956e:	74 21                	je     9591 <safe_convert_func_float_to_int32_t+0x44>
    9570:	f3 0f 10 45 fc       	movss  -0x4(%rbp),%xmm0
    9575:	0f 2f 05 98 0a 01 00 	comiss 0x10a98(%rip),%xmm0        # 1a014 <l_607.5281+0xf4>
    957c:	0f 93 c0             	setae  %al
    957f:	83 f0 01             	xor    $0x1,%eax
    9582:	84 c0                	test   %al,%al
    9584:	74 0b                	je     9591 <safe_convert_func_float_to_int32_t+0x44>
    9586:	f3 0f 10 45 fc       	movss  -0x4(%rbp),%xmm0
    958b:	f3 0f 2c c0          	cvttss2si %xmm0,%eax
    958f:	eb 05                	jmp    9596 <safe_convert_func_float_to_int32_t+0x49>
    9591:	b8 ff ff ff 7f       	mov    $0x7fffffff,%eax
    9596:	5d                   	pop    %rbp
    9597:	c3                   	retq   

0000000000009598 <crc32_gentab>:
    9598:	f3 0f 1e fa          	endbr64 
    959c:	55                   	push   %rbp
    959d:	48 89 e5             	mov    %rsp,%rbp
    95a0:	c7 45 fc 20 83 b8 ed 	movl   $0xedb88320,-0x4(%rbp)
    95a7:	c7 45 f4 00 00 00 00 	movl   $0x0,-0xc(%rbp)
    95ae:	eb 51                	jmp    9601 <crc32_gentab+0x69>
    95b0:	8b 45 f4             	mov    -0xc(%rbp),%eax
    95b3:	89 45 f0             	mov    %eax,-0x10(%rbp)
    95b6:	c7 45 f8 08 00 00 00 	movl   $0x8,-0x8(%rbp)
    95bd:	eb 1e                	jmp    95dd <crc32_gentab+0x45>
    95bf:	8b 45 f0             	mov    -0x10(%rbp),%eax
    95c2:	83 e0 01             	and    $0x1,%eax
    95c5:	85 c0                	test   %eax,%eax
    95c7:	74 0d                	je     95d6 <crc32_gentab+0x3e>
    95c9:	8b 45 f0             	mov    -0x10(%rbp),%eax
    95cc:	d1 e8                	shr    %eax
    95ce:	33 45 fc             	xor    -0x4(%rbp),%eax
    95d1:	89 45 f0             	mov    %eax,-0x10(%rbp)
    95d4:	eb 03                	jmp    95d9 <crc32_gentab+0x41>
    95d6:	d1 6d f0             	shrl   -0x10(%rbp)
    95d9:	83 6d f8 01          	subl   $0x1,-0x8(%rbp)
    95dd:	83 7d f8 00          	cmpl   $0x0,-0x8(%rbp)
    95e1:	7f dc                	jg     95bf <crc32_gentab+0x27>
    95e3:	8b 45 f4             	mov    -0xc(%rbp),%eax
    95e6:	48 98                	cltq   
    95e8:	48 8d 0c 85 00 00 00 	lea    0x0(,%rax,4),%rcx
    95ef:	00 
    95f0:	48 8d 15 49 7e 01 00 	lea    0x17e49(%rip),%rdx        # 21440 <crc32_tab>
    95f7:	8b 45 f0             	mov    -0x10(%rbp),%eax
    95fa:	89 04 11             	mov    %eax,(%rcx,%rdx,1)
    95fd:	83 45 f4 01          	addl   $0x1,-0xc(%rbp)
    9601:	81 7d f4 ff 00 00 00 	cmpl   $0xff,-0xc(%rbp)
    9608:	7e a6                	jle    95b0 <crc32_gentab+0x18>
    960a:	90                   	nop
    960b:	90                   	nop
    960c:	5d                   	pop    %rbp
    960d:	c3                   	retq   

000000000000960e <crc32_byte>:
    960e:	f3 0f 1e fa          	endbr64 
    9612:	55                   	push   %rbp
    9613:	48 89 e5             	mov    %rsp,%rbp
    9616:	89 f8                	mov    %edi,%eax
    9618:	88 45 fc             	mov    %al,-0x4(%rbp)
    961b:	8b 05 ff 39 01 00    	mov    0x139ff(%rip),%eax        # 1d020 <crc32_context>
    9621:	c1 e8 08             	shr    $0x8,%eax
    9624:	89 c1                	mov    %eax,%ecx
    9626:	0f b6 55 fc          	movzbl -0x4(%rbp),%edx
    962a:	8b 05 f0 39 01 00    	mov    0x139f0(%rip),%eax        # 1d020 <crc32_context>
    9630:	31 d0                	xor    %edx,%eax
    9632:	0f b6 c0             	movzbl %al,%eax
    9635:	89 c0                	mov    %eax,%eax
    9637:	48 8d 14 85 00 00 00 	lea    0x0(,%rax,4),%rdx
    963e:	00 
    963f:	48 8d 05 fa 7d 01 00 	lea    0x17dfa(%rip),%rax        # 21440 <crc32_tab>
    9646:	8b 04 02             	mov    (%rdx,%rax,1),%eax
    9649:	31 c8                	xor    %ecx,%eax
    964b:	89 05 cf 39 01 00    	mov    %eax,0x139cf(%rip)        # 1d020 <crc32_context>
    9651:	90                   	nop
    9652:	5d                   	pop    %rbp
    9653:	c3                   	retq   

0000000000009654 <crc32_8bytes>:
    9654:	f3 0f 1e fa          	endbr64 
    9658:	55                   	push   %rbp
    9659:	48 89 e5             	mov    %rsp,%rbp
    965c:	48 83 ec 08          	sub    $0x8,%rsp
    9660:	48 89 7d f8          	mov    %rdi,-0x8(%rbp)
    9664:	48 8b 45 f8          	mov    -0x8(%rbp),%rax
    9668:	0f b6 c0             	movzbl %al,%eax
    966b:	89 c7                	mov    %eax,%edi
    966d:	e8 9c ff ff ff       	callq  960e <crc32_byte>
    9672:	48 8b 45 f8          	mov    -0x8(%rbp),%rax
    9676:	48 c1 e8 08          	shr    $0x8,%rax
    967a:	0f b6 c0             	movzbl %al,%eax
    967d:	89 c7                	mov    %eax,%edi
    967f:	e8 8a ff ff ff       	callq  960e <crc32_byte>
    9684:	48 8b 45 f8          	mov    -0x8(%rbp),%rax
    9688:	48 c1 e8 10          	shr    $0x10,%rax
    968c:	0f b6 c0             	movzbl %al,%eax
    968f:	89 c7                	mov    %eax,%edi
    9691:	e8 78 ff ff ff       	callq  960e <crc32_byte>
    9696:	48 8b 45 f8          	mov    -0x8(%rbp),%rax
    969a:	48 c1 e8 18          	shr    $0x18,%rax
    969e:	0f b6 c0             	movzbl %al,%eax
    96a1:	89 c7                	mov    %eax,%edi
    96a3:	e8 66 ff ff ff       	callq  960e <crc32_byte>
    96a8:	48 8b 45 f8          	mov    -0x8(%rbp),%rax
    96ac:	48 c1 e8 20          	shr    $0x20,%rax
    96b0:	0f b6 c0             	movzbl %al,%eax
    96b3:	89 c7                	mov    %eax,%edi
    96b5:	e8 54 ff ff ff       	callq  960e <crc32_byte>
    96ba:	48 8b 45 f8          	mov    -0x8(%rbp),%rax
    96be:	48 c1 e8 28          	shr    $0x28,%rax
    96c2:	0f b6 c0             	movzbl %al,%eax
    96c5:	89 c7                	mov    %eax,%edi
    96c7:	e8 42 ff ff ff       	callq  960e <crc32_byte>
    96cc:	48 8b 45 f8          	mov    -0x8(%rbp),%rax
    96d0:	48 c1 e8 30          	shr    $0x30,%rax
    96d4:	0f b6 c0             	movzbl %al,%eax
    96d7:	89 c7                	mov    %eax,%edi
    96d9:	e8 30 ff ff ff       	callq  960e <crc32_byte>
    96de:	48 8b 45 f8          	mov    -0x8(%rbp),%rax
    96e2:	48 c1 e8 38          	shr    $0x38,%rax
    96e6:	0f b6 c0             	movzbl %al,%eax
    96e9:	89 c7                	mov    %eax,%edi
    96eb:	e8 1e ff ff ff       	callq  960e <crc32_byte>
    96f0:	90                   	nop
    96f1:	c9                   	leaveq 
    96f2:	c3                   	retq   

00000000000096f3 <transparent_crc>:
    96f3:	f3 0f 1e fa          	endbr64 
    96f7:	55                   	push   %rbp
    96f8:	48 89 e5             	mov    %rsp,%rbp
    96fb:	48 83 ec 20          	sub    $0x20,%rsp
    96ff:	48 89 7d f8          	mov    %rdi,-0x8(%rbp)
    9703:	48 89 75 f0          	mov    %rsi,-0x10(%rbp)
    9707:	89 55 ec             	mov    %edx,-0x14(%rbp)
    970a:	48 8b 45 f8          	mov    -0x8(%rbp),%rax
    970e:	48 89 c7             	mov    %rax,%rdi
    9711:	e8 3e ff ff ff       	callq  9654 <crc32_8bytes>
    9716:	83 7d ec 00          	cmpl   $0x0,-0x14(%rbp)
    971a:	74 22                	je     973e <transparent_crc+0x4b>
    971c:	8b 05 fe 38 01 00    	mov    0x138fe(%rip),%eax        # 1d020 <crc32_context>
    9722:	f7 d0                	not    %eax
    9724:	89 c2                	mov    %eax,%edx
    9726:	48 8b 45 f0          	mov    -0x10(%rbp),%rax
    972a:	48 89 c6             	mov    %rax,%rsi
    972d:	48 8d 3d fc e8 00 00 	lea    0xe8fc(%rip),%rdi        # 18030 <_IO_stdin_used+0x30>
    9734:	b8 00 00 00 00       	mov    $0x0,%eax
    9739:	e8 42 e9 ff ff       	callq  8080 <printf@plt>
    973e:	90                   	nop
    973f:	c9                   	leaveq 
    9740:	c3                   	retq   

0000000000009741 <transparent_crc_bytes>:
    9741:	f3 0f 1e fa          	endbr64 
    9745:	55                   	push   %rbp
    9746:	48 89 e5             	mov    %rsp,%rbp
    9749:	48 83 ec 30          	sub    $0x30,%rsp
    974d:	48 89 7d e8          	mov    %rdi,-0x18(%rbp)
    9751:	89 75 e4             	mov    %esi,-0x1c(%rbp)
    9754:	48 89 55 d8          	mov    %rdx,-0x28(%rbp)
    9758:	89 4d e0             	mov    %ecx,-0x20(%rbp)
    975b:	c7 45 fc 00 00 00 00 	movl   $0x0,-0x4(%rbp)
    9762:	eb 1e                	jmp    9782 <transparent_crc_bytes+0x41>
    9764:	8b 45 fc             	mov    -0x4(%rbp),%eax
    9767:	48 63 d0             	movslq %eax,%rdx
    976a:	48 8b 45 e8          	mov    -0x18(%rbp),%rax
    976e:	48 01 d0             	add    %rdx,%rax
    9771:	0f b6 00             	movzbl (%rax),%eax
    9774:	0f b6 c0             	movzbl %al,%eax
    9777:	89 c7                	mov    %eax,%edi
    9779:	e8 90 fe ff ff       	callq  960e <crc32_byte>
    977e:	83 45 fc 01          	addl   $0x1,-0x4(%rbp)
    9782:	8b 45 fc             	mov    -0x4(%rbp),%eax
    9785:	3b 45 e4             	cmp    -0x1c(%rbp),%eax
    9788:	7c da                	jl     9764 <transparent_crc_bytes+0x23>
    978a:	83 7d e0 00          	cmpl   $0x0,-0x20(%rbp)
    978e:	74 22                	je     97b2 <transparent_crc_bytes+0x71>
    9790:	8b 05 8a 38 01 00    	mov    0x1388a(%rip),%eax        # 1d020 <crc32_context>
    9796:	f7 d0                	not    %eax
    9798:	89 c2                	mov    %eax,%edx
    979a:	48 8b 45 d8          	mov    -0x28(%rbp),%rax
    979e:	48 89 c6             	mov    %rax,%rsi
    97a1:	48 8d 3d 88 e8 00 00 	lea    0xe888(%rip),%rdi        # 18030 <_IO_stdin_used+0x30>
    97a8:	b8 00 00 00 00       	mov    $0x0,%eax
    97ad:	e8 ce e8 ff ff       	callq  8080 <printf@plt>
    97b2:	90                   	nop
    97b3:	c9                   	leaveq 
    97b4:	c3                   	retq   

00000000000097b5 <func_1>:
    97b5:	f3 0f 1e fa          	endbr64 
    97b9:	55                   	push   %rbp
    97ba:	48 89 e5             	mov    %rsp,%rbp
    97bd:	41 56                	push   %r14
    97bf:	41 55                	push   %r13
    97c1:	41 54                	push   %r12
    97c3:	53                   	push   %rbx
    97c4:	48 81 ec 00 10 00 00 	sub    $0x1000,%rsp
    97cb:	48 83 0c 24 00       	orq    $0x0,(%rsp)
    97d0:	48 81 ec d0 02 00 00 	sub    $0x2d0,%rsp
    97d7:	64 48 8b 04 25 28 00 	mov    %fs:0x28,%rax
    97de:	00 00 
    97e0:	48 89 45 d8          	mov    %rax,-0x28(%rbp)
    97e4:	31 c0                	xor    %eax,%eax
    97e6:	48 8d 05 3b 38 01 00 	lea    0x1383b(%rip),%rax        # 1d028 <g_2>
    97ed:	48 89 85 a0 ed ff ff 	mov    %rax,-0x1260(%rbp)
    97f4:	c7 85 54 ed ff ff ff 	movl   $0xffffffff,-0x12ac(%rbp)
    97fb:	ff ff ff 
    97fe:	48 c7 85 10 ee ff ff 	movq   $0x0,-0x11f0(%rbp)
    9805:	00 00 00 00 
    9809:	c7 85 58 ed ff ff 7e 	movl   $0x48ea37e,-0x12a8(%rbp)
    9810:	a3 8e 04 
    9813:	48 8d 05 06 77 01 00 	lea    0x17706(%rip),%rax        # 20f20 <g_1548>
    981a:	48 89 85 d0 f1 ff ff 	mov    %rax,-0xe30(%rbp)
    9821:	48 8d 05 f8 76 01 00 	lea    0x176f8(%rip),%rax        # 20f20 <g_1548>
    9828:	48 89 85 d8 f1 ff ff 	mov    %rax,-0xe28(%rbp)
    982f:	48 8d 05 ea 76 01 00 	lea    0x176ea(%rip),%rax        # 20f20 <g_1548>
    9836:	48 89 85 e0 f1 ff ff 	mov    %rax,-0xe20(%rbp)
    983d:	48 8d 05 dc 76 01 00 	lea    0x176dc(%rip),%rax        # 20f20 <g_1548>
    9844:	48 89 85 e8 f1 ff ff 	mov    %rax,-0xe18(%rbp)
    984b:	48 8d 05 ce 76 01 00 	lea    0x176ce(%rip),%rax        # 20f20 <g_1548>
    9852:	48 89 85 f0 f1 ff ff 	mov    %rax,-0xe10(%rbp)
    9859:	48 8d 05 c0 76 01 00 	lea    0x176c0(%rip),%rax        # 20f20 <g_1548>
    9860:	48 89 85 f8 f1 ff ff 	mov    %rax,-0xe08(%rbp)
    9867:	48 8d 05 b2 76 01 00 	lea    0x176b2(%rip),%rax        # 20f20 <g_1548>
    986e:	48 89 85 00 f2 ff ff 	mov    %rax,-0xe00(%rbp)
    9875:	48 8d 05 a4 76 01 00 	lea    0x176a4(%rip),%rax        # 20f20 <g_1548>
    987c:	48 89 85 08 f2 ff ff 	mov    %rax,-0xdf8(%rbp)
    9883:	48 8d 05 96 76 01 00 	lea    0x17696(%rip),%rax        # 20f20 <g_1548>
    988a:	48 89 85 10 f2 ff ff 	mov    %rax,-0xdf0(%rbp)
    9891:	48 8d 05 88 76 01 00 	lea    0x17688(%rip),%rax        # 20f20 <g_1548>
    9898:	48 89 85 18 f2 ff ff 	mov    %rax,-0xde8(%rbp)
    989f:	48 8d 05 7a 76 01 00 	lea    0x1767a(%rip),%rax        # 20f20 <g_1548>
    98a6:	48 89 85 20 f2 ff ff 	mov    %rax,-0xde0(%rbp)
    98ad:	48 8d 05 6c 76 01 00 	lea    0x1766c(%rip),%rax        # 20f20 <g_1548>
    98b4:	48 89 85 28 f2 ff ff 	mov    %rax,-0xdd8(%rbp)
    98bb:	48 8d 05 5e 76 01 00 	lea    0x1765e(%rip),%rax        # 20f20 <g_1548>
    98c2:	48 89 85 30 f2 ff ff 	mov    %rax,-0xdd0(%rbp)
    98c9:	48 8d 05 50 76 01 00 	lea    0x17650(%rip),%rax        # 20f20 <g_1548>
    98d0:	48 89 85 38 f2 ff ff 	mov    %rax,-0xdc8(%rbp)
    98d7:	48 8d 05 42 76 01 00 	lea    0x17642(%rip),%rax        # 20f20 <g_1548>
    98de:	48 89 85 40 f2 ff ff 	mov    %rax,-0xdc0(%rbp)
    98e5:	48 8d 05 34 76 01 00 	lea    0x17634(%rip),%rax        # 20f20 <g_1548>
    98ec:	48 89 85 48 f2 ff ff 	mov    %rax,-0xdb8(%rbp)
    98f3:	48 8d 05 26 76 01 00 	lea    0x17626(%rip),%rax        # 20f20 <g_1548>
    98fa:	48 89 85 50 f2 ff ff 	mov    %rax,-0xdb0(%rbp)
    9901:	48 8d 05 18 76 01 00 	lea    0x17618(%rip),%rax        # 20f20 <g_1548>
    9908:	48 89 85 58 f2 ff ff 	mov    %rax,-0xda8(%rbp)
    990f:	48 8d 05 0a 76 01 00 	lea    0x1760a(%rip),%rax        # 20f20 <g_1548>
    9916:	48 89 85 60 f2 ff ff 	mov    %rax,-0xda0(%rbp)
    991d:	48 8d 05 fc 75 01 00 	lea    0x175fc(%rip),%rax        # 20f20 <g_1548>
    9924:	48 89 85 68 f2 ff ff 	mov    %rax,-0xd98(%rbp)
    992b:	48 8d 05 ee 75 01 00 	lea    0x175ee(%rip),%rax        # 20f20 <g_1548>
    9932:	48 89 85 70 f2 ff ff 	mov    %rax,-0xd90(%rbp)
    9939:	48 8d 05 e0 75 01 00 	lea    0x175e0(%rip),%rax        # 20f20 <g_1548>
    9940:	48 89 85 78 f2 ff ff 	mov    %rax,-0xd88(%rbp)
    9947:	48 8d 05 d2 75 01 00 	lea    0x175d2(%rip),%rax        # 20f20 <g_1548>
    994e:	48 89 85 80 f2 ff ff 	mov    %rax,-0xd80(%rbp)
    9955:	48 8d 05 c4 75 01 00 	lea    0x175c4(%rip),%rax        # 20f20 <g_1548>
    995c:	48 89 85 88 f2 ff ff 	mov    %rax,-0xd78(%rbp)
    9963:	48 8d 05 b6 75 01 00 	lea    0x175b6(%rip),%rax        # 20f20 <g_1548>
    996a:	48 89 85 90 f2 ff ff 	mov    %rax,-0xd70(%rbp)
    9971:	48 8d 05 a8 75 01 00 	lea    0x175a8(%rip),%rax        # 20f20 <g_1548>
    9978:	48 89 85 98 f2 ff ff 	mov    %rax,-0xd68(%rbp)
    997f:	48 8d 05 9a 75 01 00 	lea    0x1759a(%rip),%rax        # 20f20 <g_1548>
    9986:	48 89 85 a0 f2 ff ff 	mov    %rax,-0xd60(%rbp)
    998d:	48 8d 05 8c 75 01 00 	lea    0x1758c(%rip),%rax        # 20f20 <g_1548>
    9994:	48 89 85 a8 f2 ff ff 	mov    %rax,-0xd58(%rbp)
    999b:	48 8d 05 7e 75 01 00 	lea    0x1757e(%rip),%rax        # 20f20 <g_1548>
    99a2:	48 89 85 b0 f2 ff ff 	mov    %rax,-0xd50(%rbp)
    99a9:	48 8d 05 70 75 01 00 	lea    0x17570(%rip),%rax        # 20f20 <g_1548>
    99b0:	48 89 85 b8 f2 ff ff 	mov    %rax,-0xd48(%rbp)
    99b7:	48 8d 05 62 75 01 00 	lea    0x17562(%rip),%rax        # 20f20 <g_1548>
    99be:	48 89 85 c0 f2 ff ff 	mov    %rax,-0xd40(%rbp)
    99c5:	48 8d 05 54 75 01 00 	lea    0x17554(%rip),%rax        # 20f20 <g_1548>
    99cc:	48 89 85 c8 f2 ff ff 	mov    %rax,-0xd38(%rbp)
    99d3:	48 8d 05 ee 6d 01 00 	lea    0x16dee(%rip),%rax        # 207c8 <g_444+0x28>
    99da:	48 89 85 a8 ed ff ff 	mov    %rax,-0x1258(%rbp)
    99e1:	48 8d 85 a8 ed ff ff 	lea    -0x1258(%rbp),%rax
    99e8:	48 89 85 18 ee ff ff 	mov    %rax,-0x11e8(%rbp)
    99ef:	c7 85 5c ed ff ff ff 	movl   $0xffffffff,-0x12a4(%rbp)
    99f6:	ff ff ff 
    99f9:	48 8d 05 0c e7 00 00 	lea    0xe70c(%rip),%rax        # 1810c <g_2841+0x4>
    9a00:	48 89 85 10 f0 ff ff 	mov    %rax,-0xff0(%rbp)
    9a07:	48 8d 05 fe e6 00 00 	lea    0xe6fe(%rip),%rax        # 1810c <g_2841+0x4>
    9a0e:	48 89 85 18 f0 ff ff 	mov    %rax,-0xfe8(%rbp)
    9a15:	48 8d 05 f0 e6 00 00 	lea    0xe6f0(%rip),%rax        # 1810c <g_2841+0x4>
    9a1c:	48 89 85 20 f0 ff ff 	mov    %rax,-0xfe0(%rbp)
    9a23:	48 8d 05 e2 e6 00 00 	lea    0xe6e2(%rip),%rax        # 1810c <g_2841+0x4>
    9a2a:	48 89 85 28 f0 ff ff 	mov    %rax,-0xfd8(%rbp)
    9a31:	48 8d 05 d4 e6 00 00 	lea    0xe6d4(%rip),%rax        # 1810c <g_2841+0x4>
    9a38:	48 89 85 30 f0 ff ff 	mov    %rax,-0xfd0(%rbp)
    9a3f:	48 8d 05 c6 e6 00 00 	lea    0xe6c6(%rip),%rax        # 1810c <g_2841+0x4>
    9a46:	48 89 85 38 f0 ff ff 	mov    %rax,-0xfc8(%rbp)
    9a4d:	48 8d 05 b8 e6 00 00 	lea    0xe6b8(%rip),%rax        # 1810c <g_2841+0x4>
    9a54:	48 89 85 40 f0 ff ff 	mov    %rax,-0xfc0(%rbp)
    9a5b:	48 8d 05 aa e6 00 00 	lea    0xe6aa(%rip),%rax        # 1810c <g_2841+0x4>
    9a62:	48 89 85 48 f0 ff ff 	mov    %rax,-0xfb8(%rbp)
    9a69:	c7 85 3c ed ff ff 95 	movl   $0xce4d7395,-0x12c4(%rbp)
    9a70:	73 4d ce 
    9a73:	c7 85 60 ed ff ff 77 	movl   $0x9cd0b577,-0x12a0(%rbp)
    9a7a:	b5 d0 9c 
    9a7d:	48 8d 05 34 6f 01 00 	lea    0x16f34(%rip),%rax        # 209b8 <g_541+0x198>
    9a84:	48 89 85 20 ee ff ff 	mov    %rax,-0x11e0(%rbp)
    9a8b:	48 b8 00 01 00 01 00 	movabs $0x100010001000100,%rax
    9a92:	01 00 01 
    9a95:	48 89 85 d0 ef ff ff 	mov    %rax,-0x1030(%rbp)
    9a9c:	66 c7 85 d8 ef ff ff 	movw   $0x100,-0x1028(%rbp)
    9aa3:	00 01 
    9aa5:	48 bb 86 01 86 01 86 	movabs $0x186018601860186,%rbx
    9aac:	01 86 01 
    9aaf:	48 89 9d da ef ff ff 	mov    %rbx,-0x1026(%rbp)
    9ab6:	66 c7 85 e2 ef ff ff 	movw   $0x186,-0x101e(%rbp)
    9abd:	86 01 
    9abf:	48 89 85 e4 ef ff ff 	mov    %rax,-0x101c(%rbp)
    9ac6:	66 c7 85 ec ef ff ff 	movw   $0x100,-0x1014(%rbp)
    9acd:	00 01 
    9acf:	48 89 9d ee ef ff ff 	mov    %rbx,-0x1012(%rbp)
    9ad6:	66 c7 85 f6 ef ff ff 	movw   $0x186,-0x100a(%rbp)
    9add:	86 01 
    9adf:	48 89 85 f8 ef ff ff 	mov    %rax,-0x1008(%rbp)
    9ae6:	66 c7 85 00 f0 ff ff 	movw   $0x100,-0x1000(%rbp)
    9aed:	00 01 
    9aef:	c7 85 2c ed ff ff 65 	movl   $0x79d87065,-0x12d4(%rbp)
    9af6:	70 d8 79 
    9af9:	c6 85 1a ed ff ff 2a 	movb   $0x2a,-0x12e6(%rbp)
    9b00:	48 8d 85 d0 f0 ff ff 	lea    -0xf30(%rbp),%rax
    9b07:	48 8d 15 12 e6 00 00 	lea    0xe612(%rip),%rdx        # 18120 <g_3221+0x8>
    9b0e:	b9 1f 00 00 00       	mov    $0x1f,%ecx
    9b13:	48 89 c7             	mov    %rax,%rdi
    9b16:	48 89 d6             	mov    %rdx,%rsi
    9b19:	f3 48 a5             	rep movsq %ds:(%rsi),%es:(%rdi)
    9b1c:	48 89 f2             	mov    %rsi,%rdx
    9b1f:	48 89 f8             	mov    %rdi,%rax
    9b22:	8b 0a                	mov    (%rdx),%ecx
    9b24:	89 08                	mov    %ecx,(%rax)
    9b26:	48 8d 40 04          	lea    0x4(%rax),%rax
    9b2a:	48 8d 52 04          	lea    0x4(%rdx),%rdx
    9b2e:	48 8d 05 23 76 01 00 	lea    0x17623(%rip),%rax        # 21158 <g_2061>
    9b35:	48 89 85 b0 ed ff ff 	mov    %rax,-0x1250(%rbp)
    9b3c:	48 8d 85 b0 ed ff ff 	lea    -0x1250(%rbp),%rax
    9b43:	48 89 85 28 ee ff ff 	mov    %rax,-0x11d8(%rbp)
    9b4a:	66 c7 85 22 ed ff ff 	movw   $0xc88c,-0x12de(%rbp)
    9b51:	8c c8 
    9b53:	c7 85 64 ed ff ff b6 	movl   $0x18e507b6,-0x129c(%rbp)
    9b5a:	07 e5 18 
    9b5d:	c6 85 1b ed ff ff 01 	movb   $0x1,-0x12e5(%rbp)
    9b64:	48 c7 05 b9 34 01 00 	movq   $0x0,0x134b9(%rip)        # 1d028 <g_2>
    9b6b:	00 00 00 00 
    9b6f:	48 c7 05 ae 34 01 00 	movq   $0xfffffffffffffffd,0x134ae(%rip)        # 1d028 <g_2>
    9b76:	fd ff ff ff 
    9b7a:	eb 5f                	jmp    9bdb <func_1+0x426>
    9b7c:	48 c7 85 38 ef ff ff 	movq   $0x1,-0x10c8(%rbp)
    9b83:	01 00 00 00 
    9b87:	48 8d 05 a2 34 01 00 	lea    0x134a2(%rip),%rax        # 1d030 <g_17>
    9b8e:	48 89 85 40 ef ff ff 	mov    %rax,-0x10c0(%rbp)
    9b95:	48 b8 2e 1c 4e 8f 02 	movabs $0x2b96ce028f4e1c2e,%rax
    9b9c:	ce 96 2b 
    9b9f:	48 89 85 48 ef ff ff 	mov    %rax,-0x10b8(%rbp)
    9ba6:	48 c7 85 50 ef ff ff 	movq   $0x0,-0x10b0(%rbp)
    9bad:	00 00 00 00 
    9bb1:	48 8d 05 98 34 01 00 	lea    0x13498(%rip),%rax        # 1d050 <g_27+0x10>
    9bb8:	48 89 85 58 ef ff ff 	mov    %rax,-0x10a8(%rbp)
    9bbf:	48 8b 05 62 34 01 00 	mov    0x13462(%rip),%rax        # 1d028 <g_2>
    9bc6:	be 09 00 00 00       	mov    $0x9,%esi
    9bcb:	89 c7                	mov    %eax,%edi
    9bcd:	e8 e4 e9 ff ff       	callq  85b6 <safe_add_func_int32_t_s_s>
    9bd2:	48 98                	cltq   
    9bd4:	48 89 05 4d 34 01 00 	mov    %rax,0x1344d(%rip)        # 1d028 <g_2>
    9bdb:	48 8b 05 46 34 01 00 	mov    0x13446(%rip),%rax        # 1d028 <g_2>
    9be2:	48 83 f8 13          	cmp    $0x13,%rax
    9be6:	76 94                	jbe    9b7c <func_1+0x3c7>
    9be8:	90                   	nop
    9be9:	48 8b 05 78 75 01 00 	mov    0x17578(%rip),%rax        # 21168 <g_2100>
    9bf0:	48 8b 00             	mov    (%rax),%rax
    9bf3:	48 89 85 10 ee ff ff 	mov    %rax,-0x11f0(%rbp)
    9bfa:	c6 05 97 3c 01 00 00 	movb   $0x0,0x13c97(%rip)        # 1d898 <g_147>
    9c01:	e9 f7 2d 00 00       	jmpq   c9fd <func_1+0x3248>
    9c06:	48 c7 85 b8 ed ff ff 	movq   $0x1,-0x1248(%rbp)
    9c0d:	01 00 00 00 
    9c11:	48 8d 05 98 46 01 00 	lea    0x14698(%rip),%rax        # 1e2b0 <g_486>
    9c18:	48 89 85 30 ee ff ff 	mov    %rax,-0x11d0(%rbp)
    9c1f:	48 8d 05 0a 3c 01 00 	lea    0x13c0a(%rip),%rax        # 1d830 <g_90+0x790>
    9c26:	48 89 85 c0 ed ff ff 	mov    %rax,-0x1240(%rbp)
    9c2d:	48 8d 85 c0 ed ff ff 	lea    -0x1240(%rbp),%rax
    9c34:	48 89 85 38 ee ff ff 	mov    %rax,-0x11c8(%rbp)
    9c3b:	48 c7 85 40 ee ff ff 	movq   $0x0,-0x11c0(%rbp)
    9c42:	00 00 00 00 
    9c46:	48 c7 85 48 ee ff ff 	movq   $0x0,-0x11b8(%rbp)
    9c4d:	00 00 00 00 
    9c51:	48 8d 85 d0 f1 ff ff 	lea    -0xe30(%rbp),%rax
    9c58:	48 05 b0 00 00 00    	add    $0xb0,%rax
    9c5e:	48 89 85 50 ee ff ff 	mov    %rax,-0x11b0(%rbp)
    9c65:	c7 85 38 ed ff ff b4 	movl   $0x179f14b4,-0x12c8(%rbp)
    9c6c:	14 9f 17 
    9c6f:	48 8d 05 0a 72 01 00 	lea    0x1720a(%rip),%rax        # 20e80 <g_1262>
    9c76:	48 89 85 58 ee ff ff 	mov    %rax,-0x11a8(%rbp)
    9c7d:	c7 85 34 ed ff ff 00 	movl   $0x0,-0x12cc(%rbp)
    9c84:	00 00 00 
    9c87:	c7 85 40 ed ff ff 01 	movl   $0x1,-0x12c0(%rbp)
    9c8e:	00 00 00 
    9c91:	66 c7 85 24 ed ff ff 	movw   $0x9,-0x12dc(%rbp)
    9c98:	09 00 
    9c9a:	48 8d 85 50 f0 ff ff 	lea    -0xfb0(%rbp),%rax
    9ca1:	48 89 85 60 ee ff ff 	mov    %rax,-0x11a0(%rbp)
    9ca8:	c6 85 18 ed ff ff 01 	movb   $0x1,-0x12e8(%rbp)
    9caf:	66 c7 85 72 ef ff ff 	movw   $0x4,-0x108e(%rbp)
    9cb6:	04 00 
    9cb8:	66 c7 85 74 ef ff ff 	movw   $0xffff,-0x108c(%rbp)
    9cbf:	ff ff 
    9cc1:	66 c7 85 76 ef ff ff 	movw   $0xffff,-0x108a(%rbp)
    9cc8:	ff ff 
    9cca:	66 c7 85 78 ef ff ff 	movw   $0x4,-0x1088(%rbp)
    9cd1:	04 00 
    9cd3:	66 c7 85 7a ef ff ff 	movw   $0xffff,-0x1086(%rbp)
    9cda:	ff ff 
    9cdc:	66 c7 85 7c ef ff ff 	movw   $0xffff,-0x1084(%rbp)
    9ce3:	ff ff 
    9ce5:	66 c7 85 7e ef ff ff 	movw   $0x4,-0x1082(%rbp)
    9cec:	04 00 
    9cee:	66 c7 85 26 ed ff ff 	movw   $0x1,-0x12da(%rbp)
    9cf5:	01 00 
    9cf7:	48 c7 85 c8 ed ff ff 	movq   $0x0,-0x1238(%rbp)
    9cfe:	00 00 00 00 
    9d02:	48 b8 68 d7 7b b8 58 	movabs $0x58544558b87bd768,%rax
    9d09:	45 54 58 
    9d0c:	48 89 85 68 ee ff ff 	mov    %rax,-0x1198(%rbp)
    9d13:	c7 85 68 ed ff ff ff 	movl   $0xffffffff,-0x1298(%rbp)
    9d1a:	ff ff ff 
    9d1d:	48 c7 85 70 ee ff ff 	movq   $0x8,-0x1190(%rbp)
    9d24:	08 00 00 00 
    9d28:	c7 85 44 ed ff ff 00 	movl   $0x0,-0x12bc(%rbp)
    9d2f:	00 00 00 
    9d32:	eb 1e                	jmp    9d52 <func_1+0x59d>
    9d34:	8b 85 44 ed ff ff    	mov    -0x12bc(%rbp),%eax
    9d3a:	48 98                	cltq   
    9d3c:	48 8d 15 2d 75 01 00 	lea    0x1752d(%rip),%rdx        # 21270 <g_3278>
    9d43:	48 89 94 c5 50 f0 ff 	mov    %rdx,-0xfb0(%rbp,%rax,8)
    9d4a:	ff 
    9d4b:	83 85 44 ed ff ff 01 	addl   $0x1,-0x12bc(%rbp)
    9d52:	83 bd 44 ed ff ff 07 	cmpl   $0x7,-0x12bc(%rbp)
    9d59:	7e d9                	jle    9d34 <func_1+0x57f>
    9d5b:	c7 85 44 ed ff ff 00 	movl   $0x0,-0x12bc(%rbp)
    9d62:	00 00 00 
    9d65:	eb 1e                	jmp    9d85 <func_1+0x5d0>
    9d67:	8b 85 44 ed ff ff    	mov    -0x12bc(%rbp),%eax
    9d6d:	48 98                	cltq   
    9d6f:	48 8d 15 ea 74 01 00 	lea    0x174ea(%rip),%rdx        # 21260 <g_3172>
    9d76:	48 89 94 c5 90 f0 ff 	mov    %rdx,-0xf70(%rbp,%rax,8)
    9d7d:	ff 
    9d7e:	83 85 44 ed ff ff 01 	addl   $0x1,-0x12bc(%rbp)
    9d85:	83 bd 44 ed ff ff 07 	cmpl   $0x7,-0x12bc(%rbp)
    9d8c:	7e d9                	jle    9d67 <func_1+0x5b2>
    9d8e:	c7 85 44 ed ff ff 00 	movl   $0x0,-0x12bc(%rbp)
    9d95:	00 00 00 
    9d98:	eb 1a                	jmp    9db4 <func_1+0x5ff>
    9d9a:	8b 85 44 ed ff ff    	mov    -0x12bc(%rbp),%eax
    9da0:	48 98                	cltq   
    9da2:	c7 84 85 64 ef ff ff 	movl   $0x22e6933,-0x109c(%rbp,%rax,4)
    9da9:	33 69 2e 02 
    9dad:	83 85 44 ed ff ff 01 	addl   $0x1,-0x12bc(%rbp)
    9db4:	83 bd 44 ed ff ff 00 	cmpl   $0x0,-0x12bc(%rbp)
    9dbb:	7e dd                	jle    9d9a <func_1+0x5e5>
    9dbd:	c7 85 44 ed ff ff 00 	movl   $0x0,-0x12bc(%rbp)
    9dc4:	00 00 00 
    9dc7:	eb 1e                	jmp    9de7 <func_1+0x632>
    9dc9:	8b 85 44 ed ff ff    	mov    -0x12bc(%rbp),%eax
    9dcf:	48 98                	cltq   
    9dd1:	48 8d 15 38 4d 01 00 	lea    0x14d38(%rip),%rdx        # 1eb10 <g_3281>
    9dd8:	48 89 94 c5 68 ef ff 	mov    %rdx,-0x1098(%rbp,%rax,8)
    9ddf:	ff 
    9de0:	83 85 44 ed ff ff 01 	addl   $0x1,-0x12bc(%rbp)
    9de7:	83 bd 44 ed ff ff 00 	cmpl   $0x0,-0x12bc(%rbp)
    9dee:	7e d9                	jle    9dc9 <func_1+0x614>
    9df0:	48 8b 85 b8 ed ff ff 	mov    -0x1248(%rbp),%rax
    9df7:	89 c3                	mov    %eax,%ebx
    9df9:	48 8b 05 88 6f 01 00 	mov    0x16f88(%rip),%rax        # 20d88 <g_1175>
    9e00:	8b 10                	mov    (%rax),%edx
    9e02:	48 8b 05 7f 6f 01 00 	mov    0x16f7f(%rip),%rax        # 20d88 <g_1175>
    9e09:	81 f2 8a 5c 80 7d    	xor    $0x7d805c8a,%edx
    9e0f:	89 10                	mov    %edx,(%rax)
    9e11:	8b 00                	mov    (%rax),%eax
    9e13:	89 c7                	mov    %eax,%edi
    9e15:	e8 7c e7 ff ff       	callq  8596 <safe_unary_minus_func_int32_t_s>
    9e1a:	85 c0                	test   %eax,%eax
    9e1c:	0f 84 84 00 00 00    	je     9ea6 <func_1+0x6f1>
    9e22:	48 8b 85 b8 ed ff ff 	mov    -0x1248(%rbp),%rax
    9e29:	89 c1                	mov    %eax,%ecx
    9e2b:	48 8d 05 ee 70 01 00 	lea    0x170ee(%rip),%rax        # 20f20 <g_1548>
    9e32:	48 89 05 2f 74 01 00 	mov    %rax,0x1742f(%rip)        # 21268 <g_3218>
    9e39:	48 8b 05 28 74 01 00 	mov    0x17428(%rip),%rax        # 21268 <g_3218>
    9e40:	48 8d 15 d9 70 01 00 	lea    0x170d9(%rip),%rdx        # 20f20 <g_1548>
    9e47:	48 39 d0             	cmp    %rdx,%rax
    9e4a:	0f 95 c0             	setne  %al
    9e4d:	0f b6 c0             	movzbl %al,%eax
    9e50:	0b 85 58 ed ff ff    	or     -0x12a8(%rbp),%eax
    9e56:	89 ce                	mov    %ecx,%esi
    9e58:	89 c7                	mov    %eax,%edi
    9e5a:	e8 59 f0 ff ff       	callq  8eb8 <safe_add_func_uint32_t_u_u>
    9e5f:	89 c2                	mov    %eax,%edx
    9e61:	48 8b 85 b8 ed ff ff 	mov    -0x1248(%rbp),%rax
    9e68:	0f be c0             	movsbl %al,%eax
    9e6b:	89 d6                	mov    %edx,%esi
    9e6d:	89 c7                	mov    %eax,%edi
    9e6f:	e8 f8 e4 ff ff       	callq  836c <safe_rshift_func_int8_t_s_u>
    9e74:	48 8b 85 b8 ed ff ff 	mov    -0x1248(%rbp),%rax
    9e7b:	89 c2                	mov    %eax,%edx
    9e7d:	48 8b 05 3c 65 01 00 	mov    0x1653c(%rip),%rax        # 203c0 <g_310>
    9e84:	48 8b 00             	mov    (%rax),%rax
    9e87:	8b 00                	mov    (%rax),%eax
    9e89:	89 d6                	mov    %edx,%esi
    9e8b:	89 c7                	mov    %eax,%edi
    9e8d:	e8 73 e7 ff ff       	callq  8605 <safe_sub_func_int32_t_s_s>
    9e92:	48 8b 85 10 ee ff ff 	mov    -0x11f0(%rbp),%rax
    9e99:	8b 00                	mov    (%rax),%eax
    9e9b:	85 c0                	test   %eax,%eax
    9e9d:	74 07                	je     9ea6 <func_1+0x6f1>
    9e9f:	b8 01 00 00 00       	mov    $0x1,%eax
    9ea4:	eb 05                	jmp    9eab <func_1+0x6f6>
    9ea6:	b8 00 00 00 00       	mov    $0x0,%eax
    9eab:	0f be c0             	movsbl %al,%eax
    9eae:	be 01 00 00 00       	mov    $0x1,%esi
    9eb3:	89 c7                	mov    %eax,%edi
    9eb5:	e8 e7 e3 ff ff       	callq  82a1 <safe_lshift_func_int8_t_s_s>
    9eba:	0f be c0             	movsbl %al,%eax
    9ebd:	89 de                	mov    %ebx,%esi
    9ebf:	89 c7                	mov    %eax,%edi
    9ec1:	e8 3f e7 ff ff       	callq  8605 <safe_sub_func_int32_t_s_s>
    9ec6:	48 98                	cltq   
    9ec8:	25 f8 a1 00 00       	and    $0xa1f8,%eax
    9ecd:	48 89 c1             	mov    %rax,%rcx
    9ed0:	48 8b 05 d9 64 01 00 	mov    0x164d9(%rip),%rax        # 203b0 <g_309>
    9ed7:	0f b7 10             	movzwl (%rax),%edx
    9eda:	48 8b 05 cf 64 01 00 	mov    0x164cf(%rip),%rax        # 203b0 <g_309>
    9ee1:	31 ca                	xor    %ecx,%edx
    9ee3:	66 89 10             	mov    %dx,(%rax)
    9ee6:	0f b7 00             	movzwl (%rax),%eax
    9ee9:	98                   	cwtl   
    9eea:	0f b6 15 a7 39 01 00 	movzbl 0x139a7(%rip),%edx        # 1d898 <g_147>
    9ef1:	0f b6 d2             	movzbl %dl,%edx
    9ef4:	48 63 d2             	movslq %edx,%rdx
    9ef7:	48 8d 0c 12          	lea    (%rdx,%rdx,1),%rcx
    9efb:	48 8d 15 3e 48 01 00 	lea    0x1483e(%rip),%rdx        # 1e740 <g_555>
    9f02:	66 c7 04 11 01 00    	movw   $0x1,(%rcx,%rdx,1)
    9f08:	89 c6                	mov    %eax,%esi
    9f0a:	bf 01 00 00 00       	mov    $0x1,%edi
    9f0f:	e8 34 ef ff ff       	callq  8e48 <safe_rshift_func_uint16_t_u_s>
    9f14:	0f b6 c0             	movzbl %al,%eax
    9f17:	be ff 00 00 00       	mov    $0xff,%esi
    9f1c:	89 c7                	mov    %eax,%edi
    9f1e:	e8 37 ec ff ff       	callq  8b5a <safe_add_func_uint8_t_u_u>
    9f23:	48 8b 85 b8 ed ff ff 	mov    -0x1248(%rbp),%rax
    9f2a:	48 85 c0             	test   %rax,%rax
    9f2d:	0f 95 c0             	setne  %al
    9f30:	0f b6 d0             	movzbl %al,%edx
    9f33:	48 8b 85 30 ee ff ff 	mov    -0x11d0(%rbp),%rax
    9f3a:	89 10                	mov    %edx,(%rax)
    9f3c:	48 8b 85 30 ee ff ff 	mov    -0x11d0(%rbp),%rax
    9f43:	8b 00                	mov    (%rax),%eax
    9f45:	85 c0                	test   %eax,%eax
    9f47:	75 0d                	jne    9f56 <func_1+0x7a1>
    9f49:	48 8b 85 10 ee ff ff 	mov    -0x11f0(%rbp),%rax
    9f50:	8b 00                	mov    (%rax),%eax
    9f52:	85 c0                	test   %eax,%eax
    9f54:	74 07                	je     9f5d <func_1+0x7a8>
    9f56:	b8 01 00 00 00       	mov    $0x1,%eax
    9f5b:	eb 05                	jmp    9f62 <func_1+0x7ad>
    9f5d:	b8 00 00 00 00       	mov    $0x0,%eax
    9f62:	48 98                	cltq   
    9f64:	be 00 00 00 00       	mov    $0x0,%esi
    9f69:	48 89 c7             	mov    %rax,%rdi
    9f6c:	e8 d0 e8 ff ff       	callq  8841 <safe_add_func_int64_t_s_s>
    9f71:	48 85 c0             	test   %rax,%rax
    9f74:	0f 84 9c 00 00 00    	je     a016 <func_1+0x861>
    9f7a:	48 8d 05 27 48 01 00 	lea    0x14827(%rip),%rax        # 1e7a8 <g_718>
    9f81:	48 89 85 78 ee ff ff 	mov    %rax,-0x1188(%rbp)
    9f88:	48 c7 85 78 ee ff ff 	movq   $0x0,-0x1188(%rbp)
    9f8f:	00 00 00 00 
    9f93:	48 8b 05 26 64 01 00 	mov    0x16426(%rip),%rax        # 203c0 <g_310>
    9f9a:	48 8b 95 30 ee ff ff 	mov    -0x11d0(%rbp),%rdx
    9fa1:	48 89 10             	mov    %rdx,(%rax)
    9fa4:	c7 05 e6 38 01 00 00 	movl   $0x0,0x138e6(%rip)        # 1d894 <g_144>
    9fab:	00 00 00 
    9fae:	90                   	nop
    9faf:	8b 05 df 38 01 00    	mov    0x138df(%rip),%eax        # 1d894 <g_144>
    9fb5:	83 f8 03             	cmp    $0x3,%eax
    9fb8:	77 0c                	ja     9fc6 <func_1+0x811>
    9fba:	48 8b 05 3f 4b 01 00 	mov    0x14b3f(%rip),%rax        # 1eb00 <g_3223>
    9fc1:	e9 53 2a 00 00       	jmpq   ca19 <func_1+0x3264>
    9fc6:	48 8b 05 f3 63 01 00 	mov    0x163f3(%rip),%rax        # 203c0 <g_310>
    9fcd:	48 8b 95 30 ee ff ff 	mov    -0x11d0(%rbp),%rdx
    9fd4:	48 89 10             	mov    %rdx,(%rax)
    9fd7:	48 8b 95 b0 f2 ff ff 	mov    -0xd50(%rbp),%rdx
    9fde:	48 8b 85 50 ee ff ff 	mov    -0x11b0(%rbp),%rax
    9fe5:	48 89 10             	mov    %rdx,(%rax)
    9fe8:	48 8b 85 50 ee ff ff 	mov    -0x11b0(%rbp),%rax
    9fef:	48 8b 00             	mov    (%rax),%rax
    9ff2:	48 39 85 38 ee ff ff 	cmp    %rax,-0x11c8(%rbp)
    9ff9:	0f 95 c0             	setne  %al
    9ffc:	0f b6 c0             	movzbl %al,%eax
    9fff:	be 01 00 00 00       	mov    $0x1,%esi
    a004:	89 c7                	mov    %eax,%edi
    a006:	e8 ea e3 ff ff       	callq  83f5 <safe_mul_func_int16_t_s_s>
    a00b:	66 85 c0             	test   %ax,%ax
    a00e:	0f 84 91 1a 00 00    	je     baa5 <func_1+0x22f0>
    a014:	eb 0f                	jmp    a025 <func_1+0x870>
    a016:	48 8b 05 e3 67 01 00 	mov    0x167e3(%rip),%rax        # 20800 <g_539>
    a01d:	48 8b 00             	mov    (%rax),%rax
    a020:	e9 f4 29 00 00       	jmpq   ca19 <func_1+0x3264>
    a025:	48 8b 85 10 ee ff ff 	mov    -0x11f0(%rbp),%rax
    a02c:	8b 00                	mov    (%rax),%eax
    a02e:	85 c0                	test   %eax,%eax
    a030:	0f 84 6f 1a 00 00    	je     baa5 <func_1+0x22f0>
    a036:	48 8d 05 63 63 01 00 	lea    0x16363(%rip),%rax        # 203a0 <g_104>
    a03d:	48 89 85 a0 ef ff ff 	mov    %rax,-0x1060(%rbp)
    a044:	48 8d 05 55 63 01 00 	lea    0x16355(%rip),%rax        # 203a0 <g_104>
    a04b:	48 89 85 a8 ef ff ff 	mov    %rax,-0x1058(%rbp)
    a052:	48 8d 05 47 63 01 00 	lea    0x16347(%rip),%rax        # 203a0 <g_104>
    a059:	48 89 85 b0 ef ff ff 	mov    %rax,-0x1050(%rbp)
    a060:	48 8d 05 39 63 01 00 	lea    0x16339(%rip),%rax        # 203a0 <g_104>
    a067:	48 89 85 b8 ef ff ff 	mov    %rax,-0x1048(%rbp)
    a06e:	48 8d 05 2b 63 01 00 	lea    0x1632b(%rip),%rax        # 203a0 <g_104>
    a075:	48 89 85 c0 ef ff ff 	mov    %rax,-0x1040(%rbp)
    a07c:	48 8d 05 1d 63 01 00 	lea    0x1631d(%rip),%rax        # 203a0 <g_104>
    a083:	48 89 85 c8 ef ff ff 	mov    %rax,-0x1038(%rbp)
    a08a:	48 8d 85 a0 ef ff ff 	lea    -0x1060(%rbp),%rax
    a091:	48 83 c0 28          	add    $0x28,%rax
    a095:	48 89 85 80 ee ff ff 	mov    %rax,-0x1180(%rbp)
    a09c:	c7 85 48 ed ff ff 00 	movl   $0x0,-0x12b8(%rbp)
    a0a3:	00 00 00 
    a0a6:	c6 85 1c ed ff ff fe 	movb   $0xfe,-0x12e4(%rbp)
    a0ad:	c6 85 1d ed ff ff fe 	movb   $0xfe,-0x12e3(%rbp)
    a0b4:	48 c7 85 88 ee ff ff 	movq   $0x0,-0x1178(%rbp)
    a0bb:	00 00 00 00 
    a0bf:	48 c7 85 d0 ed ff ff 	movq   $0x0,-0x1230(%rbp)
    a0c6:	00 00 00 00 
    a0ca:	48 8d 85 d0 f2 ff ff 	lea    -0xd30(%rbp),%rax
    a0d1:	48 8d 15 48 e1 00 00 	lea    0xe148(%rip),%rdx        # 18220 <g_3221+0x108>
    a0d8:	b9 24 00 00 00       	mov    $0x24,%ecx
    a0dd:	48 89 c7             	mov    %rax,%rdi
    a0e0:	48 89 d6             	mov    %rdx,%rsi
    a0e3:	f3 48 a5             	rep movsq %ds:(%rsi),%es:(%rdi)
    a0e6:	48 8d 05 c3 62 01 00 	lea    0x162c3(%rip),%rax        # 203b0 <g_309>
    a0ed:	48 89 85 d8 ed ff ff 	mov    %rax,-0x1228(%rbp)
    a0f4:	48 8d 85 d8 ed ff ff 	lea    -0x1228(%rbp),%rax
    a0fb:	48 89 85 70 f6 ff ff 	mov    %rax,-0x990(%rbp)
    a102:	48 8d 85 d8 ed ff ff 	lea    -0x1228(%rbp),%rax
    a109:	48 89 85 78 f6 ff ff 	mov    %rax,-0x988(%rbp)
    a110:	48 8d 85 d8 ed ff ff 	lea    -0x1228(%rbp),%rax
    a117:	48 89 85 80 f6 ff ff 	mov    %rax,-0x980(%rbp)
    a11e:	48 8d 85 d8 ed ff ff 	lea    -0x1228(%rbp),%rax
    a125:	48 89 85 88 f6 ff ff 	mov    %rax,-0x978(%rbp)
    a12c:	48 8d 85 d8 ed ff ff 	lea    -0x1228(%rbp),%rax
    a133:	48 89 85 90 f6 ff ff 	mov    %rax,-0x970(%rbp)
    a13a:	48 8d 85 d8 ed ff ff 	lea    -0x1228(%rbp),%rax
    a141:	48 89 85 98 f6 ff ff 	mov    %rax,-0x968(%rbp)
    a148:	48 8d 85 d8 ed ff ff 	lea    -0x1228(%rbp),%rax
    a14f:	48 89 85 a0 f6 ff ff 	mov    %rax,-0x960(%rbp)
    a156:	48 8d 85 d8 ed ff ff 	lea    -0x1228(%rbp),%rax
    a15d:	48 89 85 a8 f6 ff ff 	mov    %rax,-0x958(%rbp)
    a164:	48 8d 85 d8 ed ff ff 	lea    -0x1228(%rbp),%rax
    a16b:	48 89 85 b0 f6 ff ff 	mov    %rax,-0x950(%rbp)
    a172:	48 8d 85 d8 ed ff ff 	lea    -0x1228(%rbp),%rax
    a179:	48 89 85 b8 f6 ff ff 	mov    %rax,-0x948(%rbp)
    a180:	48 8d 85 d8 ed ff ff 	lea    -0x1228(%rbp),%rax
    a187:	48 89 85 c0 f6 ff ff 	mov    %rax,-0x940(%rbp)
    a18e:	48 c7 85 c8 f6 ff ff 	movq   $0x0,-0x938(%rbp)
    a195:	00 00 00 00 
    a199:	48 c7 85 d0 f6 ff ff 	movq   $0x0,-0x930(%rbp)
    a1a0:	00 00 00 00 
    a1a4:	48 8d 85 d8 ed ff ff 	lea    -0x1228(%rbp),%rax
    a1ab:	48 89 85 d8 f6 ff ff 	mov    %rax,-0x928(%rbp)
    a1b2:	48 c7 85 e0 f6 ff ff 	movq   $0x0,-0x920(%rbp)
    a1b9:	00 00 00 00 
    a1bd:	48 8d 85 d8 ed ff ff 	lea    -0x1228(%rbp),%rax
    a1c4:	48 89 85 e8 f6 ff ff 	mov    %rax,-0x918(%rbp)
    a1cb:	48 8d 85 d8 ed ff ff 	lea    -0x1228(%rbp),%rax
    a1d2:	48 89 85 f0 f6 ff ff 	mov    %rax,-0x910(%rbp)
    a1d9:	48 8d 85 d8 ed ff ff 	lea    -0x1228(%rbp),%rax
    a1e0:	48 89 85 f8 f6 ff ff 	mov    %rax,-0x908(%rbp)
    a1e7:	48 8d 85 d8 ed ff ff 	lea    -0x1228(%rbp),%rax
    a1ee:	48 89 85 00 f7 ff ff 	mov    %rax,-0x900(%rbp)
    a1f5:	48 8d 85 d8 ed ff ff 	lea    -0x1228(%rbp),%rax
    a1fc:	48 89 85 08 f7 ff ff 	mov    %rax,-0x8f8(%rbp)
    a203:	48 c7 85 10 f7 ff ff 	movq   $0x0,-0x8f0(%rbp)
    a20a:	00 00 00 00 
    a20e:	48 8d 85 d8 ed ff ff 	lea    -0x1228(%rbp),%rax
    a215:	48 89 85 18 f7 ff ff 	mov    %rax,-0x8e8(%rbp)
    a21c:	48 8d 85 d8 ed ff ff 	lea    -0x1228(%rbp),%rax
    a223:	48 89 85 20 f7 ff ff 	mov    %rax,-0x8e0(%rbp)
    a22a:	48 8d 85 d8 ed ff ff 	lea    -0x1228(%rbp),%rax
    a231:	48 89 85 28 f7 ff ff 	mov    %rax,-0x8d8(%rbp)
    a238:	48 8d 85 d8 ed ff ff 	lea    -0x1228(%rbp),%rax
    a23f:	48 89 85 30 f7 ff ff 	mov    %rax,-0x8d0(%rbp)
    a246:	48 8d 85 d8 ed ff ff 	lea    -0x1228(%rbp),%rax
    a24d:	48 89 85 38 f7 ff ff 	mov    %rax,-0x8c8(%rbp)
    a254:	48 c7 85 40 f7 ff ff 	movq   $0x0,-0x8c0(%rbp)
    a25b:	00 00 00 00 
    a25f:	48 c7 85 48 f7 ff ff 	movq   $0x0,-0x8b8(%rbp)
    a266:	00 00 00 00 
    a26a:	48 8d 85 d8 ed ff ff 	lea    -0x1228(%rbp),%rax
    a271:	48 89 85 50 f7 ff ff 	mov    %rax,-0x8b0(%rbp)
    a278:	48 8d 85 d8 ed ff ff 	lea    -0x1228(%rbp),%rax
    a27f:	48 89 85 58 f7 ff ff 	mov    %rax,-0x8a8(%rbp)
    a286:	48 8d 85 d8 ed ff ff 	lea    -0x1228(%rbp),%rax
    a28d:	48 89 85 60 f7 ff ff 	mov    %rax,-0x8a0(%rbp)
    a294:	48 8d 85 d8 ed ff ff 	lea    -0x1228(%rbp),%rax
    a29b:	48 89 85 68 f7 ff ff 	mov    %rax,-0x898(%rbp)
    a2a2:	48 8d 85 d8 ed ff ff 	lea    -0x1228(%rbp),%rax
    a2a9:	48 89 85 70 f7 ff ff 	mov    %rax,-0x890(%rbp)
    a2b0:	48 8d 85 d8 ed ff ff 	lea    -0x1228(%rbp),%rax
    a2b7:	48 89 85 78 f7 ff ff 	mov    %rax,-0x888(%rbp)
    a2be:	48 8d 85 d8 ed ff ff 	lea    -0x1228(%rbp),%rax
    a2c5:	48 89 85 80 f7 ff ff 	mov    %rax,-0x880(%rbp)
    a2cc:	48 8d 85 d8 ed ff ff 	lea    -0x1228(%rbp),%rax
    a2d3:	48 89 85 88 f7 ff ff 	mov    %rax,-0x878(%rbp)
    a2da:	48 8d 85 d8 ed ff ff 	lea    -0x1228(%rbp),%rax
    a2e1:	48 89 85 90 f7 ff ff 	mov    %rax,-0x870(%rbp)
    a2e8:	48 c7 85 98 f7 ff ff 	movq   $0x0,-0x868(%rbp)
    a2ef:	00 00 00 00 
    a2f3:	48 8d 85 d8 ed ff ff 	lea    -0x1228(%rbp),%rax
    a2fa:	48 89 85 a0 f7 ff ff 	mov    %rax,-0x860(%rbp)
    a301:	48 c7 85 a8 f7 ff ff 	movq   $0x0,-0x858(%rbp)
    a308:	00 00 00 00 
    a30c:	48 8d 85 d8 ed ff ff 	lea    -0x1228(%rbp),%rax
    a313:	48 89 85 b0 f7 ff ff 	mov    %rax,-0x850(%rbp)
    a31a:	48 8d 85 d8 ed ff ff 	lea    -0x1228(%rbp),%rax
    a321:	48 89 85 b8 f7 ff ff 	mov    %rax,-0x848(%rbp)
    a328:	48 8d 85 d8 ed ff ff 	lea    -0x1228(%rbp),%rax
    a32f:	48 89 85 c0 f7 ff ff 	mov    %rax,-0x840(%rbp)
    a336:	48 8d 85 d8 ed ff ff 	lea    -0x1228(%rbp),%rax
    a33d:	48 89 85 c8 f7 ff ff 	mov    %rax,-0x838(%rbp)
    a344:	48 c7 85 d0 f7 ff ff 	movq   $0x0,-0x830(%rbp)
    a34b:	00 00 00 00 
    a34f:	48 8d 85 d8 ed ff ff 	lea    -0x1228(%rbp),%rax
    a356:	48 89 85 d8 f7 ff ff 	mov    %rax,-0x828(%rbp)
    a35d:	48 8d 85 d8 ed ff ff 	lea    -0x1228(%rbp),%rax
    a364:	48 89 85 e0 f7 ff ff 	mov    %rax,-0x820(%rbp)
    a36b:	48 8d 85 d8 ed ff ff 	lea    -0x1228(%rbp),%rax
    a372:	48 89 85 e8 f7 ff ff 	mov    %rax,-0x818(%rbp)
    a379:	48 8d 85 d8 ed ff ff 	lea    -0x1228(%rbp),%rax
    a380:	48 89 85 f0 f7 ff ff 	mov    %rax,-0x810(%rbp)
    a387:	48 8d 85 d8 ed ff ff 	lea    -0x1228(%rbp),%rax
    a38e:	48 89 85 f8 f7 ff ff 	mov    %rax,-0x808(%rbp)
    a395:	48 8d 85 d8 ed ff ff 	lea    -0x1228(%rbp),%rax
    a39c:	48 89 85 00 f8 ff ff 	mov    %rax,-0x800(%rbp)
    a3a3:	48 8d 85 d8 ed ff ff 	lea    -0x1228(%rbp),%rax
    a3aa:	48 89 85 08 f8 ff ff 	mov    %rax,-0x7f8(%rbp)
    a3b1:	48 8d 85 d8 ed ff ff 	lea    -0x1228(%rbp),%rax
    a3b8:	48 89 85 10 f8 ff ff 	mov    %rax,-0x7f0(%rbp)
    a3bf:	48 8d 85 d8 ed ff ff 	lea    -0x1228(%rbp),%rax
    a3c6:	48 89 85 18 f8 ff ff 	mov    %rax,-0x7e8(%rbp)
    a3cd:	48 8d 85 d8 ed ff ff 	lea    -0x1228(%rbp),%rax
    a3d4:	48 89 85 20 f8 ff ff 	mov    %rax,-0x7e0(%rbp)
    a3db:	48 8d 85 d8 ed ff ff 	lea    -0x1228(%rbp),%rax
    a3e2:	48 89 85 28 f8 ff ff 	mov    %rax,-0x7d8(%rbp)
    a3e9:	48 8d 85 d8 ed ff ff 	lea    -0x1228(%rbp),%rax
    a3f0:	48 89 85 30 f8 ff ff 	mov    %rax,-0x7d0(%rbp)
    a3f7:	48 8d 85 d8 ed ff ff 	lea    -0x1228(%rbp),%rax
    a3fe:	48 89 85 38 f8 ff ff 	mov    %rax,-0x7c8(%rbp)
    a405:	48 c7 85 40 f8 ff ff 	movq   $0x0,-0x7c0(%rbp)
    a40c:	00 00 00 00 
    a410:	48 8d 85 d8 ed ff ff 	lea    -0x1228(%rbp),%rax
    a417:	48 89 85 48 f8 ff ff 	mov    %rax,-0x7b8(%rbp)
    a41e:	48 8d 85 d8 ed ff ff 	lea    -0x1228(%rbp),%rax
    a425:	48 89 85 50 f8 ff ff 	mov    %rax,-0x7b0(%rbp)
    a42c:	48 8d 85 d8 ed ff ff 	lea    -0x1228(%rbp),%rax
    a433:	48 89 85 58 f8 ff ff 	mov    %rax,-0x7a8(%rbp)
    a43a:	48 8d 85 d8 ed ff ff 	lea    -0x1228(%rbp),%rax
    a441:	48 89 85 60 f8 ff ff 	mov    %rax,-0x7a0(%rbp)
    a448:	48 8d 85 d8 ed ff ff 	lea    -0x1228(%rbp),%rax
    a44f:	48 89 85 68 f8 ff ff 	mov    %rax,-0x798(%rbp)
    a456:	48 c7 85 70 f8 ff ff 	movq   $0x0,-0x790(%rbp)
    a45d:	00 00 00 00 
    a461:	48 c7 85 78 f8 ff ff 	movq   $0x0,-0x788(%rbp)
    a468:	00 00 00 00 
    a46c:	48 8d 85 d8 ed ff ff 	lea    -0x1228(%rbp),%rax
    a473:	48 89 85 80 f8 ff ff 	mov    %rax,-0x780(%rbp)
    a47a:	48 8d 85 d8 ed ff ff 	lea    -0x1228(%rbp),%rax
    a481:	48 89 85 88 f8 ff ff 	mov    %rax,-0x778(%rbp)
    a488:	48 8d 85 d8 ed ff ff 	lea    -0x1228(%rbp),%rax
    a48f:	48 89 85 90 f8 ff ff 	mov    %rax,-0x770(%rbp)
    a496:	48 8d 85 d8 ed ff ff 	lea    -0x1228(%rbp),%rax
    a49d:	48 89 85 98 f8 ff ff 	mov    %rax,-0x768(%rbp)
    a4a4:	48 c7 85 a0 f8 ff ff 	movq   $0x0,-0x760(%rbp)
    a4ab:	00 00 00 00 
    a4af:	48 8d 85 d8 ed ff ff 	lea    -0x1228(%rbp),%rax
    a4b6:	48 89 85 a8 f8 ff ff 	mov    %rax,-0x758(%rbp)
    a4bd:	48 c7 85 b0 f8 ff ff 	movq   $0x0,-0x750(%rbp)
    a4c4:	00 00 00 00 
    a4c8:	48 8d 85 d8 ed ff ff 	lea    -0x1228(%rbp),%rax
    a4cf:	48 89 85 b8 f8 ff ff 	mov    %rax,-0x748(%rbp)
    a4d6:	48 8d 85 d8 ed ff ff 	lea    -0x1228(%rbp),%rax
    a4dd:	48 89 85 c0 f8 ff ff 	mov    %rax,-0x740(%rbp)
    a4e4:	48 8d 85 d8 ed ff ff 	lea    -0x1228(%rbp),%rax
    a4eb:	48 89 85 c8 f8 ff ff 	mov    %rax,-0x738(%rbp)
    a4f2:	48 c7 85 d0 f8 ff ff 	movq   $0x0,-0x730(%rbp)
    a4f9:	00 00 00 00 
    a4fd:	48 8d 85 d8 ed ff ff 	lea    -0x1228(%rbp),%rax
    a504:	48 89 85 d8 f8 ff ff 	mov    %rax,-0x728(%rbp)
    a50b:	48 8d 85 d8 ed ff ff 	lea    -0x1228(%rbp),%rax
    a512:	48 89 85 e0 f8 ff ff 	mov    %rax,-0x720(%rbp)
    a519:	48 8d 85 d8 ed ff ff 	lea    -0x1228(%rbp),%rax
    a520:	48 89 85 e8 f8 ff ff 	mov    %rax,-0x718(%rbp)
    a527:	48 c7 85 f0 f8 ff ff 	movq   $0x0,-0x710(%rbp)
    a52e:	00 00 00 00 
    a532:	48 8d 85 d8 ed ff ff 	lea    -0x1228(%rbp),%rax
    a539:	48 89 85 f8 f8 ff ff 	mov    %rax,-0x708(%rbp)
    a540:	48 c7 85 00 f9 ff ff 	movq   $0x0,-0x700(%rbp)
    a547:	00 00 00 00 
    a54b:	48 c7 85 08 f9 ff ff 	movq   $0x0,-0x6f8(%rbp)
    a552:	00 00 00 00 
    a556:	48 8d 85 d8 ed ff ff 	lea    -0x1228(%rbp),%rax
    a55d:	48 89 85 10 f9 ff ff 	mov    %rax,-0x6f0(%rbp)
    a564:	48 8d 85 d8 ed ff ff 	lea    -0x1228(%rbp),%rax
    a56b:	48 89 85 18 f9 ff ff 	mov    %rax,-0x6e8(%rbp)
    a572:	48 c7 85 20 f9 ff ff 	movq   $0x0,-0x6e0(%rbp)
    a579:	00 00 00 00 
    a57d:	48 c7 85 28 f9 ff ff 	movq   $0x0,-0x6d8(%rbp)
    a584:	00 00 00 00 
    a588:	48 8d 85 d8 ed ff ff 	lea    -0x1228(%rbp),%rax
    a58f:	48 89 85 30 f9 ff ff 	mov    %rax,-0x6d0(%rbp)
    a596:	48 8d 85 d8 ed ff ff 	lea    -0x1228(%rbp),%rax
    a59d:	48 89 85 38 f9 ff ff 	mov    %rax,-0x6c8(%rbp)
    a5a4:	48 8d 85 d8 ed ff ff 	lea    -0x1228(%rbp),%rax
    a5ab:	48 89 85 40 f9 ff ff 	mov    %rax,-0x6c0(%rbp)
    a5b2:	48 c7 85 48 f9 ff ff 	movq   $0x0,-0x6b8(%rbp)
    a5b9:	00 00 00 00 
    a5bd:	48 8d 85 d8 ed ff ff 	lea    -0x1228(%rbp),%rax
    a5c4:	48 89 85 50 f9 ff ff 	mov    %rax,-0x6b0(%rbp)
    a5cb:	48 c7 85 58 f9 ff ff 	movq   $0x0,-0x6a8(%rbp)
    a5d2:	00 00 00 00 
    a5d6:	48 c7 85 60 f9 ff ff 	movq   $0x0,-0x6a0(%rbp)
    a5dd:	00 00 00 00 
    a5e1:	48 8d 85 d8 ed ff ff 	lea    -0x1228(%rbp),%rax
    a5e8:	48 89 85 68 f9 ff ff 	mov    %rax,-0x698(%rbp)
    a5ef:	48 8d 85 d8 ed ff ff 	lea    -0x1228(%rbp),%rax
    a5f6:	48 89 85 70 f9 ff ff 	mov    %rax,-0x690(%rbp)
    a5fd:	48 8d 85 d8 ed ff ff 	lea    -0x1228(%rbp),%rax
    a604:	48 89 85 78 f9 ff ff 	mov    %rax,-0x688(%rbp)
    a60b:	48 8d 85 d8 ed ff ff 	lea    -0x1228(%rbp),%rax
    a612:	48 89 85 80 f9 ff ff 	mov    %rax,-0x680(%rbp)
    a619:	48 8d 85 d8 ed ff ff 	lea    -0x1228(%rbp),%rax
    a620:	48 89 85 88 f9 ff ff 	mov    %rax,-0x678(%rbp)
    a627:	48 8d 85 d8 ed ff ff 	lea    -0x1228(%rbp),%rax
    a62e:	48 89 85 90 f9 ff ff 	mov    %rax,-0x670(%rbp)
    a635:	48 8d 85 d8 ed ff ff 	lea    -0x1228(%rbp),%rax
    a63c:	48 89 85 98 f9 ff ff 	mov    %rax,-0x668(%rbp)
    a643:	48 8d 85 d8 ed ff ff 	lea    -0x1228(%rbp),%rax
    a64a:	48 89 85 a0 f9 ff ff 	mov    %rax,-0x660(%rbp)
    a651:	48 8d 85 d8 ed ff ff 	lea    -0x1228(%rbp),%rax
    a658:	48 89 85 a8 f9 ff ff 	mov    %rax,-0x658(%rbp)
    a65f:	48 8d 85 d8 ed ff ff 	lea    -0x1228(%rbp),%rax
    a666:	48 89 85 b0 f9 ff ff 	mov    %rax,-0x650(%rbp)
    a66d:	48 c7 85 b8 f9 ff ff 	movq   $0x0,-0x648(%rbp)
    a674:	00 00 00 00 
    a678:	48 c7 85 c0 f9 ff ff 	movq   $0x0,-0x640(%rbp)
    a67f:	00 00 00 00 
    a683:	48 8d 85 d8 ed ff ff 	lea    -0x1228(%rbp),%rax
    a68a:	48 89 85 c8 f9 ff ff 	mov    %rax,-0x638(%rbp)
    a691:	48 c7 85 d0 f9 ff ff 	movq   $0x0,-0x630(%rbp)
    a698:	00 00 00 00 
    a69c:	48 8d 85 d8 ed ff ff 	lea    -0x1228(%rbp),%rax
    a6a3:	48 89 85 d8 f9 ff ff 	mov    %rax,-0x628(%rbp)
    a6aa:	48 8d 85 d8 ed ff ff 	lea    -0x1228(%rbp),%rax
    a6b1:	48 89 85 e0 f9 ff ff 	mov    %rax,-0x620(%rbp)
    a6b8:	48 c7 85 e8 f9 ff ff 	movq   $0x0,-0x618(%rbp)
    a6bf:	00 00 00 00 
    a6c3:	48 c7 85 f0 f9 ff ff 	movq   $0x0,-0x610(%rbp)
    a6ca:	00 00 00 00 
    a6ce:	48 c7 85 f8 f9 ff ff 	movq   $0x0,-0x608(%rbp)
    a6d5:	00 00 00 00 
    a6d9:	48 8d 85 d8 ed ff ff 	lea    -0x1228(%rbp),%rax
    a6e0:	48 89 85 00 fa ff ff 	mov    %rax,-0x600(%rbp)
    a6e7:	48 8d 85 d8 ed ff ff 	lea    -0x1228(%rbp),%rax
    a6ee:	48 89 85 08 fa ff ff 	mov    %rax,-0x5f8(%rbp)
    a6f5:	48 8d 85 d8 ed ff ff 	lea    -0x1228(%rbp),%rax
    a6fc:	48 89 85 10 fa ff ff 	mov    %rax,-0x5f0(%rbp)
    a703:	48 8d 85 d8 ed ff ff 	lea    -0x1228(%rbp),%rax
    a70a:	48 89 85 18 fa ff ff 	mov    %rax,-0x5e8(%rbp)
    a711:	48 8d 85 d8 ed ff ff 	lea    -0x1228(%rbp),%rax
    a718:	48 89 85 20 fa ff ff 	mov    %rax,-0x5e0(%rbp)
    a71f:	48 c7 85 28 fa ff ff 	movq   $0x0,-0x5d8(%rbp)
    a726:	00 00 00 00 
    a72a:	48 8d 85 d8 ed ff ff 	lea    -0x1228(%rbp),%rax
    a731:	48 89 85 30 fa ff ff 	mov    %rax,-0x5d0(%rbp)
    a738:	48 8d 85 d8 ed ff ff 	lea    -0x1228(%rbp),%rax
    a73f:	48 89 85 38 fa ff ff 	mov    %rax,-0x5c8(%rbp)
    a746:	48 8d 85 d8 ed ff ff 	lea    -0x1228(%rbp),%rax
    a74d:	48 89 85 40 fa ff ff 	mov    %rax,-0x5c0(%rbp)
    a754:	48 8d 85 d8 ed ff ff 	lea    -0x1228(%rbp),%rax
    a75b:	48 89 85 48 fa ff ff 	mov    %rax,-0x5b8(%rbp)
    a762:	48 c7 85 50 fa ff ff 	movq   $0x0,-0x5b0(%rbp)
    a769:	00 00 00 00 
    a76d:	48 8d 85 d8 ed ff ff 	lea    -0x1228(%rbp),%rax
    a774:	48 89 85 58 fa ff ff 	mov    %rax,-0x5a8(%rbp)
    a77b:	48 8d 85 d8 ed ff ff 	lea    -0x1228(%rbp),%rax
    a782:	48 89 85 60 fa ff ff 	mov    %rax,-0x5a0(%rbp)
    a789:	48 c7 85 68 fa ff ff 	movq   $0x0,-0x598(%rbp)
    a790:	00 00 00 00 
    a794:	48 8d 85 d8 ed ff ff 	lea    -0x1228(%rbp),%rax
    a79b:	48 89 85 70 fa ff ff 	mov    %rax,-0x590(%rbp)
    a7a2:	48 c7 85 78 fa ff ff 	movq   $0x0,-0x588(%rbp)
    a7a9:	00 00 00 00 
    a7ad:	48 8d 85 d8 ed ff ff 	lea    -0x1228(%rbp),%rax
    a7b4:	48 89 85 80 fa ff ff 	mov    %rax,-0x580(%rbp)
    a7bb:	48 c7 85 88 fa ff ff 	movq   $0x0,-0x578(%rbp)
    a7c2:	00 00 00 00 
    a7c6:	48 8d 85 d8 ed ff ff 	lea    -0x1228(%rbp),%rax
    a7cd:	48 89 85 90 fa ff ff 	mov    %rax,-0x570(%rbp)
    a7d4:	48 8d 85 d8 ed ff ff 	lea    -0x1228(%rbp),%rax
    a7db:	48 89 85 98 fa ff ff 	mov    %rax,-0x568(%rbp)
    a7e2:	48 c7 85 a0 fa ff ff 	movq   $0x0,-0x560(%rbp)
    a7e9:	00 00 00 00 
    a7ed:	48 c7 85 a8 fa ff ff 	movq   $0x0,-0x558(%rbp)
    a7f4:	00 00 00 00 
    a7f8:	48 8d 85 d8 ed ff ff 	lea    -0x1228(%rbp),%rax
    a7ff:	48 89 85 b0 fa ff ff 	mov    %rax,-0x550(%rbp)
    a806:	48 c7 85 b8 fa ff ff 	movq   $0x0,-0x548(%rbp)
    a80d:	00 00 00 00 
    a811:	48 8d 85 d8 ed ff ff 	lea    -0x1228(%rbp),%rax
    a818:	48 89 85 c0 fa ff ff 	mov    %rax,-0x540(%rbp)
    a81f:	48 c7 85 c8 fa ff ff 	movq   $0x0,-0x538(%rbp)
    a826:	00 00 00 00 
    a82a:	66 c7 05 35 28 01 00 	movw   $0x0,0x12835(%rip)        # 1d068 <g_44>
    a831:	00 00 
    a833:	e9 00 12 00 00       	jmpq   ba38 <func_1+0x2283>
    a838:	48 8d 85 d0 fa ff ff 	lea    -0x530(%rbp),%rax
    a83f:	48 8d 15 3a 43 01 00 	lea    0x1433a(%rip),%rdx        # 1eb80 <g_3508+0x8>
    a846:	b9 a0 00 00 00       	mov    $0xa0,%ecx
    a84b:	48 89 c7             	mov    %rax,%rdi
    a84e:	48 89 d6             	mov    %rdx,%rsi
    a851:	f3 48 a5             	rep movsq %ds:(%rsi),%es:(%rdi)
    a854:	48 c7 85 80 ef ff ff 	movq   $0x0,-0x1080(%rbp)
    a85b:	00 00 00 00 
    a85f:	48 c7 85 88 ef ff ff 	movq   $0x0,-0x1078(%rbp)
    a866:	00 00 00 00 
    a86a:	48 c7 85 90 ef ff ff 	movq   $0x0,-0x1070(%rbp)
    a871:	00 00 00 00 
    a875:	48 c7 85 98 ef ff ff 	movq   $0x0,-0x1068(%rbp)
    a87c:	00 00 00 00 
    a880:	48 c7 85 90 ee ff ff 	movq   $0x0,-0x1170(%rbp)
    a887:	00 00 00 00 
    a88b:	48 8d 05 ce 69 01 00 	lea    0x169ce(%rip),%rax        # 21260 <g_3172>
    a892:	48 89 85 e0 ed ff ff 	mov    %rax,-0x1220(%rbp)
    a899:	48 b8 2d 26 de 27 e8 	movabs $0x2992be827de262d,%rax
    a8a0:	2b 99 02 
    a8a3:	48 89 85 98 ee ff ff 	mov    %rax,-0x1168(%rbp)
    a8aa:	c7 05 3c 42 01 00 02 	movl   $0x2,0x1423c(%rip)        # 1eaf0 <g_3144>
    a8b1:	00 00 00 
    a8b4:	90                   	nop
    a8b5:	8b 05 35 42 01 00    	mov    0x14235(%rip),%eax        # 1eaf0 <g_3144>
    a8bb:	83 f8 08             	cmp    $0x8,%eax
    a8be:	7f 79                	jg     a939 <func_1+0x1184>
    a8c0:	c6 85 19 ed ff ff 00 	movb   $0x0,-0x12e7(%rbp)
    a8c7:	c7 05 97 6f 01 00 00 	movl   $0x0,0x16f97(%rip)        # 21868 <g_678>
    a8ce:	00 00 00 
    a8d1:	eb 4f                	jmp    a922 <func_1+0x116d>
    a8d3:	48 8b 05 ae 64 01 00 	mov    0x164ae(%rip),%rax        # 20d88 <g_1175>
    a8da:	c7 00 a9 87 4a 70    	movl   $0x704a87a9,(%rax)
    a8e0:	48 8b 05 41 27 01 00 	mov    0x12741(%rip),%rax        # 1d028 <g_2>
    a8e7:	48 85 c0             	test   %rax,%rax
    a8ea:	74 05                	je     a8f1 <func_1+0x113c>
    a8ec:	e9 7e f2 ff ff       	jmpq   9b6f <func_1+0x3ba>
    a8f1:	0f b6 85 19 ed ff ff 	movzbl -0x12e7(%rbp),%eax
    a8f8:	83 c0 01             	add    $0x1,%eax
    a8fb:	88 85 19 ed ff ff    	mov    %al,-0x12e7(%rbp)
    a901:	48 8d 15 9c 40 01 00 	lea    0x1409c(%rip),%rdx        # 1e9a4 <g_1199>
    a908:	48 8b 85 10 ee ff ff 	mov    -0x11f0(%rbp),%rax
    a90f:	8b 00                	mov    (%rax),%eax
    a911:	89 02                	mov    %eax,(%rdx)
    a913:	8b 05 4f 6f 01 00    	mov    0x16f4f(%rip),%eax        # 21868 <g_678>
    a919:	83 c0 01             	add    $0x1,%eax
    a91c:	89 05 46 6f 01 00    	mov    %eax,0x16f46(%rip)        # 21868 <g_678>
    a922:	8b 05 40 6f 01 00    	mov    0x16f40(%rip),%eax        # 21868 <g_678>
    a928:	83 f8 08             	cmp    $0x8,%eax
    a92b:	76 a6                	jbe    a8d3 <func_1+0x111e>
    a92d:	48 8b 05 d4 41 01 00 	mov    0x141d4(%rip),%rax        # 1eb08 <g_3236>
    a934:	e9 e0 20 00 00       	jmpq   ca19 <func_1+0x3264>
    a939:	48 8b 85 10 ee ff ff 	mov    -0x11f0(%rbp),%rax
    a940:	8b 00                	mov    (%rax),%eax
    a942:	85 c0                	test   %eax,%eax
    a944:	0f 85 6a 01 00 00    	jne    aab4 <func_1+0x12ff>
    a94a:	0f b6 05 81 6f 01 00 	movzbl 0x16f81(%rip),%eax        # 218d2 <g_3261+0x2>
    a951:	0f b6 d8             	movzbl %al,%ebx
    a954:	48 8b 85 10 ee ff ff 	mov    -0x11f0(%rbp),%rax
    a95b:	44 8b 20             	mov    (%rax),%r12d
    a95e:	48 8b 85 10 ee ff ff 	mov    -0x11f0(%rbp),%rax
    a965:	8b 00                	mov    (%rax),%eax
    a967:	85 c0                	test   %eax,%eax
    a969:	0f 85 a9 00 00 00    	jne    aa18 <func_1+0x1263>
    a96f:	48 8b 85 10 ee ff ff 	mov    -0x11f0(%rbp),%rax
    a976:	8b 00                	mov    (%rax),%eax
    a978:	0f b6 c0             	movzbl %al,%eax
    a97b:	89 c6                	mov    %eax,%esi
    a97d:	bf de 00 00 00       	mov    $0xde,%edi
    a982:	e8 0c e2 ff ff       	callq  8b93 <safe_mul_func_uint8_t_u_u>
    a987:	3c 01                	cmp    $0x1,%al
    a989:	0f 97 c0             	seta   %al
    a98c:	0f b6 c0             	movzbl %al,%eax
    a98f:	89 85 38 ed ff ff    	mov    %eax,-0x12c8(%rbp)
    a995:	8b 85 5c ed ff ff    	mov    -0x12a4(%rbp),%eax
    a99b:	be fb ff ff ff       	mov    $0xfffffffb,%esi
    a9a0:	89 c7                	mov    %eax,%edi
    a9a2:	e8 0f dc ff ff       	callq  85b6 <safe_add_func_int32_t_s_s>
    a9a7:	48 8b 05 12 5a 01 00 	mov    0x15a12(%rip),%rax        # 203c0 <g_310>
    a9ae:	48 8b 95 30 ee ff ff 	mov    -0x11d0(%rbp),%rdx
    a9b5:	48 89 10             	mov    %rdx,(%rax)
    a9b8:	48 8b 10             	mov    (%rax),%rdx
    a9bb:	48 8b 85 90 ef ff ff 	mov    -0x1070(%rbp),%rax
    a9c2:	48 39 c2             	cmp    %rax,%rdx
    a9c5:	0f 94 c0             	sete   %al
    a9c8:	0f b6 d0             	movzbl %al,%edx
    a9cb:	48 8b 05 a6 6e 01 00 	mov    0x16ea6(%rip),%rax        # 21878 <g_1311>
    a9d2:	48 89 85 80 ee ff ff 	mov    %rax,-0x1180(%rbp)
    a9d9:	48 8b 05 d0 67 01 00 	mov    0x167d0(%rip),%rax        # 211b0 <g_2598>
    a9e0:	48 8b 00             	mov    (%rax),%rax
    a9e3:	48 8b 00             	mov    (%rax),%rax
    a9e6:	0f b6 00             	movzbl (%rax),%eax
    a9e9:	48 8b 05 80 67 01 00 	mov    0x16780(%rip),%rax        # 21170 <g_2197>
    a9f0:	48 8b 8d 18 ee ff ff 	mov    -0x11e8(%rbp),%rcx
    a9f7:	48 89 08             	mov    %rcx,(%rax)
    a9fa:	48 8b 00             	mov    (%rax),%rax
    a9fd:	48 39 85 80 ee ff ff 	cmp    %rax,-0x1180(%rbp)
    aa04:	0f 95 c0             	setne  %al
    aa07:	0f b6 c0             	movzbl %al,%eax
    aa0a:	89 d6                	mov    %edx,%esi
    aa0c:	89 c7                	mov    %eax,%edi
    aa0e:	e8 7f da ff ff       	callq  8492 <safe_lshift_func_int16_t_s_s>
    aa13:	66 85 c0             	test   %ax,%ax
    aa16:	74 07                	je     aa1f <func_1+0x126a>
    aa18:	b8 01 00 00 00       	mov    $0x1,%eax
    aa1d:	eb 05                	jmp    aa24 <func_1+0x126f>
    aa1f:	b8 00 00 00 00       	mov    $0x0,%eax
    aa24:	98                   	cwtl   
    aa25:	44 89 e6             	mov    %r12d,%esi
    aa28:	89 c7                	mov    %eax,%edi
    aa2a:	e8 fb da ff ff       	callq  852a <safe_rshift_func_int16_t_s_s>
    aa2f:	48 8b 95 10 ee ff ff 	mov    -0x11f0(%rbp),%rdx
    aa36:	8b 12                	mov    (%rdx),%edx
    aa38:	09 d0                	or     %edx,%eax
    aa3a:	89 c2                	mov    %eax,%edx
    aa3c:	48 8b 05 15 68 01 00 	mov    0x16815(%rip),%rax        # 21258 <g_3173>
    aa43:	48 8b 00             	mov    (%rax),%rax
    aa46:	21 d0                	and    %edx,%eax
    aa48:	98                   	cwtl   
    aa49:	be ff ff ff ff       	mov    $0xffffffff,%esi
    aa4e:	89 c7                	mov    %eax,%edi
    aa50:	e8 5e d9 ff ff       	callq  83b3 <safe_add_func_int16_t_s_s>
    aa55:	83 c8 01             	or     $0x1,%eax
    aa58:	98                   	cwtl   
    aa59:	89 c6                	mov    %eax,%esi
    aa5b:	bf ff 00 00 00       	mov    $0xff,%edi
    aa60:	e8 28 e2 ff ff       	callq  8c8d <safe_rshift_func_uint8_t_u_s>
    aa65:	89 c2                	mov    %eax,%edx
    aa67:	48 8b 85 10 ee ff ff 	mov    -0x11f0(%rbp),%rax
    aa6e:	8b 00                	mov    (%rax),%eax
    aa70:	09 d0                	or     %edx,%eax
    aa72:	0f be c0             	movsbl %al,%eax
    aa75:	be c0 ff ff ff       	mov    $0xffffffc0,%esi
    aa7a:	89 c7                	mov    %eax,%edi
    aa7c:	e8 e9 d7 ff ff       	callq  826a <safe_div_func_int8_t_s_s>
    aa81:	48 0f be c0          	movsbq %al,%rax
    aa85:	48 89 de             	mov    %rbx,%rsi
    aa88:	48 89 c7             	mov    %rax,%rdi
    aa8b:	e8 67 df ff ff       	callq  89f7 <safe_div_func_int64_t_s_s>
    aa90:	48 85 c0             	test   %rax,%rax
    aa93:	74 07                	je     aa9c <func_1+0x12e7>
    aa95:	ba 01 00 00 00       	mov    $0x1,%edx
    aa9a:	eb 05                	jmp    aaa1 <func_1+0x12ec>
    aa9c:	ba 00 00 00 00       	mov    $0x0,%edx
    aaa1:	48 8b 05 e0 62 01 00 	mov    0x162e0(%rip),%rax        # 20d88 <g_1175>
    aaa8:	8b 00                	mov    (%rax),%eax
    aaaa:	21 d0                	and    %edx,%eax
    aaac:	85 c0                	test   %eax,%eax
    aaae:	0f 84 05 0c 00 00    	je     b6b9 <func_1+0x1f04>
    aab4:	c7 85 6c ed ff ff 01 	movl   $0x1,-0x1294(%rbp)
    aabb:	00 00 00 
    aabe:	48 8d 05 03 63 01 00 	lea    0x16303(%rip),%rax        # 20dc8 <g_1174+0x28>
    aac5:	48 89 85 a0 ee ff ff 	mov    %rax,-0x1160(%rbp)
    aacc:	48 c7 85 e8 ed ff ff 	movq   $0x0,-0x1218(%rbp)
    aad3:	00 00 00 00 
    aad7:	48 c7 85 f0 ed ff ff 	movq   $0x0,-0x1210(%rbp)
    aade:	00 00 00 00 
    aae2:	48 c7 85 f8 ed ff ff 	movq   $0x0,-0x1208(%rbp)
    aae9:	00 00 00 00 
    aaed:	48 c7 85 a8 ee ff ff 	movq   $0x0,-0x1158(%rbp)
    aaf4:	00 00 00 00 
    aaf8:	48 8b 05 59 67 01 00 	mov    0x16759(%rip),%rax        # 21258 <g_3173>
    aaff:	48 8b 00             	mov    (%rax),%rax
    ab02:	48 89 c2             	mov    %rax,%rdx
    ab05:	48 8b 05 5c 67 01 00 	mov    0x1675c(%rip),%rax        # 21268 <g_3218>
    ab0c:	48 8b 00             	mov    (%rax),%rax
    ab0f:	48 8b 00             	mov    (%rax),%rax
    ab12:	48 89 d6             	mov    %rdx,%rsi
    ab15:	48 89 c7             	mov    %rax,%rdi
    ab18:	e8 8b dd ff ff       	callq  88a8 <safe_sub_func_int64_t_s_s>
    ab1d:	48 89 c6             	mov    %rax,%rsi
    ab20:	48 bf 01 21 ba 16 be 	movabs $0xa204cabe16ba2101,%rdi
    ab27:	ca 04 a2 
    ab2a:	e8 1c e5 ff ff       	callq  904b <safe_sub_func_uint64_t_u_u>
    ab2f:	48 85 c0             	test   %rax,%rax
    ab32:	0f 84 f7 00 00 00    	je     ac2f <func_1+0x147a>
    ab38:	48 8b 05 c9 5f 01 00 	mov    0x15fc9(%rip),%rax        # 20b08 <g_793>
    ab3f:	0f b6 00             	movzbl (%rax),%eax
    ab42:	0f b6 d8             	movzbl %al,%ebx
    ab45:	0f b6 05 c4 3f 01 00 	movzbl 0x13fc4(%rip),%eax        # 1eb10 <g_3281>
    ab4c:	0f b6 d0             	movzbl %al,%edx
    ab4f:	48 8b 85 a0 ee ff ff 	mov    -0x1160(%rbp),%rax
    ab56:	48 89 05 d3 62 01 00 	mov    %rax,0x162d3(%rip)        # 20e30 <g_1173>
    ab5d:	48 8b 05 cc 62 01 00 	mov    0x162cc(%rip),%rax        # 20e30 <g_1173>
    ab64:	48 89 05 05 67 01 00 	mov    %rax,0x16705(%rip)        # 21270 <g_3278>
    ab6b:	48 8b 05 fe 66 01 00 	mov    0x166fe(%rip),%rax        # 21270 <g_3278>
    ab72:	48 8d 0d 77 62 01 00 	lea    0x16277(%rip),%rcx        # 20df0 <g_1174+0x50>
    ab79:	48 39 c8             	cmp    %rcx,%rax
    ab7c:	0f 95 c0             	setne  %al
    ab7f:	0f b6 c0             	movzbl %al,%eax
    ab82:	89 d6                	mov    %edx,%esi
    ab84:	89 c7                	mov    %eax,%edi
    ab86:	e8 6a d8 ff ff       	callq  83f5 <safe_mul_func_int16_t_s_s>
    ab8b:	48 83 bd 58 ee ff ff 	cmpq   $0x0,-0x11a8(%rbp)
    ab92:	00 
    ab93:	0f 95 c0             	setne  %al
    ab96:	0f b6 d0             	movzbl %al,%edx
    ab99:	48 8b 05 c8 66 01 00 	mov    0x166c8(%rip),%rax        # 21268 <g_3218>
    aba0:	48 8b 00             	mov    (%rax),%rax
    aba3:	48 8b 00             	mov    (%rax),%rax
    aba6:	48 21 d0             	and    %rdx,%rax
    aba9:	21 85 34 ed ff ff    	and    %eax,-0x12cc(%rbp)
    abaf:	8b 85 34 ed ff ff    	mov    -0x12cc(%rbp),%eax
    abb5:	48 98                	cltq   
    abb7:	be 02 00 00 00       	mov    $0x2,%esi
    abbc:	48 89 c7             	mov    %rax,%rdi
    abbf:	e8 33 de ff ff       	callq  89f7 <safe_div_func_int64_t_s_s>
    abc4:	8b 95 38 ed ff ff    	mov    -0x12c8(%rbp),%edx
    abca:	48 63 d2             	movslq %edx,%rdx
    abcd:	48 31 c2             	xor    %rax,%rdx
    abd0:	8b 85 6c ed ff ff    	mov    -0x1294(%rbp),%eax
    abd6:	f7 d0                	not    %eax
    abd8:	89 c1                	mov    %eax,%ecx
    abda:	48 8b 05 bf 29 01 00 	mov    0x129bf(%rip),%rax        # 1d5a0 <g_90+0x500>
    abe1:	48 21 d0             	and    %rdx,%rax
    abe4:	48 89 05 b5 29 01 00 	mov    %rax,0x129b5(%rip)        # 1d5a0 <g_90+0x500>
    abeb:	48 8b 05 ae 29 01 00 	mov    0x129ae(%rip),%rax        # 1d5a0 <g_90+0x500>
    abf2:	48 39 c1             	cmp    %rax,%rcx
    abf5:	0f 9c c0             	setl   %al
    abf8:	0f b6 c0             	movzbl %al,%eax
    abfb:	89 de                	mov    %ebx,%esi
    abfd:	89 c7                	mov    %eax,%edi
    abff:	e8 48 e0 ff ff       	callq  8c4c <safe_lshift_func_uint8_t_u_u>
    ac04:	89 c2                	mov    %eax,%edx
    ac06:	48 8b 05 53 61 01 00 	mov    0x16153(%rip),%rax        # 20d60 <g_961>
    ac0d:	48 8b 00             	mov    (%rax),%rax
    ac10:	0f b6 08             	movzbl (%rax),%ecx
    ac13:	48 8b 05 46 61 01 00 	mov    0x16146(%rip),%rax        # 20d60 <g_961>
    ac1a:	48 8b 00             	mov    (%rax),%rax
    ac1d:	09 ca                	or     %ecx,%edx
    ac1f:	88 10                	mov    %dl,(%rax)
    ac21:	0f b6 00             	movzbl (%rax),%eax
    ac24:	84 c0                	test   %al,%al
    ac26:	74 07                	je     ac2f <func_1+0x147a>
    ac28:	b8 01 00 00 00       	mov    $0x1,%eax
    ac2d:	eb 05                	jmp    ac34 <func_1+0x147f>
    ac2f:	b8 00 00 00 00       	mov    $0x0,%eax
    ac34:	21 85 40 ed ff ff    	and    %eax,-0x12c0(%rbp)
    ac3a:	66 c7 05 8d 3b 01 00 	movw   $0x0,0x13b8d(%rip)        # 1e7d0 <g_1044>
    ac41:	00 00 
    ac43:	e9 44 06 00 00       	jmpq   b28c <func_1+0x1ad7>
    ac48:	48 8d 05 19 34 01 00 	lea    0x13419(%rip),%rax        # 1e068 <g_363+0x728>
    ac4f:	48 89 85 d0 ee ff ff 	mov    %rax,-0x1130(%rbp)
    ac56:	c7 85 84 ed ff ff c5 	movl   $0x153e28c5,-0x127c(%rbp)
    ac5d:	28 3e 15 
    ac60:	48 8d 05 19 5d 01 00 	lea    0x15d19(%rip),%rax        # 20980 <g_541+0x160>
    ac67:	48 89 85 d8 ee ff ff 	mov    %rax,-0x1128(%rbp)
    ac6e:	48 c7 85 e0 ee ff ff 	movq   $0x0,-0x1120(%rbp)
    ac75:	00 00 00 00 
    ac79:	48 8d 85 d0 ed ff ff 	lea    -0x1230(%rbp),%rax
    ac80:	48 89 85 e8 ee ff ff 	mov    %rax,-0x1118(%rbp)
    ac87:	48 8d 85 f8 ed ff ff 	lea    -0x1208(%rbp),%rax
    ac8e:	48 89 85 f0 f3 ff ff 	mov    %rax,-0xc10(%rbp)
    ac95:	48 8d 85 f0 ed ff ff 	lea    -0x1210(%rbp),%rax
    ac9c:	48 89 85 f8 f3 ff ff 	mov    %rax,-0xc08(%rbp)
    aca3:	48 8d 85 e8 ed ff ff 	lea    -0x1218(%rbp),%rax
    acaa:	48 89 85 00 f4 ff ff 	mov    %rax,-0xc00(%rbp)
    acb1:	48 8d 85 e8 ed ff ff 	lea    -0x1218(%rbp),%rax
    acb8:	48 89 85 08 f4 ff ff 	mov    %rax,-0xbf8(%rbp)
    acbf:	48 8d 85 f0 ed ff ff 	lea    -0x1210(%rbp),%rax
    acc6:	48 89 85 10 f4 ff ff 	mov    %rax,-0xbf0(%rbp)
    accd:	48 8d 85 f8 ed ff ff 	lea    -0x1208(%rbp),%rax
    acd4:	48 89 85 18 f4 ff ff 	mov    %rax,-0xbe8(%rbp)
    acdb:	48 8d 85 f0 ed ff ff 	lea    -0x1210(%rbp),%rax
    ace2:	48 89 85 20 f4 ff ff 	mov    %rax,-0xbe0(%rbp)
    ace9:	48 8d 85 e8 ed ff ff 	lea    -0x1218(%rbp),%rax
    acf0:	48 89 85 28 f4 ff ff 	mov    %rax,-0xbd8(%rbp)
    acf7:	48 8d 85 f8 ed ff ff 	lea    -0x1208(%rbp),%rax
    acfe:	48 89 85 30 f4 ff ff 	mov    %rax,-0xbd0(%rbp)
    ad05:	48 8d 85 f8 ed ff ff 	lea    -0x1208(%rbp),%rax
    ad0c:	48 89 85 38 f4 ff ff 	mov    %rax,-0xbc8(%rbp)
    ad13:	48 8d 85 f0 ed ff ff 	lea    -0x1210(%rbp),%rax
    ad1a:	48 89 85 40 f4 ff ff 	mov    %rax,-0xbc0(%rbp)
    ad21:	48 8d 85 f8 ed ff ff 	lea    -0x1208(%rbp),%rax
    ad28:	48 89 85 48 f4 ff ff 	mov    %rax,-0xbb8(%rbp)
    ad2f:	48 8d 85 f0 ed ff ff 	lea    -0x1210(%rbp),%rax
    ad36:	48 89 85 50 f4 ff ff 	mov    %rax,-0xbb0(%rbp)
    ad3d:	48 8d 85 e8 ed ff ff 	lea    -0x1218(%rbp),%rax
    ad44:	48 89 85 58 f4 ff ff 	mov    %rax,-0xba8(%rbp)
    ad4b:	48 8d 85 f8 ed ff ff 	lea    -0x1208(%rbp),%rax
    ad52:	48 89 85 60 f4 ff ff 	mov    %rax,-0xba0(%rbp)
    ad59:	48 8d 85 f0 ed ff ff 	lea    -0x1210(%rbp),%rax
    ad60:	48 89 85 68 f4 ff ff 	mov    %rax,-0xb98(%rbp)
    ad67:	48 8d 85 f8 ed ff ff 	lea    -0x1208(%rbp),%rax
    ad6e:	48 89 85 70 f4 ff ff 	mov    %rax,-0xb90(%rbp)
    ad75:	48 8d 85 f8 ed ff ff 	lea    -0x1208(%rbp),%rax
    ad7c:	48 89 85 78 f4 ff ff 	mov    %rax,-0xb88(%rbp)
    ad83:	48 8d 85 f8 ed ff ff 	lea    -0x1208(%rbp),%rax
    ad8a:	48 89 85 80 f4 ff ff 	mov    %rax,-0xb80(%rbp)
    ad91:	48 8d 85 f0 ed ff ff 	lea    -0x1210(%rbp),%rax
    ad98:	48 89 85 88 f4 ff ff 	mov    %rax,-0xb78(%rbp)
    ad9f:	48 8d 85 f0 ed ff ff 	lea    -0x1210(%rbp),%rax
    ada6:	48 89 85 90 f4 ff ff 	mov    %rax,-0xb70(%rbp)
    adad:	48 8d 85 f8 ed ff ff 	lea    -0x1208(%rbp),%rax
    adb4:	48 89 85 98 f4 ff ff 	mov    %rax,-0xb68(%rbp)
    adbb:	48 8d 85 f8 ed ff ff 	lea    -0x1208(%rbp),%rax
    adc2:	48 89 85 a0 f4 ff ff 	mov    %rax,-0xb60(%rbp)
    adc9:	48 8d 85 f0 ed ff ff 	lea    -0x1210(%rbp),%rax
    add0:	48 89 85 a8 f4 ff ff 	mov    %rax,-0xb58(%rbp)
    add7:	48 8d 85 f8 ed ff ff 	lea    -0x1208(%rbp),%rax
    adde:	48 89 85 b0 f4 ff ff 	mov    %rax,-0xb50(%rbp)
    ade5:	48 8d 85 f8 ed ff ff 	lea    -0x1208(%rbp),%rax
    adec:	48 89 85 b8 f4 ff ff 	mov    %rax,-0xb48(%rbp)
    adf3:	48 8d 85 f0 ed ff ff 	lea    -0x1210(%rbp),%rax
    adfa:	48 89 85 c0 f4 ff ff 	mov    %rax,-0xb40(%rbp)
    ae01:	48 8d 85 f8 ed ff ff 	lea    -0x1208(%rbp),%rax
    ae08:	48 89 85 c8 f4 ff ff 	mov    %rax,-0xb38(%rbp)
    ae0f:	48 8d 85 e8 ed ff ff 	lea    -0x1218(%rbp),%rax
    ae16:	48 89 85 d0 f4 ff ff 	mov    %rax,-0xb30(%rbp)
    ae1d:	48 8d 85 f8 ed ff ff 	lea    -0x1208(%rbp),%rax
    ae24:	48 89 85 d8 f4 ff ff 	mov    %rax,-0xb28(%rbp)
    ae2b:	48 8d 85 f0 ed ff ff 	lea    -0x1210(%rbp),%rax
    ae32:	48 89 85 e0 f4 ff ff 	mov    %rax,-0xb20(%rbp)
    ae39:	48 8d 85 f0 ed ff ff 	lea    -0x1210(%rbp),%rax
    ae40:	48 89 85 e8 f4 ff ff 	mov    %rax,-0xb18(%rbp)
    ae47:	48 8d 85 f0 ed ff ff 	lea    -0x1210(%rbp),%rax
    ae4e:	48 89 85 f0 f4 ff ff 	mov    %rax,-0xb10(%rbp)
    ae55:	48 8d 85 f0 ed ff ff 	lea    -0x1210(%rbp),%rax
    ae5c:	48 89 85 f8 f4 ff ff 	mov    %rax,-0xb08(%rbp)
    ae63:	48 8d 85 f0 ed ff ff 	lea    -0x1210(%rbp),%rax
    ae6a:	48 89 85 00 f5 ff ff 	mov    %rax,-0xb00(%rbp)
    ae71:	48 8d 85 f0 ed ff ff 	lea    -0x1210(%rbp),%rax
    ae78:	48 89 85 08 f5 ff ff 	mov    %rax,-0xaf8(%rbp)
    ae7f:	48 8d 85 e8 ed ff ff 	lea    -0x1218(%rbp),%rax
    ae86:	48 89 85 10 f5 ff ff 	mov    %rax,-0xaf0(%rbp)
    ae8d:	48 8d 85 f8 ed ff ff 	lea    -0x1208(%rbp),%rax
    ae94:	48 89 85 18 f5 ff ff 	mov    %rax,-0xae8(%rbp)
    ae9b:	48 8d 85 f8 ed ff ff 	lea    -0x1208(%rbp),%rax
    aea2:	48 89 85 20 f5 ff ff 	mov    %rax,-0xae0(%rbp)
    aea9:	48 8d 85 e8 ed ff ff 	lea    -0x1218(%rbp),%rax
    aeb0:	48 89 85 28 f5 ff ff 	mov    %rax,-0xad8(%rbp)
    aeb7:	48 8d 85 f0 ed ff ff 	lea    -0x1210(%rbp),%rax
    aebe:	48 89 85 30 f5 ff ff 	mov    %rax,-0xad0(%rbp)
    aec5:	48 8d 85 f0 ed ff ff 	lea    -0x1210(%rbp),%rax
    aecc:	48 89 85 38 f5 ff ff 	mov    %rax,-0xac8(%rbp)
    aed3:	48 8d 85 f8 ed ff ff 	lea    -0x1208(%rbp),%rax
    aeda:	48 89 85 40 f5 ff ff 	mov    %rax,-0xac0(%rbp)
    aee1:	48 8d 85 f8 ed ff ff 	lea    -0x1208(%rbp),%rax
    aee8:	48 89 85 48 f5 ff ff 	mov    %rax,-0xab8(%rbp)
    aeef:	48 8d 85 f8 ed ff ff 	lea    -0x1208(%rbp),%rax
    aef6:	48 89 85 50 f5 ff ff 	mov    %rax,-0xab0(%rbp)
    aefd:	48 8d 85 f0 ed ff ff 	lea    -0x1210(%rbp),%rax
    af04:	48 89 85 58 f5 ff ff 	mov    %rax,-0xaa8(%rbp)
    af0b:	48 8d 85 f0 ed ff ff 	lea    -0x1210(%rbp),%rax
    af12:	48 89 85 60 f5 ff ff 	mov    %rax,-0xaa0(%rbp)
    af19:	48 8d 85 f0 ed ff ff 	lea    -0x1210(%rbp),%rax
    af20:	48 89 85 68 f5 ff ff 	mov    %rax,-0xa98(%rbp)
    af27:	48 8d 85 f8 ed ff ff 	lea    -0x1208(%rbp),%rax
    af2e:	48 89 85 70 f5 ff ff 	mov    %rax,-0xa90(%rbp)
    af35:	48 8d 85 f8 ed ff ff 	lea    -0x1208(%rbp),%rax
    af3c:	48 89 85 78 f5 ff ff 	mov    %rax,-0xa88(%rbp)
    af43:	48 8d 85 e8 ed ff ff 	lea    -0x1218(%rbp),%rax
    af4a:	48 89 85 80 f5 ff ff 	mov    %rax,-0xa80(%rbp)
    af51:	48 8d 85 f0 ed ff ff 	lea    -0x1210(%rbp),%rax
    af58:	48 89 85 88 f5 ff ff 	mov    %rax,-0xa78(%rbp)
    af5f:	48 8d 85 f8 ed ff ff 	lea    -0x1208(%rbp),%rax
    af66:	48 89 85 90 f5 ff ff 	mov    %rax,-0xa70(%rbp)
    af6d:	48 8d 85 f0 ed ff ff 	lea    -0x1210(%rbp),%rax
    af74:	48 89 85 98 f5 ff ff 	mov    %rax,-0xa68(%rbp)
    af7b:	48 8d 85 e8 ed ff ff 	lea    -0x1218(%rbp),%rax
    af82:	48 89 85 a0 f5 ff ff 	mov    %rax,-0xa60(%rbp)
    af89:	48 8d 85 f0 ed ff ff 	lea    -0x1210(%rbp),%rax
    af90:	48 89 85 a8 f5 ff ff 	mov    %rax,-0xa58(%rbp)
    af97:	48 8d 85 f0 ed ff ff 	lea    -0x1210(%rbp),%rax
    af9e:	48 89 85 b0 f5 ff ff 	mov    %rax,-0xa50(%rbp)
    afa5:	48 8d 85 f0 ed ff ff 	lea    -0x1210(%rbp),%rax
    afac:	48 89 85 b8 f5 ff ff 	mov    %rax,-0xa48(%rbp)
    afb3:	48 8d 85 e8 ed ff ff 	lea    -0x1218(%rbp),%rax
    afba:	48 89 85 c0 f5 ff ff 	mov    %rax,-0xa40(%rbp)
    afc1:	48 8d 85 f0 ed ff ff 	lea    -0x1210(%rbp),%rax
    afc8:	48 89 85 c8 f5 ff ff 	mov    %rax,-0xa38(%rbp)
    afcf:	48 8d 85 f0 ed ff ff 	lea    -0x1210(%rbp),%rax
    afd6:	48 89 85 d0 f5 ff ff 	mov    %rax,-0xa30(%rbp)
    afdd:	48 8d 85 f0 ed ff ff 	lea    -0x1210(%rbp),%rax
    afe4:	48 89 85 d8 f5 ff ff 	mov    %rax,-0xa28(%rbp)
    afeb:	48 8d 85 f8 ed ff ff 	lea    -0x1208(%rbp),%rax
    aff2:	48 89 85 e0 f5 ff ff 	mov    %rax,-0xa20(%rbp)
    aff9:	48 8d 85 e8 ed ff ff 	lea    -0x1218(%rbp),%rax
    b000:	48 89 85 e8 f5 ff ff 	mov    %rax,-0xa18(%rbp)
    b007:	48 8d 85 f8 ed ff ff 	lea    -0x1208(%rbp),%rax
    b00e:	48 89 85 f0 f5 ff ff 	mov    %rax,-0xa10(%rbp)
    b015:	48 8d 85 f0 ed ff ff 	lea    -0x1210(%rbp),%rax
    b01c:	48 89 85 f8 f5 ff ff 	mov    %rax,-0xa08(%rbp)
    b023:	48 8d 85 f0 ed ff ff 	lea    -0x1210(%rbp),%rax
    b02a:	48 89 85 00 f6 ff ff 	mov    %rax,-0xa00(%rbp)
    b031:	48 8d 85 f0 ed ff ff 	lea    -0x1210(%rbp),%rax
    b038:	48 89 85 08 f6 ff ff 	mov    %rax,-0x9f8(%rbp)
    b03f:	48 8d 85 f0 ed ff ff 	lea    -0x1210(%rbp),%rax
    b046:	48 89 85 10 f6 ff ff 	mov    %rax,-0x9f0(%rbp)
    b04d:	48 8d 85 f0 ed ff ff 	lea    -0x1210(%rbp),%rax
    b054:	48 89 85 18 f6 ff ff 	mov    %rax,-0x9e8(%rbp)
    b05b:	48 8d 85 f0 ed ff ff 	lea    -0x1210(%rbp),%rax
    b062:	48 89 85 20 f6 ff ff 	mov    %rax,-0x9e0(%rbp)
    b069:	48 8d 85 e8 ed ff ff 	lea    -0x1218(%rbp),%rax
    b070:	48 89 85 28 f6 ff ff 	mov    %rax,-0x9d8(%rbp)
    b077:	48 8d 85 f8 ed ff ff 	lea    -0x1208(%rbp),%rax
    b07e:	48 89 85 30 f6 ff ff 	mov    %rax,-0x9d0(%rbp)
    b085:	48 8d 85 f8 ed ff ff 	lea    -0x1208(%rbp),%rax
    b08c:	48 89 85 38 f6 ff ff 	mov    %rax,-0x9c8(%rbp)
    b093:	48 8d 85 e8 ed ff ff 	lea    -0x1218(%rbp),%rax
    b09a:	48 89 85 40 f6 ff ff 	mov    %rax,-0x9c0(%rbp)
    b0a1:	48 8d 85 f0 ed ff ff 	lea    -0x1210(%rbp),%rax
    b0a8:	48 89 85 48 f6 ff ff 	mov    %rax,-0x9b8(%rbp)
    b0af:	48 8d 85 f0 ed ff ff 	lea    -0x1210(%rbp),%rax
    b0b6:	48 89 85 50 f6 ff ff 	mov    %rax,-0x9b0(%rbp)
    b0bd:	48 8d 85 f8 ed ff ff 	lea    -0x1208(%rbp),%rax
    b0c4:	48 89 85 58 f6 ff ff 	mov    %rax,-0x9a8(%rbp)
    b0cb:	48 8d 85 f8 ed ff ff 	lea    -0x1208(%rbp),%rax
    b0d2:	48 89 85 60 f6 ff ff 	mov    %rax,-0x9a0(%rbp)
    b0d9:	48 8d 85 f8 ed ff ff 	lea    -0x1208(%rbp),%rax
    b0e0:	48 89 85 68 f6 ff ff 	mov    %rax,-0x998(%rbp)
    b0e7:	66 c7 85 28 ed ff ff 	movw   $0xa04,-0x12d8(%rbp)
    b0ee:	04 0a 
    b0f0:	48 8b 05 21 3a 01 00 	mov    0x13a21(%rip),%rax        # 1eb18 <g_3290>
    b0f7:	48 8b 85 d8 ee ff ff 	mov    -0x1128(%rbp),%rax
    b0fe:	48 8b 95 90 ee ff ff 	mov    -0x1170(%rbp),%rdx
    b105:	48 89 10             	mov    %rdx,(%rax)
    b108:	48 8b 85 d8 ee ff ff 	mov    -0x1128(%rbp),%rax
    b10f:	48 8b 38             	mov    (%rax),%rdi
    b112:	8b 85 40 ed ff ff    	mov    -0x12c0(%rbp),%eax
    b118:	0f b7 c8             	movzwl %ax,%ecx
    b11b:	48 8b b5 18 f0 ff ff 	mov    -0xfe8(%rbp),%rsi
    b122:	48 8b 05 e7 59 01 00 	mov    0x159e7(%rip),%rax        # 20b10 <g_945>
    b129:	48 8b 00             	mov    (%rax),%rax
    b12c:	48 8b 1d 8d 52 01 00 	mov    0x1528d(%rip),%rbx        # 203c0 <g_310>
    b133:	48 8b 95 d0 ee ff ff 	mov    -0x1130(%rbp),%rdx
    b13a:	49 89 f8             	mov    %rdi,%r8
    b13d:	48 89 c7             	mov    %rax,%rdi
    b140:	e8 96 8b 00 00       	callq  13cdb <func_92>
    b145:	48 89 03             	mov    %rax,(%rbx)
    b148:	0f b6 85 1d ed ff ff 	movzbl -0x12e3(%rbp),%eax
    b14f:	89 85 3c ed ff ff    	mov    %eax,-0x12c4(%rbp)
    b155:	48 8b 05 a4 59 01 00 	mov    0x159a4(%rip),%rax        # 20b00 <g_772>
    b15c:	48 8b 00             	mov    (%rax),%rax
    b15f:	48 8b 00             	mov    (%rax),%rax
    b162:	0f b7 00             	movzwl (%rax),%eax
    b165:	0f b7 d0             	movzwl %ax,%edx
    b168:	66 0f be 85 1c ed ff 	movsbw -0x12e4(%rbp),%ax
    b16f:	ff 
    b170:	0f b7 c0             	movzwl %ax,%eax
    b173:	89 d6                	mov    %edx,%esi
    b175:	89 c7                	mov    %eax,%edi
    b177:	e8 e0 db ff ff       	callq  8d5c <safe_mod_func_uint16_t_u_u>
    b17c:	48 8b 05 9d 5d 01 00 	mov    0x15d9d(%rip),%rax        # 20f20 <g_1548>
    b183:	48 8b 10             	mov    (%rax),%rdx
    b186:	8b 85 84 ed ff ff    	mov    -0x127c(%rbp),%eax
    b18c:	48 98                	cltq   
    b18e:	48 89 d1             	mov    %rdx,%rcx
    b191:	48 21 c1             	and    %rax,%rcx
    b194:	48 8b 05 c5 5b 01 00 	mov    0x15bc5(%rip),%rax        # 20d60 <g_961>
    b19b:	48 8b 00             	mov    (%rax),%rax
    b19e:	0f b6 10             	movzbl (%rax),%edx
    b1a1:	48 8b 05 b8 5b 01 00 	mov    0x15bb8(%rip),%rax        # 20d60 <g_961>
    b1a8:	48 8b 00             	mov    (%rax),%rax
    b1ab:	21 ca                	and    %ecx,%edx
    b1ad:	88 10                	mov    %dl,(%rax)
    b1af:	48 8b 85 10 ee ff ff 	mov    -0x11f0(%rbp),%rax
    b1b6:	8b 00                	mov    (%rax),%eax
    b1b8:	0f bf d0             	movswl %ax,%edx
    b1bb:	48 8b 85 10 ee ff ff 	mov    -0x11f0(%rbp),%rax
    b1c2:	8b 00                	mov    (%rax),%eax
    b1c4:	98                   	cwtl   
    b1c5:	89 d6                	mov    %edx,%esi
    b1c7:	89 c7                	mov    %eax,%edi
    b1c9:	e8 87 d2 ff ff       	callq  8455 <safe_div_func_int16_t_s_s>
    b1ce:	0f bf d0             	movswl %ax,%edx
    b1d1:	48 83 bd 88 ee ff ff 	cmpq   $0x0,-0x1178(%rbp)
    b1d8:	00 
    b1d9:	0f 95 c1             	setne  %cl
    b1dc:	48 8b 05 a5 5b 01 00 	mov    0x15ba5(%rip),%rax        # 20d88 <g_1175>
    b1e3:	0f b6 c9             	movzbl %cl,%ecx
    b1e6:	89 08                	mov    %ecx,(%rax)
    b1e8:	8b 00                	mov    (%rax),%eax
    b1ea:	89 d6                	mov    %edx,%esi
    b1ec:	89 c7                	mov    %eax,%edi
    b1ee:	e8 0c d5 ff ff       	callq  86ff <safe_div_func_int32_t_s_s>
    b1f3:	48 8b 15 36 5d 01 00 	mov    0x15d36(%rip),%rdx        # 20f30 <g_1691>
    b1fa:	48 8b 32             	mov    (%rdx),%rsi
    b1fd:	48 8b 8d d0 ed ff ff 	mov    -0x1230(%rbp),%rcx
    b204:	48 8b 95 e8 ee ff ff 	mov    -0x1118(%rbp),%rdx
    b20b:	48 89 0a             	mov    %rcx,(%rdx)
    b20e:	48 8b 95 e8 ee ff ff 	mov    -0x1118(%rbp),%rdx
    b215:	48 8b 12             	mov    (%rdx),%rdx
    b218:	48 39 d6             	cmp    %rdx,%rsi
    b21b:	0f 94 c2             	sete   %dl
    b21e:	0f b6 d2             	movzbl %dl,%edx
    b221:	39 d0                	cmp    %edx,%eax
    b223:	0f 95 c0             	setne  %al
    b226:	0f b6 d0             	movzbl %al,%edx
    b229:	0f b7 85 24 ed ff ff 	movzwl -0x12dc(%rbp),%eax
    b230:	39 c2                	cmp    %eax,%edx
    b232:	0f 9d c0             	setge  %al
    b235:	0f b6 d0             	movzbl %al,%edx
    b238:	0f be 85 1c ed ff ff 	movsbl -0x12e4(%rbp),%eax
    b23f:	31 c2                	xor    %eax,%edx
    b241:	8b 85 40 ed ff ff    	mov    -0x12c0(%rbp),%eax
    b247:	89 d6                	mov    %edx,%esi
    b249:	89 c7                	mov    %eax,%edi
    b24b:	e8 af d4 ff ff       	callq  86ff <safe_div_func_int32_t_s_s>
    b250:	48 8d 15 4d 37 01 00 	lea    0x1374d(%rip),%rdx        # 1e9a4 <g_1199>
    b257:	8b 0a                	mov    (%rdx),%ecx
    b259:	48 8d 15 44 37 01 00 	lea    0x13744(%rip),%rdx        # 1e9a4 <g_1199>
    b260:	31 c8                	xor    %ecx,%eax
    b262:	89 02                	mov    %eax,(%rdx)
    b264:	48 8b 05 a5 55 01 00 	mov    0x155a5(%rip),%rax        # 20810 <g_537>
    b26b:	48 8b 10             	mov    (%rax),%rdx
    b26e:	48 8b 05 93 55 01 00 	mov    0x15593(%rip),%rax        # 20808 <g_538>
    b275:	48 8b 12             	mov    (%rdx),%rdx
    b278:	48 89 10             	mov    %rdx,(%rax)
    b27b:	0f b7 05 4e 35 01 00 	movzwl 0x1354e(%rip),%eax        # 1e7d0 <g_1044>
    b282:	83 c0 01             	add    $0x1,%eax
    b285:	66 89 05 44 35 01 00 	mov    %ax,0x13544(%rip)        # 1e7d0 <g_1044>
    b28c:	0f b7 05 3d 35 01 00 	movzwl 0x1353d(%rip),%eax        # 1e7d0 <g_1044>
    b293:	66 83 f8 08          	cmp    $0x8,%ax
    b297:	0f 86 ab f9 ff ff    	jbe    ac48 <func_1+0x1493>
    b29d:	48 8b 05 b4 5f 01 00 	mov    0x15fb4(%rip),%rax        # 21258 <g_3173>
    b2a4:	48 8b 10             	mov    (%rax),%rdx
    b2a7:	48 8b 05 6a 58 01 00 	mov    0x1586a(%rip),%rax        # 20b18 <g_949>
    b2ae:	48 8b 00             	mov    (%rax),%rax
    b2b1:	48 39 c2             	cmp    %rax,%rdx
    b2b4:	0f 96 c0             	setbe  %al
    b2b7:	0f b6 c0             	movzbl %al,%eax
    b2ba:	89 c6                	mov    %eax,%esi
    b2bc:	bf fe ff ff ff       	mov    $0xfffffffe,%edi
    b2c1:	e8 3f d3 ff ff       	callq  8605 <safe_sub_func_int32_t_s_s>
    b2c6:	85 c0                	test   %eax,%eax
    b2c8:	0f 84 3e 02 00 00    	je     b50c <func_1+0x1d57>
    b2ce:	48 8d 05 8b 5f 01 00 	lea    0x15f8b(%rip),%rax        # 21260 <g_3172>
    b2d5:	48 89 85 00 ee ff ff 	mov    %rax,-0x1200(%rbp)
    b2dc:	48 8d 85 00 ee ff ff 	lea    -0x1200(%rbp),%rax
    b2e3:	48 89 85 c0 ee ff ff 	mov    %rax,-0x1140(%rbp)
    b2ea:	c7 85 30 ed ff ff 9a 	movl   $0xc1d74b9a,-0x12d0(%rbp)
    b2f1:	4b d7 c1 
    b2f4:	c6 85 1e ed ff ff 31 	movb   $0x31,-0x12e2(%rbp)
    b2fb:	c7 85 74 ed ff ff 1c 	movl   $0x2807801c,-0x128c(%rbp)
    b302:	80 07 28 
    b305:	c7 85 78 ed ff ff ff 	movl   $0xffffffff,-0x1288(%rbp)
    b30c:	ff ff ff 
    b30f:	c7 85 7c ed ff ff fb 	movl   $0xfffffffb,-0x1284(%rbp)
    b316:	ff ff ff 
    b319:	c7 85 4c ed ff ff 00 	movl   $0x0,-0x12b4(%rbp)
    b320:	00 00 00 
    b323:	eb 19                	jmp    b33e <func_1+0x1b89>
    b325:	8b 85 4c ed ff ff    	mov    -0x12b4(%rbp),%eax
    b32b:	48 98                	cltq   
    b32d:	66 c7 84 45 f0 f3 ff 	movw   $0xfff6,-0xc10(%rbp,%rax,2)
    b334:	ff f6 ff 
    b337:	83 85 4c ed ff ff 01 	addl   $0x1,-0x12b4(%rbp)
    b33e:	83 bd 4c ed ff ff 03 	cmpl   $0x3,-0x12b4(%rbp)
    b345:	7e de                	jle    b325 <func_1+0x1b70>
    b347:	48 8d 05 56 36 01 00 	lea    0x13656(%rip),%rax        # 1e9a4 <g_1199>
    b34e:	8b 00                	mov    (%rax),%eax
    b350:	31 85 3c ed ff ff    	xor    %eax,-0x12c4(%rbp)
    b356:	8b 85 30 ed ff ff    	mov    -0x12d0(%rbp),%eax
    b35c:	0f b7 d8             	movzwl %ax,%ebx
    b35f:	48 8b 05 12 5e 01 00 	mov    0x15e12(%rip),%rax        # 21178 <g_2332>
    b366:	44 8b 20             	mov    (%rax),%r12d
    b369:	8b 85 30 ed ff ff    	mov    -0x12d0(%rbp),%eax
    b36f:	48 98                	cltq   
    b371:	8b 95 30 ed ff ff    	mov    -0x12d0(%rbp),%edx
    b377:	48 63 d2             	movslq %edx,%rdx
    b37a:	b9 4c 47 5b ca       	mov    $0xca5b474c,%ecx
    b37f:	48 31 ca             	xor    %rcx,%rdx
    b382:	48 89 c6             	mov    %rax,%rsi
    b385:	48 89 d7             	mov    %rdx,%rdi
    b388:	e8 f3 dc ff ff       	callq  9080 <safe_mod_func_uint64_t_u_u>
    b38d:	0f b6 c0             	movzbl %al,%eax
    b390:	be d2 00 00 00       	mov    $0xd2,%esi
    b395:	89 c7                	mov    %eax,%edi
    b397:	e8 be d7 ff ff       	callq  8b5a <safe_add_func_uint8_t_u_u>
    b39c:	0f b6 c0             	movzbl %al,%eax
    b39f:	41 39 c4             	cmp    %eax,%r12d
    b3a2:	76 09                	jbe    b3ad <func_1+0x1bf8>
    b3a4:	80 bd 1d ed ff ff 00 	cmpb   $0x0,-0x12e3(%rbp)
    b3ab:	74 07                	je     b3b4 <func_1+0x1bff>
    b3ad:	b8 01 00 00 00       	mov    $0x1,%eax
    b3b2:	eb 05                	jmp    b3b9 <func_1+0x1c04>
    b3b4:	b8 00 00 00 00       	mov    $0x0,%eax
    b3b9:	89 85 48 ed ff ff    	mov    %eax,-0x12b8(%rbp)
    b3bf:	8b 85 48 ed ff ff    	mov    -0x12b8(%rbp),%eax
    b3c5:	66 35 c3 39          	xor    $0x39c3,%ax
    b3c9:	0f b7 c0             	movzwl %ax,%eax
    b3cc:	89 de                	mov    %ebx,%esi
    b3ce:	89 c7                	mov    %eax,%edi
    b3d0:	e8 68 d9 ff ff       	callq  8d3d <safe_mul_func_uint16_t_u_u>
    b3d5:	0f b7 d0             	movzwl %ax,%edx
    b3d8:	0f be 85 1c ed ff ff 	movsbl -0x12e4(%rbp),%eax
    b3df:	39 c2                	cmp    %eax,%edx
    b3e1:	0f 9c c0             	setl   %al
    b3e4:	0f b6 d0             	movzbl %al,%edx
    b3e7:	8b 85 30 ed ff ff    	mov    -0x12d0(%rbp),%eax
    b3ed:	39 c2                	cmp    %eax,%edx
    b3ef:	0f 95 c0             	setne  %al
    b3f2:	0f b6 c0             	movzbl %al,%eax
    b3f5:	be 07 00 00 00       	mov    $0x7,%esi
    b3fa:	89 c7                	mov    %eax,%edi
    b3fc:	e8 47 da ff ff       	callq  8e48 <safe_rshift_func_uint16_t_u_s>
    b401:	ba 01 00 00 00       	mov    $0x1,%edx
    b406:	0f b7 85 f4 f3 ff ff 	movzwl -0xc0c(%rbp),%eax
    b40d:	09 d0                	or     %edx,%eax
    b40f:	66 89 85 f4 f3 ff ff 	mov    %ax,-0xc0c(%rbp)
    b416:	0f b7 85 f4 f3 ff ff 	movzwl -0xc0c(%rbp),%eax
    b41d:	0c 90                	or     $0x90,%al
    b41f:	48 0f bf c0          	movswq %ax,%rax
    b423:	0f b6 15 6e 24 01 00 	movzbl 0x1246e(%rip),%edx        # 1d898 <g_147>
    b42a:	0f b6 d2             	movzbl %dl,%edx
    b42d:	48 63 d2             	movslq %edx,%rdx
    b430:	48 8d 0c 12          	lea    (%rdx,%rdx,1),%rcx
    b434:	48 8d 15 05 33 01 00 	lea    0x13305(%rip),%rdx        # 1e740 <g_555>
    b43b:	0f b7 14 11          	movzwl (%rcx,%rdx,1),%edx
    b43f:	09 c2                	or     %eax,%edx
    b441:	0f b6 05 50 24 01 00 	movzbl 0x12450(%rip),%eax        # 1d898 <g_147>
    b448:	0f b6 c0             	movzbl %al,%eax
    b44b:	89 d6                	mov    %edx,%esi
    b44d:	48 63 d0             	movslq %eax,%rdx
    b450:	48 8d 0c 12          	lea    (%rdx,%rdx,1),%rcx
    b454:	48 8d 15 e5 32 01 00 	lea    0x132e5(%rip),%rdx        # 1e740 <g_555>
    b45b:	66 89 34 11          	mov    %si,(%rcx,%rdx,1)
    b45f:	48 98                	cltq   
    b461:	48 8d 14 00          	lea    (%rax,%rax,1),%rdx
    b465:	48 8d 05 d4 32 01 00 	lea    0x132d4(%rip),%rax        # 1e740 <g_555>
    b46c:	0f b7 04 02          	movzwl (%rdx,%rax,1),%eax
    b470:	0f b7 d8             	movzwl %ax,%ebx
    b473:	48 8b 95 e0 ed ff ff 	mov    -0x1220(%rbp),%rdx
    b47a:	48 8b 85 c0 ee ff ff 	mov    -0x1140(%rbp),%rax
    b481:	48 89 10             	mov    %rdx,(%rax)
    b484:	48 8b 85 c0 ee ff ff 	mov    -0x1140(%rbp),%rax
    b48b:	48 8b 10             	mov    (%rax),%rdx
    b48e:	48 8b 85 e0 ed ff ff 	mov    -0x1220(%rbp),%rax
    b495:	48 39 c2             	cmp    %rax,%rdx
    b498:	75 1a                	jne    b4b4 <func_1+0x1cff>
    b49a:	48 0f be 85 1c ed ff 	movsbq -0x12e4(%rbp),%rax
    b4a1:	ff 
    b4a2:	48 89 c6             	mov    %rax,%rsi
    b4a5:	bf 01 00 00 00       	mov    $0x1,%edi
    b4aa:	e8 7f db ff ff       	callq  902e <safe_add_func_uint64_t_u_u>
    b4af:	48 85 c0             	test   %rax,%rax
    b4b2:	74 07                	je     b4bb <func_1+0x1d06>
    b4b4:	b8 01 00 00 00       	mov    $0x1,%eax
    b4b9:	eb 05                	jmp    b4c0 <func_1+0x1d0b>
    b4bb:	b8 00 00 00 00       	mov    $0x0,%eax
    b4c0:	83 f8 02             	cmp    $0x2,%eax
    b4c3:	0f 9f c0             	setg   %al
    b4c6:	0f b6 c0             	movzbl %al,%eax
    b4c9:	89 de                	mov    %ebx,%esi
    b4cb:	89 c7                	mov    %eax,%edi
    b4cd:	e8 6b d8 ff ff       	callq  8d3d <safe_mul_func_uint16_t_u_u>
    b4d2:	48 8b 05 47 5a 01 00 	mov    0x15a47(%rip),%rax        # 20f20 <g_1548>
    b4d9:	48 c7 00 01 00 00 00 	movq   $0x1,(%rax)
    b4e0:	48 8b 00             	mov    (%rax),%rax
    b4e3:	48 89 c2             	mov    %rax,%rdx
    b4e6:	48 8b 05 23 56 01 00 	mov    0x15623(%rip),%rax        # 20b10 <g_945>
    b4ed:	48 8b 00             	mov    (%rax),%rax
    b4f0:	48 39 c2             	cmp    %rax,%rdx
    b4f3:	0f 97 c0             	seta   %al
    b4f6:	0f b6 c0             	movzbl %al,%eax
    b4f9:	31 85 74 ed ff ff    	xor    %eax,-0x128c(%rbp)
    b4ff:	48 83 ad 98 ee ff ff 	subq   $0x1,-0x1168(%rbp)
    b506:	01 
    b507:	e9 b9 01 00 00       	jmpq   b6c5 <func_1+0x1f10>
    b50c:	c7 85 70 ed ff ff b0 	movl   $0x6b28b1b0,-0x1290(%rbp)
    b513:	b1 28 6b 
    b516:	48 8d 05 5b 5c 01 00 	lea    0x15c5b(%rip),%rax        # 21178 <g_2332>
    b51d:	48 89 85 b0 ee ff ff 	mov    %rax,-0x1150(%rbp)
    b524:	48 8d 05 b5 5a 01 00 	lea    0x15ab5(%rip),%rax        # 20fe0 <g_2050+0x80>
    b52b:	48 89 85 b8 ee ff ff 	mov    %rax,-0x1148(%rbp)
    b532:	c7 85 50 ed ff ff 00 	movl   $0x0,-0x12b0(%rbp)
    b539:	00 00 00 
    b53c:	eb 1e                	jmp    b55c <func_1+0x1da7>
    b53e:	8b 85 50 ed ff ff    	mov    -0x12b0(%rbp),%eax
    b544:	48 98                	cltq   
    b546:	48 8d 95 e0 ed ff ff 	lea    -0x1220(%rbp),%rdx
    b54d:	48 89 94 c5 f0 f3 ff 	mov    %rdx,-0xc10(%rbp,%rax,8)
    b554:	ff 
    b555:	83 85 50 ed ff ff 01 	addl   $0x1,-0x12b0(%rbp)
    b55c:	83 bd 50 ed ff ff 02 	cmpl   $0x2,-0x12b0(%rbp)
    b563:	7e d9                	jle    b53e <func_1+0x1d89>
    b565:	48 8b 05 9c 55 01 00 	mov    0x1559c(%rip),%rax        # 20b08 <g_793>
    b56c:	0f b6 10             	movzbl (%rax),%edx
    b56f:	8d 4a ff             	lea    -0x1(%rdx),%ecx
    b572:	88 08                	mov    %cl,(%rax)
    b574:	0f b6 d2             	movzbl %dl,%edx
    b577:	48 8b 85 98 f0 ff ff 	mov    -0xf68(%rbp),%rax
    b57e:	48 89 85 e0 ed ff ff 	mov    %rax,-0x1220(%rbp)
    b585:	48 8b 85 e0 ed ff ff 	mov    -0x1220(%rbp),%rax
    b58c:	48 8d 0d 0d 56 01 00 	lea    0x1560d(%rip),%rcx        # 20ba0 <g_948+0x80>
    b593:	48 39 c8             	cmp    %rcx,%rax
    b596:	0f 95 c0             	setne  %al
    b599:	0f b6 c0             	movzbl %al,%eax
    b59c:	21 d0                	and    %edx,%eax
    b59e:	4c 63 e0             	movslq %eax,%r12
    b5a1:	0f be 9d 1c ed ff ff 	movsbl -0x12e4(%rbp),%ebx
    b5a8:	48 83 bd 20 ee ff ff 	cmpq   $0x0,-0x11e0(%rbp)
    b5af:	00 
    b5b0:	0f 95 c0             	setne  %al
    b5b3:	41 89 c5             	mov    %eax,%r13d
    b5b6:	0f b6 85 ed ef ff ff 	movzbl -0x1013(%rbp),%eax
    b5bd:	0f b6 d0             	movzbl %al,%edx
    b5c0:	48 8b 85 10 ee ff ff 	mov    -0x11f0(%rbp),%rax
    b5c7:	8b 08                	mov    (%rax),%ecx
    b5c9:	0f b7 85 76 ef ff ff 	movzwl -0x108a(%rbp),%eax
    b5d0:	0f b7 c0             	movzwl %ax,%eax
    b5d3:	21 c8                	and    %ecx,%eax
    b5d5:	39 c2                	cmp    %eax,%edx
    b5d7:	0f 9d c0             	setge  %al
    b5da:	0f b6 d0             	movzbl %al,%edx
    b5dd:	48 8b 85 58 ee ff ff 	mov    -0x11a8(%rbp),%rax
    b5e4:	48 8b 08             	mov    (%rax),%rcx
    b5e7:	48 8b 85 58 ee ff ff 	mov    -0x11a8(%rbp),%rax
    b5ee:	48 8b 00             	mov    (%rax),%rax
    b5f1:	48 8b 09             	mov    (%rcx),%rcx
    b5f4:	48 89 08             	mov    %rcx,(%rax)
    b5f7:	48 8b 00             	mov    (%rax),%rax
    b5fa:	48 39 85 a8 ee ff ff 	cmp    %rax,-0x1158(%rbp)
    b601:	0f 95 c0             	setne  %al
    b604:	0f b6 c0             	movzbl %al,%eax
    b607:	89 d6                	mov    %edx,%esi
    b609:	89 c7                	mov    %eax,%edi
    b60b:	e8 f6 d7 ff ff       	callq  8e06 <safe_lshift_func_uint16_t_u_u>
    b610:	44 09 e8             	or     %r13d,%eax
    b613:	0f be c0             	movsbl %al,%eax
    b616:	89 de                	mov    %ebx,%esi
    b618:	89 c7                	mov    %eax,%edi
    b61a:	e8 16 cd ff ff       	callq  8335 <safe_rshift_func_int8_t_s_s>
    b61f:	3c 01                	cmp    $0x1,%al
    b621:	0f 95 c0             	setne  %al
    b624:	0f b6 d0             	movzbl %al,%edx
    b627:	48 8b 05 f2 58 01 00 	mov    0x158f2(%rip),%rax        # 20f20 <g_1548>
    b62e:	48 8b 00             	mov    (%rax),%rax
    b631:	48 21 d0             	and    %rdx,%rax
    b634:	49 39 c4             	cmp    %rax,%r12
    b637:	0f 9f c0             	setg   %al
    b63a:	0f b6 c0             	movzbl %al,%eax
    b63d:	f7 d0                	not    %eax
    b63f:	89 85 2c ed ff ff    	mov    %eax,-0x12d4(%rbp)
    b645:	48 8b 05 3c 57 01 00 	mov    0x1573c(%rip),%rax        # 20d88 <g_1175>
    b64c:	8b 00                	mov    (%rax),%eax
    b64e:	85 c0                	test   %eax,%eax
    b650:	0f 85 c7 03 00 00    	jne    ba1d <func_1+0x2268>
    b656:	83 bd 70 ed ff ff 00 	cmpl   $0x0,-0x1290(%rbp)
    b65d:	0f 85 bd 03 00 00    	jne    ba20 <func_1+0x226b>
    b663:	48 8d 05 c6 5b 01 00 	lea    0x15bc6(%rip),%rax        # 21230 <g_3044+0x10>
    b66a:	48 8b 00             	mov    (%rax),%rax
    b66d:	48 89 85 b8 ee ff ff 	mov    %rax,-0x1148(%rbp)
    b674:	48 8b 05 c5 5b 01 00 	mov    0x15bc5(%rip),%rax        # 21240 <g_3041>
    b67b:	48 8b 00             	mov    (%rax),%rax
    b67e:	48 8b 00             	mov    (%rax),%rax
    b681:	48 8b 95 b8 ee ff ff 	mov    -0x1148(%rbp),%rdx
    b688:	48 89 10             	mov    %rdx,(%rax)
    b68b:	48 8b 00             	mov    (%rax),%rax
    b68e:	48 39 85 b0 ee ff ff 	cmp    %rax,-0x1150(%rbp)
    b695:	0f 95 c0             	setne  %al
    b698:	0f b6 c8             	movzbl %al,%ecx
    b69b:	48 8b 05 e6 56 01 00 	mov    0x156e6(%rip),%rax        # 20d88 <g_1175>
    b6a2:	8b 10                	mov    (%rax),%edx
    b6a4:	48 8b 05 dd 56 01 00 	mov    0x156dd(%rip),%rax        # 20d88 <g_1175>
    b6ab:	21 ca                	and    %ecx,%edx
    b6ad:	89 10                	mov    %edx,(%rax)
    b6af:	8b 00                	mov    (%rax),%eax
    b6b1:	09 85 3c ed ff ff    	or     %eax,-0x12c4(%rbp)
    b6b7:	eb 0c                	jmp    b6c5 <func_1+0x1f10>
    b6b9:	48 8b 05 60 34 01 00 	mov    0x13460(%rip),%rax        # 1eb20 <g_3374>
    b6c0:	e9 54 13 00 00       	jmpq   ca19 <func_1+0x3264>
    b6c5:	48 8b 05 bc 56 01 00 	mov    0x156bc(%rip),%rax        # 20d88 <g_1175>
    b6cc:	8b 00                	mov    (%rax),%eax
    b6ce:	09 85 48 ed ff ff    	or     %eax,-0x12b8(%rbp)
    b6d4:	83 bd 48 ed ff ff 00 	cmpl   $0x0,-0x12b8(%rbp)
    b6db:	0f 84 ee 01 00 00    	je     b8cf <func_1+0x211a>
    b6e1:	c6 85 1f ed ff ff 5f 	movb   $0x5f,-0x12e1(%rbp)
    b6e8:	66 0f be 85 1c ed ff 	movsbw -0x12e4(%rbp),%ax
    b6ef:	ff 
    b6f0:	0f b7 d8             	movzwl %ax,%ebx
    b6f3:	8b 85 f4 f2 ff ff    	mov    -0xd0c(%rbp),%eax
    b6f9:	44 0f be e0          	movsbl %al,%r12d
    b6fd:	48 8b 05 04 54 01 00 	mov    0x15404(%rip),%rax        # 20b08 <g_793>
    b704:	0f b6 00             	movzbl (%rax),%eax
    b707:	44 0f b6 e8          	movzbl %al,%r13d
    b70b:	48 8b 05 86 5a 01 00 	mov    0x15a86(%rip),%rax        # 21198 <g_2399>
    b712:	0f b7 00             	movzwl (%rax),%eax
    b715:	48 8b 05 ac 4c 01 00 	mov    0x14cac(%rip),%rax        # 203c8 <g_356>
    b71c:	0f b7 00             	movzwl (%rax),%eax
    b71f:	44 0f b7 f0          	movzwl %ax,%r14d
    b723:	48 8b 05 ce 53 01 00 	mov    0x153ce(%rip),%rax        # 20af8 <g_773>
    b72a:	48 8b 00             	mov    (%rax),%rax
    b72d:	66 c7 00 22 c1       	movw   $0xc122,(%rax)
    b732:	be 8b 00 00 00       	mov    $0x8b,%esi
    b737:	bf 00 00 00 00       	mov    $0x0,%edi
    b73c:	e8 37 d4 ff ff       	callq  8b78 <safe_sub_func_uint8_t_u_u>
    b741:	44 89 f6             	mov    %r14d,%esi
    b744:	bf 00 00 00 00       	mov    $0x0,%edi
    b749:	e8 2c d7 ff ff       	callq  8e7a <safe_rshift_func_uint16_t_u_u>
    b74e:	66 83 f8 04          	cmp    $0x4,%ax
    b752:	0f 97 c0             	seta   %al
    b755:	0f b6 d0             	movzbl %al,%edx
    b758:	0f be 85 1f ed ff ff 	movsbl -0x12e1(%rbp),%eax
    b75f:	09 d0                	or     %edx,%eax
    b761:	85 c0                	test   %eax,%eax
    b763:	74 07                	je     b76c <func_1+0x1fb7>
    b765:	ba 01 00 00 00       	mov    $0x1,%edx
    b76a:	eb 05                	jmp    b771 <func_1+0x1fbc>
    b76c:	ba 00 00 00 00       	mov    $0x0,%edx
    b771:	0f be 85 1c ed ff ff 	movsbl -0x12e4(%rbp),%eax
    b778:	39 c2                	cmp    %eax,%edx
    b77a:	0f 9f c0             	setg   %al
    b77d:	0f b6 d0             	movzbl %al,%edx
    b780:	48 8b 05 e1 5a 01 00 	mov    0x15ae1(%rip),%rax        # 21268 <g_3218>
    b787:	48 8b 00             	mov    (%rax),%rax
    b78a:	48 8b 08             	mov    (%rax),%rcx
    b78d:	48 63 d2             	movslq %edx,%rdx
    b790:	48 8b 05 d1 5a 01 00 	mov    0x15ad1(%rip),%rax        # 21268 <g_3218>
    b797:	48 8b 00             	mov    (%rax),%rax
    b79a:	48 21 ca             	and    %rcx,%rdx
    b79d:	48 89 10             	mov    %rdx,(%rax)
    b7a0:	48 8b 08             	mov    (%rax),%rcx
    b7a3:	48 8b 85 10 ee ff ff 	mov    -0x11f0(%rbp),%rax
    b7aa:	8b 10                	mov    (%rax),%edx
    b7ac:	48 8b 05 4d 26 01 00 	mov    0x1264d(%rip),%rax        # 1de00 <g_363+0x4c0>
    b7b3:	48 09 c8             	or     %rcx,%rax
    b7b6:	48 89 05 43 26 01 00 	mov    %rax,0x12643(%rip)        # 1de00 <g_363+0x4c0>
    b7bd:	48 8b 05 3c 26 01 00 	mov    0x1263c(%rip),%rax        # 1de00 <g_363+0x4c0>
    b7c4:	48 89 c1             	mov    %rax,%rcx
    b7c7:	48 8b 05 4a 53 01 00 	mov    0x1534a(%rip),%rax        # 20b18 <g_949>
    b7ce:	48 8b 00             	mov    (%rax),%rax
    b7d1:	48 39 c1             	cmp    %rax,%rcx
    b7d4:	0f 92 c0             	setb   %al
    b7d7:	0f b6 c0             	movzbl %al,%eax
    b7da:	33 85 48 ed ff ff    	xor    -0x12b8(%rbp),%eax
    b7e0:	39 c2                	cmp    %eax,%edx
    b7e2:	0f 9c c0             	setl   %al
    b7e5:	0f b6 c0             	movzbl %al,%eax
    b7e8:	44 89 ee             	mov    %r13d,%esi
    b7eb:	89 c7                	mov    %eax,%edi
    b7ed:	e8 bc d3 ff ff       	callq  8bae <safe_mod_func_uint8_t_u_u>
    b7f2:	0f be c0             	movsbl %al,%eax
    b7f5:	44 89 e6             	mov    %r12d,%esi
    b7f8:	89 c7                	mov    %eax,%edi
    b7fa:	e8 f3 c9 ff ff       	callq  81f2 <safe_sub_func_int8_t_s_s>
    b7ff:	66 98                	cbtw   
    b801:	0f b7 c0             	movzwl %ax,%eax
    b804:	89 de                	mov    %ebx,%esi
    b806:	89 c7                	mov    %eax,%edi
    b808:	e8 30 d5 ff ff       	callq  8d3d <safe_mul_func_uint16_t_u_u>
    b80d:	0f b7 c0             	movzwl %ax,%eax
    b810:	f7 d0                	not    %eax
    b812:	89 c2                	mov    %eax,%edx
    b814:	8b 85 dc f2 ff ff    	mov    -0xd24(%rbp),%eax
    b81a:	39 c2                	cmp    %eax,%edx
    b81c:	0f 93 c0             	setae  %al
    b81f:	0f b6 d0             	movzbl %al,%edx
    b822:	0f be 85 1c ed ff ff 	movsbl -0x12e4(%rbp),%eax
    b829:	39 c2                	cmp    %eax,%edx
    b82b:	0f 9d c0             	setge  %al
    b82e:	0f b6 c8             	movzbl %al,%ecx
    b831:	48 8d 05 6c 31 01 00 	lea    0x1316c(%rip),%rax        # 1e9a4 <g_1199>
    b838:	8b 10                	mov    (%rax),%edx
    b83a:	48 8d 05 63 31 01 00 	lea    0x13163(%rip),%rax        # 1e9a4 <g_1199>
    b841:	31 ca                	xor    %ecx,%edx
    b843:	89 10                	mov    %edx,(%rax)
    b845:	c7 05 61 2a 01 00 00 	movl   $0x0,0x12a61(%rip)        # 1e2b0 <g_486>
    b84c:	00 00 00 
    b84f:	eb 6e                	jmp    b8bf <func_1+0x210a>
    b851:	0f b6 85 54 f1 ff ff 	movzbl -0xeac(%rbp),%eax
    b858:	84 c0                	test   %al,%al
    b85a:	0f 85 c3 01 00 00    	jne    ba23 <func_1+0x226e>
    b860:	48 8b 05 61 4b 01 00 	mov    0x14b61(%rip),%rax        # 203c8 <g_356>
    b867:	0f b7 00             	movzwl (%rax),%eax
    b86a:	0f b7 d0             	movzwl %ax,%edx
    b86d:	0f be 85 1f ed ff ff 	movsbl -0x12e1(%rbp),%eax
    b874:	39 c2                	cmp    %eax,%edx
    b876:	0f 9d c0             	setge  %al
    b879:	0f b6 c0             	movzbl %al,%eax
    b87c:	21 85 48 ed ff ff    	and    %eax,-0x12b8(%rbp)
    b882:	48 8b 05 6f 59 01 00 	mov    0x1596f(%rip),%rax        # 211f8 <g_2744>
    b889:	48 8b 00             	mov    (%rax),%rax
    b88c:	48 89 85 90 ef ff ff 	mov    %rax,-0x1070(%rbp)
    b893:	8b 85 f4 f2 ff ff    	mov    -0xd0c(%rbp),%eax
    b899:	85 c0                	test   %eax,%eax
    b89b:	0f 85 85 01 00 00    	jne    ba26 <func_1+0x2271>
    b8a1:	8b 05 09 2a 01 00    	mov    0x12a09(%rip),%eax        # 1e2b0 <g_486>
    b8a7:	0f b7 c0             	movzwl %ax,%eax
    b8aa:	be 05 00 00 00       	mov    $0x5,%esi
    b8af:	89 c7                	mov    %eax,%edi
    b8b1:	e8 49 d4 ff ff       	callq  8cff <safe_add_func_uint16_t_u_u>
    b8b6:	0f b7 c0             	movzwl %ax,%eax
    b8b9:	89 05 f1 29 01 00    	mov    %eax,0x129f1(%rip)        # 1e2b0 <g_486>
    b8bf:	8b 05 eb 29 01 00    	mov    0x129eb(%rip),%eax        # 1e2b0 <g_486>
    b8c5:	83 f8 0f             	cmp    $0xf,%eax
    b8c8:	75 87                	jne    b851 <func_1+0x209c>
    b8ca:	e9 58 01 00 00       	jmpq   ba27 <func_1+0x2272>
    b8cf:	48 8d 05 3a 32 01 00 	lea    0x1323a(%rip),%rax        # 1eb10 <g_3281>
    b8d6:	48 89 85 c8 ee ff ff 	mov    %rax,-0x1138(%rbp)
    b8dd:	c7 85 80 ed ff ff 00 	movl   $0x0,-0x1280(%rbp)
    b8e4:	00 00 00 
    b8e7:	8b 9d 80 ed ff ff    	mov    -0x1280(%rbp),%ebx
    b8ed:	48 8b 05 04 59 01 00 	mov    0x15904(%rip),%rax        # 211f8 <g_2744>
    b8f4:	48 8b 05 65 59 01 00 	mov    0x15965(%rip),%rax        # 21260 <g_3172>
    b8fb:	48 8b 00             	mov    (%rax),%rax
    b8fe:	4c 8b 20             	mov    (%rax),%r12
    b901:	48 8b 85 10 ee ff ff 	mov    -0x11f0(%rbp),%rax
    b908:	8b 00                	mov    (%rax),%eax
    b90a:	83 f8 fb             	cmp    $0xfffffffb,%eax
    b90d:	74 07                	je     b916 <func_1+0x2161>
    b90f:	b8 01 00 00 00       	mov    $0x1,%eax
    b914:	eb 05                	jmp    b91b <func_1+0x2166>
    b916:	b8 00 00 00 00       	mov    $0x0,%eax
    b91b:	83 f8 02             	cmp    $0x2,%eax
    b91e:	0f 9f c2             	setg   %dl
    b921:	48 8b 05 e0 51 01 00 	mov    0x151e0(%rip),%rax        # 20b08 <g_793>
    b928:	88 10                	mov    %dl,(%rax)
    b92a:	0f b6 00             	movzbl (%rax),%eax
    b92d:	0f b6 c0             	movzbl %al,%eax
    b930:	be a3 00 00 00       	mov    $0xa3,%esi
    b935:	89 c7                	mov    %eax,%edi
    b937:	e8 57 d2 ff ff       	callq  8b93 <safe_mul_func_uint8_t_u_u>
    b93c:	84 c0                	test   %al,%al
    b93e:	75 09                	jne    b949 <func_1+0x2194>
    b940:	83 bd 48 ed ff ff 00 	cmpl   $0x0,-0x12b8(%rbp)
    b947:	74 07                	je     b950 <func_1+0x219b>
    b949:	b8 01 00 00 00       	mov    $0x1,%eax
    b94e:	eb 05                	jmp    b955 <func_1+0x21a0>
    b950:	b8 00 00 00 00       	mov    $0x0,%eax
    b955:	48 98                	cltq   
    b957:	49 39 c4             	cmp    %rax,%r12
    b95a:	0f 96 c0             	setbe  %al
    b95d:	89 c2                	mov    %eax,%edx
    b95f:	48 8b 85 c8 ee ff ff 	mov    -0x1138(%rbp),%rax
    b966:	88 10                	mov    %dl,(%rax)
    b968:	48 8b 85 c8 ee ff ff 	mov    -0x1138(%rbp),%rax
    b96f:	0f b6 00             	movzbl (%rax),%eax
    b972:	3c 01                	cmp    $0x1,%al
    b974:	0f 97 c0             	seta   %al
    b977:	0f b6 c0             	movzbl %al,%eax
    b97a:	48 89 c6             	mov    %rax,%rsi
    b97d:	48 c7 c7 ff ff ff ff 	mov    $0xffffffffffffffff,%rdi
    b984:	e8 c2 d6 ff ff       	callq  904b <safe_sub_func_uint64_t_u_u>
    b989:	8b 85 64 ef ff ff    	mov    -0x109c(%rbp),%eax
    b98f:	85 c0                	test   %eax,%eax
    b991:	74 17                	je     b9aa <func_1+0x21f5>
    b993:	48 8b 05 46 5a 01 00 	mov    0x15a46(%rip),%rax        # 213e0 <g_3404+0x160>
    b99a:	48 39 85 28 ee ff ff 	cmp    %rax,-0x11d8(%rbp)
    b9a1:	74 07                	je     b9aa <func_1+0x21f5>
    b9a3:	b8 01 00 00 00       	mov    $0x1,%eax
    b9a8:	eb 05                	jmp    b9af <func_1+0x21fa>
    b9aa:	b8 00 00 00 00       	mov    $0x0,%eax
    b9af:	f7 d0                	not    %eax
    b9b1:	0f b7 c0             	movzwl %ax,%eax
    b9b4:	be 03 00 00 00       	mov    $0x3,%esi
    b9b9:	89 c7                	mov    %eax,%edi
    b9bb:	e8 fe d3 ff ff       	callq  8dbe <safe_lshift_func_uint16_t_u_s>
    b9c0:	0f b7 d0             	movzwl %ax,%edx
    b9c3:	48 8b 05 9e 58 01 00 	mov    0x1589e(%rip),%rax        # 21268 <g_3218>
    b9ca:	48 8b 00             	mov    (%rax),%rax
    b9cd:	48 8b 00             	mov    (%rax),%rax
    b9d0:	48 89 c1             	mov    %rax,%rcx
    b9d3:	48 b8 76 a0 ca 4f d1 	movabs $0xd82e3ad14fcaa076,%rax
    b9da:	3a 2e d8 
    b9dd:	48 09 c8             	or     %rcx,%rax
    b9e0:	48 39 c2             	cmp    %rax,%rdx
    b9e3:	0f 96 c0             	setbe  %al
    b9e6:	0f b6 c0             	movzbl %al,%eax
    b9e9:	89 de                	mov    %ebx,%esi
    b9eb:	89 c7                	mov    %eax,%edi
    b9ed:	e8 0b d5 ff ff       	callq  8efd <safe_mod_func_uint32_t_u_u>
    b9f2:	48 8b 95 10 ee ff ff 	mov    -0x11f0(%rbp),%rdx
    b9f9:	8b 12                	mov    (%rdx),%edx
    b9fb:	39 d0                	cmp    %edx,%eax
    b9fd:	0f 95 c0             	setne  %al
    ba00:	0f b6 d0             	movzbl %al,%edx
    ba03:	0f b6 85 1d ed ff ff 	movzbl -0x12e3(%rbp),%eax
    ba0a:	39 c2                	cmp    %eax,%edx
    ba0c:	0f 9f c2             	setg   %dl
    ba0f:	48 8b 05 72 53 01 00 	mov    0x15372(%rip),%rax        # 20d88 <g_1175>
    ba16:	0f b6 d2             	movzbl %dl,%edx
    ba19:	89 10                	mov    %edx,(%rax)
    ba1b:	eb 0a                	jmp    ba27 <func_1+0x2272>
    ba1d:	90                   	nop
    ba1e:	eb 07                	jmp    ba27 <func_1+0x2272>
    ba20:	90                   	nop
    ba21:	eb 04                	jmp    ba27 <func_1+0x2272>
    ba23:	90                   	nop
    ba24:	eb 01                	jmp    ba27 <func_1+0x2272>
    ba26:	90                   	nop
    ba27:	0f b7 05 3a 16 01 00 	movzwl 0x1163a(%rip),%eax        # 1d068 <g_44>
    ba2e:	83 c0 01             	add    $0x1,%eax
    ba31:	66 89 05 30 16 01 00 	mov    %ax,0x11630(%rip)        # 1d068 <g_44>
    ba38:	0f b7 05 29 16 01 00 	movzwl 0x11629(%rip),%eax        # 1d068 <g_44>
    ba3f:	66 83 f8 08          	cmp    $0x8,%ax
    ba43:	0f 86 ef ed ff ff    	jbe    a838 <func_1+0x1083>
    ba49:	48 8b 05 10 57 01 00 	mov    0x15710(%rip),%rax        # 21160 <g_2101>
    ba50:	8b 00                	mov    (%rax),%eax
    ba52:	85 c0                	test   %eax,%eax
    ba54:	74 15                	je     ba6b <func_1+0x22b6>
    ba56:	0f b6 05 3b 1e 01 00 	movzbl 0x11e3b(%rip),%eax        # 1d898 <g_147>
    ba5d:	83 c0 01             	add    $0x1,%eax
    ba60:	88 05 32 1e 01 00    	mov    %al,0x11e32(%rip)        # 1d898 <g_147>
    ba66:	e9 92 0f 00 00       	jmpq   c9fd <func_1+0x3248>
    ba6b:	48 8b 95 b8 f7 ff ff 	mov    -0x848(%rbp),%rdx
    ba72:	48 8b 05 c7 54 01 00 	mov    0x154c7(%rip),%rax        # 20f40 <g_1973>
    ba79:	48 8b 00             	mov    (%rax),%rax
    ba7c:	48 39 c2             	cmp    %rax,%rdx
    ba7f:	75 0a                	jne    ba8b <func_1+0x22d6>
    ba81:	8b 85 f4 f2 ff ff    	mov    -0xd0c(%rbp),%eax
    ba87:	85 c0                	test   %eax,%eax
    ba89:	74 07                	je     ba92 <func_1+0x22dd>
    ba8b:	ba 01 00 00 00       	mov    $0x1,%edx
    ba90:	eb 05                	jmp    ba97 <func_1+0x22e2>
    ba92:	ba 00 00 00 00       	mov    $0x0,%edx
    ba97:	48 8b 05 ea 52 01 00 	mov    0x152ea(%rip),%rax        # 20d88 <g_1175>
    ba9e:	89 10                	mov    %edx,(%rax)
    baa0:	e9 c6 0d 00 00       	jmpq   c86b <func_1+0x30b6>
    baa5:	48 b8 73 d6 db 74 6d 	movabs $0x3166236d74dbd673,%rax
    baac:	23 66 31 
    baaf:	48 89 85 f0 ee ff ff 	mov    %rax,-0x1110(%rbp)
    bab6:	c7 85 00 ee ff ff 00 	movl   $0x0,-0x1200(%rbp)
    babd:	00 00 00 
    bac0:	48 8d 05 d9 27 01 00 	lea    0x127d9(%rip),%rax        # 1e2a0 <g_450>
    bac7:	48 89 85 f8 ee ff ff 	mov    %rax,-0x1108(%rbp)
    bace:	48 b8 a0 d8 b4 01 35 	movabs $0xf4fc0c3501b4d8a0,%rax
    bad5:	0c fc f4 
    bad8:	48 89 85 08 ee ff ff 	mov    %rax,-0x11f8(%rbp)
    badf:	c7 85 88 ed ff ff f7 	movl   $0xd08835f7,-0x1278(%rbp)
    bae6:	35 88 d0 
    bae9:	48 8d 85 c8 ed ff ff 	lea    -0x1238(%rbp),%rax
    baf0:	48 89 85 00 ef ff ff 	mov    %rax,-0x1100(%rbp)
    baf7:	48 c7 85 08 ef ff ff 	movq   $0x0,-0x10f8(%rbp)
    bafe:	00 00 00 00 
    bb02:	48 8b 15 b7 48 01 00 	mov    0x148b7(%rip),%rdx        # 203c0 <g_310>
    bb09:	48 8b 05 b0 48 01 00 	mov    0x148b0(%rip),%rax        # 203c0 <g_310>
    bb10:	48 8b 12             	mov    (%rdx),%rdx
    bb13:	48 89 10             	mov    %rdx,(%rax)
    bb16:	66 c7 05 29 5d 01 00 	movw   $0x0,0x15d29(%rip)        # 21848 <g_74>
    bb1d:	00 00 
    bb1f:	e9 83 07 00 00       	jmpq   c2a7 <func_1+0x2af2>
    bb24:	c7 85 98 ed ff ff 88 	movl   $0xc4fc1488,-0x1268(%rbp)
    bb2b:	14 fc c4 
    bb2e:	48 b8 dc 8a 34 09 0c 	movabs $0xa344070c09348adc,%rax
    bb35:	07 44 a3 
    bb38:	48 89 85 20 ef ff ff 	mov    %rax,-0x10e0(%rbp)
    bb3f:	48 8d 05 ca 4f 01 00 	lea    0x14fca(%rip),%rax        # 20b10 <g_945>
    bb46:	48 89 85 28 ef ff ff 	mov    %rax,-0x10d8(%rbp)
    bb4d:	48 8d 05 5c 2c 01 00 	lea    0x12c5c(%rip),%rax        # 1e7b0 <g_737>
    bb54:	48 89 85 30 ef ff ff 	mov    %rax,-0x10d0(%rbp)
    bb5b:	48 8b 05 5e 48 01 00 	mov    0x1485e(%rip),%rax        # 203c0 <g_310>
    bb62:	48 8b 00             	mov    (%rax),%rax
    bb65:	8b 00                	mov    (%rax),%eax
    bb67:	89 85 3c ed ff ff    	mov    %eax,-0x12c4(%rbp)
    bb6d:	83 bd 3c ed ff ff 00 	cmpl   $0x0,-0x12c4(%rbp)
    bb74:	74 19                	je     bb8f <func_1+0x23da>
    bb76:	48 8b 15 43 48 01 00 	mov    0x14843(%rip),%rdx        # 203c0 <g_310>
    bb7d:	48 8b 05 3c 48 01 00 	mov    0x1483c(%rip),%rax        # 203c0 <g_310>
    bb84:	48 8b 12             	mov    (%rdx),%rdx
    bb87:	48 89 10             	mov    %rdx,(%rax)
    bb8a:	e9 a3 04 00 00       	jmpq   c032 <func_1+0x287d>
    bb8f:	c7 85 9c ed ff ff 06 	movl   $0x6,-0x1264(%rbp)
    bb96:	00 00 00 
    bb99:	48 c7 85 d0 fa ff ff 	movq   $0x0,-0x530(%rbp)
    bba0:	00 00 00 00 
    bba4:	48 c7 85 d8 fa ff ff 	movq   $0x0,-0x528(%rbp)
    bbab:	00 00 00 00 
    bbaf:	48 c7 85 e0 fa ff ff 	movq   $0x0,-0x520(%rbp)
    bbb6:	00 00 00 00 
    bbba:	48 c7 85 e8 fa ff ff 	movq   $0x0,-0x518(%rbp)
    bbc1:	00 00 00 00 
    bbc5:	48 c7 85 f0 fa ff ff 	movq   $0x0,-0x510(%rbp)
    bbcc:	00 00 00 00 
    bbd0:	48 c7 85 f8 fa ff ff 	movq   $0x0,-0x508(%rbp)
    bbd7:	00 00 00 00 
    bbdb:	48 c7 85 00 fb ff ff 	movq   $0x0,-0x500(%rbp)
    bbe2:	00 00 00 00 
    bbe6:	48 c7 85 08 fb ff ff 	movq   $0x0,-0x4f8(%rbp)
    bbed:	00 00 00 00 
    bbf1:	48 c7 85 10 fb ff ff 	movq   $0x0,-0x4f0(%rbp)
    bbf8:	00 00 00 00 
    bbfc:	48 8b 05 05 4f 01 00 	mov    0x14f05(%rip),%rax        # 20b08 <g_793>
    bc03:	0f b6 00             	movzbl (%rax),%eax
    bc06:	0f be d8             	movsbl %al,%ebx
    bc09:	8b 85 9c ed ff ff    	mov    -0x1264(%rbp),%eax
    bc0f:	44 0f bf e0          	movswl %ax,%r12d
    bc13:	48 8b 85 10 ee ff ff 	mov    -0x11f0(%rbp),%rax
    bc1a:	44 8b 30             	mov    (%rax),%r14d
    bc1d:	48 8b 05 dc 4e 01 00 	mov    0x14edc(%rip),%rax        # 20b00 <g_772>
    bc24:	48 8b 00             	mov    (%rax),%rax
    bc27:	48 8b 00             	mov    (%rax),%rax
    bc2a:	0f b7 00             	movzwl (%rax),%eax
    bc2d:	44 0f bf e8          	movswl %ax,%r13d
    bc31:	48 8b 85 20 ef ff ff 	mov    -0x10e0(%rbp),%rax
    bc38:	89 85 00 ee ff ff    	mov    %eax,-0x1200(%rbp)
    bc3e:	48 8b 85 30 ee ff ff 	mov    -0x11d0(%rbp),%rax
    bc45:	8b 00                	mov    (%rax),%eax
    bc47:	8d 50 01             	lea    0x1(%rax),%edx
    bc4a:	48 8b 85 30 ee ff ff 	mov    -0x11d0(%rbp),%rax
    bc51:	89 10                	mov    %edx,(%rax)
    bc53:	48 8b 85 30 ee ff ff 	mov    -0x11d0(%rbp),%rax
    bc5a:	8b 00                	mov    (%rax),%eax
    bc5c:	85 c0                	test   %eax,%eax
    bc5e:	74 1d                	je     bc7d <func_1+0x24c8>
    bc60:	48 8b 05 89 55 01 00 	mov    0x15589(%rip),%rax        # 211f0 <g_2701>
    bc67:	48 8b 00             	mov    (%rax),%rax
    bc6a:	48 8b 00             	mov    (%rax),%rax
    bc6d:	48 8b 00             	mov    (%rax),%rax
    bc70:	8b 00                	mov    (%rax),%eax
    bc72:	85 c0                	test   %eax,%eax
    bc74:	74 07                	je     bc7d <func_1+0x24c8>
    bc76:	b8 01 00 00 00       	mov    $0x1,%eax
    bc7b:	eb 05                	jmp    bc82 <func_1+0x24cd>
    bc7d:	b8 00 00 00 00       	mov    $0x0,%eax
    bc82:	3d 85 00 00 00       	cmp    $0x85,%eax
    bc87:	0f 9e c0             	setle  %al
    bc8a:	0f b6 c0             	movzbl %al,%eax
    bc8d:	be 00 00 00 00       	mov    $0x0,%esi
    bc92:	89 c7                	mov    %eax,%edi
    bc94:	e8 25 d1 ff ff       	callq  8dbe <safe_lshift_func_uint16_t_u_s>
    bc99:	98                   	cwtl   
    bc9a:	44 89 ee             	mov    %r13d,%esi
    bc9d:	89 c7                	mov    %eax,%edi
    bc9f:	e8 0f c7 ff ff       	callq  83b3 <safe_add_func_int16_t_s_s>
    bca4:	41 89 c5             	mov    %eax,%r13d
    bca7:	bf 00 00 00 00       	mov    $0x0,%edi
    bcac:	e8 f5 d1 ff ff       	callq  8ea6 <safe_unary_minus_func_uint32_t_u>
    bcb1:	44 21 e8             	and    %r13d,%eax
    bcb4:	0f b7 c0             	movzwl %ax,%eax
    bcb7:	be 05 00 00 00       	mov    $0x5,%esi
    bcbc:	89 c7                	mov    %eax,%edi
    bcbe:	e8 85 d1 ff ff       	callq  8e48 <safe_rshift_func_uint16_t_u_s>
    bcc3:	48 8b 05 f6 46 01 00 	mov    0x146f6(%rip),%rax        # 203c0 <g_310>
    bcca:	48 8b 10             	mov    (%rax),%rdx
    bccd:	48 8d 05 d0 2c 01 00 	lea    0x12cd0(%rip),%rax        # 1e9a4 <g_1199>
    bcd4:	8b 12                	mov    (%rdx),%edx
    bcd6:	89 10                	mov    %edx,(%rax)
    bcd8:	8b 10                	mov    (%rax),%edx
    bcda:	48 8b 05 7f 54 01 00 	mov    0x1547f(%rip),%rax        # 21160 <g_2101>
    bce1:	8b 00                	mov    (%rax),%eax
    bce3:	09 d0                	or     %edx,%eax
    bce5:	85 c0                	test   %eax,%eax
    bce7:	74 11                	je     bcfa <func_1+0x2545>
    bce9:	8b 85 00 ee ff ff    	mov    -0x1200(%rbp),%eax
    bcef:	85 c0                	test   %eax,%eax
    bcf1:	74 07                	je     bcfa <func_1+0x2545>
    bcf3:	b8 01 00 00 00       	mov    $0x1,%eax
    bcf8:	eb 05                	jmp    bcff <func_1+0x254a>
    bcfa:	b8 00 00 00 00       	mov    $0x0,%eax
    bcff:	3b 85 9c ed ff ff    	cmp    -0x1264(%rbp),%eax
    bd05:	0f 9d c0             	setge  %al
    bd08:	0f b6 c0             	movzbl %al,%eax
    bd0b:	41 39 c6             	cmp    %eax,%r14d
    bd0e:	0f 9e c0             	setle  %al
    bd11:	0f b6 d0             	movzbl %al,%edx
    bd14:	8b 85 9c ed ff ff    	mov    -0x1264(%rbp),%eax
    bd1a:	89 d6                	mov    %edx,%esi
    bd1c:	89 c7                	mov    %eax,%edi
    bd1e:	e8 93 c8 ff ff       	callq  85b6 <safe_add_func_int32_t_s_s>
    bd23:	98                   	cwtl   
    bd24:	44 89 e6             	mov    %r12d,%esi
    bd27:	89 c7                	mov    %eax,%edi
    bd29:	e8 e8 c6 ff ff       	callq  8416 <safe_mod_func_int16_t_s_s>
    bd2e:	0f bf d0             	movswl %ax,%edx
    bd31:	48 8b 05 90 46 01 00 	mov    0x14690(%rip),%rax        # 203c8 <g_356>
    bd38:	0f b7 08             	movzwl (%rax),%ecx
    bd3b:	83 c1 01             	add    $0x1,%ecx
    bd3e:	66 89 08             	mov    %cx,(%rax)
    bd41:	0f b7 00             	movzwl (%rax),%eax
    bd44:	0f b7 c0             	movzwl %ax,%eax
    bd47:	89 d6                	mov    %edx,%esi
    bd49:	89 c7                	mov    %eax,%edi
    bd4b:	e8 f8 d0 ff ff       	callq  8e48 <safe_rshift_func_uint16_t_u_s>
    bd50:	0f b7 c0             	movzwl %ax,%eax
    bd53:	48 c7 c6 fd ff ff ff 	mov    $0xfffffffffffffffd,%rsi
    bd5a:	48 89 c7             	mov    %rax,%rdi
    bd5d:	e8 1e d3 ff ff       	callq  9080 <safe_mod_func_uint64_t_u_u>
    bd62:	48 85 c0             	test   %rax,%rax
    bd65:	0f 94 c0             	sete   %al
    bd68:	0f b6 c0             	movzbl %al,%eax
    bd6b:	be 95 80 00 00       	mov    $0x8095,%esi
    bd70:	89 c7                	mov    %eax,%edi
    bd72:	e8 c6 cf ff ff       	callq  8d3d <safe_mul_func_uint16_t_u_u>
    bd77:	66 83 f8 06          	cmp    $0x6,%ax
    bd7b:	0f 97 c0             	seta   %al
    bd7e:	0f b6 c0             	movzbl %al,%eax
    bd81:	89 de                	mov    %ebx,%esi
    bd83:	89 c7                	mov    %eax,%edi
    bd85:	e8 e0 c4 ff ff       	callq  826a <safe_div_func_int8_t_s_s>
    bd8a:	48 0f be c0          	movsbq %al,%rax
    bd8e:	48 39 85 20 ef ff ff 	cmp    %rax,-0x10e0(%rbp)
    bd95:	0f 92 c0             	setb   %al
    bd98:	0f b6 d0             	movzbl %al,%edx
    bd9b:	48 8b 05 76 4d 01 00 	mov    0x14d76(%rip),%rax        # 20b18 <g_949>
    bda2:	48 8b 00             	mov    (%rax),%rax
    bda5:	48 39 c2             	cmp    %rax,%rdx
    bda8:	0f 96 c2             	setbe  %dl
    bdab:	48 8b 05 d6 4f 01 00 	mov    0x14fd6(%rip),%rax        # 20d88 <g_1175>
    bdb2:	0f b6 d2             	movzbl %dl,%edx
    bdb5:	89 10                	mov    %edx,(%rax)
    bdb7:	48 8b 05 4a 56 01 00 	mov    0x1564a(%rip),%rax        # 21408 <g_3447>
    bdbe:	48 89 05 43 56 01 00 	mov    %rax,0x15643(%rip)        # 21408 <g_3447>
    bdc5:	48 8b 05 34 56 01 00 	mov    0x15634(%rip),%rax        # 21400 <g_3448>
    bdcc:	48 8b 00             	mov    (%rax),%rax
    bdcf:	48 85 c0             	test   %rax,%rax
    bdd2:	0f 95 c0             	setne  %al
    bdd5:	0f b6 c0             	movzbl %al,%eax
    bdd8:	48 39 85 f0 ee ff ff 	cmp    %rax,-0x1110(%rbp)
    bddf:	0f 9f c2             	setg   %dl
    bde2:	48 8b 05 9f 4f 01 00 	mov    0x14f9f(%rip),%rax        # 20d88 <g_1175>
    bde9:	0f b6 d2             	movzbl %dl,%edx
    bdec:	89 10                	mov    %edx,(%rax)
    bdee:	66 c7 05 cd 2c 01 00 	movw   $0x0,0x12ccd(%rip)        # 1eac4 <g_2812>
    bdf5:	00 00 
    bdf7:	e9 26 02 00 00       	jmpq   c022 <func_1+0x286d>
    bdfc:	0f b7 85 22 ed ff ff 	movzwl -0x12de(%rbp),%eax
    be03:	0f b6 d8             	movzbl %al,%ebx
    be06:	48 8b 05 13 51 01 00 	mov    0x15113(%rip),%rax        # 20f20 <g_1548>
    be0d:	4c 8b 20             	mov    (%rax),%r12
    be10:	48 8d 05 61 12 01 00 	lea    0x11261(%rip),%rax        # 1d078 <g_69>
    be17:	8b 00                	mov    (%rax),%eax
    be19:	48 8b 05 e8 4c 01 00 	mov    0x14ce8(%rip),%rax        # 20b08 <g_793>
    be20:	0f b6 10             	movzbl (%rax),%edx
    be23:	83 c2 01             	add    $0x1,%edx
    be26:	88 10                	mov    %dl,(%rax)
    be28:	0f b6 00             	movzbl (%rax),%eax
    be2b:	0f be d0             	movsbl %al,%edx
    be2e:	48 8b 85 f0 ee ff ff 	mov    -0x1110(%rbp),%rax
    be35:	0f be c0             	movsbl %al,%eax
    be38:	89 d6                	mov    %edx,%esi
    be3a:	89 c7                	mov    %eax,%edi
    be3c:	e8 b1 c3 ff ff       	callq  81f2 <safe_sub_func_int8_t_s_s>
    be41:	48 8b 05 20 54 01 00 	mov    0x15420(%rip),%rax        # 21268 <g_3218>
    be48:	48 8b 00             	mov    (%rax),%rax
    be4b:	48 8b 00             	mov    (%rax),%rax
    be4e:	48 89 c2             	mov    %rax,%rdx
    be51:	48 8b 05 00 54 01 00 	mov    0x15400(%rip),%rax        # 21258 <g_3173>
    be58:	48 8b 00             	mov    (%rax),%rax
    be5b:	48 89 d6             	mov    %rdx,%rsi
    be5e:	48 89 c7             	mov    %rax,%rdi
    be61:	e8 e5 d1 ff ff       	callq  904b <safe_sub_func_uint64_t_u_u>
    be66:	48 8b 95 f0 ee ff ff 	mov    -0x1110(%rbp),%rdx
    be6d:	89 d1                	mov    %edx,%ecx
    be6f:	48 8b 95 30 ee ff ff 	mov    -0x11d0(%rbp),%rdx
    be76:	89 0a                	mov    %ecx,(%rdx)
    be78:	48 8b 95 30 ee ff ff 	mov    -0x11d0(%rbp),%rdx
    be7f:	8b 0a                	mov    (%rdx),%ecx
    be81:	48 8b 15 00 4f 01 00 	mov    0x14f00(%rip),%rdx        # 20d88 <g_1175>
    be88:	8b 12                	mov    (%rdx),%edx
    be8a:	21 ca                	and    %ecx,%edx
    be8c:	89 d2                	mov    %edx,%edx
    be8e:	48 31 d0             	xor    %rdx,%rax
    be91:	48 83 f8 6d          	cmp    $0x6d,%rax
    be95:	0f b7 05 ac 59 01 00 	movzwl 0x159ac(%rip),%eax        # 21848 <g_74>
    be9c:	98                   	cwtl   
    be9d:	0f b7 15 a4 59 01 00 	movzwl 0x159a4(%rip),%edx        # 21848 <g_74>
    bea4:	0f bf d2             	movswl %dx,%edx
    bea7:	8d 4a 03             	lea    0x3(%rdx),%ecx
    beaa:	0f b7 15 13 2c 01 00 	movzwl 0x12c13(%rip),%edx        # 1eac4 <g_2812>
    beb1:	0f bf d2             	movswl %dx,%edx
    beb4:	83 c2 08             	add    $0x8,%edx
    beb7:	48 63 f2             	movslq %edx,%rsi
    beba:	48 98                	cltq   
    bebc:	48 63 c9             	movslq %ecx,%rcx
    bebf:	48 89 c2             	mov    %rax,%rdx
    bec2:	48 c1 e2 06          	shl    $0x6,%rdx
    bec6:	48 29 c2             	sub    %rax,%rdx
    bec9:	48 89 c8             	mov    %rcx,%rax
    becc:	48 c1 e0 03          	shl    $0x3,%rax
    bed0:	48 01 c8             	add    %rcx,%rax
    bed3:	48 01 d0             	add    %rdx,%rax
    bed6:	48 8d 7d e0          	lea    -0x20(%rbp),%rdi
    beda:	48 01 f8             	add    %rdi,%rax
    bedd:	48 01 f0             	add    %rsi,%rax
    bee0:	48 2d 10 0f 00 00    	sub    $0xf10,%rax
    bee6:	0f b6 00             	movzbl (%rax),%eax
    bee9:	0f be c0             	movsbl %al,%eax
    beec:	be e1 81 00 00       	mov    $0x81e1,%esi
    bef1:	89 c7                	mov    %eax,%edi
    bef3:	e8 32 c6 ff ff       	callq  852a <safe_rshift_func_int16_t_s_s>
    bef8:	48 0f bf c0          	movswq %ax,%rax
    befc:	48 0b 85 20 ef ff ff 	or     -0x10e0(%rbp),%rax
    bf03:	48 85 c0             	test   %rax,%rax
    bf06:	75 0e                	jne    bf16 <func_1+0x2761>
    bf08:	48 8b 05 f9 4b 01 00 	mov    0x14bf9(%rip),%rax        # 20b08 <g_793>
    bf0f:	0f b6 00             	movzbl (%rax),%eax
    bf12:	84 c0                	test   %al,%al
    bf14:	74 07                	je     bf1d <func_1+0x2768>
    bf16:	b8 01 00 00 00       	mov    $0x1,%eax
    bf1b:	eb 05                	jmp    bf22 <func_1+0x276d>
    bf1d:	b8 00 00 00 00       	mov    $0x0,%eax
    bf22:	85 c0                	test   %eax,%eax
    bf24:	0f 9f c0             	setg   %al
    bf27:	0f b6 c0             	movzbl %al,%eax
    bf2a:	be fe ff ff ff       	mov    $0xfffffffe,%esi
    bf2f:	89 c7                	mov    %eax,%edi
    bf31:	e8 34 c3 ff ff       	callq  826a <safe_div_func_int8_t_s_s>
    bf36:	4c 89 e6             	mov    %r12,%rsi
    bf39:	bf 00 00 00 00       	mov    $0x0,%edi
    bf3e:	e8 fe c8 ff ff       	callq  8841 <safe_add_func_int64_t_s_s>
    bf43:	0f b6 c0             	movzbl %al,%eax
    bf46:	89 de                	mov    %ebx,%esi
    bf48:	89 c7                	mov    %eax,%edi
    bf4a:	e8 0b cc ff ff       	callq  8b5a <safe_add_func_uint8_t_u_u>
    bf4f:	0f b6 f0             	movzbl %al,%esi
    bf52:	0f b7 05 ef 58 01 00 	movzwl 0x158ef(%rip),%eax        # 21848 <g_74>
    bf59:	98                   	cwtl   
    bf5a:	0f b7 15 e7 58 01 00 	movzwl 0x158e7(%rip),%edx        # 21848 <g_74>
    bf61:	0f bf d2             	movswl %dx,%edx
    bf64:	8d 4a 02             	lea    0x2(%rdx),%ecx
    bf67:	0f b7 15 56 2b 01 00 	movzwl 0x12b56(%rip),%edx        # 1eac4 <g_2812>
    bf6e:	0f bf d2             	movswl %dx,%edx
    bf71:	83 c2 05             	add    $0x5,%edx
    bf74:	48 63 fa             	movslq %edx,%rdi
    bf77:	48 98                	cltq   
    bf79:	48 63 c9             	movslq %ecx,%rcx
    bf7c:	48 89 c2             	mov    %rax,%rdx
    bf7f:	48 c1 e2 06          	shl    $0x6,%rdx
    bf83:	48 29 c2             	sub    %rax,%rdx
    bf86:	48 89 c8             	mov    %rcx,%rax
    bf89:	48 c1 e0 03          	shl    $0x3,%rax
    bf8d:	48 01 c8             	add    %rcx,%rax
    bf90:	48 01 d0             	add    %rdx,%rax
    bf93:	48 8d 5d e0          	lea    -0x20(%rbp),%rbx
    bf97:	48 01 d8             	add    %rbx,%rax
    bf9a:	48 01 f8             	add    %rdi,%rax
    bf9d:	48 2d 10 0f 00 00    	sub    $0xf10,%rax
    bfa3:	0f b6 00             	movzbl (%rax),%eax
    bfa6:	66 98                	cbtw   
    bfa8:	0f b7 c0             	movzwl %ax,%eax
    bfab:	89 c7                	mov    %eax,%edi
    bfad:	e8 4d cd ff ff       	callq  8cff <safe_add_func_uint16_t_u_u>
    bfb2:	0f b7 d0             	movzwl %ax,%edx
    bfb5:	48 8b 05 ac 52 01 00 	mov    0x152ac(%rip),%rax        # 21268 <g_3218>
    bfbc:	48 8b 00             	mov    (%rax),%rax
    bfbf:	48 8b 00             	mov    (%rax),%rax
    bfc2:	48 39 c2             	cmp    %rax,%rdx
    bfc5:	c7 85 00 ee ff ff 17 	movl   $0xe35d817,-0x1200(%rbp)
    bfcc:	d8 35 0e 
    bfcf:	8b 85 00 ee ff ff    	mov    -0x1200(%rbp),%eax
    bfd5:	89 c7                	mov    %eax,%edi
    bfd7:	e8 ca ce ff ff       	callq  8ea6 <safe_unary_minus_func_uint32_t_u>
    bfdc:	89 c2                	mov    %eax,%edx
    bfde:	48 8b 05 3b 4f 01 00 	mov    0x14f3b(%rip),%rax        # 20f20 <g_1548>
    bfe5:	89 d2                	mov    %edx,%edx
    bfe7:	48 89 10             	mov    %rdx,(%rax)
    bfea:	48 8b 00             	mov    (%rax),%rax
    bfed:	48 ba eb 37 f4 ae d7 	movabs $0xbac0f9d7aef437eb,%rdx
    bff4:	f9 c0 ba 
    bff7:	48 39 d0             	cmp    %rdx,%rax
    bffa:	0f 95 c2             	setne  %dl
    bffd:	0f b7 05 c0 2a 01 00 	movzwl 0x12ac0(%rip),%eax        # 1eac4 <g_2812>
    c004:	98                   	cwtl   
    c005:	0f b6 d2             	movzbl %dl,%edx
    c008:	48 98                	cltq   
    c00a:	89 94 85 64 ef ff ff 	mov    %edx,-0x109c(%rbp,%rax,4)
    c011:	0f b7 05 ac 2a 01 00 	movzwl 0x12aac(%rip),%eax        # 1eac4 <g_2812>
    c018:	83 c0 01             	add    $0x1,%eax
    c01b:	66 89 05 a2 2a 01 00 	mov    %ax,0x12aa2(%rip)        # 1eac4 <g_2812>
    c022:	0f b7 05 9b 2a 01 00 	movzwl 0x12a9b(%rip),%eax        # 1eac4 <g_2812>
    c029:	66 85 c0             	test   %ax,%ax
    c02c:	0f 8e ca fd ff ff    	jle    bdfc <func_1+0x2647>
    c032:	48 8b 85 20 ef ff ff 	mov    -0x10e0(%rbp),%rax
    c039:	0f be d8             	movsbl %al,%ebx
    c03c:	48 8b 05 85 43 01 00 	mov    0x14385(%rip),%rax        # 203c8 <g_356>
    c043:	0f b7 00             	movzwl (%rax),%eax
    c046:	0f bf d0             	movswl %ax,%edx
    c049:	48 8b 05 d0 4e 01 00 	mov    0x14ed0(%rip),%rax        # 20f20 <g_1548>
    c050:	48 8b 00             	mov    (%rax),%rax
    c053:	48 83 f8 01          	cmp    $0x1,%rax
    c057:	0f 97 c0             	seta   %al
    c05a:	0f b6 c0             	movzbl %al,%eax
    c05d:	89 d6                	mov    %edx,%esi
    c05f:	89 c7                	mov    %eax,%edi
    c061:	e8 6d c3 ff ff       	callq  83d3 <safe_sub_func_int16_t_s_s>
    c066:	8b 85 00 ee ff ff    	mov    -0x1200(%rbp),%eax
    c06c:	44 0f bf e0          	movswl %ax,%r12d
    c070:	48 8b 85 10 ee ff ff 	mov    -0x11f0(%rbp),%rax
    c077:	8b 00                	mov    (%rax),%eax
    c079:	48 8b 95 f0 ee ff ff 	mov    -0x1110(%rbp),%rdx
    c080:	89 c6                	mov    %eax,%esi
    c082:	89 d7                	mov    %edx,%edi
    c084:	e8 43 c6 ff ff       	callq  86cc <safe_mod_func_int32_t_s_s>
    c089:	85 c0                	test   %eax,%eax
    c08b:	74 10                	je     c09d <func_1+0x28e8>
    c08d:	83 bd 98 ed ff ff 00 	cmpl   $0x0,-0x1268(%rbp)
    c094:	74 07                	je     c09d <func_1+0x28e8>
    c096:	b8 01 00 00 00       	mov    $0x1,%eax
    c09b:	eb 05                	jmp    c0a2 <func_1+0x28ed>
    c09d:	b8 00 00 00 00       	mov    $0x0,%eax
    c0a2:	98                   	cwtl   
    c0a3:	44 89 e6             	mov    %r12d,%esi
    c0a6:	89 c7                	mov    %eax,%edi
    c0a8:	e8 26 c3 ff ff       	callq  83d3 <safe_sub_func_int16_t_s_s>
    c0ad:	66 83 f8 01          	cmp    $0x1,%ax
    c0b1:	0f 9e c0             	setle  %al
    c0b4:	89 c2                	mov    %eax,%edx
    c0b6:	8b 85 98 ed ff ff    	mov    -0x1268(%rbp),%eax
    c0bc:	21 d0                	and    %edx,%eax
    c0be:	0f be c0             	movsbl %al,%eax
    c0c1:	89 de                	mov    %ebx,%esi
    c0c3:	89 c7                	mov    %eax,%edi
    c0c5:	e8 28 c1 ff ff       	callq  81f2 <safe_sub_func_int8_t_s_s>
    c0ca:	89 c2                	mov    %eax,%edx
    c0cc:	48 8b 05 b5 4c 01 00 	mov    0x14cb5(%rip),%rax        # 20d88 <g_1175>
    c0d3:	0f be d2             	movsbl %dl,%edx
    c0d6:	89 10                	mov    %edx,(%rax)
    c0d8:	48 c7 05 b5 28 01 00 	movq   $0x0,0x128b5(%rip)        # 1e998 <g_1127>
    c0df:	00 00 00 00 
    c0e3:	e9 05 01 00 00       	jmpq   c1ed <func_1+0x2a38>
    c0e8:	66 c7 85 2a ed ff ff 	movw   $0x3ec1,-0x12d6(%rbp)
    c0ef:	c1 3e 
    c0f1:	48 8b 05 b0 50 01 00 	mov    0x150b0(%rip),%rax        # 211a8 <g_2599>
    c0f8:	48 8b 00             	mov    (%rax),%rax
    c0fb:	48 39 85 f8 ee ff ff 	cmp    %rax,-0x1108(%rbp)
    c102:	0f 95 c0             	setne  %al
    c105:	0f b6 c0             	movzbl %al,%eax
    c108:	be 24 00 00 00       	mov    $0x24,%esi
    c10d:	89 c7                	mov    %eax,%edi
    c10f:	e8 de c0 ff ff       	callq  81f2 <safe_sub_func_int8_t_s_s>
    c114:	48 8d 15 89 28 01 00 	lea    0x12889(%rip),%rdx        # 1e9a4 <g_1199>
    c11b:	0f be c0             	movsbl %al,%eax
    c11e:	89 02                	mov    %eax,(%rdx)
    c120:	48 8b 85 f0 ee ff ff 	mov    -0x1110(%rbp),%rax
    c127:	41 89 c4             	mov    %eax,%r12d
    c12a:	48 8b 05 4f 4d 01 00 	mov    0x14d4f(%rip),%rax        # 20e80 <g_1262>
    c131:	48 8b 00             	mov    (%rax),%rax
    c134:	0f b7 00             	movzwl (%rax),%eax
    c137:	0f b7 d8             	movzwl %ax,%ebx
    c13a:	48 8b 05 df 4d 01 00 	mov    0x14ddf(%rip),%rax        # 20f20 <g_1548>
    c141:	48 8b 00             	mov    (%rax),%rax
    c144:	48 85 c0             	test   %rax,%rax
    c147:	74 3f                	je     c188 <func_1+0x29d3>
    c149:	be 09 00 00 00       	mov    $0x9,%esi
    c14e:	bf f6 ff ff ff       	mov    $0xfffffff6,%edi
    c153:	e8 89 c3 ff ff       	callq  84e1 <safe_lshift_func_int16_t_s_u>
    c158:	48 8b 15 09 51 01 00 	mov    0x15109(%rip),%rdx        # 21268 <g_3218>
    c15f:	48 8b 12             	mov    (%rdx),%rdx
    c162:	48 8b 0a             	mov    (%rdx),%rcx
    c165:	48 0f bf d0          	movswq %ax,%rdx
    c169:	48 8b 05 f8 50 01 00 	mov    0x150f8(%rip),%rax        # 21268 <g_3218>
    c170:	48 8b 00             	mov    (%rax),%rax
    c173:	48 09 ca             	or     %rcx,%rdx
    c176:	48 89 10             	mov    %rdx,(%rax)
    c179:	48 8b 00             	mov    (%rax),%rax
    c17c:	48 85 c0             	test   %rax,%rax
    c17f:	74 07                	je     c188 <func_1+0x29d3>
    c181:	b8 01 00 00 00       	mov    $0x1,%eax
    c186:	eb 05                	jmp    c18d <func_1+0x29d8>
    c188:	b8 00 00 00 00       	mov    $0x0,%eax
    c18d:	39 d8                	cmp    %ebx,%eax
    c18f:	0f 95 c0             	setne  %al
    c192:	0f b6 c0             	movzbl %al,%eax
    c195:	44 89 e6             	mov    %r12d,%esi
    c198:	89 c7                	mov    %eax,%edi
    c19a:	e8 5e cd ff ff       	callq  8efd <safe_mod_func_uint32_t_u_u>
    c19f:	48 8b 05 c2 50 01 00 	mov    0x150c2(%rip),%rax        # 21268 <g_3218>
    c1a6:	48 8b 00             	mov    (%rax),%rax
    c1a9:	48 8b 00             	mov    (%rax),%rax
    c1ac:	48 85 c0             	test   %rax,%rax
    c1af:	75 08                	jne    c1b9 <func_1+0x2a04>
    c1b1:	8b 85 00 ee ff ff    	mov    -0x1200(%rbp),%eax
    c1b7:	85 c0                	test   %eax,%eax
    c1b9:	8b 8d 98 ed ff ff    	mov    -0x1268(%rbp),%ecx
    c1bf:	48 8d 05 de 27 01 00 	lea    0x127de(%rip),%rax        # 1e9a4 <g_1199>
    c1c6:	8b 10                	mov    (%rax),%edx
    c1c8:	48 8d 05 d5 27 01 00 	lea    0x127d5(%rip),%rax        # 1e9a4 <g_1199>
    c1cf:	09 ca                	or     %ecx,%edx
    c1d1:	89 10                	mov    %edx,(%rax)
    c1d3:	48 83 85 08 ee ff ff 	addq   $0x1,-0x11f8(%rbp)
    c1da:	01 
    c1db:	48 8b 05 b6 27 01 00 	mov    0x127b6(%rip),%rax        # 1e998 <g_1127>
    c1e2:	48 83 c0 01          	add    $0x1,%rax
    c1e6:	48 89 05 ab 27 01 00 	mov    %rax,0x127ab(%rip)        # 1e998 <g_1127>
    c1ed:	48 8b 05 a4 27 01 00 	mov    0x127a4(%rip),%rax        # 1e998 <g_1127>
    c1f4:	48 83 f8 03          	cmp    $0x3,%rax
    c1f8:	0f 86 ea fe ff ff    	jbe    c0e8 <func_1+0x2933>
    c1fe:	c7 05 48 56 01 00 00 	movl   $0x0,0x15648(%rip)        # 21850 <g_149>
    c205:	00 00 00 
    c208:	eb 7d                	jmp    c287 <func_1+0x2ad2>
    c20a:	c6 05 8f 27 01 00 00 	movb   $0x0,0x1278f(%rip)        # 1e9a0 <g_1167>
    c211:	90                   	nop
    c212:	0f b6 05 87 27 01 00 	movzbl 0x12787(%rip),%eax        # 1e9a0 <g_1167>
    c219:	3c 03                	cmp    $0x3,%al
    c21b:	77 1a                	ja     c237 <func_1+0x2a82>
    c21d:	c6 85 21 ed ff ff f8 	movb   $0xf8,-0x12df(%rbp)
    c224:	80 85 21 ed ff ff 01 	addb   $0x1,-0x12df(%rbp)
    c22b:	48 8b 05 b6 56 01 00 	mov    0x156b6(%rip),%rax        # 218e8 <g_3498>
    c232:	e9 2f 06 00 00       	jmpq   c866 <func_1+0x30b1>
    c237:	66 c7 85 24 ed ff ff 	movw   $0x0,-0x12dc(%rbp)
    c23e:	00 00 
    c240:	66 83 bd 24 ed ff ff 	cmpw   $0x3,-0x12dc(%rbp)
    c247:	03 
    c248:	77 0c                	ja     c256 <func_1+0x2aa1>
    c24a:	48 8b 05 9f 56 01 00 	mov    0x1569f(%rip),%rax        # 218f0 <g_3499>
    c251:	e9 10 06 00 00       	jmpq   c866 <func_1+0x30b1>
    c256:	48 8b 05 43 16 01 00 	mov    0x11643(%rip),%rax        # 1d8a0 <g_187>
    c25d:	48 85 c0             	test   %rax,%rax
    c260:	74 05                	je     c267 <func_1+0x2ab2>
    c262:	e9 82 d9 ff ff       	jmpq   9be9 <func_1+0x434>
    c267:	48 8b 05 52 41 01 00 	mov    0x14152(%rip),%rax        # 203c0 <g_310>
    c26e:	48 8b 95 30 ef ff ff 	mov    -0x10d0(%rbp),%rdx
    c275:	48 89 10             	mov    %rdx,(%rax)
    c278:	8b 05 d2 55 01 00    	mov    0x155d2(%rip),%eax        # 21850 <g_149>
    c27e:	83 c0 01             	add    $0x1,%eax
    c281:	89 05 c9 55 01 00    	mov    %eax,0x155c9(%rip)        # 21850 <g_149>
    c287:	8b 05 c3 55 01 00    	mov    0x155c3(%rip),%eax        # 21850 <g_149>
    c28d:	83 f8 03             	cmp    $0x3,%eax
    c290:	0f 8e 74 ff ff ff    	jle    c20a <func_1+0x2a55>
    c296:	0f b7 05 ab 55 01 00 	movzwl 0x155ab(%rip),%eax        # 21848 <g_74>
    c29d:	83 c0 01             	add    $0x1,%eax
    c2a0:	66 89 05 a1 55 01 00 	mov    %ax,0x155a1(%rip)        # 21848 <g_74>
    c2a7:	0f b7 05 9a 55 01 00 	movzwl 0x1559a(%rip),%eax        # 21848 <g_74>
    c2ae:	66 83 f8 03          	cmp    $0x3,%ax
    c2b2:	0f 8e 6c f8 ff ff    	jle    bb24 <func_1+0x236f>
    c2b8:	48 8b 95 c8 ed ff ff 	mov    -0x1238(%rbp),%rdx
    c2bf:	48 8b 85 00 ef ff ff 	mov    -0x1100(%rbp),%rax
    c2c6:	48 89 10             	mov    %rdx,(%rax)
    c2c9:	c7 05 1d 28 01 00 00 	movl   $0x0,0x1281d(%rip)        # 1eaf0 <g_3144>
    c2d0:	00 00 00 
    c2d3:	e9 7d 05 00 00       	jmpq   c855 <func_1+0x30a0>
    c2d8:	48 b8 e7 5a f5 5c 0e 	movabs $0x570f530e5cf55ae7,%rax
    c2df:	53 0f 57 
    c2e2:	48 89 85 70 f6 ff ff 	mov    %rax,-0x990(%rbp)
    c2e9:	48 89 85 78 f6 ff ff 	mov    %rax,-0x988(%rbp)
    c2f0:	48 89 85 80 f6 ff ff 	mov    %rax,-0x980(%rbp)
    c2f7:	48 89 85 88 f6 ff ff 	mov    %rax,-0x978(%rbp)
    c2fe:	c7 05 4c 55 01 00 00 	movl   $0x0,0x1554c(%rip)        # 21854 <g_201>
    c305:	00 00 00 
    c308:	90                   	nop
    c309:	8b 05 45 55 01 00    	mov    0x15545(%rip),%eax        # 21854 <g_201>
    c30f:	83 f8 03             	cmp    $0x3,%eax
    c312:	77 53                	ja     c367 <func_1+0x2bb2>
    c314:	48 c7 05 99 55 01 00 	movq   $0x0,0x15599(%rip)        # 218b8 <g_2678>
    c31b:	00 00 00 00 
    c31f:	eb 24                	jmp    c345 <func_1+0x2b90>
    c321:	48 8d 05 7c 26 01 00 	lea    0x1267c(%rip),%rax        # 1e9a4 <g_1199>
    c328:	48 8d 15 75 26 01 00 	lea    0x12675(%rip),%rdx        # 1e9a4 <g_1199>
    c32f:	8b 00                	mov    (%rax),%eax
    c331:	89 02                	mov    %eax,(%rdx)
    c333:	48 8b 05 7e 55 01 00 	mov    0x1557e(%rip),%rax        # 218b8 <g_2678>
    c33a:	48 83 c0 01          	add    $0x1,%rax
    c33e:	48 89 05 73 55 01 00 	mov    %rax,0x15573(%rip)        # 218b8 <g_2678>
    c345:	48 8b 05 6c 55 01 00 	mov    0x1556c(%rip),%rax        # 218b8 <g_2678>
    c34c:	48 83 f8 03          	cmp    $0x3,%rax
    c350:	7e cf                	jle    c321 <func_1+0x2b6c>
    c352:	48 8b 05 b7 44 01 00 	mov    0x144b7(%rip),%rax        # 20810 <g_537>
    c359:	48 8b 00             	mov    (%rax),%rax
    c35c:	48 8b 00             	mov    (%rax),%rax
    c35f:	48 8b 00             	mov    (%rax),%rax
    c362:	e9 ff 04 00 00       	jmpq   c866 <func_1+0x30b1>
    c367:	c7 05 33 1f 01 00 00 	movl   $0x0,0x11f33(%rip)        # 1e2a4 <g_451>
    c36e:	00 00 00 
    c371:	e9 52 02 00 00       	jmpq   c5c8 <func_1+0x2e13>
    c376:	48 8d 85 64 ef ff ff 	lea    -0x109c(%rbp),%rax
    c37d:	48 89 85 10 ef ff ff 	mov    %rax,-0x10f0(%rbp)
    c384:	c7 85 8c ed ff ff 8d 	movl   $0x201cd28d,-0x1274(%rbp)
    c38b:	d2 1c 20 
    c38e:	c7 85 90 ed ff ff f7 	movl   $0xfffffff7,-0x1270(%rbp)
    c395:	ff ff ff 
    c398:	48 8b 05 59 4e 01 00 	mov    0x14e59(%rip),%rax        # 211f8 <g_2744>
    c39f:	48 8b 00             	mov    (%rax),%rax
    c3a2:	48 89 05 67 50 01 00 	mov    %rax,0x15067(%rip)        # 21410 <g_3505>
    c3a9:	48 8b 05 10 40 01 00 	mov    0x14010(%rip),%rax        # 203c0 <g_310>
    c3b0:	48 8b 15 59 50 01 00 	mov    0x15059(%rip),%rdx        # 21410 <g_3505>
    c3b7:	48 89 10             	mov    %rdx,(%rax)
    c3ba:	48 8b 05 57 50 01 00 	mov    0x15057(%rip),%rax        # 21418 <g_3507>
    c3c1:	48 8b 95 10 ef ff ff 	mov    -0x10f0(%rbp),%rdx
    c3c8:	48 89 10             	mov    %rdx,(%rax)
    c3cb:	c6 85 18 ed ff ff 00 	movb   $0x0,-0x12e8(%rbp)
    c3d2:	90                   	nop
    c3d3:	0f b6 85 18 ed ff ff 	movzbl -0x12e8(%rbp),%eax
    c3da:	3c 03                	cmp    $0x3,%al
    c3dc:	77 0c                	ja     c3ea <func_1+0x2c35>
    c3de:	48 8b 05 93 27 01 00 	mov    0x12793(%rip),%rax        # 1eb78 <g_3508>
    c3e5:	e9 2f 06 00 00       	jmpq   ca19 <func_1+0x3264>
    c3ea:	48 8b 85 88 f6 ff ff 	mov    -0x978(%rbp),%rax
    c3f1:	0f be d8             	movsbl %al,%ebx
    c3f4:	48 8b 85 88 f6 ff ff 	mov    -0x978(%rbp),%rax
    c3fb:	41 89 c5             	mov    %eax,%r13d
    c3fe:	48 8b 85 10 ef ff ff 	mov    -0x10f0(%rbp),%rax
    c405:	8b 00                	mov    (%rax),%eax
    c407:	98                   	cwtl   
    c408:	be 03 00 00 00       	mov    $0x3,%esi
    c40d:	89 c7                	mov    %eax,%edi
    c40f:	e8 e1 bf ff ff       	callq  83f5 <safe_mul_func_int16_t_s_s>
    c414:	48 8b 85 50 ee ff ff 	mov    -0x11b0(%rbp),%rax
    c41b:	48 8d 15 fe 4a 01 00 	lea    0x14afe(%rip),%rdx        # 20f20 <g_1548>
    c422:	48 89 10             	mov    %rdx,(%rax)
    c425:	48 8b 85 50 ee ff ff 	mov    -0x11b0(%rbp),%rax
    c42c:	48 8b 00             	mov    (%rax),%rax
    c42f:	48 8d 15 ea 4a 01 00 	lea    0x14aea(%rip),%rdx        # 20f20 <g_1548>
    c436:	48 39 d0             	cmp    %rdx,%rax
    c439:	0f 95 c0             	setne  %al
    c43c:	0f b6 f0             	movzbl %al,%esi
    c43f:	8b 05 ab 26 01 00    	mov    0x126ab(%rip),%eax        # 1eaf0 <g_3144>
    c445:	8b 15 59 1e 01 00    	mov    0x11e59(%rip),%edx        # 1e2a4 <g_451>
    c44b:	8d 4a 02             	lea    0x2(%rdx),%ecx
    c44e:	8b 15 50 1e 01 00    	mov    0x11e50(%rip),%edx        # 1e2a4 <g_451>
    c454:	83 c2 02             	add    $0x2,%edx
    c457:	48 63 fa             	movslq %edx,%rdi
    c45a:	48 98                	cltq   
    c45c:	48 63 c9             	movslq %ecx,%rcx
    c45f:	48 89 c2             	mov    %rax,%rdx
    c462:	48 c1 e2 06          	shl    $0x6,%rdx
    c466:	48 29 c2             	sub    %rax,%rdx
    c469:	48 89 c8             	mov    %rcx,%rax
    c46c:	48 c1 e0 03          	shl    $0x3,%rax
    c470:	48 01 c8             	add    %rcx,%rax
    c473:	48 01 d0             	add    %rdx,%rax
    c476:	48 8d 4d e0          	lea    -0x20(%rbp),%rcx
    c47a:	48 01 c8             	add    %rcx,%rax
    c47d:	48 01 f8             	add    %rdi,%rax
    c480:	48 2d 10 0f 00 00    	sub    $0xf10,%rax
    c486:	0f b6 00             	movzbl (%rax),%eax
    c489:	0f be c0             	movsbl %al,%eax
    c48c:	89 c7                	mov    %eax,%edi
    c48e:	e8 a2 be ff ff       	callq  8335 <safe_rshift_func_int8_t_s_s>
    c493:	0f be d0             	movsbl %al,%edx
    c496:	48 83 bd 08 ef ff ff 	cmpq   $0x0,-0x10f8(%rbp)
    c49d:	00 
    c49e:	0f 95 c0             	setne  %al
    c4a1:	0f b6 c0             	movzbl %al,%eax
    c4a4:	31 c2                	xor    %eax,%edx
    c4a6:	41 89 d4             	mov    %edx,%r12d
    c4a9:	48 8b 05 68 46 01 00 	mov    0x14668(%rip),%rax        # 20b18 <g_949>
    c4b0:	48 8b 00             	mov    (%rax),%rax
    c4b3:	48 89 c6             	mov    %rax,%rsi
    c4b6:	48 bf de 8d 6a 2a 46 	movabs $0x88d639462a6a8dde,%rdi
    c4bd:	39 d6 88 
    c4c0:	e8 32 c5 ff ff       	callq  89f7 <safe_div_func_int64_t_s_s>
    c4c5:	48 be ba 6a 3d d3 14 	movabs $0x23532814d33d6aba,%rsi
    c4cc:	28 53 23 
    c4cf:	48 89 c7             	mov    %rax,%rdi
    c4d2:	e8 20 c5 ff ff       	callq  89f7 <safe_div_func_int64_t_s_s>
    c4d7:	98                   	cwtl   
    c4d8:	89 c6                	mov    %eax,%esi
    c4da:	bf 0c e3 ff ff       	mov    $0xffffe30c,%edi
    c4df:	e8 11 bf ff ff       	callq  83f5 <safe_mul_func_int16_t_s_s>
    c4e4:	0f bf d0             	movswl %ax,%edx
    c4e7:	48 8b 85 10 ef ff ff 	mov    -0x10f0(%rbp),%rax
    c4ee:	8b 00                	mov    (%rax),%eax
    c4f0:	39 c2                	cmp    %eax,%edx
    c4f2:	0f 9c c0             	setl   %al
    c4f5:	0f b6 c0             	movzbl %al,%eax
    c4f8:	41 39 c4             	cmp    %eax,%r12d
    c4fb:	0f 9d c0             	setge  %al
    c4fe:	0f b6 c0             	movzbl %al,%eax
    c501:	44 89 ee             	mov    %r13d,%esi
    c504:	89 c7                	mov    %eax,%edi
    c506:	e8 6f c9 ff ff       	callq  8e7a <safe_rshift_func_uint16_t_u_u>
    c50b:	0f be c0             	movsbl %al,%eax
    c50e:	89 de                	mov    %ebx,%esi
    c510:	89 c7                	mov    %eax,%edi
    c512:	e8 db bc ff ff       	callq  81f2 <safe_sub_func_int8_t_s_s>
    c517:	84 c0                	test   %al,%al
    c519:	74 2f                	je     c54a <func_1+0x2d95>
    c51b:	48 8d 85 00 ee ff ff 	lea    -0x1200(%rbp),%rax
    c522:	48 89 85 18 ef ff ff 	mov    %rax,-0x10e8(%rbp)
    c529:	48 8b 05 88 3e 01 00 	mov    0x13e88(%rip),%rax        # 203b8 <g_311>
    c530:	8b 00                	mov    (%rax),%eax
    c532:	85 c0                	test   %eax,%eax
    c534:	0f 85 9f 00 00 00    	jne    c5d9 <func_1+0x2e24>
    c53a:	48 8b 85 10 ef ff ff 	mov    -0x10f0(%rbp),%rax
    c541:	48 89 85 18 ef ff ff 	mov    %rax,-0x10e8(%rbp)
    c548:	eb 6f                	jmp    c5b9 <func_1+0x2e04>
    c54a:	c7 85 d0 fa ff ff ff 	movl   $0xffffffff,-0x530(%rbp)
    c551:	ff ff ff 
    c554:	c7 85 d4 fa ff ff ff 	movl   $0xffffffff,-0x52c(%rbp)
    c55b:	ff ff ff 
    c55e:	c7 85 d8 fa ff ff ff 	movl   $0xffffffff,-0x528(%rbp)
    c565:	ff ff ff 
    c568:	c7 85 dc fa ff ff ff 	movl   $0xffffffff,-0x524(%rbp)
    c56f:	ff ff ff 
    c572:	c7 85 e0 fa ff ff ff 	movl   $0xffffffff,-0x520(%rbp)
    c579:	ff ff ff 
    c57c:	c7 85 e4 fa ff ff ff 	movl   $0xffffffff,-0x51c(%rbp)
    c583:	ff ff ff 
    c586:	c7 85 e8 fa ff ff ff 	movl   $0xffffffff,-0x518(%rbp)
    c58d:	ff ff ff 
    c590:	c7 85 ec fa ff ff ff 	movl   $0xffffffff,-0x514(%rbp)
    c597:	ff ff ff 
    c59a:	48 8b 05 1f 3e 01 00 	mov    0x13e1f(%rip),%rax        # 203c0 <g_310>
    c5a1:	48 8b 00             	mov    (%rax),%rax
    c5a4:	8b 00                	mov    (%rax),%eax
    c5a6:	85 c0                	test   %eax,%eax
    c5a8:	75 32                	jne    c5dc <func_1+0x2e27>
    c5aa:	8b 85 e4 fa ff ff    	mov    -0x51c(%rbp),%eax
    c5b0:	83 e8 01             	sub    $0x1,%eax
    c5b3:	89 85 e4 fa ff ff    	mov    %eax,-0x51c(%rbp)
    c5b9:	8b 05 e5 1c 01 00    	mov    0x11ce5(%rip),%eax        # 1e2a4 <g_451>
    c5bf:	83 c0 01             	add    $0x1,%eax
    c5c2:	89 05 dc 1c 01 00    	mov    %eax,0x11cdc(%rip)        # 1e2a4 <g_451>
    c5c8:	8b 05 d6 1c 01 00    	mov    0x11cd6(%rip),%eax        # 1e2a4 <g_451>
    c5ce:	83 f8 03             	cmp    $0x3,%eax
    c5d1:	0f 8e 9f fd ff ff    	jle    c376 <func_1+0x2bc1>
    c5d7:	eb 04                	jmp    c5dd <func_1+0x2e28>
    c5d9:	90                   	nop
    c5da:	eb 01                	jmp    c5dd <func_1+0x2e28>
    c5dc:	90                   	nop
    c5dd:	48 c7 05 b8 12 01 00 	movq   $0x0,0x112b8(%rip)        # 1d8a0 <g_187>
    c5e4:	00 00 00 00 
    c5e8:	e9 48 02 00 00       	jmpq   c835 <func_1+0x3080>
    c5ed:	c6 85 20 ed ff ff 00 	movb   $0x0,-0x12e0(%rbp)
    c5f4:	c7 85 94 ed ff ff e0 	movl   $0xdab864e0,-0x126c(%rbp)
    c5fb:	64 b8 da 
    c5fe:	c7 05 a8 21 01 00 00 	movl   $0x0,0x121a8(%rip)        # 1e7b0 <g_737>
    c605:	00 00 00 
    c608:	e9 07 02 00 00       	jmpq   c814 <func_1+0x305f>
    c60d:	0f be 85 20 ed ff ff 	movsbl -0x12e0(%rbp),%eax
    c614:	f7 d0                	not    %eax
    c616:	41 89 c6             	mov    %eax,%r14d
    c619:	48 8b 05 38 4c 01 00 	mov    0x14c38(%rip),%rax        # 21258 <g_3173>
    c620:	4c 8b 20             	mov    (%rax),%r12
    c623:	48 8b 05 6e 4b 01 00 	mov    0x14b6e(%rip),%rax        # 21198 <g_2399>
    c62a:	0f b7 00             	movzwl (%rax),%eax
    c62d:	0f bf d8             	movswl %ax,%ebx
    c630:	48 8b 05 d1 44 01 00 	mov    0x144d1(%rip),%rax        # 20b08 <g_793>
    c637:	0f b6 10             	movzbl (%rax),%edx
    c63a:	8d 4a 01             	lea    0x1(%rdx),%ecx
    c63d:	88 08                	mov    %cl,(%rax)
    c63f:	44 0f b6 ea          	movzbl %dl,%r13d
    c643:	48 8b 85 f0 ee ff ff 	mov    -0x1110(%rbp),%rax
    c64a:	83 f0 04             	xor    $0x4,%eax
    c64d:	0f b6 d0             	movzbl %al,%edx
    c650:	8b 85 88 ed ff ff    	mov    -0x1278(%rbp),%eax
    c656:	0f b6 c0             	movzbl %al,%eax
    c659:	89 d6                	mov    %edx,%esi
    c65b:	89 c7                	mov    %eax,%edi
    c65d:	e8 79 c5 ff ff       	callq  8bdb <safe_div_func_uint8_t_u_u>
    c662:	8b 15 88 24 01 00    	mov    0x12488(%rip),%edx        # 1eaf0 <g_3144>
    c668:	44 8d 42 05          	lea    0x5(%rdx),%r8d
    c66c:	8b 15 3e 21 01 00    	mov    0x1213e(%rip),%edx        # 1e7b0 <g_737>
    c672:	48 8b 35 27 12 01 00 	mov    0x11227(%rip),%rsi        # 1d8a0 <g_187>
    c679:	0f b6 c8             	movzbl %al,%ecx
    c67c:	48 63 fa             	movslq %edx,%rdi
    c67f:	49 63 d0             	movslq %r8d,%rdx
    c682:	48 89 d0             	mov    %rdx,%rax
    c685:	48 01 c0             	add    %rax,%rax
    c688:	48 01 d0             	add    %rdx,%rax
    c68b:	48 01 c0             	add    %rax,%rax
    c68e:	48 01 f8             	add    %rdi,%rax
    c691:	48 c1 e0 02          	shl    $0x2,%rax
    c695:	48 01 f0             	add    %rsi,%rax
    c698:	48 8d 14 00          	lea    (%rax,%rax,1),%rdx
    c69c:	48 8d 05 1d 1a 01 00 	lea    0x11a1d(%rip),%rax        # 1e0c0 <g_417>
    c6a3:	66 89 0c 02          	mov    %cx,(%rdx,%rax,1)
    c6a7:	48 8b 05 ba 46 01 00 	mov    0x146ba(%rip),%rax        # 20d68 <g_960>
    c6ae:	48 8b 00             	mov    (%rax),%rax
    c6b1:	48 8b 00             	mov    (%rax),%rax
    c6b4:	c6 00 01             	movb   $0x1,(%rax)
    c6b7:	b8 01 00 00 00       	mov    $0x1,%eax
    c6bc:	48 63 d0             	movslq %eax,%rdx
    c6bf:	48 8b 05 52 44 01 00 	mov    0x14452(%rip),%rax        # 20b18 <g_949>
    c6c6:	48 8b 00             	mov    (%rax),%rax
    c6c9:	48 39 c2             	cmp    %rax,%rdx
    c6cc:	0f 97 c0             	seta   %al
    c6cf:	0f b6 c0             	movzbl %al,%eax
    c6d2:	44 21 e8             	and    %r13d,%eax
    c6d5:	0f bf d0             	movswl %ax,%edx
    c6d8:	48 8b 05 d1 3c 01 00 	mov    0x13cd1(%rip),%rax        # 203b0 <g_309>
    c6df:	0f b7 00             	movzwl (%rax),%eax
    c6e2:	98                   	cwtl   
    c6e3:	89 d6                	mov    %edx,%esi
    c6e5:	89 c7                	mov    %eax,%edi
    c6e7:	e8 c7 bc ff ff       	callq  83b3 <safe_add_func_int16_t_s_s>
    c6ec:	98                   	cwtl   
    c6ed:	be 0b 00 00 00       	mov    $0xb,%esi
    c6f2:	89 c7                	mov    %eax,%edi
    c6f4:	e8 99 bd ff ff       	callq  8492 <safe_lshift_func_int16_t_s_s>
    c6f9:	98                   	cwtl   
    c6fa:	89 de                	mov    %ebx,%esi
    c6fc:	89 c7                	mov    %eax,%edi
    c6fe:	e8 13 bd ff ff       	callq  8416 <safe_mod_func_int16_t_s_s>
    c703:	98                   	cwtl   
    c704:	39 85 94 ed ff ff    	cmp    %eax,-0x126c(%rbp)
    c70a:	0f 95 c0             	setne  %al
    c70d:	0f b6 d0             	movzbl %al,%edx
    c710:	48 8b 85 10 ee ff ff 	mov    -0x11f0(%rbp),%rax
    c717:	8b 00                	mov    (%rax),%eax
    c719:	89 c1                	mov    %eax,%ecx
    c71b:	66 0f be 85 20 ed ff 	movsbw -0x12e0(%rbp),%ax
    c722:	ff 
    c723:	09 c8                	or     %ecx,%eax
    c725:	98                   	cwtl   
    c726:	89 d6                	mov    %edx,%esi
    c728:	89 c7                	mov    %eax,%edi
    c72a:	e8 84 bc ff ff       	callq  83b3 <safe_add_func_int16_t_s_s>
    c72f:	8b 85 94 ed ff ff    	mov    -0x126c(%rbp),%eax
    c735:	0f be c0             	movsbl %al,%eax
    c738:	be 04 00 00 00       	mov    $0x4,%esi
    c73d:	89 c7                	mov    %eax,%edi
    c73f:	e8 5d bb ff ff       	callq  82a1 <safe_lshift_func_int8_t_s_s>
    c744:	48 0f be c0          	movsbq %al,%rax
    c748:	49 39 c4             	cmp    %rax,%r12
    c74b:	0f 97 c0             	seta   %al
    c74e:	0f b6 c0             	movzbl %al,%eax
    c751:	41 39 c6             	cmp    %eax,%r14d
    c754:	0f 9c c0             	setl   %al
    c757:	44 0f b6 c8          	movzbl %al,%r9d
    c75b:	48 8b 95 88 f6 ff ff 	mov    -0x978(%rbp),%rdx
    c762:	8b 35 48 20 01 00    	mov    0x12048(%rip),%esi        # 1e7b0 <g_737>
    c768:	8b 0d 42 20 01 00    	mov    0x12042(%rip),%ecx        # 1e7b0 <g_737>
    c76e:	0f b6 05 23 11 01 00 	movzbl 0x11123(%rip),%eax        # 1d898 <g_147>
    c775:	0f b6 f8             	movzbl %al,%edi
    c778:	41 89 d3             	mov    %edx,%r11d
    c77b:	4c 63 d7             	movslq %edi,%r10
    c77e:	48 63 c6             	movslq %esi,%rax
    c781:	4c 63 c1             	movslq %ecx,%r8
    c784:	48 89 c2             	mov    %rax,%rdx
    c787:	48 c1 e2 06          	shl    $0x6,%rdx
    c78b:	48 29 c2             	sub    %rax,%rdx
    c78e:	4c 89 c0             	mov    %r8,%rax
    c791:	48 c1 e0 03          	shl    $0x3,%rax
    c795:	4c 01 c0             	add    %r8,%rax
    c798:	48 01 d0             	add    %rdx,%rax
    c79b:	48 8d 5d e0          	lea    -0x20(%rbp),%rbx
    c79f:	48 01 d8             	add    %rbx,%rax
    c7a2:	4c 01 d0             	add    %r10,%rax
    c7a5:	48 2d 10 0f 00 00    	sub    $0xf10,%rax
    c7ab:	44 88 18             	mov    %r11b,(%rax)
    c7ae:	48 63 ff             	movslq %edi,%rdi
    c7b1:	48 63 c6             	movslq %esi,%rax
    c7b4:	48 63 c9             	movslq %ecx,%rcx
    c7b7:	48 89 c2             	mov    %rax,%rdx
    c7ba:	48 c1 e2 06          	shl    $0x6,%rdx
    c7be:	48 29 c2             	sub    %rax,%rdx
    c7c1:	48 89 c8             	mov    %rcx,%rax
    c7c4:	48 c1 e0 03          	shl    $0x3,%rax
    c7c8:	48 01 c8             	add    %rcx,%rax
    c7cb:	48 01 d0             	add    %rdx,%rax
    c7ce:	48 8d 5d e0          	lea    -0x20(%rbp),%rbx
    c7d2:	48 01 d8             	add    %rbx,%rax
    c7d5:	48 01 f8             	add    %rdi,%rax
    c7d8:	48 2d 10 0f 00 00    	sub    $0xf10,%rax
    c7de:	0f b6 00             	movzbl (%rax),%eax
    c7e1:	0f be c0             	movsbl %al,%eax
    c7e4:	44 89 ce             	mov    %r9d,%esi
    c7e7:	89 c7                	mov    %eax,%edi
    c7e9:	e8 04 ba ff ff       	callq  81f2 <safe_sub_func_int8_t_s_s>
    c7ee:	48 8b 15 1b 4c 01 00 	mov    0x14c1b(%rip),%rdx        # 21410 <g_3505>
    c7f5:	8b 0a                	mov    (%rdx),%ecx
    c7f7:	0f be d0             	movsbl %al,%edx
    c7fa:	48 8b 05 0f 4c 01 00 	mov    0x14c0f(%rip),%rax        # 21410 <g_3505>
    c801:	31 ca                	xor    %ecx,%edx
    c803:	89 10                	mov    %edx,(%rax)
    c805:	8b 05 a5 1f 01 00    	mov    0x11fa5(%rip),%eax        # 1e7b0 <g_737>
    c80b:	83 c0 01             	add    $0x1,%eax
    c80e:	89 05 9c 1f 01 00    	mov    %eax,0x11f9c(%rip)        # 1e7b0 <g_737>
    c814:	8b 05 96 1f 01 00    	mov    0x11f96(%rip),%eax        # 1e7b0 <g_737>
    c81a:	83 f8 03             	cmp    $0x3,%eax
    c81d:	0f 8e ea fd ff ff    	jle    c60d <func_1+0x2e58>
    c823:	48 8b 05 76 10 01 00 	mov    0x11076(%rip),%rax        # 1d8a0 <g_187>
    c82a:	48 83 c0 01          	add    $0x1,%rax
    c82e:	48 89 05 6b 10 01 00 	mov    %rax,0x1106b(%rip)        # 1d8a0 <g_187>
    c835:	48 8b 05 64 10 01 00 	mov    0x11064(%rip),%rax        # 1d8a0 <g_187>
    c83c:	48 83 f8 03          	cmp    $0x3,%rax
    c840:	0f 86 a7 fd ff ff    	jbe    c5ed <func_1+0x2e38>
    c846:	8b 05 a4 22 01 00    	mov    0x122a4(%rip),%eax        # 1eaf0 <g_3144>
    c84c:	83 c0 01             	add    $0x1,%eax
    c84f:	89 05 9b 22 01 00    	mov    %eax,0x1229b(%rip)        # 1eaf0 <g_3144>
    c855:	8b 05 95 22 01 00    	mov    0x12295(%rip),%eax        # 1eaf0 <g_3144>
    c85b:	83 f8 03             	cmp    $0x3,%eax
    c85e:	0f 8e 74 fa ff ff    	jle    c2d8 <func_1+0x2b23>
    c864:	eb 05                	jmp    c86b <func_1+0x30b6>
    c866:	e9 ae 01 00 00       	jmpq   ca19 <func_1+0x3264>
    c86b:	48 8b 85 10 ee ff ff 	mov    -0x11f0(%rbp),%rax
    c872:	8b 00                	mov    (%rax),%eax
    c874:	98                   	cwtl   
    c875:	be 09 00 00 00       	mov    $0x9,%esi
    c87a:	89 c7                	mov    %eax,%edi
    c87c:	e8 11 bc ff ff       	callq  8492 <safe_lshift_func_int16_t_s_s>
    c881:	48 8b 05 c0 49 01 00 	mov    0x149c0(%rip),%rax        # 21248 <g_3049>
    c888:	48 8b 08             	mov    (%rax),%rcx
    c88b:	48 8b 05 5e 49 01 00 	mov    0x1495e(%rip),%rax        # 211f0 <g_2701>
    c892:	48 8b 00             	mov    (%rax),%rax
    c895:	48 8b 00             	mov    (%rax),%rax
    c898:	48 8d 95 2c ed ff ff 	lea    -0x12d4(%rbp),%rdx
    c89f:	48 89 10             	mov    %rdx,(%rax)
    c8a2:	48 8b 00             	mov    (%rax),%rax
    c8a5:	48 39 c1             	cmp    %rax,%rcx
    c8a8:	48 8b 05 39 49 01 00 	mov    0x14939(%rip),%rax        # 211e8 <g_2702>
    c8af:	48 8b 00             	mov    (%rax),%rax
    c8b2:	48 8b 00             	mov    (%rax),%rax
    c8b5:	8b 18                	mov    (%rax),%ebx
    c8b7:	48 8b 05 52 42 01 00 	mov    0x14252(%rip),%rax        # 20b10 <g_945>
    c8be:	4c 8b 20             	mov    (%rax),%r12
    c8c1:	48 8b 05 48 4b 01 00 	mov    0x14b48(%rip),%rax        # 21410 <g_3505>
    c8c8:	c7 00 c4 93 6b 33    	movl   $0x336b93c4,(%rax)
    c8ce:	48 8b 85 10 ee ff ff 	mov    -0x11f0(%rbp),%rax
    c8d5:	8b 00                	mov    (%rax),%eax
    c8d7:	0f be d0             	movsbl %al,%edx
    c8da:	48 8b 85 70 ee ff ff 	mov    -0x1190(%rbp),%rax
    c8e1:	0f be c0             	movsbl %al,%eax
    c8e4:	89 d6                	mov    %edx,%esi
    c8e6:	89 c7                	mov    %eax,%edi
    c8e8:	e8 44 b9 ff ff       	callq  8231 <safe_mod_func_int8_t_s_s>
    c8ed:	84 c0                	test   %al,%al
    c8ef:	74 07                	je     c8f8 <func_1+0x3143>
    c8f1:	b8 01 00 00 00       	mov    $0x1,%eax
    c8f6:	eb 05                	jmp    c8fd <func_1+0x3148>
    c8f8:	b8 00 00 00 00       	mov    $0x0,%eax
    c8fd:	48 98                	cltq   
    c8ff:	4c 89 e6             	mov    %r12,%rsi
    c902:	48 89 c7             	mov    %rax,%rdi
    c905:	e8 a5 c7 ff ff       	callq  90af <safe_div_func_uint64_t_u_u>
    c90a:	89 de                	mov    %ebx,%esi
    c90c:	89 c7                	mov    %eax,%edi
    c90e:	e8 12 c6 ff ff       	callq  8f25 <safe_div_func_uint32_t_u_u>
    c913:	0f b6 c0             	movzbl %al,%eax
    c916:	be 01 00 00 00       	mov    $0x1,%esi
    c91b:	89 c7                	mov    %eax,%edi
    c91d:	e8 e3 c2 ff ff       	callq  8c05 <safe_lshift_func_uint8_t_u_s>
    c922:	0f b6 c0             	movzbl %al,%eax
    c925:	8b 95 68 ed ff ff    	mov    -0x1298(%rbp),%edx
    c92b:	21 d0                	and    %edx,%eax
    c92d:	0f bf d0             	movswl %ax,%edx
    c930:	48 8b 05 c9 41 01 00 	mov    0x141c9(%rip),%rax        # 20b00 <g_772>
    c937:	48 8b 00             	mov    (%rax),%rax
    c93a:	48 8b 00             	mov    (%rax),%rax
    c93d:	0f b7 00             	movzwl (%rax),%eax
    c940:	98                   	cwtl   
    c941:	89 d6                	mov    %edx,%esi
    c943:	89 c7                	mov    %eax,%edi
    c945:	e8 ab ba ff ff       	callq  83f5 <safe_mul_func_int16_t_s_s>
    c94a:	66 85 c0             	test   %ax,%ax
    c94d:	75 11                	jne    c960 <func_1+0x31ab>
    c94f:	48 8b 05 92 48 01 00 	mov    0x14892(%rip),%rax        # 211e8 <g_2702>
    c956:	48 8b 00             	mov    (%rax),%rax
    c959:	48 8b 00             	mov    (%rax),%rax
    c95c:	8b 00                	mov    (%rax),%eax
    c95e:	85 c0                	test   %eax,%eax
    c960:	48 8b 05 09 44 01 00 	mov    0x14409(%rip),%rax        # 20d70 <g_959>
    c967:	48 8b 00             	mov    (%rax),%rax
    c96a:	48 8b 00             	mov    (%rax),%rax
    c96d:	48 8b 00             	mov    (%rax),%rax
    c970:	48 85 c0             	test   %rax,%rax
    c973:	0f 95 c0             	setne  %al
    c976:	0f b6 d0             	movzbl %al,%edx
    c979:	48 8b 05 88 41 01 00 	mov    0x14188(%rip),%rax        # 20b08 <g_793>
    c980:	0f b6 08             	movzbl (%rax),%ecx
    c983:	83 e9 01             	sub    $0x1,%ecx
    c986:	88 08                	mov    %cl,(%rax)
    c988:	0f b6 00             	movzbl (%rax),%eax
    c98b:	0f b6 c0             	movzbl %al,%eax
    c98e:	31 85 3c ed ff ff    	xor    %eax,-0x12c4(%rbp)
    c994:	8b 85 3c ed ff ff    	mov    -0x12c4(%rbp),%eax
    c99a:	0f b6 c0             	movzbl %al,%eax
    c99d:	89 d6                	mov    %edx,%esi
    c99f:	89 c7                	mov    %eax,%edi
    c9a1:	e8 18 c3 ff ff       	callq  8cbe <safe_rshift_func_uint8_t_u_u>
    c9a6:	0f b6 d0             	movzbl %al,%edx
    c9a9:	48 8b 85 10 ee ff ff 	mov    -0x11f0(%rbp),%rax
    c9b0:	8b 00                	mov    (%rax),%eax
    c9b2:	39 c2                	cmp    %eax,%edx
    c9b4:	0f 9d c0             	setge  %al
    c9b7:	89 c1                	mov    %eax,%ecx
    c9b9:	48 8b 85 10 ee ff ff 	mov    -0x11f0(%rbp),%rax
    c9c0:	8b 00                	mov    (%rax),%eax
    c9c2:	89 c2                	mov    %eax,%edx
    c9c4:	48 8b 05 d5 39 01 00 	mov    0x139d5(%rip),%rax        # 203a0 <g_104>
    c9cb:	09 ca                	or     %ecx,%edx
    c9cd:	88 10                	mov    %dl,(%rax)
    c9cf:	0f b6 00             	movzbl (%rax),%eax
    c9d2:	0f be d0             	movsbl %al,%edx
    c9d5:	48 8b 85 68 ee ff ff 	mov    -0x1198(%rbp),%rax
    c9dc:	0f be c0             	movsbl %al,%eax
    c9df:	89 d6                	mov    %edx,%esi
    c9e1:	89 c7                	mov    %eax,%edi
    c9e3:	e8 ec b7 ff ff       	callq  81d4 <safe_add_func_int8_t_s_s>
    c9e8:	88 85 1b ed ff ff    	mov    %al,-0x12e5(%rbp)
    c9ee:	48 8b 05 13 3e 01 00 	mov    0x13e13(%rip),%rax        # 20808 <g_538>
    c9f5:	48 8b 00             	mov    (%rax),%rax
    c9f8:	48 8b 00             	mov    (%rax),%rax
    c9fb:	eb 1c                	jmp    ca19 <func_1+0x3264>
    c9fd:	0f b6 05 94 0e 01 00 	movzbl 0x10e94(%rip),%eax        # 1d898 <g_147>
    ca04:	3c 08                	cmp    $0x8,%al
    ca06:	0f 86 fa d1 ff ff    	jbe    9c06 <func_1+0x451>
    ca0c:	48 8b 05 f5 3d 01 00 	mov    0x13df5(%rip),%rax        # 20808 <g_538>
    ca13:	48 8b 00             	mov    (%rax),%rax
    ca16:	48 8b 00             	mov    (%rax),%rax
    ca19:	48 8b 5d d8          	mov    -0x28(%rbp),%rbx
    ca1d:	64 48 33 1c 25 28 00 	xor    %fs:0x28,%rbx
    ca24:	00 00 
    ca26:	74 05                	je     ca2d <func_1+0x3278>
    ca28:	e8 43 b6 ff ff       	callq  8070 <__stack_chk_fail@plt>
    ca2d:	48 81 c4 d0 12 00 00 	add    $0x12d0,%rsp
    ca34:	5b                   	pop    %rbx
    ca35:	41 5c                	pop    %r12
    ca37:	41 5d                	pop    %r13
    ca39:	41 5e                	pop    %r14
    ca3b:	5d                   	pop    %rbp
    ca3c:	c3                   	retq   

000000000000ca3d <func_28>:
    ca3d:	f3 0f 1e fa          	endbr64 
    ca41:	55                   	push   %rbp
    ca42:	48 89 e5             	mov    %rsp,%rbp
    ca45:	53                   	push   %rbx
    ca46:	48 83 ec 68          	sub    $0x68,%rsp
    ca4a:	48 89 7d 98          	mov    %rdi,-0x68(%rbp)
    ca4e:	89 f0                	mov    %esi,%eax
    ca50:	66 89 45 94          	mov    %ax,-0x6c(%rbp)
    ca54:	64 48 8b 04 25 28 00 	mov    %fs:0x28,%rax
    ca5b:	00 00 
    ca5d:	48 89 45 e8          	mov    %rax,-0x18(%rbp)
    ca61:	31 c0                	xor    %eax,%eax
    ca63:	48 8d 05 fe 05 01 00 	lea    0x105fe(%rip),%rax        # 1d068 <g_44>
    ca6a:	48 89 45 a8          	mov    %rax,-0x58(%rbp)
    ca6e:	c7 45 a4 8a c1 f1 a1 	movl   $0xa1f1c18a,-0x5c(%rbp)
    ca75:	48 b8 50 09 26 3c 7b 	movabs $0x4b11907b3c260950,%rax
    ca7c:	90 11 4b 
    ca7f:	48 89 45 b0          	mov    %rax,-0x50(%rbp)
    ca83:	48 8d 05 66 20 01 00 	lea    0x12066(%rip),%rax        # 1eaf0 <g_3144>
    ca8a:	48 89 45 b8          	mov    %rax,-0x48(%rbp)
    ca8e:	c7 45 a0 00 00 00 00 	movl   $0x0,-0x60(%rbp)
    ca95:	eb 11                	jmp    caa8 <func_28+0x6b>
    ca97:	8b 45 a0             	mov    -0x60(%rbp),%eax
    ca9a:	48 98                	cltq   
    ca9c:	c7 44 85 c0 00 00 00 	movl   $0x0,-0x40(%rbp,%rax,4)
    caa3:	00 
    caa4:	83 45 a0 01          	addl   $0x1,-0x60(%rbp)
    caa8:	83 7d a0 09          	cmpl   $0x9,-0x60(%rbp)
    caac:	7e e9                	jle    ca97 <func_28+0x5a>
    caae:	48 8b 45 b0          	mov    -0x50(%rbp),%rax
    cab2:	0f bf d8             	movswl %ax,%ebx
    cab5:	0f b7 45 94          	movzwl -0x6c(%rbp),%eax
    cab9:	48 89 05 b0 05 01 00 	mov    %rax,0x105b0(%rip)        # 1d070 <g_47>
    cac0:	48 8b 05 a9 05 01 00 	mov    0x105a9(%rip),%rax        # 1d070 <g_47>
    cac7:	48 85 c0             	test   %rax,%rax
    caca:	74 12                	je     cade <func_28+0xa1>
    cacc:	8b 45 a4             	mov    -0x5c(%rbp),%eax
    cacf:	48 8d 35 92 05 01 00 	lea    0x10592(%rip),%rsi        # 1d068 <g_44>
    cad6:	89 c7                	mov    %eax,%edi
    cad8:	e8 26 01 00 00       	callq  cc03 <func_48>
    cadd:	90                   	nop
    cade:	be 01 00 00 00       	mov    $0x1,%esi
    cae3:	bf 00 00 00 00       	mov    $0x0,%edi
    cae8:	e8 38 c4 ff ff       	callq  8f25 <safe_div_func_uint32_t_u_u>
    caed:	8b 55 d8             	mov    -0x28(%rbp),%edx
    caf0:	0f b7 45 94          	movzwl -0x6c(%rbp),%eax
    caf4:	21 d0                	and    %edx,%eax
    caf6:	89 45 a4             	mov    %eax,-0x5c(%rbp)
    caf9:	8b 4d a4             	mov    -0x5c(%rbp),%ecx
    cafc:	48 83 7d a8 00       	cmpq   $0x0,-0x58(%rbp)
    cb01:	0f 95 c0             	setne  %al
    cb04:	0f b6 c0             	movzbl %al,%eax
    cb07:	48 8b 55 a8          	mov    -0x58(%rbp),%rdx
    cb0b:	89 ce                	mov    %ecx,%esi
    cb0d:	89 c7                	mov    %eax,%edi
    cb0f:	e8 40 00 00 00       	callq  cb54 <func_39>
    cb14:	89 de                	mov    %ebx,%esi
    cb16:	bf 01 00 00 00       	mov    $0x1,%edi
    cb1b:	e8 f6 b8 ff ff       	callq  8416 <safe_mod_func_int16_t_s_s>
    cb20:	ba ff ff ff ff       	mov    $0xffffffff,%edx
    cb25:	48 8b 45 b8          	mov    -0x48(%rbp),%rax
    cb29:	8b 00                	mov    (%rax),%eax
    cb2b:	21 c2                	and    %eax,%edx
    cb2d:	48 8b 45 b8          	mov    -0x48(%rbp),%rax
    cb31:	89 10                	mov    %edx,(%rax)
    cb33:	48 8b 45 b8          	mov    -0x48(%rbp),%rax
    cb37:	8b 00                	mov    (%rax),%eax
    cb39:	48 8b 4d e8          	mov    -0x18(%rbp),%rcx
    cb3d:	64 48 33 0c 25 28 00 	xor    %fs:0x28,%rcx
    cb44:	00 00 
    cb46:	74 05                	je     cb4d <func_28+0x110>
    cb48:	e8 23 b5 ff ff       	callq  8070 <__stack_chk_fail@plt>
    cb4d:	48 83 c4 68          	add    $0x68,%rsp
    cb51:	5b                   	pop    %rbx
    cb52:	5d                   	pop    %rbp
    cb53:	c3                   	retq   

000000000000cb54 <func_39>:
    cb54:	f3 0f 1e fa          	endbr64 
    cb58:	55                   	push   %rbp
    cb59:	48 89 e5             	mov    %rsp,%rbp
    cb5c:	48 83 c4 80          	add    $0xffffffffffffff80,%rsp
    cb60:	89 7d 8c             	mov    %edi,-0x74(%rbp)
    cb63:	89 75 88             	mov    %esi,-0x78(%rbp)
    cb66:	48 89 55 80          	mov    %rdx,-0x80(%rbp)
    cb6a:	64 48 8b 04 25 28 00 	mov    %fs:0x28,%rax
    cb71:	00 00 
    cb73:	48 89 45 f8          	mov    %rax,-0x8(%rbp)
    cb77:	31 c0                	xor    %eax,%eax
    cb79:	48 8d 05 d0 4c 01 00 	lea    0x14cd0(%rip),%rax        # 21850 <g_149>
    cb80:	48 89 45 98          	mov    %rax,-0x68(%rbp)
    cb84:	48 8d 05 35 1f 01 00 	lea    0x11f35(%rip),%rax        # 1eac0 <g_2720>
    cb8b:	48 89 45 a0          	mov    %rax,-0x60(%rbp)
    cb8f:	c7 45 94 c6 a0 7b 06 	movl   $0x67ba0c6,-0x6c(%rbp)
    cb96:	48 b8 49 48 37 96 37 	movabs $0x99ead53796374849,%rax
    cb9d:	d5 ea 99 
    cba0:	48 89 45 a8          	mov    %rax,-0x58(%rbp)
    cba4:	c7 45 90 00 00 00 00 	movl   $0x0,-0x70(%rbp)
    cbab:	eb 12                	jmp    cbbf <func_39+0x6b>
    cbad:	8b 45 90             	mov    -0x70(%rbp),%eax
    cbb0:	48 98                	cltq   
    cbb2:	48 c7 44 c5 b0 00 00 	movq   $0x0,-0x50(%rbp,%rax,8)
    cbb9:	00 00 
    cbbb:	83 45 90 01          	addl   $0x1,-0x70(%rbp)
    cbbf:	83 7d 90 07          	cmpl   $0x7,-0x70(%rbp)
    cbc3:	7e e8                	jle    cbad <func_39+0x59>
    cbc5:	c6 05 d4 16 01 00 00 	movb   $0x0,0x116d4(%rip)        # 1e2a0 <g_450>
    cbcc:	90                   	nop
    cbcd:	0f b6 05 cc 16 01 00 	movzbl 0x116cc(%rip),%eax        # 1e2a0 <g_450>
    cbd4:	3c 08                	cmp    $0x8,%al
    cbd6:	74 09                	je     cbe1 <func_39+0x8d>
    cbd8:	48 8b 45 80          	mov    -0x80(%rbp),%rax
    cbdc:	0f b7 00             	movzwl (%rax),%eax
    cbdf:	eb 0c                	jmp    cbed <func_39+0x99>
    cbe1:	48 83 6d a8 01       	subq   $0x1,-0x58(%rbp)
    cbe6:	48 8b 45 80          	mov    -0x80(%rbp),%rax
    cbea:	0f b7 00             	movzwl (%rax),%eax
    cbed:	48 8b 4d f8          	mov    -0x8(%rbp),%rcx
    cbf1:	64 48 33 0c 25 28 00 	xor    %fs:0x28,%rcx
    cbf8:	00 00 
    cbfa:	74 05                	je     cc01 <func_39+0xad>
    cbfc:	e8 6f b4 ff ff       	callq  8070 <__stack_chk_fail@plt>
    cc01:	c9                   	leaveq 
    cc02:	c3                   	retq   

000000000000cc03 <func_48>:
    cc03:	f3 0f 1e fa          	endbr64 
    cc07:	55                   	push   %rbp
    cc08:	48 89 e5             	mov    %rsp,%rbp
    cc0b:	41 57                	push   %r15
    cc0d:	41 56                	push   %r14
    cc0f:	41 55                	push   %r13
    cc11:	41 54                	push   %r12
    cc13:	53                   	push   %rbx
    cc14:	48 81 ec 00 10 00 00 	sub    $0x1000,%rsp
    cc1b:	48 83 0c 24 00       	orq    $0x0,(%rsp)
    cc20:	48 81 ec 38 04 00 00 	sub    $0x438,%rsp
    cc27:	89 bd ac eb ff ff    	mov    %edi,-0x1454(%rbp)
    cc2d:	48 89 b5 a0 eb ff ff 	mov    %rsi,-0x1460(%rbp)
    cc34:	64 48 8b 04 25 28 00 	mov    %fs:0x28,%rax
    cc3b:	00 00 
    cc3d:	48 89 45 c8          	mov    %rax,-0x38(%rbp)
    cc41:	31 c0                	xor    %eax,%eax
    cc43:	c7 85 20 ee ff ff ff 	movl   $0xf5af01ff,-0x11e0(%rbp)
    cc4a:	01 af f5 
    cc4d:	c7 85 24 ee ff ff ff 	movl   $0x4dff,-0x11dc(%rbp)
    cc54:	4d 00 00 
    cc57:	c7 85 28 ee ff ff f5 	movl   $0x9900f5f5,-0x11d8(%rbp)
    cc5e:	f5 00 99 
    cc61:	c7 85 2c ee ff ff ff 	movl   $0xd41000ff,-0x11d4(%rbp)
    cc68:	00 10 d4 
    cc6b:	c7 85 30 ee ff ff 00 	movl   $0x1001f600,-0x11d0(%rbp)
    cc72:	f6 01 10 
    cc75:	c7 85 34 ee ff ff 10 	movl   $0xd4f5f610,-0x11cc(%rbp)
    cc7c:	f6 f5 d4 
    cc7f:	c7 85 38 ee ff ff f6 	movl   $0x99f600f6,-0x11c8(%rbp)
    cc86:	00 f6 99 
    cc89:	c7 85 3c ee ff ff 4d 	movl   $0xfff54d,-0x11c4(%rbp)
    cc90:	f5 ff 00 
    cc93:	c7 85 40 ee ff ff 47 	movl   $0xf5994d47,-0x11c0(%rbp)
    cc9a:	4d 99 f5 
    cc9d:	c7 85 44 ee ff ff d4 	movl   $0xaf9901d4,-0x11bc(%rbp)
    cca4:	01 99 af 
    cca7:	c7 85 48 ee ff ff 47 	movl   $0x47ffff47,-0x11b8(%rbp)
    ccae:	ff ff 47 
    ccb1:	c7 85 4c ee ff ff 4d 	movl   $0x5cf6d44d,-0x11b4(%rbp)
    ccb8:	d4 f6 5c 
    ccbb:	c7 85 50 ee ff ff f6 	movl   $0x1f55cf6,-0x11b0(%rbp)
    ccc2:	5c f5 01 
    ccc5:	c7 85 54 ee ff ff 10 	movl   $0x101ff10,-0x11ac(%rbp)
    cccc:	ff 01 01 
    cccf:	48 8d 05 ca 36 01 00 	lea    0x136ca(%rip),%rax        # 203a0 <g_104>
    ccd6:	48 89 85 10 ec ff ff 	mov    %rax,-0x13f0(%rbp)
    ccdd:	48 8d 85 10 ec ff ff 	lea    -0x13f0(%rbp),%rax
    cce4:	48 89 85 18 ec ff ff 	mov    %rax,-0x13e8(%rbp)
    cceb:	c7 85 bc eb ff ff 03 	movl   $0x3,-0x1444(%rbp)
    ccf2:	00 00 00 
    ccf5:	48 8d 05 d4 1d 01 00 	lea    0x11dd4(%rip),%rax        # 1ead0 <g_2832>
    ccfc:	48 89 85 78 ec ff ff 	mov    %rax,-0x1388(%rbp)
    cd03:	48 8d 85 60 f6 ff ff 	lea    -0x9a0(%rbp),%rax
    cd0a:	48 8d 15 2f b6 00 00 	lea    0xb62f(%rip),%rdx        # 18340 <g_3221+0x228>
    cd11:	b9 78 00 00 00       	mov    $0x78,%ecx
    cd16:	48 89 c7             	mov    %rax,%rdi
    cd19:	48 89 d6             	mov    %rdx,%rsi
    cd1c:	f3 48 a5             	rep movsq %ds:(%rsi),%es:(%rdi)
    cd1f:	48 8d 85 a0 ed ff ff 	lea    -0x1260(%rbp),%rax
    cd26:	48 89 85 b0 ee ff ff 	mov    %rax,-0x1150(%rbp)
    cd2d:	48 8d 85 a0 ed ff ff 	lea    -0x1260(%rbp),%rax
    cd34:	48 83 c0 08          	add    $0x8,%rax
    cd38:	48 89 85 b8 ee ff ff 	mov    %rax,-0x1148(%rbp)
    cd3f:	48 8d 85 a0 ed ff ff 	lea    -0x1260(%rbp),%rax
    cd46:	48 89 85 c0 ee ff ff 	mov    %rax,-0x1140(%rbp)
    cd4d:	48 8d 85 a0 ed ff ff 	lea    -0x1260(%rbp),%rax
    cd54:	48 83 c0 08          	add    $0x8,%rax
    cd58:	48 89 85 c8 ee ff ff 	mov    %rax,-0x1138(%rbp)
    cd5f:	48 8d 85 a0 ed ff ff 	lea    -0x1260(%rbp),%rax
    cd66:	48 89 85 d0 ee ff ff 	mov    %rax,-0x1130(%rbp)
    cd6d:	48 8d 85 a0 ed ff ff 	lea    -0x1260(%rbp),%rax
    cd74:	48 83 c0 08          	add    $0x8,%rax
    cd78:	48 89 85 d8 ee ff ff 	mov    %rax,-0x1128(%rbp)
    cd7f:	48 8d 85 a0 ed ff ff 	lea    -0x1260(%rbp),%rax
    cd86:	48 89 85 e0 ee ff ff 	mov    %rax,-0x1120(%rbp)
    cd8d:	48 8d 85 a0 ed ff ff 	lea    -0x1260(%rbp),%rax
    cd94:	48 83 c0 08          	add    $0x8,%rax
    cd98:	48 89 85 e8 ee ff ff 	mov    %rax,-0x1118(%rbp)
    cd9f:	48 8d 85 a0 ed ff ff 	lea    -0x1260(%rbp),%rax
    cda6:	48 89 85 f0 ee ff ff 	mov    %rax,-0x1110(%rbp)
    cdad:	48 8d 85 a0 ed ff ff 	lea    -0x1260(%rbp),%rax
    cdb4:	48 83 c0 08          	add    $0x8,%rax
    cdb8:	48 89 85 f8 ee ff ff 	mov    %rax,-0x1108(%rbp)
    cdbf:	48 8d 85 a0 ed ff ff 	lea    -0x1260(%rbp),%rax
    cdc6:	48 89 85 00 ef ff ff 	mov    %rax,-0x1100(%rbp)
    cdcd:	48 8d 85 a0 ed ff ff 	lea    -0x1260(%rbp),%rax
    cdd4:	48 83 c0 08          	add    $0x8,%rax
    cdd8:	48 89 85 08 ef ff ff 	mov    %rax,-0x10f8(%rbp)
    cddf:	48 8d 85 a0 ed ff ff 	lea    -0x1260(%rbp),%rax
    cde6:	48 89 85 10 ef ff ff 	mov    %rax,-0x10f0(%rbp)
    cded:	48 8d 85 a0 ed ff ff 	lea    -0x1260(%rbp),%rax
    cdf4:	48 83 c0 08          	add    $0x8,%rax
    cdf8:	48 89 85 18 ef ff ff 	mov    %rax,-0x10e8(%rbp)
    cdff:	48 8d 85 a0 ed ff ff 	lea    -0x1260(%rbp),%rax
    ce06:	48 89 85 20 ef ff ff 	mov    %rax,-0x10e0(%rbp)
    ce0d:	48 8d 85 a0 ed ff ff 	lea    -0x1260(%rbp),%rax
    ce14:	48 83 c0 08          	add    $0x8,%rax
    ce18:	48 89 85 28 ef ff ff 	mov    %rax,-0x10d8(%rbp)
    ce1f:	48 8d 85 20 f4 ff ff 	lea    -0xbe0(%rbp),%rax
    ce26:	48 8d 15 53 22 01 00 	lea    0x12253(%rip),%rdx        # 1f080 <g_3508+0x508>
    ce2d:	b9 48 00 00 00       	mov    $0x48,%ecx
    ce32:	48 89 c7             	mov    %rax,%rdi
    ce35:	48 89 d6             	mov    %rdx,%rsi
    ce38:	f3 48 a5             	rep movsq %ds:(%rsi),%es:(%rdi)
    ce3b:	48 8d 85 20 f4 ff ff 	lea    -0xbe0(%rbp),%rax
    ce42:	48 05 b8 01 00 00    	add    $0x1b8,%rax
    ce48:	48 89 85 70 ec ff ff 	mov    %rax,-0x1390(%rbp)
    ce4f:	48 8d 85 20 f4 ff ff 	lea    -0xbe0(%rbp),%rax
    ce56:	48 05 b8 01 00 00    	add    $0x1b8,%rax
    ce5c:	48 89 85 20 f0 ff ff 	mov    %rax,-0xfe0(%rbp)
    ce63:	48 c7 85 28 f0 ff ff 	movq   $0x0,-0xfd8(%rbp)
    ce6a:	00 00 00 00 
    ce6e:	48 8d 85 20 f4 ff ff 	lea    -0xbe0(%rbp),%rax
    ce75:	48 05 b8 01 00 00    	add    $0x1b8,%rax
    ce7b:	48 89 85 30 f0 ff ff 	mov    %rax,-0xfd0(%rbp)
    ce82:	48 8d 85 20 f4 ff ff 	lea    -0xbe0(%rbp),%rax
    ce89:	48 05 b8 01 00 00    	add    $0x1b8,%rax
    ce8f:	48 89 85 38 f0 ff ff 	mov    %rax,-0xfc8(%rbp)
    ce96:	48 8d 85 20 f4 ff ff 	lea    -0xbe0(%rbp),%rax
    ce9d:	48 05 28 02 00 00    	add    $0x228,%rax
    cea3:	48 89 85 40 f0 ff ff 	mov    %rax,-0xfc0(%rbp)
    ceaa:	48 8d 85 20 f4 ff ff 	lea    -0xbe0(%rbp),%rax
    ceb1:	48 05 b8 01 00 00    	add    $0x1b8,%rax
    ceb7:	48 89 85 48 f0 ff ff 	mov    %rax,-0xfb8(%rbp)
    cebe:	48 8d 85 20 f4 ff ff 	lea    -0xbe0(%rbp),%rax
    cec5:	48 05 b8 01 00 00    	add    $0x1b8,%rax
    cecb:	48 89 85 50 f0 ff ff 	mov    %rax,-0xfb0(%rbp)
    ced2:	48 c7 85 58 f0 ff ff 	movq   $0x0,-0xfa8(%rbp)
    ced9:	00 00 00 00 
    cedd:	48 8d 85 20 f4 ff ff 	lea    -0xbe0(%rbp),%rax
    cee4:	48 05 b8 01 00 00    	add    $0x1b8,%rax
    ceea:	48 89 85 60 f0 ff ff 	mov    %rax,-0xfa0(%rbp)
    cef1:	48 8d 05 08 43 01 00 	lea    0x14308(%rip),%rax        # 21200 <g_2988>
    cef8:	48 89 85 68 f0 ff ff 	mov    %rax,-0xf98(%rbp)
    ceff:	48 8d 05 fa 42 01 00 	lea    0x142fa(%rip),%rax        # 21200 <g_2988>
    cf06:	48 89 85 70 f0 ff ff 	mov    %rax,-0xf90(%rbp)
    cf0d:	48 8d 05 ec 42 01 00 	lea    0x142ec(%rip),%rax        # 21200 <g_2988>
    cf14:	48 89 85 78 f0 ff ff 	mov    %rax,-0xf88(%rbp)
    cf1b:	48 8d 05 de 42 01 00 	lea    0x142de(%rip),%rax        # 21200 <g_2988>
    cf22:	48 89 85 80 f0 ff ff 	mov    %rax,-0xf80(%rbp)
    cf29:	48 8d 05 d0 42 01 00 	lea    0x142d0(%rip),%rax        # 21200 <g_2988>
    cf30:	48 89 85 88 f0 ff ff 	mov    %rax,-0xf78(%rbp)
    cf37:	48 8d 05 c2 42 01 00 	lea    0x142c2(%rip),%rax        # 21200 <g_2988>
    cf3e:	48 89 85 90 f0 ff ff 	mov    %rax,-0xf70(%rbp)
    cf45:	48 8d 05 b4 42 01 00 	lea    0x142b4(%rip),%rax        # 21200 <g_2988>
    cf4c:	48 89 85 98 f0 ff ff 	mov    %rax,-0xf68(%rbp)
    cf53:	48 8d 05 a6 42 01 00 	lea    0x142a6(%rip),%rax        # 21200 <g_2988>
    cf5a:	48 89 85 a0 f0 ff ff 	mov    %rax,-0xf60(%rbp)
    cf61:	48 8d 05 98 42 01 00 	lea    0x14298(%rip),%rax        # 21200 <g_2988>
    cf68:	48 89 85 a8 f0 ff ff 	mov    %rax,-0xf58(%rbp)
    cf6f:	48 8d 85 20 f4 ff ff 	lea    -0xbe0(%rbp),%rax
    cf76:	48 05 b8 01 00 00    	add    $0x1b8,%rax
    cf7c:	48 89 85 b0 f0 ff ff 	mov    %rax,-0xf50(%rbp)
    cf83:	48 c7 85 b8 f0 ff ff 	movq   $0x0,-0xf48(%rbp)
    cf8a:	00 00 00 00 
    cf8e:	48 8d 85 20 f4 ff ff 	lea    -0xbe0(%rbp),%rax
    cf95:	48 05 b8 01 00 00    	add    $0x1b8,%rax
    cf9b:	48 89 85 c0 f0 ff ff 	mov    %rax,-0xf40(%rbp)
    cfa2:	48 8d 85 20 f4 ff ff 	lea    -0xbe0(%rbp),%rax
    cfa9:	48 05 b8 01 00 00    	add    $0x1b8,%rax
    cfaf:	48 89 85 c8 f0 ff ff 	mov    %rax,-0xf38(%rbp)
    cfb6:	48 8d 85 20 f4 ff ff 	lea    -0xbe0(%rbp),%rax
    cfbd:	48 05 28 02 00 00    	add    $0x228,%rax
    cfc3:	48 89 85 d0 f0 ff ff 	mov    %rax,-0xf30(%rbp)
    cfca:	48 8d 85 20 f4 ff ff 	lea    -0xbe0(%rbp),%rax
    cfd1:	48 05 b8 01 00 00    	add    $0x1b8,%rax
    cfd7:	48 89 85 d8 f0 ff ff 	mov    %rax,-0xf28(%rbp)
    cfde:	48 8d 85 20 f4 ff ff 	lea    -0xbe0(%rbp),%rax
    cfe5:	48 05 b8 01 00 00    	add    $0x1b8,%rax
    cfeb:	48 89 85 e0 f0 ff ff 	mov    %rax,-0xf20(%rbp)
    cff2:	48 c7 85 e8 f0 ff ff 	movq   $0x0,-0xf18(%rbp)
    cff9:	00 00 00 00 
    cffd:	48 8d 85 20 f4 ff ff 	lea    -0xbe0(%rbp),%rax
    d004:	48 05 b8 01 00 00    	add    $0x1b8,%rax
    d00a:	48 89 85 f0 f0 ff ff 	mov    %rax,-0xf10(%rbp)
    d011:	48 8d 05 e8 41 01 00 	lea    0x141e8(%rip),%rax        # 21200 <g_2988>
    d018:	48 89 85 f8 f0 ff ff 	mov    %rax,-0xf08(%rbp)
    d01f:	48 8d 05 da 41 01 00 	lea    0x141da(%rip),%rax        # 21200 <g_2988>
    d026:	48 89 85 00 f1 ff ff 	mov    %rax,-0xf00(%rbp)
    d02d:	48 8d 05 cc 41 01 00 	lea    0x141cc(%rip),%rax        # 21200 <g_2988>
    d034:	48 89 85 08 f1 ff ff 	mov    %rax,-0xef8(%rbp)
    d03b:	48 8d 05 be 41 01 00 	lea    0x141be(%rip),%rax        # 21200 <g_2988>
    d042:	48 89 85 10 f1 ff ff 	mov    %rax,-0xef0(%rbp)
    d049:	48 8d 05 b0 41 01 00 	lea    0x141b0(%rip),%rax        # 21200 <g_2988>
    d050:	48 89 85 18 f1 ff ff 	mov    %rax,-0xee8(%rbp)
    d057:	48 8d 05 a2 41 01 00 	lea    0x141a2(%rip),%rax        # 21200 <g_2988>
    d05e:	48 89 85 20 f1 ff ff 	mov    %rax,-0xee0(%rbp)
    d065:	48 8d 05 94 41 01 00 	lea    0x14194(%rip),%rax        # 21200 <g_2988>
    d06c:	48 89 85 28 f1 ff ff 	mov    %rax,-0xed8(%rbp)
    d073:	48 8d 05 86 41 01 00 	lea    0x14186(%rip),%rax        # 21200 <g_2988>
    d07a:	48 89 85 30 f1 ff ff 	mov    %rax,-0xed0(%rbp)
    d081:	48 8d 05 78 41 01 00 	lea    0x14178(%rip),%rax        # 21200 <g_2988>
    d088:	48 89 85 38 f1 ff ff 	mov    %rax,-0xec8(%rbp)
    d08f:	48 8d 85 20 f4 ff ff 	lea    -0xbe0(%rbp),%rax
    d096:	48 05 b8 01 00 00    	add    $0x1b8,%rax
    d09c:	48 89 85 40 f1 ff ff 	mov    %rax,-0xec0(%rbp)
    d0a3:	48 c7 85 48 f1 ff ff 	movq   $0x0,-0xeb8(%rbp)
    d0aa:	00 00 00 00 
    d0ae:	48 8d 85 20 f4 ff ff 	lea    -0xbe0(%rbp),%rax
    d0b5:	48 05 b8 01 00 00    	add    $0x1b8,%rax
    d0bb:	48 89 85 50 f1 ff ff 	mov    %rax,-0xeb0(%rbp)
    d0c2:	48 8d 85 20 f4 ff ff 	lea    -0xbe0(%rbp),%rax
    d0c9:	48 05 b8 01 00 00    	add    $0x1b8,%rax
    d0cf:	48 89 85 58 f1 ff ff 	mov    %rax,-0xea8(%rbp)
    d0d6:	48 8d 85 20 f4 ff ff 	lea    -0xbe0(%rbp),%rax
    d0dd:	48 05 28 02 00 00    	add    $0x228,%rax
    d0e3:	48 89 85 60 f1 ff ff 	mov    %rax,-0xea0(%rbp)
    d0ea:	48 8d 85 20 f4 ff ff 	lea    -0xbe0(%rbp),%rax
    d0f1:	48 05 b8 01 00 00    	add    $0x1b8,%rax
    d0f7:	48 89 85 68 f1 ff ff 	mov    %rax,-0xe98(%rbp)
    d0fe:	48 8d 85 20 f4 ff ff 	lea    -0xbe0(%rbp),%rax
    d105:	48 05 b8 01 00 00    	add    $0x1b8,%rax
    d10b:	48 89 85 70 f1 ff ff 	mov    %rax,-0xe90(%rbp)
    d112:	48 c7 85 78 f1 ff ff 	movq   $0x0,-0xe88(%rbp)
    d119:	00 00 00 00 
    d11d:	48 8d 85 20 f4 ff ff 	lea    -0xbe0(%rbp),%rax
    d124:	48 05 b8 01 00 00    	add    $0x1b8,%rax
    d12a:	48 89 85 80 f1 ff ff 	mov    %rax,-0xe80(%rbp)
    d131:	48 8d 05 c8 40 01 00 	lea    0x140c8(%rip),%rax        # 21200 <g_2988>
    d138:	48 89 85 88 f1 ff ff 	mov    %rax,-0xe78(%rbp)
    d13f:	48 8d 05 ba 40 01 00 	lea    0x140ba(%rip),%rax        # 21200 <g_2988>
    d146:	48 89 85 90 f1 ff ff 	mov    %rax,-0xe70(%rbp)
    d14d:	48 8d 05 ac 40 01 00 	lea    0x140ac(%rip),%rax        # 21200 <g_2988>
    d154:	48 89 85 98 f1 ff ff 	mov    %rax,-0xe68(%rbp)
    d15b:	48 8d 05 9e 40 01 00 	lea    0x1409e(%rip),%rax        # 21200 <g_2988>
    d162:	48 89 85 a0 f1 ff ff 	mov    %rax,-0xe60(%rbp)
    d169:	48 8d 05 90 40 01 00 	lea    0x14090(%rip),%rax        # 21200 <g_2988>
    d170:	48 89 85 a8 f1 ff ff 	mov    %rax,-0xe58(%rbp)
    d177:	48 8d 05 82 40 01 00 	lea    0x14082(%rip),%rax        # 21200 <g_2988>
    d17e:	48 89 85 b0 f1 ff ff 	mov    %rax,-0xe50(%rbp)
    d185:	48 8d 05 74 40 01 00 	lea    0x14074(%rip),%rax        # 21200 <g_2988>
    d18c:	48 89 85 b8 f1 ff ff 	mov    %rax,-0xe48(%rbp)
    d193:	48 8d 05 66 40 01 00 	lea    0x14066(%rip),%rax        # 21200 <g_2988>
    d19a:	48 89 85 c0 f1 ff ff 	mov    %rax,-0xe40(%rbp)
    d1a1:	48 8d 05 58 40 01 00 	lea    0x14058(%rip),%rax        # 21200 <g_2988>
    d1a8:	48 89 85 c8 f1 ff ff 	mov    %rax,-0xe38(%rbp)
    d1af:	48 8d 85 20 f4 ff ff 	lea    -0xbe0(%rbp),%rax
    d1b6:	48 05 b8 01 00 00    	add    $0x1b8,%rax
    d1bc:	48 89 85 d0 f1 ff ff 	mov    %rax,-0xe30(%rbp)
    d1c3:	48 c7 85 d8 f1 ff ff 	movq   $0x0,-0xe28(%rbp)
    d1ca:	00 00 00 00 
    d1ce:	48 8d 85 20 f4 ff ff 	lea    -0xbe0(%rbp),%rax
    d1d5:	48 05 b8 01 00 00    	add    $0x1b8,%rax
    d1db:	48 89 85 e0 f1 ff ff 	mov    %rax,-0xe20(%rbp)
    d1e2:	48 8d 85 20 f4 ff ff 	lea    -0xbe0(%rbp),%rax
    d1e9:	48 05 b8 01 00 00    	add    $0x1b8,%rax
    d1ef:	48 89 85 e8 f1 ff ff 	mov    %rax,-0xe18(%rbp)
    d1f6:	48 8d 85 20 f4 ff ff 	lea    -0xbe0(%rbp),%rax
    d1fd:	48 05 28 02 00 00    	add    $0x228,%rax
    d203:	48 89 85 f0 f1 ff ff 	mov    %rax,-0xe10(%rbp)
    d20a:	48 8d 85 20 f4 ff ff 	lea    -0xbe0(%rbp),%rax
    d211:	48 05 b8 01 00 00    	add    $0x1b8,%rax
    d217:	48 89 85 f8 f1 ff ff 	mov    %rax,-0xe08(%rbp)
    d21e:	48 8d 85 20 f4 ff ff 	lea    -0xbe0(%rbp),%rax
    d225:	48 05 b8 01 00 00    	add    $0x1b8,%rax
    d22b:	48 89 85 00 f2 ff ff 	mov    %rax,-0xe00(%rbp)
    d232:	48 c7 85 08 f2 ff ff 	movq   $0x0,-0xdf8(%rbp)
    d239:	00 00 00 00 
    d23d:	48 8d 85 20 f4 ff ff 	lea    -0xbe0(%rbp),%rax
    d244:	48 05 b8 01 00 00    	add    $0x1b8,%rax
    d24a:	48 89 85 10 f2 ff ff 	mov    %rax,-0xdf0(%rbp)
    d251:	48 8d 05 a8 3f 01 00 	lea    0x13fa8(%rip),%rax        # 21200 <g_2988>
    d258:	48 89 85 80 ec ff ff 	mov    %rax,-0x1380(%rbp)
    d25f:	48 8d 05 c2 3e 01 00 	lea    0x13ec2(%rip),%rax        # 21128 <g_2049+0x8>
    d266:	48 89 85 20 ec ff ff 	mov    %rax,-0x13e0(%rbp)
    d26d:	48 8d 85 20 ec ff ff 	lea    -0x13e0(%rbp),%rax
    d274:	48 89 85 28 ec ff ff 	mov    %rax,-0x13d8(%rbp)
    d27b:	48 8d 85 28 ec ff ff 	lea    -0x13d8(%rbp),%rax
    d282:	48 89 85 30 ef ff ff 	mov    %rax,-0x10d0(%rbp)
    d289:	48 8d 85 28 ec ff ff 	lea    -0x13d8(%rbp),%rax
    d290:	48 89 85 38 ef ff ff 	mov    %rax,-0x10c8(%rbp)
    d297:	48 8d 85 28 ec ff ff 	lea    -0x13d8(%rbp),%rax
    d29e:	48 89 85 40 ef ff ff 	mov    %rax,-0x10c0(%rbp)
    d2a5:	48 8d 85 28 ec ff ff 	lea    -0x13d8(%rbp),%rax
    d2ac:	48 89 85 48 ef ff ff 	mov    %rax,-0x10b8(%rbp)
    d2b3:	48 8d 85 28 ec ff ff 	lea    -0x13d8(%rbp),%rax
    d2ba:	48 89 85 50 ef ff ff 	mov    %rax,-0x10b0(%rbp)
    d2c1:	48 8d 85 28 ec ff ff 	lea    -0x13d8(%rbp),%rax
    d2c8:	48 89 85 58 ef ff ff 	mov    %rax,-0x10a8(%rbp)
    d2cf:	48 8d 85 28 ec ff ff 	lea    -0x13d8(%rbp),%rax
    d2d6:	48 89 85 60 ef ff ff 	mov    %rax,-0x10a0(%rbp)
    d2dd:	48 8d 85 28 ec ff ff 	lea    -0x13d8(%rbp),%rax
    d2e4:	48 89 85 68 ef ff ff 	mov    %rax,-0x1098(%rbp)
    d2eb:	48 8d 85 28 ec ff ff 	lea    -0x13d8(%rbp),%rax
    d2f2:	48 89 85 70 ef ff ff 	mov    %rax,-0x1090(%rbp)
    d2f9:	48 8d 85 28 ec ff ff 	lea    -0x13d8(%rbp),%rax
    d300:	48 89 85 78 ef ff ff 	mov    %rax,-0x1088(%rbp)
    d307:	48 8d 85 28 ec ff ff 	lea    -0x13d8(%rbp),%rax
    d30e:	48 89 85 80 ef ff ff 	mov    %rax,-0x1080(%rbp)
    d315:	48 8d 85 28 ec ff ff 	lea    -0x13d8(%rbp),%rax
    d31c:	48 89 85 88 ef ff ff 	mov    %rax,-0x1078(%rbp)
    d323:	48 8d 85 28 ec ff ff 	lea    -0x13d8(%rbp),%rax
    d32a:	48 89 85 90 ef ff ff 	mov    %rax,-0x1070(%rbp)
    d331:	48 8d 85 28 ec ff ff 	lea    -0x13d8(%rbp),%rax
    d338:	48 89 85 98 ef ff ff 	mov    %rax,-0x1068(%rbp)
    d33f:	48 8d 85 28 ec ff ff 	lea    -0x13d8(%rbp),%rax
    d346:	48 89 85 a0 ef ff ff 	mov    %rax,-0x1060(%rbp)
    d34d:	48 8d 85 28 ec ff ff 	lea    -0x13d8(%rbp),%rax
    d354:	48 89 85 a8 ef ff ff 	mov    %rax,-0x1058(%rbp)
    d35b:	48 8d 85 28 ec ff ff 	lea    -0x13d8(%rbp),%rax
    d362:	48 89 85 b0 ef ff ff 	mov    %rax,-0x1050(%rbp)
    d369:	48 8d 85 28 ec ff ff 	lea    -0x13d8(%rbp),%rax
    d370:	48 89 85 b8 ef ff ff 	mov    %rax,-0x1048(%rbp)
    d377:	48 8d 85 28 ec ff ff 	lea    -0x13d8(%rbp),%rax
    d37e:	48 89 85 c0 ef ff ff 	mov    %rax,-0x1040(%rbp)
    d385:	48 8d 85 28 ec ff ff 	lea    -0x13d8(%rbp),%rax
    d38c:	48 89 85 c8 ef ff ff 	mov    %rax,-0x1038(%rbp)
    d393:	48 8d 85 28 ec ff ff 	lea    -0x13d8(%rbp),%rax
    d39a:	48 89 85 d0 ef ff ff 	mov    %rax,-0x1030(%rbp)
    d3a1:	48 8d 85 28 ec ff ff 	lea    -0x13d8(%rbp),%rax
    d3a8:	48 89 85 d8 ef ff ff 	mov    %rax,-0x1028(%rbp)
    d3af:	48 8d 85 28 ec ff ff 	lea    -0x13d8(%rbp),%rax
    d3b6:	48 89 85 e0 ef ff ff 	mov    %rax,-0x1020(%rbp)
    d3bd:	48 8d 85 28 ec ff ff 	lea    -0x13d8(%rbp),%rax
    d3c4:	48 89 85 e8 ef ff ff 	mov    %rax,-0x1018(%rbp)
    d3cb:	48 8d 85 28 ec ff ff 	lea    -0x13d8(%rbp),%rax
    d3d2:	48 89 85 f0 ef ff ff 	mov    %rax,-0x1010(%rbp)
    d3d9:	48 8d 85 28 ec ff ff 	lea    -0x13d8(%rbp),%rax
    d3e0:	48 89 85 f8 ef ff ff 	mov    %rax,-0x1008(%rbp)
    d3e7:	48 8d 85 28 ec ff ff 	lea    -0x13d8(%rbp),%rax
    d3ee:	48 89 85 00 f0 ff ff 	mov    %rax,-0x1000(%rbp)
    d3f5:	48 8d 85 28 ec ff ff 	lea    -0x13d8(%rbp),%rax
    d3fc:	48 89 85 08 f0 ff ff 	mov    %rax,-0xff8(%rbp)
    d403:	48 8d 85 28 ec ff ff 	lea    -0x13d8(%rbp),%rax
    d40a:	48 89 85 10 f0 ff ff 	mov    %rax,-0xff0(%rbp)
    d411:	48 8d 85 28 ec ff ff 	lea    -0x13d8(%rbp),%rax
    d418:	48 89 85 18 f0 ff ff 	mov    %rax,-0xfe8(%rbp)
    d41f:	48 8d 05 a2 2f 01 00 	lea    0x12fa2(%rip),%rax        # 203c8 <g_356>
    d426:	48 89 85 88 ec ff ff 	mov    %rax,-0x1378(%rbp)
    d42d:	48 8d 05 6c 01 01 00 	lea    0x1016c(%rip),%rax        # 1d5a0 <g_90+0x500>
    d434:	48 89 85 90 ec ff ff 	mov    %rax,-0x1370(%rbp)
    d43b:	66 c7 85 00 ee ff ff 	movw   $0xdddd,-0x1200(%rbp)
    d442:	dd dd 
    d444:	c6 85 02 ee ff ff b6 	movb   $0xb6,-0x11fe(%rbp)
    d44b:	66 c7 85 03 ee ff ff 	movw   $0x8cff,-0x11fd(%rbp)
    d452:	ff 8c 
    d454:	c6 85 05 ee ff ff ff 	movb   $0xff,-0x11fb(%rbp)
    d45b:	66 c7 85 06 ee ff ff 	movw   $0xb6dd,-0x11fa(%rbp)
    d462:	dd b6 
    d464:	c6 85 08 ee ff ff b6 	movb   $0xb6,-0x11f8(%rbp)
    d46b:	66 c7 85 09 ee ff ff 	movw   $0x8cf9,-0x11f7(%rbp)
    d472:	f9 8c 
    d474:	c6 85 0b ee ff ff f9 	movb   $0xf9,-0x11f5(%rbp)
    d47b:	66 c7 85 0c ee ff ff 	movw   $0xdddd,-0x11f4(%rbp)
    d482:	dd dd 
    d484:	c6 85 0e ee ff ff b6 	movb   $0xb6,-0x11f2(%rbp)
    d48b:	66 c7 85 0f ee ff ff 	movw   $0x8cff,-0x11f1(%rbp)
    d492:	ff 8c 
    d494:	c6 85 11 ee ff ff ff 	movb   $0xff,-0x11ef(%rbp)
    d49b:	66 c7 85 12 ee ff ff 	movw   $0xb6dd,-0x11ee(%rbp)
    d4a2:	dd b6 
    d4a4:	c6 85 14 ee ff ff b6 	movb   $0xb6,-0x11ec(%rbp)
    d4ab:	66 c7 85 15 ee ff ff 	movw   $0x8cf9,-0x11eb(%rbp)
    d4b2:	f9 8c 
    d4b4:	c6 85 17 ee ff ff f9 	movb   $0xf9,-0x11e9(%rbp)
    d4bb:	66 c7 85 18 ee ff ff 	movw   $0xdddd,-0x11e8(%rbp)
    d4c2:	dd dd 
    d4c4:	c6 85 1a ee ff ff b6 	movb   $0xb6,-0x11e6(%rbp)
    d4cb:	c7 85 60 ee ff ff 41 	movl   $0x7175241,-0x11a0(%rbp)
    d4d2:	52 17 07 
    d4d5:	c6 85 64 ee ff ff ff 	movb   $0xff,-0x119c(%rbp)
    d4dc:	c7 85 65 ee ff ff a4 	movl   $0xa49e9ea4,-0x119b(%rbp)
    d4e3:	9e 9e a4 
    d4e6:	c6 85 69 ee ff ff ec 	movb   $0xec,-0x1197(%rbp)
    d4ed:	c7 85 6a ee ff ff b0 	movl   $0xff17a4b0,-0x1196(%rbp)
    d4f4:	a4 17 ff 
    d4f7:	c6 85 6e ee ff ff 52 	movb   $0x52,-0x1192(%rbp)
    d4fe:	c7 85 6f ee ff ff b0 	movl   $0x17ec17b0,-0x1191(%rbp)
    d505:	17 ec 17 
    d508:	c6 85 73 ee ff ff b0 	movb   $0xb0,-0x118d(%rbp)
    d50f:	c7 85 74 ee ff ff a4 	movl   $0xff4107a4,-0x118c(%rbp)
    d516:	07 41 ff 
    d519:	c6 85 78 ee ff ff 9e 	movb   $0x9e,-0x1188(%rbp)
    d520:	c7 85 79 ee ff ff 41 	movl   $0xa4a40741,-0x1187(%rbp)
    d527:	07 a4 a4 
    d52a:	c6 85 7d ee ff ff 07 	movb   $0x7,-0x1183(%rbp)
    d531:	c7 85 7e ee ff ff ec 	movl   $0x7b017ec,-0x1182(%rbp)
    d538:	17 b0 07 
    d53b:	c6 85 82 ee ff ff 9e 	movb   $0x9e,-0x117e(%rbp)
    d542:	c7 85 83 ee ff ff 17 	movl   $0xdcb0a417,-0x117d(%rbp)
    d549:	a4 b0 dc 
    d54c:	c6 85 87 ee ff ff b0 	movb   $0xb0,-0x1179(%rbp)
    d553:	c7 85 88 ee ff ff 9e 	movl   $0xeca49e9e,-0x1178(%rbp)
    d55a:	9e a4 ec 
    d55d:	c6 85 8c ee ff ff 52 	movb   $0x52,-0x1174(%rbp)
    d564:	c7 85 8d ee ff ff 17 	movl   $0xec415217,-0x1173(%rbp)
    d56b:	52 41 ec 
    d56e:	c6 85 91 ee ff ff ec 	movb   $0xec,-0x116f(%rbp)
    d575:	c7 85 92 ee ff ff ec 	movl   $0xdceca8ec,-0x116e(%rbp)
    d57c:	a8 ec dc 
    d57f:	c6 85 96 ee ff ff ff 	movb   $0xff,-0x116a(%rbp)
    d586:	c7 85 97 ee ff ff 41 	movl   $0x7175241,-0x1169(%rbp)
    d58d:	52 17 07 
    d590:	c6 85 9b ee ff ff ff 	movb   $0xff,-0x1165(%rbp)
    d597:	c7 85 9c ee ff ff a4 	movl   $0xa49e9ea4,-0x1164(%rbp)
    d59e:	9e 9e a4 
    d5a1:	c6 85 a0 ee ff ff ec 	movb   $0xec,-0x1160(%rbp)
    d5a8:	c7 85 a1 ee ff ff b0 	movl   $0xff17a4b0,-0x115f(%rbp)
    d5af:	a4 17 ff 
    d5b2:	c6 85 a5 ee ff ff 52 	movb   $0x52,-0x115b(%rbp)
    d5b9:	c7 85 a6 ee ff ff b0 	movl   $0x17ec17b0,-0x115a(%rbp)
    d5c0:	17 ec 17 
    d5c3:	c6 85 aa ee ff ff b0 	movb   $0xb0,-0x1156(%rbp)
    d5ca:	c7 85 ab ee ff ff a4 	movl   $0xff4107a4,-0x1155(%rbp)
    d5d1:	07 41 ff 
    d5d4:	c6 85 af ee ff ff 9e 	movb   $0x9e,-0x1151(%rbp)
    d5db:	48 8d 05 2e 35 01 00 	lea    0x1352e(%rip),%rax        # 20b10 <g_945>
    d5e2:	48 89 85 98 ec ff ff 	mov    %rax,-0x1368(%rbp)
    d5e9:	48 8d 05 70 3c 01 00 	lea    0x13c70(%rip),%rax        # 21260 <g_3172>
    d5f0:	48 89 85 a0 ec ff ff 	mov    %rax,-0x1360(%rbp)
    d5f7:	48 c7 85 30 ec ff ff 	movq   $0x0,-0x13d0(%rbp)
    d5fe:	00 00 00 00 
    d602:	48 8d 85 30 ec ff ff 	lea    -0x13d0(%rbp),%rax
    d609:	48 89 85 a8 ec ff ff 	mov    %rax,-0x1358(%rbp)
    d610:	48 c7 85 b0 ec ff ff 	movq   $0xffffffffffffffff,-0x1350(%rbp)
    d617:	ff ff ff ff 
    d61b:	48 b8 34 f6 e6 f8 80 	movabs $0x7e54db80f8e6f634,%rax
    d622:	db 54 7e 
    d625:	48 89 85 b8 ec ff ff 	mov    %rax,-0x1348(%rbp)
    d62c:	48 8d 05 55 37 01 00 	lea    0x13755(%rip),%rax        # 20d88 <g_1175>
    d633:	48 89 85 c0 ec ff ff 	mov    %rax,-0x1340(%rbp)
    d63a:	c7 85 d4 eb ff ff 00 	movl   $0x0,-0x142c(%rbp)
    d641:	00 00 00 
    d644:	eb 1b                	jmp    d661 <func_48+0xa5e>
    d646:	8b 85 d4 eb ff ff    	mov    -0x142c(%rbp),%eax
    d64c:	48 98                	cltq   
    d64e:	48 c7 84 c5 a0 ed ff 	movq   $0x0,-0x1260(%rbp,%rax,8)
    d655:	ff 00 00 00 00 
    d65a:	83 85 d4 eb ff ff 01 	addl   $0x1,-0x142c(%rbp)
    d661:	83 bd d4 eb ff ff 01 	cmpl   $0x1,-0x142c(%rbp)
    d668:	7e dc                	jle    d646 <func_48+0xa43>
    d66a:	c7 85 d4 eb ff ff 00 	movl   $0x0,-0x142c(%rbp)
    d671:	00 00 00 
    d674:	eb 1a                	jmp    d690 <func_48+0xa8d>
    d676:	8b 85 d4 eb ff ff    	mov    -0x142c(%rbp),%eax
    d67c:	48 98                	cltq   
    d67e:	c7 84 85 98 ed ff ff 	movl   $0x2,-0x1268(%rbp,%rax,4)
    d685:	02 00 00 00 
    d689:	83 85 d4 eb ff ff 01 	addl   $0x1,-0x142c(%rbp)
    d690:	83 bd d4 eb ff ff 01 	cmpl   $0x1,-0x142c(%rbp)
    d697:	7e dd                	jle    d676 <func_48+0xa73>
    d699:	90                   	nop
    d69a:	48 c7 05 cb f9 00 00 	movq   $0x0,0xf9cb(%rip)        # 1d070 <g_47>
    d6a1:	00 00 00 00 
    d6a5:	e9 ff 03 00 00       	jmpq   daa9 <func_48+0xea6>
    d6aa:	48 c7 85 20 f2 ff ff 	movq   $0x0,-0xde0(%rbp)
    d6b1:	00 00 00 00 
    d6b5:	48 8d 05 bc 41 01 00 	lea    0x141bc(%rip),%rax        # 21878 <g_1311>
    d6bc:	48 89 85 28 f2 ff ff 	mov    %rax,-0xdd8(%rbp)
    d6c3:	48 8d 85 18 ec ff ff 	lea    -0x13e8(%rbp),%rax
    d6ca:	48 89 85 30 f2 ff ff 	mov    %rax,-0xdd0(%rbp)
    d6d1:	48 8d 85 18 ec ff ff 	lea    -0x13e8(%rbp),%rax
    d6d8:	48 89 85 38 f2 ff ff 	mov    %rax,-0xdc8(%rbp)
    d6df:	48 8d 05 92 41 01 00 	lea    0x14192(%rip),%rax        # 21878 <g_1311>
    d6e6:	48 89 85 40 f2 ff ff 	mov    %rax,-0xdc0(%rbp)
    d6ed:	48 8d 05 84 41 01 00 	lea    0x14184(%rip),%rax        # 21878 <g_1311>
    d6f4:	48 89 85 48 f2 ff ff 	mov    %rax,-0xdb8(%rbp)
    d6fb:	48 8d 05 76 41 01 00 	lea    0x14176(%rip),%rax        # 21878 <g_1311>
    d702:	48 89 85 50 f2 ff ff 	mov    %rax,-0xdb0(%rbp)
    d709:	48 8d 05 68 41 01 00 	lea    0x14168(%rip),%rax        # 21878 <g_1311>
    d710:	48 89 85 58 f2 ff ff 	mov    %rax,-0xda8(%rbp)
    d717:	48 8d 85 18 ec ff ff 	lea    -0x13e8(%rbp),%rax
    d71e:	48 89 85 60 f2 ff ff 	mov    %rax,-0xda0(%rbp)
    d725:	48 c7 85 68 f2 ff ff 	movq   $0x0,-0xd98(%rbp)
    d72c:	00 00 00 00 
    d730:	48 8d 05 41 41 01 00 	lea    0x14141(%rip),%rax        # 21878 <g_1311>
    d737:	48 89 85 70 f2 ff ff 	mov    %rax,-0xd90(%rbp)
    d73e:	48 8d 85 18 ec ff ff 	lea    -0x13e8(%rbp),%rax
    d745:	48 89 85 78 f2 ff ff 	mov    %rax,-0xd88(%rbp)
    d74c:	48 8d 85 18 ec ff ff 	lea    -0x13e8(%rbp),%rax
    d753:	48 89 85 80 f2 ff ff 	mov    %rax,-0xd80(%rbp)
    d75a:	48 8d 05 17 41 01 00 	lea    0x14117(%rip),%rax        # 21878 <g_1311>
    d761:	48 89 85 88 f2 ff ff 	mov    %rax,-0xd78(%rbp)
    d768:	48 8d 05 09 41 01 00 	lea    0x14109(%rip),%rax        # 21878 <g_1311>
    d76f:	48 89 85 90 f2 ff ff 	mov    %rax,-0xd70(%rbp)
    d776:	48 8d 05 fb 40 01 00 	lea    0x140fb(%rip),%rax        # 21878 <g_1311>
    d77d:	48 89 85 98 f2 ff ff 	mov    %rax,-0xd68(%rbp)
    d784:	48 8d 05 ed 40 01 00 	lea    0x140ed(%rip),%rax        # 21878 <g_1311>
    d78b:	48 89 85 a0 f2 ff ff 	mov    %rax,-0xd60(%rbp)
    d792:	48 8d 85 18 ec ff ff 	lea    -0x13e8(%rbp),%rax
    d799:	48 89 85 a8 f2 ff ff 	mov    %rax,-0xd58(%rbp)
    d7a0:	48 c7 85 b0 f2 ff ff 	movq   $0x0,-0xd50(%rbp)
    d7a7:	00 00 00 00 
    d7ab:	48 8d 05 c6 40 01 00 	lea    0x140c6(%rip),%rax        # 21878 <g_1311>
    d7b2:	48 89 85 b8 f2 ff ff 	mov    %rax,-0xd48(%rbp)
    d7b9:	48 8d 85 18 ec ff ff 	lea    -0x13e8(%rbp),%rax
    d7c0:	48 89 85 c0 f2 ff ff 	mov    %rax,-0xd40(%rbp)
    d7c7:	48 8d 85 18 ec ff ff 	lea    -0x13e8(%rbp),%rax
    d7ce:	48 89 85 c8 f2 ff ff 	mov    %rax,-0xd38(%rbp)
    d7d5:	48 8d 05 9c 40 01 00 	lea    0x1409c(%rip),%rax        # 21878 <g_1311>
    d7dc:	48 89 85 d0 f2 ff ff 	mov    %rax,-0xd30(%rbp)
    d7e3:	48 8d 05 8e 40 01 00 	lea    0x1408e(%rip),%rax        # 21878 <g_1311>
    d7ea:	48 89 85 d8 f2 ff ff 	mov    %rax,-0xd28(%rbp)
    d7f1:	48 8d 05 80 40 01 00 	lea    0x14080(%rip),%rax        # 21878 <g_1311>
    d7f8:	48 89 85 e0 f2 ff ff 	mov    %rax,-0xd20(%rbp)
    d7ff:	48 8d 05 72 40 01 00 	lea    0x14072(%rip),%rax        # 21878 <g_1311>
    d806:	48 89 85 e8 f2 ff ff 	mov    %rax,-0xd18(%rbp)
    d80d:	48 8d 85 18 ec ff ff 	lea    -0x13e8(%rbp),%rax
    d814:	48 89 85 f0 f2 ff ff 	mov    %rax,-0xd10(%rbp)
    d81b:	48 8d 85 10 ec ff ff 	lea    -0x13f0(%rbp),%rax
    d822:	48 89 85 20 ed ff ff 	mov    %rax,-0x12e0(%rbp)
    d829:	48 8d 05 74 11 01 00 	lea    0x11174(%rip),%rax        # 1e9a4 <g_1199>
    d830:	48 89 85 28 ed ff ff 	mov    %rax,-0x12d8(%rbp)
    d837:	48 c7 85 58 ec ff ff 	movq   $0x0,-0x13a8(%rbp)
    d83e:	00 00 00 00 
    d842:	48 8d 85 58 ec ff ff 	lea    -0x13a8(%rbp),%rax
    d849:	48 89 85 60 ec ff ff 	mov    %rax,-0x13a0(%rbp)
    d850:	48 8d 85 60 ec ff ff 	lea    -0x13a0(%rbp),%rax
    d857:	48 89 85 30 ed ff ff 	mov    %rax,-0x12d0(%rbp)
    d85e:	48 8d 05 db 07 01 00 	lea    0x107db(%rip),%rax        # 1e040 <g_363+0x700>
    d865:	48 89 85 38 ed ff ff 	mov    %rax,-0x12c8(%rbp)
    d86c:	48 c7 85 40 ed ff ff 	movq   $0x0,-0x12c0(%rbp)
    d873:	00 00 00 00 
    d877:	48 8d 05 94 a8 00 00 	lea    0xa894(%rip),%rax        # 18112 <g_2841+0xa>
    d87e:	48 89 85 48 ed ff ff 	mov    %rax,-0x12b8(%rbp)
    d885:	48 8d 85 20 fa ff ff 	lea    -0x5e0(%rbp),%rax
    d88c:	48 8d 15 2d 1a 01 00 	lea    0x11a2d(%rip),%rdx        # 1f2c0 <g_3508+0x748>
    d893:	b9 60 00 00 00       	mov    $0x60,%ecx
    d898:	48 89 c7             	mov    %rax,%rdi
    d89b:	48 89 d6             	mov    %rdx,%rsi
    d89e:	f3 48 a5             	rep movsq %ds:(%rsi),%es:(%rdi)
    d8a1:	c7 85 d8 eb ff ff 00 	movl   $0x0,-0x1428(%rbp)
    d8a8:	00 00 00 
    d8ab:	eb 14                	jmp    d8c1 <func_48+0xcbe>
    d8ad:	8b 85 d8 eb ff ff    	mov    -0x1428(%rbp),%eax
    d8b3:	48 98                	cltq   
    d8b5:	c6 44 05 c7 f9       	movb   $0xf9,-0x39(%rbp,%rax,1)
    d8ba:	83 85 d8 eb ff ff 01 	addl   $0x1,-0x1428(%rbp)
    d8c1:	83 bd d8 eb ff ff 00 	cmpl   $0x0,-0x1428(%rbp)
    d8c8:	7e e3                	jle    d8ad <func_48+0xcaa>
    d8ca:	0f b6 85 4d ee ff ff 	movzbl -0x11b3(%rbp),%eax
    d8d1:	0f b6 d0             	movzbl %al,%edx
    d8d4:	48 8b 05 95 f7 00 00 	mov    0xf795(%rip),%rax        # 1d070 <g_47>
    d8db:	0f b7 c0             	movzwl %ax,%eax
    d8de:	48 8b 1d 9b 35 01 00 	mov    0x1359b(%rip),%rbx        # 20e80 <g_1262>
    d8e5:	89 d6                	mov    %edx,%esi
    d8e7:	89 c7                	mov    %eax,%edi
    d8e9:	e8 57 17 00 00       	callq  f045 <func_55>
    d8ee:	48 89 03             	mov    %rax,(%rbx)
    d8f1:	48 8b 13             	mov    (%rbx),%rdx
    d8f4:	48 8b 05 9d 38 01 00 	mov    0x1389d(%rip),%rax        # 21198 <g_2399>
    d8fb:	48 39 c2             	cmp    %rax,%rdx
    d8fe:	0f 95 c0             	setne  %al
    d901:	0f b6 c0             	movzbl %al,%eax
    d904:	48 8b 1d fd 2e 01 00 	mov    0x12efd(%rip),%rbx        # 20808 <g_538>
    d90b:	89 c7                	mov    %eax,%edi
    d90d:	e8 b2 0f 00 00       	callq  e8c4 <func_53>
    d912:	48 89 03             	mov    %rax,(%rbx)
    d915:	48 8b 05 f4 2e 01 00 	mov    0x12ef4(%rip),%rax        # 20810 <g_537>
    d91c:	48 8b 05 55 3f 01 00 	mov    0x13f55(%rip),%rax        # 21878 <g_1311>
    d923:	48 89 85 20 ed ff ff 	mov    %rax,-0x12e0(%rbp)
    d92a:	48 8b 85 18 ec ff ff 	mov    -0x13e8(%rbp),%rax
    d931:	48 39 85 20 ed ff ff 	cmp    %rax,-0x12e0(%rbp)
    d938:	0f 95 c0             	setne  %al
    d93b:	0f b6 c0             	movzbl %al,%eax
    d93e:	be 0c 00 00 00       	mov    $0xc,%esi
    d943:	89 c7                	mov    %eax,%edi
    d945:	e8 74 b4 ff ff       	callq  8dbe <safe_lshift_func_uint16_t_u_s>
    d94a:	48 8b 85 28 ed ff ff 	mov    -0x12d8(%rbp),%rax
    d951:	8b 10                	mov    (%rax),%edx
    d953:	48 8b 05 a6 31 01 00 	mov    0x131a6(%rip),%rax        # 20b00 <g_772>
    d95a:	48 8b 00             	mov    (%rax),%rax
    d95d:	48 8b 00             	mov    (%rax),%rax
    d960:	0f b7 00             	movzwl (%rax),%eax
    d963:	98                   	cwtl   
    d964:	89 d6                	mov    %edx,%esi
    d966:	89 c7                	mov    %eax,%edi
    d968:	e8 bd ab ff ff       	callq  852a <safe_rshift_func_int16_t_s_s>
    d96d:	c7 85 bc eb ff ff 0f 	movl   $0xbffb300f,-0x1444(%rbp)
    d974:	30 fb bf 
    d977:	ba 00 00 00 00       	mov    $0x0,%edx
    d97c:	48 8b 05 45 2a 01 00 	mov    0x12a45(%rip),%rax        # 203c8 <g_356>
    d983:	0f b7 00             	movzwl (%rax),%eax
    d986:	0f b7 c0             	movzwl %ax,%eax
    d989:	39 c2                	cmp    %eax,%edx
    d98b:	0f 9d c0             	setge  %al
    d98e:	0f b6 c0             	movzbl %al,%eax
    d991:	be 01 00 00 00       	mov    $0x1,%esi
    d996:	89 c7                	mov    %eax,%edi
    d998:	e8 51 a9 ff ff       	callq  82ee <safe_lshift_func_int8_t_s_u>
    d99d:	89 c2                	mov    %eax,%edx
    d99f:	48 8b 05 e2 33 01 00 	mov    0x133e2(%rip),%rax        # 20d88 <g_1175>
    d9a6:	0f be d2             	movsbl %dl,%edx
    d9a9:	89 10                	mov    %edx,(%rax)
    d9ab:	66 c7 05 1c 0e 01 00 	movw   $0x0,0x10e1c(%rip)        # 1e7d0 <g_1044>
    d9b2:	00 00 
    d9b4:	e9 cd 00 00 00       	jmpq   da86 <func_48+0xe83>
    d9b9:	c6 85 b9 eb ff ff ce 	movb   $0xce,-0x1447(%rbp)
    d9c0:	48 c7 85 50 ed ff ff 	movq   $0x0,-0x12b0(%rbp)
    d9c7:	00 00 00 00 
    d9cb:	48 8d 05 de 08 01 00 	lea    0x108de(%rip),%rax        # 1e2b0 <g_486>
    d9d2:	48 89 85 58 ed ff ff 	mov    %rax,-0x12a8(%rbp)
    d9d9:	48 8d 05 98 37 01 00 	lea    0x13798(%rip),%rax        # 21178 <g_2332>
    d9e0:	48 89 85 60 ed ff ff 	mov    %rax,-0x12a0(%rbp)
    d9e7:	48 c7 85 68 ed ff ff 	movq   $0x0,-0x1298(%rbp)
    d9ee:	00 00 00 00 
    d9f2:	48 8d 05 0f 2e 01 00 	lea    0x12e0f(%rip),%rax        # 20808 <g_538>
    d9f9:	48 89 85 68 ec ff ff 	mov    %rax,-0x1398(%rbp)
    da00:	48 8d 85 68 ec ff ff 	lea    -0x1398(%rbp),%rax
    da07:	48 89 85 70 ed ff ff 	mov    %rax,-0x1290(%rbp)
    da0e:	66 c7 85 ba eb ff ff 	movw   $0x7,-0x1446(%rbp)
    da15:	07 00 
    da17:	48 c7 85 78 ed ff ff 	movq   $0x8,-0x1288(%rbp)
    da1e:	08 00 00 00 
    da22:	48 8d 85 20 ee ff ff 	lea    -0x11e0(%rbp),%rax
    da29:	48 83 c0 27          	add    $0x27,%rax
    da2d:	48 89 85 80 ed ff ff 	mov    %rax,-0x1280(%rbp)
    da34:	c7 85 dc eb ff ff 00 	movl   $0x0,-0x1424(%rbp)
    da3b:	00 00 00 
    da3e:	eb 1e                	jmp    da5e <func_48+0xe5b>
    da40:	8b 85 dc eb ff ff    	mov    -0x1424(%rbp),%eax
    da46:	48 98                	cltq   
    da48:	48 8d 15 61 3e 01 00 	lea    0x13e61(%rip),%rdx        # 218b0 <g_2419>
    da4f:	48 89 94 c5 e0 ed ff 	mov    %rdx,-0x1220(%rbp,%rax,8)
    da56:	ff 
    da57:	83 85 dc eb ff ff 01 	addl   $0x1,-0x1424(%rbp)
    da5e:	83 bd dc eb ff ff 02 	cmpl   $0x2,-0x1424(%rbp)
    da65:	7e d9                	jle    da40 <func_48+0xe3d>
    da67:	48 8b 05 da 34 01 00 	mov    0x134da(%rip),%rax        # 20f48 <g_1972>
    da6e:	48 c7 00 00 00 00 00 	movq   $0x0,(%rax)
    da75:	0f b7 05 54 0d 01 00 	movzwl 0x10d54(%rip),%eax        # 1e7d0 <g_1044>
    da7c:	83 c0 01             	add    $0x1,%eax
    da7f:	66 89 05 4a 0d 01 00 	mov    %ax,0x10d4a(%rip)        # 1e7d0 <g_1044>
    da86:	0f b7 05 43 0d 01 00 	movzwl 0x10d43(%rip),%eax        # 1e7d0 <g_1044>
    da8d:	66 83 f8 01          	cmp    $0x1,%ax
    da91:	0f 86 22 ff ff ff    	jbe    d9b9 <func_48+0xdb6>
    da97:	48 8b 05 d2 f5 00 00 	mov    0xf5d2(%rip),%rax        # 1d070 <g_47>
    da9e:	48 83 c0 01          	add    $0x1,%rax
    daa2:	48 89 05 c7 f5 00 00 	mov    %rax,0xf5c7(%rip)        # 1d070 <g_47>
    daa9:	48 8b 05 c0 f5 00 00 	mov    0xf5c0(%rip),%rax        # 1d070 <g_47>
    dab0:	48 83 f8 01          	cmp    $0x1,%rax
    dab4:	0f 8e f0 fb ff ff    	jle    d6aa <func_48+0xaa7>
    daba:	c7 05 a4 3d 01 00 00 	movl   $0x0,0x13da4(%rip)        # 21868 <g_678>
    dac1:	00 00 00 
    dac4:	90                   	nop
    dac5:	8b 05 9d 3d 01 00    	mov    0x13d9d(%rip),%eax        # 21868 <g_678>
    dacb:	83 f8 1a             	cmp    $0x1a,%eax
    dace:	0f 86 46 0b 00 00    	jbe    e61a <func_48+0x1a17>
    dad4:	c6 85 b6 eb ff ff 01 	movb   $0x1,-0x144a(%rbp)
    dadb:	48 c7 85 d0 ec ff ff 	movq   $0x0,-0x1330(%rbp)
    dae2:	00 00 00 00 
    dae6:	48 8d 05 67 3d 01 00 	lea    0x13d67(%rip),%rax        # 21854 <g_201>
    daed:	48 89 85 d8 ec ff ff 	mov    %rax,-0x1328(%rbp)
    daf4:	48 c7 85 38 ec ff ff 	movq   $0x0,-0x13c8(%rbp)
    dafb:	00 00 00 00 
    daff:	48 8d 85 38 ec ff ff 	lea    -0x13c8(%rbp),%rax
    db06:	48 89 85 e0 ec ff ff 	mov    %rax,-0x1320(%rbp)
    db0d:	48 8d 05 44 33 01 00 	lea    0x13344(%rip),%rax        # 20e58 <g_1197+0x18>
    db14:	48 89 85 40 ec ff ff 	mov    %rax,-0x13c0(%rbp)
    db1b:	48 8d 85 40 ec ff ff 	lea    -0x13c0(%rbp),%rax
    db22:	48 89 85 e8 ec ff ff 	mov    %rax,-0x1318(%rbp)
    db29:	c7 85 e4 eb ff ff 01 	movl   $0x1,-0x141c(%rbp)
    db30:	00 00 00 
    db33:	48 8d 05 ce 2c 01 00 	lea    0x12cce(%rip),%rax        # 20808 <g_538>
    db3a:	48 89 85 48 ec ff ff 	mov    %rax,-0x13b8(%rbp)
    db41:	48 8d 85 48 ec ff ff 	lea    -0x13b8(%rbp),%rax
    db48:	48 89 85 50 ec ff ff 	mov    %rax,-0x13b0(%rbp)
    db4f:	c7 85 e8 eb ff ff f7 	movl   $0xecefa8f7,-0x1418(%rbp)
    db56:	a8 ef ec 
    db59:	48 8d 85 10 ec ff ff 	lea    -0x13f0(%rbp),%rax
    db60:	48 89 85 f0 ec ff ff 	mov    %rax,-0x1310(%rbp)
    db67:	c7 85 c8 eb ff ff 00 	movl   $0x0,-0x1438(%rbp)
    db6e:	00 00 00 
    db71:	eb 1e                	jmp    db91 <func_48+0xf8e>
    db73:	8b 85 c8 eb ff ff    	mov    -0x1438(%rbp),%eax
    db79:	48 98                	cltq   
    db7b:	48 8d 95 50 ec ff ff 	lea    -0x13b0(%rbp),%rdx
    db82:	48 89 94 c5 b0 ed ff 	mov    %rdx,-0x1250(%rbp,%rax,8)
    db89:	ff 
    db8a:	83 85 c8 eb ff ff 01 	addl   $0x1,-0x1438(%rbp)
    db91:	83 bd c8 eb ff ff 01 	cmpl   $0x1,-0x1438(%rbp)
    db98:	7e d9                	jle    db73 <func_48+0xf70>
    db9a:	c7 85 c8 eb ff ff 00 	movl   $0x0,-0x1438(%rbp)
    dba1:	00 00 00 
    dba4:	eb 1a                	jmp    dbc0 <func_48+0xfbd>
    dba6:	8b 85 c8 eb ff ff    	mov    -0x1438(%rbp),%eax
    dbac:	48 98                	cltq   
    dbae:	c7 84 85 8c ed ff ff 	movl   $0x0,-0x1274(%rbp,%rax,4)
    dbb5:	00 00 00 00 
    dbb9:	83 85 c8 eb ff ff 01 	addl   $0x1,-0x1438(%rbp)
    dbc0:	83 bd c8 eb ff ff 00 	cmpl   $0x0,-0x1438(%rbp)
    dbc7:	7e dd                	jle    dba6 <func_48+0xfa3>
    dbc9:	c7 05 d1 06 01 00 00 	movl   $0x0,0x106d1(%rip)        # 1e2a4 <g_451>
    dbd0:	00 00 00 
    dbd3:	e9 de 01 00 00       	jmpq   ddb6 <func_48+0x11b3>
    dbd8:	c7 85 0c ec ff ff b2 	movl   $0x928b4cb2,-0x13f4(%rbp)
    dbdf:	4c 8b 92 
    dbe2:	8b 85 ac eb ff ff    	mov    -0x1454(%rbp),%eax
    dbe8:	0f bf d8             	movswl %ax,%ebx
    dbeb:	44 8b a5 98 f7 ff ff 	mov    -0x868(%rbp),%r12d
    dbf2:	8b 85 64 f6 ff ff    	mov    -0x99c(%rbp),%eax
    dbf8:	44 0f bf e8          	movswl %ax,%r13d
    dbfc:	8b 85 0c ec ff ff    	mov    -0x13f4(%rbp),%eax
    dc02:	44 0f be f0          	movsbl %al,%r14d
    dc06:	48 8d 05 97 0d 01 00 	lea    0x10d97(%rip),%rax        # 1e9a4 <g_1199>
    dc0d:	8b 08                	mov    (%rax),%ecx
    dc0f:	0f be 85 b6 eb ff ff 	movsbl -0x144a(%rbp),%eax
    dc16:	23 85 0c ec ff ff    	and    -0x13f4(%rbp),%eax
    dc1c:	89 c2                	mov    %eax,%edx
    dc1e:	48 8d 05 7f 0d 01 00 	lea    0x10d7f(%rip),%rax        # 1e9a4 <g_1199>
    dc25:	09 ca                	or     %ecx,%edx
    dc27:	89 10                	mov    %edx,(%rax)
    dc29:	8b 00                	mov    (%rax),%eax
    dc2b:	39 85 0c ec ff ff    	cmp    %eax,-0x13f4(%rbp)
    dc31:	0f 95 c2             	setne  %dl
    dc34:	48 8b 05 4d 31 01 00 	mov    0x1314d(%rip),%rax        # 20d88 <g_1175>
    dc3b:	0f b6 d2             	movzbl %dl,%edx
    dc3e:	89 10                	mov    %edx,(%rax)
    dc40:	8b 00                	mov    (%rax),%eax
    dc42:	8b 95 ac eb ff ff    	mov    -0x1454(%rbp),%edx
    dc48:	81 f2 72 da 00 00    	xor    $0xda72,%edx
    dc4e:	39 d0                	cmp    %edx,%eax
    dc50:	0f 95 c0             	setne  %al
    dc53:	0f b6 c0             	movzbl %al,%eax
    dc56:	be 04 00 00 00       	mov    $0x4,%esi
    dc5b:	89 c7                	mov    %eax,%edi
    dc5d:	e8 ea af ff ff       	callq  8c4c <safe_lshift_func_uint8_t_u_u>
    dc62:	0f be c0             	movsbl %al,%eax
    dc65:	be 07 00 00 00       	mov    $0x7,%esi
    dc6a:	89 c7                	mov    %eax,%edi
    dc6c:	e8 30 a6 ff ff       	callq  82a1 <safe_lshift_func_int8_t_s_s>
    dc71:	41 89 c7             	mov    %eax,%r15d
    dc74:	be 01 00 00 00       	mov    $0x1,%esi
    dc79:	bf 8f ff ff ff       	mov    $0xffffff8f,%edi
    dc7e:	e8 b2 a6 ff ff       	callq  8335 <safe_rshift_func_int8_t_s_s>
    dc83:	41 38 c7             	cmp    %al,%r15b
    dc86:	0f 9d c0             	setge  %al
    dc89:	0f b6 d0             	movzbl %al,%edx
    dc8c:	8b 85 ac eb ff ff    	mov    -0x1454(%rbp),%eax
    dc92:	39 c2                	cmp    %eax,%edx
    dc94:	0f 95 c0             	setne  %al
    dc97:	0f b6 c0             	movzbl %al,%eax
    dc9a:	44 89 f6             	mov    %r14d,%esi
    dc9d:	89 c7                	mov    %eax,%edi
    dc9f:	e8 6e a5 ff ff       	callq  8212 <safe_mul_func_int8_t_s_s>
    dca4:	b8 00 00 00 00       	mov    $0x0,%eax
    dca9:	0f b6 c0             	movzbl %al,%eax
    dcac:	be f5 00 00 00       	mov    $0xf5,%esi
    dcb1:	89 c7                	mov    %eax,%edi
    dcb3:	e8 23 af ff ff       	callq  8bdb <safe_div_func_uint8_t_u_u>
    dcb8:	0f b6 d0             	movzbl %al,%edx
    dcbb:	0f be 85 b6 eb ff ff 	movsbl -0x144a(%rbp),%eax
    dcc2:	39 c2                	cmp    %eax,%edx
    dcc4:	0f 9d c0             	setge  %al
    dcc7:	0f b6 c0             	movzbl %al,%eax
    dcca:	44 89 ee             	mov    %r13d,%esi
    dccd:	89 c7                	mov    %eax,%edi
    dccf:	e8 21 a7 ff ff       	callq  83f5 <safe_mul_func_int16_t_s_s>
    dcd4:	0f b6 c0             	movzbl %al,%eax
    dcd7:	89 c7                	mov    %eax,%edi
    dcd9:	e8 67 ae ff ff       	callq  8b45 <safe_unary_minus_func_uint8_t_u>
    dcde:	44 89 e6             	mov    %r12d,%esi
    dce1:	bf e4 6c 00 00       	mov    $0x6ce4,%edi
    dce6:	e8 d3 b0 ff ff       	callq  8dbe <safe_lshift_func_uint16_t_u_s>
    dceb:	0f b6 c0             	movzbl %al,%eax
    dcee:	be 07 00 00 00       	mov    $0x7,%esi
    dcf3:	89 c7                	mov    %eax,%edi
    dcf5:	e8 93 af ff ff       	callq  8c8d <safe_rshift_func_uint8_t_u_s>
    dcfa:	0f b6 d0             	movzbl %al,%edx
    dcfd:	8b 85 ac eb ff ff    	mov    -0x1454(%rbp),%eax
    dd03:	39 c2                	cmp    %eax,%edx
    dd05:	0f 95 c2             	setne  %dl
    dd08:	48 8b 05 f9 2d 01 00 	mov    0x12df9(%rip),%rax        # 20b08 <g_793>
    dd0f:	88 10                	mov    %dl,(%rax)
    dd11:	0f b6 00             	movzbl (%rax),%eax
    dd14:	0f b6 c0             	movzbl %al,%eax
    dd17:	39 85 0c ec ff ff    	cmp    %eax,-0x13f4(%rbp)
    dd1d:	0f 9e c0             	setle  %al
    dd20:	0f b6 c0             	movzbl %al,%eax
    dd23:	89 de                	mov    %ebx,%esi
    dd25:	89 c7                	mov    %eax,%edi
    dd27:	e8 c9 a6 ff ff       	callq  83f5 <safe_mul_func_int16_t_s_s>
    dd2c:	48 0f bf d0          	movswq %ax,%rdx
    dd30:	48 8b 05 e9 31 01 00 	mov    0x131e9(%rip),%rax        # 20f20 <g_1548>
    dd37:	48 8b 00             	mov    (%rax),%rax
    dd3a:	48 39 c2             	cmp    %rax,%rdx
    dd3d:	0f 9d c0             	setge  %al
    dd40:	0f b6 c8             	movzbl %al,%ecx
    dd43:	48 8b 05 36 31 01 00 	mov    0x13136(%rip),%rax        # 20e80 <g_1262>
    dd4a:	48 8b 00             	mov    (%rax),%rax
    dd4d:	0f b7 10             	movzwl (%rax),%edx
    dd50:	8d 72 01             	lea    0x1(%rdx),%esi
    dd53:	66 89 30             	mov    %si,(%rax)
    dd56:	0f b7 c2             	movzwl %dx,%eax
    dd59:	89 ce                	mov    %ecx,%esi
    dd5b:	89 c7                	mov    %eax,%edi
    dd5d:	e8 bd af ff ff       	callq  8d1f <safe_sub_func_uint16_t_u_u>
    dd62:	0f be d0             	movsbl %al,%edx
    dd65:	48 8b 05 9c 34 01 00 	mov    0x1349c(%rip),%rax        # 21208 <g_2987>
    dd6c:	48 89 85 78 f1 ff ff 	mov    %rax,-0xe88(%rbp)
    dd73:	48 8b 85 78 f1 ff ff 	mov    -0xe88(%rbp),%rax
    dd7a:	48 89 85 80 ec ff ff 	mov    %rax,-0x1380(%rbp)
    dd81:	48 8b 85 80 ec ff ff 	mov    -0x1380(%rbp),%rax
    dd88:	48 3b 85 70 ec ff ff 	cmp    -0x1390(%rbp),%rax
    dd8f:	0f 95 c0             	setne  %al
    dd92:	0f b6 c0             	movzbl %al,%eax
    dd95:	89 d6                	mov    %edx,%esi
    dd97:	89 c7                	mov    %eax,%edi
    dd99:	e8 74 a4 ff ff       	callq  8212 <safe_mul_func_int8_t_s_s>
    dd9e:	0f be c0             	movsbl %al,%eax
    dda1:	21 85 bc eb ff ff    	and    %eax,-0x1444(%rbp)
    dda7:	8b 05 f7 04 01 00    	mov    0x104f7(%rip),%eax        # 1e2a4 <g_451>
    ddad:	83 c0 01             	add    $0x1,%eax
    ddb0:	89 05 ee 04 01 00    	mov    %eax,0x104ee(%rip)        # 1e2a4 <g_451>
    ddb6:	8b 05 e8 04 01 00    	mov    0x104e8(%rip),%eax        # 1e2a4 <g_451>
    ddbc:	83 f8 08             	cmp    $0x8,%eax
    ddbf:	0f 8f 13 fe ff ff    	jg     dbd8 <func_48+0xfd5>
    ddc5:	66 0f be 85 b6 eb ff 	movsbw -0x144a(%rbp),%ax
    ddcc:	ff 
    ddcd:	0f b7 d8             	movzwl %ax,%ebx
    ddd0:	8b 85 e4 f9 ff ff    	mov    -0x61c(%rbp),%eax
    ddd6:	44 0f b6 e0          	movzbl %al,%r12d
    ddda:	48 8b 05 0f 34 01 00 	mov    0x1340f(%rip),%rax        # 211f0 <g_2701>
    dde1:	48 8b 00             	mov    (%rax),%rax
    dde4:	48 8b 00             	mov    (%rax),%rax
    dde7:	48 8b 00             	mov    (%rax),%rax
    ddea:	48 39 85 d0 ec ff ff 	cmp    %rax,-0x1330(%rbp)
    ddf1:	74 16                	je     de09 <func_48+0x1206>
    ddf3:	48 8b 85 a0 eb ff ff 	mov    -0x1460(%rbp),%rax
    ddfa:	0f b7 00             	movzwl (%rax),%eax
    ddfd:	66 85 c0             	test   %ax,%ax
    de00:	74 07                	je     de09 <func_48+0x1206>
    de02:	ba 01 00 00 00       	mov    $0x1,%edx
    de07:	eb 05                	jmp    de0e <func_48+0x120b>
    de09:	ba 00 00 00 00       	mov    $0x0,%edx
    de0e:	0f be 85 b6 eb ff ff 	movsbl -0x144a(%rbp),%eax
    de15:	39 c2                	cmp    %eax,%edx
    de17:	75 0a                	jne    de23 <func_48+0x1220>
    de19:	8b 85 ac eb ff ff    	mov    -0x1454(%rbp),%eax
    de1f:	85 c0                	test   %eax,%eax
    de21:	74 07                	je     de2a <func_48+0x1227>
    de23:	b8 01 00 00 00       	mov    $0x1,%eax
    de28:	eb 05                	jmp    de2f <func_48+0x122c>
    de2a:	b8 00 00 00 00       	mov    $0x0,%eax
    de2f:	25 34 2a aa 65       	and    $0x65aa2a34,%eax
    de34:	89 c2                	mov    %eax,%edx
    de36:	8b 85 e0 f7 ff ff    	mov    -0x820(%rbp),%eax
    de3c:	21 d0                	and    %edx,%eax
    de3e:	89 c2                	mov    %eax,%edx
    de40:	48 8b 85 d8 ec ff ff 	mov    -0x1328(%rbp),%rax
    de47:	89 10                	mov    %edx,(%rax)
    de49:	48 8b 05 d0 30 01 00 	mov    0x130d0(%rip),%rax        # 20f20 <g_1548>
    de50:	48 8b 00             	mov    (%rax),%rax
    de53:	48 c7 c6 ff ff ff ff 	mov    $0xffffffffffffffff,%rsi
    de5a:	48 89 c7             	mov    %rax,%rdi
    de5d:	e8 52 ab ff ff       	callq  89b4 <safe_mod_func_int64_t_s_s>
    de62:	0f b6 c0             	movzbl %al,%eax
    de65:	44 89 e6             	mov    %r12d,%esi
    de68:	89 c7                	mov    %eax,%edi
    de6a:	e8 24 ad ff ff       	callq  8b93 <safe_mul_func_uint8_t_u_u>
    de6f:	b8 01 00 00 00       	mov    $0x1,%eax
    de74:	09 85 bc eb ff ff    	or     %eax,-0x1444(%rbp)
    de7a:	8b 95 e4 f9 ff ff    	mov    -0x61c(%rbp),%edx
    de80:	8b 85 ac eb ff ff    	mov    -0x1454(%rbp),%eax
    de86:	39 c2                	cmp    %eax,%edx
    de88:	0f 9e c0             	setle  %al
    de8b:	0f b6 d0             	movzbl %al,%edx
    de8e:	8b 85 ac eb ff ff    	mov    -0x1454(%rbp),%eax
    de94:	39 c2                	cmp    %eax,%edx
    de96:	0f 9e c0             	setle  %al
    de99:	0f b6 d0             	movzbl %al,%edx
    de9c:	8b 85 ac eb ff ff    	mov    -0x1454(%rbp),%eax
    dea2:	48 98                	cltq   
    dea4:	48 89 d6             	mov    %rdx,%rsi
    dea7:	48 89 c7             	mov    %rax,%rdi
    deaa:	e8 92 a9 ff ff       	callq  8841 <safe_add_func_int64_t_s_s>
    deaf:	be 01 00 00 00       	mov    $0x1,%esi
    deb4:	bf ea 64 00 00       	mov    $0x64ea,%edi
    deb9:	e8 8a af ff ff       	callq  8e48 <safe_rshift_func_uint16_t_u_s>
    debe:	0f b7 c0             	movzwl %ax,%eax
    dec1:	89 de                	mov    %ebx,%esi
    dec3:	89 c7                	mov    %eax,%edi
    dec5:	e8 35 ae ff ff       	callq  8cff <safe_add_func_uint16_t_u_u>
    deca:	80 bd b6 eb ff ff 00 	cmpb   $0x0,-0x144a(%rbp)
    ded1:	74 07                	je     deda <func_48+0x12d7>
    ded3:	ba 01 00 00 00       	mov    $0x1,%edx
    ded8:	eb 05                	jmp    dedf <func_48+0x12dc>
    deda:	ba 00 00 00 00       	mov    $0x0,%edx
    dedf:	48 8b 05 12 2c 01 00 	mov    0x12c12(%rip),%rax        # 20af8 <g_773>
    dee6:	48 8b 00             	mov    (%rax),%rax
    dee9:	0f b7 00             	movzwl (%rax),%eax
    deec:	98                   	cwtl   
    deed:	39 c2                	cmp    %eax,%edx
    deef:	0f 9f c0             	setg   %al
    def2:	0f b6 d0             	movzbl %al,%edx
    def5:	8b 85 ac eb ff ff    	mov    -0x1454(%rbp),%eax
    defb:	39 c2                	cmp    %eax,%edx
    defd:	0f 9d c0             	setge  %al
    df00:	0f b6 d0             	movzbl %al,%edx
    df03:	48 8b 05 5e 2e 01 00 	mov    0x12e5e(%rip),%rax        # 20d68 <g_960>
    df0a:	48 8b 00             	mov    (%rax),%rax
    df0d:	48 8b 00             	mov    (%rax),%rax
    df10:	0f b6 00             	movzbl (%rax),%eax
    df13:	0f be c0             	movsbl %al,%eax
    df16:	39 c2                	cmp    %eax,%edx
    df18:	0f 84 5e 06 00 00    	je     e57c <func_48+0x1979>
    df1e:	48 8d 05 0b 33 01 00 	lea    0x1330b(%rip),%rax        # 21230 <g_3044+0x10>
    df25:	48 89 85 58 ec ff ff 	mov    %rax,-0x13a8(%rbp)
    df2c:	c7 85 ec eb ff ff ff 	movl   $0xffffffff,-0x1414(%rbp)
    df33:	ff ff ff 
    df36:	48 8d 85 20 f2 ff ff 	lea    -0xde0(%rbp),%rax
    df3d:	48 8d 15 bc a7 00 00 	lea    0xa7bc(%rip),%rdx        # 18700 <g_3221+0x5e8>
    df44:	b9 3f 00 00 00       	mov    $0x3f,%ecx
    df49:	48 89 c7             	mov    %rax,%rdi
    df4c:	48 89 d6             	mov    %rdx,%rsi
    df4f:	f3 48 a5             	rep movsq %ds:(%rsi),%es:(%rdi)
    df52:	c7 85 cc eb ff ff 00 	movl   $0x0,-0x1434(%rbp)
    df59:	00 00 00 
    df5c:	eb 1e                	jmp    df7c <func_48+0x1379>
    df5e:	8b 85 cc eb ff ff    	mov    -0x1434(%rbp),%eax
    df64:	48 98                	cltq   
    df66:	48 8d 15 13 f1 00 00 	lea    0xf113(%rip),%rdx        # 1d080 <g_72>
    df6d:	48 89 94 c5 90 ed ff 	mov    %rdx,-0x1270(%rbp,%rax,8)
    df74:	ff 
    df75:	83 85 cc eb ff ff 01 	addl   $0x1,-0x1434(%rbp)
    df7c:	83 bd cc eb ff ff 00 	cmpl   $0x0,-0x1434(%rbp)
    df83:	7e d9                	jle    df5e <func_48+0x135b>
    df85:	48 8d 85 20 fa ff ff 	lea    -0x5e0(%rbp),%rax
    df8c:	48 8d 15 2d 16 01 00 	lea    0x1162d(%rip),%rdx        # 1f5c0 <g_3508+0xa48>
    df93:	b9 b4 00 00 00       	mov    $0xb4,%ecx
    df98:	48 89 c7             	mov    %rax,%rdi
    df9b:	48 89 d6             	mov    %rdx,%rsi
    df9e:	f3 48 a5             	rep movsq %ds:(%rsi),%es:(%rdi)
    dfa1:	48 8d 85 58 ec ff ff 	lea    -0x13a8(%rbp),%rax
    dfa8:	48 89 85 f8 ec ff ff 	mov    %rax,-0x1308(%rbp)
    dfaf:	48 c7 85 00 ed ff ff 	movq   $0x0,-0x1300(%rbp)
    dfb6:	00 00 00 00 
    dfba:	48 8b 15 37 32 01 00 	mov    0x13237(%rip),%rdx        # 211f8 <g_2744>
    dfc1:	48 8b 05 f8 23 01 00 	mov    0x123f8(%rip),%rax        # 203c0 <g_310>
    dfc8:	48 8b 12             	mov    (%rdx),%rdx
    dfcb:	48 89 10             	mov    %rdx,(%rax)
    dfce:	8b 85 ac eb ff ff    	mov    -0x1454(%rbp),%eax
    dfd4:	48 c7 05 61 32 01 00 	movq   $0x0,0x13261(%rip)        # 21240 <g_3041>
    dfdb:	00 00 00 00 
    dfdf:	89 c6                	mov    %eax,%esi
    dfe1:	bf 01 00 00 00       	mov    $0x1,%edi
    dfe6:	e8 b6 a2 ff ff       	callq  82a1 <safe_lshift_func_int8_t_s_s>
    dfeb:	0f be d0             	movsbl %al,%edx
    dfee:	48 8b 85 a0 eb ff ff 	mov    -0x1460(%rbp),%rax
    dff5:	0f b7 00             	movzwl (%rax),%eax
    dff8:	66 85 c0             	test   %ax,%ax
    dffb:	0f 94 c0             	sete   %al
    dffe:	0f b6 c0             	movzbl %al,%eax
    e001:	89 d6                	mov    %edx,%esi
    e003:	89 c7                	mov    %eax,%edi
    e005:	e8 eb a3 ff ff       	callq  83f5 <safe_mul_func_int16_t_s_s>
    e00a:	0f be c0             	movsbl %al,%eax
    e00d:	89 c6                	mov    %eax,%esi
    e00f:	bf 00 00 00 00       	mov    $0x0,%edi
    e014:	e8 f9 a1 ff ff       	callq  8212 <safe_mul_func_int8_t_s_s>
    e019:	48 8b 05 00 2f 01 00 	mov    0x12f00(%rip),%rax        # 20f20 <g_1548>
    e020:	48 c7 00 00 00 00 00 	movq   $0x0,(%rax)
    e027:	48 8b 00             	mov    (%rax),%rax
    e02a:	48 89 05 3f f0 00 00 	mov    %rax,0xf03f(%rip)        # 1d070 <g_47>
    e031:	48 8b 05 38 f0 00 00 	mov    0xf038(%rip),%rax        # 1d070 <g_47>
    e038:	48 89 c2             	mov    %rax,%rdx
    e03b:	48 b8 f5 95 7c ee af 	movabs $0xd7272aafee7c95f5,%rax
    e042:	2a 27 d7 
    e045:	48 21 d0             	and    %rdx,%rax
    e048:	48 83 f8 f8          	cmp    $0xfffffffffffffff8,%rax
    e04c:	0f 97 c0             	seta   %al
    e04f:	0f b6 c8             	movzbl %al,%ecx
    e052:	48 8d 05 4b 09 01 00 	lea    0x1094b(%rip),%rax        # 1e9a4 <g_1199>
    e059:	8b 10                	mov    (%rax),%edx
    e05b:	48 8d 05 42 09 01 00 	lea    0x10942(%rip),%rax        # 1e9a4 <g_1199>
    e062:	09 ca                	or     %ecx,%edx
    e064:	89 10                	mov    %edx,(%rax)
    e066:	48 8b 05 8b 31 01 00 	mov    0x1318b(%rip),%rax        # 211f8 <g_2744>
    e06d:	48 8b 95 90 ed ff ff 	mov    -0x1270(%rbp),%rdx
    e074:	48 89 10             	mov    %rdx,(%rax)
    e077:	48 8b 95 58 ec ff ff 	mov    -0x13a8(%rbp),%rdx
    e07e:	48 8b 85 f8 ec ff ff 	mov    -0x1308(%rbp),%rax
    e085:	48 89 10             	mov    %rdx,(%rax)
    e088:	48 8b 85 f8 ec ff ff 	mov    -0x1308(%rbp),%rax
    e08f:	48 8b 00             	mov    (%rax),%rax
    e092:	48 8b 15 b7 31 01 00 	mov    0x131b7(%rip),%rdx        # 21250 <g_3048>
    e099:	48 89 95 e0 ec ff ff 	mov    %rdx,-0x1320(%rbp)
    e0a0:	48 39 85 e0 ec ff ff 	cmp    %rax,-0x1320(%rbp)
    e0a7:	0f 95 c0             	setne  %al
    e0aa:	48 8d 15 f3 08 01 00 	lea    0x108f3(%rip),%rdx        # 1e9a4 <g_1199>
    e0b1:	0f b6 c0             	movzbl %al,%eax
    e0b4:	89 02                	mov    %eax,(%rdx)
    e0b6:	8b 95 90 f6 ff ff    	mov    -0x970(%rbp),%edx
    e0bc:	48 83 bd 90 ec ff ff 	cmpq   $0x0,-0x1370(%rbp)
    e0c3:	00 
    e0c4:	0f 95 c0             	setne  %al
    e0c7:	0f b6 c0             	movzbl %al,%eax
    e0ca:	31 d0                	xor    %edx,%eax
    e0cc:	89 85 90 f6 ff ff    	mov    %eax,-0x970(%rbp)
    e0d2:	c7 85 bc eb ff ff 00 	movl   $0x0,-0x1444(%rbp)
    e0d9:	00 00 00 
    e0dc:	e9 89 04 00 00       	jmpq   e56a <func_48+0x1967>
    e0e1:	48 8d 05 98 2d 01 00 	lea    0x12d98(%rip),%rax        # 20e80 <g_1262>
    e0e8:	48 89 85 08 ed ff ff 	mov    %rax,-0x12f8(%rbp)
    e0ef:	c7 85 f0 eb ff ff f7 	movl   $0xfffffff7,-0x1410(%rbp)
    e0f6:	ff ff ff 
    e0f9:	48 8d 85 c0 ed ff ff 	lea    -0x1240(%rbp),%rax
    e100:	48 83 c0 10          	add    $0x10,%rax
    e104:	48 89 85 60 ec ff ff 	mov    %rax,-0x13a0(%rbp)
    e10b:	48 8d 85 60 ec ff ff 	lea    -0x13a0(%rbp),%rax
    e112:	48 89 85 68 ec ff ff 	mov    %rax,-0x1398(%rbp)
    e119:	48 8d 85 68 ec ff ff 	lea    -0x1398(%rbp),%rax
    e120:	48 89 85 10 ed ff ff 	mov    %rax,-0x12f0(%rbp)
    e127:	c7 85 f4 eb ff ff e8 	movl   $0xec5194e8,-0x140c(%rbp)
    e12e:	94 51 ec 
    e131:	c7 85 d0 eb ff ff 00 	movl   $0x0,-0x1430(%rbp)
    e138:	00 00 00 
    e13b:	eb 1e                	jmp    e15b <func_48+0x1558>
    e13d:	8b 85 d0 eb ff ff    	mov    -0x1430(%rbp),%eax
    e143:	48 98                	cltq   
    e145:	48 8d 15 74 37 01 00 	lea    0x13774(%rip),%rdx        # 218c0 <g_2842>
    e14c:	48 89 94 c5 c0 ed ff 	mov    %rdx,-0x1240(%rbp,%rax,8)
    e153:	ff 
    e154:	83 85 d0 eb ff ff 01 	addl   $0x1,-0x1430(%rbp)
    e15b:	83 bd d0 eb ff ff 02 	cmpl   $0x2,-0x1430(%rbp)
    e162:	7e d9                	jle    e13d <func_48+0x153a>
    e164:	48 8b 05 55 22 01 00 	mov    0x12255(%rip),%rax        # 203c0 <g_310>
    e16b:	48 8b 95 90 ed ff ff 	mov    -0x1270(%rbp),%rdx
    e172:	48 89 10             	mov    %rdx,(%rax)
    e175:	8b 85 bc eb ff ff    	mov    -0x1444(%rbp),%eax
    e17b:	83 c0 02             	add    $0x2,%eax
    e17e:	48 98                	cltq   
    e180:	48 8d 14 00          	lea    (%rax,%rax,1),%rdx
    e184:	48 8d 05 b5 05 01 00 	lea    0x105b5(%rip),%rax        # 1e740 <g_555>
    e18b:	0f b7 04 02          	movzwl (%rdx,%rax,1),%eax
    e18f:	0f b7 d8             	movzwl %ax,%ebx
    e192:	48 8b 05 47 09 01 00 	mov    0x10947(%rip),%rax        # 1eae0 <g_3116>
    e199:	48 8b 05 48 09 01 00 	mov    0x10948(%rip),%rax        # 1eae8 <g_3118>
    e1a0:	0f b6 85 19 ee ff ff 	movzbl -0x11e7(%rbp),%eax
    e1a7:	0f be c0             	movsbl %al,%eax
    e1aa:	89 85 f0 eb ff ff    	mov    %eax,-0x1410(%rbp)
    e1b0:	48 8d 05 ed 07 01 00 	lea    0x107ed(%rip),%rax        # 1e9a4 <g_1199>
    e1b7:	8b 10                	mov    (%rax),%edx
    e1b9:	48 83 bd 08 ed ff ff 	cmpq   $0x0,-0x12f8(%rbp)
    e1c0:	00 
    e1c1:	0f 95 c0             	setne  %al
    e1c4:	0f b6 c0             	movzbl %al,%eax
    e1c7:	39 c2                	cmp    %eax,%edx
    e1c9:	0f 95 c0             	setne  %al
    e1cc:	0f b6 c0             	movzbl %al,%eax
    e1cf:	89 c6                	mov    %eax,%esi
    e1d1:	bf 01 00 00 00       	mov    $0x1,%edi
    e1d6:	e8 dd ac ff ff       	callq  8eb8 <safe_add_func_uint32_t_u_u>
    e1db:	31 c3                	xor    %eax,%ebx
    e1dd:	89 d9                	mov    %ebx,%ecx
    e1df:	8b 85 bc eb ff ff    	mov    -0x1444(%rbp),%eax
    e1e5:	83 c0 02             	add    $0x2,%eax
    e1e8:	48 98                	cltq   
    e1ea:	48 8d 14 00          	lea    (%rax,%rax,1),%rdx
    e1ee:	48 8d 05 4b 05 01 00 	lea    0x1054b(%rip),%rax        # 1e740 <g_555>
    e1f5:	0f b7 04 02          	movzwl (%rdx,%rax,1),%eax
    e1f9:	0f b7 c0             	movzwl %ax,%eax
    e1fc:	39 c1                	cmp    %eax,%ecx
    e1fe:	0f 97 c0             	seta   %al
    e201:	0f b6 c0             	movzbl %al,%eax
    e204:	be fe ff 00 00       	mov    $0xfffe,%esi
    e209:	89 c7                	mov    %eax,%edi
    e20b:	e8 4c ab ff ff       	callq  8d5c <safe_mod_func_uint16_t_u_u>
    e210:	48 8b 15 59 2f 01 00 	mov    0x12f59(%rip),%rdx        # 21170 <g_2197>
    e217:	48 8b 05 52 2f 01 00 	mov    0x12f52(%rip),%rax        # 21170 <g_2197>
    e21e:	48 8b 12             	mov    (%rdx),%rdx
    e221:	48 89 10             	mov    %rdx,(%rax)
    e224:	c6 05 f9 f6 00 00 03 	movb   $0x3,0xf6f9(%rip)        # 1d924 <g_281>
    e22b:	e9 24 03 00 00       	jmpq   e554 <func_48+0x1951>
    e230:	c7 85 20 fa ff ff 01 	movl   $0x1,-0x5e0(%rbp)
    e237:	00 00 00 
    e23a:	c7 85 24 fa ff ff 08 	movl   $0x8,-0x5dc(%rbp)
    e241:	00 00 00 
    e244:	c7 85 28 fa ff ff 08 	movl   $0x8,-0x5d8(%rbp)
    e24b:	00 00 00 
    e24e:	c7 85 2c fa ff ff 01 	movl   $0x1,-0x5d4(%rbp)
    e255:	00 00 00 
    e258:	c7 85 30 fa ff ff 08 	movl   $0x8,-0x5d0(%rbp)
    e25f:	00 00 00 
    e262:	c7 85 34 fa ff ff 08 	movl   $0x8,-0x5cc(%rbp)
    e269:	00 00 00 
    e26c:	c7 85 38 fa ff ff 01 	movl   $0x1,-0x5c8(%rbp)
    e273:	00 00 00 
    e276:	c7 85 3c fa ff ff 08 	movl   $0x8,-0x5c4(%rbp)
    e27d:	00 00 00 
    e280:	48 8d 85 10 ec ff ff 	lea    -0x13f0(%rbp),%rax
    e287:	48 89 85 18 ed ff ff 	mov    %rax,-0x12e8(%rbp)
    e28e:	0f b6 05 8f f6 00 00 	movzbl 0xf68f(%rip),%eax        # 1d924 <g_281>
    e295:	0f be c0             	movsbl %al,%eax
    e298:	8b 95 bc eb ff ff    	mov    -0x1444(%rbp),%edx
    e29e:	8d 72 01             	lea    0x1(%rdx),%esi
    e2a1:	0f b6 15 7c f6 00 00 	movzbl 0xf67c(%rip),%edx        # 1d924 <g_281>
    e2a8:	0f be d2             	movsbl %dl,%edx
    e2ab:	48 63 ca             	movslq %edx,%rcx
    e2ae:	48 63 d0             	movslq %eax,%rdx
    e2b1:	48 63 f6             	movslq %esi,%rsi
    e2b4:	48 89 d0             	mov    %rdx,%rax
    e2b7:	48 01 c0             	add    %rax,%rax
    e2ba:	48 01 d0             	add    %rdx,%rax
    e2bd:	48 01 c0             	add    %rax,%rax
    e2c0:	48 01 f0             	add    %rsi,%rax
    e2c3:	48 c1 e0 02          	shl    $0x2,%rax
    e2c7:	48 01 c8             	add    %rcx,%rax
    e2ca:	48 8d 14 00          	lea    (%rax,%rax,1),%rdx
    e2ce:	48 8d 05 eb fd 00 00 	lea    0xfdeb(%rip),%rax        # 1e0c0 <g_417>
    e2d5:	0f b7 14 02          	movzwl (%rdx,%rax,1),%edx
    e2d9:	48 8b 85 e8 ec ff ff 	mov    -0x1318(%rbp),%rax
    e2e0:	48 8b 00             	mov    (%rax),%rax
    e2e3:	48 8b 00             	mov    (%rax),%rax
    e2e6:	48 8b 00             	mov    (%rax),%rax
    e2e9:	0f b7 d2             	movzwl %dx,%edx
    e2ec:	89 10                	mov    %edx,(%rax)
    e2ee:	48 8b 15 93 2a 01 00 	mov    0x12a93(%rip),%rdx        # 20d88 <g_1175>
    e2f5:	8b 00                	mov    (%rax),%eax
    e2f7:	89 02                	mov    %eax,(%rdx)
    e2f9:	c7 05 d5 07 01 00 03 	movl   $0x3,0x107d5(%rip)        # 1ead8 <g_3027>
    e300:	00 00 00 
    e303:	e9 de 01 00 00       	jmpq   e4e6 <func_48+0x18e3>
    e308:	c7 85 f8 eb ff ff ff 	movl   $0xffffffff,-0x1408(%rbp)
    e30f:	ff ff ff 
    e312:	c7 85 fc eb ff ff 3b 	movl   $0x2979f33b,-0x1404(%rbp)
    e319:	f3 79 29 
    e31c:	c7 85 00 ec ff ff 01 	movl   $0x1,-0x1400(%rbp)
    e323:	00 00 00 
    e326:	c7 85 04 ec ff ff e4 	movl   $0x85bbe8e4,-0x13fc(%rbp)
    e32d:	e8 bb 85 
    e330:	c7 85 08 ec ff ff ff 	movl   $0xffffffff,-0x13f8(%rbp)
    e337:	ff ff ff 
    e33a:	c6 85 b8 eb ff ff 26 	movb   $0x26,-0x1448(%rbp)
    e341:	c7 85 c0 eb ff ff 00 	movl   $0x0,-0x1440(%rbp)
    e348:	00 00 00 
    e34b:	eb 1a                	jmp    e367 <func_48+0x1764>
    e34d:	8b 85 c0 eb ff ff    	mov    -0x1440(%rbp),%eax
    e353:	48 98                	cltq   
    e355:	c7 84 85 e0 ed ff ff 	movl   $0x96bf2783,-0x1220(%rbp,%rax,4)
    e35c:	83 27 bf 96 
    e360:	83 85 c0 eb ff ff 01 	addl   $0x1,-0x1440(%rbp)
    e367:	83 bd c0 eb ff ff 05 	cmpl   $0x5,-0x1440(%rbp)
    e36e:	7e dd                	jle    e34d <func_48+0x174a>
    e370:	8b 85 ac eb ff ff    	mov    -0x1454(%rbp),%eax
    e376:	48 63 f0             	movslq %eax,%rsi
    e379:	8b 05 59 07 01 00    	mov    0x10759(%rip),%eax        # 1ead8 <g_3027>
    e37f:	8d 48 05             	lea    0x5(%rax),%ecx
    e382:	0f b6 05 9b f5 00 00 	movzbl 0xf59b(%rip),%eax        # 1d924 <g_281>
    e389:	0f be d0             	movsbl %al,%edx
    e38c:	0f b6 05 91 f5 00 00 	movzbl 0xf591(%rip),%eax        # 1d924 <g_281>
    e393:	0f be c0             	movsbl %al,%eax
    e396:	83 c0 01             	add    $0x1,%eax
    e399:	48 63 f8             	movslq %eax,%rdi
    e39c:	48 63 c1             	movslq %ecx,%rax
    e39f:	48 63 ca             	movslq %edx,%rcx
    e3a2:	48 89 c2             	mov    %rax,%rdx
    e3a5:	48 01 d2             	add    %rdx,%rdx
    e3a8:	48 01 c2             	add    %rax,%rdx
    e3ab:	48 8d 04 d5 00 00 00 	lea    0x0(,%rdx,8),%rax
    e3b2:	00 
    e3b3:	48 89 c2             	mov    %rax,%rdx
    e3b6:	48 89 c8             	mov    %rcx,%rax
    e3b9:	48 01 c0             	add    %rax,%rax
    e3bc:	48 01 c8             	add    %rcx,%rax
    e3bf:	48 01 c0             	add    %rax,%rax
    e3c2:	48 01 d0             	add    %rdx,%rax
    e3c5:	48 01 f8             	add    %rdi,%rax
    e3c8:	8b 84 85 60 f6 ff ff 	mov    -0x9a0(%rbp,%rax,4),%eax
    e3cf:	48 98                	cltq   
    e3d1:	48 89 c7             	mov    %rax,%rdi
    e3d4:	e8 db a5 ff ff       	callq  89b4 <safe_mod_func_int64_t_s_s>
    e3d9:	89 85 28 fa ff ff    	mov    %eax,-0x5d8(%rbp)
    e3df:	48 8b 85 40 ec ff ff 	mov    -0x13c0(%rbp),%rax
    e3e6:	48 8b 00             	mov    (%rax),%rax
    e3e9:	48 8b 00             	mov    (%rax),%rax
    e3ec:	c7 00 ff ff ff ff    	movl   $0xffffffff,(%rax)
    e3f2:	48 8b 05 27 2b 01 00 	mov    0x12b27(%rip),%rax        # 20f20 <g_1548>
    e3f9:	48 8b 10             	mov    (%rax),%rdx
    e3fc:	48 8b 05 1d 2b 01 00 	mov    0x12b1d(%rip),%rax        # 20f20 <g_1548>
    e403:	48 8b 00             	mov    (%rax),%rax
    e406:	48 85 c0             	test   %rax,%rax
    e409:	0f 95 c0             	setne  %al
    e40c:	0f b6 c0             	movzbl %al,%eax
    e40f:	48 98                	cltq   
    e411:	48 39 c2             	cmp    %rax,%rdx
    e414:	0f 9e c0             	setle  %al
    e417:	0f b6 d0             	movzbl %al,%edx
    e41a:	b8 06 00 00 00       	mov    $0x6,%eax
    e41f:	0f be c0             	movsbl %al,%eax
    e422:	39 c2                	cmp    %eax,%edx
    e424:	0f 95 c0             	setne  %al
    e427:	0f b6 d0             	movzbl %al,%edx
    e42a:	48 8b 05 5f 34 01 00 	mov    0x1345f(%rip),%rax        # 21890 <g_1856>
    e431:	48 89 05 58 34 01 00 	mov    %rax,0x13458(%rip)        # 21890 <g_1856>
    e438:	48 8b 05 51 34 01 00 	mov    0x13451(%rip),%rax        # 21890 <g_1856>
    e43f:	48 39 85 10 ed ff ff 	cmp    %rax,-0x12f0(%rbp)
    e446:	0f 95 c0             	setne  %al
    e449:	0f b6 c0             	movzbl %al,%eax
    e44c:	89 d6                	mov    %edx,%esi
    e44e:	89 c7                	mov    %eax,%edi
    e450:	e8 05 a7 ff ff       	callq  8b5a <safe_add_func_uint8_t_u_u>
    e455:	0f b6 d0             	movzbl %al,%edx
    e458:	48 8b 05 69 1f 01 00 	mov    0x11f69(%rip),%rax        # 203c8 <g_356>
    e45f:	0f b7 00             	movzwl (%rax),%eax
    e462:	0f b7 c0             	movzwl %ax,%eax
    e465:	89 d6                	mov    %edx,%esi
    e467:	89 c7                	mov    %eax,%edi
    e469:	e8 20 a9 ff ff       	callq  8d8e <safe_div_func_uint16_t_u_u>
    e46e:	0f b7 c0             	movzwl %ax,%eax
    e471:	be f6 ff 00 00       	mov    $0xfff6,%esi
    e476:	89 c7                	mov    %eax,%edi
    e478:	e8 df a8 ff ff       	callq  8d5c <safe_mod_func_uint16_t_u_u>
    e47d:	48 8b 85 18 ed ff ff 	mov    -0x12e8(%rbp),%rax
    e484:	48 3b 85 f0 ec ff ff 	cmp    -0x1310(%rbp),%rax
    e48b:	0f 95 c0             	setne  %al
    e48e:	0f b6 c0             	movzbl %al,%eax
    e491:	be 01 00 00 00       	mov    $0x1,%esi
    e496:	48 89 c7             	mov    %rax,%rdi
    e499:	e8 ad ab ff ff       	callq  904b <safe_sub_func_uint64_t_u_u>
    e49e:	48 89 c2             	mov    %rax,%rdx
    e4a1:	48 8b 05 e0 28 01 00 	mov    0x128e0(%rip),%rax        # 20d88 <g_1175>
    e4a8:	89 10                	mov    %edx,(%rax)
    e4aa:	8b 00                	mov    (%rax),%eax
    e4ac:	89 85 40 f7 ff ff    	mov    %eax,-0x8c0(%rbp)
    e4b2:	8b 95 40 f7 ff ff    	mov    -0x8c0(%rbp),%edx
    e4b8:	8b 85 8c ed ff ff    	mov    -0x1274(%rbp),%eax
    e4be:	21 d0                	and    %edx,%eax
    e4c0:	89 85 8c ed ff ff    	mov    %eax,-0x1274(%rbp)
    e4c6:	0f b7 85 40 f2 ff ff 	movzwl -0xdc0(%rbp),%eax
    e4cd:	83 c0 01             	add    $0x1,%eax
    e4d0:	66 89 85 40 f2 ff ff 	mov    %ax,-0xdc0(%rbp)
    e4d7:	8b 05 fb 05 01 00    	mov    0x105fb(%rip),%eax        # 1ead8 <g_3027>
    e4dd:	83 e8 01             	sub    $0x1,%eax
    e4e0:	89 05 f2 05 01 00    	mov    %eax,0x105f2(%rip)        # 1ead8 <g_3027>
    e4e6:	8b 05 ec 05 01 00    	mov    0x105ec(%rip),%eax        # 1ead8 <g_3027>
    e4ec:	85 c0                	test   %eax,%eax
    e4ee:	0f 89 14 fe ff ff    	jns    e308 <func_48+0x1705>
    e4f4:	48 c7 05 b9 33 01 00 	movq   $0x0,0x133b9(%rip)        # 218b8 <g_2678>
    e4fb:	00 00 00 00 
    e4ff:	eb 27                	jmp    e528 <func_48+0x1925>
    e501:	48 8d 05 9c 04 01 00 	lea    0x1049c(%rip),%rax        # 1e9a4 <g_1199>
    e508:	8b 10                	mov    (%rax),%edx
    e50a:	48 8d 05 93 04 01 00 	lea    0x10493(%rip),%rax        # 1e9a4 <g_1199>
    e511:	83 f2 fd             	xor    $0xfffffffd,%edx
    e514:	89 10                	mov    %edx,(%rax)
    e516:	48 8b 05 9b 33 01 00 	mov    0x1339b(%rip),%rax        # 218b8 <g_2678>
    e51d:	48 83 c0 01          	add    $0x1,%rax
    e521:	48 89 05 90 33 01 00 	mov    %rax,0x13390(%rip)        # 218b8 <g_2678>
    e528:	48 8b 05 89 33 01 00 	mov    0x13389(%rip),%rax        # 218b8 <g_2678>
    e52f:	48 83 f8 08          	cmp    $0x8,%rax
    e533:	7e cc                	jle    e501 <func_48+0x18fe>
    e535:	8b 05 41 eb 00 00    	mov    0xeb41(%rip),%eax        # 1d07c <g_70>
    e53b:	85 c0                	test   %eax,%eax
    e53d:	74 05                	je     e544 <func_48+0x1941>
    e53f:	e9 56 f1 ff ff       	jmpq   d69a <func_48+0xa97>
    e544:	0f b6 05 d9 f3 00 00 	movzbl 0xf3d9(%rip),%eax        # 1d924 <g_281>
    e54b:	83 e8 01             	sub    $0x1,%eax
    e54e:	88 05 d0 f3 00 00    	mov    %al,0xf3d0(%rip)        # 1d924 <g_281>
    e554:	0f b6 05 c9 f3 00 00 	movzbl 0xf3c9(%rip),%eax        # 1d924 <g_281>
    e55b:	84 c0                	test   %al,%al
    e55d:	0f 89 cd fc ff ff    	jns    e230 <func_48+0x162d>
    e563:	83 85 bc eb ff ff 01 	addl   $0x1,-0x1444(%rbp)
    e56a:	83 bd bc eb ff ff 03 	cmpl   $0x3,-0x1444(%rbp)
    e571:	0f 8e 6a fb ff ff    	jle    e0e1 <func_48+0x14de>
    e577:	e9 8a 00 00 00       	jmpq   e606 <func_48+0x1a03>
    e57c:	c6 85 b7 eb ff ff fe 	movb   $0xfe,-0x1449(%rbp)
    e583:	48 8d 05 1a 04 01 00 	lea    0x1041a(%rip),%rax        # 1e9a4 <g_1199>
    e58a:	8b 08                	mov    (%rax),%ecx
    e58c:	0f b6 85 19 ee ff ff 	movzbl -0x11e7(%rbp),%eax
    e593:	0f be d0             	movsbl %al,%edx
    e596:	48 8d 05 07 04 01 00 	lea    0x10407(%rip),%rax        # 1e9a4 <g_1199>
    e59d:	09 ca                	or     %ecx,%edx
    e59f:	89 10                	mov    %edx,(%rax)
    e5a1:	80 ad b7 eb ff ff 01 	subb   $0x1,-0x1449(%rbp)
    e5a8:	c7 05 9a 32 01 00 00 	movl   $0x0,0x1329a(%rip)        # 2184c <g_75>
    e5af:	00 00 00 
    e5b2:	eb 24                	jmp    e5d8 <func_48+0x19d5>
    e5b4:	48 8d 05 e9 03 01 00 	lea    0x103e9(%rip),%rax        # 1e9a4 <g_1199>
    e5bb:	8b 10                	mov    (%rax),%edx
    e5bd:	48 8d 05 e0 03 01 00 	lea    0x103e0(%rip),%rax        # 1e9a4 <g_1199>
    e5c4:	83 ca f9             	or     $0xfffffff9,%edx
    e5c7:	89 10                	mov    %edx,(%rax)
    e5c9:	8b 05 7d 32 01 00    	mov    0x1327d(%rip),%eax        # 2184c <g_75>
    e5cf:	83 c0 01             	add    $0x1,%eax
    e5d2:	89 05 74 32 01 00    	mov    %eax,0x13274(%rip)        # 2184c <g_75>
    e5d8:	8b 05 6e 32 01 00    	mov    0x1326e(%rip),%eax        # 2184c <g_75>
    e5de:	83 f8 08             	cmp    $0x8,%eax
    e5e1:	77 d1                	ja     e5b4 <func_48+0x19b1>
    e5e3:	66 c7 05 d8 04 01 00 	movw   $0xffed,0x104d8(%rip)        # 1eac4 <g_2812>
    e5ea:	ed ff 
    e5ec:	90                   	nop
    e5ed:	0f b7 05 d0 04 01 00 	movzwl 0x104d0(%rip),%eax        # 1eac4 <g_2812>
    e5f4:	66 83 f8 05          	cmp    $0x5,%ax
    e5f8:	74 0c                	je     e606 <func_48+0x1a03>
    e5fa:	0f b6 85 24 ee ff ff 	movzbl -0x11dc(%rbp),%eax
    e601:	e9 98 02 00 00       	jmpq   e89e <func_48+0x1c9b>
    e606:	48 8b 85 40 ec ff ff 	mov    -0x13c0(%rbp),%rax
    e60d:	48 8b 00             	mov    (%rax),%rax
    e610:	48 8b 00             	mov    (%rax),%rax
    e613:	8b 00                	mov    (%rax),%eax
    e615:	e9 84 02 00 00       	jmpq   e89e <func_48+0x1c9b>
    e61a:	48 8b 85 b8 ec ff ff 	mov    -0x1348(%rbp),%rax
    e621:	0f b7 d8             	movzwl %ax,%ebx
    e624:	48 8b 05 f5 28 01 00 	mov    0x128f5(%rip),%rax        # 20f20 <g_1548>
    e62b:	4c 8b 20             	mov    (%rax),%r12
    e62e:	48 8b 05 d3 24 01 00 	mov    0x124d3(%rip),%rax        # 20b08 <g_793>
    e635:	0f b6 00             	movzbl (%rax),%eax
    e638:	0f b6 d0             	movzbl %al,%edx
    e63b:	8b 85 9c ed ff ff    	mov    -0x1264(%rbp),%eax
    e641:	39 c2                	cmp    %eax,%edx
    e643:	0f 9c c0             	setl   %al
    e646:	89 c2                	mov    %eax,%edx
    e648:	0f b6 85 77 ee ff ff 	movzbl -0x1189(%rbp),%eax
    e64f:	31 d0                	xor    %edx,%eax
    e651:	0f be d0             	movsbl %al,%edx
    e654:	48 8b 0d 05 2c 01 00 	mov    0x12c05(%rip),%rcx        # 21260 <g_3172>
    e65b:	48 8b 85 a0 ec ff ff 	mov    -0x1360(%rbp),%rax
    e662:	48 89 08             	mov    %rcx,(%rax)
    e665:	48 8b 85 a0 ec ff ff 	mov    -0x1360(%rbp),%rax
    e66c:	48 8b 08             	mov    (%rax),%rcx
    e66f:	48 8b 85 a8 ec ff ff 	mov    -0x1358(%rbp),%rax
    e676:	48 8d 35 db 2b 01 00 	lea    0x12bdb(%rip),%rsi        # 21258 <g_3173>
    e67d:	48 89 30             	mov    %rsi,(%rax)
    e680:	48 8b 85 a8 ec ff ff 	mov    -0x1358(%rbp),%rax
    e687:	48 8b 00             	mov    (%rax),%rax
    e68a:	48 39 c1             	cmp    %rax,%rcx
    e68d:	0f 95 c1             	setne  %cl
    e690:	81 bd bc eb ff ff a6 	cmpl   $0x27a6,-0x1444(%rbp)
    e697:	27 00 00 
    e69a:	0f 95 c0             	setne  %al
    e69d:	09 c8                	or     %ecx,%eax
    e69f:	0f b6 c0             	movzbl %al,%eax
    e6a2:	89 d6                	mov    %edx,%esi
    e6a4:	89 c7                	mov    %eax,%edi
    e6a6:	e8 86 9b ff ff       	callq  8231 <safe_mod_func_int8_t_s_s>
    e6ab:	0f be c0             	movsbl %al,%eax
    e6ae:	be 66 d7 ff ff       	mov    $0xffffd766,%esi
    e6b3:	89 c7                	mov    %eax,%edi
    e6b5:	e8 f9 9c ff ff       	callq  83b3 <safe_add_func_int16_t_s_s>
    e6ba:	0f bf d0             	movswl %ax,%edx
    e6bd:	0f b6 85 4b ee ff ff 	movzbl -0x11b5(%rbp),%eax
    e6c4:	0f b6 c0             	movzbl %al,%eax
    e6c7:	8b 8d ac eb ff ff    	mov    -0x1454(%rbp),%ecx
    e6cd:	09 c8                	or     %ecx,%eax
    e6cf:	98                   	cwtl   
    e6d0:	89 d6                	mov    %edx,%esi
    e6d2:	89 c7                	mov    %eax,%edi
    e6d4:	e8 1c 9d ff ff       	callq  83f5 <safe_mul_func_int16_t_s_s>
    e6d9:	48 8b 85 b0 ec ff ff 	mov    -0x1350(%rbp),%rax
    e6e0:	4c 89 e6             	mov    %r12,%rsi
    e6e3:	48 89 c7             	mov    %rax,%rdi
    e6e6:	e8 56 a1 ff ff       	callq  8841 <safe_add_func_int64_t_s_s>
    e6eb:	48 8b 85 98 ec ff ff 	mov    -0x1368(%rbp),%rax
    e6f2:	48 8b 95 90 ec ff ff 	mov    -0x1370(%rbp),%rdx
    e6f9:	48 89 10             	mov    %rdx,(%rax)
    e6fc:	48 8b 85 98 ec ff ff 	mov    -0x1368(%rbp),%rax
    e703:	48 8b 00             	mov    (%rax),%rax
    e706:	48 85 c0             	test   %rax,%rax
    e709:	0f 95 c0             	setne  %al
    e70c:	0f b6 c0             	movzbl %al,%eax
    e70f:	48 8b 8d 78 ec ff ff 	mov    -0x1388(%rbp),%rcx
    e716:	48 8b 95 90 ec ff ff 	mov    -0x1370(%rbp),%rdx
    e71d:	49 89 c8             	mov    %rcx,%r8
    e720:	89 d9                	mov    %ebx,%ecx
    e722:	be 00 00 00 00       	mov    $0x0,%esi
    e727:	48 89 c7             	mov    %rax,%rdi
    e72a:	e8 ac 55 00 00       	callq  13cdb <func_92>
    e72f:	48 8b 95 c0 ec ff ff 	mov    -0x1340(%rbp),%rdx
    e736:	48 89 02             	mov    %rax,(%rdx)
    e739:	48 8b 05 28 2a 01 00 	mov    0x12a28(%rip),%rax        # 21168 <g_2100>
    e740:	48 8b 95 c0 ec ff ff 	mov    -0x1340(%rbp),%rdx
    e747:	48 8b 12             	mov    (%rdx),%rdx
    e74a:	48 89 10             	mov    %rdx,(%rax)
    e74d:	48 c7 05 48 f1 00 00 	movq   $0x0,0xf148(%rip)        # 1d8a0 <g_187>
    e754:	00 00 00 00 
    e758:	e9 24 01 00 00       	jmpq   e881 <func_48+0x1c7e>
    e75d:	48 8d 05 ec 30 01 00 	lea    0x130ec(%rip),%rax        # 21850 <g_149>
    e764:	48 89 85 c8 ec ff ff 	mov    %rax,-0x1338(%rbp)
    e76b:	48 8d 05 4e 03 01 00 	lea    0x1034e(%rip),%rax        # 1eac0 <g_2720>
    e772:	48 89 85 20 fa ff ff 	mov    %rax,-0x5e0(%rbp)
    e779:	48 8d 05 40 03 01 00 	lea    0x10340(%rip),%rax        # 1eac0 <g_2720>
    e780:	48 89 85 28 fa ff ff 	mov    %rax,-0x5d8(%rbp)
    e787:	48 8d 05 32 03 01 00 	lea    0x10332(%rip),%rax        # 1eac0 <g_2720>
    e78e:	48 89 85 30 fa ff ff 	mov    %rax,-0x5d0(%rbp)
    e795:	48 8d 05 24 03 01 00 	lea    0x10324(%rip),%rax        # 1eac0 <g_2720>
    e79c:	48 89 85 38 fa ff ff 	mov    %rax,-0x5c8(%rbp)
    e7a3:	48 8d 05 16 03 01 00 	lea    0x10316(%rip),%rax        # 1eac0 <g_2720>
    e7aa:	48 89 85 40 fa ff ff 	mov    %rax,-0x5c0(%rbp)
    e7b1:	48 8d 05 08 03 01 00 	lea    0x10308(%rip),%rax        # 1eac0 <g_2720>
    e7b8:	48 89 85 48 fa ff ff 	mov    %rax,-0x5b8(%rbp)
    e7bf:	48 8d 05 fa 02 01 00 	lea    0x102fa(%rip),%rax        # 1eac0 <g_2720>
    e7c6:	48 89 85 50 fa ff ff 	mov    %rax,-0x5b0(%rbp)
    e7cd:	c7 85 e0 eb ff ff 05 	movl   $0x5,-0x1420(%rbp)
    e7d4:	00 00 00 
    e7d7:	83 85 e0 eb ff ff 01 	addl   $0x1,-0x1420(%rbp)
    e7de:	66 c7 05 6d ff 00 00 	movw   $0x3,0xff6d(%rip)        # 1e754 <g_605>
    e7e5:	03 00 
    e7e7:	90                   	nop
    e7e8:	0f b7 05 65 ff 00 00 	movzwl 0xff65(%rip),%eax        # 1e754 <g_605>
    e7ef:	66 85 c0             	test   %ax,%ax
    e7f2:	78 5d                	js     e851 <func_48+0x1c4e>
    e7f4:	c7 85 c4 eb ff ff ff 	movl   $0xffffffff,-0x143c(%rbp)
    e7fb:	ff ff ff 
    e7fe:	66 c7 05 61 e8 00 00 	movw   $0x1,0xe861(%rip)        # 1d068 <g_44>
    e805:	01 00 
    e807:	eb 33                	jmp    e83c <func_48+0x1c39>
    e809:	48 8b 85 c0 ec ff ff 	mov    -0x1340(%rbp),%rax
    e810:	48 8b 00             	mov    (%rax),%rax
    e813:	8b 10                	mov    (%rax),%edx
    e815:	48 8b 85 c0 ec ff ff 	mov    -0x1340(%rbp),%rax
    e81c:	48 8b 00             	mov    (%rax),%rax
    e81f:	83 ca 02             	or     $0x2,%edx
    e822:	89 10                	mov    %edx,(%rax)
    e824:	83 ad c4 eb ff ff 01 	subl   $0x1,-0x143c(%rbp)
    e82b:	0f b7 05 36 e8 00 00 	movzwl 0xe836(%rip),%eax        # 1d068 <g_44>
    e832:	83 c0 01             	add    $0x1,%eax
    e835:	66 89 05 2c e8 00 00 	mov    %ax,0xe82c(%rip)        # 1d068 <g_44>
    e83c:	0f b7 05 25 e8 00 00 	movzwl 0xe825(%rip),%eax        # 1d068 <g_44>
    e843:	66 83 f8 04          	cmp    $0x4,%ax
    e847:	76 c0                	jbe    e809 <func_48+0x1c06>
    e849:	8b 85 ac eb ff ff    	mov    -0x1454(%rbp),%eax
    e84f:	eb 4d                	jmp    e89e <func_48+0x1c9b>
    e851:	66 c7 05 fa fe 00 00 	movw   $0x3,0xfefa(%rip)        # 1e754 <g_605>
    e858:	03 00 
    e85a:	90                   	nop
    e85b:	0f b7 05 f2 fe 00 00 	movzwl 0xfef2(%rip),%eax        # 1e754 <g_605>
    e862:	66 85 c0             	test   %ax,%ax
    e865:	78 08                	js     e86f <func_48+0x1c6c>
    e867:	8b 85 ac eb ff ff    	mov    -0x1454(%rbp),%eax
    e86d:	eb 2f                	jmp    e89e <func_48+0x1c9b>
    e86f:	48 8b 05 2a f0 00 00 	mov    0xf02a(%rip),%rax        # 1d8a0 <g_187>
    e876:	48 83 c0 01          	add    $0x1,%rax
    e87a:	48 89 05 1f f0 00 00 	mov    %rax,0xf01f(%rip)        # 1d8a0 <g_187>
    e881:	48 8b 05 18 f0 00 00 	mov    0xf018(%rip),%rax        # 1d8a0 <g_187>
    e888:	48 83 f8 03          	cmp    $0x3,%rax
    e88c:	0f 86 cb fe ff ff    	jbe    e75d <func_48+0x1b5a>
    e892:	48 8b 85 c0 ec ff ff 	mov    -0x1340(%rbp),%rax
    e899:	48 8b 00             	mov    (%rax),%rax
    e89c:	8b 00                	mov    (%rax),%eax
    e89e:	48 8b 5d c8          	mov    -0x38(%rbp),%rbx
    e8a2:	64 48 33 1c 25 28 00 	xor    %fs:0x28,%rbx
    e8a9:	00 00 
    e8ab:	74 05                	je     e8b2 <func_48+0x1caf>
    e8ad:	e8 be 97 ff ff       	callq  8070 <__stack_chk_fail@plt>
    e8b2:	48 81 c4 38 14 00 00 	add    $0x1438,%rsp
    e8b9:	5b                   	pop    %rbx
    e8ba:	41 5c                	pop    %r12
    e8bc:	41 5d                	pop    %r13
    e8be:	41 5e                	pop    %r14
    e8c0:	41 5f                	pop    %r15
    e8c2:	5d                   	pop    %rbp
    e8c3:	c3                   	retq   

000000000000e8c4 <func_53>:
    e8c4:	f3 0f 1e fa          	endbr64 
    e8c8:	55                   	push   %rbp
    e8c9:	48 89 e5             	mov    %rsp,%rbp
    e8cc:	41 54                	push   %r12
    e8ce:	53                   	push   %rbx
    e8cf:	48 81 ec 80 07 00 00 	sub    $0x780,%rsp
    e8d6:	89 f8                	mov    %edi,%eax
    e8d8:	66 89 85 7c f8 ff ff 	mov    %ax,-0x784(%rbp)
    e8df:	64 48 8b 04 25 28 00 	mov    %fs:0x28,%rax
    e8e6:	00 00 
    e8e8:	48 89 45 e8          	mov    %rax,-0x18(%rbp)
    e8ec:	31 c0                	xor    %eax,%eax
    e8ee:	48 b8 61 19 4c 83 bd 	movabs $0x71f5febd834c1961,%rax
    e8f5:	fe f5 71 
    e8f8:	48 89 85 d8 f8 ff ff 	mov    %rax,-0x728(%rbp)
    e8ff:	c7 85 ac f8 ff ff 9b 	movl   $0x2af5da9b,-0x754(%rbp)
    e906:	da f5 2a 
    e909:	c7 85 b0 f8 ff ff ff 	movl   $0xffffffff,-0x750(%rbp)
    e910:	ff ff ff 
    e913:	c7 85 b4 f8 ff ff e2 	movl   $0xef48a4e2,-0x74c(%rbp)
    e91a:	a4 48 ef 
    e91d:	c6 85 8f f8 ff ff fa 	movb   $0xfa,-0x771(%rbp)
    e924:	48 c7 85 e0 f8 ff ff 	movq   $0x0,-0x720(%rbp)
    e92b:	00 00 00 00 
    e92f:	48 c7 85 e8 f8 ff ff 	movq   $0x0,-0x718(%rbp)
    e936:	00 00 00 00 
    e93a:	48 8d 05 a7 28 01 00 	lea    0x128a7(%rip),%rax        # 211e8 <g_2702>
    e941:	48 89 85 20 fa ff ff 	mov    %rax,-0x5e0(%rbp)
    e948:	48 c7 85 28 fa ff ff 	movq   $0x0,-0x5d8(%rbp)
    e94f:	00 00 00 00 
    e953:	48 c7 85 30 fa ff ff 	movq   $0x0,-0x5d0(%rbp)
    e95a:	00 00 00 00 
    e95e:	48 8d 05 83 28 01 00 	lea    0x12883(%rip),%rax        # 211e8 <g_2702>
    e965:	48 89 85 38 fa ff ff 	mov    %rax,-0x5c8(%rbp)
    e96c:	48 c7 85 40 fa ff ff 	movq   $0x0,-0x5c0(%rbp)
    e973:	00 00 00 00 
    e977:	48 c7 85 48 fa ff ff 	movq   $0x0,-0x5b8(%rbp)
    e97e:	00 00 00 00 
    e982:	48 8d 05 5f 28 01 00 	lea    0x1285f(%rip),%rax        # 211e8 <g_2702>
    e989:	48 89 85 50 fa ff ff 	mov    %rax,-0x5b0(%rbp)
    e990:	48 c7 85 f0 f8 ff ff 	movq   $0x0,-0x710(%rbp)
    e997:	00 00 00 00 
    e99b:	c6 85 90 f8 ff ff f6 	movb   $0xf6,-0x770(%rbp)
    e9a2:	48 8d 85 f0 fb ff ff 	lea    -0x410(%rbp),%rax
    e9a9:	48 8d 15 50 9f 00 00 	lea    0x9f50(%rip),%rdx        # 18900 <g_3221+0x7e8>
    e9b0:	b9 7e 00 00 00       	mov    $0x7e,%ecx
    e9b5:	48 89 c7             	mov    %rax,%rdi
    e9b8:	48 89 d6             	mov    %rdx,%rsi
    e9bb:	f3 48 a5             	rep movsq %ds:(%rsi),%es:(%rdi)
    e9be:	48 c7 85 f8 f8 ff ff 	movq   $0x0,-0x708(%rbp)
    e9c5:	00 00 00 00 
    e9c9:	48 8d 05 70 00 01 00 	lea    0x10070(%rip),%rax        # 1ea40 <g_1950>
    e9d0:	48 89 85 00 f9 ff ff 	mov    %rax,-0x700(%rbp)
    e9d7:	48 c7 05 be ee 00 00 	movq   $0x2,0xeebe(%rip)        # 1d8a0 <g_187>
    e9de:	02 00 00 00 
    e9e2:	e9 26 06 00 00       	jmpq   f00d <func_53+0x749>
    e9e7:	48 c7 85 08 f9 ff ff 	movq   $0x0,-0x6f8(%rbp)
    e9ee:	00 00 00 00 
    e9f2:	48 8d 05 ab ff 00 00 	lea    0xffab(%rip),%rax        # 1e9a4 <g_1199>
    e9f9:	48 89 85 10 f9 ff ff 	mov    %rax,-0x6f0(%rbp)
    ea00:	c7 85 9c f8 ff ff fe 	movl   $0xfffffffe,-0x764(%rbp)
    ea07:	ff ff ff 
    ea0a:	48 c7 85 18 f9 ff ff 	movq   $0x0,-0x6e8(%rbp)
    ea11:	00 00 00 00 
    ea15:	48 8d 05 88 ff 00 00 	lea    0xff88(%rip),%rax        # 1e9a4 <g_1199>
    ea1c:	48 89 85 20 f9 ff ff 	mov    %rax,-0x6e0(%rbp)
    ea23:	48 8d 85 9c f8 ff ff 	lea    -0x764(%rbp),%rax
    ea2a:	48 89 85 28 f9 ff ff 	mov    %rax,-0x6d8(%rbp)
    ea31:	66 c7 85 80 f9 ff ff 	movw   $0xff04,-0x680(%rbp)
    ea38:	04 ff 
    ea3a:	66 c7 85 82 f9 ff ff 	movw   $0xd4d4,-0x67e(%rbp)
    ea41:	d4 d4 
    ea43:	66 c7 85 84 f9 ff ff 	movw   $0xffd4,-0x67c(%rbp)
    ea4a:	d4 ff 
    ea4c:	66 c7 85 86 f9 ff ff 	movw   $0x104,-0x67a(%rbp)
    ea53:	04 01 
    ea55:	66 c7 85 88 f9 ff ff 	movw   $0x1ff,-0x678(%rbp)
    ea5c:	ff 01 
    ea5e:	66 c7 85 8a f9 ff ff 	movw   $0xff04,-0x676(%rbp)
    ea65:	04 ff 
    ea67:	66 c7 85 8c f9 ff ff 	movw   $0xd4d4,-0x674(%rbp)
    ea6e:	d4 d4 
    ea70:	66 c7 85 8e f9 ff ff 	movw   $0xffd4,-0x672(%rbp)
    ea77:	d4 ff 
    ea79:	66 c7 85 90 f9 ff ff 	movw   $0x104,-0x670(%rbp)
    ea80:	04 01 
    ea82:	66 c7 85 92 f9 ff ff 	movw   $0x1ff,-0x66e(%rbp)
    ea89:	ff 01 
    ea8b:	c6 85 91 f8 ff ff ff 	movb   $0xff,-0x76f(%rbp)
    ea92:	c6 85 92 f8 ff ff f6 	movb   $0xf6,-0x76e(%rbp)
    ea99:	48 c7 85 30 f9 ff ff 	movq   $0x0,-0x6d0(%rbp)
    eaa0:	00 00 00 00 
    eaa4:	66 c7 85 96 f8 ff ff 	movw   $0xfff8,-0x76a(%rbp)
    eaab:	f8 ff 
    eaad:	c7 85 b0 fa ff ff 66 	movl   $0x6cb4c166,-0x550(%rbp)
    eab4:	c1 b4 6c 
    eab7:	c7 85 b4 fa ff ff 01 	movl   $0x1,-0x54c(%rbp)
    eabe:	00 00 00 
    eac1:	c7 85 b8 fa ff ff f7 	movl   $0xfffffff7,-0x548(%rbp)
    eac8:	ff ff ff 
    eacb:	c7 85 bc fa ff ff f6 	movl   $0xfffffff6,-0x544(%rbp)
    ead2:	ff ff ff 
    ead5:	c7 85 c0 fa ff ff 01 	movl   $0x1,-0x540(%rbp)
    eadc:	00 00 00 
    eadf:	c7 85 c4 fa ff ff f4 	movl   $0x493b4f4,-0x53c(%rbp)
    eae6:	b4 93 04 
    eae9:	c7 85 c8 fa ff ff 00 	movl   $0x0,-0x538(%rbp)
    eaf0:	00 00 00 
    eaf3:	c7 85 cc fa ff ff f4 	movl   $0x493b4f4,-0x534(%rbp)
    eafa:	b4 93 04 
    eafd:	c7 85 d0 fa ff ff f6 	movl   $0xfffffff6,-0x530(%rbp)
    eb04:	ff ff ff 
    eb07:	c7 85 d4 fa ff ff 05 	movl   $0x797d0e05,-0x52c(%rbp)
    eb0e:	0e 7d 79 
    eb11:	c7 85 d8 fa ff ff f8 	movl   $0xfffffff8,-0x528(%rbp)
    eb18:	ff ff ff 
    eb1b:	c7 85 dc fa ff ff 05 	movl   $0x797d0e05,-0x524(%rbp)
    eb22:	0e 7d 79 
    eb25:	c7 85 e0 fa ff ff f6 	movl   $0xfffffff6,-0x520(%rbp)
    eb2c:	ff ff ff 
    eb2f:	c7 85 e4 fa ff ff f4 	movl   $0x493b4f4,-0x51c(%rbp)
    eb36:	b4 93 04 
    eb39:	c7 85 e8 fa ff ff 06 	movl   $0x6,-0x518(%rbp)
    eb40:	00 00 00 
    eb43:	c7 85 ec fa ff ff 01 	movl   $0x1,-0x514(%rbp)
    eb4a:	00 00 00 
    eb4d:	c7 85 f0 fa ff ff f9 	movl   $0xfffffff9,-0x510(%rbp)
    eb54:	ff ff ff 
    eb57:	c7 85 f4 fa ff ff 01 	movl   $0x1,-0x50c(%rbp)
    eb5e:	00 00 00 
    eb61:	c7 85 f8 fa ff ff 06 	movl   $0x6,-0x508(%rbp)
    eb68:	00 00 00 
    eb6b:	c7 85 fc fa ff ff 01 	movl   $0x1,-0x504(%rbp)
    eb72:	00 00 00 
    eb75:	c7 85 00 fb ff ff 5f 	movl   $0x1940c85f,-0x500(%rbp)
    eb7c:	c8 40 19 
    eb7f:	c7 85 04 fb ff ff 5f 	movl   $0x1940c85f,-0x4fc(%rbp)
    eb86:	c8 40 19 
    eb89:	c7 85 08 fb ff ff 01 	movl   $0x1,-0x4f8(%rbp)
    eb90:	00 00 00 
    eb93:	c7 85 0c fb ff ff 06 	movl   $0x6,-0x4f4(%rbp)
    eb9a:	00 00 00 
    eb9d:	c7 85 10 fb ff ff 05 	movl   $0x797d0e05,-0x4f0(%rbp)
    eba4:	0e 7d 79 
    eba7:	c7 85 14 fb ff ff 05 	movl   $0x797d0e05,-0x4ec(%rbp)
    ebae:	0e 7d 79 
    ebb1:	c7 85 18 fb ff ff 06 	movl   $0x6,-0x4e8(%rbp)
    ebb8:	00 00 00 
    ebbb:	c7 85 1c fb ff ff 01 	movl   $0x1,-0x4e4(%rbp)
    ebc2:	00 00 00 
    ebc5:	c7 85 20 fb ff ff f8 	movl   $0xfffffff8,-0x4e0(%rbp)
    ebcc:	ff ff ff 
    ebcf:	c7 85 24 fb ff ff 00 	movl   $0x0,-0x4dc(%rbp)
    ebd6:	00 00 00 
    ebd9:	c7 85 28 fb ff ff 66 	movl   $0x6cb4c166,-0x4d8(%rbp)
    ebe0:	c1 b4 6c 
    ebe3:	c7 85 2c fb ff ff f6 	movl   $0xfffffff6,-0x4d4(%rbp)
    ebea:	ff ff ff 
    ebed:	c7 85 30 fb ff ff 5f 	movl   $0x1940c85f,-0x4d0(%rbp)
    ebf4:	c8 40 19 
    ebf7:	c7 85 34 fb ff ff 66 	movl   $0x6cb4c166,-0x4cc(%rbp)
    ebfe:	c1 b4 6c 
    ec01:	c7 85 38 fb ff ff f9 	movl   $0xfffffff9,-0x4c8(%rbp)
    ec08:	ff ff ff 
    ec0b:	c7 85 3c fb ff ff 05 	movl   $0x797d0e05,-0x4c4(%rbp)
    ec12:	0e 7d 79 
    ec15:	c7 85 40 fb ff ff f9 	movl   $0xfffffff9,-0x4c0(%rbp)
    ec1c:	ff ff ff 
    ec1f:	c7 85 44 fb ff ff 66 	movl   $0x6cb4c166,-0x4bc(%rbp)
    ec26:	c1 b4 6c 
    ec29:	c7 85 48 fb ff ff 5f 	movl   $0x1940c85f,-0x4b8(%rbp)
    ec30:	c8 40 19 
    ec33:	c7 85 4c fb ff ff f6 	movl   $0xfffffff6,-0x4b4(%rbp)
    ec3a:	ff ff ff 
    ec3d:	48 c7 85 38 f9 ff ff 	movq   $0x0,-0x6c8(%rbp)
    ec44:	00 00 00 00 
    ec48:	48 8d 05 69 2c 01 00 	lea    0x12c69(%rip),%rax        # 218b8 <g_2678>
    ec4f:	48 89 85 40 f9 ff ff 	mov    %rax,-0x6c0(%rbp)
    ec56:	48 8d 85 60 fa ff ff 	lea    -0x5a0(%rbp),%rax
    ec5d:	48 83 c0 10          	add    $0x10,%rax
    ec61:	48 89 85 48 f9 ff ff 	mov    %rax,-0x6b8(%rbp)
    ec68:	c6 85 93 f8 ff ff a0 	movb   $0xa0,-0x76d(%rbp)
    ec6f:	c7 85 a4 f8 ff ff 00 	movl   $0x0,-0x75c(%rbp)
    ec76:	00 00 00 
    ec79:	eb 1e                	jmp    ec99 <func_53+0x3d5>
    ec7b:	8b 85 a4 f8 ff ff    	mov    -0x75c(%rbp),%eax
    ec81:	48 98                	cltq   
    ec83:	48 8d 15 f6 e3 00 00 	lea    0xe3f6(%rip),%rdx        # 1d080 <g_72>
    ec8a:	48 89 94 c5 a0 f9 ff 	mov    %rdx,-0x660(%rbp,%rax,8)
    ec91:	ff 
    ec92:	83 85 a4 f8 ff ff 01 	addl   $0x1,-0x75c(%rbp)
    ec99:	83 bd a4 f8 ff ff 02 	cmpl   $0x2,-0x75c(%rbp)
    eca0:	7e d9                	jle    ec7b <func_53+0x3b7>
    eca2:	c7 85 a4 f8 ff ff 00 	movl   $0x0,-0x75c(%rbp)
    eca9:	00 00 00 
    ecac:	eb 1e                	jmp    eccc <func_53+0x408>
    ecae:	8b 85 a4 f8 ff ff    	mov    -0x75c(%rbp),%eax
    ecb4:	48 98                	cltq   
    ecb6:	48 8d 15 bd fa 00 00 	lea    0xfabd(%rip),%rdx        # 1e77a <g_653+0x1a>
    ecbd:	48 89 94 c5 c0 f9 ff 	mov    %rdx,-0x640(%rbp,%rax,8)
    ecc4:	ff 
    ecc5:	83 85 a4 f8 ff ff 01 	addl   $0x1,-0x75c(%rbp)
    eccc:	83 bd a4 f8 ff ff 04 	cmpl   $0x4,-0x75c(%rbp)
    ecd3:	7e d9                	jle    ecae <func_53+0x3ea>
    ecd5:	c7 85 a4 f8 ff ff 00 	movl   $0x0,-0x75c(%rbp)
    ecdc:	00 00 00 
    ecdf:	eb 1b                	jmp    ecfc <func_53+0x438>
    ece1:	8b 85 a4 f8 ff ff    	mov    -0x75c(%rbp),%eax
    ece7:	48 98                	cltq   
    ece9:	48 c7 84 c5 60 fa ff 	movq   $0x0,-0x5a0(%rbp,%rax,8)
    ecf0:	ff 00 00 00 00 
    ecf5:	83 85 a4 f8 ff ff 01 	addl   $0x1,-0x75c(%rbp)
    ecfc:	83 bd a4 f8 ff ff 09 	cmpl   $0x9,-0x75c(%rbp)
    ed03:	7e dc                	jle    ece1 <func_53+0x41d>
    ed05:	0f b6 85 8f f8 ff ff 	movzbl -0x771(%rbp),%eax
    ed0c:	83 c0 01             	add    $0x1,%eax
    ed0f:	88 85 8f f8 ff ff    	mov    %al,-0x771(%rbp)
    ed15:	66 c7 85 7c f8 ff ff 	movw   $0x0,-0x784(%rbp)
    ed1c:	00 00 
    ed1e:	e9 ca 02 00 00       	jmpq   efed <func_53+0x729>
    ed23:	48 8d 05 7a f5 00 00 	lea    0xf57a(%rip),%rax        # 1e2a4 <g_451>
    ed2a:	48 89 85 c8 f8 ff ff 	mov    %rax,-0x738(%rbp)
    ed31:	48 8d 85 c8 f8 ff ff 	lea    -0x738(%rbp),%rax
    ed38:	48 89 85 50 f9 ff ff 	mov    %rax,-0x6b0(%rbp)
    ed3f:	c7 85 b8 f8 ff ff 03 	movl   $0x3,-0x748(%rbp)
    ed46:	00 00 00 
    ed49:	c7 85 bc f8 ff ff 83 	movl   $0xe3edfa83,-0x744(%rbp)
    ed50:	fa ed e3 
    ed53:	c6 85 94 f8 ff ff 3e 	movb   $0x3e,-0x76c(%rbp)
    ed5a:	48 8d 05 5f 16 01 00 	lea    0x1165f(%rip),%rax        # 203c0 <g_310>
    ed61:	48 89 85 d0 f8 ff ff 	mov    %rax,-0x730(%rbp)
    ed68:	48 8d 85 d0 f8 ff ff 	lea    -0x730(%rbp),%rax
    ed6f:	48 89 85 58 f9 ff ff 	mov    %rax,-0x6a8(%rbp)
    ed76:	48 8d 05 03 2b 01 00 	lea    0x12b03(%rip),%rax        # 21880 <g_1334>
    ed7d:	48 89 85 60 f9 ff ff 	mov    %rax,-0x6a0(%rbp)
    ed84:	48 8d 05 d5 20 01 00 	lea    0x120d5(%rip),%rax        # 20e60 <g_1197+0x20>
    ed8b:	48 89 85 68 f9 ff ff 	mov    %rax,-0x698(%rbp)
    ed92:	66 c7 85 98 f8 ff ff 	movw   $0xffff,-0x768(%rbp)
    ed99:	ff ff 
    ed9b:	c7 85 a0 f8 ff ff 11 	movl   $0xf83be111,-0x760(%rbp)
    eda2:	e1 3b f8 
    eda5:	c7 85 c0 f8 ff ff b5 	movl   $0x68f17bb5,-0x740(%rbp)
    edac:	7b f1 68 
    edaf:	c7 85 c4 f8 ff ff 03 	movl   $0x3,-0x73c(%rbp)
    edb6:	00 00 00 
    edb9:	48 b8 d3 c5 4e c3 4a 	movabs $0x57b354ac34ec5d3,%rax
    edc0:	35 7b 05 
    edc3:	48 89 85 70 f9 ff ff 	mov    %rax,-0x690(%rbp)
    edca:	48 8d 85 a0 f8 ff ff 	lea    -0x760(%rbp),%rax
    edd1:	48 89 85 f0 f9 ff ff 	mov    %rax,-0x610(%rbp)
    edd8:	48 8d 85 a0 f8 ff ff 	lea    -0x760(%rbp),%rax
    eddf:	48 89 85 f8 f9 ff ff 	mov    %rax,-0x608(%rbp)
    ede6:	48 8d 85 a0 f8 ff ff 	lea    -0x760(%rbp),%rax
    eded:	48 89 85 00 fa ff ff 	mov    %rax,-0x600(%rbp)
    edf4:	48 8d 85 a0 f8 ff ff 	lea    -0x760(%rbp),%rax
    edfb:	48 89 85 08 fa ff ff 	mov    %rax,-0x5f8(%rbp)
    ee02:	48 8d 85 a0 f8 ff ff 	lea    -0x760(%rbp),%rax
    ee09:	48 89 85 10 fa ff ff 	mov    %rax,-0x5f0(%rbp)
    ee10:	c6 85 95 f8 ff ff 09 	movb   $0x9,-0x76b(%rbp)
    ee17:	48 b8 a3 74 df 64 76 	movabs $0x239a327664df74a3,%rax
    ee1e:	32 9a 23 
    ee21:	48 89 85 50 fb ff ff 	mov    %rax,-0x4b0(%rbp)
    ee28:	48 bb b3 39 74 85 8b 	movabs $0x266378b857439b3,%rbx
    ee2f:	37 66 02 
    ee32:	48 89 9d 58 fb ff ff 	mov    %rbx,-0x4a8(%rbp)
    ee39:	48 89 85 60 fb ff ff 	mov    %rax,-0x4a0(%rbp)
    ee40:	48 89 85 68 fb ff ff 	mov    %rax,-0x498(%rbp)
    ee47:	48 89 9d 70 fb ff ff 	mov    %rbx,-0x490(%rbp)
    ee4e:	48 89 85 78 fb ff ff 	mov    %rax,-0x488(%rbp)
    ee55:	48 89 85 80 fb ff ff 	mov    %rax,-0x480(%rbp)
    ee5c:	48 89 9d 88 fb ff ff 	mov    %rbx,-0x478(%rbp)
    ee63:	48 89 85 90 fb ff ff 	mov    %rax,-0x470(%rbp)
    ee6a:	48 89 85 98 fb ff ff 	mov    %rax,-0x468(%rbp)
    ee71:	48 89 9d a0 fb ff ff 	mov    %rbx,-0x460(%rbp)
    ee78:	48 89 85 a8 fb ff ff 	mov    %rax,-0x458(%rbp)
    ee7f:	48 89 85 b0 fb ff ff 	mov    %rax,-0x450(%rbp)
    ee86:	48 89 9d b8 fb ff ff 	mov    %rbx,-0x448(%rbp)
    ee8d:	48 89 85 c0 fb ff ff 	mov    %rax,-0x440(%rbp)
    ee94:	48 89 85 c8 fb ff ff 	mov    %rax,-0x438(%rbp)
    ee9b:	48 89 9d d0 fb ff ff 	mov    %rbx,-0x430(%rbp)
    eea2:	48 89 85 d8 fb ff ff 	mov    %rax,-0x428(%rbp)
    eea9:	48 89 85 e0 fb ff ff 	mov    %rax,-0x420(%rbp)
    eeb0:	48 89 9d e8 fb ff ff 	mov    %rbx,-0x418(%rbp)
    eeb7:	c7 85 a8 f8 ff ff 00 	movl   $0x0,-0x758(%rbp)
    eebe:	00 00 00 
    eec1:	eb 19                	jmp    eedc <func_53+0x618>
    eec3:	8b 85 a8 f8 ff ff    	mov    -0x758(%rbp),%eax
    eec9:	48 98                	cltq   
    eecb:	66 c7 84 45 78 f9 ff 	movw   $0xfffe,-0x688(%rbp,%rax,2)
    eed2:	ff fe ff 
    eed5:	83 85 a8 f8 ff ff 01 	addl   $0x1,-0x758(%rbp)
    eedc:	83 bd a8 f8 ff ff 03 	cmpl   $0x3,-0x758(%rbp)
    eee3:	7e de                	jle    eec3 <func_53+0x5ff>
    eee5:	c6 05 9c fa 00 00 09 	movb   $0x9,0xfa9c(%rip)        # 1e988 <g_1124>
    eeec:	e9 e5 00 00 00       	jmpq   efd6 <func_53+0x712>
    eef1:	66 c7 85 9a f8 ff ff 	movw   $0x50b5,-0x766(%rbp)
    eef8:	b5 50 
    eefa:	48 8b 05 07 1c 01 00 	mov    0x11c07(%rip),%rax        # 20b08 <g_793>
    ef01:	0f b6 00             	movzbl (%rax),%eax
    ef04:	0f b6 c0             	movzbl %al,%eax
    ef07:	be 04 00 00 00       	mov    $0x4,%esi
    ef0c:	89 c7                	mov    %eax,%edi
    ef0e:	e8 ab 9d ff ff       	callq  8cbe <safe_rshift_func_uint8_t_u_u>
    ef13:	0f b6 c0             	movzbl %al,%eax
    ef16:	83 e0 01             	and    $0x1,%eax
    ef19:	89 c2                	mov    %eax,%edx
    ef1b:	48 8b 05 d6 1b 01 00 	mov    0x11bd6(%rip),%rax        # 20af8 <g_773>
    ef22:	48 8b 00             	mov    (%rax),%rax
    ef25:	0f b7 30             	movzwl (%rax),%esi
    ef28:	0f b7 8d 7c f8 ff ff 	movzwl -0x784(%rbp),%ecx
    ef2f:	21 f1                	and    %esi,%ecx
    ef31:	66 89 08             	mov    %cx,(%rax)
    ef34:	0f b7 00             	movzwl (%rax),%eax
    ef37:	98                   	cwtl   
    ef38:	89 85 ac f8 ff ff    	mov    %eax,-0x754(%rbp)
    ef3e:	83 bd ac f8 ff ff fe 	cmpl   $0xfffffffe,-0x754(%rbp)
    ef45:	0f 95 c0             	setne  %al
    ef48:	0f b6 c0             	movzbl %al,%eax
    ef4b:	89 d6                	mov    %edx,%esi
    ef4d:	89 c7                	mov    %eax,%edi
    ef4f:	e8 c2 94 ff ff       	callq  8416 <safe_mod_func_int16_t_s_s>
    ef54:	83 f0 01             	xor    $0x1,%eax
    ef57:	0f bf d0             	movswl %ax,%edx
    ef5a:	8b 85 b4 f8 ff ff    	mov    -0x74c(%rbp),%eax
    ef60:	89 d6                	mov    %edx,%esi
    ef62:	89 c7                	mov    %eax,%edi
    ef64:	e8 bc 9f ff ff       	callq  8f25 <safe_div_func_uint32_t_u_u>
    ef69:	89 c3                	mov    %eax,%ebx
    ef6b:	44 0f bf a5 9a f8 ff 	movswl -0x766(%rbp),%r12d
    ef72:	ff 
    ef73:	48 83 bd 50 f9 ff ff 	cmpq   $0x0,-0x6b0(%rbp)
    ef7a:	00 
    ef7b:	0f 95 c0             	setne  %al
    ef7e:	0f b6 c0             	movzbl %al,%eax
    ef81:	be 06 00 00 00       	mov    $0x6,%esi
    ef86:	89 c7                	mov    %eax,%edi
    ef88:	e8 bf 9c ff ff       	callq  8c4c <safe_lshift_func_uint8_t_u_u>
    ef8d:	0f b6 c0             	movzbl %al,%eax
    ef90:	41 39 c4             	cmp    %eax,%r12d
    ef93:	0f 9c c0             	setl   %al
    ef96:	0f b6 c0             	movzbl %al,%eax
    ef99:	be 03 00 00 00       	mov    $0x3,%esi
    ef9e:	89 c7                	mov    %eax,%edi
    efa0:	e8 90 93 ff ff       	callq  8335 <safe_rshift_func_int8_t_s_s>
    efa5:	0f be c0             	movsbl %al,%eax
    efa8:	f7 d0                	not    %eax
    efaa:	39 c3                	cmp    %eax,%ebx
    efac:	0f 95 c0             	setne  %al
    efaf:	0f b6 d0             	movzbl %al,%edx
    efb2:	48 8b 85 28 f9 ff ff 	mov    -0x6d8(%rbp),%rax
    efb9:	8b 00                	mov    (%rax),%eax
    efbb:	21 c2                	and    %eax,%edx
    efbd:	48 8b 85 28 f9 ff ff 	mov    -0x6d8(%rbp),%rax
    efc4:	89 10                	mov    %edx,(%rax)
    efc6:	0f b6 05 bb f9 00 00 	movzbl 0xf9bb(%rip),%eax        # 1e988 <g_1124>
    efcd:	83 e8 01             	sub    $0x1,%eax
    efd0:	88 05 b2 f9 00 00    	mov    %al,0xf9b2(%rip)        # 1e988 <g_1124>
    efd6:	0f b6 05 ab f9 00 00 	movzbl 0xf9ab(%rip),%eax        # 1e988 <g_1124>
    efdd:	84 c0                	test   %al,%al
    efdf:	0f 89 0c ff ff ff    	jns    eef1 <func_53+0x62d>
    efe5:	66 83 85 7c f8 ff ff 	addw   $0x1,-0x784(%rbp)
    efec:	01 
    efed:	66 83 bd 7c f8 ff ff 	cmpw   $0x9,-0x784(%rbp)
    eff4:	09 
    eff5:	0f 86 28 fd ff ff    	jbe    ed23 <func_53+0x45f>
    effb:	48 8b 05 9e e8 00 00 	mov    0xe89e(%rip),%rax        # 1d8a0 <g_187>
    f002:	48 83 c0 01          	add    $0x1,%rax
    f006:	48 89 05 93 e8 00 00 	mov    %rax,0xe893(%rip)        # 1d8a0 <g_187>
    f00d:	48 8b 05 8c e8 00 00 	mov    0xe88c(%rip),%rax        # 1d8a0 <g_187>
    f014:	48 83 f8 09          	cmp    $0x9,%rax
    f018:	0f 86 c9 f9 ff ff    	jbe    e9e7 <func_53+0x123>
    f01e:	48 8b 85 00 f9 ff ff 	mov    -0x700(%rbp),%rax
    f025:	48 8b 4d e8          	mov    -0x18(%rbp),%rcx
    f029:	64 48 33 0c 25 28 00 	xor    %fs:0x28,%rcx
    f030:	00 00 
    f032:	74 05                	je     f039 <func_53+0x775>
    f034:	e8 37 90 ff ff       	callq  8070 <__stack_chk_fail@plt>
    f039:	48 81 c4 80 07 00 00 	add    $0x780,%rsp
    f040:	5b                   	pop    %rbx
    f041:	41 5c                	pop    %r12
    f043:	5d                   	pop    %rbp
    f044:	c3                   	retq   

000000000000f045 <func_55>:
    f045:	f3 0f 1e fa          	endbr64 
    f049:	55                   	push   %rbp
    f04a:	48 89 e5             	mov    %rsp,%rbp
    f04d:	41 56                	push   %r14
    f04f:	41 55                	push   %r13
    f051:	41 54                	push   %r12
    f053:	53                   	push   %rbx
    f054:	48 81 ec 00 10 00 00 	sub    $0x1000,%rsp
    f05b:	48 83 0c 24 00       	orq    $0x0,(%rsp)
    f060:	48 83 ec 10          	sub    $0x10,%rsp
    f064:	89 fa                	mov    %edi,%edx
    f066:	89 f0                	mov    %esi,%eax
    f068:	66 89 95 dc ef ff ff 	mov    %dx,-0x1024(%rbp)
    f06f:	66 89 85 d8 ef ff ff 	mov    %ax,-0x1028(%rbp)
    f076:	64 48 8b 04 25 28 00 	mov    %fs:0x28,%rax
    f07d:	00 00 
    f07f:	48 89 45 d8          	mov    %rax,-0x28(%rbp)
    f083:	31 c0                	xor    %eax,%eax
    f085:	48 8d 05 9c df 00 00 	lea    0xdf9c(%rip),%rax        # 1d028 <g_2>
    f08c:	48 89 85 60 f0 ff ff 	mov    %rax,-0xfa0(%rbp)
    f093:	48 8d 85 30 f3 ff ff 	lea    -0xcd0(%rbp),%rax
    f09a:	48 8d 15 bf 0a 01 00 	lea    0x10abf(%rip),%rdx        # 1fb60 <g_3508+0xfe8>
    f0a1:	b9 2a 00 00 00       	mov    $0x2a,%ecx
    f0a6:	48 89 c7             	mov    %rax,%rdi
    f0a9:	48 89 d6             	mov    %rdx,%rsi
    f0ac:	f3 48 a5             	rep movsq %ds:(%rsi),%es:(%rdi)
    f0af:	66 c7 85 f2 ef ff ff 	movw   $0x0,-0x100e(%rbp)
    f0b6:	00 00 
    f0b8:	c6 85 ed ef ff ff 06 	movb   $0x6,-0x1013(%rbp)
    f0bf:	48 b8 ed e1 74 6a 0e 	movabs $0xe7c580e6a74e1ed,%rax
    f0c6:	58 7c 0e 
    f0c9:	48 89 85 68 f0 ff ff 	mov    %rax,-0xf98(%rbp)
    f0d0:	66 c7 85 f0 ef ff ff 	movw   $0xfeb9,-0x1010(%rbp)
    f0d7:	b9 fe 
    f0d9:	48 8d 05 88 df 00 00 	lea    0xdf88(%rip),%rax        # 1d068 <g_44>
    f0e0:	48 89 85 70 f0 ff ff 	mov    %rax,-0xf90(%rbp)
    f0e7:	48 b8 71 36 33 91 8b 	movabs $0xee8b188b91333671,%rax
    f0ee:	18 8b ee 
    f0f1:	48 89 85 78 f0 ff ff 	mov    %rax,-0xf88(%rbp)
    f0f8:	48 8d 05 51 f9 00 00 	lea    0xf951(%rip),%rax        # 1ea50 <g_1950+0x10>
    f0ff:	48 89 85 80 f0 ff ff 	mov    %rax,-0xf80(%rbp)
    f106:	48 c7 85 50 f1 ff ff 	movq   $0x0,-0xeb0(%rbp)
    f10d:	00 00 00 00 
    f111:	48 c7 85 58 f1 ff ff 	movq   $0x0,-0xea8(%rbp)
    f118:	00 00 00 00 
    f11c:	48 c7 85 60 f1 ff ff 	movq   $0x0,-0xea0(%rbp)
    f123:	00 00 00 00 
    f127:	48 c7 85 68 f1 ff ff 	movq   $0x0,-0xe98(%rbp)
    f12e:	00 00 00 00 
    f132:	c7 85 70 f1 ff ff 00 	movl   $0x0,-0xe90(%rbp)
    f139:	00 00 00 
    f13c:	48 b8 f0 f0 f0 f0 f0 	movabs $0xf0f0f0f0f0f0f0f0,%rax
    f143:	f0 f0 f0 
    f146:	48 89 45 cf          	mov    %rax,-0x31(%rbp)
    f14a:	c6 45 d7 f0          	movb   $0xf0,-0x29(%rbp)
    f14e:	c7 85 f8 ef ff ff 00 	movl   $0x0,-0x1008(%rbp)
    f155:	00 00 00 
    f158:	eb 1a                	jmp    f174 <func_55+0x12f>
    f15a:	8b 85 f8 ef ff ff    	mov    -0x1008(%rbp),%eax
    f160:	48 98                	cltq   
    f162:	c7 84 85 80 f1 ff ff 	movl   $0x52fee3e4,-0xe80(%rbp,%rax,4)
    f169:	e4 e3 fe 52 
    f16d:	83 85 f8 ef ff ff 01 	addl   $0x1,-0x1008(%rbp)
    f174:	83 bd f8 ef ff ff 08 	cmpl   $0x8,-0x1008(%rbp)
    f17b:	7e dd                	jle    f15a <func_55+0x115>
    f17d:	66 c7 05 e2 de 00 00 	movw   $0x0,0xdee2(%rip)        # 1d068 <g_44>
    f184:	00 00 
    f186:	e9 c5 08 00 00       	jmpq   fa50 <func_55+0xa0b>
    f18b:	48 8d 05 0e e4 00 00 	lea    0xe40e(%rip),%rax        # 1d5a0 <g_90+0x500>
    f192:	48 89 85 88 f0 ff ff 	mov    %rax,-0xf78(%rbp)
    f199:	c7 85 48 f0 ff ff ff 	movl   $0xffffffff,-0xfb8(%rbp)
    f1a0:	ff ff ff 
    f1a3:	48 c7 85 90 f0 ff ff 	movq   $0x0,-0xf70(%rbp)
    f1aa:	00 00 00 00 
    f1ae:	48 8d 85 20 fa ff ff 	lea    -0x5e0(%rbp),%rax
    f1b5:	48 8d 15 04 0b 01 00 	lea    0x10b04(%rip),%rdx        # 1fcc0 <g_3508+0x1148>
    f1bc:	b9 2a 00 00 00       	mov    $0x2a,%ecx
    f1c1:	48 89 c7             	mov    %rax,%rdi
    f1c4:	48 89 d6             	mov    %rdx,%rsi
    f1c7:	f3 48 a5             	rep movsq %ds:(%rsi),%es:(%rdi)
    f1ca:	c7 85 18 f0 ff ff fc 	movl   $0xfffffffc,-0xfe8(%rbp)
    f1d1:	ff ff ff 
    f1d4:	48 c7 85 98 f0 ff ff 	movq   $0x0,-0xf68(%rbp)
    f1db:	00 00 00 00 
    f1df:	c7 85 1c f0 ff ff ff 	movl   $0xffffffff,-0xfe4(%rbp)
    f1e6:	ff ff ff 
    f1e9:	66 c7 85 f4 ef ff ff 	movw   $0xf96b,-0x100c(%rbp)
    f1f0:	6b f9 
    f1f2:	c7 85 fc ef ff ff 00 	movl   $0x0,-0x1004(%rbp)
    f1f9:	00 00 00 
    f1fc:	eb 1e                	jmp    f21c <func_55+0x1d7>
    f1fe:	8b 85 fc ef ff ff    	mov    -0x1004(%rbp),%eax
    f204:	48 98                	cltq   
    f206:	48 8d 15 b9 ef 00 00 	lea    0xefb9(%rip),%rdx        # 1e1c6 <g_417+0x106>
    f20d:	48 89 94 c5 30 f1 ff 	mov    %rdx,-0xed0(%rbp,%rax,8)
    f214:	ff 
    f215:	83 85 fc ef ff ff 01 	addl   $0x1,-0x1004(%rbp)
    f21c:	83 bd fc ef ff ff 00 	cmpl   $0x0,-0x1004(%rbp)
    f223:	7e d9                	jle    f1fe <func_55+0x1b9>
    f225:	c7 85 fc ef ff ff 00 	movl   $0x0,-0x1004(%rbp)
    f22c:	00 00 00 
    f22f:	eb 1a                	jmp    f24b <func_55+0x206>
    f231:	8b 85 fc ef ff ff    	mov    -0x1004(%rbp),%eax
    f237:	48 98                	cltq   
    f239:	c7 84 85 b0 f1 ff ff 	movl   $0x2,-0xe50(%rbp,%rax,4)
    f240:	02 00 00 00 
    f244:	83 85 fc ef ff ff 01 	addl   $0x1,-0x1004(%rbp)
    f24b:	83 bd fc ef ff ff 01 	cmpl   $0x1,-0x1004(%rbp)
    f252:	7e dd                	jle    f231 <func_55+0x1ec>
    f254:	c7 85 fc ef ff ff 00 	movl   $0x0,-0x1004(%rbp)
    f25b:	00 00 00 
    f25e:	eb 1e                	jmp    f27e <func_55+0x239>
    f260:	8b 85 fc ef ff ff    	mov    -0x1004(%rbp),%eax
    f266:	48 98                	cltq   
    f268:	48 8d 15 41 1c 01 00 	lea    0x11c41(%rip),%rdx        # 20eb0 <g_1261+0x10>
    f26f:	48 89 94 c5 00 f2 ff 	mov    %rdx,-0xe00(%rbp,%rax,8)
    f276:	ff 
    f277:	83 85 fc ef ff ff 01 	addl   $0x1,-0x1004(%rbp)
    f27e:	83 bd fc ef ff ff 01 	cmpl   $0x1,-0x1004(%rbp)
    f285:	7e d9                	jle    f260 <func_55+0x21b>
    f287:	c7 85 fc ef ff ff 00 	movl   $0x0,-0x1004(%rbp)
    f28e:	00 00 00 
    f291:	eb 22                	jmp    f2b5 <func_55+0x270>
    f293:	8b 85 fc ef ff ff    	mov    -0x1004(%rbp),%eax
    f299:	48 98                	cltq   
    f29b:	48 8d 95 00 f2 ff ff 	lea    -0xe00(%rbp),%rdx
    f2a2:	48 83 c2 08          	add    $0x8,%rdx
    f2a6:	48 89 94 c5 80 f4 ff 	mov    %rdx,-0xb80(%rbp,%rax,8)
    f2ad:	ff 
    f2ae:	83 85 fc ef ff ff 01 	addl   $0x1,-0x1004(%rbp)
    f2b5:	83 bd fc ef ff ff 06 	cmpl   $0x6,-0x1004(%rbp)
    f2bc:	7e d5                	jle    f293 <func_55+0x24e>
    f2be:	8b 9d b0 f1 ff ff    	mov    -0xe50(%rbp),%ebx
    f2c4:	0f b6 05 bd f6 00 00 	movzbl 0xf6bd(%rip),%eax        # 1e988 <g_1124>
    f2cb:	44 0f be e0          	movsbl %al,%r12d
    f2cf:	0f b7 85 dc ef ff ff 	movzwl -0x1024(%rbp),%eax
    f2d6:	44 0f b7 f0          	movzwl %ax,%r14d
    f2da:	4c 8b ad 30 f1 ff ff 	mov    -0xed0(%rbp),%r13
    f2e1:	8b 05 91 dd 00 00    	mov    0xdd91(%rip),%eax        # 1d078 <g_69>
    f2e7:	48 63 f8             	movslq %eax,%rdi
    f2ea:	48 8b 95 48 f4 ff ff 	mov    -0xbb8(%rbp),%rdx
    f2f1:	48 0f bf b5 d8 ef ff 	movswq -0x1028(%rbp),%rsi
    f2f8:	ff 
    f2f9:	48 8b 05 a0 10 01 00 	mov    0x110a0(%rip),%rax        # 203a0 <g_104>
    f300:	48 8b 8d 60 f0 ff ff 	mov    -0xfa0(%rbp),%rcx
    f307:	49 89 f8             	mov    %rdi,%r8
    f30a:	48 89 c7             	mov    %rax,%rdi
    f30d:	e8 4a 4c 00 00       	callq  13f5c <func_98>
    f312:	48 8b 95 90 f0 ff ff 	mov    -0xf70(%rbp),%rdx
    f319:	48 8b 85 60 f0 ff ff 	mov    -0xfa0(%rbp),%rax
    f320:	49 89 d0             	mov    %rdx,%r8
    f323:	44 89 f1             	mov    %r14d,%ecx
    f326:	48 89 c2             	mov    %rax,%rdx
    f329:	4c 89 ee             	mov    %r13,%rsi
    f32c:	48 bf 99 ec 49 4c e2 	movabs $0x25c04e24c49ec99,%rdi
    f333:	04 5c 02 
    f336:	e8 a0 49 00 00       	callq  13cdb <func_92>
    f33b:	49 89 c5             	mov    %rax,%r13
    f33e:	8b 85 48 f0 ff ff    	mov    -0xfb8(%rbp),%eax
    f344:	25 1b 88 98 2d       	and    $0x2d98881b,%eax
    f349:	89 85 48 f0 ff ff    	mov    %eax,-0xfb8(%rbp)
    f34f:	8b 85 48 f0 ff ff    	mov    -0xfb8(%rbp),%eax
    f355:	48 63 d0             	movslq %eax,%rdx
    f358:	48 0f bf 8d d8 ef ff 	movswq -0x1028(%rbp),%rcx
    f35f:	ff 
    f360:	48 8b 85 88 f0 ff ff 	mov    -0xf78(%rbp),%rax
    f367:	48 89 08             	mov    %rcx,(%rax)
    f36a:	48 8b 85 88 f0 ff ff 	mov    -0xf78(%rbp),%rax
    f371:	48 8b 00             	mov    (%rax),%rax
    f374:	48 89 d6             	mov    %rdx,%rsi
    f377:	48 89 c7             	mov    %rax,%rdi
    f37a:	e8 29 95 ff ff       	callq  88a8 <safe_sub_func_int64_t_s_s>
    f37f:	0f b7 d0             	movzwl %ax,%edx
    f382:	0f b7 85 dc ef ff ff 	movzwl -0x1024(%rbp),%eax
    f389:	0f b7 c0             	movzwl %ax,%eax
    f38c:	89 d6                	mov    %edx,%esi
    f38e:	89 c7                	mov    %eax,%edi
    f390:	e8 a8 99 ff ff       	callq  8d3d <safe_mul_func_uint16_t_u_u>
    f395:	0f be f0             	movsbl %al,%esi
    f398:	0f b7 85 dc ef ff ff 	movzwl -0x1024(%rbp),%eax
    f39f:	0f b7 c0             	movzwl %ax,%eax
    f3a2:	44 89 e1             	mov    %r12d,%ecx
    f3a5:	4c 89 ea             	mov    %r13,%rdx
    f3a8:	89 c7                	mov    %eax,%edi
    f3aa:	e8 08 1a 00 00       	callq  10db7 <func_80>
    f3af:	48 89 85 90 f0 ff ff 	mov    %rax,-0xf70(%rbp)
    f3b6:	48 8b 95 40 f3 ff ff 	mov    -0xcc0(%rbp),%rdx
    f3bd:	48 8d 85 48 f0 ff ff 	lea    -0xfb8(%rbp),%rax
    f3c4:	48 39 c2             	cmp    %rax,%rdx
    f3c7:	0f 95 c0             	setne  %al
    f3ca:	44 0f b6 e0          	movzbl %al,%r12d
    f3ce:	48 8b 85 60 f0 ff ff 	mov    -0xfa0(%rbp),%rax
    f3d5:	48 89 c7             	mov    %rax,%rdi
    f3d8:	e8 39 18 00 00       	callq  10c16 <func_66>
    f3dd:	98                   	cwtl   
    f3de:	be f9 ff ff ff       	mov    $0xfffffff9,%esi
    f3e3:	89 c7                	mov    %eax,%edi
    f3e5:	e8 2c 90 ff ff       	callq  8416 <safe_mod_func_int16_t_s_s>
    f3ea:	66 85 c0             	test   %ax,%ax
    f3ed:	0f 95 c0             	setne  %al
    f3f0:	89 c2                	mov    %eax,%edx
    f3f2:	44 31 a5 18 f0 ff ff 	xor    %r12d,-0xfe8(%rbp)
    f3f9:	8b 85 18 f0 ff ff    	mov    -0xfe8(%rbp),%eax
    f3ff:	09 d0                	or     %edx,%eax
    f401:	0f be c0             	movsbl %al,%eax
    f404:	89 de                	mov    %ebx,%esi
    f406:	89 c7                	mov    %eax,%edi
    f408:	e8 94 8e ff ff       	callq  82a1 <safe_lshift_func_int8_t_s_s>
    f40d:	0f be c0             	movsbl %al,%eax
    f410:	be 6d 94 b2 45       	mov    $0x45b2946d,%esi
    f415:	89 c7                	mov    %eax,%edi
    f417:	e8 9a 91 ff ff       	callq  85b6 <safe_add_func_int32_t_s_s>
    f41c:	48 8b 05 65 19 01 00 	mov    0x11965(%rip),%rax        # 20d88 <g_1175>
    f423:	0f bf 95 d8 ef ff ff 	movswl -0x1028(%rbp),%edx
    f42a:	89 10                	mov    %edx,(%rax)
    f42c:	8b 00                	mov    (%rax),%eax
    f42e:	85 c0                	test   %eax,%eax
    f430:	0f 84 1d 03 00 00    	je     f753 <func_55+0x70e>
    f436:	c7 85 70 f2 ff ff 73 	movl   $0x5eab7273,-0xd90(%rbp)
    f43d:	72 ab 5e 
    f440:	c7 85 74 f2 ff ff 73 	movl   $0x5eab7273,-0xd8c(%rbp)
    f447:	72 ab 5e 
    f44a:	c7 85 78 f2 ff ff 73 	movl   $0x5eab7273,-0xd88(%rbp)
    f451:	72 ab 5e 
    f454:	c7 85 7c f2 ff ff 73 	movl   $0x5eab7273,-0xd84(%rbp)
    f45b:	72 ab 5e 
    f45e:	c7 85 80 f2 ff ff 73 	movl   $0x5eab7273,-0xd80(%rbp)
    f465:	72 ab 5e 
    f468:	c7 85 84 f2 ff ff 73 	movl   $0x5eab7273,-0xd7c(%rbp)
    f46f:	72 ab 5e 
    f472:	c7 85 88 f2 ff ff 73 	movl   $0x5eab7273,-0xd78(%rbp)
    f479:	72 ab 5e 
    f47c:	c7 85 8c f2 ff ff 73 	movl   $0x5eab7273,-0xd74(%rbp)
    f483:	72 ab 5e 
    f486:	c7 85 90 f2 ff ff 73 	movl   $0x5eab7273,-0xd70(%rbp)
    f48d:	72 ab 5e 
    f490:	c7 85 94 f2 ff ff 73 	movl   $0x5eab7273,-0xd6c(%rbp)
    f497:	72 ab 5e 
    f49a:	48 8d 85 60 f6 ff ff 	lea    -0x9a0(%rbp),%rax
    f4a1:	48 83 c0 28          	add    $0x28,%rax
    f4a5:	48 89 85 b0 f0 ff ff 	mov    %rax,-0xf50(%rbp)
    f4ac:	c7 85 20 f0 ff ff 66 	movl   $0x5426cc66,-0xfe0(%rbp)
    f4b3:	cc 26 54 
    f4b6:	c7 85 24 f0 ff ff 01 	movl   $0x1,-0xfdc(%rbp)
    f4bd:	00 00 00 
    f4c0:	c6 85 ee ef ff ff f4 	movb   $0xf4,-0x1012(%rbp)
    f4c7:	c7 85 00 f0 ff ff 00 	movl   $0x0,-0x1000(%rbp)
    f4ce:	00 00 00 
    f4d1:	eb 4e                	jmp    f521 <func_55+0x4dc>
    f4d3:	c7 85 04 f0 ff ff 00 	movl   $0x0,-0xffc(%rbp)
    f4da:	00 00 00 
    f4dd:	eb 32                	jmp    f511 <func_55+0x4cc>
    f4df:	8b 85 04 f0 ff ff    	mov    -0xffc(%rbp),%eax
    f4e5:	48 63 c8             	movslq %eax,%rcx
    f4e8:	8b 85 00 f0 ff ff    	mov    -0x1000(%rbp),%eax
    f4ee:	48 63 d0             	movslq %eax,%rdx
    f4f1:	48 89 d0             	mov    %rdx,%rax
    f4f4:	48 c1 e0 03          	shl    $0x3,%rax
    f4f8:	48 01 d0             	add    %rdx,%rax
    f4fb:	48 01 c8             	add    %rcx,%rax
    f4fe:	48 c7 84 c5 60 f6 ff 	movq   $0x0,-0x9a0(%rbp,%rax,8)
    f505:	ff 00 00 00 00 
    f50a:	83 85 04 f0 ff ff 01 	addl   $0x1,-0xffc(%rbp)
    f511:	83 bd 04 f0 ff ff 08 	cmpl   $0x8,-0xffc(%rbp)
    f518:	7e c5                	jle    f4df <func_55+0x49a>
    f51a:	83 85 00 f0 ff ff 01 	addl   $0x1,-0x1000(%rbp)
    f521:	83 bd 00 f0 ff ff 00 	cmpl   $0x0,-0x1000(%rbp)
    f528:	7e a9                	jle    f4d3 <func_55+0x48e>
    f52a:	c7 85 00 f0 ff ff 00 	movl   $0x0,-0x1000(%rbp)
    f531:	00 00 00 
    f534:	eb 1a                	jmp    f550 <func_55+0x50b>
    f536:	8b 85 00 f0 ff ff    	mov    -0x1000(%rbp),%eax
    f53c:	48 98                	cltq   
    f53e:	c7 84 85 10 f1 ff ff 	movl   $0x4,-0xef0(%rbp,%rax,4)
    f545:	04 00 00 00 
    f549:	83 85 00 f0 ff ff 01 	addl   $0x1,-0x1000(%rbp)
    f550:	83 bd 00 f0 ff ff 00 	cmpl   $0x0,-0x1000(%rbp)
    f557:	7e dd                	jle    f536 <func_55+0x4f1>
    f559:	48 8b 05 a8 15 01 00 	mov    0x115a8(%rip),%rax        # 20b08 <g_793>
    f560:	0f b6 00             	movzbl (%rax),%eax
    f563:	0f b6 c0             	movzbl %al,%eax
    f566:	89 c6                	mov    %eax,%esi
    f568:	bf 01 00 00 00       	mov    $0x1,%edi
    f56d:	e8 69 96 ff ff       	callq  8bdb <safe_div_func_uint8_t_u_u>
    f572:	0f b6 c0             	movzbl %al,%eax
    f575:	be 01 00 00 00       	mov    $0x1,%esi
    f57a:	89 c7                	mov    %eax,%edi
    f57c:	e8 4f 99 ff ff       	callq  8ed0 <safe_sub_func_uint32_t_u_u>
    f581:	8b 95 48 f0 ff ff    	mov    -0xfb8(%rbp),%edx
    f587:	21 d0                	and    %edx,%eax
    f589:	89 85 48 f0 ff ff    	mov    %eax,-0xfb8(%rbp)
    f58f:	8b 85 10 f1 ff ff    	mov    -0xef0(%rbp),%eax
    f595:	89 c3                	mov    %eax,%ebx
    f597:	48 8b 05 ca f4 00 00 	mov    0xf4ca(%rip),%rax        # 1ea68 <g_1966>
    f59e:	0f bf 85 d8 ef ff ff 	movswl -0x1028(%rbp),%eax
    f5a5:	21 85 18 f0 ff ff    	and    %eax,-0xfe8(%rbp)
    f5ab:	48 8b 05 96 19 01 00 	mov    0x11996(%rip),%rax        # 20f48 <g_1972>
    f5b2:	48 89 85 98 f0 ff ff 	mov    %rax,-0xf68(%rbp)
    f5b9:	48 8b 85 98 f0 ff ff 	mov    -0xf68(%rbp),%rax
    f5c0:	48 3b 85 b0 f0 ff ff 	cmp    -0xf50(%rbp),%rax
    f5c7:	0f 95 c0             	setne  %al
    f5ca:	0f b6 c0             	movzbl %al,%eax
    f5cd:	39 85 18 f0 ff ff    	cmp    %eax,-0xfe8(%rbp)
    f5d3:	74 07                	je     f5dc <func_55+0x597>
    f5d5:	b8 01 00 00 00       	mov    $0x1,%eax
    f5da:	eb 05                	jmp    f5e1 <func_55+0x59c>
    f5dc:	b8 00 00 00 00       	mov    $0x0,%eax
    f5e1:	be 84 69 31 ed       	mov    $0xed316984,%esi
    f5e6:	89 c7                	mov    %eax,%edi
    f5e8:	e8 10 99 ff ff       	callq  8efd <safe_mod_func_uint32_t_u_u>
    f5ed:	48 8b 05 1c 15 01 00 	mov    0x1151c(%rip),%rax        # 20b10 <g_945>
    f5f4:	48 8b 00             	mov    (%rax),%rax
    f5f7:	48 83 f8 fc          	cmp    $0xfffffffffffffffc,%rax
    f5fb:	0f 97 c2             	seta   %dl
    f5fe:	48 8b 05 ab 0d 01 00 	mov    0x10dab(%rip),%rax        # 203b0 <g_309>
    f605:	0f b6 d2             	movzbl %dl,%edx
    f608:	66 89 10             	mov    %dx,(%rax)
    f60b:	0f b7 00             	movzwl (%rax),%eax
    f60e:	0f bf d0             	movswl %ax,%edx
    f611:	8b 85 70 f2 ff ff    	mov    -0xd90(%rbp),%eax
    f617:	98                   	cwtl   
    f618:	89 d6                	mov    %edx,%esi
    f61a:	89 c7                	mov    %eax,%edi
    f61c:	e8 b2 8d ff ff       	callq  83d3 <safe_sub_func_int16_t_s_s>
    f621:	8b 85 b0 f1 ff ff    	mov    -0xe50(%rbp),%eax
    f627:	0f bf d0             	movswl %ax,%edx
    f62a:	0f b7 85 dc ef ff ff 	movzwl -0x1024(%rbp),%eax
    f631:	98                   	cwtl   
    f632:	89 d6                	mov    %edx,%esi
    f634:	89 c7                	mov    %eax,%edi
    f636:	e8 98 8d ff ff       	callq  83d3 <safe_sub_func_int16_t_s_s>
    f63b:	0f bf d0             	movswl %ax,%edx
    f63e:	0f b7 85 dc ef ff ff 	movzwl -0x1024(%rbp),%eax
    f645:	66 3d 37 37          	cmp    $0x3737,%ax
    f649:	0f 97 c0             	seta   %al
    f64c:	0f b6 c0             	movzbl %al,%eax
    f64f:	39 c2                	cmp    %eax,%edx
    f651:	0f 9c c0             	setl   %al
    f654:	0f b6 c0             	movzbl %al,%eax
    f657:	48 c7 c6 ff ff ff ff 	mov    $0xffffffffffffffff,%rsi
    f65e:	48 89 c7             	mov    %rax,%rdi
    f661:	e8 4e 93 ff ff       	callq  89b4 <safe_mod_func_int64_t_s_s>
    f666:	48 3d 6a 9b 48 2c    	cmp    $0x2c489b6a,%rax
    f66c:	0f 9f c0             	setg   %al
    f66f:	0f b6 c0             	movzbl %al,%eax
    f672:	89 de                	mov    %ebx,%esi
    f674:	89 c7                	mov    %eax,%edi
    f676:	e8 f1 8c ff ff       	callq  836c <safe_rshift_func_int8_t_s_u>
    f67b:	48 8b 95 80 f4 ff ff 	mov    -0xb80(%rbp),%rdx
    f682:	48 8b 05 07 22 01 00 	mov    0x12207(%rip),%rax        # 21890 <g_1856>
    f689:	48 39 c2             	cmp    %rax,%rdx
    f68c:	74 07                	je     f695 <func_55+0x650>
    f68e:	b8 01 00 00 00       	mov    $0x1,%eax
    f693:	eb 05                	jmp    f69a <func_55+0x655>
    f695:	b8 00 00 00 00       	mov    $0x0,%eax
    f69a:	84 c0                	test   %al,%al
    f69c:	75 0b                	jne    f6a9 <func_55+0x664>
    f69e:	0f b6 05 8b f3 00 00 	movzbl 0xf38b(%rip),%eax        # 1ea30 <g_1949>
    f6a5:	84 c0                	test   %al,%al
    f6a7:	74 07                	je     f6b0 <func_55+0x66b>
    f6a9:	ba 01 00 00 00       	mov    $0x1,%edx
    f6ae:	eb 05                	jmp    f6b5 <func_55+0x670>
    f6b0:	ba 00 00 00 00       	mov    $0x0,%edx
    f6b5:	48 8b 05 cc 16 01 00 	mov    0x116cc(%rip),%rax        # 20d88 <g_1175>
    f6bc:	89 10                	mov    %edx,(%rax)
    f6be:	48 8b 05 03 0d 01 00 	mov    0x10d03(%rip),%rax        # 203c8 <g_356>
    f6c5:	0f b7 00             	movzwl (%rax),%eax
    f6c8:	0f b7 d8             	movzwl %ax,%ebx
    f6cb:	8b 85 48 f0 ff ff    	mov    -0xfb8(%rbp),%eax
    f6d1:	0f b7 c0             	movzwl %ax,%eax
    f6d4:	be 0d 00 00 00       	mov    $0xd,%esi
    f6d9:	89 c7                	mov    %eax,%edi
    f6db:	e8 68 97 ff ff       	callq  8e48 <safe_rshift_func_uint16_t_u_s>
    f6e0:	44 0f b7 e0          	movzwl %ax,%r12d
    f6e4:	be 00 00 00 00       	mov    $0x0,%esi
    f6e9:	bf f7 ff ff ff       	mov    $0xfffffff7,%edi
    f6ee:	e8 1f 8b ff ff       	callq  8212 <safe_mul_func_int8_t_s_s>
    f6f3:	0f be c0             	movsbl %al,%eax
    f6f6:	44 89 e2             	mov    %r12d,%edx
    f6f9:	09 c2                	or     %eax,%edx
    f6fb:	48 8b 05 2e 18 01 00 	mov    0x1182e(%rip),%rax        # 20f30 <g_1691>
    f702:	48 8b 00             	mov    (%rax),%rax
    f705:	48 8b 00             	mov    (%rax),%rax
    f708:	48 85 c0             	test   %rax,%rax
    f70b:	0f 95 c0             	setne  %al
    f70e:	0f b6 c0             	movzbl %al,%eax
    f711:	39 c2                	cmp    %eax,%edx
    f713:	0f 95 c0             	setne  %al
    f716:	0f b6 c0             	movzbl %al,%eax
    f719:	48 8b 95 88 f0 ff ff 	mov    -0xf78(%rbp),%rdx
    f720:	48 8d b5 dc ef ff ff 	lea    -0x1024(%rbp),%rsi
    f727:	41 b8 00 00 00 00    	mov    $0x0,%r8d
    f72d:	89 d9                	mov    %ebx,%ecx
    f72f:	48 89 c7             	mov    %rax,%rdi
    f732:	e8 a4 45 00 00       	callq  13cdb <func_92>
    f737:	48 89 85 48 f4 ff ff 	mov    %rax,-0xbb8(%rbp)
    f73e:	0f b6 85 ee ef ff ff 	movzbl -0x1012(%rbp),%eax
    f745:	83 e8 01             	sub    $0x1,%eax
    f748:	88 85 ee ef ff ff    	mov    %al,-0x1012(%rbp)
    f74e:	e9 ec 02 00 00       	jmpq   fa3f <func_55+0x9fa>
    f753:	48 8d 05 4e e1 00 00 	lea    0xe14e(%rip),%rax        # 1d8a8 <g_203>
    f75a:	48 89 85 50 f0 ff ff 	mov    %rax,-0xfb0(%rbp)
    f761:	48 b8 08 c1 ab 3f 61 	movabs $0x1eae94613fabc108,%rax
    f768:	94 ae 1e 
    f76b:	48 89 85 a0 f0 ff ff 	mov    %rax,-0xf60(%rbp)
    f772:	48 8d 85 50 f0 ff ff 	lea    -0xfb0(%rbp),%rax
    f779:	48 89 85 58 f0 ff ff 	mov    %rax,-0xfa8(%rbp)
    f780:	48 8d 85 58 f0 ff ff 	lea    -0xfa8(%rbp),%rax
    f787:	48 89 85 a8 f0 ff ff 	mov    %rax,-0xf58(%rbp)
    f78e:	c7 85 08 f0 ff ff 00 	movl   $0x0,-0xff8(%rbp)
    f795:	00 00 00 
    f798:	eb 1a                	jmp    f7b4 <func_55+0x76f>
    f79a:	8b 85 08 f0 ff ff    	mov    -0xff8(%rbp),%eax
    f7a0:	48 98                	cltq   
    f7a2:	c7 84 85 60 f6 ff ff 	movl   $0xefcd5da6,-0x9a0(%rbp,%rax,4)
    f7a9:	a6 5d cd ef 
    f7ad:	83 85 08 f0 ff ff 01 	addl   $0x1,-0xff8(%rbp)
    f7b4:	83 bd 08 f0 ff ff 03 	cmpl   $0x3,-0xff8(%rbp)
    f7bb:	7e dd                	jle    f79a <func_55+0x755>
    f7bd:	0f bf 9d d8 ef ff ff 	movswl -0x1028(%rbp),%ebx
    f7c4:	48 8b 05 55 17 01 00 	mov    0x11755(%rip),%rax        # 20f20 <g_1548>
    f7cb:	4c 8b 20             	mov    (%rax),%r12
    f7ce:	0f b7 85 dc ef ff ff 	movzwl -0x1024(%rbp),%eax
    f7d5:	44 0f b7 e8          	movzwl %ax,%r13d
    f7d9:	0f b7 85 dc ef ff ff 	movzwl -0x1024(%rbp),%eax
    f7e0:	0f b7 d0             	movzwl %ax,%edx
    f7e3:	48 8b 85 50 f0 ff ff 	mov    -0xfb0(%rbp),%rax
    f7ea:	8b 30                	mov    (%rax),%esi
    f7ec:	0f bf 8d d8 ef ff ff 	movswl -0x1028(%rbp),%ecx
    f7f3:	48 8b 85 50 f0 ff ff 	mov    -0xfb0(%rbp),%rax
    f7fa:	09 f1                	or     %esi,%ecx
    f7fc:	89 08                	mov    %ecx,(%rax)
    f7fe:	8b 00                	mov    (%rax),%eax
    f800:	39 c2                	cmp    %eax,%edx
    f802:	0f 92 c0             	setb   %al
    f805:	0f b6 d0             	movzbl %al,%edx
    f808:	8b 05 ba ef 00 00    	mov    0xefba(%rip),%eax        # 1e7c8 <g_1015>
    f80e:	89 c1                	mov    %eax,%ecx
    f810:	48 8b 05 e1 12 01 00 	mov    0x112e1(%rip),%rax        # 20af8 <g_773>
    f817:	48 8b 00             	mov    (%rax),%rax
    f81a:	31 ca                	xor    %ecx,%edx
    f81c:	66 89 10             	mov    %dx,(%rax)
    f81f:	0f b7 00             	movzwl (%rax),%eax
    f822:	98                   	cwtl   
    f823:	be da e1 ff ff       	mov    $0xffffe1da,%esi
    f828:	89 c7                	mov    %eax,%edi
    f82a:	e8 c6 8b ff ff       	callq  83f5 <safe_mul_func_int16_t_s_s>
    f82f:	98                   	cwtl   
    f830:	be 01 00 00 00       	mov    $0x1,%esi
    f835:	89 c7                	mov    %eax,%edi
    f837:	e8 90 8e ff ff       	callq  86cc <safe_mod_func_int32_t_s_s>
    f83c:	48 63 d0             	movslq %eax,%rdx
    f83f:	48 8b 05 ca 12 01 00 	mov    0x112ca(%rip),%rax        # 20b10 <g_945>
    f846:	48 8b 00             	mov    (%rax),%rax
    f849:	48 31 d0             	xor    %rdx,%rax
    f84c:	48 3d a9 00 00 00    	cmp    $0xa9,%rax
    f852:	0f 96 c0             	setbe  %al
    f855:	0f b6 c0             	movzbl %al,%eax
    f858:	44 89 ee             	mov    %r13d,%esi
    f85b:	89 c7                	mov    %eax,%edi
    f85d:	e8 18 96 ff ff       	callq  8e7a <safe_rshift_func_uint16_t_u_u>
    f862:	0f b7 c0             	movzwl %ax,%eax
    f865:	89 c7                	mov    %eax,%edi
    f867:	e8 3a 96 ff ff       	callq  8ea6 <safe_unary_minus_func_uint32_t_u>
    f86c:	8b 85 48 f0 ff ff    	mov    -0xfb8(%rbp),%eax
    f872:	48 98                	cltq   
    f874:	4c 89 e6             	mov    %r12,%rsi
    f877:	48 89 c7             	mov    %rax,%rdi
    f87a:	e8 29 90 ff ff       	callq  88a8 <safe_sub_func_int64_t_s_s>
    f87f:	0f be d0             	movsbl %al,%edx
    f882:	48 8b 05 d7 14 01 00 	mov    0x114d7(%rip),%rax        # 20d60 <g_961>
    f889:	48 8b 00             	mov    (%rax),%rax
    f88c:	0f b7 8d d8 ef ff ff 	movzwl -0x1028(%rbp),%ecx
    f893:	88 08                	mov    %cl,(%rax)
    f895:	0f b6 00             	movzbl (%rax),%eax
    f898:	0f be c0             	movsbl %al,%eax
    f89b:	89 d6                	mov    %edx,%esi
    f89d:	89 c7                	mov    %eax,%edi
    f89f:	e8 30 89 ff ff       	callq  81d4 <safe_add_func_int8_t_s_s>
    f8a4:	66 98                	cbtw   
    f8a6:	66 0b 85 d8 ef ff ff 	or     -0x1028(%rbp),%ax
    f8ad:	0f b7 c0             	movzwl %ax,%eax
    f8b0:	89 de                	mov    %ebx,%esi
    f8b2:	89 c7                	mov    %eax,%edi
    f8b4:	e8 c1 95 ff ff       	callq  8e7a <safe_rshift_func_uint16_t_u_u>
    f8b9:	89 c2                	mov    %eax,%edx
    f8bb:	48 8b 05 c6 14 01 00 	mov    0x114c6(%rip),%rax        # 20d88 <g_1175>
    f8c2:	0f b7 d2             	movzwl %dx,%edx
    f8c5:	89 10                	mov    %edx,(%rax)
    f8c7:	0f b7 85 f0 ef ff ff 	movzwl -0x1010(%rbp),%eax
    f8ce:	83 e8 01             	sub    $0x1,%eax
    f8d1:	66 89 85 f0 ef ff ff 	mov    %ax,-0x1010(%rbp)
    f8d8:	48 8b 85 a8 f0 ff ff 	mov    -0xf58(%rbp),%rax
    f8df:	48 c7 00 00 00 00 00 	movq   $0x0,(%rax)
    f8e6:	83 bd 1c f0 ff ff 00 	cmpl   $0x0,-0xfe4(%rbp)
    f8ed:	0f 84 40 01 00 00    	je     fa33 <func_55+0x9ee>
    f8f3:	0f b7 85 dc ef ff ff 	movzwl -0x1024(%rbp),%eax
    f8fa:	83 c0 01             	add    $0x1,%eax
    f8fd:	66 89 85 dc ef ff ff 	mov    %ax,-0x1024(%rbp)
    f904:	0f b7 85 dc ef ff ff 	movzwl -0x1024(%rbp),%eax
    f90b:	66 85 c0             	test   %ax,%ax
    f90e:	0f 85 03 01 00 00    	jne    fa17 <func_55+0x9d2>
    f914:	48 8b 05 6d 14 01 00 	mov    0x1146d(%rip),%rax        # 20d88 <g_1175>
    f91b:	8b 08                	mov    (%rax),%ecx
    f91d:	48 8d 05 80 f0 00 00 	lea    0xf080(%rip),%rax        # 1e9a4 <g_1199>
    f924:	8b 10                	mov    (%rax),%edx
    f926:	48 8b 05 5b 14 01 00 	mov    0x1145b(%rip),%rax        # 20d88 <g_1175>
    f92d:	31 ca                	xor    %ecx,%edx
    f92f:	89 10                	mov    %edx,(%rax)
    f931:	0f b7 85 dc ef ff ff 	movzwl -0x1024(%rbp),%eax
    f938:	0f b6 d8             	movzbl %al,%ebx
    f93b:	0f b7 85 d8 ef ff ff 	movzwl -0x1028(%rbp),%eax
    f942:	44 0f be e0          	movsbl %al,%r12d
    f946:	48 8b 05 d3 15 01 00 	mov    0x115d3(%rip),%rax        # 20f20 <g_1548>
    f94d:	48 8b 10             	mov    (%rax),%rdx
    f950:	0f b7 85 dc ef ff ff 	movzwl -0x1024(%rbp),%eax
    f957:	0f b7 c0             	movzwl %ax,%eax
    f95a:	48 39 c2             	cmp    %rax,%rdx
    f95d:	0f 95 c0             	setne  %al
    f960:	41 89 c6             	mov    %eax,%r14d
    f963:	48 8b 85 a0 f0 ff ff 	mov    -0xf60(%rbp),%rax
    f96a:	41 89 c5             	mov    %eax,%r13d
    f96d:	0f b7 85 dc ef ff ff 	movzwl -0x1024(%rbp),%eax
    f974:	0f b7 d0             	movzwl %ax,%edx
    f977:	48 8b 05 f2 f0 00 00 	mov    0xf0f2(%rip),%rax        # 1ea70 <g_2025>
    f97e:	48 8b 05 fb 14 01 00 	mov    0x114fb(%rip),%rax        # 20e80 <g_1262>
    f985:	48 8b 00             	mov    (%rax),%rax
    f988:	0f b7 00             	movzwl (%rax),%eax
    f98b:	66 3d b0 5a          	cmp    $0x5ab0,%ax
    f98f:	0f 95 c0             	setne  %al
    f992:	0f b6 c0             	movzbl %al,%eax
    f995:	89 d6                	mov    %edx,%esi
    f997:	89 c7                	mov    %eax,%edi
    f999:	e8 f0 93 ff ff       	callq  8d8e <safe_div_func_uint16_t_u_u>
    f99e:	0f b7 d0             	movzwl %ax,%edx
    f9a1:	0f bf 85 d8 ef ff ff 	movswl -0x1028(%rbp),%eax
    f9a8:	39 c2                	cmp    %eax,%edx
    f9aa:	0f 9d c0             	setge  %al
    f9ad:	0f b6 c0             	movzbl %al,%eax
    f9b0:	44 89 ee             	mov    %r13d,%esi
    f9b3:	89 c7                	mov    %eax,%edi
    f9b5:	e8 7b 89 ff ff       	callq  8335 <safe_rshift_func_int8_t_s_s>
    f9ba:	0f be d0             	movsbl %al,%edx
    f9bd:	8b 85 b4 f1 ff ff    	mov    -0xe4c(%rbp),%eax
    f9c3:	89 c1                	mov    %eax,%ecx
    f9c5:	48 8b 05 3c 11 01 00 	mov    0x1113c(%rip),%rax        # 20b08 <g_793>
    f9cc:	0f b6 00             	movzbl (%rax),%eax
    f9cf:	0f b6 c0             	movzbl %al,%eax
    f9d2:	31 c8                	xor    %ecx,%eax
    f9d4:	98                   	cwtl   
    f9d5:	89 d6                	mov    %edx,%esi
    f9d7:	89 c7                	mov    %eax,%edi
    f9d9:	e8 77 8a ff ff       	callq  8455 <safe_div_func_int16_t_s_s>
    f9de:	44 09 f0             	or     %r14d,%eax
    f9e1:	0f be c0             	movsbl %al,%eax
    f9e4:	44 89 e6             	mov    %r12d,%esi
    f9e7:	89 c7                	mov    %eax,%edi
    f9e9:	e8 e6 87 ff ff       	callq  81d4 <safe_add_func_int8_t_s_s>
    f9ee:	0f b6 c0             	movzbl %al,%eax
    f9f1:	89 de                	mov    %ebx,%esi
    f9f3:	89 c7                	mov    %eax,%edi
    f9f5:	e8 e1 91 ff ff       	callq  8bdb <safe_div_func_uint8_t_u_u>
    f9fa:	66 83 bd d8 ef ff ff 	cmpw   $0x0,-0x1028(%rbp)
    fa01:	00 
    fa02:	0f 9e c0             	setle  %al
    fa05:	0f b6 d0             	movzbl %al,%edx
    fa08:	48 8d 05 95 ef 00 00 	lea    0xef95(%rip),%rax        # 1e9a4 <g_1199>
    fa0f:	8b 00                	mov    (%rax),%eax
    fa11:	09 d0                	or     %edx,%eax
    fa13:	85 c0                	test   %eax,%eax
    fa15:	74 07                	je     fa1e <func_55+0x9d9>
    fa17:	ba 01 00 00 00       	mov    $0x1,%edx
    fa1c:	eb 05                	jmp    fa23 <func_55+0x9de>
    fa1e:	ba 00 00 00 00       	mov    $0x0,%edx
    fa23:	8b 85 6c f6 ff ff    	mov    -0x994(%rbp),%eax
    fa29:	21 d0                	and    %edx,%eax
    fa2b:	89 85 6c f6 ff ff    	mov    %eax,-0x994(%rbp)
    fa31:	eb 0c                	jmp    fa3f <func_55+0x9fa>
    fa33:	0f b7 05 3e f0 00 00 	movzwl 0xf03e(%rip),%eax        # 1ea78 <g_2026>
    fa3a:	66 85 c0             	test   %ax,%ax
    fa3d:	75 22                	jne    fa61 <func_55+0xa1c>
    fa3f:	0f b7 05 22 d6 00 00 	movzwl 0xd622(%rip),%eax        # 1d068 <g_44>
    fa46:	83 c0 01             	add    $0x1,%eax
    fa49:	66 89 05 18 d6 00 00 	mov    %ax,0xd618(%rip)        # 1d068 <g_44>
    fa50:	0f b7 05 11 d6 00 00 	movzwl 0xd611(%rip),%eax        # 1d068 <g_44>
    fa57:	66 83 f8 16          	cmp    $0x16,%ax
    fa5b:	0f 87 2a f7 ff ff    	ja     f18b <func_55+0x146>
    fa61:	c6 05 28 de 00 00 00 	movb   $0x0,0xde28(%rip)        # 1d890 <g_141>
    fa68:	e9 6c 11 00 00       	jmpq   10bd9 <func_55+0x1b94>
    fa6d:	48 c7 85 b8 f0 ff ff 	movq   $0x7,-0xf48(%rbp)
    fa74:	07 00 00 00 
    fa78:	48 8d 05 01 f0 00 00 	lea    0xf001(%rip),%rax        # 1ea80 <g_2040>
    fa7f:	48 89 85 c0 f0 ff ff 	mov    %rax,-0xf40(%rbp)
    fa86:	48 c7 85 c8 f0 ff ff 	movq   $0x0,-0xf38(%rbp)
    fa8d:	00 00 00 00 
    fa91:	c7 85 28 f0 ff ff f5 	movl   $0xa0cb2f5,-0xfd8(%rbp)
    fa98:	b2 0c 0a 
    fa9b:	48 8d 05 80 e7 00 00 	lea    0xe780(%rip),%rax        # 1e222 <g_417+0x162>
    faa2:	48 89 85 d0 f0 ff ff 	mov    %rax,-0xf30(%rbp)
    faa9:	48 8d 05 a2 ec 00 00 	lea    0xeca2(%rip),%rax        # 1e752 <g_573>
    fab0:	48 89 85 d8 f0 ff ff 	mov    %rax,-0xf28(%rbp)
    fab7:	c7 85 2c f0 ff ff 39 	movl   $0x3a96fa39,-0xfd4(%rbp)
    fabe:	fa 96 3a 
    fac1:	c7 85 30 f0 ff ff fb 	movl   $0xfffffffb,-0xfd0(%rbp)
    fac8:	ff ff ff 
    facb:	48 c7 85 e0 f0 ff ff 	movq   $0x0,-0xf20(%rbp)
    fad2:	00 00 00 00 
    fad6:	48 8d 05 5b 16 01 00 	lea    0x1165b(%rip),%rax        # 21138 <g_2049+0x18>
    fadd:	48 89 85 e8 f0 ff ff 	mov    %rax,-0xf18(%rbp)
    fae4:	66 c7 85 f6 ef ff ff 	movw   $0xfef3,-0x100a(%rbp)
    faeb:	f3 fe 
    faed:	c7 85 34 f0 ff ff 01 	movl   $0x1,-0xfcc(%rbp)
    faf4:	00 00 00 
    faf7:	c7 85 38 f0 ff ff ff 	movl   $0xffffffff,-0xfc8(%rbp)
    fafe:	ff ff ff 
    fb01:	c7 85 30 f1 ff ff fc 	movl   $0xfffffffc,-0xed0(%rbp)
    fb08:	ff ff ff 
    fb0b:	c7 85 34 f1 ff ff 00 	movl   $0x0,-0xecc(%rbp)
    fb12:	00 00 00 
    fb15:	c7 85 38 f1 ff ff 00 	movl   $0x0,-0xec8(%rbp)
    fb1c:	00 00 00 
    fb1f:	c7 85 3c f1 ff ff fc 	movl   $0xfffffffc,-0xec4(%rbp)
    fb26:	ff ff ff 
    fb29:	c7 85 40 f1 ff ff 00 	movl   $0x0,-0xec0(%rbp)
    fb30:	00 00 00 
    fb33:	c7 85 44 f1 ff ff 00 	movl   $0x0,-0xebc(%rbp)
    fb3a:	00 00 00 
    fb3d:	c7 85 48 f1 ff ff fc 	movl   $0xfffffffc,-0xeb8(%rbp)
    fb44:	ff ff ff 
    fb47:	48 8d 85 60 f6 ff ff 	lea    -0x9a0(%rbp),%rax
    fb4e:	48 8d 15 ab 91 00 00 	lea    0x91ab(%rip),%rdx        # 18d00 <g_3221+0xbe8>
    fb55:	b9 78 00 00 00       	mov    $0x78,%ecx
    fb5a:	48 89 c7             	mov    %rax,%rdi
    fb5d:	48 89 d6             	mov    %rdx,%rsi
    fb60:	f3 48 a5             	rep movsq %ds:(%rsi),%es:(%rdi)
    fb63:	c7 85 3c f0 ff ff 1a 	movl   $0x468ed11a,-0xfc4(%rbp)
    fb6a:	d1 8e 46 
    fb6d:	c6 85 ef ef ff ff ef 	movb   $0xef,-0x1011(%rbp)
    fb74:	48 8d 05 b1 e5 00 00 	lea    0xe5b1(%rip),%rax        # 1e12c <g_417+0x6c>
    fb7b:	48 89 85 20 fa ff ff 	mov    %rax,-0x5e0(%rbp)
    fb82:	48 8d 85 f0 ef ff ff 	lea    -0x1010(%rbp),%rax
    fb89:	48 89 85 28 fa ff ff 	mov    %rax,-0x5d8(%rbp)
    fb90:	48 8d 05 b1 eb 00 00 	lea    0xebb1(%rip),%rax        # 1e748 <g_555+0x8>
    fb97:	48 89 85 30 fa ff ff 	mov    %rax,-0x5d0(%rbp)
    fb9e:	48 8d 05 45 e5 00 00 	lea    0xe545(%rip),%rax        # 1e0ea <g_417+0x2a>
    fba5:	48 89 85 38 fa ff ff 	mov    %rax,-0x5c8(%rbp)
    fbac:	48 8d 05 a5 1c 01 00 	lea    0x11ca5(%rip),%rax        # 21858 <g_419>
    fbb3:	48 89 85 40 fa ff ff 	mov    %rax,-0x5c0(%rbp)
    fbba:	48 8d 05 97 1c 01 00 	lea    0x11c97(%rip),%rax        # 21858 <g_419>
    fbc1:	48 89 85 48 fa ff ff 	mov    %rax,-0x5b8(%rbp)
    fbc8:	48 8d 85 f0 ef ff ff 	lea    -0x1010(%rbp),%rax
    fbcf:	48 89 85 50 fa ff ff 	mov    %rax,-0x5b0(%rbp)
    fbd6:	48 8d 05 f3 eb 00 00 	lea    0xebf3(%rip),%rax        # 1e7d0 <g_1044>
    fbdd:	48 89 85 58 fa ff ff 	mov    %rax,-0x5a8(%rbp)
    fbe4:	48 8d 05 f3 e4 00 00 	lea    0xe4f3(%rip),%rax        # 1e0de <g_417+0x1e>
    fbeb:	48 89 85 60 fa ff ff 	mov    %rax,-0x5a0(%rbp)
    fbf2:	48 8d 05 55 eb 00 00 	lea    0xeb55(%rip),%rax        # 1e74e <g_555+0xe>
    fbf9:	48 89 85 68 fa ff ff 	mov    %rax,-0x598(%rbp)
    fc00:	48 8d 05 51 1c 01 00 	lea    0x11c51(%rip),%rax        # 21858 <g_419>
    fc07:	48 89 85 70 fa ff ff 	mov    %rax,-0x590(%rbp)
    fc0e:	48 8d 05 73 ee 00 00 	lea    0xee73(%rip),%rax        # 1ea88 <g_2168>
    fc15:	48 89 85 78 fa ff ff 	mov    %rax,-0x588(%rbp)
    fc1c:	48 8d 05 ad eb 00 00 	lea    0xebad(%rip),%rax        # 1e7d0 <g_1044>
    fc23:	48 89 85 80 fa ff ff 	mov    %rax,-0x580(%rbp)
    fc2a:	48 8d 05 27 1c 01 00 	lea    0x11c27(%rip),%rax        # 21858 <g_419>
    fc31:	48 89 85 88 fa ff ff 	mov    %rax,-0x578(%rbp)
    fc38:	48 8d 05 19 1c 01 00 	lea    0x11c19(%rip),%rax        # 21858 <g_419>
    fc3f:	48 89 85 90 fa ff ff 	mov    %rax,-0x570(%rbp)
    fc46:	48 8d 05 79 e5 00 00 	lea    0xe579(%rip),%rax        # 1e1c6 <g_417+0x106>
    fc4d:	48 89 85 98 fa ff ff 	mov    %rax,-0x568(%rbp)
    fc54:	48 8d 05 fd 1b 01 00 	lea    0x11bfd(%rip),%rax        # 21858 <g_419>
    fc5b:	48 89 85 a0 fa ff ff 	mov    %rax,-0x560(%rbp)
    fc62:	48 8d 05 ef 1b 01 00 	lea    0x11bef(%rip),%rax        # 21858 <g_419>
    fc69:	48 89 85 a8 fa ff ff 	mov    %rax,-0x558(%rbp)
    fc70:	48 8d 05 59 eb 00 00 	lea    0xeb59(%rip),%rax        # 1e7d0 <g_1044>
    fc77:	48 89 85 b0 fa ff ff 	mov    %rax,-0x550(%rbp)
    fc7e:	48 8d 05 03 ee 00 00 	lea    0xee03(%rip),%rax        # 1ea88 <g_2168>
    fc85:	48 89 85 b8 fa ff ff 	mov    %rax,-0x548(%rbp)
    fc8c:	48 8d 05 c5 1b 01 00 	lea    0x11bc5(%rip),%rax        # 21858 <g_419>
    fc93:	48 89 85 c0 fa ff ff 	mov    %rax,-0x540(%rbp)
    fc9a:	48 8d 05 ad ea 00 00 	lea    0xeaad(%rip),%rax        # 1e74e <g_555+0xe>
    fca1:	48 89 85 c8 fa ff ff 	mov    %rax,-0x538(%rbp)
    fca8:	48 8d 05 2f e4 00 00 	lea    0xe42f(%rip),%rax        # 1e0de <g_417+0x1e>
    fcaf:	48 89 85 d0 fa ff ff 	mov    %rax,-0x530(%rbp)
    fcb6:	48 8d 05 13 eb 00 00 	lea    0xeb13(%rip),%rax        # 1e7d0 <g_1044>
    fcbd:	48 89 85 d8 fa ff ff 	mov    %rax,-0x528(%rbp)
    fcc4:	48 8d 85 f0 ef ff ff 	lea    -0x1010(%rbp),%rax
    fccb:	48 89 85 e0 fa ff ff 	mov    %rax,-0x520(%rbp)
    fcd2:	48 8d 05 7f 1b 01 00 	lea    0x11b7f(%rip),%rax        # 21858 <g_419>
    fcd9:	48 89 85 e8 fa ff ff 	mov    %rax,-0x518(%rbp)
    fce0:	48 8d 05 71 1b 01 00 	lea    0x11b71(%rip),%rax        # 21858 <g_419>
    fce7:	48 89 85 f0 fa ff ff 	mov    %rax,-0x510(%rbp)
    fcee:	48 8d 05 f5 e3 00 00 	lea    0xe3f5(%rip),%rax        # 1e0ea <g_417+0x2a>
    fcf5:	48 89 85 f8 fa ff ff 	mov    %rax,-0x508(%rbp)
    fcfc:	48 8d 05 45 ea 00 00 	lea    0xea45(%rip),%rax        # 1e748 <g_555+0x8>
    fd03:	48 89 85 00 fb ff ff 	mov    %rax,-0x500(%rbp)
    fd0a:	48 8d 85 f0 ef ff ff 	lea    -0x1010(%rbp),%rax
    fd11:	48 89 85 08 fb ff ff 	mov    %rax,-0x4f8(%rbp)
    fd18:	48 8d 05 0d e4 00 00 	lea    0xe40d(%rip),%rax        # 1e12c <g_417+0x6c>
    fd1f:	48 89 85 10 fb ff ff 	mov    %rax,-0x4f0(%rbp)
    fd26:	48 8d 05 b1 e3 00 00 	lea    0xe3b1(%rip),%rax        # 1e0de <g_417+0x1e>
    fd2d:	48 89 85 18 fb ff ff 	mov    %rax,-0x4e8(%rbp)
    fd34:	48 c7 85 20 fb ff ff 	movq   $0x0,-0x4e0(%rbp)
    fd3b:	00 00 00 00 
    fd3f:	48 c7 85 28 fb ff ff 	movq   $0x0,-0x4d8(%rbp)
    fd46:	00 00 00 00 
    fd4a:	48 8d 05 fd e9 00 00 	lea    0xe9fd(%rip),%rax        # 1e74e <g_555+0xe>
    fd51:	48 89 85 30 fb ff ff 	mov    %rax,-0x4d0(%rbp)
    fd58:	48 c7 85 38 fb ff ff 	movq   $0x0,-0x4c8(%rbp)
    fd5f:	00 00 00 00 
    fd63:	48 c7 85 40 fb ff ff 	movq   $0x0,-0x4c0(%rbp)
    fd6a:	00 00 00 00 
    fd6e:	48 8d 05 69 e3 00 00 	lea    0xe369(%rip),%rax        # 1e0de <g_417+0x1e>
    fd75:	48 89 85 48 fb ff ff 	mov    %rax,-0x4b8(%rbp)
    fd7c:	48 8d 05 a9 e3 00 00 	lea    0xe3a9(%rip),%rax        # 1e12c <g_417+0x6c>
    fd83:	48 89 85 50 fb ff ff 	mov    %rax,-0x4b0(%rbp)
    fd8a:	48 8d 85 f0 ef ff ff 	lea    -0x1010(%rbp),%rax
    fd91:	48 89 85 58 fb ff ff 	mov    %rax,-0x4a8(%rbp)
    fd98:	48 8d 05 a9 e9 00 00 	lea    0xe9a9(%rip),%rax        # 1e748 <g_555+0x8>
    fd9f:	48 89 85 60 fb ff ff 	mov    %rax,-0x4a0(%rbp)
    fda6:	48 8d 05 3d e3 00 00 	lea    0xe33d(%rip),%rax        # 1e0ea <g_417+0x2a>
    fdad:	48 89 85 68 fb ff ff 	mov    %rax,-0x498(%rbp)
    fdb4:	48 8d 05 9d 1a 01 00 	lea    0x11a9d(%rip),%rax        # 21858 <g_419>
    fdbb:	48 89 85 70 fb ff ff 	mov    %rax,-0x490(%rbp)
    fdc2:	48 8d 05 8f 1a 01 00 	lea    0x11a8f(%rip),%rax        # 21858 <g_419>
    fdc9:	48 89 85 78 fb ff ff 	mov    %rax,-0x488(%rbp)
    fdd0:	48 8d 85 f0 ef ff ff 	lea    -0x1010(%rbp),%rax
    fdd7:	48 89 85 80 fb ff ff 	mov    %rax,-0x480(%rbp)
    fdde:	48 8d 05 eb e9 00 00 	lea    0xe9eb(%rip),%rax        # 1e7d0 <g_1044>
    fde5:	48 89 85 88 fb ff ff 	mov    %rax,-0x478(%rbp)
    fdec:	48 8d 05 eb e2 00 00 	lea    0xe2eb(%rip),%rax        # 1e0de <g_417+0x1e>
    fdf3:	48 89 85 90 fb ff ff 	mov    %rax,-0x470(%rbp)
    fdfa:	48 8d 05 4d e9 00 00 	lea    0xe94d(%rip),%rax        # 1e74e <g_555+0xe>
    fe01:	48 89 85 98 fb ff ff 	mov    %rax,-0x468(%rbp)
    fe08:	48 8d 05 49 1a 01 00 	lea    0x11a49(%rip),%rax        # 21858 <g_419>
    fe0f:	48 89 85 a0 fb ff ff 	mov    %rax,-0x460(%rbp)
    fe16:	48 8d 05 6b ec 00 00 	lea    0xec6b(%rip),%rax        # 1ea88 <g_2168>
    fe1d:	48 89 85 a8 fb ff ff 	mov    %rax,-0x458(%rbp)
    fe24:	48 8d 05 a5 e9 00 00 	lea    0xe9a5(%rip),%rax        # 1e7d0 <g_1044>
    fe2b:	48 89 85 b0 fb ff ff 	mov    %rax,-0x450(%rbp)
    fe32:	48 8d 05 1f 1a 01 00 	lea    0x11a1f(%rip),%rax        # 21858 <g_419>
    fe39:	48 89 85 b8 fb ff ff 	mov    %rax,-0x448(%rbp)
    fe40:	48 8d 05 11 1a 01 00 	lea    0x11a11(%rip),%rax        # 21858 <g_419>
    fe47:	48 89 85 c0 fb ff ff 	mov    %rax,-0x440(%rbp)
    fe4e:	48 8d 05 71 e3 00 00 	lea    0xe371(%rip),%rax        # 1e1c6 <g_417+0x106>
    fe55:	48 89 85 c8 fb ff ff 	mov    %rax,-0x438(%rbp)
    fe5c:	48 8d 05 f5 19 01 00 	lea    0x119f5(%rip),%rax        # 21858 <g_419>
    fe63:	48 89 85 d0 fb ff ff 	mov    %rax,-0x430(%rbp)
    fe6a:	48 8d 05 e7 19 01 00 	lea    0x119e7(%rip),%rax        # 21858 <g_419>
    fe71:	48 89 85 d8 fb ff ff 	mov    %rax,-0x428(%rbp)
    fe78:	48 8d 05 51 e9 00 00 	lea    0xe951(%rip),%rax        # 1e7d0 <g_1044>
    fe7f:	48 89 85 e0 fb ff ff 	mov    %rax,-0x420(%rbp)
    fe86:	48 8d 05 fb eb 00 00 	lea    0xebfb(%rip),%rax        # 1ea88 <g_2168>
    fe8d:	48 89 85 e8 fb ff ff 	mov    %rax,-0x418(%rbp)
    fe94:	48 8d 05 bd 19 01 00 	lea    0x119bd(%rip),%rax        # 21858 <g_419>
    fe9b:	48 89 85 f0 fb ff ff 	mov    %rax,-0x410(%rbp)
    fea2:	48 8d 05 a5 e8 00 00 	lea    0xe8a5(%rip),%rax        # 1e74e <g_555+0xe>
    fea9:	48 89 85 f8 fb ff ff 	mov    %rax,-0x408(%rbp)
    feb0:	48 8d 05 27 e2 00 00 	lea    0xe227(%rip),%rax        # 1e0de <g_417+0x1e>
    feb7:	48 89 85 00 fc ff ff 	mov    %rax,-0x400(%rbp)
    febe:	48 8d 05 0b e9 00 00 	lea    0xe90b(%rip),%rax        # 1e7d0 <g_1044>
    fec5:	48 89 85 08 fc ff ff 	mov    %rax,-0x3f8(%rbp)
    fecc:	48 8d 85 f0 ef ff ff 	lea    -0x1010(%rbp),%rax
    fed3:	48 89 85 10 fc ff ff 	mov    %rax,-0x3f0(%rbp)
    feda:	48 8d 05 77 19 01 00 	lea    0x11977(%rip),%rax        # 21858 <g_419>
    fee1:	48 89 85 18 fc ff ff 	mov    %rax,-0x3e8(%rbp)
    fee8:	48 8d 05 69 19 01 00 	lea    0x11969(%rip),%rax        # 21858 <g_419>
    feef:	48 89 85 20 fc ff ff 	mov    %rax,-0x3e0(%rbp)
    fef6:	48 8d 05 ed e1 00 00 	lea    0xe1ed(%rip),%rax        # 1e0ea <g_417+0x2a>
    fefd:	48 89 85 28 fc ff ff 	mov    %rax,-0x3d8(%rbp)
    ff04:	48 8d 05 3d e8 00 00 	lea    0xe83d(%rip),%rax        # 1e748 <g_555+0x8>
    ff0b:	48 89 85 30 fc ff ff 	mov    %rax,-0x3d0(%rbp)
    ff12:	48 8d 85 f0 ef ff ff 	lea    -0x1010(%rbp),%rax
    ff19:	48 89 85 38 fc ff ff 	mov    %rax,-0x3c8(%rbp)
    ff20:	48 8d 05 05 e2 00 00 	lea    0xe205(%rip),%rax        # 1e12c <g_417+0x6c>
    ff27:	48 89 85 40 fc ff ff 	mov    %rax,-0x3c0(%rbp)
    ff2e:	48 8d 05 a9 e1 00 00 	lea    0xe1a9(%rip),%rax        # 1e0de <g_417+0x1e>
    ff35:	48 89 85 48 fc ff ff 	mov    %rax,-0x3b8(%rbp)
    ff3c:	48 c7 85 50 fc ff ff 	movq   $0x0,-0x3b0(%rbp)
    ff43:	00 00 00 00 
    ff47:	48 c7 85 58 fc ff ff 	movq   $0x0,-0x3a8(%rbp)
    ff4e:	00 00 00 00 
    ff52:	48 8d 05 f5 e7 00 00 	lea    0xe7f5(%rip),%rax        # 1e74e <g_555+0xe>
    ff59:	48 89 85 60 fc ff ff 	mov    %rax,-0x3a0(%rbp)
    ff60:	48 c7 85 68 fc ff ff 	movq   $0x0,-0x398(%rbp)
    ff67:	00 00 00 00 
    ff6b:	48 c7 85 70 fc ff ff 	movq   $0x0,-0x390(%rbp)
    ff72:	00 00 00 00 
    ff76:	48 8d 05 61 e1 00 00 	lea    0xe161(%rip),%rax        # 1e0de <g_417+0x1e>
    ff7d:	48 89 85 78 fc ff ff 	mov    %rax,-0x388(%rbp)
    ff84:	48 8d 05 a1 e1 00 00 	lea    0xe1a1(%rip),%rax        # 1e12c <g_417+0x6c>
    ff8b:	48 89 85 80 fc ff ff 	mov    %rax,-0x380(%rbp)
    ff92:	48 8d 85 f0 ef ff ff 	lea    -0x1010(%rbp),%rax
    ff99:	48 89 85 88 fc ff ff 	mov    %rax,-0x378(%rbp)
    ffa0:	48 8d 05 a1 e7 00 00 	lea    0xe7a1(%rip),%rax        # 1e748 <g_555+0x8>
    ffa7:	48 89 85 90 fc ff ff 	mov    %rax,-0x370(%rbp)
    ffae:	48 8d 05 35 e1 00 00 	lea    0xe135(%rip),%rax        # 1e0ea <g_417+0x2a>
    ffb5:	48 89 85 98 fc ff ff 	mov    %rax,-0x368(%rbp)
    ffbc:	48 8d 05 95 18 01 00 	lea    0x11895(%rip),%rax        # 21858 <g_419>
    ffc3:	48 89 85 a0 fc ff ff 	mov    %rax,-0x360(%rbp)
    ffca:	48 8d 05 87 18 01 00 	lea    0x11887(%rip),%rax        # 21858 <g_419>
    ffd1:	48 89 85 a8 fc ff ff 	mov    %rax,-0x358(%rbp)
    ffd8:	48 8d 85 f0 ef ff ff 	lea    -0x1010(%rbp),%rax
    ffdf:	48 89 85 b0 fc ff ff 	mov    %rax,-0x350(%rbp)
    ffe6:	48 8d 05 e3 e7 00 00 	lea    0xe7e3(%rip),%rax        # 1e7d0 <g_1044>
    ffed:	48 89 85 b8 fc ff ff 	mov    %rax,-0x348(%rbp)
    fff4:	48 8d 05 e3 e0 00 00 	lea    0xe0e3(%rip),%rax        # 1e0de <g_417+0x1e>
    fffb:	48 89 85 c0 fc ff ff 	mov    %rax,-0x340(%rbp)
   10002:	48 8d 05 45 e7 00 00 	lea    0xe745(%rip),%rax        # 1e74e <g_555+0xe>
   10009:	48 89 85 c8 fc ff ff 	mov    %rax,-0x338(%rbp)
   10010:	48 8d 05 41 18 01 00 	lea    0x11841(%rip),%rax        # 21858 <g_419>
   10017:	48 89 85 d0 fc ff ff 	mov    %rax,-0x330(%rbp)
   1001e:	48 8d 05 63 ea 00 00 	lea    0xea63(%rip),%rax        # 1ea88 <g_2168>
   10025:	48 89 85 d8 fc ff ff 	mov    %rax,-0x328(%rbp)
   1002c:	48 8d 05 9d e7 00 00 	lea    0xe79d(%rip),%rax        # 1e7d0 <g_1044>
   10033:	48 89 85 e0 fc ff ff 	mov    %rax,-0x320(%rbp)
   1003a:	48 8d 05 17 18 01 00 	lea    0x11817(%rip),%rax        # 21858 <g_419>
   10041:	48 89 85 e8 fc ff ff 	mov    %rax,-0x318(%rbp)
   10048:	48 8d 05 09 18 01 00 	lea    0x11809(%rip),%rax        # 21858 <g_419>
   1004f:	48 89 85 f0 fc ff ff 	mov    %rax,-0x310(%rbp)
   10056:	48 8d 05 69 e1 00 00 	lea    0xe169(%rip),%rax        # 1e1c6 <g_417+0x106>
   1005d:	48 89 85 f8 fc ff ff 	mov    %rax,-0x308(%rbp)
   10064:	48 8d 05 ed 17 01 00 	lea    0x117ed(%rip),%rax        # 21858 <g_419>
   1006b:	48 89 85 00 fd ff ff 	mov    %rax,-0x300(%rbp)
   10072:	48 8d 05 df 17 01 00 	lea    0x117df(%rip),%rax        # 21858 <g_419>
   10079:	48 89 85 08 fd ff ff 	mov    %rax,-0x2f8(%rbp)
   10080:	48 8d 05 49 e7 00 00 	lea    0xe749(%rip),%rax        # 1e7d0 <g_1044>
   10087:	48 89 85 10 fd ff ff 	mov    %rax,-0x2f0(%rbp)
   1008e:	48 8d 05 f3 e9 00 00 	lea    0xe9f3(%rip),%rax        # 1ea88 <g_2168>
   10095:	48 89 85 18 fd ff ff 	mov    %rax,-0x2e8(%rbp)
   1009c:	48 8d 05 b5 17 01 00 	lea    0x117b5(%rip),%rax        # 21858 <g_419>
   100a3:	48 89 85 20 fd ff ff 	mov    %rax,-0x2e0(%rbp)
   100aa:	48 8d 05 9d e6 00 00 	lea    0xe69d(%rip),%rax        # 1e74e <g_555+0xe>
   100b1:	48 89 85 28 fd ff ff 	mov    %rax,-0x2d8(%rbp)
   100b8:	48 8d 05 1f e0 00 00 	lea    0xe01f(%rip),%rax        # 1e0de <g_417+0x1e>
   100bf:	48 89 85 30 fd ff ff 	mov    %rax,-0x2d0(%rbp)
   100c6:	48 8d 05 03 e7 00 00 	lea    0xe703(%rip),%rax        # 1e7d0 <g_1044>
   100cd:	48 89 85 38 fd ff ff 	mov    %rax,-0x2c8(%rbp)
   100d4:	48 8d 85 f0 ef ff ff 	lea    -0x1010(%rbp),%rax
   100db:	48 89 85 40 fd ff ff 	mov    %rax,-0x2c0(%rbp)
   100e2:	48 8d 05 6f 17 01 00 	lea    0x1176f(%rip),%rax        # 21858 <g_419>
   100e9:	48 89 85 48 fd ff ff 	mov    %rax,-0x2b8(%rbp)
   100f0:	48 8d 05 61 17 01 00 	lea    0x11761(%rip),%rax        # 21858 <g_419>
   100f7:	48 89 85 50 fd ff ff 	mov    %rax,-0x2b0(%rbp)
   100fe:	48 8d 05 e5 df 00 00 	lea    0xdfe5(%rip),%rax        # 1e0ea <g_417+0x2a>
   10105:	48 89 85 58 fd ff ff 	mov    %rax,-0x2a8(%rbp)
   1010c:	48 8d 05 35 e6 00 00 	lea    0xe635(%rip),%rax        # 1e748 <g_555+0x8>
   10113:	48 89 85 60 fd ff ff 	mov    %rax,-0x2a0(%rbp)
   1011a:	48 8d 85 f0 ef ff ff 	lea    -0x1010(%rbp),%rax
   10121:	48 89 85 68 fd ff ff 	mov    %rax,-0x298(%rbp)
   10128:	48 8d 05 fd df 00 00 	lea    0xdffd(%rip),%rax        # 1e12c <g_417+0x6c>
   1012f:	48 89 85 70 fd ff ff 	mov    %rax,-0x290(%rbp)
   10136:	48 8d 05 a1 df 00 00 	lea    0xdfa1(%rip),%rax        # 1e0de <g_417+0x1e>
   1013d:	48 89 85 78 fd ff ff 	mov    %rax,-0x288(%rbp)
   10144:	48 c7 85 80 fd ff ff 	movq   $0x0,-0x280(%rbp)
   1014b:	00 00 00 00 
   1014f:	48 c7 85 88 fd ff ff 	movq   $0x0,-0x278(%rbp)
   10156:	00 00 00 00 
   1015a:	48 8d 05 ed e5 00 00 	lea    0xe5ed(%rip),%rax        # 1e74e <g_555+0xe>
   10161:	48 89 85 90 fd ff ff 	mov    %rax,-0x270(%rbp)
   10168:	48 c7 85 98 fd ff ff 	movq   $0x0,-0x268(%rbp)
   1016f:	00 00 00 00 
   10173:	48 c7 85 a0 fd ff ff 	movq   $0x0,-0x260(%rbp)
   1017a:	00 00 00 00 
   1017e:	48 8d 05 59 df 00 00 	lea    0xdf59(%rip),%rax        # 1e0de <g_417+0x1e>
   10185:	48 89 85 a8 fd ff ff 	mov    %rax,-0x258(%rbp)
   1018c:	48 8d 05 99 df 00 00 	lea    0xdf99(%rip),%rax        # 1e12c <g_417+0x6c>
   10193:	48 89 85 b0 fd ff ff 	mov    %rax,-0x250(%rbp)
   1019a:	48 8d 85 f0 ef ff ff 	lea    -0x1010(%rbp),%rax
   101a1:	48 89 85 b8 fd ff ff 	mov    %rax,-0x248(%rbp)
   101a8:	48 8d 05 99 e5 00 00 	lea    0xe599(%rip),%rax        # 1e748 <g_555+0x8>
   101af:	48 89 85 c0 fd ff ff 	mov    %rax,-0x240(%rbp)
   101b6:	48 8d 05 2d df 00 00 	lea    0xdf2d(%rip),%rax        # 1e0ea <g_417+0x2a>
   101bd:	48 89 85 c8 fd ff ff 	mov    %rax,-0x238(%rbp)
   101c4:	48 8d 05 8d 16 01 00 	lea    0x1168d(%rip),%rax        # 21858 <g_419>
   101cb:	48 89 85 d0 fd ff ff 	mov    %rax,-0x230(%rbp)
   101d2:	48 8d 05 7f 16 01 00 	lea    0x1167f(%rip),%rax        # 21858 <g_419>
   101d9:	48 89 85 d8 fd ff ff 	mov    %rax,-0x228(%rbp)
   101e0:	48 8d 85 f0 ef ff ff 	lea    -0x1010(%rbp),%rax
   101e7:	48 89 85 e0 fd ff ff 	mov    %rax,-0x220(%rbp)
   101ee:	48 8d 05 db e5 00 00 	lea    0xe5db(%rip),%rax        # 1e7d0 <g_1044>
   101f5:	48 89 85 e8 fd ff ff 	mov    %rax,-0x218(%rbp)
   101fc:	48 8d 05 db de 00 00 	lea    0xdedb(%rip),%rax        # 1e0de <g_417+0x1e>
   10203:	48 89 85 f0 fd ff ff 	mov    %rax,-0x210(%rbp)
   1020a:	48 8d 05 3d e5 00 00 	lea    0xe53d(%rip),%rax        # 1e74e <g_555+0xe>
   10211:	48 89 85 f8 fd ff ff 	mov    %rax,-0x208(%rbp)
   10218:	48 8d 05 39 16 01 00 	lea    0x11639(%rip),%rax        # 21858 <g_419>
   1021f:	48 89 85 00 fe ff ff 	mov    %rax,-0x200(%rbp)
   10226:	48 8d 05 5b e8 00 00 	lea    0xe85b(%rip),%rax        # 1ea88 <g_2168>
   1022d:	48 89 85 08 fe ff ff 	mov    %rax,-0x1f8(%rbp)
   10234:	48 8d 05 95 e5 00 00 	lea    0xe595(%rip),%rax        # 1e7d0 <g_1044>
   1023b:	48 89 85 10 fe ff ff 	mov    %rax,-0x1f0(%rbp)
   10242:	48 8d 05 0f 16 01 00 	lea    0x1160f(%rip),%rax        # 21858 <g_419>
   10249:	48 89 85 18 fe ff ff 	mov    %rax,-0x1e8(%rbp)
   10250:	48 8d 05 01 16 01 00 	lea    0x11601(%rip),%rax        # 21858 <g_419>
   10257:	48 89 85 20 fe ff ff 	mov    %rax,-0x1e0(%rbp)
   1025e:	48 8d 05 61 df 00 00 	lea    0xdf61(%rip),%rax        # 1e1c6 <g_417+0x106>
   10265:	48 89 85 28 fe ff ff 	mov    %rax,-0x1d8(%rbp)
   1026c:	48 8d 05 e5 15 01 00 	lea    0x115e5(%rip),%rax        # 21858 <g_419>
   10273:	48 89 85 30 fe ff ff 	mov    %rax,-0x1d0(%rbp)
   1027a:	48 8d 05 d7 15 01 00 	lea    0x115d7(%rip),%rax        # 21858 <g_419>
   10281:	48 89 85 38 fe ff ff 	mov    %rax,-0x1c8(%rbp)
   10288:	48 8d 05 41 e5 00 00 	lea    0xe541(%rip),%rax        # 1e7d0 <g_1044>
   1028f:	48 89 85 40 fe ff ff 	mov    %rax,-0x1c0(%rbp)
   10296:	48 8d 05 eb e7 00 00 	lea    0xe7eb(%rip),%rax        # 1ea88 <g_2168>
   1029d:	48 89 85 48 fe ff ff 	mov    %rax,-0x1b8(%rbp)
   102a4:	48 8d 05 ad 15 01 00 	lea    0x115ad(%rip),%rax        # 21858 <g_419>
   102ab:	48 89 85 50 fe ff ff 	mov    %rax,-0x1b0(%rbp)
   102b2:	48 8d 05 95 e4 00 00 	lea    0xe495(%rip),%rax        # 1e74e <g_555+0xe>
   102b9:	48 89 85 58 fe ff ff 	mov    %rax,-0x1a8(%rbp)
   102c0:	48 8d 05 17 de 00 00 	lea    0xde17(%rip),%rax        # 1e0de <g_417+0x1e>
   102c7:	48 89 85 60 fe ff ff 	mov    %rax,-0x1a0(%rbp)
   102ce:	48 8d 05 fb e4 00 00 	lea    0xe4fb(%rip),%rax        # 1e7d0 <g_1044>
   102d5:	48 89 85 68 fe ff ff 	mov    %rax,-0x198(%rbp)
   102dc:	48 8d 85 f0 ef ff ff 	lea    -0x1010(%rbp),%rax
   102e3:	48 89 85 70 fe ff ff 	mov    %rax,-0x190(%rbp)
   102ea:	48 8d 05 67 15 01 00 	lea    0x11567(%rip),%rax        # 21858 <g_419>
   102f1:	48 89 85 78 fe ff ff 	mov    %rax,-0x188(%rbp)
   102f8:	48 8d 05 59 15 01 00 	lea    0x11559(%rip),%rax        # 21858 <g_419>
   102ff:	48 89 85 80 fe ff ff 	mov    %rax,-0x180(%rbp)
   10306:	48 8d 05 dd dd 00 00 	lea    0xdddd(%rip),%rax        # 1e0ea <g_417+0x2a>
   1030d:	48 89 85 88 fe ff ff 	mov    %rax,-0x178(%rbp)
   10314:	48 8d 05 2d e4 00 00 	lea    0xe42d(%rip),%rax        # 1e748 <g_555+0x8>
   1031b:	48 89 85 90 fe ff ff 	mov    %rax,-0x170(%rbp)
   10322:	48 8d 85 f0 ef ff ff 	lea    -0x1010(%rbp),%rax
   10329:	48 89 85 98 fe ff ff 	mov    %rax,-0x168(%rbp)
   10330:	48 8d 05 f5 dd 00 00 	lea    0xddf5(%rip),%rax        # 1e12c <g_417+0x6c>
   10337:	48 89 85 a0 fe ff ff 	mov    %rax,-0x160(%rbp)
   1033e:	48 8d 05 99 dd 00 00 	lea    0xdd99(%rip),%rax        # 1e0de <g_417+0x1e>
   10345:	48 89 85 a8 fe ff ff 	mov    %rax,-0x158(%rbp)
   1034c:	48 c7 85 b0 fe ff ff 	movq   $0x0,-0x150(%rbp)
   10353:	00 00 00 00 
   10357:	48 c7 85 b8 fe ff ff 	movq   $0x0,-0x148(%rbp)
   1035e:	00 00 00 00 
   10362:	48 8d 05 e5 e3 00 00 	lea    0xe3e5(%rip),%rax        # 1e74e <g_555+0xe>
   10369:	48 89 85 c0 fe ff ff 	mov    %rax,-0x140(%rbp)
   10370:	48 c7 85 c8 fe ff ff 	movq   $0x0,-0x138(%rbp)
   10377:	00 00 00 00 
   1037b:	48 c7 85 d0 fe ff ff 	movq   $0x0,-0x130(%rbp)
   10382:	00 00 00 00 
   10386:	48 8d 05 51 dd 00 00 	lea    0xdd51(%rip),%rax        # 1e0de <g_417+0x1e>
   1038d:	48 89 85 d8 fe ff ff 	mov    %rax,-0x128(%rbp)
   10394:	48 8d 05 91 dd 00 00 	lea    0xdd91(%rip),%rax        # 1e12c <g_417+0x6c>
   1039b:	48 89 85 e0 fe ff ff 	mov    %rax,-0x120(%rbp)
   103a2:	48 8d 85 f0 ef ff ff 	lea    -0x1010(%rbp),%rax
   103a9:	48 89 85 e8 fe ff ff 	mov    %rax,-0x118(%rbp)
   103b0:	48 8d 05 91 e3 00 00 	lea    0xe391(%rip),%rax        # 1e748 <g_555+0x8>
   103b7:	48 89 85 f0 fe ff ff 	mov    %rax,-0x110(%rbp)
   103be:	48 8d 05 25 dd 00 00 	lea    0xdd25(%rip),%rax        # 1e0ea <g_417+0x2a>
   103c5:	48 89 85 f8 fe ff ff 	mov    %rax,-0x108(%rbp)
   103cc:	48 8d 05 85 14 01 00 	lea    0x11485(%rip),%rax        # 21858 <g_419>
   103d3:	48 89 85 00 ff ff ff 	mov    %rax,-0x100(%rbp)
   103da:	48 8d 05 77 14 01 00 	lea    0x11477(%rip),%rax        # 21858 <g_419>
   103e1:	48 89 85 08 ff ff ff 	mov    %rax,-0xf8(%rbp)
   103e8:	48 8d 85 f0 ef ff ff 	lea    -0x1010(%rbp),%rax
   103ef:	48 89 85 10 ff ff ff 	mov    %rax,-0xf0(%rbp)
   103f6:	48 8d 05 d3 e3 00 00 	lea    0xe3d3(%rip),%rax        # 1e7d0 <g_1044>
   103fd:	48 89 85 18 ff ff ff 	mov    %rax,-0xe8(%rbp)
   10404:	48 8d 05 d3 dc 00 00 	lea    0xdcd3(%rip),%rax        # 1e0de <g_417+0x1e>
   1040b:	48 89 85 20 ff ff ff 	mov    %rax,-0xe0(%rbp)
   10412:	48 8d 05 35 e3 00 00 	lea    0xe335(%rip),%rax        # 1e74e <g_555+0xe>
   10419:	48 89 85 28 ff ff ff 	mov    %rax,-0xd8(%rbp)
   10420:	48 8d 05 31 14 01 00 	lea    0x11431(%rip),%rax        # 21858 <g_419>
   10427:	48 89 85 30 ff ff ff 	mov    %rax,-0xd0(%rbp)
   1042e:	48 8d 05 53 e6 00 00 	lea    0xe653(%rip),%rax        # 1ea88 <g_2168>
   10435:	48 89 85 38 ff ff ff 	mov    %rax,-0xc8(%rbp)
   1043c:	48 8d 05 8d e3 00 00 	lea    0xe38d(%rip),%rax        # 1e7d0 <g_1044>
   10443:	48 89 85 40 ff ff ff 	mov    %rax,-0xc0(%rbp)
   1044a:	48 8d 05 07 14 01 00 	lea    0x11407(%rip),%rax        # 21858 <g_419>
   10451:	48 89 85 48 ff ff ff 	mov    %rax,-0xb8(%rbp)
   10458:	48 8d 05 71 e3 00 00 	lea    0xe371(%rip),%rax        # 1e7d0 <g_1044>
   1045f:	48 89 85 50 ff ff ff 	mov    %rax,-0xb0(%rbp)
   10466:	48 c7 85 58 ff ff ff 	movq   $0x0,-0xa8(%rbp)
   1046d:	00 00 00 00 
   10471:	48 8d 05 58 e3 00 00 	lea    0xe358(%rip),%rax        # 1e7d0 <g_1044>
   10478:	48 89 85 60 ff ff ff 	mov    %rax,-0xa0(%rbp)
   1047f:	48 8d 05 c8 e2 00 00 	lea    0xe2c8(%rip),%rax        # 1e74e <g_555+0xe>
   10486:	48 89 85 68 ff ff ff 	mov    %rax,-0x98(%rbp)
   1048d:	48 c7 85 70 ff ff ff 	movq   $0x0,-0x90(%rbp)
   10494:	00 00 00 00 
   10498:	48 8d 05 b9 13 01 00 	lea    0x113b9(%rip),%rax        # 21858 <g_419>
   1049f:	48 89 85 78 ff ff ff 	mov    %rax,-0x88(%rbp)
   104a6:	48 8d 05 a1 e2 00 00 	lea    0xe2a1(%rip),%rax        # 1e74e <g_555+0xe>
   104ad:	48 89 45 80          	mov    %rax,-0x80(%rbp)
   104b1:	48 8d 05 32 dc 00 00 	lea    0xdc32(%rip),%rax        # 1e0ea <g_417+0x2a>
   104b8:	48 89 45 88          	mov    %rax,-0x78(%rbp)
   104bc:	48 8d 85 f0 ef ff ff 	lea    -0x1010(%rbp),%rax
   104c3:	48 89 45 90          	mov    %rax,-0x70(%rbp)
   104c7:	48 c7 45 98 00 00 00 	movq   $0x0,-0x68(%rbp)
   104ce:	00 
   104cf:	48 8d 05 b2 e5 00 00 	lea    0xe5b2(%rip),%rax        # 1ea88 <g_2168>
   104d6:	48 89 45 a0          	mov    %rax,-0x60(%rbp)
   104da:	48 8d 05 77 13 01 00 	lea    0x11377(%rip),%rax        # 21858 <g_419>
   104e1:	48 89 45 a8          	mov    %rax,-0x58(%rbp)
   104e5:	48 8d 05 6c 13 01 00 	lea    0x1136c(%rip),%rax        # 21858 <g_419>
   104ec:	48 89 45 b0          	mov    %rax,-0x50(%rbp)
   104f0:	48 8d 05 61 13 01 00 	lea    0x11361(%rip),%rax        # 21858 <g_419>
   104f7:	48 89 45 b8          	mov    %rax,-0x48(%rbp)
   104fb:	48 8d 85 80 f4 ff ff 	lea    -0xb80(%rbp),%rax
   10502:	48 8d 15 17 f9 00 00 	lea    0xf917(%rip),%rdx        # 1fe20 <g_3508+0x12a8>
   10509:	b9 3c 00 00 00       	mov    $0x3c,%ecx
   1050e:	48 89 c7             	mov    %rax,%rdi
   10511:	48 89 d6             	mov    %rdx,%rsi
   10514:	f3 48 a5             	rep movsq %ds:(%rsi),%es:(%rdi)
   10517:	48 8d 05 82 09 01 00 	lea    0x10982(%rip),%rax        # 20ea0 <g_1261>
   1051e:	48 89 85 48 f0 ff ff 	mov    %rax,-0xfb8(%rbp)
   10525:	48 8d 85 48 f0 ff ff 	lea    -0xfb8(%rbp),%rax
   1052c:	48 89 85 f0 f0 ff ff 	mov    %rax,-0xf10(%rbp)
   10533:	48 c7 05 5a e4 00 00 	movq   $0x0,0xe45a(%rip)        # 1e998 <g_1127>
   1053a:	00 00 00 00 
   1053e:	e9 5d 06 00 00       	jmpq   10ba0 <func_55+0x1b5b>
   10543:	48 8d 05 32 cb 00 00 	lea    0xcb32(%rip),%rax        # 1d07c <g_70>
   1054a:	48 89 85 f8 f0 ff ff 	mov    %rax,-0xf08(%rbp)
   10551:	48 c7 85 50 f0 ff ff 	movq   $0x0,-0xfb0(%rbp)
   10558:	00 00 00 00 
   1055c:	48 8d 85 50 f0 ff ff 	lea    -0xfb0(%rbp),%rax
   10563:	48 89 85 00 f1 ff ff 	mov    %rax,-0xf00(%rbp)
   1056a:	c7 85 40 f0 ff ff 01 	movl   $0x1,-0xfc0(%rbp)
   10571:	00 00 00 
   10574:	c7 85 00 f2 ff ff 4e 	movl   $0x7e81054e,-0xe00(%rbp)
   1057b:	05 81 7e 
   1057e:	c7 85 04 f2 ff ff fa 	movl   $0xfffffffa,-0xdfc(%rbp)
   10585:	ff ff ff 
   10588:	c7 85 08 f2 ff ff fa 	movl   $0xfffffffa,-0xdf8(%rbp)
   1058f:	ff ff ff 
   10592:	c7 85 0c f2 ff ff 4e 	movl   $0x7e81054e,-0xdf4(%rbp)
   10599:	05 81 7e 
   1059c:	c7 85 10 f2 ff ff 1a 	movl   $0xe2b2351a,-0xdf0(%rbp)
   105a3:	35 b2 e2 
   105a6:	c7 85 14 f2 ff ff 2f 	movl   $0xf3c5fc2f,-0xdec(%rbp)
   105ad:	fc c5 f3 
   105b0:	c7 85 18 f2 ff ff 4e 	movl   $0x7e81054e,-0xde8(%rbp)
   105b7:	05 81 7e 
   105ba:	c7 85 1c f2 ff ff 2f 	movl   $0xf3c5fc2f,-0xde4(%rbp)
   105c1:	fc c5 f3 
   105c4:	c7 85 20 f2 ff ff 1a 	movl   $0xe2b2351a,-0xde0(%rbp)
   105cb:	35 b2 e2 
   105ce:	c7 85 24 f2 ff ff 4e 	movl   $0x7e81054e,-0xddc(%rbp)
   105d5:	05 81 7e 
   105d8:	c7 85 28 f2 ff ff fa 	movl   $0xfffffffa,-0xdd8(%rbp)
   105df:	ff ff ff 
   105e2:	c7 85 2c f2 ff ff fa 	movl   $0xfffffffa,-0xdd4(%rbp)
   105e9:	ff ff ff 
   105ec:	c7 85 30 f2 ff ff 4e 	movl   $0x7e81054e,-0xdd0(%rbp)
   105f3:	05 81 7e 
   105f6:	c7 85 34 f2 ff ff 1a 	movl   $0xe2b2351a,-0xdcc(%rbp)
   105fd:	35 b2 e2 
   10600:	c7 85 38 f2 ff ff 2f 	movl   $0xf3c5fc2f,-0xdc8(%rbp)
   10607:	fc c5 f3 
   1060a:	c7 85 3c f2 ff ff 4e 	movl   $0x7e81054e,-0xdc4(%rbp)
   10611:	05 81 7e 
   10614:	c7 85 40 f2 ff ff 2f 	movl   $0xf3c5fc2f,-0xdc0(%rbp)
   1061b:	fc c5 f3 
   1061e:	c7 85 44 f2 ff ff 1a 	movl   $0xe2b2351a,-0xdbc(%rbp)
   10625:	35 b2 e2 
   10628:	c7 85 48 f2 ff ff 4e 	movl   $0x7e81054e,-0xdb8(%rbp)
   1062f:	05 81 7e 
   10632:	c7 85 4c f2 ff ff fa 	movl   $0xfffffffa,-0xdb4(%rbp)
   10639:	ff ff ff 
   1063c:	c7 85 50 f2 ff ff fa 	movl   $0xfffffffa,-0xdb0(%rbp)
   10643:	ff ff ff 
   10646:	c7 85 54 f2 ff ff 4e 	movl   $0x7e81054e,-0xdac(%rbp)
   1064d:	05 81 7e 
   10650:	c7 85 58 f2 ff ff 1a 	movl   $0xe2b2351a,-0xda8(%rbp)
   10657:	35 b2 e2 
   1065a:	c7 85 5c f2 ff ff 2f 	movl   $0xf3c5fc2f,-0xda4(%rbp)
   10661:	fc c5 f3 
   10664:	c7 85 60 f2 ff ff 4e 	movl   $0x7e81054e,-0xda0(%rbp)
   1066b:	05 81 7e 
   1066e:	c7 85 44 f0 ff ff 07 	movl   $0x7,-0xfbc(%rbp)
   10675:	00 00 00 
   10678:	48 8d 05 31 dc 00 00 	lea    0xdc31(%rip),%rax        # 1e2b0 <g_486>
   1067f:	48 89 85 58 f0 ff ff 	mov    %rax,-0xfa8(%rbp)
   10686:	48 8d 85 58 f0 ff ff 	lea    -0xfa8(%rbp),%rax
   1068d:	48 89 85 08 f1 ff ff 	mov    %rax,-0xef8(%rbp)
   10694:	48 8d 85 10 f1 ff ff 	lea    -0xef0(%rbp),%rax
   1069b:	48 89 85 70 f2 ff ff 	mov    %rax,-0xd90(%rbp)
   106a2:	48 8d 85 10 f1 ff ff 	lea    -0xef0(%rbp),%rax
   106a9:	48 83 c0 10          	add    $0x10,%rax
   106ad:	48 89 85 78 f2 ff ff 	mov    %rax,-0xd88(%rbp)
   106b4:	48 8d 85 10 f1 ff ff 	lea    -0xef0(%rbp),%rax
   106bb:	48 83 c0 10          	add    $0x10,%rax
   106bf:	48 89 85 80 f2 ff ff 	mov    %rax,-0xd80(%rbp)
   106c6:	48 8d 85 10 f1 ff ff 	lea    -0xef0(%rbp),%rax
   106cd:	48 89 85 88 f2 ff ff 	mov    %rax,-0xd78(%rbp)
   106d4:	48 8d 85 10 f1 ff ff 	lea    -0xef0(%rbp),%rax
   106db:	48 83 c0 10          	add    $0x10,%rax
   106df:	48 89 85 90 f2 ff ff 	mov    %rax,-0xd70(%rbp)
   106e6:	48 8d 85 10 f1 ff ff 	lea    -0xef0(%rbp),%rax
   106ed:	48 83 c0 10          	add    $0x10,%rax
   106f1:	48 89 85 98 f2 ff ff 	mov    %rax,-0xd68(%rbp)
   106f8:	48 8d 85 10 f1 ff ff 	lea    -0xef0(%rbp),%rax
   106ff:	48 89 85 a0 f2 ff ff 	mov    %rax,-0xd60(%rbp)
   10706:	48 8d 85 10 f1 ff ff 	lea    -0xef0(%rbp),%rax
   1070d:	48 89 85 a8 f2 ff ff 	mov    %rax,-0xd58(%rbp)
   10714:	48 8d 85 10 f1 ff ff 	lea    -0xef0(%rbp),%rax
   1071b:	48 83 c0 10          	add    $0x10,%rax
   1071f:	48 89 85 b0 f2 ff ff 	mov    %rax,-0xd50(%rbp)
   10726:	48 8d 85 10 f1 ff ff 	lea    -0xef0(%rbp),%rax
   1072d:	48 89 85 b8 f2 ff ff 	mov    %rax,-0xd48(%rbp)
   10734:	48 8d 85 10 f1 ff ff 	lea    -0xef0(%rbp),%rax
   1073b:	48 89 85 c0 f2 ff ff 	mov    %rax,-0xd40(%rbp)
   10742:	48 8d 85 10 f1 ff ff 	lea    -0xef0(%rbp),%rax
   10749:	48 83 c0 10          	add    $0x10,%rax
   1074d:	48 89 85 c8 f2 ff ff 	mov    %rax,-0xd38(%rbp)
   10754:	48 8d 85 10 f1 ff ff 	lea    -0xef0(%rbp),%rax
   1075b:	48 83 c0 10          	add    $0x10,%rax
   1075f:	48 89 85 d0 f2 ff ff 	mov    %rax,-0xd30(%rbp)
   10766:	48 8d 85 10 f1 ff ff 	lea    -0xef0(%rbp),%rax
   1076d:	48 89 85 d8 f2 ff ff 	mov    %rax,-0xd28(%rbp)
   10774:	48 8d 85 10 f1 ff ff 	lea    -0xef0(%rbp),%rax
   1077b:	48 83 c0 10          	add    $0x10,%rax
   1077f:	48 89 85 e0 f2 ff ff 	mov    %rax,-0xd20(%rbp)
   10786:	48 8d 85 10 f1 ff ff 	lea    -0xef0(%rbp),%rax
   1078d:	48 83 c0 10          	add    $0x10,%rax
   10791:	48 89 85 e8 f2 ff ff 	mov    %rax,-0xd18(%rbp)
   10798:	48 8d 85 10 f1 ff ff 	lea    -0xef0(%rbp),%rax
   1079f:	48 89 85 f0 f2 ff ff 	mov    %rax,-0xd10(%rbp)
   107a6:	48 8d 85 10 f1 ff ff 	lea    -0xef0(%rbp),%rax
   107ad:	48 83 c0 10          	add    $0x10,%rax
   107b1:	48 89 85 f8 f2 ff ff 	mov    %rax,-0xd08(%rbp)
   107b8:	48 8d 85 10 f1 ff ff 	lea    -0xef0(%rbp),%rax
   107bf:	48 89 85 00 f3 ff ff 	mov    %rax,-0xd00(%rbp)
   107c6:	48 8d 85 10 f1 ff ff 	lea    -0xef0(%rbp),%rax
   107cd:	48 83 c0 10          	add    $0x10,%rax
   107d1:	48 89 85 08 f3 ff ff 	mov    %rax,-0xcf8(%rbp)
   107d8:	48 8d 85 10 f1 ff ff 	lea    -0xef0(%rbp),%rax
   107df:	48 83 c0 10          	add    $0x10,%rax
   107e3:	48 89 85 10 f3 ff ff 	mov    %rax,-0xcf0(%rbp)
   107ea:	48 8d 85 10 f1 ff ff 	lea    -0xef0(%rbp),%rax
   107f1:	48 89 85 18 f3 ff ff 	mov    %rax,-0xce8(%rbp)
   107f8:	48 8d 85 10 f1 ff ff 	lea    -0xef0(%rbp),%rax
   107ff:	48 83 c0 10          	add    $0x10,%rax
   10803:	48 89 85 20 f3 ff ff 	mov    %rax,-0xce0(%rbp)
   1080a:	48 8d 85 10 f1 ff ff 	lea    -0xef0(%rbp),%rax
   10811:	48 83 c0 10          	add    $0x10,%rax
   10815:	48 89 85 28 f3 ff ff 	mov    %rax,-0xcd8(%rbp)
   1081c:	c7 85 0c f0 ff ff 00 	movl   $0x0,-0xff4(%rbp)
   10823:	00 00 00 
   10826:	eb 50                	jmp    10878 <func_55+0x1833>
   10828:	c7 85 10 f0 ff ff 00 	movl   $0x0,-0xff0(%rbp)
   1082f:	00 00 00 
   10832:	eb 34                	jmp    10868 <func_55+0x1823>
   10834:	8b 85 10 f0 ff ff    	mov    -0xff0(%rbp),%eax
   1083a:	48 63 c8             	movslq %eax,%rcx
   1083d:	8b 85 0c f0 ff ff    	mov    -0xff4(%rbp),%eax
   10843:	48 63 d0             	movslq %eax,%rdx
   10846:	48 89 d0             	mov    %rdx,%rax
   10849:	48 01 c0             	add    %rax,%rax
   1084c:	48 01 d0             	add    %rdx,%rax
   1084f:	48 01 c8             	add    %rcx,%rax
   10852:	48 8d 15 fb 0f 01 00 	lea    0x10ffb(%rip),%rdx        # 21854 <g_201>
   10859:	48 89 94 c5 10 f1 ff 	mov    %rdx,-0xef0(%rbp,%rax,8)
   10860:	ff 
   10861:	83 85 10 f0 ff ff 01 	addl   $0x1,-0xff0(%rbp)
   10868:	83 bd 10 f0 ff ff 02 	cmpl   $0x2,-0xff0(%rbp)
   1086f:	7e c3                	jle    10834 <func_55+0x17ef>
   10871:	83 85 0c f0 ff ff 01 	addl   $0x1,-0xff4(%rbp)
   10878:	83 bd 0c f0 ff ff 00 	cmpl   $0x0,-0xff4(%rbp)
   1087f:	7e a7                	jle    10828 <func_55+0x17e3>
   10881:	c7 85 0c f0 ff ff 00 	movl   $0x0,-0xff4(%rbp)
   10888:	00 00 00 
   1088b:	eb 74                	jmp    10901 <func_55+0x18bc>
   1088d:	c7 85 10 f0 ff ff 00 	movl   $0x0,-0xff0(%rbp)
   10894:	00 00 00 
   10897:	eb 58                	jmp    108f1 <func_55+0x18ac>
   10899:	c7 85 14 f0 ff ff 00 	movl   $0x0,-0xfec(%rbp)
   108a0:	00 00 00 
   108a3:	eb 3c                	jmp    108e1 <func_55+0x189c>
   108a5:	8b 85 14 f0 ff ff    	mov    -0xfec(%rbp),%eax
   108ab:	48 63 c8             	movslq %eax,%rcx
   108ae:	8b 85 0c f0 ff ff    	mov    -0xff4(%rbp),%eax
   108b4:	48 63 d0             	movslq %eax,%rdx
   108b7:	8b 85 10 f0 ff ff    	mov    -0xff0(%rbp),%eax
   108bd:	48 98                	cltq   
   108bf:	48 01 c2             	add    %rax,%rdx
   108c2:	48 89 d0             	mov    %rdx,%rax
   108c5:	48 01 c0             	add    %rax,%rax
   108c8:	48 01 d0             	add    %rdx,%rax
   108cb:	48 01 c8             	add    %rcx,%rax
   108ce:	48 c7 84 c5 b0 f1 ff 	movq   $0x0,-0xe50(%rbp,%rax,8)
   108d5:	ff 00 00 00 00 
   108da:	83 85 14 f0 ff ff 01 	addl   $0x1,-0xfec(%rbp)
   108e1:	83 bd 14 f0 ff ff 02 	cmpl   $0x2,-0xfec(%rbp)
   108e8:	7e bb                	jle    108a5 <func_55+0x1860>
   108ea:	83 85 10 f0 ff ff 01 	addl   $0x1,-0xff0(%rbp)
   108f1:	83 bd 10 f0 ff ff 00 	cmpl   $0x0,-0xff0(%rbp)
   108f8:	7e 9f                	jle    10899 <func_55+0x1854>
   108fa:	83 85 0c f0 ff ff 01 	addl   $0x1,-0xff4(%rbp)
   10901:	83 bd 0c f0 ff ff 02 	cmpl   $0x2,-0xff4(%rbp)
   10908:	7e 83                	jle    1088d <func_55+0x1848>
   1090a:	8b 15 a0 e0 00 00    	mov    0xe0a0(%rip),%edx        # 1e9b0 <g_1578>
   10910:	48 8b 85 f8 f0 ff ff 	mov    -0xf08(%rbp),%rax
   10917:	89 10                	mov    %edx,(%rax)
   10919:	48 8b 95 50 f0 ff ff 	mov    -0xfb0(%rbp),%rdx
   10920:	48 8b 85 00 f1 ff ff 	mov    -0xf00(%rbp),%rax
   10927:	48 89 10             	mov    %rdx,(%rax)
   1092a:	48 8b 85 00 f1 ff ff 	mov    -0xf00(%rbp),%rax
   10931:	48 8b 00             	mov    (%rax),%rax
   10934:	48 85 c0             	test   %rax,%rax
   10937:	4c 0f bf a5 d8 ef ff 	movswq -0x1028(%rbp),%r12
   1093e:	ff 
   1093f:	66 83 bd d8 ef ff ff 	cmpw   $0x0,-0x1028(%rbp)
   10946:	00 
   10947:	75 68                	jne    109b1 <func_55+0x196c>
   10949:	0f b7 85 d8 ef ff ff 	movzwl -0x1028(%rbp),%eax
   10950:	0f be d8             	movsbl %al,%ebx
   10953:	48 8b 05 6e fa 00 00 	mov    0xfa6e(%rip),%rax        # 203c8 <g_356>
   1095a:	0f b7 00             	movzwl (%rax),%eax
   1095d:	0f b7 d0             	movzwl %ax,%edx
   10960:	48 8b 05 a9 01 01 00 	mov    0x101a9(%rip),%rax        # 20b10 <g_945>
   10967:	48 8b 00             	mov    (%rax),%rax
   1096a:	48 89 85 b8 f0 ff ff 	mov    %rax,-0xf48(%rbp)
   10971:	48 8b 8d c0 f0 ff ff 	mov    -0xf40(%rbp),%rcx
   10978:	48 8b b5 70 f0 ff ff 	mov    -0xf90(%rbp),%rsi
   1097f:	48 8b 85 b8 f0 ff ff 	mov    -0xf48(%rbp),%rax
   10986:	49 89 c8             	mov    %rcx,%r8
   10989:	89 d1                	mov    %edx,%ecx
   1098b:	48 8d 15 0e cc 00 00 	lea    0xcc0e(%rip),%rdx        # 1d5a0 <g_90+0x500>
   10992:	48 89 c7             	mov    %rax,%rdi
   10995:	e8 41 33 00 00       	callq  13cdb <func_92>
   1099a:	48 89 85 10 f1 ff ff 	mov    %rax,-0xef0(%rbp)
   109a1:	89 de                	mov    %ebx,%esi
   109a3:	bf 00 00 00 00       	mov    $0x0,%edi
   109a8:	e8 45 78 ff ff       	callq  81f2 <safe_sub_func_int8_t_s_s>
   109ad:	3c ff                	cmp    $0xff,%al
   109af:	74 07                	je     109b8 <func_55+0x1973>
   109b1:	ba 01 00 00 00       	mov    $0x1,%edx
   109b6:	eb 05                	jmp    109bd <func_55+0x1978>
   109b8:	ba 00 00 00 00       	mov    $0x0,%edx
   109bd:	0f b7 85 dc ef ff ff 	movzwl -0x1024(%rbp),%eax
   109c4:	0f b7 c0             	movzwl %ax,%eax
   109c7:	39 c2                	cmp    %eax,%edx
   109c9:	0f b7 85 d8 ef ff ff 	movzwl -0x1028(%rbp),%eax
   109d0:	98                   	cwtl   
   109d1:	09 85 40 f0 ff ff    	or     %eax,-0xfc0(%rbp)
   109d7:	8b 85 40 f0 ff ff    	mov    -0xfc0(%rbp),%eax
   109dd:	0f be c0             	movsbl %al,%eax
   109e0:	48 8b 15 91 03 01 00 	mov    0x10391(%rip),%rdx        # 20d78 <g_958>
   109e7:	48 8b 12             	mov    (%rdx),%rdx
   109ea:	48 8b 12             	mov    (%rdx),%rdx
   109ed:	48 8b 12             	mov    (%rdx),%rdx
   109f0:	48 8b 12             	mov    (%rdx),%rdx
   109f3:	c6 02 00             	movb   $0x0,(%rdx)
   109f6:	89 c6                	mov    %eax,%esi
   109f8:	bf 00 00 00 00       	mov    $0x0,%edi
   109fd:	e8 10 78 ff ff       	callq  8212 <safe_mul_func_int8_t_s_s>
   10a02:	0f be d0             	movsbl %al,%edx
   10a05:	0f b7 05 c4 dd 00 00 	movzwl 0xddc4(%rip),%eax        # 1e7d0 <g_1044>
   10a0c:	0f b7 c0             	movzwl %ax,%eax
   10a0f:	39 c2                	cmp    %eax,%edx
   10a11:	74 07                	je     10a1a <func_55+0x19d5>
   10a13:	b8 f5 28 cc d1       	mov    $0xd1cc28f5,%eax
   10a18:	eb 05                	jmp    10a1f <func_55+0x19da>
   10a1a:	b8 f4 28 cc d1       	mov    $0xd1cc28f4,%eax
   10a1f:	4c 39 e0             	cmp    %r12,%rax
   10a22:	0f 95 c0             	setne  %al
   10a25:	0f b6 d0             	movzbl %al,%edx
   10a28:	8b 85 4c f2 ff ff    	mov    -0xdb4(%rbp),%eax
   10a2e:	39 c2                	cmp    %eax,%edx
   10a30:	b8 00 00 00 00       	mov    $0x0,%eax
   10a35:	09 85 44 f0 ff ff    	or     %eax,-0xfbc(%rbp)
   10a3b:	48 8b 05 6e f9 00 00 	mov    0xf96e(%rip),%rax        # 203b0 <g_309>
   10a42:	66 c7 00 41 3b       	movw   $0x3b41,(%rax)
   10a47:	48 8b 05 72 f9 00 00 	mov    0xf972(%rip),%rax        # 203c0 <g_310>
   10a4e:	48 c7 00 00 00 00 00 	movq   $0x0,(%rax)
   10a55:	48 8b 05 64 f9 00 00 	mov    0xf964(%rip),%rax        # 203c0 <g_310>
   10a5c:	48 8b 95 48 f4 ff ff 	mov    -0xbb8(%rbp),%rdx
   10a63:	48 89 10             	mov    %rdx,(%rax)
   10a66:	48 8b 05 e3 06 01 00 	mov    0x106e3(%rip),%rax        # 21150 <g_2048>
   10a6d:	48 8b 95 08 f1 ff ff 	mov    -0xef8(%rbp),%rdx
   10a74:	48 89 10             	mov    %rdx,(%rax)
   10a77:	0f bf 9d d8 ef ff ff 	movswl -0x1028(%rbp),%ebx
   10a7e:	48 83 bd d0 f0 ff ff 	cmpq   $0x0,-0xf30(%rbp)
   10a85:	00 
   10a86:	0f 95 c0             	setne  %al
   10a89:	0f b6 c0             	movzbl %al,%eax
   10a8c:	31 85 44 f0 ff ff    	xor    %eax,-0xfbc(%rbp)
   10a92:	48 8b 05 cf 02 01 00 	mov    0x102cf(%rip),%rax        # 20d68 <g_960>
   10a99:	48 8b 00             	mov    (%rax),%rax
   10a9c:	48 8b 00             	mov    (%rax),%rax
   10a9f:	8b 95 44 f0 ff ff    	mov    -0xfbc(%rbp),%edx
   10aa5:	88 10                	mov    %dl,(%rax)
   10aa7:	0f b7 85 d8 ef ff ff 	movzwl -0x1028(%rbp),%eax
   10aae:	0f b6 c0             	movzbl %al,%eax
   10ab1:	be fd 00 00 00       	mov    $0xfd,%esi
   10ab6:	89 c7                	mov    %eax,%edi
   10ab8:	e8 d6 80 ff ff       	callq  8b93 <safe_mul_func_uint8_t_u_u>
   10abd:	48 c7 05 d8 0d 01 00 	movq   $0x0,0x10dd8(%rip)        # 218a0 <g_2059>
   10ac4:	00 00 00 00 
   10ac8:	48 8b 05 d1 0d 01 00 	mov    0x10dd1(%rip),%rax        # 218a0 <g_2059>
   10acf:	48 89 05 82 06 01 00 	mov    %rax,0x10682(%rip)        # 21158 <g_2061>
   10ad6:	48 8b 05 7b 06 01 00 	mov    0x1067b(%rip),%rax        # 21158 <g_2061>
   10add:	48 39 85 c8 f0 ff ff 	cmp    %rax,-0xf38(%rbp)
   10ae4:	0f 95 c0             	setne  %al
   10ae7:	0f b6 c0             	movzbl %al,%eax
   10aea:	89 85 28 f0 ff ff    	mov    %eax,-0xfd8(%rbp)
   10af0:	48 8b 05 91 02 01 00 	mov    0x10291(%rip),%rax        # 20d88 <g_1175>
   10af7:	8b 00                	mov    (%rax),%eax
   10af9:	83 f0 fe             	xor    $0xfffffffe,%eax
   10afc:	89 85 2c f0 ff ff    	mov    %eax,-0xfd4(%rbp)
   10b02:	8b 85 2c f0 ff ff    	mov    -0xfd4(%rbp),%eax
   10b08:	89 c2                	mov    %eax,%edx
   10b0a:	48 8b 85 d8 f0 ff ff 	mov    -0xf28(%rbp),%rax
   10b11:	88 10                	mov    %dl,(%rax)
   10b13:	48 8b 85 d8 f0 ff ff 	mov    -0xf28(%rbp),%rax
   10b1a:	0f b6 00             	movzbl (%rax),%eax
   10b1d:	0f be c0             	movsbl %al,%eax
   10b20:	be 01 00 00 00       	mov    $0x1,%esi
   10b25:	89 c7                	mov    %eax,%edi
   10b27:	e8 40 78 ff ff       	callq  836c <safe_rshift_func_int8_t_s_u>
   10b2c:	89 c2                	mov    %eax,%edx
   10b2e:	48 8b 85 58 f0 ff ff 	mov    -0xfa8(%rbp),%rax
   10b35:	0f be d2             	movsbl %dl,%edx
   10b38:	89 10                	mov    %edx,(%rax)
   10b3a:	8b 10                	mov    (%rax),%edx
   10b3c:	8b 85 40 f0 ff ff    	mov    -0xfc0(%rbp),%eax
   10b42:	39 c2                	cmp    %eax,%edx
   10b44:	0f 97 c0             	seta   %al
   10b47:	0f b6 c0             	movzbl %al,%eax
   10b4a:	89 de                	mov    %ebx,%esi
   10b4c:	89 c7                	mov    %eax,%edi
   10b4e:	e8 3a 81 ff ff       	callq  8c8d <safe_rshift_func_uint8_t_u_s>
   10b53:	89 c2                	mov    %eax,%edx
   10b55:	48 8b 05 2c 02 01 00 	mov    0x1022c(%rip),%rax        # 20d88 <g_1175>
   10b5c:	0f b6 d2             	movzbl %dl,%edx
   10b5f:	89 10                	mov    %edx,(%rax)
   10b61:	8b 00                	mov    (%rax),%eax
   10b63:	66 0b 85 d8 ef ff ff 	or     -0x1028(%rbp),%ax
   10b6a:	0f b7 c0             	movzwl %ax,%eax
   10b6d:	be 15 7c 00 00       	mov    $0x7c15,%esi
   10b72:	89 c7                	mov    %eax,%edi
   10b74:	e8 e3 81 ff ff       	callq  8d5c <safe_mod_func_uint16_t_u_u>
   10b79:	0f b7 c8             	movzwl %ax,%ecx
   10b7c:	0f bf 95 d8 ef ff ff 	movswl -0x1028(%rbp),%edx
   10b83:	48 8d 05 1a de 00 00 	lea    0xde1a(%rip),%rax        # 1e9a4 <g_1199>
   10b8a:	09 ca                	or     %ecx,%edx
   10b8c:	89 10                	mov    %edx,(%rax)
   10b8e:	48 8b 05 03 de 00 00 	mov    0xde03(%rip),%rax        # 1e998 <g_1127>
   10b95:	48 83 c0 01          	add    $0x1,%rax
   10b99:	48 89 05 f8 dd 00 00 	mov    %rax,0xddf8(%rip)        # 1e998 <g_1127>
   10ba0:	48 8b 05 f1 dd 00 00 	mov    0xddf1(%rip),%rax        # 1e998 <g_1127>
   10ba7:	48 83 f8 07          	cmp    $0x7,%rax
   10bab:	0f 86 92 f9 ff ff    	jbe    10543 <func_55+0x14fe>
   10bb1:	48 8d 05 ec dd 00 00 	lea    0xddec(%rip),%rax        # 1e9a4 <g_1199>
   10bb8:	8b 10                	mov    (%rax),%edx
   10bba:	48 8d 05 e3 dd 00 00 	lea    0xdde3(%rip),%rax        # 1e9a4 <g_1199>
   10bc1:	81 ca 85 69 5a 8e    	or     $0x8e5a6985,%edx
   10bc7:	89 10                	mov    %edx,(%rax)
   10bc9:	0f b6 05 c0 cc 00 00 	movzbl 0xccc0(%rip),%eax        # 1d890 <g_141>
   10bd0:	83 c0 01             	add    $0x1,%eax
   10bd3:	88 05 b7 cc 00 00    	mov    %al,0xccb7(%rip)        # 1d890 <g_141>
   10bd9:	0f b6 05 b0 cc 00 00 	movzbl 0xccb0(%rip),%eax        # 1d890 <g_141>
   10be0:	3c 07                	cmp    $0x7,%al
   10be2:	0f 86 85 ee ff ff    	jbe    fa6d <func_55+0xa28>
   10be8:	48 8b 05 91 02 01 00 	mov    0x10291(%rip),%rax        # 20e80 <g_1262>
   10bef:	48 8b 00             	mov    (%rax),%rax
   10bf2:	48 8b 5d d8          	mov    -0x28(%rbp),%rbx
   10bf6:	64 48 33 1c 25 28 00 	xor    %fs:0x28,%rbx
   10bfd:	00 00 
   10bff:	74 05                	je     10c06 <func_55+0x1bc1>
   10c01:	e8 6a 74 ff ff       	callq  8070 <__stack_chk_fail@plt>
   10c06:	48 81 c4 10 10 00 00 	add    $0x1010,%rsp
   10c0d:	5b                   	pop    %rbx
   10c0e:	41 5c                	pop    %r12
   10c10:	41 5d                	pop    %r13
   10c12:	41 5e                	pop    %r14
   10c14:	5d                   	pop    %rbp
   10c15:	c3                   	retq   

0000000000010c16 <func_66>:
   10c16:	f3 0f 1e fa          	endbr64 
   10c1a:	55                   	push   %rbp
   10c1b:	48 89 e5             	mov    %rsp,%rbp
   10c1e:	48 81 ec b0 00 00 00 	sub    $0xb0,%rsp
   10c25:	48 89 bd 58 ff ff ff 	mov    %rdi,-0xa8(%rbp)
   10c2c:	64 48 8b 04 25 28 00 	mov    %fs:0x28,%rax
   10c33:	00 00 
   10c35:	48 89 45 f8          	mov    %rax,-0x8(%rbp)
   10c39:	31 c0                	xor    %eax,%eax
   10c3b:	48 8d 05 3e c4 00 00 	lea    0xc43e(%rip),%rax        # 1d080 <g_72>
   10c42:	48 89 85 68 ff ff ff 	mov    %rax,-0x98(%rbp)
   10c49:	48 8d 05 30 c4 00 00 	lea    0xc430(%rip),%rax        # 1d080 <g_72>
   10c50:	48 89 85 70 ff ff ff 	mov    %rax,-0x90(%rbp)
   10c57:	48 8d 05 22 c4 00 00 	lea    0xc422(%rip),%rax        # 1d080 <g_72>
   10c5e:	48 89 85 78 ff ff ff 	mov    %rax,-0x88(%rbp)
   10c65:	48 c7 45 80 00 00 00 	movq   $0x0,-0x80(%rbp)
   10c6c:	00 
   10c6d:	48 c7 45 88 00 00 00 	movq   $0x0,-0x78(%rbp)
   10c74:	00 
   10c75:	48 8d 05 04 c4 00 00 	lea    0xc404(%rip),%rax        # 1d080 <g_72>
   10c7c:	48 89 45 90          	mov    %rax,-0x70(%rbp)
   10c80:	48 8d 05 f9 c3 00 00 	lea    0xc3f9(%rip),%rax        # 1d080 <g_72>
   10c87:	48 89 45 98          	mov    %rax,-0x68(%rbp)
   10c8b:	48 8d 05 ee c3 00 00 	lea    0xc3ee(%rip),%rax        # 1d080 <g_72>
   10c92:	48 89 45 a0          	mov    %rax,-0x60(%rbp)
   10c96:	48 c7 45 a8 00 00 00 	movq   $0x0,-0x58(%rbp)
   10c9d:	00 
   10c9e:	48 c7 45 b0 00 00 00 	movq   $0x0,-0x50(%rbp)
   10ca5:	00 
   10ca6:	48 8d 05 d3 c3 00 00 	lea    0xc3d3(%rip),%rax        # 1d080 <g_72>
   10cad:	48 89 45 b8          	mov    %rax,-0x48(%rbp)
   10cb1:	48 c7 45 c0 00 00 00 	movq   $0x0,-0x40(%rbp)
   10cb8:	00 
   10cb9:	48 8d 05 c0 c3 00 00 	lea    0xc3c0(%rip),%rax        # 1d080 <g_72>
   10cc0:	48 89 45 c8          	mov    %rax,-0x38(%rbp)
   10cc4:	48 c7 45 d0 00 00 00 	movq   $0x0,-0x30(%rbp)
   10ccb:	00 
   10ccc:	48 8d 05 ad c3 00 00 	lea    0xc3ad(%rip),%rax        # 1d080 <g_72>
   10cd3:	48 89 45 d8          	mov    %rax,-0x28(%rbp)
   10cd7:	48 8d 05 a2 c3 00 00 	lea    0xc3a2(%rip),%rax        # 1d080 <g_72>
   10cde:	48 89 45 e0          	mov    %rax,-0x20(%rbp)
   10ce2:	48 c7 45 e8 00 00 00 	movq   $0x0,-0x18(%rbp)
   10ce9:	00 
   10cea:	8b 05 5c 0b 01 00    	mov    0x10b5c(%rip),%eax        # 2184c <g_75>
   10cf0:	83 e8 01             	sub    $0x1,%eax
   10cf3:	89 05 53 0b 01 00    	mov    %eax,0x10b53(%rip)        # 2184c <g_75>
   10cf9:	c7 05 79 c3 00 00 03 	movl   $0x3,0xc379(%rip)        # 1d07c <g_70>
   10d00:	00 00 00 
   10d03:	e9 84 00 00 00       	jmpq   10d8c <func_66+0x176>
   10d08:	66 c7 05 37 0b 01 00 	movw   $0x0,0x10b37(%rip)        # 21848 <g_74>
   10d0f:	00 00 
   10d11:	eb 1e                	jmp    10d31 <func_66+0x11b>
   10d13:	48 8b 85 68 ff ff ff 	mov    -0x98(%rbp),%rax
   10d1a:	8b 00                	mov    (%rax),%eax
   10d1c:	85 c0                	test   %eax,%eax
   10d1e:	75 20                	jne    10d40 <func_66+0x12a>
   10d20:	0f b7 05 21 0b 01 00 	movzwl 0x10b21(%rip),%eax        # 21848 <g_74>
   10d27:	83 c0 01             	add    $0x1,%eax
   10d2a:	66 89 05 17 0b 01 00 	mov    %ax,0x10b17(%rip)        # 21848 <g_74>
   10d31:	0f b7 05 10 0b 01 00 	movzwl 0x10b10(%rip),%eax        # 21848 <g_74>
   10d38:	66 83 f8 03          	cmp    $0x3,%ax
   10d3c:	7e d5                	jle    10d13 <func_66+0xfd>
   10d3e:	eb 01                	jmp    10d41 <func_66+0x12b>
   10d40:	90                   	nop
   10d41:	c7 05 01 0b 01 00 00 	movl   $0x0,0x10b01(%rip)        # 2184c <g_75>
   10d48:	00 00 00 
   10d4b:	eb 22                	jmp    10d6f <func_66+0x159>
   10d4d:	c7 85 64 ff ff ff 17 	movl   $0x22ad617,-0x9c(%rbp)
   10d54:	d6 2a 02 
   10d57:	83 bd 64 ff ff ff 00 	cmpl   $0x0,-0x9c(%rbp)
   10d5e:	75 1c                	jne    10d7c <func_66+0x166>
   10d60:	8b 05 e6 0a 01 00    	mov    0x10ae6(%rip),%eax        # 2184c <g_75>
   10d66:	83 c0 01             	add    $0x1,%eax
   10d69:	89 05 dd 0a 01 00    	mov    %eax,0x10add(%rip)        # 2184c <g_75>
   10d6f:	8b 05 d7 0a 01 00    	mov    0x10ad7(%rip),%eax        # 2184c <g_75>
   10d75:	83 f8 03             	cmp    $0x3,%eax
   10d78:	76 d3                	jbe    10d4d <func_66+0x137>
   10d7a:	eb 01                	jmp    10d7d <func_66+0x167>
   10d7c:	90                   	nop
   10d7d:	8b 05 f9 c2 00 00    	mov    0xc2f9(%rip),%eax        # 1d07c <g_70>
   10d83:	83 e8 01             	sub    $0x1,%eax
   10d86:	89 05 f0 c2 00 00    	mov    %eax,0xc2f0(%rip)        # 1d07c <g_70>
   10d8c:	8b 05 ea c2 00 00    	mov    0xc2ea(%rip),%eax        # 1d07c <g_70>
   10d92:	85 c0                	test   %eax,%eax
   10d94:	0f 89 6e ff ff ff    	jns    10d08 <func_66+0xf2>
   10d9a:	0f b7 05 a7 0a 01 00 	movzwl 0x10aa7(%rip),%eax        # 21848 <g_74>
   10da1:	48 8b 55 f8          	mov    -0x8(%rbp),%rdx
   10da5:	64 48 33 14 25 28 00 	xor    %fs:0x28,%rdx
   10dac:	00 00 
   10dae:	74 05                	je     10db5 <func_66+0x19f>
   10db0:	e8 bb 72 ff ff       	callq  8070 <__stack_chk_fail@plt>
   10db5:	c9                   	leaveq 
   10db6:	c3                   	retq   

0000000000010db7 <func_80>:
   10db7:	f3 0f 1e fa          	endbr64 
   10dbb:	55                   	push   %rbp
   10dbc:	48 89 e5             	mov    %rsp,%rbp
   10dbf:	41 57                	push   %r15
   10dc1:	41 56                	push   %r14
   10dc3:	41 55                	push   %r13
   10dc5:	41 54                	push   %r12
   10dc7:	53                   	push   %rbx
   10dc8:	48 81 ec b8 0f 00 00 	sub    $0xfb8,%rsp
   10dcf:	89 bd 3c f0 ff ff    	mov    %edi,-0xfc4(%rbp)
   10dd5:	89 f0                	mov    %esi,%eax
   10dd7:	48 89 95 30 f0 ff ff 	mov    %rdx,-0xfd0(%rbp)
   10dde:	89 8d 2c f0 ff ff    	mov    %ecx,-0xfd4(%rbp)
   10de4:	88 85 38 f0 ff ff    	mov    %al,-0xfc8(%rbp)
   10dea:	64 48 8b 04 25 28 00 	mov    %fs:0x28,%rax
   10df1:	00 00 
   10df3:	48 89 45 c8          	mov    %rax,-0x38(%rbp)
   10df7:	31 c0                	xor    %eax,%eax
   10df9:	48 b8 d4 9e 09 cb 7d 	movabs $0xe1225a7dcb099ed4,%rax
   10e00:	5a 22 e1 
   10e03:	48 89 85 28 f1 ff ff 	mov    %rax,-0xed8(%rbp)
   10e0a:	48 c7 85 30 f1 ff ff 	movq   $0x0,-0xed0(%rbp)
   10e11:	00 00 00 00 
   10e15:	48 8d 05 84 f5 00 00 	lea    0xf584(%rip),%rax        # 203a0 <g_104>
   10e1c:	48 89 85 38 f1 ff ff 	mov    %rax,-0xec8(%rbp)
   10e23:	c7 85 50 f0 ff ff 21 	movl   $0x8047f021,-0xfb0(%rbp)
   10e2a:	f0 47 80 
   10e2d:	48 c7 85 40 f1 ff ff 	movq   $0x0,-0xec0(%rbp)
   10e34:	00 00 00 00 
   10e38:	48 8d 05 0f d9 00 00 	lea    0xd90f(%rip),%rax        # 1e74e <g_555+0xe>
   10e3f:	48 89 85 48 f1 ff ff 	mov    %rax,-0xeb8(%rbp)
   10e46:	48 8d 05 53 00 01 00 	lea    0x10053(%rip),%rax        # 20ea0 <g_1261>
   10e4d:	48 89 85 d0 f0 ff ff 	mov    %rax,-0xf30(%rbp)
   10e54:	48 b8 07 fc e3 fc d8 	movabs $0xee06c2d8fce3fc07,%rax
   10e5b:	c2 06 ee 
   10e5e:	48 89 85 18 f1 ff ff 	mov    %rax,-0xee8(%rbp)
   10e65:	48 8d 05 5c ff 00 00 	lea    0xff5c(%rip),%rax        # 20dc8 <g_1174+0x28>
   10e6c:	48 89 85 d8 f0 ff ff 	mov    %rax,-0xf28(%rbp)
   10e73:	48 8d 85 b0 fb ff ff 	lea    -0x450(%rbp),%rax
   10e7a:	48 8d 15 3f 82 00 00 	lea    0x823f(%rip),%rdx        # 190c0 <g_3221+0xfa8>
   10e81:	b9 80 00 00 00       	mov    $0x80,%ecx
   10e86:	48 89 c7             	mov    %rax,%rdi
   10e89:	48 89 d6             	mov    %rdx,%rsi
   10e8c:	f3 48 a5             	rep movsq %ds:(%rsi),%es:(%rdi)
   10e8f:	48 8d 05 da 09 01 00 	lea    0x109da(%rip),%rax        # 21870 <g_1086>
   10e96:	48 89 85 e0 f0 ff ff 	mov    %rax,-0xf20(%rbp)
   10e9d:	48 8d 85 e0 f0 ff ff 	lea    -0xf20(%rbp),%rax
   10ea4:	48 89 85 50 f1 ff ff 	mov    %rax,-0xeb0(%rbp)
   10eab:	48 8d 05 76 00 01 00 	lea    0x10076(%rip),%rax        # 20f28 <g_1692>
   10eb2:	48 89 85 58 f1 ff ff 	mov    %rax,-0xea8(%rbp)
   10eb9:	48 8d 05 c8 da 00 00 	lea    0xdac8(%rip),%rax        # 1e988 <g_1124>
   10ec0:	48 89 85 60 f1 ff ff 	mov    %rax,-0xea0(%rbp)
   10ec7:	48 b8 fe 18 46 43 30 	movabs $0x6fd5ce30434618fe,%rax
   10ece:	ce d5 6f 
   10ed1:	48 89 85 68 f1 ff ff 	mov    %rax,-0xe98(%rbp)
   10ed8:	c7 85 5c f0 ff ff 00 	movl   $0x0,-0xfa4(%rbp)
   10edf:	00 00 00 
   10ee2:	eb 4d                	jmp    10f31 <func_80+0x17a>
   10ee4:	c7 85 60 f0 ff ff 00 	movl   $0x0,-0xfa0(%rbp)
   10eeb:	00 00 00 
   10eee:	eb 31                	jmp    10f21 <func_80+0x16a>
   10ef0:	8b 85 60 f0 ff ff    	mov    -0xfa0(%rbp),%eax
   10ef6:	48 63 c8             	movslq %eax,%rcx
   10ef9:	8b 85 5c f0 ff ff    	mov    -0xfa4(%rbp),%eax
   10eff:	48 63 d0             	movslq %eax,%rdx
   10f02:	48 89 d0             	mov    %rdx,%rax
   10f05:	48 c1 e0 03          	shl    $0x3,%rax
   10f09:	48 01 d0             	add    %rdx,%rax
   10f0c:	48 01 c8             	add    %rcx,%rax
   10f0f:	c7 84 85 20 f5 ff ff 	movl   $0x1,-0xae0(%rbp,%rax,4)
   10f16:	01 00 00 00 
   10f1a:	83 85 60 f0 ff ff 01 	addl   $0x1,-0xfa0(%rbp)
   10f21:	83 bd 60 f0 ff ff 08 	cmpl   $0x8,-0xfa0(%rbp)
   10f28:	7e c6                	jle    10ef0 <func_80+0x139>
   10f2a:	83 85 5c f0 ff ff 01 	addl   $0x1,-0xfa4(%rbp)
   10f31:	83 bd 5c f0 ff ff 09 	cmpl   $0x9,-0xfa4(%rbp)
   10f38:	7e aa                	jle    10ee4 <func_80+0x12d>
   10f3a:	c7 85 5c f0 ff ff 00 	movl   $0x0,-0xfa4(%rbp)
   10f41:	00 00 00 
   10f44:	eb 1b                	jmp    10f61 <func_80+0x1aa>
   10f46:	8b 85 5c f0 ff ff    	mov    -0xfa4(%rbp),%eax
   10f4c:	48 98                	cltq   
   10f4e:	48 c7 84 c5 00 f3 ff 	movq   $0xffffffffffffffff,-0xd00(%rbp,%rax,8)
   10f55:	ff ff ff ff ff 
   10f5a:	83 85 5c f0 ff ff 01 	addl   $0x1,-0xfa4(%rbp)
   10f61:	83 bd 5c f0 ff ff 01 	cmpl   $0x1,-0xfa4(%rbp)
   10f68:	7e dc                	jle    10f46 <func_80+0x18f>
   10f6a:	c6 05 b3 c9 00 00 00 	movb   $0x0,0xc9b3(%rip)        # 1d924 <g_281>
   10f71:	e9 97 2b 00 00       	jmpq   13b0d <func_80+0x2d56>
   10f76:	48 8d 05 33 d8 00 00 	lea    0xd833(%rip),%rax        # 1e7b0 <g_737>
   10f7d:	48 89 85 90 f1 ff ff 	mov    %rax,-0xe70(%rbp)
   10f84:	48 8d 05 25 d8 00 00 	lea    0xd825(%rip),%rax        # 1e7b0 <g_737>
   10f8b:	48 89 85 70 f3 ff ff 	mov    %rax,-0xc90(%rbp)
   10f92:	48 8d 05 17 d8 00 00 	lea    0xd817(%rip),%rax        # 1e7b0 <g_737>
   10f99:	48 89 85 78 f3 ff ff 	mov    %rax,-0xc88(%rbp)
   10fa0:	48 8d 05 09 d8 00 00 	lea    0xd809(%rip),%rax        # 1e7b0 <g_737>
   10fa7:	48 89 85 80 f3 ff ff 	mov    %rax,-0xc80(%rbp)
   10fae:	48 8d 05 fb d7 00 00 	lea    0xd7fb(%rip),%rax        # 1e7b0 <g_737>
   10fb5:	48 89 85 88 f3 ff ff 	mov    %rax,-0xc78(%rbp)
   10fbc:	48 8d 05 ed d7 00 00 	lea    0xd7ed(%rip),%rax        # 1e7b0 <g_737>
   10fc3:	48 89 85 90 f3 ff ff 	mov    %rax,-0xc70(%rbp)
   10fca:	48 8d 05 df d7 00 00 	lea    0xd7df(%rip),%rax        # 1e7b0 <g_737>
   10fd1:	48 89 85 98 f3 ff ff 	mov    %rax,-0xc68(%rbp)
   10fd8:	48 8d 05 d1 d7 00 00 	lea    0xd7d1(%rip),%rax        # 1e7b0 <g_737>
   10fdf:	48 89 85 a0 f3 ff ff 	mov    %rax,-0xc60(%rbp)
   10fe6:	c7 85 64 f0 ff ff fd 	movl   $0xfffffffd,-0xf9c(%rbp)
   10fed:	ff ff ff 
   10ff0:	48 8d 05 d1 fd 00 00 	lea    0xfdd1(%rip),%rax        # 20dc8 <g_1174+0x28>
   10ff7:	48 89 85 e8 f0 ff ff 	mov    %rax,-0xf18(%rbp)
   10ffe:	48 8d 05 23 c0 00 00 	lea    0xc023(%rip),%rax        # 1d028 <g_2>
   11005:	48 89 85 98 f1 ff ff 	mov    %rax,-0xe68(%rbp)
   1100c:	c7 85 54 f0 ff ff 39 	movl   $0x47a59f39,-0xfac(%rbp)
   11013:	9f a5 47 
   11016:	48 8d 85 00 f4 ff ff 	lea    -0xc00(%rbp),%rax
   1101d:	48 8d 15 9c 84 00 00 	lea    0x849c(%rip),%rdx        # 194c0 <g_3221+0x13a8>
   11024:	b9 24 00 00 00       	mov    $0x24,%ecx
   11029:	48 89 c7             	mov    %rax,%rdi
   1102c:	48 89 d6             	mov    %rdx,%rsi
   1102f:	f3 48 a5             	rep movsq %ds:(%rsi),%es:(%rdi)
   11032:	48 8d 05 67 f3 00 00 	lea    0xf367(%rip),%rax        # 203a0 <g_104>
   11039:	48 89 85 a0 f1 ff ff 	mov    %rax,-0xe60(%rbp)
   11040:	48 8d 05 a9 f8 00 00 	lea    0xf8a9(%rip),%rax        # 208f0 <g_541+0xd0>
   11047:	48 89 85 a8 f1 ff ff 	mov    %rax,-0xe58(%rbp)
   1104e:	48 c7 85 f0 f0 ff ff 	movq   $0x0,-0xf10(%rbp)
   11055:	00 00 00 00 
   11059:	48 8d 85 f0 f0 ff ff 	lea    -0xf10(%rbp),%rax
   11060:	48 89 85 f8 f0 ff ff 	mov    %rax,-0xf08(%rbp)
   11067:	c7 85 88 f0 ff ff 00 	movl   $0x0,-0xf78(%rbp)
   1106e:	00 00 00 
   11071:	48 b8 87 87 87 87 87 	movabs $0x8787878787878787,%rax
   11078:	87 87 87 
   1107b:	48 89 45 b6          	mov    %rax,-0x4a(%rbp)
   1107f:	48 8d 05 fa fc 00 00 	lea    0xfcfa(%rip),%rax        # 20d80 <g_1085>
   11086:	48 89 85 00 f1 ff ff 	mov    %rax,-0xf00(%rbp)
   1108d:	48 8d 85 00 f1 ff ff 	lea    -0xf00(%rbp),%rax
   11094:	48 89 85 b0 f1 ff ff 	mov    %rax,-0xe50(%rbp)
   1109b:	48 8d 85 d0 f0 ff ff 	lea    -0xf30(%rbp),%rax
   110a2:	48 89 85 b8 f1 ff ff 	mov    %rax,-0xe48(%rbp)
   110a9:	c7 85 68 f0 ff ff 00 	movl   $0x0,-0xf98(%rbp)
   110b0:	00 00 00 
   110b3:	eb 19                	jmp    110ce <func_80+0x317>
   110b5:	8b 85 68 f0 ff ff    	mov    -0xf98(%rbp),%eax
   110bb:	48 98                	cltq   
   110bd:	66 c7 84 45 f2 f2 ff 	movw   $0xe4a0,-0xd0e(%rbp,%rax,2)
   110c4:	ff a0 e4 
   110c7:	83 85 68 f0 ff ff 01 	addl   $0x1,-0xf98(%rbp)
   110ce:	83 bd 68 f0 ff ff 06 	cmpl   $0x6,-0xf98(%rbp)
   110d5:	7e de                	jle    110b5 <func_80+0x2fe>
   110d7:	c7 85 68 f0 ff ff 00 	movl   $0x0,-0xf98(%rbp)
   110de:	00 00 00 
   110e1:	eb 1a                	jmp    110fd <func_80+0x346>
   110e3:	8b 85 68 f0 ff ff    	mov    -0xf98(%rbp),%eax
   110e9:	48 98                	cltq   
   110eb:	c7 84 85 ec f2 ff ff 	movl   $0x6,-0xd14(%rbp,%rax,4)
   110f2:	06 00 00 00 
   110f6:	83 85 68 f0 ff ff 01 	addl   $0x1,-0xf98(%rbp)
   110fd:	83 bd 68 f0 ff ff 00 	cmpl   $0x0,-0xf98(%rbp)
   11104:	7e dd                	jle    110e3 <func_80+0x32c>
   11106:	83 ad 64 f0 ff ff 01 	subl   $0x1,-0xf9c(%rbp)
   1110d:	c7 85 3c f0 ff ff 00 	movl   $0x0,-0xfc4(%rbp)
   11114:	00 00 00 
   11117:	e9 09 0f 00 00       	jmpq   12025 <func_80+0x126e>
   1111c:	48 c7 85 60 f2 ff ff 	movq   $0x0,-0xda0(%rbp)
   11123:	00 00 00 00 
   11127:	48 c7 85 68 f2 ff ff 	movq   $0x0,-0xd98(%rbp)
   1112e:	00 00 00 00 
   11132:	48 8d 05 1f 07 01 00 	lea    0x1071f(%rip),%rax        # 21858 <g_419>
   11139:	48 89 85 70 f2 ff ff 	mov    %rax,-0xd90(%rbp)
   11140:	c7 85 a4 f0 ff ff 0d 	movl   $0x4dfe200d,-0xf5c(%rbp)
   11147:	20 fe 4d 
   1114a:	c7 85 a8 f0 ff ff 01 	movl   $0x1,-0xf58(%rbp)
   11151:	00 00 00 
   11154:	c7 85 ac f0 ff ff ff 	movl   $0xffffffff,-0xf54(%rbp)
   1115b:	ff ff ff 
   1115e:	48 8d 05 c3 fd 00 00 	lea    0xfdc3(%rip),%rax        # 20f28 <g_1692>
   11165:	48 89 85 90 f6 ff ff 	mov    %rax,-0x970(%rbp)
   1116c:	48 8d 05 b5 fd 00 00 	lea    0xfdb5(%rip),%rax        # 20f28 <g_1692>
   11173:	48 89 85 98 f6 ff ff 	mov    %rax,-0x968(%rbp)
   1117a:	48 8d 05 a7 fd 00 00 	lea    0xfda7(%rip),%rax        # 20f28 <g_1692>
   11181:	48 89 85 a0 f6 ff ff 	mov    %rax,-0x960(%rbp)
   11188:	48 8d 05 99 fd 00 00 	lea    0xfd99(%rip),%rax        # 20f28 <g_1692>
   1118f:	48 89 85 a8 f6 ff ff 	mov    %rax,-0x958(%rbp)
   11196:	48 8d 05 8b fd 00 00 	lea    0xfd8b(%rip),%rax        # 20f28 <g_1692>
   1119d:	48 89 85 b0 f6 ff ff 	mov    %rax,-0x950(%rbp)
   111a4:	48 8d 05 7d fd 00 00 	lea    0xfd7d(%rip),%rax        # 20f28 <g_1692>
   111ab:	48 89 85 b8 f6 ff ff 	mov    %rax,-0x948(%rbp)
   111b2:	48 8d 05 6f fd 00 00 	lea    0xfd6f(%rip),%rax        # 20f28 <g_1692>
   111b9:	48 89 85 c0 f6 ff ff 	mov    %rax,-0x940(%rbp)
   111c0:	48 8d 05 61 fd 00 00 	lea    0xfd61(%rip),%rax        # 20f28 <g_1692>
   111c7:	48 89 85 c8 f6 ff ff 	mov    %rax,-0x938(%rbp)
   111ce:	48 8d 05 53 fd 00 00 	lea    0xfd53(%rip),%rax        # 20f28 <g_1692>
   111d5:	48 89 85 d0 f6 ff ff 	mov    %rax,-0x930(%rbp)
   111dc:	c7 85 6c f0 ff ff 00 	movl   $0x0,-0xf94(%rbp)
   111e3:	00 00 00 
   111e6:	eb 1e                	jmp    11206 <func_80+0x44f>
   111e8:	8b 85 6c f0 ff ff    	mov    -0xf94(%rbp),%eax
   111ee:	48 98                	cltq   
   111f0:	48 8d 95 d8 f0 ff ff 	lea    -0xf28(%rbp),%rdx
   111f7:	48 89 94 c5 50 f8 ff 	mov    %rdx,-0x7b0(%rbp,%rax,8)
   111fe:	ff 
   111ff:	83 85 6c f0 ff ff 01 	addl   $0x1,-0xf94(%rbp)
   11206:	83 bd 6c f0 ff ff 08 	cmpl   $0x8,-0xf94(%rbp)
   1120d:	7e d9                	jle    111e8 <func_80+0x431>
   1120f:	48 8b 85 30 f0 ff ff 	mov    -0xfd0(%rbp),%rax
   11216:	8b 10                	mov    (%rax),%edx
   11218:	48 8b 85 90 f1 ff ff 	mov    -0xe70(%rbp),%rax
   1121f:	89 10                	mov    %edx,(%rax)
   11221:	48 8b 85 90 f1 ff ff 	mov    -0xe70(%rbp),%rax
   11228:	8b 10                	mov    (%rax),%edx
   1122a:	8b 85 28 f6 ff ff    	mov    -0x9d8(%rbp),%eax
   11230:	31 d0                	xor    %edx,%eax
   11232:	89 85 28 f6 ff ff    	mov    %eax,-0x9d8(%rbp)
   11238:	66 0f be 85 38 f0 ff 	movsbw -0xfc8(%rbp),%ax
   1123f:	ff 
   11240:	0f b7 d0             	movzwl %ax,%edx
   11243:	66 0f be 85 38 f0 ff 	movsbw -0xfc8(%rbp),%ax
   1124a:	ff 
   1124b:	0f b7 c0             	movzwl %ax,%eax
   1124e:	89 d6                	mov    %edx,%esi
   11250:	89 c7                	mov    %eax,%edi
   11252:	e8 c8 7a ff ff       	callq  8d1f <safe_sub_func_uint16_t_u_u>
   11257:	0f b7 d0             	movzwl %ax,%edx
   1125a:	48 8b 85 30 f0 ff ff 	mov    -0xfd0(%rbp),%rax
   11261:	89 10                	mov    %edx,(%rax)
   11263:	48 8b 85 30 f0 ff ff 	mov    -0xfd0(%rbp),%rax
   1126a:	8b 00                	mov    (%rax),%eax
   1126c:	85 c0                	test   %eax,%eax
   1126e:	74 0c                	je     1127c <func_80+0x4c5>
   11270:	48 8b 85 30 f1 ff ff 	mov    -0xed0(%rbp),%rax
   11277:	e9 39 2a 00 00       	jmpq   13cb5 <func_80+0x2efe>
   1127c:	c6 85 47 f0 ff ff 6e 	movb   $0x6e,-0xfb9(%rbp)
   11283:	48 c7 85 78 f2 ff ff 	movq   $0x0,-0xd88(%rbp)
   1128a:	00 00 00 00 
   1128e:	0f b6 9d 47 f0 ff ff 	movzbl -0xfb9(%rbp),%ebx
   11295:	8b 85 f0 f5 ff ff    	mov    -0xa10(%rbp),%eax
   1129b:	89 c2                	mov    %eax,%edx
   1129d:	48 8b 05 8c fb 00 00 	mov    0xfb8c(%rip),%rax        # 20e30 <g_1173>
   112a4:	48 8b 00             	mov    (%rax),%rax
   112a7:	48 85 c0             	test   %rax,%rax
   112aa:	0f 95 c0             	setne  %al
   112ad:	0f b6 c0             	movzbl %al,%eax
   112b0:	89 d6                	mov    %edx,%esi
   112b2:	89 c7                	mov    %eax,%edi
   112b4:	e8 ff 7b ff ff       	callq  8eb8 <safe_add_func_uint32_t_u_u>
   112b9:	41 89 c4             	mov    %eax,%r12d
   112bc:	0f b6 95 47 f0 ff ff 	movzbl -0xfb9(%rbp),%edx
   112c3:	48 83 bd 38 f1 ff ff 	cmpq   $0x0,-0xec8(%rbp)
   112ca:	00 
   112cb:	0f 95 c0             	setne  %al
   112ce:	0f b6 c0             	movzbl %al,%eax
   112d1:	89 d6                	mov    %edx,%esi
   112d3:	89 c7                	mov    %eax,%edi
   112d5:	e8 b4 7a ff ff       	callq  8d8e <safe_div_func_uint16_t_u_u>
   112da:	0f b7 c0             	movzwl %ax,%eax
   112dd:	44 89 e6             	mov    %r12d,%esi
   112e0:	89 c7                	mov    %eax,%edi
   112e2:	e8 1e 73 ff ff       	callq  8605 <safe_sub_func_int32_t_s_s>
   112e7:	0f be 8d 38 f0 ff ff 	movsbl -0xfc8(%rbp),%ecx
   112ee:	83 bd 2c f0 ff ff 00 	cmpl   $0x0,-0xfd4(%rbp)
   112f5:	0f 94 c2             	sete   %dl
   112f8:	48 8b 05 b1 f0 00 00 	mov    0xf0b1(%rip),%rax        # 203b0 <g_309>
   112ff:	0f b6 d2             	movzbl %dl,%edx
   11302:	66 89 10             	mov    %dx,(%rax)
   11305:	0f b7 00             	movzwl (%rax),%eax
   11308:	0f bf d0             	movswl %ax,%edx
   1130b:	0f b6 85 47 f0 ff ff 	movzbl -0xfb9(%rbp),%eax
   11312:	09 c2                	or     %eax,%edx
   11314:	8b 85 28 f6 ff ff    	mov    -0x9d8(%rbp),%eax
   1131a:	09 d0                	or     %edx,%eax
   1131c:	33 85 3c f0 ff ff    	xor    -0xfc4(%rbp),%eax
   11322:	39 c1                	cmp    %eax,%ecx
   11324:	0f 96 c0             	setbe  %al
   11327:	0f b6 c0             	movzbl %al,%eax
   1132a:	89 c2                	mov    %eax,%edx
   1132c:	8b 85 50 f0 ff ff    	mov    -0xfb0(%rbp),%eax
   11332:	09 d0                	or     %edx,%eax
   11334:	89 85 50 f0 ff ff    	mov    %eax,-0xfb0(%rbp)
   1133a:	0f b6 85 47 f0 ff ff 	movzbl -0xfb9(%rbp),%eax
   11341:	48 89 c6             	mov    %rax,%rsi
   11344:	48 bf ea b0 85 9b c6 	movabs $0x1444a3c69b85b0ea,%rdi
   1134b:	a3 44 14 
   1134e:	e8 a4 76 ff ff       	callq  89f7 <safe_div_func_int64_t_s_s>
   11353:	0f b7 c0             	movzwl %ax,%eax
   11356:	89 de                	mov    %ebx,%esi
   11358:	89 c7                	mov    %eax,%edi
   1135a:	e8 de 79 ff ff       	callq  8d3d <safe_mul_func_uint16_t_u_u>
   1135f:	48 8d 15 3e d6 00 00 	lea    0xd63e(%rip),%rdx        # 1e9a4 <g_1199>
   11366:	0f b7 c0             	movzwl %ax,%eax
   11369:	89 02                	mov    %eax,(%rdx)
   1136b:	c7 05 f3 04 01 00 00 	movl   $0x0,0x104f3(%rip)        # 21868 <g_678>
   11372:	00 00 00 
   11375:	e9 15 02 00 00       	jmpq   1158f <func_80+0x7d8>
   1137a:	c7 85 cc f0 ff ff ff 	movl   $0xffffffff,-0xf34(%rbp)
   11381:	ff ff ff 
   11384:	48 8b 85 60 f2 ff ff 	mov    -0xda0(%rbp),%rax
   1138b:	48 3b 85 78 f2 ff ff 	cmp    -0xd88(%rbp),%rax
   11392:	0f 95 c0             	setne  %al
   11395:	0f b6 d0             	movzbl %al,%edx
   11398:	48 8b 85 90 f1 ff ff 	mov    -0xe70(%rbp),%rax
   1139f:	89 10                	mov    %edx,(%rax)
   113a1:	48 8b 85 90 f1 ff ff 	mov    -0xe70(%rbp),%rax
   113a8:	8b 08                	mov    (%rax),%ecx
   113aa:	0f b6 05 73 c5 00 00 	movzbl 0xc573(%rip),%eax        # 1d924 <g_281>
   113b1:	0f be c0             	movsbl %al,%eax
   113b4:	8b 15 ae 04 01 00    	mov    0x104ae(%rip),%edx        # 21868 <g_678>
   113ba:	8d 72 04             	lea    0x4(%rdx),%esi
   113bd:	8b 15 a5 04 01 00    	mov    0x104a5(%rip),%edx        # 21868 <g_678>
   113c3:	83 c2 06             	add    $0x6,%edx
   113c6:	89 d7                	mov    %edx,%edi
   113c8:	48 63 d0             	movslq %eax,%rdx
   113cb:	89 f6                	mov    %esi,%esi
   113cd:	48 89 d0             	mov    %rdx,%rax
   113d0:	48 c1 e0 03          	shl    $0x3,%rax
   113d4:	48 29 d0             	sub    %rdx,%rax
   113d7:	48 c1 e0 03          	shl    $0x3,%rax
   113db:	48 89 f2             	mov    %rsi,%rdx
   113de:	48 c1 e2 03          	shl    $0x3,%rdx
   113e2:	48 29 f2             	sub    %rsi,%rdx
   113e5:	48 01 d0             	add    %rdx,%rax
   113e8:	48 8d 14 38          	lea    (%rax,%rdi,1),%rdx
   113ec:	48 8d 05 6d d3 00 00 	lea    0xd36d(%rip),%rax        # 1e760 <g_653>
   113f3:	48 01 d0             	add    %rdx,%rax
   113f6:	0f b6 00             	movzbl (%rax),%eax
   113f9:	0f be c0             	movsbl %al,%eax
   113fc:	09 c1                	or     %eax,%ecx
   113fe:	89 ca                	mov    %ecx,%edx
   11400:	48 8b 85 90 f1 ff ff 	mov    -0xe70(%rbp),%rax
   11407:	89 10                	mov    %edx,(%rax)
   11409:	c6 05 42 d3 00 00 00 	movb   $0x0,0xd342(%rip)        # 1e752 <g_573>
   11410:	e9 59 01 00 00       	jmpq   1156e <func_80+0x7b7>
   11415:	48 8b 05 64 fa 00 00 	mov    0xfa64(%rip),%rax        # 20e80 <g_1262>
   1141c:	48 8b 00             	mov    (%rax),%rax
   1141f:	0f b7 00             	movzwl (%rax),%eax
   11422:	0f b7 d8             	movzwl %ax,%ebx
   11425:	0f b6 85 38 f0 ff ff 	movzbl -0xfc8(%rbp),%eax
   1142c:	44 0f b6 e0          	movzbl %al,%r12d
   11430:	48 8b 05 71 d5 00 00 	mov    0xd571(%rip),%rax        # 1e9a8 <g_1502>
   11437:	48 8b 85 90 f1 ff ff 	mov    -0xe70(%rbp),%rax
   1143e:	44 8b 28             	mov    (%rax),%r13d
   11441:	be 08 00 00 00       	mov    $0x8,%esi
   11446:	bf 07 00 00 00       	mov    $0x7,%edi
   1144b:	e8 f8 79 ff ff       	callq  8e48 <safe_rshift_func_uint16_t_u_s>
   11450:	44 0f b7 f0          	movzwl %ax,%r14d
   11454:	48 83 bd 40 f1 ff ff 	cmpq   $0x0,-0xec0(%rbp)
   1145b:	00 
   1145c:	0f 95 c0             	setne  %al
   1145f:	44 0f b6 f8          	movzbl %al,%r15d
   11463:	48 83 bd 68 f2 ff ff 	cmpq   $0x0,-0xd98(%rbp)
   1146a:	00 
   1146b:	0f 95 c0             	setne  %al
   1146e:	0f b6 c0             	movzbl %al,%eax
   11471:	be 0d 00 00 00       	mov    $0xd,%esi
   11476:	89 c7                	mov    %eax,%edi
   11478:	e8 cb 79 ff ff       	callq  8e48 <safe_rshift_func_uint16_t_u_s>
   1147d:	0f b7 c0             	movzwl %ax,%eax
   11480:	44 89 fa             	mov    %r15d,%edx
   11483:	09 c2                	or     %eax,%edx
   11485:	8b 05 fd ce 00 00    	mov    0xcefd(%rip),%eax        # 1e388 <g_552+0xc8>
   1148b:	21 d0                	and    %edx,%eax
   1148d:	83 c8 09             	or     $0x9,%eax
   11490:	48 98                	cltq   
   11492:	48 be 25 2c fa 40 6b 	movabs $0xacaead6b40fa2c25,%rsi
   11499:	ad ae ac 
   1149c:	48 89 c7             	mov    %rax,%rdi
   1149f:	e8 9d 73 ff ff       	callq  8841 <safe_add_func_int64_t_s_s>
   114a4:	48 85 c0             	test   %rax,%rax
   114a7:	74 10                	je     114b9 <func_80+0x702>
   114a9:	80 bd 38 f0 ff ff 00 	cmpb   $0x0,-0xfc8(%rbp)
   114b0:	74 07                	je     114b9 <func_80+0x702>
   114b2:	b8 01 00 00 00       	mov    $0x1,%eax
   114b7:	eb 05                	jmp    114be <func_80+0x707>
   114b9:	b8 00 00 00 00       	mov    $0x0,%eax
   114be:	48 63 d0             	movslq %eax,%rdx
   114c1:	48 8b 05 48 f6 00 00 	mov    0xf648(%rip),%rax        # 20b10 <g_945>
   114c8:	48 0f be 8d 38 f0 ff 	movsbq -0xfc8(%rbp),%rcx
   114cf:	ff 
   114d0:	48 89 08             	mov    %rcx,(%rax)
   114d3:	48 8b 00             	mov    (%rax),%rax
   114d6:	48 89 d6             	mov    %rdx,%rsi
   114d9:	48 89 c7             	mov    %rax,%rdi
   114dc:	e8 4d 7b ff ff       	callq  902e <safe_add_func_uint64_t_u_u>
   114e1:	49 39 c6             	cmp    %rax,%r14
   114e4:	0f 94 c0             	sete   %al
   114e7:	0f b6 c0             	movzbl %al,%eax
   114ea:	89 85 cc f0 ff ff    	mov    %eax,-0xf34(%rbp)
   114f0:	8b 85 cc f0 ff ff    	mov    -0xf34(%rbp),%eax
   114f6:	0f b7 c0             	movzwl %ax,%eax
   114f9:	44 89 ee             	mov    %r13d,%esi
   114fc:	89 c7                	mov    %eax,%edi
   114fe:	e8 45 79 ff ff       	callq  8e48 <safe_rshift_func_uint16_t_u_s>
   11503:	0f b7 d0             	movzwl %ax,%edx
   11506:	0f be 85 38 f0 ff ff 	movsbl -0xfc8(%rbp),%eax
   1150d:	39 c2                	cmp    %eax,%edx
   1150f:	0f 9d c0             	setge  %al
   11512:	0f b6 c0             	movzbl %al,%eax
   11515:	89 c7                	mov    %eax,%edi
   11517:	e8 a3 6c ff ff       	callq  81bf <safe_unary_minus_func_int8_t_s>
   1151c:	44 89 e6             	mov    %r12d,%esi
   1151f:	bf 00 00 00 00       	mov    $0x0,%edi
   11524:	e8 31 76 ff ff       	callq  8b5a <safe_add_func_uint8_t_u_u>
   11529:	b8 00 00 00 00       	mov    $0x0,%eax
   1152e:	0f b7 c0             	movzwl %ax,%eax
   11531:	89 de                	mov    %ebx,%esi
   11533:	89 c7                	mov    %eax,%edi
   11535:	e8 e5 77 ff ff       	callq  8d1f <safe_sub_func_uint16_t_u_u>
   1153a:	48 8d 15 63 d4 00 00 	lea    0xd463(%rip),%rdx        # 1e9a4 <g_1199>
   11541:	8b 0a                	mov    (%rdx),%ecx
   11543:	0f b7 d0             	movzwl %ax,%edx
   11546:	48 8d 05 57 d4 00 00 	lea    0xd457(%rip),%rax        # 1e9a4 <g_1199>
   1154d:	31 ca                	xor    %ecx,%edx
   1154f:	89 10                	mov    %edx,(%rax)
   11551:	48 8b 85 30 f0 ff ff 	mov    -0xfd0(%rbp),%rax
   11558:	8b 00                	mov    (%rax),%eax
   1155a:	85 c0                	test   %eax,%eax
   1155c:	75 21                	jne    1157f <func_80+0x7c8>
   1155e:	0f b6 05 ed d1 00 00 	movzbl 0xd1ed(%rip),%eax        # 1e752 <g_573>
   11565:	83 e8 01             	sub    $0x1,%eax
   11568:	88 05 e4 d1 00 00    	mov    %al,0xd1e4(%rip)        # 1e752 <g_573>
   1156e:	0f b6 05 dd d1 00 00 	movzbl 0xd1dd(%rip),%eax        # 1e752 <g_573>
   11575:	84 c0                	test   %al,%al
   11577:	0f 89 98 fe ff ff    	jns    11415 <func_80+0x65e>
   1157d:	eb 01                	jmp    11580 <func_80+0x7c9>
   1157f:	90                   	nop
   11580:	8b 05 e2 02 01 00    	mov    0x102e2(%rip),%eax        # 21868 <g_678>
   11586:	83 c0 01             	add    $0x1,%eax
   11589:	89 05 d9 02 01 00    	mov    %eax,0x102d9(%rip)        # 21868 <g_678>
   1158f:	8b 05 d3 02 01 00    	mov    0x102d3(%rip),%eax        # 21868 <g_678>
   11595:	85 c0                	test   %eax,%eax
   11597:	0f 84 dd fd ff ff    	je     1137a <func_80+0x5c3>
   1159d:	c7 05 ed c2 00 00 00 	movl   $0x0,0xc2ed(%rip)        # 1d894 <g_144>
   115a4:	00 00 00 
   115a7:	e9 a9 00 00 00       	jmpq   11655 <func_80+0x89e>
   115ac:	48 c7 85 80 f2 ff ff 	movq   $0x0,-0xd80(%rbp)
   115b3:	00 00 00 00 
   115b7:	48 8d 05 f2 f7 00 00 	lea    0xf7f2(%rip),%rax        # 20db0 <g_1174+0x10>
   115be:	48 89 85 88 f2 ff ff 	mov    %rax,-0xd78(%rbp)
   115c5:	48 c7 85 90 f2 ff ff 	movq   $0x0,-0xd70(%rbp)
   115cc:	00 00 00 00 
   115d0:	48 c7 85 98 f2 ff ff 	movq   $0x0,-0xd68(%rbp)
   115d7:	00 00 00 00 
   115db:	c7 85 b0 f0 ff ff 21 	movl   $0x24bfed21,-0xf50(%rbp)
   115e2:	ed bf 24 
   115e5:	48 b8 a8 30 b5 3e 22 	movabs $0x7fe3ea223eb530a8,%rax
   115ec:	ea e3 7f 
   115ef:	48 89 85 a0 f2 ff ff 	mov    %rax,-0xd60(%rbp)
   115f6:	0f b6 05 27 c3 00 00 	movzbl 0xc327(%rip),%eax        # 1d924 <g_281>
   115fd:	0f be c0             	movsbl %al,%eax
   11600:	8b 15 8e c2 00 00    	mov    0xc28e(%rip),%edx        # 1d894 <g_144>
   11606:	8d 4a 05             	lea    0x5(%rdx),%ecx
   11609:	8b 15 85 c2 00 00    	mov    0xc285(%rip),%edx        # 1d894 <g_144>
   1160f:	89 d6                	mov    %edx,%esi
   11611:	48 63 d0             	movslq %eax,%rdx
   11614:	89 c9                	mov    %ecx,%ecx
   11616:	48 89 d0             	mov    %rdx,%rax
   11619:	48 c1 e0 03          	shl    $0x3,%rax
   1161d:	48 29 d0             	sub    %rdx,%rax
   11620:	48 c1 e0 03          	shl    $0x3,%rax
   11624:	48 89 ca             	mov    %rcx,%rdx
   11627:	48 c1 e2 03          	shl    $0x3,%rdx
   1162b:	48 29 ca             	sub    %rcx,%rdx
   1162e:	48 01 d0             	add    %rdx,%rax
   11631:	48 8d 14 30          	lea    (%rax,%rsi,1),%rdx
   11635:	48 8d 05 24 d1 00 00 	lea    0xd124(%rip),%rax        # 1e760 <g_653>
   1163c:	48 01 d0             	add    %rdx,%rax
   1163f:	0f b6 00             	movzbl (%rax),%eax
   11642:	84 c0                	test   %al,%al
   11644:	75 20                	jne    11666 <func_80+0x8af>
   11646:	8b 05 48 c2 00 00    	mov    0xc248(%rip),%eax        # 1d894 <g_144>
   1164c:	83 c0 01             	add    $0x1,%eax
   1164f:	89 05 3f c2 00 00    	mov    %eax,0xc23f(%rip)        # 1d894 <g_144>
   11655:	8b 05 39 c2 00 00    	mov    0xc239(%rip),%eax        # 1d894 <g_144>
   1165b:	83 f8 02             	cmp    $0x2,%eax
   1165e:	0f 86 48 ff ff ff    	jbe    115ac <func_80+0x7f5>
   11664:	eb 01                	jmp    11667 <func_80+0x8b0>
   11666:	90                   	nop
   11667:	c7 05 df 01 01 00 00 	movl   $0x0,0x101df(%rip)        # 21850 <g_149>
   1166e:	00 00 00 
   11671:	e9 9a 09 00 00       	jmpq   12010 <func_80+0x1259>
   11676:	48 8d 05 43 f8 00 00 	lea    0xf843(%rip),%rax        # 20ec0 <g_1333>
   1167d:	48 89 85 a8 f2 ff ff 	mov    %rax,-0xd58(%rbp)
   11684:	c7 85 70 f0 ff ff 00 	movl   $0x0,-0xf90(%rbp)
   1168b:	00 00 00 
   1168e:	eb 1a                	jmp    116aa <func_80+0x8f3>
   11690:	8b 85 70 f0 ff ff    	mov    -0xf90(%rbp),%eax
   11696:	48 98                	cltq   
   11698:	c7 84 85 40 f3 ff ff 	movl   $0x2,-0xcc0(%rbp,%rax,4)
   1169f:	02 00 00 00 
   116a3:	83 85 70 f0 ff ff 01 	addl   $0x1,-0xf90(%rbp)
   116aa:	83 bd 70 f0 ff ff 02 	cmpl   $0x2,-0xf90(%rbp)
   116b1:	7e dd                	jle    11690 <func_80+0x8d9>
   116b3:	8b b5 44 f3 ff ff    	mov    -0xcbc(%rbp),%esi
   116b9:	8b 05 91 01 01 00    	mov    0x10191(%rip),%eax        # 21850 <g_149>
   116bf:	8d 48 06             	lea    0x6(%rax),%ecx
   116c2:	0f b6 05 5b c2 00 00 	movzbl 0xc25b(%rip),%eax        # 1d924 <g_281>
   116c9:	0f be c0             	movsbl %al,%eax
   116cc:	83 c0 01             	add    $0x1,%eax
   116cf:	48 63 f8             	movslq %eax,%rdi
   116d2:	8b 95 3c f0 ff ff    	mov    -0xfc4(%rbp),%edx
   116d8:	48 63 c9             	movslq %ecx,%rcx
   116db:	48 89 d0             	mov    %rdx,%rax
   116de:	48 c1 e0 03          	shl    $0x3,%rax
   116e2:	48 29 d0             	sub    %rdx,%rax
   116e5:	48 c1 e0 03          	shl    $0x3,%rax
   116e9:	48 89 ca             	mov    %rcx,%rdx
   116ec:	48 c1 e2 03          	shl    $0x3,%rdx
   116f0:	48 29 ca             	sub    %rcx,%rdx
   116f3:	48 01 d0             	add    %rdx,%rax
   116f6:	48 8d 14 38          	lea    (%rax,%rdi,1),%rdx
   116fa:	48 8d 05 5f d0 00 00 	lea    0xd05f(%rip),%rax        # 1e760 <g_653>
   11701:	48 01 d0             	add    %rdx,%rax
   11704:	0f b6 00             	movzbl (%rax),%eax
   11707:	0f be c0             	movsbl %al,%eax
   1170a:	21 f0                	and    %esi,%eax
   1170c:	89 85 44 f3 ff ff    	mov    %eax,-0xcbc(%rbp)
   11712:	48 8b 05 a7 ec 00 00 	mov    0xeca7(%rip),%rax        # 203c0 <g_310>
   11719:	48 8b 95 30 f0 ff ff 	mov    -0xfd0(%rbp),%rdx
   11720:	48 89 10             	mov    %rdx,(%rax)
   11723:	48 c7 85 18 f1 ff ff 	movq   $0x0,-0xee8(%rbp)
   1172a:	00 00 00 00 
   1172e:	e9 82 08 00 00       	jmpq   11fb5 <func_80+0x11fe>
   11733:	48 8d 05 56 f3 00 00 	lea    0xf356(%rip),%rax        # 20a90 <g_541+0x270>
   1173a:	48 89 85 b0 f2 ff ff 	mov    %rax,-0xd50(%rbp)
   11741:	c7 85 b8 f0 ff ff b1 	movl   $0x26d20fb1,-0xf48(%rbp)
   11748:	0f d2 26 
   1174b:	c7 85 bc f0 ff ff 15 	movl   $0x7dba4e15,-0xf44(%rbp)
   11752:	4e ba 7d 
   11755:	48 8d 05 34 f3 00 00 	lea    0xf334(%rip),%rax        # 20a90 <g_541+0x270>
   1175c:	48 89 85 08 f1 ff ff 	mov    %rax,-0xef8(%rbp)
   11763:	48 8d 85 08 f1 ff ff 	lea    -0xef8(%rbp),%rax
   1176a:	48 89 85 b0 f3 ff ff 	mov    %rax,-0xc50(%rbp)
   11771:	48 c7 85 b8 f3 ff ff 	movq   $0x0,-0xc48(%rbp)
   11778:	00 00 00 00 
   1177c:	48 c7 85 c0 f3 ff ff 	movq   $0x0,-0xc40(%rbp)
   11783:	00 00 00 00 
   11787:	48 8d 85 08 f1 ff ff 	lea    -0xef8(%rbp),%rax
   1178e:	48 89 85 c8 f3 ff ff 	mov    %rax,-0xc38(%rbp)
   11795:	48 c7 85 d0 f3 ff ff 	movq   $0x0,-0xc30(%rbp)
   1179c:	00 00 00 00 
   117a0:	48 c7 85 d8 f3 ff ff 	movq   $0x0,-0xc28(%rbp)
   117a7:	00 00 00 00 
   117ab:	48 8d 85 08 f1 ff ff 	lea    -0xef8(%rbp),%rax
   117b2:	48 89 85 e0 f3 ff ff 	mov    %rax,-0xc20(%rbp)
   117b9:	48 c7 85 e8 f3 ff ff 	movq   $0x0,-0xc18(%rbp)
   117c0:	00 00 00 00 
   117c4:	48 8d 85 b0 f3 ff ff 	lea    -0xc50(%rbp),%rax
   117cb:	48 83 c0 18          	add    $0x18,%rax
   117cf:	48 89 85 10 f1 ff ff 	mov    %rax,-0xef0(%rbp)
   117d6:	48 b8 92 98 f5 be 77 	movabs $0xb833e977bef59892,%rax
   117dd:	e9 33 b8 
   117e0:	48 89 85 b8 f2 ff ff 	mov    %rax,-0xd48(%rbp)
   117e7:	48 8b 05 d2 f6 00 00 	mov    0xf6d2(%rip),%rax        # 20ec0 <g_1333>
   117ee:	48 8b 95 a8 f1 ff ff 	mov    -0xe58(%rbp),%rdx
   117f5:	48 89 10             	mov    %rdx,(%rax)
   117f8:	48 8b 00             	mov    (%rax),%rax
   117fb:	48 39 85 b0 f2 ff ff 	cmp    %rax,-0xd50(%rbp)
   11802:	0f 84 0c 04 00 00    	je     11c14 <func_80+0xe5d>
   11808:	48 8d 85 f8 f0 ff ff 	lea    -0xf08(%rbp),%rax
   1180f:	48 89 85 d0 f2 ff ff 	mov    %rax,-0xd30(%rbp)
   11816:	c7 85 c4 f0 ff ff 3c 	movl   $0x85ecd63c,-0xf3c(%rbp)
   1181d:	d6 ec 85 
   11820:	c7 85 c8 f0 ff ff fc 	movl   $0xfffffffc,-0xf38(%rbp)
   11827:	ff ff ff 
   1182a:	48 8d 05 67 d1 00 00 	lea    0xd167(%rip),%rax        # 1e998 <g_1127>
   11831:	48 89 85 d8 f2 ff ff 	mov    %rax,-0xd28(%rbp)
   11838:	48 8d 85 70 f3 ff ff 	lea    -0xc90(%rbp),%rax
   1183f:	48 83 c0 10          	add    $0x10,%rax
   11843:	48 89 85 e0 f2 ff ff 	mov    %rax,-0xd20(%rbp)
   1184a:	0f be 9d 38 f0 ff ff 	movsbl -0xfc8(%rbp),%ebx
   11851:	48 8b 85 18 f1 ff ff 	mov    -0xee8(%rbp),%rax
   11858:	44 8b a4 85 40 f3 ff 	mov    -0xcc0(%rbp,%rax,4),%r12d
   1185f:	ff 
   11860:	48 8b 95 f8 f0 ff ff 	mov    -0xf08(%rbp),%rdx
   11867:	48 8b 85 d0 f2 ff ff 	mov    -0xd30(%rbp),%rax
   1186e:	48 89 10             	mov    %rdx,(%rax)
   11871:	48 8b 85 d0 f2 ff ff 	mov    -0xd30(%rbp),%rax
   11878:	48 8b 00             	mov    (%rax),%rax
   1187b:	48 85 c0             	test   %rax,%rax
   1187e:	0f 95 c0             	setne  %al
   11881:	44 0f b6 e8          	movzbl %al,%r13d
   11885:	0f be 95 38 f0 ff ff 	movsbl -0xfc8(%rbp),%edx
   1188c:	8b 85 2c f0 ff ff    	mov    -0xfd4(%rbp),%eax
   11892:	98                   	cwtl   
   11893:	89 d6                	mov    %edx,%esi
   11895:	89 c7                	mov    %eax,%edi
   11897:	e8 45 6c ff ff       	callq  84e1 <safe_lshift_func_int16_t_s_u>
   1189c:	98                   	cwtl   
   1189d:	39 85 b8 f0 ff ff    	cmp    %eax,-0xf48(%rbp)
   118a3:	7c 07                	jl     118ac <func_80+0xaf5>
   118a5:	b8 01 00 00 00       	mov    $0x1,%eax
   118aa:	eb 05                	jmp    118b1 <func_80+0xafa>
   118ac:	b8 00 00 00 00       	mov    $0x0,%eax
   118b1:	44 39 e8             	cmp    %r13d,%eax
   118b4:	0f 9c c0             	setl   %al
   118b7:	0f b6 c0             	movzbl %al,%eax
   118ba:	41 39 c4             	cmp    %eax,%r12d
   118bd:	7d 07                	jge    118c6 <func_80+0xb0f>
   118bf:	ba 7b 00 00 00       	mov    $0x7b,%edx
   118c4:	eb 05                	jmp    118cb <func_80+0xb14>
   118c6:	ba 7a 00 00 00       	mov    $0x7a,%edx
   118cb:	8b 85 2c f0 ff ff    	mov    -0xfd4(%rbp),%eax
   118d1:	09 d0                	or     %edx,%eax
   118d3:	0f be c0             	movsbl %al,%eax
   118d6:	89 de                	mov    %ebx,%esi
   118d8:	89 c7                	mov    %eax,%edi
   118da:	e8 8b 69 ff ff       	callq  826a <safe_div_func_int8_t_s_s>
   118df:	48 8d 15 be d0 00 00 	lea    0xd0be(%rip),%rdx        # 1e9a4 <g_1199>
   118e6:	0f be c0             	movsbl %al,%eax
   118e9:	89 02                	mov    %eax,(%rdx)
   118eb:	0f b7 05 ce d0 00 00 	movzwl 0xd0ce(%rip),%eax        # 1e9c0 <g_1645>
   118f2:	83 c0 01             	add    $0x1,%eax
   118f5:	66 89 05 c4 d0 00 00 	mov    %ax,0xd0c4(%rip)        # 1e9c0 <g_1645>
   118fc:	8b 85 a4 f0 ff ff    	mov    -0xf5c(%rbp),%eax
   11902:	0b 85 ac f0 ff ff    	or     -0xf54(%rbp),%eax
   11908:	89 c2                	mov    %eax,%edx
   1190a:	48 8d 05 93 d0 00 00 	lea    0xd093(%rip),%rax        # 1e9a4 <g_1199>
   11911:	89 10                	mov    %edx,(%rax)
   11913:	8b 05 37 ff 00 00    	mov    0xff37(%rip),%eax        # 21850 <g_149>
   11919:	8d 70 03             	lea    0x3(%rax),%esi
   1191c:	0f b6 05 01 c0 00 00 	movzbl 0xc001(%rip),%eax        # 1d924 <g_281>
   11923:	0f be c0             	movsbl %al,%eax
   11926:	83 c0 01             	add    $0x1,%eax
   11929:	48 63 c8             	movslq %eax,%rcx
   1192c:	48 8b 95 18 f1 ff ff 	mov    -0xee8(%rbp),%rdx
   11933:	48 63 f6             	movslq %esi,%rsi
   11936:	48 89 d0             	mov    %rdx,%rax
   11939:	48 01 c0             	add    %rax,%rax
   1193c:	48 01 d0             	add    %rdx,%rax
   1193f:	48 01 c0             	add    %rax,%rax
   11942:	48 01 f0             	add    %rsi,%rax
   11945:	48 c1 e0 02          	shl    $0x2,%rax
   11949:	48 01 c8             	add    %rcx,%rax
   1194c:	48 8d 14 00          	lea    (%rax,%rax,1),%rdx
   11950:	48 8d 05 69 c7 00 00 	lea    0xc769(%rip),%rax        # 1e0c0 <g_417>
   11957:	0f b7 04 02          	movzwl (%rdx,%rax,1),%eax
   1195b:	44 0f b7 e0          	movzwl %ax,%r12d
   1195f:	48 8b 85 d0 f0 ff ff 	mov    -0xf30(%rbp),%rax
   11966:	48 8b 00             	mov    (%rax),%rax
   11969:	48 8b 00             	mov    (%rax),%rax
   1196c:	48 8b 18             	mov    (%rax),%rbx
   1196f:	83 bd 88 f0 ff ff 00 	cmpl   $0x0,-0xf78(%rbp)
   11976:	0f 85 1e 02 00 00    	jne    11b9a <func_80+0xde3>
   1197c:	48 8b 05 95 f1 00 00 	mov    0xf195(%rip),%rax        # 20b18 <g_949>
   11983:	4c 8b 28             	mov    (%rax),%r13
   11986:	44 8b b5 a8 f0 ff ff 	mov    -0xf58(%rbp),%r14d
   1198d:	48 8b 85 18 f1 ff ff 	mov    -0xee8(%rbp),%rax
   11994:	48 8d 50 06          	lea    0x6(%rax),%rdx
   11998:	8b 85 3c f0 ff ff    	mov    -0xfc4(%rbp),%eax
   1199e:	8d 70 01             	lea    0x1(%rax),%esi
   119a1:	0f b6 05 7c bf 00 00 	movzbl 0xbf7c(%rip),%eax        # 1d924 <g_281>
   119a8:	0f be c0             	movsbl %al,%eax
   119ab:	83 c0 01             	add    $0x1,%eax
   119ae:	48 63 c8             	movslq %eax,%rcx
   119b1:	89 f6                	mov    %esi,%esi
   119b3:	48 89 d0             	mov    %rdx,%rax
   119b6:	48 01 c0             	add    %rax,%rax
   119b9:	48 01 d0             	add    %rdx,%rax
   119bc:	48 01 c0             	add    %rax,%rax
   119bf:	48 01 f0             	add    %rsi,%rax
   119c2:	48 c1 e0 02          	shl    $0x2,%rax
   119c6:	48 01 c8             	add    %rcx,%rax
   119c9:	48 8d 14 00          	lea    (%rax,%rax,1),%rdx
   119cd:	48 8d 05 ec c6 00 00 	lea    0xc6ec(%rip),%rax        # 1e0c0 <g_417>
   119d4:	0f b7 04 02          	movzwl (%rdx,%rax,1),%eax
   119d8:	44 0f b7 f8          	movzwl %ax,%r15d
   119dc:	48 8b 05 7d f3 00 00 	mov    0xf37d(%rip),%rax        # 20d60 <g_961>
   119e3:	48 8b 00             	mov    (%rax),%rax
   119e6:	8b 15 64 fe 00 00    	mov    0xfe64(%rip),%edx        # 21850 <g_149>
   119ec:	8d 72 04             	lea    0x4(%rdx),%esi
   119ef:	8b 95 3c f0 ff ff    	mov    -0xfc4(%rbp),%edx
   119f5:	44 8d 4a 05          	lea    0x5(%rdx),%r9d
   119f9:	0f b6 38             	movzbl (%rax),%edi
   119fc:	45 89 c8             	mov    %r9d,%r8d
   119ff:	8b 95 3c f0 ff ff    	mov    -0xfc4(%rbp),%edx
   11a05:	48 63 ce             	movslq %esi,%rcx
   11a08:	48 89 d0             	mov    %rdx,%rax
   11a0b:	48 c1 e0 03          	shl    $0x3,%rax
   11a0f:	48 29 d0             	sub    %rdx,%rax
   11a12:	48 c1 e0 03          	shl    $0x3,%rax
   11a16:	48 89 ca             	mov    %rcx,%rdx
   11a19:	48 c1 e2 03          	shl    $0x3,%rdx
   11a1d:	48 29 ca             	sub    %rcx,%rdx
   11a20:	48 01 d0             	add    %rdx,%rax
   11a23:	4a 8d 14 00          	lea    (%rax,%r8,1),%rdx
   11a27:	48 8d 05 32 cd 00 00 	lea    0xcd32(%rip),%rax        # 1e760 <g_653>
   11a2e:	48 01 d0             	add    %rdx,%rax
   11a31:	40 88 38             	mov    %dil,(%rax)
   11a34:	44 89 cf             	mov    %r9d,%edi
   11a37:	8b 95 3c f0 ff ff    	mov    -0xfc4(%rbp),%edx
   11a3d:	48 63 ce             	movslq %esi,%rcx
   11a40:	48 89 d0             	mov    %rdx,%rax
   11a43:	48 c1 e0 03          	shl    $0x3,%rax
   11a47:	48 29 d0             	sub    %rdx,%rax
   11a4a:	48 c1 e0 03          	shl    $0x3,%rax
   11a4e:	48 89 ca             	mov    %rcx,%rdx
   11a51:	48 c1 e2 03          	shl    $0x3,%rdx
   11a55:	48 29 ca             	sub    %rcx,%rdx
   11a58:	48 01 d0             	add    %rdx,%rax
   11a5b:	48 8d 14 38          	lea    (%rax,%rdi,1),%rdx
   11a5f:	48 8d 05 fa cc 00 00 	lea    0xccfa(%rip),%rax        # 1e760 <g_653>
   11a66:	48 01 d0             	add    %rdx,%rax
   11a69:	0f b6 00             	movzbl (%rax),%eax
   11a6c:	88 85 28 f0 ff ff    	mov    %al,-0xfd8(%rbp)
   11a72:	48 8b 85 10 f1 ff ff 	mov    -0xef0(%rbp),%rax
   11a79:	48 39 85 a8 f2 ff ff 	cmp    %rax,-0xd58(%rbp)
   11a80:	0f 95 c0             	setne  %al
   11a83:	0f b6 c0             	movzbl %al,%eax
   11a86:	be ff ff ff ff       	mov    $0xffffffff,%esi
   11a8b:	89 c7                	mov    %eax,%edi
   11a8d:	e8 d8 67 ff ff       	callq  826a <safe_div_func_int8_t_s_s>
   11a92:	38 85 28 f0 ff ff    	cmp    %al,-0xfd8(%rbp)
   11a98:	0f 95 c0             	setne  %al
   11a9b:	0f b6 c0             	movzbl %al,%eax
   11a9e:	44 89 fe             	mov    %r15d,%esi
   11aa1:	89 c7                	mov    %eax,%edi
   11aa3:	e8 16 73 ff ff       	callq  8dbe <safe_lshift_func_uint16_t_u_s>
   11aa8:	48 8b 95 00 f3 ff ff 	mov    -0xd00(%rbp),%rdx
   11aaf:	48 8b 05 d2 f2 00 00 	mov    0xf2d2(%rip),%rax        # 20d88 <g_1175>
   11ab6:	8b 00                	mov    (%rax),%eax
   11ab8:	83 f8 01             	cmp    $0x1,%eax
   11abb:	0f 95 c0             	setne  %al
   11abe:	0f b6 c0             	movzbl %al,%eax
   11ac1:	0b 85 ac f0 ff ff    	or     -0xf54(%rbp),%eax
   11ac7:	89 c0                	mov    %eax,%eax
   11ac9:	48 39 c2             	cmp    %rax,%rdx
   11acc:	0f 95 c0             	setne  %al
   11acf:	0f b6 d0             	movzbl %al,%edx
   11ad2:	48 8b 05 2f f0 00 00 	mov    0xf02f(%rip),%rax        # 20b08 <g_793>
   11ad9:	0f b6 00             	movzbl (%rax),%eax
   11adc:	89 c1                	mov    %eax,%ecx
   11ade:	89 d0                	mov    %edx,%eax
   11ae0:	09 c1                	or     %eax,%ecx
   11ae2:	89 ca                	mov    %ecx,%edx
   11ae4:	48 8b 05 1d f0 00 00 	mov    0xf01d(%rip),%rax        # 20b08 <g_793>
   11aeb:	88 10                	mov    %dl,(%rax)
   11aed:	0f b6 00             	movzbl (%rax),%eax
   11af0:	0f b6 d0             	movzbl %al,%edx
   11af3:	48 8b 0d c6 f3 00 00 	mov    0xf3c6(%rip),%rcx        # 20ec0 <g_1333>
   11afa:	48 8b 05 bf f3 00 00 	mov    0xf3bf(%rip),%rax        # 20ec0 <g_1333>
   11b01:	48 8b 09             	mov    (%rcx),%rcx
   11b04:	48 89 08             	mov    %rcx,(%rax)
   11b07:	48 8b 00             	mov    (%rax),%rax
   11b0a:	48 85 c0             	test   %rax,%rax
   11b0d:	0f 95 c0             	setne  %al
   11b10:	0f b6 c0             	movzbl %al,%eax
   11b13:	89 d6                	mov    %edx,%esi
   11b15:	89 c7                	mov    %eax,%edi
   11b17:	e8 d2 67 ff ff       	callq  82ee <safe_lshift_func_int8_t_s_u>
   11b1c:	84 c0                	test   %al,%al
   11b1e:	74 10                	je     11b30 <func_80+0xd79>
   11b20:	83 bd bc f0 ff ff 00 	cmpl   $0x0,-0xf44(%rbp)
   11b27:	74 07                	je     11b30 <func_80+0xd79>
   11b29:	b8 01 00 00 00       	mov    $0x1,%eax
   11b2e:	eb 05                	jmp    11b35 <func_80+0xd7e>
   11b30:	b8 00 00 00 00       	mov    $0x0,%eax
   11b35:	44 89 f6             	mov    %r14d,%esi
   11b38:	89 c7                	mov    %eax,%edi
   11b3a:	e8 e6 73 ff ff       	callq  8f25 <safe_div_func_uint32_t_u_u>
   11b3f:	0f be c0             	movsbl %al,%eax
   11b42:	be 10 00 00 00       	mov    $0x10,%esi
   11b47:	89 c7                	mov    %eax,%edi
   11b49:	e8 e3 66 ff ff       	callq  8231 <safe_mod_func_int8_t_s_s>
   11b4e:	0f be c0             	movsbl %al,%eax
   11b51:	8b 15 59 ce 00 00    	mov    0xce59(%rip),%edx        # 1e9b0 <g_1578>
   11b57:	89 c6                	mov    %eax,%esi
   11b59:	89 d7                	mov    %edx,%edi
   11b5b:	e8 58 73 ff ff       	callq  8eb8 <safe_add_func_uint32_t_u_u>
   11b60:	85 c0                	test   %eax,%eax
   11b62:	74 11                	je     11b75 <func_80+0xdbe>
   11b64:	8b 85 44 f3 ff ff    	mov    -0xcbc(%rbp),%eax
   11b6a:	85 c0                	test   %eax,%eax
   11b6c:	74 07                	je     11b75 <func_80+0xdbe>
   11b6e:	ba 01 00 00 00       	mov    $0x1,%edx
   11b73:	eb 05                	jmp    11b7a <func_80+0xdc3>
   11b75:	ba 00 00 00 00       	mov    $0x0,%edx
   11b7a:	48 8b 05 8f ef 00 00 	mov    0xef8f(%rip),%rax        # 20b10 <g_945>
   11b81:	48 63 d2             	movslq %edx,%rdx
   11b84:	48 89 10             	mov    %rdx,(%rax)
   11b87:	48 8b 00             	mov    (%rax),%rax
   11b8a:	4c 89 ee             	mov    %r13,%rsi
   11b8d:	48 89 c7             	mov    %rax,%rdi
   11b90:	e8 1a 75 ff ff       	callq  90af <safe_div_func_uint64_t_u_u>
   11b95:	48 85 c0             	test   %rax,%rax
   11b98:	74 07                	je     11ba1 <func_80+0xdea>
   11b9a:	b8 01 00 00 00       	mov    $0x1,%eax
   11b9f:	eb 05                	jmp    11ba6 <func_80+0xdef>
   11ba1:	b8 00 00 00 00       	mov    $0x0,%eax
   11ba6:	0f b7 d0             	movzwl %ax,%edx
   11ba9:	8b 85 44 f3 ff ff    	mov    -0xcbc(%rbp),%eax
   11baf:	0f b7 c0             	movzwl %ax,%eax
   11bb2:	89 d6                	mov    %edx,%esi
   11bb4:	89 c7                	mov    %eax,%edi
   11bb6:	e8 44 71 ff ff       	callq  8cff <safe_add_func_uint16_t_u_u>
   11bbb:	0f b7 d0             	movzwl %ax,%edx
   11bbe:	48 8b 85 d8 f2 ff ff 	mov    -0xd28(%rbp),%rax
   11bc5:	48 89 10             	mov    %rdx,(%rax)
   11bc8:	48 8b 85 d8 f2 ff ff 	mov    -0xd28(%rbp),%rax
   11bcf:	48 8b 00             	mov    (%rax),%rax
   11bd2:	48 8b 95 30 f1 ff ff 	mov    -0xed0(%rbp),%rdx
   11bd9:	49 89 d0             	mov    %rdx,%r8
   11bdc:	44 89 e1             	mov    %r12d,%ecx
   11bdf:	48 8d 15 ba b9 00 00 	lea    0xb9ba(%rip),%rdx        # 1d5a0 <g_90+0x500>
   11be6:	48 89 de             	mov    %rbx,%rsi
   11be9:	48 89 c7             	mov    %rax,%rdi
   11bec:	e8 ea 20 00 00       	callq  13cdb <func_92>
   11bf1:	48 8b 95 e0 f2 ff ff 	mov    -0xd20(%rbp),%rdx
   11bf8:	48 89 02             	mov    %rax,(%rdx)
   11bfb:	48 8b 05 be e7 00 00 	mov    0xe7be(%rip),%rax        # 203c0 <g_310>
   11c02:	48 8b 95 e0 f2 ff ff 	mov    -0xd20(%rbp),%rdx
   11c09:	48 8b 12             	mov    (%rdx),%rdx
   11c0c:	48 89 10             	mov    %rdx,(%rax)
   11c0f:	e9 99 03 00 00       	jmpq   11fad <func_80+0x11f6>
   11c14:	c7 85 c0 f0 ff ff 00 	movl   $0x0,-0xf40(%rbp)
   11c1b:	00 00 00 
   11c1e:	48 8d 85 50 f0 ff ff 	lea    -0xfb0(%rbp),%rax
   11c25:	48 89 85 c0 f2 ff ff 	mov    %rax,-0xd40(%rbp)
   11c2c:	48 8d 85 50 f8 ff ff 	lea    -0x7b0(%rbp),%rax
   11c33:	48 89 85 c8 f2 ff ff 	mov    %rax,-0xd38(%rbp)
   11c3a:	8b 9d 3c f0 ff ff    	mov    -0xfc4(%rbp),%ebx
   11c40:	48 8b 05 51 cd 00 00 	mov    0xcd51(%rip),%rax        # 1e998 <g_1127>
   11c47:	89 85 28 f0 ff ff    	mov    %eax,-0xfd8(%rbp)
   11c4d:	48 8b 05 5c e7 00 00 	mov    0xe75c(%rip),%rax        # 203b0 <g_309>
   11c54:	0f b7 00             	movzwl (%rax),%eax
   11c57:	44 0f bf e0          	movswl %ax,%r12d
   11c5b:	48 8b 05 be f2 00 00 	mov    0xf2be(%rip),%rax        # 20f20 <g_1548>
   11c62:	4c 8b 38             	mov    (%rax),%r15
   11c65:	8b 85 2c f0 ff ff    	mov    -0xfd4(%rbp),%eax
   11c6b:	44 0f be e8          	movsbl %al,%r13d
   11c6f:	8b 85 2c f0 ff ff    	mov    -0xfd4(%rbp),%eax
   11c75:	44 0f b7 f0          	movzwl %ax,%r14d
   11c79:	48 8b 05 88 ee 00 00 	mov    0xee88(%rip),%rax        # 20b08 <g_793>
   11c80:	0f b6 00             	movzbl (%rax),%eax
   11c83:	0f be d0             	movsbl %al,%edx
   11c86:	48 8b 05 a3 f2 00 00 	mov    0xf2a3(%rip),%rax        # 20f30 <g_1691>
   11c8d:	48 89 85 c0 f6 ff ff 	mov    %rax,-0x940(%rbp)
   11c94:	48 8b 8d c0 f6 ff ff 	mov    -0x940(%rbp),%rcx
   11c9b:	48 8d 85 10 f1 ff ff 	lea    -0xef0(%rbp),%rax
   11ca2:	48 39 c1             	cmp    %rax,%rcx
   11ca5:	0f 95 c0             	setne  %al
   11ca8:	0f b6 c0             	movzbl %al,%eax
   11cab:	89 d6                	mov    %edx,%esi
   11cad:	89 c7                	mov    %eax,%edi
   11caf:	e8 20 65 ff ff       	callq  81d4 <safe_add_func_int8_t_s_s>
   11cb4:	66 98                	cbtw   
   11cb6:	0f b7 c0             	movzwl %ax,%eax
   11cb9:	44 89 f6             	mov    %r14d,%esi
   11cbc:	89 c7                	mov    %eax,%edi
   11cbe:	e8 99 70 ff ff       	callq  8d5c <safe_mod_func_uint16_t_u_u>
   11cc3:	0f be c0             	movsbl %al,%eax
   11cc6:	44 89 ee             	mov    %r13d,%esi
   11cc9:	89 c7                	mov    %eax,%edi
   11ccb:	e8 42 65 ff ff       	callq  8212 <safe_mul_func_int8_t_s_s>
   11cd0:	0f be c0             	movsbl %al,%eax
   11cd3:	be 0a 00 00 00       	mov    $0xa,%esi
   11cd8:	89 c7                	mov    %eax,%edi
   11cda:	e8 4b 68 ff ff       	callq  852a <safe_rshift_func_int16_t_s_s>
   11cdf:	98                   	cwtl   
   11ce0:	39 85 2c f0 ff ff    	cmp    %eax,-0xfd4(%rbp)
   11ce6:	0f 97 c0             	seta   %al
   11ce9:	0f b6 c0             	movzbl %al,%eax
   11cec:	49 39 c7             	cmp    %rax,%r15
   11cef:	0f 9d c0             	setge  %al
   11cf2:	0f b6 d0             	movzbl %al,%edx
   11cf5:	48 8b 85 30 f0 ff ff 	mov    -0xfd0(%rbp),%rax
   11cfc:	8b 00                	mov    (%rax),%eax
   11cfe:	39 c2                	cmp    %eax,%edx
   11d00:	0f 9d c0             	setge  %al
   11d03:	0f b6 c0             	movzbl %al,%eax
   11d06:	44 89 e6             	mov    %r12d,%esi
   11d09:	89 c7                	mov    %eax,%edi
   11d0b:	e8 06 67 ff ff       	callq  8416 <safe_mod_func_int16_t_s_s>
   11d10:	0f bf d0             	movswl %ax,%edx
   11d13:	48 8b 85 c0 f2 ff ff 	mov    -0xd40(%rbp),%rax
   11d1a:	89 10                	mov    %edx,(%rax)
   11d1c:	8b 85 2c f0 ff ff    	mov    -0xfd4(%rbp),%eax
   11d22:	83 c8 01             	or     $0x1,%eax
   11d25:	8b b5 28 f0 ff ff    	mov    -0xfd8(%rbp),%esi
   11d2b:	89 c7                	mov    %eax,%edi
   11d2d:	e8 cd 69 ff ff       	callq  86ff <safe_div_func_int32_t_s_s>
   11d32:	39 85 c0 f0 ff ff    	cmp    %eax,-0xf40(%rbp)
   11d38:	0f 96 c0             	setbe  %al
   11d3b:	0f b6 d0             	movzbl %al,%edx
   11d3e:	48 8b 05 bb ed 00 00 	mov    0xedbb(%rip),%rax        # 20b00 <g_772>
   11d45:	48 8b 00             	mov    (%rax),%rax
   11d48:	48 8b 00             	mov    (%rax),%rax
   11d4b:	0f b7 00             	movzwl (%rax),%eax
   11d4e:	98                   	cwtl   
   11d4f:	39 c2                	cmp    %eax,%edx
   11d51:	0f 9d c0             	setge  %al
   11d54:	0f b6 c0             	movzbl %al,%eax
   11d57:	89 85 48 f3 ff ff    	mov    %eax,-0xcb8(%rbp)
   11d5d:	48 8b 85 d8 f0 ff ff 	mov    -0xf28(%rbp),%rax
   11d64:	48 85 c0             	test   %rax,%rax
   11d67:	0f 95 c0             	setne  %al
   11d6a:	0f b6 c0             	movzbl %al,%eax
   11d6d:	48 89 de             	mov    %rbx,%rsi
   11d70:	48 89 c7             	mov    %rax,%rdi
   11d73:	e8 30 6b ff ff       	callq  88a8 <safe_sub_func_int64_t_s_s>
   11d78:	89 c2                	mov    %eax,%edx
   11d7a:	0f be 85 38 f0 ff ff 	movsbl -0xfc8(%rbp),%eax
   11d81:	31 d0                	xor    %edx,%eax
   11d83:	89 c2                	mov    %eax,%edx
   11d85:	8b 85 c0 f0 ff ff    	mov    -0xf40(%rbp),%eax
   11d8b:	0f b6 c0             	movzbl %al,%eax
   11d8e:	89 d6                	mov    %edx,%esi
   11d90:	89 c7                	mov    %eax,%edi
   11d92:	e8 b5 6e ff ff       	callq  8c4c <safe_lshift_func_uint8_t_u_u>
   11d97:	48 8b 85 70 f8 ff ff 	mov    -0x790(%rbp),%rax
   11d9e:	48 85 c0             	test   %rax,%rax
   11da1:	0f 95 c0             	setne  %al
   11da4:	0f b6 d0             	movzbl %al,%edx
   11da7:	48 8b 85 90 f1 ff ff 	mov    -0xe70(%rbp),%rax
   11dae:	8b 00                	mov    (%rax),%eax
   11db0:	31 c2                	xor    %eax,%edx
   11db2:	48 8b 85 90 f1 ff ff 	mov    -0xe70(%rbp),%rax
   11db9:	89 10                	mov    %edx,(%rax)
   11dbb:	48 8b 15 5e f1 00 00 	mov    0xf15e(%rip),%rdx        # 20f20 <g_1548>
   11dc2:	48 8b 05 57 f1 00 00 	mov    0xf157(%rip),%rax        # 20f20 <g_1548>
   11dc9:	48 8b 12             	mov    (%rdx),%rdx
   11dcc:	48 89 10             	mov    %rdx,(%rax)
   11dcf:	8b 85 3c f0 ff ff    	mov    -0xfc4(%rbp),%eax
   11dd5:	0f b7 d0             	movzwl %ax,%edx
   11dd8:	8b 85 b8 f0 ff ff    	mov    -0xf48(%rbp),%eax
   11dde:	0f b7 c0             	movzwl %ax,%eax
   11de1:	89 d6                	mov    %edx,%esi
   11de3:	89 c7                	mov    %eax,%edi
   11de5:	e8 35 6f ff ff       	callq  8d1f <safe_sub_func_uint16_t_u_u>
   11dea:	0f b7 c0             	movzwl %ax,%eax
   11ded:	39 85 3c f0 ff ff    	cmp    %eax,-0xfc4(%rbp)
   11df3:	0f 84 31 01 00 00    	je     11f2a <func_80+0x1173>
   11df9:	8b 05 51 fa 00 00    	mov    0xfa51(%rip),%eax        # 21850 <g_149>
   11dff:	8d 48 06             	lea    0x6(%rax),%ecx
   11e02:	0f b6 05 1b bb 00 00 	movzbl 0xbb1b(%rip),%eax        # 1d924 <g_281>
   11e09:	0f be c0             	movsbl %al,%eax
   11e0c:	83 c0 01             	add    $0x1,%eax
   11e0f:	48 63 f0             	movslq %eax,%rsi
   11e12:	8b 95 3c f0 ff ff    	mov    -0xfc4(%rbp),%edx
   11e18:	48 63 c9             	movslq %ecx,%rcx
   11e1b:	48 89 d0             	mov    %rdx,%rax
   11e1e:	48 c1 e0 03          	shl    $0x3,%rax
   11e22:	48 29 d0             	sub    %rdx,%rax
   11e25:	48 c1 e0 03          	shl    $0x3,%rax
   11e29:	48 89 ca             	mov    %rcx,%rdx
   11e2c:	48 c1 e2 03          	shl    $0x3,%rdx
   11e30:	48 29 ca             	sub    %rcx,%rdx
   11e33:	48 01 d0             	add    %rdx,%rax
   11e36:	48 8d 14 30          	lea    (%rax,%rsi,1),%rdx
   11e3a:	48 8d 05 1f c9 00 00 	lea    0xc91f(%rip),%rax        # 1e760 <g_653>
   11e41:	48 01 d0             	add    %rdx,%rax
   11e44:	0f b6 00             	movzbl (%rax),%eax
   11e47:	66 98                	cbtw   
   11e49:	0f b7 d8             	movzwl %ax,%ebx
   11e4c:	48 8b 85 c8 f2 ff ff 	mov    -0xd38(%rbp),%rax
   11e53:	48 8d 95 d8 f0 ff ff 	lea    -0xf28(%rbp),%rdx
   11e5a:	48 89 10             	mov    %rdx,(%rax)
   11e5d:	48 8b 85 c8 f2 ff ff 	mov    -0xd38(%rbp),%rax
   11e64:	48 8b 10             	mov    (%rax),%rdx
   11e67:	48 8d 85 e8 f0 ff ff 	lea    -0xf18(%rbp),%rax
   11e6e:	48 39 c2             	cmp    %rax,%rdx
   11e71:	0f 95 c0             	setne  %al
   11e74:	44 0f b6 e0          	movzbl %al,%r12d
   11e78:	48 8d 05 25 cb 00 00 	lea    0xcb25(%rip),%rax        # 1e9a4 <g_1199>
   11e7f:	8b 00                	mov    (%rax),%eax
   11e81:	89 c6                	mov    %eax,%esi
   11e83:	bf 02 00 00 00       	mov    $0x2,%edi
   11e88:	e8 3f 68 ff ff       	callq  86cc <safe_mod_func_int32_t_s_s>
   11e8d:	41 39 c4             	cmp    %eax,%r12d
   11e90:	0f 9c c0             	setl   %al
   11e93:	0f b6 c0             	movzbl %al,%eax
   11e96:	39 85 2c f0 ff ff    	cmp    %eax,-0xfd4(%rbp)
   11e9c:	0f 97 c0             	seta   %al
   11e9f:	0f b6 c0             	movzbl %al,%eax
   11ea2:	be bb e3 00 00       	mov    $0xe3bb,%esi
   11ea7:	89 c7                	mov    %eax,%edi
   11ea9:	e8 51 6e ff ff       	callq  8cff <safe_add_func_uint16_t_u_u>
   11eae:	48 8b 05 53 ec 00 00 	mov    0xec53(%rip),%rax        # 20b08 <g_793>
   11eb5:	0f b6 00             	movzbl (%rax),%eax
   11eb8:	84 c0                	test   %al,%al
   11eba:	74 07                	je     11ec3 <func_80+0x110c>
   11ebc:	ba 01 00 00 00       	mov    $0x1,%edx
   11ec1:	eb 05                	jmp    11ec8 <func_80+0x1111>
   11ec3:	ba 00 00 00 00       	mov    $0x0,%edx
   11ec8:	0f b6 45 bc          	movzbl -0x44(%rbp),%eax
   11ecc:	0f b6 c0             	movzbl %al,%eax
   11ecf:	48 63 d2             	movslq %edx,%rdx
   11ed2:	48 31 95 b8 f2 ff ff 	xor    %rdx,-0xd48(%rbp)
   11ed9:	48 39 85 b8 f2 ff ff 	cmp    %rax,-0xd48(%rbp)
   11ee0:	0f 95 c0             	setne  %al
   11ee3:	0f b6 c0             	movzbl %al,%eax
   11ee6:	48 c7 c6 fe ff ff ff 	mov    $0xfffffffffffffffe,%rsi
   11eed:	48 89 c7             	mov    %rax,%rdi
   11ef0:	e8 39 71 ff ff       	callq  902e <safe_add_func_uint64_t_u_u>
   11ef5:	0f be c0             	movsbl %al,%eax
   11ef8:	be 04 00 00 00       	mov    $0x4,%esi
   11efd:	89 c7                	mov    %eax,%edi
   11eff:	e8 9d 63 ff ff       	callq  82a1 <safe_lshift_func_int8_t_s_s>
   11f04:	66 98                	cbtw   
   11f06:	0f b7 c0             	movzwl %ax,%eax
   11f09:	89 de                	mov    %ebx,%esi
   11f0b:	89 c7                	mov    %eax,%edi
   11f0d:	e8 2b 6e ff ff       	callq  8d3d <safe_mul_func_uint16_t_u_u>
   11f12:	0f b7 c0             	movzwl %ax,%eax
   11f15:	be 0c 46 00 00       	mov    $0x460c,%esi
   11f1a:	89 c7                	mov    %eax,%edi
   11f1c:	e8 6d 6e ff ff       	callq  8d8e <safe_div_func_uint16_t_u_u>
   11f21:	0f b7 c0             	movzwl %ax,%eax
   11f24:	39 85 2c f0 ff ff    	cmp    %eax,-0xfd4(%rbp)
   11f2a:	48 8b 05 d7 eb 00 00 	mov    0xebd7(%rip),%rax        # 20b08 <g_793>
   11f31:	0f b6 00             	movzbl (%rax),%eax
   11f34:	84 c0                	test   %al,%al
   11f36:	74 07                	je     11f3f <func_80+0x1188>
   11f38:	83 bd 2c f0 ff ff 00 	cmpl   $0x0,-0xfd4(%rbp)
   11f3f:	48 8b 85 10 f1 ff ff 	mov    -0xef0(%rbp),%rax
   11f46:	48 8b 00             	mov    (%rax),%rax
   11f49:	48 85 c0             	test   %rax,%rax
   11f4c:	0f 95 c0             	setne  %al
   11f4f:	0f b6 c0             	movzbl %al,%eax
   11f52:	be 00 00 00 00       	mov    $0x0,%esi
   11f57:	89 c7                	mov    %eax,%edi
   11f59:	e8 90 63 ff ff       	callq  82ee <safe_lshift_func_int8_t_s_u>
   11f5e:	84 c0                	test   %al,%al
   11f60:	75 17                	jne    11f79 <func_80+0x11c2>
   11f62:	48 8b 05 07 ee 00 00 	mov    0xee07(%rip),%rax        # 20d70 <g_959>
   11f69:	48 8b 00             	mov    (%rax),%rax
   11f6c:	48 8b 00             	mov    (%rax),%rax
   11f6f:	48 8b 00             	mov    (%rax),%rax
   11f72:	0f b6 00             	movzbl (%rax),%eax
   11f75:	84 c0                	test   %al,%al
   11f77:	74 07                	je     11f80 <func_80+0x11c9>
   11f79:	ba 01 00 00 00       	mov    $0x1,%edx
   11f7e:	eb 05                	jmp    11f85 <func_80+0x11ce>
   11f80:	ba 00 00 00 00       	mov    $0x0,%edx
   11f85:	48 8b 85 90 f1 ff ff 	mov    -0xe70(%rbp),%rax
   11f8c:	89 10                	mov    %edx,(%rax)
   11f8e:	48 8b 15 2b e4 00 00 	mov    0xe42b(%rip),%rdx        # 203c0 <g_310>
   11f95:	48 8b 05 24 e4 00 00 	mov    0xe424(%rip),%rax        # 203c0 <g_310>
   11f9c:	48 8b 12             	mov    (%rdx),%rdx
   11f9f:	48 89 10             	mov    %rdx,(%rax)
   11fa2:	48 8b 85 30 f0 ff ff 	mov    -0xfd0(%rbp),%rax
   11fa9:	8b 00                	mov    (%rax),%eax
   11fab:	85 c0                	test   %eax,%eax
   11fad:	48 83 85 18 f1 ff ff 	addq   $0x1,-0xee8(%rbp)
   11fb4:	01 
   11fb5:	48 83 bd 18 f1 ff ff 	cmpq   $0x2,-0xee8(%rbp)
   11fbc:	02 
   11fbd:	0f 86 70 f7 ff ff    	jbe    11733 <func_80+0x97c>
   11fc3:	c7 05 d7 c2 00 00 00 	movl   $0x0,0xc2d7(%rip)        # 1e2a4 <g_451>
   11fca:	00 00 00 
   11fcd:	eb 28                	jmp    11ff7 <func_80+0x1240>
   11fcf:	c7 85 b4 f0 ff ff 00 	movl   $0x0,-0xf4c(%rbp)
   11fd6:	00 00 00 
   11fd9:	8b 95 b4 f0 ff ff    	mov    -0xf4c(%rbp),%edx
   11fdf:	48 8b 85 90 f1 ff ff 	mov    -0xe70(%rbp),%rax
   11fe6:	89 10                	mov    %edx,(%rax)
   11fe8:	8b 05 b6 c2 00 00    	mov    0xc2b6(%rip),%eax        # 1e2a4 <g_451>
   11fee:	83 c0 01             	add    $0x1,%eax
   11ff1:	89 05 ad c2 00 00    	mov    %eax,0xc2ad(%rip)        # 1e2a4 <g_451>
   11ff7:	8b 05 a7 c2 00 00    	mov    0xc2a7(%rip),%eax        # 1e2a4 <g_451>
   11ffd:	85 c0                	test   %eax,%eax
   11fff:	7e ce                	jle    11fcf <func_80+0x1218>
   12001:	8b 05 49 f8 00 00    	mov    0xf849(%rip),%eax        # 21850 <g_149>
   12007:	83 e8 01             	sub    $0x1,%eax
   1200a:	89 05 40 f8 00 00    	mov    %eax,0xf840(%rip)        # 21850 <g_149>
   12010:	8b 05 3a f8 00 00    	mov    0xf83a(%rip),%eax        # 21850 <g_149>
   12016:	85 c0                	test   %eax,%eax
   12018:	0f 89 58 f6 ff ff    	jns    11676 <func_80+0x8bf>
   1201e:	83 85 3c f0 ff ff 01 	addl   $0x1,-0xfc4(%rbp)
   12025:	83 bd 3c f0 ff ff 00 	cmpl   $0x0,-0xfc4(%rbp)
   1202c:	0f 84 ea f0 ff ff    	je     1111c <func_80+0x365>
   12032:	48 8b 85 b0 f1 ff ff 	mov    -0xe50(%rbp),%rax
   12039:	48 89 05 48 f8 00 00 	mov    %rax,0xf848(%rip)        # 21888 <g_1719>
   12040:	48 c7 05 55 b8 00 00 	movq   $0x0,0xb855(%rip)        # 1d8a0 <g_187>
   12047:	00 00 00 00 
   1204b:	e9 17 03 00 00       	jmpq   12367 <func_80+0x15b0>
   12050:	48 c7 85 c0 f1 ff ff 	movq   $0xfffffffffffffffd,-0xe40(%rbp)
   12057:	fd ff ff ff 
   1205b:	c7 85 58 f0 ff ff 01 	movl   $0x1,-0xfa8(%rbp)
   12062:	00 00 00 
   12065:	48 8d 05 38 c9 00 00 	lea    0xc938(%rip),%rax        # 1e9a4 <g_1199>
   1206c:	8b 00                	mov    (%rax),%eax
   1206e:	85 c0                	test   %eax,%eax
   12070:	0f 85 04 03 00 00    	jne    1237a <func_80+0x15c3>
   12076:	c7 05 24 c2 00 00 00 	movl   $0x0,0xc224(%rip)        # 1e2a4 <g_451>
   1207d:	00 00 00 
   12080:	e9 a6 00 00 00       	jmpq   1212b <func_80+0x1374>
   12085:	c7 85 50 f0 ff ff 00 	movl   $0x0,-0xfb0(%rbp)
   1208c:	00 00 00 
   1208f:	eb 7c                	jmp    1210d <func_80+0x1356>
   12091:	c7 05 b9 f7 00 00 00 	movl   $0x0,0xf7b9(%rip)        # 21854 <g_201>
   12098:	00 00 00 
   1209b:	eb 56                	jmp    120f3 <func_80+0x133c>
   1209d:	8b 05 01 c2 00 00    	mov    0xc201(%rip),%eax        # 1e2a4 <g_451>
   120a3:	8b 8d 50 f0 ff ff    	mov    -0xfb0(%rbp),%ecx
   120a9:	8b 15 a5 f7 00 00    	mov    0xf7a5(%rip),%edx        # 21854 <g_201>
   120af:	89 d6                	mov    %edx,%esi
   120b1:	48 63 d0             	movslq %eax,%rdx
   120b4:	89 c9                	mov    %ecx,%ecx
   120b6:	48 89 d0             	mov    %rdx,%rax
   120b9:	48 c1 e0 02          	shl    $0x2,%rax
   120bd:	48 01 d0             	add    %rdx,%rax
   120c0:	48 01 c0             	add    %rax,%rax
   120c3:	48 89 ca             	mov    %rcx,%rdx
   120c6:	48 c1 e2 02          	shl    $0x2,%rdx
   120ca:	48 01 ca             	add    %rcx,%rdx
   120cd:	48 01 d0             	add    %rdx,%rax
   120d0:	48 01 f0             	add    %rsi,%rax
   120d3:	48 8d 14 00          	lea    (%rax,%rax,1),%rdx
   120d7:	48 8d 05 e2 b7 00 00 	lea    0xb7e2(%rip),%rax        # 1d8c0 <g_234>
   120de:	66 c7 04 02 c1 63    	movw   $0x63c1,(%rdx,%rax,1)
   120e4:	8b 05 6a f7 00 00    	mov    0xf76a(%rip),%eax        # 21854 <g_201>
   120ea:	83 c0 01             	add    $0x1,%eax
   120ed:	89 05 61 f7 00 00    	mov    %eax,0xf761(%rip)        # 21854 <g_201>
   120f3:	8b 05 5b f7 00 00    	mov    0xf75b(%rip),%eax        # 21854 <g_201>
   120f9:	83 f8 04             	cmp    $0x4,%eax
   120fc:	76 9f                	jbe    1209d <func_80+0x12e6>
   120fe:	8b 85 50 f0 ff ff    	mov    -0xfb0(%rbp),%eax
   12104:	83 c0 01             	add    $0x1,%eax
   12107:	89 85 50 f0 ff ff    	mov    %eax,-0xfb0(%rbp)
   1210d:	8b 85 50 f0 ff ff    	mov    -0xfb0(%rbp),%eax
   12113:	83 f8 01             	cmp    $0x1,%eax
   12116:	0f 86 75 ff ff ff    	jbe    12091 <func_80+0x12da>
   1211c:	8b 05 82 c1 00 00    	mov    0xc182(%rip),%eax        # 1e2a4 <g_451>
   12122:	83 c0 01             	add    $0x1,%eax
   12125:	89 05 79 c1 00 00    	mov    %eax,0xc179(%rip)        # 1e2a4 <g_451>
   1212b:	8b 05 73 c1 00 00    	mov    0xc173(%rip),%eax        # 1e2a4 <g_451>
   12131:	83 f8 04             	cmp    $0x4,%eax
   12134:	0f 8e 4b ff ff ff    	jle    12085 <func_80+0x12ce>
   1213a:	c7 05 10 f7 00 00 00 	movl   $0x0,0xf710(%rip)        # 21854 <g_201>
   12141:	00 00 00 
   12144:	e9 f7 01 00 00       	jmpq   12340 <func_80+0x1589>
   12149:	66 c7 85 4c f0 ff ff 	movw   $0xfffb,-0xfb4(%rbp)
   12150:	fb ff 
   12152:	48 8d 05 77 b7 00 00 	lea    0xb777(%rip),%rax        # 1d8d0 <g_234+0x10>
   12159:	48 89 85 08 f1 ff ff 	mov    %rax,-0xef8(%rbp)
   12160:	48 8d 85 08 f1 ff ff 	lea    -0xef8(%rbp),%rax
   12167:	48 89 85 10 f1 ff ff 	mov    %rax,-0xef0(%rbp)
   1216e:	c7 05 30 b7 00 00 00 	movl   $0x0,0xb730(%rip)        # 1d8a8 <g_203>
   12175:	00 00 00 
   12178:	e9 7e 01 00 00       	jmpq   122fb <func_80+0x1544>
   1217d:	c7 85 8c f0 ff ff 62 	movl   $0xdfbb6462,-0xf74(%rbp)
   12184:	64 bb df 
   12187:	48 8d 85 10 f1 ff ff 	lea    -0xef0(%rbp),%rax
   1218e:	48 89 85 c8 f1 ff ff 	mov    %rax,-0xe38(%rbp)
   12195:	8b 35 0d b7 00 00    	mov    0xb70d(%rip),%esi        # 1d8a8 <g_203>
   1219b:	0f b6 05 82 b7 00 00 	movzbl 0xb782(%rip),%eax        # 1d924 <g_281>
   121a2:	0f be c0             	movsbl %al,%eax
   121a5:	8d 48 04             	lea    0x4(%rax),%ecx
   121a8:	0f b6 05 75 b7 00 00 	movzbl 0xb775(%rip),%eax        # 1d924 <g_281>
   121af:	0f be c0             	movsbl %al,%eax
   121b2:	48 63 d0             	movslq %eax,%rdx
   121b5:	89 f6                	mov    %esi,%esi
   121b7:	48 63 c9             	movslq %ecx,%rcx
   121ba:	48 89 f0             	mov    %rsi,%rax
   121bd:	48 01 c0             	add    %rax,%rax
   121c0:	48 01 f0             	add    %rsi,%rax
   121c3:	48 01 c0             	add    %rax,%rax
   121c6:	48 01 c8             	add    %rcx,%rax
   121c9:	48 c1 e0 02          	shl    $0x2,%rax
   121cd:	48 01 d0             	add    %rdx,%rax
   121d0:	48 8d 14 00          	lea    (%rax,%rax,1),%rdx
   121d4:	48 8d 05 e5 be 00 00 	lea    0xbee5(%rip),%rax        # 1e0c0 <g_417>
   121db:	0f b7 04 02          	movzwl (%rdx,%rax,1),%eax
   121df:	0f b7 d8             	movzwl %ax,%ebx
   121e2:	48 8b 05 07 e9 00 00 	mov    0xe907(%rip),%rax        # 20af0 <g_540>
   121e9:	48 8b 00             	mov    (%rax),%rax
   121ec:	48 85 c0             	test   %rax,%rax
   121ef:	0f 95 c0             	setne  %al
   121f2:	44 0f b6 e0          	movzbl %al,%r12d
   121f6:	0f bf 95 4c f0 ff ff 	movswl -0xfb4(%rbp),%edx
   121fd:	48 8b 85 c0 f1 ff ff 	mov    -0xe40(%rbp),%rax
   12204:	89 c1                	mov    %eax,%ecx
   12206:	48 8b 85 30 f0 ff ff 	mov    -0xfd0(%rbp),%rax
   1220d:	89 08                	mov    %ecx,(%rax)
   1220f:	48 8b 85 30 f0 ff ff 	mov    -0xfd0(%rbp),%rax
   12216:	8b 00                	mov    (%rax),%eax
   12218:	39 c2                	cmp    %eax,%edx
   1221a:	74 47                	je     12263 <func_80+0x14ac>
   1221c:	48 8b 05 55 eb 00 00 	mov    0xeb55(%rip),%rax        # 20d78 <g_958>
   12223:	48 8b 00             	mov    (%rax),%rax
   12226:	48 8b 00             	mov    (%rax),%rax
   12229:	48 8b 00             	mov    (%rax),%rax
   1222c:	48 8b 00             	mov    (%rax),%rax
   1222f:	0f b6 00             	movzbl (%rax),%eax
   12232:	84 c0                	test   %al,%al
   12234:	74 2d                	je     12263 <func_80+0x14ac>
   12236:	be 0f 00 00 00       	mov    $0xf,%esi
   1223b:	bf fe ff 00 00       	mov    $0xfffe,%edi
   12240:	e8 79 6b ff ff       	callq  8dbe <safe_lshift_func_uint16_t_u_s>
   12245:	89 c2                	mov    %eax,%edx
   12247:	48 8b 05 d2 ec 00 00 	mov    0xecd2(%rip),%rax        # 20f20 <g_1548>
   1224e:	0f b7 d2             	movzwl %dx,%edx
   12251:	48 89 10             	mov    %rdx,(%rax)
   12254:	48 8b 00             	mov    (%rax),%rax
   12257:	48 85 c0             	test   %rax,%rax
   1225a:	74 07                	je     12263 <func_80+0x14ac>
   1225c:	b8 01 00 00 00       	mov    $0x1,%eax
   12261:	eb 05                	jmp    12268 <func_80+0x14b1>
   12263:	b8 00 00 00 00       	mov    $0x0,%eax
   12268:	89 85 8c f0 ff ff    	mov    %eax,-0xf74(%rbp)
   1226e:	48 8b 95 10 f1 ff ff 	mov    -0xef0(%rbp),%rdx
   12275:	48 8b 85 c8 f1 ff ff 	mov    -0xe38(%rbp),%rax
   1227c:	48 89 10             	mov    %rdx,(%rax)
   1227f:	48 8b 85 c8 f1 ff ff 	mov    -0xe38(%rbp),%rax
   12286:	48 8b 10             	mov    (%rax),%rdx
   12289:	48 8b 05 f8 f5 00 00 	mov    0xf5f8(%rip),%rax        # 21888 <g_1719>
   12290:	48 8b 00             	mov    (%rax),%rax
   12293:	48 8b 00             	mov    (%rax),%rax
   12296:	48 8b 00             	mov    (%rax),%rax
   12299:	48 39 c2             	cmp    %rax,%rdx
   1229c:	0f 95 c0             	setne  %al
   1229f:	0f b6 c0             	movzbl %al,%eax
   122a2:	39 85 8c f0 ff ff    	cmp    %eax,-0xf74(%rbp)
   122a8:	0f 9e c0             	setle  %al
   122ab:	0f b6 c0             	movzbl %al,%eax
   122ae:	0b 85 3c f0 ff ff    	or     -0xfc4(%rbp),%eax
   122b4:	85 c0                	test   %eax,%eax
   122b6:	75 09                	jne    122c1 <func_80+0x150a>
   122b8:	80 bd 38 f0 ff ff 00 	cmpb   $0x0,-0xfc8(%rbp)
   122bf:	74 07                	je     122c8 <func_80+0x1511>
   122c1:	b8 01 00 00 00       	mov    $0x1,%eax
   122c6:	eb 05                	jmp    122cd <func_80+0x1516>
   122c8:	b8 00 00 00 00       	mov    $0x0,%eax
   122cd:	44 39 e0             	cmp    %r12d,%eax
   122d0:	0f 9d c0             	setge  %al
   122d3:	0f b6 c0             	movzbl %al,%eax
   122d6:	39 c3                	cmp    %eax,%ebx
   122d8:	0f 95 c0             	setne  %al
   122db:	0f b6 d0             	movzbl %al,%edx
   122de:	8b 85 58 f0 ff ff    	mov    -0xfa8(%rbp),%eax
   122e4:	21 d0                	and    %edx,%eax
   122e6:	89 85 58 f0 ff ff    	mov    %eax,-0xfa8(%rbp)
   122ec:	8b 05 b6 b5 00 00    	mov    0xb5b6(%rip),%eax        # 1d8a8 <g_203>
   122f2:	83 c0 01             	add    $0x1,%eax
   122f5:	89 05 ad b5 00 00    	mov    %eax,0xb5ad(%rip)        # 1d8a8 <g_203>
   122fb:	8b 05 a7 b5 00 00    	mov    0xb5a7(%rip),%eax        # 1d8a8 <g_203>
   12301:	85 c0                	test   %eax,%eax
   12303:	0f 84 74 fe ff ff    	je     1217d <func_80+0x13c6>
   12309:	48 8b 05 b0 e0 00 00 	mov    0xe0b0(%rip),%rax        # 203c0 <g_310>
   12310:	48 8d 95 58 f0 ff ff 	lea    -0xfa8(%rbp),%rdx
   12317:	48 89 10             	mov    %rdx,(%rax)
   1231a:	48 8b 85 30 f0 ff ff 	mov    -0xfd0(%rbp),%rax
   12321:	8b 00                	mov    (%rax),%eax
   12323:	85 c0                	test   %eax,%eax
   12325:	75 2a                	jne    12351 <func_80+0x159a>
   12327:	66 83 bd 4c f0 ff ff 	cmpw   $0x0,-0xfb4(%rbp)
   1232e:	00 
   1232f:	75 23                	jne    12354 <func_80+0x159d>
   12331:	8b 05 1d f5 00 00    	mov    0xf51d(%rip),%eax        # 21854 <g_201>
   12337:	83 c0 01             	add    $0x1,%eax
   1233a:	89 05 14 f5 00 00    	mov    %eax,0xf514(%rip)        # 21854 <g_201>
   12340:	8b 05 0e f5 00 00    	mov    0xf50e(%rip),%eax        # 21854 <g_201>
   12346:	83 f8 06             	cmp    $0x6,%eax
   12349:	0f 86 fa fd ff ff    	jbe    12149 <func_80+0x1392>
   1234f:	eb 04                	jmp    12355 <func_80+0x159e>
   12351:	90                   	nop
   12352:	eb 01                	jmp    12355 <func_80+0x159e>
   12354:	90                   	nop
   12355:	48 8b 05 44 b5 00 00 	mov    0xb544(%rip),%rax        # 1d8a0 <g_187>
   1235c:	48 83 c0 01          	add    $0x1,%rax
   12360:	48 89 05 39 b5 00 00 	mov    %rax,0xb539(%rip)        # 1d8a0 <g_187>
   12367:	48 8b 05 32 b5 00 00 	mov    0xb532(%rip),%rax        # 1d8a0 <g_187>
   1236e:	48 83 f8 06          	cmp    $0x6,%rax
   12372:	0f 86 d8 fc ff ff    	jbe    12050 <func_80+0x1299>
   12378:	eb 01                	jmp    1237b <func_80+0x15c4>
   1237a:	90                   	nop
   1237b:	c7 05 23 b5 00 00 00 	movl   $0x0,0xb523(%rip)        # 1d8a8 <g_203>
   12382:	00 00 00 
   12385:	e9 65 17 00 00       	jmpq   13aef <func_80+0x2d38>
   1238a:	48 b8 9d ef 52 34 a4 	movabs $0xfccee3a43452ef9d,%rax
   12391:	e3 ce fc 
   12394:	48 89 85 20 f1 ff ff 	mov    %rax,-0xee0(%rbp)
   1239b:	48 8d 05 0e c4 00 00 	lea    0xc40e(%rip),%rax        # 1e7b0 <g_737>
   123a2:	48 89 85 50 f8 ff ff 	mov    %rax,-0x7b0(%rbp)
   123a9:	48 8d 05 d0 ac 00 00 	lea    0xacd0(%rip),%rax        # 1d080 <g_72>
   123b0:	48 89 85 58 f8 ff ff 	mov    %rax,-0x7a8(%rbp)
   123b7:	48 8d 85 20 f5 ff ff 	lea    -0xae0(%rbp),%rax
   123be:	48 05 08 01 00 00    	add    $0x108,%rax
   123c4:	48 89 85 60 f8 ff ff 	mov    %rax,-0x7a0(%rbp)
   123cb:	48 8d 05 de c3 00 00 	lea    0xc3de(%rip),%rax        # 1e7b0 <g_737>
   123d2:	48 89 85 68 f8 ff ff 	mov    %rax,-0x798(%rbp)
   123d9:	48 c7 85 70 f8 ff ff 	movq   $0x0,-0x790(%rbp)
   123e0:	00 00 00 00 
   123e4:	48 8d 05 95 ac 00 00 	lea    0xac95(%rip),%rax        # 1d080 <g_72>
   123eb:	48 89 85 78 f8 ff ff 	mov    %rax,-0x788(%rbp)
   123f2:	48 c7 85 80 f8 ff ff 	movq   $0x0,-0x780(%rbp)
   123f9:	00 00 00 00 
   123fd:	48 8d 05 ac c3 00 00 	lea    0xc3ac(%rip),%rax        # 1e7b0 <g_737>
   12404:	48 89 85 88 f8 ff ff 	mov    %rax,-0x778(%rbp)
   1240b:	48 c7 85 90 f8 ff ff 	movq   $0x0,-0x770(%rbp)
   12412:	00 00 00 00 
   12416:	48 8d 05 93 c3 00 00 	lea    0xc393(%rip),%rax        # 1e7b0 <g_737>
   1241d:	48 89 85 98 f8 ff ff 	mov    %rax,-0x768(%rbp)
   12424:	48 c7 85 a0 f8 ff ff 	movq   $0x0,-0x760(%rbp)
   1242b:	00 00 00 00 
   1242f:	48 8d 85 20 f5 ff ff 	lea    -0xae0(%rbp),%rax
   12436:	48 05 08 01 00 00    	add    $0x108,%rax
   1243c:	48 89 85 a8 f8 ff ff 	mov    %rax,-0x758(%rbp)
   12443:	48 8d 05 06 f4 00 00 	lea    0xf406(%rip),%rax        # 21850 <g_149>
   1244a:	48 89 85 b0 f8 ff ff 	mov    %rax,-0x750(%rbp)
   12451:	48 8d 05 58 c3 00 00 	lea    0xc358(%rip),%rax        # 1e7b0 <g_737>
   12458:	48 89 85 b8 f8 ff ff 	mov    %rax,-0x748(%rbp)
   1245f:	48 8d 05 4a c3 00 00 	lea    0xc34a(%rip),%rax        # 1e7b0 <g_737>
   12466:	48 89 85 c0 f8 ff ff 	mov    %rax,-0x740(%rbp)
   1246d:	48 8d 85 20 f5 ff ff 	lea    -0xae0(%rbp),%rax
   12474:	48 05 08 01 00 00    	add    $0x108,%rax
   1247a:	48 89 85 c8 f8 ff ff 	mov    %rax,-0x738(%rbp)
   12481:	48 8d 85 20 f5 ff ff 	lea    -0xae0(%rbp),%rax
   12488:	48 05 08 01 00 00    	add    $0x108,%rax
   1248e:	48 89 85 d0 f8 ff ff 	mov    %rax,-0x730(%rbp)
   12495:	48 8d 05 b4 f3 00 00 	lea    0xf3b4(%rip),%rax        # 21850 <g_149>
   1249c:	48 89 85 d8 f8 ff ff 	mov    %rax,-0x728(%rbp)
   124a3:	48 8d 05 d6 ab 00 00 	lea    0xabd6(%rip),%rax        # 1d080 <g_72>
   124aa:	48 89 85 e0 f8 ff ff 	mov    %rax,-0x720(%rbp)
   124b1:	48 c7 85 e8 f8 ff ff 	movq   $0x0,-0x718(%rbp)
   124b8:	00 00 00 00 
   124bc:	48 8d 05 ed c2 00 00 	lea    0xc2ed(%rip),%rax        # 1e7b0 <g_737>
   124c3:	48 89 85 f0 f8 ff ff 	mov    %rax,-0x710(%rbp)
   124ca:	48 8d 85 20 f5 ff ff 	lea    -0xae0(%rbp),%rax
   124d1:	48 05 c8 00 00 00    	add    $0xc8,%rax
   124d7:	48 89 85 f8 f8 ff ff 	mov    %rax,-0x708(%rbp)
   124de:	48 8d 05 9b ab 00 00 	lea    0xab9b(%rip),%rax        # 1d080 <g_72>
   124e5:	48 89 85 00 f9 ff ff 	mov    %rax,-0x700(%rbp)
   124ec:	48 c7 85 08 f9 ff ff 	movq   $0x0,-0x6f8(%rbp)
   124f3:	00 00 00 00 
   124f7:	48 8d 05 82 ab 00 00 	lea    0xab82(%rip),%rax        # 1d080 <g_72>
   124fe:	48 89 85 10 f9 ff ff 	mov    %rax,-0x6f0(%rbp)
   12505:	48 c7 85 18 f9 ff ff 	movq   $0x0,-0x6e8(%rbp)
   1250c:	00 00 00 00 
   12510:	48 c7 85 20 f9 ff ff 	movq   $0x0,-0x6e0(%rbp)
   12517:	00 00 00 00 
   1251b:	48 8d 05 5e ab 00 00 	lea    0xab5e(%rip),%rax        # 1d080 <g_72>
   12522:	48 89 85 28 f9 ff ff 	mov    %rax,-0x6d8(%rbp)
   12529:	48 c7 85 30 f9 ff ff 	movq   $0x0,-0x6d0(%rbp)
   12530:	00 00 00 00 
   12534:	48 8d 05 45 ab 00 00 	lea    0xab45(%rip),%rax        # 1d080 <g_72>
   1253b:	48 89 85 38 f9 ff ff 	mov    %rax,-0x6c8(%rbp)
   12542:	48 8d 85 20 f5 ff ff 	lea    -0xae0(%rbp),%rax
   12549:	48 05 08 01 00 00    	add    $0x108,%rax
   1254f:	48 89 85 40 f9 ff ff 	mov    %rax,-0x6c0(%rbp)
   12556:	48 8d 85 20 f5 ff ff 	lea    -0xae0(%rbp),%rax
   1255d:	48 05 08 01 00 00    	add    $0x108,%rax
   12563:	48 89 85 48 f9 ff ff 	mov    %rax,-0x6b8(%rbp)
   1256a:	48 8d 05 0f ab 00 00 	lea    0xab0f(%rip),%rax        # 1d080 <g_72>
   12571:	48 89 85 50 f9 ff ff 	mov    %rax,-0x6b0(%rbp)
   12578:	48 c7 85 58 f9 ff ff 	movq   $0x0,-0x6a8(%rbp)
   1257f:	00 00 00 00 
   12583:	48 8d 05 f6 aa 00 00 	lea    0xaaf6(%rip),%rax        # 1d080 <g_72>
   1258a:	48 89 85 60 f9 ff ff 	mov    %rax,-0x6a0(%rbp)
   12591:	48 8d 05 0c c4 00 00 	lea    0xc40c(%rip),%rax        # 1e9a4 <g_1199>
   12598:	48 89 85 68 f9 ff ff 	mov    %rax,-0x698(%rbp)
   1259f:	48 8d 05 da aa 00 00 	lea    0xaada(%rip),%rax        # 1d080 <g_72>
   125a6:	48 89 85 70 f9 ff ff 	mov    %rax,-0x690(%rbp)
   125ad:	48 c7 85 78 f9 ff ff 	movq   $0x0,-0x688(%rbp)
   125b4:	00 00 00 00 
   125b8:	48 c7 85 80 f9 ff ff 	movq   $0x0,-0x680(%rbp)
   125bf:	00 00 00 00 
   125c3:	48 8d 05 86 f2 00 00 	lea    0xf286(%rip),%rax        # 21850 <g_149>
   125ca:	48 89 85 88 f9 ff ff 	mov    %rax,-0x678(%rbp)
   125d1:	48 8d 85 20 f5 ff ff 	lea    -0xae0(%rbp),%rax
   125d8:	48 05 08 01 00 00    	add    $0x108,%rax
   125de:	48 89 85 90 f9 ff ff 	mov    %rax,-0x670(%rbp)
   125e5:	48 8d 05 64 f2 00 00 	lea    0xf264(%rip),%rax        # 21850 <g_149>
   125ec:	48 89 85 98 f9 ff ff 	mov    %rax,-0x668(%rbp)
   125f3:	48 8d 05 56 f2 00 00 	lea    0xf256(%rip),%rax        # 21850 <g_149>
   125fa:	48 89 85 a0 f9 ff ff 	mov    %rax,-0x660(%rbp)
   12601:	48 8d 85 20 f5 ff ff 	lea    -0xae0(%rbp),%rax
   12608:	48 05 08 01 00 00    	add    $0x108,%rax
   1260e:	48 89 85 a8 f9 ff ff 	mov    %rax,-0x658(%rbp)
   12615:	48 8d 85 20 f5 ff ff 	lea    -0xae0(%rbp),%rax
   1261c:	48 05 08 01 00 00    	add    $0x108,%rax
   12622:	48 89 85 b0 f9 ff ff 	mov    %rax,-0x650(%rbp)
   12629:	48 c7 85 b8 f9 ff ff 	movq   $0x0,-0x648(%rbp)
   12630:	00 00 00 00 
   12634:	48 8d 05 45 aa 00 00 	lea    0xaa45(%rip),%rax        # 1d080 <g_72>
   1263b:	48 89 85 c0 f9 ff ff 	mov    %rax,-0x640(%rbp)
   12642:	48 8d 05 07 f2 00 00 	lea    0xf207(%rip),%rax        # 21850 <g_149>
   12649:	48 89 85 c8 f9 ff ff 	mov    %rax,-0x638(%rbp)
   12650:	48 c7 85 d0 f9 ff ff 	movq   $0x0,-0x630(%rbp)
   12657:	00 00 00 00 
   1265b:	48 c7 85 d8 f9 ff ff 	movq   $0x0,-0x628(%rbp)
   12662:	00 00 00 00 
   12666:	48 c7 85 e0 f9 ff ff 	movq   $0x0,-0x620(%rbp)
   1266d:	00 00 00 00 
   12671:	48 8d 05 38 c1 00 00 	lea    0xc138(%rip),%rax        # 1e7b0 <g_737>
   12678:	48 89 85 e8 f9 ff ff 	mov    %rax,-0x618(%rbp)
   1267f:	48 c7 85 f0 f9 ff ff 	movq   $0x0,-0x610(%rbp)
   12686:	00 00 00 00 
   1268a:	48 8d 05 13 c3 00 00 	lea    0xc313(%rip),%rax        # 1e9a4 <g_1199>
   12691:	48 89 85 f8 f9 ff ff 	mov    %rax,-0x608(%rbp)
   12698:	48 8d 05 05 c3 00 00 	lea    0xc305(%rip),%rax        # 1e9a4 <g_1199>
   1269f:	48 89 85 00 fa ff ff 	mov    %rax,-0x600(%rbp)
   126a6:	48 8d 85 20 f5 ff ff 	lea    -0xae0(%rbp),%rax
   126ad:	48 05 08 01 00 00    	add    $0x108,%rax
   126b3:	48 89 85 08 fa ff ff 	mov    %rax,-0x5f8(%rbp)
   126ba:	48 8d 85 20 f5 ff ff 	lea    -0xae0(%rbp),%rax
   126c1:	48 05 c8 00 00 00    	add    $0xc8,%rax
   126c7:	48 89 85 10 fa ff ff 	mov    %rax,-0x5f0(%rbp)
   126ce:	48 c7 85 18 fa ff ff 	movq   $0x0,-0x5e8(%rbp)
   126d5:	00 00 00 00 
   126d9:	48 8d 05 d0 c0 00 00 	lea    0xc0d0(%rip),%rax        # 1e7b0 <g_737>
   126e0:	48 89 85 20 fa ff ff 	mov    %rax,-0x5e0(%rbp)
   126e7:	48 8d 85 20 f5 ff ff 	lea    -0xae0(%rbp),%rax
   126ee:	48 05 90 00 00 00    	add    $0x90,%rax
   126f4:	48 89 85 28 fa ff ff 	mov    %rax,-0x5d8(%rbp)
   126fb:	48 8d 05 7e a9 00 00 	lea    0xa97e(%rip),%rax        # 1d080 <g_72>
   12702:	48 89 85 30 fa ff ff 	mov    %rax,-0x5d0(%rbp)
   12709:	48 8d 05 40 f1 00 00 	lea    0xf140(%rip),%rax        # 21850 <g_149>
   12710:	48 89 85 38 fa ff ff 	mov    %rax,-0x5c8(%rbp)
   12717:	48 c7 85 40 fa ff ff 	movq   $0x0,-0x5c0(%rbp)
   1271e:	00 00 00 00 
   12722:	48 c7 85 48 fa ff ff 	movq   $0x0,-0x5b8(%rbp)
   12729:	00 00 00 00 
   1272d:	48 8d 05 1c f1 00 00 	lea    0xf11c(%rip),%rax        # 21850 <g_149>
   12734:	48 89 85 50 fa ff ff 	mov    %rax,-0x5b0(%rbp)
   1273b:	48 8d 85 20 f5 ff ff 	lea    -0xae0(%rbp),%rax
   12742:	48 05 34 01 00 00    	add    $0x134,%rax
   12748:	48 89 85 58 fa ff ff 	mov    %rax,-0x5a8(%rbp)
   1274f:	48 8d 05 2a a9 00 00 	lea    0xa92a(%rip),%rax        # 1d080 <g_72>
   12756:	48 89 85 60 fa ff ff 	mov    %rax,-0x5a0(%rbp)
   1275d:	48 8d 05 ec f0 00 00 	lea    0xf0ec(%rip),%rax        # 21850 <g_149>
   12764:	48 89 85 68 fa ff ff 	mov    %rax,-0x598(%rbp)
   1276b:	48 8d 85 20 f5 ff ff 	lea    -0xae0(%rbp),%rax
   12772:	48 05 08 01 00 00    	add    $0x108,%rax
   12778:	48 89 85 70 fa ff ff 	mov    %rax,-0x590(%rbp)
   1277f:	48 8d 05 fa a8 00 00 	lea    0xa8fa(%rip),%rax        # 1d080 <g_72>
   12786:	48 89 85 78 fa ff ff 	mov    %rax,-0x588(%rbp)
   1278d:	48 8d 85 20 f5 ff ff 	lea    -0xae0(%rbp),%rax
   12794:	48 05 08 01 00 00    	add    $0x108,%rax
   1279a:	48 89 85 80 fa ff ff 	mov    %rax,-0x580(%rbp)
   127a1:	48 8d 05 a8 f0 00 00 	lea    0xf0a8(%rip),%rax        # 21850 <g_149>
   127a8:	48 89 85 88 fa ff ff 	mov    %rax,-0x578(%rbp)
   127af:	48 8d 05 fa bf 00 00 	lea    0xbffa(%rip),%rax        # 1e7b0 <g_737>
   127b6:	48 89 85 90 fa ff ff 	mov    %rax,-0x570(%rbp)
   127bd:	48 c7 85 98 fa ff ff 	movq   $0x0,-0x568(%rbp)
   127c4:	00 00 00 00 
   127c8:	48 c7 85 a0 fa ff ff 	movq   $0x0,-0x560(%rbp)
   127cf:	00 00 00 00 
   127d3:	48 8d 05 d6 bf 00 00 	lea    0xbfd6(%rip),%rax        # 1e7b0 <g_737>
   127da:	48 89 85 a8 fa ff ff 	mov    %rax,-0x558(%rbp)
   127e1:	48 8d 85 20 f5 ff ff 	lea    -0xae0(%rbp),%rax
   127e8:	48 05 08 01 00 00    	add    $0x108,%rax
   127ee:	48 89 85 b0 fa ff ff 	mov    %rax,-0x550(%rbp)
   127f5:	48 8d 05 84 a8 00 00 	lea    0xa884(%rip),%rax        # 1d080 <g_72>
   127fc:	48 89 85 b8 fa ff ff 	mov    %rax,-0x548(%rbp)
   12803:	48 8d 05 a6 bf 00 00 	lea    0xbfa6(%rip),%rax        # 1e7b0 <g_737>
   1280a:	48 89 85 c0 fa ff ff 	mov    %rax,-0x540(%rbp)
   12811:	48 8d 05 68 a8 00 00 	lea    0xa868(%rip),%rax        # 1d080 <g_72>
   12818:	48 89 85 c8 fa ff ff 	mov    %rax,-0x538(%rbp)
   1281f:	48 c7 85 d0 fa ff ff 	movq   $0x0,-0x530(%rbp)
   12826:	00 00 00 00 
   1282a:	48 8d 85 54 f0 ff ff 	lea    -0xfac(%rbp),%rax
   12831:	48 89 85 d8 fa ff ff 	mov    %rax,-0x528(%rbp)
   12838:	48 8d 85 20 f5 ff ff 	lea    -0xae0(%rbp),%rax
   1283f:	48 05 08 01 00 00    	add    $0x108,%rax
   12845:	48 89 85 e0 fa ff ff 	mov    %rax,-0x520(%rbp)
   1284c:	48 c7 85 e8 fa ff ff 	movq   $0x0,-0x518(%rbp)
   12853:	00 00 00 00 
   12857:	48 c7 85 f0 fa ff ff 	movq   $0x0,-0x510(%rbp)
   1285e:	00 00 00 00 
   12862:	48 c7 85 f8 fa ff ff 	movq   $0x0,-0x508(%rbp)
   12869:	00 00 00 00 
   1286d:	48 c7 85 00 fb ff ff 	movq   $0x0,-0x500(%rbp)
   12874:	00 00 00 00 
   12878:	48 8d 05 d1 ef 00 00 	lea    0xefd1(%rip),%rax        # 21850 <g_149>
   1287f:	48 89 85 08 fb ff ff 	mov    %rax,-0x4f8(%rbp)
   12886:	48 8d 85 20 f5 ff ff 	lea    -0xae0(%rbp),%rax
   1288d:	48 05 34 01 00 00    	add    $0x134,%rax
   12893:	48 89 85 10 fb ff ff 	mov    %rax,-0x4f0(%rbp)
   1289a:	48 c7 85 18 fb ff ff 	movq   $0x0,-0x4e8(%rbp)
   128a1:	00 00 00 00 
   128a5:	48 8d 05 d4 a7 00 00 	lea    0xa7d4(%rip),%rax        # 1d080 <g_72>
   128ac:	48 89 85 20 fb ff ff 	mov    %rax,-0x4e0(%rbp)
   128b3:	48 8d 85 54 f0 ff ff 	lea    -0xfac(%rbp),%rax
   128ba:	48 89 85 28 fb ff ff 	mov    %rax,-0x4d8(%rbp)
   128c1:	48 8d 05 88 ef 00 00 	lea    0xef88(%rip),%rax        # 21850 <g_149>
   128c8:	48 89 85 30 fb ff ff 	mov    %rax,-0x4d0(%rbp)
   128cf:	48 8d 05 7a ef 00 00 	lea    0xef7a(%rip),%rax        # 21850 <g_149>
   128d6:	48 89 85 38 fb ff ff 	mov    %rax,-0x4c8(%rbp)
   128dd:	48 8d 85 20 f5 ff ff 	lea    -0xae0(%rbp),%rax
   128e4:	48 05 08 01 00 00    	add    $0x108,%rax
   128ea:	48 89 85 40 fb ff ff 	mov    %rax,-0x4c0(%rbp)
   128f1:	48 8d 05 88 a7 00 00 	lea    0xa788(%rip),%rax        # 1d080 <g_72>
   128f8:	48 89 85 48 fb ff ff 	mov    %rax,-0x4b8(%rbp)
   128ff:	48 c7 85 50 fb ff ff 	movq   $0x0,-0x4b0(%rbp)
   12906:	00 00 00 00 
   1290a:	48 8d 05 9f be 00 00 	lea    0xbe9f(%rip),%rax        # 1e7b0 <g_737>
   12911:	48 89 85 58 fb ff ff 	mov    %rax,-0x4a8(%rbp)
   12918:	48 8d 85 20 f5 ff ff 	lea    -0xae0(%rbp),%rax
   1291f:	48 05 c8 00 00 00    	add    $0xc8,%rax
   12925:	48 89 85 60 fb ff ff 	mov    %rax,-0x4a0(%rbp)
   1292c:	48 8d 05 7d be 00 00 	lea    0xbe7d(%rip),%rax        # 1e7b0 <g_737>
   12933:	48 89 85 68 fb ff ff 	mov    %rax,-0x498(%rbp)
   1293a:	48 8d 05 6f be 00 00 	lea    0xbe6f(%rip),%rax        # 1e7b0 <g_737>
   12941:	48 89 85 70 fb ff ff 	mov    %rax,-0x490(%rbp)
   12948:	48 8d 85 20 f5 ff ff 	lea    -0xae0(%rbp),%rax
   1294f:	48 05 08 01 00 00    	add    $0x108,%rax
   12955:	48 89 85 78 fb ff ff 	mov    %rax,-0x488(%rbp)
   1295c:	48 8d 85 20 f5 ff ff 	lea    -0xae0(%rbp),%rax
   12963:	48 05 08 01 00 00    	add    $0x108,%rax
   12969:	48 89 85 80 fb ff ff 	mov    %rax,-0x480(%rbp)
   12970:	48 8d 05 d9 ee 00 00 	lea    0xeed9(%rip),%rax        # 21850 <g_149>
   12977:	48 89 85 88 fb ff ff 	mov    %rax,-0x478(%rbp)
   1297e:	48 c7 85 90 fb ff ff 	movq   $0x0,-0x470(%rbp)
   12985:	00 00 00 00 
   12989:	48 8d 05 f0 a6 00 00 	lea    0xa6f0(%rip),%rax        # 1d080 <g_72>
   12990:	48 89 85 98 fb ff ff 	mov    %rax,-0x468(%rbp)
   12997:	48 c7 85 a0 fb ff ff 	movq   $0x0,-0x460(%rbp)
   1299e:	00 00 00 00 
   129a2:	48 8d 05 a7 ee 00 00 	lea    0xeea7(%rip),%rax        # 21850 <g_149>
   129a9:	48 89 85 a8 fb ff ff 	mov    %rax,-0x458(%rbp)
   129b0:	c7 85 74 f0 ff ff 01 	movl   $0x1,-0xf8c(%rbp)
   129b7:	00 00 00 
   129ba:	48 8d 05 67 a6 00 00 	lea    0xa667(%rip),%rax        # 1d028 <g_2>
   129c1:	48 89 85 40 f3 ff ff 	mov    %rax,-0xcc0(%rbp)
   129c8:	48 8d 05 59 a6 00 00 	lea    0xa659(%rip),%rax        # 1d028 <g_2>
   129cf:	48 89 85 48 f3 ff ff 	mov    %rax,-0xcb8(%rbp)
   129d6:	48 8d 05 4b a6 00 00 	lea    0xa64b(%rip),%rax        # 1d028 <g_2>
   129dd:	48 89 85 50 f3 ff ff 	mov    %rax,-0xcb0(%rbp)
   129e4:	48 8d 05 3d a6 00 00 	lea    0xa63d(%rip),%rax        # 1d028 <g_2>
   129eb:	48 89 85 58 f3 ff ff 	mov    %rax,-0xca8(%rbp)
   129f2:	48 8d 05 2f a6 00 00 	lea    0xa62f(%rip),%rax        # 1d028 <g_2>
   129f9:	48 89 85 60 f3 ff ff 	mov    %rax,-0xca0(%rbp)
   12a00:	c7 85 90 f0 ff ff 08 	movl   $0x8,-0xf70(%rbp)
   12a07:	00 00 00 
   12a0a:	c7 85 78 f0 ff ff fe 	movl   $0xfffffffe,-0xf88(%rbp)
   12a11:	ff ff ff 
   12a14:	c7 85 94 f0 ff ff ff 	movl   $0xffffffff,-0xf6c(%rbp)
   12a1b:	ff ff ff 
   12a1e:	48 8d 05 53 ee 00 00 	lea    0xee53(%rip),%rax        # 21878 <g_1311>
   12a25:	48 89 85 10 f1 ff ff 	mov    %rax,-0xef0(%rbp)
   12a2c:	48 8d 85 10 f1 ff ff 	lea    -0xef0(%rbp),%rax
   12a33:	48 89 85 d0 f1 ff ff 	mov    %rax,-0xe30(%rbp)
   12a3a:	48 8d 05 85 b7 00 00 	lea    0xb785(%rip),%rax        # 1e1c6 <g_417+0x106>
   12a41:	48 89 85 d8 f1 ff ff 	mov    %rax,-0xe28(%rbp)
   12a48:	48 8d 05 79 bf 00 00 	lea    0xbf79(%rip),%rax        # 1e9c8 <g_1839>
   12a4f:	48 89 85 e0 f1 ff ff 	mov    %rax,-0xe20(%rbp)
   12a56:	83 bd 2c f0 ff ff 00 	cmpl   $0x0,-0xfd4(%rbp)
   12a5d:	0f 85 00 01 00 00    	jne    12b63 <func_80+0x1dac>
   12a63:	48 8b 85 30 f0 ff ff 	mov    -0xfd0(%rbp),%rax
   12a6a:	8b 00                	mov    (%rax),%eax
   12a6c:	89 c3                	mov    %eax,%ebx
   12a6e:	8b 05 3c ae 00 00    	mov    0xae3c(%rip),%eax        # 1d8b0 <g_222>
   12a74:	89 c0                	mov    %eax,%eax
   12a76:	48 89 85 20 f1 ff ff 	mov    %rax,-0xee0(%rbp)
   12a7d:	48 8b 85 30 f0 ff ff 	mov    -0xfd0(%rbp),%rax
   12a84:	48 89 85 d8 f8 ff ff 	mov    %rax,-0x728(%rbp)
   12a8b:	48 8b 85 d8 f8 ff ff 	mov    -0x728(%rbp),%rax
   12a92:	48 85 c0             	test   %rax,%rax
   12a95:	0f 95 c0             	setne  %al
   12a98:	0f b6 c0             	movzbl %al,%eax
   12a9b:	89 85 74 f0 ff ff    	mov    %eax,-0xf8c(%rbp)
   12aa1:	8b 85 74 f0 ff ff    	mov    -0xf8c(%rbp),%eax
   12aa7:	0f bf d0             	movswl %ax,%edx
   12aaa:	8b 85 e0 fb ff ff    	mov    -0x420(%rbp),%eax
   12ab0:	98                   	cwtl   
   12ab1:	89 d6                	mov    %edx,%esi
   12ab3:	89 c7                	mov    %eax,%edi
   12ab5:	e8 19 59 ff ff       	callq  83d3 <safe_sub_func_int16_t_s_s>
   12aba:	89 c2                	mov    %eax,%edx
   12abc:	48 8b 05 4d e0 00 00 	mov    0xe04d(%rip),%rax        # 20b10 <g_945>
   12ac3:	48 0f bf d2          	movswq %dx,%rdx
   12ac7:	48 89 10             	mov    %rdx,(%rax)
   12aca:	48 8b 85 30 f0 ff ff 	mov    -0xfd0(%rbp),%rax
   12ad1:	8b 00                	mov    (%rax),%eax
   12ad3:	85 c0                	test   %eax,%eax
   12ad5:	0f 95 c0             	setne  %al
   12ad8:	0f b6 c0             	movzbl %al,%eax
   12adb:	89 85 90 f0 ff ff    	mov    %eax,-0xf70(%rbp)
   12ae1:	8b 85 90 f0 ff ff    	mov    -0xf70(%rbp),%eax
   12ae7:	48 98                	cltq   
   12ae9:	48 be 5e a2 b1 6a 7f 	movabs $0x1ce91a7f6ab1a25e,%rsi
   12af0:	1a e9 1c 
   12af3:	48 89 c7             	mov    %rax,%rdi
   12af6:	e8 33 65 ff ff       	callq  902e <safe_add_func_uint64_t_u_u>
   12afb:	48 0f be 95 38 f0 ff 	movsbq -0xfc8(%rbp),%rdx
   12b02:	ff 
   12b03:	48 09 d0             	or     %rdx,%rax
   12b06:	48 85 c0             	test   %rax,%rax
   12b09:	75 09                	jne    12b14 <func_80+0x1d5d>
   12b0b:	83 bd 3c f0 ff ff 00 	cmpl   $0x0,-0xfc4(%rbp)
   12b12:	74 07                	je     12b1b <func_80+0x1d64>
   12b14:	b8 01 00 00 00       	mov    $0x1,%eax
   12b19:	eb 05                	jmp    12b20 <func_80+0x1d69>
   12b1b:	b8 00 00 00 00       	mov    $0x0,%eax
   12b20:	35 09 7c 00 00       	xor    $0x7c09,%eax
   12b25:	48 63 d0             	movslq %eax,%rdx
   12b28:	48 8b 05 f1 e3 00 00 	mov    0xe3f1(%rip),%rax        # 20f20 <g_1548>
   12b2f:	48 8b 00             	mov    (%rax),%rax
   12b32:	48 39 c2             	cmp    %rax,%rdx
   12b35:	0f 9d c0             	setge  %al
   12b38:	0f b6 c0             	movzbl %al,%eax
   12b3b:	89 de                	mov    %ebx,%esi
   12b3d:	89 c7                	mov    %eax,%edi
   12b3f:	e8 8c 63 ff ff       	callq  8ed0 <safe_sub_func_uint32_t_u_u>
   12b44:	48 8d 15 59 be 00 00 	lea    0xbe59(%rip),%rdx        # 1e9a4 <g_1199>
   12b4b:	8b 12                	mov    (%rdx),%edx
   12b4d:	09 c2                	or     %eax,%edx
   12b4f:	48 8b 05 ca e3 00 00 	mov    0xe3ca(%rip),%rax        # 20f20 <g_1548>
   12b56:	89 d2                	mov    %edx,%edx
   12b58:	48 89 10             	mov    %rdx,(%rax)
   12b5b:	48 8b 00             	mov    (%rax),%rax
   12b5e:	48 85 c0             	test   %rax,%rax
   12b61:	74 07                	je     12b6a <func_80+0x1db3>
   12b63:	b8 01 00 00 00       	mov    $0x1,%eax
   12b68:	eb 05                	jmp    12b6f <func_80+0x1db8>
   12b6a:	b8 00 00 00 00       	mov    $0x0,%eax
   12b6f:	89 c2                	mov    %eax,%edx
   12b71:	8b 85 78 f0 ff ff    	mov    -0xf88(%rbp),%eax
   12b77:	31 d0                	xor    %edx,%eax
   12b79:	0f be d0             	movsbl %al,%edx
   12b7c:	48 8b 05 ed e1 00 00 	mov    0xe1ed(%rip),%rax        # 20d70 <g_959>
   12b83:	48 8b 00             	mov    (%rax),%rax
   12b86:	48 8b 00             	mov    (%rax),%rax
   12b89:	48 8b 00             	mov    (%rax),%rax
   12b8c:	0f b6 00             	movzbl (%rax),%eax
   12b8f:	0f be c0             	movsbl %al,%eax
   12b92:	89 d6                	mov    %edx,%esi
   12b94:	89 c7                	mov    %eax,%edi
   12b96:	e8 39 56 ff ff       	callq  81d4 <safe_add_func_int8_t_s_s>
   12b9b:	84 c0                	test   %al,%al
   12b9d:	75 0d                	jne    12bac <func_80+0x1df5>
   12b9f:	48 8b 85 30 f0 ff ff 	mov    -0xfd0(%rbp),%rax
   12ba6:	8b 00                	mov    (%rax),%eax
   12ba8:	85 c0                	test   %eax,%eax
   12baa:	74 07                	je     12bb3 <func_80+0x1dfc>
   12bac:	b8 01 00 00 00       	mov    $0x1,%eax
   12bb1:	eb 05                	jmp    12bb8 <func_80+0x1e01>
   12bb3:	b8 00 00 00 00       	mov    $0x0,%eax
   12bb8:	98                   	cwtl   
   12bb9:	48 8b 15 38 df 00 00 	mov    0xdf38(%rip),%rdx        # 20af8 <g_773>
   12bc0:	48 8b 12             	mov    (%rdx),%rdx
   12bc3:	66 c7 02 f5 f2       	movw   $0xf2f5,(%rdx)
   12bc8:	89 c6                	mov    %eax,%esi
   12bca:	bf f5 f2 ff ff       	mov    $0xfffff2f5,%edi
   12bcf:	e8 df 57 ff ff       	callq  83b3 <safe_add_func_int16_t_s_s>
   12bd4:	0f bf d8             	movswl %ax,%ebx
   12bd7:	48 8b 85 90 f1 ff ff 	mov    -0xe70(%rbp),%rax
   12bde:	8b 00                	mov    (%rax),%eax
   12be0:	0f b6 c0             	movzbl %al,%eax
   12be3:	be 0d 00 00 00       	mov    $0xd,%esi
   12be8:	89 c7                	mov    %eax,%edi
   12bea:	e8 a4 5f ff ff       	callq  8b93 <safe_mul_func_uint8_t_u_u>
   12bef:	0f b6 c0             	movzbl %al,%eax
   12bf2:	89 de                	mov    %ebx,%esi
   12bf4:	89 c7                	mov    %eax,%edi
   12bf6:	e8 02 63 ff ff       	callq  8efd <safe_mod_func_uint32_t_u_u>
   12bfb:	23 85 2c f0 ff ff    	and    -0xfd4(%rbp),%eax
   12c01:	89 c2                	mov    %eax,%edx
   12c03:	8b 85 94 f0 ff ff    	mov    -0xf6c(%rbp),%eax
   12c09:	21 d0                	and    %edx,%eax
   12c0b:	89 85 94 f0 ff ff    	mov    %eax,-0xf6c(%rbp)
   12c11:	48 8b 85 30 f0 ff ff 	mov    -0xfd0(%rbp),%rax
   12c18:	48 89 85 d8 f8 ff ff 	mov    %rax,-0x728(%rbp)
   12c1f:	c7 85 64 f0 ff ff 00 	movl   $0x0,-0xf9c(%rbp)
   12c26:	00 00 00 
   12c29:	e9 a5 0e 00 00       	jmpq   13ad3 <func_80+0x2d1c>
   12c2e:	48 8d 85 d0 f0 ff ff 	lea    -0xf30(%rbp),%rax
   12c35:	48 89 85 e8 f1 ff ff 	mov    %rax,-0xe18(%rbp)
   12c3c:	48 8d 85 90 f6 ff ff 	lea    -0x970(%rbp),%rax
   12c43:	48 8d 15 b6 d3 00 00 	lea    0xd3b6(%rip),%rdx        # 20000 <g_3508+0x1488>
   12c4a:	b9 38 00 00 00       	mov    $0x38,%ecx
   12c4f:	48 89 c7             	mov    %rax,%rdi
   12c52:	48 89 d6             	mov    %rdx,%rsi
   12c55:	f3 48 a5             	rep movsq %ds:(%rsi),%es:(%rdi)
   12c58:	48 8d 05 41 b6 00 00 	lea    0xb641(%rip),%rax        # 1e2a0 <g_450>
   12c5f:	48 89 85 f0 f1 ff ff 	mov    %rax,-0xe10(%rbp)
   12c66:	48 8d 05 fb eb 00 00 	lea    0xebfb(%rip),%rax        # 21868 <g_678>
   12c6d:	48 89 85 f8 f1 ff ff 	mov    %rax,-0xe08(%rbp)
   12c74:	66 c7 85 08 f1 ff ff 	movw   $0x234,-0xef8(%rbp)
   12c7b:	34 02 
   12c7d:	c7 85 7c f0 ff ff 00 	movl   $0x0,-0xf84(%rbp)
   12c84:	00 00 00 
   12c87:	eb 14                	jmp    12c9d <func_80+0x1ee6>
   12c89:	8b 85 7c f0 ff ff    	mov    -0xf84(%rbp),%eax
   12c8f:	48 98                	cltq   
   12c91:	c6 44 05 be 7e       	movb   $0x7e,-0x42(%rbp,%rax,1)
   12c96:	83 85 7c f0 ff ff 01 	addl   $0x1,-0xf84(%rbp)
   12c9d:	83 bd 7c f0 ff ff 09 	cmpl   $0x9,-0xf84(%rbp)
   12ca4:	7e e3                	jle    12c89 <func_80+0x1ed2>
   12ca6:	48 0f be 9d 38 f0 ff 	movsbq -0xfc8(%rbp),%rbx
   12cad:	ff 
   12cae:	44 0f be bd 38 f0 ff 	movsbl -0xfc8(%rbp),%r15d
   12cb5:	ff 
   12cb6:	8b 85 3c f0 ff ff    	mov    -0xfc4(%rbp),%eax
   12cbc:	44 0f b6 e0          	movzbl %al,%r12d
   12cc0:	44 0f be ad 38 f0 ff 	movsbl -0xfc8(%rbp),%r13d
   12cc7:	ff 
   12cc8:	0f b6 45 c4          	movzbl -0x3c(%rbp),%eax
   12ccc:	44 0f be f0          	movsbl %al,%r14d
   12cd0:	48 8b 05 39 de 00 00 	mov    0xde39(%rip),%rax        # 20b10 <g_945>
   12cd7:	48 8b 10             	mov    (%rax),%rdx
   12cda:	48 83 c2 01          	add    $0x1,%rdx
   12cde:	48 89 10             	mov    %rdx,(%rax)
   12ce1:	0f b6 45 bf          	movzbl -0x41(%rbp),%eax
   12ce5:	0f be c0             	movsbl %al,%eax
   12ce8:	89 85 28 f0 ff ff    	mov    %eax,-0xfd8(%rbp)
   12cee:	48 8b 05 13 de 00 00 	mov    0xde13(%rip),%rax        # 20b08 <g_793>
   12cf5:	0f b6 00             	movzbl (%rax),%eax
   12cf8:	0f b6 d0             	movzbl %al,%edx
   12cfb:	48 8b 85 e8 f1 ff ff 	mov    -0xe18(%rbp),%rax
   12d02:	48 8d 0d 97 e1 00 00 	lea    0xe197(%rip),%rcx        # 20ea0 <g_1261>
   12d09:	48 89 08             	mov    %rcx,(%rax)
   12d0c:	48 8b 85 e8 f1 ff ff 	mov    -0xe18(%rbp),%rax
   12d13:	48 8b 00             	mov    (%rax),%rax
   12d16:	48 8d 0d 9b e1 00 00 	lea    0xe19b(%rip),%rcx        # 20eb8 <g_1261+0x18>
   12d1d:	48 39 c8             	cmp    %rcx,%rax
   12d20:	48 8b 05 e1 dd 00 00 	mov    0xdde1(%rip),%rax        # 20b08 <g_793>
   12d27:	0f b6 00             	movzbl (%rax),%eax
   12d2a:	0f b6 c0             	movzbl %al,%eax
   12d2d:	89 d6                	mov    %edx,%esi
   12d2f:	89 c7                	mov    %eax,%edi
   12d31:	e8 a5 5e ff ff       	callq  8bdb <safe_div_func_uint8_t_u_u>
   12d36:	0f b6 c0             	movzbl %al,%eax
   12d39:	be 00 00 00 00       	mov    $0x0,%esi
   12d3e:	89 c7                	mov    %eax,%edi
   12d40:	e8 c0 5e ff ff       	callq  8c05 <safe_lshift_func_uint8_t_u_s>
   12d45:	0f b6 d0             	movzbl %al,%edx
   12d48:	48 8b 85 30 f0 ff ff 	mov    -0xfd0(%rbp),%rax
   12d4f:	8b 00                	mov    (%rax),%eax
   12d51:	39 c2                	cmp    %eax,%edx
   12d53:	0f 95 c0             	setne  %al
   12d56:	0f b6 c0             	movzbl %al,%eax
   12d59:	39 85 28 f0 ff ff    	cmp    %eax,-0xfd8(%rbp)
   12d5f:	0f 9d c0             	setge  %al
   12d62:	0f b6 c0             	movzbl %al,%eax
   12d65:	8b 95 3c f0 ff ff    	mov    -0xfc4(%rbp),%edx
   12d6b:	89 d6                	mov    %edx,%esi
   12d6d:	89 c7                	mov    %eax,%edi
   12d6f:	e8 4a 5f ff ff       	callq  8cbe <safe_rshift_func_uint8_t_u_u>
   12d74:	48 8b 05 8d dd 00 00 	mov    0xdd8d(%rip),%rax        # 20b08 <g_793>
   12d7b:	c6 00 00             	movb   $0x0,(%rax)
   12d7e:	0f b6 00             	movzbl (%rax),%eax
   12d81:	0f be c0             	movsbl %al,%eax
   12d84:	89 c6                	mov    %eax,%esi
   12d86:	bf 5a 00 00 00       	mov    $0x5a,%edi
   12d8b:	e8 62 54 ff ff       	callq  81f2 <safe_sub_func_int8_t_s_s>
   12d90:	0f be c0             	movsbl %al,%eax
   12d93:	44 89 f6             	mov    %r14d,%esi
   12d96:	89 c7                	mov    %eax,%edi
   12d98:	e8 36 56 ff ff       	callq  83d3 <safe_sub_func_int16_t_s_s>
   12d9d:	0f b6 c0             	movzbl %al,%eax
   12da0:	44 89 ee             	mov    %r13d,%esi
   12da3:	89 c7                	mov    %eax,%edi
   12da5:	e8 14 5f ff ff       	callq  8cbe <safe_rshift_func_uint8_t_u_u>
   12daa:	44 89 e6             	mov    %r12d,%esi
   12dad:	bf 01 00 00 00       	mov    $0x1,%edi
   12db2:	e8 dc 5d ff ff       	callq  8b93 <safe_mul_func_uint8_t_u_u>
   12db7:	0f b6 c0             	movzbl %al,%eax
   12dba:	89 c6                	mov    %eax,%esi
   12dbc:	bf 1d 00 00 00       	mov    $0x1d,%edi
   12dc1:	e8 15 5e ff ff       	callq  8bdb <safe_div_func_uint8_t_u_u>
   12dc6:	0f b6 d0             	movzbl %al,%edx
   12dc9:	0f b6 45 bf          	movzbl -0x41(%rbp),%eax
   12dcd:	0f be c0             	movsbl %al,%eax
   12dd0:	39 c2                	cmp    %eax,%edx
   12dd2:	0f 9f c0             	setg   %al
   12dd5:	0f b6 d0             	movzbl %al,%edx
   12dd8:	0f b6 45 bf          	movzbl -0x41(%rbp),%eax
   12ddc:	0f be c0             	movsbl %al,%eax
   12ddf:	39 c2                	cmp    %eax,%edx
   12de1:	0f 9f c0             	setg   %al
   12de4:	0f b6 c0             	movzbl %al,%eax
   12de7:	be 06 00 00 00       	mov    $0x6,%esi
   12dec:	89 c7                	mov    %eax,%edi
   12dee:	e8 12 5e ff ff       	callq  8c05 <safe_lshift_func_uint8_t_u_s>
   12df3:	0f b6 c0             	movzbl %al,%eax
   12df6:	41 39 c7             	cmp    %eax,%r15d
   12df9:	0f 9d c0             	setge  %al
   12dfc:	0f b6 c0             	movzbl %al,%eax
   12dff:	8b 95 3c f0 ff ff    	mov    -0xfc4(%rbp),%edx
   12e05:	89 d6                	mov    %edx,%esi
   12e07:	89 c7                	mov    %eax,%edi
   12e09:	e8 b0 5e ff ff       	callq  8cbe <safe_rshift_func_uint8_t_u_u>
   12e0e:	c7 85 3c f0 ff ff 01 	movl   $0x1,-0xfc4(%rbp)
   12e15:	00 00 00 
   12e18:	48 8b 85 d0 f7 ff ff 	mov    -0x830(%rbp),%rax
   12e1f:	48 8d 15 0a e0 00 00 	lea    0xe00a(%rip),%rdx        # 20e30 <g_1173>
   12e26:	48 39 d0             	cmp    %rdx,%rax
   12e29:	0f 95 c0             	setne  %al
   12e2c:	89 c2                	mov    %eax,%edx
   12e2e:	48 8b 85 f0 f1 ff ff 	mov    -0xe10(%rbp),%rax
   12e35:	88 10                	mov    %dl,(%rax)
   12e37:	48 8b 85 f8 f1 ff ff 	mov    -0xe08(%rbp),%rax
   12e3e:	c7 00 bb 0b 15 68    	movl   $0x68150bbb,(%rax)
   12e44:	be 06 00 00 00       	mov    $0x6,%esi
   12e49:	bf f7 ff ff ff       	mov    $0xfffffff7,%edi
   12e4e:	e8 e2 54 ff ff       	callq  8335 <safe_rshift_func_int8_t_s_s>
   12e53:	48 0f be c0          	movsbq %al,%rax
   12e57:	48 89 de             	mov    %rbx,%rsi
   12e5a:	48 89 c7             	mov    %rax,%rdi
   12e5d:	e8 4d 62 ff ff       	callq  90af <safe_div_func_uint64_t_u_u>
   12e62:	48 8d 15 3b bb 00 00 	lea    0xbb3b(%rip),%rdx        # 1e9a4 <g_1199>
   12e69:	89 02                	mov    %eax,(%rdx)
   12e6b:	48 8b 85 d0 f0 ff ff 	mov    -0xf30(%rbp),%rax
   12e72:	48 8b 00             	mov    (%rax),%rax
   12e75:	48 8b 00             	mov    (%rax),%rax
   12e78:	48 8b 00             	mov    (%rax),%rax
   12e7b:	48 85 c0             	test   %rax,%rax
   12e7e:	0f 95 c0             	setne  %al
   12e81:	0f b6 d0             	movzbl %al,%edx
   12e84:	8b 85 3c f0 ff ff    	mov    -0xfc4(%rbp),%eax
   12e8a:	0f b7 c0             	movzwl %ax,%eax
   12e8d:	89 d6                	mov    %edx,%esi
   12e8f:	89 c7                	mov    %eax,%edi
   12e91:	e8 28 5f ff ff       	callq  8dbe <safe_lshift_func_uint16_t_u_s>
   12e96:	66 85 c0             	test   %ax,%ax
   12e99:	0f 84 1f 05 00 00    	je     133be <func_80+0x2607>
   12e9f:	66 c7 85 4e f0 ff ff 	movw   $0xa0ae,-0xfb2(%rbp)
   12ea6:	ae a0 
   12ea8:	48 c7 85 18 f2 ff ff 	movq   $0xffffffffffffffff,-0xde8(%rbp)
   12eaf:	ff ff ff ff 
   12eb3:	48 8d 05 e6 b3 00 00 	lea    0xb3e6(%rip),%rax        # 1e2a0 <g_450>
   12eba:	48 89 85 20 f2 ff ff 	mov    %rax,-0xde0(%rbp)
   12ec1:	48 8d 85 00 f3 ff ff 	lea    -0xd00(%rbp),%rax
   12ec8:	48 83 c0 08          	add    $0x8,%rax
   12ecc:	48 89 85 28 f2 ff ff 	mov    %rax,-0xdd8(%rbp)
   12ed3:	8b 9d 3c f0 ff ff    	mov    -0xfc4(%rbp),%ebx
   12ed9:	0f b7 85 08 f1 ff ff 	movzwl -0xef8(%rbp),%eax
   12ee0:	44 0f bf e8          	movswl %ax,%r13d
   12ee4:	0f bf 95 4e f0 ff ff 	movswl -0xfb2(%rbp),%edx
   12eeb:	48 8b 05 76 de 00 00 	mov    0xde76(%rip),%rax        # 20d68 <g_960>
   12ef2:	48 8b 00             	mov    (%rax),%rax
   12ef5:	48 8b 00             	mov    (%rax),%rax
   12ef8:	0f b6 00             	movzbl (%rax),%eax
   12efb:	3c 09                	cmp    $0x9,%al
   12efd:	0f 9e c0             	setle  %al
   12f00:	0f b6 c0             	movzbl %al,%eax
   12f03:	39 85 2c f0 ff ff    	cmp    %eax,-0xfd4(%rbp)
   12f09:	0f 95 c0             	setne  %al
   12f0c:	0f b6 c0             	movzbl %al,%eax
   12f0f:	39 c2                	cmp    %eax,%edx
   12f11:	0f 9c c0             	setl   %al
   12f14:	44 0f b6 e0          	movzbl %al,%r12d
   12f18:	48 8b 05 91 d4 00 00 	mov    0xd491(%rip),%rax        # 203b0 <g_309>
   12f1f:	0f b7 00             	movzwl (%rax),%eax
   12f22:	0f bf d0             	movswl %ax,%edx
   12f25:	0f bf 85 4e f0 ff ff 	movswl -0xfb2(%rbp),%eax
   12f2c:	89 d6                	mov    %edx,%esi
   12f2e:	89 c7                	mov    %eax,%edi
   12f30:	e8 e1 54 ff ff       	callq  8416 <safe_mod_func_int16_t_s_s>
   12f35:	98                   	cwtl   
   12f36:	83 e0 01             	and    $0x1,%eax
   12f39:	85 c0                	test   %eax,%eax
   12f3b:	0f 95 c2             	setne  %dl
   12f3e:	8b 35 64 a9 00 00    	mov    0xa964(%rip),%esi        # 1d8a8 <g_203>
   12f44:	8b 85 64 f0 ff ff    	mov    -0xf9c(%rbp),%eax
   12f4a:	44 8d 40 04          	lea    0x4(%rax),%r8d
   12f4e:	8b 85 64 f0 ff ff    	mov    -0xf9c(%rbp),%eax
   12f54:	44 8d 48 06          	lea    0x6(%rax),%r9d
   12f58:	41 89 d2             	mov    %edx,%r10d
   12f5b:	44 89 cf             	mov    %r9d,%edi
   12f5e:	89 f2                	mov    %esi,%edx
   12f60:	44 89 c1             	mov    %r8d,%ecx
   12f63:	48 89 d0             	mov    %rdx,%rax
   12f66:	48 c1 e0 03          	shl    $0x3,%rax
   12f6a:	48 29 d0             	sub    %rdx,%rax
   12f6d:	48 c1 e0 03          	shl    $0x3,%rax
   12f71:	48 89 ca             	mov    %rcx,%rdx
   12f74:	48 c1 e2 03          	shl    $0x3,%rdx
   12f78:	48 29 ca             	sub    %rcx,%rdx
   12f7b:	48 01 d0             	add    %rdx,%rax
   12f7e:	48 8d 14 38          	lea    (%rax,%rdi,1),%rdx
   12f82:	48 8d 05 d7 b7 00 00 	lea    0xb7d7(%rip),%rax        # 1e760 <g_653>
   12f89:	48 01 d0             	add    %rdx,%rax
   12f8c:	44 88 10             	mov    %r10b,(%rax)
   12f8f:	44 89 cf             	mov    %r9d,%edi
   12f92:	89 f2                	mov    %esi,%edx
   12f94:	44 89 c1             	mov    %r8d,%ecx
   12f97:	48 89 d0             	mov    %rdx,%rax
   12f9a:	48 c1 e0 03          	shl    $0x3,%rax
   12f9e:	48 29 d0             	sub    %rdx,%rax
   12fa1:	48 c1 e0 03          	shl    $0x3,%rax
   12fa5:	48 89 ca             	mov    %rcx,%rdx
   12fa8:	48 c1 e2 03          	shl    $0x3,%rdx
   12fac:	48 29 ca             	sub    %rcx,%rdx
   12faf:	48 01 d0             	add    %rdx,%rax
   12fb2:	48 8d 14 38          	lea    (%rax,%rdi,1),%rdx
   12fb6:	48 8d 05 a3 b7 00 00 	lea    0xb7a3(%rip),%rax        # 1e760 <g_653>
   12fbd:	48 01 d0             	add    %rdx,%rax
   12fc0:	0f b6 00             	movzbl (%rax),%eax
   12fc3:	0f be c0             	movsbl %al,%eax
   12fc6:	44 89 e6             	mov    %r12d,%esi
   12fc9:	89 c7                	mov    %eax,%edi
   12fcb:	e8 42 52 ff ff       	callq  8212 <safe_mul_func_int8_t_s_s>
   12fd0:	0f be c0             	movsbl %al,%eax
   12fd3:	44 21 e8             	and    %r13d,%eax
   12fd6:	48 98                	cltq   
   12fd8:	48 89 de             	mov    %rbx,%rsi
   12fdb:	48 89 c7             	mov    %rax,%rdi
   12fde:	e8 5e 58 ff ff       	callq  8841 <safe_add_func_int64_t_s_s>
   12fe3:	48 8b 95 30 f0 ff ff 	mov    -0xfd0(%rbp),%rdx
   12fea:	8b 12                	mov    (%rdx),%edx
   12fec:	48 63 d2             	movslq %edx,%rdx
   12fef:	48 39 d0             	cmp    %rdx,%rax
   12ff2:	0f 95 c0             	setne  %al
   12ff5:	0f b6 d0             	movzbl %al,%edx
   12ff8:	48 8b 85 30 f0 ff ff 	mov    -0xfd0(%rbp),%rax
   12fff:	89 10                	mov    %edx,(%rax)
   13001:	c7 85 78 f0 ff ff 00 	movl   $0x0,-0xf88(%rbp)
   13008:	00 00 00 
   1300b:	e9 de 01 00 00       	jmpq   131ee <func_80+0x2437>
   13010:	c7 85 9c f0 ff ff 00 	movl   $0x0,-0xf64(%rbp)
   13017:	00 00 00 
   1301a:	8b 85 9c f0 ff ff    	mov    -0xf64(%rbp),%eax
   13020:	0f be d8             	movsbl %al,%ebx
   13023:	0f be 85 38 f0 ff ff 	movsbl -0xfc8(%rbp),%eax
   1302a:	be 00 00 00 00       	mov    $0x0,%esi
   1302f:	89 c7                	mov    %eax,%edi
   13031:	e8 6b 52 ff ff       	callq  82a1 <safe_lshift_func_int8_t_s_s>
   13036:	0f be d0             	movsbl %al,%edx
   13039:	0f be 85 38 f0 ff ff 	movsbl -0xfc8(%rbp),%eax
   13040:	89 d6                	mov    %edx,%esi
   13042:	89 c7                	mov    %eax,%edi
   13044:	e8 e8 51 ff ff       	callq  8231 <safe_mod_func_int8_t_s_s>
   13049:	41 89 c7             	mov    %eax,%r15d
   1304c:	48 8b 05 bd d7 00 00 	mov    0xd7bd(%rip),%rax        # 20810 <g_537>
   13053:	48 8b 00             	mov    (%rax),%rax
   13056:	48 85 c0             	test   %rax,%rax
   13059:	0f 95 c0             	setne  %al
   1305c:	0f b6 d0             	movzbl %al,%edx
   1305f:	48 8b 05 ba de 00 00 	mov    0xdeba(%rip),%rax        # 20f20 <g_1548>
   13066:	48 8b 00             	mov    (%rax),%rax
   13069:	48 09 c2             	or     %rax,%rdx
   1306c:	48 8b 85 30 f0 ff ff 	mov    -0xfd0(%rbp),%rax
   13073:	8b 00                	mov    (%rax),%eax
   13075:	09 c2                	or     %eax,%edx
   13077:	48 8b 85 30 f0 ff ff 	mov    -0xfd0(%rbp),%rax
   1307e:	89 10                	mov    %edx,(%rax)
   13080:	4c 0f be a5 38 f0 ff 	movsbq -0xfc8(%rbp),%r12
   13087:	ff 
   13088:	48 8b 05 79 da 00 00 	mov    0xda79(%rip),%rax        # 20b08 <g_793>
   1308f:	0f b6 00             	movzbl (%rax),%eax
   13092:	44 0f b6 e8          	movzbl %al,%r13d
   13096:	48 8b 05 6b da 00 00 	mov    0xda6b(%rip),%rax        # 20b08 <g_793>
   1309d:	0f b6 00             	movzbl (%rax),%eax
   130a0:	44 0f be f0          	movsbl %al,%r14d
   130a4:	0f b6 85 38 f0 ff ff 	movzbl -0xfc8(%rbp),%eax
   130ab:	0f b6 d0             	movzbl %al,%edx
   130ae:	48 8b 85 b0 f1 ff ff 	mov    -0xe50(%rbp),%rax
   130b5:	48 8b 00             	mov    (%rax),%rax
   130b8:	48 39 85 50 f1 ff ff 	cmp    %rax,-0xeb0(%rbp)
   130bf:	0f 95 c0             	setne  %al
   130c2:	0f b6 c0             	movzbl %al,%eax
   130c5:	89 d6                	mov    %edx,%esi
   130c7:	89 c7                	mov    %eax,%edi
   130c9:	e8 c5 5a ff ff       	callq  8b93 <safe_mul_func_uint8_t_u_u>
   130ce:	0f b6 d0             	movzbl %al,%edx
   130d1:	48 8b 05 d8 d2 00 00 	mov    0xd2d8(%rip),%rax        # 203b0 <g_309>
   130d8:	0f b7 00             	movzwl (%rax),%eax
   130db:	98                   	cwtl   
   130dc:	89 d6                	mov    %edx,%esi
   130de:	89 c7                	mov    %eax,%edi
   130e0:	e8 7e 54 ff ff       	callq  8563 <safe_rshift_func_int16_t_s_u>
   130e5:	44 89 f6             	mov    %r14d,%esi
   130e8:	bf 01 00 00 00       	mov    $0x1,%edi
   130ed:	e8 3f 51 ff ff       	callq  8231 <safe_mod_func_int8_t_s_s>
   130f2:	0f b6 c0             	movzbl %al,%eax
   130f5:	44 89 ee             	mov    %r13d,%esi
   130f8:	89 c7                	mov    %eax,%edi
   130fa:	e8 bf 5b ff ff       	callq  8cbe <safe_rshift_func_uint8_t_u_u>
   130ff:	3c 68                	cmp    $0x68,%al
   13101:	0f 96 c0             	setbe  %al
   13104:	0f b6 c0             	movzbl %al,%eax
   13107:	33 85 2c f0 ff ff    	xor    -0xfd4(%rbp),%eax
   1310d:	89 c2                	mov    %eax,%edx
   1310f:	48 8b 05 fa d9 00 00 	mov    0xd9fa(%rip),%rax        # 20b10 <g_945>
   13116:	89 d2                	mov    %edx,%edx
   13118:	48 89 10             	mov    %rdx,(%rax)
   1311b:	48 8b 00             	mov    (%rax),%rax
   1311e:	48 85 c0             	test   %rax,%rax
   13121:	74 10                	je     13133 <func_80+0x237c>
   13123:	83 bd 2c f0 ff ff 00 	cmpl   $0x0,-0xfd4(%rbp)
   1312a:	74 07                	je     13133 <func_80+0x237c>
   1312c:	b8 01 00 00 00       	mov    $0x1,%eax
   13131:	eb 05                	jmp    13138 <func_80+0x2381>
   13133:	b8 00 00 00 00       	mov    $0x0,%eax
   13138:	0f b6 c0             	movzbl %al,%eax
   1313b:	8b 95 3c f0 ff ff    	mov    -0xfc4(%rbp),%edx
   13141:	89 d6                	mov    %edx,%esi
   13143:	89 c7                	mov    %eax,%edi
   13145:	e8 74 5b ff ff       	callq  8cbe <safe_rshift_func_uint8_t_u_u>
   1314a:	84 c0                	test   %al,%al
   1314c:	74 07                	je     13155 <func_80+0x239e>
   1314e:	b8 01 00 00 00       	mov    $0x1,%eax
   13153:	eb 05                	jmp    1315a <func_80+0x23a3>
   13155:	b8 00 00 00 00       	mov    $0x0,%eax
   1315a:	48 98                	cltq   
   1315c:	4c 89 e6             	mov    %r12,%rsi
   1315f:	48 89 c7             	mov    %rax,%rdi
   13162:	e8 da 56 ff ff       	callq  8841 <safe_add_func_int64_t_s_s>
   13167:	8b 85 2c f0 ff ff    	mov    -0xfd4(%rbp),%eax
   1316d:	83 f0 21             	xor    $0x21,%eax
   13170:	89 c2                	mov    %eax,%edx
   13172:	48 0f be 85 38 f0 ff 	movsbq -0xfc8(%rbp),%rax
   13179:	ff 
   1317a:	48 39 c2             	cmp    %rax,%rdx
   1317d:	0f 9c c0             	setl   %al
   13180:	0f b6 c0             	movzbl %al,%eax
   13183:	89 c6                	mov    %eax,%esi
   13185:	bf 00 00 00 00       	mov    $0x0,%edi
   1318a:	e8 2f 5c ff ff       	callq  8dbe <safe_lshift_func_uint16_t_u_s>
   1318f:	89 c2                	mov    %eax,%edx
   13191:	48 8b 05 e0 db 00 00 	mov    0xdbe0(%rip),%rax        # 20d78 <g_958>
   13198:	48 8b 00             	mov    (%rax),%rax
   1319b:	48 8b 00             	mov    (%rax),%rax
   1319e:	48 8b 00             	mov    (%rax),%rax
   131a1:	48 8b 00             	mov    (%rax),%rax
   131a4:	88 10                	mov    %dl,(%rax)
   131a6:	0f b6 00             	movzbl (%rax),%eax
   131a9:	44 31 f8             	xor    %r15d,%eax
   131ac:	0f be c0             	movsbl %al,%eax
   131af:	89 de                	mov    %ebx,%esi
   131b1:	89 c7                	mov    %eax,%edi
   131b3:	e8 5a 50 ff ff       	callq  8212 <safe_mul_func_int8_t_s_s>
   131b8:	48 8b 85 60 f3 ff ff 	mov    -0xca0(%rbp),%rax
   131bf:	48 8d 15 1a a8 00 00 	lea    0xa81a(%rip),%rdx        # 1d9e0 <g_363+0xa0>
   131c6:	48 39 d0             	cmp    %rdx,%rax
   131c9:	0f 95 c0             	setne  %al
   131cc:	0f b6 c0             	movzbl %al,%eax
   131cf:	8b 95 3c f0 ff ff    	mov    -0xfc4(%rbp),%edx
   131d5:	89 d6                	mov    %edx,%esi
   131d7:	89 c7                	mov    %eax,%edi
   131d9:	e8 f2 5c ff ff       	callq  8ed0 <safe_sub_func_uint32_t_u_u>
   131de:	89 c0                	mov    %eax,%eax
   131e0:	48 89 85 18 f2 ff ff 	mov    %rax,-0xde8(%rbp)
   131e7:	83 85 78 f0 ff ff 01 	addl   $0x1,-0xf88(%rbp)
   131ee:	83 bd 78 f0 ff ff 06 	cmpl   $0x6,-0xf88(%rbp)
   131f5:	0f 8e 15 fe ff ff    	jle    13010 <func_80+0x2259>
   131fb:	c6 85 38 f0 ff ff 00 	movb   $0x0,-0xfc8(%rbp)
   13202:	e9 a5 01 00 00       	jmpq   133ac <func_80+0x25f5>
   13207:	48 8d 05 92 dc 00 00 	lea    0xdc92(%rip),%rax        # 20ea0 <g_1261>
   1320e:	48 89 85 b0 f3 ff ff 	mov    %rax,-0xc50(%rbp)
   13215:	48 8d 05 84 dc 00 00 	lea    0xdc84(%rip),%rax        # 20ea0 <g_1261>
   1321c:	48 89 85 b8 f3 ff ff 	mov    %rax,-0xc48(%rbp)
   13223:	48 8d 05 76 dc 00 00 	lea    0xdc76(%rip),%rax        # 20ea0 <g_1261>
   1322a:	48 89 85 c0 f3 ff ff 	mov    %rax,-0xc40(%rbp)
   13231:	48 8d 05 68 dc 00 00 	lea    0xdc68(%rip),%rax        # 20ea0 <g_1261>
   13238:	48 89 85 c8 f3 ff ff 	mov    %rax,-0xc38(%rbp)
   1323f:	48 8d 05 5a dc 00 00 	lea    0xdc5a(%rip),%rax        # 20ea0 <g_1261>
   13246:	48 89 85 d0 f3 ff ff 	mov    %rax,-0xc30(%rbp)
   1324d:	48 8d 05 4c dc 00 00 	lea    0xdc4c(%rip),%rax        # 20ea0 <g_1261>
   13254:	48 89 85 d8 f3 ff ff 	mov    %rax,-0xc28(%rbp)
   1325b:	48 8d 05 3e dc 00 00 	lea    0xdc3e(%rip),%rax        # 20ea0 <g_1261>
   13262:	48 89 85 e0 f3 ff ff 	mov    %rax,-0xc20(%rbp)
   13269:	48 8d 05 30 dc 00 00 	lea    0xdc30(%rip),%rax        # 20ea0 <g_1261>
   13270:	48 89 85 e8 f3 ff ff 	mov    %rax,-0xc18(%rbp)
   13277:	8b 85 2c f0 ff ff    	mov    -0xfd4(%rbp),%eax
   1327d:	0f b7 d8             	movzwl %ax,%ebx
   13280:	48 8b 85 40 f1 ff ff 	mov    -0xec0(%rbp),%rax
   13287:	48 3b 85 d0 f1 ff ff 	cmp    -0xe30(%rbp),%rax
   1328e:	0f 95 c0             	setne  %al
   13291:	44 0f b6 e0          	movzbl %al,%r12d
   13295:	0f b6 85 38 f0 ff ff 	movzbl -0xfc8(%rbp),%eax
   1329c:	3c 03                	cmp    $0x3,%al
   1329e:	0f 97 c0             	seta   %al
   132a1:	0f b6 c0             	movzbl %al,%eax
   132a4:	be 06 00 00 00       	mov    $0x6,%esi
   132a9:	89 c7                	mov    %eax,%edi
   132ab:	e8 9c 59 ff ff       	callq  8c4c <safe_lshift_func_uint8_t_u_u>
   132b0:	48 8b 95 20 f2 ff ff 	mov    -0xde0(%rbp),%rdx
   132b7:	88 02                	mov    %al,(%rdx)
   132b9:	48 8b 85 20 f2 ff ff 	mov    -0xde0(%rbp),%rax
   132c0:	0f b6 00             	movzbl (%rax),%eax
   132c3:	0f b6 c0             	movzbl %al,%eax
   132c6:	44 89 e6             	mov    %r12d,%esi
   132c9:	89 c7                	mov    %eax,%edi
   132cb:	e8 8a 58 ff ff       	callq  8b5a <safe_add_func_uint8_t_u_u>
   132d0:	0f b6 d0             	movzbl %al,%edx
   132d3:	0f be 85 38 f0 ff ff 	movsbl -0xfc8(%rbp),%eax
   132da:	39 c2                	cmp    %eax,%edx
   132dc:	0f 9c c0             	setl   %al
   132df:	0f b6 d0             	movzbl %al,%edx
   132e2:	0f be 85 38 f0 ff ff 	movsbl -0xfc8(%rbp),%eax
   132e9:	89 d6                	mov    %edx,%esi
   132eb:	89 c7                	mov    %eax,%edi
   132ed:	e8 e1 50 ff ff       	callq  83d3 <safe_sub_func_int16_t_s_s>
   132f2:	98                   	cwtl   
   132f3:	23 85 3c f0 ff ff    	and    -0xfc4(%rbp),%eax
   132f9:	89 c6                	mov    %eax,%esi
   132fb:	48 8d 05 9e af 00 00 	lea    0xaf9e(%rip),%rax        # 1e2a0 <g_450>
   13302:	48 39 85 20 f2 ff ff 	cmp    %rax,-0xde0(%rbp)
   13309:	0f 95 c0             	setne  %al
   1330c:	0f b6 c8             	movzbl %al,%ecx
   1330f:	48 8b 15 6a db 00 00 	mov    0xdb6a(%rip),%rdx        # 20e80 <g_1262>
   13316:	48 8b 85 d0 f0 ff ff 	mov    -0xf30(%rbp),%rax
   1331d:	48 8b 00             	mov    (%rax),%rax
   13320:	48 8b 00             	mov    (%rax),%rax
   13323:	48 8b 12             	mov    (%rdx),%rdx
   13326:	48 89 10             	mov    %rdx,(%rax)
   13329:	48 8b 00             	mov    (%rax),%rax
   1332c:	48 85 c0             	test   %rax,%rax
   1332f:	0f 95 c0             	setne  %al
   13332:	0f b6 d0             	movzbl %al,%edx
   13335:	48 8b 05 d4 d7 00 00 	mov    0xd7d4(%rip),%rax        # 20b10 <g_945>
   1333c:	48 8b 00             	mov    (%rax),%rax
   1333f:	48 31 d0             	xor    %rdx,%rax
   13342:	48 39 c1             	cmp    %rax,%rcx
   13345:	0f 95 c0             	setne  %al
   13348:	0f b6 c0             	movzbl %al,%eax
   1334b:	89 c7                	mov    %eax,%edi
   1334d:	e8 7a 53 ff ff       	callq  86cc <safe_mod_func_int32_t_s_s>
   13352:	8b 15 38 b6 00 00    	mov    0xb638(%rip),%edx        # 1e990 <g_1126>
   13358:	09 d0                	or     %edx,%eax
   1335a:	48 98                	cltq   
   1335c:	48 8b 8d e0 f1 ff ff 	mov    -0xe20(%rbp),%rcx
   13363:	48 8b 95 28 f2 ff ff 	mov    -0xdd8(%rbp),%rdx
   1336a:	48 8b b5 d8 f1 ff ff 	mov    -0xe28(%rbp),%rsi
   13371:	49 89 c8             	mov    %rcx,%r8
   13374:	89 d9                	mov    %ebx,%ecx
   13376:	48 89 c7             	mov    %rax,%rdi
   13379:	e8 5d 09 00 00       	callq  13cdb <func_92>
   1337e:	48 89 85 30 f0 ff ff 	mov    %rax,-0xfd0(%rbp)
   13385:	ba 01 00 00 00       	mov    $0x1,%edx
   1338a:	48 8d 05 13 b6 00 00 	lea    0xb613(%rip),%rax        # 1e9a4 <g_1199>
   13391:	89 10                	mov    %edx,(%rax)
   13393:	0f be 85 38 f0 ff ff 	movsbl -0xfc8(%rbp),%eax
   1339a:	be 06 00 00 00       	mov    $0x6,%esi
   1339f:	89 c7                	mov    %eax,%edi
   133a1:	e8 12 5b ff ff       	callq  8eb8 <safe_add_func_uint32_t_u_u>
   133a6:	88 85 38 f0 ff ff    	mov    %al,-0xfc8(%rbp)
   133ac:	80 bd 38 f0 ff ff 0c 	cmpb   $0xc,-0xfc8(%rbp)
   133b3:	0f 85 4e fe ff ff    	jne    13207 <func_80+0x2450>
   133b9:	e9 33 02 00 00       	jmpq   135f1 <func_80+0x283a>
   133be:	48 8d 05 03 b6 00 00 	lea    0xb603(%rip),%rax        # 1e9c8 <g_1839>
   133c5:	48 89 85 00 f2 ff ff 	mov    %rax,-0xe00(%rbp)
   133cc:	c7 85 98 f0 ff ff 01 	movl   $0x1,-0xf68(%rbp)
   133d3:	00 00 00 
   133d6:	48 c7 85 20 f1 ff ff 	movq   $0x0,-0xee0(%rbp)
   133dd:	00 00 00 00 
   133e1:	eb 5c                	jmp    1343f <func_80+0x2688>
   133e3:	48 8b 05 1e d7 00 00 	mov    0xd71e(%rip),%rax        # 20b08 <g_793>
   133ea:	0f b6 10             	movzbl (%rax),%edx
   133ed:	83 c2 01             	add    $0x1,%edx
   133f0:	88 10                	mov    %dl,(%rax)
   133f2:	0f b6 00             	movzbl (%rax),%eax
   133f5:	84 c0                	test   %al,%al
   133f7:	0f 95 c0             	setne  %al
   133fa:	0f b6 d0             	movzbl %al,%edx
   133fd:	48 8b 05 0c d7 00 00 	mov    0xd70c(%rip),%rax        # 20b10 <g_945>
   13404:	48 8b 00             	mov    (%rax),%rax
   13407:	48 8b 1d b2 cf 00 00 	mov    0xcfb2(%rip),%rbx        # 203c0 <g_310>
   1340e:	48 8b bd 00 f2 ff ff 	mov    -0xe00(%rbp),%rdi
   13415:	48 8d 8d f2 f2 ff ff 	lea    -0xd0e(%rbp),%rcx
   1341c:	48 8d 71 06          	lea    0x6(%rcx),%rsi
   13420:	49 89 f8             	mov    %rdi,%r8
   13423:	89 d1                	mov    %edx,%ecx
   13425:	48 8d 15 94 b3 00 00 	lea    0xb394(%rip),%rdx        # 1e7c0 <g_823>
   1342c:	48 89 c7             	mov    %rax,%rdi
   1342f:	e8 a7 08 00 00       	callq  13cdb <func_92>
   13434:	48 89 03             	mov    %rax,(%rbx)
   13437:	48 83 85 20 f1 ff ff 	addq   $0x1,-0xee0(%rbp)
   1343e:	01 
   1343f:	48 83 bd 20 f1 ff ff 	cmpq   $0xf,-0xee0(%rbp)
   13446:	0f 
   13447:	76 9a                	jbe    133e3 <func_80+0x262c>
   13449:	be 00 00 00 00       	mov    $0x0,%esi
   1344e:	bf 00 00 00 00       	mov    $0x0,%edi
   13453:	e8 9a 4d ff ff       	callq  81f2 <safe_sub_func_int8_t_s_s>
   13458:	89 c2                	mov    %eax,%edx
   1345a:	48 8b 05 97 d6 00 00 	mov    0xd697(%rip),%rax        # 20af8 <g_773>
   13461:	48 8b 00             	mov    (%rax),%rax
   13464:	66 0f be d2          	movsbw %dl,%dx
   13468:	66 89 10             	mov    %dx,(%rax)
   1346b:	0f b7 00             	movzwl (%rax),%eax
   1346e:	98                   	cwtl   
   1346f:	be 01 00 00 00       	mov    $0x1,%esi
   13474:	89 c7                	mov    %eax,%edi
   13476:	e8 7a 4f ff ff       	callq  83f5 <safe_mul_func_int16_t_s_s>
   1347b:	48 8b 95 30 f0 ff ff 	mov    -0xfd0(%rbp),%rdx
   13482:	8b 12                	mov    (%rdx),%edx
   13484:	98                   	cwtl   
   13485:	09 c2                	or     %eax,%edx
   13487:	48 8b 85 30 f0 ff ff 	mov    -0xfd0(%rbp),%rax
   1348e:	89 10                	mov    %edx,(%rax)
   13490:	c7 05 fa a3 00 00 04 	movl   $0x4,0xa3fa(%rip)        # 1d894 <g_144>
   13497:	00 00 00 
   1349a:	e9 43 01 00 00       	jmpq   135e2 <func_80+0x282b>
   1349f:	48 8d 85 50 f0 ff ff 	lea    -0xfb0(%rbp),%rax
   134a6:	48 89 85 08 f2 ff ff 	mov    %rax,-0xdf8(%rbp)
   134ad:	48 8d 85 00 f4 ff ff 	lea    -0xc00(%rbp),%rax
   134b4:	48 83 c0 44          	add    $0x44,%rax
   134b8:	48 89 85 10 f2 ff ff 	mov    %rax,-0xdf0(%rbp)
   134bf:	48 8b 05 ca e3 00 00 	mov    0xe3ca(%rip),%rax        # 21890 <g_1856>
   134c6:	48 89 85 e8 f1 ff ff 	mov    %rax,-0xe18(%rbp)
   134cd:	48 8b 85 e8 f1 ff ff 	mov    -0xe18(%rbp),%rax
   134d4:	48 3b 85 b8 f1 ff ff 	cmp    -0xe48(%rbp),%rax
   134db:	0f 95 c0             	setne  %al
   134de:	0f b6 d0             	movzbl %al,%edx
   134e1:	48 8b 85 08 f2 ff ff 	mov    -0xdf8(%rbp),%rax
   134e8:	89 10                	mov    %edx,(%rax)
   134ea:	8b 9d 3c f0 ff ff    	mov    -0xfc4(%rbp),%ebx
   134f0:	be fc ff 00 00       	mov    $0xfffc,%esi
   134f5:	bf fa ff 00 00       	mov    $0xfffa,%edi
   134fa:	e8 8f 58 ff ff       	callq  8d8e <safe_div_func_uint16_t_u_u>
   134ff:	8b 85 3c f0 ff ff    	mov    -0xfc4(%rbp),%eax
   13505:	25 2f 70 00 00       	and    $0x702f,%eax
   1350a:	41 89 c4             	mov    %eax,%r12d
   1350d:	48 be 8e 38 bf e2 54 	movabs $0xa7d0a354e2bf388e,%rsi
   13514:	a3 d0 a7 
   13517:	48 bf e0 b9 d3 27 b8 	movabs $0xbff489b827d3b9e0,%rdi
   1351e:	89 f4 bf 
   13521:	e8 8e 54 ff ff       	callq  89b4 <safe_mod_func_int64_t_s_s>
   13526:	44 89 e6             	mov    %r12d,%esi
   13529:	89 c7                	mov    %eax,%edi
   1352b:	e8 d5 50 ff ff       	callq  8605 <safe_sub_func_int32_t_s_s>
   13530:	0f be c0             	movsbl %al,%eax
   13533:	be f7 ff ff ff       	mov    $0xfffffff7,%esi
   13538:	89 c7                	mov    %eax,%edi
   1353a:	e8 d3 4c ff ff       	callq  8212 <safe_mul_func_int8_t_s_s>
   1353f:	84 c0                	test   %al,%al
   13541:	74 07                	je     1354a <func_80+0x2793>
   13543:	b8 01 00 00 00       	mov    $0x1,%eax
   13548:	eb 05                	jmp    1354f <func_80+0x2798>
   1354a:	b8 00 00 00 00       	mov    $0x0,%eax
   1354f:	48 98                	cltq   
   13551:	48 89 de             	mov    %rbx,%rsi
   13554:	48 89 c7             	mov    %rax,%rdi
   13557:	e8 24 5b ff ff       	callq  9080 <safe_mod_func_uint64_t_u_u>
   1355c:	8b 95 3c f0 ff ff    	mov    -0xfc4(%rbp),%edx
   13562:	48 39 d0             	cmp    %rdx,%rax
   13565:	48 8b 05 44 ce 00 00 	mov    0xce44(%rip),%rax        # 203b0 <g_309>
   1356c:	0f b7 10             	movzwl (%rax),%edx
   1356f:	48 8b 85 10 f2 ff ff 	mov    -0xdf0(%rbp),%rax
   13576:	0f b7 00             	movzwl (%rax),%eax
   13579:	09 c2                	or     %eax,%edx
   1357b:	48 8b 85 10 f2 ff ff 	mov    -0xdf0(%rbp),%rax
   13582:	66 89 10             	mov    %dx,(%rax)
   13585:	48 8b 85 10 f2 ff ff 	mov    -0xdf0(%rbp),%rax
   1358c:	0f b7 00             	movzwl (%rax),%eax
   1358f:	66 3d d5 59          	cmp    $0x59d5,%ax
   13593:	0f 9f c0             	setg   %al
   13596:	0f b6 d0             	movzbl %al,%edx
   13599:	48 8b 85 90 f1 ff ff 	mov    -0xe70(%rbp),%rax
   135a0:	89 10                	mov    %edx,(%rax)
   135a2:	48 8b 05 17 ce 00 00 	mov    0xce17(%rip),%rax        # 203c0 <g_310>
   135a9:	48 8b 95 30 f0 ff ff 	mov    -0xfd0(%rbp),%rdx
   135b0:	48 89 10             	mov    %rdx,(%rax)
   135b3:	48 8b 05 06 ce 00 00 	mov    0xce06(%rip),%rax        # 203c0 <g_310>
   135ba:	48 8b 95 30 f0 ff ff 	mov    -0xfd0(%rbp),%rdx
   135c1:	48 89 10             	mov    %rdx,(%rax)
   135c4:	8b 05 ca a2 00 00    	mov    0xa2ca(%rip),%eax        # 1d894 <g_144>
   135ca:	0f be c0             	movsbl %al,%eax
   135cd:	be 01 00 00 00       	mov    $0x1,%esi
   135d2:	89 c7                	mov    %eax,%edi
   135d4:	e8 fb 4b ff ff       	callq  81d4 <safe_add_func_int8_t_s_s>
   135d9:	0f be c0             	movsbl %al,%eax
   135dc:	89 05 b2 a2 00 00    	mov    %eax,0xa2b2(%rip)        # 1d894 <g_144>
   135e2:	8b 05 ac a2 00 00    	mov    0xa2ac(%rip),%eax        # 1d894 <g_144>
   135e8:	83 f8 1f             	cmp    $0x1f,%eax
   135eb:	0f 85 ae fe ff ff    	jne    1349f <func_80+0x26e8>
   135f1:	c7 85 54 f0 ff ff 04 	movl   $0x4,-0xfac(%rbp)
   135f8:	00 00 00 
   135fb:	eb 5f                	jmp    1365c <func_80+0x28a5>
   135fd:	48 8b 85 90 f1 ff ff 	mov    -0xe70(%rbp),%rax
   13604:	8b 10                	mov    (%rax),%edx
   13606:	8b 85 54 f0 ff ff    	mov    -0xfac(%rbp),%eax
   1360c:	8d 48 03             	lea    0x3(%rax),%ecx
   1360f:	0f b6 05 0e a3 00 00 	movzbl 0xa30e(%rip),%eax        # 1d924 <g_281>
   13616:	0f be c0             	movsbl %al,%eax
   13619:	8d 70 03             	lea    0x3(%rax),%esi
   1361c:	8b 05 86 a2 00 00    	mov    0xa286(%rip),%eax        # 1d8a8 <g_203>
   13622:	83 c0 01             	add    $0x1,%eax
   13625:	89 c7                	mov    %eax,%edi
   13627:	48 63 c9             	movslq %ecx,%rcx
   1362a:	48 63 c6             	movslq %esi,%rax
   1362d:	48 c1 e1 03          	shl    $0x3,%rcx
   13631:	48 01 c8             	add    %rcx,%rax
   13634:	48 c1 e0 02          	shl    $0x2,%rax
   13638:	48 01 f8             	add    %rdi,%rax
   1363b:	8b 84 85 b0 fb ff ff 	mov    -0x450(%rbp,%rax,4),%eax
   13642:	21 c2                	and    %eax,%edx
   13644:	48 8b 85 90 f1 ff ff 	mov    -0xe70(%rbp),%rax
   1364b:	89 10                	mov    %edx,(%rax)
   1364d:	8b 85 54 f0 ff ff    	mov    -0xfac(%rbp),%eax
   13653:	83 e8 01             	sub    $0x1,%eax
   13656:	89 85 54 f0 ff ff    	mov    %eax,-0xfac(%rbp)
   1365c:	8b 85 54 f0 ff ff    	mov    -0xfac(%rbp),%eax
   13662:	85 c0                	test   %eax,%eax
   13664:	7f 97                	jg     135fd <func_80+0x2846>
   13666:	c7 05 e4 e1 00 00 15 	movl   $0x15,0xe1e4(%rip)        # 21854 <g_201>
   1366d:	00 00 00 
   13670:	e9 48 04 00 00       	jmpq   13abd <func_80+0x2d06>
   13675:	48 c7 85 30 f2 ff ff 	movq   $0x0,-0xdd0(%rbp)
   1367c:	00 00 00 00 
   13680:	48 c7 85 38 f2 ff ff 	movq   $0x0,-0xdc8(%rbp)
   13687:	00 00 00 00 
   1368b:	48 8d 85 50 f0 ff ff 	lea    -0xfb0(%rbp),%rax
   13692:	48 89 85 40 f2 ff ff 	mov    %rax,-0xdc0(%rbp)
   13699:	48 c7 85 48 f2 ff ff 	movq   $0x0,-0xdb8(%rbp)
   136a0:	00 00 00 00 
   136a4:	48 8d 85 08 f1 ff ff 	lea    -0xef8(%rbp),%rax
   136ab:	48 89 85 50 f2 ff ff 	mov    %rax,-0xdb0(%rbp)
   136b2:	48 c7 85 b0 f3 ff ff 	movq   $0x0,-0xc50(%rbp)
   136b9:	00 00 00 00 
   136bd:	48 8d 05 ec ab 00 00 	lea    0xabec(%rip),%rax        # 1e2b0 <g_486>
   136c4:	48 89 85 b8 f3 ff ff 	mov    %rax,-0xc48(%rbp)
   136cb:	48 8d 05 de ab 00 00 	lea    0xabde(%rip),%rax        # 1e2b0 <g_486>
   136d2:	48 89 85 c0 f3 ff ff 	mov    %rax,-0xc40(%rbp)
   136d9:	48 c7 85 c8 f3 ff ff 	movq   $0x0,-0xc38(%rbp)
   136e0:	00 00 00 00 
   136e4:	48 8d 05 c5 ab 00 00 	lea    0xabc5(%rip),%rax        # 1e2b0 <g_486>
   136eb:	48 89 85 d0 f3 ff ff 	mov    %rax,-0xc30(%rbp)
   136f2:	48 8d 05 b7 ab 00 00 	lea    0xabb7(%rip),%rax        # 1e2b0 <g_486>
   136f9:	48 89 85 d8 f3 ff ff 	mov    %rax,-0xc28(%rbp)
   13700:	48 c7 85 e0 f3 ff ff 	movq   $0x0,-0xc20(%rbp)
   13707:	00 00 00 00 
   1370b:	48 8d 05 9e ab 00 00 	lea    0xab9e(%rip),%rax        # 1e2b0 <g_486>
   13712:	48 89 85 e8 f3 ff ff 	mov    %rax,-0xc18(%rbp)
   13719:	48 8d 05 90 ab 00 00 	lea    0xab90(%rip),%rax        # 1e2b0 <g_486>
   13720:	48 89 85 f0 f3 ff ff 	mov    %rax,-0xc10(%rbp)
   13727:	c7 85 80 f0 ff ff 00 	movl   $0x0,-0xf80(%rbp)
   1372e:	00 00 00 
   13731:	eb 1a                	jmp    1374d <func_80+0x2996>
   13733:	8b 85 80 f0 ff ff    	mov    -0xf80(%rbp),%eax
   13739:	48 98                	cltq   
   1373b:	c7 84 85 10 f3 ff ff 	movl   $0xbd8cc2d5,-0xcf0(%rbp,%rax,4)
   13742:	d5 c2 8c bd 
   13746:	83 85 80 f0 ff ff 01 	addl   $0x1,-0xf80(%rbp)
   1374d:	83 bd 80 f0 ff ff 08 	cmpl   $0x8,-0xf80(%rbp)
   13754:	7e dd                	jle    13733 <func_80+0x297c>
   13756:	8b 9d 3c f0 ff ff    	mov    -0xfc4(%rbp),%ebx
   1375c:	48 8b 05 3d cc 00 00 	mov    0xcc3d(%rip),%rax        # 203a0 <g_104>
   13763:	0f b6 00             	movzbl (%rax),%eax
   13766:	44 0f b6 e0          	movzbl %al,%r12d
   1376a:	44 0f be ad 38 f0 ff 	movsbl -0xfc8(%rbp),%r13d
   13771:	ff 
   13772:	48 8b 05 2f cc 00 00 	mov    0xcc2f(%rip),%rax        # 203a8 <g_218>
   13779:	48 8b 05 e0 d5 00 00 	mov    0xd5e0(%rip),%rax        # 20d60 <g_961>
   13780:	48 8b 00             	mov    (%rax),%rax
   13783:	0f b6 00             	movzbl (%rax),%eax
   13786:	44 0f be f0          	movsbl %al,%r14d
   1378a:	48 8b 05 8f d7 00 00 	mov    0xd78f(%rip),%rax        # 20f20 <g_1548>
   13791:	48 8b 00             	mov    (%rax),%rax
   13794:	48 89 c6             	mov    %rax,%rsi
   13797:	48 bf 23 57 55 61 2c 	movabs $0x4c30e02c61555723,%rdi
   1379e:	e0 30 4c 
   137a1:	e8 51 52 ff ff       	callq  89f7 <safe_div_func_int64_t_s_s>
   137a6:	48 c7 c6 f7 ff ff ff 	mov    $0xfffffffffffffff7,%rsi
   137ad:	48 89 c7             	mov    %rax,%rdi
   137b0:	e8 79 58 ff ff       	callq  902e <safe_add_func_uint64_t_u_u>
   137b5:	0f be c0             	movsbl %al,%eax
   137b8:	44 89 f6             	mov    %r14d,%esi
   137bb:	89 c7                	mov    %eax,%edi
   137bd:	e8 73 4b ff ff       	callq  8335 <safe_rshift_func_int8_t_s_s>
   137c2:	0f be c0             	movsbl %al,%eax
   137c5:	8b 15 b5 98 00 00    	mov    0x98b5(%rip),%edx        # 1d080 <g_72>
   137cb:	89 c6                	mov    %eax,%esi
   137cd:	89 d7                	mov    %edx,%edi
   137cf:	e8 fc 56 ff ff       	callq  8ed0 <safe_sub_func_uint32_t_u_u>
   137d4:	89 c2                	mov    %eax,%edx
   137d6:	48 8b 05 d3 cb 00 00 	mov    0xcbd3(%rip),%rax        # 203b0 <g_309>
   137dd:	66 89 10             	mov    %dx,(%rax)
   137e0:	0f b7 10             	movzwl (%rax),%edx
   137e3:	48 8b 85 50 f2 ff ff 	mov    -0xdb0(%rbp),%rax
   137ea:	66 89 10             	mov    %dx,(%rax)
   137ed:	48 8b 85 50 f2 ff ff 	mov    -0xdb0(%rbp),%rax
   137f4:	0f b7 00             	movzwl (%rax),%eax
   137f7:	66 85 c0             	test   %ax,%ax
   137fa:	75 09                	jne    13805 <func_80+0x2a4e>
   137fc:	83 bd 2c f0 ff ff 00 	cmpl   $0x0,-0xfd4(%rbp)
   13803:	74 07                	je     1380c <func_80+0x2a55>
   13805:	b8 01 00 00 00       	mov    $0x1,%eax
   1380a:	eb 05                	jmp    13811 <func_80+0x2a5a>
   1380c:	b8 00 00 00 00       	mov    $0x0,%eax
   13811:	48 98                	cltq   
   13813:	48 89 c7             	mov    %rax,%rdi
   13816:	e8 fe 57 ff ff       	callq  9019 <safe_unary_minus_func_uint64_t_u>
   1381b:	35 c6 53 56 0d       	xor    $0xd5653c6,%eax
   13820:	89 c2                	mov    %eax,%edx
   13822:	48 8b 85 90 f1 ff ff 	mov    -0xe70(%rbp),%rax
   13829:	89 10                	mov    %edx,(%rax)
   1382b:	48 8b 85 90 f1 ff ff 	mov    -0xe70(%rbp),%rax
   13832:	8b 00                	mov    (%rax),%eax
   13834:	0f be c0             	movsbl %al,%eax
   13837:	be f9 ff ff ff       	mov    $0xfffffff9,%esi
   1383c:	89 c7                	mov    %eax,%edi
   1383e:	e8 cf 49 ff ff       	callq  8212 <safe_mul_func_int8_t_s_s>
   13843:	48 8b 85 40 f2 ff ff 	mov    -0xdc0(%rbp),%rax
   1384a:	8b 00                	mov    (%rax),%eax
   1384c:	8d 48 01             	lea    0x1(%rax),%ecx
   1384f:	48 8b 95 40 f2 ff ff 	mov    -0xdc0(%rbp),%rdx
   13856:	89 0a                	mov    %ecx,(%rdx)
   13858:	83 e0 01             	and    $0x1,%eax
   1385b:	89 c2                	mov    %eax,%edx
   1385d:	8b 85 18 f3 ff ff    	mov    -0xce8(%rbp),%eax
   13863:	39 c2                	cmp    %eax,%edx
   13865:	0f 95 c0             	setne  %al
   13868:	0f b6 d0             	movzbl %al,%edx
   1386b:	48 8b 05 06 d5 00 00 	mov    0xd506(%rip),%rax        # 20d78 <g_958>
   13872:	48 8b 00             	mov    (%rax),%rax
   13875:	48 8b 00             	mov    (%rax),%rax
   13878:	48 8b 00             	mov    (%rax),%rax
   1387b:	48 8b 00             	mov    (%rax),%rax
   1387e:	0f b6 00             	movzbl (%rax),%eax
   13881:	0f be c0             	movsbl %al,%eax
   13884:	89 d6                	mov    %edx,%esi
   13886:	89 c7                	mov    %eax,%edi
   13888:	e8 85 49 ff ff       	callq  8212 <safe_mul_func_int8_t_s_s>
   1388d:	0f be c0             	movsbl %al,%eax
   13890:	39 85 3c f0 ff ff    	cmp    %eax,-0xfc4(%rbp)
   13896:	72 0f                	jb     138a7 <func_80+0x2af0>
   13898:	48 8b 05 29 cb 00 00 	mov    0xcb29(%rip),%rax        # 203c8 <g_356>
   1389f:	0f b7 00             	movzwl (%rax),%eax
   138a2:	66 85 c0             	test   %ax,%ax
   138a5:	74 07                	je     138ae <func_80+0x2af7>
   138a7:	b8 01 00 00 00       	mov    $0x1,%eax
   138ac:	eb 05                	jmp    138b3 <func_80+0x2afc>
   138ae:	b8 00 00 00 00       	mov    $0x0,%eax
   138b3:	0f b7 c0             	movzwl %ax,%eax
   138b6:	44 89 ee             	mov    %r13d,%esi
   138b9:	89 c7                	mov    %eax,%edi
   138bb:	e8 46 55 ff ff       	callq  8e06 <safe_lshift_func_uint16_t_u_u>
   138c0:	0f b7 c0             	movzwl %ax,%eax
   138c3:	be ff ff ff ff       	mov    $0xffffffff,%esi
   138c8:	89 c7                	mov    %eax,%edi
   138ca:	e8 e7 4c ff ff       	callq  85b6 <safe_add_func_int32_t_s_s>
   138cf:	3d af 00 00 00       	cmp    $0xaf,%eax
   138d4:	0f 95 c0             	setne  %al
   138d7:	0f b6 c0             	movzbl %al,%eax
   138da:	39 85 3c f0 ff ff    	cmp    %eax,-0xfc4(%rbp)
   138e0:	0f 93 c0             	setae  %al
   138e3:	0f b6 c0             	movzbl %al,%eax
   138e6:	89 85 2c f3 ff ff    	mov    %eax,-0xcd4(%rbp)
   138ec:	8b 95 2c f3 ff ff    	mov    -0xcd4(%rbp),%edx
   138f2:	0f be 85 38 f0 ff ff 	movsbl -0xfc8(%rbp),%eax
   138f9:	21 d0                	and    %edx,%eax
   138fb:	48 63 d0             	movslq %eax,%rdx
   138fe:	48 0f be 85 38 f0 ff 	movsbq -0xfc8(%rbp),%rax
   13905:	ff 
   13906:	48 89 d6             	mov    %rdx,%rsi
   13909:	48 89 c7             	mov    %rax,%rdi
   1390c:	e8 6f 57 ff ff       	callq  9080 <safe_mod_func_uint64_t_u_u>
   13911:	0f b6 c0             	movzbl %al,%eax
   13914:	44 89 e6             	mov    %r12d,%esi
   13917:	89 c7                	mov    %eax,%edi
   13919:	e8 75 52 ff ff       	callq  8b93 <safe_mul_func_uint8_t_u_u>
   1391e:	0f b6 d0             	movzbl %al,%edx
   13921:	8b 05 89 a9 00 00    	mov    0xa989(%rip),%eax        # 1e2b0 <g_486>
   13927:	09 d0                	or     %edx,%eax
   13929:	89 05 81 a9 00 00    	mov    %eax,0xa981(%rip)        # 1e2b0 <g_486>
   1392f:	8b 05 7b a9 00 00    	mov    0xa97b(%rip),%eax        # 1e2b0 <g_486>
   13935:	89 c2                	mov    %eax,%edx
   13937:	48 8b 05 02 a7 00 00 	mov    0xa702(%rip),%rax        # 1e040 <g_363+0x700>
   1393e:	48 09 d0             	or     %rdx,%rax
   13941:	48 85 c0             	test   %rax,%rax
   13944:	75 0f                	jne    13955 <func_80+0x2b9e>
   13946:	48 8b 05 63 ca 00 00 	mov    0xca63(%rip),%rax        # 203b0 <g_309>
   1394d:	0f b7 00             	movzwl (%rax),%eax
   13950:	66 85 c0             	test   %ax,%ax
   13953:	74 07                	je     1395c <func_80+0x2ba5>
   13955:	b8 01 00 00 00       	mov    $0x1,%eax
   1395a:	eb 05                	jmp    13961 <func_80+0x2baa>
   1395c:	b8 00 00 00 00       	mov    $0x0,%eax
   13961:	0f be c0             	movsbl %al,%eax
   13964:	be 01 00 00 00       	mov    $0x1,%esi
   13969:	89 c7                	mov    %eax,%edi
   1396b:	e8 7e 49 ff ff       	callq  82ee <safe_lshift_func_int8_t_s_u>
   13970:	0f be c0             	movsbl %al,%eax
   13973:	be 01 00 00 00       	mov    $0x1,%esi
   13978:	89 c7                	mov    %eax,%edi
   1397a:	e8 80 4d ff ff       	callq  86ff <safe_div_func_int32_t_s_s>
   1397f:	98                   	cwtl   
   13980:	be 07 00 00 00       	mov    $0x7,%esi
   13985:	89 c7                	mov    %eax,%edi
   13987:	e8 55 4b ff ff       	callq  84e1 <safe_lshift_func_int16_t_s_u>
   1398c:	0f b7 c0             	movzwl %ax,%eax
   1398f:	89 de                	mov    %ebx,%esi
   13991:	89 c7                	mov    %eax,%edi
   13993:	e8 b0 54 ff ff       	callq  8e48 <safe_rshift_func_uint16_t_u_s>
   13998:	0f b7 c0             	movzwl %ax,%eax
   1399b:	39 85 2c f0 ff ff    	cmp    %eax,-0xfd4(%rbp)
   139a1:	0f 95 c0             	setne  %al
   139a4:	0f b6 c8             	movzbl %al,%ecx
   139a7:	48 8d 05 f6 af 00 00 	lea    0xaff6(%rip),%rax        # 1e9a4 <g_1199>
   139ae:	8b 10                	mov    (%rax),%edx
   139b0:	48 8d 05 ed af 00 00 	lea    0xafed(%rip),%rax        # 1e9a4 <g_1199>
   139b7:	09 ca                	or     %ecx,%edx
   139b9:	89 10                	mov    %edx,(%rax)
   139bb:	48 8b 85 30 f0 ff ff 	mov    -0xfd0(%rbp),%rax
   139c2:	8b 00                	mov    (%rax),%eax
   139c4:	85 c0                	test   %eax,%eax
   139c6:	0f 85 d6 00 00 00    	jne    13aa2 <func_80+0x2ceb>
   139cc:	8b 85 3c f0 ff ff    	mov    -0xfc4(%rbp),%eax
   139d2:	0f b6 c0             	movzbl %al,%eax
   139d5:	be 00 00 00 00       	mov    $0x0,%esi
   139da:	89 c7                	mov    %eax,%edi
   139dc:	e8 ac 52 ff ff       	callq  8c8d <safe_rshift_func_uint8_t_u_s>
   139e1:	48 8d 15 bc af 00 00 	lea    0xafbc(%rip),%rdx        # 1e9a4 <g_1199>
   139e8:	8b 0a                	mov    (%rdx),%ecx
   139ea:	0f b6 d0             	movzbl %al,%edx
   139ed:	48 8d 05 b0 af 00 00 	lea    0xafb0(%rip),%rax        # 1e9a4 <g_1199>
   139f4:	21 ca                	and    %ecx,%edx
   139f6:	89 10                	mov    %edx,(%rax)
   139f8:	c7 85 74 f0 ff ff 00 	movl   $0x0,-0xf8c(%rbp)
   139ff:	00 00 00 
   13a02:	e9 8c 00 00 00       	jmpq   13a93 <func_80+0x2cdc>
   13a07:	48 8d 05 40 ad 00 00 	lea    0xad40(%rip),%rax        # 1e74e <g_555+0xe>
   13a0e:	48 89 85 58 f2 ff ff 	mov    %rax,-0xda8(%rbp)
   13a15:	c7 85 a0 f0 ff ff f6 	movl   $0xfffffff6,-0xf60(%rbp)
   13a1c:	ff ff ff 
   13a1f:	48 8b 05 ca d0 00 00 	mov    0xd0ca(%rip),%rax        # 20af0 <g_540>
   13a26:	4c 8b 20             	mov    (%rax),%r12
   13a29:	8b 85 2c f0 ff ff    	mov    -0xfd4(%rbp),%eax
   13a2f:	98                   	cwtl   
   13a30:	be 0e 00 00 00       	mov    $0xe,%esi
   13a35:	89 c7                	mov    %eax,%edi
   13a37:	e8 56 4a ff ff       	callq  8492 <safe_lshift_func_int16_t_s_s>
   13a3c:	0f b7 c8             	movzwl %ax,%ecx
   13a3f:	48 0f be 85 38 f0 ff 	movsbq -0xfc8(%rbp),%rax
   13a46:	ff 
   13a47:	48 8b 1d 72 c9 00 00 	mov    0xc972(%rip),%rbx        # 203c0 <g_310>
   13a4e:	48 8b 95 98 f1 ff ff 	mov    -0xe68(%rbp),%rdx
   13a55:	48 8b b5 58 f2 ff ff 	mov    -0xda8(%rbp),%rsi
   13a5c:	4d 89 e0             	mov    %r12,%r8
   13a5f:	48 89 c7             	mov    %rax,%rdi
   13a62:	e8 74 02 00 00       	callq  13cdb <func_92>
   13a67:	48 89 03             	mov    %rax,(%rbx)
   13a6a:	48 8b 85 30 f0 ff ff 	mov    -0xfd0(%rbp),%rax
   13a71:	8b 00                	mov    (%rax),%eax
   13a73:	09 85 a0 f0 ff ff    	or     %eax,-0xf60(%rbp)
   13a79:	8b 85 74 f0 ff ff    	mov    -0xf8c(%rbp),%eax
   13a7f:	98                   	cwtl   
   13a80:	be 08 00 00 00       	mov    $0x8,%esi
   13a85:	89 c7                	mov    %eax,%edi
   13a87:	e8 27 49 ff ff       	callq  83b3 <safe_add_func_int16_t_s_s>
   13a8c:	98                   	cwtl   
   13a8d:	89 85 74 f0 ff ff    	mov    %eax,-0xf8c(%rbp)
   13a93:	83 bd 74 f0 ff ff 1d 	cmpl   $0x1d,-0xf8c(%rbp)
   13a9a:	0f 8f 67 ff ff ff    	jg     13a07 <func_80+0x2c50>
   13aa0:	eb 01                	jmp    13aa3 <func_80+0x2cec>
   13aa2:	90                   	nop
   13aa3:	8b 05 ab dd 00 00    	mov    0xddab(%rip),%eax        # 21854 <g_201>
   13aa9:	98                   	cwtl   
   13aaa:	be 01 00 00 00       	mov    $0x1,%esi
   13aaf:	89 c7                	mov    %eax,%edi
   13ab1:	e8 fd 48 ff ff       	callq  83b3 <safe_add_func_int16_t_s_s>
   13ab6:	98                   	cwtl   
   13ab7:	89 05 97 dd 00 00    	mov    %eax,0xdd97(%rip)        # 21854 <g_201>
   13abd:	8b 05 91 dd 00 00    	mov    0xdd91(%rip),%eax        # 21854 <g_201>
   13ac3:	83 f8 2e             	cmp    $0x2e,%eax
   13ac6:	0f 85 a9 fb ff ff    	jne    13675 <func_80+0x28be>
   13acc:	83 85 64 f0 ff ff 01 	addl   $0x1,-0xf9c(%rbp)
   13ad3:	83 bd 64 f0 ff ff 00 	cmpl   $0x0,-0xf9c(%rbp)
   13ada:	0f 84 4e f1 ff ff    	je     12c2e <func_80+0x1e77>
   13ae0:	8b 05 c2 9d 00 00    	mov    0x9dc2(%rip),%eax        # 1d8a8 <g_203>
   13ae6:	83 c0 01             	add    $0x1,%eax
   13ae9:	89 05 b9 9d 00 00    	mov    %eax,0x9db9(%rip)        # 1d8a8 <g_203>
   13aef:	8b 05 b3 9d 00 00    	mov    0x9db3(%rip),%eax        # 1d8a8 <g_203>
   13af5:	85 c0                	test   %eax,%eax
   13af7:	0f 84 8d e8 ff ff    	je     1238a <func_80+0x15d3>
   13afd:	0f b6 05 20 9e 00 00 	movzbl 0x9e20(%rip),%eax        # 1d924 <g_281>
   13b04:	83 c0 01             	add    $0x1,%eax
   13b07:	88 05 17 9e 00 00    	mov    %al,0x9e17(%rip)        # 1d924 <g_281>
   13b0d:	0f b6 05 10 9e 00 00 	movzbl 0x9e10(%rip),%eax        # 1d924 <g_281>
   13b14:	84 c0                	test   %al,%al
   13b16:	0f 8e 5a d4 ff ff    	jle    10f76 <func_80+0x1bf>
   13b1c:	48 8b 05 55 d2 00 00 	mov    0xd255(%rip),%rax        # 20d78 <g_958>
   13b23:	48 8b 00             	mov    (%rax),%rax
   13b26:	48 8b 00             	mov    (%rax),%rax
   13b29:	48 8b 00             	mov    (%rax),%rax
   13b2c:	48 8b 00             	mov    (%rax),%rax
   13b2f:	48 8b 95 18 f1 ff ff 	mov    -0xee8(%rbp),%rdx
   13b36:	88 10                	mov    %dl,(%rax)
   13b38:	0f b6 00             	movzbl (%rax),%eax
   13b3b:	88 85 38 f0 ff ff    	mov    %al,-0xfc8(%rbp)
   13b41:	0f b6 85 38 f0 ff ff 	movzbl -0xfc8(%rbp),%eax
   13b48:	8b 95 28 f6 ff ff    	mov    -0x9d8(%rbp),%edx
   13b4e:	0f be c0             	movsbl %al,%eax
   13b51:	31 d0                	xor    %edx,%eax
   13b53:	89 85 28 f6 ff ff    	mov    %eax,-0x9d8(%rbp)
   13b59:	8b 85 28 f6 ff ff    	mov    -0x9d8(%rbp),%eax
   13b5f:	89 c2                	mov    %eax,%edx
   13b61:	48 8b 85 60 f1 ff ff 	mov    -0xea0(%rbp),%rax
   13b68:	88 10                	mov    %dl,(%rax)
   13b6a:	48 8b 85 60 f1 ff ff 	mov    -0xea0(%rbp),%rax
   13b71:	0f b6 00             	movzbl (%rax),%eax
   13b74:	0f be c0             	movsbl %al,%eax
   13b77:	89 c6                	mov    %eax,%esi
   13b79:	bf f8 ff ff ff       	mov    $0xfffffff8,%edi
   13b7e:	e8 6f 46 ff ff       	callq  81f2 <safe_sub_func_int8_t_s_s>
   13b83:	84 c0                	test   %al,%al
   13b85:	74 13                	je     13b9a <func_80+0x2de3>
   13b87:	48 8b 05 32 c8 00 00 	mov    0xc832(%rip),%rax        # 203c0 <g_310>
   13b8e:	48 c7 00 00 00 00 00 	movq   $0x0,(%rax)
   13b95:	e9 11 01 00 00       	jmpq   13cab <func_80+0x2ef4>
   13b9a:	48 c7 85 70 f1 ff ff 	movq   $0x0,-0xe90(%rbp)
   13ba1:	00 00 00 00 
   13ba5:	48 8d 05 04 ac 00 00 	lea    0xac04(%rip),%rax        # 1e7b0 <g_737>
   13bac:	48 89 85 78 f1 ff ff 	mov    %rax,-0xe88(%rbp)
   13bb3:	48 c7 85 80 f1 ff ff 	movq   $0x0,-0xe80(%rbp)
   13bba:	00 00 00 00 
   13bbe:	c7 85 84 f0 ff ff ea 	movl   $0x590d4ea,-0xf7c(%rbp)
   13bc5:	d4 90 05 
   13bc8:	48 8d 85 20 f5 ff ff 	lea    -0xae0(%rbp),%rax
   13bcf:	48 05 08 01 00 00    	add    $0x108,%rax
   13bd5:	48 89 85 50 f8 ff ff 	mov    %rax,-0x7b0(%rbp)
   13bdc:	48 8d 05 cd ab 00 00 	lea    0xabcd(%rip),%rax        # 1e7b0 <g_737>
   13be3:	48 89 85 58 f8 ff ff 	mov    %rax,-0x7a8(%rbp)
   13bea:	48 8d 05 bf ab 00 00 	lea    0xabbf(%rip),%rax        # 1e7b0 <g_737>
   13bf1:	48 89 85 60 f8 ff ff 	mov    %rax,-0x7a0(%rbp)
   13bf8:	48 8d 85 20 f5 ff ff 	lea    -0xae0(%rbp),%rax
   13bff:	48 05 08 01 00 00    	add    $0x108,%rax
   13c05:	48 89 85 68 f8 ff ff 	mov    %rax,-0x798(%rbp)
   13c0c:	48 8d 05 9d ab 00 00 	lea    0xab9d(%rip),%rax        # 1e7b0 <g_737>
   13c13:	48 89 85 70 f8 ff ff 	mov    %rax,-0x790(%rbp)
   13c1a:	48 8d 05 83 ad 00 00 	lea    0xad83(%rip),%rax        # 1e9a4 <g_1199>
   13c21:	48 89 85 78 f8 ff ff 	mov    %rax,-0x788(%rbp)
   13c28:	48 8d 05 81 ab 00 00 	lea    0xab81(%rip),%rax        # 1e7b0 <g_737>
   13c2f:	48 89 85 80 f8 ff ff 	mov    %rax,-0x780(%rbp)
   13c36:	48 8d 05 67 ad 00 00 	lea    0xad67(%rip),%rax        # 1e9a4 <g_1199>
   13c3d:	48 89 85 88 f8 ff ff 	mov    %rax,-0x778(%rbp)
   13c44:	48 8d 05 59 ad 00 00 	lea    0xad59(%rip),%rax        # 1e9a4 <g_1199>
   13c4b:	48 89 85 90 f8 ff ff 	mov    %rax,-0x770(%rbp)
   13c52:	66 c7 85 48 f0 ff ff 	movw   $0x8,-0xfb8(%rbp)
   13c59:	08 00 
   13c5b:	66 c7 85 4a f0 ff ff 	movw   $0xeaee,-0xfb6(%rbp)
   13c62:	ee ea 
   13c64:	48 c7 85 88 f1 ff ff 	movq   $0x8,-0xe78(%rbp)
   13c6b:	08 00 00 00 
   13c6f:	c6 85 46 f0 ff ff 5f 	movb   $0x5f,-0xfba(%rbp)
   13c76:	48 8b 05 8b ce 00 00 	mov    0xce8b(%rip),%rax        # 20b08 <g_793>
   13c7d:	0f b6 00             	movzbl (%rax),%eax
   13c80:	0f b6 c0             	movzbl %al,%eax
   13c83:	be 01 00 00 00       	mov    $0x1,%esi
   13c88:	89 c7                	mov    %eax,%edi
   13c8a:	e8 cb 4e ff ff       	callq  8b5a <safe_add_func_uint8_t_u_u>
   13c8f:	0f b6 d0             	movzbl %al,%edx
   13c92:	48 8b 85 30 f0 ff ff 	mov    -0xfd0(%rbp),%rax
   13c99:	89 10                	mov    %edx,(%rax)
   13c9b:	66 83 85 4a f0 ff ff 	addw   $0x1,-0xfb6(%rbp)
   13ca2:	01 
   13ca3:	48 83 ad 68 f1 ff ff 	subq   $0x1,-0xe98(%rbp)
   13caa:	01 
   13cab:	48 8b 05 3e ce 00 00 	mov    0xce3e(%rip),%rax        # 20af0 <g_540>
   13cb2:	48 8b 00             	mov    (%rax),%rax
   13cb5:	48 8b 5d c8          	mov    -0x38(%rbp),%rbx
   13cb9:	64 48 33 1c 25 28 00 	xor    %fs:0x28,%rbx
   13cc0:	00 00 
   13cc2:	74 05                	je     13cc9 <func_80+0x2f12>
   13cc4:	e8 a7 43 ff ff       	callq  8070 <__stack_chk_fail@plt>
   13cc9:	48 81 c4 b8 0f 00 00 	add    $0xfb8,%rsp
   13cd0:	5b                   	pop    %rbx
   13cd1:	41 5c                	pop    %r12
   13cd3:	41 5d                	pop    %r13
   13cd5:	41 5e                	pop    %r14
   13cd7:	41 5f                	pop    %r15
   13cd9:	5d                   	pop    %rbp
   13cda:	c3                   	retq   

0000000000013cdb <func_92>:
   13cdb:	f3 0f 1e fa          	endbr64 
   13cdf:	55                   	push   %rbp
   13ce0:	48 89 e5             	mov    %rsp,%rbp
   13ce3:	48 81 ec 70 02 00 00 	sub    $0x270,%rsp
   13cea:	48 89 bd b8 fd ff ff 	mov    %rdi,-0x248(%rbp)
   13cf1:	48 89 b5 b0 fd ff ff 	mov    %rsi,-0x250(%rbp)
   13cf8:	48 89 95 a8 fd ff ff 	mov    %rdx,-0x258(%rbp)
   13cff:	89 c8                	mov    %ecx,%eax
   13d01:	4c 89 85 98 fd ff ff 	mov    %r8,-0x268(%rbp)
   13d08:	66 89 85 a4 fd ff ff 	mov    %ax,-0x25c(%rbp)
   13d0f:	64 48 8b 04 25 28 00 	mov    %fs:0x28,%rax
   13d16:	00 00 
   13d18:	48 89 45 f8          	mov    %rax,-0x8(%rbp)
   13d1c:	31 c0                	xor    %eax,%eax
   13d1e:	48 8d 05 5b 93 00 00 	lea    0x935b(%rip),%rax        # 1d080 <g_72>
   13d25:	48 89 85 e0 fd ff ff 	mov    %rax,-0x220(%rbp)
   13d2c:	48 8d 05 55 9b 00 00 	lea    0x9b55(%rip),%rax        # 1d888 <g_109>
   13d33:	48 89 85 e8 fd ff ff 	mov    %rax,-0x218(%rbp)
   13d3a:	66 c7 85 ce fd ff ff 	movw   $0x2281,-0x232(%rbp)
   13d41:	81 22 
   13d43:	48 8d 85 b0 fe ff ff 	lea    -0x150(%rbp),%rax
   13d4a:	48 8d 15 8f 58 00 00 	lea    0x588f(%rip),%rdx        # 195e0 <g_3221+0x14c8>
   13d51:	b9 28 00 00 00       	mov    $0x28,%ecx
   13d56:	48 89 c7             	mov    %rax,%rdi
   13d59:	48 89 d6             	mov    %rdx,%rsi
   13d5c:	f3 48 a5             	rep movsq %ds:(%rsi),%es:(%rdi)
   13d5f:	48 89 f2             	mov    %rsi,%rdx
   13d62:	48 89 f8             	mov    %rdi,%rax
   13d65:	8b 0a                	mov    (%rdx),%ecx
   13d67:	89 08                	mov    %ecx,(%rax)
   13d69:	48 8d 40 04          	lea    0x4(%rax),%rax
   13d6d:	48 8d 52 04          	lea    0x4(%rdx),%rdx
   13d71:	c6 85 cd fd ff ff 06 	movb   $0x6,-0x233(%rbp)
   13d78:	48 c7 85 f0 fd ff ff 	movq   $0x0,-0x210(%rbp)
   13d7f:	00 00 00 00 
   13d83:	48 8d 05 26 c6 00 00 	lea    0xc626(%rip),%rax        # 203b0 <g_309>
   13d8a:	48 89 85 f8 fd ff ff 	mov    %rax,-0x208(%rbp)
   13d91:	48 8d 05 10 d0 00 00 	lea    0xd010(%rip),%rax        # 20da8 <g_1174+0x8>
   13d98:	48 89 85 00 fe ff ff 	mov    %rax,-0x200(%rbp)
   13d9f:	48 8d 05 62 d1 00 00 	lea    0xd162(%rip),%rax        # 20f08 <g_1429+0x28>
   13da6:	48 89 85 08 fe ff ff 	mov    %rax,-0x1f8(%rbp)
   13dad:	48 8d 05 f0 ab 00 00 	lea    0xabf0(%rip),%rax        # 1e9a4 <g_1199>
   13db4:	48 89 85 10 fe ff ff 	mov    %rax,-0x1f0(%rbp)
   13dbb:	48 8d 05 e2 ab 00 00 	lea    0xabe2(%rip),%rax        # 1e9a4 <g_1199>
   13dc2:	8b 08                	mov    (%rax),%ecx
   13dc4:	48 83 bd e0 fd ff ff 	cmpq   $0x0,-0x220(%rbp)
   13dcb:	00 
   13dcc:	0f 95 c0             	setne  %al
   13dcf:	0f b6 d0             	movzbl %al,%edx
   13dd2:	48 8d 05 cb ab 00 00 	lea    0xabcb(%rip),%rax        # 1e9a4 <g_1199>
   13dd9:	21 ca                	and    %ecx,%edx
   13ddb:	89 10                	mov    %edx,(%rax)
   13ddd:	48 c7 05 d8 a9 00 00 	movq   $0x0,0xa9d8(%rip)        # 1e7c0 <g_823>
   13de4:	00 00 00 00 
   13de8:	e9 41 01 00 00       	jmpq   13f2e <func_92+0x253>
   13ded:	48 c7 85 18 fe ff ff 	movq   $0x0,-0x1e8(%rbp)
   13df4:	00 00 00 00 
   13df8:	48 c7 85 20 fe ff ff 	movq   $0x0,-0x1e0(%rbp)
   13dff:	00 00 00 00 
   13e03:	c7 85 d8 fd ff ff 01 	movl   $0x1,-0x228(%rbp)
   13e0a:	00 00 00 
   13e0d:	c7 85 40 fe ff ff f6 	movl   $0xfffffff6,-0x1c0(%rbp)
   13e14:	ff ff ff 
   13e17:	c7 85 44 fe ff ff 9b 	movl   $0xaba5829b,-0x1bc(%rbp)
   13e1e:	82 a5 ab 
   13e21:	c7 85 48 fe ff ff 9b 	movl   $0xaba5829b,-0x1b8(%rbp)
   13e28:	82 a5 ab 
   13e2b:	c7 85 4c fe ff ff f6 	movl   $0xfffffff6,-0x1b4(%rbp)
   13e32:	ff ff ff 
   13e35:	c7 85 50 fe ff ff 9b 	movl   $0xaba5829b,-0x1b0(%rbp)
   13e3c:	82 a5 ab 
   13e3f:	c7 85 54 fe ff ff 9b 	movl   $0xaba5829b,-0x1ac(%rbp)
   13e46:	82 a5 ab 
   13e49:	c7 85 58 fe ff ff f6 	movl   $0xfffffff6,-0x1a8(%rbp)
   13e50:	ff ff ff 
   13e53:	48 c7 85 28 fe ff ff 	movq   $0x9,-0x1d8(%rbp)
   13e5a:	09 00 00 00 
   13e5e:	48 8d 05 1b d0 00 00 	lea    0xd01b(%rip),%rax        # 20e80 <g_1262>
   13e65:	48 89 85 30 fe ff ff 	mov    %rax,-0x1d0(%rbp)
   13e6c:	c7 85 dc fd ff ff f8 	movl   $0xfffffff8,-0x224(%rbp)
   13e73:	ff ff ff 
   13e76:	48 c7 85 38 fe ff ff 	movq   $0x0,-0x1c8(%rbp)
   13e7d:	00 00 00 00 
   13e81:	c7 85 d0 fd ff ff 00 	movl   $0x0,-0x230(%rbp)
   13e88:	00 00 00 
   13e8b:	eb 1e                	jmp    13eab <func_92+0x1d0>
   13e8d:	8b 85 d0 fd ff ff    	mov    -0x230(%rbp),%eax
   13e93:	48 98                	cltq   
   13e95:	48 8d 15 04 c5 00 00 	lea    0xc504(%rip),%rdx        # 203a0 <g_104>
   13e9c:	48 89 94 c5 60 fe ff 	mov    %rdx,-0x1a0(%rbp,%rax,8)
   13ea3:	ff 
   13ea4:	83 85 d0 fd ff ff 01 	addl   $0x1,-0x230(%rbp)
   13eab:	83 bd d0 fd ff ff 03 	cmpl   $0x3,-0x230(%rbp)
   13eb2:	7e d9                	jle    13e8d <func_92+0x1b2>
   13eb4:	c7 85 d0 fd ff ff 00 	movl   $0x0,-0x230(%rbp)
   13ebb:	00 00 00 
   13ebe:	eb 4a                	jmp    13f0a <func_92+0x22f>
   13ec0:	c7 85 d4 fd ff ff 00 	movl   $0x0,-0x22c(%rbp)
   13ec7:	00 00 00 
   13eca:	eb 2e                	jmp    13efa <func_92+0x21f>
   13ecc:	8b 85 d4 fd ff ff    	mov    -0x22c(%rbp),%eax
   13ed2:	48 63 d0             	movslq %eax,%rdx
   13ed5:	8b 85 d0 fd ff ff    	mov    -0x230(%rbp),%eax
   13edb:	48 98                	cltq   
   13edd:	48 01 d0             	add    %rdx,%rax
   13ee0:	48 8d 95 60 fe ff ff 	lea    -0x1a0(%rbp),%rdx
   13ee7:	48 83 c2 10          	add    $0x10,%rdx
   13eeb:	48 89 94 c5 80 fe ff 	mov    %rdx,-0x180(%rbp,%rax,8)
   13ef2:	ff 
   13ef3:	83 85 d4 fd ff ff 01 	addl   $0x1,-0x22c(%rbp)
   13efa:	83 bd d4 fd ff ff 00 	cmpl   $0x0,-0x22c(%rbp)
   13f01:	7e c9                	jle    13ecc <func_92+0x1f1>
   13f03:	83 85 d0 fd ff ff 01 	addl   $0x1,-0x230(%rbp)
   13f0a:	83 bd d0 fd ff ff 04 	cmpl   $0x4,-0x230(%rbp)
   13f11:	7e ad                	jle    13ec0 <func_92+0x1e5>
   13f13:	48 8b 05 a6 a8 00 00 	mov    0xa8a6(%rip),%rax        # 1e7c0 <g_823>
   13f1a:	be 08 00 00 00       	mov    $0x8,%esi
   13f1f:	48 89 c7             	mov    %rax,%rdi
   13f22:	e8 07 51 ff ff       	callq  902e <safe_add_func_uint64_t_u_u>
   13f27:	48 89 05 92 a8 00 00 	mov    %rax,0xa892(%rip)        # 1e7c0 <g_823>
   13f2e:	48 8b 05 8b a8 00 00 	mov    0xa88b(%rip),%rax        # 1e7c0 <g_823>
   13f35:	48 83 f8 10          	cmp    $0x10,%rax
   13f39:	0f 85 ae fe ff ff    	jne    13ded <func_92+0x112>
   13f3f:	48 8b 85 10 fe ff ff 	mov    -0x1f0(%rbp),%rax
   13f46:	48 8b 75 f8          	mov    -0x8(%rbp),%rsi
   13f4a:	64 48 33 34 25 28 00 	xor    %fs:0x28,%rsi
   13f51:	00 00 
   13f53:	74 05                	je     13f5a <func_92+0x27f>
   13f55:	e8 16 41 ff ff       	callq  8070 <__stack_chk_fail@plt>
   13f5a:	c9                   	leaveq 
   13f5b:	c3                   	retq   

0000000000013f5c <func_98>:
   13f5c:	f3 0f 1e fa          	endbr64 
   13f60:	55                   	push   %rbp
   13f61:	48 89 e5             	mov    %rsp,%rbp
   13f64:	48 81 ec 20 0e 00 00 	sub    $0xe20,%rsp
   13f6b:	48 89 bd 08 f2 ff ff 	mov    %rdi,-0xdf8(%rbp)
   13f72:	48 89 b5 00 f2 ff ff 	mov    %rsi,-0xe00(%rbp)
   13f79:	48 89 95 f8 f1 ff ff 	mov    %rdx,-0xe08(%rbp)
   13f80:	48 89 8d f0 f1 ff ff 	mov    %rcx,-0xe10(%rbp)
   13f87:	4c 89 85 e8 f1 ff ff 	mov    %r8,-0xe18(%rbp)
   13f8e:	64 48 8b 04 25 28 00 	mov    %fs:0x28,%rax
   13f95:	00 00 
   13f97:	48 89 45 f8          	mov    %rax,-0x8(%rbp)
   13f9b:	31 c0                	xor    %eax,%eax
   13f9d:	c7 85 24 f2 ff ff 00 	movl   $0x0,-0xddc(%rbp)
   13fa4:	00 00 00 
   13fa7:	48 8d 05 c2 90 00 00 	lea    0x90c2(%rip),%rax        # 1d070 <g_47>
   13fae:	48 89 85 e0 f2 ff ff 	mov    %rax,-0xd20(%rbp)
   13fb5:	c7 85 30 f2 ff ff 01 	movl   $0x1,-0xdd0(%rbp)
   13fbc:	00 00 00 
   13fbf:	48 8d 85 24 f2 ff ff 	lea    -0xddc(%rbp),%rax
   13fc6:	48 89 85 80 f2 ff ff 	mov    %rax,-0xd80(%rbp)
   13fcd:	48 8d 05 cc c3 00 00 	lea    0xc3cc(%rip),%rax        # 203a0 <g_104>
   13fd4:	48 89 85 88 f2 ff ff 	mov    %rax,-0xd78(%rbp)
   13fdb:	48 8d 05 7e d8 00 00 	lea    0xd87e(%rip),%rax        # 21860 <g_424>
   13fe2:	48 89 85 90 f2 ff ff 	mov    %rax,-0xd70(%rbp)
   13fe9:	c7 85 34 f2 ff ff 52 	movl   $0xed272c52,-0xdcc(%rbp)
   13ff0:	2c 27 ed 
   13ff3:	48 8d 85 80 f2 ff ff 	lea    -0xd80(%rbp),%rax
   13ffa:	48 89 85 98 f2 ff ff 	mov    %rax,-0xd68(%rbp)
   14001:	48 8d 85 98 f2 ff ff 	lea    -0xd68(%rbp),%rax
   14008:	48 89 85 e8 f2 ff ff 	mov    %rax,-0xd18(%rbp)
   1400f:	c6 85 17 f2 ff ff ac 	movb   $0xac,-0xde9(%rbp)
   14016:	c7 85 38 f2 ff ff 43 	movl   $0x1b764743,-0xdc8(%rbp)
   1401d:	47 76 1b 
   14020:	48 8d 05 71 98 00 00 	lea    0x9871(%rip),%rax        # 1d898 <g_147>
   14027:	48 89 85 f0 f2 ff ff 	mov    %rax,-0xd10(%rbp)
   1402e:	48 c7 85 a0 f2 ff ff 	movq   $0x0,-0xd60(%rbp)
   14035:	00 00 00 00 
   14039:	c7 85 3c f2 ff ff f0 	movl   $0x37e032f0,-0xdc4(%rbp)
   14040:	32 e0 37 
   14043:	48 8d 85 90 f2 ff ff 	lea    -0xd70(%rbp),%rax
   1404a:	48 89 85 d0 f3 ff ff 	mov    %rax,-0xc30(%rbp)
   14051:	48 8d 85 90 f2 ff ff 	lea    -0xd70(%rbp),%rax
   14058:	48 89 85 d8 f3 ff ff 	mov    %rax,-0xc28(%rbp)
   1405f:	48 8d 85 90 f2 ff ff 	lea    -0xd70(%rbp),%rax
   14066:	48 89 85 e0 f3 ff ff 	mov    %rax,-0xc20(%rbp)
   1406d:	48 8d 85 90 f2 ff ff 	lea    -0xd70(%rbp),%rax
   14074:	48 89 85 e8 f3 ff ff 	mov    %rax,-0xc18(%rbp)
   1407b:	48 8d 85 90 f2 ff ff 	lea    -0xd70(%rbp),%rax
   14082:	48 89 85 f0 f3 ff ff 	mov    %rax,-0xc10(%rbp)
   14089:	48 8d 85 90 f2 ff ff 	lea    -0xd70(%rbp),%rax
   14090:	48 89 85 f8 f3 ff ff 	mov    %rax,-0xc08(%rbp)
   14097:	48 8d 85 90 f2 ff ff 	lea    -0xd70(%rbp),%rax
   1409e:	48 89 85 00 f4 ff ff 	mov    %rax,-0xc00(%rbp)
   140a5:	48 8d 85 90 f2 ff ff 	lea    -0xd70(%rbp),%rax
   140ac:	48 89 85 08 f4 ff ff 	mov    %rax,-0xbf8(%rbp)
   140b3:	48 8d 85 90 f2 ff ff 	lea    -0xd70(%rbp),%rax
   140ba:	48 89 85 10 f4 ff ff 	mov    %rax,-0xbf0(%rbp)
   140c1:	48 8d 85 90 f2 ff ff 	lea    -0xd70(%rbp),%rax
   140c8:	48 89 85 18 f4 ff ff 	mov    %rax,-0xbe8(%rbp)
   140cf:	48 8d 85 d0 f3 ff ff 	lea    -0xc30(%rbp),%rax
   140d6:	48 83 c0 30          	add    $0x30,%rax
   140da:	48 89 85 a8 f2 ff ff 	mov    %rax,-0xd58(%rbp)
   140e1:	48 8d 85 a8 f2 ff ff 	lea    -0xd58(%rbp),%rax
   140e8:	48 89 85 d0 f4 ff ff 	mov    %rax,-0xb30(%rbp)
   140ef:	48 8d 85 a8 f2 ff ff 	lea    -0xd58(%rbp),%rax
   140f6:	48 89 85 d8 f4 ff ff 	mov    %rax,-0xb28(%rbp)
   140fd:	48 8d 85 a8 f2 ff ff 	lea    -0xd58(%rbp),%rax
   14104:	48 89 85 e0 f4 ff ff 	mov    %rax,-0xb20(%rbp)
   1410b:	48 8d 85 a8 f2 ff ff 	lea    -0xd58(%rbp),%rax
   14112:	48 89 85 e8 f4 ff ff 	mov    %rax,-0xb18(%rbp)
   14119:	48 8d 85 a8 f2 ff ff 	lea    -0xd58(%rbp),%rax
   14120:	48 89 85 f0 f4 ff ff 	mov    %rax,-0xb10(%rbp)
   14127:	48 8d 85 a8 f2 ff ff 	lea    -0xd58(%rbp),%rax
   1412e:	48 89 85 f8 f4 ff ff 	mov    %rax,-0xb08(%rbp)
   14135:	48 8d 85 a8 f2 ff ff 	lea    -0xd58(%rbp),%rax
   1413c:	48 89 85 00 f5 ff ff 	mov    %rax,-0xb00(%rbp)
   14143:	48 8d 85 a8 f2 ff ff 	lea    -0xd58(%rbp),%rax
   1414a:	48 89 85 08 f5 ff ff 	mov    %rax,-0xaf8(%rbp)
   14151:	48 8d 85 a8 f2 ff ff 	lea    -0xd58(%rbp),%rax
   14158:	48 89 85 10 f5 ff ff 	mov    %rax,-0xaf0(%rbp)
   1415f:	48 8d 85 a8 f2 ff ff 	lea    -0xd58(%rbp),%rax
   14166:	48 89 85 18 f5 ff ff 	mov    %rax,-0xae8(%rbp)
   1416d:	48 8d 85 a8 f2 ff ff 	lea    -0xd58(%rbp),%rax
   14174:	48 89 85 20 f5 ff ff 	mov    %rax,-0xae0(%rbp)
   1417b:	48 8d 85 a8 f2 ff ff 	lea    -0xd58(%rbp),%rax
   14182:	48 89 85 28 f5 ff ff 	mov    %rax,-0xad8(%rbp)
   14189:	48 8d 85 a8 f2 ff ff 	lea    -0xd58(%rbp),%rax
   14190:	48 89 85 30 f5 ff ff 	mov    %rax,-0xad0(%rbp)
   14197:	48 8d 85 a8 f2 ff ff 	lea    -0xd58(%rbp),%rax
   1419e:	48 89 85 38 f5 ff ff 	mov    %rax,-0xac8(%rbp)
   141a5:	48 8d 85 a8 f2 ff ff 	lea    -0xd58(%rbp),%rax
   141ac:	48 89 85 40 f5 ff ff 	mov    %rax,-0xac0(%rbp)
   141b3:	48 8d 85 a8 f2 ff ff 	lea    -0xd58(%rbp),%rax
   141ba:	48 89 85 48 f5 ff ff 	mov    %rax,-0xab8(%rbp)
   141c1:	48 8d 85 a8 f2 ff ff 	lea    -0xd58(%rbp),%rax
   141c8:	48 89 85 50 f5 ff ff 	mov    %rax,-0xab0(%rbp)
   141cf:	48 8d 85 a8 f2 ff ff 	lea    -0xd58(%rbp),%rax
   141d6:	48 89 85 58 f5 ff ff 	mov    %rax,-0xaa8(%rbp)
   141dd:	48 8d 85 a8 f2 ff ff 	lea    -0xd58(%rbp),%rax
   141e4:	48 89 85 60 f5 ff ff 	mov    %rax,-0xaa0(%rbp)
   141eb:	48 8d 85 a8 f2 ff ff 	lea    -0xd58(%rbp),%rax
   141f2:	48 89 85 68 f5 ff ff 	mov    %rax,-0xa98(%rbp)
   141f9:	48 8d 85 a8 f2 ff ff 	lea    -0xd58(%rbp),%rax
   14200:	48 89 85 70 f5 ff ff 	mov    %rax,-0xa90(%rbp)
   14207:	48 8d 85 a8 f2 ff ff 	lea    -0xd58(%rbp),%rax
   1420e:	48 89 85 78 f5 ff ff 	mov    %rax,-0xa88(%rbp)
   14215:	48 8d 85 a8 f2 ff ff 	lea    -0xd58(%rbp),%rax
   1421c:	48 89 85 80 f5 ff ff 	mov    %rax,-0xa80(%rbp)
   14223:	48 8d 85 a8 f2 ff ff 	lea    -0xd58(%rbp),%rax
   1422a:	48 89 85 88 f5 ff ff 	mov    %rax,-0xa78(%rbp)
   14231:	48 8d 85 a8 f2 ff ff 	lea    -0xd58(%rbp),%rax
   14238:	48 89 85 90 f5 ff ff 	mov    %rax,-0xa70(%rbp)
   1423f:	48 8d 85 a8 f2 ff ff 	lea    -0xd58(%rbp),%rax
   14246:	48 89 85 98 f5 ff ff 	mov    %rax,-0xa68(%rbp)
   1424d:	48 8d 85 a8 f2 ff ff 	lea    -0xd58(%rbp),%rax
   14254:	48 89 85 a0 f5 ff ff 	mov    %rax,-0xa60(%rbp)
   1425b:	48 8d 85 a8 f2 ff ff 	lea    -0xd58(%rbp),%rax
   14262:	48 89 85 a8 f5 ff ff 	mov    %rax,-0xa58(%rbp)
   14269:	48 8d 85 a8 f2 ff ff 	lea    -0xd58(%rbp),%rax
   14270:	48 89 85 b0 f5 ff ff 	mov    %rax,-0xa50(%rbp)
   14277:	48 8d 85 a8 f2 ff ff 	lea    -0xd58(%rbp),%rax
   1427e:	48 89 85 b8 f5 ff ff 	mov    %rax,-0xa48(%rbp)
   14285:	48 8d 85 a8 f2 ff ff 	lea    -0xd58(%rbp),%rax
   1428c:	48 89 85 c0 f5 ff ff 	mov    %rax,-0xa40(%rbp)
   14293:	48 8d 85 a8 f2 ff ff 	lea    -0xd58(%rbp),%rax
   1429a:	48 89 85 c8 f5 ff ff 	mov    %rax,-0xa38(%rbp)
   142a1:	48 8d 85 a8 f2 ff ff 	lea    -0xd58(%rbp),%rax
   142a8:	48 89 85 d0 f5 ff ff 	mov    %rax,-0xa30(%rbp)
   142af:	48 8d 85 a8 f2 ff ff 	lea    -0xd58(%rbp),%rax
   142b6:	48 89 85 d8 f5 ff ff 	mov    %rax,-0xa28(%rbp)
   142bd:	48 8d 85 a8 f2 ff ff 	lea    -0xd58(%rbp),%rax
   142c4:	48 89 85 e0 f5 ff ff 	mov    %rax,-0xa20(%rbp)
   142cb:	c7 85 40 f2 ff ff ff 	movl   $0xffffffff,-0xdc0(%rbp)
   142d2:	ff ff ff 
   142d5:	c7 85 44 f2 ff ff 00 	movl   $0x0,-0xdbc(%rbp)
   142dc:	00 00 00 
   142df:	c7 85 48 f2 ff ff d5 	movl   $0x2e9c5ad5,-0xdb8(%rbp)
   142e6:	5a 9c 2e 
   142e9:	c7 85 28 f2 ff ff 01 	movl   $0x1,-0xdd8(%rbp)
   142f0:	00 00 00 
   142f3:	48 8d 85 a0 f2 ff ff 	lea    -0xd60(%rbp),%rax
   142fa:	48 89 85 b0 f2 ff ff 	mov    %rax,-0xd50(%rbp)
   14301:	48 8d 85 b0 f2 ff ff 	lea    -0xd50(%rbp),%rax
   14308:	48 89 85 f0 f5 ff ff 	mov    %rax,-0xa10(%rbp)
   1430f:	48 8d 85 b0 f2 ff ff 	lea    -0xd50(%rbp),%rax
   14316:	48 89 85 f8 f5 ff ff 	mov    %rax,-0xa08(%rbp)
   1431d:	48 8d 85 b0 f2 ff ff 	lea    -0xd50(%rbp),%rax
   14324:	48 89 85 00 f6 ff ff 	mov    %rax,-0xa00(%rbp)
   1432b:	48 8d 85 b0 f2 ff ff 	lea    -0xd50(%rbp),%rax
   14332:	48 89 85 08 f6 ff ff 	mov    %rax,-0x9f8(%rbp)
   14339:	48 8d 85 b0 f2 ff ff 	lea    -0xd50(%rbp),%rax
   14340:	48 89 85 10 f6 ff ff 	mov    %rax,-0x9f0(%rbp)
   14347:	48 8d 85 b0 f2 ff ff 	lea    -0xd50(%rbp),%rax
   1434e:	48 89 85 18 f6 ff ff 	mov    %rax,-0x9e8(%rbp)
   14355:	48 8d 85 b0 f2 ff ff 	lea    -0xd50(%rbp),%rax
   1435c:	48 89 85 20 f6 ff ff 	mov    %rax,-0x9e0(%rbp)
   14363:	48 8d 85 b0 f2 ff ff 	lea    -0xd50(%rbp),%rax
   1436a:	48 89 85 28 f6 ff ff 	mov    %rax,-0x9d8(%rbp)
   14371:	48 c7 85 30 f6 ff ff 	movq   $0x0,-0x9d0(%rbp)
   14378:	00 00 00 00 
   1437c:	48 8d 85 b0 f2 ff ff 	lea    -0xd50(%rbp),%rax
   14383:	48 89 85 38 f6 ff ff 	mov    %rax,-0x9c8(%rbp)
   1438a:	48 8d 85 b0 f2 ff ff 	lea    -0xd50(%rbp),%rax
   14391:	48 89 85 40 f6 ff ff 	mov    %rax,-0x9c0(%rbp)
   14398:	48 8d 85 b0 f2 ff ff 	lea    -0xd50(%rbp),%rax
   1439f:	48 89 85 48 f6 ff ff 	mov    %rax,-0x9b8(%rbp)
   143a6:	48 8d 85 b0 f2 ff ff 	lea    -0xd50(%rbp),%rax
   143ad:	48 89 85 50 f6 ff ff 	mov    %rax,-0x9b0(%rbp)
   143b4:	48 c7 85 58 f6 ff ff 	movq   $0x0,-0x9a8(%rbp)
   143bb:	00 00 00 00 
   143bf:	48 8d 85 b0 f2 ff ff 	lea    -0xd50(%rbp),%rax
   143c6:	48 89 85 60 f6 ff ff 	mov    %rax,-0x9a0(%rbp)
   143cd:	48 8d 85 b0 f2 ff ff 	lea    -0xd50(%rbp),%rax
   143d4:	48 89 85 68 f6 ff ff 	mov    %rax,-0x998(%rbp)
   143db:	48 c7 85 70 f6 ff ff 	movq   $0x0,-0x990(%rbp)
   143e2:	00 00 00 00 
   143e6:	48 8d 85 b0 f2 ff ff 	lea    -0xd50(%rbp),%rax
   143ed:	48 89 85 78 f6 ff ff 	mov    %rax,-0x988(%rbp)
   143f4:	48 8d 85 b0 f2 ff ff 	lea    -0xd50(%rbp),%rax
   143fb:	48 89 85 80 f6 ff ff 	mov    %rax,-0x980(%rbp)
   14402:	48 c7 85 88 f6 ff ff 	movq   $0x0,-0x978(%rbp)
   14409:	00 00 00 00 
   1440d:	48 8d 85 b0 f2 ff ff 	lea    -0xd50(%rbp),%rax
   14414:	48 89 85 90 f6 ff ff 	mov    %rax,-0x970(%rbp)
   1441b:	48 8d 85 b0 f2 ff ff 	lea    -0xd50(%rbp),%rax
   14422:	48 89 85 98 f6 ff ff 	mov    %rax,-0x968(%rbp)
   14429:	48 c7 85 a0 f6 ff ff 	movq   $0x0,-0x960(%rbp)
   14430:	00 00 00 00 
   14434:	48 c7 85 a8 f6 ff ff 	movq   $0x0,-0x958(%rbp)
   1443b:	00 00 00 00 
   1443f:	48 8d 85 b0 f2 ff ff 	lea    -0xd50(%rbp),%rax
   14446:	48 89 85 b0 f6 ff ff 	mov    %rax,-0x950(%rbp)
   1444d:	48 8d 85 b0 f2 ff ff 	lea    -0xd50(%rbp),%rax
   14454:	48 89 85 b8 f6 ff ff 	mov    %rax,-0x948(%rbp)
   1445b:	48 8d 85 b0 f2 ff ff 	lea    -0xd50(%rbp),%rax
   14462:	48 89 85 c0 f6 ff ff 	mov    %rax,-0x940(%rbp)
   14469:	48 c7 85 c8 f6 ff ff 	movq   $0x0,-0x938(%rbp)
   14470:	00 00 00 00 
   14474:	48 c7 85 d0 f6 ff ff 	movq   $0x0,-0x930(%rbp)
   1447b:	00 00 00 00 
   1447f:	48 8d 85 b0 f2 ff ff 	lea    -0xd50(%rbp),%rax
   14486:	48 89 85 d8 f6 ff ff 	mov    %rax,-0x928(%rbp)
   1448d:	48 8d 85 b0 f2 ff ff 	lea    -0xd50(%rbp),%rax
   14494:	48 89 85 e0 f6 ff ff 	mov    %rax,-0x920(%rbp)
   1449b:	48 8d 85 b0 f2 ff ff 	lea    -0xd50(%rbp),%rax
   144a2:	48 89 85 e8 f6 ff ff 	mov    %rax,-0x918(%rbp)
   144a9:	48 c7 85 f0 f6 ff ff 	movq   $0x0,-0x910(%rbp)
   144b0:	00 00 00 00 
   144b4:	48 c7 85 f8 f6 ff ff 	movq   $0x0,-0x908(%rbp)
   144bb:	00 00 00 00 
   144bf:	48 8d 85 b0 f2 ff ff 	lea    -0xd50(%rbp),%rax
   144c6:	48 89 85 00 f7 ff ff 	mov    %rax,-0x900(%rbp)
   144cd:	48 8d 85 b0 f2 ff ff 	lea    -0xd50(%rbp),%rax
   144d4:	48 89 85 08 f7 ff ff 	mov    %rax,-0x8f8(%rbp)
   144db:	48 c7 85 10 f7 ff ff 	movq   $0x0,-0x8f0(%rbp)
   144e2:	00 00 00 00 
   144e6:	48 8d 85 b0 f2 ff ff 	lea    -0xd50(%rbp),%rax
   144ed:	48 89 85 18 f7 ff ff 	mov    %rax,-0x8e8(%rbp)
   144f4:	48 8d 85 b0 f2 ff ff 	lea    -0xd50(%rbp),%rax
   144fb:	48 89 85 20 f7 ff ff 	mov    %rax,-0x8e0(%rbp)
   14502:	48 c7 85 28 f7 ff ff 	movq   $0x0,-0x8d8(%rbp)
   14509:	00 00 00 00 
   1450d:	48 8d 85 b0 f2 ff ff 	lea    -0xd50(%rbp),%rax
   14514:	48 89 85 30 f7 ff ff 	mov    %rax,-0x8d0(%rbp)
   1451b:	48 8d 85 b0 f2 ff ff 	lea    -0xd50(%rbp),%rax
   14522:	48 89 85 38 f7 ff ff 	mov    %rax,-0x8c8(%rbp)
   14529:	48 c7 85 40 f7 ff ff 	movq   $0x0,-0x8c0(%rbp)
   14530:	00 00 00 00 
   14534:	48 8d 85 b0 f2 ff ff 	lea    -0xd50(%rbp),%rax
   1453b:	48 89 85 48 f7 ff ff 	mov    %rax,-0x8b8(%rbp)
   14542:	48 8d 85 b0 f2 ff ff 	lea    -0xd50(%rbp),%rax
   14549:	48 89 85 50 f7 ff ff 	mov    %rax,-0x8b0(%rbp)
   14550:	48 8d 85 b0 f2 ff ff 	lea    -0xd50(%rbp),%rax
   14557:	48 89 85 58 f7 ff ff 	mov    %rax,-0x8a8(%rbp)
   1455e:	48 8d 85 b0 f2 ff ff 	lea    -0xd50(%rbp),%rax
   14565:	48 89 85 60 f7 ff ff 	mov    %rax,-0x8a0(%rbp)
   1456c:	48 c7 85 68 f7 ff ff 	movq   $0x0,-0x898(%rbp)
   14573:	00 00 00 00 
   14577:	48 c7 85 70 f7 ff ff 	movq   $0x0,-0x890(%rbp)
   1457e:	00 00 00 00 
   14582:	48 c7 85 78 f7 ff ff 	movq   $0x0,-0x888(%rbp)
   14589:	00 00 00 00 
   1458d:	48 8d 85 b0 f2 ff ff 	lea    -0xd50(%rbp),%rax
   14594:	48 89 85 80 f7 ff ff 	mov    %rax,-0x880(%rbp)
   1459b:	48 8d 85 b0 f2 ff ff 	lea    -0xd50(%rbp),%rax
   145a2:	48 89 85 88 f7 ff ff 	mov    %rax,-0x878(%rbp)
   145a9:	48 8d 85 b0 f2 ff ff 	lea    -0xd50(%rbp),%rax
   145b0:	48 89 85 90 f7 ff ff 	mov    %rax,-0x870(%rbp)
   145b7:	48 8d 85 b0 f2 ff ff 	lea    -0xd50(%rbp),%rax
   145be:	48 89 85 98 f7 ff ff 	mov    %rax,-0x868(%rbp)
   145c5:	48 8d 85 b0 f2 ff ff 	lea    -0xd50(%rbp),%rax
   145cc:	48 89 85 a0 f7 ff ff 	mov    %rax,-0x860(%rbp)
   145d3:	48 8d 85 b0 f2 ff ff 	lea    -0xd50(%rbp),%rax
   145da:	48 89 85 a8 f7 ff ff 	mov    %rax,-0x858(%rbp)
   145e1:	48 c7 85 b0 f7 ff ff 	movq   $0x0,-0x850(%rbp)
   145e8:	00 00 00 00 
   145ec:	48 8d 85 b0 f2 ff ff 	lea    -0xd50(%rbp),%rax
   145f3:	48 89 85 b8 f7 ff ff 	mov    %rax,-0x848(%rbp)
   145fa:	48 c7 85 c0 f7 ff ff 	movq   $0x0,-0x840(%rbp)
   14601:	00 00 00 00 
   14605:	48 8d 85 b0 f2 ff ff 	lea    -0xd50(%rbp),%rax
   1460c:	48 89 85 c8 f7 ff ff 	mov    %rax,-0x838(%rbp)
   14613:	48 8d 85 b0 f2 ff ff 	lea    -0xd50(%rbp),%rax
   1461a:	48 89 85 d0 f7 ff ff 	mov    %rax,-0x830(%rbp)
   14621:	48 8d 85 b0 f2 ff ff 	lea    -0xd50(%rbp),%rax
   14628:	48 89 85 d8 f7 ff ff 	mov    %rax,-0x828(%rbp)
   1462f:	48 8d 85 b0 f2 ff ff 	lea    -0xd50(%rbp),%rax
   14636:	48 89 85 e0 f7 ff ff 	mov    %rax,-0x820(%rbp)
   1463d:	48 8d 85 b0 f2 ff ff 	lea    -0xd50(%rbp),%rax
   14644:	48 89 85 e8 f7 ff ff 	mov    %rax,-0x818(%rbp)
   1464b:	48 8d 85 b0 f2 ff ff 	lea    -0xd50(%rbp),%rax
   14652:	48 89 85 f0 f7 ff ff 	mov    %rax,-0x810(%rbp)
   14659:	48 8d 85 b0 f2 ff ff 	lea    -0xd50(%rbp),%rax
   14660:	48 89 85 f8 f7 ff ff 	mov    %rax,-0x808(%rbp)
   14667:	48 8d 85 b0 f2 ff ff 	lea    -0xd50(%rbp),%rax
   1466e:	48 89 85 00 f8 ff ff 	mov    %rax,-0x800(%rbp)
   14675:	48 8d 85 b0 f2 ff ff 	lea    -0xd50(%rbp),%rax
   1467c:	48 89 85 08 f8 ff ff 	mov    %rax,-0x7f8(%rbp)
   14683:	48 8d 85 b0 f2 ff ff 	lea    -0xd50(%rbp),%rax
   1468a:	48 89 85 10 f8 ff ff 	mov    %rax,-0x7f0(%rbp)
   14691:	48 c7 85 18 f8 ff ff 	movq   $0x0,-0x7e8(%rbp)
   14698:	00 00 00 00 
   1469c:	48 8d 85 b0 f2 ff ff 	lea    -0xd50(%rbp),%rax
   146a3:	48 89 85 20 f8 ff ff 	mov    %rax,-0x7e0(%rbp)
   146aa:	48 c7 85 28 f8 ff ff 	movq   $0x0,-0x7d8(%rbp)
   146b1:	00 00 00 00 
   146b5:	48 8d 85 b0 f2 ff ff 	lea    -0xd50(%rbp),%rax
   146bc:	48 89 85 30 f8 ff ff 	mov    %rax,-0x7d0(%rbp)
   146c3:	48 8d 85 b0 f2 ff ff 	lea    -0xd50(%rbp),%rax
   146ca:	48 89 85 38 f8 ff ff 	mov    %rax,-0x7c8(%rbp)
   146d1:	48 8d 85 b0 f2 ff ff 	lea    -0xd50(%rbp),%rax
   146d8:	48 89 85 40 f8 ff ff 	mov    %rax,-0x7c0(%rbp)
   146df:	48 8d 85 b0 f2 ff ff 	lea    -0xd50(%rbp),%rax
   146e6:	48 89 85 48 f8 ff ff 	mov    %rax,-0x7b8(%rbp)
   146ed:	48 8d 85 b0 f2 ff ff 	lea    -0xd50(%rbp),%rax
   146f4:	48 89 85 50 f8 ff ff 	mov    %rax,-0x7b0(%rbp)
   146fb:	48 8d 85 b0 f2 ff ff 	lea    -0xd50(%rbp),%rax
   14702:	48 89 85 58 f8 ff ff 	mov    %rax,-0x7a8(%rbp)
   14709:	48 c7 85 60 f8 ff ff 	movq   $0x0,-0x7a0(%rbp)
   14710:	00 00 00 00 
   14714:	48 c7 85 68 f8 ff ff 	movq   $0x0,-0x798(%rbp)
   1471b:	00 00 00 00 
   1471f:	48 c7 85 f8 f2 ff ff 	movq   $0x0,-0xd08(%rbp)
   14726:	00 00 00 00 
   1472a:	48 8d 05 d7 c3 00 00 	lea    0xc3d7(%rip),%rax        # 20b08 <g_793>
   14731:	48 89 85 00 f3 ff ff 	mov    %rax,-0xd00(%rbp)
   14738:	48 b8 69 dd 97 d5 66 	movabs $0x2276af66d597dd69,%rax
   1473f:	af 76 22 
   14742:	48 89 85 08 f3 ff ff 	mov    %rax,-0xcf8(%rbp)
   14749:	48 8d 05 b4 91 00 00 	lea    0x91b4(%rip),%rax        # 1d904 <g_234+0x44>
   14750:	48 89 85 80 f3 ff ff 	mov    %rax,-0xc80(%rbp)
   14757:	48 8d 05 f6 9f 00 00 	lea    0x9ff6(%rip),%rax        # 1e754 <g_605>
   1475e:	48 89 85 88 f3 ff ff 	mov    %rax,-0xc78(%rbp)
   14765:	48 8d 05 98 91 00 00 	lea    0x9198(%rip),%rax        # 1d904 <g_234+0x44>
   1476c:	48 89 85 90 f3 ff ff 	mov    %rax,-0xc70(%rbp)
   14773:	48 8d 05 da 9f 00 00 	lea    0x9fda(%rip),%rax        # 1e754 <g_605>
   1477a:	48 89 85 98 f3 ff ff 	mov    %rax,-0xc68(%rbp)
   14781:	48 8d 05 7c 91 00 00 	lea    0x917c(%rip),%rax        # 1d904 <g_234+0x44>
   14788:	48 89 85 a0 f3 ff ff 	mov    %rax,-0xc60(%rbp)
   1478f:	48 8d 05 be 9f 00 00 	lea    0x9fbe(%rip),%rax        # 1e754 <g_605>
   14796:	48 89 85 a8 f3 ff ff 	mov    %rax,-0xc58(%rbp)
   1479d:	48 8d 05 60 91 00 00 	lea    0x9160(%rip),%rax        # 1d904 <g_234+0x44>
   147a4:	48 89 85 b0 f3 ff ff 	mov    %rax,-0xc50(%rbp)
   147ab:	48 8d 05 a2 9f 00 00 	lea    0x9fa2(%rip),%rax        # 1e754 <g_605>
   147b2:	48 89 85 b8 f3 ff ff 	mov    %rax,-0xc48(%rbp)
   147b9:	48 8d 05 44 91 00 00 	lea    0x9144(%rip),%rax        # 1d904 <g_234+0x44>
   147c0:	48 89 85 c0 f3 ff ff 	mov    %rax,-0xc40(%rbp)
   147c7:	48 c7 85 e8 f1 ff ff 	movq   $0x0,-0xe18(%rbp)
   147ce:	00 00 00 00 
   147d2:	e9 eb 01 00 00       	jmpq   149c2 <func_98+0xa66>
   147d7:	c6 85 1b f2 ff ff fc 	movb   $0xfc,-0xde5(%rbp)
   147de:	48 8d 05 43 88 00 00 	lea    0x8843(%rip),%rax        # 1d028 <g_2>
   147e5:	48 89 85 50 f3 ff ff 	mov    %rax,-0xcb0(%rbp)
   147ec:	48 8d 05 8d 90 00 00 	lea    0x908d(%rip),%rax        # 1d880 <g_105>
   147f3:	48 89 85 58 f3 ff ff 	mov    %rax,-0xca8(%rbp)
   147fa:	c7 85 68 f2 ff ff ff 	movl   $0xffffffff,-0xd98(%rbp)
   14801:	ff ff ff 
   14804:	c7 85 6c f2 ff ff fb 	movl   $0xfffffffb,-0xd94(%rbp)
   1480b:	ff ff ff 
   1480e:	c7 85 d8 f2 ff ff 04 	movl   $0x4,-0xd28(%rbp)
   14815:	00 00 00 
   14818:	48 8d 85 80 f2 ff ff 	lea    -0xd80(%rbp),%rax
   1481f:	48 89 85 60 f3 ff ff 	mov    %rax,-0xca0(%rbp)
   14826:	c7 85 70 f2 ff ff 44 	movl   $0x8a90a744,-0xd90(%rbp)
   1482d:	a7 90 8a 
   14830:	66 c7 85 20 f2 ff ff 	movw   $0x47f8,-0xde0(%rbp)
   14837:	f8 47 
   14839:	c7 85 74 f2 ff ff 5b 	movl   $0xb3ba1b5b,-0xd8c(%rbp)
   14840:	1b ba b3 
   14843:	c6 85 1c f2 ff ff c0 	movb   $0xc0,-0xde4(%rbp)
   1484a:	48 8d 85 88 f2 ff ff 	lea    -0xd78(%rbp),%rax
   14851:	48 89 85 68 f3 ff ff 	mov    %rax,-0xc98(%rbp)
   14858:	66 c7 85 22 f2 ff ff 	movw   $0xfff9,-0xdde(%rbp)
   1485f:	f9 ff 
   14861:	c6 85 1d f2 ff ff 01 	movb   $0x1,-0xde3(%rbp)
   14868:	48 8d 85 70 f8 ff ff 	lea    -0x790(%rbp),%rax
   1486f:	48 8d 15 4a b9 00 00 	lea    0xb94a(%rip),%rdx        # 201c0 <g_3508+0x1648>
   14876:	b9 3c 00 00 00       	mov    $0x3c,%ecx
   1487b:	48 89 c7             	mov    %rax,%rdi
   1487e:	48 89 d6             	mov    %rdx,%rsi
   14881:	f3 48 a5             	rep movsq %ds:(%rsi),%es:(%rdi)
   14884:	c7 85 78 f2 ff ff ff 	movl   $0xffffffff,-0xd88(%rbp)
   1488b:	ff ff ff 
   1488e:	48 c7 85 70 f3 ff ff 	movq   $0x0,-0xc90(%rbp)
   14895:	00 00 00 00 
   14899:	48 8d 85 d8 f2 ff ff 	lea    -0xd28(%rbp),%rax
   148a0:	48 89 85 20 f4 ff ff 	mov    %rax,-0xbe0(%rbp)
   148a7:	48 8d 85 d8 f2 ff ff 	lea    -0xd28(%rbp),%rax
   148ae:	48 89 85 28 f4 ff ff 	mov    %rax,-0xbd8(%rbp)
   148b5:	48 c7 85 30 f4 ff ff 	movq   $0x0,-0xbd0(%rbp)
   148bc:	00 00 00 00 
   148c0:	48 8d 85 d8 f2 ff ff 	lea    -0xd28(%rbp),%rax
   148c7:	48 89 85 38 f4 ff ff 	mov    %rax,-0xbc8(%rbp)
   148ce:	48 8d 85 d8 f2 ff ff 	lea    -0xd28(%rbp),%rax
   148d5:	48 89 85 40 f4 ff ff 	mov    %rax,-0xbc0(%rbp)
   148dc:	48 8d 85 d8 f2 ff ff 	lea    -0xd28(%rbp),%rax
   148e3:	48 89 85 48 f4 ff ff 	mov    %rax,-0xbb8(%rbp)
   148ea:	48 8d 85 d8 f2 ff ff 	lea    -0xd28(%rbp),%rax
   148f1:	48 89 85 50 f4 ff ff 	mov    %rax,-0xbb0(%rbp)
   148f8:	48 c7 85 58 f4 ff ff 	movq   $0x0,-0xba8(%rbp)
   148ff:	00 00 00 00 
   14903:	48 8d 85 d8 f2 ff ff 	lea    -0xd28(%rbp),%rax
   1490a:	48 89 85 60 f4 ff ff 	mov    %rax,-0xba0(%rbp)
   14911:	48 8d 85 d8 f2 ff ff 	lea    -0xd28(%rbp),%rax
   14918:	48 89 85 68 f4 ff ff 	mov    %rax,-0xb98(%rbp)
   1491f:	48 8d 85 d8 f2 ff ff 	lea    -0xd28(%rbp),%rax
   14926:	48 89 85 70 f4 ff ff 	mov    %rax,-0xb90(%rbp)
   1492d:	48 c7 85 78 f4 ff ff 	movq   $0x0,-0xb88(%rbp)
   14934:	00 00 00 00 
   14938:	48 8d 85 d8 f2 ff ff 	lea    -0xd28(%rbp),%rax
   1493f:	48 89 85 80 f4 ff ff 	mov    %rax,-0xb80(%rbp)
   14946:	48 8d 85 d8 f2 ff ff 	lea    -0xd28(%rbp),%rax
   1494d:	48 89 85 88 f4 ff ff 	mov    %rax,-0xb78(%rbp)
   14954:	48 8d 85 d8 f2 ff ff 	lea    -0xd28(%rbp),%rax
   1495b:	48 89 85 90 f4 ff ff 	mov    %rax,-0xb70(%rbp)
   14962:	48 8d 85 d8 f2 ff ff 	lea    -0xd28(%rbp),%rax
   14969:	48 89 85 98 f4 ff ff 	mov    %rax,-0xb68(%rbp)
   14970:	48 c7 85 a0 f4 ff ff 	movq   $0x0,-0xb60(%rbp)
   14977:	00 00 00 00 
   1497b:	48 8d 85 d8 f2 ff ff 	lea    -0xd28(%rbp),%rax
   14982:	48 89 85 a8 f4 ff ff 	mov    %rax,-0xb58(%rbp)
   14989:	48 8d 85 d8 f2 ff ff 	lea    -0xd28(%rbp),%rax
   14990:	48 89 85 b0 f4 ff ff 	mov    %rax,-0xb50(%rbp)
   14997:	48 8d 85 d8 f2 ff ff 	lea    -0xd28(%rbp),%rax
   1499e:	48 89 85 b8 f4 ff ff 	mov    %rax,-0xb48(%rbp)
   149a5:	48 c7 85 c0 f4 ff ff 	movq   $0x0,-0xb40(%rbp)
   149ac:	00 00 00 00 
   149b0:	c7 85 7c f2 ff ff 3d 	movl   $0x108cfe3d,-0xd84(%rbp)
   149b7:	fe 8c 10 
   149ba:	48 83 85 e8 f1 ff ff 	addq   $0x1,-0xe18(%rbp)
   149c1:	01 
   149c2:	48 83 bd e8 f1 ff ff 	cmpq   $0x15,-0xe18(%rbp)
   149c9:	15 
   149ca:	0f 85 07 fe ff ff    	jne    147d7 <func_98+0x87b>
   149d0:	c7 05 76 ce 00 00 e4 	movl   $0xffffffe4,0xce76(%rip)        # 21850 <g_149>
   149d7:	ff ff ff 
   149da:	e9 60 0e 00 00       	jmpq   1583f <func_98+0x18e3>
   149df:	c7 85 4c f2 ff ff 01 	movl   $0x1,-0xdb4(%rbp)
   149e6:	00 00 00 
   149e9:	c7 85 50 f2 ff ff 0c 	movl   $0x4a374c0c,-0xdb0(%rbp)
   149f0:	4c 37 4a 
   149f3:	c7 85 54 f2 ff ff 07 	movl   $0x7,-0xdac(%rbp)
   149fa:	00 00 00 
   149fd:	c7 85 58 f2 ff ff 01 	movl   $0x1,-0xda8(%rbp)
   14a04:	00 00 00 
   14a07:	48 8d 05 9a 8e 00 00 	lea    0x8e9a(%rip),%rax        # 1d8a8 <g_203>
   14a0e:	48 89 85 10 f3 ff ff 	mov    %rax,-0xcf0(%rbp)
   14a15:	48 8d 85 88 f2 ff ff 	lea    -0xd78(%rbp),%rax
   14a1c:	48 89 85 b8 f2 ff ff 	mov    %rax,-0xd48(%rbp)
   14a23:	48 8d 85 b8 f2 ff ff 	lea    -0xd48(%rbp),%rax
   14a2a:	48 89 85 18 f3 ff ff 	mov    %rax,-0xce8(%rbp)
   14a31:	48 8d 85 90 f2 ff ff 	lea    -0xd70(%rbp),%rax
   14a38:	48 89 85 c0 f2 ff ff 	mov    %rax,-0xd40(%rbp)
   14a3f:	48 8d 85 c0 f2 ff ff 	lea    -0xd40(%rbp),%rax
   14a46:	48 89 85 20 f3 ff ff 	mov    %rax,-0xce0(%rbp)
   14a4d:	48 8d 05 26 9d 00 00 	lea    0x9d26(%rip),%rax        # 1e77a <g_653+0x1a>
   14a54:	48 89 85 c8 f2 ff ff 	mov    %rax,-0xd38(%rbp)
   14a5b:	48 8d 85 c8 f2 ff ff 	lea    -0xd38(%rbp),%rax
   14a62:	48 89 85 d0 f2 ff ff 	mov    %rax,-0xd30(%rbp)
   14a69:	48 8d 85 d0 f2 ff ff 	lea    -0xd30(%rbp),%rax
   14a70:	48 89 85 d8 f2 ff ff 	mov    %rax,-0xd28(%rbp)
   14a77:	48 8d 85 d8 f2 ff ff 	lea    -0xd28(%rbp),%rax
   14a7e:	48 89 85 70 f8 ff ff 	mov    %rax,-0x790(%rbp)
   14a85:	48 8d 85 d8 f2 ff ff 	lea    -0xd28(%rbp),%rax
   14a8c:	48 89 85 78 f8 ff ff 	mov    %rax,-0x788(%rbp)
   14a93:	48 8d 85 d8 f2 ff ff 	lea    -0xd28(%rbp),%rax
   14a9a:	48 89 85 80 f8 ff ff 	mov    %rax,-0x780(%rbp)
   14aa1:	48 8d 85 d8 f2 ff ff 	lea    -0xd28(%rbp),%rax
   14aa8:	48 89 85 88 f8 ff ff 	mov    %rax,-0x778(%rbp)
   14aaf:	48 8d 85 d8 f2 ff ff 	lea    -0xd28(%rbp),%rax
   14ab6:	48 89 85 90 f8 ff ff 	mov    %rax,-0x770(%rbp)
   14abd:	48 8d 85 d8 f2 ff ff 	lea    -0xd28(%rbp),%rax
   14ac4:	48 89 85 98 f8 ff ff 	mov    %rax,-0x768(%rbp)
   14acb:	48 8d 85 d8 f2 ff ff 	lea    -0xd28(%rbp),%rax
   14ad2:	48 89 85 a0 f8 ff ff 	mov    %rax,-0x760(%rbp)
   14ad9:	48 8d 85 d8 f2 ff ff 	lea    -0xd28(%rbp),%rax
   14ae0:	48 89 85 a8 f8 ff ff 	mov    %rax,-0x758(%rbp)
   14ae7:	48 8d 85 d8 f2 ff ff 	lea    -0xd28(%rbp),%rax
   14aee:	48 89 85 b0 f8 ff ff 	mov    %rax,-0x750(%rbp)
   14af5:	48 8d 85 d8 f2 ff ff 	lea    -0xd28(%rbp),%rax
   14afc:	48 89 85 b8 f8 ff ff 	mov    %rax,-0x748(%rbp)
   14b03:	48 8d 85 d8 f2 ff ff 	lea    -0xd28(%rbp),%rax
   14b0a:	48 89 85 c0 f8 ff ff 	mov    %rax,-0x740(%rbp)
   14b11:	48 8d 85 d8 f2 ff ff 	lea    -0xd28(%rbp),%rax
   14b18:	48 89 85 c8 f8 ff ff 	mov    %rax,-0x738(%rbp)
   14b1f:	48 8d 85 d8 f2 ff ff 	lea    -0xd28(%rbp),%rax
   14b26:	48 89 85 d0 f8 ff ff 	mov    %rax,-0x730(%rbp)
   14b2d:	48 8d 85 d8 f2 ff ff 	lea    -0xd28(%rbp),%rax
   14b34:	48 89 85 d8 f8 ff ff 	mov    %rax,-0x728(%rbp)
   14b3b:	48 8d 85 d8 f2 ff ff 	lea    -0xd28(%rbp),%rax
   14b42:	48 89 85 e0 f8 ff ff 	mov    %rax,-0x720(%rbp)
   14b49:	48 8d 85 d8 f2 ff ff 	lea    -0xd28(%rbp),%rax
   14b50:	48 89 85 e8 f8 ff ff 	mov    %rax,-0x718(%rbp)
   14b57:	48 8d 85 d8 f2 ff ff 	lea    -0xd28(%rbp),%rax
   14b5e:	48 89 85 f0 f8 ff ff 	mov    %rax,-0x710(%rbp)
   14b65:	48 8d 85 d8 f2 ff ff 	lea    -0xd28(%rbp),%rax
   14b6c:	48 89 85 f8 f8 ff ff 	mov    %rax,-0x708(%rbp)
   14b73:	48 8d 85 d8 f2 ff ff 	lea    -0xd28(%rbp),%rax
   14b7a:	48 89 85 00 f9 ff ff 	mov    %rax,-0x700(%rbp)
   14b81:	48 8d 85 d8 f2 ff ff 	lea    -0xd28(%rbp),%rax
   14b88:	48 89 85 08 f9 ff ff 	mov    %rax,-0x6f8(%rbp)
   14b8f:	48 8d 85 d8 f2 ff ff 	lea    -0xd28(%rbp),%rax
   14b96:	48 89 85 10 f9 ff ff 	mov    %rax,-0x6f0(%rbp)
   14b9d:	48 8d 85 d8 f2 ff ff 	lea    -0xd28(%rbp),%rax
   14ba4:	48 89 85 18 f9 ff ff 	mov    %rax,-0x6e8(%rbp)
   14bab:	48 8d 85 d8 f2 ff ff 	lea    -0xd28(%rbp),%rax
   14bb2:	48 89 85 20 f9 ff ff 	mov    %rax,-0x6e0(%rbp)
   14bb9:	48 8d 85 d8 f2 ff ff 	lea    -0xd28(%rbp),%rax
   14bc0:	48 89 85 28 f9 ff ff 	mov    %rax,-0x6d8(%rbp)
   14bc7:	48 8d 85 d8 f2 ff ff 	lea    -0xd28(%rbp),%rax
   14bce:	48 89 85 30 f9 ff ff 	mov    %rax,-0x6d0(%rbp)
   14bd5:	48 8d 85 d8 f2 ff ff 	lea    -0xd28(%rbp),%rax
   14bdc:	48 89 85 38 f9 ff ff 	mov    %rax,-0x6c8(%rbp)
   14be3:	48 8d 85 d8 f2 ff ff 	lea    -0xd28(%rbp),%rax
   14bea:	48 89 85 40 f9 ff ff 	mov    %rax,-0x6c0(%rbp)
   14bf1:	48 8d 85 d8 f2 ff ff 	lea    -0xd28(%rbp),%rax
   14bf8:	48 89 85 48 f9 ff ff 	mov    %rax,-0x6b8(%rbp)
   14bff:	48 8d 85 d8 f2 ff ff 	lea    -0xd28(%rbp),%rax
   14c06:	48 89 85 50 f9 ff ff 	mov    %rax,-0x6b0(%rbp)
   14c0d:	48 8d 85 d8 f2 ff ff 	lea    -0xd28(%rbp),%rax
   14c14:	48 89 85 58 f9 ff ff 	mov    %rax,-0x6a8(%rbp)
   14c1b:	48 8d 85 d8 f2 ff ff 	lea    -0xd28(%rbp),%rax
   14c22:	48 89 85 60 f9 ff ff 	mov    %rax,-0x6a0(%rbp)
   14c29:	48 c7 85 68 f9 ff ff 	movq   $0x0,-0x698(%rbp)
   14c30:	00 00 00 00 
   14c34:	48 8d 85 d8 f2 ff ff 	lea    -0xd28(%rbp),%rax
   14c3b:	48 89 85 70 f9 ff ff 	mov    %rax,-0x690(%rbp)
   14c42:	48 8d 85 d8 f2 ff ff 	lea    -0xd28(%rbp),%rax
   14c49:	48 89 85 78 f9 ff ff 	mov    %rax,-0x688(%rbp)
   14c50:	48 8d 85 d8 f2 ff ff 	lea    -0xd28(%rbp),%rax
   14c57:	48 89 85 80 f9 ff ff 	mov    %rax,-0x680(%rbp)
   14c5e:	48 8d 85 d8 f2 ff ff 	lea    -0xd28(%rbp),%rax
   14c65:	48 89 85 88 f9 ff ff 	mov    %rax,-0x678(%rbp)
   14c6c:	48 8d 85 d8 f2 ff ff 	lea    -0xd28(%rbp),%rax
   14c73:	48 89 85 90 f9 ff ff 	mov    %rax,-0x670(%rbp)
   14c7a:	48 8d 85 d8 f2 ff ff 	lea    -0xd28(%rbp),%rax
   14c81:	48 89 85 98 f9 ff ff 	mov    %rax,-0x668(%rbp)
   14c88:	48 8d 85 d8 f2 ff ff 	lea    -0xd28(%rbp),%rax
   14c8f:	48 89 85 a0 f9 ff ff 	mov    %rax,-0x660(%rbp)
   14c96:	48 8d 85 d8 f2 ff ff 	lea    -0xd28(%rbp),%rax
   14c9d:	48 89 85 a8 f9 ff ff 	mov    %rax,-0x658(%rbp)
   14ca4:	48 8d 85 d8 f2 ff ff 	lea    -0xd28(%rbp),%rax
   14cab:	48 89 85 b0 f9 ff ff 	mov    %rax,-0x650(%rbp)
   14cb2:	48 8d 85 d8 f2 ff ff 	lea    -0xd28(%rbp),%rax
   14cb9:	48 89 85 b8 f9 ff ff 	mov    %rax,-0x648(%rbp)
   14cc0:	48 8d 85 d8 f2 ff ff 	lea    -0xd28(%rbp),%rax
   14cc7:	48 89 85 c0 f9 ff ff 	mov    %rax,-0x640(%rbp)
   14cce:	48 8d 85 d8 f2 ff ff 	lea    -0xd28(%rbp),%rax
   14cd5:	48 89 85 c8 f9 ff ff 	mov    %rax,-0x638(%rbp)
   14cdc:	48 8d 85 d8 f2 ff ff 	lea    -0xd28(%rbp),%rax
   14ce3:	48 89 85 d0 f9 ff ff 	mov    %rax,-0x630(%rbp)
   14cea:	48 8d 85 d8 f2 ff ff 	lea    -0xd28(%rbp),%rax
   14cf1:	48 89 85 d8 f9 ff ff 	mov    %rax,-0x628(%rbp)
   14cf8:	48 8d 85 d8 f2 ff ff 	lea    -0xd28(%rbp),%rax
   14cff:	48 89 85 e0 f9 ff ff 	mov    %rax,-0x620(%rbp)
   14d06:	48 8d 85 d8 f2 ff ff 	lea    -0xd28(%rbp),%rax
   14d0d:	48 89 85 e8 f9 ff ff 	mov    %rax,-0x618(%rbp)
   14d14:	48 c7 85 f0 f9 ff ff 	movq   $0x0,-0x610(%rbp)
   14d1b:	00 00 00 00 
   14d1f:	48 8d 85 d8 f2 ff ff 	lea    -0xd28(%rbp),%rax
   14d26:	48 89 85 f8 f9 ff ff 	mov    %rax,-0x608(%rbp)
   14d2d:	48 8d 85 d8 f2 ff ff 	lea    -0xd28(%rbp),%rax
   14d34:	48 89 85 00 fa ff ff 	mov    %rax,-0x600(%rbp)
   14d3b:	48 8d 85 d8 f2 ff ff 	lea    -0xd28(%rbp),%rax
   14d42:	48 89 85 08 fa ff ff 	mov    %rax,-0x5f8(%rbp)
   14d49:	48 8d 85 d8 f2 ff ff 	lea    -0xd28(%rbp),%rax
   14d50:	48 89 85 10 fa ff ff 	mov    %rax,-0x5f0(%rbp)
   14d57:	48 8d 85 d8 f2 ff ff 	lea    -0xd28(%rbp),%rax
   14d5e:	48 89 85 18 fa ff ff 	mov    %rax,-0x5e8(%rbp)
   14d65:	48 8d 85 d8 f2 ff ff 	lea    -0xd28(%rbp),%rax
   14d6c:	48 89 85 20 fa ff ff 	mov    %rax,-0x5e0(%rbp)
   14d73:	48 8d 85 d8 f2 ff ff 	lea    -0xd28(%rbp),%rax
   14d7a:	48 89 85 28 fa ff ff 	mov    %rax,-0x5d8(%rbp)
   14d81:	48 8d 85 d8 f2 ff ff 	lea    -0xd28(%rbp),%rax
   14d88:	48 89 85 30 fa ff ff 	mov    %rax,-0x5d0(%rbp)
   14d8f:	48 8d 85 d8 f2 ff ff 	lea    -0xd28(%rbp),%rax
   14d96:	48 89 85 38 fa ff ff 	mov    %rax,-0x5c8(%rbp)
   14d9d:	48 8d 85 d8 f2 ff ff 	lea    -0xd28(%rbp),%rax
   14da4:	48 89 85 40 fa ff ff 	mov    %rax,-0x5c0(%rbp)
   14dab:	48 c7 85 48 fa ff ff 	movq   $0x0,-0x5b8(%rbp)
   14db2:	00 00 00 00 
   14db6:	48 8d 85 d8 f2 ff ff 	lea    -0xd28(%rbp),%rax
   14dbd:	48 89 85 50 fa ff ff 	mov    %rax,-0x5b0(%rbp)
   14dc4:	48 8d 85 d8 f2 ff ff 	lea    -0xd28(%rbp),%rax
   14dcb:	48 89 85 58 fa ff ff 	mov    %rax,-0x5a8(%rbp)
   14dd2:	48 8d 85 d8 f2 ff ff 	lea    -0xd28(%rbp),%rax
   14dd9:	48 89 85 60 fa ff ff 	mov    %rax,-0x5a0(%rbp)
   14de0:	48 8d 85 d8 f2 ff ff 	lea    -0xd28(%rbp),%rax
   14de7:	48 89 85 68 fa ff ff 	mov    %rax,-0x598(%rbp)
   14dee:	48 8d 85 d8 f2 ff ff 	lea    -0xd28(%rbp),%rax
   14df5:	48 89 85 70 fa ff ff 	mov    %rax,-0x590(%rbp)
   14dfc:	48 8d 85 d8 f2 ff ff 	lea    -0xd28(%rbp),%rax
   14e03:	48 89 85 78 fa ff ff 	mov    %rax,-0x588(%rbp)
   14e0a:	48 8d 85 d8 f2 ff ff 	lea    -0xd28(%rbp),%rax
   14e11:	48 89 85 80 fa ff ff 	mov    %rax,-0x580(%rbp)
   14e18:	48 8d 85 d8 f2 ff ff 	lea    -0xd28(%rbp),%rax
   14e1f:	48 89 85 88 fa ff ff 	mov    %rax,-0x578(%rbp)
   14e26:	48 8d 85 d8 f2 ff ff 	lea    -0xd28(%rbp),%rax
   14e2d:	48 89 85 90 fa ff ff 	mov    %rax,-0x570(%rbp)
   14e34:	48 8d 85 d8 f2 ff ff 	lea    -0xd28(%rbp),%rax
   14e3b:	48 89 85 98 fa ff ff 	mov    %rax,-0x568(%rbp)
   14e42:	48 8d 85 d8 f2 ff ff 	lea    -0xd28(%rbp),%rax
   14e49:	48 89 85 a0 fa ff ff 	mov    %rax,-0x560(%rbp)
   14e50:	48 c7 85 a8 fa ff ff 	movq   $0x0,-0x558(%rbp)
   14e57:	00 00 00 00 
   14e5b:	48 8d 85 d8 f2 ff ff 	lea    -0xd28(%rbp),%rax
   14e62:	48 89 85 b0 fa ff ff 	mov    %rax,-0x550(%rbp)
   14e69:	48 8d 85 d8 f2 ff ff 	lea    -0xd28(%rbp),%rax
   14e70:	48 89 85 b8 fa ff ff 	mov    %rax,-0x548(%rbp)
   14e77:	48 8d 85 d8 f2 ff ff 	lea    -0xd28(%rbp),%rax
   14e7e:	48 89 85 c0 fa ff ff 	mov    %rax,-0x540(%rbp)
   14e85:	48 8d 85 d8 f2 ff ff 	lea    -0xd28(%rbp),%rax
   14e8c:	48 89 85 c8 fa ff ff 	mov    %rax,-0x538(%rbp)
   14e93:	48 8d 85 d8 f2 ff ff 	lea    -0xd28(%rbp),%rax
   14e9a:	48 89 85 d0 fa ff ff 	mov    %rax,-0x530(%rbp)
   14ea1:	48 8d 85 d8 f2 ff ff 	lea    -0xd28(%rbp),%rax
   14ea8:	48 89 85 d8 fa ff ff 	mov    %rax,-0x528(%rbp)
   14eaf:	48 8d 85 d8 f2 ff ff 	lea    -0xd28(%rbp),%rax
   14eb6:	48 89 85 e0 fa ff ff 	mov    %rax,-0x520(%rbp)
   14ebd:	48 8d 85 d8 f2 ff ff 	lea    -0xd28(%rbp),%rax
   14ec4:	48 89 85 e8 fa ff ff 	mov    %rax,-0x518(%rbp)
   14ecb:	48 8d 85 d8 f2 ff ff 	lea    -0xd28(%rbp),%rax
   14ed2:	48 89 85 f0 fa ff ff 	mov    %rax,-0x510(%rbp)
   14ed9:	48 8d 85 d8 f2 ff ff 	lea    -0xd28(%rbp),%rax
   14ee0:	48 89 85 f8 fa ff ff 	mov    %rax,-0x508(%rbp)
   14ee7:	48 c7 85 00 fb ff ff 	movq   $0x0,-0x500(%rbp)
   14eee:	00 00 00 00 
   14ef2:	48 8d 85 d8 f2 ff ff 	lea    -0xd28(%rbp),%rax
   14ef9:	48 89 85 08 fb ff ff 	mov    %rax,-0x4f8(%rbp)
   14f00:	48 8d 85 d8 f2 ff ff 	lea    -0xd28(%rbp),%rax
   14f07:	48 89 85 10 fb ff ff 	mov    %rax,-0x4f0(%rbp)
   14f0e:	48 8d 85 d8 f2 ff ff 	lea    -0xd28(%rbp),%rax
   14f15:	48 89 85 18 fb ff ff 	mov    %rax,-0x4e8(%rbp)
   14f1c:	48 8d 85 d8 f2 ff ff 	lea    -0xd28(%rbp),%rax
   14f23:	48 89 85 20 fb ff ff 	mov    %rax,-0x4e0(%rbp)
   14f2a:	48 8d 85 d8 f2 ff ff 	lea    -0xd28(%rbp),%rax
   14f31:	48 89 85 28 fb ff ff 	mov    %rax,-0x4d8(%rbp)
   14f38:	48 8d 85 d8 f2 ff ff 	lea    -0xd28(%rbp),%rax
   14f3f:	48 89 85 30 fb ff ff 	mov    %rax,-0x4d0(%rbp)
   14f46:	48 8d 85 d8 f2 ff ff 	lea    -0xd28(%rbp),%rax
   14f4d:	48 89 85 38 fb ff ff 	mov    %rax,-0x4c8(%rbp)
   14f54:	48 8d 85 d8 f2 ff ff 	lea    -0xd28(%rbp),%rax
   14f5b:	48 89 85 40 fb ff ff 	mov    %rax,-0x4c0(%rbp)
   14f62:	48 8d 85 d8 f2 ff ff 	lea    -0xd28(%rbp),%rax
   14f69:	48 89 85 48 fb ff ff 	mov    %rax,-0x4b8(%rbp)
   14f70:	48 8d 85 d8 f2 ff ff 	lea    -0xd28(%rbp),%rax
   14f77:	48 89 85 50 fb ff ff 	mov    %rax,-0x4b0(%rbp)
   14f7e:	48 8d 85 d8 f2 ff ff 	lea    -0xd28(%rbp),%rax
   14f85:	48 89 85 58 fb ff ff 	mov    %rax,-0x4a8(%rbp)
   14f8c:	48 8d 85 d8 f2 ff ff 	lea    -0xd28(%rbp),%rax
   14f93:	48 89 85 60 fb ff ff 	mov    %rax,-0x4a0(%rbp)
   14f9a:	48 8d 85 d8 f2 ff ff 	lea    -0xd28(%rbp),%rax
   14fa1:	48 89 85 68 fb ff ff 	mov    %rax,-0x498(%rbp)
   14fa8:	48 8d 85 d8 f2 ff ff 	lea    -0xd28(%rbp),%rax
   14faf:	48 89 85 70 fb ff ff 	mov    %rax,-0x490(%rbp)
   14fb6:	48 8d 85 d8 f2 ff ff 	lea    -0xd28(%rbp),%rax
   14fbd:	48 89 85 78 fb ff ff 	mov    %rax,-0x488(%rbp)
   14fc4:	48 8d 85 d8 f2 ff ff 	lea    -0xd28(%rbp),%rax
   14fcb:	48 89 85 80 fb ff ff 	mov    %rax,-0x480(%rbp)
   14fd2:	48 8d 85 d8 f2 ff ff 	lea    -0xd28(%rbp),%rax
   14fd9:	48 89 85 88 fb ff ff 	mov    %rax,-0x478(%rbp)
   14fe0:	48 c7 85 90 fb ff ff 	movq   $0x0,-0x470(%rbp)
   14fe7:	00 00 00 00 
   14feb:	48 8d 85 d8 f2 ff ff 	lea    -0xd28(%rbp),%rax
   14ff2:	48 89 85 98 fb ff ff 	mov    %rax,-0x468(%rbp)
   14ff9:	48 8d 85 d8 f2 ff ff 	lea    -0xd28(%rbp),%rax
   15000:	48 89 85 a0 fb ff ff 	mov    %rax,-0x460(%rbp)
   15007:	48 8d 85 d8 f2 ff ff 	lea    -0xd28(%rbp),%rax
   1500e:	48 89 85 a8 fb ff ff 	mov    %rax,-0x458(%rbp)
   15015:	48 8d 85 d8 f2 ff ff 	lea    -0xd28(%rbp),%rax
   1501c:	48 89 85 b0 fb ff ff 	mov    %rax,-0x450(%rbp)
   15023:	48 8d 85 d8 f2 ff ff 	lea    -0xd28(%rbp),%rax
   1502a:	48 89 85 b8 fb ff ff 	mov    %rax,-0x448(%rbp)
   15031:	48 8d 85 d8 f2 ff ff 	lea    -0xd28(%rbp),%rax
   15038:	48 89 85 c0 fb ff ff 	mov    %rax,-0x440(%rbp)
   1503f:	48 8d 85 d8 f2 ff ff 	lea    -0xd28(%rbp),%rax
   15046:	48 89 85 c8 fb ff ff 	mov    %rax,-0x438(%rbp)
   1504d:	48 c7 85 d0 fb ff ff 	movq   $0x0,-0x430(%rbp)
   15054:	00 00 00 00 
   15058:	48 8d 85 d8 f2 ff ff 	lea    -0xd28(%rbp),%rax
   1505f:	48 89 85 d8 fb ff ff 	mov    %rax,-0x428(%rbp)
   15066:	48 8d 85 d8 f2 ff ff 	lea    -0xd28(%rbp),%rax
   1506d:	48 89 85 e0 fb ff ff 	mov    %rax,-0x420(%rbp)
   15074:	48 8d 85 d8 f2 ff ff 	lea    -0xd28(%rbp),%rax
   1507b:	48 89 85 e8 fb ff ff 	mov    %rax,-0x418(%rbp)
   15082:	48 8d 85 d8 f2 ff ff 	lea    -0xd28(%rbp),%rax
   15089:	48 89 85 f0 fb ff ff 	mov    %rax,-0x410(%rbp)
   15090:	48 8d 85 d8 f2 ff ff 	lea    -0xd28(%rbp),%rax
   15097:	48 89 85 f8 fb ff ff 	mov    %rax,-0x408(%rbp)
   1509e:	48 8d 85 d8 f2 ff ff 	lea    -0xd28(%rbp),%rax
   150a5:	48 89 85 00 fc ff ff 	mov    %rax,-0x400(%rbp)
   150ac:	48 8d 85 d8 f2 ff ff 	lea    -0xd28(%rbp),%rax
   150b3:	48 89 85 08 fc ff ff 	mov    %rax,-0x3f8(%rbp)
   150ba:	48 8d 85 d8 f2 ff ff 	lea    -0xd28(%rbp),%rax
   150c1:	48 89 85 10 fc ff ff 	mov    %rax,-0x3f0(%rbp)
   150c8:	48 8d 85 d8 f2 ff ff 	lea    -0xd28(%rbp),%rax
   150cf:	48 89 85 18 fc ff ff 	mov    %rax,-0x3e8(%rbp)
   150d6:	48 8d 85 d8 f2 ff ff 	lea    -0xd28(%rbp),%rax
   150dd:	48 89 85 20 fc ff ff 	mov    %rax,-0x3e0(%rbp)
   150e4:	48 8d 85 d8 f2 ff ff 	lea    -0xd28(%rbp),%rax
   150eb:	48 89 85 28 fc ff ff 	mov    %rax,-0x3d8(%rbp)
   150f2:	48 8d 85 d8 f2 ff ff 	lea    -0xd28(%rbp),%rax
   150f9:	48 89 85 30 fc ff ff 	mov    %rax,-0x3d0(%rbp)
   15100:	48 8d 85 d8 f2 ff ff 	lea    -0xd28(%rbp),%rax
   15107:	48 89 85 38 fc ff ff 	mov    %rax,-0x3c8(%rbp)
   1510e:	48 8d 85 d8 f2 ff ff 	lea    -0xd28(%rbp),%rax
   15115:	48 89 85 40 fc ff ff 	mov    %rax,-0x3c0(%rbp)
   1511c:	48 8d 85 d8 f2 ff ff 	lea    -0xd28(%rbp),%rax
   15123:	48 89 85 48 fc ff ff 	mov    %rax,-0x3b8(%rbp)
   1512a:	48 8d 85 d8 f2 ff ff 	lea    -0xd28(%rbp),%rax
   15131:	48 89 85 50 fc ff ff 	mov    %rax,-0x3b0(%rbp)
   15138:	48 8d 85 d8 f2 ff ff 	lea    -0xd28(%rbp),%rax
   1513f:	48 89 85 58 fc ff ff 	mov    %rax,-0x3a8(%rbp)
   15146:	48 c7 85 60 fc ff ff 	movq   $0x0,-0x3a0(%rbp)
   1514d:	00 00 00 00 
   15151:	48 8d 85 d8 f2 ff ff 	lea    -0xd28(%rbp),%rax
   15158:	48 89 85 68 fc ff ff 	mov    %rax,-0x398(%rbp)
   1515f:	48 8d 85 d8 f2 ff ff 	lea    -0xd28(%rbp),%rax
   15166:	48 89 85 70 fc ff ff 	mov    %rax,-0x390(%rbp)
   1516d:	48 8d 85 d8 f2 ff ff 	lea    -0xd28(%rbp),%rax
   15174:	48 89 85 78 fc ff ff 	mov    %rax,-0x388(%rbp)
   1517b:	48 8d 85 d8 f2 ff ff 	lea    -0xd28(%rbp),%rax
   15182:	48 89 85 80 fc ff ff 	mov    %rax,-0x380(%rbp)
   15189:	48 8d 85 d8 f2 ff ff 	lea    -0xd28(%rbp),%rax
   15190:	48 89 85 88 fc ff ff 	mov    %rax,-0x378(%rbp)
   15197:	48 8d 85 d8 f2 ff ff 	lea    -0xd28(%rbp),%rax
   1519e:	48 89 85 90 fc ff ff 	mov    %rax,-0x370(%rbp)
   151a5:	48 8d 85 d8 f2 ff ff 	lea    -0xd28(%rbp),%rax
   151ac:	48 89 85 98 fc ff ff 	mov    %rax,-0x368(%rbp)
   151b3:	48 8d 85 d8 f2 ff ff 	lea    -0xd28(%rbp),%rax
   151ba:	48 89 85 a0 fc ff ff 	mov    %rax,-0x360(%rbp)
   151c1:	48 8d 85 d8 f2 ff ff 	lea    -0xd28(%rbp),%rax
   151c8:	48 89 85 a8 fc ff ff 	mov    %rax,-0x358(%rbp)
   151cf:	48 8d 85 d8 f2 ff ff 	lea    -0xd28(%rbp),%rax
   151d6:	48 89 85 b0 fc ff ff 	mov    %rax,-0x350(%rbp)
   151dd:	48 c7 85 b8 fc ff ff 	movq   $0x0,-0x348(%rbp)
   151e4:	00 00 00 00 
   151e8:	48 8d 85 d8 f2 ff ff 	lea    -0xd28(%rbp),%rax
   151ef:	48 89 85 c0 fc ff ff 	mov    %rax,-0x340(%rbp)
   151f6:	48 8d 85 d8 f2 ff ff 	lea    -0xd28(%rbp),%rax
   151fd:	48 89 85 c8 fc ff ff 	mov    %rax,-0x338(%rbp)
   15204:	48 8d 85 d8 f2 ff ff 	lea    -0xd28(%rbp),%rax
   1520b:	48 89 85 d0 fc ff ff 	mov    %rax,-0x330(%rbp)
   15212:	48 8d 85 d8 f2 ff ff 	lea    -0xd28(%rbp),%rax
   15219:	48 89 85 d8 fc ff ff 	mov    %rax,-0x328(%rbp)
   15220:	48 8d 85 d8 f2 ff ff 	lea    -0xd28(%rbp),%rax
   15227:	48 89 85 e0 fc ff ff 	mov    %rax,-0x320(%rbp)
   1522e:	48 8d 85 d8 f2 ff ff 	lea    -0xd28(%rbp),%rax
   15235:	48 89 85 e8 fc ff ff 	mov    %rax,-0x318(%rbp)
   1523c:	48 8d 85 d8 f2 ff ff 	lea    -0xd28(%rbp),%rax
   15243:	48 89 85 f0 fc ff ff 	mov    %rax,-0x310(%rbp)
   1524a:	48 8d 85 d8 f2 ff ff 	lea    -0xd28(%rbp),%rax
   15251:	48 89 85 f8 fc ff ff 	mov    %rax,-0x308(%rbp)
   15258:	48 8d 85 d8 f2 ff ff 	lea    -0xd28(%rbp),%rax
   1525f:	48 89 85 00 fd ff ff 	mov    %rax,-0x300(%rbp)
   15266:	48 8d 85 d8 f2 ff ff 	lea    -0xd28(%rbp),%rax
   1526d:	48 89 85 08 fd ff ff 	mov    %rax,-0x2f8(%rbp)
   15274:	48 8d 85 d8 f2 ff ff 	lea    -0xd28(%rbp),%rax
   1527b:	48 89 85 10 fd ff ff 	mov    %rax,-0x2f0(%rbp)
   15282:	48 c7 85 18 fd ff ff 	movq   $0x0,-0x2e8(%rbp)
   15289:	00 00 00 00 
   1528d:	48 8d 85 d8 f2 ff ff 	lea    -0xd28(%rbp),%rax
   15294:	48 89 85 20 fd ff ff 	mov    %rax,-0x2e0(%rbp)
   1529b:	48 8d 85 d8 f2 ff ff 	lea    -0xd28(%rbp),%rax
   152a2:	48 89 85 28 fd ff ff 	mov    %rax,-0x2d8(%rbp)
   152a9:	48 8d 85 d8 f2 ff ff 	lea    -0xd28(%rbp),%rax
   152b0:	48 89 85 30 fd ff ff 	mov    %rax,-0x2d0(%rbp)
   152b7:	48 8d 85 d8 f2 ff ff 	lea    -0xd28(%rbp),%rax
   152be:	48 89 85 38 fd ff ff 	mov    %rax,-0x2c8(%rbp)
   152c5:	48 8d 85 d8 f2 ff ff 	lea    -0xd28(%rbp),%rax
   152cc:	48 89 85 40 fd ff ff 	mov    %rax,-0x2c0(%rbp)
   152d3:	48 8d 85 d8 f2 ff ff 	lea    -0xd28(%rbp),%rax
   152da:	48 89 85 48 fd ff ff 	mov    %rax,-0x2b8(%rbp)
   152e1:	48 8d 85 d8 f2 ff ff 	lea    -0xd28(%rbp),%rax
   152e8:	48 89 85 50 fd ff ff 	mov    %rax,-0x2b0(%rbp)
   152ef:	48 8d 85 d8 f2 ff ff 	lea    -0xd28(%rbp),%rax
   152f6:	48 89 85 58 fd ff ff 	mov    %rax,-0x2a8(%rbp)
   152fd:	48 8d 85 d8 f2 ff ff 	lea    -0xd28(%rbp),%rax
   15304:	48 89 85 60 fd ff ff 	mov    %rax,-0x2a0(%rbp)
   1530b:	48 8d 85 d8 f2 ff ff 	lea    -0xd28(%rbp),%rax
   15312:	48 89 85 68 fd ff ff 	mov    %rax,-0x298(%rbp)
   15319:	48 c7 85 70 fd ff ff 	movq   $0x0,-0x290(%rbp)
   15320:	00 00 00 00 
   15324:	48 8d 85 d8 f2 ff ff 	lea    -0xd28(%rbp),%rax
   1532b:	48 89 85 78 fd ff ff 	mov    %rax,-0x288(%rbp)
   15332:	48 8d 85 d8 f2 ff ff 	lea    -0xd28(%rbp),%rax
   15339:	48 89 85 80 fd ff ff 	mov    %rax,-0x280(%rbp)
   15340:	48 8d 85 d8 f2 ff ff 	lea    -0xd28(%rbp),%rax
   15347:	48 89 85 88 fd ff ff 	mov    %rax,-0x278(%rbp)
   1534e:	48 8d 85 d8 f2 ff ff 	lea    -0xd28(%rbp),%rax
   15355:	48 89 85 90 fd ff ff 	mov    %rax,-0x270(%rbp)
   1535c:	48 8d 85 d8 f2 ff ff 	lea    -0xd28(%rbp),%rax
   15363:	48 89 85 98 fd ff ff 	mov    %rax,-0x268(%rbp)
   1536a:	48 8d 85 d8 f2 ff ff 	lea    -0xd28(%rbp),%rax
   15371:	48 89 85 a0 fd ff ff 	mov    %rax,-0x260(%rbp)
   15378:	48 8d 85 d8 f2 ff ff 	lea    -0xd28(%rbp),%rax
   1537f:	48 89 85 a8 fd ff ff 	mov    %rax,-0x258(%rbp)
   15386:	48 8d 85 d8 f2 ff ff 	lea    -0xd28(%rbp),%rax
   1538d:	48 89 85 b0 fd ff ff 	mov    %rax,-0x250(%rbp)
   15394:	48 8d 85 d8 f2 ff ff 	lea    -0xd28(%rbp),%rax
   1539b:	48 89 85 b8 fd ff ff 	mov    %rax,-0x248(%rbp)
   153a2:	48 8d 85 d8 f2 ff ff 	lea    -0xd28(%rbp),%rax
   153a9:	48 89 85 c0 fd ff ff 	mov    %rax,-0x240(%rbp)
   153b0:	48 8d 85 d8 f2 ff ff 	lea    -0xd28(%rbp),%rax
   153b7:	48 89 85 c8 fd ff ff 	mov    %rax,-0x238(%rbp)
   153be:	48 8d 85 d8 f2 ff ff 	lea    -0xd28(%rbp),%rax
   153c5:	48 89 85 d0 fd ff ff 	mov    %rax,-0x230(%rbp)
   153cc:	48 8d 85 d8 f2 ff ff 	lea    -0xd28(%rbp),%rax
   153d3:	48 89 85 d8 fd ff ff 	mov    %rax,-0x228(%rbp)
   153da:	48 8d 85 d8 f2 ff ff 	lea    -0xd28(%rbp),%rax
   153e1:	48 89 85 e0 fd ff ff 	mov    %rax,-0x220(%rbp)
   153e8:	48 8d 85 d8 f2 ff ff 	lea    -0xd28(%rbp),%rax
   153ef:	48 89 85 e8 fd ff ff 	mov    %rax,-0x218(%rbp)
   153f6:	48 8d 85 d8 f2 ff ff 	lea    -0xd28(%rbp),%rax
   153fd:	48 89 85 f0 fd ff ff 	mov    %rax,-0x210(%rbp)
   15404:	48 8d 85 d8 f2 ff ff 	lea    -0xd28(%rbp),%rax
   1540b:	48 89 85 f8 fd ff ff 	mov    %rax,-0x208(%rbp)
   15412:	48 c7 85 00 fe ff ff 	movq   $0x0,-0x200(%rbp)
   15419:	00 00 00 00 
   1541d:	48 8d 85 d8 f2 ff ff 	lea    -0xd28(%rbp),%rax
   15424:	48 89 85 08 fe ff ff 	mov    %rax,-0x1f8(%rbp)
   1542b:	48 8d 85 d8 f2 ff ff 	lea    -0xd28(%rbp),%rax
   15432:	48 89 85 10 fe ff ff 	mov    %rax,-0x1f0(%rbp)
   15439:	48 8d 85 d8 f2 ff ff 	lea    -0xd28(%rbp),%rax
   15440:	48 89 85 18 fe ff ff 	mov    %rax,-0x1e8(%rbp)
   15447:	48 8d 85 d8 f2 ff ff 	lea    -0xd28(%rbp),%rax
   1544e:	48 89 85 20 fe ff ff 	mov    %rax,-0x1e0(%rbp)
   15455:	48 8d 85 d8 f2 ff ff 	lea    -0xd28(%rbp),%rax
   1545c:	48 89 85 28 fe ff ff 	mov    %rax,-0x1d8(%rbp)
   15463:	48 8d 85 d8 f2 ff ff 	lea    -0xd28(%rbp),%rax
   1546a:	48 89 85 30 fe ff ff 	mov    %rax,-0x1d0(%rbp)
   15471:	48 8d 85 d8 f2 ff ff 	lea    -0xd28(%rbp),%rax
   15478:	48 89 85 38 fe ff ff 	mov    %rax,-0x1c8(%rbp)
   1547f:	48 c7 85 40 fe ff ff 	movq   $0x0,-0x1c0(%rbp)
   15486:	00 00 00 00 
   1548a:	48 8d 85 d8 f2 ff ff 	lea    -0xd28(%rbp),%rax
   15491:	48 89 85 48 fe ff ff 	mov    %rax,-0x1b8(%rbp)
   15498:	48 8d 85 d8 f2 ff ff 	lea    -0xd28(%rbp),%rax
   1549f:	48 89 85 50 fe ff ff 	mov    %rax,-0x1b0(%rbp)
   154a6:	48 8d 85 d8 f2 ff ff 	lea    -0xd28(%rbp),%rax
   154ad:	48 89 85 58 fe ff ff 	mov    %rax,-0x1a8(%rbp)
   154b4:	48 8d 85 d8 f2 ff ff 	lea    -0xd28(%rbp),%rax
   154bb:	48 89 85 60 fe ff ff 	mov    %rax,-0x1a0(%rbp)
   154c2:	48 8d 85 d8 f2 ff ff 	lea    -0xd28(%rbp),%rax
   154c9:	48 89 85 68 fe ff ff 	mov    %rax,-0x198(%rbp)
   154d0:	48 8d 85 d8 f2 ff ff 	lea    -0xd28(%rbp),%rax
   154d7:	48 89 85 70 fe ff ff 	mov    %rax,-0x190(%rbp)
   154de:	48 8d 85 d8 f2 ff ff 	lea    -0xd28(%rbp),%rax
   154e5:	48 89 85 78 fe ff ff 	mov    %rax,-0x188(%rbp)
   154ec:	48 8d 85 d8 f2 ff ff 	lea    -0xd28(%rbp),%rax
   154f3:	48 89 85 80 fe ff ff 	mov    %rax,-0x180(%rbp)
   154fa:	48 8d 85 d8 f2 ff ff 	lea    -0xd28(%rbp),%rax
   15501:	48 89 85 88 fe ff ff 	mov    %rax,-0x178(%rbp)
   15508:	48 8d 85 d8 f2 ff ff 	lea    -0xd28(%rbp),%rax
   1550f:	48 89 85 90 fe ff ff 	mov    %rax,-0x170(%rbp)
   15516:	48 8d 85 d8 f2 ff ff 	lea    -0xd28(%rbp),%rax
   1551d:	48 89 85 98 fe ff ff 	mov    %rax,-0x168(%rbp)
   15524:	48 8d 85 d8 f2 ff ff 	lea    -0xd28(%rbp),%rax
   1552b:	48 89 85 a0 fe ff ff 	mov    %rax,-0x160(%rbp)
   15532:	48 8d 85 d8 f2 ff ff 	lea    -0xd28(%rbp),%rax
   15539:	48 89 85 a8 fe ff ff 	mov    %rax,-0x158(%rbp)
   15540:	48 8d 85 d8 f2 ff ff 	lea    -0xd28(%rbp),%rax
   15547:	48 89 85 b0 fe ff ff 	mov    %rax,-0x150(%rbp)
   1554e:	48 8d 85 d8 f2 ff ff 	lea    -0xd28(%rbp),%rax
   15555:	48 89 85 b8 fe ff ff 	mov    %rax,-0x148(%rbp)
   1555c:	48 8d 85 d8 f2 ff ff 	lea    -0xd28(%rbp),%rax
   15563:	48 89 85 c0 fe ff ff 	mov    %rax,-0x140(%rbp)
   1556a:	48 8d 85 d8 f2 ff ff 	lea    -0xd28(%rbp),%rax
   15571:	48 89 85 c8 fe ff ff 	mov    %rax,-0x138(%rbp)
   15578:	48 c7 85 d0 fe ff ff 	movq   $0x0,-0x130(%rbp)
   1557f:	00 00 00 00 
   15583:	48 8d 85 d8 f2 ff ff 	lea    -0xd28(%rbp),%rax
   1558a:	48 89 85 d8 fe ff ff 	mov    %rax,-0x128(%rbp)
   15591:	48 8d 85 d8 f2 ff ff 	lea    -0xd28(%rbp),%rax
   15598:	48 89 85 e0 fe ff ff 	mov    %rax,-0x120(%rbp)
   1559f:	48 8d 85 d8 f2 ff ff 	lea    -0xd28(%rbp),%rax
   155a6:	48 89 85 e8 fe ff ff 	mov    %rax,-0x118(%rbp)
   155ad:	48 8d 85 d8 f2 ff ff 	lea    -0xd28(%rbp),%rax
   155b4:	48 89 85 f0 fe ff ff 	mov    %rax,-0x110(%rbp)
   155bb:	48 8d 85 d8 f2 ff ff 	lea    -0xd28(%rbp),%rax
   155c2:	48 89 85 f8 fe ff ff 	mov    %rax,-0x108(%rbp)
   155c9:	48 8d 85 d8 f2 ff ff 	lea    -0xd28(%rbp),%rax
   155d0:	48 89 85 00 ff ff ff 	mov    %rax,-0x100(%rbp)
   155d7:	48 8d 85 d8 f2 ff ff 	lea    -0xd28(%rbp),%rax
   155de:	48 89 85 08 ff ff ff 	mov    %rax,-0xf8(%rbp)
   155e5:	48 8d 85 d8 f2 ff ff 	lea    -0xd28(%rbp),%rax
   155ec:	48 89 85 10 ff ff ff 	mov    %rax,-0xf0(%rbp)
   155f3:	48 8d 85 d8 f2 ff ff 	lea    -0xd28(%rbp),%rax
   155fa:	48 89 85 18 ff ff ff 	mov    %rax,-0xe8(%rbp)
   15601:	48 8d 85 d8 f2 ff ff 	lea    -0xd28(%rbp),%rax
   15608:	48 89 85 20 ff ff ff 	mov    %rax,-0xe0(%rbp)
   1560f:	48 c7 85 28 ff ff ff 	movq   $0x0,-0xd8(%rbp)
   15616:	00 00 00 00 
   1561a:	48 8d 85 d8 f2 ff ff 	lea    -0xd28(%rbp),%rax
   15621:	48 89 85 30 ff ff ff 	mov    %rax,-0xd0(%rbp)
   15628:	48 8d 85 d8 f2 ff ff 	lea    -0xd28(%rbp),%rax
   1562f:	48 89 85 38 ff ff ff 	mov    %rax,-0xc8(%rbp)
   15636:	48 8d 85 d8 f2 ff ff 	lea    -0xd28(%rbp),%rax
   1563d:	48 89 85 40 ff ff ff 	mov    %rax,-0xc0(%rbp)
   15644:	48 8d 85 d8 f2 ff ff 	lea    -0xd28(%rbp),%rax
   1564b:	48 89 85 48 ff ff ff 	mov    %rax,-0xb8(%rbp)
   15652:	48 8d 85 d8 f2 ff ff 	lea    -0xd28(%rbp),%rax
   15659:	48 89 85 50 ff ff ff 	mov    %rax,-0xb0(%rbp)
   15660:	48 8d 85 d8 f2 ff ff 	lea    -0xd28(%rbp),%rax
   15667:	48 89 85 58 ff ff ff 	mov    %rax,-0xa8(%rbp)
   1566e:	48 8d 85 d8 f2 ff ff 	lea    -0xd28(%rbp),%rax
   15675:	48 89 85 60 ff ff ff 	mov    %rax,-0xa0(%rbp)
   1567c:	48 8d 85 d8 f2 ff ff 	lea    -0xd28(%rbp),%rax
   15683:	48 89 85 68 ff ff ff 	mov    %rax,-0x98(%rbp)
   1568a:	48 8d 85 d8 f2 ff ff 	lea    -0xd28(%rbp),%rax
   15691:	48 89 85 70 ff ff ff 	mov    %rax,-0x90(%rbp)
   15698:	48 8d 85 d8 f2 ff ff 	lea    -0xd28(%rbp),%rax
   1569f:	48 89 85 78 ff ff ff 	mov    %rax,-0x88(%rbp)
   156a6:	48 c7 45 80 00 00 00 	movq   $0x0,-0x80(%rbp)
   156ad:	00 
   156ae:	48 8d 85 d8 f2 ff ff 	lea    -0xd28(%rbp),%rax
   156b5:	48 89 45 88          	mov    %rax,-0x78(%rbp)
   156b9:	48 8d 85 d8 f2 ff ff 	lea    -0xd28(%rbp),%rax
   156c0:	48 89 45 90          	mov    %rax,-0x70(%rbp)
   156c4:	48 8d 85 d8 f2 ff ff 	lea    -0xd28(%rbp),%rax
   156cb:	48 89 45 98          	mov    %rax,-0x68(%rbp)
   156cf:	48 8d 85 d8 f2 ff ff 	lea    -0xd28(%rbp),%rax
   156d6:	48 89 45 a0          	mov    %rax,-0x60(%rbp)
   156da:	48 8d 85 d8 f2 ff ff 	lea    -0xd28(%rbp),%rax
   156e1:	48 89 45 a8          	mov    %rax,-0x58(%rbp)
   156e5:	48 8d 85 d8 f2 ff ff 	lea    -0xd28(%rbp),%rax
   156ec:	48 89 45 b0          	mov    %rax,-0x50(%rbp)
   156f0:	48 8d 85 d8 f2 ff ff 	lea    -0xd28(%rbp),%rax
   156f7:	48 89 45 b8          	mov    %rax,-0x48(%rbp)
   156fb:	48 8d 85 d8 f2 ff ff 	lea    -0xd28(%rbp),%rax
   15702:	48 89 45 c0          	mov    %rax,-0x40(%rbp)
   15706:	48 8d 85 d8 f2 ff ff 	lea    -0xd28(%rbp),%rax
   1570d:	48 89 45 c8          	mov    %rax,-0x38(%rbp)
   15711:	48 8d 85 d8 f2 ff ff 	lea    -0xd28(%rbp),%rax
   15718:	48 89 45 d0          	mov    %rax,-0x30(%rbp)
   1571c:	48 8d 85 d8 f2 ff ff 	lea    -0xd28(%rbp),%rax
   15723:	48 89 45 d8          	mov    %rax,-0x28(%rbp)
   15727:	48 c7 45 e0 00 00 00 	movq   $0x0,-0x20(%rbp)
   1572e:	00 
   1572f:	48 8d 85 d8 f2 ff ff 	lea    -0xd28(%rbp),%rax
   15736:	48 89 45 e8          	mov    %rax,-0x18(%rbp)
   1573a:	48 8d 85 70 f8 ff ff 	lea    -0x790(%rbp),%rax
   15741:	48 05 18 01 00 00    	add    $0x118,%rax
   15747:	48 89 85 28 f3 ff ff 	mov    %rax,-0xcd8(%rbp)
   1574e:	48 c7 85 30 f3 ff ff 	movq   $0x0,-0xcd0(%rbp)
   15755:	00 00 00 00 
   15759:	c7 85 5c f2 ff ff ff 	movl   $0xffffffff,-0xda4(%rbp)
   15760:	ff ff ff 
   15763:	66 c7 85 1e f2 ff ff 	movw   $0x3e20,-0xde2(%rbp)
   1576a:	20 3e 
   1576c:	c6 85 18 f2 ff ff 90 	movb   $0x90,-0xde8(%rbp)
   15773:	c6 85 19 f2 ff ff d8 	movb   $0xd8,-0xde7(%rbp)
   1577a:	c7 85 60 f2 ff ff 05 	movl   $0x5,-0xda0(%rbp)
   15781:	00 00 00 
   15784:	48 b8 c2 5c bb c3 81 	movabs $0x34a07681c3bb5cc2,%rax
   1578b:	76 a0 34 
   1578e:	48 89 85 38 f3 ff ff 	mov    %rax,-0xcc8(%rbp)
   15795:	48 8d 85 d0 f4 ff ff 	lea    -0xb30(%rbp),%rax
   1579c:	48 83 c0 70          	add    $0x70,%rax
   157a0:	48 89 85 40 f3 ff ff 	mov    %rax,-0xcc0(%rbp)
   157a7:	48 b8 01 27 de 27 01 	movabs $0x1d6d60127de2701,%rax
   157ae:	d6 d6 01 
   157b1:	48 89 85 20 f4 ff ff 	mov    %rax,-0xbe0(%rbp)
   157b8:	c6 85 28 f4 ff ff 27 	movb   $0x27,-0xbd8(%rbp)
   157bf:	48 b8 bd ff bd d6 de 	movabs $0xbdd6deded6bdffbd,%rax
   157c6:	de d6 bd 
   157c9:	48 89 85 29 f4 ff ff 	mov    %rax,-0xbd7(%rbp)
   157d0:	c6 85 31 f4 ff ff ff 	movb   $0xff,-0xbcf(%rbp)
   157d7:	c6 85 1a f2 ff ff f7 	movb   $0xf7,-0xde6(%rbp)
   157de:	48 8d 85 28 f2 ff ff 	lea    -0xdd8(%rbp),%rax
   157e5:	48 89 85 48 f3 ff ff 	mov    %rax,-0xcb8(%rbp)
   157ec:	c7 85 64 f2 ff ff 00 	movl   $0x0,-0xd9c(%rbp)
   157f3:	00 00 00 
   157f6:	c7 85 2c f2 ff ff 00 	movl   $0x0,-0xdd4(%rbp)
   157fd:	00 00 00 
   15800:	eb 19                	jmp    1581b <func_98+0x18bf>
   15802:	8b 85 2c f2 ff ff    	mov    -0xdd4(%rbp),%eax
   15808:	48 98                	cltq   
   1580a:	66 c7 84 45 7a f3 ff 	movw   $0x1,-0xc86(%rbp,%rax,2)
   15811:	ff 01 00 
   15814:	83 85 2c f2 ff ff 01 	addl   $0x1,-0xdd4(%rbp)
   1581b:	83 bd 2c f2 ff ff 02 	cmpl   $0x2,-0xdd4(%rbp)
   15822:	7e de                	jle    15802 <func_98+0x18a6>
   15824:	8b 05 26 c0 00 00    	mov    0xc026(%rip),%eax        # 21850 <g_149>
   1582a:	48 98                	cltq   
   1582c:	be 01 00 00 00       	mov    $0x1,%esi
   15831:	48 89 c7             	mov    %rax,%rdi
   15834:	e8 f5 37 ff ff       	callq  902e <safe_add_func_uint64_t_u_u>
   15839:	89 05 11 c0 00 00    	mov    %eax,0xc011(%rip)        # 21850 <g_149>
   1583f:	8b 05 0b c0 00 00    	mov    0xc00b(%rip),%eax        # 21850 <g_149>
   15845:	83 f8 fc             	cmp    $0xfffffffc,%eax
   15848:	0f 8c 91 f1 ff ff    	jl     149df <func_98+0xa83>
   1584e:	48 8b 85 00 f2 ff ff 	mov    -0xe00(%rbp),%rax
   15855:	48 8b 55 f8          	mov    -0x8(%rbp),%rdx
   15859:	64 48 33 14 25 28 00 	xor    %fs:0x28,%rdx
   15860:	00 00 
   15862:	74 05                	je     15869 <func_98+0x190d>
   15864:	e8 07 28 ff ff       	callq  8070 <__stack_chk_fail@plt>
   15869:	c9                   	leaveq 
   1586a:	c3                   	retq   

000000000001586b <main>:
   1586b:	f3 0f 1e fa          	endbr64 
   1586f:	55                   	push   %rbp
   15870:	48 89 e5             	mov    %rsp,%rbp
   15873:	48 83 ec 20          	sub    $0x20,%rsp
   15877:	89 7d ec             	mov    %edi,-0x14(%rbp)
   1587a:	48 89 75 e0          	mov    %rsi,-0x20(%rbp)
   1587e:	c7 45 fc 00 00 00 00 	movl   $0x0,-0x4(%rbp)
   15885:	83 7d ec 02          	cmpl   $0x2,-0x14(%rbp)
   15889:	74 25                	je     158b0 <main+0x45>
   1588b:	48 8b 45 e0          	mov    -0x20(%rbp),%rax
   1588f:	48 83 c0 08          	add    $0x8,%rax
   15893:	48 8b 00             	mov    (%rax),%rax
   15896:	48 8d 35 87 3e 00 00 	lea    0x3e87(%rip),%rsi        # 19724 <g_3221+0x160c>
   1589d:	48 89 c7             	mov    %rax,%rdi
   158a0:	e8 eb 27 ff ff       	callq  8090 <strcmp@plt>
   158a5:	85 c0                	test   %eax,%eax
   158a7:	74 07                	je     158b0 <main+0x45>
   158a9:	c7 45 fc 01 00 00 00 	movl   $0x1,-0x4(%rbp)
   158b0:	e8 d4 28 ff ff       	callq  8189 <platform_main_begin>
   158b5:	e8 de 3c ff ff       	callq  9598 <crc32_gentab>
   158ba:	e8 f6 3e ff ff       	callq  97b5 <func_1>
   158bf:	48 8b 05 62 77 00 00 	mov    0x7762(%rip),%rax        # 1d028 <g_2>
   158c6:	8b 55 fc             	mov    -0x4(%rbp),%edx
   158c9:	48 8d 35 56 3e 00 00 	lea    0x3e56(%rip),%rsi        # 19726 <g_3221+0x160e>
   158d0:	48 89 c7             	mov    %rax,%rdi
   158d3:	e8 1b 3e ff ff       	callq  96f3 <transparent_crc>
   158d8:	0f b7 05 51 77 00 00 	movzwl 0x7751(%rip),%eax        # 1d030 <g_17>
   158df:	0f b7 c0             	movzwl %ax,%eax
   158e2:	8b 55 fc             	mov    -0x4(%rbp),%edx
   158e5:	48 8d 35 3e 3e 00 00 	lea    0x3e3e(%rip),%rsi        # 1972a <g_3221+0x1612>
   158ec:	48 89 c7             	mov    %rax,%rdi
   158ef:	e8 ff 3d ff ff       	callq  96f3 <transparent_crc>
   158f4:	c7 45 f0 00 00 00 00 	movl   $0x0,-0x10(%rbp)
   158fb:	eb 4a                	jmp    15947 <main+0xdc>
   158fd:	8b 45 f0             	mov    -0x10(%rbp),%eax
   15900:	48 98                	cltq   
   15902:	48 8d 14 c5 00 00 00 	lea    0x0(,%rax,8),%rdx
   15909:	00 
   1590a:	48 8d 05 2f 77 00 00 	lea    0x772f(%rip),%rax        # 1d040 <g_27>
   15911:	48 8b 04 02          	mov    (%rdx,%rax,1),%rax
   15915:	8b 55 fc             	mov    -0x4(%rbp),%edx
   15918:	48 8d 35 10 3e 00 00 	lea    0x3e10(%rip),%rsi        # 1972f <g_3221+0x1617>
   1591f:	48 89 c7             	mov    %rax,%rdi
   15922:	e8 cc 3d ff ff       	callq  96f3 <transparent_crc>
   15927:	83 7d fc 00          	cmpl   $0x0,-0x4(%rbp)
   1592b:	74 16                	je     15943 <main+0xd8>
   1592d:	8b 45 f0             	mov    -0x10(%rbp),%eax
   15930:	89 c6                	mov    %eax,%esi
   15932:	48 8d 3d fe 3d 00 00 	lea    0x3dfe(%rip),%rdi        # 19737 <g_3221+0x161f>
   15939:	b8 00 00 00 00       	mov    $0x0,%eax
   1593e:	e8 3d 27 ff ff       	callq  8080 <printf@plt>
   15943:	83 45 f0 01          	addl   $0x1,-0x10(%rbp)
   15947:	83 7d f0 04          	cmpl   $0x4,-0x10(%rbp)
   1594b:	7e b0                	jle    158fd <main+0x92>
   1594d:	0f b7 05 14 77 00 00 	movzwl 0x7714(%rip),%eax        # 1d068 <g_44>
   15954:	0f b7 c0             	movzwl %ax,%eax
   15957:	8b 55 fc             	mov    -0x4(%rbp),%edx
   1595a:	48 8d 35 e4 3d 00 00 	lea    0x3de4(%rip),%rsi        # 19745 <g_3221+0x162d>
   15961:	48 89 c7             	mov    %rax,%rdi
   15964:	e8 8a 3d ff ff       	callq  96f3 <transparent_crc>
   15969:	48 8b 05 00 77 00 00 	mov    0x7700(%rip),%rax        # 1d070 <g_47>
   15970:	48 89 c1             	mov    %rax,%rcx
   15973:	8b 45 fc             	mov    -0x4(%rbp),%eax
   15976:	89 c2                	mov    %eax,%edx
   15978:	48 8d 35 cb 3d 00 00 	lea    0x3dcb(%rip),%rsi        # 1974a <g_3221+0x1632>
   1597f:	48 89 cf             	mov    %rcx,%rdi
   15982:	e8 6c 3d ff ff       	callq  96f3 <transparent_crc>
   15987:	8b 05 eb 76 00 00    	mov    0x76eb(%rip),%eax        # 1d078 <g_69>
   1598d:	48 98                	cltq   
   1598f:	8b 55 fc             	mov    -0x4(%rbp),%edx
   15992:	48 8d 35 b6 3d 00 00 	lea    0x3db6(%rip),%rsi        # 1974f <g_3221+0x1637>
   15999:	48 89 c7             	mov    %rax,%rdi
   1599c:	e8 52 3d ff ff       	callq  96f3 <transparent_crc>
   159a1:	8b 05 d5 76 00 00    	mov    0x76d5(%rip),%eax        # 1d07c <g_70>
   159a7:	48 98                	cltq   
   159a9:	8b 55 fc             	mov    -0x4(%rbp),%edx
   159ac:	48 8d 35 a1 3d 00 00 	lea    0x3da1(%rip),%rsi        # 19754 <g_3221+0x163c>
   159b3:	48 89 c7             	mov    %rax,%rdi
   159b6:	e8 38 3d ff ff       	callq  96f3 <transparent_crc>
   159bb:	8b 05 bf 76 00 00    	mov    0x76bf(%rip),%eax        # 1d080 <g_72>
   159c1:	48 98                	cltq   
   159c3:	8b 55 fc             	mov    -0x4(%rbp),%edx
   159c6:	48 8d 35 8c 3d 00 00 	lea    0x3d8c(%rip),%rsi        # 19759 <g_3221+0x1641>
   159cd:	48 89 c7             	mov    %rax,%rdi
   159d0:	e8 1e 3d ff ff       	callq  96f3 <transparent_crc>
   159d5:	0f b7 05 6c be 00 00 	movzwl 0xbe6c(%rip),%eax        # 21848 <g_74>
   159dc:	48 0f bf c0          	movswq %ax,%rax
   159e0:	8b 55 fc             	mov    -0x4(%rbp),%edx
   159e3:	48 8d 35 74 3d 00 00 	lea    0x3d74(%rip),%rsi        # 1975e <g_3221+0x1646>
   159ea:	48 89 c7             	mov    %rax,%rdi
   159ed:	e8 01 3d ff ff       	callq  96f3 <transparent_crc>
   159f2:	8b 05 54 be 00 00    	mov    0xbe54(%rip),%eax        # 2184c <g_75>
   159f8:	89 c1                	mov    %eax,%ecx
   159fa:	8b 45 fc             	mov    -0x4(%rbp),%eax
   159fd:	89 c2                	mov    %eax,%edx
   159ff:	48 8d 35 5d 3d 00 00 	lea    0x3d5d(%rip),%rsi        # 19763 <g_3221+0x164b>
   15a06:	48 89 cf             	mov    %rcx,%rdi
   15a09:	e8 e5 3c ff ff       	callq  96f3 <transparent_crc>
   15a0e:	c7 45 f0 00 00 00 00 	movl   $0x0,-0x10(%rbp)
   15a15:	e9 a3 00 00 00       	jmpq   15abd <main+0x252>
   15a1a:	c7 45 f4 00 00 00 00 	movl   $0x0,-0xc(%rbp)
   15a21:	e9 89 00 00 00       	jmpq   15aaf <main+0x244>
   15a26:	c7 45 f8 00 00 00 00 	movl   $0x0,-0x8(%rbp)
   15a2d:	eb 76                	jmp    15aa5 <main+0x23a>
   15a2f:	8b 45 f8             	mov    -0x8(%rbp),%eax
   15a32:	48 63 c8             	movslq %eax,%rcx
   15a35:	8b 45 f0             	mov    -0x10(%rbp),%eax
   15a38:	48 63 d0             	movslq %eax,%rdx
   15a3b:	8b 45 f4             	mov    -0xc(%rbp),%eax
   15a3e:	48 63 f0             	movslq %eax,%rsi
   15a41:	48 89 d0             	mov    %rdx,%rax
   15a44:	48 c1 e0 03          	shl    $0x3,%rax
   15a48:	48 01 d0             	add    %rdx,%rax
   15a4b:	48 01 f0             	add    %rsi,%rax
   15a4e:	48 c1 e0 02          	shl    $0x2,%rax
   15a52:	48 01 c8             	add    %rcx,%rax
   15a55:	48 8d 14 c5 00 00 00 	lea    0x0(,%rax,8),%rdx
   15a5c:	00 
   15a5d:	48 8d 05 3c 76 00 00 	lea    0x763c(%rip),%rax        # 1d0a0 <g_90>
   15a64:	48 8b 04 02          	mov    (%rdx,%rax,1),%rax
   15a68:	48 89 c1             	mov    %rax,%rcx
   15a6b:	8b 45 fc             	mov    -0x4(%rbp),%eax
   15a6e:	89 c2                	mov    %eax,%edx
   15a70:	48 8d 35 f1 3c 00 00 	lea    0x3cf1(%rip),%rsi        # 19768 <g_3221+0x1650>
   15a77:	48 89 cf             	mov    %rcx,%rdi
   15a7a:	e8 74 3c ff ff       	callq  96f3 <transparent_crc>
   15a7f:	83 7d fc 00          	cmpl   $0x0,-0x4(%rbp)
   15a83:	74 1c                	je     15aa1 <main+0x236>
   15a85:	8b 4d f8             	mov    -0x8(%rbp),%ecx
   15a88:	8b 55 f4             	mov    -0xc(%rbp),%edx
   15a8b:	8b 45 f0             	mov    -0x10(%rbp),%eax
   15a8e:	89 c6                	mov    %eax,%esi
   15a90:	48 8d 3d df 3c 00 00 	lea    0x3cdf(%rip),%rdi        # 19776 <g_3221+0x165e>
   15a97:	b8 00 00 00 00       	mov    $0x0,%eax
   15a9c:	e8 df 25 ff ff       	callq  8080 <printf@plt>
   15aa1:	83 45 f8 01          	addl   $0x1,-0x8(%rbp)
   15aa5:	83 7d f8 03          	cmpl   $0x3,-0x8(%rbp)
   15aa9:	7e 84                	jle    15a2f <main+0x1c4>
   15aab:	83 45 f4 01          	addl   $0x1,-0xc(%rbp)
   15aaf:	83 7d f4 08          	cmpl   $0x8,-0xc(%rbp)
   15ab3:	0f 8e 6d ff ff ff    	jle    15a26 <main+0x1bb>
   15ab9:	83 45 f0 01          	addl   $0x1,-0x10(%rbp)
   15abd:	83 7d f0 06          	cmpl   $0x6,-0x10(%rbp)
   15ac1:	0f 8e 53 ff ff ff    	jle    15a1a <main+0x1af>
   15ac7:	0f b6 05 b2 7d 00 00 	movzbl 0x7db2(%rip),%eax        # 1d880 <g_105>
   15ace:	48 0f be c0          	movsbq %al,%rax
   15ad2:	8b 55 fc             	mov    -0x4(%rbp),%edx
   15ad5:	48 8d 35 b0 3c 00 00 	lea    0x3cb0(%rip),%rsi        # 1978c <g_3221+0x1674>
   15adc:	48 89 c7             	mov    %rax,%rdi
   15adf:	e8 0f 3c ff ff       	callq  96f3 <transparent_crc>
   15ae4:	8b 05 9e 7d 00 00    	mov    0x7d9e(%rip),%eax        # 1d888 <g_109>
   15aea:	48 98                	cltq   
   15aec:	8b 55 fc             	mov    -0x4(%rbp),%edx
   15aef:	48 8d 35 9c 3c 00 00 	lea    0x3c9c(%rip),%rsi        # 19792 <g_3221+0x167a>
   15af6:	48 89 c7             	mov    %rax,%rdi
   15af9:	e8 f5 3b ff ff       	callq  96f3 <transparent_crc>
   15afe:	0f b6 05 83 7d 00 00 	movzbl 0x7d83(%rip),%eax        # 1d888 <g_109>
   15b05:	48 0f be c0          	movsbq %al,%rax
   15b09:	8b 55 fc             	mov    -0x4(%rbp),%edx
   15b0c:	48 8d 35 88 3c 00 00 	lea    0x3c88(%rip),%rsi        # 1979b <g_3221+0x1683>
   15b13:	48 89 c7             	mov    %rax,%rdi
   15b16:	e8 d8 3b ff ff       	callq  96f3 <transparent_crc>
   15b1b:	8b 05 67 7d 00 00    	mov    0x7d67(%rip),%eax        # 1d888 <g_109>
   15b21:	48 98                	cltq   
   15b23:	8b 55 fc             	mov    -0x4(%rbp),%edx
   15b26:	48 8d 35 77 3c 00 00 	lea    0x3c77(%rip),%rsi        # 197a4 <g_3221+0x168c>
   15b2d:	48 89 c7             	mov    %rax,%rdi
   15b30:	e8 be 3b ff ff       	callq  96f3 <transparent_crc>
   15b35:	0f b6 05 54 7d 00 00 	movzbl 0x7d54(%rip),%eax        # 1d890 <g_141>
   15b3c:	0f b6 c0             	movzbl %al,%eax
   15b3f:	8b 55 fc             	mov    -0x4(%rbp),%edx
   15b42:	48 8d 35 64 3c 00 00 	lea    0x3c64(%rip),%rsi        # 197ad <g_3221+0x1695>
   15b49:	48 89 c7             	mov    %rax,%rdi
   15b4c:	e8 a2 3b ff ff       	callq  96f3 <transparent_crc>
   15b51:	8b 05 3d 7d 00 00    	mov    0x7d3d(%rip),%eax        # 1d894 <g_144>
   15b57:	89 c1                	mov    %eax,%ecx
   15b59:	8b 45 fc             	mov    -0x4(%rbp),%eax
   15b5c:	89 c2                	mov    %eax,%edx
   15b5e:	48 8d 35 4e 3c 00 00 	lea    0x3c4e(%rip),%rsi        # 197b3 <g_3221+0x169b>
   15b65:	48 89 cf             	mov    %rcx,%rdi
   15b68:	e8 86 3b ff ff       	callq  96f3 <transparent_crc>
   15b6d:	0f b6 05 24 7d 00 00 	movzbl 0x7d24(%rip),%eax        # 1d898 <g_147>
   15b74:	0f b6 c0             	movzbl %al,%eax
   15b77:	8b 55 fc             	mov    -0x4(%rbp),%edx
   15b7a:	48 8d 35 38 3c 00 00 	lea    0x3c38(%rip),%rsi        # 197b9 <g_3221+0x16a1>
   15b81:	48 89 c7             	mov    %rax,%rdi
   15b84:	e8 6a 3b ff ff       	callq  96f3 <transparent_crc>
   15b89:	8b 05 c1 bc 00 00    	mov    0xbcc1(%rip),%eax        # 21850 <g_149>
   15b8f:	48 98                	cltq   
   15b91:	8b 55 fc             	mov    -0x4(%rbp),%edx
   15b94:	48 8d 35 24 3c 00 00 	lea    0x3c24(%rip),%rsi        # 197bf <g_3221+0x16a7>
   15b9b:	48 89 c7             	mov    %rax,%rdi
   15b9e:	e8 50 3b ff ff       	callq  96f3 <transparent_crc>
   15ba3:	48 8b 05 f6 7c 00 00 	mov    0x7cf6(%rip),%rax        # 1d8a0 <g_187>
   15baa:	8b 55 fc             	mov    -0x4(%rbp),%edx
   15bad:	48 8d 35 11 3c 00 00 	lea    0x3c11(%rip),%rsi        # 197c5 <g_3221+0x16ad>
   15bb4:	48 89 c7             	mov    %rax,%rdi
   15bb7:	e8 37 3b ff ff       	callq  96f3 <transparent_crc>
   15bbc:	8b 05 92 bc 00 00    	mov    0xbc92(%rip),%eax        # 21854 <g_201>
   15bc2:	89 c1                	mov    %eax,%ecx
   15bc4:	8b 45 fc             	mov    -0x4(%rbp),%eax
   15bc7:	89 c2                	mov    %eax,%edx
   15bc9:	48 8d 35 fb 3b 00 00 	lea    0x3bfb(%rip),%rsi        # 197cb <g_3221+0x16b3>
   15bd0:	48 89 cf             	mov    %rcx,%rdi
   15bd3:	e8 1b 3b ff ff       	callq  96f3 <transparent_crc>
   15bd8:	8b 05 ca 7c 00 00    	mov    0x7cca(%rip),%eax        # 1d8a8 <g_203>
   15bde:	89 c1                	mov    %eax,%ecx
   15be0:	8b 45 fc             	mov    -0x4(%rbp),%eax
   15be3:	89 c2                	mov    %eax,%edx
   15be5:	48 8d 35 e5 3b 00 00 	lea    0x3be5(%rip),%rsi        # 197d1 <g_3221+0x16b9>
   15bec:	48 89 cf             	mov    %rcx,%rdi
   15bef:	e8 ff 3a ff ff       	callq  96f3 <transparent_crc>
   15bf4:	0f b7 05 b1 7c 00 00 	movzwl 0x7cb1(%rip),%eax        # 1d8ac <g_214>
   15bfb:	0f b7 c0             	movzwl %ax,%eax
   15bfe:	8b 55 fc             	mov    -0x4(%rbp),%edx
   15c01:	48 8d 35 cf 3b 00 00 	lea    0x3bcf(%rip),%rsi        # 197d7 <g_3221+0x16bf>
   15c08:	48 89 c7             	mov    %rax,%rdi
   15c0b:	e8 e3 3a ff ff       	callq  96f3 <transparent_crc>
   15c10:	8b 05 9a 7c 00 00    	mov    0x7c9a(%rip),%eax        # 1d8b0 <g_222>
   15c16:	89 c1                	mov    %eax,%ecx
   15c18:	8b 45 fc             	mov    -0x4(%rbp),%eax
   15c1b:	89 c2                	mov    %eax,%edx
   15c1d:	48 8d 35 b9 3b 00 00 	lea    0x3bb9(%rip),%rsi        # 197dd <g_3221+0x16c5>
   15c24:	48 89 cf             	mov    %rcx,%rdi
   15c27:	e8 c7 3a ff ff       	callq  96f3 <transparent_crc>
   15c2c:	c7 45 f0 00 00 00 00 	movl   $0x0,-0x10(%rbp)
   15c33:	e9 a7 00 00 00       	jmpq   15cdf <main+0x474>
   15c38:	c7 45 f4 00 00 00 00 	movl   $0x0,-0xc(%rbp)
   15c3f:	e9 8d 00 00 00       	jmpq   15cd1 <main+0x466>
   15c44:	c7 45 f8 00 00 00 00 	movl   $0x0,-0x8(%rbp)
   15c4b:	eb 7a                	jmp    15cc7 <main+0x45c>
   15c4d:	8b 45 f8             	mov    -0x8(%rbp),%eax
   15c50:	48 63 f0             	movslq %eax,%rsi
   15c53:	8b 45 f0             	mov    -0x10(%rbp),%eax
   15c56:	48 63 d0             	movslq %eax,%rdx
   15c59:	8b 45 f4             	mov    -0xc(%rbp),%eax
   15c5c:	48 63 c8             	movslq %eax,%rcx
   15c5f:	48 89 d0             	mov    %rdx,%rax
   15c62:	48 c1 e0 02          	shl    $0x2,%rax
   15c66:	48 01 d0             	add    %rdx,%rax
   15c69:	48 01 c0             	add    %rax,%rax
   15c6c:	48 89 ca             	mov    %rcx,%rdx
   15c6f:	48 c1 e2 02          	shl    $0x2,%rdx
   15c73:	48 01 ca             	add    %rcx,%rdx
   15c76:	48 01 d0             	add    %rdx,%rax
   15c79:	48 01 f0             	add    %rsi,%rax
   15c7c:	48 8d 14 00          	lea    (%rax,%rax,1),%rdx
   15c80:	48 8d 05 39 7c 00 00 	lea    0x7c39(%rip),%rax        # 1d8c0 <g_234>
   15c87:	0f b7 04 02          	movzwl (%rdx,%rax,1),%eax
   15c8b:	48 0f bf c0          	movswq %ax,%rax
   15c8f:	8b 55 fc             	mov    -0x4(%rbp),%edx
   15c92:	48 8d 35 4a 3b 00 00 	lea    0x3b4a(%rip),%rsi        # 197e3 <g_3221+0x16cb>
   15c99:	48 89 c7             	mov    %rax,%rdi
   15c9c:	e8 52 3a ff ff       	callq  96f3 <transparent_crc>
   15ca1:	83 7d fc 00          	cmpl   $0x0,-0x4(%rbp)
   15ca5:	74 1c                	je     15cc3 <main+0x458>
   15ca7:	8b 4d f8             	mov    -0x8(%rbp),%ecx
   15caa:	8b 55 f4             	mov    -0xc(%rbp),%edx
   15cad:	8b 45 f0             	mov    -0x10(%rbp),%eax
   15cb0:	89 c6                	mov    %eax,%esi
   15cb2:	48 8d 3d bd 3a 00 00 	lea    0x3abd(%rip),%rdi        # 19776 <g_3221+0x165e>
   15cb9:	b8 00 00 00 00       	mov    $0x0,%eax
   15cbe:	e8 bd 23 ff ff       	callq  8080 <printf@plt>
   15cc3:	83 45 f8 01          	addl   $0x1,-0x8(%rbp)
   15cc7:	83 7d f8 04          	cmpl   $0x4,-0x8(%rbp)
   15ccb:	7e 80                	jle    15c4d <main+0x3e2>
   15ccd:	83 45 f4 01          	addl   $0x1,-0xc(%rbp)
   15cd1:	83 7d f4 01          	cmpl   $0x1,-0xc(%rbp)
   15cd5:	0f 8e 69 ff ff ff    	jle    15c44 <main+0x3d9>
   15cdb:	83 45 f0 01          	addl   $0x1,-0x10(%rbp)
   15cdf:	83 7d f0 04          	cmpl   $0x4,-0x10(%rbp)
   15ce3:	0f 8e 4f ff ff ff    	jle    15c38 <main+0x3cd>
   15ce9:	0f b6 05 34 7c 00 00 	movzbl 0x7c34(%rip),%eax        # 1d924 <g_281>
   15cf0:	48 0f be c0          	movsbq %al,%rax
   15cf4:	8b 55 fc             	mov    -0x4(%rbp),%edx
   15cf7:	48 8d 35 f4 3a 00 00 	lea    0x3af4(%rip),%rsi        # 197f2 <g_3221+0x16da>
   15cfe:	48 89 c7             	mov    %rax,%rdi
   15d01:	e8 ed 39 ff ff       	callq  96f3 <transparent_crc>
   15d06:	8b 05 1c 7c 00 00    	mov    0x7c1c(%rip),%eax        # 1d928 <g_293>
   15d0c:	89 c1                	mov    %eax,%ecx
   15d0e:	8b 45 fc             	mov    -0x4(%rbp),%eax
   15d11:	89 c2                	mov    %eax,%edx
   15d13:	48 8d 35 de 3a 00 00 	lea    0x3ade(%rip),%rsi        # 197f8 <g_3221+0x16e0>
   15d1a:	48 89 cf             	mov    %rcx,%rdi
   15d1d:	e8 d1 39 ff ff       	callq  96f3 <transparent_crc>
   15d22:	c7 45 f0 00 00 00 00 	movl   $0x0,-0x10(%rbp)
   15d29:	e9 9e 00 00 00       	jmpq   15dcc <main+0x561>
   15d2e:	c7 45 f4 00 00 00 00 	movl   $0x0,-0xc(%rbp)
   15d35:	e9 84 00 00 00       	jmpq   15dbe <main+0x553>
   15d3a:	c7 45 f8 00 00 00 00 	movl   $0x0,-0x8(%rbp)
   15d41:	eb 71                	jmp    15db4 <main+0x549>
   15d43:	8b 45 f8             	mov    -0x8(%rbp),%eax
   15d46:	48 63 f0             	movslq %eax,%rsi
   15d49:	8b 45 f4             	mov    -0xc(%rbp),%eax
   15d4c:	48 63 c8             	movslq %eax,%rcx
   15d4f:	8b 45 f0             	mov    -0x10(%rbp),%eax
   15d52:	48 63 d0             	movslq %eax,%rdx
   15d55:	48 89 d0             	mov    %rdx,%rax
   15d58:	48 c1 e0 02          	shl    $0x2,%rax
   15d5c:	48 01 d0             	add    %rdx,%rax
   15d5f:	48 01 c0             	add    %rax,%rax
   15d62:	48 01 f0             	add    %rsi,%rax
   15d65:	48 01 c8             	add    %rcx,%rax
   15d68:	48 8d 14 85 00 00 00 	lea    0x0(,%rax,4),%rdx
   15d6f:	00 
   15d70:	48 8d 05 e9 22 00 00 	lea    0x22e9(%rip),%rax        # 18060 <g_312>
   15d77:	8b 04 02             	mov    (%rdx,%rax,1),%eax
   15d7a:	48 98                	cltq   
   15d7c:	8b 55 fc             	mov    -0x4(%rbp),%edx
   15d7f:	48 8d 35 78 3a 00 00 	lea    0x3a78(%rip),%rsi        # 197fe <g_3221+0x16e6>
   15d86:	48 89 c7             	mov    %rax,%rdi
   15d89:	e8 65 39 ff ff       	callq  96f3 <transparent_crc>
   15d8e:	83 7d fc 00          	cmpl   $0x0,-0x4(%rbp)
   15d92:	74 1c                	je     15db0 <main+0x545>
   15d94:	8b 4d f8             	mov    -0x8(%rbp),%ecx
   15d97:	8b 55 f4             	mov    -0xc(%rbp),%edx
   15d9a:	8b 45 f0             	mov    -0x10(%rbp),%eax
   15d9d:	89 c6                	mov    %eax,%esi
   15d9f:	48 8d 3d d0 39 00 00 	lea    0x39d0(%rip),%rdi        # 19776 <g_3221+0x165e>
   15da6:	b8 00 00 00 00       	mov    $0x0,%eax
   15dab:	e8 d0 22 ff ff       	callq  8080 <printf@plt>
   15db0:	83 45 f8 01          	addl   $0x1,-0x8(%rbp)
   15db4:	83 7d f8 00          	cmpl   $0x0,-0x8(%rbp)
   15db8:	7e 89                	jle    15d43 <main+0x4d8>
   15dba:	83 45 f4 01          	addl   $0x1,-0xc(%rbp)
   15dbe:	83 7d f4 09          	cmpl   $0x9,-0xc(%rbp)
   15dc2:	0f 8e 72 ff ff ff    	jle    15d3a <main+0x4cf>
   15dc8:	83 45 f0 01          	addl   $0x1,-0x10(%rbp)
   15dcc:	83 7d f0 03          	cmpl   $0x3,-0x10(%rbp)
   15dd0:	0f 8e 58 ff ff ff    	jle    15d2e <main+0x4c3>
   15dd6:	0f b6 05 4f 7b 00 00 	movzbl 0x7b4f(%rip),%eax        # 1d92c <g_320>
   15ddd:	0f b6 c0             	movzbl %al,%eax
   15de0:	8b 55 fc             	mov    -0x4(%rbp),%edx
   15de3:	48 8d 35 23 3a 00 00 	lea    0x3a23(%rip),%rsi        # 1980d <g_3221+0x16f5>
   15dea:	48 89 c7             	mov    %rax,%rdi
   15ded:	e8 01 39 ff ff       	callq  96f3 <transparent_crc>
   15df2:	c7 45 f0 00 00 00 00 	movl   $0x0,-0x10(%rbp)
   15df9:	e9 b0 00 00 00       	jmpq   15eae <main+0x643>
   15dfe:	c7 45 f4 00 00 00 00 	movl   $0x0,-0xc(%rbp)
   15e05:	e9 96 00 00 00       	jmpq   15ea0 <main+0x635>
   15e0a:	c7 45 f8 00 00 00 00 	movl   $0x0,-0x8(%rbp)
   15e11:	eb 7f                	jmp    15e92 <main+0x627>
   15e13:	8b 45 f8             	mov    -0x8(%rbp),%eax
   15e16:	48 63 f0             	movslq %eax,%rsi
   15e19:	8b 45 f0             	mov    -0x10(%rbp),%eax
   15e1c:	48 63 d0             	movslq %eax,%rdx
   15e1f:	8b 45 f4             	mov    -0xc(%rbp),%eax
   15e22:	48 63 c8             	movslq %eax,%rcx
   15e25:	48 89 d0             	mov    %rdx,%rax
   15e28:	48 c1 e0 04          	shl    $0x4,%rax
   15e2c:	48 29 d0             	sub    %rdx,%rax
   15e2f:	48 01 c0             	add    %rax,%rax
   15e32:	48 89 ca             	mov    %rcx,%rdx
   15e35:	48 c1 e2 02          	shl    $0x2,%rdx
   15e39:	48 01 ca             	add    %rcx,%rdx
   15e3c:	48 01 d0             	add    %rdx,%rax
   15e3f:	48 01 f0             	add    %rsi,%rax
   15e42:	48 8d 14 c5 00 00 00 	lea    0x0(,%rax,8),%rdx
   15e49:	00 
   15e4a:	48 8d 05 ef 7a 00 00 	lea    0x7aef(%rip),%rax        # 1d940 <g_363>
   15e51:	48 8b 04 02          	mov    (%rdx,%rax,1),%rax
   15e55:	48 89 c1             	mov    %rax,%rcx
   15e58:	8b 45 fc             	mov    -0x4(%rbp),%eax
   15e5b:	89 c2                	mov    %eax,%edx
   15e5d:	48 8d 35 af 39 00 00 	lea    0x39af(%rip),%rsi        # 19813 <g_3221+0x16fb>
   15e64:	48 89 cf             	mov    %rcx,%rdi
   15e67:	e8 87 38 ff ff       	callq  96f3 <transparent_crc>
   15e6c:	83 7d fc 00          	cmpl   $0x0,-0x4(%rbp)
   15e70:	74 1c                	je     15e8e <main+0x623>
   15e72:	8b 4d f8             	mov    -0x8(%rbp),%ecx
   15e75:	8b 55 f4             	mov    -0xc(%rbp),%edx
   15e78:	8b 45 f0             	mov    -0x10(%rbp),%eax
   15e7b:	89 c6                	mov    %eax,%esi
   15e7d:	48 8d 3d f2 38 00 00 	lea    0x38f2(%rip),%rdi        # 19776 <g_3221+0x165e>
   15e84:	b8 00 00 00 00       	mov    $0x0,%eax
   15e89:	e8 f2 21 ff ff       	callq  8080 <printf@plt>
   15e8e:	83 45 f8 01          	addl   $0x1,-0x8(%rbp)
   15e92:	83 7d f8 04          	cmpl   $0x4,-0x8(%rbp)
   15e96:	0f 8e 77 ff ff ff    	jle    15e13 <main+0x5a8>
   15e9c:	83 45 f4 01          	addl   $0x1,-0xc(%rbp)
   15ea0:	83 7d f4 05          	cmpl   $0x5,-0xc(%rbp)
   15ea4:	0f 8e 60 ff ff ff    	jle    15e0a <main+0x59f>
   15eaa:	83 45 f0 01          	addl   $0x1,-0x10(%rbp)
   15eae:	83 7d f0 07          	cmpl   $0x7,-0x10(%rbp)
   15eb2:	0f 8e 46 ff ff ff    	jle    15dfe <main+0x593>
   15eb8:	c7 45 f0 00 00 00 00 	movl   $0x0,-0x10(%rbp)
   15ebf:	e9 9f 00 00 00       	jmpq   15f63 <main+0x6f8>
   15ec4:	c7 45 f4 00 00 00 00 	movl   $0x0,-0xc(%rbp)
   15ecb:	e9 85 00 00 00       	jmpq   15f55 <main+0x6ea>
   15ed0:	c7 45 f8 00 00 00 00 	movl   $0x0,-0x8(%rbp)
   15ed7:	eb 72                	jmp    15f4b <main+0x6e0>
   15ed9:	8b 45 f8             	mov    -0x8(%rbp),%eax
   15edc:	48 63 c8             	movslq %eax,%rcx
   15edf:	8b 45 f0             	mov    -0x10(%rbp),%eax
   15ee2:	48 63 d0             	movslq %eax,%rdx
   15ee5:	8b 45 f4             	mov    -0xc(%rbp),%eax
   15ee8:	48 63 f0             	movslq %eax,%rsi
   15eeb:	48 89 d0             	mov    %rdx,%rax
   15eee:	48 01 c0             	add    %rax,%rax
   15ef1:	48 01 d0             	add    %rdx,%rax
   15ef4:	48 01 c0             	add    %rax,%rax
   15ef7:	48 01 f0             	add    %rsi,%rax
   15efa:	48 c1 e0 02          	shl    $0x2,%rax
   15efe:	48 01 c8             	add    %rcx,%rax
   15f01:	48 8d 14 00          	lea    (%rax,%rax,1),%rdx
   15f05:	48 8d 05 b4 81 00 00 	lea    0x81b4(%rip),%rax        # 1e0c0 <g_417>
   15f0c:	0f b7 04 02          	movzwl (%rdx,%rax,1),%eax
   15f10:	0f b7 c0             	movzwl %ax,%eax
   15f13:	8b 55 fc             	mov    -0x4(%rbp),%edx
   15f16:	48 8d 35 05 39 00 00 	lea    0x3905(%rip),%rsi        # 19822 <g_3221+0x170a>
   15f1d:	48 89 c7             	mov    %rax,%rdi
   15f20:	e8 ce 37 ff ff       	callq  96f3 <transparent_crc>
   15f25:	83 7d fc 00          	cmpl   $0x0,-0x4(%rbp)
   15f29:	74 1c                	je     15f47 <main+0x6dc>
   15f2b:	8b 4d f8             	mov    -0x8(%rbp),%ecx
   15f2e:	8b 55 f4             	mov    -0xc(%rbp),%edx
   15f31:	8b 45 f0             	mov    -0x10(%rbp),%eax
   15f34:	89 c6                	mov    %eax,%esi
   15f36:	48 8d 3d 39 38 00 00 	lea    0x3839(%rip),%rdi        # 19776 <g_3221+0x165e>
   15f3d:	b8 00 00 00 00       	mov    $0x0,%eax
   15f42:	e8 39 21 ff ff       	callq  8080 <printf@plt>
   15f47:	83 45 f8 01          	addl   $0x1,-0x8(%rbp)
   15f4b:	83 7d f8 03          	cmpl   $0x3,-0x8(%rbp)
   15f4f:	7e 88                	jle    15ed9 <main+0x66e>
   15f51:	83 45 f4 01          	addl   $0x1,-0xc(%rbp)
   15f55:	83 7d f4 05          	cmpl   $0x5,-0xc(%rbp)
   15f59:	0f 8e 71 ff ff ff    	jle    15ed0 <main+0x665>
   15f5f:	83 45 f0 01          	addl   $0x1,-0x10(%rbp)
   15f63:	83 7d f0 09          	cmpl   $0x9,-0x10(%rbp)
   15f67:	0f 8e 57 ff ff ff    	jle    15ec4 <main+0x659>
   15f6d:	0f b7 05 e4 b8 00 00 	movzwl 0xb8e4(%rip),%eax        # 21858 <g_419>
   15f74:	0f b7 c0             	movzwl %ax,%eax
   15f77:	8b 55 fc             	mov    -0x4(%rbp),%edx
   15f7a:	48 8d 35 b0 38 00 00 	lea    0x38b0(%rip),%rsi        # 19831 <g_3221+0x1719>
   15f81:	48 89 c7             	mov    %rax,%rdi
   15f84:	e8 6a 37 ff ff       	callq  96f3 <transparent_crc>
   15f89:	8b 05 d1 b8 00 00    	mov    0xb8d1(%rip),%eax        # 21860 <g_424>
   15f8f:	48 98                	cltq   
   15f91:	8b 55 fc             	mov    -0x4(%rbp),%edx
   15f94:	48 8d 35 9c 38 00 00 	lea    0x389c(%rip),%rsi        # 19837 <g_3221+0x171f>
   15f9b:	48 89 c7             	mov    %rax,%rdi
   15f9e:	e8 50 37 ff ff       	callq  96f3 <transparent_crc>
   15fa3:	0f b6 05 b6 b8 00 00 	movzbl 0xb8b6(%rip),%eax        # 21860 <g_424>
   15faa:	48 0f be c0          	movsbq %al,%rax
   15fae:	8b 55 fc             	mov    -0x4(%rbp),%edx
   15fb1:	48 8d 35 88 38 00 00 	lea    0x3888(%rip),%rsi        # 19840 <g_3221+0x1728>
   15fb8:	48 89 c7             	mov    %rax,%rdi
   15fbb:	e8 33 37 ff ff       	callq  96f3 <transparent_crc>
   15fc0:	8b 05 9a b8 00 00    	mov    0xb89a(%rip),%eax        # 21860 <g_424>
   15fc6:	48 98                	cltq   
   15fc8:	8b 55 fc             	mov    -0x4(%rbp),%edx
   15fcb:	48 8d 35 77 38 00 00 	lea    0x3877(%rip),%rsi        # 19849 <g_3221+0x1731>
   15fd2:	48 89 c7             	mov    %rax,%rdi
   15fd5:	e8 19 37 ff ff       	callq  96f3 <transparent_crc>
   15fda:	0f b6 05 bf 82 00 00 	movzbl 0x82bf(%rip),%eax        # 1e2a0 <g_450>
   15fe1:	0f b6 c0             	movzbl %al,%eax
   15fe4:	8b 55 fc             	mov    -0x4(%rbp),%edx
   15fe7:	48 8d 35 64 38 00 00 	lea    0x3864(%rip),%rsi        # 19852 <g_3221+0x173a>
   15fee:	48 89 c7             	mov    %rax,%rdi
   15ff1:	e8 fd 36 ff ff       	callq  96f3 <transparent_crc>
   15ff6:	8b 05 a8 82 00 00    	mov    0x82a8(%rip),%eax        # 1e2a4 <g_451>
   15ffc:	48 98                	cltq   
   15ffe:	8b 55 fc             	mov    -0x4(%rbp),%edx
   16001:	48 8d 35 50 38 00 00 	lea    0x3850(%rip),%rsi        # 19858 <g_3221+0x1740>
   16008:	48 89 c7             	mov    %rax,%rdi
   1600b:	e8 e3 36 ff ff       	callq  96f3 <transparent_crc>
   16010:	8b 05 92 82 00 00    	mov    0x8292(%rip),%eax        # 1e2a8 <g_483>
   16016:	48 98                	cltq   
   16018:	8b 55 fc             	mov    -0x4(%rbp),%edx
   1601b:	48 8d 35 3c 38 00 00 	lea    0x383c(%rip),%rsi        # 1985e <g_3221+0x1746>
   16022:	48 89 c7             	mov    %rax,%rdi
   16025:	e8 c9 36 ff ff       	callq  96f3 <transparent_crc>
   1602a:	0f b6 05 77 82 00 00 	movzbl 0x8277(%rip),%eax        # 1e2a8 <g_483>
   16031:	48 0f be c0          	movsbq %al,%rax
   16035:	8b 55 fc             	mov    -0x4(%rbp),%edx
   16038:	48 8d 35 28 38 00 00 	lea    0x3828(%rip),%rsi        # 19867 <g_3221+0x174f>
   1603f:	48 89 c7             	mov    %rax,%rdi
   16042:	e8 ac 36 ff ff       	callq  96f3 <transparent_crc>
   16047:	8b 05 5b 82 00 00    	mov    0x825b(%rip),%eax        # 1e2a8 <g_483>
   1604d:	48 98                	cltq   
   1604f:	8b 55 fc             	mov    -0x4(%rbp),%edx
   16052:	48 8d 35 17 38 00 00 	lea    0x3817(%rip),%rsi        # 19870 <g_3221+0x1758>
   16059:	48 89 c7             	mov    %rax,%rdi
   1605c:	e8 92 36 ff ff       	callq  96f3 <transparent_crc>
   16061:	8b 05 49 82 00 00    	mov    0x8249(%rip),%eax        # 1e2b0 <g_486>
   16067:	89 c1                	mov    %eax,%ecx
   16069:	8b 45 fc             	mov    -0x4(%rbp),%eax
   1606c:	89 c2                	mov    %eax,%edx
   1606e:	48 8d 35 04 38 00 00 	lea    0x3804(%rip),%rsi        # 19879 <g_3221+0x1761>
   16075:	48 89 cf             	mov    %rcx,%rdi
   16078:	e8 76 36 ff ff       	callq  96f3 <transparent_crc>
   1607d:	c7 45 f0 00 00 00 00 	movl   $0x0,-0x10(%rbp)
   16084:	e9 47 01 00 00       	jmpq   161d0 <main+0x965>
   16089:	c7 45 f4 00 00 00 00 	movl   $0x0,-0xc(%rbp)
   16090:	e9 2d 01 00 00       	jmpq   161c2 <main+0x957>
   16095:	c7 45 f8 00 00 00 00 	movl   $0x0,-0x8(%rbp)
   1609c:	e9 13 01 00 00       	jmpq   161b4 <main+0x949>
   160a1:	8b 45 f8             	mov    -0x8(%rbp),%eax
   160a4:	48 63 c8             	movslq %eax,%rcx
   160a7:	8b 45 f0             	mov    -0x10(%rbp),%eax
   160aa:	48 63 d0             	movslq %eax,%rdx
   160ad:	8b 45 f4             	mov    -0xc(%rbp),%eax
   160b0:	48 63 f0             	movslq %eax,%rsi
   160b3:	48 89 d0             	mov    %rdx,%rax
   160b6:	48 01 c0             	add    %rax,%rax
   160b9:	48 01 d0             	add    %rdx,%rax
   160bc:	48 01 c0             	add    %rax,%rax
   160bf:	48 01 f0             	add    %rsi,%rax
   160c2:	48 c1 e0 03          	shl    $0x3,%rax
   160c6:	48 01 c8             	add    %rcx,%rax
   160c9:	48 8d 14 c5 00 00 00 	lea    0x0(,%rax,8),%rdx
   160d0:	00 
   160d1:	48 8d 05 e8 81 00 00 	lea    0x81e8(%rip),%rax        # 1e2c0 <g_552>
   160d8:	8b 04 02             	mov    (%rdx,%rax,1),%eax
   160db:	48 98                	cltq   
   160dd:	8b 55 fc             	mov    -0x4(%rbp),%edx
   160e0:	48 8d 35 98 37 00 00 	lea    0x3798(%rip),%rsi        # 1987f <g_3221+0x1767>
   160e7:	48 89 c7             	mov    %rax,%rdi
   160ea:	e8 04 36 ff ff       	callq  96f3 <transparent_crc>
   160ef:	8b 45 f8             	mov    -0x8(%rbp),%eax
   160f2:	48 63 c8             	movslq %eax,%rcx
   160f5:	8b 45 f0             	mov    -0x10(%rbp),%eax
   160f8:	48 63 d0             	movslq %eax,%rdx
   160fb:	8b 45 f4             	mov    -0xc(%rbp),%eax
   160fe:	48 63 f0             	movslq %eax,%rsi
   16101:	48 89 d0             	mov    %rdx,%rax
   16104:	48 01 c0             	add    %rax,%rax
   16107:	48 01 d0             	add    %rdx,%rax
   1610a:	48 01 c0             	add    %rax,%rax
   1610d:	48 01 f0             	add    %rsi,%rax
   16110:	48 c1 e0 03          	shl    $0x3,%rax
   16114:	48 01 c8             	add    %rcx,%rax
   16117:	48 8d 14 c5 00 00 00 	lea    0x0(,%rax,8),%rdx
   1611e:	00 
   1611f:	48 8d 05 9a 81 00 00 	lea    0x819a(%rip),%rax        # 1e2c0 <g_552>
   16126:	0f b6 04 02          	movzbl (%rdx,%rax,1),%eax
   1612a:	48 0f be c0          	movsbq %al,%rax
   1612e:	8b 55 fc             	mov    -0x4(%rbp),%edx
   16131:	48 8d 35 59 37 00 00 	lea    0x3759(%rip),%rsi        # 19891 <g_3221+0x1779>
   16138:	48 89 c7             	mov    %rax,%rdi
   1613b:	e8 b3 35 ff ff       	callq  96f3 <transparent_crc>
   16140:	8b 45 f8             	mov    -0x8(%rbp),%eax
   16143:	48 63 c8             	movslq %eax,%rcx
   16146:	8b 45 f0             	mov    -0x10(%rbp),%eax
   16149:	48 63 d0             	movslq %eax,%rdx
   1614c:	8b 45 f4             	mov    -0xc(%rbp),%eax
   1614f:	48 63 f0             	movslq %eax,%rsi
   16152:	48 89 d0             	mov    %rdx,%rax
   16155:	48 01 c0             	add    %rax,%rax
   16158:	48 01 d0             	add    %rdx,%rax
   1615b:	48 01 c0             	add    %rax,%rax
   1615e:	48 01 f0             	add    %rsi,%rax
   16161:	48 c1 e0 03          	shl    $0x3,%rax
   16165:	48 01 c8             	add    %rcx,%rax
   16168:	48 8d 14 c5 00 00 00 	lea    0x0(,%rax,8),%rdx
   1616f:	00 
   16170:	48 8d 05 49 81 00 00 	lea    0x8149(%rip),%rax        # 1e2c0 <g_552>
   16177:	8b 04 02             	mov    (%rdx,%rax,1),%eax
   1617a:	48 98                	cltq   
   1617c:	8b 55 fc             	mov    -0x4(%rbp),%edx
   1617f:	48 8d 35 1d 37 00 00 	lea    0x371d(%rip),%rsi        # 198a3 <g_3221+0x178b>
   16186:	48 89 c7             	mov    %rax,%rdi
   16189:	e8 65 35 ff ff       	callq  96f3 <transparent_crc>
   1618e:	83 7d fc 00          	cmpl   $0x0,-0x4(%rbp)
   16192:	74 1c                	je     161b0 <main+0x945>
   16194:	8b 4d f8             	mov    -0x8(%rbp),%ecx
   16197:	8b 55 f4             	mov    -0xc(%rbp),%edx
   1619a:	8b 45 f0             	mov    -0x10(%rbp),%eax
   1619d:	89 c6                	mov    %eax,%esi
   1619f:	48 8d 3d d0 35 00 00 	lea    0x35d0(%rip),%rdi        # 19776 <g_3221+0x165e>
   161a6:	b8 00 00 00 00       	mov    $0x0,%eax
   161ab:	e8 d0 1e ff ff       	callq  8080 <printf@plt>
   161b0:	83 45 f8 01          	addl   $0x1,-0x8(%rbp)
   161b4:	83 7d f8 07          	cmpl   $0x7,-0x8(%rbp)
   161b8:	0f 8e e3 fe ff ff    	jle    160a1 <main+0x836>
   161be:	83 45 f4 01          	addl   $0x1,-0xc(%rbp)
   161c2:	83 7d f4 05          	cmpl   $0x5,-0xc(%rbp)
   161c6:	0f 8e c9 fe ff ff    	jle    16095 <main+0x82a>
   161cc:	83 45 f0 01          	addl   $0x1,-0x10(%rbp)
   161d0:	83 7d f0 02          	cmpl   $0x2,-0x10(%rbp)
   161d4:	0f 8e af fe ff ff    	jle    16089 <main+0x81e>
   161da:	c7 45 f0 00 00 00 00 	movl   $0x0,-0x10(%rbp)
   161e1:	eb 49                	jmp    1622c <main+0x9c1>
   161e3:	8b 45 f0             	mov    -0x10(%rbp),%eax
   161e6:	48 98                	cltq   
   161e8:	48 8d 14 00          	lea    (%rax,%rax,1),%rdx
   161ec:	48 8d 05 4d 85 00 00 	lea    0x854d(%rip),%rax        # 1e740 <g_555>
   161f3:	0f b7 04 02          	movzwl (%rdx,%rax,1),%eax
   161f7:	0f b7 c0             	movzwl %ax,%eax
   161fa:	8b 55 fc             	mov    -0x4(%rbp),%edx
   161fd:	48 8d 35 b1 36 00 00 	lea    0x36b1(%rip),%rsi        # 198b5 <g_3221+0x179d>
   16204:	48 89 c7             	mov    %rax,%rdi
   16207:	e8 e7 34 ff ff       	callq  96f3 <transparent_crc>
   1620c:	83 7d fc 00          	cmpl   $0x0,-0x4(%rbp)
   16210:	74 16                	je     16228 <main+0x9bd>
   16212:	8b 45 f0             	mov    -0x10(%rbp),%eax
   16215:	89 c6                	mov    %eax,%esi
   16217:	48 8d 3d 19 35 00 00 	lea    0x3519(%rip),%rdi        # 19737 <g_3221+0x161f>
   1621e:	b8 00 00 00 00       	mov    $0x0,%eax
   16223:	e8 58 1e ff ff       	callq  8080 <printf@plt>
   16228:	83 45 f0 01          	addl   $0x1,-0x10(%rbp)
   1622c:	83 7d f0 08          	cmpl   $0x8,-0x10(%rbp)
   16230:	7e b1                	jle    161e3 <main+0x978>
   16232:	0f b6 05 19 85 00 00 	movzbl 0x8519(%rip),%eax        # 1e752 <g_573>
   16239:	48 0f be c0          	movsbq %al,%rax
   1623d:	8b 55 fc             	mov    -0x4(%rbp),%edx
   16240:	48 8d 35 77 36 00 00 	lea    0x3677(%rip),%rsi        # 198be <g_3221+0x17a6>
   16247:	48 89 c7             	mov    %rax,%rdi
   1624a:	e8 a4 34 ff ff       	callq  96f3 <transparent_crc>
   1624f:	0f b7 05 fe 84 00 00 	movzwl 0x84fe(%rip),%eax        # 1e754 <g_605>
   16256:	48 0f bf c0          	movswq %ax,%rax
   1625a:	8b 55 fc             	mov    -0x4(%rbp),%edx
   1625d:	48 8d 35 60 36 00 00 	lea    0x3660(%rip),%rsi        # 198c4 <g_3221+0x17ac>
   16264:	48 89 c7             	mov    %rax,%rdi
   16267:	e8 87 34 ff ff       	callq  96f3 <transparent_crc>
   1626c:	c7 45 f0 00 00 00 00 	movl   $0x0,-0x10(%rbp)
   16273:	e9 a7 00 00 00       	jmpq   1631f <main+0xab4>
   16278:	c7 45 f4 00 00 00 00 	movl   $0x0,-0xc(%rbp)
   1627f:	e9 8d 00 00 00       	jmpq   16311 <main+0xaa6>
   16284:	c7 45 f8 00 00 00 00 	movl   $0x0,-0x8(%rbp)
   1628b:	eb 7a                	jmp    16307 <main+0xa9c>
   1628d:	8b 45 f8             	mov    -0x8(%rbp),%eax
   16290:	48 63 f0             	movslq %eax,%rsi
   16293:	8b 45 f0             	mov    -0x10(%rbp),%eax
   16296:	48 63 d0             	movslq %eax,%rdx
   16299:	8b 45 f4             	mov    -0xc(%rbp),%eax
   1629c:	48 63 c8             	movslq %eax,%rcx
   1629f:	48 89 d0             	mov    %rdx,%rax
   162a2:	48 c1 e0 03          	shl    $0x3,%rax
   162a6:	48 29 d0             	sub    %rdx,%rax
   162a9:	48 c1 e0 03          	shl    $0x3,%rax
   162ad:	48 89 ca             	mov    %rcx,%rdx
   162b0:	48 c1 e2 03          	shl    $0x3,%rdx
   162b4:	48 29 ca             	sub    %rcx,%rdx
   162b7:	48 01 d0             	add    %rdx,%rax
   162ba:	48 8d 14 30          	lea    (%rax,%rsi,1),%rdx
   162be:	48 8d 05 9b 84 00 00 	lea    0x849b(%rip),%rax        # 1e760 <g_653>
   162c5:	48 01 d0             	add    %rdx,%rax
   162c8:	0f b6 00             	movzbl (%rax),%eax
   162cb:	48 0f be c0          	movsbq %al,%rax
   162cf:	8b 55 fc             	mov    -0x4(%rbp),%edx
   162d2:	48 8d 35 f1 35 00 00 	lea    0x35f1(%rip),%rsi        # 198ca <g_3221+0x17b2>
   162d9:	48 89 c7             	mov    %rax,%rdi
   162dc:	e8 12 34 ff ff       	callq  96f3 <transparent_crc>
   162e1:	83 7d fc 00          	cmpl   $0x0,-0x4(%rbp)
   162e5:	74 1c                	je     16303 <main+0xa98>
   162e7:	8b 4d f8             	mov    -0x8(%rbp),%ecx
   162ea:	8b 55 f4             	mov    -0xc(%rbp),%edx
   162ed:	8b 45 f0             	mov    -0x10(%rbp),%eax
   162f0:	89 c6                	mov    %eax,%esi
   162f2:	48 8d 3d 7d 34 00 00 	lea    0x347d(%rip),%rdi        # 19776 <g_3221+0x165e>
   162f9:	b8 00 00 00 00       	mov    $0x0,%eax
   162fe:	e8 7d 1d ff ff       	callq  8080 <printf@plt>
   16303:	83 45 f8 01          	addl   $0x1,-0x8(%rbp)
   16307:	83 7d f8 06          	cmpl   $0x6,-0x8(%rbp)
   1630b:	7e 80                	jle    1628d <main+0xa22>
   1630d:	83 45 f4 01          	addl   $0x1,-0xc(%rbp)
   16311:	83 7d f4 07          	cmpl   $0x7,-0xc(%rbp)
   16315:	0f 8e 69 ff ff ff    	jle    16284 <main+0xa19>
   1631b:	83 45 f0 01          	addl   $0x1,-0x10(%rbp)
   1631f:	83 7d f0 00          	cmpl   $0x0,-0x10(%rbp)
   16323:	0f 8e 4f ff ff ff    	jle    16278 <main+0xa0d>
   16329:	8b 05 69 84 00 00    	mov    0x8469(%rip),%eax        # 1e798 <g_674>
   1632f:	48 98                	cltq   
   16331:	8b 55 fc             	mov    -0x4(%rbp),%edx
   16334:	48 8d 35 9e 35 00 00 	lea    0x359e(%rip),%rsi        # 198d9 <g_3221+0x17c1>
   1633b:	48 89 c7             	mov    %rax,%rdi
   1633e:	e8 b0 33 ff ff       	callq  96f3 <transparent_crc>
   16343:	0f b6 05 4e 84 00 00 	movzbl 0x844e(%rip),%eax        # 1e798 <g_674>
   1634a:	48 0f be c0          	movsbq %al,%rax
   1634e:	8b 55 fc             	mov    -0x4(%rbp),%edx
   16351:	48 8d 35 8a 35 00 00 	lea    0x358a(%rip),%rsi        # 198e2 <g_3221+0x17ca>
   16358:	48 89 c7             	mov    %rax,%rdi
   1635b:	e8 93 33 ff ff       	callq  96f3 <transparent_crc>
   16360:	8b 05 32 84 00 00    	mov    0x8432(%rip),%eax        # 1e798 <g_674>
   16366:	48 98                	cltq   
   16368:	8b 55 fc             	mov    -0x4(%rbp),%edx
   1636b:	48 8d 35 79 35 00 00 	lea    0x3579(%rip),%rsi        # 198eb <g_3221+0x17d3>
   16372:	48 89 c7             	mov    %rax,%rdi
   16375:	e8 79 33 ff ff       	callq  96f3 <transparent_crc>
   1637a:	8b 05 e8 b4 00 00    	mov    0xb4e8(%rip),%eax        # 21868 <g_678>
   16380:	89 c1                	mov    %eax,%ecx
   16382:	8b 45 fc             	mov    -0x4(%rbp),%eax
   16385:	89 c2                	mov    %eax,%edx
   16387:	48 8d 35 66 35 00 00 	lea    0x3566(%rip),%rsi        # 198f4 <g_3221+0x17dc>
   1638e:	48 89 cf             	mov    %rcx,%rdi
   16391:	e8 5d 33 ff ff       	callq  96f3 <transparent_crc>
   16396:	8b 05 04 84 00 00    	mov    0x8404(%rip),%eax        # 1e7a0 <g_679>
   1639c:	48 98                	cltq   
   1639e:	8b 55 fc             	mov    -0x4(%rbp),%edx
   163a1:	48 8d 35 52 35 00 00 	lea    0x3552(%rip),%rsi        # 198fa <g_3221+0x17e2>
   163a8:	48 89 c7             	mov    %rax,%rdi
   163ab:	e8 43 33 ff ff       	callq  96f3 <transparent_crc>
   163b0:	0f b6 05 e9 83 00 00 	movzbl 0x83e9(%rip),%eax        # 1e7a0 <g_679>
   163b7:	48 0f be c0          	movsbq %al,%rax
   163bb:	8b 55 fc             	mov    -0x4(%rbp),%edx
   163be:	48 8d 35 3e 35 00 00 	lea    0x353e(%rip),%rsi        # 19903 <g_3221+0x17eb>
   163c5:	48 89 c7             	mov    %rax,%rdi
   163c8:	e8 26 33 ff ff       	callq  96f3 <transparent_crc>
   163cd:	8b 05 cd 83 00 00    	mov    0x83cd(%rip),%eax        # 1e7a0 <g_679>
   163d3:	48 98                	cltq   
   163d5:	8b 55 fc             	mov    -0x4(%rbp),%edx
   163d8:	48 8d 35 2d 35 00 00 	lea    0x352d(%rip),%rsi        # 1990c <g_3221+0x17f4>
   163df:	48 89 c7             	mov    %rax,%rdi
   163e2:	e8 0c 33 ff ff       	callq  96f3 <transparent_crc>
   163e7:	8b 05 bb 83 00 00    	mov    0x83bb(%rip),%eax        # 1e7a8 <g_718>
   163ed:	48 98                	cltq   
   163ef:	8b 55 fc             	mov    -0x4(%rbp),%edx
   163f2:	48 8d 35 1c 35 00 00 	lea    0x351c(%rip),%rsi        # 19915 <g_3221+0x17fd>
   163f9:	48 89 c7             	mov    %rax,%rdi
   163fc:	e8 f2 32 ff ff       	callq  96f3 <transparent_crc>
   16401:	0f b6 05 a0 83 00 00 	movzbl 0x83a0(%rip),%eax        # 1e7a8 <g_718>
   16408:	48 0f be c0          	movsbq %al,%rax
   1640c:	8b 55 fc             	mov    -0x4(%rbp),%edx
   1640f:	48 8d 35 08 35 00 00 	lea    0x3508(%rip),%rsi        # 1991e <g_3221+0x1806>
   16416:	48 89 c7             	mov    %rax,%rdi
   16419:	e8 d5 32 ff ff       	callq  96f3 <transparent_crc>
   1641e:	8b 05 84 83 00 00    	mov    0x8384(%rip),%eax        # 1e7a8 <g_718>
   16424:	48 98                	cltq   
   16426:	8b 55 fc             	mov    -0x4(%rbp),%edx
   16429:	48 8d 35 f7 34 00 00 	lea    0x34f7(%rip),%rsi        # 19927 <g_3221+0x180f>
   16430:	48 89 c7             	mov    %rax,%rdi
   16433:	e8 bb 32 ff ff       	callq  96f3 <transparent_crc>
   16438:	8b 05 72 83 00 00    	mov    0x8372(%rip),%eax        # 1e7b0 <g_737>
   1643e:	48 98                	cltq   
   16440:	8b 55 fc             	mov    -0x4(%rbp),%edx
   16443:	48 8d 35 e6 34 00 00 	lea    0x34e6(%rip),%rsi        # 19930 <g_3221+0x1818>
   1644a:	48 89 c7             	mov    %rax,%rdi
   1644d:	e8 a1 32 ff ff       	callq  96f3 <transparent_crc>
   16452:	8b 05 60 83 00 00    	mov    0x8360(%rip),%eax        # 1e7b8 <g_821>
   16458:	48 98                	cltq   
   1645a:	8b 55 fc             	mov    -0x4(%rbp),%edx
   1645d:	48 8d 35 d2 34 00 00 	lea    0x34d2(%rip),%rsi        # 19936 <g_3221+0x181e>
   16464:	48 89 c7             	mov    %rax,%rdi
   16467:	e8 87 32 ff ff       	callq  96f3 <transparent_crc>
   1646c:	0f b6 05 45 83 00 00 	movzbl 0x8345(%rip),%eax        # 1e7b8 <g_821>
   16473:	48 0f be c0          	movsbq %al,%rax
   16477:	8b 55 fc             	mov    -0x4(%rbp),%edx
   1647a:	48 8d 35 be 34 00 00 	lea    0x34be(%rip),%rsi        # 1993f <g_3221+0x1827>
   16481:	48 89 c7             	mov    %rax,%rdi
   16484:	e8 6a 32 ff ff       	callq  96f3 <transparent_crc>
   16489:	8b 05 29 83 00 00    	mov    0x8329(%rip),%eax        # 1e7b8 <g_821>
   1648f:	48 98                	cltq   
   16491:	8b 55 fc             	mov    -0x4(%rbp),%edx
   16494:	48 8d 35 ad 34 00 00 	lea    0x34ad(%rip),%rsi        # 19948 <g_3221+0x1830>
   1649b:	48 89 c7             	mov    %rax,%rdi
   1649e:	e8 50 32 ff ff       	callq  96f3 <transparent_crc>
   164a3:	48 8b 05 16 83 00 00 	mov    0x8316(%rip),%rax        # 1e7c0 <g_823>
   164aa:	48 89 c1             	mov    %rax,%rcx
   164ad:	8b 45 fc             	mov    -0x4(%rbp),%eax
   164b0:	89 c2                	mov    %eax,%edx
   164b2:	48 8d 35 98 34 00 00 	lea    0x3498(%rip),%rsi        # 19951 <g_3221+0x1839>
   164b9:	48 89 cf             	mov    %rcx,%rdi
   164bc:	e8 32 32 ff ff       	callq  96f3 <transparent_crc>
   164c1:	b9 00 00 00 00       	mov    $0x0,%ecx
   164c6:	8b 45 fc             	mov    -0x4(%rbp),%eax
   164c9:	89 c2                	mov    %eax,%edx
   164cb:	48 8d 35 85 34 00 00 	lea    0x3485(%rip),%rsi        # 19957 <g_3221+0x183f>
   164d2:	48 89 cf             	mov    %rcx,%rdi
   164d5:	e8 19 32 ff ff       	callq  96f3 <transparent_crc>
   164da:	8b 05 e8 82 00 00    	mov    0x82e8(%rip),%eax        # 1e7c8 <g_1015>
   164e0:	48 98                	cltq   
   164e2:	8b 55 fc             	mov    -0x4(%rbp),%edx
   164e5:	48 8d 35 71 34 00 00 	lea    0x3471(%rip),%rsi        # 1995d <g_3221+0x1845>
   164ec:	48 89 c7             	mov    %rax,%rdi
   164ef:	e8 ff 31 ff ff       	callq  96f3 <transparent_crc>
   164f4:	0f b6 05 cd 82 00 00 	movzbl 0x82cd(%rip),%eax        # 1e7c8 <g_1015>
   164fb:	48 0f be c0          	movsbq %al,%rax
   164ff:	8b 55 fc             	mov    -0x4(%rbp),%edx
   16502:	48 8d 35 5e 34 00 00 	lea    0x345e(%rip),%rsi        # 19967 <g_3221+0x184f>
   16509:	48 89 c7             	mov    %rax,%rdi
   1650c:	e8 e2 31 ff ff       	callq  96f3 <transparent_crc>
   16511:	8b 05 b1 82 00 00    	mov    0x82b1(%rip),%eax        # 1e7c8 <g_1015>
   16517:	48 98                	cltq   
   16519:	8b 55 fc             	mov    -0x4(%rbp),%edx
   1651c:	48 8d 35 4e 34 00 00 	lea    0x344e(%rip),%rsi        # 19971 <g_3221+0x1859>
   16523:	48 89 c7             	mov    %rax,%rdi
   16526:	e8 c8 31 ff ff       	callq  96f3 <transparent_crc>
   1652b:	0f b7 05 9e 82 00 00 	movzwl 0x829e(%rip),%eax        # 1e7d0 <g_1044>
   16532:	0f b7 c0             	movzwl %ax,%eax
   16535:	8b 55 fc             	mov    -0x4(%rbp),%edx
   16538:	48 8d 35 3c 34 00 00 	lea    0x343c(%rip),%rsi        # 1997b <g_3221+0x1863>
   1653f:	48 89 c7             	mov    %rax,%rdi
   16542:	e8 ac 31 ff ff       	callq  96f3 <transparent_crc>
   16547:	c7 45 f0 00 00 00 00 	movl   $0x0,-0x10(%rbp)
   1654e:	e9 a4 00 00 00       	jmpq   165f7 <main+0xd8c>
   16553:	8b 45 f0             	mov    -0x10(%rbp),%eax
   16556:	48 98                	cltq   
   16558:	48 8d 14 c5 00 00 00 	lea    0x0(,%rax,8),%rdx
   1655f:	00 
   16560:	48 8d 05 79 82 00 00 	lea    0x8279(%rip),%rax        # 1e7e0 <g_1101>
   16567:	8b 04 02             	mov    (%rdx,%rax,1),%eax
   1656a:	48 98                	cltq   
   1656c:	8b 55 fc             	mov    -0x4(%rbp),%edx
   1656f:	48 8d 35 0c 34 00 00 	lea    0x340c(%rip),%rsi        # 19982 <g_3221+0x186a>
   16576:	48 89 c7             	mov    %rax,%rdi
   16579:	e8 75 31 ff ff       	callq  96f3 <transparent_crc>
   1657e:	8b 45 f0             	mov    -0x10(%rbp),%eax
   16581:	48 98                	cltq   
   16583:	48 8d 14 c5 00 00 00 	lea    0x0(,%rax,8),%rdx
   1658a:	00 
   1658b:	48 8d 05 4e 82 00 00 	lea    0x824e(%rip),%rax        # 1e7e0 <g_1101>
   16592:	0f b6 04 02          	movzbl (%rdx,%rax,1),%eax
   16596:	48 0f be c0          	movsbq %al,%rax
   1659a:	8b 55 fc             	mov    -0x4(%rbp),%edx
   1659d:	48 8d 35 eb 33 00 00 	lea    0x33eb(%rip),%rsi        # 1998f <g_3221+0x1877>
   165a4:	48 89 c7             	mov    %rax,%rdi
   165a7:	e8 47 31 ff ff       	callq  96f3 <transparent_crc>
   165ac:	8b 45 f0             	mov    -0x10(%rbp),%eax
   165af:	48 98                	cltq   
   165b1:	48 8d 14 c5 00 00 00 	lea    0x0(,%rax,8),%rdx
   165b8:	00 
   165b9:	48 8d 05 20 82 00 00 	lea    0x8220(%rip),%rax        # 1e7e0 <g_1101>
   165c0:	8b 04 02             	mov    (%rdx,%rax,1),%eax
   165c3:	48 98                	cltq   
   165c5:	8b 55 fc             	mov    -0x4(%rbp),%edx
   165c8:	48 8d 35 cd 33 00 00 	lea    0x33cd(%rip),%rsi        # 1999c <g_3221+0x1884>
   165cf:	48 89 c7             	mov    %rax,%rdi
   165d2:	e8 1c 31 ff ff       	callq  96f3 <transparent_crc>
   165d7:	83 7d fc 00          	cmpl   $0x0,-0x4(%rbp)
   165db:	74 16                	je     165f3 <main+0xd88>
   165dd:	8b 45 f0             	mov    -0x10(%rbp),%eax
   165e0:	89 c6                	mov    %eax,%esi
   165e2:	48 8d 3d 4e 31 00 00 	lea    0x314e(%rip),%rdi        # 19737 <g_3221+0x161f>
   165e9:	b8 00 00 00 00       	mov    $0x0,%eax
   165ee:	e8 8d 1a ff ff       	callq  8080 <printf@plt>
   165f3:	83 45 f0 01          	addl   $0x1,-0x10(%rbp)
   165f7:	83 7d f0 05          	cmpl   $0x5,-0x10(%rbp)
   165fb:	0f 8e 52 ff ff ff    	jle    16553 <main+0xce8>
   16601:	c7 45 f0 00 00 00 00 	movl   $0x0,-0x10(%rbp)
   16608:	e9 fd 00 00 00       	jmpq   1670a <main+0xe9f>
   1660d:	c7 45 f4 00 00 00 00 	movl   $0x0,-0xc(%rbp)
   16614:	e9 e3 00 00 00       	jmpq   166fc <main+0xe91>
   16619:	8b 45 f4             	mov    -0xc(%rbp),%eax
   1661c:	48 63 c8             	movslq %eax,%rcx
   1661f:	8b 45 f0             	mov    -0x10(%rbp),%eax
   16622:	48 63 d0             	movslq %eax,%rdx
   16625:	48 89 d0             	mov    %rdx,%rax
   16628:	48 c1 e0 03          	shl    $0x3,%rax
   1662c:	48 01 d0             	add    %rdx,%rax
   1662f:	48 01 c8             	add    %rcx,%rax
   16632:	48 8d 14 c5 00 00 00 	lea    0x0(,%rax,8),%rdx
   16639:	00 
   1663a:	48 8d 05 df 81 00 00 	lea    0x81df(%rip),%rax        # 1e820 <g_1102>
   16641:	8b 04 02             	mov    (%rdx,%rax,1),%eax
   16644:	48 98                	cltq   
   16646:	8b 55 fc             	mov    -0x4(%rbp),%edx
   16649:	48 8d 35 59 33 00 00 	lea    0x3359(%rip),%rsi        # 199a9 <g_3221+0x1891>
   16650:	48 89 c7             	mov    %rax,%rdi
   16653:	e8 9b 30 ff ff       	callq  96f3 <transparent_crc>
   16658:	8b 45 f4             	mov    -0xc(%rbp),%eax
   1665b:	48 63 c8             	movslq %eax,%rcx
   1665e:	8b 45 f0             	mov    -0x10(%rbp),%eax
   16661:	48 63 d0             	movslq %eax,%rdx
   16664:	48 89 d0             	mov    %rdx,%rax
   16667:	48 c1 e0 03          	shl    $0x3,%rax
   1666b:	48 01 d0             	add    %rdx,%rax
   1666e:	48 01 c8             	add    %rcx,%rax
   16671:	48 8d 14 c5 00 00 00 	lea    0x0(,%rax,8),%rdx
   16678:	00 
   16679:	48 8d 05 a0 81 00 00 	lea    0x81a0(%rip),%rax        # 1e820 <g_1102>
   16680:	0f b6 04 02          	movzbl (%rdx,%rax,1),%eax
   16684:	48 0f be c0          	movsbq %al,%rax
   16688:	8b 55 fc             	mov    -0x4(%rbp),%edx
   1668b:	48 8d 35 27 33 00 00 	lea    0x3327(%rip),%rsi        # 199b9 <g_3221+0x18a1>
   16692:	48 89 c7             	mov    %rax,%rdi
   16695:	e8 59 30 ff ff       	callq  96f3 <transparent_crc>
   1669a:	8b 45 f4             	mov    -0xc(%rbp),%eax
   1669d:	48 63 c8             	movslq %eax,%rcx
   166a0:	8b 45 f0             	mov    -0x10(%rbp),%eax
   166a3:	48 63 d0             	movslq %eax,%rdx
   166a6:	48 89 d0             	mov    %rdx,%rax
   166a9:	48 c1 e0 03          	shl    $0x3,%rax
   166ad:	48 01 d0             	add    %rdx,%rax
   166b0:	48 01 c8             	add    %rcx,%rax
   166b3:	48 8d 14 c5 00 00 00 	lea    0x0(,%rax,8),%rdx
   166ba:	00 
   166bb:	48 8d 05 5e 81 00 00 	lea    0x815e(%rip),%rax        # 1e820 <g_1102>
   166c2:	8b 04 02             	mov    (%rdx,%rax,1),%eax
   166c5:	48 98                	cltq   
   166c7:	8b 55 fc             	mov    -0x4(%rbp),%edx
   166ca:	48 8d 35 f8 32 00 00 	lea    0x32f8(%rip),%rsi        # 199c9 <g_3221+0x18b1>
   166d1:	48 89 c7             	mov    %rax,%rdi
   166d4:	e8 1a 30 ff ff       	callq  96f3 <transparent_crc>
   166d9:	83 7d fc 00          	cmpl   $0x0,-0x4(%rbp)
   166dd:	74 19                	je     166f8 <main+0xe8d>
   166df:	8b 55 f4             	mov    -0xc(%rbp),%edx
   166e2:	8b 45 f0             	mov    -0x10(%rbp),%eax
   166e5:	89 c6                	mov    %eax,%esi
   166e7:	48 8d 3d eb 32 00 00 	lea    0x32eb(%rip),%rdi        # 199d9 <g_3221+0x18c1>
   166ee:	b8 00 00 00 00       	mov    $0x0,%eax
   166f3:	e8 88 19 ff ff       	callq  8080 <printf@plt>
   166f8:	83 45 f4 01          	addl   $0x1,-0xc(%rbp)
   166fc:	83 7d f4 08          	cmpl   $0x8,-0xc(%rbp)
   16700:	0f 8e 13 ff ff ff    	jle    16619 <main+0xdae>
   16706:	83 45 f0 01          	addl   $0x1,-0x10(%rbp)
   1670a:	83 7d f0 04          	cmpl   $0x4,-0x10(%rbp)
   1670e:	0f 8e f9 fe ff ff    	jle    1660d <main+0xda2>
   16714:	0f b6 05 6d 82 00 00 	movzbl 0x826d(%rip),%eax        # 1e988 <g_1124>
   1671b:	48 0f be c0          	movsbq %al,%rax
   1671f:	8b 55 fc             	mov    -0x4(%rbp),%edx
   16722:	48 8d 35 c2 32 00 00 	lea    0x32c2(%rip),%rsi        # 199eb <g_3221+0x18d3>
   16729:	48 89 c7             	mov    %rax,%rdi
   1672c:	e8 c2 2f ff ff       	callq  96f3 <transparent_crc>
   16731:	8b 05 59 82 00 00    	mov    0x8259(%rip),%eax        # 1e990 <g_1126>
   16737:	48 98                	cltq   
   16739:	8b 55 fc             	mov    -0x4(%rbp),%edx
   1673c:	48 8d 35 af 32 00 00 	lea    0x32af(%rip),%rsi        # 199f2 <g_3221+0x18da>
   16743:	48 89 c7             	mov    %rax,%rdi
   16746:	e8 a8 2f ff ff       	callq  96f3 <transparent_crc>
   1674b:	0f b6 05 3e 82 00 00 	movzbl 0x823e(%rip),%eax        # 1e990 <g_1126>
   16752:	48 0f be c0          	movsbq %al,%rax
   16756:	8b 55 fc             	mov    -0x4(%rbp),%edx
   16759:	48 8d 35 9c 32 00 00 	lea    0x329c(%rip),%rsi        # 199fc <g_3221+0x18e4>
   16760:	48 89 c7             	mov    %rax,%rdi
   16763:	e8 8b 2f ff ff       	callq  96f3 <transparent_crc>
   16768:	8b 05 22 82 00 00    	mov    0x8222(%rip),%eax        # 1e990 <g_1126>
   1676e:	48 98                	cltq   
   16770:	8b 55 fc             	mov    -0x4(%rbp),%edx
   16773:	48 8d 35 8c 32 00 00 	lea    0x328c(%rip),%rsi        # 19a06 <g_3221+0x18ee>
   1677a:	48 89 c7             	mov    %rax,%rdi
   1677d:	e8 71 2f ff ff       	callq  96f3 <transparent_crc>
   16782:	48 8b 05 0f 82 00 00 	mov    0x820f(%rip),%rax        # 1e998 <g_1127>
   16789:	8b 55 fc             	mov    -0x4(%rbp),%edx
   1678c:	48 8d 35 7d 32 00 00 	lea    0x327d(%rip),%rsi        # 19a10 <g_3221+0x18f8>
   16793:	48 89 c7             	mov    %rax,%rdi
   16796:	e8 58 2f ff ff       	callq  96f3 <transparent_crc>
   1679b:	0f b6 05 fe 81 00 00 	movzbl 0x81fe(%rip),%eax        # 1e9a0 <g_1167>
   167a2:	0f b6 c0             	movzbl %al,%eax
   167a5:	8b 55 fc             	mov    -0x4(%rbp),%edx
   167a8:	48 8d 35 68 32 00 00 	lea    0x3268(%rip),%rsi        # 19a17 <g_3221+0x18ff>
   167af:	48 89 c7             	mov    %rax,%rdi
   167b2:	e8 3c 2f ff ff       	callq  96f3 <transparent_crc>
   167b7:	8b 05 e7 81 00 00    	mov    0x81e7(%rip),%eax        # 1e9a4 <g_1199>
   167bd:	48 98                	cltq   
   167bf:	8b 55 fc             	mov    -0x4(%rbp),%edx
   167c2:	48 8d 35 55 32 00 00 	lea    0x3255(%rip),%rsi        # 19a1e <g_3221+0x1906>
   167c9:	48 89 c7             	mov    %rax,%rdi
   167cc:	e8 22 2f ff ff       	callq  96f3 <transparent_crc>
   167d1:	8b 05 d1 81 00 00    	mov    0x81d1(%rip),%eax        # 1e9a8 <g_1502>
   167d7:	48 98                	cltq   
   167d9:	8b 55 fc             	mov    -0x4(%rbp),%edx
   167dc:	48 8d 35 42 32 00 00 	lea    0x3242(%rip),%rsi        # 19a25 <g_3221+0x190d>
   167e3:	48 89 c7             	mov    %rax,%rdi
   167e6:	e8 08 2f ff ff       	callq  96f3 <transparent_crc>
   167eb:	0f b6 05 b6 81 00 00 	movzbl 0x81b6(%rip),%eax        # 1e9a8 <g_1502>
   167f2:	48 0f be c0          	movsbq %al,%rax
   167f6:	8b 55 fc             	mov    -0x4(%rbp),%edx
   167f9:	48 8d 35 2f 32 00 00 	lea    0x322f(%rip),%rsi        # 19a2f <g_3221+0x1917>
   16800:	48 89 c7             	mov    %rax,%rdi
   16803:	e8 eb 2e ff ff       	callq  96f3 <transparent_crc>
   16808:	8b 05 9a 81 00 00    	mov    0x819a(%rip),%eax        # 1e9a8 <g_1502>
   1680e:	48 98                	cltq   
   16810:	8b 55 fc             	mov    -0x4(%rbp),%edx
   16813:	48 8d 35 1f 32 00 00 	lea    0x321f(%rip),%rsi        # 19a39 <g_3221+0x1921>
   1681a:	48 89 c7             	mov    %rax,%rdi
   1681d:	e8 d1 2e ff ff       	callq  96f3 <transparent_crc>
   16822:	8b 05 88 81 00 00    	mov    0x8188(%rip),%eax        # 1e9b0 <g_1578>
   16828:	48 98                	cltq   
   1682a:	8b 55 fc             	mov    -0x4(%rbp),%edx
   1682d:	48 8d 35 0f 32 00 00 	lea    0x320f(%rip),%rsi        # 19a43 <g_3221+0x192b>
   16834:	48 89 c7             	mov    %rax,%rdi
   16837:	e8 b7 2e ff ff       	callq  96f3 <transparent_crc>
   1683c:	0f b6 05 6d 81 00 00 	movzbl 0x816d(%rip),%eax        # 1e9b0 <g_1578>
   16843:	48 0f be c0          	movsbq %al,%rax
   16847:	8b 55 fc             	mov    -0x4(%rbp),%edx
   1684a:	48 8d 35 fc 31 00 00 	lea    0x31fc(%rip),%rsi        # 19a4d <g_3221+0x1935>
   16851:	48 89 c7             	mov    %rax,%rdi
   16854:	e8 9a 2e ff ff       	callq  96f3 <transparent_crc>
   16859:	8b 05 51 81 00 00    	mov    0x8151(%rip),%eax        # 1e9b0 <g_1578>
   1685f:	48 98                	cltq   
   16861:	8b 55 fc             	mov    -0x4(%rbp),%edx
   16864:	48 8d 35 ec 31 00 00 	lea    0x31ec(%rip),%rsi        # 19a57 <g_3221+0x193f>
   1686b:	48 89 c7             	mov    %rax,%rdi
   1686e:	e8 80 2e ff ff       	callq  96f3 <transparent_crc>
   16873:	8b 05 3f 81 00 00    	mov    0x813f(%rip),%eax        # 1e9b8 <g_1601>
   16879:	48 98                	cltq   
   1687b:	8b 55 fc             	mov    -0x4(%rbp),%edx
   1687e:	48 8d 35 dc 31 00 00 	lea    0x31dc(%rip),%rsi        # 19a61 <g_3221+0x1949>
   16885:	48 89 c7             	mov    %rax,%rdi
   16888:	e8 66 2e ff ff       	callq  96f3 <transparent_crc>
   1688d:	0f b6 05 24 81 00 00 	movzbl 0x8124(%rip),%eax        # 1e9b8 <g_1601>
   16894:	48 0f be c0          	movsbq %al,%rax
   16898:	8b 55 fc             	mov    -0x4(%rbp),%edx
   1689b:	48 8d 35 c9 31 00 00 	lea    0x31c9(%rip),%rsi        # 19a6b <g_3221+0x1953>
   168a2:	48 89 c7             	mov    %rax,%rdi
   168a5:	e8 49 2e ff ff       	callq  96f3 <transparent_crc>
   168aa:	8b 05 08 81 00 00    	mov    0x8108(%rip),%eax        # 1e9b8 <g_1601>
   168b0:	48 98                	cltq   
   168b2:	8b 55 fc             	mov    -0x4(%rbp),%edx
   168b5:	48 8d 35 b9 31 00 00 	lea    0x31b9(%rip),%rsi        # 19a75 <g_3221+0x195d>
   168bc:	48 89 c7             	mov    %rax,%rdi
   168bf:	e8 2f 2e ff ff       	callq  96f3 <transparent_crc>
   168c4:	0f b7 05 f5 80 00 00 	movzwl 0x80f5(%rip),%eax        # 1e9c0 <g_1645>
   168cb:	0f b7 c0             	movzwl %ax,%eax
   168ce:	8b 55 fc             	mov    -0x4(%rbp),%edx
   168d1:	48 8d 35 a7 31 00 00 	lea    0x31a7(%rip),%rsi        # 19a7f <g_3221+0x1967>
   168d8:	48 89 c7             	mov    %rax,%rdi
   168db:	e8 13 2e ff ff       	callq  96f3 <transparent_crc>
   168e0:	8b 05 e2 80 00 00    	mov    0x80e2(%rip),%eax        # 1e9c8 <g_1839>
   168e6:	48 98                	cltq   
   168e8:	8b 55 fc             	mov    -0x4(%rbp),%edx
   168eb:	48 8d 35 94 31 00 00 	lea    0x3194(%rip),%rsi        # 19a86 <g_3221+0x196e>
   168f2:	48 89 c7             	mov    %rax,%rdi
   168f5:	e8 f9 2d ff ff       	callq  96f3 <transparent_crc>
   168fa:	0f b6 05 c7 80 00 00 	movzbl 0x80c7(%rip),%eax        # 1e9c8 <g_1839>
   16901:	48 0f be c0          	movsbq %al,%rax
   16905:	8b 55 fc             	mov    -0x4(%rbp),%edx
   16908:	48 8d 35 81 31 00 00 	lea    0x3181(%rip),%rsi        # 19a90 <g_3221+0x1978>
   1690f:	48 89 c7             	mov    %rax,%rdi
   16912:	e8 dc 2d ff ff       	callq  96f3 <transparent_crc>
   16917:	8b 05 ab 80 00 00    	mov    0x80ab(%rip),%eax        # 1e9c8 <g_1839>
   1691d:	48 98                	cltq   
   1691f:	8b 55 fc             	mov    -0x4(%rbp),%edx
   16922:	48 8d 35 71 31 00 00 	lea    0x3171(%rip),%rsi        # 19a9a <g_3221+0x1982>
   16929:	48 89 c7             	mov    %rax,%rdi
   1692c:	e8 c2 2d ff ff       	callq  96f3 <transparent_crc>
   16931:	8b 05 61 af 00 00    	mov    0xaf61(%rip),%eax        # 21898 <g_1941>
   16937:	48 98                	cltq   
   16939:	8b 55 fc             	mov    -0x4(%rbp),%edx
   1693c:	48 8d 35 61 31 00 00 	lea    0x3161(%rip),%rsi        # 19aa4 <g_3221+0x198c>
   16943:	48 89 c7             	mov    %rax,%rdi
   16946:	e8 a8 2d ff ff       	callq  96f3 <transparent_crc>
   1694b:	0f b6 05 46 af 00 00 	movzbl 0xaf46(%rip),%eax        # 21898 <g_1941>
   16952:	48 0f be c0          	movsbq %al,%rax
   16956:	8b 55 fc             	mov    -0x4(%rbp),%edx
   16959:	48 8d 35 4e 31 00 00 	lea    0x314e(%rip),%rsi        # 19aae <g_3221+0x1996>
   16960:	48 89 c7             	mov    %rax,%rdi
   16963:	e8 8b 2d ff ff       	callq  96f3 <transparent_crc>
   16968:	8b 05 2a af 00 00    	mov    0xaf2a(%rip),%eax        # 21898 <g_1941>
   1696e:	48 98                	cltq   
   16970:	8b 55 fc             	mov    -0x4(%rbp),%edx
   16973:	48 8d 35 3e 31 00 00 	lea    0x313e(%rip),%rsi        # 19ab8 <g_3221+0x19a0>
   1697a:	48 89 c7             	mov    %rax,%rdi
   1697d:	e8 71 2d ff ff       	callq  96f3 <transparent_crc>
   16982:	c7 45 f0 00 00 00 00 	movl   $0x0,-0x10(%rbp)
   16989:	e9 a4 00 00 00       	jmpq   16a32 <main+0x11c7>
   1698e:	8b 45 f0             	mov    -0x10(%rbp),%eax
   16991:	48 98                	cltq   
   16993:	48 8d 14 c5 00 00 00 	lea    0x0(,%rax,8),%rdx
   1699a:	00 
   1699b:	48 8d 05 3e 80 00 00 	lea    0x803e(%rip),%rax        # 1e9e0 <g_1942>
   169a2:	8b 04 02             	mov    (%rdx,%rax,1),%eax
   169a5:	48 98                	cltq   
   169a7:	8b 55 fc             	mov    -0x4(%rbp),%edx
   169aa:	48 8d 35 11 31 00 00 	lea    0x3111(%rip),%rsi        # 19ac2 <g_3221+0x19aa>
   169b1:	48 89 c7             	mov    %rax,%rdi
   169b4:	e8 3a 2d ff ff       	callq  96f3 <transparent_crc>
   169b9:	8b 45 f0             	mov    -0x10(%rbp),%eax
   169bc:	48 98                	cltq   
   169be:	48 8d 14 c5 00 00 00 	lea    0x0(,%rax,8),%rdx
   169c5:	00 
   169c6:	48 8d 05 13 80 00 00 	lea    0x8013(%rip),%rax        # 1e9e0 <g_1942>
   169cd:	0f b6 04 02          	movzbl (%rdx,%rax,1),%eax
   169d1:	48 0f be c0          	movsbq %al,%rax
   169d5:	8b 55 fc             	mov    -0x4(%rbp),%edx
   169d8:	48 8d 35 f0 30 00 00 	lea    0x30f0(%rip),%rsi        # 19acf <g_3221+0x19b7>
   169df:	48 89 c7             	mov    %rax,%rdi
   169e2:	e8 0c 2d ff ff       	callq  96f3 <transparent_crc>
   169e7:	8b 45 f0             	mov    -0x10(%rbp),%eax
   169ea:	48 98                	cltq   
   169ec:	48 8d 14 c5 00 00 00 	lea    0x0(,%rax,8),%rdx
   169f3:	00 
   169f4:	48 8d 05 e5 7f 00 00 	lea    0x7fe5(%rip),%rax        # 1e9e0 <g_1942>
   169fb:	8b 04 02             	mov    (%rdx,%rax,1),%eax
   169fe:	48 98                	cltq   
   16a00:	8b 55 fc             	mov    -0x4(%rbp),%edx
   16a03:	48 8d 35 d2 30 00 00 	lea    0x30d2(%rip),%rsi        # 19adc <g_3221+0x19c4>
   16a0a:	48 89 c7             	mov    %rax,%rdi
   16a0d:	e8 e1 2c ff ff       	callq  96f3 <transparent_crc>
   16a12:	83 7d fc 00          	cmpl   $0x0,-0x4(%rbp)
   16a16:	74 16                	je     16a2e <main+0x11c3>
   16a18:	8b 45 f0             	mov    -0x10(%rbp),%eax
   16a1b:	89 c6                	mov    %eax,%esi
   16a1d:	48 8d 3d 13 2d 00 00 	lea    0x2d13(%rip),%rdi        # 19737 <g_3221+0x161f>
   16a24:	b8 00 00 00 00       	mov    $0x0,%eax
   16a29:	e8 52 16 ff ff       	callq  8080 <printf@plt>
   16a2e:	83 45 f0 01          	addl   $0x1,-0x10(%rbp)
   16a32:	83 7d f0 03          	cmpl   $0x3,-0x10(%rbp)
   16a36:	0f 8e 52 ff ff ff    	jle    1698e <main+0x1123>
   16a3c:	8b 05 be 7f 00 00    	mov    0x7fbe(%rip),%eax        # 1ea00 <g_1943>
   16a42:	48 98                	cltq   
   16a44:	8b 55 fc             	mov    -0x4(%rbp),%edx
   16a47:	48 8d 35 9b 30 00 00 	lea    0x309b(%rip),%rsi        # 19ae9 <g_3221+0x19d1>
   16a4e:	48 89 c7             	mov    %rax,%rdi
   16a51:	e8 9d 2c ff ff       	callq  96f3 <transparent_crc>
   16a56:	0f b6 05 a3 7f 00 00 	movzbl 0x7fa3(%rip),%eax        # 1ea00 <g_1943>
   16a5d:	48 0f be c0          	movsbq %al,%rax
   16a61:	8b 55 fc             	mov    -0x4(%rbp),%edx
   16a64:	48 8d 35 88 30 00 00 	lea    0x3088(%rip),%rsi        # 19af3 <g_3221+0x19db>
   16a6b:	48 89 c7             	mov    %rax,%rdi
   16a6e:	e8 80 2c ff ff       	callq  96f3 <transparent_crc>
   16a73:	8b 05 87 7f 00 00    	mov    0x7f87(%rip),%eax        # 1ea00 <g_1943>
   16a79:	48 98                	cltq   
   16a7b:	8b 55 fc             	mov    -0x4(%rbp),%edx
   16a7e:	48 8d 35 78 30 00 00 	lea    0x3078(%rip),%rsi        # 19afd <g_3221+0x19e5>
   16a85:	48 89 c7             	mov    %rax,%rdi
   16a88:	e8 66 2c ff ff       	callq  96f3 <transparent_crc>
   16a8d:	8b 05 75 7f 00 00    	mov    0x7f75(%rip),%eax        # 1ea08 <g_1944>
   16a93:	48 98                	cltq   
   16a95:	8b 55 fc             	mov    -0x4(%rbp),%edx
   16a98:	48 8d 35 68 30 00 00 	lea    0x3068(%rip),%rsi        # 19b07 <g_3221+0x19ef>
   16a9f:	48 89 c7             	mov    %rax,%rdi
   16aa2:	e8 4c 2c ff ff       	callq  96f3 <transparent_crc>
   16aa7:	0f b6 05 5a 7f 00 00 	movzbl 0x7f5a(%rip),%eax        # 1ea08 <g_1944>
   16aae:	48 0f be c0          	movsbq %al,%rax
   16ab2:	8b 55 fc             	mov    -0x4(%rbp),%edx
   16ab5:	48 8d 35 55 30 00 00 	lea    0x3055(%rip),%rsi        # 19b11 <g_3221+0x19f9>
   16abc:	48 89 c7             	mov    %rax,%rdi
   16abf:	e8 2f 2c ff ff       	callq  96f3 <transparent_crc>
   16ac4:	8b 05 3e 7f 00 00    	mov    0x7f3e(%rip),%eax        # 1ea08 <g_1944>
   16aca:	48 98                	cltq   
   16acc:	8b 55 fc             	mov    -0x4(%rbp),%edx
   16acf:	48 8d 35 45 30 00 00 	lea    0x3045(%rip),%rsi        # 19b1b <g_3221+0x1a03>
   16ad6:	48 89 c7             	mov    %rax,%rdi
   16ad9:	e8 15 2c ff ff       	callq  96f3 <transparent_crc>
   16ade:	8b 05 2c 7f 00 00    	mov    0x7f2c(%rip),%eax        # 1ea10 <g_1945>
   16ae4:	48 98                	cltq   
   16ae6:	8b 55 fc             	mov    -0x4(%rbp),%edx
   16ae9:	48 8d 35 35 30 00 00 	lea    0x3035(%rip),%rsi        # 19b25 <g_3221+0x1a0d>
   16af0:	48 89 c7             	mov    %rax,%rdi
   16af3:	e8 fb 2b ff ff       	callq  96f3 <transparent_crc>
   16af8:	0f b6 05 11 7f 00 00 	movzbl 0x7f11(%rip),%eax        # 1ea10 <g_1945>
   16aff:	48 0f be c0          	movsbq %al,%rax
   16b03:	8b 55 fc             	mov    -0x4(%rbp),%edx
   16b06:	48 8d 35 22 30 00 00 	lea    0x3022(%rip),%rsi        # 19b2f <g_3221+0x1a17>
   16b0d:	48 89 c7             	mov    %rax,%rdi
   16b10:	e8 de 2b ff ff       	callq  96f3 <transparent_crc>
   16b15:	8b 05 f5 7e 00 00    	mov    0x7ef5(%rip),%eax        # 1ea10 <g_1945>
   16b1b:	48 98                	cltq   
   16b1d:	8b 55 fc             	mov    -0x4(%rbp),%edx
   16b20:	48 8d 35 12 30 00 00 	lea    0x3012(%rip),%rsi        # 19b39 <g_3221+0x1a21>
   16b27:	48 89 c7             	mov    %rax,%rdi
   16b2a:	e8 c4 2b ff ff       	callq  96f3 <transparent_crc>
   16b2f:	8b 05 e3 7e 00 00    	mov    0x7ee3(%rip),%eax        # 1ea18 <g_1946>
   16b35:	48 98                	cltq   
   16b37:	8b 55 fc             	mov    -0x4(%rbp),%edx
   16b3a:	48 8d 35 02 30 00 00 	lea    0x3002(%rip),%rsi        # 19b43 <g_3221+0x1a2b>
   16b41:	48 89 c7             	mov    %rax,%rdi
   16b44:	e8 aa 2b ff ff       	callq  96f3 <transparent_crc>
   16b49:	0f b6 05 c8 7e 00 00 	movzbl 0x7ec8(%rip),%eax        # 1ea18 <g_1946>
   16b50:	48 0f be c0          	movsbq %al,%rax
   16b54:	8b 55 fc             	mov    -0x4(%rbp),%edx
   16b57:	48 8d 35 ef 2f 00 00 	lea    0x2fef(%rip),%rsi        # 19b4d <g_3221+0x1a35>
   16b5e:	48 89 c7             	mov    %rax,%rdi
   16b61:	e8 8d 2b ff ff       	callq  96f3 <transparent_crc>
   16b66:	8b 05 ac 7e 00 00    	mov    0x7eac(%rip),%eax        # 1ea18 <g_1946>
   16b6c:	48 98                	cltq   
   16b6e:	8b 55 fc             	mov    -0x4(%rbp),%edx
   16b71:	48 8d 35 df 2f 00 00 	lea    0x2fdf(%rip),%rsi        # 19b57 <g_3221+0x1a3f>
   16b78:	48 89 c7             	mov    %rax,%rdi
   16b7b:	e8 73 2b ff ff       	callq  96f3 <transparent_crc>
   16b80:	8b 05 9a 7e 00 00    	mov    0x7e9a(%rip),%eax        # 1ea20 <g_1947>
   16b86:	48 98                	cltq   
   16b88:	8b 55 fc             	mov    -0x4(%rbp),%edx
   16b8b:	48 8d 35 cf 2f 00 00 	lea    0x2fcf(%rip),%rsi        # 19b61 <g_3221+0x1a49>
   16b92:	48 89 c7             	mov    %rax,%rdi
   16b95:	e8 59 2b ff ff       	callq  96f3 <transparent_crc>
   16b9a:	0f b6 05 7f 7e 00 00 	movzbl 0x7e7f(%rip),%eax        # 1ea20 <g_1947>
   16ba1:	48 0f be c0          	movsbq %al,%rax
   16ba5:	8b 55 fc             	mov    -0x4(%rbp),%edx
   16ba8:	48 8d 35 bc 2f 00 00 	lea    0x2fbc(%rip),%rsi        # 19b6b <g_3221+0x1a53>
   16baf:	48 89 c7             	mov    %rax,%rdi
   16bb2:	e8 3c 2b ff ff       	callq  96f3 <transparent_crc>
   16bb7:	8b 05 63 7e 00 00    	mov    0x7e63(%rip),%eax        # 1ea20 <g_1947>
   16bbd:	48 98                	cltq   
   16bbf:	8b 55 fc             	mov    -0x4(%rbp),%edx
   16bc2:	48 8d 35 ac 2f 00 00 	lea    0x2fac(%rip),%rsi        # 19b75 <g_3221+0x1a5d>
   16bc9:	48 89 c7             	mov    %rax,%rdi
   16bcc:	e8 22 2b ff ff       	callq  96f3 <transparent_crc>
   16bd1:	8b 05 51 7e 00 00    	mov    0x7e51(%rip),%eax        # 1ea28 <g_1948>
   16bd7:	48 98                	cltq   
   16bd9:	8b 55 fc             	mov    -0x4(%rbp),%edx
   16bdc:	48 8d 35 9c 2f 00 00 	lea    0x2f9c(%rip),%rsi        # 19b7f <g_3221+0x1a67>
   16be3:	48 89 c7             	mov    %rax,%rdi
   16be6:	e8 08 2b ff ff       	callq  96f3 <transparent_crc>
   16beb:	0f b6 05 36 7e 00 00 	movzbl 0x7e36(%rip),%eax        # 1ea28 <g_1948>
   16bf2:	48 0f be c0          	movsbq %al,%rax
   16bf6:	8b 55 fc             	mov    -0x4(%rbp),%edx
   16bf9:	48 8d 35 89 2f 00 00 	lea    0x2f89(%rip),%rsi        # 19b89 <g_3221+0x1a71>
   16c00:	48 89 c7             	mov    %rax,%rdi
   16c03:	e8 eb 2a ff ff       	callq  96f3 <transparent_crc>
   16c08:	8b 05 1a 7e 00 00    	mov    0x7e1a(%rip),%eax        # 1ea28 <g_1948>
   16c0e:	48 98                	cltq   
   16c10:	8b 55 fc             	mov    -0x4(%rbp),%edx
   16c13:	48 8d 35 79 2f 00 00 	lea    0x2f79(%rip),%rsi        # 19b93 <g_3221+0x1a7b>
   16c1a:	48 89 c7             	mov    %rax,%rdi
   16c1d:	e8 d1 2a ff ff       	callq  96f3 <transparent_crc>
   16c22:	8b 05 08 7e 00 00    	mov    0x7e08(%rip),%eax        # 1ea30 <g_1949>
   16c28:	48 98                	cltq   
   16c2a:	8b 55 fc             	mov    -0x4(%rbp),%edx
   16c2d:	48 8d 35 69 2f 00 00 	lea    0x2f69(%rip),%rsi        # 19b9d <g_3221+0x1a85>
   16c34:	48 89 c7             	mov    %rax,%rdi
   16c37:	e8 b7 2a ff ff       	callq  96f3 <transparent_crc>
   16c3c:	0f b6 05 ed 7d 00 00 	movzbl 0x7ded(%rip),%eax        # 1ea30 <g_1949>
   16c43:	48 0f be c0          	movsbq %al,%rax
   16c47:	8b 55 fc             	mov    -0x4(%rbp),%edx
   16c4a:	48 8d 35 56 2f 00 00 	lea    0x2f56(%rip),%rsi        # 19ba7 <g_3221+0x1a8f>
   16c51:	48 89 c7             	mov    %rax,%rdi
   16c54:	e8 9a 2a ff ff       	callq  96f3 <transparent_crc>
   16c59:	8b 05 d1 7d 00 00    	mov    0x7dd1(%rip),%eax        # 1ea30 <g_1949>
   16c5f:	48 98                	cltq   
   16c61:	8b 55 fc             	mov    -0x4(%rbp),%edx
   16c64:	48 8d 35 46 2f 00 00 	lea    0x2f46(%rip),%rsi        # 19bb1 <g_3221+0x1a99>
   16c6b:	48 89 c7             	mov    %rax,%rdi
   16c6e:	e8 80 2a ff ff       	callq  96f3 <transparent_crc>
   16c73:	c7 45 f0 00 00 00 00 	movl   $0x0,-0x10(%rbp)
   16c7a:	e9 a4 00 00 00       	jmpq   16d23 <main+0x14b8>
   16c7f:	8b 45 f0             	mov    -0x10(%rbp),%eax
   16c82:	48 98                	cltq   
   16c84:	48 8d 14 c5 00 00 00 	lea    0x0(,%rax,8),%rdx
   16c8b:	00 
   16c8c:	48 8d 05 ad 7d 00 00 	lea    0x7dad(%rip),%rax        # 1ea40 <g_1950>
   16c93:	8b 04 02             	mov    (%rdx,%rax,1),%eax
   16c96:	48 98                	cltq   
   16c98:	8b 55 fc             	mov    -0x4(%rbp),%edx
   16c9b:	48 8d 35 19 2f 00 00 	lea    0x2f19(%rip),%rsi        # 19bbb <g_3221+0x1aa3>
   16ca2:	48 89 c7             	mov    %rax,%rdi
   16ca5:	e8 49 2a ff ff       	callq  96f3 <transparent_crc>
   16caa:	8b 45 f0             	mov    -0x10(%rbp),%eax
   16cad:	48 98                	cltq   
   16caf:	48 8d 14 c5 00 00 00 	lea    0x0(,%rax,8),%rdx
   16cb6:	00 
   16cb7:	48 8d 05 82 7d 00 00 	lea    0x7d82(%rip),%rax        # 1ea40 <g_1950>
   16cbe:	0f b6 04 02          	movzbl (%rdx,%rax,1),%eax
   16cc2:	48 0f be c0          	movsbq %al,%rax
   16cc6:	8b 55 fc             	mov    -0x4(%rbp),%edx
   16cc9:	48 8d 35 f8 2e 00 00 	lea    0x2ef8(%rip),%rsi        # 19bc8 <g_3221+0x1ab0>
   16cd0:	48 89 c7             	mov    %rax,%rdi
   16cd3:	e8 1b 2a ff ff       	callq  96f3 <transparent_crc>
   16cd8:	8b 45 f0             	mov    -0x10(%rbp),%eax
   16cdb:	48 98                	cltq   
   16cdd:	48 8d 14 c5 00 00 00 	lea    0x0(,%rax,8),%rdx
   16ce4:	00 
   16ce5:	48 8d 05 54 7d 00 00 	lea    0x7d54(%rip),%rax        # 1ea40 <g_1950>
   16cec:	8b 04 02             	mov    (%rdx,%rax,1),%eax
   16cef:	48 98                	cltq   
   16cf1:	8b 55 fc             	mov    -0x4(%rbp),%edx
   16cf4:	48 8d 35 da 2e 00 00 	lea    0x2eda(%rip),%rsi        # 19bd5 <g_3221+0x1abd>
   16cfb:	48 89 c7             	mov    %rax,%rdi
   16cfe:	e8 f0 29 ff ff       	callq  96f3 <transparent_crc>
   16d03:	83 7d fc 00          	cmpl   $0x0,-0x4(%rbp)
   16d07:	74 16                	je     16d1f <main+0x14b4>
   16d09:	8b 45 f0             	mov    -0x10(%rbp),%eax
   16d0c:	89 c6                	mov    %eax,%esi
   16d0e:	48 8d 3d 22 2a 00 00 	lea    0x2a22(%rip),%rdi        # 19737 <g_3221+0x161f>
   16d15:	b8 00 00 00 00       	mov    $0x0,%eax
   16d1a:	e8 61 13 ff ff       	callq  8080 <printf@plt>
   16d1f:	83 45 f0 01          	addl   $0x1,-0x10(%rbp)
   16d23:	83 7d f0 04          	cmpl   $0x4,-0x10(%rbp)
   16d27:	0f 8e 52 ff ff ff    	jle    16c7f <main+0x1414>
   16d2d:	8b 05 35 7d 00 00    	mov    0x7d35(%rip),%eax        # 1ea68 <g_1966>
   16d33:	48 98                	cltq   
   16d35:	8b 55 fc             	mov    -0x4(%rbp),%edx
   16d38:	48 8d 35 a3 2e 00 00 	lea    0x2ea3(%rip),%rsi        # 19be2 <g_3221+0x1aca>
   16d3f:	48 89 c7             	mov    %rax,%rdi
   16d42:	e8 ac 29 ff ff       	callq  96f3 <transparent_crc>
   16d47:	0f b6 05 1a 7d 00 00 	movzbl 0x7d1a(%rip),%eax        # 1ea68 <g_1966>
   16d4e:	48 0f be c0          	movsbq %al,%rax
   16d52:	8b 55 fc             	mov    -0x4(%rbp),%edx
   16d55:	48 8d 35 90 2e 00 00 	lea    0x2e90(%rip),%rsi        # 19bec <g_3221+0x1ad4>
   16d5c:	48 89 c7             	mov    %rax,%rdi
   16d5f:	e8 8f 29 ff ff       	callq  96f3 <transparent_crc>
   16d64:	8b 05 fe 7c 00 00    	mov    0x7cfe(%rip),%eax        # 1ea68 <g_1966>
   16d6a:	48 98                	cltq   
   16d6c:	8b 55 fc             	mov    -0x4(%rbp),%edx
   16d6f:	48 8d 35 80 2e 00 00 	lea    0x2e80(%rip),%rsi        # 19bf6 <g_3221+0x1ade>
   16d76:	48 89 c7             	mov    %rax,%rdi
   16d79:	e8 75 29 ff ff       	callq  96f3 <transparent_crc>
   16d7e:	8b 05 ec 7c 00 00    	mov    0x7cec(%rip),%eax        # 1ea70 <g_2025>
   16d84:	48 98                	cltq   
   16d86:	8b 55 fc             	mov    -0x4(%rbp),%edx
   16d89:	48 8d 35 70 2e 00 00 	lea    0x2e70(%rip),%rsi        # 19c00 <g_3221+0x1ae8>
   16d90:	48 89 c7             	mov    %rax,%rdi
   16d93:	e8 5b 29 ff ff       	callq  96f3 <transparent_crc>
   16d98:	0f b6 05 d1 7c 00 00 	movzbl 0x7cd1(%rip),%eax        # 1ea70 <g_2025>
   16d9f:	48 0f be c0          	movsbq %al,%rax
   16da3:	8b 55 fc             	mov    -0x4(%rbp),%edx
   16da6:	48 8d 35 5d 2e 00 00 	lea    0x2e5d(%rip),%rsi        # 19c0a <g_3221+0x1af2>
   16dad:	48 89 c7             	mov    %rax,%rdi
   16db0:	e8 3e 29 ff ff       	callq  96f3 <transparent_crc>
   16db5:	8b 05 b5 7c 00 00    	mov    0x7cb5(%rip),%eax        # 1ea70 <g_2025>
   16dbb:	48 98                	cltq   
   16dbd:	8b 55 fc             	mov    -0x4(%rbp),%edx
   16dc0:	48 8d 35 4d 2e 00 00 	lea    0x2e4d(%rip),%rsi        # 19c14 <g_3221+0x1afc>
   16dc7:	48 89 c7             	mov    %rax,%rdi
   16dca:	e8 24 29 ff ff       	callq  96f3 <transparent_crc>
   16dcf:	0f b7 05 a2 7c 00 00 	movzwl 0x7ca2(%rip),%eax        # 1ea78 <g_2026>
   16dd6:	48 0f bf c0          	movswq %ax,%rax
   16dda:	8b 55 fc             	mov    -0x4(%rbp),%edx
   16ddd:	48 8d 35 3a 2e 00 00 	lea    0x2e3a(%rip),%rsi        # 19c1e <g_3221+0x1b06>
   16de4:	48 89 c7             	mov    %rax,%rdi
   16de7:	e8 07 29 ff ff       	callq  96f3 <transparent_crc>
   16dec:	8b 05 8e 7c 00 00    	mov    0x7c8e(%rip),%eax        # 1ea80 <g_2040>
   16df2:	48 98                	cltq   
   16df4:	8b 55 fc             	mov    -0x4(%rbp),%edx
   16df7:	48 8d 35 27 2e 00 00 	lea    0x2e27(%rip),%rsi        # 19c25 <g_3221+0x1b0d>
   16dfe:	48 89 c7             	mov    %rax,%rdi
   16e01:	e8 ed 28 ff ff       	callq  96f3 <transparent_crc>
   16e06:	0f b6 05 73 7c 00 00 	movzbl 0x7c73(%rip),%eax        # 1ea80 <g_2040>
   16e0d:	48 0f be c0          	movsbq %al,%rax
   16e11:	8b 55 fc             	mov    -0x4(%rbp),%edx
   16e14:	48 8d 35 14 2e 00 00 	lea    0x2e14(%rip),%rsi        # 19c2f <g_3221+0x1b17>
   16e1b:	48 89 c7             	mov    %rax,%rdi
   16e1e:	e8 d0 28 ff ff       	callq  96f3 <transparent_crc>
   16e23:	8b 05 57 7c 00 00    	mov    0x7c57(%rip),%eax        # 1ea80 <g_2040>
   16e29:	48 98                	cltq   
   16e2b:	8b 55 fc             	mov    -0x4(%rbp),%edx
   16e2e:	48 8d 35 04 2e 00 00 	lea    0x2e04(%rip),%rsi        # 19c39 <g_3221+0x1b21>
   16e35:	48 89 c7             	mov    %rax,%rdi
   16e38:	e8 b6 28 ff ff       	callq  96f3 <transparent_crc>
   16e3d:	0f b7 05 44 7c 00 00 	movzwl 0x7c44(%rip),%eax        # 1ea88 <g_2168>
   16e44:	0f b7 c0             	movzwl %ax,%eax
   16e47:	8b 55 fc             	mov    -0x4(%rbp),%edx
   16e4a:	48 8d 35 f2 2d 00 00 	lea    0x2df2(%rip),%rsi        # 19c43 <g_3221+0x1b2b>
   16e51:	48 89 c7             	mov    %rax,%rdi
   16e54:	e8 9a 28 ff ff       	callq  96f3 <transparent_crc>
   16e59:	0f b7 05 2a 7c 00 00 	movzwl 0x7c2a(%rip),%eax        # 1ea8a <g_2400>
   16e60:	0f b7 c0             	movzwl %ax,%eax
   16e63:	8b 55 fc             	mov    -0x4(%rbp),%edx
   16e66:	48 8d 35 dd 2d 00 00 	lea    0x2ddd(%rip),%rsi        # 19c4a <g_3221+0x1b32>
   16e6d:	48 89 c7             	mov    %rax,%rdi
   16e70:	e8 7e 28 ff ff       	callq  96f3 <transparent_crc>
   16e75:	8b 05 35 aa 00 00    	mov    0xaa35(%rip),%eax        # 218b0 <g_2419>
   16e7b:	48 98                	cltq   
   16e7d:	8b 55 fc             	mov    -0x4(%rbp),%edx
   16e80:	48 8d 35 ca 2d 00 00 	lea    0x2dca(%rip),%rsi        # 19c51 <g_3221+0x1b39>
   16e87:	48 89 c7             	mov    %rax,%rdi
   16e8a:	e8 64 28 ff ff       	callq  96f3 <transparent_crc>
   16e8f:	0f b6 05 1a aa 00 00 	movzbl 0xaa1a(%rip),%eax        # 218b0 <g_2419>
   16e96:	48 0f be c0          	movsbq %al,%rax
   16e9a:	8b 55 fc             	mov    -0x4(%rbp),%edx
   16e9d:	48 8d 35 b7 2d 00 00 	lea    0x2db7(%rip),%rsi        # 19c5b <g_3221+0x1b43>
   16ea4:	48 89 c7             	mov    %rax,%rdi
   16ea7:	e8 47 28 ff ff       	callq  96f3 <transparent_crc>
   16eac:	8b 05 fe a9 00 00    	mov    0xa9fe(%rip),%eax        # 218b0 <g_2419>
   16eb2:	48 98                	cltq   
   16eb4:	8b 55 fc             	mov    -0x4(%rbp),%edx
   16eb7:	48 8d 35 a7 2d 00 00 	lea    0x2da7(%rip),%rsi        # 19c65 <g_3221+0x1b4d>
   16ebe:	48 89 c7             	mov    %rax,%rdi
   16ec1:	e8 2d 28 ff ff       	callq  96f3 <transparent_crc>
   16ec6:	c7 45 f0 00 00 00 00 	movl   $0x0,-0x10(%rbp)
   16ecd:	e9 a4 00 00 00       	jmpq   16f76 <main+0x170b>
   16ed2:	8b 45 f0             	mov    -0x10(%rbp),%eax
   16ed5:	48 98                	cltq   
   16ed7:	48 8d 14 c5 00 00 00 	lea    0x0(,%rax,8),%rdx
   16ede:	00 
   16edf:	48 8d 05 aa 7b 00 00 	lea    0x7baa(%rip),%rax        # 1ea90 <g_2458>
   16ee6:	8b 04 02             	mov    (%rdx,%rax,1),%eax
   16ee9:	48 98                	cltq   
   16eeb:	8b 55 fc             	mov    -0x4(%rbp),%edx
   16eee:	48 8d 35 7a 2d 00 00 	lea    0x2d7a(%rip),%rsi        # 19c6f <g_3221+0x1b57>
   16ef5:	48 89 c7             	mov    %rax,%rdi
   16ef8:	e8 f6 27 ff ff       	callq  96f3 <transparent_crc>
   16efd:	8b 45 f0             	mov    -0x10(%rbp),%eax
   16f00:	48 98                	cltq   
   16f02:	48 8d 14 c5 00 00 00 	lea    0x0(,%rax,8),%rdx
   16f09:	00 
   16f0a:	48 8d 05 7f 7b 00 00 	lea    0x7b7f(%rip),%rax        # 1ea90 <g_2458>
   16f11:	0f b6 04 02          	movzbl (%rdx,%rax,1),%eax
   16f15:	48 0f be c0          	movsbq %al,%rax
   16f19:	8b 55 fc             	mov    -0x4(%rbp),%edx
   16f1c:	48 8d 35 59 2d 00 00 	lea    0x2d59(%rip),%rsi        # 19c7c <g_3221+0x1b64>
   16f23:	48 89 c7             	mov    %rax,%rdi
   16f26:	e8 c8 27 ff ff       	callq  96f3 <transparent_crc>
   16f2b:	8b 45 f0             	mov    -0x10(%rbp),%eax
   16f2e:	48 98                	cltq   
   16f30:	48 8d 14 c5 00 00 00 	lea    0x0(,%rax,8),%rdx
   16f37:	00 
   16f38:	48 8d 05 51 7b 00 00 	lea    0x7b51(%rip),%rax        # 1ea90 <g_2458>
   16f3f:	8b 04 02             	mov    (%rdx,%rax,1),%eax
   16f42:	48 98                	cltq   
   16f44:	8b 55 fc             	mov    -0x4(%rbp),%edx
   16f47:	48 8d 35 3b 2d 00 00 	lea    0x2d3b(%rip),%rsi        # 19c89 <g_3221+0x1b71>
   16f4e:	48 89 c7             	mov    %rax,%rdi
   16f51:	e8 9d 27 ff ff       	callq  96f3 <transparent_crc>
   16f56:	83 7d fc 00          	cmpl   $0x0,-0x4(%rbp)
   16f5a:	74 16                	je     16f72 <main+0x1707>
   16f5c:	8b 45 f0             	mov    -0x10(%rbp),%eax
   16f5f:	89 c6                	mov    %eax,%esi
   16f61:	48 8d 3d cf 27 00 00 	lea    0x27cf(%rip),%rdi        # 19737 <g_3221+0x161f>
   16f68:	b8 00 00 00 00       	mov    $0x0,%eax
   16f6d:	e8 0e 11 ff ff       	callq  8080 <printf@plt>
   16f72:	83 45 f0 01          	addl   $0x1,-0x10(%rbp)
   16f76:	83 7d f0 00          	cmpl   $0x0,-0x10(%rbp)
   16f7a:	0f 8e 52 ff ff ff    	jle    16ed2 <main+0x1667>
   16f80:	8b 05 12 7b 00 00    	mov    0x7b12(%rip),%eax        # 1ea98 <g_2531>
   16f86:	48 98                	cltq   
   16f88:	8b 55 fc             	mov    -0x4(%rbp),%edx
   16f8b:	48 8d 35 04 2d 00 00 	lea    0x2d04(%rip),%rsi        # 19c96 <g_3221+0x1b7e>
   16f92:	48 89 c7             	mov    %rax,%rdi
   16f95:	e8 59 27 ff ff       	callq  96f3 <transparent_crc>
   16f9a:	0f b6 05 f7 7a 00 00 	movzbl 0x7af7(%rip),%eax        # 1ea98 <g_2531>
   16fa1:	48 0f be c0          	movsbq %al,%rax
   16fa5:	8b 55 fc             	mov    -0x4(%rbp),%edx
   16fa8:	48 8d 35 f1 2c 00 00 	lea    0x2cf1(%rip),%rsi        # 19ca0 <g_3221+0x1b88>
   16faf:	48 89 c7             	mov    %rax,%rdi
   16fb2:	e8 3c 27 ff ff       	callq  96f3 <transparent_crc>
   16fb7:	8b 05 db 7a 00 00    	mov    0x7adb(%rip),%eax        # 1ea98 <g_2531>
   16fbd:	48 98                	cltq   
   16fbf:	8b 55 fc             	mov    -0x4(%rbp),%edx
   16fc2:	48 8d 35 e1 2c 00 00 	lea    0x2ce1(%rip),%rsi        # 19caa <g_3221+0x1b92>
   16fc9:	48 89 c7             	mov    %rax,%rdi
   16fcc:	e8 22 27 ff ff       	callq  96f3 <transparent_crc>
   16fd1:	8b 05 c9 7a 00 00    	mov    0x7ac9(%rip),%eax        # 1eaa0 <g_2537>
   16fd7:	48 98                	cltq   
   16fd9:	8b 55 fc             	mov    -0x4(%rbp),%edx
   16fdc:	48 8d 35 d1 2c 00 00 	lea    0x2cd1(%rip),%rsi        # 19cb4 <g_3221+0x1b9c>
   16fe3:	48 89 c7             	mov    %rax,%rdi
   16fe6:	e8 08 27 ff ff       	callq  96f3 <transparent_crc>
   16feb:	0f b6 05 ae 7a 00 00 	movzbl 0x7aae(%rip),%eax        # 1eaa0 <g_2537>
   16ff2:	48 0f be c0          	movsbq %al,%rax
   16ff6:	8b 55 fc             	mov    -0x4(%rbp),%edx
   16ff9:	48 8d 35 be 2c 00 00 	lea    0x2cbe(%rip),%rsi        # 19cbe <g_3221+0x1ba6>
   17000:	48 89 c7             	mov    %rax,%rdi
   17003:	e8 eb 26 ff ff       	callq  96f3 <transparent_crc>
   17008:	8b 05 92 7a 00 00    	mov    0x7a92(%rip),%eax        # 1eaa0 <g_2537>
   1700e:	48 98                	cltq   
   17010:	8b 55 fc             	mov    -0x4(%rbp),%edx
   17013:	48 8d 35 ae 2c 00 00 	lea    0x2cae(%rip),%rsi        # 19cc8 <g_3221+0x1bb0>
   1701a:	48 89 c7             	mov    %rax,%rdi
   1701d:	e8 d1 26 ff ff       	callq  96f3 <transparent_crc>
   17022:	0f b6 05 7f 7a 00 00 	movzbl 0x7a7f(%rip),%eax        # 1eaa8 <g_2601>
   17029:	0f b6 c0             	movzbl %al,%eax
   1702c:	8b 55 fc             	mov    -0x4(%rbp),%edx
   1702f:	48 8d 35 9c 2c 00 00 	lea    0x2c9c(%rip),%rsi        # 19cd2 <g_3221+0x1bba>
   17036:	48 89 c7             	mov    %rax,%rdi
   17039:	e8 b5 26 ff ff       	callq  96f3 <transparent_crc>
   1703e:	8b 05 6c 7a 00 00    	mov    0x7a6c(%rip),%eax        # 1eab0 <g_2621>
   17044:	48 98                	cltq   
   17046:	8b 55 fc             	mov    -0x4(%rbp),%edx
   17049:	48 8d 35 89 2c 00 00 	lea    0x2c89(%rip),%rsi        # 19cd9 <g_3221+0x1bc1>
   17050:	48 89 c7             	mov    %rax,%rdi
   17053:	e8 9b 26 ff ff       	callq  96f3 <transparent_crc>
   17058:	0f b6 05 51 7a 00 00 	movzbl 0x7a51(%rip),%eax        # 1eab0 <g_2621>
   1705f:	48 0f be c0          	movsbq %al,%rax
   17063:	8b 55 fc             	mov    -0x4(%rbp),%edx
   17066:	48 8d 35 76 2c 00 00 	lea    0x2c76(%rip),%rsi        # 19ce3 <g_3221+0x1bcb>
   1706d:	48 89 c7             	mov    %rax,%rdi
   17070:	e8 7e 26 ff ff       	callq  96f3 <transparent_crc>
   17075:	8b 05 35 7a 00 00    	mov    0x7a35(%rip),%eax        # 1eab0 <g_2621>
   1707b:	48 98                	cltq   
   1707d:	8b 55 fc             	mov    -0x4(%rbp),%edx
   17080:	48 8d 35 66 2c 00 00 	lea    0x2c66(%rip),%rsi        # 19ced <g_3221+0x1bd5>
   17087:	48 89 c7             	mov    %rax,%rdi
   1708a:	e8 64 26 ff ff       	callq  96f3 <transparent_crc>
   1708f:	8b 05 23 7a 00 00    	mov    0x7a23(%rip),%eax        # 1eab8 <g_2662>
   17095:	48 98                	cltq   
   17097:	8b 55 fc             	mov    -0x4(%rbp),%edx
   1709a:	48 8d 35 56 2c 00 00 	lea    0x2c56(%rip),%rsi        # 19cf7 <g_3221+0x1bdf>
   170a1:	48 89 c7             	mov    %rax,%rdi
   170a4:	e8 4a 26 ff ff       	callq  96f3 <transparent_crc>
   170a9:	0f b6 05 08 7a 00 00 	movzbl 0x7a08(%rip),%eax        # 1eab8 <g_2662>
   170b0:	48 0f be c0          	movsbq %al,%rax
   170b4:	8b 55 fc             	mov    -0x4(%rbp),%edx
   170b7:	48 8d 35 43 2c 00 00 	lea    0x2c43(%rip),%rsi        # 19d01 <g_3221+0x1be9>
   170be:	48 89 c7             	mov    %rax,%rdi
   170c1:	e8 2d 26 ff ff       	callq  96f3 <transparent_crc>
   170c6:	8b 05 ec 79 00 00    	mov    0x79ec(%rip),%eax        # 1eab8 <g_2662>
   170cc:	48 98                	cltq   
   170ce:	8b 55 fc             	mov    -0x4(%rbp),%edx
   170d1:	48 8d 35 33 2c 00 00 	lea    0x2c33(%rip),%rsi        # 19d0b <g_3221+0x1bf3>
   170d8:	48 89 c7             	mov    %rax,%rdi
   170db:	e8 13 26 ff ff       	callq  96f3 <transparent_crc>
   170e0:	48 8b 05 d1 a7 00 00 	mov    0xa7d1(%rip),%rax        # 218b8 <g_2678>
   170e7:	48 89 c1             	mov    %rax,%rcx
   170ea:	8b 45 fc             	mov    -0x4(%rbp),%eax
   170ed:	89 c2                	mov    %eax,%edx
   170ef:	48 8d 35 1f 2c 00 00 	lea    0x2c1f(%rip),%rsi        # 19d15 <g_3221+0x1bfd>
   170f6:	48 89 cf             	mov    %rcx,%rdi
   170f9:	e8 f5 25 ff ff       	callq  96f3 <transparent_crc>
   170fe:	8b 05 bc 79 00 00    	mov    0x79bc(%rip),%eax        # 1eac0 <g_2720>
   17104:	48 98                	cltq   
   17106:	8b 55 fc             	mov    -0x4(%rbp),%edx
   17109:	48 8d 35 0c 2c 00 00 	lea    0x2c0c(%rip),%rsi        # 19d1c <g_3221+0x1c04>
   17110:	48 89 c7             	mov    %rax,%rdi
   17113:	e8 db 25 ff ff       	callq  96f3 <transparent_crc>
   17118:	0f b7 05 a5 79 00 00 	movzwl 0x79a5(%rip),%eax        # 1eac4 <g_2812>
   1711f:	48 0f bf c0          	movswq %ax,%rax
   17123:	8b 55 fc             	mov    -0x4(%rbp),%edx
   17126:	48 8d 35 f6 2b 00 00 	lea    0x2bf6(%rip),%rsi        # 19d23 <g_3221+0x1c0b>
   1712d:	48 89 c7             	mov    %rax,%rdi
   17130:	e8 be 25 ff ff       	callq  96f3 <transparent_crc>
   17135:	8b 05 8d 79 00 00    	mov    0x798d(%rip),%eax        # 1eac8 <g_2819>
   1713b:	48 98                	cltq   
   1713d:	8b 55 fc             	mov    -0x4(%rbp),%edx
   17140:	48 8d 35 e3 2b 00 00 	lea    0x2be3(%rip),%rsi        # 19d2a <g_3221+0x1c12>
   17147:	48 89 c7             	mov    %rax,%rdi
   1714a:	e8 a4 25 ff ff       	callq  96f3 <transparent_crc>
   1714f:	0f b6 05 72 79 00 00 	movzbl 0x7972(%rip),%eax        # 1eac8 <g_2819>
   17156:	48 0f be c0          	movsbq %al,%rax
   1715a:	8b 55 fc             	mov    -0x4(%rbp),%edx
   1715d:	48 8d 35 d0 2b 00 00 	lea    0x2bd0(%rip),%rsi        # 19d34 <g_3221+0x1c1c>
   17164:	48 89 c7             	mov    %rax,%rdi
   17167:	e8 87 25 ff ff       	callq  96f3 <transparent_crc>
   1716c:	8b 05 56 79 00 00    	mov    0x7956(%rip),%eax        # 1eac8 <g_2819>
   17172:	48 98                	cltq   
   17174:	8b 55 fc             	mov    -0x4(%rbp),%edx
   17177:	48 8d 35 c0 2b 00 00 	lea    0x2bc0(%rip),%rsi        # 19d3e <g_3221+0x1c26>
   1717e:	48 89 c7             	mov    %rax,%rdi
   17181:	e8 6d 25 ff ff       	callq  96f3 <transparent_crc>
   17186:	8b 05 44 79 00 00    	mov    0x7944(%rip),%eax        # 1ead0 <g_2832>
   1718c:	48 98                	cltq   
   1718e:	8b 55 fc             	mov    -0x4(%rbp),%edx
   17191:	48 8d 35 b0 2b 00 00 	lea    0x2bb0(%rip),%rsi        # 19d48 <g_3221+0x1c30>
   17198:	48 89 c7             	mov    %rax,%rdi
   1719b:	e8 53 25 ff ff       	callq  96f3 <transparent_crc>
   171a0:	0f b6 05 29 79 00 00 	movzbl 0x7929(%rip),%eax        # 1ead0 <g_2832>
   171a7:	48 0f be c0          	movsbq %al,%rax
   171ab:	8b 55 fc             	mov    -0x4(%rbp),%edx
   171ae:	48 8d 35 9d 2b 00 00 	lea    0x2b9d(%rip),%rsi        # 19d52 <g_3221+0x1c3a>
   171b5:	48 89 c7             	mov    %rax,%rdi
   171b8:	e8 36 25 ff ff       	callq  96f3 <transparent_crc>
   171bd:	8b 05 0d 79 00 00    	mov    0x790d(%rip),%eax        # 1ead0 <g_2832>
   171c3:	48 98                	cltq   
   171c5:	8b 55 fc             	mov    -0x4(%rbp),%edx
   171c8:	48 8d 35 8d 2b 00 00 	lea    0x2b8d(%rip),%rsi        # 19d5c <g_3221+0x1c44>
   171cf:	48 89 c7             	mov    %rax,%rdi
   171d2:	e8 1c 25 ff ff       	callq  96f3 <transparent_crc>
   171d7:	c7 45 f0 00 00 00 00 	movl   $0x0,-0x10(%rbp)
   171de:	eb 49                	jmp    17229 <main+0x19be>
   171e0:	8b 45 f0             	mov    -0x10(%rbp),%eax
   171e3:	48 98                	cltq   
   171e5:	48 8d 14 00          	lea    (%rax,%rax,1),%rdx
   171e9:	48 8d 05 18 0f 00 00 	lea    0xf18(%rip),%rax        # 18108 <g_2841>
   171f0:	0f b7 04 02          	movzwl (%rdx,%rax,1),%eax
   171f4:	0f b7 c0             	movzwl %ax,%eax
   171f7:	8b 55 fc             	mov    -0x4(%rbp),%edx
   171fa:	48 8d 35 65 2b 00 00 	lea    0x2b65(%rip),%rsi        # 19d66 <g_3221+0x1c4e>
   17201:	48 89 c7             	mov    %rax,%rdi
   17204:	e8 ea 24 ff ff       	callq  96f3 <transparent_crc>
   17209:	83 7d fc 00          	cmpl   $0x0,-0x4(%rbp)
   1720d:	74 16                	je     17225 <main+0x19ba>
   1720f:	8b 45 f0             	mov    -0x10(%rbp),%eax
   17212:	89 c6                	mov    %eax,%esi
   17214:	48 8d 3d 1c 25 00 00 	lea    0x251c(%rip),%rdi        # 19737 <g_3221+0x161f>
   1721b:	b8 00 00 00 00       	mov    $0x0,%eax
   17220:	e8 5b 0e ff ff       	callq  8080 <printf@plt>
   17225:	83 45 f0 01          	addl   $0x1,-0x10(%rbp)
   17229:	83 7d f0 06          	cmpl   $0x6,-0x10(%rbp)
   1722d:	7e b1                	jle    171e0 <main+0x1975>
   1722f:	8b 05 93 a6 00 00    	mov    0xa693(%rip),%eax        # 218c8 <g_3016>
   17235:	48 98                	cltq   
   17237:	8b 55 fc             	mov    -0x4(%rbp),%edx
   1723a:	48 8d 35 2f 2b 00 00 	lea    0x2b2f(%rip),%rsi        # 19d70 <g_3221+0x1c58>
   17241:	48 89 c7             	mov    %rax,%rdi
   17244:	e8 aa 24 ff ff       	callq  96f3 <transparent_crc>
   17249:	0f b6 05 78 a6 00 00 	movzbl 0xa678(%rip),%eax        # 218c8 <g_3016>
   17250:	48 0f be c0          	movsbq %al,%rax
   17254:	8b 55 fc             	mov    -0x4(%rbp),%edx
   17257:	48 8d 35 1c 2b 00 00 	lea    0x2b1c(%rip),%rsi        # 19d7a <g_3221+0x1c62>
   1725e:	48 89 c7             	mov    %rax,%rdi
   17261:	e8 8d 24 ff ff       	callq  96f3 <transparent_crc>
   17266:	8b 05 5c a6 00 00    	mov    0xa65c(%rip),%eax        # 218c8 <g_3016>
   1726c:	48 98                	cltq   
   1726e:	8b 55 fc             	mov    -0x4(%rbp),%edx
   17271:	48 8d 35 0c 2b 00 00 	lea    0x2b0c(%rip),%rsi        # 19d84 <g_3221+0x1c6c>
   17278:	48 89 c7             	mov    %rax,%rdi
   1727b:	e8 73 24 ff ff       	callq  96f3 <transparent_crc>
   17280:	8b 05 52 78 00 00    	mov    0x7852(%rip),%eax        # 1ead8 <g_3027>
   17286:	48 98                	cltq   
   17288:	8b 55 fc             	mov    -0x4(%rbp),%edx
   1728b:	48 8d 35 fc 2a 00 00 	lea    0x2afc(%rip),%rsi        # 19d8e <g_3221+0x1c76>
   17292:	48 89 c7             	mov    %rax,%rdi
   17295:	e8 59 24 ff ff       	callq  96f3 <transparent_crc>
   1729a:	8b 05 40 78 00 00    	mov    0x7840(%rip),%eax        # 1eae0 <g_3116>
   172a0:	48 98                	cltq   
   172a2:	8b 55 fc             	mov    -0x4(%rbp),%edx
   172a5:	48 8d 35 e9 2a 00 00 	lea    0x2ae9(%rip),%rsi        # 19d95 <g_3221+0x1c7d>
   172ac:	48 89 c7             	mov    %rax,%rdi
   172af:	e8 3f 24 ff ff       	callq  96f3 <transparent_crc>
   172b4:	0f b6 05 25 78 00 00 	movzbl 0x7825(%rip),%eax        # 1eae0 <g_3116>
   172bb:	48 0f be c0          	movsbq %al,%rax
   172bf:	8b 55 fc             	mov    -0x4(%rbp),%edx
   172c2:	48 8d 35 d6 2a 00 00 	lea    0x2ad6(%rip),%rsi        # 19d9f <g_3221+0x1c87>
   172c9:	48 89 c7             	mov    %rax,%rdi
   172cc:	e8 22 24 ff ff       	callq  96f3 <transparent_crc>
   172d1:	8b 05 09 78 00 00    	mov    0x7809(%rip),%eax        # 1eae0 <g_3116>
   172d7:	48 98                	cltq   
   172d9:	8b 55 fc             	mov    -0x4(%rbp),%edx
   172dc:	48 8d 35 c6 2a 00 00 	lea    0x2ac6(%rip),%rsi        # 19da9 <g_3221+0x1c91>
   172e3:	48 89 c7             	mov    %rax,%rdi
   172e6:	e8 08 24 ff ff       	callq  96f3 <transparent_crc>
   172eb:	8b 05 f7 77 00 00    	mov    0x77f7(%rip),%eax        # 1eae8 <g_3118>
   172f1:	48 98                	cltq   
   172f3:	8b 55 fc             	mov    -0x4(%rbp),%edx
   172f6:	48 8d 35 b6 2a 00 00 	lea    0x2ab6(%rip),%rsi        # 19db3 <g_3221+0x1c9b>
   172fd:	48 89 c7             	mov    %rax,%rdi
   17300:	e8 ee 23 ff ff       	callq  96f3 <transparent_crc>
   17305:	0f b6 05 dc 77 00 00 	movzbl 0x77dc(%rip),%eax        # 1eae8 <g_3118>
   1730c:	48 0f be c0          	movsbq %al,%rax
   17310:	8b 55 fc             	mov    -0x4(%rbp),%edx
   17313:	48 8d 35 a3 2a 00 00 	lea    0x2aa3(%rip),%rsi        # 19dbd <g_3221+0x1ca5>
   1731a:	48 89 c7             	mov    %rax,%rdi
   1731d:	e8 d1 23 ff ff       	callq  96f3 <transparent_crc>
   17322:	8b 05 c0 77 00 00    	mov    0x77c0(%rip),%eax        # 1eae8 <g_3118>
   17328:	48 98                	cltq   
   1732a:	8b 55 fc             	mov    -0x4(%rbp),%edx
   1732d:	48 8d 35 93 2a 00 00 	lea    0x2a93(%rip),%rsi        # 19dc7 <g_3221+0x1caf>
   17334:	48 89 c7             	mov    %rax,%rdi
   17337:	e8 b7 23 ff ff       	callq  96f3 <transparent_crc>
   1733c:	b8 06 00 00 00       	mov    $0x6,%eax
   17341:	48 0f be c0          	movsbq %al,%rax
   17345:	8b 55 fc             	mov    -0x4(%rbp),%edx
   17348:	48 8d 35 82 2a 00 00 	lea    0x2a82(%rip),%rsi        # 19dd1 <g_3221+0x1cb9>
   1734f:	48 89 c7             	mov    %rax,%rdi
   17352:	e8 9c 23 ff ff       	callq  96f3 <transparent_crc>
   17357:	8b 05 93 77 00 00    	mov    0x7793(%rip),%eax        # 1eaf0 <g_3144>
   1735d:	48 98                	cltq   
   1735f:	8b 55 fc             	mov    -0x4(%rbp),%edx
   17362:	48 8d 35 6f 2a 00 00 	lea    0x2a6f(%rip),%rsi        # 19dd8 <g_3221+0x1cc0>
   17369:	48 89 c7             	mov    %rax,%rdi
   1736c:	e8 82 23 ff ff       	callq  96f3 <transparent_crc>
   17371:	48 8b 05 80 77 00 00 	mov    0x7780(%rip),%rax        # 1eaf8 <g_3145>
   17378:	48 89 c1             	mov    %rax,%rcx
   1737b:	8b 45 fc             	mov    -0x4(%rbp),%eax
   1737e:	89 c2                	mov    %eax,%edx
   17380:	48 8d 35 58 2a 00 00 	lea    0x2a58(%rip),%rsi        # 19ddf <g_3221+0x1cc7>
   17387:	48 89 cf             	mov    %rcx,%rdi
   1738a:	e8 64 23 ff ff       	callq  96f3 <transparent_crc>
   1738f:	8b 05 6b 77 00 00    	mov    0x776b(%rip),%eax        # 1eb00 <g_3223>
   17395:	48 98                	cltq   
   17397:	8b 55 fc             	mov    -0x4(%rbp),%edx
   1739a:	48 8d 35 45 2a 00 00 	lea    0x2a45(%rip),%rsi        # 19de6 <g_3221+0x1cce>
   173a1:	48 89 c7             	mov    %rax,%rdi
   173a4:	e8 4a 23 ff ff       	callq  96f3 <transparent_crc>
   173a9:	0f b6 05 50 77 00 00 	movzbl 0x7750(%rip),%eax        # 1eb00 <g_3223>
   173b0:	48 0f be c0          	movsbq %al,%rax
   173b4:	8b 55 fc             	mov    -0x4(%rbp),%edx
   173b7:	48 8d 35 32 2a 00 00 	lea    0x2a32(%rip),%rsi        # 19df0 <g_3221+0x1cd8>
   173be:	48 89 c7             	mov    %rax,%rdi
   173c1:	e8 2d 23 ff ff       	callq  96f3 <transparent_crc>
   173c6:	8b 05 34 77 00 00    	mov    0x7734(%rip),%eax        # 1eb00 <g_3223>
   173cc:	48 98                	cltq   
   173ce:	8b 55 fc             	mov    -0x4(%rbp),%edx
   173d1:	48 8d 35 22 2a 00 00 	lea    0x2a22(%rip),%rsi        # 19dfa <g_3221+0x1ce2>
   173d8:	48 89 c7             	mov    %rax,%rdi
   173db:	e8 13 23 ff ff       	callq  96f3 <transparent_crc>
   173e0:	8b 05 22 77 00 00    	mov    0x7722(%rip),%eax        # 1eb08 <g_3236>
   173e6:	48 98                	cltq   
   173e8:	8b 55 fc             	mov    -0x4(%rbp),%edx
   173eb:	48 8d 35 12 2a 00 00 	lea    0x2a12(%rip),%rsi        # 19e04 <g_3221+0x1cec>
   173f2:	48 89 c7             	mov    %rax,%rdi
   173f5:	e8 f9 22 ff ff       	callq  96f3 <transparent_crc>
   173fa:	0f b6 05 07 77 00 00 	movzbl 0x7707(%rip),%eax        # 1eb08 <g_3236>
   17401:	48 0f be c0          	movsbq %al,%rax
   17405:	8b 55 fc             	mov    -0x4(%rbp),%edx
   17408:	48 8d 35 ff 29 00 00 	lea    0x29ff(%rip),%rsi        # 19e0e <g_3221+0x1cf6>
   1740f:	48 89 c7             	mov    %rax,%rdi
   17412:	e8 dc 22 ff ff       	callq  96f3 <transparent_crc>
   17417:	8b 05 eb 76 00 00    	mov    0x76eb(%rip),%eax        # 1eb08 <g_3236>
   1741d:	48 98                	cltq   
   1741f:	8b 55 fc             	mov    -0x4(%rbp),%edx
   17422:	48 8d 35 ef 29 00 00 	lea    0x29ef(%rip),%rsi        # 19e18 <g_3221+0x1d00>
   17429:	48 89 c7             	mov    %rax,%rdi
   1742c:	e8 c2 22 ff ff       	callq  96f3 <transparent_crc>
   17431:	c7 45 f0 00 00 00 00 	movl   $0x0,-0x10(%rbp)
   17438:	eb 45                	jmp    1747f <main+0x1c14>
   1743a:	8b 45 f0             	mov    -0x10(%rbp),%eax
   1743d:	48 98                	cltq   
   1743f:	48 8d 15 8a a4 00 00 	lea    0xa48a(%rip),%rdx        # 218d0 <g_3261>
   17446:	0f b6 04 10          	movzbl (%rax,%rdx,1),%eax
   1744a:	0f b6 c0             	movzbl %al,%eax
   1744d:	8b 55 fc             	mov    -0x4(%rbp),%edx
   17450:	48 8d 35 cb 29 00 00 	lea    0x29cb(%rip),%rsi        # 19e22 <g_3221+0x1d0a>
   17457:	48 89 c7             	mov    %rax,%rdi
   1745a:	e8 94 22 ff ff       	callq  96f3 <transparent_crc>
   1745f:	83 7d fc 00          	cmpl   $0x0,-0x4(%rbp)
   17463:	74 16                	je     1747b <main+0x1c10>
   17465:	8b 45 f0             	mov    -0x10(%rbp),%eax
   17468:	89 c6                	mov    %eax,%esi
   1746a:	48 8d 3d c6 22 00 00 	lea    0x22c6(%rip),%rdi        # 19737 <g_3221+0x161f>
   17471:	b8 00 00 00 00       	mov    $0x0,%eax
   17476:	e8 05 0c ff ff       	callq  8080 <printf@plt>
   1747b:	83 45 f0 01          	addl   $0x1,-0x10(%rbp)
   1747f:	83 7d f0 08          	cmpl   $0x8,-0x10(%rbp)
   17483:	7e b5                	jle    1743a <main+0x1bcf>
   17485:	c7 45 f0 00 00 00 00 	movl   $0x0,-0x10(%rbp)
   1748c:	eb 69                	jmp    174f7 <main+0x1c8c>
   1748e:	c7 45 f4 00 00 00 00 	movl   $0x0,-0xc(%rbp)
   17495:	eb 56                	jmp    174ed <main+0x1c82>
   17497:	8b 45 f4             	mov    -0xc(%rbp),%eax
   1749a:	48 98                	cltq   
   1749c:	8b 55 f0             	mov    -0x10(%rbp),%edx
   1749f:	48 63 d2             	movslq %edx,%rdx
   174a2:	48 01 d2             	add    %rdx,%rdx
   174a5:	48 01 c2             	add    %rax,%rdx
   174a8:	48 8d 05 61 76 00 00 	lea    0x7661(%rip),%rax        # 1eb10 <g_3281>
   174af:	48 01 d0             	add    %rdx,%rax
   174b2:	0f b6 00             	movzbl (%rax),%eax
   174b5:	0f b6 c0             	movzbl %al,%eax
   174b8:	8b 55 fc             	mov    -0x4(%rbp),%edx
   174bb:	48 8d 35 6a 29 00 00 	lea    0x296a(%rip),%rsi        # 19e2c <g_3221+0x1d14>
   174c2:	48 89 c7             	mov    %rax,%rdi
   174c5:	e8 29 22 ff ff       	callq  96f3 <transparent_crc>
   174ca:	83 7d fc 00          	cmpl   $0x0,-0x4(%rbp)
   174ce:	74 19                	je     174e9 <main+0x1c7e>
   174d0:	8b 55 f4             	mov    -0xc(%rbp),%edx
   174d3:	8b 45 f0             	mov    -0x10(%rbp),%eax
   174d6:	89 c6                	mov    %eax,%esi
   174d8:	48 8d 3d fa 24 00 00 	lea    0x24fa(%rip),%rdi        # 199d9 <g_3221+0x18c1>
   174df:	b8 00 00 00 00       	mov    $0x0,%eax
   174e4:	e8 97 0b ff ff       	callq  8080 <printf@plt>
   174e9:	83 45 f4 01          	addl   $0x1,-0xc(%rbp)
   174ed:	83 7d f4 01          	cmpl   $0x1,-0xc(%rbp)
   174f1:	7e a4                	jle    17497 <main+0x1c2c>
   174f3:	83 45 f0 01          	addl   $0x1,-0x10(%rbp)
   174f7:	83 7d f0 01          	cmpl   $0x1,-0x10(%rbp)
   174fb:	7e 91                	jle    1748e <main+0x1c23>
   174fd:	8b 05 15 76 00 00    	mov    0x7615(%rip),%eax        # 1eb18 <g_3290>
   17503:	48 98                	cltq   
   17505:	8b 55 fc             	mov    -0x4(%rbp),%edx
   17508:	48 8d 35 2a 29 00 00 	lea    0x292a(%rip),%rsi        # 19e39 <g_3221+0x1d21>
   1750f:	48 89 c7             	mov    %rax,%rdi
   17512:	e8 dc 21 ff ff       	callq  96f3 <transparent_crc>
   17517:	0f b6 05 fa 75 00 00 	movzbl 0x75fa(%rip),%eax        # 1eb18 <g_3290>
   1751e:	48 0f be c0          	movsbq %al,%rax
   17522:	8b 55 fc             	mov    -0x4(%rbp),%edx
   17525:	48 8d 35 17 29 00 00 	lea    0x2917(%rip),%rsi        # 19e43 <g_3221+0x1d2b>
   1752c:	48 89 c7             	mov    %rax,%rdi
   1752f:	e8 bf 21 ff ff       	callq  96f3 <transparent_crc>
   17534:	8b 05 de 75 00 00    	mov    0x75de(%rip),%eax        # 1eb18 <g_3290>
   1753a:	48 98                	cltq   
   1753c:	8b 55 fc             	mov    -0x4(%rbp),%edx
   1753f:	48 8d 35 07 29 00 00 	lea    0x2907(%rip),%rsi        # 19e4d <g_3221+0x1d35>
   17546:	48 89 c7             	mov    %rax,%rdi
   17549:	e8 a5 21 ff ff       	callq  96f3 <transparent_crc>
   1754e:	c7 45 f0 00 00 00 00 	movl   $0x0,-0x10(%rbp)
   17555:	e9 a4 00 00 00       	jmpq   175fe <main+0x1d93>
   1755a:	8b 45 f0             	mov    -0x10(%rbp),%eax
   1755d:	48 98                	cltq   
   1755f:	48 8d 14 c5 00 00 00 	lea    0x0(,%rax,8),%rdx
   17566:	00 
   17567:	48 8d 05 b2 75 00 00 	lea    0x75b2(%rip),%rax        # 1eb20 <g_3374>
   1756e:	8b 04 02             	mov    (%rdx,%rax,1),%eax
   17571:	48 98                	cltq   
   17573:	8b 55 fc             	mov    -0x4(%rbp),%edx
   17576:	48 8d 35 da 28 00 00 	lea    0x28da(%rip),%rsi        # 19e57 <g_3221+0x1d3f>
   1757d:	48 89 c7             	mov    %rax,%rdi
   17580:	e8 6e 21 ff ff       	callq  96f3 <transparent_crc>
   17585:	8b 45 f0             	mov    -0x10(%rbp),%eax
   17588:	48 98                	cltq   
   1758a:	48 8d 14 c5 00 00 00 	lea    0x0(,%rax,8),%rdx
   17591:	00 
   17592:	48 8d 05 87 75 00 00 	lea    0x7587(%rip),%rax        # 1eb20 <g_3374>
   17599:	0f b6 04 02          	movzbl (%rdx,%rax,1),%eax
   1759d:	48 0f be c0          	movsbq %al,%rax
   175a1:	8b 55 fc             	mov    -0x4(%rbp),%edx
   175a4:	48 8d 35 b9 28 00 00 	lea    0x28b9(%rip),%rsi        # 19e64 <g_3221+0x1d4c>
   175ab:	48 89 c7             	mov    %rax,%rdi
   175ae:	e8 40 21 ff ff       	callq  96f3 <transparent_crc>
   175b3:	8b 45 f0             	mov    -0x10(%rbp),%eax
   175b6:	48 98                	cltq   
   175b8:	48 8d 14 c5 00 00 00 	lea    0x0(,%rax,8),%rdx
   175bf:	00 
   175c0:	48 8d 05 59 75 00 00 	lea    0x7559(%rip),%rax        # 1eb20 <g_3374>
   175c7:	8b 04 02             	mov    (%rdx,%rax,1),%eax
   175ca:	48 98                	cltq   
   175cc:	8b 55 fc             	mov    -0x4(%rbp),%edx
   175cf:	48 8d 35 9b 28 00 00 	lea    0x289b(%rip),%rsi        # 19e71 <g_3221+0x1d59>
   175d6:	48 89 c7             	mov    %rax,%rdi
   175d9:	e8 15 21 ff ff       	callq  96f3 <transparent_crc>
   175de:	83 7d fc 00          	cmpl   $0x0,-0x4(%rbp)
   175e2:	74 16                	je     175fa <main+0x1d8f>
   175e4:	8b 45 f0             	mov    -0x10(%rbp),%eax
   175e7:	89 c6                	mov    %eax,%esi
   175e9:	48 8d 3d 47 21 00 00 	lea    0x2147(%rip),%rdi        # 19737 <g_3221+0x161f>
   175f0:	b8 00 00 00 00       	mov    $0x0,%eax
   175f5:	e8 86 0a ff ff       	callq  8080 <printf@plt>
   175fa:	83 45 f0 01          	addl   $0x1,-0x10(%rbp)
   175fe:	83 7d f0 07          	cmpl   $0x7,-0x10(%rbp)
   17602:	0f 8e 52 ff ff ff    	jle    1755a <main+0x1cef>
   17608:	8b 05 52 75 00 00    	mov    0x7552(%rip),%eax        # 1eb60 <g_3416>
   1760e:	48 98                	cltq   
   17610:	8b 55 fc             	mov    -0x4(%rbp),%edx
   17613:	48 8d 35 64 28 00 00 	lea    0x2864(%rip),%rsi        # 19e7e <g_3221+0x1d66>
   1761a:	48 89 c7             	mov    %rax,%rdi
   1761d:	e8 d1 20 ff ff       	callq  96f3 <transparent_crc>
   17622:	0f b6 05 37 75 00 00 	movzbl 0x7537(%rip),%eax        # 1eb60 <g_3416>
   17629:	48 0f be c0          	movsbq %al,%rax
   1762d:	8b 55 fc             	mov    -0x4(%rbp),%edx
   17630:	48 8d 35 51 28 00 00 	lea    0x2851(%rip),%rsi        # 19e88 <g_3221+0x1d70>
   17637:	48 89 c7             	mov    %rax,%rdi
   1763a:	e8 b4 20 ff ff       	callq  96f3 <transparent_crc>
   1763f:	8b 05 1b 75 00 00    	mov    0x751b(%rip),%eax        # 1eb60 <g_3416>
   17645:	48 98                	cltq   
   17647:	8b 55 fc             	mov    -0x4(%rbp),%edx
   1764a:	48 8d 35 41 28 00 00 	lea    0x2841(%rip),%rsi        # 19e92 <g_3221+0x1d7a>
   17651:	48 89 c7             	mov    %rax,%rdi
   17654:	e8 9a 20 ff ff       	callq  96f3 <transparent_crc>
   17659:	8b 05 09 75 00 00    	mov    0x7509(%rip),%eax        # 1eb68 <g_3481>
   1765f:	48 98                	cltq   
   17661:	8b 55 fc             	mov    -0x4(%rbp),%edx
   17664:	48 8d 35 31 28 00 00 	lea    0x2831(%rip),%rsi        # 19e9c <g_3221+0x1d84>
   1766b:	48 89 c7             	mov    %rax,%rdi
   1766e:	e8 80 20 ff ff       	callq  96f3 <transparent_crc>
   17673:	0f b6 05 ee 74 00 00 	movzbl 0x74ee(%rip),%eax        # 1eb68 <g_3481>
   1767a:	48 0f be c0          	movsbq %al,%rax
   1767e:	8b 55 fc             	mov    -0x4(%rbp),%edx
   17681:	48 8d 35 1e 28 00 00 	lea    0x281e(%rip),%rsi        # 19ea6 <g_3221+0x1d8e>
   17688:	48 89 c7             	mov    %rax,%rdi
   1768b:	e8 63 20 ff ff       	callq  96f3 <transparent_crc>
   17690:	8b 05 d2 74 00 00    	mov    0x74d2(%rip),%eax        # 1eb68 <g_3481>
   17696:	48 98                	cltq   
   17698:	8b 55 fc             	mov    -0x4(%rbp),%edx
   1769b:	48 8d 35 0e 28 00 00 	lea    0x280e(%rip),%rsi        # 19eb0 <g_3221+0x1d98>
   176a2:	48 89 c7             	mov    %rax,%rdi
   176a5:	e8 49 20 ff ff       	callq  96f3 <transparent_crc>
   176aa:	8b 05 38 a2 00 00    	mov    0xa238(%rip),%eax        # 218e8 <g_3498>
   176b0:	48 98                	cltq   
   176b2:	8b 55 fc             	mov    -0x4(%rbp),%edx
   176b5:	48 8d 35 fe 27 00 00 	lea    0x27fe(%rip),%rsi        # 19eba <g_3221+0x1da2>
   176bc:	48 89 c7             	mov    %rax,%rdi
   176bf:	e8 2f 20 ff ff       	callq  96f3 <transparent_crc>
   176c4:	0f b6 05 1d a2 00 00 	movzbl 0xa21d(%rip),%eax        # 218e8 <g_3498>
   176cb:	48 0f be c0          	movsbq %al,%rax
   176cf:	8b 55 fc             	mov    -0x4(%rbp),%edx
   176d2:	48 8d 35 eb 27 00 00 	lea    0x27eb(%rip),%rsi        # 19ec4 <g_3221+0x1dac>
   176d9:	48 89 c7             	mov    %rax,%rdi
   176dc:	e8 12 20 ff ff       	callq  96f3 <transparent_crc>
   176e1:	8b 05 01 a2 00 00    	mov    0xa201(%rip),%eax        # 218e8 <g_3498>
   176e7:	48 98                	cltq   
   176e9:	8b 55 fc             	mov    -0x4(%rbp),%edx
   176ec:	48 8d 35 db 27 00 00 	lea    0x27db(%rip),%rsi        # 19ece <g_3221+0x1db6>
   176f3:	48 89 c7             	mov    %rax,%rdi
   176f6:	e8 f8 1f ff ff       	callq  96f3 <transparent_crc>
   176fb:	c7 45 f0 00 00 00 00 	movl   $0x0,-0x10(%rbp)
   17702:	e9 a4 00 00 00       	jmpq   177ab <main+0x1f40>
   17707:	8b 45 f0             	mov    -0x10(%rbp),%eax
   1770a:	48 98                	cltq   
   1770c:	48 8d 14 c5 00 00 00 	lea    0x0(,%rax,8),%rdx
   17713:	00 
   17714:	48 8d 05 d5 a1 00 00 	lea    0xa1d5(%rip),%rax        # 218f0 <g_3499>
   1771b:	8b 04 02             	mov    (%rdx,%rax,1),%eax
   1771e:	48 98                	cltq   
   17720:	8b 55 fc             	mov    -0x4(%rbp),%edx
   17723:	48 8d 35 ae 27 00 00 	lea    0x27ae(%rip),%rsi        # 19ed8 <g_3221+0x1dc0>
   1772a:	48 89 c7             	mov    %rax,%rdi
   1772d:	e8 c1 1f ff ff       	callq  96f3 <transparent_crc>
   17732:	8b 45 f0             	mov    -0x10(%rbp),%eax
   17735:	48 98                	cltq   
   17737:	48 8d 14 c5 00 00 00 	lea    0x0(,%rax,8),%rdx
   1773e:	00 
   1773f:	48 8d 05 aa a1 00 00 	lea    0xa1aa(%rip),%rax        # 218f0 <g_3499>
   17746:	0f b6 04 02          	movzbl (%rdx,%rax,1),%eax
   1774a:	48 0f be c0          	movsbq %al,%rax
   1774e:	8b 55 fc             	mov    -0x4(%rbp),%edx
   17751:	48 8d 35 8d 27 00 00 	lea    0x278d(%rip),%rsi        # 19ee5 <g_3221+0x1dcd>
   17758:	48 89 c7             	mov    %rax,%rdi
   1775b:	e8 93 1f ff ff       	callq  96f3 <transparent_crc>
   17760:	8b 45 f0             	mov    -0x10(%rbp),%eax
   17763:	48 98                	cltq   
   17765:	48 8d 14 c5 00 00 00 	lea    0x0(,%rax,8),%rdx
   1776c:	00 
   1776d:	48 8d 05 7c a1 00 00 	lea    0xa17c(%rip),%rax        # 218f0 <g_3499>
   17774:	8b 04 02             	mov    (%rdx,%rax,1),%eax
   17777:	48 98                	cltq   
   17779:	8b 55 fc             	mov    -0x4(%rbp),%edx
   1777c:	48 8d 35 6f 27 00 00 	lea    0x276f(%rip),%rsi        # 19ef2 <g_3221+0x1dda>
   17783:	48 89 c7             	mov    %rax,%rdi
   17786:	e8 68 1f ff ff       	callq  96f3 <transparent_crc>
   1778b:	83 7d fc 00          	cmpl   $0x0,-0x4(%rbp)
   1778f:	74 16                	je     177a7 <main+0x1f3c>
   17791:	8b 45 f0             	mov    -0x10(%rbp),%eax
   17794:	89 c6                	mov    %eax,%esi
   17796:	48 8d 3d 9a 1f 00 00 	lea    0x1f9a(%rip),%rdi        # 19737 <g_3221+0x161f>
   1779d:	b8 00 00 00 00       	mov    $0x0,%eax
   177a2:	e8 d9 08 ff ff       	callq  8080 <printf@plt>
   177a7:	83 45 f0 01          	addl   $0x1,-0x10(%rbp)
   177ab:	83 7d f0 01          	cmpl   $0x1,-0x10(%rbp)
   177af:	0f 8e 52 ff ff ff    	jle    17707 <main+0x1e9c>
   177b5:	8b 05 bd 73 00 00    	mov    0x73bd(%rip),%eax        # 1eb78 <g_3508>
   177bb:	48 98                	cltq   
   177bd:	8b 55 fc             	mov    -0x4(%rbp),%edx
   177c0:	48 8d 35 38 27 00 00 	lea    0x2738(%rip),%rsi        # 19eff <g_3221+0x1de7>
   177c7:	48 89 c7             	mov    %rax,%rdi
   177ca:	e8 24 1f ff ff       	callq  96f3 <transparent_crc>
   177cf:	0f b6 05 a2 73 00 00 	movzbl 0x73a2(%rip),%eax        # 1eb78 <g_3508>
   177d6:	48 0f be c0          	movsbq %al,%rax
   177da:	8b 55 fc             	mov    -0x4(%rbp),%edx
   177dd:	48 8d 35 25 27 00 00 	lea    0x2725(%rip),%rsi        # 19f09 <g_3221+0x1df1>
   177e4:	48 89 c7             	mov    %rax,%rdi
   177e7:	e8 07 1f ff ff       	callq  96f3 <transparent_crc>
   177ec:	8b 05 86 73 00 00    	mov    0x7386(%rip),%eax        # 1eb78 <g_3508>
   177f2:	48 98                	cltq   
   177f4:	8b 55 fc             	mov    -0x4(%rbp),%edx
   177f7:	48 8d 35 15 27 00 00 	lea    0x2715(%rip),%rsi        # 19f13 <g_3221+0x1dfb>
   177fe:	48 89 c7             	mov    %rax,%rdi
   17801:	e8 ed 1e ff ff       	callq  96f3 <transparent_crc>
   17806:	8b 05 14 58 00 00    	mov    0x5814(%rip),%eax        # 1d020 <crc32_context>
   1780c:	f7 d0                	not    %eax
   1780e:	89 c2                	mov    %eax,%edx
   17810:	8b 45 fc             	mov    -0x4(%rbp),%eax
   17813:	89 c6                	mov    %eax,%esi
   17815:	89 d7                	mov    %edx,%edi
   17817:	e8 78 09 ff ff       	callq  8194 <platform_main_end>
   1781c:	b8 00 00 00 00       	mov    $0x0,%eax
   17821:	c9                   	leaveq 
   17822:	c3                   	retq   
   17823:	66 2e 0f 1f 84 00 00 	nopw   %cs:0x0(%rax,%rax,1)
   1782a:	00 00 00 
   1782d:	0f 1f 00             	nopl   (%rax)

0000000000017830 <__libc_csu_init>:
   17830:	f3 0f 1e fa          	endbr64 
   17834:	41 57                	push   %r15
   17836:	4c 8d 3d 43 55 00 00 	lea    0x5543(%rip),%r15        # 1cd80 <__frame_dummy_init_array_entry>
   1783d:	41 56                	push   %r14
   1783f:	49 89 d6             	mov    %rdx,%r14
   17842:	41 55                	push   %r13
   17844:	49 89 f5             	mov    %rsi,%r13
   17847:	41 54                	push   %r12
   17849:	41 89 fc             	mov    %edi,%r12d
   1784c:	55                   	push   %rbp
   1784d:	48 8d 2d 34 55 00 00 	lea    0x5534(%rip),%rbp        # 1cd88 <__do_global_dtors_aux_fini_array_entry>
   17854:	53                   	push   %rbx
   17855:	4c 29 fd             	sub    %r15,%rbp
   17858:	48 83 ec 08          	sub    $0x8,%rsp
   1785c:	e8 9f 07 ff ff       	callq  8000 <_init>
   17861:	48 c1 fd 03          	sar    $0x3,%rbp
   17865:	74 1f                	je     17886 <__libc_csu_init+0x56>
   17867:	31 db                	xor    %ebx,%ebx
   17869:	0f 1f 80 00 00 00 00 	nopl   0x0(%rax)
   17870:	4c 89 f2             	mov    %r14,%rdx
   17873:	4c 89 ee             	mov    %r13,%rsi
   17876:	44 89 e7             	mov    %r12d,%edi
   17879:	41 ff 14 df          	callq  *(%r15,%rbx,8)
   1787d:	48 83 c3 01          	add    $0x1,%rbx
   17881:	48 39 dd             	cmp    %rbx,%rbp
   17884:	75 ea                	jne    17870 <__libc_csu_init+0x40>
   17886:	48 83 c4 08          	add    $0x8,%rsp
   1788a:	5b                   	pop    %rbx
   1788b:	5d                   	pop    %rbp
   1788c:	41 5c                	pop    %r12
   1788e:	41 5d                	pop    %r13
   17890:	41 5e                	pop    %r14
   17892:	41 5f                	pop    %r15
   17894:	c3                   	retq   
   17895:	66 66 2e 0f 1f 84 00 	data16 nopw %cs:0x0(%rax,%rax,1)
   1789c:	00 00 00 00 

00000000000178a0 <__libc_csu_fini>:
   178a0:	f3 0f 1e fa          	endbr64 
   178a4:	c3                   	retq   
