


Disassembly of section .text:

00000000000080a0 <_start>:
    80a0:	f3 0f 1e fa          	endbr64 
    80a4:	31 ed                	xor    %ebp,%ebp
    80a6:	49 89 d1             	mov    %rdx,%r9
    80a9:	5e                   	pop    %rsi
    80aa:	48 89 e2             	mov    %rsp,%rdx
    80ad:	48 83 e4 f0          	and    $0xfffffffffffffff0,%rsp
    80b1:	50                   	push   %rax
    80b2:	54                   	push   %rsp
    80b3:	4c 8d 05 a6 c3 00 00 	lea    0xc3a6(%rip),%r8        # 14460 <__libc_csu_fini>
    80ba:	48 8d 0d 2f c3 00 00 	lea    0xc32f(%rip),%rcx        # 143f0 <__libc_csu_init>
    80c1:	48 8d 3d 3c a8 00 00 	lea    0xa83c(%rip),%rdi        # 12904 <main>
    80c8:	ff 15 0a 0f 01 00    	callq  *0x10f0a(%rip)        # 18fd8 <__libc_start_main@GLIBC_2.2.5>
    80ce:	f4                   	hlt    
    80cf:	90                   	nop

00000000000080d0 <deregister_tm_clones>:
    80d0:	48 8d 3d 11 4b 01 00 	lea    0x14b11(%rip),%rdi        # 1cbe8 <__TMC_END__>
    80d7:	48 8d 05 0a 4b 01 00 	lea    0x14b0a(%rip),%rax        # 1cbe8 <__TMC_END__>
    80de:	48 39 f8             	cmp    %rdi,%rax
    80e1:	74 15                	je     80f8 <deregister_tm_clones+0x28>
    80e3:	48 8b 05 e6 0e 01 00 	mov    0x10ee6(%rip),%rax        # 18fd0 <_ITM_deregisterTMCloneTable>
    80ea:	48 85 c0             	test   %rax,%rax
    80ed:	74 09                	je     80f8 <deregister_tm_clones+0x28>
    80ef:	ff e0                	jmpq   *%rax
    80f1:	0f 1f 80 00 00 00 00 	nopl   0x0(%rax)
    80f8:	c3                   	retq   
    80f9:	0f 1f 80 00 00 00 00 	nopl   0x0(%rax)

0000000000008100 <register_tm_clones>:
    8100:	48 8d 3d e1 4a 01 00 	lea    0x14ae1(%rip),%rdi        # 1cbe8 <__TMC_END__>
    8107:	48 8d 35 da 4a 01 00 	lea    0x14ada(%rip),%rsi        # 1cbe8 <__TMC_END__>
    810e:	48 29 fe             	sub    %rdi,%rsi
    8111:	48 89 f0             	mov    %rsi,%rax
    8114:	48 c1 ee 3f          	shr    $0x3f,%rsi
    8118:	48 c1 f8 03          	sar    $0x3,%rax
    811c:	48 01 c6             	add    %rax,%rsi
    811f:	48 d1 fe             	sar    %rsi
    8122:	74 14                	je     8138 <register_tm_clones+0x38>
    8124:	48 8b 05 bd 0e 01 00 	mov    0x10ebd(%rip),%rax        # 18fe8 <_ITM_registerTMCloneTable>
    812b:	48 85 c0             	test   %rax,%rax
    812e:	74 08                	je     8138 <register_tm_clones+0x38>
    8130:	ff e0                	jmpq   *%rax
    8132:	66 0f 1f 44 00 00    	nopw   0x0(%rax,%rax,1)
    8138:	c3                   	retq   
    8139:	0f 1f 80 00 00 00 00 	nopl   0x0(%rax)

0000000000008140 <__do_global_dtors_aux>:
    8140:	f3 0f 1e fa          	endbr64 
    8144:	80 3d b5 4a 01 00 00 	cmpb   $0x0,0x14ab5(%rip)        # 1cc00 <completed.8061>
    814b:	75 2b                	jne    8178 <__do_global_dtors_aux+0x38>
    814d:	55                   	push   %rbp
    814e:	48 83 3d 9a 0e 01 00 	cmpq   $0x0,0x10e9a(%rip)        # 18ff0 <__cxa_finalize@GLIBC_2.2.5>
    8155:	00 
    8156:	48 89 e5             	mov    %rsp,%rbp
    8159:	74 0c                	je     8167 <__do_global_dtors_aux+0x27>
    815b:	48 8b 3d a6 0e 01 00 	mov    0x10ea6(%rip),%rdi        # 19008 <__dso_handle>
    8162:	e8 f9 fe ff ff       	callq  8060 <__cxa_finalize@plt>
    8167:	e8 64 ff ff ff       	callq  80d0 <deregister_tm_clones>
    816c:	c6 05 8d 4a 01 00 01 	movb   $0x1,0x14a8d(%rip)        # 1cc00 <completed.8061>
    8173:	5d                   	pop    %rbp
    8174:	c3                   	retq   
    8175:	0f 1f 00             	nopl   (%rax)
    8178:	c3                   	retq   
    8179:	0f 1f 80 00 00 00 00 	nopl   0x0(%rax)

0000000000008180 <frame_dummy>:
    8180:	f3 0f 1e fa          	endbr64 
    8184:	e9 77 ff ff ff       	jmpq   8100 <register_tm_clones>

0000000000008189 <platform_main_begin>:
    8189:	f3 0f 1e fa          	endbr64 
    818d:	55                   	push   %rbp
    818e:	48 89 e5             	mov    %rsp,%rbp
    8191:	90                   	nop
    8192:	5d                   	pop    %rbp
    8193:	c3                   	retq   

0000000000008194 <platform_main_end>:
    8194:	f3 0f 1e fa          	endbr64 
    8198:	55                   	push   %rbp
    8199:	48 89 e5             	mov    %rsp,%rbp
    819c:	48 83 ec 10          	sub    $0x10,%rsp
    81a0:	89 7d fc             	mov    %edi,-0x4(%rbp)
    81a3:	89 75 f8             	mov    %esi,-0x8(%rbp)
    81a6:	8b 45 fc             	mov    -0x4(%rbp),%eax
    81a9:	89 c6                	mov    %eax,%esi
    81ab:	48 8d 3d 6e ce 00 00 	lea    0xce6e(%rip),%rdi        # 15020 <_IO_stdin_used+0x20>
    81b2:	b8 00 00 00 00       	mov    $0x0,%eax
    81b7:	e8 c4 fe ff ff       	callq  8080 <printf@plt>
    81bc:	90                   	nop
    81bd:	c9                   	leaveq 
    81be:	c3                   	retq   

00000000000081bf <safe_unary_minus_func_int8_t_s>:
    81bf:	f3 0f 1e fa          	endbr64 
    81c3:	55                   	push   %rbp
    81c4:	48 89 e5             	mov    %rsp,%rbp
    81c7:	89 f8                	mov    %edi,%eax
    81c9:	88 45 fc             	mov    %al,-0x4(%rbp)
    81cc:	0f b6 45 fc          	movzbl -0x4(%rbp),%eax
    81d0:	f7 d8                	neg    %eax
    81d2:	5d                   	pop    %rbp
    81d3:	c3                   	retq   

00000000000081d4 <safe_add_func_int8_t_s_s>:
    81d4:	f3 0f 1e fa          	endbr64 
    81d8:	55                   	push   %rbp
    81d9:	48 89 e5             	mov    %rsp,%rbp
    81dc:	89 fa                	mov    %edi,%edx
    81de:	89 f0                	mov    %esi,%eax
    81e0:	88 55 fc             	mov    %dl,-0x4(%rbp)
    81e3:	88 45 f8             	mov    %al,-0x8(%rbp)
    81e6:	0f b6 55 fc          	movzbl -0x4(%rbp),%edx
    81ea:	0f b6 45 f8          	movzbl -0x8(%rbp),%eax
    81ee:	01 d0                	add    %edx,%eax
    81f0:	5d                   	pop    %rbp
    81f1:	c3                   	retq   

00000000000081f2 <safe_sub_func_int8_t_s_s>:
    81f2:	f3 0f 1e fa          	endbr64 
    81f6:	55                   	push   %rbp
    81f7:	48 89 e5             	mov    %rsp,%rbp
    81fa:	89 fa                	mov    %edi,%edx
    81fc:	89 f0                	mov    %esi,%eax
    81fe:	88 55 fc             	mov    %dl,-0x4(%rbp)
    8201:	88 45 f8             	mov    %al,-0x8(%rbp)
    8204:	0f b6 55 fc          	movzbl -0x4(%rbp),%edx
    8208:	0f b6 45 f8          	movzbl -0x8(%rbp),%eax
    820c:	29 c2                	sub    %eax,%edx
    820e:	89 d0                	mov    %edx,%eax
    8210:	5d                   	pop    %rbp
    8211:	c3                   	retq   

0000000000008212 <safe_mul_func_int8_t_s_s>:
    8212:	f3 0f 1e fa          	endbr64 
    8216:	55                   	push   %rbp
    8217:	48 89 e5             	mov    %rsp,%rbp
    821a:	89 fa                	mov    %edi,%edx
    821c:	89 f0                	mov    %esi,%eax
    821e:	88 55 fc             	mov    %dl,-0x4(%rbp)
    8221:	88 45 f8             	mov    %al,-0x8(%rbp)
    8224:	0f b6 45 fc          	movzbl -0x4(%rbp),%eax
    8228:	0f b6 55 f8          	movzbl -0x8(%rbp),%edx
    822c:	0f af c2             	imul   %edx,%eax
    822f:	5d                   	pop    %rbp
    8230:	c3                   	retq   

0000000000008231 <safe_mod_func_int8_t_s_s>:
    8231:	f3 0f 1e fa          	endbr64 
    8235:	55                   	push   %rbp
    8236:	48 89 e5             	mov    %rsp,%rbp
    8239:	89 fa                	mov    %edi,%edx
    823b:	89 f0                	mov    %esi,%eax
    823d:	88 55 fc             	mov    %dl,-0x4(%rbp)
    8240:	88 45 f8             	mov    %al,-0x8(%rbp)
    8243:	80 7d f8 00          	cmpb   $0x0,-0x8(%rbp)
    8247:	74 1b                	je     8264 <safe_mod_func_int8_t_s_s+0x33>
    8249:	80 7d fc 80          	cmpb   $0x80,-0x4(%rbp)
    824d:	75 06                	jne    8255 <safe_mod_func_int8_t_s_s+0x24>
    824f:	80 7d f8 ff          	cmpb   $0xff,-0x8(%rbp)
    8253:	74 0f                	je     8264 <safe_mod_func_int8_t_s_s+0x33>
    8255:	0f be 45 fc          	movsbl -0x4(%rbp),%eax
    8259:	0f be 4d f8          	movsbl -0x8(%rbp),%ecx
    825d:	99                   	cltd   
    825e:	f7 f9                	idiv   %ecx
    8260:	89 d0                	mov    %edx,%eax
    8262:	eb 04                	jmp    8268 <safe_mod_func_int8_t_s_s+0x37>
    8264:	0f b6 45 fc          	movzbl -0x4(%rbp),%eax
    8268:	5d                   	pop    %rbp
    8269:	c3                   	retq   

000000000000826a <safe_div_func_int8_t_s_s>:
    826a:	f3 0f 1e fa          	endbr64 
    826e:	55                   	push   %rbp
    826f:	48 89 e5             	mov    %rsp,%rbp
    8272:	89 fa                	mov    %edi,%edx
    8274:	89 f0                	mov    %esi,%eax
    8276:	88 55 fc             	mov    %dl,-0x4(%rbp)
    8279:	88 45 f8             	mov    %al,-0x8(%rbp)
    827c:	80 7d f8 00          	cmpb   $0x0,-0x8(%rbp)
    8280:	74 19                	je     829b <safe_div_func_int8_t_s_s+0x31>
    8282:	80 7d fc 80          	cmpb   $0x80,-0x4(%rbp)
    8286:	75 06                	jne    828e <safe_div_func_int8_t_s_s+0x24>
    8288:	80 7d f8 ff          	cmpb   $0xff,-0x8(%rbp)
    828c:	74 0d                	je     829b <safe_div_func_int8_t_s_s+0x31>
    828e:	0f be 45 fc          	movsbl -0x4(%rbp),%eax
    8292:	0f be 4d f8          	movsbl -0x8(%rbp),%ecx
    8296:	99                   	cltd   
    8297:	f7 f9                	idiv   %ecx
    8299:	eb 04                	jmp    829f <safe_div_func_int8_t_s_s+0x35>
    829b:	0f b6 45 fc          	movzbl -0x4(%rbp),%eax
    829f:	5d                   	pop    %rbp
    82a0:	c3                   	retq   

00000000000082a1 <safe_lshift_func_int8_t_s_s>:
    82a1:	f3 0f 1e fa          	endbr64 
    82a5:	55                   	push   %rbp
    82a6:	48 89 e5             	mov    %rsp,%rbp
    82a9:	89 f8                	mov    %edi,%eax
    82ab:	89 75 f8             	mov    %esi,-0x8(%rbp)
    82ae:	88 45 fc             	mov    %al,-0x4(%rbp)
    82b1:	80 7d fc 00          	cmpb   $0x0,-0x4(%rbp)
    82b5:	78 31                	js     82e8 <safe_lshift_func_int8_t_s_s+0x47>
    82b7:	83 7d f8 00          	cmpl   $0x0,-0x8(%rbp)
    82bb:	78 2b                	js     82e8 <safe_lshift_func_int8_t_s_s+0x47>
    82bd:	83 7d f8 1f          	cmpl   $0x1f,-0x8(%rbp)
    82c1:	7f 25                	jg     82e8 <safe_lshift_func_int8_t_s_s+0x47>
    82c3:	0f be 55 fc          	movsbl -0x4(%rbp),%edx
    82c7:	8b 45 f8             	mov    -0x8(%rbp),%eax
    82ca:	be 7f 00 00 00       	mov    $0x7f,%esi
    82cf:	89 c1                	mov    %eax,%ecx
    82d1:	d3 fe                	sar    %cl,%esi
    82d3:	89 f0                	mov    %esi,%eax
    82d5:	39 c2                	cmp    %eax,%edx
    82d7:	7f 0f                	jg     82e8 <safe_lshift_func_int8_t_s_s+0x47>
    82d9:	0f be 55 fc          	movsbl -0x4(%rbp),%edx
    82dd:	8b 45 f8             	mov    -0x8(%rbp),%eax
    82e0:	89 c1                	mov    %eax,%ecx
    82e2:	d3 e2                	shl    %cl,%edx
    82e4:	89 d0                	mov    %edx,%eax
    82e6:	eb 04                	jmp    82ec <safe_lshift_func_int8_t_s_s+0x4b>
    82e8:	0f b6 45 fc          	movzbl -0x4(%rbp),%eax
    82ec:	5d                   	pop    %rbp
    82ed:	c3                   	retq   

00000000000082ee <safe_lshift_func_int8_t_s_u>:
    82ee:	f3 0f 1e fa          	endbr64 
    82f2:	55                   	push   %rbp
    82f3:	48 89 e5             	mov    %rsp,%rbp
    82f6:	89 f8                	mov    %edi,%eax
    82f8:	89 75 f8             	mov    %esi,-0x8(%rbp)
    82fb:	88 45 fc             	mov    %al,-0x4(%rbp)
    82fe:	80 7d fc 00          	cmpb   $0x0,-0x4(%rbp)
    8302:	78 2b                	js     832f <safe_lshift_func_int8_t_s_u+0x41>
    8304:	83 7d f8 1f          	cmpl   $0x1f,-0x8(%rbp)
    8308:	77 25                	ja     832f <safe_lshift_func_int8_t_s_u+0x41>
    830a:	0f be 55 fc          	movsbl -0x4(%rbp),%edx
    830e:	8b 45 f8             	mov    -0x8(%rbp),%eax
    8311:	be 7f 00 00 00       	mov    $0x7f,%esi
    8316:	89 c1                	mov    %eax,%ecx
    8318:	d3 fe                	sar    %cl,%esi
    831a:	89 f0                	mov    %esi,%eax
    831c:	39 c2                	cmp    %eax,%edx
    831e:	7f 0f                	jg     832f <safe_lshift_func_int8_t_s_u+0x41>
    8320:	0f be 55 fc          	movsbl -0x4(%rbp),%edx
    8324:	8b 45 f8             	mov    -0x8(%rbp),%eax
    8327:	89 c1                	mov    %eax,%ecx
    8329:	d3 e2                	shl    %cl,%edx
    832b:	89 d0                	mov    %edx,%eax
    832d:	eb 04                	jmp    8333 <safe_lshift_func_int8_t_s_u+0x45>
    832f:	0f b6 45 fc          	movzbl -0x4(%rbp),%eax
    8333:	5d                   	pop    %rbp
    8334:	c3                   	retq   

0000000000008335 <safe_rshift_func_int8_t_s_s>:
    8335:	f3 0f 1e fa          	endbr64 
    8339:	55                   	push   %rbp
    833a:	48 89 e5             	mov    %rsp,%rbp
    833d:	89 f8                	mov    %edi,%eax
    833f:	89 75 f8             	mov    %esi,-0x8(%rbp)
    8342:	88 45 fc             	mov    %al,-0x4(%rbp)
    8345:	80 7d fc 00          	cmpb   $0x0,-0x4(%rbp)
    8349:	78 1b                	js     8366 <safe_rshift_func_int8_t_s_s+0x31>
    834b:	83 7d f8 00          	cmpl   $0x0,-0x8(%rbp)
    834f:	78 15                	js     8366 <safe_rshift_func_int8_t_s_s+0x31>
    8351:	83 7d f8 1f          	cmpl   $0x1f,-0x8(%rbp)
    8355:	7f 0f                	jg     8366 <safe_rshift_func_int8_t_s_s+0x31>
    8357:	0f be 55 fc          	movsbl -0x4(%rbp),%edx
    835b:	8b 45 f8             	mov    -0x8(%rbp),%eax
    835e:	89 c1                	mov    %eax,%ecx
    8360:	d3 fa                	sar    %cl,%edx
    8362:	89 d0                	mov    %edx,%eax
    8364:	eb 04                	jmp    836a <safe_rshift_func_int8_t_s_s+0x35>
    8366:	0f b6 45 fc          	movzbl -0x4(%rbp),%eax
    836a:	5d                   	pop    %rbp
    836b:	c3                   	retq   

000000000000836c <safe_rshift_func_int8_t_s_u>:
    836c:	f3 0f 1e fa          	endbr64 
    8370:	55                   	push   %rbp
    8371:	48 89 e5             	mov    %rsp,%rbp
    8374:	89 f8                	mov    %edi,%eax
    8376:	89 75 f8             	mov    %esi,-0x8(%rbp)
    8379:	88 45 fc             	mov    %al,-0x4(%rbp)
    837c:	80 7d fc 00          	cmpb   $0x0,-0x4(%rbp)
    8380:	78 15                	js     8397 <safe_rshift_func_int8_t_s_u+0x2b>
    8382:	83 7d f8 1f          	cmpl   $0x1f,-0x8(%rbp)
    8386:	77 0f                	ja     8397 <safe_rshift_func_int8_t_s_u+0x2b>
    8388:	0f be 55 fc          	movsbl -0x4(%rbp),%edx
    838c:	8b 45 f8             	mov    -0x8(%rbp),%eax
    838f:	89 c1                	mov    %eax,%ecx
    8391:	d3 fa                	sar    %cl,%edx
    8393:	89 d0                	mov    %edx,%eax
    8395:	eb 04                	jmp    839b <safe_rshift_func_int8_t_s_u+0x2f>
    8397:	0f b6 45 fc          	movzbl -0x4(%rbp),%eax
    839b:	5d                   	pop    %rbp
    839c:	c3                   	retq   

000000000000839d <safe_unary_minus_func_int16_t_s>:
    839d:	f3 0f 1e fa          	endbr64 
    83a1:	55                   	push   %rbp
    83a2:	48 89 e5             	mov    %rsp,%rbp
    83a5:	89 f8                	mov    %edi,%eax
    83a7:	66 89 45 fc          	mov    %ax,-0x4(%rbp)
    83ab:	0f b7 45 fc          	movzwl -0x4(%rbp),%eax
    83af:	f7 d8                	neg    %eax
    83b1:	5d                   	pop    %rbp
    83b2:	c3                   	retq   

00000000000083b3 <safe_add_func_int16_t_s_s>:
    83b3:	f3 0f 1e fa          	endbr64 
    83b7:	55                   	push   %rbp
    83b8:	48 89 e5             	mov    %rsp,%rbp
    83bb:	89 fa                	mov    %edi,%edx
    83bd:	89 f0                	mov    %esi,%eax
    83bf:	66 89 55 fc          	mov    %dx,-0x4(%rbp)
    83c3:	66 89 45 f8          	mov    %ax,-0x8(%rbp)
    83c7:	0f b7 55 fc          	movzwl -0x4(%rbp),%edx
    83cb:	0f b7 45 f8          	movzwl -0x8(%rbp),%eax
    83cf:	01 d0                	add    %edx,%eax
    83d1:	5d                   	pop    %rbp
    83d2:	c3                   	retq   

00000000000083d3 <safe_sub_func_int16_t_s_s>:
    83d3:	f3 0f 1e fa          	endbr64 
    83d7:	55                   	push   %rbp
    83d8:	48 89 e5             	mov    %rsp,%rbp
    83db:	89 fa                	mov    %edi,%edx
    83dd:	89 f0                	mov    %esi,%eax
    83df:	66 89 55 fc          	mov    %dx,-0x4(%rbp)
    83e3:	66 89 45 f8          	mov    %ax,-0x8(%rbp)
    83e7:	0f b7 55 fc          	movzwl -0x4(%rbp),%edx
    83eb:	0f b7 45 f8          	movzwl -0x8(%rbp),%eax
    83ef:	29 c2                	sub    %eax,%edx
    83f1:	89 d0                	mov    %edx,%eax
    83f3:	5d                   	pop    %rbp
    83f4:	c3                   	retq   

00000000000083f5 <safe_mul_func_int16_t_s_s>:
    83f5:	f3 0f 1e fa          	endbr64 
    83f9:	55                   	push   %rbp
    83fa:	48 89 e5             	mov    %rsp,%rbp
    83fd:	89 fa                	mov    %edi,%edx
    83ff:	89 f0                	mov    %esi,%eax
    8401:	66 89 55 fc          	mov    %dx,-0x4(%rbp)
    8405:	66 89 45 f8          	mov    %ax,-0x8(%rbp)
    8409:	0f b7 55 fc          	movzwl -0x4(%rbp),%edx
    840d:	0f b7 45 f8          	movzwl -0x8(%rbp),%eax
    8411:	0f af c2             	imul   %edx,%eax
    8414:	5d                   	pop    %rbp
    8415:	c3                   	retq   

0000000000008416 <safe_mod_func_int16_t_s_s>:
    8416:	f3 0f 1e fa          	endbr64 
    841a:	55                   	push   %rbp
    841b:	48 89 e5             	mov    %rsp,%rbp
    841e:	89 fa                	mov    %edi,%edx
    8420:	89 f0                	mov    %esi,%eax
    8422:	66 89 55 fc          	mov    %dx,-0x4(%rbp)
    8426:	66 89 45 f8          	mov    %ax,-0x8(%rbp)
    842a:	66 83 7d f8 00       	cmpw   $0x0,-0x8(%rbp)
    842f:	74 1e                	je     844f <safe_mod_func_int16_t_s_s+0x39>
    8431:	66 81 7d fc 00 80    	cmpw   $0x8000,-0x4(%rbp)
    8437:	75 07                	jne    8440 <safe_mod_func_int16_t_s_s+0x2a>
    8439:	66 83 7d f8 ff       	cmpw   $0xffff,-0x8(%rbp)
    843e:	74 0f                	je     844f <safe_mod_func_int16_t_s_s+0x39>
    8440:	0f bf 45 fc          	movswl -0x4(%rbp),%eax
    8444:	0f bf 4d f8          	movswl -0x8(%rbp),%ecx
    8448:	99                   	cltd   
    8449:	f7 f9                	idiv   %ecx
    844b:	89 d0                	mov    %edx,%eax
    844d:	eb 04                	jmp    8453 <safe_mod_func_int16_t_s_s+0x3d>
    844f:	0f b7 45 fc          	movzwl -0x4(%rbp),%eax
    8453:	5d                   	pop    %rbp
    8454:	c3                   	retq   

0000000000008455 <safe_div_func_int16_t_s_s>:
    8455:	f3 0f 1e fa          	endbr64 
    8459:	55                   	push   %rbp
    845a:	48 89 e5             	mov    %rsp,%rbp
    845d:	89 fa                	mov    %edi,%edx
    845f:	89 f0                	mov    %esi,%eax
    8461:	66 89 55 fc          	mov    %dx,-0x4(%rbp)
    8465:	66 89 45 f8          	mov    %ax,-0x8(%rbp)
    8469:	66 83 7d f8 00       	cmpw   $0x0,-0x8(%rbp)
    846e:	74 1c                	je     848c <safe_div_func_int16_t_s_s+0x37>
    8470:	66 81 7d fc 00 80    	cmpw   $0x8000,-0x4(%rbp)
    8476:	75 07                	jne    847f <safe_div_func_int16_t_s_s+0x2a>
    8478:	66 83 7d f8 ff       	cmpw   $0xffff,-0x8(%rbp)
    847d:	74 0d                	je     848c <safe_div_func_int16_t_s_s+0x37>
    847f:	0f bf 45 fc          	movswl -0x4(%rbp),%eax
    8483:	0f bf 4d f8          	movswl -0x8(%rbp),%ecx
    8487:	99                   	cltd   
    8488:	f7 f9                	idiv   %ecx
    848a:	eb 04                	jmp    8490 <safe_div_func_int16_t_s_s+0x3b>
    848c:	0f b7 45 fc          	movzwl -0x4(%rbp),%eax
    8490:	5d                   	pop    %rbp
    8491:	c3                   	retq   

0000000000008492 <safe_lshift_func_int16_t_s_s>:
    8492:	f3 0f 1e fa          	endbr64 
    8496:	55                   	push   %rbp
    8497:	48 89 e5             	mov    %rsp,%rbp
    849a:	89 f8                	mov    %edi,%eax
    849c:	89 75 f8             	mov    %esi,-0x8(%rbp)
    849f:	66 89 45 fc          	mov    %ax,-0x4(%rbp)
    84a3:	66 83 7d fc 00       	cmpw   $0x0,-0x4(%rbp)
    84a8:	78 31                	js     84db <safe_lshift_func_int16_t_s_s+0x49>
    84aa:	83 7d f8 00          	cmpl   $0x0,-0x8(%rbp)
    84ae:	78 2b                	js     84db <safe_lshift_func_int16_t_s_s+0x49>
    84b0:	83 7d f8 1f          	cmpl   $0x1f,-0x8(%rbp)
    84b4:	7f 25                	jg     84db <safe_lshift_func_int16_t_s_s+0x49>
    84b6:	0f bf 55 fc          	movswl -0x4(%rbp),%edx
    84ba:	8b 45 f8             	mov    -0x8(%rbp),%eax
    84bd:	be ff 7f 00 00       	mov    $0x7fff,%esi
    84c2:	89 c1                	mov    %eax,%ecx
    84c4:	d3 fe                	sar    %cl,%esi
    84c6:	89 f0                	mov    %esi,%eax
    84c8:	39 c2                	cmp    %eax,%edx
    84ca:	7f 0f                	jg     84db <safe_lshift_func_int16_t_s_s+0x49>
    84cc:	0f bf 55 fc          	movswl -0x4(%rbp),%edx
    84d0:	8b 45 f8             	mov    -0x8(%rbp),%eax
    84d3:	89 c1                	mov    %eax,%ecx
    84d5:	d3 e2                	shl    %cl,%edx
    84d7:	89 d0                	mov    %edx,%eax
    84d9:	eb 04                	jmp    84df <safe_lshift_func_int16_t_s_s+0x4d>
    84db:	0f b7 45 fc          	movzwl -0x4(%rbp),%eax
    84df:	5d                   	pop    %rbp
    84e0:	c3                   	retq   

00000000000084e1 <safe_lshift_func_int16_t_s_u>:
    84e1:	f3 0f 1e fa          	endbr64 
    84e5:	55                   	push   %rbp
    84e6:	48 89 e5             	mov    %rsp,%rbp
    84e9:	89 f8                	mov    %edi,%eax
    84eb:	89 75 f8             	mov    %esi,-0x8(%rbp)
    84ee:	66 89 45 fc          	mov    %ax,-0x4(%rbp)
    84f2:	66 83 7d fc 00       	cmpw   $0x0,-0x4(%rbp)
    84f7:	78 2b                	js     8524 <safe_lshift_func_int16_t_s_u+0x43>
    84f9:	83 7d f8 1f          	cmpl   $0x1f,-0x8(%rbp)
    84fd:	77 25                	ja     8524 <safe_lshift_func_int16_t_s_u+0x43>
    84ff:	0f bf 55 fc          	movswl -0x4(%rbp),%edx
    8503:	8b 45 f8             	mov    -0x8(%rbp),%eax
    8506:	be ff 7f 00 00       	mov    $0x7fff,%esi
    850b:	89 c1                	mov    %eax,%ecx
    850d:	d3 fe                	sar    %cl,%esi
    850f:	89 f0                	mov    %esi,%eax
    8511:	39 c2                	cmp    %eax,%edx
    8513:	7f 0f                	jg     8524 <safe_lshift_func_int16_t_s_u+0x43>
    8515:	0f bf 55 fc          	movswl -0x4(%rbp),%edx
    8519:	8b 45 f8             	mov    -0x8(%rbp),%eax
    851c:	89 c1                	mov    %eax,%ecx
    851e:	d3 e2                	shl    %cl,%edx
    8520:	89 d0                	mov    %edx,%eax
    8522:	eb 04                	jmp    8528 <safe_lshift_func_int16_t_s_u+0x47>
    8524:	0f b7 45 fc          	movzwl -0x4(%rbp),%eax
    8528:	5d                   	pop    %rbp
    8529:	c3                   	retq   

000000000000852a <safe_rshift_func_int16_t_s_s>:
    852a:	f3 0f 1e fa          	endbr64 
    852e:	55                   	push   %rbp
    852f:	48 89 e5             	mov    %rsp,%rbp
    8532:	89 f8                	mov    %edi,%eax
    8534:	89 75 f8             	mov    %esi,-0x8(%rbp)
    8537:	66 89 45 fc          	mov    %ax,-0x4(%rbp)
    853b:	66 83 7d fc 00       	cmpw   $0x0,-0x4(%rbp)
    8540:	78 1b                	js     855d <safe_rshift_func_int16_t_s_s+0x33>
    8542:	83 7d f8 00          	cmpl   $0x0,-0x8(%rbp)
    8546:	78 15                	js     855d <safe_rshift_func_int16_t_s_s+0x33>
    8548:	83 7d f8 1f          	cmpl   $0x1f,-0x8(%rbp)
    854c:	7f 0f                	jg     855d <safe_rshift_func_int16_t_s_s+0x33>
    854e:	0f bf 55 fc          	movswl -0x4(%rbp),%edx
    8552:	8b 45 f8             	mov    -0x8(%rbp),%eax
    8555:	89 c1                	mov    %eax,%ecx
    8557:	d3 fa                	sar    %cl,%edx
    8559:	89 d0                	mov    %edx,%eax
    855b:	eb 04                	jmp    8561 <safe_rshift_func_int16_t_s_s+0x37>
    855d:	0f b7 45 fc          	movzwl -0x4(%rbp),%eax
    8561:	5d                   	pop    %rbp
    8562:	c3                   	retq   

0000000000008563 <safe_rshift_func_int16_t_s_u>:
    8563:	f3 0f 1e fa          	endbr64 
    8567:	55                   	push   %rbp
    8568:	48 89 e5             	mov    %rsp,%rbp
    856b:	89 f8                	mov    %edi,%eax
    856d:	89 75 f8             	mov    %esi,-0x8(%rbp)
    8570:	66 89 45 fc          	mov    %ax,-0x4(%rbp)
    8574:	66 83 7d fc 00       	cmpw   $0x0,-0x4(%rbp)
    8579:	78 15                	js     8590 <safe_rshift_func_int16_t_s_u+0x2d>
    857b:	83 7d f8 1f          	cmpl   $0x1f,-0x8(%rbp)
    857f:	77 0f                	ja     8590 <safe_rshift_func_int16_t_s_u+0x2d>
    8581:	0f bf 55 fc          	movswl -0x4(%rbp),%edx
    8585:	8b 45 f8             	mov    -0x8(%rbp),%eax
    8588:	89 c1                	mov    %eax,%ecx
    858a:	d3 fa                	sar    %cl,%edx
    858c:	89 d0                	mov    %edx,%eax
    858e:	eb 04                	jmp    8594 <safe_rshift_func_int16_t_s_u+0x31>
    8590:	0f b7 45 fc          	movzwl -0x4(%rbp),%eax
    8594:	5d                   	pop    %rbp
    8595:	c3                   	retq   

0000000000008596 <safe_unary_minus_func_int32_t_s>:
    8596:	f3 0f 1e fa          	endbr64 
    859a:	55                   	push   %rbp
    859b:	48 89 e5             	mov    %rsp,%rbp
    859e:	89 7d fc             	mov    %edi,-0x4(%rbp)
    85a1:	81 7d fc 00 00 00 80 	cmpl   $0x80000000,-0x4(%rbp)
    85a8:	74 07                	je     85b1 <safe_unary_minus_func_int32_t_s+0x1b>
    85aa:	8b 45 fc             	mov    -0x4(%rbp),%eax
    85ad:	f7 d8                	neg    %eax
    85af:	eb 03                	jmp    85b4 <safe_unary_minus_func_int32_t_s+0x1e>
    85b1:	8b 45 fc             	mov    -0x4(%rbp),%eax
    85b4:	5d                   	pop    %rbp
    85b5:	c3                   	retq   

00000000000085b6 <safe_add_func_int32_t_s_s>:
    85b6:	f3 0f 1e fa          	endbr64 
    85ba:	55                   	push   %rbp
    85bb:	48 89 e5             	mov    %rsp,%rbp
    85be:	89 7d fc             	mov    %edi,-0x4(%rbp)
    85c1:	89 75 f8             	mov    %esi,-0x8(%rbp)
    85c4:	83 7d fc 00          	cmpl   $0x0,-0x4(%rbp)
    85c8:	7e 13                	jle    85dd <safe_add_func_int32_t_s_s+0x27>
    85ca:	83 7d f8 00          	cmpl   $0x0,-0x8(%rbp)
    85ce:	7e 0d                	jle    85dd <safe_add_func_int32_t_s_s+0x27>
    85d0:	b8 ff ff ff 7f       	mov    $0x7fffffff,%eax
    85d5:	2b 45 f8             	sub    -0x8(%rbp),%eax
    85d8:	39 45 fc             	cmp    %eax,-0x4(%rbp)
    85db:	7f 23                	jg     8600 <safe_add_func_int32_t_s_s+0x4a>
    85dd:	83 7d fc 00          	cmpl   $0x0,-0x4(%rbp)
    85e1:	79 13                	jns    85f6 <safe_add_func_int32_t_s_s+0x40>
    85e3:	83 7d f8 00          	cmpl   $0x0,-0x8(%rbp)
    85e7:	79 0d                	jns    85f6 <safe_add_func_int32_t_s_s+0x40>
    85e9:	b8 00 00 00 80       	mov    $0x80000000,%eax
    85ee:	2b 45 f8             	sub    -0x8(%rbp),%eax
    85f1:	39 45 fc             	cmp    %eax,-0x4(%rbp)
    85f4:	7c 0a                	jl     8600 <safe_add_func_int32_t_s_s+0x4a>
    85f6:	8b 55 fc             	mov    -0x4(%rbp),%edx
    85f9:	8b 45 f8             	mov    -0x8(%rbp),%eax
    85fc:	01 d0                	add    %edx,%eax
    85fe:	eb 03                	jmp    8603 <safe_add_func_int32_t_s_s+0x4d>
    8600:	8b 45 fc             	mov    -0x4(%rbp),%eax
    8603:	5d                   	pop    %rbp
    8604:	c3                   	retq   

0000000000008605 <safe_sub_func_int32_t_s_s>:
    8605:	f3 0f 1e fa          	endbr64 
    8609:	55                   	push   %rbp
    860a:	48 89 e5             	mov    %rsp,%rbp
    860d:	89 7d fc             	mov    %edi,-0x4(%rbp)
    8610:	89 75 f8             	mov    %esi,-0x8(%rbp)
    8613:	8b 45 fc             	mov    -0x4(%rbp),%eax
    8616:	33 45 f8             	xor    -0x8(%rbp),%eax
    8619:	89 c2                	mov    %eax,%edx
    861b:	8b 45 fc             	mov    -0x4(%rbp),%eax
    861e:	33 45 f8             	xor    -0x8(%rbp),%eax
    8621:	25 00 00 00 80       	and    $0x80000000,%eax
    8626:	33 45 fc             	xor    -0x4(%rbp),%eax
    8629:	2b 45 f8             	sub    -0x8(%rbp),%eax
    862c:	33 45 f8             	xor    -0x8(%rbp),%eax
    862f:	21 d0                	and    %edx,%eax
    8631:	85 c0                	test   %eax,%eax
    8633:	78 08                	js     863d <safe_sub_func_int32_t_s_s+0x38>
    8635:	8b 45 fc             	mov    -0x4(%rbp),%eax
    8638:	2b 45 f8             	sub    -0x8(%rbp),%eax
    863b:	eb 03                	jmp    8640 <safe_sub_func_int32_t_s_s+0x3b>
    863d:	8b 45 fc             	mov    -0x4(%rbp),%eax
    8640:	5d                   	pop    %rbp
    8641:	c3                   	retq   

0000000000008642 <safe_mul_func_int32_t_s_s>:
    8642:	f3 0f 1e fa          	endbr64 
    8646:	55                   	push   %rbp
    8647:	48 89 e5             	mov    %rsp,%rbp
    864a:	89 7d fc             	mov    %edi,-0x4(%rbp)
    864d:	89 75 f8             	mov    %esi,-0x8(%rbp)
    8650:	83 7d fc 00          	cmpl   $0x0,-0x4(%rbp)
    8654:	7e 14                	jle    866a <safe_mul_func_int32_t_s_s+0x28>
    8656:	83 7d f8 00          	cmpl   $0x0,-0x8(%rbp)
    865a:	7e 0e                	jle    866a <safe_mul_func_int32_t_s_s+0x28>
    865c:	b8 ff ff ff 7f       	mov    $0x7fffffff,%eax
    8661:	99                   	cltd   
    8662:	f7 7d f8             	idivl  -0x8(%rbp)
    8665:	39 45 fc             	cmp    %eax,-0x4(%rbp)
    8668:	7f 5d                	jg     86c7 <safe_mul_func_int32_t_s_s+0x85>
    866a:	83 7d fc 00          	cmpl   $0x0,-0x4(%rbp)
    866e:	7e 14                	jle    8684 <safe_mul_func_int32_t_s_s+0x42>
    8670:	83 7d f8 00          	cmpl   $0x0,-0x8(%rbp)
    8674:	7f 0e                	jg     8684 <safe_mul_func_int32_t_s_s+0x42>
    8676:	b8 00 00 00 80       	mov    $0x80000000,%eax
    867b:	99                   	cltd   
    867c:	f7 7d fc             	idivl  -0x4(%rbp)
    867f:	39 45 f8             	cmp    %eax,-0x8(%rbp)
    8682:	7c 43                	jl     86c7 <safe_mul_func_int32_t_s_s+0x85>
    8684:	83 7d fc 00          	cmpl   $0x0,-0x4(%rbp)
    8688:	7f 14                	jg     869e <safe_mul_func_int32_t_s_s+0x5c>
    868a:	83 7d f8 00          	cmpl   $0x0,-0x8(%rbp)
    868e:	7e 0e                	jle    869e <safe_mul_func_int32_t_s_s+0x5c>
    8690:	b8 00 00 00 80       	mov    $0x80000000,%eax
    8695:	99                   	cltd   
    8696:	f7 7d f8             	idivl  -0x8(%rbp)
    8699:	39 45 fc             	cmp    %eax,-0x4(%rbp)
    869c:	7c 29                	jl     86c7 <safe_mul_func_int32_t_s_s+0x85>
    869e:	83 7d fc 00          	cmpl   $0x0,-0x4(%rbp)
    86a2:	7f 1a                	jg     86be <safe_mul_func_int32_t_s_s+0x7c>
    86a4:	83 7d f8 00          	cmpl   $0x0,-0x8(%rbp)
    86a8:	7f 14                	jg     86be <safe_mul_func_int32_t_s_s+0x7c>
    86aa:	83 7d fc 00          	cmpl   $0x0,-0x4(%rbp)
    86ae:	74 0e                	je     86be <safe_mul_func_int32_t_s_s+0x7c>
    86b0:	b8 ff ff ff 7f       	mov    $0x7fffffff,%eax
    86b5:	99                   	cltd   
    86b6:	f7 7d fc             	idivl  -0x4(%rbp)
    86b9:	39 45 f8             	cmp    %eax,-0x8(%rbp)
    86bc:	7c 09                	jl     86c7 <safe_mul_func_int32_t_s_s+0x85>
    86be:	8b 45 fc             	mov    -0x4(%rbp),%eax
    86c1:	0f af 45 f8          	imul   -0x8(%rbp),%eax
    86c5:	eb 03                	jmp    86ca <safe_mul_func_int32_t_s_s+0x88>
    86c7:	8b 45 fc             	mov    -0x4(%rbp),%eax
    86ca:	5d                   	pop    %rbp
    86cb:	c3                   	retq   

00000000000086cc <safe_mod_func_int32_t_s_s>:
    86cc:	f3 0f 1e fa          	endbr64 
    86d0:	55                   	push   %rbp
    86d1:	48 89 e5             	mov    %rsp,%rbp
    86d4:	89 7d fc             	mov    %edi,-0x4(%rbp)
    86d7:	89 75 f8             	mov    %esi,-0x8(%rbp)
    86da:	83 7d f8 00          	cmpl   $0x0,-0x8(%rbp)
    86de:	74 1a                	je     86fa <safe_mod_func_int32_t_s_s+0x2e>
    86e0:	81 7d fc 00 00 00 80 	cmpl   $0x80000000,-0x4(%rbp)
    86e7:	75 06                	jne    86ef <safe_mod_func_int32_t_s_s+0x23>
    86e9:	83 7d f8 ff          	cmpl   $0xffffffff,-0x8(%rbp)
    86ed:	74 0b                	je     86fa <safe_mod_func_int32_t_s_s+0x2e>
    86ef:	8b 45 fc             	mov    -0x4(%rbp),%eax
    86f2:	99                   	cltd   
    86f3:	f7 7d f8             	idivl  -0x8(%rbp)
    86f6:	89 d0                	mov    %edx,%eax
    86f8:	eb 03                	jmp    86fd <safe_mod_func_int32_t_s_s+0x31>
    86fa:	8b 45 fc             	mov    -0x4(%rbp),%eax
    86fd:	5d                   	pop    %rbp
    86fe:	c3                   	retq   

00000000000086ff <safe_div_func_int32_t_s_s>:
    86ff:	f3 0f 1e fa          	endbr64 
    8703:	55                   	push   %rbp
    8704:	48 89 e5             	mov    %rsp,%rbp
    8707:	89 7d fc             	mov    %edi,-0x4(%rbp)
    870a:	89 75 f8             	mov    %esi,-0x8(%rbp)
    870d:	83 7d f8 00          	cmpl   $0x0,-0x8(%rbp)
    8711:	74 18                	je     872b <safe_div_func_int32_t_s_s+0x2c>
    8713:	81 7d fc 00 00 00 80 	cmpl   $0x80000000,-0x4(%rbp)
    871a:	75 06                	jne    8722 <safe_div_func_int32_t_s_s+0x23>
    871c:	83 7d f8 ff          	cmpl   $0xffffffff,-0x8(%rbp)
    8720:	74 09                	je     872b <safe_div_func_int32_t_s_s+0x2c>
    8722:	8b 45 fc             	mov    -0x4(%rbp),%eax
    8725:	99                   	cltd   
    8726:	f7 7d f8             	idivl  -0x8(%rbp)
    8729:	eb 03                	jmp    872e <safe_div_func_int32_t_s_s+0x2f>
    872b:	8b 45 fc             	mov    -0x4(%rbp),%eax
    872e:	5d                   	pop    %rbp
    872f:	c3                   	retq   

0000000000008730 <safe_lshift_func_int32_t_s_s>:
    8730:	f3 0f 1e fa          	endbr64 
    8734:	55                   	push   %rbp
    8735:	48 89 e5             	mov    %rsp,%rbp
    8738:	89 7d fc             	mov    %edi,-0x4(%rbp)
    873b:	89 75 f8             	mov    %esi,-0x8(%rbp)
    873e:	83 7d fc 00          	cmpl   $0x0,-0x4(%rbp)
    8742:	78 2d                	js     8771 <safe_lshift_func_int32_t_s_s+0x41>
    8744:	83 7d f8 00          	cmpl   $0x0,-0x8(%rbp)
    8748:	78 27                	js     8771 <safe_lshift_func_int32_t_s_s+0x41>
    874a:	83 7d f8 1f          	cmpl   $0x1f,-0x8(%rbp)
    874e:	7f 21                	jg     8771 <safe_lshift_func_int32_t_s_s+0x41>
    8750:	8b 45 f8             	mov    -0x8(%rbp),%eax
    8753:	ba ff ff ff 7f       	mov    $0x7fffffff,%edx
    8758:	89 c1                	mov    %eax,%ecx
    875a:	d3 fa                	sar    %cl,%edx
    875c:	89 d0                	mov    %edx,%eax
    875e:	39 45 fc             	cmp    %eax,-0x4(%rbp)
    8761:	7f 0e                	jg     8771 <safe_lshift_func_int32_t_s_s+0x41>
    8763:	8b 45 f8             	mov    -0x8(%rbp),%eax
    8766:	8b 55 fc             	mov    -0x4(%rbp),%edx
    8769:	89 c1                	mov    %eax,%ecx
    876b:	d3 e2                	shl    %cl,%edx
    876d:	89 d0                	mov    %edx,%eax
    876f:	eb 03                	jmp    8774 <safe_lshift_func_int32_t_s_s+0x44>
    8771:	8b 45 fc             	mov    -0x4(%rbp),%eax
    8774:	5d                   	pop    %rbp
    8775:	c3                   	retq   

0000000000008776 <safe_lshift_func_int32_t_s_u>:
    8776:	f3 0f 1e fa          	endbr64 
    877a:	55                   	push   %rbp
    877b:	48 89 e5             	mov    %rsp,%rbp
    877e:	89 7d fc             	mov    %edi,-0x4(%rbp)
    8781:	89 75 f8             	mov    %esi,-0x8(%rbp)
    8784:	83 7d fc 00          	cmpl   $0x0,-0x4(%rbp)
    8788:	78 27                	js     87b1 <safe_lshift_func_int32_t_s_u+0x3b>
    878a:	83 7d f8 1f          	cmpl   $0x1f,-0x8(%rbp)
    878e:	77 21                	ja     87b1 <safe_lshift_func_int32_t_s_u+0x3b>
    8790:	8b 45 f8             	mov    -0x8(%rbp),%eax
    8793:	ba ff ff ff 7f       	mov    $0x7fffffff,%edx
    8798:	89 c1                	mov    %eax,%ecx
    879a:	d3 fa                	sar    %cl,%edx
    879c:	89 d0                	mov    %edx,%eax
    879e:	39 45 fc             	cmp    %eax,-0x4(%rbp)
    87a1:	7f 0e                	jg     87b1 <safe_lshift_func_int32_t_s_u+0x3b>
    87a3:	8b 45 f8             	mov    -0x8(%rbp),%eax
    87a6:	8b 55 fc             	mov    -0x4(%rbp),%edx
    87a9:	89 c1                	mov    %eax,%ecx
    87ab:	d3 e2                	shl    %cl,%edx
    87ad:	89 d0                	mov    %edx,%eax
    87af:	eb 03                	jmp    87b4 <safe_lshift_func_int32_t_s_u+0x3e>
    87b1:	8b 45 fc             	mov    -0x4(%rbp),%eax
    87b4:	5d                   	pop    %rbp
    87b5:	c3                   	retq   

00000000000087b6 <safe_rshift_func_int32_t_s_s>:
    87b6:	f3 0f 1e fa          	endbr64 
    87ba:	55                   	push   %rbp
    87bb:	48 89 e5             	mov    %rsp,%rbp
    87be:	89 7d fc             	mov    %edi,-0x4(%rbp)
    87c1:	89 75 f8             	mov    %esi,-0x8(%rbp)
    87c4:	83 7d fc 00          	cmpl   $0x0,-0x4(%rbp)
    87c8:	78 1a                	js     87e4 <safe_rshift_func_int32_t_s_s+0x2e>
    87ca:	83 7d f8 00          	cmpl   $0x0,-0x8(%rbp)
    87ce:	78 14                	js     87e4 <safe_rshift_func_int32_t_s_s+0x2e>
    87d0:	83 7d f8 1f          	cmpl   $0x1f,-0x8(%rbp)
    87d4:	7f 0e                	jg     87e4 <safe_rshift_func_int32_t_s_s+0x2e>
    87d6:	8b 45 f8             	mov    -0x8(%rbp),%eax
    87d9:	8b 55 fc             	mov    -0x4(%rbp),%edx
    87dc:	89 c1                	mov    %eax,%ecx
    87de:	d3 fa                	sar    %cl,%edx
    87e0:	89 d0                	mov    %edx,%eax
    87e2:	eb 03                	jmp    87e7 <safe_rshift_func_int32_t_s_s+0x31>
    87e4:	8b 45 fc             	mov    -0x4(%rbp),%eax
    87e7:	5d                   	pop    %rbp
    87e8:	c3                   	retq   

00000000000087e9 <safe_rshift_func_int32_t_s_u>:
    87e9:	f3 0f 1e fa          	endbr64 
    87ed:	55                   	push   %rbp
    87ee:	48 89 e5             	mov    %rsp,%rbp
    87f1:	89 7d fc             	mov    %edi,-0x4(%rbp)
    87f4:	89 75 f8             	mov    %esi,-0x8(%rbp)
    87f7:	83 7d fc 00          	cmpl   $0x0,-0x4(%rbp)
    87fb:	78 14                	js     8811 <safe_rshift_func_int32_t_s_u+0x28>
    87fd:	83 7d f8 1f          	cmpl   $0x1f,-0x8(%rbp)
    8801:	77 0e                	ja     8811 <safe_rshift_func_int32_t_s_u+0x28>
    8803:	8b 45 f8             	mov    -0x8(%rbp),%eax
    8806:	8b 55 fc             	mov    -0x4(%rbp),%edx
    8809:	89 c1                	mov    %eax,%ecx
    880b:	d3 fa                	sar    %cl,%edx
    880d:	89 d0                	mov    %edx,%eax
    880f:	eb 03                	jmp    8814 <safe_rshift_func_int32_t_s_u+0x2b>
    8811:	8b 45 fc             	mov    -0x4(%rbp),%eax
    8814:	5d                   	pop    %rbp
    8815:	c3                   	retq   

0000000000008816 <safe_unary_minus_func_int64_t_s>:
    8816:	f3 0f 1e fa          	endbr64 
    881a:	55                   	push   %rbp
    881b:	48 89 e5             	mov    %rsp,%rbp
    881e:	48 89 7d f8          	mov    %rdi,-0x8(%rbp)
    8822:	48 b8 00 00 00 00 00 	movabs $0x8000000000000000,%rax
    8829:	00 00 80 
    882c:	48 39 45 f8          	cmp    %rax,-0x8(%rbp)
    8830:	74 09                	je     883b <safe_unary_minus_func_int64_t_s+0x25>
    8832:	48 8b 45 f8          	mov    -0x8(%rbp),%rax
    8836:	48 f7 d8             	neg    %rax
    8839:	eb 04                	jmp    883f <safe_unary_minus_func_int64_t_s+0x29>
    883b:	48 8b 45 f8          	mov    -0x8(%rbp),%rax
    883f:	5d                   	pop    %rbp
    8840:	c3                   	retq   

0000000000008841 <safe_add_func_int64_t_s_s>:
    8841:	f3 0f 1e fa          	endbr64 
    8845:	55                   	push   %rbp
    8846:	48 89 e5             	mov    %rsp,%rbp
    8849:	48 89 7d f8          	mov    %rdi,-0x8(%rbp)
    884d:	48 89 75 f0          	mov    %rsi,-0x10(%rbp)
    8851:	48 83 7d f8 00       	cmpq   $0x0,-0x8(%rbp)
    8856:	7e 1b                	jle    8873 <safe_add_func_int64_t_s_s+0x32>
    8858:	48 83 7d f0 00       	cmpq   $0x0,-0x10(%rbp)
    885d:	7e 14                	jle    8873 <safe_add_func_int64_t_s_s+0x32>
    885f:	48 b8 ff ff ff ff ff 	movabs $0x7fffffffffffffff,%rax
    8866:	ff ff 7f 
    8869:	48 2b 45 f0          	sub    -0x10(%rbp),%rax
    886d:	48 39 45 f8          	cmp    %rax,-0x8(%rbp)
    8871:	7f 2f                	jg     88a2 <safe_add_func_int64_t_s_s+0x61>
    8873:	48 83 7d f8 00       	cmpq   $0x0,-0x8(%rbp)
    8878:	79 1b                	jns    8895 <safe_add_func_int64_t_s_s+0x54>
    887a:	48 83 7d f0 00       	cmpq   $0x0,-0x10(%rbp)
    887f:	79 14                	jns    8895 <safe_add_func_int64_t_s_s+0x54>
    8881:	48 b8 00 00 00 00 00 	movabs $0x8000000000000000,%rax
    8888:	00 00 80 
    888b:	48 2b 45 f0          	sub    -0x10(%rbp),%rax
    888f:	48 39 45 f8          	cmp    %rax,-0x8(%rbp)
    8893:	7c 0d                	jl     88a2 <safe_add_func_int64_t_s_s+0x61>
    8895:	48 8b 55 f8          	mov    -0x8(%rbp),%rdx
    8899:	48 8b 45 f0          	mov    -0x10(%rbp),%rax
    889d:	48 01 d0             	add    %rdx,%rax
    88a0:	eb 04                	jmp    88a6 <safe_add_func_int64_t_s_s+0x65>
    88a2:	48 8b 45 f8          	mov    -0x8(%rbp),%rax
    88a6:	5d                   	pop    %rbp
    88a7:	c3                   	retq   

00000000000088a8 <safe_sub_func_int64_t_s_s>:
    88a8:	f3 0f 1e fa          	endbr64 
    88ac:	55                   	push   %rbp
    88ad:	48 89 e5             	mov    %rsp,%rbp
    88b0:	48 89 7d f8          	mov    %rdi,-0x8(%rbp)
    88b4:	48 89 75 f0          	mov    %rsi,-0x10(%rbp)
    88b8:	48 8b 45 f8          	mov    -0x8(%rbp),%rax
    88bc:	48 33 45 f0          	xor    -0x10(%rbp),%rax
    88c0:	48 89 c2             	mov    %rax,%rdx
    88c3:	48 8b 45 f8          	mov    -0x8(%rbp),%rax
    88c7:	48 33 45 f0          	xor    -0x10(%rbp),%rax
    88cb:	48 b9 00 00 00 00 00 	movabs $0x8000000000000000,%rcx
    88d2:	00 00 80 
    88d5:	48 21 c8             	and    %rcx,%rax
    88d8:	48 33 45 f8          	xor    -0x8(%rbp),%rax
    88dc:	48 2b 45 f0          	sub    -0x10(%rbp),%rax
    88e0:	48 33 45 f0          	xor    -0x10(%rbp),%rax
    88e4:	48 21 d0             	and    %rdx,%rax
    88e7:	48 85 c0             	test   %rax,%rax
    88ea:	78 0a                	js     88f6 <safe_sub_func_int64_t_s_s+0x4e>
    88ec:	48 8b 45 f8          	mov    -0x8(%rbp),%rax
    88f0:	48 2b 45 f0          	sub    -0x10(%rbp),%rax
    88f4:	eb 04                	jmp    88fa <safe_sub_func_int64_t_s_s+0x52>
    88f6:	48 8b 45 f8          	mov    -0x8(%rbp),%rax
    88fa:	5d                   	pop    %rbp
    88fb:	c3                   	retq   

00000000000088fc <safe_mul_func_int64_t_s_s>:
    88fc:	f3 0f 1e fa          	endbr64 
    8900:	55                   	push   %rbp
    8901:	48 89 e5             	mov    %rsp,%rbp
    8904:	48 89 7d f8          	mov    %rdi,-0x8(%rbp)
    8908:	48 89 75 f0          	mov    %rsi,-0x10(%rbp)
    890c:	48 83 7d f8 00       	cmpq   $0x0,-0x8(%rbp)
    8911:	7e 1d                	jle    8930 <safe_mul_func_int64_t_s_s+0x34>
    8913:	48 83 7d f0 00       	cmpq   $0x0,-0x10(%rbp)
    8918:	7e 16                	jle    8930 <safe_mul_func_int64_t_s_s+0x34>
    891a:	48 b8 ff ff ff ff ff 	movabs $0x7fffffffffffffff,%rax
    8921:	ff ff 7f 
    8924:	48 99                	cqto   
    8926:	48 f7 7d f0          	idivq  -0x10(%rbp)
    892a:	48 39 45 f8          	cmp    %rax,-0x8(%rbp)
    892e:	7f 7e                	jg     89ae <safe_mul_func_int64_t_s_s+0xb2>
    8930:	48 83 7d f8 00       	cmpq   $0x0,-0x8(%rbp)
    8935:	7e 1d                	jle    8954 <safe_mul_func_int64_t_s_s+0x58>
    8937:	48 83 7d f0 00       	cmpq   $0x0,-0x10(%rbp)
    893c:	7f 16                	jg     8954 <safe_mul_func_int64_t_s_s+0x58>
    893e:	48 b8 00 00 00 00 00 	movabs $0x8000000000000000,%rax
    8945:	00 00 80 
    8948:	48 99                	cqto   
    894a:	48 f7 7d f8          	idivq  -0x8(%rbp)
    894e:	48 39 45 f0          	cmp    %rax,-0x10(%rbp)
    8952:	7c 5a                	jl     89ae <safe_mul_func_int64_t_s_s+0xb2>
    8954:	48 83 7d f8 00       	cmpq   $0x0,-0x8(%rbp)
    8959:	7f 1d                	jg     8978 <safe_mul_func_int64_t_s_s+0x7c>
    895b:	48 83 7d f0 00       	cmpq   $0x0,-0x10(%rbp)
    8960:	7e 16                	jle    8978 <safe_mul_func_int64_t_s_s+0x7c>
    8962:	48 b8 00 00 00 00 00 	movabs $0x8000000000000000,%rax
    8969:	00 00 80 
    896c:	48 99                	cqto   
    896e:	48 f7 7d f0          	idivq  -0x10(%rbp)
    8972:	48 39 45 f8          	cmp    %rax,-0x8(%rbp)
    8976:	7c 36                	jl     89ae <safe_mul_func_int64_t_s_s+0xb2>
    8978:	48 83 7d f8 00       	cmpq   $0x0,-0x8(%rbp)
    897d:	7f 24                	jg     89a3 <safe_mul_func_int64_t_s_s+0xa7>
    897f:	48 83 7d f0 00       	cmpq   $0x0,-0x10(%rbp)
    8984:	7f 1d                	jg     89a3 <safe_mul_func_int64_t_s_s+0xa7>
    8986:	48 83 7d f8 00       	cmpq   $0x0,-0x8(%rbp)
    898b:	74 16                	je     89a3 <safe_mul_func_int64_t_s_s+0xa7>
    898d:	48 b8 ff ff ff ff ff 	movabs $0x7fffffffffffffff,%rax
    8994:	ff ff 7f 
    8997:	48 99                	cqto   
    8999:	48 f7 7d f8          	idivq  -0x8(%rbp)
    899d:	48 39 45 f0          	cmp    %rax,-0x10(%rbp)
    89a1:	7c 0b                	jl     89ae <safe_mul_func_int64_t_s_s+0xb2>
    89a3:	48 8b 45 f8          	mov    -0x8(%rbp),%rax
    89a7:	48 0f af 45 f0       	imul   -0x10(%rbp),%rax
    89ac:	eb 04                	jmp    89b2 <safe_mul_func_int64_t_s_s+0xb6>
    89ae:	48 8b 45 f8          	mov    -0x8(%rbp),%rax
    89b2:	5d                   	pop    %rbp
    89b3:	c3                   	retq   

00000000000089b4 <safe_mod_func_int64_t_s_s>:
    89b4:	f3 0f 1e fa          	endbr64 
    89b8:	55                   	push   %rbp
    89b9:	48 89 e5             	mov    %rsp,%rbp
    89bc:	48 89 7d f8          	mov    %rdi,-0x8(%rbp)
    89c0:	48 89 75 f0          	mov    %rsi,-0x10(%rbp)
    89c4:	48 83 7d f0 00       	cmpq   $0x0,-0x10(%rbp)
    89c9:	74 26                	je     89f1 <safe_mod_func_int64_t_s_s+0x3d>
    89cb:	48 b8 00 00 00 00 00 	movabs $0x8000000000000000,%rax
    89d2:	00 00 80 
    89d5:	48 39 45 f8          	cmp    %rax,-0x8(%rbp)
    89d9:	75 07                	jne    89e2 <safe_mod_func_int64_t_s_s+0x2e>
    89db:	48 83 7d f0 ff       	cmpq   $0xffffffffffffffff,-0x10(%rbp)
    89e0:	74 0f                	je     89f1 <safe_mod_func_int64_t_s_s+0x3d>
    89e2:	48 8b 45 f8          	mov    -0x8(%rbp),%rax
    89e6:	48 99                	cqto   
    89e8:	48 f7 7d f0          	idivq  -0x10(%rbp)
    89ec:	48 89 d0             	mov    %rdx,%rax
    89ef:	eb 04                	jmp    89f5 <safe_mod_func_int64_t_s_s+0x41>
    89f1:	48 8b 45 f8          	mov    -0x8(%rbp),%rax
    89f5:	5d                   	pop    %rbp
    89f6:	c3                   	retq   

00000000000089f7 <safe_div_func_int64_t_s_s>:
    89f7:	f3 0f 1e fa          	endbr64 
    89fb:	55                   	push   %rbp
    89fc:	48 89 e5             	mov    %rsp,%rbp
    89ff:	48 89 7d f8          	mov    %rdi,-0x8(%rbp)
    8a03:	48 89 75 f0          	mov    %rsi,-0x10(%rbp)
    8a07:	48 83 7d f0 00       	cmpq   $0x0,-0x10(%rbp)
    8a0c:	74 23                	je     8a31 <safe_div_func_int64_t_s_s+0x3a>
    8a0e:	48 b8 00 00 00 00 00 	movabs $0x8000000000000000,%rax
    8a15:	00 00 80 
    8a18:	48 39 45 f8          	cmp    %rax,-0x8(%rbp)
    8a1c:	75 07                	jne    8a25 <safe_div_func_int64_t_s_s+0x2e>
    8a1e:	48 83 7d f0 ff       	cmpq   $0xffffffffffffffff,-0x10(%rbp)
    8a23:	74 0c                	je     8a31 <safe_div_func_int64_t_s_s+0x3a>
    8a25:	48 8b 45 f8          	mov    -0x8(%rbp),%rax
    8a29:	48 99                	cqto   
    8a2b:	48 f7 7d f0          	idivq  -0x10(%rbp)
    8a2f:	eb 04                	jmp    8a35 <safe_div_func_int64_t_s_s+0x3e>
    8a31:	48 8b 45 f8          	mov    -0x8(%rbp),%rax
    8a35:	5d                   	pop    %rbp
    8a36:	c3                   	retq   

0000000000008a37 <safe_lshift_func_int64_t_s_s>:
    8a37:	f3 0f 1e fa          	endbr64 
    8a3b:	55                   	push   %rbp
    8a3c:	48 89 e5             	mov    %rsp,%rbp
    8a3f:	48 89 7d f8          	mov    %rdi,-0x8(%rbp)
    8a43:	89 75 f4             	mov    %esi,-0xc(%rbp)
    8a46:	48 83 7d f8 00       	cmpq   $0x0,-0x8(%rbp)
    8a4b:	78 38                	js     8a85 <safe_lshift_func_int64_t_s_s+0x4e>
    8a4d:	83 7d f4 00          	cmpl   $0x0,-0xc(%rbp)
    8a51:	78 32                	js     8a85 <safe_lshift_func_int64_t_s_s+0x4e>
    8a53:	83 7d f4 1f          	cmpl   $0x1f,-0xc(%rbp)
    8a57:	7f 2c                	jg     8a85 <safe_lshift_func_int64_t_s_s+0x4e>
    8a59:	8b 45 f4             	mov    -0xc(%rbp),%eax
    8a5c:	48 ba ff ff ff ff ff 	movabs $0x7fffffffffffffff,%rdx
    8a63:	ff ff 7f 
    8a66:	89 c1                	mov    %eax,%ecx
    8a68:	48 d3 fa             	sar    %cl,%rdx
    8a6b:	48 89 d0             	mov    %rdx,%rax
    8a6e:	48 39 45 f8          	cmp    %rax,-0x8(%rbp)
    8a72:	7f 11                	jg     8a85 <safe_lshift_func_int64_t_s_s+0x4e>
    8a74:	8b 45 f4             	mov    -0xc(%rbp),%eax
    8a77:	48 8b 55 f8          	mov    -0x8(%rbp),%rdx
    8a7b:	89 c1                	mov    %eax,%ecx
    8a7d:	48 d3 e2             	shl    %cl,%rdx
    8a80:	48 89 d0             	mov    %rdx,%rax
    8a83:	eb 04                	jmp    8a89 <safe_lshift_func_int64_t_s_s+0x52>
    8a85:	48 8b 45 f8          	mov    -0x8(%rbp),%rax
    8a89:	5d                   	pop    %rbp
    8a8a:	c3                   	retq   

0000000000008a8b <safe_lshift_func_int64_t_s_u>:
    8a8b:	f3 0f 1e fa          	endbr64 
    8a8f:	55                   	push   %rbp
    8a90:	48 89 e5             	mov    %rsp,%rbp
    8a93:	48 89 7d f8          	mov    %rdi,-0x8(%rbp)
    8a97:	89 75 f4             	mov    %esi,-0xc(%rbp)
    8a9a:	48 83 7d f8 00       	cmpq   $0x0,-0x8(%rbp)
    8a9f:	78 32                	js     8ad3 <safe_lshift_func_int64_t_s_u+0x48>
    8aa1:	83 7d f4 1f          	cmpl   $0x1f,-0xc(%rbp)
    8aa5:	77 2c                	ja     8ad3 <safe_lshift_func_int64_t_s_u+0x48>
    8aa7:	8b 45 f4             	mov    -0xc(%rbp),%eax
    8aaa:	48 ba ff ff ff ff ff 	movabs $0x7fffffffffffffff,%rdx
    8ab1:	ff ff 7f 
    8ab4:	89 c1                	mov    %eax,%ecx
    8ab6:	48 d3 fa             	sar    %cl,%rdx
    8ab9:	48 89 d0             	mov    %rdx,%rax
    8abc:	48 39 45 f8          	cmp    %rax,-0x8(%rbp)
    8ac0:	7f 11                	jg     8ad3 <safe_lshift_func_int64_t_s_u+0x48>
    8ac2:	8b 45 f4             	mov    -0xc(%rbp),%eax
    8ac5:	48 8b 55 f8          	mov    -0x8(%rbp),%rdx
    8ac9:	89 c1                	mov    %eax,%ecx
    8acb:	48 d3 e2             	shl    %cl,%rdx
    8ace:	48 89 d0             	mov    %rdx,%rax
    8ad1:	eb 04                	jmp    8ad7 <safe_lshift_func_int64_t_s_u+0x4c>
    8ad3:	48 8b 45 f8          	mov    -0x8(%rbp),%rax
    8ad7:	5d                   	pop    %rbp
    8ad8:	c3                   	retq   

0000000000008ad9 <safe_rshift_func_int64_t_s_s>:
    8ad9:	f3 0f 1e fa          	endbr64 
    8add:	55                   	push   %rbp
    8ade:	48 89 e5             	mov    %rsp,%rbp
    8ae1:	48 89 7d f8          	mov    %rdi,-0x8(%rbp)
    8ae5:	89 75 f4             	mov    %esi,-0xc(%rbp)
    8ae8:	48 83 7d f8 00       	cmpq   $0x0,-0x8(%rbp)
    8aed:	78 1d                	js     8b0c <safe_rshift_func_int64_t_s_s+0x33>
    8aef:	83 7d f4 00          	cmpl   $0x0,-0xc(%rbp)
    8af3:	78 17                	js     8b0c <safe_rshift_func_int64_t_s_s+0x33>
    8af5:	83 7d f4 1f          	cmpl   $0x1f,-0xc(%rbp)
    8af9:	7f 11                	jg     8b0c <safe_rshift_func_int64_t_s_s+0x33>
    8afb:	8b 45 f4             	mov    -0xc(%rbp),%eax
    8afe:	48 8b 55 f8          	mov    -0x8(%rbp),%rdx
    8b02:	89 c1                	mov    %eax,%ecx
    8b04:	48 d3 fa             	sar    %cl,%rdx
    8b07:	48 89 d0             	mov    %rdx,%rax
    8b0a:	eb 04                	jmp    8b10 <safe_rshift_func_int64_t_s_s+0x37>
    8b0c:	48 8b 45 f8          	mov    -0x8(%rbp),%rax
    8b10:	5d                   	pop    %rbp
    8b11:	c3                   	retq   

0000000000008b12 <safe_rshift_func_int64_t_s_u>:
    8b12:	f3 0f 1e fa          	endbr64 
    8b16:	55                   	push   %rbp
    8b17:	48 89 e5             	mov    %rsp,%rbp
    8b1a:	48 89 7d f8          	mov    %rdi,-0x8(%rbp)
    8b1e:	89 75 f4             	mov    %esi,-0xc(%rbp)
    8b21:	48 83 7d f8 00       	cmpq   $0x0,-0x8(%rbp)
    8b26:	78 17                	js     8b3f <safe_rshift_func_int64_t_s_u+0x2d>
    8b28:	83 7d f4 1f          	cmpl   $0x1f,-0xc(%rbp)
    8b2c:	77 11                	ja     8b3f <safe_rshift_func_int64_t_s_u+0x2d>
    8b2e:	8b 45 f4             	mov    -0xc(%rbp),%eax
    8b31:	48 8b 55 f8          	mov    -0x8(%rbp),%rdx
    8b35:	89 c1                	mov    %eax,%ecx
    8b37:	48 d3 fa             	sar    %cl,%rdx
    8b3a:	48 89 d0             	mov    %rdx,%rax
    8b3d:	eb 04                	jmp    8b43 <safe_rshift_func_int64_t_s_u+0x31>
    8b3f:	48 8b 45 f8          	mov    -0x8(%rbp),%rax
    8b43:	5d                   	pop    %rbp
    8b44:	c3                   	retq   

0000000000008b45 <safe_unary_minus_func_uint8_t_u>:
    8b45:	f3 0f 1e fa          	endbr64 
    8b49:	55                   	push   %rbp
    8b4a:	48 89 e5             	mov    %rsp,%rbp
    8b4d:	89 f8                	mov    %edi,%eax
    8b4f:	88 45 fc             	mov    %al,-0x4(%rbp)
    8b52:	0f b6 45 fc          	movzbl -0x4(%rbp),%eax
    8b56:	f7 d8                	neg    %eax
    8b58:	5d                   	pop    %rbp
    8b59:	c3                   	retq   

0000000000008b5a <safe_add_func_uint8_t_u_u>:
    8b5a:	f3 0f 1e fa          	endbr64 
    8b5e:	55                   	push   %rbp
    8b5f:	48 89 e5             	mov    %rsp,%rbp
    8b62:	89 fa                	mov    %edi,%edx
    8b64:	89 f0                	mov    %esi,%eax
    8b66:	88 55 fc             	mov    %dl,-0x4(%rbp)
    8b69:	88 45 f8             	mov    %al,-0x8(%rbp)
    8b6c:	0f b6 55 fc          	movzbl -0x4(%rbp),%edx
    8b70:	0f b6 45 f8          	movzbl -0x8(%rbp),%eax
    8b74:	01 d0                	add    %edx,%eax
    8b76:	5d                   	pop    %rbp
    8b77:	c3                   	retq   

0000000000008b78 <safe_sub_func_uint8_t_u_u>:
    8b78:	f3 0f 1e fa          	endbr64 
    8b7c:	55                   	push   %rbp
    8b7d:	48 89 e5             	mov    %rsp,%rbp
    8b80:	89 fa                	mov    %edi,%edx
    8b82:	89 f0                	mov    %esi,%eax
    8b84:	88 55 fc             	mov    %dl,-0x4(%rbp)
    8b87:	88 45 f8             	mov    %al,-0x8(%rbp)
    8b8a:	0f b6 45 fc          	movzbl -0x4(%rbp),%eax
    8b8e:	2a 45 f8             	sub    -0x8(%rbp),%al
    8b91:	5d                   	pop    %rbp
    8b92:	c3                   	retq   

0000000000008b93 <safe_mul_func_uint8_t_u_u>:
    8b93:	f3 0f 1e fa          	endbr64 
    8b97:	55                   	push   %rbp
    8b98:	48 89 e5             	mov    %rsp,%rbp
    8b9b:	89 fa                	mov    %edi,%edx
    8b9d:	89 f0                	mov    %esi,%eax
    8b9f:	88 55 fc             	mov    %dl,-0x4(%rbp)
    8ba2:	88 45 f8             	mov    %al,-0x8(%rbp)
    8ba5:	0f b6 45 fc          	movzbl -0x4(%rbp),%eax
    8ba9:	f6 65 f8             	mulb   -0x8(%rbp)
    8bac:	5d                   	pop    %rbp
    8bad:	c3                   	retq   

0000000000008bae <safe_mod_func_uint8_t_u_u>:
    8bae:	f3 0f 1e fa          	endbr64 
    8bb2:	55                   	push   %rbp
    8bb3:	48 89 e5             	mov    %rsp,%rbp
    8bb6:	89 fa                	mov    %edi,%edx
    8bb8:	89 f0                	mov    %esi,%eax
    8bba:	88 55 fc             	mov    %dl,-0x4(%rbp)
    8bbd:	88 45 f8             	mov    %al,-0x8(%rbp)
    8bc0:	80 7d f8 00          	cmpb   $0x0,-0x8(%rbp)
    8bc4:	74 0f                	je     8bd5 <safe_mod_func_uint8_t_u_u+0x27>
    8bc6:	0f b6 45 fc          	movzbl -0x4(%rbp),%eax
    8bca:	0f b6 c0             	movzbl %al,%eax
    8bcd:	f6 75 f8             	divb   -0x8(%rbp)
    8bd0:	0f b6 c4             	movzbl %ah,%eax
    8bd3:	eb 04                	jmp    8bd9 <safe_mod_func_uint8_t_u_u+0x2b>
    8bd5:	0f b6 45 fc          	movzbl -0x4(%rbp),%eax
    8bd9:	5d                   	pop    %rbp
    8bda:	c3                   	retq   

0000000000008bdb <safe_div_func_uint8_t_u_u>:
    8bdb:	f3 0f 1e fa          	endbr64 
    8bdf:	55                   	push   %rbp
    8be0:	48 89 e5             	mov    %rsp,%rbp
    8be3:	89 fa                	mov    %edi,%edx
    8be5:	89 f0                	mov    %esi,%eax
    8be7:	88 55 fc             	mov    %dl,-0x4(%rbp)
    8bea:	88 45 f8             	mov    %al,-0x8(%rbp)
    8bed:	80 7d f8 00          	cmpb   $0x0,-0x8(%rbp)
    8bf1:	74 0c                	je     8bff <safe_div_func_uint8_t_u_u+0x24>
    8bf3:	0f b6 45 fc          	movzbl -0x4(%rbp),%eax
    8bf7:	0f b6 c0             	movzbl %al,%eax
    8bfa:	f6 75 f8             	divb   -0x8(%rbp)
    8bfd:	eb 04                	jmp    8c03 <safe_div_func_uint8_t_u_u+0x28>
    8bff:	0f b6 45 fc          	movzbl -0x4(%rbp),%eax
    8c03:	5d                   	pop    %rbp
    8c04:	c3                   	retq   

0000000000008c05 <safe_lshift_func_uint8_t_u_s>:
    8c05:	f3 0f 1e fa          	endbr64 
    8c09:	55                   	push   %rbp
    8c0a:	48 89 e5             	mov    %rsp,%rbp
    8c0d:	89 f8                	mov    %edi,%eax
    8c0f:	89 75 f8             	mov    %esi,-0x8(%rbp)
    8c12:	88 45 fc             	mov    %al,-0x4(%rbp)
    8c15:	83 7d f8 00          	cmpl   $0x0,-0x8(%rbp)
    8c19:	78 2b                	js     8c46 <safe_lshift_func_uint8_t_u_s+0x41>
    8c1b:	83 7d f8 1f          	cmpl   $0x1f,-0x8(%rbp)
    8c1f:	7f 25                	jg     8c46 <safe_lshift_func_uint8_t_u_s+0x41>
    8c21:	0f b6 55 fc          	movzbl -0x4(%rbp),%edx
    8c25:	8b 45 f8             	mov    -0x8(%rbp),%eax
    8c28:	be ff 00 00 00       	mov    $0xff,%esi
    8c2d:	89 c1                	mov    %eax,%ecx
    8c2f:	d3 fe                	sar    %cl,%esi
    8c31:	89 f0                	mov    %esi,%eax
    8c33:	39 c2                	cmp    %eax,%edx
    8c35:	7f 0f                	jg     8c46 <safe_lshift_func_uint8_t_u_s+0x41>
    8c37:	0f b6 55 fc          	movzbl -0x4(%rbp),%edx
    8c3b:	8b 45 f8             	mov    -0x8(%rbp),%eax
    8c3e:	89 c1                	mov    %eax,%ecx
    8c40:	d3 e2                	shl    %cl,%edx
    8c42:	89 d0                	mov    %edx,%eax
    8c44:	eb 04                	jmp    8c4a <safe_lshift_func_uint8_t_u_s+0x45>
    8c46:	0f b6 45 fc          	movzbl -0x4(%rbp),%eax
    8c4a:	5d                   	pop    %rbp
    8c4b:	c3                   	retq   

0000000000008c4c <safe_lshift_func_uint8_t_u_u>:
    8c4c:	f3 0f 1e fa          	endbr64 
    8c50:	55                   	push   %rbp
    8c51:	48 89 e5             	mov    %rsp,%rbp
    8c54:	89 f8                	mov    %edi,%eax
    8c56:	89 75 f8             	mov    %esi,-0x8(%rbp)
    8c59:	88 45 fc             	mov    %al,-0x4(%rbp)
    8c5c:	83 7d f8 1f          	cmpl   $0x1f,-0x8(%rbp)
    8c60:	77 25                	ja     8c87 <safe_lshift_func_uint8_t_u_u+0x3b>
    8c62:	0f b6 55 fc          	movzbl -0x4(%rbp),%edx
    8c66:	8b 45 f8             	mov    -0x8(%rbp),%eax
    8c69:	be ff 00 00 00       	mov    $0xff,%esi
    8c6e:	89 c1                	mov    %eax,%ecx
    8c70:	d3 fe                	sar    %cl,%esi
    8c72:	89 f0                	mov    %esi,%eax
    8c74:	39 c2                	cmp    %eax,%edx
    8c76:	7f 0f                	jg     8c87 <safe_lshift_func_uint8_t_u_u+0x3b>
    8c78:	0f b6 55 fc          	movzbl -0x4(%rbp),%edx
    8c7c:	8b 45 f8             	mov    -0x8(%rbp),%eax
    8c7f:	89 c1                	mov    %eax,%ecx
    8c81:	d3 e2                	shl    %cl,%edx
    8c83:	89 d0                	mov    %edx,%eax
    8c85:	eb 04                	jmp    8c8b <safe_lshift_func_uint8_t_u_u+0x3f>
    8c87:	0f b6 45 fc          	movzbl -0x4(%rbp),%eax
    8c8b:	5d                   	pop    %rbp
    8c8c:	c3                   	retq   

0000000000008c8d <safe_rshift_func_uint8_t_u_s>:
    8c8d:	f3 0f 1e fa          	endbr64 
    8c91:	55                   	push   %rbp
    8c92:	48 89 e5             	mov    %rsp,%rbp
    8c95:	89 f8                	mov    %edi,%eax
    8c97:	89 75 f8             	mov    %esi,-0x8(%rbp)
    8c9a:	88 45 fc             	mov    %al,-0x4(%rbp)
    8c9d:	83 7d f8 00          	cmpl   $0x0,-0x8(%rbp)
    8ca1:	78 15                	js     8cb8 <safe_rshift_func_uint8_t_u_s+0x2b>
    8ca3:	83 7d f8 1f          	cmpl   $0x1f,-0x8(%rbp)
    8ca7:	7f 0f                	jg     8cb8 <safe_rshift_func_uint8_t_u_s+0x2b>
    8ca9:	0f b6 55 fc          	movzbl -0x4(%rbp),%edx
    8cad:	8b 45 f8             	mov    -0x8(%rbp),%eax
    8cb0:	89 c1                	mov    %eax,%ecx
    8cb2:	d3 fa                	sar    %cl,%edx
    8cb4:	89 d0                	mov    %edx,%eax
    8cb6:	eb 04                	jmp    8cbc <safe_rshift_func_uint8_t_u_s+0x2f>
    8cb8:	0f b6 45 fc          	movzbl -0x4(%rbp),%eax
    8cbc:	5d                   	pop    %rbp
    8cbd:	c3                   	retq   

0000000000008cbe <safe_rshift_func_uint8_t_u_u>:
    8cbe:	f3 0f 1e fa          	endbr64 
    8cc2:	55                   	push   %rbp
    8cc3:	48 89 e5             	mov    %rsp,%rbp
    8cc6:	89 f8                	mov    %edi,%eax
    8cc8:	89 75 f8             	mov    %esi,-0x8(%rbp)
    8ccb:	88 45 fc             	mov    %al,-0x4(%rbp)
    8cce:	83 7d f8 1f          	cmpl   $0x1f,-0x8(%rbp)
    8cd2:	77 0f                	ja     8ce3 <safe_rshift_func_uint8_t_u_u+0x25>
    8cd4:	0f b6 55 fc          	movzbl -0x4(%rbp),%edx
    8cd8:	8b 45 f8             	mov    -0x8(%rbp),%eax
    8cdb:	89 c1                	mov    %eax,%ecx
    8cdd:	d3 fa                	sar    %cl,%edx
    8cdf:	89 d0                	mov    %edx,%eax
    8ce1:	eb 04                	jmp    8ce7 <safe_rshift_func_uint8_t_u_u+0x29>
    8ce3:	0f b6 45 fc          	movzbl -0x4(%rbp),%eax
    8ce7:	5d                   	pop    %rbp
    8ce8:	c3                   	retq   

0000000000008ce9 <safe_unary_minus_func_uint16_t_u>:
    8ce9:	f3 0f 1e fa          	endbr64 
    8ced:	55                   	push   %rbp
    8cee:	48 89 e5             	mov    %rsp,%rbp
    8cf1:	89 f8                	mov    %edi,%eax
    8cf3:	66 89 45 fc          	mov    %ax,-0x4(%rbp)
    8cf7:	0f b7 45 fc          	movzwl -0x4(%rbp),%eax
    8cfb:	f7 d8                	neg    %eax
    8cfd:	5d                   	pop    %rbp
    8cfe:	c3                   	retq   

0000000000008cff <safe_add_func_uint16_t_u_u>:
    8cff:	f3 0f 1e fa          	endbr64 
    8d03:	55                   	push   %rbp
    8d04:	48 89 e5             	mov    %rsp,%rbp
    8d07:	89 fa                	mov    %edi,%edx
    8d09:	89 f0                	mov    %esi,%eax
    8d0b:	66 89 55 fc          	mov    %dx,-0x4(%rbp)
    8d0f:	66 89 45 f8          	mov    %ax,-0x8(%rbp)
    8d13:	0f b7 55 fc          	movzwl -0x4(%rbp),%edx
    8d17:	0f b7 45 f8          	movzwl -0x8(%rbp),%eax
    8d1b:	01 d0                	add    %edx,%eax
    8d1d:	5d                   	pop    %rbp
    8d1e:	c3                   	retq   

0000000000008d1f <safe_sub_func_uint16_t_u_u>:
    8d1f:	f3 0f 1e fa          	endbr64 
    8d23:	55                   	push   %rbp
    8d24:	48 89 e5             	mov    %rsp,%rbp
    8d27:	89 fa                	mov    %edi,%edx
    8d29:	89 f0                	mov    %esi,%eax
    8d2b:	66 89 55 fc          	mov    %dx,-0x4(%rbp)
    8d2f:	66 89 45 f8          	mov    %ax,-0x8(%rbp)
    8d33:	0f b7 45 fc          	movzwl -0x4(%rbp),%eax
    8d37:	66 2b 45 f8          	sub    -0x8(%rbp),%ax
    8d3b:	5d                   	pop    %rbp
    8d3c:	c3                   	retq   

0000000000008d3d <safe_mul_func_uint16_t_u_u>:
    8d3d:	f3 0f 1e fa          	endbr64 
    8d41:	55                   	push   %rbp
    8d42:	48 89 e5             	mov    %rsp,%rbp
    8d45:	89 fa                	mov    %edi,%edx
    8d47:	89 f0                	mov    %esi,%eax
    8d49:	66 89 55 fc          	mov    %dx,-0x4(%rbp)
    8d4d:	66 89 45 f8          	mov    %ax,-0x8(%rbp)
    8d51:	0f b7 45 fc          	movzwl -0x4(%rbp),%eax
    8d55:	66 0f af 45 f8       	imul   -0x8(%rbp),%ax
    8d5a:	5d                   	pop    %rbp
    8d5b:	c3                   	retq   

0000000000008d5c <safe_mod_func_uint16_t_u_u>:
    8d5c:	f3 0f 1e fa          	endbr64 
    8d60:	55                   	push   %rbp
    8d61:	48 89 e5             	mov    %rsp,%rbp
    8d64:	89 fa                	mov    %edi,%edx
    8d66:	89 f0                	mov    %esi,%eax
    8d68:	66 89 55 fc          	mov    %dx,-0x4(%rbp)
    8d6c:	66 89 45 f8          	mov    %ax,-0x8(%rbp)
    8d70:	66 83 7d f8 00       	cmpw   $0x0,-0x8(%rbp)
    8d75:	74 11                	je     8d88 <safe_mod_func_uint16_t_u_u+0x2c>
    8d77:	0f b7 45 fc          	movzwl -0x4(%rbp),%eax
    8d7b:	ba 00 00 00 00       	mov    $0x0,%edx
    8d80:	66 f7 75 f8          	divw   -0x8(%rbp)
    8d84:	89 d0                	mov    %edx,%eax
    8d86:	eb 04                	jmp    8d8c <safe_mod_func_uint16_t_u_u+0x30>
    8d88:	0f b7 45 fc          	movzwl -0x4(%rbp),%eax
    8d8c:	5d                   	pop    %rbp
    8d8d:	c3                   	retq   

0000000000008d8e <safe_div_func_uint16_t_u_u>:
    8d8e:	f3 0f 1e fa          	endbr64 
    8d92:	55                   	push   %rbp
    8d93:	48 89 e5             	mov    %rsp,%rbp
    8d96:	89 fa                	mov    %edi,%edx
    8d98:	89 f0                	mov    %esi,%eax
    8d9a:	66 89 55 fc          	mov    %dx,-0x4(%rbp)
    8d9e:	66 89 45 f8          	mov    %ax,-0x8(%rbp)
    8da2:	66 83 7d f8 00       	cmpw   $0x0,-0x8(%rbp)
    8da7:	74 0f                	je     8db8 <safe_div_func_uint16_t_u_u+0x2a>
    8da9:	0f b7 45 fc          	movzwl -0x4(%rbp),%eax
    8dad:	ba 00 00 00 00       	mov    $0x0,%edx
    8db2:	66 f7 75 f8          	divw   -0x8(%rbp)
    8db6:	eb 04                	jmp    8dbc <safe_div_func_uint16_t_u_u+0x2e>
    8db8:	0f b7 45 fc          	movzwl -0x4(%rbp),%eax
    8dbc:	5d                   	pop    %rbp
    8dbd:	c3                   	retq   

0000000000008dbe <safe_lshift_func_uint16_t_u_s>:
    8dbe:	f3 0f 1e fa          	endbr64 
    8dc2:	55                   	push   %rbp
    8dc3:	48 89 e5             	mov    %rsp,%rbp
    8dc6:	89 f8                	mov    %edi,%eax
    8dc8:	89 75 f8             	mov    %esi,-0x8(%rbp)
    8dcb:	66 89 45 fc          	mov    %ax,-0x4(%rbp)
    8dcf:	83 7d f8 00          	cmpl   $0x0,-0x8(%rbp)
    8dd3:	78 2b                	js     8e00 <safe_lshift_func_uint16_t_u_s+0x42>
    8dd5:	83 7d f8 1f          	cmpl   $0x1f,-0x8(%rbp)
    8dd9:	7f 25                	jg     8e00 <safe_lshift_func_uint16_t_u_s+0x42>
    8ddb:	0f b7 55 fc          	movzwl -0x4(%rbp),%edx
    8ddf:	8b 45 f8             	mov    -0x8(%rbp),%eax
    8de2:	be ff ff 00 00       	mov    $0xffff,%esi
    8de7:	89 c1                	mov    %eax,%ecx
    8de9:	d3 fe                	sar    %cl,%esi
    8deb:	89 f0                	mov    %esi,%eax
    8ded:	39 c2                	cmp    %eax,%edx
    8def:	7f 0f                	jg     8e00 <safe_lshift_func_uint16_t_u_s+0x42>
    8df1:	0f b7 55 fc          	movzwl -0x4(%rbp),%edx
    8df5:	8b 45 f8             	mov    -0x8(%rbp),%eax
    8df8:	89 c1                	mov    %eax,%ecx
    8dfa:	d3 e2                	shl    %cl,%edx
    8dfc:	89 d0                	mov    %edx,%eax
    8dfe:	eb 04                	jmp    8e04 <safe_lshift_func_uint16_t_u_s+0x46>
    8e00:	0f b7 45 fc          	movzwl -0x4(%rbp),%eax
    8e04:	5d                   	pop    %rbp
    8e05:	c3                   	retq   

0000000000008e06 <safe_lshift_func_uint16_t_u_u>:
    8e06:	f3 0f 1e fa          	endbr64 
    8e0a:	55                   	push   %rbp
    8e0b:	48 89 e5             	mov    %rsp,%rbp
    8e0e:	89 f8                	mov    %edi,%eax
    8e10:	89 75 f8             	mov    %esi,-0x8(%rbp)
    8e13:	66 89 45 fc          	mov    %ax,-0x4(%rbp)
    8e17:	83 7d f8 1f          	cmpl   $0x1f,-0x8(%rbp)
    8e1b:	77 25                	ja     8e42 <safe_lshift_func_uint16_t_u_u+0x3c>
    8e1d:	0f b7 55 fc          	movzwl -0x4(%rbp),%edx
    8e21:	8b 45 f8             	mov    -0x8(%rbp),%eax
    8e24:	be ff ff 00 00       	mov    $0xffff,%esi
    8e29:	89 c1                	mov    %eax,%ecx
    8e2b:	d3 fe                	sar    %cl,%esi
    8e2d:	89 f0                	mov    %esi,%eax
    8e2f:	39 c2                	cmp    %eax,%edx
    8e31:	7f 0f                	jg     8e42 <safe_lshift_func_uint16_t_u_u+0x3c>
    8e33:	0f b7 55 fc          	movzwl -0x4(%rbp),%edx
    8e37:	8b 45 f8             	mov    -0x8(%rbp),%eax
    8e3a:	89 c1                	mov    %eax,%ecx
    8e3c:	d3 e2                	shl    %cl,%edx
    8e3e:	89 d0                	mov    %edx,%eax
    8e40:	eb 04                	jmp    8e46 <safe_lshift_func_uint16_t_u_u+0x40>
    8e42:	0f b7 45 fc          	movzwl -0x4(%rbp),%eax
    8e46:	5d                   	pop    %rbp
    8e47:	c3                   	retq   

0000000000008e48 <safe_rshift_func_uint16_t_u_s>:
    8e48:	f3 0f 1e fa          	endbr64 
    8e4c:	55                   	push   %rbp
    8e4d:	48 89 e5             	mov    %rsp,%rbp
    8e50:	89 f8                	mov    %edi,%eax
    8e52:	89 75 f8             	mov    %esi,-0x8(%rbp)
    8e55:	66 89 45 fc          	mov    %ax,-0x4(%rbp)
    8e59:	83 7d f8 00          	cmpl   $0x0,-0x8(%rbp)
    8e5d:	78 15                	js     8e74 <safe_rshift_func_uint16_t_u_s+0x2c>
    8e5f:	83 7d f8 1f          	cmpl   $0x1f,-0x8(%rbp)
    8e63:	7f 0f                	jg     8e74 <safe_rshift_func_uint16_t_u_s+0x2c>
    8e65:	0f b7 55 fc          	movzwl -0x4(%rbp),%edx
    8e69:	8b 45 f8             	mov    -0x8(%rbp),%eax
    8e6c:	89 c1                	mov    %eax,%ecx
    8e6e:	d3 fa                	sar    %cl,%edx
    8e70:	89 d0                	mov    %edx,%eax
    8e72:	eb 04                	jmp    8e78 <safe_rshift_func_uint16_t_u_s+0x30>
    8e74:	0f b7 45 fc          	movzwl -0x4(%rbp),%eax
    8e78:	5d                   	pop    %rbp
    8e79:	c3                   	retq   

0000000000008e7a <safe_rshift_func_uint16_t_u_u>:
    8e7a:	f3 0f 1e fa          	endbr64 
    8e7e:	55                   	push   %rbp
    8e7f:	48 89 e5             	mov    %rsp,%rbp
    8e82:	89 f8                	mov    %edi,%eax
    8e84:	89 75 f8             	mov    %esi,-0x8(%rbp)
    8e87:	66 89 45 fc          	mov    %ax,-0x4(%rbp)
    8e8b:	83 7d f8 1f          	cmpl   $0x1f,-0x8(%rbp)
    8e8f:	77 0f                	ja     8ea0 <safe_rshift_func_uint16_t_u_u+0x26>
    8e91:	0f b7 55 fc          	movzwl -0x4(%rbp),%edx
    8e95:	8b 45 f8             	mov    -0x8(%rbp),%eax
    8e98:	89 c1                	mov    %eax,%ecx
    8e9a:	d3 fa                	sar    %cl,%edx
    8e9c:	89 d0                	mov    %edx,%eax
    8e9e:	eb 04                	jmp    8ea4 <safe_rshift_func_uint16_t_u_u+0x2a>
    8ea0:	0f b7 45 fc          	movzwl -0x4(%rbp),%eax
    8ea4:	5d                   	pop    %rbp
    8ea5:	c3                   	retq   

0000000000008ea6 <safe_unary_minus_func_uint32_t_u>:
    8ea6:	f3 0f 1e fa          	endbr64 
    8eaa:	55                   	push   %rbp
    8eab:	48 89 e5             	mov    %rsp,%rbp
    8eae:	89 7d fc             	mov    %edi,-0x4(%rbp)
    8eb1:	8b 45 fc             	mov    -0x4(%rbp),%eax
    8eb4:	f7 d8                	neg    %eax
    8eb6:	5d                   	pop    %rbp
    8eb7:	c3                   	retq   

0000000000008eb8 <safe_add_func_uint32_t_u_u>:
    8eb8:	f3 0f 1e fa          	endbr64 
    8ebc:	55                   	push   %rbp
    8ebd:	48 89 e5             	mov    %rsp,%rbp
    8ec0:	89 7d fc             	mov    %edi,-0x4(%rbp)
    8ec3:	89 75 f8             	mov    %esi,-0x8(%rbp)
    8ec6:	8b 55 fc             	mov    -0x4(%rbp),%edx
    8ec9:	8b 45 f8             	mov    -0x8(%rbp),%eax
    8ecc:	01 d0                	add    %edx,%eax
    8ece:	5d                   	pop    %rbp
    8ecf:	c3                   	retq   

0000000000008ed0 <safe_sub_func_uint32_t_u_u>:
    8ed0:	f3 0f 1e fa          	endbr64 
    8ed4:	55                   	push   %rbp
    8ed5:	48 89 e5             	mov    %rsp,%rbp
    8ed8:	89 7d fc             	mov    %edi,-0x4(%rbp)
    8edb:	89 75 f8             	mov    %esi,-0x8(%rbp)
    8ede:	8b 45 fc             	mov    -0x4(%rbp),%eax
    8ee1:	2b 45 f8             	sub    -0x8(%rbp),%eax
    8ee4:	5d                   	pop    %rbp
    8ee5:	c3                   	retq   

0000000000008ee6 <safe_mul_func_uint32_t_u_u>:
    8ee6:	f3 0f 1e fa          	endbr64 
    8eea:	55                   	push   %rbp
    8eeb:	48 89 e5             	mov    %rsp,%rbp
    8eee:	89 7d fc             	mov    %edi,-0x4(%rbp)
    8ef1:	89 75 f8             	mov    %esi,-0x8(%rbp)
    8ef4:	8b 45 fc             	mov    -0x4(%rbp),%eax
    8ef7:	0f af 45 f8          	imul   -0x8(%rbp),%eax
    8efb:	5d                   	pop    %rbp
    8efc:	c3                   	retq   

0000000000008efd <safe_mod_func_uint32_t_u_u>:
    8efd:	f3 0f 1e fa          	endbr64 
    8f01:	55                   	push   %rbp
    8f02:	48 89 e5             	mov    %rsp,%rbp
    8f05:	89 7d fc             	mov    %edi,-0x4(%rbp)
    8f08:	89 75 f8             	mov    %esi,-0x8(%rbp)
    8f0b:	83 7d f8 00          	cmpl   $0x0,-0x8(%rbp)
    8f0f:	74 0f                	je     8f20 <safe_mod_func_uint32_t_u_u+0x23>
    8f11:	8b 45 fc             	mov    -0x4(%rbp),%eax
    8f14:	ba 00 00 00 00       	mov    $0x0,%edx
    8f19:	f7 75 f8             	divl   -0x8(%rbp)
    8f1c:	89 d0                	mov    %edx,%eax
    8f1e:	eb 03                	jmp    8f23 <safe_mod_func_uint32_t_u_u+0x26>
    8f20:	8b 45 fc             	mov    -0x4(%rbp),%eax
    8f23:	5d                   	pop    %rbp
    8f24:	c3                   	retq   

0000000000008f25 <safe_div_func_uint32_t_u_u>:
    8f25:	f3 0f 1e fa          	endbr64 
    8f29:	55                   	push   %rbp
    8f2a:	48 89 e5             	mov    %rsp,%rbp
    8f2d:	89 7d fc             	mov    %edi,-0x4(%rbp)
    8f30:	89 75 f8             	mov    %esi,-0x8(%rbp)
    8f33:	83 7d f8 00          	cmpl   $0x0,-0x8(%rbp)
    8f37:	74 0d                	je     8f46 <safe_div_func_uint32_t_u_u+0x21>
    8f39:	8b 45 fc             	mov    -0x4(%rbp),%eax
    8f3c:	ba 00 00 00 00       	mov    $0x0,%edx
    8f41:	f7 75 f8             	divl   -0x8(%rbp)
    8f44:	eb 03                	jmp    8f49 <safe_div_func_uint32_t_u_u+0x24>
    8f46:	8b 45 fc             	mov    -0x4(%rbp),%eax
    8f49:	5d                   	pop    %rbp
    8f4a:	c3                   	retq   

0000000000008f4b <safe_lshift_func_uint32_t_u_s>:
    8f4b:	f3 0f 1e fa          	endbr64 
    8f4f:	55                   	push   %rbp
    8f50:	48 89 e5             	mov    %rsp,%rbp
    8f53:	89 7d fc             	mov    %edi,-0x4(%rbp)
    8f56:	89 75 f8             	mov    %esi,-0x8(%rbp)
    8f59:	83 7d f8 00          	cmpl   $0x0,-0x8(%rbp)
    8f5d:	78 27                	js     8f86 <safe_lshift_func_uint32_t_u_s+0x3b>
    8f5f:	83 7d f8 1f          	cmpl   $0x1f,-0x8(%rbp)
    8f63:	7f 21                	jg     8f86 <safe_lshift_func_uint32_t_u_s+0x3b>
    8f65:	8b 45 f8             	mov    -0x8(%rbp),%eax
    8f68:	ba ff ff ff ff       	mov    $0xffffffff,%edx
    8f6d:	89 c1                	mov    %eax,%ecx
    8f6f:	d3 ea                	shr    %cl,%edx
    8f71:	89 d0                	mov    %edx,%eax
    8f73:	39 45 fc             	cmp    %eax,-0x4(%rbp)
    8f76:	77 0e                	ja     8f86 <safe_lshift_func_uint32_t_u_s+0x3b>
    8f78:	8b 45 f8             	mov    -0x8(%rbp),%eax
    8f7b:	8b 55 fc             	mov    -0x4(%rbp),%edx
    8f7e:	89 c1                	mov    %eax,%ecx
    8f80:	d3 e2                	shl    %cl,%edx
    8f82:	89 d0                	mov    %edx,%eax
    8f84:	eb 03                	jmp    8f89 <safe_lshift_func_uint32_t_u_s+0x3e>
    8f86:	8b 45 fc             	mov    -0x4(%rbp),%eax
    8f89:	5d                   	pop    %rbp
    8f8a:	c3                   	retq   

0000000000008f8b <safe_lshift_func_uint32_t_u_u>:
    8f8b:	f3 0f 1e fa          	endbr64 
    8f8f:	55                   	push   %rbp
    8f90:	48 89 e5             	mov    %rsp,%rbp
    8f93:	89 7d fc             	mov    %edi,-0x4(%rbp)
    8f96:	89 75 f8             	mov    %esi,-0x8(%rbp)
    8f99:	83 7d f8 1f          	cmpl   $0x1f,-0x8(%rbp)
    8f9d:	77 21                	ja     8fc0 <safe_lshift_func_uint32_t_u_u+0x35>
    8f9f:	8b 45 f8             	mov    -0x8(%rbp),%eax
    8fa2:	ba ff ff ff ff       	mov    $0xffffffff,%edx
    8fa7:	89 c1                	mov    %eax,%ecx
    8fa9:	d3 ea                	shr    %cl,%edx
    8fab:	89 d0                	mov    %edx,%eax
    8fad:	39 45 fc             	cmp    %eax,-0x4(%rbp)
    8fb0:	77 0e                	ja     8fc0 <safe_lshift_func_uint32_t_u_u+0x35>
    8fb2:	8b 45 f8             	mov    -0x8(%rbp),%eax
    8fb5:	8b 55 fc             	mov    -0x4(%rbp),%edx
    8fb8:	89 c1                	mov    %eax,%ecx
    8fba:	d3 e2                	shl    %cl,%edx
    8fbc:	89 d0                	mov    %edx,%eax
    8fbe:	eb 03                	jmp    8fc3 <safe_lshift_func_uint32_t_u_u+0x38>
    8fc0:	8b 45 fc             	mov    -0x4(%rbp),%eax
    8fc3:	5d                   	pop    %rbp
    8fc4:	c3                   	retq   

0000000000008fc5 <safe_rshift_func_uint32_t_u_s>:
    8fc5:	f3 0f 1e fa          	endbr64 
    8fc9:	55                   	push   %rbp
    8fca:	48 89 e5             	mov    %rsp,%rbp
    8fcd:	89 7d fc             	mov    %edi,-0x4(%rbp)
    8fd0:	89 75 f8             	mov    %esi,-0x8(%rbp)
    8fd3:	83 7d f8 00          	cmpl   $0x0,-0x8(%rbp)
    8fd7:	78 14                	js     8fed <safe_rshift_func_uint32_t_u_s+0x28>
    8fd9:	83 7d f8 1f          	cmpl   $0x1f,-0x8(%rbp)
    8fdd:	7f 0e                	jg     8fed <safe_rshift_func_uint32_t_u_s+0x28>
    8fdf:	8b 45 f8             	mov    -0x8(%rbp),%eax
    8fe2:	8b 55 fc             	mov    -0x4(%rbp),%edx
    8fe5:	89 c1                	mov    %eax,%ecx
    8fe7:	d3 ea                	shr    %cl,%edx
    8fe9:	89 d0                	mov    %edx,%eax
    8feb:	eb 03                	jmp    8ff0 <safe_rshift_func_uint32_t_u_s+0x2b>
    8fed:	8b 45 fc             	mov    -0x4(%rbp),%eax
    8ff0:	5d                   	pop    %rbp
    8ff1:	c3                   	retq   

0000000000008ff2 <safe_rshift_func_uint32_t_u_u>:
    8ff2:	f3 0f 1e fa          	endbr64 
    8ff6:	55                   	push   %rbp
    8ff7:	48 89 e5             	mov    %rsp,%rbp
    8ffa:	89 7d fc             	mov    %edi,-0x4(%rbp)
    8ffd:	89 75 f8             	mov    %esi,-0x8(%rbp)
    9000:	83 7d f8 1f          	cmpl   $0x1f,-0x8(%rbp)
    9004:	77 0e                	ja     9014 <safe_rshift_func_uint32_t_u_u+0x22>
    9006:	8b 45 f8             	mov    -0x8(%rbp),%eax
    9009:	8b 55 fc             	mov    -0x4(%rbp),%edx
    900c:	89 c1                	mov    %eax,%ecx
    900e:	d3 ea                	shr    %cl,%edx
    9010:	89 d0                	mov    %edx,%eax
    9012:	eb 03                	jmp    9017 <safe_rshift_func_uint32_t_u_u+0x25>
    9014:	8b 45 fc             	mov    -0x4(%rbp),%eax
    9017:	5d                   	pop    %rbp
    9018:	c3                   	retq   

0000000000009019 <safe_unary_minus_func_uint64_t_u>:
    9019:	f3 0f 1e fa          	endbr64 
    901d:	55                   	push   %rbp
    901e:	48 89 e5             	mov    %rsp,%rbp
    9021:	48 89 7d f8          	mov    %rdi,-0x8(%rbp)
    9025:	48 8b 45 f8          	mov    -0x8(%rbp),%rax
    9029:	48 f7 d8             	neg    %rax
    902c:	5d                   	pop    %rbp
    902d:	c3                   	retq   

000000000000902e <safe_add_func_uint64_t_u_u>:
    902e:	f3 0f 1e fa          	endbr64 
    9032:	55                   	push   %rbp
    9033:	48 89 e5             	mov    %rsp,%rbp
    9036:	48 89 7d f8          	mov    %rdi,-0x8(%rbp)
    903a:	48 89 75 f0          	mov    %rsi,-0x10(%rbp)
    903e:	48 8b 55 f8          	mov    -0x8(%rbp),%rdx
    9042:	48 8b 45 f0          	mov    -0x10(%rbp),%rax
    9046:	48 01 d0             	add    %rdx,%rax
    9049:	5d                   	pop    %rbp
    904a:	c3                   	retq   

000000000000904b <safe_sub_func_uint64_t_u_u>:
    904b:	f3 0f 1e fa          	endbr64 
    904f:	55                   	push   %rbp
    9050:	48 89 e5             	mov    %rsp,%rbp
    9053:	48 89 7d f8          	mov    %rdi,-0x8(%rbp)
    9057:	48 89 75 f0          	mov    %rsi,-0x10(%rbp)
    905b:	48 8b 45 f8          	mov    -0x8(%rbp),%rax
    905f:	48 2b 45 f0          	sub    -0x10(%rbp),%rax
    9063:	5d                   	pop    %rbp
    9064:	c3                   	retq   

0000000000009065 <safe_mul_func_uint64_t_u_u>:
    9065:	f3 0f 1e fa          	endbr64 
    9069:	55                   	push   %rbp
    906a:	48 89 e5             	mov    %rsp,%rbp
    906d:	48 89 7d f8          	mov    %rdi,-0x8(%rbp)
    9071:	48 89 75 f0          	mov    %rsi,-0x10(%rbp)
    9075:	48 8b 45 f8          	mov    -0x8(%rbp),%rax
    9079:	48 0f af 45 f0       	imul   -0x10(%rbp),%rax
    907e:	5d                   	pop    %rbp
    907f:	c3                   	retq   

0000000000009080 <safe_mod_func_uint64_t_u_u>:
    9080:	f3 0f 1e fa          	endbr64 
    9084:	55                   	push   %rbp
    9085:	48 89 e5             	mov    %rsp,%rbp
    9088:	48 89 7d f8          	mov    %rdi,-0x8(%rbp)
    908c:	48 89 75 f0          	mov    %rsi,-0x10(%rbp)
    9090:	48 83 7d f0 00       	cmpq   $0x0,-0x10(%rbp)
    9095:	74 12                	je     90a9 <safe_mod_func_uint64_t_u_u+0x29>
    9097:	48 8b 45 f8          	mov    -0x8(%rbp),%rax
    909b:	ba 00 00 00 00       	mov    $0x0,%edx
    90a0:	48 f7 75 f0          	divq   -0x10(%rbp)
    90a4:	48 89 d0             	mov    %rdx,%rax
    90a7:	eb 04                	jmp    90ad <safe_mod_func_uint64_t_u_u+0x2d>
    90a9:	48 8b 45 f8          	mov    -0x8(%rbp),%rax
    90ad:	5d                   	pop    %rbp
    90ae:	c3                   	retq   

00000000000090af <safe_div_func_uint64_t_u_u>:
    90af:	f3 0f 1e fa          	endbr64 
    90b3:	55                   	push   %rbp
    90b4:	48 89 e5             	mov    %rsp,%rbp
    90b7:	48 89 7d f8          	mov    %rdi,-0x8(%rbp)
    90bb:	48 89 75 f0          	mov    %rsi,-0x10(%rbp)
    90bf:	48 83 7d f0 00       	cmpq   $0x0,-0x10(%rbp)
    90c4:	74 0f                	je     90d5 <safe_div_func_uint64_t_u_u+0x26>
    90c6:	48 8b 45 f8          	mov    -0x8(%rbp),%rax
    90ca:	ba 00 00 00 00       	mov    $0x0,%edx
    90cf:	48 f7 75 f0          	divq   -0x10(%rbp)
    90d3:	eb 04                	jmp    90d9 <safe_div_func_uint64_t_u_u+0x2a>
    90d5:	48 8b 45 f8          	mov    -0x8(%rbp),%rax
    90d9:	5d                   	pop    %rbp
    90da:	c3                   	retq   

00000000000090db <safe_lshift_func_uint64_t_u_s>:
    90db:	f3 0f 1e fa          	endbr64 
    90df:	55                   	push   %rbp
    90e0:	48 89 e5             	mov    %rsp,%rbp
    90e3:	48 89 7d f8          	mov    %rdi,-0x8(%rbp)
    90e7:	89 75 f4             	mov    %esi,-0xc(%rbp)
    90ea:	83 7d f4 00          	cmpl   $0x0,-0xc(%rbp)
    90ee:	78 2f                	js     911f <safe_lshift_func_uint64_t_u_s+0x44>
    90f0:	83 7d f4 1f          	cmpl   $0x1f,-0xc(%rbp)
    90f4:	7f 29                	jg     911f <safe_lshift_func_uint64_t_u_s+0x44>
    90f6:	8b 45 f4             	mov    -0xc(%rbp),%eax
    90f9:	48 c7 c2 ff ff ff ff 	mov    $0xffffffffffffffff,%rdx
    9100:	89 c1                	mov    %eax,%ecx
    9102:	48 d3 ea             	shr    %cl,%rdx
    9105:	48 89 d0             	mov    %rdx,%rax
    9108:	48 39 45 f8          	cmp    %rax,-0x8(%rbp)
    910c:	77 11                	ja     911f <safe_lshift_func_uint64_t_u_s+0x44>
    910e:	8b 45 f4             	mov    -0xc(%rbp),%eax
    9111:	48 8b 55 f8          	mov    -0x8(%rbp),%rdx
    9115:	89 c1                	mov    %eax,%ecx
    9117:	48 d3 e2             	shl    %cl,%rdx
    911a:	48 89 d0             	mov    %rdx,%rax
    911d:	eb 04                	jmp    9123 <safe_lshift_func_uint64_t_u_s+0x48>
    911f:	48 8b 45 f8          	mov    -0x8(%rbp),%rax
    9123:	5d                   	pop    %rbp
    9124:	c3                   	retq   

0000000000009125 <safe_lshift_func_uint64_t_u_u>:
    9125:	f3 0f 1e fa          	endbr64 
    9129:	55                   	push   %rbp
    912a:	48 89 e5             	mov    %rsp,%rbp
    912d:	48 89 7d f8          	mov    %rdi,-0x8(%rbp)
    9131:	89 75 f4             	mov    %esi,-0xc(%rbp)
    9134:	83 7d f4 1f          	cmpl   $0x1f,-0xc(%rbp)
    9138:	77 29                	ja     9163 <safe_lshift_func_uint64_t_u_u+0x3e>
    913a:	8b 45 f4             	mov    -0xc(%rbp),%eax
    913d:	48 c7 c2 ff ff ff ff 	mov    $0xffffffffffffffff,%rdx
    9144:	89 c1                	mov    %eax,%ecx
    9146:	48 d3 ea             	shr    %cl,%rdx
    9149:	48 89 d0             	mov    %rdx,%rax
    914c:	48 39 45 f8          	cmp    %rax,-0x8(%rbp)
    9150:	77 11                	ja     9163 <safe_lshift_func_uint64_t_u_u+0x3e>
    9152:	8b 45 f4             	mov    -0xc(%rbp),%eax
    9155:	48 8b 55 f8          	mov    -0x8(%rbp),%rdx
    9159:	89 c1                	mov    %eax,%ecx
    915b:	48 d3 e2             	shl    %cl,%rdx
    915e:	48 89 d0             	mov    %rdx,%rax
    9161:	eb 04                	jmp    9167 <safe_lshift_func_uint64_t_u_u+0x42>
    9163:	48 8b 45 f8          	mov    -0x8(%rbp),%rax
    9167:	5d                   	pop    %rbp
    9168:	c3                   	retq   

0000000000009169 <safe_rshift_func_uint64_t_u_s>:
    9169:	f3 0f 1e fa          	endbr64 
    916d:	55                   	push   %rbp
    916e:	48 89 e5             	mov    %rsp,%rbp
    9171:	48 89 7d f8          	mov    %rdi,-0x8(%rbp)
    9175:	89 75 f4             	mov    %esi,-0xc(%rbp)
    9178:	83 7d f4 00          	cmpl   $0x0,-0xc(%rbp)
    917c:	78 17                	js     9195 <safe_rshift_func_uint64_t_u_s+0x2c>
    917e:	83 7d f4 1f          	cmpl   $0x1f,-0xc(%rbp)
    9182:	7f 11                	jg     9195 <safe_rshift_func_uint64_t_u_s+0x2c>
    9184:	8b 45 f4             	mov    -0xc(%rbp),%eax
    9187:	48 8b 55 f8          	mov    -0x8(%rbp),%rdx
    918b:	89 c1                	mov    %eax,%ecx
    918d:	48 d3 ea             	shr    %cl,%rdx
    9190:	48 89 d0             	mov    %rdx,%rax
    9193:	eb 04                	jmp    9199 <safe_rshift_func_uint64_t_u_s+0x30>
    9195:	48 8b 45 f8          	mov    -0x8(%rbp),%rax
    9199:	5d                   	pop    %rbp
    919a:	c3                   	retq   

000000000000919b <safe_rshift_func_uint64_t_u_u>:
    919b:	f3 0f 1e fa          	endbr64 
    919f:	55                   	push   %rbp
    91a0:	48 89 e5             	mov    %rsp,%rbp
    91a3:	48 89 7d f8          	mov    %rdi,-0x8(%rbp)
    91a7:	89 75 f4             	mov    %esi,-0xc(%rbp)
    91aa:	83 7d f4 1f          	cmpl   $0x1f,-0xc(%rbp)
    91ae:	77 11                	ja     91c1 <safe_rshift_func_uint64_t_u_u+0x26>
    91b0:	8b 45 f4             	mov    -0xc(%rbp),%eax
    91b3:	48 8b 55 f8          	mov    -0x8(%rbp),%rdx
    91b7:	89 c1                	mov    %eax,%ecx
    91b9:	48 d3 ea             	shr    %cl,%rdx
    91bc:	48 89 d0             	mov    %rdx,%rax
    91bf:	eb 04                	jmp    91c5 <safe_rshift_func_uint64_t_u_u+0x2a>
    91c1:	48 8b 45 f8          	mov    -0x8(%rbp),%rax
    91c5:	5d                   	pop    %rbp
    91c6:	c3                   	retq   

00000000000091c7 <safe_add_func_float_f_f>:
    91c7:	f3 0f 1e fa          	endbr64 
    91cb:	55                   	push   %rbp
    91cc:	48 89 e5             	mov    %rsp,%rbp
    91cf:	f3 0f 11 45 fc       	movss  %xmm0,-0x4(%rbp)
    91d4:	f3 0f 11 4d f8       	movss  %xmm1,-0x8(%rbp)
    91d9:	f3 0f 10 4d fc       	movss  -0x4(%rbp),%xmm1
    91de:	f3 0f 10 05 5a d0 00 	movss  0xd05a(%rip),%xmm0        # 16240 <l_1327.4832+0x200>
    91e5:	00 
    91e6:	f3 0f 59 c8          	mulss  %xmm0,%xmm1
    91ea:	f3 0f 10 55 f8       	movss  -0x8(%rbp),%xmm2
    91ef:	f3 0f 10 05 49 d0 00 	movss  0xd049(%rip),%xmm0        # 16240 <l_1327.4832+0x200>
    91f6:	00 
    91f7:	f3 0f 59 c2          	mulss  %xmm2,%xmm0
    91fb:	f3 0f 58 c1          	addss  %xmm1,%xmm0
    91ff:	f3 0f 10 0d 49 d0 00 	movss  0xd049(%rip),%xmm1        # 16250 <l_1327.4832+0x210>
    9206:	00 
    9207:	0f 54 c1             	andps  %xmm1,%xmm0
    920a:	0f 2f 05 4f d0 00 00 	comiss 0xd04f(%rip),%xmm0        # 16260 <l_1327.4832+0x220>
    9211:	76 07                	jbe    921a <safe_add_func_float_f_f+0x53>
    9213:	f3 0f 10 45 fc       	movss  -0x4(%rbp),%xmm0
    9218:	eb 0a                	jmp    9224 <safe_add_func_float_f_f+0x5d>
    921a:	f3 0f 10 45 fc       	movss  -0x4(%rbp),%xmm0
    921f:	f3 0f 58 45 f8       	addss  -0x8(%rbp),%xmm0
    9224:	5d                   	pop    %rbp
    9225:	c3                   	retq   

0000000000009226 <safe_sub_func_float_f_f>:
    9226:	f3 0f 1e fa          	endbr64 
    922a:	55                   	push   %rbp
    922b:	48 89 e5             	mov    %rsp,%rbp
    922e:	f3 0f 11 45 fc       	movss  %xmm0,-0x4(%rbp)
    9233:	f3 0f 11 4d f8       	movss  %xmm1,-0x8(%rbp)
    9238:	f3 0f 10 4d fc       	movss  -0x4(%rbp),%xmm1
    923d:	f3 0f 10 05 fb cf 00 	movss  0xcffb(%rip),%xmm0        # 16240 <l_1327.4832+0x200>
    9244:	00 
    9245:	f3 0f 59 c1          	mulss  %xmm1,%xmm0
    9249:	f3 0f 10 55 f8       	movss  -0x8(%rbp),%xmm2
    924e:	f3 0f 10 0d ea cf 00 	movss  0xcfea(%rip),%xmm1        # 16240 <l_1327.4832+0x200>
    9255:	00 
    9256:	f3 0f 59 ca          	mulss  %xmm2,%xmm1
    925a:	f3 0f 5c c1          	subss  %xmm1,%xmm0
    925e:	f3 0f 10 0d ea cf 00 	movss  0xcfea(%rip),%xmm1        # 16250 <l_1327.4832+0x210>
    9265:	00 
    9266:	0f 54 c1             	andps  %xmm1,%xmm0
    9269:	0f 2f 05 f0 cf 00 00 	comiss 0xcff0(%rip),%xmm0        # 16260 <l_1327.4832+0x220>
    9270:	76 07                	jbe    9279 <safe_sub_func_float_f_f+0x53>
    9272:	f3 0f 10 45 fc       	movss  -0x4(%rbp),%xmm0
    9277:	eb 0a                	jmp    9283 <safe_sub_func_float_f_f+0x5d>
    9279:	f3 0f 10 45 fc       	movss  -0x4(%rbp),%xmm0
    927e:	f3 0f 5c 45 f8       	subss  -0x8(%rbp),%xmm0
    9283:	5d                   	pop    %rbp
    9284:	c3                   	retq   

0000000000009285 <safe_mul_func_float_f_f>:
    9285:	f3 0f 1e fa          	endbr64 
    9289:	55                   	push   %rbp
    928a:	48 89 e5             	mov    %rsp,%rbp
    928d:	f3 0f 11 45 fc       	movss  %xmm0,-0x4(%rbp)
    9292:	f3 0f 11 4d f8       	movss  %xmm1,-0x8(%rbp)
    9297:	f3 0f 10 4d fc       	movss  -0x4(%rbp),%xmm1
    929c:	f3 0f 10 05 c0 cf 00 	movss  0xcfc0(%rip),%xmm0        # 16264 <l_1327.4832+0x224>
    92a3:	00 
    92a4:	f3 0f 59 c8          	mulss  %xmm0,%xmm1
    92a8:	f3 0f 10 55 f8       	movss  -0x8(%rbp),%xmm2
    92ad:	f3 0f 10 05 b3 cf 00 	movss  0xcfb3(%rip),%xmm0        # 16268 <l_1327.4832+0x228>
    92b4:	00 
    92b5:	f3 0f 59 c2          	mulss  %xmm2,%xmm0
    92b9:	f3 0f 59 c1          	mulss  %xmm1,%xmm0
    92bd:	f3 0f 10 0d 8b cf 00 	movss  0xcf8b(%rip),%xmm1        # 16250 <l_1327.4832+0x210>
    92c4:	00 
    92c5:	0f 54 c1             	andps  %xmm1,%xmm0
    92c8:	0f 2f 05 9d cf 00 00 	comiss 0xcf9d(%rip),%xmm0        # 1626c <l_1327.4832+0x22c>
    92cf:	76 07                	jbe    92d8 <safe_mul_func_float_f_f+0x53>
    92d1:	f3 0f 10 45 fc       	movss  -0x4(%rbp),%xmm0
    92d6:	eb 0a                	jmp    92e2 <safe_mul_func_float_f_f+0x5d>
    92d8:	f3 0f 10 45 fc       	movss  -0x4(%rbp),%xmm0
    92dd:	f3 0f 59 45 f8       	mulss  -0x8(%rbp),%xmm0
    92e2:	5d                   	pop    %rbp
    92e3:	c3                   	retq   

00000000000092e4 <safe_div_func_float_f_f>:
    92e4:	f3 0f 1e fa          	endbr64 
    92e8:	55                   	push   %rbp
    92e9:	48 89 e5             	mov    %rsp,%rbp
    92ec:	f3 0f 11 45 fc       	movss  %xmm0,-0x4(%rbp)
    92f1:	f3 0f 11 4d f8       	movss  %xmm1,-0x8(%rbp)
    92f6:	f3 0f 10 45 f8       	movss  -0x8(%rbp),%xmm0
    92fb:	f3 0f 10 0d 4d cf 00 	movss  0xcf4d(%rip),%xmm1        # 16250 <l_1327.4832+0x210>
    9302:	00 
    9303:	0f 54 c8             	andps  %xmm0,%xmm1
    9306:	f3 0f 10 05 62 cf 00 	movss  0xcf62(%rip),%xmm0        # 16270 <l_1327.4832+0x230>
    930d:	00 
    930e:	0f 2f c1             	comiss %xmm1,%xmm0
    9311:	0f 97 c0             	seta   %al
    9314:	83 f0 01             	xor    $0x1,%eax
    9317:	84 c0                	test   %al,%al
    9319:	75 56                	jne    9371 <safe_div_func_float_f_f+0x8d>
    931b:	66 0f ef c0          	pxor   %xmm0,%xmm0
    931f:	0f 2e 45 f8          	ucomiss -0x8(%rbp),%xmm0
    9323:	7a 0a                	jp     932f <safe_div_func_float_f_f+0x4b>
    9325:	66 0f ef c0          	pxor   %xmm0,%xmm0
    9329:	0f 2e 45 f8          	ucomiss -0x8(%rbp),%xmm0
    932d:	74 4e                	je     937d <safe_div_func_float_f_f+0x99>
    932f:	f3 0f 10 4d fc       	movss  -0x4(%rbp),%xmm1
    9334:	f3 0f 10 05 38 cf 00 	movss  0xcf38(%rip),%xmm0        # 16274 <l_1327.4832+0x234>
    933b:	00 
    933c:	f3 0f 59 c1          	mulss  %xmm1,%xmm0
    9340:	f3 0f 10 55 f8       	movss  -0x8(%rbp),%xmm2
    9345:	f3 0f 10 0d 2b cf 00 	movss  0xcf2b(%rip),%xmm1        # 16278 <l_1327.4832+0x238>
    934c:	00 
    934d:	f3 0f 59 ca          	mulss  %xmm2,%xmm1
    9351:	f3 0f 5e c1          	divss  %xmm1,%xmm0
    9355:	f3 0f 10 0d f3 ce 00 	movss  0xcef3(%rip),%xmm1        # 16250 <l_1327.4832+0x210>
    935c:	00 
    935d:	0f 54 c1             	andps  %xmm1,%xmm0
    9360:	0f 2f 05 15 cf 00 00 	comiss 0xcf15(%rip),%xmm0        # 1627c <l_1327.4832+0x23c>
    9367:	0f 97 c0             	seta   %al
    936a:	83 f0 01             	xor    $0x1,%eax
    936d:	84 c0                	test   %al,%al
    936f:	74 0c                	je     937d <safe_div_func_float_f_f+0x99>
    9371:	f3 0f 10 45 fc       	movss  -0x4(%rbp),%xmm0
    9376:	f3 0f 5e 45 f8       	divss  -0x8(%rbp),%xmm0
    937b:	eb 05                	jmp    9382 <safe_div_func_float_f_f+0x9e>
    937d:	f3 0f 10 45 fc       	movss  -0x4(%rbp),%xmm0
    9382:	5d                   	pop    %rbp
    9383:	c3                   	retq   

0000000000009384 <safe_add_func_double_f_f>:
    9384:	f3 0f 1e fa          	endbr64 
    9388:	55                   	push   %rbp
    9389:	48 89 e5             	mov    %rsp,%rbp
    938c:	f2 0f 11 45 f8       	movsd  %xmm0,-0x8(%rbp)
    9391:	f2 0f 11 4d f0       	movsd  %xmm1,-0x10(%rbp)
    9396:	f2 0f 10 4d f8       	movsd  -0x8(%rbp),%xmm1
    939b:	f2 0f 10 05 dd ce 00 	movsd  0xcedd(%rip),%xmm0        # 16280 <l_1327.4832+0x240>
    93a2:	00 
    93a3:	f2 0f 59 c8          	mulsd  %xmm0,%xmm1
    93a7:	f2 0f 10 55 f0       	movsd  -0x10(%rbp),%xmm2
    93ac:	f2 0f 10 05 cc ce 00 	movsd  0xcecc(%rip),%xmm0        # 16280 <l_1327.4832+0x240>
    93b3:	00 
    93b4:	f2 0f 59 c2          	mulsd  %xmm2,%xmm0
    93b8:	f2 0f 58 c1          	addsd  %xmm1,%xmm0
    93bc:	f3 0f 7e 0d cc ce 00 	movq   0xcecc(%rip),%xmm1        # 16290 <l_1327.4832+0x250>
    93c3:	00 
    93c4:	66 0f 54 c1          	andpd  %xmm1,%xmm0
    93c8:	66 0f 2f 05 d0 ce 00 	comisd 0xced0(%rip),%xmm0        # 162a0 <l_1327.4832+0x260>
    93cf:	00 
    93d0:	76 07                	jbe    93d9 <safe_add_func_double_f_f+0x55>
    93d2:	f2 0f 10 45 f8       	movsd  -0x8(%rbp),%xmm0
    93d7:	eb 0a                	jmp    93e3 <safe_add_func_double_f_f+0x5f>
    93d9:	f2 0f 10 45 f8       	movsd  -0x8(%rbp),%xmm0
    93de:	f2 0f 58 45 f0       	addsd  -0x10(%rbp),%xmm0
    93e3:	5d                   	pop    %rbp
    93e4:	c3                   	retq   

00000000000093e5 <safe_sub_func_double_f_f>:
    93e5:	f3 0f 1e fa          	endbr64 
    93e9:	55                   	push   %rbp
    93ea:	48 89 e5             	mov    %rsp,%rbp
    93ed:	f2 0f 11 45 f8       	movsd  %xmm0,-0x8(%rbp)
    93f2:	f2 0f 11 4d f0       	movsd  %xmm1,-0x10(%rbp)
    93f7:	f2 0f 10 4d f8       	movsd  -0x8(%rbp),%xmm1
    93fc:	f2 0f 10 05 7c ce 00 	movsd  0xce7c(%rip),%xmm0        # 16280 <l_1327.4832+0x240>
    9403:	00 
    9404:	f2 0f 59 c1          	mulsd  %xmm1,%xmm0
    9408:	f2 0f 10 55 f0       	movsd  -0x10(%rbp),%xmm2
    940d:	f2 0f 10 0d 6b ce 00 	movsd  0xce6b(%rip),%xmm1        # 16280 <l_1327.4832+0x240>
    9414:	00 
    9415:	f2 0f 59 ca          	mulsd  %xmm2,%xmm1
    9419:	f2 0f 5c c1          	subsd  %xmm1,%xmm0
    941d:	f3 0f 7e 0d 6b ce 00 	movq   0xce6b(%rip),%xmm1        # 16290 <l_1327.4832+0x250>
    9424:	00 
    9425:	66 0f 54 c1          	andpd  %xmm1,%xmm0
    9429:	66 0f 2f 05 6f ce 00 	comisd 0xce6f(%rip),%xmm0        # 162a0 <l_1327.4832+0x260>
    9430:	00 
    9431:	76 07                	jbe    943a <safe_sub_func_double_f_f+0x55>
    9433:	f2 0f 10 45 f8       	movsd  -0x8(%rbp),%xmm0
    9438:	eb 0a                	jmp    9444 <safe_sub_func_double_f_f+0x5f>
    943a:	f2 0f 10 45 f8       	movsd  -0x8(%rbp),%xmm0
    943f:	f2 0f 5c 45 f0       	subsd  -0x10(%rbp),%xmm0
    9444:	5d                   	pop    %rbp
    9445:	c3                   	retq   

0000000000009446 <safe_mul_func_double_f_f>:
    9446:	f3 0f 1e fa          	endbr64 
    944a:	55                   	push   %rbp
    944b:	48 89 e5             	mov    %rsp,%rbp
    944e:	f2 0f 11 45 f8       	movsd  %xmm0,-0x8(%rbp)
    9453:	f2 0f 11 4d f0       	movsd  %xmm1,-0x10(%rbp)
    9458:	f2 0f 10 4d f8       	movsd  -0x8(%rbp),%xmm1
    945d:	f2 0f 10 05 43 ce 00 	movsd  0xce43(%rip),%xmm0        # 162a8 <l_1327.4832+0x268>
    9464:	00 
    9465:	f2 0f 59 c8          	mulsd  %xmm0,%xmm1
    9469:	f2 0f 10 55 f0       	movsd  -0x10(%rbp),%xmm2
    946e:	f2 0f 10 05 3a ce 00 	movsd  0xce3a(%rip),%xmm0        # 162b0 <l_1327.4832+0x270>
    9475:	00 
    9476:	f2 0f 59 c2          	mulsd  %xmm2,%xmm0
    947a:	f2 0f 59 c1          	mulsd  %xmm1,%xmm0
    947e:	f3 0f 7e 0d 0a ce 00 	movq   0xce0a(%rip),%xmm1        # 16290 <l_1327.4832+0x250>
    9485:	00 
    9486:	66 0f 54 c1          	andpd  %xmm1,%xmm0
    948a:	66 0f 2f 05 26 ce 00 	comisd 0xce26(%rip),%xmm0        # 162b8 <l_1327.4832+0x278>
    9491:	00 
    9492:	76 07                	jbe    949b <safe_mul_func_double_f_f+0x55>
    9494:	f2 0f 10 45 f8       	movsd  -0x8(%rbp),%xmm0
    9499:	eb 0a                	jmp    94a5 <safe_mul_func_double_f_f+0x5f>
    949b:	f2 0f 10 45 f8       	movsd  -0x8(%rbp),%xmm0
    94a0:	f2 0f 59 45 f0       	mulsd  -0x10(%rbp),%xmm0
    94a5:	5d                   	pop    %rbp
    94a6:	c3                   	retq   

00000000000094a7 <safe_div_func_double_f_f>:
    94a7:	f3 0f 1e fa          	endbr64 
    94ab:	55                   	push   %rbp
    94ac:	48 89 e5             	mov    %rsp,%rbp
    94af:	f2 0f 11 45 f8       	movsd  %xmm0,-0x8(%rbp)
    94b4:	f2 0f 11 4d f0       	movsd  %xmm1,-0x10(%rbp)
    94b9:	f2 0f 10 45 f0       	movsd  -0x10(%rbp),%xmm0
    94be:	f3 0f 7e 0d ca cd 00 	movq   0xcdca(%rip),%xmm1        # 16290 <l_1327.4832+0x250>
    94c5:	00 
    94c6:	66 0f 54 c8          	andpd  %xmm0,%xmm1
    94ca:	f2 0f 10 05 ee cd 00 	movsd  0xcdee(%rip),%xmm0        # 162c0 <l_1327.4832+0x280>
    94d1:	00 
    94d2:	66 0f 2f c1          	comisd %xmm1,%xmm0
    94d6:	0f 97 c0             	seta   %al
    94d9:	83 f0 01             	xor    $0x1,%eax
    94dc:	84 c0                	test   %al,%al
    94de:	75 5a                	jne    953a <safe_div_func_double_f_f+0x93>
    94e0:	66 0f ef c0          	pxor   %xmm0,%xmm0
    94e4:	66 0f 2e 45 f0       	ucomisd -0x10(%rbp),%xmm0
    94e9:	7a 0b                	jp     94f6 <safe_div_func_double_f_f+0x4f>
    94eb:	66 0f ef c0          	pxor   %xmm0,%xmm0
    94ef:	66 0f 2e 45 f0       	ucomisd -0x10(%rbp),%xmm0
    94f4:	74 50                	je     9546 <safe_div_func_double_f_f+0x9f>
    94f6:	f2 0f 10 4d f8       	movsd  -0x8(%rbp),%xmm1
    94fb:	f2 0f 10 05 c5 cd 00 	movsd  0xcdc5(%rip),%xmm0        # 162c8 <l_1327.4832+0x288>
    9502:	00 
    9503:	f2 0f 59 c1          	mulsd  %xmm1,%xmm0
    9507:	f2 0f 10 55 f0       	movsd  -0x10(%rbp),%xmm2
    950c:	f2 0f 10 0d bc cd 00 	movsd  0xcdbc(%rip),%xmm1        # 162d0 <l_1327.4832+0x290>
    9513:	00 
    9514:	f2 0f 59 ca          	mulsd  %xmm2,%xmm1
    9518:	f2 0f 5e c1          	divsd  %xmm1,%xmm0
    951c:	f3 0f 7e 0d 6c cd 00 	movq   0xcd6c(%rip),%xmm1        # 16290 <l_1327.4832+0x250>
    9523:	00 
    9524:	66 0f 54 c1          	andpd  %xmm1,%xmm0
    9528:	66 0f 2f 05 a8 cd 00 	comisd 0xcda8(%rip),%xmm0        # 162d8 <l_1327.4832+0x298>
    952f:	00 
    9530:	0f 97 c0             	seta   %al
    9533:	83 f0 01             	xor    $0x1,%eax
    9536:	84 c0                	test   %al,%al
    9538:	74 0c                	je     9546 <safe_div_func_double_f_f+0x9f>
    953a:	f2 0f 10 45 f8       	movsd  -0x8(%rbp),%xmm0
    953f:	f2 0f 5e 45 f0       	divsd  -0x10(%rbp),%xmm0
    9544:	eb 05                	jmp    954b <safe_div_func_double_f_f+0xa4>
    9546:	f2 0f 10 45 f8       	movsd  -0x8(%rbp),%xmm0
    954b:	5d                   	pop    %rbp
    954c:	c3                   	retq   

000000000000954d <safe_convert_func_float_to_int32_t>:
    954d:	f3 0f 1e fa          	endbr64 
    9551:	55                   	push   %rbp
    9552:	48 89 e5             	mov    %rsp,%rbp
    9555:	f3 0f 11 45 fc       	movss  %xmm0,-0x4(%rbp)
    955a:	f3 0f 10 05 7e cd 00 	movss  0xcd7e(%rip),%xmm0        # 162e0 <l_1327.4832+0x2a0>
    9561:	00 
    9562:	0f 2f 45 fc          	comiss -0x4(%rbp),%xmm0
    9566:	0f 93 c0             	setae  %al
    9569:	83 f0 01             	xor    $0x1,%eax
    956c:	84 c0                	test   %al,%al
    956e:	74 21                	je     9591 <safe_convert_func_float_to_int32_t+0x44>
    9570:	f3 0f 10 45 fc       	movss  -0x4(%rbp),%xmm0
    9575:	0f 2f 05 68 cd 00 00 	comiss 0xcd68(%rip),%xmm0        # 162e4 <l_1327.4832+0x2a4>
    957c:	0f 93 c0             	setae  %al
    957f:	83 f0 01             	xor    $0x1,%eax
    9582:	84 c0                	test   %al,%al
    9584:	74 0b                	je     9591 <safe_convert_func_float_to_int32_t+0x44>
    9586:	f3 0f 10 45 fc       	movss  -0x4(%rbp),%xmm0
    958b:	f3 0f 2c c0          	cvttss2si %xmm0,%eax
    958f:	eb 05                	jmp    9596 <safe_convert_func_float_to_int32_t+0x49>
    9591:	b8 ff ff ff 7f       	mov    $0x7fffffff,%eax
    9596:	5d                   	pop    %rbp
    9597:	c3                   	retq   

0000000000009598 <crc32_gentab>:
    9598:	f3 0f 1e fa          	endbr64 
    959c:	55                   	push   %rbp
    959d:	48 89 e5             	mov    %rsp,%rbp
    95a0:	c7 45 fc 20 83 b8 ed 	movl   $0xedb88320,-0x4(%rbp)
    95a7:	c7 45 f4 00 00 00 00 	movl   $0x0,-0xc(%rbp)
    95ae:	eb 51                	jmp    9601 <crc32_gentab+0x69>
    95b0:	8b 45 f4             	mov    -0xc(%rbp),%eax
    95b3:	89 45 f0             	mov    %eax,-0x10(%rbp)
    95b6:	c7 45 f8 08 00 00 00 	movl   $0x8,-0x8(%rbp)
    95bd:	eb 1e                	jmp    95dd <crc32_gentab+0x45>
    95bf:	8b 45 f0             	mov    -0x10(%rbp),%eax
    95c2:	83 e0 01             	and    $0x1,%eax
    95c5:	85 c0                	test   %eax,%eax
    95c7:	74 0d                	je     95d6 <crc32_gentab+0x3e>
    95c9:	8b 45 f0             	mov    -0x10(%rbp),%eax
    95cc:	d1 e8                	shr    %eax
    95ce:	33 45 fc             	xor    -0x4(%rbp),%eax
    95d1:	89 45 f0             	mov    %eax,-0x10(%rbp)
    95d4:	eb 03                	jmp    95d9 <crc32_gentab+0x41>
    95d6:	d1 6d f0             	shrl   -0x10(%rbp)
    95d9:	83 6d f8 01          	subl   $0x1,-0x8(%rbp)
    95dd:	83 7d f8 00          	cmpl   $0x0,-0x8(%rbp)
    95e1:	7f dc                	jg     95bf <crc32_gentab+0x27>
    95e3:	8b 45 f4             	mov    -0xc(%rbp),%eax
    95e6:	48 98                	cltq   
    95e8:	48 8d 0c 85 00 00 00 	lea    0x0(,%rax,4),%rcx
    95ef:	00 
    95f0:	48 8d 15 29 36 01 00 	lea    0x13629(%rip),%rdx        # 1cc20 <crc32_tab>
    95f7:	8b 45 f0             	mov    -0x10(%rbp),%eax
    95fa:	89 04 11             	mov    %eax,(%rcx,%rdx,1)
    95fd:	83 45 f4 01          	addl   $0x1,-0xc(%rbp)
    9601:	81 7d f4 ff 00 00 00 	cmpl   $0xff,-0xc(%rbp)
    9608:	7e a6                	jle    95b0 <crc32_gentab+0x18>
    960a:	90                   	nop
    960b:	90                   	nop
    960c:	5d                   	pop    %rbp
    960d:	c3                   	retq   

000000000000960e <crc32_byte>:
    960e:	f3 0f 1e fa          	endbr64 
    9612:	55                   	push   %rbp
    9613:	48 89 e5             	mov    %rsp,%rbp
    9616:	89 f8                	mov    %edi,%eax
    9618:	88 45 fc             	mov    %al,-0x4(%rbp)
    961b:	8b 05 ff f9 00 00    	mov    0xf9ff(%rip),%eax        # 19020 <crc32_context>
    9621:	c1 e8 08             	shr    $0x8,%eax
    9624:	89 c1                	mov    %eax,%ecx
    9626:	0f b6 55 fc          	movzbl -0x4(%rbp),%edx
    962a:	8b 05 f0 f9 00 00    	mov    0xf9f0(%rip),%eax        # 19020 <crc32_context>
    9630:	31 d0                	xor    %edx,%eax
    9632:	0f b6 c0             	movzbl %al,%eax
    9635:	89 c0                	mov    %eax,%eax
    9637:	48 8d 14 85 00 00 00 	lea    0x0(,%rax,4),%rdx
    963e:	00 
    963f:	48 8d 05 da 35 01 00 	lea    0x135da(%rip),%rax        # 1cc20 <crc32_tab>
    9646:	8b 04 02             	mov    (%rdx,%rax,1),%eax
    9649:	31 c8                	xor    %ecx,%eax
    964b:	89 05 cf f9 00 00    	mov    %eax,0xf9cf(%rip)        # 19020 <crc32_context>
    9651:	90                   	nop
    9652:	5d                   	pop    %rbp
    9653:	c3                   	retq   

0000000000009654 <crc32_8bytes>:
    9654:	f3 0f 1e fa          	endbr64 
    9658:	55                   	push   %rbp
    9659:	48 89 e5             	mov    %rsp,%rbp
    965c:	48 83 ec 08          	sub    $0x8,%rsp
    9660:	48 89 7d f8          	mov    %rdi,-0x8(%rbp)
    9664:	48 8b 45 f8          	mov    -0x8(%rbp),%rax
    9668:	0f b6 c0             	movzbl %al,%eax
    966b:	89 c7                	mov    %eax,%edi
    966d:	e8 9c ff ff ff       	callq  960e <crc32_byte>
    9672:	48 8b 45 f8          	mov    -0x8(%rbp),%rax
    9676:	48 c1 e8 08          	shr    $0x8,%rax
    967a:	0f b6 c0             	movzbl %al,%eax
    967d:	89 c7                	mov    %eax,%edi
    967f:	e8 8a ff ff ff       	callq  960e <crc32_byte>
    9684:	48 8b 45 f8          	mov    -0x8(%rbp),%rax
    9688:	48 c1 e8 10          	shr    $0x10,%rax
    968c:	0f b6 c0             	movzbl %al,%eax
    968f:	89 c7                	mov    %eax,%edi
    9691:	e8 78 ff ff ff       	callq  960e <crc32_byte>
    9696:	48 8b 45 f8          	mov    -0x8(%rbp),%rax
    969a:	48 c1 e8 18          	shr    $0x18,%rax
    969e:	0f b6 c0             	movzbl %al,%eax
    96a1:	89 c7                	mov    %eax,%edi
    96a3:	e8 66 ff ff ff       	callq  960e <crc32_byte>
    96a8:	48 8b 45 f8          	mov    -0x8(%rbp),%rax
    96ac:	48 c1 e8 20          	shr    $0x20,%rax
    96b0:	0f b6 c0             	movzbl %al,%eax
    96b3:	89 c7                	mov    %eax,%edi
    96b5:	e8 54 ff ff ff       	callq  960e <crc32_byte>
    96ba:	48 8b 45 f8          	mov    -0x8(%rbp),%rax
    96be:	48 c1 e8 28          	shr    $0x28,%rax
    96c2:	0f b6 c0             	movzbl %al,%eax
    96c5:	89 c7                	mov    %eax,%edi
    96c7:	e8 42 ff ff ff       	callq  960e <crc32_byte>
    96cc:	48 8b 45 f8          	mov    -0x8(%rbp),%rax
    96d0:	48 c1 e8 30          	shr    $0x30,%rax
    96d4:	0f b6 c0             	movzbl %al,%eax
    96d7:	89 c7                	mov    %eax,%edi
    96d9:	e8 30 ff ff ff       	callq  960e <crc32_byte>
    96de:	48 8b 45 f8          	mov    -0x8(%rbp),%rax
    96e2:	48 c1 e8 38          	shr    $0x38,%rax
    96e6:	0f b6 c0             	movzbl %al,%eax
    96e9:	89 c7                	mov    %eax,%edi
    96eb:	e8 1e ff ff ff       	callq  960e <crc32_byte>
    96f0:	90                   	nop
    96f1:	c9                   	leaveq 
    96f2:	c3                   	retq   

00000000000096f3 <transparent_crc>:
    96f3:	f3 0f 1e fa          	endbr64 
    96f7:	55                   	push   %rbp
    96f8:	48 89 e5             	mov    %rsp,%rbp
    96fb:	48 83 ec 20          	sub    $0x20,%rsp
    96ff:	48 89 7d f8          	mov    %rdi,-0x8(%rbp)
    9703:	48 89 75 f0          	mov    %rsi,-0x10(%rbp)
    9707:	89 55 ec             	mov    %edx,-0x14(%rbp)
    970a:	48 8b 45 f8          	mov    -0x8(%rbp),%rax
    970e:	48 89 c7             	mov    %rax,%rdi
    9711:	e8 3e ff ff ff       	callq  9654 <crc32_8bytes>
    9716:	83 7d ec 00          	cmpl   $0x0,-0x14(%rbp)
    971a:	74 22                	je     973e <transparent_crc+0x4b>
    971c:	8b 05 fe f8 00 00    	mov    0xf8fe(%rip),%eax        # 19020 <crc32_context>
    9722:	f7 d0                	not    %eax
    9724:	89 c2                	mov    %eax,%edx
    9726:	48 8b 45 f0          	mov    -0x10(%rbp),%rax
    972a:	48 89 c6             	mov    %rax,%rsi
    972d:	48 8d 3d fc b8 00 00 	lea    0xb8fc(%rip),%rdi        # 15030 <_IO_stdin_used+0x30>
    9734:	b8 00 00 00 00       	mov    $0x0,%eax
    9739:	e8 42 e9 ff ff       	callq  8080 <printf@plt>
    973e:	90                   	nop
    973f:	c9                   	leaveq 
    9740:	c3                   	retq   

0000000000009741 <transparent_crc_bytes>:
    9741:	f3 0f 1e fa          	endbr64 
    9745:	55                   	push   %rbp
    9746:	48 89 e5             	mov    %rsp,%rbp
    9749:	48 83 ec 30          	sub    $0x30,%rsp
    974d:	48 89 7d e8          	mov    %rdi,-0x18(%rbp)
    9751:	89 75 e4             	mov    %esi,-0x1c(%rbp)
    9754:	48 89 55 d8          	mov    %rdx,-0x28(%rbp)
    9758:	89 4d e0             	mov    %ecx,-0x20(%rbp)
    975b:	c7 45 fc 00 00 00 00 	movl   $0x0,-0x4(%rbp)
    9762:	eb 1e                	jmp    9782 <transparent_crc_bytes+0x41>
    9764:	8b 45 fc             	mov    -0x4(%rbp),%eax
    9767:	48 63 d0             	movslq %eax,%rdx
    976a:	48 8b 45 e8          	mov    -0x18(%rbp),%rax
    976e:	48 01 d0             	add    %rdx,%rax
    9771:	0f b6 00             	movzbl (%rax),%eax
    9774:	0f b6 c0             	movzbl %al,%eax
    9777:	89 c7                	mov    %eax,%edi
    9779:	e8 90 fe ff ff       	callq  960e <crc32_byte>
    977e:	83 45 fc 01          	addl   $0x1,-0x4(%rbp)
    9782:	8b 45 fc             	mov    -0x4(%rbp),%eax
    9785:	3b 45 e4             	cmp    -0x1c(%rbp),%eax
    9788:	7c da                	jl     9764 <transparent_crc_bytes+0x23>
    978a:	83 7d e0 00          	cmpl   $0x0,-0x20(%rbp)
    978e:	74 22                	je     97b2 <transparent_crc_bytes+0x71>
    9790:	8b 05 8a f8 00 00    	mov    0xf88a(%rip),%eax        # 19020 <crc32_context>
    9796:	f7 d0                	not    %eax
    9798:	89 c2                	mov    %eax,%edx
    979a:	48 8b 45 d8          	mov    -0x28(%rbp),%rax
    979e:	48 89 c6             	mov    %rax,%rsi
    97a1:	48 8d 3d 88 b8 00 00 	lea    0xb888(%rip),%rdi        # 15030 <_IO_stdin_used+0x30>
    97a8:	b8 00 00 00 00       	mov    $0x0,%eax
    97ad:	e8 ce e8 ff ff       	callq  8080 <printf@plt>
    97b2:	90                   	nop
    97b3:	c9                   	leaveq 
    97b4:	c3                   	retq   

00000000000097b5 <func_1>:
    97b5:	f3 0f 1e fa          	endbr64 
    97b9:	55                   	push   %rbp
    97ba:	48 89 e5             	mov    %rsp,%rbp
    97bd:	41 57                	push   %r15
    97bf:	41 56                	push   %r14
    97c1:	41 55                	push   %r13
    97c3:	41 54                	push   %r12
    97c5:	53                   	push   %rbx
    97c6:	48 81 ec 68 09 00 00 	sub    $0x968,%rsp
    97cd:	64 48 8b 04 25 28 00 	mov    %fs:0x28,%rax
    97d4:	00 00 
    97d6:	48 89 45 c8          	mov    %rax,-0x38(%rbp)
    97da:	31 c0                	xor    %eax,%eax
    97dc:	c7 85 bc f6 ff ff 81 	movl   $0x900b0881,-0x944(%rbp)
    97e3:	08 0b 90 
    97e6:	66 c7 85 84 f6 ff ff 	movw   $0x1,-0x97c(%rbp)
    97ed:	01 00 
    97ef:	48 8d 05 ca fd 00 00 	lea    0xfdca(%rip),%rax        # 195c0 <g_1602>
    97f6:	48 89 85 f8 f6 ff ff 	mov    %rax,-0x908(%rbp)
    97fd:	c7 85 f0 f7 ff ff 01 	movl   $0x1,-0x810(%rbp)
    9804:	00 00 00 
    9807:	c7 85 f4 f7 ff ff 01 	movl   $0x1,-0x80c(%rbp)
    980e:	00 00 00 
    9811:	c7 85 f8 f7 ff ff 01 	movl   $0x1,-0x808(%rbp)
    9818:	00 00 00 
    981b:	c7 85 fc f7 ff ff 01 	movl   $0x1,-0x804(%rbp)
    9822:	00 00 00 
    9825:	c7 85 00 f8 ff ff 01 	movl   $0x1,-0x800(%rbp)
    982c:	00 00 00 
    982f:	c7 85 04 f8 ff ff 01 	movl   $0x1,-0x7fc(%rbp)
    9836:	00 00 00 
    9839:	48 8d 05 98 1a 01 00 	lea    0x11a98(%rip),%rax        # 1b2d8 <g_849+0x38>
    9840:	48 89 85 18 f7 ff ff 	mov    %rax,-0x8e8(%rbp)
    9847:	48 8d 05 c6 f9 00 00 	lea    0xf9c6(%rip),%rax        # 19214 <g_272>
    984e:	48 89 85 00 f7 ff ff 	mov    %rax,-0x900(%rbp)
    9855:	48 8d 85 00 f7 ff ff 	lea    -0x900(%rbp),%rax
    985c:	48 89 85 20 f7 ff ff 	mov    %rax,-0x8e0(%rbp)
    9863:	48 8d 05 06 1a 01 00 	lea    0x11a06(%rip),%rax        # 1b270 <g_277>
    986a:	48 89 85 28 f7 ff ff 	mov    %rax,-0x8d8(%rbp)
    9871:	48 c7 85 30 f7 ff ff 	movq   $0xfffffffffffffff9,-0x8d0(%rbp)
    9878:	f9 ff ff ff 
    987c:	c7 85 c0 f6 ff ff db 	movl   $0x463f39db,-0x940(%rbp)
    9883:	39 3f 46 
    9886:	48 8d 05 3b 38 01 00 	lea    0x1383b(%rip),%rax        # 1d0c8 <g_951>
    988d:	48 89 85 38 f7 ff ff 	mov    %rax,-0x8c8(%rbp)
    9894:	48 8d 85 90 f9 ff ff 	lea    -0x670(%rbp),%rax
    989b:	48 8d 15 9e 01 01 00 	lea    0x1019e(%rip),%rdx        # 19a40 <g_2571+0x20>
    98a2:	b9 24 00 00 00       	mov    $0x24,%ecx
    98a7:	48 89 c7             	mov    %rax,%rdi
    98aa:	48 89 d6             	mov    %rdx,%rsi
    98ad:	f3 48 a5             	rep movsq %ds:(%rsi),%es:(%rdi)
    98b0:	48 c7 85 08 f7 ff ff 	movq   $0x0,-0x8f8(%rbp)
    98b7:	00 00 00 00 
    98bb:	c6 85 7f f6 ff ff 86 	movb   $0x86,-0x981(%rbp)
    98c2:	c7 85 e0 f7 ff ff d3 	movl   $0x59287d3,-0x820(%rbp)
    98c9:	87 92 05 
    98cc:	c7 85 e4 f7 ff ff d3 	movl   $0x59287d3,-0x81c(%rbp)
    98d3:	87 92 05 
    98d6:	c7 85 e8 f7 ff ff d3 	movl   $0x59287d3,-0x818(%rbp)
    98dd:	87 92 05 
    98e0:	c7 85 ec f7 ff ff d3 	movl   $0x59287d3,-0x814(%rbp)
    98e7:	87 92 05 
    98ea:	66 c7 85 86 f6 ff ff 	movw   $0x9661,-0x97a(%rbp)
    98f1:	61 96 
    98f3:	66 c7 85 88 f6 ff ff 	movw   $0x1e74,-0x978(%rbp)
    98fa:	74 1e 
    98fc:	c7 85 98 f6 ff ff 00 	movl   $0x0,-0x968(%rbp)
    9903:	00 00 00 
    9906:	eb 14                	jmp    991c <func_1+0x167>
    9908:	8b 85 98 f6 ff ff    	mov    -0x968(%rbp),%eax
    990e:	48 98                	cltq   
    9910:	c6 44 05 bc 09       	movb   $0x9,-0x44(%rbp,%rax,1)
    9915:	83 85 98 f6 ff ff 01 	addl   $0x1,-0x968(%rbp)
    991c:	83 bd 98 f6 ff ff 05 	cmpl   $0x5,-0x968(%rbp)
    9923:	7e e3                	jle    9908 <func_1+0x153>
    9925:	c7 85 98 f6 ff ff 00 	movl   $0x0,-0x968(%rbp)
    992c:	00 00 00 
    992f:	eb 1b                	jmp    994c <func_1+0x197>
    9931:	8b 85 98 f6 ff ff    	mov    -0x968(%rbp),%eax
    9937:	48 98                	cltq   
    9939:	48 c7 84 c5 70 f8 ff 	movq   $0x0,-0x790(%rbp,%rax,8)
    9940:	ff 00 00 00 00 
    9945:	83 85 98 f6 ff ff 01 	addl   $0x1,-0x968(%rbp)
    994c:	83 bd 98 f6 ff ff 06 	cmpl   $0x6,-0x968(%rbp)
    9953:	7e dc                	jle    9931 <func_1+0x17c>
    9955:	c7 85 98 f6 ff ff 00 	movl   $0x0,-0x968(%rbp)
    995c:	00 00 00 
    995f:	eb 14                	jmp    9975 <func_1+0x1c0>
    9961:	8b 85 98 f6 ff ff    	mov    -0x968(%rbp),%eax
    9967:	48 98                	cltq   
    9969:	c6 44 05 c2 fd       	movb   $0xfd,-0x3e(%rbp,%rax,1)
    996e:	83 85 98 f6 ff ff 01 	addl   $0x1,-0x968(%rbp)
    9975:	83 bd 98 f6 ff ff 05 	cmpl   $0x5,-0x968(%rbp)
    997c:	7e e3                	jle    9961 <func_1+0x1ac>
    997e:	90                   	nop
    997f:	c7 05 7f f7 00 00 00 	movl   $0x0,0xf77f(%rip)        # 19108 <g_4>
    9986:	00 00 00 
    9989:	eb 7b                	jmp    9a06 <func_1+0x251>
    998b:	c7 85 e8 f6 ff ff e8 	movl   $0xee24b2e8,-0x918(%rbp)
    9992:	b2 24 ee 
    9995:	48 c7 85 c0 f7 ff ff 	movq   $0x0,-0x840(%rbp)
    999c:	00 00 00 00 
    99a0:	48 8d 05 d9 f9 00 00 	lea    0xf9d9(%rip),%rax        # 19380 <g_741>
    99a7:	48 89 85 c8 f7 ff ff 	mov    %rax,-0x838(%rbp)
    99ae:	c7 85 ec f6 ff ff ff 	movl   $0xffffffff,-0x914(%rbp)
    99b5:	ff ff ff 
    99b8:	48 8d 05 1d 00 01 00 	lea    0x1001d(%rip),%rax        # 199dc <g_2152>
    99bf:	48 89 85 d0 f7 ff ff 	mov    %rax,-0x830(%rbp)
    99c6:	c7 85 f0 f6 ff ff 01 	movl   $0x1,-0x910(%rbp)
    99cd:	00 00 00 
    99d0:	c7 85 f4 f6 ff ff ff 	movl   $0xffffffff,-0x90c(%rbp)
    99d7:	ff ff ff 
    99da:	66 c7 85 90 f6 ff ff 	movw   $0xffff,-0x970(%rbp)
    99e1:	ff ff 
    99e3:	66 c7 85 92 f6 ff ff 	movw   $0xffff,-0x96e(%rbp)
    99ea:	ff ff 
    99ec:	48 c7 85 d8 f7 ff ff 	movq   $0x0,-0x828(%rbp)
    99f3:	00 00 00 00 
    99f7:	8b 05 0b f7 00 00    	mov    0xf70b(%rip),%eax        # 19108 <g_4>
    99fd:	83 c0 01             	add    $0x1,%eax
    9a00:	89 05 02 f7 00 00    	mov    %eax,0xf702(%rip)        # 19108 <g_4>
    9a06:	8b 05 fc f6 00 00    	mov    0xf6fc(%rip),%eax        # 19108 <g_4>
    9a0c:	83 f8 03             	cmp    $0x3,%eax
    9a0f:	0f 8e 76 ff ff ff    	jle    998b <func_1+0x1d6>
    9a15:	48 8b 05 f4 26 01 00 	mov    0x126f4(%rip),%rax        # 1c110 <g_1725>
    9a1c:	8b 00                	mov    (%rax),%eax
    9a1e:	85 c0                	test   %eax,%eax
    9a20:	0f 84 d9 05 00 00    	je     9fff <func_1+0x84a>
    9a26:	c6 85 80 f6 ff ff 92 	movb   $0x92,-0x980(%rbp)
    9a2d:	48 8d 05 3c 18 01 00 	lea    0x1183c(%rip),%rax        # 1b270 <g_277>
    9a34:	48 89 85 40 f7 ff ff 	mov    %rax,-0x8c0(%rbp)
    9a3b:	48 8d 85 60 fd ff ff 	lea    -0x2a0(%rbp),%rax
    9a42:	48 8d 15 d7 b7 00 00 	lea    0xb7d7(%rip),%rdx        # 15220 <g_2542+0x10>
    9a49:	b9 4b 00 00 00       	mov    $0x4b,%ecx
    9a4e:	48 89 c7             	mov    %rax,%rdi
    9a51:	48 89 d6             	mov    %rdx,%rsi
    9a54:	f3 48 a5             	rep movsq %ds:(%rsi),%es:(%rdi)
    9a57:	c6 85 81 f6 ff ff ff 	movb   $0xff,-0x97f(%rbp)
    9a5e:	c7 85 00 f9 ff ff ff 	movl   $0xffffffff,-0x700(%rbp)
    9a65:	ff ff ff 
    9a68:	c7 85 04 f9 ff ff ff 	movl   $0xffffffff,-0x6fc(%rbp)
    9a6f:	ff ff ff 
    9a72:	c7 85 08 f9 ff ff 00 	movl   $0x0,-0x6f8(%rbp)
    9a79:	00 00 00 
    9a7c:	c7 85 0c f9 ff ff fd 	movl   $0xfffffffd,-0x6f4(%rbp)
    9a83:	ff ff ff 
    9a86:	c7 85 10 f9 ff ff ff 	movl   $0xffffffff,-0x6f0(%rbp)
    9a8d:	ff ff ff 
    9a90:	c7 85 14 f9 ff ff 00 	movl   $0x0,-0x6ec(%rbp)
    9a97:	00 00 00 
    9a9a:	c7 85 18 f9 ff ff ff 	movl   $0xffffffff,-0x6e8(%rbp)
    9aa1:	ff ff ff 
    9aa4:	c7 85 1c f9 ff ff 0b 	movl   $0xb5a4a40b,-0x6e4(%rbp)
    9aab:	a4 a4 b5 
    9aae:	c7 85 20 f9 ff ff ff 	movl   $0xffffffff,-0x6e0(%rbp)
    9ab5:	ff ff ff 
    9ab8:	c7 85 24 f9 ff ff fd 	movl   $0xfffffffd,-0x6dc(%rbp)
    9abf:	ff ff ff 
    9ac2:	c7 85 28 f9 ff ff 0b 	movl   $0xb5a4a40b,-0x6d8(%rbp)
    9ac9:	a4 a4 b5 
    9acc:	c7 85 2c f9 ff ff 0b 	movl   $0xb5a4a40b,-0x6d4(%rbp)
    9ad3:	a4 a4 b5 
    9ad6:	c7 85 30 f9 ff ff 00 	movl   $0x0,-0x6d0(%rbp)
    9add:	00 00 00 
    9ae0:	c7 85 34 f9 ff ff 00 	movl   $0x0,-0x6cc(%rbp)
    9ae7:	00 00 00 
    9aea:	c7 85 38 f9 ff ff ff 	movl   $0xffffffff,-0x6c8(%rbp)
    9af1:	ff ff ff 
    9af4:	c7 85 3c f9 ff ff fd 	movl   $0xfffffffd,-0x6c4(%rbp)
    9afb:	ff ff ff 
    9afe:	c7 85 40 f9 ff ff fd 	movl   $0xfffffffd,-0x6c0(%rbp)
    9b05:	ff ff ff 
    9b08:	c7 85 44 f9 ff ff ff 	movl   $0xffffffff,-0x6bc(%rbp)
    9b0f:	ff ff ff 
    9b12:	c7 85 48 f9 ff ff ff 	movl   $0xffffffff,-0x6b8(%rbp)
    9b19:	ff ff ff 
    9b1c:	c7 85 4c f9 ff ff ff 	movl   $0xffffffff,-0x6b4(%rbp)
    9b23:	ff ff ff 
    9b26:	c7 85 50 f9 ff ff 00 	movl   $0x0,-0x6b0(%rbp)
    9b2d:	00 00 00 
    9b30:	c7 85 54 f9 ff ff ff 	movl   $0xffffffff,-0x6ac(%rbp)
    9b37:	ff ff ff 
    9b3a:	c7 85 58 f9 ff ff 0b 	movl   $0xb5a4a40b,-0x6a8(%rbp)
    9b41:	a4 a4 b5 
    9b44:	c7 85 5c f9 ff ff ff 	movl   $0xffffffff,-0x6a4(%rbp)
    9b4b:	ff ff ff 
    9b4e:	c7 85 60 f9 ff ff ff 	movl   $0xffffffff,-0x6a0(%rbp)
    9b55:	ff ff ff 
    9b58:	c7 85 64 f9 ff ff ff 	movl   $0xffffffff,-0x69c(%rbp)
    9b5f:	ff ff ff 
    9b62:	c7 85 68 f9 ff ff ff 	movl   $0xffffffff,-0x698(%rbp)
    9b69:	ff ff ff 
    9b6c:	c7 85 6c f9 ff ff ff 	movl   $0xffffffff,-0x694(%rbp)
    9b73:	ff ff ff 
    9b76:	c7 85 70 f9 ff ff ff 	movl   $0xffffffff,-0x690(%rbp)
    9b7d:	ff ff ff 
    9b80:	c7 85 74 f9 ff ff ff 	movl   $0xffffffff,-0x68c(%rbp)
    9b87:	ff ff ff 
    9b8a:	c7 85 78 f9 ff ff 00 	movl   $0x0,-0x688(%rbp)
    9b91:	00 00 00 
    9b94:	c7 85 7c f9 ff ff fd 	movl   $0xfffffffd,-0x684(%rbp)
    9b9b:	ff ff ff 
    9b9e:	c7 85 80 f9 ff ff ff 	movl   $0xffffffff,-0x680(%rbp)
    9ba5:	ff ff ff 
    9ba8:	c7 85 84 f9 ff ff 00 	movl   $0x0,-0x67c(%rbp)
    9baf:	00 00 00 
    9bb2:	c7 85 88 f9 ff ff ff 	movl   $0xffffffff,-0x678(%rbp)
    9bb9:	ff ff ff 
    9bbc:	c7 85 8c f9 ff ff 0b 	movl   $0xb5a4a40b,-0x674(%rbp)
    9bc3:	a4 a4 b5 
    9bc6:	48 8d 85 d0 fb ff ff 	lea    -0x430(%rbp),%rax
    9bcd:	48 8d 15 8c ff 00 00 	lea    0xff8c(%rip),%rdx        # 19b60 <g_2571+0x140>
    9bd4:	b9 31 00 00 00       	mov    $0x31,%ecx
    9bd9:	48 89 c7             	mov    %rax,%rdi
    9bdc:	48 89 d6             	mov    %rdx,%rsi
    9bdf:	f3 48 a5             	rep movsq %ds:(%rsi),%es:(%rdi)
    9be2:	48 8d 85 d0 fb ff ff 	lea    -0x430(%rbp),%rax
    9be9:	48 83 c0 78          	add    $0x78,%rax
    9bed:	48 89 85 b0 fa ff ff 	mov    %rax,-0x550(%rbp)
    9bf4:	48 c7 85 b8 fa ff ff 	movq   $0x0,-0x548(%rbp)
    9bfb:	00 00 00 00 
    9bff:	48 c7 85 c0 fa ff ff 	movq   $0x0,-0x540(%rbp)
    9c06:	00 00 00 00 
    9c0a:	48 8d 85 d0 fb ff ff 	lea    -0x430(%rbp),%rax
    9c11:	48 83 c0 78          	add    $0x78,%rax
    9c15:	48 89 85 c8 fa ff ff 	mov    %rax,-0x538(%rbp)
    9c1c:	48 8d 85 d0 fb ff ff 	lea    -0x430(%rbp),%rax
    9c23:	48 83 c0 78          	add    $0x78,%rax
    9c27:	48 89 85 d0 fa ff ff 	mov    %rax,-0x530(%rbp)
    9c2e:	48 c7 85 d8 fa ff ff 	movq   $0x0,-0x528(%rbp)
    9c35:	00 00 00 00 
    9c39:	48 8d 85 d0 fb ff ff 	lea    -0x430(%rbp),%rax
    9c40:	48 83 c0 78          	add    $0x78,%rax
    9c44:	48 89 85 e0 fa ff ff 	mov    %rax,-0x520(%rbp)
    9c4b:	48 c7 85 e8 fa ff ff 	movq   $0x0,-0x518(%rbp)
    9c52:	00 00 00 00 
    9c56:	48 c7 85 f0 fa ff ff 	movq   $0x0,-0x510(%rbp)
    9c5d:	00 00 00 00 
    9c61:	48 c7 85 f8 fa ff ff 	movq   $0x0,-0x508(%rbp)
    9c68:	00 00 00 00 
    9c6c:	48 8d 85 d0 fb ff ff 	lea    -0x430(%rbp),%rax
    9c73:	48 83 c0 78          	add    $0x78,%rax
    9c77:	48 89 85 00 fb ff ff 	mov    %rax,-0x500(%rbp)
    9c7e:	48 8d 85 d0 fb ff ff 	lea    -0x430(%rbp),%rax
    9c85:	48 83 c0 78          	add    $0x78,%rax
    9c89:	48 89 85 08 fb ff ff 	mov    %rax,-0x4f8(%rbp)
    9c90:	48 8d 85 d0 fb ff ff 	lea    -0x430(%rbp),%rax
    9c97:	48 83 c0 78          	add    $0x78,%rax
    9c9b:	48 89 85 10 fb ff ff 	mov    %rax,-0x4f0(%rbp)
    9ca2:	48 8d 85 d0 fb ff ff 	lea    -0x430(%rbp),%rax
    9ca9:	48 83 c0 78          	add    $0x78,%rax
    9cad:	48 89 85 18 fb ff ff 	mov    %rax,-0x4e8(%rbp)
    9cb4:	48 c7 85 20 fb ff ff 	movq   $0x0,-0x4e0(%rbp)
    9cbb:	00 00 00 00 
    9cbf:	48 8d 85 d0 fb ff ff 	lea    -0x430(%rbp),%rax
    9cc6:	48 83 c0 78          	add    $0x78,%rax
    9cca:	48 89 85 28 fb ff ff 	mov    %rax,-0x4d8(%rbp)
    9cd1:	48 8d 85 d0 fb ff ff 	lea    -0x430(%rbp),%rax
    9cd8:	48 83 c0 78          	add    $0x78,%rax
    9cdc:	48 89 85 30 fb ff ff 	mov    %rax,-0x4d0(%rbp)
    9ce3:	48 c7 85 38 fb ff ff 	movq   $0x0,-0x4c8(%rbp)
    9cea:	00 00 00 00 
    9cee:	48 8d 85 d0 fb ff ff 	lea    -0x430(%rbp),%rax
    9cf5:	48 83 c0 78          	add    $0x78,%rax
    9cf9:	48 89 85 40 fb ff ff 	mov    %rax,-0x4c0(%rbp)
    9d00:	48 c7 85 48 fb ff ff 	movq   $0x0,-0x4b8(%rbp)
    9d07:	00 00 00 00 
    9d0b:	48 8d 85 d0 fb ff ff 	lea    -0x430(%rbp),%rax
    9d12:	48 83 c0 78          	add    $0x78,%rax
    9d16:	48 89 85 50 fb ff ff 	mov    %rax,-0x4b0(%rbp)
    9d1d:	48 c7 85 58 fb ff ff 	movq   $0x0,-0x4a8(%rbp)
    9d24:	00 00 00 00 
    9d28:	48 c7 85 60 fb ff ff 	movq   $0x0,-0x4a0(%rbp)
    9d2f:	00 00 00 00 
    9d33:	48 8d 85 d0 fb ff ff 	lea    -0x430(%rbp),%rax
    9d3a:	48 83 c0 78          	add    $0x78,%rax
    9d3e:	48 89 85 68 fb ff ff 	mov    %rax,-0x498(%rbp)
    9d45:	48 8d 85 d0 fb ff ff 	lea    -0x430(%rbp),%rax
    9d4c:	48 83 c0 78          	add    $0x78,%rax
    9d50:	48 89 85 70 fb ff ff 	mov    %rax,-0x490(%rbp)
    9d57:	48 c7 85 78 fb ff ff 	movq   $0x0,-0x488(%rbp)
    9d5e:	00 00 00 00 
    9d62:	48 8d 85 d0 fb ff ff 	lea    -0x430(%rbp),%rax
    9d69:	48 83 c0 78          	add    $0x78,%rax
    9d6d:	48 89 85 80 fb ff ff 	mov    %rax,-0x480(%rbp)
    9d74:	48 c7 85 88 fb ff ff 	movq   $0x0,-0x478(%rbp)
    9d7b:	00 00 00 00 
    9d7f:	48 c7 85 90 fb ff ff 	movq   $0x0,-0x470(%rbp)
    9d86:	00 00 00 00 
    9d8a:	48 c7 85 98 fb ff ff 	movq   $0x0,-0x468(%rbp)
    9d91:	00 00 00 00 
    9d95:	48 8d 85 d0 fb ff ff 	lea    -0x430(%rbp),%rax
    9d9c:	48 83 c0 78          	add    $0x78,%rax
    9da0:	48 89 85 a0 fb ff ff 	mov    %rax,-0x460(%rbp)
    9da7:	48 8d 85 d0 fb ff ff 	lea    -0x430(%rbp),%rax
    9dae:	48 83 c0 78          	add    $0x78,%rax
    9db2:	48 89 85 a8 fb ff ff 	mov    %rax,-0x458(%rbp)
    9db9:	48 8d 85 d0 fb ff ff 	lea    -0x430(%rbp),%rax
    9dc0:	48 83 c0 78          	add    $0x78,%rax
    9dc4:	48 89 85 b0 fb ff ff 	mov    %rax,-0x450(%rbp)
    9dcb:	48 8d 85 d0 fb ff ff 	lea    -0x430(%rbp),%rax
    9dd2:	48 83 c0 78          	add    $0x78,%rax
    9dd6:	48 89 85 b8 fb ff ff 	mov    %rax,-0x448(%rbp)
    9ddd:	48 c7 85 c0 fb ff ff 	movq   $0x0,-0x440(%rbp)
    9de4:	00 00 00 00 
    9de8:	48 c7 85 c8 fb ff ff 	movq   $0x0,-0x438(%rbp)
    9def:	00 00 00 00 
    9df3:	48 8d 85 b0 fa ff ff 	lea    -0x550(%rbp),%rax
    9dfa:	48 83 c0 70          	add    $0x70,%rax
    9dfe:	48 89 85 10 f7 ff ff 	mov    %rax,-0x8f0(%rbp)
    9e05:	48 8d 85 10 f7 ff ff 	lea    -0x8f0(%rbp),%rax
    9e0c:	48 89 85 48 f7 ff ff 	mov    %rax,-0x8b8(%rbp)
    9e13:	66 c7 85 8a f6 ff ff 	movw   $0x1fa1,-0x976(%rbp)
    9e1a:	a1 1f 
    9e1c:	66 c7 85 8c f6 ff ff 	movw   $0x1,-0x974(%rbp)
    9e23:	01 00 
    9e25:	c7 85 94 f6 ff ff 01 	movl   $0x1,-0x96c(%rbp)
    9e2c:	00 00 00 
    9e2f:	48 8d 85 94 f6 ff ff 	lea    -0x96c(%rbp),%rax
    9e36:	48 89 85 50 f7 ff ff 	mov    %rax,-0x8b0(%rbp)
    9e3d:	48 c7 85 50 f8 ff ff 	movq   $0x1,-0x7b0(%rbp)
    9e44:	01 00 00 00 
    9e48:	48 c7 85 58 f8 ff ff 	movq   $0x1,-0x7a8(%rbp)
    9e4f:	01 00 00 00 
    9e53:	48 c7 85 60 f8 ff ff 	movq   $0x1,-0x7a0(%rbp)
    9e5a:	01 00 00 00 
    9e5e:	48 c7 85 68 f8 ff ff 	movq   $0x1,-0x798(%rbp)
    9e65:	01 00 00 00 
    9e69:	c7 85 9c f6 ff ff 00 	movl   $0x0,-0x964(%rbp)
    9e70:	00 00 00 
    9e73:	eb 14                	jmp    9e89 <func_1+0x6d4>
    9e75:	8b 85 9c f6 ff ff    	mov    -0x964(%rbp),%eax
    9e7b:	48 98                	cltq   
    9e7d:	c6 44 05 ba 04       	movb   $0x4,-0x46(%rbp,%rax,1)
    9e82:	83 85 9c f6 ff ff 01 	addl   $0x1,-0x964(%rbp)
    9e89:	83 bd 9c f6 ff ff 01 	cmpl   $0x1,-0x964(%rbp)
    9e90:	7e e3                	jle    9e75 <func_1+0x6c0>
    9e92:	c7 85 9c f6 ff ff 00 	movl   $0x0,-0x964(%rbp)
    9e99:	00 00 00 
    9e9c:	eb 1b                	jmp    9eb9 <func_1+0x704>
    9e9e:	8b 85 9c f6 ff ff    	mov    -0x964(%rbp),%eax
    9ea4:	48 98                	cltq   
    9ea6:	48 c7 84 c5 30 f8 ff 	movq   $0xffffffffffffffff,-0x7d0(%rbp,%rax,8)
    9ead:	ff ff ff ff ff 
    9eb2:	83 85 9c f6 ff ff 01 	addl   $0x1,-0x964(%rbp)
    9eb9:	83 bd 9c f6 ff ff 03 	cmpl   $0x3,-0x964(%rbp)
    9ec0:	7e dc                	jle    9e9e <func_1+0x6e9>
    9ec2:	48 c7 05 83 f4 00 00 	movq   $0x19,0xf483(%rip)        # 19350 <g_329>
    9ec9:	19 00 00 00 
    9ecd:	e9 07 01 00 00       	jmpq   9fd9 <func_1+0x824>
    9ed2:	c7 85 c4 f6 ff ff e2 	movl   $0xe737fae2,-0x93c(%rbp)
    9ed9:	fa 37 e7 
    9edc:	c6 85 82 f6 ff ff 01 	movb   $0x1,-0x97e(%rbp)
    9ee3:	c7 85 c8 f6 ff ff 25 	movl   $0x470e1325,-0x938(%rbp)
    9eea:	13 0e 47 
    9eed:	c7 85 cc f6 ff ff 08 	movl   $0x8,-0x934(%rbp)
    9ef4:	00 00 00 
    9ef7:	48 8d 05 16 f2 00 00 	lea    0xf216(%rip),%rax        # 19114 <g_61>
    9efe:	48 89 85 58 f7 ff ff 	mov    %rax,-0x8a8(%rbp)
    9f05:	48 8d 05 a4 f4 00 00 	lea    0xf4a4(%rip),%rax        # 193b0 <g_840>
    9f0c:	48 89 85 60 f7 ff ff 	mov    %rax,-0x8a0(%rbp)
    9f13:	c7 85 a0 f6 ff ff 00 	movl   $0x0,-0x960(%rbp)
    9f1a:	00 00 00 
    9f1d:	eb 1e                	jmp    9f3d <func_1+0x788>
    9f1f:	8b 85 a0 f6 ff ff    	mov    -0x960(%rbp),%eax
    9f25:	48 98                	cltq   
    9f27:	48 8d 15 04 f2 00 00 	lea    0xf204(%rip),%rdx        # 19132 <g_132>
    9f2e:	48 89 94 c5 b0 f8 ff 	mov    %rdx,-0x750(%rbp,%rax,8)
    9f35:	ff 
    9f36:	83 85 a0 f6 ff ff 01 	addl   $0x1,-0x960(%rbp)
    9f3d:	83 bd a0 f6 ff ff 08 	cmpl   $0x8,-0x960(%rbp)
    9f44:	7e d9                	jle    9f1f <func_1+0x76a>
    9f46:	c7 85 a0 f6 ff ff 00 	movl   $0x0,-0x960(%rbp)
    9f4d:	00 00 00 
    9f50:	eb 6c                	jmp    9fbe <func_1+0x809>
    9f52:	c7 85 a4 f6 ff ff 00 	movl   $0x0,-0x95c(%rbp)
    9f59:	00 00 00 
    9f5c:	eb 50                	jmp    9fae <func_1+0x7f9>
    9f5e:	c7 85 a8 f6 ff ff 00 	movl   $0x0,-0x958(%rbp)
    9f65:	00 00 00 
    9f68:	eb 34                	jmp    9f9e <func_1+0x7e9>
    9f6a:	8b 85 a8 f6 ff ff    	mov    -0x958(%rbp),%eax
    9f70:	48 63 d0             	movslq %eax,%rdx
    9f73:	8b 85 a4 f6 ff ff    	mov    -0x95c(%rbp),%eax
    9f79:	48 98                	cltq   
    9f7b:	8b 8d a0 f6 ff ff    	mov    -0x960(%rbp),%ecx
    9f81:	48 63 c9             	movslq %ecx,%rcx
    9f84:	48 01 c9             	add    %rcx,%rcx
    9f87:	48 01 ca             	add    %rcx,%rdx
    9f8a:	48 01 d0             	add    %rdx,%rax
    9f8d:	66 c7 84 45 10 f8 ff 	movw   $0x4f01,-0x7f0(%rbp,%rax,2)
    9f94:	ff 01 4f 
    9f97:	83 85 a8 f6 ff ff 01 	addl   $0x1,-0x958(%rbp)
    9f9e:	83 bd a8 f6 ff ff 00 	cmpl   $0x0,-0x958(%rbp)
    9fa5:	7e c3                	jle    9f6a <func_1+0x7b5>
    9fa7:	83 85 a4 f6 ff ff 01 	addl   $0x1,-0x95c(%rbp)
    9fae:	83 bd a4 f6 ff ff 01 	cmpl   $0x1,-0x95c(%rbp)
    9fb5:	7e a7                	jle    9f5e <func_1+0x7a9>
    9fb7:	83 85 a0 f6 ff ff 01 	addl   $0x1,-0x960(%rbp)
    9fbe:	83 bd a0 f6 ff ff 06 	cmpl   $0x6,-0x960(%rbp)
    9fc5:	7e 8b                	jle    9f52 <func_1+0x79d>
    9fc7:	48 8b 05 82 f3 00 00 	mov    0xf382(%rip),%rax        # 19350 <g_329>
    9fce:	48 83 e8 01          	sub    $0x1,%rax
    9fd2:	48 89 05 77 f3 00 00 	mov    %rax,0xf377(%rip)        # 19350 <g_329>
    9fd9:	48 8b 05 70 f3 00 00 	mov    0xf370(%rip),%rax        # 19350 <g_329>
    9fe0:	48 83 f8 0f          	cmp    $0xf,%rax
    9fe4:	0f 85 e8 fe ff ff    	jne    9ed2 <func_1+0x71d>
    9fea:	0f b6 05 23 fa 00 00 	movzbl 0xfa23(%rip),%eax        # 19a14 <g_2470>
    9ff1:	83 e8 01             	sub    $0x1,%eax
    9ff4:	88 05 1a fa 00 00    	mov    %al,0xfa1a(%rip)        # 19a14 <g_2470>
    9ffa:	e9 b6 00 00 00       	jmpq   a0b5 <func_1+0x900>
    9fff:	48 c7 05 a6 f3 00 00 	movq   $0xa,0xf3a6(%rip)        # 193b0 <g_840>
    a006:	0a 00 00 00 
    a00a:	eb 38                	jmp    a044 <func_1+0x88f>
    a00c:	48 8b 05 4d 12 01 00 	mov    0x1124d(%rip),%rax        # 1b260 <g_89>
    a013:	8b 10                	mov    (%rax),%edx
    a015:	48 8b 05 44 12 01 00 	mov    0x11244(%rip),%rax        # 1b260 <g_89>
    a01c:	81 ca 3a 85 b9 a9    	or     $0xa9b9853a,%edx
    a022:	89 10                	mov    %edx,(%rax)
    a024:	48 8b 05 85 f3 00 00 	mov    0xf385(%rip),%rax        # 193b0 <g_840>
    a02b:	0f b7 c0             	movzwl %ax,%eax
    a02e:	be 07 00 00 00       	mov    $0x7,%esi
    a033:	89 c7                	mov    %eax,%edi
    a035:	e8 e5 ec ff ff       	callq  8d1f <safe_sub_func_uint16_t_u_u>
    a03a:	0f b7 c0             	movzwl %ax,%eax
    a03d:	48 89 05 6c f3 00 00 	mov    %rax,0xf36c(%rip)        # 193b0 <g_840>
    a044:	48 8b 05 65 f3 00 00 	mov    0xf365(%rip),%rax        # 193b0 <g_840>
    a04b:	48 83 f8 06          	cmp    $0x6,%rax
    a04f:	76 bb                	jbe    a00c <func_1+0x857>
    a051:	48 8b 05 c8 20 01 00 	mov    0x120c8(%rip),%rax        # 1c120 <g_1904>
    a058:	48 8b 10             	mov    (%rax),%rdx
    a05b:	48 8b 05 fe 11 01 00 	mov    0x111fe(%rip),%rax        # 1b260 <g_89>
    a062:	8b 12                	mov    (%rdx),%edx
    a064:	89 10                	mov    %edx,(%rax)
    a066:	8b 10                	mov    (%rax),%edx
    a068:	8b 05 6e f9 00 00    	mov    0xf96e(%rip),%eax        # 199dc <g_2152>
    a06e:	31 d0                	xor    %edx,%eax
    a070:	89 05 66 f9 00 00    	mov    %eax,0xf966(%rip)        # 199dc <g_2152>
    a076:	c7 05 74 f9 00 00 00 	movl   $0x0,0xf974(%rip)        # 199f4 <g_2198+0x14>
    a07d:	00 00 00 
    a080:	eb 28                	jmp    a0aa <func_1+0x8f5>
    a082:	8b 05 6c f9 00 00    	mov    0xf96c(%rip),%eax        # 199f4 <g_2198+0x14>
    a088:	89 c0                	mov    %eax,%eax
    a08a:	48 8d 14 00          	lea    (%rax,%rax,1),%rdx
    a08e:	48 8d 05 d7 f3 00 00 	lea    0xf3d7(%rip),%rax        # 1946c <g_1315>
    a095:	66 c7 04 02 00 00    	movw   $0x0,(%rdx,%rax,1)
    a09b:	8b 05 53 f9 00 00    	mov    0xf953(%rip),%eax        # 199f4 <g_2198+0x14>
    a0a1:	83 c0 01             	add    $0x1,%eax
    a0a4:	89 05 4a f9 00 00    	mov    %eax,0xf94a(%rip)        # 199f4 <g_2198+0x14>
    a0aa:	8b 05 44 f9 00 00    	mov    0xf944(%rip),%eax        # 199f4 <g_2198+0x14>
    a0b0:	83 f8 01             	cmp    $0x1,%eax
    a0b3:	76 cd                	jbe    a082 <func_1+0x8cd>
    a0b5:	c6 05 a5 f2 00 00 00 	movb   $0x0,0xf2a5(%rip)        # 19361 <g_384>
    a0bc:	e9 a7 09 00 00       	jmpq   aa68 <func_1+0x12b3>
    a0c1:	48 b8 81 d8 04 ef fb 	movabs $0x56f90cfbef04d881,%rax
    a0c8:	0c f9 56 
    a0cb:	48 89 85 68 f7 ff ff 	mov    %rax,-0x898(%rbp)
    a0d2:	48 c7 85 b0 fa ff ff 	movq   $0x0,-0x550(%rbp)
    a0d9:	00 00 00 00 
    a0dd:	48 8d 05 ac 2f 01 00 	lea    0x12fac(%rip),%rax        # 1d090 <g_338>
    a0e4:	48 89 85 b8 fa ff ff 	mov    %rax,-0x548(%rbp)
    a0eb:	48 c7 85 c0 fa ff ff 	movq   $0x0,-0x540(%rbp)
    a0f2:	00 00 00 00 
    a0f6:	48 8d 05 93 2f 01 00 	lea    0x12f93(%rip),%rax        # 1d090 <g_338>
    a0fd:	48 89 85 c8 fa ff ff 	mov    %rax,-0x538(%rbp)
    a104:	48 c7 85 d0 fa ff ff 	movq   $0x0,-0x530(%rbp)
    a10b:	00 00 00 00 
    a10f:	48 8d 05 7a 2f 01 00 	lea    0x12f7a(%rip),%rax        # 1d090 <g_338>
    a116:	48 89 85 d8 fa ff ff 	mov    %rax,-0x528(%rbp)
    a11d:	48 c7 85 e0 fa ff ff 	movq   $0x0,-0x520(%rbp)
    a124:	00 00 00 00 
    a128:	48 8d 05 61 2f 01 00 	lea    0x12f61(%rip),%rax        # 1d090 <g_338>
    a12f:	48 89 85 e8 fa ff ff 	mov    %rax,-0x518(%rbp)
    a136:	c7 85 d0 f6 ff ff 50 	movl   $0x8b197050,-0x930(%rbp)
    a13d:	70 19 8b 
    a140:	48 8d 45 bc          	lea    -0x44(%rbp),%rax
    a144:	48 83 c0 03          	add    $0x3,%rax
    a148:	48 89 85 70 f7 ff ff 	mov    %rax,-0x890(%rbp)
    a14f:	48 8d 05 1a f2 00 00 	lea    0xf21a(%rip),%rax        # 19370 <g_711>
    a156:	48 89 85 60 fd ff ff 	mov    %rax,-0x2a0(%rbp)
    a15d:	48 8d 05 0c f2 00 00 	lea    0xf20c(%rip),%rax        # 19370 <g_711>
    a164:	48 89 85 68 fd ff ff 	mov    %rax,-0x298(%rbp)
    a16b:	48 8d 05 fe f1 00 00 	lea    0xf1fe(%rip),%rax        # 19370 <g_711>
    a172:	48 89 85 70 fd ff ff 	mov    %rax,-0x290(%rbp)
    a179:	48 8d 05 f0 f1 00 00 	lea    0xf1f0(%rip),%rax        # 19370 <g_711>
    a180:	48 89 85 78 fd ff ff 	mov    %rax,-0x288(%rbp)
    a187:	48 8d 05 e2 f1 00 00 	lea    0xf1e2(%rip),%rax        # 19370 <g_711>
    a18e:	48 89 85 80 fd ff ff 	mov    %rax,-0x280(%rbp)
    a195:	48 8d 05 d4 f1 00 00 	lea    0xf1d4(%rip),%rax        # 19370 <g_711>
    a19c:	48 89 85 88 fd ff ff 	mov    %rax,-0x278(%rbp)
    a1a3:	48 8d 05 c6 f1 00 00 	lea    0xf1c6(%rip),%rax        # 19370 <g_711>
    a1aa:	48 89 85 90 fd ff ff 	mov    %rax,-0x270(%rbp)
    a1b1:	48 8d 05 b8 f1 00 00 	lea    0xf1b8(%rip),%rax        # 19370 <g_711>
    a1b8:	48 89 85 98 fd ff ff 	mov    %rax,-0x268(%rbp)
    a1bf:	48 8d 05 aa f1 00 00 	lea    0xf1aa(%rip),%rax        # 19370 <g_711>
    a1c6:	48 89 85 a0 fd ff ff 	mov    %rax,-0x260(%rbp)
    a1cd:	48 8d 05 9c f1 00 00 	lea    0xf19c(%rip),%rax        # 19370 <g_711>
    a1d4:	48 89 85 a8 fd ff ff 	mov    %rax,-0x258(%rbp)
    a1db:	48 8d 85 60 fd ff ff 	lea    -0x2a0(%rbp),%rax
    a1e2:	48 83 c0 48          	add    $0x48,%rax
    a1e6:	48 89 85 78 f7 ff ff 	mov    %rax,-0x888(%rbp)
    a1ed:	66 c7 85 94 f6 ff ff 	movw   $0x2c84,-0x96c(%rbp)
    a1f4:	84 2c 
    a1f6:	48 8d 05 83 f0 00 00 	lea    0xf083(%rip),%rax        # 19280 <g_326+0x40>
    a1fd:	48 89 85 80 f7 ff ff 	mov    %rax,-0x880(%rbp)
    a204:	48 8d 05 ad f1 00 00 	lea    0xf1ad(%rip),%rax        # 193b8 <g_958>
    a20b:	48 89 85 88 f7 ff ff 	mov    %rax,-0x878(%rbp)
    a212:	c7 85 d4 f6 ff ff 40 	movl   $0x2d243d40,-0x92c(%rbp)
    a219:	3d 24 2d 
    a21c:	c7 85 ac f6 ff ff 00 	movl   $0x0,-0x954(%rbp)
    a223:	00 00 00 
    a226:	eb 14                	jmp    a23c <func_1+0xa87>
    a228:	8b 85 ac f6 ff ff    	mov    -0x954(%rbp),%eax
    a22e:	48 98                	cltq   
    a230:	c6 44 05 ba 06       	movb   $0x6,-0x46(%rbp,%rax,1)
    a235:	83 85 ac f6 ff ff 01 	addl   $0x1,-0x954(%rbp)
    a23c:	83 bd ac f6 ff ff 00 	cmpl   $0x0,-0x954(%rbp)
    a243:	7e e3                	jle    a228 <func_1+0xa73>
    a245:	0f b6 05 cd ef 00 00 	movzbl 0xefcd(%rip),%eax        # 19219 <g_315>
    a24c:	0f b6 d8             	movzbl %al,%ebx
    a24f:	8b 05 b3 ee 00 00    	mov    0xeeb3(%rip),%eax        # 19108 <g_4>
    a255:	44 0f b7 e0          	movzwl %ax,%r12d
    a259:	0f b6 45 ba          	movzbl -0x46(%rbp),%eax
    a25d:	44 0f b6 e8          	movzbl %al,%r13d
    a261:	0f b7 05 40 f1 00 00 	movzwl 0xf140(%rip),%eax        # 193a8 <g_745>
    a268:	8d 50 01             	lea    0x1(%rax),%edx
    a26b:	66 89 15 36 f1 00 00 	mov    %dx,0xf136(%rip)        # 193a8 <g_745>
    a272:	66 85 c0             	test   %ax,%ax
    a275:	0f 85 14 01 00 00    	jne    a38f <func_1+0xbda>
    a27b:	48 8b 85 78 f7 ff ff 	mov    -0x888(%rbp),%rax
    a282:	48 8d 15 8b ef 00 00 	lea    0xef8b(%rip),%rdx        # 19214 <g_272>
    a289:	48 89 10             	mov    %rdx,(%rax)
    a28c:	48 0f be 85 7f f6 ff 	movsbq -0x981(%rbp),%rax
    a293:	ff 
    a294:	48 0b 85 68 f7 ff ff 	or     -0x898(%rbp),%rax
    a29b:	48 85 c0             	test   %rax,%rax
    a29e:	75 0a                	jne    a2aa <func_1+0xaf5>
    a2a0:	0f b7 85 94 f6 ff ff 	movzwl -0x96c(%rbp),%eax
    a2a7:	66 85 c0             	test   %ax,%ax
    a2aa:	48 8b 05 e7 12 01 00 	mov    0x112e7(%rip),%rax        # 1b598 <g_1617>
    a2b1:	48 8b 00             	mov    (%rax),%rax
    a2b4:	48 8b 85 28 f7 ff ff 	mov    -0x8d8(%rbp),%rax
    a2bb:	48 8b 00             	mov    (%rax),%rax
    a2be:	8b 10                	mov    (%rax),%edx
    a2c0:	48 8b 85 68 f7 ff ff 	mov    -0x898(%rbp),%rax
    a2c7:	89 c1                	mov    %eax,%ecx
    a2c9:	48 8b 85 28 f7 ff ff 	mov    -0x8d8(%rbp),%rax
    a2d0:	48 8b 00             	mov    (%rax),%rax
    a2d3:	09 ca                	or     %ecx,%edx
    a2d5:	89 10                	mov    %edx,(%rax)
    a2d7:	8b 00                	mov    (%rax),%eax
    a2d9:	41 89 c7             	mov    %eax,%r15d
    a2dc:	48 8b 05 b5 0f 01 00 	mov    0x10fb5(%rip),%rax        # 1b298 <g_377>
    a2e3:	48 8b 00             	mov    (%rax),%rax
    a2e6:	0f b6 10             	movzbl (%rax),%edx
    a2e9:	8d 4a 01             	lea    0x1(%rdx),%ecx
    a2ec:	88 08                	mov    %cl,(%rax)
    a2ee:	44 0f b6 f2          	movzbl %dl,%r14d
    a2f2:	48 8b 85 70 f7 ff ff 	mov    -0x890(%rbp),%rax
    a2f9:	0f b6 00             	movzbl (%rax),%eax
    a2fc:	8d 48 01             	lea    0x1(%rax),%ecx
    a2ff:	48 8b 95 70 f7 ff ff 	mov    -0x890(%rbp),%rdx
    a306:	88 0a                	mov    %cl,(%rdx)
    a308:	0f be d0             	movsbl %al,%edx
    a30b:	0f b6 05 be f6 00 00 	movzbl 0xf6be(%rip),%eax        # 199d0 <g_2140>
    a312:	0f be c0             	movsbl %al,%eax
    a315:	89 d6                	mov    %edx,%esi
    a317:	89 c7                	mov    %eax,%edi
    a319:	e8 d4 de ff ff       	callq  81f2 <safe_sub_func_int8_t_s_s>
    a31e:	0f be c0             	movsbl %al,%eax
    a321:	41 39 c6             	cmp    %eax,%r14d
    a324:	0f 9d c0             	setge  %al
    a327:	89 c2                	mov    %eax,%edx
    a329:	48 8b 85 68 f7 ff ff 	mov    -0x898(%rbp),%rax
    a330:	31 d0                	xor    %edx,%eax
    a332:	44 31 f8             	xor    %r15d,%eax
    a335:	0f be c0             	movsbl %al,%eax
    a338:	be 01 00 00 00       	mov    $0x1,%esi
    a33d:	89 c7                	mov    %eax,%edi
    a33f:	e8 90 de ff ff       	callq  81d4 <safe_add_func_int8_t_s_s>
    a344:	0f b6 c0             	movzbl %al,%eax
    a347:	be 02 00 00 00       	mov    $0x2,%esi
    a34c:	89 c7                	mov    %eax,%edi
    a34e:	e8 6b e9 ff ff       	callq  8cbe <safe_rshift_func_uint8_t_u_u>
    a353:	0f b6 c0             	movzbl %al,%eax
    a356:	be a2 3b 00 00       	mov    $0x3ba2,%esi
    a35b:	89 c7                	mov    %eax,%edi
    a35d:	e8 db e9 ff ff       	callq  8d3d <safe_mul_func_uint16_t_u_u>
    a362:	0f b7 d0             	movzwl %ax,%edx
    a365:	0f b7 85 94 f6 ff ff 	movzwl -0x96c(%rbp),%eax
    a36c:	98                   	cwtl   
    a36d:	21 d0                	and    %edx,%eax
    a36f:	83 f8 01             	cmp    $0x1,%eax
    a372:	0f 96 c0             	setbe  %al
    a375:	0f b6 c0             	movzbl %al,%eax
    a378:	48 33 85 68 f7 ff ff 	xor    -0x898(%rbp),%rax
    a37f:	48 89 c2             	mov    %rax,%rdx
    a382:	8b 85 d0 f6 ff ff    	mov    -0x930(%rbp),%eax
    a388:	48 98                	cltq   
    a38a:	48 39 c2             	cmp    %rax,%rdx
    a38d:	74 07                	je     a396 <func_1+0xbe1>
    a38f:	ba 01 00 00 00       	mov    $0x1,%edx
    a394:	eb 05                	jmp    a39b <func_1+0xbe6>
    a396:	ba 00 00 00 00       	mov    $0x0,%edx
    a39b:	48 8b 05 e6 0e 01 00 	mov    0x10ee6(%rip),%rax        # 1b288 <g_287>
    a3a2:	48 8b 08             	mov    (%rax),%rcx
    a3a5:	48 63 d2             	movslq %edx,%rdx
    a3a8:	48 8b 05 d9 0e 01 00 	mov    0x10ed9(%rip),%rax        # 1b288 <g_287>
    a3af:	48 31 ca             	xor    %rcx,%rdx
    a3b2:	48 89 10             	mov    %rdx,(%rax)
    a3b5:	4c 89 ee             	mov    %r13,%rsi
    a3b8:	48 c7 c7 f8 ff ff ff 	mov    $0xfffffffffffffff8,%rdi
    a3bf:	e8 f0 e5 ff ff       	callq  89b4 <safe_mod_func_int64_t_s_s>
    a3c4:	0f b7 c0             	movzwl %ax,%eax
    a3c7:	44 89 e6             	mov    %r12d,%esi
    a3ca:	89 c7                	mov    %eax,%edi
    a3cc:	e8 bd e9 ff ff       	callq  8d8e <safe_div_func_uint16_t_u_u>
    a3d1:	0f b7 c0             	movzwl %ax,%eax
    a3d4:	48 39 85 68 f7 ff ff 	cmp    %rax,-0x898(%rbp)
    a3db:	0f 95 c0             	setne  %al
    a3de:	0f b6 c0             	movzbl %al,%eax
    a3e1:	8b 95 d0 f6 ff ff    	mov    -0x930(%rbp),%edx
    a3e7:	89 d6                	mov    %edx,%esi
    a3e9:	89 c7                	mov    %eax,%edi
    a3eb:	e8 ce e9 ff ff       	callq  8dbe <safe_lshift_func_uint16_t_u_s>
    a3f0:	ba 00 00 00 00       	mov    $0x0,%edx
    a3f5:	48 8b 85 80 f7 ff ff 	mov    -0x880(%rbp),%rax
    a3fc:	8b 00                	mov    (%rax),%eax
    a3fe:	09 c2                	or     %eax,%edx
    a400:	48 8b 85 80 f7 ff ff 	mov    -0x880(%rbp),%rax
    a407:	89 10                	mov    %edx,(%rax)
    a409:	48 8b 85 80 f7 ff ff 	mov    -0x880(%rbp),%rax
    a410:	8b 10                	mov    (%rax),%edx
    a412:	8b 05 20 2c 01 00    	mov    0x12c20(%rip),%eax        # 1d038 <g_162+0x8>
    a418:	21 d0                	and    %edx,%eax
    a41a:	89 05 18 2c 01 00    	mov    %eax,0x12c18(%rip)        # 1d038 <g_162+0x8>
    a420:	48 8b 05 71 0e 01 00 	mov    0x10e71(%rip),%rax        # 1b298 <g_377>
    a427:	48 8b 00             	mov    (%rax),%rax
    a42a:	0f b6 00             	movzbl (%rax),%eax
    a42d:	0f b6 c0             	movzbl %al,%eax
    a430:	89 de                	mov    %ebx,%esi
    a432:	89 c7                	mov    %eax,%edi
    a434:	e8 a2 e7 ff ff       	callq  8bdb <safe_div_func_uint8_t_u_u>
    a439:	0f b6 c0             	movzbl %al,%eax
    a43c:	be 05 00 00 00       	mov    $0x5,%esi
    a441:	89 c7                	mov    %eax,%edi
    a443:	e8 e2 e0 ff ff       	callq  852a <safe_rshift_func_int16_t_s_s>
    a448:	98                   	cwtl   
    a449:	89 c6                	mov    %eax,%esi
    a44b:	bf ff ff ff ff       	mov    $0xffffffff,%edi
    a450:	e8 63 ea ff ff       	callq  8eb8 <safe_add_func_uint32_t_u_u>
    a455:	0f b6 55 ba          	movzbl -0x46(%rbp),%edx
    a459:	0f b6 d2             	movzbl %dl,%edx
    a45c:	39 d0                	cmp    %edx,%eax
    a45e:	0f 83 e7 05 00 00    	jae    aa4b <func_1+0x1296>
    a464:	c7 85 b0 f6 ff ff bd 	movl   $0x362cabd,-0x950(%rbp)
    a46b:	ca 62 03 
    a46e:	48 8d 85 f0 f7 ff ff 	lea    -0x810(%rbp),%rax
    a475:	48 83 c0 04          	add    $0x4,%rax
    a479:	48 89 85 90 f7 ff ff 	mov    %rax,-0x870(%rbp)
    a480:	66 c7 85 8e f6 ff ff 	movw   $0xffff,-0x972(%rbp)
    a487:	ff ff 
    a489:	48 c7 85 98 f7 ff ff 	movq   $0x0,-0x868(%rbp)
    a490:	00 00 00 00 
    a494:	c7 85 b4 f6 ff ff 00 	movl   $0x0,-0x94c(%rbp)
    a49b:	00 00 00 
    a49e:	eb 1e                	jmp    a4be <func_1+0xd09>
    a4a0:	8b 85 b4 f6 ff ff    	mov    -0x94c(%rbp),%eax
    a4a6:	48 98                	cltq   
    a4a8:	48 8d 15 31 27 01 00 	lea    0x12731(%rip),%rdx        # 1cbe0 <g_2515>
    a4af:	48 89 94 c5 b0 f8 ff 	mov    %rdx,-0x750(%rbp,%rax,8)
    a4b6:	ff 
    a4b7:	83 85 b4 f6 ff ff 01 	addl   $0x1,-0x94c(%rbp)
    a4be:	83 bd b4 f6 ff ff 00 	cmpl   $0x0,-0x94c(%rbp)
    a4c5:	7e d9                	jle    a4a0 <func_1+0xceb>
    a4c7:	c7 85 b4 f6 ff ff 00 	movl   $0x0,-0x94c(%rbp)
    a4ce:	00 00 00 
    a4d1:	eb 1b                	jmp    a4ee <func_1+0xd39>
    a4d3:	8b 85 b4 f6 ff ff    	mov    -0x94c(%rbp),%eax
    a4d9:	48 98                	cltq   
    a4db:	48 c7 84 c5 00 f9 ff 	movq   $0x0,-0x700(%rbp,%rax,8)
    a4e2:	ff 00 00 00 00 
    a4e7:	83 85 b4 f6 ff ff 01 	addl   $0x1,-0x94c(%rbp)
    a4ee:	83 bd b4 f6 ff ff 06 	cmpl   $0x6,-0x94c(%rbp)
    a4f5:	7e dc                	jle    a4d3 <func_1+0xd1e>
    a4f7:	48 8b 05 e2 26 01 00 	mov    0x126e2(%rip),%rax        # 1cbe0 <g_2515>
    a4fe:	48 89 05 db 26 01 00 	mov    %rax,0x126db(%rip)        # 1cbe0 <g_2515>
    a505:	0f b7 05 b4 ee 00 00 	movzwl 0xeeb4(%rip),%eax        # 193c0 <g_958+0x8>
    a50c:	c1 e0 07             	shl    $0x7,%eax
    a50f:	66 c1 f8 07          	sar    $0x7,%ax
    a513:	0f b6 d8             	movzbl %al,%ebx
    a516:	0f b7 85 94 f6 ff ff 	movzwl -0x96c(%rbp),%eax
    a51d:	0f b6 c0             	movzbl %al,%eax
    a520:	be 65 00 00 00       	mov    $0x65,%esi
    a525:	89 c7                	mov    %eax,%edi
    a527:	e8 2e e6 ff ff       	callq  8b5a <safe_add_func_uint8_t_u_u>
    a52c:	0f b7 05 dd f4 00 00 	movzwl 0xf4dd(%rip),%eax        # 19a10 <g_2459+0x8>
    a533:	c1 e0 07             	shl    $0x7,%eax
    a536:	66 c1 f8 07          	sar    $0x7,%ax
    a53a:	0f bf d0             	movswl %ax,%edx
    a53d:	48 8b 05 3c 0d 01 00 	mov    0x10d3c(%rip),%rax        # 1b280 <g_276>
    a544:	48 8b 00             	mov    (%rax),%rax
    a547:	8b 08                	mov    (%rax),%ecx
    a549:	0f b7 85 94 f6 ff ff 	movzwl -0x96c(%rbp),%eax
    a550:	98                   	cwtl   
    a551:	39 c1                	cmp    %eax,%ecx
    a553:	0f 95 c0             	setne  %al
    a556:	0f b6 c0             	movzbl %al,%eax
    a559:	89 d6                	mov    %edx,%esi
    a55b:	89 c7                	mov    %eax,%edi
    a55d:	e8 93 de ff ff       	callq  83f5 <safe_mul_func_int16_t_s_s>
    a562:	48 83 bd 68 f7 ff ff 	cmpq   $0x0,-0x898(%rbp)
    a569:	00 
    a56a:	75 08                	jne    a574 <func_1+0xdbf>
    a56c:	8b 05 ea ed 00 00    	mov    0xedea(%rip),%eax        # 1935c <g_354>
    a572:	85 c0                	test   %eax,%eax
    a574:	48 8b 05 75 ee 00 00 	mov    0xee75(%rip),%rax        # 193f0 <g_988+0x8>
    a57b:	48 c1 e8 09          	shr    $0x9,%rax
    a57f:	66 25 ff 1f          	and    $0x1fff,%ax
    a583:	0f b7 c0             	movzwl %ax,%eax
    a586:	89 85 b0 f6 ff ff    	mov    %eax,-0x950(%rbp)
    a58c:	8b 85 b0 f6 ff ff    	mov    -0x950(%rbp),%eax
    a592:	88 05 80 ec 00 00    	mov    %al,0xec80(%rip)        # 19218 <g_274>
    a598:	0f b6 05 79 ec 00 00 	movzbl 0xec79(%rip),%eax        # 19218 <g_274>
    a59f:	0f be c0             	movsbl %al,%eax
    a5a2:	89 85 d0 f6 ff ff    	mov    %eax,-0x930(%rbp)
    a5a8:	83 bd d0 f6 ff ff 00 	cmpl   $0x0,-0x930(%rbp)
    a5af:	0f 9f c2             	setg   %dl
    a5b2:	48 8b 05 cf 0c 01 00 	mov    0x10ccf(%rip),%rax        # 1b288 <g_287>
    a5b9:	0f b6 d2             	movzbl %dl,%edx
    a5bc:	48 89 10             	mov    %rdx,(%rax)
    a5bf:	48 8b 00             	mov    (%rax),%rax
    a5c2:	89 c2                	mov    %eax,%edx
    a5c4:	0f b7 85 86 f6 ff ff 	movzwl -0x97a(%rbp),%eax
    a5cb:	09 d0                	or     %edx,%eax
    a5cd:	0f b6 c0             	movzbl %al,%eax
    a5d0:	89 de                	mov    %ebx,%esi
    a5d2:	89 c7                	mov    %eax,%edi
    a5d4:	e8 ba e5 ff ff       	callq  8b93 <safe_mul_func_uint8_t_u_u>
    a5d9:	89 c2                	mov    %eax,%edx
    a5db:	48 8b 05 7e 0c 01 00 	mov    0x10c7e(%rip),%rax        # 1b260 <g_89>
    a5e2:	0f b6 d2             	movzbl %dl,%edx
    a5e5:	89 10                	mov    %edx,(%rax)
    a5e7:	48 c7 05 2e eb 00 00 	movq   $0x0,0xeb2e(%rip)        # 19120 <g_93>
    a5ee:	00 00 00 00 
    a5f2:	e9 41 04 00 00       	jmpq   aa38 <func_1+0x1283>
    a5f7:	c7 85 d8 f6 ff ff 20 	movl   $0xb1054620,-0x928(%rbp)
    a5fe:	46 05 b1 
    a601:	c7 85 dc f6 ff ff e1 	movl   $0x39a0a7e1,-0x924(%rbp)
    a608:	a7 a0 39 
    a60b:	c7 05 13 2a 01 00 00 	movl   $0x0,0x12a13(%rip)        # 1d028 <g_85>
    a612:	00 00 00 
    a615:	e9 a0 01 00 00       	jmpq   a7ba <func_1+0x1005>
    a61a:	48 8d 05 ef ab 00 00 	lea    0xabef(%rip),%rax        # 15210 <g_2542>
    a621:	48 89 85 10 f7 ff ff 	mov    %rax,-0x8f0(%rbp)
    a628:	48 8d 85 10 f7 ff ff 	lea    -0x8f0(%rbp),%rax
    a62f:	48 89 85 b8 f7 ff ff 	mov    %rax,-0x848(%rbp)
    a636:	c7 85 b8 f6 ff ff 00 	movl   $0x0,-0x948(%rbp)
    a63d:	00 00 00 
    a640:	eb 1a                	jmp    a65c <func_1+0xea7>
    a642:	8b 85 b8 f6 ff ff    	mov    -0x948(%rbp),%eax
    a648:	48 98                	cltq   
    a64a:	c7 84 85 d0 fb ff ff 	movl   $0x4d6e678b,-0x430(%rbp,%rax,4)
    a651:	8b 67 6e 4d 
    a655:	83 85 b8 f6 ff ff 01 	addl   $0x1,-0x948(%rbp)
    a65c:	83 bd b8 f6 ff ff 00 	cmpl   $0x0,-0x948(%rbp)
    a663:	7e dd                	jle    a642 <func_1+0xe8d>
    a665:	0f b7 05 aa f3 00 00 	movzwl 0xf3aa(%rip),%eax        # 19a16 <g_2545>
    a66c:	0f b7 d8             	movzwl %ax,%ebx
    a66f:	0f b7 05 4a ed 00 00 	movzwl 0xed4a(%rip),%eax        # 193c0 <g_958+0x8>
    a676:	c1 e0 07             	shl    $0x7,%eax
    a679:	66 c1 f8 07          	sar    $0x7,%ax
    a67d:	44 0f bf e0          	movswl %ax,%r12d
    a681:	48 8b 05 d8 0b 01 00 	mov    0x10bd8(%rip),%rax        # 1b260 <g_89>
    a688:	8b 10                	mov    (%rax),%edx
    a68a:	48 8b 05 cf 0b 01 00 	mov    0x10bcf(%rip),%rax        # 1b260 <g_89>
    a691:	81 f2 d8 f1 a7 1c    	xor    $0x1ca7f1d8,%edx
    a697:	89 10                	mov    %edx,(%rax)
    a699:	44 8b 28             	mov    (%rax),%r13d
    a69c:	48 83 bd b8 f7 ff ff 	cmpq   $0x0,-0x848(%rbp)
    a6a3:	00 
    a6a4:	0f 95 c0             	setne  %al
    a6a7:	44 0f b6 f0          	movzbl %al,%r14d
    a6ab:	0f b7 85 94 f6 ff ff 	movzwl -0x96c(%rbp),%eax
    a6b2:	0f be c0             	movsbl %al,%eax
    a6b5:	be 9a ff ff ff       	mov    $0xffffff9a,%esi
    a6ba:	89 c7                	mov    %eax,%edi
    a6bc:	e8 13 db ff ff       	callq  81d4 <safe_add_func_int8_t_s_s>
    a6c1:	0f be c0             	movsbl %al,%eax
    a6c4:	44 89 f2             	mov    %r14d,%edx
    a6c7:	09 c2                	or     %eax,%edx
    a6c9:	48 8d 05 64 ea 00 00 	lea    0xea64(%rip),%rax        # 19134 <g_132+0x2>
    a6d0:	0f b7 00             	movzwl (%rax),%eax
    a6d3:	98                   	cwtl   
    a6d4:	39 c2                	cmp    %eax,%edx
    a6d6:	0f 95 c0             	setne  %al
    a6d9:	0f b6 c0             	movzbl %al,%eax
    a6dc:	41 39 c5             	cmp    %eax,%r13d
    a6df:	0f 9f c0             	setg   %al
    a6e2:	0f b6 c0             	movzbl %al,%eax
    a6e5:	8b 15 3d 29 01 00    	mov    0x1293d(%rip),%edx        # 1d028 <g_85>
    a6eb:	8b 0d 37 29 01 00    	mov    0x12937(%rip),%ecx        # 1d028 <g_85>
    a6f1:	89 c9                	mov    %ecx,%ecx
    a6f3:	89 d2                	mov    %edx,%edx
    a6f5:	48 c1 e2 02          	shl    $0x2,%rdx
    a6f9:	48 01 ca             	add    %rcx,%rdx
    a6fc:	48 8d 0c d5 00 00 00 	lea    0x0(,%rdx,8),%rcx
    a703:	00 
    a704:	48 8d 15 35 e9 00 00 	lea    0xe935(%rip),%rdx        # 19040 <g_2>
    a70b:	48 8b 14 11          	mov    (%rcx,%rdx,1),%rdx
    a70f:	89 c6                	mov    %eax,%esi
    a711:	89 d7                	mov    %edx,%edi
    a713:	e8 9e de ff ff       	callq  85b6 <safe_add_func_int32_t_s_s>
    a718:	0f b6 15 42 ec 00 00 	movzbl 0xec42(%rip),%edx        # 19361 <g_384>
    a71f:	0f be d2             	movsbl %dl,%edx
    a722:	31 d0                	xor    %edx,%eax
    a724:	89 c6                	mov    %eax,%esi
    a726:	48 8b 05 6b 0b 01 00 	mov    0x10b6b(%rip),%rax        # 1b298 <g_377>
    a72d:	48 8b 00             	mov    (%rax),%rax
    a730:	0f b6 10             	movzbl (%rax),%edx
    a733:	8d 4a 01             	lea    0x1(%rdx),%ecx
    a736:	88 08                	mov    %cl,(%rax)
    a738:	0f b6 c2             	movzbl %dl,%eax
    a73b:	89 c7                	mov    %eax,%edi
    a73d:	e8 0a e5 ff ff       	callq  8c4c <safe_lshift_func_uint8_t_u_u>
    a742:	0f b6 45 ba          	movzbl -0x46(%rbp),%eax
    a746:	3c 6b                	cmp    $0x6b,%al
    a748:	0f 94 c0             	sete   %al
    a74b:	0f b6 c8             	movzbl %al,%ecx
    a74e:	48 8b 85 00 f7 ff ff 	mov    -0x900(%rbp),%rax
    a755:	8b 10                	mov    (%rax),%edx
    a757:	48 8b 85 00 f7 ff ff 	mov    -0x900(%rbp),%rax
    a75e:	09 ca                	or     %ecx,%edx
    a760:	89 10                	mov    %edx,(%rax)
    a762:	44 89 e6             	mov    %r12d,%esi
    a765:	bf f8 ff 00 00       	mov    $0xfff8,%edi
    a76a:	e8 0b e7 ff ff       	callq  8e7a <safe_rshift_func_uint16_t_u_u>
    a76f:	0f b7 c0             	movzwl %ax,%eax
    a772:	89 de                	mov    %ebx,%esi
    a774:	89 c7                	mov    %eax,%edi
    a776:	e8 8a de ff ff       	callq  8605 <safe_sub_func_int32_t_s_s>
    a77b:	0f b7 c0             	movzwl %ax,%eax
    a77e:	be 00 00 00 00       	mov    $0x0,%esi
    a783:	89 c7                	mov    %eax,%edi
    a785:	e8 75 e5 ff ff       	callq  8cff <safe_add_func_uint16_t_u_u>
    a78a:	ba 01 00 00 00       	mov    $0x1,%edx
    a78f:	8b 85 d0 fb ff ff    	mov    -0x430(%rbp),%eax
    a795:	21 d0                	and    %edx,%eax
    a797:	89 85 d0 fb ff ff    	mov    %eax,-0x430(%rbp)
    a79d:	48 8d 85 d0 fb ff ff 	lea    -0x430(%rbp),%rax
    a7a4:	48 89 85 90 f7 ff ff 	mov    %rax,-0x870(%rbp)
    a7ab:	8b 05 77 28 01 00    	mov    0x12877(%rip),%eax        # 1d028 <g_85>
    a7b1:	83 c0 01             	add    $0x1,%eax
    a7b4:	89 05 6e 28 01 00    	mov    %eax,0x1286e(%rip)        # 1d028 <g_85>
    a7ba:	8b 05 68 28 01 00    	mov    0x12868(%rip),%eax        # 1d028 <g_85>
    a7c0:	83 f8 03             	cmp    $0x3,%eax
    a7c3:	0f 86 51 fe ff ff    	jbe    a61a <func_1+0xe65>
    a7c9:	83 85 d8 f6 ff ff 01 	addl   $0x1,-0x928(%rbp)
    a7d0:	c7 85 b0 f6 ff ff 07 	movl   $0x7,-0x950(%rbp)
    a7d7:	00 00 00 
    a7da:	e9 2b 02 00 00       	jmpq   aa0a <func_1+0x1255>
    a7df:	48 8d 85 f8 f6 ff ff 	lea    -0x908(%rbp),%rax
    a7e6:	48 89 85 10 f7 ff ff 	mov    %rax,-0x8f0(%rbp)
    a7ed:	48 c7 85 d0 fb ff ff 	movq   $0x0,-0x430(%rbp)
    a7f4:	00 00 00 00 
    a7f8:	48 8d 85 10 f7 ff ff 	lea    -0x8f0(%rbp),%rax
    a7ff:	48 89 85 d8 fb ff ff 	mov    %rax,-0x428(%rbp)
    a806:	48 c7 85 e0 fb ff ff 	movq   $0x0,-0x420(%rbp)
    a80d:	00 00 00 00 
    a811:	48 8d 85 10 f7 ff ff 	lea    -0x8f0(%rbp),%rax
    a818:	48 89 85 e8 fb ff ff 	mov    %rax,-0x418(%rbp)
    a81f:	48 c7 85 f0 fb ff ff 	movq   $0x0,-0x410(%rbp)
    a826:	00 00 00 00 
    a82a:	48 8d 85 10 f7 ff ff 	lea    -0x8f0(%rbp),%rax
    a831:	48 89 85 f8 fb ff ff 	mov    %rax,-0x408(%rbp)
    a838:	48 c7 85 00 fc ff ff 	movq   $0x0,-0x400(%rbp)
    a83f:	00 00 00 00 
    a843:	48 8d 85 10 f7 ff ff 	lea    -0x8f0(%rbp),%rax
    a84a:	48 89 85 08 fc ff ff 	mov    %rax,-0x3f8(%rbp)
    a851:	48 c7 85 10 fc ff ff 	movq   $0x0,-0x3f0(%rbp)
    a858:	00 00 00 00 
    a85c:	48 8d 85 d0 fb ff ff 	lea    -0x430(%rbp),%rax
    a863:	48 83 c0 08          	add    $0x8,%rax
    a867:	48 89 85 a0 f7 ff ff 	mov    %rax,-0x860(%rbp)
    a86e:	c7 85 e0 f6 ff ff 00 	movl   $0x0,-0x920(%rbp)
    a875:	00 00 00 
    a878:	c7 85 e4 f6 ff ff 15 	movl   $0x7fd04515,-0x91c(%rbp)
    a87f:	45 d0 7f 
    a882:	c7 05 c4 eb 00 00 01 	movl   $0x1,0xebc4(%rip)        # 19450 <g_1279+0x10>
    a889:	00 00 00 
    a88c:	e9 95 00 00 00       	jmpq   a926 <func_1+0x1171>
    a891:	48 8d 05 9c e8 00 00 	lea    0xe89c(%rip),%rax        # 19134 <g_132+0x2>
    a898:	48 89 85 a8 f7 ff ff 	mov    %rax,-0x858(%rbp)
    a89f:	48 8d 85 94 f6 ff ff 	lea    -0x96c(%rbp),%rax
    a8a6:	48 89 85 b0 f7 ff ff 	mov    %rax,-0x850(%rbp)
    a8ad:	48 8b 85 a8 f7 ff ff 	mov    -0x858(%rbp),%rax
    a8b4:	66 c7 00 00 00       	movw   $0x0,(%rax)
    a8b9:	48 8b 85 a8 f7 ff ff 	mov    -0x858(%rbp),%rax
    a8c0:	0f b7 10             	movzwl (%rax),%edx
    a8c3:	48 8b 85 b0 f7 ff ff 	mov    -0x850(%rbp),%rax
    a8ca:	66 89 10             	mov    %dx,(%rax)
    a8cd:	48 8b 85 b0 f7 ff ff 	mov    -0x850(%rbp),%rax
    a8d4:	0f b7 00             	movzwl (%rax),%eax
    a8d7:	0f bf d8             	movswl %ax,%ebx
    a8da:	8b 05 34 e9 00 00    	mov    0xe934(%rip),%eax        # 19214 <g_272>
    a8e0:	98                   	cwtl   
    a8e1:	89 c6                	mov    %eax,%esi
    a8e3:	bf 09 00 00 00       	mov    $0x9,%edi
    a8e8:	e8 68 db ff ff       	callq  8455 <safe_div_func_int16_t_s_s>
    a8ed:	66 83 f8 01          	cmp    $0x1,%ax
    a8f1:	0f 9e c0             	setle  %al
    a8f4:	0f b6 c0             	movzbl %al,%eax
    a8f7:	89 de                	mov    %ebx,%esi
    a8f9:	89 c7                	mov    %eax,%edi
    a8fb:	e8 f5 da ff ff       	callq  83f5 <safe_mul_func_int16_t_s_s>
    a900:	48 8b 15 59 09 01 00 	mov    0x10959(%rip),%rdx        # 1b260 <g_89>
    a907:	8b 0a                	mov    (%rdx),%ecx
    a909:	0f bf d0             	movswl %ax,%edx
    a90c:	48 8b 05 4d 09 01 00 	mov    0x1094d(%rip),%rax        # 1b260 <g_89>
    a913:	31 ca                	xor    %ecx,%edx
    a915:	89 10                	mov    %edx,(%rax)
    a917:	8b 05 33 eb 00 00    	mov    0xeb33(%rip),%eax        # 19450 <g_1279+0x10>
    a91d:	83 e8 01             	sub    $0x1,%eax
    a920:	89 05 2a eb 00 00    	mov    %eax,0xeb2a(%rip)        # 19450 <g_1279+0x10>
    a926:	8b 05 24 eb 00 00    	mov    0xeb24(%rip),%eax        # 19450 <g_1279+0x10>
    a92c:	85 c0                	test   %eax,%eax
    a92e:	0f 89 5d ff ff ff    	jns    a891 <func_1+0x10dc>
    a934:	48 8b 95 d8 fb ff ff 	mov    -0x428(%rbp),%rdx
    a93b:	48 8b 85 a0 f7 ff ff 	mov    -0x860(%rbp),%rax
    a942:	48 89 10             	mov    %rdx,(%rax)
    a945:	48 8b 85 a0 f7 ff ff 	mov    -0x860(%rbp),%rax
    a94c:	48 8b 00             	mov    (%rax),%rax
    a94f:	48 8d 15 ea 1f 01 00 	lea    0x11fea(%rip),%rdx        # 1c940 <g_2458>
    a956:	48 39 d0             	cmp    %rdx,%rax
    a959:	0f 95 c2             	setne  %dl
    a95c:	48 8b 05 fd 08 01 00 	mov    0x108fd(%rip),%rax        # 1b260 <g_89>
    a963:	0f b6 d2             	movzbl %dl,%edx
    a966:	89 10                	mov    %edx,(%rax)
    a968:	8b 00                	mov    (%rax),%eax
    a96a:	85 c0                	test   %eax,%eax
    a96c:	74 4f                	je     a9bd <func_1+0x1208>
    a96e:	c6 85 83 f6 ff ff 6b 	movb   $0x6b,-0x97d(%rbp)
    a975:	83 85 e4 f6 ff ff 01 	addl   $0x1,-0x91c(%rbp)
    a97c:	48 8b 05 15 09 01 00 	mov    0x10915(%rip),%rax        # 1b298 <g_377>
    a983:	48 8b 00             	mov    (%rax),%rax
    a986:	48 8b 95 98 f7 ff ff 	mov    -0x868(%rbp),%rdx
    a98d:	88 10                	mov    %dl,(%rax)
    a98f:	0f b6 00             	movzbl (%rax),%eax
    a992:	0f b6 c0             	movzbl %al,%eax
    a995:	89 c6                	mov    %eax,%esi
    a997:	bf fa ff ff ff       	mov    $0xfffffffa,%edi
    a99c:	e8 4d d9 ff ff       	callq  82ee <safe_lshift_func_int8_t_s_u>
    a9a1:	8b 95 d8 f6 ff ff    	mov    -0x928(%rbp),%edx
    a9a7:	48 8b 05 b2 08 01 00 	mov    0x108b2(%rip),%rax        # 1b260 <g_89>
    a9ae:	8b 00                	mov    (%rax),%eax
    a9b0:	21 c2                	and    %eax,%edx
    a9b2:	48 8b 05 a7 08 01 00 	mov    0x108a7(%rip),%rax        # 1b260 <g_89>
    a9b9:	89 10                	mov    %edx,(%rax)
    a9bb:	eb 34                	jmp    a9f1 <func_1+0x123c>
    a9bd:	48 8b 05 7c 1f 01 00 	mov    0x11f7c(%rip),%rax        # 1c940 <g_2458>
    a9c4:	48 8b 95 88 f7 ff ff 	mov    -0x878(%rbp),%rdx
    a9cb:	48 89 10             	mov    %rdx,(%rax)
    a9ce:	48 8b 15 6b 1f 01 00 	mov    0x11f6b(%rip),%rdx        # 1c940 <g_2458>
    a9d5:	48 8b 05 64 1f 01 00 	mov    0x11f64(%rip),%rax        # 1c940 <g_2458>
    a9dc:	48 8b 12             	mov    (%rdx),%rdx
    a9df:	48 89 10             	mov    %rdx,(%rax)
    a9e2:	8b 05 f4 ef 00 00    	mov    0xeff4(%rip),%eax        # 199dc <g_2152>
    a9e8:	85 c0                	test   %eax,%eax
    a9ea:	74 05                	je     a9f1 <func_1+0x123c>
    a9ec:	e9 8e ef ff ff       	jmpq   997f <func_1+0x1ca>
    a9f1:	83 bd d0 f6 ff ff 00 	cmpl   $0x0,-0x930(%rbp)
    a9f8:	75 1f                	jne    aa19 <func_1+0x1264>
    a9fa:	83 bd d4 f6 ff ff 00 	cmpl   $0x0,-0x92c(%rbp)
    aa01:	75 19                	jne    aa1c <func_1+0x1267>
    aa03:	83 ad b0 f6 ff ff 01 	subl   $0x1,-0x950(%rbp)
    aa0a:	83 bd b0 f6 ff ff f0 	cmpl   $0xfffffff0,-0x950(%rbp)
    aa11:	0f 8c c8 fd ff ff    	jl     a7df <func_1+0x102a>
    aa17:	eb 04                	jmp    aa1d <func_1+0x1268>
    aa19:	90                   	nop
    aa1a:	eb 01                	jmp    aa1d <func_1+0x1268>
    aa1c:	90                   	nop
    aa1d:	48 8b 05 fc e6 00 00 	mov    0xe6fc(%rip),%rax        # 19120 <g_93>
    aa24:	be 07 00 00 00       	mov    $0x7,%esi
    aa29:	48 89 c7             	mov    %rax,%rdi
    aa2c:	e8 10 de ff ff       	callq  8841 <safe_add_func_int64_t_s_s>
    aa31:	48 89 05 e8 e6 00 00 	mov    %rax,0xe6e8(%rip)        # 19120 <g_93>
    aa38:	48 8b 05 e1 e6 00 00 	mov    0xe6e1(%rip),%rax        # 19120 <g_93>
    aa3f:	48 83 f8 38          	cmp    $0x38,%rax
    aa43:	0f 85 ae fb ff ff    	jne    a5f7 <func_1+0xe42>
    aa49:	eb 0d                	jmp    aa58 <func_1+0x12a3>
    aa4b:	48 8b 05 0e 08 01 00 	mov    0x1080e(%rip),%rax        # 1b260 <g_89>
    aa52:	c7 00 46 03 e3 91    	movl   $0x91e30346,(%rax)
    aa58:	0f b6 05 02 e9 00 00 	movzbl 0xe902(%rip),%eax        # 19361 <g_384>
    aa5f:	83 c0 01             	add    $0x1,%eax
    aa62:	88 05 f9 e8 00 00    	mov    %al,0xe8f9(%rip)        # 19361 <g_384>
    aa68:	0f b6 05 f2 e8 00 00 	movzbl 0xe8f2(%rip),%eax        # 19361 <g_384>
    aa6f:	3c 0e                	cmp    $0xe,%al
    aa71:	0f 8f 4a f6 ff ff    	jg     a0c1 <func_1+0x90c>
    aa77:	0f bf 85 88 f6 ff ff 	movswl -0x978(%rbp),%eax
    aa7e:	48 8b 5d c8          	mov    -0x38(%rbp),%rbx
    aa82:	64 48 33 1c 25 28 00 	xor    %fs:0x28,%rbx
    aa89:	00 00 
    aa8b:	74 05                	je     aa92 <func_1+0x12dd>
    aa8d:	e8 de d5 ff ff       	callq  8070 <__stack_chk_fail@plt>
    aa92:	48 81 c4 68 09 00 00 	add    $0x968,%rsp
    aa99:	5b                   	pop    %rbx
    aa9a:	41 5c                	pop    %r12
    aa9c:	41 5d                	pop    %r13
    aa9e:	41 5e                	pop    %r14
    aaa0:	41 5f                	pop    %r15
    aaa2:	5d                   	pop    %rbp
    aaa3:	c3                   	retq   

000000000000aaa4 <func_9>:
    aaa4:	f3 0f 1e fa          	endbr64 
    aaa8:	55                   	push   %rbp
    aaa9:	48 89 e5             	mov    %rsp,%rbp
    aaac:	41 57                	push   %r15
    aaae:	41 56                	push   %r14
    aab0:	41 55                	push   %r13
    aab2:	41 54                	push   %r12
    aab4:	53                   	push   %rbx
    aab5:	48 81 ec 88 0c 00 00 	sub    $0xc88,%rsp
    aabc:	89 f8                	mov    %edi,%eax
    aabe:	88 85 5c f3 ff ff    	mov    %al,-0xca4(%rbp)
    aac4:	64 48 8b 04 25 28 00 	mov    %fs:0x28,%rax
    aacb:	00 00 
    aacd:	48 89 45 c8          	mov    %rax,-0x38(%rbp)
    aad1:	31 c0                	xor    %eax,%eax
    aad3:	48 8d 05 42 e6 00 00 	lea    0xe642(%rip),%rax        # 1911c <g_90>
    aada:	48 89 85 20 f4 ff ff 	mov    %rax,-0xbe0(%rbp)
    aae1:	48 8d 05 34 e6 00 00 	lea    0xe634(%rip),%rax        # 1911c <g_90>
    aae8:	48 89 85 28 f4 ff ff 	mov    %rax,-0xbd8(%rbp)
    aaef:	48 c7 85 30 f4 ff ff 	movq   $0x0,-0xbd0(%rbp)
    aaf6:	00 00 00 00 
    aafa:	48 8d 05 1b e6 00 00 	lea    0xe61b(%rip),%rax        # 1911c <g_90>
    ab01:	48 89 85 e0 f5 ff ff 	mov    %rax,-0xa20(%rbp)
    ab08:	48 8d 05 0d e6 00 00 	lea    0xe60d(%rip),%rax        # 1911c <g_90>
    ab0f:	48 89 85 e8 f5 ff ff 	mov    %rax,-0xa18(%rbp)
    ab16:	48 8d 05 ff e5 00 00 	lea    0xe5ff(%rip),%rax        # 1911c <g_90>
    ab1d:	48 89 85 f0 f5 ff ff 	mov    %rax,-0xa10(%rbp)
    ab24:	48 8d 05 f1 e5 00 00 	lea    0xe5f1(%rip),%rax        # 1911c <g_90>
    ab2b:	48 89 85 f8 f5 ff ff 	mov    %rax,-0xa08(%rbp)
    ab32:	48 8d 05 e3 e5 00 00 	lea    0xe5e3(%rip),%rax        # 1911c <g_90>
    ab39:	48 89 85 00 f6 ff ff 	mov    %rax,-0xa00(%rbp)
    ab40:	48 8d 05 d5 e5 00 00 	lea    0xe5d5(%rip),%rax        # 1911c <g_90>
    ab47:	48 89 85 08 f6 ff ff 	mov    %rax,-0x9f8(%rbp)
    ab4e:	48 8d 05 c7 e5 00 00 	lea    0xe5c7(%rip),%rax        # 1911c <g_90>
    ab55:	48 89 85 10 f6 ff ff 	mov    %rax,-0x9f0(%rbp)
    ab5c:	48 8d 05 b9 e5 00 00 	lea    0xe5b9(%rip),%rax        # 1911c <g_90>
    ab63:	48 89 85 18 f6 ff ff 	mov    %rax,-0x9e8(%rbp)
    ab6a:	48 8d 05 ab e5 00 00 	lea    0xe5ab(%rip),%rax        # 1911c <g_90>
    ab71:	48 89 85 20 f6 ff ff 	mov    %rax,-0x9e0(%rbp)
    ab78:	66 c7 85 70 f3 ff ff 	movw   $0x0,-0xc90(%rbp)
    ab7f:	00 00 
    ab81:	48 b8 76 0c 00 00 00 	movabs $0x76760c0000000c76,%rax
    ab88:	0c 76 76 
    ab8b:	48 89 85 a0 f5 ff ff 	mov    %rax,-0xa60(%rbp)
    ab92:	48 b8 0c 00 fa fa 00 	movabs $0xcfc0c00fafa000c,%rax
    ab99:	0c fc 0c 
    ab9c:	48 89 85 a8 f5 ff ff 	mov    %rax,-0xa58(%rbp)
    aba3:	48 b8 00 0c fc 0c 00 	movabs $0xfafa000cfc0c00,%rax
    abaa:	fa fa 00 
    abad:	48 89 85 b0 f5 ff ff 	mov    %rax,-0xa50(%rbp)
    abb4:	48 b8 0c 76 76 0c 00 	movabs $0xc0000000c76760c,%rax
    abbb:	00 00 0c 
    abbe:	48 89 85 b8 f5 ff ff 	mov    %rax,-0xa48(%rbp)
    abc5:	48 b8 76 00 76 fa fc 	movabs $0x76fafcfcfa760076,%rax
    abcc:	fc fa 76 
    abcf:	48 89 85 c0 f5 ff ff 	mov    %rax,-0xa40(%rbp)
    abd6:	48 b8 00 00 fc 00 53 	movabs $0xfc005300fc0000,%rax
    abdd:	00 fc 00 
    abe0:	48 89 85 c8 f5 ff ff 	mov    %rax,-0xa38(%rbp)
    abe7:	48 b8 00 76 fa fc fc 	movabs $0x76fafcfcfa7600,%rax
    abee:	fa 76 00 
    abf1:	48 89 85 d0 f5 ff ff 	mov    %rax,-0xa30(%rbp)
    abf8:	c7 85 78 f3 ff ff 26 	movl   $0xf15d8d26,-0xc88(%rbp)
    abff:	8d 5d f1 
    ac02:	48 c7 85 38 f4 ff ff 	movq   $0x0,-0xbc8(%rbp)
    ac09:	00 00 00 00 
    ac0d:	48 8d 05 0c e5 00 00 	lea    0xe50c(%rip),%rax        # 19120 <g_93>
    ac14:	48 89 85 40 f4 ff ff 	mov    %rax,-0xbc0(%rbp)
    ac1b:	48 8d 05 be 0c 01 00 	lea    0x10cbe(%rip),%rax        # 1b8e0 <g_1690>
    ac22:	48 89 85 48 f4 ff ff 	mov    %rax,-0xbb8(%rbp)
    ac29:	c7 85 a0 f3 ff ff 8b 	movl   $0x6abf978b,-0xc60(%rbp)
    ac30:	97 bf 6a 
    ac33:	c7 85 a4 f3 ff ff 2e 	movl   $0xe0af1b2e,-0xc5c(%rbp)
    ac3a:	1b af e0 
    ac3d:	48 c7 85 f8 f3 ff ff 	movq   $0x0,-0xc08(%rbp)
    ac44:	00 00 00 00 
    ac48:	48 8d 05 91 24 01 00 	lea    0x12491(%rip),%rax        # 1d0e0 <g_1630>
    ac4f:	48 89 85 50 f5 ff ff 	mov    %rax,-0xab0(%rbp)
    ac56:	48 8d 05 83 24 01 00 	lea    0x12483(%rip),%rax        # 1d0e0 <g_1630>
    ac5d:	48 89 85 58 f5 ff ff 	mov    %rax,-0xaa8(%rbp)
    ac64:	48 8d 05 75 24 01 00 	lea    0x12475(%rip),%rax        # 1d0e0 <g_1630>
    ac6b:	48 89 85 60 f5 ff ff 	mov    %rax,-0xaa0(%rbp)
    ac72:	48 8d 05 67 24 01 00 	lea    0x12467(%rip),%rax        # 1d0e0 <g_1630>
    ac79:	48 89 85 68 f5 ff ff 	mov    %rax,-0xa98(%rbp)
    ac80:	48 8d 85 50 f5 ff ff 	lea    -0xab0(%rbp),%rax
    ac87:	48 83 c0 18          	add    $0x18,%rax
    ac8b:	48 89 85 00 f4 ff ff 	mov    %rax,-0xc00(%rbp)
    ac92:	48 8d 85 00 f4 ff ff 	lea    -0xc00(%rbp),%rax
    ac99:	48 89 85 08 f4 ff ff 	mov    %rax,-0xbf8(%rbp)
    aca0:	48 8d 85 08 f4 ff ff 	lea    -0xbf8(%rbp),%rax
    aca7:	48 89 85 50 f4 ff ff 	mov    %rax,-0xbb0(%rbp)
    acae:	48 c7 85 58 f4 ff ff 	movq   $0x0,-0xba8(%rbp)
    acb5:	00 00 00 00 
    acb9:	c6 85 6b f3 ff ff b5 	movb   $0xb5,-0xc95(%rbp)
    acc0:	66 c7 85 72 f3 ff ff 	movw   $0xfff9,-0xc8e(%rbp)
    acc7:	f9 ff 
    acc9:	0f b7 85 70 f3 ff ff 	movzwl -0xc90(%rbp),%eax
    acd0:	83 e8 01             	sub    $0x1,%eax
    acd3:	66 89 85 70 f3 ff ff 	mov    %ax,-0xc90(%rbp)
    acda:	8b 85 78 f3 ff ff    	mov    -0xc88(%rbp),%eax
    ace0:	83 e8 01             	sub    $0x1,%eax
    ace3:	89 85 78 f3 ff ff    	mov    %eax,-0xc88(%rbp)
    ace9:	48 8b 85 20 f4 ff ff 	mov    -0xbe0(%rbp),%rax
    acf0:	8b 00                	mov    (%rax),%eax
    acf2:	89 c2                	mov    %eax,%edx
    acf4:	48 8b 05 85 05 01 00 	mov    0x10585(%rip),%rax        # 1b280 <g_276>
    acfb:	48 8b 00             	mov    (%rax),%rax
    acfe:	8b 00                	mov    (%rax),%eax
    ad00:	89 d6                	mov    %edx,%esi
    ad02:	89 c7                	mov    %eax,%edi
    ad04:	e8 af e1 ff ff       	callq  8eb8 <safe_add_func_uint32_t_u_u>
    ad09:	89 c2                	mov    %eax,%edx
    ad0b:	48 8b 85 28 f4 ff ff 	mov    -0xbd8(%rbp),%rax
    ad12:	89 10                	mov    %edx,(%rax)
    ad14:	48 8b 85 28 f4 ff ff 	mov    -0xbd8(%rbp),%rax
    ad1b:	44 8b 30             	mov    (%rax),%r14d
    ad1e:	0f b6 85 5c f3 ff ff 	movzbl -0xca4(%rbp),%eax
    ad25:	0f be d8             	movsbl %al,%ebx
    ad28:	0f b6 85 5c f3 ff ff 	movzbl -0xca4(%rbp),%eax
    ad2f:	44 0f b6 e0          	movzbl %al,%r12d
    ad33:	0f b6 85 5c f3 ff ff 	movzbl -0xca4(%rbp),%eax
    ad3a:	44 0f be e8          	movsbl %al,%r13d
    ad3e:	48 8b 85 40 f4 ff ff 	mov    -0xbc0(%rbp),%rax
    ad45:	48 8b 10             	mov    (%rax),%rdx
    ad48:	48 8b 85 40 f4 ff ff 	mov    -0xbc0(%rbp),%rax
    ad4f:	48 89 10             	mov    %rdx,(%rax)
    ad52:	0f b7 05 b3 e6 00 00 	movzwl 0xe6b3(%rip),%eax        # 1940c <g_1182+0xc>
    ad59:	0f bf d0             	movswl %ax,%edx
    ad5c:	0f b6 85 5c f3 ff ff 	movzbl -0xca4(%rbp),%eax
    ad63:	66 98                	cbtw   
    ad65:	0f b7 c0             	movzwl %ax,%eax
    ad68:	89 d6                	mov    %edx,%esi
    ad6a:	89 c7                	mov    %eax,%edi
    ad6c:	e8 95 e0 ff ff       	callq  8e06 <safe_lshift_func_uint16_t_u_u>
    ad71:	89 c2                	mov    %eax,%edx
    ad73:	48 8b 05 96 13 01 00 	mov    0x11396(%rip),%rax        # 1c110 <g_1725>
    ad7a:	0f b7 d2             	movzwl %dx,%edx
    ad7d:	89 10                	mov    %edx,(%rax)
    ad7f:	8b 00                	mov    (%rax),%eax
    ad81:	41 89 c7             	mov    %eax,%r15d
    ad84:	0f b6 85 5c f3 ff ff 	movzbl -0xca4(%rbp),%eax
    ad8b:	84 c0                	test   %al,%al
    ad8d:	74 32                	je     adc1 <func_9+0x31d>
    ad8f:	48 8d 05 02 05 01 00 	lea    0x10502(%rip),%rax        # 1b298 <g_377>
    ad96:	48 39 85 38 f4 ff ff 	cmp    %rax,-0xbc8(%rbp)
    ad9d:	0f 95 c0             	setne  %al
    ada0:	0f b6 d0             	movzbl %al,%edx
    ada3:	0f b7 05 fe e5 00 00 	movzwl 0xe5fe(%rip),%eax        # 193a8 <g_745>
    adaa:	0f be c0             	movsbl %al,%eax
    adad:	89 d6                	mov    %edx,%esi
    adaf:	89 c7                	mov    %eax,%edi
    adb1:	e8 1e d4 ff ff       	callq  81d4 <safe_add_func_int8_t_s_s>
    adb6:	84 c0                	test   %al,%al
    adb8:	74 07                	je     adc1 <func_9+0x31d>
    adba:	b8 01 00 00 00       	mov    $0x1,%eax
    adbf:	eb 05                	jmp    adc6 <func_9+0x322>
    adc1:	b8 00 00 00 00       	mov    $0x0,%eax
    adc6:	44 89 fe             	mov    %r15d,%esi
    adc9:	89 c7                	mov    %eax,%edi
    adcb:	e8 2d e1 ff ff       	callq  8efd <safe_mod_func_uint32_t_u_u>
    add0:	89 c2                	mov    %eax,%edx
    add2:	0f b7 05 8f e6 00 00 	movzwl 0xe68f(%rip),%eax        # 19468 <g_1307+0x8>
    add9:	c1 e0 07             	shl    $0x7,%eax
    addc:	66 c1 f8 07          	sar    $0x7,%ax
    ade0:	89 c1                	mov    %eax,%ecx
    ade2:	89 d0                	mov    %edx,%eax
    ade4:	09 c8                	or     %ecx,%eax
    ade6:	c1 e0 07             	shl    $0x7,%eax
    ade9:	66 c1 f8 07          	sar    $0x7,%ax
    aded:	66 25 ff 01          	and    $0x1ff,%ax
    adf1:	89 c2                	mov    %eax,%edx
    adf3:	0f b7 05 6e e6 00 00 	movzwl 0xe66e(%rip),%eax        # 19468 <g_1307+0x8>
    adfa:	66 25 00 fe          	and    $0xfe00,%ax
    adfe:	09 d0                	or     %edx,%eax
    ae00:	66 89 05 61 e6 00 00 	mov    %ax,0xe661(%rip)        # 19468 <g_1307+0x8>
    ae07:	0f b7 05 5a e6 00 00 	movzwl 0xe65a(%rip),%eax        # 19468 <g_1307+0x8>
    ae0e:	c1 e0 07             	shl    $0x7,%eax
    ae11:	66 c1 f8 07          	sar    $0x7,%ax
    ae15:	66 85 c0             	test   %ax,%ax
    ae18:	0f 94 c0             	sete   %al
    ae1b:	0f b6 c0             	movzbl %al,%eax
    ae1e:	44 89 ee             	mov    %r13d,%esi
    ae21:	89 c7                	mov    %eax,%edi
    ae23:	e8 ac d3 ff ff       	callq  81d4 <safe_add_func_int8_t_s_s>
    ae28:	48 0f be c0          	movsbq %al,%rax
    ae2c:	be 01 00 00 00       	mov    $0x1,%esi
    ae31:	48 89 c7             	mov    %rax,%rdi
    ae34:	e8 47 e2 ff ff       	callq  9080 <safe_mod_func_uint64_t_u_u>
    ae39:	44 89 e6             	mov    %r12d,%esi
    ae3c:	bf 2d 00 00 00       	mov    $0x2d,%edi
    ae41:	e8 14 dd ff ff       	callq  8b5a <safe_add_func_uint8_t_u_u>
    ae46:	48 8b 05 9b e2 00 00 	mov    0xe29b(%rip),%rax        # 190e8 <g_2+0xa8>
    ae4d:	0f be c0             	movsbl %al,%eax
    ae50:	89 de                	mov    %ebx,%esi
    ae52:	89 c7                	mov    %eax,%edi
    ae54:	e8 b9 d3 ff ff       	callq  8212 <safe_mul_func_int8_t_s_s>
    ae59:	0f be c0             	movsbl %al,%eax
    ae5c:	44 21 f0             	and    %r14d,%eax
    ae5f:	83 f8 01             	cmp    $0x1,%eax
    ae62:	0f 84 9d 00 00 00    	je     af05 <func_9+0x461>
    ae68:	c6 85 6e f3 ff ff 30 	movb   $0x30,-0xc92(%rbp)
    ae6f:	c7 85 e4 f3 ff ff f7 	movl   $0xfffffff7,-0xc1c(%rbp)
    ae76:	ff ff ff 
    ae79:	c7 85 e8 f3 ff ff ff 	movl   $0xffffffff,-0xc18(%rbp)
    ae80:	ff ff ff 
    ae83:	48 8d 05 f6 03 01 00 	lea    0x103f6(%rip),%rax        # 1b280 <g_276>
    ae8a:	48 89 85 28 f5 ff ff 	mov    %rax,-0xad8(%rbp)
    ae91:	c7 85 ec f3 ff ff fe 	movl   $0xfffffffe,-0xc14(%rbp)
    ae98:	ff ff ff 
    ae9b:	66 c7 05 84 e3 00 00 	movw   $0x0,0xe384(%rip)        # 19228 <g_325>
    aea2:	00 00 
    aea4:	eb 4e                	jmp    aef4 <func_9+0x450>
    aea6:	48 8d 05 2b 22 01 00 	lea    0x1222b(%rip),%rax        # 1d0d8 <g_1570>
    aead:	48 89 85 30 f5 ff ff 	mov    %rax,-0xad0(%rbp)
    aeb4:	48 c7 85 38 f5 ff ff 	movq   $0x0,-0xac8(%rbp)
    aebb:	00 00 00 00 
    aebf:	c7 85 f0 f3 ff ff c7 	movl   $0x1a76d6c7,-0xc10(%rbp)
    aec6:	d6 76 1a 
    aec9:	c6 85 6f f3 ff ff 12 	movb   $0x12,-0xc91(%rbp)
    aed0:	66 c7 85 76 f3 ff ff 	movw   $0xbae6,-0xc8a(%rbp)
    aed7:	e6 ba 
    aed9:	c7 85 f4 f3 ff ff 00 	movl   $0x0,-0xc0c(%rbp)
    aee0:	00 00 00 
    aee3:	0f b7 05 3e e3 00 00 	movzwl 0xe33e(%rip),%eax        # 19228 <g_325>
    aeea:	83 e8 01             	sub    $0x1,%eax
    aeed:	66 89 05 34 e3 00 00 	mov    %ax,0xe334(%rip)        # 19228 <g_325>
    aef4:	0f b7 05 2d e3 00 00 	movzwl 0xe32d(%rip),%eax        # 19228 <g_325>
    aefb:	66 85 c0             	test   %ax,%ax
    aefe:	78 a6                	js     aea6 <func_9+0x402>
    af00:	e9 c0 17 00 00       	jmpq   c6c5 <func_9+0x1c21>
    af05:	48 8d 05 1c e3 00 00 	lea    0xe31c(%rip),%rax        # 19228 <g_325>
    af0c:	48 89 85 60 f4 ff ff 	mov    %rax,-0xba0(%rbp)
    af13:	c7 85 a8 f3 ff ff e7 	movl   $0xffafbce7,-0xc58(%rbp)
    af1a:	bc af ff 
    af1d:	48 8d 05 54 06 01 00 	lea    0x10654(%rip),%rax        # 1b578 <g_950>
    af24:	48 89 85 68 f4 ff ff 	mov    %rax,-0xb98(%rbp)
    af2b:	48 8d 85 f8 f3 ff ff 	lea    -0xc08(%rbp),%rax
    af32:	48 89 85 70 f4 ff ff 	mov    %rax,-0xb90(%rbp)
    af39:	48 8d 05 f0 e1 00 00 	lea    0xe1f0(%rip),%rax        # 19130 <g_128>
    af40:	48 89 85 78 f4 ff ff 	mov    %rax,-0xb88(%rbp)
    af47:	c7 85 50 f7 ff ff 02 	movl   $0x1062702,-0x8b0(%rbp)
    af4e:	27 06 01 
    af51:	66 c7 85 54 f7 ff ff 	movw   $0x1,-0x8ac(%rbp)
    af58:	01 00 
    af5a:	c7 85 56 f7 ff ff 07 	movl   $0x1fd0007,-0x8aa(%rbp)
    af61:	00 fd 01 
    af64:	66 c7 85 5a f7 ff ff 	movw   $0x1ff,-0x8a6(%rbp)
    af6b:	ff 01 
    af6d:	c7 85 5c f7 ff ff fb 	movl   $0xf7f82afb,-0x8a4(%rbp)
    af74:	2a f8 f7 
    af77:	66 c7 85 60 f7 ff ff 	movw   $0x3701,-0x8a0(%rbp)
    af7e:	01 37 
    af80:	c7 85 62 f7 ff ff f8 	movl   $0xfdccfdf8,-0x89e(%rbp)
    af87:	fd cc fd 
    af8a:	66 c7 85 66 f7 ff ff 	movw   $0xcef8,-0x89a(%rbp)
    af91:	f8 ce 
    af93:	c7 85 68 f7 ff ff ff 	movl   $0x100f6ff,-0x898(%rbp)
    af9a:	f6 00 01 
    af9d:	66 c7 85 6c f7 ff ff 	movw   $0x1ff,-0x894(%rbp)
    afa4:	ff 01 
    afa6:	c7 85 6e f7 ff ff 5e 	movl   $0xf600ff5e,-0x892(%rbp)
    afad:	ff 00 f6 
    afb0:	66 c7 85 72 f7 ff ff 	movw   $0x1f7,-0x88e(%rbp)
    afb7:	f7 01 
    afb9:	c7 85 74 f7 ff ff cc 	movl   $0xff00b9cc,-0x88c(%rbp)
    afc0:	b9 00 ff 
    afc3:	66 c7 85 78 f7 ff ff 	movw   $0xce07,-0x888(%rbp)
    afca:	07 ce 
    afcc:	c7 85 7a f7 ff ff f7 	movl   $0x49ccfbf7,-0x886(%rbp)
    afd3:	fb cc 49 
    afd6:	66 c7 85 7e f7 ff ff 	movw   $0x37ce,-0x882(%rbp)
    afdd:	ce 37 
    afdf:	c7 85 80 f7 ff ff 06 	movl   $0xf8f8cb06,-0x880(%rbp)
    afe6:	cb f8 f8 
    afe9:	66 c7 85 84 f7 ff ff 	movw   $0x149,-0x87c(%rbp)
    aff0:	49 01 
    aff2:	c7 85 86 f7 ff ff 8d 	movl   $0x37fdce8d,-0x87a(%rbp)
    aff9:	ce fd 37 
    affc:	66 c7 85 8a f7 ff ff 	movw   $0x6,-0x876(%rbp)
    b003:	06 00 
    b005:	c7 85 8c f7 ff ff d3 	movl   $0x606b3d3,-0x874(%rbp)
    b00c:	b3 06 06 
    b00f:	66 c7 85 90 f7 ff ff 	movw   $0xd3b3,-0x870(%rbp)
    b016:	b3 d3 
    b018:	c7 85 92 f7 ff ff 2a 	movl   $0x1012a,-0x86e(%rbp)
    b01f:	01 01 00 
    b022:	66 c7 85 96 f7 ff ff 	movw   $0xfb02,-0x86a(%rbp)
    b029:	02 fb 
    b02b:	c7 85 98 f7 ff ff cb 	movl   $0xffb300cb,-0x868(%rbp)
    b032:	00 b3 ff 
    b035:	66 c7 85 9c f7 ff ff 	movw   $0xf88d,-0x864(%rbp)
    b03c:	8d f8 
    b03e:	c7 85 9e f7 ff ff cb 	movl   $0xff00cb,-0x862(%rbp)
    b045:	00 ff 00 
    b048:	66 c7 85 a2 f7 ff ff 	movw   $0xe6cc,-0x85e(%rbp)
    b04f:	cc e6 
    b051:	c7 85 a4 f7 ff ff 2a 	movl   $0x627022a,-0x85c(%rbp)
    b058:	02 27 06 
    b05b:	66 c7 85 a8 f7 ff ff 	movw   $0x101,-0x858(%rbp)
    b062:	01 01 
    b064:	c7 85 aa f7 ff ff 00 	movl   $0xe4ccb900,-0x856(%rbp)
    b06b:	b9 cc e4 
    b06e:	66 c7 85 ae f7 ff ff 	movw   $0x278d,-0x852(%rbp)
    b075:	8d 27 
    b077:	c7 85 b0 f7 ff ff 2a 	movl   $0xf606cc2a,-0x850(%rbp)
    b07e:	cc 06 f6 
    b081:	66 c7 85 b4 f7 ff ff 	movw   $0x8de6,-0x84c(%rbp)
    b088:	e6 8d 
    b08a:	c7 85 b6 f7 ff ff 00 	movl   $0x1cb0100,-0x84a(%rbp)
    b091:	01 cb 01 
    b094:	66 c7 85 ba f7 ff ff 	movw   $0x1cb,-0x846(%rbp)
    b09b:	cb 01 
    b09d:	c7 85 bc f7 ff ff 06 	movl   $0xcc37f806,-0x844(%rbp)
    b0a4:	f8 37 cc 
    b0a7:	66 c7 85 c0 f7 ff ff 	movw   $0x1ff,-0x840(%rbp)
    b0ae:	ff 01 
    b0b0:	c7 85 c2 f7 ff ff f8 	movl   $0x8dfff7f8,-0x83e(%rbp)
    b0b7:	f7 ff 8d 
    b0ba:	66 c7 85 c6 f7 ff ff 	movw   $0xf800,-0x83a(%rbp)
    b0c1:	00 f8 
    b0c3:	c7 85 c8 f7 ff ff 07 	movl   $0x200f707,-0x838(%rbp)
    b0ca:	f7 00 02 
    b0cd:	66 c7 85 cc f7 ff ff 	movw   $0xff,-0x834(%rbp)
    b0d4:	ff 00 
    b0d6:	c7 85 ce f7 ff ff 01 	movl   $0xb301f801,-0x832(%rbp)
    b0dd:	f8 01 b3 
    b0e0:	66 c7 85 d2 f7 ff ff 	movw   $0x1cb,-0x82e(%rbp)
    b0e7:	cb 01 
    b0e9:	c7 85 d4 f7 ff ff 01 	movl   $0x6ff0101,-0x82c(%rbp)
    b0f0:	01 ff 06 
    b0f3:	66 c7 85 d8 f7 ff ff 	movw   $0x1e6,-0x828(%rbp)
    b0fa:	e6 01 
    b0fc:	c7 85 da f7 ff ff 01 	movl   $0x4901cc01,-0x826(%rbp)
    b103:	cc 01 49 
    b106:	66 c7 85 de f7 ff ff 	movw   $0xb98d,-0x822(%rbp)
    b10d:	8d b9 
    b10f:	c7 85 e0 f7 ff ff 01 	movl   $0xce2ab901,-0x820(%rbp)
    b116:	b9 2a ce 
    b119:	66 c7 85 e4 f7 ff ff 	movw   $0x2ace,-0x81c(%rbp)
    b120:	ce 2a 
    b122:	c7 85 e6 f7 ff ff 00 	movl   $0x7490000,-0x81a(%rbp)
    b129:	00 49 07 
    b12c:	66 c7 85 ea f7 ff ff 	movw   $0xccf8,-0x816(%rbp)
    b133:	f8 cc 
    b135:	c7 85 ec f7 ff ff cb 	movl   $0xf700ffcb,-0x814(%rbp)
    b13c:	ff 00 f7 
    b13f:	66 c7 85 f0 f7 ff ff 	movw   $0x492a,-0x810(%rbp)
    b146:	2a 49 
    b148:	c7 85 f2 f7 ff ff fc 	movl   $0xff00cbfc,-0x80e(%rbp)
    b14f:	cb 00 ff 
    b152:	66 c7 85 f6 f7 ff ff 	movw   $0xcc00,-0x80a(%rbp)
    b159:	00 cc 
    b15b:	c7 85 f8 f7 ff ff e4 	movl   $0xf849ffe4,-0x808(%rbp)
    b162:	ff 49 f8 
    b165:	66 c7 85 fc f7 ff ff 	movw   $0x2a00,-0x804(%rbp)
    b16c:	00 2a 
    b16e:	c7 85 fe f7 ff ff f8 	movl   $0x12a00f8,-0x802(%rbp)
    b175:	00 2a 01 
    b178:	66 c7 85 02 f8 ff ff 	movw   $0xb900,-0x7fe(%rbp)
    b17f:	00 b9 
    b181:	c7 85 04 f8 ff ff 00 	movl   $0xff01fd00,-0x7fc(%rbp)
    b188:	fd 01 ff 
    b18b:	66 c7 85 08 f8 ff ff 	movw   $0x101,-0x7f8(%rbp)
    b192:	01 01 
    b194:	c7 85 0a f8 ff ff 01 	movl   $0x1ff2701,-0x7f6(%rbp)
    b19b:	27 ff 01 
    b19e:	66 c7 85 0e f8 ff ff 	movw   $0x1fd,-0x7f2(%rbp)
    b1a5:	fd 01 
    b1a7:	c7 85 10 f8 ff ff 01 	movl   $0x1010101,-0x7f0(%rbp)
    b1ae:	01 01 01 
    b1b1:	66 c7 85 14 f8 ff ff 	movw   $0x1,-0x7ec(%rbp)
    b1b8:	01 00 
    b1ba:	c7 85 16 f8 ff ff 01 	movl   $0xff01,-0x7ea(%rbp)
    b1c1:	ff 00 00 
    b1c4:	66 c7 85 1a f8 ff ff 	movw   $0xf806,-0x7e6(%rbp)
    b1cb:	06 f8 
    b1cd:	c7 85 1c f8 ff ff f6 	movl   $0xff37f6,-0x7e4(%rbp)
    b1d4:	37 ff 00 
    b1d7:	66 c7 85 20 f8 ff ff 	movw   $0x1d3,-0x7e0(%rbp)
    b1de:	d3 01 
    b1e0:	c7 85 22 f8 ff ff 01 	movl   $0x1378d01,-0x7de(%rbp)
    b1e7:	8d 37 01 
    b1ea:	66 c7 85 26 f8 ff ff 	movw   $0x101,-0x7da(%rbp)
    b1f1:	01 01 
    b1f3:	c7 85 28 f8 ff ff 01 	movl   $0x1cbb301,-0x7d8(%rbp)
    b1fa:	b3 cb 01 
    b1fd:	66 c7 85 2c f8 ff ff 	movw   $0x8d02,-0x7d4(%rbp)
    b204:	02 8d 
    b206:	c7 85 2e f8 ff ff 01 	movl   $0xff06ff01,-0x7d2(%rbp)
    b20d:	ff 06 ff 
    b210:	66 c7 85 32 f8 ff ff 	movw   $0x2701,-0x7ce(%rbp)
    b217:	01 27 
    b219:	c7 85 34 f8 ff ff 00 	movl   $0x1ccfc00,-0x7cc(%rbp)
    b220:	fc cc 01 
    b223:	66 c7 85 38 f8 ff ff 	movw   $0x5e5e,-0x7c8(%rbp)
    b22a:	5e 5e 
    b22c:	c7 85 3a f8 ff ff f8 	movl   $0xf80101f8,-0x7c6(%rbp)
    b233:	01 01 f8 
    b236:	66 c7 85 3e f8 ff ff 	movw   $0xff,-0x7c2(%rbp)
    b23d:	ff 00 
    b23f:	c7 85 7c f3 ff ff 00 	movl   $0x0,-0xc84(%rbp)
    b246:	00 00 00 
    b249:	48 8d 05 11 e1 00 00 	lea    0xe111(%rip),%rax        # 19361 <g_384>
    b250:	48 89 85 80 f4 ff ff 	mov    %rax,-0xb80(%rbp)
    b257:	48 8d 85 08 f4 ff ff 	lea    -0xbf8(%rbp),%rax
    b25e:	48 89 85 80 f6 ff ff 	mov    %rax,-0x980(%rbp)
    b265:	48 8d 85 08 f4 ff ff 	lea    -0xbf8(%rbp),%rax
    b26c:	48 89 85 88 f6 ff ff 	mov    %rax,-0x978(%rbp)
    b273:	48 8d 85 08 f4 ff ff 	lea    -0xbf8(%rbp),%rax
    b27a:	48 89 85 90 f6 ff ff 	mov    %rax,-0x970(%rbp)
    b281:	48 8d 85 08 f4 ff ff 	lea    -0xbf8(%rbp),%rax
    b288:	48 89 85 98 f6 ff ff 	mov    %rax,-0x968(%rbp)
    b28f:	48 8d 85 08 f4 ff ff 	lea    -0xbf8(%rbp),%rax
    b296:	48 89 85 a0 f6 ff ff 	mov    %rax,-0x960(%rbp)
    b29d:	48 8d 85 08 f4 ff ff 	lea    -0xbf8(%rbp),%rax
    b2a4:	48 89 85 a8 f6 ff ff 	mov    %rax,-0x958(%rbp)
    b2ab:	48 8d 85 08 f4 ff ff 	lea    -0xbf8(%rbp),%rax
    b2b2:	48 89 85 b0 f6 ff ff 	mov    %rax,-0x950(%rbp)
    b2b9:	48 8d 85 08 f4 ff ff 	lea    -0xbf8(%rbp),%rax
    b2c0:	48 89 85 b8 f6 ff ff 	mov    %rax,-0x948(%rbp)
    b2c7:	48 8d 85 08 f4 ff ff 	lea    -0xbf8(%rbp),%rax
    b2ce:	48 89 85 c0 f6 ff ff 	mov    %rax,-0x940(%rbp)
    b2d5:	48 8d 85 08 f4 ff ff 	lea    -0xbf8(%rbp),%rax
    b2dc:	48 89 85 c8 f6 ff ff 	mov    %rax,-0x938(%rbp)
    b2e3:	48 8d 05 96 ff 00 00 	lea    0xff96(%rip),%rax        # 1b280 <g_276>
    b2ea:	48 89 85 88 f4 ff ff 	mov    %rax,-0xb78(%rbp)
    b2f1:	c6 85 6c f3 ff ff a5 	movb   $0xa5,-0xc94(%rbp)
    b2f8:	48 b8 ad 17 6f cd 00 	movabs $0xe3b17e00cd6f17ad,%rax
    b2ff:	7e b1 e3 
    b302:	48 89 85 90 f4 ff ff 	mov    %rax,-0xb70(%rbp)
    b309:	48 8d 05 b0 e6 00 00 	lea    0xe6b0(%rip),%rax        # 199c0 <g_2137>
    b310:	48 89 85 98 f4 ff ff 	mov    %rax,-0xb68(%rbp)
    b317:	c7 85 8c f3 ff ff 00 	movl   $0x0,-0xc74(%rbp)
    b31e:	00 00 00 
    b321:	eb 1e                	jmp    b341 <func_9+0x89d>
    b323:	8b 85 8c f3 ff ff    	mov    -0xc74(%rbp),%eax
    b329:	48 98                	cltq   
    b32b:	48 8d 15 5e 1d 01 00 	lea    0x11d5e(%rip),%rdx        # 1d090 <g_338>
    b332:	48 89 94 c5 70 f5 ff 	mov    %rdx,-0xa90(%rbp,%rax,8)
    b339:	ff 
    b33a:	83 85 8c f3 ff ff 01 	addl   $0x1,-0xc74(%rbp)
    b341:	83 bd 8c f3 ff ff 04 	cmpl   $0x4,-0xc74(%rbp)
    b348:	7e d9                	jle    b323 <func_9+0x87f>
    b34a:	c7 05 c4 dd 00 00 e9 	movl   $0xffffffe9,0xddc4(%rip)        # 19118 <g_62>
    b351:	ff ff ff 
    b354:	90                   	nop
    b355:	8b 05 bd dd 00 00    	mov    0xddbd(%rip),%eax        # 19118 <g_62>
    b35b:	83 f8 28             	cmp    $0x28,%eax
    b35e:	0f 86 0d 02 00 00    	jbe    b571 <func_9+0xacd>
    b364:	48 b8 4c 62 70 e1 71 	movabs $0xe593da71e170624c,%rax
    b36b:	da 93 e5 
    b36e:	48 89 85 18 f5 ff ff 	mov    %rax,-0xae8(%rbp)
    b375:	c7 85 dc f3 ff ff 8e 	movl   $0xbf2ac08e,-0xc24(%rbp)
    b37c:	c0 2a bf 
    b37f:	8b 05 a3 1c 01 00    	mov    0x11ca3(%rip),%eax        # 1d028 <g_85>
    b385:	85 c0                	test   %eax,%eax
    b387:	74 05                	je     b38e <func_9+0x8ea>
    b389:	e9 4c f9 ff ff       	jmpq   acda <func_9+0x236>
    b38e:	c6 05 cc df 00 00 00 	movb   $0x0,0xdfcc(%rip)        # 19361 <g_384>
    b395:	e9 b5 01 00 00       	jmpq   b54f <func_9+0xaab>
    b39a:	48 8d 85 a0 f5 ff ff 	lea    -0xa60(%rbp),%rax
    b3a1:	48 83 c0 02          	add    $0x2,%rax
    b3a5:	48 89 85 20 f5 ff ff 	mov    %rax,-0xae0(%rbp)
    b3ac:	c7 85 e0 f3 ff ff fb 	movl   $0xfffffffb,-0xc20(%rbp)
    b3b3:	ff ff ff 
    b3b6:	0f b6 85 5c f3 ff ff 	movzbl -0xca4(%rbp),%eax
    b3bd:	84 c0                	test   %al,%al
    b3bf:	0f 85 9b 01 00 00    	jne    b560 <func_9+0xabc>
    b3c5:	48 8b 05 b4 fe 00 00 	mov    0xfeb4(%rip),%rax        # 1b280 <g_276>
    b3cc:	48 8b 00             	mov    (%rax),%rax
    b3cf:	44 8b 28             	mov    (%rax),%r13d
    b3d2:	48 8b 85 20 f5 ff ff 	mov    -0xae0(%rbp),%rax
    b3d9:	0f b6 00             	movzbl (%rax),%eax
    b3dc:	48 8b 95 18 f5 ff ff 	mov    -0xae8(%rbp),%rdx
    b3e3:	21 c2                	and    %eax,%edx
    b3e5:	48 8b 85 20 f5 ff ff 	mov    -0xae0(%rbp),%rax
    b3ec:	88 10                	mov    %dl,(%rax)
    b3ee:	48 8b 85 20 f5 ff ff 	mov    -0xae0(%rbp),%rax
    b3f5:	0f b6 00             	movzbl (%rax),%eax
    b3f8:	0f be c0             	movsbl %al,%eax
    b3fb:	39 85 e0 f3 ff ff    	cmp    %eax,-0xc20(%rbp)
    b401:	41 0f 9e c6          	setle  %r14b
    b405:	0f b6 85 5c f3 ff ff 	movzbl -0xca4(%rbp),%eax
    b40c:	0f be d8             	movsbl %al,%ebx
    b40f:	0f b6 85 5c f3 ff ff 	movzbl -0xca4(%rbp),%eax
    b416:	84 c0                	test   %al,%al
    b418:	75 58                	jne    b472 <func_9+0x9ce>
    b41a:	0f b6 85 5c f3 ff ff 	movzbl -0xca4(%rbp),%eax
    b421:	44 0f be e0          	movsbl %al,%r12d
    b425:	48 8b 05 6c 01 01 00 	mov    0x1016c(%rip),%rax        # 1b598 <g_1617>
    b42c:	48 8b 00             	mov    (%rax),%rax
    b42f:	48 8b 85 18 f5 ff ff 	mov    -0xae8(%rbp),%rax
    b436:	89 c2                	mov    %eax,%edx
    b438:	0f b6 85 5c f3 ff ff 	movzbl -0xca4(%rbp),%eax
    b43f:	21 d0                	and    %edx,%eax
    b441:	0f b6 c0             	movzbl %al,%eax
    b444:	be 02 00 00 00       	mov    $0x2,%esi
    b449:	89 c7                	mov    %eax,%edi
    b44b:	e8 b5 d7 ff ff       	callq  8c05 <safe_lshift_func_uint8_t_u_s>
    b450:	8b 05 66 df 00 00    	mov    0xdf66(%rip),%eax        # 193bc <g_958+0x4>
    b456:	c1 e0 08             	shl    $0x8,%eax
    b459:	c1 f8 08             	sar    $0x8,%eax
    b45c:	0f be c0             	movsbl %al,%eax
    b45f:	44 89 e6             	mov    %r12d,%esi
    b462:	89 c7                	mov    %eax,%edi
    b464:	e8 a9 cd ff ff       	callq  8212 <safe_mul_func_int8_t_s_s>
    b469:	0f be c0             	movsbl %al,%eax
    b46c:	39 85 e0 f3 ff ff    	cmp    %eax,-0xc20(%rbp)
    b472:	89 de                	mov    %ebx,%esi
    b474:	bf 01 00 00 00       	mov    $0x1,%edi
    b479:	e8 ca d9 ff ff       	callq  8e48 <safe_rshift_func_uint16_t_u_s>
    b47e:	83 c8 d1             	or     $0xffffffd1,%eax
    b481:	89 c2                	mov    %eax,%edx
    b483:	48 8b 05 0e fe 00 00 	mov    0xfe0e(%rip),%rax        # 1b298 <g_377>
    b48a:	48 8b 00             	mov    (%rax),%rax
    b48d:	88 10                	mov    %dl,(%rax)
    b48f:	48 83 bd 60 f4 ff ff 	cmpq   $0x0,-0xba0(%rbp)
    b496:	00 
    b497:	0f 95 c0             	setne  %al
    b49a:	0f b6 c0             	movzbl %al,%eax
    b49d:	be 01 00 00 00       	mov    $0x1,%esi
    b4a2:	89 c7                	mov    %eax,%edi
    b4a4:	e8 5d d9 ff ff       	callq  8e06 <safe_lshift_func_uint16_t_u_u>
    b4a9:	66 85 c0             	test   %ax,%ax
    b4ac:	75 0b                	jne    b4b9 <func_9+0xa15>
    b4ae:	0f b6 85 5c f3 ff ff 	movzbl -0xca4(%rbp),%eax
    b4b5:	84 c0                	test   %al,%al
    b4b7:	74 07                	je     b4c0 <func_9+0xa1c>
    b4b9:	b8 01 00 00 00       	mov    $0x1,%eax
    b4be:	eb 05                	jmp    b4c5 <func_9+0xa21>
    b4c0:	b8 00 00 00 00       	mov    $0x0,%eax
    b4c5:	83 e0 01             	and    $0x1,%eax
    b4c8:	44 31 f0             	xor    %r14d,%eax
    b4cb:	0f b6 c0             	movzbl %al,%eax
    b4ce:	41 39 c5             	cmp    %eax,%r13d
    b4d1:	48 8b 05 68 0c 01 00 	mov    0x10c68(%rip),%rax        # 1c140 <g_1950>
    b4d8:	48 8d 15 59 0c 01 00 	lea    0x10c59(%rip),%rdx        # 1c138 <g_1951>
    b4df:	48 39 d0             	cmp    %rdx,%rax
    b4e2:	0f 95 c0             	setne  %al
    b4e5:	0f b6 d0             	movzbl %al,%edx
    b4e8:	48 8b 85 28 f4 ff ff 	mov    -0xbd8(%rbp),%rax
    b4ef:	8b 00                	mov    (%rax),%eax
    b4f1:	31 c2                	xor    %eax,%edx
    b4f3:	48 8b 85 28 f4 ff ff 	mov    -0xbd8(%rbp),%rax
    b4fa:	89 10                	mov    %edx,(%rax)
    b4fc:	83 bd a8 f3 ff ff 00 	cmpl   $0x0,-0xc58(%rbp)
    b503:	75 5e                	jne    b563 <func_9+0xabf>
    b505:	48 8b 85 18 f5 ff ff 	mov    -0xae8(%rbp),%rax
    b50c:	0f b7 d0             	movzwl %ax,%edx
    b50f:	0f b6 85 5c f3 ff ff 	movzbl -0xca4(%rbp),%eax
    b516:	83 c8 01             	or     $0x1,%eax
    b519:	66 98                	cbtw   
    b51b:	0f b7 c0             	movzwl %ax,%eax
    b51e:	89 d6                	mov    %edx,%esi
    b520:	89 c7                	mov    %eax,%edi
    b522:	e8 16 d8 ff ff       	callq  8d3d <safe_mul_func_uint16_t_u_u>
    b527:	c7 85 dc f3 ff ff 01 	movl   $0x1,-0xc24(%rbp)
    b52e:	00 00 00 
    b531:	0f b6 05 29 de 00 00 	movzbl 0xde29(%rip),%eax        # 19361 <g_384>
    b538:	48 0f be c0          	movsbq %al,%rax
    b53c:	be 07 00 00 00       	mov    $0x7,%esi
    b541:	48 89 c7             	mov    %rax,%rdi
    b544:	e8 e5 da ff ff       	callq  902e <safe_add_func_uint64_t_u_u>
    b549:	88 05 12 de 00 00    	mov    %al,0xde12(%rip)        # 19361 <g_384>
    b54f:	0f b6 05 0b de 00 00 	movzbl 0xde0b(%rip),%eax        # 19361 <g_384>
    b556:	84 c0                	test   %al,%al
    b558:	0f 85 3c fe ff ff    	jne    b39a <func_9+0x8f6>
    b55e:	eb 04                	jmp    b564 <func_9+0xac0>
    b560:	90                   	nop
    b561:	eb 01                	jmp    b564 <func_9+0xac0>
    b563:	90                   	nop
    b564:	8b 85 a4 f3 ff ff    	mov    -0xc5c(%rbp),%eax
    b56a:	48 98                	cltq   
    b56c:	e9 5f 11 00 00       	jmpq   c6d0 <func_9+0x1c2c>
    b571:	48 8b 85 28 f4 ff ff 	mov    -0xbd8(%rbp),%rax
    b578:	8b 00                	mov    (%rax),%eax
    b57a:	0f b6 d8             	movzbl %al,%ebx
    b57d:	8b 85 a8 f3 ff ff    	mov    -0xc58(%rbp),%eax
    b583:	4c 63 e0             	movslq %eax,%r12
    b586:	0f b6 85 5c f3 ff ff 	movzbl -0xca4(%rbp),%eax
    b58d:	66 98                	cbtw   
    b58f:	44 0f b7 e8          	movzwl %ax,%r13d
    b593:	8b 85 a8 f3 ff ff    	mov    -0xc58(%rbp),%eax
    b599:	0f b6 c0             	movzbl %al,%eax
    b59c:	be a7 00 00 00       	mov    $0xa7,%esi
    b5a1:	89 c7                	mov    %eax,%edi
    b5a3:	e8 d0 d5 ff ff       	callq  8b78 <safe_sub_func_uint8_t_u_u>
    b5a8:	0f b6 d0             	movzbl %al,%edx
    b5ab:	0f b6 85 5c f3 ff ff 	movzbl -0xca4(%rbp),%eax
    b5b2:	0f be c0             	movsbl %al,%eax
    b5b5:	39 c2                	cmp    %eax,%edx
    b5b7:	0f 9e c0             	setle  %al
    b5ba:	0f b6 d0             	movzbl %al,%edx
    b5bd:	48 8b 85 28 f4 ff ff 	mov    -0xbd8(%rbp),%rax
    b5c4:	8b 00                	mov    (%rax),%eax
    b5c6:	39 c2                	cmp    %eax,%edx
    b5c8:	0f 9f c0             	setg   %al
    b5cb:	0f b6 c0             	movzbl %al,%eax
    b5ce:	44 89 ee             	mov    %r13d,%esi
    b5d1:	89 c7                	mov    %eax,%edi
    b5d3:	e8 47 d7 ff ff       	callq  8d1f <safe_sub_func_uint16_t_u_u>
    b5d8:	48 8b 95 78 f4 ff ff 	mov    -0xb88(%rbp),%rdx
    b5df:	66 89 02             	mov    %ax,(%rdx)
    b5e2:	48 8b 85 78 f4 ff ff 	mov    -0xb88(%rbp),%rax
    b5e9:	0f b7 00             	movzwl (%rax),%eax
    b5ec:	66 89 05 b5 dd 00 00 	mov    %ax,0xddb5(%rip)        # 193a8 <g_745>
    b5f3:	0f b7 05 ae dd 00 00 	movzwl 0xddae(%rip),%eax        # 193a8 <g_745>
    b5fa:	0f b7 c0             	movzwl %ax,%eax
    b5fd:	f7 d0                	not    %eax
    b5ff:	48 98                	cltq   
    b601:	4c 89 e6             	mov    %r12,%rsi
    b604:	48 89 c7             	mov    %rax,%rdi
    b607:	e8 a3 da ff ff       	callq  90af <safe_div_func_uint64_t_u_u>
    b60c:	89 c2                	mov    %eax,%edx
    b60e:	0f b6 85 dd f7 ff ff 	movzbl -0x823(%rbp),%eax
    b615:	21 d0                	and    %edx,%eax
    b617:	0f b6 c0             	movzbl %al,%eax
    b61a:	89 de                	mov    %ebx,%esi
    b61c:	89 c7                	mov    %eax,%edi
    b61e:	e8 8b d5 ff ff       	callq  8bae <safe_mod_func_uint8_t_u_u>
    b623:	0f be d0             	movsbl %al,%edx
    b626:	83 bd a8 f3 ff ff 00 	cmpl   $0x0,-0xc58(%rbp)
    b62d:	0f 95 c0             	setne  %al
    b630:	0f b6 c0             	movzbl %al,%eax
    b633:	89 d6                	mov    %edx,%esi
    b635:	89 c7                	mov    %eax,%edi
    b637:	e8 98 cb ff ff       	callq  81d4 <safe_add_func_int8_t_s_s>
    b63c:	0f b6 95 5c f3 ff ff 	movzbl -0xca4(%rbp),%edx
    b643:	38 d0                	cmp    %dl,%al
    b645:	0f 95 c0             	setne  %al
    b648:	0f b6 d0             	movzbl %al,%edx
    b64b:	48 8b 05 36 fc 00 00 	mov    0xfc36(%rip),%rax        # 1b288 <g_287>
    b652:	48 8b 00             	mov    (%rax),%rax
    b655:	48 39 c2             	cmp    %rax,%rdx
    b658:	0f 9d c0             	setge  %al
    b65b:	0f b6 d0             	movzbl %al,%edx
    b65e:	0f b6 85 5c f3 ff ff 	movzbl -0xca4(%rbp),%eax
    b665:	0f be c0             	movsbl %al,%eax
    b668:	39 c2                	cmp    %eax,%edx
    b66a:	74 12                	je     b67e <func_9+0xbda>
    b66c:	0f b6 85 5c f3 ff ff 	movzbl -0xca4(%rbp),%eax
    b673:	84 c0                	test   %al,%al
    b675:	74 07                	je     b67e <func_9+0xbda>
    b677:	b8 01 00 00 00       	mov    $0x1,%eax
    b67c:	eb 05                	jmp    b683 <func_9+0xbdf>
    b67e:	b8 00 00 00 00       	mov    $0x0,%eax
    b683:	89 85 7c f3 ff ff    	mov    %eax,-0xc84(%rbp)
    b689:	8b 85 7c f3 ff ff    	mov    -0xc84(%rbp),%eax
    b68f:	89 c2                	mov    %eax,%edx
    b691:	48 8b 85 80 f4 ff ff 	mov    -0xb80(%rbp),%rax
    b698:	88 10                	mov    %dl,(%rax)
    b69a:	48 8b 85 80 f4 ff ff 	mov    -0xb80(%rbp),%rax
    b6a1:	0f b6 00             	movzbl (%rax),%eax
    b6a4:	0f b6 d8             	movzbl %al,%ebx
    b6a7:	48 8b 95 f8 f3 ff ff 	mov    -0xc08(%rbp),%rdx
    b6ae:	48 8b 85 70 f4 ff ff 	mov    -0xb90(%rbp),%rax
    b6b5:	48 89 10             	mov    %rdx,(%rax)
    b6b8:	48 8b 85 70 f4 ff ff 	mov    -0xb90(%rbp),%rax
    b6bf:	48 8b 00             	mov    (%rax),%rax
    b6c2:	48 39 85 68 f4 ff ff 	cmp    %rax,-0xb98(%rbp)
    b6c9:	0f 95 c0             	setne  %al
    b6cc:	0f b6 d0             	movzbl %al,%edx
    b6cf:	8b 85 a8 f3 ff ff    	mov    -0xc58(%rbp),%eax
    b6d5:	0f b7 c0             	movzwl %ax,%eax
    b6d8:	89 d6                	mov    %edx,%esi
    b6da:	89 c7                	mov    %eax,%edi
    b6dc:	e8 5c d6 ff ff       	callq  8d3d <safe_mul_func_uint16_t_u_u>
    b6e1:	66 83 f8 ff          	cmp    $0xffff,%ax
    b6e5:	0f 95 c0             	setne  %al
    b6e8:	0f b6 c0             	movzbl %al,%eax
    b6eb:	89 de                	mov    %ebx,%esi
    b6ed:	89 c7                	mov    %eax,%edi
    b6ef:	e8 e7 d4 ff ff       	callq  8bdb <safe_div_func_uint8_t_u_u>
    b6f4:	0f b7 05 e5 dc 00 00 	movzwl 0xdce5(%rip),%eax        # 193e0 <g_986+0x8>
    b6fb:	66 25 ff 01          	and    $0x1ff,%ax
    b6ff:	66 83 f8 01          	cmp    $0x1,%ax
    b703:	74 2c                	je     b731 <func_9+0xc8d>
    b705:	48 b8 7b a6 64 ff b8 	movabs $0x7ab4bab8ff64a67b,%rax
    b70c:	ba b4 7a 
    b70f:	48 89 85 10 f5 ff ff 	mov    %rax,-0xaf0(%rbp)
    b716:	48 8b 85 50 f4 ff ff 	mov    -0xbb0(%rbp),%rax
    b71d:	48 89 85 98 f6 ff ff 	mov    %rax,-0x968(%rbp)
    b724:	48 83 85 10 f5 ff ff 	addq   $0x1,-0xaf0(%rbp)
    b72b:	01 
    b72c:	e9 70 0f 00 00       	jmpq   c6a1 <func_9+0x1bfd>
    b731:	48 c7 85 18 f4 ff ff 	movq   $0xfffffffffffffffd,-0xbe8(%rbp)
    b738:	fd ff ff ff 
    b73c:	48 8d 05 9d 01 01 00 	lea    0x1019d(%rip),%rax        # 1b8e0 <g_1690>
    b743:	48 89 85 a0 f4 ff ff 	mov    %rax,-0xb60(%rbp)
    b74a:	c7 85 90 f3 ff ff 35 	movl   $0xd33b8735,-0xc70(%rbp)
    b751:	87 3b d3 
    b754:	c7 85 ac f3 ff ff b8 	movl   $0x7239b4b8,-0xc54(%rbp)
    b75b:	b4 39 72 
    b75e:	c7 85 80 f3 ff ff 78 	movl   $0x582c1d78,-0xc80(%rbp)
    b765:	1d 2c 58 
    b768:	c7 85 b0 f3 ff ff 01 	movl   $0x1,-0xc50(%rbp)
    b76f:	00 00 00 
    b772:	c7 85 84 f3 ff ff fd 	movl   $0xfffffffd,-0xc7c(%rbp)
    b779:	ff ff ff 
    b77c:	c7 85 94 f3 ff ff 01 	movl   $0x1,-0xc6c(%rbp)
    b783:	00 00 00 
    b786:	48 b8 2f 2f 2f 2f 2f 	movabs $0x2f2f2f2f2f2f2f2f,%rax
    b78d:	2f 2f 2f 
    b790:	48 89 45 c0          	mov    %rax,-0x40(%rbp)
    b794:	c6 85 6d f3 ff ff f6 	movb   $0xf6,-0xc93(%rbp)
    b79b:	66 c7 85 74 f3 ff ff 	movw   $0x7215,-0xc8c(%rbp)
    b7a2:	15 72 
    b7a4:	48 8d 85 7c f3 ff ff 	lea    -0xc84(%rbp),%rax
    b7ab:	48 89 85 a8 f4 ff ff 	mov    %rax,-0xb58(%rbp)
    b7b2:	c7 85 98 f3 ff ff 00 	movl   $0x0,-0xc68(%rbp)
    b7b9:	00 00 00 
    b7bc:	eb 1e                	jmp    b7dc <func_9+0xd38>
    b7be:	8b 85 98 f3 ff ff    	mov    -0xc68(%rbp),%eax
    b7c4:	48 98                	cltq   
    b7c6:	48 8d 15 a3 fa 00 00 	lea    0xfaa3(%rip),%rdx        # 1b270 <g_277>
    b7cd:	48 89 94 c5 40 f5 ff 	mov    %rdx,-0xac0(%rbp,%rax,8)
    b7d4:	ff 
    b7d5:	83 85 98 f3 ff ff 01 	addl   $0x1,-0xc68(%rbp)
    b7dc:	83 bd 98 f3 ff ff 01 	cmpl   $0x1,-0xc68(%rbp)
    b7e3:	7e d9                	jle    b7be <func_9+0xd1a>
    b7e5:	c7 85 78 f3 ff ff ef 	movl   $0xffffffef,-0xc88(%rbp)
    b7ec:	ff ff ff 
    b7ef:	e9 b0 0c 00 00       	jmpq   c4a4 <func_9+0x1a00>
    b7f4:	48 c7 85 10 f4 ff ff 	movq   $0x0,-0xbf0(%rbp)
    b7fb:	00 00 00 00 
    b7ff:	c7 85 b4 f3 ff ff fd 	movl   $0xfffffffd,-0xc4c(%rbp)
    b806:	ff ff ff 
    b809:	c7 85 b8 f3 ff ff 64 	movl   $0x6d096964,-0xc48(%rbp)
    b810:	69 09 6d 
    b813:	48 c7 85 b0 f4 ff ff 	movq   $0x0,-0xb50(%rbp)
    b81a:	00 00 00 00 
    b81e:	c7 85 88 f3 ff ff f7 	movl   $0xfffffff7,-0xc78(%rbp)
    b825:	ff ff ff 
    b828:	c7 85 d0 f6 ff ff c3 	movl   $0xc8f41ec3,-0x930(%rbp)
    b82f:	1e f4 c8 
    b832:	c7 85 d4 f6 ff ff 12 	movl   $0x3d418e12,-0x92c(%rbp)
    b839:	8e 41 3d 
    b83c:	c7 85 d8 f6 ff ff 35 	movl   $0xdb759c35,-0x928(%rbp)
    b843:	9c 75 db 
    b846:	c7 85 dc f6 ff ff 12 	movl   $0x3d418e12,-0x924(%rbp)
    b84d:	8e 41 3d 
    b850:	c7 85 e0 f6 ff ff c3 	movl   $0xc8f41ec3,-0x920(%rbp)
    b857:	1e f4 c8 
    b85a:	c7 85 e4 f6 ff ff c3 	movl   $0xc8f41ec3,-0x91c(%rbp)
    b861:	1e f4 c8 
    b864:	c7 85 e8 f6 ff ff ff 	movl   $0xffffffff,-0x918(%rbp)
    b86b:	ff ff ff 
    b86e:	c7 85 ec f6 ff ff 12 	movl   $0x3d418e12,-0x914(%rbp)
    b875:	8e 41 3d 
    b878:	c7 85 f0 f6 ff ff 12 	movl   $0x3d418e12,-0x910(%rbp)
    b87f:	8e 41 3d 
    b882:	c7 85 f4 f6 ff ff ff 	movl   $0xffffffff,-0x90c(%rbp)
    b889:	ff ff ff 
    b88c:	c7 85 f8 f6 ff ff 13 	movl   $0x96e35d13,-0x908(%rbp)
    b893:	5d e3 96 
    b896:	c7 85 fc f6 ff ff ff 	movl   $0xffffffff,-0x904(%rbp)
    b89d:	ff ff ff 
    b8a0:	c7 85 00 f7 ff ff ff 	movl   $0xffffffff,-0x900(%rbp)
    b8a7:	ff ff ff 
    b8aa:	c7 85 04 f7 ff ff 13 	movl   $0x96e35d13,-0x8fc(%rbp)
    b8b1:	5d e3 96 
    b8b4:	c7 85 08 f7 ff ff ff 	movl   $0xffffffff,-0x8f8(%rbp)
    b8bb:	ff ff ff 
    b8be:	c7 85 0c f7 ff ff 12 	movl   $0x3d418e12,-0x8f4(%rbp)
    b8c5:	8e 41 3d 
    b8c8:	c7 85 10 f7 ff ff 12 	movl   $0x3d418e12,-0x8f0(%rbp)
    b8cf:	8e 41 3d 
    b8d2:	c7 85 14 f7 ff ff ff 	movl   $0xffffffff,-0x8ec(%rbp)
    b8d9:	ff ff ff 
    b8dc:	c7 85 18 f7 ff ff c3 	movl   $0xc8f41ec3,-0x8e8(%rbp)
    b8e3:	1e f4 c8 
    b8e6:	c7 85 1c f7 ff ff c3 	movl   $0xc8f41ec3,-0x8e4(%rbp)
    b8ed:	1e f4 c8 
    b8f0:	c7 85 20 f7 ff ff 12 	movl   $0x3d418e12,-0x8e0(%rbp)
    b8f7:	8e 41 3d 
    b8fa:	c7 85 24 f7 ff ff 35 	movl   $0xdb759c35,-0x8dc(%rbp)
    b901:	9c 75 db 
    b904:	c7 85 28 f7 ff ff 12 	movl   $0x3d418e12,-0x8d8(%rbp)
    b90b:	8e 41 3d 
    b90e:	c7 85 2c f7 ff ff 12 	movl   $0x3d418e12,-0x8d4(%rbp)
    b915:	8e 41 3d 
    b918:	c7 85 30 f7 ff ff ff 	movl   $0xffffffff,-0x8d0(%rbp)
    b91f:	ff ff ff 
    b922:	c7 85 34 f7 ff ff c3 	movl   $0xc8f41ec3,-0x8cc(%rbp)
    b929:	1e f4 c8 
    b92c:	c7 85 38 f7 ff ff 13 	movl   $0x96e35d13,-0x8c8(%rbp)
    b933:	5d e3 96 
    b936:	c7 85 3c f7 ff ff 13 	movl   $0x96e35d13,-0x8c4(%rbp)
    b93d:	5d e3 96 
    b940:	c7 85 40 f7 ff ff c3 	movl   $0xc8f41ec3,-0x8c0(%rbp)
    b947:	1e f4 c8 
    b94a:	c7 85 44 f7 ff ff ff 	movl   $0xffffffff,-0x8bc(%rbp)
    b951:	ff ff ff 
    b954:	48 8d 85 7c f3 ff ff 	lea    -0xc84(%rbp),%rax
    b95b:	48 89 85 b8 f4 ff ff 	mov    %rax,-0xb48(%rbp)
    b962:	0f b6 85 5c f3 ff ff 	movzbl -0xca4(%rbp),%eax
    b969:	84 c0                	test   %al,%al
    b96b:	0f 84 7e 09 00 00    	je     c2ef <func_9+0x184b>
    b971:	48 8d 85 7c f3 ff ff 	lea    -0xc84(%rbp),%rax
    b978:	48 89 85 e0 f4 ff ff 	mov    %rax,-0xb20(%rbp)
    b97f:	c7 85 c0 f3 ff ff 7e 	movl   $0xf3fa907e,-0xc40(%rbp)
    b986:	90 fa f3 
    b989:	c7 85 c4 f3 ff ff ff 	movl   $0xffffffff,-0xc3c(%rbp)
    b990:	ff ff ff 
    b993:	48 c7 05 12 da 00 00 	movq   $0x0,0xda12(%rip)        # 193b0 <g_840>
    b99a:	00 00 00 00 
    b99e:	e9 1d 03 00 00       	jmpq   bcc0 <func_9+0x121c>
    b9a3:	48 8d 05 d6 f8 00 00 	lea    0xf8d6(%rip),%rax        # 1b280 <g_276>
    b9aa:	48 89 85 e8 f4 ff ff 	mov    %rax,-0xb18(%rbp)
    b9b1:	48 8d 85 10 f4 ff ff 	lea    -0xbf0(%rbp),%rax
    b9b8:	48 89 85 40 f8 ff ff 	mov    %rax,-0x7c0(%rbp)
    b9bf:	48 8d 85 10 f4 ff ff 	lea    -0xbf0(%rbp),%rax
    b9c6:	48 89 85 48 f8 ff ff 	mov    %rax,-0x7b8(%rbp)
    b9cd:	48 8d 85 10 f4 ff ff 	lea    -0xbf0(%rbp),%rax
    b9d4:	48 89 85 50 f8 ff ff 	mov    %rax,-0x7b0(%rbp)
    b9db:	48 8d 85 10 f4 ff ff 	lea    -0xbf0(%rbp),%rax
    b9e2:	48 89 85 58 f8 ff ff 	mov    %rax,-0x7a8(%rbp)
    b9e9:	48 8d 85 10 f4 ff ff 	lea    -0xbf0(%rbp),%rax
    b9f0:	48 89 85 60 f8 ff ff 	mov    %rax,-0x7a0(%rbp)
    b9f7:	48 8d 85 10 f4 ff ff 	lea    -0xbf0(%rbp),%rax
    b9fe:	48 89 85 68 f8 ff ff 	mov    %rax,-0x798(%rbp)
    ba05:	48 8d 85 10 f4 ff ff 	lea    -0xbf0(%rbp),%rax
    ba0c:	48 89 85 70 f8 ff ff 	mov    %rax,-0x790(%rbp)
    ba13:	48 8d 85 10 f4 ff ff 	lea    -0xbf0(%rbp),%rax
    ba1a:	48 89 85 78 f8 ff ff 	mov    %rax,-0x788(%rbp)
    ba21:	48 8d 85 10 f4 ff ff 	lea    -0xbf0(%rbp),%rax
    ba28:	48 89 85 80 f8 ff ff 	mov    %rax,-0x780(%rbp)
    ba2f:	48 8d 85 10 f4 ff ff 	lea    -0xbf0(%rbp),%rax
    ba36:	48 89 85 88 f8 ff ff 	mov    %rax,-0x778(%rbp)
    ba3d:	48 8d 85 10 f4 ff ff 	lea    -0xbf0(%rbp),%rax
    ba44:	48 89 85 90 f8 ff ff 	mov    %rax,-0x770(%rbp)
    ba4b:	48 8d 85 10 f4 ff ff 	lea    -0xbf0(%rbp),%rax
    ba52:	48 89 85 98 f8 ff ff 	mov    %rax,-0x768(%rbp)
    ba59:	48 8d 85 10 f4 ff ff 	lea    -0xbf0(%rbp),%rax
    ba60:	48 89 85 a0 f8 ff ff 	mov    %rax,-0x760(%rbp)
    ba67:	48 8d 85 10 f4 ff ff 	lea    -0xbf0(%rbp),%rax
    ba6e:	48 89 85 a8 f8 ff ff 	mov    %rax,-0x758(%rbp)
    ba75:	48 8d 85 10 f4 ff ff 	lea    -0xbf0(%rbp),%rax
    ba7c:	48 89 85 b0 f8 ff ff 	mov    %rax,-0x750(%rbp)
    ba83:	48 8d 85 10 f4 ff ff 	lea    -0xbf0(%rbp),%rax
    ba8a:	48 89 85 b8 f8 ff ff 	mov    %rax,-0x748(%rbp)
    ba91:	48 8d 85 10 f4 ff ff 	lea    -0xbf0(%rbp),%rax
    ba98:	48 89 85 c0 f8 ff ff 	mov    %rax,-0x740(%rbp)
    ba9f:	48 8d 85 10 f4 ff ff 	lea    -0xbf0(%rbp),%rax
    baa6:	48 89 85 c8 f8 ff ff 	mov    %rax,-0x738(%rbp)
    baad:	48 8d 85 10 f4 ff ff 	lea    -0xbf0(%rbp),%rax
    bab4:	48 89 85 d0 f8 ff ff 	mov    %rax,-0x730(%rbp)
    babb:	48 8d 85 10 f4 ff ff 	lea    -0xbf0(%rbp),%rax
    bac2:	48 89 85 d8 f8 ff ff 	mov    %rax,-0x728(%rbp)
    bac9:	48 8d 85 10 f4 ff ff 	lea    -0xbf0(%rbp),%rax
    bad0:	48 89 85 e0 f8 ff ff 	mov    %rax,-0x720(%rbp)
    bad7:	48 8d 85 10 f4 ff ff 	lea    -0xbf0(%rbp),%rax
    bade:	48 89 85 e8 f8 ff ff 	mov    %rax,-0x718(%rbp)
    bae5:	48 8d 85 10 f4 ff ff 	lea    -0xbf0(%rbp),%rax
    baec:	48 89 85 f0 f8 ff ff 	mov    %rax,-0x710(%rbp)
    baf3:	48 8d 85 10 f4 ff ff 	lea    -0xbf0(%rbp),%rax
    bafa:	48 89 85 f8 f8 ff ff 	mov    %rax,-0x708(%rbp)
    bb01:	48 8d 85 10 f4 ff ff 	lea    -0xbf0(%rbp),%rax
    bb08:	48 89 85 00 f9 ff ff 	mov    %rax,-0x700(%rbp)
    bb0f:	48 8d 85 10 f4 ff ff 	lea    -0xbf0(%rbp),%rax
    bb16:	48 89 85 08 f9 ff ff 	mov    %rax,-0x6f8(%rbp)
    bb1d:	48 8d 85 10 f4 ff ff 	lea    -0xbf0(%rbp),%rax
    bb24:	48 89 85 10 f9 ff ff 	mov    %rax,-0x6f0(%rbp)
    bb2b:	48 8d 85 10 f4 ff ff 	lea    -0xbf0(%rbp),%rax
    bb32:	48 89 85 18 f9 ff ff 	mov    %rax,-0x6e8(%rbp)
    bb39:	48 8d 85 10 f4 ff ff 	lea    -0xbf0(%rbp),%rax
    bb40:	48 89 85 20 f9 ff ff 	mov    %rax,-0x6e0(%rbp)
    bb47:	48 8d 85 10 f4 ff ff 	lea    -0xbf0(%rbp),%rax
    bb4e:	48 89 85 28 f9 ff ff 	mov    %rax,-0x6d8(%rbp)
    bb55:	48 8d 85 10 f4 ff ff 	lea    -0xbf0(%rbp),%rax
    bb5c:	48 89 85 30 f9 ff ff 	mov    %rax,-0x6d0(%rbp)
    bb63:	48 8d 85 10 f4 ff ff 	lea    -0xbf0(%rbp),%rax
    bb6a:	48 89 85 38 f9 ff ff 	mov    %rax,-0x6c8(%rbp)
    bb71:	48 8d 85 10 f4 ff ff 	lea    -0xbf0(%rbp),%rax
    bb78:	48 89 85 40 f9 ff ff 	mov    %rax,-0x6c0(%rbp)
    bb7f:	48 8d 85 10 f4 ff ff 	lea    -0xbf0(%rbp),%rax
    bb86:	48 89 85 48 f9 ff ff 	mov    %rax,-0x6b8(%rbp)
    bb8d:	48 8d 85 10 f4 ff ff 	lea    -0xbf0(%rbp),%rax
    bb94:	48 89 85 50 f9 ff ff 	mov    %rax,-0x6b0(%rbp)
    bb9b:	48 8d 85 10 f4 ff ff 	lea    -0xbf0(%rbp),%rax
    bba2:	48 89 85 58 f9 ff ff 	mov    %rax,-0x6a8(%rbp)
    bba9:	48 8d 85 10 f4 ff ff 	lea    -0xbf0(%rbp),%rax
    bbb0:	48 89 85 60 f9 ff ff 	mov    %rax,-0x6a0(%rbp)
    bbb7:	48 8d 85 10 f4 ff ff 	lea    -0xbf0(%rbp),%rax
    bbbe:	48 89 85 68 f9 ff ff 	mov    %rax,-0x698(%rbp)
    bbc5:	48 8d 85 10 f4 ff ff 	lea    -0xbf0(%rbp),%rax
    bbcc:	48 89 85 70 f9 ff ff 	mov    %rax,-0x690(%rbp)
    bbd3:	48 8d 85 10 f4 ff ff 	lea    -0xbf0(%rbp),%rax
    bbda:	48 89 85 78 f9 ff ff 	mov    %rax,-0x688(%rbp)
    bbe1:	48 8d 85 10 f4 ff ff 	lea    -0xbf0(%rbp),%rax
    bbe8:	48 89 85 80 f9 ff ff 	mov    %rax,-0x680(%rbp)
    bbef:	48 8d 85 10 f4 ff ff 	lea    -0xbf0(%rbp),%rax
    bbf6:	48 89 85 88 f9 ff ff 	mov    %rax,-0x678(%rbp)
    bbfd:	48 8d 85 10 f4 ff ff 	lea    -0xbf0(%rbp),%rax
    bc04:	48 89 85 90 f9 ff ff 	mov    %rax,-0x670(%rbp)
    bc0b:	48 8d 85 10 f4 ff ff 	lea    -0xbf0(%rbp),%rax
    bc12:	48 89 85 98 f9 ff ff 	mov    %rax,-0x668(%rbp)
    bc19:	48 8d 85 10 f4 ff ff 	lea    -0xbf0(%rbp),%rax
    bc20:	48 89 85 a0 f9 ff ff 	mov    %rax,-0x660(%rbp)
    bc27:	48 8d 85 10 f4 ff ff 	lea    -0xbf0(%rbp),%rax
    bc2e:	48 89 85 a8 f9 ff ff 	mov    %rax,-0x658(%rbp)
    bc35:	48 8d 85 10 f4 ff ff 	lea    -0xbf0(%rbp),%rax
    bc3c:	48 89 85 b0 f9 ff ff 	mov    %rax,-0x650(%rbp)
    bc43:	48 8d 85 10 f4 ff ff 	lea    -0xbf0(%rbp),%rax
    bc4a:	48 89 85 b8 f9 ff ff 	mov    %rax,-0x648(%rbp)
    bc51:	c7 85 c8 f3 ff ff e6 	movl   $0x2751c0e6,-0xc38(%rbp)
    bc58:	c0 51 27 
    bc5b:	c7 85 cc f3 ff ff 00 	movl   $0x0,-0xc34(%rbp)
    bc62:	00 00 00 
    bc65:	48 8b 85 10 f4 ff ff 	mov    -0xbf0(%rbp),%rax
    bc6c:	48 89 85 88 f4 ff ff 	mov    %rax,-0xb78(%rbp)
    bc73:	48 8b 85 88 f4 ff ff 	mov    -0xb78(%rbp),%rax
    bc7a:	48 89 85 58 f4 ff ff 	mov    %rax,-0xba8(%rbp)
    bc81:	48 8b 05 a0 04 01 00 	mov    0x104a0(%rip),%rax        # 1c128 <g_1924>
    bc88:	48 8b 95 e0 f4 ff ff 	mov    -0xb20(%rbp),%rdx
    bc8f:	48 89 10             	mov    %rdx,(%rax)
    bc92:	48 83 85 18 f4 ff ff 	addq   $0x1,-0xbe8(%rbp)
    bc99:	01 
    bc9a:	0f b6 85 5c f3 ff ff 	movzbl -0xca4(%rbp),%eax
    bca1:	84 c0                	test   %al,%al
    bca3:	75 2e                	jne    bcd3 <func_9+0x122f>
    bca5:	0f b6 85 5c f3 ff ff 	movzbl -0xca4(%rbp),%eax
    bcac:	84 c0                	test   %al,%al
    bcae:	48 8b 05 fb d6 00 00 	mov    0xd6fb(%rip),%rax        # 193b0 <g_840>
    bcb5:	48 83 c0 01          	add    $0x1,%rax
    bcb9:	48 89 05 f0 d6 00 00 	mov    %rax,0xd6f0(%rip)        # 193b0 <g_840>
    bcc0:	48 8b 05 e9 d6 00 00 	mov    0xd6e9(%rip),%rax        # 193b0 <g_840>
    bcc7:	48 83 f8 25          	cmp    $0x25,%rax
    bccb:	0f 86 d2 fc ff ff    	jbe    b9a3 <func_9+0xeff>
    bcd1:	eb 01                	jmp    bcd4 <func_9+0x1230>
    bcd3:	90                   	nop
    bcd4:	0f b6 85 5c f3 ff ff 	movzbl -0xca4(%rbp),%eax
    bcdb:	84 c0                	test   %al,%al
    bcdd:	0f 85 d2 07 00 00    	jne    c4b5 <func_9+0x1a11>
    bce3:	48 83 bd 18 f4 ff ff 	cmpq   $0x0,-0xbe8(%rbp)
    bcea:	00 
    bceb:	0f 84 d1 01 00 00    	je     bec2 <func_9+0x141e>
    bcf1:	48 8d 05 78 13 01 00 	lea    0x11378(%rip),%rax        # 1d070 <g_286+0x10>
    bcf8:	48 89 85 00 f5 ff ff 	mov    %rax,-0xb00(%rbp)
    bcff:	c7 85 d8 f3 ff ff 01 	movl   $0x1,-0xc28(%rbp)
    bd06:	00 00 00 
    bd09:	0f b6 85 5c f3 ff ff 	movzbl -0xca4(%rbp),%eax
    bd10:	0f be c0             	movsbl %al,%eax
    bd13:	09 85 b8 f3 ff ff    	or     %eax,-0xc48(%rbp)
    bd19:	be fd ff 00 00       	mov    $0xfffd,%esi
    bd1e:	bf f3 ba 00 00       	mov    $0xbaf3,%edi
    bd23:	e8 f7 cf ff ff       	callq  8d1f <safe_sub_func_uint16_t_u_u>
    bd28:	0f b7 d8             	movzwl %ax,%ebx
    bd2b:	48 8b 85 18 f4 ff ff 	mov    -0xbe8(%rbp),%rax
    bd32:	41 89 c4             	mov    %eax,%r12d
    bd35:	48 8b 85 00 f5 ff ff 	mov    -0xb00(%rbp),%rax
    bd3c:	48 8b 95 48 f4 ff ff 	mov    -0xbb8(%rbp),%rdx
    bd43:	48 89 10             	mov    %rdx,(%rax)
    bd46:	48 8b 85 00 f5 ff ff 	mov    -0xb00(%rbp),%rax
    bd4d:	48 8b 00             	mov    (%rax),%rax
    bd50:	48 89 85 a0 f4 ff ff 	mov    %rax,-0xb60(%rbp)
    bd57:	48 83 bd a0 f4 ff ff 	cmpq   $0x0,-0xb60(%rbp)
    bd5e:	00 
    bd5f:	0f 95 c0             	setne  %al
    bd62:	0f b6 c0             	movzbl %al,%eax
    bd65:	f7 d0                	not    %eax
    bd67:	c1 e8 1f             	shr    $0x1f,%eax
    bd6a:	0f b6 c0             	movzbl %al,%eax
    bd6d:	be f6 ff 00 00       	mov    $0xfff6,%esi
    bd72:	89 c7                	mov    %eax,%edi
    bd74:	e8 c4 cf ff ff       	callq  8d3d <safe_mul_func_uint16_t_u_u>
    bd79:	48 8b 05 80 03 01 00 	mov    0x10380(%rip),%rax        # 1c100 <g_1711>
    bd80:	48 8b 00             	mov    (%rax),%rax
    bd83:	48 39 85 b0 f4 ff ff 	cmp    %rax,-0xb50(%rbp)
    bd8a:	0f 95 c0             	setne  %al
    bd8d:	0f b6 d0             	movzbl %al,%edx
    bd90:	48 8b 85 e0 f4 ff ff 	mov    -0xb20(%rbp),%rax
    bd97:	8b 00                	mov    (%rax),%eax
    bd99:	83 e0 01             	and    $0x1,%eax
    bd9c:	39 c2                	cmp    %eax,%edx
    bd9e:	0f 9f c0             	setg   %al
    bda1:	0f b6 c0             	movzbl %al,%eax
    bda4:	48 39 85 18 f4 ff ff 	cmp    %rax,-0xbe8(%rbp)
    bdab:	0f 93 c0             	setae  %al
    bdae:	0f b6 c0             	movzbl %al,%eax
    bdb1:	44 89 e6             	mov    %r12d,%esi
    bdb4:	89 c7                	mov    %eax,%edi
    bdb6:	e8 4b d0 ff ff       	callq  8e06 <safe_lshift_func_uint16_t_u_u>
    bdbb:	0f b7 c0             	movzwl %ax,%eax
    bdbe:	8b 95 d8 f3 ff ff    	mov    -0xc28(%rbp),%edx
    bdc4:	89 d6                	mov    %edx,%esi
    bdc6:	89 c7                	mov    %eax,%edi
    bdc8:	e8 32 c9 ff ff       	callq  86ff <safe_div_func_int32_t_s_s>
    bdcd:	21 85 90 f3 ff ff    	and    %eax,-0xc70(%rbp)
    bdd3:	8b 85 90 f3 ff ff    	mov    -0xc70(%rbp),%eax
    bdd9:	0f be c0             	movsbl %al,%eax
    bddc:	be 00 00 00 00       	mov    $0x0,%esi
    bde1:	89 c7                	mov    %eax,%edi
    bde3:	e8 0a c4 ff ff       	callq  81f2 <safe_sub_func_int8_t_s_s>
    bde8:	0f be d0             	movsbl %al,%edx
    bdeb:	48 8b 05 9e f4 00 00 	mov    0xf49e(%rip),%rax        # 1b290 <g_378>
    bdf2:	0f b6 00             	movzbl (%rax),%eax
    bdf5:	0f b6 c0             	movzbl %al,%eax
    bdf8:	39 c2                	cmp    %eax,%edx
    bdfa:	0f 9c c0             	setl   %al
    bdfd:	0f b6 c0             	movzbl %al,%eax
    be00:	21 d8                	and    %ebx,%eax
    be02:	85 c0                	test   %eax,%eax
    be04:	0f 94 c0             	sete   %al
    be07:	0f b6 c0             	movzbl %al,%eax
    be0a:	39 85 b4 f3 ff ff    	cmp    %eax,-0xc4c(%rbp)
    be10:	0f 9f c0             	setg   %al
    be13:	0f b6 c0             	movzbl %al,%eax
    be16:	be 05 00 00 00       	mov    $0x5,%esi
    be1b:	89 c7                	mov    %eax,%edi
    be1d:	e8 70 c6 ff ff       	callq  8492 <safe_lshift_func_int16_t_s_s>
    be22:	0f b6 85 5c f3 ff ff 	movzbl -0xca4(%rbp),%eax
    be29:	0f be c0             	movsbl %al,%eax
    be2c:	89 c6                	mov    %eax,%esi
    be2e:	bf ff ff ff ff       	mov    $0xffffffff,%edi
    be33:	e8 94 c8 ff ff       	callq  86cc <safe_mod_func_int32_t_s_s>
    be38:	0f b6 95 5c f3 ff ff 	movzbl -0xca4(%rbp),%edx
    be3f:	0f be d2             	movsbl %dl,%edx
    be42:	39 d0                	cmp    %edx,%eax
    be44:	0f 9e c0             	setle  %al
    be47:	0f b6 c0             	movzbl %al,%eax
    be4a:	39 85 b8 f3 ff ff    	cmp    %eax,-0xc48(%rbp)
    be50:	0f 9c c0             	setl   %al
    be53:	0f b6 d0             	movzbl %al,%edx
    be56:	8b 85 88 f3 ff ff    	mov    -0xc78(%rbp),%eax
    be5c:	31 d0                	xor    %edx,%eax
    be5e:	89 85 88 f3 ff ff    	mov    %eax,-0xc78(%rbp)
    be64:	48 8b 85 20 f4 ff ff 	mov    -0xbe0(%rbp),%rax
    be6b:	8b 10                	mov    (%rax),%edx
    be6d:	0f b6 85 5c f3 ff ff 	movzbl -0xca4(%rbp),%eax
    be74:	0f be c0             	movsbl %al,%eax
    be77:	31 c2                	xor    %eax,%edx
    be79:	48 8b 85 20 f4 ff ff 	mov    -0xbe0(%rbp),%rax
    be80:	89 10                	mov    %edx,(%rax)
    be82:	48 8b 85 20 f4 ff ff 	mov    -0xbe0(%rbp),%rax
    be89:	8b 00                	mov    (%rax),%eax
    be8b:	0b 85 d8 f3 ff ff    	or     -0xc28(%rbp),%eax
    be91:	89 c6                	mov    %eax,%esi
    be93:	bf 13 00 00 00       	mov    $0x13,%edi
    be98:	e8 04 c4 ff ff       	callq  82a1 <safe_lshift_func_int8_t_s_s>
    be9d:	48 8b 95 e0 f4 ff ff 	mov    -0xb20(%rbp),%rdx
    bea4:	8b 12                	mov    (%rdx),%edx
    bea6:	0f be c0             	movsbl %al,%eax
    bea9:	31 c2                	xor    %eax,%edx
    beab:	48 8b 85 e0 f4 ff ff 	mov    -0xb20(%rbp),%rax
    beb2:	89 10                	mov    %edx,(%rax)
    beb4:	0f b6 85 5c f3 ff ff 	movzbl -0xca4(%rbp),%eax
    bebb:	84 c0                	test   %al,%al
    bebd:	e9 c7 05 00 00       	jmpq   c489 <func_9+0x19e5>
    bec2:	48 8d 05 a7 f3 00 00 	lea    0xf3a7(%rip),%rax        # 1b270 <g_277>
    bec9:	48 89 85 f0 f4 ff ff 	mov    %rax,-0xb10(%rbp)
    bed0:	48 c7 85 f8 f4 ff ff 	movq   $0x0,-0xb08(%rbp)
    bed7:	00 00 00 00 
    bedb:	c7 85 d0 f3 ff ff 01 	movl   $0x1,-0xc30(%rbp)
    bee2:	00 00 00 
    bee5:	c7 85 d4 f3 ff ff bd 	movl   $0x4f619dbd,-0xc2c(%rbp)
    beec:	9d 61 4f 
    beef:	c7 85 30 f6 ff ff 29 	movl   $0x56f21e29,-0x9d0(%rbp)
    bef6:	1e f2 56 
    bef9:	c7 85 34 f6 ff ff 2d 	movl   $0xe966cd2d,-0x9cc(%rbp)
    bf00:	cd 66 e9 
    bf03:	c7 85 38 f6 ff ff 29 	movl   $0x56f21e29,-0x9c8(%rbp)
    bf0a:	1e f2 56 
    bf0d:	c7 85 3c f6 ff ff 29 	movl   $0x56f21e29,-0x9c4(%rbp)
    bf14:	1e f2 56 
    bf17:	c7 85 40 f6 ff ff 2d 	movl   $0xe966cd2d,-0x9c0(%rbp)
    bf1e:	cd 66 e9 
    bf21:	c7 85 44 f6 ff ff 29 	movl   $0x56f21e29,-0x9bc(%rbp)
    bf28:	1e f2 56 
    bf2b:	c7 85 48 f6 ff ff 29 	movl   $0x56f21e29,-0x9b8(%rbp)
    bf32:	1e f2 56 
    bf35:	c7 85 4c f6 ff ff 2d 	movl   $0xe966cd2d,-0x9b4(%rbp)
    bf3c:	cd 66 e9 
    bf3f:	c7 85 50 f6 ff ff 29 	movl   $0x56f21e29,-0x9b0(%rbp)
    bf46:	1e f2 56 
    bf49:	c7 85 54 f6 ff ff 29 	movl   $0x56f21e29,-0x9ac(%rbp)
    bf50:	1e f2 56 
    bf53:	c7 85 58 f6 ff ff 2d 	movl   $0xe966cd2d,-0x9a8(%rbp)
    bf5a:	cd 66 e9 
    bf5d:	c7 85 5c f6 ff ff 29 	movl   $0x56f21e29,-0x9a4(%rbp)
    bf64:	1e f2 56 
    bf67:	c7 85 60 f6 ff ff 29 	movl   $0x56f21e29,-0x9a0(%rbp)
    bf6e:	1e f2 56 
    bf71:	c7 85 64 f6 ff ff 2d 	movl   $0xe966cd2d,-0x99c(%rbp)
    bf78:	cd 66 e9 
    bf7b:	c7 85 68 f6 ff ff 29 	movl   $0x56f21e29,-0x998(%rbp)
    bf82:	1e f2 56 
    bf85:	c7 85 6c f6 ff ff 29 	movl   $0x56f21e29,-0x994(%rbp)
    bf8c:	1e f2 56 
    bf8f:	c7 85 70 f6 ff ff 2d 	movl   $0xe966cd2d,-0x990(%rbp)
    bf96:	cd 66 e9 
    bf99:	c7 85 74 f6 ff ff 29 	movl   $0x56f21e29,-0x98c(%rbp)
    bfa0:	1e f2 56 
    bfa3:	48 8d 85 40 f8 ff ff 	lea    -0x7c0(%rbp),%rax
    bfaa:	48 8d 15 4f dd 00 00 	lea    0xdd4f(%rip),%rdx        # 19d00 <g_2571+0x2e0>
    bfb1:	b9 f0 00 00 00       	mov    $0xf0,%ecx
    bfb6:	48 89 c7             	mov    %rax,%rdi
    bfb9:	48 89 d6             	mov    %rdx,%rsi
    bfbc:	f3 48 a5             	rep movsq %ds:(%rsi),%es:(%rdi)
    bfbf:	0f b6 85 5c f3 ff ff 	movzbl -0xca4(%rbp),%eax
    bfc6:	0f be d8             	movsbl %al,%ebx
    bfc9:	0f b6 85 5c f3 ff ff 	movzbl -0xca4(%rbp),%eax
    bfd0:	44 0f be e0          	movsbl %al,%r12d
    bfd4:	48 8b 85 28 f4 ff ff 	mov    -0xbd8(%rbp),%rax
    bfdb:	8b 00                	mov    (%rax),%eax
    bfdd:	4c 63 e8             	movslq %eax,%r13
    bfe0:	0f b6 85 5c f3 ff ff 	movzbl -0xca4(%rbp),%eax
    bfe7:	0f b6 c0             	movzbl %al,%eax
    bfea:	be 06 00 00 00       	mov    $0x6,%esi
    bfef:	89 c7                	mov    %eax,%edi
    bff1:	e8 56 cc ff ff       	callq  8c4c <safe_lshift_func_uint8_t_u_u>
    bff6:	44 0f b6 f8          	movzbl %al,%r15d
    bffa:	48 83 bd 18 f4 ff ff 	cmpq   $0x0,-0xbe8(%rbp)
    c001:	00 
    c002:	74 17                	je     c01b <func_9+0x1577>
    c004:	48 8b 85 40 f5 ff ff 	mov    -0xac0(%rbp),%rax
    c00b:	48 39 85 f0 f4 ff ff 	cmp    %rax,-0xb10(%rbp)
    c012:	74 07                	je     c01b <func_9+0x1577>
    c014:	b8 01 00 00 00       	mov    $0x1,%eax
    c019:	eb 05                	jmp    c020 <func_9+0x157c>
    c01b:	b8 00 00 00 00       	mov    $0x0,%eax
    c020:	be f8 ff ff ff       	mov    $0xfffffff8,%esi
    c025:	89 c7                	mov    %eax,%edi
    c027:	e8 a4 ce ff ff       	callq  8ed0 <safe_sub_func_uint32_t_u_u>
    c02c:	83 f8 01             	cmp    $0x1,%eax
    c02f:	0f 97 c0             	seta   %al
    c032:	44 0f b6 f0          	movzbl %al,%r14d
    c036:	0f b6 05 30 d9 00 00 	movzbl 0xd930(%rip),%eax        # 1996d <g_2062+0x1>
    c03d:	0f b6 d0             	movzbl %al,%edx
    c040:	0f b6 85 5c f3 ff ff 	movzbl -0xca4(%rbp),%eax
    c047:	0f be c0             	movsbl %al,%eax
    c04a:	89 d6                	mov    %edx,%esi
    c04c:	89 c7                	mov    %eax,%edi
    c04e:	e8 65 ce ff ff       	callq  8eb8 <safe_add_func_uint32_t_u_u>
    c053:	89 c2                	mov    %eax,%edx
    c055:	48 8b 05 24 f2 00 00 	mov    0xf224(%rip),%rax        # 1b280 <g_276>
    c05c:	48 8b 00             	mov    (%rax),%rax
    c05f:	8b 08                	mov    (%rax),%ecx
    c061:	48 8b 05 18 f2 00 00 	mov    0xf218(%rip),%rax        # 1b280 <g_276>
    c068:	48 8b 00             	mov    (%rax),%rax
    c06b:	31 ca                	xor    %ecx,%edx
    c06d:	89 10                	mov    %edx,(%rax)
    c06f:	8b 00                	mov    (%rax),%eax
    c071:	44 89 f6             	mov    %r14d,%esi
    c074:	89 c7                	mov    %eax,%edi
    c076:	e8 55 ce ff ff       	callq  8ed0 <safe_sub_func_uint32_t_u_u>
    c07b:	41 39 c7             	cmp    %eax,%r15d
    c07e:	0f 92 c0             	setb   %al
    c081:	0f b6 c0             	movzbl %al,%eax
    c084:	4c 89 ee             	mov    %r13,%rsi
    c087:	48 89 c7             	mov    %rax,%rdi
    c08a:	e8 bc cf ff ff       	callq  904b <safe_sub_func_uint64_t_u_u>
    c08f:	0f b6 95 5c f3 ff ff 	movzbl -0xca4(%rbp),%edx
    c096:	48 0f be d2          	movsbq %dl,%rdx
    c09a:	48 39 d0             	cmp    %rdx,%rax
    c09d:	0f 95 c0             	setne  %al
    c0a0:	0f b6 c0             	movzbl %al,%eax
    c0a3:	44 89 e6             	mov    %r12d,%esi
    c0a6:	89 c7                	mov    %eax,%edi
    c0a8:	e8 a8 c3 ff ff       	callq  8455 <safe_div_func_int16_t_s_s>
    c0ad:	98                   	cwtl   
    c0ae:	89 85 ac f3 ff ff    	mov    %eax,-0xc54(%rbp)
    c0b4:	0f b6 95 6c f3 ff ff 	movzbl -0xc94(%rbp),%edx
    c0bb:	0f b6 85 5c f3 ff ff 	movzbl -0xca4(%rbp),%eax
    c0c2:	0f be c0             	movsbl %al,%eax
    c0c5:	39 c2                	cmp    %eax,%edx
    c0c7:	0f 95 c0             	setne  %al
    c0ca:	0f b6 c0             	movzbl %al,%eax
    c0cd:	89 de                	mov    %ebx,%esi
    c0cf:	89 c7                	mov    %eax,%edi
    c0d1:	e8 dd c2 ff ff       	callq  83b3 <safe_add_func_int16_t_s_s>
    c0d6:	66 83 f8 01          	cmp    $0x1,%ax
    c0da:	0f 95 c0             	setne  %al
    c0dd:	0f b6 c0             	movzbl %al,%eax
    c0e0:	be 05 00 00 00       	mov    $0x5,%esi
    c0e5:	89 c7                	mov    %eax,%edi
    c0e7:	e8 c2 ca ff ff       	callq  8bae <safe_mod_func_uint8_t_u_u>
    c0ec:	0f b6 d0             	movzbl %al,%edx
    c0ef:	0f b6 85 5c f3 ff ff 	movzbl -0xca4(%rbp),%eax
    c0f6:	0f be c0             	movsbl %al,%eax
    c0f9:	39 c2                	cmp    %eax,%edx
    c0fb:	0f 9c c0             	setl   %al
    c0fe:	0f b6 c0             	movzbl %al,%eax
    c101:	48 be 11 99 47 dd cd 	movabs $0xbf0f16cddd479911,%rsi
    c108:	16 0f bf 
    c10b:	48 89 c7             	mov    %rax,%rdi
    c10e:	e8 a1 c8 ff ff       	callq  89b4 <safe_mod_func_int64_t_s_s>
    c113:	89 c2                	mov    %eax,%edx
    c115:	48 8b 85 e0 f4 ff ff 	mov    -0xb20(%rbp),%rax
    c11c:	89 10                	mov    %edx,(%rax)
    c11e:	48 8b 85 f8 f4 ff ff 	mov    -0xb08(%rbp),%rax
    c125:	48 89 85 e0 f4 ff ff 	mov    %rax,-0xb20(%rbp)
    c12c:	0f b6 45 c5          	movzbl -0x3b(%rbp),%eax
    c130:	83 e8 01             	sub    $0x1,%eax
    c133:	88 45 c5             	mov    %al,-0x3b(%rbp)
    c136:	0f b6 85 5c f3 ff ff 	movzbl -0xca4(%rbp),%eax
    c13d:	0f be d8             	movsbl %al,%ebx
    c140:	c7 85 b8 f3 ff ff 00 	movl   $0x0,-0xc48(%rbp)
    c147:	00 00 00 
    c14a:	48 c7 85 90 f4 ff ff 	movq   $0x0,-0xb70(%rbp)
    c151:	00 00 00 00 
    c155:	48 8b 85 90 f4 ff ff 	mov    -0xb70(%rbp),%rax
    c15c:	98                   	cwtl   
    c15d:	89 c6                	mov    %eax,%esi
    c15f:	bf 47 50 00 00       	mov    $0x5047,%edi
    c164:	e8 8c c2 ff ff       	callq  83f5 <safe_mul_func_int16_t_s_s>
    c169:	66 85 c0             	test   %ax,%ax
    c16c:	0f 85 19 01 00 00    	jne    c28b <func_9+0x17e7>
    c172:	4c 0f be a5 6b f3 ff 	movsbq -0xc95(%rbp),%r12
    c179:	ff 
    c17a:	0f b7 05 bb cf 00 00 	movzwl 0xcfbb(%rip),%eax        # 1913c <g_166>
    c181:	44 0f b7 e8          	movzwl %ax,%r13d
    c185:	0f b7 05 04 0f 01 00 	movzwl 0x10f04(%rip),%eax        # 1d090 <g_338>
    c18c:	44 0f b7 f0          	movzwl %ax,%r14d
    c190:	0f b6 85 5c f3 ff ff 	movzbl -0xca4(%rbp),%eax
    c197:	0f be d0             	movsbl %al,%edx
    c19a:	0f b6 85 5c f3 ff ff 	movzbl -0xca4(%rbp),%eax
    c1a1:	0f be c0             	movsbl %al,%eax
    c1a4:	89 d6                	mov    %edx,%esi
    c1a6:	89 c7                	mov    %eax,%edi
    c1a8:	e8 b6 c3 ff ff       	callq  8563 <safe_rshift_func_int16_t_s_u>
    c1ad:	48 0f bf c0          	movswq %ax,%rax
    c1b1:	83 e0 01             	and    $0x1,%eax
    c1b4:	48 85 c0             	test   %rax,%rax
    c1b7:	74 07                	je     c1c0 <func_9+0x171c>
    c1b9:	b8 01 00 00 00       	mov    $0x1,%eax
    c1be:	eb 05                	jmp    c1c5 <func_9+0x1721>
    c1c0:	b8 00 00 00 00       	mov    $0x0,%eax
    c1c5:	48 98                	cltq   
    c1c7:	48 c7 c6 ff ff ff ff 	mov    $0xffffffffffffffff,%rsi
    c1ce:	48 89 c7             	mov    %rax,%rdi
    c1d1:	e8 75 ce ff ff       	callq  904b <safe_sub_func_uint64_t_u_u>
    c1d6:	44 89 f6             	mov    %r14d,%esi
    c1d9:	bf 01 00 00 00       	mov    $0x1,%edi
    c1de:	e8 be c0 ff ff       	callq  82a1 <safe_lshift_func_int8_t_s_s>
    c1e3:	66 98                	cbtw   
    c1e5:	0f b7 c0             	movzwl %ax,%eax
    c1e8:	44 89 ee             	mov    %r13d,%esi
    c1eb:	89 c7                	mov    %eax,%edi
    c1ed:	e8 9c cb ff ff       	callq  8d8e <safe_div_func_uint16_t_u_u>
    c1f2:	0f be c0             	movsbl %al,%eax
    c1f5:	be 01 00 00 00       	mov    $0x1,%esi
    c1fa:	89 c7                	mov    %eax,%edi
    c1fc:	e8 34 c1 ff ff       	callq  8335 <safe_rshift_func_int8_t_s_s>
    c201:	48 0f be d0          	movsbq %al,%rdx
    c205:	0f b6 85 5c f3 ff ff 	movzbl -0xca4(%rbp),%eax
    c20c:	48 0f be c0          	movsbq %al,%rax
    c210:	48 89 d6             	mov    %rdx,%rsi
    c213:	48 89 c7             	mov    %rax,%rdi
    c216:	e8 26 c6 ff ff       	callq  8841 <safe_add_func_int64_t_s_s>
    c21b:	ba 01 00 00 00       	mov    $0x1,%edx
    c220:	8b 85 88 f3 ff ff    	mov    -0xc78(%rbp),%eax
    c226:	31 d0                	xor    %edx,%eax
    c228:	89 85 88 f3 ff ff    	mov    %eax,-0xc78(%rbp)
    c22e:	8b 85 88 f3 ff ff    	mov    -0xc78(%rbp),%eax
    c234:	be 46 19 93 91       	mov    $0x91931946,%esi
    c239:	89 c7                	mov    %eax,%edi
    c23b:	e8 8c c4 ff ff       	callq  86cc <safe_mod_func_int32_t_s_s>
    c240:	48 98                	cltq   
    c242:	4c 89 e6             	mov    %r12,%rsi
    c245:	48 89 c7             	mov    %rax,%rdi
    c248:	e8 f4 c5 ff ff       	callq  8841 <safe_add_func_int64_t_s_s>
    c24d:	89 c2                	mov    %eax,%edx
    c24f:	48 8b 85 28 f4 ff ff 	mov    -0xbd8(%rbp),%rax
    c256:	89 10                	mov    %edx,(%rax)
    c258:	48 8b 85 28 f4 ff ff 	mov    -0xbd8(%rbp),%rax
    c25f:	8b 10                	mov    (%rax),%edx
    c261:	0f b7 85 74 f3 ff ff 	movzwl -0xc8c(%rbp),%eax
    c268:	31 c2                	xor    %eax,%edx
    c26a:	48 8b 05 1f f0 00 00 	mov    0xf01f(%rip),%rax        # 1b290 <g_378>
    c271:	0f b6 00             	movzbl (%rax),%eax
    c274:	0f b6 c0             	movzbl %al,%eax
    c277:	39 c2                	cmp    %eax,%edx
    c279:	0f 9c c0             	setl   %al
    c27c:	0f b6 d0             	movzbl %al,%edx
    c27f:	48 8b 05 c2 d1 00 00 	mov    0xd1c2(%rip),%rax        # 19448 <g_1279+0x8>
    c286:	48 39 c2             	cmp    %rax,%rdx
    c289:	74 07                	je     c292 <func_9+0x17ee>
    c28b:	b8 01 00 00 00       	mov    $0x1,%eax
    c290:	eb 05                	jmp    c297 <func_9+0x17f3>
    c292:	b8 00 00 00 00       	mov    $0x0,%eax
    c297:	89 c2                	mov    %eax,%edx
    c299:	8b 85 90 f3 ff ff    	mov    -0xc70(%rbp),%eax
    c29f:	31 d0                	xor    %edx,%eax
    c2a1:	0f b7 c0             	movzwl %ax,%eax
    c2a4:	8b 95 b4 f3 ff ff    	mov    -0xc4c(%rbp),%edx
    c2aa:	89 d6                	mov    %edx,%esi
    c2ac:	89 c7                	mov    %eax,%edi
    c2ae:	e8 0b cb ff ff       	callq  8dbe <safe_lshift_func_uint16_t_u_s>
    c2b3:	66 89 85 72 f3 ff ff 	mov    %ax,-0xc8e(%rbp)
    c2ba:	0f b7 85 72 f3 ff ff 	movzwl -0xc8e(%rbp),%eax
    c2c1:	89 85 c4 f3 ff ff    	mov    %eax,-0xc3c(%rbp)
    c2c7:	8b 85 c4 f3 ff ff    	mov    -0xc3c(%rbp),%eax
    c2cd:	98                   	cwtl   
    c2ce:	89 de                	mov    %ebx,%esi
    c2d0:	89 c7                	mov    %eax,%edi
    c2d2:	e8 53 c2 ff ff       	callq  852a <safe_rshift_func_int16_t_s_s>
    c2d7:	ba 01 00 00 00       	mov    $0x1,%edx
    c2dc:	8b 85 10 f7 ff ff    	mov    -0x8f0(%rbp),%eax
    c2e2:	31 d0                	xor    %edx,%eax
    c2e4:	89 85 10 f7 ff ff    	mov    %eax,-0x8f0(%rbp)
    c2ea:	e9 9a 01 00 00       	jmpq   c489 <func_9+0x19e5>
    c2ef:	48 8d 85 88 f3 ff ff 	lea    -0xc78(%rbp),%rax
    c2f6:	48 89 85 c0 f4 ff ff 	mov    %rax,-0xb40(%rbp)
    c2fd:	48 8b 85 c0 f4 ff ff 	mov    -0xb40(%rbp),%rax
    c304:	48 89 85 b8 f4 ff ff 	mov    %rax,-0xb48(%rbp)
    c30b:	c6 85 6d f3 ff ff 11 	movb   $0x11,-0xc93(%rbp)
    c312:	80 bd 6d f3 ff ff f8 	cmpb   $0xf8,-0xc93(%rbp)
    c319:	0f 8d 6a 01 00 00    	jge    c489 <func_9+0x19e5>
    c31f:	48 8d 05 7a d6 00 00 	lea    0xd67a(%rip),%rax        # 199a0 <g_2119>
    c326:	48 89 85 c8 f4 ff ff 	mov    %rax,-0xb38(%rbp)
    c32d:	c7 85 bc f3 ff ff cd 	movl   $0x15f13ccd,-0xc44(%rbp)
    c334:	3c f1 15 
    c337:	48 c7 85 d0 f4 ff ff 	movq   $0x0,-0xb30(%rbp)
    c33e:	00 00 00 00 
    c342:	48 8d 05 07 d1 00 00 	lea    0xd107(%rip),%rax        # 19450 <g_1279+0x10>
    c349:	48 89 85 d8 f4 ff ff 	mov    %rax,-0xb28(%rbp)
    c350:	48 8b 05 19 ca 00 00 	mov    0xca19(%rip),%rax        # 18d70 <l_2117.4458+0x10>
    c357:	48 89 85 c8 f4 ff ff 	mov    %rax,-0xb38(%rbp)
    c35e:	48 8b 05 ab fd 00 00 	mov    0xfdab(%rip),%rax        # 1c110 <g_1725>
    c365:	8b 00                	mov    (%rax),%eax
    c367:	85 c0                	test   %eax,%eax
    c369:	0f 85 19 01 00 00    	jne    c488 <func_9+0x19e4>
    c36f:	48 8b 85 c0 f4 ff ff 	mov    -0xb40(%rbp),%rax
    c376:	8b 00                	mov    (%rax),%eax
    c378:	85 c0                	test   %eax,%eax
    c37a:	75 0b                	jne    c387 <func_9+0x18e3>
    c37c:	0f b6 85 5c f3 ff ff 	movzbl -0xca4(%rbp),%eax
    c383:	84 c0                	test   %al,%al
    c385:	74 07                	je     c38e <func_9+0x18ea>
    c387:	b8 01 00 00 00       	mov    $0x1,%eax
    c38c:	eb 05                	jmp    c393 <func_9+0x18ef>
    c38e:	b8 00 00 00 00       	mov    $0x0,%eax
    c393:	3b 85 bc f3 ff ff    	cmp    -0xc44(%rbp),%eax
    c399:	0f 95 c0             	setne  %al
    c39c:	44 0f b6 e8          	movzbl %al,%r13d
    c3a0:	48 8b 05 e1 f1 00 00 	mov    0xf1e1(%rip),%rax        # 1b588 <g_1569>
    c3a7:	48 8b 10             	mov    (%rax),%rdx
    c3aa:	48 8b 05 d7 f1 00 00 	mov    0xf1d7(%rip),%rax        # 1b588 <g_1569>
    c3b1:	48 8b 00             	mov    (%rax),%rax
    c3b4:	48 89 05 8d fd 00 00 	mov    %rax,0xfd8d(%rip)        # 1c148 <g_2121>
    c3bb:	48 8b 05 86 fd 00 00 	mov    0xfd86(%rip),%rax        # 1c148 <g_2121>
    c3c2:	48 39 c2             	cmp    %rax,%rdx
    c3c5:	41 0f 95 c6          	setne  %r14b
    c3c9:	48 8b 85 b8 f4 ff ff 	mov    -0xb48(%rbp),%rax
    c3d0:	8b 00                	mov    (%rax),%eax
    c3d2:	0f b7 d8             	movzwl %ax,%ebx
    c3d5:	0f b6 85 5c f3 ff ff 	movzbl -0xca4(%rbp),%eax
    c3dc:	44 0f be e0          	movsbl %al,%r12d
    c3e0:	0f b6 85 5c f3 ff ff 	movzbl -0xca4(%rbp),%eax
    c3e7:	0f be c0             	movsbl %al,%eax
    c3ea:	be f4 c8 ff ff       	mov    $0xffffc8f4,%esi
    c3ef:	89 c7                	mov    %eax,%edi
    c3f1:	e8 bd bf ff ff       	callq  83b3 <safe_add_func_int16_t_s_s>
    c3f6:	8b 85 b0 f3 ff ff    	mov    -0xc50(%rbp),%eax
    c3fc:	48 63 d0             	movslq %eax,%rdx
    c3ff:	48 8b 85 40 f4 ff ff 	mov    -0xbc0(%rbp),%rax
    c406:	48 89 10             	mov    %rdx,(%rax)
    c409:	44 89 e6             	mov    %r12d,%esi
    c40c:	bf 00 00 00 00       	mov    $0x0,%edi
    c411:	e8 a8 c8 ff ff       	callq  8cbe <safe_rshift_func_uint8_t_u_u>
    c416:	0f b6 d0             	movzbl %al,%edx
    c419:	48 8b 85 78 f4 ff ff 	mov    -0xb88(%rbp),%rax
    c420:	66 89 10             	mov    %dx,(%rax)
    c423:	48 8b 85 78 f4 ff ff 	mov    -0xb88(%rbp),%rax
    c42a:	0f b7 00             	movzwl (%rax),%eax
    c42d:	0f b7 c0             	movzwl %ax,%eax
    c430:	89 de                	mov    %ebx,%esi
    c432:	89 c7                	mov    %eax,%edi
    c434:	e8 e6 c8 ff ff       	callq  8d1f <safe_sub_func_uint16_t_u_u>
    c439:	66 85 c0             	test   %ax,%ax
    c43c:	74 07                	je     c445 <func_9+0x19a1>
    c43e:	b8 01 00 00 00       	mov    $0x1,%eax
    c443:	eb 05                	jmp    c44a <func_9+0x19a6>
    c445:	b8 00 00 00 00       	mov    $0x0,%eax
    c44a:	83 e0 01             	and    $0x1,%eax
    c44d:	44 21 f0             	and    %r14d,%eax
    c450:	0f b6 c0             	movzbl %al,%eax
    c453:	44 21 e8             	and    %r13d,%eax
    c456:	39 85 bc f3 ff ff    	cmp    %eax,-0xc44(%rbp)
    c45c:	0f 95 c0             	setne  %al
    c45f:	0f b6 d0             	movzbl %al,%edx
    c462:	48 8b 85 d8 f4 ff ff 	mov    -0xb28(%rbp),%rax
    c469:	89 10                	mov    %edx,(%rax)
    c46b:	48 8b 85 c0 f4 ff ff 	mov    -0xb40(%rbp),%rax
    c472:	c7 00 7b 18 99 b9    	movl   $0xb999187b,(%rax)
    c478:	0f b6 85 5c f3 ff ff 	movzbl -0xca4(%rbp),%eax
    c47f:	48 0f be c0          	movsbq %al,%rax
    c483:	e9 48 02 00 00       	jmpq   c6d0 <func_9+0x1c2c>
    c488:	90                   	nop
    c489:	8b 85 78 f3 ff ff    	mov    -0xc88(%rbp),%eax
    c48f:	89 c0                	mov    %eax,%eax
    c491:	be 05 00 00 00       	mov    $0x5,%esi
    c496:	48 89 c7             	mov    %rax,%rdi
    c499:	e8 90 cb ff ff       	callq  902e <safe_add_func_uint64_t_u_u>
    c49e:	89 85 78 f3 ff ff    	mov    %eax,-0xc88(%rbp)
    c4a4:	8b 85 78 f3 ff ff    	mov    -0xc88(%rbp),%eax
    c4aa:	83 f8 37             	cmp    $0x37,%eax
    c4ad:	0f 87 41 f3 ff ff    	ja     b7f4 <func_9+0xd50>
    c4b3:	eb 01                	jmp    c4b6 <func_9+0x1a12>
    c4b5:	90                   	nop
    c4b6:	48 8d 85 84 f3 ff ff 	lea    -0xc7c(%rbp),%rax
    c4bd:	48 89 85 a8 f4 ff ff 	mov    %rax,-0xb58(%rbp)
    c4c4:	48 8d 85 80 f3 ff ff 	lea    -0xc80(%rbp),%rax
    c4cb:	48 39 85 a8 f4 ff ff 	cmp    %rax,-0xb58(%rbp)
    c4d2:	0f 95 c0             	setne  %al
    c4d5:	0f b6 d0             	movzbl %al,%edx
    c4d8:	48 8b 85 28 f4 ff ff 	mov    -0xbd8(%rbp),%rax
    c4df:	89 10                	mov    %edx,(%rax)
    c4e1:	48 8b 85 28 f4 ff ff 	mov    -0xbd8(%rbp),%rax
    c4e8:	8b 08                	mov    (%rax),%ecx
    c4ea:	48 8b 05 1f fc 00 00 	mov    0xfc1f(%rip),%rax        # 1c110 <g_1725>
    c4f1:	8b 10                	mov    (%rax),%edx
    c4f3:	09 ca                	or     %ecx,%edx
    c4f5:	89 10                	mov    %edx,(%rax)
    c4f7:	c7 85 94 f3 ff ff 00 	movl   $0x0,-0xc6c(%rbp)
    c4fe:	00 00 00 
    c501:	e9 8b 01 00 00       	jmpq   c691 <func_9+0x1bed>
    c506:	48 8d 85 78 f3 ff ff 	lea    -0xc88(%rbp),%rax
    c50d:	48 89 85 08 f5 ff ff 	mov    %rax,-0xaf8(%rbp)
    c514:	c7 85 9c f3 ff ff d3 	movl   $0xb5fc40d3,-0xc64(%rbp)
    c51b:	40 fc b5 
    c51e:	48 8b 85 20 f4 ff ff 	mov    -0xbe0(%rbp),%rax
    c525:	8b 00                	mov    (%rax),%eax
    c527:	25 a4 da f7 12       	and    $0x12f7daa4,%eax
    c52c:	89 c2                	mov    %eax,%edx
    c52e:	48 8b 85 20 f4 ff ff 	mov    -0xbe0(%rbp),%rax
    c535:	89 10                	mov    %edx,(%rax)
    c537:	c7 85 80 f3 ff ff 00 	movl   $0x0,-0xc80(%rbp)
    c53e:	00 00 00 
    c541:	e9 29 01 00 00       	jmpq   c66f <func_9+0x1bcb>
    c546:	48 8d 05 23 cf 00 00 	lea    0xcf23(%rip),%rax        # 19470 <g_1394>
    c54d:	48 89 85 98 f4 ff ff 	mov    %rax,-0xb68(%rbp)
    c554:	0f b6 05 79 d4 00 00 	movzbl 0xd479(%rip),%eax        # 199d4 <g_2140+0x4>
    c55b:	89 c2                	mov    %eax,%edx
    c55d:	0f b6 85 5c f3 ff ff 	movzbl -0xca4(%rbp),%eax
    c564:	21 d0                	and    %edx,%eax
    c566:	0f be c0             	movsbl %al,%eax
    c569:	be 00 00 00 00       	mov    $0x0,%esi
    c56e:	89 c7                	mov    %eax,%edi
    c570:	e8 5f bc ff ff       	callq  81d4 <safe_add_func_int8_t_s_s>
    c575:	48 8b 95 78 f4 ff ff 	mov    -0xb88(%rbp),%rdx
    c57c:	0f b7 12             	movzwl (%rdx),%edx
    c57f:	66 98                	cbtw   
    c581:	09 d0                	or     %edx,%eax
    c583:	89 c2                	mov    %eax,%edx
    c585:	48 8b 85 78 f4 ff ff 	mov    -0xb88(%rbp),%rax
    c58c:	66 89 10             	mov    %dx,(%rax)
    c58f:	48 8b 85 78 f4 ff ff 	mov    -0xb88(%rbp),%rax
    c596:	0f b7 00             	movzwl (%rax),%eax
    c599:	0f b7 d0             	movzwl %ax,%edx
    c59c:	48 8b 05 8d 0b 01 00 	mov    0x10b8d(%rip),%rax        # 1d130 <g_2142>
    c5a3:	48 85 c0             	test   %rax,%rax
    c5a6:	0f 95 c0             	setne  %al
    c5a9:	0f b6 c0             	movzbl %al,%eax
    c5ac:	39 c2                	cmp    %eax,%edx
    c5ae:	0f 9c c0             	setl   %al
    c5b1:	44 0f b6 e0          	movzbl %al,%r12d
    c5b5:	0f b6 85 5c f3 ff ff 	movzbl -0xca4(%rbp),%eax
    c5bc:	0f be d8             	movsbl %al,%ebx
    c5bf:	0f b7 05 7a cf 00 00 	movzwl 0xcf7a(%rip),%eax        # 19540 <g_1519+0xc0>
    c5c6:	0f be d0             	movsbl %al,%edx
    c5c9:	0f b6 85 5c f3 ff ff 	movzbl -0xca4(%rbp),%eax
    c5d0:	0f be c0             	movsbl %al,%eax
    c5d3:	89 d6                	mov    %edx,%esi
    c5d5:	89 c7                	mov    %eax,%edi
    c5d7:	e8 55 bc ff ff       	callq  8231 <safe_mod_func_int8_t_s_s>
    c5dc:	48 8b 95 80 f4 ff ff 	mov    -0xb80(%rbp),%rdx
    c5e3:	0f b6 12             	movzbl (%rdx),%edx
    c5e6:	21 c2                	and    %eax,%edx
    c5e8:	48 8b 85 80 f4 ff ff 	mov    -0xb80(%rbp),%rax
    c5ef:	88 10                	mov    %dl,(%rax)
    c5f1:	48 8b 85 80 f4 ff ff 	mov    -0xb80(%rbp),%rax
    c5f8:	0f b6 00             	movzbl (%rax),%eax
    c5fb:	84 c0                	test   %al,%al
    c5fd:	75 0f                	jne    c60e <func_9+0x1b6a>
    c5ff:	be 03 00 00 00       	mov    $0x3,%esi
    c604:	bf e6 ff ff ff       	mov    $0xffffffe6,%edi
    c609:	e8 93 bc ff ff       	callq  82a1 <safe_lshift_func_int8_t_s_s>
    c60e:	48 8b 85 40 f4 ff ff 	mov    -0xbc0(%rbp),%rax
    c615:	48 c7 00 ff ff ff ff 	movq   $0xffffffffffffffff,(%rax)
    c61c:	48 8b 05 bd f2 00 00 	mov    0xf2bd(%rip),%rax        # 1b8e0 <g_1690>
    c623:	48 8b 00             	mov    (%rax),%rax
    c626:	48 85 c0             	test   %rax,%rax
    c629:	74 07                	je     c632 <func_9+0x1b8e>
    c62b:	b8 01 00 00 00       	mov    $0x1,%eax
    c630:	eb 05                	jmp    c637 <func_9+0x1b93>
    c632:	b8 00 00 00 00       	mov    $0x0,%eax
    c637:	98                   	cwtl   
    c638:	89 de                	mov    %ebx,%esi
    c63a:	89 c7                	mov    %eax,%edi
    c63c:	e8 14 be ff ff       	callq  8455 <safe_div_func_int16_t_s_s>
    c641:	98                   	cwtl   
    c642:	41 39 c4             	cmp    %eax,%r12d
    c645:	0f 9e c0             	setle  %al
    c648:	0f b6 c0             	movzbl %al,%eax
    c64b:	09 85 9c f3 ff ff    	or     %eax,-0xc64(%rbp)
    c651:	8b 85 80 f3 ff ff    	mov    -0xc80(%rbp),%eax
    c657:	0f be c0             	movsbl %al,%eax
    c65a:	be 02 00 00 00       	mov    $0x2,%esi
    c65f:	89 c7                	mov    %eax,%edi
    c661:	e8 6e bb ff ff       	callq  81d4 <safe_add_func_int8_t_s_s>
    c666:	0f be c0             	movsbl %al,%eax
    c669:	89 85 80 f3 ff ff    	mov    %eax,-0xc80(%rbp)
    c66f:	8b 85 80 f3 ff ff    	mov    -0xc80(%rbp),%eax
    c675:	83 f8 09             	cmp    $0x9,%eax
    c678:	0f 8f c8 fe ff ff    	jg     c546 <func_9+0x1aa2>
    c67e:	0f b7 05 a3 cb 00 00 	movzwl 0xcba3(%rip),%eax        # 19228 <g_325>
    c685:	66 85 c0             	test   %ax,%ax
    c688:	75 16                	jne    c6a0 <func_9+0x1bfc>
    c68a:	83 85 94 f3 ff ff 01 	addl   $0x1,-0xc6c(%rbp)
    c691:	83 bd 94 f3 ff ff 14 	cmpl   $0x14,-0xc6c(%rbp)
    c698:	0f 8e 68 fe ff ff    	jle    c506 <func_9+0x1a62>
    c69e:	eb 01                	jmp    c6a1 <func_9+0x1bfd>
    c6a0:	90                   	nop
    c6a1:	48 8b 85 28 f4 ff ff 	mov    -0xbd8(%rbp),%rax
    c6a8:	8b 00                	mov    (%rax),%eax
    c6aa:	83 f0 fd             	xor    $0xfffffffd,%eax
    c6ad:	89 c2                	mov    %eax,%edx
    c6af:	48 8b 85 28 f4 ff ff 	mov    -0xbd8(%rbp),%rax
    c6b6:	89 10                	mov    %edx,(%rax)
    c6b8:	0f b6 85 5c f3 ff ff 	movzbl -0xca4(%rbp),%eax
    c6bf:	48 0f be c0          	movsbq %al,%rax
    c6c3:	eb 0b                	jmp    c6d0 <func_9+0x1c2c>
    c6c5:	0f b6 85 5c f3 ff ff 	movzbl -0xca4(%rbp),%eax
    c6cc:	48 0f be c0          	movsbq %al,%rax
    c6d0:	48 8b 4d c8          	mov    -0x38(%rbp),%rcx
    c6d4:	64 48 33 0c 25 28 00 	xor    %fs:0x28,%rcx
    c6db:	00 00 
    c6dd:	74 05                	je     c6e4 <func_9+0x1c40>
    c6df:	e8 8c b9 ff ff       	callq  8070 <__stack_chk_fail@plt>
    c6e4:	48 81 c4 88 0c 00 00 	add    $0xc88,%rsp
    c6eb:	5b                   	pop    %rbx
    c6ec:	41 5c                	pop    %r12
    c6ee:	41 5d                	pop    %r13
    c6f0:	41 5e                	pop    %r14
    c6f2:	41 5f                	pop    %r15
    c6f4:	5d                   	pop    %rbp
    c6f5:	c3                   	retq   

000000000000c6f6 <func_17>:
    c6f6:	f3 0f 1e fa          	endbr64 
    c6fa:	55                   	push   %rbp
    c6fb:	48 89 e5             	mov    %rsp,%rbp
    c6fe:	41 56                	push   %r14
    c700:	41 55                	push   %r13
    c702:	41 54                	push   %r12
    c704:	53                   	push   %rbx
    c705:	48 81 ec f0 02 00 00 	sub    $0x2f0,%rsp
    c70c:	48 89 bd 08 fd ff ff 	mov    %rdi,-0x2f8(%rbp)
    c713:	89 b5 04 fd ff ff    	mov    %esi,-0x2fc(%rbp)
    c719:	89 d0                	mov    %edx,%eax
    c71b:	44 89 c2             	mov    %r8d,%edx
    c71e:	66 89 85 00 fd ff ff 	mov    %ax,-0x300(%rbp)
    c725:	89 c8                	mov    %ecx,%eax
    c727:	88 85 fc fc ff ff    	mov    %al,-0x304(%rbp)
    c72d:	89 d0                	mov    %edx,%eax
    c72f:	66 89 85 f8 fc ff ff 	mov    %ax,-0x308(%rbp)
    c736:	64 48 8b 04 25 28 00 	mov    %fs:0x28,%rax
    c73d:	00 00 
    c73f:	48 89 45 d8          	mov    %rax,-0x28(%rbp)
    c743:	31 c0                	xor    %eax,%eax
    c745:	48 c7 85 c0 fd ff ff 	movq   $0x0,-0x240(%rbp)
    c74c:	00 00 00 00 
    c750:	48 c7 85 c8 fd ff ff 	movq   $0x0,-0x238(%rbp)
    c757:	00 00 00 00 
    c75b:	48 c7 85 d0 fd ff ff 	movq   $0x0,-0x230(%rbp)
    c762:	00 00 00 00 
    c766:	48 c7 85 d8 fd ff ff 	movq   $0x0,-0x228(%rbp)
    c76d:	00 00 00 00 
    c771:	48 c7 85 e0 fd ff ff 	movq   $0x0,-0x220(%rbp)
    c778:	00 00 00 00 
    c77c:	48 c7 85 e8 fd ff ff 	movq   $0x0,-0x218(%rbp)
    c783:	00 00 00 00 
    c787:	48 c7 85 f0 fd ff ff 	movq   $0x0,-0x210(%rbp)
    c78e:	00 00 00 00 
    c792:	48 b8 69 6c fd aa 3f 	movabs $0x99cd513faafd6c69,%rax
    c799:	51 cd 99 
    c79c:	48 89 85 50 fd ff ff 	mov    %rax,-0x2b0(%rbp)
    c7a3:	c7 85 24 fd ff ff 63 	movl   $0x4f4b6163,-0x2dc(%rbp)
    c7aa:	61 4b 4f 
    c7ad:	c7 85 b0 fd ff ff fe 	movl   $0xfffffffe,-0x250(%rbp)
    c7b4:	ff ff ff 
    c7b7:	c7 85 b4 fd ff ff fe 	movl   $0xfffffffe,-0x24c(%rbp)
    c7be:	ff ff ff 
    c7c1:	c7 85 b8 fd ff ff fe 	movl   $0xfffffffe,-0x248(%rbp)
    c7c8:	ff ff ff 
    c7cb:	c7 85 bc fd ff ff fe 	movl   $0xfffffffe,-0x244(%rbp)
    c7d2:	ff ff ff 
    c7d5:	48 8d 05 04 09 01 00 	lea    0x10904(%rip),%rax        # 1d0e0 <g_1630>
    c7dc:	48 89 85 38 fd ff ff 	mov    %rax,-0x2c8(%rbp)
    c7e3:	bf ff ff ff ff       	mov    $0xffffffff,%edi
    c7e8:	e8 b0 bb ff ff       	callq  839d <safe_unary_minus_func_int16_t_s>
    c7ed:	48 0f bf d8          	movswq %ax,%rbx
    c7f1:	48 83 bd 50 fd ff ff 	cmpq   $0x1,-0x2b0(%rbp)
    c7f8:	01 
    c7f9:	0f 95 c0             	setne  %al
    c7fc:	44 0f b6 e0          	movzbl %al,%r12d
    c800:	0f b7 85 00 fd ff ff 	movzwl -0x300(%rbp),%eax
    c807:	0f b6 c0             	movzbl %al,%eax
    c80a:	be 02 00 00 00       	mov    $0x2,%esi
    c80f:	89 c7                	mov    %eax,%edi
    c811:	e8 77 c4 ff ff       	callq  8c8d <safe_rshift_func_uint8_t_u_s>
    c816:	0f b6 c0             	movzbl %al,%eax
    c819:	89 85 24 fd ff ff    	mov    %eax,-0x2dc(%rbp)
    c81f:	8b 85 24 fd ff ff    	mov    -0x2dc(%rbp),%eax
    c825:	48 98                	cltq   
    c827:	48 8b 95 50 fd ff ff 	mov    -0x2b0(%rbp),%rdx
    c82e:	48 89 d6             	mov    %rdx,%rsi
    c831:	48 89 c7             	mov    %rax,%rdi
    c834:	e8 76 c8 ff ff       	callq  90af <safe_div_func_uint64_t_u_u>
    c839:	4c 89 e2             	mov    %r12,%rdx
    c83c:	48 09 c2             	or     %rax,%rdx
    c83f:	0f b7 05 9a d0 00 00 	movzwl 0xd09a(%rip),%eax        # 198e0 <g_1723>
    c846:	48 0f bf c0          	movswq %ax,%rax
    c84a:	48 39 c2             	cmp    %rax,%rdx
    c84d:	0f 95 c0             	setne  %al
    c850:	0f b6 c0             	movzbl %al,%eax
    c853:	89 85 b4 fd ff ff    	mov    %eax,-0x24c(%rbp)
    c859:	c7 85 b4 fd ff ff 0b 	movl   $0xc70b,-0x24c(%rbp)
    c860:	c7 00 00 
    c863:	48 8b 95 e0 fd ff ff 	mov    -0x220(%rbp),%rdx
    c86a:	48 8d 85 fc fc ff ff 	lea    -0x304(%rbp),%rax
    c871:	48 39 c2             	cmp    %rax,%rdx
    c874:	0f 95 c0             	setne  %al
    c877:	0f b6 c0             	movzbl %al,%eax
    c87a:	be bd a7 10 e4       	mov    $0xe410a7bd,%esi
    c87f:	89 c7                	mov    %eax,%edi
    c881:	e8 9f c6 ff ff       	callq  8f25 <safe_div_func_uint32_t_u_u>
    c886:	83 f0 01             	xor    $0x1,%eax
    c889:	89 c0                	mov    %eax,%eax
    c88b:	48 39 c3             	cmp    %rax,%rbx
    c88e:	0f 9f c2             	setg   %dl
    c891:	48 8b 05 78 f8 00 00 	mov    0xf878(%rip),%rax        # 1c110 <g_1725>
    c898:	0f b6 d2             	movzbl %dl,%edx
    c89b:	89 10                	mov    %edx,(%rax)
    c89d:	48 8b 05 f4 e9 00 00 	mov    0xe9f4(%rip),%rax        # 1b298 <g_377>
    c8a4:	48 8b 00             	mov    (%rax),%rax
    c8a7:	c6 00 9e             	movb   $0x9e,(%rax)
    c8aa:	8b 85 24 fd ff ff    	mov    -0x2dc(%rbp),%eax
    c8b0:	98                   	cwtl   
    c8b1:	be 02 00 00 00       	mov    $0x2,%esi
    c8b6:	89 c7                	mov    %eax,%edi
    c8b8:	e8 a6 bc ff ff       	callq  8563 <safe_rshift_func_int16_t_s_u>
    c8bd:	98                   	cwtl   
    c8be:	25 9e 00 00 00       	and    $0x9e,%eax
    c8c3:	89 c2                	mov    %eax,%edx
    c8c5:	8b 85 24 fd ff ff    	mov    -0x2dc(%rbp),%eax
    c8cb:	89 d6                	mov    %edx,%esi
    c8cd:	89 c7                	mov    %eax,%edi
    c8cf:	e8 51 c6 ff ff       	callq  8f25 <safe_div_func_uint32_t_u_u>
    c8d4:	85 c0                	test   %eax,%eax
    c8d6:	0f 84 9b 03 00 00    	je     cc77 <func_17+0x581>
    c8dc:	c7 85 28 fd ff ff 07 	movl   $0xcb6db507,-0x2d8(%rbp)
    c8e3:	b5 6d cb 
    c8e6:	c7 85 2c fd ff ff c5 	movl   $0xdd21cec5,-0x2d4(%rbp)
    c8ed:	ce 21 dd 
    c8f0:	c7 85 30 fd ff ff 01 	movl   $0x1,-0x2d0(%rbp)
    c8f7:	00 00 00 
    c8fa:	48 b8 fc d6 e9 70 47 	movabs $0x3cd00d4770e9d6fc,%rax
    c901:	0d d0 3c 
    c904:	48 89 85 78 fd ff ff 	mov    %rax,-0x288(%rbp)
    c90b:	c7 85 34 fd ff ff a0 	movl   $0xda3daaa0,-0x2cc(%rbp)
    c912:	aa 3d da 
    c915:	48 c7 85 80 fd ff ff 	movq   $0x0,-0x280(%rbp)
    c91c:	00 00 00 00 
    c920:	48 8d 85 38 fd ff ff 	lea    -0x2c8(%rbp),%rax
    c927:	48 89 85 40 fd ff ff 	mov    %rax,-0x2c0(%rbp)
    c92e:	48 8d 85 40 fd ff ff 	lea    -0x2c0(%rbp),%rax
    c935:	48 89 85 48 fd ff ff 	mov    %rax,-0x2b8(%rbp)
    c93c:	48 8d 85 48 fd ff ff 	lea    -0x2b8(%rbp),%rax
    c943:	48 89 85 88 fd ff ff 	mov    %rax,-0x278(%rbp)
    c94a:	48 8d 85 50 fe ff ff 	lea    -0x1b0(%rbp),%rax
    c951:	48 8d 15 28 db 00 00 	lea    0xdb28(%rip),%rdx        # 1a480 <g_2571+0xa60>
    c958:	b9 30 00 00 00       	mov    $0x30,%ecx
    c95d:	48 89 c7             	mov    %rax,%rdi
    c960:	48 89 d6             	mov    %rdx,%rsi
    c963:	f3 48 a5             	rep movsq %ds:(%rsi),%es:(%rdi)
    c966:	48 c7 85 90 fd ff ff 	movq   $0x0,-0x270(%rbp)
    c96d:	00 00 00 00 
    c971:	48 c7 85 98 fd ff ff 	movq   $0x0,-0x268(%rbp)
    c978:	00 00 00 00 
    c97c:	c6 05 96 c8 00 00 00 	movb   $0x0,0xc896(%rip)        # 19219 <g_315>
    c983:	e9 cf 01 00 00       	jmpq   cb57 <func_17+0x461>
    c988:	c6 85 1b fd ff ff 03 	movb   $0x3,-0x2e5(%rbp)
    c98f:	48 8d 85 38 fd ff ff 	lea    -0x2c8(%rbp),%rax
    c996:	48 89 85 a0 fd ff ff 	mov    %rax,-0x260(%rbp)
    c99d:	48 c7 85 00 fe ff ff 	movq   $0x0,-0x200(%rbp)
    c9a4:	00 00 00 00 
    c9a8:	48 8d 05 f9 c9 00 00 	lea    0xc9f9(%rip),%rax        # 193a8 <g_745>
    c9af:	48 89 85 08 fe ff ff 	mov    %rax,-0x1f8(%rbp)
    c9b6:	48 c7 85 10 fe ff ff 	movq   $0x0,-0x1f0(%rbp)
    c9bd:	00 00 00 00 
    c9c1:	48 c7 85 18 fe ff ff 	movq   $0x0,-0x1e8(%rbp)
    c9c8:	00 00 00 00 
    c9cc:	48 8d 05 d5 c9 00 00 	lea    0xc9d5(%rip),%rax        # 193a8 <g_745>
    c9d3:	48 89 85 20 fe ff ff 	mov    %rax,-0x1e0(%rbp)
    c9da:	48 c7 85 28 fe ff ff 	movq   $0x0,-0x1d8(%rbp)
    c9e1:	00 00 00 00 
    c9e5:	48 c7 85 30 fe ff ff 	movq   $0x0,-0x1d0(%rbp)
    c9ec:	00 00 00 00 
    c9f0:	48 8d 05 b1 c9 00 00 	lea    0xc9b1(%rip),%rax        # 193a8 <g_745>
    c9f7:	48 89 85 38 fe ff ff 	mov    %rax,-0x1c8(%rbp)
    c9fe:	48 c7 85 40 fe ff ff 	movq   $0x0,-0x1c0(%rbp)
    ca05:	00 00 00 00 
    ca09:	c7 85 1c fd ff ff 00 	movl   $0x0,-0x2e4(%rbp)
    ca10:	00 00 00 
    ca13:	eb 1a                	jmp    ca2f <func_17+0x339>
    ca15:	8b 85 1c fd ff ff    	mov    -0x2e4(%rbp),%eax
    ca1b:	48 98                	cltq   
    ca1d:	c7 84 85 ac fd ff ff 	movl   $0x1,-0x254(%rbp,%rax,4)
    ca24:	01 00 00 00 
    ca28:	83 85 1c fd ff ff 01 	addl   $0x1,-0x2e4(%rbp)
    ca2f:	83 bd 1c fd ff ff 00 	cmpl   $0x0,-0x2e4(%rbp)
    ca36:	7e dd                	jle    ca15 <func_17+0x31f>
    ca38:	48 8b 05 49 e8 00 00 	mov    0xe849(%rip),%rax        # 1b288 <g_287>
    ca3f:	48 bb 7a 47 a3 43 57 	movabs $0x306eff5743a3477a,%rbx
    ca46:	ff 6e 30 
    ca49:	48 89 18             	mov    %rbx,(%rax)
    ca4c:	c7 85 2c fd ff ff 7a 	movl   $0x43a3477a,-0x2d4(%rbp)
    ca53:	47 a3 43 
    ca56:	8b 85 2c fd ff ff    	mov    -0x2d4(%rbp),%eax
    ca5c:	48 98                	cltq   
    ca5e:	48 89 c6             	mov    %rax,%rsi
    ca61:	48 c7 c7 ff ff ff ff 	mov    $0xffffffffffffffff,%rdi
    ca68:	e8 8a bf ff ff       	callq  89f7 <safe_div_func_int64_t_s_s>
    ca6d:	48 be 6d 77 7d 91 2d 	movabs $0x3563c92d917d776d,%rsi
    ca74:	c9 63 35 
    ca77:	48 bf 72 8c 50 af f8 	movabs $0x3a3f5af8af508c72,%rdi
    ca7e:	5a 3f 3a 
    ca81:	e8 a8 c5 ff ff       	callq  902e <safe_add_func_uint64_t_u_u>
    ca86:	8b 95 28 fd ff ff    	mov    -0x2d8(%rbp),%edx
    ca8c:	48 63 d2             	movslq %edx,%rdx
    ca8f:	48 39 d0             	cmp    %rdx,%rax
    ca92:	8b 85 24 fd ff ff    	mov    -0x2dc(%rbp),%eax
    ca98:	88 05 7c c7 00 00    	mov    %al,0xc77c(%rip)        # 1921a <g_322>
    ca9e:	48 8b 95 38 fd ff ff 	mov    -0x2c8(%rbp),%rdx
    caa5:	48 8b 85 a0 fd ff ff 	mov    -0x260(%rbp),%rax
    caac:	48 89 10             	mov    %rdx,(%rax)
    caaf:	48 8b 85 a0 fd ff ff 	mov    -0x260(%rbp),%rax
    cab6:	48 8b 00             	mov    (%rax),%rax
    cab9:	48 85 c0             	test   %rax,%rax
    cabc:	0f 95 c0             	setne  %al
    cabf:	0f b6 c0             	movzbl %al,%eax
    cac2:	89 85 30 fd ff ff    	mov    %eax,-0x2d0(%rbp)
    cac8:	8b 85 ac fd ff ff    	mov    -0x254(%rbp),%eax
    cace:	0f b6 c0             	movzbl %al,%eax
    cad1:	48 8b 15 c0 ea 00 00 	mov    0xeac0(%rip),%rdx        # 1b598 <g_1617>
    cad8:	48 8b 12             	mov    (%rdx),%rdx
    cadb:	89 c6                	mov    %eax,%esi
    cadd:	bf 00 00 00 00       	mov    $0x0,%edi
    cae2:	e8 c7 c0 ff ff       	callq  8bae <safe_mod_func_uint8_t_u_u>
    cae7:	0f b6 c0             	movzbl %al,%eax
    caea:	be 01 00 00 00       	mov    $0x1,%esi
    caef:	89 c7                	mov    %eax,%edi
    caf1:	e8 9c b9 ff ff       	callq  8492 <safe_lshift_func_int16_t_s_s>
    caf6:	0f bf d0             	movswl %ax,%edx
    caf9:	48 8b 05 80 e7 00 00 	mov    0xe780(%rip),%rax        # 1b280 <g_276>
    cb00:	48 8b 00             	mov    (%rax),%rax
    cb03:	8b 00                	mov    (%rax),%eax
    cb05:	08 85 1b fd ff ff    	or     %al,-0x2e5(%rbp)
    cb0b:	0f b6 85 1b fd ff ff 	movzbl -0x2e5(%rbp),%eax
    cb12:	89 d6                	mov    %edx,%esi
    cb14:	89 c7                	mov    %eax,%edi
    cb16:	e8 e2 c3 ff ff       	callq  8efd <safe_mod_func_uint32_t_u_u>
    cb1b:	89 85 b8 fd ff ff    	mov    %eax,-0x248(%rbp)
    cb21:	48 8b 85 a0 fd ff ff 	mov    -0x260(%rbp),%rax
    cb28:	48 8b 10             	mov    (%rax),%rdx
    cb2b:	48 8b 85 a0 fd ff ff 	mov    -0x260(%rbp),%rax
    cb32:	48 8b 00             	mov    (%rax),%rax
    cb35:	48 8b 12             	mov    (%rdx),%rdx
    cb38:	48 89 10             	mov    %rdx,(%rax)
    cb3b:	0f b6 05 d7 c6 00 00 	movzbl 0xc6d7(%rip),%eax        # 19219 <g_315>
    cb42:	0f b6 c0             	movzbl %al,%eax
    cb45:	be 06 00 00 00       	mov    $0x6,%esi
    cb4a:	89 c7                	mov    %eax,%edi
    cb4c:	e8 62 b8 ff ff       	callq  83b3 <safe_add_func_int16_t_s_s>
    cb51:	88 05 c2 c6 00 00    	mov    %al,0xc6c2(%rip)        # 19219 <g_315>
    cb57:	0f b6 05 bb c6 00 00 	movzbl 0xc6bb(%rip),%eax        # 19219 <g_315>
    cb5e:	3c 2d                	cmp    $0x2d,%al
    cb60:	0f 86 22 fe ff ff    	jbe    c988 <func_17+0x292>
    cb66:	0f b7 85 f8 fc ff ff 	movzwl -0x308(%rbp),%eax
    cb6d:	0f b6 d8             	movzbl %al,%ebx
    cb70:	44 0f b7 a5 00 fd ff 	movzwl -0x300(%rbp),%r12d
    cb77:	ff 
    cb78:	8b 85 bc fd ff ff    	mov    -0x244(%rbp),%eax
    cb7e:	4c 63 e8             	movslq %eax,%r13
    cb81:	4c 0f bf b5 f8 fc ff 	movswq -0x308(%rbp),%r14
    cb88:	ff 
    cb89:	b8 01 00 00 00       	mov    $0x1,%eax
    cb8e:	89 85 04 fd ff ff    	mov    %eax,-0x2fc(%rbp)
    cb94:	be 77 76 00 00       	mov    $0x7677,%esi
    cb99:	bf 01 00 00 00       	mov    $0x1,%edi
    cb9e:	e8 9a c1 ff ff       	callq  8d3d <safe_mul_func_uint16_t_u_u>
    cba3:	48 8b 85 88 fd ff ff 	mov    -0x278(%rbp),%rax
    cbaa:	48 c7 00 00 00 00 00 	movq   $0x0,(%rax)
    cbb1:	48 8b 85 88 fd ff ff 	mov    -0x278(%rbp),%rax
    cbb8:	48 8b 00             	mov    (%rax),%rax
    cbbb:	48 39 85 80 fd ff ff 	cmp    %rax,-0x280(%rbp)
    cbc2:	0f 95 c0             	setne  %al
    cbc5:	0f b6 c0             	movzbl %al,%eax
    cbc8:	be dc 00 00 00       	mov    $0xdc,%esi
    cbcd:	89 c7                	mov    %eax,%edi
    cbcf:	e8 b9 c0 ff ff       	callq  8c8d <safe_rshift_func_uint8_t_u_s>
    cbd4:	84 c0                	test   %al,%al
    cbd6:	74 09                	je     cbe1 <func_17+0x4eb>
    cbd8:	0f b6 85 fc fc ff ff 	movzbl -0x304(%rbp),%eax
    cbdf:	84 c0                	test   %al,%al
    cbe1:	48 8b 05 a0 e6 00 00 	mov    0xe6a0(%rip),%rax        # 1b288 <g_287>
    cbe8:	48 8b 00             	mov    (%rax),%rax
    cbeb:	48 85 c0             	test   %rax,%rax
    cbee:	75 0a                	jne    cbfa <func_17+0x504>
    cbf0:	66 83 bd f8 fc ff ff 	cmpw   $0x0,-0x308(%rbp)
    cbf7:	00 
    cbf8:	74 07                	je     cc01 <func_17+0x50b>
    cbfa:	b8 01 00 00 00       	mov    $0x1,%eax
    cbff:	eb 05                	jmp    cc06 <func_17+0x510>
    cc01:	b8 00 00 00 00       	mov    $0x0,%eax
    cc06:	48 98                	cltq   
    cc08:	4c 89 f6             	mov    %r14,%rsi
    cc0b:	48 89 c7             	mov    %rax,%rdi
    cc0e:	e8 1b c4 ff ff       	callq  902e <safe_add_func_uint64_t_u_u>
    cc13:	4c 89 ee             	mov    %r13,%rsi
    cc16:	48 89 c7             	mov    %rax,%rdi
    cc19:	e8 96 bd ff ff       	callq  89b4 <safe_mod_func_int64_t_s_s>
    cc1e:	48 89 c2             	mov    %rax,%rdx
    cc21:	48 8b 85 78 fd ff ff 	mov    -0x288(%rbp),%rax
    cc28:	48 89 d6             	mov    %rdx,%rsi
    cc2b:	48 89 c7             	mov    %rax,%rdi
    cc2e:	e8 75 bc ff ff       	callq  88a8 <safe_sub_func_int64_t_s_s>
    cc33:	44 89 e6             	mov    %r12d,%esi
    cc36:	bf 00 00 00 00       	mov    $0x0,%edi
    cc3b:	e8 78 c2 ff ff       	callq  8eb8 <safe_add_func_uint32_t_u_u>
    cc40:	85 c0                	test   %eax,%eax
    cc42:	74 10                	je     cc54 <func_17+0x55e>
    cc44:	83 bd 04 fd ff ff 00 	cmpl   $0x0,-0x2fc(%rbp)
    cc4b:	74 07                	je     cc54 <func_17+0x55e>
    cc4d:	b8 01 00 00 00       	mov    $0x1,%eax
    cc52:	eb 05                	jmp    cc59 <func_17+0x563>
    cc54:	b8 00 00 00 00       	mov    $0x0,%eax
    cc59:	0f b6 c0             	movzbl %al,%eax
    cc5c:	89 de                	mov    %ebx,%esi
    cc5e:	89 c7                	mov    %eax,%edi
    cc60:	e8 49 bf ff ff       	callq  8bae <safe_mod_func_uint8_t_u_u>
    cc65:	0f b7 85 00 fd ff ff 	movzwl -0x300(%rbp),%eax
    cc6c:	89 85 2c fd ff ff    	mov    %eax,-0x2d4(%rbp)
    cc72:	e9 1c 01 00 00       	jmpq   cd93 <func_17+0x69d>
    cc77:	48 c7 85 58 fd ff ff 	movq   $0x0,-0x2a8(%rbp)
    cc7e:	00 00 00 00 
    cc82:	c7 85 50 fe ff ff c9 	movl   $0xf64599c9,-0x1b0(%rbp)
    cc89:	99 45 f6 
    cc8c:	c7 85 54 fe ff ff 23 	movl   $0xf4a12323,-0x1ac(%rbp)
    cc93:	23 a1 f4 
    cc96:	c7 85 58 fe ff ff 85 	movl   $0x64d95d85,-0x1a8(%rbp)
    cc9d:	5d d9 64 
    cca0:	c7 85 5c fe ff ff 85 	movl   $0x64d95d85,-0x1a4(%rbp)
    cca7:	5d d9 64 
    ccaa:	c7 85 60 fe ff ff 23 	movl   $0xf4a12323,-0x1a0(%rbp)
    ccb1:	23 a1 f4 
    ccb4:	c7 85 64 fe ff ff c9 	movl   $0xf64599c9,-0x19c(%rbp)
    ccbb:	99 45 f6 
    ccbe:	c7 85 68 fe ff ff 23 	movl   $0xf4a12323,-0x198(%rbp)
    ccc5:	23 a1 f4 
    ccc8:	c7 85 6c fe ff ff 85 	movl   $0x64d95d85,-0x194(%rbp)
    cccf:	5d d9 64 
    ccd2:	c7 85 70 fe ff ff 85 	movl   $0x64d95d85,-0x190(%rbp)
    ccd9:	5d d9 64 
    ccdc:	c7 85 74 fe ff ff 23 	movl   $0xf4a12323,-0x18c(%rbp)
    cce3:	23 a1 f4 
    cce6:	48 8d 85 50 fe ff ff 	lea    -0x1b0(%rbp),%rax
    cced:	48 89 85 60 fd ff ff 	mov    %rax,-0x2a0(%rbp)
    ccf4:	48 c7 85 68 fd ff ff 	movq   $0x0,-0x298(%rbp)
    ccfb:	00 00 00 00 
    ccff:	48 8d 05 0e c4 00 00 	lea    0xc40e(%rip),%rax        # 19114 <g_61>
    cd06:	48 89 85 70 fd ff ff 	mov    %rax,-0x290(%rbp)
    cd0d:	c6 85 1a fd ff ff 19 	movb   $0x19,-0x2e6(%rbp)
    cd14:	c7 85 20 fd ff ff 00 	movl   $0x0,-0x2e0(%rbp)
    cd1b:	00 00 00 
    cd1e:	eb 1e                	jmp    cd3e <func_17+0x648>
    cd20:	8b 85 20 fd ff ff    	mov    -0x2e0(%rbp),%eax
    cd26:	48 98                	cltq   
    cd28:	48 8d 15 ed c3 00 00 	lea    0xc3ed(%rip),%rdx        # 1911c <g_90>
    cd2f:	48 89 94 c5 00 fe ff 	mov    %rdx,-0x200(%rbp,%rax,8)
    cd36:	ff 
    cd37:	83 85 20 fd ff ff 01 	addl   $0x1,-0x2e0(%rbp)
    cd3e:	83 bd 20 fd ff ff 01 	cmpl   $0x1,-0x2e0(%rbp)
    cd45:	7e d9                	jle    cd20 <func_17+0x62a>
    cd47:	80 ad 1a fd ff ff 01 	subb   $0x1,-0x2e6(%rbp)
    cd4e:	48 8b 85 38 fd ff ff 	mov    -0x2c8(%rbp),%rax
    cd55:	48 c7 00 00 00 00 00 	movq   $0x0,(%rax)
    cd5c:	48 8b 95 38 fd ff ff 	mov    -0x2c8(%rbp),%rdx
    cd63:	48 8b 85 38 fd ff ff 	mov    -0x2c8(%rbp),%rax
    cd6a:	48 8b 12             	mov    (%rdx),%rdx
    cd6d:	48 89 10             	mov    %rdx,(%rax)
    cd70:	48 8d 85 50 fe ff ff 	lea    -0x1b0(%rbp),%rax
    cd77:	48 83 c0 24          	add    $0x24,%rax
    cd7b:	48 89 85 70 fd ff ff 	mov    %rax,-0x290(%rbp)
    cd82:	48 8b 85 38 fd ff ff 	mov    -0x2c8(%rbp),%rax
    cd89:	48 8b 95 70 fd ff ff 	mov    -0x290(%rbp),%rdx
    cd90:	48 89 10             	mov    %rdx,(%rax)
    cd93:	48 8b 05 f6 e4 00 00 	mov    0xe4f6(%rip),%rax        # 1b290 <g_378>
    cd9a:	0f b6 00             	movzbl (%rax),%eax
    cd9d:	48 8b 4d d8          	mov    -0x28(%rbp),%rcx
    cda1:	64 48 33 0c 25 28 00 	xor    %fs:0x28,%rcx
    cda8:	00 00 
    cdaa:	74 05                	je     cdb1 <func_17+0x6bb>
    cdac:	e8 bf b2 ff ff       	callq  8070 <__stack_chk_fail@plt>
    cdb1:	48 81 c4 f0 02 00 00 	add    $0x2f0,%rsp
    cdb8:	5b                   	pop    %rbx
    cdb9:	41 5c                	pop    %r12
    cdbb:	41 5d                	pop    %r13
    cdbd:	41 5e                	pop    %r14
    cdbf:	5d                   	pop    %rbp
    cdc0:	c3                   	retq   

000000000000cdc1 <func_25>:
    cdc1:	f3 0f 1e fa          	endbr64 
    cdc5:	55                   	push   %rbp
    cdc6:	48 89 e5             	mov    %rsp,%rbp
    cdc9:	48 83 ec 70          	sub    $0x70,%rsp
    cdcd:	89 f8                	mov    %edi,%eax
    cdcf:	88 45 9c             	mov    %al,-0x64(%rbp)
    cdd2:	64 48 8b 04 25 28 00 	mov    %fs:0x28,%rax
    cdd9:	00 00 
    cddb:	48 89 45 f8          	mov    %rax,-0x8(%rbp)
    cddf:	31 c0                	xor    %eax,%eax
    cde1:	48 c7 45 b0 00 00 00 	movq   $0x0,-0x50(%rbp)
    cde8:	00 
    cde9:	48 c7 45 b8 00 00 00 	movq   $0x0,-0x48(%rbp)
    cdf0:	00 
    cdf1:	48 c7 45 c0 00 00 00 	movq   $0x0,-0x40(%rbp)
    cdf8:	00 
    cdf9:	48 c7 45 c8 00 00 00 	movq   $0x0,-0x38(%rbp)
    ce00:	00 
    ce01:	48 c7 45 d0 00 00 00 	movq   $0x0,-0x30(%rbp)
    ce08:	00 
    ce09:	48 c7 45 d8 00 00 00 	movq   $0x0,-0x28(%rbp)
    ce10:	00 
    ce11:	48 c7 45 e0 00 00 00 	movq   $0x0,-0x20(%rbp)
    ce18:	00 
    ce19:	48 c7 45 e8 00 00 00 	movq   $0x0,-0x18(%rbp)
    ce20:	00 
    ce21:	48 c7 45 f0 00 00 00 	movq   $0x0,-0x10(%rbp)
    ce28:	00 
    ce29:	c7 45 ac 50 42 94 3e 	movl   $0x3e944250,-0x54(%rbp)
    ce30:	48 8b 45 f0          	mov    -0x10(%rbp),%rax
    ce34:	48 89 05 cd f2 00 00 	mov    %rax,0xf2cd(%rip)        # 1c108 <g_1710>
    ce3b:	8b 45 ac             	mov    -0x54(%rbp),%eax
    ce3e:	48 8b 55 f8          	mov    -0x8(%rbp),%rdx
    ce42:	64 48 33 14 25 28 00 	xor    %fs:0x28,%rdx
    ce49:	00 00 
    ce4b:	74 05                	je     ce52 <func_25+0x91>
    ce4d:	e8 1e b2 ff ff       	callq  8070 <__stack_chk_fail@plt>
    ce52:	c9                   	leaveq 
    ce53:	c3                   	retq   

000000000000ce54 <func_30>:
    ce54:	f3 0f 1e fa          	endbr64 
    ce58:	55                   	push   %rbp
    ce59:	48 89 e5             	mov    %rsp,%rbp
    ce5c:	41 57                	push   %r15
    ce5e:	41 56                	push   %r14
    ce60:	41 55                	push   %r13
    ce62:	41 54                	push   %r12
    ce64:	53                   	push   %rbx
    ce65:	48 81 ec 00 10 00 00 	sub    $0x1000,%rsp
    ce6c:	48 83 0c 24 00       	orq    $0x0,(%rsp)
    ce71:	48 81 ec 38 05 00 00 	sub    $0x538,%rsp
    ce78:	89 bd bc ea ff ff    	mov    %edi,-0x1544(%rbp)
    ce7e:	89 b5 b8 ea ff ff    	mov    %esi,-0x1548(%rbp)
    ce84:	89 95 b4 ea ff ff    	mov    %edx,-0x154c(%rbp)
    ce8a:	64 48 8b 04 25 28 00 	mov    %fs:0x28,%rax
    ce91:	00 00 
    ce93:	48 89 45 c8          	mov    %rax,-0x38(%rbp)
    ce97:	31 c0                	xor    %eax,%eax
    ce99:	66 c7 85 c8 ea ff ff 	movw   $0x2c1b,-0x1538(%rbp)
    cea0:	1b 2c 
    cea2:	48 c7 85 80 eb ff ff 	movq   $0x0,-0x1480(%rbp)
    cea9:	00 00 00 00 
    cead:	48 8d 85 20 ee ff ff 	lea    -0x11e0(%rbp),%rax
    ceb4:	48 8d 15 45 d7 00 00 	lea    0xd745(%rip),%rdx        # 1a600 <g_2571+0xbe0>
    cebb:	b9 51 00 00 00       	mov    $0x51,%ecx
    cec0:	48 89 c7             	mov    %rax,%rdi
    cec3:	48 89 d6             	mov    %rdx,%rsi
    cec6:	f3 48 a5             	rep movsq %ds:(%rsi),%es:(%rdi)
    cec9:	c7 85 d0 ea ff ff f6 	movl   $0x289f5f6,-0x1530(%rbp)
    ced0:	f5 89 02 
    ced3:	c7 85 e4 ea ff ff 06 	movl   $0x8aa16606,-0x151c(%rbp)
    ceda:	66 a1 8a 
    cedd:	48 8d 05 8a c5 00 00 	lea    0xc58a(%rip),%rax        # 1946e <g_1315+0x2>
    cee4:	48 89 85 78 eb ff ff 	mov    %rax,-0x1488(%rbp)
    ceeb:	48 8d 05 c6 c4 00 00 	lea    0xc4c6(%rip),%rax        # 193b8 <g_958>
    cef2:	48 89 85 10 eb ff ff 	mov    %rax,-0x14f0(%rbp)
    cef9:	48 8d 85 10 eb ff ff 	lea    -0x14f0(%rbp),%rax
    cf00:	48 89 85 00 ed ff ff 	mov    %rax,-0x1300(%rbp)
    cf07:	48 8d 85 10 eb ff ff 	lea    -0x14f0(%rbp),%rax
    cf0e:	48 89 85 08 ed ff ff 	mov    %rax,-0x12f8(%rbp)
    cf15:	48 c7 85 10 ed ff ff 	movq   $0x0,-0x12f0(%rbp)
    cf1c:	00 00 00 00 
    cf20:	48 8d 85 10 eb ff ff 	lea    -0x14f0(%rbp),%rax
    cf27:	48 89 85 18 ed ff ff 	mov    %rax,-0x12e8(%rbp)
    cf2e:	48 8d 85 10 eb ff ff 	lea    -0x14f0(%rbp),%rax
    cf35:	48 89 85 20 ed ff ff 	mov    %rax,-0x12e0(%rbp)
    cf3c:	48 8d 85 10 eb ff ff 	lea    -0x14f0(%rbp),%rax
    cf43:	48 89 85 28 ed ff ff 	mov    %rax,-0x12d8(%rbp)
    cf4a:	48 8d 85 10 eb ff ff 	lea    -0x14f0(%rbp),%rax
    cf51:	48 89 85 30 ed ff ff 	mov    %rax,-0x12d0(%rbp)
    cf58:	48 8d 85 10 eb ff ff 	lea    -0x14f0(%rbp),%rax
    cf5f:	48 89 85 38 ed ff ff 	mov    %rax,-0x12c8(%rbp)
    cf66:	48 8d 85 10 eb ff ff 	lea    -0x14f0(%rbp),%rax
    cf6d:	48 89 85 40 ed ff ff 	mov    %rax,-0x12c0(%rbp)
    cf74:	48 c7 85 48 ed ff ff 	movq   $0x0,-0x12b8(%rbp)
    cf7b:	00 00 00 00 
    cf7f:	48 c7 85 50 ed ff ff 	movq   $0x0,-0x12b0(%rbp)
    cf86:	00 00 00 00 
    cf8a:	48 8d 85 10 eb ff ff 	lea    -0x14f0(%rbp),%rax
    cf91:	48 89 85 58 ed ff ff 	mov    %rax,-0x12a8(%rbp)
    cf98:	48 8d 85 10 eb ff ff 	lea    -0x14f0(%rbp),%rax
    cf9f:	48 89 85 60 ed ff ff 	mov    %rax,-0x12a0(%rbp)
    cfa6:	48 8d 85 10 eb ff ff 	lea    -0x14f0(%rbp),%rax
    cfad:	48 89 85 68 ed ff ff 	mov    %rax,-0x1298(%rbp)
    cfb4:	48 8d 85 10 eb ff ff 	lea    -0x14f0(%rbp),%rax
    cfbb:	48 89 85 70 ed ff ff 	mov    %rax,-0x1290(%rbp)
    cfc2:	48 8d 85 10 eb ff ff 	lea    -0x14f0(%rbp),%rax
    cfc9:	48 89 85 78 ed ff ff 	mov    %rax,-0x1288(%rbp)
    cfd0:	48 8d 85 10 eb ff ff 	lea    -0x14f0(%rbp),%rax
    cfd7:	48 89 85 80 ed ff ff 	mov    %rax,-0x1280(%rbp)
    cfde:	48 8d 85 10 eb ff ff 	lea    -0x14f0(%rbp),%rax
    cfe5:	48 89 85 88 ed ff ff 	mov    %rax,-0x1278(%rbp)
    cfec:	48 c7 85 90 ed ff ff 	movq   $0x0,-0x1270(%rbp)
    cff3:	00 00 00 00 
    cff7:	48 8d 85 10 eb ff ff 	lea    -0x14f0(%rbp),%rax
    cffe:	48 89 85 98 ed ff ff 	mov    %rax,-0x1268(%rbp)
    d005:	48 8d 85 10 eb ff ff 	lea    -0x14f0(%rbp),%rax
    d00c:	48 89 85 a0 ed ff ff 	mov    %rax,-0x1260(%rbp)
    d013:	48 8d 85 10 eb ff ff 	lea    -0x14f0(%rbp),%rax
    d01a:	48 89 85 a8 ed ff ff 	mov    %rax,-0x1258(%rbp)
    d021:	48 8d 85 10 eb ff ff 	lea    -0x14f0(%rbp),%rax
    d028:	48 89 85 b0 ed ff ff 	mov    %rax,-0x1250(%rbp)
    d02f:	48 8d 85 10 eb ff ff 	lea    -0x14f0(%rbp),%rax
    d036:	48 89 85 b8 ed ff ff 	mov    %rax,-0x1248(%rbp)
    d03d:	48 c7 85 c0 ed ff ff 	movq   $0x0,-0x1240(%rbp)
    d044:	00 00 00 00 
    d048:	48 8d 85 10 eb ff ff 	lea    -0x14f0(%rbp),%rax
    d04f:	48 89 85 c8 ed ff ff 	mov    %rax,-0x1238(%rbp)
    d056:	48 8d 85 10 eb ff ff 	lea    -0x14f0(%rbp),%rax
    d05d:	48 89 85 d0 ed ff ff 	mov    %rax,-0x1230(%rbp)
    d064:	48 8d 85 10 eb ff ff 	lea    -0x14f0(%rbp),%rax
    d06b:	48 89 85 d8 ed ff ff 	mov    %rax,-0x1228(%rbp)
    d072:	48 8d 85 10 eb ff ff 	lea    -0x14f0(%rbp),%rax
    d079:	48 89 85 e0 ed ff ff 	mov    %rax,-0x1220(%rbp)
    d080:	48 8d 85 10 eb ff ff 	lea    -0x14f0(%rbp),%rax
    d087:	48 89 85 e8 ed ff ff 	mov    %rax,-0x1218(%rbp)
    d08e:	48 8d 85 10 eb ff ff 	lea    -0x14f0(%rbp),%rax
    d095:	48 89 85 f0 ed ff ff 	mov    %rax,-0x1210(%rbp)
    d09c:	48 8d 85 10 eb ff ff 	lea    -0x14f0(%rbp),%rax
    d0a3:	48 89 85 f8 ed ff ff 	mov    %rax,-0x1208(%rbp)
    d0aa:	48 c7 85 00 ee ff ff 	movq   $0x0,-0x1200(%rbp)
    d0b1:	00 00 00 00 
    d0b5:	48 c7 85 08 ee ff ff 	movq   $0x0,-0x11f8(%rbp)
    d0bc:	00 00 00 00 
    d0c0:	48 8d 85 10 eb ff ff 	lea    -0x14f0(%rbp),%rax
    d0c7:	48 89 85 10 ee ff ff 	mov    %rax,-0x11f0(%rbp)
    d0ce:	48 8d 85 10 eb ff ff 	lea    -0x14f0(%rbp),%rax
    d0d5:	48 89 85 18 ee ff ff 	mov    %rax,-0x11e8(%rbp)
    d0dc:	48 8d 05 9d e1 00 00 	lea    0xe19d(%rip),%rax        # 1b280 <g_276>
    d0e3:	48 89 85 18 eb ff ff 	mov    %rax,-0x14e8(%rbp)
    d0ea:	48 8d 85 18 eb ff ff 	lea    -0x14e8(%rbp),%rax
    d0f1:	48 89 85 58 eb ff ff 	mov    %rax,-0x14a8(%rbp)
    d0f8:	66 c7 85 c6 ea ff ff 	movw   $0xeea0,-0x153a(%rbp)
    d0ff:	a0 ee 
    d101:	48 8d 05 20 c0 00 00 	lea    0xc020(%rip),%rax        # 19128 <g_103>
    d108:	48 89 85 60 eb ff ff 	mov    %rax,-0x14a0(%rbp)
    d10f:	48 c7 85 68 eb ff ff 	movq   $0x0,-0x1498(%rbp)
    d116:	00 00 00 00 
    d11a:	48 b8 ff 01 ff 01 ff 	movabs $0x1ff01ff01ff01ff,%rax
    d121:	01 ff 01 
    d124:	48 89 45 be          	mov    %rax,-0x42(%rbp)
    d128:	66 c7 45 c6 ff 01    	movw   $0x1ff,-0x3a(%rbp)
    d12e:	48 c7 85 20 eb ff ff 	movq   $0x0,-0x14e0(%rbp)
    d135:	00 00 00 00 
    d139:	48 8d 85 20 eb ff ff 	lea    -0x14e0(%rbp),%rax
    d140:	48 89 85 70 eb ff ff 	mov    %rax,-0x1490(%rbp)
    d147:	c6 85 c5 ea ff ff a8 	movb   $0xa8,-0x153b(%rbp)
    d14e:	c7 85 dc ea ff ff 00 	movl   $0x0,-0x1524(%rbp)
    d155:	00 00 00 
    d158:	c7 85 e0 ea ff ff 8a 	movl   $0x21cbbd8a,-0x1520(%rbp)
    d15f:	bd cb 21 
    d162:	48 8d 05 ef c1 00 00 	lea    0xc1ef(%rip),%rax        # 19358 <g_335>
    d169:	48 89 85 48 eb ff ff 	mov    %rax,-0x14b8(%rbp)
    d170:	48 8d 85 d0 ea ff ff 	lea    -0x1530(%rbp),%rax
    d177:	48 89 85 50 eb ff ff 	mov    %rax,-0x14b0(%rbp)
    d17e:	48 8d 05 d3 c1 00 00 	lea    0xc1d3(%rip),%rax        # 19358 <g_335>
    d185:	48 89 85 50 ec ff ff 	mov    %rax,-0x13b0(%rbp)
    d18c:	48 c7 85 58 ec ff ff 	movq   $0x0,-0x13a8(%rbp)
    d193:	00 00 00 00 
    d197:	48 8d 05 ba c1 00 00 	lea    0xc1ba(%rip),%rax        # 19358 <g_335>
    d19e:	48 89 85 60 ec ff ff 	mov    %rax,-0x13a0(%rbp)
    d1a5:	48 c7 85 68 ec ff ff 	movq   $0x0,-0x1398(%rbp)
    d1ac:	00 00 00 00 
    d1b0:	48 8d 05 a1 c1 00 00 	lea    0xc1a1(%rip),%rax        # 19358 <g_335>
    d1b7:	48 89 85 70 ec ff ff 	mov    %rax,-0x1390(%rbp)
    d1be:	48 c7 85 78 ec ff ff 	movq   $0x0,-0x1388(%rbp)
    d1c5:	00 00 00 00 
    d1c9:	48 8d 05 88 c1 00 00 	lea    0xc188(%rip),%rax        # 19358 <g_335>
    d1d0:	48 89 85 80 ec ff ff 	mov    %rax,-0x1380(%rbp)
    d1d7:	48 c7 85 88 ec ff ff 	movq   $0x0,-0x1378(%rbp)
    d1de:	00 00 00 00 
    d1e2:	48 8d 05 6f c1 00 00 	lea    0xc16f(%rip),%rax        # 19358 <g_335>
    d1e9:	48 89 85 90 ec ff ff 	mov    %rax,-0x1370(%rbp)
    d1f0:	c6 85 c4 ea ff ff 00 	movb   $0x0,-0x153c(%rbp)
    d1f7:	48 c7 85 38 eb ff ff 	movq   $0x1,-0x14c8(%rbp)
    d1fe:	01 00 00 00 
    d202:	48 8d 05 67 c1 00 00 	lea    0xc167(%rip),%rax        # 19370 <g_711>
    d209:	48 89 85 f0 eb ff ff 	mov    %rax,-0x1410(%rbp)
    d210:	48 8d 05 59 c1 00 00 	lea    0xc159(%rip),%rax        # 19370 <g_711>
    d217:	48 89 85 f8 eb ff ff 	mov    %rax,-0x1408(%rbp)
    d21e:	48 8d 05 4b c1 00 00 	lea    0xc14b(%rip),%rax        # 19370 <g_711>
    d225:	48 89 85 00 ec ff ff 	mov    %rax,-0x1400(%rbp)
    d22c:	48 8d 05 3d c1 00 00 	lea    0xc13d(%rip),%rax        # 19370 <g_711>
    d233:	48 89 85 08 ec ff ff 	mov    %rax,-0x13f8(%rbp)
    d23a:	48 8d 85 f0 eb ff ff 	lea    -0x1410(%rbp),%rax
    d241:	48 83 c0 10          	add    $0x10,%rax
    d245:	48 89 85 40 eb ff ff 	mov    %rax,-0x14c0(%rbp)
    d24c:	48 8d 85 b0 f0 ff ff 	lea    -0xf50(%rbp),%rax
    d253:	48 8d 15 46 d6 00 00 	lea    0xd646(%rip),%rdx        # 1a8a0 <g_2571+0xe80>
    d25a:	b9 f0 00 00 00       	mov    $0xf0,%ecx
    d25f:	48 89 c7             	mov    %rax,%rdi
    d262:	48 89 d6             	mov    %rdx,%rsi
    d265:	f3 48 a5             	rep movsq %ds:(%rsi),%es:(%rdi)
    d268:	48 8d 85 b0 f0 ff ff 	lea    -0xf50(%rbp),%rax
    d26f:	48 83 c0 68          	add    $0x68,%rax
    d273:	48 89 85 30 eb ff ff 	mov    %rax,-0x14d0(%rbp)
    d27a:	48 8d 05 47 fe 00 00 	lea    0xfe47(%rip),%rax        # 1d0c8 <g_951>
    d281:	48 89 85 28 eb ff ff 	mov    %rax,-0x14d8(%rbp)
    d288:	c7 85 d8 ea ff ff 00 	movl   $0x0,-0x1528(%rbp)
    d28f:	00 00 00 
    d292:	eb 1a                	jmp    d2ae <func_30+0x45a>
    d294:	8b 85 d8 ea ff ff    	mov    -0x1528(%rbp),%eax
    d29a:	48 98                	cltq   
    d29c:	c7 84 85 ec eb ff ff 	movl   $0x0,-0x1414(%rbp,%rax,4)
    d2a3:	00 00 00 00 
    d2a7:	83 85 d8 ea ff ff 01 	addl   $0x1,-0x1528(%rbp)
    d2ae:	83 bd d8 ea ff ff 00 	cmpl   $0x0,-0x1528(%rbp)
    d2b5:	7e dd                	jle    d294 <func_30+0x440>
    d2b7:	8b 85 b4 ea ff ff    	mov    -0x154c(%rbp),%eax
    d2bd:	0f be d8             	movsbl %al,%ebx
    d2c0:	b8 ff ff ff ff       	mov    $0xffffffff,%eax
    d2c5:	0f b6 c0             	movzbl %al,%eax
    d2c8:	89 85 d0 ea ff ff    	mov    %eax,-0x1530(%rbp)
    d2ce:	8b 85 d0 ea ff ff    	mov    -0x1530(%rbp),%eax
    d2d4:	85 c0                	test   %eax,%eax
    d2d6:	0f 85 eb 00 00 00    	jne    d3c7 <func_30+0x573>
    d2dc:	8b 85 d0 ea ff ff    	mov    -0x1530(%rbp),%eax
    d2e2:	44 0f be e0          	movsbl %al,%r12d
    d2e6:	8b 85 e4 ea ff ff    	mov    -0x151c(%rbp),%eax
    d2ec:	98                   	cwtl   
    d2ed:	be 00 00 00 00       	mov    $0x0,%esi
    d2f2:	89 c7                	mov    %eax,%edi
    d2f4:	e8 fc b0 ff ff       	callq  83f5 <safe_mul_func_int16_t_s_s>
    d2f9:	89 c2                	mov    %eax,%edx
    d2fb:	8b 85 b4 ea ff ff    	mov    -0x154c(%rbp),%eax
    d301:	31 d0                	xor    %edx,%eax
    d303:	0f be c0             	movsbl %al,%eax
    d306:	44 89 e6             	mov    %r12d,%esi
    d309:	89 c7                	mov    %eax,%edi
    d30b:	e8 21 af ff ff       	callq  8231 <safe_mod_func_int8_t_s_s>
    d310:	48 0f be d0          	movsbq %al,%rdx
    d314:	48 83 bd 80 eb ff ff 	cmpq   $0x0,-0x1480(%rbp)
    d31b:	00 
    d31c:	0f 95 c0             	setne  %al
    d31f:	0f b6 c0             	movzbl %al,%eax
    d322:	48 89 d6             	mov    %rdx,%rsi
    d325:	48 89 c7             	mov    %rax,%rdi
    d328:	e8 53 bd ff ff       	callq  9080 <safe_mod_func_uint64_t_u_u>
    d32d:	89 c2                	mov    %eax,%edx
    d32f:	8b 85 d0 ea ff ff    	mov    -0x1530(%rbp),%eax
    d335:	21 d0                	and    %edx,%eax
    d337:	89 c2                	mov    %eax,%edx
    d339:	8b 85 e4 ea ff ff    	mov    -0x151c(%rbp),%eax
    d33f:	89 d6                	mov    %edx,%esi
    d341:	89 c7                	mov    %eax,%edi
    d343:	e8 b7 b3 ff ff       	callq  86ff <safe_div_func_int32_t_s_s>
    d348:	33 85 bc ea ff ff    	xor    -0x1544(%rbp),%eax
    d34e:	89 c2                	mov    %eax,%edx
    d350:	8b 85 b4 ea ff ff    	mov    -0x154c(%rbp),%eax
    d356:	39 c2                	cmp    %eax,%edx
    d358:	0f 96 c0             	setbe  %al
    d35b:	0f b6 c0             	movzbl %al,%eax
    d35e:	be 02 00 00 00       	mov    $0x2,%esi
    d363:	89 c7                	mov    %eax,%edi
    d365:	e8 9c ba ff ff       	callq  8e06 <safe_lshift_func_uint16_t_u_u>
    d36a:	66 85 c0             	test   %ax,%ax
    d36d:	75 0c                	jne    d37b <func_30+0x527>
    d36f:	48 8b 05 b2 c0 00 00 	mov    0xc0b2(%rip),%rax        # 19428 <g_1191>
    d376:	48 85 c0             	test   %rax,%rax
    d379:	74 07                	je     d382 <func_30+0x52e>
    d37b:	ba 01 00 00 00       	mov    $0x1,%edx
    d380:	eb 05                	jmp    d387 <func_30+0x533>
    d382:	ba 00 00 00 00       	mov    $0x0,%edx
    d387:	48 8b 85 78 eb ff ff 	mov    -0x1488(%rbp),%rax
    d38e:	0f b7 00             	movzwl (%rax),%eax
    d391:	89 c1                	mov    %eax,%ecx
    d393:	89 d0                	mov    %edx,%eax
    d395:	09 c8                	or     %ecx,%eax
    d397:	89 c2                	mov    %eax,%edx
    d399:	48 8b 85 78 eb ff ff 	mov    -0x1488(%rbp),%rax
    d3a0:	66 89 10             	mov    %dx,(%rax)
    d3a3:	48 8b 85 78 eb ff ff 	mov    -0x1488(%rbp),%rax
    d3aa:	0f b7 10             	movzwl (%rax),%edx
    d3ad:	0f b7 05 f4 bf 00 00 	movzwl 0xbff4(%rip),%eax        # 193a8 <g_745>
    d3b4:	31 d0                	xor    %edx,%eax
    d3b6:	66 89 05 eb bf 00 00 	mov    %ax,0xbfeb(%rip)        # 193a8 <g_745>
    d3bd:	c7 85 d0 ea ff ff 01 	movl   $0x1,-0x1530(%rbp)
    d3c4:	00 00 00 
    d3c7:	89 de                	mov    %ebx,%esi
    d3c9:	bf 01 00 00 00       	mov    $0x1,%edi
    d3ce:	e8 1f ae ff ff       	callq  81f2 <safe_sub_func_int8_t_s_s>
    d3d3:	66 c7 85 ca ea ff ff 	movw   $0xfffc,-0x1536(%rbp)
    d3da:	fc ff 
    d3dc:	48 8d 05 31 bd 00 00 	lea    0xbd31(%rip),%rax        # 19114 <g_61>
    d3e3:	48 89 85 88 eb ff ff 	mov    %rax,-0x1478(%rbp)
    d3ea:	c7 85 f0 ea ff ff 63 	movl   $0xcca3d463,-0x1510(%rbp)
    d3f1:	d4 a3 cc 
    d3f4:	66 c7 85 cc ea ff ff 	movw   $0xd8f2,-0x1534(%rbp)
    d3fb:	f2 d8 
    d3fd:	c7 85 f4 ea ff ff 06 	movl   $0x6,-0x150c(%rbp)
    d404:	00 00 00 
    d407:	c7 85 d4 ea ff ff a9 	movl   $0x3bfd20a9,-0x152c(%rbp)
    d40e:	20 fd 3b 
    d411:	48 8d 85 d4 ea ff ff 	lea    -0x152c(%rbp),%rax
    d418:	48 89 85 90 eb ff ff 	mov    %rax,-0x1470(%rbp)
    d41f:	48 8d 85 d0 ea ff ff 	lea    -0x1530(%rbp),%rax
    d426:	48 89 85 98 eb ff ff 	mov    %rax,-0x1468(%rbp)
    d42d:	48 8d 85 d0 ea ff ff 	lea    -0x1530(%rbp),%rax
    d434:	48 89 85 a0 eb ff ff 	mov    %rax,-0x1460(%rbp)
    d43b:	48 8d 05 d2 bc 00 00 	lea    0xbcd2(%rip),%rax        # 19114 <g_61>
    d442:	48 89 85 30 f8 ff ff 	mov    %rax,-0x7d0(%rbp)
    d449:	48 8d 85 d4 ea ff ff 	lea    -0x152c(%rbp),%rax
    d450:	48 89 85 38 f8 ff ff 	mov    %rax,-0x7c8(%rbp)
    d457:	48 8d 05 b6 bc 00 00 	lea    0xbcb6(%rip),%rax        # 19114 <g_61>
    d45e:	48 89 85 40 f8 ff ff 	mov    %rax,-0x7c0(%rbp)
    d465:	48 8d 05 a8 bc 00 00 	lea    0xbca8(%rip),%rax        # 19114 <g_61>
    d46c:	48 89 85 48 f8 ff ff 	mov    %rax,-0x7b8(%rbp)
    d473:	48 8d 85 d4 ea ff ff 	lea    -0x152c(%rbp),%rax
    d47a:	48 89 85 50 f8 ff ff 	mov    %rax,-0x7b0(%rbp)
    d481:	48 8d 85 d4 ea ff ff 	lea    -0x152c(%rbp),%rax
    d488:	48 89 85 58 f8 ff ff 	mov    %rax,-0x7a8(%rbp)
    d48f:	48 8d 05 72 bc 00 00 	lea    0xbc72(%rip),%rax        # 19108 <g_4>
    d496:	48 89 85 60 f8 ff ff 	mov    %rax,-0x7a0(%rbp)
    d49d:	48 8d 05 70 bc 00 00 	lea    0xbc70(%rip),%rax        # 19114 <g_61>
    d4a4:	48 89 85 68 f8 ff ff 	mov    %rax,-0x798(%rbp)
    d4ab:	48 8d 05 62 bc 00 00 	lea    0xbc62(%rip),%rax        # 19114 <g_61>
    d4b2:	48 89 85 70 f8 ff ff 	mov    %rax,-0x790(%rbp)
    d4b9:	48 8d 85 d4 ea ff ff 	lea    -0x152c(%rbp),%rax
    d4c0:	48 89 85 78 f8 ff ff 	mov    %rax,-0x788(%rbp)
    d4c7:	48 8d 05 46 bc 00 00 	lea    0xbc46(%rip),%rax        # 19114 <g_61>
    d4ce:	48 89 85 80 f8 ff ff 	mov    %rax,-0x780(%rbp)
    d4d5:	48 8d 05 38 bc 00 00 	lea    0xbc38(%rip),%rax        # 19114 <g_61>
    d4dc:	48 89 85 88 f8 ff ff 	mov    %rax,-0x778(%rbp)
    d4e3:	48 8d 85 d4 ea ff ff 	lea    -0x152c(%rbp),%rax
    d4ea:	48 89 85 90 f8 ff ff 	mov    %rax,-0x770(%rbp)
    d4f1:	48 8d 85 d4 ea ff ff 	lea    -0x152c(%rbp),%rax
    d4f8:	48 89 85 98 f8 ff ff 	mov    %rax,-0x768(%rbp)
    d4ff:	48 8d 05 02 bc 00 00 	lea    0xbc02(%rip),%rax        # 19108 <g_4>
    d506:	48 89 85 a0 f8 ff ff 	mov    %rax,-0x760(%rbp)
    d50d:	48 8d 05 00 bc 00 00 	lea    0xbc00(%rip),%rax        # 19114 <g_61>
    d514:	48 89 85 a8 f8 ff ff 	mov    %rax,-0x758(%rbp)
    d51b:	48 8d 05 f2 bb 00 00 	lea    0xbbf2(%rip),%rax        # 19114 <g_61>
    d522:	48 89 85 b0 f8 ff ff 	mov    %rax,-0x750(%rbp)
    d529:	48 8d 85 d4 ea ff ff 	lea    -0x152c(%rbp),%rax
    d530:	48 89 85 b8 f8 ff ff 	mov    %rax,-0x748(%rbp)
    d537:	48 8d 05 d6 bb 00 00 	lea    0xbbd6(%rip),%rax        # 19114 <g_61>
    d53e:	48 89 85 c0 f8 ff ff 	mov    %rax,-0x740(%rbp)
    d545:	48 8d 05 c8 bb 00 00 	lea    0xbbc8(%rip),%rax        # 19114 <g_61>
    d54c:	48 89 85 c8 f8 ff ff 	mov    %rax,-0x738(%rbp)
    d553:	48 8d 85 d4 ea ff ff 	lea    -0x152c(%rbp),%rax
    d55a:	48 89 85 d0 f8 ff ff 	mov    %rax,-0x730(%rbp)
    d561:	48 8d 85 d4 ea ff ff 	lea    -0x152c(%rbp),%rax
    d568:	48 89 85 d8 f8 ff ff 	mov    %rax,-0x728(%rbp)
    d56f:	48 8d 05 92 bb 00 00 	lea    0xbb92(%rip),%rax        # 19108 <g_4>
    d576:	48 89 85 e0 f8 ff ff 	mov    %rax,-0x720(%rbp)
    d57d:	48 8d 05 90 bb 00 00 	lea    0xbb90(%rip),%rax        # 19114 <g_61>
    d584:	48 89 85 e8 f8 ff ff 	mov    %rax,-0x718(%rbp)
    d58b:	48 8d 05 82 bb 00 00 	lea    0xbb82(%rip),%rax        # 19114 <g_61>
    d592:	48 89 85 f0 f8 ff ff 	mov    %rax,-0x710(%rbp)
    d599:	48 8d 85 d4 ea ff ff 	lea    -0x152c(%rbp),%rax
    d5a0:	48 89 85 f8 f8 ff ff 	mov    %rax,-0x708(%rbp)
    d5a7:	48 8d 05 66 bb 00 00 	lea    0xbb66(%rip),%rax        # 19114 <g_61>
    d5ae:	48 89 85 00 f9 ff ff 	mov    %rax,-0x700(%rbp)
    d5b5:	48 8d 05 58 bb 00 00 	lea    0xbb58(%rip),%rax        # 19114 <g_61>
    d5bc:	48 89 85 08 f9 ff ff 	mov    %rax,-0x6f8(%rbp)
    d5c3:	48 8d 85 d4 ea ff ff 	lea    -0x152c(%rbp),%rax
    d5ca:	48 89 85 10 f9 ff ff 	mov    %rax,-0x6f0(%rbp)
    d5d1:	48 8d 85 d4 ea ff ff 	lea    -0x152c(%rbp),%rax
    d5d8:	48 89 85 18 f9 ff ff 	mov    %rax,-0x6e8(%rbp)
    d5df:	48 8d 05 22 bb 00 00 	lea    0xbb22(%rip),%rax        # 19108 <g_4>
    d5e6:	48 89 85 20 f9 ff ff 	mov    %rax,-0x6e0(%rbp)
    d5ed:	48 8d 05 20 bb 00 00 	lea    0xbb20(%rip),%rax        # 19114 <g_61>
    d5f4:	48 89 85 28 f9 ff ff 	mov    %rax,-0x6d8(%rbp)
    d5fb:	48 8d 05 12 bb 00 00 	lea    0xbb12(%rip),%rax        # 19114 <g_61>
    d602:	48 89 85 30 f9 ff ff 	mov    %rax,-0x6d0(%rbp)
    d609:	48 8d 85 d4 ea ff ff 	lea    -0x152c(%rbp),%rax
    d610:	48 89 85 38 f9 ff ff 	mov    %rax,-0x6c8(%rbp)
    d617:	48 8d 05 f6 ba 00 00 	lea    0xbaf6(%rip),%rax        # 19114 <g_61>
    d61e:	48 89 85 40 f9 ff ff 	mov    %rax,-0x6c0(%rbp)
    d625:	48 8d 05 e8 ba 00 00 	lea    0xbae8(%rip),%rax        # 19114 <g_61>
    d62c:	48 89 85 48 f9 ff ff 	mov    %rax,-0x6b8(%rbp)
    d633:	48 8d 85 d4 ea ff ff 	lea    -0x152c(%rbp),%rax
    d63a:	48 89 85 50 f9 ff ff 	mov    %rax,-0x6b0(%rbp)
    d641:	48 8d 85 d4 ea ff ff 	lea    -0x152c(%rbp),%rax
    d648:	48 89 85 58 f9 ff ff 	mov    %rax,-0x6a8(%rbp)
    d64f:	48 8d 05 b2 ba 00 00 	lea    0xbab2(%rip),%rax        # 19108 <g_4>
    d656:	48 89 85 60 f9 ff ff 	mov    %rax,-0x6a0(%rbp)
    d65d:	48 8d 05 b0 ba 00 00 	lea    0xbab0(%rip),%rax        # 19114 <g_61>
    d664:	48 89 85 68 f9 ff ff 	mov    %rax,-0x698(%rbp)
    d66b:	48 8d 05 a2 ba 00 00 	lea    0xbaa2(%rip),%rax        # 19114 <g_61>
    d672:	48 89 85 70 f9 ff ff 	mov    %rax,-0x690(%rbp)
    d679:	48 8d 85 d4 ea ff ff 	lea    -0x152c(%rbp),%rax
    d680:	48 89 85 78 f9 ff ff 	mov    %rax,-0x688(%rbp)
    d687:	48 8d 05 86 ba 00 00 	lea    0xba86(%rip),%rax        # 19114 <g_61>
    d68e:	48 89 85 80 f9 ff ff 	mov    %rax,-0x680(%rbp)
    d695:	48 8d 05 78 ba 00 00 	lea    0xba78(%rip),%rax        # 19114 <g_61>
    d69c:	48 89 85 88 f9 ff ff 	mov    %rax,-0x678(%rbp)
    d6a3:	48 8d 85 d4 ea ff ff 	lea    -0x152c(%rbp),%rax
    d6aa:	48 89 85 90 f9 ff ff 	mov    %rax,-0x670(%rbp)
    d6b1:	48 8d 85 d4 ea ff ff 	lea    -0x152c(%rbp),%rax
    d6b8:	48 89 85 98 f9 ff ff 	mov    %rax,-0x668(%rbp)
    d6bf:	48 8d 05 42 ba 00 00 	lea    0xba42(%rip),%rax        # 19108 <g_4>
    d6c6:	48 89 85 a0 f9 ff ff 	mov    %rax,-0x660(%rbp)
    d6cd:	48 8d 05 40 ba 00 00 	lea    0xba40(%rip),%rax        # 19114 <g_61>
    d6d4:	48 89 85 a8 f9 ff ff 	mov    %rax,-0x658(%rbp)
    d6db:	48 8d 05 32 ba 00 00 	lea    0xba32(%rip),%rax        # 19114 <g_61>
    d6e2:	48 89 85 b0 f9 ff ff 	mov    %rax,-0x650(%rbp)
    d6e9:	48 8d 85 d4 ea ff ff 	lea    -0x152c(%rbp),%rax
    d6f0:	48 89 85 b8 f9 ff ff 	mov    %rax,-0x648(%rbp)
    d6f7:	48 8d 05 16 ba 00 00 	lea    0xba16(%rip),%rax        # 19114 <g_61>
    d6fe:	48 89 85 c0 f9 ff ff 	mov    %rax,-0x640(%rbp)
    d705:	48 8d 05 08 ba 00 00 	lea    0xba08(%rip),%rax        # 19114 <g_61>
    d70c:	48 89 85 c8 f9 ff ff 	mov    %rax,-0x638(%rbp)
    d713:	48 8d 85 d4 ea ff ff 	lea    -0x152c(%rbp),%rax
    d71a:	48 89 85 d0 f9 ff ff 	mov    %rax,-0x630(%rbp)
    d721:	48 8d 85 d4 ea ff ff 	lea    -0x152c(%rbp),%rax
    d728:	48 89 85 d8 f9 ff ff 	mov    %rax,-0x628(%rbp)
    d72f:	48 8d 05 d2 b9 00 00 	lea    0xb9d2(%rip),%rax        # 19108 <g_4>
    d736:	48 89 85 e0 f9 ff ff 	mov    %rax,-0x620(%rbp)
    d73d:	48 8d 05 d0 b9 00 00 	lea    0xb9d0(%rip),%rax        # 19114 <g_61>
    d744:	48 89 85 e8 f9 ff ff 	mov    %rax,-0x618(%rbp)
    d74b:	48 8d 05 c2 b9 00 00 	lea    0xb9c2(%rip),%rax        # 19114 <g_61>
    d752:	48 89 85 f0 f9 ff ff 	mov    %rax,-0x610(%rbp)
    d759:	48 8d 85 d4 ea ff ff 	lea    -0x152c(%rbp),%rax
    d760:	48 89 85 f8 f9 ff ff 	mov    %rax,-0x608(%rbp)
    d767:	48 8d 05 a6 b9 00 00 	lea    0xb9a6(%rip),%rax        # 19114 <g_61>
    d76e:	48 89 85 00 fa ff ff 	mov    %rax,-0x600(%rbp)
    d775:	48 8d 05 98 b9 00 00 	lea    0xb998(%rip),%rax        # 19114 <g_61>
    d77c:	48 89 85 08 fa ff ff 	mov    %rax,-0x5f8(%rbp)
    d783:	48 8d 85 d4 ea ff ff 	lea    -0x152c(%rbp),%rax
    d78a:	48 89 85 10 fa ff ff 	mov    %rax,-0x5f0(%rbp)
    d791:	48 8d 85 d4 ea ff ff 	lea    -0x152c(%rbp),%rax
    d798:	48 89 85 18 fa ff ff 	mov    %rax,-0x5e8(%rbp)
    d79f:	48 8d 05 62 b9 00 00 	lea    0xb962(%rip),%rax        # 19108 <g_4>
    d7a6:	48 89 85 20 fa ff ff 	mov    %rax,-0x5e0(%rbp)
    d7ad:	48 8d 05 60 b9 00 00 	lea    0xb960(%rip),%rax        # 19114 <g_61>
    d7b4:	48 89 85 28 fa ff ff 	mov    %rax,-0x5d8(%rbp)
    d7bb:	48 8d 05 52 b9 00 00 	lea    0xb952(%rip),%rax        # 19114 <g_61>
    d7c2:	48 89 85 30 fa ff ff 	mov    %rax,-0x5d0(%rbp)
    d7c9:	48 8d 85 d4 ea ff ff 	lea    -0x152c(%rbp),%rax
    d7d0:	48 89 85 38 fa ff ff 	mov    %rax,-0x5c8(%rbp)
    d7d7:	48 8d 05 36 b9 00 00 	lea    0xb936(%rip),%rax        # 19114 <g_61>
    d7de:	48 89 85 40 fa ff ff 	mov    %rax,-0x5c0(%rbp)
    d7e5:	48 8d 05 28 b9 00 00 	lea    0xb928(%rip),%rax        # 19114 <g_61>
    d7ec:	48 89 85 48 fa ff ff 	mov    %rax,-0x5b8(%rbp)
    d7f3:	48 8d 85 d4 ea ff ff 	lea    -0x152c(%rbp),%rax
    d7fa:	48 89 85 50 fa ff ff 	mov    %rax,-0x5b0(%rbp)
    d801:	48 8d 85 d4 ea ff ff 	lea    -0x152c(%rbp),%rax
    d808:	48 89 85 58 fa ff ff 	mov    %rax,-0x5a8(%rbp)
    d80f:	48 8d 05 f2 b8 00 00 	lea    0xb8f2(%rip),%rax        # 19108 <g_4>
    d816:	48 89 85 60 fa ff ff 	mov    %rax,-0x5a0(%rbp)
    d81d:	48 8d 05 f0 b8 00 00 	lea    0xb8f0(%rip),%rax        # 19114 <g_61>
    d824:	48 89 85 68 fa ff ff 	mov    %rax,-0x598(%rbp)
    d82b:	48 8d 05 e2 b8 00 00 	lea    0xb8e2(%rip),%rax        # 19114 <g_61>
    d832:	48 89 85 70 fa ff ff 	mov    %rax,-0x590(%rbp)
    d839:	48 8d 85 d4 ea ff ff 	lea    -0x152c(%rbp),%rax
    d840:	48 89 85 78 fa ff ff 	mov    %rax,-0x588(%rbp)
    d847:	48 8d 05 c6 b8 00 00 	lea    0xb8c6(%rip),%rax        # 19114 <g_61>
    d84e:	48 89 85 80 fa ff ff 	mov    %rax,-0x580(%rbp)
    d855:	48 8d 05 b8 b8 00 00 	lea    0xb8b8(%rip),%rax        # 19114 <g_61>
    d85c:	48 89 85 88 fa ff ff 	mov    %rax,-0x578(%rbp)
    d863:	48 8d 85 d4 ea ff ff 	lea    -0x152c(%rbp),%rax
    d86a:	48 89 85 90 fa ff ff 	mov    %rax,-0x570(%rbp)
    d871:	48 8d 85 d4 ea ff ff 	lea    -0x152c(%rbp),%rax
    d878:	48 89 85 98 fa ff ff 	mov    %rax,-0x568(%rbp)
    d87f:	48 8d 05 82 b8 00 00 	lea    0xb882(%rip),%rax        # 19108 <g_4>
    d886:	48 89 85 a0 fa ff ff 	mov    %rax,-0x560(%rbp)
    d88d:	48 8d 05 80 b8 00 00 	lea    0xb880(%rip),%rax        # 19114 <g_61>
    d894:	48 89 85 a8 fa ff ff 	mov    %rax,-0x558(%rbp)
    d89b:	48 8d 05 72 b8 00 00 	lea    0xb872(%rip),%rax        # 19114 <g_61>
    d8a2:	48 89 85 b0 fa ff ff 	mov    %rax,-0x550(%rbp)
    d8a9:	48 8d 85 d4 ea ff ff 	lea    -0x152c(%rbp),%rax
    d8b0:	48 89 85 b8 fa ff ff 	mov    %rax,-0x548(%rbp)
    d8b7:	48 8d 05 56 b8 00 00 	lea    0xb856(%rip),%rax        # 19114 <g_61>
    d8be:	48 89 85 c0 fa ff ff 	mov    %rax,-0x540(%rbp)
    d8c5:	48 8d 05 48 b8 00 00 	lea    0xb848(%rip),%rax        # 19114 <g_61>
    d8cc:	48 89 85 c8 fa ff ff 	mov    %rax,-0x538(%rbp)
    d8d3:	48 8d 85 d4 ea ff ff 	lea    -0x152c(%rbp),%rax
    d8da:	48 89 85 d0 fa ff ff 	mov    %rax,-0x530(%rbp)
    d8e1:	48 8d 85 d4 ea ff ff 	lea    -0x152c(%rbp),%rax
    d8e8:	48 89 85 d8 fa ff ff 	mov    %rax,-0x528(%rbp)
    d8ef:	48 8d 05 12 b8 00 00 	lea    0xb812(%rip),%rax        # 19108 <g_4>
    d8f6:	48 89 85 e0 fa ff ff 	mov    %rax,-0x520(%rbp)
    d8fd:	48 8d 05 10 b8 00 00 	lea    0xb810(%rip),%rax        # 19114 <g_61>
    d904:	48 89 85 e8 fa ff ff 	mov    %rax,-0x518(%rbp)
    d90b:	48 8d 05 02 b8 00 00 	lea    0xb802(%rip),%rax        # 19114 <g_61>
    d912:	48 89 85 f0 fa ff ff 	mov    %rax,-0x510(%rbp)
    d919:	48 8d 85 d4 ea ff ff 	lea    -0x152c(%rbp),%rax
    d920:	48 89 85 f8 fa ff ff 	mov    %rax,-0x508(%rbp)
    d927:	48 8d 05 e6 b7 00 00 	lea    0xb7e6(%rip),%rax        # 19114 <g_61>
    d92e:	48 89 85 00 fb ff ff 	mov    %rax,-0x500(%rbp)
    d935:	48 8d 05 d8 b7 00 00 	lea    0xb7d8(%rip),%rax        # 19114 <g_61>
    d93c:	48 89 85 08 fb ff ff 	mov    %rax,-0x4f8(%rbp)
    d943:	48 8d 85 d4 ea ff ff 	lea    -0x152c(%rbp),%rax
    d94a:	48 89 85 10 fb ff ff 	mov    %rax,-0x4f0(%rbp)
    d951:	48 8d 85 d4 ea ff ff 	lea    -0x152c(%rbp),%rax
    d958:	48 89 85 18 fb ff ff 	mov    %rax,-0x4e8(%rbp)
    d95f:	48 8d 05 a2 b7 00 00 	lea    0xb7a2(%rip),%rax        # 19108 <g_4>
    d966:	48 89 85 20 fb ff ff 	mov    %rax,-0x4e0(%rbp)
    d96d:	48 8d 05 a0 b7 00 00 	lea    0xb7a0(%rip),%rax        # 19114 <g_61>
    d974:	48 89 85 28 fb ff ff 	mov    %rax,-0x4d8(%rbp)
    d97b:	48 8d 05 92 b7 00 00 	lea    0xb792(%rip),%rax        # 19114 <g_61>
    d982:	48 89 85 30 fb ff ff 	mov    %rax,-0x4d0(%rbp)
    d989:	48 8d 85 d4 ea ff ff 	lea    -0x152c(%rbp),%rax
    d990:	48 89 85 38 fb ff ff 	mov    %rax,-0x4c8(%rbp)
    d997:	48 8d 05 76 b7 00 00 	lea    0xb776(%rip),%rax        # 19114 <g_61>
    d99e:	48 89 85 40 fb ff ff 	mov    %rax,-0x4c0(%rbp)
    d9a5:	48 8d 05 68 b7 00 00 	lea    0xb768(%rip),%rax        # 19114 <g_61>
    d9ac:	48 89 85 48 fb ff ff 	mov    %rax,-0x4b8(%rbp)
    d9b3:	48 8d 85 d4 ea ff ff 	lea    -0x152c(%rbp),%rax
    d9ba:	48 89 85 50 fb ff ff 	mov    %rax,-0x4b0(%rbp)
    d9c1:	48 8d 85 d4 ea ff ff 	lea    -0x152c(%rbp),%rax
    d9c8:	48 89 85 58 fb ff ff 	mov    %rax,-0x4a8(%rbp)
    d9cf:	48 8d 05 32 b7 00 00 	lea    0xb732(%rip),%rax        # 19108 <g_4>
    d9d6:	48 89 85 60 fb ff ff 	mov    %rax,-0x4a0(%rbp)
    d9dd:	48 8d 05 30 b7 00 00 	lea    0xb730(%rip),%rax        # 19114 <g_61>
    d9e4:	48 89 85 68 fb ff ff 	mov    %rax,-0x498(%rbp)
    d9eb:	48 8d 05 22 b7 00 00 	lea    0xb722(%rip),%rax        # 19114 <g_61>
    d9f2:	48 89 85 70 fb ff ff 	mov    %rax,-0x490(%rbp)
    d9f9:	48 8d 85 d4 ea ff ff 	lea    -0x152c(%rbp),%rax
    da00:	48 89 85 78 fb ff ff 	mov    %rax,-0x488(%rbp)
    da07:	48 8d 05 06 b7 00 00 	lea    0xb706(%rip),%rax        # 19114 <g_61>
    da0e:	48 89 85 80 fb ff ff 	mov    %rax,-0x480(%rbp)
    da15:	48 8d 05 f8 b6 00 00 	lea    0xb6f8(%rip),%rax        # 19114 <g_61>
    da1c:	48 89 85 88 fb ff ff 	mov    %rax,-0x478(%rbp)
    da23:	48 8d 85 d4 ea ff ff 	lea    -0x152c(%rbp),%rax
    da2a:	48 89 85 90 fb ff ff 	mov    %rax,-0x470(%rbp)
    da31:	48 8d 85 d4 ea ff ff 	lea    -0x152c(%rbp),%rax
    da38:	48 89 85 98 fb ff ff 	mov    %rax,-0x468(%rbp)
    da3f:	48 8d 05 c2 b6 00 00 	lea    0xb6c2(%rip),%rax        # 19108 <g_4>
    da46:	48 89 85 a0 fb ff ff 	mov    %rax,-0x460(%rbp)
    da4d:	48 8d 05 c0 b6 00 00 	lea    0xb6c0(%rip),%rax        # 19114 <g_61>
    da54:	48 89 85 a8 fb ff ff 	mov    %rax,-0x458(%rbp)
    da5b:	48 8d 05 b2 b6 00 00 	lea    0xb6b2(%rip),%rax        # 19114 <g_61>
    da62:	48 89 85 b0 fb ff ff 	mov    %rax,-0x450(%rbp)
    da69:	48 8d 85 d4 ea ff ff 	lea    -0x152c(%rbp),%rax
    da70:	48 89 85 b8 fb ff ff 	mov    %rax,-0x448(%rbp)
    da77:	48 8d 05 96 b6 00 00 	lea    0xb696(%rip),%rax        # 19114 <g_61>
    da7e:	48 89 85 c0 fb ff ff 	mov    %rax,-0x440(%rbp)
    da85:	48 8d 05 88 b6 00 00 	lea    0xb688(%rip),%rax        # 19114 <g_61>
    da8c:	48 89 85 c8 fb ff ff 	mov    %rax,-0x438(%rbp)
    da93:	48 8d 85 d4 ea ff ff 	lea    -0x152c(%rbp),%rax
    da9a:	48 89 85 d0 fb ff ff 	mov    %rax,-0x430(%rbp)
    daa1:	48 8d 85 d4 ea ff ff 	lea    -0x152c(%rbp),%rax
    daa8:	48 89 85 d8 fb ff ff 	mov    %rax,-0x428(%rbp)
    daaf:	48 8d 05 52 b6 00 00 	lea    0xb652(%rip),%rax        # 19108 <g_4>
    dab6:	48 89 85 e0 fb ff ff 	mov    %rax,-0x420(%rbp)
    dabd:	48 8d 05 50 b6 00 00 	lea    0xb650(%rip),%rax        # 19114 <g_61>
    dac4:	48 89 85 e8 fb ff ff 	mov    %rax,-0x418(%rbp)
    dacb:	48 8d 05 42 b6 00 00 	lea    0xb642(%rip),%rax        # 19114 <g_61>
    dad2:	48 89 85 f0 fb ff ff 	mov    %rax,-0x410(%rbp)
    dad9:	48 8d 85 d4 ea ff ff 	lea    -0x152c(%rbp),%rax
    dae0:	48 89 85 f8 fb ff ff 	mov    %rax,-0x408(%rbp)
    dae7:	48 8d 05 26 b6 00 00 	lea    0xb626(%rip),%rax        # 19114 <g_61>
    daee:	48 89 85 00 fc ff ff 	mov    %rax,-0x400(%rbp)
    daf5:	48 8d 05 18 b6 00 00 	lea    0xb618(%rip),%rax        # 19114 <g_61>
    dafc:	48 89 85 08 fc ff ff 	mov    %rax,-0x3f8(%rbp)
    db03:	48 8d 85 d4 ea ff ff 	lea    -0x152c(%rbp),%rax
    db0a:	48 89 85 10 fc ff ff 	mov    %rax,-0x3f0(%rbp)
    db11:	48 8d 85 d4 ea ff ff 	lea    -0x152c(%rbp),%rax
    db18:	48 89 85 18 fc ff ff 	mov    %rax,-0x3e8(%rbp)
    db1f:	48 8d 05 e2 b5 00 00 	lea    0xb5e2(%rip),%rax        # 19108 <g_4>
    db26:	48 89 85 20 fc ff ff 	mov    %rax,-0x3e0(%rbp)
    db2d:	48 8d 05 e0 b5 00 00 	lea    0xb5e0(%rip),%rax        # 19114 <g_61>
    db34:	48 89 85 28 fc ff ff 	mov    %rax,-0x3d8(%rbp)
    db3b:	48 8d 05 d2 b5 00 00 	lea    0xb5d2(%rip),%rax        # 19114 <g_61>
    db42:	48 89 85 30 fc ff ff 	mov    %rax,-0x3d0(%rbp)
    db49:	48 8d 85 d4 ea ff ff 	lea    -0x152c(%rbp),%rax
    db50:	48 89 85 38 fc ff ff 	mov    %rax,-0x3c8(%rbp)
    db57:	48 8d 05 b6 b5 00 00 	lea    0xb5b6(%rip),%rax        # 19114 <g_61>
    db5e:	48 89 85 40 fc ff ff 	mov    %rax,-0x3c0(%rbp)
    db65:	48 8d 05 a8 b5 00 00 	lea    0xb5a8(%rip),%rax        # 19114 <g_61>
    db6c:	48 89 85 48 fc ff ff 	mov    %rax,-0x3b8(%rbp)
    db73:	48 8d 85 d4 ea ff ff 	lea    -0x152c(%rbp),%rax
    db7a:	48 89 85 50 fc ff ff 	mov    %rax,-0x3b0(%rbp)
    db81:	48 8d 85 d4 ea ff ff 	lea    -0x152c(%rbp),%rax
    db88:	48 89 85 58 fc ff ff 	mov    %rax,-0x3a8(%rbp)
    db8f:	48 8d 05 72 b5 00 00 	lea    0xb572(%rip),%rax        # 19108 <g_4>
    db96:	48 89 85 60 fc ff ff 	mov    %rax,-0x3a0(%rbp)
    db9d:	48 8d 05 70 b5 00 00 	lea    0xb570(%rip),%rax        # 19114 <g_61>
    dba4:	48 89 85 68 fc ff ff 	mov    %rax,-0x398(%rbp)
    dbab:	48 8d 05 62 b5 00 00 	lea    0xb562(%rip),%rax        # 19114 <g_61>
    dbb2:	48 89 85 70 fc ff ff 	mov    %rax,-0x390(%rbp)
    dbb9:	48 8d 85 d4 ea ff ff 	lea    -0x152c(%rbp),%rax
    dbc0:	48 89 85 78 fc ff ff 	mov    %rax,-0x388(%rbp)
    dbc7:	48 8d 05 46 b5 00 00 	lea    0xb546(%rip),%rax        # 19114 <g_61>
    dbce:	48 89 85 80 fc ff ff 	mov    %rax,-0x380(%rbp)
    dbd5:	48 8d 05 38 b5 00 00 	lea    0xb538(%rip),%rax        # 19114 <g_61>
    dbdc:	48 89 85 88 fc ff ff 	mov    %rax,-0x378(%rbp)
    dbe3:	48 8d 85 d4 ea ff ff 	lea    -0x152c(%rbp),%rax
    dbea:	48 89 85 90 fc ff ff 	mov    %rax,-0x370(%rbp)
    dbf1:	48 8d 85 d4 ea ff ff 	lea    -0x152c(%rbp),%rax
    dbf8:	48 89 85 98 fc ff ff 	mov    %rax,-0x368(%rbp)
    dbff:	48 8d 05 02 b5 00 00 	lea    0xb502(%rip),%rax        # 19108 <g_4>
    dc06:	48 89 85 a0 fc ff ff 	mov    %rax,-0x360(%rbp)
    dc0d:	48 8d 05 00 b5 00 00 	lea    0xb500(%rip),%rax        # 19114 <g_61>
    dc14:	48 89 85 a8 fc ff ff 	mov    %rax,-0x358(%rbp)
    dc1b:	48 8d 05 f2 b4 00 00 	lea    0xb4f2(%rip),%rax        # 19114 <g_61>
    dc22:	48 89 85 b0 fc ff ff 	mov    %rax,-0x350(%rbp)
    dc29:	48 8d 85 d4 ea ff ff 	lea    -0x152c(%rbp),%rax
    dc30:	48 89 85 b8 fc ff ff 	mov    %rax,-0x348(%rbp)
    dc37:	48 8d 05 d6 b4 00 00 	lea    0xb4d6(%rip),%rax        # 19114 <g_61>
    dc3e:	48 89 85 c0 fc ff ff 	mov    %rax,-0x340(%rbp)
    dc45:	48 8d 05 c8 b4 00 00 	lea    0xb4c8(%rip),%rax        # 19114 <g_61>
    dc4c:	48 89 85 c8 fc ff ff 	mov    %rax,-0x338(%rbp)
    dc53:	48 8d 85 d4 ea ff ff 	lea    -0x152c(%rbp),%rax
    dc5a:	48 89 85 d0 fc ff ff 	mov    %rax,-0x330(%rbp)
    dc61:	48 8d 85 d4 ea ff ff 	lea    -0x152c(%rbp),%rax
    dc68:	48 89 85 d8 fc ff ff 	mov    %rax,-0x328(%rbp)
    dc6f:	48 8d 05 92 b4 00 00 	lea    0xb492(%rip),%rax        # 19108 <g_4>
    dc76:	48 89 85 e0 fc ff ff 	mov    %rax,-0x320(%rbp)
    dc7d:	48 8d 05 90 b4 00 00 	lea    0xb490(%rip),%rax        # 19114 <g_61>
    dc84:	48 89 85 e8 fc ff ff 	mov    %rax,-0x318(%rbp)
    dc8b:	48 8d 05 82 b4 00 00 	lea    0xb482(%rip),%rax        # 19114 <g_61>
    dc92:	48 89 85 f0 fc ff ff 	mov    %rax,-0x310(%rbp)
    dc99:	48 8d 85 d4 ea ff ff 	lea    -0x152c(%rbp),%rax
    dca0:	48 89 85 f8 fc ff ff 	mov    %rax,-0x308(%rbp)
    dca7:	48 8d 05 66 b4 00 00 	lea    0xb466(%rip),%rax        # 19114 <g_61>
    dcae:	48 89 85 00 fd ff ff 	mov    %rax,-0x300(%rbp)
    dcb5:	48 8d 05 58 b4 00 00 	lea    0xb458(%rip),%rax        # 19114 <g_61>
    dcbc:	48 89 85 08 fd ff ff 	mov    %rax,-0x2f8(%rbp)
    dcc3:	48 8d 85 d4 ea ff ff 	lea    -0x152c(%rbp),%rax
    dcca:	48 89 85 10 fd ff ff 	mov    %rax,-0x2f0(%rbp)
    dcd1:	48 8d 85 d4 ea ff ff 	lea    -0x152c(%rbp),%rax
    dcd8:	48 89 85 18 fd ff ff 	mov    %rax,-0x2e8(%rbp)
    dcdf:	48 8d 05 22 b4 00 00 	lea    0xb422(%rip),%rax        # 19108 <g_4>
    dce6:	48 89 85 20 fd ff ff 	mov    %rax,-0x2e0(%rbp)
    dced:	48 8d 05 20 b4 00 00 	lea    0xb420(%rip),%rax        # 19114 <g_61>
    dcf4:	48 89 85 28 fd ff ff 	mov    %rax,-0x2d8(%rbp)
    dcfb:	48 8d 05 12 b4 00 00 	lea    0xb412(%rip),%rax        # 19114 <g_61>
    dd02:	48 89 85 30 fd ff ff 	mov    %rax,-0x2d0(%rbp)
    dd09:	48 8d 85 d4 ea ff ff 	lea    -0x152c(%rbp),%rax
    dd10:	48 89 85 38 fd ff ff 	mov    %rax,-0x2c8(%rbp)
    dd17:	48 8d 05 f6 b3 00 00 	lea    0xb3f6(%rip),%rax        # 19114 <g_61>
    dd1e:	48 89 85 40 fd ff ff 	mov    %rax,-0x2c0(%rbp)
    dd25:	48 8d 05 e8 b3 00 00 	lea    0xb3e8(%rip),%rax        # 19114 <g_61>
    dd2c:	48 89 85 48 fd ff ff 	mov    %rax,-0x2b8(%rbp)
    dd33:	48 8d 85 d4 ea ff ff 	lea    -0x152c(%rbp),%rax
    dd3a:	48 89 85 50 fd ff ff 	mov    %rax,-0x2b0(%rbp)
    dd41:	48 8d 85 d4 ea ff ff 	lea    -0x152c(%rbp),%rax
    dd48:	48 89 85 58 fd ff ff 	mov    %rax,-0x2a8(%rbp)
    dd4f:	48 8d 05 b2 b3 00 00 	lea    0xb3b2(%rip),%rax        # 19108 <g_4>
    dd56:	48 89 85 60 fd ff ff 	mov    %rax,-0x2a0(%rbp)
    dd5d:	48 8d 05 b0 b3 00 00 	lea    0xb3b0(%rip),%rax        # 19114 <g_61>
    dd64:	48 89 85 68 fd ff ff 	mov    %rax,-0x298(%rbp)
    dd6b:	48 8d 05 a2 b3 00 00 	lea    0xb3a2(%rip),%rax        # 19114 <g_61>
    dd72:	48 89 85 70 fd ff ff 	mov    %rax,-0x290(%rbp)
    dd79:	48 8d 85 d4 ea ff ff 	lea    -0x152c(%rbp),%rax
    dd80:	48 89 85 78 fd ff ff 	mov    %rax,-0x288(%rbp)
    dd87:	48 8d 05 86 b3 00 00 	lea    0xb386(%rip),%rax        # 19114 <g_61>
    dd8e:	48 89 85 80 fd ff ff 	mov    %rax,-0x280(%rbp)
    dd95:	48 8d 05 78 b3 00 00 	lea    0xb378(%rip),%rax        # 19114 <g_61>
    dd9c:	48 89 85 88 fd ff ff 	mov    %rax,-0x278(%rbp)
    dda3:	48 8d 85 d4 ea ff ff 	lea    -0x152c(%rbp),%rax
    ddaa:	48 89 85 90 fd ff ff 	mov    %rax,-0x270(%rbp)
    ddb1:	48 8d 85 d4 ea ff ff 	lea    -0x152c(%rbp),%rax
    ddb8:	48 89 85 98 fd ff ff 	mov    %rax,-0x268(%rbp)
    ddbf:	48 8d 05 42 b3 00 00 	lea    0xb342(%rip),%rax        # 19108 <g_4>
    ddc6:	48 89 85 a0 fd ff ff 	mov    %rax,-0x260(%rbp)
    ddcd:	48 8d 05 40 b3 00 00 	lea    0xb340(%rip),%rax        # 19114 <g_61>
    ddd4:	48 89 85 a8 fd ff ff 	mov    %rax,-0x258(%rbp)
    dddb:	48 8d 05 32 b3 00 00 	lea    0xb332(%rip),%rax        # 19114 <g_61>
    dde2:	48 89 85 b0 fd ff ff 	mov    %rax,-0x250(%rbp)
    dde9:	48 8d 85 d4 ea ff ff 	lea    -0x152c(%rbp),%rax
    ddf0:	48 89 85 b8 fd ff ff 	mov    %rax,-0x248(%rbp)
    ddf7:	48 8d 05 16 b3 00 00 	lea    0xb316(%rip),%rax        # 19114 <g_61>
    ddfe:	48 89 85 c0 fd ff ff 	mov    %rax,-0x240(%rbp)
    de05:	48 8d 05 08 b3 00 00 	lea    0xb308(%rip),%rax        # 19114 <g_61>
    de0c:	48 89 85 c8 fd ff ff 	mov    %rax,-0x238(%rbp)
    de13:	48 8d 85 d4 ea ff ff 	lea    -0x152c(%rbp),%rax
    de1a:	48 89 85 d0 fd ff ff 	mov    %rax,-0x230(%rbp)
    de21:	48 8d 85 d4 ea ff ff 	lea    -0x152c(%rbp),%rax
    de28:	48 89 85 d8 fd ff ff 	mov    %rax,-0x228(%rbp)
    de2f:	48 8d 05 d2 b2 00 00 	lea    0xb2d2(%rip),%rax        # 19108 <g_4>
    de36:	48 89 85 e0 fd ff ff 	mov    %rax,-0x220(%rbp)
    de3d:	48 8d 05 d0 b2 00 00 	lea    0xb2d0(%rip),%rax        # 19114 <g_61>
    de44:	48 89 85 e8 fd ff ff 	mov    %rax,-0x218(%rbp)
    de4b:	48 8d 05 c2 b2 00 00 	lea    0xb2c2(%rip),%rax        # 19114 <g_61>
    de52:	48 89 85 f0 fd ff ff 	mov    %rax,-0x210(%rbp)
    de59:	48 8d 85 d4 ea ff ff 	lea    -0x152c(%rbp),%rax
    de60:	48 89 85 f8 fd ff ff 	mov    %rax,-0x208(%rbp)
    de67:	48 8d 05 a6 b2 00 00 	lea    0xb2a6(%rip),%rax        # 19114 <g_61>
    de6e:	48 89 85 00 fe ff ff 	mov    %rax,-0x200(%rbp)
    de75:	48 8d 05 98 b2 00 00 	lea    0xb298(%rip),%rax        # 19114 <g_61>
    de7c:	48 89 85 08 fe ff ff 	mov    %rax,-0x1f8(%rbp)
    de83:	48 8d 85 d4 ea ff ff 	lea    -0x152c(%rbp),%rax
    de8a:	48 89 85 10 fe ff ff 	mov    %rax,-0x1f0(%rbp)
    de91:	48 8d 85 d4 ea ff ff 	lea    -0x152c(%rbp),%rax
    de98:	48 89 85 18 fe ff ff 	mov    %rax,-0x1e8(%rbp)
    de9f:	48 8d 05 62 b2 00 00 	lea    0xb262(%rip),%rax        # 19108 <g_4>
    dea6:	48 89 85 20 fe ff ff 	mov    %rax,-0x1e0(%rbp)
    dead:	48 8d 05 60 b2 00 00 	lea    0xb260(%rip),%rax        # 19114 <g_61>
    deb4:	48 89 85 28 fe ff ff 	mov    %rax,-0x1d8(%rbp)
    debb:	48 8d 05 52 b2 00 00 	lea    0xb252(%rip),%rax        # 19114 <g_61>
    dec2:	48 89 85 30 fe ff ff 	mov    %rax,-0x1d0(%rbp)
    dec9:	48 8d 85 d4 ea ff ff 	lea    -0x152c(%rbp),%rax
    ded0:	48 89 85 38 fe ff ff 	mov    %rax,-0x1c8(%rbp)
    ded7:	48 8d 05 36 b2 00 00 	lea    0xb236(%rip),%rax        # 19114 <g_61>
    dede:	48 89 85 40 fe ff ff 	mov    %rax,-0x1c0(%rbp)
    dee5:	48 8d 05 28 b2 00 00 	lea    0xb228(%rip),%rax        # 19114 <g_61>
    deec:	48 89 85 48 fe ff ff 	mov    %rax,-0x1b8(%rbp)
    def3:	48 8d 85 d4 ea ff ff 	lea    -0x152c(%rbp),%rax
    defa:	48 89 85 50 fe ff ff 	mov    %rax,-0x1b0(%rbp)
    df01:	48 8d 85 d4 ea ff ff 	lea    -0x152c(%rbp),%rax
    df08:	48 89 85 58 fe ff ff 	mov    %rax,-0x1a8(%rbp)
    df0f:	48 8d 05 f2 b1 00 00 	lea    0xb1f2(%rip),%rax        # 19108 <g_4>
    df16:	48 89 85 60 fe ff ff 	mov    %rax,-0x1a0(%rbp)
    df1d:	48 8d 05 f0 b1 00 00 	lea    0xb1f0(%rip),%rax        # 19114 <g_61>
    df24:	48 89 85 68 fe ff ff 	mov    %rax,-0x198(%rbp)
    df2b:	48 8d 05 e2 b1 00 00 	lea    0xb1e2(%rip),%rax        # 19114 <g_61>
    df32:	48 89 85 70 fe ff ff 	mov    %rax,-0x190(%rbp)
    df39:	48 8d 85 d4 ea ff ff 	lea    -0x152c(%rbp),%rax
    df40:	48 89 85 78 fe ff ff 	mov    %rax,-0x188(%rbp)
    df47:	48 8d 05 c6 b1 00 00 	lea    0xb1c6(%rip),%rax        # 19114 <g_61>
    df4e:	48 89 85 80 fe ff ff 	mov    %rax,-0x180(%rbp)
    df55:	48 8d 05 b8 b1 00 00 	lea    0xb1b8(%rip),%rax        # 19114 <g_61>
    df5c:	48 89 85 88 fe ff ff 	mov    %rax,-0x178(%rbp)
    df63:	48 8d 85 d4 ea ff ff 	lea    -0x152c(%rbp),%rax
    df6a:	48 89 85 90 fe ff ff 	mov    %rax,-0x170(%rbp)
    df71:	48 8d 85 d4 ea ff ff 	lea    -0x152c(%rbp),%rax
    df78:	48 89 85 98 fe ff ff 	mov    %rax,-0x168(%rbp)
    df7f:	48 8d 05 82 b1 00 00 	lea    0xb182(%rip),%rax        # 19108 <g_4>
    df86:	48 89 85 a0 fe ff ff 	mov    %rax,-0x160(%rbp)
    df8d:	48 8d 05 80 b1 00 00 	lea    0xb180(%rip),%rax        # 19114 <g_61>
    df94:	48 89 85 a8 fe ff ff 	mov    %rax,-0x158(%rbp)
    df9b:	48 8d 05 72 b1 00 00 	lea    0xb172(%rip),%rax        # 19114 <g_61>
    dfa2:	48 89 85 b0 fe ff ff 	mov    %rax,-0x150(%rbp)
    dfa9:	48 8d 85 d4 ea ff ff 	lea    -0x152c(%rbp),%rax
    dfb0:	48 89 85 b8 fe ff ff 	mov    %rax,-0x148(%rbp)
    dfb7:	48 8d 05 56 b1 00 00 	lea    0xb156(%rip),%rax        # 19114 <g_61>
    dfbe:	48 89 85 c0 fe ff ff 	mov    %rax,-0x140(%rbp)
    dfc5:	48 8d 05 48 b1 00 00 	lea    0xb148(%rip),%rax        # 19114 <g_61>
    dfcc:	48 89 85 c8 fe ff ff 	mov    %rax,-0x138(%rbp)
    dfd3:	48 8d 85 d4 ea ff ff 	lea    -0x152c(%rbp),%rax
    dfda:	48 89 85 d0 fe ff ff 	mov    %rax,-0x130(%rbp)
    dfe1:	48 8d 85 d4 ea ff ff 	lea    -0x152c(%rbp),%rax
    dfe8:	48 89 85 d8 fe ff ff 	mov    %rax,-0x128(%rbp)
    dfef:	48 8d 05 12 b1 00 00 	lea    0xb112(%rip),%rax        # 19108 <g_4>
    dff6:	48 89 85 e0 fe ff ff 	mov    %rax,-0x120(%rbp)
    dffd:	48 8d 05 10 b1 00 00 	lea    0xb110(%rip),%rax        # 19114 <g_61>
    e004:	48 89 85 e8 fe ff ff 	mov    %rax,-0x118(%rbp)
    e00b:	c7 85 e8 ea ff ff fb 	movl   $0xfffffffb,-0x1518(%rbp)
    e012:	ff ff ff 
    e015:	48 c7 05 08 b1 00 00 	movq   $0x0,0xb108(%rip)        # 19128 <g_103>
    e01c:	00 00 00 00 
    e020:	e9 ec 04 00 00       	jmpq   e511 <func_30+0x16bd>
    e025:	c7 85 f8 ea ff ff 13 	movl   $0x5f7d2413,-0x1508(%rbp)
    e02c:	24 7d 5f 
    e02f:	c7 85 10 ec ff ff 07 	movl   $0x3200f907,-0x13f0(%rbp)
    e036:	f9 00 32 
    e039:	c6 85 14 ec ff ff f9 	movb   $0xf9,-0x13ec(%rbp)
    e040:	c7 85 15 ec ff ff 83 	movl   $0xfff84983,-0x13eb(%rbp)
    e047:	49 f8 ff 
    e04a:	c6 85 19 ec ff ff ff 	movb   $0xff,-0x13e7(%rbp)
    e051:	c7 85 1a ec ff ff 00 	movl   $0x8300,-0x13e6(%rbp)
    e058:	83 00 00 
    e05b:	c6 85 1e ec ff ff ff 	movb   $0xff,-0x13e2(%rbp)
    e062:	c7 85 1f ec ff ff 01 	movl   $0x7390901,-0x13e1(%rbp)
    e069:	09 39 07 
    e06c:	c6 85 23 ec ff ff f9 	movb   $0xf9,-0x13dd(%rbp)
    e073:	c7 85 24 ec ff ff 49 	movl   $0x19c0749,-0x13dc(%rbp)
    e07a:	07 9c 01 
    e07d:	c6 85 28 ec ff ff 83 	movb   $0x83,-0x13d8(%rbp)
    e084:	c7 85 29 ec ff ff 94 	movl   $0xf9398394,-0x13d7(%rbp)
    e08b:	83 39 f9 
    e08e:	c6 85 2d ec ff ff 43 	movb   $0x43,-0x13d3(%rbp)
    e095:	c7 85 2e ec ff ff 07 	movl   $0x7000007,-0x13d2(%rbp)
    e09c:	00 00 07 
    e09f:	c6 85 32 ec ff ff 94 	movb   $0x94,-0x13ce(%rbp)
    e0a6:	c7 85 33 ec ff ff 07 	movl   $0x32f80107,-0x13cd(%rbp)
    e0ad:	01 f8 32 
    e0b0:	c6 85 37 ec ff ff 01 	movb   $0x1,-0x13c9(%rbp)
    e0b7:	c7 85 38 ec ff ff 94 	movl   $0x39004994,-0x13c8(%rbp)
    e0be:	49 00 39 
    e0c1:	c6 85 3c ec ff ff ff 	movb   $0xff,-0x13c4(%rbp)
    e0c8:	c7 85 3d ec ff ff 49 	movl   $0x32009449,-0x13c3(%rbp)
    e0cf:	94 00 32 
    e0d2:	c6 85 41 ec ff ff 39 	movb   $0x39,-0x13bf(%rbp)
    e0d9:	48 8d 05 34 b0 00 00 	lea    0xb034(%rip),%rax        # 19114 <g_61>
    e0e0:	48 89 85 a8 eb ff ff 	mov    %rax,-0x1458(%rbp)
    e0e7:	48 c7 85 b0 eb ff ff 	movq   $0x0,-0x1450(%rbp)
    e0ee:	00 00 00 00 
    e0f2:	c7 85 fc ea ff ff 01 	movl   $0x1,-0x1504(%rbp)
    e0f9:	00 00 00 
    e0fc:	c7 85 00 eb ff ff 6e 	movl   $0x3bcbd36e,-0x1500(%rbp)
    e103:	d3 cb 3b 
    e106:	c7 85 04 eb ff ff ff 	movl   $0xffffffff,-0x14fc(%rbp)
    e10d:	ff ff ff 
    e110:	c7 85 08 eb ff ff 00 	movl   $0x0,-0x14f8(%rbp)
    e117:	00 00 00 
    e11a:	48 8b 05 77 d1 00 00 	mov    0xd177(%rip),%rax        # 1b298 <g_377>
    e121:	48 8b 00             	mov    (%rax),%rax
    e124:	0f b6 10             	movzbl (%rax),%edx
    e127:	83 c2 01             	add    $0x1,%edx
    e12a:	88 10                	mov    %dl,(%rax)
    e12c:	0f b6 85 1e ec ff ff 	movzbl -0x13e2(%rbp),%eax
    e133:	0f be d0             	movsbl %al,%edx
    e136:	8b 85 d0 ea ff ff    	mov    -0x1530(%rbp),%eax
    e13c:	09 d0                	or     %edx,%eax
    e13e:	89 85 d0 ea ff ff    	mov    %eax,-0x1530(%rbp)
    e144:	0f bf 85 ca ea ff ff 	movswl -0x1536(%rbp),%eax
    e14b:	39 85 f8 ea ff ff    	cmp    %eax,-0x1508(%rbp)
    e151:	0f 96 c0             	setbe  %al
    e154:	0f b6 d0             	movzbl %al,%edx
    e157:	48 8b 85 a8 eb ff ff 	mov    -0x1458(%rbp),%rax
    e15e:	89 10                	mov    %edx,(%rax)
    e160:	48 8b 85 a8 eb ff ff 	mov    -0x1458(%rbp),%rax
    e167:	8b 00                	mov    (%rax),%eax
    e169:	85 c0                	test   %eax,%eax
    e16b:	0f 84 d7 02 00 00    	je     e448 <func_30+0x15f4>
    e171:	c7 85 0c eb ff ff d1 	movl   $0x9eb423d1,-0x14f4(%rbp)
    e178:	23 b4 9e 
    e17b:	48 8b 85 68 eb ff ff 	mov    -0x1498(%rbp),%rax
    e182:	48 3b 85 b0 eb ff ff 	cmp    -0x1450(%rbp),%rax
    e189:	0f 94 c0             	sete   %al
    e18c:	0f b6 d0             	movzbl %al,%edx
    e18f:	8b 85 0c eb ff ff    	mov    -0x14f4(%rbp),%eax
    e195:	0f b7 c0             	movzwl %ax,%eax
    e198:	89 d6                	mov    %edx,%esi
    e19a:	89 c7                	mov    %eax,%edi
    e19c:	e8 7e ab ff ff       	callq  8d1f <safe_sub_func_uint16_t_u_u>
    e1a1:	66 85 c0             	test   %ax,%ax
    e1a4:	0f 84 56 02 00 00    	je     e400 <func_30+0x15ac>
    e1aa:	c7 85 a0 ec ff ff 59 	movl   $0xd95de759,-0x1360(%rbp)
    e1b1:	e7 5d d9 
    e1b4:	c7 85 a4 ec ff ff 59 	movl   $0xd95de759,-0x135c(%rbp)
    e1bb:	e7 5d d9 
    e1be:	c7 85 a8 ec ff ff 59 	movl   $0xd95de759,-0x1358(%rbp)
    e1c5:	e7 5d d9 
    e1c8:	c7 85 ac ec ff ff 00 	movl   $0x0,-0x1354(%rbp)
    e1cf:	00 00 00 
    e1d2:	c7 85 b0 ec ff ff 00 	movl   $0x0,-0x1350(%rbp)
    e1d9:	00 00 00 
    e1dc:	c7 85 b4 ec ff ff 00 	movl   $0x0,-0x134c(%rbp)
    e1e3:	00 00 00 
    e1e6:	c7 85 b8 ec ff ff 59 	movl   $0xd95de759,-0x1348(%rbp)
    e1ed:	e7 5d d9 
    e1f0:	c7 85 bc ec ff ff 59 	movl   $0xd95de759,-0x1344(%rbp)
    e1f7:	e7 5d d9 
    e1fa:	c7 85 c0 ec ff ff 59 	movl   $0xd95de759,-0x1340(%rbp)
    e201:	e7 5d d9 
    e204:	c7 85 c4 ec ff ff 00 	movl   $0x0,-0x133c(%rbp)
    e20b:	00 00 00 
    e20e:	c7 85 c8 ec ff ff 00 	movl   $0x0,-0x1338(%rbp)
    e215:	00 00 00 
    e218:	c7 85 cc ec ff ff 00 	movl   $0x0,-0x1334(%rbp)
    e21f:	00 00 00 
    e222:	c7 85 d0 ec ff ff 59 	movl   $0xd95de759,-0x1330(%rbp)
    e229:	e7 5d d9 
    e22c:	c7 85 d4 ec ff ff 59 	movl   $0xd95de759,-0x132c(%rbp)
    e233:	e7 5d d9 
    e236:	c7 85 d8 ec ff ff 59 	movl   $0xd95de759,-0x1328(%rbp)
    e23d:	e7 5d d9 
    e240:	c7 85 dc ec ff ff 00 	movl   $0x0,-0x1324(%rbp)
    e247:	00 00 00 
    e24a:	c7 85 e0 ec ff ff 00 	movl   $0x0,-0x1320(%rbp)
    e251:	00 00 00 
    e254:	c7 85 e4 ec ff ff 00 	movl   $0x0,-0x131c(%rbp)
    e25b:	00 00 00 
    e25e:	c7 85 e8 ec ff ff 59 	movl   $0xd95de759,-0x1318(%rbp)
    e265:	e7 5d d9 
    e268:	c7 85 ec ec ff ff 59 	movl   $0xd95de759,-0x1314(%rbp)
    e26f:	e7 5d d9 
    e272:	c7 85 f0 ec ff ff 59 	movl   $0xd95de759,-0x1310(%rbp)
    e279:	e7 5d d9 
    e27c:	c7 85 f4 ec ff ff 00 	movl   $0x0,-0x130c(%rbp)
    e283:	00 00 00 
    e286:	c7 85 f8 ec ff ff 00 	movl   $0x0,-0x1308(%rbp)
    e28d:	00 00 00 
    e290:	c7 85 fc ec ff ff 00 	movl   $0x0,-0x1304(%rbp)
    e297:	00 00 00 
    e29a:	48 c7 85 e0 eb ff ff 	movq   $0x0,-0x1420(%rbp)
    e2a1:	00 00 00 00 
    e2a5:	8b 85 bc ea ff ff    	mov    -0x1544(%rbp),%eax
    e2ab:	48 63 d8             	movslq %eax,%rbx
    e2ae:	8b 85 b4 ea ff ff    	mov    -0x154c(%rbp),%eax
    e2b4:	0f be d0             	movsbl %al,%edx
    e2b7:	48 8b 05 5a b0 00 00 	mov    0xb05a(%rip),%rax        # 19318 <g_328+0x18>
    e2be:	0f be c0             	movsbl %al,%eax
    e2c1:	89 d6                	mov    %edx,%esi
    e2c3:	89 c7                	mov    %eax,%edi
    e2c5:	e8 28 9f ff ff       	callq  81f2 <safe_sub_func_int8_t_s_s>
    e2ca:	84 c0                	test   %al,%al
    e2cc:	0f 94 c0             	sete   %al
    e2cf:	44 0f b6 e0          	movzbl %al,%r12d
    e2d3:	48 8b 05 be d2 00 00 	mov    0xd2be(%rip),%rax        # 1b598 <g_1617>
    e2da:	48 85 c0             	test   %rax,%rax
    e2dd:	0f 95 c0             	setne  %al
    e2e0:	0f b6 d0             	movzbl %al,%edx
    e2e3:	48 8b 05 96 cf 00 00 	mov    0xcf96(%rip),%rax        # 1b280 <g_276>
    e2ea:	48 8b 00             	mov    (%rax),%rax
    e2ed:	8b 30                	mov    (%rax),%esi
    e2ef:	8b 8d bc ea ff ff    	mov    -0x1544(%rbp),%ecx
    e2f5:	48 8b 05 84 cf 00 00 	mov    0xcf84(%rip),%rax        # 1b280 <g_276>
    e2fc:	48 8b 00             	mov    (%rax),%rax
    e2ff:	31 f1                	xor    %esi,%ecx
    e301:	89 08                	mov    %ecx,(%rax)
    e303:	8b 00                	mov    (%rax),%eax
    e305:	39 c2                	cmp    %eax,%edx
    e307:	0f 95 c0             	setne  %al
    e30a:	0f b6 c0             	movzbl %al,%eax
    e30d:	39 85 bc ea ff ff    	cmp    %eax,-0x1544(%rbp)
    e313:	0f 9c c0             	setl   %al
    e316:	0f b6 c0             	movzbl %al,%eax
    e319:	be 07 00 00 00       	mov    $0x7,%esi
    e31e:	89 c7                	mov    %eax,%edi
    e320:	e8 47 a0 ff ff       	callq  836c <safe_rshift_func_int8_t_s_u>
    e325:	0f be c0             	movsbl %al,%eax
    e328:	41 39 c4             	cmp    %eax,%r12d
    e32b:	0f 9f c0             	setg   %al
    e32e:	0f b6 c0             	movzbl %al,%eax
    e331:	48 89 de             	mov    %rbx,%rsi
    e334:	48 89 c7             	mov    %rax,%rdi
    e337:	e8 05 a5 ff ff       	callq  8841 <safe_add_func_int64_t_s_s>
    e33c:	83 c8 fe             	or     $0xfffffffe,%eax
    e33f:	66 89 05 ea ad 00 00 	mov    %ax,0xadea(%rip)        # 19130 <g_128>
    e346:	48 8b 85 a8 eb ff ff 	mov    -0x1458(%rbp),%rax
    e34d:	c7 00 01 00 00 00    	movl   $0x1,(%rax)
    e353:	48 8b 85 a8 eb ff ff 	mov    -0x1458(%rbp),%rax
    e35a:	8b 00                	mov    (%rax),%eax
    e35c:	89 85 d0 ea ff ff    	mov    %eax,-0x1530(%rbp)
    e362:	c7 05 a8 ae 00 00 0b 	movl   $0xb,0xaea8(%rip)        # 19214 <g_272>
    e369:	00 00 00 
    e36c:	90                   	nop
    e36d:	8b 05 a1 ae 00 00    	mov    0xaea1(%rip),%eax        # 19214 <g_272>
    e373:	83 f8 2a             	cmp    $0x2a,%eax
    e376:	77 40                	ja     e3b8 <func_30+0x1564>
    e378:	66 c7 85 ce ea ff ff 	movw   $0x948b,-0x1532(%rbp)
    e37f:	8b 94 
    e381:	48 8d 85 20 eb ff ff 	lea    -0x14e0(%rbp),%rax
    e388:	48 89 85 e0 eb ff ff 	mov    %rax,-0x1420(%rbp)
    e38f:	48 8b 85 e0 eb ff ff 	mov    -0x1420(%rbp),%rax
    e396:	48 3b 85 70 eb ff ff 	cmp    -0x1490(%rbp),%rax
    e39d:	0f 95 c0             	setne  %al
    e3a0:	0f b6 d0             	movzbl %al,%edx
    e3a3:	48 8b 85 a8 eb ff ff 	mov    -0x1458(%rbp),%rax
    e3aa:	89 10                	mov    %edx,(%rax)
    e3ac:	0f b7 85 ce ea ff ff 	movzwl -0x1532(%rbp),%eax
    e3b3:	e9 33 10 00 00       	jmpq   f3eb <func_30+0x2597>
    e3b8:	c7 05 ae af 00 00 00 	movl   $0x0,0xafae(%rip)        # 19370 <g_711>
    e3bf:	00 00 00 
    e3c2:	90                   	nop
    e3c3:	8b 05 a7 af 00 00    	mov    0xafa7(%rip),%eax        # 19370 <g_711>
    e3c9:	83 f8 39             	cmp    $0x39,%eax
    e3cc:	0f 87 fa 00 00 00    	ja     e4cc <func_30+0x1678>
    e3d2:	48 8d 85 d0 ea ff ff 	lea    -0x1530(%rbp),%rax
    e3d9:	48 89 85 88 eb ff ff 	mov    %rax,-0x1478(%rbp)
    e3e0:	48 8b 05 c9 d1 00 00 	mov    0xd1c9(%rip),%rax        # 1b5b0 <g_1631>
    e3e7:	48 8b 15 f2 ec 00 00 	mov    0xecf2(%rip),%rdx        # 1d0e0 <g_1630>
    e3ee:	48 89 10             	mov    %rdx,(%rax)
    e3f1:	48 8b 05 98 ce 00 00 	mov    0xce98(%rip),%rax        # 1b290 <g_378>
    e3f8:	0f b6 00             	movzbl (%rax),%eax
    e3fb:	e9 eb 0f 00 00       	jmpq   f3eb <func_30+0x2597>
    e400:	66 c7 05 31 ad 00 00 	movw   $0xfffb,0xad31(%rip)        # 1913a <g_159>
    e407:	fb ff 
    e409:	90                   	nop
    e40a:	0f b7 05 29 ad 00 00 	movzwl 0xad29(%rip),%eax        # 1913a <g_159>
    e411:	66 83 f8 13          	cmp    $0x13,%ax
    e415:	74 12                	je     e429 <func_30+0x15d5>
    e417:	48 8b 05 7a ce 00 00 	mov    0xce7a(%rip),%rax        # 1b298 <g_377>
    e41e:	48 8b 00             	mov    (%rax),%rax
    e421:	0f b6 00             	movzbl (%rax),%eax
    e424:	e9 c2 0f 00 00       	jmpq   f3eb <func_30+0x2597>
    e429:	48 8b 85 88 eb ff ff 	mov    -0x1478(%rbp),%rax
    e430:	8b 00                	mov    (%rax),%eax
    e432:	0b 85 b8 ea ff ff    	or     -0x1548(%rbp),%eax
    e438:	89 c2                	mov    %eax,%edx
    e43a:	48 8b 85 88 eb ff ff 	mov    -0x1478(%rbp),%rax
    e441:	89 10                	mov    %edx,(%rax)
    e443:	e9 84 00 00 00       	jmpq   e4cc <func_30+0x1678>
    e448:	48 c7 85 b8 eb ff ff 	movq   $0x0,-0x1448(%rbp)
    e44f:	00 00 00 00 
    e453:	48 c7 85 c0 eb ff ff 	movq   $0x0,-0x1440(%rbp)
    e45a:	00 00 00 00 
    e45e:	48 8d 85 d0 ea ff ff 	lea    -0x1530(%rbp),%rax
    e465:	48 89 85 c8 eb ff ff 	mov    %rax,-0x1438(%rbp)
    e46c:	48 8d 85 d0 ea ff ff 	lea    -0x1530(%rbp),%rax
    e473:	48 89 85 d0 eb ff ff 	mov    %rax,-0x1430(%rbp)
    e47a:	48 8d 05 9b ac 00 00 	lea    0xac9b(%rip),%rax        # 1911c <g_90>
    e481:	48 89 85 d8 eb ff ff 	mov    %rax,-0x1428(%rbp)
    e488:	c7 85 ec ea ff ff 00 	movl   $0x0,-0x1514(%rbp)
    e48f:	00 00 00 
    e492:	eb 1e                	jmp    e4b2 <func_30+0x165e>
    e494:	8b 85 ec ea ff ff    	mov    -0x1514(%rbp),%eax
    e49a:	48 98                	cltq   
    e49c:	48 8d 95 d0 ea ff ff 	lea    -0x1530(%rbp),%rdx
    e4a3:	48 89 94 c5 a0 ec ff 	mov    %rdx,-0x1360(%rbp,%rax,8)
    e4aa:	ff 
    e4ab:	83 85 ec ea ff ff 01 	addl   $0x1,-0x1514(%rbp)
    e4b2:	83 bd ec ea ff ff 05 	cmpl   $0x5,-0x1514(%rbp)
    e4b9:	7e d9                	jle    e494 <func_30+0x1640>
    e4bb:	8b 85 d0 ea ff ff    	mov    -0x1530(%rbp),%eax
    e4c1:	85 c0                	test   %eax,%eax
    e4c3:	75 5e                	jne    e523 <func_30+0x16cf>
    e4c5:	83 ad 08 eb ff ff 01 	subl   $0x1,-0x14f8(%rbp)
    e4cc:	8b 85 b8 ea ff ff    	mov    -0x1548(%rbp),%eax
    e4d2:	89 85 d0 ea ff ff    	mov    %eax,-0x1530(%rbp)
    e4d8:	48 8b 85 a8 eb ff ff 	mov    -0x1458(%rbp),%rax
    e4df:	8b 00                	mov    (%rax),%eax
    e4e1:	85 c0                	test   %eax,%eax
    e4e3:	75 10                	jne    e4f5 <func_30+0x16a1>
    e4e5:	48 8d 85 d0 ea ff ff 	lea    -0x1530(%rbp),%rax
    e4ec:	48 89 85 a8 eb ff ff 	mov    %rax,-0x1458(%rbp)
    e4f3:	eb 01                	jmp    e4f6 <func_30+0x16a2>
    e4f5:	90                   	nop
    e4f6:	48 8b 05 2b ac 00 00 	mov    0xac2b(%rip),%rax        # 19128 <g_103>
    e4fd:	be 01 00 00 00       	mov    $0x1,%esi
    e502:	48 89 c7             	mov    %rax,%rdi
    e505:	e8 37 a3 ff ff       	callq  8841 <safe_add_func_int64_t_s_s>
    e50a:	48 89 05 17 ac 00 00 	mov    %rax,0xac17(%rip)        # 19128 <g_103>
    e511:	48 8b 05 10 ac 00 00 	mov    0xac10(%rip),%rax        # 19128 <g_103>
    e518:	48 83 f8 13          	cmp    $0x13,%rax
    e51c:	0f 8e 03 fb ff ff    	jle    e025 <func_30+0x11d1>
    e522:	90                   	nop
    e523:	83 ad e8 ea ff ff 01 	subl   $0x1,-0x1518(%rbp)
    e52a:	66 c7 85 c6 ea ff ff 	movw   $0x4,-0x153a(%rbp)
    e531:	04 00 
    e533:	eb 33                	jmp    e568 <func_30+0x1714>
    e535:	8b 05 89 b0 00 00    	mov    0xb089(%rip),%eax        # 195c4 <g_1602+0x4>
    e53b:	25 ff ff ff 00       	and    $0xffffff,%eax
    e540:	85 c0                	test   %eax,%eax
    e542:	74 02                	je     e546 <func_30+0x16f2>
    e544:	eb dd                	jmp    e523 <func_30+0x16cf>
    e546:	48 8b 05 63 d0 00 00 	mov    0xd063(%rip),%rax        # 1b5b0 <g_1631>
    e54d:	48 8d 95 d0 ea ff ff 	lea    -0x1530(%rbp),%rdx
    e554:	48 89 10             	mov    %rdx,(%rax)
    e557:	0f b7 85 c6 ea ff ff 	movzwl -0x153a(%rbp),%eax
    e55e:	83 c0 01             	add    $0x1,%eax
    e561:	66 89 85 c6 ea ff ff 	mov    %ax,-0x153a(%rbp)
    e568:	66 83 bd c6 ea ff ff 	cmpw   $0x20,-0x153a(%rbp)
    e56f:	20 
    e570:	77 c3                	ja     e535 <func_30+0x16e1>
    e572:	80 85 c4 ea ff ff 01 	addb   $0x1,-0x153c(%rbp)
    e579:	48 8b 85 48 eb ff ff 	mov    -0x14b8(%rbp),%rax
    e580:	8b 00                	mov    (%rax),%eax
    e582:	48 63 d8             	movslq %eax,%rbx
    e585:	48 8b 85 38 eb ff ff 	mov    -0x14c8(%rbp),%rax
    e58c:	44 0f be e0          	movsbl %al,%r12d
    e590:	48 8b 85 48 eb ff ff 	mov    -0x14b8(%rbp),%rax
    e597:	44 8b 28             	mov    (%rax),%r13d
    e59a:	48 8d 05 bf ae 00 00 	lea    0xaebf(%rip),%rax        # 19460 <g_1307>
    e5a1:	48 89 05 40 eb 00 00 	mov    %rax,0xeb40(%rip)        # 1d0e8 <g_1684>
    e5a8:	48 8b 05 e9 cc 00 00 	mov    0xcce9(%rip),%rax        # 1b298 <g_377>
    e5af:	48 8b 00             	mov    (%rax),%rax
    e5b2:	0f b7 05 65 ae 00 00 	movzwl 0xae65(%rip),%eax        # 1941e <g_1182+0x1e>
    e5b9:	98                   	cwtl   
    e5ba:	0b 85 b8 ea ff ff    	or     -0x1548(%rbp),%eax
    e5c0:	83 f8 08             	cmp    $0x8,%eax
    e5c3:	be b9 7e 00 00       	mov    $0x7eb9,%esi
    e5c8:	bf 01 00 00 00       	mov    $0x1,%edi
    e5cd:	e8 bc a7 ff ff       	callq  8d8e <safe_div_func_uint16_t_u_u>
    e5d2:	0f b7 c0             	movzwl %ax,%eax
    e5d5:	44 89 ee             	mov    %r13d,%esi
    e5d8:	89 c7                	mov    %eax,%edi
    e5da:	e8 20 a1 ff ff       	callq  86ff <safe_div_func_int32_t_s_s>
    e5df:	0f b6 d0             	movzbl %al,%edx
    e5e2:	8b 85 bc ea ff ff    	mov    -0x1544(%rbp),%eax
    e5e8:	0f b6 c0             	movzbl %al,%eax
    e5eb:	89 d6                	mov    %edx,%esi
    e5ed:	89 c7                	mov    %eax,%edi
    e5ef:	e8 9f a5 ff ff       	callq  8b93 <safe_mul_func_uint8_t_u_u>
    e5f4:	0f b7 05 e5 ad 00 00 	movzwl 0xade5(%rip),%eax        # 193e0 <g_986+0x8>
    e5fb:	c1 e0 07             	shl    $0x7,%eax
    e5fe:	66 c1 f8 07          	sar    $0x7,%ax
    e602:	0f be c0             	movsbl %al,%eax
    e605:	44 89 e6             	mov    %r12d,%esi
    e608:	89 c7                	mov    %eax,%edi
    e60a:	e8 22 9c ff ff       	callq  8231 <safe_mod_func_int8_t_s_s>
    e60f:	0f be c0             	movsbl %al,%eax
    e612:	39 85 b8 ea ff ff    	cmp    %eax,-0x1548(%rbp)
    e618:	48 8b 85 40 eb ff ff 	mov    -0x14c0(%rbp),%rax
    e61f:	48 8d 95 b4 ea ff ff 	lea    -0x154c(%rbp),%rdx
    e626:	48 89 10             	mov    %rdx,(%rax)
    e629:	be 00 00 00 00       	mov    $0x0,%esi
    e62e:	bf 01 00 00 00       	mov    $0x1,%edi
    e633:	e8 98 a8 ff ff       	callq  8ed0 <safe_sub_func_uint32_t_u_u>
    e638:	89 c0                	mov    %eax,%eax
    e63a:	48 89 de             	mov    %rbx,%rsi
    e63d:	48 89 c7             	mov    %rax,%rdi
    e640:	e8 e9 a9 ff ff       	callq  902e <safe_add_func_uint64_t_u_u>
    e645:	48 8b 95 50 eb ff ff 	mov    -0x14b0(%rbp),%rdx
    e64c:	8b 12                	mov    (%rdx),%edx
    e64e:	09 d0                	or     %edx,%eax
    e650:	89 c2                	mov    %eax,%edx
    e652:	48 8b 85 50 eb ff ff 	mov    -0x14b0(%rbp),%rax
    e659:	89 10                	mov    %edx,(%rax)
    e65b:	48 8b 85 50 eb ff ff 	mov    -0x14b0(%rbp),%rax
    e662:	44 8b 30             	mov    (%rax),%r14d
    e665:	8b 85 b4 ea ff ff    	mov    -0x154c(%rbp),%eax
    e66b:	89 c0                	mov    %eax,%eax
    e66d:	48 89 85 a8 ea ff ff 	mov    %rax,-0x1558(%rbp)
    e674:	48 8b 95 40 f2 ff ff 	mov    -0xdc0(%rbp),%rdx
    e67b:	48 8b 85 30 eb ff ff 	mov    -0x14d0(%rbp),%rax
    e682:	48 89 10             	mov    %rdx,(%rax)
    e685:	48 8b 85 30 eb ff ff 	mov    -0x14d0(%rbp),%rax
    e68c:	48 8b 10             	mov    (%rax),%rdx
    e68f:	48 8b 05 02 cf 00 00 	mov    0xcf02(%rip),%rax        # 1b598 <g_1617>
    e696:	48 8b 00             	mov    (%rax),%rax
    e699:	48 39 c2             	cmp    %rax,%rdx
    e69c:	0f 95 c0             	setne  %al
    e69f:	44 0f b6 f8          	movzbl %al,%r15d
    e6a3:	8b 95 b4 ea ff ff    	mov    -0x154c(%rbp),%edx
    e6a9:	8b 85 bc ea ff ff    	mov    -0x1544(%rbp),%eax
    e6af:	39 c2                	cmp    %eax,%edx
    e6b1:	0f 93 85 b3 ea ff ff 	setae  -0x154d(%rbp)
    e6b8:	8b 85 b4 ea ff ff    	mov    -0x154c(%rbp),%eax
    e6be:	89 c0                	mov    %eax,%eax
    e6c0:	48 89 c7             	mov    %rax,%rdi
    e6c3:	e8 51 a9 ff ff       	callq  9019 <safe_unary_minus_func_uint64_t_u>
    e6c8:	49 89 c5             	mov    %rax,%r13
    e6cb:	8b 9d b4 ea ff ff    	mov    -0x154c(%rbp),%ebx
    e6d1:	44 8b a5 b4 ea ff ff 	mov    -0x154c(%rbp),%r12d
    e6d8:	8b 85 b4 ea ff ff    	mov    -0x154c(%rbp),%eax
    e6de:	0f be d0             	movsbl %al,%edx
    e6e1:	48 8b 85 48 eb ff ff 	mov    -0x14b8(%rbp),%rax
    e6e8:	8b 00                	mov    (%rax),%eax
    e6ea:	83 f8 06             	cmp    $0x6,%eax
    e6ed:	0f 97 c0             	seta   %al
    e6f0:	89 c1                	mov    %eax,%ecx
    e6f2:	8b 85 b8 ea ff ff    	mov    -0x1548(%rbp),%eax
    e6f8:	31 c8                	xor    %ecx,%eax
    e6fa:	0f be c0             	movsbl %al,%eax
    e6fd:	89 d6                	mov    %edx,%esi
    e6ff:	89 c7                	mov    %eax,%edi
    e701:	e8 64 9b ff ff       	callq  826a <safe_div_func_int8_t_s_s>
    e706:	0f be c0             	movsbl %al,%eax
    e709:	be 0c 00 00 00       	mov    $0xc,%esi
    e70e:	89 c7                	mov    %eax,%edi
    e710:	e8 55 9b ff ff       	callq  826a <safe_div_func_int8_t_s_s>
    e715:	c0 e8 07             	shr    $0x7,%al
    e718:	0f b6 c0             	movzbl %al,%eax
    e71b:	44 89 e6             	mov    %r12d,%esi
    e71e:	89 c7                	mov    %eax,%edi
    e720:	e8 ab a7 ff ff       	callq  8ed0 <safe_sub_func_uint32_t_u_u>
    e725:	98                   	cwtl   
    e726:	89 de                	mov    %ebx,%esi
    e728:	89 c7                	mov    %eax,%edi
    e72a:	e8 b2 9d ff ff       	callq  84e1 <safe_lshift_func_int16_t_s_u>
    e72f:	48 0f bf c0          	movswq %ax,%rax
    e733:	4c 89 ea             	mov    %r13,%rdx
    e736:	48 09 c2             	or     %rax,%rdx
    e739:	48 8b 85 48 eb ff ff 	mov    -0x14b8(%rbp),%rax
    e740:	8b 00                	mov    (%rax),%eax
    e742:	48 98                	cltq   
    e744:	48 39 c2             	cmp    %rax,%rdx
    e747:	0f 97 c0             	seta   %al
    e74a:	0f b6 d0             	movzbl %al,%edx
    e74d:	0f b7 05 76 ae 00 00 	movzwl 0xae76(%rip),%eax        # 195ca <g_1602+0xa>
    e754:	66 c1 e8 06          	shr    $0x6,%ax
    e758:	80 e4 ff             	and    $0xff,%ah
    e75b:	0f b6 c0             	movzbl %al,%eax
    e75e:	39 c2                	cmp    %eax,%edx
    e760:	0f 9d c0             	setge  %al
    e763:	32 85 b3 ea ff ff    	xor    -0x154d(%rbp),%al
    e769:	0f b6 c0             	movzbl %al,%eax
    e76c:	44 31 f8             	xor    %r15d,%eax
    e76f:	48 98                	cltq   
    e771:	48 8b b5 a8 ea ff ff 	mov    -0x1558(%rbp),%rsi
    e778:	48 89 c7             	mov    %rax,%rdi
    e77b:	e8 28 a1 ff ff       	callq  88a8 <safe_sub_func_int64_t_s_s>
    e780:	48 3d 08 91 00 00    	cmp    $0x9108,%rax
    e786:	0f 9e c0             	setle  %al
    e789:	0f b6 c0             	movzbl %al,%eax
    e78c:	41 39 c6             	cmp    %eax,%r14d
    e78f:	0f 84 31 0c 00 00    	je     f3c6 <func_30+0x2572>
    e795:	48 c7 85 30 f8 ff ff 	movq   $0x0,-0x7d0(%rbp)
    e79c:	00 00 00 00 
    e7a0:	48 8d 85 28 eb ff ff 	lea    -0x14d8(%rbp),%rax
    e7a7:	48 89 85 38 f8 ff ff 	mov    %rax,-0x7c8(%rbp)
    e7ae:	48 c7 85 40 f8 ff ff 	movq   $0x0,-0x7c0(%rbp)
    e7b5:	00 00 00 00 
    e7b9:	48 8d 85 28 eb ff ff 	lea    -0x14d8(%rbp),%rax
    e7c0:	48 89 85 48 f8 ff ff 	mov    %rax,-0x7b8(%rbp)
    e7c7:	48 c7 85 50 f8 ff ff 	movq   $0x0,-0x7b0(%rbp)
    e7ce:	00 00 00 00 
    e7d2:	48 c7 85 58 f8 ff ff 	movq   $0x0,-0x7a8(%rbp)
    e7d9:	00 00 00 00 
    e7dd:	48 c7 85 60 f8 ff ff 	movq   $0x0,-0x7a0(%rbp)
    e7e4:	00 00 00 00 
    e7e8:	48 8d 85 28 eb ff ff 	lea    -0x14d8(%rbp),%rax
    e7ef:	48 89 85 68 f8 ff ff 	mov    %rax,-0x798(%rbp)
    e7f6:	48 8d 85 28 eb ff ff 	lea    -0x14d8(%rbp),%rax
    e7fd:	48 89 85 70 f8 ff ff 	mov    %rax,-0x790(%rbp)
    e804:	48 c7 85 78 f8 ff ff 	movq   $0x0,-0x788(%rbp)
    e80b:	00 00 00 00 
    e80f:	48 8d 85 28 eb ff ff 	lea    -0x14d8(%rbp),%rax
    e816:	48 89 85 80 f8 ff ff 	mov    %rax,-0x780(%rbp)
    e81d:	48 c7 85 88 f8 ff ff 	movq   $0x0,-0x778(%rbp)
    e824:	00 00 00 00 
    e828:	48 8d 85 28 eb ff ff 	lea    -0x14d8(%rbp),%rax
    e82f:	48 89 85 90 f8 ff ff 	mov    %rax,-0x770(%rbp)
    e836:	48 8d 85 28 eb ff ff 	lea    -0x14d8(%rbp),%rax
    e83d:	48 89 85 98 f8 ff ff 	mov    %rax,-0x768(%rbp)
    e844:	48 c7 85 a0 f8 ff ff 	movq   $0x0,-0x760(%rbp)
    e84b:	00 00 00 00 
    e84f:	48 8d 85 28 eb ff ff 	lea    -0x14d8(%rbp),%rax
    e856:	48 89 85 a8 f8 ff ff 	mov    %rax,-0x758(%rbp)
    e85d:	48 8d 85 28 eb ff ff 	lea    -0x14d8(%rbp),%rax
    e864:	48 89 85 b0 f8 ff ff 	mov    %rax,-0x750(%rbp)
    e86b:	48 8d 85 28 eb ff ff 	lea    -0x14d8(%rbp),%rax
    e872:	48 89 85 b8 f8 ff ff 	mov    %rax,-0x748(%rbp)
    e879:	48 8d 85 28 eb ff ff 	lea    -0x14d8(%rbp),%rax
    e880:	48 89 85 c0 f8 ff ff 	mov    %rax,-0x740(%rbp)
    e887:	48 8d 85 28 eb ff ff 	lea    -0x14d8(%rbp),%rax
    e88e:	48 89 85 c8 f8 ff ff 	mov    %rax,-0x738(%rbp)
    e895:	48 8d 85 28 eb ff ff 	lea    -0x14d8(%rbp),%rax
    e89c:	48 89 85 d0 f8 ff ff 	mov    %rax,-0x730(%rbp)
    e8a3:	48 8d 85 28 eb ff ff 	lea    -0x14d8(%rbp),%rax
    e8aa:	48 89 85 d8 f8 ff ff 	mov    %rax,-0x728(%rbp)
    e8b1:	48 c7 85 e0 f8 ff ff 	movq   $0x0,-0x720(%rbp)
    e8b8:	00 00 00 00 
    e8bc:	48 c7 85 e8 f8 ff ff 	movq   $0x0,-0x718(%rbp)
    e8c3:	00 00 00 00 
    e8c7:	48 8d 85 28 eb ff ff 	lea    -0x14d8(%rbp),%rax
    e8ce:	48 89 85 f0 f8 ff ff 	mov    %rax,-0x710(%rbp)
    e8d5:	48 8d 85 28 eb ff ff 	lea    -0x14d8(%rbp),%rax
    e8dc:	48 89 85 f8 f8 ff ff 	mov    %rax,-0x708(%rbp)
    e8e3:	48 8d 85 28 eb ff ff 	lea    -0x14d8(%rbp),%rax
    e8ea:	48 89 85 00 f9 ff ff 	mov    %rax,-0x700(%rbp)
    e8f1:	48 c7 85 08 f9 ff ff 	movq   $0x0,-0x6f8(%rbp)
    e8f8:	00 00 00 00 
    e8fc:	48 8d 85 28 eb ff ff 	lea    -0x14d8(%rbp),%rax
    e903:	48 89 85 10 f9 ff ff 	mov    %rax,-0x6f0(%rbp)
    e90a:	48 8d 85 28 eb ff ff 	lea    -0x14d8(%rbp),%rax
    e911:	48 89 85 18 f9 ff ff 	mov    %rax,-0x6e8(%rbp)
    e918:	48 c7 85 20 f9 ff ff 	movq   $0x0,-0x6e0(%rbp)
    e91f:	00 00 00 00 
    e923:	48 8d 85 28 eb ff ff 	lea    -0x14d8(%rbp),%rax
    e92a:	48 89 85 28 f9 ff ff 	mov    %rax,-0x6d8(%rbp)
    e931:	48 c7 85 30 f9 ff ff 	movq   $0x0,-0x6d0(%rbp)
    e938:	00 00 00 00 
    e93c:	48 8d 85 28 eb ff ff 	lea    -0x14d8(%rbp),%rax
    e943:	48 89 85 38 f9 ff ff 	mov    %rax,-0x6c8(%rbp)
    e94a:	48 c7 85 40 f9 ff ff 	movq   $0x0,-0x6c0(%rbp)
    e951:	00 00 00 00 
    e955:	48 c7 85 48 f9 ff ff 	movq   $0x0,-0x6b8(%rbp)
    e95c:	00 00 00 00 
    e960:	48 c7 85 50 f9 ff ff 	movq   $0x0,-0x6b0(%rbp)
    e967:	00 00 00 00 
    e96b:	48 8d 85 28 eb ff ff 	lea    -0x14d8(%rbp),%rax
    e972:	48 89 85 58 f9 ff ff 	mov    %rax,-0x6a8(%rbp)
    e979:	48 8d 85 28 eb ff ff 	lea    -0x14d8(%rbp),%rax
    e980:	48 89 85 60 f9 ff ff 	mov    %rax,-0x6a0(%rbp)
    e987:	48 c7 85 68 f9 ff ff 	movq   $0x0,-0x698(%rbp)
    e98e:	00 00 00 00 
    e992:	48 8d 85 28 eb ff ff 	lea    -0x14d8(%rbp),%rax
    e999:	48 89 85 70 f9 ff ff 	mov    %rax,-0x690(%rbp)
    e9a0:	48 c7 85 78 f9 ff ff 	movq   $0x0,-0x688(%rbp)
    e9a7:	00 00 00 00 
    e9ab:	48 8d 85 28 eb ff ff 	lea    -0x14d8(%rbp),%rax
    e9b2:	48 89 85 80 f9 ff ff 	mov    %rax,-0x680(%rbp)
    e9b9:	48 8d 85 28 eb ff ff 	lea    -0x14d8(%rbp),%rax
    e9c0:	48 89 85 88 f9 ff ff 	mov    %rax,-0x678(%rbp)
    e9c7:	48 c7 85 90 f9 ff ff 	movq   $0x0,-0x670(%rbp)
    e9ce:	00 00 00 00 
    e9d2:	48 8d 85 28 eb ff ff 	lea    -0x14d8(%rbp),%rax
    e9d9:	48 89 85 98 f9 ff ff 	mov    %rax,-0x668(%rbp)
    e9e0:	48 8d 85 28 eb ff ff 	lea    -0x14d8(%rbp),%rax
    e9e7:	48 89 85 a0 f9 ff ff 	mov    %rax,-0x660(%rbp)
    e9ee:	48 8d 85 28 eb ff ff 	lea    -0x14d8(%rbp),%rax
    e9f5:	48 89 85 a8 f9 ff ff 	mov    %rax,-0x658(%rbp)
    e9fc:	48 8d 85 28 eb ff ff 	lea    -0x14d8(%rbp),%rax
    ea03:	48 89 85 b0 f9 ff ff 	mov    %rax,-0x650(%rbp)
    ea0a:	48 8d 85 28 eb ff ff 	lea    -0x14d8(%rbp),%rax
    ea11:	48 89 85 b8 f9 ff ff 	mov    %rax,-0x648(%rbp)
    ea18:	48 8d 85 28 eb ff ff 	lea    -0x14d8(%rbp),%rax
    ea1f:	48 89 85 c0 f9 ff ff 	mov    %rax,-0x640(%rbp)
    ea26:	48 8d 85 28 eb ff ff 	lea    -0x14d8(%rbp),%rax
    ea2d:	48 89 85 c8 f9 ff ff 	mov    %rax,-0x638(%rbp)
    ea34:	48 c7 85 d0 f9 ff ff 	movq   $0x0,-0x630(%rbp)
    ea3b:	00 00 00 00 
    ea3f:	48 c7 85 d8 f9 ff ff 	movq   $0x0,-0x628(%rbp)
    ea46:	00 00 00 00 
    ea4a:	48 8d 85 28 eb ff ff 	lea    -0x14d8(%rbp),%rax
    ea51:	48 89 85 e0 f9 ff ff 	mov    %rax,-0x620(%rbp)
    ea58:	48 8d 85 28 eb ff ff 	lea    -0x14d8(%rbp),%rax
    ea5f:	48 89 85 e8 f9 ff ff 	mov    %rax,-0x618(%rbp)
    ea66:	48 8d 85 28 eb ff ff 	lea    -0x14d8(%rbp),%rax
    ea6d:	48 89 85 f0 f9 ff ff 	mov    %rax,-0x610(%rbp)
    ea74:	48 c7 85 f8 f9 ff ff 	movq   $0x0,-0x608(%rbp)
    ea7b:	00 00 00 00 
    ea7f:	48 8d 85 28 eb ff ff 	lea    -0x14d8(%rbp),%rax
    ea86:	48 89 85 00 fa ff ff 	mov    %rax,-0x600(%rbp)
    ea8d:	48 8d 85 28 eb ff ff 	lea    -0x14d8(%rbp),%rax
    ea94:	48 89 85 08 fa ff ff 	mov    %rax,-0x5f8(%rbp)
    ea9b:	48 c7 85 10 fa ff ff 	movq   $0x0,-0x5f0(%rbp)
    eaa2:	00 00 00 00 
    eaa6:	48 8d 85 28 eb ff ff 	lea    -0x14d8(%rbp),%rax
    eaad:	48 89 85 18 fa ff ff 	mov    %rax,-0x5e8(%rbp)
    eab4:	48 c7 85 20 fa ff ff 	movq   $0x0,-0x5e0(%rbp)
    eabb:	00 00 00 00 
    eabf:	48 8d 85 28 eb ff ff 	lea    -0x14d8(%rbp),%rax
    eac6:	48 89 85 28 fa ff ff 	mov    %rax,-0x5d8(%rbp)
    eacd:	48 c7 85 30 fa ff ff 	movq   $0x0,-0x5d0(%rbp)
    ead4:	00 00 00 00 
    ead8:	48 c7 85 38 fa ff ff 	movq   $0x0,-0x5c8(%rbp)
    eadf:	00 00 00 00 
    eae3:	48 c7 85 40 fa ff ff 	movq   $0x0,-0x5c0(%rbp)
    eaea:	00 00 00 00 
    eaee:	48 8d 85 28 eb ff ff 	lea    -0x14d8(%rbp),%rax
    eaf5:	48 89 85 48 fa ff ff 	mov    %rax,-0x5b8(%rbp)
    eafc:	48 8d 85 28 eb ff ff 	lea    -0x14d8(%rbp),%rax
    eb03:	48 89 85 50 fa ff ff 	mov    %rax,-0x5b0(%rbp)
    eb0a:	48 c7 85 58 fa ff ff 	movq   $0x0,-0x5a8(%rbp)
    eb11:	00 00 00 00 
    eb15:	48 8d 85 28 eb ff ff 	lea    -0x14d8(%rbp),%rax
    eb1c:	48 89 85 60 fa ff ff 	mov    %rax,-0x5a0(%rbp)
    eb23:	48 c7 85 68 fa ff ff 	movq   $0x0,-0x598(%rbp)
    eb2a:	00 00 00 00 
    eb2e:	48 8d 85 28 eb ff ff 	lea    -0x14d8(%rbp),%rax
    eb35:	48 89 85 70 fa ff ff 	mov    %rax,-0x590(%rbp)
    eb3c:	48 8d 85 28 eb ff ff 	lea    -0x14d8(%rbp),%rax
    eb43:	48 89 85 78 fa ff ff 	mov    %rax,-0x588(%rbp)
    eb4a:	48 c7 85 80 fa ff ff 	movq   $0x0,-0x580(%rbp)
    eb51:	00 00 00 00 
    eb55:	48 8d 85 28 eb ff ff 	lea    -0x14d8(%rbp),%rax
    eb5c:	48 89 85 88 fa ff ff 	mov    %rax,-0x578(%rbp)
    eb63:	48 8d 85 28 eb ff ff 	lea    -0x14d8(%rbp),%rax
    eb6a:	48 89 85 90 fa ff ff 	mov    %rax,-0x570(%rbp)
    eb71:	48 8d 85 28 eb ff ff 	lea    -0x14d8(%rbp),%rax
    eb78:	48 89 85 98 fa ff ff 	mov    %rax,-0x568(%rbp)
    eb7f:	48 8d 85 28 eb ff ff 	lea    -0x14d8(%rbp),%rax
    eb86:	48 89 85 a0 fa ff ff 	mov    %rax,-0x560(%rbp)
    eb8d:	48 8d 85 28 eb ff ff 	lea    -0x14d8(%rbp),%rax
    eb94:	48 89 85 a8 fa ff ff 	mov    %rax,-0x558(%rbp)
    eb9b:	48 8d 85 28 eb ff ff 	lea    -0x14d8(%rbp),%rax
    eba2:	48 89 85 b0 fa ff ff 	mov    %rax,-0x550(%rbp)
    eba9:	48 8d 85 28 eb ff ff 	lea    -0x14d8(%rbp),%rax
    ebb0:	48 89 85 b8 fa ff ff 	mov    %rax,-0x548(%rbp)
    ebb7:	48 c7 85 c0 fa ff ff 	movq   $0x0,-0x540(%rbp)
    ebbe:	00 00 00 00 
    ebc2:	48 c7 85 c8 fa ff ff 	movq   $0x0,-0x538(%rbp)
    ebc9:	00 00 00 00 
    ebcd:	48 8d 85 28 eb ff ff 	lea    -0x14d8(%rbp),%rax
    ebd4:	48 89 85 d0 fa ff ff 	mov    %rax,-0x530(%rbp)
    ebdb:	48 8d 85 28 eb ff ff 	lea    -0x14d8(%rbp),%rax
    ebe2:	48 89 85 d8 fa ff ff 	mov    %rax,-0x528(%rbp)
    ebe9:	48 8d 85 28 eb ff ff 	lea    -0x14d8(%rbp),%rax
    ebf0:	48 89 85 e0 fa ff ff 	mov    %rax,-0x520(%rbp)
    ebf7:	48 c7 85 e8 fa ff ff 	movq   $0x0,-0x518(%rbp)
    ebfe:	00 00 00 00 
    ec02:	48 8d 85 28 eb ff ff 	lea    -0x14d8(%rbp),%rax
    ec09:	48 89 85 f0 fa ff ff 	mov    %rax,-0x510(%rbp)
    ec10:	48 8d 85 28 eb ff ff 	lea    -0x14d8(%rbp),%rax
    ec17:	48 89 85 f8 fa ff ff 	mov    %rax,-0x508(%rbp)
    ec1e:	48 c7 85 00 fb ff ff 	movq   $0x0,-0x500(%rbp)
    ec25:	00 00 00 00 
    ec29:	48 8d 85 28 eb ff ff 	lea    -0x14d8(%rbp),%rax
    ec30:	48 89 85 08 fb ff ff 	mov    %rax,-0x4f8(%rbp)
    ec37:	48 c7 85 10 fb ff ff 	movq   $0x0,-0x4f0(%rbp)
    ec3e:	00 00 00 00 
    ec42:	48 8d 85 28 eb ff ff 	lea    -0x14d8(%rbp),%rax
    ec49:	48 89 85 18 fb ff ff 	mov    %rax,-0x4e8(%rbp)
    ec50:	48 c7 85 20 fb ff ff 	movq   $0x0,-0x4e0(%rbp)
    ec57:	00 00 00 00 
    ec5b:	48 c7 85 28 fb ff ff 	movq   $0x0,-0x4d8(%rbp)
    ec62:	00 00 00 00 
    ec66:	48 c7 85 30 fb ff ff 	movq   $0x0,-0x4d0(%rbp)
    ec6d:	00 00 00 00 
    ec71:	48 8d 85 28 eb ff ff 	lea    -0x14d8(%rbp),%rax
    ec78:	48 89 85 38 fb ff ff 	mov    %rax,-0x4c8(%rbp)
    ec7f:	48 8d 85 28 eb ff ff 	lea    -0x14d8(%rbp),%rax
    ec86:	48 89 85 40 fb ff ff 	mov    %rax,-0x4c0(%rbp)
    ec8d:	48 c7 85 48 fb ff ff 	movq   $0x0,-0x4b8(%rbp)
    ec94:	00 00 00 00 
    ec98:	48 8d 85 28 eb ff ff 	lea    -0x14d8(%rbp),%rax
    ec9f:	48 89 85 50 fb ff ff 	mov    %rax,-0x4b0(%rbp)
    eca6:	48 c7 85 58 fb ff ff 	movq   $0x0,-0x4a8(%rbp)
    ecad:	00 00 00 00 
    ecb1:	48 8d 85 28 eb ff ff 	lea    -0x14d8(%rbp),%rax
    ecb8:	48 89 85 60 fb ff ff 	mov    %rax,-0x4a0(%rbp)
    ecbf:	48 8d 85 28 eb ff ff 	lea    -0x14d8(%rbp),%rax
    ecc6:	48 89 85 68 fb ff ff 	mov    %rax,-0x498(%rbp)
    eccd:	48 c7 85 70 fb ff ff 	movq   $0x0,-0x490(%rbp)
    ecd4:	00 00 00 00 
    ecd8:	48 8d 85 28 eb ff ff 	lea    -0x14d8(%rbp),%rax
    ecdf:	48 89 85 78 fb ff ff 	mov    %rax,-0x488(%rbp)
    ece6:	48 8d 85 28 eb ff ff 	lea    -0x14d8(%rbp),%rax
    eced:	48 89 85 80 fb ff ff 	mov    %rax,-0x480(%rbp)
    ecf4:	48 8d 85 28 eb ff ff 	lea    -0x14d8(%rbp),%rax
    ecfb:	48 89 85 88 fb ff ff 	mov    %rax,-0x478(%rbp)
    ed02:	48 8d 85 28 eb ff ff 	lea    -0x14d8(%rbp),%rax
    ed09:	48 89 85 90 fb ff ff 	mov    %rax,-0x470(%rbp)
    ed10:	48 8d 85 28 eb ff ff 	lea    -0x14d8(%rbp),%rax
    ed17:	48 89 85 98 fb ff ff 	mov    %rax,-0x468(%rbp)
    ed1e:	48 8d 85 28 eb ff ff 	lea    -0x14d8(%rbp),%rax
    ed25:	48 89 85 a0 fb ff ff 	mov    %rax,-0x460(%rbp)
    ed2c:	48 8d 85 28 eb ff ff 	lea    -0x14d8(%rbp),%rax
    ed33:	48 89 85 a8 fb ff ff 	mov    %rax,-0x458(%rbp)
    ed3a:	48 c7 85 b0 fb ff ff 	movq   $0x0,-0x450(%rbp)
    ed41:	00 00 00 00 
    ed45:	48 c7 85 b8 fb ff ff 	movq   $0x0,-0x448(%rbp)
    ed4c:	00 00 00 00 
    ed50:	48 8d 85 28 eb ff ff 	lea    -0x14d8(%rbp),%rax
    ed57:	48 89 85 c0 fb ff ff 	mov    %rax,-0x440(%rbp)
    ed5e:	48 8d 85 28 eb ff ff 	lea    -0x14d8(%rbp),%rax
    ed65:	48 89 85 c8 fb ff ff 	mov    %rax,-0x438(%rbp)
    ed6c:	48 8d 85 28 eb ff ff 	lea    -0x14d8(%rbp),%rax
    ed73:	48 89 85 d0 fb ff ff 	mov    %rax,-0x430(%rbp)
    ed7a:	48 c7 85 d8 fb ff ff 	movq   $0x0,-0x428(%rbp)
    ed81:	00 00 00 00 
    ed85:	48 8d 85 28 eb ff ff 	lea    -0x14d8(%rbp),%rax
    ed8c:	48 89 85 e0 fb ff ff 	mov    %rax,-0x420(%rbp)
    ed93:	48 8d 85 28 eb ff ff 	lea    -0x14d8(%rbp),%rax
    ed9a:	48 89 85 e8 fb ff ff 	mov    %rax,-0x418(%rbp)
    eda1:	48 c7 85 f0 fb ff ff 	movq   $0x0,-0x410(%rbp)
    eda8:	00 00 00 00 
    edac:	48 8d 85 28 eb ff ff 	lea    -0x14d8(%rbp),%rax
    edb3:	48 89 85 f8 fb ff ff 	mov    %rax,-0x408(%rbp)
    edba:	48 c7 85 00 fc ff ff 	movq   $0x0,-0x400(%rbp)
    edc1:	00 00 00 00 
    edc5:	48 8d 85 28 eb ff ff 	lea    -0x14d8(%rbp),%rax
    edcc:	48 89 85 08 fc ff ff 	mov    %rax,-0x3f8(%rbp)
    edd3:	48 c7 85 10 fc ff ff 	movq   $0x0,-0x3f0(%rbp)
    edda:	00 00 00 00 
    edde:	48 c7 85 18 fc ff ff 	movq   $0x0,-0x3e8(%rbp)
    ede5:	00 00 00 00 
    ede9:	48 c7 85 20 fc ff ff 	movq   $0x0,-0x3e0(%rbp)
    edf0:	00 00 00 00 
    edf4:	48 8d 85 28 eb ff ff 	lea    -0x14d8(%rbp),%rax
    edfb:	48 89 85 28 fc ff ff 	mov    %rax,-0x3d8(%rbp)
    ee02:	48 8d 85 28 eb ff ff 	lea    -0x14d8(%rbp),%rax
    ee09:	48 89 85 30 fc ff ff 	mov    %rax,-0x3d0(%rbp)
    ee10:	48 c7 85 38 fc ff ff 	movq   $0x0,-0x3c8(%rbp)
    ee17:	00 00 00 00 
    ee1b:	48 8d 85 28 eb ff ff 	lea    -0x14d8(%rbp),%rax
    ee22:	48 89 85 40 fc ff ff 	mov    %rax,-0x3c0(%rbp)
    ee29:	48 c7 85 48 fc ff ff 	movq   $0x0,-0x3b8(%rbp)
    ee30:	00 00 00 00 
    ee34:	48 8d 85 28 eb ff ff 	lea    -0x14d8(%rbp),%rax
    ee3b:	48 89 85 50 fc ff ff 	mov    %rax,-0x3b0(%rbp)
    ee42:	48 8d 85 28 eb ff ff 	lea    -0x14d8(%rbp),%rax
    ee49:	48 89 85 58 fc ff ff 	mov    %rax,-0x3a8(%rbp)
    ee50:	48 c7 85 60 fc ff ff 	movq   $0x0,-0x3a0(%rbp)
    ee57:	00 00 00 00 
    ee5b:	48 8d 85 28 eb ff ff 	lea    -0x14d8(%rbp),%rax
    ee62:	48 89 85 68 fc ff ff 	mov    %rax,-0x398(%rbp)
    ee69:	48 8d 85 28 eb ff ff 	lea    -0x14d8(%rbp),%rax
    ee70:	48 89 85 70 fc ff ff 	mov    %rax,-0x390(%rbp)
    ee77:	48 8d 85 28 eb ff ff 	lea    -0x14d8(%rbp),%rax
    ee7e:	48 89 85 78 fc ff ff 	mov    %rax,-0x388(%rbp)
    ee85:	48 8d 85 28 eb ff ff 	lea    -0x14d8(%rbp),%rax
    ee8c:	48 89 85 80 fc ff ff 	mov    %rax,-0x380(%rbp)
    ee93:	48 8d 85 28 eb ff ff 	lea    -0x14d8(%rbp),%rax
    ee9a:	48 89 85 88 fc ff ff 	mov    %rax,-0x378(%rbp)
    eea1:	48 8d 85 28 eb ff ff 	lea    -0x14d8(%rbp),%rax
    eea8:	48 89 85 90 fc ff ff 	mov    %rax,-0x370(%rbp)
    eeaf:	48 8d 85 28 eb ff ff 	lea    -0x14d8(%rbp),%rax
    eeb6:	48 89 85 98 fc ff ff 	mov    %rax,-0x368(%rbp)
    eebd:	48 c7 85 a0 fc ff ff 	movq   $0x0,-0x360(%rbp)
    eec4:	00 00 00 00 
    eec8:	48 c7 85 a8 fc ff ff 	movq   $0x0,-0x358(%rbp)
    eecf:	00 00 00 00 
    eed3:	48 8d 85 28 eb ff ff 	lea    -0x14d8(%rbp),%rax
    eeda:	48 89 85 b0 fc ff ff 	mov    %rax,-0x350(%rbp)
    eee1:	48 8d 85 28 eb ff ff 	lea    -0x14d8(%rbp),%rax
    eee8:	48 89 85 b8 fc ff ff 	mov    %rax,-0x348(%rbp)
    eeef:	48 8d 85 28 eb ff ff 	lea    -0x14d8(%rbp),%rax
    eef6:	48 89 85 c0 fc ff ff 	mov    %rax,-0x340(%rbp)
    eefd:	48 c7 85 c8 fc ff ff 	movq   $0x0,-0x338(%rbp)
    ef04:	00 00 00 00 
    ef08:	48 8d 85 28 eb ff ff 	lea    -0x14d8(%rbp),%rax
    ef0f:	48 89 85 d0 fc ff ff 	mov    %rax,-0x330(%rbp)
    ef16:	48 8d 85 28 eb ff ff 	lea    -0x14d8(%rbp),%rax
    ef1d:	48 89 85 d8 fc ff ff 	mov    %rax,-0x328(%rbp)
    ef24:	48 c7 85 e0 fc ff ff 	movq   $0x0,-0x320(%rbp)
    ef2b:	00 00 00 00 
    ef2f:	48 8d 85 28 eb ff ff 	lea    -0x14d8(%rbp),%rax
    ef36:	48 89 85 e8 fc ff ff 	mov    %rax,-0x318(%rbp)
    ef3d:	48 c7 85 f0 fc ff ff 	movq   $0x0,-0x310(%rbp)
    ef44:	00 00 00 00 
    ef48:	48 8d 85 28 eb ff ff 	lea    -0x14d8(%rbp),%rax
    ef4f:	48 89 85 f8 fc ff ff 	mov    %rax,-0x308(%rbp)
    ef56:	48 c7 85 00 fd ff ff 	movq   $0x0,-0x300(%rbp)
    ef5d:	00 00 00 00 
    ef61:	48 c7 85 08 fd ff ff 	movq   $0x0,-0x2f8(%rbp)
    ef68:	00 00 00 00 
    ef6c:	48 c7 85 10 fd ff ff 	movq   $0x0,-0x2f0(%rbp)
    ef73:	00 00 00 00 
    ef77:	48 8d 85 28 eb ff ff 	lea    -0x14d8(%rbp),%rax
    ef7e:	48 89 85 18 fd ff ff 	mov    %rax,-0x2e8(%rbp)
    ef85:	48 8d 85 28 eb ff ff 	lea    -0x14d8(%rbp),%rax
    ef8c:	48 89 85 20 fd ff ff 	mov    %rax,-0x2e0(%rbp)
    ef93:	48 c7 85 28 fd ff ff 	movq   $0x0,-0x2d8(%rbp)
    ef9a:	00 00 00 00 
    ef9e:	48 8d 85 28 eb ff ff 	lea    -0x14d8(%rbp),%rax
    efa5:	48 89 85 30 fd ff ff 	mov    %rax,-0x2d0(%rbp)
    efac:	48 c7 85 38 fd ff ff 	movq   $0x0,-0x2c8(%rbp)
    efb3:	00 00 00 00 
    efb7:	48 8d 85 28 eb ff ff 	lea    -0x14d8(%rbp),%rax
    efbe:	48 89 85 40 fd ff ff 	mov    %rax,-0x2c0(%rbp)
    efc5:	48 8d 85 28 eb ff ff 	lea    -0x14d8(%rbp),%rax
    efcc:	48 89 85 48 fd ff ff 	mov    %rax,-0x2b8(%rbp)
    efd3:	48 c7 85 50 fd ff ff 	movq   $0x0,-0x2b0(%rbp)
    efda:	00 00 00 00 
    efde:	48 8d 85 28 eb ff ff 	lea    -0x14d8(%rbp),%rax
    efe5:	48 89 85 58 fd ff ff 	mov    %rax,-0x2a8(%rbp)
    efec:	48 8d 85 28 eb ff ff 	lea    -0x14d8(%rbp),%rax
    eff3:	48 89 85 60 fd ff ff 	mov    %rax,-0x2a0(%rbp)
    effa:	48 8d 85 28 eb ff ff 	lea    -0x14d8(%rbp),%rax
    f001:	48 89 85 68 fd ff ff 	mov    %rax,-0x298(%rbp)
    f008:	48 8d 85 28 eb ff ff 	lea    -0x14d8(%rbp),%rax
    f00f:	48 89 85 70 fd ff ff 	mov    %rax,-0x290(%rbp)
    f016:	48 8d 85 28 eb ff ff 	lea    -0x14d8(%rbp),%rax
    f01d:	48 89 85 78 fd ff ff 	mov    %rax,-0x288(%rbp)
    f024:	48 8d 85 28 eb ff ff 	lea    -0x14d8(%rbp),%rax
    f02b:	48 89 85 80 fd ff ff 	mov    %rax,-0x280(%rbp)
    f032:	48 8d 85 28 eb ff ff 	lea    -0x14d8(%rbp),%rax
    f039:	48 89 85 88 fd ff ff 	mov    %rax,-0x278(%rbp)
    f040:	48 c7 85 90 fd ff ff 	movq   $0x0,-0x270(%rbp)
    f047:	00 00 00 00 
    f04b:	48 c7 85 98 fd ff ff 	movq   $0x0,-0x268(%rbp)
    f052:	00 00 00 00 
    f056:	48 8d 85 28 eb ff ff 	lea    -0x14d8(%rbp),%rax
    f05d:	48 89 85 a0 fd ff ff 	mov    %rax,-0x260(%rbp)
    f064:	48 8d 85 28 eb ff ff 	lea    -0x14d8(%rbp),%rax
    f06b:	48 89 85 a8 fd ff ff 	mov    %rax,-0x258(%rbp)
    f072:	48 8d 85 28 eb ff ff 	lea    -0x14d8(%rbp),%rax
    f079:	48 89 85 b0 fd ff ff 	mov    %rax,-0x250(%rbp)
    f080:	48 c7 85 b8 fd ff ff 	movq   $0x0,-0x248(%rbp)
    f087:	00 00 00 00 
    f08b:	48 8d 85 28 eb ff ff 	lea    -0x14d8(%rbp),%rax
    f092:	48 89 85 c0 fd ff ff 	mov    %rax,-0x240(%rbp)
    f099:	48 8d 85 28 eb ff ff 	lea    -0x14d8(%rbp),%rax
    f0a0:	48 89 85 c8 fd ff ff 	mov    %rax,-0x238(%rbp)
    f0a7:	48 c7 85 d0 fd ff ff 	movq   $0x0,-0x230(%rbp)
    f0ae:	00 00 00 00 
    f0b2:	48 8d 85 28 eb ff ff 	lea    -0x14d8(%rbp),%rax
    f0b9:	48 89 85 d8 fd ff ff 	mov    %rax,-0x228(%rbp)
    f0c0:	48 c7 85 e0 fd ff ff 	movq   $0x0,-0x220(%rbp)
    f0c7:	00 00 00 00 
    f0cb:	48 8d 85 28 eb ff ff 	lea    -0x14d8(%rbp),%rax
    f0d2:	48 89 85 e8 fd ff ff 	mov    %rax,-0x218(%rbp)
    f0d9:	48 c7 85 f0 fd ff ff 	movq   $0x0,-0x210(%rbp)
    f0e0:	00 00 00 00 
    f0e4:	48 c7 85 f8 fd ff ff 	movq   $0x0,-0x208(%rbp)
    f0eb:	00 00 00 00 
    f0ef:	48 c7 85 00 fe ff ff 	movq   $0x0,-0x200(%rbp)
    f0f6:	00 00 00 00 
    f0fa:	48 8d 85 28 eb ff ff 	lea    -0x14d8(%rbp),%rax
    f101:	48 89 85 08 fe ff ff 	mov    %rax,-0x1f8(%rbp)
    f108:	48 8d 85 28 eb ff ff 	lea    -0x14d8(%rbp),%rax
    f10f:	48 89 85 10 fe ff ff 	mov    %rax,-0x1f0(%rbp)
    f116:	48 8d 85 28 eb ff ff 	lea    -0x14d8(%rbp),%rax
    f11d:	48 89 85 18 fe ff ff 	mov    %rax,-0x1e8(%rbp)
    f124:	48 8d 85 28 eb ff ff 	lea    -0x14d8(%rbp),%rax
    f12b:	48 89 85 20 fe ff ff 	mov    %rax,-0x1e0(%rbp)
    f132:	48 8d 85 28 eb ff ff 	lea    -0x14d8(%rbp),%rax
    f139:	48 89 85 28 fe ff ff 	mov    %rax,-0x1d8(%rbp)
    f140:	48 8d 85 28 eb ff ff 	lea    -0x14d8(%rbp),%rax
    f147:	48 89 85 30 fe ff ff 	mov    %rax,-0x1d0(%rbp)
    f14e:	48 8d 85 28 eb ff ff 	lea    -0x14d8(%rbp),%rax
    f155:	48 89 85 38 fe ff ff 	mov    %rax,-0x1c8(%rbp)
    f15c:	48 c7 85 40 fe ff ff 	movq   $0x0,-0x1c0(%rbp)
    f163:	00 00 00 00 
    f167:	48 8d 85 28 eb ff ff 	lea    -0x14d8(%rbp),%rax
    f16e:	48 89 85 48 fe ff ff 	mov    %rax,-0x1b8(%rbp)
    f175:	48 8d 85 28 eb ff ff 	lea    -0x14d8(%rbp),%rax
    f17c:	48 89 85 50 fe ff ff 	mov    %rax,-0x1b0(%rbp)
    f183:	48 8d 85 28 eb ff ff 	lea    -0x14d8(%rbp),%rax
    f18a:	48 89 85 58 fe ff ff 	mov    %rax,-0x1a8(%rbp)
    f191:	48 8d 85 28 eb ff ff 	lea    -0x14d8(%rbp),%rax
    f198:	48 89 85 60 fe ff ff 	mov    %rax,-0x1a0(%rbp)
    f19f:	48 8d 85 28 eb ff ff 	lea    -0x14d8(%rbp),%rax
    f1a6:	48 89 85 68 fe ff ff 	mov    %rax,-0x198(%rbp)
    f1ad:	48 8d 85 28 eb ff ff 	lea    -0x14d8(%rbp),%rax
    f1b4:	48 89 85 70 fe ff ff 	mov    %rax,-0x190(%rbp)
    f1bb:	48 8d 85 28 eb ff ff 	lea    -0x14d8(%rbp),%rax
    f1c2:	48 89 85 78 fe ff ff 	mov    %rax,-0x188(%rbp)
    f1c9:	48 c7 85 80 fe ff ff 	movq   $0x0,-0x180(%rbp)
    f1d0:	00 00 00 00 
    f1d4:	48 8d 85 28 eb ff ff 	lea    -0x14d8(%rbp),%rax
    f1db:	48 89 85 88 fe ff ff 	mov    %rax,-0x178(%rbp)
    f1e2:	48 8d 85 28 eb ff ff 	lea    -0x14d8(%rbp),%rax
    f1e9:	48 89 85 90 fe ff ff 	mov    %rax,-0x170(%rbp)
    f1f0:	48 8d 85 28 eb ff ff 	lea    -0x14d8(%rbp),%rax
    f1f7:	48 89 85 98 fe ff ff 	mov    %rax,-0x168(%rbp)
    f1fe:	48 8d 85 28 eb ff ff 	lea    -0x14d8(%rbp),%rax
    f205:	48 89 85 a0 fe ff ff 	mov    %rax,-0x160(%rbp)
    f20c:	48 8d 85 28 eb ff ff 	lea    -0x14d8(%rbp),%rax
    f213:	48 89 85 a8 fe ff ff 	mov    %rax,-0x158(%rbp)
    f21a:	48 8d 85 28 eb ff ff 	lea    -0x14d8(%rbp),%rax
    f221:	48 89 85 b0 fe ff ff 	mov    %rax,-0x150(%rbp)
    f228:	48 8d 85 28 eb ff ff 	lea    -0x14d8(%rbp),%rax
    f22f:	48 89 85 b8 fe ff ff 	mov    %rax,-0x148(%rbp)
    f236:	48 c7 85 c0 fe ff ff 	movq   $0x0,-0x140(%rbp)
    f23d:	00 00 00 00 
    f241:	48 8d 85 28 eb ff ff 	lea    -0x14d8(%rbp),%rax
    f248:	48 89 85 c8 fe ff ff 	mov    %rax,-0x138(%rbp)
    f24f:	48 c7 85 d0 fe ff ff 	movq   $0x0,-0x130(%rbp)
    f256:	00 00 00 00 
    f25a:	48 8d 85 28 eb ff ff 	lea    -0x14d8(%rbp),%rax
    f261:	48 89 85 d8 fe ff ff 	mov    %rax,-0x128(%rbp)
    f268:	48 c7 85 e0 fe ff ff 	movq   $0x0,-0x120(%rbp)
    f26f:	00 00 00 00 
    f273:	48 8d 85 28 eb ff ff 	lea    -0x14d8(%rbp),%rax
    f27a:	48 89 85 e8 fe ff ff 	mov    %rax,-0x118(%rbp)
    f281:	48 c7 85 f0 fe ff ff 	movq   $0x0,-0x110(%rbp)
    f288:	00 00 00 00 
    f28c:	48 8d 85 28 eb ff ff 	lea    -0x14d8(%rbp),%rax
    f293:	48 89 85 f8 fe ff ff 	mov    %rax,-0x108(%rbp)
    f29a:	48 8d 85 28 eb ff ff 	lea    -0x14d8(%rbp),%rax
    f2a1:	48 89 85 00 ff ff ff 	mov    %rax,-0x100(%rbp)
    f2a8:	48 8d 85 28 eb ff ff 	lea    -0x14d8(%rbp),%rax
    f2af:	48 89 85 08 ff ff ff 	mov    %rax,-0xf8(%rbp)
    f2b6:	48 8d 85 28 eb ff ff 	lea    -0x14d8(%rbp),%rax
    f2bd:	48 89 85 10 ff ff ff 	mov    %rax,-0xf0(%rbp)
    f2c4:	48 8d 85 28 eb ff ff 	lea    -0x14d8(%rbp),%rax
    f2cb:	48 89 85 18 ff ff ff 	mov    %rax,-0xe8(%rbp)
    f2d2:	48 8d 85 28 eb ff ff 	lea    -0x14d8(%rbp),%rax
    f2d9:	48 89 85 20 ff ff ff 	mov    %rax,-0xe0(%rbp)
    f2e0:	48 8d 85 28 eb ff ff 	lea    -0x14d8(%rbp),%rax
    f2e7:	48 89 85 28 ff ff ff 	mov    %rax,-0xd8(%rbp)
    f2ee:	48 c7 85 30 ff ff ff 	movq   $0x0,-0xd0(%rbp)
    f2f5:	00 00 00 00 
    f2f9:	48 8d 85 28 eb ff ff 	lea    -0x14d8(%rbp),%rax
    f300:	48 89 85 38 ff ff ff 	mov    %rax,-0xc8(%rbp)
    f307:	48 8d 85 28 eb ff ff 	lea    -0x14d8(%rbp),%rax
    f30e:	48 89 85 40 ff ff ff 	mov    %rax,-0xc0(%rbp)
    f315:	48 8d 85 28 eb ff ff 	lea    -0x14d8(%rbp),%rax
    f31c:	48 89 85 48 ff ff ff 	mov    %rax,-0xb8(%rbp)
    f323:	48 8d 85 28 eb ff ff 	lea    -0x14d8(%rbp),%rax
    f32a:	48 89 85 50 ff ff ff 	mov    %rax,-0xb0(%rbp)
    f331:	48 8d 85 28 eb ff ff 	lea    -0x14d8(%rbp),%rax
    f338:	48 89 85 58 ff ff ff 	mov    %rax,-0xa8(%rbp)
    f33f:	48 8d 85 28 eb ff ff 	lea    -0x14d8(%rbp),%rax
    f346:	48 89 85 60 ff ff ff 	mov    %rax,-0xa0(%rbp)
    f34d:	48 8d 85 28 eb ff ff 	lea    -0x14d8(%rbp),%rax
    f354:	48 89 85 68 ff ff ff 	mov    %rax,-0x98(%rbp)
    f35b:	48 c7 85 70 ff ff ff 	movq   $0x0,-0x90(%rbp)
    f362:	00 00 00 00 
    f366:	48 8d 85 28 eb ff ff 	lea    -0x14d8(%rbp),%rax
    f36d:	48 89 85 78 ff ff ff 	mov    %rax,-0x88(%rbp)
    f374:	48 8d 85 28 eb ff ff 	lea    -0x14d8(%rbp),%rax
    f37b:	48 89 45 80          	mov    %rax,-0x80(%rbp)
    f37f:	48 8d 85 28 eb ff ff 	lea    -0x14d8(%rbp),%rax
    f386:	48 89 45 88          	mov    %rax,-0x78(%rbp)
    f38a:	48 8d 85 28 eb ff ff 	lea    -0x14d8(%rbp),%rax
    f391:	48 89 45 90          	mov    %rax,-0x70(%rbp)
    f395:	48 8d 85 28 eb ff ff 	lea    -0x14d8(%rbp),%rax
    f39c:	48 89 45 98          	mov    %rax,-0x68(%rbp)
    f3a0:	48 8d 85 28 eb ff ff 	lea    -0x14d8(%rbp),%rax
    f3a7:	48 89 45 a0          	mov    %rax,-0x60(%rbp)
    f3ab:	48 8d 85 28 eb ff ff 	lea    -0x14d8(%rbp),%rax
    f3b2:	48 89 45 a8          	mov    %rax,-0x58(%rbp)
    f3b6:	48 8b 85 28 eb ff ff 	mov    -0x14d8(%rbp),%rax
    f3bd:	48 89 05 94 c7 00 00 	mov    %rax,0xc794(%rip)        # 1bb58 <g_1706+0x258>
    f3c4:	eb 1f                	jmp    f3e5 <func_30+0x2591>
    f3c6:	c7 85 dc ea ff ff 02 	movl   $0x2,-0x1524(%rbp)
    f3cd:	00 00 00 
    f3d0:	83 bd dc ea ff ff f2 	cmpl   $0xfffffff2,-0x1524(%rbp)
    f3d7:	7d 0c                	jge    f3e5 <func_30+0x2591>
    f3d9:	48 8b 05 b0 be 00 00 	mov    0xbeb0(%rip),%rax        # 1b290 <g_378>
    f3e0:	0f b6 00             	movzbl (%rax),%eax
    f3e3:	eb 06                	jmp    f3eb <func_30+0x2597>
    f3e5:	8b 85 bc ea ff ff    	mov    -0x1544(%rbp),%eax
    f3eb:	48 8b 4d c8          	mov    -0x38(%rbp),%rcx
    f3ef:	64 48 33 0c 25 28 00 	xor    %fs:0x28,%rcx
    f3f6:	00 00 
    f3f8:	74 05                	je     f3ff <func_30+0x25ab>
    f3fa:	e8 71 8c ff ff       	callq  8070 <__stack_chk_fail@plt>
    f3ff:	48 81 c4 38 15 00 00 	add    $0x1538,%rsp
    f406:	5b                   	pop    %rbx
    f407:	41 5c                	pop    %r12
    f409:	41 5d                	pop    %r13
    f40b:	41 5e                	pop    %r14
    f40d:	41 5f                	pop    %r15
    f40f:	5d                   	pop    %rbp
    f410:	c3                   	retq   

000000000000f411 <func_45>:
    f411:	f3 0f 1e fa          	endbr64 
    f415:	55                   	push   %rbp
    f416:	48 89 e5             	mov    %rsp,%rbp
    f419:	89 7d ec             	mov    %edi,-0x14(%rbp)
    f41c:	89 75 e8             	mov    %esi,-0x18(%rbp)
    f41f:	89 d0                	mov    %edx,%eax
    f421:	88 45 e4             	mov    %al,-0x1c(%rbp)
    f424:	48 8d 05 15 a1 00 00 	lea    0xa115(%rip),%rax        # 19540 <g_1519+0xc0>
    f42b:	48 89 45 f8          	mov    %rax,-0x8(%rbp)
    f42f:	8b 45 e8             	mov    -0x18(%rbp),%eax
    f432:	5d                   	pop    %rbp
    f433:	c3                   	retq   

000000000000f434 <func_49>:
    f434:	f3 0f 1e fa          	endbr64 
    f438:	55                   	push   %rbp
    f439:	48 89 e5             	mov    %rsp,%rbp
    f43c:	41 57                	push   %r15
    f43e:	41 56                	push   %r14
    f440:	41 55                	push   %r13
    f442:	41 54                	push   %r12
    f444:	53                   	push   %rbx
    f445:	48 81 ec a8 01 00 00 	sub    $0x1a8,%rsp
    f44c:	48 89 bd 48 fe ff ff 	mov    %rdi,-0x1b8(%rbp)
    f453:	89 b5 44 fe ff ff    	mov    %esi,-0x1bc(%rbp)
    f459:	89 95 40 fe ff ff    	mov    %edx,-0x1c0(%rbp)
    f45f:	64 48 8b 04 25 28 00 	mov    %fs:0x28,%rax
    f466:	00 00 
    f468:	48 89 45 c8          	mov    %rax,-0x38(%rbp)
    f46c:	31 c0                	xor    %eax,%eax
    f46e:	66 c7 85 52 fe ff ff 	movw   $0x2ed6,-0x1ae(%rbp)
    f475:	d6 2e 
    f477:	48 8d 05 9e 9c 00 00 	lea    0x9c9e(%rip),%rax        # 1911c <g_90>
    f47e:	48 89 85 98 fe ff ff 	mov    %rax,-0x168(%rbp)
    f485:	48 c7 85 a0 fe ff ff 	movq   $0x0,-0x160(%rbp)
    f48c:	00 00 00 00 
    f490:	48 8d 05 99 9c 00 00 	lea    0x9c99(%rip),%rax        # 19130 <g_128>
    f497:	48 89 85 a8 fe ff ff 	mov    %rax,-0x158(%rbp)
    f49e:	48 8d 05 73 9d 00 00 	lea    0x9d73(%rip),%rax        # 19218 <g_274>
    f4a5:	48 89 85 b0 fe ff ff 	mov    %rax,-0x150(%rbp)
    f4ac:	48 c7 85 68 fe ff ff 	movq   $0x0,-0x198(%rbp)
    f4b3:	00 00 00 00 
    f4b7:	48 8d 85 68 fe ff ff 	lea    -0x198(%rbp),%rax
    f4be:	48 89 85 b8 fe ff ff 	mov    %rax,-0x148(%rbp)
    f4c5:	48 c7 85 c0 fe ff ff 	movq   $0x0,-0x140(%rbp)
    f4cc:	00 00 00 00 
    f4d0:	48 c7 85 c8 fe ff ff 	movq   $0x0,-0x138(%rbp)
    f4d7:	00 00 00 00 
    f4db:	c7 85 58 fe ff ff ff 	movl   $0xffffffff,-0x1a8(%rbp)
    f4e2:	ff ff ff 
    f4e5:	48 c7 85 d0 fe ff ff 	movq   $0x7,-0x130(%rbp)
    f4ec:	07 00 00 00 
    f4f0:	48 8d 05 31 9f 00 00 	lea    0x9f31(%rip),%rax        # 19428 <g_1191>
    f4f7:	48 89 85 70 fe ff ff 	mov    %rax,-0x190(%rbp)
    f4fe:	48 c7 85 78 fe ff ff 	movq   $0x0,-0x188(%rbp)
    f505:	00 00 00 00 
    f509:	48 8d 85 70 fe ff ff 	lea    -0x190(%rbp),%rax
    f510:	48 89 85 80 fe ff ff 	mov    %rax,-0x180(%rbp)
    f517:	48 8d 85 80 fe ff ff 	lea    -0x180(%rbp),%rax
    f51e:	48 89 85 d8 fe ff ff 	mov    %rax,-0x128(%rbp)
    f525:	48 c7 85 e0 fe ff ff 	movq   $0x0,-0x120(%rbp)
    f52c:	00 00 00 00 
    f530:	b8 ff ff ff ff       	mov    $0xffffffff,%eax
    f535:	0f b6 d0             	movzbl %al,%edx
    f538:	0f b7 85 52 fe ff ff 	movzwl -0x1ae(%rbp),%eax
    f53f:	0f b6 c0             	movzbl %al,%eax
    f542:	89 d6                	mov    %edx,%esi
    f544:	89 c7                	mov    %eax,%edi
    f546:	e8 63 96 ff ff       	callq  8bae <safe_mod_func_uint8_t_u_u>
    f54b:	0f b6 d0             	movzbl %al,%edx
    f54e:	48 8b 85 98 fe ff ff 	mov    -0x168(%rbp),%rax
    f555:	89 10                	mov    %edx,(%rax)
    f557:	48 8b 85 98 fe ff ff 	mov    -0x168(%rbp),%rax
    f55e:	8b 00                	mov    (%rax),%eax
    f560:	31 85 40 fe ff ff    	xor    %eax,-0x1c0(%rbp)
    f566:	48 8b 05 db 9e 00 00 	mov    0x9edb(%rip),%rax        # 19448 <g_1279+0x8>
    f56d:	89 85 3c fe ff ff    	mov    %eax,-0x1c4(%rbp)
    f573:	8b 85 40 fe ff ff    	mov    -0x1c0(%rbp),%eax
    f579:	48 63 d8             	movslq %eax,%rbx
    f57c:	48 8b 85 48 fe ff ff 	mov    -0x1b8(%rbp),%rax
    f583:	89 85 38 fe ff ff    	mov    %eax,-0x1c8(%rbp)
    f589:	48 8b 85 48 fe ff ff 	mov    -0x1b8(%rbp),%rax
    f590:	44 0f be e0          	movsbl %al,%r12d
    f594:	48 8b 85 98 fe ff ff 	mov    -0x168(%rbp),%rax
    f59b:	44 8b 28             	mov    (%rax),%r13d
    f59e:	48 8b 85 a8 fe ff ff 	mov    -0x158(%rbp),%rax
    f5a5:	0f b7 10             	movzwl (%rax),%edx
    f5a8:	48 8b 85 a8 fe ff ff 	mov    -0x158(%rbp),%rax
    f5af:	66 89 10             	mov    %dx,(%rax)
    f5b2:	8b 85 44 fe ff ff    	mov    -0x1bc(%rbp),%eax
    f5b8:	44 0f be f0          	movsbl %al,%r14d
    f5bc:	48 8b 05 5d 9b 00 00 	mov    0x9b5d(%rip),%rax        # 19120 <g_93>
    f5c3:	44 0f b6 f8          	movzbl %al,%r15d
    f5c7:	8b 85 44 fe ff ff    	mov    -0x1bc(%rbp),%eax
    f5cd:	89 c2                	mov    %eax,%edx
    f5cf:	48 8b 85 b0 fe ff ff 	mov    -0x150(%rbp),%rax
    f5d6:	88 10                	mov    %dl,(%rax)
    f5d8:	48 8b 95 68 fe ff ff 	mov    -0x198(%rbp),%rdx
    f5df:	48 8b 85 b8 fe ff ff 	mov    -0x148(%rbp),%rax
    f5e6:	48 89 10             	mov    %rdx,(%rax)
    f5e9:	48 8b 85 b8 fe ff ff 	mov    -0x148(%rbp),%rax
    f5f0:	48 8b 00             	mov    (%rax),%rax
    f5f3:	48 8d 15 ce da 00 00 	lea    0xdace(%rip),%rdx        # 1d0c8 <g_951>
    f5fa:	48 39 d0             	cmp    %rdx,%rax
    f5fd:	0f 95 c0             	setne  %al
    f600:	0f b6 c0             	movzbl %al,%eax
    f603:	09 85 58 fe ff ff    	or     %eax,-0x1a8(%rbp)
    f609:	48 8b 85 98 fe ff ff 	mov    -0x168(%rbp),%rax
    f610:	8b 10                	mov    (%rax),%edx
    f612:	48 8b 05 67 bc 00 00 	mov    0xbc67(%rip),%rax        # 1b280 <g_276>
    f619:	48 8b 00             	mov    (%rax),%rax
    f61c:	89 10                	mov    %edx,(%rax)
    f61e:	8b 00                	mov    (%rax),%eax
    f620:	8b 95 58 fe ff ff    	mov    -0x1a8(%rbp),%edx
    f626:	89 d6                	mov    %edx,%esi
    f628:	89 c7                	mov    %eax,%edi
    f62a:	e8 89 98 ff ff       	callq  8eb8 <safe_add_func_uint32_t_u_u>
    f62f:	83 c8 fb             	or     $0xfffffffb,%eax
    f632:	89 c2                	mov    %eax,%edx
    f634:	0f b7 05 97 9d 00 00 	movzwl 0x9d97(%rip),%eax        # 193d2 <g_964+0xa>
    f63b:	66 c1 e8 06          	shr    $0x6,%ax
    f63f:	80 e4 ff             	and    $0xff,%ah
    f642:	21 d0                	and    %edx,%eax
    f644:	0f b6 c0             	movzbl %al,%eax
    f647:	44 89 fe             	mov    %r15d,%esi
    f64a:	89 c7                	mov    %eax,%edi
    f64c:	e8 27 95 ff ff       	callq  8b78 <safe_sub_func_uint8_t_u_u>
    f651:	0f b6 c0             	movzbl %al,%eax
    f654:	48 89 c6             	mov    %rax,%rsi
    f657:	48 bf 2d 50 40 d3 53 	movabs $0xcd47c253d340502d,%rdi
    f65e:	c2 47 cd 
    f661:	e8 c8 99 ff ff       	callq  902e <safe_add_func_uint64_t_u_u>
    f666:	48 8b 85 98 fe ff ff 	mov    -0x168(%rbp),%rax
    f66d:	8b 00                	mov    (%rax),%eax
    f66f:	48 98                	cltq   
    f671:	ba f7 ff ff ff       	mov    $0xfffffff7,%edx
    f676:	48 31 d0             	xor    %rdx,%rax
    f679:	48 39 85 d0 fe ff ff 	cmp    %rax,-0x130(%rbp)
    f680:	0f 95 c0             	setne  %al
    f683:	0f b6 c0             	movzbl %al,%eax
    f686:	44 89 f6             	mov    %r14d,%esi
    f689:	89 c7                	mov    %eax,%edi
    f68b:	e8 82 8b ff ff       	callq  8212 <safe_mul_func_int8_t_s_s>
    f690:	0f be c0             	movsbl %al,%eax
    f693:	be f3 4e e9 76       	mov    $0x76e94ef3,%esi
    f698:	89 c7                	mov    %eax,%edi
    f69a:	e8 5e 98 ff ff       	callq  8efd <safe_mod_func_uint32_t_u_u>
    f69f:	85 c0                	test   %eax,%eax
    f6a1:	75 0a                	jne    f6ad <func_49+0x279>
    f6a3:	48 83 bd 48 fe ff ff 	cmpq   $0x0,-0x1b8(%rbp)
    f6aa:	00 
    f6ab:	74 07                	je     f6b4 <func_49+0x280>
    f6ad:	b8 01 00 00 00       	mov    $0x1,%eax
    f6b2:	eb 05                	jmp    f6b9 <func_49+0x285>
    f6b4:	b8 00 00 00 00       	mov    $0x0,%eax
    f6b9:	0f be c0             	movsbl %al,%eax
    f6bc:	44 89 ee             	mov    %r13d,%esi
    f6bf:	89 c7                	mov    %eax,%edi
    f6c1:	e8 6f 8c ff ff       	callq  8335 <safe_rshift_func_int8_t_s_s>
    f6c6:	48 0f be c0          	movsbq %al,%rax
    f6ca:	48 be 24 47 4d 6c 85 	movabs $0xf29246856c4d4724,%rsi
    f6d1:	46 92 f2 
    f6d4:	48 89 c7             	mov    %rax,%rdi
    f6d7:	e8 52 99 ff ff       	callq  902e <safe_add_func_uint64_t_u_u>
    f6dc:	0f be c0             	movsbl %al,%eax
    f6df:	44 89 e6             	mov    %r12d,%esi
    f6e2:	89 c7                	mov    %eax,%edi
    f6e4:	e8 81 8b ff ff       	callq  826a <safe_div_func_int8_t_s_s>
    f6e9:	48 8b 05 68 9d 00 00 	mov    0x9d68(%rip),%rax        # 19458 <g_1279+0x18>
    f6f0:	0f b7 c0             	movzwl %ax,%eax
    f6f3:	be 00 00 00 00       	mov    $0x0,%esi
    f6f8:	89 c7                	mov    %eax,%edi
    f6fa:	e8 20 96 ff ff       	callq  8d1f <safe_sub_func_uint16_t_u_u>
    f6ff:	0f b7 c0             	movzwl %ax,%eax
    f702:	8b b5 38 fe ff ff    	mov    -0x1c8(%rbp),%esi
    f708:	89 c7                	mov    %eax,%edi
    f70a:	e8 39 97 ff ff       	callq  8e48 <safe_rshift_func_uint16_t_u_s>
    f70f:	0f b7 c0             	movzwl %ax,%eax
    f712:	be 05 00 00 00       	mov    $0x5,%esi
    f717:	89 c7                	mov    %eax,%edi
    f719:	e8 a0 96 ff ff       	callq  8dbe <safe_lshift_func_uint16_t_u_s>
    f71e:	66 85 c0             	test   %ax,%ax
    f721:	0f 95 c0             	setne  %al
    f724:	0f b6 c0             	movzbl %al,%eax
    f727:	be 98 00 00 00       	mov    $0x98,%esi
    f72c:	89 c7                	mov    %eax,%edi
    f72e:	e8 60 94 ff ff       	callq  8b93 <safe_mul_func_uint8_t_u_u>
    f733:	0f b6 c0             	movzbl %al,%eax
    f736:	be ff ff 00 00       	mov    $0xffff,%esi
    f73b:	89 c7                	mov    %eax,%edi
    f73d:	e8 dd 95 ff ff       	callq  8d1f <safe_sub_func_uint16_t_u_u>
    f742:	48 8b 85 98 fe ff ff 	mov    -0x168(%rbp),%rax
    f749:	48 89 85 a0 fe ff ff 	mov    %rax,-0x160(%rbp)
    f750:	48 83 bd a0 fe ff ff 	cmpq   $0x0,-0x160(%rbp)
    f757:	00 
    f758:	0f 95 c2             	setne  %dl
    f75b:	48 8b 85 70 fe ff ff 	mov    -0x190(%rbp),%rax
    f762:	0f b6 d2             	movzbl %dl,%edx
    f765:	48 89 10             	mov    %rdx,(%rax)
    f768:	48 8b 00             	mov    (%rax),%rax
    f76b:	48 89 de             	mov    %rbx,%rsi
    f76e:	48 89 c7             	mov    %rax,%rdi
    f771:	e8 39 99 ff ff       	callq  90af <safe_div_func_uint64_t_u_u>
    f776:	0f be c0             	movsbl %al,%eax
    f779:	8b b5 3c fe ff ff    	mov    -0x1c4(%rbp),%esi
    f77f:	89 c7                	mov    %eax,%edi
    f781:	e8 1b 8b ff ff       	callq  82a1 <safe_lshift_func_int8_t_s_s>
    f786:	84 c0                	test   %al,%al
    f788:	0f 84 f3 03 00 00    	je     fb81 <func_49+0x74d>
    f78e:	48 c7 85 f0 fe ff ff 	movq   $0x0,-0x110(%rbp)
    f795:	00 00 00 00 
    f799:	c7 85 54 fe ff ff 00 	movl   $0x0,-0x1ac(%rbp)
    f7a0:	00 00 00 
    f7a3:	eb 1a                	jmp    f7bf <func_49+0x38b>
    f7a5:	8b 85 54 fe ff ff    	mov    -0x1ac(%rbp),%eax
    f7ab:	48 98                	cltq   
    f7ad:	c7 84 85 10 ff ff ff 	movl   $0xfffffffe,-0xf0(%rbp,%rax,4)
    f7b4:	fe ff ff ff 
    f7b8:	83 85 54 fe ff ff 01 	addl   $0x1,-0x1ac(%rbp)
    f7bf:	83 bd 54 fe ff ff 07 	cmpl   $0x7,-0x1ac(%rbp)
    f7c6:	7e dd                	jle    f7a5 <func_49+0x371>
    f7c8:	66 c7 05 6b 99 00 00 	movw   $0x0,0x996b(%rip)        # 1913c <g_166>
    f7cf:	00 00 
    f7d1:	e9 8c 03 00 00       	jmpq   fb62 <func_49+0x72e>
    f7d6:	c7 85 60 fe ff ff 2f 	movl   $0x9213ab2f,-0x1a0(%rbp)
    f7dd:	ab 13 92 
    f7e0:	48 c7 85 30 ff ff ff 	movq   $0x0,-0xd0(%rbp)
    f7e7:	00 00 00 00 
    f7eb:	48 c7 85 38 ff ff ff 	movq   $0x0,-0xc8(%rbp)
    f7f2:	00 00 00 00 
    f7f6:	48 c7 85 40 ff ff ff 	movq   $0x0,-0xc0(%rbp)
    f7fd:	00 00 00 00 
    f801:	48 c7 85 48 ff ff ff 	movq   $0x0,-0xb8(%rbp)
    f808:	00 00 00 00 
    f80c:	c7 85 64 fe ff ff eb 	movl   $0x89b539eb,-0x19c(%rbp)
    f813:	39 b5 89 
    f816:	48 8d 85 78 fe ff ff 	lea    -0x188(%rbp),%rax
    f81d:	48 89 85 f8 fe ff ff 	mov    %rax,-0x108(%rbp)
    f824:	48 8d 05 09 99 00 00 	lea    0x9909(%rip),%rax        # 19134 <g_132+0x2>
    f82b:	48 89 85 00 ff ff ff 	mov    %rax,-0x100(%rbp)
    f832:	48 8d 05 37 d8 00 00 	lea    0xd837(%rip),%rax        # 1d070 <g_286+0x10>
    f839:	48 89 85 88 fe ff ff 	mov    %rax,-0x178(%rbp)
    f840:	48 8d 85 88 fe ff ff 	lea    -0x178(%rbp),%rax
    f847:	48 89 85 90 fe ff ff 	mov    %rax,-0x170(%rbp)
    f84e:	48 8d 85 90 fe ff ff 	lea    -0x170(%rbp),%rax
    f855:	48 89 45 80          	mov    %rax,-0x80(%rbp)
    f859:	48 8d 85 90 fe ff ff 	lea    -0x170(%rbp),%rax
    f860:	48 89 45 88          	mov    %rax,-0x78(%rbp)
    f864:	48 8d 85 90 fe ff ff 	lea    -0x170(%rbp),%rax
    f86b:	48 89 45 90          	mov    %rax,-0x70(%rbp)
    f86f:	48 8d 85 90 fe ff ff 	lea    -0x170(%rbp),%rax
    f876:	48 89 45 98          	mov    %rax,-0x68(%rbp)
    f87a:	48 8d 85 90 fe ff ff 	lea    -0x170(%rbp),%rax
    f881:	48 89 45 a0          	mov    %rax,-0x60(%rbp)
    f885:	48 8d 85 90 fe ff ff 	lea    -0x170(%rbp),%rax
    f88c:	48 89 45 a8          	mov    %rax,-0x58(%rbp)
    f890:	48 8d 85 90 fe ff ff 	lea    -0x170(%rbp),%rax
    f897:	48 89 45 b0          	mov    %rax,-0x50(%rbp)
    f89b:	48 8d 85 90 fe ff ff 	lea    -0x170(%rbp),%rax
    f8a2:	48 89 45 b8          	mov    %rax,-0x48(%rbp)
    f8a6:	48 8d 85 90 fe ff ff 	lea    -0x170(%rbp),%rax
    f8ad:	48 89 45 c0          	mov    %rax,-0x40(%rbp)
    f8b1:	8b 85 60 fe ff ff    	mov    -0x1a0(%rbp),%eax
    f8b7:	89 85 64 fe ff ff    	mov    %eax,-0x19c(%rbp)
    f8bd:	8b 95 64 fe ff ff    	mov    -0x19c(%rbp),%edx
    f8c3:	8b 85 60 fe ff ff    	mov    -0x1a0(%rbp),%eax
    f8c9:	0f b6 c0             	movzbl %al,%eax
    f8cc:	89 d6                	mov    %edx,%esi
    f8ce:	89 c7                	mov    %eax,%edi
    f8d0:	e8 77 93 ff ff       	callq  8c4c <safe_lshift_func_uint8_t_u_u>
    f8d5:	0f b6 d0             	movzbl %al,%edx
    f8d8:	8b 85 60 fe ff ff    	mov    -0x1a0(%rbp),%eax
    f8de:	48 98                	cltq   
    f8e0:	48 23 85 48 fe ff ff 	and    -0x1b8(%rbp),%rax
    f8e7:	48 39 c2             	cmp    %rax,%rdx
    f8ea:	0f 92 c0             	setb   %al
    f8ed:	0f b6 d0             	movzbl %al,%edx
    f8f0:	48 8b 85 98 fe ff ff 	mov    -0x168(%rbp),%rax
    f8f7:	89 10                	mov    %edx,(%rax)
    f8f9:	48 8b 95 78 fe ff ff 	mov    -0x188(%rbp),%rdx
    f900:	48 8b 85 f8 fe ff ff 	mov    -0x108(%rbp),%rax
    f907:	48 89 10             	mov    %rdx,(%rax)
    f90a:	48 8b 85 f8 fe ff ff 	mov    -0x108(%rbp),%rax
    f911:	48 8b 00             	mov    (%rax),%rax
    f914:	48 39 85 f0 fe ff ff 	cmp    %rax,-0x110(%rbp)
    f91b:	0f 95 c0             	setne  %al
    f91e:	0f b6 d0             	movzbl %al,%edx
    f921:	48 8b 85 00 ff ff ff 	mov    -0x100(%rbp),%rax
    f928:	66 89 10             	mov    %dx,(%rax)
    f92b:	48 8b 85 00 ff ff ff 	mov    -0x100(%rbp),%rax
    f932:	0f b7 00             	movzwl (%rax),%eax
    f935:	0f bf d0             	movswl %ax,%edx
    f938:	8b 85 40 fe ff ff    	mov    -0x1c0(%rbp),%eax
    f93e:	98                   	cwtl   
    f93f:	89 d6                	mov    %edx,%esi
    f941:	89 c7                	mov    %eax,%edi
    f943:	e8 ad 8a ff ff       	callq  83f5 <safe_mul_func_int16_t_s_s>
    f948:	66 85 c0             	test   %ax,%ax
    f94b:	0f 84 e8 01 00 00    	je     fb39 <func_49+0x705>
    f951:	48 c7 85 08 ff ff ff 	movq   $0xffffffffffffffff,-0xf8(%rbp)
    f958:	ff ff ff ff 
    f95c:	48 c7 05 e9 99 00 00 	movq   $0x1a,0x99e9(%rip)        # 19350 <g_329>
    f963:	1a 00 00 00 
    f967:	e9 ba 01 00 00       	jmpq   fb26 <func_49+0x6f2>
    f96c:	c6 85 51 fe ff ff ca 	movb   $0xca,-0x1af(%rbp)
    f973:	c7 85 50 ff ff ff 27 	movl   $0xbcd6b427,-0xb0(%rbp)
    f97a:	b4 d6 bc 
    f97d:	c7 85 54 ff ff ff fb 	movl   $0xfffffffb,-0xac(%rbp)
    f984:	ff ff ff 
    f987:	c7 85 58 ff ff ff 52 	movl   $0x398c4552,-0xa8(%rbp)
    f98e:	45 8c 39 
    f991:	c7 85 5c ff ff ff 52 	movl   $0x398c4552,-0xa4(%rbp)
    f998:	45 8c 39 
    f99b:	c7 85 60 ff ff ff fb 	movl   $0xfffffffb,-0xa0(%rbp)
    f9a2:	ff ff ff 
    f9a5:	c7 85 64 ff ff ff 27 	movl   $0xbcd6b427,-0x9c(%rbp)
    f9ac:	b4 d6 bc 
    f9af:	c7 85 68 ff ff ff fb 	movl   $0xfffffffb,-0x98(%rbp)
    f9b6:	ff ff ff 
    f9b9:	c7 85 6c ff ff ff 52 	movl   $0x398c4552,-0x94(%rbp)
    f9c0:	45 8c 39 
    f9c3:	c7 85 70 ff ff ff 52 	movl   $0x398c4552,-0x90(%rbp)
    f9ca:	45 8c 39 
    f9cd:	c7 85 74 ff ff ff fb 	movl   $0xfffffffb,-0x8c(%rbp)
    f9d4:	ff ff ff 
    f9d7:	44 0f be a5 51 fe ff 	movsbl -0x1af(%rbp),%r12d
    f9de:	ff 
    f9df:	0f b6 05 83 99 00 00 	movzbl 0x9983(%rip),%eax        # 19369 <g_403+0x1>
    f9e6:	83 c0 01             	add    $0x1,%eax
    f9e9:	88 05 7a 99 00 00    	mov    %al,0x997a(%rip)        # 19369 <g_403+0x1>
    f9ef:	0f b6 05 73 99 00 00 	movzbl 0x9973(%rip),%eax        # 19369 <g_403+0x1>
    f9f6:	44 0f b6 e8          	movzbl %al,%r13d
    f9fa:	48 8b 9d 08 ff ff ff 	mov    -0xf8(%rbp),%rbx
    fa01:	44 0f be b5 51 fe ff 	movsbl -0x1af(%rbp),%r14d
    fa08:	ff 
    fa09:	be 65 31 00 00       	mov    $0x3165,%esi
    fa0e:	bf 00 00 00 00       	mov    $0x0,%edi
    fa13:	e8 e7 92 ff ff       	callq  8cff <safe_add_func_uint16_t_u_u>
    fa18:	83 c8 fd             	or     $0xfffffffd,%eax
    fa1b:	89 c2                	mov    %eax,%edx
    fa1d:	48 8b 85 a8 fe ff ff 	mov    -0x158(%rbp),%rax
    fa24:	66 89 10             	mov    %dx,(%rax)
    fa27:	48 8b 85 a8 fe ff ff 	mov    -0x158(%rbp),%rax
    fa2e:	0f b7 00             	movzwl (%rax),%eax
    fa31:	0f b7 d0             	movzwl %ax,%edx
    fa34:	48 8b 45 98          	mov    -0x68(%rbp),%rax
    fa38:	48 8d 0d a1 56 00 00 	lea    0x56a1(%rip),%rcx        # 150e0 <g_295>
    fa3f:	48 39 c8             	cmp    %rcx,%rax
    fa42:	0f 95 c0             	setne  %al
    fa45:	0f b6 c0             	movzbl %al,%eax
    fa48:	39 c2                	cmp    %eax,%edx
    fa4a:	0f 9d c0             	setge  %al
    fa4d:	0f b6 c0             	movzbl %al,%eax
    fa50:	44 09 f0             	or     %r14d,%eax
    fa53:	89 c2                	mov    %eax,%edx
    fa55:	8b 85 44 fe ff ff    	mov    -0x1bc(%rbp),%eax
    fa5b:	39 c2                	cmp    %eax,%edx
    fa5d:	0f 97 c0             	seta   %al
    fa60:	0f b6 c0             	movzbl %al,%eax
    fa63:	48 89 de             	mov    %rbx,%rsi
    fa66:	48 89 c7             	mov    %rax,%rdi
    fa69:	e8 41 96 ff ff       	callq  90af <safe_div_func_uint64_t_u_u>
    fa6e:	89 c2                	mov    %eax,%edx
    fa70:	48 8b 85 48 fe ff ff 	mov    -0x1b8(%rbp),%rax
    fa77:	31 d0                	xor    %edx,%eax
    fa79:	89 85 24 ff ff ff    	mov    %eax,-0xdc(%rbp)
    fa7f:	8b 85 24 ff ff ff    	mov    -0xdc(%rbp),%eax
    fa85:	0f be c0             	movsbl %al,%eax
    fa88:	89 c6                	mov    %eax,%esi
    fa8a:	bf 1d 00 00 00       	mov    $0x1d,%edi
    fa8f:	e8 40 87 ff ff       	callq  81d4 <safe_add_func_int8_t_s_s>
    fa94:	48 0f be c0          	movsbq %al,%rax
    fa98:	48 0b 85 08 ff ff ff 	or     -0xf8(%rbp),%rax
    fa9f:	49 39 c5             	cmp    %rax,%r13
    faa2:	0f 9e c0             	setle  %al
    faa5:	0f b6 c0             	movzbl %al,%eax
    faa8:	48 39 85 48 fe ff ff 	cmp    %rax,-0x1b8(%rbp)
    faaf:	48 83 bd 48 fe ff ff 	cmpq   $0x0,-0x1b8(%rbp)
    fab6:	00 
    fab7:	0f 94 c0             	sete   %al
    faba:	0f b6 c0             	movzbl %al,%eax
    fabd:	be 01 00 00 00       	mov    $0x1,%esi
    fac2:	89 c7                	mov    %eax,%edi
    fac4:	e8 a1 87 ff ff       	callq  826a <safe_div_func_int8_t_s_s>
    fac9:	89 c2                	mov    %eax,%edx
    facb:	48 8b 05 b6 b7 00 00 	mov    0xb7b6(%rip),%rax        # 1b288 <g_287>
    fad2:	48 0f be d2          	movsbq %dl,%rdx
    fad6:	48 89 10             	mov    %rdx,(%rax)
    fad9:	48 8b 00             	mov    (%rax),%rax
    fadc:	89 c2                	mov    %eax,%edx
    fade:	48 8b 85 48 fe ff ff 	mov    -0x1b8(%rbp),%rax
    fae5:	31 d0                	xor    %edx,%eax
    fae7:	44 21 e0             	and    %r12d,%eax
    faea:	c1 e0 08             	shl    $0x8,%eax
    faed:	c1 f8 08             	sar    $0x8,%eax
    faf0:	25 ff ff ff 00       	and    $0xffffff,%eax
    faf5:	89 c2                	mov    %eax,%edx
    faf7:	8b 05 ef 98 00 00    	mov    0x98ef(%rip),%eax        # 193ec <g_988+0x4>
    fafd:	25 00 00 00 ff       	and    $0xff000000,%eax
    fb02:	09 d0                	or     %edx,%eax
    fb04:	89 05 e2 98 00 00    	mov    %eax,0x98e2(%rip)        # 193ec <g_988+0x4>
    fb0a:	48 8b 05 3f 98 00 00 	mov    0x983f(%rip),%rax        # 19350 <g_329>
    fb11:	be 04 00 00 00       	mov    $0x4,%esi
    fb16:	89 c7                	mov    %eax,%edi
    fb18:	e8 99 8a ff ff       	callq  85b6 <safe_add_func_int32_t_s_s>
    fb1d:	48 98                	cltq   
    fb1f:	48 89 05 2a 98 00 00 	mov    %rax,0x982a(%rip)        # 19350 <g_329>
    fb26:	48 8b 05 23 98 00 00 	mov    0x9823(%rip),%rax        # 19350 <g_329>
    fb2d:	48 83 f8 1a          	cmp    $0x1a,%rax
    fb31:	0f 8f 35 fe ff ff    	jg     f96c <func_49+0x538>
    fb37:	eb 0a                	jmp    fb43 <func_49+0x70f>
    fb39:	8b 85 44 fe ff ff    	mov    -0x1bc(%rbp),%eax
    fb3f:	85 c0                	test   %eax,%eax
    fb41:	75 32                	jne    fb75 <func_49+0x741>
    fb43:	0f b7 05 f2 95 00 00 	movzwl 0x95f2(%rip),%eax        # 1913c <g_166>
    fb4a:	0f be c0             	movsbl %al,%eax
    fb4d:	be 05 00 00 00       	mov    $0x5,%esi
    fb52:	89 c7                	mov    %eax,%edi
    fb54:	e8 7b 86 ff ff       	callq  81d4 <safe_add_func_int8_t_s_s>
    fb59:	66 98                	cbtw   
    fb5b:	66 89 05 da 95 00 00 	mov    %ax,0x95da(%rip)        # 1913c <g_166>
    fb62:	0f b7 05 d3 95 00 00 	movzwl 0x95d3(%rip),%eax        # 1913c <g_166>
    fb69:	66 83 f8 0a          	cmp    $0xa,%ax
    fb6d:	0f 85 63 fc ff ff    	jne    f7d6 <func_49+0x3a2>
    fb73:	eb 01                	jmp    fb76 <func_49+0x742>
    fb75:	90                   	nop
    fb76:	8b 05 9c 95 00 00    	mov    0x959c(%rip),%eax        # 19118 <g_62>
    fb7c:	e9 fa 01 00 00       	jmpq   fd7b <func_49+0x947>
    fb81:	48 8d 05 a0 96 00 00 	lea    0x96a0(%rip),%rax        # 19228 <g_325>
    fb88:	48 89 85 90 fe ff ff 	mov    %rax,-0x170(%rbp)
    fb8f:	48 8d 85 90 fe ff ff 	lea    -0x170(%rbp),%rax
    fb96:	48 89 85 e8 fe ff ff 	mov    %rax,-0x118(%rbp)
    fb9d:	c7 85 5c fe ff ff 8c 	movl   $0xd9789b8c,-0x1a4(%rbp)
    fba4:	9b 78 d9 
    fba7:	8b 9d 44 fe ff ff    	mov    -0x1bc(%rbp),%ebx
    fbad:	bf 90 6e 00 00       	mov    $0x6e90,%edi
    fbb2:	e8 e6 87 ff ff       	callq  839d <safe_unary_minus_func_int16_t_s>
    fbb7:	0f b7 05 fc 97 00 00 	movzwl 0x97fc(%rip),%eax        # 193ba <g_958+0x2>
    fbbe:	66 c1 e8 02          	shr    $0x2,%ax
    fbc2:	66 25 ff 07          	and    $0x7ff,%ax
    fbc6:	0f b6 c0             	movzbl %al,%eax
    fbc9:	89 c6                	mov    %eax,%esi
    fbcb:	bf f5 00 00 00       	mov    $0xf5,%edi
    fbd0:	e8 d9 8f ff ff       	callq  8bae <safe_mod_func_uint8_t_u_u>
    fbd5:	48 8b 15 9c b9 00 00 	mov    0xb99c(%rip),%rdx        # 1b578 <g_950>
    fbdc:	48 8b 05 95 b9 00 00 	mov    0xb995(%rip),%rax        # 1b578 <g_950>
    fbe3:	48 8b 12             	mov    (%rdx),%rdx
    fbe6:	48 89 10             	mov    %rdx,(%rax)
    fbe9:	48 8b 00             	mov    (%rax),%rax
    fbec:	48 39 85 e8 fe ff ff 	cmp    %rax,-0x118(%rbp)
    fbf3:	0f 95 c0             	setne  %al
    fbf6:	0f b6 c0             	movzbl %al,%eax
    fbf9:	39 85 40 fe ff ff    	cmp    %eax,-0x1c0(%rbp)
    fbff:	0f 95 c0             	setne  %al
    fc02:	0f b6 d0             	movzbl %al,%edx
    fc05:	0f b7 05 5e 98 00 00 	movzwl 0x985e(%rip),%eax        # 1946a <g_1307+0xa>
    fc0c:	66 c1 e8 06          	shr    $0x6,%ax
    fc10:	80 e4 ff             	and    $0xff,%ah
    fc13:	0f b6 c8             	movzbl %al,%ecx
    fc16:	48 8b 05 6b b6 00 00 	mov    0xb66b(%rip),%rax        # 1b288 <g_287>
    fc1d:	48 8b 00             	mov    (%rax),%rax
    fc20:	48 83 c8 fc          	or     $0xfffffffffffffffc,%rax
    fc24:	48 21 c8             	and    %rcx,%rax
    fc27:	48 39 c2             	cmp    %rax,%rdx
    fc2a:	0f 95 c0             	setne  %al
    fc2d:	0f b6 c0             	movzbl %al,%eax
    fc30:	89 de                	mov    %ebx,%esi
    fc32:	89 c7                	mov    %eax,%edi
    fc34:	e8 a8 88 ff ff       	callq  84e1 <safe_lshift_func_int16_t_s_u>
    fc39:	0f bf d0             	movswl %ax,%edx
    fc3c:	8b 05 d2 95 00 00    	mov    0x95d2(%rip),%eax        # 19214 <g_272>
    fc42:	31 c2                	xor    %eax,%edx
    fc44:	8b 85 44 fe ff ff    	mov    -0x1bc(%rbp),%eax
    fc4a:	39 c2                	cmp    %eax,%edx
    fc4c:	0f 97 c0             	seta   %al
    fc4f:	0f b6 d0             	movzbl %al,%edx
    fc52:	8b 85 44 fe ff ff    	mov    -0x1bc(%rbp),%eax
    fc58:	31 d0                	xor    %edx,%eax
    fc5a:	89 c2                	mov    %eax,%edx
    fc5c:	48 8b 85 98 fe ff ff 	mov    -0x168(%rbp),%rax
    fc63:	89 10                	mov    %edx,(%rax)
    fc65:	48 8b 85 98 fe ff ff 	mov    -0x168(%rbp),%rax
    fc6c:	8b 00                	mov    (%rax),%eax
    fc6e:	41 89 c5             	mov    %eax,%r13d
    fc71:	8b 85 40 fe ff ff    	mov    -0x1c0(%rbp),%eax
    fc77:	0f b6 d8             	movzbl %al,%ebx
    fc7a:	48 8b 05 c7 97 00 00 	mov    0x97c7(%rip),%rax        # 19448 <g_1279+0x8>
    fc81:	0f be c0             	movsbl %al,%eax
    fc84:	be 01 00 00 00       	mov    $0x1,%esi
    fc89:	89 c7                	mov    %eax,%edi
    fc8b:	e8 62 85 ff ff       	callq  81f2 <safe_sub_func_int8_t_s_s>
    fc90:	48 0f be c0          	movsbq %al,%rax
    fc94:	48 35 44 bd 15 23    	xor    $0x2315bd44,%rax
    fc9a:	48 3d a8 fc c6 74    	cmp    $0x74c6fca8,%rax
    fca0:	0f 9f c0             	setg   %al
    fca3:	0f b6 c0             	movzbl %al,%eax
    fca6:	89 de                	mov    %ebx,%esi
    fca8:	89 c7                	mov    %eax,%edi
    fcaa:	e8 e4 8e ff ff       	callq  8b93 <safe_mul_func_uint8_t_u_u>
    fcaf:	8b 05 bb 95 00 00    	mov    0x95bb(%rip),%eax        # 19270 <g_326+0x30>
    fcb5:	41 89 c4             	mov    %eax,%r12d
    fcb8:	8b 85 44 fe ff ff    	mov    -0x1bc(%rbp),%eax
    fcbe:	0f bf d8             	movswl %ax,%ebx
    fcc1:	48 8b 85 98 fe ff ff 	mov    -0x168(%rbp),%rax
    fcc8:	8b 00                	mov    (%rax),%eax
    fcca:	0f b6 c0             	movzbl %al,%eax
    fccd:	be 03 00 00 00       	mov    $0x3,%esi
    fcd2:	89 c7                	mov    %eax,%edi
    fcd4:	e8 2c 8f ff ff       	callq  8c05 <safe_lshift_func_uint8_t_u_s>
    fcd9:	8b 85 40 fe ff ff    	mov    -0x1c0(%rbp),%eax
    fcdf:	98                   	cwtl   
    fce0:	89 de                	mov    %ebx,%esi
    fce2:	89 c7                	mov    %eax,%edi
    fce4:	e8 6c 87 ff ff       	callq  8455 <safe_div_func_int16_t_s_s>
    fce9:	98                   	cwtl   
    fcea:	44 89 e6             	mov    %r12d,%esi
    fced:	89 c7                	mov    %eax,%edi
    fcef:	e8 dc 91 ff ff       	callq  8ed0 <safe_sub_func_uint32_t_u_u>
    fcf4:	98                   	cwtl   
    fcf5:	be 05 00 00 00       	mov    $0x5,%esi
    fcfa:	89 c7                	mov    %eax,%edi
    fcfc:	e8 62 88 ff ff       	callq  8563 <safe_rshift_func_int16_t_s_u>
    fd01:	48 8d 85 80 fe ff ff 	lea    -0x180(%rbp),%rax
    fd08:	48 39 85 d8 fe ff ff 	cmp    %rax,-0x128(%rbp)
    fd0f:	0f 95 c2             	setne  %dl
    fd12:	48 8b 85 70 fe ff ff 	mov    -0x190(%rbp),%rax
    fd19:	0f b6 d2             	movzbl %dl,%edx
    fd1c:	48 89 10             	mov    %rdx,(%rax)
    fd1f:	48 8b 00             	mov    (%rax),%rax
    fd22:	44 09 e8             	or     %r13d,%eax
    fd25:	89 c2                	mov    %eax,%edx
    fd27:	48 8b 85 98 fe ff ff 	mov    -0x168(%rbp),%rax
    fd2e:	89 10                	mov    %edx,(%rax)
    fd30:	48 8b 95 78 fe ff ff 	mov    -0x188(%rbp),%rdx
    fd37:	48 8b 05 42 b8 00 00 	mov    0xb842(%rip),%rax        # 1b580 <g_1513>
    fd3e:	48 39 c2             	cmp    %rax,%rdx
    fd41:	0f 95 c0             	setne  %al
    fd44:	0f b6 d8             	movzbl %al,%ebx
    fd47:	8b 85 44 fe ff ff    	mov    -0x1bc(%rbp),%eax
    fd4d:	89 c2                	mov    %eax,%edx
    fd4f:	48 8b 85 98 fe ff ff 	mov    -0x168(%rbp),%rax
    fd56:	8b 00                	mov    (%rax),%eax
    fd58:	48 98                	cltq   
    fd5a:	48 89 d6             	mov    %rdx,%rsi
    fd5d:	48 89 c7             	mov    %rax,%rdi
    fd60:	e8 4a 93 ff ff       	callq  90af <safe_div_func_uint64_t_u_u>
    fd65:	48 39 c3             	cmp    %rax,%rbx
    fd68:	0f 95 c0             	setne  %al
    fd6b:	0f b6 c0             	movzbl %al,%eax
    fd6e:	48 89 85 e0 fe ff ff 	mov    %rax,-0x120(%rbp)
    fd75:	8b 85 44 fe ff ff    	mov    -0x1bc(%rbp),%eax
    fd7b:	48 8b 4d c8          	mov    -0x38(%rbp),%rcx
    fd7f:	64 48 33 0c 25 28 00 	xor    %fs:0x28,%rcx
    fd86:	00 00 
    fd88:	74 05                	je     fd8f <func_49+0x95b>
    fd8a:	e8 e1 82 ff ff       	callq  8070 <__stack_chk_fail@plt>
    fd8f:	48 81 c4 a8 01 00 00 	add    $0x1a8,%rsp
    fd96:	5b                   	pop    %rbx
    fd97:	41 5c                	pop    %r12
    fd99:	41 5d                	pop    %r13
    fd9b:	41 5e                	pop    %r14
    fd9d:	41 5f                	pop    %r15
    fd9f:	5d                   	pop    %rbp
    fda0:	c3                   	retq   

000000000000fda1 <func_55>:
    fda1:	f3 0f 1e fa          	endbr64 
    fda5:	55                   	push   %rbp
    fda6:	48 89 e5             	mov    %rsp,%rbp
    fda9:	53                   	push   %rbx
    fdaa:	48 81 ec 98 04 00 00 	sub    $0x498,%rsp
    fdb1:	89 bd 7c fb ff ff    	mov    %edi,-0x484(%rbp)
    fdb7:	89 b5 78 fb ff ff    	mov    %esi,-0x488(%rbp)
    fdbd:	48 89 95 70 fb ff ff 	mov    %rdx,-0x490(%rbp)
    fdc4:	89 c8                	mov    %ecx,%eax
    fdc6:	66 89 85 6c fb ff ff 	mov    %ax,-0x494(%rbp)
    fdcd:	64 48 8b 04 25 28 00 	mov    %fs:0x28,%rax
    fdd4:	00 00 
    fdd6:	48 89 45 e8          	mov    %rax,-0x18(%rbp)
    fdda:	31 c0                	xor    %eax,%eax
    fddc:	66 c7 85 86 fb ff ff 	movw   $0x20b2,-0x47a(%rbp)
    fde3:	b2 20 
    fde5:	48 8d 05 1c 93 00 00 	lea    0x931c(%rip),%rax        # 19108 <g_4>
    fdec:	48 89 85 c8 fb ff ff 	mov    %rax,-0x438(%rbp)
    fdf3:	c7 85 90 fb ff ff 00 	movl   $0x0,-0x470(%rbp)
    fdfa:	00 00 00 
    fdfd:	c7 85 88 fb ff ff 7d 	movl   $0xaa0ffb7d,-0x478(%rbp)
    fe04:	fb 0f aa 
    fe07:	c7 85 94 fb ff ff 01 	movl   $0x1,-0x46c(%rbp)
    fe0e:	00 00 00 
    fe11:	c7 85 98 fb ff ff 2f 	movl   $0xcf3ce62f,-0x468(%rbp)
    fe18:	e6 3c cf 
    fe1b:	48 8d 05 3e b4 00 00 	lea    0xb43e(%rip),%rax        # 1b260 <g_89>
    fe22:	48 89 85 10 fd ff ff 	mov    %rax,-0x2f0(%rbp)
    fe29:	48 8d 85 c8 fb ff ff 	lea    -0x438(%rbp),%rax
    fe30:	48 89 85 18 fd ff ff 	mov    %rax,-0x2e8(%rbp)
    fe37:	48 8d 05 22 b4 00 00 	lea    0xb422(%rip),%rax        # 1b260 <g_89>
    fe3e:	48 89 85 20 fd ff ff 	mov    %rax,-0x2e0(%rbp)
    fe45:	48 8d 05 14 b4 00 00 	lea    0xb414(%rip),%rax        # 1b260 <g_89>
    fe4c:	48 89 85 28 fd ff ff 	mov    %rax,-0x2d8(%rbp)
    fe53:	48 8d 85 c8 fb ff ff 	lea    -0x438(%rbp),%rax
    fe5a:	48 89 85 30 fd ff ff 	mov    %rax,-0x2d0(%rbp)
    fe61:	48 8d 05 f8 b3 00 00 	lea    0xb3f8(%rip),%rax        # 1b260 <g_89>
    fe68:	48 89 85 38 fd ff ff 	mov    %rax,-0x2c8(%rbp)
    fe6f:	48 8d 05 ea b3 00 00 	lea    0xb3ea(%rip),%rax        # 1b260 <g_89>
    fe76:	48 89 85 40 fd ff ff 	mov    %rax,-0x2c0(%rbp)
    fe7d:	48 8d 85 c8 fb ff ff 	lea    -0x438(%rbp),%rax
    fe84:	48 89 85 48 fd ff ff 	mov    %rax,-0x2b8(%rbp)
    fe8b:	48 8d 05 ce b3 00 00 	lea    0xb3ce(%rip),%rax        # 1b260 <g_89>
    fe92:	48 89 85 50 fd ff ff 	mov    %rax,-0x2b0(%rbp)
    fe99:	48 8d 05 c0 b3 00 00 	lea    0xb3c0(%rip),%rax        # 1b260 <g_89>
    fea0:	48 89 85 58 fd ff ff 	mov    %rax,-0x2a8(%rbp)
    fea7:	48 8d 85 c8 fb ff ff 	lea    -0x438(%rbp),%rax
    feae:	48 89 85 60 fd ff ff 	mov    %rax,-0x2a0(%rbp)
    feb5:	48 8d 05 a4 b3 00 00 	lea    0xb3a4(%rip),%rax        # 1b260 <g_89>
    febc:	48 89 85 68 fd ff ff 	mov    %rax,-0x298(%rbp)
    fec3:	48 8d 05 96 b3 00 00 	lea    0xb396(%rip),%rax        # 1b260 <g_89>
    feca:	48 89 85 70 fd ff ff 	mov    %rax,-0x290(%rbp)
    fed1:	48 8d 85 c8 fb ff ff 	lea    -0x438(%rbp),%rax
    fed8:	48 89 85 78 fd ff ff 	mov    %rax,-0x288(%rbp)
    fedf:	48 8d 05 7a b3 00 00 	lea    0xb37a(%rip),%rax        # 1b260 <g_89>
    fee6:	48 89 85 80 fd ff ff 	mov    %rax,-0x280(%rbp)
    feed:	48 8d 05 6c b3 00 00 	lea    0xb36c(%rip),%rax        # 1b260 <g_89>
    fef4:	48 89 85 88 fd ff ff 	mov    %rax,-0x278(%rbp)
    fefb:	48 8d 85 c8 fb ff ff 	lea    -0x438(%rbp),%rax
    ff02:	48 89 85 90 fd ff ff 	mov    %rax,-0x270(%rbp)
    ff09:	48 8d 05 50 b3 00 00 	lea    0xb350(%rip),%rax        # 1b260 <g_89>
    ff10:	48 89 85 98 fd ff ff 	mov    %rax,-0x268(%rbp)
    ff17:	48 8d 85 10 fd ff ff 	lea    -0x2f0(%rbp),%rax
    ff1e:	48 89 85 d0 fb ff ff 	mov    %rax,-0x430(%rbp)
    ff25:	48 c7 85 70 fb ff ff 	movq   $0x3,-0x490(%rbp)
    ff2c:	03 00 00 00 
    ff30:	e9 cf 07 00 00       	jmpq   10704 <func_55+0x963>
    ff35:	48 8d 85 a0 fd ff ff 	lea    -0x260(%rbp),%rax
    ff3c:	48 8d 15 dd b0 00 00 	lea    0xb0dd(%rip),%rdx        # 1b020 <g_2571+0x1600>
    ff43:	b9 48 00 00 00       	mov    $0x48,%ecx
    ff48:	48 89 c7             	mov    %rax,%rdi
    ff4b:	48 89 d6             	mov    %rdx,%rsi
    ff4e:	f3 48 a5             	rep movsq %ds:(%rsi),%es:(%rdi)
    ff51:	48 8d 85 10 fd ff ff 	lea    -0x2f0(%rbp),%rax
    ff58:	48 83 c0 40          	add    $0x40,%rax
    ff5c:	48 89 85 f0 fb ff ff 	mov    %rax,-0x410(%rbp)
    ff63:	8b 05 af 91 00 00    	mov    0x91af(%rip),%eax        # 19118 <g_62>
    ff69:	83 c0 01             	add    $0x1,%eax
    ff6c:	89 05 a6 91 00 00    	mov    %eax,0x91a6(%rip)        # 19118 <g_62>
    ff72:	66 83 ad 86 fb ff ff 	subw   $0x1,-0x47a(%rbp)
    ff79:	01 
    ff7a:	66 c7 85 86 fb ff ff 	movw   $0x0,-0x47a(%rbp)
    ff81:	00 00 
    ff83:	e9 66 07 00 00       	jmpq   106ee <func_55+0x94d>
    ff88:	c7 85 a4 fb ff ff 02 	movl   $0x2,-0x45c(%rbp)
    ff8f:	00 00 00 
    ff92:	c7 85 8c fb ff ff 70 	movl   $0xf37b3d70,-0x474(%rbp)
    ff99:	3d 7b f3 
    ff9c:	48 8d 85 88 fb ff ff 	lea    -0x478(%rbp),%rax
    ffa3:	48 89 85 f8 fb ff ff 	mov    %rax,-0x408(%rbp)
    ffaa:	48 8d 05 bf 94 00 00 	lea    0x94bf(%rip),%rax        # 19470 <g_1394>
    ffb1:	48 89 85 00 fc ff ff 	mov    %rax,-0x400(%rbp)
    ffb8:	48 8d 85 10 fd ff ff 	lea    -0x2f0(%rbp),%rax
    ffbf:	48 89 85 08 fc ff ff 	mov    %rax,-0x3f8(%rbp)
    ffc6:	48 8b 85 c8 fb ff ff 	mov    -0x438(%rbp),%rax
    ffcd:	48 8d 15 40 91 00 00 	lea    0x9140(%rip),%rdx        # 19114 <g_61>
    ffd4:	48 39 d0             	cmp    %rdx,%rax
    ffd7:	0f 84 c2 04 00 00    	je     1049f <func_55+0x6fe>
    ffdd:	48 c7 85 40 fc ff ff 	movq   $0xffffffffffffffff,-0x3c0(%rbp)
    ffe4:	ff ff ff ff 
    ffe8:	48 8d 85 8c fb ff ff 	lea    -0x474(%rbp),%rax
    ffef:	48 89 85 e8 fb ff ff 	mov    %rax,-0x418(%rbp)
    fff6:	c7 85 ac fb ff ff 09 	movl   $0x9,-0x454(%rbp)
    fffd:	00 00 00 
   10000:	c7 85 d8 fb ff ff 00 	movl   $0x0,-0x428(%rbp)
   10007:	00 00 00 
   1000a:	c7 85 b0 fb ff ff 56 	movl   $0x2aff9856,-0x450(%rbp)
   10011:	98 ff 2a 
   10014:	c7 05 f6 90 00 00 03 	movl   $0x3,0x90f6(%rip)        # 19114 <g_61>
   1001b:	00 00 00 
   1001e:	e9 69 04 00 00       	jmpq   1048c <func_55+0x6eb>
   10023:	48 8d 05 fe cf 00 00 	lea    0xcffe(%rip),%rax        # 1d028 <g_85>
   1002a:	48 89 85 48 fc ff ff 	mov    %rax,-0x3b8(%rbp)
   10031:	48 8d 05 70 93 00 00 	lea    0x9370(%rip),%rax        # 193a8 <g_745>
   10038:	48 89 85 50 fc ff ff 	mov    %rax,-0x3b0(%rbp)
   1003f:	48 8d 05 24 93 00 00 	lea    0x9324(%rip),%rax        # 1936a <g_403+0x2>
   10046:	48 89 85 58 fc ff ff 	mov    %rax,-0x3a8(%rbp)
   1004d:	48 8d 05 1a 51 00 00 	lea    0x511a(%rip),%rax        # 1516e <g_1354+0x6e>
   10054:	48 89 85 e0 fb ff ff 	mov    %rax,-0x420(%rbp)
   1005b:	48 8d 85 e0 fb ff ff 	lea    -0x420(%rbp),%rax
   10062:	48 89 85 60 fc ff ff 	mov    %rax,-0x3a0(%rbp)
   10069:	48 8d 05 ae 93 00 00 	lea    0x93ae(%rip),%rax        # 1941e <g_1182+0x1e>
   10070:	48 89 85 a0 fc ff ff 	mov    %rax,-0x360(%rbp)
   10077:	48 8d 05 b4 90 00 00 	lea    0x90b4(%rip),%rax        # 19132 <g_132>
   1007e:	48 89 85 a8 fc ff ff 	mov    %rax,-0x358(%rbp)
   10085:	48 8d 05 92 93 00 00 	lea    0x9392(%rip),%rax        # 1941e <g_1182+0x1e>
   1008c:	48 89 85 b0 fc ff ff 	mov    %rax,-0x350(%rbp)
   10093:	48 8d 05 98 90 00 00 	lea    0x9098(%rip),%rax        # 19132 <g_132>
   1009a:	48 89 85 b8 fc ff ff 	mov    %rax,-0x348(%rbp)
   100a1:	48 8d 05 76 93 00 00 	lea    0x9376(%rip),%rax        # 1941e <g_1182+0x1e>
   100a8:	48 89 85 c0 fc ff ff 	mov    %rax,-0x340(%rbp)
   100af:	48 8d 05 7c 90 00 00 	lea    0x907c(%rip),%rax        # 19132 <g_132>
   100b6:	48 89 85 c8 fc ff ff 	mov    %rax,-0x338(%rbp)
   100bd:	48 8d 05 5a 93 00 00 	lea    0x935a(%rip),%rax        # 1941e <g_1182+0x1e>
   100c4:	48 89 85 d0 fc ff ff 	mov    %rax,-0x330(%rbp)
   100cb:	48 8d 05 60 90 00 00 	lea    0x9060(%rip),%rax        # 19132 <g_132>
   100d2:	48 89 85 d8 fc ff ff 	mov    %rax,-0x328(%rbp)
   100d9:	48 8d 05 3e 93 00 00 	lea    0x933e(%rip),%rax        # 1941e <g_1182+0x1e>
   100e0:	48 89 85 e0 fc ff ff 	mov    %rax,-0x320(%rbp)
   100e7:	48 8d 05 44 90 00 00 	lea    0x9044(%rip),%rax        # 19132 <g_132>
   100ee:	48 89 85 e8 fc ff ff 	mov    %rax,-0x318(%rbp)
   100f5:	48 8d 05 22 93 00 00 	lea    0x9322(%rip),%rax        # 1941e <g_1182+0x1e>
   100fc:	48 89 85 f0 fc ff ff 	mov    %rax,-0x310(%rbp)
   10103:	48 8d 05 28 90 00 00 	lea    0x9028(%rip),%rax        # 19132 <g_132>
   1010a:	48 89 85 f8 fc ff ff 	mov    %rax,-0x308(%rbp)
   10111:	48 8d 05 06 93 00 00 	lea    0x9306(%rip),%rax        # 1941e <g_1182+0x1e>
   10118:	48 89 85 00 fd ff ff 	mov    %rax,-0x300(%rbp)
   1011f:	48 8d 05 0c 90 00 00 	lea    0x900c(%rip),%rax        # 19132 <g_132>
   10126:	48 89 85 08 fd ff ff 	mov    %rax,-0x2f8(%rbp)
   1012d:	c7 85 b4 fb ff ff 00 	movl   $0x0,-0x44c(%rbp)
   10134:	00 00 00 
   10137:	48 8d 85 a0 fd ff ff 	lea    -0x260(%rbp),%rax
   1013e:	48 05 08 01 00 00    	add    $0x108,%rax
   10144:	48 89 85 68 fc ff ff 	mov    %rax,-0x398(%rbp)
   1014b:	c7 85 9c fb ff ff 00 	movl   $0x0,-0x464(%rbp)
   10152:	00 00 00 
   10155:	eb 1a                	jmp    10171 <func_55+0x3d0>
   10157:	8b 85 9c fb ff ff    	mov    -0x464(%rbp),%eax
   1015d:	48 98                	cltq   
   1015f:	c7 84 85 84 fc ff ff 	movl   $0x1f893028,-0x37c(%rbp,%rax,4)
   10166:	28 30 89 1f 
   1016a:	83 85 9c fb ff ff 01 	addl   $0x1,-0x464(%rbp)
   10171:	83 bd 9c fb ff ff 02 	cmpl   $0x2,-0x464(%rbp)
   10178:	7e dd                	jle    10157 <func_55+0x3b6>
   1017a:	48 8b 85 40 fc ff ff 	mov    -0x3c0(%rbp),%rax
   10181:	0f b7 d8             	movzwl %ax,%ebx
   10184:	be 73 fd 00 00       	mov    $0xfd73,%esi
   10189:	bf 01 00 00 00       	mov    $0x1,%edi
   1018e:	e8 fb 8b ff ff       	callq  8d8e <safe_div_func_uint16_t_u_u>
   10193:	89 c2                	mov    %eax,%edx
   10195:	8b 05 7d 8f 00 00    	mov    0x8f7d(%rip),%eax        # 19118 <g_62>
   1019b:	21 d0                	and    %edx,%eax
   1019d:	0f b6 c0             	movzbl %al,%eax
   101a0:	48 8d 15 61 8f 00 00 	lea    0x8f61(%rip),%rdx        # 19108 <g_4>
   101a7:	89 c6                	mov    %eax,%esi
   101a9:	48 8d 3d 58 8f 00 00 	lea    0x8f58(%rip),%rdi        # 19108 <g_4>
   101b0:	e8 78 0b 00 00       	callq  10d2d <func_73>
   101b5:	89 c7                	mov    %eax,%edi
   101b7:	e8 7d 05 00 00       	callq  10739 <func_71>
   101bc:	0f b7 c0             	movzwl %ax,%eax
   101bf:	89 de                	mov    %ebx,%esi
   101c1:	89 c7                	mov    %eax,%edi
   101c3:	e8 75 8b ff ff       	callq  8d3d <safe_mul_func_uint16_t_u_u>
   101c8:	0f b7 c0             	movzwl %ax,%eax
   101cb:	09 85 90 fb ff ff    	or     %eax,-0x470(%rbp)
   101d1:	48 8b 85 50 fc ff ff 	mov    -0x3b0(%rbp),%rax
   101d8:	0f b7 00             	movzwl (%rax),%eax
   101db:	8d 48 ff             	lea    -0x1(%rax),%ecx
   101de:	48 8b 95 50 fc ff ff 	mov    -0x3b0(%rbp),%rdx
   101e5:	66 89 0a             	mov    %cx,(%rdx)
   101e8:	66 85 c0             	test   %ax,%ax
   101eb:	0f 85 11 01 00 00    	jne    10302 <func_55+0x561>
   101f1:	48 8b 85 60 fc ff ff 	mov    -0x3a0(%rbp),%rax
   101f8:	48 8d 15 6c 91 00 00 	lea    0x916c(%rip),%rdx        # 1936b <g_403+0x3>
   101ff:	48 89 10             	mov    %rdx,(%rax)
   10202:	0f b7 9d 6c fb ff ff 	movzwl -0x494(%rbp),%ebx
   10209:	0f b7 95 6c fb ff ff 	movzwl -0x494(%rbp),%edx
   10210:	48 8b 85 70 fb ff ff 	mov    -0x490(%rbp),%rax
   10217:	48 8d 48 02          	lea    0x2(%rax),%rcx
   1021b:	0f b7 85 86 fb ff ff 	movzwl -0x47a(%rbp),%eax
   10222:	48 98                	cltq   
   10224:	48 c1 e1 02          	shl    $0x2,%rcx
   10228:	48 01 c8             	add    %rcx,%rax
   1022b:	48 8d 0c c5 00 00 00 	lea    0x0(,%rax,8),%rcx
   10232:	00 
   10233:	48 8d 05 06 8e 00 00 	lea    0x8e06(%rip),%rax        # 19040 <g_2>
   1023a:	48 8b 04 01          	mov    (%rcx,%rax,1),%rax
   1023e:	48 39 c2             	cmp    %rax,%rdx
   10241:	0f 96 c0             	setbe  %al
   10244:	0f b6 c0             	movzbl %al,%eax
   10247:	48 be 59 e1 fb 9b 34 	movabs $0x391d3a349bfbe159,%rsi
   1024e:	3a 1d 39 
   10251:	48 89 c7             	mov    %rax,%rdi
   10254:	e8 d5 8d ff ff       	callq  902e <safe_add_func_uint64_t_u_u>
   10259:	89 de                	mov    %ebx,%esi
   1025b:	89 c7                	mov    %eax,%edi
   1025d:	e8 c3 8c ff ff       	callq  8f25 <safe_div_func_uint32_t_u_u>
   10262:	0f b7 05 77 91 00 00 	movzwl 0x9177(%rip),%eax        # 193e0 <g_986+0x8>
   10269:	c1 e0 07             	shl    $0x7,%eax
   1026c:	66 c1 f8 07          	sar    $0x7,%ax
   10270:	0f b7 d8             	movzwl %ax,%ebx
   10273:	c7 85 8c fb ff ff 01 	movl   $0x1,-0x474(%rbp)
   1027a:	00 00 00 
   1027d:	be 0c 00 00 00       	mov    $0xc,%esi
   10282:	bf 01 00 00 00       	mov    $0x1,%edi
   10287:	e8 bc 8b ff ff       	callq  8e48 <safe_rshift_func_uint16_t_u_s>
   1028c:	98                   	cwtl   
   1028d:	8b 95 78 fb ff ff    	mov    -0x488(%rbp),%edx
   10293:	89 d6                	mov    %edx,%esi
   10295:	89 c7                	mov    %eax,%edi
   10297:	e8 45 82 ff ff       	callq  84e1 <safe_lshift_func_int16_t_s_u>
   1029c:	98                   	cwtl   
   1029d:	39 85 a4 fb ff ff    	cmp    %eax,-0x45c(%rbp)
   102a3:	0f 95 c0             	setne  %al
   102a6:	0f b6 c0             	movzbl %al,%eax
   102a9:	89 de                	mov    %ebx,%esi
   102ab:	89 c7                	mov    %eax,%edi
   102ad:	e8 6d 8a ff ff       	callq  8d1f <safe_sub_func_uint16_t_u_u>
   102b2:	98                   	cwtl   
   102b3:	be 00 00 00 00       	mov    $0x0,%esi
   102b8:	89 c7                	mov    %eax,%edi
   102ba:	e8 a4 82 ff ff       	callq  8563 <safe_rshift_func_int16_t_s_u>
   102bf:	89 c2                	mov    %eax,%edx
   102c1:	48 8b 85 58 fc ff ff 	mov    -0x3a8(%rbp),%rax
   102c8:	88 10                	mov    %dl,(%rax)
   102ca:	48 8b 85 58 fc ff ff 	mov    -0x3a8(%rbp),%rax
   102d1:	0f b6 00             	movzbl (%rax),%eax
   102d4:	0f b6 c0             	movzbl %al,%eax
   102d7:	be fe 00 00 00       	mov    $0xfe,%esi
   102dc:	89 c7                	mov    %eax,%edi
   102de:	e8 cb 88 ff ff       	callq  8bae <safe_mod_func_uint8_t_u_u>
   102e3:	0f b7 15 34 91 00 00 	movzwl 0x9134(%rip),%edx        # 1941e <g_1182+0x1e>
   102ea:	0f b6 c0             	movzbl %al,%eax
   102ed:	31 d0                	xor    %edx,%eax
   102ef:	66 89 05 28 91 00 00 	mov    %ax,0x9128(%rip)        # 1941e <g_1182+0x1e>
   102f6:	0f b7 05 21 91 00 00 	movzwl 0x9121(%rip),%eax        # 1941e <g_1182+0x1e>
   102fd:	66 85 c0             	test   %ax,%ax
   10300:	74 07                	je     10309 <func_55+0x568>
   10302:	b8 01 00 00 00       	mov    $0x1,%eax
   10307:	eb 05                	jmp    1030e <func_55+0x56d>
   10309:	b8 00 00 00 00       	mov    $0x0,%eax
   1030e:	0f b7 c0             	movzwl %ax,%eax
   10311:	be 65 9b 00 00       	mov    $0x9b65,%esi
   10316:	89 c7                	mov    %eax,%edi
   10318:	e8 3f 8a ff ff       	callq  8d5c <safe_mod_func_uint16_t_u_u>
   1031d:	66 3d 69 19          	cmp    $0x1969,%ax
   10321:	0f b6 05 f1 8e 00 00 	movzbl 0x8ef1(%rip),%eax        # 19219 <g_315>
   10328:	0f b6 d8             	movzbl %al,%ebx
   1032b:	be 09 00 00 00       	mov    $0x9,%esi
   10330:	bf d7 57 00 00       	mov    $0x57d7,%edi
   10335:	e8 cc 8a ff ff       	callq  8e06 <safe_lshift_func_uint16_t_u_u>
   1033a:	0f b6 c0             	movzbl %al,%eax
   1033d:	89 de                	mov    %ebx,%esi
   1033f:	89 c7                	mov    %eax,%edi
   10341:	e8 47 89 ff ff       	callq  8c8d <safe_rshift_func_uint8_t_u_s>
   10346:	0f b6 c0             	movzbl %al,%eax
   10349:	66 89 05 ea 8d 00 00 	mov    %ax,0x8dea(%rip)        # 1913a <g_159>
   10350:	0f b7 05 e3 8d 00 00 	movzwl 0x8de3(%rip),%eax        # 1913a <g_159>
   10357:	66 85 c0             	test   %ax,%ax
   1035a:	75 0e                	jne    1036a <func_55+0x5c9>
   1035c:	48 83 bd 70 fb ff ff 	cmpq   $0x0,-0x490(%rbp)
   10363:	00 
   10364:	0f 84 ad 00 00 00    	je     10417 <func_55+0x676>
   1036a:	c7 85 c4 fb ff ff 6b 	movl   $0x9c2e5c6b,-0x43c(%rbp)
   10371:	5c 2e 9c 
   10374:	48 c7 85 78 fc ff ff 	movq   $0x0,-0x388(%rbp)
   1037b:	00 00 00 00 
   1037f:	c7 85 a0 fb ff ff 00 	movl   $0x0,-0x460(%rbp)
   10386:	00 00 00 
   10389:	eb 21                	jmp    103ac <func_55+0x60b>
   1038b:	8b 85 a0 fb ff ff    	mov    -0x460(%rbp),%eax
   10391:	48 98                	cltq   
   10393:	48 bb b5 b8 18 02 92 	movabs $0x86c962920218b8b5,%rbx
   1039a:	62 c9 86 
   1039d:	48 89 9c c5 90 fc ff 	mov    %rbx,-0x370(%rbp,%rax,8)
   103a4:	ff 
   103a5:	83 85 a0 fb ff ff 01 	addl   $0x1,-0x460(%rbp)
   103ac:	83 bd a0 fb ff ff 01 	cmpl   $0x1,-0x460(%rbp)
   103b3:	7e d6                	jle    1038b <func_55+0x5ea>
   103b5:	0f b7 85 6c fb ff ff 	movzwl -0x494(%rbp),%eax
   103bc:	48 39 85 70 fb ff ff 	cmp    %rax,-0x490(%rbp)
   103c3:	0f 9d c0             	setge  %al
   103c6:	0f b6 d0             	movzbl %al,%edx
   103c9:	48 8b 85 98 fc ff ff 	mov    -0x368(%rbp),%rax
   103d0:	48 39 c2             	cmp    %rax,%rdx
   103d3:	0f 9d c0             	setge  %al
   103d6:	0f b6 c0             	movzbl %al,%eax
   103d9:	89 85 7c fb ff ff    	mov    %eax,-0x484(%rbp)
   103df:	48 83 bd 40 fc ff ff 	cmpq   $0x0,-0x3c0(%rbp)
   103e6:	00 
   103e7:	0f 95 c0             	setne  %al
   103ea:	0f b6 c0             	movzbl %al,%eax
   103ed:	c1 e0 07             	shl    $0x7,%eax
   103f0:	66 c1 f8 07          	sar    $0x7,%ax
   103f4:	66 25 ff 01          	and    $0x1ff,%ax
   103f8:	89 c2                	mov    %eax,%edx
   103fa:	0f b7 05 ef 8f 00 00 	movzwl 0x8fef(%rip),%eax        # 193f0 <g_988+0x8>
   10401:	66 25 00 fe          	and    $0xfe00,%ax
   10405:	09 d0                	or     %edx,%eax
   10407:	66 89 05 e2 8f 00 00 	mov    %ax,0x8fe2(%rip)        # 193f0 <g_988+0x8>
   1040e:	83 ad 94 fb ff ff 01 	subl   $0x1,-0x46c(%rbp)
   10415:	eb 55                	jmp    1046c <func_55+0x6cb>
   10417:	48 8d 05 42 ae 00 00 	lea    0xae42(%rip),%rax        # 1b260 <g_89>
   1041e:	48 89 85 70 fc ff ff 	mov    %rax,-0x390(%rbp)
   10425:	c7 85 b8 fb ff ff 33 	movl   $0x77f67333,-0x448(%rbp)
   1042c:	73 f6 77 
   1042f:	c7 85 bc fb ff ff b5 	movl   $0x8818a9b5,-0x444(%rbp)
   10436:	a9 18 88 
   10439:	c7 85 c0 fb ff ff e2 	movl   $0xf4e252e2,-0x440(%rbp)
   10440:	52 e2 f4 
   10443:	48 8b 85 70 fc ff ff 	mov    -0x390(%rbp),%rax
   1044a:	48 8d 95 7c fb ff ff 	lea    -0x484(%rbp),%rdx
   10451:	48 89 10             	mov    %rdx,(%rax)
   10454:	48 8b 05 05 ae 00 00 	mov    0xae05(%rip),%rax        # 1b260 <g_89>
   1045b:	8b 00                	mov    (%rax),%eax
   1045d:	85 c0                	test   %eax,%eax
   1045f:	0f 85 72 02 00 00    	jne    106d7 <func_55+0x936>
   10465:	83 ad 98 fb ff ff 01 	subl   $0x1,-0x468(%rbp)
   1046c:	48 8b 85 68 fc ff ff 	mov    -0x398(%rbp),%rax
   10473:	48 8d 95 d8 fb ff ff 	lea    -0x428(%rbp),%rdx
   1047a:	48 89 10             	mov    %rdx,(%rax)
   1047d:	8b 05 91 8c 00 00    	mov    0x8c91(%rip),%eax        # 19114 <g_61>
   10483:	83 e8 01             	sub    $0x1,%eax
   10486:	89 05 88 8c 00 00    	mov    %eax,0x8c88(%rip)        # 19114 <g_61>
   1048c:	8b 05 82 8c 00 00    	mov    0x8c82(%rip),%eax        # 19114 <g_61>
   10492:	85 c0                	test   %eax,%eax
   10494:	0f 89 89 fb ff ff    	jns    10023 <func_55+0x282>
   1049a:	e9 39 02 00 00       	jmpq   106d8 <func_55+0x937>
   1049f:	48 8d 05 ba ad 00 00 	lea    0xadba(%rip),%rax        # 1b260 <g_89>
   104a6:	48 89 85 10 fc ff ff 	mov    %rax,-0x3f0(%rbp)
   104ad:	48 c7 85 18 fc ff ff 	movq   $0x0,-0x3e8(%rbp)
   104b4:	00 00 00 00 
   104b8:	48 8b 85 10 fc ff ff 	mov    -0x3f0(%rbp),%rax
   104bf:	48 8b 95 f8 fb ff ff 	mov    -0x408(%rbp),%rdx
   104c6:	48 89 10             	mov    %rdx,(%rax)
   104c9:	48 c7 05 dc 8e 00 00 	movq   $0x0,0x8edc(%rip)        # 193b0 <g_840>
   104d0:	00 00 00 00 
   104d4:	e9 eb 01 00 00       	jmpq   106c4 <func_55+0x923>
   104d9:	c7 85 a8 fb ff ff d3 	movl   $0x54065ed3,-0x458(%rbp)
   104e0:	5e 06 54 
   104e3:	48 c7 85 20 fc ff ff 	movq   $0x0,-0x3e0(%rbp)
   104ea:	00 00 00 00 
   104ee:	48 8d 05 f3 8b 00 00 	lea    0x8bf3(%rip),%rax        # 190e8 <g_2+0xa8>
   104f5:	48 89 85 28 fc ff ff 	mov    %rax,-0x3d8(%rbp)
   104fc:	48 8d 05 6b 4c 00 00 	lea    0x4c6b(%rip),%rax        # 1516e <g_1354+0x6e>
   10503:	48 89 85 d8 fb ff ff 	mov    %rax,-0x428(%rbp)
   1050a:	48 8d 85 d8 fb ff ff 	lea    -0x428(%rbp),%rax
   10511:	48 89 85 e0 fb ff ff 	mov    %rax,-0x420(%rbp)
   10518:	48 8d 85 e0 fb ff ff 	lea    -0x420(%rbp),%rax
   1051f:	48 89 85 30 fc ff ff 	mov    %rax,-0x3d0(%rbp)
   10526:	48 8d 85 d0 fb ff ff 	lea    -0x430(%rbp),%rax
   1052d:	48 89 85 38 fc ff ff 	mov    %rax,-0x3c8(%rbp)
   10534:	48 8b 85 c8 fb ff ff 	mov    -0x438(%rbp),%rax
   1053b:	8b 00                	mov    (%rax),%eax
   1053d:	85 c0                	test   %eax,%eax
   1053f:	0f 84 ed 00 00 00    	je     10632 <func_55+0x891>
   10545:	48 8b 85 28 fc ff ff 	mov    -0x3d8(%rbp),%rax
   1054c:	48 8b 00             	mov    (%rax),%rax
   1054f:	48 8d 50 ff          	lea    -0x1(%rax),%rdx
   10553:	48 8b 85 28 fc ff ff 	mov    -0x3d8(%rbp),%rax
   1055a:	48 89 10             	mov    %rdx,(%rax)
   1055d:	48 8b 05 1c ad 00 00 	mov    0xad1c(%rip),%rax        # 1b280 <g_276>
   10564:	48 8b 00             	mov    (%rax),%rax
   10567:	8b 10                	mov    (%rax),%edx
   10569:	83 ea 01             	sub    $0x1,%edx
   1056c:	89 10                	mov    %edx,(%rax)
   1056e:	8b 00                	mov    (%rax),%eax
   10570:	85 c0                	test   %eax,%eax
   10572:	0f 85 ba 00 00 00    	jne    10632 <func_55+0x891>
   10578:	8b 95 7c fb ff ff    	mov    -0x484(%rbp),%edx
   1057e:	48 8b 0d db ac 00 00 	mov    0xacdb(%rip),%rcx        # 1b260 <g_89>
   10585:	48 8b 85 10 fc ff ff 	mov    -0x3f0(%rbp),%rax
   1058c:	48 8b 00             	mov    (%rax),%rax
   1058f:	8b 09                	mov    (%rcx),%ecx
   10591:	89 08                	mov    %ecx,(%rax)
   10593:	8b 00                	mov    (%rax),%eax
   10595:	89 d6                	mov    %edx,%esi
   10597:	89 c7                	mov    %eax,%edi
   10599:	e8 2e 81 ff ff       	callq  86cc <safe_mod_func_int32_t_s_s>
   1059e:	48 8b 85 30 fc ff ff 	mov    -0x3d0(%rbp),%rax
   105a5:	48 c7 00 00 00 00 00 	movq   $0x0,(%rax)
   105ac:	48 8b 85 30 fc ff ff 	mov    -0x3d0(%rbp),%rax
   105b3:	48 8b 00             	mov    (%rax),%rax
   105b6:	48 39 85 18 fc ff ff 	cmp    %rax,-0x3e8(%rbp)
   105bd:	0f 95 c2             	setne  %dl
   105c0:	48 8b 05 b9 ac 00 00 	mov    0xacb9(%rip),%rax        # 1b280 <g_276>
   105c7:	48 8b 00             	mov    (%rax),%rax
   105ca:	0f b6 d2             	movzbl %dl,%edx
   105cd:	89 10                	mov    %edx,(%rax)
   105cf:	8b 10                	mov    (%rax),%edx
   105d1:	8b 85 a8 fb ff ff    	mov    -0x458(%rbp),%eax
   105d7:	39 c2                	cmp    %eax,%edx
   105d9:	0f 96 c0             	setbe  %al
   105dc:	0f b6 c0             	movzbl %al,%eax
   105df:	48 33 85 70 fb ff ff 	xor    -0x490(%rbp),%rax
   105e6:	48 89 c2             	mov    %rax,%rdx
   105e9:	0f b7 85 6c fb ff ff 	movzwl -0x494(%rbp),%eax
   105f0:	48 39 c2             	cmp    %rax,%rdx
   105f3:	0f 95 c0             	setne  %al
   105f6:	0f b6 c0             	movzbl %al,%eax
   105f9:	be 01 00 00 00       	mov    $0x1,%esi
   105fe:	89 c7                	mov    %eax,%edi
   10600:	e8 11 7e ff ff       	callq  8416 <safe_mod_func_int16_t_s_s>
   10605:	98                   	cwtl   
   10606:	39 85 a8 fb ff ff    	cmp    %eax,-0x458(%rbp)
   1060c:	0f 9f c0             	setg   %al
   1060f:	0f b6 c0             	movzbl %al,%eax
   10612:	be 08 00 00 00       	mov    $0x8,%esi
   10617:	89 c7                	mov    %eax,%edi
   10619:	e8 f4 7b ff ff       	callq  8212 <safe_mul_func_int8_t_s_s>
   1061e:	84 c0                	test   %al,%al
   10620:	75 08                	jne    1062a <func_55+0x889>
   10622:	8b 85 7c fb ff ff    	mov    -0x484(%rbp),%eax
   10628:	85 c0                	test   %eax,%eax
   1062a:	66 83 bd 6c fb ff ff 	cmpw   $0x0,-0x494(%rbp)
   10631:	00 
   10632:	ba 00 00 00 00       	mov    $0x0,%edx
   10637:	0f b7 85 6c fb ff ff 	movzwl -0x494(%rbp),%eax
   1063e:	39 c2                	cmp    %eax,%edx
   10640:	7c 07                	jl     10649 <func_55+0x8a8>
   10642:	b8 f5 00 00 00       	mov    $0xf5,%eax
   10647:	eb 05                	jmp    1064e <func_55+0x8ad>
   10649:	b8 f4 00 00 00       	mov    $0xf4,%eax
   1064e:	89 c6                	mov    %eax,%esi
   10650:	bf cc 00 00 00       	mov    $0xcc,%edi
   10655:	e8 39 85 ff ff       	callq  8b93 <safe_mul_func_uint8_t_u_u>
   1065a:	0f b6 c0             	movzbl %al,%eax
   1065d:	c1 e0 07             	shl    $0x7,%eax
   10660:	66 c1 f8 07          	sar    $0x7,%ax
   10664:	66 25 ff 01          	and    $0x1ff,%ax
   10668:	89 c2                	mov    %eax,%edx
   1066a:	0f b7 05 f7 8d 00 00 	movzwl 0x8df7(%rip),%eax        # 19468 <g_1307+0x8>
   10671:	66 25 00 fe          	and    $0xfe00,%ax
   10675:	09 d0                	or     %edx,%eax
   10677:	66 89 05 ea 8d 00 00 	mov    %ax,0x8dea(%rip)        # 19468 <g_1307+0x8>
   1067e:	8b 85 7c fb ff ff    	mov    -0x484(%rbp),%eax
   10684:	0f b6 c0             	movzbl %al,%eax
   10687:	be 07 00 00 00       	mov    $0x7,%esi
   1068c:	89 c7                	mov    %eax,%edi
   1068e:	e8 fa 85 ff ff       	callq  8c8d <safe_rshift_func_uint8_t_u_s>
   10693:	48 8b 95 d0 fb ff ff 	mov    -0x430(%rbp),%rdx
   1069a:	48 8b 85 38 fc ff ff 	mov    -0x3c8(%rbp),%rax
   106a1:	48 89 10             	mov    %rdx,(%rax)
   106a4:	48 8b 05 05 8d 00 00 	mov    0x8d05(%rip),%rax        # 193b0 <g_840>
   106ab:	0f b7 c0             	movzwl %ax,%eax
   106ae:	be 01 00 00 00       	mov    $0x1,%esi
   106b3:	89 c7                	mov    %eax,%edi
   106b5:	e8 45 86 ff ff       	callq  8cff <safe_add_func_uint16_t_u_u>
   106ba:	0f b7 c0             	movzwl %ax,%eax
   106bd:	48 89 05 ec 8c 00 00 	mov    %rax,0x8cec(%rip)        # 193b0 <g_840>
   106c4:	48 8b 05 e5 8c 00 00 	mov    0x8ce5(%rip),%rax        # 193b0 <g_840>
   106cb:	48 83 f8 24          	cmp    $0x24,%rax
   106cf:	0f 87 04 fe ff ff    	ja     104d9 <func_55+0x738>
   106d5:	eb 01                	jmp    106d8 <func_55+0x937>
   106d7:	90                   	nop
   106d8:	48 8b 85 f0 fb ff ff 	mov    -0x410(%rbp),%rax
   106df:	48 89 85 08 fc ff ff 	mov    %rax,-0x3f8(%rbp)
   106e6:	66 83 85 86 fb ff ff 	addw   $0x1,-0x47a(%rbp)
   106ed:	01 
   106ee:	66 83 bd 86 fb ff ff 	cmpw   $0x3,-0x47a(%rbp)
   106f5:	03 
   106f6:	0f 86 8c f8 ff ff    	jbe    ff88 <func_55+0x1e7>
   106fc:	48 83 ad 70 fb ff ff 	subq   $0x1,-0x490(%rbp)
   10703:	01 
   10704:	48 83 bd 70 fb ff ff 	cmpq   $0x0,-0x490(%rbp)
   1070b:	00 
   1070c:	0f 89 23 f8 ff ff    	jns    ff35 <func_55+0x194>
   10712:	0f b6 05 ff 8a 00 00 	movzbl 0x8aff(%rip),%eax        # 19218 <g_274>
   10719:	66 98                	cbtw   
   1071b:	48 8b 5d e8          	mov    -0x18(%rbp),%rbx
   1071f:	64 48 33 1c 25 28 00 	xor    %fs:0x28,%rbx
   10726:	00 00 
   10728:	74 05                	je     1072f <func_55+0x98e>
   1072a:	e8 41 79 ff ff       	callq  8070 <__stack_chk_fail@plt>
   1072f:	48 81 c4 98 04 00 00 	add    $0x498,%rsp
   10736:	5b                   	pop    %rbx
   10737:	5d                   	pop    %rbp
   10738:	c3                   	retq   

0000000000010739 <func_71>:
   10739:	f3 0f 1e fa          	endbr64 
   1073d:	55                   	push   %rbp
   1073e:	48 89 e5             	mov    %rsp,%rbp
   10741:	53                   	push   %rbx
   10742:	48 81 ec c8 06 00 00 	sub    $0x6c8,%rsp
   10749:	89 bd 3c f9 ff ff    	mov    %edi,-0x6c4(%rbp)
   1074f:	64 48 8b 04 25 28 00 	mov    %fs:0x28,%rax
   10756:	00 00 
   10758:	48 89 45 e8          	mov    %rax,-0x18(%rbp)
   1075c:	31 c0                	xor    %eax,%eax
   1075e:	c7 85 58 f9 ff ff 0e 	movl   $0x78f3150e,-0x6a8(%rbp)
   10765:	15 f3 78 
   10768:	48 8d 05 b9 8a 00 00 	lea    0x8ab9(%rip),%rax        # 19228 <g_325>
   1076f:	48 89 85 98 f9 ff ff 	mov    %rax,-0x668(%rbp)
   10776:	48 8d 05 c1 89 00 00 	lea    0x89c1(%rip),%rax        # 1913e <g_209>
   1077d:	48 89 85 a0 f9 ff ff 	mov    %rax,-0x660(%rbp)
   10784:	48 c7 85 c0 f9 ff ff 	movq   $0x0,-0x640(%rbp)
   1078b:	00 00 00 00 
   1078f:	48 c7 85 c8 f9 ff ff 	movq   $0x0,-0x638(%rbp)
   10796:	00 00 00 00 
   1079a:	48 8d 85 98 f9 ff ff 	lea    -0x668(%rbp),%rax
   107a1:	48 89 85 90 fa ff ff 	mov    %rax,-0x570(%rbp)
   107a8:	48 c7 85 98 fa ff ff 	movq   $0x0,-0x568(%rbp)
   107af:	00 00 00 00 
   107b3:	48 c7 85 a0 fa ff ff 	movq   $0x0,-0x560(%rbp)
   107ba:	00 00 00 00 
   107be:	48 8d 85 98 f9 ff ff 	lea    -0x668(%rbp),%rax
   107c5:	48 89 85 a8 fa ff ff 	mov    %rax,-0x558(%rbp)
   107cc:	48 c7 85 b0 fa ff ff 	movq   $0x0,-0x550(%rbp)
   107d3:	00 00 00 00 
   107d7:	48 c7 85 b8 fa ff ff 	movq   $0x0,-0x548(%rbp)
   107de:	00 00 00 00 
   107e2:	48 8d 85 98 f9 ff ff 	lea    -0x668(%rbp),%rax
   107e9:	48 89 85 c0 fa ff ff 	mov    %rax,-0x540(%rbp)
   107f0:	48 8d 85 90 fa ff ff 	lea    -0x570(%rbp),%rax
   107f7:	48 83 c0 10          	add    $0x10,%rax
   107fb:	48 89 85 d0 f9 ff ff 	mov    %rax,-0x630(%rbp)
   10802:	48 8d 05 47 8b 00 00 	lea    0x8b47(%rip),%rax        # 19350 <g_329>
   10809:	48 89 85 d8 f9 ff ff 	mov    %rax,-0x628(%rbp)
   10810:	48 c7 85 e0 f9 ff ff 	movq   $0x0,-0x620(%rbp)
   10817:	00 00 00 00 
   1081b:	48 c7 85 e8 f9 ff ff 	movq   $0x0,-0x618(%rbp)
   10822:	00 00 00 00 
   10826:	c7 85 6c f9 ff ff 01 	movl   $0x1,-0x694(%rbp)
   1082d:	00 00 00 
   10830:	c7 85 5c f9 ff ff 09 	movl   $0x9,-0x6a4(%rbp)
   10837:	00 00 00 
   1083a:	c6 85 4f f9 ff ff f2 	movb   $0xf2,-0x6b1(%rbp)
   10841:	c7 85 70 f9 ff ff 01 	movl   $0x1,-0x690(%rbp)
   10848:	00 00 00 
   1084b:	c7 85 74 f9 ff ff fe 	movl   $0xfffffffe,-0x68c(%rbp)
   10852:	ff ff ff 
   10855:	48 8d 05 e4 84 00 00 	lea    0x84e4(%rip),%rax        # 18d40 <g_957>
   1085c:	48 89 85 f0 f9 ff ff 	mov    %rax,-0x610(%rbp)
   10863:	48 8d 05 00 8b 00 00 	lea    0x8b00(%rip),%rax        # 1936a <g_403+0x2>
   1086a:	48 89 85 f8 f9 ff ff 	mov    %rax,-0x608(%rbp)
   10871:	66 c7 85 52 f9 ff ff 	movw   $0xfffc,-0x6ae(%rbp)
   10878:	fc ff 
   1087a:	48 8d 05 bf 8b 00 00 	lea    0x8bbf(%rip),%rax        # 19440 <g_1279>
   10881:	48 89 85 00 fa ff ff 	mov    %rax,-0x600(%rbp)
   10888:	66 c7 85 54 f9 ff ff 	movw   $0xffff,-0x6ac(%rbp)
   1088f:	ff ff 
   10891:	c7 85 78 f9 ff ff 45 	movl   $0x62ca9d45,-0x688(%rbp)
   10898:	9d ca 62 
   1089b:	c7 85 7c f9 ff ff 03 	movl   $0x3,-0x684(%rbp)
   108a2:	00 00 00 
   108a5:	c7 85 80 f9 ff ff 23 	movl   $0x76aef123,-0x680(%rbp)
   108ac:	f1 ae 76 
   108af:	c7 85 84 f9 ff ff 7c 	movl   $0xb060ec7c,-0x67c(%rbp)
   108b6:	ec 60 b0 
   108b9:	c6 85 50 f9 ff ff 00 	movb   $0x0,-0x6b0(%rbp)
   108c0:	48 8d 05 99 a9 00 00 	lea    0xa999(%rip),%rax        # 1b260 <g_89>
   108c7:	48 89 85 08 fa ff ff 	mov    %rax,-0x5f8(%rbp)
   108ce:	c7 85 60 f9 ff ff 00 	movl   $0x0,-0x6a0(%rbp)
   108d5:	00 00 00 
   108d8:	eb 4d                	jmp    10927 <func_71+0x1ee>
   108da:	c7 85 64 f9 ff ff 00 	movl   $0x0,-0x69c(%rbp)
   108e1:	00 00 00 
   108e4:	eb 31                	jmp    10917 <func_71+0x1de>
   108e6:	8b 85 64 f9 ff ff    	mov    -0x69c(%rbp),%eax
   108ec:	48 63 c8             	movslq %eax,%rcx
   108ef:	8b 85 60 f9 ff ff    	mov    -0x6a0(%rbp),%eax
   108f5:	48 63 d0             	movslq %eax,%rdx
   108f8:	48 89 d0             	mov    %rdx,%rax
   108fb:	48 01 c0             	add    %rax,%rax
   108fe:	48 01 d0             	add    %rdx,%rax
   10901:	48 01 c8             	add    %rcx,%rax
   10904:	48 c7 84 c5 10 fb ff 	movq   $0xffffffffffffffff,-0x4f0(%rbp,%rax,8)
   1090b:	ff ff ff ff ff 
   10910:	83 85 64 f9 ff ff 01 	addl   $0x1,-0x69c(%rbp)
   10917:	83 bd 64 f9 ff ff 02 	cmpl   $0x2,-0x69c(%rbp)
   1091e:	7e c6                	jle    108e6 <func_71+0x1ad>
   10920:	83 85 60 f9 ff ff 01 	addl   $0x1,-0x6a0(%rbp)
   10927:	83 bd 60 f9 ff ff 08 	cmpl   $0x8,-0x6a0(%rbp)
   1092e:	7e aa                	jle    108da <func_71+0x1a1>
   10930:	c7 85 60 f9 ff ff 00 	movl   $0x0,-0x6a0(%rbp)
   10937:	00 00 00 
   1093a:	eb 1a                	jmp    10956 <func_71+0x21d>
   1093c:	8b 85 60 f9 ff ff    	mov    -0x6a0(%rbp),%eax
   10942:	48 98                	cltq   
   10944:	c7 84 85 80 fa ff ff 	movl   $0xc4803542,-0x580(%rbp,%rax,4)
   1094b:	42 35 80 c4 
   1094f:	83 85 60 f9 ff ff 01 	addl   $0x1,-0x6a0(%rbp)
   10956:	83 bd 60 f9 ff ff 00 	cmpl   $0x0,-0x6a0(%rbp)
   1095d:	7e dd                	jle    1093c <func_71+0x203>
   1095f:	c6 05 fa 89 00 00 00 	movb   $0x0,0x89fa(%rip)        # 19360 <g_361>
   10966:	e9 e9 01 00 00       	jmpq   10b54 <func_71+0x41b>
   1096b:	48 8d 05 a6 87 00 00 	lea    0x87a6(%rip),%rax        # 19118 <g_62>
   10972:	48 89 85 d0 fa ff ff 	mov    %rax,-0x530(%rbp)
   10979:	48 8d 05 98 87 00 00 	lea    0x8798(%rip),%rax        # 19118 <g_62>
   10980:	48 89 85 d8 fa ff ff 	mov    %rax,-0x528(%rbp)
   10987:	48 8d 05 8a 87 00 00 	lea    0x878a(%rip),%rax        # 19118 <g_62>
   1098e:	48 89 85 e0 fa ff ff 	mov    %rax,-0x520(%rbp)
   10995:	48 8d 05 7c 87 00 00 	lea    0x877c(%rip),%rax        # 19118 <g_62>
   1099c:	48 89 85 e8 fa ff ff 	mov    %rax,-0x518(%rbp)
   109a3:	48 8d 05 6e 87 00 00 	lea    0x876e(%rip),%rax        # 19118 <g_62>
   109aa:	48 89 85 f0 fa ff ff 	mov    %rax,-0x510(%rbp)
   109b1:	48 8d 05 60 87 00 00 	lea    0x8760(%rip),%rax        # 19118 <g_62>
   109b8:	48 89 85 f8 fa ff ff 	mov    %rax,-0x508(%rbp)
   109bf:	48 8d 05 52 87 00 00 	lea    0x8752(%rip),%rax        # 19118 <g_62>
   109c6:	48 89 85 00 fb ff ff 	mov    %rax,-0x500(%rbp)
   109cd:	48 8d 05 44 87 00 00 	lea    0x8744(%rip),%rax        # 19118 <g_62>
   109d4:	48 89 85 08 fb ff ff 	mov    %rax,-0x4f8(%rbp)
   109db:	48 c7 85 a8 f9 ff ff 	movq   $0x0,-0x658(%rbp)
   109e2:	00 00 00 00 
   109e6:	48 8d 85 a8 f9 ff ff 	lea    -0x658(%rbp),%rax
   109ed:	48 89 85 b0 f9 ff ff 	mov    %rax,-0x650(%rbp)
   109f4:	48 8d 85 b0 f9 ff ff 	lea    -0x650(%rbp),%rax
   109fb:	48 89 85 58 fa ff ff 	mov    %rax,-0x5a8(%rbp)
   10a02:	48 8d 85 f0 fb ff ff 	lea    -0x410(%rbp),%rax
   10a09:	48 8d 15 70 4a 00 00 	lea    0x4a70(%rip),%rdx        # 15480 <g_2542+0x270>
   10a10:	b9 7e 00 00 00       	mov    $0x7e,%ecx
   10a15:	48 89 c7             	mov    %rax,%rdi
   10a18:	48 89 d6             	mov    %rdx,%rsi
   10a1b:	f3 48 a5             	rep movsq %ds:(%rsi),%es:(%rdi)
   10a1e:	48 c7 85 60 fa ff ff 	movq   $0xfffffffffffffff8,-0x5a0(%rbp)
   10a25:	f8 ff ff ff 
   10a29:	66 c7 85 56 f9 ff ff 	movw   $0x7,-0x6aa(%rbp)
   10a30:	07 00 
   10a32:	48 8d 85 58 f9 ff ff 	lea    -0x6a8(%rbp),%rax
   10a39:	48 89 85 68 fa ff ff 	mov    %rax,-0x598(%rbp)
   10a40:	c6 85 51 f9 ff ff 01 	movb   $0x1,-0x6af(%rbp)
   10a47:	c7 85 90 f9 ff ff 75 	movl   $0xb3bcee75,-0x670(%rbp)
   10a4e:	ee bc b3 
   10a51:	c7 85 94 f9 ff ff 03 	movl   $0x69f1c803,-0x66c(%rbp)
   10a58:	c8 f1 69 
   10a5b:	66 c7 85 84 fa ff ff 	movw   $0x0,-0x57c(%rbp)
   10a62:	00 00 
   10a64:	66 c7 85 86 fa ff ff 	movw   $0x0,-0x57a(%rbp)
   10a6b:	00 00 
   10a6d:	c7 85 68 f9 ff ff 00 	movl   $0x0,-0x698(%rbp)
   10a74:	00 00 00 
   10a77:	eb 1e                	jmp    10a97 <func_71+0x35e>
   10a79:	8b 85 68 f9 ff ff    	mov    -0x698(%rbp),%eax
   10a7f:	48 98                	cltq   
   10a81:	48 8d 95 a0 f9 ff ff 	lea    -0x660(%rbp),%rdx
   10a88:	48 89 94 c5 88 fa ff 	mov    %rdx,-0x578(%rbp,%rax,8)
   10a8f:	ff 
   10a90:	83 85 68 f9 ff ff 01 	addl   $0x1,-0x698(%rbp)
   10a97:	83 bd 68 f9 ff ff 00 	cmpl   $0x0,-0x698(%rbp)
   10a9e:	7e d9                	jle    10a79 <func_71+0x340>
   10aa0:	c7 05 6a 87 00 00 00 	movl   $0x0,0x876a(%rip)        # 19214 <g_272>
   10aa7:	00 00 00 
   10aaa:	90                   	nop
   10aab:	8b 05 63 87 00 00    	mov    0x8763(%rip),%eax        # 19214 <g_272>
   10ab1:	83 f8 35             	cmp    $0x35,%eax
   10ab4:	0f 86 8a 00 00 00    	jbe    10b44 <func_71+0x40b>
   10aba:	48 8d 05 5b 86 00 00 	lea    0x865b(%rip),%rax        # 1911c <g_90>
   10ac1:	48 89 85 b8 f9 ff ff 	mov    %rax,-0x648(%rbp)
   10ac8:	48 8d 85 b8 f9 ff ff 	lea    -0x648(%rbp),%rax
   10acf:	48 89 85 70 fa ff ff 	mov    %rax,-0x590(%rbp)
   10ad6:	48 8d 05 83 a7 00 00 	lea    0xa783(%rip),%rax        # 1b260 <g_89>
   10add:	48 89 85 78 fa ff ff 	mov    %rax,-0x588(%rbp)
   10ae4:	48 8b 8d f0 fa ff ff 	mov    -0x510(%rbp),%rcx
   10aeb:	48 8b 15 8e a7 00 00 	mov    0xa78e(%rip),%rdx        # 1b280 <g_276>
   10af2:	48 8b 05 87 a7 00 00 	mov    0xa787(%rip),%rax        # 1b280 <g_276>
   10af9:	48 8b 12             	mov    (%rdx),%rdx
   10afc:	48 89 10             	mov    %rdx,(%rax)
   10aff:	48 8b 00             	mov    (%rax),%rax
   10b02:	48 39 c1             	cmp    %rax,%rcx
   10b05:	0f 95 c2             	setne  %dl
   10b08:	48 8b 85 b8 f9 ff ff 	mov    -0x648(%rbp),%rax
   10b0f:	0f b6 d2             	movzbl %dl,%edx
   10b12:	89 10                	mov    %edx,(%rax)
   10b14:	48 8b 95 f8 fa ff ff 	mov    -0x508(%rbp),%rdx
   10b1b:	48 8b 85 70 fa ff ff 	mov    -0x590(%rbp),%rax
   10b22:	48 89 10             	mov    %rdx,(%rax)
   10b25:	48 8b 85 70 fa ff ff 	mov    -0x590(%rbp),%rax
   10b2c:	48 8b 10             	mov    (%rax),%rdx
   10b2f:	48 8b 85 78 fa ff ff 	mov    -0x588(%rbp),%rax
   10b36:	48 89 10             	mov    %rdx,(%rax)
   10b39:	8b 85 3c f9 ff ff    	mov    -0x6c4(%rbp),%eax
   10b3f:	e9 cb 01 00 00       	jmpq   10d0f <func_71+0x5d6>
   10b44:	0f b6 05 15 88 00 00 	movzbl 0x8815(%rip),%eax        # 19360 <g_361>
   10b4b:	83 c0 01             	add    $0x1,%eax
   10b4e:	88 05 0c 88 00 00    	mov    %al,0x880c(%rip)        # 19360 <g_361>
   10b54:	0f b6 05 05 88 00 00 	movzbl 0x8805(%rip),%eax        # 19360 <g_361>
   10b5b:	3c 2e                	cmp    $0x2e,%al
   10b5d:	0f 86 08 fe ff ff    	jbe    1096b <func_71+0x232>
   10b63:	66 c7 05 d0 85 00 00 	movw   $0x0,0x85d0(%rip)        # 1913c <g_166>
   10b6a:	00 00 
   10b6c:	e9 76 01 00 00       	jmpq   10ce7 <func_71+0x5ae>
   10b71:	48 b8 64 8a fb f2 db 	movabs $0x7b44b0dbf2fb8a64,%rax
   10b78:	b0 44 7b 
   10b7b:	48 89 85 10 fa ff ff 	mov    %rax,-0x5f0(%rbp)
   10b82:	c7 85 88 f9 ff ff 02 	movl   $0x2,-0x678(%rbp)
   10b89:	00 00 00 
   10b8c:	48 c7 85 b0 f9 ff ff 	movq   $0x0,-0x650(%rbp)
   10b93:	00 00 00 00 
   10b97:	48 c7 85 18 fa ff ff 	movq   $0x0,-0x5e8(%rbp)
   10b9e:	00 00 00 00 
   10ba2:	48 8d 85 b0 f9 ff ff 	lea    -0x650(%rbp),%rax
   10ba9:	48 89 85 20 fa ff ff 	mov    %rax,-0x5e0(%rbp)
   10bb0:	c7 85 8c f9 ff ff 7f 	movl   $0x8650137f,-0x674(%rbp)
   10bb7:	13 50 86 
   10bba:	48 8d 85 5c f9 ff ff 	lea    -0x6a4(%rbp),%rax
   10bc1:	48 89 85 28 fa ff ff 	mov    %rax,-0x5d8(%rbp)
   10bc8:	48 8d 05 9b 87 00 00 	lea    0x879b(%rip),%rax        # 1936a <g_403+0x2>
   10bcf:	48 89 85 b8 f9 ff ff 	mov    %rax,-0x648(%rbp)
   10bd6:	48 8d 85 b8 f9 ff ff 	lea    -0x648(%rbp),%rax
   10bdd:	48 89 85 30 fa ff ff 	mov    %rax,-0x5d0(%rbp)
   10be4:	48 8d 05 c5 a6 00 00 	lea    0xa6c5(%rip),%rax        # 1b2b0 <g_849+0x10>
   10beb:	48 89 85 38 fa ff ff 	mov    %rax,-0x5c8(%rbp)
   10bf2:	48 c7 85 40 fa ff ff 	movq   $0x0,-0x5c0(%rbp)
   10bf9:	00 00 00 00 
   10bfd:	48 8d 05 8c c4 00 00 	lea    0xc48c(%rip),%rax        # 1d090 <g_338>
   10c04:	48 89 85 48 fa ff ff 	mov    %rax,-0x5b8(%rbp)
   10c0b:	c7 85 f0 fb ff ff 12 	movl   $0x19b0a712,-0x410(%rbp)
   10c12:	a7 b0 19 
   10c15:	c7 85 f4 fb ff ff 12 	movl   $0x19b0a712,-0x40c(%rbp)
   10c1c:	a7 b0 19 
   10c1f:	c7 85 f8 fb ff ff 12 	movl   $0x19b0a712,-0x408(%rbp)
   10c26:	a7 b0 19 
   10c29:	c7 85 fc fb ff ff 12 	movl   $0x19b0a712,-0x404(%rbp)
   10c30:	a7 b0 19 
   10c33:	48 c7 85 50 fa ff ff 	movq   $0x0,-0x5b0(%rbp)
   10c3a:	00 00 00 00 
   10c3e:	8b 9d 8c f9 ff ff    	mov    -0x674(%rbp),%ebx
   10c44:	8b 85 3c f9 ff ff    	mov    -0x6c4(%rbp),%eax
   10c4a:	0f b6 c0             	movzbl %al,%eax
   10c4d:	be d0 00 00 00       	mov    $0xd0,%esi
   10c52:	89 c7                	mov    %eax,%edi
   10c54:	e8 1f 7f ff ff       	callq  8b78 <safe_sub_func_uint8_t_u_u>
   10c59:	0f b6 d0             	movzbl %al,%edx
   10c5c:	48 c7 85 10 fa ff ff 	movq   $0x8c,-0x5f0(%rbp)
   10c63:	8c 00 00 00 
   10c67:	b8 01 00 00 00       	mov    $0x1,%eax
   10c6c:	3b 85 3c f9 ff ff    	cmp    -0x6c4(%rbp),%eax
   10c72:	0f 9d c0             	setge  %al
   10c75:	0f b6 c0             	movzbl %al,%eax
   10c78:	39 c2                	cmp    %eax,%edx
   10c7a:	0f 9d c0             	setge  %al
   10c7d:	0f b6 c8             	movzbl %al,%ecx
   10c80:	48 8b 95 b0 f9 ff ff 	mov    -0x650(%rbp),%rdx
   10c87:	48 8b 85 20 fa ff ff 	mov    -0x5e0(%rbp),%rax
   10c8e:	48 89 10             	mov    %rdx,(%rax)
   10c91:	48 8b 85 20 fa ff ff 	mov    -0x5e0(%rbp),%rax
   10c98:	48 8b 00             	mov    (%rax),%rax
   10c9b:	48 39 85 f0 f9 ff ff 	cmp    %rax,-0x610(%rbp)
   10ca2:	0f 95 c0             	setne  %al
   10ca5:	0f b6 c0             	movzbl %al,%eax
   10ca8:	c1 e8 1f             	shr    $0x1f,%eax
   10cab:	0f b6 c0             	movzbl %al,%eax
   10cae:	39 c1                	cmp    %eax,%ecx
   10cb0:	0f 9f c0             	setg   %al
   10cb3:	0f b6 c0             	movzbl %al,%eax
   10cb6:	89 de                	mov    %ebx,%esi
   10cb8:	89 c7                	mov    %eax,%edi
   10cba:	e8 47 81 ff ff       	callq  8e06 <safe_lshift_func_uint16_t_u_u>
   10cbf:	48 8b 95 28 fa ff ff 	mov    -0x5d8(%rbp),%rdx
   10cc6:	8b 12                	mov    (%rdx),%edx
   10cc8:	0f b7 c0             	movzwl %ax,%eax
   10ccb:	31 c2                	xor    %eax,%edx
   10ccd:	48 8b 85 28 fa ff ff 	mov    -0x5d8(%rbp),%rax
   10cd4:	89 10                	mov    %edx,(%rax)
   10cd6:	0f b7 05 5f 84 00 00 	movzwl 0x845f(%rip),%eax        # 1913c <g_166>
   10cdd:	83 c0 01             	add    $0x1,%eax
   10ce0:	66 89 05 55 84 00 00 	mov    %ax,0x8455(%rip)        # 1913c <g_166>
   10ce7:	0f b7 05 4e 84 00 00 	movzwl 0x844e(%rip),%eax        # 1913c <g_166>
   10cee:	66 83 f8 15          	cmp    $0x15,%ax
   10cf2:	0f 86 79 fe ff ff    	jbe    10b71 <func_71+0x438>
   10cf8:	48 8b 85 08 fa ff ff 	mov    -0x5f8(%rbp),%rax
   10cff:	48 8d 15 0e 84 00 00 	lea    0x840e(%rip),%rdx        # 19114 <g_61>
   10d06:	48 89 10             	mov    %rdx,(%rax)
   10d09:	8b 85 3c f9 ff ff    	mov    -0x6c4(%rbp),%eax
   10d0f:	48 8b 5d e8          	mov    -0x18(%rbp),%rbx
   10d13:	64 48 33 1c 25 28 00 	xor    %fs:0x28,%rbx
   10d1a:	00 00 
   10d1c:	74 05                	je     10d23 <func_71+0x5ea>
   10d1e:	e8 4d 73 ff ff       	callq  8070 <__stack_chk_fail@plt>
   10d23:	48 81 c4 c8 06 00 00 	add    $0x6c8,%rsp
   10d2a:	5b                   	pop    %rbx
   10d2b:	5d                   	pop    %rbp
   10d2c:	c3                   	retq   

0000000000010d2d <func_73>:
   10d2d:	f3 0f 1e fa          	endbr64 
   10d31:	55                   	push   %rbp
   10d32:	48 89 e5             	mov    %rsp,%rbp
   10d35:	41 57                	push   %r15
   10d37:	41 56                	push   %r14
   10d39:	41 55                	push   %r13
   10d3b:	41 54                	push   %r12
   10d3d:	53                   	push   %rbx
   10d3e:	48 81 ec 48 06 00 00 	sub    $0x648,%rsp
   10d45:	48 89 bd b8 f9 ff ff 	mov    %rdi,-0x648(%rbp)
   10d4c:	89 f0                	mov    %esi,%eax
   10d4e:	48 89 95 a8 f9 ff ff 	mov    %rdx,-0x658(%rbp)
   10d55:	88 85 b4 f9 ff ff    	mov    %al,-0x64c(%rbp)
   10d5b:	64 48 8b 04 25 28 00 	mov    %fs:0x28,%rax
   10d62:	00 00 
   10d64:	48 89 45 c8          	mov    %rax,-0x38(%rbp)
   10d68:	31 c0                	xor    %eax,%eax
   10d6a:	48 8d 05 9f 83 00 00 	lea    0x839f(%rip),%rax        # 19110 <g_4+0x8>
   10d71:	48 89 85 20 fa ff ff 	mov    %rax,-0x5e0(%rbp)
   10d78:	48 8d 85 20 fa ff ff 	lea    -0x5e0(%rbp),%rax
   10d7f:	48 89 85 10 fd ff ff 	mov    %rax,-0x2f0(%rbp)
   10d86:	48 8d 85 20 fa ff ff 	lea    -0x5e0(%rbp),%rax
   10d8d:	48 89 85 18 fd ff ff 	mov    %rax,-0x2e8(%rbp)
   10d94:	48 8d 85 20 fa ff ff 	lea    -0x5e0(%rbp),%rax
   10d9b:	48 89 85 20 fd ff ff 	mov    %rax,-0x2e0(%rbp)
   10da2:	48 8d 85 20 fa ff ff 	lea    -0x5e0(%rbp),%rax
   10da9:	48 89 85 28 fd ff ff 	mov    %rax,-0x2d8(%rbp)
   10db0:	48 8d 85 20 fa ff ff 	lea    -0x5e0(%rbp),%rax
   10db7:	48 89 85 30 fd ff ff 	mov    %rax,-0x2d0(%rbp)
   10dbe:	48 8d 85 20 fa ff ff 	lea    -0x5e0(%rbp),%rax
   10dc5:	48 89 85 38 fd ff ff 	mov    %rax,-0x2c8(%rbp)
   10dcc:	48 8d 85 20 fa ff ff 	lea    -0x5e0(%rbp),%rax
   10dd3:	48 89 85 40 fd ff ff 	mov    %rax,-0x2c0(%rbp)
   10dda:	48 8d 85 20 fa ff ff 	lea    -0x5e0(%rbp),%rax
   10de1:	48 89 85 48 fd ff ff 	mov    %rax,-0x2b8(%rbp)
   10de8:	48 8d 85 20 fa ff ff 	lea    -0x5e0(%rbp),%rax
   10def:	48 89 85 50 fd ff ff 	mov    %rax,-0x2b0(%rbp)
   10df6:	48 8d 85 20 fa ff ff 	lea    -0x5e0(%rbp),%rax
   10dfd:	48 89 85 58 fd ff ff 	mov    %rax,-0x2a8(%rbp)
   10e04:	48 8d 85 20 fa ff ff 	lea    -0x5e0(%rbp),%rax
   10e0b:	48 89 85 60 fd ff ff 	mov    %rax,-0x2a0(%rbp)
   10e12:	48 8d 85 20 fa ff ff 	lea    -0x5e0(%rbp),%rax
   10e19:	48 89 85 68 fd ff ff 	mov    %rax,-0x298(%rbp)
   10e20:	48 8d 85 20 fa ff ff 	lea    -0x5e0(%rbp),%rax
   10e27:	48 89 85 70 fd ff ff 	mov    %rax,-0x290(%rbp)
   10e2e:	48 8d 85 20 fa ff ff 	lea    -0x5e0(%rbp),%rax
   10e35:	48 89 85 78 fd ff ff 	mov    %rax,-0x288(%rbp)
   10e3c:	48 8d 85 20 fa ff ff 	lea    -0x5e0(%rbp),%rax
   10e43:	48 89 85 80 fd ff ff 	mov    %rax,-0x280(%rbp)
   10e4a:	66 c7 85 c4 f9 ff ff 	movw   $0x8,-0x63c(%rbp)
   10e51:	08 00 
   10e53:	c7 85 e8 f9 ff ff fe 	movl   $0x82fd53fe,-0x618(%rbp)
   10e5a:	53 fd 82 
   10e5d:	48 8d 05 c4 82 00 00 	lea    0x82c4(%rip),%rax        # 19128 <g_103>
   10e64:	48 89 85 c0 fb ff ff 	mov    %rax,-0x440(%rbp)
   10e6b:	48 8d 05 b6 82 00 00 	lea    0x82b6(%rip),%rax        # 19128 <g_103>
   10e72:	48 89 85 c8 fb ff ff 	mov    %rax,-0x438(%rbp)
   10e79:	48 8d 05 a8 82 00 00 	lea    0x82a8(%rip),%rax        # 19128 <g_103>
   10e80:	48 89 85 d0 fb ff ff 	mov    %rax,-0x430(%rbp)
   10e87:	48 8d 05 9a 82 00 00 	lea    0x829a(%rip),%rax        # 19128 <g_103>
   10e8e:	48 89 85 d8 fb ff ff 	mov    %rax,-0x428(%rbp)
   10e95:	48 8d 05 8c 82 00 00 	lea    0x828c(%rip),%rax        # 19128 <g_103>
   10e9c:	48 89 85 e0 fb ff ff 	mov    %rax,-0x420(%rbp)
   10ea3:	48 8d 85 c0 fb ff ff 	lea    -0x440(%rbp),%rax
   10eaa:	48 83 c0 20          	add    $0x20,%rax
   10eae:	48 89 85 28 fa ff ff 	mov    %rax,-0x5d8(%rbp)
   10eb5:	48 8d 85 28 fa ff ff 	lea    -0x5d8(%rbp),%rax
   10ebc:	48 89 85 30 fa ff ff 	mov    %rax,-0x5d0(%rbp)
   10ec3:	48 8d 05 74 82 00 00 	lea    0x8274(%rip),%rax        # 1913e <g_209>
   10eca:	48 89 85 98 fa ff ff 	mov    %rax,-0x568(%rbp)
   10ed1:	c7 85 e0 f9 ff ff 02 	movl   $0xb5c4b602,-0x620(%rbp)
   10ed8:	b6 c4 b5 
   10edb:	66 c7 85 c6 f9 ff ff 	movw   $0x0,-0x63a(%rbp)
   10ee2:	00 00 
   10ee4:	c7 85 e4 f9 ff ff 00 	movl   $0x0,-0x61c(%rbp)
   10eeb:	00 00 00 
   10eee:	eb 1a                	jmp    10f0a <func_73+0x1dd>
   10ef0:	8b 85 e4 f9 ff ff    	mov    -0x61c(%rbp),%eax
   10ef6:	48 98                	cltq   
   10ef8:	c7 84 85 9c fb ff ff 	movl   $0xfffffff7,-0x464(%rbp,%rax,4)
   10eff:	f7 ff ff ff 
   10f03:	83 85 e4 f9 ff ff 01 	addl   $0x1,-0x61c(%rbp)
   10f0a:	83 bd e4 f9 ff ff 01 	cmpl   $0x1,-0x61c(%rbp)
   10f11:	7e dd                	jle    10ef0 <func_73+0x1c3>
   10f13:	90                   	nop
   10f14:	48 8b 85 20 fa ff ff 	mov    -0x5e0(%rbp),%rax
   10f1b:	48 89 85 b8 f9 ff ff 	mov    %rax,-0x648(%rbp)
   10f22:	48 8d 05 eb 81 00 00 	lea    0x81eb(%rip),%rax        # 19114 <g_61>
   10f29:	48 89 05 30 a3 00 00 	mov    %rax,0xa330(%rip)        # 1b260 <g_89>
   10f30:	c6 85 b4 f9 ff ff 00 	movb   $0x0,-0x64c(%rbp)
   10f37:	e9 8d 19 00 00       	jmpq   128c9 <func_73+0x1b9c>
   10f3c:	66 c7 85 c8 f9 ff ff 	movw   $0x0,-0x638(%rbp)
   10f43:	00 00 
   10f45:	c7 85 d8 f9 ff ff ff 	movl   $0xffffffff,-0x628(%rbp)
   10f4c:	ff ff ff 
   10f4f:	c7 85 dc f9 ff ff cd 	movl   $0xf6c93ecd,-0x624(%rbp)
   10f56:	3e c9 f6 
   10f59:	48 8d 05 c8 81 00 00 	lea    0x81c8(%rip),%rax        # 19128 <g_103>
   10f60:	48 89 85 90 fa ff ff 	mov    %rax,-0x570(%rbp)
   10f67:	48 8d 05 ba 81 00 00 	lea    0x81ba(%rip),%rax        # 19128 <g_103>
   10f6e:	48 89 85 38 fa ff ff 	mov    %rax,-0x5c8(%rbp)
   10f75:	48 c7 85 20 fc ff ff 	movq   $0x0,-0x3e0(%rbp)
   10f7c:	00 00 00 00 
   10f80:	48 c7 85 28 fc ff ff 	movq   $0x0,-0x3d8(%rbp)
   10f87:	00 00 00 00 
   10f8b:	48 c7 85 30 fc ff ff 	movq   $0x0,-0x3d0(%rbp)
   10f92:	00 00 00 00 
   10f96:	48 c7 85 38 fc ff ff 	movq   $0x0,-0x3c8(%rbp)
   10f9d:	00 00 00 00 
   10fa1:	48 c7 85 40 fc ff ff 	movq   $0x0,-0x3c0(%rbp)
   10fa8:	00 00 00 00 
   10fac:	48 c7 85 48 fc ff ff 	movq   $0x0,-0x3b8(%rbp)
   10fb3:	00 00 00 00 
   10fb7:	48 c7 85 50 fc ff ff 	movq   $0x0,-0x3b0(%rbp)
   10fbe:	00 00 00 00 
   10fc2:	48 c7 85 58 fc ff ff 	movq   $0x0,-0x3a8(%rbp)
   10fc9:	00 00 00 00 
   10fcd:	48 c7 85 60 fc ff ff 	movq   $0x0,-0x3a0(%rbp)
   10fd4:	00 00 00 00 
   10fd8:	48 8d 05 5f 81 00 00 	lea    0x815f(%rip),%rax        # 1913e <g_209>
   10fdf:	48 89 85 40 fa ff ff 	mov    %rax,-0x5c0(%rbp)
   10fe6:	c7 85 d4 f9 ff ff 2e 	movl   $0xfdc0412e,-0x62c(%rbp)
   10fed:	41 c0 fd 
   10ff0:	c6 85 c2 f9 ff ff 01 	movb   $0x1,-0x63e(%rbp)
   10ff7:	48 8d 05 0e 81 00 00 	lea    0x810e(%rip),%rax        # 1910c <g_4+0x4>
   10ffe:	48 89 85 80 fa ff ff 	mov    %rax,-0x580(%rbp)
   11005:	48 8d 05 2c c0 00 00 	lea    0xc02c(%rip),%rax        # 1d038 <g_162+0x8>
   1100c:	48 89 85 70 fc ff ff 	mov    %rax,-0x390(%rbp)
   11013:	48 8d 05 1e c0 00 00 	lea    0xc01e(%rip),%rax        # 1d038 <g_162+0x8>
   1101a:	48 89 85 78 fc ff ff 	mov    %rax,-0x388(%rbp)
   11021:	48 8d 05 10 c0 00 00 	lea    0xc010(%rip),%rax        # 1d038 <g_162+0x8>
   11028:	48 89 85 80 fc ff ff 	mov    %rax,-0x380(%rbp)
   1102f:	48 8d 05 02 c0 00 00 	lea    0xc002(%rip),%rax        # 1d038 <g_162+0x8>
   11036:	48 89 85 88 fc ff ff 	mov    %rax,-0x378(%rbp)
   1103d:	48 8d 05 f4 bf 00 00 	lea    0xbff4(%rip),%rax        # 1d038 <g_162+0x8>
   11044:	48 89 85 90 fc ff ff 	mov    %rax,-0x370(%rbp)
   1104b:	48 8d 05 e6 bf 00 00 	lea    0xbfe6(%rip),%rax        # 1d038 <g_162+0x8>
   11052:	48 89 85 98 fc ff ff 	mov    %rax,-0x368(%rbp)
   11059:	48 8d 05 d8 bf 00 00 	lea    0xbfd8(%rip),%rax        # 1d038 <g_162+0x8>
   11060:	48 89 85 a0 fc ff ff 	mov    %rax,-0x360(%rbp)
   11067:	48 8d 05 ca bf 00 00 	lea    0xbfca(%rip),%rax        # 1d038 <g_162+0x8>
   1106e:	48 89 85 a8 fc ff ff 	mov    %rax,-0x358(%rbp)
   11075:	48 8d 05 bc bf 00 00 	lea    0xbfbc(%rip),%rax        # 1d038 <g_162+0x8>
   1107c:	48 89 85 b0 fc ff ff 	mov    %rax,-0x350(%rbp)
   11083:	48 8d 05 90 81 00 00 	lea    0x8190(%rip),%rax        # 1921a <g_322>
   1108a:	48 89 85 88 fa ff ff 	mov    %rax,-0x578(%rbp)
   11091:	c7 85 d0 f9 ff ff 00 	movl   $0x0,-0x630(%rbp)
   11098:	00 00 00 
   1109b:	eb 19                	jmp    110b6 <func_73+0x389>
   1109d:	8b 85 d0 f9 ff ff    	mov    -0x630(%rbp),%eax
   110a3:	48 98                	cltq   
   110a5:	66 c7 84 45 ac fb ff 	movw   $0xdf4d,-0x454(%rbp,%rax,2)
   110ac:	ff 4d df 
   110af:	83 85 d0 f9 ff ff 01 	addl   $0x1,-0x630(%rbp)
   110b6:	83 bd d0 f9 ff ff 03 	cmpl   $0x3,-0x630(%rbp)
   110bd:	7e de                	jle    1109d <func_73+0x370>
   110bf:	48 8b 05 5a 80 00 00 	mov    0x805a(%rip),%rax        # 19120 <g_93>
   110c6:	48 83 e8 01          	sub    $0x1,%rax
   110ca:	48 89 05 4f 80 00 00 	mov    %rax,0x804f(%rip)        # 19120 <g_93>
   110d1:	66 83 85 c8 f9 ff ff 	addw   $0x1,-0x638(%rbp)
   110d8:	01 
   110d9:	66 c7 85 c8 f9 ff ff 	movw   $0x0,-0x638(%rbp)
   110e0:	00 00 
   110e2:	e9 c1 16 00 00       	jmpq   127a8 <func_73+0x1a7b>
   110e7:	c7 85 cc f9 ff ff fb 	movl   $0xe816d3fb,-0x634(%rbp)
   110ee:	d3 16 e8 
   110f1:	48 c7 85 58 fa ff ff 	movq   $0x0,-0x5a8(%rbp)
   110f8:	00 00 00 00 
   110fc:	48 8d 85 90 fd ff ff 	lea    -0x270(%rbp),%rax
   11103:	48 8d 15 76 47 00 00 	lea    0x4776(%rip),%rdx        # 15880 <g_2542+0x670>
   1110a:	b9 1f 00 00 00       	mov    $0x1f,%ecx
   1110f:	48 89 c7             	mov    %rax,%rdi
   11112:	48 89 d6             	mov    %rdx,%rsi
   11115:	f3 48 a5             	rep movsq %ds:(%rsi),%es:(%rdi)
   11118:	48 89 f2             	mov    %rsi,%rdx
   1111b:	48 89 f8             	mov    %rdi,%rax
   1111e:	8b 0a                	mov    (%rdx),%ecx
   11120:	89 08                	mov    %ecx,(%rax)
   11122:	48 c7 85 60 fa ff ff 	movq   $0x0,-0x5a0(%rbp)
   11129:	00 00 00 00 
   1112d:	48 8d 85 20 fc ff ff 	lea    -0x3e0(%rbp),%rax
   11134:	48 83 c0 28          	add    $0x28,%rax
   11138:	48 89 85 68 fa ff ff 	mov    %rax,-0x598(%rbp)
   1113f:	48 c7 85 70 fa ff ff 	movq   $0x0,-0x590(%rbp)
   11146:	00 00 00 00 
   1114a:	48 8d 05 c8 80 00 00 	lea    0x80c8(%rip),%rax        # 19219 <g_315>
   11151:	48 89 85 78 fa ff ff 	mov    %rax,-0x588(%rbp)
   11158:	c7 85 f0 fb ff ff 62 	movl   $0x93a6662,-0x410(%rbp)
   1115f:	66 3a 09 
   11162:	c7 85 f4 fb ff ff 62 	movl   $0x93a6662,-0x40c(%rbp)
   11169:	66 3a 09 
   1116c:	c7 85 f8 fb ff ff 62 	movl   $0x93a6662,-0x408(%rbp)
   11173:	66 3a 09 
   11176:	c7 85 fc fb ff ff 62 	movl   $0x93a6662,-0x404(%rbp)
   1117d:	66 3a 09 
   11180:	c7 85 00 fc ff ff 62 	movl   $0x93a6662,-0x400(%rbp)
   11187:	66 3a 09 
   1118a:	c7 85 04 fc ff ff 62 	movl   $0x93a6662,-0x3fc(%rbp)
   11191:	66 3a 09 
   11194:	c7 85 08 fc ff ff 62 	movl   $0x93a6662,-0x3f8(%rbp)
   1119b:	66 3a 09 
   1119e:	c7 85 0c fc ff ff 62 	movl   $0x93a6662,-0x3f4(%rbp)
   111a5:	66 3a 09 
   111a8:	c7 85 10 fc ff ff 62 	movl   $0x93a6662,-0x3f0(%rbp)
   111af:	66 3a 09 
   111b2:	c7 85 14 fc ff ff 62 	movl   $0x93a6662,-0x3ec(%rbp)
   111b9:	66 3a 09 
   111bc:	c7 05 62 be 00 00 00 	movl   $0x0,0xbe62(%rip)        # 1d028 <g_85>
   111c3:	00 00 00 
   111c6:	e9 4c 06 00 00       	jmpq   11817 <func_73+0xaea>
   111cb:	48 8d 05 56 7f 00 00 	lea    0x7f56(%rip),%rax        # 19128 <g_103>
   111d2:	48 89 85 48 fa ff ff 	mov    %rax,-0x5b8(%rbp)
   111d9:	c6 85 c3 f9 ff ff f9 	movb   $0xf9,-0x63d(%rbp)
   111e0:	48 8d 85 c3 f9 ff ff 	lea    -0x63d(%rbp),%rax
   111e7:	48 89 85 a0 fa ff ff 	mov    %rax,-0x560(%rbp)
   111ee:	c7 05 20 7f 00 00 00 	movl   $0x0,0x7f20(%rip)        # 19118 <g_62>
   111f5:	00 00 00 
   111f8:	e9 97 00 00 00       	jmpq   11294 <func_73+0x567>
   111fd:	48 c7 05 18 7f 00 00 	movq   $0x0,0x7f18(%rip)        # 19120 <g_93>
   11204:	00 00 00 00 
   11208:	eb 6e                	jmp    11278 <func_73+0x54b>
   1120a:	c7 05 08 7f 00 00 00 	movl   $0x0,0x7f08(%rip)        # 1911c <g_90>
   11211:	00 00 00 
   11214:	eb 46                	jmp    1125c <func_73+0x52f>
   11216:	8b 35 fc 7e 00 00    	mov    0x7efc(%rip),%esi        # 19118 <g_62>
   1121c:	48 8b 0d fd 7e 00 00 	mov    0x7efd(%rip),%rcx        # 19120 <g_93>
   11223:	8b 05 f3 7e 00 00    	mov    0x7ef3(%rip),%eax        # 1911c <g_90>
   11229:	48 63 d0             	movslq %eax,%rdx
   1122c:	89 f6                	mov    %esi,%esi
   1122e:	48 89 f0             	mov    %rsi,%rax
   11231:	48 c1 e0 02          	shl    $0x2,%rax
   11235:	48 01 f0             	add    %rsi,%rax
   11238:	48 01 c8             	add    %rcx,%rax
   1123b:	48 01 d0             	add    %rdx,%rax
   1123e:	48 8d 15 1b a0 00 00 	lea    0xa01b(%rip),%rdx        # 1b260 <g_89>
   11245:	48 89 94 c5 10 fd ff 	mov    %rdx,-0x2f0(%rbp,%rax,8)
   1124c:	ff 
   1124d:	8b 05 c9 7e 00 00    	mov    0x7ec9(%rip),%eax        # 1911c <g_90>
   11253:	83 c0 01             	add    $0x1,%eax
   11256:	89 05 c0 7e 00 00    	mov    %eax,0x7ec0(%rip)        # 1911c <g_90>
   1125c:	8b 05 ba 7e 00 00    	mov    0x7eba(%rip),%eax        # 1911c <g_90>
   11262:	85 c0                	test   %eax,%eax
   11264:	7e b0                	jle    11216 <func_73+0x4e9>
   11266:	48 8b 05 b3 7e 00 00 	mov    0x7eb3(%rip),%rax        # 19120 <g_93>
   1126d:	48 83 c0 01          	add    $0x1,%rax
   11271:	48 89 05 a8 7e 00 00 	mov    %rax,0x7ea8(%rip)        # 19120 <g_93>
   11278:	48 8b 05 a1 7e 00 00 	mov    0x7ea1(%rip),%rax        # 19120 <g_93>
   1127f:	48 83 f8 04          	cmp    $0x4,%rax
   11283:	76 85                	jbe    1120a <func_73+0x4dd>
   11285:	8b 05 8d 7e 00 00    	mov    0x7e8d(%rip),%eax        # 19118 <g_62>
   1128b:	83 c0 01             	add    $0x1,%eax
   1128e:	89 05 84 7e 00 00    	mov    %eax,0x7e84(%rip)        # 19118 <g_62>
   11294:	8b 05 7e 7e 00 00    	mov    0x7e7e(%rip),%eax        # 19118 <g_62>
   1129a:	83 f8 02             	cmp    $0x2,%eax
   1129d:	0f 86 5a ff ff ff    	jbe    111fd <func_73+0x4d0>
   112a3:	48 8b 05 76 7e 00 00 	mov    0x7e76(%rip),%rax        # 19120 <g_93>
   112aa:	48 85 c0             	test   %rax,%rax
   112ad:	74 05                	je     112b4 <func_73+0x587>
   112af:	e9 6e fc ff ff       	jmpq   10f22 <func_73+0x1f5>
   112b4:	8b 05 6e bd 00 00    	mov    0xbd6e(%rip),%eax        # 1d028 <g_85>
   112ba:	8d 48 02             	lea    0x2(%rax),%ecx
   112bd:	8b 05 65 bd 00 00    	mov    0xbd65(%rip),%eax        # 1d028 <g_85>
   112c3:	89 c2                	mov    %eax,%edx
   112c5:	89 c8                	mov    %ecx,%eax
   112c7:	48 c1 e0 02          	shl    $0x2,%rax
   112cb:	48 01 d0             	add    %rdx,%rax
   112ce:	48 8d 14 c5 00 00 00 	lea    0x0(,%rax,8),%rdx
   112d5:	00 
   112d6:	48 8d 05 63 7d 00 00 	lea    0x7d63(%rip),%rax        # 19040 <g_2>
   112dd:	48 8b 04 02          	mov    (%rdx,%rax,1),%rax
   112e1:	48 85 c0             	test   %rax,%rax
   112e4:	0f 85 3e 05 00 00    	jne    11828 <func_73+0xafb>
   112ea:	0f b6 95 b4 f9 ff ff 	movzbl -0x64c(%rbp),%edx
   112f1:	48 8b 85 48 fa ff ff 	mov    -0x5b8(%rbp),%rax
   112f8:	0f b6 d2             	movzbl %dl,%edx
   112fb:	48 89 10             	mov    %rdx,(%rax)
   112fe:	48 8b 10             	mov    (%rax),%rdx
   11301:	0f b6 85 b4 f9 ff ff 	movzbl -0x64c(%rbp),%eax
   11308:	0f b6 c0             	movzbl %al,%eax
   1130b:	48 89 d6             	mov    %rdx,%rsi
   1130e:	48 89 c7             	mov    %rax,%rdi
   11311:	e8 92 75 ff ff       	callq  88a8 <safe_sub_func_int64_t_s_s>
   11316:	49 89 c5             	mov    %rax,%r13
   11319:	48 83 bd b8 f9 ff ff 	cmpq   $0x0,-0x648(%rbp)
   11320:	00 
   11321:	0f 95 c0             	setne  %al
   11324:	44 0f b6 f0          	movzbl %al,%r14d
   11328:	0f b6 85 b4 f9 ff ff 	movzbl -0x64c(%rbp),%eax
   1132f:	0f be d8             	movsbl %al,%ebx
   11332:	44 8b 25 db 7d 00 00 	mov    0x7ddb(%rip),%r12d        # 19114 <g_61>
   11339:	0f b6 85 c3 f9 ff ff 	movzbl -0x63d(%rbp),%eax
   11340:	0f b6 c0             	movzbl %al,%eax
   11343:	89 c6                	mov    %eax,%esi
   11345:	bf 00 00 00 00       	mov    $0x0,%edi
   1134a:	e8 67 72 ff ff       	callq  85b6 <safe_add_func_int32_t_s_s>
   1134f:	89 c2                	mov    %eax,%edx
   11351:	0f b7 85 c8 f9 ff ff 	movzwl -0x638(%rbp),%eax
   11358:	09 d0                	or     %edx,%eax
   1135a:	0f b7 c0             	movzwl %ax,%eax
   1135d:	44 89 e6             	mov    %r12d,%esi
   11360:	89 c7                	mov    %eax,%edi
   11362:	e8 57 7a ff ff       	callq  8dbe <safe_lshift_func_uint16_t_u_s>
   11367:	0f b7 c0             	movzwl %ax,%eax
   1136a:	48 c7 c6 fb ff ff ff 	mov    $0xfffffffffffffffb,%rsi
   11371:	48 89 c7             	mov    %rax,%rdi
   11374:	e8 2f 75 ff ff       	callq  88a8 <safe_sub_func_int64_t_s_s>
   11379:	0f be c0             	movsbl %al,%eax
   1137c:	89 de                	mov    %ebx,%esi
   1137e:	89 c7                	mov    %eax,%edi
   11380:	e8 ac 6e ff ff       	callq  8231 <safe_mod_func_int8_t_s_s>
   11385:	0f be c0             	movsbl %al,%eax
   11388:	be 01 00 00 00       	mov    $0x1,%esi
   1138d:	89 c7                	mov    %eax,%edi
   1138f:	e8 7e 6e ff ff       	callq  8212 <safe_mul_func_int8_t_s_s>
   11394:	89 c2                	mov    %eax,%edx
   11396:	48 8b 85 a0 fa ff ff 	mov    -0x560(%rbp),%rax
   1139d:	88 10                	mov    %dl,(%rax)
   1139f:	48 8b 85 a0 fa ff ff 	mov    -0x560(%rbp),%rax
   113a6:	0f b6 00             	movzbl (%rax),%eax
   113a9:	83 c8 13             	or     $0x13,%eax
   113ac:	0f b6 c0             	movzbl %al,%eax
   113af:	4c 21 f0             	and    %r14,%rax
   113b2:	8b 15 60 7d 00 00    	mov    0x7d60(%rip),%edx        # 19118 <g_62>
   113b8:	89 d2                	mov    %edx,%edx
   113ba:	48 39 d0             	cmp    %rdx,%rax
   113bd:	0f 9f c0             	setg   %al
   113c0:	0f b6 c0             	movzbl %al,%eax
   113c3:	be 02 00 00 00       	mov    $0x2,%esi
   113c8:	89 c7                	mov    %eax,%edi
   113ca:	e8 37 7a ff ff       	callq  8e06 <safe_lshift_func_uint16_t_u_u>
   113cf:	0f b7 c0             	movzwl %ax,%eax
   113d2:	49 39 c5             	cmp    %rax,%r13
   113d5:	0f 95 c0             	setne  %al
   113d8:	0f b6 c0             	movzbl %al,%eax
   113db:	89 05 3b 7d 00 00    	mov    %eax,0x7d3b(%rip)        # 1911c <g_90>
   113e1:	8b 05 35 7d 00 00    	mov    0x7d35(%rip),%eax        # 1911c <g_90>
   113e7:	85 c0                	test   %eax,%eax
   113e9:	74 49                	je     11434 <func_73+0x707>
   113eb:	c7 05 23 7d 00 00 00 	movl   $0x0,0x7d23(%rip)        # 19118 <g_62>
   113f2:	00 00 00 
   113f5:	90                   	nop
   113f6:	8b 05 1c 7d 00 00    	mov    0x7d1c(%rip),%eax        # 19118 <g_62>
   113fc:	83 f8 03             	cmp    $0x3,%eax
   113ff:	0f 87 03 04 00 00    	ja     11808 <func_73+0xadb>
   11405:	8b 05 1d bc 00 00    	mov    0xbc1d(%rip),%eax        # 1d028 <g_85>
   1140b:	8b 15 17 bc 00 00    	mov    0xbc17(%rip),%edx        # 1d028 <g_85>
   11411:	89 d2                	mov    %edx,%edx
   11413:	89 c0                	mov    %eax,%eax
   11415:	48 c1 e0 02          	shl    $0x2,%rax
   11419:	48 01 d0             	add    %rdx,%rax
   1141c:	48 8d 14 c5 00 00 00 	lea    0x0(,%rax,8),%rdx
   11423:	00 
   11424:	48 8d 05 15 7c 00 00 	lea    0x7c15(%rip),%rax        # 19040 <g_2>
   1142b:	48 8b 04 02          	mov    (%rdx,%rax,1),%rax
   1142f:	e9 aa 14 00 00       	jmpq   128de <func_73+0x1bb1>
   11434:	48 8d 05 f5 7c 00 00 	lea    0x7cf5(%rip),%rax        # 19130 <g_128>
   1143b:	48 89 85 a8 fa ff ff 	mov    %rax,-0x558(%rbp)
   11442:	48 8d 05 e9 7c 00 00 	lea    0x7ce9(%rip),%rax        # 19132 <g_132>
   11449:	48 89 85 b0 fa ff ff 	mov    %rax,-0x550(%rbp)
   11450:	c7 85 00 fa ff ff 43 	movl   $0x1af8a643,-0x600(%rbp)
   11457:	a6 f8 1a 
   1145a:	48 c7 85 b8 fa ff ff 	movq   $0x0,-0x548(%rbp)
   11461:	00 00 00 00 
   11465:	48 c7 85 c0 fa ff ff 	movq   $0x0,-0x540(%rbp)
   1146c:	00 00 00 00 
   11470:	48 8d 85 cc f9 ff ff 	lea    -0x634(%rbp),%rax
   11477:	48 89 85 50 fa ff ff 	mov    %rax,-0x5b0(%rbp)
   1147e:	48 c7 85 c0 fc ff ff 	movq   $0x0,-0x340(%rbp)
   11485:	00 00 00 00 
   11489:	48 c7 85 c8 fc ff ff 	movq   $0x0,-0x338(%rbp)
   11490:	00 00 00 00 
   11494:	48 8d 85 50 fa ff ff 	lea    -0x5b0(%rbp),%rax
   1149b:	48 89 85 d0 fc ff ff 	mov    %rax,-0x330(%rbp)
   114a2:	48 c7 85 d8 fc ff ff 	movq   $0x0,-0x328(%rbp)
   114a9:	00 00 00 00 
   114ad:	48 c7 85 e0 fc ff ff 	movq   $0x0,-0x320(%rbp)
   114b4:	00 00 00 00 
   114b8:	48 8d 85 50 fa ff ff 	lea    -0x5b0(%rbp),%rax
   114bf:	48 89 85 e8 fc ff ff 	mov    %rax,-0x318(%rbp)
   114c6:	48 c7 85 f0 fc ff ff 	movq   $0x0,-0x310(%rbp)
   114cd:	00 00 00 00 
   114d1:	48 c7 85 f8 fc ff ff 	movq   $0x0,-0x308(%rbp)
   114d8:	00 00 00 00 
   114dc:	48 8d 85 48 fa ff ff 	lea    -0x5b8(%rbp),%rax
   114e3:	48 89 85 c8 fa ff ff 	mov    %rax,-0x538(%rbp)
   114ea:	0f b6 85 b4 f9 ff ff 	movzbl -0x64c(%rbp),%eax
   114f1:	0f b6 c0             	movzbl %al,%eax
   114f4:	89 85 a4 f9 ff ff    	mov    %eax,-0x65c(%rbp)
   114fa:	0f b6 85 b4 f9 ff ff 	movzbl -0x64c(%rbp),%eax
   11501:	0f b6 d0             	movzbl %al,%edx
   11504:	48 8b 85 a8 fa ff ff 	mov    -0x558(%rbp),%rax
   1150b:	0f b7 00             	movzwl (%rax),%eax
   1150e:	8d 48 ff             	lea    -0x1(%rax),%ecx
   11511:	48 8b 85 a8 fa ff ff 	mov    -0x558(%rbp),%rax
   11518:	66 89 08             	mov    %cx,(%rax)
   1151b:	48 8b 85 a8 fa ff ff 	mov    -0x558(%rbp),%rax
   11522:	0f b7 00             	movzwl (%rax),%eax
   11525:	0f b7 c0             	movzwl %ax,%eax
   11528:	89 d6                	mov    %edx,%esi
   1152a:	89 c7                	mov    %eax,%edi
   1152c:	e8 0c 78 ff ff       	callq  8d3d <safe_mul_func_uint16_t_u_u>
   11531:	0f be c0             	movsbl %al,%eax
   11534:	be 02 00 00 00       	mov    $0x2,%esi
   11539:	89 c7                	mov    %eax,%edi
   1153b:	e8 f5 6d ff ff       	callq  8335 <safe_rshift_func_int8_t_s_s>
   11540:	0f be c0             	movsbl %al,%eax
   11543:	89 c6                	mov    %eax,%esi
   11545:	bf f1 a6 ff ff       	mov    $0xffffa6f1,%edi
   1154a:	e8 14 70 ff ff       	callq  8563 <safe_rshift_func_int16_t_s_u>
   1154f:	0f b6 c0             	movzbl %al,%eax
   11552:	be 05 00 00 00       	mov    $0x5,%esi
   11557:	89 c7                	mov    %eax,%edi
   11559:	e8 ee 76 ff ff       	callq  8c4c <safe_lshift_func_uint8_t_u_u>
   1155e:	0f b6 d0             	movzbl %al,%edx
   11561:	48 8b 85 b0 fa ff ff 	mov    -0x550(%rbp),%rax
   11568:	66 89 10             	mov    %dx,(%rax)
   1156b:	0f b7 85 c4 f9 ff ff 	movzwl -0x63c(%rbp),%eax
   11572:	0f bf d8             	movswl %ax,%ebx
   11575:	8b 05 8d 7b 00 00    	mov    0x7b8d(%rip),%eax        # 19108 <g_4>
   1157b:	44 0f bf e0          	movswl %ax,%r12d
   1157f:	44 0f b7 ad c8 f9 ff 	movzwl -0x638(%rbp),%r13d
   11586:	ff 
   11587:	0f b6 85 b4 f9 ff ff 	movzbl -0x64c(%rbp),%eax
   1158e:	44 0f b6 f0          	movzbl %al,%r14d
   11592:	48 8b 05 1f 7b 00 00 	mov    0x7b1f(%rip),%rax        # 190b8 <g_2+0x78>
   11599:	89 85 a0 f9 ff ff    	mov    %eax,-0x660(%rbp)
   1159f:	48 8b 85 b8 f9 ff ff 	mov    -0x648(%rbp),%rax
   115a6:	8b 00                	mov    (%rax),%eax
   115a8:	66 89 85 b2 f9 ff ff 	mov    %ax,-0x64e(%rbp)
   115af:	8b 05 53 7b 00 00    	mov    0x7b53(%rip),%eax        # 19108 <g_4>
   115b5:	44 0f be f8          	movsbl %al,%r15d
   115b9:	0f b6 85 b4 f9 ff ff 	movzbl -0x64c(%rbp),%eax
   115c0:	0f b6 c0             	movzbl %al,%eax
   115c3:	89 85 9c f9 ff ff    	mov    %eax,-0x664(%rbp)
   115c9:	0f b6 85 b4 f9 ff ff 	movzbl -0x64c(%rbp),%eax
   115d0:	0f b6 c0             	movzbl %al,%eax
   115d3:	48 89 c6             	mov    %rax,%rsi
   115d6:	48 c7 c7 fc ff ff ff 	mov    $0xfffffffffffffffc,%rdi
   115dd:	e8 cd 7a ff ff       	callq  90af <safe_div_func_uint64_t_u_u>
   115e2:	0f b6 c0             	movzbl %al,%eax
   115e5:	8b b5 9c f9 ff ff    	mov    -0x664(%rbp),%esi
   115eb:	89 c7                	mov    %eax,%edi
   115ed:	e8 e9 75 ff ff       	callq  8bdb <safe_div_func_uint8_t_u_u>
   115f2:	44 89 fe             	mov    %r15d,%esi
   115f5:	bf 37 00 00 00       	mov    $0x37,%edi
   115fa:	e8 d5 6b ff ff       	callq  81d4 <safe_add_func_int8_t_s_s>
   115ff:	66 98                	cbtw   
   11601:	66 33 85 b2 f9 ff ff 	xor    -0x64e(%rbp),%ax
   11608:	0f b7 c0             	movzwl %ax,%eax
   1160b:	8b 95 00 fa ff ff    	mov    -0x600(%rbp),%edx
   11611:	89 d6                	mov    %edx,%esi
   11613:	89 c7                	mov    %eax,%edi
   11615:	e8 2e 78 ff ff       	callq  8e48 <safe_rshift_func_uint16_t_u_s>
   1161a:	98                   	cwtl   
   1161b:	be 07 00 00 00       	mov    $0x7,%esi
   11620:	89 c7                	mov    %eax,%edi
   11622:	e8 ba 6e ff ff       	callq  84e1 <safe_lshift_func_int16_t_s_u>
   11627:	0f be c0             	movsbl %al,%eax
   1162a:	8b b5 a0 f9 ff ff    	mov    -0x660(%rbp),%esi
   11630:	89 c7                	mov    %eax,%edi
   11632:	e8 6a 6c ff ff       	callq  82a1 <safe_lshift_func_int8_t_s_s>
   11637:	66 98                	cbtw   
   11639:	0f b7 c0             	movzwl %ax,%eax
   1163c:	44 89 f6             	mov    %r14d,%esi
   1163f:	89 c7                	mov    %eax,%edi
   11641:	e8 f7 76 ff ff       	callq  8d3d <safe_mul_func_uint16_t_u_u>
   11646:	ba 00 00 00 00       	mov    $0x0,%edx
   1164b:	b8 00 00 00 00       	mov    $0x0,%eax
   11650:	48 39 c2             	cmp    %rax,%rdx
   11653:	74 12                	je     11667 <func_73+0x93a>
   11655:	0f b6 85 b4 f9 ff ff 	movzbl -0x64c(%rbp),%eax
   1165c:	84 c0                	test   %al,%al
   1165e:	74 07                	je     11667 <func_73+0x93a>
   11660:	b8 01 00 00 00       	mov    $0x1,%eax
   11665:	eb 05                	jmp    1166c <func_73+0x93f>
   11667:	b8 00 00 00 00       	mov    $0x0,%eax
   1166c:	44 89 ee             	mov    %r13d,%esi
   1166f:	89 c7                	mov    %eax,%edi
   11671:	e8 87 78 ff ff       	callq  8efd <safe_mod_func_uint32_t_u_u>
   11676:	3d fe 00 00 00       	cmp    $0xfe,%eax
   1167b:	0f 96 c0             	setbe  %al
   1167e:	0f b6 c0             	movzbl %al,%eax
   11681:	44 89 e6             	mov    %r12d,%esi
   11684:	89 c7                	mov    %eax,%edi
   11686:	e8 6a 6d ff ff       	callq  83f5 <safe_mul_func_int16_t_s_s>
   1168b:	0f bf d0             	movswl %ax,%edx
   1168e:	8b 05 94 b9 00 00    	mov    0xb994(%rip),%eax        # 1d028 <g_85>
   11694:	39 c2                	cmp    %eax,%edx
   11696:	0f 95 c0             	setne  %al
   11699:	0f b6 c0             	movzbl %al,%eax
   1169c:	89 de                	mov    %ebx,%esi
   1169e:	89 c7                	mov    %eax,%edi
   116a0:	e8 2e 6d ff ff       	callq  83d3 <safe_sub_func_int16_t_s_s>
   116a5:	0f b7 15 8e 7a 00 00 	movzwl 0x7a8e(%rip),%edx        # 1913a <g_159>
   116ac:	09 d0                	or     %edx,%eax
   116ae:	66 89 05 85 7a 00 00 	mov    %ax,0x7a85(%rip)        # 1913a <g_159>
   116b5:	c7 05 75 b9 00 00 01 	movl   $0x1,0xb975(%rip)        # 1d034 <g_162+0x4>
   116bc:	00 00 00 
   116bf:	8b 05 6f b9 00 00    	mov    0xb96f(%rip),%eax        # 1d034 <g_162+0x4>
   116c5:	23 85 a4 f9 ff ff    	and    -0x65c(%rbp),%eax
   116cb:	85 c0                	test   %eax,%eax
   116cd:	74 33                	je     11702 <func_73+0x9d5>
   116cf:	48 8b 85 a8 f9 ff ff 	mov    -0x658(%rbp),%rax
   116d6:	8b 00                	mov    (%rax),%eax
   116d8:	85 c0                	test   %eax,%eax
   116da:	0f 85 4b 01 00 00    	jne    1182b <func_73+0xafe>
   116e0:	48 8b 85 b8 f9 ff ff 	mov    -0x648(%rbp),%rax
   116e7:	8b 00                	mov    (%rax),%eax
   116e9:	85 c0                	test   %eax,%eax
   116eb:	0f 85 17 01 00 00    	jne    11808 <func_73+0xadb>
   116f1:	0f b7 05 42 7a 00 00 	movzwl 0x7a42(%rip),%eax        # 1913a <g_159>
   116f8:	66 85 c0             	test   %ax,%ax
   116fb:	74 27                	je     11724 <func_73+0x9f7>
   116fd:	e9 12 f8 ff ff       	jmpq   10f14 <func_73+0x1e7>
   11702:	48 8b 85 b8 f9 ff ff 	mov    -0x648(%rbp),%rax
   11709:	8b 00                	mov    (%rax),%eax
   1170b:	85 c0                	test   %eax,%eax
   1170d:	0f 85 f2 00 00 00    	jne    11805 <func_73+0xad8>
   11713:	0f b7 05 22 7a 00 00 	movzwl 0x7a22(%rip),%eax        # 1913c <g_166>
   1171a:	83 e8 01             	sub    $0x1,%eax
   1171d:	66 89 05 18 7a 00 00 	mov    %ax,0x7a18(%rip)        # 1913c <g_166>
   11724:	8b 05 0a b9 00 00    	mov    0xb90a(%rip),%eax        # 1d034 <g_162+0x4>
   1172a:	89 c3                	mov    %eax,%ebx
   1172c:	0f b6 85 b4 f9 ff ff 	movzbl -0x64c(%rbp),%eax
   11733:	0f be c0             	movsbl %al,%eax
   11736:	be 04 00 00 00       	mov    $0x4,%esi
   1173b:	89 c7                	mov    %eax,%edi
   1173d:	e8 2a 6c ff ff       	callq  836c <safe_rshift_func_int8_t_s_u>
   11742:	89 de                	mov    %ebx,%esi
   11744:	bf fc ff 00 00       	mov    $0xfffc,%edi
   11749:	e8 b8 76 ff ff       	callq  8e06 <safe_lshift_func_uint16_t_u_u>
   1174e:	0f b7 d0             	movzwl %ax,%edx
   11751:	48 8d 05 d0 b8 00 00 	lea    0xb8d0(%rip),%rax        # 1d028 <g_85>
   11758:	48 89 85 58 fa ff ff 	mov    %rax,-0x5a8(%rbp)
   1175f:	48 8b 85 c8 fa ff ff 	mov    -0x538(%rbp),%rax
   11766:	48 8d 0d bb 79 00 00 	lea    0x79bb(%rip),%rcx        # 19128 <g_103>
   1176d:	48 89 08             	mov    %rcx,(%rax)
   11770:	48 8b 85 c8 fa ff ff 	mov    -0x538(%rbp),%rax
   11777:	48 8b 00             	mov    (%rax),%rax
   1177a:	48 39 85 90 fa ff ff 	cmp    %rax,-0x570(%rbp)
   11781:	0f 95 c0             	setne  %al
   11784:	0f b6 c0             	movzbl %al,%eax
   11787:	39 c2                	cmp    %eax,%edx
   11789:	0f 9c c0             	setl   %al
   1178c:	0f b6 d0             	movzbl %al,%edx
   1178f:	8b 05 9b b8 00 00    	mov    0xb89b(%rip),%eax        # 1d030 <g_162>
   11795:	39 c2                	cmp    %eax,%edx
   11797:	0f 9d c0             	setge  %al
   1179a:	8b 35 88 b8 00 00    	mov    0xb888(%rip),%esi        # 1d028 <g_85>
   117a0:	8b 3d 82 b8 00 00    	mov    0xb882(%rip),%edi        # 1d028 <g_85>
   117a6:	0f b6 c0             	movzbl %al,%eax
   117a9:	89 f9                	mov    %edi,%ecx
   117ab:	89 f2                	mov    %esi,%edx
   117ad:	48 c1 e2 02          	shl    $0x2,%rdx
   117b1:	48 01 ca             	add    %rcx,%rdx
   117b4:	48 8d 0c d5 00 00 00 	lea    0x0(,%rdx,8),%rcx
   117bb:	00 
   117bc:	48 8d 15 7d 78 00 00 	lea    0x787d(%rip),%rdx        # 19040 <g_2>
   117c3:	48 89 04 11          	mov    %rax,(%rcx,%rdx,1)
   117c7:	89 fa                	mov    %edi,%edx
   117c9:	89 f0                	mov    %esi,%eax
   117cb:	48 c1 e0 02          	shl    $0x2,%rax
   117cf:	48 01 d0             	add    %rdx,%rax
   117d2:	48 8d 14 c5 00 00 00 	lea    0x0(,%rax,8),%rdx
   117d9:	00 
   117da:	48 8d 05 5f 78 00 00 	lea    0x785f(%rip),%rax        # 19040 <g_2>
   117e1:	48 8b 14 02          	mov    (%rdx,%rax,1),%rdx
   117e5:	48 8b 05 34 79 00 00 	mov    0x7934(%rip),%rax        # 19120 <g_93>
   117ec:	48 39 c2             	cmp    %rax,%rdx
   117ef:	0f 97 c0             	seta   %al
   117f2:	0f b6 d0             	movzbl %al,%edx
   117f5:	8b 85 74 fe ff ff    	mov    -0x18c(%rbp),%eax
   117fb:	09 d0                	or     %edx,%eax
   117fd:	89 85 74 fe ff ff    	mov    %eax,-0x18c(%rbp)
   11803:	eb 03                	jmp    11808 <func_73+0xadb>
   11805:	90                   	nop
   11806:	eb 20                	jmp    11828 <func_73+0xafb>
   11808:	8b 05 1a b8 00 00    	mov    0xb81a(%rip),%eax        # 1d028 <g_85>
   1180e:	83 c0 01             	add    $0x1,%eax
   11811:	89 05 11 b8 00 00    	mov    %eax,0xb811(%rip)        # 1d028 <g_85>
   11817:	8b 05 0b b8 00 00    	mov    0xb80b(%rip),%eax        # 1d028 <g_85>
   1181d:	83 f8 03             	cmp    $0x3,%eax
   11820:	0f 86 a5 f9 ff ff    	jbe    111cb <func_73+0x49e>
   11826:	eb 04                	jmp    1182c <func_73+0xaff>
   11828:	90                   	nop
   11829:	eb 01                	jmp    1182c <func_73+0xaff>
   1182b:	90                   	nop
   1182c:	48 8b 95 40 fc ff ff 	mov    -0x3c0(%rbp),%rdx
   11833:	48 8b 85 68 fa ff ff 	mov    -0x598(%rbp),%rax
   1183a:	48 89 10             	mov    %rdx,(%rax)
   1183d:	48 8b 85 68 fa ff ff 	mov    -0x598(%rbp),%rax
   11844:	48 8b 10             	mov    (%rax),%rdx
   11847:	48 8d 85 38 fa ff ff 	lea    -0x5c8(%rbp),%rax
   1184e:	48 39 c2             	cmp    %rax,%rdx
   11851:	0f 95 c0             	setne  %al
   11854:	0f b6 d8             	movzbl %al,%ebx
   11857:	8b 05 cb b7 00 00    	mov    0xb7cb(%rip),%eax        # 1d028 <g_85>
   1185d:	41 89 c4             	mov    %eax,%r12d
   11860:	8b 05 b6 78 00 00    	mov    0x78b6(%rip),%eax        # 1911c <g_90>
   11866:	48 98                	cltq   
   11868:	48 89 c7             	mov    %rax,%rdi
   1186b:	e8 a6 6f ff ff       	callq  8816 <safe_unary_minus_func_int64_t_s>
   11870:	0f b7 05 b9 78 00 00 	movzwl 0x78b9(%rip),%eax        # 19130 <g_128>
   11877:	0f b7 d0             	movzwl %ax,%edx
   1187a:	48 8b 05 a7 78 00 00 	mov    0x78a7(%rip),%rax        # 19128 <g_103>
   11881:	48 39 c2             	cmp    %rax,%rdx
   11884:	0f 9d c0             	setge  %al
   11887:	0f b6 d0             	movzbl %al,%edx
   1188a:	0f b7 85 c8 f9 ff ff 	movzwl -0x638(%rbp),%eax
   11891:	8d 48 01             	lea    0x1(%rax),%ecx
   11894:	0f b7 85 c8 f9 ff ff 	movzwl -0x638(%rbp),%eax
   1189b:	48 98                	cltq   
   1189d:	48 63 c9             	movslq %ecx,%rcx
   118a0:	48 c1 e1 02          	shl    $0x2,%rcx
   118a4:	48 01 c8             	add    %rcx,%rax
   118a7:	48 8d 0c c5 00 00 00 	lea    0x0(,%rax,8),%rcx
   118ae:	00 
   118af:	48 8d 05 8a 77 00 00 	lea    0x778a(%rip),%rax        # 19040 <g_2>
   118b6:	48 8b 04 01          	mov    (%rcx,%rax,1),%rax
   118ba:	98                   	cwtl   
   118bb:	89 d6                	mov    %edx,%esi
   118bd:	89 c7                	mov    %eax,%edi
   118bf:	e8 1d 6c ff ff       	callq  84e1 <safe_lshift_func_int16_t_s_u>
   118c4:	0f bf d0             	movswl %ax,%edx
   118c7:	48 8b 85 30 fa ff ff 	mov    -0x5d0(%rbp),%rax
   118ce:	48 85 c0             	test   %rax,%rax
   118d1:	0f 95 c0             	setne  %al
   118d4:	0f b6 c0             	movzbl %al,%eax
   118d7:	39 c2                	cmp    %eax,%edx
   118d9:	0f 95 c0             	setne  %al
   118dc:	0f b6 c0             	movzbl %al,%eax
   118df:	be f6 ff ff ff       	mov    $0xfffffff6,%esi
   118e4:	89 c7                	mov    %eax,%edi
   118e6:	e8 c8 6a ff ff       	callq  83b3 <safe_add_func_int16_t_s_s>
   118eb:	8b 85 6c fe ff ff    	mov    -0x194(%rbp),%eax
   118f1:	83 e0 8d             	and    $0xffffff8d,%eax
   118f4:	0f be c0             	movsbl %al,%eax
   118f7:	44 89 e6             	mov    %r12d,%esi
   118fa:	89 c7                	mov    %eax,%edi
   118fc:	e8 34 6a ff ff       	callq  8335 <safe_rshift_func_int8_t_s_s>
   11901:	0f be c0             	movsbl %al,%eax
   11904:	39 c3                	cmp    %eax,%ebx
   11906:	0f 9e c0             	setle  %al
   11909:	0f b6 c0             	movzbl %al,%eax
   1190c:	be 06 00 00 00       	mov    $0x6,%esi
   11911:	89 c7                	mov    %eax,%edi
   11913:	e8 89 69 ff ff       	callq  82a1 <safe_lshift_func_int8_t_s_s>
   11918:	84 c0                	test   %al,%al
   1191a:	0f 84 ae 07 00 00    	je     120ce <func_73+0x13a1>
   11920:	66 c7 85 48 fa ff ff 	movw   $0x23bb,-0x5b8(%rbp)
   11927:	bb 23 
   11929:	66 c7 85 b4 fb ff ff 	movw   $0xea24,-0x44c(%rbp)
   11930:	24 ea 
   11932:	66 c7 85 b6 fb ff ff 	movw   $0xffff,-0x44a(%rbp)
   11939:	ff ff 
   1193b:	66 c7 85 b8 fb ff ff 	movw   $0xffff,-0x448(%rbp)
   11942:	ff ff 
   11944:	66 c7 85 ba fb ff ff 	movw   $0xea24,-0x446(%rbp)
   1194b:	24 ea 
   1194d:	66 c7 85 bc fb ff ff 	movw   $0xffff,-0x444(%rbp)
   11954:	ff ff 
   11956:	66 c7 85 be fb ff ff 	movw   $0xffff,-0x442(%rbp)
   1195d:	ff ff 
   1195f:	c7 85 ec f9 ff ff e4 	movl   $0x482c0ee4,-0x614(%rbp)
   11966:	0e 2c 48 
   11969:	c7 85 f0 f9 ff ff 01 	movl   $0x1,-0x610(%rbp)
   11970:	00 00 00 
   11973:	c7 85 f4 f9 ff ff 00 	movl   $0x0,-0x60c(%rbp)
   1197a:	00 00 00 
   1197d:	eb 45                	jmp    119c4 <func_73+0xc97>
   1197f:	c7 85 f8 f9 ff ff 00 	movl   $0x0,-0x608(%rbp)
   11986:	00 00 00 
   11989:	eb 29                	jmp    119b4 <func_73+0xc87>
   1198b:	8b 85 f8 f9 ff ff    	mov    -0x608(%rbp),%eax
   11991:	48 98                	cltq   
   11993:	8b 95 f4 f9 ff ff    	mov    -0x60c(%rbp),%edx
   11999:	48 63 d2             	movslq %edx,%rdx
   1199c:	48 01 d2             	add    %rdx,%rdx
   1199f:	48 01 d0             	add    %rdx,%rax
   119a2:	c7 84 85 a4 fb ff ff 	movl   $0x5bdeca5b,-0x45c(%rbp,%rax,4)
   119a9:	5b ca de 5b 
   119ad:	83 85 f8 f9 ff ff 01 	addl   $0x1,-0x608(%rbp)
   119b4:	83 bd f8 f9 ff ff 01 	cmpl   $0x1,-0x608(%rbp)
   119bb:	7e ce                	jle    1198b <func_73+0xc5e>
   119bd:	83 85 f4 f9 ff ff 01 	addl   $0x1,-0x60c(%rbp)
   119c4:	83 bd f4 f9 ff ff 00 	cmpl   $0x0,-0x60c(%rbp)
   119cb:	7e b2                	jle    1197f <func_73+0xc52>
   119cd:	c7 05 51 b6 00 00 00 	movl   $0x0,0xb651(%rip)        # 1d028 <g_85>
   119d4:	00 00 00 
   119d7:	eb 1d                	jmp    119f6 <func_73+0xcc9>
   119d9:	48 8d 05 3c 77 00 00 	lea    0x773c(%rip),%rax        # 1911c <g_90>
   119e0:	48 89 85 b8 f9 ff ff 	mov    %rax,-0x648(%rbp)
   119e7:	8b 05 3b b6 00 00    	mov    0xb63b(%rip),%eax        # 1d028 <g_85>
   119ed:	83 c0 01             	add    $0x1,%eax
   119f0:	89 05 32 b6 00 00    	mov    %eax,0xb632(%rip)        # 1d028 <g_85>
   119f6:	8b 05 2c b6 00 00    	mov    0xb62c(%rip),%eax        # 1d028 <g_85>
   119fc:	85 c0                	test   %eax,%eax
   119fe:	74 d9                	je     119d9 <func_73+0xcac>
   11a00:	c7 85 e8 f9 ff ff 00 	movl   $0x0,-0x618(%rbp)
   11a07:	00 00 00 
   11a0a:	e9 ad 06 00 00       	jmpq   120bc <func_73+0x138f>
   11a0f:	48 c7 85 30 fb ff ff 	movq   $0x0,-0x4d0(%rbp)
   11a16:	00 00 00 00 
   11a1a:	48 c7 85 38 fb ff ff 	movq   $0x0,-0x4c8(%rbp)
   11a21:	00 00 00 00 
   11a25:	48 8d 05 fc b5 00 00 	lea    0xb5fc(%rip),%rax        # 1d028 <g_85>
   11a2c:	48 89 85 40 fb ff ff 	mov    %rax,-0x4c0(%rbp)
   11a33:	48 8d 85 20 fc ff ff 	lea    -0x3e0(%rbp),%rax
   11a3a:	48 83 c0 18          	add    $0x18,%rax
   11a3e:	48 89 85 48 fb ff ff 	mov    %rax,-0x4b8(%rbp)
   11a45:	48 8b 85 b8 f9 ff ff 	mov    -0x648(%rbp),%rax
   11a4c:	8b 00                	mov    (%rax),%eax
   11a4e:	85 c0                	test   %eax,%eax
   11a50:	74 0e                	je     11a60 <func_73+0xd33>
   11a52:	48 8b 05 07 98 00 00 	mov    0x9807(%rip),%rax        # 1b260 <g_89>
   11a59:	8b 00                	mov    (%rax),%eax
   11a5b:	e9 7e 0e 00 00       	jmpq   128de <func_73+0x1bb1>
   11a60:	48 8d 05 cb 76 00 00 	lea    0x76cb(%rip),%rax        # 19132 <g_132>
   11a67:	48 89 85 50 fa ff ff 	mov    %rax,-0x5b0(%rbp)
   11a6e:	48 8d 85 50 fa ff ff 	lea    -0x5b0(%rbp),%rax
   11a75:	48 89 85 c0 fc ff ff 	mov    %rax,-0x340(%rbp)
   11a7c:	48 8d 85 50 fa ff ff 	lea    -0x5b0(%rbp),%rax
   11a83:	48 89 85 c8 fc ff ff 	mov    %rax,-0x338(%rbp)
   11a8a:	48 8d 85 50 fa ff ff 	lea    -0x5b0(%rbp),%rax
   11a91:	48 89 85 d0 fc ff ff 	mov    %rax,-0x330(%rbp)
   11a98:	48 8d 85 50 fa ff ff 	lea    -0x5b0(%rbp),%rax
   11a9f:	48 89 85 d8 fc ff ff 	mov    %rax,-0x328(%rbp)
   11aa6:	48 8d 85 50 fa ff ff 	lea    -0x5b0(%rbp),%rax
   11aad:	48 89 85 e0 fc ff ff 	mov    %rax,-0x320(%rbp)
   11ab4:	48 8d 85 50 fa ff ff 	lea    -0x5b0(%rbp),%rax
   11abb:	48 89 85 e8 fc ff ff 	mov    %rax,-0x318(%rbp)
   11ac2:	48 8d 85 50 fa ff ff 	lea    -0x5b0(%rbp),%rax
   11ac9:	48 89 85 f0 fc ff ff 	mov    %rax,-0x310(%rbp)
   11ad0:	48 8d 85 50 fa ff ff 	lea    -0x5b0(%rbp),%rax
   11ad7:	48 89 85 f8 fc ff ff 	mov    %rax,-0x308(%rbp)
   11ade:	48 8d 85 50 fa ff ff 	lea    -0x5b0(%rbp),%rax
   11ae5:	48 89 85 00 fd ff ff 	mov    %rax,-0x300(%rbp)
   11aec:	48 8d 05 9e 76 00 00 	lea    0x769e(%rip),%rax        # 19191 <g_212+0x51>
   11af3:	48 89 85 50 fb ff ff 	mov    %rax,-0x4b0(%rbp)
   11afa:	48 8d 85 c4 f9 ff ff 	lea    -0x63c(%rbp),%rax
   11b01:	48 89 85 58 fb ff ff 	mov    %rax,-0x4a8(%rbp)
   11b08:	48 8d 05 2d 76 00 00 	lea    0x762d(%rip),%rax        # 1913c <g_166>
   11b0f:	48 89 85 60 fb ff ff 	mov    %rax,-0x4a0(%rbp)
   11b16:	66 c7 85 ca f9 ff ff 	movw   $0xcc87,-0x636(%rbp)
   11b1d:	87 cc 
   11b1f:	48 8b 05 3a 97 00 00 	mov    0x973a(%rip),%rax        # 1b260 <g_89>
   11b26:	8b 00                	mov    (%rax),%eax
   11b28:	85 c0                	test   %eax,%eax
   11b2a:	0f 85 6c 0c 00 00    	jne    1279c <func_73+0x1a6f>
   11b30:	0f b7 85 ca f9 ff ff 	movzwl -0x636(%rbp),%eax
   11b37:	0f b6 d8             	movzbl %al,%ebx
   11b3a:	0f b7 85 b4 fb ff ff 	movzwl -0x44c(%rbp),%eax
   11b41:	44 0f bf e0          	movswl %ax,%r12d
   11b45:	48 8b 85 50 fb ff ff 	mov    -0x4b0(%rbp),%rax
   11b4c:	0f b6 00             	movzbl (%rax),%eax
   11b4f:	89 c2                	mov    %eax,%edx
   11b51:	0f b7 85 48 fa ff ff 	movzwl -0x5b8(%rbp),%eax
   11b58:	21 d0                	and    %edx,%eax
   11b5a:	89 c2                	mov    %eax,%edx
   11b5c:	48 8b 85 50 fb ff ff 	mov    -0x4b0(%rbp),%rax
   11b63:	88 10                	mov    %dl,(%rax)
   11b65:	48 8b 85 50 fb ff ff 	mov    -0x4b0(%rbp),%rax
   11b6c:	0f b6 00             	movzbl (%rax),%eax
   11b6f:	84 c0                	test   %al,%al
   11b71:	0f 84 b2 00 00 00    	je     11c29 <func_73+0xefc>
   11b77:	0f b6 85 b4 f9 ff ff 	movzbl -0x64c(%rbp),%eax
   11b7e:	44 0f b6 e8          	movzbl %al,%r13d
   11b82:	be 03 00 00 00       	mov    $0x3,%esi
   11b87:	bf 33 ea 00 00       	mov    $0xea33,%edi
   11b8c:	e8 75 72 ff ff       	callq  8e06 <safe_lshift_func_uint16_t_u_u>
   11b91:	0f b7 c0             	movzwl %ax,%eax
   11b94:	89 c6                	mov    %eax,%esi
   11b96:	bf f5 ef 9d d6       	mov    $0xd69deff5,%edi
   11b9b:	e8 65 6a ff ff       	callq  8605 <safe_sub_func_int32_t_s_s>
   11ba0:	0f b7 d0             	movzwl %ax,%edx
   11ba3:	48 8b 85 58 fb ff ff 	mov    -0x4a8(%rbp),%rax
   11baa:	0f b7 00             	movzwl (%rax),%eax
   11bad:	8b 0d 75 b4 00 00    	mov    0xb475(%rip),%ecx        # 1d028 <g_85>
   11bb3:	09 c1                	or     %eax,%ecx
   11bb5:	48 8b 85 58 fb ff ff 	mov    -0x4a8(%rbp),%rax
   11bbc:	66 89 08             	mov    %cx,(%rax)
   11bbf:	48 8b 85 58 fb ff ff 	mov    -0x4a8(%rbp),%rax
   11bc6:	0f b7 00             	movzwl (%rax),%eax
   11bc9:	0f b7 c0             	movzwl %ax,%eax
   11bcc:	89 d6                	mov    %edx,%esi
   11bce:	89 c7                	mov    %eax,%edi
   11bd0:	e8 68 71 ff ff       	callq  8d3d <safe_mul_func_uint16_t_u_u>
   11bd5:	66 39 85 c8 f9 ff ff 	cmp    %ax,-0x638(%rbp)
   11bdc:	74 07                	je     11be5 <func_73+0xeb8>
   11bde:	ba 03 00 00 00       	mov    $0x3,%edx
   11be3:	eb 05                	jmp    11bea <func_73+0xebd>
   11be5:	ba 02 00 00 00       	mov    $0x2,%edx
   11bea:	48 8b 85 60 fb ff ff 	mov    -0x4a0(%rbp),%rax
   11bf1:	0f b7 00             	movzwl (%rax),%eax
   11bf4:	21 c2                	and    %eax,%edx
   11bf6:	48 8b 85 60 fb ff ff 	mov    -0x4a0(%rbp),%rax
   11bfd:	66 89 10             	mov    %dx,(%rax)
   11c00:	48 8b 85 60 fb ff ff 	mov    -0x4a0(%rbp),%rax
   11c07:	0f b7 00             	movzwl (%rax),%eax
   11c0a:	0f b7 c0             	movzwl %ax,%eax
   11c0d:	44 89 ee             	mov    %r13d,%esi
   11c10:	89 c7                	mov    %eax,%edi
   11c12:	e8 45 71 ff ff       	callq  8d5c <safe_mod_func_uint16_t_u_u>
   11c17:	0f b6 85 b4 f9 ff ff 	movzbl -0x64c(%rbp),%eax
   11c1e:	84 c0                	test   %al,%al
   11c20:	74 07                	je     11c29 <func_73+0xefc>
   11c22:	b8 01 00 00 00       	mov    $0x1,%eax
   11c27:	eb 05                	jmp    11c2e <func_73+0xf01>
   11c29:	b8 00 00 00 00       	mov    $0x0,%eax
   11c2e:	89 85 a4 fb ff ff    	mov    %eax,-0x45c(%rbp)
   11c34:	48 8d 05 f7 74 00 00 	lea    0x74f7(%rip),%rax        # 19132 <g_132>
   11c3b:	48 89 85 98 fa ff ff 	mov    %rax,-0x568(%rbp)
   11c42:	48 8b 85 40 fa ff ff 	mov    -0x5c0(%rbp),%rax
   11c49:	48 39 85 98 fa ff ff 	cmp    %rax,-0x568(%rbp)
   11c50:	0f 95 c0             	setne  %al
   11c53:	0f b6 d0             	movzbl %al,%edx
   11c56:	0f b7 05 d3 74 00 00 	movzwl 0x74d3(%rip),%eax        # 19130 <g_128>
   11c5d:	0f b7 c0             	movzwl %ax,%eax
   11c60:	39 c2                	cmp    %eax,%edx
   11c62:	0f 95 c0             	setne  %al
   11c65:	0f b6 d0             	movzbl %al,%edx
   11c68:	0f b6 85 b4 f9 ff ff 	movzbl -0x64c(%rbp),%eax
   11c6f:	0f b6 c0             	movzbl %al,%eax
   11c72:	39 c2                	cmp    %eax,%edx
   11c74:	0f 9f c0             	setg   %al
   11c77:	0f b6 c0             	movzbl %al,%eax
   11c7a:	44 89 e6             	mov    %r12d,%esi
   11c7d:	89 c7                	mov    %eax,%edi
   11c7f:	e8 71 67 ff ff       	callq  83f5 <safe_mul_func_int16_t_s_s>
   11c84:	48 0f bf d0          	movswq %ax,%rdx
   11c88:	0f b7 85 c8 f9 ff ff 	movzwl -0x638(%rbp),%eax
   11c8f:	8d 48 01             	lea    0x1(%rax),%ecx
   11c92:	0f b7 85 c8 f9 ff ff 	movzwl -0x638(%rbp),%eax
   11c99:	48 98                	cltq   
   11c9b:	48 63 c9             	movslq %ecx,%rcx
   11c9e:	48 c1 e1 02          	shl    $0x2,%rcx
   11ca2:	48 01 c8             	add    %rcx,%rax
   11ca5:	48 8d 0c c5 00 00 00 	lea    0x0(,%rax,8),%rcx
   11cac:	00 
   11cad:	48 8d 05 8c 73 00 00 	lea    0x738c(%rip),%rax        # 19040 <g_2>
   11cb4:	48 8b 04 01          	mov    (%rcx,%rax,1),%rax
   11cb8:	48 39 c2             	cmp    %rax,%rdx
   11cbb:	0f 95 c0             	setne  %al
   11cbe:	0f b6 d0             	movzbl %al,%edx
   11cc1:	8b 05 41 74 00 00    	mov    0x7441(%rip),%eax        # 19108 <g_4>
   11cc7:	0f b7 c0             	movzwl %ax,%eax
   11cca:	89 d6                	mov    %edx,%esi
   11ccc:	89 c7                	mov    %eax,%edi
   11cce:	e8 2c 70 ff ff       	callq  8cff <safe_add_func_uint16_t_u_u>
   11cd3:	44 0f bf e0          	movswl %ax,%r12d
   11cd7:	0f b7 05 54 74 00 00 	movzwl 0x7454(%rip),%eax        # 19132 <g_132>
   11cde:	48 0f bf d0          	movswq %ax,%rdx
   11ce2:	0f b6 85 b4 f9 ff ff 	movzbl -0x64c(%rbp),%eax
   11ce9:	0f b6 c0             	movzbl %al,%eax
   11cec:	48 89 d6             	mov    %rdx,%rsi
   11cef:	48 89 c7             	mov    %rax,%rdi
   11cf2:	e8 00 6d ff ff       	callq  89f7 <safe_div_func_int64_t_s_s>
   11cf7:	98                   	cwtl   
   11cf8:	44 89 e6             	mov    %r12d,%esi
   11cfb:	89 c7                	mov    %eax,%edi
   11cfd:	e8 f3 66 ff ff       	callq  83f5 <safe_mul_func_int16_t_s_s>
   11d02:	0f b6 85 b4 f9 ff ff 	movzbl -0x64c(%rbp),%eax
   11d09:	0f b6 d0             	movzbl %al,%edx
   11d0c:	48 8b 05 15 74 00 00 	mov    0x7415(%rip),%rax        # 19128 <g_103>
   11d13:	48 39 c2             	cmp    %rax,%rdx
   11d16:	0f 9e c0             	setle  %al
   11d19:	0f b6 c0             	movzbl %al,%eax
   11d1c:	66 89 85 b2 fb ff ff 	mov    %ax,-0x44e(%rbp)
   11d23:	0f b7 85 b2 fb ff ff 	movzwl -0x44e(%rbp),%eax
   11d2a:	0f b6 c0             	movzbl %al,%eax
   11d2d:	89 de                	mov    %ebx,%esi
   11d2f:	89 c7                	mov    %eax,%edi
   11d31:	e8 a5 6e ff ff       	callq  8bdb <safe_div_func_uint8_t_u_u>
   11d36:	0f b6 c0             	movzbl %al,%eax
   11d39:	09 85 ec f9 ff ff    	or     %eax,-0x614(%rbp)
   11d3f:	0f b6 85 b4 f9 ff ff 	movzbl -0x64c(%rbp),%eax
   11d46:	0f b6 d8             	movzbl %al,%ebx
   11d49:	48 83 bd b8 f9 ff ff 	cmpq   $0x0,-0x648(%rbp)
   11d50:	00 
   11d51:	0f 95 c0             	setne  %al
   11d54:	0f b6 c0             	movzbl %al,%eax
   11d57:	89 85 a4 f9 ff ff    	mov    %eax,-0x65c(%rbp)
   11d5d:	8b 85 ec fd ff ff    	mov    -0x214(%rbp),%eax
   11d63:	44 0f b7 e0          	movzwl %ax,%r12d
   11d67:	0f b6 85 b4 f9 ff ff 	movzbl -0x64c(%rbp),%eax
   11d6e:	44 0f b6 e8          	movzbl %al,%r13d
   11d72:	8b 85 dc f9 ff ff    	mov    -0x624(%rbp),%eax
   11d78:	4c 63 f0             	movslq %eax,%r14
   11d7b:	0f b6 85 b4 f9 ff ff 	movzbl -0x64c(%rbp),%eax
   11d82:	44 0f b6 f8          	movzbl %al,%r15d
   11d86:	0f b6 85 b4 f9 ff ff 	movzbl -0x64c(%rbp),%eax
   11d8d:	0f b6 d0             	movzbl %al,%edx
   11d90:	8b 0d 72 73 00 00    	mov    0x7372(%rip),%ecx        # 19108 <g_4>
   11d96:	48 8b 85 40 fb ff ff 	mov    -0x4c0(%rbp),%rax
   11d9d:	8b 00                	mov    (%rax),%eax
   11d9f:	83 f0 01             	xor    $0x1,%eax
   11da2:	89 c6                	mov    %eax,%esi
   11da4:	48 8b 85 40 fb ff ff 	mov    -0x4c0(%rbp),%rax
   11dab:	89 30                	mov    %esi,(%rax)
   11dad:	48 8b 85 40 fb ff ff 	mov    -0x4c0(%rbp),%rax
   11db4:	8b 00                	mov    (%rax),%eax
   11db6:	85 c0                	test   %eax,%eax
   11db8:	75 0c                	jne    11dc6 <func_73+0x1099>
   11dba:	0f b7 85 48 fa ff ff 	movzwl -0x5b8(%rbp),%eax
   11dc1:	66 85 c0             	test   %ax,%ax
   11dc4:	74 07                	je     11dcd <func_73+0x10a0>
   11dc6:	b8 01 00 00 00       	mov    $0x1,%eax
   11dcb:	eb 05                	jmp    11dd2 <func_73+0x10a5>
   11dcd:	b8 00 00 00 00       	mov    $0x0,%eax
   11dd2:	83 f8 fc             	cmp    $0xfffffffc,%eax
   11dd5:	0f 9c c0             	setl   %al
   11dd8:	0f b6 c0             	movzbl %al,%eax
   11ddb:	39 c1                	cmp    %eax,%ecx
   11ddd:	0f 95 c0             	setne  %al
   11de0:	0f b6 c0             	movzbl %al,%eax
   11de3:	89 d6                	mov    %edx,%esi
   11de5:	89 c7                	mov    %eax,%edi
   11de7:	e8 02 65 ff ff       	callq  82ee <safe_lshift_func_int8_t_s_u>
   11dec:	4c 89 fe             	mov    %r15,%rsi
   11def:	bf 01 00 00 00       	mov    $0x1,%edi
   11df4:	e8 af 6a ff ff       	callq  88a8 <safe_sub_func_int64_t_s_s>
   11df9:	48 83 f8 04          	cmp    $0x4,%rax
   11dfd:	74 07                	je     11e06 <func_73+0x10d9>
   11dff:	ba 01 00 00 00       	mov    $0x1,%edx
   11e04:	eb 05                	jmp    11e0b <func_73+0x10de>
   11e06:	ba 00 00 00 00       	mov    $0x0,%edx
   11e0b:	0f b6 85 b4 f9 ff ff 	movzbl -0x64c(%rbp),%eax
   11e12:	0f b6 c0             	movzbl %al,%eax
   11e15:	31 d0                	xor    %edx,%eax
   11e17:	48 98                	cltq   
   11e19:	4c 89 f6             	mov    %r14,%rsi
   11e1c:	48 89 c7             	mov    %rax,%rdi
   11e1f:	e8 0a 72 ff ff       	callq  902e <safe_add_func_uint64_t_u_u>
   11e24:	0f b6 c0             	movzbl %al,%eax
   11e27:	44 89 ee             	mov    %r13d,%esi
   11e2a:	89 c7                	mov    %eax,%edi
   11e2c:	e8 5c 6e ff ff       	callq  8c8d <safe_rshift_func_uint8_t_u_s>
   11e31:	0f b6 d0             	movzbl %al,%edx
   11e34:	0f b7 85 c8 f9 ff ff 	movzwl -0x638(%rbp),%eax
   11e3b:	0f b6 c0             	movzbl %al,%eax
   11e3e:	89 d6                	mov    %edx,%esi
   11e40:	89 c7                	mov    %eax,%edi
   11e42:	e8 be 6d ff ff       	callq  8c05 <safe_lshift_func_uint8_t_u_s>
   11e47:	0f b6 c0             	movzbl %al,%eax
   11e4a:	be 04 00 00 00       	mov    $0x4,%esi
   11e4f:	89 c7                	mov    %eax,%edi
   11e51:	e8 f6 6d ff ff       	callq  8c4c <safe_lshift_func_uint8_t_u_u>
   11e56:	0f b6 c0             	movzbl %al,%eax
   11e59:	48 89 c7             	mov    %rax,%rdi
   11e5c:	e8 b8 71 ff ff       	callq  9019 <safe_unary_minus_func_uint64_t_u>
   11e61:	0f b7 c0             	movzwl %ax,%eax
   11e64:	44 89 e6             	mov    %r12d,%esi
   11e67:	89 c7                	mov    %eax,%edi
   11e69:	e8 91 6e ff ff       	callq  8cff <safe_add_func_uint16_t_u_u>
   11e6e:	0f b7 c0             	movzwl %ax,%eax
   11e71:	39 85 a4 f9 ff ff    	cmp    %eax,-0x65c(%rbp)
   11e77:	0f 9d c0             	setge  %al
   11e7a:	0f b6 c0             	movzbl %al,%eax
   11e7d:	89 c2                	mov    %eax,%edx
   11e7f:	0f b7 05 aa 72 00 00 	movzwl 0x72aa(%rip),%eax        # 19130 <g_128>
   11e86:	21 d0                	and    %edx,%eax
   11e88:	66 89 05 a1 72 00 00 	mov    %ax,0x72a1(%rip)        # 19130 <g_128>
   11e8f:	0f b7 05 9a 72 00 00 	movzwl 0x729a(%rip),%eax        # 19130 <g_128>
   11e96:	0f b7 c0             	movzwl %ax,%eax
   11e99:	89 c7                	mov    %eax,%edi
   11e9b:	e8 49 6e ff ff       	callq  8ce9 <safe_unary_minus_func_uint16_t_u>
   11ea0:	0f b7 c0             	movzwl %ax,%eax
   11ea3:	89 de                	mov    %ebx,%esi
   11ea5:	89 c7                	mov    %eax,%edi
   11ea7:	e8 9c 6f ff ff       	callq  8e48 <safe_rshift_func_uint16_t_u_s>
   11eac:	8b 95 a8 fb ff ff    	mov    -0x458(%rbp),%edx
   11eb2:	0f b7 c0             	movzwl %ax,%eax
   11eb5:	31 d0                	xor    %edx,%eax
   11eb7:	89 85 a8 fb ff ff    	mov    %eax,-0x458(%rbp)
   11ebd:	8b 85 a8 fb ff ff    	mov    -0x458(%rbp),%eax
   11ec3:	85 c0                	test   %eax,%eax
   11ec5:	0f 84 d2 01 00 00    	je     1209d <func_73+0x1370>
   11ecb:	48 c7 85 68 fb ff ff 	movq   $0x0,-0x498(%rbp)
   11ed2:	00 00 00 00 
   11ed6:	48 c7 85 70 fb ff ff 	movq   $0x0,-0x490(%rbp)
   11edd:	00 00 00 00 
   11ee1:	48 8d 05 48 72 00 00 	lea    0x7248(%rip),%rax        # 19130 <g_128>
   11ee8:	48 89 85 78 fb ff ff 	mov    %rax,-0x488(%rbp)
   11eef:	48 c7 85 80 fb ff ff 	movq   $0x0,-0x480(%rbp)
   11ef6:	00 00 00 00 
   11efa:	48 8d 05 17 73 00 00 	lea    0x7317(%rip),%rax        # 19218 <g_274>
   11f01:	48 89 85 88 fb ff ff 	mov    %rax,-0x478(%rbp)
   11f08:	c7 85 1c fa ff ff 03 	movl   $0x3,-0x5e4(%rbp)
   11f0f:	00 00 00 
   11f12:	48 8d 05 67 93 00 00 	lea    0x9367(%rip),%rax        # 1b280 <g_276>
   11f19:	48 89 85 90 fb ff ff 	mov    %rax,-0x470(%rbp)
   11f20:	48 8b 85 40 fb ff ff 	mov    -0x4c0(%rbp),%rax
   11f27:	8b 00                	mov    (%rax),%eax
   11f29:	8d 50 ff             	lea    -0x1(%rax),%edx
   11f2c:	48 8b 85 40 fb ff ff 	mov    -0x4c0(%rbp),%rax
   11f33:	89 10                	mov    %edx,(%rax)
   11f35:	48 8b 05 e4 71 00 00 	mov    0x71e4(%rip),%rax        # 19120 <g_93>
   11f3c:	0f bf d8             	movswl %ax,%ebx
   11f3f:	0f b6 85 b4 f9 ff ff 	movzbl -0x64c(%rbp),%eax
   11f46:	44 0f be e0          	movsbl %al,%r12d
   11f4a:	0f b6 85 b4 f9 ff ff 	movzbl -0x64c(%rbp),%eax
   11f51:	44 0f b6 e8          	movzbl %al,%r13d
   11f55:	be 06 00 00 00       	mov    $0x6,%esi
   11f5a:	bf a9 65 00 00       	mov    $0x65a9,%edi
   11f5f:	e8 ff 65 ff ff       	callq  8563 <safe_rshift_func_int16_t_s_u>
   11f64:	0f b7 05 d3 71 00 00 	movzwl 0x71d3(%rip),%eax        # 1913e <g_209>
   11f6b:	66 85 c0             	test   %ax,%ax
   11f6e:	74 3b                	je     11fab <func_73+0x127e>
   11f70:	48 8b 85 78 fb ff ff 	mov    -0x488(%rbp),%rax
   11f77:	0f b7 00             	movzwl (%rax),%eax
   11f7a:	8d 50 01             	lea    0x1(%rax),%edx
   11f7d:	48 8b 85 78 fb ff ff 	mov    -0x488(%rbp),%rax
   11f84:	66 89 10             	mov    %dx,(%rax)
   11f87:	48 8b 85 78 fb ff ff 	mov    -0x488(%rbp),%rax
   11f8e:	0f b7 10             	movzwl (%rax),%edx
   11f91:	0f b7 05 a4 71 00 00 	movzwl 0x71a4(%rip),%eax        # 1913c <g_166>
   11f98:	31 d0                	xor    %edx,%eax
   11f9a:	66 89 05 9b 71 00 00 	mov    %ax,0x719b(%rip)        # 1913c <g_166>
   11fa1:	0f b7 05 94 71 00 00 	movzwl 0x7194(%rip),%eax        # 1913c <g_166>
   11fa8:	66 85 c0             	test   %ax,%ax
   11fab:	0f b7 85 b2 fb ff ff 	movzwl -0x44e(%rbp),%eax
   11fb2:	66 85 c0             	test   %ax,%ax
   11fb5:	75 0b                	jne    11fc2 <func_73+0x1295>
   11fb7:	0f b6 85 b4 f9 ff ff 	movzbl -0x64c(%rbp),%eax
   11fbe:	84 c0                	test   %al,%al
   11fc0:	74 07                	je     11fc9 <func_73+0x129c>
   11fc2:	b8 01 00 00 00       	mov    $0x1,%eax
   11fc7:	eb 05                	jmp    11fce <func_73+0x12a1>
   11fc9:	b8 00 00 00 00       	mov    $0x0,%eax
   11fce:	0f be c0             	movsbl %al,%eax
   11fd1:	be 05 00 00 00       	mov    $0x5,%esi
   11fd6:	89 c7                	mov    %eax,%edi
   11fd8:	e8 8f 63 ff ff       	callq  836c <safe_rshift_func_int8_t_s_u>
   11fdd:	48 0f be c0          	movsbq %al,%rax
   11fe1:	8b 95 cc f9 ff ff    	mov    -0x634(%rbp),%edx
   11fe7:	89 d2                	mov    %edx,%edx
   11fe9:	48 21 d0             	and    %rdx,%rax
   11fec:	4c 31 e8             	xor    %r13,%rax
   11fef:	89 c2                	mov    %eax,%edx
   11ff1:	8b 05 25 71 00 00    	mov    0x7125(%rip),%eax        # 1911c <g_90>
   11ff7:	21 d0                	and    %edx,%eax
   11ff9:	89 05 1d 71 00 00    	mov    %eax,0x711d(%rip)        # 1911c <g_90>
   11fff:	8b 05 17 71 00 00    	mov    0x7117(%rip),%eax        # 1911c <g_90>
   12005:	89 c2                	mov    %eax,%edx
   12007:	8b 05 07 72 00 00    	mov    0x7207(%rip),%eax        # 19214 <g_272>
   1200d:	31 d0                	xor    %edx,%eax
   1200f:	89 05 ff 71 00 00    	mov    %eax,0x71ff(%rip)        # 19214 <g_272>
   12015:	8b 05 f9 71 00 00    	mov    0x71f9(%rip),%eax        # 19214 <g_272>
   1201b:	83 f8 07             	cmp    $0x7,%eax
   1201e:	0f 95 c0             	setne  %al
   12021:	89 c2                	mov    %eax,%edx
   12023:	48 8b 85 88 fb ff ff 	mov    -0x478(%rbp),%rax
   1202a:	88 10                	mov    %dl,(%rax)
   1202c:	48 8b 85 88 fb ff ff 	mov    -0x478(%rbp),%rax
   12033:	0f b6 00             	movzbl (%rax),%eax
   12036:	0f be c0             	movsbl %al,%eax
   12039:	44 89 e6             	mov    %r12d,%esi
   1203c:	89 c7                	mov    %eax,%edi
   1203e:	e8 ee 61 ff ff       	callq  8231 <safe_mod_func_int8_t_s_s>
   12043:	0f b7 85 48 fa ff ff 	movzwl -0x5b8(%rbp),%eax
   1204a:	98                   	cwtl   
   1204b:	89 de                	mov    %ebx,%esi
   1204d:	89 c7                	mov    %eax,%edi
   1204f:	e8 5f 63 ff ff       	callq  83b3 <safe_add_func_int16_t_s_s>
   12054:	83 f0 01             	xor    $0x1,%eax
   12057:	98                   	cwtl   
   12058:	31 85 1c fa ff ff    	xor    %eax,-0x5e4(%rbp)
   1205e:	48 8b 15 1b 92 00 00 	mov    0x921b(%rip),%rdx        # 1b280 <g_276>
   12065:	48 8b 85 90 fb ff ff 	mov    -0x470(%rbp),%rax
   1206c:	48 89 10             	mov    %rdx,(%rax)
   1206f:	48 8b 85 90 fb ff ff 	mov    -0x470(%rbp),%rax
   12076:	48 8b 00             	mov    (%rax),%rax
   12079:	48 8d 15 f8 91 00 00 	lea    0x91f8(%rip),%rdx        # 1b278 <g_277+0x8>
   12080:	48 39 d0             	cmp    %rdx,%rax
   12083:	0f 95 c0             	setne  %al
   12086:	0f b6 c0             	movzbl %al,%eax
   12089:	31 85 1c fa ff ff    	xor    %eax,-0x5e4(%rbp)
   1208f:	8b 85 1c fa ff ff    	mov    -0x5e4(%rbp),%eax
   12095:	89 05 81 70 00 00    	mov    %eax,0x7081(%rip)        # 1911c <g_90>
   1209b:	eb 18                	jmp    120b5 <func_73+0x1388>
   1209d:	48 8b 05 bc 91 00 00 	mov    0x91bc(%rip),%rax        # 1b260 <g_89>
   120a4:	8b 00                	mov    (%rax),%eax
   120a6:	85 c0                	test   %eax,%eax
   120a8:	0f 85 f1 06 00 00    	jne    1279f <func_73+0x1a72>
   120ae:	83 85 f0 f9 ff ff 01 	addl   $0x1,-0x610(%rbp)
   120b5:	83 85 e8 f9 ff ff 01 	addl   $0x1,-0x618(%rbp)
   120bc:	83 bd e8 f9 ff ff 00 	cmpl   $0x0,-0x618(%rbp)
   120c3:	0f 8e 46 f9 ff ff    	jle    11a0f <func_73+0xce2>
   120c9:	e9 d2 06 00 00       	jmpq   127a0 <func_73+0x1a73>
   120ce:	48 8d 85 28 fa ff ff 	lea    -0x5d8(%rbp),%rax
   120d5:	48 89 85 50 fa ff ff 	mov    %rax,-0x5b0(%rbp)
   120dc:	c7 85 04 fa ff ff 14 	movl   $0x8ab29114,-0x5fc(%rbp)
   120e3:	91 b2 8a 
   120e6:	c7 85 08 fa ff ff 3b 	movl   $0x705c1f3b,-0x5f8(%rbp)
   120ed:	1f 5c 70 
   120f0:	c7 85 0c fa ff ff 01 	movl   $0x1,-0x5f4(%rbp)
   120f7:	00 00 00 
   120fa:	48 8d 05 17 71 00 00 	lea    0x7117(%rip),%rax        # 19218 <g_274>
   12101:	48 89 85 d0 fa ff ff 	mov    %rax,-0x530(%rbp)
   12108:	48 8d 85 40 fa ff ff 	lea    -0x5c0(%rbp),%rax
   1210f:	48 89 85 d8 fa ff ff 	mov    %rax,-0x528(%rbp)
   12116:	c7 05 fc 6f 00 00 05 	movl   $0x5,0x6ffc(%rip)        # 1911c <g_90>
   1211d:	00 00 00 
   12120:	48 b8 9d c5 52 6a e1 	movabs $0xd07945e16a52c59d,%rax
   12127:	45 79 d0 
   1212a:	48 89 85 e0 fa ff ff 	mov    %rax,-0x520(%rbp)
   12131:	48 8d 05 f8 6f 00 00 	lea    0x6ff8(%rip),%rax        # 19130 <g_128>
   12138:	48 89 85 e8 fa ff ff 	mov    %rax,-0x518(%rbp)
   1213f:	48 8d 85 c4 f9 ff ff 	lea    -0x63c(%rbp),%rax
   12146:	48 89 85 f0 fa ff ff 	mov    %rax,-0x510(%rbp)
   1214d:	48 c7 85 f8 fa ff ff 	movq   $0x0,-0x508(%rbp)
   12154:	00 00 00 00 
   12158:	48 8d 05 db 6f 00 00 	lea    0x6fdb(%rip),%rax        # 1913a <g_159>
   1215f:	48 89 85 00 fb ff ff 	mov    %rax,-0x500(%rbp)
   12166:	48 8d 05 ac 70 00 00 	lea    0x70ac(%rip),%rax        # 19219 <g_315>
   1216d:	48 89 85 08 fb ff ff 	mov    %rax,-0x4f8(%rbp)
   12174:	c7 85 10 fa ff ff 03 	movl   $0x3,-0x5f0(%rbp)
   1217b:	00 00 00 
   1217e:	66 c7 85 c0 fc ff ff 	movw   $0x3,-0x340(%rbp)
   12185:	03 00 
   12187:	66 c7 85 c2 fc ff ff 	movw   $0x1,-0x33e(%rbp)
   1218e:	01 00 
   12190:	66 c7 85 c4 fc ff ff 	movw   $0x1,-0x33c(%rbp)
   12197:	01 00 
   12199:	66 c7 85 c6 fc ff ff 	movw   $0x3,-0x33a(%rbp)
   121a0:	03 00 
   121a2:	66 c7 85 c8 fc ff ff 	movw   $0x1,-0x338(%rbp)
   121a9:	01 00 
   121ab:	66 c7 85 ca fc ff ff 	movw   $0x1,-0x336(%rbp)
   121b2:	01 00 
   121b4:	66 c7 85 cc fc ff ff 	movw   $0x249a,-0x334(%rbp)
   121bb:	9a 24 
   121bd:	66 c7 85 ce fc ff ff 	movw   $0x1,-0x332(%rbp)
   121c4:	01 00 
   121c6:	66 c7 85 d0 fc ff ff 	movw   $0x1,-0x330(%rbp)
   121cd:	01 00 
   121cf:	66 c7 85 d2 fc ff ff 	movw   $0x0,-0x32e(%rbp)
   121d6:	00 00 
   121d8:	66 c7 85 d4 fc ff ff 	movw   $0x249a,-0x32c(%rbp)
   121df:	9a 24 
   121e1:	66 c7 85 d6 fc ff ff 	movw   $0x249a,-0x32a(%rbp)
   121e8:	9a 24 
   121ea:	66 c7 85 d8 fc ff ff 	movw   $0x1,-0x328(%rbp)
   121f1:	01 00 
   121f3:	66 c7 85 da fc ff ff 	movw   $0x1,-0x326(%rbp)
   121fa:	01 00 
   121fc:	66 c7 85 dc fc ff ff 	movw   $0x1,-0x324(%rbp)
   12203:	01 00 
   12205:	66 c7 85 de fc ff ff 	movw   $0x249a,-0x322(%rbp)
   1220c:	9a 24 
   1220e:	66 c7 85 e0 fc ff ff 	movw   $0x3,-0x320(%rbp)
   12215:	03 00 
   12217:	66 c7 85 e2 fc ff ff 	movw   $0x0,-0x31e(%rbp)
   1221e:	00 00 
   12220:	66 c7 85 e4 fc ff ff 	movw   $0x3,-0x31c(%rbp)
   12227:	03 00 
   12229:	66 c7 85 e6 fc ff ff 	movw   $0x1,-0x31a(%rbp)
   12230:	01 00 
   12232:	66 c7 85 e8 fc ff ff 	movw   $0x3,-0x318(%rbp)
   12239:	03 00 
   1223b:	66 c7 85 ea fc ff ff 	movw   $0x1,-0x316(%rbp)
   12242:	01 00 
   12244:	66 c7 85 ec fc ff ff 	movw   $0x1,-0x314(%rbp)
   1224b:	01 00 
   1224d:	66 c7 85 ee fc ff ff 	movw   $0x3,-0x312(%rbp)
   12254:	03 00 
   12256:	66 c7 85 f0 fc ff ff 	movw   $0x1,-0x310(%rbp)
   1225d:	01 00 
   1225f:	66 c7 85 f2 fc ff ff 	movw   $0x1,-0x30e(%rbp)
   12266:	01 00 
   12268:	66 c7 85 f4 fc ff ff 	movw   $0x249a,-0x30c(%rbp)
   1226f:	9a 24 
   12271:	66 c7 85 f6 fc ff ff 	movw   $0x1,-0x30a(%rbp)
   12278:	01 00 
   1227a:	66 c7 85 f8 fc ff ff 	movw   $0x1,-0x308(%rbp)
   12281:	01 00 
   12283:	66 c7 85 fa fc ff ff 	movw   $0x1,-0x306(%rbp)
   1228a:	01 00 
   1228c:	66 c7 85 fc fc ff ff 	movw   $0x0,-0x304(%rbp)
   12293:	00 00 
   12295:	66 c7 85 fe fc ff ff 	movw   $0x0,-0x302(%rbp)
   1229c:	00 00 
   1229e:	66 c7 85 00 fd ff ff 	movw   $0x1,-0x300(%rbp)
   122a5:	01 00 
   122a7:	66 c7 85 02 fd ff ff 	movw   $0x1,-0x2fe(%rbp)
   122ae:	01 00 
   122b0:	66 c7 85 04 fd ff ff 	movw   $0x3,-0x2fc(%rbp)
   122b7:	03 00 
   122b9:	66 c7 85 06 fd ff ff 	movw   $0x0,-0x2fa(%rbp)
   122c0:	00 00 
   122c2:	48 c7 85 10 fb ff ff 	movq   $0x0,-0x4f0(%rbp)
   122c9:	00 00 00 00 
   122cd:	66 c7 85 c4 f9 ff ff 	movw   $0x0,-0x63c(%rbp)
   122d4:	00 00 
   122d6:	90                   	nop
   122d7:	0f b7 85 c4 f9 ff ff 	movzwl -0x63c(%rbp),%eax
   122de:	66 83 f8 03          	cmp    $0x3,%ax
   122e2:	0f 87 18 01 00 00    	ja     12400 <func_73+0x16d3>
   122e8:	48 8d 85 c0 fb ff ff 	lea    -0x440(%rbp),%rax
   122ef:	48 83 c0 20          	add    $0x20,%rax
   122f3:	48 89 85 20 fb ff ff 	mov    %rax,-0x4e0(%rbp)
   122fa:	48 8d 85 50 fa ff ff 	lea    -0x5b0(%rbp),%rax
   12301:	48 89 85 28 fb ff ff 	mov    %rax,-0x4d8(%rbp)
   12308:	c7 85 18 fa ff ff a1 	movl   $0x5d199da1,-0x5e8(%rbp)
   1230f:	9d 19 5d 
   12312:	8b 05 10 ad 00 00    	mov    0xad10(%rip),%eax        # 1d028 <g_85>
   12318:	85 c0                	test   %eax,%eax
   1231a:	0f 85 a1 00 00 00    	jne    123c1 <func_73+0x1694>
   12320:	48 8b 05 49 ad 00 00 	mov    0xad49(%rip),%rax        # 1d070 <g_286+0x10>
   12327:	48 39 85 20 fb ff ff 	cmp    %rax,-0x4e0(%rbp)
   1232e:	48 8b 95 50 fa ff ff 	mov    -0x5b0(%rbp),%rdx
   12335:	48 8b 85 28 fb ff ff 	mov    -0x4d8(%rbp),%rax
   1233c:	48 89 10             	mov    %rdx,(%rax)
   1233f:	48 8b 85 28 fb ff ff 	mov    -0x4d8(%rbp),%rax
   12346:	48 8b 00             	mov    (%rax),%rax
   12349:	48 8d 15 38 ad 00 00 	lea    0xad38(%rip),%rdx        # 1d088 <g_286+0x28>
   12350:	48 39 d0             	cmp    %rdx,%rax
   12353:	b8 00 00 00 00       	mov    $0x0,%eax
   12358:	48 85 c0             	test   %rax,%rax
   1235b:	0f 95 c0             	setne  %al
   1235e:	0f b6 d0             	movzbl %al,%edx
   12361:	48 83 bd 70 fa ff ff 	cmpq   $0x0,-0x590(%rbp)
   12368:	00 
   12369:	0f 95 c0             	setne  %al
   1236c:	0f b6 c0             	movzbl %al,%eax
   1236f:	89 d6                	mov    %edx,%esi
   12371:	89 c7                	mov    %eax,%edi
   12373:	e8 00 68 ff ff       	callq  8b78 <safe_sub_func_uint8_t_u_u>
   12378:	0f b6 d0             	movzbl %al,%edx
   1237b:	0f b7 05 b0 6d 00 00 	movzwl 0x6db0(%rip),%eax        # 19132 <g_132>
   12382:	98                   	cwtl   
   12383:	31 c2                	xor    %eax,%edx
   12385:	8b 85 04 fa ff ff    	mov    -0x5fc(%rbp),%eax
   1238b:	89 c6                	mov    %eax,%esi
   1238d:	89 d7                	mov    %edx,%edi
   1238f:	e8 71 62 ff ff       	callq  8605 <safe_sub_func_int32_t_s_s>
   12394:	85 c0                	test   %eax,%eax
   12396:	74 07                	je     1239f <func_73+0x1672>
   12398:	83 bd 18 fa ff ff 00 	cmpl   $0x0,-0x5e8(%rbp)
   1239f:	48 8b 85 20 fa ff ff 	mov    -0x5e0(%rbp),%rax
   123a6:	8b 00                	mov    (%rax),%eax
   123a8:	83 c8 77             	or     $0x77,%eax
   123ab:	f7 d0                	not    %eax
   123ad:	c1 e8 1f             	shr    $0x1f,%eax
   123b0:	0f b6 d0             	movzbl %al,%edx
   123b3:	0f b6 85 b4 f9 ff ff 	movzbl -0x64c(%rbp),%eax
   123ba:	0f b6 c0             	movzbl %al,%eax
   123bd:	39 c2                	cmp    %eax,%edx
   123bf:	74 07                	je     123c8 <func_73+0x169b>
   123c1:	b8 01 00 00 00       	mov    $0x1,%eax
   123c6:	eb 05                	jmp    123cd <func_73+0x16a0>
   123c8:	b8 00 00 00 00       	mov    $0x0,%eax
   123cd:	48 63 d0             	movslq %eax,%rdx
   123d0:	48 8b 85 e0 fa ff ff 	mov    -0x520(%rbp),%rax
   123d7:	48 89 d6             	mov    %rdx,%rsi
   123da:	48 89 c7             	mov    %rax,%rdi
   123dd:	e8 cd 6c ff ff       	callq  90af <safe_div_func_uint64_t_u_u>
   123e2:	89 c2                	mov    %eax,%edx
   123e4:	8b 05 32 6d 00 00    	mov    0x6d32(%rip),%eax        # 1911c <g_90>
   123ea:	21 d0                	and    %edx,%eax
   123ec:	89 05 2a 6d 00 00    	mov    %eax,0x6d2a(%rip)        # 1911c <g_90>
   123f2:	48 8b 05 67 8e 00 00 	mov    0x8e67(%rip),%rax        # 1b260 <g_89>
   123f9:	8b 00                	mov    (%rax),%eax
   123fb:	e9 de 04 00 00       	jmpq   128de <func_73+0x1bb1>
   12400:	c7 05 12 6d 00 00 00 	movl   $0x0,0x6d12(%rip)        # 1911c <g_90>
   12407:	00 00 00 
   1240a:	90                   	nop
   1240b:	8b 05 0b 6d 00 00    	mov    0x6d0b(%rip),%eax        # 1911c <g_90>
   12411:	85 c0                	test   %eax,%eax
   12413:	78 0e                	js     12423 <func_73+0x16f6>
   12415:	48 8b 05 44 8e 00 00 	mov    0x8e44(%rip),%rax        # 1b260 <g_89>
   1241c:	8b 00                	mov    (%rax),%eax
   1241e:	e9 bb 04 00 00       	jmpq   128de <func_73+0x1bb1>
   12423:	48 8b 85 e8 fa ff ff 	mov    -0x518(%rbp),%rax
   1242a:	0f b7 18             	movzwl (%rax),%ebx
   1242d:	8d 53 ff             	lea    -0x1(%rbx),%edx
   12430:	48 8b 85 e8 fa ff ff 	mov    -0x518(%rbp),%rax
   12437:	66 89 10             	mov    %dx,(%rax)
   1243a:	8b 05 e8 ab 00 00    	mov    0xabe8(%rip),%eax        # 1d028 <g_85>
   12440:	89 c2                	mov    %eax,%edx
   12442:	48 8b 85 f0 fa ff ff 	mov    -0x510(%rbp),%rax
   12449:	66 89 10             	mov    %dx,(%rax)
   1244c:	48 8b 85 f0 fa ff ff 	mov    -0x510(%rbp),%rax
   12453:	0f b7 00             	movzwl (%rax),%eax
   12456:	0f b7 c0             	movzwl %ax,%eax
   12459:	89 c7                	mov    %eax,%edi
   1245b:	e8 89 68 ff ff       	callq  8ce9 <safe_unary_minus_func_uint16_t_u>
   12460:	c6 05 2a 6d 00 00 01 	movb   $0x1,0x6d2a(%rip)        # 19191 <g_212+0x51>
   12467:	83 bd d4 f9 ff ff 00 	cmpl   $0x0,-0x62c(%rbp)
   1246e:	0f b7 05 c7 6c 00 00 	movzwl 0x6cc7(%rip),%eax        # 1913c <g_166>
   12475:	31 d8                	xor    %ebx,%eax
   12477:	66 89 05 be 6c 00 00 	mov    %ax,0x6cbe(%rip)        # 1913c <g_166>
   1247e:	48 8b 05 db 8d 00 00 	mov    0x8ddb(%rip),%rax        # 1b260 <g_89>
   12485:	8b 18                	mov    (%rax),%ebx
   12487:	0f b6 85 b4 f9 ff ff 	movzbl -0x64c(%rbp),%eax
   1248e:	0f b6 d0             	movzbl %al,%edx
   12491:	48 8b 85 00 fb ff ff 	mov    -0x500(%rbp),%rax
   12498:	0f b7 00             	movzwl (%rax),%eax
   1249b:	8d 48 ff             	lea    -0x1(%rax),%ecx
   1249e:	48 8b 85 00 fb ff ff 	mov    -0x500(%rbp),%rax
   124a5:	66 89 08             	mov    %cx,(%rax)
   124a8:	48 8b 85 00 fb ff ff 	mov    -0x500(%rbp),%rax
   124af:	0f b7 00             	movzwl (%rax),%eax
   124b2:	66 3d ab e8          	cmp    $0xe8ab,%ax
   124b6:	74 11                	je     124c9 <func_73+0x179c>
   124b8:	8b 05 4e 6c 00 00    	mov    0x6c4e(%rip),%eax        # 1910c <g_4+0x4>
   124be:	85 c0                	test   %eax,%eax
   124c0:	74 07                	je     124c9 <func_73+0x179c>
   124c2:	be 01 00 00 00       	mov    $0x1,%esi
   124c7:	eb 05                	jmp    124ce <func_73+0x17a1>
   124c9:	be 00 00 00 00       	mov    $0x0,%esi
   124ce:	48 8b 05 4b 6c 00 00 	mov    0x6c4b(%rip),%rax        # 19120 <g_93>
   124d5:	48 83 f8 02          	cmp    $0x2,%rax
   124d9:	0f 94 c0             	sete   %al
   124dc:	0f b6 c8             	movzbl %al,%ecx
   124df:	0f b6 85 b4 f9 ff ff 	movzbl -0x64c(%rbp),%eax
   124e6:	0f b6 c0             	movzbl %al,%eax
   124e9:	39 c1                	cmp    %eax,%ecx
   124eb:	0f 9f c0             	setg   %al
   124ee:	0f b6 c8             	movzbl %al,%ecx
   124f1:	0f b6 85 b4 f9 ff ff 	movzbl -0x64c(%rbp),%eax
   124f8:	0f b6 c0             	movzbl %al,%eax
   124fb:	39 c1                	cmp    %eax,%ecx
   124fd:	0f 95 c0             	setne  %al
   12500:	89 c1                	mov    %eax,%ecx
   12502:	48 8b 85 08 fb ff ff 	mov    -0x4f8(%rbp),%rax
   12509:	88 08                	mov    %cl,(%rax)
   1250b:	48 8b 85 08 fb ff ff 	mov    -0x4f8(%rbp),%rax
   12512:	0f b6 00             	movzbl (%rax),%eax
   12515:	0f b6 c0             	movzbl %al,%eax
   12518:	89 85 10 fa ff ff    	mov    %eax,-0x5f0(%rbp)
   1251e:	8b 85 10 fa ff ff    	mov    -0x5f0(%rbp),%eax
   12524:	34 9b                	xor    $0x9b,%al
   12526:	39 c6                	cmp    %eax,%esi
   12528:	0f 9e c0             	setle  %al
   1252b:	0f b6 c0             	movzbl %al,%eax
   1252e:	89 d6                	mov    %edx,%esi
   12530:	89 c7                	mov    %eax,%edi
   12532:	e8 5b 5f ff ff       	callq  8492 <safe_lshift_func_int16_t_s_s>
   12537:	98                   	cwtl   
   12538:	39 c3                	cmp    %eax,%ebx
   1253a:	48 8b 05 3f 8d 00 00 	mov    0x8d3f(%rip),%rax        # 1b280 <g_276>
   12541:	48 8b 00             	mov    (%rax),%rax
   12544:	8b 00                	mov    (%rax),%eax
   12546:	85 c0                	test   %eax,%eax
   12548:	0f 94 c0             	sete   %al
   1254b:	0f b6 d0             	movzbl %al,%edx
   1254e:	0f b6 85 b4 f9 ff ff 	movzbl -0x64c(%rbp),%eax
   12555:	0f b6 c0             	movzbl %al,%eax
   12558:	89 d6                	mov    %edx,%esi
   1255a:	89 c7                	mov    %eax,%edi
   1255c:	e8 9e 67 ff ff       	callq  8cff <safe_add_func_uint16_t_u_u>
   12561:	66 85 c0             	test   %ax,%ax
   12564:	0f 84 7f 01 00 00    	je     126e9 <func_73+0x19bc>
   1256a:	0f b6 85 b4 f9 ff ff 	movzbl -0x64c(%rbp),%eax
   12571:	84 c0                	test   %al,%al
   12573:	0f 84 70 01 00 00    	je     126e9 <func_73+0x19bc>
   12579:	c7 85 14 fa ff ff c5 	movl   $0xa5c54ac5,-0x5ec(%rbp)
   12580:	4a c5 a5 
   12583:	48 c7 85 18 fb ff ff 	movq   $0x0,-0x4e8(%rbp)
   1258a:	00 00 00 00 
   1258e:	c7 85 fc f9 ff ff 00 	movl   $0x0,-0x604(%rbp)
   12595:	00 00 00 
   12598:	eb 1a                	jmp    125b4 <func_73+0x1887>
   1259a:	8b 85 fc f9 ff ff    	mov    -0x604(%rbp),%eax
   125a0:	48 98                	cltq   
   125a2:	c7 84 85 b4 fb ff ff 	movl   $0xfffffff9,-0x44c(%rbp,%rax,4)
   125a9:	f9 ff ff ff 
   125ad:	83 85 fc f9 ff ff 01 	addl   $0x1,-0x604(%rbp)
   125b4:	83 bd fc f9 ff ff 02 	cmpl   $0x2,-0x604(%rbp)
   125bb:	7e dd                	jle    1259a <func_73+0x186d>
   125bd:	0f b6 05 12 6c 00 00 	movzbl 0x6c12(%rip),%eax        # 191d6 <g_212+0x96>
   125c4:	83 c8 01             	or     $0x1,%eax
   125c7:	0f b6 c0             	movzbl %al,%eax
   125ca:	48 8d 15 b7 aa 00 00 	lea    0xaab7(%rip),%rdx        # 1d088 <g_286+0x28>
   125d1:	48 89 95 60 fa ff ff 	mov    %rdx,-0x5a0(%rbp)
   125d8:	48 8b 15 41 6b 00 00 	mov    0x6b41(%rip),%rdx        # 19120 <g_93>
   125df:	66 89 15 54 6b 00 00 	mov    %dx,0x6b54(%rip)        # 1913a <g_159>
   125e6:	48 89 c6             	mov    %rax,%rsi
   125e9:	bf 00 00 00 00       	mov    $0x0,%edi
   125ee:	e8 4e 62 ff ff       	callq  8841 <safe_add_func_int64_t_s_s>
   125f3:	89 85 b8 fb ff ff    	mov    %eax,-0x448(%rbp)
   125f9:	83 ad e0 f9 ff ff 01 	subl   $0x1,-0x620(%rbp)
   12600:	0f b7 05 89 aa 00 00 	movzwl 0xaa89(%rip),%eax        # 1d090 <g_338>
   12607:	83 e8 01             	sub    $0x1,%eax
   1260a:	66 89 05 7f aa 00 00 	mov    %ax,0xaa7f(%rip)        # 1d090 <g_338>
   12611:	48 8b 85 f0 fa ff ff 	mov    -0x510(%rbp),%rax
   12618:	66 c7 00 06 5b       	movw   $0x5b06,(%rax)
   1261d:	8b 05 c5 6c 00 00    	mov    0x6cc5(%rip),%eax        # 192e8 <g_327>
   12623:	41 89 c4             	mov    %eax,%r12d
   12626:	0f b7 05 63 aa 00 00 	movzwl 0xaa63(%rip),%eax        # 1d090 <g_338>
   1262d:	0f b7 d8             	movzwl %ax,%ebx
   12630:	48 83 bd 00 fb ff ff 	cmpq   $0x0,-0x500(%rbp)
   12637:	00 
   12638:	0f 95 c0             	setne  %al
   1263b:	0f b6 c0             	movzbl %al,%eax
   1263e:	be 9b ff ff ff       	mov    $0xffffff9b,%esi
   12643:	89 c7                	mov    %eax,%edi
   12645:	e8 8a 5b ff ff       	callq  81d4 <safe_add_func_int8_t_s_s>
   1264a:	0f be c0             	movsbl %al,%eax
   1264d:	89 05 c1 6b 00 00    	mov    %eax,0x6bc1(%rip)        # 19214 <g_272>
   12653:	be 01 00 00 00       	mov    $0x1,%esi
   12658:	bf 01 00 00 00       	mov    $0x1,%edi
   1265d:	e8 72 5b ff ff       	callq  81d4 <safe_add_func_int8_t_s_s>
   12662:	0f be c0             	movsbl %al,%eax
   12665:	89 de                	mov    %ebx,%esi
   12667:	89 c7                	mov    %eax,%edi
   12669:	e8 c7 5c ff ff       	callq  8335 <safe_rshift_func_int8_t_s_s>
   1266e:	0f be c0             	movsbl %al,%eax
   12671:	be 07 00 00 00       	mov    $0x7,%esi
   12676:	89 c7                	mov    %eax,%edi
   12678:	e8 b8 5c ff ff       	callq  8335 <safe_rshift_func_int8_t_s_s>
   1267d:	0f be c0             	movsbl %al,%eax
   12680:	39 85 10 fa ff ff    	cmp    %eax,-0x5f0(%rbp)
   12686:	7f 07                	jg     1268f <func_73+0x1962>
   12688:	b8 ab 34 00 00       	mov    $0x34ab,%eax
   1268d:	eb 05                	jmp    12694 <func_73+0x1967>
   1268f:	b8 aa 34 00 00       	mov    $0x34aa,%eax
   12694:	44 89 e6             	mov    %r12d,%esi
   12697:	89 c7                	mov    %eax,%edi
   12699:	e8 43 5e ff ff       	callq  84e1 <safe_lshift_func_int16_t_s_u>
   1269e:	98                   	cwtl   
   1269f:	25 06 5b 00 00       	and    $0x5b06,%eax
   126a4:	89 c2                	mov    %eax,%edx
   126a6:	0f b6 85 b4 f9 ff ff 	movzbl -0x64c(%rbp),%eax
   126ad:	0f b6 c0             	movzbl %al,%eax
   126b0:	39 c2                	cmp    %eax,%edx
   126b2:	0f 9c c0             	setl   %al
   126b5:	0f b6 c0             	movzbl %al,%eax
   126b8:	be 02 00 00 00       	mov    $0x2,%esi
   126bd:	89 c7                	mov    %eax,%edi
   126bf:	e8 6d 5b ff ff       	callq  8231 <safe_mod_func_int8_t_s_s>
   126c4:	0f be c0             	movsbl %al,%eax
   126c7:	23 85 14 fa ff ff    	and    -0x5ec(%rbp),%eax
   126cd:	89 c2                	mov    %eax,%edx
   126cf:	0f b7 05 5a 6a 00 00 	movzwl 0x6a5a(%rip),%eax        # 19130 <g_128>
   126d6:	0f b7 c0             	movzwl %ax,%eax
   126d9:	39 c2                	cmp    %eax,%edx
   126db:	0f 9e c0             	setle  %al
   126de:	0f b6 c0             	movzbl %al,%eax
   126e1:	89 05 71 6c 00 00    	mov    %eax,0x6c71(%rip)        # 19358 <g_335>
   126e7:	eb 0f                	jmp    126f8 <func_73+0x19cb>
   126e9:	8b 05 6d 6c 00 00    	mov    0x6c6d(%rip),%eax        # 1935c <g_354>
   126ef:	83 c0 01             	add    $0x1,%eax
   126f2:	89 05 64 6c 00 00    	mov    %eax,0x6c64(%rip)        # 1935c <g_354>
   126f8:	48 8b 85 80 fa ff ff 	mov    -0x580(%rbp),%rax
   126ff:	8b 00                	mov    (%rax),%eax
   12701:	0f be c0             	movsbl %al,%eax
   12704:	be 00 00 00 00       	mov    $0x0,%esi
   12709:	89 c7                	mov    %eax,%edi
   1270b:	e8 5c 5c ff ff       	callq  836c <safe_rshift_func_int8_t_s_u>
   12710:	0f be d8             	movsbl %al,%ebx
   12713:	48 8d 05 be 29 00 00 	lea    0x29be(%rip),%rax        # 150d8 <g_139+0x78>
   1271a:	48 39 85 d8 fa ff ff 	cmp    %rax,-0x528(%rbp)
   12721:	0f 95 c0             	setne  %al
   12724:	0f b6 c0             	movzbl %al,%eax
   12727:	be 01 00 00 00       	mov    $0x1,%esi
   1272c:	89 c7                	mov    %eax,%edi
   1272e:	e8 45 64 ff ff       	callq  8b78 <safe_sub_func_uint8_t_u_u>
   12733:	84 c0                	test   %al,%al
   12735:	75 0d                	jne    12744 <func_73+0x1a17>
   12737:	48 8b 85 a8 f9 ff ff 	mov    -0x658(%rbp),%rax
   1273e:	8b 00                	mov    (%rax),%eax
   12740:	85 c0                	test   %eax,%eax
   12742:	74 07                	je     1274b <func_73+0x1a1e>
   12744:	b8 01 00 00 00       	mov    $0x1,%eax
   12749:	eb 05                	jmp    12750 <func_73+0x1a23>
   1274b:	b8 00 00 00 00       	mov    $0x0,%eax
   12750:	83 f8 30             	cmp    $0x30,%eax
   12753:	0f 95 c0             	setne  %al
   12756:	0f b6 c0             	movzbl %al,%eax
   12759:	39 c3                	cmp    %eax,%ebx
   1275b:	0f 95 c0             	setne  %al
   1275e:	0f b6 c0             	movzbl %al,%eax
   12761:	f7 d0                	not    %eax
   12763:	48 98                	cltq   
   12765:	48 89 c7             	mov    %rax,%rdi
   12768:	e8 ac 68 ff ff       	callq  9019 <safe_unary_minus_func_uint64_t_u>
   1276d:	0f b6 c0             	movzbl %al,%eax
   12770:	be 00 00 00 00       	mov    $0x0,%esi
   12775:	89 c7                	mov    %eax,%edi
   12777:	e8 d0 64 ff ff       	callq  8c4c <safe_lshift_func_uint8_t_u_u>
   1277c:	48 8b 05 dd 8a 00 00 	mov    0x8add(%rip),%rax        # 1b260 <g_89>
   12783:	8b 00                	mov    (%rax),%eax
   12785:	89 85 dc f9 ff ff    	mov    %eax,-0x624(%rbp)
   1278b:	48 8b 05 ce 8a 00 00 	mov    0x8ace(%rip),%rax        # 1b260 <g_89>
   12792:	8b 00                	mov    (%rax),%eax
   12794:	89 05 be 6b 00 00    	mov    %eax,0x6bbe(%rip)        # 19358 <g_335>
   1279a:	eb 04                	jmp    127a0 <func_73+0x1a73>
   1279c:	90                   	nop
   1279d:	eb 01                	jmp    127a0 <func_73+0x1a73>
   1279f:	90                   	nop
   127a0:	66 83 85 c8 f9 ff ff 	addw   $0x1,-0x638(%rbp)
   127a7:	01 
   127a8:	66 83 bd c8 f9 ff ff 	cmpw   $0x0,-0x638(%rbp)
   127af:	00 
   127b0:	0f 84 31 e9 ff ff    	je     110e7 <func_73+0x3ba>
   127b6:	0f b6 85 b4 f9 ff ff 	movzbl -0x64c(%rbp),%eax
   127bd:	0f b6 d8             	movzbl %al,%ebx
   127c0:	8b 05 42 69 00 00    	mov    0x6942(%rip),%eax        # 19108 <g_4>
   127c6:	4c 63 e0             	movslq %eax,%r12
   127c9:	48 8b 85 80 fa ff ff 	mov    -0x580(%rbp),%rax
   127d0:	8b 00                	mov    (%rax),%eax
   127d2:	0f be d0             	movsbl %al,%edx
   127d5:	c7 05 09 6b 00 00 00 	movl   $0x0,0x6b09(%rip)        # 192e8 <g_327>
   127dc:	00 00 00 
   127df:	b9 01 00 00 00       	mov    $0x1,%ecx
   127e4:	48 8b 85 88 fa ff ff 	mov    -0x578(%rbp),%rax
   127eb:	0f b6 00             	movzbl (%rax),%eax
   127ee:	21 c1                	and    %eax,%ecx
   127f0:	48 8b 85 88 fa ff ff 	mov    -0x578(%rbp),%rax
   127f7:	88 08                	mov    %cl,(%rax)
   127f9:	48 8b 85 88 fa ff ff 	mov    -0x578(%rbp),%rax
   12800:	0f b6 00             	movzbl (%rax),%eax
   12803:	0f be c0             	movsbl %al,%eax
   12806:	89 d6                	mov    %edx,%esi
   12808:	89 c7                	mov    %eax,%edi
   1280a:	e8 03 5a ff ff       	callq  8212 <safe_mul_func_int8_t_s_s>
   1280f:	83 e0 ed             	and    $0xffffffed,%eax
   12812:	0f be c0             	movsbl %al,%eax
   12815:	be fc ff ff ff       	mov    $0xfffffffc,%esi
   1281a:	89 c7                	mov    %eax,%edi
   1281c:	e8 49 5a ff ff       	callq  826a <safe_div_func_int8_t_s_s>
   12821:	48 0f be c0          	movsbq %al,%rax
   12825:	4c 89 e6             	mov    %r12,%rsi
   12828:	48 89 c7             	mov    %rax,%rdi
   1282b:	e8 fe 67 ff ff       	callq  902e <safe_add_func_uint64_t_u_u>
   12830:	0f b7 c0             	movzwl %ax,%eax
   12833:	89 de                	mov    %ebx,%esi
   12835:	89 c7                	mov    %eax,%edi
   12837:	e8 20 65 ff ff       	callq  8d5c <safe_mod_func_uint16_t_u_u>
   1283c:	0f b7 d0             	movzwl %ax,%edx
   1283f:	48 8b 85 80 fa ff ff 	mov    -0x580(%rbp),%rax
   12846:	8b 00                	mov    (%rax),%eax
   12848:	0f b7 c0             	movzwl %ax,%eax
   1284b:	89 d6                	mov    %edx,%esi
   1284d:	89 c7                	mov    %eax,%edi
   1284f:	e8 3a 65 ff ff       	callq  8d8e <safe_div_func_uint16_t_u_u>
   12854:	be 00 00 00 00       	mov    $0x0,%esi
   12859:	bf 01 00 00 00       	mov    $0x1,%edi
   1285e:	e8 9c 64 ff ff       	callq  8cff <safe_add_func_uint16_t_u_u>
   12863:	0f b7 c0             	movzwl %ax,%eax
   12866:	89 c7                	mov    %eax,%edi
   12868:	e8 39 66 ff ff       	callq  8ea6 <safe_unary_minus_func_uint32_t_u>
   1286d:	48 8b 95 b8 f9 ff ff 	mov    -0x648(%rbp),%rdx
   12874:	8b 12                	mov    (%rdx),%edx
   12876:	39 d0                	cmp    %edx,%eax
   12878:	0f 97 c0             	seta   %al
   1287b:	0f b6 d0             	movzbl %al,%edx
   1287e:	48 8b 05 db 89 00 00 	mov    0x89db(%rip),%rax        # 1b260 <g_89>
   12885:	8b 08                	mov    (%rax),%ecx
   12887:	48 83 bd 98 fa ff ff 	cmpq   $0x0,-0x568(%rbp)
   1288e:	00 
   1288f:	0f 95 c0             	setne  %al
   12892:	0f b6 c0             	movzbl %al,%eax
   12895:	39 c1                	cmp    %eax,%ecx
   12897:	0f 9f c0             	setg   %al
   1289a:	0f b6 c0             	movzbl %al,%eax
   1289d:	89 d6                	mov    %edx,%esi
   1289f:	89 c7                	mov    %eax,%edi
   128a1:	e8 3b 5c ff ff       	callq  84e1 <safe_lshift_func_int16_t_s_u>
   128a6:	66 89 85 c6 f9 ff ff 	mov    %ax,-0x63a(%rbp)
   128ad:	0f b6 85 b4 f9 ff ff 	movzbl -0x64c(%rbp),%eax
   128b4:	0f b6 c0             	movzbl %al,%eax
   128b7:	be 01 00 00 00       	mov    $0x1,%esi
   128bc:	89 c7                	mov    %eax,%edi
   128be:	e8 f3 5c ff ff       	callq  85b6 <safe_add_func_int32_t_s_s>
   128c3:	88 85 b4 f9 ff ff    	mov    %al,-0x64c(%rbp)
   128c9:	0f b6 85 b4 f9 ff ff 	movzbl -0x64c(%rbp),%eax
   128d0:	3c 1f                	cmp    $0x1f,%al
   128d2:	0f 87 64 e6 ff ff    	ja     10f3c <func_73+0x20f>
   128d8:	8b 85 a0 fb ff ff    	mov    -0x460(%rbp),%eax
   128de:	48 8b 5d c8          	mov    -0x38(%rbp),%rbx
   128e2:	64 48 33 1c 25 28 00 	xor    %fs:0x28,%rbx
   128e9:	00 00 
   128eb:	74 05                	je     128f2 <func_73+0x1bc5>
   128ed:	e8 7e 57 ff ff       	callq  8070 <__stack_chk_fail@plt>
   128f2:	48 81 c4 48 06 00 00 	add    $0x648,%rsp
   128f9:	5b                   	pop    %rbx
   128fa:	41 5c                	pop    %r12
   128fc:	41 5d                	pop    %r13
   128fe:	41 5e                	pop    %r14
   12900:	41 5f                	pop    %r15
   12902:	5d                   	pop    %rbp
   12903:	c3                   	retq   

0000000000012904 <main>:
   12904:	f3 0f 1e fa          	endbr64 
   12908:	55                   	push   %rbp
   12909:	48 89 e5             	mov    %rsp,%rbp
   1290c:	48 83 ec 20          	sub    $0x20,%rsp
   12910:	89 7d ec             	mov    %edi,-0x14(%rbp)
   12913:	48 89 75 e0          	mov    %rsi,-0x20(%rbp)
   12917:	c7 45 fc 00 00 00 00 	movl   $0x0,-0x4(%rbp)
   1291e:	83 7d ec 02          	cmpl   $0x2,-0x14(%rbp)
   12922:	74 25                	je     12949 <main+0x45>
   12924:	48 8b 45 e0          	mov    -0x20(%rbp),%rax
   12928:	48 83 c0 08          	add    $0x8,%rax
   1292c:	48 8b 00             	mov    (%rax),%rax
   1292f:	48 8d 35 46 30 00 00 	lea    0x3046(%rip),%rsi        # 1597c <g_2542+0x76c>
   12936:	48 89 c7             	mov    %rax,%rdi
   12939:	e8 52 57 ff ff       	callq  8090 <strcmp@plt>
   1293e:	85 c0                	test   %eax,%eax
   12940:	74 07                	je     12949 <main+0x45>
   12942:	c7 45 fc 01 00 00 00 	movl   $0x1,-0x4(%rbp)
   12949:	e8 3b 58 ff ff       	callq  8189 <platform_main_begin>
   1294e:	e8 45 6c ff ff       	callq  9598 <crc32_gentab>
   12953:	e8 5d 6e ff ff       	callq  97b5 <func_1>
   12958:	c7 45 f0 00 00 00 00 	movl   $0x0,-0x10(%rbp)
   1295f:	eb 6d                	jmp    129ce <main+0xca>
   12961:	c7 45 f4 00 00 00 00 	movl   $0x0,-0xc(%rbp)
   12968:	eb 5a                	jmp    129c4 <main+0xc0>
   1296a:	8b 45 f4             	mov    -0xc(%rbp),%eax
   1296d:	48 98                	cltq   
   1296f:	8b 55 f0             	mov    -0x10(%rbp),%edx
   12972:	48 63 d2             	movslq %edx,%rdx
   12975:	48 c1 e2 02          	shl    $0x2,%rdx
   12979:	48 01 d0             	add    %rdx,%rax
   1297c:	48 8d 14 c5 00 00 00 	lea    0x0(,%rax,8),%rdx
   12983:	00 
   12984:	48 8d 05 b5 66 00 00 	lea    0x66b5(%rip),%rax        # 19040 <g_2>
   1298b:	48 8b 04 02          	mov    (%rdx,%rax,1),%rax
   1298f:	8b 55 fc             	mov    -0x4(%rbp),%edx
   12992:	48 8d 35 e5 2f 00 00 	lea    0x2fe5(%rip),%rsi        # 1597e <g_2542+0x76e>
   12999:	48 89 c7             	mov    %rax,%rdi
   1299c:	e8 52 6d ff ff       	callq  96f3 <transparent_crc>
   129a1:	83 7d fc 00          	cmpl   $0x0,-0x4(%rbp)
   129a5:	74 19                	je     129c0 <main+0xbc>
   129a7:	8b 55 f4             	mov    -0xc(%rbp),%edx
   129aa:	8b 45 f0             	mov    -0x10(%rbp),%eax
   129ad:	89 c6                	mov    %eax,%esi
   129af:	48 8d 3d d2 2f 00 00 	lea    0x2fd2(%rip),%rdi        # 15988 <g_2542+0x778>
   129b6:	b8 00 00 00 00       	mov    $0x0,%eax
   129bb:	e8 c0 56 ff ff       	callq  8080 <printf@plt>
   129c0:	83 45 f4 01          	addl   $0x1,-0xc(%rbp)
   129c4:	83 7d f4 03          	cmpl   $0x3,-0xc(%rbp)
   129c8:	7e a0                	jle    1296a <main+0x66>
   129ca:	83 45 f0 01          	addl   $0x1,-0x10(%rbp)
   129ce:	83 7d f0 05          	cmpl   $0x5,-0x10(%rbp)
   129d2:	7e 8d                	jle    12961 <main+0x5d>
   129d4:	8b 05 26 67 00 00    	mov    0x6726(%rip),%eax        # 19100 <g_3>
   129da:	48 98                	cltq   
   129dc:	8b 55 fc             	mov    -0x4(%rbp),%edx
   129df:	48 8d 35 b4 2f 00 00 	lea    0x2fb4(%rip),%rsi        # 1599a <g_2542+0x78a>
   129e6:	48 89 c7             	mov    %rax,%rdi
   129e9:	e8 05 6d ff ff       	callq  96f3 <transparent_crc>
   129ee:	c7 45 f0 00 00 00 00 	movl   $0x0,-0x10(%rbp)
   129f5:	eb 4b                	jmp    12a42 <main+0x13e>
   129f7:	8b 45 f0             	mov    -0x10(%rbp),%eax
   129fa:	48 98                	cltq   
   129fc:	48 8d 14 85 00 00 00 	lea    0x0(,%rax,4),%rdx
   12a03:	00 
   12a04:	48 8d 05 fd 66 00 00 	lea    0x66fd(%rip),%rax        # 19108 <g_4>
   12a0b:	8b 04 02             	mov    (%rdx,%rax,1),%eax
   12a0e:	48 98                	cltq   
   12a10:	8b 55 fc             	mov    -0x4(%rbp),%edx
   12a13:	48 8d 35 84 2f 00 00 	lea    0x2f84(%rip),%rsi        # 1599e <g_2542+0x78e>
   12a1a:	48 89 c7             	mov    %rax,%rdi
   12a1d:	e8 d1 6c ff ff       	callq  96f3 <transparent_crc>
   12a22:	83 7d fc 00          	cmpl   $0x0,-0x4(%rbp)
   12a26:	74 16                	je     12a3e <main+0x13a>
   12a28:	8b 45 f0             	mov    -0x10(%rbp),%eax
   12a2b:	89 c6                	mov    %eax,%esi
   12a2d:	48 8d 3d 71 2f 00 00 	lea    0x2f71(%rip),%rdi        # 159a5 <g_2542+0x795>
   12a34:	b8 00 00 00 00       	mov    $0x0,%eax
   12a39:	e8 42 56 ff ff       	callq  8080 <printf@plt>
   12a3e:	83 45 f0 01          	addl   $0x1,-0x10(%rbp)
   12a42:	83 7d f0 02          	cmpl   $0x2,-0x10(%rbp)
   12a46:	7e af                	jle    129f7 <main+0xf3>
   12a48:	8b 05 c6 66 00 00    	mov    0x66c6(%rip),%eax        # 19114 <g_61>
   12a4e:	48 98                	cltq   
   12a50:	8b 55 fc             	mov    -0x4(%rbp),%edx
   12a53:	48 8d 35 59 2f 00 00 	lea    0x2f59(%rip),%rsi        # 159b3 <g_2542+0x7a3>
   12a5a:	48 89 c7             	mov    %rax,%rdi
   12a5d:	e8 91 6c ff ff       	callq  96f3 <transparent_crc>
   12a62:	8b 05 b0 66 00 00    	mov    0x66b0(%rip),%eax        # 19118 <g_62>
   12a68:	89 c1                	mov    %eax,%ecx
   12a6a:	8b 45 fc             	mov    -0x4(%rbp),%eax
   12a6d:	89 c2                	mov    %eax,%edx
   12a6f:	48 8d 35 42 2f 00 00 	lea    0x2f42(%rip),%rsi        # 159b8 <g_2542+0x7a8>
   12a76:	48 89 cf             	mov    %rcx,%rdi
   12a79:	e8 75 6c ff ff       	callq  96f3 <transparent_crc>
   12a7e:	8b 05 a4 a5 00 00    	mov    0xa5a4(%rip),%eax        # 1d028 <g_85>
   12a84:	89 c1                	mov    %eax,%ecx
   12a86:	8b 45 fc             	mov    -0x4(%rbp),%eax
   12a89:	89 c2                	mov    %eax,%edx
   12a8b:	48 8d 35 2b 2f 00 00 	lea    0x2f2b(%rip),%rsi        # 159bd <g_2542+0x7ad>
   12a92:	48 89 cf             	mov    %rcx,%rdi
   12a95:	e8 59 6c ff ff       	callq  96f3 <transparent_crc>
   12a9a:	8b 05 7c 66 00 00    	mov    0x667c(%rip),%eax        # 1911c <g_90>
   12aa0:	48 98                	cltq   
   12aa2:	8b 55 fc             	mov    -0x4(%rbp),%edx
   12aa5:	48 8d 35 16 2f 00 00 	lea    0x2f16(%rip),%rsi        # 159c2 <g_2542+0x7b2>
   12aac:	48 89 c7             	mov    %rax,%rdi
   12aaf:	e8 3f 6c ff ff       	callq  96f3 <transparent_crc>
   12ab4:	48 8b 05 65 66 00 00 	mov    0x6665(%rip),%rax        # 19120 <g_93>
   12abb:	8b 55 fc             	mov    -0x4(%rbp),%edx
   12abe:	48 8d 35 02 2f 00 00 	lea    0x2f02(%rip),%rsi        # 159c7 <g_2542+0x7b7>
   12ac5:	48 89 c7             	mov    %rax,%rdi
   12ac8:	e8 26 6c ff ff       	callq  96f3 <transparent_crc>
   12acd:	48 8b 05 54 66 00 00 	mov    0x6654(%rip),%rax        # 19128 <g_103>
   12ad4:	48 89 c1             	mov    %rax,%rcx
   12ad7:	8b 45 fc             	mov    -0x4(%rbp),%eax
   12ada:	89 c2                	mov    %eax,%edx
   12adc:	48 8d 35 e9 2e 00 00 	lea    0x2ee9(%rip),%rsi        # 159cc <g_2542+0x7bc>
   12ae3:	48 89 cf             	mov    %rcx,%rdi
   12ae6:	e8 08 6c ff ff       	callq  96f3 <transparent_crc>
   12aeb:	0f b7 05 3e 66 00 00 	movzwl 0x663e(%rip),%eax        # 19130 <g_128>
   12af2:	0f b7 c0             	movzwl %ax,%eax
   12af5:	8b 55 fc             	mov    -0x4(%rbp),%edx
   12af8:	48 8d 35 d3 2e 00 00 	lea    0x2ed3(%rip),%rsi        # 159d2 <g_2542+0x7c2>
   12aff:	48 89 c7             	mov    %rax,%rdi
   12b02:	e8 ec 6b ff ff       	callq  96f3 <transparent_crc>
   12b07:	c7 45 f0 00 00 00 00 	movl   $0x0,-0x10(%rbp)
   12b0e:	eb 4a                	jmp    12b5a <main+0x256>
   12b10:	8b 45 f0             	mov    -0x10(%rbp),%eax
   12b13:	48 98                	cltq   
   12b15:	48 8d 14 00          	lea    (%rax,%rax,1),%rdx
   12b19:	48 8d 05 12 66 00 00 	lea    0x6612(%rip),%rax        # 19132 <g_132>
   12b20:	0f b7 04 02          	movzwl (%rdx,%rax,1),%eax
   12b24:	48 0f bf c0          	movswq %ax,%rax
   12b28:	8b 55 fc             	mov    -0x4(%rbp),%edx
   12b2b:	48 8d 35 a6 2e 00 00 	lea    0x2ea6(%rip),%rsi        # 159d8 <g_2542+0x7c8>
   12b32:	48 89 c7             	mov    %rax,%rdi
   12b35:	e8 b9 6b ff ff       	callq  96f3 <transparent_crc>
   12b3a:	83 7d fc 00          	cmpl   $0x0,-0x4(%rbp)
   12b3e:	74 16                	je     12b56 <main+0x252>
   12b40:	8b 45 f0             	mov    -0x10(%rbp),%eax
   12b43:	89 c6                	mov    %eax,%esi
   12b45:	48 8d 3d 59 2e 00 00 	lea    0x2e59(%rip),%rdi        # 159a5 <g_2542+0x795>
   12b4c:	b8 00 00 00 00       	mov    $0x0,%eax
   12b51:	e8 2a 55 ff ff       	callq  8080 <printf@plt>
   12b56:	83 45 f0 01          	addl   $0x1,-0x10(%rbp)
   12b5a:	83 7d f0 01          	cmpl   $0x1,-0x10(%rbp)
   12b5e:	7e b0                	jle    12b10 <main+0x20c>
   12b60:	0f b7 05 cf 65 00 00 	movzwl 0x65cf(%rip),%eax        # 19136 <g_140>
   12b67:	48 0f bf c0          	movswq %ax,%rax
   12b6b:	8b 55 fc             	mov    -0x4(%rbp),%edx
   12b6e:	48 8d 35 6c 2e 00 00 	lea    0x2e6c(%rip),%rsi        # 159e1 <g_2542+0x7d1>
   12b75:	48 89 c7             	mov    %rax,%rdi
   12b78:	e8 76 6b ff ff       	callq  96f3 <transparent_crc>
   12b7d:	0f b7 05 b4 65 00 00 	movzwl 0x65b4(%rip),%eax        # 19138 <g_141>
   12b84:	48 0f bf c0          	movswq %ax,%rax
   12b88:	8b 55 fc             	mov    -0x4(%rbp),%edx
   12b8b:	48 8d 35 55 2e 00 00 	lea    0x2e55(%rip),%rsi        # 159e7 <g_2542+0x7d7>
   12b92:	48 89 c7             	mov    %rax,%rdi
   12b95:	e8 59 6b ff ff       	callq  96f3 <transparent_crc>
   12b9a:	0f b7 05 99 65 00 00 	movzwl 0x6599(%rip),%eax        # 1913a <g_159>
   12ba1:	0f b7 c0             	movzwl %ax,%eax
   12ba4:	8b 55 fc             	mov    -0x4(%rbp),%edx
   12ba7:	48 8d 35 3f 2e 00 00 	lea    0x2e3f(%rip),%rsi        # 159ed <g_2542+0x7dd>
   12bae:	48 89 c7             	mov    %rax,%rdi
   12bb1:	e8 3d 6b ff ff       	callq  96f3 <transparent_crc>
   12bb6:	c7 45 f0 00 00 00 00 	movl   $0x0,-0x10(%rbp)
   12bbd:	eb 4b                	jmp    12c0a <main+0x306>
   12bbf:	8b 45 f0             	mov    -0x10(%rbp),%eax
   12bc2:	48 98                	cltq   
   12bc4:	48 8d 14 85 00 00 00 	lea    0x0(,%rax,4),%rdx
   12bcb:	00 
   12bcc:	48 8d 05 5d a4 00 00 	lea    0xa45d(%rip),%rax        # 1d030 <g_162>
   12bd3:	8b 04 02             	mov    (%rdx,%rax,1),%eax
   12bd6:	48 98                	cltq   
   12bd8:	8b 55 fc             	mov    -0x4(%rbp),%edx
   12bdb:	48 8d 35 11 2e 00 00 	lea    0x2e11(%rip),%rsi        # 159f3 <g_2542+0x7e3>
   12be2:	48 89 c7             	mov    %rax,%rdi
   12be5:	e8 09 6b ff ff       	callq  96f3 <transparent_crc>
   12bea:	83 7d fc 00          	cmpl   $0x0,-0x4(%rbp)
   12bee:	74 16                	je     12c06 <main+0x302>
   12bf0:	8b 45 f0             	mov    -0x10(%rbp),%eax
   12bf3:	89 c6                	mov    %eax,%esi
   12bf5:	48 8d 3d a9 2d 00 00 	lea    0x2da9(%rip),%rdi        # 159a5 <g_2542+0x795>
   12bfc:	b8 00 00 00 00       	mov    $0x0,%eax
   12c01:	e8 7a 54 ff ff       	callq  8080 <printf@plt>
   12c06:	83 45 f0 01          	addl   $0x1,-0x10(%rbp)
   12c0a:	83 7d f0 04          	cmpl   $0x4,-0x10(%rbp)
   12c0e:	7e af                	jle    12bbf <main+0x2bb>
   12c10:	0f b7 05 25 65 00 00 	movzwl 0x6525(%rip),%eax        # 1913c <g_166>
   12c17:	0f b7 c0             	movzwl %ax,%eax
   12c1a:	8b 55 fc             	mov    -0x4(%rbp),%edx
   12c1d:	48 8d 35 d8 2d 00 00 	lea    0x2dd8(%rip),%rsi        # 159fc <g_2542+0x7ec>
   12c24:	48 89 c7             	mov    %rax,%rdi
   12c27:	e8 c7 6a ff ff       	callq  96f3 <transparent_crc>
   12c2c:	0f b7 05 0b 65 00 00 	movzwl 0x650b(%rip),%eax        # 1913e <g_209>
   12c33:	48 0f bf c0          	movswq %ax,%rax
   12c37:	8b 55 fc             	mov    -0x4(%rbp),%edx
   12c3a:	48 8d 35 c1 2d 00 00 	lea    0x2dc1(%rip),%rsi        # 15a02 <g_2542+0x7f2>
   12c41:	48 89 c7             	mov    %rax,%rdi
   12c44:	e8 aa 6a ff ff       	callq  96f3 <transparent_crc>
   12c49:	c7 45 f0 00 00 00 00 	movl   $0x0,-0x10(%rbp)
   12c50:	e9 ac 00 00 00       	jmpq   12d01 <main+0x3fd>
   12c55:	c7 45 f4 00 00 00 00 	movl   $0x0,-0xc(%rbp)
   12c5c:	e9 92 00 00 00       	jmpq   12cf3 <main+0x3ef>
   12c61:	c7 45 f8 00 00 00 00 	movl   $0x0,-0x8(%rbp)
   12c68:	eb 7b                	jmp    12ce5 <main+0x3e1>
   12c6a:	8b 45 f8             	mov    -0x8(%rbp),%eax
   12c6d:	48 63 f0             	movslq %eax,%rsi
   12c70:	8b 45 f0             	mov    -0x10(%rbp),%eax
   12c73:	48 63 d0             	movslq %eax,%rdx
   12c76:	8b 45 f4             	mov    -0xc(%rbp),%eax
   12c79:	48 63 c8             	movslq %eax,%rcx
   12c7c:	48 89 d0             	mov    %rdx,%rax
   12c7f:	48 c1 e0 02          	shl    $0x2,%rax
   12c83:	48 01 d0             	add    %rdx,%rax
   12c86:	48 c1 e0 02          	shl    $0x2,%rax
   12c8a:	48 01 d0             	add    %rdx,%rax
   12c8d:	48 89 ca             	mov    %rcx,%rdx
   12c90:	48 01 d2             	add    %rdx,%rdx
   12c93:	48 01 ca             	add    %rcx,%rdx
   12c96:	48 01 d0             	add    %rdx,%rax
   12c99:	48 8d 14 30          	lea    (%rax,%rsi,1),%rdx
   12c9d:	48 8d 05 9c 64 00 00 	lea    0x649c(%rip),%rax        # 19140 <g_212>
   12ca4:	48 01 d0             	add    %rdx,%rax
   12ca7:	0f b6 00             	movzbl (%rax),%eax
   12caa:	0f b6 c0             	movzbl %al,%eax
   12cad:	8b 55 fc             	mov    -0x4(%rbp),%edx
   12cb0:	48 8d 35 51 2d 00 00 	lea    0x2d51(%rip),%rsi        # 15a08 <g_2542+0x7f8>
   12cb7:	48 89 c7             	mov    %rax,%rdi
   12cba:	e8 34 6a ff ff       	callq  96f3 <transparent_crc>
   12cbf:	83 7d fc 00          	cmpl   $0x0,-0x4(%rbp)
   12cc3:	74 1c                	je     12ce1 <main+0x3dd>
   12cc5:	8b 4d f8             	mov    -0x8(%rbp),%ecx
   12cc8:	8b 55 f4             	mov    -0xc(%rbp),%edx
   12ccb:	8b 45 f0             	mov    -0x10(%rbp),%eax
   12cce:	89 c6                	mov    %eax,%esi
   12cd0:	48 8d 3d 40 2d 00 00 	lea    0x2d40(%rip),%rdi        # 15a17 <g_2542+0x807>
   12cd7:	b8 00 00 00 00       	mov    $0x0,%eax
   12cdc:	e8 9f 53 ff ff       	callq  8080 <printf@plt>
   12ce1:	83 45 f8 01          	addl   $0x1,-0x8(%rbp)
   12ce5:	83 7d f8 02          	cmpl   $0x2,-0x8(%rbp)
   12ce9:	0f 8e 7b ff ff ff    	jle    12c6a <main+0x366>
   12cef:	83 45 f4 01          	addl   $0x1,-0xc(%rbp)
   12cf3:	83 7d f4 06          	cmpl   $0x6,-0xc(%rbp)
   12cf7:	0f 8e 64 ff ff ff    	jle    12c61 <main+0x35d>
   12cfd:	83 45 f0 01          	addl   $0x1,-0x10(%rbp)
   12d01:	83 7d f0 09          	cmpl   $0x9,-0x10(%rbp)
   12d05:	0f 8e 4a ff ff ff    	jle    12c55 <main+0x351>
   12d0b:	8b 05 03 65 00 00    	mov    0x6503(%rip),%eax        # 19214 <g_272>
   12d11:	89 c1                	mov    %eax,%ecx
   12d13:	8b 45 fc             	mov    -0x4(%rbp),%eax
   12d16:	89 c2                	mov    %eax,%edx
   12d18:	48 8d 35 0e 2d 00 00 	lea    0x2d0e(%rip),%rsi        # 15a2d <g_2542+0x81d>
   12d1f:	48 89 cf             	mov    %rcx,%rdi
   12d22:	e8 cc 69 ff ff       	callq  96f3 <transparent_crc>
   12d27:	0f b6 05 ea 64 00 00 	movzbl 0x64ea(%rip),%eax        # 19218 <g_274>
   12d2e:	48 0f be c0          	movsbq %al,%rax
   12d32:	8b 55 fc             	mov    -0x4(%rbp),%edx
   12d35:	48 8d 35 f7 2c 00 00 	lea    0x2cf7(%rip),%rsi        # 15a33 <g_2542+0x823>
   12d3c:	48 89 c7             	mov    %rax,%rdi
   12d3f:	e8 af 69 ff ff       	callq  96f3 <transparent_crc>
   12d44:	0f b6 05 ce 64 00 00 	movzbl 0x64ce(%rip),%eax        # 19219 <g_315>
   12d4b:	0f b6 c0             	movzbl %al,%eax
   12d4e:	8b 55 fc             	mov    -0x4(%rbp),%edx
   12d51:	48 8d 35 e1 2c 00 00 	lea    0x2ce1(%rip),%rsi        # 15a39 <g_2542+0x829>
   12d58:	48 89 c7             	mov    %rax,%rdi
   12d5b:	e8 93 69 ff ff       	callq  96f3 <transparent_crc>
   12d60:	0f b6 05 b3 64 00 00 	movzbl 0x64b3(%rip),%eax        # 1921a <g_322>
   12d67:	48 0f be c0          	movsbq %al,%rax
   12d6b:	8b 55 fc             	mov    -0x4(%rbp),%edx
   12d6e:	48 8d 35 ca 2c 00 00 	lea    0x2cca(%rip),%rsi        # 15a3f <g_2542+0x82f>
   12d75:	48 89 c7             	mov    %rax,%rdi
   12d78:	e8 76 69 ff ff       	callq  96f3 <transparent_crc>
   12d7d:	48 8b 05 9c 64 00 00 	mov    0x649c(%rip),%rax        # 19220 <g_324>
   12d84:	48 89 c1             	mov    %rax,%rcx
   12d87:	8b 45 fc             	mov    -0x4(%rbp),%eax
   12d8a:	89 c2                	mov    %eax,%edx
   12d8c:	48 8d 35 b2 2c 00 00 	lea    0x2cb2(%rip),%rsi        # 15a45 <g_2542+0x835>
   12d93:	48 89 cf             	mov    %rcx,%rdi
   12d96:	e8 58 69 ff ff       	callq  96f3 <transparent_crc>
   12d9b:	0f b7 05 86 64 00 00 	movzwl 0x6486(%rip),%eax        # 19228 <g_325>
   12da2:	48 0f bf c0          	movswq %ax,%rax
   12da6:	8b 55 fc             	mov    -0x4(%rbp),%edx
   12da9:	48 8d 35 9b 2c 00 00 	lea    0x2c9b(%rip),%rsi        # 15a4b <g_2542+0x83b>
   12db0:	48 89 c7             	mov    %rax,%rdi
   12db3:	e8 3b 69 ff ff       	callq  96f3 <transparent_crc>
   12db8:	c7 45 f0 00 00 00 00 	movl   $0x0,-0x10(%rbp)
   12dbf:	e9 9b 00 00 00       	jmpq   12e5f <main+0x55b>
   12dc4:	c7 45 f4 00 00 00 00 	movl   $0x0,-0xc(%rbp)
   12dcb:	e9 81 00 00 00       	jmpq   12e51 <main+0x54d>
   12dd0:	c7 45 f8 00 00 00 00 	movl   $0x0,-0x8(%rbp)
   12dd7:	eb 6e                	jmp    12e47 <main+0x543>
   12dd9:	8b 45 f8             	mov    -0x8(%rbp),%eax
   12ddc:	48 63 f0             	movslq %eax,%rsi
   12ddf:	8b 45 f4             	mov    -0xc(%rbp),%eax
   12de2:	48 63 c8             	movslq %eax,%rcx
   12de5:	8b 45 f0             	mov    -0x10(%rbp),%eax
   12de8:	48 63 d0             	movslq %eax,%rdx
   12deb:	48 89 d0             	mov    %rdx,%rax
   12dee:	48 c1 e0 03          	shl    $0x3,%rax
   12df2:	48 29 d0             	sub    %rdx,%rax
   12df5:	48 01 f0             	add    %rsi,%rax
   12df8:	48 01 c8             	add    %rcx,%rax
   12dfb:	48 8d 14 85 00 00 00 	lea    0x0(,%rax,4),%rdx
   12e02:	00 
   12e03:	48 8d 05 36 64 00 00 	lea    0x6436(%rip),%rax        # 19240 <g_326>
   12e0a:	8b 04 02             	mov    (%rdx,%rax,1),%eax
   12e0d:	48 98                	cltq   
   12e0f:	8b 55 fc             	mov    -0x4(%rbp),%edx
   12e12:	48 8d 35 38 2c 00 00 	lea    0x2c38(%rip),%rsi        # 15a51 <g_2542+0x841>
   12e19:	48 89 c7             	mov    %rax,%rdi
   12e1c:	e8 d2 68 ff ff       	callq  96f3 <transparent_crc>
   12e21:	83 7d fc 00          	cmpl   $0x0,-0x4(%rbp)
   12e25:	74 1c                	je     12e43 <main+0x53f>
   12e27:	8b 4d f8             	mov    -0x8(%rbp),%ecx
   12e2a:	8b 55 f4             	mov    -0xc(%rbp),%edx
   12e2d:	8b 45 f0             	mov    -0x10(%rbp),%eax
   12e30:	89 c6                	mov    %eax,%esi
   12e32:	48 8d 3d de 2b 00 00 	lea    0x2bde(%rip),%rdi        # 15a17 <g_2542+0x807>
   12e39:	b8 00 00 00 00       	mov    $0x0,%eax
   12e3e:	e8 3d 52 ff ff       	callq  8080 <printf@plt>
   12e43:	83 45 f8 01          	addl   $0x1,-0x8(%rbp)
   12e47:	83 7d f8 00          	cmpl   $0x0,-0x8(%rbp)
   12e4b:	7e 8c                	jle    12dd9 <main+0x4d5>
   12e4d:	83 45 f4 01          	addl   $0x1,-0xc(%rbp)
   12e51:	83 7d f4 06          	cmpl   $0x6,-0xc(%rbp)
   12e55:	0f 8e 75 ff ff ff    	jle    12dd0 <main+0x4cc>
   12e5b:	83 45 f0 01          	addl   $0x1,-0x10(%rbp)
   12e5f:	83 7d f0 05          	cmpl   $0x5,-0x10(%rbp)
   12e63:	0f 8e 5b ff ff ff    	jle    12dc4 <main+0x4c0>
   12e69:	8b 05 79 64 00 00    	mov    0x6479(%rip),%eax        # 192e8 <g_327>
   12e6f:	48 98                	cltq   
   12e71:	8b 55 fc             	mov    -0x4(%rbp),%edx
   12e74:	48 8d 35 e5 2b 00 00 	lea    0x2be5(%rip),%rsi        # 15a60 <g_2542+0x850>
   12e7b:	48 89 c7             	mov    %rax,%rdi
   12e7e:	e8 70 68 ff ff       	callq  96f3 <transparent_crc>
   12e83:	c7 45 f0 00 00 00 00 	movl   $0x0,-0x10(%rbp)
   12e8a:	eb 4f                	jmp    12edb <main+0x5d7>
   12e8c:	8b 45 f0             	mov    -0x10(%rbp),%eax
   12e8f:	48 98                	cltq   
   12e91:	48 8d 14 c5 00 00 00 	lea    0x0(,%rax,8),%rdx
   12e98:	00 
   12e99:	48 8d 05 60 64 00 00 	lea    0x6460(%rip),%rax        # 19300 <g_328>
   12ea0:	48 8b 04 02          	mov    (%rdx,%rax,1),%rax
   12ea4:	48 89 c1             	mov    %rax,%rcx
   12ea7:	8b 45 fc             	mov    -0x4(%rbp),%eax
   12eaa:	89 c2                	mov    %eax,%edx
   12eac:	48 8d 35 b3 2b 00 00 	lea    0x2bb3(%rip),%rsi        # 15a66 <g_2542+0x856>
   12eb3:	48 89 cf             	mov    %rcx,%rdi
   12eb6:	e8 38 68 ff ff       	callq  96f3 <transparent_crc>
   12ebb:	83 7d fc 00          	cmpl   $0x0,-0x4(%rbp)
   12ebf:	74 16                	je     12ed7 <main+0x5d3>
   12ec1:	8b 45 f0             	mov    -0x10(%rbp),%eax
   12ec4:	89 c6                	mov    %eax,%esi
   12ec6:	48 8d 3d d8 2a 00 00 	lea    0x2ad8(%rip),%rdi        # 159a5 <g_2542+0x795>
   12ecd:	b8 00 00 00 00       	mov    $0x0,%eax
   12ed2:	e8 a9 51 ff ff       	callq  8080 <printf@plt>
   12ed7:	83 45 f0 01          	addl   $0x1,-0x10(%rbp)
   12edb:	83 7d f0 09          	cmpl   $0x9,-0x10(%rbp)
   12edf:	7e ab                	jle    12e8c <main+0x588>
   12ee1:	48 8b 05 68 64 00 00 	mov    0x6468(%rip),%rax        # 19350 <g_329>
   12ee8:	48 89 c1             	mov    %rax,%rcx
   12eeb:	8b 45 fc             	mov    -0x4(%rbp),%eax
   12eee:	89 c2                	mov    %eax,%edx
   12ef0:	48 8d 35 78 2b 00 00 	lea    0x2b78(%rip),%rsi        # 15a6f <g_2542+0x85f>
   12ef7:	48 89 cf             	mov    %rcx,%rdi
   12efa:	e8 f4 67 ff ff       	callq  96f3 <transparent_crc>
   12eff:	8b 05 53 64 00 00    	mov    0x6453(%rip),%eax        # 19358 <g_335>
   12f05:	48 98                	cltq   
   12f07:	8b 55 fc             	mov    -0x4(%rbp),%edx
   12f0a:	48 8d 35 64 2b 00 00 	lea    0x2b64(%rip),%rsi        # 15a75 <g_2542+0x865>
   12f11:	48 89 c7             	mov    %rax,%rdi
   12f14:	e8 da 67 ff ff       	callq  96f3 <transparent_crc>
   12f19:	c7 45 f0 00 00 00 00 	movl   $0x0,-0x10(%rbp)
   12f20:	eb 49                	jmp    12f6b <main+0x667>
   12f22:	8b 45 f0             	mov    -0x10(%rbp),%eax
   12f25:	48 98                	cltq   
   12f27:	48 8d 14 00          	lea    (%rax,%rax,1),%rdx
   12f2b:	48 8d 05 5e a1 00 00 	lea    0xa15e(%rip),%rax        # 1d090 <g_338>
   12f32:	0f b7 04 02          	movzwl (%rdx,%rax,1),%eax
   12f36:	0f b7 c0             	movzwl %ax,%eax
   12f39:	8b 55 fc             	mov    -0x4(%rbp),%edx
   12f3c:	48 8d 35 38 2b 00 00 	lea    0x2b38(%rip),%rsi        # 15a7b <g_2542+0x86b>
   12f43:	48 89 c7             	mov    %rax,%rdi
   12f46:	e8 a8 67 ff ff       	callq  96f3 <transparent_crc>
   12f4b:	83 7d fc 00          	cmpl   $0x0,-0x4(%rbp)
   12f4f:	74 16                	je     12f67 <main+0x663>
   12f51:	8b 45 f0             	mov    -0x10(%rbp),%eax
   12f54:	89 c6                	mov    %eax,%esi
   12f56:	48 8d 3d 48 2a 00 00 	lea    0x2a48(%rip),%rdi        # 159a5 <g_2542+0x795>
   12f5d:	b8 00 00 00 00       	mov    $0x0,%eax
   12f62:	e8 19 51 ff ff       	callq  8080 <printf@plt>
   12f67:	83 45 f0 01          	addl   $0x1,-0x10(%rbp)
   12f6b:	83 7d f0 00          	cmpl   $0x0,-0x10(%rbp)
   12f6f:	7e b1                	jle    12f22 <main+0x61e>
   12f71:	8b 05 e5 63 00 00    	mov    0x63e5(%rip),%eax        # 1935c <g_354>
   12f77:	89 c1                	mov    %eax,%ecx
   12f79:	8b 45 fc             	mov    -0x4(%rbp),%eax
   12f7c:	89 c2                	mov    %eax,%edx
   12f7e:	48 8d 35 ff 2a 00 00 	lea    0x2aff(%rip),%rsi        # 15a84 <g_2542+0x874>
   12f85:	48 89 cf             	mov    %rcx,%rdi
   12f88:	e8 66 67 ff ff       	callq  96f3 <transparent_crc>
   12f8d:	0f b6 05 cc 63 00 00 	movzbl 0x63cc(%rip),%eax        # 19360 <g_361>
   12f94:	0f b6 c0             	movzbl %al,%eax
   12f97:	8b 55 fc             	mov    -0x4(%rbp),%edx
   12f9a:	48 8d 35 e9 2a 00 00 	lea    0x2ae9(%rip),%rsi        # 15a8a <g_2542+0x87a>
   12fa1:	48 89 c7             	mov    %rax,%rdi
   12fa4:	e8 4a 67 ff ff       	callq  96f3 <transparent_crc>
   12fa9:	0f b6 05 b1 63 00 00 	movzbl 0x63b1(%rip),%eax        # 19361 <g_384>
   12fb0:	48 0f be c0          	movsbq %al,%rax
   12fb4:	8b 55 fc             	mov    -0x4(%rbp),%edx
   12fb7:	48 8d 35 d2 2a 00 00 	lea    0x2ad2(%rip),%rsi        # 15a90 <g_2542+0x880>
   12fbe:	48 89 c7             	mov    %rax,%rdi
   12fc1:	e8 2d 67 ff ff       	callq  96f3 <transparent_crc>
   12fc6:	8b 05 98 63 00 00    	mov    0x6398(%rip),%eax        # 19364 <g_400>
   12fcc:	89 c1                	mov    %eax,%ecx
   12fce:	8b 45 fc             	mov    -0x4(%rbp),%eax
   12fd1:	89 c2                	mov    %eax,%edx
   12fd3:	48 8d 35 bc 2a 00 00 	lea    0x2abc(%rip),%rsi        # 15a96 <g_2542+0x886>
   12fda:	48 89 cf             	mov    %rcx,%rdi
   12fdd:	e8 11 67 ff ff       	callq  96f3 <transparent_crc>
   12fe2:	c7 45 f0 00 00 00 00 	movl   $0x0,-0x10(%rbp)
   12fe9:	eb 45                	jmp    13030 <main+0x72c>
   12feb:	8b 45 f0             	mov    -0x10(%rbp),%eax
   12fee:	48 98                	cltq   
   12ff0:	48 8d 15 71 63 00 00 	lea    0x6371(%rip),%rdx        # 19368 <g_403>
   12ff7:	0f b6 04 10          	movzbl (%rax,%rdx,1),%eax
   12ffb:	0f b6 c0             	movzbl %al,%eax
   12ffe:	8b 55 fc             	mov    -0x4(%rbp),%edx
   13001:	48 8d 35 94 2a 00 00 	lea    0x2a94(%rip),%rsi        # 15a9c <g_2542+0x88c>
   13008:	48 89 c7             	mov    %rax,%rdi
   1300b:	e8 e3 66 ff ff       	callq  96f3 <transparent_crc>
   13010:	83 7d fc 00          	cmpl   $0x0,-0x4(%rbp)
   13014:	74 16                	je     1302c <main+0x728>
   13016:	8b 45 f0             	mov    -0x10(%rbp),%eax
   13019:	89 c6                	mov    %eax,%esi
   1301b:	48 8d 3d 83 29 00 00 	lea    0x2983(%rip),%rdi        # 159a5 <g_2542+0x795>
   13022:	b8 00 00 00 00       	mov    $0x0,%eax
   13027:	e8 54 50 ff ff       	callq  8080 <printf@plt>
   1302c:	83 45 f0 01          	addl   $0x1,-0x10(%rbp)
   13030:	83 7d f0 04          	cmpl   $0x4,-0x10(%rbp)
   13034:	7e b5                	jle    12feb <main+0x6e7>
   13036:	8b 05 34 63 00 00    	mov    0x6334(%rip),%eax        # 19370 <g_711>
   1303c:	89 c1                	mov    %eax,%ecx
   1303e:	8b 45 fc             	mov    -0x4(%rbp),%eax
   13041:	89 c2                	mov    %eax,%edx
   13043:	48 8d 35 5b 2a 00 00 	lea    0x2a5b(%rip),%rsi        # 15aa5 <g_2542+0x895>
   1304a:	48 89 cf             	mov    %rcx,%rdi
   1304d:	e8 a1 66 ff ff       	callq  96f3 <transparent_crc>
   13052:	c7 45 f0 00 00 00 00 	movl   $0x0,-0x10(%rbp)
   13059:	eb 74                	jmp    130cf <main+0x7cb>
   1305b:	c7 45 f4 00 00 00 00 	movl   $0x0,-0xc(%rbp)
   13062:	eb 61                	jmp    130c5 <main+0x7c1>
   13064:	8b 45 f4             	mov    -0xc(%rbp),%eax
   13067:	48 63 c8             	movslq %eax,%rcx
   1306a:	8b 45 f0             	mov    -0x10(%rbp),%eax
   1306d:	48 63 d0             	movslq %eax,%rdx
   13070:	48 89 d0             	mov    %rdx,%rax
   13073:	48 c1 e0 02          	shl    $0x2,%rax
   13077:	48 01 d0             	add    %rdx,%rax
   1307a:	48 01 c8             	add    %rcx,%rax
   1307d:	48 8d 14 c5 00 00 00 	lea    0x0(,%rax,8),%rdx
   13084:	00 
   13085:	48 8d 05 f4 62 00 00 	lea    0x62f4(%rip),%rax        # 19380 <g_741>
   1308c:	48 8b 04 02          	mov    (%rdx,%rax,1),%rax
   13090:	8b 55 fc             	mov    -0x4(%rbp),%edx
   13093:	48 8d 35 11 2a 00 00 	lea    0x2a11(%rip),%rsi        # 15aab <g_2542+0x89b>
   1309a:	48 89 c7             	mov    %rax,%rdi
   1309d:	e8 51 66 ff ff       	callq  96f3 <transparent_crc>
   130a2:	83 7d fc 00          	cmpl   $0x0,-0x4(%rbp)
   130a6:	74 19                	je     130c1 <main+0x7bd>
   130a8:	8b 55 f4             	mov    -0xc(%rbp),%edx
   130ab:	8b 45 f0             	mov    -0x10(%rbp),%eax
   130ae:	89 c6                	mov    %eax,%esi
   130b0:	48 8d 3d d1 28 00 00 	lea    0x28d1(%rip),%rdi        # 15988 <g_2542+0x778>
   130b7:	b8 00 00 00 00       	mov    $0x0,%eax
   130bc:	e8 bf 4f ff ff       	callq  8080 <printf@plt>
   130c1:	83 45 f4 01          	addl   $0x1,-0xc(%rbp)
   130c5:	83 7d f4 04          	cmpl   $0x4,-0xc(%rbp)
   130c9:	7e 99                	jle    13064 <main+0x760>
   130cb:	83 45 f0 01          	addl   $0x1,-0x10(%rbp)
   130cf:	83 7d f0 00          	cmpl   $0x0,-0x10(%rbp)
   130d3:	7e 86                	jle    1305b <main+0x757>
   130d5:	0f b7 05 cc 62 00 00 	movzwl 0x62cc(%rip),%eax        # 193a8 <g_745>
   130dc:	0f b7 c0             	movzwl %ax,%eax
   130df:	8b 55 fc             	mov    -0x4(%rbp),%edx
   130e2:	48 8d 35 ce 29 00 00 	lea    0x29ce(%rip),%rsi        # 15ab7 <g_2542+0x8a7>
   130e9:	48 89 c7             	mov    %rax,%rdi
   130ec:	e8 02 66 ff ff       	callq  96f3 <transparent_crc>
   130f1:	48 8b 05 b8 62 00 00 	mov    0x62b8(%rip),%rax        # 193b0 <g_840>
   130f8:	8b 55 fc             	mov    -0x4(%rbp),%edx
   130fb:	48 8d 35 bb 29 00 00 	lea    0x29bb(%rip),%rsi        # 15abd <g_2542+0x8ad>
   13102:	48 89 c7             	mov    %rax,%rdi
   13105:	e8 e9 65 ff ff       	callq  96f3 <transparent_crc>
   1310a:	48 8b 05 a7 62 00 00 	mov    0x62a7(%rip),%rax        # 193b8 <g_958>
   13111:	25 ff ff 03 00       	and    $0x3ffff,%eax
   13116:	89 c1                	mov    %eax,%ecx
   13118:	8b 45 fc             	mov    -0x4(%rbp),%eax
   1311b:	89 c2                	mov    %eax,%edx
   1311d:	48 8d 35 9f 29 00 00 	lea    0x299f(%rip),%rsi        # 15ac3 <g_2542+0x8b3>
   13124:	48 89 cf             	mov    %rcx,%rdi
   13127:	e8 c7 65 ff ff       	callq  96f3 <transparent_crc>
   1312c:	0f b7 05 87 62 00 00 	movzwl 0x6287(%rip),%eax        # 193ba <g_958+0x2>
   13133:	66 c1 e8 02          	shr    $0x2,%ax
   13137:	66 25 ff 07          	and    $0x7ff,%ax
   1313b:	0f b7 c0             	movzwl %ax,%eax
   1313e:	8b 55 fc             	mov    -0x4(%rbp),%edx
   13141:	48 8d 35 84 29 00 00 	lea    0x2984(%rip),%rsi        # 15acc <g_2542+0x8bc>
   13148:	48 89 c7             	mov    %rax,%rdi
   1314b:	e8 a3 65 ff ff       	callq  96f3 <transparent_crc>
   13150:	8b 05 66 62 00 00    	mov    0x6266(%rip),%eax        # 193bc <g_958+0x4>
   13156:	c1 e0 08             	shl    $0x8,%eax
   13159:	c1 f8 08             	sar    $0x8,%eax
   1315c:	48 98                	cltq   
   1315e:	8b 55 fc             	mov    -0x4(%rbp),%edx
   13161:	48 8d 35 6d 29 00 00 	lea    0x296d(%rip),%rsi        # 15ad5 <g_2542+0x8c5>
   13168:	48 89 c7             	mov    %rax,%rdi
   1316b:	e8 83 65 ff ff       	callq  96f3 <transparent_crc>
   13170:	0f b7 05 49 62 00 00 	movzwl 0x6249(%rip),%eax        # 193c0 <g_958+0x8>
   13177:	c1 e0 07             	shl    $0x7,%eax
   1317a:	66 c1 f8 07          	sar    $0x7,%ax
   1317e:	48 0f bf c0          	movswq %ax,%rax
   13182:	8b 55 fc             	mov    -0x4(%rbp),%edx
   13185:	48 8d 35 52 29 00 00 	lea    0x2952(%rip),%rsi        # 15ade <g_2542+0x8ce>
   1318c:	48 89 c7             	mov    %rax,%rdi
   1318f:	e8 5f 65 ff ff       	callq  96f3 <transparent_crc>
   13194:	48 8b 05 25 62 00 00 	mov    0x6225(%rip),%rax        # 193c0 <g_958+0x8>
   1319b:	48 c1 e8 09          	shr    $0x9,%rax
   1319f:	66 25 ff 1f          	and    $0x1fff,%ax
   131a3:	0f b7 c0             	movzwl %ax,%eax
   131a6:	8b 55 fc             	mov    -0x4(%rbp),%edx
   131a9:	48 8d 35 37 29 00 00 	lea    0x2937(%rip),%rsi        # 15ae7 <g_2542+0x8d7>
   131b0:	48 89 c7             	mov    %rax,%rdi
   131b3:	e8 3b 65 ff ff       	callq  96f3 <transparent_crc>
   131b8:	0f b7 05 03 62 00 00 	movzwl 0x6203(%rip),%eax        # 193c2 <g_958+0xa>
   131bf:	66 c1 e8 06          	shr    $0x6,%ax
   131c3:	80 e4 ff             	and    $0xff,%ah
   131c6:	0f b6 c0             	movzbl %al,%eax
   131c9:	8b 55 fc             	mov    -0x4(%rbp),%edx
   131cc:	48 8d 35 1d 29 00 00 	lea    0x291d(%rip),%rsi        # 15af0 <g_2542+0x8e0>
   131d3:	48 89 c7             	mov    %rax,%rdi
   131d6:	e8 18 65 ff ff       	callq  96f3 <transparent_crc>
   131db:	48 8b 05 e6 61 00 00 	mov    0x61e6(%rip),%rax        # 193c8 <g_964>
   131e2:	25 ff ff 03 00       	and    $0x3ffff,%eax
   131e7:	89 c1                	mov    %eax,%ecx
   131e9:	8b 45 fc             	mov    -0x4(%rbp),%eax
   131ec:	89 c2                	mov    %eax,%edx
   131ee:	48 8d 35 04 29 00 00 	lea    0x2904(%rip),%rsi        # 15af9 <g_2542+0x8e9>
   131f5:	48 89 cf             	mov    %rcx,%rdi
   131f8:	e8 f6 64 ff ff       	callq  96f3 <transparent_crc>
   131fd:	0f b7 05 c6 61 00 00 	movzwl 0x61c6(%rip),%eax        # 193ca <g_964+0x2>
   13204:	66 c1 e8 02          	shr    $0x2,%ax
   13208:	66 25 ff 07          	and    $0x7ff,%ax
   1320c:	0f b7 c0             	movzwl %ax,%eax
   1320f:	8b 55 fc             	mov    -0x4(%rbp),%edx
   13212:	48 8d 35 e9 28 00 00 	lea    0x28e9(%rip),%rsi        # 15b02 <g_2542+0x8f2>
   13219:	48 89 c7             	mov    %rax,%rdi
   1321c:	e8 d2 64 ff ff       	callq  96f3 <transparent_crc>
   13221:	8b 05 a5 61 00 00    	mov    0x61a5(%rip),%eax        # 193cc <g_964+0x4>
   13227:	c1 e0 08             	shl    $0x8,%eax
   1322a:	c1 f8 08             	sar    $0x8,%eax
   1322d:	48 98                	cltq   
   1322f:	8b 55 fc             	mov    -0x4(%rbp),%edx
   13232:	48 8d 35 d2 28 00 00 	lea    0x28d2(%rip),%rsi        # 15b0b <g_2542+0x8fb>
   13239:	48 89 c7             	mov    %rax,%rdi
   1323c:	e8 b2 64 ff ff       	callq  96f3 <transparent_crc>
   13241:	0f b7 05 88 61 00 00 	movzwl 0x6188(%rip),%eax        # 193d0 <g_964+0x8>
   13248:	c1 e0 07             	shl    $0x7,%eax
   1324b:	66 c1 f8 07          	sar    $0x7,%ax
   1324f:	48 0f bf c0          	movswq %ax,%rax
   13253:	8b 55 fc             	mov    -0x4(%rbp),%edx
   13256:	48 8d 35 b7 28 00 00 	lea    0x28b7(%rip),%rsi        # 15b14 <g_2542+0x904>
   1325d:	48 89 c7             	mov    %rax,%rdi
   13260:	e8 8e 64 ff ff       	callq  96f3 <transparent_crc>
   13265:	48 8b 05 64 61 00 00 	mov    0x6164(%rip),%rax        # 193d0 <g_964+0x8>
   1326c:	48 c1 e8 09          	shr    $0x9,%rax
   13270:	66 25 ff 1f          	and    $0x1fff,%ax
   13274:	0f b7 c0             	movzwl %ax,%eax
   13277:	8b 55 fc             	mov    -0x4(%rbp),%edx
   1327a:	48 8d 35 9c 28 00 00 	lea    0x289c(%rip),%rsi        # 15b1d <g_2542+0x90d>
   13281:	48 89 c7             	mov    %rax,%rdi
   13284:	e8 6a 64 ff ff       	callq  96f3 <transparent_crc>
   13289:	0f b7 05 42 61 00 00 	movzwl 0x6142(%rip),%eax        # 193d2 <g_964+0xa>
   13290:	66 c1 e8 06          	shr    $0x6,%ax
   13294:	80 e4 ff             	and    $0xff,%ah
   13297:	0f b6 c0             	movzbl %al,%eax
   1329a:	8b 55 fc             	mov    -0x4(%rbp),%edx
   1329d:	48 8d 35 82 28 00 00 	lea    0x2882(%rip),%rsi        # 15b26 <g_2542+0x916>
   132a4:	48 89 c7             	mov    %rax,%rdi
   132a7:	e8 47 64 ff ff       	callq  96f3 <transparent_crc>
   132ac:	48 8b 05 25 61 00 00 	mov    0x6125(%rip),%rax        # 193d8 <g_986>
   132b3:	25 ff ff 03 00       	and    $0x3ffff,%eax
   132b8:	89 c1                	mov    %eax,%ecx
   132ba:	8b 45 fc             	mov    -0x4(%rbp),%eax
   132bd:	89 c2                	mov    %eax,%edx
   132bf:	48 8d 35 69 28 00 00 	lea    0x2869(%rip),%rsi        # 15b2f <g_2542+0x91f>
   132c6:	48 89 cf             	mov    %rcx,%rdi
   132c9:	e8 25 64 ff ff       	callq  96f3 <transparent_crc>
   132ce:	0f b7 05 05 61 00 00 	movzwl 0x6105(%rip),%eax        # 193da <g_986+0x2>
   132d5:	66 c1 e8 02          	shr    $0x2,%ax
   132d9:	66 25 ff 07          	and    $0x7ff,%ax
   132dd:	0f b7 c0             	movzwl %ax,%eax
   132e0:	8b 55 fc             	mov    -0x4(%rbp),%edx
   132e3:	48 8d 35 4e 28 00 00 	lea    0x284e(%rip),%rsi        # 15b38 <g_2542+0x928>
   132ea:	48 89 c7             	mov    %rax,%rdi
   132ed:	e8 01 64 ff ff       	callq  96f3 <transparent_crc>
   132f2:	8b 05 e4 60 00 00    	mov    0x60e4(%rip),%eax        # 193dc <g_986+0x4>
   132f8:	c1 e0 08             	shl    $0x8,%eax
   132fb:	c1 f8 08             	sar    $0x8,%eax
   132fe:	48 98                	cltq   
   13300:	8b 55 fc             	mov    -0x4(%rbp),%edx
   13303:	48 8d 35 37 28 00 00 	lea    0x2837(%rip),%rsi        # 15b41 <g_2542+0x931>
   1330a:	48 89 c7             	mov    %rax,%rdi
   1330d:	e8 e1 63 ff ff       	callq  96f3 <transparent_crc>
   13312:	0f b7 05 c7 60 00 00 	movzwl 0x60c7(%rip),%eax        # 193e0 <g_986+0x8>
   13319:	c1 e0 07             	shl    $0x7,%eax
   1331c:	66 c1 f8 07          	sar    $0x7,%ax
   13320:	48 0f bf c0          	movswq %ax,%rax
   13324:	8b 55 fc             	mov    -0x4(%rbp),%edx
   13327:	48 8d 35 1c 28 00 00 	lea    0x281c(%rip),%rsi        # 15b4a <g_2542+0x93a>
   1332e:	48 89 c7             	mov    %rax,%rdi
   13331:	e8 bd 63 ff ff       	callq  96f3 <transparent_crc>
   13336:	48 8b 05 a3 60 00 00 	mov    0x60a3(%rip),%rax        # 193e0 <g_986+0x8>
   1333d:	48 c1 e8 09          	shr    $0x9,%rax
   13341:	66 25 ff 1f          	and    $0x1fff,%ax
   13345:	0f b7 c0             	movzwl %ax,%eax
   13348:	8b 55 fc             	mov    -0x4(%rbp),%edx
   1334b:	48 8d 35 01 28 00 00 	lea    0x2801(%rip),%rsi        # 15b53 <g_2542+0x943>
   13352:	48 89 c7             	mov    %rax,%rdi
   13355:	e8 99 63 ff ff       	callq  96f3 <transparent_crc>
   1335a:	0f b7 05 81 60 00 00 	movzwl 0x6081(%rip),%eax        # 193e2 <g_986+0xa>
   13361:	66 c1 e8 06          	shr    $0x6,%ax
   13365:	80 e4 ff             	and    $0xff,%ah
   13368:	0f b6 c0             	movzbl %al,%eax
   1336b:	8b 55 fc             	mov    -0x4(%rbp),%edx
   1336e:	48 8d 35 e7 27 00 00 	lea    0x27e7(%rip),%rsi        # 15b5c <g_2542+0x94c>
   13375:	48 89 c7             	mov    %rax,%rdi
   13378:	e8 76 63 ff ff       	callq  96f3 <transparent_crc>
   1337d:	48 8b 05 64 60 00 00 	mov    0x6064(%rip),%rax        # 193e8 <g_988>
   13384:	25 ff ff 03 00       	and    $0x3ffff,%eax
   13389:	89 c1                	mov    %eax,%ecx
   1338b:	8b 45 fc             	mov    -0x4(%rbp),%eax
   1338e:	89 c2                	mov    %eax,%edx
   13390:	48 8d 35 ce 27 00 00 	lea    0x27ce(%rip),%rsi        # 15b65 <g_2542+0x955>
   13397:	48 89 cf             	mov    %rcx,%rdi
   1339a:	e8 54 63 ff ff       	callq  96f3 <transparent_crc>
   1339f:	0f b7 05 44 60 00 00 	movzwl 0x6044(%rip),%eax        # 193ea <g_988+0x2>
   133a6:	66 c1 e8 02          	shr    $0x2,%ax
   133aa:	66 25 ff 07          	and    $0x7ff,%ax
   133ae:	0f b7 c0             	movzwl %ax,%eax
   133b1:	8b 55 fc             	mov    -0x4(%rbp),%edx
   133b4:	48 8d 35 b3 27 00 00 	lea    0x27b3(%rip),%rsi        # 15b6e <g_2542+0x95e>
   133bb:	48 89 c7             	mov    %rax,%rdi
   133be:	e8 30 63 ff ff       	callq  96f3 <transparent_crc>
   133c3:	8b 05 23 60 00 00    	mov    0x6023(%rip),%eax        # 193ec <g_988+0x4>
   133c9:	c1 e0 08             	shl    $0x8,%eax
   133cc:	c1 f8 08             	sar    $0x8,%eax
   133cf:	48 98                	cltq   
   133d1:	8b 55 fc             	mov    -0x4(%rbp),%edx
   133d4:	48 8d 35 9c 27 00 00 	lea    0x279c(%rip),%rsi        # 15b77 <g_2542+0x967>
   133db:	48 89 c7             	mov    %rax,%rdi
   133de:	e8 10 63 ff ff       	callq  96f3 <transparent_crc>
   133e3:	0f b7 05 06 60 00 00 	movzwl 0x6006(%rip),%eax        # 193f0 <g_988+0x8>
   133ea:	c1 e0 07             	shl    $0x7,%eax
   133ed:	66 c1 f8 07          	sar    $0x7,%ax
   133f1:	48 0f bf c0          	movswq %ax,%rax
   133f5:	8b 55 fc             	mov    -0x4(%rbp),%edx
   133f8:	48 8d 35 81 27 00 00 	lea    0x2781(%rip),%rsi        # 15b80 <g_2542+0x970>
   133ff:	48 89 c7             	mov    %rax,%rdi
   13402:	e8 ec 62 ff ff       	callq  96f3 <transparent_crc>
   13407:	48 8b 05 e2 5f 00 00 	mov    0x5fe2(%rip),%rax        # 193f0 <g_988+0x8>
   1340e:	48 c1 e8 09          	shr    $0x9,%rax
   13412:	66 25 ff 1f          	and    $0x1fff,%ax
   13416:	0f b7 c0             	movzwl %ax,%eax
   13419:	8b 55 fc             	mov    -0x4(%rbp),%edx
   1341c:	48 8d 35 66 27 00 00 	lea    0x2766(%rip),%rsi        # 15b89 <g_2542+0x979>
   13423:	48 89 c7             	mov    %rax,%rdi
   13426:	e8 c8 62 ff ff       	callq  96f3 <transparent_crc>
   1342b:	0f b7 05 c0 5f 00 00 	movzwl 0x5fc0(%rip),%eax        # 193f2 <g_988+0xa>
   13432:	66 c1 e8 06          	shr    $0x6,%ax
   13436:	80 e4 ff             	and    $0xff,%ah
   13439:	0f b6 c0             	movzbl %al,%eax
   1343c:	8b 55 fc             	mov    -0x4(%rbp),%edx
   1343f:	48 8d 35 4c 27 00 00 	lea    0x274c(%rip),%rsi        # 15b92 <g_2542+0x982>
   13446:	48 89 c7             	mov    %rax,%rdi
   13449:	e8 a5 62 ff ff       	callq  96f3 <transparent_crc>
   1344e:	c7 45 f0 00 00 00 00 	movl   $0x0,-0x10(%rbp)
   13455:	e9 9d 00 00 00       	jmpq   134f7 <main+0xbf3>
   1345a:	c7 45 f4 00 00 00 00 	movl   $0x0,-0xc(%rbp)
   13461:	e9 83 00 00 00       	jmpq   134e9 <main+0xbe5>
   13466:	c7 45 f8 00 00 00 00 	movl   $0x0,-0x8(%rbp)
   1346d:	eb 70                	jmp    134df <main+0xbdb>
   1346f:	8b 45 f8             	mov    -0x8(%rbp),%eax
   13472:	48 63 c8             	movslq %eax,%rcx
   13475:	8b 45 f0             	mov    -0x10(%rbp),%eax
   13478:	48 63 d0             	movslq %eax,%rdx
   1347b:	8b 45 f4             	mov    -0xc(%rbp),%eax
   1347e:	48 63 f0             	movslq %eax,%rsi
   13481:	48 89 d0             	mov    %rdx,%rax
   13484:	48 c1 e0 03          	shl    $0x3,%rax
   13488:	48 01 d0             	add    %rdx,%rax
   1348b:	48 01 f0             	add    %rsi,%rax
   1348e:	48 01 c0             	add    %rax,%rax
   13491:	48 01 c8             	add    %rcx,%rax
   13494:	48 8d 14 00          	lea    (%rax,%rax,1),%rdx
   13498:	48 8d 05 61 5f 00 00 	lea    0x5f61(%rip),%rax        # 19400 <g_1182>
   1349f:	0f b7 04 02          	movzwl (%rdx,%rax,1),%eax
   134a3:	48 0f bf c0          	movswq %ax,%rax
   134a7:	8b 55 fc             	mov    -0x4(%rbp),%edx
   134aa:	48 8d 35 ea 26 00 00 	lea    0x26ea(%rip),%rsi        # 15b9b <g_2542+0x98b>
   134b1:	48 89 c7             	mov    %rax,%rdi
   134b4:	e8 3a 62 ff ff       	callq  96f3 <transparent_crc>
   134b9:	83 7d fc 00          	cmpl   $0x0,-0x4(%rbp)
   134bd:	74 1c                	je     134db <main+0xbd7>
   134bf:	8b 4d f8             	mov    -0x8(%rbp),%ecx
   134c2:	8b 55 f4             	mov    -0xc(%rbp),%edx
   134c5:	8b 45 f0             	mov    -0x10(%rbp),%eax
   134c8:	89 c6                	mov    %eax,%esi
   134ca:	48 8d 3d 46 25 00 00 	lea    0x2546(%rip),%rdi        # 15a17 <g_2542+0x807>
   134d1:	b8 00 00 00 00       	mov    $0x0,%eax
   134d6:	e8 a5 4b ff ff       	callq  8080 <printf@plt>
   134db:	83 45 f8 01          	addl   $0x1,-0x8(%rbp)
   134df:	83 7d f8 01          	cmpl   $0x1,-0x8(%rbp)
   134e3:	7e 8a                	jle    1346f <main+0xb6b>
   134e5:	83 45 f4 01          	addl   $0x1,-0xc(%rbp)
   134e9:	83 7d f4 08          	cmpl   $0x8,-0xc(%rbp)
   134ed:	0f 8e 73 ff ff ff    	jle    13466 <main+0xb62>
   134f3:	83 45 f0 01          	addl   $0x1,-0x10(%rbp)
   134f7:	83 7d f0 00          	cmpl   $0x0,-0x10(%rbp)
   134fb:	0f 8e 59 ff ff ff    	jle    1345a <main+0xb56>
   13501:	48 8b 05 20 5f 00 00 	mov    0x5f20(%rip),%rax        # 19428 <g_1191>
   13508:	8b 55 fc             	mov    -0x4(%rbp),%edx
   1350b:	48 8d 35 99 26 00 00 	lea    0x2699(%rip),%rsi        # 15bab <g_2542+0x99b>
   13512:	48 89 c7             	mov    %rax,%rdi
   13515:	e8 d9 61 ff ff       	callq  96f3 <transparent_crc>
   1351a:	b8 b1 28 00 00       	mov    $0x28b1,%eax
   1351f:	0f b7 c0             	movzwl %ax,%eax
   13522:	8b 55 fc             	mov    -0x4(%rbp),%edx
   13525:	48 8d 35 86 26 00 00 	lea    0x2686(%rip),%rsi        # 15bb2 <g_2542+0x9a2>
   1352c:	48 89 c7             	mov    %rax,%rdi
   1352f:	e8 bf 61 ff ff       	callq  96f3 <transparent_crc>
   13534:	0f b7 05 05 5f 00 00 	movzwl 0x5f05(%rip),%eax        # 19440 <g_1279>
   1353b:	48 0f bf c0          	movswq %ax,%rax
   1353f:	8b 55 fc             	mov    -0x4(%rbp),%edx
   13542:	48 8d 35 70 26 00 00 	lea    0x2670(%rip),%rsi        # 15bb9 <g_2542+0x9a9>
   13549:	48 89 c7             	mov    %rax,%rdi
   1354c:	e8 a2 61 ff ff       	callq  96f3 <transparent_crc>
   13551:	48 8b 05 f0 5e 00 00 	mov    0x5ef0(%rip),%rax        # 19448 <g_1279+0x8>
   13558:	48 89 c1             	mov    %rax,%rcx
   1355b:	8b 45 fc             	mov    -0x4(%rbp),%eax
   1355e:	89 c2                	mov    %eax,%edx
   13560:	48 8d 35 5c 26 00 00 	lea    0x265c(%rip),%rsi        # 15bc3 <g_2542+0x9b3>
   13567:	48 89 cf             	mov    %rcx,%rdi
   1356a:	e8 84 61 ff ff       	callq  96f3 <transparent_crc>
   1356f:	8b 05 db 5e 00 00    	mov    0x5edb(%rip),%eax        # 19450 <g_1279+0x10>
   13575:	48 98                	cltq   
   13577:	8b 55 fc             	mov    -0x4(%rbp),%edx
   1357a:	48 8d 35 4c 26 00 00 	lea    0x264c(%rip),%rsi        # 15bcd <g_2542+0x9bd>
   13581:	48 89 c7             	mov    %rax,%rdi
   13584:	e8 6a 61 ff ff       	callq  96f3 <transparent_crc>
   13589:	8b 05 c5 5e 00 00    	mov    0x5ec5(%rip),%eax        # 19454 <g_1279+0x14>
   1358f:	89 c1                	mov    %eax,%ecx
   13591:	8b 45 fc             	mov    -0x4(%rbp),%eax
   13594:	89 c2                	mov    %eax,%edx
   13596:	48 8d 35 3a 26 00 00 	lea    0x263a(%rip),%rsi        # 15bd7 <g_2542+0x9c7>
   1359d:	48 89 cf             	mov    %rcx,%rdi
   135a0:	e8 4e 61 ff ff       	callq  96f3 <transparent_crc>
   135a5:	48 8b 05 ac 5e 00 00 	mov    0x5eac(%rip),%rax        # 19458 <g_1279+0x18>
   135ac:	8b 55 fc             	mov    -0x4(%rbp),%edx
   135af:	48 8d 35 2b 26 00 00 	lea    0x262b(%rip),%rsi        # 15be1 <g_2542+0x9d1>
   135b6:	48 89 c7             	mov    %rax,%rdi
   135b9:	e8 35 61 ff ff       	callq  96f3 <transparent_crc>
   135be:	48 8b 05 9b 5e 00 00 	mov    0x5e9b(%rip),%rax        # 19460 <g_1307>
   135c5:	25 ff ff 03 00       	and    $0x3ffff,%eax
   135ca:	89 c1                	mov    %eax,%ecx
   135cc:	8b 45 fc             	mov    -0x4(%rbp),%eax
   135cf:	89 c2                	mov    %eax,%edx
   135d1:	48 8d 35 13 26 00 00 	lea    0x2613(%rip),%rsi        # 15beb <g_2542+0x9db>
   135d8:	48 89 cf             	mov    %rcx,%rdi
   135db:	e8 13 61 ff ff       	callq  96f3 <transparent_crc>
   135e0:	0f b7 05 7b 5e 00 00 	movzwl 0x5e7b(%rip),%eax        # 19462 <g_1307+0x2>
   135e7:	66 c1 e8 02          	shr    $0x2,%ax
   135eb:	66 25 ff 07          	and    $0x7ff,%ax
   135ef:	0f b7 c0             	movzwl %ax,%eax
   135f2:	8b 55 fc             	mov    -0x4(%rbp),%edx
   135f5:	48 8d 35 f9 25 00 00 	lea    0x25f9(%rip),%rsi        # 15bf5 <g_2542+0x9e5>
   135fc:	48 89 c7             	mov    %rax,%rdi
   135ff:	e8 ef 60 ff ff       	callq  96f3 <transparent_crc>
   13604:	8b 05 5a 5e 00 00    	mov    0x5e5a(%rip),%eax        # 19464 <g_1307+0x4>
   1360a:	c1 e0 08             	shl    $0x8,%eax
   1360d:	c1 f8 08             	sar    $0x8,%eax
   13610:	48 98                	cltq   
   13612:	8b 55 fc             	mov    -0x4(%rbp),%edx
   13615:	48 8d 35 e3 25 00 00 	lea    0x25e3(%rip),%rsi        # 15bff <g_2542+0x9ef>
   1361c:	48 89 c7             	mov    %rax,%rdi
   1361f:	e8 cf 60 ff ff       	callq  96f3 <transparent_crc>
   13624:	0f b7 05 3d 5e 00 00 	movzwl 0x5e3d(%rip),%eax        # 19468 <g_1307+0x8>
   1362b:	c1 e0 07             	shl    $0x7,%eax
   1362e:	66 c1 f8 07          	sar    $0x7,%ax
   13632:	48 0f bf c0          	movswq %ax,%rax
   13636:	8b 55 fc             	mov    -0x4(%rbp),%edx
   13639:	48 8d 35 c9 25 00 00 	lea    0x25c9(%rip),%rsi        # 15c09 <g_2542+0x9f9>
   13640:	48 89 c7             	mov    %rax,%rdi
   13643:	e8 ab 60 ff ff       	callq  96f3 <transparent_crc>
   13648:	48 8b 05 19 5e 00 00 	mov    0x5e19(%rip),%rax        # 19468 <g_1307+0x8>
   1364f:	48 c1 e8 09          	shr    $0x9,%rax
   13653:	66 25 ff 1f          	and    $0x1fff,%ax
   13657:	0f b7 c0             	movzwl %ax,%eax
   1365a:	8b 55 fc             	mov    -0x4(%rbp),%edx
   1365d:	48 8d 35 af 25 00 00 	lea    0x25af(%rip),%rsi        # 15c13 <g_2542+0xa03>
   13664:	48 89 c7             	mov    %rax,%rdi
   13667:	e8 87 60 ff ff       	callq  96f3 <transparent_crc>
   1366c:	0f b7 05 f7 5d 00 00 	movzwl 0x5df7(%rip),%eax        # 1946a <g_1307+0xa>
   13673:	66 c1 e8 06          	shr    $0x6,%ax
   13677:	80 e4 ff             	and    $0xff,%ah
   1367a:	0f b6 c0             	movzbl %al,%eax
   1367d:	8b 55 fc             	mov    -0x4(%rbp),%edx
   13680:	48 8d 35 96 25 00 00 	lea    0x2596(%rip),%rsi        # 15c1d <g_2542+0xa0d>
   13687:	48 89 c7             	mov    %rax,%rdi
   1368a:	e8 64 60 ff ff       	callq  96f3 <transparent_crc>
   1368f:	c7 45 f0 00 00 00 00 	movl   $0x0,-0x10(%rbp)
   13696:	eb 49                	jmp    136e1 <main+0xddd>
   13698:	8b 45 f0             	mov    -0x10(%rbp),%eax
   1369b:	48 98                	cltq   
   1369d:	48 8d 14 00          	lea    (%rax,%rax,1),%rdx
   136a1:	48 8d 05 c4 5d 00 00 	lea    0x5dc4(%rip),%rax        # 1946c <g_1315>
   136a8:	0f b7 04 02          	movzwl (%rdx,%rax,1),%eax
   136ac:	0f b7 c0             	movzwl %ax,%eax
   136af:	8b 55 fc             	mov    -0x4(%rbp),%edx
   136b2:	48 8d 35 6e 25 00 00 	lea    0x256e(%rip),%rsi        # 15c27 <g_2542+0xa17>
   136b9:	48 89 c7             	mov    %rax,%rdi
   136bc:	e8 32 60 ff ff       	callq  96f3 <transparent_crc>
   136c1:	83 7d fc 00          	cmpl   $0x0,-0x4(%rbp)
   136c5:	74 16                	je     136dd <main+0xdd9>
   136c7:	8b 45 f0             	mov    -0x10(%rbp),%eax
   136ca:	89 c6                	mov    %eax,%esi
   136cc:	48 8d 3d d2 22 00 00 	lea    0x22d2(%rip),%rdi        # 159a5 <g_2542+0x795>
   136d3:	b8 00 00 00 00       	mov    $0x0,%eax
   136d8:	e8 a3 49 ff ff       	callq  8080 <printf@plt>
   136dd:	83 45 f0 01          	addl   $0x1,-0x10(%rbp)
   136e1:	83 7d f0 01          	cmpl   $0x1,-0x10(%rbp)
   136e5:	7e b1                	jle    13698 <main+0xd94>
   136e7:	c7 45 f0 00 00 00 00 	movl   $0x0,-0x10(%rbp)
   136ee:	e9 b5 00 00 00       	jmpq   137a8 <main+0xea4>
   136f3:	c7 45 f4 00 00 00 00 	movl   $0x0,-0xc(%rbp)
   136fa:	e9 9b 00 00 00       	jmpq   1379a <main+0xe96>
   136ff:	c7 45 f8 00 00 00 00 	movl   $0x0,-0x8(%rbp)
   13706:	e9 81 00 00 00       	jmpq   1378c <main+0xe88>
   1370b:	8b 45 f8             	mov    -0x8(%rbp),%eax
   1370e:	48 63 f0             	movslq %eax,%rsi
   13711:	8b 45 f0             	mov    -0x10(%rbp),%eax
   13714:	48 98                	cltq   
   13716:	8b 55 f4             	mov    -0xc(%rbp),%edx
   13719:	48 63 ca             	movslq %edx,%rcx
   1371c:	48 89 c2             	mov    %rax,%rdx
   1371f:	48 c1 e2 03          	shl    $0x3,%rdx
   13723:	48 01 c2             	add    %rax,%rdx
   13726:	48 8d 04 95 00 00 00 	lea    0x0(,%rdx,4),%rax
   1372d:	00 
   1372e:	48 89 c2             	mov    %rax,%rdx
   13731:	48 89 c8             	mov    %rcx,%rax
   13734:	48 01 c0             	add    %rax,%rax
   13737:	48 01 c8             	add    %rcx,%rax
   1373a:	48 01 c0             	add    %rax,%rax
   1373d:	48 01 d0             	add    %rdx,%rax
   13740:	48 8d 14 30          	lea    (%rax,%rsi,1),%rdx
   13744:	48 8d 05 b5 19 00 00 	lea    0x19b5(%rip),%rax        # 15100 <g_1354>
   1374b:	48 01 d0             	add    %rdx,%rax
   1374e:	0f b6 00             	movzbl (%rax),%eax
   13751:	0f b6 c0             	movzbl %al,%eax
   13754:	8b 55 fc             	mov    -0x4(%rbp),%edx
   13757:	48 8d 35 d3 24 00 00 	lea    0x24d3(%rip),%rsi        # 15c31 <g_2542+0xa21>
   1375e:	48 89 c7             	mov    %rax,%rdi
   13761:	e8 8d 5f ff ff       	callq  96f3 <transparent_crc>
   13766:	83 7d fc 00          	cmpl   $0x0,-0x4(%rbp)
   1376a:	74 1c                	je     13788 <main+0xe84>
   1376c:	8b 4d f8             	mov    -0x8(%rbp),%ecx
   1376f:	8b 55 f4             	mov    -0xc(%rbp),%edx
   13772:	8b 45 f0             	mov    -0x10(%rbp),%eax
   13775:	89 c6                	mov    %eax,%esi
   13777:	48 8d 3d 99 22 00 00 	lea    0x2299(%rip),%rdi        # 15a17 <g_2542+0x807>
   1377e:	b8 00 00 00 00       	mov    $0x0,%eax
   13783:	e8 f8 48 ff ff       	callq  8080 <printf@plt>
   13788:	83 45 f8 01          	addl   $0x1,-0x8(%rbp)
   1378c:	83 7d f8 05          	cmpl   $0x5,-0x8(%rbp)
   13790:	0f 8e 75 ff ff ff    	jle    1370b <main+0xe07>
   13796:	83 45 f4 01          	addl   $0x1,-0xc(%rbp)
   1379a:	83 7d f4 05          	cmpl   $0x5,-0xc(%rbp)
   1379e:	0f 8e 5b ff ff ff    	jle    136ff <main+0xdfb>
   137a4:	83 45 f0 01          	addl   $0x1,-0x10(%rbp)
   137a8:	83 7d f0 06          	cmpl   $0x6,-0x10(%rbp)
   137ac:	0f 8e 41 ff ff ff    	jle    136f3 <main+0xdef>
   137b2:	48 8b 05 b7 5c 00 00 	mov    0x5cb7(%rip),%rax        # 19470 <g_1394>
   137b9:	25 ff ff 03 00       	and    $0x3ffff,%eax
   137be:	89 c1                	mov    %eax,%ecx
   137c0:	8b 45 fc             	mov    -0x4(%rbp),%eax
   137c3:	89 c2                	mov    %eax,%edx
   137c5:	48 8d 35 75 24 00 00 	lea    0x2475(%rip),%rsi        # 15c41 <g_2542+0xa31>
   137cc:	48 89 cf             	mov    %rcx,%rdi
   137cf:	e8 1f 5f ff ff       	callq  96f3 <transparent_crc>
   137d4:	0f b7 05 97 5c 00 00 	movzwl 0x5c97(%rip),%eax        # 19472 <g_1394+0x2>
   137db:	66 c1 e8 02          	shr    $0x2,%ax
   137df:	66 25 ff 07          	and    $0x7ff,%ax
   137e3:	0f b7 c0             	movzwl %ax,%eax
   137e6:	8b 55 fc             	mov    -0x4(%rbp),%edx
   137e9:	48 8d 35 5b 24 00 00 	lea    0x245b(%rip),%rsi        # 15c4b <g_2542+0xa3b>
   137f0:	48 89 c7             	mov    %rax,%rdi
   137f3:	e8 fb 5e ff ff       	callq  96f3 <transparent_crc>
   137f8:	8b 05 76 5c 00 00    	mov    0x5c76(%rip),%eax        # 19474 <g_1394+0x4>
   137fe:	c1 e0 08             	shl    $0x8,%eax
   13801:	c1 f8 08             	sar    $0x8,%eax
   13804:	48 98                	cltq   
   13806:	8b 55 fc             	mov    -0x4(%rbp),%edx
   13809:	48 8d 35 45 24 00 00 	lea    0x2445(%rip),%rsi        # 15c55 <g_2542+0xa45>
   13810:	48 89 c7             	mov    %rax,%rdi
   13813:	e8 db 5e ff ff       	callq  96f3 <transparent_crc>
   13818:	0f b7 05 59 5c 00 00 	movzwl 0x5c59(%rip),%eax        # 19478 <g_1394+0x8>
   1381f:	c1 e0 07             	shl    $0x7,%eax
   13822:	66 c1 f8 07          	sar    $0x7,%ax
   13826:	48 0f bf c0          	movswq %ax,%rax
   1382a:	8b 55 fc             	mov    -0x4(%rbp),%edx
   1382d:	48 8d 35 2b 24 00 00 	lea    0x242b(%rip),%rsi        # 15c5f <g_2542+0xa4f>
   13834:	48 89 c7             	mov    %rax,%rdi
   13837:	e8 b7 5e ff ff       	callq  96f3 <transparent_crc>
   1383c:	48 8b 05 35 5c 00 00 	mov    0x5c35(%rip),%rax        # 19478 <g_1394+0x8>
   13843:	48 c1 e8 09          	shr    $0x9,%rax
   13847:	66 25 ff 1f          	and    $0x1fff,%ax
   1384b:	0f b7 c0             	movzwl %ax,%eax
   1384e:	8b 55 fc             	mov    -0x4(%rbp),%edx
   13851:	48 8d 35 11 24 00 00 	lea    0x2411(%rip),%rsi        # 15c69 <g_2542+0xa59>
   13858:	48 89 c7             	mov    %rax,%rdi
   1385b:	e8 93 5e ff ff       	callq  96f3 <transparent_crc>
   13860:	0f b7 05 13 5c 00 00 	movzwl 0x5c13(%rip),%eax        # 1947a <g_1394+0xa>
   13867:	66 c1 e8 06          	shr    $0x6,%ax
   1386b:	80 e4 ff             	and    $0xff,%ah
   1386e:	0f b6 c0             	movzbl %al,%eax
   13871:	8b 55 fc             	mov    -0x4(%rbp),%edx
   13874:	48 8d 35 f8 23 00 00 	lea    0x23f8(%rip),%rsi        # 15c73 <g_2542+0xa63>
   1387b:	48 89 c7             	mov    %rax,%rdi
   1387e:	e8 70 5e ff ff       	callq  96f3 <transparent_crc>
   13883:	c7 45 f0 00 00 00 00 	movl   $0x0,-0x10(%rbp)
   1388a:	e9 fa 00 00 00       	jmpq   13989 <main+0x1085>
   1388f:	8b 45 f0             	mov    -0x10(%rbp),%eax
   13892:	48 98                	cltq   
   13894:	48 c1 e0 05          	shl    $0x5,%rax
   13898:	48 89 c2             	mov    %rax,%rdx
   1389b:	48 8d 05 de 5b 00 00 	lea    0x5bde(%rip),%rax        # 19480 <g_1519>
   138a2:	0f b7 04 02          	movzwl (%rdx,%rax,1),%eax
   138a6:	48 0f bf c0          	movswq %ax,%rax
   138aa:	8b 55 fc             	mov    -0x4(%rbp),%edx
   138ad:	48 8d 35 c9 23 00 00 	lea    0x23c9(%rip),%rsi        # 15c7d <g_2542+0xa6d>
   138b4:	48 89 c7             	mov    %rax,%rdi
   138b7:	e8 37 5e ff ff       	callq  96f3 <transparent_crc>
   138bc:	8b 45 f0             	mov    -0x10(%rbp),%eax
   138bf:	48 98                	cltq   
   138c1:	48 c1 e0 05          	shl    $0x5,%rax
   138c5:	48 89 c2             	mov    %rax,%rdx
   138c8:	48 8d 05 b9 5b 00 00 	lea    0x5bb9(%rip),%rax        # 19488 <g_1519+0x8>
   138cf:	48 8b 04 02          	mov    (%rdx,%rax,1),%rax
   138d3:	48 89 c1             	mov    %rax,%rcx
   138d6:	8b 45 fc             	mov    -0x4(%rbp),%eax
   138d9:	89 c2                	mov    %eax,%edx
   138db:	48 8d 35 a8 23 00 00 	lea    0x23a8(%rip),%rsi        # 15c8a <g_2542+0xa7a>
   138e2:	48 89 cf             	mov    %rcx,%rdi
   138e5:	e8 09 5e ff ff       	callq  96f3 <transparent_crc>
   138ea:	8b 45 f0             	mov    -0x10(%rbp),%eax
   138ed:	48 98                	cltq   
   138ef:	48 c1 e0 05          	shl    $0x5,%rax
   138f3:	48 89 c2             	mov    %rax,%rdx
   138f6:	48 8d 05 93 5b 00 00 	lea    0x5b93(%rip),%rax        # 19490 <g_1519+0x10>
   138fd:	8b 04 02             	mov    (%rdx,%rax,1),%eax
   13900:	48 98                	cltq   
   13902:	8b 55 fc             	mov    -0x4(%rbp),%edx
   13905:	48 8d 35 8b 23 00 00 	lea    0x238b(%rip),%rsi        # 15c97 <g_2542+0xa87>
   1390c:	48 89 c7             	mov    %rax,%rdi
   1390f:	e8 df 5d ff ff       	callq  96f3 <transparent_crc>
   13914:	8b 45 f0             	mov    -0x10(%rbp),%eax
   13917:	48 98                	cltq   
   13919:	48 c1 e0 05          	shl    $0x5,%rax
   1391d:	48 89 c2             	mov    %rax,%rdx
   13920:	48 8d 05 6d 5b 00 00 	lea    0x5b6d(%rip),%rax        # 19494 <g_1519+0x14>
   13927:	8b 04 02             	mov    (%rdx,%rax,1),%eax
   1392a:	89 c1                	mov    %eax,%ecx
   1392c:	8b 45 fc             	mov    -0x4(%rbp),%eax
   1392f:	89 c2                	mov    %eax,%edx
   13931:	48 8d 35 6c 23 00 00 	lea    0x236c(%rip),%rsi        # 15ca4 <g_2542+0xa94>
   13938:	48 89 cf             	mov    %rcx,%rdi
   1393b:	e8 b3 5d ff ff       	callq  96f3 <transparent_crc>
   13940:	8b 45 f0             	mov    -0x10(%rbp),%eax
   13943:	48 98                	cltq   
   13945:	48 c1 e0 05          	shl    $0x5,%rax
   13949:	48 89 c2             	mov    %rax,%rdx
   1394c:	48 8d 05 45 5b 00 00 	lea    0x5b45(%rip),%rax        # 19498 <g_1519+0x18>
   13953:	48 8b 04 02          	mov    (%rdx,%rax,1),%rax
   13957:	8b 55 fc             	mov    -0x4(%rbp),%edx
   1395a:	48 8d 35 50 23 00 00 	lea    0x2350(%rip),%rsi        # 15cb1 <g_2542+0xaa1>
   13961:	48 89 c7             	mov    %rax,%rdi
   13964:	e8 8a 5d ff ff       	callq  96f3 <transparent_crc>
   13969:	83 7d fc 00          	cmpl   $0x0,-0x4(%rbp)
   1396d:	74 16                	je     13985 <main+0x1081>
   1396f:	8b 45 f0             	mov    -0x10(%rbp),%eax
   13972:	89 c6                	mov    %eax,%esi
   13974:	48 8d 3d 2a 20 00 00 	lea    0x202a(%rip),%rdi        # 159a5 <g_2542+0x795>
   1397b:	b8 00 00 00 00       	mov    $0x0,%eax
   13980:	e8 fb 46 ff ff       	callq  8080 <printf@plt>
   13985:	83 45 f0 01          	addl   $0x1,-0x10(%rbp)
   13989:	83 7d f0 09          	cmpl   $0x9,-0x10(%rbp)
   1398d:	0f 8e fc fe ff ff    	jle    1388f <main+0xf8b>
   13993:	48 8b 05 26 5c 00 00 	mov    0x5c26(%rip),%rax        # 195c0 <g_1602>
   1399a:	25 ff ff 03 00       	and    $0x3ffff,%eax
   1399f:	89 c1                	mov    %eax,%ecx
   139a1:	8b 45 fc             	mov    -0x4(%rbp),%eax
   139a4:	89 c2                	mov    %eax,%edx
   139a6:	48 8d 35 11 23 00 00 	lea    0x2311(%rip),%rsi        # 15cbe <g_2542+0xaae>
   139ad:	48 89 cf             	mov    %rcx,%rdi
   139b0:	e8 3e 5d ff ff       	callq  96f3 <transparent_crc>
   139b5:	0f b7 05 06 5c 00 00 	movzwl 0x5c06(%rip),%eax        # 195c2 <g_1602+0x2>
   139bc:	66 c1 e8 02          	shr    $0x2,%ax
   139c0:	66 25 ff 07          	and    $0x7ff,%ax
   139c4:	0f b7 c0             	movzwl %ax,%eax
   139c7:	8b 55 fc             	mov    -0x4(%rbp),%edx
   139ca:	48 8d 35 f7 22 00 00 	lea    0x22f7(%rip),%rsi        # 15cc8 <g_2542+0xab8>
   139d1:	48 89 c7             	mov    %rax,%rdi
   139d4:	e8 1a 5d ff ff       	callq  96f3 <transparent_crc>
   139d9:	8b 05 e5 5b 00 00    	mov    0x5be5(%rip),%eax        # 195c4 <g_1602+0x4>
   139df:	c1 e0 08             	shl    $0x8,%eax
   139e2:	c1 f8 08             	sar    $0x8,%eax
   139e5:	48 98                	cltq   
   139e7:	8b 55 fc             	mov    -0x4(%rbp),%edx
   139ea:	48 8d 35 e1 22 00 00 	lea    0x22e1(%rip),%rsi        # 15cd2 <g_2542+0xac2>
   139f1:	48 89 c7             	mov    %rax,%rdi
   139f4:	e8 fa 5c ff ff       	callq  96f3 <transparent_crc>
   139f9:	0f b7 05 c8 5b 00 00 	movzwl 0x5bc8(%rip),%eax        # 195c8 <g_1602+0x8>
   13a00:	c1 e0 07             	shl    $0x7,%eax
   13a03:	66 c1 f8 07          	sar    $0x7,%ax
   13a07:	48 0f bf c0          	movswq %ax,%rax
   13a0b:	8b 55 fc             	mov    -0x4(%rbp),%edx
   13a0e:	48 8d 35 c7 22 00 00 	lea    0x22c7(%rip),%rsi        # 15cdc <g_2542+0xacc>
   13a15:	48 89 c7             	mov    %rax,%rdi
   13a18:	e8 d6 5c ff ff       	callq  96f3 <transparent_crc>
   13a1d:	48 8b 05 a4 5b 00 00 	mov    0x5ba4(%rip),%rax        # 195c8 <g_1602+0x8>
   13a24:	48 c1 e8 09          	shr    $0x9,%rax
   13a28:	66 25 ff 1f          	and    $0x1fff,%ax
   13a2c:	0f b7 c0             	movzwl %ax,%eax
   13a2f:	8b 55 fc             	mov    -0x4(%rbp),%edx
   13a32:	48 8d 35 ad 22 00 00 	lea    0x22ad(%rip),%rsi        # 15ce6 <g_2542+0xad6>
   13a39:	48 89 c7             	mov    %rax,%rdi
   13a3c:	e8 b2 5c ff ff       	callq  96f3 <transparent_crc>
   13a41:	0f b7 05 82 5b 00 00 	movzwl 0x5b82(%rip),%eax        # 195ca <g_1602+0xa>
   13a48:	66 c1 e8 06          	shr    $0x6,%ax
   13a4c:	80 e4 ff             	and    $0xff,%ah
   13a4f:	0f b6 c0             	movzbl %al,%eax
   13a52:	8b 55 fc             	mov    -0x4(%rbp),%edx
   13a55:	48 8d 35 94 22 00 00 	lea    0x2294(%rip),%rsi        # 15cf0 <g_2542+0xae0>
   13a5c:	48 89 c7             	mov    %rax,%rdi
   13a5f:	e8 8f 5c ff ff       	callq  96f3 <transparent_crc>
   13a64:	c7 45 f0 00 00 00 00 	movl   $0x0,-0x10(%rbp)
   13a6b:	e9 76 01 00 00       	jmpq   13be6 <main+0x12e2>
   13a70:	c7 45 f4 00 00 00 00 	movl   $0x0,-0xc(%rbp)
   13a77:	e9 5c 01 00 00       	jmpq   13bd8 <main+0x12d4>
   13a7c:	8b 45 f4             	mov    -0xc(%rbp),%eax
   13a7f:	48 63 c8             	movslq %eax,%rcx
   13a82:	8b 45 f0             	mov    -0x10(%rbp),%eax
   13a85:	48 63 d0             	movslq %eax,%rdx
   13a88:	48 89 d0             	mov    %rdx,%rax
   13a8b:	48 01 c0             	add    %rax,%rax
   13a8e:	48 01 d0             	add    %rdx,%rax
   13a91:	48 01 c8             	add    %rcx,%rax
   13a94:	48 c1 e0 05          	shl    $0x5,%rax
   13a98:	48 89 c2             	mov    %rax,%rdx
   13a9b:	48 8d 05 3e 5b 00 00 	lea    0x5b3e(%rip),%rax        # 195e0 <g_1619>
   13aa2:	0f b7 04 02          	movzwl (%rdx,%rax,1),%eax
   13aa6:	48 0f bf c0          	movswq %ax,%rax
   13aaa:	8b 55 fc             	mov    -0x4(%rbp),%edx
   13aad:	48 8d 35 46 22 00 00 	lea    0x2246(%rip),%rsi        # 15cfa <g_2542+0xaea>
   13ab4:	48 89 c7             	mov    %rax,%rdi
   13ab7:	e8 37 5c ff ff       	callq  96f3 <transparent_crc>
   13abc:	8b 45 f4             	mov    -0xc(%rbp),%eax
   13abf:	48 63 c8             	movslq %eax,%rcx
   13ac2:	8b 45 f0             	mov    -0x10(%rbp),%eax
   13ac5:	48 63 d0             	movslq %eax,%rdx
   13ac8:	48 89 d0             	mov    %rdx,%rax
   13acb:	48 01 c0             	add    %rax,%rax
   13ace:	48 01 d0             	add    %rdx,%rax
   13ad1:	48 01 c8             	add    %rcx,%rax
   13ad4:	48 c1 e0 05          	shl    $0x5,%rax
   13ad8:	48 89 c2             	mov    %rax,%rdx
   13adb:	48 8d 05 06 5b 00 00 	lea    0x5b06(%rip),%rax        # 195e8 <g_1619+0x8>
   13ae2:	48 8b 04 02          	mov    (%rdx,%rax,1),%rax
   13ae6:	48 89 c1             	mov    %rax,%rcx
   13ae9:	8b 45 fc             	mov    -0x4(%rbp),%eax
   13aec:	89 c2                	mov    %eax,%edx
   13aee:	48 8d 35 15 22 00 00 	lea    0x2215(%rip),%rsi        # 15d0a <g_2542+0xafa>
   13af5:	48 89 cf             	mov    %rcx,%rdi
   13af8:	e8 f6 5b ff ff       	callq  96f3 <transparent_crc>
   13afd:	8b 45 f4             	mov    -0xc(%rbp),%eax
   13b00:	48 63 c8             	movslq %eax,%rcx
   13b03:	8b 45 f0             	mov    -0x10(%rbp),%eax
   13b06:	48 63 d0             	movslq %eax,%rdx
   13b09:	48 89 d0             	mov    %rdx,%rax
   13b0c:	48 01 c0             	add    %rax,%rax
   13b0f:	48 01 d0             	add    %rdx,%rax
   13b12:	48 01 c8             	add    %rcx,%rax
   13b15:	48 c1 e0 05          	shl    $0x5,%rax
   13b19:	48 89 c2             	mov    %rax,%rdx
   13b1c:	48 8d 05 cd 5a 00 00 	lea    0x5acd(%rip),%rax        # 195f0 <g_1619+0x10>
   13b23:	8b 04 02             	mov    (%rdx,%rax,1),%eax
   13b26:	48 98                	cltq   
   13b28:	8b 55 fc             	mov    -0x4(%rbp),%edx
   13b2b:	48 8d 35 e8 21 00 00 	lea    0x21e8(%rip),%rsi        # 15d1a <g_2542+0xb0a>
   13b32:	48 89 c7             	mov    %rax,%rdi
   13b35:	e8 b9 5b ff ff       	callq  96f3 <transparent_crc>
   13b3a:	8b 45 f4             	mov    -0xc(%rbp),%eax
   13b3d:	48 63 c8             	movslq %eax,%rcx
   13b40:	8b 45 f0             	mov    -0x10(%rbp),%eax
   13b43:	48 63 d0             	movslq %eax,%rdx
   13b46:	48 89 d0             	mov    %rdx,%rax
   13b49:	48 01 c0             	add    %rax,%rax
   13b4c:	48 01 d0             	add    %rdx,%rax
   13b4f:	48 01 c8             	add    %rcx,%rax
   13b52:	48 c1 e0 05          	shl    $0x5,%rax
   13b56:	48 89 c2             	mov    %rax,%rdx
   13b59:	48 8d 05 94 5a 00 00 	lea    0x5a94(%rip),%rax        # 195f4 <g_1619+0x14>
   13b60:	8b 04 02             	mov    (%rdx,%rax,1),%eax
   13b63:	89 c1                	mov    %eax,%ecx
   13b65:	8b 45 fc             	mov    -0x4(%rbp),%eax
   13b68:	89 c2                	mov    %eax,%edx
   13b6a:	48 8d 35 b9 21 00 00 	lea    0x21b9(%rip),%rsi        # 15d2a <g_2542+0xb1a>
   13b71:	48 89 cf             	mov    %rcx,%rdi
   13b74:	e8 7a 5b ff ff       	callq  96f3 <transparent_crc>
   13b79:	8b 45 f4             	mov    -0xc(%rbp),%eax
   13b7c:	48 63 c8             	movslq %eax,%rcx
   13b7f:	8b 45 f0             	mov    -0x10(%rbp),%eax
   13b82:	48 63 d0             	movslq %eax,%rdx
   13b85:	48 89 d0             	mov    %rdx,%rax
   13b88:	48 01 c0             	add    %rax,%rax
   13b8b:	48 01 d0             	add    %rdx,%rax
   13b8e:	48 01 c8             	add    %rcx,%rax
   13b91:	48 c1 e0 05          	shl    $0x5,%rax
   13b95:	48 89 c2             	mov    %rax,%rdx
   13b98:	48 8d 05 59 5a 00 00 	lea    0x5a59(%rip),%rax        # 195f8 <g_1619+0x18>
   13b9f:	48 8b 04 02          	mov    (%rdx,%rax,1),%rax
   13ba3:	8b 55 fc             	mov    -0x4(%rbp),%edx
   13ba6:	48 8d 35 8d 21 00 00 	lea    0x218d(%rip),%rsi        # 15d3a <g_2542+0xb2a>
   13bad:	48 89 c7             	mov    %rax,%rdi
   13bb0:	e8 3e 5b ff ff       	callq  96f3 <transparent_crc>
   13bb5:	83 7d fc 00          	cmpl   $0x0,-0x4(%rbp)
   13bb9:	74 19                	je     13bd4 <main+0x12d0>
   13bbb:	8b 55 f4             	mov    -0xc(%rbp),%edx
   13bbe:	8b 45 f0             	mov    -0x10(%rbp),%eax
   13bc1:	89 c6                	mov    %eax,%esi
   13bc3:	48 8d 3d be 1d 00 00 	lea    0x1dbe(%rip),%rdi        # 15988 <g_2542+0x778>
   13bca:	b8 00 00 00 00       	mov    $0x0,%eax
   13bcf:	e8 ac 44 ff ff       	callq  8080 <printf@plt>
   13bd4:	83 45 f4 01          	addl   $0x1,-0xc(%rbp)
   13bd8:	83 7d f4 02          	cmpl   $0x2,-0xc(%rbp)
   13bdc:	0f 8e 9a fe ff ff    	jle    13a7c <main+0x1178>
   13be2:	83 45 f0 01          	addl   $0x1,-0x10(%rbp)
   13be6:	83 7d f0 07          	cmpl   $0x7,-0x10(%rbp)
   13bea:	0f 8e 80 fe ff ff    	jle    13a70 <main+0x116c>
   13bf0:	0f b7 05 e9 5c 00 00 	movzwl 0x5ce9(%rip),%eax        # 198e0 <g_1723>
   13bf7:	48 0f bf c0          	movswq %ax,%rax
   13bfb:	8b 55 fc             	mov    -0x4(%rbp),%edx
   13bfe:	48 8d 35 45 21 00 00 	lea    0x2145(%rip),%rsi        # 15d4a <g_2542+0xb3a>
   13c05:	48 89 c7             	mov    %rax,%rdi
   13c08:	e8 e6 5a ff ff       	callq  96f3 <transparent_crc>
   13c0d:	48 8b 05 ec 15 00 00 	mov    0x15ec(%rip),%rax        # 15200 <g_1871>
   13c14:	25 ff ff 03 00       	and    $0x3ffff,%eax
   13c19:	89 c1                	mov    %eax,%ecx
   13c1b:	8b 45 fc             	mov    -0x4(%rbp),%eax
   13c1e:	89 c2                	mov    %eax,%edx
   13c20:	48 8d 35 2a 21 00 00 	lea    0x212a(%rip),%rsi        # 15d51 <g_2542+0xb41>
   13c27:	48 89 cf             	mov    %rcx,%rdi
   13c2a:	e8 c4 5a ff ff       	callq  96f3 <transparent_crc>
   13c2f:	b8 13 00 00 00       	mov    $0x13,%eax
   13c34:	0f b7 c0             	movzwl %ax,%eax
   13c37:	8b 55 fc             	mov    -0x4(%rbp),%edx
   13c3a:	48 8d 35 1a 21 00 00 	lea    0x211a(%rip),%rsi        # 15d5b <g_2542+0xb4b>
   13c41:	48 89 c7             	mov    %rax,%rdi
   13c44:	e8 aa 5a ff ff       	callq  96f3 <transparent_crc>
   13c49:	b8 1d 0e 00 00       	mov    $0xe1d,%eax
   13c4e:	48 98                	cltq   
   13c50:	8b 55 fc             	mov    -0x4(%rbp),%edx
   13c53:	48 8d 35 0b 21 00 00 	lea    0x210b(%rip),%rsi        # 15d65 <g_2542+0xb55>
   13c5a:	48 89 c7             	mov    %rax,%rdi
   13c5d:	e8 91 5a ff ff       	callq  96f3 <transparent_crc>
   13c62:	b8 13 00 00 00       	mov    $0x13,%eax
   13c67:	48 0f bf c0          	movswq %ax,%rax
   13c6b:	8b 55 fc             	mov    -0x4(%rbp),%edx
   13c6e:	48 8d 35 fa 20 00 00 	lea    0x20fa(%rip),%rsi        # 15d6f <g_2542+0xb5f>
   13c75:	48 89 c7             	mov    %rax,%rdi
   13c78:	e8 76 5a ff ff       	callq  96f3 <transparent_crc>
   13c7d:	48 8b 05 84 15 00 00 	mov    0x1584(%rip),%rax        # 15208 <g_1871+0x8>
   13c84:	48 c1 e8 09          	shr    $0x9,%rax
   13c88:	66 25 ff 1f          	and    $0x1fff,%ax
   13c8c:	0f b7 c0             	movzwl %ax,%eax
   13c8f:	8b 55 fc             	mov    -0x4(%rbp),%edx
   13c92:	48 8d 35 e0 20 00 00 	lea    0x20e0(%rip),%rsi        # 15d79 <g_2542+0xb69>
   13c99:	48 89 c7             	mov    %rax,%rdi
   13c9c:	e8 52 5a ff ff       	callq  96f3 <transparent_crc>
   13ca1:	b8 0c 00 00 00       	mov    $0xc,%eax
   13ca6:	0f b6 c0             	movzbl %al,%eax
   13ca9:	8b 55 fc             	mov    -0x4(%rbp),%edx
   13cac:	48 8d 35 d0 20 00 00 	lea    0x20d0(%rip),%rsi        # 15d83 <g_2542+0xb73>
   13cb3:	48 89 c7             	mov    %rax,%rdi
   13cb6:	e8 38 5a ff ff       	callq  96f3 <transparent_crc>
   13cbb:	48 8b 05 9e 5c 00 00 	mov    0x5c9e(%rip),%rax        # 19960 <g_2059>
   13cc2:	25 ff ff 03 00       	and    $0x3ffff,%eax
   13cc7:	89 c1                	mov    %eax,%ecx
   13cc9:	8b 45 fc             	mov    -0x4(%rbp),%eax
   13ccc:	89 c2                	mov    %eax,%edx
   13cce:	48 8d 35 b8 20 00 00 	lea    0x20b8(%rip),%rsi        # 15d8d <g_2542+0xb7d>
   13cd5:	48 89 cf             	mov    %rcx,%rdi
   13cd8:	e8 16 5a ff ff       	callq  96f3 <transparent_crc>
   13cdd:	0f b7 05 7e 5c 00 00 	movzwl 0x5c7e(%rip),%eax        # 19962 <g_2059+0x2>
   13ce4:	66 c1 e8 02          	shr    $0x2,%ax
   13ce8:	66 25 ff 07          	and    $0x7ff,%ax
   13cec:	0f b7 c0             	movzwl %ax,%eax
   13cef:	8b 55 fc             	mov    -0x4(%rbp),%edx
   13cf2:	48 8d 35 9e 20 00 00 	lea    0x209e(%rip),%rsi        # 15d97 <g_2542+0xb87>
   13cf9:	48 89 c7             	mov    %rax,%rdi
   13cfc:	e8 f2 59 ff ff       	callq  96f3 <transparent_crc>
   13d01:	8b 05 5d 5c 00 00    	mov    0x5c5d(%rip),%eax        # 19964 <g_2059+0x4>
   13d07:	c1 e0 08             	shl    $0x8,%eax
   13d0a:	c1 f8 08             	sar    $0x8,%eax
   13d0d:	48 98                	cltq   
   13d0f:	8b 55 fc             	mov    -0x4(%rbp),%edx
   13d12:	48 8d 35 88 20 00 00 	lea    0x2088(%rip),%rsi        # 15da1 <g_2542+0xb91>
   13d19:	48 89 c7             	mov    %rax,%rdi
   13d1c:	e8 d2 59 ff ff       	callq  96f3 <transparent_crc>
   13d21:	0f b7 05 40 5c 00 00 	movzwl 0x5c40(%rip),%eax        # 19968 <g_2059+0x8>
   13d28:	c1 e0 07             	shl    $0x7,%eax
   13d2b:	66 c1 f8 07          	sar    $0x7,%ax
   13d2f:	48 0f bf c0          	movswq %ax,%rax
   13d33:	8b 55 fc             	mov    -0x4(%rbp),%edx
   13d36:	48 8d 35 6e 20 00 00 	lea    0x206e(%rip),%rsi        # 15dab <g_2542+0xb9b>
   13d3d:	48 89 c7             	mov    %rax,%rdi
   13d40:	e8 ae 59 ff ff       	callq  96f3 <transparent_crc>
   13d45:	48 8b 05 1c 5c 00 00 	mov    0x5c1c(%rip),%rax        # 19968 <g_2059+0x8>
   13d4c:	48 c1 e8 09          	shr    $0x9,%rax
   13d50:	66 25 ff 1f          	and    $0x1fff,%ax
   13d54:	0f b7 c0             	movzwl %ax,%eax
   13d57:	8b 55 fc             	mov    -0x4(%rbp),%edx
   13d5a:	48 8d 35 54 20 00 00 	lea    0x2054(%rip),%rsi        # 15db5 <g_2542+0xba5>
   13d61:	48 89 c7             	mov    %rax,%rdi
   13d64:	e8 8a 59 ff ff       	callq  96f3 <transparent_crc>
   13d69:	0f b7 05 fa 5b 00 00 	movzwl 0x5bfa(%rip),%eax        # 1996a <g_2059+0xa>
   13d70:	66 c1 e8 06          	shr    $0x6,%ax
   13d74:	80 e4 ff             	and    $0xff,%ah
   13d77:	0f b6 c0             	movzbl %al,%eax
   13d7a:	8b 55 fc             	mov    -0x4(%rbp),%edx
   13d7d:	48 8d 35 3b 20 00 00 	lea    0x203b(%rip),%rsi        # 15dbf <g_2542+0xbaf>
   13d84:	48 89 c7             	mov    %rax,%rdi
   13d87:	e8 67 59 ff ff       	callq  96f3 <transparent_crc>
   13d8c:	c7 45 f0 00 00 00 00 	movl   $0x0,-0x10(%rbp)
   13d93:	eb 69                	jmp    13dfe <main+0x14fa>
   13d95:	c7 45 f4 00 00 00 00 	movl   $0x0,-0xc(%rbp)
   13d9c:	eb 56                	jmp    13df4 <main+0x14f0>
   13d9e:	8b 45 f4             	mov    -0xc(%rbp),%eax
   13da1:	48 98                	cltq   
   13da3:	8b 55 f0             	mov    -0x10(%rbp),%edx
   13da6:	48 63 d2             	movslq %edx,%rdx
   13da9:	48 01 d2             	add    %rdx,%rdx
   13dac:	48 01 c2             	add    %rax,%rdx
   13daf:	48 8d 05 b6 5b 00 00 	lea    0x5bb6(%rip),%rax        # 1996c <g_2062>
   13db6:	48 01 d0             	add    %rdx,%rax
   13db9:	0f b6 00             	movzbl (%rax),%eax
   13dbc:	0f b6 c0             	movzbl %al,%eax
   13dbf:	8b 55 fc             	mov    -0x4(%rbp),%edx
   13dc2:	48 8d 35 00 20 00 00 	lea    0x2000(%rip),%rsi        # 15dc9 <g_2542+0xbb9>
   13dc9:	48 89 c7             	mov    %rax,%rdi
   13dcc:	e8 22 59 ff ff       	callq  96f3 <transparent_crc>
   13dd1:	83 7d fc 00          	cmpl   $0x0,-0x4(%rbp)
   13dd5:	74 19                	je     13df0 <main+0x14ec>
   13dd7:	8b 55 f4             	mov    -0xc(%rbp),%edx
   13dda:	8b 45 f0             	mov    -0x10(%rbp),%eax
   13ddd:	89 c6                	mov    %eax,%esi
   13ddf:	48 8d 3d a2 1b 00 00 	lea    0x1ba2(%rip),%rdi        # 15988 <g_2542+0x778>
   13de6:	b8 00 00 00 00       	mov    $0x0,%eax
   13deb:	e8 90 42 ff ff       	callq  8080 <printf@plt>
   13df0:	83 45 f4 01          	addl   $0x1,-0xc(%rbp)
   13df4:	83 7d f4 01          	cmpl   $0x1,-0xc(%rbp)
   13df8:	7e a4                	jle    13d9e <main+0x149a>
   13dfa:	83 45 f0 01          	addl   $0x1,-0x10(%rbp)
   13dfe:	83 7d f0 00          	cmpl   $0x0,-0x10(%rbp)
   13e02:	7e 91                	jle    13d95 <main+0x1491>
   13e04:	8b 05 66 5b 00 00    	mov    0x5b66(%rip),%eax        # 19970 <g_2072>
   13e0a:	48 98                	cltq   
   13e0c:	8b 55 fc             	mov    -0x4(%rbp),%edx
   13e0f:	48 8d 35 c0 1f 00 00 	lea    0x1fc0(%rip),%rsi        # 15dd6 <g_2542+0xbc6>
   13e16:	48 89 c7             	mov    %rax,%rdi
   13e19:	e8 d5 58 ff ff       	callq  96f3 <transparent_crc>
   13e1e:	0f b7 05 5b 5b 00 00 	movzwl 0x5b5b(%rip),%eax        # 19980 <g_2083>
   13e25:	48 0f bf c0          	movswq %ax,%rax
   13e29:	8b 55 fc             	mov    -0x4(%rbp),%edx
   13e2c:	48 8d 35 aa 1f 00 00 	lea    0x1faa(%rip),%rsi        # 15ddd <g_2542+0xbcd>
   13e33:	48 89 c7             	mov    %rax,%rdi
   13e36:	e8 b8 58 ff ff       	callq  96f3 <transparent_crc>
   13e3b:	48 8b 05 46 5b 00 00 	mov    0x5b46(%rip),%rax        # 19988 <g_2083+0x8>
   13e42:	48 89 c1             	mov    %rax,%rcx
   13e45:	8b 45 fc             	mov    -0x4(%rbp),%eax
   13e48:	89 c2                	mov    %eax,%edx
   13e4a:	48 8d 35 96 1f 00 00 	lea    0x1f96(%rip),%rsi        # 15de7 <g_2542+0xbd7>
   13e51:	48 89 cf             	mov    %rcx,%rdi
   13e54:	e8 9a 58 ff ff       	callq  96f3 <transparent_crc>
   13e59:	8b 05 31 5b 00 00    	mov    0x5b31(%rip),%eax        # 19990 <g_2083+0x10>
   13e5f:	48 98                	cltq   
   13e61:	8b 55 fc             	mov    -0x4(%rbp),%edx
   13e64:	48 8d 35 86 1f 00 00 	lea    0x1f86(%rip),%rsi        # 15df1 <g_2542+0xbe1>
   13e6b:	48 89 c7             	mov    %rax,%rdi
   13e6e:	e8 80 58 ff ff       	callq  96f3 <transparent_crc>
   13e73:	8b 05 1b 5b 00 00    	mov    0x5b1b(%rip),%eax        # 19994 <g_2083+0x14>
   13e79:	89 c1                	mov    %eax,%ecx
   13e7b:	8b 45 fc             	mov    -0x4(%rbp),%eax
   13e7e:	89 c2                	mov    %eax,%edx
   13e80:	48 8d 35 74 1f 00 00 	lea    0x1f74(%rip),%rsi        # 15dfb <g_2542+0xbeb>
   13e87:	48 89 cf             	mov    %rcx,%rdi
   13e8a:	e8 64 58 ff ff       	callq  96f3 <transparent_crc>
   13e8f:	48 8b 05 02 5b 00 00 	mov    0x5b02(%rip),%rax        # 19998 <g_2083+0x18>
   13e96:	8b 55 fc             	mov    -0x4(%rbp),%edx
   13e99:	48 8d 35 65 1f 00 00 	lea    0x1f65(%rip),%rsi        # 15e05 <g_2542+0xbf5>
   13ea0:	48 89 c7             	mov    %rax,%rdi
   13ea3:	e8 4b 58 ff ff       	callq  96f3 <transparent_crc>
   13ea8:	0f b7 05 f1 5a 00 00 	movzwl 0x5af1(%rip),%eax        # 199a0 <g_2119>
   13eaf:	48 0f bf c0          	movswq %ax,%rax
   13eb3:	8b 55 fc             	mov    -0x4(%rbp),%edx
   13eb6:	48 8d 35 52 1f 00 00 	lea    0x1f52(%rip),%rsi        # 15e0f <g_2542+0xbff>
   13ebd:	48 89 c7             	mov    %rax,%rdi
   13ec0:	e8 2e 58 ff ff       	callq  96f3 <transparent_crc>
   13ec5:	48 8b 05 dc 5a 00 00 	mov    0x5adc(%rip),%rax        # 199a8 <g_2119+0x8>
   13ecc:	48 89 c1             	mov    %rax,%rcx
   13ecf:	8b 45 fc             	mov    -0x4(%rbp),%eax
   13ed2:	89 c2                	mov    %eax,%edx
   13ed4:	48 8d 35 3e 1f 00 00 	lea    0x1f3e(%rip),%rsi        # 15e19 <g_2542+0xc09>
   13edb:	48 89 cf             	mov    %rcx,%rdi
   13ede:	e8 10 58 ff ff       	callq  96f3 <transparent_crc>
   13ee3:	8b 05 c7 5a 00 00    	mov    0x5ac7(%rip),%eax        # 199b0 <g_2119+0x10>
   13ee9:	48 98                	cltq   
   13eeb:	8b 55 fc             	mov    -0x4(%rbp),%edx
   13eee:	48 8d 35 2e 1f 00 00 	lea    0x1f2e(%rip),%rsi        # 15e23 <g_2542+0xc13>
   13ef5:	48 89 c7             	mov    %rax,%rdi
   13ef8:	e8 f6 57 ff ff       	callq  96f3 <transparent_crc>
   13efd:	8b 05 b1 5a 00 00    	mov    0x5ab1(%rip),%eax        # 199b4 <g_2119+0x14>
   13f03:	89 c1                	mov    %eax,%ecx
   13f05:	8b 45 fc             	mov    -0x4(%rbp),%eax
   13f08:	89 c2                	mov    %eax,%edx
   13f0a:	48 8d 35 1c 1f 00 00 	lea    0x1f1c(%rip),%rsi        # 15e2d <g_2542+0xc1d>
   13f11:	48 89 cf             	mov    %rcx,%rdi
   13f14:	e8 da 57 ff ff       	callq  96f3 <transparent_crc>
   13f19:	48 8b 05 98 5a 00 00 	mov    0x5a98(%rip),%rax        # 199b8 <g_2119+0x18>
   13f20:	8b 55 fc             	mov    -0x4(%rbp),%edx
   13f23:	48 8d 35 0d 1f 00 00 	lea    0x1f0d(%rip),%rsi        # 15e37 <g_2542+0xc27>
   13f2a:	48 89 c7             	mov    %rax,%rdi
   13f2d:	e8 c1 57 ff ff       	callq  96f3 <transparent_crc>
   13f32:	48 8b 05 87 5a 00 00 	mov    0x5a87(%rip),%rax        # 199c0 <g_2137>
   13f39:	25 ff ff 03 00       	and    $0x3ffff,%eax
   13f3e:	89 c1                	mov    %eax,%ecx
   13f40:	8b 45 fc             	mov    -0x4(%rbp),%eax
   13f43:	89 c2                	mov    %eax,%edx
   13f45:	48 8d 35 f5 1e 00 00 	lea    0x1ef5(%rip),%rsi        # 15e41 <g_2542+0xc31>
   13f4c:	48 89 cf             	mov    %rcx,%rdi
   13f4f:	e8 9f 57 ff ff       	callq  96f3 <transparent_crc>
   13f54:	0f b7 05 67 5a 00 00 	movzwl 0x5a67(%rip),%eax        # 199c2 <g_2137+0x2>
   13f5b:	66 c1 e8 02          	shr    $0x2,%ax
   13f5f:	66 25 ff 07          	and    $0x7ff,%ax
   13f63:	0f b7 c0             	movzwl %ax,%eax
   13f66:	8b 55 fc             	mov    -0x4(%rbp),%edx
   13f69:	48 8d 35 db 1e 00 00 	lea    0x1edb(%rip),%rsi        # 15e4b <g_2542+0xc3b>
   13f70:	48 89 c7             	mov    %rax,%rdi
   13f73:	e8 7b 57 ff ff       	callq  96f3 <transparent_crc>
   13f78:	8b 05 46 5a 00 00    	mov    0x5a46(%rip),%eax        # 199c4 <g_2137+0x4>
   13f7e:	c1 e0 08             	shl    $0x8,%eax
   13f81:	c1 f8 08             	sar    $0x8,%eax
   13f84:	48 98                	cltq   
   13f86:	8b 55 fc             	mov    -0x4(%rbp),%edx
   13f89:	48 8d 35 c5 1e 00 00 	lea    0x1ec5(%rip),%rsi        # 15e55 <g_2542+0xc45>
   13f90:	48 89 c7             	mov    %rax,%rdi
   13f93:	e8 5b 57 ff ff       	callq  96f3 <transparent_crc>
   13f98:	0f b7 05 29 5a 00 00 	movzwl 0x5a29(%rip),%eax        # 199c8 <g_2137+0x8>
   13f9f:	c1 e0 07             	shl    $0x7,%eax
   13fa2:	66 c1 f8 07          	sar    $0x7,%ax
   13fa6:	48 0f bf c0          	movswq %ax,%rax
   13faa:	8b 55 fc             	mov    -0x4(%rbp),%edx
   13fad:	48 8d 35 ab 1e 00 00 	lea    0x1eab(%rip),%rsi        # 15e5f <g_2542+0xc4f>
   13fb4:	48 89 c7             	mov    %rax,%rdi
   13fb7:	e8 37 57 ff ff       	callq  96f3 <transparent_crc>
   13fbc:	48 8b 05 05 5a 00 00 	mov    0x5a05(%rip),%rax        # 199c8 <g_2137+0x8>
   13fc3:	48 c1 e8 09          	shr    $0x9,%rax
   13fc7:	66 25 ff 1f          	and    $0x1fff,%ax
   13fcb:	0f b7 c0             	movzwl %ax,%eax
   13fce:	8b 55 fc             	mov    -0x4(%rbp),%edx
   13fd1:	48 8d 35 91 1e 00 00 	lea    0x1e91(%rip),%rsi        # 15e69 <g_2542+0xc59>
   13fd8:	48 89 c7             	mov    %rax,%rdi
   13fdb:	e8 13 57 ff ff       	callq  96f3 <transparent_crc>
   13fe0:	0f b7 05 e3 59 00 00 	movzwl 0x59e3(%rip),%eax        # 199ca <g_2137+0xa>
   13fe7:	66 c1 e8 06          	shr    $0x6,%ax
   13feb:	80 e4 ff             	and    $0xff,%ah
   13fee:	0f b6 c0             	movzbl %al,%eax
   13ff1:	8b 55 fc             	mov    -0x4(%rbp),%edx
   13ff4:	48 8d 35 78 1e 00 00 	lea    0x1e78(%rip),%rsi        # 15e73 <g_2542+0xc63>
   13ffb:	48 89 c7             	mov    %rax,%rdi
   13ffe:	e8 f0 56 ff ff       	callq  96f3 <transparent_crc>
   14003:	c7 45 f0 00 00 00 00 	movl   $0x0,-0x10(%rbp)
   1400a:	eb 69                	jmp    14075 <main+0x1771>
   1400c:	c7 45 f4 00 00 00 00 	movl   $0x0,-0xc(%rbp)
   14013:	eb 56                	jmp    1406b <main+0x1767>
   14015:	8b 45 f4             	mov    -0xc(%rbp),%eax
   14018:	48 98                	cltq   
   1401a:	8b 55 f0             	mov    -0x10(%rbp),%edx
   1401d:	48 63 d2             	movslq %edx,%rdx
   14020:	48 01 d2             	add    %rdx,%rdx
   14023:	48 01 c2             	add    %rax,%rdx
   14026:	48 8d 05 a3 59 00 00 	lea    0x59a3(%rip),%rax        # 199d0 <g_2140>
   1402d:	48 01 d0             	add    %rdx,%rax
   14030:	0f b6 00             	movzbl (%rax),%eax
   14033:	0f b6 c0             	movzbl %al,%eax
   14036:	8b 55 fc             	mov    -0x4(%rbp),%edx
   14039:	48 8d 35 3d 1e 00 00 	lea    0x1e3d(%rip),%rsi        # 15e7d <g_2542+0xc6d>
   14040:	48 89 c7             	mov    %rax,%rdi
   14043:	e8 ab 56 ff ff       	callq  96f3 <transparent_crc>
   14048:	83 7d fc 00          	cmpl   $0x0,-0x4(%rbp)
   1404c:	74 19                	je     14067 <main+0x1763>
   1404e:	8b 55 f4             	mov    -0xc(%rbp),%edx
   14051:	8b 45 f0             	mov    -0x10(%rbp),%eax
   14054:	89 c6                	mov    %eax,%esi
   14056:	48 8d 3d 2b 19 00 00 	lea    0x192b(%rip),%rdi        # 15988 <g_2542+0x778>
   1405d:	b8 00 00 00 00       	mov    $0x0,%eax
   14062:	e8 19 40 ff ff       	callq  8080 <printf@plt>
   14067:	83 45 f4 01          	addl   $0x1,-0xc(%rbp)
   1406b:	83 7d f4 01          	cmpl   $0x1,-0xc(%rbp)
   1406f:	7e a4                	jle    14015 <main+0x1711>
   14071:	83 45 f0 01          	addl   $0x1,-0x10(%rbp)
   14075:	83 7d f0 04          	cmpl   $0x4,-0x10(%rbp)
   14079:	7e 91                	jle    1400c <main+0x1708>
   1407b:	8b 05 5b 59 00 00    	mov    0x595b(%rip),%eax        # 199dc <g_2152>
   14081:	48 98                	cltq   
   14083:	8b 55 fc             	mov    -0x4(%rbp),%edx
   14086:	48 8d 35 fd 1d 00 00 	lea    0x1dfd(%rip),%rsi        # 15e8a <g_2542+0xc7a>
   1408d:	48 89 c7             	mov    %rax,%rdi
   14090:	e8 5e 56 ff ff       	callq  96f3 <transparent_crc>
   14095:	0f b7 05 44 59 00 00 	movzwl 0x5944(%rip),%eax        # 199e0 <g_2198>
   1409c:	48 0f bf c0          	movswq %ax,%rax
   140a0:	8b 55 fc             	mov    -0x4(%rbp),%edx
   140a3:	48 8d 35 e7 1d 00 00 	lea    0x1de7(%rip),%rsi        # 15e91 <g_2542+0xc81>
   140aa:	48 89 c7             	mov    %rax,%rdi
   140ad:	e8 41 56 ff ff       	callq  96f3 <transparent_crc>
   140b2:	48 8b 05 2f 59 00 00 	mov    0x592f(%rip),%rax        # 199e8 <g_2198+0x8>
   140b9:	48 89 c1             	mov    %rax,%rcx
   140bc:	8b 45 fc             	mov    -0x4(%rbp),%eax
   140bf:	89 c2                	mov    %eax,%edx
   140c1:	48 8d 35 d3 1d 00 00 	lea    0x1dd3(%rip),%rsi        # 15e9b <g_2542+0xc8b>
   140c8:	48 89 cf             	mov    %rcx,%rdi
   140cb:	e8 23 56 ff ff       	callq  96f3 <transparent_crc>
   140d0:	8b 05 1a 59 00 00    	mov    0x591a(%rip),%eax        # 199f0 <g_2198+0x10>
   140d6:	48 98                	cltq   
   140d8:	8b 55 fc             	mov    -0x4(%rbp),%edx
   140db:	48 8d 35 c3 1d 00 00 	lea    0x1dc3(%rip),%rsi        # 15ea5 <g_2542+0xc95>
   140e2:	48 89 c7             	mov    %rax,%rdi
   140e5:	e8 09 56 ff ff       	callq  96f3 <transparent_crc>
   140ea:	8b 05 04 59 00 00    	mov    0x5904(%rip),%eax        # 199f4 <g_2198+0x14>
   140f0:	89 c1                	mov    %eax,%ecx
   140f2:	8b 45 fc             	mov    -0x4(%rbp),%eax
   140f5:	89 c2                	mov    %eax,%edx
   140f7:	48 8d 35 b1 1d 00 00 	lea    0x1db1(%rip),%rsi        # 15eaf <g_2542+0xc9f>
   140fe:	48 89 cf             	mov    %rcx,%rdi
   14101:	e8 ed 55 ff ff       	callq  96f3 <transparent_crc>
   14106:	48 8b 05 eb 58 00 00 	mov    0x58eb(%rip),%rax        # 199f8 <g_2198+0x18>
   1410d:	8b 55 fc             	mov    -0x4(%rbp),%edx
   14110:	48 8d 35 a2 1d 00 00 	lea    0x1da2(%rip),%rsi        # 15eb9 <g_2542+0xca9>
   14117:	48 89 c7             	mov    %rax,%rdi
   1411a:	e8 d4 55 ff ff       	callq  96f3 <transparent_crc>
   1411f:	8b 05 db 58 00 00    	mov    0x58db(%rip),%eax        # 19a00 <g_2363>
   14125:	89 c1                	mov    %eax,%ecx
   14127:	8b 45 fc             	mov    -0x4(%rbp),%eax
   1412a:	89 c2                	mov    %eax,%edx
   1412c:	48 8d 35 90 1d 00 00 	lea    0x1d90(%rip),%rsi        # 15ec3 <g_2542+0xcb3>
   14133:	48 89 cf             	mov    %rcx,%rdi
   14136:	e8 b8 55 ff ff       	callq  96f3 <transparent_crc>
   1413b:	0f b6 05 c2 58 00 00 	movzbl 0x58c2(%rip),%eax        # 19a04 <g_2398>
   14142:	48 0f be c0          	movsbq %al,%rax
   14146:	8b 55 fc             	mov    -0x4(%rbp),%edx
   14149:	48 8d 35 7a 1d 00 00 	lea    0x1d7a(%rip),%rsi        # 15eca <g_2542+0xcba>
   14150:	48 89 c7             	mov    %rax,%rdi
   14153:	e8 9b 55 ff ff       	callq  96f3 <transparent_crc>
   14158:	48 8b 05 a9 58 00 00 	mov    0x58a9(%rip),%rax        # 19a08 <g_2459>
   1415f:	25 ff ff 03 00       	and    $0x3ffff,%eax
   14164:	89 c1                	mov    %eax,%ecx
   14166:	8b 45 fc             	mov    -0x4(%rbp),%eax
   14169:	89 c2                	mov    %eax,%edx
   1416b:	48 8d 35 5f 1d 00 00 	lea    0x1d5f(%rip),%rsi        # 15ed1 <g_2542+0xcc1>
   14172:	48 89 cf             	mov    %rcx,%rdi
   14175:	e8 79 55 ff ff       	callq  96f3 <transparent_crc>
   1417a:	0f b7 05 89 58 00 00 	movzwl 0x5889(%rip),%eax        # 19a0a <g_2459+0x2>
   14181:	66 c1 e8 02          	shr    $0x2,%ax
   14185:	66 25 ff 07          	and    $0x7ff,%ax
   14189:	0f b7 c0             	movzwl %ax,%eax
   1418c:	8b 55 fc             	mov    -0x4(%rbp),%edx
   1418f:	48 8d 35 45 1d 00 00 	lea    0x1d45(%rip),%rsi        # 15edb <g_2542+0xccb>
   14196:	48 89 c7             	mov    %rax,%rdi
   14199:	e8 55 55 ff ff       	callq  96f3 <transparent_crc>
   1419e:	8b 05 68 58 00 00    	mov    0x5868(%rip),%eax        # 19a0c <g_2459+0x4>
   141a4:	c1 e0 08             	shl    $0x8,%eax
   141a7:	c1 f8 08             	sar    $0x8,%eax
   141aa:	48 98                	cltq   
   141ac:	8b 55 fc             	mov    -0x4(%rbp),%edx
   141af:	48 8d 35 2f 1d 00 00 	lea    0x1d2f(%rip),%rsi        # 15ee5 <g_2542+0xcd5>
   141b6:	48 89 c7             	mov    %rax,%rdi
   141b9:	e8 35 55 ff ff       	callq  96f3 <transparent_crc>
   141be:	0f b7 05 4b 58 00 00 	movzwl 0x584b(%rip),%eax        # 19a10 <g_2459+0x8>
   141c5:	c1 e0 07             	shl    $0x7,%eax
   141c8:	66 c1 f8 07          	sar    $0x7,%ax
   141cc:	48 0f bf c0          	movswq %ax,%rax
   141d0:	8b 55 fc             	mov    -0x4(%rbp),%edx
   141d3:	48 8d 35 15 1d 00 00 	lea    0x1d15(%rip),%rsi        # 15eef <g_2542+0xcdf>
   141da:	48 89 c7             	mov    %rax,%rdi
   141dd:	e8 11 55 ff ff       	callq  96f3 <transparent_crc>
   141e2:	48 8b 05 27 58 00 00 	mov    0x5827(%rip),%rax        # 19a10 <g_2459+0x8>
   141e9:	48 c1 e8 09          	shr    $0x9,%rax
   141ed:	66 25 ff 1f          	and    $0x1fff,%ax
   141f1:	0f b7 c0             	movzwl %ax,%eax
   141f4:	8b 55 fc             	mov    -0x4(%rbp),%edx
   141f7:	48 8d 35 fb 1c 00 00 	lea    0x1cfb(%rip),%rsi        # 15ef9 <g_2542+0xce9>
   141fe:	48 89 c7             	mov    %rax,%rdi
   14201:	e8 ed 54 ff ff       	callq  96f3 <transparent_crc>
   14206:	0f b7 05 05 58 00 00 	movzwl 0x5805(%rip),%eax        # 19a12 <g_2459+0xa>
   1420d:	66 c1 e8 06          	shr    $0x6,%ax
   14211:	80 e4 ff             	and    $0xff,%ah
   14214:	0f b6 c0             	movzbl %al,%eax
   14217:	8b 55 fc             	mov    -0x4(%rbp),%edx
   1421a:	48 8d 35 e2 1c 00 00 	lea    0x1ce2(%rip),%rsi        # 15f03 <g_2542+0xcf3>
   14221:	48 89 c7             	mov    %rax,%rdi
   14224:	e8 ca 54 ff ff       	callq  96f3 <transparent_crc>
   14229:	c7 45 f0 00 00 00 00 	movl   $0x0,-0x10(%rbp)
   14230:	eb 45                	jmp    14277 <main+0x1973>
   14232:	8b 45 f0             	mov    -0x10(%rbp),%eax
   14235:	48 98                	cltq   
   14237:	48 8d 15 d6 57 00 00 	lea    0x57d6(%rip),%rdx        # 19a14 <g_2470>
   1423e:	0f b6 04 10          	movzbl (%rax,%rdx,1),%eax
   14242:	0f b6 c0             	movzbl %al,%eax
   14245:	8b 55 fc             	mov    -0x4(%rbp),%edx
   14248:	48 8d 35 be 1c 00 00 	lea    0x1cbe(%rip),%rsi        # 15f0d <g_2542+0xcfd>
   1424f:	48 89 c7             	mov    %rax,%rdi
   14252:	e8 9c 54 ff ff       	callq  96f3 <transparent_crc>
   14257:	83 7d fc 00          	cmpl   $0x0,-0x4(%rbp)
   1425b:	74 16                	je     14273 <main+0x196f>
   1425d:	8b 45 f0             	mov    -0x10(%rbp),%eax
   14260:	89 c6                	mov    %eax,%esi
   14262:	48 8d 3d 3c 17 00 00 	lea    0x173c(%rip),%rdi        # 159a5 <g_2542+0x795>
   14269:	b8 00 00 00 00       	mov    $0x0,%eax
   1426e:	e8 0d 3e ff ff       	callq  8080 <printf@plt>
   14273:	83 45 f0 01          	addl   $0x1,-0x10(%rbp)
   14277:	83 7d f0 01          	cmpl   $0x1,-0x10(%rbp)
   1427b:	7e b5                	jle    14232 <main+0x192e>
   1427d:	48 8b 05 8c 0f 00 00 	mov    0xf8c(%rip),%rax        # 15210 <g_2542>
   14284:	25 ff ff 03 00       	and    $0x3ffff,%eax
   14289:	89 c1                	mov    %eax,%ecx
   1428b:	8b 45 fc             	mov    -0x4(%rbp),%eax
   1428e:	89 c2                	mov    %eax,%edx
   14290:	48 8d 35 80 1c 00 00 	lea    0x1c80(%rip),%rsi        # 15f17 <g_2542+0xd07>
   14297:	48 89 cf             	mov    %rcx,%rdi
   1429a:	e8 54 54 ff ff       	callq  96f3 <transparent_crc>
   1429f:	b8 18 00 00 00       	mov    $0x18,%eax
   142a4:	0f b7 c0             	movzwl %ax,%eax
   142a7:	8b 55 fc             	mov    -0x4(%rbp),%edx
   142aa:	48 8d 35 70 1c 00 00 	lea    0x1c70(%rip),%rsi        # 15f21 <g_2542+0xd11>
   142b1:	48 89 c7             	mov    %rax,%rdi
   142b4:	e8 3a 54 ff ff       	callq  96f3 <transparent_crc>
   142b9:	b8 e9 03 00 00       	mov    $0x3e9,%eax
   142be:	48 98                	cltq   
   142c0:	8b 55 fc             	mov    -0x4(%rbp),%edx
   142c3:	48 8d 35 61 1c 00 00 	lea    0x1c61(%rip),%rsi        # 15f2b <g_2542+0xd1b>
   142ca:	48 89 c7             	mov    %rax,%rdi
   142cd:	e8 21 54 ff ff       	callq  96f3 <transparent_crc>
   142d2:	b8 f4 ff ff ff       	mov    $0xfffffff4,%eax
   142d7:	48 0f bf c0          	movswq %ax,%rax
   142db:	8b 55 fc             	mov    -0x4(%rbp),%edx
   142de:	48 8d 35 50 1c 00 00 	lea    0x1c50(%rip),%rsi        # 15f35 <g_2542+0xd25>
   142e5:	48 89 c7             	mov    %rax,%rdi
   142e8:	e8 06 54 ff ff       	callq  96f3 <transparent_crc>
   142ed:	48 8b 05 24 0f 00 00 	mov    0xf24(%rip),%rax        # 15218 <g_2542+0x8>
   142f4:	48 c1 e8 09          	shr    $0x9,%rax
   142f8:	66 25 ff 1f          	and    $0x1fff,%ax
   142fc:	0f b7 c0             	movzwl %ax,%eax
   142ff:	8b 55 fc             	mov    -0x4(%rbp),%edx
   14302:	48 8d 35 36 1c 00 00 	lea    0x1c36(%rip),%rsi        # 15f3f <g_2542+0xd2f>
   14309:	48 89 c7             	mov    %rax,%rdi
   1430c:	e8 e2 53 ff ff       	callq  96f3 <transparent_crc>
   14311:	b8 06 00 00 00       	mov    $0x6,%eax
   14316:	0f b6 c0             	movzbl %al,%eax
   14319:	8b 55 fc             	mov    -0x4(%rbp),%edx
   1431c:	48 8d 35 26 1c 00 00 	lea    0x1c26(%rip),%rsi        # 15f49 <g_2542+0xd39>
   14323:	48 89 c7             	mov    %rax,%rdi
   14326:	e8 c8 53 ff ff       	callq  96f3 <transparent_crc>
   1432b:	0f b7 05 e4 56 00 00 	movzwl 0x56e4(%rip),%eax        # 19a16 <g_2545>
   14332:	0f b7 c0             	movzwl %ax,%eax
   14335:	8b 55 fc             	mov    -0x4(%rbp),%edx
   14338:	48 8d 35 14 1c 00 00 	lea    0x1c14(%rip),%rsi        # 15f53 <g_2542+0xd43>
   1433f:	48 89 c7             	mov    %rax,%rdi
   14342:	e8 ac 53 ff ff       	callq  96f3 <transparent_crc>
   14347:	0f b7 05 d2 56 00 00 	movzwl 0x56d2(%rip),%eax        # 19a20 <g_2571>
   1434e:	48 0f bf c0          	movswq %ax,%rax
   14352:	8b 55 fc             	mov    -0x4(%rbp),%edx
   14355:	48 8d 35 fe 1b 00 00 	lea    0x1bfe(%rip),%rsi        # 15f5a <g_2542+0xd4a>
   1435c:	48 89 c7             	mov    %rax,%rdi
   1435f:	e8 8f 53 ff ff       	callq  96f3 <transparent_crc>
   14364:	48 8b 05 bd 56 00 00 	mov    0x56bd(%rip),%rax        # 19a28 <g_2571+0x8>
   1436b:	48 89 c1             	mov    %rax,%rcx
   1436e:	8b 45 fc             	mov    -0x4(%rbp),%eax
   14371:	89 c2                	mov    %eax,%edx
   14373:	48 8d 35 ea 1b 00 00 	lea    0x1bea(%rip),%rsi        # 15f64 <g_2542+0xd54>
   1437a:	48 89 cf             	mov    %rcx,%rdi
   1437d:	e8 71 53 ff ff       	callq  96f3 <transparent_crc>
   14382:	8b 05 a8 56 00 00    	mov    0x56a8(%rip),%eax        # 19a30 <g_2571+0x10>
   14388:	48 98                	cltq   
   1438a:	8b 55 fc             	mov    -0x4(%rbp),%edx
   1438d:	48 8d 35 da 1b 00 00 	lea    0x1bda(%rip),%rsi        # 15f6e <g_2542+0xd5e>
   14394:	48 89 c7             	mov    %rax,%rdi
   14397:	e8 57 53 ff ff       	callq  96f3 <transparent_crc>
   1439c:	8b 05 92 56 00 00    	mov    0x5692(%rip),%eax        # 19a34 <g_2571+0x14>
   143a2:	89 c1                	mov    %eax,%ecx
   143a4:	8b 45 fc             	mov    -0x4(%rbp),%eax
   143a7:	89 c2                	mov    %eax,%edx
   143a9:	48 8d 35 c8 1b 00 00 	lea    0x1bc8(%rip),%rsi        # 15f78 <g_2542+0xd68>
   143b0:	48 89 cf             	mov    %rcx,%rdi
   143b3:	e8 3b 53 ff ff       	callq  96f3 <transparent_crc>
   143b8:	48 8b 05 79 56 00 00 	mov    0x5679(%rip),%rax        # 19a38 <g_2571+0x18>
   143bf:	8b 55 fc             	mov    -0x4(%rbp),%edx
   143c2:	48 8d 35 b9 1b 00 00 	lea    0x1bb9(%rip),%rsi        # 15f82 <g_2542+0xd72>
   143c9:	48 89 c7             	mov    %rax,%rdi
   143cc:	e8 22 53 ff ff       	callq  96f3 <transparent_crc>
   143d1:	8b 05 49 4c 00 00    	mov    0x4c49(%rip),%eax        # 19020 <crc32_context>
   143d7:	f7 d0                	not    %eax
   143d9:	89 c2                	mov    %eax,%edx
   143db:	8b 45 fc             	mov    -0x4(%rbp),%eax
   143de:	89 c6                	mov    %eax,%esi
   143e0:	89 d7                	mov    %edx,%edi
   143e2:	e8 ad 3d ff ff       	callq  8194 <platform_main_end>
   143e7:	b8 00 00 00 00       	mov    $0x0,%eax
   143ec:	c9                   	leaveq 
   143ed:	c3                   	retq   
   143ee:	66 90                	xchg   %ax,%ax

00000000000143f0 <__libc_csu_init>:
   143f0:	f3 0f 1e fa          	endbr64 
   143f4:	41 57                	push   %r15
   143f6:	4c 8d 3d 33 49 00 00 	lea    0x4933(%rip),%r15        # 18d30 <__frame_dummy_init_array_entry>
   143fd:	41 56                	push   %r14
   143ff:	49 89 d6             	mov    %rdx,%r14
   14402:	41 55                	push   %r13
   14404:	49 89 f5             	mov    %rsi,%r13
   14407:	41 54                	push   %r12
   14409:	41 89 fc             	mov    %edi,%r12d
   1440c:	55                   	push   %rbp
   1440d:	48 8d 2d 24 49 00 00 	lea    0x4924(%rip),%rbp        # 18d38 <__do_global_dtors_aux_fini_array_entry>
   14414:	53                   	push   %rbx
   14415:	4c 29 fd             	sub    %r15,%rbp
   14418:	48 83 ec 08          	sub    $0x8,%rsp
   1441c:	e8 df 3b ff ff       	callq  8000 <_init>
   14421:	48 c1 fd 03          	sar    $0x3,%rbp
   14425:	74 1f                	je     14446 <__libc_csu_init+0x56>
   14427:	31 db                	xor    %ebx,%ebx
   14429:	0f 1f 80 00 00 00 00 	nopl   0x0(%rax)
   14430:	4c 89 f2             	mov    %r14,%rdx
   14433:	4c 89 ee             	mov    %r13,%rsi
   14436:	44 89 e7             	mov    %r12d,%edi
   14439:	41 ff 14 df          	callq  *(%r15,%rbx,8)
   1443d:	48 83 c3 01          	add    $0x1,%rbx
   14441:	48 39 dd             	cmp    %rbx,%rbp
   14444:	75 ea                	jne    14430 <__libc_csu_init+0x40>
   14446:	48 83 c4 08          	add    $0x8,%rsp
   1444a:	5b                   	pop    %rbx
   1444b:	5d                   	pop    %rbp
   1444c:	41 5c                	pop    %r12
   1444e:	41 5d                	pop    %r13
   14450:	41 5e                	pop    %r14
   14452:	41 5f                	pop    %r15
   14454:	c3                   	retq   
   14455:	66 66 2e 0f 1f 84 00 	data16 nopw %cs:0x0(%rax,%rax,1)
   1445c:	00 00 00 00 

0000000000014460 <__libc_csu_fini>:
   14460:	f3 0f 1e fa          	endbr64 
   14464:	c3                   	retq   
