


Disassembly of section .text:

00000000000060a0 <_start>:
    60a0:	f3 0f 1e fa          	endbr64 
    60a4:	31 ed                	xor    %ebp,%ebp
    60a6:	49 89 d1             	mov    %rdx,%r9
    60a9:	5e                   	pop    %rsi
    60aa:	48 89 e2             	mov    %rsp,%rdx
    60ad:	48 83 e4 f0          	and    $0xfffffffffffffff0,%rsp
    60b1:	50                   	push   %rax
    60b2:	54                   	push   %rsp
    60b3:	4c 8d 05 86 f2 00 00 	lea    0xf286(%rip),%r8        # 15340 <__libc_csu_fini>
    60ba:	48 8d 0d 0f f2 00 00 	lea    0xf20f(%rip),%rcx        # 152d0 <__libc_csu_init>
    60c1:	48 8d 3d c7 ce 00 00 	lea    0xcec7(%rip),%rdi        # 12f8f <main>
    60c8:	ff 15 12 3f 01 00    	callq  *0x13f12(%rip)        # 19fe0 <__libc_start_main@GLIBC_2.2.5>
    60ce:	f4                   	hlt    
    60cf:	90                   	nop

00000000000060d0 <deregister_tm_clones>:
    60d0:	48 8d 3d b1 7b 01 00 	lea    0x17bb1(%rip),%rdi        # 1dc88 <__TMC_END__>
    60d7:	48 8d 05 aa 7b 01 00 	lea    0x17baa(%rip),%rax        # 1dc88 <__TMC_END__>
    60de:	48 39 f8             	cmp    %rdi,%rax
    60e1:	74 15                	je     60f8 <deregister_tm_clones+0x28>
    60e3:	48 8b 05 ee 3e 01 00 	mov    0x13eee(%rip),%rax        # 19fd8 <_ITM_deregisterTMCloneTable>
    60ea:	48 85 c0             	test   %rax,%rax
    60ed:	74 09                	je     60f8 <deregister_tm_clones+0x28>
    60ef:	ff e0                	jmpq   *%rax
    60f1:	0f 1f 80 00 00 00 00 	nopl   0x0(%rax)
    60f8:	c3                   	retq   
    60f9:	0f 1f 80 00 00 00 00 	nopl   0x0(%rax)

0000000000006100 <register_tm_clones>:
    6100:	48 8d 3d 81 7b 01 00 	lea    0x17b81(%rip),%rdi        # 1dc88 <__TMC_END__>
    6107:	48 8d 35 7a 7b 01 00 	lea    0x17b7a(%rip),%rsi        # 1dc88 <__TMC_END__>
    610e:	48 29 fe             	sub    %rdi,%rsi
    6111:	48 89 f0             	mov    %rsi,%rax
    6114:	48 c1 ee 3f          	shr    $0x3f,%rsi
    6118:	48 c1 f8 03          	sar    $0x3,%rax
    611c:	48 01 c6             	add    %rax,%rsi
    611f:	48 d1 fe             	sar    %rsi
    6122:	74 14                	je     6138 <register_tm_clones+0x38>
    6124:	48 8b 05 c5 3e 01 00 	mov    0x13ec5(%rip),%rax        # 19ff0 <_ITM_registerTMCloneTable>
    612b:	48 85 c0             	test   %rax,%rax
    612e:	74 08                	je     6138 <register_tm_clones+0x38>
    6130:	ff e0                	jmpq   *%rax
    6132:	66 0f 1f 44 00 00    	nopw   0x0(%rax,%rax,1)
    6138:	c3                   	retq   
    6139:	0f 1f 80 00 00 00 00 	nopl   0x0(%rax)

0000000000006140 <__do_global_dtors_aux>:
    6140:	f3 0f 1e fa          	endbr64 
    6144:	80 3d 55 7b 01 00 00 	cmpb   $0x0,0x17b55(%rip)        # 1dca0 <completed.8061>
    614b:	75 2b                	jne    6178 <__do_global_dtors_aux+0x38>
    614d:	55                   	push   %rbp
    614e:	48 83 3d a2 3e 01 00 	cmpq   $0x0,0x13ea2(%rip)        # 19ff8 <__cxa_finalize@GLIBC_2.2.5>
    6155:	00 
    6156:	48 89 e5             	mov    %rsp,%rbp
    6159:	74 0c                	je     6167 <__do_global_dtors_aux+0x27>
    615b:	48 8b 3d a6 3e 01 00 	mov    0x13ea6(%rip),%rdi        # 1a008 <__dso_handle>
    6162:	e8 f9 fe ff ff       	callq  6060 <__cxa_finalize@plt>
    6167:	e8 64 ff ff ff       	callq  60d0 <deregister_tm_clones>
    616c:	c6 05 2d 7b 01 00 01 	movb   $0x1,0x17b2d(%rip)        # 1dca0 <completed.8061>
    6173:	5d                   	pop    %rbp
    6174:	c3                   	retq   
    6175:	0f 1f 00             	nopl   (%rax)
    6178:	c3                   	retq   
    6179:	0f 1f 80 00 00 00 00 	nopl   0x0(%rax)

0000000000006180 <frame_dummy>:
    6180:	f3 0f 1e fa          	endbr64 
    6184:	e9 77 ff ff ff       	jmpq   6100 <register_tm_clones>

0000000000006189 <platform_main_begin>:
    6189:	f3 0f 1e fa          	endbr64 
    618d:	55                   	push   %rbp
    618e:	48 89 e5             	mov    %rsp,%rbp
    6191:	90                   	nop
    6192:	5d                   	pop    %rbp
    6193:	c3                   	retq   

0000000000006194 <platform_main_end>:
    6194:	f3 0f 1e fa          	endbr64 
    6198:	55                   	push   %rbp
    6199:	48 89 e5             	mov    %rsp,%rbp
    619c:	48 83 ec 10          	sub    $0x10,%rsp
    61a0:	89 7d fc             	mov    %edi,-0x4(%rbp)
    61a3:	89 75 f8             	mov    %esi,-0x8(%rbp)
    61a6:	8b 45 fc             	mov    -0x4(%rbp),%eax
    61a9:	89 c6                	mov    %eax,%esi
    61ab:	48 8d 3d 6e fe 00 00 	lea    0xfe6e(%rip),%rdi        # 16020 <_IO_stdin_used+0x20>
    61b2:	b8 00 00 00 00       	mov    $0x0,%eax
    61b7:	e8 c4 fe ff ff       	callq  6080 <printf@plt>
    61bc:	90                   	nop
    61bd:	c9                   	leaveq 
    61be:	c3                   	retq   

00000000000061bf <safe_unary_minus_func_int8_t_s>:
    61bf:	f3 0f 1e fa          	endbr64 
    61c3:	55                   	push   %rbp
    61c4:	48 89 e5             	mov    %rsp,%rbp
    61c7:	89 f8                	mov    %edi,%eax
    61c9:	88 45 fc             	mov    %al,-0x4(%rbp)
    61cc:	0f b6 45 fc          	movzbl -0x4(%rbp),%eax
    61d0:	f7 d8                	neg    %eax
    61d2:	5d                   	pop    %rbp
    61d3:	c3                   	retq   

00000000000061d4 <safe_add_func_int8_t_s_s>:
    61d4:	f3 0f 1e fa          	endbr64 
    61d8:	55                   	push   %rbp
    61d9:	48 89 e5             	mov    %rsp,%rbp
    61dc:	89 fa                	mov    %edi,%edx
    61de:	89 f0                	mov    %esi,%eax
    61e0:	88 55 fc             	mov    %dl,-0x4(%rbp)
    61e3:	88 45 f8             	mov    %al,-0x8(%rbp)
    61e6:	0f b6 55 fc          	movzbl -0x4(%rbp),%edx
    61ea:	0f b6 45 f8          	movzbl -0x8(%rbp),%eax
    61ee:	01 d0                	add    %edx,%eax
    61f0:	5d                   	pop    %rbp
    61f1:	c3                   	retq   

00000000000061f2 <safe_sub_func_int8_t_s_s>:
    61f2:	f3 0f 1e fa          	endbr64 
    61f6:	55                   	push   %rbp
    61f7:	48 89 e5             	mov    %rsp,%rbp
    61fa:	89 fa                	mov    %edi,%edx
    61fc:	89 f0                	mov    %esi,%eax
    61fe:	88 55 fc             	mov    %dl,-0x4(%rbp)
    6201:	88 45 f8             	mov    %al,-0x8(%rbp)
    6204:	0f b6 55 fc          	movzbl -0x4(%rbp),%edx
    6208:	0f b6 45 f8          	movzbl -0x8(%rbp),%eax
    620c:	29 c2                	sub    %eax,%edx
    620e:	89 d0                	mov    %edx,%eax
    6210:	5d                   	pop    %rbp
    6211:	c3                   	retq   

0000000000006212 <safe_mul_func_int8_t_s_s>:
    6212:	f3 0f 1e fa          	endbr64 
    6216:	55                   	push   %rbp
    6217:	48 89 e5             	mov    %rsp,%rbp
    621a:	89 fa                	mov    %edi,%edx
    621c:	89 f0                	mov    %esi,%eax
    621e:	88 55 fc             	mov    %dl,-0x4(%rbp)
    6221:	88 45 f8             	mov    %al,-0x8(%rbp)
    6224:	0f b6 45 fc          	movzbl -0x4(%rbp),%eax
    6228:	0f b6 55 f8          	movzbl -0x8(%rbp),%edx
    622c:	0f af c2             	imul   %edx,%eax
    622f:	5d                   	pop    %rbp
    6230:	c3                   	retq   

0000000000006231 <safe_mod_func_int8_t_s_s>:
    6231:	f3 0f 1e fa          	endbr64 
    6235:	55                   	push   %rbp
    6236:	48 89 e5             	mov    %rsp,%rbp
    6239:	89 fa                	mov    %edi,%edx
    623b:	89 f0                	mov    %esi,%eax
    623d:	88 55 fc             	mov    %dl,-0x4(%rbp)
    6240:	88 45 f8             	mov    %al,-0x8(%rbp)
    6243:	80 7d f8 00          	cmpb   $0x0,-0x8(%rbp)
    6247:	74 1b                	je     6264 <safe_mod_func_int8_t_s_s+0x33>
    6249:	80 7d fc 80          	cmpb   $0x80,-0x4(%rbp)
    624d:	75 06                	jne    6255 <safe_mod_func_int8_t_s_s+0x24>
    624f:	80 7d f8 ff          	cmpb   $0xff,-0x8(%rbp)
    6253:	74 0f                	je     6264 <safe_mod_func_int8_t_s_s+0x33>
    6255:	0f be 45 fc          	movsbl -0x4(%rbp),%eax
    6259:	0f be 4d f8          	movsbl -0x8(%rbp),%ecx
    625d:	99                   	cltd   
    625e:	f7 f9                	idiv   %ecx
    6260:	89 d0                	mov    %edx,%eax
    6262:	eb 04                	jmp    6268 <safe_mod_func_int8_t_s_s+0x37>
    6264:	0f b6 45 fc          	movzbl -0x4(%rbp),%eax
    6268:	5d                   	pop    %rbp
    6269:	c3                   	retq   

000000000000626a <safe_div_func_int8_t_s_s>:
    626a:	f3 0f 1e fa          	endbr64 
    626e:	55                   	push   %rbp
    626f:	48 89 e5             	mov    %rsp,%rbp
    6272:	89 fa                	mov    %edi,%edx
    6274:	89 f0                	mov    %esi,%eax
    6276:	88 55 fc             	mov    %dl,-0x4(%rbp)
    6279:	88 45 f8             	mov    %al,-0x8(%rbp)
    627c:	80 7d f8 00          	cmpb   $0x0,-0x8(%rbp)
    6280:	74 19                	je     629b <safe_div_func_int8_t_s_s+0x31>
    6282:	80 7d fc 80          	cmpb   $0x80,-0x4(%rbp)
    6286:	75 06                	jne    628e <safe_div_func_int8_t_s_s+0x24>
    6288:	80 7d f8 ff          	cmpb   $0xff,-0x8(%rbp)
    628c:	74 0d                	je     629b <safe_div_func_int8_t_s_s+0x31>
    628e:	0f be 45 fc          	movsbl -0x4(%rbp),%eax
    6292:	0f be 4d f8          	movsbl -0x8(%rbp),%ecx
    6296:	99                   	cltd   
    6297:	f7 f9                	idiv   %ecx
    6299:	eb 04                	jmp    629f <safe_div_func_int8_t_s_s+0x35>
    629b:	0f b6 45 fc          	movzbl -0x4(%rbp),%eax
    629f:	5d                   	pop    %rbp
    62a0:	c3                   	retq   

00000000000062a1 <safe_lshift_func_int8_t_s_s>:
    62a1:	f3 0f 1e fa          	endbr64 
    62a5:	55                   	push   %rbp
    62a6:	48 89 e5             	mov    %rsp,%rbp
    62a9:	89 f8                	mov    %edi,%eax
    62ab:	89 75 f8             	mov    %esi,-0x8(%rbp)
    62ae:	88 45 fc             	mov    %al,-0x4(%rbp)
    62b1:	80 7d fc 00          	cmpb   $0x0,-0x4(%rbp)
    62b5:	78 31                	js     62e8 <safe_lshift_func_int8_t_s_s+0x47>
    62b7:	83 7d f8 00          	cmpl   $0x0,-0x8(%rbp)
    62bb:	78 2b                	js     62e8 <safe_lshift_func_int8_t_s_s+0x47>
    62bd:	83 7d f8 1f          	cmpl   $0x1f,-0x8(%rbp)
    62c1:	7f 25                	jg     62e8 <safe_lshift_func_int8_t_s_s+0x47>
    62c3:	0f be 55 fc          	movsbl -0x4(%rbp),%edx
    62c7:	8b 45 f8             	mov    -0x8(%rbp),%eax
    62ca:	be 7f 00 00 00       	mov    $0x7f,%esi
    62cf:	89 c1                	mov    %eax,%ecx
    62d1:	d3 fe                	sar    %cl,%esi
    62d3:	89 f0                	mov    %esi,%eax
    62d5:	39 c2                	cmp    %eax,%edx
    62d7:	7f 0f                	jg     62e8 <safe_lshift_func_int8_t_s_s+0x47>
    62d9:	0f be 55 fc          	movsbl -0x4(%rbp),%edx
    62dd:	8b 45 f8             	mov    -0x8(%rbp),%eax
    62e0:	89 c1                	mov    %eax,%ecx
    62e2:	d3 e2                	shl    %cl,%edx
    62e4:	89 d0                	mov    %edx,%eax
    62e6:	eb 04                	jmp    62ec <safe_lshift_func_int8_t_s_s+0x4b>
    62e8:	0f b6 45 fc          	movzbl -0x4(%rbp),%eax
    62ec:	5d                   	pop    %rbp
    62ed:	c3                   	retq   

00000000000062ee <safe_lshift_func_int8_t_s_u>:
    62ee:	f3 0f 1e fa          	endbr64 
    62f2:	55                   	push   %rbp
    62f3:	48 89 e5             	mov    %rsp,%rbp
    62f6:	89 f8                	mov    %edi,%eax
    62f8:	89 75 f8             	mov    %esi,-0x8(%rbp)
    62fb:	88 45 fc             	mov    %al,-0x4(%rbp)
    62fe:	80 7d fc 00          	cmpb   $0x0,-0x4(%rbp)
    6302:	78 2b                	js     632f <safe_lshift_func_int8_t_s_u+0x41>
    6304:	83 7d f8 1f          	cmpl   $0x1f,-0x8(%rbp)
    6308:	77 25                	ja     632f <safe_lshift_func_int8_t_s_u+0x41>
    630a:	0f be 55 fc          	movsbl -0x4(%rbp),%edx
    630e:	8b 45 f8             	mov    -0x8(%rbp),%eax
    6311:	be 7f 00 00 00       	mov    $0x7f,%esi
    6316:	89 c1                	mov    %eax,%ecx
    6318:	d3 fe                	sar    %cl,%esi
    631a:	89 f0                	mov    %esi,%eax
    631c:	39 c2                	cmp    %eax,%edx
    631e:	7f 0f                	jg     632f <safe_lshift_func_int8_t_s_u+0x41>
    6320:	0f be 55 fc          	movsbl -0x4(%rbp),%edx
    6324:	8b 45 f8             	mov    -0x8(%rbp),%eax
    6327:	89 c1                	mov    %eax,%ecx
    6329:	d3 e2                	shl    %cl,%edx
    632b:	89 d0                	mov    %edx,%eax
    632d:	eb 04                	jmp    6333 <safe_lshift_func_int8_t_s_u+0x45>
    632f:	0f b6 45 fc          	movzbl -0x4(%rbp),%eax
    6333:	5d                   	pop    %rbp
    6334:	c3                   	retq   

0000000000006335 <safe_rshift_func_int8_t_s_s>:
    6335:	f3 0f 1e fa          	endbr64 
    6339:	55                   	push   %rbp
    633a:	48 89 e5             	mov    %rsp,%rbp
    633d:	89 f8                	mov    %edi,%eax
    633f:	89 75 f8             	mov    %esi,-0x8(%rbp)
    6342:	88 45 fc             	mov    %al,-0x4(%rbp)
    6345:	80 7d fc 00          	cmpb   $0x0,-0x4(%rbp)
    6349:	78 1b                	js     6366 <safe_rshift_func_int8_t_s_s+0x31>
    634b:	83 7d f8 00          	cmpl   $0x0,-0x8(%rbp)
    634f:	78 15                	js     6366 <safe_rshift_func_int8_t_s_s+0x31>
    6351:	83 7d f8 1f          	cmpl   $0x1f,-0x8(%rbp)
    6355:	7f 0f                	jg     6366 <safe_rshift_func_int8_t_s_s+0x31>
    6357:	0f be 55 fc          	movsbl -0x4(%rbp),%edx
    635b:	8b 45 f8             	mov    -0x8(%rbp),%eax
    635e:	89 c1                	mov    %eax,%ecx
    6360:	d3 fa                	sar    %cl,%edx
    6362:	89 d0                	mov    %edx,%eax
    6364:	eb 04                	jmp    636a <safe_rshift_func_int8_t_s_s+0x35>
    6366:	0f b6 45 fc          	movzbl -0x4(%rbp),%eax
    636a:	5d                   	pop    %rbp
    636b:	c3                   	retq   

000000000000636c <safe_rshift_func_int8_t_s_u>:
    636c:	f3 0f 1e fa          	endbr64 
    6370:	55                   	push   %rbp
    6371:	48 89 e5             	mov    %rsp,%rbp
    6374:	89 f8                	mov    %edi,%eax
    6376:	89 75 f8             	mov    %esi,-0x8(%rbp)
    6379:	88 45 fc             	mov    %al,-0x4(%rbp)
    637c:	80 7d fc 00          	cmpb   $0x0,-0x4(%rbp)
    6380:	78 15                	js     6397 <safe_rshift_func_int8_t_s_u+0x2b>
    6382:	83 7d f8 1f          	cmpl   $0x1f,-0x8(%rbp)
    6386:	77 0f                	ja     6397 <safe_rshift_func_int8_t_s_u+0x2b>
    6388:	0f be 55 fc          	movsbl -0x4(%rbp),%edx
    638c:	8b 45 f8             	mov    -0x8(%rbp),%eax
    638f:	89 c1                	mov    %eax,%ecx
    6391:	d3 fa                	sar    %cl,%edx
    6393:	89 d0                	mov    %edx,%eax
    6395:	eb 04                	jmp    639b <safe_rshift_func_int8_t_s_u+0x2f>
    6397:	0f b6 45 fc          	movzbl -0x4(%rbp),%eax
    639b:	5d                   	pop    %rbp
    639c:	c3                   	retq   

000000000000639d <safe_unary_minus_func_int16_t_s>:
    639d:	f3 0f 1e fa          	endbr64 
    63a1:	55                   	push   %rbp
    63a2:	48 89 e5             	mov    %rsp,%rbp
    63a5:	89 f8                	mov    %edi,%eax
    63a7:	66 89 45 fc          	mov    %ax,-0x4(%rbp)
    63ab:	0f b7 45 fc          	movzwl -0x4(%rbp),%eax
    63af:	f7 d8                	neg    %eax
    63b1:	5d                   	pop    %rbp
    63b2:	c3                   	retq   

00000000000063b3 <safe_add_func_int16_t_s_s>:
    63b3:	f3 0f 1e fa          	endbr64 
    63b7:	55                   	push   %rbp
    63b8:	48 89 e5             	mov    %rsp,%rbp
    63bb:	89 fa                	mov    %edi,%edx
    63bd:	89 f0                	mov    %esi,%eax
    63bf:	66 89 55 fc          	mov    %dx,-0x4(%rbp)
    63c3:	66 89 45 f8          	mov    %ax,-0x8(%rbp)
    63c7:	0f b7 55 fc          	movzwl -0x4(%rbp),%edx
    63cb:	0f b7 45 f8          	movzwl -0x8(%rbp),%eax
    63cf:	01 d0                	add    %edx,%eax
    63d1:	5d                   	pop    %rbp
    63d2:	c3                   	retq   

00000000000063d3 <safe_sub_func_int16_t_s_s>:
    63d3:	f3 0f 1e fa          	endbr64 
    63d7:	55                   	push   %rbp
    63d8:	48 89 e5             	mov    %rsp,%rbp
    63db:	89 fa                	mov    %edi,%edx
    63dd:	89 f0                	mov    %esi,%eax
    63df:	66 89 55 fc          	mov    %dx,-0x4(%rbp)
    63e3:	66 89 45 f8          	mov    %ax,-0x8(%rbp)
    63e7:	0f b7 55 fc          	movzwl -0x4(%rbp),%edx
    63eb:	0f b7 45 f8          	movzwl -0x8(%rbp),%eax
    63ef:	29 c2                	sub    %eax,%edx
    63f1:	89 d0                	mov    %edx,%eax
    63f3:	5d                   	pop    %rbp
    63f4:	c3                   	retq   

00000000000063f5 <safe_mul_func_int16_t_s_s>:
    63f5:	f3 0f 1e fa          	endbr64 
    63f9:	55                   	push   %rbp
    63fa:	48 89 e5             	mov    %rsp,%rbp
    63fd:	89 fa                	mov    %edi,%edx
    63ff:	89 f0                	mov    %esi,%eax
    6401:	66 89 55 fc          	mov    %dx,-0x4(%rbp)
    6405:	66 89 45 f8          	mov    %ax,-0x8(%rbp)
    6409:	0f b7 55 fc          	movzwl -0x4(%rbp),%edx
    640d:	0f b7 45 f8          	movzwl -0x8(%rbp),%eax
    6411:	0f af c2             	imul   %edx,%eax
    6414:	5d                   	pop    %rbp
    6415:	c3                   	retq   

0000000000006416 <safe_mod_func_int16_t_s_s>:
    6416:	f3 0f 1e fa          	endbr64 
    641a:	55                   	push   %rbp
    641b:	48 89 e5             	mov    %rsp,%rbp
    641e:	89 fa                	mov    %edi,%edx
    6420:	89 f0                	mov    %esi,%eax
    6422:	66 89 55 fc          	mov    %dx,-0x4(%rbp)
    6426:	66 89 45 f8          	mov    %ax,-0x8(%rbp)
    642a:	66 83 7d f8 00       	cmpw   $0x0,-0x8(%rbp)
    642f:	74 1e                	je     644f <safe_mod_func_int16_t_s_s+0x39>
    6431:	66 81 7d fc 00 80    	cmpw   $0x8000,-0x4(%rbp)
    6437:	75 07                	jne    6440 <safe_mod_func_int16_t_s_s+0x2a>
    6439:	66 83 7d f8 ff       	cmpw   $0xffff,-0x8(%rbp)
    643e:	74 0f                	je     644f <safe_mod_func_int16_t_s_s+0x39>
    6440:	0f bf 45 fc          	movswl -0x4(%rbp),%eax
    6444:	0f bf 4d f8          	movswl -0x8(%rbp),%ecx
    6448:	99                   	cltd   
    6449:	f7 f9                	idiv   %ecx
    644b:	89 d0                	mov    %edx,%eax
    644d:	eb 04                	jmp    6453 <safe_mod_func_int16_t_s_s+0x3d>
    644f:	0f b7 45 fc          	movzwl -0x4(%rbp),%eax
    6453:	5d                   	pop    %rbp
    6454:	c3                   	retq   

0000000000006455 <safe_div_func_int16_t_s_s>:
    6455:	f3 0f 1e fa          	endbr64 
    6459:	55                   	push   %rbp
    645a:	48 89 e5             	mov    %rsp,%rbp
    645d:	89 fa                	mov    %edi,%edx
    645f:	89 f0                	mov    %esi,%eax
    6461:	66 89 55 fc          	mov    %dx,-0x4(%rbp)
    6465:	66 89 45 f8          	mov    %ax,-0x8(%rbp)
    6469:	66 83 7d f8 00       	cmpw   $0x0,-0x8(%rbp)
    646e:	74 1c                	je     648c <safe_div_func_int16_t_s_s+0x37>
    6470:	66 81 7d fc 00 80    	cmpw   $0x8000,-0x4(%rbp)
    6476:	75 07                	jne    647f <safe_div_func_int16_t_s_s+0x2a>
    6478:	66 83 7d f8 ff       	cmpw   $0xffff,-0x8(%rbp)
    647d:	74 0d                	je     648c <safe_div_func_int16_t_s_s+0x37>
    647f:	0f bf 45 fc          	movswl -0x4(%rbp),%eax
    6483:	0f bf 4d f8          	movswl -0x8(%rbp),%ecx
    6487:	99                   	cltd   
    6488:	f7 f9                	idiv   %ecx
    648a:	eb 04                	jmp    6490 <safe_div_func_int16_t_s_s+0x3b>
    648c:	0f b7 45 fc          	movzwl -0x4(%rbp),%eax
    6490:	5d                   	pop    %rbp
    6491:	c3                   	retq   

0000000000006492 <safe_lshift_func_int16_t_s_s>:
    6492:	f3 0f 1e fa          	endbr64 
    6496:	55                   	push   %rbp
    6497:	48 89 e5             	mov    %rsp,%rbp
    649a:	89 f8                	mov    %edi,%eax
    649c:	89 75 f8             	mov    %esi,-0x8(%rbp)
    649f:	66 89 45 fc          	mov    %ax,-0x4(%rbp)
    64a3:	66 83 7d fc 00       	cmpw   $0x0,-0x4(%rbp)
    64a8:	78 31                	js     64db <safe_lshift_func_int16_t_s_s+0x49>
    64aa:	83 7d f8 00          	cmpl   $0x0,-0x8(%rbp)
    64ae:	78 2b                	js     64db <safe_lshift_func_int16_t_s_s+0x49>
    64b0:	83 7d f8 1f          	cmpl   $0x1f,-0x8(%rbp)
    64b4:	7f 25                	jg     64db <safe_lshift_func_int16_t_s_s+0x49>
    64b6:	0f bf 55 fc          	movswl -0x4(%rbp),%edx
    64ba:	8b 45 f8             	mov    -0x8(%rbp),%eax
    64bd:	be ff 7f 00 00       	mov    $0x7fff,%esi
    64c2:	89 c1                	mov    %eax,%ecx
    64c4:	d3 fe                	sar    %cl,%esi
    64c6:	89 f0                	mov    %esi,%eax
    64c8:	39 c2                	cmp    %eax,%edx
    64ca:	7f 0f                	jg     64db <safe_lshift_func_int16_t_s_s+0x49>
    64cc:	0f bf 55 fc          	movswl -0x4(%rbp),%edx
    64d0:	8b 45 f8             	mov    -0x8(%rbp),%eax
    64d3:	89 c1                	mov    %eax,%ecx
    64d5:	d3 e2                	shl    %cl,%edx
    64d7:	89 d0                	mov    %edx,%eax
    64d9:	eb 04                	jmp    64df <safe_lshift_func_int16_t_s_s+0x4d>
    64db:	0f b7 45 fc          	movzwl -0x4(%rbp),%eax
    64df:	5d                   	pop    %rbp
    64e0:	c3                   	retq   

00000000000064e1 <safe_lshift_func_int16_t_s_u>:
    64e1:	f3 0f 1e fa          	endbr64 
    64e5:	55                   	push   %rbp
    64e6:	48 89 e5             	mov    %rsp,%rbp
    64e9:	89 f8                	mov    %edi,%eax
    64eb:	89 75 f8             	mov    %esi,-0x8(%rbp)
    64ee:	66 89 45 fc          	mov    %ax,-0x4(%rbp)
    64f2:	66 83 7d fc 00       	cmpw   $0x0,-0x4(%rbp)
    64f7:	78 2b                	js     6524 <safe_lshift_func_int16_t_s_u+0x43>
    64f9:	83 7d f8 1f          	cmpl   $0x1f,-0x8(%rbp)
    64fd:	77 25                	ja     6524 <safe_lshift_func_int16_t_s_u+0x43>
    64ff:	0f bf 55 fc          	movswl -0x4(%rbp),%edx
    6503:	8b 45 f8             	mov    -0x8(%rbp),%eax
    6506:	be ff 7f 00 00       	mov    $0x7fff,%esi
    650b:	89 c1                	mov    %eax,%ecx
    650d:	d3 fe                	sar    %cl,%esi
    650f:	89 f0                	mov    %esi,%eax
    6511:	39 c2                	cmp    %eax,%edx
    6513:	7f 0f                	jg     6524 <safe_lshift_func_int16_t_s_u+0x43>
    6515:	0f bf 55 fc          	movswl -0x4(%rbp),%edx
    6519:	8b 45 f8             	mov    -0x8(%rbp),%eax
    651c:	89 c1                	mov    %eax,%ecx
    651e:	d3 e2                	shl    %cl,%edx
    6520:	89 d0                	mov    %edx,%eax
    6522:	eb 04                	jmp    6528 <safe_lshift_func_int16_t_s_u+0x47>
    6524:	0f b7 45 fc          	movzwl -0x4(%rbp),%eax
    6528:	5d                   	pop    %rbp
    6529:	c3                   	retq   

000000000000652a <safe_rshift_func_int16_t_s_s>:
    652a:	f3 0f 1e fa          	endbr64 
    652e:	55                   	push   %rbp
    652f:	48 89 e5             	mov    %rsp,%rbp
    6532:	89 f8                	mov    %edi,%eax
    6534:	89 75 f8             	mov    %esi,-0x8(%rbp)
    6537:	66 89 45 fc          	mov    %ax,-0x4(%rbp)
    653b:	66 83 7d fc 00       	cmpw   $0x0,-0x4(%rbp)
    6540:	78 1b                	js     655d <safe_rshift_func_int16_t_s_s+0x33>
    6542:	83 7d f8 00          	cmpl   $0x0,-0x8(%rbp)
    6546:	78 15                	js     655d <safe_rshift_func_int16_t_s_s+0x33>
    6548:	83 7d f8 1f          	cmpl   $0x1f,-0x8(%rbp)
    654c:	7f 0f                	jg     655d <safe_rshift_func_int16_t_s_s+0x33>
    654e:	0f bf 55 fc          	movswl -0x4(%rbp),%edx
    6552:	8b 45 f8             	mov    -0x8(%rbp),%eax
    6555:	89 c1                	mov    %eax,%ecx
    6557:	d3 fa                	sar    %cl,%edx
    6559:	89 d0                	mov    %edx,%eax
    655b:	eb 04                	jmp    6561 <safe_rshift_func_int16_t_s_s+0x37>
    655d:	0f b7 45 fc          	movzwl -0x4(%rbp),%eax
    6561:	5d                   	pop    %rbp
    6562:	c3                   	retq   

0000000000006563 <safe_rshift_func_int16_t_s_u>:
    6563:	f3 0f 1e fa          	endbr64 
    6567:	55                   	push   %rbp
    6568:	48 89 e5             	mov    %rsp,%rbp
    656b:	89 f8                	mov    %edi,%eax
    656d:	89 75 f8             	mov    %esi,-0x8(%rbp)
    6570:	66 89 45 fc          	mov    %ax,-0x4(%rbp)
    6574:	66 83 7d fc 00       	cmpw   $0x0,-0x4(%rbp)
    6579:	78 15                	js     6590 <safe_rshift_func_int16_t_s_u+0x2d>
    657b:	83 7d f8 1f          	cmpl   $0x1f,-0x8(%rbp)
    657f:	77 0f                	ja     6590 <safe_rshift_func_int16_t_s_u+0x2d>
    6581:	0f bf 55 fc          	movswl -0x4(%rbp),%edx
    6585:	8b 45 f8             	mov    -0x8(%rbp),%eax
    6588:	89 c1                	mov    %eax,%ecx
    658a:	d3 fa                	sar    %cl,%edx
    658c:	89 d0                	mov    %edx,%eax
    658e:	eb 04                	jmp    6594 <safe_rshift_func_int16_t_s_u+0x31>
    6590:	0f b7 45 fc          	movzwl -0x4(%rbp),%eax
    6594:	5d                   	pop    %rbp
    6595:	c3                   	retq   

0000000000006596 <safe_unary_minus_func_int32_t_s>:
    6596:	f3 0f 1e fa          	endbr64 
    659a:	55                   	push   %rbp
    659b:	48 89 e5             	mov    %rsp,%rbp
    659e:	89 7d fc             	mov    %edi,-0x4(%rbp)
    65a1:	81 7d fc 00 00 00 80 	cmpl   $0x80000000,-0x4(%rbp)
    65a8:	74 07                	je     65b1 <safe_unary_minus_func_int32_t_s+0x1b>
    65aa:	8b 45 fc             	mov    -0x4(%rbp),%eax
    65ad:	f7 d8                	neg    %eax
    65af:	eb 03                	jmp    65b4 <safe_unary_minus_func_int32_t_s+0x1e>
    65b1:	8b 45 fc             	mov    -0x4(%rbp),%eax
    65b4:	5d                   	pop    %rbp
    65b5:	c3                   	retq   

00000000000065b6 <safe_add_func_int32_t_s_s>:
    65b6:	f3 0f 1e fa          	endbr64 
    65ba:	55                   	push   %rbp
    65bb:	48 89 e5             	mov    %rsp,%rbp
    65be:	89 7d fc             	mov    %edi,-0x4(%rbp)
    65c1:	89 75 f8             	mov    %esi,-0x8(%rbp)
    65c4:	83 7d fc 00          	cmpl   $0x0,-0x4(%rbp)
    65c8:	7e 13                	jle    65dd <safe_add_func_int32_t_s_s+0x27>
    65ca:	83 7d f8 00          	cmpl   $0x0,-0x8(%rbp)
    65ce:	7e 0d                	jle    65dd <safe_add_func_int32_t_s_s+0x27>
    65d0:	b8 ff ff ff 7f       	mov    $0x7fffffff,%eax
    65d5:	2b 45 f8             	sub    -0x8(%rbp),%eax
    65d8:	39 45 fc             	cmp    %eax,-0x4(%rbp)
    65db:	7f 23                	jg     6600 <safe_add_func_int32_t_s_s+0x4a>
    65dd:	83 7d fc 00          	cmpl   $0x0,-0x4(%rbp)
    65e1:	79 13                	jns    65f6 <safe_add_func_int32_t_s_s+0x40>
    65e3:	83 7d f8 00          	cmpl   $0x0,-0x8(%rbp)
    65e7:	79 0d                	jns    65f6 <safe_add_func_int32_t_s_s+0x40>
    65e9:	b8 00 00 00 80       	mov    $0x80000000,%eax
    65ee:	2b 45 f8             	sub    -0x8(%rbp),%eax
    65f1:	39 45 fc             	cmp    %eax,-0x4(%rbp)
    65f4:	7c 0a                	jl     6600 <safe_add_func_int32_t_s_s+0x4a>
    65f6:	8b 55 fc             	mov    -0x4(%rbp),%edx
    65f9:	8b 45 f8             	mov    -0x8(%rbp),%eax
    65fc:	01 d0                	add    %edx,%eax
    65fe:	eb 03                	jmp    6603 <safe_add_func_int32_t_s_s+0x4d>
    6600:	8b 45 fc             	mov    -0x4(%rbp),%eax
    6603:	5d                   	pop    %rbp
    6604:	c3                   	retq   

0000000000006605 <safe_sub_func_int32_t_s_s>:
    6605:	f3 0f 1e fa          	endbr64 
    6609:	55                   	push   %rbp
    660a:	48 89 e5             	mov    %rsp,%rbp
    660d:	89 7d fc             	mov    %edi,-0x4(%rbp)
    6610:	89 75 f8             	mov    %esi,-0x8(%rbp)
    6613:	8b 45 fc             	mov    -0x4(%rbp),%eax
    6616:	33 45 f8             	xor    -0x8(%rbp),%eax
    6619:	89 c2                	mov    %eax,%edx
    661b:	8b 45 fc             	mov    -0x4(%rbp),%eax
    661e:	33 45 f8             	xor    -0x8(%rbp),%eax
    6621:	25 00 00 00 80       	and    $0x80000000,%eax
    6626:	33 45 fc             	xor    -0x4(%rbp),%eax
    6629:	2b 45 f8             	sub    -0x8(%rbp),%eax
    662c:	33 45 f8             	xor    -0x8(%rbp),%eax
    662f:	21 d0                	and    %edx,%eax
    6631:	85 c0                	test   %eax,%eax
    6633:	78 08                	js     663d <safe_sub_func_int32_t_s_s+0x38>
    6635:	8b 45 fc             	mov    -0x4(%rbp),%eax
    6638:	2b 45 f8             	sub    -0x8(%rbp),%eax
    663b:	eb 03                	jmp    6640 <safe_sub_func_int32_t_s_s+0x3b>
    663d:	8b 45 fc             	mov    -0x4(%rbp),%eax
    6640:	5d                   	pop    %rbp
    6641:	c3                   	retq   

0000000000006642 <safe_mul_func_int32_t_s_s>:
    6642:	f3 0f 1e fa          	endbr64 
    6646:	55                   	push   %rbp
    6647:	48 89 e5             	mov    %rsp,%rbp
    664a:	89 7d fc             	mov    %edi,-0x4(%rbp)
    664d:	89 75 f8             	mov    %esi,-0x8(%rbp)
    6650:	83 7d fc 00          	cmpl   $0x0,-0x4(%rbp)
    6654:	7e 14                	jle    666a <safe_mul_func_int32_t_s_s+0x28>
    6656:	83 7d f8 00          	cmpl   $0x0,-0x8(%rbp)
    665a:	7e 0e                	jle    666a <safe_mul_func_int32_t_s_s+0x28>
    665c:	b8 ff ff ff 7f       	mov    $0x7fffffff,%eax
    6661:	99                   	cltd   
    6662:	f7 7d f8             	idivl  -0x8(%rbp)
    6665:	39 45 fc             	cmp    %eax,-0x4(%rbp)
    6668:	7f 5d                	jg     66c7 <safe_mul_func_int32_t_s_s+0x85>
    666a:	83 7d fc 00          	cmpl   $0x0,-0x4(%rbp)
    666e:	7e 14                	jle    6684 <safe_mul_func_int32_t_s_s+0x42>
    6670:	83 7d f8 00          	cmpl   $0x0,-0x8(%rbp)
    6674:	7f 0e                	jg     6684 <safe_mul_func_int32_t_s_s+0x42>
    6676:	b8 00 00 00 80       	mov    $0x80000000,%eax
    667b:	99                   	cltd   
    667c:	f7 7d fc             	idivl  -0x4(%rbp)
    667f:	39 45 f8             	cmp    %eax,-0x8(%rbp)
    6682:	7c 43                	jl     66c7 <safe_mul_func_int32_t_s_s+0x85>
    6684:	83 7d fc 00          	cmpl   $0x0,-0x4(%rbp)
    6688:	7f 14                	jg     669e <safe_mul_func_int32_t_s_s+0x5c>
    668a:	83 7d f8 00          	cmpl   $0x0,-0x8(%rbp)
    668e:	7e 0e                	jle    669e <safe_mul_func_int32_t_s_s+0x5c>
    6690:	b8 00 00 00 80       	mov    $0x80000000,%eax
    6695:	99                   	cltd   
    6696:	f7 7d f8             	idivl  -0x8(%rbp)
    6699:	39 45 fc             	cmp    %eax,-0x4(%rbp)
    669c:	7c 29                	jl     66c7 <safe_mul_func_int32_t_s_s+0x85>
    669e:	83 7d fc 00          	cmpl   $0x0,-0x4(%rbp)
    66a2:	7f 1a                	jg     66be <safe_mul_func_int32_t_s_s+0x7c>
    66a4:	83 7d f8 00          	cmpl   $0x0,-0x8(%rbp)
    66a8:	7f 14                	jg     66be <safe_mul_func_int32_t_s_s+0x7c>
    66aa:	83 7d fc 00          	cmpl   $0x0,-0x4(%rbp)
    66ae:	74 0e                	je     66be <safe_mul_func_int32_t_s_s+0x7c>
    66b0:	b8 ff ff ff 7f       	mov    $0x7fffffff,%eax
    66b5:	99                   	cltd   
    66b6:	f7 7d fc             	idivl  -0x4(%rbp)
    66b9:	39 45 f8             	cmp    %eax,-0x8(%rbp)
    66bc:	7c 09                	jl     66c7 <safe_mul_func_int32_t_s_s+0x85>
    66be:	8b 45 fc             	mov    -0x4(%rbp),%eax
    66c1:	0f af 45 f8          	imul   -0x8(%rbp),%eax
    66c5:	eb 03                	jmp    66ca <safe_mul_func_int32_t_s_s+0x88>
    66c7:	8b 45 fc             	mov    -0x4(%rbp),%eax
    66ca:	5d                   	pop    %rbp
    66cb:	c3                   	retq   

00000000000066cc <safe_mod_func_int32_t_s_s>:
    66cc:	f3 0f 1e fa          	endbr64 
    66d0:	55                   	push   %rbp
    66d1:	48 89 e5             	mov    %rsp,%rbp
    66d4:	89 7d fc             	mov    %edi,-0x4(%rbp)
    66d7:	89 75 f8             	mov    %esi,-0x8(%rbp)
    66da:	83 7d f8 00          	cmpl   $0x0,-0x8(%rbp)
    66de:	74 1a                	je     66fa <safe_mod_func_int32_t_s_s+0x2e>
    66e0:	81 7d fc 00 00 00 80 	cmpl   $0x80000000,-0x4(%rbp)
    66e7:	75 06                	jne    66ef <safe_mod_func_int32_t_s_s+0x23>
    66e9:	83 7d f8 ff          	cmpl   $0xffffffff,-0x8(%rbp)
    66ed:	74 0b                	je     66fa <safe_mod_func_int32_t_s_s+0x2e>
    66ef:	8b 45 fc             	mov    -0x4(%rbp),%eax
    66f2:	99                   	cltd   
    66f3:	f7 7d f8             	idivl  -0x8(%rbp)
    66f6:	89 d0                	mov    %edx,%eax
    66f8:	eb 03                	jmp    66fd <safe_mod_func_int32_t_s_s+0x31>
    66fa:	8b 45 fc             	mov    -0x4(%rbp),%eax
    66fd:	5d                   	pop    %rbp
    66fe:	c3                   	retq   

00000000000066ff <safe_div_func_int32_t_s_s>:
    66ff:	f3 0f 1e fa          	endbr64 
    6703:	55                   	push   %rbp
    6704:	48 89 e5             	mov    %rsp,%rbp
    6707:	89 7d fc             	mov    %edi,-0x4(%rbp)
    670a:	89 75 f8             	mov    %esi,-0x8(%rbp)
    670d:	83 7d f8 00          	cmpl   $0x0,-0x8(%rbp)
    6711:	74 18                	je     672b <safe_div_func_int32_t_s_s+0x2c>
    6713:	81 7d fc 00 00 00 80 	cmpl   $0x80000000,-0x4(%rbp)
    671a:	75 06                	jne    6722 <safe_div_func_int32_t_s_s+0x23>
    671c:	83 7d f8 ff          	cmpl   $0xffffffff,-0x8(%rbp)
    6720:	74 09                	je     672b <safe_div_func_int32_t_s_s+0x2c>
    6722:	8b 45 fc             	mov    -0x4(%rbp),%eax
    6725:	99                   	cltd   
    6726:	f7 7d f8             	idivl  -0x8(%rbp)
    6729:	eb 03                	jmp    672e <safe_div_func_int32_t_s_s+0x2f>
    672b:	8b 45 fc             	mov    -0x4(%rbp),%eax
    672e:	5d                   	pop    %rbp
    672f:	c3                   	retq   

0000000000006730 <safe_lshift_func_int32_t_s_s>:
    6730:	f3 0f 1e fa          	endbr64 
    6734:	55                   	push   %rbp
    6735:	48 89 e5             	mov    %rsp,%rbp
    6738:	89 7d fc             	mov    %edi,-0x4(%rbp)
    673b:	89 75 f8             	mov    %esi,-0x8(%rbp)
    673e:	83 7d fc 00          	cmpl   $0x0,-0x4(%rbp)
    6742:	78 2d                	js     6771 <safe_lshift_func_int32_t_s_s+0x41>
    6744:	83 7d f8 00          	cmpl   $0x0,-0x8(%rbp)
    6748:	78 27                	js     6771 <safe_lshift_func_int32_t_s_s+0x41>
    674a:	83 7d f8 1f          	cmpl   $0x1f,-0x8(%rbp)
    674e:	7f 21                	jg     6771 <safe_lshift_func_int32_t_s_s+0x41>
    6750:	8b 45 f8             	mov    -0x8(%rbp),%eax
    6753:	ba ff ff ff 7f       	mov    $0x7fffffff,%edx
    6758:	89 c1                	mov    %eax,%ecx
    675a:	d3 fa                	sar    %cl,%edx
    675c:	89 d0                	mov    %edx,%eax
    675e:	39 45 fc             	cmp    %eax,-0x4(%rbp)
    6761:	7f 0e                	jg     6771 <safe_lshift_func_int32_t_s_s+0x41>
    6763:	8b 45 f8             	mov    -0x8(%rbp),%eax
    6766:	8b 55 fc             	mov    -0x4(%rbp),%edx
    6769:	89 c1                	mov    %eax,%ecx
    676b:	d3 e2                	shl    %cl,%edx
    676d:	89 d0                	mov    %edx,%eax
    676f:	eb 03                	jmp    6774 <safe_lshift_func_int32_t_s_s+0x44>
    6771:	8b 45 fc             	mov    -0x4(%rbp),%eax
    6774:	5d                   	pop    %rbp
    6775:	c3                   	retq   

0000000000006776 <safe_lshift_func_int32_t_s_u>:
    6776:	f3 0f 1e fa          	endbr64 
    677a:	55                   	push   %rbp
    677b:	48 89 e5             	mov    %rsp,%rbp
    677e:	89 7d fc             	mov    %edi,-0x4(%rbp)
    6781:	89 75 f8             	mov    %esi,-0x8(%rbp)
    6784:	83 7d fc 00          	cmpl   $0x0,-0x4(%rbp)
    6788:	78 27                	js     67b1 <safe_lshift_func_int32_t_s_u+0x3b>
    678a:	83 7d f8 1f          	cmpl   $0x1f,-0x8(%rbp)
    678e:	77 21                	ja     67b1 <safe_lshift_func_int32_t_s_u+0x3b>
    6790:	8b 45 f8             	mov    -0x8(%rbp),%eax
    6793:	ba ff ff ff 7f       	mov    $0x7fffffff,%edx
    6798:	89 c1                	mov    %eax,%ecx
    679a:	d3 fa                	sar    %cl,%edx
    679c:	89 d0                	mov    %edx,%eax
    679e:	39 45 fc             	cmp    %eax,-0x4(%rbp)
    67a1:	7f 0e                	jg     67b1 <safe_lshift_func_int32_t_s_u+0x3b>
    67a3:	8b 45 f8             	mov    -0x8(%rbp),%eax
    67a6:	8b 55 fc             	mov    -0x4(%rbp),%edx
    67a9:	89 c1                	mov    %eax,%ecx
    67ab:	d3 e2                	shl    %cl,%edx
    67ad:	89 d0                	mov    %edx,%eax
    67af:	eb 03                	jmp    67b4 <safe_lshift_func_int32_t_s_u+0x3e>
    67b1:	8b 45 fc             	mov    -0x4(%rbp),%eax
    67b4:	5d                   	pop    %rbp
    67b5:	c3                   	retq   

00000000000067b6 <safe_rshift_func_int32_t_s_s>:
    67b6:	f3 0f 1e fa          	endbr64 
    67ba:	55                   	push   %rbp
    67bb:	48 89 e5             	mov    %rsp,%rbp
    67be:	89 7d fc             	mov    %edi,-0x4(%rbp)
    67c1:	89 75 f8             	mov    %esi,-0x8(%rbp)
    67c4:	83 7d fc 00          	cmpl   $0x0,-0x4(%rbp)
    67c8:	78 1a                	js     67e4 <safe_rshift_func_int32_t_s_s+0x2e>
    67ca:	83 7d f8 00          	cmpl   $0x0,-0x8(%rbp)
    67ce:	78 14                	js     67e4 <safe_rshift_func_int32_t_s_s+0x2e>
    67d0:	83 7d f8 1f          	cmpl   $0x1f,-0x8(%rbp)
    67d4:	7f 0e                	jg     67e4 <safe_rshift_func_int32_t_s_s+0x2e>
    67d6:	8b 45 f8             	mov    -0x8(%rbp),%eax
    67d9:	8b 55 fc             	mov    -0x4(%rbp),%edx
    67dc:	89 c1                	mov    %eax,%ecx
    67de:	d3 fa                	sar    %cl,%edx
    67e0:	89 d0                	mov    %edx,%eax
    67e2:	eb 03                	jmp    67e7 <safe_rshift_func_int32_t_s_s+0x31>
    67e4:	8b 45 fc             	mov    -0x4(%rbp),%eax
    67e7:	5d                   	pop    %rbp
    67e8:	c3                   	retq   

00000000000067e9 <safe_rshift_func_int32_t_s_u>:
    67e9:	f3 0f 1e fa          	endbr64 
    67ed:	55                   	push   %rbp
    67ee:	48 89 e5             	mov    %rsp,%rbp
    67f1:	89 7d fc             	mov    %edi,-0x4(%rbp)
    67f4:	89 75 f8             	mov    %esi,-0x8(%rbp)
    67f7:	83 7d fc 00          	cmpl   $0x0,-0x4(%rbp)
    67fb:	78 14                	js     6811 <safe_rshift_func_int32_t_s_u+0x28>
    67fd:	83 7d f8 1f          	cmpl   $0x1f,-0x8(%rbp)
    6801:	77 0e                	ja     6811 <safe_rshift_func_int32_t_s_u+0x28>
    6803:	8b 45 f8             	mov    -0x8(%rbp),%eax
    6806:	8b 55 fc             	mov    -0x4(%rbp),%edx
    6809:	89 c1                	mov    %eax,%ecx
    680b:	d3 fa                	sar    %cl,%edx
    680d:	89 d0                	mov    %edx,%eax
    680f:	eb 03                	jmp    6814 <safe_rshift_func_int32_t_s_u+0x2b>
    6811:	8b 45 fc             	mov    -0x4(%rbp),%eax
    6814:	5d                   	pop    %rbp
    6815:	c3                   	retq   

0000000000006816 <safe_unary_minus_func_int64_t_s>:
    6816:	f3 0f 1e fa          	endbr64 
    681a:	55                   	push   %rbp
    681b:	48 89 e5             	mov    %rsp,%rbp
    681e:	48 89 7d f8          	mov    %rdi,-0x8(%rbp)
    6822:	48 b8 00 00 00 00 00 	movabs $0x8000000000000000,%rax
    6829:	00 00 80 
    682c:	48 39 45 f8          	cmp    %rax,-0x8(%rbp)
    6830:	74 09                	je     683b <safe_unary_minus_func_int64_t_s+0x25>
    6832:	48 8b 45 f8          	mov    -0x8(%rbp),%rax
    6836:	48 f7 d8             	neg    %rax
    6839:	eb 04                	jmp    683f <safe_unary_minus_func_int64_t_s+0x29>
    683b:	48 8b 45 f8          	mov    -0x8(%rbp),%rax
    683f:	5d                   	pop    %rbp
    6840:	c3                   	retq   

0000000000006841 <safe_add_func_int64_t_s_s>:
    6841:	f3 0f 1e fa          	endbr64 
    6845:	55                   	push   %rbp
    6846:	48 89 e5             	mov    %rsp,%rbp
    6849:	48 89 7d f8          	mov    %rdi,-0x8(%rbp)
    684d:	48 89 75 f0          	mov    %rsi,-0x10(%rbp)
    6851:	48 83 7d f8 00       	cmpq   $0x0,-0x8(%rbp)
    6856:	7e 1b                	jle    6873 <safe_add_func_int64_t_s_s+0x32>
    6858:	48 83 7d f0 00       	cmpq   $0x0,-0x10(%rbp)
    685d:	7e 14                	jle    6873 <safe_add_func_int64_t_s_s+0x32>
    685f:	48 b8 ff ff ff ff ff 	movabs $0x7fffffffffffffff,%rax
    6866:	ff ff 7f 
    6869:	48 2b 45 f0          	sub    -0x10(%rbp),%rax
    686d:	48 39 45 f8          	cmp    %rax,-0x8(%rbp)
    6871:	7f 2f                	jg     68a2 <safe_add_func_int64_t_s_s+0x61>
    6873:	48 83 7d f8 00       	cmpq   $0x0,-0x8(%rbp)
    6878:	79 1b                	jns    6895 <safe_add_func_int64_t_s_s+0x54>
    687a:	48 83 7d f0 00       	cmpq   $0x0,-0x10(%rbp)
    687f:	79 14                	jns    6895 <safe_add_func_int64_t_s_s+0x54>
    6881:	48 b8 00 00 00 00 00 	movabs $0x8000000000000000,%rax
    6888:	00 00 80 
    688b:	48 2b 45 f0          	sub    -0x10(%rbp),%rax
    688f:	48 39 45 f8          	cmp    %rax,-0x8(%rbp)
    6893:	7c 0d                	jl     68a2 <safe_add_func_int64_t_s_s+0x61>
    6895:	48 8b 55 f8          	mov    -0x8(%rbp),%rdx
    6899:	48 8b 45 f0          	mov    -0x10(%rbp),%rax
    689d:	48 01 d0             	add    %rdx,%rax
    68a0:	eb 04                	jmp    68a6 <safe_add_func_int64_t_s_s+0x65>
    68a2:	48 8b 45 f8          	mov    -0x8(%rbp),%rax
    68a6:	5d                   	pop    %rbp
    68a7:	c3                   	retq   

00000000000068a8 <safe_sub_func_int64_t_s_s>:
    68a8:	f3 0f 1e fa          	endbr64 
    68ac:	55                   	push   %rbp
    68ad:	48 89 e5             	mov    %rsp,%rbp
    68b0:	48 89 7d f8          	mov    %rdi,-0x8(%rbp)
    68b4:	48 89 75 f0          	mov    %rsi,-0x10(%rbp)
    68b8:	48 8b 45 f8          	mov    -0x8(%rbp),%rax
    68bc:	48 33 45 f0          	xor    -0x10(%rbp),%rax
    68c0:	48 89 c2             	mov    %rax,%rdx
    68c3:	48 8b 45 f8          	mov    -0x8(%rbp),%rax
    68c7:	48 33 45 f0          	xor    -0x10(%rbp),%rax
    68cb:	48 b9 00 00 00 00 00 	movabs $0x8000000000000000,%rcx
    68d2:	00 00 80 
    68d5:	48 21 c8             	and    %rcx,%rax
    68d8:	48 33 45 f8          	xor    -0x8(%rbp),%rax
    68dc:	48 2b 45 f0          	sub    -0x10(%rbp),%rax
    68e0:	48 33 45 f0          	xor    -0x10(%rbp),%rax
    68e4:	48 21 d0             	and    %rdx,%rax
    68e7:	48 85 c0             	test   %rax,%rax
    68ea:	78 0a                	js     68f6 <safe_sub_func_int64_t_s_s+0x4e>
    68ec:	48 8b 45 f8          	mov    -0x8(%rbp),%rax
    68f0:	48 2b 45 f0          	sub    -0x10(%rbp),%rax
    68f4:	eb 04                	jmp    68fa <safe_sub_func_int64_t_s_s+0x52>
    68f6:	48 8b 45 f8          	mov    -0x8(%rbp),%rax
    68fa:	5d                   	pop    %rbp
    68fb:	c3                   	retq   

00000000000068fc <safe_mul_func_int64_t_s_s>:
    68fc:	f3 0f 1e fa          	endbr64 
    6900:	55                   	push   %rbp
    6901:	48 89 e5             	mov    %rsp,%rbp
    6904:	48 89 7d f8          	mov    %rdi,-0x8(%rbp)
    6908:	48 89 75 f0          	mov    %rsi,-0x10(%rbp)
    690c:	48 83 7d f8 00       	cmpq   $0x0,-0x8(%rbp)
    6911:	7e 1d                	jle    6930 <safe_mul_func_int64_t_s_s+0x34>
    6913:	48 83 7d f0 00       	cmpq   $0x0,-0x10(%rbp)
    6918:	7e 16                	jle    6930 <safe_mul_func_int64_t_s_s+0x34>
    691a:	48 b8 ff ff ff ff ff 	movabs $0x7fffffffffffffff,%rax
    6921:	ff ff 7f 
    6924:	48 99                	cqto   
    6926:	48 f7 7d f0          	idivq  -0x10(%rbp)
    692a:	48 39 45 f8          	cmp    %rax,-0x8(%rbp)
    692e:	7f 7e                	jg     69ae <safe_mul_func_int64_t_s_s+0xb2>
    6930:	48 83 7d f8 00       	cmpq   $0x0,-0x8(%rbp)
    6935:	7e 1d                	jle    6954 <safe_mul_func_int64_t_s_s+0x58>
    6937:	48 83 7d f0 00       	cmpq   $0x0,-0x10(%rbp)
    693c:	7f 16                	jg     6954 <safe_mul_func_int64_t_s_s+0x58>
    693e:	48 b8 00 00 00 00 00 	movabs $0x8000000000000000,%rax
    6945:	00 00 80 
    6948:	48 99                	cqto   
    694a:	48 f7 7d f8          	idivq  -0x8(%rbp)
    694e:	48 39 45 f0          	cmp    %rax,-0x10(%rbp)
    6952:	7c 5a                	jl     69ae <safe_mul_func_int64_t_s_s+0xb2>
    6954:	48 83 7d f8 00       	cmpq   $0x0,-0x8(%rbp)
    6959:	7f 1d                	jg     6978 <safe_mul_func_int64_t_s_s+0x7c>
    695b:	48 83 7d f0 00       	cmpq   $0x0,-0x10(%rbp)
    6960:	7e 16                	jle    6978 <safe_mul_func_int64_t_s_s+0x7c>
    6962:	48 b8 00 00 00 00 00 	movabs $0x8000000000000000,%rax
    6969:	00 00 80 
    696c:	48 99                	cqto   
    696e:	48 f7 7d f0          	idivq  -0x10(%rbp)
    6972:	48 39 45 f8          	cmp    %rax,-0x8(%rbp)
    6976:	7c 36                	jl     69ae <safe_mul_func_int64_t_s_s+0xb2>
    6978:	48 83 7d f8 00       	cmpq   $0x0,-0x8(%rbp)
    697d:	7f 24                	jg     69a3 <safe_mul_func_int64_t_s_s+0xa7>
    697f:	48 83 7d f0 00       	cmpq   $0x0,-0x10(%rbp)
    6984:	7f 1d                	jg     69a3 <safe_mul_func_int64_t_s_s+0xa7>
    6986:	48 83 7d f8 00       	cmpq   $0x0,-0x8(%rbp)
    698b:	74 16                	je     69a3 <safe_mul_func_int64_t_s_s+0xa7>
    698d:	48 b8 ff ff ff ff ff 	movabs $0x7fffffffffffffff,%rax
    6994:	ff ff 7f 
    6997:	48 99                	cqto   
    6999:	48 f7 7d f8          	idivq  -0x8(%rbp)
    699d:	48 39 45 f0          	cmp    %rax,-0x10(%rbp)
    69a1:	7c 0b                	jl     69ae <safe_mul_func_int64_t_s_s+0xb2>
    69a3:	48 8b 45 f8          	mov    -0x8(%rbp),%rax
    69a7:	48 0f af 45 f0       	imul   -0x10(%rbp),%rax
    69ac:	eb 04                	jmp    69b2 <safe_mul_func_int64_t_s_s+0xb6>
    69ae:	48 8b 45 f8          	mov    -0x8(%rbp),%rax
    69b2:	5d                   	pop    %rbp
    69b3:	c3                   	retq   

00000000000069b4 <safe_mod_func_int64_t_s_s>:
    69b4:	f3 0f 1e fa          	endbr64 
    69b8:	55                   	push   %rbp
    69b9:	48 89 e5             	mov    %rsp,%rbp
    69bc:	48 89 7d f8          	mov    %rdi,-0x8(%rbp)
    69c0:	48 89 75 f0          	mov    %rsi,-0x10(%rbp)
    69c4:	48 83 7d f0 00       	cmpq   $0x0,-0x10(%rbp)
    69c9:	74 26                	je     69f1 <safe_mod_func_int64_t_s_s+0x3d>
    69cb:	48 b8 00 00 00 00 00 	movabs $0x8000000000000000,%rax
    69d2:	00 00 80 
    69d5:	48 39 45 f8          	cmp    %rax,-0x8(%rbp)
    69d9:	75 07                	jne    69e2 <safe_mod_func_int64_t_s_s+0x2e>
    69db:	48 83 7d f0 ff       	cmpq   $0xffffffffffffffff,-0x10(%rbp)
    69e0:	74 0f                	je     69f1 <safe_mod_func_int64_t_s_s+0x3d>
    69e2:	48 8b 45 f8          	mov    -0x8(%rbp),%rax
    69e6:	48 99                	cqto   
    69e8:	48 f7 7d f0          	idivq  -0x10(%rbp)
    69ec:	48 89 d0             	mov    %rdx,%rax
    69ef:	eb 04                	jmp    69f5 <safe_mod_func_int64_t_s_s+0x41>
    69f1:	48 8b 45 f8          	mov    -0x8(%rbp),%rax
    69f5:	5d                   	pop    %rbp
    69f6:	c3                   	retq   

00000000000069f7 <safe_div_func_int64_t_s_s>:
    69f7:	f3 0f 1e fa          	endbr64 
    69fb:	55                   	push   %rbp
    69fc:	48 89 e5             	mov    %rsp,%rbp
    69ff:	48 89 7d f8          	mov    %rdi,-0x8(%rbp)
    6a03:	48 89 75 f0          	mov    %rsi,-0x10(%rbp)
    6a07:	48 83 7d f0 00       	cmpq   $0x0,-0x10(%rbp)
    6a0c:	74 23                	je     6a31 <safe_div_func_int64_t_s_s+0x3a>
    6a0e:	48 b8 00 00 00 00 00 	movabs $0x8000000000000000,%rax
    6a15:	00 00 80 
    6a18:	48 39 45 f8          	cmp    %rax,-0x8(%rbp)
    6a1c:	75 07                	jne    6a25 <safe_div_func_int64_t_s_s+0x2e>
    6a1e:	48 83 7d f0 ff       	cmpq   $0xffffffffffffffff,-0x10(%rbp)
    6a23:	74 0c                	je     6a31 <safe_div_func_int64_t_s_s+0x3a>
    6a25:	48 8b 45 f8          	mov    -0x8(%rbp),%rax
    6a29:	48 99                	cqto   
    6a2b:	48 f7 7d f0          	idivq  -0x10(%rbp)
    6a2f:	eb 04                	jmp    6a35 <safe_div_func_int64_t_s_s+0x3e>
    6a31:	48 8b 45 f8          	mov    -0x8(%rbp),%rax
    6a35:	5d                   	pop    %rbp
    6a36:	c3                   	retq   

0000000000006a37 <safe_lshift_func_int64_t_s_s>:
    6a37:	f3 0f 1e fa          	endbr64 
    6a3b:	55                   	push   %rbp
    6a3c:	48 89 e5             	mov    %rsp,%rbp
    6a3f:	48 89 7d f8          	mov    %rdi,-0x8(%rbp)
    6a43:	89 75 f4             	mov    %esi,-0xc(%rbp)
    6a46:	48 83 7d f8 00       	cmpq   $0x0,-0x8(%rbp)
    6a4b:	78 38                	js     6a85 <safe_lshift_func_int64_t_s_s+0x4e>
    6a4d:	83 7d f4 00          	cmpl   $0x0,-0xc(%rbp)
    6a51:	78 32                	js     6a85 <safe_lshift_func_int64_t_s_s+0x4e>
    6a53:	83 7d f4 1f          	cmpl   $0x1f,-0xc(%rbp)
    6a57:	7f 2c                	jg     6a85 <safe_lshift_func_int64_t_s_s+0x4e>
    6a59:	8b 45 f4             	mov    -0xc(%rbp),%eax
    6a5c:	48 ba ff ff ff ff ff 	movabs $0x7fffffffffffffff,%rdx
    6a63:	ff ff 7f 
    6a66:	89 c1                	mov    %eax,%ecx
    6a68:	48 d3 fa             	sar    %cl,%rdx
    6a6b:	48 89 d0             	mov    %rdx,%rax
    6a6e:	48 39 45 f8          	cmp    %rax,-0x8(%rbp)
    6a72:	7f 11                	jg     6a85 <safe_lshift_func_int64_t_s_s+0x4e>
    6a74:	8b 45 f4             	mov    -0xc(%rbp),%eax
    6a77:	48 8b 55 f8          	mov    -0x8(%rbp),%rdx
    6a7b:	89 c1                	mov    %eax,%ecx
    6a7d:	48 d3 e2             	shl    %cl,%rdx
    6a80:	48 89 d0             	mov    %rdx,%rax
    6a83:	eb 04                	jmp    6a89 <safe_lshift_func_int64_t_s_s+0x52>
    6a85:	48 8b 45 f8          	mov    -0x8(%rbp),%rax
    6a89:	5d                   	pop    %rbp
    6a8a:	c3                   	retq   

0000000000006a8b <safe_lshift_func_int64_t_s_u>:
    6a8b:	f3 0f 1e fa          	endbr64 
    6a8f:	55                   	push   %rbp
    6a90:	48 89 e5             	mov    %rsp,%rbp
    6a93:	48 89 7d f8          	mov    %rdi,-0x8(%rbp)
    6a97:	89 75 f4             	mov    %esi,-0xc(%rbp)
    6a9a:	48 83 7d f8 00       	cmpq   $0x0,-0x8(%rbp)
    6a9f:	78 32                	js     6ad3 <safe_lshift_func_int64_t_s_u+0x48>
    6aa1:	83 7d f4 1f          	cmpl   $0x1f,-0xc(%rbp)
    6aa5:	77 2c                	ja     6ad3 <safe_lshift_func_int64_t_s_u+0x48>
    6aa7:	8b 45 f4             	mov    -0xc(%rbp),%eax
    6aaa:	48 ba ff ff ff ff ff 	movabs $0x7fffffffffffffff,%rdx
    6ab1:	ff ff 7f 
    6ab4:	89 c1                	mov    %eax,%ecx
    6ab6:	48 d3 fa             	sar    %cl,%rdx
    6ab9:	48 89 d0             	mov    %rdx,%rax
    6abc:	48 39 45 f8          	cmp    %rax,-0x8(%rbp)
    6ac0:	7f 11                	jg     6ad3 <safe_lshift_func_int64_t_s_u+0x48>
    6ac2:	8b 45 f4             	mov    -0xc(%rbp),%eax
    6ac5:	48 8b 55 f8          	mov    -0x8(%rbp),%rdx
    6ac9:	89 c1                	mov    %eax,%ecx
    6acb:	48 d3 e2             	shl    %cl,%rdx
    6ace:	48 89 d0             	mov    %rdx,%rax
    6ad1:	eb 04                	jmp    6ad7 <safe_lshift_func_int64_t_s_u+0x4c>
    6ad3:	48 8b 45 f8          	mov    -0x8(%rbp),%rax
    6ad7:	5d                   	pop    %rbp
    6ad8:	c3                   	retq   

0000000000006ad9 <safe_rshift_func_int64_t_s_s>:
    6ad9:	f3 0f 1e fa          	endbr64 
    6add:	55                   	push   %rbp
    6ade:	48 89 e5             	mov    %rsp,%rbp
    6ae1:	48 89 7d f8          	mov    %rdi,-0x8(%rbp)
    6ae5:	89 75 f4             	mov    %esi,-0xc(%rbp)
    6ae8:	48 83 7d f8 00       	cmpq   $0x0,-0x8(%rbp)
    6aed:	78 1d                	js     6b0c <safe_rshift_func_int64_t_s_s+0x33>
    6aef:	83 7d f4 00          	cmpl   $0x0,-0xc(%rbp)
    6af3:	78 17                	js     6b0c <safe_rshift_func_int64_t_s_s+0x33>
    6af5:	83 7d f4 1f          	cmpl   $0x1f,-0xc(%rbp)
    6af9:	7f 11                	jg     6b0c <safe_rshift_func_int64_t_s_s+0x33>
    6afb:	8b 45 f4             	mov    -0xc(%rbp),%eax
    6afe:	48 8b 55 f8          	mov    -0x8(%rbp),%rdx
    6b02:	89 c1                	mov    %eax,%ecx
    6b04:	48 d3 fa             	sar    %cl,%rdx
    6b07:	48 89 d0             	mov    %rdx,%rax
    6b0a:	eb 04                	jmp    6b10 <safe_rshift_func_int64_t_s_s+0x37>
    6b0c:	48 8b 45 f8          	mov    -0x8(%rbp),%rax
    6b10:	5d                   	pop    %rbp
    6b11:	c3                   	retq   

0000000000006b12 <safe_rshift_func_int64_t_s_u>:
    6b12:	f3 0f 1e fa          	endbr64 
    6b16:	55                   	push   %rbp
    6b17:	48 89 e5             	mov    %rsp,%rbp
    6b1a:	48 89 7d f8          	mov    %rdi,-0x8(%rbp)
    6b1e:	89 75 f4             	mov    %esi,-0xc(%rbp)
    6b21:	48 83 7d f8 00       	cmpq   $0x0,-0x8(%rbp)
    6b26:	78 17                	js     6b3f <safe_rshift_func_int64_t_s_u+0x2d>
    6b28:	83 7d f4 1f          	cmpl   $0x1f,-0xc(%rbp)
    6b2c:	77 11                	ja     6b3f <safe_rshift_func_int64_t_s_u+0x2d>
    6b2e:	8b 45 f4             	mov    -0xc(%rbp),%eax
    6b31:	48 8b 55 f8          	mov    -0x8(%rbp),%rdx
    6b35:	89 c1                	mov    %eax,%ecx
    6b37:	48 d3 fa             	sar    %cl,%rdx
    6b3a:	48 89 d0             	mov    %rdx,%rax
    6b3d:	eb 04                	jmp    6b43 <safe_rshift_func_int64_t_s_u+0x31>
    6b3f:	48 8b 45 f8          	mov    -0x8(%rbp),%rax
    6b43:	5d                   	pop    %rbp
    6b44:	c3                   	retq   

0000000000006b45 <safe_unary_minus_func_uint8_t_u>:
    6b45:	f3 0f 1e fa          	endbr64 
    6b49:	55                   	push   %rbp
    6b4a:	48 89 e5             	mov    %rsp,%rbp
    6b4d:	89 f8                	mov    %edi,%eax
    6b4f:	88 45 fc             	mov    %al,-0x4(%rbp)
    6b52:	0f b6 45 fc          	movzbl -0x4(%rbp),%eax
    6b56:	f7 d8                	neg    %eax
    6b58:	5d                   	pop    %rbp
    6b59:	c3                   	retq   

0000000000006b5a <safe_add_func_uint8_t_u_u>:
    6b5a:	f3 0f 1e fa          	endbr64 
    6b5e:	55                   	push   %rbp
    6b5f:	48 89 e5             	mov    %rsp,%rbp
    6b62:	89 fa                	mov    %edi,%edx
    6b64:	89 f0                	mov    %esi,%eax
    6b66:	88 55 fc             	mov    %dl,-0x4(%rbp)
    6b69:	88 45 f8             	mov    %al,-0x8(%rbp)
    6b6c:	0f b6 55 fc          	movzbl -0x4(%rbp),%edx
    6b70:	0f b6 45 f8          	movzbl -0x8(%rbp),%eax
    6b74:	01 d0                	add    %edx,%eax
    6b76:	5d                   	pop    %rbp
    6b77:	c3                   	retq   

0000000000006b78 <safe_sub_func_uint8_t_u_u>:
    6b78:	f3 0f 1e fa          	endbr64 
    6b7c:	55                   	push   %rbp
    6b7d:	48 89 e5             	mov    %rsp,%rbp
    6b80:	89 fa                	mov    %edi,%edx
    6b82:	89 f0                	mov    %esi,%eax
    6b84:	88 55 fc             	mov    %dl,-0x4(%rbp)
    6b87:	88 45 f8             	mov    %al,-0x8(%rbp)
    6b8a:	0f b6 45 fc          	movzbl -0x4(%rbp),%eax
    6b8e:	2a 45 f8             	sub    -0x8(%rbp),%al
    6b91:	5d                   	pop    %rbp
    6b92:	c3                   	retq   

0000000000006b93 <safe_mul_func_uint8_t_u_u>:
    6b93:	f3 0f 1e fa          	endbr64 
    6b97:	55                   	push   %rbp
    6b98:	48 89 e5             	mov    %rsp,%rbp
    6b9b:	89 fa                	mov    %edi,%edx
    6b9d:	89 f0                	mov    %esi,%eax
    6b9f:	88 55 fc             	mov    %dl,-0x4(%rbp)
    6ba2:	88 45 f8             	mov    %al,-0x8(%rbp)
    6ba5:	0f b6 45 fc          	movzbl -0x4(%rbp),%eax
    6ba9:	f6 65 f8             	mulb   -0x8(%rbp)
    6bac:	5d                   	pop    %rbp
    6bad:	c3                   	retq   

0000000000006bae <safe_mod_func_uint8_t_u_u>:
    6bae:	f3 0f 1e fa          	endbr64 
    6bb2:	55                   	push   %rbp
    6bb3:	48 89 e5             	mov    %rsp,%rbp
    6bb6:	89 fa                	mov    %edi,%edx
    6bb8:	89 f0                	mov    %esi,%eax
    6bba:	88 55 fc             	mov    %dl,-0x4(%rbp)
    6bbd:	88 45 f8             	mov    %al,-0x8(%rbp)
    6bc0:	80 7d f8 00          	cmpb   $0x0,-0x8(%rbp)
    6bc4:	74 0f                	je     6bd5 <safe_mod_func_uint8_t_u_u+0x27>
    6bc6:	0f b6 45 fc          	movzbl -0x4(%rbp),%eax
    6bca:	0f b6 c0             	movzbl %al,%eax
    6bcd:	f6 75 f8             	divb   -0x8(%rbp)
    6bd0:	0f b6 c4             	movzbl %ah,%eax
    6bd3:	eb 04                	jmp    6bd9 <safe_mod_func_uint8_t_u_u+0x2b>
    6bd5:	0f b6 45 fc          	movzbl -0x4(%rbp),%eax
    6bd9:	5d                   	pop    %rbp
    6bda:	c3                   	retq   

0000000000006bdb <safe_div_func_uint8_t_u_u>:
    6bdb:	f3 0f 1e fa          	endbr64 
    6bdf:	55                   	push   %rbp
    6be0:	48 89 e5             	mov    %rsp,%rbp
    6be3:	89 fa                	mov    %edi,%edx
    6be5:	89 f0                	mov    %esi,%eax
    6be7:	88 55 fc             	mov    %dl,-0x4(%rbp)
    6bea:	88 45 f8             	mov    %al,-0x8(%rbp)
    6bed:	80 7d f8 00          	cmpb   $0x0,-0x8(%rbp)
    6bf1:	74 0c                	je     6bff <safe_div_func_uint8_t_u_u+0x24>
    6bf3:	0f b6 45 fc          	movzbl -0x4(%rbp),%eax
    6bf7:	0f b6 c0             	movzbl %al,%eax
    6bfa:	f6 75 f8             	divb   -0x8(%rbp)
    6bfd:	eb 04                	jmp    6c03 <safe_div_func_uint8_t_u_u+0x28>
    6bff:	0f b6 45 fc          	movzbl -0x4(%rbp),%eax
    6c03:	5d                   	pop    %rbp
    6c04:	c3                   	retq   

0000000000006c05 <safe_lshift_func_uint8_t_u_s>:
    6c05:	f3 0f 1e fa          	endbr64 
    6c09:	55                   	push   %rbp
    6c0a:	48 89 e5             	mov    %rsp,%rbp
    6c0d:	89 f8                	mov    %edi,%eax
    6c0f:	89 75 f8             	mov    %esi,-0x8(%rbp)
    6c12:	88 45 fc             	mov    %al,-0x4(%rbp)
    6c15:	83 7d f8 00          	cmpl   $0x0,-0x8(%rbp)
    6c19:	78 2b                	js     6c46 <safe_lshift_func_uint8_t_u_s+0x41>
    6c1b:	83 7d f8 1f          	cmpl   $0x1f,-0x8(%rbp)
    6c1f:	7f 25                	jg     6c46 <safe_lshift_func_uint8_t_u_s+0x41>
    6c21:	0f b6 55 fc          	movzbl -0x4(%rbp),%edx
    6c25:	8b 45 f8             	mov    -0x8(%rbp),%eax
    6c28:	be ff 00 00 00       	mov    $0xff,%esi
    6c2d:	89 c1                	mov    %eax,%ecx
    6c2f:	d3 fe                	sar    %cl,%esi
    6c31:	89 f0                	mov    %esi,%eax
    6c33:	39 c2                	cmp    %eax,%edx
    6c35:	7f 0f                	jg     6c46 <safe_lshift_func_uint8_t_u_s+0x41>
    6c37:	0f b6 55 fc          	movzbl -0x4(%rbp),%edx
    6c3b:	8b 45 f8             	mov    -0x8(%rbp),%eax
    6c3e:	89 c1                	mov    %eax,%ecx
    6c40:	d3 e2                	shl    %cl,%edx
    6c42:	89 d0                	mov    %edx,%eax
    6c44:	eb 04                	jmp    6c4a <safe_lshift_func_uint8_t_u_s+0x45>
    6c46:	0f b6 45 fc          	movzbl -0x4(%rbp),%eax
    6c4a:	5d                   	pop    %rbp
    6c4b:	c3                   	retq   

0000000000006c4c <safe_lshift_func_uint8_t_u_u>:
    6c4c:	f3 0f 1e fa          	endbr64 
    6c50:	55                   	push   %rbp
    6c51:	48 89 e5             	mov    %rsp,%rbp
    6c54:	89 f8                	mov    %edi,%eax
    6c56:	89 75 f8             	mov    %esi,-0x8(%rbp)
    6c59:	88 45 fc             	mov    %al,-0x4(%rbp)
    6c5c:	83 7d f8 1f          	cmpl   $0x1f,-0x8(%rbp)
    6c60:	77 25                	ja     6c87 <safe_lshift_func_uint8_t_u_u+0x3b>
    6c62:	0f b6 55 fc          	movzbl -0x4(%rbp),%edx
    6c66:	8b 45 f8             	mov    -0x8(%rbp),%eax
    6c69:	be ff 00 00 00       	mov    $0xff,%esi
    6c6e:	89 c1                	mov    %eax,%ecx
    6c70:	d3 fe                	sar    %cl,%esi
    6c72:	89 f0                	mov    %esi,%eax
    6c74:	39 c2                	cmp    %eax,%edx
    6c76:	7f 0f                	jg     6c87 <safe_lshift_func_uint8_t_u_u+0x3b>
    6c78:	0f b6 55 fc          	movzbl -0x4(%rbp),%edx
    6c7c:	8b 45 f8             	mov    -0x8(%rbp),%eax
    6c7f:	89 c1                	mov    %eax,%ecx
    6c81:	d3 e2                	shl    %cl,%edx
    6c83:	89 d0                	mov    %edx,%eax
    6c85:	eb 04                	jmp    6c8b <safe_lshift_func_uint8_t_u_u+0x3f>
    6c87:	0f b6 45 fc          	movzbl -0x4(%rbp),%eax
    6c8b:	5d                   	pop    %rbp
    6c8c:	c3                   	retq   

0000000000006c8d <safe_rshift_func_uint8_t_u_s>:
    6c8d:	f3 0f 1e fa          	endbr64 
    6c91:	55                   	push   %rbp
    6c92:	48 89 e5             	mov    %rsp,%rbp
    6c95:	89 f8                	mov    %edi,%eax
    6c97:	89 75 f8             	mov    %esi,-0x8(%rbp)
    6c9a:	88 45 fc             	mov    %al,-0x4(%rbp)
    6c9d:	83 7d f8 00          	cmpl   $0x0,-0x8(%rbp)
    6ca1:	78 15                	js     6cb8 <safe_rshift_func_uint8_t_u_s+0x2b>
    6ca3:	83 7d f8 1f          	cmpl   $0x1f,-0x8(%rbp)
    6ca7:	7f 0f                	jg     6cb8 <safe_rshift_func_uint8_t_u_s+0x2b>
    6ca9:	0f b6 55 fc          	movzbl -0x4(%rbp),%edx
    6cad:	8b 45 f8             	mov    -0x8(%rbp),%eax
    6cb0:	89 c1                	mov    %eax,%ecx
    6cb2:	d3 fa                	sar    %cl,%edx
    6cb4:	89 d0                	mov    %edx,%eax
    6cb6:	eb 04                	jmp    6cbc <safe_rshift_func_uint8_t_u_s+0x2f>
    6cb8:	0f b6 45 fc          	movzbl -0x4(%rbp),%eax
    6cbc:	5d                   	pop    %rbp
    6cbd:	c3                   	retq   

0000000000006cbe <safe_rshift_func_uint8_t_u_u>:
    6cbe:	f3 0f 1e fa          	endbr64 
    6cc2:	55                   	push   %rbp
    6cc3:	48 89 e5             	mov    %rsp,%rbp
    6cc6:	89 f8                	mov    %edi,%eax
    6cc8:	89 75 f8             	mov    %esi,-0x8(%rbp)
    6ccb:	88 45 fc             	mov    %al,-0x4(%rbp)
    6cce:	83 7d f8 1f          	cmpl   $0x1f,-0x8(%rbp)
    6cd2:	77 0f                	ja     6ce3 <safe_rshift_func_uint8_t_u_u+0x25>
    6cd4:	0f b6 55 fc          	movzbl -0x4(%rbp),%edx
    6cd8:	8b 45 f8             	mov    -0x8(%rbp),%eax
    6cdb:	89 c1                	mov    %eax,%ecx
    6cdd:	d3 fa                	sar    %cl,%edx
    6cdf:	89 d0                	mov    %edx,%eax
    6ce1:	eb 04                	jmp    6ce7 <safe_rshift_func_uint8_t_u_u+0x29>
    6ce3:	0f b6 45 fc          	movzbl -0x4(%rbp),%eax
    6ce7:	5d                   	pop    %rbp
    6ce8:	c3                   	retq   

0000000000006ce9 <safe_unary_minus_func_uint16_t_u>:
    6ce9:	f3 0f 1e fa          	endbr64 
    6ced:	55                   	push   %rbp
    6cee:	48 89 e5             	mov    %rsp,%rbp
    6cf1:	89 f8                	mov    %edi,%eax
    6cf3:	66 89 45 fc          	mov    %ax,-0x4(%rbp)
    6cf7:	0f b7 45 fc          	movzwl -0x4(%rbp),%eax
    6cfb:	f7 d8                	neg    %eax
    6cfd:	5d                   	pop    %rbp
    6cfe:	c3                   	retq   

0000000000006cff <safe_add_func_uint16_t_u_u>:
    6cff:	f3 0f 1e fa          	endbr64 
    6d03:	55                   	push   %rbp
    6d04:	48 89 e5             	mov    %rsp,%rbp
    6d07:	89 fa                	mov    %edi,%edx
    6d09:	89 f0                	mov    %esi,%eax
    6d0b:	66 89 55 fc          	mov    %dx,-0x4(%rbp)
    6d0f:	66 89 45 f8          	mov    %ax,-0x8(%rbp)
    6d13:	0f b7 55 fc          	movzwl -0x4(%rbp),%edx
    6d17:	0f b7 45 f8          	movzwl -0x8(%rbp),%eax
    6d1b:	01 d0                	add    %edx,%eax
    6d1d:	5d                   	pop    %rbp
    6d1e:	c3                   	retq   

0000000000006d1f <safe_sub_func_uint16_t_u_u>:
    6d1f:	f3 0f 1e fa          	endbr64 
    6d23:	55                   	push   %rbp
    6d24:	48 89 e5             	mov    %rsp,%rbp
    6d27:	89 fa                	mov    %edi,%edx
    6d29:	89 f0                	mov    %esi,%eax
    6d2b:	66 89 55 fc          	mov    %dx,-0x4(%rbp)
    6d2f:	66 89 45 f8          	mov    %ax,-0x8(%rbp)
    6d33:	0f b7 45 fc          	movzwl -0x4(%rbp),%eax
    6d37:	66 2b 45 f8          	sub    -0x8(%rbp),%ax
    6d3b:	5d                   	pop    %rbp
    6d3c:	c3                   	retq   

0000000000006d3d <safe_mul_func_uint16_t_u_u>:
    6d3d:	f3 0f 1e fa          	endbr64 
    6d41:	55                   	push   %rbp
    6d42:	48 89 e5             	mov    %rsp,%rbp
    6d45:	89 fa                	mov    %edi,%edx
    6d47:	89 f0                	mov    %esi,%eax
    6d49:	66 89 55 fc          	mov    %dx,-0x4(%rbp)
    6d4d:	66 89 45 f8          	mov    %ax,-0x8(%rbp)
    6d51:	0f b7 45 fc          	movzwl -0x4(%rbp),%eax
    6d55:	66 0f af 45 f8       	imul   -0x8(%rbp),%ax
    6d5a:	5d                   	pop    %rbp
    6d5b:	c3                   	retq   

0000000000006d5c <safe_mod_func_uint16_t_u_u>:
    6d5c:	f3 0f 1e fa          	endbr64 
    6d60:	55                   	push   %rbp
    6d61:	48 89 e5             	mov    %rsp,%rbp
    6d64:	89 fa                	mov    %edi,%edx
    6d66:	89 f0                	mov    %esi,%eax
    6d68:	66 89 55 fc          	mov    %dx,-0x4(%rbp)
    6d6c:	66 89 45 f8          	mov    %ax,-0x8(%rbp)
    6d70:	66 83 7d f8 00       	cmpw   $0x0,-0x8(%rbp)
    6d75:	74 11                	je     6d88 <safe_mod_func_uint16_t_u_u+0x2c>
    6d77:	0f b7 45 fc          	movzwl -0x4(%rbp),%eax
    6d7b:	ba 00 00 00 00       	mov    $0x0,%edx
    6d80:	66 f7 75 f8          	divw   -0x8(%rbp)
    6d84:	89 d0                	mov    %edx,%eax
    6d86:	eb 04                	jmp    6d8c <safe_mod_func_uint16_t_u_u+0x30>
    6d88:	0f b7 45 fc          	movzwl -0x4(%rbp),%eax
    6d8c:	5d                   	pop    %rbp
    6d8d:	c3                   	retq   

0000000000006d8e <safe_div_func_uint16_t_u_u>:
    6d8e:	f3 0f 1e fa          	endbr64 
    6d92:	55                   	push   %rbp
    6d93:	48 89 e5             	mov    %rsp,%rbp
    6d96:	89 fa                	mov    %edi,%edx
    6d98:	89 f0                	mov    %esi,%eax
    6d9a:	66 89 55 fc          	mov    %dx,-0x4(%rbp)
    6d9e:	66 89 45 f8          	mov    %ax,-0x8(%rbp)
    6da2:	66 83 7d f8 00       	cmpw   $0x0,-0x8(%rbp)
    6da7:	74 0f                	je     6db8 <safe_div_func_uint16_t_u_u+0x2a>
    6da9:	0f b7 45 fc          	movzwl -0x4(%rbp),%eax
    6dad:	ba 00 00 00 00       	mov    $0x0,%edx
    6db2:	66 f7 75 f8          	divw   -0x8(%rbp)
    6db6:	eb 04                	jmp    6dbc <safe_div_func_uint16_t_u_u+0x2e>
    6db8:	0f b7 45 fc          	movzwl -0x4(%rbp),%eax
    6dbc:	5d                   	pop    %rbp
    6dbd:	c3                   	retq   

0000000000006dbe <safe_lshift_func_uint16_t_u_s>:
    6dbe:	f3 0f 1e fa          	endbr64 
    6dc2:	55                   	push   %rbp
    6dc3:	48 89 e5             	mov    %rsp,%rbp
    6dc6:	89 f8                	mov    %edi,%eax
    6dc8:	89 75 f8             	mov    %esi,-0x8(%rbp)
    6dcb:	66 89 45 fc          	mov    %ax,-0x4(%rbp)
    6dcf:	83 7d f8 00          	cmpl   $0x0,-0x8(%rbp)
    6dd3:	78 2b                	js     6e00 <safe_lshift_func_uint16_t_u_s+0x42>
    6dd5:	83 7d f8 1f          	cmpl   $0x1f,-0x8(%rbp)
    6dd9:	7f 25                	jg     6e00 <safe_lshift_func_uint16_t_u_s+0x42>
    6ddb:	0f b7 55 fc          	movzwl -0x4(%rbp),%edx
    6ddf:	8b 45 f8             	mov    -0x8(%rbp),%eax
    6de2:	be ff ff 00 00       	mov    $0xffff,%esi
    6de7:	89 c1                	mov    %eax,%ecx
    6de9:	d3 fe                	sar    %cl,%esi
    6deb:	89 f0                	mov    %esi,%eax
    6ded:	39 c2                	cmp    %eax,%edx
    6def:	7f 0f                	jg     6e00 <safe_lshift_func_uint16_t_u_s+0x42>
    6df1:	0f b7 55 fc          	movzwl -0x4(%rbp),%edx
    6df5:	8b 45 f8             	mov    -0x8(%rbp),%eax
    6df8:	89 c1                	mov    %eax,%ecx
    6dfa:	d3 e2                	shl    %cl,%edx
    6dfc:	89 d0                	mov    %edx,%eax
    6dfe:	eb 04                	jmp    6e04 <safe_lshift_func_uint16_t_u_s+0x46>
    6e00:	0f b7 45 fc          	movzwl -0x4(%rbp),%eax
    6e04:	5d                   	pop    %rbp
    6e05:	c3                   	retq   

0000000000006e06 <safe_lshift_func_uint16_t_u_u>:
    6e06:	f3 0f 1e fa          	endbr64 
    6e0a:	55                   	push   %rbp
    6e0b:	48 89 e5             	mov    %rsp,%rbp
    6e0e:	89 f8                	mov    %edi,%eax
    6e10:	89 75 f8             	mov    %esi,-0x8(%rbp)
    6e13:	66 89 45 fc          	mov    %ax,-0x4(%rbp)
    6e17:	83 7d f8 1f          	cmpl   $0x1f,-0x8(%rbp)
    6e1b:	77 25                	ja     6e42 <safe_lshift_func_uint16_t_u_u+0x3c>
    6e1d:	0f b7 55 fc          	movzwl -0x4(%rbp),%edx
    6e21:	8b 45 f8             	mov    -0x8(%rbp),%eax
    6e24:	be ff ff 00 00       	mov    $0xffff,%esi
    6e29:	89 c1                	mov    %eax,%ecx
    6e2b:	d3 fe                	sar    %cl,%esi
    6e2d:	89 f0                	mov    %esi,%eax
    6e2f:	39 c2                	cmp    %eax,%edx
    6e31:	7f 0f                	jg     6e42 <safe_lshift_func_uint16_t_u_u+0x3c>
    6e33:	0f b7 55 fc          	movzwl -0x4(%rbp),%edx
    6e37:	8b 45 f8             	mov    -0x8(%rbp),%eax
    6e3a:	89 c1                	mov    %eax,%ecx
    6e3c:	d3 e2                	shl    %cl,%edx
    6e3e:	89 d0                	mov    %edx,%eax
    6e40:	eb 04                	jmp    6e46 <safe_lshift_func_uint16_t_u_u+0x40>
    6e42:	0f b7 45 fc          	movzwl -0x4(%rbp),%eax
    6e46:	5d                   	pop    %rbp
    6e47:	c3                   	retq   

0000000000006e48 <safe_rshift_func_uint16_t_u_s>:
    6e48:	f3 0f 1e fa          	endbr64 
    6e4c:	55                   	push   %rbp
    6e4d:	48 89 e5             	mov    %rsp,%rbp
    6e50:	89 f8                	mov    %edi,%eax
    6e52:	89 75 f8             	mov    %esi,-0x8(%rbp)
    6e55:	66 89 45 fc          	mov    %ax,-0x4(%rbp)
    6e59:	83 7d f8 00          	cmpl   $0x0,-0x8(%rbp)
    6e5d:	78 15                	js     6e74 <safe_rshift_func_uint16_t_u_s+0x2c>
    6e5f:	83 7d f8 1f          	cmpl   $0x1f,-0x8(%rbp)
    6e63:	7f 0f                	jg     6e74 <safe_rshift_func_uint16_t_u_s+0x2c>
    6e65:	0f b7 55 fc          	movzwl -0x4(%rbp),%edx
    6e69:	8b 45 f8             	mov    -0x8(%rbp),%eax
    6e6c:	89 c1                	mov    %eax,%ecx
    6e6e:	d3 fa                	sar    %cl,%edx
    6e70:	89 d0                	mov    %edx,%eax
    6e72:	eb 04                	jmp    6e78 <safe_rshift_func_uint16_t_u_s+0x30>
    6e74:	0f b7 45 fc          	movzwl -0x4(%rbp),%eax
    6e78:	5d                   	pop    %rbp
    6e79:	c3                   	retq   

0000000000006e7a <safe_rshift_func_uint16_t_u_u>:
    6e7a:	f3 0f 1e fa          	endbr64 
    6e7e:	55                   	push   %rbp
    6e7f:	48 89 e5             	mov    %rsp,%rbp
    6e82:	89 f8                	mov    %edi,%eax
    6e84:	89 75 f8             	mov    %esi,-0x8(%rbp)
    6e87:	66 89 45 fc          	mov    %ax,-0x4(%rbp)
    6e8b:	83 7d f8 1f          	cmpl   $0x1f,-0x8(%rbp)
    6e8f:	77 0f                	ja     6ea0 <safe_rshift_func_uint16_t_u_u+0x26>
    6e91:	0f b7 55 fc          	movzwl -0x4(%rbp),%edx
    6e95:	8b 45 f8             	mov    -0x8(%rbp),%eax
    6e98:	89 c1                	mov    %eax,%ecx
    6e9a:	d3 fa                	sar    %cl,%edx
    6e9c:	89 d0                	mov    %edx,%eax
    6e9e:	eb 04                	jmp    6ea4 <safe_rshift_func_uint16_t_u_u+0x2a>
    6ea0:	0f b7 45 fc          	movzwl -0x4(%rbp),%eax
    6ea4:	5d                   	pop    %rbp
    6ea5:	c3                   	retq   

0000000000006ea6 <safe_unary_minus_func_uint32_t_u>:
    6ea6:	f3 0f 1e fa          	endbr64 
    6eaa:	55                   	push   %rbp
    6eab:	48 89 e5             	mov    %rsp,%rbp
    6eae:	89 7d fc             	mov    %edi,-0x4(%rbp)
    6eb1:	8b 45 fc             	mov    -0x4(%rbp),%eax
    6eb4:	f7 d8                	neg    %eax
    6eb6:	5d                   	pop    %rbp
    6eb7:	c3                   	retq   

0000000000006eb8 <safe_add_func_uint32_t_u_u>:
    6eb8:	f3 0f 1e fa          	endbr64 
    6ebc:	55                   	push   %rbp
    6ebd:	48 89 e5             	mov    %rsp,%rbp
    6ec0:	89 7d fc             	mov    %edi,-0x4(%rbp)
    6ec3:	89 75 f8             	mov    %esi,-0x8(%rbp)
    6ec6:	8b 55 fc             	mov    -0x4(%rbp),%edx
    6ec9:	8b 45 f8             	mov    -0x8(%rbp),%eax
    6ecc:	01 d0                	add    %edx,%eax
    6ece:	5d                   	pop    %rbp
    6ecf:	c3                   	retq   

0000000000006ed0 <safe_sub_func_uint32_t_u_u>:
    6ed0:	f3 0f 1e fa          	endbr64 
    6ed4:	55                   	push   %rbp
    6ed5:	48 89 e5             	mov    %rsp,%rbp
    6ed8:	89 7d fc             	mov    %edi,-0x4(%rbp)
    6edb:	89 75 f8             	mov    %esi,-0x8(%rbp)
    6ede:	8b 45 fc             	mov    -0x4(%rbp),%eax
    6ee1:	2b 45 f8             	sub    -0x8(%rbp),%eax
    6ee4:	5d                   	pop    %rbp
    6ee5:	c3                   	retq   

0000000000006ee6 <safe_mul_func_uint32_t_u_u>:
    6ee6:	f3 0f 1e fa          	endbr64 
    6eea:	55                   	push   %rbp
    6eeb:	48 89 e5             	mov    %rsp,%rbp
    6eee:	89 7d fc             	mov    %edi,-0x4(%rbp)
    6ef1:	89 75 f8             	mov    %esi,-0x8(%rbp)
    6ef4:	8b 45 fc             	mov    -0x4(%rbp),%eax
    6ef7:	0f af 45 f8          	imul   -0x8(%rbp),%eax
    6efb:	5d                   	pop    %rbp
    6efc:	c3                   	retq   

0000000000006efd <safe_mod_func_uint32_t_u_u>:
    6efd:	f3 0f 1e fa          	endbr64 
    6f01:	55                   	push   %rbp
    6f02:	48 89 e5             	mov    %rsp,%rbp
    6f05:	89 7d fc             	mov    %edi,-0x4(%rbp)
    6f08:	89 75 f8             	mov    %esi,-0x8(%rbp)
    6f0b:	83 7d f8 00          	cmpl   $0x0,-0x8(%rbp)
    6f0f:	74 0f                	je     6f20 <safe_mod_func_uint32_t_u_u+0x23>
    6f11:	8b 45 fc             	mov    -0x4(%rbp),%eax
    6f14:	ba 00 00 00 00       	mov    $0x0,%edx
    6f19:	f7 75 f8             	divl   -0x8(%rbp)
    6f1c:	89 d0                	mov    %edx,%eax
    6f1e:	eb 03                	jmp    6f23 <safe_mod_func_uint32_t_u_u+0x26>
    6f20:	8b 45 fc             	mov    -0x4(%rbp),%eax
    6f23:	5d                   	pop    %rbp
    6f24:	c3                   	retq   

0000000000006f25 <safe_div_func_uint32_t_u_u>:
    6f25:	f3 0f 1e fa          	endbr64 
    6f29:	55                   	push   %rbp
    6f2a:	48 89 e5             	mov    %rsp,%rbp
    6f2d:	89 7d fc             	mov    %edi,-0x4(%rbp)
    6f30:	89 75 f8             	mov    %esi,-0x8(%rbp)
    6f33:	83 7d f8 00          	cmpl   $0x0,-0x8(%rbp)
    6f37:	74 0d                	je     6f46 <safe_div_func_uint32_t_u_u+0x21>
    6f39:	8b 45 fc             	mov    -0x4(%rbp),%eax
    6f3c:	ba 00 00 00 00       	mov    $0x0,%edx
    6f41:	f7 75 f8             	divl   -0x8(%rbp)
    6f44:	eb 03                	jmp    6f49 <safe_div_func_uint32_t_u_u+0x24>
    6f46:	8b 45 fc             	mov    -0x4(%rbp),%eax
    6f49:	5d                   	pop    %rbp
    6f4a:	c3                   	retq   

0000000000006f4b <safe_lshift_func_uint32_t_u_s>:
    6f4b:	f3 0f 1e fa          	endbr64 
    6f4f:	55                   	push   %rbp
    6f50:	48 89 e5             	mov    %rsp,%rbp
    6f53:	89 7d fc             	mov    %edi,-0x4(%rbp)
    6f56:	89 75 f8             	mov    %esi,-0x8(%rbp)
    6f59:	83 7d f8 00          	cmpl   $0x0,-0x8(%rbp)
    6f5d:	78 27                	js     6f86 <safe_lshift_func_uint32_t_u_s+0x3b>
    6f5f:	83 7d f8 1f          	cmpl   $0x1f,-0x8(%rbp)
    6f63:	7f 21                	jg     6f86 <safe_lshift_func_uint32_t_u_s+0x3b>
    6f65:	8b 45 f8             	mov    -0x8(%rbp),%eax
    6f68:	ba ff ff ff ff       	mov    $0xffffffff,%edx
    6f6d:	89 c1                	mov    %eax,%ecx
    6f6f:	d3 ea                	shr    %cl,%edx
    6f71:	89 d0                	mov    %edx,%eax
    6f73:	39 45 fc             	cmp    %eax,-0x4(%rbp)
    6f76:	77 0e                	ja     6f86 <safe_lshift_func_uint32_t_u_s+0x3b>
    6f78:	8b 45 f8             	mov    -0x8(%rbp),%eax
    6f7b:	8b 55 fc             	mov    -0x4(%rbp),%edx
    6f7e:	89 c1                	mov    %eax,%ecx
    6f80:	d3 e2                	shl    %cl,%edx
    6f82:	89 d0                	mov    %edx,%eax
    6f84:	eb 03                	jmp    6f89 <safe_lshift_func_uint32_t_u_s+0x3e>
    6f86:	8b 45 fc             	mov    -0x4(%rbp),%eax
    6f89:	5d                   	pop    %rbp
    6f8a:	c3                   	retq   

0000000000006f8b <safe_lshift_func_uint32_t_u_u>:
    6f8b:	f3 0f 1e fa          	endbr64 
    6f8f:	55                   	push   %rbp
    6f90:	48 89 e5             	mov    %rsp,%rbp
    6f93:	89 7d fc             	mov    %edi,-0x4(%rbp)
    6f96:	89 75 f8             	mov    %esi,-0x8(%rbp)
    6f99:	83 7d f8 1f          	cmpl   $0x1f,-0x8(%rbp)
    6f9d:	77 21                	ja     6fc0 <safe_lshift_func_uint32_t_u_u+0x35>
    6f9f:	8b 45 f8             	mov    -0x8(%rbp),%eax
    6fa2:	ba ff ff ff ff       	mov    $0xffffffff,%edx
    6fa7:	89 c1                	mov    %eax,%ecx
    6fa9:	d3 ea                	shr    %cl,%edx
    6fab:	89 d0                	mov    %edx,%eax
    6fad:	39 45 fc             	cmp    %eax,-0x4(%rbp)
    6fb0:	77 0e                	ja     6fc0 <safe_lshift_func_uint32_t_u_u+0x35>
    6fb2:	8b 45 f8             	mov    -0x8(%rbp),%eax
    6fb5:	8b 55 fc             	mov    -0x4(%rbp),%edx
    6fb8:	89 c1                	mov    %eax,%ecx
    6fba:	d3 e2                	shl    %cl,%edx
    6fbc:	89 d0                	mov    %edx,%eax
    6fbe:	eb 03                	jmp    6fc3 <safe_lshift_func_uint32_t_u_u+0x38>
    6fc0:	8b 45 fc             	mov    -0x4(%rbp),%eax
    6fc3:	5d                   	pop    %rbp
    6fc4:	c3                   	retq   

0000000000006fc5 <safe_rshift_func_uint32_t_u_s>:
    6fc5:	f3 0f 1e fa          	endbr64 
    6fc9:	55                   	push   %rbp
    6fca:	48 89 e5             	mov    %rsp,%rbp
    6fcd:	89 7d fc             	mov    %edi,-0x4(%rbp)
    6fd0:	89 75 f8             	mov    %esi,-0x8(%rbp)
    6fd3:	83 7d f8 00          	cmpl   $0x0,-0x8(%rbp)
    6fd7:	78 14                	js     6fed <safe_rshift_func_uint32_t_u_s+0x28>
    6fd9:	83 7d f8 1f          	cmpl   $0x1f,-0x8(%rbp)
    6fdd:	7f 0e                	jg     6fed <safe_rshift_func_uint32_t_u_s+0x28>
    6fdf:	8b 45 f8             	mov    -0x8(%rbp),%eax
    6fe2:	8b 55 fc             	mov    -0x4(%rbp),%edx
    6fe5:	89 c1                	mov    %eax,%ecx
    6fe7:	d3 ea                	shr    %cl,%edx
    6fe9:	89 d0                	mov    %edx,%eax
    6feb:	eb 03                	jmp    6ff0 <safe_rshift_func_uint32_t_u_s+0x2b>
    6fed:	8b 45 fc             	mov    -0x4(%rbp),%eax
    6ff0:	5d                   	pop    %rbp
    6ff1:	c3                   	retq   

0000000000006ff2 <safe_rshift_func_uint32_t_u_u>:
    6ff2:	f3 0f 1e fa          	endbr64 
    6ff6:	55                   	push   %rbp
    6ff7:	48 89 e5             	mov    %rsp,%rbp
    6ffa:	89 7d fc             	mov    %edi,-0x4(%rbp)
    6ffd:	89 75 f8             	mov    %esi,-0x8(%rbp)
    7000:	83 7d f8 1f          	cmpl   $0x1f,-0x8(%rbp)
    7004:	77 0e                	ja     7014 <safe_rshift_func_uint32_t_u_u+0x22>
    7006:	8b 45 f8             	mov    -0x8(%rbp),%eax
    7009:	8b 55 fc             	mov    -0x4(%rbp),%edx
    700c:	89 c1                	mov    %eax,%ecx
    700e:	d3 ea                	shr    %cl,%edx
    7010:	89 d0                	mov    %edx,%eax
    7012:	eb 03                	jmp    7017 <safe_rshift_func_uint32_t_u_u+0x25>
    7014:	8b 45 fc             	mov    -0x4(%rbp),%eax
    7017:	5d                   	pop    %rbp
    7018:	c3                   	retq   

0000000000007019 <safe_unary_minus_func_uint64_t_u>:
    7019:	f3 0f 1e fa          	endbr64 
    701d:	55                   	push   %rbp
    701e:	48 89 e5             	mov    %rsp,%rbp
    7021:	48 89 7d f8          	mov    %rdi,-0x8(%rbp)
    7025:	48 8b 45 f8          	mov    -0x8(%rbp),%rax
    7029:	48 f7 d8             	neg    %rax
    702c:	5d                   	pop    %rbp
    702d:	c3                   	retq   

000000000000702e <safe_add_func_uint64_t_u_u>:
    702e:	f3 0f 1e fa          	endbr64 
    7032:	55                   	push   %rbp
    7033:	48 89 e5             	mov    %rsp,%rbp
    7036:	48 89 7d f8          	mov    %rdi,-0x8(%rbp)
    703a:	48 89 75 f0          	mov    %rsi,-0x10(%rbp)
    703e:	48 8b 55 f8          	mov    -0x8(%rbp),%rdx
    7042:	48 8b 45 f0          	mov    -0x10(%rbp),%rax
    7046:	48 01 d0             	add    %rdx,%rax
    7049:	5d                   	pop    %rbp
    704a:	c3                   	retq   

000000000000704b <safe_sub_func_uint64_t_u_u>:
    704b:	f3 0f 1e fa          	endbr64 
    704f:	55                   	push   %rbp
    7050:	48 89 e5             	mov    %rsp,%rbp
    7053:	48 89 7d f8          	mov    %rdi,-0x8(%rbp)
    7057:	48 89 75 f0          	mov    %rsi,-0x10(%rbp)
    705b:	48 8b 45 f8          	mov    -0x8(%rbp),%rax
    705f:	48 2b 45 f0          	sub    -0x10(%rbp),%rax
    7063:	5d                   	pop    %rbp
    7064:	c3                   	retq   

0000000000007065 <safe_mul_func_uint64_t_u_u>:
    7065:	f3 0f 1e fa          	endbr64 
    7069:	55                   	push   %rbp
    706a:	48 89 e5             	mov    %rsp,%rbp
    706d:	48 89 7d f8          	mov    %rdi,-0x8(%rbp)
    7071:	48 89 75 f0          	mov    %rsi,-0x10(%rbp)
    7075:	48 8b 45 f8          	mov    -0x8(%rbp),%rax
    7079:	48 0f af 45 f0       	imul   -0x10(%rbp),%rax
    707e:	5d                   	pop    %rbp
    707f:	c3                   	retq   

0000000000007080 <safe_mod_func_uint64_t_u_u>:
    7080:	f3 0f 1e fa          	endbr64 
    7084:	55                   	push   %rbp
    7085:	48 89 e5             	mov    %rsp,%rbp
    7088:	48 89 7d f8          	mov    %rdi,-0x8(%rbp)
    708c:	48 89 75 f0          	mov    %rsi,-0x10(%rbp)
    7090:	48 83 7d f0 00       	cmpq   $0x0,-0x10(%rbp)
    7095:	74 12                	je     70a9 <safe_mod_func_uint64_t_u_u+0x29>
    7097:	48 8b 45 f8          	mov    -0x8(%rbp),%rax
    709b:	ba 00 00 00 00       	mov    $0x0,%edx
    70a0:	48 f7 75 f0          	divq   -0x10(%rbp)
    70a4:	48 89 d0             	mov    %rdx,%rax
    70a7:	eb 04                	jmp    70ad <safe_mod_func_uint64_t_u_u+0x2d>
    70a9:	48 8b 45 f8          	mov    -0x8(%rbp),%rax
    70ad:	5d                   	pop    %rbp
    70ae:	c3                   	retq   

00000000000070af <safe_div_func_uint64_t_u_u>:
    70af:	f3 0f 1e fa          	endbr64 
    70b3:	55                   	push   %rbp
    70b4:	48 89 e5             	mov    %rsp,%rbp
    70b7:	48 89 7d f8          	mov    %rdi,-0x8(%rbp)
    70bb:	48 89 75 f0          	mov    %rsi,-0x10(%rbp)
    70bf:	48 83 7d f0 00       	cmpq   $0x0,-0x10(%rbp)
    70c4:	74 0f                	je     70d5 <safe_div_func_uint64_t_u_u+0x26>
    70c6:	48 8b 45 f8          	mov    -0x8(%rbp),%rax
    70ca:	ba 00 00 00 00       	mov    $0x0,%edx
    70cf:	48 f7 75 f0          	divq   -0x10(%rbp)
    70d3:	eb 04                	jmp    70d9 <safe_div_func_uint64_t_u_u+0x2a>
    70d5:	48 8b 45 f8          	mov    -0x8(%rbp),%rax
    70d9:	5d                   	pop    %rbp
    70da:	c3                   	retq   

00000000000070db <safe_lshift_func_uint64_t_u_s>:
    70db:	f3 0f 1e fa          	endbr64 
    70df:	55                   	push   %rbp
    70e0:	48 89 e5             	mov    %rsp,%rbp
    70e3:	48 89 7d f8          	mov    %rdi,-0x8(%rbp)
    70e7:	89 75 f4             	mov    %esi,-0xc(%rbp)
    70ea:	83 7d f4 00          	cmpl   $0x0,-0xc(%rbp)
    70ee:	78 2f                	js     711f <safe_lshift_func_uint64_t_u_s+0x44>
    70f0:	83 7d f4 1f          	cmpl   $0x1f,-0xc(%rbp)
    70f4:	7f 29                	jg     711f <safe_lshift_func_uint64_t_u_s+0x44>
    70f6:	8b 45 f4             	mov    -0xc(%rbp),%eax
    70f9:	48 c7 c2 ff ff ff ff 	mov    $0xffffffffffffffff,%rdx
    7100:	89 c1                	mov    %eax,%ecx
    7102:	48 d3 ea             	shr    %cl,%rdx
    7105:	48 89 d0             	mov    %rdx,%rax
    7108:	48 39 45 f8          	cmp    %rax,-0x8(%rbp)
    710c:	77 11                	ja     711f <safe_lshift_func_uint64_t_u_s+0x44>
    710e:	8b 45 f4             	mov    -0xc(%rbp),%eax
    7111:	48 8b 55 f8          	mov    -0x8(%rbp),%rdx
    7115:	89 c1                	mov    %eax,%ecx
    7117:	48 d3 e2             	shl    %cl,%rdx
    711a:	48 89 d0             	mov    %rdx,%rax
    711d:	eb 04                	jmp    7123 <safe_lshift_func_uint64_t_u_s+0x48>
    711f:	48 8b 45 f8          	mov    -0x8(%rbp),%rax
    7123:	5d                   	pop    %rbp
    7124:	c3                   	retq   

0000000000007125 <safe_lshift_func_uint64_t_u_u>:
    7125:	f3 0f 1e fa          	endbr64 
    7129:	55                   	push   %rbp
    712a:	48 89 e5             	mov    %rsp,%rbp
    712d:	48 89 7d f8          	mov    %rdi,-0x8(%rbp)
    7131:	89 75 f4             	mov    %esi,-0xc(%rbp)
    7134:	83 7d f4 1f          	cmpl   $0x1f,-0xc(%rbp)
    7138:	77 29                	ja     7163 <safe_lshift_func_uint64_t_u_u+0x3e>
    713a:	8b 45 f4             	mov    -0xc(%rbp),%eax
    713d:	48 c7 c2 ff ff ff ff 	mov    $0xffffffffffffffff,%rdx
    7144:	89 c1                	mov    %eax,%ecx
    7146:	48 d3 ea             	shr    %cl,%rdx
    7149:	48 89 d0             	mov    %rdx,%rax
    714c:	48 39 45 f8          	cmp    %rax,-0x8(%rbp)
    7150:	77 11                	ja     7163 <safe_lshift_func_uint64_t_u_u+0x3e>
    7152:	8b 45 f4             	mov    -0xc(%rbp),%eax
    7155:	48 8b 55 f8          	mov    -0x8(%rbp),%rdx
    7159:	89 c1                	mov    %eax,%ecx
    715b:	48 d3 e2             	shl    %cl,%rdx
    715e:	48 89 d0             	mov    %rdx,%rax
    7161:	eb 04                	jmp    7167 <safe_lshift_func_uint64_t_u_u+0x42>
    7163:	48 8b 45 f8          	mov    -0x8(%rbp),%rax
    7167:	5d                   	pop    %rbp
    7168:	c3                   	retq   

0000000000007169 <safe_rshift_func_uint64_t_u_s>:
    7169:	f3 0f 1e fa          	endbr64 
    716d:	55                   	push   %rbp
    716e:	48 89 e5             	mov    %rsp,%rbp
    7171:	48 89 7d f8          	mov    %rdi,-0x8(%rbp)
    7175:	89 75 f4             	mov    %esi,-0xc(%rbp)
    7178:	83 7d f4 00          	cmpl   $0x0,-0xc(%rbp)
    717c:	78 17                	js     7195 <safe_rshift_func_uint64_t_u_s+0x2c>
    717e:	83 7d f4 1f          	cmpl   $0x1f,-0xc(%rbp)
    7182:	7f 11                	jg     7195 <safe_rshift_func_uint64_t_u_s+0x2c>
    7184:	8b 45 f4             	mov    -0xc(%rbp),%eax
    7187:	48 8b 55 f8          	mov    -0x8(%rbp),%rdx
    718b:	89 c1                	mov    %eax,%ecx
    718d:	48 d3 ea             	shr    %cl,%rdx
    7190:	48 89 d0             	mov    %rdx,%rax
    7193:	eb 04                	jmp    7199 <safe_rshift_func_uint64_t_u_s+0x30>
    7195:	48 8b 45 f8          	mov    -0x8(%rbp),%rax
    7199:	5d                   	pop    %rbp
    719a:	c3                   	retq   

000000000000719b <safe_rshift_func_uint64_t_u_u>:
    719b:	f3 0f 1e fa          	endbr64 
    719f:	55                   	push   %rbp
    71a0:	48 89 e5             	mov    %rsp,%rbp
    71a3:	48 89 7d f8          	mov    %rdi,-0x8(%rbp)
    71a7:	89 75 f4             	mov    %esi,-0xc(%rbp)
    71aa:	83 7d f4 1f          	cmpl   $0x1f,-0xc(%rbp)
    71ae:	77 11                	ja     71c1 <safe_rshift_func_uint64_t_u_u+0x26>
    71b0:	8b 45 f4             	mov    -0xc(%rbp),%eax
    71b3:	48 8b 55 f8          	mov    -0x8(%rbp),%rdx
    71b7:	89 c1                	mov    %eax,%ecx
    71b9:	48 d3 ea             	shr    %cl,%rdx
    71bc:	48 89 d0             	mov    %rdx,%rax
    71bf:	eb 04                	jmp    71c5 <safe_rshift_func_uint64_t_u_u+0x2a>
    71c1:	48 8b 45 f8          	mov    -0x8(%rbp),%rax
    71c5:	5d                   	pop    %rbp
    71c6:	c3                   	retq   

00000000000071c7 <safe_add_func_float_f_f>:
    71c7:	f3 0f 1e fa          	endbr64 
    71cb:	55                   	push   %rbp
    71cc:	48 89 e5             	mov    %rsp,%rbp
    71cf:	f3 0f 11 45 fc       	movss  %xmm0,-0x4(%rbp)
    71d4:	f3 0f 11 4d f8       	movss  %xmm1,-0x8(%rbp)
    71d9:	f3 0f 10 4d fc       	movss  -0x4(%rbp),%xmm1
    71de:	f3 0f 10 05 9a 07 01 	movss  0x1079a(%rip),%xmm0        # 17980 <l_86.4730+0x80>
    71e5:	00 
    71e6:	f3 0f 59 c8          	mulss  %xmm0,%xmm1
    71ea:	f3 0f 10 55 f8       	movss  -0x8(%rbp),%xmm2
    71ef:	f3 0f 10 05 89 07 01 	movss  0x10789(%rip),%xmm0        # 17980 <l_86.4730+0x80>
    71f6:	00 
    71f7:	f3 0f 59 c2          	mulss  %xmm2,%xmm0
    71fb:	f3 0f 58 c1          	addss  %xmm1,%xmm0
    71ff:	f3 0f 10 0d 89 07 01 	movss  0x10789(%rip),%xmm1        # 17990 <l_86.4730+0x90>
    7206:	00 
    7207:	0f 54 c1             	andps  %xmm1,%xmm0
    720a:	0f 2f 05 8f 07 01 00 	comiss 0x1078f(%rip),%xmm0        # 179a0 <l_86.4730+0xa0>
    7211:	76 07                	jbe    721a <safe_add_func_float_f_f+0x53>
    7213:	f3 0f 10 45 fc       	movss  -0x4(%rbp),%xmm0
    7218:	eb 0a                	jmp    7224 <safe_add_func_float_f_f+0x5d>
    721a:	f3 0f 10 45 fc       	movss  -0x4(%rbp),%xmm0
    721f:	f3 0f 58 45 f8       	addss  -0x8(%rbp),%xmm0
    7224:	5d                   	pop    %rbp
    7225:	c3                   	retq   

0000000000007226 <safe_sub_func_float_f_f>:
    7226:	f3 0f 1e fa          	endbr64 
    722a:	55                   	push   %rbp
    722b:	48 89 e5             	mov    %rsp,%rbp
    722e:	f3 0f 11 45 fc       	movss  %xmm0,-0x4(%rbp)
    7233:	f3 0f 11 4d f8       	movss  %xmm1,-0x8(%rbp)
    7238:	f3 0f 10 4d fc       	movss  -0x4(%rbp),%xmm1
    723d:	f3 0f 10 05 3b 07 01 	movss  0x1073b(%rip),%xmm0        # 17980 <l_86.4730+0x80>
    7244:	00 
    7245:	f3 0f 59 c1          	mulss  %xmm1,%xmm0
    7249:	f3 0f 10 55 f8       	movss  -0x8(%rbp),%xmm2
    724e:	f3 0f 10 0d 2a 07 01 	movss  0x1072a(%rip),%xmm1        # 17980 <l_86.4730+0x80>
    7255:	00 
    7256:	f3 0f 59 ca          	mulss  %xmm2,%xmm1
    725a:	f3 0f 5c c1          	subss  %xmm1,%xmm0
    725e:	f3 0f 10 0d 2a 07 01 	movss  0x1072a(%rip),%xmm1        # 17990 <l_86.4730+0x90>
    7265:	00 
    7266:	0f 54 c1             	andps  %xmm1,%xmm0
    7269:	0f 2f 05 30 07 01 00 	comiss 0x10730(%rip),%xmm0        # 179a0 <l_86.4730+0xa0>
    7270:	76 07                	jbe    7279 <safe_sub_func_float_f_f+0x53>
    7272:	f3 0f 10 45 fc       	movss  -0x4(%rbp),%xmm0
    7277:	eb 0a                	jmp    7283 <safe_sub_func_float_f_f+0x5d>
    7279:	f3 0f 10 45 fc       	movss  -0x4(%rbp),%xmm0
    727e:	f3 0f 5c 45 f8       	subss  -0x8(%rbp),%xmm0
    7283:	5d                   	pop    %rbp
    7284:	c3                   	retq   

0000000000007285 <safe_mul_func_float_f_f>:
    7285:	f3 0f 1e fa          	endbr64 
    7289:	55                   	push   %rbp
    728a:	48 89 e5             	mov    %rsp,%rbp
    728d:	f3 0f 11 45 fc       	movss  %xmm0,-0x4(%rbp)
    7292:	f3 0f 11 4d f8       	movss  %xmm1,-0x8(%rbp)
    7297:	f3 0f 10 4d fc       	movss  -0x4(%rbp),%xmm1
    729c:	f3 0f 10 05 00 07 01 	movss  0x10700(%rip),%xmm0        # 179a4 <l_86.4730+0xa4>
    72a3:	00 
    72a4:	f3 0f 59 c8          	mulss  %xmm0,%xmm1
    72a8:	f3 0f 10 55 f8       	movss  -0x8(%rbp),%xmm2
    72ad:	f3 0f 10 05 f3 06 01 	movss  0x106f3(%rip),%xmm0        # 179a8 <l_86.4730+0xa8>
    72b4:	00 
    72b5:	f3 0f 59 c2          	mulss  %xmm2,%xmm0
    72b9:	f3 0f 59 c1          	mulss  %xmm1,%xmm0
    72bd:	f3 0f 10 0d cb 06 01 	movss  0x106cb(%rip),%xmm1        # 17990 <l_86.4730+0x90>
    72c4:	00 
    72c5:	0f 54 c1             	andps  %xmm1,%xmm0
    72c8:	0f 2f 05 dd 06 01 00 	comiss 0x106dd(%rip),%xmm0        # 179ac <l_86.4730+0xac>
    72cf:	76 07                	jbe    72d8 <safe_mul_func_float_f_f+0x53>
    72d1:	f3 0f 10 45 fc       	movss  -0x4(%rbp),%xmm0
    72d6:	eb 0a                	jmp    72e2 <safe_mul_func_float_f_f+0x5d>
    72d8:	f3 0f 10 45 fc       	movss  -0x4(%rbp),%xmm0
    72dd:	f3 0f 59 45 f8       	mulss  -0x8(%rbp),%xmm0
    72e2:	5d                   	pop    %rbp
    72e3:	c3                   	retq   

00000000000072e4 <safe_div_func_float_f_f>:
    72e4:	f3 0f 1e fa          	endbr64 
    72e8:	55                   	push   %rbp
    72e9:	48 89 e5             	mov    %rsp,%rbp
    72ec:	f3 0f 11 45 fc       	movss  %xmm0,-0x4(%rbp)
    72f1:	f3 0f 11 4d f8       	movss  %xmm1,-0x8(%rbp)
    72f6:	f3 0f 10 45 f8       	movss  -0x8(%rbp),%xmm0
    72fb:	f3 0f 10 0d 8d 06 01 	movss  0x1068d(%rip),%xmm1        # 17990 <l_86.4730+0x90>
    7302:	00 
    7303:	0f 54 c8             	andps  %xmm0,%xmm1
    7306:	f3 0f 10 05 a2 06 01 	movss  0x106a2(%rip),%xmm0        # 179b0 <l_86.4730+0xb0>
    730d:	00 
    730e:	0f 2f c1             	comiss %xmm1,%xmm0
    7311:	0f 97 c0             	seta   %al
    7314:	83 f0 01             	xor    $0x1,%eax
    7317:	84 c0                	test   %al,%al
    7319:	75 56                	jne    7371 <safe_div_func_float_f_f+0x8d>
    731b:	66 0f ef c0          	pxor   %xmm0,%xmm0
    731f:	0f 2e 45 f8          	ucomiss -0x8(%rbp),%xmm0
    7323:	7a 0a                	jp     732f <safe_div_func_float_f_f+0x4b>
    7325:	66 0f ef c0          	pxor   %xmm0,%xmm0
    7329:	0f 2e 45 f8          	ucomiss -0x8(%rbp),%xmm0
    732d:	74 4e                	je     737d <safe_div_func_float_f_f+0x99>
    732f:	f3 0f 10 4d fc       	movss  -0x4(%rbp),%xmm1
    7334:	f3 0f 10 05 78 06 01 	movss  0x10678(%rip),%xmm0        # 179b4 <l_86.4730+0xb4>
    733b:	00 
    733c:	f3 0f 59 c1          	mulss  %xmm1,%xmm0
    7340:	f3 0f 10 55 f8       	movss  -0x8(%rbp),%xmm2
    7345:	f3 0f 10 0d 6b 06 01 	movss  0x1066b(%rip),%xmm1        # 179b8 <l_86.4730+0xb8>
    734c:	00 
    734d:	f3 0f 59 ca          	mulss  %xmm2,%xmm1
    7351:	f3 0f 5e c1          	divss  %xmm1,%xmm0
    7355:	f3 0f 10 0d 33 06 01 	movss  0x10633(%rip),%xmm1        # 17990 <l_86.4730+0x90>
    735c:	00 
    735d:	0f 54 c1             	andps  %xmm1,%xmm0
    7360:	0f 2f 05 55 06 01 00 	comiss 0x10655(%rip),%xmm0        # 179bc <l_86.4730+0xbc>
    7367:	0f 97 c0             	seta   %al
    736a:	83 f0 01             	xor    $0x1,%eax
    736d:	84 c0                	test   %al,%al
    736f:	74 0c                	je     737d <safe_div_func_float_f_f+0x99>
    7371:	f3 0f 10 45 fc       	movss  -0x4(%rbp),%xmm0
    7376:	f3 0f 5e 45 f8       	divss  -0x8(%rbp),%xmm0
    737b:	eb 05                	jmp    7382 <safe_div_func_float_f_f+0x9e>
    737d:	f3 0f 10 45 fc       	movss  -0x4(%rbp),%xmm0
    7382:	5d                   	pop    %rbp
    7383:	c3                   	retq   

0000000000007384 <safe_add_func_double_f_f>:
    7384:	f3 0f 1e fa          	endbr64 
    7388:	55                   	push   %rbp
    7389:	48 89 e5             	mov    %rsp,%rbp
    738c:	f2 0f 11 45 f8       	movsd  %xmm0,-0x8(%rbp)
    7391:	f2 0f 11 4d f0       	movsd  %xmm1,-0x10(%rbp)
    7396:	f2 0f 10 4d f8       	movsd  -0x8(%rbp),%xmm1
    739b:	f2 0f 10 05 1d 06 01 	movsd  0x1061d(%rip),%xmm0        # 179c0 <l_86.4730+0xc0>
    73a2:	00 
    73a3:	f2 0f 59 c8          	mulsd  %xmm0,%xmm1
    73a7:	f2 0f 10 55 f0       	movsd  -0x10(%rbp),%xmm2
    73ac:	f2 0f 10 05 0c 06 01 	movsd  0x1060c(%rip),%xmm0        # 179c0 <l_86.4730+0xc0>
    73b3:	00 
    73b4:	f2 0f 59 c2          	mulsd  %xmm2,%xmm0
    73b8:	f2 0f 58 c1          	addsd  %xmm1,%xmm0
    73bc:	f3 0f 7e 0d 0c 06 01 	movq   0x1060c(%rip),%xmm1        # 179d0 <l_86.4730+0xd0>
    73c3:	00 
    73c4:	66 0f 54 c1          	andpd  %xmm1,%xmm0
    73c8:	66 0f 2f 05 10 06 01 	comisd 0x10610(%rip),%xmm0        # 179e0 <l_86.4730+0xe0>
    73cf:	00 
    73d0:	76 07                	jbe    73d9 <safe_add_func_double_f_f+0x55>
    73d2:	f2 0f 10 45 f8       	movsd  -0x8(%rbp),%xmm0
    73d7:	eb 0a                	jmp    73e3 <safe_add_func_double_f_f+0x5f>
    73d9:	f2 0f 10 45 f8       	movsd  -0x8(%rbp),%xmm0
    73de:	f2 0f 58 45 f0       	addsd  -0x10(%rbp),%xmm0
    73e3:	5d                   	pop    %rbp
    73e4:	c3                   	retq   

00000000000073e5 <safe_sub_func_double_f_f>:
    73e5:	f3 0f 1e fa          	endbr64 
    73e9:	55                   	push   %rbp
    73ea:	48 89 e5             	mov    %rsp,%rbp
    73ed:	f2 0f 11 45 f8       	movsd  %xmm0,-0x8(%rbp)
    73f2:	f2 0f 11 4d f0       	movsd  %xmm1,-0x10(%rbp)
    73f7:	f2 0f 10 4d f8       	movsd  -0x8(%rbp),%xmm1
    73fc:	f2 0f 10 05 bc 05 01 	movsd  0x105bc(%rip),%xmm0        # 179c0 <l_86.4730+0xc0>
    7403:	00 
    7404:	f2 0f 59 c1          	mulsd  %xmm1,%xmm0
    7408:	f2 0f 10 55 f0       	movsd  -0x10(%rbp),%xmm2
    740d:	f2 0f 10 0d ab 05 01 	movsd  0x105ab(%rip),%xmm1        # 179c0 <l_86.4730+0xc0>
    7414:	00 
    7415:	f2 0f 59 ca          	mulsd  %xmm2,%xmm1
    7419:	f2 0f 5c c1          	subsd  %xmm1,%xmm0
    741d:	f3 0f 7e 0d ab 05 01 	movq   0x105ab(%rip),%xmm1        # 179d0 <l_86.4730+0xd0>
    7424:	00 
    7425:	66 0f 54 c1          	andpd  %xmm1,%xmm0
    7429:	66 0f 2f 05 af 05 01 	comisd 0x105af(%rip),%xmm0        # 179e0 <l_86.4730+0xe0>
    7430:	00 
    7431:	76 07                	jbe    743a <safe_sub_func_double_f_f+0x55>
    7433:	f2 0f 10 45 f8       	movsd  -0x8(%rbp),%xmm0
    7438:	eb 0a                	jmp    7444 <safe_sub_func_double_f_f+0x5f>
    743a:	f2 0f 10 45 f8       	movsd  -0x8(%rbp),%xmm0
    743f:	f2 0f 5c 45 f0       	subsd  -0x10(%rbp),%xmm0
    7444:	5d                   	pop    %rbp
    7445:	c3                   	retq   

0000000000007446 <safe_mul_func_double_f_f>:
    7446:	f3 0f 1e fa          	endbr64 
    744a:	55                   	push   %rbp
    744b:	48 89 e5             	mov    %rsp,%rbp
    744e:	f2 0f 11 45 f8       	movsd  %xmm0,-0x8(%rbp)
    7453:	f2 0f 11 4d f0       	movsd  %xmm1,-0x10(%rbp)
    7458:	f2 0f 10 4d f8       	movsd  -0x8(%rbp),%xmm1
    745d:	f2 0f 10 05 83 05 01 	movsd  0x10583(%rip),%xmm0        # 179e8 <l_86.4730+0xe8>
    7464:	00 
    7465:	f2 0f 59 c8          	mulsd  %xmm0,%xmm1
    7469:	f2 0f 10 55 f0       	movsd  -0x10(%rbp),%xmm2
    746e:	f2 0f 10 05 7a 05 01 	movsd  0x1057a(%rip),%xmm0        # 179f0 <l_86.4730+0xf0>
    7475:	00 
    7476:	f2 0f 59 c2          	mulsd  %xmm2,%xmm0
    747a:	f2 0f 59 c1          	mulsd  %xmm1,%xmm0
    747e:	f3 0f 7e 0d 4a 05 01 	movq   0x1054a(%rip),%xmm1        # 179d0 <l_86.4730+0xd0>
    7485:	00 
    7486:	66 0f 54 c1          	andpd  %xmm1,%xmm0
    748a:	66 0f 2f 05 66 05 01 	comisd 0x10566(%rip),%xmm0        # 179f8 <l_86.4730+0xf8>
    7491:	00 
    7492:	76 07                	jbe    749b <safe_mul_func_double_f_f+0x55>
    7494:	f2 0f 10 45 f8       	movsd  -0x8(%rbp),%xmm0
    7499:	eb 0a                	jmp    74a5 <safe_mul_func_double_f_f+0x5f>
    749b:	f2 0f 10 45 f8       	movsd  -0x8(%rbp),%xmm0
    74a0:	f2 0f 59 45 f0       	mulsd  -0x10(%rbp),%xmm0
    74a5:	5d                   	pop    %rbp
    74a6:	c3                   	retq   

00000000000074a7 <safe_div_func_double_f_f>:
    74a7:	f3 0f 1e fa          	endbr64 
    74ab:	55                   	push   %rbp
    74ac:	48 89 e5             	mov    %rsp,%rbp
    74af:	f2 0f 11 45 f8       	movsd  %xmm0,-0x8(%rbp)
    74b4:	f2 0f 11 4d f0       	movsd  %xmm1,-0x10(%rbp)
    74b9:	f2 0f 10 45 f0       	movsd  -0x10(%rbp),%xmm0
    74be:	f3 0f 7e 0d 0a 05 01 	movq   0x1050a(%rip),%xmm1        # 179d0 <l_86.4730+0xd0>
    74c5:	00 
    74c6:	66 0f 54 c8          	andpd  %xmm0,%xmm1
    74ca:	f2 0f 10 05 2e 05 01 	movsd  0x1052e(%rip),%xmm0        # 17a00 <l_86.4730+0x100>
    74d1:	00 
    74d2:	66 0f 2f c1          	comisd %xmm1,%xmm0
    74d6:	0f 97 c0             	seta   %al
    74d9:	83 f0 01             	xor    $0x1,%eax
    74dc:	84 c0                	test   %al,%al
    74de:	75 5a                	jne    753a <safe_div_func_double_f_f+0x93>
    74e0:	66 0f ef c0          	pxor   %xmm0,%xmm0
    74e4:	66 0f 2e 45 f0       	ucomisd -0x10(%rbp),%xmm0
    74e9:	7a 0b                	jp     74f6 <safe_div_func_double_f_f+0x4f>
    74eb:	66 0f ef c0          	pxor   %xmm0,%xmm0
    74ef:	66 0f 2e 45 f0       	ucomisd -0x10(%rbp),%xmm0
    74f4:	74 50                	je     7546 <safe_div_func_double_f_f+0x9f>
    74f6:	f2 0f 10 4d f8       	movsd  -0x8(%rbp),%xmm1
    74fb:	f2 0f 10 05 05 05 01 	movsd  0x10505(%rip),%xmm0        # 17a08 <l_86.4730+0x108>
    7502:	00 
    7503:	f2 0f 59 c1          	mulsd  %xmm1,%xmm0
    7507:	f2 0f 10 55 f0       	movsd  -0x10(%rbp),%xmm2
    750c:	f2 0f 10 0d fc 04 01 	movsd  0x104fc(%rip),%xmm1        # 17a10 <l_86.4730+0x110>
    7513:	00 
    7514:	f2 0f 59 ca          	mulsd  %xmm2,%xmm1
    7518:	f2 0f 5e c1          	divsd  %xmm1,%xmm0
    751c:	f3 0f 7e 0d ac 04 01 	movq   0x104ac(%rip),%xmm1        # 179d0 <l_86.4730+0xd0>
    7523:	00 
    7524:	66 0f 54 c1          	andpd  %xmm1,%xmm0
    7528:	66 0f 2f 05 e8 04 01 	comisd 0x104e8(%rip),%xmm0        # 17a18 <l_86.4730+0x118>
    752f:	00 
    7530:	0f 97 c0             	seta   %al
    7533:	83 f0 01             	xor    $0x1,%eax
    7536:	84 c0                	test   %al,%al
    7538:	74 0c                	je     7546 <safe_div_func_double_f_f+0x9f>
    753a:	f2 0f 10 45 f8       	movsd  -0x8(%rbp),%xmm0
    753f:	f2 0f 5e 45 f0       	divsd  -0x10(%rbp),%xmm0
    7544:	eb 05                	jmp    754b <safe_div_func_double_f_f+0xa4>
    7546:	f2 0f 10 45 f8       	movsd  -0x8(%rbp),%xmm0
    754b:	5d                   	pop    %rbp
    754c:	c3                   	retq   

000000000000754d <safe_convert_func_float_to_int32_t>:
    754d:	f3 0f 1e fa          	endbr64 
    7551:	55                   	push   %rbp
    7552:	48 89 e5             	mov    %rsp,%rbp
    7555:	f3 0f 11 45 fc       	movss  %xmm0,-0x4(%rbp)
    755a:	f3 0f 10 05 be 04 01 	movss  0x104be(%rip),%xmm0        # 17a20 <l_86.4730+0x120>
    7561:	00 
    7562:	0f 2f 45 fc          	comiss -0x4(%rbp),%xmm0
    7566:	0f 93 c0             	setae  %al
    7569:	83 f0 01             	xor    $0x1,%eax
    756c:	84 c0                	test   %al,%al
    756e:	74 21                	je     7591 <safe_convert_func_float_to_int32_t+0x44>
    7570:	f3 0f 10 45 fc       	movss  -0x4(%rbp),%xmm0
    7575:	0f 2f 05 a8 04 01 00 	comiss 0x104a8(%rip),%xmm0        # 17a24 <l_86.4730+0x124>
    757c:	0f 93 c0             	setae  %al
    757f:	83 f0 01             	xor    $0x1,%eax
    7582:	84 c0                	test   %al,%al
    7584:	74 0b                	je     7591 <safe_convert_func_float_to_int32_t+0x44>
    7586:	f3 0f 10 45 fc       	movss  -0x4(%rbp),%xmm0
    758b:	f3 0f 2c c0          	cvttss2si %xmm0,%eax
    758f:	eb 05                	jmp    7596 <safe_convert_func_float_to_int32_t+0x49>
    7591:	b8 ff ff ff 7f       	mov    $0x7fffffff,%eax
    7596:	5d                   	pop    %rbp
    7597:	c3                   	retq   

0000000000007598 <crc32_gentab>:
    7598:	f3 0f 1e fa          	endbr64 
    759c:	55                   	push   %rbp
    759d:	48 89 e5             	mov    %rsp,%rbp
    75a0:	c7 45 fc 20 83 b8 ed 	movl   $0xedb88320,-0x4(%rbp)
    75a7:	c7 45 f4 00 00 00 00 	movl   $0x0,-0xc(%rbp)
    75ae:	eb 51                	jmp    7601 <crc32_gentab+0x69>
    75b0:	8b 45 f4             	mov    -0xc(%rbp),%eax
    75b3:	89 45 f0             	mov    %eax,-0x10(%rbp)
    75b6:	c7 45 f8 08 00 00 00 	movl   $0x8,-0x8(%rbp)
    75bd:	eb 1e                	jmp    75dd <crc32_gentab+0x45>
    75bf:	8b 45 f0             	mov    -0x10(%rbp),%eax
    75c2:	83 e0 01             	and    $0x1,%eax
    75c5:	85 c0                	test   %eax,%eax
    75c7:	74 0d                	je     75d6 <crc32_gentab+0x3e>
    75c9:	8b 45 f0             	mov    -0x10(%rbp),%eax
    75cc:	d1 e8                	shr    %eax
    75ce:	33 45 fc             	xor    -0x4(%rbp),%eax
    75d1:	89 45 f0             	mov    %eax,-0x10(%rbp)
    75d4:	eb 03                	jmp    75d9 <crc32_gentab+0x41>
    75d6:	d1 6d f0             	shrl   -0x10(%rbp)
    75d9:	83 6d f8 01          	subl   $0x1,-0x8(%rbp)
    75dd:	83 7d f8 00          	cmpl   $0x0,-0x8(%rbp)
    75e1:	7f dc                	jg     75bf <crc32_gentab+0x27>
    75e3:	8b 45 f4             	mov    -0xc(%rbp),%eax
    75e6:	48 98                	cltq   
    75e8:	48 8d 0c 85 00 00 00 	lea    0x0(,%rax,4),%rcx
    75ef:	00 
    75f0:	48 8d 15 c9 66 01 00 	lea    0x166c9(%rip),%rdx        # 1dcc0 <crc32_tab>
    75f7:	8b 45 f0             	mov    -0x10(%rbp),%eax
    75fa:	89 04 11             	mov    %eax,(%rcx,%rdx,1)
    75fd:	83 45 f4 01          	addl   $0x1,-0xc(%rbp)
    7601:	81 7d f4 ff 00 00 00 	cmpl   $0xff,-0xc(%rbp)
    7608:	7e a6                	jle    75b0 <crc32_gentab+0x18>
    760a:	90                   	nop
    760b:	90                   	nop
    760c:	5d                   	pop    %rbp
    760d:	c3                   	retq   

000000000000760e <crc32_byte>:
    760e:	f3 0f 1e fa          	endbr64 
    7612:	55                   	push   %rbp
    7613:	48 89 e5             	mov    %rsp,%rbp
    7616:	89 f8                	mov    %edi,%eax
    7618:	88 45 fc             	mov    %al,-0x4(%rbp)
    761b:	8b 05 ff 29 01 00    	mov    0x129ff(%rip),%eax        # 1a020 <crc32_context>
    7621:	c1 e8 08             	shr    $0x8,%eax
    7624:	89 c1                	mov    %eax,%ecx
    7626:	0f b6 55 fc          	movzbl -0x4(%rbp),%edx
    762a:	8b 05 f0 29 01 00    	mov    0x129f0(%rip),%eax        # 1a020 <crc32_context>
    7630:	31 d0                	xor    %edx,%eax
    7632:	0f b6 c0             	movzbl %al,%eax
    7635:	89 c0                	mov    %eax,%eax
    7637:	48 8d 14 85 00 00 00 	lea    0x0(,%rax,4),%rdx
    763e:	00 
    763f:	48 8d 05 7a 66 01 00 	lea    0x1667a(%rip),%rax        # 1dcc0 <crc32_tab>
    7646:	8b 04 02             	mov    (%rdx,%rax,1),%eax
    7649:	31 c8                	xor    %ecx,%eax
    764b:	89 05 cf 29 01 00    	mov    %eax,0x129cf(%rip)        # 1a020 <crc32_context>
    7651:	90                   	nop
    7652:	5d                   	pop    %rbp
    7653:	c3                   	retq   

0000000000007654 <crc32_8bytes>:
    7654:	f3 0f 1e fa          	endbr64 
    7658:	55                   	push   %rbp
    7659:	48 89 e5             	mov    %rsp,%rbp
    765c:	48 83 ec 08          	sub    $0x8,%rsp
    7660:	48 89 7d f8          	mov    %rdi,-0x8(%rbp)
    7664:	48 8b 45 f8          	mov    -0x8(%rbp),%rax
    7668:	0f b6 c0             	movzbl %al,%eax
    766b:	89 c7                	mov    %eax,%edi
    766d:	e8 9c ff ff ff       	callq  760e <crc32_byte>
    7672:	48 8b 45 f8          	mov    -0x8(%rbp),%rax
    7676:	48 c1 e8 08          	shr    $0x8,%rax
    767a:	0f b6 c0             	movzbl %al,%eax
    767d:	89 c7                	mov    %eax,%edi
    767f:	e8 8a ff ff ff       	callq  760e <crc32_byte>
    7684:	48 8b 45 f8          	mov    -0x8(%rbp),%rax
    7688:	48 c1 e8 10          	shr    $0x10,%rax
    768c:	0f b6 c0             	movzbl %al,%eax
    768f:	89 c7                	mov    %eax,%edi
    7691:	e8 78 ff ff ff       	callq  760e <crc32_byte>
    7696:	48 8b 45 f8          	mov    -0x8(%rbp),%rax
    769a:	48 c1 e8 18          	shr    $0x18,%rax
    769e:	0f b6 c0             	movzbl %al,%eax
    76a1:	89 c7                	mov    %eax,%edi
    76a3:	e8 66 ff ff ff       	callq  760e <crc32_byte>
    76a8:	48 8b 45 f8          	mov    -0x8(%rbp),%rax
    76ac:	48 c1 e8 20          	shr    $0x20,%rax
    76b0:	0f b6 c0             	movzbl %al,%eax
    76b3:	89 c7                	mov    %eax,%edi
    76b5:	e8 54 ff ff ff       	callq  760e <crc32_byte>
    76ba:	48 8b 45 f8          	mov    -0x8(%rbp),%rax
    76be:	48 c1 e8 28          	shr    $0x28,%rax
    76c2:	0f b6 c0             	movzbl %al,%eax
    76c5:	89 c7                	mov    %eax,%edi
    76c7:	e8 42 ff ff ff       	callq  760e <crc32_byte>
    76cc:	48 8b 45 f8          	mov    -0x8(%rbp),%rax
    76d0:	48 c1 e8 30          	shr    $0x30,%rax
    76d4:	0f b6 c0             	movzbl %al,%eax
    76d7:	89 c7                	mov    %eax,%edi
    76d9:	e8 30 ff ff ff       	callq  760e <crc32_byte>
    76de:	48 8b 45 f8          	mov    -0x8(%rbp),%rax
    76e2:	48 c1 e8 38          	shr    $0x38,%rax
    76e6:	0f b6 c0             	movzbl %al,%eax
    76e9:	89 c7                	mov    %eax,%edi
    76eb:	e8 1e ff ff ff       	callq  760e <crc32_byte>
    76f0:	90                   	nop
    76f1:	c9                   	leaveq 
    76f2:	c3                   	retq   

00000000000076f3 <transparent_crc>:
    76f3:	f3 0f 1e fa          	endbr64 
    76f7:	55                   	push   %rbp
    76f8:	48 89 e5             	mov    %rsp,%rbp
    76fb:	48 83 ec 20          	sub    $0x20,%rsp
    76ff:	48 89 7d f8          	mov    %rdi,-0x8(%rbp)
    7703:	48 89 75 f0          	mov    %rsi,-0x10(%rbp)
    7707:	89 55 ec             	mov    %edx,-0x14(%rbp)
    770a:	48 8b 45 f8          	mov    -0x8(%rbp),%rax
    770e:	48 89 c7             	mov    %rax,%rdi
    7711:	e8 3e ff ff ff       	callq  7654 <crc32_8bytes>
    7716:	83 7d ec 00          	cmpl   $0x0,-0x14(%rbp)
    771a:	74 22                	je     773e <transparent_crc+0x4b>
    771c:	8b 05 fe 28 01 00    	mov    0x128fe(%rip),%eax        # 1a020 <crc32_context>
    7722:	f7 d0                	not    %eax
    7724:	89 c2                	mov    %eax,%edx
    7726:	48 8b 45 f0          	mov    -0x10(%rbp),%rax
    772a:	48 89 c6             	mov    %rax,%rsi
    772d:	48 8d 3d fc e8 00 00 	lea    0xe8fc(%rip),%rdi        # 16030 <_IO_stdin_used+0x30>
    7734:	b8 00 00 00 00       	mov    $0x0,%eax
    7739:	e8 42 e9 ff ff       	callq  6080 <printf@plt>
    773e:	90                   	nop
    773f:	c9                   	leaveq 
    7740:	c3                   	retq   

0000000000007741 <transparent_crc_bytes>:
    7741:	f3 0f 1e fa          	endbr64 
    7745:	55                   	push   %rbp
    7746:	48 89 e5             	mov    %rsp,%rbp
    7749:	48 83 ec 30          	sub    $0x30,%rsp
    774d:	48 89 7d e8          	mov    %rdi,-0x18(%rbp)
    7751:	89 75 e4             	mov    %esi,-0x1c(%rbp)
    7754:	48 89 55 d8          	mov    %rdx,-0x28(%rbp)
    7758:	89 4d e0             	mov    %ecx,-0x20(%rbp)
    775b:	c7 45 fc 00 00 00 00 	movl   $0x0,-0x4(%rbp)
    7762:	eb 1e                	jmp    7782 <transparent_crc_bytes+0x41>
    7764:	8b 45 fc             	mov    -0x4(%rbp),%eax
    7767:	48 63 d0             	movslq %eax,%rdx
    776a:	48 8b 45 e8          	mov    -0x18(%rbp),%rax
    776e:	48 01 d0             	add    %rdx,%rax
    7771:	0f b6 00             	movzbl (%rax),%eax
    7774:	0f b6 c0             	movzbl %al,%eax
    7777:	89 c7                	mov    %eax,%edi
    7779:	e8 90 fe ff ff       	callq  760e <crc32_byte>
    777e:	83 45 fc 01          	addl   $0x1,-0x4(%rbp)
    7782:	8b 45 fc             	mov    -0x4(%rbp),%eax
    7785:	3b 45 e4             	cmp    -0x1c(%rbp),%eax
    7788:	7c da                	jl     7764 <transparent_crc_bytes+0x23>
    778a:	83 7d e0 00          	cmpl   $0x0,-0x20(%rbp)
    778e:	74 22                	je     77b2 <transparent_crc_bytes+0x71>
    7790:	8b 05 8a 28 01 00    	mov    0x1288a(%rip),%eax        # 1a020 <crc32_context>
    7796:	f7 d0                	not    %eax
    7798:	89 c2                	mov    %eax,%edx
    779a:	48 8b 45 d8          	mov    -0x28(%rbp),%rax
    779e:	48 89 c6             	mov    %rax,%rsi
    77a1:	48 8d 3d 88 e8 00 00 	lea    0xe888(%rip),%rdi        # 16030 <_IO_stdin_used+0x30>
    77a8:	b8 00 00 00 00       	mov    $0x0,%eax
    77ad:	e8 ce e8 ff ff       	callq  6080 <printf@plt>
    77b2:	90                   	nop
    77b3:	c9                   	leaveq 
    77b4:	c3                   	retq   

00000000000077b5 <func_1>:
    77b5:	f3 0f 1e fa          	endbr64 
    77b9:	55                   	push   %rbp
    77ba:	48 89 e5             	mov    %rsp,%rbp
    77bd:	41 56                	push   %r14
    77bf:	41 55                	push   %r13
    77c1:	41 54                	push   %r12
    77c3:	53                   	push   %rbx
    77c4:	48 81 ec 80 01 00 00 	sub    $0x180,%rsp
    77cb:	64 48 8b 04 25 28 00 	mov    %fs:0x28,%rax
    77d2:	00 00 
    77d4:	48 89 45 d8          	mov    %rax,-0x28(%rbp)
    77d8:	31 c0                	xor    %eax,%eax
    77da:	66 c7 85 6c fe ff ff 	movw   $0x9,-0x194(%rbp)
    77e1:	09 00 
    77e3:	48 8d 05 0a 29 01 00 	lea    0x1290a(%rip),%rax        # 1a0f4 <g_4+0xb4>
    77ea:	48 89 85 b0 fe ff ff 	mov    %rax,-0x150(%rbp)
    77f1:	48 c7 85 a0 fe ff ff 	movq   $0xfffffffffffffffb,-0x160(%rbp)
    77f8:	fb ff ff ff 
    77fc:	c7 85 84 fe ff ff a4 	movl   $0xe4cb63a4,-0x17c(%rbp)
    7803:	63 cb e4 
    7806:	c7 85 74 fe ff ff ff 	movl   $0xffffffff,-0x18c(%rbp)
    780d:	ff ff ff 
    7810:	c7 85 88 fe ff ff 00 	movl   $0x0,-0x178(%rbp)
    7817:	00 00 00 
    781a:	c7 85 78 fe ff ff 00 	movl   $0x0,-0x188(%rbp)
    7821:	00 00 00 
    7824:	eb 1e                	jmp    7844 <func_1+0x8f>
    7826:	8b 85 78 fe ff ff    	mov    -0x188(%rbp),%eax
    782c:	48 98                	cltq   
    782e:	48 8d 15 ab 59 01 00 	lea    0x159ab(%rip),%rdx        # 1d1e0 <g_371>
    7835:	48 89 94 c5 60 ff ff 	mov    %rdx,-0xa0(%rbp,%rax,8)
    783c:	ff 
    783d:	83 85 78 fe ff ff 01 	addl   $0x1,-0x188(%rbp)
    7844:	83 bd 78 fe ff ff 04 	cmpl   $0x4,-0x188(%rbp)
    784b:	7e d9                	jle    7826 <func_1+0x71>
    784d:	48 8b 85 b0 fe ff ff 	mov    -0x150(%rbp),%rax
    7854:	8b 10                	mov    (%rax),%edx
    7856:	0f b7 85 6c fe ff ff 	movzwl -0x194(%rbp),%eax
    785d:	31 c2                	xor    %eax,%edx
    785f:	48 8b 85 b0 fe ff ff 	mov    -0x150(%rbp),%rax
    7866:	89 10                	mov    %edx,(%rax)
    7868:	48 8d 3d 85 28 01 00 	lea    0x12885(%rip),%rdi        # 1a0f4 <g_4+0xb4>
    786f:	e8 4d 08 00 00       	callq  80c1 <func_5>
    7874:	48 89 05 ed 50 01 00 	mov    %rax,0x150ed(%rip)        # 1c968 <g_109>
    787b:	48 8b 85 b0 fe ff ff 	mov    -0x150(%rbp),%rax
    7882:	8b 00                	mov    (%rax),%eax
    7884:	0f bf d0             	movswl %ax,%edx
    7887:	0f b7 05 12 3a 01 00 	movzwl 0x13a12(%rip),%eax        # 1b2a0 <g_1027>
    788e:	98                   	cwtl   
    788f:	89 d6                	mov    %edx,%esi
    7891:	89 c7                	mov    %eax,%edi
    7893:	e8 7e eb ff ff       	callq  6416 <safe_mod_func_int16_t_s_s>
    7898:	66 85 c0             	test   %ax,%ax
    789b:	0f 84 a1 00 00 00    	je     7942 <func_1+0x18d>
    78a1:	48 b8 b8 47 85 b9 1b 	movabs $0xff35ef1bb98547b8,%rax
    78a8:	ef 35 ff 
    78ab:	48 89 45 90          	mov    %rax,-0x70(%rbp)
    78af:	48 c7 45 98 06 00 00 	movq   $0x6,-0x68(%rbp)
    78b6:	00 
    78b7:	48 89 45 a0          	mov    %rax,-0x60(%rbp)
    78bb:	48 c7 45 a8 06 00 00 	movq   $0x6,-0x58(%rbp)
    78c2:	00 
    78c3:	48 89 45 b0          	mov    %rax,-0x50(%rbp)
    78c7:	48 c7 45 b8 06 00 00 	movq   $0x6,-0x48(%rbp)
    78ce:	00 
    78cf:	48 89 45 c0          	mov    %rax,-0x40(%rbp)
    78d3:	48 c7 45 c8 06 00 00 	movq   $0x6,-0x38(%rbp)
    78da:	00 
    78db:	c7 85 98 fe ff ff b9 	movl   $0xc01f6eb9,-0x168(%rbp)
    78e2:	6e 1f c0 
    78e5:	c7 85 9c fe ff ff 02 	movl   $0x2,-0x164(%rbp)
    78ec:	00 00 00 
    78ef:	48 b8 3d 8b ee c3 09 	movabs $0x1e272409c3ee8b3d,%rax
    78f6:	24 27 1e 
    78f9:	48 89 85 f8 fe ff ff 	mov    %rax,-0x108(%rbp)
    7900:	48 8b 85 b0 fe ff ff 	mov    -0x150(%rbp),%rax
    7907:	8b 00                	mov    (%rax),%eax
    7909:	89 c2                	mov    %eax,%edx
    790b:	48 8b 45 a0          	mov    -0x60(%rbp),%rax
    790f:	31 d0                	xor    %edx,%eax
    7911:	89 c2                	mov    %eax,%edx
    7913:	48 8b 85 b0 fe ff ff 	mov    -0x150(%rbp),%rax
    791a:	89 10                	mov    %edx,(%rax)
    791c:	48 8b 85 b0 fe ff ff 	mov    -0x150(%rbp),%rax
    7923:	8b 00                	mov    (%rax),%eax
    7925:	89 85 98 fe ff ff    	mov    %eax,-0x168(%rbp)
    792b:	48 8b 85 a0 fe ff ff 	mov    -0x160(%rbp),%rax
    7932:	48 83 e8 01          	sub    $0x1,%rax
    7936:	48 89 85 a0 fe ff ff 	mov    %rax,-0x160(%rbp)
    793d:	e9 46 07 00 00       	jmpq   8088 <func_1+0x8d3>
    7942:	c7 85 7c fe ff ff fb 	movl   $0x19f758fb,-0x184(%rbp)
    7949:	58 f7 19 
    794c:	c7 85 70 fe ff ff 00 	movl   $0x0,-0x190(%rbp)
    7953:	00 00 00 
    7956:	48 b8 05 47 8b aa aa 	movabs $0x5478baaaa8b4705,%rax
    795d:	8b 47 05 
    7960:	48 89 85 20 ff ff ff 	mov    %rax,-0xe0(%rbp)
    7967:	c6 85 28 ff ff ff 47 	movb   $0x47,-0xd8(%rbp)
    796e:	48 b8 01 b5 8b 8b b5 	movabs $0x1aa01b58b8bb501,%rax
    7975:	01 aa 01 
    7978:	48 89 85 29 ff ff ff 	mov    %rax,-0xd7(%rbp)
    797f:	c6 85 31 ff ff ff b5 	movb   $0xb5,-0xcf(%rbp)
    7986:	8b 85 7c fe ff ff    	mov    -0x184(%rbp),%eax
    798c:	23 85 84 fe ff ff    	and    -0x17c(%rbp),%eax
    7992:	89 85 7c fe ff ff    	mov    %eax,-0x184(%rbp)
    7998:	48 8b 85 b0 fe ff ff 	mov    -0x150(%rbp),%rax
    799f:	8b 00                	mov    (%rax),%eax
    79a1:	33 85 7c fe ff ff    	xor    -0x184(%rbp),%eax
    79a7:	89 c2                	mov    %eax,%edx
    79a9:	48 8b 85 b0 fe ff ff 	mov    -0x150(%rbp),%rax
    79b0:	89 10                	mov    %edx,(%rax)
    79b2:	c6 05 38 2c 01 00 05 	movb   $0x5,0x12c38(%rip)        # 1a5f1 <g_688+0x11>
    79b9:	e9 bb 06 00 00       	jmpq   8079 <func_1+0x8c4>
    79be:	48 8d 05 43 3a 01 00 	lea    0x13a43(%rip),%rax        # 1b408 <g_1132>
    79c5:	48 89 85 b8 fe ff ff 	mov    %rax,-0x148(%rbp)
    79cc:	48 8d 05 83 39 01 00 	lea    0x13983(%rip),%rax        # 1b356 <g_1033+0x76>
    79d3:	48 89 85 c0 fe ff ff 	mov    %rax,-0x140(%rbp)
    79da:	c7 85 40 ff ff ff dd 	movl   $0xc03efdd,-0xc0(%rbp)
    79e1:	ef 03 0c 
    79e4:	c7 85 44 ff ff ff dd 	movl   $0xc03efdd,-0xbc(%rbp)
    79eb:	ef 03 0c 
    79ee:	c7 85 48 ff ff ff dd 	movl   $0xc03efdd,-0xb8(%rbp)
    79f5:	ef 03 0c 
    79f8:	c7 85 4c ff ff ff dd 	movl   $0xc03efdd,-0xb4(%rbp)
    79ff:	ef 03 0c 
    7a02:	c7 85 50 ff ff ff dd 	movl   $0xc03efdd,-0xb0(%rbp)
    7a09:	ef 03 0c 
    7a0c:	c7 85 54 ff ff ff dd 	movl   $0xc03efdd,-0xac(%rbp)
    7a13:	ef 03 0c 
    7a16:	c7 85 8c fe ff ff 15 	movl   $0xf5c1e15,-0x174(%rbp)
    7a1d:	1e 5c 0f 
    7a20:	8b 9d 40 ff ff ff    	mov    -0xc0(%rbp),%ebx
    7a26:	8b 95 40 ff ff ff    	mov    -0xc0(%rbp),%edx
    7a2c:	48 8b 05 bd 59 01 00 	mov    0x159bd(%rip),%rax        # 1d3f0 <g_1377>
    7a33:	0f b6 00             	movzbl (%rax),%eax
    7a36:	0f b6 c0             	movzbl %al,%eax
    7a39:	31 d0                	xor    %edx,%eax
    7a3b:	89 c6                	mov    %eax,%esi
    7a3d:	bf ab ff ff ff       	mov    $0xffffffab,%edi
    7a42:	e8 ee e8 ff ff       	callq  6335 <safe_rshift_func_int8_t_s_s>
    7a47:	48 8b 85 c0 fe ff ff 	mov    -0x140(%rbp),%rax
    7a4e:	0f b7 00             	movzwl (%rax),%eax
    7a51:	83 c8 f8             	or     $0xfffffff8,%eax
    7a54:	89 c2                	mov    %eax,%edx
    7a56:	48 8b 85 c0 fe ff ff 	mov    -0x140(%rbp),%rax
    7a5d:	66 89 10             	mov    %dx,(%rax)
    7a60:	48 8b 85 c0 fe ff ff 	mov    -0x140(%rbp),%rax
    7a67:	0f b7 10             	movzwl (%rax),%edx
    7a6a:	48 8b 85 b8 fe ff ff 	mov    -0x148(%rbp),%rax
    7a71:	66 89 10             	mov    %dx,(%rax)
    7a74:	48 8b 85 b8 fe ff ff 	mov    -0x148(%rbp),%rax
    7a7b:	0f b7 00             	movzwl (%rax),%eax
    7a7e:	0f bf d0             	movswl %ax,%edx
    7a81:	48 8b 85 b0 fe ff ff 	mov    -0x150(%rbp),%rax
    7a88:	8b 00                	mov    (%rax),%eax
    7a8a:	39 c2                	cmp    %eax,%edx
    7a8c:	0f 9c c0             	setl   %al
    7a8f:	44 0f b6 e0          	movzbl %al,%r12d
    7a93:	0f b7 05 66 37 01 00 	movzwl 0x13766(%rip),%eax        # 1b200 <g_948>
    7a9a:	0f b7 c0             	movzwl %ax,%eax
    7a9d:	48 89 c7             	mov    %rax,%rdi
    7aa0:	e8 71 ed ff ff       	callq  6816 <safe_unary_minus_func_int64_t_s>
    7aa5:	83 e0 01             	and    $0x1,%eax
    7aa8:	49 39 c4             	cmp    %rax,%r12
    7aab:	8b 85 4c ff ff ff    	mov    -0xb4(%rbp),%eax
    7ab1:	89 de                	mov    %ebx,%esi
    7ab3:	89 c7                	mov    %eax,%edi
    7ab5:	e8 4b eb ff ff       	callq  6605 <safe_sub_func_int32_t_s_s>
    7aba:	31 85 74 fe ff ff    	xor    %eax,-0x18c(%rbp)
    7ac0:	83 bd 74 fe ff ff f9 	cmpl   $0xfffffff9,-0x18c(%rbp)
    7ac7:	0f 96 c0             	setbe  %al
    7aca:	0f b6 c0             	movzbl %al,%eax
    7acd:	09 85 8c fe ff ff    	or     %eax,-0x174(%rbp)
    7ad3:	8b 05 ef 3c 01 00    	mov    0x13cef(%rip),%eax        # 1b7c8 <g_1765>
    7ad9:	83 c0 01             	add    $0x1,%eax
    7adc:	89 05 e6 3c 01 00    	mov    %eax,0x13ce6(%rip)        # 1b7c8 <g_1765>
    7ae2:	c7 05 dc 3c 01 00 00 	movl   $0x0,0x13cdc(%rip)        # 1b7c8 <g_1765>
    7ae9:	00 00 00 
    7aec:	e9 66 05 00 00       	jmpq   8057 <func_1+0x8a2>
    7af1:	48 c7 85 c8 fe ff ff 	movq   $0x0,-0x138(%rbp)
    7af8:	00 00 00 00 
    7afc:	48 c7 85 d0 fe ff ff 	movq   $0x0,-0x130(%rbp)
    7b03:	00 00 00 00 
    7b07:	48 8d 85 a0 fe ff ff 	lea    -0x160(%rbp),%rax
    7b0e:	48 89 85 d8 fe ff ff 	mov    %rax,-0x128(%rbp)
    7b15:	c7 85 90 fe ff ff 00 	movl   $0x0,-0x170(%rbp)
    7b1c:	00 00 00 
    7b1f:	c7 85 94 fe ff ff d5 	movl   $0x5ff8fad5,-0x16c(%rbp)
    7b26:	fa f8 5f 
    7b29:	48 8d 05 d8 29 01 00 	lea    0x129d8(%rip),%rax        # 1a508 <g_286>
    7b30:	48 89 85 e0 fe ff ff 	mov    %rax,-0x120(%rbp)
    7b37:	c6 85 04 ff ff ff 18 	movb   $0x18,-0xfc(%rbp)
    7b3e:	c6 85 05 ff ff ff 68 	movb   $0x68,-0xfb(%rbp)
    7b45:	c6 85 06 ff ff ff 18 	movb   $0x18,-0xfa(%rbp)
    7b4c:	c6 85 07 ff ff ff 68 	movb   $0x68,-0xf9(%rbp)
    7b53:	c6 85 08 ff ff ff 18 	movb   $0x18,-0xf8(%rbp)
    7b5a:	c6 85 09 ff ff ff 68 	movb   $0x68,-0xf7(%rbp)
    7b61:	c6 85 0a ff ff ff 18 	movb   $0x18,-0xf6(%rbp)
    7b68:	c6 85 0b ff ff ff 68 	movb   $0x68,-0xf5(%rbp)
    7b6f:	c6 85 0c ff ff ff 18 	movb   $0x18,-0xf4(%rbp)
    7b76:	c6 85 0d ff ff ff 68 	movb   $0x68,-0xf3(%rbp)
    7b7d:	c6 85 0e ff ff ff 18 	movb   $0x18,-0xf2(%rbp)
    7b84:	c6 85 0f ff ff ff 68 	movb   $0x68,-0xf1(%rbp)
    7b8b:	c6 85 6b fe ff ff 12 	movb   $0x12,-0x195(%rbp)
    7b92:	48 8d 05 97 25 01 00 	lea    0x12597(%rip),%rax        # 1a130 <g_23+0x10>
    7b99:	48 89 85 e8 fe ff ff 	mov    %rax,-0x118(%rbp)
    7ba0:	c7 85 80 fe ff ff 00 	movl   $0x0,-0x180(%rbp)
    7ba7:	00 00 00 
    7baa:	eb 1e                	jmp    7bca <func_1+0x415>
    7bac:	8b 85 80 fe ff ff    	mov    -0x180(%rbp),%eax
    7bb2:	48 98                	cltq   
    7bb4:	48 8d 15 51 3b 01 00 	lea    0x13b51(%rip),%rdx        # 1b70c <g_1633+0xc>
    7bbb:	48 89 94 c5 10 ff ff 	mov    %rdx,-0xf0(%rbp,%rax,8)
    7bc2:	ff 
    7bc3:	83 85 80 fe ff ff 01 	addl   $0x1,-0x180(%rbp)
    7bca:	83 bd 80 fe ff ff 01 	cmpl   $0x1,-0x180(%rbp)
    7bd1:	7e d9                	jle    7bac <func_1+0x3f7>
    7bd3:	c7 85 80 fe ff ff 00 	movl   $0x0,-0x180(%rbp)
    7bda:	00 00 00 
    7bdd:	eb 17                	jmp    7bf6 <func_1+0x441>
    7bdf:	8b 85 80 fe ff ff    	mov    -0x180(%rbp),%eax
    7be5:	48 98                	cltq   
    7be7:	c7 44 85 90 01 00 00 	movl   $0x1,-0x70(%rbp,%rax,4)
    7bee:	00 
    7bef:	83 85 80 fe ff ff 01 	addl   $0x1,-0x180(%rbp)
    7bf6:	83 bd 80 fe ff ff 06 	cmpl   $0x6,-0x180(%rbp)
    7bfd:	7e e0                	jle    7bdf <func_1+0x42a>
    7bff:	0f b7 05 ea 28 01 00 	movzwl 0x128ea(%rip),%eax        # 1a4f0 <g_243>
    7c06:	66 85 c0             	test   %ax,%ax
    7c09:	74 05                	je     7c10 <func_1+0x45b>
    7c0b:	e9 76 fd ff ff       	jmpq   7986 <func_1+0x1d1>
    7c10:	0f b6 85 21 ff ff ff 	movzbl -0xdf(%rbp),%eax
    7c17:	44 0f b6 e0          	movzbl %al,%r12d
    7c1b:	8b 85 40 ff ff ff    	mov    -0xc0(%rbp),%eax
    7c21:	0f b7 d8             	movzwl %ax,%ebx
    7c24:	c7 85 7c fe ff ff 1c 	movl   $0xd2d53d1c,-0x184(%rbp)
    7c2b:	3d d5 d2 
    7c2e:	48 8b 85 d8 fe ff ff 	mov    -0x128(%rbp),%rax
    7c35:	48 c7 00 1c 3d d5 d2 	movq   $0xffffffffd2d53d1c,(%rax)
    7c3c:	0f b6 85 0a ff ff ff 	movzbl -0xf6(%rbp),%eax
    7c43:	44 0f be e8          	movsbl %al,%r13d
    7c47:	8b 95 90 fe ff ff    	mov    -0x170(%rbp),%edx
    7c4d:	8b 85 90 fe ff ff    	mov    -0x170(%rbp),%eax
    7c53:	89 d6                	mov    %edx,%esi
    7c55:	89 c7                	mov    %eax,%edi
    7c57:	e8 a3 ea ff ff       	callq  66ff <safe_div_func_int32_t_s_s>
    7c5c:	39 85 8c fe ff ff    	cmp    %eax,-0x174(%rbp)
    7c62:	0f 94 c0             	sete   %al
    7c65:	0f b6 c0             	movzbl %al,%eax
    7c68:	89 c7                	mov    %eax,%edi
    7c6a:	e8 2e e7 ff ff       	callq  639d <safe_unary_minus_func_int16_t_s>
    7c6f:	41 be 01 00 00 00    	mov    $0x1,%r14d
    7c75:	8b 85 70 fe ff ff    	mov    -0x190(%rbp),%eax
    7c7b:	0f b6 c0             	movzbl %al,%eax
    7c7e:	be 03 00 00 00       	mov    $0x3,%esi
    7c83:	89 c7                	mov    %eax,%edi
    7c85:	e8 03 f0 ff ff       	callq  6c8d <safe_rshift_func_uint8_t_u_s>
    7c8a:	0f b6 d0             	movzbl %al,%edx
    7c8d:	48 8b 85 e0 fe ff ff 	mov    -0x120(%rbp),%rax
    7c94:	48 8b 00             	mov    (%rax),%rax
    7c97:	4c 89 f1             	mov    %r14,%rcx
    7c9a:	48 21 c1             	and    %rax,%rcx
    7c9d:	48 8b 85 e0 fe ff ff 	mov    -0x120(%rbp),%rax
    7ca4:	48 89 08             	mov    %rcx,(%rax)
    7ca7:	48 8b 85 e0 fe ff ff 	mov    -0x120(%rbp),%rax
    7cae:	48 8b 00             	mov    (%rax),%rax
    7cb1:	48 21 d0             	and    %rdx,%rax
    7cb4:	48 83 f8 ff          	cmp    $0xffffffffffffffff,%rax
    7cb8:	0f 94 c0             	sete   %al
    7cbb:	0f b6 c0             	movzbl %al,%eax
    7cbe:	89 c6                	mov    %eax,%esi
    7cc0:	bf 01 00 00 00       	mov    $0x1,%edi
    7cc5:	e8 35 f0 ff ff       	callq  6cff <safe_add_func_uint16_t_u_u>
    7cca:	0f b7 c0             	movzwl %ax,%eax
    7ccd:	44 89 ee             	mov    %r13d,%esi
    7cd0:	89 c7                	mov    %eax,%edi
    7cd2:	e8 df e8 ff ff       	callq  65b6 <safe_add_func_int32_t_s_s>
    7cd7:	48 8b 85 b0 fe ff ff 	mov    -0x150(%rbp),%rax
    7cde:	8b 00                	mov    (%rax),%eax
    7ce0:	0f be c0             	movsbl %al,%eax
    7ce3:	be 01 00 00 00       	mov    $0x1,%esi
    7ce8:	89 c7                	mov    %eax,%edi
    7cea:	e8 b2 e5 ff ff       	callq  62a1 <safe_lshift_func_int8_t_s_s>
    7cef:	0f be c0             	movsbl %al,%eax
    7cf2:	89 c7                	mov    %eax,%edi
    7cf4:	e8 c6 e4 ff ff       	callq  61bf <safe_unary_minus_func_int8_t_s>
    7cf9:	0f be c0             	movsbl %al,%eax
    7cfc:	0b 85 94 fe ff ff    	or     -0x16c(%rbp),%eax
    7d02:	85 c0                	test   %eax,%eax
    7d04:	74 13                	je     7d19 <func_1+0x564>
    7d06:	48 8b 05 bb 2a 01 00 	mov    0x12abb(%rip),%rax        # 1a7c8 <g_823>
    7d0d:	48 85 c0             	test   %rax,%rax
    7d10:	74 07                	je     7d19 <func_1+0x564>
    7d12:	b8 01 00 00 00       	mov    $0x1,%eax
    7d17:	eb 05                	jmp    7d1e <func_1+0x569>
    7d19:	b8 00 00 00 00       	mov    $0x0,%eax
    7d1e:	0f b6 c0             	movzbl %al,%eax
    7d21:	0f b7 15 b0 27 01 00 	movzwl 0x127b0(%rip),%edx        # 1a4d8 <g_214+0x8>
    7d28:	0f b7 d2             	movzwl %dx,%edx
    7d2b:	89 15 77 27 01 00    	mov    %edx,0x12777(%rip)        # 1a4a8 <g_141+0x8>
    7d31:	48 8b 15 c0 56 01 00 	mov    0x156c0(%rip),%rdx        # 1d3f8 <g_1376>
    7d38:	48 8b 12             	mov    (%rdx),%rdx
    7d3b:	c6 02 01             	movb   $0x1,(%rdx)
    7d3e:	89 c6                	mov    %eax,%esi
    7d40:	bf 01 00 00 00       	mov    $0x1,%edi
    7d45:	e8 91 ee ff ff       	callq  6bdb <safe_div_func_uint8_t_u_u>
    7d4a:	8b 85 40 ff ff ff    	mov    -0xc0(%rbp),%eax
    7d50:	83 f8 01             	cmp    $0x1,%eax
    7d53:	0f 9e c0             	setle  %al
    7d56:	0f b6 c0             	movzbl %al,%eax
    7d59:	be 02 00 00 00       	mov    $0x2,%esi
    7d5e:	89 c7                	mov    %eax,%edi
    7d60:	e8 f0 e6 ff ff       	callq  6455 <safe_div_func_int16_t_s_s>
    7d65:	0f b7 c0             	movzwl %ax,%eax
    7d68:	be 0a 00 00 00       	mov    $0xa,%esi
    7d6d:	89 c7                	mov    %eax,%edi
    7d6f:	e8 d4 f0 ff ff       	callq  6e48 <safe_rshift_func_uint16_t_u_s>
    7d74:	48 8b 05 45 54 01 00 	mov    0x15445(%rip),%rax        # 1d1c0 <g_271>
    7d7b:	8b 30                	mov    (%rax),%esi
    7d7d:	8b 05 01 35 01 00    	mov    0x13501(%rip),%eax        # 1b284 <g_1025+0x4>
    7d83:	48 98                	cltq   
    7d85:	4c 8b 2d 54 54 01 00 	mov    0x15454(%rip),%r13        # 1d1e0 <g_371>
    7d8c:	48 8d 95 70 fe ff ff 	lea    -0x190(%rbp),%rdx
    7d93:	49 89 d0             	mov    %rdx,%r8
    7d96:	44 89 e1             	mov    %r12d,%ecx
    7d99:	89 da                	mov    %ebx,%edx
    7d9b:	48 89 c7             	mov    %rax,%rdi
    7d9e:	e8 4a 94 00 00       	callq  111ed <func_73>
    7da3:	49 89 45 00          	mov    %rax,0x0(%r13)
    7da7:	8b 9d 40 ff ff ff    	mov    -0xc0(%rbp),%ebx
    7dad:	8b 15 15 3a 01 00    	mov    0x13a15(%rip),%edx        # 1b7c8 <g_1765>
    7db3:	8b 05 0f 3a 01 00    	mov    0x13a0f(%rip),%eax        # 1b7c8 <g_1765>
    7db9:	83 c0 01             	add    $0x1,%eax
    7dbc:	89 c1                	mov    %eax,%ecx
    7dbe:	89 d2                	mov    %edx,%edx
    7dc0:	48 89 d0             	mov    %rdx,%rax
    7dc3:	48 c1 e0 02          	shl    $0x2,%rax
    7dc7:	48 01 d0             	add    %rdx,%rax
    7dca:	48 01 c0             	add    %rax,%rax
    7dcd:	48 01 c8             	add    %rcx,%rax
    7dd0:	48 8d 14 85 00 00 00 	lea    0x0(,%rax,4),%rdx
    7dd7:	00 
    7dd8:	48 8d 05 61 22 01 00 	lea    0x12261(%rip),%rax        # 1a040 <g_4>
    7ddf:	8b 04 02             	mov    (%rdx,%rax,1),%eax
    7de2:	8b 35 e0 39 01 00    	mov    0x139e0(%rip),%esi        # 1b7c8 <g_1765>
    7de8:	8b 15 da 39 01 00    	mov    0x139da(%rip),%edx        # 1b7c8 <g_1765>
    7dee:	44 8d 42 01          	lea    0x1(%rdx),%r8d
    7df2:	35 9e ba 50 74       	xor    $0x7450ba9e,%eax
    7df7:	89 c1                	mov    %eax,%ecx
    7df9:	44 89 c7             	mov    %r8d,%edi
    7dfc:	89 f2                	mov    %esi,%edx
    7dfe:	48 89 d0             	mov    %rdx,%rax
    7e01:	48 c1 e0 02          	shl    $0x2,%rax
    7e05:	48 01 d0             	add    %rdx,%rax
    7e08:	48 01 c0             	add    %rax,%rax
    7e0b:	48 01 f8             	add    %rdi,%rax
    7e0e:	48 8d 14 85 00 00 00 	lea    0x0(,%rax,4),%rdx
    7e15:	00 
    7e16:	48 8d 05 23 22 01 00 	lea    0x12223(%rip),%rax        # 1a040 <g_4>
    7e1d:	89 0c 02             	mov    %ecx,(%rdx,%rax,1)
    7e20:	44 89 c1             	mov    %r8d,%ecx
    7e23:	89 f2                	mov    %esi,%edx
    7e25:	48 89 d0             	mov    %rdx,%rax
    7e28:	48 c1 e0 02          	shl    $0x2,%rax
    7e2c:	48 01 d0             	add    %rdx,%rax
    7e2f:	48 01 c0             	add    %rax,%rax
    7e32:	48 01 c8             	add    %rcx,%rax
    7e35:	48 8d 14 85 00 00 00 	lea    0x0(,%rax,4),%rdx
    7e3c:	00 
    7e3d:	48 8d 05 fc 21 01 00 	lea    0x121fc(%rip),%rax        # 1a040 <g_4>
    7e44:	44 8b 24 02          	mov    (%rdx,%rax,1),%r12d
    7e48:	8b 05 9a 38 01 00    	mov    0x1389a(%rip),%eax        # 1b6e8 <g_1632>
    7e4e:	41 89 c5             	mov    %eax,%r13d
    7e51:	8b 45 98             	mov    -0x68(%rbp),%eax
    7e54:	0f b7 c0             	movzwl %ax,%eax
    7e57:	89 c6                	mov    %eax,%esi
    7e59:	bf 07 00 00 00       	mov    $0x7,%edi
    7e5e:	e8 f9 ee ff ff       	callq  6d5c <safe_mod_func_uint16_t_u_u>
    7e63:	0f b6 85 25 ff ff ff 	movzbl -0xdb(%rbp),%eax
    7e6a:	0f b6 d0             	movzbl %al,%edx
    7e6d:	48 8b 05 8c 62 01 00 	mov    0x1628c(%rip),%rax        # 1e100 <g_372>
    7e74:	8b 08                	mov    (%rax),%ecx
    7e76:	0f b6 85 6b fe ff ff 	movzbl -0x195(%rbp),%eax
    7e7d:	39 c1                	cmp    %eax,%ecx
    7e7f:	0f 94 c0             	sete   %al
    7e82:	0f b6 c0             	movzbl %al,%eax
    7e85:	39 c2                	cmp    %eax,%edx
    7e87:	0f 9d c0             	setge  %al
    7e8a:	0f b6 c0             	movzbl %al,%eax
    7e8d:	4c 89 ee             	mov    %r13,%rsi
    7e90:	48 89 c7             	mov    %rax,%rdi
    7e93:	e8 10 ea ff ff       	callq  68a8 <safe_sub_func_int64_t_s_s>
    7e98:	48 83 f8 53          	cmp    $0x53,%rax
    7e9c:	0f 9f c0             	setg   %al
    7e9f:	0f b6 c0             	movzbl %al,%eax
    7ea2:	41 39 c4             	cmp    %eax,%r12d
    7ea5:	0f 9d c0             	setge  %al
    7ea8:	0f b6 d0             	movzbl %al,%edx
    7eab:	48 8b 05 46 55 01 00 	mov    0x15546(%rip),%rax        # 1d3f8 <g_1376>
    7eb2:	48 8b 00             	mov    (%rax),%rax
    7eb5:	0f b6 00             	movzbl (%rax),%eax
    7eb8:	0f b6 c0             	movzbl %al,%eax
    7ebb:	39 c2                	cmp    %eax,%edx
    7ebd:	0f 9d c0             	setge  %al
    7ec0:	0f b6 c0             	movzbl %al,%eax
    7ec3:	be 02 00 00 00       	mov    $0x2,%esi
    7ec8:	89 c7                	mov    %eax,%edi
    7eca:	e8 6e ee ff ff       	callq  6d3d <safe_mul_func_uint16_t_u_u>
    7ecf:	48 8b 05 ea 33 01 00 	mov    0x133ea(%rip),%rax        # 1b2c0 <g_1027+0x20>
    7ed6:	0f be d0             	movsbl %al,%edx
    7ed9:	48 8b 05 80 24 01 00 	mov    0x12480(%rip),%rax        # 1a360 <g_59+0x40>
    7ee0:	0f be c0             	movsbl %al,%eax
    7ee3:	89 d6                	mov    %edx,%esi
    7ee5:	89 c7                	mov    %eax,%edi
    7ee7:	e8 7e e3 ff ff       	callq  626a <safe_div_func_int8_t_s_s>
    7eec:	0f be c0             	movsbl %al,%eax
    7eef:	39 c3                	cmp    %eax,%ebx
    7ef1:	0f 9d c0             	setge  %al
    7ef4:	0f b6 c0             	movzbl %al,%eax
    7ef7:	0b 85 88 fe ff ff    	or     -0x178(%rbp),%eax
    7efd:	89 c6                	mov    %eax,%esi
    7eff:	bf 3f db 9a da       	mov    $0xda9adb3f,%edi
    7f04:	e8 c3 e7 ff ff       	callq  66cc <safe_mod_func_int32_t_s_s>
    7f09:	48 c7 c3 f7 ff ff ff 	mov    $0xfffffffffffffff7,%rbx
    7f10:	0f b7 05 29 38 01 00 	movzwl 0x13829(%rip),%eax        # 1b740 <g_1669>
    7f17:	0f b7 d0             	movzwl %ax,%edx
    7f1a:	0f b6 85 0a ff ff ff 	movzbl -0xf6(%rbp),%eax
    7f21:	66 98                	cbtw   
    7f23:	0f b7 c0             	movzwl %ax,%eax
    7f26:	89 d6                	mov    %edx,%esi
    7f28:	89 c7                	mov    %eax,%edi
    7f2a:	e8 d0 ed ff ff       	callq  6cff <safe_add_func_uint16_t_u_u>
    7f2f:	89 c1                	mov    %eax,%ecx
    7f31:	48 8b 85 e8 fe ff ff 	mov    -0x118(%rbp),%rax
    7f38:	0f b7 00             	movzwl (%rax),%eax
    7f3b:	89 c2                	mov    %eax,%edx
    7f3d:	89 d8                	mov    %ebx,%eax
    7f3f:	09 d0                	or     %edx,%eax
    7f41:	89 c2                	mov    %eax,%edx
    7f43:	48 8b 85 e8 fe ff ff 	mov    -0x118(%rbp),%rax
    7f4a:	66 89 10             	mov    %dx,(%rax)
    7f4d:	48 8b 85 e8 fe ff ff 	mov    -0x118(%rbp),%rax
    7f54:	0f b7 00             	movzwl (%rax),%eax
    7f57:	31 c8                	xor    %ecx,%eax
    7f59:	0f be c0             	movsbl %al,%eax
    7f5c:	be 05 00 00 00       	mov    $0x5,%esi
    7f61:	89 c7                	mov    %eax,%edi
    7f63:	e8 04 e4 ff ff       	callq  636c <safe_rshift_func_int8_t_s_u>
    7f68:	84 c0                	test   %al,%al
    7f6a:	74 56                	je     7fc2 <func_1+0x80d>
    7f6c:	66 c7 85 6e fe ff ff 	movw   $0x1,-0x192(%rbp)
    7f73:	01 00 
    7f75:	48 8d 05 14 26 01 00 	lea    0x12614(%rip),%rax        # 1a590 <g_518>
    7f7c:	48 89 85 a8 fe ff ff 	mov    %rax,-0x158(%rbp)
    7f83:	48 8d 85 a8 fe ff ff 	lea    -0x158(%rbp),%rax
    7f8a:	48 89 85 f0 fe ff ff 	mov    %rax,-0x110(%rbp)
    7f91:	48 8b 05 68 61 01 00 	mov    0x16168(%rip),%rax        # 1e100 <g_372>
    7f98:	0f b7 95 6e fe ff ff 	movzwl -0x192(%rbp),%edx
    7f9f:	89 10                	mov    %edx,(%rax)
    7fa1:	8b 85 40 ff ff ff    	mov    -0xc0(%rbp),%eax
    7fa7:	85 c0                	test   %eax,%eax
    7fa9:	0f 85 99 00 00 00    	jne    8048 <func_1+0x893>
    7faf:	48 8b 85 f0 fe ff ff 	mov    -0x110(%rbp),%rax
    7fb6:	48 8d 15 d3 25 01 00 	lea    0x125d3(%rip),%rdx        # 1a590 <g_518>
    7fbd:	48 89 10             	mov    %rdx,(%rax)
    7fc0:	eb 11                	jmp    7fd3 <func_1+0x81e>
    7fc2:	48 8b 85 b0 fe ff ff 	mov    -0x150(%rbp),%rax
    7fc9:	8b 00                	mov    (%rax),%eax
    7fcb:	85 c0                	test   %eax,%eax
    7fcd:	0f 85 95 00 00 00    	jne    8068 <func_1+0x8b3>
    7fd3:	c7 05 0f 26 01 00 00 	movl   $0x0,0x1260f(%rip)        # 1a5ec <g_688+0xc>
    7fda:	00 00 00 
    7fdd:	eb 5e                	jmp    803d <func_1+0x888>
    7fdf:	0f b6 85 21 ff ff ff 	movzbl -0xdf(%rbp),%eax
    7fe6:	0f b6 c0             	movzbl %al,%eax
    7fe9:	48 89 05 18 25 01 00 	mov    %rax,0x12518(%rip)        # 1a508 <g_286>
    7ff0:	48 8b 05 11 25 01 00 	mov    0x12511(%rip),%rax        # 1a508 <g_286>
    7ff7:	48 85 c0             	test   %rax,%rax
    7ffa:	75 1b                	jne    8017 <func_1+0x862>
    7ffc:	0f b6 85 0a ff ff ff 	movzbl -0xf6(%rbp),%eax
    8003:	0f be c0             	movsbl %al,%eax
    8006:	be 02 00 00 00       	mov    $0x2,%esi
    800b:	89 c7                	mov    %eax,%edi
    800d:	e8 80 e4 ff ff       	callq  6492 <safe_lshift_func_int16_t_s_s>
    8012:	66 85 c0             	test   %ax,%ax
    8015:	74 07                	je     801e <func_1+0x869>
    8017:	b8 01 00 00 00       	mov    $0x1,%eax
    801c:	eb 05                	jmp    8023 <func_1+0x86e>
    801e:	b8 00 00 00 00       	mov    $0x0,%eax
    8023:	0d b2 71 07 b7       	or     $0xb70771b2,%eax
    8028:	89 85 90 fe ff ff    	mov    %eax,-0x170(%rbp)
    802e:	8b 05 b8 25 01 00    	mov    0x125b8(%rip),%eax        # 1a5ec <g_688+0xc>
    8034:	83 c0 01             	add    $0x1,%eax
    8037:	89 05 af 25 01 00    	mov    %eax,0x125af(%rip)        # 1a5ec <g_688+0xc>
    803d:	8b 05 a9 25 01 00    	mov    0x125a9(%rip),%eax        # 1a5ec <g_688+0xc>
    8043:	83 f8 05             	cmp    $0x5,%eax
    8046:	7e 97                	jle    7fdf <func_1+0x82a>
    8048:	8b 05 7a 37 01 00    	mov    0x1377a(%rip),%eax        # 1b7c8 <g_1765>
    804e:	83 c0 01             	add    $0x1,%eax
    8051:	89 05 71 37 01 00    	mov    %eax,0x13771(%rip)        # 1b7c8 <g_1765>
    8057:	8b 05 6b 37 01 00    	mov    0x1376b(%rip),%eax        # 1b7c8 <g_1765>
    805d:	83 f8 04             	cmp    $0x4,%eax
    8060:	0f 86 8b fa ff ff    	jbe    7af1 <func_1+0x33c>
    8066:	eb 01                	jmp    8069 <func_1+0x8b4>
    8068:	90                   	nop
    8069:	0f b6 05 81 25 01 00 	movzbl 0x12581(%rip),%eax        # 1a5f1 <g_688+0x11>
    8070:	83 e8 01             	sub    $0x1,%eax
    8073:	88 05 78 25 01 00    	mov    %al,0x12578(%rip)        # 1a5f1 <g_688+0x11>
    8079:	0f b6 05 71 25 01 00 	movzbl 0x12571(%rip),%eax        # 1a5f1 <g_688+0x11>
    8080:	84 c0                	test   %al,%al
    8082:	0f 8f 36 f9 ff ff    	jg     79be <func_1+0x209>
    8088:	48 8b 05 61 51 01 00 	mov    0x15161(%rip),%rax        # 1d1f0 <g_498>
    808f:	48 c7 00 00 00 00 00 	movq   $0x0,(%rax)
    8096:	48 8b 05 6b 24 01 00 	mov    0x1246b(%rip),%rax        # 1a508 <g_286>
    809d:	48 8b 5d d8          	mov    -0x28(%rbp),%rbx
    80a1:	64 48 33 1c 25 28 00 	xor    %fs:0x28,%rbx
    80a8:	00 00 
    80aa:	74 05                	je     80b1 <func_1+0x8fc>
    80ac:	e8 bf df ff ff       	callq  6070 <__stack_chk_fail@plt>
    80b1:	48 81 c4 80 01 00 00 	add    $0x180,%rsp
    80b8:	5b                   	pop    %rbx
    80b9:	41 5c                	pop    %r12
    80bb:	41 5d                	pop    %r13
    80bd:	41 5e                	pop    %r14
    80bf:	5d                   	pop    %rbp
    80c0:	c3                   	retq   

00000000000080c1 <func_5>:
    80c1:	f3 0f 1e fa          	endbr64 
    80c5:	55                   	push   %rbp
    80c6:	48 89 e5             	mov    %rsp,%rbp
    80c9:	41 57                	push   %r15
    80cb:	41 56                	push   %r14
    80cd:	41 55                	push   %r13
    80cf:	41 54                	push   %r12
    80d1:	53                   	push   %rbx
    80d2:	48 81 ec 00 10 00 00 	sub    $0x1000,%rsp
    80d9:	48 83 0c 24 00       	orq    $0x0,(%rsp)
    80de:	48 81 ec f8 05 00 00 	sub    $0x5f8,%rsp
    80e5:	48 89 bd f8 e9 ff ff 	mov    %rdi,-0x1608(%rbp)
    80ec:	64 48 8b 04 25 28 00 	mov    %fs:0x28,%rax
    80f3:	00 00 
    80f5:	48 89 45 c8          	mov    %rax,-0x38(%rbp)
    80f9:	31 c0                	xor    %eax,%eax
    80fb:	c6 85 0a ea ff ff 07 	movb   $0x7,-0x15f6(%rbp)
    8102:	48 8d 05 eb 1f 01 00 	lea    0x11feb(%rip),%rax        # 1a0f4 <g_4+0xb4>
    8109:	48 89 85 d0 ea ff ff 	mov    %rax,-0x1530(%rbp)
    8110:	48 8d 85 d0 ea ff ff 	lea    -0x1530(%rbp),%rax
    8117:	48 89 85 00 eb ff ff 	mov    %rax,-0x1500(%rbp)
    811e:	48 b8 c8 d2 bc e7 01 	movabs $0x9080e01e7bcd2c8,%rax
    8125:	0e 08 09 
    8128:	48 89 85 d8 ea ff ff 	mov    %rax,-0x1528(%rbp)
    812f:	48 c7 85 e0 ea ff ff 	movq   $0x0,-0x1520(%rbp)
    8136:	00 00 00 00 
    813a:	48 8d 85 e0 ea ff ff 	lea    -0x1520(%rbp),%rax
    8141:	48 89 85 08 eb ff ff 	mov    %rax,-0x14f8(%rbp)
    8148:	c7 85 1c ea ff ff 01 	movl   $0x1,-0x15e4(%rbp)
    814f:	00 00 00 
    8152:	c7 85 20 ea ff ff 09 	movl   $0x2ebc8b09,-0x15e0(%rbp)
    8159:	8b bc 2e 
    815c:	48 8d 85 e0 ee ff ff 	lea    -0x1120(%rbp),%rax
    8163:	48 8d 15 b6 df 00 00 	lea    0xdfb6(%rip),%rdx        # 16120 <g_1416+0x18>
    816a:	b9 46 00 00 00       	mov    $0x46,%ecx
    816f:	48 89 c7             	mov    %rax,%rdi
    8172:	48 89 d6             	mov    %rdx,%rsi
    8175:	f3 48 a5             	rep movsq %ds:(%rsi),%es:(%rdi)
    8178:	c7 85 6c ea ff ff c6 	movl   $0xba907fc6,-0x1594(%rbp)
    817f:	7f 90 ba 
    8182:	48 8d 85 10 f1 ff ff 	lea    -0xef0(%rbp),%rax
    8189:	48 8d 15 50 36 01 00 	lea    0x13650(%rip),%rdx        # 1b7e0 <g_1765+0x18>
    8190:	b9 64 00 00 00       	mov    $0x64,%ecx
    8195:	48 89 c7             	mov    %rax,%rdi
    8198:	48 89 d6             	mov    %rdx,%rsi
    819b:	f3 48 a5             	rep movsq %ds:(%rsi),%es:(%rdi)
    819e:	48 8b 85 f8 e9 ff ff 	mov    -0x1608(%rbp),%rax
    81a5:	8b 08                	mov    (%rax),%ecx
    81a7:	0f b6 95 0a ea ff ff 	movzbl -0x15f6(%rbp),%edx
    81ae:	48 8b 85 f8 e9 ff ff 	mov    -0x1608(%rbp),%rax
    81b5:	09 ca                	or     %ecx,%edx
    81b7:	89 10                	mov    %edx,(%rax)
    81b9:	80 bd 0a ea ff ff 00 	cmpb   $0x0,-0x15f6(%rbp)
    81c0:	0f 84 bf 0e 00 00    	je     9085 <func_5+0xfc4>
    81c6:	48 8d 05 27 1f 01 00 	lea    0x11f27(%rip),%rax        # 1a0f4 <g_4+0xb4>
    81cd:	48 89 85 e8 ea ff ff 	mov    %rax,-0x1518(%rbp)
    81d4:	48 8d 85 e8 ea ff ff 	lea    -0x1518(%rbp),%rax
    81db:	48 89 85 f8 eb ff ff 	mov    %rax,-0x1408(%rbp)
    81e2:	48 8d 05 e7 31 01 00 	lea    0x131e7(%rip),%rax        # 1b3d0 <g_1076>
    81e9:	48 89 85 f0 ea ff ff 	mov    %rax,-0x1510(%rbp)
    81f0:	48 8d 85 f0 ea ff ff 	lea    -0x1510(%rbp),%rax
    81f7:	48 89 85 00 ec ff ff 	mov    %rax,-0x1400(%rbp)
    81fe:	c7 85 b8 ea ff ff 1d 	movl   $0xc6b5a41d,-0x1548(%rbp)
    8205:	a4 b5 c6 
    8208:	48 8d 85 90 f7 ff ff 	lea    -0x870(%rbp),%rax
    820f:	48 8d 15 4a e1 00 00 	lea    0xe14a(%rip),%rdx        # 16360 <g_1416+0x258>
    8216:	b9 2d 00 00 00       	mov    $0x2d,%ecx
    821b:	48 89 c7             	mov    %rax,%rdi
    821e:	48 89 d6             	mov    %rdx,%rsi
    8221:	f3 48 a5             	rep movsq %ds:(%rsi),%es:(%rdi)
    8224:	66 c7 85 30 ea ff ff 	movw   $0x5,-0x15d0(%rbp)
    822b:	05 00 
    822d:	48 c7 85 08 ec ff ff 	movq   $0x0,-0x13f8(%rbp)
    8234:	00 00 00 00 
    8238:	48 c7 85 10 ec ff ff 	movq   $0x0,-0x13f0(%rbp)
    823f:	00 00 00 00 
    8243:	c6 85 0e ea ff ff 00 	movb   $0x0,-0x15f2(%rbp)
    824a:	c7 85 34 ea ff ff 02 	movl   $0x2,-0x15cc(%rbp)
    8251:	00 00 00 
    8254:	48 8b 85 f8 e9 ff ff 	mov    -0x1608(%rbp),%rax
    825b:	c7 00 00 00 00 00    	movl   $0x0,(%rax)
    8261:	c6 85 0a ea ff ff 0d 	movb   $0xd,-0x15f6(%rbp)
    8268:	e9 cb 08 00 00       	jmpq   8b38 <func_5+0xa77>
    826d:	c7 85 bc ea ff ff 00 	movl   $0x0,-0x1544(%rbp)
    8274:	00 00 00 
    8277:	48 8d 85 e8 ea ff ff 	lea    -0x1518(%rbp),%rax
    827e:	48 89 85 30 f4 ff ff 	mov    %rax,-0xbd0(%rbp)
    8285:	48 8d 85 e8 ea ff ff 	lea    -0x1518(%rbp),%rax
    828c:	48 89 85 38 f4 ff ff 	mov    %rax,-0xbc8(%rbp)
    8293:	48 8d 85 e8 ea ff ff 	lea    -0x1518(%rbp),%rax
    829a:	48 89 85 40 f4 ff ff 	mov    %rax,-0xbc0(%rbp)
    82a1:	48 8d 85 e8 ea ff ff 	lea    -0x1518(%rbp),%rax
    82a8:	48 89 85 48 f4 ff ff 	mov    %rax,-0xbb8(%rbp)
    82af:	48 8d 85 e8 ea ff ff 	lea    -0x1518(%rbp),%rax
    82b6:	48 89 85 50 f4 ff ff 	mov    %rax,-0xbb0(%rbp)
    82bd:	48 8d 85 e8 ea ff ff 	lea    -0x1518(%rbp),%rax
    82c4:	48 89 85 58 f4 ff ff 	mov    %rax,-0xba8(%rbp)
    82cb:	48 8d 85 e8 ea ff ff 	lea    -0x1518(%rbp),%rax
    82d2:	48 89 85 60 f4 ff ff 	mov    %rax,-0xba0(%rbp)
    82d9:	48 8d 85 e8 ea ff ff 	lea    -0x1518(%rbp),%rax
    82e0:	48 89 85 68 f4 ff ff 	mov    %rax,-0xb98(%rbp)
    82e7:	48 8d 85 e8 ea ff ff 	lea    -0x1518(%rbp),%rax
    82ee:	48 89 85 70 f4 ff ff 	mov    %rax,-0xb90(%rbp)
    82f5:	c6 85 0f ea ff ff 01 	movb   $0x1,-0x15f1(%rbp)
    82fc:	48 8d 05 5d 21 01 00 	lea    0x1215d(%rip),%rax        # 1a460 <g_89>
    8303:	48 89 85 18 ec ff ff 	mov    %rax,-0x13e8(%rbp)
    830a:	8b 05 88 1d 01 00    	mov    0x11d88(%rip),%eax        # 1a098 <g_4+0x58>
    8310:	0f b7 d0             	movzwl %ax,%edx
    8313:	8b 85 bc ea ff ff    	mov    -0x1544(%rbp),%eax
    8319:	0f b7 c0             	movzwl %ax,%eax
    831c:	89 d6                	mov    %edx,%esi
    831e:	89 c7                	mov    %eax,%edi
    8320:	e8 69 ea ff ff       	callq  6d8e <safe_div_func_uint16_t_u_u>
    8325:	b8 c7 e1 29 73       	mov    $0x7329e1c7,%eax
    832a:	0f bf d8             	movswl %ax,%ebx
    832d:	48 8b 85 00 eb ff ff 	mov    -0x1500(%rbp),%rax
    8334:	48 8b 00             	mov    (%rax),%rax
    8337:	8b 00                	mov    (%rax),%eax
    8339:	44 0f b7 f0          	movzwl %ax,%r14d
    833d:	44 8b bd bc ea ff ff 	mov    -0x1544(%rbp),%r15d
    8344:	8b 05 9a 22 01 00    	mov    0x1229a(%rip),%eax        # 1a5e4 <g_688+0x4>
    834a:	89 85 f0 e9 ff ff    	mov    %eax,-0x1610(%rbp)
    8350:	48 8b 85 f8 eb ff ff 	mov    -0x1408(%rbp),%rax
    8357:	48 8b 00             	mov    (%rax),%rax
    835a:	8b 00                	mov    (%rax),%eax
    835c:	89 85 ec e9 ff ff    	mov    %eax,-0x1614(%rbp)
    8362:	48 8b 85 00 eb ff ff 	mov    -0x1500(%rbp),%rax
    8369:	4c 8b 20             	mov    (%rax),%r12
    836c:	8b 85 bc ea ff ff    	mov    -0x1544(%rbp),%eax
    8372:	44 0f be e8          	movsbl %al,%r13d
    8376:	48 8b 8d f8 e9 ff ff 	mov    -0x1608(%rbp),%rcx
    837d:	8b 05 61 1d 01 00    	mov    0x11d61(%rip),%eax        # 1a0e4 <g_4+0xa4>
    8383:	48 98                	cltq   
    8385:	48 8b 95 00 eb ff ff 	mov    -0x1500(%rbp),%rdx
    838c:	48 89 ce             	mov    %rcx,%rsi
    838f:	48 89 c7             	mov    %rax,%rdi
    8392:	e8 c7 5b 00 00       	callq  df5e <func_38>
    8397:	0f be c0             	movsbl %al,%eax
    839a:	44 89 ee             	mov    %r13d,%esi
    839d:	89 c7                	mov    %eax,%edi
    839f:	e8 8d de ff ff       	callq  6231 <safe_mod_func_int8_t_s_s>
    83a4:	0f be c0             	movsbl %al,%eax
    83a7:	45 89 f8             	mov    %r15d,%r8d
    83aa:	8b 8d f0 e9 ff ff    	mov    -0x1610(%rbp),%ecx
    83b0:	8b 95 ec e9 ff ff    	mov    -0x1614(%rbp),%edx
    83b6:	4c 89 e6             	mov    %r12,%rsi
    83b9:	89 c7                	mov    %eax,%edi
    83bb:	e8 7a 5b 00 00       	callq  df3a <func_30>
    83c0:	0f b7 d0             	movzwl %ax,%edx
    83c3:	48 8b 85 f8 eb ff ff 	mov    -0x1408(%rbp),%rax
    83ca:	48 8b 00             	mov    (%rax),%rax
    83cd:	8b 00                	mov    (%rax),%eax
    83cf:	0f b7 c0             	movzwl %ax,%eax
    83d2:	89 d6                	mov    %edx,%esi
    83d4:	89 c7                	mov    %eax,%edi
    83d6:	e8 2b ea ff ff       	callq  6e06 <safe_lshift_func_uint16_t_u_u>
    83db:	66 35 38 68          	xor    $0x6838,%ax
    83df:	89 c2                	mov    %eax,%edx
    83e1:	48 8b 85 d0 ea ff ff 	mov    -0x1530(%rbp),%rax
    83e8:	8b 00                	mov    (%rax),%eax
    83ea:	21 d0                	and    %edx,%eax
    83ec:	0f b7 c0             	movzwl %ax,%eax
    83ef:	be 04 00 00 00       	mov    $0x4,%esi
    83f4:	89 c7                	mov    %eax,%edi
    83f6:	e8 4d ea ff ff       	callq  6e48 <safe_rshift_func_uint16_t_u_s>
    83fb:	48 8b 05 16 22 01 00 	mov    0x12216(%rip),%rax        # 1a618 <g_705+0x8>
    8402:	48 85 c0             	test   %rax,%rax
    8405:	74 0e                	je     8415 <func_5+0x354>
    8407:	48 8b 85 f8 eb ff ff 	mov    -0x1408(%rbp),%rax
    840e:	48 8b 00             	mov    (%rax),%rax
    8411:	8b 00                	mov    (%rax),%eax
    8413:	85 c0                	test   %eax,%eax
    8415:	48 8b 85 e8 ea ff ff 	mov    -0x1518(%rbp),%rax
    841c:	8b 00                	mov    (%rax),%eax
    841e:	48 63 c8             	movslq %eax,%rcx
    8421:	8b 85 bc ea ff ff    	mov    -0x1544(%rbp),%eax
    8427:	0f be d0             	movsbl %al,%edx
    842a:	48 8b b5 f8 eb ff ff 	mov    -0x1408(%rbp),%rsi
    8431:	0f b7 05 f8 1c 01 00 	movzwl 0x11cf8(%rip),%eax        # 1a130 <g_23+0x10>
    8438:	45 89 f0             	mov    %r14d,%r8d
    843b:	89 c7                	mov    %eax,%edi
    843d:	e8 20 28 00 00       	callq  ac62 <func_17>
    8442:	89 da                	mov    %ebx,%edx
    8444:	48 8d 35 81 21 01 00 	lea    0x12181(%rip),%rsi        # 1a5cc <g_535>
    844b:	48 89 c7             	mov    %rax,%rdi
    844e:	e8 6f 27 00 00       	callq  abc2 <func_13>
    8453:	85 c0                	test   %eax,%eax
    8455:	0f 84 d1 06 00 00    	je     8b2c <func_5+0xa6b>
    845b:	48 8d 05 6a 21 01 00 	lea    0x1216a(%rip),%rax        # 1a5cc <g_535>
    8462:	48 89 85 20 ec ff ff 	mov    %rax,-0x13e0(%rbp)
    8469:	66 c7 85 00 ee ff ff 	movw   $0xa660,-0x1200(%rbp)
    8470:	60 a6 
    8472:	66 c7 85 02 ee ff ff 	movw   $0xe4ae,-0x11fe(%rbp)
    8479:	ae e4 
    847b:	66 c7 85 04 ee ff ff 	movw   $0xffff,-0x11fc(%rbp)
    8482:	ff ff 
    8484:	66 c7 85 06 ee ff ff 	movw   $0xa660,-0x11fa(%rbp)
    848b:	60 a6 
    848d:	66 c7 85 08 ee ff ff 	movw   $0xd75a,-0x11f8(%rbp)
    8494:	5a d7 
    8496:	66 c7 85 0a ee ff ff 	movw   $0xd75a,-0x11f6(%rbp)
    849d:	5a d7 
    849f:	66 c7 85 0c ee ff ff 	movw   $0x252f,-0x11f4(%rbp)
    84a6:	2f 25 
    84a8:	66 c7 85 0e ee ff ff 	movw   $0x8e63,-0x11f2(%rbp)
    84af:	63 8e 
    84b1:	66 c7 85 10 ee ff ff 	movw   $0xffff,-0x11f0(%rbp)
    84b8:	ff ff 
    84ba:	66 c7 85 12 ee ff ff 	movw   $0xffff,-0x11ee(%rbp)
    84c1:	ff ff 
    84c3:	66 c7 85 14 ee ff ff 	movw   $0x9b4e,-0x11ec(%rbp)
    84ca:	4e 9b 
    84cc:	66 c7 85 16 ee ff ff 	movw   $0xe4ae,-0x11ea(%rbp)
    84d3:	ae e4 
    84d5:	66 c7 85 18 ee ff ff 	movw   $0x252f,-0x11e8(%rbp)
    84dc:	2f 25 
    84de:	66 c7 85 1a ee ff ff 	movw   $0x9b4e,-0x11e6(%rbp)
    84e5:	4e 9b 
    84e7:	66 c7 85 1c ee ff ff 	movw   $0x252f,-0x11e4(%rbp)
    84ee:	2f 25 
    84f0:	66 c7 85 1e ee ff ff 	movw   $0xe4ae,-0x11e2(%rbp)
    84f7:	ae e4 
    84f9:	66 c7 85 20 ee ff ff 	movw   $0x8e63,-0x11e0(%rbp)
    8500:	63 8e 
    8502:	66 c7 85 22 ee ff ff 	movw   $0xe4ae,-0x11de(%rbp)
    8509:	ae e4 
    850b:	66 c7 85 24 ee ff ff 	movw   $0x8e63,-0x11dc(%rbp)
    8512:	63 8e 
    8514:	66 c7 85 26 ee ff ff 	movw   $0xd75a,-0x11da(%rbp)
    851b:	5a d7 
    851d:	66 c7 85 28 ee ff ff 	movw   $0xe4ae,-0x11d8(%rbp)
    8524:	ae e4 
    8526:	66 c7 85 2a ee ff ff 	movw   $0x29e0,-0x11d6(%rbp)
    852d:	e0 29 
    852f:	66 c7 85 2c ee ff ff 	movw   $0x29e0,-0x11d4(%rbp)
    8536:	e0 29 
    8538:	66 c7 85 2e ee ff ff 	movw   $0xe4ae,-0x11d2(%rbp)
    853f:	ae e4 
    8541:	c7 85 c0 ea ff ff 01 	movl   $0x1,-0x1540(%rbp)
    8548:	00 00 00 
    854b:	c7 85 c4 ea ff ff ca 	movl   $0xcd54d7ca,-0x153c(%rbp)
    8552:	d7 54 cd 
    8555:	48 8d 85 00 ee ff ff 	lea    -0x1200(%rbp),%rax
    855c:	48 83 c0 0c          	add    $0xc,%rax
    8560:	48 89 85 28 ec ff ff 	mov    %rax,-0x13d8(%rbp)
    8567:	48 8d 05 92 5b 01 00 	lea    0x15b92(%rip),%rax        # 1e100 <g_372>
    856e:	48 89 85 30 ec ff ff 	mov    %rax,-0x13d0(%rbp)
    8575:	48 8b 85 f8 e9 ff ff 	mov    -0x1608(%rbp),%rax
    857c:	8b 00                	mov    (%rax),%eax
    857e:	41 89 c6             	mov    %eax,%r14d
    8581:	0f b6 05 80 2e 01 00 	movzbl 0x12e80(%rip),%eax        # 1b408 <g_1132>
    8588:	0f be c0             	movsbl %al,%eax
    858b:	be 05 00 00 00       	mov    $0x5,%esi
    8590:	89 c7                	mov    %eax,%edi
    8592:	e8 7b dc ff ff       	callq  6212 <safe_mul_func_int8_t_s_s>
    8597:	0f be d8             	movsbl %al,%ebx
    859a:	48 8b 85 d0 ea ff ff 	mov    -0x1530(%rbp),%rax
    85a1:	44 8b 20             	mov    (%rax),%r12d
    85a4:	48 8b 85 f8 e9 ff ff 	mov    -0x1608(%rbp),%rax
    85ab:	8b 10                	mov    (%rax),%edx
    85ad:	48 8b 85 20 ec ff ff 	mov    -0x13e0(%rbp),%rax
    85b4:	89 10                	mov    %edx,(%rax)
    85b6:	48 8b 85 20 ec ff ff 	mov    -0x13e0(%rbp),%rax
    85bd:	44 8b 28             	mov    (%rax),%r13d
    85c0:	8b 05 c6 1f 01 00    	mov    0x11fc6(%rip),%eax        # 1a58c <g_512>
    85c6:	89 c0                	mov    %eax,%eax
    85c8:	48 89 c6             	mov    %rax,%rsi
    85cb:	48 c7 c7 ff ff ff ff 	mov    $0xffffffffffffffff,%rdi
    85d2:	e8 dd e3 ff ff       	callq  69b4 <safe_mod_func_int64_t_s_s>
    85d7:	48 85 c0             	test   %rax,%rax
    85da:	0f 94 c0             	sete   %al
    85dd:	0f b6 c0             	movzbl %al,%eax
    85e0:	be 06 00 00 00       	mov    $0x6,%esi
    85e5:	89 c7                	mov    %eax,%edi
    85e7:	e8 19 e6 ff ff       	callq  6c05 <safe_lshift_func_uint8_t_u_s>
    85ec:	0f b6 c0             	movzbl %al,%eax
    85ef:	44 21 e8             	and    %r13d,%eax
    85f2:	41 39 c4             	cmp    %eax,%r12d
    85f5:	0f 94 c0             	sete   %al
    85f8:	0f b6 c0             	movzbl %al,%eax
    85fb:	39 c3                	cmp    %eax,%ebx
    85fd:	0f 95 c0             	setne  %al
    8600:	0f b6 c0             	movzbl %al,%eax
    8603:	44 89 f6             	mov    %r14d,%esi
    8606:	89 c7                	mov    %eax,%edi
    8608:	e8 f0 e8 ff ff       	callq  6efd <safe_mod_func_uint32_t_u_u>
    860d:	48 8b 85 e8 ea ff ff 	mov    -0x1518(%rbp),%rax
    8614:	8b 00                	mov    (%rax),%eax
    8616:	85 c0                	test   %eax,%eax
    8618:	74 07                	je     8621 <func_5+0x560>
    861a:	b8 01 00 00 00       	mov    $0x1,%eax
    861f:	eb 05                	jmp    8626 <func_5+0x565>
    8621:	b8 00 00 00 00       	mov    $0x0,%eax
    8626:	0f b7 d0             	movzwl %ax,%edx
    8629:	48 8b 85 d0 ea ff ff 	mov    -0x1530(%rbp),%rax
    8630:	8b 00                	mov    (%rax),%eax
    8632:	0f b7 c0             	movzwl %ax,%eax
    8635:	89 d6                	mov    %edx,%esi
    8637:	89 c7                	mov    %eax,%edi
    8639:	e8 ff e6 ff ff       	callq  6d3d <safe_mul_func_uint16_t_u_u>
    863e:	0f bf d0             	movswl %ax,%edx
    8641:	83 bd bc ea ff ff 01 	cmpl   $0x1,-0x1544(%rbp)
    8648:	0f 94 c0             	sete   %al
    864b:	0f b6 c0             	movzbl %al,%eax
    864e:	89 d6                	mov    %edx,%esi
    8650:	89 c7                	mov    %eax,%edi
    8652:	e8 9e dd ff ff       	callq  63f5 <safe_mul_func_int16_t_s_s>
    8657:	66 85 c0             	test   %ax,%ax
    865a:	74 1d                	je     8679 <func_5+0x5b8>
    865c:	48 8b 85 f8 e9 ff ff 	mov    -0x1608(%rbp),%rax
    8663:	8b 00                	mov    (%rax),%eax
    8665:	85 c0                	test   %eax,%eax
    8667:	0f 85 d8 04 00 00    	jne    8b45 <func_5+0xa84>
    866d:	48 8d 05 8c 5a 01 00 	lea    0x15a8c(%rip),%rax        # 1e100 <g_372>
    8674:	e9 23 25 00 00       	jmpq   ab9c <func_5+0x2adb>
    8679:	48 b8 82 5c b2 2a 7f 	movabs $0xbcebf67f2ab25c82,%rax
    8680:	f6 eb bc 
    8683:	48 89 85 38 ec ff ff 	mov    %rax,-0x13c8(%rbp)
    868a:	c7 85 50 fb ff ff ff 	movl   $0xffffffff,-0x4b0(%rbp)
    8691:	ff ff ff 
    8694:	c7 85 54 fb ff ff ff 	movl   $0xffffffff,-0x4ac(%rbp)
    869b:	ff ff ff 
    869e:	c7 85 58 fb ff ff ff 	movl   $0xffffffff,-0x4a8(%rbp)
    86a5:	ff ff ff 
    86a8:	c7 85 5c fb ff ff ff 	movl   $0xffffffff,-0x4a4(%rbp)
    86af:	ff ff ff 
    86b2:	c7 85 60 fb ff ff ff 	movl   $0xffffffff,-0x4a0(%rbp)
    86b9:	ff ff ff 
    86bc:	c7 85 64 fb ff ff ff 	movl   $0xffffffff,-0x49c(%rbp)
    86c3:	ff ff ff 
    86c6:	c7 85 68 fb ff ff ff 	movl   $0xffffffff,-0x498(%rbp)
    86cd:	ff ff ff 
    86d0:	c7 85 6c fb ff ff ff 	movl   $0xffffffff,-0x494(%rbp)
    86d7:	ff ff ff 
    86da:	c7 85 70 fb ff ff ff 	movl   $0xffffffff,-0x490(%rbp)
    86e1:	ff ff ff 
    86e4:	c7 85 74 fb ff ff ff 	movl   $0xffffffff,-0x48c(%rbp)
    86eb:	ff ff ff 
    86ee:	c7 85 78 fb ff ff ff 	movl   $0xffffffff,-0x488(%rbp)
    86f5:	ff ff ff 
    86f8:	c7 85 7c fb ff ff ff 	movl   $0xffffffff,-0x484(%rbp)
    86ff:	ff ff ff 
    8702:	c7 85 80 fb ff ff ff 	movl   $0xffffffff,-0x480(%rbp)
    8709:	ff ff ff 
    870c:	c7 85 84 fb ff ff ff 	movl   $0xffffffff,-0x47c(%rbp)
    8713:	ff ff ff 
    8716:	c7 85 88 fb ff ff ff 	movl   $0xffffffff,-0x478(%rbp)
    871d:	ff ff ff 
    8720:	c7 85 8c fb ff ff ff 	movl   $0xffffffff,-0x474(%rbp)
    8727:	ff ff ff 
    872a:	c7 85 90 fb ff ff ff 	movl   $0xffffffff,-0x470(%rbp)
    8731:	ff ff ff 
    8734:	c7 85 94 fb ff ff ff 	movl   $0xffffffff,-0x46c(%rbp)
    873b:	ff ff ff 
    873e:	48 8d 05 91 1d 01 00 	lea    0x11d91(%rip),%rax        # 1a4d6 <g_214+0x6>
    8745:	48 89 85 40 ec ff ff 	mov    %rax,-0x13c0(%rbp)
    874c:	c7 85 c8 ea ff ff ec 	movl   $0x41b8a3ec,-0x1538(%rbp)
    8753:	a3 b8 41 
    8756:	c7 05 4c 2b 01 00 00 	movl   $0x0,0x12b4c(%rip)        # 1b2ac <g_1027+0xc>
    875d:	00 00 00 
    8760:	e9 11 02 00 00       	jmpq   8976 <func_5+0x8b5>
    8765:	c7 85 cc ea ff ff 01 	movl   $0x1,-0x1534(%rbp)
    876c:	00 00 00 
    876f:	48 8d 05 14 1d 01 00 	lea    0x11d14(%rip),%rax        # 1a48a <g_129>
    8776:	48 89 85 48 ec ff ff 	mov    %rax,-0x13b8(%rbp)
    877d:	48 8d 05 44 20 01 00 	lea    0x12044(%rip),%rax        # 1a7c8 <g_823>
    8784:	48 89 85 50 ec ff ff 	mov    %rax,-0x13b0(%rbp)
    878b:	48 8d 05 76 1d 01 00 	lea    0x11d76(%rip),%rax        # 1a508 <g_286>
    8792:	48 89 85 58 ec ff ff 	mov    %rax,-0x13a8(%rbp)
    8799:	48 8b 85 20 ec ff ff 	mov    -0x13e0(%rbp),%rax
    87a0:	8b 00                	mov    (%rax),%eax
    87a2:	41 89 c7             	mov    %eax,%r15d
    87a5:	48 8b 85 f8 eb ff ff 	mov    -0x1408(%rbp),%rax
    87ac:	48 8b 00             	mov    (%rax),%rax
    87af:	8b 18                	mov    (%rax),%ebx
    87b1:	48 8b 85 d0 ea ff ff 	mov    -0x1530(%rbp),%rax
    87b8:	8b 00                	mov    (%rax),%eax
    87ba:	44 0f be e0          	movsbl %al,%r12d
    87be:	8b 85 b8 ea ff ff    	mov    -0x1548(%rbp),%eax
    87c4:	44 0f be e8          	movsbl %al,%r13d
    87c8:	8b 85 cc ea ff ff    	mov    -0x1534(%rbp),%eax
    87ce:	89 c2                	mov    %eax,%edx
    87d0:	48 8b 85 48 ec ff ff 	mov    -0x13b8(%rbp),%rax
    87d7:	66 89 10             	mov    %dx,(%rax)
    87da:	48 8b 85 48 ec ff ff 	mov    -0x13b8(%rbp),%rax
    87e1:	0f b7 00             	movzwl (%rax),%eax
    87e4:	66 85 c0             	test   %ax,%ax
    87e7:	0f 85 f6 00 00 00    	jne    88e3 <func_5+0x822>
    87ed:	48 8b 85 d0 ea ff ff 	mov    -0x1530(%rbp),%rax
    87f4:	8b 00                	mov    (%rax),%eax
    87f6:	89 85 f0 e9 ff ff    	mov    %eax,-0x1610(%rbp)
    87fc:	48 8b 05 75 1c 01 00 	mov    0x11c75(%rip),%rax        # 1a478 <g_89+0x18>
    8803:	48 8b 05 ee 4b 01 00 	mov    0x14bee(%rip),%rax        # 1d3f8 <g_1376>
    880a:	48 39 85 00 ec ff ff 	cmp    %rax,-0x1400(%rbp)
    8811:	0f 94 c0             	sete   %al
    8814:	0f b6 c8             	movzbl %al,%ecx
    8817:	48 8b 85 50 ec ff ff 	mov    -0x13b0(%rbp),%rax
    881e:	48 8b 10             	mov    (%rax),%rdx
    8821:	48 63 c1             	movslq %ecx,%rax
    8824:	48 31 c2             	xor    %rax,%rdx
    8827:	48 8b 85 50 ec ff ff 	mov    -0x13b0(%rbp),%rax
    882e:	48 89 10             	mov    %rdx,(%rax)
    8831:	48 8b 85 20 ec ff ff 	mov    -0x13e0(%rbp),%rax
    8838:	8b 00                	mov    (%rax),%eax
    883a:	44 0f b6 f0          	movzbl %al,%r14d
    883e:	be 00 00 00 00       	mov    $0x0,%esi
    8843:	bf fc ff 00 00       	mov    $0xfffc,%edi
    8848:	e8 b2 e4 ff ff       	callq  6cff <safe_add_func_uint16_t_u_u>
    884d:	0f b7 d0             	movzwl %ax,%edx
    8850:	48 8b 05 99 4b 01 00 	mov    0x14b99(%rip),%rax        # 1d3f0 <g_1377>
    8857:	0f b6 00             	movzbl (%rax),%eax
    885a:	0f b6 c0             	movzbl %al,%eax
    885d:	89 d6                	mov    %edx,%esi
    885f:	89 c7                	mov    %eax,%edi
    8861:	e8 e6 e3 ff ff       	callq  6c4c <safe_lshift_func_uint8_t_u_u>
    8866:	48 8b 85 f8 eb ff ff 	mov    -0x1408(%rbp),%rax
    886d:	48 8b 00             	mov    (%rax),%rax
    8870:	8b 00                	mov    (%rax),%eax
    8872:	0f b6 c0             	movzbl %al,%eax
    8875:	44 89 f6             	mov    %r14d,%esi
    8878:	89 c7                	mov    %eax,%edi
    887a:	e8 f9 e2 ff ff       	callq  6b78 <safe_sub_func_uint8_t_u_u>
    887f:	48 8b 85 58 ec ff ff 	mov    -0x13a8(%rbp),%rax
    8886:	48 c7 00 01 00 00 00 	movq   $0x1,(%rax)
    888d:	48 8b 85 00 eb ff ff 	mov    -0x1500(%rbp),%rax
    8894:	48 8b 00             	mov    (%rax),%rax
    8897:	8b 00                	mov    (%rax),%eax
    8899:	85 c0                	test   %eax,%eax
    889b:	74 07                	je     88a4 <func_5+0x7e3>
    889d:	b8 01 00 00 00       	mov    $0x1,%eax
    88a2:	eb 05                	jmp    88a9 <func_5+0x7e8>
    88a4:	b8 00 00 00 00       	mov    $0x0,%eax
    88a9:	89 c2                	mov    %eax,%edx
    88ab:	48 8b 85 48 ec ff ff 	mov    -0x13b8(%rbp),%rax
    88b2:	66 89 10             	mov    %dx,(%rax)
    88b5:	8b b5 f0 e9 ff ff    	mov    -0x1610(%rbp),%esi
    88bb:	bf 09 69 6d 4a       	mov    $0x4a6d6909,%edi
    88c0:	e8 60 e6 ff ff       	callq  6f25 <safe_div_func_uint32_t_u_u>
    88c5:	48 8b 95 20 ec ff ff 	mov    -0x13e0(%rbp),%rdx
    88cc:	8b 12                	mov    (%rdx),%edx
    88ce:	39 d0                	cmp    %edx,%eax
    88d0:	0f 93 c0             	setae  %al
    88d3:	0f b6 d0             	movzbl %al,%edx
    88d6:	48 8b 85 20 ec ff ff 	mov    -0x13e0(%rbp),%rax
    88dd:	8b 00                	mov    (%rax),%eax
    88df:	39 c2                	cmp    %eax,%edx
    88e1:	7e 07                	jle    88ea <func_5+0x829>
    88e3:	b8 01 00 00 00       	mov    $0x1,%eax
    88e8:	eb 05                	jmp    88ef <func_5+0x82e>
    88ea:	b8 00 00 00 00       	mov    $0x0,%eax
    88ef:	0f be c0             	movsbl %al,%eax
    88f2:	be 04 00 00 00       	mov    $0x4,%esi
    88f7:	89 c7                	mov    %eax,%edi
    88f9:	e8 a3 d9 ff ff       	callq  62a1 <safe_lshift_func_int8_t_s_s>
    88fe:	3c 01                	cmp    $0x1,%al
    8900:	0f 96 c0             	setbe  %al
    8903:	0f b6 c0             	movzbl %al,%eax
    8906:	44 89 ee             	mov    %r13d,%esi
    8909:	89 c7                	mov    %eax,%edi
    890b:	e8 21 d9 ff ff       	callq  6231 <safe_mod_func_int8_t_s_s>
    8910:	0f be c0             	movsbl %al,%eax
    8913:	44 89 e6             	mov    %r12d,%esi
    8916:	89 c7                	mov    %eax,%edi
    8918:	e8 f5 d8 ff ff       	callq  6212 <safe_mul_func_int8_t_s_s>
    891d:	0f be c0             	movsbl %al,%eax
    8920:	89 de                	mov    %ebx,%esi
    8922:	89 c7                	mov    %eax,%edi
    8924:	e8 01 dc ff ff       	callq  652a <safe_rshift_func_int16_t_s_s>
    8929:	66 85 c0             	test   %ax,%ax
    892c:	74 07                	je     8935 <func_5+0x874>
    892e:	b8 01 00 00 00       	mov    $0x1,%eax
    8933:	eb 05                	jmp    893a <func_5+0x879>
    8935:	b8 00 00 00 00       	mov    $0x0,%eax
    893a:	0f b7 c0             	movzwl %ax,%eax
    893d:	44 89 fe             	mov    %r15d,%esi
    8940:	89 c7                	mov    %eax,%edi
    8942:	e8 bf e4 ff ff       	callq  6e06 <safe_lshift_func_uint16_t_u_u>
    8947:	8b 95 b0 f7 ff ff    	mov    -0x850(%rbp),%edx
    894d:	0f b7 c0             	movzwl %ax,%eax
    8950:	21 d0                	and    %edx,%eax
    8952:	89 85 b0 f7 ff ff    	mov    %eax,-0x850(%rbp)
    8958:	8b 05 4e 29 01 00    	mov    0x1294e(%rip),%eax        # 1b2ac <g_1027+0xc>
    895e:	0f be c0             	movsbl %al,%eax
    8961:	be 08 00 00 00       	mov    $0x8,%esi
    8966:	89 c7                	mov    %eax,%edi
    8968:	e8 67 d8 ff ff       	callq  61d4 <safe_add_func_int8_t_s_s>
    896d:	0f be c0             	movsbl %al,%eax
    8970:	89 05 36 29 01 00    	mov    %eax,0x12936(%rip)        # 1b2ac <g_1027+0xc>
    8976:	8b 05 30 29 01 00    	mov    0x12930(%rip),%eax        # 1b2ac <g_1027+0xc>
    897c:	85 c0                	test   %eax,%eax
    897e:	0f 85 e1 fd ff ff    	jne    8765 <func_5+0x6a4>
    8984:	48 b8 21 8b 5b 7a 0c 	movabs $0xf6d6a90c7a5b8b21,%rax
    898b:	a9 d6 f6 
    898e:	0f be d8             	movsbl %al,%ebx
    8991:	48 8b 05 30 4a 01 00 	mov    0x14a30(%rip),%rax        # 1d3c8 <g_811>
    8998:	48 8b 00             	mov    (%rax),%rax
    899b:	48 8b 00             	mov    (%rax),%rax
    899e:	8b 00                	mov    (%rax),%eax
    89a0:	85 c0                	test   %eax,%eax
    89a2:	74 11                	je     89b5 <func_5+0x8f4>
    89a4:	48 8b 05 1d 4a 01 00 	mov    0x14a1d(%rip),%rax        # 1d3c8 <g_811>
    89ab:	48 8b 00             	mov    (%rax),%rax
    89ae:	48 8b 00             	mov    (%rax),%rax
    89b1:	8b 00                	mov    (%rax),%eax
    89b3:	85 c0                	test   %eax,%eax
    89b5:	8b 05 ed 1a 01 00    	mov    0x11aed(%rip),%eax        # 1a4a8 <g_141+0x8>
    89bb:	4c 63 e0             	movslq %eax,%r12
    89be:	48 8b 05 9b 3f 01 00 	mov    0x13f9b(%rip),%rax        # 1c960 <g_110>
    89c5:	44 8b 28             	mov    (%rax),%r13d
    89c8:	0f b7 05 99 2c 01 00 	movzwl 0x12c99(%rip),%eax        # 1b668 <g_1415>
    89cf:	44 0f b7 f0          	movzwl %ax,%r14d
    89d3:	48 8b 85 20 ec ff ff 	mov    -0x13e0(%rbp),%rax
    89da:	8b 00                	mov    (%rax),%eax
    89dc:	44 0f b7 f8          	movzwl %ax,%r15d
    89e0:	48 8b 85 00 eb ff ff 	mov    -0x1500(%rbp),%rax
    89e7:	48 8b 00             	mov    (%rax),%rax
    89ea:	8b 00                	mov    (%rax),%eax
    89ec:	0f b7 d0             	movzwl %ax,%edx
    89ef:	48 8b 85 e8 ea ff ff 	mov    -0x1518(%rbp),%rax
    89f6:	8b 00                	mov    (%rax),%eax
    89f8:	0f b7 c0             	movzwl %ax,%eax
    89fb:	89 d6                	mov    %edx,%esi
    89fd:	89 c7                	mov    %eax,%edi
    89ff:	e8 58 e3 ff ff       	callq  6d5c <safe_mod_func_uint16_t_u_u>
    8a04:	0f b7 c0             	movzwl %ax,%eax
    8a07:	44 89 fe             	mov    %r15d,%esi
    8a0a:	89 c7                	mov    %eax,%edi
    8a0c:	e8 2c e3 ff ff       	callq  6d3d <safe_mul_func_uint16_t_u_u>
    8a11:	0f b7 c0             	movzwl %ax,%eax
    8a14:	21 85 c8 ea ff ff    	and    %eax,-0x1538(%rbp)
    8a1a:	8b 85 c8 ea ff ff    	mov    -0x1538(%rbp),%eax
    8a20:	44 89 f6             	mov    %r14d,%esi
    8a23:	89 c7                	mov    %eax,%edi
    8a25:	e8 8c db ff ff       	callq  65b6 <safe_add_func_int32_t_s_s>
    8a2a:	48 98                	cltq   
    8a2c:	48 ba 24 eb 82 e5 84 	movabs $0x1ce23b84e582eb24,%rdx
    8a33:	3b e2 1c 
    8a36:	48 09 d0             	or     %rdx,%rax
    8a39:	48 83 f8 04          	cmp    $0x4,%rax
    8a3d:	0f 96 c0             	setbe  %al
    8a40:	0f b6 d0             	movzbl %al,%edx
    8a43:	8b 85 68 fb ff ff    	mov    -0x498(%rbp),%eax
    8a49:	21 d0                	and    %edx,%eax
    8a4b:	44 89 ee             	mov    %r13d,%esi
    8a4e:	89 c7                	mov    %eax,%edi
    8a50:	e8 b0 db ff ff       	callq  6605 <safe_sub_func_int32_t_s_s>
    8a55:	48 8b 85 40 ec ff ff 	mov    -0x13c0(%rbp),%rax
    8a5c:	0f b7 00             	movzwl (%rax),%eax
    8a5f:	8d 50 01             	lea    0x1(%rax),%edx
    8a62:	48 8b 85 40 ec ff ff 	mov    -0x13c0(%rbp),%rax
    8a69:	66 89 10             	mov    %dx,(%rax)
    8a6c:	48 8b 85 40 ec ff ff 	mov    -0x13c0(%rbp),%rax
    8a73:	0f b7 00             	movzwl (%rax),%eax
    8a76:	0f b7 c0             	movzwl %ax,%eax
    8a79:	be 01 00 00 00       	mov    $0x1,%esi
    8a7e:	89 c7                	mov    %eax,%edi
    8a80:	e8 f5 e3 ff ff       	callq  6e7a <safe_rshift_func_uint16_t_u_u>
    8a85:	0f b7 d0             	movzwl %ax,%edx
    8a88:	48 8b 85 20 ec ff ff 	mov    -0x13e0(%rbp),%rax
    8a8f:	8b 00                	mov    (%rax),%eax
    8a91:	39 c2                	cmp    %eax,%edx
    8a93:	0f 9e c0             	setle  %al
    8a96:	0f b6 c0             	movzbl %al,%eax
    8a99:	4c 89 e6             	mov    %r12,%rsi
    8a9c:	48 89 c7             	mov    %rax,%rdi
    8a9f:	e8 10 df ff ff       	callq  69b4 <safe_mod_func_int64_t_s_s>
    8aa4:	8b 95 68 fb ff ff    	mov    -0x498(%rbp),%edx
    8aaa:	89 d2                	mov    %edx,%edx
    8aac:	48 39 d0             	cmp    %rdx,%rax
    8aaf:	0f 94 c0             	sete   %al
    8ab2:	44 0f b6 e0          	movzbl %al,%r12d
    8ab6:	48 8b 85 20 ec ff ff 	mov    -0x13e0(%rbp),%rax
    8abd:	8b 00                	mov    (%rax),%eax
    8abf:	0f be c0             	movsbl %al,%eax
    8ac2:	89 c6                	mov    %eax,%esi
    8ac4:	bf a6 ff ff ff       	mov    $0xffffffa6,%edi
    8ac9:	e8 9c d7 ff ff       	callq  626a <safe_div_func_int8_t_s_s>
    8ace:	66 98                	cbtw   
    8ad0:	0f b7 c0             	movzwl %ax,%eax
    8ad3:	44 89 e6             	mov    %r12d,%esi
    8ad6:	89 c7                	mov    %eax,%edi
    8ad8:	e8 42 e2 ff ff       	callq  6d1f <safe_sub_func_uint16_t_u_u>
    8add:	89 de                	mov    %ebx,%esi
    8adf:	bf 01 00 00 00       	mov    $0x1,%edi
    8ae4:	e8 29 d7 ff ff       	callq  6212 <safe_mul_func_int8_t_s_s>
    8ae9:	0f be c0             	movsbl %al,%eax
    8aec:	21 85 c4 ea ff ff    	and    %eax,-0x153c(%rbp)
    8af2:	48 8b 05 07 49 01 00 	mov    0x14907(%rip),%rax        # 1d400 <g_1419>
    8af9:	48 8b 95 18 ec ff ff 	mov    -0x13e8(%rbp),%rdx
    8b00:	48 89 10             	mov    %rdx,(%rax)
    8b03:	48 8b 05 ee 46 01 00 	mov    0x146ee(%rip),%rax        # 1d1f8 <g_713>
    8b0a:	48 8b 00             	mov    (%rax),%rax
    8b0d:	48 8b 10             	mov    (%rax),%rdx
    8b10:	48 8b 85 30 ec ff ff 	mov    -0x13d0(%rbp),%rax
    8b17:	48 89 10             	mov    %rdx,(%rax)
    8b1a:	0f b6 85 0a ea ff ff 	movzbl -0x15f6(%rbp),%eax
    8b21:	83 c0 01             	add    $0x1,%eax
    8b24:	88 85 0a ea ff ff    	mov    %al,-0x15f6(%rbp)
    8b2a:	eb 0c                	jmp    8b38 <func_5+0xa77>
    8b2c:	48 8d 05 cd 55 01 00 	lea    0x155cd(%rip),%rax        # 1e100 <g_372>
    8b33:	e9 64 20 00 00       	jmpq   ab9c <func_5+0x2adb>
    8b38:	80 bd 0a ea ff ff 10 	cmpb   $0x10,-0x15f6(%rbp)
    8b3f:	0f 84 28 f7 ff ff    	je     826d <func_5+0x1ac>
    8b45:	48 8b 85 f8 e9 ff ff 	mov    -0x1608(%rbp),%rax
    8b4c:	8b 00                	mov    (%rax),%eax
    8b4e:	48 63 d0             	movslq %eax,%rdx
    8b51:	48 8b 85 d8 ea ff ff 	mov    -0x1528(%rbp),%rax
    8b58:	48 21 d0             	and    %rdx,%rax
    8b5b:	48 89 85 d8 ea ff ff 	mov    %rax,-0x1528(%rbp)
    8b62:	66 c7 85 30 ea ff ff 	movw   $0xb,-0x15d0(%rbp)
    8b69:	0b 00 
    8b6b:	e9 ff 04 00 00       	jmpq   906f <func_5+0xfae>
    8b70:	48 8d 05 91 d5 00 00 	lea    0xd591(%rip),%rax        # 16108 <g_1416>
    8b77:	48 89 85 f8 ea ff ff 	mov    %rax,-0x1508(%rbp)
    8b7e:	48 8d 85 f8 ea ff ff 	lea    -0x1508(%rbp),%rax
    8b85:	48 89 85 60 ec ff ff 	mov    %rax,-0x13a0(%rbp)
    8b8c:	c7 85 00 ee ff ff 37 	movl   $0xd6f23037,-0x1200(%rbp)
    8b93:	30 f2 d6 
    8b96:	c7 85 04 ee ff ff 63 	movl   $0x2e04f963,-0x11fc(%rbp)
    8b9d:	f9 04 2e 
    8ba0:	c7 85 08 ee ff ff 54 	movl   $0x35439454,-0x11f8(%rbp)
    8ba7:	94 43 35 
    8baa:	c7 85 0c ee ff ff fe 	movl   $0xfffffffe,-0x11f4(%rbp)
    8bb1:	ff ff ff 
    8bb4:	c7 85 10 ee ff ff fd 	movl   $0xfffffffd,-0x11f0(%rbp)
    8bbb:	ff ff ff 
    8bbe:	c7 85 14 ee ff ff fe 	movl   $0xfffffffe,-0x11ec(%rbp)
    8bc5:	ff ff ff 
    8bc8:	c7 85 18 ee ff ff 54 	movl   $0x35439454,-0x11e8(%rbp)
    8bcf:	94 43 35 
    8bd2:	c7 85 1c ee ff ff 63 	movl   $0x2e04f963,-0x11e4(%rbp)
    8bd9:	f9 04 2e 
    8bdc:	c7 85 20 ee ff ff 37 	movl   $0xd6f23037,-0x11e0(%rbp)
    8be3:	30 f2 d6 
    8be6:	c7 85 24 ee ff ff 01 	movl   $0x1,-0x11dc(%rbp)
    8bed:	00 00 00 
    8bf0:	c7 85 28 ee ff ff 05 	movl   $0x5,-0x11d8(%rbp)
    8bf7:	00 00 00 
    8bfa:	c7 85 2c ee ff ff 00 	movl   $0x0,-0x11d4(%rbp)
    8c01:	00 00 00 
    8c04:	c7 85 30 ee ff ff 54 	movl   $0x35439454,-0x11d0(%rbp)
    8c0b:	94 43 35 
    8c0e:	c7 85 34 ee ff ff ab 	movl   $0x486cb6ab,-0x11cc(%rbp)
    8c15:	b6 6c 48 
    8c18:	c7 85 38 ee ff ff 63 	movl   $0x2e04f963,-0x11c8(%rbp)
    8c1f:	f9 04 2e 
    8c22:	c7 85 3c ee ff ff cd 	movl   $0x95e123cd,-0x11c4(%rbp)
    8c29:	23 e1 95 
    8c2c:	c7 85 40 ee ff ff 63 	movl   $0x2e04f963,-0x11c0(%rbp)
    8c33:	f9 04 2e 
    8c36:	c7 85 44 ee ff ff ab 	movl   $0x486cb6ab,-0x11bc(%rbp)
    8c3d:	b6 6c 48 
    8c40:	c7 85 48 ee ff ff 01 	movl   $0x1,-0x11b8(%rbp)
    8c47:	00 00 00 
    8c4a:	c7 85 4c ee ff ff cd 	movl   $0x95e123cd,-0x11b4(%rbp)
    8c51:	23 e1 95 
    8c54:	c7 85 50 ee ff ff cd 	movl   $0x95e123cd,-0x11b0(%rbp)
    8c5b:	23 e1 95 
    8c5e:	c7 85 54 ee ff ff 01 	movl   $0x1,-0x11ac(%rbp)
    8c65:	00 00 00 
    8c68:	c7 85 58 ee ff ff fe 	movl   $0xfffffffe,-0x11a8(%rbp)
    8c6f:	ff ff ff 
    8c72:	c7 85 5c ee ff ff 05 	movl   $0x5,-0x11a4(%rbp)
    8c79:	00 00 00 
    8c7c:	c7 85 60 ee ff ff d3 	movl   $0x9b99acd3,-0x11a0(%rbp)
    8c83:	ac 99 9b 
    8c86:	c7 85 64 ee ff ff ab 	movl   $0x486cb6ab,-0x119c(%rbp)
    8c8d:	b6 6c 48 
    8c90:	c7 85 68 ee ff ff 00 	movl   $0x0,-0x1198(%rbp)
    8c97:	00 00 00 
    8c9a:	c7 85 6c ee ff ff 01 	movl   $0x1,-0x1194(%rbp)
    8ca1:	00 00 00 
    8ca4:	c7 85 70 ee ff ff ab 	movl   $0x486cb6ab,-0x1190(%rbp)
    8cab:	b6 6c 48 
    8cae:	c7 85 74 ee ff ff cd 	movl   $0x95e123cd,-0x118c(%rbp)
    8cb5:	23 e1 95 
    8cb8:	c7 85 78 ee ff ff ff 	movl   $0xffffffff,-0x1188(%rbp)
    8cbf:	ff ff ff 
    8cc2:	c7 85 7c ee ff ff ff 	movl   $0xffffffff,-0x1184(%rbp)
    8cc9:	ff ff ff 
    8ccc:	c7 85 80 ee ff ff cd 	movl   $0x95e123cd,-0x1180(%rbp)
    8cd3:	23 e1 95 
    8cd6:	c7 85 84 ee ff ff ab 	movl   $0x486cb6ab,-0x117c(%rbp)
    8cdd:	b6 6c 48 
    8ce0:	c7 85 88 ee ff ff 01 	movl   $0x1,-0x1178(%rbp)
    8ce7:	00 00 00 
    8cea:	c7 85 8c ee ff ff fd 	movl   $0xfffffffd,-0x1174(%rbp)
    8cf1:	ff ff ff 
    8cf4:	48 8d 05 25 16 01 00 	lea    0x11625(%rip),%rax        # 1a320 <g_59>
    8cfb:	48 89 85 68 ec ff ff 	mov    %rax,-0x1398(%rbp)
    8d02:	48 c7 85 70 ec ff ff 	movq   $0x0,-0x1390(%rbp)
    8d09:	00 00 00 00 
    8d0d:	48 8d 05 dc 17 01 00 	lea    0x117dc(%rip),%rax        # 1a4f0 <g_243>
    8d14:	48 89 85 78 ec ff ff 	mov    %rax,-0x1388(%rbp)
    8d1b:	66 c7 85 1a ea ff ff 	movw   $0x3,-0x15e6(%rbp)
    8d22:	03 00 
    8d24:	48 8d 85 50 fb ff ff 	lea    -0x4b0(%rbp),%rax
    8d2b:	48 8d 15 ce 2d 01 00 	lea    0x12dce(%rip),%rdx        # 1bb00 <g_1765+0x338>
    8d32:	b9 30 00 00 00       	mov    $0x30,%ecx
    8d37:	48 89 c7             	mov    %rax,%rdi
    8d3a:	48 89 d6             	mov    %rdx,%rsi
    8d3d:	f3 48 a5             	rep movsq %ds:(%rsi),%es:(%rdi)
    8d40:	48 b8 96 fc bc 7c 03 	movabs $0x873991037cbcfc96,%rax
    8d47:	91 39 87 
    8d4a:	48 89 85 80 ec ff ff 	mov    %rax,-0x1380(%rbp)
    8d51:	c7 85 38 ea ff ff 00 	movl   $0x0,-0x15c8(%rbp)
    8d58:	00 00 00 
    8d5b:	eb 1b                	jmp    8d78 <func_5+0xcb7>
    8d5d:	8b 85 38 ea ff ff    	mov    -0x15c8(%rbp),%eax
    8d63:	48 98                	cltq   
    8d65:	48 c7 84 c5 70 ed ff 	movq   $0x0,-0x1290(%rbp,%rax,8)
    8d6c:	ff 00 00 00 00 
    8d71:	83 85 38 ea ff ff 01 	addl   $0x1,-0x15c8(%rbp)
    8d78:	83 bd 38 ea ff ff 04 	cmpl   $0x4,-0x15c8(%rbp)
    8d7f:	7e dc                	jle    8d5d <func_5+0xc9c>
    8d81:	48 8b 85 60 ec ff ff 	mov    -0x13a0(%rbp),%rax
    8d88:	48 89 85 08 eb ff ff 	mov    %rax,-0x14f8(%rbp)
    8d8f:	48 8b 85 68 ec ff ff 	mov    -0x1398(%rbp),%rax
    8d96:	48 8b 00             	mov    (%rax),%rax
    8d99:	48 83 c8 fc          	or     $0xfffffffffffffffc,%rax
    8d9d:	48 89 c2             	mov    %rax,%rdx
    8da0:	48 8b 85 68 ec ff ff 	mov    -0x1398(%rbp),%rax
    8da7:	48 89 10             	mov    %rdx,(%rax)
    8daa:	48 8b 85 68 ec ff ff 	mov    -0x1398(%rbp),%rax
    8db1:	48 8b 08             	mov    (%rax),%rcx
    8db4:	48 8b 85 e8 ea ff ff 	mov    -0x1518(%rbp),%rax
    8dbb:	8b 00                	mov    (%rax),%eax
    8dbd:	48 63 d0             	movslq %eax,%rdx
    8dc0:	48 8b 05 b9 16 01 00 	mov    0x116b9(%rip),%rax        # 1a480 <g_89+0x20>
    8dc7:	48 09 c8             	or     %rcx,%rax
    8dca:	48 89 05 af 16 01 00 	mov    %rax,0x116af(%rip)        # 1a480 <g_89+0x20>
    8dd1:	48 8b 05 a8 16 01 00 	mov    0x116a8(%rip),%rax        # 1a480 <g_89+0x20>
    8dd8:	48 39 c2             	cmp    %rax,%rdx
    8ddb:	48 8b 85 70 ec ff ff 	mov    -0x1390(%rbp),%rax
    8de2:	48 3b 85 10 ec ff ff 	cmp    -0x13f0(%rbp),%rax
    8de9:	0f 95 c0             	setne  %al
    8dec:	0f b6 d0             	movzbl %al,%edx
    8def:	48 8b 05 fa 45 01 00 	mov    0x145fa(%rip),%rax        # 1d3f0 <g_1377>
    8df6:	0f b6 08             	movzbl (%rax),%ecx
    8df9:	48 8b 05 f8 45 01 00 	mov    0x145f8(%rip),%rax        # 1d3f8 <g_1376>
    8e00:	48 8b 00             	mov    (%rax),%rax
    8e03:	0f b6 00             	movzbl (%rax),%eax
    8e06:	38 c1                	cmp    %al,%cl
    8e08:	0f 97 c0             	seta   %al
    8e0b:	0f b6 c0             	movzbl %al,%eax
    8e0e:	89 d6                	mov    %edx,%esi
    8e10:	89 c7                	mov    %eax,%edi
    8e12:	e8 a7 df ff ff       	callq  6dbe <safe_lshift_func_uint16_t_u_s>
    8e17:	48 8b 15 da 45 01 00 	mov    0x145da(%rip),%rdx        # 1d3f8 <g_1376>
    8e1e:	48 8b 12             	mov    (%rdx),%rdx
    8e21:	0f b6 12             	movzbl (%rdx),%edx
    8e24:	0f b6 d2             	movzbl %dl,%edx
    8e27:	66 39 d0             	cmp    %dx,%ax
    8e2a:	0f 97 c0             	seta   %al
    8e2d:	0f b6 c0             	movzbl %al,%eax
    8e30:	be 06 00 00 00       	mov    $0x6,%esi
    8e35:	89 c7                	mov    %eax,%edi
    8e37:	e8 82 de ff ff       	callq  6cbe <safe_rshift_func_uint8_t_u_u>
    8e3c:	84 c0                	test   %al,%al
    8e3e:	0f 84 51 01 00 00    	je     8f95 <func_5+0xed4>
    8e44:	48 8d 85 00 ee ff ff 	lea    -0x1200(%rbp),%rax
    8e4b:	48 83 c0 74          	add    $0x74,%rax
    8e4f:	48 89 85 a0 ec ff ff 	mov    %rax,-0x1360(%rbp)
    8e56:	48 8d 85 00 ee ff ff 	lea    -0x1200(%rbp),%rax
    8e5d:	48 83 c0 70          	add    $0x70,%rax
    8e61:	48 89 85 a8 ec ff ff 	mov    %rax,-0x1358(%rbp)
    8e68:	48 8d 05 5d 17 01 00 	lea    0x1175d(%rip),%rax        # 1a5cc <g_535>
    8e6f:	48 89 85 b0 ec ff ff 	mov    %rax,-0x1350(%rbp)
    8e76:	48 8d 85 00 ee ff ff 	lea    -0x1200(%rbp),%rax
    8e7d:	48 83 c0 44          	add    $0x44,%rax
    8e81:	48 89 85 b8 ec ff ff 	mov    %rax,-0x1348(%rbp)
    8e88:	48 c7 85 30 f4 ff ff 	movq   $0x0,-0xbd0(%rbp)
    8e8f:	00 00 00 00 
    8e93:	48 8d 85 1c ea ff ff 	lea    -0x15e4(%rbp),%rax
    8e9a:	48 89 85 38 f4 ff ff 	mov    %rax,-0xbc8(%rbp)
    8ea1:	48 8d 85 1c ea ff ff 	lea    -0x15e4(%rbp),%rax
    8ea8:	48 89 85 40 f4 ff ff 	mov    %rax,-0xbc0(%rbp)
    8eaf:	48 c7 85 48 f4 ff ff 	movq   $0x0,-0xbb8(%rbp)
    8eb6:	00 00 00 00 
    8eba:	48 8d 85 1c ea ff ff 	lea    -0x15e4(%rbp),%rax
    8ec1:	48 89 85 50 f4 ff ff 	mov    %rax,-0xbb0(%rbp)
    8ec8:	48 8d 85 1c ea ff ff 	lea    -0x15e4(%rbp),%rax
    8ecf:	48 89 85 58 f4 ff ff 	mov    %rax,-0xba8(%rbp)
    8ed6:	48 b8 fd 08 08 fd 08 	movabs $0x8fd0808fd0808fd,%rax
    8edd:	08 fd 08 
    8ee0:	48 89 45 bf          	mov    %rax,-0x41(%rbp)
    8ee4:	c6 45 c7 08          	movb   $0x8,-0x39(%rbp)
    8ee8:	48 8b 85 f8 e9 ff ff 	mov    -0x1608(%rbp),%rax
    8eef:	8b 00                	mov    (%rax),%eax
    8ef1:	85 c0                	test   %eax,%eax
    8ef3:	0f 85 98 1c 00 00    	jne    ab91 <func_5+0x2ad0>
    8ef9:	83 85 34 ea ff ff 01 	addl   $0x1,-0x15cc(%rbp)
    8f00:	c6 85 0a ea ff ff 00 	movb   $0x0,-0x15f6(%rbp)
    8f07:	eb 7a                	jmp    8f83 <func_5+0xec2>
    8f09:	48 8d 05 e0 15 01 00 	lea    0x115e0(%rip),%rax        # 1a4f0 <g_243>
    8f10:	48 89 85 c0 ec ff ff 	mov    %rax,-0x1340(%rbp)
    8f17:	c7 85 20 ea ff ff 00 	movl   $0x0,-0x15e0(%rbp)
    8f1e:	00 00 00 
    8f21:	eb 37                	jmp    8f5a <func_5+0xe99>
    8f23:	48 8b 85 c0 ec ff ff 	mov    -0x1340(%rbp),%rax
    8f2a:	48 3b 85 78 ec ff ff 	cmp    -0x1388(%rbp),%rax
    8f31:	0f 95 c0             	setne  %al
    8f34:	0f b6 d0             	movzbl %al,%edx
    8f37:	48 8b 85 a0 ec ff ff 	mov    -0x1360(%rbp),%rax
    8f3e:	89 10                	mov    %edx,(%rax)
    8f40:	8b 85 20 ea ff ff    	mov    -0x15e0(%rbp),%eax
    8f46:	98                   	cwtl   
    8f47:	be 01 00 00 00       	mov    $0x1,%esi
    8f4c:	89 c7                	mov    %eax,%edi
    8f4e:	e8 60 d4 ff ff       	callq  63b3 <safe_add_func_int16_t_s_s>
    8f53:	98                   	cwtl   
    8f54:	89 85 20 ea ff ff    	mov    %eax,-0x15e0(%rbp)
    8f5a:	8b 85 20 ea ff ff    	mov    -0x15e0(%rbp),%eax
    8f60:	83 f8 0f             	cmp    $0xf,%eax
    8f63:	74 be                	je     8f23 <func_5+0xe62>
    8f65:	48 8b 05 5c 42 01 00 	mov    0x1425c(%rip),%rax        # 1d1c8 <g_270>
    8f6c:	48 8b 00             	mov    (%rax),%rax
    8f6f:	8b 00                	mov    (%rax),%eax
    8f71:	85 c0                	test   %eax,%eax
    8f73:	0f b6 85 0a ea ff ff 	movzbl -0x15f6(%rbp),%eax
    8f7a:	83 c0 01             	add    $0x1,%eax
    8f7d:	88 85 0a ea ff ff    	mov    %al,-0x15f6(%rbp)
    8f83:	80 bd 0a ea ff ff 17 	cmpb   $0x17,-0x15f6(%rbp)
    8f8a:	0f 84 79 ff ff ff    	je     8f09 <func_5+0xe48>
    8f90:	e9 b0 00 00 00       	jmpq   9045 <func_5+0xf84>
    8f95:	48 8d 85 00 ee ff ff 	lea    -0x1200(%rbp),%rax
    8f9c:	48 89 85 88 ec ff ff 	mov    %rax,-0x1378(%rbp)
    8fa3:	48 8d 85 1c ea ff ff 	lea    -0x15e4(%rbp),%rax
    8faa:	48 89 85 90 ec ff ff 	mov    %rax,-0x1370(%rbp)
    8fb1:	48 c7 85 98 ec ff ff 	movq   $0x0,-0x1368(%rbp)
    8fb8:	00 00 00 00 
    8fbc:	c7 85 3c ea ff ff 00 	movl   $0x0,-0x15c4(%rbp)
    8fc3:	00 00 00 
    8fc6:	eb 58                	jmp    9020 <func_5+0xf5f>
    8fc8:	c7 85 40 ea ff ff 00 	movl   $0x0,-0x15c0(%rbp)
    8fcf:	00 00 00 
    8fd2:	eb 3c                	jmp    9010 <func_5+0xf4f>
    8fd4:	8b 85 40 ea ff ff    	mov    -0x15c0(%rbp),%eax
    8fda:	48 63 c8             	movslq %eax,%rcx
    8fdd:	8b 85 3c ea ff ff    	mov    -0x15c4(%rbp),%eax
    8fe3:	48 63 d0             	movslq %eax,%rdx
    8fe6:	48 89 d0             	mov    %rdx,%rax
    8fe9:	48 c1 e0 02          	shl    $0x2,%rax
    8fed:	48 01 d0             	add    %rdx,%rax
    8ff0:	48 01 c0             	add    %rax,%rax
    8ff3:	48 01 c8             	add    %rcx,%rax
    8ff6:	48 8d 95 00 ee ff ff 	lea    -0x1200(%rbp),%rdx
    8ffd:	48 83 c2 1c          	add    $0x1c,%rdx
    9001:	48 89 94 c5 30 f4 ff 	mov    %rdx,-0xbd0(%rbp,%rax,8)
    9008:	ff 
    9009:	83 85 40 ea ff ff 01 	addl   $0x1,-0x15c0(%rbp)
    9010:	83 bd 40 ea ff ff 09 	cmpl   $0x9,-0x15c0(%rbp)
    9017:	7e bb                	jle    8fd4 <func_5+0xf13>
    9019:	83 85 3c ea ff ff 01 	addl   $0x1,-0x15c4(%rbp)
    9020:	83 bd 3c ea ff ff 03 	cmpl   $0x3,-0x15c4(%rbp)
    9027:	7e 9f                	jle    8fc8 <func_5+0xf07>
    9029:	66 83 85 1a ea ff ff 	addw   $0x1,-0x15e6(%rbp)
    9030:	01 
    9031:	48 8b 85 00 eb ff ff 	mov    -0x1500(%rbp),%rax
    9038:	48 8b 00             	mov    (%rax),%rax
    903b:	8b 00                	mov    (%rax),%eax
    903d:	85 c0                	test   %eax,%eax
    903f:	0f 85 4f 1b 00 00    	jne    ab94 <func_5+0x2ad3>
    9045:	48 83 85 80 ec ff ff 	addq   $0x1,-0x1380(%rbp)
    904c:	01 
    904d:	48 8b 95 f8 e9 ff ff 	mov    -0x1608(%rbp),%rdx
    9054:	48 8b 85 f8 eb ff ff 	mov    -0x1408(%rbp),%rax
    905b:	48 89 10             	mov    %rdx,(%rax)
    905e:	0f b7 85 30 ea ff ff 	movzwl -0x15d0(%rbp),%eax
    9065:	83 c0 01             	add    $0x1,%eax
    9068:	66 89 85 30 ea ff ff 	mov    %ax,-0x15d0(%rbp)
    906f:	0f b7 85 30 ea ff ff 	movzwl -0x15d0(%rbp),%eax
    9076:	66 83 f8 35          	cmp    $0x35,%ax
    907a:	0f 86 f0 fa ff ff    	jbe    8b70 <func_5+0xaaf>
    9080:	e9 10 1b 00 00       	jmpq   ab95 <func_5+0x2ad4>
    9085:	48 c7 85 10 eb ff ff 	movq   $0x2,-0x14f0(%rbp)
    908c:	02 00 00 00 
    9090:	c7 85 00 ee ff ff 70 	movl   $0xd586d170,-0x1200(%rbp)
    9097:	d1 86 d5 
    909a:	c7 85 04 ee ff ff 0d 	movl   $0x4276f90d,-0x11fc(%rbp)
    90a1:	f9 76 42 
    90a4:	c7 85 08 ee ff ff 07 	movl   $0x7,-0x11f8(%rbp)
    90ab:	00 00 00 
    90ae:	c7 85 0c ee ff ff 07 	movl   $0x7,-0x11f4(%rbp)
    90b5:	00 00 00 
    90b8:	c7 85 10 ee ff ff 0d 	movl   $0x4276f90d,-0x11f0(%rbp)
    90bf:	f9 76 42 
    90c2:	c7 85 14 ee ff ff 70 	movl   $0xd586d170,-0x11ec(%rbp)
    90c9:	d1 86 d5 
    90cc:	c7 85 18 ee ff ff 01 	movl   $0x1,-0x11e8(%rbp)
    90d3:	00 00 00 
    90d6:	c7 85 1c ee ff ff 00 	movl   $0x0,-0x11e4(%rbp)
    90dd:	00 00 00 
    90e0:	c7 85 20 ee ff ff ff 	movl   $0xffffffff,-0x11e0(%rbp)
    90e7:	ff ff ff 
    90ea:	c7 85 24 ee ff ff ff 	movl   $0xffffffff,-0x11dc(%rbp)
    90f1:	ff ff ff 
    90f4:	c7 85 28 ee ff ff 00 	movl   $0x0,-0x11d8(%rbp)
    90fb:	00 00 00 
    90fe:	c7 85 2c ee ff ff 00 	movl   $0x0,-0x11d4(%rbp)
    9105:	00 00 00 
    9108:	c7 85 30 ee ff ff 09 	movl   $0x9,-0x11d0(%rbp)
    910f:	00 00 00 
    9112:	c7 85 34 ee ff ff 44 	movl   $0x5e641f44,-0x11cc(%rbp)
    9119:	1f 64 5e 
    911c:	c7 85 38 ee ff ff 2f 	movl   $0x3e54232f,-0x11c8(%rbp)
    9123:	23 54 3e 
    9126:	c7 85 3c ee ff ff 70 	movl   $0xd586d170,-0x11c4(%rbp)
    912d:	d1 86 d5 
    9130:	c7 85 40 ee ff ff 07 	movl   $0x7,-0x11c0(%rbp)
    9137:	00 00 00 
    913a:	c7 85 44 ee ff ff fa 	movl   $0xfffffffa,-0x11bc(%rbp)
    9141:	ff ff ff 
    9144:	c7 85 48 ee ff ff 09 	movl   $0x9,-0x11b8(%rbp)
    914b:	00 00 00 
    914e:	c7 85 4c ee ff ff 00 	movl   $0x0,-0x11b4(%rbp)
    9155:	00 00 00 
    9158:	c7 85 50 ee ff ff 00 	movl   $0x0,-0x11b0(%rbp)
    915f:	00 00 00 
    9162:	c7 85 54 ee ff ff ff 	movl   $0xffffffff,-0x11ac(%rbp)
    9169:	ff ff ff 
    916c:	c7 85 58 ee ff ff 01 	movl   $0x1,-0x11a8(%rbp)
    9173:	00 00 00 
    9176:	c7 85 5c ee ff ff f5 	movl   $0x589bd6f5,-0x11a4(%rbp)
    917d:	d6 9b 58 
    9180:	c7 85 60 ee ff ff 01 	movl   $0x1,-0x11a0(%rbp)
    9187:	00 00 00 
    918a:	c7 85 64 ee ff ff ff 	movl   $0xffffffff,-0x119c(%rbp)
    9191:	ff ff ff 
    9194:	c7 85 68 ee ff ff 00 	movl   $0x0,-0x1198(%rbp)
    919b:	00 00 00 
    919e:	c7 85 6c ee ff ff 07 	movl   $0x7,-0x1194(%rbp)
    91a5:	00 00 00 
    91a8:	c7 85 70 ee ff ff 07 	movl   $0x7,-0x1190(%rbp)
    91af:	00 00 00 
    91b2:	c7 85 74 ee ff ff 0d 	movl   $0x4276f90d,-0x118c(%rbp)
    91b9:	f9 76 42 
    91bc:	c7 85 78 ee ff ff 70 	movl   $0xd586d170,-0x1188(%rbp)
    91c3:	d1 86 d5 
    91c6:	c7 85 7c ee ff ff 01 	movl   $0x1,-0x1184(%rbp)
    91cd:	00 00 00 
    91d0:	c7 85 80 ee ff ff 00 	movl   $0x0,-0x1180(%rbp)
    91d7:	00 00 00 
    91da:	c7 85 84 ee ff ff ff 	movl   $0xffffffff,-0x117c(%rbp)
    91e1:	ff ff ff 
    91e4:	c7 85 88 ee ff ff fa 	movl   $0xfffffffa,-0x1178(%rbp)
    91eb:	ff ff ff 
    91ee:	c7 85 8c ee ff ff 90 	movl   $0xbef6d390,-0x1174(%rbp)
    91f5:	d3 f6 be 
    91f8:	c7 85 90 ee ff ff fe 	movl   $0xfffffffe,-0x1170(%rbp)
    91ff:	ff ff ff 
    9202:	c7 85 94 ee ff ff 97 	movl   $0x84ec6597,-0x116c(%rbp)
    9209:	65 ec 84 
    920c:	c7 85 98 ee ff ff fa 	movl   $0xfffffffa,-0x1168(%rbp)
    9213:	ff ff ff 
    9216:	c7 85 9c ee ff ff 00 	movl   $0x0,-0x1164(%rbp)
    921d:	00 00 00 
    9220:	c7 85 a0 ee ff ff 44 	movl   $0x5e641f44,-0x1160(%rbp)
    9227:	1f 64 5e 
    922a:	c7 85 a4 ee ff ff ec 	movl   $0xa5728aec,-0x115c(%rbp)
    9231:	8a 72 a5 
    9234:	c7 85 a8 ee ff ff 2f 	movl   $0x3e54232f,-0x1158(%rbp)
    923b:	23 54 3e 
    923e:	c7 85 ac ee ff ff 01 	movl   $0x1,-0x1154(%rbp)
    9245:	00 00 00 
    9248:	c7 85 b0 ee ff ff 01 	movl   $0x1,-0x1150(%rbp)
    924f:	00 00 00 
    9252:	c7 85 b4 ee ff ff 90 	movl   $0xbef6d390,-0x114c(%rbp)
    9259:	d3 f6 be 
    925c:	c7 85 b8 ee ff ff 01 	movl   $0x1,-0x1148(%rbp)
    9263:	00 00 00 
    9266:	c7 85 bc ee ff ff 0d 	movl   $0x4276f90d,-0x1144(%rbp)
    926d:	f9 76 42 
    9270:	c7 85 c0 ee ff ff 44 	movl   $0x5e641f44,-0x1140(%rbp)
    9277:	1f 64 5e 
    927a:	c7 85 c4 ee ff ff 0d 	movl   $0x4276f90d,-0x113c(%rbp)
    9281:	f9 76 42 
    9284:	c7 85 c8 ee ff ff 01 	movl   $0x1,-0x1138(%rbp)
    928b:	00 00 00 
    928e:	c7 85 cc ee ff ff 90 	movl   $0xbef6d390,-0x1134(%rbp)
    9295:	d3 f6 be 
    9298:	c7 85 d0 ee ff ff 4b 	movl   $0xdd513d4b,-0x1130(%rbp)
    929f:	3d 51 dd 
    92a2:	c7 85 d4 ee ff ff 00 	movl   $0x0,-0x112c(%rbp)
    92a9:	00 00 00 
    92ac:	c7 85 24 ea ff ff 12 	movl   $0x52f15512,-0x15dc(%rbp)
    92b3:	55 f1 52 
    92b6:	c7 85 28 ea ff ff ff 	movl   $0xffffffff,-0x15d8(%rbp)
    92bd:	ff ff ff 
    92c0:	c7 85 2c ea ff ff 75 	movl   $0x566fe375,-0x15d4(%rbp)
    92c7:	e3 6f 56 
    92ca:	66 c7 85 10 ea ff ff 	movw   $0x3811,-0x15f0(%rbp)
    92d1:	11 38 
    92d3:	48 8d 85 90 f7 ff ff 	lea    -0x870(%rbp),%rax
    92da:	48 8d 15 9f 29 01 00 	lea    0x1299f(%rip),%rdx        # 1bc80 <g_1765+0x4b8>
    92e1:	b9 78 00 00 00       	mov    $0x78,%ecx
    92e6:	48 89 c7             	mov    %rax,%rdi
    92e9:	48 89 d6             	mov    %rdx,%rsi
    92ec:	f3 48 a5             	rep movsq %ds:(%rsi),%es:(%rdi)
    92ef:	48 c7 85 18 eb ff ff 	movq   $0x0,-0x14e8(%rbp)
    92f6:	00 00 00 00 
    92fa:	66 c7 85 12 ea ff ff 	movw   $0xa777,-0x15ee(%rbp)
    9301:	77 a7 
    9303:	c7 85 70 ea ff ff 69 	movl   $0x1706f669,-0x1590(%rbp)
    930a:	f6 06 17 
    930d:	66 c7 85 e0 ec ff ff 	movw   $0x1b2b,-0x1320(%rbp)
    9314:	2b 1b 
    9316:	66 c7 85 e2 ec ff ff 	movw   $0x1b2b,-0x131e(%rbp)
    931d:	2b 1b 
    931f:	66 c7 85 e4 ec ff ff 	movw   $0x1b2b,-0x131c(%rbp)
    9326:	2b 1b 
    9328:	66 c7 85 e6 ec ff ff 	movw   $0x1b2b,-0x131a(%rbp)
    932f:	2b 1b 
    9331:	66 c7 85 e8 ec ff ff 	movw   $0x1b2b,-0x1318(%rbp)
    9338:	2b 1b 
    933a:	66 c7 85 ea ec ff ff 	movw   $0x1b2b,-0x1316(%rbp)
    9341:	2b 1b 
    9343:	66 c7 85 ec ec ff ff 	movw   $0x1b2b,-0x1314(%rbp)
    934a:	2b 1b 
    934c:	66 c7 85 ee ec ff ff 	movw   $0x1b2b,-0x1312(%rbp)
    9353:	2b 1b 
    9355:	66 c7 85 f0 ec ff ff 	movw   $0x1b2b,-0x1310(%rbp)
    935c:	2b 1b 
    935e:	66 c7 85 f2 ec ff ff 	movw   $0x1b2b,-0x130e(%rbp)
    9365:	2b 1b 
    9367:	48 8d 05 7a 3e 01 00 	lea    0x13e7a(%rip),%rax        # 1d1e8 <g_499>
    936e:	48 89 85 20 eb ff ff 	mov    %rax,-0x14e0(%rbp)
    9375:	48 8d 05 64 40 01 00 	lea    0x14064(%rip),%rax        # 1d3e0 <g_1289>
    937c:	48 89 85 28 eb ff ff 	mov    %rax,-0x14d8(%rbp)
    9383:	c7 85 44 ea ff ff 00 	movl   $0x0,-0x15bc(%rbp)
    938a:	00 00 00 
    938d:	eb 42                	jmp    93d1 <func_5+0x1310>
    938f:	c7 85 48 ea ff ff 00 	movl   $0x0,-0x15b8(%rbp)
    9396:	00 00 00 
    9399:	eb 26                	jmp    93c1 <func_5+0x1300>
    939b:	8b 85 48 ea ff ff    	mov    -0x15b8(%rbp),%eax
    93a1:	48 63 d0             	movslq %eax,%rdx
    93a4:	8b 85 44 ea ff ff    	mov    -0x15bc(%rbp),%eax
    93aa:	48 98                	cltq   
    93ac:	48 01 d0             	add    %rdx,%rax
    93af:	c7 84 85 00 ed ff ff 	movl   $0x871e350,-0x1300(%rbp,%rax,4)
    93b6:	50 e3 71 08 
    93ba:	83 85 48 ea ff ff 01 	addl   $0x1,-0x15b8(%rbp)
    93c1:	83 bd 48 ea ff ff 00 	cmpl   $0x0,-0x15b8(%rbp)
    93c8:	7e d1                	jle    939b <func_5+0x12da>
    93ca:	83 85 44 ea ff ff 01 	addl   $0x1,-0x15bc(%rbp)
    93d1:	83 bd 44 ea ff ff 07 	cmpl   $0x7,-0x15bc(%rbp)
    93d8:	7e b5                	jle    938f <func_5+0x12ce>
    93da:	8b 05 04 12 01 00    	mov    0x11204(%rip),%eax        # 1a5e4 <g_688+0x4>
    93e0:	85 c0                	test   %eax,%eax
    93e2:	74 20                	je     9404 <func_5+0x1343>
    93e4:	bf 01 00 00 00       	mov    $0x1,%edi
    93e9:	e8 2b dc ff ff       	callq  7019 <safe_unary_minus_func_uint64_t_u>
    93ee:	48 85 c0             	test   %rax,%rax
    93f1:	75 0a                	jne    93fd <func_5+0x133c>
    93f3:	48 83 bd 10 eb ff ff 	cmpq   $0x0,-0x14f0(%rbp)
    93fa:	00 
    93fb:	74 07                	je     9404 <func_5+0x1343>
    93fd:	ba 01 00 00 00       	mov    $0x1,%edx
    9402:	eb 05                	jmp    9409 <func_5+0x1348>
    9404:	ba 00 00 00 00       	mov    $0x0,%edx
    9409:	48 8b 85 00 eb ff ff 	mov    -0x1500(%rbp),%rax
    9410:	48 8b 00             	mov    (%rax),%rax
    9413:	8b 00                	mov    (%rax),%eax
    9415:	0f b7 c0             	movzwl %ax,%eax
    9418:	89 d6                	mov    %edx,%esi
    941a:	89 c7                	mov    %eax,%edi
    941c:	e8 27 da ff ff       	callq  6e48 <safe_rshift_func_uint16_t_u_s>
    9421:	66 85 c0             	test   %ax,%ax
    9424:	74 1a                	je     9440 <func_5+0x137f>
    9426:	48 8d 85 d0 ea ff ff 	lea    -0x1530(%rbp),%rax
    942d:	48 89 85 f0 eb ff ff 	mov    %rax,-0x1410(%rbp)
    9434:	48 8d 05 25 35 01 00 	lea    0x13525(%rip),%rax        # 1c960 <g_110>
    943b:	e9 5c 17 00 00       	jmpq   ab9c <func_5+0x2adb>
    9440:	c7 85 4c ea ff ff ff 	movl   $0xffffffff,-0x15b4(%rbp)
    9447:	ff ff ff 
    944a:	c7 85 74 ea ff ff da 	movl   $0x7ba766da,-0x158c(%rbp)
    9451:	66 a7 7b 
    9454:	c7 85 50 ea ff ff 00 	movl   $0x0,-0x15b0(%rbp)
    945b:	00 00 00 
    945e:	eb 42                	jmp    94a2 <func_5+0x13e1>
    9460:	c7 85 54 ea ff ff 00 	movl   $0x0,-0x15ac(%rbp)
    9467:	00 00 00 
    946a:	eb 26                	jmp    9492 <func_5+0x13d1>
    946c:	8b 85 54 ea ff ff    	mov    -0x15ac(%rbp),%eax
    9472:	48 63 d0             	movslq %eax,%rdx
    9475:	8b 85 50 ea ff ff    	mov    -0x15b0(%rbp),%eax
    947b:	48 98                	cltq   
    947d:	48 01 d0             	add    %rdx,%rax
    9480:	c7 84 85 20 ed ff ff 	movl   $0x5,-0x12e0(%rbp,%rax,4)
    9487:	05 00 00 00 
    948b:	83 85 54 ea ff ff 01 	addl   $0x1,-0x15ac(%rbp)
    9492:	83 bd 54 ea ff ff 00 	cmpl   $0x0,-0x15ac(%rbp)
    9499:	7e d1                	jle    946c <func_5+0x13ab>
    949b:	83 85 50 ea ff ff 01 	addl   $0x1,-0x15b0(%rbp)
    94a2:	83 bd 50 ea ff ff 00 	cmpl   $0x0,-0x15b0(%rbp)
    94a9:	7e b5                	jle    9460 <func_5+0x139f>
    94ab:	c7 05 b7 0f 01 00 1b 	movl   $0x1b,0x10fb7(%rip)        # 1a46c <g_89+0xc>
    94b2:	00 00 00 
    94b5:	e9 5f 03 00 00       	jmpq   9819 <func_5+0x1758>
    94ba:	c6 85 0d ea ff ff 00 	movb   $0x0,-0x15f3(%rbp)
    94c1:	c7 85 98 ea ff ff f9 	movl   $0xfffffff9,-0x1568(%rbp)
    94c8:	ff ff ff 
    94cb:	c7 85 9c ea ff ff f9 	movl   $0xfffffff9,-0x1564(%rbp)
    94d2:	ff ff ff 
    94d5:	c7 85 a0 ea ff ff f9 	movl   $0xfffffff9,-0x1560(%rbp)
    94dc:	ff ff ff 
    94df:	48 8d 85 d8 ea ff ff 	lea    -0x1528(%rbp),%rax
    94e6:	48 89 85 50 fb ff ff 	mov    %rax,-0x4b0(%rbp)
    94ed:	48 c7 85 58 fb ff ff 	movq   $0x0,-0x4a8(%rbp)
    94f4:	00 00 00 00 
    94f8:	48 8d 85 d8 ea ff ff 	lea    -0x1528(%rbp),%rax
    94ff:	48 89 85 60 fb ff ff 	mov    %rax,-0x4a0(%rbp)
    9506:	48 c7 85 68 fb ff ff 	movq   $0x0,-0x498(%rbp)
    950d:	00 00 00 00 
    9511:	48 8d 85 d8 ea ff ff 	lea    -0x1528(%rbp),%rax
    9518:	48 89 85 70 fb ff ff 	mov    %rax,-0x490(%rbp)
    951f:	48 8d 05 e2 0f 01 00 	lea    0x10fe2(%rip),%rax        # 1a508 <g_286>
    9526:	48 89 85 78 fb ff ff 	mov    %rax,-0x488(%rbp)
    952d:	48 8d 05 d4 0f 01 00 	lea    0x10fd4(%rip),%rax        # 1a508 <g_286>
    9534:	48 89 85 80 fb ff ff 	mov    %rax,-0x480(%rbp)
    953b:	48 8d 05 c6 0f 01 00 	lea    0x10fc6(%rip),%rax        # 1a508 <g_286>
    9542:	48 89 85 88 fb ff ff 	mov    %rax,-0x478(%rbp)
    9549:	48 8d 05 b8 0f 01 00 	lea    0x10fb8(%rip),%rax        # 1a508 <g_286>
    9550:	48 89 85 90 fb ff ff 	mov    %rax,-0x470(%rbp)
    9557:	48 8d 05 aa 0f 01 00 	lea    0x10faa(%rip),%rax        # 1a508 <g_286>
    955e:	48 89 85 98 fb ff ff 	mov    %rax,-0x468(%rbp)
    9565:	48 8d 85 50 fb ff ff 	lea    -0x4b0(%rbp),%rax
    956c:	48 83 c0 08          	add    $0x8,%rax
    9570:	48 89 85 e8 ea ff ff 	mov    %rax,-0x1518(%rbp)
    9577:	48 8d 85 e8 ea ff ff 	lea    -0x1518(%rbp),%rax
    957e:	48 89 85 f0 ea ff ff 	mov    %rax,-0x1510(%rbp)
    9585:	48 8d 85 f0 ea ff ff 	lea    -0x1510(%rbp),%rax
    958c:	48 89 85 f8 ea ff ff 	mov    %rax,-0x1508(%rbp)
    9593:	48 8d 85 f8 ea ff ff 	lea    -0x1508(%rbp),%rax
    959a:	48 89 85 80 eb ff ff 	mov    %rax,-0x1480(%rbp)
    95a1:	c7 85 58 ea ff ff 00 	movl   $0x0,-0x15a8(%rbp)
    95a8:	00 00 00 
    95ab:	eb 1a                	jmp    95c7 <func_5+0x1506>
    95ad:	8b 85 58 ea ff ff    	mov    -0x15a8(%rbp),%eax
    95b3:	48 98                	cltq   
    95b5:	c7 84 85 70 ed ff ff 	movl   $0x1fa6c4bd,-0x1290(%rbp,%rax,4)
    95bc:	bd c4 a6 1f 
    95c0:	83 85 58 ea ff ff 01 	addl   $0x1,-0x15a8(%rbp)
    95c7:	83 bd 58 ea ff ff 02 	cmpl   $0x2,-0x15a8(%rbp)
    95ce:	7e dd                	jle    95ad <func_5+0x14ec>
    95d0:	8b 05 d2 0e 01 00    	mov    0x10ed2(%rip),%eax        # 1a4a8 <g_141+0x8>
    95d6:	85 c0                	test   %eax,%eax
    95d8:	74 05                	je     95df <func_5+0x151e>
    95da:	e9 bf eb ff ff       	jmpq   819e <func_5+0xdd>
    95df:	0f b6 85 0d ea ff ff 	movzbl -0x15f3(%rbp),%eax
    95e6:	89 c7                	mov    %eax,%edi
    95e8:	e8 b0 cd ff ff       	callq  639d <safe_unary_minus_func_int16_t_s>
    95ed:	48 8b 85 00 eb ff ff 	mov    -0x1500(%rbp),%rax
    95f4:	48 8b 00             	mov    (%rax),%rax
    95f7:	8b 00                	mov    (%rax),%eax
    95f9:	85 c0                	test   %eax,%eax
    95fb:	74 1a                	je     9617 <func_5+0x1556>
    95fd:	48 8b 05 f4 3b 01 00 	mov    0x13bf4(%rip),%rax        # 1d1f8 <g_713>
    9604:	48 8b 00             	mov    (%rax),%rax
    9607:	48 8b 00             	mov    (%rax),%rax
    960a:	8b 95 6c ea ff ff    	mov    -0x1594(%rbp),%edx
    9610:	89 10                	mov    %edx,(%rax)
    9612:	e9 d1 01 00 00       	jmpq   97e8 <func_5+0x1727>
    9617:	c7 85 a4 ea ff ff 01 	movl   $0x1,-0x155c(%rbp)
    961e:	00 00 00 
    9621:	c7 85 a8 ea ff ff ff 	movl   $0xffffffff,-0x1558(%rbp)
    9628:	ff ff ff 
    962b:	66 c7 85 18 ea ff ff 	movw   $0xd4cd,-0x15e8(%rbp)
    9632:	cd d4 
    9634:	c7 85 ac ea ff ff 01 	movl   $0x1,-0x1554(%rbp)
    963b:	00 00 00 
    963e:	c7 85 b0 ea ff ff b7 	movl   $0xca1bedb7,-0x1550(%rbp)
    9645:	ed 1b ca 
    9648:	c7 85 b4 ea ff ff 06 	movl   $0xce120906,-0x154c(%rbp)
    964f:	09 12 ce 
    9652:	c6 05 58 0e 01 00 11 	movb   $0x11,0x10e58(%rip)        # 1a4b1 <g_141+0x11>
    9659:	e9 7b 01 00 00       	jmpq   97d9 <func_5+0x1718>
    965e:	48 8d 05 b3 0c 01 00 	lea    0x10cb3(%rip),%rax        # 1a318 <g_45>
    9665:	48 89 85 88 eb ff ff 	mov    %rax,-0x1478(%rbp)
    966c:	48 8d 85 e0 ee ff ff 	lea    -0x1120(%rbp),%rax
    9673:	48 05 88 00 00 00    	add    $0x88,%rax
    9679:	48 89 85 90 eb ff ff 	mov    %rax,-0x1470(%rbp)
    9680:	48 8d 85 1c ea ff ff 	lea    -0x15e4(%rbp),%rax
    9687:	48 89 85 98 eb ff ff 	mov    %rax,-0x1468(%rbp)
    968e:	48 8d 05 5f 0a 01 00 	lea    0x10a5f(%rip),%rax        # 1a0f4 <g_4+0xb4>
    9695:	48 89 85 a0 eb ff ff 	mov    %rax,-0x1460(%rbp)
    969c:	48 8d 05 51 0a 01 00 	lea    0x10a51(%rip),%rax        # 1a0f4 <g_4+0xb4>
    96a3:	48 89 85 a8 eb ff ff 	mov    %rax,-0x1458(%rbp)
    96aa:	48 8d 05 1b 0f 01 00 	lea    0x10f1b(%rip),%rax        # 1a5cc <g_535>
    96b1:	48 89 85 b0 eb ff ff 	mov    %rax,-0x1450(%rbp)
    96b8:	48 8d 85 e0 ee ff ff 	lea    -0x1120(%rbp),%rax
    96bf:	48 83 c0 64          	add    $0x64,%rax
    96c3:	48 89 85 b8 eb ff ff 	mov    %rax,-0x1448(%rbp)
    96ca:	48 8d 85 e0 ee ff ff 	lea    -0x1120(%rbp),%rax
    96d1:	48 05 c8 00 00 00    	add    $0xc8,%rax
    96d7:	48 89 85 c0 eb ff ff 	mov    %rax,-0x1440(%rbp)
    96de:	48 8d 05 e7 0e 01 00 	lea    0x10ee7(%rip),%rax        # 1a5cc <g_535>
    96e5:	48 89 85 c8 eb ff ff 	mov    %rax,-0x1438(%rbp)
    96ec:	48 c7 85 d0 eb ff ff 	movq   $0x0,-0x1430(%rbp)
    96f3:	00 00 00 00 
    96f7:	48 8d 05 f6 09 01 00 	lea    0x109f6(%rip),%rax        # 1a0f4 <g_4+0xb4>
    96fe:	48 89 85 d8 eb ff ff 	mov    %rax,-0x1428(%rbp)
    9705:	48 8d 05 d4 09 01 00 	lea    0x109d4(%rip),%rax        # 1a0e0 <g_4+0xa0>
    970c:	48 89 85 e0 eb ff ff 	mov    %rax,-0x1420(%rbp)
    9713:	48 c7 85 e8 eb ff ff 	movq   $0xfffffffffffffffa,-0x1418(%rbp)
    971a:	fa ff ff ff 
    971e:	c7 85 5c ea ff ff 00 	movl   $0x0,-0x15a4(%rbp)
    9725:	00 00 00 
    9728:	eb 25                	jmp    974f <func_5+0x168e>
    972a:	8b 85 5c ea ff ff    	mov    -0x15a4(%rbp),%eax
    9730:	48 98                	cltq   
    9732:	48 8d 95 e0 ee ff ff 	lea    -0x1120(%rbp),%rdx
    9739:	48 81 c2 28 01 00 00 	add    $0x128,%rdx
    9740:	48 89 94 c5 30 f4 ff 	mov    %rdx,-0xbd0(%rbp,%rax,8)
    9747:	ff 
    9748:	83 85 5c ea ff ff 01 	addl   $0x1,-0x15a4(%rbp)
    974f:	83 bd 5c ea ff ff 05 	cmpl   $0x5,-0x15a4(%rbp)
    9756:	7e d2                	jle    972a <func_5+0x1669>
    9758:	48 8b 85 88 eb ff ff 	mov    -0x1478(%rbp),%rax
    975f:	8b 00                	mov    (%rax),%eax
    9761:	89 c6                	mov    %eax,%esi
    9763:	8b 95 98 ee ff ff    	mov    -0x1168(%rbp),%edx
    9769:	8b 8d 98 ee ff ff    	mov    -0x1168(%rbp),%ecx
    976f:	48 8b 85 00 eb ff ff 	mov    -0x1500(%rbp),%rax
    9776:	48 8b 00             	mov    (%rax),%rax
    9779:	8b 00                	mov    (%rax),%eax
    977b:	39 c1                	cmp    %eax,%ecx
    977d:	0f 95 c0             	setne  %al
    9780:	0f b6 c0             	movzbl %al,%eax
    9783:	09 d0                	or     %edx,%eax
    9785:	31 f0                	xor    %esi,%eax
    9787:	89 c2                	mov    %eax,%edx
    9789:	48 8b 85 88 eb ff ff 	mov    -0x1478(%rbp),%rax
    9790:	89 10                	mov    %edx,(%rax)
    9792:	48 8b 05 47 3a 01 00 	mov    0x13a47(%rip),%rax        # 1d1e0 <g_371>
    9799:	48 8b 95 f8 e9 ff ff 	mov    -0x1608(%rbp),%rdx
    97a0:	48 89 10             	mov    %rdx,(%rax)
    97a3:	83 ad 4c ea ff ff 01 	subl   $0x1,-0x15b4(%rbp)
    97aa:	0f b7 85 10 ea ff ff 	movzwl -0x15f0(%rbp),%eax
    97b1:	83 c0 01             	add    $0x1,%eax
    97b4:	66 89 85 10 ea ff ff 	mov    %ax,-0x15f0(%rbp)
    97bb:	0f b6 05 ef 0c 01 00 	movzbl 0x10cef(%rip),%eax        # 1a4b1 <g_141+0x11>
    97c2:	66 98                	cbtw   
    97c4:	0f b7 c0             	movzwl %ax,%eax
    97c7:	be 04 00 00 00       	mov    $0x4,%esi
    97cc:	89 c7                	mov    %eax,%edi
    97ce:	e8 4c d5 ff ff       	callq  6d1f <safe_sub_func_uint16_t_u_u>
    97d3:	88 05 d8 0c 01 00    	mov    %al,0x10cd8(%rip)        # 1a4b1 <g_141+0x11>
    97d9:	0f b6 05 d1 0c 01 00 	movzbl 0x10cd1(%rip),%eax        # 1a4b1 <g_141+0x11>
    97e0:	3c eb                	cmp    $0xeb,%al
    97e2:	0f 8c 76 fe ff ff    	jl     965e <func_5+0x159d>
    97e8:	48 8b 95 f8 ea ff ff 	mov    -0x1508(%rbp),%rdx
    97ef:	48 8b 85 80 eb ff ff 	mov    -0x1480(%rbp),%rax
    97f6:	48 89 10             	mov    %rdx,(%rax)
    97f9:	48 8b 05 00 3c 01 00 	mov    0x13c00(%rip),%rax        # 1d400 <g_1419>
    9800:	48 8b 95 90 f9 ff ff 	mov    -0x670(%rbp),%rdx
    9807:	48 89 10             	mov    %rdx,(%rax)
    980a:	8b 05 5c 0c 01 00    	mov    0x10c5c(%rip),%eax        # 1a46c <g_89+0xc>
    9810:	83 e8 01             	sub    $0x1,%eax
    9813:	89 05 53 0c 01 00    	mov    %eax,0x10c53(%rip)        # 1a46c <g_89+0xc>
    9819:	8b 05 4d 0c 01 00    	mov    0x10c4d(%rip),%eax        # 1a46c <g_89+0xc>
    981f:	83 f8 eb             	cmp    $0xffffffeb,%eax
    9822:	0f 8d 92 fc ff ff    	jge    94ba <func_5+0x13f9>
    9828:	48 8b 85 f8 e9 ff ff 	mov    -0x1608(%rbp),%rax
    982f:	8b 08                	mov    (%rax),%ecx
    9831:	0f b6 05 3c 1e 01 00 	movzbl 0x11e3c(%rip),%eax        # 1b674 <g_1536>
    9838:	0f be d0             	movsbl %al,%edx
    983b:	48 8b 85 f8 e9 ff ff 	mov    -0x1608(%rbp),%rax
    9842:	09 ca                	or     %ecx,%edx
    9844:	89 10                	mov    %edx,(%rax)
    9846:	48 8b 95 f8 e9 ff ff 	mov    -0x1608(%rbp),%rdx
    984d:	48 8b 85 00 eb ff ff 	mov    -0x1500(%rbp),%rax
    9854:	48 89 10             	mov    %rdx,(%rax)
    9857:	c7 05 4b 0c 01 00 00 	movl   $0x0,0x10c4b(%rip)        # 1a4ac <g_141+0xc>
    985e:	00 00 00 
    9861:	e9 1a 13 00 00       	jmpq   ab80 <func_5+0x2abf>
    9866:	c7 85 78 ea ff ff f8 	movl   $0xfffffff8,-0x1588(%rbp)
    986d:	ff ff ff 
    9870:	c7 85 7c ea ff ff 8e 	movl   $0x9d3b7a8e,-0x1584(%rbp)
    9877:	7a 3b 9d 
    987a:	c7 85 80 ea ff ff 01 	movl   $0x1,-0x1580(%rbp)
    9881:	00 00 00 
    9884:	48 c7 85 30 eb ff ff 	movq   $0x0,-0x14d0(%rbp)
    988b:	00 00 00 00 
    988f:	66 c7 85 d0 ec ff ff 	movw   $0xffff,-0x1330(%rbp)
    9896:	ff ff 
    9898:	66 c7 85 d2 ec ff ff 	movw   $0xffff,-0x132e(%rbp)
    989f:	ff ff 
    98a1:	66 c7 85 d4 ec ff ff 	movw   $0xffff,-0x132c(%rbp)
    98a8:	ff ff 
    98aa:	66 c7 85 d6 ec ff ff 	movw   $0xffff,-0x132a(%rbp)
    98b1:	ff ff 
    98b3:	66 c7 85 d8 ec ff ff 	movw   $0xffff,-0x1328(%rbp)
    98ba:	ff ff 
    98bc:	66 c7 85 da ec ff ff 	movw   $0xffff,-0x1326(%rbp)
    98c3:	ff ff 
    98c5:	66 c7 85 dc ec ff ff 	movw   $0xffff,-0x1324(%rbp)
    98cc:	ff ff 
    98ce:	66 c7 85 de ec ff ff 	movw   $0xffff,-0x1322(%rbp)
    98d5:	ff ff 
    98d7:	48 8d 85 10 ea ff ff 	lea    -0x15f0(%rbp),%rax
    98de:	48 89 85 50 fb ff ff 	mov    %rax,-0x4b0(%rbp)
    98e5:	48 8d 85 10 ea ff ff 	lea    -0x15f0(%rbp),%rax
    98ec:	48 89 85 58 fb ff ff 	mov    %rax,-0x4a8(%rbp)
    98f3:	48 8d 85 d0 ec ff ff 	lea    -0x1330(%rbp),%rax
    98fa:	48 83 c0 06          	add    $0x6,%rax
    98fe:	48 89 85 60 fb ff ff 	mov    %rax,-0x4a0(%rbp)
    9905:	48 8d 05 ca 0b 01 00 	lea    0x10bca(%rip),%rax        # 1a4d6 <g_214+0x6>
    990c:	48 89 85 68 fb ff ff 	mov    %rax,-0x498(%rbp)
    9913:	48 8d 05 16 08 01 00 	lea    0x10816(%rip),%rax        # 1a130 <g_23+0x10>
    991a:	48 89 85 70 fb ff ff 	mov    %rax,-0x490(%rbp)
    9921:	48 8d 05 08 08 01 00 	lea    0x10808(%rip),%rax        # 1a130 <g_23+0x10>
    9928:	48 89 85 78 fb ff ff 	mov    %rax,-0x488(%rbp)
    992f:	48 8d 05 ba 0e 01 00 	lea    0x10eba(%rip),%rax        # 1a7f0 <g_936>
    9936:	48 89 85 80 fb ff ff 	mov    %rax,-0x480(%rbp)
    993d:	48 8d 05 ec 07 01 00 	lea    0x107ec(%rip),%rax        # 1a130 <g_23+0x10>
    9944:	48 89 85 88 fb ff ff 	mov    %rax,-0x478(%rbp)
    994b:	48 8d 85 d0 ec ff ff 	lea    -0x1330(%rbp),%rax
    9952:	48 83 c0 06          	add    $0x6,%rax
    9956:	48 89 85 90 fb ff ff 	mov    %rax,-0x470(%rbp)
    995d:	48 8d 05 8c 0e 01 00 	lea    0x10e8c(%rip),%rax        # 1a7f0 <g_936>
    9964:	48 89 85 98 fb ff ff 	mov    %rax,-0x468(%rbp)
    996b:	48 8d 85 10 ea ff ff 	lea    -0x15f0(%rbp),%rax
    9972:	48 89 85 a0 fb ff ff 	mov    %rax,-0x460(%rbp)
    9979:	48 8d 85 10 ea ff ff 	lea    -0x15f0(%rbp),%rax
    9980:	48 89 85 a8 fb ff ff 	mov    %rax,-0x458(%rbp)
    9987:	48 8d 05 48 0b 01 00 	lea    0x10b48(%rip),%rax        # 1a4d6 <g_214+0x6>
    998e:	48 89 85 b0 fb ff ff 	mov    %rax,-0x450(%rbp)
    9995:	48 8d 05 3a 0b 01 00 	lea    0x10b3a(%rip),%rax        # 1a4d6 <g_214+0x6>
    999c:	48 89 85 b8 fb ff ff 	mov    %rax,-0x448(%rbp)
    99a3:	48 8d 05 56 18 01 00 	lea    0x11856(%rip),%rax        # 1b200 <g_948>
    99aa:	48 89 85 c0 fb ff ff 	mov    %rax,-0x440(%rbp)
    99b1:	48 8d 05 48 18 01 00 	lea    0x11848(%rip),%rax        # 1b200 <g_948>
    99b8:	48 89 85 c8 fb ff ff 	mov    %rax,-0x438(%rbp)
    99bf:	48 c7 85 d0 fb ff ff 	movq   $0x0,-0x430(%rbp)
    99c6:	00 00 00 00 
    99ca:	48 8d 05 5f 07 01 00 	lea    0x1075f(%rip),%rax        # 1a130 <g_23+0x10>
    99d1:	48 89 85 d8 fb ff ff 	mov    %rax,-0x428(%rbp)
    99d8:	48 8d 85 12 ea ff ff 	lea    -0x15ee(%rbp),%rax
    99df:	48 89 85 e0 fb ff ff 	mov    %rax,-0x420(%rbp)
    99e6:	48 c7 85 e8 fb ff ff 	movq   $0x0,-0x418(%rbp)
    99ed:	00 00 00 00 
    99f1:	48 8d 05 08 18 01 00 	lea    0x11808(%rip),%rax        # 1b200 <g_948>
    99f8:	48 89 85 f0 fb ff ff 	mov    %rax,-0x410(%rbp)
    99ff:	48 c7 85 f8 fb ff ff 	movq   $0x0,-0x408(%rbp)
    9a06:	00 00 00 00 
    9a0a:	48 8d 85 10 ea ff ff 	lea    -0x15f0(%rbp),%rax
    9a11:	48 89 85 00 fc ff ff 	mov    %rax,-0x400(%rbp)
    9a18:	48 8d 85 12 ea ff ff 	lea    -0x15ee(%rbp),%rax
    9a1f:	48 89 85 08 fc ff ff 	mov    %rax,-0x3f8(%rbp)
    9a26:	48 c7 85 10 fc ff ff 	movq   $0x0,-0x3f0(%rbp)
    9a2d:	00 00 00 00 
    9a31:	48 c7 85 18 fc ff ff 	movq   $0x0,-0x3e8(%rbp)
    9a38:	00 00 00 00 
    9a3c:	48 8d 85 d0 ec ff ff 	lea    -0x1330(%rbp),%rax
    9a43:	48 83 c0 06          	add    $0x6,%rax
    9a47:	48 89 85 20 fc ff ff 	mov    %rax,-0x3e0(%rbp)
    9a4e:	48 c7 85 28 fc ff ff 	movq   $0x0,-0x3d8(%rbp)
    9a55:	00 00 00 00 
    9a59:	48 c7 85 30 fc ff ff 	movq   $0x0,-0x3d0(%rbp)
    9a60:	00 00 00 00 
    9a64:	48 8d 05 c5 06 01 00 	lea    0x106c5(%rip),%rax        # 1a130 <g_23+0x10>
    9a6b:	48 89 85 38 fc ff ff 	mov    %rax,-0x3c8(%rbp)
    9a72:	48 8d 05 b7 06 01 00 	lea    0x106b7(%rip),%rax        # 1a130 <g_23+0x10>
    9a79:	48 89 85 40 fc ff ff 	mov    %rax,-0x3c0(%rbp)
    9a80:	48 8d 05 79 17 01 00 	lea    0x11779(%rip),%rax        # 1b200 <g_948>
    9a87:	48 89 85 48 fc ff ff 	mov    %rax,-0x3b8(%rbp)
    9a8e:	48 8d 85 d0 ec ff ff 	lea    -0x1330(%rbp),%rax
    9a95:	48 83 c0 06          	add    $0x6,%rax
    9a99:	48 89 85 50 fc ff ff 	mov    %rax,-0x3b0(%rbp)
    9aa0:	48 8d 05 2f 0a 01 00 	lea    0x10a2f(%rip),%rax        # 1a4d6 <g_214+0x6>
    9aa7:	48 89 85 58 fc ff ff 	mov    %rax,-0x3a8(%rbp)
    9aae:	48 c7 85 60 fc ff ff 	movq   $0x0,-0x3a0(%rbp)
    9ab5:	00 00 00 00 
    9ab9:	48 8d 85 10 ea ff ff 	lea    -0x15f0(%rbp),%rax
    9ac0:	48 89 85 68 fc ff ff 	mov    %rax,-0x398(%rbp)
    9ac7:	48 8d 85 d0 ec ff ff 	lea    -0x1330(%rbp),%rax
    9ace:	48 83 c0 06          	add    $0x6,%rax
    9ad2:	48 89 85 70 fc ff ff 	mov    %rax,-0x390(%rbp)
    9ad9:	48 8d 05 10 0d 01 00 	lea    0x10d10(%rip),%rax        # 1a7f0 <g_936>
    9ae0:	48 89 85 78 fc ff ff 	mov    %rax,-0x388(%rbp)
    9ae7:	48 8d 85 10 ea ff ff 	lea    -0x15f0(%rbp),%rax
    9aee:	48 89 85 80 fc ff ff 	mov    %rax,-0x380(%rbp)
    9af5:	48 8d 05 34 06 01 00 	lea    0x10634(%rip),%rax        # 1a130 <g_23+0x10>
    9afc:	48 89 85 88 fc ff ff 	mov    %rax,-0x378(%rbp)
    9b03:	48 8d 05 26 06 01 00 	lea    0x10626(%rip),%rax        # 1a130 <g_23+0x10>
    9b0a:	48 89 85 90 fc ff ff 	mov    %rax,-0x370(%rbp)
    9b11:	48 8d 05 18 06 01 00 	lea    0x10618(%rip),%rax        # 1a130 <g_23+0x10>
    9b18:	48 89 85 98 fc ff ff 	mov    %rax,-0x368(%rbp)
    9b1f:	48 8d 85 10 ea ff ff 	lea    -0x15f0(%rbp),%rax
    9b26:	48 89 85 a0 fc ff ff 	mov    %rax,-0x360(%rbp)
    9b2d:	48 8d 05 bc 09 01 00 	lea    0x109bc(%rip),%rax        # 1a4f0 <g_243>
    9b34:	48 89 85 a8 fc ff ff 	mov    %rax,-0x358(%rbp)
    9b3b:	48 8d 85 10 ea ff ff 	lea    -0x15f0(%rbp),%rax
    9b42:	48 89 85 b0 fc ff ff 	mov    %rax,-0x350(%rbp)
    9b49:	48 c7 85 b8 fc ff ff 	movq   $0x0,-0x348(%rbp)
    9b50:	00 00 00 00 
    9b54:	48 8d 05 d5 05 01 00 	lea    0x105d5(%rip),%rax        # 1a130 <g_23+0x10>
    9b5b:	48 89 85 c0 fc ff ff 	mov    %rax,-0x340(%rbp)
    9b62:	48 c7 85 c8 fc ff ff 	movq   $0x0,-0x338(%rbp)
    9b69:	00 00 00 00 
    9b6d:	48 8d 85 d0 ec ff ff 	lea    -0x1330(%rbp),%rax
    9b74:	48 83 c0 06          	add    $0x6,%rax
    9b78:	48 89 85 d0 fc ff ff 	mov    %rax,-0x330(%rbp)
    9b7f:	48 8d 05 6a 0c 01 00 	lea    0x10c6a(%rip),%rax        # 1a7f0 <g_936>
    9b86:	48 89 85 d8 fc ff ff 	mov    %rax,-0x328(%rbp)
    9b8d:	48 8d 05 5c 0c 01 00 	lea    0x10c5c(%rip),%rax        # 1a7f0 <g_936>
    9b94:	48 89 85 e0 fc ff ff 	mov    %rax,-0x320(%rbp)
    9b9b:	48 c7 85 e8 fc ff ff 	movq   $0x0,-0x318(%rbp)
    9ba2:	00 00 00 00 
    9ba6:	48 8d 05 83 05 01 00 	lea    0x10583(%rip),%rax        # 1a130 <g_23+0x10>
    9bad:	48 89 85 f0 fc ff ff 	mov    %rax,-0x310(%rbp)
    9bb4:	48 8d 05 75 05 01 00 	lea    0x10575(%rip),%rax        # 1a130 <g_23+0x10>
    9bbb:	48 89 85 f8 fc ff ff 	mov    %rax,-0x308(%rbp)
    9bc2:	48 8d 05 27 0c 01 00 	lea    0x10c27(%rip),%rax        # 1a7f0 <g_936>
    9bc9:	48 89 85 00 fd ff ff 	mov    %rax,-0x300(%rbp)
    9bd0:	48 8d 85 10 ea ff ff 	lea    -0x15f0(%rbp),%rax
    9bd7:	48 89 85 08 fd ff ff 	mov    %rax,-0x2f8(%rbp)
    9bde:	48 8d 85 d0 ec ff ff 	lea    -0x1330(%rbp),%rax
    9be5:	48 83 c0 06          	add    $0x6,%rax
    9be9:	48 89 85 10 fd ff ff 	mov    %rax,-0x2f0(%rbp)
    9bf0:	48 c7 85 18 fd ff ff 	movq   $0x0,-0x2e8(%rbp)
    9bf7:	00 00 00 00 
    9bfb:	48 8d 05 2e 05 01 00 	lea    0x1052e(%rip),%rax        # 1a130 <g_23+0x10>
    9c02:	48 89 85 20 fd ff ff 	mov    %rax,-0x2e0(%rbp)
    9c09:	48 8d 05 e0 08 01 00 	lea    0x108e0(%rip),%rax        # 1a4f0 <g_243>
    9c10:	48 89 85 28 fd ff ff 	mov    %rax,-0x2d8(%rbp)
    9c17:	48 8d 85 10 ea ff ff 	lea    -0x15f0(%rbp),%rax
    9c1e:	48 89 85 30 fd ff ff 	mov    %rax,-0x2d0(%rbp)
    9c25:	48 8d 05 04 05 01 00 	lea    0x10504(%rip),%rax        # 1a130 <g_23+0x10>
    9c2c:	48 89 85 38 fd ff ff 	mov    %rax,-0x2c8(%rbp)
    9c33:	48 8d 85 10 ea ff ff 	lea    -0x15f0(%rbp),%rax
    9c3a:	48 89 85 40 fd ff ff 	mov    %rax,-0x2c0(%rbp)
    9c41:	48 8d 85 d0 ec ff ff 	lea    -0x1330(%rbp),%rax
    9c48:	48 83 c0 06          	add    $0x6,%rax
    9c4c:	48 89 85 48 fd ff ff 	mov    %rax,-0x2b8(%rbp)
    9c53:	48 8d 85 10 ea ff ff 	lea    -0x15f0(%rbp),%rax
    9c5a:	48 89 85 50 fd ff ff 	mov    %rax,-0x2b0(%rbp)
    9c61:	48 8d 85 d0 ec ff ff 	lea    -0x1330(%rbp),%rax
    9c68:	48 83 c0 06          	add    $0x6,%rax
    9c6c:	48 89 85 58 fd ff ff 	mov    %rax,-0x2a8(%rbp)
    9c73:	48 8d 85 d0 ec ff ff 	lea    -0x1330(%rbp),%rax
    9c7a:	48 83 c0 06          	add    $0x6,%rax
    9c7e:	48 89 85 60 fd ff ff 	mov    %rax,-0x2a0(%rbp)
    9c85:	48 8d 05 74 15 01 00 	lea    0x11574(%rip),%rax        # 1b200 <g_948>
    9c8c:	48 89 85 68 fd ff ff 	mov    %rax,-0x298(%rbp)
    9c93:	48 8d 85 10 ea ff ff 	lea    -0x15f0(%rbp),%rax
    9c9a:	48 89 85 70 fd ff ff 	mov    %rax,-0x290(%rbp)
    9ca1:	48 8d 85 10 ea ff ff 	lea    -0x15f0(%rbp),%rax
    9ca8:	48 89 85 78 fd ff ff 	mov    %rax,-0x288(%rbp)
    9caf:	48 8d 85 10 ea ff ff 	lea    -0x15f0(%rbp),%rax
    9cb6:	48 89 85 80 fd ff ff 	mov    %rax,-0x280(%rbp)
    9cbd:	48 8d 85 10 ea ff ff 	lea    -0x15f0(%rbp),%rax
    9cc4:	48 89 85 88 fd ff ff 	mov    %rax,-0x278(%rbp)
    9ccb:	48 8d 85 10 ea ff ff 	lea    -0x15f0(%rbp),%rax
    9cd2:	48 89 85 90 fd ff ff 	mov    %rax,-0x270(%rbp)
    9cd9:	48 8d 85 12 ea ff ff 	lea    -0x15ee(%rbp),%rax
    9ce0:	48 89 85 98 fd ff ff 	mov    %rax,-0x268(%rbp)
    9ce7:	48 8d 85 10 ea ff ff 	lea    -0x15f0(%rbp),%rax
    9cee:	48 89 85 a0 fd ff ff 	mov    %rax,-0x260(%rbp)
    9cf5:	48 8d 85 d0 ec ff ff 	lea    -0x1330(%rbp),%rax
    9cfc:	48 83 c0 06          	add    $0x6,%rax
    9d00:	48 89 85 a8 fd ff ff 	mov    %rax,-0x258(%rbp)
    9d07:	48 8d 05 f2 14 01 00 	lea    0x114f2(%rip),%rax        # 1b200 <g_948>
    9d0e:	48 89 85 b0 fd ff ff 	mov    %rax,-0x250(%rbp)
    9d15:	48 8d 85 d0 ec ff ff 	lea    -0x1330(%rbp),%rax
    9d1c:	48 83 c0 06          	add    $0x6,%rax
    9d20:	48 89 85 b8 fd ff ff 	mov    %rax,-0x248(%rbp)
    9d27:	48 8d 85 10 ea ff ff 	lea    -0x15f0(%rbp),%rax
    9d2e:	48 89 85 c0 fd ff ff 	mov    %rax,-0x240(%rbp)
    9d35:	48 8d 05 f4 03 01 00 	lea    0x103f4(%rip),%rax        # 1a130 <g_23+0x10>
    9d3c:	48 89 85 c8 fd ff ff 	mov    %rax,-0x238(%rbp)
    9d43:	48 8d 05 a6 0a 01 00 	lea    0x10aa6(%rip),%rax        # 1a7f0 <g_936>
    9d4a:	48 89 85 d0 fd ff ff 	mov    %rax,-0x230(%rbp)
    9d51:	48 8d 05 7e 07 01 00 	lea    0x1077e(%rip),%rax        # 1a4d6 <g_214+0x6>
    9d58:	48 89 85 d8 fd ff ff 	mov    %rax,-0x228(%rbp)
    9d5f:	48 8d 85 d0 ec ff ff 	lea    -0x1330(%rbp),%rax
    9d66:	48 83 c0 06          	add    $0x6,%rax
    9d6a:	48 89 85 e0 fd ff ff 	mov    %rax,-0x220(%rbp)
    9d71:	48 8d 05 b8 03 01 00 	lea    0x103b8(%rip),%rax        # 1a130 <g_23+0x10>
    9d78:	48 89 85 e8 fd ff ff 	mov    %rax,-0x218(%rbp)
    9d7f:	48 8d 85 d0 ec ff ff 	lea    -0x1330(%rbp),%rax
    9d86:	48 83 c0 06          	add    $0x6,%rax
    9d8a:	48 89 85 f0 fd ff ff 	mov    %rax,-0x210(%rbp)
    9d91:	48 8d 85 d0 ec ff ff 	lea    -0x1330(%rbp),%rax
    9d98:	48 83 c0 06          	add    $0x6,%rax
    9d9c:	48 89 85 f8 fd ff ff 	mov    %rax,-0x208(%rbp)
    9da3:	48 8d 85 d0 ec ff ff 	lea    -0x1330(%rbp),%rax
    9daa:	48 83 c0 06          	add    $0x6,%rax
    9dae:	48 89 85 00 fe ff ff 	mov    %rax,-0x200(%rbp)
    9db5:	48 8d 85 d0 ec ff ff 	lea    -0x1330(%rbp),%rax
    9dbc:	48 83 c0 06          	add    $0x6,%rax
    9dc0:	48 89 85 08 fe ff ff 	mov    %rax,-0x1f8(%rbp)
    9dc7:	48 8d 85 10 ea ff ff 	lea    -0x15f0(%rbp),%rax
    9dce:	48 89 85 10 fe ff ff 	mov    %rax,-0x1f0(%rbp)
    9dd5:	48 8d 85 12 ea ff ff 	lea    -0x15ee(%rbp),%rax
    9ddc:	48 89 85 18 fe ff ff 	mov    %rax,-0x1e8(%rbp)
    9de3:	48 8d 85 d0 ec ff ff 	lea    -0x1330(%rbp),%rax
    9dea:	48 83 c0 06          	add    $0x6,%rax
    9dee:	48 89 85 20 fe ff ff 	mov    %rax,-0x1e0(%rbp)
    9df5:	48 8d 85 10 ea ff ff 	lea    -0x15f0(%rbp),%rax
    9dfc:	48 89 85 28 fe ff ff 	mov    %rax,-0x1d8(%rbp)
    9e03:	48 8d 05 e6 06 01 00 	lea    0x106e6(%rip),%rax        # 1a4f0 <g_243>
    9e0a:	48 89 85 30 fe ff ff 	mov    %rax,-0x1d0(%rbp)
    9e11:	48 8d 85 10 ea ff ff 	lea    -0x15f0(%rbp),%rax
    9e18:	48 89 85 38 fe ff ff 	mov    %rax,-0x1c8(%rbp)
    9e1f:	48 8d 85 d0 ec ff ff 	lea    -0x1330(%rbp),%rax
    9e26:	48 83 c0 06          	add    $0x6,%rax
    9e2a:	48 89 85 40 fe ff ff 	mov    %rax,-0x1c0(%rbp)
    9e31:	48 8d 05 c8 13 01 00 	lea    0x113c8(%rip),%rax        # 1b200 <g_948>
    9e38:	48 89 85 48 fe ff ff 	mov    %rax,-0x1b8(%rbp)
    9e3f:	48 8d 05 ea 02 01 00 	lea    0x102ea(%rip),%rax        # 1a130 <g_23+0x10>
    9e46:	48 89 85 50 fe ff ff 	mov    %rax,-0x1b0(%rbp)
    9e4d:	48 8d 85 d0 ec ff ff 	lea    -0x1330(%rbp),%rax
    9e54:	48 83 c0 06          	add    $0x6,%rax
    9e58:	48 89 85 58 fe ff ff 	mov    %rax,-0x1a8(%rbp)
    9e5f:	48 c7 85 60 fe ff ff 	movq   $0x0,-0x1a0(%rbp)
    9e66:	00 00 00 00 
    9e6a:	48 8d 85 d0 ec ff ff 	lea    -0x1330(%rbp),%rax
    9e71:	48 83 c0 06          	add    $0x6,%rax
    9e75:	48 89 85 68 fe ff ff 	mov    %rax,-0x198(%rbp)
    9e7c:	48 8d 05 ad 02 01 00 	lea    0x102ad(%rip),%rax        # 1a130 <g_23+0x10>
    9e83:	48 89 85 70 fe ff ff 	mov    %rax,-0x190(%rbp)
    9e8a:	48 8d 05 9f 02 01 00 	lea    0x1029f(%rip),%rax        # 1a130 <g_23+0x10>
    9e91:	48 89 85 78 fe ff ff 	mov    %rax,-0x188(%rbp)
    9e98:	48 8d 05 37 06 01 00 	lea    0x10637(%rip),%rax        # 1a4d6 <g_214+0x6>
    9e9f:	48 89 85 80 fe ff ff 	mov    %rax,-0x180(%rbp)
    9ea6:	48 8d 05 43 06 01 00 	lea    0x10643(%rip),%rax        # 1a4f0 <g_243>
    9ead:	48 89 85 88 fe ff ff 	mov    %rax,-0x178(%rbp)
    9eb4:	48 c7 85 90 fe ff ff 	movq   $0x0,-0x170(%rbp)
    9ebb:	00 00 00 00 
    9ebf:	48 c7 85 98 fe ff ff 	movq   $0x0,-0x168(%rbp)
    9ec6:	00 00 00 00 
    9eca:	48 8d 05 1f 06 01 00 	lea    0x1061f(%rip),%rax        # 1a4f0 <g_243>
    9ed1:	48 89 85 a0 fe ff ff 	mov    %rax,-0x160(%rbp)
    9ed8:	48 8d 85 10 ea ff ff 	lea    -0x15f0(%rbp),%rax
    9edf:	48 89 85 a8 fe ff ff 	mov    %rax,-0x158(%rbp)
    9ee6:	48 8d 05 13 13 01 00 	lea    0x11313(%rip),%rax        # 1b200 <g_948>
    9eed:	48 89 85 b0 fe ff ff 	mov    %rax,-0x150(%rbp)
    9ef4:	48 8d 05 35 02 01 00 	lea    0x10235(%rip),%rax        # 1a130 <g_23+0x10>
    9efb:	48 89 85 b8 fe ff ff 	mov    %rax,-0x148(%rbp)
    9f02:	48 8d 05 27 02 01 00 	lea    0x10227(%rip),%rax        # 1a130 <g_23+0x10>
    9f09:	48 89 85 c0 fe ff ff 	mov    %rax,-0x140(%rbp)
    9f10:	48 c7 85 c8 fe ff ff 	movq   $0x0,-0x138(%rbp)
    9f17:	00 00 00 00 
    9f1b:	48 8d 05 de 12 01 00 	lea    0x112de(%rip),%rax        # 1b200 <g_948>
    9f22:	48 89 85 d0 fe ff ff 	mov    %rax,-0x130(%rbp)
    9f29:	48 8d 05 c0 08 01 00 	lea    0x108c0(%rip),%rax        # 1a7f0 <g_936>
    9f30:	48 89 85 d8 fe ff ff 	mov    %rax,-0x128(%rbp)
    9f37:	48 8d 05 b2 05 01 00 	lea    0x105b2(%rip),%rax        # 1a4f0 <g_243>
    9f3e:	48 89 85 e0 fe ff ff 	mov    %rax,-0x120(%rbp)
    9f45:	48 c7 85 e8 fe ff ff 	movq   $0x0,-0x118(%rbp)
    9f4c:	00 00 00 00 
    9f50:	48 c7 85 f0 fe ff ff 	movq   $0x0,-0x110(%rbp)
    9f57:	00 00 00 00 
    9f5b:	48 c7 85 f8 fe ff ff 	movq   $0x0,-0x108(%rbp)
    9f62:	00 00 00 00 
    9f66:	48 8d 05 69 05 01 00 	lea    0x10569(%rip),%rax        # 1a4d6 <g_214+0x6>
    9f6d:	48 89 85 00 ff ff ff 	mov    %rax,-0x100(%rbp)
    9f74:	48 8d 05 75 05 01 00 	lea    0x10575(%rip),%rax        # 1a4f0 <g_243>
    9f7b:	48 89 85 08 ff ff ff 	mov    %rax,-0xf8(%rbp)
    9f82:	48 8d 05 a7 01 01 00 	lea    0x101a7(%rip),%rax        # 1a130 <g_23+0x10>
    9f89:	48 89 85 10 ff ff ff 	mov    %rax,-0xf0(%rbp)
    9f90:	48 8d 85 10 ea ff ff 	lea    -0x15f0(%rbp),%rax
    9f97:	48 89 85 18 ff ff ff 	mov    %rax,-0xe8(%rbp)
    9f9e:	48 c7 85 20 ff ff ff 	movq   $0x0,-0xe0(%rbp)
    9fa5:	00 00 00 00 
    9fa9:	48 8d 85 10 ea ff ff 	lea    -0x15f0(%rbp),%rax
    9fb0:	48 89 85 28 ff ff ff 	mov    %rax,-0xd8(%rbp)
    9fb7:	48 8d 05 72 01 01 00 	lea    0x10172(%rip),%rax        # 1a130 <g_23+0x10>
    9fbe:	48 89 85 30 ff ff ff 	mov    %rax,-0xd0(%rbp)
    9fc5:	48 c7 85 38 ff ff ff 	movq   $0x0,-0xc8(%rbp)
    9fcc:	00 00 00 00 
    9fd0:	48 8d 85 d0 ec ff ff 	lea    -0x1330(%rbp),%rax
    9fd7:	48 83 c0 06          	add    $0x6,%rax
    9fdb:	48 89 85 40 ff ff ff 	mov    %rax,-0xc0(%rbp)
    9fe2:	48 8d 85 d0 ec ff ff 	lea    -0x1330(%rbp),%rax
    9fe9:	48 83 c0 06          	add    $0x6,%rax
    9fed:	48 89 85 48 ff ff ff 	mov    %rax,-0xb8(%rbp)
    9ff4:	48 8d 05 f5 04 01 00 	lea    0x104f5(%rip),%rax        # 1a4f0 <g_243>
    9ffb:	48 89 85 50 ff ff ff 	mov    %rax,-0xb0(%rbp)
    a002:	48 8d 05 e7 04 01 00 	lea    0x104e7(%rip),%rax        # 1a4f0 <g_243>
    a009:	48 89 85 58 ff ff ff 	mov    %rax,-0xa8(%rbp)
    a010:	48 8d 85 d0 ec ff ff 	lea    -0x1330(%rbp),%rax
    a017:	48 83 c0 06          	add    $0x6,%rax
    a01b:	48 89 85 60 ff ff ff 	mov    %rax,-0xa0(%rbp)
    a022:	48 c7 85 68 ff ff ff 	movq   $0x0,-0x98(%rbp)
    a029:	00 00 00 00 
    a02d:	48 8d 85 10 ea ff ff 	lea    -0x15f0(%rbp),%rax
    a034:	48 89 85 70 ff ff ff 	mov    %rax,-0x90(%rbp)
    a03b:	48 8d 85 10 ea ff ff 	lea    -0x15f0(%rbp),%rax
    a042:	48 89 85 78 ff ff ff 	mov    %rax,-0x88(%rbp)
    a049:	48 8d 85 d0 ec ff ff 	lea    -0x1330(%rbp),%rax
    a050:	48 83 c0 06          	add    $0x6,%rax
    a054:	48 89 45 80          	mov    %rax,-0x80(%rbp)
    a058:	48 8d 85 12 ea ff ff 	lea    -0x15ee(%rbp),%rax
    a05f:	48 89 45 88          	mov    %rax,-0x78(%rbp)
    a063:	48 8d 85 d0 ec ff ff 	lea    -0x1330(%rbp),%rax
    a06a:	48 83 c0 06          	add    $0x6,%rax
    a06e:	48 89 45 90          	mov    %rax,-0x70(%rbp)
    a072:	48 8d 05 87 11 01 00 	lea    0x11187(%rip),%rax        # 1b200 <g_948>
    a079:	48 89 45 98          	mov    %rax,-0x68(%rbp)
    a07d:	48 8d 85 d0 ec ff ff 	lea    -0x1330(%rbp),%rax
    a084:	48 83 c0 06          	add    $0x6,%rax
    a088:	48 89 45 a0          	mov    %rax,-0x60(%rbp)
    a08c:	48 8d 85 d0 ec ff ff 	lea    -0x1330(%rbp),%rax
    a093:	48 83 c0 06          	add    $0x6,%rax
    a097:	48 89 45 a8          	mov    %rax,-0x58(%rbp)
    a09b:	c7 85 30 ea ff ff fa 	movl   $0xfffffffa,-0x15d0(%rbp)
    a0a2:	ff ff ff 
    a0a5:	48 8d 05 64 40 01 00 	lea    0x14064(%rip),%rax        # 1e110 <g_1263>
    a0ac:	48 89 85 38 eb ff ff 	mov    %rax,-0x14c8(%rbp)
    a0b3:	48 8d 85 30 ea ff ff 	lea    -0x15d0(%rbp),%rax
    a0ba:	48 89 85 40 eb ff ff 	mov    %rax,-0x14c0(%rbp)
    a0c1:	c7 85 60 ea ff ff 00 	movl   $0x0,-0x15a0(%rbp)
    a0c8:	00 00 00 
    a0cb:	eb 1a                	jmp    a0e7 <func_5+0x2026>
    a0cd:	8b 85 60 ea ff ff    	mov    -0x15a0(%rbp),%eax
    a0d3:	48 98                	cltq   
    a0d5:	c7 84 85 cc ec ff ff 	movl   $0x6dae1fd9,-0x1334(%rbp,%rax,4)
    a0dc:	d9 1f ae 6d 
    a0e0:	83 85 60 ea ff ff 01 	addl   $0x1,-0x15a0(%rbp)
    a0e7:	83 bd 60 ea ff ff 00 	cmpl   $0x0,-0x15a0(%rbp)
    a0ee:	7e dd                	jle    a0cd <func_5+0x200c>
    a0f0:	c7 85 60 ea ff ff 00 	movl   $0x0,-0x15a0(%rbp)
    a0f7:	00 00 00 
    a0fa:	eb 50                	jmp    a14c <func_5+0x208b>
    a0fc:	c7 85 64 ea ff ff 00 	movl   $0x0,-0x159c(%rbp)
    a103:	00 00 00 
    a106:	eb 34                	jmp    a13c <func_5+0x207b>
    a108:	8b 85 64 ea ff ff    	mov    -0x159c(%rbp),%eax
    a10e:	48 63 c8             	movslq %eax,%rcx
    a111:	8b 85 60 ea ff ff    	mov    -0x15a0(%rbp),%eax
    a117:	48 63 d0             	movslq %eax,%rdx
    a11a:	48 89 d0             	mov    %rdx,%rax
    a11d:	48 01 c0             	add    %rax,%rax
    a120:	48 01 d0             	add    %rdx,%rax
    a123:	48 01 c8             	add    %rcx,%rax
    a126:	48 8d 15 bb 32 01 00 	lea    0x132bb(%rip),%rdx        # 1d3e8 <g_1300>
    a12d:	48 89 94 c5 20 ed ff 	mov    %rdx,-0x12e0(%rbp,%rax,8)
    a134:	ff 
    a135:	83 85 64 ea ff ff 01 	addl   $0x1,-0x159c(%rbp)
    a13c:	83 bd 64 ea ff ff 02 	cmpl   $0x2,-0x159c(%rbp)
    a143:	7e c3                	jle    a108 <func_5+0x2047>
    a145:	83 85 60 ea ff ff 01 	addl   $0x1,-0x15a0(%rbp)
    a14c:	83 bd 60 ea ff ff 02 	cmpl   $0x2,-0x15a0(%rbp)
    a153:	7e a7                	jle    a0fc <func_5+0x203b>
    a155:	c6 05 15 03 01 00 00 	movb   $0x0,0x10315(%rip)        # 1a471 <g_89+0x11>
    a15c:	e9 83 01 00 00       	jmpq   a2e4 <func_5+0x2223>
    a161:	48 8d 05 88 32 01 00 	lea    0x13288(%rip),%rax        # 1d3f0 <g_1377>
    a168:	48 89 85 e8 ea ff ff 	mov    %rax,-0x1518(%rbp)
    a16f:	48 8d 85 e8 ea ff ff 	lea    -0x1518(%rbp),%rax
    a176:	48 89 85 68 eb ff ff 	mov    %rax,-0x1498(%rbp)
    a17d:	48 c7 85 f0 ea ff ff 	movq   $0x0,-0x1510(%rbp)
    a184:	00 00 00 00 
    a188:	48 8d 85 f0 ea ff ff 	lea    -0x1510(%rbp),%rax
    a18f:	48 89 85 f8 ea ff ff 	mov    %rax,-0x1508(%rbp)
    a196:	48 8d 85 f8 ea ff ff 	lea    -0x1508(%rbp),%rax
    a19d:	48 89 85 70 eb ff ff 	mov    %rax,-0x1490(%rbp)
    a1a4:	c6 85 0c ea ff ff 01 	movb   $0x1,-0x15f4(%rbp)
    a1ab:	c7 85 90 ea ff ff 92 	movl   $0xb3037392,-0x1570(%rbp)
    a1b2:	73 03 b3 
    a1b5:	c7 85 94 ea ff ff 28 	movl   $0x521d0628,-0x156c(%rbp)
    a1bc:	06 1d 52 
    a1bf:	48 8d 85 30 f4 ff ff 	lea    -0xbd0(%rbp),%rax
    a1c6:	48 8d 15 13 c3 00 00 	lea    0xc313(%rip),%rdx        # 164e0 <g_1416+0x3d8>
    a1cd:	b9 6c 00 00 00       	mov    $0x6c,%ecx
    a1d2:	48 89 c7             	mov    %rax,%rdi
    a1d5:	48 89 d6             	mov    %rdx,%rsi
    a1d8:	f3 48 a5             	rep movsq %ds:(%rsi),%es:(%rdi)
    a1db:	66 c7 85 16 ea ff ff 	movw   $0xfffa,-0x15ea(%rbp)
    a1e2:	fa ff 
    a1e4:	c7 85 68 ea ff ff 00 	movl   $0x0,-0x1598(%rbp)
    a1eb:	00 00 00 
    a1ee:	eb 14                	jmp    a204 <func_5+0x2143>
    a1f0:	8b 85 68 ea ff ff    	mov    -0x1598(%rbp),%eax
    a1f6:	48 98                	cltq   
    a1f8:	c6 44 05 bf 02       	movb   $0x2,-0x41(%rbp,%rax,1)
    a1fd:	83 85 68 ea ff ff 01 	addl   $0x1,-0x1598(%rbp)
    a204:	83 bd 68 ea ff ff 08 	cmpl   $0x8,-0x1598(%rbp)
    a20b:	7e e3                	jle    a1f0 <func_5+0x212f>
    a20d:	c7 85 68 ea ff ff 00 	movl   $0x0,-0x1598(%rbp)
    a214:	00 00 00 
    a217:	eb 19                	jmp    a232 <func_5+0x2171>
    a219:	8b 85 68 ea ff ff    	mov    -0x1598(%rbp),%eax
    a21f:	48 98                	cltq   
    a221:	66 c7 84 45 70 ed ff 	movw   $0x7,-0x1290(%rbp,%rax,2)
    a228:	ff 07 00 
    a22b:	83 85 68 ea ff ff 01 	addl   $0x1,-0x1598(%rbp)
    a232:	83 bd 68 ea ff ff 03 	cmpl   $0x3,-0x1598(%rbp)
    a239:	7e de                	jle    a219 <func_5+0x2158>
    a23b:	66 c7 05 bc 0f 01 00 	movw   $0x4,0x10fbc(%rip)        # 1b200 <g_948>
    a242:	04 00 
    a244:	eb 1e                	jmp    a264 <func_5+0x21a3>
    a246:	48 8b 85 f8 e9 ff ff 	mov    -0x1608(%rbp),%rax
    a24d:	8b 00                	mov    (%rax),%eax
    a24f:	85 c0                	test   %eax,%eax
    a251:	75 20                	jne    a273 <func_5+0x21b2>
    a253:	0f b7 05 a6 0f 01 00 	movzwl 0x10fa6(%rip),%eax        # 1b200 <g_948>
    a25a:	83 c0 01             	add    $0x1,%eax
    a25d:	66 89 05 9c 0f 01 00 	mov    %ax,0x10f9c(%rip)        # 1b200 <g_948>
    a264:	0f b7 05 95 0f 01 00 	movzwl 0x10f95(%rip),%eax        # 1b200 <g_948>
    a26b:	66 83 f8 33          	cmp    $0x33,%ax
    a26f:	77 d5                	ja     a246 <func_5+0x2185>
    a271:	eb 01                	jmp    a274 <func_5+0x21b3>
    a273:	90                   	nop
    a274:	c7 05 26 02 01 00 00 	movl   $0x0,0x10226(%rip)        # 1a4a4 <g_141+0x4>
    a27b:	00 00 00 
    a27e:	eb 3d                	jmp    a2bd <func_5+0x21fc>
    a280:	48 8d 85 10 f1 ff ff 	lea    -0xef0(%rbp),%rax
    a287:	48 05 20 01 00 00    	add    $0x120,%rax
    a28d:	48 89 85 78 eb ff ff 	mov    %rax,-0x1488(%rbp)
    a294:	48 8b 95 28 f4 ff ff 	mov    -0xbd8(%rbp),%rdx
    a29b:	48 8b 85 78 eb ff ff 	mov    -0x1488(%rbp),%rax
    a2a2:	48 89 10             	mov    %rdx,(%rax)
    a2a5:	8b 05 f9 01 01 00    	mov    0x101f9(%rip),%eax        # 1a4a4 <g_141+0x4>
    a2ab:	be 06 00 00 00       	mov    $0x6,%esi
    a2b0:	89 c7                	mov    %eax,%edi
    a2b2:	e8 01 cc ff ff       	callq  6eb8 <safe_add_func_uint32_t_u_u>
    a2b7:	89 05 e7 01 01 00    	mov    %eax,0x101e7(%rip)        # 1a4a4 <g_141+0x4>
    a2bd:	8b 05 e1 01 01 00    	mov    0x101e1(%rip),%eax        # 1a4a4 <g_141+0x4>
    a2c3:	83 f8 2a             	cmp    $0x2a,%eax
    a2c6:	77 b8                	ja     a280 <func_5+0x21bf>
    a2c8:	0f b6 05 a2 01 01 00 	movzbl 0x101a2(%rip),%eax        # 1a471 <g_89+0x11>
    a2cf:	0f be c0             	movsbl %al,%eax
    a2d2:	be 01 00 00 00       	mov    $0x1,%esi
    a2d7:	89 c7                	mov    %eax,%edi
    a2d9:	e8 d5 c0 ff ff       	callq  63b3 <safe_add_func_int16_t_s_s>
    a2de:	88 05 8d 01 01 00    	mov    %al,0x1018d(%rip)        # 1a471 <g_89+0x11>
    a2e4:	0f b6 05 86 01 01 00 	movzbl 0x10186(%rip),%eax        # 1a471 <g_89+0x11>
    a2eb:	3c 13                	cmp    $0x13,%al
    a2ed:	0f 8e 6e fe ff ff    	jle    a161 <func_5+0x20a0>
    a2f3:	c7 05 ef 02 01 00 00 	movl   $0x0,0x102ef(%rip)        # 1a5ec <g_688+0xc>
    a2fa:	00 00 00 
    a2fd:	e9 12 07 00 00       	jmpq   aa14 <func_5+0x2953>
    a302:	66 c7 85 f8 ea ff ff 	movw   $0xfffe,-0x1508(%rbp)
    a309:	fe ff 
    a30b:	c7 85 84 ea ff ff b5 	movl   $0x385d83b5,-0x157c(%rbp)
    a312:	83 5d 38 
    a315:	48 c7 85 48 eb ff ff 	movq   $0x0,-0x14b8(%rbp)
    a31c:	00 00 00 00 
    a320:	c7 85 88 ea ff ff 00 	movl   $0x0,-0x1578(%rbp)
    a327:	00 00 00 
    a32a:	c7 85 70 ed ff ff 96 	movl   $0x76cf2f96,-0x1290(%rbp)
    a331:	2f cf 76 
    a334:	c7 85 74 ed ff ff 96 	movl   $0x76cf2f96,-0x128c(%rbp)
    a33b:	2f cf 76 
    a33e:	c7 85 78 ed ff ff 96 	movl   $0x76cf2f96,-0x1288(%rbp)
    a345:	2f cf 76 
    a348:	c7 85 7c ed ff ff 98 	movl   $0x68f00f98,-0x1284(%rbp)
    a34f:	0f f0 68 
    a352:	c7 85 80 ed ff ff 98 	movl   $0x68f00f98,-0x1280(%rbp)
    a359:	0f f0 68 
    a35c:	c7 85 84 ed ff ff 98 	movl   $0x68f00f98,-0x127c(%rbp)
    a363:	0f f0 68 
    a366:	c7 85 88 ed ff ff 96 	movl   $0x76cf2f96,-0x1278(%rbp)
    a36d:	2f cf 76 
    a370:	c7 85 8c ed ff ff 96 	movl   $0x76cf2f96,-0x1274(%rbp)
    a377:	2f cf 76 
    a37a:	c7 85 90 ed ff ff 96 	movl   $0x76cf2f96,-0x1270(%rbp)
    a381:	2f cf 76 
    a384:	c7 85 94 ed ff ff 98 	movl   $0x68f00f98,-0x126c(%rbp)
    a38b:	0f f0 68 
    a38e:	c7 85 98 ed ff ff 98 	movl   $0x68f00f98,-0x1268(%rbp)
    a395:	0f f0 68 
    a398:	c7 85 9c ed ff ff 98 	movl   $0x68f00f98,-0x1264(%rbp)
    a39f:	0f f0 68 
    a3a2:	c7 85 a0 ed ff ff 96 	movl   $0x76cf2f96,-0x1260(%rbp)
    a3a9:	2f cf 76 
    a3ac:	c7 85 a4 ed ff ff 96 	movl   $0x76cf2f96,-0x125c(%rbp)
    a3b3:	2f cf 76 
    a3b6:	c7 85 a8 ed ff ff 96 	movl   $0x76cf2f96,-0x1258(%rbp)
    a3bd:	2f cf 76 
    a3c0:	c7 85 ac ed ff ff 98 	movl   $0x68f00f98,-0x1254(%rbp)
    a3c7:	0f f0 68 
    a3ca:	c7 85 b0 ed ff ff 98 	movl   $0x68f00f98,-0x1250(%rbp)
    a3d1:	0f f0 68 
    a3d4:	c7 85 b4 ed ff ff 98 	movl   $0x68f00f98,-0x124c(%rbp)
    a3db:	0f f0 68 
    a3de:	c7 85 b8 ed ff ff 96 	movl   $0x76cf2f96,-0x1248(%rbp)
    a3e5:	2f cf 76 
    a3e8:	c7 85 bc ed ff ff 96 	movl   $0x76cf2f96,-0x1244(%rbp)
    a3ef:	2f cf 76 
    a3f2:	c7 85 c0 ed ff ff 96 	movl   $0x76cf2f96,-0x1240(%rbp)
    a3f9:	2f cf 76 
    a3fc:	c7 85 c4 ed ff ff 98 	movl   $0x68f00f98,-0x123c(%rbp)
    a403:	0f f0 68 
    a406:	c7 85 c8 ed ff ff 98 	movl   $0x68f00f98,-0x1238(%rbp)
    a40d:	0f f0 68 
    a410:	c7 85 cc ed ff ff 98 	movl   $0x68f00f98,-0x1234(%rbp)
    a417:	0f f0 68 
    a41a:	c7 85 d0 ed ff ff 96 	movl   $0x76cf2f96,-0x1230(%rbp)
    a421:	2f cf 76 
    a424:	c7 85 d4 ed ff ff 96 	movl   $0x76cf2f96,-0x122c(%rbp)
    a42b:	2f cf 76 
    a42e:	c7 85 d8 ed ff ff 96 	movl   $0x76cf2f96,-0x1228(%rbp)
    a435:	2f cf 76 
    a438:	c7 85 dc ed ff ff 98 	movl   $0x68f00f98,-0x1224(%rbp)
    a43f:	0f f0 68 
    a442:	c7 85 e0 ed ff ff 98 	movl   $0x68f00f98,-0x1220(%rbp)
    a449:	0f f0 68 
    a44c:	c7 85 e4 ed ff ff 98 	movl   $0x68f00f98,-0x121c(%rbp)
    a453:	0f f0 68 
    a456:	c7 85 e8 ed ff ff 96 	movl   $0x76cf2f96,-0x1218(%rbp)
    a45d:	2f cf 76 
    a460:	c7 85 ec ed ff ff 96 	movl   $0x76cf2f96,-0x1214(%rbp)
    a467:	2f cf 76 
    a46a:	c7 85 f0 ed ff ff 96 	movl   $0x76cf2f96,-0x1210(%rbp)
    a471:	2f cf 76 
    a474:	c7 85 f4 ed ff ff 98 	movl   $0x68f00f98,-0x120c(%rbp)
    a47b:	0f f0 68 
    a47e:	c7 85 f8 ed ff ff 98 	movl   $0x68f00f98,-0x1208(%rbp)
    a485:	0f f0 68 
    a488:	c7 85 fc ed ff ff 98 	movl   $0x68f00f98,-0x1204(%rbp)
    a48f:	0f f0 68 
    a492:	66 c7 85 14 ea ff ff 	movw   $0xbb9,-0x15ec(%rbp)
    a499:	b9 0b 
    a49b:	c7 85 8c ea ff ff 71 	movl   $0xdd653771,-0x1574(%rbp)
    a4a2:	37 65 dd 
    a4a5:	48 8b 85 d0 ea ff ff 	mov    -0x1530(%rbp),%rax
    a4ac:	8b 00                	mov    (%rax),%eax
    a4ae:	41 89 c4             	mov    %eax,%r12d
    a4b1:	48 8b 85 00 eb ff ff 	mov    -0x1500(%rbp),%rax
    a4b8:	48 8b 00             	mov    (%rax),%rax
    a4bb:	8b 00                	mov    (%rax),%eax
    a4bd:	0f bf d8             	movswl %ax,%ebx
    a4c0:	48 8b 05 29 2f 01 00 	mov    0x12f29(%rip),%rax        # 1d3f0 <g_1377>
    a4c7:	0f b6 00             	movzbl (%rax),%eax
    a4ca:	0f be d0             	movsbl %al,%edx
    a4cd:	b8 01 00 00 00       	mov    $0x1,%eax
    a4d2:	0f be c0             	movsbl %al,%eax
    a4d5:	89 d6                	mov    %edx,%esi
    a4d7:	89 c7                	mov    %eax,%edi
    a4d9:	e8 34 bd ff ff       	callq  6212 <safe_mul_func_int8_t_s_s>
    a4de:	0f be d0             	movsbl %al,%edx
    a4e1:	0f b7 85 e4 ec ff ff 	movzwl -0x131c(%rbp),%eax
    a4e8:	0f b7 c0             	movzwl %ax,%eax
    a4eb:	39 c2                	cmp    %eax,%edx
    a4ed:	0f 95 c0             	setne  %al
    a4f0:	0f b6 c0             	movzbl %al,%eax
    a4f3:	89 de                	mov    %ebx,%esi
    a4f5:	89 c7                	mov    %eax,%edi
    a4f7:	e8 d7 be ff ff       	callq  63d3 <safe_sub_func_int16_t_s_s>
    a4fc:	48 8b 85 d0 ea ff ff 	mov    -0x1530(%rbp),%rax
    a503:	8b 00                	mov    (%rax),%eax
    a505:	89 c2                	mov    %eax,%edx
    a507:	48 8b 85 18 eb ff ff 	mov    -0x14e8(%rbp),%rax
    a50e:	09 d0                	or     %edx,%eax
    a510:	44 89 e6             	mov    %r12d,%esi
    a513:	89 c7                	mov    %eax,%edi
    a515:	e8 b6 c9 ff ff       	callq  6ed0 <safe_sub_func_uint32_t_u_u>
    a51a:	89 c2                	mov    %eax,%edx
    a51c:	8b 05 8e 00 01 00    	mov    0x1008e(%rip),%eax        # 1a5b0 <g_524>
    a522:	21 d0                	and    %edx,%eax
    a524:	0f b6 d0             	movzbl %al,%edx
    a527:	48 83 bd 20 eb ff ff 	cmpq   $0x0,-0x14e0(%rbp)
    a52e:	00 
    a52f:	0f 94 c0             	sete   %al
    a532:	0f b6 c8             	movzbl %al,%ecx
    a535:	48 8b 85 f8 e9 ff ff 	mov    -0x1608(%rbp),%rax
    a53c:	8b 00                	mov    (%rax),%eax
    a53e:	09 c8                	or     %ecx,%eax
    a540:	83 f8 fd             	cmp    $0xfffffffd,%eax
    a543:	0f 9d c0             	setge  %al
    a546:	0f b6 c0             	movzbl %al,%eax
    a549:	89 d6                	mov    %edx,%esi
    a54b:	89 c7                	mov    %eax,%edi
    a54d:	e8 26 c6 ff ff       	callq  6b78 <safe_sub_func_uint8_t_u_u>
    a552:	0f b6 d0             	movzbl %al,%edx
    a555:	0f b7 85 e4 ec ff ff 	movzwl -0x131c(%rbp),%eax
    a55c:	66 39 c2             	cmp    %ax,%dx
    a55f:	0f 82 bc 01 00 00    	jb     a721 <func_5+0x2660>
    a565:	48 8d 85 e0 ee ff ff 	lea    -0x1120(%rbp),%rax
    a56c:	48 05 08 01 00 00    	add    $0x108,%rax
    a572:	48 89 85 58 eb ff ff 	mov    %rax,-0x14a8(%rbp)
    a579:	48 8d 05 4c 00 01 00 	lea    0x1004c(%rip),%rax        # 1a5cc <g_535>
    a580:	48 89 85 30 f4 ff ff 	mov    %rax,-0xbd0(%rbp)
    a587:	48 c7 85 38 f4 ff ff 	movq   $0x0,-0xbc8(%rbp)
    a58e:	00 00 00 00 
    a592:	48 8d 05 33 00 01 00 	lea    0x10033(%rip),%rax        # 1a5cc <g_535>
    a599:	48 89 85 40 f4 ff ff 	mov    %rax,-0xbc0(%rbp)
    a5a0:	48 8d 85 24 ea ff ff 	lea    -0x15dc(%rbp),%rax
    a5a7:	48 89 85 48 f4 ff ff 	mov    %rax,-0xbb8(%rbp)
    a5ae:	48 8d 05 17 00 01 00 	lea    0x10017(%rip),%rax        # 1a5cc <g_535>
    a5b5:	48 89 85 50 f4 ff ff 	mov    %rax,-0xbb0(%rbp)
    a5bc:	48 8d 85 24 ea ff ff 	lea    -0x15dc(%rbp),%rax
    a5c3:	48 89 85 58 f4 ff ff 	mov    %rax,-0xba8(%rbp)
    a5ca:	48 8d 85 24 ea ff ff 	lea    -0x15dc(%rbp),%rax
    a5d1:	48 89 85 60 f4 ff ff 	mov    %rax,-0xba0(%rbp)
    a5d8:	48 8d 05 ed ff 00 00 	lea    0xffed(%rip),%rax        # 1a5cc <g_535>
    a5df:	48 89 85 68 f4 ff ff 	mov    %rax,-0xb98(%rbp)
    a5e6:	48 8d 85 2c ea ff ff 	lea    -0x15d4(%rbp),%rax
    a5ed:	48 89 85 70 f4 ff ff 	mov    %rax,-0xb90(%rbp)
    a5f4:	48 8d 85 24 ea ff ff 	lea    -0x15dc(%rbp),%rax
    a5fb:	48 89 85 78 f4 ff ff 	mov    %rax,-0xb88(%rbp)
    a602:	48 8d 85 28 ea ff ff 	lea    -0x15d8(%rbp),%rax
    a609:	48 89 85 80 f4 ff ff 	mov    %rax,-0xb80(%rbp)
    a610:	48 8d 85 24 ea ff ff 	lea    -0x15dc(%rbp),%rax
    a617:	48 89 85 88 f4 ff ff 	mov    %rax,-0xb78(%rbp)
    a61e:	48 8d 85 24 ea ff ff 	lea    -0x15dc(%rbp),%rax
    a625:	48 89 85 90 f4 ff ff 	mov    %rax,-0xb70(%rbp)
    a62c:	48 c7 85 98 f4 ff ff 	movq   $0x0,-0xb68(%rbp)
    a633:	00 00 00 00 
    a637:	48 8d 85 28 ea ff ff 	lea    -0x15d8(%rbp),%rax
    a63e:	48 89 85 a0 f4 ff ff 	mov    %rax,-0xb60(%rbp)
    a645:	48 8d 85 28 ea ff ff 	lea    -0x15d8(%rbp),%rax
    a64c:	48 89 85 a8 f4 ff ff 	mov    %rax,-0xb58(%rbp)
    a653:	48 8d 85 2c ea ff ff 	lea    -0x15d4(%rbp),%rax
    a65a:	48 89 85 b0 f4 ff ff 	mov    %rax,-0xb50(%rbp)
    a661:	48 8d 85 2c ea ff ff 	lea    -0x15d4(%rbp),%rax
    a668:	48 89 85 b8 f4 ff ff 	mov    %rax,-0xb48(%rbp)
    a66f:	48 8d 85 24 ea ff ff 	lea    -0x15dc(%rbp),%rax
    a676:	48 89 85 c0 f4 ff ff 	mov    %rax,-0xb40(%rbp)
    a67d:	48 8d 85 28 ea ff ff 	lea    -0x15d8(%rbp),%rax
    a684:	48 89 85 c8 f4 ff ff 	mov    %rax,-0xb38(%rbp)
    a68b:	48 8d 05 3a ff 00 00 	lea    0xff3a(%rip),%rax        # 1a5cc <g_535>
    a692:	48 89 85 d0 f4 ff ff 	mov    %rax,-0xb30(%rbp)
    a699:	48 c7 85 d8 f4 ff ff 	movq   $0x0,-0xb28(%rbp)
    a6a0:	00 00 00 00 
    a6a4:	48 8d 05 21 ff 00 00 	lea    0xff21(%rip),%rax        # 1a5cc <g_535>
    a6ab:	48 89 85 e0 f4 ff ff 	mov    %rax,-0xb20(%rbp)
    a6b2:	48 8d 85 24 ea ff ff 	lea    -0x15dc(%rbp),%rax
    a6b9:	48 89 85 e8 f4 ff ff 	mov    %rax,-0xb18(%rbp)
    a6c0:	48 8d 05 05 ff 00 00 	lea    0xff05(%rip),%rax        # 1a5cc <g_535>
    a6c7:	48 89 85 f0 f4 ff ff 	mov    %rax,-0xb10(%rbp)
    a6ce:	48 8d 85 24 ea ff ff 	lea    -0x15dc(%rbp),%rax
    a6d5:	48 89 85 f8 f4 ff ff 	mov    %rax,-0xb08(%rbp)
    a6dc:	48 8d 85 24 ea ff ff 	lea    -0x15dc(%rbp),%rax
    a6e3:	48 89 85 00 f5 ff ff 	mov    %rax,-0xb00(%rbp)
    a6ea:	48 8d 05 db fe 00 00 	lea    0xfedb(%rip),%rax        # 1a5cc <g_535>
    a6f1:	48 89 85 08 f5 ff ff 	mov    %rax,-0xaf8(%rbp)
    a6f8:	48 c7 85 60 eb ff ff 	movq   $0xfffffffffffffff6,-0x14a0(%rbp)
    a6ff:	f6 ff ff ff 
    a703:	48 8b 85 f8 e9 ff ff 	mov    -0x1608(%rbp),%rax
    a70a:	8b 00                	mov    (%rax),%eax
    a70c:	85 c0                	test   %eax,%eax
    a70e:	0f 85 0f 03 00 00    	jne    aa23 <func_5+0x2962>
    a714:	48 83 85 60 eb ff ff 	addq   $0x1,-0x14a0(%rbp)
    a71b:	01 
    a71c:	e9 e4 02 00 00       	jmpq   aa05 <func_5+0x2944>
    a721:	48 8d 85 20 ea ff ff 	lea    -0x15e0(%rbp),%rax
    a728:	48 89 85 30 f4 ff ff 	mov    %rax,-0xbd0(%rbp)
    a72f:	48 8d 85 00 ed ff ff 	lea    -0x1300(%rbp),%rax
    a736:	48 83 c0 18          	add    $0x18,%rax
    a73a:	48 89 85 38 f4 ff ff 	mov    %rax,-0xbc8(%rbp)
    a741:	48 8d 85 20 ea ff ff 	lea    -0x15e0(%rbp),%rax
    a748:	48 89 85 40 f4 ff ff 	mov    %rax,-0xbc0(%rbp)
    a74f:	48 8d 05 c2 fb 00 00 	lea    0xfbc2(%rip),%rax        # 1a318 <g_45>
    a756:	48 89 85 48 f4 ff ff 	mov    %rax,-0xbb8(%rbp)
    a75d:	48 8d 85 20 ea ff ff 	lea    -0x15e0(%rbp),%rax
    a764:	48 89 85 50 f4 ff ff 	mov    %rax,-0xbb0(%rbp)
    a76b:	48 8d 05 a6 fb 00 00 	lea    0xfba6(%rip),%rax        # 1a318 <g_45>
    a772:	48 89 85 58 f4 ff ff 	mov    %rax,-0xba8(%rbp)
    a779:	48 8d 05 98 fb 00 00 	lea    0xfb98(%rip),%rax        # 1a318 <g_45>
    a780:	48 89 85 60 f4 ff ff 	mov    %rax,-0xba0(%rbp)
    a787:	c6 85 0b ea ff ff 01 	movb   $0x1,-0x15f5(%rbp)
    a78e:	48 8d 05 1c 0b 01 00 	lea    0x10b1c(%rip),%rax        # 1b2b1 <g_1027+0x11>
    a795:	48 89 85 50 eb ff ff 	mov    %rax,-0x14b0(%rbp)
    a79c:	0f b6 85 0b ea ff ff 	movzbl -0x15f5(%rbp),%eax
    a7a3:	83 e8 01             	sub    $0x1,%eax
    a7a6:	88 85 0b ea ff ff    	mov    %al,-0x15f5(%rbp)
    a7ac:	48 8b 05 2d 2a 01 00 	mov    0x12a2d(%rip),%rax        # 1d1e0 <g_371>
    a7b3:	48 8b 00             	mov    (%rax),%rax
    a7b6:	48 89 85 f0 e9 ff ff 	mov    %rax,-0x1610(%rbp)
    a7bd:	8b 85 00 ed ff ff    	mov    -0x1300(%rbp),%eax
    a7c3:	44 0f bf e8          	movswl %ax,%r13d
    a7c7:	48 8b 85 d0 ea ff ff 	mov    -0x1530(%rbp),%rax
    a7ce:	8b 00                	mov    (%rax),%eax
    a7d0:	44 0f b7 e0          	movzwl %ax,%r12d
    a7d4:	48 8b 85 f8 e9 ff ff 	mov    -0x1608(%rbp),%rax
    a7db:	8b 18                	mov    (%rax),%ebx
    a7dd:	48 8b 05 04 2c 01 00 	mov    0x12c04(%rip),%rax        # 1d3e8 <g_1300>
    a7e4:	0f b7 00             	movzwl (%rax),%eax
    a7e7:	0f bf d0             	movswl %ax,%edx
    a7ea:	8b 85 c8 ed ff ff    	mov    -0x1238(%rbp),%eax
    a7f0:	98                   	cwtl   
    a7f1:	89 d6                	mov    %edx,%esi
    a7f3:	89 c7                	mov    %eax,%edi
    a7f5:	e8 30 bd ff ff       	callq  652a <safe_rshift_func_int16_t_s_s>
    a7fa:	98                   	cwtl   
    a7fb:	89 85 ec e9 ff ff    	mov    %eax,-0x1614(%rbp)
    a801:	48 8b 85 00 eb ff ff 	mov    -0x1500(%rbp),%rax
    a808:	48 8b 00             	mov    (%rax),%rax
    a80b:	44 8b 30             	mov    (%rax),%r14d
    a80e:	48 8b 85 48 eb ff ff 	mov    -0x14b8(%rbp),%rax
    a815:	44 0f b7 f8          	movzwl %ax,%r15d
    a819:	0f b7 85 f8 ea ff ff 	movzwl -0x1508(%rbp),%eax
    a820:	66 85 c0             	test   %ax,%ax
    a823:	0f 85 0b 01 00 00    	jne    a934 <func_5+0x2873>
    a829:	8b 85 c8 ed ff ff    	mov    -0x1238(%rbp),%eax
    a82f:	98                   	cwtl   
    a830:	89 85 e8 e9 ff ff    	mov    %eax,-0x1618(%rbp)
    a836:	48 8b 85 d0 ea ff ff 	mov    -0x1530(%rbp),%rax
    a83d:	8b 00                	mov    (%rax),%eax
    a83f:	85 c0                	test   %eax,%eax
    a841:	0f 95 c0             	setne  %al
    a844:	0f b6 c0             	movzbl %al,%eax
    a847:	89 85 2c ea ff ff    	mov    %eax,-0x15d4(%rbp)
    a84d:	8b 85 2c ea ff ff    	mov    -0x15d4(%rbp),%eax
    a853:	48 98                	cltq   
    a855:	48 39 85 18 eb ff ff 	cmp    %rax,-0x14e8(%rbp)
    a85c:	48 8b 05 95 2b 01 00 	mov    0x12b95(%rip),%rax        # 1d3f8 <g_1376>
    a863:	48 8b 00             	mov    (%rax),%rax
    a866:	0f b6 00             	movzbl (%rax),%eax
    a869:	0f b6 d0             	movzbl %al,%edx
    a86c:	48 8b 85 00 eb ff ff 	mov    -0x1500(%rbp),%rax
    a873:	48 8b 00             	mov    (%rax),%rax
    a876:	8b 00                	mov    (%rax),%eax
    a878:	39 c2                	cmp    %eax,%edx
    a87a:	0f 9e c0             	setle  %al
    a87d:	0f b6 d0             	movzbl %al,%edx
    a880:	0f b6 05 2a fc 00 00 	movzbl 0xfc2a(%rip),%eax        # 1a4b1 <g_141+0x11>
    a887:	0f be c0             	movsbl %al,%eax
    a88a:	89 85 84 ea ff ff    	mov    %eax,-0x157c(%rbp)
    a890:	8b 85 84 ea ff ff    	mov    -0x157c(%rbp),%eax
    a896:	0f be c0             	movsbl %al,%eax
    a899:	89 d6                	mov    %edx,%esi
    a89b:	89 c7                	mov    %eax,%edi
    a89d:	e8 70 b9 ff ff       	callq  6212 <safe_mul_func_int8_t_s_s>
    a8a2:	0f be d0             	movsbl %al,%edx
    a8a5:	48 8b 85 00 eb ff ff 	mov    -0x1500(%rbp),%rax
    a8ac:	48 8b 00             	mov    (%rax),%rax
    a8af:	8b 00                	mov    (%rax),%eax
    a8b1:	39 c2                	cmp    %eax,%edx
    a8b3:	0f 9e c0             	setle  %al
    a8b6:	0f b6 c0             	movzbl %al,%eax
    a8b9:	66 89 05 48 0b 01 00 	mov    %ax,0x10b48(%rip)        # 1b408 <g_1132>
    a8c0:	0f b7 05 41 0b 01 00 	movzwl 0x10b41(%rip),%eax        # 1b408 <g_1132>
    a8c7:	98                   	cwtl   
    a8c8:	be 0c 00 00 00       	mov    $0xc,%esi
    a8cd:	89 c7                	mov    %eax,%edi
    a8cf:	e8 56 bc ff ff       	callq  652a <safe_rshift_func_int16_t_s_s>
    a8d4:	89 c2                	mov    %eax,%edx
    a8d6:	48 8b 85 50 eb ff ff 	mov    -0x14b0(%rbp),%rax
    a8dd:	88 10                	mov    %dl,(%rax)
    a8df:	48 8b 85 50 eb ff ff 	mov    -0x14b0(%rbp),%rax
    a8e6:	0f b6 00             	movzbl (%rax),%eax
    a8e9:	66 98                	cbtw   
    a8eb:	66 39 85 14 ea ff ff 	cmp    %ax,-0x15ec(%rbp)
    a8f2:	0f 95 c0             	setne  %al
    a8f5:	0f b6 c0             	movzbl %al,%eax
    a8f8:	8b 95 24 ea ff ff    	mov    -0x15dc(%rbp),%edx
    a8fe:	09 d0                	or     %edx,%eax
    a900:	98                   	cwtl   
    a901:	8b b5 e8 e9 ff ff    	mov    -0x1618(%rbp),%esi
    a907:	89 c7                	mov    %eax,%edi
    a909:	e8 e7 ba ff ff       	callq  63f5 <safe_mul_func_int16_t_s_s>
    a90e:	66 3d d2 00          	cmp    $0xd2,%ax
    a912:	0f 9e c0             	setle  %al
    a915:	0f b6 d0             	movzbl %al,%edx
    a918:	8b 85 30 ea ff ff    	mov    -0x15d0(%rbp),%eax
    a91e:	39 c2                	cmp    %eax,%edx
    a920:	0f 9c c0             	setl   %al
    a923:	0f b6 c0             	movzbl %al,%eax
    a926:	be e8 f4 2e 52       	mov    $0x522ef4e8,%esi
    a92b:	89 c7                	mov    %eax,%edi
    a92d:	e8 9a bd ff ff       	callq  66cc <safe_mod_func_int32_t_s_s>
    a932:	85 c0                	test   %eax,%eax
    a934:	b8 01 00 00 00       	mov    $0x1,%eax
    a939:	31 85 8c ea ff ff    	xor    %eax,-0x1574(%rbp)
    a93f:	8b 85 8c ea ff ff    	mov    -0x1574(%rbp),%eax
    a945:	0f b7 c0             	movzwl %ax,%eax
    a948:	be 08 00 00 00       	mov    $0x8,%esi
    a94d:	89 c7                	mov    %eax,%edi
    a94f:	e8 ab c3 ff ff       	callq  6cff <safe_add_func_uint16_t_u_u>
    a954:	0f b7 d0             	movzwl %ax,%edx
    a957:	48 8b 05 62 28 01 00 	mov    0x12862(%rip),%rax        # 1d1c0 <g_271>
    a95e:	8b 00                	mov    (%rax),%eax
    a960:	39 c2                	cmp    %eax,%edx
    a962:	0f 9e c0             	setle  %al
    a965:	0f b6 c0             	movzbl %al,%eax
    a968:	44 89 fe             	mov    %r15d,%esi
    a96b:	89 c7                	mov    %eax,%edi
    a96d:	e8 cb c3 ff ff       	callq  6d3d <safe_mul_func_uint16_t_u_u>
    a972:	89 c2                	mov    %eax,%edx
    a974:	48 8b 85 48 eb ff ff 	mov    -0x14b8(%rbp),%rax
    a97b:	31 d0                	xor    %edx,%eax
    a97d:	98                   	cwtl   
    a97e:	be 09 00 00 00       	mov    $0x9,%esi
    a983:	89 c7                	mov    %eax,%edi
    a985:	e8 57 bb ff ff       	callq  64e1 <safe_lshift_func_int16_t_s_u>
    a98a:	8b 05 14 fb 00 00    	mov    0xfb14(%rip),%eax        # 1a4a4 <g_141+0x4>
    a990:	0f b7 d0             	movzwl %ax,%edx
    a993:	8b 85 c8 ed ff ff    	mov    -0x1238(%rbp),%eax
    a999:	39 85 88 ea ff ff    	cmp    %eax,-0x1578(%rbp)
    a99f:	0f 94 c0             	sete   %al
    a9a2:	0f b6 c0             	movzbl %al,%eax
    a9a5:	89 d6                	mov    %edx,%esi
    a9a7:	89 c7                	mov    %eax,%edi
    a9a9:	e8 e0 c3 ff ff       	callq  6d8e <safe_div_func_uint16_t_u_u>
    a9ae:	0f b7 c0             	movzwl %ax,%eax
    a9b1:	44 89 f6             	mov    %r14d,%esi
    a9b4:	89 c7                	mov    %eax,%edi
    a9b6:	e8 4a bc ff ff       	callq  6605 <safe_sub_func_int32_t_s_s>
    a9bb:	8b 15 eb 08 01 00    	mov    0x108eb(%rip),%edx        # 1b2ac <g_1027+0xc>
    a9c1:	39 d0                	cmp    %edx,%eax
    a9c3:	0f 9f c0             	setg   %al
    a9c6:	0f b6 c0             	movzbl %al,%eax
    a9c9:	39 85 ec e9 ff ff    	cmp    %eax,-0x1614(%rbp)
    a9cf:	0f 94 c0             	sete   %al
    a9d2:	0f b6 d0             	movzbl %al,%edx
    a9d5:	48 8b 05 0c 2a 01 00 	mov    0x12a0c(%rip),%rax        # 1d3e8 <g_1300>
    a9dc:	0f b7 00             	movzwl (%rax),%eax
    a9df:	98                   	cwtl   
    a9e0:	21 d0                	and    %edx,%eax
    a9e2:	48 98                	cltq   
    a9e4:	4c 8b 35 f5 27 01 00 	mov    0x127f5(%rip),%r14        # 1d1e0 <g_371>
    a9eb:	4c 8b 85 f0 e9 ff ff 	mov    -0x1610(%rbp),%r8
    a9f2:	44 89 e9             	mov    %r13d,%ecx
    a9f5:	44 89 e2             	mov    %r12d,%edx
    a9f8:	89 de                	mov    %ebx,%esi
    a9fa:	48 89 c7             	mov    %rax,%rdi
    a9fd:	e8 eb 67 00 00       	callq  111ed <func_73>
    aa02:	49 89 06             	mov    %rax,(%r14)
    aa05:	8b 05 e1 fb 00 00    	mov    0xfbe1(%rip),%eax        # 1a5ec <g_688+0xc>
    aa0b:	83 c0 01             	add    $0x1,%eax
    aa0e:	89 05 d8 fb 00 00    	mov    %eax,0xfbd8(%rip)        # 1a5ec <g_688+0xc>
    aa14:	8b 05 d2 fb 00 00    	mov    0xfbd2(%rip),%eax        # 1a5ec <g_688+0xc>
    aa1a:	83 f8 01             	cmp    $0x1,%eax
    aa1d:	0f 84 df f8 ff ff    	je     a302 <func_5+0x2241>
    aa23:	8b 85 0c ed ff ff    	mov    -0x12f4(%rbp),%eax
    aa29:	0f be d8             	movsbl %al,%ebx
    aa2c:	8b 85 78 ea ff ff    	mov    -0x1588(%rbp),%eax
    aa32:	4c 63 e0             	movslq %eax,%r12
    aa35:	48 8b 85 d0 ea ff ff 	mov    -0x1530(%rbp),%rax
    aa3c:	8b 00                	mov    (%rax),%eax
    aa3e:	89 c1                	mov    %eax,%ecx
    aa40:	48 8b 05 e1 36 01 00 	mov    0x136e1(%rip),%rax        # 1e128 <g_1738>
    aa47:	48 8d 95 10 f1 ff ff 	lea    -0xef0(%rbp),%rdx
    aa4e:	48 81 c2 18 03 00 00 	add    $0x318,%rdx
    aa55:	48 39 d0             	cmp    %rdx,%rax
    aa58:	0f 95 c0             	setne  %al
    aa5b:	0f b6 c0             	movzbl %al,%eax
    aa5e:	89 ce                	mov    %ecx,%esi
    aa60:	89 c7                	mov    %eax,%edi
    aa62:	e8 fc ba ff ff       	callq  6563 <safe_rshift_func_int16_t_s_u>
    aa67:	48 8b 85 d0 ea ff ff 	mov    -0x1530(%rbp),%rax
    aa6e:	8b 00                	mov    (%rax),%eax
    aa70:	83 f8 01             	cmp    $0x1,%eax
    aa73:	0f 94 c0             	sete   %al
    aa76:	0f b6 c0             	movzbl %al,%eax
    aa79:	be 70 1f 00 00       	mov    $0x1f70,%esi
    aa7e:	89 c7                	mov    %eax,%edi
    aa80:	e8 4e b9 ff ff       	callq  63d3 <safe_sub_func_int16_t_s_s>
    aa85:	48 0f bf c0          	movswq %ax,%rax
    aa89:	4c 89 e6             	mov    %r12,%rsi
    aa8c:	48 89 c7             	mov    %rax,%rdi
    aa8f:	e8 20 bf ff ff       	callq  69b4 <safe_mod_func_int64_t_s_s>
    aa94:	48 89 c2             	mov    %rax,%rdx
    aa97:	48 8b 85 38 eb ff ff 	mov    -0x14c8(%rbp),%rax
    aa9e:	0f b6 00             	movzbl (%rax),%eax
    aaa1:	09 c2                	or     %eax,%edx
    aaa3:	48 8b 85 38 eb ff ff 	mov    -0x14c8(%rbp),%rax
    aaaa:	88 10                	mov    %dl,(%rax)
    aaac:	48 8b 85 38 eb ff ff 	mov    -0x14c8(%rbp),%rax
    aab3:	0f b6 00             	movzbl (%rax),%eax
    aab6:	0f be c0             	movsbl %al,%eax
    aab9:	89 de                	mov    %ebx,%esi
    aabb:	89 c7                	mov    %eax,%edi
    aabd:	e8 30 b7 ff ff       	callq  61f2 <safe_sub_func_int8_t_s_s>
    aac2:	84 c0                	test   %al,%al
    aac4:	74 08                	je     aace <func_5+0x2a0d>
    aac6:	8b 85 28 ea ff ff    	mov    -0x15d8(%rbp),%eax
    aacc:	85 c0                	test   %eax,%eax
    aace:	8b 85 2c ea ff ff    	mov    -0x15d4(%rbp),%eax
    aad4:	0f be d8             	movsbl %al,%ebx
    aad7:	48 8b 05 ea 28 01 00 	mov    0x128ea(%rip),%rax        # 1d3c8 <g_811>
    aade:	48 8b 00             	mov    (%rax),%rax
    aae1:	48 8b 00             	mov    (%rax),%rax
    aae4:	8b 10                	mov    (%rax),%edx
    aae6:	83 ea 01             	sub    $0x1,%edx
    aae9:	89 10                	mov    %edx,(%rax)
    aaeb:	8b 85 30 ea ff ff    	mov    -0x15d0(%rbp),%eax
    aaf1:	0f b6 c0             	movzbl %al,%eax
    aaf4:	be 01 00 00 00       	mov    $0x1,%esi
    aaf9:	89 c7                	mov    %eax,%edi
    aafb:	e8 93 c0 ff ff       	callq  6b93 <safe_mul_func_uint8_t_u_u>
    ab00:	0f be c0             	movsbl %al,%eax
    ab03:	89 de                	mov    %ebx,%esi
    ab05:	89 c7                	mov    %eax,%edi
    ab07:	e8 06 b7 ff ff       	callq  6212 <safe_mul_func_int8_t_s_s>
    ab0c:	0f be d0             	movsbl %al,%edx
    ab0f:	48 83 bd 28 eb ff ff 	cmpq   $0x0,-0x14d8(%rbp)
    ab16:	00 
    ab17:	0f 94 c0             	sete   %al
    ab1a:	0f b6 c0             	movzbl %al,%eax
    ab1d:	39 c2                	cmp    %eax,%edx
    ab1f:	0f 9e c0             	setle  %al
    ab22:	0f b6 d0             	movzbl %al,%edx
    ab25:	48 8b 05 cc 28 01 00 	mov    0x128cc(%rip),%rax        # 1d3f8 <g_1376>
    ab2c:	48 8b 00             	mov    (%rax),%rax
    ab2f:	0f b6 00             	movzbl (%rax),%eax
    ab32:	0f b6 c0             	movzbl %al,%eax
    ab35:	39 c2                	cmp    %eax,%edx
    ab37:	0f 9f c2             	setg   %dl
    ab3a:	48 8b 85 d0 ea ff ff 	mov    -0x1530(%rbp),%rax
    ab41:	0f b6 d2             	movzbl %dl,%edx
    ab44:	89 10                	mov    %edx,(%rax)
    ab46:	48 8b 95 f8 e9 ff ff 	mov    -0x1608(%rbp),%rdx
    ab4d:	48 8b 85 00 eb ff ff 	mov    -0x1500(%rbp),%rax
    ab54:	48 8b 00             	mov    (%rax),%rax
    ab57:	8b 12                	mov    (%rdx),%edx
    ab59:	89 10                	mov    %edx,(%rax)
    ab5b:	8b 10                	mov    (%rax),%edx
    ab5d:	48 8b 85 40 eb ff ff 	mov    -0x14c0(%rbp),%rax
    ab64:	8b 00                	mov    (%rax),%eax
    ab66:	09 c2                	or     %eax,%edx
    ab68:	48 8b 85 40 eb ff ff 	mov    -0x14c0(%rbp),%rax
    ab6f:	89 10                	mov    %edx,(%rax)
    ab71:	8b 05 35 f9 00 00    	mov    0xf935(%rip),%eax        # 1a4ac <g_141+0xc>
    ab77:	83 e8 01             	sub    $0x1,%eax
    ab7a:	89 05 2c f9 00 00    	mov    %eax,0xf92c(%rip)        # 1a4ac <g_141+0xc>
    ab80:	8b 05 26 f9 00 00    	mov    0xf926(%rip),%eax        # 1a4ac <g_141+0xc>
    ab86:	83 f8 f3             	cmp    $0xfffffff3,%eax
    ab89:	0f 8c d7 ec ff ff    	jl     9866 <func_5+0x17a5>
    ab8f:	eb 04                	jmp    ab95 <func_5+0x2ad4>
    ab91:	90                   	nop
    ab92:	eb 01                	jmp    ab95 <func_5+0x2ad4>
    ab94:	90                   	nop
    ab95:	48 8d 05 c4 1d 01 00 	lea    0x11dc4(%rip),%rax        # 1c960 <g_110>
    ab9c:	48 8b 5d c8          	mov    -0x38(%rbp),%rbx
    aba0:	64 48 33 1c 25 28 00 	xor    %fs:0x28,%rbx
    aba7:	00 00 
    aba9:	74 05                	je     abb0 <func_5+0x2aef>
    abab:	e8 c0 b4 ff ff       	callq  6070 <__stack_chk_fail@plt>
    abb0:	48 81 c4 f8 15 00 00 	add    $0x15f8,%rsp
    abb7:	5b                   	pop    %rbx
    abb8:	41 5c                	pop    %r12
    abba:	41 5d                	pop    %r13
    abbc:	41 5e                	pop    %r14
    abbe:	41 5f                	pop    %r15
    abc0:	5d                   	pop    %rbp
    abc1:	c3                   	retq   

000000000000abc2 <func_13>:
    abc2:	f3 0f 1e fa          	endbr64 
    abc6:	55                   	push   %rbp
    abc7:	48 89 e5             	mov    %rsp,%rbp
    abca:	48 83 ec 60          	sub    $0x60,%rsp
    abce:	48 89 7d b8          	mov    %rdi,-0x48(%rbp)
    abd2:	48 89 75 b0          	mov    %rsi,-0x50(%rbp)
    abd6:	89 d0                	mov    %edx,%eax
    abd8:	66 89 45 ac          	mov    %ax,-0x54(%rbp)
    abdc:	64 48 8b 04 25 28 00 	mov    %fs:0x28,%rax
    abe3:	00 00 
    abe5:	48 89 45 f8          	mov    %rax,-0x8(%rbp)
    abe9:	31 c0                	xor    %eax,%eax
    abeb:	48 c7 45 c8 06 00 00 	movq   $0x6,-0x38(%rbp)
    abf2:	00 
    abf3:	66 c7 05 90 f8 00 00 	movw   $0x0,0xf890(%rip)        # 1a48c <g_134>
    abfa:	00 00 
    abfc:	eb 3d                	jmp    ac3b <func_13+0x79>
    abfe:	48 b8 dc ce 10 3f 95 	movabs $0x959ec2953f10cedc,%rax
    ac05:	c2 9e 95 
    ac08:	48 89 45 d0          	mov    %rax,-0x30(%rbp)
    ac0c:	48 89 45 d8          	mov    %rax,-0x28(%rbp)
    ac10:	48 89 45 e0          	mov    %rax,-0x20(%rbp)
    ac14:	48 89 45 e8          	mov    %rax,-0x18(%rbp)
    ac18:	48 8b 05 a9 25 01 00 	mov    0x125a9(%rip),%rax        # 1d1c8 <g_270>
    ac1f:	48 8b 00             	mov    (%rax),%rax
    ac22:	8b 00                	mov    (%rax),%eax
    ac24:	48 98                	cltq   
    ac26:	48 89 45 d8          	mov    %rax,-0x28(%rbp)
    ac2a:	0f b7 05 5b f8 00 00 	movzwl 0xf85b(%rip),%eax        # 1a48c <g_134>
    ac31:	83 c0 01             	add    $0x1,%eax
    ac34:	66 89 05 51 f8 00 00 	mov    %ax,0xf851(%rip)        # 1a48c <g_134>
    ac3b:	0f b7 05 4a f8 00 00 	movzwl 0xf84a(%rip),%eax        # 1a48c <g_134>
    ac42:	66 83 f8 0d          	cmp    $0xd,%ax
    ac46:	7f b6                	jg     abfe <func_13+0x3c>
    ac48:	48 8b 45 c8          	mov    -0x38(%rbp),%rax
    ac4c:	48 8b 4d f8          	mov    -0x8(%rbp),%rcx
    ac50:	64 48 33 0c 25 28 00 	xor    %fs:0x28,%rcx
    ac57:	00 00 
    ac59:	74 05                	je     ac60 <func_13+0x9e>
    ac5b:	e8 10 b4 ff ff       	callq  6070 <__stack_chk_fail@plt>
    ac60:	c9                   	leaveq 
    ac61:	c3                   	retq   

000000000000ac62 <func_17>:
    ac62:	f3 0f 1e fa          	endbr64 
    ac66:	55                   	push   %rbp
    ac67:	48 89 e5             	mov    %rsp,%rbp
    ac6a:	41 57                	push   %r15
    ac6c:	41 56                	push   %r14
    ac6e:	41 55                	push   %r13
    ac70:	41 54                	push   %r12
    ac72:	53                   	push   %rbx
    ac73:	48 81 ec 00 10 00 00 	sub    $0x1000,%rsp
    ac7a:	48 83 0c 24 00       	orq    $0x0,(%rsp)
    ac7f:	48 81 ec e8 00 00 00 	sub    $0xe8,%rsp
    ac86:	66 89 bd 0e ef ff ff 	mov    %di,-0x10f2(%rbp)
    ac8d:	48 89 b5 00 ef ff ff 	mov    %rsi,-0x1100(%rbp)
    ac94:	48 89 8d f8 ee ff ff 	mov    %rcx,-0x1108(%rbp)
    ac9b:	44 89 c0             	mov    %r8d,%eax
    ac9e:	88 95 0c ef ff ff    	mov    %dl,-0x10f4(%rbp)
    aca4:	66 89 85 08 ef ff ff 	mov    %ax,-0x10f8(%rbp)
    acab:	64 48 8b 04 25 28 00 	mov    %fs:0x28,%rax
    acb2:	00 00 
    acb4:	48 89 45 c8          	mov    %rax,-0x38(%rbp)
    acb8:	31 c0                	xor    %eax,%eax
    acba:	48 8d 05 27 25 01 00 	lea    0x12527(%rip),%rax        # 1d1e8 <g_499>
    acc1:	48 89 85 b8 ef ff ff 	mov    %rax,-0x1048(%rbp)
    acc8:	c7 85 48 ef ff ff 4f 	movl   $0xd2f7bc4f,-0x10b8(%rbp)
    accf:	bc f7 d2 
    acd2:	48 c7 85 c0 ef ff ff 	movq   $0x0,-0x1040(%rbp)
    acd9:	00 00 00 00 
    acdd:	48 8d 05 1c 34 01 00 	lea    0x1341c(%rip),%rax        # 1e100 <g_372>
    ace4:	48 89 85 c8 ef ff ff 	mov    %rax,-0x1038(%rbp)
    aceb:	48 8d 05 d6 fa 00 00 	lea    0xfad6(%rip),%rax        # 1a7c8 <g_823>
    acf2:	48 89 85 d0 ef ff ff 	mov    %rax,-0x1030(%rbp)
    acf9:	48 8d 05 c0 05 01 00 	lea    0x105c0(%rip),%rax        # 1b2c0 <g_1027+0x20>
    ad00:	48 89 85 d8 ef ff ff 	mov    %rax,-0x1028(%rbp)
    ad07:	48 c7 85 e0 ef ff ff 	movq   $0x0,-0x1020(%rbp)
    ad0e:	00 00 00 00 
    ad12:	c7 85 4c ef ff ff 04 	movl   $0x4,-0x10b4(%rbp)
    ad19:	00 00 00 
    ad1c:	c7 85 50 ef ff ff 46 	movl   $0x99203f46,-0x10b0(%rbp)
    ad23:	3f 20 99 
    ad26:	48 8d 85 20 f4 ff ff 	lea    -0xbe0(%rbp),%rax
    ad2d:	48 8d 15 0c bb 00 00 	lea    0xbb0c(%rip),%rdx        # 16840 <g_1416+0x738>
    ad34:	b9 78 00 00 00       	mov    $0x78,%ecx
    ad39:	48 89 c7             	mov    %rax,%rdi
    ad3c:	48 89 d6             	mov    %rdx,%rsi
    ad3f:	f3 48 a5             	rep movsq %ds:(%rsi),%es:(%rdi)
    ad42:	48 c7 85 78 ef ff ff 	movq   $0x0,-0x1088(%rbp)
    ad49:	00 00 00 00 
    ad4d:	48 8d 85 78 ef ff ff 	lea    -0x1088(%rbp),%rax
    ad54:	48 89 85 e8 ef ff ff 	mov    %rax,-0x1018(%rbp)
    ad5b:	48 8d 05 ce f3 00 00 	lea    0xf3ce(%rip),%rax        # 1a130 <g_23+0x10>
    ad62:	48 89 85 80 ef ff ff 	mov    %rax,-0x1080(%rbp)
    ad69:	48 c7 85 f0 ef ff ff 	movq   $0x0,-0x1010(%rbp)
    ad70:	00 00 00 00 
    ad74:	48 8d 05 0f f7 00 00 	lea    0xf70f(%rip),%rax        # 1a48a <g_129>
    ad7b:	48 89 85 40 f2 ff ff 	mov    %rax,-0xdc0(%rbp)
    ad82:	48 8d 05 01 f7 00 00 	lea    0xf701(%rip),%rax        # 1a48a <g_129>
    ad89:	48 89 85 48 f2 ff ff 	mov    %rax,-0xdb8(%rbp)
    ad90:	48 8d 05 f3 f6 00 00 	lea    0xf6f3(%rip),%rax        # 1a48a <g_129>
    ad97:	48 89 85 50 f2 ff ff 	mov    %rax,-0xdb0(%rbp)
    ad9e:	48 8d 05 e5 f6 00 00 	lea    0xf6e5(%rip),%rax        # 1a48a <g_129>
    ada5:	48 89 85 58 f2 ff ff 	mov    %rax,-0xda8(%rbp)
    adac:	48 8d 05 d7 f6 00 00 	lea    0xf6d7(%rip),%rax        # 1a48a <g_129>
    adb3:	48 89 85 60 f2 ff ff 	mov    %rax,-0xda0(%rbp)
    adba:	48 8d 05 c9 f6 00 00 	lea    0xf6c9(%rip),%rax        # 1a48a <g_129>
    adc1:	48 89 85 68 f2 ff ff 	mov    %rax,-0xd98(%rbp)
    adc8:	48 8d 05 bb f6 00 00 	lea    0xf6bb(%rip),%rax        # 1a48a <g_129>
    adcf:	48 89 85 70 f2 ff ff 	mov    %rax,-0xd90(%rbp)
    add6:	48 8d 05 ad f6 00 00 	lea    0xf6ad(%rip),%rax        # 1a48a <g_129>
    addd:	48 89 85 78 f2 ff ff 	mov    %rax,-0xd88(%rbp)
    ade4:	48 8d 05 9f f6 00 00 	lea    0xf69f(%rip),%rax        # 1a48a <g_129>
    adeb:	48 89 85 80 f2 ff ff 	mov    %rax,-0xd80(%rbp)
    adf2:	48 8d 05 91 f6 00 00 	lea    0xf691(%rip),%rax        # 1a48a <g_129>
    adf9:	48 89 85 88 f2 ff ff 	mov    %rax,-0xd78(%rbp)
    ae00:	48 c7 85 f8 ef ff ff 	movq   $0x0,-0x1008(%rbp)
    ae07:	00 00 00 00 
    ae0b:	48 c7 85 00 f0 ff ff 	movq   $0x0,-0x1000(%rbp)
    ae12:	00 00 00 00 
    ae16:	48 8d 85 40 f2 ff ff 	lea    -0xdc0(%rbp),%rax
    ae1d:	48 83 c0 40          	add    $0x40,%rax
    ae21:	48 89 85 90 f2 ff ff 	mov    %rax,-0xd70(%rbp)
    ae28:	48 8d 85 40 f2 ff ff 	lea    -0xdc0(%rbp),%rax
    ae2f:	48 83 c0 40          	add    $0x40,%rax
    ae33:	48 89 85 98 f2 ff ff 	mov    %rax,-0xd68(%rbp)
    ae3a:	48 8d 85 40 f2 ff ff 	lea    -0xdc0(%rbp),%rax
    ae41:	48 83 c0 40          	add    $0x40,%rax
    ae45:	48 89 85 a0 f2 ff ff 	mov    %rax,-0xd60(%rbp)
    ae4c:	48 8d 85 40 f2 ff ff 	lea    -0xdc0(%rbp),%rax
    ae53:	48 83 c0 40          	add    $0x40,%rax
    ae57:	48 89 85 a8 f2 ff ff 	mov    %rax,-0xd58(%rbp)
    ae5e:	48 8d 85 40 f2 ff ff 	lea    -0xdc0(%rbp),%rax
    ae65:	48 83 c0 40          	add    $0x40,%rax
    ae69:	48 89 85 b0 f2 ff ff 	mov    %rax,-0xd50(%rbp)
    ae70:	48 8d 85 40 f2 ff ff 	lea    -0xdc0(%rbp),%rax
    ae77:	48 83 c0 40          	add    $0x40,%rax
    ae7b:	48 89 85 b8 f2 ff ff 	mov    %rax,-0xd48(%rbp)
    ae82:	48 8d 85 40 f2 ff ff 	lea    -0xdc0(%rbp),%rax
    ae89:	48 83 c0 40          	add    $0x40,%rax
    ae8d:	48 89 85 c0 f2 ff ff 	mov    %rax,-0xd40(%rbp)
    ae94:	48 8d 85 40 f2 ff ff 	lea    -0xdc0(%rbp),%rax
    ae9b:	48 83 c0 40          	add    $0x40,%rax
    ae9f:	48 89 85 c8 f2 ff ff 	mov    %rax,-0xd38(%rbp)
    aea6:	48 8d 85 40 f2 ff ff 	lea    -0xdc0(%rbp),%rax
    aead:	48 83 c0 40          	add    $0x40,%rax
    aeb1:	48 89 85 d0 f2 ff ff 	mov    %rax,-0xd30(%rbp)
    aeb8:	48 8d 85 40 f2 ff ff 	lea    -0xdc0(%rbp),%rax
    aebf:	48 83 c0 40          	add    $0x40,%rax
    aec3:	48 89 85 d8 f2 ff ff 	mov    %rax,-0xd28(%rbp)
    aeca:	48 c7 85 08 f0 ff ff 	movq   $0x0,-0xff8(%rbp)
    aed1:	00 00 00 00 
    aed5:	48 8d 05 f4 04 01 00 	lea    0x104f4(%rip),%rax        # 1b3d0 <g_1076>
    aedc:	48 89 85 10 f0 ff ff 	mov    %rax,-0xff0(%rbp)
    aee3:	48 8d 05 f6 22 01 00 	lea    0x122f6(%rip),%rax        # 1d1e0 <g_371>
    aeea:	48 89 85 88 ef ff ff 	mov    %rax,-0x1078(%rbp)
    aef1:	48 8d 85 88 ef ff ff 	lea    -0x1078(%rbp),%rax
    aef8:	48 89 85 18 f0 ff ff 	mov    %rax,-0xfe8(%rbp)
    aeff:	48 8d 05 9a f5 00 00 	lea    0xf59a(%rip),%rax        # 1a4a0 <g_141>
    af06:	48 89 85 90 ef ff ff 	mov    %rax,-0x1070(%rbp)
    af0d:	48 8d 05 1c f2 00 00 	lea    0xf21c(%rip),%rax        # 1a130 <g_23+0x10>
    af14:	48 89 85 20 f0 ff ff 	mov    %rax,-0xfe0(%rbp)
    af1b:	c7 85 40 ef ff ff 00 	movl   $0x0,-0x10c0(%rbp)
    af22:	00 00 00 
    af25:	eb 1e                	jmp    af45 <func_17+0x2e3>
    af27:	8b 85 40 ef ff ff    	mov    -0x10c0(%rbp),%eax
    af2d:	48 98                	cltq   
    af2f:	48 8d 15 ba f5 00 00 	lea    0xf5ba(%rip),%rdx        # 1a4f0 <g_243>
    af36:	48 89 94 c5 20 f1 ff 	mov    %rdx,-0xee0(%rbp,%rax,8)
    af3d:	ff 
    af3e:	83 85 40 ef ff ff 01 	addl   $0x1,-0x10c0(%rbp)
    af45:	83 bd 40 ef ff ff 04 	cmpl   $0x4,-0x10c0(%rbp)
    af4c:	7e d9                	jle    af27 <func_17+0x2c5>
    af4e:	c7 05 a8 f5 00 00 00 	movl   $0x0,0xf5a8(%rip)        # 1a500 <g_243+0x10>
    af55:	00 00 00 
    af58:	e9 d1 2a 00 00       	jmpq   da2e <func_17+0x2dcc>
    af5d:	c7 85 28 ef ff ff 01 	movl   $0x1,-0x10d8(%rbp)
    af64:	00 00 00 
    af67:	c7 85 2c ef ff ff 95 	movl   $0x1d8ac195,-0x10d4(%rbp)
    af6e:	c1 8a 1d 
    af71:	48 8d 05 2c 03 01 00 	lea    0x1032c(%rip),%rax        # 1b2a4 <g_1027+0x4>
    af78:	48 89 85 40 f0 ff ff 	mov    %rax,-0xfc0(%rbp)
    af7f:	48 8d 05 76 f5 00 00 	lea    0xf576(%rip),%rax        # 1a4fc <g_243+0xc>
    af86:	48 89 85 48 f0 ff ff 	mov    %rax,-0xfb8(%rbp)
    af8d:	48 8d 05 3c 04 01 00 	lea    0x1043c(%rip),%rax        # 1b3d0 <g_1076>
    af94:	48 89 85 50 f0 ff ff 	mov    %rax,-0xfb0(%rbp)
    af9b:	48 8d 05 9e 1b 01 00 	lea    0x11b9e(%rip),%rax        # 1cb40 <g_244+0x160>
    afa2:	48 89 85 58 f0 ff ff 	mov    %rax,-0xfa8(%rbp)
    afa9:	c7 85 30 ef ff ff 41 	movl   $0xb28f1b41,-0x10d0(%rbp)
    afb0:	1b 8f b2 
    afb3:	c7 85 00 f1 ff ff 09 	movl   $0x9,-0xf00(%rbp)
    afba:	00 00 00 
    afbd:	c7 85 04 f1 ff ff 09 	movl   $0x9,-0xefc(%rbp)
    afc4:	00 00 00 
    afc7:	c7 85 08 f1 ff ff 5a 	movl   $0x1c6e7b5a,-0xef8(%rbp)
    afce:	7b 6e 1c 
    afd1:	c7 85 0c f1 ff ff 09 	movl   $0x9,-0xef4(%rbp)
    afd8:	00 00 00 
    afdb:	c7 85 10 f1 ff ff 09 	movl   $0x9,-0xef0(%rbp)
    afe2:	00 00 00 
    afe5:	c7 85 14 f1 ff ff 5a 	movl   $0x1c6e7b5a,-0xeec(%rbp)
    afec:	7b 6e 1c 
    afef:	c7 85 54 ef ff ff dd 	movl   $0x6e4263dd,-0x10ac(%rbp)
    aff6:	63 42 6e 
    aff9:	48 c7 85 50 f1 ff ff 	movq   $0x0,-0xeb0(%rbp)
    b000:	00 00 00 00 
    b004:	48 c7 85 58 f1 ff ff 	movq   $0x0,-0xea8(%rbp)
    b00b:	00 00 00 00 
    b00f:	48 8d 85 20 f1 ff ff 	lea    -0xee0(%rbp),%rax
    b016:	48 89 85 60 f1 ff ff 	mov    %rax,-0xea0(%rbp)
    b01d:	48 c7 85 68 f1 ff ff 	movq   $0x0,-0xe98(%rbp)
    b024:	00 00 00 00 
    b028:	48 c7 85 70 f1 ff ff 	movq   $0x0,-0xe90(%rbp)
    b02f:	00 00 00 00 
    b033:	48 8d 85 20 f1 ff ff 	lea    -0xee0(%rbp),%rax
    b03a:	48 89 85 78 f1 ff ff 	mov    %rax,-0xe88(%rbp)
    b041:	c7 85 3c ef ff ff 00 	movl   $0x0,-0x10c4(%rbp)
    b048:	00 00 00 
    b04b:	eb 1e                	jmp    b06b <func_17+0x409>
    b04d:	8b 85 3c ef ff ff    	mov    -0x10c4(%rbp),%eax
    b053:	48 98                	cltq   
    b055:	48 8d 15 f4 22 01 00 	lea    0x122f4(%rip),%rdx        # 1d350 <g_747>
    b05c:	48 89 94 c5 b0 f1 ff 	mov    %rdx,-0xe50(%rbp,%rax,8)
    b063:	ff 
    b064:	83 85 3c ef ff ff 01 	addl   $0x1,-0x10c4(%rbp)
    b06b:	83 bd 3c ef ff ff 06 	cmpl   $0x6,-0x10c4(%rbp)
    b072:	7e d9                	jle    b04d <func_17+0x3eb>
    b074:	c7 85 3c ef ff ff 00 	movl   $0x0,-0x10c4(%rbp)
    b07b:	00 00 00 
    b07e:	eb 1b                	jmp    b09b <func_17+0x439>
    b080:	8b 85 3c ef ff ff    	mov    -0x10c4(%rbp),%eax
    b086:	48 98                	cltq   
    b088:	48 c7 84 c5 f0 f1 ff 	movq   $0x0,-0xe10(%rbp,%rax,8)
    b08f:	ff 00 00 00 00 
    b094:	83 85 3c ef ff ff 01 	addl   $0x1,-0x10c4(%rbp)
    b09b:	83 bd 3c ef ff ff 08 	cmpl   $0x8,-0x10c4(%rbp)
    b0a2:	7e dc                	jle    b080 <func_17+0x41e>
    b0a4:	c7 85 3c ef ff ff 00 	movl   $0x0,-0x10c4(%rbp)
    b0ab:	00 00 00 
    b0ae:	eb 22                	jmp    b0d2 <func_17+0x470>
    b0b0:	8b 85 3c ef ff ff    	mov    -0x10c4(%rbp),%eax
    b0b6:	48 98                	cltq   
    b0b8:	48 8d 95 50 f1 ff ff 	lea    -0xeb0(%rbp),%rdx
    b0bf:	48 83 c2 18          	add    $0x18,%rdx
    b0c3:	48 89 94 c5 d8 f0 ff 	mov    %rdx,-0xf28(%rbp,%rax,8)
    b0ca:	ff 
    b0cb:	83 85 3c ef ff ff 01 	addl   $0x1,-0x10c4(%rbp)
    b0d2:	83 bd 3c ef ff ff 00 	cmpl   $0x0,-0x10c4(%rbp)
    b0d9:	7e d5                	jle    b0b0 <func_17+0x44e>
    b0db:	48 8b 85 b0 f1 ff ff 	mov    -0xe50(%rbp),%rax
    b0e2:	48 85 c0             	test   %rax,%rax
    b0e5:	0f 94 c0             	sete   %al
    b0e8:	0f b6 c8             	movzbl %al,%ecx
    b0eb:	48 8b 05 5e 22 01 00 	mov    0x1225e(%rip),%rax        # 1d350 <g_747>
    b0f2:	48 8b 00             	mov    (%rax),%rax
    b0f5:	48 8b 15 54 22 01 00 	mov    0x12254(%rip),%rdx        # 1d350 <g_747>
    b0fc:	48 8b 12             	mov    (%rdx),%rdx
    b0ff:	48 89 95 b8 ef ff ff 	mov    %rdx,-0x1048(%rbp)
    b106:	48 39 85 b8 ef ff ff 	cmp    %rax,-0x1048(%rbp)
    b10d:	0f 94 c0             	sete   %al
    b110:	0f b6 c0             	movzbl %al,%eax
    b113:	39 85 48 ef ff ff    	cmp    %eax,-0x10b8(%rbp)
    b119:	0f 9c c0             	setl   %al
    b11c:	0f b6 c0             	movzbl %al,%eax
    b11f:	39 c1                	cmp    %eax,%ecx
    b121:	0f 9f c0             	setg   %al
    b124:	0f b6 c0             	movzbl %al,%eax
    b127:	be 0e 00 00 00       	mov    $0xe,%esi
    b12c:	89 c7                	mov    %eax,%edi
    b12e:	e8 47 bd ff ff       	callq  6e7a <safe_rshift_func_uint16_t_u_u>
    b133:	0f b7 c0             	movzwl %ax,%eax
    b136:	be 04 00 00 00       	mov    $0x4,%esi
    b13b:	48 89 c7             	mov    %rax,%rdi
    b13e:	e8 08 bf ff ff       	callq  704b <safe_sub_func_uint64_t_u_u>
    b143:	48 89 c3             	mov    %rax,%rbx
    b146:	48 8b 05 73 f3 00 00 	mov    0xf373(%rip),%rax        # 1a4c0 <g_141+0x20>
    b14d:	48 89 c6             	mov    %rax,%rsi
    b150:	bf 03 00 00 00       	mov    $0x3,%edi
    b155:	e8 e7 b6 ff ff       	callq  6841 <safe_add_func_int64_t_s_s>
    b15a:	48 39 c3             	cmp    %rax,%rbx
    b15d:	0f 96 c0             	setbe  %al
    b160:	0f b6 c0             	movzbl %al,%eax
    b163:	be 00 00 00 00       	mov    $0x0,%esi
    b168:	89 c7                	mov    %eax,%edi
    b16a:	e8 7f b1 ff ff       	callq  62ee <safe_lshift_func_int8_t_s_u>
    b16f:	0f b7 85 0e ef ff ff 	movzwl -0x10f2(%rbp),%eax
    b176:	66 83 f8 01          	cmp    $0x1,%ax
    b17a:	0f 95 c0             	setne  %al
    b17d:	0f b6 d0             	movzbl %al,%edx
    b180:	8b 85 28 ef ff ff    	mov    -0x10d8(%rbp),%eax
    b186:	09 d0                	or     %edx,%eax
    b188:	89 85 28 ef ff ff    	mov    %eax,-0x10d8(%rbp)
    b18e:	b9 00 00 00 00       	mov    $0x0,%ecx
    b193:	48 8b 85 00 ef ff ff 	mov    -0x1100(%rbp),%rax
    b19a:	48 8b 00             	mov    (%rax),%rax
    b19d:	8b 10                	mov    (%rax),%edx
    b19f:	48 8b 85 00 ef ff ff 	mov    -0x1100(%rbp),%rax
    b1a6:	48 8b 00             	mov    (%rax),%rax
    b1a9:	09 ca                	or     %ecx,%edx
    b1ab:	89 10                	mov    %edx,(%rax)
    b1ad:	0f b7 85 0e ef ff ff 	movzwl -0x10f2(%rbp),%eax
    b1b4:	0f b7 d8             	movzwl %ax,%ebx
    b1b7:	8b 85 30 ef ff ff    	mov    -0x10d0(%rbp),%eax
    b1bd:	41 89 c5             	mov    %eax,%r13d
    b1c0:	8b 85 30 ef ff ff    	mov    -0x10d0(%rbp),%eax
    b1c6:	44 0f b6 e0          	movzbl %al,%r12d
    b1ca:	48 8b 05 f7 21 01 00 	mov    0x121f7(%rip),%rax        # 1d3c8 <g_811>
    b1d1:	48 8b 00             	mov    (%rax),%rax
    b1d4:	48 8b 00             	mov    (%rax),%rax
    b1d7:	8b 00                	mov    (%rax),%eax
    b1d9:	41 89 c7             	mov    %eax,%r15d
    b1dc:	48 83 bd 58 f0 ff ff 	cmpq   $0x0,-0xfa8(%rbp)
    b1e3:	00 
    b1e4:	0f 95 c0             	setne  %al
    b1e7:	0f b6 c0             	movzbl %al,%eax
    b1ea:	89 c7                	mov    %eax,%edi
    b1ec:	e8 b5 bc ff ff       	callq  6ea6 <safe_unary_minus_func_uint32_t_u>
    b1f1:	41 89 c6             	mov    %eax,%r14d
    b1f4:	0f be 95 0c ef ff ff 	movsbl -0x10f4(%rbp),%edx
    b1fb:	48 8b 85 40 f0 ff ff 	mov    -0xfc0(%rbp),%rax
    b202:	8b 08                	mov    (%rax),%ecx
    b204:	0f b7 85 08 ef ff ff 	movzwl -0x10f8(%rbp),%eax
    b20b:	09 c1                	or     %eax,%ecx
    b20d:	48 8b 85 40 f0 ff ff 	mov    -0xfc0(%rbp),%rax
    b214:	89 08                	mov    %ecx,(%rax)
    b216:	48 8b 85 40 f0 ff ff 	mov    -0xfc0(%rbp),%rax
    b21d:	8b 00                	mov    (%rax),%eax
    b21f:	89 c1                	mov    %eax,%ecx
    b221:	8b 85 28 ef ff ff    	mov    -0x10d8(%rbp),%eax
    b227:	31 c8                	xor    %ecx,%eax
    b229:	89 c1                	mov    %eax,%ecx
    b22b:	48 8b 85 48 f0 ff ff 	mov    -0xfb8(%rbp),%rax
    b232:	66 89 08             	mov    %cx,(%rax)
    b235:	48 8b 85 48 f0 ff ff 	mov    -0xfb8(%rbp),%rax
    b23c:	0f b7 00             	movzwl (%rax),%eax
    b23f:	98                   	cwtl   
    b240:	89 d6                	mov    %edx,%esi
    b242:	89 c7                	mov    %eax,%edi
    b244:	e8 49 b2 ff ff       	callq  6492 <safe_lshift_func_int16_t_s_s>
    b249:	89 c2                	mov    %eax,%edx
    b24b:	48 8b 85 50 f0 ff ff 	mov    -0xfb0(%rbp),%rax
    b252:	88 10                	mov    %dl,(%rax)
    b254:	48 8b 85 50 f0 ff ff 	mov    -0xfb0(%rbp),%rax
    b25b:	0f b6 00             	movzbl (%rax),%eax
    b25e:	0f b6 c0             	movzbl %al,%eax
    b261:	be 06 00 00 00       	mov    $0x6,%esi
    b266:	89 c7                	mov    %eax,%edi
    b268:	e8 20 ba ff ff       	callq  6c8d <safe_rshift_func_uint8_t_u_s>
    b26d:	0f be c0             	movsbl %al,%eax
    b270:	44 89 f6             	mov    %r14d,%esi
    b273:	89 c7                	mov    %eax,%edi
    b275:	e8 27 b0 ff ff       	callq  62a1 <safe_lshift_func_int8_t_s_s>
    b27a:	8b 95 48 ef ff ff    	mov    -0x10b8(%rbp),%edx
    b280:	09 d0                	or     %edx,%eax
    b282:	44 31 f8             	xor    %r15d,%eax
    b285:	0f b6 c0             	movzbl %al,%eax
    b288:	44 89 e6             	mov    %r12d,%esi
    b28b:	89 c7                	mov    %eax,%edi
    b28d:	e8 01 b9 ff ff       	callq  6b93 <safe_mul_func_uint8_t_u_u>
    b292:	0f b6 c0             	movzbl %al,%eax
    b295:	44 89 ee             	mov    %r13d,%esi
    b298:	89 c7                	mov    %eax,%edi
    b29a:	e8 86 bc ff ff       	callq  6f25 <safe_div_func_uint32_t_u_u>
    b29f:	89 c0                	mov    %eax,%eax
    b2a1:	48 89 05 60 f2 00 00 	mov    %rax,0xf260(%rip)        # 1a508 <g_286>
    b2a8:	8b 05 92 f3 00 00    	mov    0xf392(%rip),%eax        # 1a640 <g_800+0x10>
    b2ae:	8b 85 48 ef ff ff    	mov    -0x10b8(%rbp),%eax
    b2b4:	89 de                	mov    %ebx,%esi
    b2b6:	89 c7                	mov    %eax,%edi
    b2b8:	e8 48 b3 ff ff       	callq  6605 <safe_sub_func_int32_t_s_s>
    b2bd:	39 85 48 ef ff ff    	cmp    %eax,-0x10b8(%rbp)
    b2c3:	0f 94 c0             	sete   %al
    b2c6:	0f b6 c0             	movzbl %al,%eax
    b2c9:	be 57 00 00 00       	mov    $0x57,%esi
    b2ce:	89 c7                	mov    %eax,%edi
    b2d0:	e8 3d af ff ff       	callq  6212 <safe_mul_func_int8_t_s_s>
    b2d5:	84 c0                	test   %al,%al
    b2d7:	0f 84 42 08 00 00    	je     bb1f <func_17+0xebd>
    b2dd:	c7 85 70 f3 ff ff 86 	movl   $0x7bd08186,-0xc90(%rbp)
    b2e4:	81 d0 7b 
    b2e7:	c7 85 74 f3 ff ff 2a 	movl   $0xfa0cd32a,-0xc8c(%rbp)
    b2ee:	d3 0c fa 
    b2f1:	c7 85 78 f3 ff ff 02 	movl   $0x2,-0xc88(%rbp)
    b2f8:	00 00 00 
    b2fb:	c7 85 7c f3 ff ff 09 	movl   $0x9,-0xc84(%rbp)
    b302:	00 00 00 
    b305:	c7 85 80 f3 ff ff 02 	movl   $0x2,-0xc80(%rbp)
    b30c:	00 00 00 
    b30f:	c7 85 84 f3 ff ff 2a 	movl   $0xfa0cd32a,-0xc7c(%rbp)
    b316:	d3 0c fa 
    b319:	c7 85 88 f3 ff ff 86 	movl   $0x7bd08186,-0xc78(%rbp)
    b320:	81 d0 7b 
    b323:	c7 85 8c f3 ff ff 09 	movl   $0x9,-0xc74(%rbp)
    b32a:	00 00 00 
    b32d:	c7 85 90 f3 ff ff 86 	movl   $0x7bd08186,-0xc70(%rbp)
    b334:	81 d0 7b 
    b337:	c7 85 94 f3 ff ff 2a 	movl   $0xfa0cd32a,-0xc6c(%rbp)
    b33e:	d3 0c fa 
    b341:	c7 85 98 f3 ff ff 02 	movl   $0x2,-0xc68(%rbp)
    b348:	00 00 00 
    b34b:	c7 85 9c f3 ff ff 09 	movl   $0x9,-0xc64(%rbp)
    b352:	00 00 00 
    b355:	c7 85 a0 f3 ff ff 02 	movl   $0x2,-0xc60(%rbp)
    b35c:	00 00 00 
    b35f:	c7 85 a4 f3 ff ff 2a 	movl   $0xfa0cd32a,-0xc5c(%rbp)
    b366:	d3 0c fa 
    b369:	c7 85 a8 f3 ff ff 86 	movl   $0x7bd08186,-0xc58(%rbp)
    b370:	81 d0 7b 
    b373:	c7 85 ac f3 ff ff 09 	movl   $0x9,-0xc54(%rbp)
    b37a:	00 00 00 
    b37d:	c7 85 b0 f3 ff ff 86 	movl   $0x7bd08186,-0xc50(%rbp)
    b384:	81 d0 7b 
    b387:	c7 85 b4 f3 ff ff 2a 	movl   $0xfa0cd32a,-0xc4c(%rbp)
    b38e:	d3 0c fa 
    b391:	c7 85 b8 f3 ff ff 02 	movl   $0x2,-0xc48(%rbp)
    b398:	00 00 00 
    b39b:	c7 85 bc f3 ff ff 09 	movl   $0x9,-0xc44(%rbp)
    b3a2:	00 00 00 
    b3a5:	c7 85 c0 f3 ff ff 02 	movl   $0x2,-0xc40(%rbp)
    b3ac:	00 00 00 
    b3af:	c7 85 c4 f3 ff ff 2a 	movl   $0xfa0cd32a,-0xc3c(%rbp)
    b3b6:	d3 0c fa 
    b3b9:	c7 85 c8 f3 ff ff 86 	movl   $0x7bd08186,-0xc38(%rbp)
    b3c0:	81 d0 7b 
    b3c3:	c7 85 cc f3 ff ff 09 	movl   $0x9,-0xc34(%rbp)
    b3ca:	00 00 00 
    b3cd:	c7 85 d0 f3 ff ff 86 	movl   $0x7bd08186,-0xc30(%rbp)
    b3d4:	81 d0 7b 
    b3d7:	c7 85 d4 f3 ff ff 2a 	movl   $0xfa0cd32a,-0xc2c(%rbp)
    b3de:	d3 0c fa 
    b3e1:	c7 85 d8 f3 ff ff 02 	movl   $0x2,-0xc28(%rbp)
    b3e8:	00 00 00 
    b3eb:	c7 85 dc f3 ff ff 09 	movl   $0x9,-0xc24(%rbp)
    b3f2:	00 00 00 
    b3f5:	c7 85 e0 f3 ff ff 02 	movl   $0x2,-0xc20(%rbp)
    b3fc:	00 00 00 
    b3ff:	c7 85 e4 f3 ff ff 2a 	movl   $0xfa0cd32a,-0xc1c(%rbp)
    b406:	d3 0c fa 
    b409:	c7 85 e8 f3 ff ff 86 	movl   $0x7bd08186,-0xc18(%rbp)
    b410:	81 d0 7b 
    b413:	c7 85 ec f3 ff ff 09 	movl   $0x9,-0xc14(%rbp)
    b41a:	00 00 00 
    b41d:	c7 85 f0 f3 ff ff 86 	movl   $0x7bd08186,-0xc10(%rbp)
    b424:	81 d0 7b 
    b427:	c7 85 f4 f3 ff ff 2a 	movl   $0xfa0cd32a,-0xc0c(%rbp)
    b42e:	d3 0c fa 
    b431:	c7 85 f8 f3 ff ff 02 	movl   $0x2,-0xc08(%rbp)
    b438:	00 00 00 
    b43b:	c7 85 fc f3 ff ff 09 	movl   $0x9,-0xc04(%rbp)
    b442:	00 00 00 
    b445:	c7 85 00 f4 ff ff 02 	movl   $0x2,-0xc00(%rbp)
    b44c:	00 00 00 
    b44f:	c7 85 04 f4 ff ff 2a 	movl   $0xfa0cd32a,-0xbfc(%rbp)
    b456:	d3 0c fa 
    b459:	c7 85 08 f4 ff ff 86 	movl   $0x7bd08186,-0xbf8(%rbp)
    b460:	81 d0 7b 
    b463:	c7 85 0c f4 ff ff 09 	movl   $0x9,-0xbf4(%rbp)
    b46a:	00 00 00 
    b46d:	c7 85 10 f4 ff ff 86 	movl   $0x7bd08186,-0xbf0(%rbp)
    b474:	81 d0 7b 
    b477:	c7 85 14 f4 ff ff 2a 	movl   $0xfa0cd32a,-0xbec(%rbp)
    b47e:	d3 0c fa 
    b481:	c6 85 20 ef ff ff ec 	movb   $0xec,-0x10e0(%rbp)
    b488:	48 8d 05 61 f0 00 00 	lea    0xf061(%rip),%rax        # 1a4f0 <g_243>
    b48f:	48 89 85 a0 f0 ff ff 	mov    %rax,-0xf60(%rbp)
    b496:	8b 15 98 f2 00 00    	mov    0xf298(%rip),%edx        # 1a734 <g_804+0xd4>
    b49c:	0f b7 85 0e ef ff ff 	movzwl -0x10f2(%rbp),%eax
    b4a3:	66 83 f8 01          	cmp    $0x1,%ax
    b4a7:	0f 96 c0             	setbe  %al
    b4aa:	0f b6 c8             	movzbl %al,%ecx
    b4ad:	48 8b 05 0c fe 00 00 	mov    0xfe0c(%rip),%rax        # 1b2c0 <g_1027+0x20>
    b4b4:	48 39 c1             	cmp    %rax,%rcx
    b4b7:	0f 9e c0             	setle  %al
    b4ba:	0f b6 c0             	movzbl %al,%eax
    b4bd:	89 d6                	mov    %edx,%esi
    b4bf:	89 c7                	mov    %eax,%edi
    b4c1:	e8 64 b0 ff ff       	callq  652a <safe_rshift_func_int16_t_s_s>
    b4c6:	66 85 c0             	test   %ax,%ax
    b4c9:	0f 84 00 06 00 00    	je     bacf <func_17+0xe6d>
    b4cf:	c7 85 34 ef ff ff 2c 	movl   $0x3921902c,-0x10cc(%rbp)
    b4d6:	90 21 39 
    b4d9:	48 8d 05 38 ee 00 00 	lea    0xee38(%rip),%rax        # 1a318 <g_45>
    b4e0:	48 89 85 80 f1 ff ff 	mov    %rax,-0xe80(%rbp)
    b4e7:	48 8d 05 2a ee 00 00 	lea    0xee2a(%rip),%rax        # 1a318 <g_45>
    b4ee:	48 89 85 88 f1 ff ff 	mov    %rax,-0xe78(%rbp)
    b4f5:	48 8d 05 1c ee 00 00 	lea    0xee1c(%rip),%rax        # 1a318 <g_45>
    b4fc:	48 89 85 90 f1 ff ff 	mov    %rax,-0xe70(%rbp)
    b503:	48 8d 05 0e ee 00 00 	lea    0xee0e(%rip),%rax        # 1a318 <g_45>
    b50a:	48 89 85 98 f1 ff ff 	mov    %rax,-0xe68(%rbp)
    b511:	48 8d 05 00 ee 00 00 	lea    0xee00(%rip),%rax        # 1a318 <g_45>
    b518:	48 89 85 a0 f1 ff ff 	mov    %rax,-0xe60(%rbp)
    b51f:	48 8d 05 f2 ed 00 00 	lea    0xedf2(%rip),%rax        # 1a318 <g_45>
    b526:	48 89 85 a8 f1 ff ff 	mov    %rax,-0xe58(%rbp)
    b52d:	48 8d 05 9c fe 00 00 	lea    0xfe9c(%rip),%rax        # 1b3d0 <g_1076>
    b534:	48 89 85 98 ef ff ff 	mov    %rax,-0x1068(%rbp)
    b53b:	c7 85 74 ef ff ff b5 	movl   $0xaf7dbeb5,-0x108c(%rbp)
    b542:	be 7d af 
    b545:	c7 85 e0 f2 ff ff 00 	movl   $0x0,-0xd20(%rbp)
    b54c:	00 00 00 
    b54f:	c7 85 e4 f2 ff ff 6f 	movl   $0x206da46f,-0xd1c(%rbp)
    b556:	a4 6d 20 
    b559:	c7 85 e8 f2 ff ff 01 	movl   $0x1,-0xd18(%rbp)
    b560:	00 00 00 
    b563:	c7 85 ec f2 ff ff ff 	movl   $0xffffffff,-0xd14(%rbp)
    b56a:	ff ff ff 
    b56d:	c7 85 f0 f2 ff ff fe 	movl   $0xfffffffe,-0xd10(%rbp)
    b574:	ff ff ff 
    b577:	c7 85 f4 f2 ff ff c8 	movl   $0x71debac8,-0xd0c(%rbp)
    b57e:	ba de 71 
    b581:	c7 85 f8 f2 ff ff fe 	movl   $0xfffffffe,-0xd08(%rbp)
    b588:	ff ff ff 
    b58b:	c7 85 fc f2 ff ff ff 	movl   $0xffffffff,-0xd04(%rbp)
    b592:	ff ff ff 
    b595:	c7 85 00 f3 ff ff 01 	movl   $0x1,-0xd00(%rbp)
    b59c:	00 00 00 
    b59f:	c7 85 04 f3 ff ff 6f 	movl   $0x206da46f,-0xcfc(%rbp)
    b5a6:	a4 6d 20 
    b5a9:	c7 85 08 f3 ff ff 00 	movl   $0x0,-0xcf8(%rbp)
    b5b0:	00 00 00 
    b5b3:	c7 85 0c f3 ff ff 08 	movl   $0x8,-0xcf4(%rbp)
    b5ba:	00 00 00 
    b5bd:	c7 85 10 f3 ff ff 03 	movl   $0x3,-0xcf0(%rbp)
    b5c4:	00 00 00 
    b5c7:	c7 85 14 f3 ff ff 9c 	movl   $0xd53d9e9c,-0xcec(%rbp)
    b5ce:	9e 3d d5 
    b5d1:	c7 85 18 f3 ff ff 6f 	movl   $0x206da46f,-0xce8(%rbp)
    b5d8:	a4 6d 20 
    b5db:	c7 85 1c f3 ff ff 6f 	movl   $0x206da46f,-0xce4(%rbp)
    b5e2:	a4 6d 20 
    b5e5:	c7 85 20 f3 ff ff ab 	movl   $0x43770aab,-0xce0(%rbp)
    b5ec:	0a 77 43 
    b5ef:	c7 85 24 f3 ff ff ab 	movl   $0x43770aab,-0xcdc(%rbp)
    b5f6:	0a 77 43 
    b5f9:	c7 85 28 f3 ff ff 6f 	movl   $0x206da46f,-0xcd8(%rbp)
    b600:	a4 6d 20 
    b603:	c7 85 2c f3 ff ff fe 	movl   $0xfffffffe,-0xcd4(%rbp)
    b60a:	ff ff ff 
    b60d:	c7 85 30 f3 ff ff 03 	movl   $0x3,-0xcd0(%rbp)
    b614:	00 00 00 
    b617:	c7 85 34 f3 ff ff 30 	movl   $0x940f2530,-0xccc(%rbp)
    b61e:	25 0f 94 
    b621:	c7 85 38 f3 ff ff 00 	movl   $0x0,-0xcc8(%rbp)
    b628:	00 00 00 
    b62b:	c7 85 3c f3 ff ff 9c 	movl   $0xd53d9e9c,-0xcc4(%rbp)
    b632:	9e 3d d5 
    b635:	c7 85 40 f3 ff ff 01 	movl   $0x1,-0xcc0(%rbp)
    b63c:	00 00 00 
    b63f:	c7 85 44 f3 ff ff 00 	movl   $0x0,-0xcbc(%rbp)
    b646:	00 00 00 
    b649:	c7 85 48 f3 ff ff fe 	movl   $0xfffffffe,-0xcb8(%rbp)
    b650:	ff ff ff 
    b653:	c7 85 4c f3 ff ff 00 	movl   $0x0,-0xcb4(%rbp)
    b65a:	00 00 00 
    b65d:	c7 85 50 f3 ff ff fe 	movl   $0xfffffffe,-0xcb0(%rbp)
    b664:	ff ff ff 
    b667:	c7 85 54 f3 ff ff 00 	movl   $0x0,-0xcac(%rbp)
    b66e:	00 00 00 
    b671:	c7 85 58 f3 ff ff 01 	movl   $0x1,-0xca8(%rbp)
    b678:	00 00 00 
    b67b:	c7 85 5c f3 ff ff 9c 	movl   $0xd53d9e9c,-0xca4(%rbp)
    b682:	9e 3d d5 
    b685:	c7 85 60 f3 ff ff 00 	movl   $0x0,-0xca0(%rbp)
    b68c:	00 00 00 
    b68f:	c7 85 64 f3 ff ff 30 	movl   $0x940f2530,-0xc9c(%rbp)
    b696:	25 0f 94 
    b699:	c7 85 68 f3 ff ff 03 	movl   $0x3,-0xc98(%rbp)
    b6a0:	00 00 00 
    b6a3:	c7 85 6c f3 ff ff fe 	movl   $0xfffffffe,-0xc94(%rbp)
    b6aa:	ff ff ff 
    b6ad:	48 c7 85 a0 ef ff ff 	movq   $0x0,-0x1060(%rbp)
    b6b4:	00 00 00 00 
    b6b8:	48 8d 85 a0 ef ff ff 	lea    -0x1060(%rbp),%rax
    b6bf:	48 89 85 a8 ef ff ff 	mov    %rax,-0x1058(%rbp)
    b6c6:	48 8d 85 a8 ef ff ff 	lea    -0x1058(%rbp),%rax
    b6cd:	48 89 85 e0 f7 ff ff 	mov    %rax,-0x820(%rbp)
    b6d4:	48 8d 85 a8 ef ff ff 	lea    -0x1058(%rbp),%rax
    b6db:	48 89 85 e8 f7 ff ff 	mov    %rax,-0x818(%rbp)
    b6e2:	48 8d 85 a8 ef ff ff 	lea    -0x1058(%rbp),%rax
    b6e9:	48 89 85 f0 f7 ff ff 	mov    %rax,-0x810(%rbp)
    b6f0:	48 8d 85 a8 ef ff ff 	lea    -0x1058(%rbp),%rax
    b6f7:	48 89 85 f8 f7 ff ff 	mov    %rax,-0x808(%rbp)
    b6fe:	48 8d 85 a8 ef ff ff 	lea    -0x1058(%rbp),%rax
    b705:	48 89 85 00 f8 ff ff 	mov    %rax,-0x800(%rbp)
    b70c:	48 8d 85 a8 ef ff ff 	lea    -0x1058(%rbp),%rax
    b713:	48 89 85 08 f8 ff ff 	mov    %rax,-0x7f8(%rbp)
    b71a:	48 8d 85 a8 ef ff ff 	lea    -0x1058(%rbp),%rax
    b721:	48 89 85 10 f8 ff ff 	mov    %rax,-0x7f0(%rbp)
    b728:	48 8d 85 a8 ef ff ff 	lea    -0x1058(%rbp),%rax
    b72f:	48 89 85 18 f8 ff ff 	mov    %rax,-0x7e8(%rbp)
    b736:	48 8d 85 a8 ef ff ff 	lea    -0x1058(%rbp),%rax
    b73d:	48 89 85 20 f8 ff ff 	mov    %rax,-0x7e0(%rbp)
    b744:	48 8d 85 a8 ef ff ff 	lea    -0x1058(%rbp),%rax
    b74b:	48 89 85 28 f8 ff ff 	mov    %rax,-0x7d8(%rbp)
    b752:	48 c7 85 30 f8 ff ff 	movq   $0x0,-0x7d0(%rbp)
    b759:	00 00 00 00 
    b75d:	48 8d 85 a8 ef ff ff 	lea    -0x1058(%rbp),%rax
    b764:	48 89 85 38 f8 ff ff 	mov    %rax,-0x7c8(%rbp)
    b76b:	48 8d 85 a8 ef ff ff 	lea    -0x1058(%rbp),%rax
    b772:	48 89 85 40 f8 ff ff 	mov    %rax,-0x7c0(%rbp)
    b779:	48 8d 85 a8 ef ff ff 	lea    -0x1058(%rbp),%rax
    b780:	48 89 85 48 f8 ff ff 	mov    %rax,-0x7b8(%rbp)
    b787:	48 8d 85 a8 ef ff ff 	lea    -0x1058(%rbp),%rax
    b78e:	48 89 85 50 f8 ff ff 	mov    %rax,-0x7b0(%rbp)
    b795:	48 8d 85 a8 ef ff ff 	lea    -0x1058(%rbp),%rax
    b79c:	48 89 85 58 f8 ff ff 	mov    %rax,-0x7a8(%rbp)
    b7a3:	48 8d 85 a8 ef ff ff 	lea    -0x1058(%rbp),%rax
    b7aa:	48 89 85 60 f8 ff ff 	mov    %rax,-0x7a0(%rbp)
    b7b1:	48 8d 85 a8 ef ff ff 	lea    -0x1058(%rbp),%rax
    b7b8:	48 89 85 68 f8 ff ff 	mov    %rax,-0x798(%rbp)
    b7bf:	48 8d 85 a8 ef ff ff 	lea    -0x1058(%rbp),%rax
    b7c6:	48 89 85 70 f8 ff ff 	mov    %rax,-0x790(%rbp)
    b7cd:	48 8d 85 a8 ef ff ff 	lea    -0x1058(%rbp),%rax
    b7d4:	48 89 85 78 f8 ff ff 	mov    %rax,-0x788(%rbp)
    b7db:	48 8d 85 a8 ef ff ff 	lea    -0x1058(%rbp),%rax
    b7e2:	48 89 85 80 f8 ff ff 	mov    %rax,-0x780(%rbp)
    b7e9:	48 8d 85 a8 ef ff ff 	lea    -0x1058(%rbp),%rax
    b7f0:	48 89 85 88 f8 ff ff 	mov    %rax,-0x778(%rbp)
    b7f7:	48 c7 85 90 f8 ff ff 	movq   $0x0,-0x770(%rbp)
    b7fe:	00 00 00 00 
    b802:	48 8d 85 a8 ef ff ff 	lea    -0x1058(%rbp),%rax
    b809:	48 89 85 98 f8 ff ff 	mov    %rax,-0x768(%rbp)
    b810:	48 8d 85 e0 f7 ff ff 	lea    -0x820(%rbp),%rax
    b817:	48 83 c0 48          	add    $0x48,%rax
    b81b:	48 89 85 b0 f0 ff ff 	mov    %rax,-0xf50(%rbp)
    b822:	66 c7 05 c5 ec 00 00 	movw   $0xffeb,0xecc5(%rip)        # 1a4f0 <g_243>
    b829:	eb ff 
    b82b:	e9 82 02 00 00       	jmpq   bab2 <func_17+0xe50>
    b830:	66 c7 85 26 ef ff ff 	movw   $0x7,-0x10da(%rbp)
    b837:	07 00 
    b839:	48 8d 05 f0 e8 00 00 	lea    0xe8f0(%rip),%rax        # 1a130 <g_23+0x10>
    b840:	48 89 85 b8 f0 ff ff 	mov    %rax,-0xf48(%rbp)
    b847:	48 8d 85 98 ef ff ff 	lea    -0x1068(%rbp),%rax
    b84e:	48 89 85 c0 f0 ff ff 	mov    %rax,-0xf40(%rbp)
    b855:	83 ad 34 ef ff ff 01 	subl   $0x1,-0x10cc(%rbp)
    b85c:	48 8d 05 fd 10 01 00 	lea    0x110fd(%rip),%rax        # 1c960 <g_110>
    b863:	48 8b 00             	mov    (%rax),%rax
    b866:	8b 10                	mov    (%rax),%edx
    b868:	48 8d 05 f1 10 01 00 	lea    0x110f1(%rip),%rax        # 1c960 <g_110>
    b86f:	48 8b 00             	mov    (%rax),%rax
    b872:	81 e2 c9 3d 3a f3    	and    $0xf33a3dc9,%edx
    b878:	89 10                	mov    %edx,(%rax)
    b87a:	66 c7 05 7d f9 00 00 	movw   $0x0,0xf97d(%rip)        # 1b200 <g_948>
    b881:	00 00 
    b883:	e9 f2 00 00 00       	jmpq   b97a <func_17+0xd18>
    b888:	48 c7 85 b0 ef ff ff 	movq   $0x0,-0x1050(%rbp)
    b88f:	00 00 00 00 
    b893:	48 8d 85 b0 ef ff ff 	lea    -0x1050(%rbp),%rax
    b89a:	48 89 85 c8 f0 ff ff 	mov    %rax,-0xf38(%rbp)
    b8a1:	48 8b 05 d0 10 01 00 	mov    0x110d0(%rip),%rax        # 1c978 <g_113>
    b8a8:	48 8b 08             	mov    (%rax),%rcx
    b8ab:	48 8b 95 b0 ef ff ff 	mov    -0x1050(%rbp),%rdx
    b8b2:	48 8b 85 c8 f0 ff ff 	mov    -0xf38(%rbp),%rax
    b8b9:	48 89 10             	mov    %rdx,(%rax)
    b8bc:	48 8b 85 c8 f0 ff ff 	mov    -0xf38(%rbp),%rax
    b8c3:	48 8b 00             	mov    (%rax),%rax
    b8c6:	48 39 c1             	cmp    %rax,%rcx
    b8c9:	0f 95 c0             	setne  %al
    b8cc:	0f b6 c0             	movzbl %al,%eax
    b8cf:	be ff ff ff ff       	mov    $0xffffffff,%esi
    b8d4:	89 c7                	mov    %eax,%edi
    b8d6:	e8 8f a9 ff ff       	callq  626a <safe_div_func_int8_t_s_s>
    b8db:	44 0f be e0          	movsbl %al,%r12d
    b8df:	0f b6 9d 20 ef ff ff 	movzbl -0x10e0(%rbp),%ebx
    b8e6:	83 bd 48 ef ff ff 00 	cmpl   $0x0,-0x10b8(%rbp)
    b8ed:	74 11                	je     b900 <func_17+0xc9e>
    b8ef:	66 83 bd 26 ef ff ff 	cmpw   $0x0,-0x10da(%rbp)
    b8f6:	00 
    b8f7:	74 07                	je     b900 <func_17+0xc9e>
    b8f9:	b8 01 00 00 00       	mov    $0x1,%eax
    b8fe:	eb 05                	jmp    b905 <func_17+0xca3>
    b900:	b8 00 00 00 00       	mov    $0x0,%eax
    b905:	89 c6                	mov    %eax,%esi
    b907:	bf 01 00 00 00       	mov    $0x1,%edi
    b90c:	e8 19 ac ff ff       	callq  652a <safe_rshift_func_int16_t_s_s>
    b911:	89 de                	mov    %ebx,%esi
    b913:	bf e6 51 df 32       	mov    $0x32df51e6,%edi
    b918:	e8 b3 b5 ff ff       	callq  6ed0 <safe_sub_func_uint32_t_u_u>
    b91d:	41 39 c4             	cmp    %eax,%r12d
    b920:	0f 96 c0             	setbe  %al
    b923:	0f b6 c0             	movzbl %al,%eax
    b926:	be 72 8d e8 d4       	mov    $0xd4e88d72,%esi
    b92b:	89 c7                	mov    %eax,%edi
    b92d:	e8 9e b5 ff ff       	callq  6ed0 <safe_sub_func_uint32_t_u_u>
    b932:	0f b6 c0             	movzbl %al,%eax
    b935:	be 30 00 00 00       	mov    $0x30,%esi
    b93a:	89 c7                	mov    %eax,%edi
    b93c:	e8 9a b2 ff ff       	callq  6bdb <safe_div_func_uint8_t_u_u>
    b941:	89 c2                	mov    %eax,%edx
    b943:	48 8b 85 00 ef ff ff 	mov    -0x1100(%rbp),%rax
    b94a:	48 8b 00             	mov    (%rax),%rax
    b94d:	0f b6 d2             	movzbl %dl,%edx
    b950:	89 10                	mov    %edx,(%rax)
    b952:	48 c7 85 80 f1 ff ff 	movq   $0x0,-0xe80(%rbp)
    b959:	00 00 00 00 
    b95d:	0f b7 05 9c f8 00 00 	movzwl 0xf89c(%rip),%eax        # 1b200 <g_948>
    b964:	0f b7 c0             	movzwl %ax,%eax
    b967:	be 01 00 00 00       	mov    $0x1,%esi
    b96c:	89 c7                	mov    %eax,%edi
    b96e:	e8 8c b3 ff ff       	callq  6cff <safe_add_func_uint16_t_u_u>
    b973:	66 89 05 86 f8 00 00 	mov    %ax,0xf886(%rip)        # 1b200 <g_948>
    b97a:	0f b7 05 7f f8 00 00 	movzwl 0xf87f(%rip),%eax        # 1b200 <g_948>
    b981:	66 83 f8 0d          	cmp    $0xd,%ax
    b985:	0f 87 fd fe ff ff    	ja     b888 <func_17+0xc26>
    b98b:	48 8b 85 b8 f0 ff ff 	mov    -0xf48(%rbp),%rax
    b992:	66 c7 00 40 08       	movw   $0x840,(%rax)
    b997:	48 8b 95 98 ef ff ff 	mov    -0x1068(%rbp),%rdx
    b99e:	48 8b 85 c0 f0 ff ff 	mov    -0xf40(%rbp),%rax
    b9a5:	48 89 10             	mov    %rdx,(%rax)
    b9a8:	c7 85 74 ef ff ff 00 	movl   $0x0,-0x108c(%rbp)
    b9af:	00 00 00 
    b9b2:	8b 95 74 ef ff ff    	mov    -0x108c(%rbp),%edx
    b9b8:	8b 85 00 f3 ff ff    	mov    -0xd00(%rbp),%eax
    b9be:	31 d0                	xor    %edx,%eax
    b9c0:	89 85 00 f3 ff ff    	mov    %eax,-0xd00(%rbp)
    b9c6:	c6 85 21 ef ff ff ff 	movb   $0xff,-0x10df(%rbp)
    b9cd:	48 8b 1d 64 e9 00 00 	mov    0xe964(%rip),%rbx        # 1a338 <g_59+0x18>
    b9d4:	48 8b 05 2d eb 00 00 	mov    0xeb2d(%rip),%rax        # 1a508 <g_286>
    b9db:	44 0f bf e0          	movswl %ax,%r12d
    b9df:	66 0f be 85 0c ef ff 	movsbw -0x10f4(%rbp),%ax
    b9e6:	ff 
    b9e7:	0f b7 c0             	movzwl %ax,%eax
    b9ea:	be 05 00 00 00       	mov    $0x5,%esi
    b9ef:	89 c7                	mov    %eax,%edi
    b9f1:	e8 84 b4 ff ff       	callq  6e7a <safe_rshift_func_uint16_t_u_u>
    b9f6:	48 8b 85 28 f1 ff ff 	mov    -0xed8(%rbp),%rax
    b9fd:	48 89 85 28 f1 ff ff 	mov    %rax,-0xed8(%rbp)
    ba04:	8b 85 28 ef ff ff    	mov    -0x10d8(%rbp),%eax
    ba0a:	85 c0                	test   %eax,%eax
    ba0c:	75 08                	jne    ba16 <func_17+0xdb4>
    ba0e:	48 83 bd b0 f0 ff ff 	cmpq   $0x0,-0xf50(%rbp)
    ba15:	00 
    ba16:	90                   	nop
    ba17:	0f b6 85 21 ef ff ff 	movzbl -0x10df(%rbp),%eax
    ba1e:	89 c6                	mov    %eax,%esi
    ba20:	bf 36 ac ff ff       	mov    $0xffffac36,%edi
    ba25:	e8 cb a9 ff ff       	callq  63f5 <safe_mul_func_int16_t_s_s>
    ba2a:	48 0f bf d0          	movswq %ax,%rdx
    ba2e:	48 8b 85 a0 ef ff ff 	mov    -0x1060(%rbp),%rax
    ba35:	48 39 c2             	cmp    %rax,%rdx
    ba38:	0f 97 c0             	seta   %al
    ba3b:	0f b6 c0             	movzbl %al,%eax
    ba3e:	44 89 e6             	mov    %r12d,%esi
    ba41:	89 c7                	mov    %eax,%edi
    ba43:	e8 8b a9 ff ff       	callq  63d3 <safe_sub_func_int16_t_s_s>
    ba48:	48 8b 85 f8 ee ff ff 	mov    -0x1108(%rbp),%rax
    ba4f:	be 02 00 00 00       	mov    $0x2,%esi
    ba54:	48 89 c7             	mov    %rax,%rdi
    ba57:	e8 58 af ff ff       	callq  69b4 <safe_mod_func_int64_t_s_s>
    ba5c:	48 39 85 f8 ee ff ff 	cmp    %rax,-0x1108(%rbp)
    ba63:	0f 93 c0             	setae  %al
    ba66:	0f b6 c0             	movzbl %al,%eax
    ba69:	48 89 de             	mov    %rbx,%rsi
    ba6c:	48 89 c7             	mov    %rax,%rdi
    ba6f:	e8 34 ae ff ff       	callq  68a8 <safe_sub_func_int64_t_s_s>
    ba74:	0f b7 c0             	movzwl %ax,%eax
    ba77:	89 c6                	mov    %eax,%esi
    ba79:	bf f0 01 00 00       	mov    $0x1f0,%edi
    ba7e:	e8 d9 b2 ff ff       	callq  6d5c <safe_mod_func_uint16_t_u_u>
    ba83:	89 c2                	mov    %eax,%edx
    ba85:	48 8d 05 d4 0e 01 00 	lea    0x10ed4(%rip),%rax        # 1c960 <g_110>
    ba8c:	48 8b 00             	mov    (%rax),%rax
    ba8f:	0f b7 d2             	movzwl %dx,%edx
    ba92:	89 10                	mov    %edx,(%rax)
    ba94:	0f b7 05 55 ea 00 00 	movzwl 0xea55(%rip),%eax        # 1a4f0 <g_243>
    ba9b:	0f b7 c0             	movzwl %ax,%eax
    ba9e:	be 07 00 00 00       	mov    $0x7,%esi
    baa3:	48 89 c7             	mov    %rax,%rdi
    baa6:	e8 83 b5 ff ff       	callq  702e <safe_add_func_uint64_t_u_u>
    baab:	66 89 05 3e ea 00 00 	mov    %ax,0xea3e(%rip)        # 1a4f0 <g_243>
    bab2:	0f b7 05 37 ea 00 00 	movzwl 0xea37(%rip),%eax        # 1a4f0 <g_243>
    bab9:	66 83 f8 12          	cmp    $0x12,%ax
    babd:	0f 86 6d fd ff ff    	jbe    b830 <func_17+0xbce>
    bac3:	48 8d 05 36 26 01 00 	lea    0x12636(%rip),%rax        # 1e100 <g_372>
    baca:	e9 45 24 00 00       	jmpq   df14 <func_17+0x32b2>
    bacf:	48 8d 05 2a eb 00 00 	lea    0xeb2a(%rip),%rax        # 1a600 <g_688+0x20>
    bad6:	48 89 85 a8 f0 ff ff 	mov    %rax,-0xf58(%rbp)
    badd:	48 8b 85 d8 ef ff ff 	mov    -0x1028(%rbp),%rax
    bae4:	48 89 85 a8 f0 ff ff 	mov    %rax,-0xf58(%rbp)
    baeb:	48 8b 85 a8 f0 ff ff 	mov    -0xf58(%rbp),%rax
    baf2:	48 3b 85 d0 ef ff ff 	cmp    -0x1030(%rbp),%rax
    baf9:	0f 95 c0             	setne  %al
    bafc:	0f b6 c8             	movzbl %al,%ecx
    baff:	48 8b 05 5a 0e 01 00 	mov    0x10e5a(%rip),%rax        # 1c960 <g_110>
    bb06:	8b 10                	mov    (%rax),%edx
    bb08:	48 8b 05 51 0e 01 00 	mov    0x10e51(%rip),%rax        # 1c960 <g_110>
    bb0f:	21 ca                	and    %ecx,%edx
    bb11:	89 10                	mov    %edx,(%rax)
    bb13:	48 8d 05 46 0e 01 00 	lea    0x10e46(%rip),%rax        # 1c960 <g_110>
    bb1a:	e9 f5 23 00 00       	jmpq   df14 <func_17+0x32b2>
    bb1f:	66 c7 85 70 f3 ff ff 	movw   $0x2720,-0xc90(%rbp)
    bb26:	20 27 
    bb28:	66 c7 85 72 f3 ff ff 	movw   $0x2720,-0xc8e(%rbp)
    bb2f:	20 27 
    bb31:	66 c7 85 74 f3 ff ff 	movw   $0x2502,-0xc8c(%rbp)
    bb38:	02 25 
    bb3a:	66 c7 85 76 f3 ff ff 	movw   $0x2720,-0xc8a(%rbp)
    bb41:	20 27 
    bb43:	66 c7 85 78 f3 ff ff 	movw   $0x2720,-0xc88(%rbp)
    bb4a:	20 27 
    bb4c:	66 c7 85 7a f3 ff ff 	movw   $0x2502,-0xc86(%rbp)
    bb53:	02 25 
    bb55:	66 c7 85 7c f3 ff ff 	movw   $0x2720,-0xc84(%rbp)
    bb5c:	20 27 
    bb5e:	66 c7 85 7e f3 ff ff 	movw   $0x2720,-0xc82(%rbp)
    bb65:	20 27 
    bb67:	66 c7 85 80 f3 ff ff 	movw   $0x2502,-0xc80(%rbp)
    bb6e:	02 25 
    bb70:	66 c7 85 82 f3 ff ff 	movw   $0x2720,-0xc7e(%rbp)
    bb77:	20 27 
    bb79:	66 c7 85 84 f3 ff ff 	movw   $0x2720,-0xc7c(%rbp)
    bb80:	20 27 
    bb82:	66 c7 85 86 f3 ff ff 	movw   $0x2502,-0xc7a(%rbp)
    bb89:	02 25 
    bb8b:	66 c7 85 88 f3 ff ff 	movw   $0x2720,-0xc78(%rbp)
    bb92:	20 27 
    bb94:	66 c7 85 8a f3 ff ff 	movw   $0x2720,-0xc76(%rbp)
    bb9b:	20 27 
    bb9d:	66 c7 85 8c f3 ff ff 	movw   $0x2502,-0xc74(%rbp)
    bba4:	02 25 
    bba6:	66 c7 85 8e f3 ff ff 	movw   $0x2720,-0xc72(%rbp)
    bbad:	20 27 
    bbaf:	66 c7 85 90 f3 ff ff 	movw   $0x2720,-0xc70(%rbp)
    bbb6:	20 27 
    bbb8:	66 c7 85 92 f3 ff ff 	movw   $0x2502,-0xc6e(%rbp)
    bbbf:	02 25 
    bbc1:	c7 85 58 ef ff ff 57 	movl   $0xeecd0057,-0x10a8(%rbp)
    bbc8:	00 cd ee 
    bbcb:	48 8d 05 ce f6 00 00 	lea    0xf6ce(%rip),%rax        # 1b2a0 <g_1027>
    bbd2:	48 89 85 60 f0 ff ff 	mov    %rax,-0xfa0(%rbp)
    bbd9:	c7 85 5c ef ff ff 17 	movl   $0x18fcaf17,-0x10a4(%rbp)
    bbe0:	af fc 18 
    bbe3:	c7 85 38 ef ff ff 00 	movl   $0x0,-0x10c8(%rbp)
    bbea:	00 00 00 
    bbed:	eb 1a                	jmp    bc09 <func_17+0xfa7>
    bbef:	8b 85 38 ef ff ff    	mov    -0x10c8(%rbp),%eax
    bbf5:	48 98                	cltq   
    bbf7:	c7 84 85 e0 f0 ff ff 	movl   $0xfffffff6,-0xf20(%rbp,%rax,4)
    bbfe:	f6 ff ff ff 
    bc02:	83 85 38 ef ff ff 01 	addl   $0x1,-0x10c8(%rbp)
    bc09:	83 bd 38 ef ff ff 04 	cmpl   $0x4,-0x10c8(%rbp)
    bc10:	7e dd                	jle    bbef <func_17+0xf8d>
    bc12:	c7 85 38 ef ff ff 00 	movl   $0x0,-0x10c8(%rbp)
    bc19:	00 00 00 
    bc1c:	eb 1a                	jmp    bc38 <func_17+0xfd6>
    bc1e:	8b 85 38 ef ff ff    	mov    -0x10c8(%rbp),%eax
    bc24:	48 98                	cltq   
    bc26:	c7 84 85 d4 f0 ff ff 	movl   $0x0,-0xf2c(%rbp,%rax,4)
    bc2d:	00 00 00 00 
    bc31:	83 85 38 ef ff ff 01 	addl   $0x1,-0x10c8(%rbp)
    bc38:	83 bd 38 ef ff ff 00 	cmpl   $0x0,-0x10c8(%rbp)
    bc3f:	7e dd                	jle    bc1e <func_17+0xfbc>
    bc41:	0f b7 85 0e ef ff ff 	movzwl -0x10f2(%rbp),%eax
    bc48:	0f b7 c0             	movzwl %ax,%eax
    bc4b:	48 8d 15 7e f7 00 00 	lea    0xf77e(%rip),%rdx        # 1b3d0 <g_1076>
    bc52:	48 39 95 e0 ef ff ff 	cmp    %rdx,-0x1020(%rbp)
    bc59:	0f 94 c2             	sete   %dl
    bc5c:	0f b6 d2             	movzbl %dl,%edx
    bc5f:	f7 d2                	not    %edx
    bc61:	21 d0                	and    %edx,%eax
    bc63:	48 63 c8             	movslq %eax,%rcx
    bc66:	48 8b 95 f8 ee ff ff 	mov    -0x1108(%rbp),%rdx
    bc6d:	48 8b 85 d8 ef ff ff 	mov    -0x1028(%rbp),%rax
    bc74:	48 89 10             	mov    %rdx,(%rax)
    bc77:	48 8b 85 d8 ef ff ff 	mov    -0x1028(%rbp),%rax
    bc7e:	48 8b 00             	mov    (%rax),%rax
    bc81:	48 f7 d0             	not    %rax
    bc84:	48 39 c1             	cmp    %rax,%rcx
    bc87:	75 64                	jne    bced <func_17+0x108b>
    bc89:	c7 05 19 f6 00 00 00 	movl   $0x0,0xf619(%rip)        # 1b2ac <g_1027+0xc>
    bc90:	00 00 00 
    bc93:	90                   	nop
    bc94:	8b 05 12 f6 00 00    	mov    0xf612(%rip),%eax        # 1b2ac <g_1027+0xc>
    bc9a:	83 f8 ff             	cmp    $0xffffffff,%eax
    bc9d:	7c 0c                	jl     bcab <func_17+0x1049>
    bc9f:	48 8b 85 c8 ef ff ff 	mov    -0x1038(%rbp),%rax
    bca6:	e9 69 22 00 00       	jmpq   df14 <func_17+0x32b2>
    bcab:	66 c7 05 3c e8 00 00 	movw   $0x0,0xe83c(%rip)        # 1a4f0 <g_243>
    bcb2:	00 00 
    bcb4:	eb 25                	jmp    bcdb <func_17+0x1079>
    bcb6:	48 8b 85 00 ef ff ff 	mov    -0x1100(%rbp),%rax
    bcbd:	48 8b 00             	mov    (%rax),%rax
    bcc0:	8b 00                	mov    (%rax),%eax
    bcc2:	85 c0                	test   %eax,%eax
    bcc4:	0f 85 46 1d 00 00    	jne    da10 <func_17+0x2dae>
    bcca:	0f b7 05 1f e8 00 00 	movzwl 0xe81f(%rip),%eax        # 1a4f0 <g_243>
    bcd1:	83 c0 01             	add    $0x1,%eax
    bcd4:	66 89 05 15 e8 00 00 	mov    %ax,0xe815(%rip)        # 1a4f0 <g_243>
    bcdb:	0f b7 05 0e e8 00 00 	movzwl 0xe80e(%rip),%eax        # 1a4f0 <g_243>
    bce2:	66 83 f8 01          	cmp    $0x1,%ax
    bce6:	76 ce                	jbe    bcb6 <func_17+0x1054>
    bce8:	e9 24 1d 00 00       	jmpq   da11 <func_17+0x2daf>
    bced:	c7 85 60 ef ff ff 47 	movl   $0x4e3ef847,-0x10a0(%rbp)
    bcf4:	f8 3e 4e 
    bcf7:	c7 85 64 ef ff ff 02 	movl   $0x2,-0x109c(%rbp)
    bcfe:	00 00 00 
    bd01:	c7 85 68 ef ff ff 02 	movl   $0x2,-0x1098(%rbp)
    bd08:	00 00 00 
    bd0b:	c7 85 6c ef ff ff d5 	movl   $0x3c0f31d5,-0x1094(%rbp)
    bd12:	31 0f 3c 
    bd15:	c7 85 e0 f2 ff ff ff 	movl   $0xffffffff,-0xd20(%rbp)
    bd1c:	ff ff ff 
    bd1f:	c7 85 e4 f2 ff ff ff 	movl   $0xffffffff,-0xd1c(%rbp)
    bd26:	ff ff ff 
    bd29:	c7 85 e8 f2 ff ff ff 	movl   $0xffffffff,-0xd18(%rbp)
    bd30:	ff ff ff 
    bd33:	c7 85 ec f2 ff ff ff 	movl   $0xffffffff,-0xd14(%rbp)
    bd3a:	ff ff ff 
    bd3d:	c7 85 f0 f2 ff ff ff 	movl   $0xffffffff,-0xd10(%rbp)
    bd44:	ff ff ff 
    bd47:	c7 85 f4 f2 ff ff ff 	movl   $0xffffffff,-0xd0c(%rbp)
    bd4e:	ff ff ff 
    bd51:	c7 85 f8 f2 ff ff ff 	movl   $0xffffffff,-0xd08(%rbp)
    bd58:	ff ff ff 
    bd5b:	c7 85 fc f2 ff ff ff 	movl   $0xffffffff,-0xd04(%rbp)
    bd62:	ff ff ff 
    bd65:	c6 85 1d ef ff ff a8 	movb   $0xa8,-0x10e3(%rbp)
    bd6c:	66 c7 85 22 ef ff ff 	movw   $0xfffa,-0x10de(%rbp)
    bd73:	fa ff 
    bd75:	48 8d 85 80 ef ff ff 	lea    -0x1080(%rbp),%rax
    bd7c:	48 89 85 68 f0 ff ff 	mov    %rax,-0xf98(%rbp)
    bd83:	c7 85 44 ef ff ff 00 	movl   $0x0,-0x10bc(%rbp)
    bd8a:	00 00 00 
    bd8d:	eb 1b                	jmp    bdaa <func_17+0x1148>
    bd8f:	8b 85 44 ef ff ff    	mov    -0x10bc(%rbp),%eax
    bd95:	48 98                	cltq   
    bd97:	48 c7 84 c5 80 f1 ff 	movq   $0x0,-0xe80(%rbp,%rax,8)
    bd9e:	ff 00 00 00 00 
    bda3:	83 85 44 ef ff ff 01 	addl   $0x1,-0x10bc(%rbp)
    bdaa:	83 bd 44 ef ff ff 02 	cmpl   $0x2,-0x10bc(%rbp)
    bdb1:	7e dc                	jle    bd8f <func_17+0x112d>
    bdb3:	66 c7 05 ce e6 00 00 	movw   $0x0,0xe6ce(%rip)        # 1a48a <g_129>
    bdba:	00 00 
    bdbc:	e9 87 0e 00 00       	jmpq   cc48 <func_17+0x1fe6>
    bdc1:	c7 85 b0 ef ff ff fa 	movl   $0xfffffffa,-0x1050(%rbp)
    bdc8:	ff ff ff 
    bdcb:	48 8d 05 22 e3 00 00 	lea    0xe322(%rip),%rax        # 1a0f4 <g_4+0xb4>
    bdd2:	48 89 85 80 f0 ff ff 	mov    %rax,-0xf80(%rbp)
    bdd9:	0f b7 05 aa e6 00 00 	movzwl 0xe6aa(%rip),%eax        # 1a48a <g_129>
    bde0:	98                   	cwtl   
    bde1:	8d 50 01             	lea    0x1(%rax),%edx
    bde4:	0f b7 05 9f e6 00 00 	movzwl 0xe69f(%rip),%eax        # 1a48a <g_129>
    bdeb:	98                   	cwtl   
    bdec:	83 c0 05             	add    $0x5,%eax
    bdef:	48 63 c8             	movslq %eax,%rcx
    bdf2:	48 63 d2             	movslq %edx,%rdx
    bdf5:	48 89 d0             	mov    %rdx,%rax
    bdf8:	48 c1 e0 02          	shl    $0x2,%rax
    bdfc:	48 01 d0             	add    %rdx,%rax
    bdff:	48 01 c0             	add    %rax,%rax
    be02:	48 01 c8             	add    %rcx,%rax
    be05:	48 8d 14 85 00 00 00 	lea    0x0(,%rax,4),%rdx
    be0c:	00 
    be0d:	48 8d 05 2c e2 00 00 	lea    0xe22c(%rip),%rax        # 1a040 <g_4>
    be14:	48 01 d0             	add    %rdx,%rax
    be17:	48 89 85 88 f0 ff ff 	mov    %rax,-0xf78(%rbp)
    be1e:	48 8d 85 28 ef ff ff 	lea    -0x10d8(%rbp),%rax
    be25:	48 89 85 90 f0 ff ff 	mov    %rax,-0xf70(%rbp)
    be2c:	0f b7 05 57 e6 00 00 	movzwl 0xe657(%rip),%eax        # 1a48a <g_129>
    be33:	98                   	cwtl   
    be34:	8d 50 01             	lea    0x1(%rax),%edx
    be37:	0f b7 05 4c e6 00 00 	movzwl 0xe64c(%rip),%eax        # 1a48a <g_129>
    be3e:	98                   	cwtl   
    be3f:	83 c0 05             	add    $0x5,%eax
    be42:	48 63 c8             	movslq %eax,%rcx
    be45:	48 63 d2             	movslq %edx,%rdx
    be48:	48 89 d0             	mov    %rdx,%rax
    be4b:	48 c1 e0 02          	shl    $0x2,%rax
    be4f:	48 01 d0             	add    %rdx,%rax
    be52:	48 01 c0             	add    %rax,%rax
    be55:	48 01 c8             	add    %rcx,%rax
    be58:	48 8d 14 85 00 00 00 	lea    0x0(,%rax,4),%rdx
    be5f:	00 
    be60:	48 8d 05 d9 e1 00 00 	lea    0xe1d9(%rip),%rax        # 1a040 <g_4>
    be67:	48 01 d0             	add    %rdx,%rax
    be6a:	48 89 85 98 f0 ff ff 	mov    %rax,-0xf68(%rbp)
    be71:	48 c7 85 e0 f7 ff ff 	movq   $0x0,-0x820(%rbp)
    be78:	00 00 00 00 
    be7c:	48 8d 85 30 ef ff ff 	lea    -0x10d0(%rbp),%rax
    be83:	48 89 85 e8 f7 ff ff 	mov    %rax,-0x818(%rbp)
    be8a:	48 8d 05 63 e2 00 00 	lea    0xe263(%rip),%rax        # 1a0f4 <g_4+0xb4>
    be91:	48 89 85 f0 f7 ff ff 	mov    %rax,-0x810(%rbp)
    be98:	48 8d 85 2c ef ff ff 	lea    -0x10d4(%rbp),%rax
    be9f:	48 89 85 f8 f7 ff ff 	mov    %rax,-0x808(%rbp)
    bea6:	48 c7 85 00 f8 ff ff 	movq   $0x0,-0x800(%rbp)
    bead:	00 00 00 00 
    beb1:	48 8d 05 14 e7 00 00 	lea    0xe714(%rip),%rax        # 1a5cc <g_535>
    beb8:	48 89 85 08 f8 ff ff 	mov    %rax,-0x7f8(%rbp)
    bebf:	48 8d 05 2e e2 00 00 	lea    0xe22e(%rip),%rax        # 1a0f4 <g_4+0xb4>
    bec6:	48 89 85 10 f8 ff ff 	mov    %rax,-0x7f0(%rbp)
    becd:	48 8d 05 f8 e6 00 00 	lea    0xe6f8(%rip),%rax        # 1a5cc <g_535>
    bed4:	48 89 85 18 f8 ff ff 	mov    %rax,-0x7e8(%rbp)
    bedb:	48 c7 85 20 f8 ff ff 	movq   $0x0,-0x7e0(%rbp)
    bee2:	00 00 00 00 
    bee6:	0f b7 05 9d e5 00 00 	movzwl 0xe59d(%rip),%eax        # 1a48a <g_129>
    beed:	98                   	cwtl   
    beee:	8d 50 01             	lea    0x1(%rax),%edx
    bef1:	0f b7 05 92 e5 00 00 	movzwl 0xe592(%rip),%eax        # 1a48a <g_129>
    bef8:	98                   	cwtl   
    bef9:	83 c0 05             	add    $0x5,%eax
    befc:	48 63 c8             	movslq %eax,%rcx
    beff:	48 63 d2             	movslq %edx,%rdx
    bf02:	48 89 d0             	mov    %rdx,%rax
    bf05:	48 c1 e0 02          	shl    $0x2,%rax
    bf09:	48 01 d0             	add    %rdx,%rax
    bf0c:	48 01 c0             	add    %rax,%rax
    bf0f:	48 01 c8             	add    %rcx,%rax
    bf12:	48 8d 14 85 00 00 00 	lea    0x0(,%rax,4),%rdx
    bf19:	00 
    bf1a:	48 8d 05 1f e1 00 00 	lea    0xe11f(%rip),%rax        # 1a040 <g_4>
    bf21:	48 01 d0             	add    %rdx,%rax
    bf24:	48 89 85 28 f8 ff ff 	mov    %rax,-0x7d8(%rbp)
    bf2b:	48 8d 85 b0 ef ff ff 	lea    -0x1050(%rbp),%rax
    bf32:	48 89 85 30 f8 ff ff 	mov    %rax,-0x7d0(%rbp)
    bf39:	48 8d 05 70 e1 00 00 	lea    0xe170(%rip),%rax        # 1a0b0 <g_4+0x70>
    bf40:	48 89 85 38 f8 ff ff 	mov    %rax,-0x7c8(%rbp)
    bf47:	48 8d 05 a6 e1 00 00 	lea    0xe1a6(%rip),%rax        # 1a0f4 <g_4+0xb4>
    bf4e:	48 89 85 40 f8 ff ff 	mov    %rax,-0x7c0(%rbp)
    bf55:	48 c7 85 48 f8 ff ff 	movq   $0x0,-0x7b8(%rbp)
    bf5c:	00 00 00 00 
    bf60:	48 8d 05 65 e6 00 00 	lea    0xe665(%rip),%rax        # 1a5cc <g_535>
    bf67:	48 89 85 50 f8 ff ff 	mov    %rax,-0x7b0(%rbp)
    bf6e:	48 8d 85 2c ef ff ff 	lea    -0x10d4(%rbp),%rax
    bf75:	48 89 85 58 f8 ff ff 	mov    %rax,-0x7a8(%rbp)
    bf7c:	48 8d 05 69 e1 00 00 	lea    0xe169(%rip),%rax        # 1a0ec <g_4+0xac>
    bf83:	48 89 85 60 f8 ff ff 	mov    %rax,-0x7a0(%rbp)
    bf8a:	48 c7 85 68 f8 ff ff 	movq   $0x0,-0x798(%rbp)
    bf91:	00 00 00 00 
    bf95:	48 c7 85 70 f8 ff ff 	movq   $0x0,-0x790(%rbp)
    bf9c:	00 00 00 00 
    bfa0:	48 c7 85 78 f8 ff ff 	movq   $0x0,-0x788(%rbp)
    bfa7:	00 00 00 00 
    bfab:	48 c7 85 80 f8 ff ff 	movq   $0x0,-0x780(%rbp)
    bfb2:	00 00 00 00 
    bfb6:	48 8d 05 0f e6 00 00 	lea    0xe60f(%rip),%rax        # 1a5cc <g_535>
    bfbd:	48 89 85 88 f8 ff ff 	mov    %rax,-0x778(%rbp)
    bfc4:	48 8d 85 b0 ef ff ff 	lea    -0x1050(%rbp),%rax
    bfcb:	48 89 85 90 f8 ff ff 	mov    %rax,-0x770(%rbp)
    bfd2:	48 8d 85 30 ef ff ff 	lea    -0x10d0(%rbp),%rax
    bfd9:	48 89 85 98 f8 ff ff 	mov    %rax,-0x768(%rbp)
    bfe0:	48 8d 05 e5 e5 00 00 	lea    0xe5e5(%rip),%rax        # 1a5cc <g_535>
    bfe7:	48 89 85 a0 f8 ff ff 	mov    %rax,-0x760(%rbp)
    bfee:	48 8d 05 d7 e5 00 00 	lea    0xe5d7(%rip),%rax        # 1a5cc <g_535>
    bff5:	48 89 85 a8 f8 ff ff 	mov    %rax,-0x758(%rbp)
    bffc:	48 c7 85 b0 f8 ff ff 	movq   $0x0,-0x750(%rbp)
    c003:	00 00 00 00 
    c007:	48 8d 85 30 ef ff ff 	lea    -0x10d0(%rbp),%rax
    c00e:	48 89 85 b8 f8 ff ff 	mov    %rax,-0x748(%rbp)
    c015:	48 c7 85 c0 f8 ff ff 	movq   $0x0,-0x740(%rbp)
    c01c:	00 00 00 00 
    c020:	48 c7 85 c8 f8 ff ff 	movq   $0x0,-0x738(%rbp)
    c027:	00 00 00 00 
    c02b:	48 8d 85 30 ef ff ff 	lea    -0x10d0(%rbp),%rax
    c032:	48 89 85 d0 f8 ff ff 	mov    %rax,-0x730(%rbp)
    c039:	48 8d 85 30 ef ff ff 	lea    -0x10d0(%rbp),%rax
    c040:	48 89 85 d8 f8 ff ff 	mov    %rax,-0x728(%rbp)
    c047:	48 8d 05 7e e5 00 00 	lea    0xe57e(%rip),%rax        # 1a5cc <g_535>
    c04e:	48 89 85 e0 f8 ff ff 	mov    %rax,-0x720(%rbp)
    c055:	48 8d 85 30 ef ff ff 	lea    -0x10d0(%rbp),%rax
    c05c:	48 89 85 e8 f8 ff ff 	mov    %rax,-0x718(%rbp)
    c063:	48 8d 05 62 e5 00 00 	lea    0xe562(%rip),%rax        # 1a5cc <g_535>
    c06a:	48 89 85 f0 f8 ff ff 	mov    %rax,-0x710(%rbp)
    c071:	48 8d 05 38 e0 00 00 	lea    0xe038(%rip),%rax        # 1a0b0 <g_4+0x70>
    c078:	48 89 85 f8 f8 ff ff 	mov    %rax,-0x708(%rbp)
    c07f:	48 8d 05 46 e5 00 00 	lea    0xe546(%rip),%rax        # 1a5cc <g_535>
    c086:	48 89 85 00 f9 ff ff 	mov    %rax,-0x700(%rbp)
    c08d:	48 8d 85 2c ef ff ff 	lea    -0x10d4(%rbp),%rax
    c094:	48 89 85 08 f9 ff ff 	mov    %rax,-0x6f8(%rbp)
    c09b:	48 c7 85 10 f9 ff ff 	movq   $0x0,-0x6f0(%rbp)
    c0a2:	00 00 00 00 
    c0a6:	48 8d 05 1f e5 00 00 	lea    0xe51f(%rip),%rax        # 1a5cc <g_535>
    c0ad:	48 89 85 18 f9 ff ff 	mov    %rax,-0x6e8(%rbp)
    c0b4:	48 8d 05 11 e5 00 00 	lea    0xe511(%rip),%rax        # 1a5cc <g_535>
    c0bb:	48 89 85 20 f9 ff ff 	mov    %rax,-0x6e0(%rbp)
    c0c2:	48 8d 05 03 e5 00 00 	lea    0xe503(%rip),%rax        # 1a5cc <g_535>
    c0c9:	48 89 85 28 f9 ff ff 	mov    %rax,-0x6d8(%rbp)
    c0d0:	48 c7 85 30 f9 ff ff 	movq   $0x0,-0x6d0(%rbp)
    c0d7:	00 00 00 00 
    c0db:	48 8d 85 30 ef ff ff 	lea    -0x10d0(%rbp),%rax
    c0e2:	48 89 85 38 f9 ff ff 	mov    %rax,-0x6c8(%rbp)
    c0e9:	48 8d 05 04 e0 00 00 	lea    0xe004(%rip),%rax        # 1a0f4 <g_4+0xb4>
    c0f0:	48 89 85 40 f9 ff ff 	mov    %rax,-0x6c0(%rbp)
    c0f7:	48 8d 85 2c ef ff ff 	lea    -0x10d4(%rbp),%rax
    c0fe:	48 89 85 48 f9 ff ff 	mov    %rax,-0x6b8(%rbp)
    c105:	48 c7 85 50 f9 ff ff 	movq   $0x0,-0x6b0(%rbp)
    c10c:	00 00 00 00 
    c110:	48 8d 05 b5 e4 00 00 	lea    0xe4b5(%rip),%rax        # 1a5cc <g_535>
    c117:	48 89 85 58 f9 ff ff 	mov    %rax,-0x6a8(%rbp)
    c11e:	48 8d 05 cf df 00 00 	lea    0xdfcf(%rip),%rax        # 1a0f4 <g_4+0xb4>
    c125:	48 89 85 60 f9 ff ff 	mov    %rax,-0x6a0(%rbp)
    c12c:	48 8d 05 99 e4 00 00 	lea    0xe499(%rip),%rax        # 1a5cc <g_535>
    c133:	48 89 85 68 f9 ff ff 	mov    %rax,-0x698(%rbp)
    c13a:	48 c7 85 70 f9 ff ff 	movq   $0x0,-0x690(%rbp)
    c141:	00 00 00 00 
    c145:	0f b7 05 3e e3 00 00 	movzwl 0xe33e(%rip),%eax        # 1a48a <g_129>
    c14c:	98                   	cwtl   
    c14d:	8d 50 01             	lea    0x1(%rax),%edx
    c150:	0f b7 05 33 e3 00 00 	movzwl 0xe333(%rip),%eax        # 1a48a <g_129>
    c157:	98                   	cwtl   
    c158:	83 c0 05             	add    $0x5,%eax
    c15b:	48 63 c8             	movslq %eax,%rcx
    c15e:	48 63 d2             	movslq %edx,%rdx
    c161:	48 89 d0             	mov    %rdx,%rax
    c164:	48 c1 e0 02          	shl    $0x2,%rax
    c168:	48 01 d0             	add    %rdx,%rax
    c16b:	48 01 c0             	add    %rax,%rax
    c16e:	48 01 c8             	add    %rcx,%rax
    c171:	48 8d 14 85 00 00 00 	lea    0x0(,%rax,4),%rdx
    c178:	00 
    c179:	48 8d 05 c0 de 00 00 	lea    0xdec0(%rip),%rax        # 1a040 <g_4>
    c180:	48 01 d0             	add    %rdx,%rax
    c183:	48 89 85 78 f9 ff ff 	mov    %rax,-0x688(%rbp)
    c18a:	48 8d 85 b0 ef ff ff 	lea    -0x1050(%rbp),%rax
    c191:	48 89 85 80 f9 ff ff 	mov    %rax,-0x680(%rbp)
    c198:	48 8d 05 11 df 00 00 	lea    0xdf11(%rip),%rax        # 1a0b0 <g_4+0x70>
    c19f:	48 89 85 88 f9 ff ff 	mov    %rax,-0x678(%rbp)
    c1a6:	48 8d 05 47 df 00 00 	lea    0xdf47(%rip),%rax        # 1a0f4 <g_4+0xb4>
    c1ad:	48 89 85 90 f9 ff ff 	mov    %rax,-0x670(%rbp)
    c1b4:	48 c7 85 98 f9 ff ff 	movq   $0x0,-0x668(%rbp)
    c1bb:	00 00 00 00 
    c1bf:	48 8d 05 06 e4 00 00 	lea    0xe406(%rip),%rax        # 1a5cc <g_535>
    c1c6:	48 89 85 a0 f9 ff ff 	mov    %rax,-0x660(%rbp)
    c1cd:	48 8d 85 2c ef ff ff 	lea    -0x10d4(%rbp),%rax
    c1d4:	48 89 85 a8 f9 ff ff 	mov    %rax,-0x658(%rbp)
    c1db:	48 8d 05 0a df 00 00 	lea    0xdf0a(%rip),%rax        # 1a0ec <g_4+0xac>
    c1e2:	48 89 85 b0 f9 ff ff 	mov    %rax,-0x650(%rbp)
    c1e9:	48 c7 85 b8 f9 ff ff 	movq   $0x0,-0x648(%rbp)
    c1f0:	00 00 00 00 
    c1f4:	48 c7 85 c0 f9 ff ff 	movq   $0x0,-0x640(%rbp)
    c1fb:	00 00 00 00 
    c1ff:	48 c7 85 c8 f9 ff ff 	movq   $0x0,-0x638(%rbp)
    c206:	00 00 00 00 
    c20a:	48 c7 85 d0 f9 ff ff 	movq   $0x0,-0x630(%rbp)
    c211:	00 00 00 00 
    c215:	48 8d 05 b0 e3 00 00 	lea    0xe3b0(%rip),%rax        # 1a5cc <g_535>
    c21c:	48 89 85 d8 f9 ff ff 	mov    %rax,-0x628(%rbp)
    c223:	48 8d 85 b0 ef ff ff 	lea    -0x1050(%rbp),%rax
    c22a:	48 89 85 e0 f9 ff ff 	mov    %rax,-0x620(%rbp)
    c231:	48 8d 85 30 ef ff ff 	lea    -0x10d0(%rbp),%rax
    c238:	48 89 85 e8 f9 ff ff 	mov    %rax,-0x618(%rbp)
    c23f:	48 8d 05 86 e3 00 00 	lea    0xe386(%rip),%rax        # 1a5cc <g_535>
    c246:	48 89 85 f0 f9 ff ff 	mov    %rax,-0x610(%rbp)
    c24d:	48 8d 05 78 e3 00 00 	lea    0xe378(%rip),%rax        # 1a5cc <g_535>
    c254:	48 89 85 f8 f9 ff ff 	mov    %rax,-0x608(%rbp)
    c25b:	48 c7 85 00 fa ff ff 	movq   $0x0,-0x600(%rbp)
    c262:	00 00 00 00 
    c266:	48 8d 85 30 ef ff ff 	lea    -0x10d0(%rbp),%rax
    c26d:	48 89 85 08 fa ff ff 	mov    %rax,-0x5f8(%rbp)
    c274:	48 c7 85 10 fa ff ff 	movq   $0x0,-0x5f0(%rbp)
    c27b:	00 00 00 00 
    c27f:	48 c7 85 18 fa ff ff 	movq   $0x0,-0x5e8(%rbp)
    c286:	00 00 00 00 
    c28a:	48 8d 85 30 ef ff ff 	lea    -0x10d0(%rbp),%rax
    c291:	48 89 85 20 fa ff ff 	mov    %rax,-0x5e0(%rbp)
    c298:	48 8d 85 30 ef ff ff 	lea    -0x10d0(%rbp),%rax
    c29f:	48 89 85 28 fa ff ff 	mov    %rax,-0x5d8(%rbp)
    c2a6:	48 8d 05 1f e3 00 00 	lea    0xe31f(%rip),%rax        # 1a5cc <g_535>
    c2ad:	48 89 85 30 fa ff ff 	mov    %rax,-0x5d0(%rbp)
    c2b4:	48 8d 85 30 ef ff ff 	lea    -0x10d0(%rbp),%rax
    c2bb:	48 89 85 38 fa ff ff 	mov    %rax,-0x5c8(%rbp)
    c2c2:	48 8d 05 03 e3 00 00 	lea    0xe303(%rip),%rax        # 1a5cc <g_535>
    c2c9:	48 89 85 40 fa ff ff 	mov    %rax,-0x5c0(%rbp)
    c2d0:	48 8d 05 d9 dd 00 00 	lea    0xddd9(%rip),%rax        # 1a0b0 <g_4+0x70>
    c2d7:	48 89 85 48 fa ff ff 	mov    %rax,-0x5b8(%rbp)
    c2de:	48 8d 05 e7 e2 00 00 	lea    0xe2e7(%rip),%rax        # 1a5cc <g_535>
    c2e5:	48 89 85 50 fa ff ff 	mov    %rax,-0x5b0(%rbp)
    c2ec:	48 8d 85 2c ef ff ff 	lea    -0x10d4(%rbp),%rax
    c2f3:	48 89 85 58 fa ff ff 	mov    %rax,-0x5a8(%rbp)
    c2fa:	48 c7 85 60 fa ff ff 	movq   $0x0,-0x5a0(%rbp)
    c301:	00 00 00 00 
    c305:	48 8d 05 c0 e2 00 00 	lea    0xe2c0(%rip),%rax        # 1a5cc <g_535>
    c30c:	48 89 85 68 fa ff ff 	mov    %rax,-0x598(%rbp)
    c313:	48 8d 05 b2 e2 00 00 	lea    0xe2b2(%rip),%rax        # 1a5cc <g_535>
    c31a:	48 89 85 70 fa ff ff 	mov    %rax,-0x590(%rbp)
    c321:	48 8d 05 a4 e2 00 00 	lea    0xe2a4(%rip),%rax        # 1a5cc <g_535>
    c328:	48 89 85 78 fa ff ff 	mov    %rax,-0x588(%rbp)
    c32f:	48 c7 85 80 fa ff ff 	movq   $0x0,-0x580(%rbp)
    c336:	00 00 00 00 
    c33a:	48 8d 85 30 ef ff ff 	lea    -0x10d0(%rbp),%rax
    c341:	48 89 85 88 fa ff ff 	mov    %rax,-0x578(%rbp)
    c348:	48 8d 05 a5 dd 00 00 	lea    0xdda5(%rip),%rax        # 1a0f4 <g_4+0xb4>
    c34f:	48 89 85 90 fa ff ff 	mov    %rax,-0x570(%rbp)
    c356:	48 8d 85 2c ef ff ff 	lea    -0x10d4(%rbp),%rax
    c35d:	48 89 85 98 fa ff ff 	mov    %rax,-0x568(%rbp)
    c364:	48 c7 85 a0 fa ff ff 	movq   $0x0,-0x560(%rbp)
    c36b:	00 00 00 00 
    c36f:	48 8d 05 56 e2 00 00 	lea    0xe256(%rip),%rax        # 1a5cc <g_535>
    c376:	48 89 85 a8 fa ff ff 	mov    %rax,-0x558(%rbp)
    c37d:	48 8d 05 70 dd 00 00 	lea    0xdd70(%rip),%rax        # 1a0f4 <g_4+0xb4>
    c384:	48 89 85 b0 fa ff ff 	mov    %rax,-0x550(%rbp)
    c38b:	48 8d 05 3a e2 00 00 	lea    0xe23a(%rip),%rax        # 1a5cc <g_535>
    c392:	48 89 85 b8 fa ff ff 	mov    %rax,-0x548(%rbp)
    c399:	48 c7 85 c0 fa ff ff 	movq   $0x0,-0x540(%rbp)
    c3a0:	00 00 00 00 
    c3a4:	0f b7 05 df e0 00 00 	movzwl 0xe0df(%rip),%eax        # 1a48a <g_129>
    c3ab:	98                   	cwtl   
    c3ac:	8d 50 01             	lea    0x1(%rax),%edx
    c3af:	0f b7 05 d4 e0 00 00 	movzwl 0xe0d4(%rip),%eax        # 1a48a <g_129>
    c3b6:	98                   	cwtl   
    c3b7:	83 c0 05             	add    $0x5,%eax
    c3ba:	48 63 c8             	movslq %eax,%rcx
    c3bd:	48 63 d2             	movslq %edx,%rdx
    c3c0:	48 89 d0             	mov    %rdx,%rax
    c3c3:	48 c1 e0 02          	shl    $0x2,%rax
    c3c7:	48 01 d0             	add    %rdx,%rax
    c3ca:	48 01 c0             	add    %rax,%rax
    c3cd:	48 01 c8             	add    %rcx,%rax
    c3d0:	48 8d 14 85 00 00 00 	lea    0x0(,%rax,4),%rdx
    c3d7:	00 
    c3d8:	48 8d 05 61 dc 00 00 	lea    0xdc61(%rip),%rax        # 1a040 <g_4>
    c3df:	48 01 d0             	add    %rdx,%rax
    c3e2:	48 89 85 c8 fa ff ff 	mov    %rax,-0x538(%rbp)
    c3e9:	48 8d 85 b0 ef ff ff 	lea    -0x1050(%rbp),%rax
    c3f0:	48 89 85 d0 fa ff ff 	mov    %rax,-0x530(%rbp)
    c3f7:	48 8d 05 b2 dc 00 00 	lea    0xdcb2(%rip),%rax        # 1a0b0 <g_4+0x70>
    c3fe:	48 89 85 d8 fa ff ff 	mov    %rax,-0x528(%rbp)
    c405:	48 8d 05 e8 dc 00 00 	lea    0xdce8(%rip),%rax        # 1a0f4 <g_4+0xb4>
    c40c:	48 89 85 e0 fa ff ff 	mov    %rax,-0x520(%rbp)
    c413:	48 c7 85 e8 fa ff ff 	movq   $0x0,-0x518(%rbp)
    c41a:	00 00 00 00 
    c41e:	48 8d 05 a7 e1 00 00 	lea    0xe1a7(%rip),%rax        # 1a5cc <g_535>
    c425:	48 89 85 f0 fa ff ff 	mov    %rax,-0x510(%rbp)
    c42c:	48 8d 85 2c ef ff ff 	lea    -0x10d4(%rbp),%rax
    c433:	48 89 85 f8 fa ff ff 	mov    %rax,-0x508(%rbp)
    c43a:	48 8d 05 ab dc 00 00 	lea    0xdcab(%rip),%rax        # 1a0ec <g_4+0xac>
    c441:	48 89 85 00 fb ff ff 	mov    %rax,-0x500(%rbp)
    c448:	48 c7 85 08 fb ff ff 	movq   $0x0,-0x4f8(%rbp)
    c44f:	00 00 00 00 
    c453:	48 c7 85 10 fb ff ff 	movq   $0x0,-0x4f0(%rbp)
    c45a:	00 00 00 00 
    c45e:	48 c7 85 18 fb ff ff 	movq   $0x0,-0x4e8(%rbp)
    c465:	00 00 00 00 
    c469:	48 c7 85 20 fb ff ff 	movq   $0x0,-0x4e0(%rbp)
    c470:	00 00 00 00 
    c474:	48 8d 05 51 e1 00 00 	lea    0xe151(%rip),%rax        # 1a5cc <g_535>
    c47b:	48 89 85 28 fb ff ff 	mov    %rax,-0x4d8(%rbp)
    c482:	48 8d 85 b0 ef ff ff 	lea    -0x1050(%rbp),%rax
    c489:	48 89 85 30 fb ff ff 	mov    %rax,-0x4d0(%rbp)
    c490:	48 8d 85 30 ef ff ff 	lea    -0x10d0(%rbp),%rax
    c497:	48 89 85 38 fb ff ff 	mov    %rax,-0x4c8(%rbp)
    c49e:	48 8d 05 27 e1 00 00 	lea    0xe127(%rip),%rax        # 1a5cc <g_535>
    c4a5:	48 89 85 40 fb ff ff 	mov    %rax,-0x4c0(%rbp)
    c4ac:	48 8d 05 19 e1 00 00 	lea    0xe119(%rip),%rax        # 1a5cc <g_535>
    c4b3:	48 89 85 48 fb ff ff 	mov    %rax,-0x4b8(%rbp)
    c4ba:	48 c7 85 50 fb ff ff 	movq   $0x0,-0x4b0(%rbp)
    c4c1:	00 00 00 00 
    c4c5:	48 8d 85 30 ef ff ff 	lea    -0x10d0(%rbp),%rax
    c4cc:	48 89 85 58 fb ff ff 	mov    %rax,-0x4a8(%rbp)
    c4d3:	48 c7 85 60 fb ff ff 	movq   $0x0,-0x4a0(%rbp)
    c4da:	00 00 00 00 
    c4de:	48 c7 85 68 fb ff ff 	movq   $0x0,-0x498(%rbp)
    c4e5:	00 00 00 00 
    c4e9:	48 8d 85 30 ef ff ff 	lea    -0x10d0(%rbp),%rax
    c4f0:	48 89 85 70 fb ff ff 	mov    %rax,-0x490(%rbp)
    c4f7:	48 8d 85 30 ef ff ff 	lea    -0x10d0(%rbp),%rax
    c4fe:	48 89 85 78 fb ff ff 	mov    %rax,-0x488(%rbp)
    c505:	48 8d 05 c0 e0 00 00 	lea    0xe0c0(%rip),%rax        # 1a5cc <g_535>
    c50c:	48 89 85 80 fb ff ff 	mov    %rax,-0x480(%rbp)
    c513:	48 8d 85 30 ef ff ff 	lea    -0x10d0(%rbp),%rax
    c51a:	48 89 85 88 fb ff ff 	mov    %rax,-0x478(%rbp)
    c521:	48 8d 05 a4 e0 00 00 	lea    0xe0a4(%rip),%rax        # 1a5cc <g_535>
    c528:	48 89 85 90 fb ff ff 	mov    %rax,-0x470(%rbp)
    c52f:	48 8d 05 7a db 00 00 	lea    0xdb7a(%rip),%rax        # 1a0b0 <g_4+0x70>
    c536:	48 89 85 98 fb ff ff 	mov    %rax,-0x468(%rbp)
    c53d:	48 8d 05 88 e0 00 00 	lea    0xe088(%rip),%rax        # 1a5cc <g_535>
    c544:	48 89 85 a0 fb ff ff 	mov    %rax,-0x460(%rbp)
    c54b:	48 8d 85 2c ef ff ff 	lea    -0x10d4(%rbp),%rax
    c552:	48 89 85 a8 fb ff ff 	mov    %rax,-0x458(%rbp)
    c559:	48 c7 85 b0 fb ff ff 	movq   $0x0,-0x450(%rbp)
    c560:	00 00 00 00 
    c564:	48 8d 05 61 e0 00 00 	lea    0xe061(%rip),%rax        # 1a5cc <g_535>
    c56b:	48 89 85 b8 fb ff ff 	mov    %rax,-0x448(%rbp)
    c572:	48 8d 05 53 e0 00 00 	lea    0xe053(%rip),%rax        # 1a5cc <g_535>
    c579:	48 89 85 c0 fb ff ff 	mov    %rax,-0x440(%rbp)
    c580:	48 8d 05 45 e0 00 00 	lea    0xe045(%rip),%rax        # 1a5cc <g_535>
    c587:	48 89 85 c8 fb ff ff 	mov    %rax,-0x438(%rbp)
    c58e:	48 c7 85 d0 fb ff ff 	movq   $0x0,-0x430(%rbp)
    c595:	00 00 00 00 
    c599:	48 8d 85 30 ef ff ff 	lea    -0x10d0(%rbp),%rax
    c5a0:	48 89 85 d8 fb ff ff 	mov    %rax,-0x428(%rbp)
    c5a7:	48 8d 05 46 db 00 00 	lea    0xdb46(%rip),%rax        # 1a0f4 <g_4+0xb4>
    c5ae:	48 89 85 e0 fb ff ff 	mov    %rax,-0x420(%rbp)
    c5b5:	48 8d 85 2c ef ff ff 	lea    -0x10d4(%rbp),%rax
    c5bc:	48 89 85 e8 fb ff ff 	mov    %rax,-0x418(%rbp)
    c5c3:	48 c7 85 f0 fb ff ff 	movq   $0x0,-0x410(%rbp)
    c5ca:	00 00 00 00 
    c5ce:	48 8d 05 f7 df 00 00 	lea    0xdff7(%rip),%rax        # 1a5cc <g_535>
    c5d5:	48 89 85 f8 fb ff ff 	mov    %rax,-0x408(%rbp)
    c5dc:	48 8d 05 11 db 00 00 	lea    0xdb11(%rip),%rax        # 1a0f4 <g_4+0xb4>
    c5e3:	48 89 85 00 fc ff ff 	mov    %rax,-0x400(%rbp)
    c5ea:	48 8d 05 db df 00 00 	lea    0xdfdb(%rip),%rax        # 1a5cc <g_535>
    c5f1:	48 89 85 08 fc ff ff 	mov    %rax,-0x3f8(%rbp)
    c5f8:	48 c7 85 10 fc ff ff 	movq   $0x0,-0x3f0(%rbp)
    c5ff:	00 00 00 00 
    c603:	0f b7 05 80 de 00 00 	movzwl 0xde80(%rip),%eax        # 1a48a <g_129>
    c60a:	98                   	cwtl   
    c60b:	8d 50 01             	lea    0x1(%rax),%edx
    c60e:	0f b7 05 75 de 00 00 	movzwl 0xde75(%rip),%eax        # 1a48a <g_129>
    c615:	98                   	cwtl   
    c616:	83 c0 05             	add    $0x5,%eax
    c619:	48 63 c8             	movslq %eax,%rcx
    c61c:	48 63 d2             	movslq %edx,%rdx
    c61f:	48 89 d0             	mov    %rdx,%rax
    c622:	48 c1 e0 02          	shl    $0x2,%rax
    c626:	48 01 d0             	add    %rdx,%rax
    c629:	48 01 c0             	add    %rax,%rax
    c62c:	48 01 c8             	add    %rcx,%rax
    c62f:	48 8d 14 85 00 00 00 	lea    0x0(,%rax,4),%rdx
    c636:	00 
    c637:	48 8d 05 02 da 00 00 	lea    0xda02(%rip),%rax        # 1a040 <g_4>
    c63e:	48 01 d0             	add    %rdx,%rax
    c641:	48 89 85 18 fc ff ff 	mov    %rax,-0x3e8(%rbp)
    c648:	48 8d 85 b0 ef ff ff 	lea    -0x1050(%rbp),%rax
    c64f:	48 89 85 20 fc ff ff 	mov    %rax,-0x3e0(%rbp)
    c656:	48 8d 05 53 da 00 00 	lea    0xda53(%rip),%rax        # 1a0b0 <g_4+0x70>
    c65d:	48 89 85 28 fc ff ff 	mov    %rax,-0x3d8(%rbp)
    c664:	48 8d 05 89 da 00 00 	lea    0xda89(%rip),%rax        # 1a0f4 <g_4+0xb4>
    c66b:	48 89 85 30 fc ff ff 	mov    %rax,-0x3d0(%rbp)
    c672:	48 c7 85 38 fc ff ff 	movq   $0x0,-0x3c8(%rbp)
    c679:	00 00 00 00 
    c67d:	48 8d 05 48 df 00 00 	lea    0xdf48(%rip),%rax        # 1a5cc <g_535>
    c684:	48 89 85 40 fc ff ff 	mov    %rax,-0x3c0(%rbp)
    c68b:	48 8d 85 2c ef ff ff 	lea    -0x10d4(%rbp),%rax
    c692:	48 89 85 48 fc ff ff 	mov    %rax,-0x3b8(%rbp)
    c699:	48 8d 05 4c da 00 00 	lea    0xda4c(%rip),%rax        # 1a0ec <g_4+0xac>
    c6a0:	48 89 85 50 fc ff ff 	mov    %rax,-0x3b0(%rbp)
    c6a7:	48 c7 85 58 fc ff ff 	movq   $0x0,-0x3a8(%rbp)
    c6ae:	00 00 00 00 
    c6b2:	48 c7 85 60 fc ff ff 	movq   $0x0,-0x3a0(%rbp)
    c6b9:	00 00 00 00 
    c6bd:	48 c7 85 68 fc ff ff 	movq   $0x0,-0x398(%rbp)
    c6c4:	00 00 00 00 
    c6c8:	48 c7 85 70 fc ff ff 	movq   $0x0,-0x390(%rbp)
    c6cf:	00 00 00 00 
    c6d3:	48 8d 05 f2 de 00 00 	lea    0xdef2(%rip),%rax        # 1a5cc <g_535>
    c6da:	48 89 85 78 fc ff ff 	mov    %rax,-0x388(%rbp)
    c6e1:	48 8d 85 b0 ef ff ff 	lea    -0x1050(%rbp),%rax
    c6e8:	48 89 85 80 fc ff ff 	mov    %rax,-0x380(%rbp)
    c6ef:	48 8d 85 30 ef ff ff 	lea    -0x10d0(%rbp),%rax
    c6f6:	48 89 85 88 fc ff ff 	mov    %rax,-0x378(%rbp)
    c6fd:	48 8d 05 c8 de 00 00 	lea    0xdec8(%rip),%rax        # 1a5cc <g_535>
    c704:	48 89 85 90 fc ff ff 	mov    %rax,-0x370(%rbp)
    c70b:	48 8d 05 ba de 00 00 	lea    0xdeba(%rip),%rax        # 1a5cc <g_535>
    c712:	48 89 85 98 fc ff ff 	mov    %rax,-0x368(%rbp)
    c719:	48 c7 85 a0 fc ff ff 	movq   $0x0,-0x360(%rbp)
    c720:	00 00 00 00 
    c724:	48 8d 85 30 ef ff ff 	lea    -0x10d0(%rbp),%rax
    c72b:	48 89 85 a8 fc ff ff 	mov    %rax,-0x358(%rbp)
    c732:	48 c7 85 b0 fc ff ff 	movq   $0x0,-0x350(%rbp)
    c739:	00 00 00 00 
    c73d:	48 c7 85 b8 fc ff ff 	movq   $0x0,-0x348(%rbp)
    c744:	00 00 00 00 
    c748:	48 8d 85 30 ef ff ff 	lea    -0x10d0(%rbp),%rax
    c74f:	48 89 85 c0 fc ff ff 	mov    %rax,-0x340(%rbp)
    c756:	48 8d 85 30 ef ff ff 	lea    -0x10d0(%rbp),%rax
    c75d:	48 89 85 c8 fc ff ff 	mov    %rax,-0x338(%rbp)
    c764:	48 8d 05 61 de 00 00 	lea    0xde61(%rip),%rax        # 1a5cc <g_535>
    c76b:	48 89 85 d0 fc ff ff 	mov    %rax,-0x330(%rbp)
    c772:	48 c7 85 d8 fc ff ff 	movq   $0x0,-0x328(%rbp)
    c779:	00 00 00 00 
    c77d:	0f b7 05 06 dd 00 00 	movzwl 0xdd06(%rip),%eax        # 1a48a <g_129>
    c784:	98                   	cwtl   
    c785:	8d 50 01             	lea    0x1(%rax),%edx
    c788:	0f b7 05 fb dc 00 00 	movzwl 0xdcfb(%rip),%eax        # 1a48a <g_129>
    c78f:	98                   	cwtl   
    c790:	83 c0 05             	add    $0x5,%eax
    c793:	48 63 c8             	movslq %eax,%rcx
    c796:	48 63 d2             	movslq %edx,%rdx
    c799:	48 89 d0             	mov    %rdx,%rax
    c79c:	48 c1 e0 02          	shl    $0x2,%rax
    c7a0:	48 01 d0             	add    %rdx,%rax
    c7a3:	48 01 c0             	add    %rax,%rax
    c7a6:	48 01 c8             	add    %rcx,%rax
    c7a9:	48 8d 14 85 00 00 00 	lea    0x0(,%rax,4),%rdx
    c7b0:	00 
    c7b1:	48 8d 05 88 d8 00 00 	lea    0xd888(%rip),%rax        # 1a040 <g_4>
    c7b8:	48 01 d0             	add    %rdx,%rax
    c7bb:	48 89 85 e0 fc ff ff 	mov    %rax,-0x320(%rbp)
    c7c2:	0f b7 05 c1 dc 00 00 	movzwl 0xdcc1(%rip),%eax        # 1a48a <g_129>
    c7c9:	98                   	cwtl   
    c7ca:	8d 50 01             	lea    0x1(%rax),%edx
    c7cd:	0f b7 05 b6 dc 00 00 	movzwl 0xdcb6(%rip),%eax        # 1a48a <g_129>
    c7d4:	98                   	cwtl   
    c7d5:	83 c0 05             	add    $0x5,%eax
    c7d8:	48 63 c8             	movslq %eax,%rcx
    c7db:	48 63 d2             	movslq %edx,%rdx
    c7de:	48 89 d0             	mov    %rdx,%rax
    c7e1:	48 c1 e0 02          	shl    $0x2,%rax
    c7e5:	48 01 d0             	add    %rdx,%rax
    c7e8:	48 01 c0             	add    %rax,%rax
    c7eb:	48 01 c8             	add    %rcx,%rax
    c7ee:	48 8d 14 85 00 00 00 	lea    0x0(,%rax,4),%rdx
    c7f5:	00 
    c7f6:	48 8d 05 43 d8 00 00 	lea    0xd843(%rip),%rax        # 1a040 <g_4>
    c7fd:	48 01 d0             	add    %rdx,%rax
    c800:	48 89 85 e8 fc ff ff 	mov    %rax,-0x318(%rbp)
    c807:	48 8d 05 e6 d8 00 00 	lea    0xd8e6(%rip),%rax        # 1a0f4 <g_4+0xb4>
    c80e:	48 89 85 f0 fc ff ff 	mov    %rax,-0x310(%rbp)
    c815:	48 c7 85 f8 fc ff ff 	movq   $0x0,-0x308(%rbp)
    c81c:	00 00 00 00 
    c820:	48 c7 85 00 fd ff ff 	movq   $0x0,-0x300(%rbp)
    c827:	00 00 00 00 
    c82b:	48 c7 85 08 fd ff ff 	movq   $0x0,-0x2f8(%rbp)
    c832:	00 00 00 00 
    c836:	0f b7 05 4d dc 00 00 	movzwl 0xdc4d(%rip),%eax        # 1a48a <g_129>
    c83d:	98                   	cwtl   
    c83e:	8d 50 01             	lea    0x1(%rax),%edx
    c841:	0f b7 05 42 dc 00 00 	movzwl 0xdc42(%rip),%eax        # 1a48a <g_129>
    c848:	98                   	cwtl   
    c849:	83 c0 05             	add    $0x5,%eax
    c84c:	48 63 c8             	movslq %eax,%rcx
    c84f:	48 63 d2             	movslq %edx,%rdx
    c852:	48 89 d0             	mov    %rdx,%rax
    c855:	48 c1 e0 02          	shl    $0x2,%rax
    c859:	48 01 d0             	add    %rdx,%rax
    c85c:	48 01 c0             	add    %rax,%rax
    c85f:	48 01 c8             	add    %rcx,%rax
    c862:	48 8d 14 85 00 00 00 	lea    0x0(,%rax,4),%rdx
    c869:	00 
    c86a:	48 8d 05 cf d7 00 00 	lea    0xd7cf(%rip),%rax        # 1a040 <g_4>
    c871:	48 01 d0             	add    %rdx,%rax
    c874:	48 89 85 10 fd ff ff 	mov    %rax,-0x2f0(%rbp)
    c87b:	48 c7 85 18 fd ff ff 	movq   $0x0,-0x2e8(%rbp)
    c882:	00 00 00 00 
    c886:	48 8d 85 2c ef ff ff 	lea    -0x10d4(%rbp),%rax
    c88d:	48 89 85 20 fd ff ff 	mov    %rax,-0x2e0(%rbp)
    c894:	48 c7 85 28 fd ff ff 	movq   $0x0,-0x2d8(%rbp)
    c89b:	00 00 00 00 
    c89f:	48 8d 05 26 dd 00 00 	lea    0xdd26(%rip),%rax        # 1a5cc <g_535>
    c8a6:	48 89 85 30 fd ff ff 	mov    %rax,-0x2d0(%rbp)
    c8ad:	48 8d 85 2c ef ff ff 	lea    -0x10d4(%rbp),%rax
    c8b4:	48 89 85 38 fd ff ff 	mov    %rax,-0x2c8(%rbp)
    c8bb:	0f b7 05 c8 db 00 00 	movzwl 0xdbc8(%rip),%eax        # 1a48a <g_129>
    c8c2:	98                   	cwtl   
    c8c3:	8d 50 01             	lea    0x1(%rax),%edx
    c8c6:	0f b7 05 bd db 00 00 	movzwl 0xdbbd(%rip),%eax        # 1a48a <g_129>
    c8cd:	98                   	cwtl   
    c8ce:	83 c0 05             	add    $0x5,%eax
    c8d1:	48 63 c8             	movslq %eax,%rcx
    c8d4:	48 63 d2             	movslq %edx,%rdx
    c8d7:	48 89 d0             	mov    %rdx,%rax
    c8da:	48 c1 e0 02          	shl    $0x2,%rax
    c8de:	48 01 d0             	add    %rdx,%rax
    c8e1:	48 01 c0             	add    %rax,%rax
    c8e4:	48 01 c8             	add    %rcx,%rax
    c8e7:	48 8d 14 85 00 00 00 	lea    0x0(,%rax,4),%rdx
    c8ee:	00 
    c8ef:	48 8d 05 4a d7 00 00 	lea    0xd74a(%rip),%rax        # 1a040 <g_4>
    c8f6:	48 01 d0             	add    %rdx,%rax
    c8f9:	48 89 85 40 fd ff ff 	mov    %rax,-0x2c0(%rbp)
    c900:	48 c7 85 48 fd ff ff 	movq   $0x0,-0x2b8(%rbp)
    c907:	00 00 00 00 
    c90b:	48 8d 05 ba dc 00 00 	lea    0xdcba(%rip),%rax        # 1a5cc <g_535>
    c912:	48 89 85 50 fd ff ff 	mov    %rax,-0x2b0(%rbp)
    c919:	48 8d 85 30 ef ff ff 	lea    -0x10d0(%rbp),%rax
    c920:	48 89 85 58 fd ff ff 	mov    %rax,-0x2a8(%rbp)
    c927:	48 c7 85 60 fd ff ff 	movq   $0x0,-0x2a0(%rbp)
    c92e:	00 00 00 00 
    c932:	48 8d 85 2c ef ff ff 	lea    -0x10d4(%rbp),%rax
    c939:	48 89 85 68 fd ff ff 	mov    %rax,-0x298(%rbp)
    c940:	48 8d 05 85 dc 00 00 	lea    0xdc85(%rip),%rax        # 1a5cc <g_535>
    c947:	48 89 85 70 fd ff ff 	mov    %rax,-0x290(%rbp)
    c94e:	0f b7 05 35 db 00 00 	movzwl 0xdb35(%rip),%eax        # 1a48a <g_129>
    c955:	98                   	cwtl   
    c956:	8d 50 01             	lea    0x1(%rax),%edx
    c959:	0f b7 05 2a db 00 00 	movzwl 0xdb2a(%rip),%eax        # 1a48a <g_129>
    c960:	98                   	cwtl   
    c961:	83 c0 05             	add    $0x5,%eax
    c964:	48 63 c8             	movslq %eax,%rcx
    c967:	48 63 d2             	movslq %edx,%rdx
    c96a:	48 89 d0             	mov    %rdx,%rax
    c96d:	48 c1 e0 02          	shl    $0x2,%rax
    c971:	48 01 d0             	add    %rdx,%rax
    c974:	48 01 c0             	add    %rax,%rax
    c977:	48 01 c8             	add    %rcx,%rax
    c97a:	48 8d 14 85 00 00 00 	lea    0x0(,%rax,4),%rdx
    c981:	00 
    c982:	48 8d 05 b7 d6 00 00 	lea    0xd6b7(%rip),%rax        # 1a040 <g_4>
    c989:	48 01 d0             	add    %rdx,%rax
    c98c:	48 89 85 78 fd ff ff 	mov    %rax,-0x288(%rbp)
    c993:	48 8d 05 32 dc 00 00 	lea    0xdc32(%rip),%rax        # 1a5cc <g_535>
    c99a:	48 89 85 80 fd ff ff 	mov    %rax,-0x280(%rbp)
    c9a1:	48 c7 85 88 fd ff ff 	movq   $0x0,-0x278(%rbp)
    c9a8:	00 00 00 00 
    c9ac:	48 8d 85 2c ef ff ff 	lea    -0x10d4(%rbp),%rax
    c9b3:	48 89 85 90 fd ff ff 	mov    %rax,-0x270(%rbp)
    c9ba:	48 8d 85 2c ef ff ff 	lea    -0x10d4(%rbp),%rax
    c9c1:	48 89 85 98 fd ff ff 	mov    %rax,-0x268(%rbp)
    c9c8:	48 c7 85 a0 fd ff ff 	movq   $0x0,-0x260(%rbp)
    c9cf:	00 00 00 00 
    c9d3:	48 8d 05 f2 db 00 00 	lea    0xdbf2(%rip),%rax        # 1a5cc <g_535>
    c9da:	48 89 85 a8 fd ff ff 	mov    %rax,-0x258(%rbp)
    c9e1:	48 8d 85 2c ef ff ff 	lea    -0x10d4(%rbp),%rax
    c9e8:	48 89 85 b0 fd ff ff 	mov    %rax,-0x250(%rbp)
    c9ef:	48 c7 85 b8 fd ff ff 	movq   $0x0,-0x248(%rbp)
    c9f6:	00 00 00 00 
    c9fa:	48 8d 85 2c ef ff ff 	lea    -0x10d4(%rbp),%rax
    ca01:	48 89 85 c0 fd ff ff 	mov    %rax,-0x240(%rbp)
    ca08:	48 c7 85 c8 fd ff ff 	movq   $0x0,-0x238(%rbp)
    ca0f:	00 00 00 00 
    ca13:	48 8d 05 b2 db 00 00 	lea    0xdbb2(%rip),%rax        # 1a5cc <g_535>
    ca1a:	48 89 85 d0 fd ff ff 	mov    %rax,-0x230(%rbp)
    ca21:	48 c7 85 d8 fd ff ff 	movq   $0x0,-0x228(%rbp)
    ca28:	00 00 00 00 
    ca2c:	48 8d 05 c1 d6 00 00 	lea    0xd6c1(%rip),%rax        # 1a0f4 <g_4+0xb4>
    ca33:	48 89 85 e0 fd ff ff 	mov    %rax,-0x220(%rbp)
    ca3a:	48 8d 85 30 ef ff ff 	lea    -0x10d0(%rbp),%rax
    ca41:	48 89 85 e8 fd ff ff 	mov    %rax,-0x218(%rbp)
    ca48:	48 8d 85 2c ef ff ff 	lea    -0x10d4(%rbp),%rax
    ca4f:	48 89 85 f0 fd ff ff 	mov    %rax,-0x210(%rbp)
    ca56:	48 c7 85 f8 fd ff ff 	movq   $0x0,-0x208(%rbp)
    ca5d:	00 00 00 00 
    ca61:	0f b7 05 22 da 00 00 	movzwl 0xda22(%rip),%eax        # 1a48a <g_129>
    ca68:	98                   	cwtl   
    ca69:	8d 50 01             	lea    0x1(%rax),%edx
    ca6c:	0f b7 05 17 da 00 00 	movzwl 0xda17(%rip),%eax        # 1a48a <g_129>
    ca73:	98                   	cwtl   
    ca74:	83 c0 05             	add    $0x5,%eax
    ca77:	48 63 c8             	movslq %eax,%rcx
    ca7a:	48 63 d2             	movslq %edx,%rdx
    ca7d:	48 89 d0             	mov    %rdx,%rax
    ca80:	48 c1 e0 02          	shl    $0x2,%rax
    ca84:	48 01 d0             	add    %rdx,%rax
    ca87:	48 01 c0             	add    %rax,%rax
    ca8a:	48 01 c8             	add    %rcx,%rax
    ca8d:	48 8d 14 85 00 00 00 	lea    0x0(,%rax,4),%rdx
    ca94:	00 
    ca95:	48 8d 05 a4 d5 00 00 	lea    0xd5a4(%rip),%rax        # 1a040 <g_4>
    ca9c:	48 01 d0             	add    %rdx,%rax
    ca9f:	48 89 85 00 fe ff ff 	mov    %rax,-0x200(%rbp)
    caa6:	48 8d 05 1f db 00 00 	lea    0xdb1f(%rip),%rax        # 1a5cc <g_535>
    caad:	48 89 85 08 fe ff ff 	mov    %rax,-0x1f8(%rbp)
    cab4:	48 8d 05 5d d8 00 00 	lea    0xd85d(%rip),%rax        # 1a318 <g_45>
    cabb:	48 89 85 10 fe ff ff 	mov    %rax,-0x1f0(%rbp)
    cac2:	48 c7 85 18 fe ff ff 	movq   $0x0,-0x1e8(%rbp)
    cac9:	00 00 00 00 
    cacd:	48 8d 85 2c ef ff ff 	lea    -0x10d4(%rbp),%rax
    cad4:	48 89 85 20 fe ff ff 	mov    %rax,-0x1e0(%rbp)
    cadb:	48 c7 85 28 fe ff ff 	movq   $0x0,-0x1d8(%rbp)
    cae2:	00 00 00 00 
    cae6:	0f b7 05 9d d9 00 00 	movzwl 0xd99d(%rip),%eax        # 1a48a <g_129>
    caed:	98                   	cwtl   
    caee:	8d 50 01             	lea    0x1(%rax),%edx
    caf1:	0f b7 05 92 d9 00 00 	movzwl 0xd992(%rip),%eax        # 1a48a <g_129>
    caf8:	98                   	cwtl   
    caf9:	83 c0 05             	add    $0x5,%eax
    cafc:	48 63 c8             	movslq %eax,%rcx
    caff:	48 63 d2             	movslq %edx,%rdx
    cb02:	48 89 d0             	mov    %rdx,%rax
    cb05:	48 c1 e0 02          	shl    $0x2,%rax
    cb09:	48 01 d0             	add    %rdx,%rax
    cb0c:	48 01 c0             	add    %rax,%rax
    cb0f:	48 01 c8             	add    %rcx,%rax
    cb12:	48 8d 14 85 00 00 00 	lea    0x0(,%rax,4),%rdx
    cb19:	00 
    cb1a:	48 8d 05 1f d5 00 00 	lea    0xd51f(%rip),%rax        # 1a040 <g_4>
    cb21:	48 01 d0             	add    %rdx,%rax
    cb24:	48 89 85 30 fe ff ff 	mov    %rax,-0x1d0(%rbp)
    cb2b:	0f b7 05 58 d9 00 00 	movzwl 0xd958(%rip),%eax        # 1a48a <g_129>
    cb32:	98                   	cwtl   
    cb33:	8d 50 01             	lea    0x1(%rax),%edx
    cb36:	0f b7 05 4d d9 00 00 	movzwl 0xd94d(%rip),%eax        # 1a48a <g_129>
    cb3d:	98                   	cwtl   
    cb3e:	83 c0 05             	add    $0x5,%eax
    cb41:	48 63 c8             	movslq %eax,%rcx
    cb44:	48 63 d2             	movslq %edx,%rdx
    cb47:	48 89 d0             	mov    %rdx,%rax
    cb4a:	48 c1 e0 02          	shl    $0x2,%rax
    cb4e:	48 01 d0             	add    %rdx,%rax
    cb51:	48 01 c0             	add    %rax,%rax
    cb54:	48 01 c8             	add    %rcx,%rax
    cb57:	48 8d 14 85 00 00 00 	lea    0x0(,%rax,4),%rdx
    cb5e:	00 
    cb5f:	48 8d 05 da d4 00 00 	lea    0xd4da(%rip),%rax        # 1a040 <g_4>
    cb66:	48 01 d0             	add    %rdx,%rax
    cb69:	48 89 85 38 fe ff ff 	mov    %rax,-0x1c8(%rbp)
    cb70:	48 8d 05 7d d5 00 00 	lea    0xd57d(%rip),%rax        # 1a0f4 <g_4+0xb4>
    cb77:	48 89 85 40 fe ff ff 	mov    %rax,-0x1c0(%rbp)
    cb7e:	48 c7 85 48 fe ff ff 	movq   $0x0,-0x1b8(%rbp)
    cb85:	00 00 00 00 
    cb89:	48 c7 85 50 fe ff ff 	movq   $0x0,-0x1b0(%rbp)
    cb90:	00 00 00 00 
    cb94:	48 c7 85 58 fe ff ff 	movq   $0x0,-0x1a8(%rbp)
    cb9b:	00 00 00 00 
    cb9f:	0f b7 05 e4 d8 00 00 	movzwl 0xd8e4(%rip),%eax        # 1a48a <g_129>
    cba6:	98                   	cwtl   
    cba7:	8d 50 01             	lea    0x1(%rax),%edx
    cbaa:	0f b7 05 d9 d8 00 00 	movzwl 0xd8d9(%rip),%eax        # 1a48a <g_129>
    cbb1:	98                   	cwtl   
    cbb2:	83 c0 05             	add    $0x5,%eax
    cbb5:	48 63 c8             	movslq %eax,%rcx
    cbb8:	48 63 d2             	movslq %edx,%rdx
    cbbb:	48 89 d0             	mov    %rdx,%rax
    cbbe:	48 c1 e0 02          	shl    $0x2,%rax
    cbc2:	48 01 d0             	add    %rdx,%rax
    cbc5:	48 01 c0             	add    %rax,%rax
    cbc8:	48 01 c8             	add    %rcx,%rax
    cbcb:	48 8d 14 85 00 00 00 	lea    0x0(,%rax,4),%rdx
    cbd2:	00 
    cbd3:	48 8d 05 66 d4 00 00 	lea    0xd466(%rip),%rax        # 1a040 <g_4>
    cbda:	48 01 d0             	add    %rdx,%rax
    cbdd:	48 89 85 60 fe ff ff 	mov    %rax,-0x1a0(%rbp)
    cbe4:	48 c7 85 68 fe ff ff 	movq   $0x0,-0x198(%rbp)
    cbeb:	00 00 00 00 
    cbef:	c6 85 1e ef ff ff e6 	movb   $0xe6,-0x10e2(%rbp)
    cbf6:	c6 85 1f ef ff ff ff 	movb   $0xff,-0x10e1(%rbp)
    cbfd:	80 ad 1f ef ff ff 01 	subb   $0x1,-0x10e1(%rbp)
    cc04:	c7 05 f6 e5 00 00 01 	movl   $0x1,0xe5f6(%rip)        # 1b204 <g_995>
    cc0b:	00 00 00 
    cc0e:	90                   	nop
    cc0f:	8b 05 ef e5 00 00    	mov    0xe5ef(%rip),%eax        # 1b204 <g_995>
    cc15:	83 f8 09             	cmp    $0x9,%eax
    cc18:	77 1d                	ja     cc37 <func_17+0x1fd5>
    cc1a:	48 8b 85 00 ef ff ff 	mov    -0x1100(%rbp),%rax
    cc21:	48 8b 00             	mov    (%rax),%rax
    cc24:	8b 00                	mov    (%rax),%eax
    cc26:	85 c0                	test   %eax,%eax
    cc28:	75 0c                	jne    cc36 <func_17+0x1fd4>
    cc2a:	48 8b 85 c8 ef ff ff 	mov    -0x1038(%rbp),%rax
    cc31:	e9 de 12 00 00       	jmpq   df14 <func_17+0x32b2>
    cc36:	90                   	nop
    cc37:	0f b7 05 4c d8 00 00 	movzwl 0xd84c(%rip),%eax        # 1a48a <g_129>
    cc3e:	83 c0 01             	add    $0x1,%eax
    cc41:	66 89 05 42 d8 00 00 	mov    %ax,0xd842(%rip)        # 1a48a <g_129>
    cc48:	0f b7 05 3b d8 00 00 	movzwl 0xd83b(%rip),%eax        # 1a48a <g_129>
    cc4f:	66 83 f8 03          	cmp    $0x3,%ax
    cc53:	0f 8e 68 f1 ff ff    	jle    bdc1 <func_17+0x115f>
    cc59:	c7 05 41 e6 00 00 00 	movl   $0x0,0xe641(%rip)        # 1b2a4 <g_1027+0x4>
    cc60:	00 00 00 
    cc63:	e9 97 0d 00 00       	jmpq   d9ff <func_17+0x2d9d>
    cc68:	66 c7 85 24 ef ff ff 	movw   $0x226f,-0x10dc(%rbp)
    cc6f:	6f 22 
    cc71:	c7 85 70 ef ff ff 39 	movl   $0x11c85e39,-0x1090(%rbp)
    cc78:	5e c8 11 
    cc7b:	48 8d 05 8e 14 01 00 	lea    0x1148e(%rip),%rax        # 1e110 <g_1263>
    cc82:	48 89 85 70 f0 ff ff 	mov    %rax,-0xf90(%rbp)
    cc89:	48 8d 85 80 ef ff ff 	lea    -0x1080(%rbp),%rax
    cc90:	48 89 85 b0 ef ff ff 	mov    %rax,-0x1050(%rbp)
    cc97:	48 8d 85 b0 ef ff ff 	lea    -0x1050(%rbp),%rax
    cc9e:	48 89 85 e0 f7 ff ff 	mov    %rax,-0x820(%rbp)
    cca5:	48 8d 85 b0 ef ff ff 	lea    -0x1050(%rbp),%rax
    ccac:	48 89 85 e8 f7 ff ff 	mov    %rax,-0x818(%rbp)
    ccb3:	48 8d 85 b0 ef ff ff 	lea    -0x1050(%rbp),%rax
    ccba:	48 89 85 f0 f7 ff ff 	mov    %rax,-0x810(%rbp)
    ccc1:	48 8d 85 b0 ef ff ff 	lea    -0x1050(%rbp),%rax
    ccc8:	48 89 85 f8 f7 ff ff 	mov    %rax,-0x808(%rbp)
    cccf:	48 8d 85 b0 ef ff ff 	lea    -0x1050(%rbp),%rax
    ccd6:	48 89 85 00 f8 ff ff 	mov    %rax,-0x800(%rbp)
    ccdd:	48 8d 85 b0 ef ff ff 	lea    -0x1050(%rbp),%rax
    cce4:	48 89 85 08 f8 ff ff 	mov    %rax,-0x7f8(%rbp)
    cceb:	48 8d 85 b0 ef ff ff 	lea    -0x1050(%rbp),%rax
    ccf2:	48 89 85 10 f8 ff ff 	mov    %rax,-0x7f0(%rbp)
    ccf9:	48 8d 85 b0 ef ff ff 	lea    -0x1050(%rbp),%rax
    cd00:	48 89 85 18 f8 ff ff 	mov    %rax,-0x7e8(%rbp)
    cd07:	48 8d 85 b0 ef ff ff 	lea    -0x1050(%rbp),%rax
    cd0e:	48 89 85 20 f8 ff ff 	mov    %rax,-0x7e0(%rbp)
    cd15:	48 8d 85 b0 ef ff ff 	lea    -0x1050(%rbp),%rax
    cd1c:	48 89 85 28 f8 ff ff 	mov    %rax,-0x7d8(%rbp)
    cd23:	48 8d 85 b0 ef ff ff 	lea    -0x1050(%rbp),%rax
    cd2a:	48 89 85 30 f8 ff ff 	mov    %rax,-0x7d0(%rbp)
    cd31:	48 8d 85 b0 ef ff ff 	lea    -0x1050(%rbp),%rax
    cd38:	48 89 85 38 f8 ff ff 	mov    %rax,-0x7c8(%rbp)
    cd3f:	48 8d 85 b0 ef ff ff 	lea    -0x1050(%rbp),%rax
    cd46:	48 89 85 40 f8 ff ff 	mov    %rax,-0x7c0(%rbp)
    cd4d:	48 8d 85 b0 ef ff ff 	lea    -0x1050(%rbp),%rax
    cd54:	48 89 85 48 f8 ff ff 	mov    %rax,-0x7b8(%rbp)
    cd5b:	48 8d 85 b0 ef ff ff 	lea    -0x1050(%rbp),%rax
    cd62:	48 89 85 50 f8 ff ff 	mov    %rax,-0x7b0(%rbp)
    cd69:	48 8d 85 b0 ef ff ff 	lea    -0x1050(%rbp),%rax
    cd70:	48 89 85 58 f8 ff ff 	mov    %rax,-0x7a8(%rbp)
    cd77:	48 8d 85 b0 ef ff ff 	lea    -0x1050(%rbp),%rax
    cd7e:	48 89 85 60 f8 ff ff 	mov    %rax,-0x7a0(%rbp)
    cd85:	48 8d 85 b0 ef ff ff 	lea    -0x1050(%rbp),%rax
    cd8c:	48 89 85 68 f8 ff ff 	mov    %rax,-0x798(%rbp)
    cd93:	48 c7 85 70 f8 ff ff 	movq   $0x0,-0x790(%rbp)
    cd9a:	00 00 00 00 
    cd9e:	48 8d 85 b0 ef ff ff 	lea    -0x1050(%rbp),%rax
    cda5:	48 89 85 78 f8 ff ff 	mov    %rax,-0x788(%rbp)
    cdac:	48 8d 85 b0 ef ff ff 	lea    -0x1050(%rbp),%rax
    cdb3:	48 89 85 80 f8 ff ff 	mov    %rax,-0x780(%rbp)
    cdba:	48 8d 85 b0 ef ff ff 	lea    -0x1050(%rbp),%rax
    cdc1:	48 89 85 88 f8 ff ff 	mov    %rax,-0x778(%rbp)
    cdc8:	48 8d 85 b0 ef ff ff 	lea    -0x1050(%rbp),%rax
    cdcf:	48 89 85 90 f8 ff ff 	mov    %rax,-0x770(%rbp)
    cdd6:	48 8d 85 b0 ef ff ff 	lea    -0x1050(%rbp),%rax
    cddd:	48 89 85 98 f8 ff ff 	mov    %rax,-0x768(%rbp)
    cde4:	48 8d 85 b0 ef ff ff 	lea    -0x1050(%rbp),%rax
    cdeb:	48 89 85 a0 f8 ff ff 	mov    %rax,-0x760(%rbp)
    cdf2:	48 8d 85 b0 ef ff ff 	lea    -0x1050(%rbp),%rax
    cdf9:	48 89 85 a8 f8 ff ff 	mov    %rax,-0x758(%rbp)
    ce00:	48 8d 85 b0 ef ff ff 	lea    -0x1050(%rbp),%rax
    ce07:	48 89 85 b0 f8 ff ff 	mov    %rax,-0x750(%rbp)
    ce0e:	48 8d 85 b0 ef ff ff 	lea    -0x1050(%rbp),%rax
    ce15:	48 89 85 b8 f8 ff ff 	mov    %rax,-0x748(%rbp)
    ce1c:	48 8d 85 b0 ef ff ff 	lea    -0x1050(%rbp),%rax
    ce23:	48 89 85 c0 f8 ff ff 	mov    %rax,-0x740(%rbp)
    ce2a:	48 8d 85 b0 ef ff ff 	lea    -0x1050(%rbp),%rax
    ce31:	48 89 85 c8 f8 ff ff 	mov    %rax,-0x738(%rbp)
    ce38:	48 8d 85 b0 ef ff ff 	lea    -0x1050(%rbp),%rax
    ce3f:	48 89 85 d0 f8 ff ff 	mov    %rax,-0x730(%rbp)
    ce46:	48 c7 85 d8 f8 ff ff 	movq   $0x0,-0x728(%rbp)
    ce4d:	00 00 00 00 
    ce51:	48 8d 85 b0 ef ff ff 	lea    -0x1050(%rbp),%rax
    ce58:	48 89 85 e0 f8 ff ff 	mov    %rax,-0x720(%rbp)
    ce5f:	48 8d 85 b0 ef ff ff 	lea    -0x1050(%rbp),%rax
    ce66:	48 89 85 e8 f8 ff ff 	mov    %rax,-0x718(%rbp)
    ce6d:	48 8d 85 b0 ef ff ff 	lea    -0x1050(%rbp),%rax
    ce74:	48 89 85 f0 f8 ff ff 	mov    %rax,-0x710(%rbp)
    ce7b:	48 c7 85 f8 f8 ff ff 	movq   $0x0,-0x708(%rbp)
    ce82:	00 00 00 00 
    ce86:	48 8d 85 b0 ef ff ff 	lea    -0x1050(%rbp),%rax
    ce8d:	48 89 85 00 f9 ff ff 	mov    %rax,-0x700(%rbp)
    ce94:	48 8d 85 b0 ef ff ff 	lea    -0x1050(%rbp),%rax
    ce9b:	48 89 85 08 f9 ff ff 	mov    %rax,-0x6f8(%rbp)
    cea2:	48 8d 85 b0 ef ff ff 	lea    -0x1050(%rbp),%rax
    cea9:	48 89 85 10 f9 ff ff 	mov    %rax,-0x6f0(%rbp)
    ceb0:	48 c7 85 18 f9 ff ff 	movq   $0x0,-0x6e8(%rbp)
    ceb7:	00 00 00 00 
    cebb:	48 8d 85 b0 ef ff ff 	lea    -0x1050(%rbp),%rax
    cec2:	48 89 85 20 f9 ff ff 	mov    %rax,-0x6e0(%rbp)
    cec9:	48 8d 85 b0 ef ff ff 	lea    -0x1050(%rbp),%rax
    ced0:	48 89 85 28 f9 ff ff 	mov    %rax,-0x6d8(%rbp)
    ced7:	48 8d 85 b0 ef ff ff 	lea    -0x1050(%rbp),%rax
    cede:	48 89 85 30 f9 ff ff 	mov    %rax,-0x6d0(%rbp)
    cee5:	48 8d 85 b0 ef ff ff 	lea    -0x1050(%rbp),%rax
    ceec:	48 89 85 38 f9 ff ff 	mov    %rax,-0x6c8(%rbp)
    cef3:	48 c7 85 40 f9 ff ff 	movq   $0x0,-0x6c0(%rbp)
    cefa:	00 00 00 00 
    cefe:	48 8d 85 b0 ef ff ff 	lea    -0x1050(%rbp),%rax
    cf05:	48 89 85 48 f9 ff ff 	mov    %rax,-0x6b8(%rbp)
    cf0c:	48 8d 85 b0 ef ff ff 	lea    -0x1050(%rbp),%rax
    cf13:	48 89 85 50 f9 ff ff 	mov    %rax,-0x6b0(%rbp)
    cf1a:	48 8d 85 b0 ef ff ff 	lea    -0x1050(%rbp),%rax
    cf21:	48 89 85 58 f9 ff ff 	mov    %rax,-0x6a8(%rbp)
    cf28:	48 c7 85 60 f9 ff ff 	movq   $0x0,-0x6a0(%rbp)
    cf2f:	00 00 00 00 
    cf33:	48 8d 85 b0 ef ff ff 	lea    -0x1050(%rbp),%rax
    cf3a:	48 89 85 68 f9 ff ff 	mov    %rax,-0x698(%rbp)
    cf41:	48 8d 85 b0 ef ff ff 	lea    -0x1050(%rbp),%rax
    cf48:	48 89 85 70 f9 ff ff 	mov    %rax,-0x690(%rbp)
    cf4f:	48 8d 85 b0 ef ff ff 	lea    -0x1050(%rbp),%rax
    cf56:	48 89 85 78 f9 ff ff 	mov    %rax,-0x688(%rbp)
    cf5d:	48 c7 85 80 f9 ff ff 	movq   $0x0,-0x680(%rbp)
    cf64:	00 00 00 00 
    cf68:	48 8d 85 b0 ef ff ff 	lea    -0x1050(%rbp),%rax
    cf6f:	48 89 85 88 f9 ff ff 	mov    %rax,-0x678(%rbp)
    cf76:	48 8d 85 b0 ef ff ff 	lea    -0x1050(%rbp),%rax
    cf7d:	48 89 85 90 f9 ff ff 	mov    %rax,-0x670(%rbp)
    cf84:	48 8d 85 b0 ef ff ff 	lea    -0x1050(%rbp),%rax
    cf8b:	48 89 85 98 f9 ff ff 	mov    %rax,-0x668(%rbp)
    cf92:	48 8d 85 b0 ef ff ff 	lea    -0x1050(%rbp),%rax
    cf99:	48 89 85 a0 f9 ff ff 	mov    %rax,-0x660(%rbp)
    cfa0:	48 8d 85 b0 ef ff ff 	lea    -0x1050(%rbp),%rax
    cfa7:	48 89 85 a8 f9 ff ff 	mov    %rax,-0x658(%rbp)
    cfae:	48 8d 85 b0 ef ff ff 	lea    -0x1050(%rbp),%rax
    cfb5:	48 89 85 b0 f9 ff ff 	mov    %rax,-0x650(%rbp)
    cfbc:	48 8d 85 b0 ef ff ff 	lea    -0x1050(%rbp),%rax
    cfc3:	48 89 85 b8 f9 ff ff 	mov    %rax,-0x648(%rbp)
    cfca:	48 8d 85 b0 ef ff ff 	lea    -0x1050(%rbp),%rax
    cfd1:	48 89 85 c0 f9 ff ff 	mov    %rax,-0x640(%rbp)
    cfd8:	48 8d 85 b0 ef ff ff 	lea    -0x1050(%rbp),%rax
    cfdf:	48 89 85 c8 f9 ff ff 	mov    %rax,-0x638(%rbp)
    cfe6:	48 8d 85 b0 ef ff ff 	lea    -0x1050(%rbp),%rax
    cfed:	48 89 85 d0 f9 ff ff 	mov    %rax,-0x630(%rbp)
    cff4:	48 8d 85 b0 ef ff ff 	lea    -0x1050(%rbp),%rax
    cffb:	48 89 85 d8 f9 ff ff 	mov    %rax,-0x628(%rbp)
    d002:	48 8d 85 b0 ef ff ff 	lea    -0x1050(%rbp),%rax
    d009:	48 89 85 e0 f9 ff ff 	mov    %rax,-0x620(%rbp)
    d010:	48 c7 85 e8 f9 ff ff 	movq   $0x0,-0x618(%rbp)
    d017:	00 00 00 00 
    d01b:	48 8d 85 b0 ef ff ff 	lea    -0x1050(%rbp),%rax
    d022:	48 89 85 f0 f9 ff ff 	mov    %rax,-0x610(%rbp)
    d029:	48 8d 85 b0 ef ff ff 	lea    -0x1050(%rbp),%rax
    d030:	48 89 85 f8 f9 ff ff 	mov    %rax,-0x608(%rbp)
    d037:	48 8d 85 b0 ef ff ff 	lea    -0x1050(%rbp),%rax
    d03e:	48 89 85 00 fa ff ff 	mov    %rax,-0x600(%rbp)
    d045:	48 8d 85 b0 ef ff ff 	lea    -0x1050(%rbp),%rax
    d04c:	48 89 85 08 fa ff ff 	mov    %rax,-0x5f8(%rbp)
    d053:	48 8d 85 b0 ef ff ff 	lea    -0x1050(%rbp),%rax
    d05a:	48 89 85 10 fa ff ff 	mov    %rax,-0x5f0(%rbp)
    d061:	48 8d 85 b0 ef ff ff 	lea    -0x1050(%rbp),%rax
    d068:	48 89 85 18 fa ff ff 	mov    %rax,-0x5e8(%rbp)
    d06f:	48 8d 85 b0 ef ff ff 	lea    -0x1050(%rbp),%rax
    d076:	48 89 85 20 fa ff ff 	mov    %rax,-0x5e0(%rbp)
    d07d:	48 8d 85 b0 ef ff ff 	lea    -0x1050(%rbp),%rax
    d084:	48 89 85 28 fa ff ff 	mov    %rax,-0x5d8(%rbp)
    d08b:	48 8d 85 b0 ef ff ff 	lea    -0x1050(%rbp),%rax
    d092:	48 89 85 30 fa ff ff 	mov    %rax,-0x5d0(%rbp)
    d099:	48 8d 85 b0 ef ff ff 	lea    -0x1050(%rbp),%rax
    d0a0:	48 89 85 38 fa ff ff 	mov    %rax,-0x5c8(%rbp)
    d0a7:	48 8d 85 b0 ef ff ff 	lea    -0x1050(%rbp),%rax
    d0ae:	48 89 85 40 fa ff ff 	mov    %rax,-0x5c0(%rbp)
    d0b5:	48 8d 85 b0 ef ff ff 	lea    -0x1050(%rbp),%rax
    d0bc:	48 89 85 48 fa ff ff 	mov    %rax,-0x5b8(%rbp)
    d0c3:	48 8d 85 b0 ef ff ff 	lea    -0x1050(%rbp),%rax
    d0ca:	48 89 85 50 fa ff ff 	mov    %rax,-0x5b0(%rbp)
    d0d1:	48 8d 85 b0 ef ff ff 	lea    -0x1050(%rbp),%rax
    d0d8:	48 89 85 58 fa ff ff 	mov    %rax,-0x5a8(%rbp)
    d0df:	48 8d 85 b0 ef ff ff 	lea    -0x1050(%rbp),%rax
    d0e6:	48 89 85 60 fa ff ff 	mov    %rax,-0x5a0(%rbp)
    d0ed:	48 8d 85 b0 ef ff ff 	lea    -0x1050(%rbp),%rax
    d0f4:	48 89 85 68 fa ff ff 	mov    %rax,-0x598(%rbp)
    d0fb:	48 8d 85 b0 ef ff ff 	lea    -0x1050(%rbp),%rax
    d102:	48 89 85 70 fa ff ff 	mov    %rax,-0x590(%rbp)
    d109:	48 8d 85 b0 ef ff ff 	lea    -0x1050(%rbp),%rax
    d110:	48 89 85 78 fa ff ff 	mov    %rax,-0x588(%rbp)
    d117:	48 8d 85 b0 ef ff ff 	lea    -0x1050(%rbp),%rax
    d11e:	48 89 85 80 fa ff ff 	mov    %rax,-0x580(%rbp)
    d125:	48 8d 85 b0 ef ff ff 	lea    -0x1050(%rbp),%rax
    d12c:	48 89 85 88 fa ff ff 	mov    %rax,-0x578(%rbp)
    d133:	48 8d 85 b0 ef ff ff 	lea    -0x1050(%rbp),%rax
    d13a:	48 89 85 90 fa ff ff 	mov    %rax,-0x570(%rbp)
    d141:	48 c7 85 98 fa ff ff 	movq   $0x0,-0x568(%rbp)
    d148:	00 00 00 00 
    d14c:	48 8d 85 b0 ef ff ff 	lea    -0x1050(%rbp),%rax
    d153:	48 89 85 a0 fa ff ff 	mov    %rax,-0x560(%rbp)
    d15a:	48 8d 85 b0 ef ff ff 	lea    -0x1050(%rbp),%rax
    d161:	48 89 85 a8 fa ff ff 	mov    %rax,-0x558(%rbp)
    d168:	48 8d 85 b0 ef ff ff 	lea    -0x1050(%rbp),%rax
    d16f:	48 89 85 b0 fa ff ff 	mov    %rax,-0x550(%rbp)
    d176:	48 8d 85 b0 ef ff ff 	lea    -0x1050(%rbp),%rax
    d17d:	48 89 85 b8 fa ff ff 	mov    %rax,-0x548(%rbp)
    d184:	48 8d 85 b0 ef ff ff 	lea    -0x1050(%rbp),%rax
    d18b:	48 89 85 c0 fa ff ff 	mov    %rax,-0x540(%rbp)
    d192:	48 8d 85 b0 ef ff ff 	lea    -0x1050(%rbp),%rax
    d199:	48 89 85 c8 fa ff ff 	mov    %rax,-0x538(%rbp)
    d1a0:	48 8d 85 b0 ef ff ff 	lea    -0x1050(%rbp),%rax
    d1a7:	48 89 85 d0 fa ff ff 	mov    %rax,-0x530(%rbp)
    d1ae:	48 8d 85 b0 ef ff ff 	lea    -0x1050(%rbp),%rax
    d1b5:	48 89 85 d8 fa ff ff 	mov    %rax,-0x528(%rbp)
    d1bc:	48 8d 85 b0 ef ff ff 	lea    -0x1050(%rbp),%rax
    d1c3:	48 89 85 e0 fa ff ff 	mov    %rax,-0x520(%rbp)
    d1ca:	48 8d 85 b0 ef ff ff 	lea    -0x1050(%rbp),%rax
    d1d1:	48 89 85 e8 fa ff ff 	mov    %rax,-0x518(%rbp)
    d1d8:	48 8d 85 b0 ef ff ff 	lea    -0x1050(%rbp),%rax
    d1df:	48 89 85 f0 fa ff ff 	mov    %rax,-0x510(%rbp)
    d1e6:	48 8d 85 b0 ef ff ff 	lea    -0x1050(%rbp),%rax
    d1ed:	48 89 85 f8 fa ff ff 	mov    %rax,-0x508(%rbp)
    d1f4:	48 8d 85 b0 ef ff ff 	lea    -0x1050(%rbp),%rax
    d1fb:	48 89 85 00 fb ff ff 	mov    %rax,-0x500(%rbp)
    d202:	48 8d 85 b0 ef ff ff 	lea    -0x1050(%rbp),%rax
    d209:	48 89 85 08 fb ff ff 	mov    %rax,-0x4f8(%rbp)
    d210:	48 8d 85 b0 ef ff ff 	lea    -0x1050(%rbp),%rax
    d217:	48 89 85 10 fb ff ff 	mov    %rax,-0x4f0(%rbp)
    d21e:	48 8d 85 b0 ef ff ff 	lea    -0x1050(%rbp),%rax
    d225:	48 89 85 18 fb ff ff 	mov    %rax,-0x4e8(%rbp)
    d22c:	48 8d 85 b0 ef ff ff 	lea    -0x1050(%rbp),%rax
    d233:	48 89 85 20 fb ff ff 	mov    %rax,-0x4e0(%rbp)
    d23a:	48 8d 85 b0 ef ff ff 	lea    -0x1050(%rbp),%rax
    d241:	48 89 85 28 fb ff ff 	mov    %rax,-0x4d8(%rbp)
    d248:	48 8d 85 b0 ef ff ff 	lea    -0x1050(%rbp),%rax
    d24f:	48 89 85 30 fb ff ff 	mov    %rax,-0x4d0(%rbp)
    d256:	48 8d 85 b0 ef ff ff 	lea    -0x1050(%rbp),%rax
    d25d:	48 89 85 38 fb ff ff 	mov    %rax,-0x4c8(%rbp)
    d264:	48 8d 85 b0 ef ff ff 	lea    -0x1050(%rbp),%rax
    d26b:	48 89 85 40 fb ff ff 	mov    %rax,-0x4c0(%rbp)
    d272:	48 c7 85 48 fb ff ff 	movq   $0x0,-0x4b8(%rbp)
    d279:	00 00 00 00 
    d27d:	48 8d 85 b0 ef ff ff 	lea    -0x1050(%rbp),%rax
    d284:	48 89 85 50 fb ff ff 	mov    %rax,-0x4b0(%rbp)
    d28b:	48 8d 85 b0 ef ff ff 	lea    -0x1050(%rbp),%rax
    d292:	48 89 85 58 fb ff ff 	mov    %rax,-0x4a8(%rbp)
    d299:	48 8d 85 b0 ef ff ff 	lea    -0x1050(%rbp),%rax
    d2a0:	48 89 85 60 fb ff ff 	mov    %rax,-0x4a0(%rbp)
    d2a7:	48 8d 85 b0 ef ff ff 	lea    -0x1050(%rbp),%rax
    d2ae:	48 89 85 68 fb ff ff 	mov    %rax,-0x498(%rbp)
    d2b5:	48 8d 85 b0 ef ff ff 	lea    -0x1050(%rbp),%rax
    d2bc:	48 89 85 70 fb ff ff 	mov    %rax,-0x490(%rbp)
    d2c3:	48 8d 85 b0 ef ff ff 	lea    -0x1050(%rbp),%rax
    d2ca:	48 89 85 78 fb ff ff 	mov    %rax,-0x488(%rbp)
    d2d1:	48 8d 85 b0 ef ff ff 	lea    -0x1050(%rbp),%rax
    d2d8:	48 89 85 80 fb ff ff 	mov    %rax,-0x480(%rbp)
    d2df:	48 8d 85 b0 ef ff ff 	lea    -0x1050(%rbp),%rax
    d2e6:	48 89 85 88 fb ff ff 	mov    %rax,-0x478(%rbp)
    d2ed:	48 8d 85 b0 ef ff ff 	lea    -0x1050(%rbp),%rax
    d2f4:	48 89 85 90 fb ff ff 	mov    %rax,-0x470(%rbp)
    d2fb:	48 8d 85 b0 ef ff ff 	lea    -0x1050(%rbp),%rax
    d302:	48 89 85 98 fb ff ff 	mov    %rax,-0x468(%rbp)
    d309:	48 8d 85 b0 ef ff ff 	lea    -0x1050(%rbp),%rax
    d310:	48 89 85 a0 fb ff ff 	mov    %rax,-0x460(%rbp)
    d317:	48 8d 85 b0 ef ff ff 	lea    -0x1050(%rbp),%rax
    d31e:	48 89 85 a8 fb ff ff 	mov    %rax,-0x458(%rbp)
    d325:	48 c7 85 b0 fb ff ff 	movq   $0x0,-0x450(%rbp)
    d32c:	00 00 00 00 
    d330:	48 8d 85 b0 ef ff ff 	lea    -0x1050(%rbp),%rax
    d337:	48 89 85 b8 fb ff ff 	mov    %rax,-0x448(%rbp)
    d33e:	48 8d 85 b0 ef ff ff 	lea    -0x1050(%rbp),%rax
    d345:	48 89 85 c0 fb ff ff 	mov    %rax,-0x440(%rbp)
    d34c:	48 8d 85 b0 ef ff ff 	lea    -0x1050(%rbp),%rax
    d353:	48 89 85 c8 fb ff ff 	mov    %rax,-0x438(%rbp)
    d35a:	48 c7 85 d0 fb ff ff 	movq   $0x0,-0x430(%rbp)
    d361:	00 00 00 00 
    d365:	48 8d 85 b0 ef ff ff 	lea    -0x1050(%rbp),%rax
    d36c:	48 89 85 d8 fb ff ff 	mov    %rax,-0x428(%rbp)
    d373:	48 8d 85 b0 ef ff ff 	lea    -0x1050(%rbp),%rax
    d37a:	48 89 85 e0 fb ff ff 	mov    %rax,-0x420(%rbp)
    d381:	48 8d 85 b0 ef ff ff 	lea    -0x1050(%rbp),%rax
    d388:	48 89 85 e8 fb ff ff 	mov    %rax,-0x418(%rbp)
    d38f:	48 c7 85 f0 fb ff ff 	movq   $0x0,-0x410(%rbp)
    d396:	00 00 00 00 
    d39a:	48 8d 85 b0 ef ff ff 	lea    -0x1050(%rbp),%rax
    d3a1:	48 89 85 f8 fb ff ff 	mov    %rax,-0x408(%rbp)
    d3a8:	48 8d 85 b0 ef ff ff 	lea    -0x1050(%rbp),%rax
    d3af:	48 89 85 00 fc ff ff 	mov    %rax,-0x400(%rbp)
    d3b6:	48 8d 85 b0 ef ff ff 	lea    -0x1050(%rbp),%rax
    d3bd:	48 89 85 08 fc ff ff 	mov    %rax,-0x3f8(%rbp)
    d3c4:	48 8d 85 b0 ef ff ff 	lea    -0x1050(%rbp),%rax
    d3cb:	48 89 85 10 fc ff ff 	mov    %rax,-0x3f0(%rbp)
    d3d2:	48 c7 85 18 fc ff ff 	movq   $0x0,-0x3e8(%rbp)
    d3d9:	00 00 00 00 
    d3dd:	48 8d 85 b0 ef ff ff 	lea    -0x1050(%rbp),%rax
    d3e4:	48 89 85 20 fc ff ff 	mov    %rax,-0x3e0(%rbp)
    d3eb:	48 8d 85 b0 ef ff ff 	lea    -0x1050(%rbp),%rax
    d3f2:	48 89 85 28 fc ff ff 	mov    %rax,-0x3d8(%rbp)
    d3f9:	48 8d 85 b0 ef ff ff 	lea    -0x1050(%rbp),%rax
    d400:	48 89 85 30 fc ff ff 	mov    %rax,-0x3d0(%rbp)
    d407:	48 c7 85 38 fc ff ff 	movq   $0x0,-0x3c8(%rbp)
    d40e:	00 00 00 00 
    d412:	48 8d 85 b0 ef ff ff 	lea    -0x1050(%rbp),%rax
    d419:	48 89 85 40 fc ff ff 	mov    %rax,-0x3c0(%rbp)
    d420:	48 8d 85 b0 ef ff ff 	lea    -0x1050(%rbp),%rax
    d427:	48 89 85 48 fc ff ff 	mov    %rax,-0x3b8(%rbp)
    d42e:	48 8d 85 b0 ef ff ff 	lea    -0x1050(%rbp),%rax
    d435:	48 89 85 50 fc ff ff 	mov    %rax,-0x3b0(%rbp)
    d43c:	48 8d 85 b0 ef ff ff 	lea    -0x1050(%rbp),%rax
    d443:	48 89 85 58 fc ff ff 	mov    %rax,-0x3a8(%rbp)
    d44a:	48 8d 85 b0 ef ff ff 	lea    -0x1050(%rbp),%rax
    d451:	48 89 85 60 fc ff ff 	mov    %rax,-0x3a0(%rbp)
    d458:	48 8d 85 b0 ef ff ff 	lea    -0x1050(%rbp),%rax
    d45f:	48 89 85 68 fc ff ff 	mov    %rax,-0x398(%rbp)
    d466:	48 8d 85 b0 ef ff ff 	lea    -0x1050(%rbp),%rax
    d46d:	48 89 85 70 fc ff ff 	mov    %rax,-0x390(%rbp)
    d474:	48 8d 85 b0 ef ff ff 	lea    -0x1050(%rbp),%rax
    d47b:	48 89 85 78 fc ff ff 	mov    %rax,-0x388(%rbp)
    d482:	48 8d 85 b0 ef ff ff 	lea    -0x1050(%rbp),%rax
    d489:	48 89 85 80 fc ff ff 	mov    %rax,-0x380(%rbp)
    d490:	48 8d 85 b0 ef ff ff 	lea    -0x1050(%rbp),%rax
    d497:	48 89 85 88 fc ff ff 	mov    %rax,-0x378(%rbp)
    d49e:	48 8d 85 b0 ef ff ff 	lea    -0x1050(%rbp),%rax
    d4a5:	48 89 85 90 fc ff ff 	mov    %rax,-0x370(%rbp)
    d4ac:	48 c7 85 98 fc ff ff 	movq   $0x0,-0x368(%rbp)
    d4b3:	00 00 00 00 
    d4b7:	48 8d 85 b0 ef ff ff 	lea    -0x1050(%rbp),%rax
    d4be:	48 89 85 a0 fc ff ff 	mov    %rax,-0x360(%rbp)
    d4c5:	48 8d 85 b0 ef ff ff 	lea    -0x1050(%rbp),%rax
    d4cc:	48 89 85 a8 fc ff ff 	mov    %rax,-0x358(%rbp)
    d4d3:	48 8d 85 b0 ef ff ff 	lea    -0x1050(%rbp),%rax
    d4da:	48 89 85 b0 fc ff ff 	mov    %rax,-0x350(%rbp)
    d4e1:	48 8d 85 b0 ef ff ff 	lea    -0x1050(%rbp),%rax
    d4e8:	48 89 85 b8 fc ff ff 	mov    %rax,-0x348(%rbp)
    d4ef:	48 c7 85 c0 fc ff ff 	movq   $0x0,-0x340(%rbp)
    d4f6:	00 00 00 00 
    d4fa:	48 8d 85 b0 ef ff ff 	lea    -0x1050(%rbp),%rax
    d501:	48 89 85 c8 fc ff ff 	mov    %rax,-0x338(%rbp)
    d508:	48 8d 85 b0 ef ff ff 	lea    -0x1050(%rbp),%rax
    d50f:	48 89 85 d0 fc ff ff 	mov    %rax,-0x330(%rbp)
    d516:	48 8d 85 b0 ef ff ff 	lea    -0x1050(%rbp),%rax
    d51d:	48 89 85 d8 fc ff ff 	mov    %rax,-0x328(%rbp)
    d524:	48 8d 85 b0 ef ff ff 	lea    -0x1050(%rbp),%rax
    d52b:	48 89 85 e0 fc ff ff 	mov    %rax,-0x320(%rbp)
    d532:	48 c7 85 e8 fc ff ff 	movq   $0x0,-0x318(%rbp)
    d539:	00 00 00 00 
    d53d:	48 8d 85 b0 ef ff ff 	lea    -0x1050(%rbp),%rax
    d544:	48 89 85 f0 fc ff ff 	mov    %rax,-0x310(%rbp)
    d54b:	48 8d 85 b0 ef ff ff 	lea    -0x1050(%rbp),%rax
    d552:	48 89 85 f8 fc ff ff 	mov    %rax,-0x308(%rbp)
    d559:	48 8d 85 b0 ef ff ff 	lea    -0x1050(%rbp),%rax
    d560:	48 89 85 00 fd ff ff 	mov    %rax,-0x300(%rbp)
    d567:	48 8d 85 b0 ef ff ff 	lea    -0x1050(%rbp),%rax
    d56e:	48 89 85 08 fd ff ff 	mov    %rax,-0x2f8(%rbp)
    d575:	48 c7 85 10 fd ff ff 	movq   $0x0,-0x2f0(%rbp)
    d57c:	00 00 00 00 
    d580:	48 8d 85 b0 ef ff ff 	lea    -0x1050(%rbp),%rax
    d587:	48 89 85 18 fd ff ff 	mov    %rax,-0x2e8(%rbp)
    d58e:	48 8d 85 b0 ef ff ff 	lea    -0x1050(%rbp),%rax
    d595:	48 89 85 20 fd ff ff 	mov    %rax,-0x2e0(%rbp)
    d59c:	48 8d 85 b0 ef ff ff 	lea    -0x1050(%rbp),%rax
    d5a3:	48 89 85 28 fd ff ff 	mov    %rax,-0x2d8(%rbp)
    d5aa:	48 8d 85 b0 ef ff ff 	lea    -0x1050(%rbp),%rax
    d5b1:	48 89 85 30 fd ff ff 	mov    %rax,-0x2d0(%rbp)
    d5b8:	48 8d 85 b0 ef ff ff 	lea    -0x1050(%rbp),%rax
    d5bf:	48 89 85 38 fd ff ff 	mov    %rax,-0x2c8(%rbp)
    d5c6:	48 8d 85 b0 ef ff ff 	lea    -0x1050(%rbp),%rax
    d5cd:	48 89 85 40 fd ff ff 	mov    %rax,-0x2c0(%rbp)
    d5d4:	48 8d 85 b0 ef ff ff 	lea    -0x1050(%rbp),%rax
    d5db:	48 89 85 48 fd ff ff 	mov    %rax,-0x2b8(%rbp)
    d5e2:	48 c7 85 50 fd ff ff 	movq   $0x0,-0x2b0(%rbp)
    d5e9:	00 00 00 00 
    d5ed:	48 8d 85 b0 ef ff ff 	lea    -0x1050(%rbp),%rax
    d5f4:	48 89 85 58 fd ff ff 	mov    %rax,-0x2a8(%rbp)
    d5fb:	48 8d 85 b0 ef ff ff 	lea    -0x1050(%rbp),%rax
    d602:	48 89 85 60 fd ff ff 	mov    %rax,-0x2a0(%rbp)
    d609:	48 c7 85 68 fd ff ff 	movq   $0x0,-0x298(%rbp)
    d610:	00 00 00 00 
    d614:	48 8d 85 b0 ef ff ff 	lea    -0x1050(%rbp),%rax
    d61b:	48 89 85 70 fd ff ff 	mov    %rax,-0x290(%rbp)
    d622:	48 c7 85 78 fd ff ff 	movq   $0x0,-0x288(%rbp)
    d629:	00 00 00 00 
    d62d:	48 8d 85 b0 ef ff ff 	lea    -0x1050(%rbp),%rax
    d634:	48 89 85 80 fd ff ff 	mov    %rax,-0x280(%rbp)
    d63b:	48 8d 85 b0 ef ff ff 	lea    -0x1050(%rbp),%rax
    d642:	48 89 85 88 fd ff ff 	mov    %rax,-0x278(%rbp)
    d649:	48 c7 85 90 fd ff ff 	movq   $0x0,-0x270(%rbp)
    d650:	00 00 00 00 
    d654:	48 8d 85 b0 ef ff ff 	lea    -0x1050(%rbp),%rax
    d65b:	48 89 85 98 fd ff ff 	mov    %rax,-0x268(%rbp)
    d662:	48 8d 85 b0 ef ff ff 	lea    -0x1050(%rbp),%rax
    d669:	48 89 85 a0 fd ff ff 	mov    %rax,-0x260(%rbp)
    d670:	48 8d 85 b0 ef ff ff 	lea    -0x1050(%rbp),%rax
    d677:	48 89 85 a8 fd ff ff 	mov    %rax,-0x258(%rbp)
    d67e:	48 8d 85 b0 ef ff ff 	lea    -0x1050(%rbp),%rax
    d685:	48 89 85 b0 fd ff ff 	mov    %rax,-0x250(%rbp)
    d68c:	48 8d 85 b0 ef ff ff 	lea    -0x1050(%rbp),%rax
    d693:	48 89 85 b8 fd ff ff 	mov    %rax,-0x248(%rbp)
    d69a:	48 8d 85 b0 ef ff ff 	lea    -0x1050(%rbp),%rax
    d6a1:	48 89 85 c0 fd ff ff 	mov    %rax,-0x240(%rbp)
    d6a8:	48 8d 85 b0 ef ff ff 	lea    -0x1050(%rbp),%rax
    d6af:	48 89 85 c8 fd ff ff 	mov    %rax,-0x238(%rbp)
    d6b6:	48 c7 85 d0 fd ff ff 	movq   $0x0,-0x230(%rbp)
    d6bd:	00 00 00 00 
    d6c1:	48 8d 85 b0 ef ff ff 	lea    -0x1050(%rbp),%rax
    d6c8:	48 89 85 d8 fd ff ff 	mov    %rax,-0x228(%rbp)
    d6cf:	48 8d 85 b0 ef ff ff 	lea    -0x1050(%rbp),%rax
    d6d6:	48 89 85 e0 fd ff ff 	mov    %rax,-0x220(%rbp)
    d6dd:	48 8d 85 b0 ef ff ff 	lea    -0x1050(%rbp),%rax
    d6e4:	48 89 85 e8 fd ff ff 	mov    %rax,-0x218(%rbp)
    d6eb:	48 8d 85 b0 ef ff ff 	lea    -0x1050(%rbp),%rax
    d6f2:	48 89 85 f0 fd ff ff 	mov    %rax,-0x210(%rbp)
    d6f9:	48 c7 85 f8 fd ff ff 	movq   $0x0,-0x208(%rbp)
    d700:	00 00 00 00 
    d704:	48 8d 85 b0 ef ff ff 	lea    -0x1050(%rbp),%rax
    d70b:	48 89 85 00 fe ff ff 	mov    %rax,-0x200(%rbp)
    d712:	48 8d 85 b0 ef ff ff 	lea    -0x1050(%rbp),%rax
    d719:	48 89 85 08 fe ff ff 	mov    %rax,-0x1f8(%rbp)
    d720:	48 8d 85 b0 ef ff ff 	lea    -0x1050(%rbp),%rax
    d727:	48 89 85 10 fe ff ff 	mov    %rax,-0x1f0(%rbp)
    d72e:	48 8d 85 b0 ef ff ff 	lea    -0x1050(%rbp),%rax
    d735:	48 89 85 18 fe ff ff 	mov    %rax,-0x1e8(%rbp)
    d73c:	48 c7 85 20 fe ff ff 	movq   $0x0,-0x1e0(%rbp)
    d743:	00 00 00 00 
    d747:	48 8d 85 b0 ef ff ff 	lea    -0x1050(%rbp),%rax
    d74e:	48 89 85 28 fe ff ff 	mov    %rax,-0x1d8(%rbp)
    d755:	48 8d 85 b0 ef ff ff 	lea    -0x1050(%rbp),%rax
    d75c:	48 89 85 30 fe ff ff 	mov    %rax,-0x1d0(%rbp)
    d763:	48 8d 85 b0 ef ff ff 	lea    -0x1050(%rbp),%rax
    d76a:	48 89 85 38 fe ff ff 	mov    %rax,-0x1c8(%rbp)
    d771:	48 8d 85 b0 ef ff ff 	lea    -0x1050(%rbp),%rax
    d778:	48 89 85 40 fe ff ff 	mov    %rax,-0x1c0(%rbp)
    d77f:	48 c7 85 48 fe ff ff 	movq   $0x0,-0x1b8(%rbp)
    d786:	00 00 00 00 
    d78a:	48 8d 85 b0 ef ff ff 	lea    -0x1050(%rbp),%rax
    d791:	48 89 85 50 fe ff ff 	mov    %rax,-0x1b0(%rbp)
    d798:	48 8d 85 b0 ef ff ff 	lea    -0x1050(%rbp),%rax
    d79f:	48 89 85 58 fe ff ff 	mov    %rax,-0x1a8(%rbp)
    d7a6:	48 8d 85 b0 ef ff ff 	lea    -0x1050(%rbp),%rax
    d7ad:	48 89 85 60 fe ff ff 	mov    %rax,-0x1a0(%rbp)
    d7b4:	48 8d 85 b0 ef ff ff 	lea    -0x1050(%rbp),%rax
    d7bb:	48 89 85 68 fe ff ff 	mov    %rax,-0x198(%rbp)
    d7c2:	48 8d 85 b0 ef ff ff 	lea    -0x1050(%rbp),%rax
    d7c9:	48 89 85 70 fe ff ff 	mov    %rax,-0x190(%rbp)
    d7d0:	48 8d 85 b0 ef ff ff 	lea    -0x1050(%rbp),%rax
    d7d7:	48 89 85 78 fe ff ff 	mov    %rax,-0x188(%rbp)
    d7de:	48 8d 85 b0 ef ff ff 	lea    -0x1050(%rbp),%rax
    d7e5:	48 89 85 80 fe ff ff 	mov    %rax,-0x180(%rbp)
    d7ec:	48 8d 85 b0 ef ff ff 	lea    -0x1050(%rbp),%rax
    d7f3:	48 89 85 88 fe ff ff 	mov    %rax,-0x178(%rbp)
    d7fa:	48 8d 85 b0 ef ff ff 	lea    -0x1050(%rbp),%rax
    d801:	48 89 85 90 fe ff ff 	mov    %rax,-0x170(%rbp)
    d808:	48 8d 85 b0 ef ff ff 	lea    -0x1050(%rbp),%rax
    d80f:	48 89 85 98 fe ff ff 	mov    %rax,-0x168(%rbp)
    d816:	48 8d 85 b0 ef ff ff 	lea    -0x1050(%rbp),%rax
    d81d:	48 89 85 a0 fe ff ff 	mov    %rax,-0x160(%rbp)
    d824:	48 c7 85 a8 fe ff ff 	movq   $0x0,-0x158(%rbp)
    d82b:	00 00 00 00 
    d82f:	48 c7 85 b0 fe ff ff 	movq   $0x0,-0x150(%rbp)
    d836:	00 00 00 00 
    d83a:	48 8d 85 b0 ef ff ff 	lea    -0x1050(%rbp),%rax
    d841:	48 89 85 b8 fe ff ff 	mov    %rax,-0x148(%rbp)
    d848:	48 8d 85 b0 ef ff ff 	lea    -0x1050(%rbp),%rax
    d84f:	48 89 85 c0 fe ff ff 	mov    %rax,-0x140(%rbp)
    d856:	48 c7 85 c8 fe ff ff 	movq   $0x0,-0x138(%rbp)
    d85d:	00 00 00 00 
    d861:	48 8d 85 b0 ef ff ff 	lea    -0x1050(%rbp),%rax
    d868:	48 89 85 d0 fe ff ff 	mov    %rax,-0x130(%rbp)
    d86f:	48 8d 85 b0 ef ff ff 	lea    -0x1050(%rbp),%rax
    d876:	48 89 85 d8 fe ff ff 	mov    %rax,-0x128(%rbp)
    d87d:	48 8d 85 b0 ef ff ff 	lea    -0x1050(%rbp),%rax
    d884:	48 89 85 e0 fe ff ff 	mov    %rax,-0x120(%rbp)
    d88b:	48 8d 85 b0 ef ff ff 	lea    -0x1050(%rbp),%rax
    d892:	48 89 85 e8 fe ff ff 	mov    %rax,-0x118(%rbp)
    d899:	48 c7 85 f0 fe ff ff 	movq   $0x0,-0x110(%rbp)
    d8a0:	00 00 00 00 
    d8a4:	48 8d 85 b0 ef ff ff 	lea    -0x1050(%rbp),%rax
    d8ab:	48 89 85 f8 fe ff ff 	mov    %rax,-0x108(%rbp)
    d8b2:	48 8d 85 b0 ef ff ff 	lea    -0x1050(%rbp),%rax
    d8b9:	48 89 85 00 ff ff ff 	mov    %rax,-0x100(%rbp)
    d8c0:	48 c7 85 08 ff ff ff 	movq   $0x0,-0xf8(%rbp)
    d8c7:	00 00 00 00 
    d8cb:	48 c7 85 10 ff ff ff 	movq   $0x0,-0xf0(%rbp)
    d8d2:	00 00 00 00 
    d8d6:	48 8d 85 b0 ef ff ff 	lea    -0x1050(%rbp),%rax
    d8dd:	48 89 85 18 ff ff ff 	mov    %rax,-0xe8(%rbp)
    d8e4:	48 8d 85 b0 ef ff ff 	lea    -0x1050(%rbp),%rax
    d8eb:	48 89 85 20 ff ff ff 	mov    %rax,-0xe0(%rbp)
    d8f2:	48 8d 85 b0 ef ff ff 	lea    -0x1050(%rbp),%rax
    d8f9:	48 89 85 28 ff ff ff 	mov    %rax,-0xd8(%rbp)
    d900:	48 8d 85 b0 ef ff ff 	lea    -0x1050(%rbp),%rax
    d907:	48 89 85 30 ff ff ff 	mov    %rax,-0xd0(%rbp)
    d90e:	48 8d 85 b0 ef ff ff 	lea    -0x1050(%rbp),%rax
    d915:	48 89 85 38 ff ff ff 	mov    %rax,-0xc8(%rbp)
    d91c:	48 8d 85 b0 ef ff ff 	lea    -0x1050(%rbp),%rax
    d923:	48 89 85 40 ff ff ff 	mov    %rax,-0xc0(%rbp)
    d92a:	48 8d 85 b0 ef ff ff 	lea    -0x1050(%rbp),%rax
    d931:	48 89 85 48 ff ff ff 	mov    %rax,-0xb8(%rbp)
    d938:	48 8d 85 b0 ef ff ff 	lea    -0x1050(%rbp),%rax
    d93f:	48 89 85 50 ff ff ff 	mov    %rax,-0xb0(%rbp)
    d946:	48 8d 85 b0 ef ff ff 	lea    -0x1050(%rbp),%rax
    d94d:	48 89 85 58 ff ff ff 	mov    %rax,-0xa8(%rbp)
    d954:	48 8d 85 b0 ef ff ff 	lea    -0x1050(%rbp),%rax
    d95b:	48 89 85 60 ff ff ff 	mov    %rax,-0xa0(%rbp)
    d962:	48 8d 85 b0 ef ff ff 	lea    -0x1050(%rbp),%rax
    d969:	48 89 85 68 ff ff ff 	mov    %rax,-0x98(%rbp)
    d970:	48 c7 85 70 ff ff ff 	movq   $0x0,-0x90(%rbp)
    d977:	00 00 00 00 
    d97b:	48 8d 85 b0 ef ff ff 	lea    -0x1050(%rbp),%rax
    d982:	48 89 85 78 ff ff ff 	mov    %rax,-0x88(%rbp)
    d989:	48 8d 85 b0 ef ff ff 	lea    -0x1050(%rbp),%rax
    d990:	48 89 45 80          	mov    %rax,-0x80(%rbp)
    d994:	48 8d 85 b0 ef ff ff 	lea    -0x1050(%rbp),%rax
    d99b:	48 89 45 88          	mov    %rax,-0x78(%rbp)
    d99f:	48 8d 85 b0 ef ff ff 	lea    -0x1050(%rbp),%rax
    d9a6:	48 89 45 90          	mov    %rax,-0x70(%rbp)
    d9aa:	48 c7 45 98 00 00 00 	movq   $0x0,-0x68(%rbp)
    d9b1:	00 
    d9b2:	48 8d 85 b0 ef ff ff 	lea    -0x1050(%rbp),%rax
    d9b9:	48 89 45 a0          	mov    %rax,-0x60(%rbp)
    d9bd:	48 8d 85 b0 ef ff ff 	lea    -0x1050(%rbp),%rax
    d9c4:	48 89 45 a8          	mov    %rax,-0x58(%rbp)
    d9c8:	48 8d 85 b0 ef ff ff 	lea    -0x1050(%rbp),%rax
    d9cf:	48 89 45 b0          	mov    %rax,-0x50(%rbp)
    d9d3:	48 8d 85 b0 ef ff ff 	lea    -0x1050(%rbp),%rax
    d9da:	48 89 45 b8          	mov    %rax,-0x48(%rbp)
    d9de:	48 8d 85 70 f3 ff ff 	lea    -0xc90(%rbp),%rax
    d9e5:	48 83 c0 20          	add    $0x20,%rax
    d9e9:	48 89 85 78 f0 ff ff 	mov    %rax,-0xf88(%rbp)
    d9f0:	8b 05 ae d8 00 00    	mov    0xd8ae(%rip),%eax        # 1b2a4 <g_1027+0x4>
    d9f6:	83 c0 01             	add    $0x1,%eax
    d9f9:	89 05 a5 d8 00 00    	mov    %eax,0xd8a5(%rip)        # 1b2a4 <g_1027+0x4>
    d9ff:	8b 05 9f d8 00 00    	mov    0xd89f(%rip),%eax        # 1b2a4 <g_1027+0x4>
    da05:	83 f8 35             	cmp    $0x35,%eax
    da08:	0f 87 5a f2 ff ff    	ja     cc68 <func_17+0x2006>
    da0e:	eb 01                	jmp    da11 <func_17+0x2daf>
    da10:	90                   	nop
    da11:	48 8b 85 68 f1 ff ff 	mov    -0xe98(%rbp),%rax
    da18:	48 89 05 c1 f9 00 00 	mov    %rax,0xf9c1(%rip)        # 1d3e0 <g_1289>
    da1f:	8b 05 db ca 00 00    	mov    0xcadb(%rip),%eax        # 1a500 <g_243+0x10>
    da25:	83 c0 01             	add    $0x1,%eax
    da28:	89 05 d2 ca 00 00    	mov    %eax,0xcad2(%rip)        # 1a500 <g_243+0x10>
    da2e:	8b 05 cc ca 00 00    	mov    0xcacc(%rip),%eax        # 1a500 <g_243+0x10>
    da34:	83 f8 03             	cmp    $0x3,%eax
    da37:	0f 86 20 d5 ff ff    	jbe    af5d <func_17+0x2fb>
    da3d:	0f b7 85 0e ef ff ff 	movzwl -0x10f2(%rbp),%eax
    da44:	0f b7 d8             	movzwl %ax,%ebx
    da47:	48 83 bd f0 ef ff ff 	cmpq   $0x0,-0x1010(%rbp)
    da4e:	00 
    da4f:	0f 95 c0             	setne  %al
    da52:	0f b6 d0             	movzbl %al,%edx
    da55:	48 8b 85 80 f2 ff ff 	mov    -0xd80(%rbp),%rax
    da5c:	48 89 05 85 f9 00 00 	mov    %rax,0xf985(%rip)        # 1d3e8 <g_1300>
    da63:	48 8b 05 7e f9 00 00 	mov    0xf97e(%rip),%rax        # 1d3e8 <g_1300>
    da6a:	48 8d 0d cf c9 00 00 	lea    0xc9cf(%rip),%rcx        # 1a440 <g_60>
    da71:	48 39 c8             	cmp    %rcx,%rax
    da74:	0f 94 c0             	sete   %al
    da77:	89 c1                	mov    %eax,%ecx
    da79:	48 8b 85 10 f0 ff ff 	mov    -0xff0(%rbp),%rax
    da80:	88 08                	mov    %cl,(%rax)
    da82:	48 8b 85 10 f0 ff ff 	mov    -0xff0(%rbp),%rax
    da89:	0f b6 00             	movzbl (%rax),%eax
    da8c:	0f b6 c0             	movzbl %al,%eax
    da8f:	39 c2                	cmp    %eax,%edx
    da91:	0f 9c c0             	setl   %al
    da94:	44 0f b6 e0          	movzbl %al,%r12d
    da98:	bf 01 00 00 00       	mov    $0x1,%edi
    da9d:	e8 a3 90 ff ff       	callq  6b45 <safe_unary_minus_func_uint8_t_u>
    daa2:	0f b6 c0             	movzbl %al,%eax
    daa5:	41 39 c4             	cmp    %eax,%r12d
    daa8:	48 8b 05 c9 f8 00 00 	mov    0xf8c9(%rip),%rax        # 1d378 <g_813>
    daaf:	44 8b 20             	mov    (%rax),%r12d
    dab2:	48 8b 85 00 ef ff ff 	mov    -0x1100(%rbp),%rax
    dab9:	48 8b 00             	mov    (%rax),%rax
    dabc:	8b 00                	mov    (%rax),%eax
    dabe:	be 00 00 00 00       	mov    $0x0,%esi
    dac3:	89 c7                	mov    %eax,%edi
    dac5:	e8 02 8c ff ff       	callq  66cc <safe_mod_func_int32_t_s_s>
    daca:	48 8d 15 8f ee 00 00 	lea    0xee8f(%rip),%rdx        # 1c960 <g_110>
    dad1:	48 8b 12             	mov    (%rdx),%rdx
    dad4:	8b 12                	mov    (%rdx),%edx
    dad6:	21 d0                	and    %edx,%eax
    dad8:	41 39 c4             	cmp    %eax,%r12d
    dadb:	0f 97 c0             	seta   %al
    dade:	0f b6 c0             	movzbl %al,%eax
    dae1:	be 00 00 00 00       	mov    $0x0,%esi
    dae6:	89 c7                	mov    %eax,%edi
    dae8:	e8 18 8b ff ff       	callq  6605 <safe_sub_func_int32_t_s_s>
    daed:	48 89 de             	mov    %rbx,%rsi
    daf0:	48 bf a1 d0 48 68 9c 	movabs $0x708c5e9c6848d0a1,%rdi
    daf7:	5e 8c 70 
    dafa:	e8 b5 8e ff ff       	callq  69b4 <safe_mod_func_int64_t_s_s>
    daff:	8b 15 ab ca 00 00    	mov    0xcaab(%rip),%edx        # 1a5b0 <g_524>
    db05:	48 63 d2             	movslq %edx,%rdx
    db08:	48 39 d0             	cmp    %rdx,%rax
    db0b:	0f 9d c0             	setge  %al
    db0e:	0f b6 d0             	movzbl %al,%edx
    db11:	8b 05 99 ca 00 00    	mov    0xca99(%rip),%eax        # 1a5b0 <g_524>
    db17:	39 c2                	cmp    %eax,%edx
    db19:	0f 9c c0             	setl   %al
    db1c:	0f b6 c0             	movzbl %al,%eax
    db1f:	be 12 00 00 00       	mov    $0x12,%esi
    db24:	89 c7                	mov    %eax,%edi
    db26:	e8 06 87 ff ff       	callq  6231 <safe_mod_func_int8_t_s_s>
    db2b:	0f be c0             	movsbl %al,%eax
    db2e:	31 85 50 ef ff ff    	xor    %eax,-0x10b0(%rbp)
    db34:	66 c7 05 bf c9 00 00 	movw   $0x0,0xc9bf(%rip)        # 1a4fc <g_243+0xc>
    db3b:	00 00 
    db3d:	e9 ac 03 00 00       	jmpq   deee <func_17+0x328c>
    db42:	c7 85 e0 f7 ff ff 22 	movl   $0x89565b22,-0x820(%rbp)
    db49:	5b 56 89 
    db4c:	c7 85 e4 f7 ff ff c8 	movl   $0x873caac8,-0x81c(%rbp)
    db53:	aa 3c 87 
    db56:	c7 85 e8 f7 ff ff 4b 	movl   $0x7b23754b,-0x818(%rbp)
    db5d:	75 23 7b 
    db60:	c7 85 ec f7 ff ff 4b 	movl   $0x7b23754b,-0x814(%rbp)
    db67:	75 23 7b 
    db6a:	c7 85 f0 f7 ff ff c8 	movl   $0x873caac8,-0x810(%rbp)
    db71:	aa 3c 87 
    db74:	c7 85 f4 f7 ff ff 22 	movl   $0x89565b22,-0x80c(%rbp)
    db7b:	5b 56 89 
    db7e:	c7 85 f8 f7 ff ff 00 	movl   $0x0,-0x808(%rbp)
    db85:	00 00 00 
    db88:	c7 85 fc f7 ff ff 22 	movl   $0x89565b22,-0x804(%rbp)
    db8f:	5b 56 89 
    db92:	c7 85 00 f8 ff ff 4b 	movl   $0x7b23754b,-0x800(%rbp)
    db99:	75 23 7b 
    db9c:	c7 85 04 f8 ff ff 22 	movl   $0x89565b22,-0x7fc(%rbp)
    dba3:	5b 56 89 
    dba6:	c7 85 08 f8 ff ff 00 	movl   $0x0,-0x7f8(%rbp)
    dbad:	00 00 00 
    dbb0:	c7 85 0c f8 ff ff 00 	movl   $0x0,-0x7f4(%rbp)
    dbb7:	00 00 00 
    dbba:	c7 85 10 f8 ff ff ff 	movl   $0xf0aa81ff,-0x7f0(%rbp)
    dbc1:	81 aa f0 
    dbc4:	c7 85 14 f8 ff ff 22 	movl   $0x89565b22,-0x7ec(%rbp)
    dbcb:	5b 56 89 
    dbce:	c7 85 18 f8 ff ff 22 	movl   $0x89565b22,-0x7e8(%rbp)
    dbd5:	5b 56 89 
    dbd8:	c7 85 1c f8 ff ff ff 	movl   $0xf0aa81ff,-0x7e4(%rbp)
    dbdf:	81 aa f0 
    dbe2:	c7 85 20 f8 ff ff c8 	movl   $0x873caac8,-0x7e0(%rbp)
    dbe9:	aa 3c 87 
    dbec:	c7 85 24 f8 ff ff ff 	movl   $0xf0aa81ff,-0x7dc(%rbp)
    dbf3:	81 aa f0 
    dbf6:	c7 85 28 f8 ff ff ff 	movl   $0xf0aa81ff,-0x7d8(%rbp)
    dbfd:	81 aa f0 
    dc00:	c7 85 2c f8 ff ff c8 	movl   $0x873caac8,-0x7d4(%rbp)
    dc07:	aa 3c 87 
    dc0a:	c7 85 30 f8 ff ff ff 	movl   $0xf0aa81ff,-0x7d0(%rbp)
    dc11:	81 aa f0 
    dc14:	c7 85 34 f8 ff ff 22 	movl   $0x89565b22,-0x7cc(%rbp)
    dc1b:	5b 56 89 
    dc1e:	c7 85 38 f8 ff ff 22 	movl   $0x89565b22,-0x7c8(%rbp)
    dc25:	5b 56 89 
    dc28:	c7 85 3c f8 ff ff ff 	movl   $0xf0aa81ff,-0x7c4(%rbp)
    dc2f:	81 aa f0 
    dc32:	c7 85 40 f8 ff ff 00 	movl   $0x0,-0x7c0(%rbp)
    dc39:	00 00 00 
    dc3c:	c7 85 44 f8 ff ff 00 	movl   $0x0,-0x7bc(%rbp)
    dc43:	00 00 00 
    dc46:	c7 85 48 f8 ff ff 22 	movl   $0x89565b22,-0x7b8(%rbp)
    dc4d:	5b 56 89 
    dc50:	c7 85 4c f8 ff ff 4b 	movl   $0x7b23754b,-0x7b4(%rbp)
    dc57:	75 23 7b 
    dc5a:	c7 85 50 f8 ff ff 22 	movl   $0x89565b22,-0x7b0(%rbp)
    dc61:	5b 56 89 
    dc64:	c7 85 54 f8 ff ff 00 	movl   $0x0,-0x7ac(%rbp)
    dc6b:	00 00 00 
    dc6e:	c7 85 58 f8 ff ff 22 	movl   $0x89565b22,-0x7a8(%rbp)
    dc75:	5b 56 89 
    dc78:	c7 85 5c f8 ff ff c8 	movl   $0x873caac8,-0x7a4(%rbp)
    dc7f:	aa 3c 87 
    dc82:	c7 85 60 f8 ff ff 4b 	movl   $0x7b23754b,-0x7a0(%rbp)
    dc89:	75 23 7b 
    dc8c:	c7 85 64 f8 ff ff 4b 	movl   $0x7b23754b,-0x79c(%rbp)
    dc93:	75 23 7b 
    dc96:	c7 85 68 f8 ff ff c8 	movl   $0x873caac8,-0x798(%rbp)
    dc9d:	aa 3c 87 
    dca0:	c7 85 6c f8 ff ff 22 	movl   $0x89565b22,-0x794(%rbp)
    dca7:	5b 56 89 
    dcaa:	c7 85 70 f8 ff ff 00 	movl   $0x0,-0x790(%rbp)
    dcb1:	00 00 00 
    dcb4:	c7 85 74 f8 ff ff 22 	movl   $0x89565b22,-0x78c(%rbp)
    dcbb:	5b 56 89 
    dcbe:	c7 85 78 f8 ff ff 4b 	movl   $0x7b23754b,-0x788(%rbp)
    dcc5:	75 23 7b 
    dcc8:	c7 85 7c f8 ff ff 22 	movl   $0x89565b22,-0x784(%rbp)
    dccf:	5b 56 89 
    dcd2:	c7 85 80 f8 ff ff 00 	movl   $0x0,-0x780(%rbp)
    dcd9:	00 00 00 
    dcdc:	c7 85 84 f8 ff ff 00 	movl   $0x0,-0x77c(%rbp)
    dce3:	00 00 00 
    dce6:	c7 85 88 f8 ff ff ff 	movl   $0xf0aa81ff,-0x778(%rbp)
    dced:	81 aa f0 
    dcf0:	c7 85 8c f8 ff ff 22 	movl   $0x89565b22,-0x774(%rbp)
    dcf7:	5b 56 89 
    dcfa:	c7 85 90 f8 ff ff 22 	movl   $0x89565b22,-0x770(%rbp)
    dd01:	5b 56 89 
    dd04:	c7 85 94 f8 ff ff ff 	movl   $0xf0aa81ff,-0x76c(%rbp)
    dd0b:	81 aa f0 
    dd0e:	c7 85 98 f8 ff ff c8 	movl   $0x873caac8,-0x768(%rbp)
    dd15:	aa 3c 87 
    dd18:	c7 85 9c f8 ff ff ff 	movl   $0xf0aa81ff,-0x764(%rbp)
    dd1f:	81 aa f0 
    dd22:	c7 85 a0 f8 ff ff ff 	movl   $0xf0aa81ff,-0x760(%rbp)
    dd29:	81 aa f0 
    dd2c:	c7 85 a4 f8 ff ff c8 	movl   $0x873caac8,-0x75c(%rbp)
    dd33:	aa 3c 87 
    dd36:	c7 85 a8 f8 ff ff ff 	movl   $0xf0aa81ff,-0x758(%rbp)
    dd3d:	81 aa f0 
    dd40:	c7 85 ac f8 ff ff 22 	movl   $0x89565b22,-0x754(%rbp)
    dd47:	5b 56 89 
    dd4a:	c7 85 b0 f8 ff ff 22 	movl   $0x89565b22,-0x750(%rbp)
    dd51:	5b 56 89 
    dd54:	c7 85 b4 f8 ff ff ff 	movl   $0xf0aa81ff,-0x74c(%rbp)
    dd5b:	81 aa f0 
    dd5e:	c7 85 b8 f8 ff ff 00 	movl   $0x0,-0x748(%rbp)
    dd65:	00 00 00 
    dd68:	c7 85 bc f8 ff ff 00 	movl   $0x0,-0x744(%rbp)
    dd6f:	00 00 00 
    dd72:	c7 85 c0 f8 ff ff 22 	movl   $0x89565b22,-0x740(%rbp)
    dd79:	5b 56 89 
    dd7c:	c7 85 c4 f8 ff ff 4b 	movl   $0x7b23754b,-0x73c(%rbp)
    dd83:	75 23 7b 
    dd86:	c7 85 c8 f8 ff ff 22 	movl   $0x89565b22,-0x738(%rbp)
    dd8d:	5b 56 89 
    dd90:	c7 85 cc f8 ff ff 00 	movl   $0x0,-0x734(%rbp)
    dd97:	00 00 00 
    dd9a:	48 8d 05 ff c6 00 00 	lea    0xc6ff(%rip),%rax        # 1a4a0 <g_141>
    dda1:	48 89 85 28 f0 ff ff 	mov    %rax,-0xfd8(%rbp)
    dda8:	48 8d 85 90 ef ff ff 	lea    -0x1070(%rbp),%rax
    ddaf:	48 89 85 30 f0 ff ff 	mov    %rax,-0xfd0(%rbp)
    ddb6:	48 8d 05 9f d4 00 00 	lea    0xd49f(%rip),%rax        # 1b25c <g_1008>
    ddbd:	48 89 85 38 f0 ff ff 	mov    %rax,-0xfc8(%rbp)
    ddc4:	0f b7 85 0e ef ff ff 	movzwl -0x10f2(%rbp),%eax
    ddcb:	44 0f b7 e0          	movzwl %ax,%r12d
    ddcf:	0f b7 85 0e ef ff ff 	movzwl -0x10f2(%rbp),%eax
    ddd6:	0f b6 d8             	movzbl %al,%ebx
    ddd9:	48 8b 95 90 ef ff ff 	mov    -0x1070(%rbp),%rdx
    dde0:	48 8b 85 30 f0 ff ff 	mov    -0xfd0(%rbp),%rax
    dde7:	48 89 10             	mov    %rdx,(%rax)
    ddea:	48 8b 85 10 f0 ff ff 	mov    -0xff0(%rbp),%rax
    ddf1:	c6 00 01             	movb   $0x1,(%rax)
    ddf4:	48 8b 85 10 f0 ff ff 	mov    -0xff0(%rbp),%rax
    ddfb:	0f b6 00             	movzbl (%rax),%eax
    ddfe:	0f b6 c0             	movzbl %al,%eax
    de01:	be bd 00 00 00       	mov    $0xbd,%esi
    de06:	89 c7                	mov    %eax,%edi
    de08:	e8 86 8d ff ff       	callq  6b93 <safe_mul_func_uint8_t_u_u>
    de0d:	0f b6 c0             	movzbl %al,%eax
    de10:	be fb 00 00 00       	mov    $0xfb,%esi
    de15:	89 c7                	mov    %eax,%edi
    de17:	e8 bf 8d ff ff       	callq  6bdb <safe_div_func_uint8_t_u_u>
    de1c:	0f b6 c0             	movzbl %al,%eax
    de1f:	89 de                	mov    %ebx,%esi
    de21:	89 c7                	mov    %eax,%edi
    de23:	e8 6b 8d ff ff       	callq  6b93 <safe_mul_func_uint8_t_u_u>
    de28:	0f b6 d0             	movzbl %al,%edx
    de2b:	0f be 85 0c ef ff ff 	movsbl -0x10f4(%rbp),%eax
    de32:	39 c2                	cmp    %eax,%edx
    de34:	0f 9c c0             	setl   %al
    de37:	0f b6 d0             	movzbl %al,%edx
    de3a:	8b 85 f4 f7 ff ff    	mov    -0x80c(%rbp),%eax
    de40:	39 c2                	cmp    %eax,%edx
    de42:	0f 97 c0             	seta   %al
    de45:	0f b6 c0             	movzbl %al,%eax
    de48:	89 c2                	mov    %eax,%edx
    de4a:	8b 05 d0 02 01 00    	mov    0x102d0(%rip),%eax        # 1e120 <g_1334>
    de50:	21 d0                	and    %edx,%eax
    de52:	89 05 c8 02 01 00    	mov    %eax,0x102c8(%rip)        # 1e120 <g_1334>
    de58:	8b 05 c2 02 01 00    	mov    0x102c2(%rip),%eax        # 1e120 <g_1334>
    de5e:	0f b6 c0             	movzbl %al,%eax
    de61:	be 31 00 00 00       	mov    $0x31,%esi
    de66:	89 c7                	mov    %eax,%edi
    de68:	e8 26 8d ff ff       	callq  6b93 <safe_mul_func_uint8_t_u_u>
    de6d:	8b 85 f4 f7 ff ff    	mov    -0x80c(%rbp),%eax
    de73:	0f be c0             	movsbl %al,%eax
    de76:	89 c6                	mov    %eax,%esi
    de78:	bf 03 00 00 00       	mov    $0x3,%edi
    de7d:	e8 52 83 ff ff       	callq  61d4 <safe_add_func_int8_t_s_s>
    de82:	be 01 00 00 00       	mov    $0x1,%esi
    de87:	bf 01 00 00 00       	mov    $0x1,%edi
    de8c:	e8 5d 84 ff ff       	callq  62ee <safe_lshift_func_int8_t_s_u>
    de91:	48 8b 85 38 f0 ff ff 	mov    -0xfc8(%rbp),%rax
    de98:	c6 00 96             	movb   $0x96,(%rax)
    de9b:	48 8b 85 38 f0 ff ff 	mov    -0xfc8(%rbp),%rax
    dea2:	0f b6 00             	movzbl (%rax),%eax
    dea5:	0f be d0             	movsbl %al,%edx
    dea8:	48 8b 05 19 f5 00 00 	mov    0xf519(%rip),%rax        # 1d3c8 <g_811>
    deaf:	48 8b 00             	mov    (%rax),%rax
    deb2:	48 8b 00             	mov    (%rax),%rax
    deb5:	8b 08                	mov    (%rax),%ecx
    deb7:	83 e9 01             	sub    $0x1,%ecx
    deba:	89 08                	mov    %ecx,(%rax)
    debc:	89 d6                	mov    %edx,%esi
    debe:	bf 01 00 00 00       	mov    $0x1,%edi
    dec3:	e8 6d 84 ff ff       	callq  6335 <safe_rshift_func_int8_t_s_s>
    dec8:	0f be d0             	movsbl %al,%edx
    decb:	48 8b 05 26 f3 00 00 	mov    0xf326(%rip),%rax        # 1d1f8 <g_713>
    ded2:	48 8b 00             	mov    (%rax),%rax
    ded5:	48 8b 00             	mov    (%rax),%rax
    ded8:	44 31 e2             	xor    %r12d,%edx
    dedb:	89 10                	mov    %edx,(%rax)
    dedd:	0f b7 05 18 c6 00 00 	movzwl 0xc618(%rip),%eax        # 1a4fc <g_243+0xc>
    dee4:	83 c0 01             	add    $0x1,%eax
    dee7:	66 89 05 0e c6 00 00 	mov    %ax,0xc60e(%rip)        # 1a4fc <g_243+0xc>
    deee:	0f b7 05 07 c6 00 00 	movzwl 0xc607(%rip),%eax        # 1a4fc <g_243+0xc>
    def5:	66 83 f8 05          	cmp    $0x5,%ax
    def9:	0f 85 43 fc ff ff    	jne    db42 <func_17+0x2ee0>
    deff:	48 8b 85 80 ef ff ff 	mov    -0x1080(%rbp),%rax
    df06:	48 89 85 20 f0 ff ff 	mov    %rax,-0xfe0(%rbp)
    df0d:	48 8d 05 4c ea 00 00 	lea    0xea4c(%rip),%rax        # 1c960 <g_110>
    df14:	48 8b 5d c8          	mov    -0x38(%rbp),%rbx
    df18:	64 48 33 1c 25 28 00 	xor    %fs:0x28,%rbx
    df1f:	00 00 
    df21:	74 05                	je     df28 <func_17+0x32c6>
    df23:	e8 48 81 ff ff       	callq  6070 <__stack_chk_fail@plt>
    df28:	48 81 c4 e8 10 00 00 	add    $0x10e8,%rsp
    df2f:	5b                   	pop    %rbx
    df30:	41 5c                	pop    %r12
    df32:	41 5d                	pop    %r13
    df34:	41 5e                	pop    %r14
    df36:	41 5f                	pop    %r15
    df38:	5d                   	pop    %rbp
    df39:	c3                   	retq   

000000000000df3a <func_30>:
    df3a:	f3 0f 1e fa          	endbr64 
    df3e:	55                   	push   %rbp
    df3f:	48 89 e5             	mov    %rsp,%rbp
    df42:	89 7d ec             	mov    %edi,-0x14(%rbp)
    df45:	48 89 75 e0          	mov    %rsi,-0x20(%rbp)
    df49:	89 55 e8             	mov    %edx,-0x18(%rbp)
    df4c:	89 4d dc             	mov    %ecx,-0x24(%rbp)
    df4f:	44 89 45 d8          	mov    %r8d,-0x28(%rbp)
    df53:	c6 45 ff 01          	movb   $0x1,-0x1(%rbp)
    df57:	66 0f be 45 ff       	movsbw -0x1(%rbp),%ax
    df5c:	5d                   	pop    %rbp
    df5d:	c3                   	retq   

000000000000df5e <func_38>:
    df5e:	f3 0f 1e fa          	endbr64 
    df62:	55                   	push   %rbp
    df63:	48 89 e5             	mov    %rsp,%rbp
    df66:	41 55                	push   %r13
    df68:	41 54                	push   %r12
    df6a:	53                   	push   %rbx
    df6b:	48 81 ec 28 04 00 00 	sub    $0x428,%rsp
    df72:	48 89 bd d8 fb ff ff 	mov    %rdi,-0x428(%rbp)
    df79:	48 89 b5 d0 fb ff ff 	mov    %rsi,-0x430(%rbp)
    df80:	48 89 95 c8 fb ff ff 	mov    %rdx,-0x438(%rbp)
    df87:	64 48 8b 04 25 28 00 	mov    %fs:0x28,%rax
    df8e:	00 00 
    df90:	48 89 45 d8          	mov    %rax,-0x28(%rbp)
    df94:	31 c0                	xor    %eax,%eax
    df96:	48 8d 05 7b c3 00 00 	lea    0xc37b(%rip),%rax        # 1a318 <g_45>
    df9d:	48 89 85 a0 fc ff ff 	mov    %rax,-0x360(%rbp)
    dfa4:	48 8d 05 6d c3 00 00 	lea    0xc36d(%rip),%rax        # 1a318 <g_45>
    dfab:	48 89 85 a8 fc ff ff 	mov    %rax,-0x358(%rbp)
    dfb2:	48 c7 85 b0 fc ff ff 	movq   $0x0,-0x350(%rbp)
    dfb9:	00 00 00 00 
    dfbd:	48 8d 05 54 c3 00 00 	lea    0xc354(%rip),%rax        # 1a318 <g_45>
    dfc4:	48 89 85 b8 fc ff ff 	mov    %rax,-0x348(%rbp)
    dfcb:	48 8d 05 46 c3 00 00 	lea    0xc346(%rip),%rax        # 1a318 <g_45>
    dfd2:	48 89 85 c0 fc ff ff 	mov    %rax,-0x340(%rbp)
    dfd9:	48 c7 85 c8 fc ff ff 	movq   $0x0,-0x338(%rbp)
    dfe0:	00 00 00 00 
    dfe4:	48 8d 05 2d c3 00 00 	lea    0xc32d(%rip),%rax        # 1a318 <g_45>
    dfeb:	48 89 85 d0 fc ff ff 	mov    %rax,-0x330(%rbp)
    dff2:	48 8d 05 1f c3 00 00 	lea    0xc31f(%rip),%rax        # 1a318 <g_45>
    dff9:	48 89 85 d8 fc ff ff 	mov    %rax,-0x328(%rbp)
    e000:	c7 85 f0 fb ff ff f6 	movl   $0xfffffff6,-0x410(%rbp)
    e007:	ff ff ff 
    e00a:	48 8d 05 07 c3 00 00 	lea    0xc307(%rip),%rax        # 1a318 <g_45>
    e011:	48 89 85 e0 fc ff ff 	mov    %rax,-0x320(%rbp)
    e018:	c7 85 fc fb ff ff 37 	movl   $0x4446ca37,-0x404(%rbp)
    e01f:	ca 46 44 
    e022:	48 8d 85 98 fd ff ff 	lea    -0x268(%rbp),%rax
    e029:	48 83 c0 04          	add    $0x4,%rax
    e02d:	48 89 85 e8 fc ff ff 	mov    %rax,-0x318(%rbp)
    e034:	48 8d 05 dd c2 00 00 	lea    0xc2dd(%rip),%rax        # 1a318 <g_45>
    e03b:	48 89 85 70 fe ff ff 	mov    %rax,-0x190(%rbp)
    e042:	48 8d 05 cf c2 00 00 	lea    0xc2cf(%rip),%rax        # 1a318 <g_45>
    e049:	48 89 85 78 fe ff ff 	mov    %rax,-0x188(%rbp)
    e050:	48 8d 05 c1 c2 00 00 	lea    0xc2c1(%rip),%rax        # 1a318 <g_45>
    e057:	48 89 85 80 fe ff ff 	mov    %rax,-0x180(%rbp)
    e05e:	48 8d 05 b3 c2 00 00 	lea    0xc2b3(%rip),%rax        # 1a318 <g_45>
    e065:	48 89 85 88 fe ff ff 	mov    %rax,-0x178(%rbp)
    e06c:	48 8d 05 a5 c2 00 00 	lea    0xc2a5(%rip),%rax        # 1a318 <g_45>
    e073:	48 89 85 90 fe ff ff 	mov    %rax,-0x170(%rbp)
    e07a:	48 8d 85 98 fd ff ff 	lea    -0x268(%rbp),%rax
    e081:	48 83 c0 04          	add    $0x4,%rax
    e085:	48 89 85 98 fe ff ff 	mov    %rax,-0x168(%rbp)
    e08c:	48 8d 05 11 c0 00 00 	lea    0xc011(%rip),%rax        # 1a0a4 <g_4+0x64>
    e093:	48 89 85 a0 fe ff ff 	mov    %rax,-0x160(%rbp)
    e09a:	48 8d 85 98 fd ff ff 	lea    -0x268(%rbp),%rax
    e0a1:	48 83 c0 04          	add    $0x4,%rax
    e0a5:	48 89 85 a8 fe ff ff 	mov    %rax,-0x158(%rbp)
    e0ac:	48 8d 05 f1 bf 00 00 	lea    0xbff1(%rip),%rax        # 1a0a4 <g_4+0x64>
    e0b3:	48 89 85 b0 fe ff ff 	mov    %rax,-0x150(%rbp)
    e0ba:	48 8d 85 98 fd ff ff 	lea    -0x268(%rbp),%rax
    e0c1:	48 83 c0 04          	add    $0x4,%rax
    e0c5:	48 89 85 b8 fe ff ff 	mov    %rax,-0x148(%rbp)
    e0cc:	48 8d 05 45 c2 00 00 	lea    0xc245(%rip),%rax        # 1a318 <g_45>
    e0d3:	48 89 85 c0 fe ff ff 	mov    %rax,-0x140(%rbp)
    e0da:	48 8d 05 37 c2 00 00 	lea    0xc237(%rip),%rax        # 1a318 <g_45>
    e0e1:	48 89 85 c8 fe ff ff 	mov    %rax,-0x138(%rbp)
    e0e8:	48 8d 05 29 c2 00 00 	lea    0xc229(%rip),%rax        # 1a318 <g_45>
    e0ef:	48 89 85 d0 fe ff ff 	mov    %rax,-0x130(%rbp)
    e0f6:	48 8d 05 1b c2 00 00 	lea    0xc21b(%rip),%rax        # 1a318 <g_45>
    e0fd:	48 89 85 d8 fe ff ff 	mov    %rax,-0x128(%rbp)
    e104:	48 8d 05 0d c2 00 00 	lea    0xc20d(%rip),%rax        # 1a318 <g_45>
    e10b:	48 89 85 e0 fe ff ff 	mov    %rax,-0x120(%rbp)
    e112:	48 8d 85 98 fd ff ff 	lea    -0x268(%rbp),%rax
    e119:	48 83 c0 04          	add    $0x4,%rax
    e11d:	48 89 85 e8 fe ff ff 	mov    %rax,-0x118(%rbp)
    e124:	48 8d 05 79 bf 00 00 	lea    0xbf79(%rip),%rax        # 1a0a4 <g_4+0x64>
    e12b:	48 89 85 f0 fe ff ff 	mov    %rax,-0x110(%rbp)
    e132:	48 8d 85 98 fd ff ff 	lea    -0x268(%rbp),%rax
    e139:	48 83 c0 04          	add    $0x4,%rax
    e13d:	48 89 85 f8 fe ff ff 	mov    %rax,-0x108(%rbp)
    e144:	48 8d 05 59 bf 00 00 	lea    0xbf59(%rip),%rax        # 1a0a4 <g_4+0x64>
    e14b:	48 89 85 00 ff ff ff 	mov    %rax,-0x100(%rbp)
    e152:	48 8d 85 98 fd ff ff 	lea    -0x268(%rbp),%rax
    e159:	48 83 c0 04          	add    $0x4,%rax
    e15d:	48 89 85 08 ff ff ff 	mov    %rax,-0xf8(%rbp)
    e164:	48 8d 05 ad c1 00 00 	lea    0xc1ad(%rip),%rax        # 1a318 <g_45>
    e16b:	48 89 85 10 ff ff ff 	mov    %rax,-0xf0(%rbp)
    e172:	48 8d 05 9f c1 00 00 	lea    0xc19f(%rip),%rax        # 1a318 <g_45>
    e179:	48 89 85 18 ff ff ff 	mov    %rax,-0xe8(%rbp)
    e180:	48 8d 05 91 c1 00 00 	lea    0xc191(%rip),%rax        # 1a318 <g_45>
    e187:	48 89 85 20 ff ff ff 	mov    %rax,-0xe0(%rbp)
    e18e:	48 8d 05 83 c1 00 00 	lea    0xc183(%rip),%rax        # 1a318 <g_45>
    e195:	48 89 85 28 ff ff ff 	mov    %rax,-0xd8(%rbp)
    e19c:	48 8d 05 75 c1 00 00 	lea    0xc175(%rip),%rax        # 1a318 <g_45>
    e1a3:	48 89 85 30 ff ff ff 	mov    %rax,-0xd0(%rbp)
    e1aa:	48 8d 85 98 fd ff ff 	lea    -0x268(%rbp),%rax
    e1b1:	48 83 c0 04          	add    $0x4,%rax
    e1b5:	48 89 85 38 ff ff ff 	mov    %rax,-0xc8(%rbp)
    e1bc:	48 8d 05 e1 be 00 00 	lea    0xbee1(%rip),%rax        # 1a0a4 <g_4+0x64>
    e1c3:	48 89 85 40 ff ff ff 	mov    %rax,-0xc0(%rbp)
    e1ca:	48 8d 85 98 fd ff ff 	lea    -0x268(%rbp),%rax
    e1d1:	48 83 c0 04          	add    $0x4,%rax
    e1d5:	48 89 85 48 ff ff ff 	mov    %rax,-0xb8(%rbp)
    e1dc:	48 8d 05 c1 be 00 00 	lea    0xbec1(%rip),%rax        # 1a0a4 <g_4+0x64>
    e1e3:	48 89 85 50 ff ff ff 	mov    %rax,-0xb0(%rbp)
    e1ea:	48 8d 85 98 fd ff ff 	lea    -0x268(%rbp),%rax
    e1f1:	48 83 c0 04          	add    $0x4,%rax
    e1f5:	48 89 85 58 ff ff ff 	mov    %rax,-0xa8(%rbp)
    e1fc:	48 8d 05 15 c1 00 00 	lea    0xc115(%rip),%rax        # 1a318 <g_45>
    e203:	48 89 85 60 ff ff ff 	mov    %rax,-0xa0(%rbp)
    e20a:	48 8d 05 07 c1 00 00 	lea    0xc107(%rip),%rax        # 1a318 <g_45>
    e211:	48 89 85 68 ff ff ff 	mov    %rax,-0x98(%rbp)
    e218:	48 8d 05 f9 c0 00 00 	lea    0xc0f9(%rip),%rax        # 1a318 <g_45>
    e21f:	48 89 85 70 ff ff ff 	mov    %rax,-0x90(%rbp)
    e226:	48 8d 05 eb c0 00 00 	lea    0xc0eb(%rip),%rax        # 1a318 <g_45>
    e22d:	48 89 85 78 ff ff ff 	mov    %rax,-0x88(%rbp)
    e234:	48 8d 05 dd c0 00 00 	lea    0xc0dd(%rip),%rax        # 1a318 <g_45>
    e23b:	48 89 45 80          	mov    %rax,-0x80(%rbp)
    e23f:	48 8d 85 98 fd ff ff 	lea    -0x268(%rbp),%rax
    e246:	48 83 c0 04          	add    $0x4,%rax
    e24a:	48 89 45 88          	mov    %rax,-0x78(%rbp)
    e24e:	48 8d 05 4f be 00 00 	lea    0xbe4f(%rip),%rax        # 1a0a4 <g_4+0x64>
    e255:	48 89 45 90          	mov    %rax,-0x70(%rbp)
    e259:	48 8d 85 98 fd ff ff 	lea    -0x268(%rbp),%rax
    e260:	48 83 c0 04          	add    $0x4,%rax
    e264:	48 89 45 98          	mov    %rax,-0x68(%rbp)
    e268:	48 8d 05 35 be 00 00 	lea    0xbe35(%rip),%rax        # 1a0a4 <g_4+0x64>
    e26f:	48 89 45 a0          	mov    %rax,-0x60(%rbp)
    e273:	48 8d 85 98 fd ff ff 	lea    -0x268(%rbp),%rax
    e27a:	48 83 c0 04          	add    $0x4,%rax
    e27e:	48 89 45 a8          	mov    %rax,-0x58(%rbp)
    e282:	48 8d 05 8f c0 00 00 	lea    0xc08f(%rip),%rax        # 1a318 <g_45>
    e289:	48 89 45 b0          	mov    %rax,-0x50(%rbp)
    e28d:	48 8d 05 84 c0 00 00 	lea    0xc084(%rip),%rax        # 1a318 <g_45>
    e294:	48 89 45 b8          	mov    %rax,-0x48(%rbp)
    e298:	48 8d 05 79 c0 00 00 	lea    0xc079(%rip),%rax        # 1a318 <g_45>
    e29f:	48 89 45 c0          	mov    %rax,-0x40(%rbp)
    e2a3:	48 8d 05 6e c0 00 00 	lea    0xc06e(%rip),%rax        # 1a318 <g_45>
    e2aa:	48 89 45 c8          	mov    %rax,-0x38(%rbp)
    e2ae:	48 8d 05 63 c0 00 00 	lea    0xc063(%rip),%rax        # 1a318 <g_45>
    e2b5:	48 89 45 d0          	mov    %rax,-0x30(%rbp)
    e2b9:	48 8d 05 20 ef 00 00 	lea    0xef20(%rip),%rax        # 1d1e0 <g_371>
    e2c0:	48 89 85 68 fc ff ff 	mov    %rax,-0x398(%rbp)
    e2c7:	48 8d 85 68 fc ff ff 	lea    -0x398(%rbp),%rax
    e2ce:	48 89 85 f0 fc ff ff 	mov    %rax,-0x310(%rbp)
    e2d5:	66 c7 85 ea fb ff ff 	movw   $0x0,-0x416(%rbp)
    e2dc:	00 00 
    e2de:	48 b8 8b 30 63 5b c5 	movabs $0x2b10a7c55b63308b,%rax
    e2e5:	a7 10 2b 
    e2e8:	48 89 85 e0 fd ff ff 	mov    %rax,-0x220(%rbp)
    e2ef:	48 89 85 e8 fd ff ff 	mov    %rax,-0x218(%rbp)
    e2f6:	48 89 85 f0 fd ff ff 	mov    %rax,-0x210(%rbp)
    e2fd:	48 89 85 f8 fd ff ff 	mov    %rax,-0x208(%rbp)
    e304:	48 89 85 00 fe ff ff 	mov    %rax,-0x200(%rbp)
    e30b:	48 89 85 08 fe ff ff 	mov    %rax,-0x1f8(%rbp)
    e312:	48 89 85 10 fe ff ff 	mov    %rax,-0x1f0(%rbp)
    e319:	48 89 85 18 fe ff ff 	mov    %rax,-0x1e8(%rbp)
    e320:	c7 85 00 fc ff ff ff 	movl   $0xffffffff,-0x400(%rbp)
    e327:	ff ff ff 
    e32a:	c7 85 04 fc ff ff 00 	movl   $0x0,-0x3fc(%rbp)
    e331:	00 00 00 
    e334:	48 c7 85 f8 fc ff ff 	movq   $0xfffffffffffffff9,-0x308(%rbp)
    e33b:	f9 ff ff ff 
    e33f:	c6 85 e2 fb ff ff ff 	movb   $0xff,-0x41e(%rbp)
    e346:	48 8d 05 57 c1 00 00 	lea    0xc157(%rip),%rax        # 1a4a4 <g_141+0x4>
    e34d:	48 89 85 70 fc ff ff 	mov    %rax,-0x390(%rbp)
    e354:	48 8d 85 70 fc ff ff 	lea    -0x390(%rbp),%rax
    e35b:	48 89 85 78 fc ff ff 	mov    %rax,-0x388(%rbp)
    e362:	48 8d 85 78 fc ff ff 	lea    -0x388(%rbp),%rax
    e369:	48 89 85 00 fd ff ff 	mov    %rax,-0x300(%rbp)
    e370:	48 c7 85 80 fc ff ff 	movq   $0x0,-0x380(%rbp)
    e377:	00 00 00 00 
    e37b:	48 8d 85 80 fc ff ff 	lea    -0x380(%rbp),%rax
    e382:	48 89 85 08 fd ff ff 	mov    %rax,-0x2f8(%rbp)
    e389:	66 c7 85 e6 fb ff ff 	movw   $0x8e76,-0x41a(%rbp)
    e390:	76 8e 
    e392:	c6 85 e3 fb ff ff 16 	movb   $0x16,-0x41d(%rbp)
    e399:	48 c7 85 10 fd ff ff 	movq   $0x0,-0x2f0(%rbp)
    e3a0:	00 00 00 00 
    e3a4:	48 b8 91 1e 38 d2 c0 	movabs $0x24c5c6c0d2381e91,%rax
    e3ab:	c6 c5 24 
    e3ae:	48 89 85 18 fd ff ff 	mov    %rax,-0x2e8(%rbp)
    e3b5:	48 8d 05 a0 ce 00 00 	lea    0xcea0(%rip),%rax        # 1b25c <g_1008>
    e3bc:	48 89 85 20 fd ff ff 	mov    %rax,-0x2e0(%rbp)
    e3c3:	48 b8 6f 88 e5 10 3f 	movabs $0xe6d6673f10e5886f,%rax
    e3ca:	67 d6 e6 
    e3cd:	48 89 85 98 fc ff ff 	mov    %rax,-0x368(%rbp)
    e3d4:	c7 85 f4 fb ff ff 00 	movl   $0x0,-0x40c(%rbp)
    e3db:	00 00 00 
    e3de:	eb 1a                	jmp    e3fa <func_38+0x49c>
    e3e0:	8b 85 f4 fb ff ff    	mov    -0x40c(%rbp),%eax
    e3e6:	48 98                	cltq   
    e3e8:	c7 84 85 98 fd ff ff 	movl   $0xa26b1312,-0x268(%rbp,%rax,4)
    e3ef:	12 13 6b a2 
    e3f3:	83 85 f4 fb ff ff 01 	addl   $0x1,-0x40c(%rbp)
    e3fa:	83 bd f4 fb ff ff 02 	cmpl   $0x2,-0x40c(%rbp)
    e401:	7e dd                	jle    e3e0 <func_38+0x482>
    e403:	8b 05 3b c0 00 00    	mov    0xc03b(%rip),%eax        # 1a444 <g_61>
    e409:	83 e8 01             	sub    $0x1,%eax
    e40c:	89 05 32 c0 00 00    	mov    %eax,0xc032(%rip)        # 1a444 <g_61>
    e412:	c7 85 f0 fb ff ff 00 	movl   $0x0,-0x410(%rbp)
    e419:	00 00 00 
    e41c:	e9 64 03 00 00       	jmpq   e785 <func_38+0x827>
    e421:	48 c7 85 60 fd ff ff 	movq   $0xfffffffffffffffa,-0x2a0(%rbp)
    e428:	fa ff ff ff 
    e42c:	48 b8 06 fc 06 fc 06 	movabs $0xfc06fc06fc06fc06,%rax
    e433:	fc 06 fc 
    e436:	48 89 85 b0 fd ff ff 	mov    %rax,-0x250(%rbp)
    e43d:	48 89 85 b8 fd ff ff 	mov    %rax,-0x248(%rbp)
    e444:	48 89 85 c0 fd ff ff 	mov    %rax,-0x240(%rbp)
    e44b:	48 8d 05 9e ed 00 00 	lea    0xed9e(%rip),%rax        # 1d1f0 <g_498>
    e452:	48 89 85 68 fd ff ff 	mov    %rax,-0x298(%rbp)
    e459:	c7 85 2c fc ff ff 45 	movl   $0xe7fe1a45,-0x3d4(%rbp)
    e460:	1a fe e7 
    e463:	c7 85 20 fe ff ff 8d 	movl   $0x6b9ecf8d,-0x1e0(%rbp)
    e46a:	cf 9e 6b 
    e46d:	c7 85 24 fe ff ff 8d 	movl   $0x6b9ecf8d,-0x1dc(%rbp)
    e474:	cf 9e 6b 
    e477:	c7 85 28 fe ff ff 00 	movl   $0x0,-0x1d8(%rbp)
    e47e:	00 00 00 
    e481:	c7 85 2c fe ff ff 36 	movl   $0xe6060836,-0x1d4(%rbp)
    e488:	08 06 e6 
    e48b:	c7 85 30 fe ff ff 1c 	movl   $0x80222e1c,-0x1d0(%rbp)
    e492:	2e 22 80 
    e495:	c7 85 34 fe ff ff 36 	movl   $0xe6060836,-0x1cc(%rbp)
    e49c:	08 06 e6 
    e49f:	c7 85 38 fe ff ff 00 	movl   $0x0,-0x1c8(%rbp)
    e4a6:	00 00 00 
    e4a9:	c7 85 3c fe ff ff 8d 	movl   $0x6b9ecf8d,-0x1c4(%rbp)
    e4b0:	cf 9e 6b 
    e4b3:	c7 85 40 fe ff ff 8d 	movl   $0x6b9ecf8d,-0x1c0(%rbp)
    e4ba:	cf 9e 6b 
    e4bd:	c7 85 44 fe ff ff 00 	movl   $0x0,-0x1bc(%rbp)
    e4c4:	00 00 00 
    e4c7:	c7 85 48 fe ff ff 36 	movl   $0xe6060836,-0x1b8(%rbp)
    e4ce:	08 06 e6 
    e4d1:	c7 85 4c fe ff ff 1c 	movl   $0x80222e1c,-0x1b4(%rbp)
    e4d8:	2e 22 80 
    e4db:	c7 85 50 fe ff ff 36 	movl   $0xe6060836,-0x1b0(%rbp)
    e4e2:	08 06 e6 
    e4e5:	c7 85 54 fe ff ff 00 	movl   $0x0,-0x1ac(%rbp)
    e4ec:	00 00 00 
    e4ef:	c7 85 58 fe ff ff 8d 	movl   $0x6b9ecf8d,-0x1a8(%rbp)
    e4f6:	cf 9e 6b 
    e4f9:	c7 85 5c fe ff ff 8d 	movl   $0x6b9ecf8d,-0x1a4(%rbp)
    e500:	cf 9e 6b 
    e503:	c7 85 60 fe ff ff 00 	movl   $0x0,-0x1a0(%rbp)
    e50a:	00 00 00 
    e50d:	c7 85 64 fe ff ff 36 	movl   $0xe6060836,-0x19c(%rbp)
    e514:	08 06 e6 
    e517:	48 b8 15 3c ec b6 29 	movabs $0x98a35129b6ec3c15,%rax
    e51e:	51 a3 98 
    e521:	48 89 85 70 fd ff ff 	mov    %rax,-0x290(%rbp)
    e528:	48 8d 85 e0 fd ff ff 	lea    -0x220(%rbp),%rax
    e52f:	48 83 c0 08          	add    $0x8,%rax
    e533:	48 89 85 88 fc ff ff 	mov    %rax,-0x378(%rbp)
    e53a:	48 8d 85 88 fc ff ff 	lea    -0x378(%rbp),%rax
    e541:	48 89 85 78 fd ff ff 	mov    %rax,-0x288(%rbp)
    e548:	48 8d 85 88 fc ff ff 	lea    -0x378(%rbp),%rax
    e54f:	48 89 85 80 fd ff ff 	mov    %rax,-0x280(%rbp)
    e556:	c7 85 30 fc ff ff 04 	movl   $0x4,-0x3d0(%rbp)
    e55d:	00 00 00 
    e560:	66 c7 85 e8 fb ff ff 	movw   $0xffff,-0x418(%rbp)
    e567:	ff ff 
    e569:	c7 85 f8 fb ff ff 00 	movl   $0x0,-0x408(%rbp)
    e570:	00 00 00 
    e573:	eb 1a                	jmp    e58f <func_38+0x631>
    e575:	8b 85 f8 fb ff ff    	mov    -0x408(%rbp),%eax
    e57b:	48 98                	cltq   
    e57d:	c7 84 85 a4 fd ff ff 	movl   $0x1,-0x25c(%rbp,%rax,4)
    e584:	01 00 00 00 
    e588:	83 85 f8 fb ff ff 01 	addl   $0x1,-0x408(%rbp)
    e58f:	83 bd f8 fb ff ff 02 	cmpl   $0x2,-0x408(%rbp)
    e596:	7e dd                	jle    e575 <func_38+0x617>
    e598:	48 c7 85 d8 fb ff ff 	movq   $0x0,-0x428(%rbp)
    e59f:	00 00 00 00 
    e5a3:	e9 e8 00 00 00       	jmpq   e690 <func_38+0x732>
    e5a8:	66 c7 85 ec fb ff ff 	movw   $0x0,-0x414(%rbp)
    e5af:	00 00 
    e5b1:	66 c7 85 ee fb ff ff 	movw   $0xbaeb,-0x412(%rbp)
    e5b8:	eb ba 
    e5ba:	48 8d 05 47 bf 00 00 	lea    0xbf47(%rip),%rax        # 1a508 <g_286>
    e5c1:	48 89 85 88 fd ff ff 	mov    %rax,-0x278(%rbp)
    e5c8:	c7 85 34 fc ff ff fa 	movl   $0xfffffffa,-0x3cc(%rbp)
    e5cf:	ff ff ff 
    e5d2:	c7 85 38 fc ff ff ff 	movl   $0xffffffff,-0x3c8(%rbp)
    e5d9:	ff ff ff 
    e5dc:	48 8d 05 fd eb 00 00 	lea    0xebfd(%rip),%rax        # 1d1e0 <g_371>
    e5e3:	48 89 85 90 fc ff ff 	mov    %rax,-0x370(%rbp)
    e5ea:	48 8d 85 90 fc ff ff 	lea    -0x370(%rbp),%rax
    e5f1:	48 89 85 90 fd ff ff 	mov    %rax,-0x270(%rbp)
    e5f8:	c6 85 e5 fb ff ff ff 	movb   $0xff,-0x41b(%rbp)
    e5ff:	c7 85 3c fc ff ff f9 	movl   $0xfffffff9,-0x3c4(%rbp)
    e606:	ff ff ff 
    e609:	c7 85 40 fc ff ff ac 	movl   $0xf307a7ac,-0x3c0(%rbp)
    e610:	a7 07 f3 
    e613:	c7 85 44 fc ff ff 29 	movl   $0xed316829,-0x3bc(%rbp)
    e61a:	68 31 ed 
    e61d:	c7 85 48 fc ff ff 05 	movl   $0x5,-0x3b8(%rbp)
    e624:	00 00 00 
    e627:	c7 85 4c fc ff ff ff 	movl   $0xffffffff,-0x3b4(%rbp)
    e62e:	ff ff ff 
    e631:	c7 85 50 fc ff ff ff 	movl   $0xffffffff,-0x3b0(%rbp)
    e638:	ff ff ff 
    e63b:	c7 85 54 fc ff ff aa 	movl   $0x8937daa,-0x3ac(%rbp)
    e642:	7d 93 08 
    e645:	c7 85 58 fc ff ff ff 	movl   $0xffffffff,-0x3a8(%rbp)
    e64c:	ff ff ff 
    e64f:	c7 85 5c fc ff ff fb 	movl   $0xfffffffb,-0x3a4(%rbp)
    e656:	ff ff ff 
    e659:	c7 85 60 fc ff ff 02 	movl   $0x2,-0x3a0(%rbp)
    e660:	00 00 00 
    e663:	c7 85 64 fc ff ff 04 	movl   $0x820ee04,-0x39c(%rbp)
    e66a:	ee 20 08 
    e66d:	48 8b 85 d0 fc ff ff 	mov    -0x330(%rbp),%rax
    e674:	8b 10                	mov    (%rax),%edx
    e676:	0f bf 85 ec fb ff ff 	movswl -0x414(%rbp),%eax
    e67d:	21 c2                	and    %eax,%edx
    e67f:	48 8b 85 d0 fc ff ff 	mov    -0x330(%rbp),%rax
    e686:	89 10                	mov    %edx,(%rax)
    e688:	48 83 ad d8 fb ff ff 	subq   $0x1,-0x428(%rbp)
    e68f:	01 
    e690:	48 83 bd d8 fb ff ff 	cmpq   $0x0,-0x428(%rbp)
    e697:	00 
    e698:	0f 89 0a ff ff ff    	jns    e5a8 <func_38+0x64a>
    e69e:	0f b7 85 e8 fb ff ff 	movzwl -0x418(%rbp),%eax
    e6a5:	0f b7 d8             	movzwl %ax,%ebx
    e6a8:	0f b7 05 71 be 00 00 	movzwl 0xbe71(%rip),%eax        # 1a520 <g_387>
    e6af:	44 0f bf e8          	movswl %ax,%r13d
    e6b3:	4c 8b a5 d8 fb ff ff 	mov    -0x428(%rbp),%r12
    e6ba:	48 8b 85 d0 fb ff ff 	mov    -0x430(%rbp),%rax
    e6c1:	8b 10                	mov    (%rax),%edx
    e6c3:	48 8b 85 d0 fb ff ff 	mov    -0x430(%rbp),%rax
    e6ca:	8b 00                	mov    (%rax),%eax
    e6cc:	89 d6                	mov    %edx,%esi
    e6ce:	89 c7                	mov    %eax,%edi
    e6d0:	e8 2a 80 ff ff       	callq  66ff <safe_div_func_int32_t_s_s>
    e6d5:	4c 89 e6             	mov    %r12,%rsi
    e6d8:	48 bf 8d 32 7c 44 4a 	movabs $0xb49cc04a447c328d,%rdi
    e6df:	c0 9c b4 
    e6e2:	e8 47 89 ff ff       	callq  702e <safe_add_func_uint64_t_u_u>
    e6e7:	89 85 2c fc ff ff    	mov    %eax,-0x3d4(%rbp)
    e6ed:	b8 00 00 00 00       	mov    $0x0,%eax
    e6f2:	89 c2                	mov    %eax,%edx
    e6f4:	48 8b 85 d8 fb ff ff 	mov    -0x428(%rbp),%rax
    e6fb:	31 d0                	xor    %edx,%eax
    e6fd:	0f b6 d0             	movzbl %al,%edx
    e700:	0f b7 05 e9 c0 00 00 	movzwl 0xc0e9(%rip),%eax        # 1a7f0 <g_936>
    e707:	0f b6 c0             	movzbl %al,%eax
    e70a:	89 d6                	mov    %edx,%esi
    e70c:	89 c7                	mov    %eax,%edi
    e70e:	e8 47 84 ff ff       	callq  6b5a <safe_add_func_uint8_t_u_u>
    e713:	be 04 00 00 00       	mov    $0x4,%esi
    e718:	bf 01 00 00 00       	mov    $0x1,%edi
    e71d:	e8 58 87 ff ff       	callq  6e7a <safe_rshift_func_uint16_t_u_u>
    e722:	0f b7 d0             	movzwl %ax,%edx
    e725:	48 8b 85 c8 fb ff ff 	mov    -0x438(%rbp),%rax
    e72c:	48 8b 00             	mov    (%rax),%rax
    e72f:	8b 00                	mov    (%rax),%eax
    e731:	89 d6                	mov    %edx,%esi
    e733:	89 c7                	mov    %eax,%edi
    e735:	e8 92 7f ff ff       	callq  66cc <safe_mod_func_int32_t_s_s>
    e73a:	89 c2                	mov    %eax,%edx
    e73c:	8b 05 22 bd 00 00    	mov    0xbd22(%rip),%eax        # 1a464 <g_89+0x4>
    e742:	39 c2                	cmp    %eax,%edx
    e744:	b8 01 00 00 00       	mov    $0x1,%eax
    e749:	48 98                	cltq   
    e74b:	48 39 85 d8 fb ff ff 	cmp    %rax,-0x428(%rbp)
    e752:	0f 9c c0             	setl   %al
    e755:	0f b6 c0             	movzbl %al,%eax
    e758:	41 39 c5             	cmp    %eax,%r13d
    e75b:	0f 94 c0             	sete   %al
    e75e:	0f b6 c0             	movzbl %al,%eax
    e761:	48 89 de             	mov    %rbx,%rsi
    e764:	48 89 c7             	mov    %rax,%rdi
    e767:	e8 8b 82 ff ff       	callq  69f7 <safe_div_func_int64_t_s_s>
    e76c:	be 00 00 00 00       	mov    $0x0,%esi
    e771:	89 c7                	mov    %eax,%edi
    e773:	e8 8d 7e ff ff       	callq  6605 <safe_sub_func_int32_t_s_s>
    e778:	89 85 58 fe ff ff    	mov    %eax,-0x1a8(%rbp)
    e77e:	83 ad f0 fb ff ff 01 	subl   $0x1,-0x410(%rbp)
    e785:	83 bd f0 fb ff ff 00 	cmpl   $0x0,-0x410(%rbp)
    e78c:	0f 89 8f fc ff ff    	jns    e421 <func_38+0x4c3>
    e792:	66 c7 05 ef bc 00 00 	movw   $0xfff8,0xbcef(%rip)        # 1a48a <g_129>
    e799:	f8 ff 
    e79b:	e9 98 05 00 00       	jmpq   ed38 <func_38+0xdda>
    e7a0:	c7 85 08 fc ff ff fe 	movl   $0xfffffffe,-0x3f8(%rbp)
    e7a7:	ff ff ff 
    e7aa:	48 8d 05 87 bb 00 00 	lea    0xbb87(%rip),%rax        # 1a338 <g_59+0x18>
    e7b1:	48 89 85 28 fd ff ff 	mov    %rax,-0x2d8(%rbp)
    e7b8:	48 8d 05 09 be 00 00 	lea    0xbe09(%rip),%rax        # 1a5c8 <g_527>
    e7bf:	48 89 85 30 fd ff ff 	mov    %rax,-0x2d0(%rbp)
    e7c6:	c7 85 0c fc ff ff 00 	movl   $0x0,-0x3f4(%rbp)
    e7cd:	00 00 00 
    e7d0:	48 8d 05 11 ea 00 00 	lea    0xea11(%rip),%rax        # 1d1e8 <g_499>
    e7d7:	48 89 85 38 fd ff ff 	mov    %rax,-0x2c8(%rbp)
    e7de:	c7 85 10 fc ff ff f7 	movl   $0xfffffff7,-0x3f0(%rbp)
    e7e5:	ff ff ff 
    e7e8:	c7 85 14 fc ff ff b0 	movl   $0xb2448b0,-0x3ec(%rbp)
    e7ef:	48 24 0b 
    e7f2:	c7 85 b0 fd ff ff 07 	movl   $0x7,-0x250(%rbp)
    e7f9:	00 00 00 
    e7fc:	c7 85 b4 fd ff ff 01 	movl   $0x1,-0x24c(%rbp)
    e803:	00 00 00 
    e806:	c7 85 b8 fd ff ff 07 	movl   $0x7,-0x248(%rbp)
    e80d:	00 00 00 
    e810:	c7 85 bc fd ff ff 07 	movl   $0x7,-0x244(%rbp)
    e817:	00 00 00 
    e81a:	c7 85 c0 fd ff ff 01 	movl   $0x1,-0x240(%rbp)
    e821:	00 00 00 
    e824:	c7 85 c4 fd ff ff 07 	movl   $0x7,-0x23c(%rbp)
    e82b:	00 00 00 
    e82e:	c7 85 c8 fd ff ff 07 	movl   $0x7,-0x238(%rbp)
    e835:	00 00 00 
    e838:	c7 85 cc fd ff ff 01 	movl   $0x1,-0x234(%rbp)
    e83f:	00 00 00 
    e842:	c7 85 d0 fd ff ff 07 	movl   $0x7,-0x230(%rbp)
    e849:	00 00 00 
    e84c:	c7 85 d4 fd ff ff 07 	movl   $0x7,-0x22c(%rbp)
    e853:	00 00 00 
    e856:	48 8b 85 b8 fc ff ff 	mov    -0x348(%rbp),%rax
    e85d:	8b 00                	mov    (%rax),%eax
    e85f:	0f bf d8             	movswl %ax,%ebx
    e862:	48 8b 85 68 fc ff ff 	mov    -0x398(%rbp),%rax
    e869:	48 8b 00             	mov    (%rax),%rax
    e86c:	48 8b 95 c8 fb ff ff 	mov    -0x438(%rbp),%rdx
    e873:	48 8b 12             	mov    (%rdx),%rdx
    e876:	48 89 10             	mov    %rdx,(%rax)
    e879:	0f b7 05 0a bc 00 00 	movzwl 0xbc0a(%rip),%eax        # 1a48a <g_129>
    e880:	44 0f b7 e0          	movzwl %ax,%r12d
    e884:	48 8b 85 28 fd ff ff 	mov    -0x2d8(%rbp),%rax
    e88b:	48 8b 00             	mov    (%rax),%rax
    e88e:	83 e0 01             	and    $0x1,%eax
    e891:	48 89 c2             	mov    %rax,%rdx
    e894:	48 8b 85 28 fd ff ff 	mov    -0x2d8(%rbp),%rax
    e89b:	48 89 10             	mov    %rdx,(%rax)
    e89e:	48 8b 85 28 fd ff ff 	mov    -0x2d8(%rbp),%rax
    e8a5:	48 8b 00             	mov    (%rax),%rax
    e8a8:	48 39 85 d8 fb ff ff 	cmp    %rax,-0x428(%rbp)
    e8af:	0f 9e c0             	setle  %al
    e8b2:	44 0f b6 e8          	movzbl %al,%r13d
    e8b6:	8b 05 04 bd 00 00    	mov    0xbd04(%rip),%eax        # 1a5c0 <g_524+0x10>
    e8bc:	0f b6 c0             	movzbl %al,%eax
    e8bf:	be 07 00 00 00       	mov    $0x7,%esi
    e8c4:	89 c7                	mov    %eax,%edi
    e8c6:	e8 c2 83 ff ff       	callq  6c8d <safe_rshift_func_uint8_t_u_s>
    e8cb:	0f b6 c0             	movzbl %al,%eax
    e8ce:	48 8b 95 d8 fb ff ff 	mov    -0x428(%rbp),%rdx
    e8d5:	21 c2                	and    %eax,%edx
    e8d7:	48 8b 05 9a ea 00 00 	mov    0xea9a(%rip),%rax        # 1d378 <g_813>
    e8de:	89 10                	mov    %edx,(%rax)
    e8e0:	8b 00                	mov    (%rax),%eax
    e8e2:	44 89 ee             	mov    %r13d,%esi
    e8e5:	89 c7                	mov    %eax,%edi
    e8e7:	e8 fa 85 ff ff       	callq  6ee6 <safe_mul_func_uint32_t_u_u>
    e8ec:	0f b7 c0             	movzwl %ax,%eax
    e8ef:	44 89 e6             	mov    %r12d,%esi
    e8f2:	89 c7                	mov    %eax,%edi
    e8f4:	e8 63 84 ff ff       	callq  6d5c <safe_mod_func_uint16_t_u_u>
    e8f9:	48 8b 95 30 fd ff ff 	mov    -0x2d0(%rbp),%rdx
    e900:	8b 12                	mov    (%rdx),%edx
    e902:	0f b7 c0             	movzwl %ax,%eax
    e905:	09 c2                	or     %eax,%edx
    e907:	48 8b 85 30 fd ff ff 	mov    -0x2d0(%rbp),%rax
    e90e:	89 10                	mov    %edx,(%rax)
    e910:	48 8b 85 30 fd ff ff 	mov    -0x2d0(%rbp),%rax
    e917:	8b 10                	mov    (%rax),%edx
    e919:	48 8b 85 d0 fb ff ff 	mov    -0x430(%rbp),%rax
    e920:	8b 00                	mov    (%rax),%eax
    e922:	39 c2                	cmp    %eax,%edx
    e924:	48 8b 05 25 ea 00 00 	mov    0xea25(%rip),%rax        # 1d350 <g_747>
    e92b:	48 8b 00             	mov    (%rax),%rax
    e92e:	48 39 85 10 fd ff ff 	cmp    %rax,-0x2f0(%rbp)
    e935:	0f 95 c0             	setne  %al
    e938:	0f b6 c0             	movzbl %al,%eax
    e93b:	89 05 c3 c8 00 00    	mov    %eax,0xc8c3(%rip)        # 1b204 <g_995>
    e941:	8b 05 bd c8 00 00    	mov    0xc8bd(%rip),%eax        # 1b204 <g_995>
    e947:	85 c0                	test   %eax,%eax
    e949:	74 11                	je     e95c <func_38+0x9fe>
    e94b:	48 83 bd d8 fb ff ff 	cmpq   $0x0,-0x428(%rbp)
    e952:	00 
    e953:	74 07                	je     e95c <func_38+0x9fe>
    e955:	b8 01 00 00 00       	mov    $0x1,%eax
    e95a:	eb 05                	jmp    e961 <func_38+0xa03>
    e95c:	b8 00 00 00 00       	mov    $0x0,%eax
    e961:	48 98                	cltq   
    e963:	48 39 85 d8 fb ff ff 	cmp    %rax,-0x428(%rbp)
    e96a:	0f 9d c0             	setge  %al
    e96d:	0f b6 d0             	movzbl %al,%edx
    e970:	48 8b 85 a0 fc ff ff 	mov    -0x360(%rbp),%rax
    e977:	8b 00                	mov    (%rax),%eax
    e979:	31 95 0c fc ff ff    	xor    %edx,-0x3f4(%rbp)
    e97f:	33 85 0c fc ff ff    	xor    -0x3f4(%rbp),%eax
    e985:	89 c2                	mov    %eax,%edx
    e987:	8b 05 37 b7 00 00    	mov    0xb737(%rip),%eax        # 1a0c4 <g_4+0x84>
    e98d:	39 c2                	cmp    %eax,%edx
    e98f:	0f 9f c0             	setg   %al
    e992:	0f b6 d0             	movzbl %al,%edx
    e995:	8b 85 08 fc ff ff    	mov    -0x3f8(%rbp),%eax
    e99b:	0f b6 c0             	movzbl %al,%eax
    e99e:	89 d6                	mov    %edx,%esi
    e9a0:	89 c7                	mov    %eax,%edi
    e9a2:	e8 ec 81 ff ff       	callq  6b93 <safe_mul_func_uint8_t_u_u>
    e9a7:	0f b6 c0             	movzbl %al,%eax
    e9aa:	89 de                	mov    %ebx,%esi
    e9ac:	89 c7                	mov    %eax,%edi
    e9ae:	e8 20 7a ff ff       	callq  63d3 <safe_sub_func_int16_t_s_s>
    e9b3:	48 8b 95 e8 fc ff ff 	mov    -0x318(%rbp),%rdx
    e9ba:	8b 12                	mov    (%rdx),%edx
    e9bc:	98                   	cwtl   
    e9bd:	09 c2                	or     %eax,%edx
    e9bf:	48 8b 85 e8 fc ff ff 	mov    -0x318(%rbp),%rax
    e9c6:	89 10                	mov    %edx,(%rax)
    e9c8:	48 8b 85 d0 fb ff ff 	mov    -0x430(%rbp),%rax
    e9cf:	8b 00                	mov    (%rax),%eax
    e9d1:	85 c0                	test   %eax,%eax
    e9d3:	0f 85 72 03 00 00    	jne    ed4b <func_38+0xded>
    e9d9:	48 8b 85 f0 fc ff ff 	mov    -0x310(%rbp),%rax
    e9e0:	48 8b 00             	mov    (%rax),%rax
    e9e3:	48 8b 00             	mov    (%rax),%rax
    e9e6:	48 8b 00             	mov    (%rax),%rax
    e9e9:	8b 00                	mov    (%rax),%eax
    e9eb:	85 c0                	test   %eax,%eax
    e9ed:	0f 84 7f 02 00 00    	je     ec72 <func_38+0xd14>
    e9f3:	c6 85 e4 fb ff ff 04 	movb   $0x4,-0x41c(%rbp)
    e9fa:	48 83 bd 38 fd ff ff 	cmpq   $0x0,-0x2c8(%rbp)
    ea01:	00 
    ea02:	75 07                	jne    ea0b <func_38+0xaad>
    ea04:	ba f9 ff ff ff       	mov    $0xfffffff9,%edx
    ea09:	eb 05                	jmp    ea10 <func_38+0xab2>
    ea0b:	ba f8 ff ff ff       	mov    $0xfffffff8,%edx
    ea10:	8b 85 0c fc ff ff    	mov    -0x3f4(%rbp),%eax
    ea16:	0f b7 c0             	movzwl %ax,%eax
    ea19:	89 d6                	mov    %edx,%esi
    ea1b:	89 c7                	mov    %eax,%edi
    ea1d:	e8 e4 83 ff ff       	callq  6e06 <safe_lshift_func_uint16_t_u_u>
    ea22:	80 bd e4 fb ff ff 06 	cmpb   $0x6,-0x41c(%rbp)
    ea29:	0f 9e c0             	setle  %al
    ea2c:	0f b6 c0             	movzbl %al,%eax
    ea2f:	89 c2                	mov    %eax,%edx
    ea31:	8b 05 89 bb 00 00    	mov    0xbb89(%rip),%eax        # 1a5c0 <g_524+0x10>
    ea37:	39 c2                	cmp    %eax,%edx
    ea39:	0f 85 c8 00 00 00    	jne    eb07 <func_38+0xba9>
    ea3f:	48 8d 05 2a df 00 00 	lea    0xdf2a(%rip),%rax        # 1c970 <g_111>
    ea46:	48 89 85 50 fd ff ff 	mov    %rax,-0x2b0(%rbp)
    ea4d:	48 8d 05 b4 ba 00 00 	lea    0xbab4(%rip),%rax        # 1a508 <g_286>
    ea54:	48 89 85 58 fd ff ff 	mov    %rax,-0x2a8(%rbp)
    ea5b:	c7 85 28 fc ff ff eb 	movl   $0x73a8fbeb,-0x3d8(%rbp)
    ea62:	fb a8 73 
    ea65:	48 8b 05 0c df 00 00 	mov    0xdf0c(%rip),%rax        # 1c978 <g_113>
    ea6c:	48 8b 10             	mov    (%rax),%rdx
    ea6f:	48 8b 85 50 fd ff ff 	mov    -0x2b0(%rbp),%rax
    ea76:	48 89 10             	mov    %rdx,(%rax)
    ea79:	48 0f be 95 e4 fb ff 	movsbq -0x41c(%rbp),%rdx
    ea80:	ff 
    ea81:	48 8b 85 28 fd ff ff 	mov    -0x2d8(%rbp),%rax
    ea88:	48 89 10             	mov    %rdx,(%rax)
    ea8b:	48 8b 85 28 fd ff ff 	mov    -0x2d8(%rbp),%rax
    ea92:	48 8b 00             	mov    (%rax),%rax
    ea95:	48 89 c2             	mov    %rax,%rdx
    ea98:	48 8b 85 58 fd ff ff 	mov    -0x2a8(%rbp),%rax
    ea9f:	48 c7 00 01 00 00 00 	movq   $0x1,(%rax)
    eaa6:	48 8b 85 58 fd ff ff 	mov    -0x2a8(%rbp),%rax
    eaad:	48 8b 00             	mov    (%rax),%rax
    eab0:	48 89 d6             	mov    %rdx,%rsi
    eab3:	48 89 c7             	mov    %rax,%rdi
    eab6:	e8 f4 85 ff ff       	callq  70af <safe_div_func_uint64_t_u_u>
    eabb:	8b 95 28 fc ff ff    	mov    -0x3d8(%rbp),%edx
    eac1:	48 63 d2             	movslq %edx,%rdx
    eac4:	48 39 d0             	cmp    %rdx,%rax
    eac7:	0f 96 c0             	setbe  %al
    eaca:	0f b6 d0             	movzbl %al,%edx
    eacd:	8b 05 4d c7 00 00    	mov    0xc74d(%rip),%eax        # 1b220 <g_1005>
    ead3:	85 c0                	test   %eax,%eax
    ead5:	75 09                	jne    eae0 <func_38+0xb82>
    ead7:	83 bd 0c fc ff ff 00 	cmpl   $0x0,-0x3f4(%rbp)
    eade:	74 07                	je     eae7 <func_38+0xb89>
    eae0:	b8 01 00 00 00       	mov    $0x1,%eax
    eae5:	eb 05                	jmp    eaec <func_38+0xb8e>
    eae7:	b8 00 00 00 00       	mov    $0x0,%eax
    eaec:	98                   	cwtl   
    eaed:	89 d6                	mov    %edx,%esi
    eaef:	89 c7                	mov    %eax,%edi
    eaf1:	e8 6d 7a ff ff       	callq  6563 <safe_rshift_func_int16_t_s_u>
    eaf6:	0f bf d0             	movswl %ax,%edx
    eaf9:	48 8b 85 e8 fc ff ff 	mov    -0x318(%rbp),%rax
    eb00:	89 10                	mov    %edx,(%rax)
    eb02:	e9 20 02 00 00       	jmpq   ed27 <func_38+0xdc9>
    eb07:	48 8d 05 fa b9 00 00 	lea    0xb9fa(%rip),%rax        # 1a508 <g_286>
    eb0e:	48 89 85 40 fd ff ff 	mov    %rax,-0x2c0(%rbp)
    eb15:	48 8d 05 2c ba 00 00 	lea    0xba2c(%rip),%rax        # 1a548 <g_429>
    eb1c:	48 89 85 48 fd ff ff 	mov    %rax,-0x2b8(%rbp)
    eb23:	c7 85 24 fc ff ff f8 	movl   $0xfffffff8,-0x3dc(%rbp)
    eb2a:	ff ff ff 
    eb2d:	8b 05 c1 b5 00 00    	mov    0xb5c1(%rip),%eax        # 1a0f4 <g_4+0xb4>
    eb33:	89 c3                	mov    %eax,%ebx
    eb35:	48 8b 05 8c bc 00 00 	mov    0xbc8c(%rip),%rax        # 1a7c8 <g_823>
    eb3c:	41 89 c4             	mov    %eax,%r12d
    eb3f:	48 8b 85 d8 fb ff ff 	mov    -0x428(%rbp),%rax
    eb46:	0f bf d0             	movswl %ax,%edx
    eb49:	48 8d 05 10 b9 00 00 	lea    0xb910(%rip),%rax        # 1a460 <g_89>
    eb50:	48 89 05 79 e8 00 00 	mov    %rax,0xe879(%rip)        # 1d3d0 <g_1026>
    eb57:	48 8b 05 72 de 00 00 	mov    0xde72(%rip),%rax        # 1c9d0 <g_139>
    eb5e:	48 8b 00             	mov    (%rax),%rax
    eb61:	48 8d 0d f8 b8 00 00 	lea    0xb8f8(%rip),%rcx        # 1a460 <g_89>
    eb68:	48 39 c8             	cmp    %rcx,%rax
    eb6b:	0f 94 c0             	sete   %al
    eb6e:	0f b6 c8             	movzbl %al,%ecx
    eb71:	48 8b 85 40 fd ff ff 	mov    -0x2c0(%rbp),%rax
    eb78:	48 89 08             	mov    %rcx,(%rax)
    eb7b:	48 8b 85 40 fd ff ff 	mov    -0x2c0(%rbp),%rax
    eb82:	48 8b 00             	mov    (%rax),%rax
    eb85:	48 b9 db f5 1d 56 be 	movabs $0x4c51cbe561df5db,%rcx
    eb8c:	1c c5 04 
    eb8f:	48 39 c8             	cmp    %rcx,%rax
    eb92:	0f 97 c0             	seta   %al
    eb95:	0f b6 c8             	movzbl %al,%ecx
    eb98:	48 8b 05 59 e6 00 00 	mov    0xe659(%rip),%rax        # 1d1f8 <g_713>
    eb9f:	48 8b 00             	mov    (%rax),%rax
    eba2:	48 8b 00             	mov    (%rax),%rax
    eba5:	8b 00                	mov    (%rax),%eax
    eba7:	39 c1                	cmp    %eax,%ecx
    eba9:	0f 9e c0             	setle  %al
    ebac:	0f b6 c8             	movzbl %al,%ecx
    ebaf:	48 8b 85 48 fd ff ff 	mov    -0x2b8(%rbp),%rax
    ebb6:	66 89 08             	mov    %cx,(%rax)
    ebb9:	48 8d 85 e0 fd ff ff 	lea    -0x220(%rbp),%rax
    ebc0:	48 83 c0 08          	add    $0x8,%rax
    ebc4:	48 39 85 28 fd ff ff 	cmp    %rax,-0x2d8(%rbp)
    ebcb:	0f 94 c0             	sete   %al
    ebce:	0f b6 c8             	movzbl %al,%ecx
    ebd1:	48 8b 85 c8 fb ff ff 	mov    -0x438(%rbp),%rax
    ebd8:	48 8b 00             	mov    (%rax),%rax
    ebdb:	8b 00                	mov    (%rax),%eax
    ebdd:	39 c1                	cmp    %eax,%ecx
    ebdf:	8b 05 c7 c6 00 00    	mov    0xc6c7(%rip),%eax        # 1b2ac <g_1027+0xc>
    ebe5:	98                   	cwtl   
    ebe6:	89 d6                	mov    %edx,%esi
    ebe8:	89 c7                	mov    %eax,%edi
    ebea:	e8 06 78 ff ff       	callq  63f5 <safe_mul_func_int16_t_s_s>
    ebef:	0f b7 c0             	movzwl %ax,%eax
    ebf2:	be e7 8c 00 00       	mov    $0x8ce7,%esi
    ebf7:	89 c7                	mov    %eax,%edi
    ebf9:	e8 5e 81 ff ff       	callq  6d5c <safe_mod_func_uint16_t_u_u>
    ebfe:	0f b7 c0             	movzwl %ax,%eax
    ec01:	be 00 00 00 00       	mov    $0x0,%esi
    ec06:	89 c7                	mov    %eax,%edi
    ec08:	e8 c3 82 ff ff       	callq  6ed0 <safe_sub_func_uint32_t_u_u>
    ec0d:	89 c6                	mov    %eax,%esi
    ec0f:	bf fd ff 00 00       	mov    $0xfffd,%edi
    ec14:	e8 2f 82 ff ff       	callq  6e48 <safe_rshift_func_uint16_t_u_s>
    ec19:	66 85 c0             	test   %ax,%ax
    ec1c:	75 07                	jne    ec25 <func_38+0xcc7>
    ec1e:	83 bd 24 fc ff ff 00 	cmpl   $0x0,-0x3dc(%rbp)
    ec25:	8b 85 24 fc ff ff    	mov    -0x3dc(%rbp),%eax
    ec2b:	0f b7 c0             	movzwl %ax,%eax
    ec2e:	44 89 e6             	mov    %r12d,%esi
    ec31:	89 c7                	mov    %eax,%edi
    ec33:	e8 10 82 ff ff       	callq  6e48 <safe_rshift_func_uint16_t_u_s>
    ec38:	0f be c0             	movsbl %al,%eax
    ec3b:	89 de                	mov    %ebx,%esi
    ec3d:	89 c7                	mov    %eax,%edi
    ec3f:	e8 28 77 ff ff       	callq  636c <safe_rshift_func_int8_t_s_u>
    ec44:	84 c0                	test   %al,%al
    ec46:	74 08                	je     ec50 <func_38+0xcf2>
    ec48:	48 83 bd d8 fb ff ff 	cmpq   $0x0,-0x428(%rbp)
    ec4f:	00 
    ec50:	48 8b 05 21 e7 00 00 	mov    0xe721(%rip),%rax        # 1d378 <g_813>
    ec57:	c7 00 01 00 00 00    	movl   $0x1,(%rax)
    ec5d:	0f be 95 e4 fb ff ff 	movsbl -0x41c(%rbp),%edx
    ec64:	48 8b 85 b8 fc ff ff 	mov    -0x348(%rbp),%rax
    ec6b:	89 10                	mov    %edx,(%rax)
    ec6d:	e9 b5 00 00 00       	jmpq   ed27 <func_38+0xdc9>
    ec72:	c7 85 18 fc ff ff d4 	movl   $0x12b3b6d4,-0x3e8(%rbp)
    ec79:	b6 b3 12 
    ec7c:	c7 85 1c fc ff ff 13 	movl   $0xfe45b713,-0x3e4(%rbp)
    ec83:	b7 45 fe 
    ec86:	c7 85 20 fc ff ff d0 	movl   $0xd01be5d0,-0x3e0(%rbp)
    ec8d:	e5 1b d0 
    ec90:	c7 85 20 fe ff ff 85 	movl   $0xc8415985,-0x1e0(%rbp)
    ec97:	59 41 c8 
    ec9a:	c7 85 24 fe ff ff 85 	movl   $0xc8415985,-0x1dc(%rbp)
    eca1:	59 41 c8 
    eca4:	c7 85 28 fe ff ff 77 	movl   $0x3703fe77,-0x1d8(%rbp)
    ecab:	fe 03 37 
    ecae:	c7 85 2c fe ff ff 85 	movl   $0xc8415985,-0x1d4(%rbp)
    ecb5:	59 41 c8 
    ecb8:	c7 85 30 fe ff ff 85 	movl   $0xc8415985,-0x1d0(%rbp)
    ecbf:	59 41 c8 
    ecc2:	c7 85 34 fe ff ff 77 	movl   $0x3703fe77,-0x1cc(%rbp)
    ecc9:	fe 03 37 
    eccc:	c7 85 38 fe ff ff 85 	movl   $0xc8415985,-0x1c8(%rbp)
    ecd3:	59 41 c8 
    ecd6:	c7 85 3c fe ff ff 85 	movl   $0xc8415985,-0x1c4(%rbp)
    ecdd:	59 41 c8 
    ece0:	c7 85 40 fe ff ff 77 	movl   $0x3703fe77,-0x1c0(%rbp)
    ece7:	fe 03 37 
    ecea:	c7 85 44 fe ff ff 85 	movl   $0xc8415985,-0x1bc(%rbp)
    ecf1:	59 41 c8 
    ecf4:	48 8d 85 e6 fb ff ff 	lea    -0x41a(%rbp),%rax
    ecfb:	48 89 85 20 fd ff ff 	mov    %rax,-0x2e0(%rbp)
    ed02:	48 8d 05 83 b7 00 00 	lea    0xb783(%rip),%rax        # 1a48c <g_134>
    ed09:	48 39 85 20 fd ff ff 	cmp    %rax,-0x2e0(%rbp)
    ed10:	0f 95 c0             	setne  %al
    ed13:	0f b6 d0             	movzbl %al,%edx
    ed16:	48 8b 85 a0 fc ff ff 	mov    -0x360(%rbp),%rax
    ed1d:	89 10                	mov    %edx,(%rax)
    ed1f:	48 83 85 98 fc ff ff 	addq   $0x1,-0x368(%rbp)
    ed26:	01 
    ed27:	0f b7 05 5c b7 00 00 	movzwl 0xb75c(%rip),%eax        # 1a48a <g_129>
    ed2e:	83 e8 01             	sub    $0x1,%eax
    ed31:	66 89 05 52 b7 00 00 	mov    %ax,0xb752(%rip)        # 1a48a <g_129>
    ed38:	0f b7 05 4b b7 00 00 	movzwl 0xb74b(%rip),%eax        # 1a48a <g_129>
    ed3f:	66 83 f8 e9          	cmp    $0xffe9,%ax
    ed43:	0f 8c 57 fa ff ff    	jl     e7a0 <func_38+0x842>
    ed49:	eb 01                	jmp    ed4c <func_38+0xdee>
    ed4b:	90                   	nop
    ed4c:	48 8b 85 d8 fb ff ff 	mov    -0x428(%rbp),%rax
    ed53:	48 8b 5d d8          	mov    -0x28(%rbp),%rbx
    ed57:	64 48 33 1c 25 28 00 	xor    %fs:0x28,%rbx
    ed5e:	00 00 
    ed60:	74 05                	je     ed67 <func_38+0xe09>
    ed62:	e8 09 73 ff ff       	callq  6070 <__stack_chk_fail@plt>
    ed67:	48 81 c4 28 04 00 00 	add    $0x428,%rsp
    ed6e:	5b                   	pop    %rbx
    ed6f:	41 5c                	pop    %r12
    ed71:	41 5d                	pop    %r13
    ed73:	5d                   	pop    %rbp
    ed74:	c3                   	retq   

000000000000ed75 <func_65>:
    ed75:	f3 0f 1e fa          	endbr64 
    ed79:	55                   	push   %rbp
    ed7a:	48 89 e5             	mov    %rsp,%rbp
    ed7d:	41 57                	push   %r15
    ed7f:	41 56                	push   %r14
    ed81:	41 55                	push   %r13
    ed83:	41 54                	push   %r12
    ed85:	53                   	push   %rbx
    ed86:	48 81 ec b8 0a 00 00 	sub    $0xab8,%rsp
    ed8d:	48 89 bd 38 f5 ff ff 	mov    %rdi,-0xac8(%rbp)
    ed94:	48 89 b5 30 f5 ff ff 	mov    %rsi,-0xad0(%rbp)
    ed9b:	48 89 95 28 f5 ff ff 	mov    %rdx,-0xad8(%rbp)
    eda2:	64 48 8b 04 25 28 00 	mov    %fs:0x28,%rax
    eda9:	00 00 
    edab:	48 89 45 c8          	mov    %rax,-0x38(%rbp)
    edaf:	31 c0                	xor    %eax,%eax
    edb1:	c7 85 a8 f5 ff ff a2 	movl   $0x426ed8a2,-0xa58(%rbp)
    edb8:	d8 6e 42 
    edbb:	48 c7 85 70 f6 ff ff 	movq   $0x0,-0x990(%rbp)
    edc2:	00 00 00 00 
    edc6:	c7 85 60 f5 ff ff fe 	movl   $0xfffffffe,-0xaa0(%rbp)
    edcd:	ff ff ff 
    edd0:	c7 85 ac f5 ff ff ff 	movl   $0xffffffff,-0xa54(%rbp)
    edd7:	ff ff ff 
    edda:	c7 85 b0 f5 ff ff bf 	movl   $0xe602fbbf,-0xa50(%rbp)
    ede1:	fb 02 e6 
    ede4:	c7 85 64 f5 ff ff c6 	movl   $0x7311afc6,-0xa9c(%rbp)
    edeb:	af 11 73 
    edee:	c7 85 b4 f5 ff ff 5b 	movl   $0xffe47a5b,-0xa4c(%rbp)
    edf5:	7a e4 ff 
    edf8:	c7 85 68 f5 ff ff ff 	movl   $0xffffffff,-0xa98(%rbp)
    edff:	ff ff ff 
    ee02:	c7 85 b8 f5 ff ff 93 	movl   $0x56fa1c93,-0xa48(%rbp)
    ee09:	1c fa 56 
    ee0c:	c7 85 6c f5 ff ff 78 	movl   $0x15363378,-0xa94(%rbp)
    ee13:	33 36 15 
    ee16:	c7 85 70 f5 ff ff d4 	movl   $0xe3df97d4,-0xa90(%rbp)
    ee1d:	97 df e3 
    ee20:	c7 85 58 f5 ff ff 07 	movl   $0x7,-0xaa8(%rbp)
    ee27:	00 00 00 
    ee2a:	c7 85 74 f5 ff ff 08 	movl   $0x8,-0xa8c(%rbp)
    ee31:	00 00 00 
    ee34:	c6 85 47 f5 ff ff ff 	movb   $0xff,-0xab9(%rbp)
    ee3b:	48 8d 05 06 b7 00 00 	lea    0xb706(%rip),%rax        # 1a548 <g_429>
    ee42:	48 89 85 30 f6 ff ff 	mov    %rax,-0x9d0(%rbp)
    ee49:	48 8d 85 30 f6 ff ff 	lea    -0x9d0(%rbp),%rax
    ee50:	48 89 85 78 f6 ff ff 	mov    %rax,-0x988(%rbp)
    ee57:	c6 85 48 f5 ff ff f6 	movb   $0xf6,-0xab8(%rbp)
    ee5e:	48 c7 85 80 f6 ff ff 	movq   $0x7,-0x980(%rbp)
    ee65:	07 00 00 00 
    ee69:	c6 85 49 f5 ff ff 09 	movb   $0x9,-0xab7(%rbp)
    ee70:	48 8d 05 71 e3 00 00 	lea    0xe371(%rip),%rax        # 1d1e8 <g_499>
    ee77:	48 89 85 88 f6 ff ff 	mov    %rax,-0x978(%rbp)
    ee7e:	c7 85 78 f5 ff ff be 	movl   $0x608728be,-0xa88(%rbp)
    ee85:	28 87 60 
    ee88:	48 b8 1a 0a 41 44 63 	movabs $0xf395bc6344410a1a,%rax
    ee8f:	bc 95 f3 
    ee92:	48 89 85 60 f6 ff ff 	mov    %rax,-0x9a0(%rbp)
    ee99:	c7 85 bc f5 ff ff 32 	movl   $0x7ceb5a32,-0xa44(%rbp)
    eea0:	5a eb 7c 
    eea3:	48 8d 05 36 b7 00 00 	lea    0xb736(%rip),%rax        # 1a5e0 <g_688>
    eeaa:	48 89 85 90 f6 ff ff 	mov    %rax,-0x970(%rbp)
    eeb1:	48 c7 85 98 f6 ff ff 	movq   $0x0,-0x968(%rbp)
    eeb8:	00 00 00 00 
    eebc:	48 8d 85 58 f5 ff ff 	lea    -0xaa8(%rbp),%rax
    eec3:	48 89 85 a0 f6 ff ff 	mov    %rax,-0x960(%rbp)
    eeca:	48 b8 ff f6 ff f6 ff 	movabs $0xf6fff6fff6fff6ff,%rax
    eed1:	f6 ff f6 
    eed4:	48 89 45 bf          	mov    %rax,-0x41(%rbp)
    eed8:	c6 45 c7 ff          	movb   $0xff,-0x39(%rbp)
    eedc:	c7 85 7c f5 ff ff 00 	movl   $0x0,-0xa84(%rbp)
    eee3:	00 00 00 
    eee6:	eb 1a                	jmp    ef02 <func_65+0x18d>
    eee8:	8b 85 7c f5 ff ff    	mov    -0xa84(%rbp),%eax
    eeee:	48 98                	cltq   
    eef0:	c7 84 85 7c f7 ff ff 	movl   $0x1,-0x884(%rbp,%rax,4)
    eef7:	01 00 00 00 
    eefb:	83 85 7c f5 ff ff 01 	addl   $0x1,-0xa84(%rbp)
    ef02:	83 bd 7c f5 ff ff 00 	cmpl   $0x0,-0xa84(%rbp)
    ef09:	7e dd                	jle    eee8 <func_65+0x173>
    ef0b:	90                   	nop
    ef0c:	c7 05 56 b5 00 00 00 	movl   $0x0,0xb556(%rip)        # 1a46c <g_89+0xc>
    ef13:	00 00 00 
    ef16:	90                   	nop
    ef17:	8b 05 4f b5 00 00    	mov    0xb54f(%rip),%eax        # 1a46c <g_89+0xc>
    ef1d:	83 f8 13             	cmp    $0x13,%eax
    ef20:	7e 0b                	jle    ef2d <func_65+0x1b8>
    ef22:	8b 85 a8 f5 ff ff    	mov    -0xa58(%rbp),%eax
    ef28:	e9 db 20 00 00       	jmpq   11008 <func_65+0x2293>
    ef2d:	66 c7 05 ba b5 00 00 	movw   $0xfff4,0xb5ba(%rip)        # 1a4f0 <g_243>
    ef34:	f4 ff 
    ef36:	e9 b5 20 00 00       	jmpq   10ff0 <func_65+0x227b>
    ef3b:	48 c7 85 38 f6 ff ff 	movq   $0xffffffffffffffff,-0x9c8(%rbp)
    ef42:	ff ff ff ff 
    ef46:	48 8d 05 17 b5 00 00 	lea    0xb517(%rip),%rax        # 1a464 <g_89+0x4>
    ef4d:	48 89 85 40 f6 ff ff 	mov    %rax,-0x9c0(%rbp)
    ef54:	c7 85 c0 f5 ff ff 01 	movl   $0x1,-0xa40(%rbp)
    ef5b:	00 00 00 
    ef5e:	c7 85 5c f5 ff ff 00 	movl   $0x0,-0xaa4(%rbp)
    ef65:	00 00 00 
    ef68:	c7 85 c4 f5 ff ff f7 	movl   $0x2807b3f7,-0xa3c(%rbp)
    ef6f:	b3 07 28 
    ef72:	c7 85 c8 f5 ff ff 12 	movl   $0xa24ab212,-0xa38(%rbp)
    ef79:	b2 4a a2 
    ef7c:	c7 85 cc f5 ff ff 6c 	movl   $0x33469a6c,-0xa34(%rbp)
    ef83:	9a 46 33 
    ef86:	48 c7 85 68 f6 ff ff 	movq   $0xfffffffffffffffa,-0x998(%rbp)
    ef8d:	fa ff ff ff 
    ef91:	c7 85 d0 f5 ff ff 42 	movl   $0xed8e8342,-0xa30(%rbp)
    ef98:	83 8e ed 
    ef9b:	48 8d 85 d0 f9 ff ff 	lea    -0x630(%rbp),%rax
    efa2:	48 8d 15 57 7c 00 00 	lea    0x7c57(%rip),%rdx        # 16c00 <g_1416+0xaf8>
    efa9:	b9 2d 00 00 00       	mov    $0x2d,%ecx
    efae:	48 89 c7             	mov    %rax,%rdi
    efb1:	48 89 d6             	mov    %rdx,%rsi
    efb4:	f3 48 a5             	rep movsq %ds:(%rsi),%es:(%rdi)
    efb7:	48 8d 05 e6 b4 00 00 	lea    0xb4e6(%rip),%rax        # 1a4a4 <g_141+0x4>
    efbe:	48 89 85 a8 f6 ff ff 	mov    %rax,-0x958(%rbp)
    efc5:	48 c7 85 b0 f6 ff ff 	movq   $0x0,-0x950(%rbp)
    efcc:	00 00 00 00 
    efd0:	48 c7 85 b8 f6 ff ff 	movq   $0x0,-0x948(%rbp)
    efd7:	00 00 00 00 
    efdb:	48 8d 05 a8 b4 00 00 	lea    0xb4a8(%rip),%rax        # 1a48a <g_129>
    efe2:	48 89 85 c0 f6 ff ff 	mov    %rax,-0x940(%rbp)
    efe9:	48 8d 85 90 f8 ff ff 	lea    -0x770(%rbp),%rax
    eff0:	48 8d 15 49 d0 00 00 	lea    0xd049(%rip),%rdx        # 1c040 <g_1765+0x878>
    eff7:	b9 28 00 00 00       	mov    $0x28,%ecx
    effc:	48 89 c7             	mov    %rax,%rdi
    efff:	48 89 d6             	mov    %rdx,%rsi
    f002:	f3 48 a5             	rep movsq %ds:(%rsi),%es:(%rdi)
    f005:	c7 85 a0 f7 ff ff 00 	movl   $0x0,-0x860(%rbp)
    f00c:	00 00 00 
    f00f:	c7 85 a4 f7 ff ff 94 	movl   $0x9bfe5494,-0x85c(%rbp)
    f016:	54 fe 9b 
    f019:	c7 85 a8 f7 ff ff 00 	movl   $0x0,-0x858(%rbp)
    f020:	00 00 00 
    f023:	c7 85 ac f7 ff ff 00 	movl   $0x0,-0x854(%rbp)
    f02a:	00 00 00 
    f02d:	c7 85 b0 f7 ff ff 94 	movl   $0x9bfe5494,-0x850(%rbp)
    f034:	54 fe 9b 
    f037:	c7 85 b4 f7 ff ff 00 	movl   $0x0,-0x84c(%rbp)
    f03e:	00 00 00 
    f041:	c7 85 d4 f5 ff ff fa 	movl   $0xfffffffa,-0xa2c(%rbp)
    f048:	ff ff ff 
    f04b:	48 8d 05 9e e1 00 00 	lea    0xe19e(%rip),%rax        # 1d1f0 <g_498>
    f052:	48 89 85 c8 f6 ff ff 	mov    %rax,-0x938(%rbp)
    f059:	48 8d 05 20 b4 00 00 	lea    0xb420(%rip),%rax        # 1a480 <g_89+0x20>
    f060:	48 89 85 d0 f6 ff ff 	mov    %rax,-0x930(%rbp)
    f067:	c7 85 d8 f5 ff ff 01 	movl   $0x1,-0xa28(%rbp)
    f06e:	00 00 00 
    f071:	c7 85 80 f5 ff ff 08 	movl   $0x8,-0xa80(%rbp)
    f078:	00 00 00 
    f07b:	48 c7 85 f0 f7 ff ff 	movq   $0x0,-0x810(%rbp)
    f082:	00 00 00 00 
    f086:	48 c7 85 f8 f7 ff ff 	movq   $0x0,-0x808(%rbp)
    f08d:	00 00 00 00 
    f091:	48 c7 85 00 f8 ff ff 	movq   $0x0,-0x800(%rbp)
    f098:	00 00 00 00 
    f09c:	48 c7 85 08 f8 ff ff 	movq   $0x0,-0x7f8(%rbp)
    f0a3:	00 00 00 00 
    f0a7:	48 c7 85 10 f8 ff ff 	movq   $0x0,-0x7f0(%rbp)
    f0ae:	00 00 00 00 
    f0b2:	48 c7 85 18 f8 ff ff 	movq   $0x0,-0x7e8(%rbp)
    f0b9:	00 00 00 00 
    f0bd:	48 c7 85 20 f8 ff ff 	movq   $0x0,-0x7e0(%rbp)
    f0c4:	00 00 00 00 
    f0c8:	48 c7 85 28 f8 ff ff 	movq   $0x0,-0x7d8(%rbp)
    f0cf:	00 00 00 00 
    f0d3:	48 c7 85 30 f8 ff ff 	movq   $0x0,-0x7d0(%rbp)
    f0da:	00 00 00 00 
    f0de:	c7 85 dc f5 ff ff fc 	movl   $0xc12914fc,-0xa24(%rbp)
    f0e5:	14 29 c1 
    f0e8:	48 8d 05 41 b0 00 00 	lea    0xb041(%rip),%rax        # 1a130 <g_23+0x10>
    f0ef:	48 89 85 48 f6 ff ff 	mov    %rax,-0x9b8(%rbp)
    f0f6:	48 8d 85 48 f6 ff ff 	lea    -0x9b8(%rbp),%rax
    f0fd:	48 89 85 d8 f6 ff ff 	mov    %rax,-0x928(%rbp)
    f104:	c7 85 84 f5 ff ff 00 	movl   $0x0,-0xa7c(%rbp)
    f10b:	00 00 00 
    f10e:	eb 1e                	jmp    f12e <func_65+0x3b9>
    f110:	8b 85 84 f5 ff ff    	mov    -0xa7c(%rbp),%eax
    f116:	48 98                	cltq   
    f118:	48 8d 15 b5 b3 00 00 	lea    0xb3b5(%rip),%rdx        # 1a4d4 <g_214+0x4>
    f11f:	48 89 94 c5 80 f7 ff 	mov    %rdx,-0x880(%rbp,%rax,8)
    f126:	ff 
    f127:	83 85 84 f5 ff ff 01 	addl   $0x1,-0xa7c(%rbp)
    f12e:	83 bd 84 f5 ff ff 02 	cmpl   $0x2,-0xa7c(%rbp)
    f135:	7e d9                	jle    f110 <func_65+0x39b>
    f137:	48 8b 85 38 f6 ff ff 	mov    -0x9c8(%rbp),%rax
    f13e:	98                   	cwtl   
    f13f:	89 c6                	mov    %eax,%esi
    f141:	bf 01 00 00 00       	mov    $0x1,%edi
    f146:	e8 cb 72 ff ff       	callq  6416 <safe_mod_func_int16_t_s_s>
    f14b:	8b 85 74 f5 ff ff    	mov    -0xa8c(%rbp),%eax
    f151:	0f b7 d8             	movzwl %ax,%ebx
    f154:	44 8b a5 5c f5 ff ff 	mov    -0xaa4(%rbp),%r12d
    f15b:	8b 05 4b b3 00 00    	mov    0xb34b(%rip),%eax        # 1a4ac <g_141+0xc>
    f161:	41 89 c5             	mov    %eax,%r13d
    f164:	8b 85 60 f5 ff ff    	mov    -0xaa0(%rbp),%eax
    f16a:	88 05 41 b3 00 00    	mov    %al,0xb341(%rip)        # 1a4b1 <g_141+0x11>
    f170:	0f b6 05 3a b3 00 00 	movzbl 0xb33a(%rip),%eax        # 1a4b1 <g_141+0x11>
    f177:	0f be c0             	movsbl %al,%eax
    f17a:	be 04 00 00 00       	mov    $0x4,%esi
    f17f:	89 c7                	mov    %eax,%edi
    f181:	e8 1b 71 ff ff       	callq  62a1 <safe_lshift_func_int8_t_s_s>
    f186:	0f be d0             	movsbl %al,%edx
    f189:	48 83 bd 78 f6 ff ff 	cmpq   $0x0,-0x988(%rbp)
    f190:	00 
    f191:	0f 95 c0             	setne  %al
    f194:	0f b6 c0             	movzbl %al,%eax
    f197:	39 c2                	cmp    %eax,%edx
    f199:	0f 9d c0             	setge  %al
    f19c:	0f b6 d0             	movzbl %al,%edx
    f19f:	0f b6 85 47 f5 ff ff 	movzbl -0xab9(%rbp),%eax
    f1a6:	8d 48 01             	lea    0x1(%rax),%ecx
    f1a9:	88 8d 47 f5 ff ff    	mov    %cl,-0xab9(%rbp)
    f1af:	0f b6 c0             	movzbl %al,%eax
    f1b2:	89 d6                	mov    %edx,%esi
    f1b4:	89 c7                	mov    %eax,%edi
    f1b6:	e8 82 7b ff ff       	callq  6d3d <safe_mul_func_uint16_t_u_u>
    f1bb:	98                   	cwtl   
    f1bc:	be ff 49 00 00       	mov    $0x49ff,%esi
    f1c1:	89 c7                	mov    %eax,%edi
    f1c3:	e8 eb 71 ff ff       	callq  63b3 <safe_add_func_int16_t_s_s>
    f1c8:	66 0d fa 44          	or     $0x44fa,%ax
    f1cc:	98                   	cwtl   
    f1cd:	8b 95 c0 f5 ff ff    	mov    -0xa40(%rbp),%edx
    f1d3:	89 d6                	mov    %edx,%esi
    f1d5:	89 c7                	mov    %eax,%edi
    f1d7:	e8 b6 72 ff ff       	callq  6492 <safe_lshift_func_int16_t_s_s>
    f1dc:	0f bf d0             	movswl %ax,%edx
    f1df:	8b 85 6c f5 ff ff    	mov    -0xa94(%rbp),%eax
    f1e5:	09 d0                	or     %edx,%eax
    f1e7:	0d ff ff 00 00       	or     $0xffff,%eax
    f1ec:	89 c2                	mov    %eax,%edx
    f1ee:	48 8b 85 a8 f6 ff ff 	mov    -0x958(%rbp),%rax
    f1f5:	89 10                	mov    %edx,(%rax)
    f1f7:	48 8b 85 a8 f6 ff ff 	mov    -0x958(%rbp),%rax
    f1fe:	8b 10                	mov    (%rax),%edx
    f200:	b8 0e 00 00 00       	mov    $0xe,%eax
    f205:	0f b6 c0             	movzbl %al,%eax
    f208:	09 d0                	or     %edx,%eax
    f20a:	44 89 ee             	mov    %r13d,%esi
    f20d:	89 c7                	mov    %eax,%edi
    f20f:	e8 e9 7c ff ff       	callq  6efd <safe_mod_func_uint32_t_u_u>
    f214:	44 89 e6             	mov    %r12d,%esi
    f217:	89 c7                	mov    %eax,%edi
    f219:	e8 e1 74 ff ff       	callq  66ff <safe_div_func_int32_t_s_s>
    f21e:	be ff ff ff ff       	mov    $0xffffffff,%esi
    f223:	89 c7                	mov    %eax,%edi
    f225:	e8 8e 7c ff ff       	callq  6eb8 <safe_add_func_uint32_t_u_u>
    f22a:	48 8b 85 c0 f6 ff ff 	mov    -0x940(%rbp),%rax
    f231:	66 c7 00 07 00       	movw   $0x7,(%rax)
    f236:	83 bd d0 f5 ff ff 00 	cmpl   $0x0,-0xa30(%rbp)
    f23d:	74 07                	je     f246 <func_65+0x4d1>
    f23f:	b8 01 00 00 00       	mov    $0x1,%eax
    f244:	eb 05                	jmp    f24b <func_65+0x4d6>
    f246:	b8 00 00 00 00       	mov    $0x0,%eax
    f24b:	89 c1                	mov    %eax,%ecx
    f24d:	0f b7 15 38 b2 00 00 	movzwl 0xb238(%rip),%edx        # 1a48c <g_134>
    f254:	48 8b 85 40 f6 ff ff 	mov    -0x9c0(%rbp),%rax
    f25b:	0f bf d2             	movswl %dx,%edx
    f25e:	89 10                	mov    %edx,(%rax)
    f260:	8b 00                	mov    (%rax),%eax
    f262:	89 ce                	mov    %ecx,%esi
    f264:	89 c7                	mov    %eax,%edi
    f266:	e8 65 7c ff ff       	callq  6ed0 <safe_sub_func_uint32_t_u_u>
    f26b:	85 c0                	test   %eax,%eax
    f26d:	75 09                	jne    f278 <func_65+0x503>
    f26f:	83 bd 68 f5 ff ff 00 	cmpl   $0x0,-0xa98(%rbp)
    f276:	74 07                	je     f27f <func_65+0x50a>
    f278:	b8 01 00 00 00       	mov    $0x1,%eax
    f27d:	eb 05                	jmp    f284 <func_65+0x50f>
    f27f:	b8 00 00 00 00       	mov    $0x0,%eax
    f284:	48 63 d0             	movslq %eax,%rdx
    f287:	48 8b 85 38 f6 ff ff 	mov    -0x9c8(%rbp),%rax
    f28e:	48 31 c2             	xor    %rax,%rdx
    f291:	0f b7 05 3e b2 00 00 	movzwl 0xb23e(%rip),%eax        # 1a4d6 <g_214+0x6>
    f298:	0f b7 c0             	movzwl %ax,%eax
    f29b:	48 39 c2             	cmp    %rax,%rdx
    f29e:	0f 96 c0             	setbe  %al
    f2a1:	0f b6 c0             	movzbl %al,%eax
    f2a4:	ba fa ff ff ff       	mov    $0xfffffffa,%edx
    f2a9:	39 d0                	cmp    %edx,%eax
    f2ab:	0f 96 c0             	setbe  %al
    f2ae:	0f b6 c0             	movzbl %al,%eax
    f2b1:	89 de                	mov    %ebx,%esi
    f2b3:	89 c7                	mov    %eax,%edi
    f2b5:	e8 83 7a ff ff       	callq  6d3d <safe_mul_func_uint16_t_u_u>
    f2ba:	48 8b 85 30 f5 ff ff 	mov    -0xad0(%rbp),%rax
    f2c1:	48 8b 10             	mov    (%rax),%rdx
    f2c4:	48 8d 85 5c f5 ff ff 	lea    -0xaa4(%rbp),%rax
    f2cb:	48 39 c2             	cmp    %rax,%rdx
    f2ce:	0f 84 d2 04 00 00    	je     f7a6 <func_65+0xa31>
    f2d4:	66 c7 85 40 f8 ff ff 	movw   $0x3572,-0x7c0(%rbp)
    f2db:	72 35 
    f2dd:	66 c7 85 42 f8 ff ff 	movw   $0x3572,-0x7be(%rbp)
    f2e4:	72 35 
    f2e6:	66 c7 85 44 f8 ff ff 	movw   $0x3572,-0x7bc(%rbp)
    f2ed:	72 35 
    f2ef:	66 c7 85 46 f8 ff ff 	movw   $0x3572,-0x7ba(%rbp)
    f2f6:	72 35 
    f2f8:	c7 85 88 f5 ff ff 01 	movl   $0x1,-0xa78(%rbp)
    f2ff:	00 00 00 
    f302:	48 c7 85 e0 f6 ff ff 	movq   $0x0,-0x920(%rbp)
    f309:	00 00 00 00 
    f30d:	c7 85 e0 f5 ff ff a2 	movl   $0xbad7cea2,-0xa20(%rbp)
    f314:	ce d7 ba 
    f317:	c7 85 e4 f5 ff ff ff 	movl   $0xffffffff,-0xa1c(%rbp)
    f31e:	ff ff ff 
    f321:	c7 85 70 fd ff ff 03 	movl   $0x3,-0x290(%rbp)
    f328:	00 00 00 
    f32b:	c7 85 74 fd ff ff 03 	movl   $0x3,-0x28c(%rbp)
    f332:	00 00 00 
    f335:	c7 85 78 fd ff ff ff 	movl   $0xffffffff,-0x288(%rbp)
    f33c:	ff ff ff 
    f33f:	c7 85 7c fd ff ff 03 	movl   $0x3,-0x284(%rbp)
    f346:	00 00 00 
    f349:	c7 85 80 fd ff ff 03 	movl   $0x3,-0x280(%rbp)
    f350:	00 00 00 
    f353:	c7 85 84 fd ff ff ff 	movl   $0xffffffff,-0x27c(%rbp)
    f35a:	ff ff ff 
    f35d:	c7 85 88 fd ff ff 03 	movl   $0x3,-0x278(%rbp)
    f364:	00 00 00 
    f367:	c7 85 8c fd ff ff 03 	movl   $0x3,-0x274(%rbp)
    f36e:	00 00 00 
    f371:	c7 85 90 fd ff ff ff 	movl   $0xffffffff,-0x270(%rbp)
    f378:	ff ff ff 
    f37b:	c7 85 94 fd ff ff 03 	movl   $0x3,-0x26c(%rbp)
    f382:	00 00 00 
    f385:	c7 85 98 fd ff ff 03 	movl   $0x3,-0x268(%rbp)
    f38c:	00 00 00 
    f38f:	c7 85 9c fd ff ff ff 	movl   $0xffffffff,-0x264(%rbp)
    f396:	ff ff ff 
    f399:	c7 85 a0 fd ff ff 03 	movl   $0x3,-0x260(%rbp)
    f3a0:	00 00 00 
    f3a3:	c7 85 a4 fd ff ff 03 	movl   $0x3,-0x25c(%rbp)
    f3aa:	00 00 00 
    f3ad:	c7 85 a8 fd ff ff ff 	movl   $0xffffffff,-0x258(%rbp)
    f3b4:	ff ff ff 
    f3b7:	c7 85 ac fd ff ff 03 	movl   $0x3,-0x254(%rbp)
    f3be:	00 00 00 
    f3c1:	66 c7 85 4c f5 ff ff 	movw   $0xffff,-0xab4(%rbp)
    f3c8:	ff ff 
    f3ca:	66 c7 85 4e f5 ff ff 	movw   $0x41b6,-0xab2(%rbp)
    f3d1:	b6 41 
    f3d3:	0f b7 85 44 f8 ff ff 	movzwl -0x7bc(%rbp),%eax
    f3da:	0f be d8             	movsbl %al,%ebx
    f3dd:	8b 85 7c f7 ff ff    	mov    -0x884(%rbp),%eax
    f3e3:	4c 63 e0             	movslq %eax,%r12
    f3e6:	0f b7 85 44 f8 ff ff 	movzwl -0x7bc(%rbp),%eax
    f3ed:	44 0f bf e8          	movswl %ax,%r13d
    f3f1:	8b 85 68 f5 ff ff    	mov    -0xa98(%rbp),%eax
    f3f7:	44 0f be f0          	movsbl %al,%r14d
    f3fb:	0f b7 85 44 f8 ff ff 	movzwl -0x7bc(%rbp),%eax
    f402:	44 0f bf f8          	movswl %ax,%r15d
    f406:	0f b7 85 40 f8 ff ff 	movzwl -0x7c0(%rbp),%eax
    f40d:	0f b7 c0             	movzwl %ax,%eax
    f410:	89 85 24 f5 ff ff    	mov    %eax,-0xadc(%rbp)
    f416:	0f b7 85 44 f8 ff ff 	movzwl -0x7bc(%rbp),%eax
    f41d:	66 85 c0             	test   %ax,%ax
    f420:	75 74                	jne    f496 <func_65+0x721>
    f422:	48 8b 85 30 f5 ff ff 	mov    -0xad0(%rbp),%rax
    f429:	48 8b 00             	mov    (%rax),%rax
    f42c:	48 89 85 e0 f6 ff ff 	mov    %rax,-0x920(%rbp)
    f433:	48 8b 85 30 f5 ff ff 	mov    -0xad0(%rbp),%rax
    f43a:	48 8b 00             	mov    (%rax),%rax
    f43d:	48 39 85 e0 f6 ff ff 	cmp    %rax,-0x920(%rbp)
    f444:	0f 94 c0             	sete   %al
    f447:	0f b6 c0             	movzbl %al,%eax
    f44a:	31 85 88 f5 ff ff    	xor    %eax,-0xa78(%rbp)
    f450:	48 8b 85 68 f6 ff ff 	mov    -0x998(%rbp),%rax
    f457:	89 c2                	mov    %eax,%edx
    f459:	8b 85 88 f5 ff ff    	mov    -0xa78(%rbp),%eax
    f45f:	89 c6                	mov    %eax,%esi
    f461:	89 d7                	mov    %edx,%edi
    f463:	e8 9d 71 ff ff       	callq  6605 <safe_sub_func_int32_t_s_s>
    f468:	85 c0                	test   %eax,%eax
    f46a:	74 10                	je     f47c <func_65+0x707>
    f46c:	83 bd 6c f5 ff ff 00 	cmpl   $0x0,-0xa94(%rbp)
    f473:	74 07                	je     f47c <func_65+0x707>
    f475:	b8 01 00 00 00       	mov    $0x1,%eax
    f47a:	eb 05                	jmp    f481 <func_65+0x70c>
    f47c:	b8 00 00 00 00       	mov    $0x0,%eax
    f481:	98                   	cwtl   
    f482:	8b 95 6c f5 ff ff    	mov    -0xa94(%rbp),%edx
    f488:	89 d6                	mov    %edx,%esi
    f48a:	89 c7                	mov    %eax,%edi
    f48c:	e8 99 70 ff ff       	callq  652a <safe_rshift_func_int16_t_s_s>
    f491:	66 85 c0             	test   %ax,%ax
    f494:	74 07                	je     f49d <func_65+0x728>
    f496:	b8 01 00 00 00       	mov    $0x1,%eax
    f49b:	eb 05                	jmp    f4a2 <func_65+0x72d>
    f49d:	b8 00 00 00 00       	mov    $0x0,%eax
    f4a2:	0f b7 c0             	movzwl %ax,%eax
    f4a5:	8b b5 24 f5 ff ff    	mov    -0xadc(%rbp),%esi
    f4ab:	89 c7                	mov    %eax,%edi
    f4ad:	e8 6d 78 ff ff       	callq  6d1f <safe_sub_func_uint16_t_u_u>
    f4b2:	0f be c0             	movsbl %al,%eax
    f4b5:	44 89 fe             	mov    %r15d,%esi
    f4b8:	89 c7                	mov    %eax,%edi
    f4ba:	e8 2f 6e ff ff       	callq  62ee <safe_lshift_func_int8_t_s_u>
    f4bf:	0f be d0             	movsbl %al,%edx
    f4c2:	8b 05 c0 b0 00 00    	mov    0xb0c0(%rip),%eax        # 1a588 <g_461>
    f4c8:	21 d0                	and    %edx,%eax
    f4ca:	85 c0                	test   %eax,%eax
    f4cc:	0f 94 c0             	sete   %al
    f4cf:	0f b6 d0             	movzbl %al,%edx
    f4d2:	8b 85 58 f5 ff ff    	mov    -0xaa8(%rbp),%eax
    f4d8:	39 c2                	cmp    %eax,%edx
    f4da:	0f 95 c0             	setne  %al
    f4dd:	0f b6 c0             	movzbl %al,%eax
    f4e0:	44 89 f6             	mov    %r14d,%esi
    f4e3:	89 c7                	mov    %eax,%edi
    f4e5:	e8 08 6d ff ff       	callq  61f2 <safe_sub_func_int8_t_s_s>
    f4ea:	0f b6 c0             	movzbl %al,%eax
    f4ed:	44 89 ee             	mov    %r13d,%esi
    f4f0:	89 c7                	mov    %eax,%edi
    f4f2:	e8 c7 77 ff ff       	callq  6cbe <safe_rshift_func_uint8_t_u_u>
    f4f7:	0f be c0             	movsbl %al,%eax
    f4fa:	be 03 00 00 00       	mov    $0x3,%esi
    f4ff:	89 c7                	mov    %eax,%edi
    f501:	e8 9b 6d ff ff       	callq  62a1 <safe_lshift_func_int8_t_s_s>
    f506:	c0 e8 07             	shr    $0x7,%al
    f509:	0f b6 d0             	movzbl %al,%edx
    f50c:	0f b7 05 77 af 00 00 	movzwl 0xaf77(%rip),%eax        # 1a48a <g_129>
    f513:	98                   	cwtl   
    f514:	39 c2                	cmp    %eax,%edx
    f516:	75 07                	jne    f51f <func_65+0x7aa>
    f518:	b8 01 00 00 00       	mov    $0x1,%eax
    f51d:	eb 05                	jmp    f524 <func_65+0x7af>
    f51f:	b8 00 00 00 00       	mov    $0x0,%eax
    f524:	48 98                	cltq   
    f526:	4c 89 e6             	mov    %r12,%rsi
    f529:	48 89 c7             	mov    %rax,%rdi
    f52c:	e8 10 73 ff ff       	callq  6841 <safe_add_func_int64_t_s_s>
    f531:	48 8b 05 a8 dc 00 00 	mov    0xdca8(%rip),%rax        # 1d1e0 <g_371>
    f538:	48 8b 00             	mov    (%rax),%rax
    f53b:	48 85 c0             	test   %rax,%rax
    f53e:	0f 94 c0             	sete   %al
    f541:	0f b6 d0             	movzbl %al,%edx
    f544:	48 8b 85 c0 f6 ff ff 	mov    -0x940(%rbp),%rax
    f54b:	66 89 10             	mov    %dx,(%rax)
    f54e:	8b 85 88 f5 ff ff    	mov    -0xa78(%rbp),%eax
    f554:	0f be c0             	movsbl %al,%eax
    f557:	89 de                	mov    %ebx,%esi
    f559:	89 c7                	mov    %eax,%edi
    f55b:	e8 74 6c ff ff       	callq  61d4 <safe_add_func_int8_t_s_s>
    f560:	0f be c0             	movsbl %al,%eax
    f563:	be 01 00 00 00       	mov    $0x1,%esi
    f568:	89 c7                	mov    %eax,%edi
    f56a:	e8 65 6c ff ff       	callq  61d4 <safe_add_func_int8_t_s_s>
    f56f:	c7 85 b4 f7 ff ff 01 	movl   $0x1,-0x84c(%rbp)
    f576:	00 00 00 
    f579:	48 8b 85 38 f5 ff ff 	mov    -0xac8(%rbp),%rax
    f580:	8b 00                	mov    (%rax),%eax
    f582:	85 c0                	test   %eax,%eax
    f584:	0f 84 ec 01 00 00    	je     f776 <func_65+0xa01>
    f58a:	c7 85 e8 f5 ff ff 01 	movl   $0x1,-0xa18(%rbp)
    f591:	00 00 00 
    f594:	c7 85 ec f5 ff ff f7 	movl   $0xfffffff7,-0xa14(%rbp)
    f59b:	ff ff ff 
    f59e:	c7 85 f0 f5 ff ff d4 	movl   $0xb8704bd4,-0xa10(%rbp)
    f5a5:	4b 70 b8 
    f5a8:	c7 85 40 fb ff ff 32 	movl   $0xb7874e32,-0x4c0(%rbp)
    f5af:	4e 87 b7 
    f5b2:	c7 85 44 fb ff ff 54 	movl   $0xe14a8554,-0x4bc(%rbp)
    f5b9:	85 4a e1 
    f5bc:	c7 85 48 fb ff ff 32 	movl   $0xb7874e32,-0x4b8(%rbp)
    f5c3:	4e 87 b7 
    f5c6:	c7 85 4c fb ff ff 54 	movl   $0xe14a8554,-0x4b4(%rbp)
    f5cd:	85 4a e1 
    f5d0:	c7 85 50 fb ff ff 32 	movl   $0xb7874e32,-0x4b0(%rbp)
    f5d7:	4e 87 b7 
    f5da:	c7 85 54 fb ff ff 54 	movl   $0xe14a8554,-0x4ac(%rbp)
    f5e1:	85 4a e1 
    f5e4:	c7 85 58 fb ff ff 32 	movl   $0xb7874e32,-0x4a8(%rbp)
    f5eb:	4e 87 b7 
    f5ee:	c7 85 5c fb ff ff 54 	movl   $0xe14a8554,-0x4a4(%rbp)
    f5f5:	85 4a e1 
    f5f8:	c7 85 60 fb ff ff 32 	movl   $0xb7874e32,-0x4a0(%rbp)
    f5ff:	4e 87 b7 
    f602:	c7 85 64 fb ff ff 54 	movl   $0xe14a8554,-0x49c(%rbp)
    f609:	85 4a e1 
    f60c:	48 8d 05 77 ae 00 00 	lea    0xae77(%rip),%rax        # 1a48a <g_129>
    f613:	48 89 85 f0 f6 ff ff 	mov    %rax,-0x910(%rbp)
    f61a:	0f b6 85 48 f5 ff ff 	movzbl -0xab8(%rbp),%eax
    f621:	83 e8 01             	sub    $0x1,%eax
    f624:	88 85 48 f5 ff ff    	mov    %al,-0xab8(%rbp)
    f62a:	48 8b 85 30 f5 ff ff 	mov    -0xad0(%rbp),%rax
    f631:	48 8b 10             	mov    (%rax),%rdx
    f634:	48 8b 85 28 f5 ff ff 	mov    -0xad8(%rbp),%rax
    f63b:	48 89 10             	mov    %rdx,(%rax)
    f63e:	0f b7 85 4c f5 ff ff 	movzwl -0xab4(%rbp),%eax
    f645:	0f bf d0             	movswl %ax,%edx
    f648:	0f b6 05 3b ae 00 00 	movzbl 0xae3b(%rip),%eax        # 1a48a <g_129>
    f64f:	0f b6 c0             	movzbl %al,%eax
    f652:	89 d6                	mov    %edx,%esi
    f654:	89 c7                	mov    %eax,%edi
    f656:	e8 fa 6d ff ff       	callq  6455 <safe_div_func_int16_t_s_s>
    f65b:	89 c2                	mov    %eax,%edx
    f65d:	48 8b 85 f0 f6 ff ff 	mov    -0x910(%rbp),%rax
    f664:	88 10                	mov    %dl,(%rax)
    f666:	48 8b 85 f0 f6 ff ff 	mov    -0x910(%rbp),%rax
    f66d:	0f b6 00             	movzbl (%rax),%eax
    f670:	0f be d0             	movsbl %al,%edx
    f673:	8b 85 6c f5 ff ff    	mov    -0xa94(%rbp),%eax
    f679:	0f be c0             	movsbl %al,%eax
    f67c:	89 d6                	mov    %edx,%esi
    f67e:	89 c7                	mov    %eax,%edi
    f680:	e8 ac 6b ff ff       	callq  6231 <safe_mod_func_int8_t_s_s>
    f685:	44 0f be e0          	movsbl %al,%r12d
    f689:	8b 9d f0 f5 ff ff    	mov    -0xa10(%rbp),%ebx
    f68f:	8b 85 ec f5 ff ff    	mov    -0xa14(%rbp),%eax
    f695:	48 98                	cltq   
    f697:	48 23 85 80 f6 ff ff 	and    -0x980(%rbp),%rax
    f69e:	48 89 c2             	mov    %rax,%rdx
    f6a1:	8b 85 b4 f5 ff ff    	mov    -0xa4c(%rbp),%eax
    f6a7:	48 98                	cltq   
    f6a9:	48 39 c2             	cmp    %rax,%rdx
    f6ac:	74 0b                	je     f6b9 <func_65+0x944>
    f6ae:	0f b6 05 bc ad 00 00 	movzbl 0xadbc(%rip),%eax        # 1a471 <g_89+0x11>
    f6b5:	84 c0                	test   %al,%al
    f6b7:	74 07                	je     f6c0 <func_65+0x94b>
    f6b9:	b8 01 00 00 00       	mov    $0x1,%eax
    f6be:	eb 05                	jmp    f6c5 <func_65+0x950>
    f6c0:	b8 00 00 00 00       	mov    $0x0,%eax
    f6c5:	89 c2                	mov    %eax,%edx
    f6c7:	48 8b 05 b2 ad 00 00 	mov    0xadb2(%rip),%rax        # 1a480 <g_89+0x20>
    f6ce:	0f b6 c0             	movzbl %al,%eax
    f6d1:	89 d6                	mov    %edx,%esi
    f6d3:	89 c7                	mov    %eax,%edi
    f6d5:	e8 e4 75 ff ff       	callq  6cbe <safe_rshift_func_uint8_t_u_u>
    f6da:	84 c0                	test   %al,%al
    f6dc:	0f 95 c0             	setne  %al
    f6df:	0f b6 c0             	movzbl %al,%eax
    f6e2:	8b 95 b4 f5 ff ff    	mov    -0xa4c(%rbp),%edx
    f6e8:	89 d6                	mov    %edx,%esi
    f6ea:	89 c7                	mov    %eax,%edi
    f6ec:	e8 db 6f ff ff       	callq  66cc <safe_mod_func_int32_t_s_s>
    f6f1:	0f b6 c0             	movzbl %al,%eax
    f6f4:	89 de                	mov    %ebx,%esi
    f6f6:	89 c7                	mov    %eax,%edi
    f6f8:	e8 4f 75 ff ff       	callq  6c4c <safe_lshift_func_uint8_t_u_u>
    f6fd:	0f be d0             	movsbl %al,%edx
    f700:	8b 85 44 fb ff ff    	mov    -0x4bc(%rbp),%eax
    f706:	0f be c0             	movsbl %al,%eax
    f709:	89 d6                	mov    %edx,%esi
    f70b:	89 c7                	mov    %eax,%edi
    f70d:	e8 00 6b ff ff       	callq  6212 <safe_mul_func_int8_t_s_s>
    f712:	48 0f be d0          	movsbq %al,%rdx
    f716:	48 8b 05 33 ac 00 00 	mov    0xac33(%rip),%rax        # 1a350 <g_59+0x30>
    f71d:	48 39 c2             	cmp    %rax,%rdx
    f720:	0f 9f c0             	setg   %al
    f723:	0f b6 d0             	movzbl %al,%edx
    f726:	0f b7 85 4c f5 ff ff 	movzwl -0xab4(%rbp),%eax
    f72d:	39 c2                	cmp    %eax,%edx
    f72f:	0f 94 c0             	sete   %al
    f732:	0f b6 c0             	movzbl %al,%eax
    f735:	44 31 e0             	xor    %r12d,%eax
    f738:	48 98                	cltq   
    f73a:	ba fa ff ff ff       	mov    $0xfffffffa,%edx
    f73f:	48 09 c2             	or     %rax,%rdx
    f742:	8b 85 74 f5 ff ff    	mov    -0xa8c(%rbp),%eax
    f748:	48 98                	cltq   
    f74a:	48 39 c2             	cmp    %rax,%rdx
    f74d:	74 0a                	je     f759 <func_65+0x9e4>
    f74f:	8b 85 44 fb ff ff    	mov    -0x4bc(%rbp),%eax
    f755:	85 c0                	test   %eax,%eax
    f757:	74 07                	je     f760 <func_65+0x9eb>
    f759:	b8 01 00 00 00       	mov    $0x1,%eax
    f75e:	eb 05                	jmp    f765 <func_65+0x9f0>
    f760:	b8 00 00 00 00       	mov    $0x0,%eax
    f765:	89 85 60 f5 ff ff    	mov    %eax,-0xaa0(%rbp)
    f76b:	83 bd 60 f5 ff ff 00 	cmpl   $0x0,-0xaa0(%rbp)
    f772:	75 61                	jne    f7d5 <func_65+0xa60>
    f774:	eb 3b                	jmp    f7b1 <func_65+0xa3c>
    f776:	48 c7 85 e8 f6 ff ff 	movq   $0x0,-0x918(%rbp)
    f77d:	00 00 00 00 
    f781:	48 83 ad e8 f6 ff ff 	subq   $0x1,-0x918(%rbp)
    f788:	01 
    f789:	66 83 bd 4e f5 ff ff 	cmpw   $0x0,-0xab2(%rbp)
    f790:	00 
    f791:	0f 85 47 18 00 00    	jne    10fde <func_65+0x2269>
    f797:	0f b6 85 49 f5 ff ff 	movzbl -0xab7(%rbp),%eax
    f79e:	0f b6 c0             	movzbl %al,%eax
    f7a1:	e9 62 18 00 00       	jmpq   11008 <func_65+0x2293>
    f7a6:	8b 85 b0 f5 ff ff    	mov    -0xa50(%rbp),%eax
    f7ac:	e9 57 18 00 00       	jmpq   11008 <func_65+0x2293>
    f7b1:	48 8b 15 38 da 00 00 	mov    0xda38(%rip),%rdx        # 1d1f0 <g_498>
    f7b8:	48 8b 85 c8 f6 ff ff 	mov    -0x938(%rbp),%rax
    f7bf:	48 89 10             	mov    %rdx,(%rax)
    f7c2:	48 8b 85 c8 f6 ff ff 	mov    -0x938(%rbp),%rax
    f7c9:	48 8b 00             	mov    (%rax),%rax
    f7cc:	48 39 85 88 f6 ff ff 	cmp    %rax,-0x978(%rbp)
    f7d3:	75 07                	jne    f7dc <func_65+0xa67>
    f7d5:	b8 01 00 00 00       	mov    $0x1,%eax
    f7da:	eb 05                	jmp    f7e1 <func_65+0xa6c>
    f7dc:	b8 00 00 00 00       	mov    $0x0,%eax
    f7e1:	89 c3                	mov    %eax,%ebx
    f7e3:	83 e3 01             	and    $0x1,%ebx
    f7e6:	0f b6 85 49 f5 ff ff 	movzbl -0xab7(%rbp),%eax
    f7ed:	44 0f b6 e0          	movzbl %al,%r12d
    f7f1:	8b 05 95 ad 00 00    	mov    0xad95(%rip),%eax        # 1a58c <g_512>
    f7f7:	89 c2                	mov    %eax,%edx
    f7f9:	48 8b 05 08 ad 00 00 	mov    0xad08(%rip),%rax        # 1a508 <g_286>
    f800:	09 d0                	or     %edx,%eax
    f802:	0f b7 d0             	movzwl %ax,%edx
    f805:	8b 85 d8 f5 ff ff    	mov    -0xa28(%rbp),%eax
    f80b:	0f b7 c0             	movzwl %ax,%eax
    f80e:	89 d6                	mov    %edx,%esi
    f810:	89 c7                	mov    %eax,%edi
    f812:	e8 26 75 ff ff       	callq  6d3d <safe_mul_func_uint16_t_u_u>
    f817:	98                   	cwtl   
    f818:	89 c6                	mov    %eax,%esi
    f81a:	bf 46 e6 ff ff       	mov    $0xffffe646,%edi
    f81f:	e8 d1 6b ff ff       	callq  63f5 <safe_mul_func_int16_t_s_s>
    f824:	0f bf d0             	movswl %ax,%edx
    f827:	8b 05 77 ac 00 00    	mov    0xac77(%rip),%eax        # 1a4a4 <g_141+0x4>
    f82d:	39 c2                	cmp    %eax,%edx
    f82f:	0f 94 c0             	sete   %al
    f832:	0f b6 c0             	movzbl %al,%eax
    f835:	44 89 e6             	mov    %r12d,%esi
    f838:	89 c7                	mov    %eax,%edi
    f83a:	e8 1d 75 ff ff       	callq  6d5c <safe_mod_func_uint16_t_u_u>
    f83f:	0f b7 d0             	movzwl %ax,%edx
    f842:	0f b6 85 48 f5 ff ff 	movzbl -0xab8(%rbp),%eax
    f849:	0f b6 c0             	movzbl %al,%eax
    f84c:	31 d0                	xor    %edx,%eax
    f84e:	89 c2                	mov    %eax,%edx
    f850:	8b 05 0e ac 00 00    	mov    0xac0e(%rip),%eax        # 1a464 <g_89+0x4>
    f856:	39 c2                	cmp    %eax,%edx
    f858:	74 09                	je     f863 <func_65+0xaee>
    f85a:	83 bd a8 f5 ff ff 00 	cmpl   $0x0,-0xa58(%rbp)
    f861:	74 07                	je     f86a <func_65+0xaf5>
    f863:	b8 01 00 00 00       	mov    $0x1,%eax
    f868:	eb 05                	jmp    f86f <func_65+0xafa>
    f86a:	b8 00 00 00 00       	mov    $0x0,%eax
    f86f:	48 63 d0             	movslq %eax,%rdx
    f872:	48 8b 85 d0 f6 ff ff 	mov    -0x930(%rbp),%rax
    f879:	48 c7 00 00 00 00 00 	movq   $0x0,(%rax)
    f880:	48 8b 85 d0 f6 ff ff 	mov    -0x930(%rbp),%rax
    f887:	48 8b 00             	mov    (%rax),%rax
    f88a:	48 89 d6             	mov    %rdx,%rsi
    f88d:	48 89 c7             	mov    %rax,%rdi
    f890:	e8 13 70 ff ff       	callq  68a8 <safe_sub_func_int64_t_s_s>
    f895:	0f b6 15 15 ac 00 00 	movzbl 0xac15(%rip),%edx        # 1a4b1 <g_141+0x11>
    f89c:	48 0f be d2          	movsbq %dl,%rdx
    f8a0:	48 39 d0             	cmp    %rdx,%rax
    f8a3:	0f 9f c0             	setg   %al
    f8a6:	09 d8                	or     %ebx,%eax
    f8a8:	0f b6 c0             	movzbl %al,%eax
    f8ab:	be a1 b3 d5 88       	mov    $0x88d5b3a1,%esi
    f8b0:	89 c7                	mov    %eax,%edi
    f8b2:	e8 4e 6d ff ff       	callq  6605 <safe_sub_func_int32_t_s_s>
    f8b7:	85 c0                	test   %eax,%eax
    f8b9:	0f 84 8e 01 00 00    	je     fa4d <func_65+0xcd8>
    f8bf:	c6 85 4b f5 ff ff ff 	movb   $0xff,-0xab5(%rbp)
    f8c6:	c7 85 64 f5 ff ff 00 	movl   $0x0,-0xa9c(%rbp)
    f8cd:	00 00 00 
    f8d0:	e9 55 01 00 00       	jmpq   fa2a <func_65+0xcb5>
    f8d5:	66 c7 85 56 f5 ff ff 	movw   $0xfffb,-0xaaa(%rbp)
    f8dc:	fb ff 
    f8de:	c7 85 8c f5 ff ff 00 	movl   $0x0,-0xa74(%rbp)
    f8e5:	00 00 00 
    f8e8:	eb 42                	jmp    f92c <func_65+0xbb7>
    f8ea:	c7 85 90 f5 ff ff 00 	movl   $0x0,-0xa70(%rbp)
    f8f1:	00 00 00 
    f8f4:	eb 26                	jmp    f91c <func_65+0xba7>
    f8f6:	8b 85 90 f5 ff ff    	mov    -0xa70(%rbp),%eax
    f8fc:	48 63 d0             	movslq %eax,%rdx
    f8ff:	8b 85 8c f5 ff ff    	mov    -0xa74(%rbp),%eax
    f905:	48 98                	cltq   
    f907:	48 01 d0             	add    %rdx,%rax
    f90a:	c7 84 85 70 fd ff ff 	movl   $0xb8a0d48a,-0x290(%rbp,%rax,4)
    f911:	8a d4 a0 b8 
    f915:	83 85 90 f5 ff ff 01 	addl   $0x1,-0xa70(%rbp)
    f91c:	83 bd 90 f5 ff ff 00 	cmpl   $0x0,-0xa70(%rbp)
    f923:	7e d1                	jle    f8f6 <func_65+0xb81>
    f925:	83 85 8c f5 ff ff 01 	addl   $0x1,-0xa74(%rbp)
    f92c:	83 bd 8c f5 ff ff 04 	cmpl   $0x4,-0xa74(%rbp)
    f933:	7e b5                	jle    f8ea <func_65+0xb75>
    f935:	44 0f b7 a5 56 f5 ff 	movzwl -0xaaa(%rbp),%r12d
    f93c:	ff 
    f93d:	8b 9d b0 f5 ff ff    	mov    -0xa50(%rbp),%ebx
    f943:	0f b7 85 56 f5 ff ff 	movzwl -0xaaa(%rbp),%eax
    f94a:	48 8b 15 7f d8 00 00 	mov    0xd87f(%rip),%rdx        # 1d1d0 <g_306>
    f951:	c7 85 68 f5 ff ff 86 	movl   $0x69868c86,-0xa98(%rbp)
    f958:	8c 86 69 
    f95b:	48 89 c6             	mov    %rax,%rsi
    f95e:	bf 01 00 00 00       	mov    $0x1,%edi
    f963:	e8 d9 6e ff ff       	callq  6841 <safe_add_func_int64_t_s_s>
    f968:	be 01 00 00 00       	mov    $0x1,%esi
    f96d:	bf 00 00 00 00       	mov    $0x0,%edi
    f972:	e8 7b 68 ff ff       	callq  61f2 <safe_sub_func_int8_t_s_s>
    f977:	84 c0                	test   %al,%al
    f979:	75 0a                	jne    f985 <func_65+0xc10>
    f97b:	66 83 bd 56 f5 ff ff 	cmpw   $0x0,-0xaaa(%rbp)
    f982:	00 
    f983:	74 07                	je     f98c <func_65+0xc17>
    f985:	b8 01 00 00 00       	mov    $0x1,%eax
    f98a:	eb 05                	jmp    f991 <func_65+0xc1c>
    f98c:	b8 00 00 00 00       	mov    $0x0,%eax
    f991:	48 63 d0             	movslq %eax,%rdx
    f994:	48 8b 05 6d ab 00 00 	mov    0xab6d(%rip),%rax        # 1a508 <g_286>
    f99b:	48 21 c2             	and    %rax,%rdx
    f99e:	0f b7 85 56 f5 ff ff 	movzwl -0xaaa(%rbp),%eax
    f9a5:	48 89 d1             	mov    %rdx,%rcx
    f9a8:	48 21 c1             	and    %rax,%rcx
    f9ab:	48 8b 85 40 f6 ff ff 	mov    -0x9c0(%rbp),%rax
    f9b2:	8b 10                	mov    (%rax),%edx
    f9b4:	48 8b 85 40 f6 ff ff 	mov    -0x9c0(%rbp),%rax
    f9bb:	09 ca                	or     %ecx,%edx
    f9bd:	89 10                	mov    %edx,(%rax)
    f9bf:	8b 00                	mov    (%rax),%eax
    f9c1:	89 de                	mov    %ebx,%esi
    f9c3:	89 c7                	mov    %eax,%edi
    f9c5:	e8 06 75 ff ff       	callq  6ed0 <safe_sub_func_uint32_t_u_u>
    f9ca:	0f b6 95 4b f5 ff ff 	movzbl -0xab5(%rbp),%edx
    f9d1:	39 d0                	cmp    %edx,%eax
    f9d3:	0f 94 c0             	sete   %al
    f9d6:	0f b6 c0             	movzbl %al,%eax
    f9d9:	89 85 78 fd ff ff    	mov    %eax,-0x288(%rbp)
    f9df:	8b 85 78 fd ff ff    	mov    -0x288(%rbp),%eax
    f9e5:	89 c2                	mov    %eax,%edx
    f9e7:	48 8b 85 a8 f6 ff ff 	mov    -0x958(%rbp),%rax
    f9ee:	89 10                	mov    %edx,(%rax)
    f9f0:	48 8b 85 a8 f6 ff ff 	mov    -0x958(%rbp),%rax
    f9f7:	8b 00                	mov    (%rax),%eax
    f9f9:	41 39 c4             	cmp    %eax,%r12d
    f9fc:	0f 96 c0             	setbe  %al
    f9ff:	0f b6 c0             	movzbl %al,%eax
    fa02:	89 c2                	mov    %eax,%edx
    fa04:	8b 05 be ab 00 00    	mov    0xabbe(%rip),%eax        # 1a5c8 <g_527>
    fa0a:	31 d0                	xor    %edx,%eax
    fa0c:	89 05 b6 ab 00 00    	mov    %eax,0xabb6(%rip)        # 1a5c8 <g_527>
    fa12:	8b 85 64 f5 ff ff    	mov    -0xa9c(%rbp),%eax
    fa18:	be 01 00 00 00       	mov    $0x1,%esi
    fa1d:	89 c7                	mov    %eax,%edi
    fa1f:	e8 94 74 ff ff       	callq  6eb8 <safe_add_func_uint32_t_u_u>
    fa24:	89 85 64 f5 ff ff    	mov    %eax,-0xa9c(%rbp)
    fa2a:	83 bd 64 f5 ff ff 10 	cmpl   $0x10,-0xa9c(%rbp)
    fa31:	0f 84 9e fe ff ff    	je     f8d5 <func_65+0xb60>
    fa37:	48 8b 85 38 f5 ff ff 	mov    -0xac8(%rbp),%rax
    fa3e:	8b 00                	mov    (%rax),%eax
    fa40:	85 c0                	test   %eax,%eax
    fa42:	0f 84 6f 15 00 00    	je     10fb7 <func_65+0x2242>
    fa48:	e9 92 15 00 00       	jmpq   10fdf <func_65+0x226a>
    fa4d:	c7 85 f4 f5 ff ff f9 	movl   $0xfffffff9,-0xa0c(%rbp)
    fa54:	ff ff ff 
    fa57:	48 8d 05 53 aa 00 00 	lea    0xaa53(%rip),%rax        # 1a4b1 <g_141+0x11>
    fa5e:	48 89 85 f8 f6 ff ff 	mov    %rax,-0x908(%rbp)
    fa65:	48 8d 05 1e aa 00 00 	lea    0xaa1e(%rip),%rax        # 1a48a <g_129>
    fa6c:	48 89 85 00 f7 ff ff 	mov    %rax,-0x900(%rbp)
    fa73:	48 8d 85 38 f6 ff ff 	lea    -0x9c8(%rbp),%rax
    fa7a:	48 89 85 08 f7 ff ff 	mov    %rax,-0x8f8(%rbp)
    fa81:	c7 85 94 f5 ff ff cc 	movl   $0x8eb3c0cc,-0xa6c(%rbp)
    fa88:	c0 b3 8e 
    fa8b:	c7 85 98 f5 ff ff d7 	movl   $0x4b697fd7,-0xa68(%rbp)
    fa92:	7f 69 4b 
    fa95:	48 8d 05 54 aa 00 00 	lea    0xaa54(%rip),%rax        # 1a4f0 <g_243>
    fa9c:	48 89 85 50 f6 ff ff 	mov    %rax,-0x9b0(%rbp)
    faa3:	48 8d 05 c7 a9 00 00 	lea    0xa9c7(%rip),%rax        # 1a471 <g_89+0x11>
    faaa:	48 89 85 10 f7 ff ff 	mov    %rax,-0x8f0(%rbp)
    fab1:	48 c7 85 18 f7 ff ff 	movq   $0x0,-0x8e8(%rbp)
    fab8:	00 00 00 00 
    fabc:	c7 85 f8 f5 ff ff 00 	movl   $0x0,-0xa08(%rbp)
    fac3:	00 00 00 
    fac6:	c7 85 fc f5 ff ff 35 	movl   $0x698a4235,-0xa04(%rbp)
    facd:	42 8a 69 
    fad0:	c7 85 40 f8 ff ff 01 	movl   $0x1,-0x7c0(%rbp)
    fad7:	00 00 00 
    fada:	c7 85 44 f8 ff ff 04 	movl   $0x3ce70904,-0x7bc(%rbp)
    fae1:	09 e7 3c 
    fae4:	c7 85 48 f8 ff ff 01 	movl   $0x1,-0x7b8(%rbp)
    faeb:	00 00 00 
    faee:	c7 85 4c f8 ff ff 04 	movl   $0x3ce70904,-0x7b4(%rbp)
    faf5:	09 e7 3c 
    faf8:	c7 85 50 f8 ff ff 01 	movl   $0x1,-0x7b0(%rbp)
    faff:	00 00 00 
    fb02:	c7 85 54 f8 ff ff 04 	movl   $0x3ce70904,-0x7ac(%rbp)
    fb09:	09 e7 3c 
    fb0c:	c7 85 58 f8 ff ff 01 	movl   $0x1,-0x7a8(%rbp)
    fb13:	00 00 00 
    fb16:	c7 85 5c f8 ff ff 04 	movl   $0x3ce70904,-0x7a4(%rbp)
    fb1d:	09 e7 3c 
    fb20:	c7 85 60 f8 ff ff 01 	movl   $0x1,-0x7a0(%rbp)
    fb27:	00 00 00 
    fb2a:	c7 85 64 f8 ff ff 04 	movl   $0x3ce70904,-0x79c(%rbp)
    fb31:	09 e7 3c 
    fb34:	c7 85 68 f8 ff ff 01 	movl   $0x1,-0x798(%rbp)
    fb3b:	00 00 00 
    fb3e:	c7 85 6c f8 ff ff 04 	movl   $0x3ce70904,-0x794(%rbp)
    fb45:	09 e7 3c 
    fb48:	c7 85 70 f8 ff ff 01 	movl   $0x1,-0x790(%rbp)
    fb4f:	00 00 00 
    fb52:	c7 85 74 f8 ff ff 04 	movl   $0x3ce70904,-0x78c(%rbp)
    fb59:	09 e7 3c 
    fb5c:	c7 85 78 f8 ff ff 01 	movl   $0x1,-0x788(%rbp)
    fb63:	00 00 00 
    fb66:	c7 85 7c f8 ff ff 04 	movl   $0x3ce70904,-0x784(%rbp)
    fb6d:	09 e7 3c 
    fb70:	c7 85 80 f8 ff ff 01 	movl   $0x1,-0x780(%rbp)
    fb77:	00 00 00 
    fb7a:	c7 85 84 f8 ff ff 04 	movl   $0x3ce70904,-0x77c(%rbp)
    fb81:	09 e7 3c 
    fb84:	48 8b 85 c8 f6 ff ff 	mov    -0x938(%rbp),%rax
    fb8b:	48 8b 00             	mov    (%rax),%rax
    fb8e:	48 85 c0             	test   %rax,%rax
    fb91:	0f 94 c0             	sete   %al
    fb94:	44 0f b6 e8          	movzbl %al,%r13d
    fb98:	8b 85 f4 f5 ff ff    	mov    -0xa0c(%rbp),%eax
    fb9e:	0f bf d8             	movswl %ax,%ebx
    fba1:	c7 05 21 aa 00 00 6a 	movl   $0x6a,0xaa21(%rip)        # 1a5cc <g_535>
    fba8:	00 00 00 
    fbab:	8b 85 f4 f5 ff ff    	mov    -0xa0c(%rbp),%eax
    fbb1:	44 0f b7 e0          	movzwl %ax,%r12d
    fbb5:	8b 85 7c f7 ff ff    	mov    -0x884(%rbp),%eax
    fbbb:	89 05 eb a8 00 00    	mov    %eax,0xa8eb(%rip)        # 1a4ac <g_141+0xc>
    fbc1:	8b 05 dd a8 00 00    	mov    0xa8dd(%rip),%eax        # 1a4a4 <g_141+0x4>
    fbc7:	0f b6 d0             	movzbl %al,%edx
    fbca:	8b 85 f4 f5 ff ff    	mov    -0xa0c(%rbp),%eax
    fbd0:	0f b6 c0             	movzbl %al,%eax
    fbd3:	89 d6                	mov    %edx,%esi
    fbd5:	89 c7                	mov    %eax,%edi
    fbd7:	e8 b7 6f ff ff       	callq  6b93 <safe_mul_func_uint8_t_u_u>
    fbdc:	89 c2                	mov    %eax,%edx
    fbde:	48 8b 85 f8 f6 ff ff 	mov    -0x908(%rbp),%rax
    fbe5:	88 10                	mov    %dl,(%rax)
    fbe7:	48 8b 85 f8 f6 ff ff 	mov    -0x908(%rbp),%rax
    fbee:	0f b6 08             	movzbl (%rax),%ecx
    fbf1:	48 8b 15 88 a8 00 00 	mov    0xa888(%rip),%rdx        # 1a480 <g_89+0x20>
    fbf8:	48 8b 85 00 f7 ff ff 	mov    -0x900(%rbp),%rax
    fbff:	0f b6 00             	movzbl (%rax),%eax
    fc02:	31 c1                	xor    %eax,%ecx
    fc04:	48 8b 85 00 f7 ff ff 	mov    -0x900(%rbp),%rax
    fc0b:	88 08                	mov    %cl,(%rax)
    fc0d:	48 8b 85 00 f7 ff ff 	mov    -0x900(%rbp),%rax
    fc14:	0f b6 00             	movzbl (%rax),%eax
    fc17:	48 0f be c0          	movsbq %al,%rax
    fc1b:	48 39 c2             	cmp    %rax,%rdx
    fc1e:	0f 95 c0             	setne  %al
    fc21:	0f b6 c0             	movzbl %al,%eax
    fc24:	44 89 e6             	mov    %r12d,%esi
    fc27:	89 c7                	mov    %eax,%edi
    fc29:	e8 60 71 ff ff       	callq  6d8e <safe_div_func_uint16_t_u_u>
    fc2e:	66 85 c0             	test   %ax,%ax
    fc31:	74 07                	je     fc3a <func_65+0xec5>
    fc33:	83 bd f4 f5 ff ff 00 	cmpl   $0x0,-0xa0c(%rbp)
    fc3a:	89 de                	mov    %ebx,%esi
    fc3c:	bf 01 00 00 00       	mov    $0x1,%edi
    fc41:	e8 6d 67 ff ff       	callq  63b3 <safe_add_func_int16_t_s_s>
    fc46:	0f b7 c0             	movzwl %ax,%eax
    fc49:	be ff ff 00 00       	mov    $0xffff,%esi
    fc4e:	89 c7                	mov    %eax,%edi
    fc50:	e8 ca 70 ff ff       	callq  6d1f <safe_sub_func_uint16_t_u_u>
    fc55:	98                   	cwtl   
    fc56:	be 02 d2 ff ff       	mov    $0xffffd202,%esi
    fc5b:	89 c7                	mov    %eax,%edi
    fc5d:	e8 f3 67 ff ff       	callq  6455 <safe_div_func_int16_t_s_s>
    fc62:	98                   	cwtl   
    fc63:	41 39 c5             	cmp    %eax,%r13d
    fc66:	0f 94 c0             	sete   %al
    fc69:	0f b6 c0             	movzbl %al,%eax
    fc6c:	89 85 68 f5 ff ff    	mov    %eax,-0xa98(%rbp)
    fc72:	c7 85 5c f5 ff ff 00 	movl   $0x0,-0xaa4(%rbp)
    fc79:	00 00 00 
    fc7c:	e9 99 0c 00 00       	jmpq   1091a <func_65+0x1ba5>
    fc81:	66 c7 85 50 f5 ff ff 	movw   $0x0,-0xab0(%rbp)
    fc88:	00 00 
    fc8a:	48 8d 85 38 f6 ff ff 	lea    -0x9c8(%rbp),%rax
    fc91:	48 89 85 20 f7 ff ff 	mov    %rax,-0x8e0(%rbp)
    fc98:	c7 85 9c f5 ff ff 00 	movl   $0x0,-0xa64(%rbp)
    fc9f:	00 00 00 
    fca2:	c7 85 00 f6 ff ff fa 	movl   $0x2def77fa,-0xa00(%rbp)
    fca9:	77 ef 2d 
    fcac:	c7 85 04 f6 ff ff f9 	movl   $0xfffffff9,-0x9fc(%rbp)
    fcb3:	ff ff ff 
    fcb6:	c7 85 08 f6 ff ff 01 	movl   $0x1,-0x9f8(%rbp)
    fcbd:	00 00 00 
    fcc0:	c7 85 0c f6 ff ff 01 	movl   $0x1,-0x9f4(%rbp)
    fcc7:	00 00 00 
    fcca:	c7 85 10 f6 ff ff 35 	movl   $0x62bb935,-0x9f0(%rbp)
    fcd1:	b9 2b 06 
    fcd4:	c7 85 c0 f7 ff ff f1 	movl   $0x26369cf1,-0x840(%rbp)
    fcdb:	9c 36 26 
    fcde:	c7 85 c4 f7 ff ff 07 	movl   $0x7,-0x83c(%rbp)
    fce5:	00 00 00 
    fce8:	c7 85 c8 f7 ff ff f1 	movl   $0x26369cf1,-0x838(%rbp)
    fcef:	9c 36 26 
    fcf2:	c7 85 cc f7 ff ff 07 	movl   $0x7,-0x834(%rbp)
    fcf9:	00 00 00 
    fcfc:	c7 85 d0 f7 ff ff f1 	movl   $0x26369cf1,-0x830(%rbp)
    fd03:	9c 36 26 
    fd06:	c7 85 d4 f7 ff ff 07 	movl   $0x7,-0x82c(%rbp)
    fd0d:	00 00 00 
    fd10:	c7 85 d8 f7 ff ff f1 	movl   $0x26369cf1,-0x828(%rbp)
    fd17:	9c 36 26 
    fd1a:	c7 85 dc f7 ff ff 07 	movl   $0x7,-0x824(%rbp)
    fd21:	00 00 00 
    fd24:	c7 85 e0 f7 ff ff f1 	movl   $0x26369cf1,-0x820(%rbp)
    fd2b:	9c 36 26 
    fd2e:	c7 85 e4 f7 ff ff 07 	movl   $0x7,-0x81c(%rbp)
    fd35:	00 00 00 
    fd38:	48 b8 0d bc 2c 4d 20 	movabs $0x75084a204d2cbc0d,%rax
    fd3f:	4a 08 75 
    fd42:	48 89 85 28 f7 ff ff 	mov    %rax,-0x8d8(%rbp)
    fd49:	c7 85 6c f5 ff ff 00 	movl   $0x0,-0xa94(%rbp)
    fd50:	00 00 00 
    fd53:	e9 40 07 00 00       	jmpq   10498 <func_65+0x1723>
    fd58:	48 8d 85 48 f5 ff ff 	lea    -0xab8(%rbp),%rax
    fd5f:	48 89 85 30 f7 ff ff 	mov    %rax,-0x8d0(%rbp)
    fd66:	c7 85 70 fd ff ff 01 	movl   $0x1,-0x290(%rbp)
    fd6d:	00 00 00 
    fd70:	c7 85 74 fd ff ff 01 	movl   $0x1,-0x28c(%rbp)
    fd77:	00 00 00 
    fd7a:	c7 85 78 fd ff ff 09 	movl   $0x9,-0x288(%rbp)
    fd81:	00 00 00 
    fd84:	c7 85 7c fd ff ff 01 	movl   $0x1,-0x284(%rbp)
    fd8b:	00 00 00 
    fd8e:	c7 85 80 fd ff ff 01 	movl   $0x1,-0x280(%rbp)
    fd95:	00 00 00 
    fd98:	c7 85 84 fd ff ff 09 	movl   $0x9,-0x27c(%rbp)
    fd9f:	00 00 00 
    fda2:	c7 85 88 fd ff ff fa 	movl   $0xfffffffa,-0x278(%rbp)
    fda9:	ff ff ff 
    fdac:	c7 85 8c fd ff ff fa 	movl   $0xfffffffa,-0x274(%rbp)
    fdb3:	ff ff ff 
    fdb6:	c7 85 90 fd ff ff 09 	movl   $0x9,-0x270(%rbp)
    fdbd:	00 00 00 
    fdc0:	c7 85 94 fd ff ff c7 	movl   $0x572776c7,-0x26c(%rbp)
    fdc7:	76 27 57 
    fdca:	c7 85 98 fd ff ff 11 	movl   $0x4d9a9711,-0x268(%rbp)
    fdd1:	97 9a 4d 
    fdd4:	c7 85 9c fd ff ff c7 	movl   $0x572776c7,-0x264(%rbp)
    fddb:	76 27 57 
    fdde:	c7 85 a0 fd ff ff 09 	movl   $0x9,-0x260(%rbp)
    fde5:	00 00 00 
    fde8:	c7 85 a4 fd ff ff 11 	movl   $0x4d9a9711,-0x25c(%rbp)
    fdef:	97 9a 4d 
    fdf2:	c7 85 a8 fd ff ff 7a 	movl   $0xa0de9c7a,-0x258(%rbp)
    fdf9:	9c de a0 
    fdfc:	c7 85 ac fd ff ff 11 	movl   $0x4d9a9711,-0x254(%rbp)
    fe03:	97 9a 4d 
    fe06:	c7 85 b0 fd ff ff 09 	movl   $0x9,-0x250(%rbp)
    fe0d:	00 00 00 
    fe10:	c7 85 b4 fd ff ff c7 	movl   $0x572776c7,-0x24c(%rbp)
    fe17:	76 27 57 
    fe1a:	c7 85 b8 fd ff ff 11 	movl   $0x4d9a9711,-0x248(%rbp)
    fe21:	97 9a 4d 
    fe24:	c7 85 bc fd ff ff c7 	movl   $0x572776c7,-0x244(%rbp)
    fe2b:	76 27 57 
    fe2e:	c7 85 c0 fd ff ff 09 	movl   $0x9,-0x240(%rbp)
    fe35:	00 00 00 
    fe38:	48 c7 85 38 f7 ff ff 	movq   $0x0,-0x8c8(%rbp)
    fe3f:	00 00 00 00 
    fe43:	c7 85 a0 f5 ff ff 00 	movl   $0x0,-0xa60(%rbp)
    fe4a:	00 00 00 
    fe4d:	eb 21                	jmp    fe70 <func_65+0x10fb>
    fe4f:	8b 85 a0 f5 ff ff    	mov    -0xa60(%rbp),%eax
    fe55:	48 98                	cltq   
    fe57:	48 b9 03 6f 55 0b ce 	movabs $0x9abd4cce0b556f03,%rcx
    fe5e:	4c bd 9a 
    fe61:	48 89 8c c5 40 fb ff 	mov    %rcx,-0x4c0(%rbp,%rax,8)
    fe68:	ff 
    fe69:	83 85 a0 f5 ff ff 01 	addl   $0x1,-0xa60(%rbp)
    fe70:	83 bd a0 f5 ff ff 04 	cmpl   $0x4,-0xa60(%rbp)
    fe77:	7e d6                	jle    fe4f <func_65+0x10da>
    fe79:	c7 85 70 f5 ff ff 00 	movl   $0x0,-0xa90(%rbp)
    fe80:	00 00 00 
    fe83:	e9 47 02 00 00       	jmpq   100cf <func_65+0x135a>
    fe88:	48 8d 85 49 f5 ff ff 	lea    -0xab7(%rbp),%rax
    fe8f:	48 89 85 60 f7 ff ff 	mov    %rax,-0x8a0(%rbp)
    fe96:	48 c7 85 58 f6 ff ff 	movq   $0x0,-0x9a8(%rbp)
    fe9d:	00 00 00 00 
    fea1:	48 8d 85 58 f6 ff ff 	lea    -0x9a8(%rbp),%rax
    fea8:	48 89 85 68 f7 ff ff 	mov    %rax,-0x898(%rbp)
    feaf:	c7 85 18 f6 ff ff f7 	movl   $0x4d5a3ef7,-0x9e8(%rbp)
    feb6:	3e 5a 4d 
    feb9:	48 c7 c6 fe ff ff ff 	mov    $0xfffffffffffffffe,%rsi
    fec0:	48 bf 3b 83 04 89 cb 	movabs $0xd49893cb8904833b,%rdi
    fec7:	93 98 d4 
    feca:	e8 b1 71 ff ff       	callq  7080 <safe_mod_func_uint64_t_u_u>
    fecf:	48 89 c2             	mov    %rax,%rdx
    fed2:	48 8b 05 f7 d2 00 00 	mov    0xd2f7(%rip),%rax        # 1d1d0 <g_306>
    fed9:	89 10                	mov    %edx,(%rax)
    fedb:	48 8b 05 fe d2 00 00 	mov    0xd2fe(%rip),%rax        # 1d1e0 <g_371>
    fee2:	48 c7 00 00 00 00 00 	movq   $0x0,(%rax)
    fee9:	83 bd f4 f5 ff ff 00 	cmpl   $0x0,-0xa0c(%rbp)
    fef0:	0f 84 a4 01 00 00    	je     1009a <func_65+0x1325>
    fef6:	48 8b 85 60 f7 ff ff 	mov    -0x8a0(%rbp),%rax
    fefd:	0f b6 00             	movzbl (%rax),%eax
    ff00:	8b 15 ae a6 00 00    	mov    0xa6ae(%rip),%edx        # 1a5b4 <g_524+0x4>
    ff06:	31 c2                	xor    %eax,%edx
    ff08:	48 8b 85 60 f7 ff ff 	mov    -0x8a0(%rbp),%rax
    ff0f:	88 10                	mov    %dl,(%rax)
    ff11:	48 8b 85 60 f7 ff ff 	mov    -0x8a0(%rbp),%rax
    ff18:	0f b6 00             	movzbl (%rax),%eax
    ff1b:	0f b6 d0             	movzbl %al,%edx
    ff1e:	48 8b 85 60 fb ff ff 	mov    -0x4a0(%rbp),%rax
    ff25:	0f be c0             	movsbl %al,%eax
    ff28:	89 d6                	mov    %edx,%esi
    ff2a:	89 c7                	mov    %eax,%edi
    ff2c:	e8 3b 64 ff ff       	callq  636c <safe_rshift_func_int8_t_s_u>
    ff31:	44 0f be f8          	movsbl %al,%r15d
    ff35:	48 8b 85 80 f6 ff ff 	mov    -0x980(%rbp),%rax
    ff3c:	0f b6 d8             	movzbl %al,%ebx
    ff3f:	44 0f b7 a5 50 f5 ff 	movzwl -0xab0(%rbp),%r12d
    ff46:	ff 
    ff47:	44 8b ad 74 f5 ff ff 	mov    -0xa8c(%rbp),%r13d
    ff4e:	48 8b 85 60 fb ff ff 	mov    -0x4a0(%rbp),%rax
    ff55:	44 0f be f0          	movsbl %al,%r14d
    ff59:	48 8b 05 68 61 00 00 	mov    0x6168(%rip),%rax        # 160c8 <g_478+0x68>
    ff60:	48 3d ba bc 5c 62    	cmp    $0x625cbcba,%rax
    ff66:	0f 9f c0             	setg   %al
    ff69:	0f b6 c0             	movzbl %al,%eax
    ff6c:	48 8b 95 60 fb ff ff 	mov    -0x4a0(%rbp),%rdx
    ff73:	31 d0                	xor    %edx,%eax
    ff75:	89 c2                	mov    %eax,%edx
    ff77:	8b 85 18 f6 ff ff    	mov    -0x9e8(%rbp),%eax
    ff7d:	98                   	cwtl   
    ff7e:	89 d6                	mov    %edx,%esi
    ff80:	89 c7                	mov    %eax,%edi
    ff82:	e8 dc 65 ff ff       	callq  6563 <safe_rshift_func_int16_t_s_u>
    ff87:	98                   	cwtl   
    ff88:	39 85 f4 f5 ff ff    	cmp    %eax,-0xa0c(%rbp)
    ff8e:	0f 9e c0             	setle  %al
    ff91:	0f b6 d0             	movzbl %al,%edx
    ff94:	0f b6 05 ef a4 00 00 	movzbl 0xa4ef(%rip),%eax        # 1a48a <g_129>
    ff9b:	0f be c0             	movsbl %al,%eax
    ff9e:	39 c2                	cmp    %eax,%edx
    ffa0:	0f 9f c0             	setg   %al
    ffa3:	0f b6 c0             	movzbl %al,%eax
    ffa6:	44 89 f6             	mov    %r14d,%esi
    ffa9:	89 c7                	mov    %eax,%edi
    ffab:	e8 62 62 ff ff       	callq  6212 <safe_mul_func_int8_t_s_s>
    ffb0:	66 98                	cbtw   
    ffb2:	0f b7 c0             	movzwl %ax,%eax
    ffb5:	44 89 ee             	mov    %r13d,%esi
    ffb8:	89 c7                	mov    %eax,%edi
    ffba:	e8 bb 6e ff ff       	callq  6e7a <safe_rshift_func_uint16_t_u_u>
    ffbf:	0f b7 d0             	movzwl %ax,%edx
    ffc2:	8b 85 18 f6 ff ff    	mov    -0x9e8(%rbp),%eax
    ffc8:	0f b7 c0             	movzwl %ax,%eax
    ffcb:	89 d6                	mov    %edx,%esi
    ffcd:	89 c7                	mov    %eax,%edi
    ffcf:	e8 2b 6d ff ff       	callq  6cff <safe_add_func_uint16_t_u_u>
    ffd4:	48 8b 95 58 f6 ff ff 	mov    -0x9a8(%rbp),%rdx
    ffdb:	48 8b 85 68 f7 ff ff 	mov    -0x898(%rbp),%rax
    ffe2:	48 89 10             	mov    %rdx,(%rax)
    ffe5:	48 8b 85 68 f7 ff ff 	mov    -0x898(%rbp),%rax
    ffec:	48 8b 00             	mov    (%rax),%rax
    ffef:	48 39 85 08 f7 ff ff 	cmp    %rax,-0x8f8(%rbp)
    fff6:	0f 94 c0             	sete   %al
    fff9:	0f b6 c0             	movzbl %al,%eax
    fffc:	39 85 f4 f5 ff ff    	cmp    %eax,-0xa0c(%rbp)
   10002:	0f 9c c0             	setl   %al
   10005:	0f b6 c0             	movzbl %al,%eax
   10008:	44 89 e6             	mov    %r12d,%esi
   1000b:	89 c7                	mov    %eax,%edi
   1000d:	e8 7c 6d ff ff       	callq  6d8e <safe_div_func_uint16_t_u_u>
   10012:	0f b7 c0             	movzwl %ax,%eax
   10015:	39 85 f4 f5 ff ff    	cmp    %eax,-0xa0c(%rbp)
   1001b:	0f 95 c0             	setne  %al
   1001e:	0f b6 c0             	movzbl %al,%eax
   10021:	be 04 00 00 00       	mov    $0x4,%esi
   10026:	89 c7                	mov    %eax,%edi
   10028:	e8 74 62 ff ff       	callq  62a1 <safe_lshift_func_int8_t_s_s>
   1002d:	0f b6 c0             	movzbl %al,%eax
   10030:	89 de                	mov    %ebx,%esi
   10032:	89 c7                	mov    %eax,%edi
   10034:	e8 5a 6b ff ff       	callq  6b93 <safe_mul_func_uint8_t_u_u>
   10039:	48 83 bd 20 f7 ff ff 	cmpq   $0x0,-0x8e0(%rbp)
   10040:	00 
   10041:	be ff ff ff ff       	mov    $0xffffffff,%esi
   10046:	bf 01 00 00 00       	mov    $0x1,%edi
   1004b:	e8 ad 6e ff ff       	callq  6efd <safe_mod_func_uint32_t_u_u>
   10050:	83 f8 49             	cmp    $0x49,%eax
   10053:	0f 97 c0             	seta   %al
   10056:	0f b6 c0             	movzbl %al,%eax
   10059:	41 39 c7             	cmp    %eax,%r15d
   1005c:	0f 9c c0             	setl   %al
   1005f:	0f b6 d0             	movzbl %al,%edx
   10062:	48 8b 85 38 f5 ff ff 	mov    -0xac8(%rbp),%rax
   10069:	8b 00                	mov    (%rax),%eax
   1006b:	39 c2                	cmp    %eax,%edx
   1006d:	0f 94 c0             	sete   %al
   10070:	0f b6 d0             	movzbl %al,%edx
   10073:	0f b7 85 50 f5 ff ff 	movzwl -0xab0(%rbp),%eax
   1007a:	39 c2                	cmp    %eax,%edx
   1007c:	0f 95 c0             	setne  %al
   1007f:	0f b6 c0             	movzbl %al,%eax
   10082:	be 82 87 00 00       	mov    $0x8782,%esi
   10087:	89 c7                	mov    %eax,%edi
   10089:	e8 af 6c ff ff       	callq  6d3d <safe_mul_func_uint16_t_u_u>
   1008e:	66 85 c0             	test   %ax,%ax
   10091:	74 07                	je     1009a <func_65+0x1325>
   10093:	b8 01 00 00 00       	mov    $0x1,%eax
   10098:	eb 05                	jmp    1009f <func_65+0x132a>
   1009a:	b8 00 00 00 00       	mov    $0x0,%eax
   1009f:	89 85 18 f6 ff ff    	mov    %eax,-0x9e8(%rbp)
   100a5:	8b 85 f4 f5 ff ff    	mov    -0xa0c(%rbp),%eax
   100ab:	31 85 78 f5 ff ff    	xor    %eax,-0xa88(%rbp)
   100b1:	8b 85 70 f5 ff ff    	mov    -0xa90(%rbp),%eax
   100b7:	0f b7 c0             	movzwl %ax,%eax
   100ba:	be 07 00 00 00       	mov    $0x7,%esi
   100bf:	89 c7                	mov    %eax,%edi
   100c1:	e8 59 6c ff ff       	callq  6d1f <safe_sub_func_uint16_t_u_u>
   100c6:	0f b7 c0             	movzwl %ax,%eax
   100c9:	89 85 70 f5 ff ff    	mov    %eax,-0xa90(%rbp)
   100cf:	83 bd 70 f5 ff ff f9 	cmpl   $0xfffffff9,-0xa90(%rbp)
   100d6:	0f 8d ac fd ff ff    	jge    fe88 <func_65+0x1113>
   100dc:	83 bd 60 f5 ff ff 00 	cmpl   $0x0,-0xaa0(%rbp)
   100e3:	0f 84 c7 02 00 00    	je     103b0 <func_65+0x163b>
   100e9:	66 c7 85 52 f5 ff ff 	movw   $0xbfa7,-0xaae(%rbp)
   100f0:	a7 bf 
   100f2:	c7 85 14 f6 ff ff 02 	movl   $0x2,-0x9ec(%rbp)
   100f9:	00 00 00 
   100fc:	48 c7 85 40 f7 ff ff 	movq   $0x0,-0x8c0(%rbp)
   10103:	00 00 00 00 
   10107:	48 8d 85 50 f6 ff ff 	lea    -0x9b0(%rbp),%rax
   1010e:	48 89 85 48 f7 ff ff 	mov    %rax,-0x8b8(%rbp)
   10115:	48 8d 85 47 f5 ff ff 	lea    -0xab9(%rbp),%rax
   1011c:	48 89 85 50 f7 ff ff 	mov    %rax,-0x8b0(%rbp)
   10123:	48 8d 85 40 f6 ff ff 	lea    -0x9c0(%rbp),%rax
   1012a:	48 89 85 58 f6 ff ff 	mov    %rax,-0x9a8(%rbp)
   10131:	48 8d 85 58 f6 ff ff 	lea    -0x9a8(%rbp),%rax
   10138:	48 89 85 58 f7 ff ff 	mov    %rax,-0x8a8(%rbp)
   1013f:	0f b7 05 5a a3 00 00 	movzwl 0xa35a(%rip),%eax        # 1a4a0 <g_141>
   10146:	0f bf d0             	movswl %ax,%edx
   10149:	8b 85 7c f7 ff ff    	mov    -0x884(%rbp),%eax
   1014f:	39 c2                	cmp    %eax,%edx
   10151:	0f 8c 9f 00 00 00    	jl     101f6 <func_65+0x1481>
   10157:	48 8b 85 60 fb ff ff 	mov    -0x4a0(%rbp),%rax
   1015e:	89 c3                	mov    %eax,%ebx
   10160:	0f b7 05 6f a3 00 00 	movzwl 0xa36f(%rip),%eax        # 1a4d6 <g_214+0x6>
   10167:	66 85 c0             	test   %ax,%ax
   1016a:	75 1c                	jne    10188 <func_65+0x1413>
   1016c:	48 83 bd 30 f7 ff ff 	cmpq   $0x0,-0x8d0(%rbp)
   10173:	00 
   10174:	0f 95 c0             	setne  %al
   10177:	0f b6 c0             	movzbl %al,%eax
   1017a:	89 c7                	mov    %eax,%edi
   1017c:	e8 c4 69 ff ff       	callq  6b45 <safe_unary_minus_func_uint8_t_u>
   10181:	b8 00 00 00 00       	mov    $0x0,%eax
   10186:	eb 05                	jmp    1018d <func_65+0x1418>
   10188:	b8 01 00 00 00       	mov    $0x1,%eax
   1018d:	21 85 94 f5 ff ff    	and    %eax,-0xa6c(%rbp)
   10193:	8b 85 94 f5 ff ff    	mov    -0xa6c(%rbp),%eax
   10199:	89 c2                	mov    %eax,%edx
   1019b:	0f b7 85 50 f5 ff ff 	movzwl -0xab0(%rbp),%eax
   101a2:	21 d0                	and    %edx,%eax
   101a4:	0f b7 c0             	movzwl %ax,%eax
   101a7:	89 c6                	mov    %eax,%esi
   101a9:	bf fe ff 00 00       	mov    $0xfffe,%edi
   101ae:	e8 8a 6b ff ff       	callq  6d3d <safe_mul_func_uint16_t_u_u>
   101b3:	0f b7 c0             	movzwl %ax,%eax
   101b6:	89 de                	mov    %ebx,%esi
   101b8:	89 c7                	mov    %eax,%edi
   101ba:	e8 47 6c ff ff       	callq  6e06 <safe_lshift_func_uint16_t_u_u>
   101bf:	0f b7 d0             	movzwl %ax,%edx
   101c2:	48 8b 85 40 fb ff ff 	mov    -0x4c0(%rbp),%rax
   101c9:	48 39 c2             	cmp    %rax,%rdx
   101cc:	0f 9d c0             	setge  %al
   101cf:	0f b6 d0             	movzbl %al,%edx
   101d2:	0f b7 85 50 f5 ff ff 	movzwl -0xab0(%rbp),%eax
   101d9:	31 d0                	xor    %edx,%eax
   101db:	0d 63 b4 24 0e       	or     $0xe24b463,%eax
   101e0:	48 63 d0             	movslq %eax,%rdx
   101e3:	0f b7 85 50 f5 ff ff 	movzwl -0xab0(%rbp),%eax
   101ea:	48 39 c2             	cmp    %rax,%rdx
   101ed:	74 07                	je     101f6 <func_65+0x1481>
   101ef:	b8 01 00 00 00       	mov    $0x1,%eax
   101f4:	eb 05                	jmp    101fb <func_65+0x1486>
   101f6:	b8 00 00 00 00       	mov    $0x0,%eax
   101fb:	89 85 98 f5 ff ff    	mov    %eax,-0xa68(%rbp)
   10201:	0f b7 85 50 f5 ff ff 	movzwl -0xab0(%rbp),%eax
   10208:	0f b6 c0             	movzbl %al,%eax
   1020b:	be 05 00 00 00       	mov    $0x5,%esi
   10210:	89 c7                	mov    %eax,%edi
   10212:	e8 97 69 ff ff       	callq  6bae <safe_mod_func_uint8_t_u_u>
   10217:	0f b6 d0             	movzbl %al,%edx
   1021a:	8b 05 ac a3 00 00    	mov    0xa3ac(%rip),%eax        # 1a5cc <g_535>
   10220:	21 d0                	and    %edx,%eax
   10222:	89 05 a4 a3 00 00    	mov    %eax,0xa3a4(%rip)        # 1a5cc <g_535>
   10228:	8b 85 74 fd ff ff    	mov    -0x28c(%rbp),%eax
   1022e:	0f b7 c0             	movzwl %ax,%eax
   10231:	be 0e 00 00 00       	mov    $0xe,%esi
   10236:	89 c7                	mov    %eax,%edi
   10238:	e8 c9 6b ff ff       	callq  6e06 <safe_lshift_func_uint16_t_u_u>
   1023d:	0f b7 c0             	movzwl %ax,%eax
   10240:	be 01 00 00 00       	mov    $0x1,%esi
   10245:	89 c7                	mov    %eax,%edi
   10247:	e8 d3 6a ff ff       	callq  6d1f <safe_sub_func_uint16_t_u_u>
   1024c:	0f b7 c0             	movzwl %ax,%eax
   1024f:	89 05 73 a3 00 00    	mov    %eax,0xa373(%rip)        # 1a5c8 <g_527>
   10255:	8b 15 6d a3 00 00    	mov    0xa36d(%rip),%edx        # 1a5c8 <g_527>
   1025b:	0f b6 85 48 f5 ff ff 	movzbl -0xab8(%rbp),%eax
   10262:	0f b6 c0             	movzbl %al,%eax
   10265:	39 c2                	cmp    %eax,%edx
   10267:	0f 93 c0             	setae  %al
   1026a:	0f b6 c0             	movzbl %al,%eax
   1026d:	31 85 14 f6 ff ff    	xor    %eax,-0x9ec(%rbp)
   10273:	0f b7 9d 50 f5 ff ff 	movzwl -0xab0(%rbp),%ebx
   1027a:	8b 85 94 fd ff ff    	mov    -0x26c(%rbp),%eax
   10280:	89 c6                	mov    %eax,%esi
   10282:	48 8b 85 10 f8 ff ff 	mov    -0x7f0(%rbp),%rax
   10289:	48 8b 8d 50 f6 ff ff 	mov    -0x9b0(%rbp),%rcx
   10290:	48 8b 95 48 f7 ff ff 	mov    -0x8b8(%rbp),%rdx
   10297:	48 89 0a             	mov    %rcx,(%rdx)
   1029a:	48 8b 95 48 f7 ff ff 	mov    -0x8b8(%rbp),%rdx
   102a1:	48 8b 12             	mov    (%rdx),%rdx
   102a4:	48 89 95 38 f7 ff ff 	mov    %rdx,-0x8c8(%rbp)
   102ab:	48 39 85 38 f7 ff ff 	cmp    %rax,-0x8c8(%rbp)
   102b2:	0f 95 c0             	setne  %al
   102b5:	09 f0                	or     %esi,%eax
   102b7:	89 c2                	mov    %eax,%edx
   102b9:	48 8b 85 30 f7 ff ff 	mov    -0x8d0(%rbp),%rax
   102c0:	88 10                	mov    %dl,(%rax)
   102c2:	bf 01 00 00 00       	mov    $0x1,%edi
   102c7:	e8 1d 6a ff ff       	callq  6ce9 <safe_unary_minus_func_uint16_t_u>
   102cc:	89 c2                	mov    %eax,%edx
   102ce:	48 8b 85 f8 f6 ff ff 	mov    -0x908(%rbp),%rax
   102d5:	88 10                	mov    %dl,(%rax)
   102d7:	48 8b 85 f8 f6 ff ff 	mov    -0x908(%rbp),%rax
   102de:	0f b6 00             	movzbl (%rax),%eax
   102e1:	44 0f be e8          	movsbl %al,%r13d
   102e5:	0f b6 85 47 f5 ff ff 	movzbl -0xab9(%rbp),%eax
   102ec:	44 0f b6 e0          	movzbl %al,%r12d
   102f0:	8b 05 02 a2 00 00    	mov    0xa202(%rip),%eax        # 1a4f8 <g_243+0x8>
   102f6:	0f b7 d0             	movzwl %ax,%edx
   102f9:	0f b7 85 50 f5 ff ff 	movzwl -0xab0(%rbp),%eax
   10300:	89 d6                	mov    %edx,%esi
   10302:	89 c7                	mov    %eax,%edi
   10304:	e8 34 6a ff ff       	callq  6d3d <safe_mul_func_uint16_t_u_u>
   10309:	98                   	cwtl   
   1030a:	44 89 e6             	mov    %r12d,%esi
   1030d:	89 c7                	mov    %eax,%edi
   1030f:	e8 e1 60 ff ff       	callq  63f5 <safe_mul_func_int16_t_s_s>
   10314:	98                   	cwtl   
   10315:	44 21 e8             	and    %r13d,%eax
   10318:	39 85 64 f5 ff ff    	cmp    %eax,-0xa9c(%rbp)
   1031e:	0f 9e c0             	setle  %al
   10321:	0f b6 c0             	movzbl %al,%eax
   10324:	89 c6                	mov    %eax,%esi
   10326:	bf ff ff ff ff       	mov    $0xffffffff,%edi
   1032b:	e8 88 6b ff ff       	callq  6eb8 <safe_add_func_uint32_t_u_u>
   10330:	89 c2                	mov    %eax,%edx
   10332:	48 8b 85 50 f7 ff ff 	mov    -0x8b0(%rbp),%rax
   10339:	88 10                	mov    %dl,(%rax)
   1033b:	48 8b 85 50 f7 ff ff 	mov    -0x8b0(%rbp),%rax
   10342:	0f b6 00             	movzbl (%rax),%eax
   10345:	0f b6 d0             	movzbl %al,%edx
   10348:	48 8b 05 31 a1 00 00 	mov    0xa131(%rip),%rax        # 1a480 <g_89+0x20>
   1034f:	0f b6 c0             	movzbl %al,%eax
   10352:	89 d6                	mov    %edx,%esi
   10354:	89 c7                	mov    %eax,%edi
   10356:	e8 53 68 ff ff       	callq  6bae <safe_mod_func_uint8_t_u_u>
   1035b:	0f b6 c0             	movzbl %al,%eax
   1035e:	48 89 de             	mov    %rbx,%rsi
   10361:	48 89 c7             	mov    %rax,%rdi
   10364:	e8 4b 66 ff ff       	callq  69b4 <safe_mod_func_int64_t_s_s>
   10369:	0f b7 95 52 f5 ff ff 	movzwl -0xaae(%rbp),%edx
   10370:	48 09 c2             	or     %rax,%rdx
   10373:	0f b7 85 50 f5 ff ff 	movzwl -0xab0(%rbp),%eax
   1037a:	48 39 c2             	cmp    %rax,%rdx
   1037d:	74 07                	je     10386 <func_65+0x1611>
   1037f:	b8 01 00 00 00       	mov    $0x1,%eax
   10384:	eb 05                	jmp    1038b <func_65+0x1616>
   10386:	b8 00 00 00 00       	mov    $0x0,%eax
   1038b:	3b 85 14 f6 ff ff    	cmp    -0x9ec(%rbp),%eax
   10391:	0f 94 c0             	sete   %al
   10394:	0f b6 c0             	movzbl %al,%eax
   10397:	48 98                	cltq   
   10399:	48 31 85 60 f6 ff ff 	xor    %rax,-0x9a0(%rbp)
   103a0:	48 8b 85 58 f7 ff ff 	mov    -0x8a8(%rbp),%rax
   103a7:	48 c7 00 00 00 00 00 	movq   $0x0,(%rax)
   103ae:	eb 52                	jmp    10402 <func_65+0x168d>
   103b0:	48 8b 05 29 ce 00 00 	mov    0xce29(%rip),%rax        # 1d1e0 <g_371>
   103b7:	48 8b 95 30 f5 ff ff 	mov    -0xad0(%rbp),%rdx
   103be:	48 8b 12             	mov    (%rdx),%rdx
   103c1:	48 89 10             	mov    %rdx,(%rax)
   103c4:	48 8b 85 38 f5 ff ff 	mov    -0xac8(%rbp),%rax
   103cb:	8b 00                	mov    (%rax),%eax
   103cd:	85 c0                	test   %eax,%eax
   103cf:	0f 85 d2 00 00 00    	jne    104a7 <func_65+0x1732>
   103d5:	0f b7 05 84 a1 00 00 	movzwl 0xa184(%rip),%eax        # 1a560 <g_441>
   103dc:	48 0f bf c0          	movswq %ax,%rax
   103e0:	48 be ac eb d6 61 7c 	movabs $0xf0a5717c61d6ebac,%rsi
   103e7:	71 a5 f0 
   103ea:	48 89 c7             	mov    %rax,%rdi
   103ed:	e8 b6 64 ff ff       	callq  68a8 <safe_sub_func_int64_t_s_s>
   103f2:	89 c2                	mov    %eax,%edx
   103f4:	8b 85 58 f5 ff ff    	mov    -0xaa8(%rbp),%eax
   103fa:	09 d0                	or     %edx,%eax
   103fc:	89 85 58 f5 ff ff    	mov    %eax,-0xaa8(%rbp)
   10402:	48 8b 05 df dc 00 00 	mov    0xdcdf(%rip),%rax        # 1e0e8 <g_217>
   10409:	48 39 85 10 f7 ff ff 	cmp    %rax,-0x8f0(%rbp)
   10410:	0f 95 c0             	setne  %al
   10413:	0f b6 c0             	movzbl %al,%eax
   10416:	89 85 74 fd ff ff    	mov    %eax,-0x28c(%rbp)
   1041c:	48 c7 85 68 f6 ff ff 	movq   $0x8,-0x998(%rbp)
   10423:	08 00 00 00 
   10427:	eb 5b                	jmp    10484 <func_65+0x170f>
   10429:	66 83 bd 50 f5 ff ff 	cmpw   $0x0,-0xab0(%rbp)
   10430:	00 
   10431:	75 5d                	jne    10490 <func_65+0x171b>
   10433:	be 01 00 00 00       	mov    $0x1,%esi
   10438:	bf 01 00 00 00       	mov    $0x1,%edi
   1043d:	e8 f3 5e ff ff       	callq  6335 <safe_rshift_func_int8_t_s_s>
   10442:	0f be c0             	movsbl %al,%eax
   10445:	89 85 9c f5 ff ff    	mov    %eax,-0xa64(%rbp)
   1044b:	8b 85 9c f5 ff ff    	mov    -0xa64(%rbp),%eax
   10451:	0f be c0             	movsbl %al,%eax
   10454:	be 00 00 00 00       	mov    $0x0,%esi
   10459:	89 c7                	mov    %eax,%edi
   1045b:	e8 8e 5e ff ff       	callq  62ee <safe_lshift_func_int8_t_s_u>
   10460:	0f be c0             	movsbl %al,%eax
   10463:	89 85 b8 f5 ff ff    	mov    %eax,-0xa48(%rbp)
   10469:	48 8b 85 68 f6 ff ff 	mov    -0x998(%rbp),%rax
   10470:	be 06 00 00 00       	mov    $0x6,%esi
   10475:	48 89 c7             	mov    %rax,%rdi
   10478:	e8 c4 63 ff ff       	callq  6841 <safe_add_func_int64_t_s_s>
   1047d:	48 89 85 68 f6 ff ff 	mov    %rax,-0x998(%rbp)
   10484:	48 83 bd 68 f6 ff ff 	cmpq   $0x14,-0x998(%rbp)
   1048b:	14 
   1048c:	7e 9b                	jle    10429 <func_65+0x16b4>
   1048e:	eb 01                	jmp    10491 <func_65+0x171c>
   10490:	90                   	nop
   10491:	83 85 6c f5 ff ff 01 	addl   $0x1,-0xa94(%rbp)
   10498:	83 bd 6c f5 ff ff 03 	cmpl   $0x3,-0xa94(%rbp)
   1049f:	0f 84 b3 f8 ff ff    	je     fd58 <func_65+0xfe3>
   104a5:	eb 01                	jmp    104a8 <func_65+0x1733>
   104a7:	90                   	nop
   104a8:	c7 85 64 f5 ff ff 02 	movl   $0x2,-0xa9c(%rbp)
   104af:	00 00 00 
   104b2:	e9 3b 04 00 00       	jmpq   108f2 <func_65+0x1b7d>
   104b7:	c7 85 1c f6 ff ff f7 	movl   $0xfffffff7,-0x9e4(%rbp)
   104be:	ff ff ff 
   104c1:	c7 85 20 f6 ff ff 52 	movl   $0xc7515f52,-0x9e0(%rbp)
   104c8:	5f 51 c7 
   104cb:	c7 85 70 fd ff ff 00 	movl   $0x0,-0x290(%rbp)
   104d2:	00 00 00 
   104d5:	c7 85 74 fd ff ff 00 	movl   $0x0,-0x28c(%rbp)
   104dc:	00 00 00 
   104df:	c7 85 78 fd ff ff 03 	movl   $0x3,-0x288(%rbp)
   104e6:	00 00 00 
   104e9:	c7 85 7c fd ff ff 00 	movl   $0x0,-0x284(%rbp)
   104f0:	00 00 00 
   104f3:	c7 85 80 fd ff ff ff 	movl   $0xffffffff,-0x280(%rbp)
   104fa:	ff ff ff 
   104fd:	c7 85 84 fd ff ff 03 	movl   $0x3,-0x27c(%rbp)
   10504:	00 00 00 
   10507:	c7 85 88 fd ff ff ff 	movl   $0xffffffff,-0x278(%rbp)
   1050e:	ff ff ff 
   10511:	c7 85 8c fd ff ff 00 	movl   $0x0,-0x274(%rbp)
   10518:	00 00 00 
   1051b:	c7 85 90 fd ff ff 00 	movl   $0x0,-0x270(%rbp)
   10522:	00 00 00 
   10525:	c7 85 94 fd ff ff 00 	movl   $0x0,-0x26c(%rbp)
   1052c:	00 00 00 
   1052f:	c7 85 98 fd ff ff 00 	movl   $0x0,-0x268(%rbp)
   10536:	00 00 00 
   10539:	c7 85 9c fd ff ff 0d 	movl   $0x8317e0d,-0x264(%rbp)
   10540:	7e 31 08 
   10543:	c7 85 a0 fd ff ff 00 	movl   $0x0,-0x260(%rbp)
   1054a:	00 00 00 
   1054d:	c7 85 a4 fd ff ff f9 	movl   $0xfffffff9,-0x25c(%rbp)
   10554:	ff ff ff 
   10557:	c7 85 a8 fd ff ff f9 	movl   $0xfffffff9,-0x258(%rbp)
   1055e:	ff ff ff 
   10561:	c7 85 ac fd ff ff 00 	movl   $0x0,-0x254(%rbp)
   10568:	00 00 00 
   1056b:	c7 85 b0 fd ff ff 00 	movl   $0x0,-0x250(%rbp)
   10572:	00 00 00 
   10575:	c7 85 b4 fd ff ff f9 	movl   $0xfffffff9,-0x24c(%rbp)
   1057c:	ff ff ff 
   1057f:	c7 85 b8 fd ff ff f9 	movl   $0xfffffff9,-0x248(%rbp)
   10586:	ff ff ff 
   10589:	c7 85 bc fd ff ff 00 	movl   $0x0,-0x244(%rbp)
   10590:	00 00 00 
   10593:	c7 85 c0 fd ff ff 0d 	movl   $0x8317e0d,-0x240(%rbp)
   1059a:	7e 31 08 
   1059d:	c7 85 c4 fd ff ff 00 	movl   $0x0,-0x23c(%rbp)
   105a4:	00 00 00 
   105a7:	c7 85 c8 fd ff ff 00 	movl   $0x0,-0x238(%rbp)
   105ae:	00 00 00 
   105b1:	c7 85 cc fd ff ff 00 	movl   $0x0,-0x234(%rbp)
   105b8:	00 00 00 
   105bb:	c7 85 d0 fd ff ff 00 	movl   $0x0,-0x230(%rbp)
   105c2:	00 00 00 
   105c5:	c7 85 d4 fd ff ff ff 	movl   $0xffffffff,-0x22c(%rbp)
   105cc:	ff ff ff 
   105cf:	c7 85 d8 fd ff ff 03 	movl   $0x3,-0x228(%rbp)
   105d6:	00 00 00 
   105d9:	c7 85 dc fd ff ff ff 	movl   $0xffffffff,-0x224(%rbp)
   105e0:	ff ff ff 
   105e3:	c7 85 e0 fd ff ff 00 	movl   $0x0,-0x220(%rbp)
   105ea:	00 00 00 
   105ed:	c7 85 e4 fd ff ff 03 	movl   $0x3,-0x21c(%rbp)
   105f4:	00 00 00 
   105f7:	c7 85 e8 fd ff ff 00 	movl   $0x0,-0x218(%rbp)
   105fe:	00 00 00 
   10601:	c7 85 ec fd ff ff 00 	movl   $0x0,-0x214(%rbp)
   10608:	00 00 00 
   1060b:	c7 85 f0 fd ff ff 00 	movl   $0x0,-0x210(%rbp)
   10612:	00 00 00 
   10615:	c7 85 f4 fd ff ff ff 	movl   $0xffffffff,-0x20c(%rbp)
   1061c:	ff ff ff 
   1061f:	c7 85 f8 fd ff ff 0d 	movl   $0x8317e0d,-0x208(%rbp)
   10626:	7e 31 08 
   10629:	c7 85 fc fd ff ff 0d 	movl   $0x8317e0d,-0x204(%rbp)
   10630:	7e 31 08 
   10633:	c7 85 00 fe ff ff ff 	movl   $0xffffffff,-0x200(%rbp)
   1063a:	ff ff ff 
   1063d:	c7 85 04 fe ff ff 00 	movl   $0x0,-0x1fc(%rbp)
   10644:	00 00 00 
   10647:	c7 85 08 fe ff ff f9 	movl   $0xfffffff9,-0x1f8(%rbp)
   1064e:	ff ff ff 
   10651:	c7 85 0c fe ff ff ff 	movl   $0xffffffff,-0x1f4(%rbp)
   10658:	ff ff ff 
   1065b:	c6 85 4a f5 ff ff 6b 	movb   $0x6b,-0xab6(%rbp)
   10662:	66 c7 85 54 f5 ff ff 	movw   $0xfff8,-0xaac(%rbp)
   10669:	f8 ff 
   1066b:	48 c7 85 70 f7 ff ff 	movq   $0xfffffffffffffff7,-0x890(%rbp)
   10672:	f7 ff ff ff 
   10676:	0f b7 05 b3 9a 00 00 	movzwl 0x9ab3(%rip),%eax        # 1a130 <g_23+0x10>
   1067d:	0f b7 d8             	movzwl %ax,%ebx
   10680:	8b 85 9c f5 ff ff    	mov    -0xa64(%rbp),%eax
   10686:	89 c6                	mov    %eax,%esi
   10688:	bf f7 ff ff ff       	mov    $0xfffffff7,%edi
   1068d:	e8 d1 5e ff ff       	callq  6563 <safe_rshift_func_int16_t_s_u>
   10692:	44 0f bf e0          	movswl %ax,%r12d
   10696:	be 09 00 00 00       	mov    $0x9,%esi
   1069b:	bf 43 88 ff ff       	mov    $0xffff8843,%edi
   106a0:	e8 be 5e ff ff       	callq  6563 <safe_rshift_func_int16_t_s_u>
   106a5:	0f be d0             	movsbl %al,%edx
   106a8:	48 8b 05 c9 9e 00 00 	mov    0x9ec9(%rip),%rax        # 1a578 <g_441+0x18>
   106af:	0f be c0             	movsbl %al,%eax
   106b2:	89 d6                	mov    %edx,%esi
   106b4:	89 c7                	mov    %eax,%edi
   106b6:	e8 76 5b ff ff       	callq  6231 <safe_mod_func_int8_t_s_s>
   106bb:	0f be c0             	movsbl %al,%eax
   106be:	44 89 e6             	mov    %r12d,%esi
   106c1:	89 c7                	mov    %eax,%edi
   106c3:	e8 ca 5d ff ff       	callq  6492 <safe_lshift_func_int16_t_s_s>
   106c8:	0f bf d0             	movswl %ax,%edx
   106cb:	48 8b 85 a8 f6 ff ff 	mov    -0x958(%rbp),%rax
   106d2:	89 10                	mov    %edx,(%rax)
   106d4:	48 8b 85 a8 f6 ff ff 	mov    -0x958(%rbp),%rax
   106db:	8b 00                	mov    (%rax),%eax
   106dd:	83 f8 05             	cmp    $0x5,%eax
   106e0:	0f 96 c0             	setbe  %al
   106e3:	0f b6 c0             	movzbl %al,%eax
   106e6:	89 de                	mov    %ebx,%esi
   106e8:	89 c7                	mov    %eax,%edi
   106ea:	e8 10 66 ff ff       	callq  6cff <safe_add_func_uint16_t_u_u>
   106ef:	83 bd 98 f5 ff ff 00 	cmpl   $0x0,-0xa68(%rbp)
   106f6:	74 07                	je     106ff <func_65+0x198a>
   106f8:	b8 01 00 00 00       	mov    $0x1,%eax
   106fd:	eb 05                	jmp    10704 <func_65+0x198f>
   106ff:	b8 00 00 00 00       	mov    $0x0,%eax
   10704:	3b 85 94 f5 ff ff    	cmp    -0xa6c(%rbp),%eax
   1070a:	0f 94 c0             	sete   %al
   1070d:	0f b6 c0             	movzbl %al,%eax
   10710:	39 85 ac f5 ff ff    	cmp    %eax,-0xa54(%rbp)
   10716:	7e 41                	jle    10759 <func_65+0x19e4>
   10718:	c7 85 24 f6 ff ff ff 	movl   $0xffffffff,-0x9dc(%rbp)
   1071f:	ff ff ff 
   10722:	c7 85 28 f6 ff ff 08 	movl   $0x8,-0x9d8(%rbp)
   10729:	00 00 00 
   1072c:	c7 85 2c f6 ff ff f7 	movl   $0xfffffff7,-0x9d4(%rbp)
   10733:	ff ff ff 
   10736:	0f b6 05 93 9e 00 00 	movzbl 0x9e93(%rip),%eax        # 1a5d0 <g_664>
   1073d:	83 c0 01             	add    $0x1,%eax
   10740:	88 05 8a 9e 00 00    	mov    %al,0x9e8a(%rip)        # 1a5d0 <g_664>
   10746:	48 8b 85 18 f7 ff ff 	mov    -0x8e8(%rbp),%rax
   1074d:	48 31 85 28 f7 ff ff 	xor    %rax,-0x8d8(%rbp)
   10754:	e9 68 01 00 00       	jmpq   108c1 <func_65+0x1b4c>
   10759:	48 8d 95 40 fb ff ff 	lea    -0x4c0(%rbp),%rdx
   10760:	b8 00 00 00 00       	mov    $0x0,%eax
   10765:	b9 0d 00 00 00       	mov    $0xd,%ecx
   1076a:	48 89 d7             	mov    %rdx,%rdi
   1076d:	f3 48 ab             	rep stos %rax,%es:(%rdi)
   10770:	48 89 fa             	mov    %rdi,%rdx
   10773:	89 02                	mov    %eax,(%rdx)
   10775:	48 83 c2 04          	add    $0x4,%rdx
   10779:	c7 85 64 fb ff ff 6f 	movl   $0x634e986f,-0x49c(%rbp)
   10780:	98 4e 63 
   10783:	c7 85 74 fb ff ff 6f 	movl   $0x634e986f,-0x48c(%rbp)
   1078a:	98 4e 63 
   1078d:	c7 85 78 fb ff ff 6f 	movl   $0x634e986f,-0x488(%rbp)
   10794:	98 4e 63 
   10797:	be 0b 00 00 00       	mov    $0xb,%esi
   1079c:	bf 01 00 00 00       	mov    $0x1,%edi
   107a1:	e8 3b 5d ff ff       	callq  64e1 <safe_lshift_func_int16_t_s_u>
   107a6:	41 89 c6             	mov    %eax,%r14d
   107a9:	0f b6 85 4a f5 ff ff 	movzbl -0xab6(%rbp),%eax
   107b0:	0f b6 d8             	movzbl %al,%ebx
   107b3:	83 bd 60 f5 ff ff 00 	cmpl   $0x0,-0xaa0(%rbp)
   107ba:	74 54                	je     10810 <func_65+0x1a9b>
   107bc:	8b 85 50 f8 ff ff    	mov    -0x7b0(%rbp),%eax
   107c2:	44 0f bf e0          	movswl %ax,%r12d
   107c6:	48 8b 85 18 f7 ff ff 	mov    -0x8e8(%rbp),%rax
   107cd:	44 0f be e8          	movsbl %al,%r13d
   107d1:	0f b7 05 18 9d 00 00 	movzwl 0x9d18(%rip),%eax        # 1a4f0 <g_243>
   107d8:	98                   	cwtl   
   107d9:	be 01 00 00 00       	mov    $0x1,%esi
   107de:	89 c7                	mov    %eax,%edi
   107e0:	e8 7e 5d ff ff       	callq  6563 <safe_rshift_func_int16_t_s_u>
   107e5:	48 8b 05 e4 c1 00 00 	mov    0xc1e4(%rip),%rax        # 1c9d0 <g_139>
   107ec:	44 89 ee             	mov    %r13d,%esi
   107ef:	bf fe ff ff ff       	mov    $0xfffffffe,%edi
   107f4:	e8 19 5a ff ff       	callq  6212 <safe_mul_func_int8_t_s_s>
   107f9:	0f be c0             	movsbl %al,%eax
   107fc:	44 89 e6             	mov    %r12d,%esi
   107ff:	89 c7                	mov    %eax,%edi
   10801:	e8 4f 5c ff ff       	callq  6455 <safe_div_func_int16_t_s_s>
   10806:	8b 85 40 f8 ff ff    	mov    -0x7c0(%rbp),%eax
   1080c:	85 c0                	test   %eax,%eax
   1080e:	78 07                	js     10817 <func_65+0x1aa2>
   10810:	b8 01 00 00 00       	mov    $0x1,%eax
   10815:	eb 05                	jmp    1081c <func_65+0x1aa7>
   10817:	b8 00 00 00 00       	mov    $0x0,%eax
   1081c:	48 63 d0             	movslq %eax,%rdx
   1081f:	48 8b 85 d0 f6 ff ff 	mov    -0x930(%rbp),%rax
   10826:	48 89 10             	mov    %rdx,(%rax)
   10829:	48 8b 85 d0 f6 ff ff 	mov    -0x930(%rbp),%rax
   10830:	48 8b 00             	mov    (%rax),%rax
   10833:	48 89 c6             	mov    %rax,%rsi
   10836:	bf 01 00 00 00       	mov    $0x1,%edi
   1083b:	e8 ee 67 ff ff       	callq  702e <safe_add_func_uint64_t_u_u>
   10840:	0f b6 c0             	movzbl %al,%eax
   10843:	89 de                	mov    %ebx,%esi
   10845:	89 c7                	mov    %eax,%edi
   10847:	e8 47 63 ff ff       	callq  6b93 <safe_mul_func_uint8_t_u_u>
   1084c:	0f b6 c0             	movzbl %al,%eax
   1084f:	be 73 00 00 00       	mov    $0x73,%esi
   10854:	89 c7                	mov    %eax,%edi
   10856:	e8 38 63 ff ff       	callq  6b93 <safe_mul_func_uint8_t_u_u>
   1085b:	0f be d8             	movsbl %al,%ebx
   1085e:	8b 85 0c f6 ff ff    	mov    -0x9f4(%rbp),%eax
   10864:	48 98                	cltq   
   10866:	48 89 c6             	mov    %rax,%rsi
   10869:	48 bf 4c 58 3a 05 4b 	movabs $0xef37534b053a584c,%rdi
   10870:	53 37 ef 
   10873:	e8 30 60 ff ff       	callq  68a8 <safe_sub_func_int64_t_s_s>
   10878:	0f be c0             	movsbl %al,%eax
   1087b:	89 de                	mov    %ebx,%esi
   1087d:	89 c7                	mov    %eax,%edi
   1087f:	e8 8e 59 ff ff       	callq  6212 <safe_mul_func_int8_t_s_s>
   10884:	66 98                	cbtw   
   10886:	66 41 39 c6          	cmp    %ax,%r14w
   1088a:	7c 07                	jl     10893 <func_65+0x1b1e>
   1088c:	b8 cd 65 98 f7       	mov    $0xf79865cd,%eax
   10891:	eb 05                	jmp    10898 <func_65+0x1b23>
   10893:	b8 cc 65 98 f7       	mov    $0xf79865cc,%eax
   10898:	8b 95 a0 fb ff ff    	mov    -0x460(%rbp),%edx
   1089e:	89 d2                	mov    %edx,%edx
   108a0:	48 39 d0             	cmp    %rdx,%rax
   108a3:	0f 9f c0             	setg   %al
   108a6:	0f b6 c0             	movzbl %al,%eax
   108a9:	89 85 fc fd ff ff    	mov    %eax,-0x204(%rbp)
   108af:	83 bd 60 f5 ff ff 00 	cmpl   $0x0,-0xaa0(%rbp)
   108b6:	74 09                	je     108c1 <func_65+0x1b4c>
   108b8:	83 ad 64 f5 ff ff 01 	subl   $0x1,-0xa9c(%rbp)
   108bf:	eb 31                	jmp    108f2 <func_65+0x1b7d>
   108c1:	48 8b 85 38 f5 ff ff 	mov    -0xac8(%rbp),%rax
   108c8:	8b 00                	mov    (%rax),%eax
   108ca:	89 85 64 f8 ff ff    	mov    %eax,-0x79c(%rbp)
   108d0:	48 8b 05 f9 c8 00 00 	mov    0xc8f9(%rip),%rax        # 1d1d0 <g_306>
   108d7:	8b 95 64 f8 ff ff    	mov    -0x79c(%rbp),%edx
   108dd:	89 10                	mov    %edx,(%rax)
   108df:	83 85 dc f5 ff ff 01 	addl   $0x1,-0xa24(%rbp)
   108e6:	48 8b 85 70 f7 ff ff 	mov    -0x890(%rbp),%rax
   108ed:	e9 16 07 00 00       	jmpq   11008 <func_65+0x2293>
   108f2:	83 bd 64 f5 ff ff 00 	cmpl   $0x0,-0xa9c(%rbp)
   108f9:	0f 89 b8 fb ff ff    	jns    104b7 <func_65+0x1742>
   108ff:	8b 85 5c f5 ff ff    	mov    -0xaa4(%rbp),%eax
   10905:	48 98                	cltq   
   10907:	be 04 00 00 00       	mov    $0x4,%esi
   1090c:	48 89 c7             	mov    %rax,%rdi
   1090f:	e8 37 67 ff ff       	callq  704b <safe_sub_func_uint64_t_u_u>
   10914:	89 85 5c f5 ff ff    	mov    %eax,-0xaa4(%rbp)
   1091a:	8b 85 5c f5 ff ff    	mov    -0xaa4(%rbp),%eax
   10920:	83 f8 ed             	cmp    $0xffffffed,%eax
   10923:	0f 8c 58 f3 ff ff    	jl     fc81 <func_65+0xf0c>
   10929:	48 c7 85 60 f6 ff ff 	movq   $0x0,-0x9a0(%rbp)
   10930:	00 00 00 00 
   10934:	e9 70 06 00 00       	jmpq   10fa9 <func_65+0x2234>
   10939:	48 8d 85 49 f5 ff ff 	lea    -0xab7(%rbp),%rax
   10940:	48 89 85 40 fb ff ff 	mov    %rax,-0x4c0(%rbp)
   10947:	48 8d 85 48 f5 ff ff 	lea    -0xab8(%rbp),%rax
   1094e:	48 89 85 48 fb ff ff 	mov    %rax,-0x4b8(%rbp)
   10955:	48 c7 85 50 fb ff ff 	movq   $0x0,-0x4b0(%rbp)
   1095c:	00 00 00 00 
   10960:	48 8d 85 49 f5 ff ff 	lea    -0xab7(%rbp),%rax
   10967:	48 89 85 58 fb ff ff 	mov    %rax,-0x4a8(%rbp)
   1096e:	48 c7 85 60 fb ff ff 	movq   $0x0,-0x4a0(%rbp)
   10975:	00 00 00 00 
   10979:	48 8d 85 48 f5 ff ff 	lea    -0xab8(%rbp),%rax
   10980:	48 89 85 68 fb ff ff 	mov    %rax,-0x498(%rbp)
   10987:	48 8d 85 49 f5 ff ff 	lea    -0xab7(%rbp),%rax
   1098e:	48 89 85 70 fb ff ff 	mov    %rax,-0x490(%rbp)
   10995:	48 8d 85 49 f5 ff ff 	lea    -0xab7(%rbp),%rax
   1099c:	48 89 85 78 fb ff ff 	mov    %rax,-0x488(%rbp)
   109a3:	48 8d 85 47 f5 ff ff 	lea    -0xab9(%rbp),%rax
   109aa:	48 89 85 80 fb ff ff 	mov    %rax,-0x480(%rbp)
   109b1:	48 8d 85 47 f5 ff ff 	lea    -0xab9(%rbp),%rax
   109b8:	48 89 85 88 fb ff ff 	mov    %rax,-0x478(%rbp)
   109bf:	48 8d 85 47 f5 ff ff 	lea    -0xab9(%rbp),%rax
   109c6:	48 89 85 90 fb ff ff 	mov    %rax,-0x470(%rbp)
   109cd:	48 8d 85 49 f5 ff ff 	lea    -0xab7(%rbp),%rax
   109d4:	48 89 85 98 fb ff ff 	mov    %rax,-0x468(%rbp)
   109db:	48 8d 85 49 f5 ff ff 	lea    -0xab7(%rbp),%rax
   109e2:	48 89 85 a0 fb ff ff 	mov    %rax,-0x460(%rbp)
   109e9:	48 8d 85 48 f5 ff ff 	lea    -0xab8(%rbp),%rax
   109f0:	48 89 85 a8 fb ff ff 	mov    %rax,-0x458(%rbp)
   109f7:	48 c7 85 b0 fb ff ff 	movq   $0x0,-0x450(%rbp)
   109fe:	00 00 00 00 
   10a02:	48 8d 85 49 f5 ff ff 	lea    -0xab7(%rbp),%rax
   10a09:	48 89 85 b8 fb ff ff 	mov    %rax,-0x448(%rbp)
   10a10:	48 c7 85 c0 fb ff ff 	movq   $0x0,-0x440(%rbp)
   10a17:	00 00 00 00 
   10a1b:	48 8d 85 48 f5 ff ff 	lea    -0xab8(%rbp),%rax
   10a22:	48 89 85 c8 fb ff ff 	mov    %rax,-0x438(%rbp)
   10a29:	48 8d 85 49 f5 ff ff 	lea    -0xab7(%rbp),%rax
   10a30:	48 89 85 d0 fb ff ff 	mov    %rax,-0x430(%rbp)
   10a37:	48 8d 85 49 f5 ff ff 	lea    -0xab7(%rbp),%rax
   10a3e:	48 89 85 d8 fb ff ff 	mov    %rax,-0x428(%rbp)
   10a45:	48 c7 85 e0 fb ff ff 	movq   $0x0,-0x420(%rbp)
   10a4c:	00 00 00 00 
   10a50:	48 8d 85 49 f5 ff ff 	lea    -0xab7(%rbp),%rax
   10a57:	48 89 85 e8 fb ff ff 	mov    %rax,-0x418(%rbp)
   10a5e:	48 c7 85 f0 fb ff ff 	movq   $0x0,-0x410(%rbp)
   10a65:	00 00 00 00 
   10a69:	48 8d 85 48 f5 ff ff 	lea    -0xab8(%rbp),%rax
   10a70:	48 89 85 f8 fb ff ff 	mov    %rax,-0x408(%rbp)
   10a77:	48 8d 85 47 f5 ff ff 	lea    -0xab9(%rbp),%rax
   10a7e:	48 89 85 00 fc ff ff 	mov    %rax,-0x400(%rbp)
   10a85:	48 8d 85 47 f5 ff ff 	lea    -0xab9(%rbp),%rax
   10a8c:	48 89 85 08 fc ff ff 	mov    %rax,-0x3f8(%rbp)
   10a93:	48 8d 85 49 f5 ff ff 	lea    -0xab7(%rbp),%rax
   10a9a:	48 89 85 10 fc ff ff 	mov    %rax,-0x3f0(%rbp)
   10aa1:	48 8d 85 47 f5 ff ff 	lea    -0xab9(%rbp),%rax
   10aa8:	48 89 85 18 fc ff ff 	mov    %rax,-0x3e8(%rbp)
   10aaf:	48 8d 85 49 f5 ff ff 	lea    -0xab7(%rbp),%rax
   10ab6:	48 89 85 20 fc ff ff 	mov    %rax,-0x3e0(%rbp)
   10abd:	48 8d 85 47 f5 ff ff 	lea    -0xab9(%rbp),%rax
   10ac4:	48 89 85 28 fc ff ff 	mov    %rax,-0x3d8(%rbp)
   10acb:	48 8d 85 47 f5 ff ff 	lea    -0xab9(%rbp),%rax
   10ad2:	48 89 85 30 fc ff ff 	mov    %rax,-0x3d0(%rbp)
   10ad9:	48 8d 85 48 f5 ff ff 	lea    -0xab8(%rbp),%rax
   10ae0:	48 89 85 38 fc ff ff 	mov    %rax,-0x3c8(%rbp)
   10ae7:	48 8d 85 47 f5 ff ff 	lea    -0xab9(%rbp),%rax
   10aee:	48 89 85 40 fc ff ff 	mov    %rax,-0x3c0(%rbp)
   10af5:	48 8d 85 48 f5 ff ff 	lea    -0xab8(%rbp),%rax
   10afc:	48 89 85 48 fc ff ff 	mov    %rax,-0x3b8(%rbp)
   10b03:	48 8d 85 47 f5 ff ff 	lea    -0xab9(%rbp),%rax
   10b0a:	48 89 85 50 fc ff ff 	mov    %rax,-0x3b0(%rbp)
   10b11:	48 8d 85 47 f5 ff ff 	lea    -0xab9(%rbp),%rax
   10b18:	48 89 85 58 fc ff ff 	mov    %rax,-0x3a8(%rbp)
   10b1f:	48 c7 85 60 fc ff ff 	movq   $0x0,-0x3a0(%rbp)
   10b26:	00 00 00 00 
   10b2a:	48 8d 85 49 f5 ff ff 	lea    -0xab7(%rbp),%rax
   10b31:	48 89 85 68 fc ff ff 	mov    %rax,-0x398(%rbp)
   10b38:	48 8d 85 47 f5 ff ff 	lea    -0xab9(%rbp),%rax
   10b3f:	48 89 85 70 fc ff ff 	mov    %rax,-0x390(%rbp)
   10b46:	48 8d 85 48 f5 ff ff 	lea    -0xab8(%rbp),%rax
   10b4d:	48 89 85 78 fc ff ff 	mov    %rax,-0x388(%rbp)
   10b54:	48 c7 85 80 fc ff ff 	movq   $0x0,-0x380(%rbp)
   10b5b:	00 00 00 00 
   10b5f:	48 8d 85 47 f5 ff ff 	lea    -0xab9(%rbp),%rax
   10b66:	48 89 85 88 fc ff ff 	mov    %rax,-0x378(%rbp)
   10b6d:	48 8d 85 47 f5 ff ff 	lea    -0xab9(%rbp),%rax
   10b74:	48 89 85 90 fc ff ff 	mov    %rax,-0x370(%rbp)
   10b7b:	48 8d 85 49 f5 ff ff 	lea    -0xab7(%rbp),%rax
   10b82:	48 89 85 98 fc ff ff 	mov    %rax,-0x368(%rbp)
   10b89:	48 8d 85 49 f5 ff ff 	lea    -0xab7(%rbp),%rax
   10b90:	48 89 85 a0 fc ff ff 	mov    %rax,-0x360(%rbp)
   10b97:	48 8d 85 49 f5 ff ff 	lea    -0xab7(%rbp),%rax
   10b9e:	48 89 85 a8 fc ff ff 	mov    %rax,-0x358(%rbp)
   10ba5:	48 8d 85 47 f5 ff ff 	lea    -0xab9(%rbp),%rax
   10bac:	48 89 85 b0 fc ff ff 	mov    %rax,-0x350(%rbp)
   10bb3:	48 8d 85 47 f5 ff ff 	lea    -0xab9(%rbp),%rax
   10bba:	48 89 85 b8 fc ff ff 	mov    %rax,-0x348(%rbp)
   10bc1:	48 c7 85 c0 fc ff ff 	movq   $0x0,-0x340(%rbp)
   10bc8:	00 00 00 00 
   10bcc:	48 8d 85 48 f5 ff ff 	lea    -0xab8(%rbp),%rax
   10bd3:	48 89 85 c8 fc ff ff 	mov    %rax,-0x338(%rbp)
   10bda:	48 8d 85 47 f5 ff ff 	lea    -0xab9(%rbp),%rax
   10be1:	48 89 85 d0 fc ff ff 	mov    %rax,-0x330(%rbp)
   10be8:	48 8d 85 49 f5 ff ff 	lea    -0xab7(%rbp),%rax
   10bef:	48 89 85 d8 fc ff ff 	mov    %rax,-0x328(%rbp)
   10bf6:	48 c7 85 e0 fc ff ff 	movq   $0x0,-0x320(%rbp)
   10bfd:	00 00 00 00 
   10c01:	48 8d 85 47 f5 ff ff 	lea    -0xab9(%rbp),%rax
   10c08:	48 89 85 e8 fc ff ff 	mov    %rax,-0x318(%rbp)
   10c0f:	48 8d 85 47 f5 ff ff 	lea    -0xab9(%rbp),%rax
   10c16:	48 89 85 f0 fc ff ff 	mov    %rax,-0x310(%rbp)
   10c1d:	48 8d 85 48 f5 ff ff 	lea    -0xab8(%rbp),%rax
   10c24:	48 89 85 f8 fc ff ff 	mov    %rax,-0x308(%rbp)
   10c2b:	48 8d 85 47 f5 ff ff 	lea    -0xab9(%rbp),%rax
   10c32:	48 89 85 00 fd ff ff 	mov    %rax,-0x300(%rbp)
   10c39:	48 8d 85 48 f5 ff ff 	lea    -0xab8(%rbp),%rax
   10c40:	48 89 85 08 fd ff ff 	mov    %rax,-0x2f8(%rbp)
   10c47:	48 8d 85 47 f5 ff ff 	lea    -0xab9(%rbp),%rax
   10c4e:	48 89 85 10 fd ff ff 	mov    %rax,-0x2f0(%rbp)
   10c55:	48 8d 85 47 f5 ff ff 	lea    -0xab9(%rbp),%rax
   10c5c:	48 89 85 18 fd ff ff 	mov    %rax,-0x2e8(%rbp)
   10c63:	48 8d 85 49 f5 ff ff 	lea    -0xab7(%rbp),%rax
   10c6a:	48 89 85 20 fd ff ff 	mov    %rax,-0x2e0(%rbp)
   10c71:	48 8d 85 47 f5 ff ff 	lea    -0xab9(%rbp),%rax
   10c78:	48 89 85 28 fd ff ff 	mov    %rax,-0x2d8(%rbp)
   10c7f:	48 8d 85 49 f5 ff ff 	lea    -0xab7(%rbp),%rax
   10c86:	48 89 85 30 fd ff ff 	mov    %rax,-0x2d0(%rbp)
   10c8d:	48 8d 85 47 f5 ff ff 	lea    -0xab9(%rbp),%rax
   10c94:	48 89 85 38 fd ff ff 	mov    %rax,-0x2c8(%rbp)
   10c9b:	48 8d 85 47 f5 ff ff 	lea    -0xab9(%rbp),%rax
   10ca2:	48 89 85 40 fd ff ff 	mov    %rax,-0x2c0(%rbp)
   10ca9:	48 8d 85 48 f5 ff ff 	lea    -0xab8(%rbp),%rax
   10cb0:	48 89 85 48 fd ff ff 	mov    %rax,-0x2b8(%rbp)
   10cb7:	48 c7 85 50 fd ff ff 	movq   $0x0,-0x2b0(%rbp)
   10cbe:	00 00 00 00 
   10cc2:	48 8d 85 49 f5 ff ff 	lea    -0xab7(%rbp),%rax
   10cc9:	48 89 85 58 fd ff ff 	mov    %rax,-0x2a8(%rbp)
   10cd0:	48 c7 85 60 fd ff ff 	movq   $0x0,-0x2a0(%rbp)
   10cd7:	00 00 00 00 
   10cdb:	48 8d 85 49 f5 ff ff 	lea    -0xab7(%rbp),%rax
   10ce2:	48 89 85 68 fd ff ff 	mov    %rax,-0x298(%rbp)
   10ce9:	8b 9d b4 f5 ff ff    	mov    -0xa4c(%rbp),%ebx
   10cef:	44 8b a5 7c f7 ff ff 	mov    -0x884(%rbp),%r12d
   10cf6:	48 8b 85 60 f6 ff ff 	mov    -0x9a0(%rbp),%rax
   10cfd:	44 8b ac 85 7c f7 ff 	mov    -0x884(%rbp,%rax,4),%r13d
   10d04:	ff 
   10d05:	48 8b 05 9c c5 00 00 	mov    0xc59c(%rip),%rax        # 1d2a8 <g_712+0xa8>
   10d0c:	48 8d 15 c5 c4 00 00 	lea    0xc4c5(%rip),%rdx        # 1d1d8 <g_368>
   10d13:	48 39 d0             	cmp    %rdx,%rax
   10d16:	0f 95 c0             	setne  %al
   10d19:	0f b6 c0             	movzbl %al,%eax
   10d1c:	89 85 94 f5 ff ff    	mov    %eax,-0xa6c(%rbp)
   10d22:	8b 85 78 f5 ff ff    	mov    -0xa88(%rbp),%eax
   10d28:	89 c6                	mov    %eax,%esi
   10d2a:	bf 01 00 00 00       	mov    $0x1,%edi
   10d2f:	e8 d1 5e ff ff       	callq  6c05 <safe_lshift_func_uint8_t_u_s>
   10d34:	3c f8                	cmp    $0xf8,%al
   10d36:	0f 97 c0             	seta   %al
   10d39:	0f b6 c0             	movzbl %al,%eax
   10d3c:	89 85 74 f5 ff ff    	mov    %eax,-0xa8c(%rbp)
   10d42:	83 bd 74 f5 ff ff 62 	cmpl   $0x62,-0xa8c(%rbp)
   10d49:	0f 9e c0             	setle  %al
   10d4c:	0f b6 d0             	movzbl %al,%edx
   10d4f:	48 8b 85 c0 f6 ff ff 	mov    -0x940(%rbp),%rax
   10d56:	66 89 10             	mov    %dx,(%rax)
   10d59:	48 8b 85 c0 f6 ff ff 	mov    -0x940(%rbp),%rax
   10d60:	0f b7 00             	movzwl (%rax),%eax
   10d63:	98                   	cwtl   
   10d64:	44 89 ee             	mov    %r13d,%esi
   10d67:	89 c7                	mov    %eax,%edi
   10d69:	e8 bc 57 ff ff       	callq  652a <safe_rshift_func_int16_t_s_s>
   10d6e:	0f be c0             	movsbl %al,%eax
   10d71:	44 89 e6             	mov    %r12d,%esi
   10d74:	89 c7                	mov    %eax,%edi
   10d76:	e8 26 55 ff ff       	callq  62a1 <safe_lshift_func_int8_t_s_s>
   10d7b:	48 0f be d0          	movsbq %al,%rdx
   10d7f:	48 8b 85 08 f7 ff ff 	mov    -0x8f8(%rbp),%rax
   10d86:	48 89 10             	mov    %rdx,(%rax)
   10d89:	48 8b 85 08 f7 ff ff 	mov    -0x8f8(%rbp),%rax
   10d90:	48 8b 00             	mov    (%rax),%rax
   10d93:	48 89 c1             	mov    %rax,%rcx
   10d96:	48 8b 85 60 f6 ff ff 	mov    -0x9a0(%rbp),%rax
   10d9d:	8b 94 85 7c f7 ff ff 	mov    -0x884(%rbp,%rax,4),%edx
   10da4:	8b 85 50 f8 ff ff    	mov    -0x7b0(%rbp),%eax
   10daa:	31 d0                	xor    %edx,%eax
   10dac:	48 98                	cltq   
   10dae:	48 89 ce             	mov    %rcx,%rsi
   10db1:	48 89 c7             	mov    %rax,%rdi
   10db4:	e8 fb 5b ff ff       	callq  69b4 <safe_mod_func_int64_t_s_s>
   10db9:	48 85 c0             	test   %rax,%rax
   10dbc:	74 19                	je     10dd7 <func_65+0x2062>
   10dbe:	48 8b 85 60 f6 ff ff 	mov    -0x9a0(%rbp),%rax
   10dc5:	8b 84 85 7c f7 ff ff 	mov    -0x884(%rbp,%rax,4),%eax
   10dcc:	85 c0                	test   %eax,%eax
   10dce:	74 07                	je     10dd7 <func_65+0x2062>
   10dd0:	b8 01 00 00 00       	mov    $0x1,%eax
   10dd5:	eb 05                	jmp    10ddc <func_65+0x2067>
   10dd7:	b8 00 00 00 00       	mov    $0x0,%eax
   10ddc:	98                   	cwtl   
   10ddd:	89 c7                	mov    %eax,%edi
   10ddf:	e8 b9 55 ff ff       	callq  639d <safe_unary_minus_func_int16_t_s>
   10de4:	98                   	cwtl   
   10de5:	39 85 b0 f5 ff ff    	cmp    %eax,-0xa50(%rbp)
   10deb:	0f 9e c0             	setle  %al
   10dee:	0f b6 c0             	movzbl %al,%eax
   10df1:	be fc f0 00 00       	mov    $0xf0fc,%esi
   10df6:	89 c7                	mov    %eax,%edi
   10df8:	e8 5f 5f ff ff       	callq  6d5c <safe_mod_func_uint16_t_u_u>
   10dfd:	8b 85 70 f5 ff ff    	mov    -0xa90(%rbp),%eax
   10e03:	0f b7 c0             	movzwl %ax,%eax
   10e06:	89 de                	mov    %ebx,%esi
   10e08:	89 c7                	mov    %eax,%edi
   10e0a:	e8 6b 60 ff ff       	callq  6e7a <safe_rshift_func_uint16_t_u_u>
   10e0f:	0f b7 c0             	movzwl %ax,%eax
   10e12:	89 85 68 f8 ff ff    	mov    %eax,-0x798(%rbp)
   10e18:	8b 85 68 f8 ff ff    	mov    -0x798(%rbp),%eax
   10e1e:	31 85 68 f5 ff ff    	xor    %eax,-0xa98(%rbp)
   10e24:	8b 05 96 97 00 00    	mov    0x9796(%rip),%eax        # 1a5c0 <g_524+0x10>
   10e2a:	3d 5a f4 99 3a       	cmp    $0x3a99f45a,%eax
   10e2f:	0f 96 c0             	setbe  %al
   10e32:	0f b6 c0             	movzbl %al,%eax
   10e35:	89 c6                	mov    %eax,%esi
   10e37:	bf 00 00 00 00       	mov    $0x0,%edi
   10e3c:	e8 b1 53 ff ff       	callq  61f2 <safe_sub_func_int8_t_s_s>
   10e41:	0f be c0             	movsbl %al,%eax
   10e44:	89 85 fc f5 ff ff    	mov    %eax,-0xa04(%rbp)
   10e4a:	48 8b 85 30 f5 ff ff 	mov    -0xad0(%rbp),%rax
   10e51:	48 8b 10             	mov    (%rax),%rdx
   10e54:	48 8b 85 30 f5 ff ff 	mov    -0xad0(%rbp),%rax
   10e5b:	48 89 10             	mov    %rdx,(%rax)
   10e5e:	48 8b 85 38 f5 ff ff 	mov    -0xac8(%rbp),%rax
   10e65:	8b 00                	mov    (%rax),%eax
   10e67:	85 c0                	test   %eax,%eax
   10e69:	0f 85 31 01 00 00    	jne    10fa0 <func_65+0x222b>
   10e6f:	c7 85 80 f5 ff ff 00 	movl   $0x0,-0xa80(%rbp)
   10e76:	00 00 00 
   10e79:	e9 13 01 00 00       	jmpq   10f91 <func_65+0x221c>
   10e7e:	48 8d 85 70 fd ff ff 	lea    -0x290(%rbp),%rax
   10e85:	48 8d 15 f4 5e 00 00 	lea    0x5ef4(%rip),%rdx        # 16d80 <g_1416+0xc78>
   10e8c:	b9 48 00 00 00       	mov    $0x48,%ecx
   10e91:	48 89 c7             	mov    %rax,%rdi
   10e94:	48 89 d6             	mov    %rdx,%rsi
   10e97:	f3 48 a5             	rep movsq %ds:(%rsi),%es:(%rdi)
   10e9a:	c7 85 a4 f5 ff ff f9 	movl   $0xfffffff9,-0xa5c(%rbp)
   10ea1:	ff ff ff 
   10ea4:	8b 05 06 97 00 00    	mov    0x9706(%rip),%eax        # 1a5b0 <g_524>
   10eaa:	85 c0                	test   %eax,%eax
   10eac:	74 05                	je     10eb3 <func_65+0x213e>
   10eae:	e9 59 e0 ff ff       	jmpq   ef0c <func_65+0x197>
   10eb3:	c6 05 37 97 00 00 00 	movb   $0x0,0x9737(%rip)        # 1a5f1 <g_688+0x11>
   10eba:	e9 b9 00 00 00       	jmpq   10f78 <func_65+0x2203>
   10ebf:	48 8b 05 1a c3 00 00 	mov    0xc31a(%rip),%rax        # 1d1e0 <g_371>
   10ec6:	48 8b 95 30 f5 ff ff 	mov    -0xad0(%rbp),%rdx
   10ecd:	48 8b 12             	mov    (%rdx),%rdx
   10ed0:	48 89 10             	mov    %rdx,(%rax)
   10ed3:	48 8b 85 a0 f6 ff ff 	mov    -0x960(%rbp),%rax
   10eda:	8b 00                	mov    (%rax),%eax
   10edc:	0f b7 d0             	movzwl %ax,%edx
   10edf:	8b 85 fc f5 ff ff    	mov    -0xa04(%rbp),%eax
   10ee5:	0f b7 c0             	movzwl %ax,%eax
   10ee8:	89 d6                	mov    %edx,%esi
   10eea:	89 c7                	mov    %eax,%edi
   10eec:	e8 2e 5e ff ff       	callq  6d1f <safe_sub_func_uint16_t_u_u>
   10ef1:	0f b7 d8             	movzwl %ax,%ebx
   10ef4:	8b 85 80 f8 ff ff    	mov    -0x780(%rbp),%eax
   10efa:	85 c0                	test   %eax,%eax
   10efc:	74 20                	je     10f1e <func_65+0x21a9>
   10efe:	48 8b 85 38 f5 ff ff 	mov    -0xac8(%rbp),%rax
   10f05:	8b 00                	mov    (%rax),%eax
   10f07:	89 c6                	mov    %eax,%esi
   10f09:	bf ff ff ff ff       	mov    $0xffffffff,%edi
   10f0e:	e8 ec 57 ff ff       	callq  66ff <safe_div_func_int32_t_s_s>
   10f13:	85 c0                	test   %eax,%eax
   10f15:	74 07                	je     10f1e <func_65+0x21a9>
   10f17:	b8 01 00 00 00       	mov    $0x1,%eax
   10f1c:	eb 05                	jmp    10f23 <func_65+0x21ae>
   10f1e:	b8 00 00 00 00       	mov    $0x0,%eax
   10f23:	39 d8                	cmp    %ebx,%eax
   10f25:	0f 9e c0             	setle  %al
   10f28:	0f b6 c0             	movzbl %al,%eax
   10f2b:	89 c6                	mov    %eax,%esi
   10f2d:	bf f7 ff 00 00       	mov    $0xfff7,%edi
   10f32:	e8 e8 5d ff ff       	callq  6d1f <safe_sub_func_uint16_t_u_u>
   10f37:	0f b7 c0             	movzwl %ax,%eax
   10f3a:	89 c6                	mov    %eax,%esi
   10f3c:	bf 34 b5 ff ff       	mov    $0xffffb534,%edi
   10f41:	e8 e4 55 ff ff       	callq  652a <safe_rshift_func_int16_t_s_s>
   10f46:	98                   	cwtl   
   10f47:	21 85 a4 f5 ff ff    	and    %eax,-0xa5c(%rbp)
   10f4d:	48 8b 85 a0 f6 ff ff 	mov    -0x960(%rbp),%rax
   10f54:	8b 00                	mov    (%rax),%eax
   10f56:	85 c0                	test   %eax,%eax
   10f58:	75 2f                	jne    10f89 <func_65+0x2214>
   10f5a:	48 8b 85 30 f5 ff ff 	mov    -0xad0(%rbp),%rax
   10f61:	48 c7 00 00 00 00 00 	movq   $0x0,(%rax)
   10f68:	0f b6 05 82 96 00 00 	movzbl 0x9682(%rip),%eax        # 1a5f1 <g_688+0x11>
   10f6f:	83 c0 01             	add    $0x1,%eax
   10f72:	88 05 79 96 00 00    	mov    %al,0x9679(%rip)        # 1a5f1 <g_688+0x11>
   10f78:	0f b6 05 72 96 00 00 	movzbl 0x9672(%rip),%eax        # 1a5f1 <g_688+0x11>
   10f7f:	84 c0                	test   %al,%al
   10f81:	0f 8e 38 ff ff ff    	jle    10ebf <func_65+0x214a>
   10f87:	eb 01                	jmp    10f8a <func_65+0x2215>
   10f89:	90                   	nop
   10f8a:	83 85 80 f5 ff ff 01 	addl   $0x1,-0xa80(%rbp)
   10f91:	83 bd 80 f5 ff ff 00 	cmpl   $0x0,-0xa80(%rbp)
   10f98:	0f 84 e0 fe ff ff    	je     10e7e <func_65+0x2109>
   10f9e:	eb 01                	jmp    10fa1 <func_65+0x222c>
   10fa0:	90                   	nop
   10fa1:	48 83 85 60 f6 ff ff 	addq   $0x1,-0x9a0(%rbp)
   10fa8:	01 
   10fa9:	48 83 bd 60 f6 ff ff 	cmpq   $0x0,-0x9a0(%rbp)
   10fb0:	00 
   10fb1:	0f 8e 82 f9 ff ff    	jle    10939 <func_65+0x1bc4>
   10fb7:	48 8b 95 48 f6 ff ff 	mov    -0x9b8(%rbp),%rdx
   10fbe:	48 8b 85 d8 f6 ff ff 	mov    -0x928(%rbp),%rax
   10fc5:	48 89 10             	mov    %rdx,(%rax)
   10fc8:	48 8b 05 79 c3 00 00 	mov    0xc379(%rip),%rax        # 1d348 <g_731>
   10fcf:	48 8b 95 d8 f6 ff ff 	mov    -0x928(%rbp),%rdx
   10fd6:	48 8b 12             	mov    (%rdx),%rdx
   10fd9:	48 89 10             	mov    %rdx,(%rax)
   10fdc:	eb 01                	jmp    10fdf <func_65+0x226a>
   10fde:	90                   	nop
   10fdf:	0f b7 05 0a 95 00 00 	movzwl 0x950a(%rip),%eax        # 1a4f0 <g_243>
   10fe6:	83 c0 01             	add    $0x1,%eax
   10fe9:	66 89 05 00 95 00 00 	mov    %ax,0x9500(%rip)        # 1a4f0 <g_243>
   10ff0:	0f b7 05 f9 94 00 00 	movzwl 0x94f9(%rip),%eax        # 1a4f0 <g_243>
   10ff7:	66 83 f8 02          	cmp    $0x2,%ax
   10ffb:	0f 87 3a df ff ff    	ja     ef3b <func_65+0x1c6>
   11001:	0f b6 45 c1          	movzbl -0x3f(%rbp),%eax
   11005:	0f b6 c0             	movzbl %al,%eax
   11008:	48 8b 4d c8          	mov    -0x38(%rbp),%rcx
   1100c:	64 48 33 0c 25 28 00 	xor    %fs:0x28,%rcx
   11013:	00 00 
   11015:	74 05                	je     1101c <func_65+0x22a7>
   11017:	e8 54 50 ff ff       	callq  6070 <__stack_chk_fail@plt>
   1101c:	48 81 c4 b8 0a 00 00 	add    $0xab8,%rsp
   11023:	5b                   	pop    %rbx
   11024:	41 5c                	pop    %r12
   11026:	41 5d                	pop    %r13
   11028:	41 5e                	pop    %r14
   1102a:	41 5f                	pop    %r15
   1102c:	5d                   	pop    %rbp
   1102d:	c3                   	retq   

000000000001102e <func_69>:
   1102e:	f3 0f 1e fa          	endbr64 
   11032:	55                   	push   %rbp
   11033:	48 89 e5             	mov    %rsp,%rbp
   11036:	48 81 ec 90 00 00 00 	sub    $0x90,%rsp
   1103d:	89 7d 8c             	mov    %edi,-0x74(%rbp)
   11040:	48 89 75 80          	mov    %rsi,-0x80(%rbp)
   11044:	48 89 95 78 ff ff ff 	mov    %rdx,-0x88(%rbp)
   1104b:	64 48 8b 04 25 28 00 	mov    %fs:0x28,%rax
   11052:	00 00 
   11054:	48 89 45 f8          	mov    %rax,-0x8(%rbp)
   11058:	31 c0                	xor    %eax,%eax
   1105a:	48 c7 45 98 00 00 00 	movq   $0x0,-0x68(%rbp)
   11061:	00 
   11062:	48 8d 45 98          	lea    -0x68(%rbp),%rax
   11066:	48 89 45 a0          	mov    %rax,-0x60(%rbp)
   1106a:	48 c7 45 b0 00 00 00 	movq   $0x0,-0x50(%rbp)
   11071:	00 
   11072:	c6 05 11 94 00 00 00 	movb   $0x0,0x9411(%rip)        # 1a48a <g_129>
   11079:	e9 35 01 00 00       	jmpq   111b3 <func_69+0x185>
   1107e:	48 c7 45 b8 00 00 00 	movq   $0x0,-0x48(%rbp)
   11085:	00 
   11086:	48 8d 05 24 94 00 00 	lea    0x9424(%rip),%rax        # 1a4b1 <g_141+0x11>
   1108d:	48 89 45 c0          	mov    %rax,-0x40(%rbp)
   11091:	48 c7 45 a8 00 00 00 	movq   $0x0,-0x58(%rbp)
   11098:	00 
   11099:	48 8d 45 a8          	lea    -0x58(%rbp),%rax
   1109d:	48 89 45 c8          	mov    %rax,-0x38(%rbp)
   110a1:	48 c7 45 d0 00 00 00 	movq   $0x0,-0x30(%rbp)
   110a8:	00 
   110a9:	48 8d 05 b4 93 00 00 	lea    0x93b4(%rip),%rax        # 1a464 <g_89+0x4>
   110b0:	48 89 45 d8          	mov    %rax,-0x28(%rbp)
   110b4:	c7 45 90 00 00 00 00 	movl   $0x0,-0x70(%rbp)
   110bb:	eb 2e                	jmp    110eb <func_69+0xbd>
   110bd:	c7 45 94 00 00 00 00 	movl   $0x0,-0x6c(%rbp)
   110c4:	eb 1b                	jmp    110e1 <func_69+0xb3>
   110c6:	8b 45 94             	mov    -0x6c(%rbp),%eax
   110c9:	48 63 d0             	movslq %eax,%rdx
   110cc:	8b 45 90             	mov    -0x70(%rbp),%eax
   110cf:	48 98                	cltq   
   110d1:	48 01 c2             	add    %rax,%rdx
   110d4:	48 8d 45 a0          	lea    -0x60(%rbp),%rax
   110d8:	48 89 44 d5 e0       	mov    %rax,-0x20(%rbp,%rdx,8)
   110dd:	83 45 94 01          	addl   $0x1,-0x6c(%rbp)
   110e1:	83 7d 94 00          	cmpl   $0x0,-0x6c(%rbp)
   110e5:	7e df                	jle    110c6 <func_69+0x98>
   110e7:	83 45 90 01          	addl   $0x1,-0x70(%rbp)
   110eb:	83 7d 90 01          	cmpl   $0x1,-0x70(%rbp)
   110ef:	7e cc                	jle    110bd <func_69+0x8f>
   110f1:	8b 05 ad 93 00 00    	mov    0x93ad(%rip),%eax        # 1a4a4 <g_141+0x4>
   110f7:	0f b6 d0             	movzbl %al,%edx
   110fa:	0f b6 05 89 93 00 00 	movzbl 0x9389(%rip),%eax        # 1a48a <g_129>
   11101:	0f b6 f8             	movzbl %al,%edi
   11104:	48 8b 45 d8          	mov    -0x28(%rbp),%rax
   11108:	8b 00                	mov    (%rax),%eax
   1110a:	8d 70 01             	lea    0x1(%rax),%esi
   1110d:	48 8b 4d d8          	mov    -0x28(%rbp),%rcx
   11111:	89 31                	mov    %esi,(%rcx)
   11113:	85 c0                	test   %eax,%eax
   11115:	75 0e                	jne    11125 <func_69+0xf7>
   11117:	48 8b 05 ba c0 00 00 	mov    0xc0ba(%rip),%rax        # 1d1d8 <g_368>
   1111e:	48 89 05 d3 cf 00 00 	mov    %rax,0xcfd3(%rip)        # 1e0f8 <g_370>
   11125:	b8 01 00 00 00       	mov    $0x1,%eax
   1112a:	3b 45 8c             	cmp    -0x74(%rbp),%eax
   1112d:	0f 9e c0             	setle  %al
   11130:	0f b6 c0             	movzbl %al,%eax
   11133:	33 45 8c             	xor    -0x74(%rbp),%eax
   11136:	39 c7                	cmp    %eax,%edi
   11138:	0f 9c c0             	setl   %al
   1113b:	0f b6 c0             	movzbl %al,%eax
   1113e:	89 d6                	mov    %edx,%esi
   11140:	89 c7                	mov    %eax,%edi
   11142:	e8 94 5a ff ff       	callq  6bdb <safe_div_func_uint8_t_u_u>
   11147:	0f be c0             	movsbl %al,%eax
   1114a:	be e4 ff ff ff       	mov    $0xffffffe4,%esi
   1114f:	89 c7                	mov    %eax,%edi
   11151:	e8 bc 50 ff ff       	callq  6212 <safe_mul_func_int8_t_s_s>
   11156:	84 c0                	test   %al,%al
   11158:	0f 95 c0             	setne  %al
   1115b:	89 c2                	mov    %eax,%edx
   1115d:	48 8b 45 c0          	mov    -0x40(%rbp),%rax
   11161:	88 10                	mov    %dl,(%rax)
   11163:	48 8b 45 c0          	mov    -0x40(%rbp),%rax
   11167:	0f b6 00             	movzbl (%rax),%eax
   1116a:	0f be c0             	movsbl %al,%eax
   1116d:	be 05 00 00 00       	mov    $0x5,%esi
   11172:	89 c7                	mov    %eax,%edi
   11174:	e8 bc 51 ff ff       	callq  6335 <safe_rshift_func_int8_t_s_s>
   11179:	0f be c0             	movsbl %al,%eax
   1117c:	be 63 38 0a 9f       	mov    $0x9f0a3863,%esi
   11181:	89 c7                	mov    %eax,%edi
   11183:	e8 75 5d ff ff       	callq  6efd <safe_mod_func_uint32_t_u_u>
   11188:	0f b7 15 a1 8f 00 00 	movzwl 0x8fa1(%rip),%edx        # 1a130 <g_23+0x10>
   1118f:	0f b7 d2             	movzwl %dx,%edx
   11192:	39 d0                	cmp    %edx,%eax
   11194:	0f 94 c0             	sete   %al
   11197:	0f b6 d0             	movzbl %al,%edx
   1119a:	48 8b 85 78 ff ff ff 	mov    -0x88(%rbp),%rax
   111a1:	89 10                	mov    %edx,(%rax)
   111a3:	0f b6 05 e0 92 00 00 	movzbl 0x92e0(%rip),%eax        # 1a48a <g_129>
   111aa:	83 c0 01             	add    $0x1,%eax
   111ad:	88 05 d7 92 00 00    	mov    %al,0x92d7(%rip)        # 1a48a <g_129>
   111b3:	0f b6 05 d0 92 00 00 	movzbl 0x92d0(%rip),%eax        # 1a48a <g_129>
   111ba:	3c 09                	cmp    $0x9,%al
   111bc:	0f 8e bc fe ff ff    	jle    1107e <func_69+0x50>
   111c2:	48 8b 55 80          	mov    -0x80(%rbp),%rdx
   111c6:	48 8b 45 80          	mov    -0x80(%rbp),%rax
   111ca:	48 8b 12             	mov    (%rdx),%rdx
   111cd:	48 89 10             	mov    %rdx,(%rax)
   111d0:	48 8b 45 80          	mov    -0x80(%rbp),%rax
   111d4:	48 8b 00             	mov    (%rax),%rax
   111d7:	48 8b 4d f8          	mov    -0x8(%rbp),%rcx
   111db:	64 48 33 0c 25 28 00 	xor    %fs:0x28,%rcx
   111e2:	00 00 
   111e4:	74 05                	je     111eb <func_69+0x1bd>
   111e6:	e8 85 4e ff ff       	callq  6070 <__stack_chk_fail@plt>
   111eb:	c9                   	leaveq 
   111ec:	c3                   	retq   

00000000000111ed <func_73>:
   111ed:	f3 0f 1e fa          	endbr64 
   111f1:	55                   	push   %rbp
   111f2:	48 89 e5             	mov    %rsp,%rbp
   111f5:	41 56                	push   %r14
   111f7:	41 55                	push   %r13
   111f9:	41 54                	push   %r12
   111fb:	53                   	push   %rbx
   111fc:	48 81 ec f0 00 00 00 	sub    $0xf0,%rsp
   11203:	48 89 bd 08 ff ff ff 	mov    %rdi,-0xf8(%rbp)
   1120a:	89 b5 04 ff ff ff    	mov    %esi,-0xfc(%rbp)
   11210:	89 c8                	mov    %ecx,%eax
   11212:	4c 89 85 f0 fe ff ff 	mov    %r8,-0x110(%rbp)
   11219:	66 89 95 00 ff ff ff 	mov    %dx,-0x100(%rbp)
   11220:	66 89 85 fc fe ff ff 	mov    %ax,-0x104(%rbp)
   11227:	64 48 8b 04 25 28 00 	mov    %fs:0x28,%rax
   1122e:	00 00 
   11230:	48 89 45 d8          	mov    %rax,-0x28(%rbp)
   11234:	31 c0                	xor    %eax,%eax
   11236:	66 c7 85 50 ff ff ff 	movw   $0x681d,-0xb0(%rbp)
   1123d:	1d 68 
   1123f:	66 c7 85 52 ff ff ff 	movw   $0x2c0,-0xae(%rbp)
   11246:	c0 02 
   11248:	66 c7 85 54 ff ff ff 	movw   $0x2c0,-0xac(%rbp)
   1124f:	c0 02 
   11251:	66 c7 85 56 ff ff ff 	movw   $0x681d,-0xaa(%rbp)
   11258:	1d 68 
   1125a:	66 c7 85 58 ff ff ff 	movw   $0x0,-0xa8(%rbp)
   11261:	00 00 
   11263:	66 c7 85 5a ff ff ff 	movw   $0x681d,-0xa6(%rbp)
   1126a:	1d 68 
   1126c:	66 c7 85 5c ff ff ff 	movw   $0x2c0,-0xa4(%rbp)
   11273:	c0 02 
   11275:	66 c7 85 5e ff ff ff 	movw   $0x2c0,-0xa2(%rbp)
   1127c:	c0 02 
   1127e:	66 c7 85 60 ff ff ff 	movw   $0x681d,-0xa0(%rbp)
   11285:	1d 68 
   11287:	66 c7 85 62 ff ff ff 	movw   $0x0,-0x9e(%rbp)
   1128e:	00 00 
   11290:	66 c7 85 64 ff ff ff 	movw   $0x681d,-0x9c(%rbp)
   11297:	1d 68 
   11299:	66 c7 85 66 ff ff ff 	movw   $0x2c0,-0x9a(%rbp)
   112a0:	c0 02 
   112a2:	66 c7 85 68 ff ff ff 	movw   $0x2c0,-0x98(%rbp)
   112a9:	c0 02 
   112ab:	66 c7 85 6a ff ff ff 	movw   $0x681d,-0x96(%rbp)
   112b2:	1d 68 
   112b4:	66 c7 85 6c ff ff ff 	movw   $0x0,-0x94(%rbp)
   112bb:	00 00 
   112bd:	66 c7 85 6e ff ff ff 	movw   $0x681d,-0x92(%rbp)
   112c4:	1d 68 
   112c6:	66 c7 85 70 ff ff ff 	movw   $0x2c0,-0x90(%rbp)
   112cd:	c0 02 
   112cf:	66 c7 85 72 ff ff ff 	movw   $0x2c0,-0x8e(%rbp)
   112d6:	c0 02 
   112d8:	66 c7 85 74 ff ff ff 	movw   $0x681d,-0x8c(%rbp)
   112df:	1d 68 
   112e1:	66 c7 85 76 ff ff ff 	movw   $0x0,-0x8a(%rbp)
   112e8:	00 00 
   112ea:	66 c7 85 78 ff ff ff 	movw   $0x681d,-0x88(%rbp)
   112f1:	1d 68 
   112f3:	66 c7 85 7a ff ff ff 	movw   $0x2c0,-0x86(%rbp)
   112fa:	c0 02 
   112fc:	66 c7 85 7c ff ff ff 	movw   $0x2c0,-0x84(%rbp)
   11303:	c0 02 
   11305:	66 c7 85 7e ff ff ff 	movw   $0x681d,-0x82(%rbp)
   1130c:	1d 68 
   1130e:	66 c7 45 80 00 00    	movw   $0x0,-0x80(%rbp)
   11314:	66 c7 45 82 1d 68    	movw   $0x681d,-0x7e(%rbp)
   1131a:	66 c7 45 84 c0 02    	movw   $0x2c0,-0x7c(%rbp)
   11320:	66 c7 45 86 c0 02    	movw   $0x2c0,-0x7a(%rbp)
   11326:	66 c7 45 88 1d 68    	movw   $0x681d,-0x78(%rbp)
   1132c:	66 c7 45 8a 00 00    	movw   $0x0,-0x76(%rbp)
   11332:	66 c7 45 8c 1d 68    	movw   $0x681d,-0x74(%rbp)
   11338:	66 c7 45 8e c0 02    	movw   $0x2c0,-0x72(%rbp)
   1133e:	66 c7 45 90 c0 02    	movw   $0x2c0,-0x70(%rbp)
   11344:	66 c7 45 92 1d 68    	movw   $0x681d,-0x6e(%rbp)
   1134a:	66 c7 45 94 00 00    	movw   $0x0,-0x6c(%rbp)
   11350:	66 c7 45 96 1d 68    	movw   $0x681d,-0x6a(%rbp)
   11356:	66 c7 45 98 c0 02    	movw   $0x2c0,-0x68(%rbp)
   1135c:	66 c7 45 9a c0 02    	movw   $0x2c0,-0x66(%rbp)
   11362:	66 c7 45 9c 1d 68    	movw   $0x681d,-0x64(%rbp)
   11368:	66 c7 45 9e 00 00    	movw   $0x0,-0x62(%rbp)
   1136e:	66 c7 45 a0 1d 68    	movw   $0x681d,-0x60(%rbp)
   11374:	66 c7 45 a2 c0 02    	movw   $0x2c0,-0x5e(%rbp)
   1137a:	66 c7 45 a4 c0 02    	movw   $0x2c0,-0x5c(%rbp)
   11380:	66 c7 45 a6 1d 68    	movw   $0x681d,-0x5a(%rbp)
   11386:	66 c7 45 a8 00 00    	movw   $0x0,-0x58(%rbp)
   1138c:	66 c7 45 aa 1d 68    	movw   $0x681d,-0x56(%rbp)
   11392:	66 c7 45 ac c0 02    	movw   $0x2c0,-0x54(%rbp)
   11398:	66 c7 45 ae c0 02    	movw   $0x2c0,-0x52(%rbp)
   1139e:	66 c7 45 b0 1d 68    	movw   $0x681d,-0x50(%rbp)
   113a4:	66 c7 45 b2 00 00    	movw   $0x0,-0x4e(%rbp)
   113aa:	66 c7 45 b4 1d 68    	movw   $0x681d,-0x4c(%rbp)
   113b0:	66 c7 45 b6 c0 02    	movw   $0x2c0,-0x4a(%rbp)
   113b6:	66 c7 45 b8 c0 02    	movw   $0x2c0,-0x48(%rbp)
   113bc:	66 c7 45 ba 1d 68    	movw   $0x681d,-0x46(%rbp)
   113c2:	66 c7 45 bc 00 00    	movw   $0x0,-0x44(%rbp)
   113c8:	66 c7 45 be 1d 68    	movw   $0x681d,-0x42(%rbp)
   113ce:	66 c7 45 c0 c0 02    	movw   $0x2c0,-0x40(%rbp)
   113d4:	66 c7 45 c2 c0 02    	movw   $0x2c0,-0x3e(%rbp)
   113da:	66 c7 45 c4 1d 68    	movw   $0x681d,-0x3c(%rbp)
   113e0:	66 c7 45 c6 00 00    	movw   $0x0,-0x3a(%rbp)
   113e6:	66 c7 45 c8 1d 68    	movw   $0x681d,-0x38(%rbp)
   113ec:	66 c7 45 ca c0 02    	movw   $0x2c0,-0x36(%rbp)
   113f2:	66 c7 45 cc c0 02    	movw   $0x2c0,-0x34(%rbp)
   113f8:	48 8d 05 8b 90 00 00 	lea    0x908b(%rip),%rax        # 1a48a <g_129>
   113ff:	48 89 85 18 ff ff ff 	mov    %rax,-0xe8(%rbp)
   11406:	48 8d 85 50 ff ff ff 	lea    -0xb0(%rbp),%rax
   1140d:	48 83 c0 68          	add    $0x68,%rax
   11411:	48 89 85 20 ff ff ff 	mov    %rax,-0xe0(%rbp)
   11418:	c7 85 10 ff ff ff 1d 	movl   $0xcae5fa1d,-0xf0(%rbp)
   1141f:	fa e5 ca 
   11422:	c7 85 14 ff ff ff 3a 	movl   $0x992d643a,-0xec(%rbp)
   11429:	64 2d 99 
   1142c:	48 c7 85 28 ff ff ff 	movq   $0x0,-0xd8(%rbp)
   11433:	00 00 00 00 
   11437:	48 8d 05 b2 90 00 00 	lea    0x90b2(%rip),%rax        # 1a4f0 <g_243>
   1143e:	48 89 85 30 ff ff ff 	mov    %rax,-0xd0(%rbp)
   11445:	48 8d 05 cc 8e 00 00 	lea    0x8ecc(%rip),%rax        # 1a318 <g_45>
   1144c:	48 89 85 38 ff ff ff 	mov    %rax,-0xc8(%rbp)
   11453:	48 8d 05 06 b5 00 00 	lea    0xb506(%rip),%rax        # 1c960 <g_110>
   1145a:	48 89 85 40 ff ff ff 	mov    %rax,-0xc0(%rbp)
   11461:	48 8d 05 b0 8e 00 00 	lea    0x8eb0(%rip),%rax        # 1a318 <g_45>
   11468:	48 89 85 48 ff ff ff 	mov    %rax,-0xb8(%rbp)
   1146f:	48 c7 05 8e 90 00 00 	movq   $0x0,0x908e(%rip)        # 1a508 <g_286>
   11476:	00 00 00 00 
   1147a:	e9 b2 00 00 00       	jmpq   11531 <func_73+0x344>
   1147f:	66 c7 05 68 90 00 00 	movw   $0x0,0x9068(%rip)        # 1a4f0 <g_243>
   11486:	00 00 
   11488:	e9 81 00 00 00       	jmpq   1150e <func_73+0x321>
   1148d:	c7 05 cd 8f 00 00 00 	movl   $0x0,0x8fcd(%rip)        # 1a464 <g_89+0x4>
   11494:	00 00 00 
   11497:	eb 59                	jmp    114f2 <func_73+0x305>
   11499:	48 8b 15 68 90 00 00 	mov    0x9068(%rip),%rdx        # 1a508 <g_286>
   114a0:	0f b7 05 49 90 00 00 	movzwl 0x9049(%rip),%eax        # 1a4f0 <g_243>
   114a7:	0f b7 c0             	movzwl %ax,%eax
   114aa:	8b 0d b4 8f 00 00    	mov    0x8fb4(%rip),%ecx        # 1a464 <g_89+0x4>
   114b0:	89 ce                	mov    %ecx,%esi
   114b2:	48 63 c8             	movslq %eax,%rcx
   114b5:	48 89 d0             	mov    %rdx,%rax
   114b8:	48 c1 e0 03          	shl    $0x3,%rax
   114bc:	48 29 d0             	sub    %rdx,%rax
   114bf:	48 01 c8             	add    %rcx,%rax
   114c2:	48 c1 e0 02          	shl    $0x2,%rax
   114c6:	48 01 f0             	add    %rsi,%rax
   114c9:	48 8d 14 c5 00 00 00 	lea    0x0(,%rax,8),%rdx
   114d0:	00 
   114d1:	48 8d 05 08 b5 00 00 	lea    0xb508(%rip),%rax        # 1c9e0 <g_244>
   114d8:	48 8d 0d 11 90 00 00 	lea    0x9011(%rip),%rcx        # 1a4f0 <g_243>
   114df:	48 89 0c 02          	mov    %rcx,(%rdx,%rax,1)
   114e3:	8b 05 7b 8f 00 00    	mov    0x8f7b(%rip),%eax        # 1a464 <g_89+0x4>
   114e9:	83 c0 01             	add    $0x1,%eax
   114ec:	89 05 72 8f 00 00    	mov    %eax,0x8f72(%rip)        # 1a464 <g_89+0x4>
   114f2:	8b 05 6c 8f 00 00    	mov    0x8f6c(%rip),%eax        # 1a464 <g_89+0x4>
   114f8:	83 f8 03             	cmp    $0x3,%eax
   114fb:	76 9c                	jbe    11499 <func_73+0x2ac>
   114fd:	0f b7 05 ec 8f 00 00 	movzwl 0x8fec(%rip),%eax        # 1a4f0 <g_243>
   11504:	83 c0 01             	add    $0x1,%eax
   11507:	66 89 05 e2 8f 00 00 	mov    %ax,0x8fe2(%rip)        # 1a4f0 <g_243>
   1150e:	0f b7 05 db 8f 00 00 	movzwl 0x8fdb(%rip),%eax        # 1a4f0 <g_243>
   11515:	66 83 f8 06          	cmp    $0x6,%ax
   11519:	0f 86 6e ff ff ff    	jbe    1148d <func_73+0x2a0>
   1151f:	48 8b 05 e2 8f 00 00 	mov    0x8fe2(%rip),%rax        # 1a508 <g_286>
   11526:	48 83 c0 01          	add    $0x1,%rax
   1152a:	48 89 05 d7 8f 00 00 	mov    %rax,0x8fd7(%rip)        # 1a508 <g_286>
   11531:	48 8b 05 d0 8f 00 00 	mov    0x8fd0(%rip),%rax        # 1a508 <g_286>
   11538:	48 83 f8 08          	cmp    $0x8,%rax
   1153c:	0f 86 3d ff ff ff    	jbe    1147f <func_73+0x292>
   11542:	8b 9d 14 ff ff ff    	mov    -0xec(%rbp),%ebx
   11548:	44 0f b7 a5 00 ff ff 	movzwl -0x100(%rbp),%r12d
   1154f:	ff 
   11550:	b8 fa ff ff ff       	mov    $0xfffffffa,%eax
   11555:	44 0f b7 e8          	movzwl %ax,%r13d
   11559:	0f b7 85 fc fe ff ff 	movzwl -0x104(%rbp),%eax
   11560:	44 0f b7 f0          	movzwl %ax,%r14d
   11564:	48 8b 05 7d cb 00 00 	mov    0xcb7d(%rip),%rax        # 1e0e8 <g_217>
   1156b:	48 39 85 18 ff ff ff 	cmp    %rax,-0xe8(%rbp)
   11572:	0f 94 c0             	sete   %al
   11575:	0f b6 c0             	movzbl %al,%eax
   11578:	48 89 c7             	mov    %rax,%rdi
   1157b:	e8 96 52 ff ff       	callq  6816 <safe_unary_minus_func_int64_t_s>
   11580:	89 c2                	mov    %eax,%edx
   11582:	48 8b 85 20 ff ff ff 	mov    -0xe0(%rbp),%rax
   11589:	66 89 10             	mov    %dx,(%rax)
   1158c:	48 8b 85 20 ff ff ff 	mov    -0xe0(%rbp),%rax
   11593:	0f b7 00             	movzwl (%rax),%eax
   11596:	0f b7 c0             	movzwl %ax,%eax
   11599:	44 89 f6             	mov    %r14d,%esi
   1159c:	89 c7                	mov    %eax,%edi
   1159e:	e8 7c 57 ff ff       	callq  6d1f <safe_sub_func_uint16_t_u_u>
   115a3:	66 85 c0             	test   %ax,%ax
   115a6:	74 13                	je     115bb <func_73+0x3ce>
   115a8:	48 8b 05 09 8e 00 00 	mov    0x8e09(%rip),%rax        # 1a3b8 <g_59+0x98>
   115af:	48 85 c0             	test   %rax,%rax
   115b2:	74 07                	je     115bb <func_73+0x3ce>
   115b4:	b8 01 00 00 00       	mov    $0x1,%eax
   115b9:	eb 05                	jmp    115c0 <func_73+0x3d3>
   115bb:	b8 00 00 00 00       	mov    $0x0,%eax
   115c0:	48 98                	cltq   
   115c2:	48 8b 95 08 ff ff ff 	mov    -0xf8(%rbp),%rdx
   115c9:	48 89 d6             	mov    %rdx,%rsi
   115cc:	48 89 c7             	mov    %rax,%rdi
   115cf:	e8 e0 53 ff ff       	callq  69b4 <safe_mod_func_int64_t_s_s>
   115d4:	0f be c0             	movsbl %al,%eax
   115d7:	be 01 00 00 00       	mov    $0x1,%esi
   115dc:	89 c7                	mov    %eax,%edi
   115de:	e8 0b 4d ff ff       	callq  62ee <safe_lshift_func_int8_t_s_u>
   115e3:	84 c0                	test   %al,%al
   115e5:	0f 9f c0             	setg   %al
   115e8:	0f b6 d0             	movzbl %al,%edx
   115eb:	0f b6 05 7f 8e 00 00 	movzbl 0x8e7f(%rip),%eax        # 1a471 <g_89+0x11>
   115f2:	0f be c0             	movsbl %al,%eax
   115f5:	39 c2                	cmp    %eax,%edx
   115f7:	0f 9d c0             	setge  %al
   115fa:	0f b6 c0             	movzbl %al,%eax
   115fd:	44 89 ee             	mov    %r13d,%esi
   11600:	89 c7                	mov    %eax,%edi
   11602:	e8 36 57 ff ff       	callq  6d3d <safe_mul_func_uint16_t_u_u>
   11607:	66 83 f8 23          	cmp    $0x23,%ax
   1160b:	0f 97 c0             	seta   %al
   1160e:	0f b6 d0             	movzbl %al,%edx
   11611:	0f b7 05 48 8e 00 00 	movzwl 0x8e48(%rip),%eax        # 1a460 <g_89>
   11618:	98                   	cwtl   
   11619:	89 d6                	mov    %edx,%esi
   1161b:	89 c7                	mov    %eax,%edi
   1161d:	e8 b1 4d ff ff       	callq  63d3 <safe_sub_func_int16_t_s_s>
   11622:	98                   	cwtl   
   11623:	8b 95 04 ff ff ff    	mov    -0xfc(%rbp),%edx
   11629:	89 d6                	mov    %edx,%esi
   1162b:	89 c7                	mov    %eax,%edi
   1162d:	e8 f8 4e ff ff       	callq  652a <safe_rshift_func_int16_t_s_s>
   11632:	98                   	cwtl   
   11633:	44 89 e6             	mov    %r12d,%esi
   11636:	89 c7                	mov    %eax,%edi
   11638:	e8 a4 4e ff ff       	callq  64e1 <safe_lshift_func_int16_t_s_u>
   1163d:	0f b7 95 00 ff ff ff 	movzwl -0x100(%rbp),%edx
   11644:	8b 05 1a 8e 00 00    	mov    0x8e1a(%rip),%eax        # 1a464 <g_89+0x4>
   1164a:	39 c2                	cmp    %eax,%edx
   1164c:	0f 96 c0             	setbe  %al
   1164f:	0f b6 c0             	movzbl %al,%eax
   11652:	89 85 10 ff ff ff    	mov    %eax,-0xf0(%rbp)
   11658:	8b 85 10 ff ff ff    	mov    -0xf0(%rbp),%eax
   1165e:	39 85 14 ff ff ff    	cmp    %eax,-0xec(%rbp)
   11664:	0f 9f c0             	setg   %al
   11667:	0f b6 c0             	movzbl %al,%eax
   1166a:	f7 d0                	not    %eax
   1166c:	89 c2                	mov    %eax,%edx
   1166e:	48 8b 85 30 ff ff ff 	mov    -0xd0(%rbp),%rax
   11675:	66 89 10             	mov    %dx,(%rax)
   11678:	48 8b 85 30 ff ff ff 	mov    -0xd0(%rbp),%rax
   1167f:	0f b7 00             	movzwl (%rax),%eax
   11682:	0f b7 c0             	movzwl %ax,%eax
   11685:	89 c6                	mov    %eax,%esi
   11687:	bf 65 97 00 00       	mov    $0x9765,%edi
   1168c:	e8 e9 57 ff ff       	callq  6e7a <safe_rshift_func_uint16_t_u_u>
   11691:	89 de                	mov    %ebx,%esi
   11693:	bf 01 00 00 00       	mov    $0x1,%edi
   11698:	e8 44 4e ff ff       	callq  64e1 <safe_lshift_func_int16_t_s_u>
   1169d:	98                   	cwtl   
   1169e:	39 85 14 ff ff ff    	cmp    %eax,-0xec(%rbp)
   116a4:	0f 9f c0             	setg   %al
   116a7:	0f b6 d8             	movzbl %al,%ebx
   116aa:	be ff ff ff ff       	mov    $0xffffffff,%esi
   116af:	bf 01 00 00 00       	mov    $0x1,%edi
   116b4:	e8 6c 58 ff ff       	callq  6f25 <safe_div_func_uint32_t_u_u>
   116b9:	89 de                	mov    %ebx,%esi
   116bb:	89 c7                	mov    %eax,%edi
   116bd:	e8 f4 4e ff ff       	callq  65b6 <safe_add_func_int32_t_s_s>
   116c2:	48 8b 95 38 ff ff ff 	mov    -0xc8(%rbp),%rdx
   116c9:	8b 12                	mov    (%rdx),%edx
   116cb:	21 c2                	and    %eax,%edx
   116cd:	48 8b 85 38 ff ff ff 	mov    -0xc8(%rbp),%rax
   116d4:	89 10                	mov    %edx,(%rax)
   116d6:	48 8b 85 40 ff ff ff 	mov    -0xc0(%rbp),%rax
   116dd:	48 8d 95 10 ff ff ff 	lea    -0xf0(%rbp),%rdx
   116e4:	48 89 10             	mov    %rdx,(%rax)
   116e7:	48 8b 85 48 ff ff ff 	mov    -0xb8(%rbp),%rax
   116ee:	48 8b 5d d8          	mov    -0x28(%rbp),%rbx
   116f2:	64 48 33 1c 25 28 00 	xor    %fs:0x28,%rbx
   116f9:	00 00 
   116fb:	74 05                	je     11702 <func_73+0x515>
   116fd:	e8 6e 49 ff ff       	callq  6070 <__stack_chk_fail@plt>
   11702:	48 81 c4 f0 00 00 00 	add    $0xf0,%rsp
   11709:	5b                   	pop    %rbx
   1170a:	41 5c                	pop    %r12
   1170c:	41 5d                	pop    %r13
   1170e:	41 5e                	pop    %r14
   11710:	5d                   	pop    %rbp
   11711:	c3                   	retq   

0000000000011712 <func_82>:
   11712:	f3 0f 1e fa          	endbr64 
   11716:	55                   	push   %rbp
   11717:	48 89 e5             	mov    %rsp,%rbp
   1171a:	41 57                	push   %r15
   1171c:	41 56                	push   %r14
   1171e:	41 55                	push   %r13
   11720:	41 54                	push   %r12
   11722:	53                   	push   %rbx
   11723:	48 81 ec f8 0f 00 00 	sub    $0xff8,%rsp
   1172a:	89 bd ec ef ff ff    	mov    %edi,-0x1014(%rbp)
   11730:	89 f0                	mov    %esi,%eax
   11732:	48 89 95 e0 ef ff ff 	mov    %rdx,-0x1020(%rbp)
   11739:	88 85 e8 ef ff ff    	mov    %al,-0x1018(%rbp)
   1173f:	64 48 8b 04 25 28 00 	mov    %fs:0x28,%rax
   11746:	00 00 
   11748:	48 89 45 c8          	mov    %rax,-0x38(%rbp)
   1174c:	31 c0                	xor    %eax,%eax
   1174e:	c6 85 fc ef ff ff ff 	movb   $0xff,-0x1004(%rbp)
   11755:	48 c7 85 50 f1 ff ff 	movq   $0x0,-0xeb0(%rbp)
   1175c:	00 00 00 00 
   11760:	48 c7 85 58 f1 ff ff 	movq   $0x0,-0xea8(%rbp)
   11767:	00 00 00 00 
   1176b:	48 c7 85 60 f1 ff ff 	movq   $0x0,-0xea0(%rbp)
   11772:	00 00 00 00 
   11776:	48 c7 85 68 f1 ff ff 	movq   $0x0,-0xe98(%rbp)
   1177d:	00 00 00 00 
   11781:	48 c7 85 70 f1 ff ff 	movq   $0x0,-0xe90(%rbp)
   11788:	00 00 00 00 
   1178c:	c7 85 38 f0 ff ff a1 	movl   $0xb072bda1,-0xfc8(%rbp)
   11793:	bd 72 b0 
   11796:	c7 85 20 f0 ff ff ab 	movl   $0x50d81aab,-0xfe0(%rbp)
   1179d:	1a d8 50 
   117a0:	66 c7 85 3c f1 ff ff 	movw   $0xfffa,-0xec4(%rbp)
   117a7:	fa ff 
   117a9:	66 c7 85 3e f1 ff ff 	movw   $0xfffa,-0xec2(%rbp)
   117b0:	fa ff 
   117b2:	66 c7 85 40 f1 ff ff 	movw   $0xfffa,-0xec0(%rbp)
   117b9:	fa ff 
   117bb:	66 c7 85 42 f1 ff ff 	movw   $0xfffa,-0xebe(%rbp)
   117c2:	fa ff 
   117c4:	c7 85 3c f0 ff ff ff 	movl   $0xffffffff,-0xfc4(%rbp)
   117cb:	ff ff ff 
   117ce:	48 8d 05 5b 89 00 00 	lea    0x895b(%rip),%rax        # 1a130 <g_23+0x10>
   117d5:	48 89 85 98 f0 ff ff 	mov    %rax,-0xf68(%rbp)
   117dc:	48 c7 85 b0 f1 ff ff 	movq   $0x3,-0xe50(%rbp)
   117e3:	03 00 00 00 
   117e7:	48 b8 a3 c3 59 6d d1 	movabs $0x17f145d16d59c3a3,%rax
   117ee:	45 f1 17 
   117f1:	48 89 85 b8 f1 ff ff 	mov    %rax,-0xe48(%rbp)
   117f8:	48 89 85 c0 f1 ff ff 	mov    %rax,-0xe40(%rbp)
   117ff:	48 c7 85 c8 f1 ff ff 	movq   $0x3,-0xe38(%rbp)
   11806:	03 00 00 00 
   1180a:	48 89 85 d0 f1 ff ff 	mov    %rax,-0xe30(%rbp)
   11811:	48 89 85 d8 f1 ff ff 	mov    %rax,-0xe28(%rbp)
   11818:	48 c7 85 e0 f1 ff ff 	movq   $0x3,-0xe20(%rbp)
   1181f:	03 00 00 00 
   11823:	48 89 85 e8 f1 ff ff 	mov    %rax,-0xe18(%rbp)
   1182a:	48 8d 85 e0 f7 ff ff 	lea    -0x820(%rbp),%rax
   11831:	48 8d 15 48 a9 00 00 	lea    0xa948(%rip),%rdx        # 1c180 <g_1765+0x9b8>
   11838:	b9 fc 00 00 00       	mov    $0xfc,%ecx
   1183d:	48 89 c7             	mov    %rax,%rdi
   11840:	48 89 d6             	mov    %rdx,%rsi
   11843:	f3 48 a5             	rep movsq %ds:(%rsi),%es:(%rdi)
   11846:	48 8d 85 e0 f7 ff ff 	lea    -0x820(%rbp),%rax
   1184d:	48 83 c0 28          	add    $0x28,%rax
   11851:	48 89 85 a0 f0 ff ff 	mov    %rax,-0xf60(%rbp)
   11858:	66 c7 85 fe ef ff ff 	movw   $0x835c,-0x1002(%rbp)
   1185f:	5c 83 
   11861:	80 bd fc ef ff ff 00 	cmpb   $0x0,-0x1004(%rbp)
   11868:	0f 84 ac 16 00 00    	je     12f1a <func_82+0x1808>
   1186e:	c7 85 24 f0 ff ff 2d 	movl   $0x951f222d,-0xfdc(%rbp)
   11875:	22 1f 95 
   11878:	c7 85 00 f0 ff ff fa 	movl   $0xfffffffa,-0x1000(%rbp)
   1187f:	ff ff ff 
   11882:	c7 85 04 f0 ff ff b0 	movl   $0xce2574b0,-0xffc(%rbp)
   11889:	74 25 ce 
   1188c:	c7 85 08 f0 ff ff ff 	movl   $0xffffffff,-0xff8(%rbp)
   11893:	ff ff ff 
   11896:	c7 85 0c f0 ff ff ff 	movl   $0xffffffff,-0xff4(%rbp)
   1189d:	ff ff ff 
   118a0:	c6 85 fd ef ff ff ff 	movb   $0xff,-0x1003(%rbp)
   118a7:	c7 85 40 f0 ff ff ff 	movl   $0xffffffff,-0xfc0(%rbp)
   118ae:	ff ff ff 
   118b1:	c7 85 10 f0 ff ff 08 	movl   $0x8,-0xff0(%rbp)
   118b8:	00 00 00 
   118bb:	c7 85 14 f0 ff ff ff 	movl   $0xffffffff,-0xfec(%rbp)
   118c2:	ff ff ff 
   118c5:	c7 85 18 f0 ff ff 6e 	movl   $0x6d2b076e,-0xfe8(%rbp)
   118cc:	07 2b 6d 
   118cf:	c7 85 1c f0 ff ff b2 	movl   $0x7000dfb2,-0xfe4(%rbp)
   118d6:	df 00 70 
   118d9:	48 8d 05 ac 8b 00 00 	lea    0x8bac(%rip),%rax        # 1a48c <g_134>
   118e0:	48 89 85 a8 f0 ff ff 	mov    %rax,-0xf58(%rbp)
   118e7:	48 8d 85 0c f0 ff ff 	lea    -0xff4(%rbp),%rax
   118ee:	48 89 85 b0 f0 ff ff 	mov    %rax,-0xf50(%rbp)
   118f5:	c7 85 28 f0 ff ff 00 	movl   $0x0,-0xfd8(%rbp)
   118fc:	00 00 00 
   118ff:	eb 1a                	jmp    1191b <func_82+0x209>
   11901:	8b 85 28 f0 ff ff    	mov    -0xfd8(%rbp),%eax
   11907:	48 98                	cltq   
   11909:	c7 84 85 44 f1 ff ff 	movl   $0x766b1c0,-0xebc(%rbp,%rax,4)
   11910:	c0 b1 66 07 
   11914:	83 85 28 f0 ff ff 01 	addl   $0x1,-0xfd8(%rbp)
   1191b:	83 bd 28 f0 ff ff 02 	cmpl   $0x2,-0xfd8(%rbp)
   11922:	7e dd                	jle    11901 <func_82+0x1ef>
   11924:	8b 85 ec ef ff ff    	mov    -0x1014(%rbp),%eax
   1192a:	85 c0                	test   %eax,%eax
   1192c:	0f 84 30 0e 00 00    	je     12762 <func_82+0x1050>
   11932:	48 c7 85 90 f0 ff ff 	movq   $0x0,-0xf70(%rbp)
   11939:	00 00 00 00 
   1193d:	48 8d 05 d4 89 00 00 	lea    0x89d4(%rip),%rax        # 1a318 <g_45>
   11944:	48 89 85 88 f0 ff ff 	mov    %rax,-0xf78(%rbp)
   1194b:	c7 85 48 f0 ff ff 4f 	movl   $0xcccdc14f,-0xfb8(%rbp)
   11952:	c1 cd cc 
   11955:	c7 85 4c f0 ff ff 77 	movl   $0xa71eaa77,-0xfb4(%rbp)
   1195c:	aa 1e a7 
   1195f:	c7 85 50 f0 ff ff 2b 	movl   $0x2ad0072b,-0xfb0(%rbp)
   11966:	07 d0 2a 
   11969:	c7 85 54 f0 ff ff 0b 	movl   $0x84e9db0b,-0xfac(%rbp)
   11970:	db e9 84 
   11973:	c7 85 58 f0 ff ff 95 	movl   $0xc375795,-0xfa8(%rbp)
   1197a:	57 37 0c 
   1197d:	c7 85 5c f0 ff ff 43 	movl   $0xfd913343,-0xfa4(%rbp)
   11984:	33 91 fd 
   11987:	c7 85 60 f0 ff ff 13 	movl   $0x96dfd013,-0xfa0(%rbp)
   1198e:	d0 df 96 
   11991:	c7 85 64 f0 ff ff 01 	movl   $0x1,-0xf9c(%rbp)
   11998:	00 00 00 
   1199b:	c7 85 68 f0 ff ff 32 	movl   $0x45b81c32,-0xf98(%rbp)
   119a2:	1c b8 45 
   119a5:	c7 85 6c f0 ff ff ff 	movl   $0xffffffff,-0xf94(%rbp)
   119ac:	ff ff ff 
   119af:	48 8d 05 82 89 00 00 	lea    0x8982(%rip),%rax        # 1a338 <g_59+0x18>
   119b6:	48 89 85 08 f1 ff ff 	mov    %rax,-0xef8(%rbp)
   119bd:	48 b8 51 d1 a9 9d 06 	movabs $0x8dafff069da9d151,%rax
   119c4:	ff af 8d 
   119c7:	48 89 85 10 f1 ff ff 	mov    %rax,-0xef0(%rbp)
   119ce:	c7 85 2c f0 ff ff 00 	movl   $0x0,-0xfd4(%rbp)
   119d5:	00 00 00 
   119d8:	eb 1b                	jmp    119f5 <func_82+0x2e3>
   119da:	8b 85 2c f0 ff ff    	mov    -0xfd4(%rbp),%eax
   119e0:	48 98                	cltq   
   119e2:	48 c7 84 c5 90 f2 ff 	movq   $0x0,-0xd70(%rbp,%rax,8)
   119e9:	ff 00 00 00 00 
   119ee:	83 85 2c f0 ff ff 01 	addl   $0x1,-0xfd4(%rbp)
   119f5:	83 bd 2c f0 ff ff 09 	cmpl   $0x9,-0xfd4(%rbp)
   119fc:	7e dc                	jle    119da <func_82+0x2c8>
   119fe:	8b 85 00 f0 ff ff    	mov    -0x1000(%rbp),%eax
   11a04:	83 e0 01             	and    $0x1,%eax
   11a07:	89 85 00 f0 ff ff    	mov    %eax,-0x1000(%rbp)
   11a0d:	8b 85 00 f0 ff ff    	mov    -0x1000(%rbp),%eax
   11a13:	0f be d0             	movsbl %al,%edx
   11a16:	48 8b 85 90 f0 ff ff 	mov    -0xf70(%rbp),%rax
   11a1d:	89 85 58 f1 ff ff    	mov    %eax,-0xea8(%rbp)
   11a23:	8b 85 58 f1 ff ff    	mov    -0xea8(%rbp),%eax
   11a29:	89 85 44 f1 ff ff    	mov    %eax,-0xebc(%rbp)
   11a2f:	8b 85 44 f1 ff ff    	mov    -0xebc(%rbp),%eax
   11a35:	89 85 24 f0 ff ff    	mov    %eax,-0xfdc(%rbp)
   11a3b:	8b 85 24 f0 ff ff    	mov    -0xfdc(%rbp),%eax
   11a41:	89 85 38 f0 ff ff    	mov    %eax,-0xfc8(%rbp)
   11a47:	8b 85 38 f0 ff ff    	mov    -0xfc8(%rbp),%eax
   11a4d:	0f be c0             	movsbl %al,%eax
   11a50:	89 d6                	mov    %edx,%esi
   11a52:	89 c7                	mov    %eax,%edi
   11a54:	e8 11 48 ff ff       	callq  626a <safe_div_func_int8_t_s_s>
   11a59:	48 8b 95 88 f0 ff ff 	mov    -0xf78(%rbp),%rdx
   11a60:	8b 0a                	mov    (%rdx),%ecx
   11a62:	0f be d0             	movsbl %al,%edx
   11a65:	48 8b 85 88 f0 ff ff 	mov    -0xf78(%rbp),%rax
   11a6c:	31 ca                	xor    %ecx,%edx
   11a6e:	89 10                	mov    %edx,(%rax)
   11a70:	48 8b 05 f1 ae 00 00 	mov    0xaef1(%rip),%rax        # 1c968 <g_109>
   11a77:	48 8d 95 00 f0 ff ff 	lea    -0x1000(%rbp),%rdx
   11a7e:	48 89 10             	mov    %rdx,(%rax)
   11a81:	48 8b 05 f0 ae 00 00 	mov    0xaef0(%rip),%rax        # 1c978 <g_113>
   11a88:	48 8b 15 e1 ae 00 00 	mov    0xaee1(%rip),%rdx        # 1c970 <g_111>
   11a8f:	48 89 10             	mov    %rdx,(%rax)
   11a92:	48 c7 85 90 f0 ff ff 	movq   $0x17,-0xf70(%rbp)
   11a99:	17 00 00 00 
   11a9d:	e9 ad 0c 00 00       	jmpq   1274f <func_82+0x103d>
   11aa2:	48 8d 85 88 f0 ff ff 	lea    -0xf78(%rbp),%rax
   11aa9:	48 89 85 40 f3 ff ff 	mov    %rax,-0xcc0(%rbp)
   11ab0:	48 8d 05 a9 ae 00 00 	lea    0xaea9(%rip),%rax        # 1c960 <g_110>
   11ab7:	48 89 85 48 f3 ff ff 	mov    %rax,-0xcb8(%rbp)
   11abe:	48 8d 85 88 f0 ff ff 	lea    -0xf78(%rbp),%rax
   11ac5:	48 89 85 50 f3 ff ff 	mov    %rax,-0xcb0(%rbp)
   11acc:	48 8d 85 88 f0 ff ff 	lea    -0xf78(%rbp),%rax
   11ad3:	48 89 85 58 f3 ff ff 	mov    %rax,-0xca8(%rbp)
   11ada:	48 8d 85 88 f0 ff ff 	lea    -0xf78(%rbp),%rax
   11ae1:	48 89 85 60 f3 ff ff 	mov    %rax,-0xca0(%rbp)
   11ae8:	48 8d 85 88 f0 ff ff 	lea    -0xf78(%rbp),%rax
   11aef:	48 89 85 68 f3 ff ff 	mov    %rax,-0xc98(%rbp)
   11af6:	48 8d 05 63 ae 00 00 	lea    0xae63(%rip),%rax        # 1c960 <g_110>
   11afd:	48 89 85 70 f3 ff ff 	mov    %rax,-0xc90(%rbp)
   11b04:	48 8d 85 88 f0 ff ff 	lea    -0xf78(%rbp),%rax
   11b0b:	48 89 85 78 f3 ff ff 	mov    %rax,-0xc88(%rbp)
   11b12:	48 8d 85 88 f0 ff ff 	lea    -0xf78(%rbp),%rax
   11b19:	48 89 85 80 f3 ff ff 	mov    %rax,-0xc80(%rbp)
   11b20:	48 8d 85 88 f0 ff ff 	lea    -0xf78(%rbp),%rax
   11b27:	48 89 85 88 f3 ff ff 	mov    %rax,-0xc78(%rbp)
   11b2e:	48 8d 05 2b ae 00 00 	lea    0xae2b(%rip),%rax        # 1c960 <g_110>
   11b35:	48 89 85 90 f3 ff ff 	mov    %rax,-0xc70(%rbp)
   11b3c:	48 8d 85 88 f0 ff ff 	lea    -0xf78(%rbp),%rax
   11b43:	48 89 85 98 f3 ff ff 	mov    %rax,-0xc68(%rbp)
   11b4a:	48 8d 85 88 f0 ff ff 	lea    -0xf78(%rbp),%rax
   11b51:	48 89 85 a0 f3 ff ff 	mov    %rax,-0xc60(%rbp)
   11b58:	48 8d 05 01 ae 00 00 	lea    0xae01(%rip),%rax        # 1c960 <g_110>
   11b5f:	48 89 85 a8 f3 ff ff 	mov    %rax,-0xc58(%rbp)
   11b66:	48 c7 85 b0 f3 ff ff 	movq   $0x0,-0xc50(%rbp)
   11b6d:	00 00 00 00 
   11b71:	48 8d 85 88 f0 ff ff 	lea    -0xf78(%rbp),%rax
   11b78:	48 89 85 b8 f3 ff ff 	mov    %rax,-0xc48(%rbp)
   11b7f:	48 8d 85 88 f0 ff ff 	lea    -0xf78(%rbp),%rax
   11b86:	48 89 85 c0 f3 ff ff 	mov    %rax,-0xc40(%rbp)
   11b8d:	48 c7 85 c8 f3 ff ff 	movq   $0x0,-0xc38(%rbp)
   11b94:	00 00 00 00 
   11b98:	48 c7 85 d0 f3 ff ff 	movq   $0x0,-0xc30(%rbp)
   11b9f:	00 00 00 00 
   11ba3:	48 c7 85 d8 f3 ff ff 	movq   $0x0,-0xc28(%rbp)
   11baa:	00 00 00 00 
   11bae:	48 8d 85 88 f0 ff ff 	lea    -0xf78(%rbp),%rax
   11bb5:	48 89 85 e0 f3 ff ff 	mov    %rax,-0xc20(%rbp)
   11bbc:	48 8d 85 88 f0 ff ff 	lea    -0xf78(%rbp),%rax
   11bc3:	48 89 85 e8 f3 ff ff 	mov    %rax,-0xc18(%rbp)
   11bca:	48 8d 85 88 f0 ff ff 	lea    -0xf78(%rbp),%rax
   11bd1:	48 89 85 f0 f3 ff ff 	mov    %rax,-0xc10(%rbp)
   11bd8:	48 8d 05 81 ad 00 00 	lea    0xad81(%rip),%rax        # 1c960 <g_110>
   11bdf:	48 89 85 f8 f3 ff ff 	mov    %rax,-0xc08(%rbp)
   11be6:	48 8d 85 88 f0 ff ff 	lea    -0xf78(%rbp),%rax
   11bed:	48 89 85 00 f4 ff ff 	mov    %rax,-0xc00(%rbp)
   11bf4:	48 8d 85 88 f0 ff ff 	lea    -0xf78(%rbp),%rax
   11bfb:	48 89 85 08 f4 ff ff 	mov    %rax,-0xbf8(%rbp)
   11c02:	48 8d 85 88 f0 ff ff 	lea    -0xf78(%rbp),%rax
   11c09:	48 89 85 10 f4 ff ff 	mov    %rax,-0xbf0(%rbp)
   11c10:	48 8d 85 88 f0 ff ff 	lea    -0xf78(%rbp),%rax
   11c17:	48 89 85 18 f4 ff ff 	mov    %rax,-0xbe8(%rbp)
   11c1e:	48 8d 05 3b ad 00 00 	lea    0xad3b(%rip),%rax        # 1c960 <g_110>
   11c25:	48 89 85 20 f4 ff ff 	mov    %rax,-0xbe0(%rbp)
   11c2c:	48 8d 85 88 f0 ff ff 	lea    -0xf78(%rbp),%rax
   11c33:	48 89 85 28 f4 ff ff 	mov    %rax,-0xbd8(%rbp)
   11c3a:	48 8d 05 1f ad 00 00 	lea    0xad1f(%rip),%rax        # 1c960 <g_110>
   11c41:	48 89 85 30 f4 ff ff 	mov    %rax,-0xbd0(%rbp)
   11c48:	48 8d 85 88 f0 ff ff 	lea    -0xf78(%rbp),%rax
   11c4f:	48 89 85 38 f4 ff ff 	mov    %rax,-0xbc8(%rbp)
   11c56:	48 8d 05 03 ad 00 00 	lea    0xad03(%rip),%rax        # 1c960 <g_110>
   11c5d:	48 89 85 40 f4 ff ff 	mov    %rax,-0xbc0(%rbp)
   11c64:	48 8d 05 f5 ac 00 00 	lea    0xacf5(%rip),%rax        # 1c960 <g_110>
   11c6b:	48 89 85 48 f4 ff ff 	mov    %rax,-0xbb8(%rbp)
   11c72:	48 8d 85 88 f0 ff ff 	lea    -0xf78(%rbp),%rax
   11c79:	48 89 85 50 f4 ff ff 	mov    %rax,-0xbb0(%rbp)
   11c80:	48 8d 05 d9 ac 00 00 	lea    0xacd9(%rip),%rax        # 1c960 <g_110>
   11c87:	48 89 85 58 f4 ff ff 	mov    %rax,-0xba8(%rbp)
   11c8e:	48 8d 05 cb ac 00 00 	lea    0xaccb(%rip),%rax        # 1c960 <g_110>
   11c95:	48 89 85 60 f4 ff ff 	mov    %rax,-0xba0(%rbp)
   11c9c:	48 8d 05 bd ac 00 00 	lea    0xacbd(%rip),%rax        # 1c960 <g_110>
   11ca3:	48 89 85 68 f4 ff ff 	mov    %rax,-0xb98(%rbp)
   11caa:	48 c7 85 70 f4 ff ff 	movq   $0x0,-0xb90(%rbp)
   11cb1:	00 00 00 00 
   11cb5:	48 8d 85 88 f0 ff ff 	lea    -0xf78(%rbp),%rax
   11cbc:	48 89 85 78 f4 ff ff 	mov    %rax,-0xb88(%rbp)
   11cc3:	48 8d 05 96 ac 00 00 	lea    0xac96(%rip),%rax        # 1c960 <g_110>
   11cca:	48 89 85 80 f4 ff ff 	mov    %rax,-0xb80(%rbp)
   11cd1:	48 c7 85 88 f4 ff ff 	movq   $0x0,-0xb78(%rbp)
   11cd8:	00 00 00 00 
   11cdc:	48 8d 85 88 f0 ff ff 	lea    -0xf78(%rbp),%rax
   11ce3:	48 89 85 90 f4 ff ff 	mov    %rax,-0xb70(%rbp)
   11cea:	48 c7 85 98 f4 ff ff 	movq   $0x0,-0xb68(%rbp)
   11cf1:	00 00 00 00 
   11cf5:	48 8d 05 64 ac 00 00 	lea    0xac64(%rip),%rax        # 1c960 <g_110>
   11cfc:	48 89 85 a0 f4 ff ff 	mov    %rax,-0xb60(%rbp)
   11d03:	48 8d 05 56 ac 00 00 	lea    0xac56(%rip),%rax        # 1c960 <g_110>
   11d0a:	48 89 85 a8 f4 ff ff 	mov    %rax,-0xb58(%rbp)
   11d11:	48 c7 85 b0 f4 ff ff 	movq   $0x0,-0xb50(%rbp)
   11d18:	00 00 00 00 
   11d1c:	48 8d 85 88 f0 ff ff 	lea    -0xf78(%rbp),%rax
   11d23:	48 89 85 b8 f4 ff ff 	mov    %rax,-0xb48(%rbp)
   11d2a:	48 c7 85 c0 f4 ff ff 	movq   $0x0,-0xb40(%rbp)
   11d31:	00 00 00 00 
   11d35:	48 8d 85 88 f0 ff ff 	lea    -0xf78(%rbp),%rax
   11d3c:	48 89 85 c8 f4 ff ff 	mov    %rax,-0xb38(%rbp)
   11d43:	48 c7 85 d0 f4 ff ff 	movq   $0x0,-0xb30(%rbp)
   11d4a:	00 00 00 00 
   11d4e:	48 c7 85 d8 f4 ff ff 	movq   $0x0,-0xb28(%rbp)
   11d55:	00 00 00 00 
   11d59:	48 8d 85 88 f0 ff ff 	lea    -0xf78(%rbp),%rax
   11d60:	48 89 85 e0 f4 ff ff 	mov    %rax,-0xb20(%rbp)
   11d67:	48 c7 85 e8 f4 ff ff 	movq   $0x0,-0xb18(%rbp)
   11d6e:	00 00 00 00 
   11d72:	48 8d 05 e7 ab 00 00 	lea    0xabe7(%rip),%rax        # 1c960 <g_110>
   11d79:	48 89 85 f0 f4 ff ff 	mov    %rax,-0xb10(%rbp)
   11d80:	48 8d 85 88 f0 ff ff 	lea    -0xf78(%rbp),%rax
   11d87:	48 89 85 f8 f4 ff ff 	mov    %rax,-0xb08(%rbp)
   11d8e:	48 8d 05 cb ab 00 00 	lea    0xabcb(%rip),%rax        # 1c960 <g_110>
   11d95:	48 89 85 00 f5 ff ff 	mov    %rax,-0xb00(%rbp)
   11d9c:	48 8d 05 bd ab 00 00 	lea    0xabbd(%rip),%rax        # 1c960 <g_110>
   11da3:	48 89 85 08 f5 ff ff 	mov    %rax,-0xaf8(%rbp)
   11daa:	48 8d 85 88 f0 ff ff 	lea    -0xf78(%rbp),%rax
   11db1:	48 89 85 10 f5 ff ff 	mov    %rax,-0xaf0(%rbp)
   11db8:	48 8d 05 a1 ab 00 00 	lea    0xaba1(%rip),%rax        # 1c960 <g_110>
   11dbf:	48 89 85 18 f5 ff ff 	mov    %rax,-0xae8(%rbp)
   11dc6:	48 8d 85 88 f0 ff ff 	lea    -0xf78(%rbp),%rax
   11dcd:	48 89 85 20 f5 ff ff 	mov    %rax,-0xae0(%rbp)
   11dd4:	48 8d 05 85 ab 00 00 	lea    0xab85(%rip),%rax        # 1c960 <g_110>
   11ddb:	48 89 85 28 f5 ff ff 	mov    %rax,-0xad8(%rbp)
   11de2:	48 8d 05 77 ab 00 00 	lea    0xab77(%rip),%rax        # 1c960 <g_110>
   11de9:	48 89 85 30 f5 ff ff 	mov    %rax,-0xad0(%rbp)
   11df0:	48 8d 85 88 f0 ff ff 	lea    -0xf78(%rbp),%rax
   11df7:	48 89 85 38 f5 ff ff 	mov    %rax,-0xac8(%rbp)
   11dfe:	48 8d 85 88 f0 ff ff 	lea    -0xf78(%rbp),%rax
   11e05:	48 89 85 40 f5 ff ff 	mov    %rax,-0xac0(%rbp)
   11e0c:	48 c7 85 48 f5 ff ff 	movq   $0x0,-0xab8(%rbp)
   11e13:	00 00 00 00 
   11e17:	48 8d 85 88 f0 ff ff 	lea    -0xf78(%rbp),%rax
   11e1e:	48 89 85 50 f5 ff ff 	mov    %rax,-0xab0(%rbp)
   11e25:	48 8d 85 88 f0 ff ff 	lea    -0xf78(%rbp),%rax
   11e2c:	48 89 85 58 f5 ff ff 	mov    %rax,-0xaa8(%rbp)
   11e33:	48 8d 85 88 f0 ff ff 	lea    -0xf78(%rbp),%rax
   11e3a:	48 89 85 60 f5 ff ff 	mov    %rax,-0xaa0(%rbp)
   11e41:	48 8d 85 88 f0 ff ff 	lea    -0xf78(%rbp),%rax
   11e48:	48 89 85 68 f5 ff ff 	mov    %rax,-0xa98(%rbp)
   11e4f:	48 8d 85 88 f0 ff ff 	lea    -0xf78(%rbp),%rax
   11e56:	48 89 85 70 f5 ff ff 	mov    %rax,-0xa90(%rbp)
   11e5d:	48 8d 05 fc aa 00 00 	lea    0xaafc(%rip),%rax        # 1c960 <g_110>
   11e64:	48 89 85 78 f5 ff ff 	mov    %rax,-0xa88(%rbp)
   11e6b:	48 c7 85 80 f5 ff ff 	movq   $0x0,-0xa80(%rbp)
   11e72:	00 00 00 00 
   11e76:	48 8d 85 88 f0 ff ff 	lea    -0xf78(%rbp),%rax
   11e7d:	48 89 85 88 f5 ff ff 	mov    %rax,-0xa78(%rbp)
   11e84:	48 8d 85 88 f0 ff ff 	lea    -0xf78(%rbp),%rax
   11e8b:	48 89 85 90 f5 ff ff 	mov    %rax,-0xa70(%rbp)
   11e92:	48 c7 85 98 f5 ff ff 	movq   $0x0,-0xa68(%rbp)
   11e99:	00 00 00 00 
   11e9d:	48 c7 85 a0 f5 ff ff 	movq   $0x0,-0xa60(%rbp)
   11ea4:	00 00 00 00 
   11ea8:	48 c7 85 a8 f5 ff ff 	movq   $0x0,-0xa58(%rbp)
   11eaf:	00 00 00 00 
   11eb3:	48 8d 05 a6 aa 00 00 	lea    0xaaa6(%rip),%rax        # 1c960 <g_110>
   11eba:	48 89 85 b0 f5 ff ff 	mov    %rax,-0xa50(%rbp)
   11ec1:	48 8d 85 88 f0 ff ff 	lea    -0xf78(%rbp),%rax
   11ec8:	48 89 85 b8 f5 ff ff 	mov    %rax,-0xa48(%rbp)
   11ecf:	48 8d 85 88 f0 ff ff 	lea    -0xf78(%rbp),%rax
   11ed6:	48 89 85 c0 f5 ff ff 	mov    %rax,-0xa40(%rbp)
   11edd:	48 8d 05 7c aa 00 00 	lea    0xaa7c(%rip),%rax        # 1c960 <g_110>
   11ee4:	48 89 85 c8 f5 ff ff 	mov    %rax,-0xa38(%rbp)
   11eeb:	48 c7 85 d0 f5 ff ff 	movq   $0x0,-0xa30(%rbp)
   11ef2:	00 00 00 00 
   11ef6:	48 c7 85 d8 f5 ff ff 	movq   $0x0,-0xa28(%rbp)
   11efd:	00 00 00 00 
   11f01:	48 8d 85 88 f0 ff ff 	lea    -0xf78(%rbp),%rax
   11f08:	48 89 85 e0 f5 ff ff 	mov    %rax,-0xa20(%rbp)
   11f0f:	48 8d 85 88 f0 ff ff 	lea    -0xf78(%rbp),%rax
   11f16:	48 89 85 e8 f5 ff ff 	mov    %rax,-0xa18(%rbp)
   11f1d:	48 8d 85 88 f0 ff ff 	lea    -0xf78(%rbp),%rax
   11f24:	48 89 85 f0 f5 ff ff 	mov    %rax,-0xa10(%rbp)
   11f2b:	48 8d 85 88 f0 ff ff 	lea    -0xf78(%rbp),%rax
   11f32:	48 89 85 f8 f5 ff ff 	mov    %rax,-0xa08(%rbp)
   11f39:	48 c7 85 00 f6 ff ff 	movq   $0x0,-0xa00(%rbp)
   11f40:	00 00 00 00 
   11f44:	48 8d 85 88 f0 ff ff 	lea    -0xf78(%rbp),%rax
   11f4b:	48 89 85 08 f6 ff ff 	mov    %rax,-0x9f8(%rbp)
   11f52:	48 8d 85 88 f0 ff ff 	lea    -0xf78(%rbp),%rax
   11f59:	48 89 85 10 f6 ff ff 	mov    %rax,-0x9f0(%rbp)
   11f60:	48 8d 85 88 f0 ff ff 	lea    -0xf78(%rbp),%rax
   11f67:	48 89 85 18 f6 ff ff 	mov    %rax,-0x9e8(%rbp)
   11f6e:	48 8d 85 88 f0 ff ff 	lea    -0xf78(%rbp),%rax
   11f75:	48 89 85 20 f6 ff ff 	mov    %rax,-0x9e0(%rbp)
   11f7c:	48 c7 85 28 f6 ff ff 	movq   $0x0,-0x9d8(%rbp)
   11f83:	00 00 00 00 
   11f87:	48 8d 85 88 f0 ff ff 	lea    -0xf78(%rbp),%rax
   11f8e:	48 89 85 30 f6 ff ff 	mov    %rax,-0x9d0(%rbp)
   11f95:	48 c7 85 38 f6 ff ff 	movq   $0x0,-0x9c8(%rbp)
   11f9c:	00 00 00 00 
   11fa0:	48 8d 85 88 f0 ff ff 	lea    -0xf78(%rbp),%rax
   11fa7:	48 89 85 40 f6 ff ff 	mov    %rax,-0x9c0(%rbp)
   11fae:	48 8d 85 88 f0 ff ff 	lea    -0xf78(%rbp),%rax
   11fb5:	48 89 85 48 f6 ff ff 	mov    %rax,-0x9b8(%rbp)
   11fbc:	48 8d 05 9d a9 00 00 	lea    0xa99d(%rip),%rax        # 1c960 <g_110>
   11fc3:	48 89 85 50 f6 ff ff 	mov    %rax,-0x9b0(%rbp)
   11fca:	48 8d 85 88 f0 ff ff 	lea    -0xf78(%rbp),%rax
   11fd1:	48 89 85 58 f6 ff ff 	mov    %rax,-0x9a8(%rbp)
   11fd8:	48 8d 05 81 a9 00 00 	lea    0xa981(%rip),%rax        # 1c960 <g_110>
   11fdf:	48 89 85 60 f6 ff ff 	mov    %rax,-0x9a0(%rbp)
   11fe6:	48 8d 85 88 f0 ff ff 	lea    -0xf78(%rbp),%rax
   11fed:	48 89 85 68 f6 ff ff 	mov    %rax,-0x998(%rbp)
   11ff4:	48 8d 05 65 a9 00 00 	lea    0xa965(%rip),%rax        # 1c960 <g_110>
   11ffb:	48 89 85 70 f6 ff ff 	mov    %rax,-0x990(%rbp)
   12002:	48 8d 05 57 a9 00 00 	lea    0xa957(%rip),%rax        # 1c960 <g_110>
   12009:	48 89 85 78 f6 ff ff 	mov    %rax,-0x988(%rbp)
   12010:	48 8d 85 88 f0 ff ff 	lea    -0xf78(%rbp),%rax
   12017:	48 89 85 80 f6 ff ff 	mov    %rax,-0x980(%rbp)
   1201e:	48 8d 85 88 f0 ff ff 	lea    -0xf78(%rbp),%rax
   12025:	48 89 85 88 f6 ff ff 	mov    %rax,-0x978(%rbp)
   1202c:	48 8d 05 2d a9 00 00 	lea    0xa92d(%rip),%rax        # 1c960 <g_110>
   12033:	48 89 85 90 f6 ff ff 	mov    %rax,-0x970(%rbp)
   1203a:	48 8d 05 1f a9 00 00 	lea    0xa91f(%rip),%rax        # 1c960 <g_110>
   12041:	48 89 85 98 f6 ff ff 	mov    %rax,-0x968(%rbp)
   12048:	48 8d 85 88 f0 ff ff 	lea    -0xf78(%rbp),%rax
   1204f:	48 89 85 a0 f6 ff ff 	mov    %rax,-0x960(%rbp)
   12056:	48 8d 85 88 f0 ff ff 	lea    -0xf78(%rbp),%rax
   1205d:	48 89 85 a8 f6 ff ff 	mov    %rax,-0x958(%rbp)
   12064:	48 8d 05 f5 a8 00 00 	lea    0xa8f5(%rip),%rax        # 1c960 <g_110>
   1206b:	48 89 85 b0 f6 ff ff 	mov    %rax,-0x950(%rbp)
   12072:	48 8d 05 e7 a8 00 00 	lea    0xa8e7(%rip),%rax        # 1c960 <g_110>
   12079:	48 89 85 b8 f6 ff ff 	mov    %rax,-0x948(%rbp)
   12080:	48 8d 85 88 f0 ff ff 	lea    -0xf78(%rbp),%rax
   12087:	48 89 85 c0 f6 ff ff 	mov    %rax,-0x940(%rbp)
   1208e:	48 8d 05 cb a8 00 00 	lea    0xa8cb(%rip),%rax        # 1c960 <g_110>
   12095:	48 89 85 c8 f6 ff ff 	mov    %rax,-0x938(%rbp)
   1209c:	48 8d 05 bd a8 00 00 	lea    0xa8bd(%rip),%rax        # 1c960 <g_110>
   120a3:	48 89 85 d0 f6 ff ff 	mov    %rax,-0x930(%rbp)
   120aa:	48 8d 05 af a8 00 00 	lea    0xa8af(%rip),%rax        # 1c960 <g_110>
   120b1:	48 89 85 d8 f6 ff ff 	mov    %rax,-0x928(%rbp)
   120b8:	48 8d 05 a1 a8 00 00 	lea    0xa8a1(%rip),%rax        # 1c960 <g_110>
   120bf:	48 89 85 e0 f6 ff ff 	mov    %rax,-0x920(%rbp)
   120c6:	48 8d 85 88 f0 ff ff 	lea    -0xf78(%rbp),%rax
   120cd:	48 89 85 e8 f6 ff ff 	mov    %rax,-0x918(%rbp)
   120d4:	48 c7 85 f0 f6 ff ff 	movq   $0x0,-0x910(%rbp)
   120db:	00 00 00 00 
   120df:	48 8d 05 7a a8 00 00 	lea    0xa87a(%rip),%rax        # 1c960 <g_110>
   120e6:	48 89 85 f8 f6 ff ff 	mov    %rax,-0x908(%rbp)
   120ed:	48 8d 85 88 f0 ff ff 	lea    -0xf78(%rbp),%rax
   120f4:	48 89 85 00 f7 ff ff 	mov    %rax,-0x900(%rbp)
   120fb:	48 c7 85 08 f7 ff ff 	movq   $0x0,-0x8f8(%rbp)
   12102:	00 00 00 00 
   12106:	48 8d 05 53 a8 00 00 	lea    0xa853(%rip),%rax        # 1c960 <g_110>
   1210d:	48 89 85 10 f7 ff ff 	mov    %rax,-0x8f0(%rbp)
   12114:	48 8d 05 45 a8 00 00 	lea    0xa845(%rip),%rax        # 1c960 <g_110>
   1211b:	48 89 85 18 f7 ff ff 	mov    %rax,-0x8e8(%rbp)
   12122:	48 8d 05 37 a8 00 00 	lea    0xa837(%rip),%rax        # 1c960 <g_110>
   12129:	48 89 85 20 f7 ff ff 	mov    %rax,-0x8e0(%rbp)
   12130:	48 c7 85 28 f7 ff ff 	movq   $0x0,-0x8d8(%rbp)
   12137:	00 00 00 00 
   1213b:	48 8d 05 1e a8 00 00 	lea    0xa81e(%rip),%rax        # 1c960 <g_110>
   12142:	48 89 85 30 f7 ff ff 	mov    %rax,-0x8d0(%rbp)
   12149:	48 8d 05 10 a8 00 00 	lea    0xa810(%rip),%rax        # 1c960 <g_110>
   12150:	48 89 85 38 f7 ff ff 	mov    %rax,-0x8c8(%rbp)
   12157:	48 8d 85 88 f0 ff ff 	lea    -0xf78(%rbp),%rax
   1215e:	48 89 85 40 f7 ff ff 	mov    %rax,-0x8c0(%rbp)
   12165:	48 8d 05 f4 a7 00 00 	lea    0xa7f4(%rip),%rax        # 1c960 <g_110>
   1216c:	48 89 85 48 f7 ff ff 	mov    %rax,-0x8b8(%rbp)
   12173:	48 8d 85 88 f0 ff ff 	lea    -0xf78(%rbp),%rax
   1217a:	48 89 85 50 f7 ff ff 	mov    %rax,-0x8b0(%rbp)
   12181:	48 8d 85 88 f0 ff ff 	lea    -0xf78(%rbp),%rax
   12188:	48 89 85 58 f7 ff ff 	mov    %rax,-0x8a8(%rbp)
   1218f:	48 8d 05 ca a7 00 00 	lea    0xa7ca(%rip),%rax        # 1c960 <g_110>
   12196:	48 89 85 60 f7 ff ff 	mov    %rax,-0x8a0(%rbp)
   1219d:	48 8d 85 88 f0 ff ff 	lea    -0xf78(%rbp),%rax
   121a4:	48 89 85 68 f7 ff ff 	mov    %rax,-0x898(%rbp)
   121ab:	48 c7 85 70 f7 ff ff 	movq   $0x0,-0x890(%rbp)
   121b2:	00 00 00 00 
   121b6:	48 8d 85 88 f0 ff ff 	lea    -0xf78(%rbp),%rax
   121bd:	48 89 85 78 f7 ff ff 	mov    %rax,-0x888(%rbp)
   121c4:	48 8d 85 88 f0 ff ff 	lea    -0xf78(%rbp),%rax
   121cb:	48 89 85 80 f7 ff ff 	mov    %rax,-0x880(%rbp)
   121d2:	48 8d 85 88 f0 ff ff 	lea    -0xf78(%rbp),%rax
   121d9:	48 89 85 88 f7 ff ff 	mov    %rax,-0x878(%rbp)
   121e0:	48 8d 85 88 f0 ff ff 	lea    -0xf78(%rbp),%rax
   121e7:	48 89 85 90 f7 ff ff 	mov    %rax,-0x870(%rbp)
   121ee:	48 8d 85 88 f0 ff ff 	lea    -0xf78(%rbp),%rax
   121f5:	48 89 85 98 f7 ff ff 	mov    %rax,-0x868(%rbp)
   121fc:	48 c7 85 a0 f7 ff ff 	movq   $0x0,-0x860(%rbp)
   12203:	00 00 00 00 
   12207:	48 c7 85 a8 f7 ff ff 	movq   $0x0,-0x858(%rbp)
   1220e:	00 00 00 00 
   12212:	48 c7 85 b0 f7 ff ff 	movq   $0x0,-0x850(%rbp)
   12219:	00 00 00 00 
   1221d:	48 8d 85 88 f0 ff ff 	lea    -0xf78(%rbp),%rax
   12224:	48 89 85 b8 f7 ff ff 	mov    %rax,-0x848(%rbp)
   1222b:	48 8d 85 88 f0 ff ff 	lea    -0xf78(%rbp),%rax
   12232:	48 89 85 c0 f7 ff ff 	mov    %rax,-0x840(%rbp)
   12239:	48 c7 85 c8 f7 ff ff 	movq   $0x0,-0x838(%rbp)
   12240:	00 00 00 00 
   12244:	48 8d 05 15 a7 00 00 	lea    0xa715(%rip),%rax        # 1c960 <g_110>
   1224b:	48 89 85 d0 f7 ff ff 	mov    %rax,-0x830(%rbp)
   12252:	48 c7 85 18 f1 ff ff 	movq   $0x0,-0xee8(%rbp)
   12259:	00 00 00 00 
   1225d:	48 b8 78 d6 ef ce 03 	movabs $0x81395103ceefd678,%rax
   12264:	51 39 81 
   12267:	48 89 85 20 f1 ff ff 	mov    %rax,-0xee0(%rbp)
   1226e:	48 8d 05 15 82 00 00 	lea    0x8215(%rip),%rax        # 1a48a <g_129>
   12275:	48 89 85 28 f1 ff ff 	mov    %rax,-0xed8(%rbp)
   1227c:	48 8b 85 88 f0 ff ff 	mov    -0xf78(%rbp),%rax
   12283:	8b 00                	mov    (%rax),%eax
   12285:	85 c0                	test   %eax,%eax
   12287:	0f 85 a3 0c 00 00    	jne    12f30 <func_82+0x181e>
   1228d:	c7 85 00 f0 ff ff 02 	movl   $0x2,-0x1000(%rbp)
   12294:	00 00 00 
   12297:	e9 86 04 00 00       	jmpq   12722 <func_82+0x1010>
   1229c:	48 c7 85 e0 f2 ff ff 	movq   $0x0,-0xd20(%rbp)
   122a3:	00 00 00 00 
   122a7:	48 c7 85 e8 f2 ff ff 	movq   $0x0,-0xd18(%rbp)
   122ae:	00 00 00 00 
   122b2:	48 8d 05 ab 81 00 00 	lea    0x81ab(%rip),%rax        # 1a464 <g_89+0x4>
   122b9:	48 89 85 f0 f2 ff ff 	mov    %rax,-0xd10(%rbp)
   122c0:	48 c7 85 f8 f2 ff ff 	movq   $0x0,-0xd08(%rbp)
   122c7:	00 00 00 00 
   122cb:	48 c7 85 00 f3 ff ff 	movq   $0x0,-0xd00(%rbp)
   122d2:	00 00 00 00 
   122d6:	48 8d 05 87 81 00 00 	lea    0x8187(%rip),%rax        # 1a464 <g_89+0x4>
   122dd:	48 89 85 08 f3 ff ff 	mov    %rax,-0xcf8(%rbp)
   122e4:	48 c7 85 10 f3 ff ff 	movq   $0x0,-0xcf0(%rbp)
   122eb:	00 00 00 00 
   122ef:	48 c7 85 18 f3 ff ff 	movq   $0x0,-0xce8(%rbp)
   122f6:	00 00 00 00 
   122fa:	48 8d 05 63 81 00 00 	lea    0x8163(%rip),%rax        # 1a464 <g_89+0x4>
   12301:	48 89 85 20 f3 ff ff 	mov    %rax,-0xce0(%rbp)
   12308:	48 c7 85 28 f3 ff ff 	movq   $0x0,-0xcd8(%rbp)
   1230f:	00 00 00 00 
   12313:	48 c7 85 30 f3 ff ff 	movq   $0x0,-0xcd0(%rbp)
   1231a:	00 00 00 00 
   1231e:	48 8d 05 3f 81 00 00 	lea    0x813f(%rip),%rax        # 1a464 <g_89+0x4>
   12325:	48 89 85 38 f3 ff ff 	mov    %rax,-0xcc8(%rbp)
   1232c:	48 8d 05 59 81 00 00 	lea    0x8159(%rip),%rax        # 1a48c <g_134>
   12333:	48 89 85 30 f1 ff ff 	mov    %rax,-0xed0(%rbp)
   1233a:	48 8d 05 3f 81 00 00 	lea    0x813f(%rip),%rax        # 1a480 <g_89+0x20>
   12341:	48 89 85 f0 f1 ff ff 	mov    %rax,-0xe10(%rbp)
   12348:	48 8d 05 31 81 00 00 	lea    0x8131(%rip),%rax        # 1a480 <g_89+0x20>
   1234f:	48 89 85 f8 f1 ff ff 	mov    %rax,-0xe08(%rbp)
   12356:	48 8d 05 23 81 00 00 	lea    0x8123(%rip),%rax        # 1a480 <g_89+0x20>
   1235d:	48 89 85 00 f2 ff ff 	mov    %rax,-0xe00(%rbp)
   12364:	48 8d 05 15 81 00 00 	lea    0x8115(%rip),%rax        # 1a480 <g_89+0x20>
   1236b:	48 89 85 08 f2 ff ff 	mov    %rax,-0xdf8(%rbp)
   12372:	48 8d 05 07 81 00 00 	lea    0x8107(%rip),%rax        # 1a480 <g_89+0x20>
   12379:	48 89 85 10 f2 ff ff 	mov    %rax,-0xdf0(%rbp)
   12380:	48 8d 05 f9 80 00 00 	lea    0x80f9(%rip),%rax        # 1a480 <g_89+0x20>
   12387:	48 89 85 18 f2 ff ff 	mov    %rax,-0xde8(%rbp)
   1238e:	48 8d 05 eb 80 00 00 	lea    0x80eb(%rip),%rax        # 1a480 <g_89+0x20>
   12395:	48 89 85 20 f2 ff ff 	mov    %rax,-0xde0(%rbp)
   1239c:	48 8d 05 dd 80 00 00 	lea    0x80dd(%rip),%rax        # 1a480 <g_89+0x20>
   123a3:	48 89 85 28 f2 ff ff 	mov    %rax,-0xdd8(%rbp)
   123aa:	48 8d 05 cf 80 00 00 	lea    0x80cf(%rip),%rax        # 1a480 <g_89+0x20>
   123b1:	48 89 85 30 f2 ff ff 	mov    %rax,-0xdd0(%rbp)
   123b8:	c7 85 40 f2 ff ff 01 	movl   $0x1,-0xdc0(%rbp)
   123bf:	00 00 00 
   123c2:	c7 85 44 f2 ff ff 01 	movl   $0x1,-0xdbc(%rbp)
   123c9:	00 00 00 
   123cc:	c7 85 48 f2 ff ff 01 	movl   $0x1,-0xdb8(%rbp)
   123d3:	00 00 00 
   123d6:	c7 85 4c f2 ff ff 01 	movl   $0x1,-0xdb4(%rbp)
   123dd:	00 00 00 
   123e0:	c7 85 50 f2 ff ff 01 	movl   $0x1,-0xdb0(%rbp)
   123e7:	00 00 00 
   123ea:	c7 85 54 f2 ff ff 01 	movl   $0x1,-0xdac(%rbp)
   123f1:	00 00 00 
   123f4:	c7 85 58 f2 ff ff 01 	movl   $0x1,-0xda8(%rbp)
   123fb:	00 00 00 
   123fe:	c7 85 5c f2 ff ff 01 	movl   $0x1,-0xda4(%rbp)
   12405:	00 00 00 
   12408:	c7 85 60 f2 ff ff 01 	movl   $0x1,-0xda0(%rbp)
   1240f:	00 00 00 
   12412:	c7 85 64 f2 ff ff 01 	movl   $0x1,-0xd9c(%rbp)
   12419:	00 00 00 
   1241c:	c7 85 68 f2 ff ff 01 	movl   $0x1,-0xd98(%rbp)
   12423:	00 00 00 
   12426:	c7 85 6c f2 ff ff 01 	movl   $0x1,-0xd94(%rbp)
   1242d:	00 00 00 
   12430:	c7 85 70 f2 ff ff 01 	movl   $0x1,-0xd90(%rbp)
   12437:	00 00 00 
   1243a:	c7 85 74 f2 ff ff 01 	movl   $0x1,-0xd8c(%rbp)
   12441:	00 00 00 
   12444:	c7 85 78 f2 ff ff 01 	movl   $0x1,-0xd88(%rbp)
   1244b:	00 00 00 
   1244e:	c7 85 7c f2 ff ff 01 	movl   $0x1,-0xd84(%rbp)
   12455:	00 00 00 
   12458:	c7 85 80 f2 ff ff 01 	movl   $0x1,-0xd80(%rbp)
   1245f:	00 00 00 
   12462:	c7 85 84 f2 ff ff 01 	movl   $0x1,-0xd7c(%rbp)
   12469:	00 00 00 
   1246c:	48 8b 85 a0 f3 ff ff 	mov    -0xc60(%rbp),%rax
   12473:	48 85 c0             	test   %rax,%rax
   12476:	0f 95 c0             	setne  %al
   12479:	0f b6 c0             	movzbl %al,%eax
   1247c:	be 07 00 00 00       	mov    $0x7,%esi
   12481:	89 c7                	mov    %eax,%edi
   12483:	e8 0a 40 ff ff       	callq  6492 <safe_lshift_func_int16_t_s_s>
   12488:	98                   	cwtl   
   12489:	89 85 24 f0 ff ff    	mov    %eax,-0xfdc(%rbp)
   1248f:	0f b6 05 f4 7f 00 00 	movzbl 0x7ff4(%rip),%eax        # 1a48a <g_129>
   12496:	0f be d8             	movsbl %al,%ebx
   12499:	0f b6 05 ea 7f 00 00 	movzbl 0x7fea(%rip),%eax        # 1a48a <g_129>
   124a0:	44 0f be e0          	movsbl %al,%r12d
   124a4:	8b 85 00 f0 ff ff    	mov    -0x1000(%rbp),%eax
   124aa:	83 c0 01             	add    $0x1,%eax
   124ad:	48 98                	cltq   
   124af:	44 8b ac 85 50 f1 ff 	mov    -0xeb0(%rbp,%rax,4),%r13d
   124b6:	ff 
   124b7:	8b 85 04 f0 ff ff    	mov    -0xffc(%rbp),%eax
   124bd:	0f bf d0             	movswl %ax,%edx
   124c0:	8b 85 58 f1 ff ff    	mov    -0xea8(%rbp),%eax
   124c6:	c1 e8 1f             	shr    $0x1f,%eax
   124c9:	0f b6 c0             	movzbl %al,%eax
   124cc:	89 d6                	mov    %edx,%esi
   124ce:	89 c7                	mov    %eax,%edi
   124d0:	e8 80 3f ff ff       	callq  6455 <safe_div_func_int16_t_s_s>
   124d5:	8b 85 44 f1 ff ff    	mov    -0xebc(%rbp),%eax
   124db:	83 f8 01             	cmp    $0x1,%eax
   124de:	0f 94 c0             	sete   %al
   124e1:	0f b6 d0             	movzbl %al,%edx
   124e4:	8b 85 ec ef ff ff    	mov    -0x1014(%rbp),%eax
   124ea:	39 c2                	cmp    %eax,%edx
   124ec:	0f 9c c0             	setl   %al
   124ef:	0f b6 c0             	movzbl %al,%eax
   124f2:	48 39 85 e0 ef ff ff 	cmp    %rax,-0x1020(%rbp)
   124f9:	0f 9d c0             	setge  %al
   124fc:	0f b6 d0             	movzbl %al,%edx
   124ff:	48 8b 85 30 f1 ff ff 	mov    -0xed0(%rbp),%rax
   12506:	66 89 10             	mov    %dx,(%rax)
   12509:	48 8b 85 30 f1 ff ff 	mov    -0xed0(%rbp),%rax
   12510:	0f b7 00             	movzwl (%rax),%eax
   12513:	98                   	cwtl   
   12514:	41 39 c5             	cmp    %eax,%r13d
   12517:	0f 9e c0             	setle  %al
   1251a:	0f b6 c0             	movzbl %al,%eax
   1251d:	be 03 00 00 00       	mov    $0x3,%esi
   12522:	89 c7                	mov    %eax,%edi
   12524:	e8 3a 40 ff ff       	callq  6563 <safe_rshift_func_int16_t_s_u>
   12529:	44 89 e6             	mov    %r12d,%esi
   1252c:	bf 01 00 00 00       	mov    $0x1,%edi
   12531:	e8 e0 3e ff ff       	callq  6416 <safe_mod_func_int16_t_s_s>
   12536:	8b 85 00 f0 ff ff    	mov    -0x1000(%rbp),%eax
   1253c:	83 c0 06             	add    $0x6,%eax
   1253f:	48 98                	cltq   
   12541:	8b 84 85 50 f1 ff ff 	mov    -0xeb0(%rbp,%rax,4),%eax
   12548:	0f b7 c0             	movzwl %ax,%eax
   1254b:	be 0e 00 00 00       	mov    $0xe,%esi
   12550:	89 c7                	mov    %eax,%edi
   12552:	e8 f1 48 ff ff       	callq  6e48 <safe_rshift_func_uint16_t_u_s>
   12557:	66 35 4b 4a          	xor    $0x4a4b,%ax
   1255b:	0f b7 d0             	movzwl %ax,%edx
   1255e:	48 8b 85 88 f0 ff ff 	mov    -0xf78(%rbp),%rax
   12565:	8b 00                	mov    (%rax),%eax
   12567:	f7 d0                	not    %eax
   12569:	c1 e8 1f             	shr    $0x1f,%eax
   1256c:	0f b6 c8             	movzbl %al,%ecx
   1256f:	8b 85 ec ef ff ff    	mov    -0x1014(%rbp),%eax
   12575:	39 c1                	cmp    %eax,%ecx
   12577:	0f 9e c0             	setle  %al
   1257a:	0f b6 c0             	movzbl %al,%eax
   1257d:	48 09 c2             	or     %rax,%rdx
   12580:	8b 85 00 f0 ff ff    	mov    -0x1000(%rbp),%eax
   12586:	48 98                	cltq   
   12588:	48 39 c2             	cmp    %rax,%rdx
   1258b:	0f 95 c0             	setne  %al
   1258e:	0f b6 d0             	movzbl %al,%edx
   12591:	0f b6 05 d9 7e 00 00 	movzbl 0x7ed9(%rip),%eax        # 1a471 <g_89+0x11>
   12598:	21 d0                	and    %edx,%eax
   1259a:	88 05 d1 7e 00 00    	mov    %al,0x7ed1(%rip)        # 1a471 <g_89+0x11>
   125a0:	0f b6 15 ca 7e 00 00 	movzbl 0x7eca(%rip),%edx        # 1a471 <g_89+0x11>
   125a7:	8b 85 00 f0 ff ff    	mov    -0x1000(%rbp),%eax
   125ad:	83 c0 01             	add    $0x1,%eax
   125b0:	0f be ca             	movsbl %dl,%ecx
   125b3:	48 63 d0             	movslq %eax,%rdx
   125b6:	89 8c 95 50 f1 ff ff 	mov    %ecx,-0xeb0(%rbp,%rdx,4)
   125bd:	48 98                	cltq   
   125bf:	8b 84 85 50 f1 ff ff 	mov    -0xeb0(%rbp,%rax,4),%eax
   125c6:	0f be c0             	movsbl %al,%eax
   125c9:	89 de                	mov    %ebx,%esi
   125cb:	89 c7                	mov    %eax,%edi
   125cd:	e8 40 3c ff ff       	callq  6212 <safe_mul_func_int8_t_s_s>
   125d2:	0f be c0             	movsbl %al,%eax
   125d5:	83 e0 f8             	and    $0xfffffff8,%eax
   125d8:	89 c7                	mov    %eax,%edi
   125da:	e8 c7 48 ff ff       	callq  6ea6 <safe_unary_minus_func_uint32_t_u>
   125df:	85 c0                	test   %eax,%eax
   125e1:	0f 95 c0             	setne  %al
   125e4:	0f b6 c0             	movzbl %al,%eax
   125e7:	39 85 24 f0 ff ff    	cmp    %eax,-0xfdc(%rbp)
   125ed:	0f 9f c0             	setg   %al
   125f0:	0f b6 c0             	movzbl %al,%eax
   125f3:	89 85 08 f0 ff ff    	mov    %eax,-0xff8(%rbp)
   125f9:	8b 85 08 f0 ff ff    	mov    -0xff8(%rbp),%eax
   125ff:	48 98                	cltq   
   12601:	48 89 05 30 7d 00 00 	mov    %rax,0x7d30(%rip)        # 1a338 <g_59+0x18>
   12608:	48 8b 15 29 7d 00 00 	mov    0x7d29(%rip),%rdx        # 1a338 <g_59+0x18>
   1260f:	8b 85 44 f2 ff ff    	mov    -0xdbc(%rbp),%eax
   12615:	48 98                	cltq   
   12617:	48 31 d0             	xor    %rdx,%rax
   1261a:	48 3d d4 1f 3d 0b    	cmp    $0xb3d1fd4,%rax
   12620:	0f 9f c0             	setg   %al
   12623:	0f b6 c0             	movzbl %al,%eax
   12626:	48 89 05 53 7e 00 00 	mov    %rax,0x7e53(%rip)        # 1a480 <g_89+0x20>
   1262d:	48 8b 05 9c a3 00 00 	mov    0xa39c(%rip),%rax        # 1c9d0 <g_139>
   12634:	48 8b 95 18 f1 ff ff 	mov    -0xee8(%rbp),%rdx
   1263b:	48 89 10             	mov    %rdx,(%rax)
   1263e:	c6 85 fc ef ff ff 00 	movb   $0x0,-0x1004(%rbp)
   12645:	e9 bc 00 00 00       	jmpq   12706 <func_82+0xff4>
   1264a:	c7 85 70 f0 ff ff 96 	movl   $0x5f6a1496,-0xf90(%rbp)
   12651:	14 6a 5f 
   12654:	c7 85 74 f0 ff ff 7a 	movl   $0x5a15c47a,-0xf8c(%rbp)
   1265b:	c4 15 5a 
   1265e:	c7 85 78 f0 ff ff 7b 	movl   $0xf13c767b,-0xf88(%rbp)
   12665:	76 3c f1 
   12668:	c7 85 7c f0 ff ff 01 	movl   $0x1,-0xf84(%rbp)
   1266f:	00 00 00 
   12672:	c7 85 80 f0 ff ff 01 	movl   $0x1,-0xf80(%rbp)
   12679:	00 00 00 
   1267c:	c7 85 84 f0 ff ff ff 	movl   $0xffffffff,-0xf7c(%rbp)
   12683:	ff ff ff 
   12686:	c7 85 80 f1 ff ff 97 	movl   $0x1ec8d397,-0xe80(%rbp)
   1268d:	d3 c8 1e 
   12690:	c7 85 84 f1 ff ff 97 	movl   $0x1ec8d397,-0xe7c(%rbp)
   12697:	d3 c8 1e 
   1269a:	c7 85 88 f1 ff ff 97 	movl   $0x1ec8d397,-0xe78(%rbp)
   126a1:	d3 c8 1e 
   126a4:	c7 85 8c f1 ff ff 97 	movl   $0x1ec8d397,-0xe74(%rbp)
   126ab:	d3 c8 1e 
   126ae:	c7 85 90 f1 ff ff 97 	movl   $0x1ec8d397,-0xe70(%rbp)
   126b5:	d3 c8 1e 
   126b8:	c7 85 94 f1 ff ff 97 	movl   $0x1ec8d397,-0xe6c(%rbp)
   126bf:	d3 c8 1e 
   126c2:	c7 85 98 f1 ff ff 97 	movl   $0x1ec8d397,-0xe68(%rbp)
   126c9:	d3 c8 1e 
   126cc:	c7 85 9c f1 ff ff 97 	movl   $0x1ec8d397,-0xe64(%rbp)
   126d3:	d3 c8 1e 
   126d6:	c7 85 a0 f1 ff ff 97 	movl   $0x1ec8d397,-0xe60(%rbp)
   126dd:	d3 c8 1e 
   126e0:	c7 85 a4 f1 ff ff 97 	movl   $0x1ec8d397,-0xe5c(%rbp)
   126e7:	d3 c8 1e 
   126ea:	83 85 20 f0 ff ff 01 	addl   $0x1,-0xfe0(%rbp)
   126f1:	80 bd fc ef ff ff 00 	cmpb   $0x0,-0x1004(%rbp)
   126f8:	74 05                	je     126ff <func_82+0xfed>
   126fa:	e9 82 f3 ff ff       	jmpq   11a81 <func_82+0x36f>
   126ff:	80 85 fc ef ff ff 01 	addb   $0x1,-0x1004(%rbp)
   12706:	80 bd fc ef ff ff 02 	cmpb   $0x2,-0x1004(%rbp)
   1270d:	0f 86 37 ff ff ff    	jbe    1264a <func_82+0xf38>
   12713:	8b 85 00 f0 ff ff    	mov    -0x1000(%rbp),%eax
   12719:	83 e8 01             	sub    $0x1,%eax
   1271c:	89 85 00 f0 ff ff    	mov    %eax,-0x1000(%rbp)
   12722:	8b 85 00 f0 ff ff    	mov    -0x1000(%rbp),%eax
   12728:	85 c0                	test   %eax,%eax
   1272a:	0f 89 6c fb ff ff    	jns    1229c <func_82+0xb8a>
   12730:	48 8b 85 90 f0 ff ff 	mov    -0xf70(%rbp),%rax
   12737:	98                   	cwtl   
   12738:	be 01 00 00 00       	mov    $0x1,%esi
   1273d:	89 c7                	mov    %eax,%edi
   1273f:	e8 6f 3c ff ff       	callq  63b3 <safe_add_func_int16_t_s_s>
   12744:	48 0f bf c0          	movswq %ax,%rax
   12748:	48 89 85 90 f0 ff ff 	mov    %rax,-0xf70(%rbp)
   1274f:	48 83 bd 90 f0 ff ff 	cmpq   $0x36,-0xf70(%rbp)
   12756:	36 
   12757:	0f 87 45 f3 ff ff    	ja     11aa2 <func_82+0x390>
   1275d:	e9 cf 07 00 00       	jmpq   12f31 <func_82+0x181f>
   12762:	c7 85 44 f0 ff ff 9e 	movl   $0x2c50f9e,-0xfbc(%rbp)
   12769:	0f c5 02 
   1276c:	48 8d 05 17 7d 00 00 	lea    0x7d17(%rip),%rax        # 1a48a <g_129>
   12773:	48 89 85 b8 f0 ff ff 	mov    %rax,-0xf48(%rbp)
   1277a:	48 8d 85 08 f0 ff ff 	lea    -0xff8(%rbp),%rax
   12781:	48 89 85 c0 f0 ff ff 	mov    %rax,-0xf40(%rbp)
   12788:	c7 85 30 f0 ff ff 00 	movl   $0x0,-0xfd0(%rbp)
   1278f:	00 00 00 
   12792:	eb 1b                	jmp    127af <func_82+0x109d>
   12794:	8b 85 30 f0 ff ff    	mov    -0xfd0(%rbp),%eax
   1279a:	48 98                	cltq   
   1279c:	48 c7 84 c5 90 f2 ff 	movq   $0x0,-0xd70(%rbp,%rax,8)
   127a3:	ff 00 00 00 00 
   127a8:	83 85 30 f0 ff ff 01 	addl   $0x1,-0xfd0(%rbp)
   127af:	83 bd 30 f0 ff ff 06 	cmpl   $0x6,-0xfd0(%rbp)
   127b6:	7e dc                	jle    12794 <func_82+0x1082>
   127b8:	48 8b 05 29 b9 00 00 	mov    0xb929(%rip),%rax        # 1e0e8 <g_217>
   127bf:	48 39 85 b8 f0 ff ff 	cmp    %rax,-0xf48(%rbp)
   127c6:	0f 95 c0             	setne  %al
   127c9:	0f b6 d0             	movzbl %al,%edx
   127cc:	48 8b 85 a8 f0 ff ff 	mov    -0xf58(%rbp),%rax
   127d3:	48 89 05 66 a3 00 00 	mov    %rax,0xa366(%rip)        # 1cb40 <g_244+0x160>
   127da:	48 8b 05 5f a3 00 00 	mov    0xa35f(%rip),%rax        # 1cb40 <g_244+0x160>
   127e1:	48 39 85 a8 f0 ff ff 	cmp    %rax,-0xf58(%rbp)
   127e8:	0f 95 c0             	setne  %al
   127eb:	0f b6 c0             	movzbl %al,%eax
   127ee:	31 d0                	xor    %edx,%eax
   127f0:	98                   	cwtl   
   127f1:	be 01 00 00 00       	mov    $0x1,%esi
   127f6:	89 c7                	mov    %eax,%edi
   127f8:	e8 f8 3b ff ff       	callq  63f5 <safe_mul_func_int16_t_s_s>
   127fd:	0f bf d0             	movswl %ax,%edx
   12800:	48 8b 05 e1 b8 00 00 	mov    0xb8e1(%rip),%rax        # 1e0e8 <g_217>
   12807:	48 85 c0             	test   %rax,%rax
   1280a:	0f 94 c0             	sete   %al
   1280d:	0f b6 c0             	movzbl %al,%eax
   12810:	39 85 44 f0 ff ff    	cmp    %eax,-0xfbc(%rbp)
   12816:	0f 94 c0             	sete   %al
   12819:	0f b6 c0             	movzbl %al,%eax
   1281c:	89 d6                	mov    %edx,%esi
   1281e:	89 c7                	mov    %eax,%edi
   12820:	e8 00 47 ff ff       	callq  6f25 <safe_div_func_uint32_t_u_u>
   12825:	48 8b 95 c0 f0 ff ff 	mov    -0xf40(%rbp),%rdx
   1282c:	8b 12                	mov    (%rdx),%edx
   1282e:	09 d0                	or     %edx,%eax
   12830:	89 c2                	mov    %eax,%edx
   12832:	48 8b 85 c0 f0 ff ff 	mov    -0xf40(%rbp),%rax
   12839:	89 10                	mov    %edx,(%rax)
   1283b:	c7 05 27 7c 00 00 e3 	movl   $0xffffffe3,0x7c27(%rip)        # 1a46c <g_89+0xc>
   12842:	ff ff ff 
   12845:	e9 ae 06 00 00       	jmpq   12ef8 <func_82+0x17e6>
   1284a:	48 c7 85 c8 f0 ff ff 	movq   $0xfffffffffffffffa,-0xf38(%rbp)
   12851:	fa ff ff ff 
   12855:	48 8d 05 84 7c 00 00 	lea    0x7c84(%rip),%rax        # 1a4e0 <g_214+0x10>
   1285c:	48 89 85 d0 f0 ff ff 	mov    %rax,-0xf30(%rbp)
   12863:	c7 85 20 f0 ff ff 00 	movl   $0x0,-0xfe0(%rbp)
   1286a:	00 00 00 
   1286d:	e9 40 01 00 00       	jmpq   129b2 <func_82+0x12a0>
   12872:	48 c7 85 e8 f0 ff ff 	movq   $0x0,-0xf18(%rbp)
   12879:	00 00 00 00 
   1287d:	48 c7 85 f0 f0 ff ff 	movq   $0x0,-0xf10(%rbp)
   12884:	00 00 00 00 
   12888:	48 8d 85 14 f0 ff ff 	lea    -0xfec(%rbp),%rax
   1288f:	48 89 85 f8 f0 ff ff 	mov    %rax,-0xf08(%rbp)
   12896:	48 8d 85 1c f0 ff ff 	lea    -0xfe4(%rbp),%rax
   1289d:	48 89 85 00 f1 ff ff 	mov    %rax,-0xf00(%rbp)
   128a4:	48 8b 85 c8 f0 ff ff 	mov    -0xf38(%rbp),%rax
   128ab:	41 89 c4             	mov    %eax,%r12d
   128ae:	0f b7 05 3b 7c 00 00 	movzwl 0x7c3b(%rip),%eax        # 1a4f0 <g_243>
   128b5:	0f b7 d8             	movzwl %ax,%ebx
   128b8:	48 8b 05 01 7c 00 00 	mov    0x7c01(%rip),%rax        # 1a4c0 <g_141+0x20>
   128bf:	48 85 c0             	test   %rax,%rax
   128c2:	75 0c                	jne    128d0 <func_82+0x11be>
   128c4:	48 8b 05 a5 a0 00 00 	mov    0xa0a5(%rip),%rax        # 1c970 <g_111>
   128cb:	48 85 c0             	test   %rax,%rax
   128ce:	75 07                	jne    128d7 <func_82+0x11c5>
   128d0:	b8 01 00 00 00       	mov    $0x1,%eax
   128d5:	eb 05                	jmp    128dc <func_82+0x11ca>
   128d7:	b8 00 00 00 00       	mov    $0x0,%eax
   128dc:	0f b7 c0             	movzwl %ax,%eax
   128df:	be 0e 00 00 00       	mov    $0xe,%esi
   128e4:	89 c7                	mov    %eax,%edi
   128e6:	e8 d3 44 ff ff       	callq  6dbe <safe_lshift_func_uint16_t_u_s>
   128eb:	8b 85 44 f1 ff ff    	mov    -0xebc(%rbp),%eax
   128f1:	89 c1                	mov    %eax,%ecx
   128f3:	48 8b 85 f8 f0 ff ff 	mov    -0xf08(%rbp),%rax
   128fa:	8b 00                	mov    (%rax),%eax
   128fc:	0d 92 72 f4 78       	or     $0x78f47292,%eax
   12901:	89 c2                	mov    %eax,%edx
   12903:	48 8b 85 f8 f0 ff ff 	mov    -0xf08(%rbp),%rax
   1290a:	89 10                	mov    %edx,(%rax)
   1290c:	48 8b 85 f8 f0 ff ff 	mov    -0xf08(%rbp),%rax
   12913:	8b 00                	mov    (%rax),%eax
   12915:	89 ce                	mov    %ecx,%esi
   12917:	89 c7                	mov    %eax,%edi
   12919:	e8 ae 3d ff ff       	callq  66cc <safe_mod_func_int32_t_s_s>
   1291e:	89 c2                	mov    %eax,%edx
   12920:	48 8b 85 00 f1 ff ff 	mov    -0xf00(%rbp),%rax
   12927:	89 10                	mov    %edx,(%rax)
   12929:	8b 85 54 f1 ff ff    	mov    -0xeac(%rbp),%eax
   1292f:	85 c0                	test   %eax,%eax
   12931:	0f 94 c0             	sete   %al
   12934:	0f b6 c0             	movzbl %al,%eax
   12937:	48 f7 d0             	not    %rax
   1293a:	48 89 de             	mov    %rbx,%rsi
   1293d:	48 89 c7             	mov    %rax,%rdi
   12940:	e8 fc 3e ff ff       	callq  6841 <safe_add_func_int64_t_s_s>
   12945:	44 89 e6             	mov    %r12d,%esi
   12948:	bf 01 00 00 00       	mov    $0x1,%edi
   1294d:	e8 6c 44 ff ff       	callq  6dbe <safe_lshift_func_uint16_t_u_s>
   12952:	0f bf d0             	movswl %ax,%edx
   12955:	48 8b 05 0c a0 00 00 	mov    0xa00c(%rip),%rax        # 1c968 <g_109>
   1295c:	48 8b 00             	mov    (%rax),%rax
   1295f:	48 85 c0             	test   %rax,%rax
   12962:	0f 94 c0             	sete   %al
   12965:	0f b6 c0             	movzbl %al,%eax
   12968:	89 d6                	mov    %edx,%esi
   1296a:	89 c7                	mov    %eax,%edi
   1296c:	e8 e4 3a ff ff       	callq  6455 <safe_div_func_int16_t_s_s>
   12971:	66 85 c0             	test   %ax,%ax
   12974:	74 09                	je     1297f <func_82+0x126d>
   12976:	0f b6 05 0b 7b 00 00 	movzbl 0x7b0b(%rip),%eax        # 1a488 <g_112>
   1297d:	84 c0                	test   %al,%al
   1297f:	48 8b 05 ea 9f 00 00 	mov    0x9fea(%rip),%rax        # 1c970 <g_111>
   12986:	48 85 c0             	test   %rax,%rax
   12989:	0f 95 c0             	setne  %al
   1298c:	0f b6 d0             	movzbl %al,%edx
   1298f:	48 8b 85 c0 f0 ff ff 	mov    -0xf40(%rbp),%rax
   12996:	89 10                	mov    %edx,(%rax)
   12998:	8b 85 20 f0 ff ff    	mov    -0xfe0(%rbp),%eax
   1299e:	98                   	cwtl   
   1299f:	be 09 00 00 00       	mov    $0x9,%esi
   129a4:	89 c7                	mov    %eax,%edi
   129a6:	e8 08 3a ff ff       	callq  63b3 <safe_add_func_int16_t_s_s>
   129ab:	98                   	cwtl   
   129ac:	89 85 20 f0 ff ff    	mov    %eax,-0xfe0(%rbp)
   129b2:	83 bd 20 f0 ff ff 1d 	cmpl   $0x1d,-0xfe0(%rbp)
   129b9:	0f 87 b3 fe ff ff    	ja     12872 <func_82+0x1160>
   129bf:	48 8b 85 e0 ef ff ff 	mov    -0x1020(%rbp),%rax
   129c6:	89 c2                	mov    %eax,%edx
   129c8:	48 8b 85 d0 f0 ff ff 	mov    -0xf30(%rbp),%rax
   129cf:	66 89 10             	mov    %dx,(%rax)
   129d2:	48 8b 85 d0 f0 ff ff 	mov    -0xf30(%rbp),%rax
   129d9:	0f b7 00             	movzwl (%rax),%eax
   129dc:	66 85 c0             	test   %ax,%ax
   129df:	74 11                	je     129f2 <func_82+0x12e0>
   129e1:	8b 05 7d 7a 00 00    	mov    0x7a7d(%rip),%eax        # 1a464 <g_89+0x4>
   129e7:	85 c0                	test   %eax,%eax
   129e9:	74 07                	je     129f2 <func_82+0x12e0>
   129eb:	b8 01 00 00 00       	mov    $0x1,%eax
   129f0:	eb 05                	jmp    129f7 <func_82+0x12e5>
   129f2:	b8 00 00 00 00       	mov    $0x0,%eax
   129f7:	48 98                	cltq   
   129f9:	48 39 85 c8 f0 ff ff 	cmp    %rax,-0xf38(%rbp)
   12a00:	7f 16                	jg     12a18 <func_82+0x1306>
   12a02:	48 8b 05 bf a7 00 00 	mov    0xa7bf(%rip),%rax        # 1d1c8 <g_270>
   12a09:	48 8d 95 ec ef ff ff 	lea    -0x1014(%rbp),%rdx
   12a10:	48 89 10             	mov    %rdx,(%rax)
   12a13:	e9 d1 04 00 00       	jmpq   12ee9 <func_82+0x17d7>
   12a18:	48 8d 85 04 f0 ff ff 	lea    -0xffc(%rbp),%rax
   12a1f:	48 89 85 d8 f0 ff ff 	mov    %rax,-0xf28(%rbp)
   12a26:	c7 85 88 f0 ff ff ff 	movl   $0xffffffff,-0xf78(%rbp)
   12a2d:	ff ff ff 
   12a30:	48 8d 05 d1 7a 00 00 	lea    0x7ad1(%rip),%rax        # 1a508 <g_286>
   12a37:	48 89 85 e0 f0 ff ff 	mov    %rax,-0xf20(%rbp)
   12a3e:	48 8d 85 10 f0 ff ff 	lea    -0xff0(%rbp),%rax
   12a45:	48 89 85 40 f3 ff ff 	mov    %rax,-0xcc0(%rbp)
   12a4c:	48 8d 85 10 f0 ff ff 	lea    -0xff0(%rbp),%rax
   12a53:	48 89 85 48 f3 ff ff 	mov    %rax,-0xcb8(%rbp)
   12a5a:	48 8d 85 18 f0 ff ff 	lea    -0xfe8(%rbp),%rax
   12a61:	48 89 85 50 f3 ff ff 	mov    %rax,-0xcb0(%rbp)
   12a68:	48 8d 85 14 f0 ff ff 	lea    -0xfec(%rbp),%rax
   12a6f:	48 89 85 58 f3 ff ff 	mov    %rax,-0xca8(%rbp)
   12a76:	48 8d 85 18 f0 ff ff 	lea    -0xfe8(%rbp),%rax
   12a7d:	48 89 85 60 f3 ff ff 	mov    %rax,-0xca0(%rbp)
   12a84:	48 8d 85 10 f0 ff ff 	lea    -0xff0(%rbp),%rax
   12a8b:	48 89 85 68 f3 ff ff 	mov    %rax,-0xc98(%rbp)
   12a92:	48 8d 85 10 f0 ff ff 	lea    -0xff0(%rbp),%rax
   12a99:	48 89 85 70 f3 ff ff 	mov    %rax,-0xc90(%rbp)
   12aa0:	48 8d 85 18 f0 ff ff 	lea    -0xfe8(%rbp),%rax
   12aa7:	48 89 85 78 f3 ff ff 	mov    %rax,-0xc88(%rbp)
   12aae:	48 8d 85 14 f0 ff ff 	lea    -0xfec(%rbp),%rax
   12ab5:	48 89 85 80 f3 ff ff 	mov    %rax,-0xc80(%rbp)
   12abc:	48 8d 85 88 f0 ff ff 	lea    -0xf78(%rbp),%rax
   12ac3:	48 89 85 88 f3 ff ff 	mov    %rax,-0xc78(%rbp)
   12aca:	48 8d 85 88 f0 ff ff 	lea    -0xf78(%rbp),%rax
   12ad1:	48 89 85 90 f3 ff ff 	mov    %rax,-0xc70(%rbp)
   12ad8:	48 8d 85 14 f0 ff ff 	lea    -0xfec(%rbp),%rax
   12adf:	48 89 85 98 f3 ff ff 	mov    %rax,-0xc68(%rbp)
   12ae6:	48 8d 85 10 f0 ff ff 	lea    -0xff0(%rbp),%rax
   12aed:	48 89 85 a0 f3 ff ff 	mov    %rax,-0xc60(%rbp)
   12af4:	48 8d 85 14 f0 ff ff 	lea    -0xfec(%rbp),%rax
   12afb:	48 89 85 a8 f3 ff ff 	mov    %rax,-0xc58(%rbp)
   12b02:	48 8d 85 88 f0 ff ff 	lea    -0xf78(%rbp),%rax
   12b09:	48 89 85 b0 f3 ff ff 	mov    %rax,-0xc50(%rbp)
   12b10:	48 8d 85 88 f0 ff ff 	lea    -0xf78(%rbp),%rax
   12b17:	48 89 85 b8 f3 ff ff 	mov    %rax,-0xc48(%rbp)
   12b1e:	48 8d 85 88 f0 ff ff 	lea    -0xf78(%rbp),%rax
   12b25:	48 89 85 c0 f3 ff ff 	mov    %rax,-0xc40(%rbp)
   12b2c:	48 8d 85 10 f0 ff ff 	lea    -0xff0(%rbp),%rax
   12b33:	48 89 85 c8 f3 ff ff 	mov    %rax,-0xc38(%rbp)
   12b3a:	48 8d 85 50 f1 ff ff 	lea    -0xeb0(%rbp),%rax
   12b41:	48 83 c0 08          	add    $0x8,%rax
   12b45:	48 89 85 d0 f3 ff ff 	mov    %rax,-0xc30(%rbp)
   12b4c:	48 8d 85 50 f1 ff ff 	lea    -0xeb0(%rbp),%rax
   12b53:	48 83 c0 08          	add    $0x8,%rax
   12b57:	48 89 85 d8 f3 ff ff 	mov    %rax,-0xc28(%rbp)
   12b5e:	48 8d 85 10 f0 ff ff 	lea    -0xff0(%rbp),%rax
   12b65:	48 89 85 e0 f3 ff ff 	mov    %rax,-0xc20(%rbp)
   12b6c:	48 8d 85 88 f0 ff ff 	lea    -0xf78(%rbp),%rax
   12b73:	48 89 85 e8 f3 ff ff 	mov    %rax,-0xc18(%rbp)
   12b7a:	48 8d 85 10 f0 ff ff 	lea    -0xff0(%rbp),%rax
   12b81:	48 89 85 f0 f3 ff ff 	mov    %rax,-0xc10(%rbp)
   12b88:	48 8d 85 50 f1 ff ff 	lea    -0xeb0(%rbp),%rax
   12b8f:	48 83 c0 08          	add    $0x8,%rax
   12b93:	48 89 85 f8 f3 ff ff 	mov    %rax,-0xc08(%rbp)
   12b9a:	48 8d 85 14 f0 ff ff 	lea    -0xfec(%rbp),%rax
   12ba1:	48 89 85 00 f4 ff ff 	mov    %rax,-0xc00(%rbp)
   12ba8:	48 8d 85 10 f0 ff ff 	lea    -0xff0(%rbp),%rax
   12baf:	48 89 85 08 f4 ff ff 	mov    %rax,-0xbf8(%rbp)
   12bb6:	48 8d 85 14 f0 ff ff 	lea    -0xfec(%rbp),%rax
   12bbd:	48 89 85 10 f4 ff ff 	mov    %rax,-0xbf0(%rbp)
   12bc4:	48 8d 85 88 f0 ff ff 	lea    -0xf78(%rbp),%rax
   12bcb:	48 89 85 18 f4 ff ff 	mov    %rax,-0xbe8(%rbp)
   12bd2:	48 8d 85 88 f0 ff ff 	lea    -0xf78(%rbp),%rax
   12bd9:	48 89 85 20 f4 ff ff 	mov    %rax,-0xbe0(%rbp)
   12be0:	48 8d 85 14 f0 ff ff 	lea    -0xfec(%rbp),%rax
   12be7:	48 89 85 28 f4 ff ff 	mov    %rax,-0xbd8(%rbp)
   12bee:	48 8d 85 10 f0 ff ff 	lea    -0xff0(%rbp),%rax
   12bf5:	48 89 85 30 f4 ff ff 	mov    %rax,-0xbd0(%rbp)
   12bfc:	48 8d 85 14 f0 ff ff 	lea    -0xfec(%rbp),%rax
   12c03:	48 89 85 38 f4 ff ff 	mov    %rax,-0xbc8(%rbp)
   12c0a:	48 8d 85 18 f0 ff ff 	lea    -0xfe8(%rbp),%rax
   12c11:	48 89 85 40 f4 ff ff 	mov    %rax,-0xbc0(%rbp)
   12c18:	48 8d 85 88 f0 ff ff 	lea    -0xf78(%rbp),%rax
   12c1f:	48 89 85 48 f4 ff ff 	mov    %rax,-0xbb8(%rbp)
   12c26:	48 8d 85 50 f1 ff ff 	lea    -0xeb0(%rbp),%rax
   12c2d:	48 83 c0 08          	add    $0x8,%rax
   12c31:	48 89 85 50 f4 ff ff 	mov    %rax,-0xbb0(%rbp)
   12c38:	48 8d 85 88 f0 ff ff 	lea    -0xf78(%rbp),%rax
   12c3f:	48 89 85 58 f4 ff ff 	mov    %rax,-0xba8(%rbp)
   12c46:	48 8d 85 18 f0 ff ff 	lea    -0xfe8(%rbp),%rax
   12c4d:	48 89 85 60 f4 ff ff 	mov    %rax,-0xba0(%rbp)
   12c54:	48 8d 85 18 f0 ff ff 	lea    -0xfe8(%rbp),%rax
   12c5b:	48 89 85 68 f4 ff ff 	mov    %rax,-0xb98(%rbp)
   12c62:	48 8d 85 88 f0 ff ff 	lea    -0xf78(%rbp),%rax
   12c69:	48 89 85 70 f4 ff ff 	mov    %rax,-0xb90(%rbp)
   12c70:	48 8d 85 50 f1 ff ff 	lea    -0xeb0(%rbp),%rax
   12c77:	48 83 c0 08          	add    $0x8,%rax
   12c7b:	48 89 85 78 f4 ff ff 	mov    %rax,-0xb88(%rbp)
   12c82:	48 8d 85 18 f0 ff ff 	lea    -0xfe8(%rbp),%rax
   12c89:	48 89 85 80 f4 ff ff 	mov    %rax,-0xb80(%rbp)
   12c90:	48 8d 85 18 f0 ff ff 	lea    -0xfe8(%rbp),%rax
   12c97:	48 89 85 88 f4 ff ff 	mov    %rax,-0xb78(%rbp)
   12c9e:	48 8d 85 88 f0 ff ff 	lea    -0xf78(%rbp),%rax
   12ca5:	48 89 85 90 f4 ff ff 	mov    %rax,-0xb70(%rbp)
   12cac:	48 8d 85 50 f1 ff ff 	lea    -0xeb0(%rbp),%rax
   12cb3:	48 83 c0 08          	add    $0x8,%rax
   12cb7:	48 89 85 98 f4 ff ff 	mov    %rax,-0xb68(%rbp)
   12cbe:	48 8d 85 88 f0 ff ff 	lea    -0xf78(%rbp),%rax
   12cc5:	48 89 85 a0 f4 ff ff 	mov    %rax,-0xb60(%rbp)
   12ccc:	48 8d 85 18 f0 ff ff 	lea    -0xfe8(%rbp),%rax
   12cd3:	48 89 85 a8 f4 ff ff 	mov    %rax,-0xb58(%rbp)
   12cda:	48 8d 85 18 f0 ff ff 	lea    -0xfe8(%rbp),%rax
   12ce1:	48 89 85 b0 f4 ff ff 	mov    %rax,-0xb50(%rbp)
   12ce8:	48 8d 85 88 f0 ff ff 	lea    -0xf78(%rbp),%rax
   12cef:	48 89 85 b8 f4 ff ff 	mov    %rax,-0xb48(%rbp)
   12cf6:	c7 85 34 f0 ff ff 00 	movl   $0x0,-0xfcc(%rbp)
   12cfd:	00 00 00 
   12d00:	eb 1b                	jmp    12d1d <func_82+0x160b>
   12d02:	8b 85 34 f0 ff ff    	mov    -0xfcc(%rbp),%eax
   12d08:	48 98                	cltq   
   12d0a:	48 c7 84 c5 e0 f2 ff 	movq   $0x0,-0xd20(%rbp,%rax,8)
   12d11:	ff 00 00 00 00 
   12d16:	83 85 34 f0 ff ff 01 	addl   $0x1,-0xfcc(%rbp)
   12d1d:	83 bd 34 f0 ff ff 06 	cmpl   $0x6,-0xfcc(%rbp)
   12d24:	7e dc                	jle    12d02 <func_82+0x15f0>
   12d26:	48 8b 05 53 77 00 00 	mov    0x7753(%rip),%rax        # 1a480 <g_89+0x20>
   12d2d:	49 89 c7             	mov    %rax,%r15
   12d30:	8b 85 ec ef ff ff    	mov    -0x1014(%rbp),%eax
   12d36:	48 63 d8             	movslq %eax,%rbx
   12d39:	48 8b 85 d0 f0 ff ff 	mov    -0xf30(%rbp),%rax
   12d40:	0f b7 00             	movzwl (%rax),%eax
   12d43:	8d 50 01             	lea    0x1(%rax),%edx
   12d46:	48 8b 85 d0 f0 ff ff 	mov    -0xf30(%rbp),%rax
   12d4d:	66 89 10             	mov    %dx,(%rax)
   12d50:	48 8b 85 d0 f0 ff ff 	mov    -0xf30(%rbp),%rax
   12d57:	0f b7 00             	movzwl (%rax),%eax
   12d5a:	66 85 c0             	test   %ax,%ax
   12d5d:	0f 84 65 01 00 00    	je     12ec8 <func_82+0x17b6>
   12d63:	8b 05 03 77 00 00    	mov    0x7703(%rip),%eax        # 1a46c <g_89+0xc>
   12d69:	89 c2                	mov    %eax,%edx
   12d6b:	48 8b 85 d8 f0 ff ff 	mov    -0xf28(%rbp),%rax
   12d72:	89 10                	mov    %edx,(%rax)
   12d74:	48 8b 85 e0 ef ff ff 	mov    -0x1020(%rbp),%rax
   12d7b:	44 0f b7 e0          	movzwl %ax,%r12d
   12d7f:	0f b7 05 76 77 00 00 	movzwl 0x7776(%rip),%eax        # 1a4fc <g_243+0xc>
   12d86:	44 0f bf f0          	movswl %ax,%r14d
   12d8a:	8b 85 88 f0 ff ff    	mov    -0xf78(%rbp),%eax
   12d90:	44 0f b6 e8          	movzbl %al,%r13d
   12d94:	0f b7 05 3f 77 00 00 	movzwl 0x773f(%rip),%eax        # 1a4da <g_214+0xa>
   12d9b:	98                   	cwtl   
   12d9c:	be 0a 00 00 00       	mov    $0xa,%esi
   12da1:	89 c7                	mov    %eax,%edi
   12da3:	e8 ea 36 ff ff       	callq  6492 <safe_lshift_func_int16_t_s_s>
   12da8:	48 8b 85 c0 f0 ff ff 	mov    -0xf40(%rbp),%rax
   12daf:	c7 00 fe ff ff ff    	movl   $0xfffffffe,(%rax)
   12db5:	48 8b 85 f8 f2 ff ff 	mov    -0xd08(%rbp),%rax
   12dbc:	48 39 85 98 f0 ff ff 	cmp    %rax,-0xf68(%rbp)
   12dc3:	0f 95 c0             	setne  %al
   12dc6:	0f b6 c0             	movzbl %al,%eax
   12dc9:	be 06 00 00 00       	mov    $0x6,%esi
   12dce:	89 c7                	mov    %eax,%edi
   12dd0:	e8 97 35 ff ff       	callq  636c <safe_rshift_func_int8_t_s_u>
   12dd5:	be 25 00 00 00       	mov    $0x25,%esi
   12dda:	bf 01 00 00 00       	mov    $0x1,%edi
   12ddf:	e8 76 3d ff ff       	callq  6b5a <safe_add_func_uint8_t_u_u>
   12de4:	0f b6 c0             	movzbl %al,%eax
   12de7:	be c7 c7 09 b8       	mov    $0xb809c7c7,%esi
   12dec:	89 c7                	mov    %eax,%edi
   12dee:	e8 dd 40 ff ff       	callq  6ed0 <safe_sub_func_uint32_t_u_u>
   12df3:	0f b6 c0             	movzbl %al,%eax
   12df6:	44 89 ee             	mov    %r13d,%esi
   12df9:	89 c7                	mov    %eax,%edi
   12dfb:	e8 ae 3d ff ff       	callq  6bae <safe_mod_func_uint8_t_u_u>
   12e00:	0f b6 c0             	movzbl %al,%eax
   12e03:	41 39 c6             	cmp    %eax,%r14d
   12e06:	0f 95 c0             	setne  %al
   12e09:	0f b6 c0             	movzbl %al,%eax
   12e0c:	44 89 e6             	mov    %r12d,%esi
   12e0f:	89 c7                	mov    %eax,%edi
   12e11:	e8 46 3f ff ff       	callq  6d5c <safe_mod_func_uint16_t_u_u>
   12e16:	0f b7 d0             	movzwl %ax,%edx
   12e19:	8b 85 88 f0 ff ff    	mov    -0xf78(%rbp),%eax
   12e1f:	48 63 c8             	movslq %eax,%rcx
   12e22:	48 8b 85 e0 f0 ff ff 	mov    -0xf20(%rbp),%rax
   12e29:	48 89 08             	mov    %rcx,(%rax)
   12e2c:	48 8b 85 e0 f0 ff ff 	mov    -0xf20(%rbp),%rax
   12e33:	48 8b 00             	mov    (%rax),%rax
   12e36:	48 89 d6             	mov    %rdx,%rsi
   12e39:	48 89 c7             	mov    %rax,%rdi
   12e3c:	e8 0a 42 ff ff       	callq  704b <safe_sub_func_uint64_t_u_u>
   12e41:	0f b6 95 e8 ef ff ff 	movzbl -0x1018(%rbp),%edx
   12e48:	48 39 d0             	cmp    %rdx,%rax
   12e4b:	0f 92 c0             	setb   %al
   12e4e:	0f b6 c0             	movzbl %al,%eax
   12e51:	48 39 85 e0 ef ff ff 	cmp    %rax,-0x1020(%rbp)
   12e58:	0f 9f c0             	setg   %al
   12e5b:	0f b6 c0             	movzbl %al,%eax
   12e5e:	be 01 00 00 00       	mov    $0x1,%esi
   12e63:	89 c7                	mov    %eax,%edi
   12e65:	e8 95 3e ff ff       	callq  6cff <safe_add_func_uint16_t_u_u>
   12e6a:	0f b7 d0             	movzwl %ax,%edx
   12e6d:	48 8b 85 d8 f0 ff ff 	mov    -0xf28(%rbp),%rax
   12e74:	89 10                	mov    %edx,(%rax)
   12e76:	48 8b 85 d8 f0 ff ff 	mov    -0xf28(%rbp),%rax
   12e7d:	8b 00                	mov    (%rax),%eax
   12e7f:	89 c6                	mov    %eax,%esi
   12e81:	bf f8 ff ff ff       	mov    $0xfffffff8,%edi
   12e86:	e8 7a 37 ff ff       	callq  6605 <safe_sub_func_int32_t_s_s>
   12e8b:	0f b6 c0             	movzbl %al,%eax
   12e8e:	89 c7                	mov    %eax,%edi
   12e90:	e8 b0 3c ff ff       	callq  6b45 <safe_unary_minus_func_uint8_t_u>
   12e95:	0f b6 d0             	movzbl %al,%edx
   12e98:	48 8b 05 99 74 00 00 	mov    0x7499(%rip),%rax        # 1a338 <g_59+0x18>
   12e9f:	48 39 c2             	cmp    %rax,%rdx
   12ea2:	0f 9e c0             	setle  %al
   12ea5:	0f b6 d0             	movzbl %al,%edx
   12ea8:	48 8b 85 d0 f0 ff ff 	mov    -0xf30(%rbp),%rax
   12eaf:	66 89 10             	mov    %dx,(%rax)
   12eb2:	48 8b 85 d0 f0 ff ff 	mov    -0xf30(%rbp),%rax
   12eb9:	0f b7 00             	movzwl (%rax),%eax
   12ebc:	66 85 c0             	test   %ax,%ax
   12ebf:	74 07                	je     12ec8 <func_82+0x17b6>
   12ec1:	b8 01 00 00 00       	mov    $0x1,%eax
   12ec6:	eb 05                	jmp    12ecd <func_82+0x17bb>
   12ec8:	b8 00 00 00 00       	mov    $0x0,%eax
   12ecd:	48 98                	cltq   
   12ecf:	48 89 de             	mov    %rbx,%rsi
   12ed2:	48 89 c7             	mov    %rax,%rdi
   12ed5:	e8 71 41 ff ff       	callq  704b <safe_sub_func_uint64_t_u_u>
   12eda:	49 39 c7             	cmp    %rax,%r15
   12edd:	0f 94 c0             	sete   %al
   12ee0:	0f b6 c0             	movzbl %al,%eax
   12ee3:	21 85 24 f0 ff ff    	and    %eax,-0xfdc(%rbp)
   12ee9:	8b 05 7d 75 00 00    	mov    0x757d(%rip),%eax        # 1a46c <g_89+0xc>
   12eef:	83 c0 01             	add    $0x1,%eax
   12ef2:	89 05 74 75 00 00    	mov    %eax,0x7574(%rip)        # 1a46c <g_89+0xc>
   12ef8:	8b 05 6e 75 00 00    	mov    0x756e(%rip),%eax        # 1a46c <g_89+0xc>
   12efe:	83 f8 15             	cmp    $0x15,%eax
   12f01:	0f 8f 43 f9 ff ff    	jg     1284a <func_82+0x1138>
   12f07:	48 8b 05 5a 9a 00 00 	mov    0x9a5a(%rip),%rax        # 1c968 <g_109>
   12f0e:	48 8b 00             	mov    (%rax),%rax
   12f11:	48 89 85 b0 f0 ff ff 	mov    %rax,-0xf50(%rbp)
   12f18:	eb 17                	jmp    12f31 <func_82+0x181f>
   12f1a:	48 8b 15 47 9a 00 00 	mov    0x9a47(%rip),%rdx        # 1c968 <g_109>
   12f21:	48 8b 05 a0 a2 00 00 	mov    0xa2a0(%rip),%rax        # 1d1c8 <g_270>
   12f28:	48 8b 12             	mov    (%rdx),%rdx
   12f2b:	48 89 10             	mov    %rdx,(%rax)
   12f2e:	eb 01                	jmp    12f31 <func_82+0x181f>
   12f30:	90                   	nop
   12f31:	48 8b 95 e0 f1 ff ff 	mov    -0xe20(%rbp),%rdx
   12f38:	48 8b 05 91 a2 00 00 	mov    0xa291(%rip),%rax        # 1d1d0 <g_306>
   12f3f:	89 10                	mov    %edx,(%rax)
   12f41:	48 8b 85 a0 f0 ff ff 	mov    -0xf60(%rbp),%rax
   12f48:	48 8d 15 79 b1 00 00 	lea    0xb179(%rip),%rdx        # 1e0c8 <g_106>
   12f4f:	48 89 10             	mov    %rdx,(%rax)
   12f52:	0f b7 85 fe ef ff ff 	movzwl -0x1002(%rbp),%eax
   12f59:	83 c0 01             	add    $0x1,%eax
   12f5c:	66 89 85 fe ef ff ff 	mov    %ax,-0x1002(%rbp)
   12f63:	8b 05 8b 75 00 00    	mov    0x758b(%rip),%eax        # 1a4f4 <g_243+0x4>
   12f69:	48 8b 5d c8          	mov    -0x38(%rbp),%rbx
   12f6d:	64 48 33 1c 25 28 00 	xor    %fs:0x28,%rbx
   12f74:	00 00 
   12f76:	74 05                	je     12f7d <func_82+0x186b>
   12f78:	e8 f3 30 ff ff       	callq  6070 <__stack_chk_fail@plt>
   12f7d:	48 81 c4 f8 0f 00 00 	add    $0xff8,%rsp
   12f84:	5b                   	pop    %rbx
   12f85:	41 5c                	pop    %r12
   12f87:	41 5d                	pop    %r13
   12f89:	41 5e                	pop    %r14
   12f8b:	41 5f                	pop    %r15
   12f8d:	5d                   	pop    %rbp
   12f8e:	c3                   	retq   

0000000000012f8f <main>:
   12f8f:	f3 0f 1e fa          	endbr64 
   12f93:	55                   	push   %rbp
   12f94:	48 89 e5             	mov    %rsp,%rbp
   12f97:	48 83 ec 20          	sub    $0x20,%rsp
   12f9b:	89 7d ec             	mov    %edi,-0x14(%rbp)
   12f9e:	48 89 75 e0          	mov    %rsi,-0x20(%rbp)
   12fa2:	c7 45 fc 00 00 00 00 	movl   $0x0,-0x4(%rbp)
   12fa9:	83 7d ec 02          	cmpl   $0x2,-0x14(%rbp)
   12fad:	75 25                	jne    12fd4 <main+0x45>
   12faf:	48 8b 45 e0          	mov    -0x20(%rbp),%rax
   12fb3:	48 83 c0 08          	add    $0x8,%rax
   12fb7:	48 8b 00             	mov    (%rax),%rax
   12fba:	48 8d 35 ff 3f 00 00 	lea    0x3fff(%rip),%rsi        # 16fc0 <g_1416+0xeb8>
   12fc1:	48 89 c7             	mov    %rax,%rdi
   12fc4:	e8 c7 30 ff ff       	callq  6090 <strcmp@plt>
   12fc9:	85 c0                	test   %eax,%eax
   12fcb:	75 07                	jne    12fd4 <main+0x45>
   12fcd:	c7 45 fc 01 00 00 00 	movl   $0x1,-0x4(%rbp)
   12fd4:	e8 b0 31 ff ff       	callq  6189 <platform_main_begin>
   12fd9:	e8 ba 45 ff ff       	callq  7598 <crc32_gentab>
   12fde:	e8 d2 47 ff ff       	callq  77b5 <func_1>
   12fe3:	c7 45 f0 00 00 00 00 	movl   $0x0,-0x10(%rbp)
   12fea:	eb 78                	jmp    13064 <main+0xd5>
   12fec:	c7 45 f4 00 00 00 00 	movl   $0x0,-0xc(%rbp)
   12ff3:	eb 65                	jmp    1305a <main+0xcb>
   12ff5:	8b 45 f4             	mov    -0xc(%rbp),%eax
   12ff8:	48 63 c8             	movslq %eax,%rcx
   12ffb:	8b 45 f0             	mov    -0x10(%rbp),%eax
   12ffe:	48 63 d0             	movslq %eax,%rdx
   13001:	48 89 d0             	mov    %rdx,%rax
   13004:	48 c1 e0 02          	shl    $0x2,%rax
   13008:	48 01 d0             	add    %rdx,%rax
   1300b:	48 01 c0             	add    %rax,%rax
   1300e:	48 01 c8             	add    %rcx,%rax
   13011:	48 8d 14 85 00 00 00 	lea    0x0(,%rax,4),%rdx
   13018:	00 
   13019:	48 8d 05 20 70 00 00 	lea    0x7020(%rip),%rax        # 1a040 <g_4>
   13020:	8b 04 02             	mov    (%rdx,%rax,1),%eax
   13023:	48 98                	cltq   
   13025:	8b 55 fc             	mov    -0x4(%rbp),%edx
   13028:	48 8d 35 93 3f 00 00 	lea    0x3f93(%rip),%rsi        # 16fc2 <g_1416+0xeba>
   1302f:	48 89 c7             	mov    %rax,%rdi
   13032:	e8 bc 46 ff ff       	callq  76f3 <transparent_crc>
   13037:	83 7d fc 00          	cmpl   $0x0,-0x4(%rbp)
   1303b:	74 19                	je     13056 <main+0xc7>
   1303d:	8b 55 f4             	mov    -0xc(%rbp),%edx
   13040:	8b 45 f0             	mov    -0x10(%rbp),%eax
   13043:	89 c6                	mov    %eax,%esi
   13045:	48 8d 3d 80 3f 00 00 	lea    0x3f80(%rip),%rdi        # 16fcc <g_1416+0xec4>
   1304c:	b8 00 00 00 00       	mov    $0x0,%eax
   13051:	e8 2a 30 ff ff       	callq  6080 <printf@plt>
   13056:	83 45 f4 01          	addl   $0x1,-0xc(%rbp)
   1305a:	83 7d f4 09          	cmpl   $0x9,-0xc(%rbp)
   1305e:	7e 95                	jle    12ff5 <main+0x66>
   13060:	83 45 f0 01          	addl   $0x1,-0x10(%rbp)
   13064:	83 7d f0 04          	cmpl   $0x4,-0x10(%rbp)
   13068:	7e 82                	jle    12fec <main+0x5d>
   1306a:	c7 45 f0 00 00 00 00 	movl   $0x0,-0x10(%rbp)
   13071:	e9 b6 00 00 00       	jmpq   1312c <main+0x19d>
   13076:	c7 45 f4 00 00 00 00 	movl   $0x0,-0xc(%rbp)
   1307d:	e9 9c 00 00 00       	jmpq   1311e <main+0x18f>
   13082:	c7 45 f8 00 00 00 00 	movl   $0x0,-0x8(%rbp)
   13089:	e9 82 00 00 00       	jmpq   13110 <main+0x181>
   1308e:	8b 45 f8             	mov    -0x8(%rbp),%eax
   13091:	48 63 f0             	movslq %eax,%rsi
   13094:	8b 45 f0             	mov    -0x10(%rbp),%eax
   13097:	48 63 d0             	movslq %eax,%rdx
   1309a:	8b 45 f4             	mov    -0xc(%rbp),%eax
   1309d:	48 63 c8             	movslq %eax,%rcx
   130a0:	48 89 d0             	mov    %rdx,%rax
   130a3:	48 c1 e0 02          	shl    $0x2,%rax
   130a7:	48 01 d0             	add    %rdx,%rax
   130aa:	48 c1 e0 02          	shl    $0x2,%rax
   130ae:	48 01 d0             	add    %rdx,%rax
   130b1:	48 01 c0             	add    %rax,%rax
   130b4:	48 89 ca             	mov    %rcx,%rdx
   130b7:	48 01 d2             	add    %rdx,%rdx
   130ba:	48 01 ca             	add    %rcx,%rdx
   130bd:	48 01 d2             	add    %rdx,%rdx
   130c0:	48 01 d0             	add    %rdx,%rax
   130c3:	48 01 f0             	add    %rsi,%rax
   130c6:	48 8d 14 00          	lea    (%rax,%rax,1),%rdx
   130ca:	48 8d 05 4f 70 00 00 	lea    0x704f(%rip),%rax        # 1a120 <g_23>
   130d1:	0f b7 04 02          	movzwl (%rdx,%rax,1),%eax
   130d5:	0f b7 c0             	movzwl %ax,%eax
   130d8:	8b 55 fc             	mov    -0x4(%rbp),%edx
   130db:	48 8d 35 fc 3e 00 00 	lea    0x3efc(%rip),%rsi        # 16fde <g_1416+0xed6>
   130e2:	48 89 c7             	mov    %rax,%rdi
   130e5:	e8 09 46 ff ff       	callq  76f3 <transparent_crc>
   130ea:	83 7d fc 00          	cmpl   $0x0,-0x4(%rbp)
   130ee:	74 1c                	je     1310c <main+0x17d>
   130f0:	8b 4d f8             	mov    -0x8(%rbp),%ecx
   130f3:	8b 55 f4             	mov    -0xc(%rbp),%edx
   130f6:	8b 45 f0             	mov    -0x10(%rbp),%eax
   130f9:	89 c6                	mov    %eax,%esi
   130fb:	48 8d 3d ed 3e 00 00 	lea    0x3eed(%rip),%rdi        # 16fef <g_1416+0xee7>
   13102:	b8 00 00 00 00       	mov    $0x0,%eax
   13107:	e8 74 2f ff ff       	callq  6080 <printf@plt>
   1310c:	83 45 f8 01          	addl   $0x1,-0x8(%rbp)
   13110:	83 7d f8 05          	cmpl   $0x5,-0x8(%rbp)
   13114:	0f 8e 74 ff ff ff    	jle    1308e <main+0xff>
   1311a:	83 45 f4 01          	addl   $0x1,-0xc(%rbp)
   1311e:	83 7d f4 06          	cmpl   $0x6,-0xc(%rbp)
   13122:	0f 8e 5a ff ff ff    	jle    13082 <main+0xf3>
   13128:	83 45 f0 01          	addl   $0x1,-0x10(%rbp)
   1312c:	83 7d f0 05          	cmpl   $0x5,-0x10(%rbp)
   13130:	0f 8e 40 ff ff ff    	jle    13076 <main+0xe7>
   13136:	8b 05 dc 71 00 00    	mov    0x71dc(%rip),%eax        # 1a318 <g_45>
   1313c:	48 98                	cltq   
   1313e:	8b 55 fc             	mov    -0x4(%rbp),%edx
   13141:	48 8d 35 bd 3e 00 00 	lea    0x3ebd(%rip),%rsi        # 17005 <g_1416+0xefd>
   13148:	48 89 c7             	mov    %rax,%rdi
   1314b:	e8 a3 45 ff ff       	callq  76f3 <transparent_crc>
   13150:	c7 45 f0 00 00 00 00 	movl   $0x0,-0x10(%rbp)
   13157:	e9 a1 00 00 00       	jmpq   131fd <main+0x26e>
   1315c:	c7 45 f4 00 00 00 00 	movl   $0x0,-0xc(%rbp)
   13163:	e9 87 00 00 00       	jmpq   131ef <main+0x260>
   13168:	c7 45 f8 00 00 00 00 	movl   $0x0,-0x8(%rbp)
   1316f:	eb 74                	jmp    131e5 <main+0x256>
   13171:	8b 45 f8             	mov    -0x8(%rbp),%eax
   13174:	48 63 f0             	movslq %eax,%rsi
   13177:	8b 45 f4             	mov    -0xc(%rbp),%eax
   1317a:	48 63 c8             	movslq %eax,%rcx
   1317d:	8b 45 f0             	mov    -0x10(%rbp),%eax
   13180:	48 63 d0             	movslq %eax,%rdx
   13183:	48 89 d0             	mov    %rdx,%rax
   13186:	48 01 c0             	add    %rax,%rax
   13189:	48 01 d0             	add    %rdx,%rax
   1318c:	48 01 c0             	add    %rax,%rax
   1318f:	48 01 f0             	add    %rsi,%rax
   13192:	48 01 c8             	add    %rcx,%rax
   13195:	48 8d 14 c5 00 00 00 	lea    0x0(,%rax,8),%rdx
   1319c:	00 
   1319d:	48 8d 05 7c 71 00 00 	lea    0x717c(%rip),%rax        # 1a320 <g_59>
   131a4:	48 8b 04 02          	mov    (%rdx,%rax,1),%rax
   131a8:	48 89 c1             	mov    %rax,%rcx
   131ab:	8b 45 fc             	mov    -0x4(%rbp),%eax
   131ae:	89 c2                	mov    %eax,%edx
   131b0:	48 8d 35 53 3e 00 00 	lea    0x3e53(%rip),%rsi        # 1700a <g_1416+0xf02>
   131b7:	48 89 cf             	mov    %rcx,%rdi
   131ba:	e8 34 45 ff ff       	callq  76f3 <transparent_crc>
   131bf:	83 7d fc 00          	cmpl   $0x0,-0x4(%rbp)
   131c3:	74 1c                	je     131e1 <main+0x252>
   131c5:	8b 4d f8             	mov    -0x8(%rbp),%ecx
   131c8:	8b 55 f4             	mov    -0xc(%rbp),%edx
   131cb:	8b 45 f0             	mov    -0x10(%rbp),%eax
   131ce:	89 c6                	mov    %eax,%esi
   131d0:	48 8d 3d 18 3e 00 00 	lea    0x3e18(%rip),%rdi        # 16fef <g_1416+0xee7>
   131d7:	b8 00 00 00 00       	mov    $0x0,%eax
   131dc:	e8 9f 2e ff ff       	callq  6080 <printf@plt>
   131e1:	83 45 f8 01          	addl   $0x1,-0x8(%rbp)
   131e5:	83 7d f8 00          	cmpl   $0x0,-0x8(%rbp)
   131e9:	7e 86                	jle    13171 <main+0x1e2>
   131eb:	83 45 f4 01          	addl   $0x1,-0xc(%rbp)
   131ef:	83 7d f4 05          	cmpl   $0x5,-0xc(%rbp)
   131f3:	0f 8e 6f ff ff ff    	jle    13168 <main+0x1d9>
   131f9:	83 45 f0 01          	addl   $0x1,-0x10(%rbp)
   131fd:	83 7d f0 05          	cmpl   $0x5,-0x10(%rbp)
   13201:	0f 8e 55 ff ff ff    	jle    1315c <main+0x1cd>
   13207:	0f b7 05 32 72 00 00 	movzwl 0x7232(%rip),%eax        # 1a440 <g_60>
   1320e:	48 0f bf c0          	movswq %ax,%rax
   13212:	8b 55 fc             	mov    -0x4(%rbp),%edx
   13215:	48 8d 35 fc 3d 00 00 	lea    0x3dfc(%rip),%rsi        # 17018 <g_1416+0xf10>
   1321c:	48 89 c7             	mov    %rax,%rdi
   1321f:	e8 cf 44 ff ff       	callq  76f3 <transparent_crc>
   13224:	8b 05 1a 72 00 00    	mov    0x721a(%rip),%eax        # 1a444 <g_61>
   1322a:	89 c1                	mov    %eax,%ecx
   1322c:	8b 45 fc             	mov    -0x4(%rbp),%eax
   1322f:	89 c2                	mov    %eax,%edx
   13231:	48 8d 35 e5 3d 00 00 	lea    0x3de5(%rip),%rsi        # 1701d <g_1416+0xf15>
   13238:	48 89 cf             	mov    %rcx,%rdi
   1323b:	e8 b3 44 ff ff       	callq  76f3 <transparent_crc>
   13240:	0f b7 05 19 72 00 00 	movzwl 0x7219(%rip),%eax        # 1a460 <g_89>
   13247:	48 0f bf c0          	movswq %ax,%rax
   1324b:	8b 55 fc             	mov    -0x4(%rbp),%edx
   1324e:	48 8d 35 cd 3d 00 00 	lea    0x3dcd(%rip),%rsi        # 17022 <g_1416+0xf1a>
   13255:	48 89 c7             	mov    %rax,%rdi
   13258:	e8 96 44 ff ff       	callq  76f3 <transparent_crc>
   1325d:	8b 05 01 72 00 00    	mov    0x7201(%rip),%eax        # 1a464 <g_89+0x4>
   13263:	89 c1                	mov    %eax,%ecx
   13265:	8b 45 fc             	mov    -0x4(%rbp),%eax
   13268:	89 c2                	mov    %eax,%edx
   1326a:	48 8d 35 b9 3d 00 00 	lea    0x3db9(%rip),%rsi        # 1702a <g_1416+0xf22>
   13271:	48 89 cf             	mov    %rcx,%rdi
   13274:	e8 7a 44 ff ff       	callq  76f3 <transparent_crc>
   13279:	8b 05 e9 71 00 00    	mov    0x71e9(%rip),%eax        # 1a468 <g_89+0x8>
   1327f:	48 98                	cltq   
   13281:	8b 55 fc             	mov    -0x4(%rbp),%edx
   13284:	48 8d 35 a7 3d 00 00 	lea    0x3da7(%rip),%rsi        # 17032 <g_1416+0xf2a>
   1328b:	48 89 c7             	mov    %rax,%rdi
   1328e:	e8 60 44 ff ff       	callq  76f3 <transparent_crc>
   13293:	8b 05 d3 71 00 00    	mov    0x71d3(%rip),%eax        # 1a46c <g_89+0xc>
   13299:	48 98                	cltq   
   1329b:	8b 55 fc             	mov    -0x4(%rbp),%edx
   1329e:	48 8d 35 95 3d 00 00 	lea    0x3d95(%rip),%rsi        # 1703a <g_1416+0xf32>
   132a5:	48 89 c7             	mov    %rax,%rdi
   132a8:	e8 46 44 ff ff       	callq  76f3 <transparent_crc>
   132ad:	0f b6 05 bc 71 00 00 	movzbl 0x71bc(%rip),%eax        # 1a470 <g_89+0x10>
   132b4:	0f b6 c0             	movzbl %al,%eax
   132b7:	8b 55 fc             	mov    -0x4(%rbp),%edx
   132ba:	48 8d 35 81 3d 00 00 	lea    0x3d81(%rip),%rsi        # 17042 <g_1416+0xf3a>
   132c1:	48 89 c7             	mov    %rax,%rdi
   132c4:	e8 2a 44 ff ff       	callq  76f3 <transparent_crc>
   132c9:	0f b6 05 a1 71 00 00 	movzbl 0x71a1(%rip),%eax        # 1a471 <g_89+0x11>
   132d0:	48 0f be c0          	movsbq %al,%rax
   132d4:	8b 55 fc             	mov    -0x4(%rbp),%edx
   132d7:	48 8d 35 6c 3d 00 00 	lea    0x3d6c(%rip),%rsi        # 1704a <g_1416+0xf42>
   132de:	48 89 c7             	mov    %rax,%rdi
   132e1:	e8 0d 44 ff ff       	callq  76f3 <transparent_crc>
   132e6:	48 8b 05 8b 71 00 00 	mov    0x718b(%rip),%rax        # 1a478 <g_89+0x18>
   132ed:	8b 55 fc             	mov    -0x4(%rbp),%edx
   132f0:	48 8d 35 5b 3d 00 00 	lea    0x3d5b(%rip),%rsi        # 17052 <g_1416+0xf4a>
   132f7:	48 89 c7             	mov    %rax,%rdi
   132fa:	e8 f4 43 ff ff       	callq  76f3 <transparent_crc>
   132ff:	48 8b 05 7a 71 00 00 	mov    0x717a(%rip),%rax        # 1a480 <g_89+0x20>
   13306:	48 89 c1             	mov    %rax,%rcx
   13309:	8b 45 fc             	mov    -0x4(%rbp),%eax
   1330c:	89 c2                	mov    %eax,%edx
   1330e:	48 8d 35 45 3d 00 00 	lea    0x3d45(%rip),%rsi        # 1705a <g_1416+0xf52>
   13315:	48 89 cf             	mov    %rcx,%rdi
   13318:	e8 d6 43 ff ff       	callq  76f3 <transparent_crc>
   1331d:	0f b6 05 64 71 00 00 	movzbl 0x7164(%rip),%eax        # 1a488 <g_112>
   13324:	48 0f be c0          	movsbq %al,%rax
   13328:	8b 55 fc             	mov    -0x4(%rbp),%edx
   1332b:	48 8d 35 30 3d 00 00 	lea    0x3d30(%rip),%rsi        # 17062 <g_1416+0xf5a>
   13332:	48 89 c7             	mov    %rax,%rdi
   13335:	e8 b9 43 ff ff       	callq  76f3 <transparent_crc>
   1333a:	0f b6 05 47 71 00 00 	movzbl 0x7147(%rip),%eax        # 1a488 <g_112>
   13341:	0f b6 c0             	movzbl %al,%eax
   13344:	8b 55 fc             	mov    -0x4(%rbp),%edx
   13347:	48 8d 35 1d 3d 00 00 	lea    0x3d1d(%rip),%rsi        # 1706b <g_1416+0xf63>
   1334e:	48 89 c7             	mov    %rax,%rdi
   13351:	e8 9d 43 ff ff       	callq  76f3 <transparent_crc>
   13356:	0f b6 05 2d 71 00 00 	movzbl 0x712d(%rip),%eax        # 1a48a <g_129>
   1335d:	48 0f be c0          	movsbq %al,%rax
   13361:	8b 55 fc             	mov    -0x4(%rbp),%edx
   13364:	48 8d 35 09 3d 00 00 	lea    0x3d09(%rip),%rsi        # 17074 <g_1416+0xf6c>
   1336b:	48 89 c7             	mov    %rax,%rdi
   1336e:	e8 80 43 ff ff       	callq  76f3 <transparent_crc>
   13373:	0f b6 05 10 71 00 00 	movzbl 0x7110(%rip),%eax        # 1a48a <g_129>
   1337a:	0f b6 c0             	movzbl %al,%eax
   1337d:	8b 55 fc             	mov    -0x4(%rbp),%edx
   13380:	48 8d 35 f6 3c 00 00 	lea    0x3cf6(%rip),%rsi        # 1707d <g_1416+0xf75>
   13387:	48 89 c7             	mov    %rax,%rdi
   1338a:	e8 64 43 ff ff       	callq  76f3 <transparent_crc>
   1338f:	0f b7 05 f6 70 00 00 	movzwl 0x70f6(%rip),%eax        # 1a48c <g_134>
   13396:	48 0f bf c0          	movswq %ax,%rax
   1339a:	8b 55 fc             	mov    -0x4(%rbp),%edx
   1339d:	48 8d 35 e2 3c 00 00 	lea    0x3ce2(%rip),%rsi        # 17086 <g_1416+0xf7e>
   133a4:	48 89 c7             	mov    %rax,%rdi
   133a7:	e8 47 43 ff ff       	callq  76f3 <transparent_crc>
   133ac:	0f b7 05 ed 70 00 00 	movzwl 0x70ed(%rip),%eax        # 1a4a0 <g_141>
   133b3:	48 0f bf c0          	movswq %ax,%rax
   133b7:	8b 55 fc             	mov    -0x4(%rbp),%edx
   133ba:	48 8d 35 cb 3c 00 00 	lea    0x3ccb(%rip),%rsi        # 1708c <g_1416+0xf84>
   133c1:	48 89 c7             	mov    %rax,%rdi
   133c4:	e8 2a 43 ff ff       	callq  76f3 <transparent_crc>
   133c9:	8b 05 d5 70 00 00    	mov    0x70d5(%rip),%eax        # 1a4a4 <g_141+0x4>
   133cf:	89 c1                	mov    %eax,%ecx
   133d1:	8b 45 fc             	mov    -0x4(%rbp),%eax
   133d4:	89 c2                	mov    %eax,%edx
   133d6:	48 8d 35 b8 3c 00 00 	lea    0x3cb8(%rip),%rsi        # 17095 <g_1416+0xf8d>
   133dd:	48 89 cf             	mov    %rcx,%rdi
   133e0:	e8 0e 43 ff ff       	callq  76f3 <transparent_crc>
   133e5:	8b 05 bd 70 00 00    	mov    0x70bd(%rip),%eax        # 1a4a8 <g_141+0x8>
   133eb:	48 98                	cltq   
   133ed:	8b 55 fc             	mov    -0x4(%rbp),%edx
   133f0:	48 8d 35 a7 3c 00 00 	lea    0x3ca7(%rip),%rsi        # 1709e <g_1416+0xf96>
   133f7:	48 89 c7             	mov    %rax,%rdi
   133fa:	e8 f4 42 ff ff       	callq  76f3 <transparent_crc>
   133ff:	8b 05 a7 70 00 00    	mov    0x70a7(%rip),%eax        # 1a4ac <g_141+0xc>
   13405:	48 98                	cltq   
   13407:	8b 55 fc             	mov    -0x4(%rbp),%edx
   1340a:	48 8d 35 96 3c 00 00 	lea    0x3c96(%rip),%rsi        # 170a7 <g_1416+0xf9f>
   13411:	48 89 c7             	mov    %rax,%rdi
   13414:	e8 da 42 ff ff       	callq  76f3 <transparent_crc>
   13419:	0f b6 05 90 70 00 00 	movzbl 0x7090(%rip),%eax        # 1a4b0 <g_141+0x10>
   13420:	0f b6 c0             	movzbl %al,%eax
   13423:	8b 55 fc             	mov    -0x4(%rbp),%edx
   13426:	48 8d 35 83 3c 00 00 	lea    0x3c83(%rip),%rsi        # 170b0 <g_1416+0xfa8>
   1342d:	48 89 c7             	mov    %rax,%rdi
   13430:	e8 be 42 ff ff       	callq  76f3 <transparent_crc>
   13435:	0f b6 05 75 70 00 00 	movzbl 0x7075(%rip),%eax        # 1a4b1 <g_141+0x11>
   1343c:	48 0f be c0          	movsbq %al,%rax
   13440:	8b 55 fc             	mov    -0x4(%rbp),%edx
   13443:	48 8d 35 6f 3c 00 00 	lea    0x3c6f(%rip),%rsi        # 170b9 <g_1416+0xfb1>
   1344a:	48 89 c7             	mov    %rax,%rdi
   1344d:	e8 a1 42 ff ff       	callq  76f3 <transparent_crc>
   13452:	48 8b 05 5f 70 00 00 	mov    0x705f(%rip),%rax        # 1a4b8 <g_141+0x18>
   13459:	8b 55 fc             	mov    -0x4(%rbp),%edx
   1345c:	48 8d 35 5f 3c 00 00 	lea    0x3c5f(%rip),%rsi        # 170c2 <g_1416+0xfba>
   13463:	48 89 c7             	mov    %rax,%rdi
   13466:	e8 88 42 ff ff       	callq  76f3 <transparent_crc>
   1346b:	48 8b 05 4e 70 00 00 	mov    0x704e(%rip),%rax        # 1a4c0 <g_141+0x20>
   13472:	48 89 c1             	mov    %rax,%rcx
   13475:	8b 45 fc             	mov    -0x4(%rbp),%eax
   13478:	89 c2                	mov    %eax,%edx
   1347a:	48 8d 35 4a 3c 00 00 	lea    0x3c4a(%rip),%rsi        # 170cb <g_1416+0xfc3>
   13481:	48 89 cf             	mov    %rcx,%rdi
   13484:	e8 6a 42 ff ff       	callq  76f3 <transparent_crc>
   13489:	c7 45 f0 00 00 00 00 	movl   $0x0,-0x10(%rbp)
   13490:	eb 49                	jmp    134db <main+0x54c>
   13492:	8b 45 f0             	mov    -0x10(%rbp),%eax
   13495:	48 98                	cltq   
   13497:	48 8d 14 00          	lea    (%rax,%rax,1),%rdx
   1349b:	48 8d 05 2e 70 00 00 	lea    0x702e(%rip),%rax        # 1a4d0 <g_214>
   134a2:	0f b7 04 02          	movzwl (%rdx,%rax,1),%eax
   134a6:	0f b7 c0             	movzwl %ax,%eax
   134a9:	8b 55 fc             	mov    -0x4(%rbp),%edx
   134ac:	48 8d 35 21 3c 00 00 	lea    0x3c21(%rip),%rsi        # 170d4 <g_1416+0xfcc>
   134b3:	48 89 c7             	mov    %rax,%rdi
   134b6:	e8 38 42 ff ff       	callq  76f3 <transparent_crc>
   134bb:	83 7d fc 00          	cmpl   $0x0,-0x4(%rbp)
   134bf:	74 16                	je     134d7 <main+0x548>
   134c1:	8b 45 f0             	mov    -0x10(%rbp),%eax
   134c4:	89 c6                	mov    %eax,%esi
   134c6:	48 8d 3d 10 3c 00 00 	lea    0x3c10(%rip),%rdi        # 170dd <g_1416+0xfd5>
   134cd:	b8 00 00 00 00       	mov    $0x0,%eax
   134d2:	e8 a9 2b ff ff       	callq  6080 <printf@plt>
   134d7:	83 45 f0 01          	addl   $0x1,-0x10(%rbp)
   134db:	83 7d f0 08          	cmpl   $0x8,-0x10(%rbp)
   134df:	7e b1                	jle    13492 <main+0x503>
   134e1:	0f b7 05 08 70 00 00 	movzwl 0x7008(%rip),%eax        # 1a4f0 <g_243>
   134e8:	0f b7 c0             	movzwl %ax,%eax
   134eb:	8b 55 fc             	mov    -0x4(%rbp),%edx
   134ee:	48 8d 35 f6 3b 00 00 	lea    0x3bf6(%rip),%rsi        # 170eb <g_1416+0xfe3>
   134f5:	48 89 c7             	mov    %rax,%rdi
   134f8:	e8 f6 41 ff ff       	callq  76f3 <transparent_crc>
   134fd:	8b 05 f1 6f 00 00    	mov    0x6ff1(%rip),%eax        # 1a4f4 <g_243+0x4>
   13503:	48 98                	cltq   
   13505:	8b 55 fc             	mov    -0x4(%rbp),%edx
   13508:	48 8d 35 e5 3b 00 00 	lea    0x3be5(%rip),%rsi        # 170f4 <g_1416+0xfec>
   1350f:	48 89 c7             	mov    %rax,%rdi
   13512:	e8 dc 41 ff ff       	callq  76f3 <transparent_crc>
   13517:	8b 05 db 6f 00 00    	mov    0x6fdb(%rip),%eax        # 1a4f8 <g_243+0x8>
   1351d:	89 c1                	mov    %eax,%ecx
   1351f:	8b 45 fc             	mov    -0x4(%rbp),%eax
   13522:	89 c2                	mov    %eax,%edx
   13524:	48 8d 35 d2 3b 00 00 	lea    0x3bd2(%rip),%rsi        # 170fd <g_1416+0xff5>
   1352b:	48 89 cf             	mov    %rcx,%rdi
   1352e:	e8 c0 41 ff ff       	callq  76f3 <transparent_crc>
   13533:	0f b7 05 c2 6f 00 00 	movzwl 0x6fc2(%rip),%eax        # 1a4fc <g_243+0xc>
   1353a:	48 0f bf c0          	movswq %ax,%rax
   1353e:	8b 55 fc             	mov    -0x4(%rbp),%edx
   13541:	48 8d 35 be 3b 00 00 	lea    0x3bbe(%rip),%rsi        # 17106 <g_1416+0xffe>
   13548:	48 89 c7             	mov    %rax,%rdi
   1354b:	e8 a3 41 ff ff       	callq  76f3 <transparent_crc>
   13550:	8b 05 aa 6f 00 00    	mov    0x6faa(%rip),%eax        # 1a500 <g_243+0x10>
   13556:	89 c1                	mov    %eax,%ecx
   13558:	8b 45 fc             	mov    -0x4(%rbp),%eax
   1355b:	89 c2                	mov    %eax,%edx
   1355d:	48 8d 35 ab 3b 00 00 	lea    0x3bab(%rip),%rsi        # 1710f <g_1416+0x1007>
   13564:	48 89 cf             	mov    %rcx,%rdi
   13567:	e8 87 41 ff ff       	callq  76f3 <transparent_crc>
   1356c:	48 8b 05 95 6f 00 00 	mov    0x6f95(%rip),%rax        # 1a508 <g_286>
   13573:	8b 55 fc             	mov    -0x4(%rbp),%edx
   13576:	48 8d 35 9b 3b 00 00 	lea    0x3b9b(%rip),%rsi        # 17118 <g_1416+0x1010>
   1357d:	48 89 c7             	mov    %rax,%rdi
   13580:	e8 6e 41 ff ff       	callq  76f3 <transparent_crc>
   13585:	b8 fa ff ff ff       	mov    $0xfffffffa,%eax
   1358a:	89 c1                	mov    %eax,%ecx
   1358c:	8b 45 fc             	mov    -0x4(%rbp),%eax
   1358f:	89 c2                	mov    %eax,%edx
   13591:	48 8d 35 86 3b 00 00 	lea    0x3b86(%rip),%rsi        # 1711e <g_1416+0x1016>
   13598:	48 89 cf             	mov    %rcx,%rdi
   1359b:	e8 53 41 ff ff       	callq  76f3 <transparent_crc>
   135a0:	0f b7 05 79 6f 00 00 	movzwl 0x6f79(%rip),%eax        # 1a520 <g_387>
   135a7:	48 0f bf c0          	movswq %ax,%rax
   135ab:	8b 55 fc             	mov    -0x4(%rbp),%edx
   135ae:	48 8d 35 6f 3b 00 00 	lea    0x3b6f(%rip),%rsi        # 17124 <g_1416+0x101c>
   135b5:	48 89 c7             	mov    %rax,%rdi
   135b8:	e8 36 41 ff ff       	callq  76f3 <transparent_crc>
   135bd:	8b 05 61 6f 00 00    	mov    0x6f61(%rip),%eax        # 1a524 <g_387+0x4>
   135c3:	89 c1                	mov    %eax,%ecx
   135c5:	8b 45 fc             	mov    -0x4(%rbp),%eax
   135c8:	89 c2                	mov    %eax,%edx
   135ca:	48 8d 35 5c 3b 00 00 	lea    0x3b5c(%rip),%rsi        # 1712d <g_1416+0x1025>
   135d1:	48 89 cf             	mov    %rcx,%rdi
   135d4:	e8 1a 41 ff ff       	callq  76f3 <transparent_crc>
   135d9:	8b 05 49 6f 00 00    	mov    0x6f49(%rip),%eax        # 1a528 <g_387+0x8>
   135df:	48 98                	cltq   
   135e1:	8b 55 fc             	mov    -0x4(%rbp),%edx
   135e4:	48 8d 35 4b 3b 00 00 	lea    0x3b4b(%rip),%rsi        # 17136 <g_1416+0x102e>
   135eb:	48 89 c7             	mov    %rax,%rdi
   135ee:	e8 00 41 ff ff       	callq  76f3 <transparent_crc>
   135f3:	8b 05 33 6f 00 00    	mov    0x6f33(%rip),%eax        # 1a52c <g_387+0xc>
   135f9:	48 98                	cltq   
   135fb:	8b 55 fc             	mov    -0x4(%rbp),%edx
   135fe:	48 8d 35 3a 3b 00 00 	lea    0x3b3a(%rip),%rsi        # 1713f <g_1416+0x1037>
   13605:	48 89 c7             	mov    %rax,%rdi
   13608:	e8 e6 40 ff ff       	callq  76f3 <transparent_crc>
   1360d:	0f b6 05 1c 6f 00 00 	movzbl 0x6f1c(%rip),%eax        # 1a530 <g_387+0x10>
   13614:	0f b6 c0             	movzbl %al,%eax
   13617:	8b 55 fc             	mov    -0x4(%rbp),%edx
   1361a:	48 8d 35 27 3b 00 00 	lea    0x3b27(%rip),%rsi        # 17148 <g_1416+0x1040>
   13621:	48 89 c7             	mov    %rax,%rdi
   13624:	e8 ca 40 ff ff       	callq  76f3 <transparent_crc>
   13629:	0f b6 05 01 6f 00 00 	movzbl 0x6f01(%rip),%eax        # 1a531 <g_387+0x11>
   13630:	48 0f be c0          	movsbq %al,%rax
   13634:	8b 55 fc             	mov    -0x4(%rbp),%edx
   13637:	48 8d 35 13 3b 00 00 	lea    0x3b13(%rip),%rsi        # 17151 <g_1416+0x1049>
   1363e:	48 89 c7             	mov    %rax,%rdi
   13641:	e8 ad 40 ff ff       	callq  76f3 <transparent_crc>
   13646:	48 8b 05 eb 6e 00 00 	mov    0x6eeb(%rip),%rax        # 1a538 <g_387+0x18>
   1364d:	8b 55 fc             	mov    -0x4(%rbp),%edx
   13650:	48 8d 35 03 3b 00 00 	lea    0x3b03(%rip),%rsi        # 1715a <g_1416+0x1052>
   13657:	48 89 c7             	mov    %rax,%rdi
   1365a:	e8 94 40 ff ff       	callq  76f3 <transparent_crc>
   1365f:	48 8b 05 da 6e 00 00 	mov    0x6eda(%rip),%rax        # 1a540 <g_387+0x20>
   13666:	48 89 c1             	mov    %rax,%rcx
   13669:	8b 45 fc             	mov    -0x4(%rbp),%eax
   1366c:	89 c2                	mov    %eax,%edx
   1366e:	48 8d 35 ee 3a 00 00 	lea    0x3aee(%rip),%rsi        # 17163 <g_1416+0x105b>
   13675:	48 89 cf             	mov    %rcx,%rdi
   13678:	e8 76 40 ff ff       	callq  76f3 <transparent_crc>
   1367d:	0f b6 05 c4 6e 00 00 	movzbl 0x6ec4(%rip),%eax        # 1a548 <g_429>
   13684:	48 0f be c0          	movsbq %al,%rax
   13688:	8b 55 fc             	mov    -0x4(%rbp),%edx
   1368b:	48 8d 35 da 3a 00 00 	lea    0x3ada(%rip),%rsi        # 1716c <g_1416+0x1064>
   13692:	48 89 c7             	mov    %rax,%rdi
   13695:	e8 59 40 ff ff       	callq  76f3 <transparent_crc>
   1369a:	0f b6 05 a7 6e 00 00 	movzbl 0x6ea7(%rip),%eax        # 1a548 <g_429>
   136a1:	0f b6 c0             	movzbl %al,%eax
   136a4:	8b 55 fc             	mov    -0x4(%rbp),%edx
   136a7:	48 8d 35 c7 3a 00 00 	lea    0x3ac7(%rip),%rsi        # 17175 <g_1416+0x106d>
   136ae:	48 89 c7             	mov    %rax,%rdi
   136b1:	e8 3d 40 ff ff       	callq  76f3 <transparent_crc>
   136b6:	b8 0e 00 00 00       	mov    $0xe,%eax
   136bb:	0f b6 c0             	movzbl %al,%eax
   136be:	8b 55 fc             	mov    -0x4(%rbp),%edx
   136c1:	48 8d 35 b6 3a 00 00 	lea    0x3ab6(%rip),%rsi        # 1717e <g_1416+0x1076>
   136c8:	48 89 c7             	mov    %rax,%rdi
   136cb:	e8 23 40 ff ff       	callq  76f3 <transparent_crc>
   136d0:	0f b7 05 89 6e 00 00 	movzwl 0x6e89(%rip),%eax        # 1a560 <g_441>
   136d7:	48 0f bf c0          	movswq %ax,%rax
   136db:	8b 55 fc             	mov    -0x4(%rbp),%edx
   136de:	48 8d 35 9f 3a 00 00 	lea    0x3a9f(%rip),%rsi        # 17184 <g_1416+0x107c>
   136e5:	48 89 c7             	mov    %rax,%rdi
   136e8:	e8 06 40 ff ff       	callq  76f3 <transparent_crc>
   136ed:	8b 05 71 6e 00 00    	mov    0x6e71(%rip),%eax        # 1a564 <g_441+0x4>
   136f3:	89 c1                	mov    %eax,%ecx
   136f5:	8b 45 fc             	mov    -0x4(%rbp),%eax
   136f8:	89 c2                	mov    %eax,%edx
   136fa:	48 8d 35 8c 3a 00 00 	lea    0x3a8c(%rip),%rsi        # 1718d <g_1416+0x1085>
   13701:	48 89 cf             	mov    %rcx,%rdi
   13704:	e8 ea 3f ff ff       	callq  76f3 <transparent_crc>
   13709:	8b 05 59 6e 00 00    	mov    0x6e59(%rip),%eax        # 1a568 <g_441+0x8>
   1370f:	48 98                	cltq   
   13711:	8b 55 fc             	mov    -0x4(%rbp),%edx
   13714:	48 8d 35 7b 3a 00 00 	lea    0x3a7b(%rip),%rsi        # 17196 <g_1416+0x108e>
   1371b:	48 89 c7             	mov    %rax,%rdi
   1371e:	e8 d0 3f ff ff       	callq  76f3 <transparent_crc>
   13723:	8b 05 43 6e 00 00    	mov    0x6e43(%rip),%eax        # 1a56c <g_441+0xc>
   13729:	48 98                	cltq   
   1372b:	8b 55 fc             	mov    -0x4(%rbp),%edx
   1372e:	48 8d 35 6a 3a 00 00 	lea    0x3a6a(%rip),%rsi        # 1719f <g_1416+0x1097>
   13735:	48 89 c7             	mov    %rax,%rdi
   13738:	e8 b6 3f ff ff       	callq  76f3 <transparent_crc>
   1373d:	0f b6 05 2c 6e 00 00 	movzbl 0x6e2c(%rip),%eax        # 1a570 <g_441+0x10>
   13744:	0f b6 c0             	movzbl %al,%eax
   13747:	8b 55 fc             	mov    -0x4(%rbp),%edx
   1374a:	48 8d 35 57 3a 00 00 	lea    0x3a57(%rip),%rsi        # 171a8 <g_1416+0x10a0>
   13751:	48 89 c7             	mov    %rax,%rdi
   13754:	e8 9a 3f ff ff       	callq  76f3 <transparent_crc>
   13759:	0f b6 05 11 6e 00 00 	movzbl 0x6e11(%rip),%eax        # 1a571 <g_441+0x11>
   13760:	48 0f be c0          	movsbq %al,%rax
   13764:	8b 55 fc             	mov    -0x4(%rbp),%edx
   13767:	48 8d 35 43 3a 00 00 	lea    0x3a43(%rip),%rsi        # 171b1 <g_1416+0x10a9>
   1376e:	48 89 c7             	mov    %rax,%rdi
   13771:	e8 7d 3f ff ff       	callq  76f3 <transparent_crc>
   13776:	48 8b 05 fb 6d 00 00 	mov    0x6dfb(%rip),%rax        # 1a578 <g_441+0x18>
   1377d:	8b 55 fc             	mov    -0x4(%rbp),%edx
   13780:	48 8d 35 33 3a 00 00 	lea    0x3a33(%rip),%rsi        # 171ba <g_1416+0x10b2>
   13787:	48 89 c7             	mov    %rax,%rdi
   1378a:	e8 64 3f ff ff       	callq  76f3 <transparent_crc>
   1378f:	48 8b 05 ea 6d 00 00 	mov    0x6dea(%rip),%rax        # 1a580 <g_441+0x20>
   13796:	48 89 c1             	mov    %rax,%rcx
   13799:	8b 45 fc             	mov    -0x4(%rbp),%eax
   1379c:	89 c2                	mov    %eax,%edx
   1379e:	48 8d 35 1e 3a 00 00 	lea    0x3a1e(%rip),%rsi        # 171c3 <g_1416+0x10bb>
   137a5:	48 89 cf             	mov    %rcx,%rdi
   137a8:	e8 46 3f ff ff       	callq  76f3 <transparent_crc>
   137ad:	8b 05 d5 6d 00 00    	mov    0x6dd5(%rip),%eax        # 1a588 <g_461>
   137b3:	89 c1                	mov    %eax,%ecx
   137b5:	8b 45 fc             	mov    -0x4(%rbp),%eax
   137b8:	89 c2                	mov    %eax,%edx
   137ba:	48 8d 35 0b 3a 00 00 	lea    0x3a0b(%rip),%rsi        # 171cc <g_1416+0x10c4>
   137c1:	48 89 cf             	mov    %rcx,%rdi
   137c4:	e8 2a 3f ff ff       	callq  76f3 <transparent_crc>
   137c9:	c7 45 f0 00 00 00 00 	movl   $0x0,-0x10(%rbp)
   137d0:	e9 2c 01 00 00       	jmpq   13901 <main+0x972>
   137d5:	8b 45 f0             	mov    -0x10(%rbp),%eax
   137d8:	48 63 d0             	movslq %eax,%rdx
   137db:	48 89 d0             	mov    %rdx,%rax
   137de:	48 01 c0             	add    %rax,%rax
   137e1:	48 01 d0             	add    %rdx,%rax
   137e4:	48 c1 e0 03          	shl    $0x3,%rax
   137e8:	48 89 c2             	mov    %rax,%rdx
   137eb:	48 8d 05 6e 28 00 00 	lea    0x286e(%rip),%rax        # 16060 <g_478>
   137f2:	8b 04 02             	mov    (%rdx,%rax,1),%eax
   137f5:	48 98                	cltq   
   137f7:	8b 55 fc             	mov    -0x4(%rbp),%edx
   137fa:	48 8d 35 d1 39 00 00 	lea    0x39d1(%rip),%rsi        # 171d2 <g_1416+0x10ca>
   13801:	48 89 c7             	mov    %rax,%rdi
   13804:	e8 ea 3e ff ff       	callq  76f3 <transparent_crc>
   13809:	8b 45 f0             	mov    -0x10(%rbp),%eax
   1380c:	48 63 d0             	movslq %eax,%rdx
   1380f:	48 89 d0             	mov    %rdx,%rax
   13812:	48 01 c0             	add    %rax,%rax
   13815:	48 01 d0             	add    %rdx,%rax
   13818:	48 c1 e0 03          	shl    $0x3,%rax
   1381c:	48 89 c2             	mov    %rax,%rdx
   1381f:	48 8d 05 3e 28 00 00 	lea    0x283e(%rip),%rax        # 16064 <g_478+0x4>
   13826:	8b 04 02             	mov    (%rdx,%rax,1),%eax
   13829:	89 c1                	mov    %eax,%ecx
   1382b:	8b 45 fc             	mov    -0x4(%rbp),%eax
   1382e:	89 c2                	mov    %eax,%edx
   13830:	48 8d 35 a7 39 00 00 	lea    0x39a7(%rip),%rsi        # 171de <g_1416+0x10d6>
   13837:	48 89 cf             	mov    %rcx,%rdi
   1383a:	e8 b4 3e ff ff       	callq  76f3 <transparent_crc>
   1383f:	8b 45 f0             	mov    -0x10(%rbp),%eax
   13842:	48 63 d0             	movslq %eax,%rdx
   13845:	48 89 d0             	mov    %rdx,%rax
   13848:	48 01 c0             	add    %rax,%rax
   1384b:	48 01 d0             	add    %rdx,%rax
   1384e:	48 c1 e0 03          	shl    $0x3,%rax
   13852:	48 89 c2             	mov    %rax,%rdx
   13855:	48 8d 05 0c 28 00 00 	lea    0x280c(%rip),%rax        # 16068 <g_478+0x8>
   1385c:	48 8b 04 02          	mov    (%rdx,%rax,1),%rax
   13860:	48 89 c1             	mov    %rax,%rcx
   13863:	8b 45 fc             	mov    -0x4(%rbp),%eax
   13866:	89 c2                	mov    %eax,%edx
   13868:	48 8d 35 7b 39 00 00 	lea    0x397b(%rip),%rsi        # 171ea <g_1416+0x10e2>
   1386f:	48 89 cf             	mov    %rcx,%rdi
   13872:	e8 7c 3e ff ff       	callq  76f3 <transparent_crc>
   13877:	8b 45 f0             	mov    -0x10(%rbp),%eax
   1387a:	48 63 d0             	movslq %eax,%rdx
   1387d:	48 89 d0             	mov    %rdx,%rax
   13880:	48 01 c0             	add    %rax,%rax
   13883:	48 01 d0             	add    %rdx,%rax
   13886:	48 c1 e0 03          	shl    $0x3,%rax
   1388a:	48 89 c2             	mov    %rax,%rdx
   1388d:	48 8d 05 dc 27 00 00 	lea    0x27dc(%rip),%rax        # 16070 <g_478+0x10>
   13894:	8b 04 02             	mov    (%rdx,%rax,1),%eax
   13897:	89 c1                	mov    %eax,%ecx
   13899:	8b 45 fc             	mov    -0x4(%rbp),%eax
   1389c:	89 c2                	mov    %eax,%edx
   1389e:	48 8d 35 51 39 00 00 	lea    0x3951(%rip),%rsi        # 171f6 <g_1416+0x10ee>
   138a5:	48 89 cf             	mov    %rcx,%rdi
   138a8:	e8 46 3e ff ff       	callq  76f3 <transparent_crc>
   138ad:	8b 45 f0             	mov    -0x10(%rbp),%eax
   138b0:	48 63 d0             	movslq %eax,%rdx
   138b3:	48 89 d0             	mov    %rdx,%rax
   138b6:	48 01 c0             	add    %rax,%rax
   138b9:	48 01 d0             	add    %rdx,%rax
   138bc:	48 c1 e0 03          	shl    $0x3,%rax
   138c0:	48 89 c2             	mov    %rax,%rdx
   138c3:	48 8d 05 aa 27 00 00 	lea    0x27aa(%rip),%rax        # 16074 <g_478+0x14>
   138ca:	8b 04 02             	mov    (%rdx,%rax,1),%eax
   138cd:	48 98                	cltq   
   138cf:	8b 55 fc             	mov    -0x4(%rbp),%edx
   138d2:	48 8d 35 29 39 00 00 	lea    0x3929(%rip),%rsi        # 17202 <g_1416+0x10fa>
   138d9:	48 89 c7             	mov    %rax,%rdi
   138dc:	e8 12 3e ff ff       	callq  76f3 <transparent_crc>
   138e1:	83 7d fc 00          	cmpl   $0x0,-0x4(%rbp)
   138e5:	74 16                	je     138fd <main+0x96e>
   138e7:	8b 45 f0             	mov    -0x10(%rbp),%eax
   138ea:	89 c6                	mov    %eax,%esi
   138ec:	48 8d 3d ea 37 00 00 	lea    0x37ea(%rip),%rdi        # 170dd <g_1416+0xfd5>
   138f3:	b8 00 00 00 00       	mov    $0x0,%eax
   138f8:	e8 83 27 ff ff       	callq  6080 <printf@plt>
   138fd:	83 45 f0 01          	addl   $0x1,-0x10(%rbp)
   13901:	83 7d f0 06          	cmpl   $0x6,-0x10(%rbp)
   13905:	0f 8e ca fe ff ff    	jle    137d5 <main+0x846>
   1390b:	8b 05 7b 6c 00 00    	mov    0x6c7b(%rip),%eax        # 1a58c <g_512>
   13911:	89 c1                	mov    %eax,%ecx
   13913:	8b 45 fc             	mov    -0x4(%rbp),%eax
   13916:	89 c2                	mov    %eax,%edx
   13918:	48 8d 35 ef 38 00 00 	lea    0x38ef(%rip),%rsi        # 1720e <g_1416+0x1106>
   1391f:	48 89 cf             	mov    %rcx,%rdi
   13922:	e8 cc 3d ff ff       	callq  76f3 <transparent_crc>
   13927:	8b 05 63 6c 00 00    	mov    0x6c63(%rip),%eax        # 1a590 <g_518>
   1392d:	48 98                	cltq   
   1392f:	8b 55 fc             	mov    -0x4(%rbp),%edx
   13932:	48 8d 35 db 38 00 00 	lea    0x38db(%rip),%rsi        # 17214 <g_1416+0x110c>
   13939:	48 89 c7             	mov    %rax,%rdi
   1393c:	e8 b2 3d ff ff       	callq  76f3 <transparent_crc>
   13941:	8b 05 4d 6c 00 00    	mov    0x6c4d(%rip),%eax        # 1a594 <g_518+0x4>
   13947:	89 c1                	mov    %eax,%ecx
   13949:	8b 45 fc             	mov    -0x4(%rbp),%eax
   1394c:	89 c2                	mov    %eax,%edx
   1394e:	48 8d 35 c8 38 00 00 	lea    0x38c8(%rip),%rsi        # 1721d <g_1416+0x1115>
   13955:	48 89 cf             	mov    %rcx,%rdi
   13958:	e8 96 3d ff ff       	callq  76f3 <transparent_crc>
   1395d:	48 8b 05 34 6c 00 00 	mov    0x6c34(%rip),%rax        # 1a598 <g_518+0x8>
   13964:	48 89 c1             	mov    %rax,%rcx
   13967:	8b 45 fc             	mov    -0x4(%rbp),%eax
   1396a:	89 c2                	mov    %eax,%edx
   1396c:	48 8d 35 b3 38 00 00 	lea    0x38b3(%rip),%rsi        # 17226 <g_1416+0x111e>
   13973:	48 89 cf             	mov    %rcx,%rdi
   13976:	e8 78 3d ff ff       	callq  76f3 <transparent_crc>
   1397b:	8b 05 1f 6c 00 00    	mov    0x6c1f(%rip),%eax        # 1a5a0 <g_518+0x10>
   13981:	89 c1                	mov    %eax,%ecx
   13983:	8b 45 fc             	mov    -0x4(%rbp),%eax
   13986:	89 c2                	mov    %eax,%edx
   13988:	48 8d 35 a0 38 00 00 	lea    0x38a0(%rip),%rsi        # 1722f <g_1416+0x1127>
   1398f:	48 89 cf             	mov    %rcx,%rdi
   13992:	e8 5c 3d ff ff       	callq  76f3 <transparent_crc>
   13997:	8b 05 07 6c 00 00    	mov    0x6c07(%rip),%eax        # 1a5a4 <g_518+0x14>
   1399d:	48 98                	cltq   
   1399f:	8b 55 fc             	mov    -0x4(%rbp),%edx
   139a2:	48 8d 35 8f 38 00 00 	lea    0x388f(%rip),%rsi        # 17238 <g_1416+0x1130>
   139a9:	48 89 c7             	mov    %rax,%rdi
   139ac:	e8 42 3d ff ff       	callq  76f3 <transparent_crc>
   139b1:	8b 05 f9 6b 00 00    	mov    0x6bf9(%rip),%eax        # 1a5b0 <g_524>
   139b7:	48 98                	cltq   
   139b9:	8b 55 fc             	mov    -0x4(%rbp),%edx
   139bc:	48 8d 35 7e 38 00 00 	lea    0x387e(%rip),%rsi        # 17241 <g_1416+0x1139>
   139c3:	48 89 c7             	mov    %rax,%rdi
   139c6:	e8 28 3d ff ff       	callq  76f3 <transparent_crc>
   139cb:	8b 05 e3 6b 00 00    	mov    0x6be3(%rip),%eax        # 1a5b4 <g_524+0x4>
   139d1:	89 c1                	mov    %eax,%ecx
   139d3:	8b 45 fc             	mov    -0x4(%rbp),%eax
   139d6:	89 c2                	mov    %eax,%edx
   139d8:	48 8d 35 6b 38 00 00 	lea    0x386b(%rip),%rsi        # 1724a <g_1416+0x1142>
   139df:	48 89 cf             	mov    %rcx,%rdi
   139e2:	e8 0c 3d ff ff       	callq  76f3 <transparent_crc>
   139e7:	48 8b 05 ca 6b 00 00 	mov    0x6bca(%rip),%rax        # 1a5b8 <g_524+0x8>
   139ee:	48 89 c1             	mov    %rax,%rcx
   139f1:	8b 45 fc             	mov    -0x4(%rbp),%eax
   139f4:	89 c2                	mov    %eax,%edx
   139f6:	48 8d 35 56 38 00 00 	lea    0x3856(%rip),%rsi        # 17253 <g_1416+0x114b>
   139fd:	48 89 cf             	mov    %rcx,%rdi
   13a00:	e8 ee 3c ff ff       	callq  76f3 <transparent_crc>
   13a05:	8b 05 b5 6b 00 00    	mov    0x6bb5(%rip),%eax        # 1a5c0 <g_524+0x10>
   13a0b:	89 c1                	mov    %eax,%ecx
   13a0d:	8b 45 fc             	mov    -0x4(%rbp),%eax
   13a10:	89 c2                	mov    %eax,%edx
   13a12:	48 8d 35 43 38 00 00 	lea    0x3843(%rip),%rsi        # 1725c <g_1416+0x1154>
   13a19:	48 89 cf             	mov    %rcx,%rdi
   13a1c:	e8 d2 3c ff ff       	callq  76f3 <transparent_crc>
   13a21:	8b 05 9d 6b 00 00    	mov    0x6b9d(%rip),%eax        # 1a5c4 <g_524+0x14>
   13a27:	48 98                	cltq   
   13a29:	8b 55 fc             	mov    -0x4(%rbp),%edx
   13a2c:	48 8d 35 32 38 00 00 	lea    0x3832(%rip),%rsi        # 17265 <g_1416+0x115d>
   13a33:	48 89 c7             	mov    %rax,%rdi
   13a36:	e8 b8 3c ff ff       	callq  76f3 <transparent_crc>
   13a3b:	8b 05 87 6b 00 00    	mov    0x6b87(%rip),%eax        # 1a5c8 <g_527>
   13a41:	89 c1                	mov    %eax,%ecx
   13a43:	8b 45 fc             	mov    -0x4(%rbp),%eax
   13a46:	89 c2                	mov    %eax,%edx
   13a48:	48 8d 35 1f 38 00 00 	lea    0x381f(%rip),%rsi        # 1726e <g_1416+0x1166>
   13a4f:	48 89 cf             	mov    %rcx,%rdi
   13a52:	e8 9c 3c ff ff       	callq  76f3 <transparent_crc>
   13a57:	8b 05 6f 6b 00 00    	mov    0x6b6f(%rip),%eax        # 1a5cc <g_535>
   13a5d:	48 98                	cltq   
   13a5f:	8b 55 fc             	mov    -0x4(%rbp),%edx
   13a62:	48 8d 35 0b 38 00 00 	lea    0x380b(%rip),%rsi        # 17274 <g_1416+0x116c>
   13a69:	48 89 c7             	mov    %rax,%rdi
   13a6c:	e8 82 3c ff ff       	callq  76f3 <transparent_crc>
   13a71:	0f b6 05 58 6b 00 00 	movzbl 0x6b58(%rip),%eax        # 1a5d0 <g_664>
   13a78:	0f b6 c0             	movzbl %al,%eax
   13a7b:	8b 55 fc             	mov    -0x4(%rbp),%edx
   13a7e:	48 8d 35 f5 37 00 00 	lea    0x37f5(%rip),%rsi        # 1727a <g_1416+0x1172>
   13a85:	48 89 c7             	mov    %rax,%rdi
   13a88:	e8 66 3c ff ff       	callq  76f3 <transparent_crc>
   13a8d:	0f b7 05 4c 6b 00 00 	movzwl 0x6b4c(%rip),%eax        # 1a5e0 <g_688>
   13a94:	48 0f bf c0          	movswq %ax,%rax
   13a98:	8b 55 fc             	mov    -0x4(%rbp),%edx
   13a9b:	48 8d 35 de 37 00 00 	lea    0x37de(%rip),%rsi        # 17280 <g_1416+0x1178>
   13aa2:	48 89 c7             	mov    %rax,%rdi
   13aa5:	e8 49 3c ff ff       	callq  76f3 <transparent_crc>
   13aaa:	8b 05 34 6b 00 00    	mov    0x6b34(%rip),%eax        # 1a5e4 <g_688+0x4>
   13ab0:	89 c1                	mov    %eax,%ecx
   13ab2:	8b 45 fc             	mov    -0x4(%rbp),%eax
   13ab5:	89 c2                	mov    %eax,%edx
   13ab7:	48 8d 35 cb 37 00 00 	lea    0x37cb(%rip),%rsi        # 17289 <g_1416+0x1181>
   13abe:	48 89 cf             	mov    %rcx,%rdi
   13ac1:	e8 2d 3c ff ff       	callq  76f3 <transparent_crc>
   13ac6:	8b 05 1c 6b 00 00    	mov    0x6b1c(%rip),%eax        # 1a5e8 <g_688+0x8>
   13acc:	48 98                	cltq   
   13ace:	8b 55 fc             	mov    -0x4(%rbp),%edx
   13ad1:	48 8d 35 ba 37 00 00 	lea    0x37ba(%rip),%rsi        # 17292 <g_1416+0x118a>
   13ad8:	48 89 c7             	mov    %rax,%rdi
   13adb:	e8 13 3c ff ff       	callq  76f3 <transparent_crc>
   13ae0:	8b 05 06 6b 00 00    	mov    0x6b06(%rip),%eax        # 1a5ec <g_688+0xc>
   13ae6:	48 98                	cltq   
   13ae8:	8b 55 fc             	mov    -0x4(%rbp),%edx
   13aeb:	48 8d 35 a9 37 00 00 	lea    0x37a9(%rip),%rsi        # 1729b <g_1416+0x1193>
   13af2:	48 89 c7             	mov    %rax,%rdi
   13af5:	e8 f9 3b ff ff       	callq  76f3 <transparent_crc>
   13afa:	0f b6 05 ef 6a 00 00 	movzbl 0x6aef(%rip),%eax        # 1a5f0 <g_688+0x10>
   13b01:	0f b6 c0             	movzbl %al,%eax
   13b04:	8b 55 fc             	mov    -0x4(%rbp),%edx
   13b07:	48 8d 35 96 37 00 00 	lea    0x3796(%rip),%rsi        # 172a4 <g_1416+0x119c>
   13b0e:	48 89 c7             	mov    %rax,%rdi
   13b11:	e8 dd 3b ff ff       	callq  76f3 <transparent_crc>
   13b16:	0f b6 05 d4 6a 00 00 	movzbl 0x6ad4(%rip),%eax        # 1a5f1 <g_688+0x11>
   13b1d:	48 0f be c0          	movsbq %al,%rax
   13b21:	8b 55 fc             	mov    -0x4(%rbp),%edx
   13b24:	48 8d 35 82 37 00 00 	lea    0x3782(%rip),%rsi        # 172ad <g_1416+0x11a5>
   13b2b:	48 89 c7             	mov    %rax,%rdi
   13b2e:	e8 c0 3b ff ff       	callq  76f3 <transparent_crc>
   13b33:	48 8b 05 be 6a 00 00 	mov    0x6abe(%rip),%rax        # 1a5f8 <g_688+0x18>
   13b3a:	8b 55 fc             	mov    -0x4(%rbp),%edx
   13b3d:	48 8d 35 72 37 00 00 	lea    0x3772(%rip),%rsi        # 172b6 <g_1416+0x11ae>
   13b44:	48 89 c7             	mov    %rax,%rdi
   13b47:	e8 a7 3b ff ff       	callq  76f3 <transparent_crc>
   13b4c:	48 8b 05 ad 6a 00 00 	mov    0x6aad(%rip),%rax        # 1a600 <g_688+0x20>
   13b53:	48 89 c1             	mov    %rax,%rcx
   13b56:	8b 45 fc             	mov    -0x4(%rbp),%eax
   13b59:	89 c2                	mov    %eax,%edx
   13b5b:	48 8d 35 5d 37 00 00 	lea    0x375d(%rip),%rsi        # 172bf <g_1416+0x11b7>
   13b62:	48 89 cf             	mov    %rcx,%rdi
   13b65:	e8 89 3b ff ff       	callq  76f3 <transparent_crc>
   13b6a:	8b 05 a0 6a 00 00    	mov    0x6aa0(%rip),%eax        # 1a610 <g_705>
   13b70:	48 98                	cltq   
   13b72:	8b 55 fc             	mov    -0x4(%rbp),%edx
   13b75:	48 8d 35 4c 37 00 00 	lea    0x374c(%rip),%rsi        # 172c8 <g_1416+0x11c0>
   13b7c:	48 89 c7             	mov    %rax,%rdi
   13b7f:	e8 6f 3b ff ff       	callq  76f3 <transparent_crc>
   13b84:	8b 05 8a 6a 00 00    	mov    0x6a8a(%rip),%eax        # 1a614 <g_705+0x4>
   13b8a:	89 c1                	mov    %eax,%ecx
   13b8c:	8b 45 fc             	mov    -0x4(%rbp),%eax
   13b8f:	89 c2                	mov    %eax,%edx
   13b91:	48 8d 35 39 37 00 00 	lea    0x3739(%rip),%rsi        # 172d1 <g_1416+0x11c9>
   13b98:	48 89 cf             	mov    %rcx,%rdi
   13b9b:	e8 53 3b ff ff       	callq  76f3 <transparent_crc>
   13ba0:	48 8b 05 71 6a 00 00 	mov    0x6a71(%rip),%rax        # 1a618 <g_705+0x8>
   13ba7:	48 89 c1             	mov    %rax,%rcx
   13baa:	8b 45 fc             	mov    -0x4(%rbp),%eax
   13bad:	89 c2                	mov    %eax,%edx
   13baf:	48 8d 35 24 37 00 00 	lea    0x3724(%rip),%rsi        # 172da <g_1416+0x11d2>
   13bb6:	48 89 cf             	mov    %rcx,%rdi
   13bb9:	e8 35 3b ff ff       	callq  76f3 <transparent_crc>
   13bbe:	8b 05 5c 6a 00 00    	mov    0x6a5c(%rip),%eax        # 1a620 <g_705+0x10>
   13bc4:	89 c1                	mov    %eax,%ecx
   13bc6:	8b 45 fc             	mov    -0x4(%rbp),%eax
   13bc9:	89 c2                	mov    %eax,%edx
   13bcb:	48 8d 35 11 37 00 00 	lea    0x3711(%rip),%rsi        # 172e3 <g_1416+0x11db>
   13bd2:	48 89 cf             	mov    %rcx,%rdi
   13bd5:	e8 19 3b ff ff       	callq  76f3 <transparent_crc>
   13bda:	8b 05 44 6a 00 00    	mov    0x6a44(%rip),%eax        # 1a624 <g_705+0x14>
   13be0:	48 98                	cltq   
   13be2:	8b 55 fc             	mov    -0x4(%rbp),%edx
   13be5:	48 8d 35 00 37 00 00 	lea    0x3700(%rip),%rsi        # 172ec <g_1416+0x11e4>
   13bec:	48 89 c7             	mov    %rax,%rdi
   13bef:	e8 ff 3a ff ff       	callq  76f3 <transparent_crc>
   13bf4:	0f b7 05 35 6a 00 00 	movzwl 0x6a35(%rip),%eax        # 1a630 <g_800>
   13bfb:	0f b7 c0             	movzwl %ax,%eax
   13bfe:	8b 55 fc             	mov    -0x4(%rbp),%edx
   13c01:	48 8d 35 ed 36 00 00 	lea    0x36ed(%rip),%rsi        # 172f5 <g_1416+0x11ed>
   13c08:	48 89 c7             	mov    %rax,%rdi
   13c0b:	e8 e3 3a ff ff       	callq  76f3 <transparent_crc>
   13c10:	8b 05 1e 6a 00 00    	mov    0x6a1e(%rip),%eax        # 1a634 <g_800+0x4>
   13c16:	48 98                	cltq   
   13c18:	8b 55 fc             	mov    -0x4(%rbp),%edx
   13c1b:	48 8d 35 dc 36 00 00 	lea    0x36dc(%rip),%rsi        # 172fe <g_1416+0x11f6>
   13c22:	48 89 c7             	mov    %rax,%rdi
   13c25:	e8 c9 3a ff ff       	callq  76f3 <transparent_crc>
   13c2a:	8b 05 08 6a 00 00    	mov    0x6a08(%rip),%eax        # 1a638 <g_800+0x8>
   13c30:	89 c1                	mov    %eax,%ecx
   13c32:	8b 45 fc             	mov    -0x4(%rbp),%eax
   13c35:	89 c2                	mov    %eax,%edx
   13c37:	48 8d 35 c9 36 00 00 	lea    0x36c9(%rip),%rsi        # 17307 <g_1416+0x11ff>
   13c3e:	48 89 cf             	mov    %rcx,%rdi
   13c41:	e8 ad 3a ff ff       	callq  76f3 <transparent_crc>
   13c46:	0f b7 05 ef 69 00 00 	movzwl 0x69ef(%rip),%eax        # 1a63c <g_800+0xc>
   13c4d:	48 0f bf c0          	movswq %ax,%rax
   13c51:	8b 55 fc             	mov    -0x4(%rbp),%edx
   13c54:	48 8d 35 b5 36 00 00 	lea    0x36b5(%rip),%rsi        # 17310 <g_1416+0x1208>
   13c5b:	48 89 c7             	mov    %rax,%rdi
   13c5e:	e8 90 3a ff ff       	callq  76f3 <transparent_crc>
   13c63:	8b 05 d7 69 00 00    	mov    0x69d7(%rip),%eax        # 1a640 <g_800+0x10>
   13c69:	89 c1                	mov    %eax,%ecx
   13c6b:	8b 45 fc             	mov    -0x4(%rbp),%eax
   13c6e:	89 c2                	mov    %eax,%edx
   13c70:	48 8d 35 a2 36 00 00 	lea    0x36a2(%rip),%rsi        # 17319 <g_1416+0x1211>
   13c77:	48 89 cf             	mov    %rcx,%rdi
   13c7a:	e8 74 3a ff ff       	callq  76f3 <transparent_crc>
   13c7f:	c7 45 f0 00 00 00 00 	movl   $0x0,-0x10(%rbp)
   13c86:	e9 d5 01 00 00       	jmpq   13e60 <main+0xed1>
   13c8b:	8b 45 f0             	mov    -0x10(%rbp),%eax
   13c8e:	48 63 d0             	movslq %eax,%rdx
   13c91:	48 89 d0             	mov    %rdx,%rax
   13c94:	48 c1 e0 02          	shl    $0x2,%rax
   13c98:	48 01 d0             	add    %rdx,%rax
   13c9b:	48 c1 e0 03          	shl    $0x3,%rax
   13c9f:	48 89 c2             	mov    %rax,%rdx
   13ca2:	48 8d 05 b7 69 00 00 	lea    0x69b7(%rip),%rax        # 1a660 <g_804>
   13ca9:	0f b7 04 02          	movzwl (%rdx,%rax,1),%eax
   13cad:	48 0f bf c0          	movswq %ax,%rax
   13cb1:	8b 55 fc             	mov    -0x4(%rbp),%edx
   13cb4:	48 8d 35 67 36 00 00 	lea    0x3667(%rip),%rsi        # 17322 <g_1416+0x121a>
   13cbb:	48 89 c7             	mov    %rax,%rdi
   13cbe:	e8 30 3a ff ff       	callq  76f3 <transparent_crc>
   13cc3:	8b 45 f0             	mov    -0x10(%rbp),%eax
   13cc6:	48 63 d0             	movslq %eax,%rdx
   13cc9:	48 89 d0             	mov    %rdx,%rax
   13ccc:	48 c1 e0 02          	shl    $0x2,%rax
   13cd0:	48 01 d0             	add    %rdx,%rax
   13cd3:	48 c1 e0 03          	shl    $0x3,%rax
   13cd7:	48 89 c2             	mov    %rax,%rdx
   13cda:	48 8d 05 83 69 00 00 	lea    0x6983(%rip),%rax        # 1a664 <g_804+0x4>
   13ce1:	8b 04 02             	mov    (%rdx,%rax,1),%eax
   13ce4:	89 c1                	mov    %eax,%ecx
   13ce6:	8b 45 fc             	mov    -0x4(%rbp),%eax
   13ce9:	89 c2                	mov    %eax,%edx
   13ceb:	48 8d 35 3c 36 00 00 	lea    0x363c(%rip),%rsi        # 1732e <g_1416+0x1226>
   13cf2:	48 89 cf             	mov    %rcx,%rdi
   13cf5:	e8 f9 39 ff ff       	callq  76f3 <transparent_crc>
   13cfa:	8b 45 f0             	mov    -0x10(%rbp),%eax
   13cfd:	48 63 d0             	movslq %eax,%rdx
   13d00:	48 89 d0             	mov    %rdx,%rax
   13d03:	48 c1 e0 02          	shl    $0x2,%rax
   13d07:	48 01 d0             	add    %rdx,%rax
   13d0a:	48 c1 e0 03          	shl    $0x3,%rax
   13d0e:	48 89 c2             	mov    %rax,%rdx
   13d11:	48 8d 05 50 69 00 00 	lea    0x6950(%rip),%rax        # 1a668 <g_804+0x8>
   13d18:	8b 04 02             	mov    (%rdx,%rax,1),%eax
   13d1b:	48 98                	cltq   
   13d1d:	8b 55 fc             	mov    -0x4(%rbp),%edx
   13d20:	48 8d 35 13 36 00 00 	lea    0x3613(%rip),%rsi        # 1733a <g_1416+0x1232>
   13d27:	48 89 c7             	mov    %rax,%rdi
   13d2a:	e8 c4 39 ff ff       	callq  76f3 <transparent_crc>
   13d2f:	8b 45 f0             	mov    -0x10(%rbp),%eax
   13d32:	48 63 d0             	movslq %eax,%rdx
   13d35:	48 89 d0             	mov    %rdx,%rax
   13d38:	48 c1 e0 02          	shl    $0x2,%rax
   13d3c:	48 01 d0             	add    %rdx,%rax
   13d3f:	48 c1 e0 03          	shl    $0x3,%rax
   13d43:	48 89 c2             	mov    %rax,%rdx
   13d46:	48 8d 05 1f 69 00 00 	lea    0x691f(%rip),%rax        # 1a66c <g_804+0xc>
   13d4d:	8b 04 02             	mov    (%rdx,%rax,1),%eax
   13d50:	48 98                	cltq   
   13d52:	8b 55 fc             	mov    -0x4(%rbp),%edx
   13d55:	48 8d 35 ea 35 00 00 	lea    0x35ea(%rip),%rsi        # 17346 <g_1416+0x123e>
   13d5c:	48 89 c7             	mov    %rax,%rdi
   13d5f:	e8 8f 39 ff ff       	callq  76f3 <transparent_crc>
   13d64:	8b 45 f0             	mov    -0x10(%rbp),%eax
   13d67:	48 63 d0             	movslq %eax,%rdx
   13d6a:	48 89 d0             	mov    %rdx,%rax
   13d6d:	48 c1 e0 02          	shl    $0x2,%rax
   13d71:	48 01 d0             	add    %rdx,%rax
   13d74:	48 c1 e0 03          	shl    $0x3,%rax
   13d78:	48 89 c2             	mov    %rax,%rdx
   13d7b:	48 8d 05 ee 68 00 00 	lea    0x68ee(%rip),%rax        # 1a670 <g_804+0x10>
   13d82:	0f b6 04 02          	movzbl (%rdx,%rax,1),%eax
   13d86:	0f b6 c0             	movzbl %al,%eax
   13d89:	8b 55 fc             	mov    -0x4(%rbp),%edx
   13d8c:	48 8d 35 bf 35 00 00 	lea    0x35bf(%rip),%rsi        # 17352 <g_1416+0x124a>
   13d93:	48 89 c7             	mov    %rax,%rdi
   13d96:	e8 58 39 ff ff       	callq  76f3 <transparent_crc>
   13d9b:	8b 45 f0             	mov    -0x10(%rbp),%eax
   13d9e:	48 63 d0             	movslq %eax,%rdx
   13da1:	48 89 d0             	mov    %rdx,%rax
   13da4:	48 c1 e0 02          	shl    $0x2,%rax
   13da8:	48 01 d0             	add    %rdx,%rax
   13dab:	48 c1 e0 03          	shl    $0x3,%rax
   13daf:	48 89 c2             	mov    %rax,%rdx
   13db2:	48 8d 05 b8 68 00 00 	lea    0x68b8(%rip),%rax        # 1a671 <g_804+0x11>
   13db9:	0f b6 04 02          	movzbl (%rdx,%rax,1),%eax
   13dbd:	48 0f be c0          	movsbq %al,%rax
   13dc1:	8b 55 fc             	mov    -0x4(%rbp),%edx
   13dc4:	48 8d 35 93 35 00 00 	lea    0x3593(%rip),%rsi        # 1735e <g_1416+0x1256>
   13dcb:	48 89 c7             	mov    %rax,%rdi
   13dce:	e8 20 39 ff ff       	callq  76f3 <transparent_crc>
   13dd3:	8b 45 f0             	mov    -0x10(%rbp),%eax
   13dd6:	48 63 d0             	movslq %eax,%rdx
   13dd9:	48 89 d0             	mov    %rdx,%rax
   13ddc:	48 c1 e0 02          	shl    $0x2,%rax
   13de0:	48 01 d0             	add    %rdx,%rax
   13de3:	48 c1 e0 03          	shl    $0x3,%rax
   13de7:	48 89 c2             	mov    %rax,%rdx
   13dea:	48 8d 05 87 68 00 00 	lea    0x6887(%rip),%rax        # 1a678 <g_804+0x18>
   13df1:	48 8b 04 02          	mov    (%rdx,%rax,1),%rax
   13df5:	8b 55 fc             	mov    -0x4(%rbp),%edx
   13df8:	48 8d 35 6b 35 00 00 	lea    0x356b(%rip),%rsi        # 1736a <g_1416+0x1262>
   13dff:	48 89 c7             	mov    %rax,%rdi
   13e02:	e8 ec 38 ff ff       	callq  76f3 <transparent_crc>
   13e07:	8b 45 f0             	mov    -0x10(%rbp),%eax
   13e0a:	48 63 d0             	movslq %eax,%rdx
   13e0d:	48 89 d0             	mov    %rdx,%rax
   13e10:	48 c1 e0 02          	shl    $0x2,%rax
   13e14:	48 01 d0             	add    %rdx,%rax
   13e17:	48 c1 e0 03          	shl    $0x3,%rax
   13e1b:	48 89 c2             	mov    %rax,%rdx
   13e1e:	48 8d 05 5b 68 00 00 	lea    0x685b(%rip),%rax        # 1a680 <g_804+0x20>
   13e25:	48 8b 04 02          	mov    (%rdx,%rax,1),%rax
   13e29:	48 89 c1             	mov    %rax,%rcx
   13e2c:	8b 45 fc             	mov    -0x4(%rbp),%eax
   13e2f:	89 c2                	mov    %eax,%edx
   13e31:	48 8d 35 3e 35 00 00 	lea    0x353e(%rip),%rsi        # 17376 <g_1416+0x126e>
   13e38:	48 89 cf             	mov    %rcx,%rdi
   13e3b:	e8 b3 38 ff ff       	callq  76f3 <transparent_crc>
   13e40:	83 7d fc 00          	cmpl   $0x0,-0x4(%rbp)
   13e44:	74 16                	je     13e5c <main+0xecd>
   13e46:	8b 45 f0             	mov    -0x10(%rbp),%eax
   13e49:	89 c6                	mov    %eax,%esi
   13e4b:	48 8d 3d 8b 32 00 00 	lea    0x328b(%rip),%rdi        # 170dd <g_1416+0xfd5>
   13e52:	b8 00 00 00 00       	mov    $0x0,%eax
   13e57:	e8 24 22 ff ff       	callq  6080 <printf@plt>
   13e5c:	83 45 f0 01          	addl   $0x1,-0x10(%rbp)
   13e60:	83 7d f0 08          	cmpl   $0x8,-0x10(%rbp)
   13e64:	0f 8e 21 fe ff ff    	jle    13c8b <main+0xcfc>
   13e6a:	48 8b 05 57 69 00 00 	mov    0x6957(%rip),%rax        # 1a7c8 <g_823>
   13e71:	48 89 c1             	mov    %rax,%rcx
   13e74:	8b 45 fc             	mov    -0x4(%rbp),%eax
   13e77:	89 c2                	mov    %eax,%edx
   13e79:	48 8d 35 02 35 00 00 	lea    0x3502(%rip),%rsi        # 17382 <g_1416+0x127a>
   13e80:	48 89 cf             	mov    %rcx,%rdi
   13e83:	e8 6b 38 ff ff       	callq  76f3 <transparent_crc>
   13e88:	8b 05 42 69 00 00    	mov    0x6942(%rip),%eax        # 1a7d0 <g_835>
   13e8e:	48 98                	cltq   
   13e90:	8b 55 fc             	mov    -0x4(%rbp),%edx
   13e93:	48 8d 35 ee 34 00 00 	lea    0x34ee(%rip),%rsi        # 17388 <g_1416+0x1280>
   13e9a:	48 89 c7             	mov    %rax,%rdi
   13e9d:	e8 51 38 ff ff       	callq  76f3 <transparent_crc>
   13ea2:	8b 05 2c 69 00 00    	mov    0x692c(%rip),%eax        # 1a7d4 <g_835+0x4>
   13ea8:	89 c1                	mov    %eax,%ecx
   13eaa:	8b 45 fc             	mov    -0x4(%rbp),%eax
   13ead:	89 c2                	mov    %eax,%edx
   13eaf:	48 8d 35 db 34 00 00 	lea    0x34db(%rip),%rsi        # 17391 <g_1416+0x1289>
   13eb6:	48 89 cf             	mov    %rcx,%rdi
   13eb9:	e8 35 38 ff ff       	callq  76f3 <transparent_crc>
   13ebe:	48 8b 05 13 69 00 00 	mov    0x6913(%rip),%rax        # 1a7d8 <g_835+0x8>
   13ec5:	48 89 c1             	mov    %rax,%rcx
   13ec8:	8b 45 fc             	mov    -0x4(%rbp),%eax
   13ecb:	89 c2                	mov    %eax,%edx
   13ecd:	48 8d 35 c6 34 00 00 	lea    0x34c6(%rip),%rsi        # 1739a <g_1416+0x1292>
   13ed4:	48 89 cf             	mov    %rcx,%rdi
   13ed7:	e8 17 38 ff ff       	callq  76f3 <transparent_crc>
   13edc:	8b 05 fe 68 00 00    	mov    0x68fe(%rip),%eax        # 1a7e0 <g_835+0x10>
   13ee2:	89 c1                	mov    %eax,%ecx
   13ee4:	8b 45 fc             	mov    -0x4(%rbp),%eax
   13ee7:	89 c2                	mov    %eax,%edx
   13ee9:	48 8d 35 b3 34 00 00 	lea    0x34b3(%rip),%rsi        # 173a3 <g_1416+0x129b>
   13ef0:	48 89 cf             	mov    %rcx,%rdi
   13ef3:	e8 fb 37 ff ff       	callq  76f3 <transparent_crc>
   13ef8:	8b 05 e6 68 00 00    	mov    0x68e6(%rip),%eax        # 1a7e4 <g_835+0x14>
   13efe:	48 98                	cltq   
   13f00:	8b 55 fc             	mov    -0x4(%rbp),%edx
   13f03:	48 8d 35 a2 34 00 00 	lea    0x34a2(%rip),%rsi        # 173ac <g_1416+0x12a4>
   13f0a:	48 89 c7             	mov    %rax,%rdi
   13f0d:	e8 e1 37 ff ff       	callq  76f3 <transparent_crc>
   13f12:	8b 05 d0 68 00 00    	mov    0x68d0(%rip),%eax        # 1a7e8 <g_852>
   13f18:	48 98                	cltq   
   13f1a:	8b 55 fc             	mov    -0x4(%rbp),%edx
   13f1d:	48 8d 35 91 34 00 00 	lea    0x3491(%rip),%rsi        # 173b5 <g_1416+0x12ad>
   13f24:	48 89 c7             	mov    %rax,%rdi
   13f27:	e8 c7 37 ff ff       	callq  76f3 <transparent_crc>
   13f2c:	8b 05 ba 68 00 00    	mov    0x68ba(%rip),%eax        # 1a7ec <g_883>
   13f32:	48 98                	cltq   
   13f34:	8b 55 fc             	mov    -0x4(%rbp),%edx
   13f37:	48 8d 35 7d 34 00 00 	lea    0x347d(%rip),%rsi        # 173bb <g_1416+0x12b3>
   13f3e:	48 89 c7             	mov    %rax,%rdi
   13f41:	e8 ad 37 ff ff       	callq  76f3 <transparent_crc>
   13f46:	0f b7 05 a3 68 00 00 	movzwl 0x68a3(%rip),%eax        # 1a7f0 <g_936>
   13f4d:	0f b7 c0             	movzwl %ax,%eax
   13f50:	8b 55 fc             	mov    -0x4(%rbp),%edx
   13f53:	48 8d 35 67 34 00 00 	lea    0x3467(%rip),%rsi        # 173c1 <g_1416+0x12b9>
   13f5a:	48 89 c7             	mov    %rax,%rdi
   13f5d:	e8 91 37 ff ff       	callq  76f3 <transparent_crc>
   13f62:	c7 45 f0 00 00 00 00 	movl   $0x0,-0x10(%rbp)
   13f69:	e9 a7 03 00 00       	jmpq   14315 <main+0x1386>
   13f6e:	c7 45 f4 00 00 00 00 	movl   $0x0,-0xc(%rbp)
   13f75:	e9 8d 03 00 00       	jmpq   14307 <main+0x1378>
   13f7a:	c7 45 f8 00 00 00 00 	movl   $0x0,-0x8(%rbp)
   13f81:	e9 73 03 00 00       	jmpq   142f9 <main+0x136a>
   13f86:	8b 45 f8             	mov    -0x8(%rbp),%eax
   13f89:	48 98                	cltq   
   13f8b:	8b 55 f4             	mov    -0xc(%rbp),%edx
   13f8e:	48 63 f2             	movslq %edx,%rsi
   13f91:	8b 55 f0             	mov    -0x10(%rbp),%edx
   13f94:	48 63 ca             	movslq %edx,%rcx
   13f97:	48 89 c2             	mov    %rax,%rdx
   13f9a:	48 c1 e2 02          	shl    $0x2,%rdx
   13f9e:	48 01 c2             	add    %rax,%rdx
   13fa1:	48 8d 04 d5 00 00 00 	lea    0x0(,%rdx,8),%rax
   13fa8:	00 
   13fa9:	48 89 c2             	mov    %rax,%rdx
   13fac:	48 89 f0             	mov    %rsi,%rax
   13faf:	48 c1 e0 02          	shl    $0x2,%rax
   13fb3:	48 01 f0             	add    %rsi,%rax
   13fb6:	48 c1 e0 06          	shl    $0x6,%rax
   13fba:	48 01 c2             	add    %rax,%rdx
   13fbd:	48 89 c8             	mov    %rcx,%rax
   13fc0:	48 c1 e0 02          	shl    $0x2,%rax
   13fc4:	48 01 c8             	add    %rcx,%rax
   13fc7:	48 c1 e0 09          	shl    $0x9,%rax
   13fcb:	48 01 c2             	add    %rax,%rdx
   13fce:	48 8d 05 2b 68 00 00 	lea    0x682b(%rip),%rax        # 1a800 <g_947>
   13fd5:	48 01 d0             	add    %rdx,%rax
   13fd8:	0f b7 00             	movzwl (%rax),%eax
   13fdb:	48 0f bf c0          	movswq %ax,%rax
   13fdf:	8b 55 fc             	mov    -0x4(%rbp),%edx
   13fe2:	48 8d 35 de 33 00 00 	lea    0x33de(%rip),%rsi        # 173c7 <g_1416+0x12bf>
   13fe9:	48 89 c7             	mov    %rax,%rdi
   13fec:	e8 02 37 ff ff       	callq  76f3 <transparent_crc>
   13ff1:	8b 45 f8             	mov    -0x8(%rbp),%eax
   13ff4:	48 98                	cltq   
   13ff6:	8b 55 f4             	mov    -0xc(%rbp),%edx
   13ff9:	48 63 f2             	movslq %edx,%rsi
   13ffc:	8b 55 f0             	mov    -0x10(%rbp),%edx
   13fff:	48 63 ca             	movslq %edx,%rcx
   14002:	48 89 c2             	mov    %rax,%rdx
   14005:	48 c1 e2 02          	shl    $0x2,%rdx
   14009:	48 01 c2             	add    %rax,%rdx
   1400c:	48 8d 04 d5 00 00 00 	lea    0x0(,%rdx,8),%rax
   14013:	00 
   14014:	48 89 c2             	mov    %rax,%rdx
   14017:	48 89 f0             	mov    %rsi,%rax
   1401a:	48 c1 e0 02          	shl    $0x2,%rax
   1401e:	48 01 f0             	add    %rsi,%rax
   14021:	48 c1 e0 06          	shl    $0x6,%rax
   14025:	48 01 c2             	add    %rax,%rdx
   14028:	48 89 c8             	mov    %rcx,%rax
   1402b:	48 c1 e0 02          	shl    $0x2,%rax
   1402f:	48 01 c8             	add    %rcx,%rax
   14032:	48 c1 e0 09          	shl    $0x9,%rax
   14036:	48 01 c2             	add    %rax,%rdx
   14039:	48 8d 05 c4 67 00 00 	lea    0x67c4(%rip),%rax        # 1a804 <g_947+0x4>
   14040:	48 01 d0             	add    %rdx,%rax
   14043:	8b 00                	mov    (%rax),%eax
   14045:	89 c1                	mov    %eax,%ecx
   14047:	8b 45 fc             	mov    -0x4(%rbp),%eax
   1404a:	89 c2                	mov    %eax,%edx
   1404c:	48 8d 35 86 33 00 00 	lea    0x3386(%rip),%rsi        # 173d9 <g_1416+0x12d1>
   14053:	48 89 cf             	mov    %rcx,%rdi
   14056:	e8 98 36 ff ff       	callq  76f3 <transparent_crc>
   1405b:	8b 45 f8             	mov    -0x8(%rbp),%eax
   1405e:	48 98                	cltq   
   14060:	8b 55 f4             	mov    -0xc(%rbp),%edx
   14063:	48 63 f2             	movslq %edx,%rsi
   14066:	8b 55 f0             	mov    -0x10(%rbp),%edx
   14069:	48 63 ca             	movslq %edx,%rcx
   1406c:	48 89 c2             	mov    %rax,%rdx
   1406f:	48 c1 e2 02          	shl    $0x2,%rdx
   14073:	48 01 c2             	add    %rax,%rdx
   14076:	48 8d 04 d5 00 00 00 	lea    0x0(,%rdx,8),%rax
   1407d:	00 
   1407e:	48 89 c2             	mov    %rax,%rdx
   14081:	48 89 f0             	mov    %rsi,%rax
   14084:	48 c1 e0 02          	shl    $0x2,%rax
   14088:	48 01 f0             	add    %rsi,%rax
   1408b:	48 c1 e0 06          	shl    $0x6,%rax
   1408f:	48 01 c2             	add    %rax,%rdx
   14092:	48 89 c8             	mov    %rcx,%rax
   14095:	48 c1 e0 02          	shl    $0x2,%rax
   14099:	48 01 c8             	add    %rcx,%rax
   1409c:	48 c1 e0 09          	shl    $0x9,%rax
   140a0:	48 01 c2             	add    %rax,%rdx
   140a3:	48 8d 05 5e 67 00 00 	lea    0x675e(%rip),%rax        # 1a808 <g_947+0x8>
   140aa:	48 01 d0             	add    %rdx,%rax
   140ad:	8b 00                	mov    (%rax),%eax
   140af:	48 98                	cltq   
   140b1:	8b 55 fc             	mov    -0x4(%rbp),%edx
   140b4:	48 8d 35 30 33 00 00 	lea    0x3330(%rip),%rsi        # 173eb <g_1416+0x12e3>
   140bb:	48 89 c7             	mov    %rax,%rdi
   140be:	e8 30 36 ff ff       	callq  76f3 <transparent_crc>
   140c3:	8b 45 f8             	mov    -0x8(%rbp),%eax
   140c6:	48 98                	cltq   
   140c8:	8b 55 f4             	mov    -0xc(%rbp),%edx
   140cb:	48 63 f2             	movslq %edx,%rsi
   140ce:	8b 55 f0             	mov    -0x10(%rbp),%edx
   140d1:	48 63 ca             	movslq %edx,%rcx
   140d4:	48 89 c2             	mov    %rax,%rdx
   140d7:	48 c1 e2 02          	shl    $0x2,%rdx
   140db:	48 01 c2             	add    %rax,%rdx
   140de:	48 8d 04 d5 00 00 00 	lea    0x0(,%rdx,8),%rax
   140e5:	00 
   140e6:	48 89 c2             	mov    %rax,%rdx
   140e9:	48 89 f0             	mov    %rsi,%rax
   140ec:	48 c1 e0 02          	shl    $0x2,%rax
   140f0:	48 01 f0             	add    %rsi,%rax
   140f3:	48 c1 e0 06          	shl    $0x6,%rax
   140f7:	48 01 c2             	add    %rax,%rdx
   140fa:	48 89 c8             	mov    %rcx,%rax
   140fd:	48 c1 e0 02          	shl    $0x2,%rax
   14101:	48 01 c8             	add    %rcx,%rax
   14104:	48 c1 e0 09          	shl    $0x9,%rax
   14108:	48 01 c2             	add    %rax,%rdx
   1410b:	48 8d 05 fa 66 00 00 	lea    0x66fa(%rip),%rax        # 1a80c <g_947+0xc>
   14112:	48 01 d0             	add    %rdx,%rax
   14115:	8b 00                	mov    (%rax),%eax
   14117:	48 98                	cltq   
   14119:	8b 55 fc             	mov    -0x4(%rbp),%edx
   1411c:	48 8d 35 da 32 00 00 	lea    0x32da(%rip),%rsi        # 173fd <g_1416+0x12f5>
   14123:	48 89 c7             	mov    %rax,%rdi
   14126:	e8 c8 35 ff ff       	callq  76f3 <transparent_crc>
   1412b:	8b 45 f8             	mov    -0x8(%rbp),%eax
   1412e:	48 98                	cltq   
   14130:	8b 55 f4             	mov    -0xc(%rbp),%edx
   14133:	48 63 ca             	movslq %edx,%rcx
   14136:	8b 55 f0             	mov    -0x10(%rbp),%edx
   14139:	48 63 f2             	movslq %edx,%rsi
   1413c:	48 89 c2             	mov    %rax,%rdx
   1413f:	48 c1 e2 02          	shl    $0x2,%rdx
   14143:	48 01 c2             	add    %rax,%rdx
   14146:	48 8d 04 d5 00 00 00 	lea    0x0(,%rdx,8),%rax
   1414d:	00 
   1414e:	48 89 c2             	mov    %rax,%rdx
   14151:	48 89 f0             	mov    %rsi,%rax
   14154:	48 c1 e0 02          	shl    $0x2,%rax
   14158:	48 01 f0             	add    %rsi,%rax
   1415b:	48 c1 e0 09          	shl    $0x9,%rax
   1415f:	48 01 c2             	add    %rax,%rdx
   14162:	48 89 c8             	mov    %rcx,%rax
   14165:	48 c1 e0 02          	shl    $0x2,%rax
   14169:	48 01 c8             	add    %rcx,%rax
   1416c:	48 c1 e0 06          	shl    $0x6,%rax
   14170:	48 01 c2             	add    %rax,%rdx
   14173:	48 8d 05 96 66 00 00 	lea    0x6696(%rip),%rax        # 1a810 <g_947+0x10>
   1417a:	48 01 d0             	add    %rdx,%rax
   1417d:	0f b6 00             	movzbl (%rax),%eax
   14180:	0f b6 c0             	movzbl %al,%eax
   14183:	8b 55 fc             	mov    -0x4(%rbp),%edx
   14186:	48 8d 35 82 32 00 00 	lea    0x3282(%rip),%rsi        # 1740f <g_1416+0x1307>
   1418d:	48 89 c7             	mov    %rax,%rdi
   14190:	e8 5e 35 ff ff       	callq  76f3 <transparent_crc>
   14195:	8b 45 f8             	mov    -0x8(%rbp),%eax
   14198:	48 98                	cltq   
   1419a:	8b 55 f4             	mov    -0xc(%rbp),%edx
   1419d:	48 63 ca             	movslq %edx,%rcx
   141a0:	8b 55 f0             	mov    -0x10(%rbp),%edx
   141a3:	48 63 f2             	movslq %edx,%rsi
   141a6:	48 89 c2             	mov    %rax,%rdx
   141a9:	48 c1 e2 02          	shl    $0x2,%rdx
   141ad:	48 01 c2             	add    %rax,%rdx
   141b0:	48 8d 04 d5 00 00 00 	lea    0x0(,%rdx,8),%rax
   141b7:	00 
   141b8:	48 89 c2             	mov    %rax,%rdx
   141bb:	48 89 f0             	mov    %rsi,%rax
   141be:	48 c1 e0 02          	shl    $0x2,%rax
   141c2:	48 01 f0             	add    %rsi,%rax
   141c5:	48 c1 e0 09          	shl    $0x9,%rax
   141c9:	48 01 c2             	add    %rax,%rdx
   141cc:	48 89 c8             	mov    %rcx,%rax
   141cf:	48 c1 e0 02          	shl    $0x2,%rax
   141d3:	48 01 c8             	add    %rcx,%rax
   141d6:	48 c1 e0 06          	shl    $0x6,%rax
   141da:	48 01 c2             	add    %rax,%rdx
   141dd:	48 8d 05 2d 66 00 00 	lea    0x662d(%rip),%rax        # 1a811 <g_947+0x11>
   141e4:	48 01 d0             	add    %rdx,%rax
   141e7:	0f b6 00             	movzbl (%rax),%eax
   141ea:	48 0f be c0          	movsbq %al,%rax
   141ee:	8b 55 fc             	mov    -0x4(%rbp),%edx
   141f1:	48 8d 35 29 32 00 00 	lea    0x3229(%rip),%rsi        # 17421 <g_1416+0x1319>
   141f8:	48 89 c7             	mov    %rax,%rdi
   141fb:	e8 f3 34 ff ff       	callq  76f3 <transparent_crc>
   14200:	8b 45 f8             	mov    -0x8(%rbp),%eax
   14203:	48 98                	cltq   
   14205:	8b 55 f4             	mov    -0xc(%rbp),%edx
   14208:	48 63 ca             	movslq %edx,%rcx
   1420b:	8b 55 f0             	mov    -0x10(%rbp),%edx
   1420e:	48 63 f2             	movslq %edx,%rsi
   14211:	48 89 c2             	mov    %rax,%rdx
   14214:	48 c1 e2 02          	shl    $0x2,%rdx
   14218:	48 01 c2             	add    %rax,%rdx
   1421b:	48 8d 04 d5 00 00 00 	lea    0x0(,%rdx,8),%rax
   14222:	00 
   14223:	48 89 c2             	mov    %rax,%rdx
   14226:	48 89 f0             	mov    %rsi,%rax
   14229:	48 c1 e0 02          	shl    $0x2,%rax
   1422d:	48 01 f0             	add    %rsi,%rax
   14230:	48 c1 e0 09          	shl    $0x9,%rax
   14234:	48 01 c2             	add    %rax,%rdx
   14237:	48 89 c8             	mov    %rcx,%rax
   1423a:	48 c1 e0 02          	shl    $0x2,%rax
   1423e:	48 01 c8             	add    %rcx,%rax
   14241:	48 c1 e0 06          	shl    $0x6,%rax
   14245:	48 01 c2             	add    %rax,%rdx
   14248:	48 8d 05 c9 65 00 00 	lea    0x65c9(%rip),%rax        # 1a818 <g_947+0x18>
   1424f:	48 01 d0             	add    %rdx,%rax
   14252:	48 8b 00             	mov    (%rax),%rax
   14255:	8b 55 fc             	mov    -0x4(%rbp),%edx
   14258:	48 8d 35 d4 31 00 00 	lea    0x31d4(%rip),%rsi        # 17433 <g_1416+0x132b>
   1425f:	48 89 c7             	mov    %rax,%rdi
   14262:	e8 8c 34 ff ff       	callq  76f3 <transparent_crc>
   14267:	8b 45 f8             	mov    -0x8(%rbp),%eax
   1426a:	48 98                	cltq   
   1426c:	8b 55 f4             	mov    -0xc(%rbp),%edx
   1426f:	48 63 ca             	movslq %edx,%rcx
   14272:	8b 55 f0             	mov    -0x10(%rbp),%edx
   14275:	48 63 f2             	movslq %edx,%rsi
   14278:	48 89 c2             	mov    %rax,%rdx
   1427b:	48 c1 e2 02          	shl    $0x2,%rdx
   1427f:	48 01 c2             	add    %rax,%rdx
   14282:	48 8d 04 d5 00 00 00 	lea    0x0(,%rdx,8),%rax
   14289:	00 
   1428a:	48 89 c2             	mov    %rax,%rdx
   1428d:	48 89 f0             	mov    %rsi,%rax
   14290:	48 c1 e0 02          	shl    $0x2,%rax
   14294:	48 01 f0             	add    %rsi,%rax
   14297:	48 c1 e0 09          	shl    $0x9,%rax
   1429b:	48 01 c2             	add    %rax,%rdx
   1429e:	48 89 c8             	mov    %rcx,%rax
   142a1:	48 c1 e0 02          	shl    $0x2,%rax
   142a5:	48 01 c8             	add    %rcx,%rax
   142a8:	48 c1 e0 06          	shl    $0x6,%rax
   142ac:	48 01 c2             	add    %rax,%rdx
   142af:	48 8d 05 6a 65 00 00 	lea    0x656a(%rip),%rax        # 1a820 <g_947+0x20>
   142b6:	48 01 d0             	add    %rdx,%rax
   142b9:	48 8b 00             	mov    (%rax),%rax
   142bc:	48 89 c1             	mov    %rax,%rcx
   142bf:	8b 45 fc             	mov    -0x4(%rbp),%eax
   142c2:	89 c2                	mov    %eax,%edx
   142c4:	48 8d 35 7a 31 00 00 	lea    0x317a(%rip),%rsi        # 17445 <g_1416+0x133d>
   142cb:	48 89 cf             	mov    %rcx,%rdi
   142ce:	e8 20 34 ff ff       	callq  76f3 <transparent_crc>
   142d3:	83 7d fc 00          	cmpl   $0x0,-0x4(%rbp)
   142d7:	74 1c                	je     142f5 <main+0x1366>
   142d9:	8b 4d f8             	mov    -0x8(%rbp),%ecx
   142dc:	8b 55 f4             	mov    -0xc(%rbp),%edx
   142df:	8b 45 f0             	mov    -0x10(%rbp),%eax
   142e2:	89 c6                	mov    %eax,%esi
   142e4:	48 8d 3d 04 2d 00 00 	lea    0x2d04(%rip),%rdi        # 16fef <g_1416+0xee7>
   142eb:	b8 00 00 00 00       	mov    $0x0,%eax
   142f0:	e8 8b 1d ff ff       	callq  6080 <printf@plt>
   142f5:	83 45 f8 01          	addl   $0x1,-0x8(%rbp)
   142f9:	83 7d f8 07          	cmpl   $0x7,-0x8(%rbp)
   142fd:	0f 8e 83 fc ff ff    	jle    13f86 <main+0xff7>
   14303:	83 45 f4 01          	addl   $0x1,-0xc(%rbp)
   14307:	83 7d f4 07          	cmpl   $0x7,-0xc(%rbp)
   1430b:	0f 8e 69 fc ff ff    	jle    13f7a <main+0xfeb>
   14311:	83 45 f0 01          	addl   $0x1,-0x10(%rbp)
   14315:	83 7d f0 00          	cmpl   $0x0,-0x10(%rbp)
   14319:	0f 8e 4f fc ff ff    	jle    13f6e <main+0xfdf>
   1431f:	0f b7 05 da 6e 00 00 	movzwl 0x6eda(%rip),%eax        # 1b200 <g_948>
   14326:	0f b7 c0             	movzwl %ax,%eax
   14329:	8b 55 fc             	mov    -0x4(%rbp),%edx
   1432c:	48 8d 35 24 31 00 00 	lea    0x3124(%rip),%rsi        # 17457 <g_1416+0x134f>
   14333:	48 89 c7             	mov    %rax,%rdi
   14336:	e8 b8 33 ff ff       	callq  76f3 <transparent_crc>
   1433b:	8b 05 c3 6e 00 00    	mov    0x6ec3(%rip),%eax        # 1b204 <g_995>
   14341:	89 c1                	mov    %eax,%ecx
   14343:	8b 45 fc             	mov    -0x4(%rbp),%eax
   14346:	89 c2                	mov    %eax,%edx
   14348:	48 8d 35 0e 31 00 00 	lea    0x310e(%rip),%rsi        # 1745d <g_1416+0x1355>
   1434f:	48 89 cf             	mov    %rcx,%rdi
   14352:	e8 9c 33 ff ff       	callq  76f3 <transparent_crc>
   14357:	c7 45 f0 00 00 00 00 	movl   $0x0,-0x10(%rbp)
   1435e:	e9 a5 00 00 00       	jmpq   14408 <main+0x1479>
   14363:	c7 45 f4 00 00 00 00 	movl   $0x0,-0xc(%rbp)
   1436a:	e9 8b 00 00 00       	jmpq   143fa <main+0x146b>
   1436f:	c7 45 f8 00 00 00 00 	movl   $0x0,-0x8(%rbp)
   14376:	eb 78                	jmp    143f0 <main+0x1461>
   14378:	8b 45 f8             	mov    -0x8(%rbp),%eax
   1437b:	48 63 f0             	movslq %eax,%rsi
   1437e:	8b 45 f0             	mov    -0x10(%rbp),%eax
   14381:	48 98                	cltq   
   14383:	8b 55 f4             	mov    -0xc(%rbp),%edx
   14386:	48 63 ca             	movslq %edx,%rcx
   14389:	48 89 c2             	mov    %rax,%rdx
   1438c:	48 c1 e2 04          	shl    $0x4,%rdx
   14390:	48 29 c2             	sub    %rax,%rdx
   14393:	48 89 c8             	mov    %rcx,%rax
   14396:	48 01 c0             	add    %rax,%rax
   14399:	48 01 c8             	add    %rcx,%rax
   1439c:	48 01 d0             	add    %rdx,%rax
   1439f:	48 01 f0             	add    %rsi,%rax
   143a2:	48 8d 14 85 00 00 00 	lea    0x0(,%rax,4),%rdx
   143a9:	00 
   143aa:	48 8d 05 6f 6e 00 00 	lea    0x6e6f(%rip),%rax        # 1b220 <g_1005>
   143b1:	8b 04 02             	mov    (%rdx,%rax,1),%eax
   143b4:	89 c1                	mov    %eax,%ecx
   143b6:	8b 45 fc             	mov    -0x4(%rbp),%eax
   143b9:	89 c2                	mov    %eax,%edx
   143bb:	48 8d 35 a1 30 00 00 	lea    0x30a1(%rip),%rsi        # 17463 <g_1416+0x135b>
   143c2:	48 89 cf             	mov    %rcx,%rdi
   143c5:	e8 29 33 ff ff       	callq  76f3 <transparent_crc>
   143ca:	83 7d fc 00          	cmpl   $0x0,-0x4(%rbp)
   143ce:	74 1c                	je     143ec <main+0x145d>
   143d0:	8b 4d f8             	mov    -0x8(%rbp),%ecx
   143d3:	8b 55 f4             	mov    -0xc(%rbp),%edx
   143d6:	8b 45 f0             	mov    -0x10(%rbp),%eax
   143d9:	89 c6                	mov    %eax,%esi
   143db:	48 8d 3d 0d 2c 00 00 	lea    0x2c0d(%rip),%rdi        # 16fef <g_1416+0xee7>
   143e2:	b8 00 00 00 00       	mov    $0x0,%eax
   143e7:	e8 94 1c ff ff       	callq  6080 <printf@plt>
   143ec:	83 45 f8 01          	addl   $0x1,-0x8(%rbp)
   143f0:	83 7d f8 02          	cmpl   $0x2,-0x8(%rbp)
   143f4:	7e 82                	jle    14378 <main+0x13e9>
   143f6:	83 45 f4 01          	addl   $0x1,-0xc(%rbp)
   143fa:	83 7d f4 04          	cmpl   $0x4,-0xc(%rbp)
   143fe:	0f 8e 6b ff ff ff    	jle    1436f <main+0x13e0>
   14404:	83 45 f0 01          	addl   $0x1,-0x10(%rbp)
   14408:	83 7d f0 00          	cmpl   $0x0,-0x10(%rbp)
   1440c:	0f 8e 51 ff ff ff    	jle    14363 <main+0x13d4>
   14412:	0f b6 05 43 6e 00 00 	movzbl 0x6e43(%rip),%eax        # 1b25c <g_1008>
   14419:	48 0f be c0          	movsbq %al,%rax
   1441d:	8b 55 fc             	mov    -0x4(%rbp),%edx
   14420:	48 8d 35 4c 30 00 00 	lea    0x304c(%rip),%rsi        # 17473 <g_1416+0x136b>
   14427:	48 89 c7             	mov    %rax,%rdi
   1442a:	e8 c4 32 ff ff       	callq  76f3 <transparent_crc>
   1442f:	0f b6 05 26 6e 00 00 	movzbl 0x6e26(%rip),%eax        # 1b25c <g_1008>
   14436:	0f b6 c0             	movzbl %al,%eax
   14439:	8b 55 fc             	mov    -0x4(%rbp),%edx
   1443c:	48 8d 35 3a 30 00 00 	lea    0x303a(%rip),%rsi        # 1747d <g_1416+0x1375>
   14443:	48 89 c7             	mov    %rax,%rdi
   14446:	e8 a8 32 ff ff       	callq  76f3 <transparent_crc>
   1444b:	0f b7 05 0e 6e 00 00 	movzwl 0x6e0e(%rip),%eax        # 1b260 <g_1016>
   14452:	0f b7 c0             	movzwl %ax,%eax
   14455:	8b 55 fc             	mov    -0x4(%rbp),%edx
   14458:	48 8d 35 28 30 00 00 	lea    0x3028(%rip),%rsi        # 17487 <g_1416+0x137f>
   1445f:	48 89 c7             	mov    %rax,%rdi
   14462:	e8 8c 32 ff ff       	callq  76f3 <transparent_crc>
   14467:	8b 05 f7 6d 00 00    	mov    0x6df7(%rip),%eax        # 1b264 <g_1016+0x4>
   1446d:	48 98                	cltq   
   1446f:	8b 55 fc             	mov    -0x4(%rbp),%edx
   14472:	48 8d 35 18 30 00 00 	lea    0x3018(%rip),%rsi        # 17491 <g_1416+0x1389>
   14479:	48 89 c7             	mov    %rax,%rdi
   1447c:	e8 72 32 ff ff       	callq  76f3 <transparent_crc>
   14481:	8b 05 e1 6d 00 00    	mov    0x6de1(%rip),%eax        # 1b268 <g_1016+0x8>
   14487:	89 c1                	mov    %eax,%ecx
   14489:	8b 45 fc             	mov    -0x4(%rbp),%eax
   1448c:	89 c2                	mov    %eax,%edx
   1448e:	48 8d 35 06 30 00 00 	lea    0x3006(%rip),%rsi        # 1749b <g_1416+0x1393>
   14495:	48 89 cf             	mov    %rcx,%rdi
   14498:	e8 56 32 ff ff       	callq  76f3 <transparent_crc>
   1449d:	0f b7 05 c8 6d 00 00 	movzwl 0x6dc8(%rip),%eax        # 1b26c <g_1016+0xc>
   144a4:	48 0f bf c0          	movswq %ax,%rax
   144a8:	8b 55 fc             	mov    -0x4(%rbp),%edx
   144ab:	48 8d 35 f3 2f 00 00 	lea    0x2ff3(%rip),%rsi        # 174a5 <g_1416+0x139d>
   144b2:	48 89 c7             	mov    %rax,%rdi
   144b5:	e8 39 32 ff ff       	callq  76f3 <transparent_crc>
   144ba:	8b 05 b0 6d 00 00    	mov    0x6db0(%rip),%eax        # 1b270 <g_1016+0x10>
   144c0:	89 c1                	mov    %eax,%ecx
   144c2:	8b 45 fc             	mov    -0x4(%rbp),%eax
   144c5:	89 c2                	mov    %eax,%edx
   144c7:	48 8d 35 e1 2f 00 00 	lea    0x2fe1(%rip),%rsi        # 174af <g_1416+0x13a7>
   144ce:	48 89 cf             	mov    %rcx,%rdi
   144d1:	e8 1d 32 ff ff       	callq  76f3 <transparent_crc>
   144d6:	0f b7 05 a3 6d 00 00 	movzwl 0x6da3(%rip),%eax        # 1b280 <g_1025>
   144dd:	0f b7 c0             	movzwl %ax,%eax
   144e0:	8b 55 fc             	mov    -0x4(%rbp),%edx
   144e3:	48 8d 35 cf 2f 00 00 	lea    0x2fcf(%rip),%rsi        # 174b9 <g_1416+0x13b1>
   144ea:	48 89 c7             	mov    %rax,%rdi
   144ed:	e8 01 32 ff ff       	callq  76f3 <transparent_crc>
   144f2:	8b 05 8c 6d 00 00    	mov    0x6d8c(%rip),%eax        # 1b284 <g_1025+0x4>
   144f8:	48 98                	cltq   
   144fa:	8b 55 fc             	mov    -0x4(%rbp),%edx
   144fd:	48 8d 35 bf 2f 00 00 	lea    0x2fbf(%rip),%rsi        # 174c3 <g_1416+0x13bb>
   14504:	48 89 c7             	mov    %rax,%rdi
   14507:	e8 e7 31 ff ff       	callq  76f3 <transparent_crc>
   1450c:	8b 05 76 6d 00 00    	mov    0x6d76(%rip),%eax        # 1b288 <g_1025+0x8>
   14512:	89 c1                	mov    %eax,%ecx
   14514:	8b 45 fc             	mov    -0x4(%rbp),%eax
   14517:	89 c2                	mov    %eax,%edx
   14519:	48 8d 35 ad 2f 00 00 	lea    0x2fad(%rip),%rsi        # 174cd <g_1416+0x13c5>
   14520:	48 89 cf             	mov    %rcx,%rdi
   14523:	e8 cb 31 ff ff       	callq  76f3 <transparent_crc>
   14528:	0f b7 05 5d 6d 00 00 	movzwl 0x6d5d(%rip),%eax        # 1b28c <g_1025+0xc>
   1452f:	48 0f bf c0          	movswq %ax,%rax
   14533:	8b 55 fc             	mov    -0x4(%rbp),%edx
   14536:	48 8d 35 9a 2f 00 00 	lea    0x2f9a(%rip),%rsi        # 174d7 <g_1416+0x13cf>
   1453d:	48 89 c7             	mov    %rax,%rdi
   14540:	e8 ae 31 ff ff       	callq  76f3 <transparent_crc>
   14545:	8b 05 45 6d 00 00    	mov    0x6d45(%rip),%eax        # 1b290 <g_1025+0x10>
   1454b:	89 c1                	mov    %eax,%ecx
   1454d:	8b 45 fc             	mov    -0x4(%rbp),%eax
   14550:	89 c2                	mov    %eax,%edx
   14552:	48 8d 35 88 2f 00 00 	lea    0x2f88(%rip),%rsi        # 174e1 <g_1416+0x13d9>
   14559:	48 89 cf             	mov    %rcx,%rdi
   1455c:	e8 92 31 ff ff       	callq  76f3 <transparent_crc>
   14561:	0f b7 05 38 6d 00 00 	movzwl 0x6d38(%rip),%eax        # 1b2a0 <g_1027>
   14568:	48 0f bf c0          	movswq %ax,%rax
   1456c:	8b 55 fc             	mov    -0x4(%rbp),%edx
   1456f:	48 8d 35 75 2f 00 00 	lea    0x2f75(%rip),%rsi        # 174eb <g_1416+0x13e3>
   14576:	48 89 c7             	mov    %rax,%rdi
   14579:	e8 75 31 ff ff       	callq  76f3 <transparent_crc>
   1457e:	8b 05 20 6d 00 00    	mov    0x6d20(%rip),%eax        # 1b2a4 <g_1027+0x4>
   14584:	89 c1                	mov    %eax,%ecx
   14586:	8b 45 fc             	mov    -0x4(%rbp),%eax
   14589:	89 c2                	mov    %eax,%edx
   1458b:	48 8d 35 63 2f 00 00 	lea    0x2f63(%rip),%rsi        # 174f5 <g_1416+0x13ed>
   14592:	48 89 cf             	mov    %rcx,%rdi
   14595:	e8 59 31 ff ff       	callq  76f3 <transparent_crc>
   1459a:	8b 05 08 6d 00 00    	mov    0x6d08(%rip),%eax        # 1b2a8 <g_1027+0x8>
   145a0:	48 98                	cltq   
   145a2:	8b 55 fc             	mov    -0x4(%rbp),%edx
   145a5:	48 8d 35 53 2f 00 00 	lea    0x2f53(%rip),%rsi        # 174ff <g_1416+0x13f7>
   145ac:	48 89 c7             	mov    %rax,%rdi
   145af:	e8 3f 31 ff ff       	callq  76f3 <transparent_crc>
   145b4:	8b 05 f2 6c 00 00    	mov    0x6cf2(%rip),%eax        # 1b2ac <g_1027+0xc>
   145ba:	48 98                	cltq   
   145bc:	8b 55 fc             	mov    -0x4(%rbp),%edx
   145bf:	48 8d 35 43 2f 00 00 	lea    0x2f43(%rip),%rsi        # 17509 <g_1416+0x1401>
   145c6:	48 89 c7             	mov    %rax,%rdi
   145c9:	e8 25 31 ff ff       	callq  76f3 <transparent_crc>
   145ce:	0f b6 05 db 6c 00 00 	movzbl 0x6cdb(%rip),%eax        # 1b2b0 <g_1027+0x10>
   145d5:	0f b6 c0             	movzbl %al,%eax
   145d8:	8b 55 fc             	mov    -0x4(%rbp),%edx
   145db:	48 8d 35 31 2f 00 00 	lea    0x2f31(%rip),%rsi        # 17513 <g_1416+0x140b>
   145e2:	48 89 c7             	mov    %rax,%rdi
   145e5:	e8 09 31 ff ff       	callq  76f3 <transparent_crc>
   145ea:	0f b6 05 c0 6c 00 00 	movzbl 0x6cc0(%rip),%eax        # 1b2b1 <g_1027+0x11>
   145f1:	48 0f be c0          	movsbq %al,%rax
   145f5:	8b 55 fc             	mov    -0x4(%rbp),%edx
   145f8:	48 8d 35 1e 2f 00 00 	lea    0x2f1e(%rip),%rsi        # 1751d <g_1416+0x1415>
   145ff:	48 89 c7             	mov    %rax,%rdi
   14602:	e8 ec 30 ff ff       	callq  76f3 <transparent_crc>
   14607:	48 8b 05 aa 6c 00 00 	mov    0x6caa(%rip),%rax        # 1b2b8 <g_1027+0x18>
   1460e:	8b 55 fc             	mov    -0x4(%rbp),%edx
   14611:	48 8d 35 0f 2f 00 00 	lea    0x2f0f(%rip),%rsi        # 17527 <g_1416+0x141f>
   14618:	48 89 c7             	mov    %rax,%rdi
   1461b:	e8 d3 30 ff ff       	callq  76f3 <transparent_crc>
   14620:	48 8b 05 99 6c 00 00 	mov    0x6c99(%rip),%rax        # 1b2c0 <g_1027+0x20>
   14627:	48 89 c1             	mov    %rax,%rcx
   1462a:	8b 45 fc             	mov    -0x4(%rbp),%eax
   1462d:	89 c2                	mov    %eax,%edx
   1462f:	48 8d 35 fb 2e 00 00 	lea    0x2efb(%rip),%rsi        # 17531 <g_1416+0x1429>
   14636:	48 89 cf             	mov    %rcx,%rdi
   14639:	e8 b5 30 ff ff       	callq  76f3 <transparent_crc>
   1463e:	c7 45 f0 00 00 00 00 	movl   $0x0,-0x10(%rbp)
   14645:	e9 b8 00 00 00       	jmpq   14702 <main+0x1773>
   1464a:	c7 45 f4 00 00 00 00 	movl   $0x0,-0xc(%rbp)
   14651:	e9 9e 00 00 00       	jmpq   146f4 <main+0x1765>
   14656:	c7 45 f8 00 00 00 00 	movl   $0x0,-0x8(%rbp)
   1465d:	e9 84 00 00 00       	jmpq   146e6 <main+0x1757>
   14662:	8b 45 f8             	mov    -0x8(%rbp),%eax
   14665:	48 63 f0             	movslq %eax,%rsi
   14668:	8b 45 f0             	mov    -0x10(%rbp),%eax
   1466b:	48 98                	cltq   
   1466d:	8b 55 f4             	mov    -0xc(%rbp),%edx
   14670:	48 63 ca             	movslq %edx,%rcx
   14673:	48 89 c2             	mov    %rax,%rdx
   14676:	48 c1 e2 04          	shl    $0x4,%rdx
   1467a:	48 29 c2             	sub    %rax,%rdx
   1467d:	48 8d 04 95 00 00 00 	lea    0x0(,%rdx,4),%rax
   14684:	00 
   14685:	48 89 c2             	mov    %rax,%rdx
   14688:	48 89 c8             	mov    %rcx,%rax
   1468b:	48 c1 e0 02          	shl    $0x2,%rax
   1468f:	48 01 c8             	add    %rcx,%rax
   14692:	48 01 c0             	add    %rax,%rax
   14695:	48 01 d0             	add    %rdx,%rax
   14698:	48 01 f0             	add    %rsi,%rax
   1469b:	48 8d 14 00          	lea    (%rax,%rax,1),%rdx
   1469f:	48 8d 05 3a 6c 00 00 	lea    0x6c3a(%rip),%rax        # 1b2e0 <g_1033>
   146a6:	0f b7 04 02          	movzwl (%rdx,%rax,1),%eax
   146aa:	48 0f bf c0          	movswq %ax,%rax
   146ae:	8b 55 fc             	mov    -0x4(%rbp),%edx
   146b1:	48 8d 35 83 2e 00 00 	lea    0x2e83(%rip),%rsi        # 1753b <g_1416+0x1433>
   146b8:	48 89 c7             	mov    %rax,%rdi
   146bb:	e8 33 30 ff ff       	callq  76f3 <transparent_crc>
   146c0:	83 7d fc 00          	cmpl   $0x0,-0x4(%rbp)
   146c4:	74 1c                	je     146e2 <main+0x1753>
   146c6:	8b 4d f8             	mov    -0x8(%rbp),%ecx
   146c9:	8b 55 f4             	mov    -0xc(%rbp),%edx
   146cc:	8b 45 f0             	mov    -0x10(%rbp),%eax
   146cf:	89 c6                	mov    %eax,%esi
   146d1:	48 8d 3d 17 29 00 00 	lea    0x2917(%rip),%rdi        # 16fef <g_1416+0xee7>
   146d8:	b8 00 00 00 00       	mov    $0x0,%eax
   146dd:	e8 9e 19 ff ff       	callq  6080 <printf@plt>
   146e2:	83 45 f8 01          	addl   $0x1,-0x8(%rbp)
   146e6:	83 7d f8 09          	cmpl   $0x9,-0x8(%rbp)
   146ea:	0f 8e 72 ff ff ff    	jle    14662 <main+0x16d3>
   146f0:	83 45 f4 01          	addl   $0x1,-0xc(%rbp)
   146f4:	83 7d f4 05          	cmpl   $0x5,-0xc(%rbp)
   146f8:	0f 8e 58 ff ff ff    	jle    14656 <main+0x16c7>
   146fe:	83 45 f0 01          	addl   $0x1,-0x10(%rbp)
   14702:	83 7d f0 01          	cmpl   $0x1,-0x10(%rbp)
   14706:	0f 8e 3e ff ff ff    	jle    1464a <main+0x16bb>
   1470c:	0f b6 05 bd 6c 00 00 	movzbl 0x6cbd(%rip),%eax        # 1b3d0 <g_1076>
   14713:	0f b6 c0             	movzbl %al,%eax
   14716:	8b 55 fc             	mov    -0x4(%rbp),%edx
   14719:	48 8d 35 2b 2e 00 00 	lea    0x2e2b(%rip),%rsi        # 1754b <g_1416+0x1443>
   14720:	48 89 c7             	mov    %rax,%rdi
   14723:	e8 cb 2f ff ff       	callq  76f3 <transparent_crc>
   14728:	0f b7 05 b1 6c 00 00 	movzwl 0x6cb1(%rip),%eax        # 1b3e0 <g_1096>
   1472f:	48 0f bf c0          	movswq %ax,%rax
   14733:	8b 55 fc             	mov    -0x4(%rbp),%edx
   14736:	48 8d 35 15 2e 00 00 	lea    0x2e15(%rip),%rsi        # 17552 <g_1416+0x144a>
   1473d:	48 89 c7             	mov    %rax,%rdi
   14740:	e8 ae 2f ff ff       	callq  76f3 <transparent_crc>
   14745:	8b 05 99 6c 00 00    	mov    0x6c99(%rip),%eax        # 1b3e4 <g_1096+0x4>
   1474b:	89 c1                	mov    %eax,%ecx
   1474d:	8b 45 fc             	mov    -0x4(%rbp),%eax
   14750:	89 c2                	mov    %eax,%edx
   14752:	48 8d 35 03 2e 00 00 	lea    0x2e03(%rip),%rsi        # 1755c <g_1416+0x1454>
   14759:	48 89 cf             	mov    %rcx,%rdi
   1475c:	e8 92 2f ff ff       	callq  76f3 <transparent_crc>
   14761:	8b 05 81 6c 00 00    	mov    0x6c81(%rip),%eax        # 1b3e8 <g_1096+0x8>
   14767:	48 98                	cltq   
   14769:	8b 55 fc             	mov    -0x4(%rbp),%edx
   1476c:	48 8d 35 f3 2d 00 00 	lea    0x2df3(%rip),%rsi        # 17566 <g_1416+0x145e>
   14773:	48 89 c7             	mov    %rax,%rdi
   14776:	e8 78 2f ff ff       	callq  76f3 <transparent_crc>
   1477b:	8b 05 6b 6c 00 00    	mov    0x6c6b(%rip),%eax        # 1b3ec <g_1096+0xc>
   14781:	48 98                	cltq   
   14783:	8b 55 fc             	mov    -0x4(%rbp),%edx
   14786:	48 8d 35 e3 2d 00 00 	lea    0x2de3(%rip),%rsi        # 17570 <g_1416+0x1468>
   1478d:	48 89 c7             	mov    %rax,%rdi
   14790:	e8 5e 2f ff ff       	callq  76f3 <transparent_crc>
   14795:	0f b6 05 54 6c 00 00 	movzbl 0x6c54(%rip),%eax        # 1b3f0 <g_1096+0x10>
   1479c:	0f b6 c0             	movzbl %al,%eax
   1479f:	8b 55 fc             	mov    -0x4(%rbp),%edx
   147a2:	48 8d 35 d1 2d 00 00 	lea    0x2dd1(%rip),%rsi        # 1757a <g_1416+0x1472>
   147a9:	48 89 c7             	mov    %rax,%rdi
   147ac:	e8 42 2f ff ff       	callq  76f3 <transparent_crc>
   147b1:	0f b6 05 39 6c 00 00 	movzbl 0x6c39(%rip),%eax        # 1b3f1 <g_1096+0x11>
   147b8:	48 0f be c0          	movsbq %al,%rax
   147bc:	8b 55 fc             	mov    -0x4(%rbp),%edx
   147bf:	48 8d 35 be 2d 00 00 	lea    0x2dbe(%rip),%rsi        # 17584 <g_1416+0x147c>
   147c6:	48 89 c7             	mov    %rax,%rdi
   147c9:	e8 25 2f ff ff       	callq  76f3 <transparent_crc>
   147ce:	48 8b 05 23 6c 00 00 	mov    0x6c23(%rip),%rax        # 1b3f8 <g_1096+0x18>
   147d5:	8b 55 fc             	mov    -0x4(%rbp),%edx
   147d8:	48 8d 35 af 2d 00 00 	lea    0x2daf(%rip),%rsi        # 1758e <g_1416+0x1486>
   147df:	48 89 c7             	mov    %rax,%rdi
   147e2:	e8 0c 2f ff ff       	callq  76f3 <transparent_crc>
   147e7:	48 8b 05 12 6c 00 00 	mov    0x6c12(%rip),%rax        # 1b400 <g_1096+0x20>
   147ee:	48 89 c1             	mov    %rax,%rcx
   147f1:	8b 45 fc             	mov    -0x4(%rbp),%eax
   147f4:	89 c2                	mov    %eax,%edx
   147f6:	48 8d 35 9b 2d 00 00 	lea    0x2d9b(%rip),%rsi        # 17598 <g_1416+0x1490>
   147fd:	48 89 cf             	mov    %rcx,%rdi
   14800:	e8 ee 2e ff ff       	callq  76f3 <transparent_crc>
   14805:	0f b6 05 fc 6b 00 00 	movzbl 0x6bfc(%rip),%eax        # 1b408 <g_1132>
   1480c:	48 0f be c0          	movsbq %al,%rax
   14810:	8b 55 fc             	mov    -0x4(%rbp),%edx
   14813:	48 8d 35 88 2d 00 00 	lea    0x2d88(%rip),%rsi        # 175a2 <g_1416+0x149a>
   1481a:	48 89 c7             	mov    %rax,%rdi
   1481d:	e8 d1 2e ff ff       	callq  76f3 <transparent_crc>
   14822:	0f b6 05 df 6b 00 00 	movzbl 0x6bdf(%rip),%eax        # 1b408 <g_1132>
   14829:	0f b6 c0             	movzbl %al,%eax
   1482c:	8b 55 fc             	mov    -0x4(%rbp),%edx
   1482f:	48 8d 35 76 2d 00 00 	lea    0x2d76(%rip),%rsi        # 175ac <g_1416+0x14a4>
   14836:	48 89 c7             	mov    %rax,%rdi
   14839:	e8 b5 2e ff ff       	callq  76f3 <transparent_crc>
   1483e:	c7 45 f0 00 00 00 00 	movl   $0x0,-0x10(%rbp)
   14845:	e9 bd 01 00 00       	jmpq   14a07 <main+0x1a78>
   1484a:	c7 45 f4 00 00 00 00 	movl   $0x0,-0xc(%rbp)
   14851:	e9 a3 01 00 00       	jmpq   149f9 <main+0x1a6a>
   14856:	8b 45 f4             	mov    -0xc(%rbp),%eax
   14859:	48 63 d0             	movslq %eax,%rdx
   1485c:	8b 45 f0             	mov    -0x10(%rbp),%eax
   1485f:	48 63 c8             	movslq %eax,%rcx
   14862:	48 89 d0             	mov    %rdx,%rax
   14865:	48 c1 e0 02          	shl    $0x2,%rax
   14869:	48 01 d0             	add    %rdx,%rax
   1486c:	48 c1 e0 02          	shl    $0x2,%rax
   14870:	48 89 ca             	mov    %rcx,%rdx
   14873:	48 c1 e2 04          	shl    $0x4,%rdx
   14877:	48 29 ca             	sub    %rcx,%rdx
   1487a:	48 c1 e2 02          	shl    $0x2,%rdx
   1487e:	48 01 c2             	add    %rax,%rdx
   14881:	48 8d 05 98 6b 00 00 	lea    0x6b98(%rip),%rax        # 1b420 <g_1207>
   14888:	48 01 d0             	add    %rdx,%rax
   1488b:	0f b7 00             	movzwl (%rax),%eax
   1488e:	0f b7 c0             	movzwl %ax,%eax
   14891:	8b 55 fc             	mov    -0x4(%rbp),%edx
   14894:	48 8d 35 1b 2d 00 00 	lea    0x2d1b(%rip),%rsi        # 175b6 <g_1416+0x14ae>
   1489b:	48 89 c7             	mov    %rax,%rdi
   1489e:	e8 50 2e ff ff       	callq  76f3 <transparent_crc>
   148a3:	8b 45 f4             	mov    -0xc(%rbp),%eax
   148a6:	48 63 d0             	movslq %eax,%rdx
   148a9:	8b 45 f0             	mov    -0x10(%rbp),%eax
   148ac:	48 63 c8             	movslq %eax,%rcx
   148af:	48 89 d0             	mov    %rdx,%rax
   148b2:	48 c1 e0 02          	shl    $0x2,%rax
   148b6:	48 01 d0             	add    %rdx,%rax
   148b9:	48 c1 e0 02          	shl    $0x2,%rax
   148bd:	48 89 ca             	mov    %rcx,%rdx
   148c0:	48 c1 e2 04          	shl    $0x4,%rdx
   148c4:	48 29 ca             	sub    %rcx,%rdx
   148c7:	48 c1 e2 02          	shl    $0x2,%rdx
   148cb:	48 01 c2             	add    %rax,%rdx
   148ce:	48 8d 05 4f 6b 00 00 	lea    0x6b4f(%rip),%rax        # 1b424 <g_1207+0x4>
   148d5:	48 01 d0             	add    %rdx,%rax
   148d8:	8b 00                	mov    (%rax),%eax
   148da:	48 98                	cltq   
   148dc:	8b 55 fc             	mov    -0x4(%rbp),%edx
   148df:	48 8d 35 e0 2c 00 00 	lea    0x2ce0(%rip),%rsi        # 175c6 <g_1416+0x14be>
   148e6:	48 89 c7             	mov    %rax,%rdi
   148e9:	e8 05 2e ff ff       	callq  76f3 <transparent_crc>
   148ee:	8b 45 f4             	mov    -0xc(%rbp),%eax
   148f1:	48 63 d0             	movslq %eax,%rdx
   148f4:	8b 45 f0             	mov    -0x10(%rbp),%eax
   148f7:	48 63 c8             	movslq %eax,%rcx
   148fa:	48 89 d0             	mov    %rdx,%rax
   148fd:	48 c1 e0 02          	shl    $0x2,%rax
   14901:	48 01 d0             	add    %rdx,%rax
   14904:	48 c1 e0 02          	shl    $0x2,%rax
   14908:	48 89 ca             	mov    %rcx,%rdx
   1490b:	48 c1 e2 04          	shl    $0x4,%rdx
   1490f:	48 29 ca             	sub    %rcx,%rdx
   14912:	48 c1 e2 02          	shl    $0x2,%rdx
   14916:	48 01 c2             	add    %rax,%rdx
   14919:	48 8d 05 08 6b 00 00 	lea    0x6b08(%rip),%rax        # 1b428 <g_1207+0x8>
   14920:	48 01 d0             	add    %rdx,%rax
   14923:	8b 00                	mov    (%rax),%eax
   14925:	89 c1                	mov    %eax,%ecx
   14927:	8b 45 fc             	mov    -0x4(%rbp),%eax
   1492a:	89 c2                	mov    %eax,%edx
   1492c:	48 8d 35 a3 2c 00 00 	lea    0x2ca3(%rip),%rsi        # 175d6 <g_1416+0x14ce>
   14933:	48 89 cf             	mov    %rcx,%rdi
   14936:	e8 b8 2d ff ff       	callq  76f3 <transparent_crc>
   1493b:	8b 45 f4             	mov    -0xc(%rbp),%eax
   1493e:	48 63 d0             	movslq %eax,%rdx
   14941:	8b 45 f0             	mov    -0x10(%rbp),%eax
   14944:	48 63 c8             	movslq %eax,%rcx
   14947:	48 89 d0             	mov    %rdx,%rax
   1494a:	48 c1 e0 02          	shl    $0x2,%rax
   1494e:	48 01 d0             	add    %rdx,%rax
   14951:	48 c1 e0 02          	shl    $0x2,%rax
   14955:	48 89 ca             	mov    %rcx,%rdx
   14958:	48 c1 e2 04          	shl    $0x4,%rdx
   1495c:	48 29 ca             	sub    %rcx,%rdx
   1495f:	48 c1 e2 02          	shl    $0x2,%rdx
   14963:	48 01 c2             	add    %rax,%rdx
   14966:	48 8d 05 bf 6a 00 00 	lea    0x6abf(%rip),%rax        # 1b42c <g_1207+0xc>
   1496d:	48 01 d0             	add    %rdx,%rax
   14970:	0f b7 00             	movzwl (%rax),%eax
   14973:	48 0f bf c0          	movswq %ax,%rax
   14977:	8b 55 fc             	mov    -0x4(%rbp),%edx
   1497a:	48 8d 35 65 2c 00 00 	lea    0x2c65(%rip),%rsi        # 175e6 <g_1416+0x14de>
   14981:	48 89 c7             	mov    %rax,%rdi
   14984:	e8 6a 2d ff ff       	callq  76f3 <transparent_crc>
   14989:	8b 45 f4             	mov    -0xc(%rbp),%eax
   1498c:	48 63 d0             	movslq %eax,%rdx
   1498f:	8b 45 f0             	mov    -0x10(%rbp),%eax
   14992:	48 63 c8             	movslq %eax,%rcx
   14995:	48 89 d0             	mov    %rdx,%rax
   14998:	48 c1 e0 02          	shl    $0x2,%rax
   1499c:	48 01 d0             	add    %rdx,%rax
   1499f:	48 c1 e0 02          	shl    $0x2,%rax
   149a3:	48 89 ca             	mov    %rcx,%rdx
   149a6:	48 c1 e2 04          	shl    $0x4,%rdx
   149aa:	48 29 ca             	sub    %rcx,%rdx
   149ad:	48 c1 e2 02          	shl    $0x2,%rdx
   149b1:	48 01 c2             	add    %rax,%rdx
   149b4:	48 8d 05 75 6a 00 00 	lea    0x6a75(%rip),%rax        # 1b430 <g_1207+0x10>
   149bb:	48 01 d0             	add    %rdx,%rax
   149be:	8b 00                	mov    (%rax),%eax
   149c0:	89 c1                	mov    %eax,%ecx
   149c2:	8b 45 fc             	mov    -0x4(%rbp),%eax
   149c5:	89 c2                	mov    %eax,%edx
   149c7:	48 8d 35 28 2c 00 00 	lea    0x2c28(%rip),%rsi        # 175f6 <g_1416+0x14ee>
   149ce:	48 89 cf             	mov    %rcx,%rdi
   149d1:	e8 1d 2d ff ff       	callq  76f3 <transparent_crc>
   149d6:	83 7d fc 00          	cmpl   $0x0,-0x4(%rbp)
   149da:	74 19                	je     149f5 <main+0x1a66>
   149dc:	8b 55 f4             	mov    -0xc(%rbp),%edx
   149df:	8b 45 f0             	mov    -0x10(%rbp),%eax
   149e2:	89 c6                	mov    %eax,%esi
   149e4:	48 8d 3d e1 25 00 00 	lea    0x25e1(%rip),%rdi        # 16fcc <g_1416+0xec4>
   149eb:	b8 00 00 00 00       	mov    $0x0,%eax
   149f0:	e8 8b 16 ff ff       	callq  6080 <printf@plt>
   149f5:	83 45 f4 01          	addl   $0x1,-0xc(%rbp)
   149f9:	83 7d f4 02          	cmpl   $0x2,-0xc(%rbp)
   149fd:	0f 8e 53 fe ff ff    	jle    14856 <main+0x18c7>
   14a03:	83 45 f0 01          	addl   $0x1,-0x10(%rbp)
   14a07:	83 7d f0 07          	cmpl   $0x7,-0x10(%rbp)
   14a0b:	0f 8e 39 fe ff ff    	jle    1484a <main+0x18bb>
   14a11:	8b 05 e9 6b 00 00    	mov    0x6be9(%rip),%eax        # 1b600 <g_1258>
   14a17:	48 98                	cltq   
   14a19:	8b 55 fc             	mov    -0x4(%rbp),%edx
   14a1c:	48 8d 35 e3 2b 00 00 	lea    0x2be3(%rip),%rsi        # 17606 <g_1416+0x14fe>
   14a23:	48 89 c7             	mov    %rax,%rdi
   14a26:	e8 c8 2c ff ff       	callq  76f3 <transparent_crc>
   14a2b:	8b 05 d3 6b 00 00    	mov    0x6bd3(%rip),%eax        # 1b604 <g_1258+0x4>
   14a31:	89 c1                	mov    %eax,%ecx
   14a33:	8b 45 fc             	mov    -0x4(%rbp),%eax
   14a36:	89 c2                	mov    %eax,%edx
   14a38:	48 8d 35 d1 2b 00 00 	lea    0x2bd1(%rip),%rsi        # 17610 <g_1416+0x1508>
   14a3f:	48 89 cf             	mov    %rcx,%rdi
   14a42:	e8 ac 2c ff ff       	callq  76f3 <transparent_crc>
   14a47:	48 8b 05 ba 6b 00 00 	mov    0x6bba(%rip),%rax        # 1b608 <g_1258+0x8>
   14a4e:	48 89 c1             	mov    %rax,%rcx
   14a51:	8b 45 fc             	mov    -0x4(%rbp),%eax
   14a54:	89 c2                	mov    %eax,%edx
   14a56:	48 8d 35 bd 2b 00 00 	lea    0x2bbd(%rip),%rsi        # 1761a <g_1416+0x1512>
   14a5d:	48 89 cf             	mov    %rcx,%rdi
   14a60:	e8 8e 2c ff ff       	callq  76f3 <transparent_crc>
   14a65:	8b 05 a5 6b 00 00    	mov    0x6ba5(%rip),%eax        # 1b610 <g_1258+0x10>
   14a6b:	89 c1                	mov    %eax,%ecx
   14a6d:	8b 45 fc             	mov    -0x4(%rbp),%eax
   14a70:	89 c2                	mov    %eax,%edx
   14a72:	48 8d 35 ab 2b 00 00 	lea    0x2bab(%rip),%rsi        # 17624 <g_1416+0x151c>
   14a79:	48 89 cf             	mov    %rcx,%rdi
   14a7c:	e8 72 2c ff ff       	callq  76f3 <transparent_crc>
   14a81:	8b 05 8d 6b 00 00    	mov    0x6b8d(%rip),%eax        # 1b614 <g_1258+0x14>
   14a87:	48 98                	cltq   
   14a89:	8b 55 fc             	mov    -0x4(%rbp),%edx
   14a8c:	48 8d 35 9b 2b 00 00 	lea    0x2b9b(%rip),%rsi        # 1762e <g_1416+0x1526>
   14a93:	48 89 c7             	mov    %rax,%rdi
   14a96:	e8 58 2c ff ff       	callq  76f3 <transparent_crc>
   14a9b:	0f b6 05 6e 96 00 00 	movzbl 0x966e(%rip),%eax        # 1e110 <g_1263>
   14aa2:	48 0f be c0          	movsbq %al,%rax
   14aa6:	8b 55 fc             	mov    -0x4(%rbp),%edx
   14aa9:	48 8d 35 88 2b 00 00 	lea    0x2b88(%rip),%rsi        # 17638 <g_1416+0x1530>
   14ab0:	48 89 c7             	mov    %rax,%rdi
   14ab3:	e8 3b 2c ff ff       	callq  76f3 <transparent_crc>
   14ab8:	0f b6 05 51 96 00 00 	movzbl 0x9651(%rip),%eax        # 1e110 <g_1263>
   14abf:	0f b6 c0             	movzbl %al,%eax
   14ac2:	8b 55 fc             	mov    -0x4(%rbp),%edx
   14ac5:	48 8d 35 76 2b 00 00 	lea    0x2b76(%rip),%rsi        # 17642 <g_1416+0x153a>
   14acc:	48 89 c7             	mov    %rax,%rdi
   14acf:	e8 1f 2c ff ff       	callq  76f3 <transparent_crc>
   14ad4:	0f b7 05 45 6b 00 00 	movzwl 0x6b45(%rip),%eax        # 1b620 <g_1264>
   14adb:	48 0f bf c0          	movswq %ax,%rax
   14adf:	8b 55 fc             	mov    -0x4(%rbp),%edx
   14ae2:	48 8d 35 63 2b 00 00 	lea    0x2b63(%rip),%rsi        # 1764c <g_1416+0x1544>
   14ae9:	48 89 c7             	mov    %rax,%rdi
   14aec:	e8 02 2c ff ff       	callq  76f3 <transparent_crc>
   14af1:	8b 05 2d 6b 00 00    	mov    0x6b2d(%rip),%eax        # 1b624 <g_1264+0x4>
   14af7:	89 c1                	mov    %eax,%ecx
   14af9:	8b 45 fc             	mov    -0x4(%rbp),%eax
   14afc:	89 c2                	mov    %eax,%edx
   14afe:	48 8d 35 51 2b 00 00 	lea    0x2b51(%rip),%rsi        # 17656 <g_1416+0x154e>
   14b05:	48 89 cf             	mov    %rcx,%rdi
   14b08:	e8 e6 2b ff ff       	callq  76f3 <transparent_crc>
   14b0d:	8b 05 15 6b 00 00    	mov    0x6b15(%rip),%eax        # 1b628 <g_1264+0x8>
   14b13:	48 98                	cltq   
   14b15:	8b 55 fc             	mov    -0x4(%rbp),%edx
   14b18:	48 8d 35 41 2b 00 00 	lea    0x2b41(%rip),%rsi        # 17660 <g_1416+0x1558>
   14b1f:	48 89 c7             	mov    %rax,%rdi
   14b22:	e8 cc 2b ff ff       	callq  76f3 <transparent_crc>
   14b27:	8b 05 ff 6a 00 00    	mov    0x6aff(%rip),%eax        # 1b62c <g_1264+0xc>
   14b2d:	48 98                	cltq   
   14b2f:	8b 55 fc             	mov    -0x4(%rbp),%edx
   14b32:	48 8d 35 31 2b 00 00 	lea    0x2b31(%rip),%rsi        # 1766a <g_1416+0x1562>
   14b39:	48 89 c7             	mov    %rax,%rdi
   14b3c:	e8 b2 2b ff ff       	callq  76f3 <transparent_crc>
   14b41:	0f b6 05 e8 6a 00 00 	movzbl 0x6ae8(%rip),%eax        # 1b630 <g_1264+0x10>
   14b48:	0f b6 c0             	movzbl %al,%eax
   14b4b:	8b 55 fc             	mov    -0x4(%rbp),%edx
   14b4e:	48 8d 35 1f 2b 00 00 	lea    0x2b1f(%rip),%rsi        # 17674 <g_1416+0x156c>
   14b55:	48 89 c7             	mov    %rax,%rdi
   14b58:	e8 96 2b ff ff       	callq  76f3 <transparent_crc>
   14b5d:	0f b6 05 cd 6a 00 00 	movzbl 0x6acd(%rip),%eax        # 1b631 <g_1264+0x11>
   14b64:	48 0f be c0          	movsbq %al,%rax
   14b68:	8b 55 fc             	mov    -0x4(%rbp),%edx
   14b6b:	48 8d 35 0c 2b 00 00 	lea    0x2b0c(%rip),%rsi        # 1767e <g_1416+0x1576>
   14b72:	48 89 c7             	mov    %rax,%rdi
   14b75:	e8 79 2b ff ff       	callq  76f3 <transparent_crc>
   14b7a:	48 8b 05 b7 6a 00 00 	mov    0x6ab7(%rip),%rax        # 1b638 <g_1264+0x18>
   14b81:	8b 55 fc             	mov    -0x4(%rbp),%edx
   14b84:	48 8d 35 fd 2a 00 00 	lea    0x2afd(%rip),%rsi        # 17688 <g_1416+0x1580>
   14b8b:	48 89 c7             	mov    %rax,%rdi
   14b8e:	e8 60 2b ff ff       	callq  76f3 <transparent_crc>
   14b93:	48 8b 05 a6 6a 00 00 	mov    0x6aa6(%rip),%rax        # 1b640 <g_1264+0x20>
   14b9a:	48 89 c1             	mov    %rax,%rcx
   14b9d:	8b 45 fc             	mov    -0x4(%rbp),%eax
   14ba0:	89 c2                	mov    %eax,%edx
   14ba2:	48 8d 35 e9 2a 00 00 	lea    0x2ae9(%rip),%rsi        # 17692 <g_1416+0x158a>
   14ba9:	48 89 cf             	mov    %rcx,%rdi
   14bac:	e8 42 2b ff ff       	callq  76f3 <transparent_crc>
   14bb1:	8b 05 69 95 00 00    	mov    0x9569(%rip),%eax        # 1e120 <g_1334>
   14bb7:	89 c1                	mov    %eax,%ecx
   14bb9:	8b 45 fc             	mov    -0x4(%rbp),%eax
   14bbc:	89 c2                	mov    %eax,%edx
   14bbe:	48 8d 35 d7 2a 00 00 	lea    0x2ad7(%rip),%rsi        # 1769c <g_1416+0x1594>
   14bc5:	48 89 cf             	mov    %rcx,%rdi
   14bc8:	e8 26 2b ff ff       	callq  76f3 <transparent_crc>
   14bcd:	0f b7 05 7c 6a 00 00 	movzwl 0x6a7c(%rip),%eax        # 1b650 <g_1391>
   14bd4:	0f b7 c0             	movzwl %ax,%eax
   14bd7:	8b 55 fc             	mov    -0x4(%rbp),%edx
   14bda:	48 8d 35 c2 2a 00 00 	lea    0x2ac2(%rip),%rsi        # 176a3 <g_1416+0x159b>
   14be1:	48 89 c7             	mov    %rax,%rdi
   14be4:	e8 0a 2b ff ff       	callq  76f3 <transparent_crc>
   14be9:	8b 05 65 6a 00 00    	mov    0x6a65(%rip),%eax        # 1b654 <g_1391+0x4>
   14bef:	48 98                	cltq   
   14bf1:	8b 55 fc             	mov    -0x4(%rbp),%edx
   14bf4:	48 8d 35 b2 2a 00 00 	lea    0x2ab2(%rip),%rsi        # 176ad <g_1416+0x15a5>
   14bfb:	48 89 c7             	mov    %rax,%rdi
   14bfe:	e8 f0 2a ff ff       	callq  76f3 <transparent_crc>
   14c03:	8b 05 4f 6a 00 00    	mov    0x6a4f(%rip),%eax        # 1b658 <g_1391+0x8>
   14c09:	89 c1                	mov    %eax,%ecx
   14c0b:	8b 45 fc             	mov    -0x4(%rbp),%eax
   14c0e:	89 c2                	mov    %eax,%edx
   14c10:	48 8d 35 a0 2a 00 00 	lea    0x2aa0(%rip),%rsi        # 176b7 <g_1416+0x15af>
   14c17:	48 89 cf             	mov    %rcx,%rdi
   14c1a:	e8 d4 2a ff ff       	callq  76f3 <transparent_crc>
   14c1f:	0f b7 05 36 6a 00 00 	movzwl 0x6a36(%rip),%eax        # 1b65c <g_1391+0xc>
   14c26:	48 0f bf c0          	movswq %ax,%rax
   14c2a:	8b 55 fc             	mov    -0x4(%rbp),%edx
   14c2d:	48 8d 35 8d 2a 00 00 	lea    0x2a8d(%rip),%rsi        # 176c1 <g_1416+0x15b9>
   14c34:	48 89 c7             	mov    %rax,%rdi
   14c37:	e8 b7 2a ff ff       	callq  76f3 <transparent_crc>
   14c3c:	8b 05 1e 6a 00 00    	mov    0x6a1e(%rip),%eax        # 1b660 <g_1391+0x10>
   14c42:	89 c1                	mov    %eax,%ecx
   14c44:	8b 45 fc             	mov    -0x4(%rbp),%eax
   14c47:	89 c2                	mov    %eax,%edx
   14c49:	48 8d 35 7b 2a 00 00 	lea    0x2a7b(%rip),%rsi        # 176cb <g_1416+0x15c3>
   14c50:	48 89 cf             	mov    %rcx,%rdi
   14c53:	e8 9b 2a ff ff       	callq  76f3 <transparent_crc>
   14c58:	c7 45 f0 00 00 00 00 	movl   $0x0,-0x10(%rbp)
   14c5f:	eb 49                	jmp    14caa <main+0x1d1b>
   14c61:	8b 45 f0             	mov    -0x10(%rbp),%eax
   14c64:	48 98                	cltq   
   14c66:	48 8d 14 00          	lea    (%rax,%rax,1),%rdx
   14c6a:	48 8d 05 f7 69 00 00 	lea    0x69f7(%rip),%rax        # 1b668 <g_1415>
   14c71:	0f b7 04 02          	movzwl (%rdx,%rax,1),%eax
   14c75:	0f b7 c0             	movzwl %ax,%eax
   14c78:	8b 55 fc             	mov    -0x4(%rbp),%edx
   14c7b:	48 8d 35 53 2a 00 00 	lea    0x2a53(%rip),%rsi        # 176d5 <g_1416+0x15cd>
   14c82:	48 89 c7             	mov    %rax,%rdi
   14c85:	e8 69 2a ff ff       	callq  76f3 <transparent_crc>
   14c8a:	83 7d fc 00          	cmpl   $0x0,-0x4(%rbp)
   14c8e:	74 16                	je     14ca6 <main+0x1d17>
   14c90:	8b 45 f0             	mov    -0x10(%rbp),%eax
   14c93:	89 c6                	mov    %eax,%esi
   14c95:	48 8d 3d 41 24 00 00 	lea    0x2441(%rip),%rdi        # 170dd <g_1416+0xfd5>
   14c9c:	b8 00 00 00 00       	mov    $0x0,%eax
   14ca1:	e8 da 13 ff ff       	callq  6080 <printf@plt>
   14ca6:	83 45 f0 01          	addl   $0x1,-0x10(%rbp)
   14caa:	83 7d f0 03          	cmpl   $0x3,-0x10(%rbp)
   14cae:	7e b1                	jle    14c61 <main+0x1cd2>
   14cb0:	48 b9 21 8b 5b 7a 0c 	movabs $0xf6d6a90c7a5b8b21,%rcx
   14cb7:	a9 d6 f6 
   14cba:	8b 45 fc             	mov    -0x4(%rbp),%eax
   14cbd:	89 c2                	mov    %eax,%edx
   14cbf:	48 8d 35 19 2a 00 00 	lea    0x2a19(%rip),%rsi        # 176df <g_1416+0x15d7>
   14cc6:	48 89 cf             	mov    %rcx,%rdi
   14cc9:	e8 25 2a ff ff       	callq  76f3 <transparent_crc>
   14cce:	8b 05 9c 69 00 00    	mov    0x699c(%rip),%eax        # 1b670 <g_1450>
   14cd4:	48 98                	cltq   
   14cd6:	8b 55 fc             	mov    -0x4(%rbp),%edx
   14cd9:	48 8d 35 06 2a 00 00 	lea    0x2a06(%rip),%rsi        # 176e6 <g_1416+0x15de>
   14ce0:	48 89 c7             	mov    %rax,%rdi
   14ce3:	e8 0b 2a ff ff       	callq  76f3 <transparent_crc>
   14ce8:	0f b6 05 85 69 00 00 	movzbl 0x6985(%rip),%eax        # 1b674 <g_1536>
   14cef:	48 0f be c0          	movsbq %al,%rax
   14cf3:	8b 55 fc             	mov    -0x4(%rbp),%edx
   14cf6:	48 8d 35 f0 29 00 00 	lea    0x29f0(%rip),%rsi        # 176ed <g_1416+0x15e5>
   14cfd:	48 89 c7             	mov    %rax,%rdi
   14d00:	e8 ee 29 ff ff       	callq  76f3 <transparent_crc>
   14d05:	0f b7 05 74 69 00 00 	movzwl 0x6974(%rip),%eax        # 1b680 <g_1563>
   14d0c:	0f b7 c0             	movzwl %ax,%eax
   14d0f:	8b 55 fc             	mov    -0x4(%rbp),%edx
   14d12:	48 8d 35 db 29 00 00 	lea    0x29db(%rip),%rsi        # 176f4 <g_1416+0x15ec>
   14d19:	48 89 c7             	mov    %rax,%rdi
   14d1c:	e8 d2 29 ff ff       	callq  76f3 <transparent_crc>
   14d21:	8b 05 5d 69 00 00    	mov    0x695d(%rip),%eax        # 1b684 <g_1563+0x4>
   14d27:	48 98                	cltq   
   14d29:	8b 55 fc             	mov    -0x4(%rbp),%edx
   14d2c:	48 8d 35 cb 29 00 00 	lea    0x29cb(%rip),%rsi        # 176fe <g_1416+0x15f6>
   14d33:	48 89 c7             	mov    %rax,%rdi
   14d36:	e8 b8 29 ff ff       	callq  76f3 <transparent_crc>
   14d3b:	8b 05 47 69 00 00    	mov    0x6947(%rip),%eax        # 1b688 <g_1563+0x8>
   14d41:	89 c1                	mov    %eax,%ecx
   14d43:	8b 45 fc             	mov    -0x4(%rbp),%eax
   14d46:	89 c2                	mov    %eax,%edx
   14d48:	48 8d 35 b9 29 00 00 	lea    0x29b9(%rip),%rsi        # 17708 <g_1416+0x1600>
   14d4f:	48 89 cf             	mov    %rcx,%rdi
   14d52:	e8 9c 29 ff ff       	callq  76f3 <transparent_crc>
   14d57:	0f b7 05 2e 69 00 00 	movzwl 0x692e(%rip),%eax        # 1b68c <g_1563+0xc>
   14d5e:	48 0f bf c0          	movswq %ax,%rax
   14d62:	8b 55 fc             	mov    -0x4(%rbp),%edx
   14d65:	48 8d 35 a6 29 00 00 	lea    0x29a6(%rip),%rsi        # 17712 <g_1416+0x160a>
   14d6c:	48 89 c7             	mov    %rax,%rdi
   14d6f:	e8 7f 29 ff ff       	callq  76f3 <transparent_crc>
   14d74:	8b 05 16 69 00 00    	mov    0x6916(%rip),%eax        # 1b690 <g_1563+0x10>
   14d7a:	89 c1                	mov    %eax,%ecx
   14d7c:	8b 45 fc             	mov    -0x4(%rbp),%eax
   14d7f:	89 c2                	mov    %eax,%edx
   14d81:	48 8d 35 94 29 00 00 	lea    0x2994(%rip),%rsi        # 1771c <g_1416+0x1614>
   14d88:	48 89 cf             	mov    %rcx,%rdi
   14d8b:	e8 63 29 ff ff       	callq  76f3 <transparent_crc>
   14d90:	0f b7 05 09 69 00 00 	movzwl 0x6909(%rip),%eax        # 1b6a0 <g_1620>
   14d97:	48 0f bf c0          	movswq %ax,%rax
   14d9b:	8b 55 fc             	mov    -0x4(%rbp),%edx
   14d9e:	48 8d 35 81 29 00 00 	lea    0x2981(%rip),%rsi        # 17726 <g_1416+0x161e>
   14da5:	48 89 c7             	mov    %rax,%rdi
   14da8:	e8 46 29 ff ff       	callq  76f3 <transparent_crc>
   14dad:	8b 05 f1 68 00 00    	mov    0x68f1(%rip),%eax        # 1b6a4 <g_1620+0x4>
   14db3:	89 c1                	mov    %eax,%ecx
   14db5:	8b 45 fc             	mov    -0x4(%rbp),%eax
   14db8:	89 c2                	mov    %eax,%edx
   14dba:	48 8d 35 6f 29 00 00 	lea    0x296f(%rip),%rsi        # 17730 <g_1416+0x1628>
   14dc1:	48 89 cf             	mov    %rcx,%rdi
   14dc4:	e8 2a 29 ff ff       	callq  76f3 <transparent_crc>
   14dc9:	8b 05 d9 68 00 00    	mov    0x68d9(%rip),%eax        # 1b6a8 <g_1620+0x8>
   14dcf:	48 98                	cltq   
   14dd1:	8b 55 fc             	mov    -0x4(%rbp),%edx
   14dd4:	48 8d 35 5f 29 00 00 	lea    0x295f(%rip),%rsi        # 1773a <g_1416+0x1632>
   14ddb:	48 89 c7             	mov    %rax,%rdi
   14dde:	e8 10 29 ff ff       	callq  76f3 <transparent_crc>
   14de3:	8b 05 c3 68 00 00    	mov    0x68c3(%rip),%eax        # 1b6ac <g_1620+0xc>
   14de9:	48 98                	cltq   
   14deb:	8b 55 fc             	mov    -0x4(%rbp),%edx
   14dee:	48 8d 35 4f 29 00 00 	lea    0x294f(%rip),%rsi        # 17744 <g_1416+0x163c>
   14df5:	48 89 c7             	mov    %rax,%rdi
   14df8:	e8 f6 28 ff ff       	callq  76f3 <transparent_crc>
   14dfd:	0f b6 05 ac 68 00 00 	movzbl 0x68ac(%rip),%eax        # 1b6b0 <g_1620+0x10>
   14e04:	0f b6 c0             	movzbl %al,%eax
   14e07:	8b 55 fc             	mov    -0x4(%rbp),%edx
   14e0a:	48 8d 35 3d 29 00 00 	lea    0x293d(%rip),%rsi        # 1774e <g_1416+0x1646>
   14e11:	48 89 c7             	mov    %rax,%rdi
   14e14:	e8 da 28 ff ff       	callq  76f3 <transparent_crc>
   14e19:	0f b6 05 91 68 00 00 	movzbl 0x6891(%rip),%eax        # 1b6b1 <g_1620+0x11>
   14e20:	48 0f be c0          	movsbq %al,%rax
   14e24:	8b 55 fc             	mov    -0x4(%rbp),%edx
   14e27:	48 8d 35 2a 29 00 00 	lea    0x292a(%rip),%rsi        # 17758 <g_1416+0x1650>
   14e2e:	48 89 c7             	mov    %rax,%rdi
   14e31:	e8 bd 28 ff ff       	callq  76f3 <transparent_crc>
   14e36:	48 8b 05 7b 68 00 00 	mov    0x687b(%rip),%rax        # 1b6b8 <g_1620+0x18>
   14e3d:	8b 55 fc             	mov    -0x4(%rbp),%edx
   14e40:	48 8d 35 1b 29 00 00 	lea    0x291b(%rip),%rsi        # 17762 <g_1416+0x165a>
   14e47:	48 89 c7             	mov    %rax,%rdi
   14e4a:	e8 a4 28 ff ff       	callq  76f3 <transparent_crc>
   14e4f:	48 8b 05 6a 68 00 00 	mov    0x686a(%rip),%rax        # 1b6c0 <g_1620+0x20>
   14e56:	48 89 c1             	mov    %rax,%rcx
   14e59:	8b 45 fc             	mov    -0x4(%rbp),%eax
   14e5c:	89 c2                	mov    %eax,%edx
   14e5e:	48 8d 35 07 29 00 00 	lea    0x2907(%rip),%rsi        # 1776c <g_1416+0x1664>
   14e65:	48 89 cf             	mov    %rcx,%rdi
   14e68:	e8 86 28 ff ff       	callq  76f3 <transparent_crc>
   14e6d:	8b 05 5d 68 00 00    	mov    0x685d(%rip),%eax        # 1b6d0 <g_1623>
   14e73:	48 98                	cltq   
   14e75:	8b 55 fc             	mov    -0x4(%rbp),%edx
   14e78:	48 8d 35 f7 28 00 00 	lea    0x28f7(%rip),%rsi        # 17776 <g_1416+0x166e>
   14e7f:	48 89 c7             	mov    %rax,%rdi
   14e82:	e8 6c 28 ff ff       	callq  76f3 <transparent_crc>
   14e87:	8b 05 47 68 00 00    	mov    0x6847(%rip),%eax        # 1b6d4 <g_1623+0x4>
   14e8d:	89 c1                	mov    %eax,%ecx
   14e8f:	8b 45 fc             	mov    -0x4(%rbp),%eax
   14e92:	89 c2                	mov    %eax,%edx
   14e94:	48 8d 35 e5 28 00 00 	lea    0x28e5(%rip),%rsi        # 17780 <g_1416+0x1678>
   14e9b:	48 89 cf             	mov    %rcx,%rdi
   14e9e:	e8 50 28 ff ff       	callq  76f3 <transparent_crc>
   14ea3:	48 8b 05 2e 68 00 00 	mov    0x682e(%rip),%rax        # 1b6d8 <g_1623+0x8>
   14eaa:	48 89 c1             	mov    %rax,%rcx
   14ead:	8b 45 fc             	mov    -0x4(%rbp),%eax
   14eb0:	89 c2                	mov    %eax,%edx
   14eb2:	48 8d 35 d1 28 00 00 	lea    0x28d1(%rip),%rsi        # 1778a <g_1416+0x1682>
   14eb9:	48 89 cf             	mov    %rcx,%rdi
   14ebc:	e8 32 28 ff ff       	callq  76f3 <transparent_crc>
   14ec1:	8b 05 19 68 00 00    	mov    0x6819(%rip),%eax        # 1b6e0 <g_1623+0x10>
   14ec7:	89 c1                	mov    %eax,%ecx
   14ec9:	8b 45 fc             	mov    -0x4(%rbp),%eax
   14ecc:	89 c2                	mov    %eax,%edx
   14ece:	48 8d 35 bf 28 00 00 	lea    0x28bf(%rip),%rsi        # 17794 <g_1416+0x168c>
   14ed5:	48 89 cf             	mov    %rcx,%rdi
   14ed8:	e8 16 28 ff ff       	callq  76f3 <transparent_crc>
   14edd:	8b 05 01 68 00 00    	mov    0x6801(%rip),%eax        # 1b6e4 <g_1623+0x14>
   14ee3:	48 98                	cltq   
   14ee5:	8b 55 fc             	mov    -0x4(%rbp),%edx
   14ee8:	48 8d 35 af 28 00 00 	lea    0x28af(%rip),%rsi        # 1779e <g_1416+0x1696>
   14eef:	48 89 c7             	mov    %rax,%rdi
   14ef2:	e8 fc 27 ff ff       	callq  76f3 <transparent_crc>
   14ef7:	8b 05 eb 67 00 00    	mov    0x67eb(%rip),%eax        # 1b6e8 <g_1632>
   14efd:	89 c1                	mov    %eax,%ecx
   14eff:	8b 45 fc             	mov    -0x4(%rbp),%eax
   14f02:	89 c2                	mov    %eax,%edx
   14f04:	48 8d 35 9d 28 00 00 	lea    0x289d(%rip),%rsi        # 177a8 <g_1416+0x16a0>
   14f0b:	48 89 cf             	mov    %rcx,%rdi
   14f0e:	e8 e0 27 ff ff       	callq  76f3 <transparent_crc>
   14f13:	0f b7 05 e6 67 00 00 	movzwl 0x67e6(%rip),%eax        # 1b700 <g_1633>
   14f1a:	48 0f bf c0          	movswq %ax,%rax
   14f1e:	8b 55 fc             	mov    -0x4(%rbp),%edx
   14f21:	48 8d 35 87 28 00 00 	lea    0x2887(%rip),%rsi        # 177af <g_1416+0x16a7>
   14f28:	48 89 c7             	mov    %rax,%rdi
   14f2b:	e8 c3 27 ff ff       	callq  76f3 <transparent_crc>
   14f30:	8b 05 ce 67 00 00    	mov    0x67ce(%rip),%eax        # 1b704 <g_1633+0x4>
   14f36:	89 c1                	mov    %eax,%ecx
   14f38:	8b 45 fc             	mov    -0x4(%rbp),%eax
   14f3b:	89 c2                	mov    %eax,%edx
   14f3d:	48 8d 35 75 28 00 00 	lea    0x2875(%rip),%rsi        # 177b9 <g_1416+0x16b1>
   14f44:	48 89 cf             	mov    %rcx,%rdi
   14f47:	e8 a7 27 ff ff       	callq  76f3 <transparent_crc>
   14f4c:	8b 05 b6 67 00 00    	mov    0x67b6(%rip),%eax        # 1b708 <g_1633+0x8>
   14f52:	48 98                	cltq   
   14f54:	8b 55 fc             	mov    -0x4(%rbp),%edx
   14f57:	48 8d 35 65 28 00 00 	lea    0x2865(%rip),%rsi        # 177c3 <g_1416+0x16bb>
   14f5e:	48 89 c7             	mov    %rax,%rdi
   14f61:	e8 8d 27 ff ff       	callq  76f3 <transparent_crc>
   14f66:	8b 05 a0 67 00 00    	mov    0x67a0(%rip),%eax        # 1b70c <g_1633+0xc>
   14f6c:	48 98                	cltq   
   14f6e:	8b 55 fc             	mov    -0x4(%rbp),%edx
   14f71:	48 8d 35 55 28 00 00 	lea    0x2855(%rip),%rsi        # 177cd <g_1416+0x16c5>
   14f78:	48 89 c7             	mov    %rax,%rdi
   14f7b:	e8 73 27 ff ff       	callq  76f3 <transparent_crc>
   14f80:	0f b6 05 89 67 00 00 	movzbl 0x6789(%rip),%eax        # 1b710 <g_1633+0x10>
   14f87:	0f b6 c0             	movzbl %al,%eax
   14f8a:	8b 55 fc             	mov    -0x4(%rbp),%edx
   14f8d:	48 8d 35 43 28 00 00 	lea    0x2843(%rip),%rsi        # 177d7 <g_1416+0x16cf>
   14f94:	48 89 c7             	mov    %rax,%rdi
   14f97:	e8 57 27 ff ff       	callq  76f3 <transparent_crc>
   14f9c:	0f b6 05 6e 67 00 00 	movzbl 0x676e(%rip),%eax        # 1b711 <g_1633+0x11>
   14fa3:	48 0f be c0          	movsbq %al,%rax
   14fa7:	8b 55 fc             	mov    -0x4(%rbp),%edx
   14faa:	48 8d 35 30 28 00 00 	lea    0x2830(%rip),%rsi        # 177e1 <g_1416+0x16d9>
   14fb1:	48 89 c7             	mov    %rax,%rdi
   14fb4:	e8 3a 27 ff ff       	callq  76f3 <transparent_crc>
   14fb9:	48 8b 05 58 67 00 00 	mov    0x6758(%rip),%rax        # 1b718 <g_1633+0x18>
   14fc0:	8b 55 fc             	mov    -0x4(%rbp),%edx
   14fc3:	48 8d 35 21 28 00 00 	lea    0x2821(%rip),%rsi        # 177eb <g_1416+0x16e3>
   14fca:	48 89 c7             	mov    %rax,%rdi
   14fcd:	e8 21 27 ff ff       	callq  76f3 <transparent_crc>
   14fd2:	48 8b 05 47 67 00 00 	mov    0x6747(%rip),%rax        # 1b720 <g_1633+0x20>
   14fd9:	48 89 c1             	mov    %rax,%rcx
   14fdc:	8b 45 fc             	mov    -0x4(%rbp),%eax
   14fdf:	89 c2                	mov    %eax,%edx
   14fe1:	48 8d 35 0d 28 00 00 	lea    0x280d(%rip),%rsi        # 177f5 <g_1416+0x16ed>
   14fe8:	48 89 cf             	mov    %rcx,%rdi
   14feb:	e8 03 27 ff ff       	callq  76f3 <transparent_crc>
   14ff0:	0f b7 05 49 67 00 00 	movzwl 0x6749(%rip),%eax        # 1b740 <g_1669>
   14ff7:	48 0f bf c0          	movswq %ax,%rax
   14ffb:	8b 55 fc             	mov    -0x4(%rbp),%edx
   14ffe:	48 8d 35 fa 27 00 00 	lea    0x27fa(%rip),%rsi        # 177ff <g_1416+0x16f7>
   15005:	48 89 c7             	mov    %rax,%rdi
   15008:	e8 e6 26 ff ff       	callq  76f3 <transparent_crc>
   1500d:	8b 05 31 67 00 00    	mov    0x6731(%rip),%eax        # 1b744 <g_1669+0x4>
   15013:	89 c1                	mov    %eax,%ecx
   15015:	8b 45 fc             	mov    -0x4(%rbp),%eax
   15018:	89 c2                	mov    %eax,%edx
   1501a:	48 8d 35 e8 27 00 00 	lea    0x27e8(%rip),%rsi        # 17809 <g_1416+0x1701>
   15021:	48 89 cf             	mov    %rcx,%rdi
   15024:	e8 ca 26 ff ff       	callq  76f3 <transparent_crc>
   15029:	8b 05 19 67 00 00    	mov    0x6719(%rip),%eax        # 1b748 <g_1669+0x8>
   1502f:	48 98                	cltq   
   15031:	8b 55 fc             	mov    -0x4(%rbp),%edx
   15034:	48 8d 35 d8 27 00 00 	lea    0x27d8(%rip),%rsi        # 17813 <g_1416+0x170b>
   1503b:	48 89 c7             	mov    %rax,%rdi
   1503e:	e8 b0 26 ff ff       	callq  76f3 <transparent_crc>
   15043:	8b 05 03 67 00 00    	mov    0x6703(%rip),%eax        # 1b74c <g_1669+0xc>
   15049:	48 98                	cltq   
   1504b:	8b 55 fc             	mov    -0x4(%rbp),%edx
   1504e:	48 8d 35 c8 27 00 00 	lea    0x27c8(%rip),%rsi        # 1781d <g_1416+0x1715>
   15055:	48 89 c7             	mov    %rax,%rdi
   15058:	e8 96 26 ff ff       	callq  76f3 <transparent_crc>
   1505d:	0f b6 05 ec 66 00 00 	movzbl 0x66ec(%rip),%eax        # 1b750 <g_1669+0x10>
   15064:	0f b6 c0             	movzbl %al,%eax
   15067:	8b 55 fc             	mov    -0x4(%rbp),%edx
   1506a:	48 8d 35 b6 27 00 00 	lea    0x27b6(%rip),%rsi        # 17827 <g_1416+0x171f>
   15071:	48 89 c7             	mov    %rax,%rdi
   15074:	e8 7a 26 ff ff       	callq  76f3 <transparent_crc>
   15079:	0f b6 05 d1 66 00 00 	movzbl 0x66d1(%rip),%eax        # 1b751 <g_1669+0x11>
   15080:	48 0f be c0          	movsbq %al,%rax
   15084:	8b 55 fc             	mov    -0x4(%rbp),%edx
   15087:	48 8d 35 a3 27 00 00 	lea    0x27a3(%rip),%rsi        # 17831 <g_1416+0x1729>
   1508e:	48 89 c7             	mov    %rax,%rdi
   15091:	e8 5d 26 ff ff       	callq  76f3 <transparent_crc>
   15096:	48 8b 05 bb 66 00 00 	mov    0x66bb(%rip),%rax        # 1b758 <g_1669+0x18>
   1509d:	8b 55 fc             	mov    -0x4(%rbp),%edx
   150a0:	48 8d 35 94 27 00 00 	lea    0x2794(%rip),%rsi        # 1783b <g_1416+0x1733>
   150a7:	48 89 c7             	mov    %rax,%rdi
   150aa:	e8 44 26 ff ff       	callq  76f3 <transparent_crc>
   150af:	48 8b 05 aa 66 00 00 	mov    0x66aa(%rip),%rax        # 1b760 <g_1669+0x20>
   150b6:	48 89 c1             	mov    %rax,%rcx
   150b9:	8b 45 fc             	mov    -0x4(%rbp),%eax
   150bc:	89 c2                	mov    %eax,%edx
   150be:	48 8d 35 80 27 00 00 	lea    0x2780(%rip),%rsi        # 17845 <g_1416+0x173d>
   150c5:	48 89 cf             	mov    %rcx,%rdi
   150c8:	e8 26 26 ff ff       	callq  76f3 <transparent_crc>
   150cd:	c7 45 f0 00 00 00 00 	movl   $0x0,-0x10(%rbp)
   150d4:	eb 46                	jmp    1511c <main+0x218d>
   150d6:	8b 45 f0             	mov    -0x10(%rbp),%eax
   150d9:	48 98                	cltq   
   150db:	48 8d 15 86 66 00 00 	lea    0x6686(%rip),%rdx        # 1b768 <g_1670>
   150e2:	0f b6 04 10          	movzbl (%rax,%rdx,1),%eax
   150e6:	48 0f be c0          	movsbq %al,%rax
   150ea:	8b 55 fc             	mov    -0x4(%rbp),%edx
   150ed:	48 8d 35 5b 27 00 00 	lea    0x275b(%rip),%rsi        # 1784f <g_1416+0x1747>
   150f4:	48 89 c7             	mov    %rax,%rdi
   150f7:	e8 f7 25 ff ff       	callq  76f3 <transparent_crc>
   150fc:	83 7d fc 00          	cmpl   $0x0,-0x4(%rbp)
   15100:	74 16                	je     15118 <main+0x2189>
   15102:	8b 45 f0             	mov    -0x10(%rbp),%eax
   15105:	89 c6                	mov    %eax,%esi
   15107:	48 8d 3d cf 1f 00 00 	lea    0x1fcf(%rip),%rdi        # 170dd <g_1416+0xfd5>
   1510e:	b8 00 00 00 00       	mov    $0x0,%eax
   15113:	e8 68 0f ff ff       	callq  6080 <printf@plt>
   15118:	83 45 f0 01          	addl   $0x1,-0x10(%rbp)
   1511c:	83 7d f0 09          	cmpl   $0x9,-0x10(%rbp)
   15120:	7e b4                	jle    150d6 <main+0x2147>
   15122:	0f b7 05 57 66 00 00 	movzwl 0x6657(%rip),%eax        # 1b780 <g_1731>
   15129:	0f b7 c0             	movzwl %ax,%eax
   1512c:	8b 55 fc             	mov    -0x4(%rbp),%edx
   1512f:	48 8d 35 23 27 00 00 	lea    0x2723(%rip),%rsi        # 17859 <g_1416+0x1751>
   15136:	48 89 c7             	mov    %rax,%rdi
   15139:	e8 b5 25 ff ff       	callq  76f3 <transparent_crc>
   1513e:	8b 05 40 66 00 00    	mov    0x6640(%rip),%eax        # 1b784 <g_1731+0x4>
   15144:	48 98                	cltq   
   15146:	8b 55 fc             	mov    -0x4(%rbp),%edx
   15149:	48 8d 35 13 27 00 00 	lea    0x2713(%rip),%rsi        # 17863 <g_1416+0x175b>
   15150:	48 89 c7             	mov    %rax,%rdi
   15153:	e8 9b 25 ff ff       	callq  76f3 <transparent_crc>
   15158:	8b 05 2a 66 00 00    	mov    0x662a(%rip),%eax        # 1b788 <g_1731+0x8>
   1515e:	89 c1                	mov    %eax,%ecx
   15160:	8b 45 fc             	mov    -0x4(%rbp),%eax
   15163:	89 c2                	mov    %eax,%edx
   15165:	48 8d 35 01 27 00 00 	lea    0x2701(%rip),%rsi        # 1786d <g_1416+0x1765>
   1516c:	48 89 cf             	mov    %rcx,%rdi
   1516f:	e8 7f 25 ff ff       	callq  76f3 <transparent_crc>
   15174:	0f b7 05 11 66 00 00 	movzwl 0x6611(%rip),%eax        # 1b78c <g_1731+0xc>
   1517b:	48 0f bf c0          	movswq %ax,%rax
   1517f:	8b 55 fc             	mov    -0x4(%rbp),%edx
   15182:	48 8d 35 ee 26 00 00 	lea    0x26ee(%rip),%rsi        # 17877 <g_1416+0x176f>
   15189:	48 89 c7             	mov    %rax,%rdi
   1518c:	e8 62 25 ff ff       	callq  76f3 <transparent_crc>
   15191:	8b 05 f9 65 00 00    	mov    0x65f9(%rip),%eax        # 1b790 <g_1731+0x10>
   15197:	89 c1                	mov    %eax,%ecx
   15199:	8b 45 fc             	mov    -0x4(%rbp),%eax
   1519c:	89 c2                	mov    %eax,%edx
   1519e:	48 8d 35 dc 26 00 00 	lea    0x26dc(%rip),%rsi        # 17881 <g_1416+0x1779>
   151a5:	48 89 cf             	mov    %rcx,%rdi
   151a8:	e8 46 25 ff ff       	callq  76f3 <transparent_crc>
   151ad:	0f b7 05 ec 65 00 00 	movzwl 0x65ec(%rip),%eax        # 1b7a0 <g_1756>
   151b4:	48 0f bf c0          	movswq %ax,%rax
   151b8:	8b 55 fc             	mov    -0x4(%rbp),%edx
   151bb:	48 8d 35 c9 26 00 00 	lea    0x26c9(%rip),%rsi        # 1788b <g_1416+0x1783>
   151c2:	48 89 c7             	mov    %rax,%rdi
   151c5:	e8 29 25 ff ff       	callq  76f3 <transparent_crc>
   151ca:	8b 05 d4 65 00 00    	mov    0x65d4(%rip),%eax        # 1b7a4 <g_1756+0x4>
   151d0:	89 c1                	mov    %eax,%ecx
   151d2:	8b 45 fc             	mov    -0x4(%rbp),%eax
   151d5:	89 c2                	mov    %eax,%edx
   151d7:	48 8d 35 b7 26 00 00 	lea    0x26b7(%rip),%rsi        # 17895 <g_1416+0x178d>
   151de:	48 89 cf             	mov    %rcx,%rdi
   151e1:	e8 0d 25 ff ff       	callq  76f3 <transparent_crc>
   151e6:	8b 05 bc 65 00 00    	mov    0x65bc(%rip),%eax        # 1b7a8 <g_1756+0x8>
   151ec:	48 98                	cltq   
   151ee:	8b 55 fc             	mov    -0x4(%rbp),%edx
   151f1:	48 8d 35 a7 26 00 00 	lea    0x26a7(%rip),%rsi        # 1789f <g_1416+0x1797>
   151f8:	48 89 c7             	mov    %rax,%rdi
   151fb:	e8 f3 24 ff ff       	callq  76f3 <transparent_crc>
   15200:	8b 05 a6 65 00 00    	mov    0x65a6(%rip),%eax        # 1b7ac <g_1756+0xc>
   15206:	48 98                	cltq   
   15208:	8b 55 fc             	mov    -0x4(%rbp),%edx
   1520b:	48 8d 35 97 26 00 00 	lea    0x2697(%rip),%rsi        # 178a9 <g_1416+0x17a1>
   15212:	48 89 c7             	mov    %rax,%rdi
   15215:	e8 d9 24 ff ff       	callq  76f3 <transparent_crc>
   1521a:	0f b6 05 8f 65 00 00 	movzbl 0x658f(%rip),%eax        # 1b7b0 <g_1756+0x10>
   15221:	0f b6 c0             	movzbl %al,%eax
   15224:	8b 55 fc             	mov    -0x4(%rbp),%edx
   15227:	48 8d 35 85 26 00 00 	lea    0x2685(%rip),%rsi        # 178b3 <g_1416+0x17ab>
   1522e:	48 89 c7             	mov    %rax,%rdi
   15231:	e8 bd 24 ff ff       	callq  76f3 <transparent_crc>
   15236:	0f b6 05 74 65 00 00 	movzbl 0x6574(%rip),%eax        # 1b7b1 <g_1756+0x11>
   1523d:	48 0f be c0          	movsbq %al,%rax
   15241:	8b 55 fc             	mov    -0x4(%rbp),%edx
   15244:	48 8d 35 72 26 00 00 	lea    0x2672(%rip),%rsi        # 178bd <g_1416+0x17b5>
   1524b:	48 89 c7             	mov    %rax,%rdi
   1524e:	e8 a0 24 ff ff       	callq  76f3 <transparent_crc>
   15253:	48 8b 05 5e 65 00 00 	mov    0x655e(%rip),%rax        # 1b7b8 <g_1756+0x18>
   1525a:	8b 55 fc             	mov    -0x4(%rbp),%edx
   1525d:	48 8d 35 63 26 00 00 	lea    0x2663(%rip),%rsi        # 178c7 <g_1416+0x17bf>
   15264:	48 89 c7             	mov    %rax,%rdi
   15267:	e8 87 24 ff ff       	callq  76f3 <transparent_crc>
   1526c:	48 8b 05 4d 65 00 00 	mov    0x654d(%rip),%rax        # 1b7c0 <g_1756+0x20>
   15273:	48 89 c1             	mov    %rax,%rcx
   15276:	8b 45 fc             	mov    -0x4(%rbp),%eax
   15279:	89 c2                	mov    %eax,%edx
   1527b:	48 8d 35 4f 26 00 00 	lea    0x264f(%rip),%rsi        # 178d1 <g_1416+0x17c9>
   15282:	48 89 cf             	mov    %rcx,%rdi
   15285:	e8 69 24 ff ff       	callq  76f3 <transparent_crc>
   1528a:	8b 05 38 65 00 00    	mov    0x6538(%rip),%eax        # 1b7c8 <g_1765>
   15290:	89 c1                	mov    %eax,%ecx
   15292:	8b 45 fc             	mov    -0x4(%rbp),%eax
   15295:	89 c2                	mov    %eax,%edx
   15297:	48 8d 35 3d 26 00 00 	lea    0x263d(%rip),%rsi        # 178db <g_1416+0x17d3>
   1529e:	48 89 cf             	mov    %rcx,%rdi
   152a1:	e8 4d 24 ff ff       	callq  76f3 <transparent_crc>
   152a6:	8b 05 74 4d 00 00    	mov    0x4d74(%rip),%eax        # 1a020 <crc32_context>
   152ac:	f7 d0                	not    %eax
   152ae:	89 c2                	mov    %eax,%edx
   152b0:	8b 45 fc             	mov    -0x4(%rbp),%eax
   152b3:	89 c6                	mov    %eax,%esi
   152b5:	89 d7                	mov    %edx,%edi
   152b7:	e8 d8 0e ff ff       	callq  6194 <platform_main_end>
   152bc:	b8 00 00 00 00       	mov    $0x0,%eax
   152c1:	c9                   	leaveq 
   152c2:	c3                   	retq   
   152c3:	66 2e 0f 1f 84 00 00 	nopw   %cs:0x0(%rax,%rax,1)
   152ca:	00 00 00 
   152cd:	0f 1f 00             	nopl   (%rax)

00000000000152d0 <__libc_csu_init>:
   152d0:	f3 0f 1e fa          	endbr64 
   152d4:	41 57                	push   %r15
   152d6:	4c 8d 3d c3 4a 00 00 	lea    0x4ac3(%rip),%r15        # 19da0 <__frame_dummy_init_array_entry>
   152dd:	41 56                	push   %r14
   152df:	49 89 d6             	mov    %rdx,%r14
   152e2:	41 55                	push   %r13
   152e4:	49 89 f5             	mov    %rsi,%r13
   152e7:	41 54                	push   %r12
   152e9:	41 89 fc             	mov    %edi,%r12d
   152ec:	55                   	push   %rbp
   152ed:	48 8d 2d b4 4a 00 00 	lea    0x4ab4(%rip),%rbp        # 19da8 <__do_global_dtors_aux_fini_array_entry>
   152f4:	53                   	push   %rbx
   152f5:	4c 29 fd             	sub    %r15,%rbp
   152f8:	48 83 ec 08          	sub    $0x8,%rsp
   152fc:	e8 ff 0c ff ff       	callq  6000 <_init>
   15301:	48 c1 fd 03          	sar    $0x3,%rbp
   15305:	74 1f                	je     15326 <__libc_csu_init+0x56>
   15307:	31 db                	xor    %ebx,%ebx
   15309:	0f 1f 80 00 00 00 00 	nopl   0x0(%rax)
   15310:	4c 89 f2             	mov    %r14,%rdx
   15313:	4c 89 ee             	mov    %r13,%rsi
   15316:	44 89 e7             	mov    %r12d,%edi
   15319:	41 ff 14 df          	callq  *(%r15,%rbx,8)
   1531d:	48 83 c3 01          	add    $0x1,%rbx
   15321:	48 39 dd             	cmp    %rbx,%rbp
   15324:	75 ea                	jne    15310 <__libc_csu_init+0x40>
   15326:	48 83 c4 08          	add    $0x8,%rsp
   1532a:	5b                   	pop    %rbx
   1532b:	5d                   	pop    %rbp
   1532c:	41 5c                	pop    %r12
   1532e:	41 5d                	pop    %r13
   15330:	41 5e                	pop    %r14
   15332:	41 5f                	pop    %r15
   15334:	c3                   	retq   
   15335:	66 66 2e 0f 1f 84 00 	data16 nopw %cs:0x0(%rax,%rax,1)
   1533c:	00 00 00 00 

0000000000015340 <__libc_csu_fini>:
   15340:	f3 0f 1e fa          	endbr64 
   15344:	c3                   	retq   
